MODULE Linux arm64 60E9E924DA6B17BE809DB2828FEEF9420 raydeeux.variouscommenttweaks.android64.so
INFO CODE_ID 24E9E9606BDABE17809DB2828FEEF9426AF80E2F
INFO GENERATOR mozilla/dump_syms 2.3.4
PUBLIC 205a0 0 __on_dlclose
PUBLIC 205b0 0 __emutls_unregister_key
PUBLIC 205b8 0 __on_dlclose_late
PUBLIC 205c0 0 __atexit_handler_wrapper
PUBLIC 205d4 0 atexit
PUBLIC 205f0 0 pthread_atfork
PUBLIC 20600 0 unwind_phase2
PUBLIC 20734 0 _Unwind_Resume
PUBLIC 207b8 0 unwind_phase2_forced
PUBLIC m 208ac 0 __unw_init_local
PUBLIC m 20954 0 __unw_get_reg
PUBLIC 209d0 0 __unw_step_stage2
PUBLIC m 209e4 0 __unw_get_proc_info
PUBLIC m 20a24 0 __unw_resume
PUBLIC 20a4c 0 libunwind::CFI_Parser<libunwind::LocalAddressSpace>::decodeFDE(libunwind::LocalAddressSpace&, unsigned long, libunwind::CFI_Parser<libunwind::LocalAddressSpace>::FDE_Info*, libunwind::CFI_Parser<libunwind::LocalAddressSpace>::CIE_Info*, bool)
PUBLIC 20bdc 0 libunwind::CFI_Parser<libunwind::LocalAddressSpace>::parseCIE(libunwind::LocalAddressSpace&, unsigned long, libunwind::CFI_Parser<libunwind::LocalAddressSpace>::CIE_Info*)
PUBLIC 20ea4 0 libunwind::AbstractUnwindCursor::~AbstractUnwindCursor()
PUBLIC 20eac 0 libunwind::UnwindCursor<libunwind::LocalAddressSpace, libunwind::Registers_arm64>::~UnwindCursor()
PUBLIC 20eb4 0 libunwind::UnwindCursor<libunwind::LocalAddressSpace, libunwind::Registers_arm64>::validReg(int)
PUBLIC 20ef8 0 libunwind::UnwindCursor<libunwind::LocalAddressSpace, libunwind::Registers_arm64>::getReg(int)
PUBLIC 20fe0 0 libunwind::UnwindCursor<libunwind::LocalAddressSpace, libunwind::Registers_arm64>::setReg(int, unsigned long)
PUBLIC 210c8 0 libunwind::UnwindCursor<libunwind::LocalAddressSpace, libunwind::Registers_arm64>::validFloatReg(int)
PUBLIC 210dc 0 libunwind::UnwindCursor<libunwind::LocalAddressSpace, libunwind::Registers_arm64>::getFloatReg(int)
PUBLIC 210ec 0 libunwind::UnwindCursor<libunwind::LocalAddressSpace, libunwind::Registers_arm64>::setFloatReg(int, double)
PUBLIC 210fc 0 libunwind::UnwindCursor<libunwind::LocalAddressSpace, libunwind::Registers_arm64>::step(bool)
PUBLIC 211ec 0 libunwind::UnwindCursor<libunwind::LocalAddressSpace, libunwind::Registers_arm64>::getInfo(unw_proc_info_t*)
PUBLIC 21230 0 libunwind::UnwindCursor<libunwind::LocalAddressSpace, libunwind::Registers_arm64>::jumpto()
PUBLIC 2123c 0 libunwind::UnwindCursor<libunwind::LocalAddressSpace, libunwind::Registers_arm64>::isSignalFrame()
PUBLIC 21248 0 libunwind::UnwindCursor<libunwind::LocalAddressSpace, libunwind::Registers_arm64>::getFunctionName(char*, unsigned long, unsigned long*)
PUBLIC 21274 0 libunwind::UnwindCursor<libunwind::LocalAddressSpace, libunwind::Registers_arm64>::setInfoBasedOnIPRegister(bool)
PUBLIC 214f4 0 libunwind::UnwindCursor<libunwind::LocalAddressSpace, libunwind::Registers_arm64>::getRegisterName(int)
PUBLIC 21500 0 libunwind::UnwindCursor<libunwind::LocalAddressSpace, libunwind::Registers_arm64>::stepThroughSigReturn(libunwind::Registers_arm64&)
PUBLIC 21620 0 libunwind::DwarfInstructions<libunwind::LocalAddressSpace, libunwind::Registers_arm64>::stepWithDwarf(libunwind::LocalAddressSpace&, unsigned long, unsigned long, libunwind::Registers_arm64&, bool&, bool)
PUBLIC 21aa8 0 libunwind::CFI_Parser<libunwind::LocalAddressSpace>::parseFDEInstructions(libunwind::LocalAddressSpace&, libunwind::CFI_Parser<libunwind::LocalAddressSpace>::FDE_Info const&, libunwind::CFI_Parser<libunwind::LocalAddressSpace>::CIE_Info const&, unsigned long, int, libunwind::CFI_Parser<libunwind::LocalAddressSpace>::PrologInfo*)
PUBLIC 226f0 0 libunwind::DwarfInstructions<libunwind::LocalAddressSpace, libunwind::Registers_arm64>::getCFA(libunwind::LocalAddressSpace&, libunwind::CFI_Parser<libunwind::LocalAddressSpace>::PrologInfo const&, libunwind::Registers_arm64 const&)
PUBLIC 22824 0 libunwind::DwarfInstructions<libunwind::LocalAddressSpace, libunwind::Registers_arm64>::getSavedRegister(libunwind::LocalAddressSpace&, libunwind::Registers_arm64 const&, unsigned long, libunwind::CFI_Parser<libunwind::LocalAddressSpace>::RegisterLocation const&)
PUBLIC 22a34 0 libunwind::LocalAddressSpace::getEncodedP(unsigned long&, unsigned long, unsigned char, unsigned long)
PUBLIC 22dc0 0 libunwind::LocalAddressSpace::getULEB128(unsigned long&, unsigned long)
PUBLIC 22f88 0 libunwind::DwarfInstructions<libunwind::LocalAddressSpace, libunwind::Registers_arm64>::evaluateExpression(unsigned long, libunwind::LocalAddressSpace&, libunwind::Registers_arm64 const&, unsigned long)
PUBLIC 23944 0 libunwind::UnwindCursor<libunwind::LocalAddressSpace, libunwind::Registers_arm64>::getInfoFromDwarfSection(unsigned long, libunwind::UnwindInfoSections const&, unsigned int)
PUBLIC 23c18 0 libunwind::findUnwindSectionsByPhdr(dl_phdr_info*, unsigned long, void*)
PUBLIC 23d4c 0 libunwind::EHHeaderParser<libunwind::LocalAddressSpace>::decodeEHHdr(libunwind::LocalAddressSpace&, unsigned long, unsigned long, libunwind::EHHeaderParser<libunwind::LocalAddressSpace>::EHHeaderInfo&)
PUBLIC 23e6c 0 libunwind::CFI_Parser<libunwind::LocalAddressSpace>::findFDE(libunwind::LocalAddressSpace&, unsigned long, unsigned long, unsigned long, unsigned long, libunwind::CFI_Parser<libunwind::LocalAddressSpace>::FDE_Info*, libunwind::CFI_Parser<libunwind::LocalAddressSpace>::CIE_Info*)
PUBLIC 24034 0 libunwind::EHHeaderParser<libunwind::LocalAddressSpace>::findFDE(libunwind::LocalAddressSpace&, unsigned long, unsigned long, unsigned int, libunwind::CFI_Parser<libunwind::LocalAddressSpace>::FDE_Info*, libunwind::CFI_Parser<libunwind::LocalAddressSpace>::CIE_Info*)
PUBLIC 2419c 0 libunwind::EHHeaderParser<libunwind::LocalAddressSpace>::getTableEntrySize(unsigned char)
PUBLIC 24298 0 libunwind::Registers_arm64::getRegisterName(int)
PUBLIC 242c8 0 __libunwind_Registers_arm64_jumpto
PUBLIC m 24358 0 __unw_getcontext
PUBLIC 243f4 0 Simpleton::getUserListFinished(cocos2d::CCArray*, UserListType)
PUBLIC 2483c 0 geode::cocos::CCArrayExt<GJUserScore*>::~CCArrayExt()
PUBLIC 24858 0 Simpleton::getUserListFailed(UserListType, GJErrorCode)
PUBLIC 2490c 0 Manager::Manager()
PUBLIC 269b0 0 _ZNSt6__ndk14pairIKNS_12basic_stringIcNS_11char_traitsIcEENS_9allocatorIcEEEES6_EC2B8ne180000IRA10_KcRA3_SA_TnNS_9enable_ifIXclsr10_CheckArgsE17__enable_implicitIT_T0_EEEiE4typeELi0EEEOSG_OSH_
PUBLIC 26ae8 0 _ZNSt6__ndk14pairIKNS_12basic_stringIcNS_11char_traitsIcEENS_9allocatorIcEEEES6_EC2B8ne180000IRA4_KcRA3_SA_TnNS_9enable_ifIXclsr10_CheckArgsE17__enable_implicitIT_T0_EEEiE4typeELi0EEEOSG_OSH_
PUBLIC 26c20 0 _ZNSt6__ndk14pairIKNS_12basic_stringIcNS_11char_traitsIcEENS_9allocatorIcEEEES6_EC2B8ne180000IRA8_KcRA3_SA_TnNS_9enable_ifIXclsr10_CheckArgsE17__enable_implicitIT_T0_EEEiE4typeELi0EEEOSG_OSH_
PUBLIC 26d58 0 _ZNSt6__ndk14pairIKNS_12basic_stringIcNS_11char_traitsIcEENS_9allocatorIcEEEES6_EC2B8ne180000IRA7_KcRA3_SA_TnNS_9enable_ifIXclsr10_CheckArgsE17__enable_implicitIT_T0_EEEiE4typeELi0EEEOSG_OSH_
PUBLIC 26e90 0 _ZNSt6__ndk14pairIKNS_12basic_stringIcNS_11char_traitsIcEENS_9allocatorIcEEEES6_EC2B8ne180000IRA9_KcRA3_SA_TnNS_9enable_ifIXclsr10_CheckArgsE17__enable_implicitIT_T0_EEEiE4typeELi0EEEOSG_OSH_
PUBLIC 26fc8 0 _ZNSt6__ndk14pairIKNS_12basic_stringIcNS_11char_traitsIcEENS_9allocatorIcEEEES6_EC2B8ne180000IRA16_KcRA5_SA_TnNS_9enable_ifIXclsr10_CheckArgsE17__enable_implicitIT_T0_EEEiE4typeELi0EEEOSG_OSH_
PUBLIC 27100 0 _ZNSt6__ndk14pairIKNS_12basic_stringIcNS_11char_traitsIcEENS_9allocatorIcEEEES6_EC2B8ne180000IRA12_KcRA3_SA_TnNS_9enable_ifIXclsr10_CheckArgsE17__enable_implicitIT_T0_EEEiE4typeELi0EEEOSG_OSH_
PUBLIC 27238 0 _ZNSt6__ndk14pairIKNS_12basic_stringIcNS_11char_traitsIcEENS_9allocatorIcEEEES6_EC2B8ne180000IRA11_KcRA3_SA_TnNS_9enable_ifIXclsr10_CheckArgsE17__enable_implicitIT_T0_EEEiE4typeELi0EEEOSG_OSH_
PUBLIC 27370 0 _ZNSt6__ndk14pairIKNS_12basic_stringIcNS_11char_traitsIcEENS_9allocatorIcEEEES6_EC2B8ne180000IRA9_KcRA4_SA_TnNS_9enable_ifIXclsr10_CheckArgsE17__enable_implicitIT_T0_EEEiE4typeELi0EEEOSG_OSH_
PUBLIC 274a8 0 _ZNSt6__ndk14pairIKNS_12basic_stringIcNS_11char_traitsIcEENS_9allocatorIcEEEES6_EC2B8ne180000IRA8_KcRA4_SA_TnNS_9enable_ifIXclsr10_CheckArgsE17__enable_implicitIT_T0_EEEiE4typeELi0EEEOSG_OSH_
PUBLIC 275e0 0 _ZNSt6__ndk14pairIKNS_12basic_stringIcNS_11char_traitsIcEENS_9allocatorIcEEEES6_EC2B8ne180000IRA17_KcRA4_SA_TnNS_9enable_ifIXclsr10_CheckArgsE17__enable_implicitIT_T0_EEEiE4typeELi0EEEOSG_OSH_
PUBLIC 27718 0 _ZNSt6__ndk14pairIKNS_12basic_stringIcNS_11char_traitsIcEENS_9allocatorIcEEEES6_EC2B8ne180000IRA6_KcRA3_SA_TnNS_9enable_ifIXclsr10_CheckArgsE17__enable_implicitIT_T0_EEEiE4typeELi0EEEOSG_OSH_
PUBLIC 27850 0 _ZNSt6__ndk14pairIKNS_12basic_stringIcNS_11char_traitsIcEENS_9allocatorIcEEEES6_EC2B8ne180000IRA6_KcRA4_SA_TnNS_9enable_ifIXclsr10_CheckArgsE17__enable_implicitIT_T0_EEEiE4typeELi0EEEOSG_OSH_
PUBLIC 27988 0 _ZNSt6__ndk14pairIKNS_12basic_stringIcNS_11char_traitsIcEENS_9allocatorIcEEEES6_EC2B8ne180000IRA13_KcRA3_SA_TnNS_9enable_ifIXclsr10_CheckArgsE17__enable_implicitIT_T0_EEEiE4typeELi0EEEOSG_OSH_
PUBLIC 27ac0 0 _ZNSt6__ndk14pairIKNS_12basic_stringIcNS_11char_traitsIcEENS_9allocatorIcEEEES6_EC2B8ne180000IRA15_KcRA3_SA_TnNS_9enable_ifIXclsr10_CheckArgsE17__enable_implicitIT_T0_EEEiE4typeELi0EEEOSG_OSH_
PUBLIC 27bf8 0 _ZNSt6__ndk14pairIKNS_12basic_stringIcNS_11char_traitsIcEENS_9allocatorIcEEEES6_EC2B8ne180000IRA5_KcRA3_SA_TnNS_9enable_ifIXclsr10_CheckArgsE17__enable_implicitIT_T0_EEEiE4typeELi0EEEOSG_OSH_
PUBLIC 27d30 0 _ZNSt6__ndk14pairIKNS_12basic_stringIcNS_11char_traitsIcEENS_9allocatorIcEEEES6_EC2B8ne180000IRA5_KcRA4_SA_TnNS_9enable_ifIXclsr10_CheckArgsE17__enable_implicitIT_T0_EEEiE4typeELi0EEEOSG_OSH_
PUBLIC 27e68 0 _ZNSt6__ndk14pairIKNS_12basic_stringIcNS_11char_traitsIcEENS_9allocatorIcEEEES6_EC2B8ne180000IRA19_KcRA3_SA_TnNS_9enable_ifIXclsr10_CheckArgsE17__enable_implicitIT_T0_EEEiE4typeELi0EEEOSG_OSH_
PUBLIC 27fa0 0 _ZNSt6__ndk14pairIKNS_12basic_stringIcNS_11char_traitsIcEENS_9allocatorIcEEEES6_EC2B8ne180000IRA14_KcRA3_SA_TnNS_9enable_ifIXclsr10_CheckArgsE17__enable_implicitIT_T0_EEEiE4typeELi0EEEOSG_OSH_
PUBLIC 280d8 0 _ZNSt6__ndk14pairIKNS_12basic_stringIcNS_11char_traitsIcEENS_9allocatorIcEEEES6_EC2B8ne180000IRA21_KcRA9_SA_TnNS_9enable_ifIXclsr10_CheckArgsE17__enable_implicitIT_T0_EEEiE4typeELi0EEEOSG_OSH_
PUBLIC 28210 0 _ZNSt6__ndk14pairIKNS_12basic_stringIcNS_11char_traitsIcEENS_9allocatorIcEEEES6_EC2B8ne180000IRA18_KcRA3_SA_TnNS_9enable_ifIXclsr10_CheckArgsE17__enable_implicitIT_T0_EEEiE4typeELi0EEEOSG_OSH_
PUBLIC 28348 0 _ZNSt6__ndk14pairIKNS_12basic_stringIcNS_11char_traitsIcEENS_9allocatorIcEEEES6_EC2B8ne180000IRA7_KcRA4_SA_TnNS_9enable_ifIXclsr10_CheckArgsE17__enable_implicitIT_T0_EEEiE4typeELi0EEEOSG_OSH_
PUBLIC 28480 0 _ZNSt6__ndk14pairIKNS_12basic_stringIcNS_11char_traitsIcEENS_9allocatorIcEEEES6_EC2B8ne180000IRA21_KcRA6_SA_TnNS_9enable_ifIXclsr10_CheckArgsE17__enable_implicitIT_T0_EEEiE4typeELi0EEEOSG_OSH_
PUBLIC 285b8 0 _ZNSt6__ndk14pairIKNS_12basic_stringIcNS_11char_traitsIcEENS_9allocatorIcEEEES6_EC2B8ne180000IRA22_KcRA6_SA_TnNS_9enable_ifIXclsr10_CheckArgsE17__enable_implicitIT_T0_EEEiE4typeELi0EEEOSG_OSH_
PUBLIC 286f0 0 std::__ndk1::pair<std::__ndk1::basic_string<char, std::__ndk1::char_traits<char>, std::__ndk1::allocator<char> > const, std::__ndk1::basic_string<char, std::__ndk1::char_traits<char>, std::__ndk1::allocator<char> > >::~pair()
PUBLIC 28734 0 _ZNSt6__ndk14pairIKNS_12basic_stringIcNS_11char_traitsIcEENS_9allocatorIcEEEES6_EC2B8ne180000IRA16_KcRA3_SA_TnNS_9enable_ifIXclsr10_CheckArgsE17__enable_implicitIT_T0_EEEiE4typeELi0EEEOSG_OSH_
PUBLIC 2886c 0 _ZNSt6__ndk14pairIKNS_12basic_stringIcNS_11char_traitsIcEENS_9allocatorIcEEEES6_EC2B8ne180000IRA11_KcRA6_SA_TnNS_9enable_ifIXclsr10_CheckArgsE17__enable_implicitIT_T0_EEEiE4typeELi0EEEOSG_OSH_
PUBLIC 289a4 0 _ZNSt6__ndk14pairIKNS_12basic_stringIcNS_11char_traitsIcEENS_9allocatorIcEEEES6_EC2B8ne180000IRA21_KcRA8_SA_TnNS_9enable_ifIXclsr10_CheckArgsE17__enable_implicitIT_T0_EEEiE4typeELi0EEEOSG_OSH_
PUBLIC 28adc 0 _ZNSt6__ndk14pairIKNS_12basic_stringIcNS_11char_traitsIcEENS_9allocatorIcEEEES6_EC2B8ne180000IRA22_KcRA8_SA_TnNS_9enable_ifIXclsr10_CheckArgsE17__enable_implicitIT_T0_EEEiE4typeELi0EEEOSG_OSH_
PUBLIC 28c14 0 std::__ndk1::unordered_map<std::__ndk1::basic_string<char, std::__ndk1::char_traits<char>, std::__ndk1::allocator<char> >, std::__ndk1::basic_string<char, std::__ndk1::char_traits<char>, std::__ndk1::allocator<char> >, std::__ndk1::hash<std::__ndk1::basic_string<char, std::__ndk1::char_traits<char>, std::__ndk1::allocator<char> > >, std::__ndk1::equal_to<std::__ndk1::basic_string<char, std::__ndk1::char_traits<char>, std::__ndk1::allocator<char> > >, std::__ndk1::allocator<std::__ndk1::pair<std::__ndk1::basic_string<char, std::__ndk1::char_traits<char>, std::__ndk1::allocator<char> > const, std::__ndk1::basic_string<char, std::__ndk1::char_traits<char>, std::__ndk1::allocator<char> > > > >::~unordered_map[abi:ne180000]()
PUBLIC 28ca0 0 std::__ndk1::vector<std::__ndk1::basic_string<char, std::__ndk1::char_traits<char>, std::__ndk1::allocator<char> >, std::__ndk1::allocator<std::__ndk1::basic_string<char, std::__ndk1::char_traits<char>, std::__ndk1::allocator<char> > > >::~vector[abi:ne180000]()
PUBLIC 28d1c 0 __clang_call_terminate
PUBLIC 28d2c 0 std::__ndk1::basic_string<char, std::__ndk1::char_traits<char>, std::__ndk1::allocator<char> >::__throw_length_error[abi:ne180000]() const
PUBLIC 28d40 0 std::__ndk1::__throw_length_error[abi:ne180000](char const*)
PUBLIC 28d90 0 std::length_error::length_error[abi:ne180000](char const*)
PUBLIC 28dc0 0 std::__throw_bad_array_new_length([abi:ne180000], void)
PUBLIC 28df4 0 std::__ndk1::__hash_table<std::__ndk1::__hash_value_type<std::__ndk1::basic_string<char, std::__ndk1::char_traits<char>, std::__ndk1::allocator<char> >, std::__ndk1::basic_string<char, std::__ndk1::char_traits<char>, std::__ndk1::allocator<char> > >, std::__ndk1::__unordered_map_hasher<std::__ndk1::basic_string<char, std::__ndk1::char_traits<char>, std::__ndk1::allocator<char> >, std::__ndk1::__hash_value_type<std::__ndk1::basic_string<char, std::__ndk1::char_traits<char>, std::__ndk1::allocator<char> >, std::__ndk1::basic_string<char, std::__ndk1::char_traits<char>, std::__ndk1::allocator<char> > >, std::__ndk1::hash<std::__ndk1::basic_string<char, std::__ndk1::char_traits<char>, std::__ndk1::allocator<char> > >, std::__ndk1::equal_to<std::__ndk1::basic_string<char, std::__ndk1::char_traits<char>, std::__ndk1::allocator<char> > >, true>, std::__ndk1::__unordered_map_equal<std::__ndk1::basic_string<char, std::__ndk1::char_traits<char>, std::__ndk1::allocator<char> >, std::__ndk1::__hash_value_type<std::__ndk1::basic_string<char, std::__ndk1::char_traits<char>, std::__ndk1::allocator<char> >, std::__ndk1::basic_string<char, std::__ndk1::char_traits<char>, std::__ndk1::allocator<char> > >, std::__ndk1::equal_to<std::__ndk1::basic_string<char, std::__ndk1::char_traits<char>, std::__ndk1::allocator<char> > >, std::__ndk1::hash<std::__ndk1::basic_string<char, std::__ndk1::char_traits<char>, std::__ndk1::allocator<char> > >, true>, std::__ndk1::allocator<std::__ndk1::__hash_value_type<std::__ndk1::basic_string<char, std::__ndk1::char_traits<char>, std::__ndk1::allocator<char> >, std::__ndk1::basic_string<char, std::__ndk1::char_traits<char>, std::__ndk1::allocator<char> > > > >::~__hash_table()
PUBLIC 28e80 0 std::__ndk1::__hash_table<std::__ndk1::__hash_value_type<std::__ndk1::basic_string<char, std::__ndk1::char_traits<char>, std::__ndk1::allocator<char> >, std::__ndk1::basic_string<char, std::__ndk1::char_traits<char>, std::__ndk1::allocator<char> > >, std::__ndk1::__unordered_map_hasher<std::__ndk1::basic_string<char, std::__ndk1::char_traits<char>, std::__ndk1::allocator<char> >, std::__ndk1::__hash_value_type<std::__ndk1::basic_string<char, std::__ndk1::char_traits<char>, std::__ndk1::allocator<char> >, std::__ndk1::basic_string<char, std::__ndk1::char_traits<char>, std::__ndk1::allocator<char> > >, std::__ndk1::hash<std::__ndk1::basic_string<char, std::__ndk1::char_traits<char>, std::__ndk1::allocator<char> > >, std::__ndk1::equal_to<std::__ndk1::basic_string<char, std::__ndk1::char_traits<char>, std::__ndk1::allocator<char> > >, true>, std::__ndk1::__unordered_map_equal<std::__ndk1::basic_string<char, std::__ndk1::char_traits<char>, std::__ndk1::allocator<char> >, std::__ndk1::__hash_value_type<std::__ndk1::basic_string<char, std::__ndk1::char_traits<char>, std::__ndk1::allocator<char> >, std::__ndk1::basic_string<char, std::__ndk1::char_traits<char>, std::__ndk1::allocator<char> > >, std::__ndk1::equal_to<std::__ndk1::basic_string<char, std::__ndk1::char_traits<char>, std::__ndk1::allocator<char> > >, std::__ndk1::hash<std::__ndk1::basic_string<char, std::__ndk1::char_traits<char>, std::__ndk1::allocator<char> > >, true>, std::__ndk1::allocator<std::__ndk1::__hash_value_type<std::__ndk1::basic_string<char, std::__ndk1::char_traits<char>, std::__ndk1::allocator<char> >, std::__ndk1::basic_string<char, std::__ndk1::char_traits<char>, std::__ndk1::allocator<char> > > > >::__emplace_unique_key_args<std::__ndk1::basic_string<char, std::__ndk1::char_traits<char>, std::__ndk1::allocator<char> >, std::__ndk1::pair<std::__ndk1::basic_string<char, std::__ndk1::char_traits<char>, std::__ndk1::allocator<char> > const, std::__ndk1::basic_string<char, std::__ndk1::char_traits<char>, std::__ndk1::allocator<char> > > const&>(std::__ndk1::basic_string<char, std::__ndk1::char_traits<char>, std::__ndk1::allocator<char> > const&, std::__ndk1::pair<std::__ndk1::basic_string<char, std::__ndk1::char_traits<char>, std::__ndk1::allocator<char> > const, std::__ndk1::basic_string<char, std::__ndk1::char_traits<char>, std::__ndk1::allocator<char> > > const&)
PUBLIC 292f8 0 std::__ndk1::__hash_table<std::__ndk1::__hash_value_type<std::__ndk1::basic_string<char, std::__ndk1::char_traits<char>, std::__ndk1::allocator<char> >, std::__ndk1::basic_string<char, std::__ndk1::char_traits<char>, std::__ndk1::allocator<char> > >, std::__ndk1::__unordered_map_hasher<std::__ndk1::basic_string<char, std::__ndk1::char_traits<char>, std::__ndk1::allocator<char> >, std::__ndk1::__hash_value_type<std::__ndk1::basic_string<char, std::__ndk1::char_traits<char>, std::__ndk1::allocator<char> >, std::__ndk1::basic_string<char, std::__ndk1::char_traits<char>, std::__ndk1::allocator<char> > >, std::__ndk1::hash<std::__ndk1::basic_string<char, std::__ndk1::char_traits<char>, std::__ndk1::allocator<char> > >, std::__ndk1::equal_to<std::__ndk1::basic_string<char, std::__ndk1::char_traits<char>, std::__ndk1::allocator<char> > >, true>, std::__ndk1::__unordered_map_equal<std::__ndk1::basic_string<char, std::__ndk1::char_traits<char>, std::__ndk1::allocator<char> >, std::__ndk1::__hash_value_type<std::__ndk1::basic_string<char, std::__ndk1::char_traits<char>, std::__ndk1::allocator<char> >, std::__ndk1::basic_string<char, std::__ndk1::char_traits<char>, std::__ndk1::allocator<char> > >, std::__ndk1::equal_to<std::__ndk1::basic_string<char, std::__ndk1::char_traits<char>, std::__ndk1::allocator<char> > >, std::__ndk1::hash<std::__ndk1::basic_string<char, std::__ndk1::char_traits<char>, std::__ndk1::allocator<char> > >, true>, std::__ndk1::allocator<std::__ndk1::__hash_value_type<std::__ndk1::basic_string<char, std::__ndk1::char_traits<char>, std::__ndk1::allocator<char> >, std::__ndk1::basic_string<char, std::__ndk1::char_traits<char>, std::__ndk1::allocator<char> > > > >::__construct_node_hash<std::__ndk1::pair<std::__ndk1::basic_string<char, std::__ndk1::char_traits<char>, std::__ndk1::allocator<char> > const, std::__ndk1::basic_string<char, std::__ndk1::char_traits<char>, std::__ndk1::allocator<char> > > const&, >(unsigned long, std::__ndk1::pair<std::__ndk1::basic_string<char, std::__ndk1::char_traits<char>, std::__ndk1::allocator<char> > const, std::__ndk1::basic_string<char, std::__ndk1::char_traits<char>, std::__ndk1::allocator<char> > > const&, &&)
PUBLIC 293dc 0 std::__ndk1::unique_ptr<std::__ndk1::__hash_node<std::__ndk1::__hash_value_type<std::__ndk1::basic_string<char, std::__ndk1::char_traits<char>, std::__ndk1::allocator<char> >, std::__ndk1::basic_string<char, std::__ndk1::char_traits<char>, std::__ndk1::allocator<char> > >, void*>, std::__ndk1::__hash_node_destructor<std::__ndk1::allocator<std::__ndk1::__hash_node<std::__ndk1::__hash_value_type<std::__ndk1::basic_string<char, std::__ndk1::char_traits<char>, std::__ndk1::allocator<char> >, std::__ndk1::basic_string<char, std::__ndk1::char_traits<char>, std::__ndk1::allocator<char> > >, void*> > > >::~unique_ptr[abi:ne180000]()
PUBLIC 29438 0 std::__ndk1::__murmur2_or_cityhash<unsigned long, (unsigned long)64>::operator()[abi:ne180000](void const*, unsigned long) const
PUBLIC 29884 0 std::__ndk1::basic_string<char, std::__ndk1::char_traits<char>, std::__ndk1::allocator<char> >::__init_copy_ctor_external(char const*, unsigned long)
PUBLIC 29904 0 std::__ndk1::__hash_table<std::__ndk1::__hash_value_type<std::__ndk1::basic_string<char, std::__ndk1::char_traits<char>, std::__ndk1::allocator<char> >, std::__ndk1::basic_string<char, std::__ndk1::char_traits<char>, std::__ndk1::allocator<char> > >, std::__ndk1::__unordered_map_hasher<std::__ndk1::basic_string<char, std::__ndk1::char_traits<char>, std::__ndk1::allocator<char> >, std::__ndk1::__hash_value_type<std::__ndk1::basic_string<char, std::__ndk1::char_traits<char>, std::__ndk1::allocator<char> >, std::__ndk1::basic_string<char, std::__ndk1::char_traits<char>, std::__ndk1::allocator<char> > >, std::__ndk1::hash<std::__ndk1::basic_string<char, std::__ndk1::char_traits<char>, std::__ndk1::allocator<char> > >, std::__ndk1::equal_to<std::__ndk1::basic_string<char, std::__ndk1::char_traits<char>, std::__ndk1::allocator<char> > >, true>, std::__ndk1::__unordered_map_equal<std::__ndk1::basic_string<char, std::__ndk1::char_traits<char>, std::__ndk1::allocator<char> >, std::__ndk1::__hash_value_type<std::__ndk1::basic_string<char, std::__ndk1::char_traits<char>, std::__ndk1::allocator<char> >, std::__ndk1::basic_string<char, std::__ndk1::char_traits<char>, std::__ndk1::allocator<char> > >, std::__ndk1::equal_to<std::__ndk1::basic_string<char, std::__ndk1::char_traits<char>, std::__ndk1::allocator<char> > >, std::__ndk1::hash<std::__ndk1::basic_string<char, std::__ndk1::char_traits<char>, std::__ndk1::allocator<char> > >, true>, std::__ndk1::allocator<std::__ndk1::__hash_value_type<std::__ndk1::basic_string<char, std::__ndk1::char_traits<char>, std::__ndk1::allocator<char> >, std::__ndk1::basic_string<char, std::__ndk1::char_traits<char>, std::__ndk1::allocator<char> > > > >::__do_rehash<true>(unsigned long)
PUBLIC 29ab0 0 std::__ndk1::vector<int, std::__ndk1::allocator<int> >::__throw_length_error[abi:ne180000]() const
PUBLIC 29ad0 0 __aarch64_ldadd8_relax
PUBLIC 29b00 0 init_have_lse_atomics
PUBLIC 29b98 0 __init_cpu_features_constructor
PUBLIC 2a134 0 __init_cpu_features
PUBLIC 2a1c0 0 __aarch64_ldadd8_acq_rel
PUBLIC 2a1f0 0 Utils::getBool(std::__ndk1::basic_string<char, std::__ndk1::char_traits<char>, std::__ndk1::allocator<char> > const&)
PUBLIC 2a240 0 Utils::modEnabled()
PUBLIC 2a310 0 Utils::writeToFile(std::__ndk1::basic_string_view<char, std::__ndk1::char_traits<char> >, int, std::__ndk1::basic_string_view<char, std::__ndk1::char_traits<char> >)
PUBLIC m 2a760 0 std::__ndk1::basic_ofstream<char, std::__ndk1::char_traits<char> >::~basic_ofstream()
PUBLIC 2a7b0 0 Utils::addIgnoredUser(int, std::__ndk1::basic_string<char, std::__ndk1::char_traits<char>, std::__ndk1::allocator<char> >)
PUBLIC 2acb4 0 Utils::addFavoriteUser(int, std::__ndk1::basic_string<char, std::__ndk1::char_traits<char>, std::__ndk1::allocator<char> >)
PUBLIC 2b31c 0 Utils::updateLists(Manager*, Simpleton*)
PUBLIC m 2d068 0 std::__ndk1::basic_ifstream<char, std::__ndk1::char_traits<char> >::~basic_ifstream()
PUBLIC 2d0b8 0 std::__ndk1::__fs::filesystem::path::operator/=[abi:ne180000](std::__ndk1::__fs::filesystem::path const&)
PUBLIC 2d1a0 0 std::__ndk1::basic_string<char, std::__ndk1::char_traits<char>, std::__ndk1::allocator<char> >::__assign_no_alias<true>(char const*, unsigned long)
PUBLIC 2d24c 0 std::__ndk1::basic_string<char, std::__ndk1::char_traits<char>, std::__ndk1::allocator<char> >::__assign_no_alias<false>(char const*, unsigned long)
PUBLIC 2d35c 0 std::__ndk1::__put_character_sequence[abi:ne180000]<char, std::__ndk1::char_traits<char> >(std::__ndk1::basic_ostream<char, std::__ndk1::char_traits<char> >, std::__ndk1::basic_ostream const*, unsigned long)
PUBLIC 2d500 0 std::__ndk1::__pad_and_output[abi:ne180000]<char, std::__ndk1::char_traits<char> >(std::__ndk1::char_traits<char>, std::__ndk1::ostreambuf_iterator const*, std::__ndk1::ostreambuf_iterator const, std::__ndk1::ostreambuf_iterator const, std::__ndk1::ios_base&, std::__ndk1::ostreambuf_iterator)
PUBLIC 2d6dc 0 std::__ndk1::__variant_detail::__visitation::__base::__dispatcher<(unsigned long)0>::__dispatch[abi:ne180000]<std::__ndk1::__variant_detail::__dtor<std::__ndk1::__variant_detail::__traits<std::__ndk1::monostate, std::__ndk1::basic_string<char, std::__ndk1::char_traits<char>, std::__ndk1::allocator<char> > >, (std::__ndk1::__variant_detail::_Trait)1>::__destroy[abi:ne180000]()::{lambda(auto:1&)#1}, std::__ndk1::__variant_detail::__base<(std::__ndk1::__variant_detail::__traits<std::__ndk1::monostate, std::__ndk1::basic_string<char, std::__ndk1::char_traits<char>, std::__ndk1::allocator<char> > >)1, std::__ndk1::__variant_detail::__traits, std::__ndk1::allocator<char> >&>(std::__ndk1::__variant_detail::__dtor<std::__ndk1::__variant_detail::__traits<std::__ndk1::monostate, std::__ndk1::basic_string<char, std::__ndk1::char_traits<char>, std::__ndk1::allocator<char> > >, (std::__ndk1::__variant_detail::_Trait)1>, std::__ndk1::__variant_detail::__base<(std::__ndk1::__variant_detail::__traits<std::__ndk1::monostate, std::__ndk1::basic_string<char, std::__ndk1::char_traits<char>, std::__ndk1::allocator<char> > >)1, std::__ndk1::__variant_detail::__traits, std::__ndk1::allocator<char> >&)
PUBLIC 2d6e0 0 std::__ndk1::__variant_detail::__visitation::__base::__dispatcher<(unsigned long)1>::__dispatch[abi:ne180000]<std::__ndk1::__variant_detail::__dtor<std::__ndk1::__variant_detail::__traits<std::__ndk1::monostate, std::__ndk1::basic_string<char, std::__ndk1::char_traits<char>, std::__ndk1::allocator<char> > >, (std::__ndk1::__variant_detail::_Trait)1>::__destroy[abi:ne180000]()::{lambda(auto:1&)#1}, std::__ndk1::__variant_detail::__base<(std::__ndk1::__variant_detail::__traits<std::__ndk1::monostate, std::__ndk1::basic_string<char, std::__ndk1::char_traits<char>, std::__ndk1::allocator<char> > >)1, std::__ndk1::__variant_detail::__traits, std::__ndk1::allocator<char> >&>(std::__ndk1::__variant_detail::__dtor<std::__ndk1::__variant_detail::__traits<std::__ndk1::monostate, std::__ndk1::basic_string<char, std::__ndk1::char_traits<char>, std::__ndk1::allocator<char> > >, (std::__ndk1::__variant_detail::_Trait)1>, std::__ndk1::__variant_detail::__base<(std::__ndk1::__variant_detail::__traits<std::__ndk1::monostate, std::__ndk1::basic_string<char, std::__ndk1::char_traits<char>, std::__ndk1::allocator<char> > >)1, std::__ndk1::__variant_detail::__traits, std::__ndk1::allocator<char> >&)
PUBLIC 2d6f4 0 std::__ndk1::vector<std::__ndk1::basic_string<char, std::__ndk1::char_traits<char>, std::__ndk1::allocator<char> >, std::__ndk1::allocator<std::__ndk1::basic_string<char, std::__ndk1::char_traits<char>, std::__ndk1::allocator<char> > > >::__throw_length_error[abi:ne180000]() const
PUBLIC 2d708 0 std::__ndk1::__variant_detail::__visitation::__base::__dispatcher<(unsigned long)0>::__dispatch[abi:ne180000]<std::__ndk1::__variant_detail::__dtor<std::__ndk1::__variant_detail::__traits<int, std::__ndk1::basic_string<char, std::__ndk1::char_traits<char>, std::__ndk1::allocator<char> > >, (std::__ndk1::__variant_detail::_Trait)1>::__destroy[abi:ne180000]()::{lambda(auto:1&)#1}, std::__ndk1::__variant_detail::__base<(std::__ndk1::__variant_detail::__traits<int, std::__ndk1::basic_string<char, std::__ndk1::char_traits<char>, std::__ndk1::allocator<char> > >)1, int, std::__ndk1::allocator<char> >&>(std::__ndk1::__variant_detail::__dtor<std::__ndk1::__variant_detail::__traits<int, std::__ndk1::basic_string<char, std::__ndk1::char_traits<char>, std::__ndk1::allocator<char> > >, (std::__ndk1::__variant_detail::_Trait)1>, std::__ndk1::__variant_detail::__base<(std::__ndk1::__variant_detail::__traits<int, std::__ndk1::basic_string<char, std::__ndk1::char_traits<char>, std::__ndk1::allocator<char> > >)1, int, std::__ndk1::allocator<char> >&)
PUBLIC 2d70c 0 std::__ndk1::__variant_detail::__visitation::__base::__dispatcher<(unsigned long)1>::__dispatch[abi:ne180000]<std::__ndk1::__variant_detail::__dtor<std::__ndk1::__variant_detail::__traits<int, std::__ndk1::basic_string<char, std::__ndk1::char_traits<char>, std::__ndk1::allocator<char> > >, (std::__ndk1::__variant_detail::_Trait)1>::__destroy[abi:ne180000]()::{lambda(auto:1&)#1}, std::__ndk1::__variant_detail::__base<(std::__ndk1::__variant_detail::__traits<int, std::__ndk1::basic_string<char, std::__ndk1::char_traits<char>, std::__ndk1::allocator<char> > >)1, int, std::__ndk1::allocator<char> >&>(std::__ndk1::__variant_detail::__dtor<std::__ndk1::__variant_detail::__traits<int, std::__ndk1::basic_string<char, std::__ndk1::char_traits<char>, std::__ndk1::allocator<char> > >, (std::__ndk1::__variant_detail::_Trait)1>, std::__ndk1::__variant_detail::__base<(std::__ndk1::__variant_detail::__traits<int, std::__ndk1::basic_string<char, std::__ndk1::char_traits<char>, std::__ndk1::allocator<char> > >)1, int, std::__ndk1::allocator<char> >&)
PUBLIC 2d720 0 geode::Mod::getSettingValue<bool>(std::__ndk1::basic_string_view<char, std::__ndk1::char_traits<char> >) const
PUBLIC 2d854 0 geode::cast::traverseTypeinfoFor(void*, geode::cast::ClassTypeinfoType const*, char const*)
PUBLIC 2d958 0 geode::Mod::getSettingValue<std::__ndk1::basic_string<char, std::__ndk1::char_traits<char>, std::__ndk1::allocator<char> > >(std::__ndk1::basic_string_view<char, std::__ndk1::char_traits<char> >) const
PUBLIC 2dae8 0 std::__ndk1::shared_ptr<geode::StringSettingV3>::~shared_ptr[abi:ne180000]()
PUBLIC 2db38 0 geode::Mod::getSettingValue<cocos2d::_ccColor4B>(std::__ndk1::basic_string_view<char, std::__ndk1::char_traits<char> >) const
PUBLIC 2dc50 0 _ZNSt6__ndk112basic_stringIcNS_11char_traitsIcEENS_9allocatorIcEEE6appendB8ne180000IPKcTnNS_9enable_ifIXsr31__has_forward_iterator_categoryIT_EE5valueEiE4typeELi0EEERS5_SA_SA_
PUBLIC 2df54 0 std::__ndk1::basic_ifstream<char, std::__ndk1::char_traits<char> >::basic_ifstream(char const*, unsigned int)
PUBLIC 2e064 0 std::__ndk1::getline[abi:ne180000]<char, std::__ndk1::char_traits<char>, std::__ndk1::allocator<char> >(std::__ndk1::basic_istream<char, std::__ndk1::char_traits<char> >, std::__ndk1::basic_string<std::__ndk1::basic_istream, char, std::__ndk1::allocator<char> >&, std::__ndk1::basic_istream)
PUBLIC 2e218 0 MyButtonSettingV3::createNode(float)
PUBLIC 2ea34 0 std::__ndk1::shared_ptr<MyButtonSettingV3>::~shared_ptr[abi:ne180000]()
PUBLIC 2ea84 0 std::__ndk1::shared_ptr<geode::SettingV3>::~shared_ptr[abi:ne180000]()
PUBLIC 2ead4 0 MyButtonSettingV3::~MyButtonSettingV3()
PUBLIC 2eaf8 0 MyButtonSettingV3::load(matjson::Value const&)
PUBLIC 2eb00 0 MyButtonSettingV3::save(matjson::Value&) const
PUBLIC 2eb08 0 MyButtonSettingV3::isDefaultValue() const
PUBLIC 2eb10 0 MyButtonSettingV3::reset()
PUBLIC 2eb14 0 cocos2d::CCCopying::copyWithZone(cocos2d::CCZone*)
PUBLIC 2eb1c 0 MyButtonSettingNodeV3::~MyButtonSettingNodeV3()
PUBLIC 2ebd8 0 MyButtonSettingNodeV3::~MyButtonSettingNodeV3()
PUBLIC 2eca4 0 MyButtonSettingNodeV3::onCommit()
PUBLIC 2eca8 0 MyButtonSettingNodeV3::onResetToDefault()
PUBLIC 2ecac 0 MyButtonSettingNodeV3::hasUncommittedChanges() const
PUBLIC 2ecb4 0 MyButtonSettingNodeV3::hasNonDefaultValue() const
PUBLIC 2ecbc 0 MyButtonSettingNodeV3::onSettingsButton(cocos2d::CCObject*)
PUBLIC 2f160 0 geode::cocos::CCArrayExt<cocos2d::CCNode*>::~CCArrayExt()
PUBLIC 2f180 0 std::__ndk1::__throw_bad_optional_access[abi:ne180000]()
PUBLIC 2f1b4 0 std::__ndk1::__throw_bad_weak_ptr[abi:ne180000]()
PUBLIC 2f1e8 0 TranslateMenu::create(std::__ndk1::basic_string<char, std::__ndk1::char_traits<char>, std::__ndk1::allocator<char> > const&)
PUBLIC 2f2f0 0 TranslateMenu::init(std::__ndk1::basic_string<char, std::__ndk1::char_traits<char>, std::__ndk1::allocator<char> > const&)
PUBLIC 30010 0 TranslateMenu::encodeToURL(std::__ndk1::basic_string<char, std::__ndk1::char_traits<char>, std::__ndk1::allocator<char> > const&)
PUBLIC 303cc 0 TranslateMenu::onLibreTranslate(cocos2d::CCObject*)
PUBLIC 3070c 0 TranslateMenu::onDeepLTranslate(cocos2d::CCObject*)
PUBLIC 30a4c 0 TranslateMenu::onBoogleTranslate(cocos2d::CCObject*)
PUBLIC 30dac 0 TranslateMenu::onCloseTranslateMenu(cocos2d::CCObject*)
PUBLIC 30db8 0 TranslateMenu::onOpenModSettings(cocos2d::CCObject*)
PUBLIC 30df4 0 TranslateMenu::findLanguageCodes(std::__ndk1::unordered_map<std::__ndk1::basic_string<char, std::__ndk1::char_traits<char>, std::__ndk1::allocator<char> >, std::__ndk1::basic_string<char, std::__ndk1::char_traits<char>, std::__ndk1::allocator<char> >, std::__ndk1::hash<std::__ndk1::basic_string<char, std::__ndk1::char_traits<char>, std::__ndk1::allocator<char> > >, std::__ndk1::equal_to<std::__ndk1::basic_string<char, std::__ndk1::char_traits<char>, std::__ndk1::allocator<char> > >, std::__ndk1::allocator<std::__ndk1::pair<std::__ndk1::basic_string<char, std::__ndk1::char_traits<char>, std::__ndk1::allocator<char> > const, std::__ndk1::basic_string<char, std::__ndk1::char_traits<char>, std::__ndk1::allocator<char> > > > > const&, bool)
PUBLIC 311d4 0 std::__ndk1::pair<std::__ndk1::basic_string<char, std::__ndk1::char_traits<char>, std::__ndk1::allocator<char> >, std::__ndk1::basic_string<char, std::__ndk1::char_traits<char>, std::__ndk1::allocator<char> > >::~pair()
PUBLIC 31218 0 std::__ndk1::basic_stringstream<char, std::__ndk1::char_traits<char>, std::__ndk1::allocator<char> >::basic_stringstream[abi:ne180000]()
PUBLIC m 31344 0 std::__ndk1::basic_stringstream<char, std::__ndk1::char_traits<char>, std::__ndk1::allocator<char> >::~basic_stringstream()
PUBLIC 313c4 0 TranslateMenu::~TranslateMenu()
PUBLIC 313e8 0 cocos2d::CCLayerRGBA::setOpacityModifyRGB(bool)
PUBLIC 313ec 0 cocos2d::CCLayerRGBA::isOpacityModifyRGB()
PUBLIC 313f4 0 {virtual override thunk({offset(-320)}, TranslateMenu::~TranslateMenu())}
PUBLIC 313fc 0 {virtual override thunk({offset(-320)}, TranslateMenu::~TranslateMenu())}
PUBLIC 31424 0 cocos2d::CCKeyboardDelegate::keyUp(cocos2d::enumKeyCodes)
PUBLIC 31428 0 cocos2d::CCMouseDelegate::rightKeyDown()
PUBLIC 3142c 0 cocos2d::CCMouseDelegate::rightKeyUp()
PUBLIC 31430 0 cocos2d::CCMouseDelegate::scrollWheel(float, float)
PUBLIC 31434 0 {virtual override thunk({offset(-408)}, cocos2d::CCLayerRGBA::setOpacityModifyRGB(bool))}
PUBLIC 31438 0 {virtual override thunk({offset(-408)}, cocos2d::CCLayerRGBA::isOpacityModifyRGB())}
PUBLIC 31440 0 std::__ndk1::__hash_table<std::__ndk1::__hash_value_type<std::__ndk1::basic_string<char, std::__ndk1::char_traits<char>, std::__ndk1::allocator<char> >, std::__ndk1::basic_string<char, std::__ndk1::char_traits<char>, std::__ndk1::allocator<char> > >, std::__ndk1::__unordered_map_hasher<std::__ndk1::basic_string<char, std::__ndk1::char_traits<char>, std::__ndk1::allocator<char> >, std::__ndk1::__hash_value_type<std::__ndk1::basic_string<char, std::__ndk1::char_traits<char>, std::__ndk1::allocator<char> >, std::__ndk1::basic_string<char, std::__ndk1::char_traits<char>, std::__ndk1::allocator<char> > >, std::__ndk1::hash<std::__ndk1::basic_string<char, std::__ndk1::char_traits<char>, std::__ndk1::allocator<char> > >, std::__ndk1::equal_to<std::__ndk1::basic_string<char, std::__ndk1::char_traits<char>, std::__ndk1::allocator<char> > >, true>, std::__ndk1::__unordered_map_equal<std::__ndk1::basic_string<char, std::__ndk1::char_traits<char>, std::__ndk1::allocator<char> >, std::__ndk1::__hash_value_type<std::__ndk1::basic_string<char, std::__ndk1::char_traits<char>, std::__ndk1::allocator<char> >, std::__ndk1::basic_string<char, std::__ndk1::char_traits<char>, std::__ndk1::allocator<char> > >, std::__ndk1::equal_to<std::__ndk1::basic_string<char, std::__ndk1::char_traits<char>, std::__ndk1::allocator<char> > >, std::__ndk1::hash<std::__ndk1::basic_string<char, std::__ndk1::char_traits<char>, std::__ndk1::allocator<char> > >, true>, std::__ndk1::allocator<std::__ndk1::__hash_value_type<std::__ndk1::basic_string<char, std::__ndk1::char_traits<char>, std::__ndk1::allocator<char> >, std::__ndk1::basic_string<char, std::__ndk1::char_traits<char>, std::__ndk1::allocator<char> > > > >::find<std::__ndk1::basic_string<char, std::__ndk1::char_traits<char>, std::__ndk1::allocator<char> > >(std::__ndk1::basic_string<char, std::__ndk1::char_traits<char>, std::__ndk1::allocator<char> > const&) const
PUBLIC 31694 0 __cxx_global_var_init
PUBLIC 31b14 0 geode::modifier::ModifyBase<geode::modifier::ModifyDerive<MyCustomListView, CustomListView> >::~ModifyBase()
PUBLIC 31b30 0 geode::modifier::ModifyDerive<MyCustomListView, CustomListView>::apply()
PUBLIC 31f30 0 std::__ndk1::shared_ptr<geode::Hook>::~shared_ptr[abi:ne180000]()
PUBLIC 31f80 0 geode::impl::ResultData<geode::Hook*, std::__ndk1::basic_string<char, std::__ndk1::char_traits<char>, std::__ndk1::allocator<char> > >::~ResultData()
PUBLIC 31ff4 0 geode::modifier::ModifyBase<geode::modifier::ModifyDerive<MyCustomListView, CustomListView> >::apply()
PUBLIC 31ff8 0 _ZN5geode15UnwrapExceptionC2IRPNS_4HookEQsr4implE18IsStringStreamableIT_EEENS_4impl5OkTagEOS5_
PUBLIC 3214c 0 std::__ndk1::__throw_bad_variant_access[abi:ne180000]()
PUBLIC 32180 0 geode::UnwrapException::~UnwrapException()
PUBLIC 321a4 0 std::__ndk1::basic_stringbuf<char, std::__ndk1::char_traits<char>, std::__ndk1::allocator<char> >::str[abi:ne180000]() &&
PUBLIC 3231c 0 std::__ndk1::basic_stringbuf<char, std::__ndk1::char_traits<char>, std::__ndk1::allocator<char> >::__init_buf_ptrs[abi:ne180000]()
PUBLIC 32464 0 std::__ndk1::vector<std::__ndk1::basic_string<char, std::__ndk1::char_traits<char>, std::__ndk1::allocator<char> >, std::__ndk1::allocator<std::__ndk1::basic_string<char, std::__ndk1::char_traits<char>, std::__ndk1::allocator<char> > > >::__push_back_slow_path<std::__ndk1::basic_string<char, std::__ndk1::char_traits<char>, std::__ndk1::allocator<char> > const&>(std::__ndk1::basic_string<char, std::__ndk1::char_traits<char>, std::__ndk1::allocator<char> > const&)
PUBLIC 3268c 0 std::__ndk1::__split_buffer<std::__ndk1::basic_string<char, std::__ndk1::char_traits<char>, std::__ndk1::allocator<char> >, std::__ndk1::allocator<std::__ndk1::basic_string<char, std::__ndk1::char_traits<char>, std::__ndk1::allocator<char> > >&>::~__split_buffer()
PUBLIC 326f4 0 std::__ndk1::__variant_detail::__visitation::__base::__dispatcher<(unsigned long)0>::__dispatch[abi:ne180000]<std::__ndk1::__variant_detail::__dtor<std::__ndk1::__variant_detail::__traits<geode::Hook*, std::__ndk1::basic_string<char, std::__ndk1::char_traits<char>, std::__ndk1::allocator<char> > >, (std::__ndk1::__variant_detail::_Trait)1>::__destroy[abi:ne180000]()::{lambda(auto:1&)#1}, std::__ndk1::__variant_detail::__base<(std::__ndk1::__variant_detail::__traits<geode::Hook*, std::__ndk1::basic_string<char, std::__ndk1::char_traits<char>, std::__ndk1::allocator<char> > >)1, geode::Hook, std::__ndk1::allocator<char> >&>(std::__ndk1::__variant_detail::__dtor<std::__ndk1::__variant_detail::__traits<geode::Hook*, std::__ndk1::basic_string<char, std::__ndk1::char_traits<char>, std::__ndk1::allocator<char> > >, (std::__ndk1::__variant_detail::_Trait)1>, std::__ndk1::__variant_detail::__base<(std::__ndk1::__variant_detail::__traits<geode::Hook*, std::__ndk1::basic_string<char, std::__ndk1::char_traits<char>, std::__ndk1::allocator<char> > >)1, geode::Hook, std::__ndk1::allocator<char> >&)
PUBLIC 326f8 0 std::__ndk1::__variant_detail::__visitation::__base::__dispatcher<(unsigned long)1>::__dispatch[abi:ne180000]<std::__ndk1::__variant_detail::__dtor<std::__ndk1::__variant_detail::__traits<geode::Hook*, std::__ndk1::basic_string<char, std::__ndk1::char_traits<char>, std::__ndk1::allocator<char> > >, (std::__ndk1::__variant_detail::_Trait)1>::__destroy[abi:ne180000]()::{lambda(auto:1&)#1}, std::__ndk1::__variant_detail::__base<(std::__ndk1::__variant_detail::__traits<geode::Hook*, std::__ndk1::basic_string<char, std::__ndk1::char_traits<char>, std::__ndk1::allocator<char> > >)1, geode::Hook, std::__ndk1::allocator<char> >&>(std::__ndk1::__variant_detail::__dtor<std::__ndk1::__variant_detail::__traits<geode::Hook*, std::__ndk1::basic_string<char, std::__ndk1::char_traits<char>, std::__ndk1::allocator<char> > >, (std::__ndk1::__variant_detail::_Trait)1>, std::__ndk1::__variant_detail::__base<(std::__ndk1::__variant_detail::__traits<geode::Hook*, std::__ndk1::basic_string<char, std::__ndk1::char_traits<char>, std::__ndk1::allocator<char> > >)1, geode::Hook, std::__ndk1::allocator<char> >&)
PUBLIC 3270c 0 std::__ndk1::__tree<std::__ndk1::__value_type<std::__ndk1::basic_string<char, std::__ndk1::char_traits<char>, std::__ndk1::allocator<char> >, std::__ndk1::shared_ptr<geode::Hook> >, std::__ndk1::__map_value_compare<std::__ndk1::basic_string<char, std::__ndk1::char_traits<char>, std::__ndk1::allocator<char> >, std::__ndk1::__value_type<std::__ndk1::basic_string<char, std::__ndk1::char_traits<char>, std::__ndk1::allocator<char> >, std::__ndk1::shared_ptr<geode::Hook> >, std::__ndk1::less<std::__ndk1::basic_string<char, std::__ndk1::char_traits<char>, std::__ndk1::allocator<char> > >, true>, std::__ndk1::allocator<std::__ndk1::__value_type<std::__ndk1::basic_string<char, std::__ndk1::char_traits<char>, std::__ndk1::allocator<char> >, std::__ndk1::shared_ptr<geode::Hook> > > >::find<std::__ndk1::basic_string<char, std::__ndk1::char_traits<char>, std::__ndk1::allocator<char> > >(std::__ndk1::basic_string<char, std::__ndk1::char_traits<char>, std::__ndk1::allocator<char> > const&)
PUBLIC 3282c 0 std::__ndk1::__tree<std::__ndk1::__value_type<std::__ndk1::basic_string<char, std::__ndk1::char_traits<char>, std::__ndk1::allocator<char> >, std::__ndk1::shared_ptr<geode::Hook> >, std::__ndk1::__map_value_compare<std::__ndk1::basic_string<char, std::__ndk1::char_traits<char>, std::__ndk1::allocator<char> >, std::__ndk1::__value_type<std::__ndk1::basic_string<char, std::__ndk1::char_traits<char>, std::__ndk1::allocator<char> >, std::__ndk1::shared_ptr<geode::Hook> >, std::__ndk1::less<std::__ndk1::basic_string<char, std::__ndk1::char_traits<char>, std::__ndk1::allocator<char> > >, true>, std::__ndk1::allocator<std::__ndk1::__value_type<std::__ndk1::basic_string<char, std::__ndk1::char_traits<char>, std::__ndk1::allocator<char> >, std::__ndk1::shared_ptr<geode::Hook> > > >::erase(std::__ndk1::__tree_const_iterator<std::__ndk1::__value_type<std::__ndk1::basic_string<char, std::__ndk1::char_traits<char>, std::__ndk1::allocator<char> >, std::__ndk1::shared_ptr<geode::Hook> >, std::__ndk1::__tree_node<std::__ndk1::__value_type<std::__ndk1::basic_string<char, std::__ndk1::char_traits<char>, std::__ndk1::allocator<char> >, std::__ndk1::shared_ptr<geode::Hook> >, void*>*, long>)
PUBLIC 32900 0 std::__ndk1::__tree_remove[abi:ne180000]<std::__ndk1::__tree_node_base<void*>*>(std::__ndk1::__tree_node_base<void*>*, std::__ndk1::__tree_node_base<void*>*)
PUBLIC 32cc8 0 std::__ndk1::__tree<std::__ndk1::__value_type<std::__ndk1::basic_string<char, std::__ndk1::char_traits<char>, std::__ndk1::allocator<char> >, std::__ndk1::shared_ptr<geode::Hook> >, std::__ndk1::__map_value_compare<std::__ndk1::basic_string<char, std::__ndk1::char_traits<char>, std::__ndk1::allocator<char> >, std::__ndk1::__value_type<std::__ndk1::basic_string<char, std::__ndk1::char_traits<char>, std::__ndk1::allocator<char> >, std::__ndk1::shared_ptr<geode::Hook> >, std::__ndk1::less<std::__ndk1::basic_string<char, std::__ndk1::char_traits<char>, std::__ndk1::allocator<char> > >, true>, std::__ndk1::allocator<std::__ndk1::__value_type<std::__ndk1::basic_string<char, std::__ndk1::char_traits<char>, std::__ndk1::allocator<char> >, std::__ndk1::shared_ptr<geode::Hook> > > >::destroy(std::__ndk1::__tree_node<std::__ndk1::__value_type<std::__ndk1::basic_string<char, std::__ndk1::char_traits<char>, std::__ndk1::allocator<char> >, std::__ndk1::shared_ptr<geode::Hook> >, void*>*)
PUBLIC 32d54 0 geode::modifier::AsStaticFunction_create<MyCustomListView, CustomListView* (*)(cocos2d::CCArray*, TableViewCellDelegate*, float, float, int, BoomListType, float)>::Impl<CustomListView* (*)(cocos2d::CCArray*, TableViewCellDelegate*, float, float, int, BoomListType, float)>::function(cocos2d::CCArray*, TableViewCellDelegate*, float, float, int, BoomListType, float)
PUBLIC 32e9c 0 std::__ndk1::shared_ptr<tulip::hook::CallingConvention>::~shared_ptr[abi:ne180000]()
PUBLIC 32eec 0 tulip::hook::HandlerMetadata::~HandlerMetadata()
PUBLIC 32f50 0 std::__ndk1::vector<tulip::hook::AbstractType, std::__ndk1::allocator<tulip::hook::AbstractType> >::__throw_length_error[abi:ne180000]() const
PUBLIC 32f64 0 std::__ndk1::__tree<std::__ndk1::__value_type<std::__ndk1::basic_string<char, std::__ndk1::char_traits<char>, std::__ndk1::allocator<char> >, std::__ndk1::shared_ptr<geode::Hook> >, std::__ndk1::__map_value_compare<std::__ndk1::basic_string<char, std::__ndk1::char_traits<char>, std::__ndk1::allocator<char> >, std::__ndk1::__value_type<std::__ndk1::basic_string<char, std::__ndk1::char_traits<char>, std::__ndk1::allocator<char> >, std::__ndk1::shared_ptr<geode::Hook> >, std::__ndk1::less<std::__ndk1::basic_string<char, std::__ndk1::char_traits<char>, std::__ndk1::allocator<char> > >, true>, std::__ndk1::allocator<std::__ndk1::__value_type<std::__ndk1::basic_string<char, std::__ndk1::char_traits<char>, std::__ndk1::allocator<char> >, std::__ndk1::shared_ptr<geode::Hook> > > >::__emplace_unique_key_args<std::__ndk1::basic_string<char, std::__ndk1::char_traits<char>, std::__ndk1::allocator<char> >, std::__ndk1::piecewise_construct_t const&, std::__ndk1::tuple<std::__ndk1::basic_string<char, std::__ndk1::char_traits<char>, std::__ndk1::allocator<char> >&&>, std::__ndk1::tuple<> >(std::__ndk1::basic_string<char, std::__ndk1::char_traits<char>, std::__ndk1::allocator<char> > const&, std::__ndk1::piecewise_construct_t const&, std::__ndk1::tuple<std::__ndk1::basic_string<char, std::__ndk1::char_traits<char>, std::__ndk1::allocator<char> >&&>, std::__ndk1::tuple<>)
PUBLIC 330dc 0 std::__ndk1::__tree_balance_after_insert[abi:ne180000]<std::__ndk1::__tree_node_base<void*>*>(std::__ndk1::__tree_node_base<void*>*, std::__ndk1::__tree_node_base<void*>*)
PUBLIC 3328c 0 __cxx_global_var_init
PUBLIC 3370c 0 geode::modifier::ModifyBase<geode::modifier::ModifyDerive<MyShareCommentLayer, ShareCommentLayer> >::~ModifyBase()
PUBLIC 33728 0 geode::modifier::ModifyDerive<MyShareCommentLayer, ShareCommentLayer>::apply()
PUBLIC 33b54 0 geode::modifier::ModifyBase<geode::modifier::ModifyDerive<MyShareCommentLayer, ShareCommentLayer> >::apply()
PUBLIC 33b58 0 geode::modifier::AsStaticFunction_init<MyShareCommentLayer, bool (MyShareCommentLayer::*)(gd::string, int, CommentType, int, gd::string)>::Impl<bool (MyShareCommentLayer::*)(gd::string, int, CommentType, int, gd::string)>::function(MyShareCommentLayer*, gd::string, int, CommentType, int, gd::string)
PUBLIC 33ed4 0 MyShareCommentLayer::onVCTPaste(cocos2d::CCObject*)
PUBLIC 34154 0 __cxx_global_var_init
PUBLIC 348b8 0 geode::modifier::ModifyBase<geode::modifier::ModifyDerive<MyCommentCell, CommentCell> >::~ModifyBase()
PUBLIC 348d4 0 geode::modifier::ModifyDerive<MyCommentCell, CommentCell>::apply()
PUBLIC 34c5c 0 geode::modifier::ModifyBase<geode::modifier::ModifyDerive<MyCommentCell, CommentCell> >::apply()
PUBLIC 34c60 0 std::__ndk1::basic_string<char, std::__ndk1::char_traits<char>, std::__ndk1::allocator<char> >::basic_string[abi:ne180000]<0>()
PUBLIC 34cfc 0 std::__ndk1::unique_ptr<std::__ndk1::__tree_node<std::__ndk1::__value_type<std::__ndk1::basic_string<char, std::__ndk1::char_traits<char>, std::__ndk1::allocator<char> >, std::__ndk1::shared_ptr<geode::Hook> >, void*>, std::__ndk1::__tree_node_destructor<std::__ndk1::allocator<std::__ndk1::__tree_node<std::__ndk1::__value_type<std::__ndk1::basic_string<char, std::__ndk1::char_traits<char>, std::__ndk1::allocator<char> >, std::__ndk1::shared_ptr<geode::Hook> >, void*> > > >::~unique_ptr[abi:ne180000]()
PUBLIC 34d78 0 _ZN5geode15UnwrapExceptionC2IRNSt6__ndk112basic_stringIcNS2_11char_traitsIcEENS2_9allocatorIcEEEEQsr4implE18IsStringStreamableIT_EEENS_4impl6ErrTagEOSA_
PUBLIC 34ee0 0 geode::modifier::AsStaticFunction_loadFromComment<MyCommentCell, void (MyCommentCell::*)(GJComment*)>::Impl<void (MyCommentCell::*)(GJComment*)>::function(MyCommentCell*, GJComment*)
PUBLIC 34ee4 0 MyCommentCell::loadFromComment(GJComment*)
PUBLIC 36de4 0 geode::modifier::FieldIntermediate<MyCommentCell, CommentCell>::self()
PUBLIC 3742c 0 MyCommentCell::onVCTCopy(cocos2d::CCObject*)
PUBLIC 37570 0 MyCommentCell::onVCTHide(cocos2d::CCObject*)
PUBLIC 37638 0 MyCommentCell::onVCTIgnore(cocos2d::CCObject*)
PUBLIC 37b04 0 MyCommentCell::onVCTFavorite(cocos2d::CCObject*)
PUBLIC 37f98 0 MyCommentCell::onVCTTrans(cocos2d::CCObject*)
PUBLIC 382f4 0 MyCommentCell::recolorCellBackground()
PUBLIC 387c4 0 MyCommentCell::hideButtons(cocos2d::CCNode*, bool)
PUBLIC 38a5c 0 MyCommentCell::passiveHidingComment(std::__ndk1::basic_string_view<char, std::__ndk1::char_traits<char> >)
PUBLIC 38c60 0 MyCommentCell::obfuscateUser(bool)
PUBLIC 393b4 0 gd::string::operator==(std::__ndk1::basic_string<char, std::__ndk1::char_traits<char>, std::__ndk1::allocator<char> > const&) const
PUBLIC 393d0 0 geode::modifier::FieldIntermediate<MyCommentCell, CommentCell>::fieldDestructor(void*)
PUBLIC 39414 0 std::__ndk1::vector<void*, std::__ndk1::allocator<void*> >::__throw_length_error[abi:ne180000]() const
PUBLIC 39428 0 std::__ndk1::vector<std::__ndk1::function<void (void*)>, std::__ndk1::allocator<std::__ndk1::function<void (void*)> > >::__throw_length_error[abi:ne180000]() const
PUBLIC 3943c 0 std::__ndk1::vector<void*, std::__ndk1::allocator<void*> >::__throw_out_of_range[abi:ne180000]() const
PUBLIC 39448 0 std::__ndk1::__throw_out_of_range[abi:ne180000](char const*)
PUBLIC 39498 0 std::out_of_range::out_of_range[abi:ne180000](char const*)
PUBLIC 394c8 0 std::__ndk1::vector<std::__ndk1::function<void (void*)>, std::__ndk1::allocator<std::__ndk1::function<void (void*)> > >::__throw_out_of_range[abi:ne180000]() const
PUBLIC 394d4 0 std::__ndk1::__function::__base<void (void*)>::~__base()
PUBLIC 394d8 0 std::__ndk1::__function::__func<void (*)(void*), std::__ndk1::allocator<void (*)(void*)>, void (void*)>::~__func()
PUBLIC 394dc 0 std::__ndk1::__function::__func<void (*)(void*), std::__ndk1::allocator<void (*)(void*)>, void (void*)>::__clone() const
PUBLIC 39514 0 std::__ndk1::__function::__func<void (*)(void*), std::__ndk1::allocator<void (*)(void*)>, void (void*)>::__clone(std::__ndk1::__function::__base<void (void*)>*) const
PUBLIC 3952c 0 std::__ndk1::__function::__func<void (*)(void*), std::__ndk1::allocator<void (*)(void*)>, void (void*)>::destroy()
PUBLIC 39530 0 std::__ndk1::__function::__func<void (*)(void*), std::__ndk1::allocator<void (*)(void*)>, void (void*)>::destroy_deallocate()
PUBLIC 39534 0 std::__ndk1::__function::__func<void (*)(void*), std::__ndk1::allocator<void (*)(void*)>, void (void*)>::operator()(void*&&)
PUBLIC 39544 0 std::__ndk1::__function::__func<void (*)(void*), std::__ndk1::allocator<void (*)(void*)>, void (void*)>::target(std::type_info const&) const
PUBLIC 39560 0 std::__ndk1::__function::__func<void (*)(void*), std::__ndk1::allocator<void (*)(void*)>, void (void*)>::target_type() const
PUBLIC 3956c 0 std::__ndk1::basic_string<char, std::__ndk1::char_traits<char>, std::__ndk1::allocator<char> >::__assign_external(char const*, unsigned long)
PUBLIC 39694 0 MyCommentCell::hideCommentVCT(std::__ndk1::basic_string_view<char, std::__ndk1::char_traits<char> >)
PUBLIC 39e28 0 cocos2d::CCNode::getChildByType<cocos2d::CCSprite>(int)
PUBLIC 39ef0 0 __cxx_global_var_init
PUBLIC 3a370 0 geode::modifier::ModifyBase<geode::modifier::ModifyDerive<MyInfoLayer, InfoLayer> >::~ModifyBase()
PUBLIC 3a38c 0 geode::modifier::ModifyDerive<MyInfoLayer, InfoLayer>::apply()
PUBLIC 3a714 0 geode::modifier::ModifyBase<geode::modifier::ModifyDerive<MyInfoLayer, InfoLayer> >::apply()
PUBLIC 3a718 0 geode::modifier::AsStaticFunction_setupCommentsBrowser<MyInfoLayer, void (MyInfoLayer::*)(cocos2d::CCArray*)>::Impl<void (MyInfoLayer::*)(cocos2d::CCArray*)>::function(MyInfoLayer*, cocos2d::CCArray*)
PUBLIC 3a7b4 0 geodeExecFunction8<(anonymous namespace)::ExecFuncUnique8>(geode::ModStateEvent*)
PUBLIC 3adb0 0 __cxx_global_var_init.1
PUBLIC 3b230 0 geode::modifier::ModifyBase<geode::modifier::ModifyDerive<MyMenuLayer, MenuLayer> >::~ModifyBase()
PUBLIC 3b24c 0 MyButtonSettingV3::parse(std::__ndk1::basic_string<char, std::__ndk1::char_traits<char>, std::__ndk1::allocator<char> > const&, std::__ndk1::basic_string<char, std::__ndk1::char_traits<char>, std::__ndk1::allocator<char> > const&, matjson::Value const&)
PUBLIC 3b5d0 0 geode::impl::ResultData<void, std::__ndk1::basic_string<char, std::__ndk1::char_traits<char>, std::__ndk1::allocator<char> > >::~ResultData()
PUBLIC 3b644 0 std::__ndk1::__shared_ptr_emplace<MyButtonSettingV3, std::__ndk1::allocator<MyButtonSettingV3> >::~__shared_ptr_emplace()
PUBLIC 3b654 0 std::__ndk1::__shared_ptr_emplace<MyButtonSettingV3, std::__ndk1::allocator<MyButtonSettingV3> >::~__shared_ptr_emplace()
PUBLIC 3b684 0 std::__ndk1::__shared_ptr_emplace<MyButtonSettingV3, std::__ndk1::allocator<MyButtonSettingV3> >::__on_zero_shared()
PUBLIC 3b690 0 std::__ndk1::__shared_ptr_emplace<MyButtonSettingV3, std::__ndk1::allocator<MyButtonSettingV3> >::__on_zero_shared_weak()
PUBLIC 3b694 0 std::__ndk1::__function::__base<geode::Result<std::__ndk1::shared_ptr<geode::SettingV3>, std::__ndk1::basic_string<char, std::__ndk1::char_traits<char>, std::__ndk1::allocator<char> > >(std::__ndk1::basic_string<char, std::__ndk1::char_traits<char>, std::__ndk1::allocator<char> > const&, std::__ndk1::basic_string<char, std::__ndk1::char_traits<char>, std::__ndk1::allocator<char> > const&, matjson::Value const&)>::~__base()
PUBLIC 3b698 0 std::__ndk1::__function::__func<geode::Result<std::__ndk1::shared_ptr<geode::SettingV3>, std::__ndk1::basic_string<char, std::__ndk1::char_traits<char>, std::__ndk1::allocator<char> > > (*)(std::__ndk1::basic_string<char, std::__ndk1::char_traits<char>, std::__ndk1::allocator<char> > const&, std::__ndk1::basic_string<char, std::__ndk1::char_traits<char>, std::__ndk1::allocator<char> > const&, matjson::Value const&), std::__ndk1::allocator<geode::Result<std::__ndk1::shared_ptr<geode::SettingV3>, std::__ndk1::basic_string<char, std::__ndk1::char_traits<char>, std::__ndk1::allocator<char> > > (*)(std::__ndk1::basic_string<char, std::__ndk1::char_traits<char>, std::__ndk1::allocator<char> > const&, std::__ndk1::basic_string<char, std::__ndk1::char_traits<char>, std::__ndk1::allocator<char> > const&, matjson::Value const&)>, geode::Result<std::__ndk1::shared_ptr<geode::SettingV3>, std::__ndk1::basic_string<char, std::__ndk1::char_traits<char>, std::__ndk1::allocator<char> > >(std::__ndk1::basic_string<char, std::__ndk1::char_traits<char>, std::__ndk1::allocator<char> > const&, std::__ndk1::basic_string<char, std::__ndk1::char_traits<char>, std::__ndk1::allocator<char> > const&, matjson::Value const&)>::~__func()
PUBLIC 3b69c 0 std::__ndk1::__function::__func<geode::Result<std::__ndk1::shared_ptr<geode::SettingV3>, std::__ndk1::basic_string<char, std::__ndk1::char_traits<char>, std::__ndk1::allocator<char> > > (*)(std::__ndk1::basic_string<char, std::__ndk1::char_traits<char>, std::__ndk1::allocator<char> > const&, std::__ndk1::basic_string<char, std::__ndk1::char_traits<char>, std::__ndk1::allocator<char> > const&, matjson::Value const&), std::__ndk1::allocator<geode::Result<std::__ndk1::shared_ptr<geode::SettingV3>, std::__ndk1::basic_string<char, std::__ndk1::char_traits<char>, std::__ndk1::allocator<char> > > (*)(std::__ndk1::basic_string<char, std::__ndk1::char_traits<char>, std::__ndk1::allocator<char> > const&, std::__ndk1::basic_string<char, std::__ndk1::char_traits<char>, std::__ndk1::allocator<char> > const&, matjson::Value const&)>, geode::Result<std::__ndk1::shared_ptr<geode::SettingV3>, std::__ndk1::basic_string<char, std::__ndk1::char_traits<char>, std::__ndk1::allocator<char> > >(std::__ndk1::basic_string<char, std::__ndk1::char_traits<char>, std::__ndk1::allocator<char> > const&, std::__ndk1::basic_string<char, std::__ndk1::char_traits<char>, std::__ndk1::allocator<char> > const&, matjson::Value const&)>::__clone() const
PUBLIC 3b6d0 0 std::__ndk1::__function::__func<geode::Result<std::__ndk1::shared_ptr<geode::SettingV3>, std::__ndk1::basic_string<char, std::__ndk1::char_traits<char>, std::__ndk1::allocator<char> > > (*)(std::__ndk1::basic_string<char, std::__ndk1::char_traits<char>, std::__ndk1::allocator<char> > const&, std::__ndk1::basic_string<char, std::__ndk1::char_traits<char>, std::__ndk1::allocator<char> > const&, matjson::Value const&), std::__ndk1::allocator<geode::Result<std::__ndk1::shared_ptr<geode::SettingV3>, std::__ndk1::basic_string<char, std::__ndk1::char_traits<char>, std::__ndk1::allocator<char> > > (*)(std::__ndk1::basic_string<char, std::__ndk1::char_traits<char>, std::__ndk1::allocator<char> > const&, std::__ndk1::basic_string<char, std::__ndk1::char_traits<char>, std::__ndk1::allocator<char> > const&, matjson::Value const&)>, geode::Result<std::__ndk1::shared_ptr<geode::SettingV3>, std::__ndk1::basic_string<char, std::__ndk1::char_traits<char>, std::__ndk1::allocator<char> > >(std::__ndk1::basic_string<char, std::__ndk1::char_traits<char>, std::__ndk1::allocator<char> > const&, std::__ndk1::basic_string<char, std::__ndk1::char_traits<char>, std::__ndk1::allocator<char> > const&, matjson::Value const&)>::__clone(std::__ndk1::__function::__base<geode::Result<std::__ndk1::shared_ptr<geode::SettingV3>, std::__ndk1::basic_string<char, std::__ndk1::char_traits<char>, std::__ndk1::allocator<char> > >(std::__ndk1::basic_string<char, std::__ndk1::char_traits<char>, std::__ndk1::allocator<char> > const&, std::__ndk1::basic_string<char, std::__ndk1::char_traits<char>, std::__ndk1::allocator<char> > const&, matjson::Value const&)>*) const
PUBLIC 3b6e4 0 std::__ndk1::__function::__func<geode::Result<std::__ndk1::shared_ptr<geode::SettingV3>, std::__ndk1::basic_string<char, std::__ndk1::char_traits<char>, std::__ndk1::allocator<char> > > (*)(std::__ndk1::basic_string<char, std::__ndk1::char_traits<char>, std::__ndk1::allocator<char> > const&, std::__ndk1::basic_string<char, std::__ndk1::char_traits<char>, std::__ndk1::allocator<char> > const&, matjson::Value const&), std::__ndk1::allocator<geode::Result<std::__ndk1::shared_ptr<geode::SettingV3>, std::__ndk1::basic_string<char, std::__ndk1::char_traits<char>, std::__ndk1::allocator<char> > > (*)(std::__ndk1::basic_string<char, std::__ndk1::char_traits<char>, std::__ndk1::allocator<char> > const&, std::__ndk1::basic_string<char, std::__ndk1::char_traits<char>, std::__ndk1::allocator<char> > const&, matjson::Value const&)>, geode::Result<std::__ndk1::shared_ptr<geode::SettingV3>, std::__ndk1::basic_string<char, std::__ndk1::char_traits<char>, std::__ndk1::allocator<char> > >(std::__ndk1::basic_string<char, std::__ndk1::char_traits<char>, std::__ndk1::allocator<char> > const&, std::__ndk1::basic_string<char, std::__ndk1::char_traits<char>, std::__ndk1::allocator<char> > const&, matjson::Value const&)>::destroy()
PUBLIC 3b6e8 0 std::__ndk1::__function::__func<geode::Result<std::__ndk1::shared_ptr<geode::SettingV3>, std::__ndk1::basic_string<char, std::__ndk1::char_traits<char>, std::__ndk1::allocator<char> > > (*)(std::__ndk1::basic_string<char, std::__ndk1::char_traits<char>, std::__ndk1::allocator<char> > const&, std::__ndk1::basic_string<char, std::__ndk1::char_traits<char>, std::__ndk1::allocator<char> > const&, matjson::Value const&), std::__ndk1::allocator<geode::Result<std::__ndk1::shared_ptr<geode::SettingV3>, std::__ndk1::basic_string<char, std::__ndk1::char_traits<char>, std::__ndk1::allocator<char> > > (*)(std::__ndk1::basic_string<char, std::__ndk1::char_traits<char>, std::__ndk1::allocator<char> > const&, std::__ndk1::basic_string<char, std::__ndk1::char_traits<char>, std::__ndk1::allocator<char> > const&, matjson::Value const&)>, geode::Result<std::__ndk1::shared_ptr<geode::SettingV3>, std::__ndk1::basic_string<char, std::__ndk1::char_traits<char>, std::__ndk1::allocator<char> > >(std::__ndk1::basic_string<char, std::__ndk1::char_traits<char>, std::__ndk1::allocator<char> > const&, std::__ndk1::basic_string<char, std::__ndk1::char_traits<char>, std::__ndk1::allocator<char> > const&, matjson::Value const&)>::destroy_deallocate()
PUBLIC 3b6ec 0 std::__ndk1::__function::__func<geode::Result<std::__ndk1::shared_ptr<geode::SettingV3>, std::__ndk1::basic_string<char, std::__ndk1::char_traits<char>, std::__ndk1::allocator<char> > > (*)(std::__ndk1::basic_string<char, std::__ndk1::char_traits<char>, std::__ndk1::allocator<char> > const&, std::__ndk1::basic_string<char, std::__ndk1::char_traits<char>, std::__ndk1::allocator<char> > const&, matjson::Value const&), std::__ndk1::allocator<geode::Result<std::__ndk1::shared_ptr<geode::SettingV3>, std::__ndk1::basic_string<char, std::__ndk1::char_traits<char>, std::__ndk1::allocator<char> > > (*)(std::__ndk1::basic_string<char, std::__ndk1::char_traits<char>, std::__ndk1::allocator<char> > const&, std::__ndk1::basic_string<char, std::__ndk1::char_traits<char>, std::__ndk1::allocator<char> > const&, matjson::Value const&)>, geode::Result<std::__ndk1::shared_ptr<geode::SettingV3>, std::__ndk1::basic_string<char, std::__ndk1::char_traits<char>, std::__ndk1::allocator<char> > >(std::__ndk1::basic_string<char, std::__ndk1::char_traits<char>, std::__ndk1::allocator<char> > const&, std::__ndk1::basic_string<char, std::__ndk1::char_traits<char>, std::__ndk1::allocator<char> > const&, matjson::Value const&)>::operator()(std::__ndk1::basic_string<char, std::__ndk1::char_traits<char>, std::__ndk1::allocator<char> > const&, std::__ndk1::basic_string<char, std::__ndk1::char_traits<char>, std::__ndk1::allocator<char> > const&, matjson::Value const&)
PUBLIC 3b700 0 std::__ndk1::__function::__func<geode::Result<std::__ndk1::shared_ptr<geode::SettingV3>, std::__ndk1::basic_string<char, std::__ndk1::char_traits<char>, std::__ndk1::allocator<char> > > (*)(std::__ndk1::basic_string<char, std::__ndk1::char_traits<char>, std::__ndk1::allocator<char> > const&, std::__ndk1::basic_string<char, std::__ndk1::char_traits<char>, std::__ndk1::allocator<char> > const&, matjson::Value const&), std::__ndk1::allocator<geode::Result<std::__ndk1::shared_ptr<geode::SettingV3>, std::__ndk1::basic_string<char, std::__ndk1::char_traits<char>, std::__ndk1::allocator<char> > > (*)(std::__ndk1::basic_string<char, std::__ndk1::char_traits<char>, std::__ndk1::allocator<char> > const&, std::__ndk1::basic_string<char, std::__ndk1::char_traits<char>, std::__ndk1::allocator<char> > const&, matjson::Value const&)>, geode::Result<std::__ndk1::shared_ptr<geode::SettingV3>, std::__ndk1::basic_string<char, std::__ndk1::char_traits<char>, std::__ndk1::allocator<char> > >(std::__ndk1::basic_string<char, std::__ndk1::char_traits<char>, std::__ndk1::allocator<char> > const&, std::__ndk1::basic_string<char, std::__ndk1::char_traits<char>, std::__ndk1::allocator<char> > const&, matjson::Value const&)>::target(std::type_info const&) const
PUBLIC 3b71c 0 std::__ndk1::__function::__func<geode::Result<std::__ndk1::shared_ptr<geode::SettingV3>, std::__ndk1::basic_string<char, std::__ndk1::char_traits<char>, std::__ndk1::allocator<char> > > (*)(std::__ndk1::basic_string<char, std::__ndk1::char_traits<char>, std::__ndk1::allocator<char> > const&, std::__ndk1::basic_string<char, std::__ndk1::char_traits<char>, std::__ndk1::allocator<char> > const&, matjson::Value const&), std::__ndk1::allocator<geode::Result<std::__ndk1::shared_ptr<geode::SettingV3>, std::__ndk1::basic_string<char, std::__ndk1::char_traits<char>, std::__ndk1::allocator<char> > > (*)(std::__ndk1::basic_string<char, std::__ndk1::char_traits<char>, std::__ndk1::allocator<char> > const&, std::__ndk1::basic_string<char, std::__ndk1::char_traits<char>, std::__ndk1::allocator<char> > const&, matjson::Value const&)>, geode::Result<std::__ndk1::shared_ptr<geode::SettingV3>, std::__ndk1::basic_string<char, std::__ndk1::char_traits<char>, std::__ndk1::allocator<char> > >(std::__ndk1::basic_string<char, std::__ndk1::char_traits<char>, std::__ndk1::allocator<char> > const&, std::__ndk1::basic_string<char, std::__ndk1::char_traits<char>, std::__ndk1::allocator<char> > const&, matjson::Value const&)>::target_type() const
PUBLIC 3b728 0 geode::EventListener<geode::SettingChangedFilterV3>::EventListener(std::__ndk1::function<void (std::__ndk1::shared_ptr<geode::SettingV3>)>, geode::SettingChangedFilterV3)
PUBLIC 3b820 0 geode::SettingChangedFilterV3::~SettingChangedFilterV3()
PUBLIC 3b870 0 std::__ndk1::__function::__func<geode::listenForSettingChangesV3<std::__ndk1::basic_string<char, std::__ndk1::char_traits<char>, std::__ndk1::allocator<char> >, geodeExecFunction8<(anonymous namespace)::ExecFuncUnique8>(geode::ModStateEvent*)::{lambda(std::__ndk1::basic_string<char, std::__ndk1::char_traits<char>, std::__ndk1::allocator<char> >)#1}>(std::__ndk1::basic_string_view<char, std::__ndk1::char_traits<char> >, geodeExecFunction8<(anonymous namespace)::ExecFuncUnique8>(geode::ModStateEvent*)::{lambda(std::__ndk1::basic_string<char, std::__ndk1::char_traits<char>, std::__ndk1::allocator<char> >&&)#1}, geode::Mod*)::{lambda(std::__ndk1::shared_ptr<geode::SettingV3>)#1}, std::__ndk1::allocator<geode::listenForSettingChangesV3<std::__ndk1::basic_string<char, std::__ndk1::char_traits<char>, std::__ndk1::allocator<char> >, geodeExecFunction8<(anonymous namespace)::ExecFuncUnique8>(geode::ModStateEvent*)::{lambda(std::__ndk1::basic_string<char, std::__ndk1::char_traits<char>, std::__ndk1::allocator<char> >)#1}>(std::__ndk1::basic_string_view<char, std::__ndk1::char_traits<char> >, geodeExecFunction8<(anonymous namespace)::ExecFuncUnique8>(geode::ModStateEvent*)::{lambda(std::__ndk1::basic_string<char, std::__ndk1::char_traits<char>, std::__ndk1::allocator<char> >&&)#1}, geode::Mod*)::{lambda(std::__ndk1::shared_ptr<geode::SettingV3>)#1}>, void (std::__ndk1::shared_ptr<geode::SettingV3>)>::~__func()
PUBLIC 3b874 0 std::__ndk1::__function::__func<geode::listenForSettingChangesV3<std::__ndk1::basic_string<char, std::__ndk1::char_traits<char>, std::__ndk1::allocator<char> >, geodeExecFunction8<(anonymous namespace)::ExecFuncUnique8>(geode::ModStateEvent*)::{lambda(std::__ndk1::basic_string<char, std::__ndk1::char_traits<char>, std::__ndk1::allocator<char> >)#1}>(std::__ndk1::basic_string_view<char, std::__ndk1::char_traits<char> >, geodeExecFunction8<(anonymous namespace)::ExecFuncUnique8>(geode::ModStateEvent*)::{lambda(std::__ndk1::basic_string<char, std::__ndk1::char_traits<char>, std::__ndk1::allocator<char> >&&)#1}, geode::Mod*)::{lambda(std::__ndk1::shared_ptr<geode::SettingV3>)#1}, std::__ndk1::allocator<geode::listenForSettingChangesV3<std::__ndk1::basic_string<char, std::__ndk1::char_traits<char>, std::__ndk1::allocator<char> >, geodeExecFunction8<(anonymous namespace)::ExecFuncUnique8>(geode::ModStateEvent*)::{lambda(std::__ndk1::basic_string<char, std::__ndk1::char_traits<char>, std::__ndk1::allocator<char> >)#1}>(std::__ndk1::basic_string_view<char, std::__ndk1::char_traits<char> >, geodeExecFunction8<(anonymous namespace)::ExecFuncUnique8>(geode::ModStateEvent*)::{lambda(std::__ndk1::basic_string<char, std::__ndk1::char_traits<char>, std::__ndk1::allocator<char> >&&)#1}, geode::Mod*)::{lambda(std::__ndk1::shared_ptr<geode::SettingV3>)#1}>, void (std::__ndk1::shared_ptr<geode::SettingV3>)>::__clone() const
PUBLIC 3b8ac 0 std::__ndk1::__function::__func<geode::listenForSettingChangesV3<std::__ndk1::basic_string<char, std::__ndk1::char_traits<char>, std::__ndk1::allocator<char> >, geodeExecFunction8<(anonymous namespace)::ExecFuncUnique8>(geode::ModStateEvent*)::{lambda(std::__ndk1::basic_string<char, std::__ndk1::char_traits<char>, std::__ndk1::allocator<char> >)#1}>(std::__ndk1::basic_string_view<char, std::__ndk1::char_traits<char> >, geodeExecFunction8<(anonymous namespace)::ExecFuncUnique8>(geode::ModStateEvent*)::{lambda(std::__ndk1::basic_string<char, std::__ndk1::char_traits<char>, std::__ndk1::allocator<char> >&&)#1}, geode::Mod*)::{lambda(std::__ndk1::shared_ptr<geode::SettingV3>)#1}, std::__ndk1::allocator<geode::listenForSettingChangesV3<std::__ndk1::basic_string<char, std::__ndk1::char_traits<char>, std::__ndk1::allocator<char> >, geodeExecFunction8<(anonymous namespace)::ExecFuncUnique8>(geode::ModStateEvent*)::{lambda(std::__ndk1::basic_string<char, std::__ndk1::char_traits<char>, std::__ndk1::allocator<char> >)#1}>(std::__ndk1::basic_string_view<char, std::__ndk1::char_traits<char> >, geodeExecFunction8<(anonymous namespace)::ExecFuncUnique8>(geode::ModStateEvent*)::{lambda(std::__ndk1::basic_string<char, std::__ndk1::char_traits<char>, std::__ndk1::allocator<char> >&&)#1}, geode::Mod*)::{lambda(std::__ndk1::shared_ptr<geode::SettingV3>)#1}>, void (std::__ndk1::shared_ptr<geode::SettingV3>)>::__clone(std::__ndk1::__function::__base<void (std::__ndk1::shared_ptr<geode::SettingV3>)>*) const
PUBLIC 3b8c4 0 std::__ndk1::__function::__func<geode::listenForSettingChangesV3<std::__ndk1::basic_string<char, std::__ndk1::char_traits<char>, std::__ndk1::allocator<char> >, geodeExecFunction8<(anonymous namespace)::ExecFuncUnique8>(geode::ModStateEvent*)::{lambda(std::__ndk1::basic_string<char, std::__ndk1::char_traits<char>, std::__ndk1::allocator<char> >)#1}>(std::__ndk1::basic_string_view<char, std::__ndk1::char_traits<char> >, geodeExecFunction8<(anonymous namespace)::ExecFuncUnique8>(geode::ModStateEvent*)::{lambda(std::__ndk1::basic_string<char, std::__ndk1::char_traits<char>, std::__ndk1::allocator<char> >&&)#1}, geode::Mod*)::{lambda(std::__ndk1::shared_ptr<geode::SettingV3>)#1}, std::__ndk1::allocator<geode::listenForSettingChangesV3<std::__ndk1::basic_string<char, std::__ndk1::char_traits<char>, std::__ndk1::allocator<char> >, geodeExecFunction8<(anonymous namespace)::ExecFuncUnique8>(geode::ModStateEvent*)::{lambda(std::__ndk1::basic_string<char, std::__ndk1::char_traits<char>, std::__ndk1::allocator<char> >)#1}>(std::__ndk1::basic_string_view<char, std::__ndk1::char_traits<char> >, geodeExecFunction8<(anonymous namespace)::ExecFuncUnique8>(geode::ModStateEvent*)::{lambda(std::__ndk1::basic_string<char, std::__ndk1::char_traits<char>, std::__ndk1::allocator<char> >&&)#1}, geode::Mod*)::{lambda(std::__ndk1::shared_ptr<geode::SettingV3>)#1}>, void (std::__ndk1::shared_ptr<geode::SettingV3>)>::destroy()
PUBLIC 3b8c8 0 std::__ndk1::__function::__func<geode::listenForSettingChangesV3<std::__ndk1::basic_string<char, std::__ndk1::char_traits<char>, std::__ndk1::allocator<char> >, geodeExecFunction8<(anonymous namespace)::ExecFuncUnique8>(geode::ModStateEvent*)::{lambda(std::__ndk1::basic_string<char, std::__ndk1::char_traits<char>, std::__ndk1::allocator<char> >)#1}>(std::__ndk1::basic_string_view<char, std::__ndk1::char_traits<char> >, geodeExecFunction8<(anonymous namespace)::ExecFuncUnique8>(geode::ModStateEvent*)::{lambda(std::__ndk1::basic_string<char, std::__ndk1::char_traits<char>, std::__ndk1::allocator<char> >&&)#1}, geode::Mod*)::{lambda(std::__ndk1::shared_ptr<geode::SettingV3>)#1}, std::__ndk1::allocator<geode::listenForSettingChangesV3<std::__ndk1::basic_string<char, std::__ndk1::char_traits<char>, std::__ndk1::allocator<char> >, geodeExecFunction8<(anonymous namespace)::ExecFuncUnique8>(geode::ModStateEvent*)::{lambda(std::__ndk1::basic_string<char, std::__ndk1::char_traits<char>, std::__ndk1::allocator<char> >)#1}>(std::__ndk1::basic_string_view<char, std::__ndk1::char_traits<char> >, geodeExecFunction8<(anonymous namespace)::ExecFuncUnique8>(geode::ModStateEvent*)::{lambda(std::__ndk1::basic_string<char, std::__ndk1::char_traits<char>, std::__ndk1::allocator<char> >&&)#1}, geode::Mod*)::{lambda(std::__ndk1::shared_ptr<geode::SettingV3>)#1}>, void (std::__ndk1::shared_ptr<geode::SettingV3>)>::destroy_deallocate()
PUBLIC 3b8cc 0 std::__ndk1::__function::__func<geode::listenForSettingChangesV3<std::__ndk1::basic_string<char, std::__ndk1::char_traits<char>, std::__ndk1::allocator<char> >, geodeExecFunction8<(anonymous namespace)::ExecFuncUnique8>(geode::ModStateEvent*)::{lambda(std::__ndk1::basic_string<char, std::__ndk1::char_traits<char>, std::__ndk1::allocator<char> >)#1}>(std::__ndk1::basic_string_view<char, std::__ndk1::char_traits<char> >, geodeExecFunction8<(anonymous namespace)::ExecFuncUnique8>(geode::ModStateEvent*)::{lambda(std::__ndk1::basic_string<char, std::__ndk1::char_traits<char>, std::__ndk1::allocator<char> >&&)#1}, geode::Mod*)::{lambda(std::__ndk1::shared_ptr<geode::SettingV3>)#1}, std::__ndk1::allocator<geode::listenForSettingChangesV3<std::__ndk1::basic_string<char, std::__ndk1::char_traits<char>, std::__ndk1::allocator<char> >, geodeExecFunction8<(anonymous namespace)::ExecFuncUnique8>(geode::ModStateEvent*)::{lambda(std::__ndk1::basic_string<char, std::__ndk1::char_traits<char>, std::__ndk1::allocator<char> >)#1}>(std::__ndk1::basic_string_view<char, std::__ndk1::char_traits<char> >, geodeExecFunction8<(anonymous namespace)::ExecFuncUnique8>(geode::ModStateEvent*)::{lambda(std::__ndk1::basic_string<char, std::__ndk1::char_traits<char>, std::__ndk1::allocator<char> >&&)#1}, geode::Mod*)::{lambda(std::__ndk1::shared_ptr<geode::SettingV3>)#1}>, void (std::__ndk1::shared_ptr<geode::SettingV3>)>::operator()(std::__ndk1::shared_ptr<geode::SettingV3>&&)
PUBLIC 3be08 0 std::__ndk1::__function::__func<geode::listenForSettingChangesV3<std::__ndk1::basic_string<char, std::__ndk1::char_traits<char>, std::__ndk1::allocator<char> >, geodeExecFunction8<(anonymous namespace)::ExecFuncUnique8>(geode::ModStateEvent*)::{lambda(std::__ndk1::basic_string<char, std::__ndk1::char_traits<char>, std::__ndk1::allocator<char> >)#1}>(std::__ndk1::basic_string_view<char, std::__ndk1::char_traits<char> >, geodeExecFunction8<(anonymous namespace)::ExecFuncUnique8>(geode::ModStateEvent*)::{lambda(std::__ndk1::basic_string<char, std::__ndk1::char_traits<char>, std::__ndk1::allocator<char> >&&)#1}, geode::Mod*)::{lambda(std::__ndk1::shared_ptr<geode::SettingV3>)#1}, std::__ndk1::allocator<geode::listenForSettingChangesV3<std::__ndk1::basic_string<char, std::__ndk1::char_traits<char>, std::__ndk1::allocator<char> >, geodeExecFunction8<(anonymous namespace)::ExecFuncUnique8>(geode::ModStateEvent*)::{lambda(std::__ndk1::basic_string<char, std::__ndk1::char_traits<char>, std::__ndk1::allocator<char> >)#1}>(std::__ndk1::basic_string_view<char, std::__ndk1::char_traits<char> >, geodeExecFunction8<(anonymous namespace)::ExecFuncUnique8>(geode::ModStateEvent*)::{lambda(std::__ndk1::basic_string<char, std::__ndk1::char_traits<char>, std::__ndk1::allocator<char> >&&)#1}, geode::Mod*)::{lambda(std::__ndk1::shared_ptr<geode::SettingV3>)#1}>, void (std::__ndk1::shared_ptr<geode::SettingV3>)>::target(std::type_info const&) const
PUBLIC 3be24 0 std::__ndk1::__function::__func<geode::listenForSettingChangesV3<std::__ndk1::basic_string<char, std::__ndk1::char_traits<char>, std::__ndk1::allocator<char> >, geodeExecFunction8<(anonymous namespace)::ExecFuncUnique8>(geode::ModStateEvent*)::{lambda(std::__ndk1::basic_string<char, std::__ndk1::char_traits<char>, std::__ndk1::allocator<char> >)#1}>(std::__ndk1::basic_string_view<char, std::__ndk1::char_traits<char> >, geodeExecFunction8<(anonymous namespace)::ExecFuncUnique8>(geode::ModStateEvent*)::{lambda(std::__ndk1::basic_string<char, std::__ndk1::char_traits<char>, std::__ndk1::allocator<char> >&&)#1}, geode::Mod*)::{lambda(std::__ndk1::shared_ptr<geode::SettingV3>)#1}, std::__ndk1::allocator<geode::listenForSettingChangesV3<std::__ndk1::basic_string<char, std::__ndk1::char_traits<char>, std::__ndk1::allocator<char> >, geodeExecFunction8<(anonymous namespace)::ExecFuncUnique8>(geode::ModStateEvent*)::{lambda(std::__ndk1::basic_string<char, std::__ndk1::char_traits<char>, std::__ndk1::allocator<char> >)#1}>(std::__ndk1::basic_string_view<char, std::__ndk1::char_traits<char> >, geodeExecFunction8<(anonymous namespace)::ExecFuncUnique8>(geode::ModStateEvent*)::{lambda(std::__ndk1::basic_string<char, std::__ndk1::char_traits<char>, std::__ndk1::allocator<char> >&&)#1}, geode::Mod*)::{lambda(std::__ndk1::shared_ptr<geode::SettingV3>)#1}>, void (std::__ndk1::shared_ptr<geode::SettingV3>)>::target_type() const
PUBLIC 3be30 0 geode::EventListener<geode::SettingChangedFilterV3>::getPool() const
PUBLIC 3be34 0 geode::EventListener<geode::SettingChangedFilterV3>::handle(geode::Event*)
PUBLIC 3bfa8 0 geode::EventListener<geode::SettingChangedFilterV3>::~EventListener()
PUBLIC 3c044 0 geode::EventListener<geode::SettingChangedFilterV3>::~EventListener()
PUBLIC 3c0e8 0 std::__ndk1::__function::__base<void (std::__ndk1::shared_ptr<geode::SettingV3>)>::~__base()
PUBLIC 3c0ec 0 std::__ndk1::__function::__func<geode::listenForSettingChangesV3<std::__ndk1::basic_string<char, std::__ndk1::char_traits<char>, std::__ndk1::allocator<char> >, geodeExecFunction8<(anonymous namespace)::ExecFuncUnique8>(geode::ModStateEvent*)::{lambda(std::__ndk1::basic_string<char, std::__ndk1::char_traits<char>, std::__ndk1::allocator<char> >)#2}>(std::__ndk1::basic_string_view<char, std::__ndk1::char_traits<char> >, geodeExecFunction8<(anonymous namespace)::ExecFuncUnique8>(geode::ModStateEvent*)::{lambda(std::__ndk1::basic_string<char, std::__ndk1::char_traits<char>, std::__ndk1::allocator<char> >&&)#2}, geode::Mod*)::{lambda(std::__ndk1::shared_ptr<geode::SettingV3>)#1}, std::__ndk1::allocator<geode::listenForSettingChangesV3<std::__ndk1::basic_string<char, std::__ndk1::char_traits<char>, std::__ndk1::allocator<char> >, geodeExecFunction8<(anonymous namespace)::ExecFuncUnique8>(geode::ModStateEvent*)::{lambda(std::__ndk1::basic_string<char, std::__ndk1::char_traits<char>, std::__ndk1::allocator<char> >)#2}>(std::__ndk1::basic_string_view<char, std::__ndk1::char_traits<char> >, geodeExecFunction8<(anonymous namespace)::ExecFuncUnique8>(geode::ModStateEvent*)::{lambda(std::__ndk1::basic_string<char, std::__ndk1::char_traits<char>, std::__ndk1::allocator<char> >&&)#2}, geode::Mod*)::{lambda(std::__ndk1::shared_ptr<geode::SettingV3>)#1}>, void (std::__ndk1::shared_ptr<geode::SettingV3>)>::~__func()
PUBLIC 3c0f0 0 std::__ndk1::__function::__func<geode::listenForSettingChangesV3<std::__ndk1::basic_string<char, std::__ndk1::char_traits<char>, std::__ndk1::allocator<char> >, geodeExecFunction8<(anonymous namespace)::ExecFuncUnique8>(geode::ModStateEvent*)::{lambda(std::__ndk1::basic_string<char, std::__ndk1::char_traits<char>, std::__ndk1::allocator<char> >)#2}>(std::__ndk1::basic_string_view<char, std::__ndk1::char_traits<char> >, geodeExecFunction8<(anonymous namespace)::ExecFuncUnique8>(geode::ModStateEvent*)::{lambda(std::__ndk1::basic_string<char, std::__ndk1::char_traits<char>, std::__ndk1::allocator<char> >&&)#2}, geode::Mod*)::{lambda(std::__ndk1::shared_ptr<geode::SettingV3>)#1}, std::__ndk1::allocator<geode::listenForSettingChangesV3<std::__ndk1::basic_string<char, std::__ndk1::char_traits<char>, std::__ndk1::allocator<char> >, geodeExecFunction8<(anonymous namespace)::ExecFuncUnique8>(geode::ModStateEvent*)::{lambda(std::__ndk1::basic_string<char, std::__ndk1::char_traits<char>, std::__ndk1::allocator<char> >)#2}>(std::__ndk1::basic_string_view<char, std::__ndk1::char_traits<char> >, geodeExecFunction8<(anonymous namespace)::ExecFuncUnique8>(geode::ModStateEvent*)::{lambda(std::__ndk1::basic_string<char, std::__ndk1::char_traits<char>, std::__ndk1::allocator<char> >&&)#2}, geode::Mod*)::{lambda(std::__ndk1::shared_ptr<geode::SettingV3>)#1}>, void (std::__ndk1::shared_ptr<geode::SettingV3>)>::__clone() const
PUBLIC 3c128 0 std::__ndk1::__function::__func<geode::listenForSettingChangesV3<std::__ndk1::basic_string<char, std::__ndk1::char_traits<char>, std::__ndk1::allocator<char> >, geodeExecFunction8<(anonymous namespace)::ExecFuncUnique8>(geode::ModStateEvent*)::{lambda(std::__ndk1::basic_string<char, std::__ndk1::char_traits<char>, std::__ndk1::allocator<char> >)#2}>(std::__ndk1::basic_string_view<char, std::__ndk1::char_traits<char> >, geodeExecFunction8<(anonymous namespace)::ExecFuncUnique8>(geode::ModStateEvent*)::{lambda(std::__ndk1::basic_string<char, std::__ndk1::char_traits<char>, std::__ndk1::allocator<char> >&&)#2}, geode::Mod*)::{lambda(std::__ndk1::shared_ptr<geode::SettingV3>)#1}, std::__ndk1::allocator<geode::listenForSettingChangesV3<std::__ndk1::basic_string<char, std::__ndk1::char_traits<char>, std::__ndk1::allocator<char> >, geodeExecFunction8<(anonymous namespace)::ExecFuncUnique8>(geode::ModStateEvent*)::{lambda(std::__ndk1::basic_string<char, std::__ndk1::char_traits<char>, std::__ndk1::allocator<char> >)#2}>(std::__ndk1::basic_string_view<char, std::__ndk1::char_traits<char> >, geodeExecFunction8<(anonymous namespace)::ExecFuncUnique8>(geode::ModStateEvent*)::{lambda(std::__ndk1::basic_string<char, std::__ndk1::char_traits<char>, std::__ndk1::allocator<char> >&&)#2}, geode::Mod*)::{lambda(std::__ndk1::shared_ptr<geode::SettingV3>)#1}>, void (std::__ndk1::shared_ptr<geode::SettingV3>)>::__clone(std::__ndk1::__function::__base<void (std::__ndk1::shared_ptr<geode::SettingV3>)>*) const
PUBLIC 3c140 0 std::__ndk1::__function::__func<geode::listenForSettingChangesV3<std::__ndk1::basic_string<char, std::__ndk1::char_traits<char>, std::__ndk1::allocator<char> >, geodeExecFunction8<(anonymous namespace)::ExecFuncUnique8>(geode::ModStateEvent*)::{lambda(std::__ndk1::basic_string<char, std::__ndk1::char_traits<char>, std::__ndk1::allocator<char> >)#2}>(std::__ndk1::basic_string_view<char, std::__ndk1::char_traits<char> >, geodeExecFunction8<(anonymous namespace)::ExecFuncUnique8>(geode::ModStateEvent*)::{lambda(std::__ndk1::basic_string<char, std::__ndk1::char_traits<char>, std::__ndk1::allocator<char> >&&)#2}, geode::Mod*)::{lambda(std::__ndk1::shared_ptr<geode::SettingV3>)#1}, std::__ndk1::allocator<geode::listenForSettingChangesV3<std::__ndk1::basic_string<char, std::__ndk1::char_traits<char>, std::__ndk1::allocator<char> >, geodeExecFunction8<(anonymous namespace)::ExecFuncUnique8>(geode::ModStateEvent*)::{lambda(std::__ndk1::basic_string<char, std::__ndk1::char_traits<char>, std::__ndk1::allocator<char> >)#2}>(std::__ndk1::basic_string_view<char, std::__ndk1::char_traits<char> >, geodeExecFunction8<(anonymous namespace)::ExecFuncUnique8>(geode::ModStateEvent*)::{lambda(std::__ndk1::basic_string<char, std::__ndk1::char_traits<char>, std::__ndk1::allocator<char> >&&)#2}, geode::Mod*)::{lambda(std::__ndk1::shared_ptr<geode::SettingV3>)#1}>, void (std::__ndk1::shared_ptr<geode::SettingV3>)>::destroy()
PUBLIC 3c144 0 std::__ndk1::__function::__func<geode::listenForSettingChangesV3<std::__ndk1::basic_string<char, std::__ndk1::char_traits<char>, std::__ndk1::allocator<char> >, geodeExecFunction8<(anonymous namespace)::ExecFuncUnique8>(geode::ModStateEvent*)::{lambda(std::__ndk1::basic_string<char, std::__ndk1::char_traits<char>, std::__ndk1::allocator<char> >)#2}>(std::__ndk1::basic_string_view<char, std::__ndk1::char_traits<char> >, geodeExecFunction8<(anonymous namespace)::ExecFuncUnique8>(geode::ModStateEvent*)::{lambda(std::__ndk1::basic_string<char, std::__ndk1::char_traits<char>, std::__ndk1::allocator<char> >&&)#2}, geode::Mod*)::{lambda(std::__ndk1::shared_ptr<geode::SettingV3>)#1}, std::__ndk1::allocator<geode::listenForSettingChangesV3<std::__ndk1::basic_string<char, std::__ndk1::char_traits<char>, std::__ndk1::allocator<char> >, geodeExecFunction8<(anonymous namespace)::ExecFuncUnique8>(geode::ModStateEvent*)::{lambda(std::__ndk1::basic_string<char, std::__ndk1::char_traits<char>, std::__ndk1::allocator<char> >)#2}>(std::__ndk1::basic_string_view<char, std::__ndk1::char_traits<char> >, geodeExecFunction8<(anonymous namespace)::ExecFuncUnique8>(geode::ModStateEvent*)::{lambda(std::__ndk1::basic_string<char, std::__ndk1::char_traits<char>, std::__ndk1::allocator<char> >&&)#2}, geode::Mod*)::{lambda(std::__ndk1::shared_ptr<geode::SettingV3>)#1}>, void (std::__ndk1::shared_ptr<geode::SettingV3>)>::destroy_deallocate()
PUBLIC 3c148 0 std::__ndk1::__function::__func<geode::listenForSettingChangesV3<std::__ndk1::basic_string<char, std::__ndk1::char_traits<char>, std::__ndk1::allocator<char> >, geodeExecFunction8<(anonymous namespace)::ExecFuncUnique8>(geode::ModStateEvent*)::{lambda(std::__ndk1::basic_string<char, std::__ndk1::char_traits<char>, std::__ndk1::allocator<char> >)#2}>(std::__ndk1::basic_string_view<char, std::__ndk1::char_traits<char> >, geodeExecFunction8<(anonymous namespace)::ExecFuncUnique8>(geode::ModStateEvent*)::{lambda(std::__ndk1::basic_string<char, std::__ndk1::char_traits<char>, std::__ndk1::allocator<char> >&&)#2}, geode::Mod*)::{lambda(std::__ndk1::shared_ptr<geode::SettingV3>)#1}, std::__ndk1::allocator<geode::listenForSettingChangesV3<std::__ndk1::basic_string<char, std::__ndk1::char_traits<char>, std::__ndk1::allocator<char> >, geodeExecFunction8<(anonymous namespace)::ExecFuncUnique8>(geode::ModStateEvent*)::{lambda(std::__ndk1::basic_string<char, std::__ndk1::char_traits<char>, std::__ndk1::allocator<char> >)#2}>(std::__ndk1::basic_string_view<char, std::__ndk1::char_traits<char> >, geodeExecFunction8<(anonymous namespace)::ExecFuncUnique8>(geode::ModStateEvent*)::{lambda(std::__ndk1::basic_string<char, std::__ndk1::char_traits<char>, std::__ndk1::allocator<char> >&&)#2}, geode::Mod*)::{lambda(std::__ndk1::shared_ptr<geode::SettingV3>)#1}>, void (std::__ndk1::shared_ptr<geode::SettingV3>)>::operator()(std::__ndk1::shared_ptr<geode::SettingV3>&&)
PUBLIC 3c684 0 std::__ndk1::__function::__func<geode::listenForSettingChangesV3<std::__ndk1::basic_string<char, std::__ndk1::char_traits<char>, std::__ndk1::allocator<char> >, geodeExecFunction8<(anonymous namespace)::ExecFuncUnique8>(geode::ModStateEvent*)::{lambda(std::__ndk1::basic_string<char, std::__ndk1::char_traits<char>, std::__ndk1::allocator<char> >)#2}>(std::__ndk1::basic_string_view<char, std::__ndk1::char_traits<char> >, geodeExecFunction8<(anonymous namespace)::ExecFuncUnique8>(geode::ModStateEvent*)::{lambda(std::__ndk1::basic_string<char, std::__ndk1::char_traits<char>, std::__ndk1::allocator<char> >&&)#2}, geode::Mod*)::{lambda(std::__ndk1::shared_ptr<geode::SettingV3>)#1}, std::__ndk1::allocator<geode::listenForSettingChangesV3<std::__ndk1::basic_string<char, std::__ndk1::char_traits<char>, std::__ndk1::allocator<char> >, geodeExecFunction8<(anonymous namespace)::ExecFuncUnique8>(geode::ModStateEvent*)::{lambda(std::__ndk1::basic_string<char, std::__ndk1::char_traits<char>, std::__ndk1::allocator<char> >)#2}>(std::__ndk1::basic_string_view<char, std::__ndk1::char_traits<char> >, geodeExecFunction8<(anonymous namespace)::ExecFuncUnique8>(geode::ModStateEvent*)::{lambda(std::__ndk1::basic_string<char, std::__ndk1::char_traits<char>, std::__ndk1::allocator<char> >&&)#2}, geode::Mod*)::{lambda(std::__ndk1::shared_ptr<geode::SettingV3>)#1}>, void (std::__ndk1::shared_ptr<geode::SettingV3>)>::target(std::type_info const&) const
PUBLIC 3c6a0 0 std::__ndk1::__function::__func<geode::listenForSettingChangesV3<std::__ndk1::basic_string<char, std::__ndk1::char_traits<char>, std::__ndk1::allocator<char> >, geodeExecFunction8<(anonymous namespace)::ExecFuncUnique8>(geode::ModStateEvent*)::{lambda(std::__ndk1::basic_string<char, std::__ndk1::char_traits<char>, std::__ndk1::allocator<char> >)#2}>(std::__ndk1::basic_string_view<char, std::__ndk1::char_traits<char> >, geodeExecFunction8<(anonymous namespace)::ExecFuncUnique8>(geode::ModStateEvent*)::{lambda(std::__ndk1::basic_string<char, std::__ndk1::char_traits<char>, std::__ndk1::allocator<char> >&&)#2}, geode::Mod*)::{lambda(std::__ndk1::shared_ptr<geode::SettingV3>)#1}, std::__ndk1::allocator<geode::listenForSettingChangesV3<std::__ndk1::basic_string<char, std::__ndk1::char_traits<char>, std::__ndk1::allocator<char> >, geodeExecFunction8<(anonymous namespace)::ExecFuncUnique8>(geode::ModStateEvent*)::{lambda(std::__ndk1::basic_string<char, std::__ndk1::char_traits<char>, std::__ndk1::allocator<char> >)#2}>(std::__ndk1::basic_string_view<char, std::__ndk1::char_traits<char> >, geodeExecFunction8<(anonymous namespace)::ExecFuncUnique8>(geode::ModStateEvent*)::{lambda(std::__ndk1::basic_string<char, std::__ndk1::char_traits<char>, std::__ndk1::allocator<char> >&&)#2}, geode::Mod*)::{lambda(std::__ndk1::shared_ptr<geode::SettingV3>)#1}>, void (std::__ndk1::shared_ptr<geode::SettingV3>)>::target_type() const
PUBLIC 3c6ac 0 geode::EventListener<geode::ModStateFilter>::getPool() const
PUBLIC 3c6b0 0 geode::EventListener<geode::ModStateFilter>::handle(geode::Event*)
PUBLIC 3c824 0 geode::EventListener<geode::ModStateFilter>::~EventListener()
PUBLIC 3c880 0 geode::EventListener<geode::ModStateFilter>::~EventListener()
PUBLIC 3c8e4 0 std::__ndk1::__function::__base<void (geode::ModStateEvent*)>::~__base()
PUBLIC 3c8e8 0 std::__ndk1::__function::__func<void (*)(geode::ModStateEvent*), std::__ndk1::allocator<void (*)(geode::ModStateEvent*)>, void (geode::ModStateEvent*)>::~__func()
PUBLIC 3c8ec 0 std::__ndk1::__function::__func<void (*)(geode::ModStateEvent*), std::__ndk1::allocator<void (*)(geode::ModStateEvent*)>, void (geode::ModStateEvent*)>::__clone() const
PUBLIC 3c920 0 std::__ndk1::__function::__func<void (*)(geode::ModStateEvent*), std::__ndk1::allocator<void (*)(geode::ModStateEvent*)>, void (geode::ModStateEvent*)>::__clone(std::__ndk1::__function::__base<void (geode::ModStateEvent*)>*) const
PUBLIC 3c934 0 std::__ndk1::__function::__func<void (*)(geode::ModStateEvent*), std::__ndk1::allocator<void (*)(geode::ModStateEvent*)>, void (geode::ModStateEvent*)>::destroy()
PUBLIC 3c938 0 std::__ndk1::__function::__func<void (*)(geode::ModStateEvent*), std::__ndk1::allocator<void (*)(geode::ModStateEvent*)>, void (geode::ModStateEvent*)>::destroy_deallocate()
PUBLIC 3c93c 0 std::__ndk1::__function::__func<void (*)(geode::ModStateEvent*), std::__ndk1::allocator<void (*)(geode::ModStateEvent*)>, void (geode::ModStateEvent*)>::operator()(geode::ModStateEvent*&&)
PUBLIC 3c94c 0 std::__ndk1::__function::__func<void (*)(geode::ModStateEvent*), std::__ndk1::allocator<void (*)(geode::ModStateEvent*)>, void (geode::ModStateEvent*)>::target(std::type_info const&) const
PUBLIC 3c968 0 std::__ndk1::__function::__func<void (*)(geode::ModStateEvent*), std::__ndk1::allocator<void (*)(geode::ModStateEvent*)>, void (geode::ModStateEvent*)>::target_type() const
PUBLIC 3c974 0 geode::modifier::ModifyDerive<MyMenuLayer, MenuLayer>::apply()
PUBLIC 3cc7c 0 geode::modifier::ModifyBase<geode::modifier::ModifyDerive<MyMenuLayer, MenuLayer> >::apply()
PUBLIC 3cc80 0 geode::modifier::AsStaticFunction_init<MyMenuLayer, bool (MyMenuLayer::*)()>::Impl<bool (MyMenuLayer::*)()>::function(MyMenuLayer*)
PUBLIC 3cde0 0 geode::addresser::Addresser::addressOfVirtual<bool, MenuLayer, >(bool (MenuLayer::*)())
PUBLIC 3ce88 0 MenuLayer::MenuLayer(geode::ZeroConstructorType)
PUBLIC 3cf24 0 _GLOBAL__sub_I_main.cpp
PUBLIC m 3d050 0 geodeImplicitEntry
PUBLIC 3d08c 0 std::__ndk1::unordered_map<void*, bool, std::__ndk1::hash<void*>, std::__ndk1::equal_to<void*>, std::__ndk1::allocator<std::__ndk1::pair<void* const, bool> > >::~unordered_map[abi:ne180000]()
PUBLIC 3d0d8 0 wrapFunction(unsigned long, tulip::hook::WrapperMetadata const&)
PUBLIC 3d20c 0 geode::impl::ResultData<void*, std::__ndk1::basic_string<char, std::__ndk1::char_traits<char>, std::__ndk1::allocator<char> > >::unwrapErr() &
PUBLIC 3d284 0 geode::impl::ResultData<void*, std::__ndk1::basic_string<char, std::__ndk1::char_traits<char>, std::__ndk1::allocator<char> > >::~ResultData()
PUBLIC 3d2f8 0 tulip::hook::WrapperMetadata::~WrapperMetadata()
PUBLIC 3d35c 0 cocos2d::CCObject::~CCObject()
PUBLIC 3d380 0 cocos2d::CCNode::CCNode()
PUBLIC 3d5dc 0 cocos2d::CCNode::~CCNode()
PUBLIC 3d600 0 {virtual override thunk({offset(-320)}, cocos2d::CCLayer::~CCLayer())}
PUBLIC 3d608 0 cocos2d::CCLayer::~CCLayer()
PUBLIC 3d62c 0 {virtual override thunk({offset(-320)}, cocos2d::CCLayer::~CCLayer())}
PUBLIC 3d654 0 cocos2d::CCLayerRGBA::~CCLayerRGBA()
PUBLIC 3d954 0 {virtual override thunk({offset(-320)}, cocos2d::CCLayerRGBA::~CCLayerRGBA())}
PUBLIC 3d95c 0 cocos2d::CCLayerRGBA::~CCLayerRGBA()
PUBLIC 3d980 0 {virtual override thunk({offset(-320)}, cocos2d::CCLayerRGBA::~CCLayerRGBA())}
PUBLIC 3d9a8 0 cocos2d::CCLayerColor::CCLayerColor()
PUBLIC 3dc0c 0 {virtual override thunk({offset(-320)}, cocos2d::CCLayerColor::~CCLayerColor())}
PUBLIC 3dc14 0 cocos2d::CCLayerColor::~CCLayerColor()
PUBLIC 3dc38 0 {virtual override thunk({offset(-320)}, cocos2d::CCLayerColor::~CCLayerColor())}
PUBLIC 3dc60 0 {virtual override thunk({offset(-320)}, FLAlertLayer::~FLAlertLayer())}
PUBLIC 3dc68 0 FLAlertLayer::~FLAlertLayer()
PUBLIC 3dc8c 0 {virtual override thunk({offset(-320)}, FLAlertLayer::~FLAlertLayer())}
PUBLIC 3dcb4 0 FLAlertLayer::create(FLAlertLayerProtocol*, char const*, gd::string, char const*, char const*, float)
PUBLIC 3de6c 0 tulip::hook::AbstractFunction::from<FLAlertLayer*, FLAlertLayerProtocol*, char const*, gd::string, char const*, char const*, float>(FLAlertLayer* (*)(FLAlertLayerProtocol*, char const*, gd::string, char const*, char const*, float))
PUBLIC 3e350 0 FLAlertLayer::init(FLAlertLayerProtocol*, char const*, gd::string, char const*, char const*, float, bool, float, float)
PUBLIC 3e538 0 tulip::hook::AbstractFunction::from<bool, FLAlertLayer*, FLAlertLayerProtocol*, char const*, gd::string, char const*, char const*, float, bool, float, float>(bool (*)(FLAlertLayer*, FLAlertLayerProtocol*, char const*, gd::string, char const*, char const*, float, bool, float, float))
PUBLIC 3ee30 0 tulip::hook::AbstractFunction::from<void, CCTextInputNode*, gd::string>(void (*)(CCTextInputNode*, gd::string))
PUBLIC 3eed4 0 CCTextInputNode::setString(gd::string)
PUBLIC 3f04c 0 ShareCommentLayer::init(gd::string, int, CommentType, int, gd::string)
PUBLIC 3f218 0 tulip::hook::AbstractFunction::from<bool, ShareCommentLayer*, gd::string, int, CommentType, int, gd::string>(bool (*)(ShareCommentLayer*, gd::string, int, CommentType, int, gd::string))
PUBLIC 3f6d4 0 cocos2d::CCObject::update(float)
PUBLIC 3f6d8 0 cocos2d::CCLayerColor::~CCLayerColor()
PUBLIC 3f9bc 0 FLAlertLayer::~FLAlertLayer()
PUBLIC 3fca0 0 cocos2d::CCNode::~CCNode()
PUBLIC 3ff40 0 cocos2d::CCLayer::~CCLayer()
PUBLIC 40230 0 cocos2d::CCObject::~CCObject()
PUBLIC 40714 0 _ZN5geode15UnwrapExceptionC2IRPvQsr4implE18IsStringStreamableIT_EEENS_4impl5OkTagEOS4_
PUBLIC 40868 0 std::__ndk1::__variant_detail::__visitation::__base::__dispatcher<(unsigned long)0>::__dispatch[abi:ne180000]<std::__ndk1::__variant_detail::__dtor<std::__ndk1::__variant_detail::__traits<void*, std::__ndk1::basic_string<char, std::__ndk1::char_traits<char>, std::__ndk1::allocator<char> > >, (std::__ndk1::__variant_detail::_Trait)1>::__destroy[abi:ne180000]()::{lambda(auto:1&)#1}, std::__ndk1::__variant_detail::__base<(std::__ndk1::__variant_detail::__traits<void*, std::__ndk1::basic_string<char, std::__ndk1::char_traits<char>, std::__ndk1::allocator<char> > >)1, std::__ndk1::__variant_detail::__traits, std::__ndk1::allocator<char> >&>(std::__ndk1::__variant_detail::__dtor<std::__ndk1::__variant_detail::__traits<void*, std::__ndk1::basic_string<char, std::__ndk1::char_traits<char>, std::__ndk1::allocator<char> > >, (std::__ndk1::__variant_detail::_Trait)1>, std::__ndk1::__variant_detail::__base<(std::__ndk1::__variant_detail::__traits<void*, std::__ndk1::basic_string<char, std::__ndk1::char_traits<char>, std::__ndk1::allocator<char> > >)1, std::__ndk1::__variant_detail::__traits, std::__ndk1::allocator<char> >&)
PUBLIC 4086c 0 std::__ndk1::__variant_detail::__visitation::__base::__dispatcher<(unsigned long)1>::__dispatch[abi:ne180000]<std::__ndk1::__variant_detail::__dtor<std::__ndk1::__variant_detail::__traits<void*, std::__ndk1::basic_string<char, std::__ndk1::char_traits<char>, std::__ndk1::allocator<char> > >, (std::__ndk1::__variant_detail::_Trait)1>::__destroy[abi:ne180000]()::{lambda(auto:1&)#1}, std::__ndk1::__variant_detail::__base<(std::__ndk1::__variant_detail::__traits<void*, std::__ndk1::basic_string<char, std::__ndk1::char_traits<char>, std::__ndk1::allocator<char> > >)1, std::__ndk1::__variant_detail::__traits, std::__ndk1::allocator<char> >&>(std::__ndk1::__variant_detail::__dtor<std::__ndk1::__variant_detail::__traits<void*, std::__ndk1::basic_string<char, std::__ndk1::char_traits<char>, std::__ndk1::allocator<char> > >, (std::__ndk1::__variant_detail::_Trait)1>, std::__ndk1::__variant_detail::__base<(std::__ndk1::__variant_detail::__traits<void*, std::__ndk1::basic_string<char, std::__ndk1::char_traits<char>, std::__ndk1::allocator<char> > >)1, std::__ndk1::__variant_detail::__traits, std::__ndk1::allocator<char> >&)
PUBLIC 40880 0 std::__ndk1::__hash_table<std::__ndk1::__hash_value_type<void*, bool>, std::__ndk1::__unordered_map_hasher<void*, std::__ndk1::__hash_value_type<void*, bool>, std::__ndk1::hash<void*>, std::__ndk1::equal_to<void*>, true>, std::__ndk1::__unordered_map_equal<void*, std::__ndk1::__hash_value_type<void*, bool>, std::__ndk1::equal_to<void*>, std::__ndk1::hash<void*>, true>, std::__ndk1::allocator<std::__ndk1::__hash_value_type<void*, bool> > >::__emplace_unique_key_args<void*, std::__ndk1::piecewise_construct_t const&, std::__ndk1::tuple<void* const&>, std::__ndk1::tuple<> >(void* const&, std::__ndk1::piecewise_construct_t const&, std::__ndk1::tuple<void* const&>, std::__ndk1::tuple<>)
PUBLIC 40d8c 0 __udivti3
PUBLIC 40d98 0 __udivmodti4
PUBLIC m 40fe4 0 __eqtf2
PUBLIC 41084 0 __unordtf2
PUBLIC 410bc 0 fmt::v11::detail::write_loc(fmt::v11::basic_appender<char>, fmt::v11::loc_value, fmt::v11::format_specs const&, fmt::v11::detail::locale_ref)
PUBLIC 41350 0 fmt::v11::format_facet<std::__ndk1::locale>::~format_facet()
PUBLIC 413cc 0 fmt::v11::report_error(char const*)
PUBLIC 4141c 0 fmt::v11::format_error::runtime_error(char const*)
PUBLIC 41448 0 fmt::v11::format_facet<std::__ndk1::locale>::do_put(fmt::v11::basic_appender<char>, fmt::v11::loc_value, fmt::v11::format_specs const&) const
PUBLIC 41c08 0 fmt::v11::detail::loc_writer<char>::~loc_writer()
PUBLIC 41c6c 0 fmt::v11::detail::vformat_to<char>(fmt::v11::detail::buffer<char>&, fmt::v11::basic_string_view<char>, fmt::v11::detail::vformat_args<char>::type, fmt::v11::detail::locale_ref)
PUBLIC 421dc 0 fmt::v11::detail::is_printable(unsigned int)
PUBLIC 42404 0 fmt::v11::detail::dragonbox::to_decimal<float>(float)
PUBLIC 426e0 0 fmt::v11::detail::dragonbox::to_decimal<double>(double)
PUBLIC 42c1c 0 fmt::v11::basic_memory_buffer<char, (unsigned long)500, std::__ndk1::allocator<char> >::grow(fmt::v11::detail::buffer<char>&, unsigned long)
PUBLIC 42c94 0 fmt::v11::format_facet<std::__ndk1::locale>::~format_facet()
PUBLIC 42d20 0 fmt::v11::format_error::~format_error()
PUBLIC 42d44 0 fmt::v11::detail::copy_noinline<char, char const*, fmt::v11::basic_appender<char> >(char const*, char const*, fmt::v11::basic_appender<char>)
PUBLIC 42e94 0 fmt::v11::detail::default_arg_formatter<char>::operator()<bool>(bool)
PUBLIC 42efc 0 fmt::v11::detail::default_arg_formatter<char>::operator()<char>(char)
PUBLIC 42f8c 0 fmt::v11::detail::default_arg_formatter<char>::operator()<float>(float)
PUBLIC 43078 0 fmt::v11::detail::default_arg_formatter<char>::operator()<double>(double)
PUBLIC 43164 0 fmt::v11::detail::default_arg_formatter<char>::operator()<char const*>(char const*)
PUBLIC 431ac 0 fmt::v11::detail::default_arg_formatter<char>::operator()<void const*>(void const*)
PUBLIC 43244 0 _ZN3fmt3v116detail5writeIcNS0_14basic_appenderIcEEiTnNSt6__ndk19enable_ifIXaaaasr11is_integralIT1_EE5valuentsr3std7is_sameIS7_bEE5valuentsr3std7is_sameIS7_T_EE5valueEiE4typeELi0EEET0_SB_S7_
PUBLIC 434a4 0 fmt::v11::detail::copy_noinline<char, char*, fmt::v11::basic_appender<char> >(char*, char*, fmt::v11::basic_appender<char>)
PUBLIC 435f4 0 _ZN3fmt3v116detail5writeIcNS0_14basic_appenderIcEEjTnNSt6__ndk19enable_ifIXaaaasr11is_integralIT1_EE5valuentsr3std7is_sameIS7_bEE5valuentsr3std7is_sameIS7_T_EE5valueEiE4typeELi0EEET0_SB_S7_
PUBLIC 437d4 0 _ZN3fmt3v116detail5writeIcNS0_14basic_appenderIcEExTnNSt6__ndk19enable_ifIXaaaasr11is_integralIT1_EE5valuentsr3std7is_sameIS7_bEE5valuentsr3std7is_sameIS7_T_EE5valueEiE4typeELi0EEET0_SB_S7_
PUBLIC 43a58 0 _ZN3fmt3v116detail5writeIcNS0_14basic_appenderIcEEyTnNSt6__ndk19enable_ifIXaaaasr11is_integralIT1_EE5valuentsr3std7is_sameIS7_bEE5valuentsr3std7is_sameIS7_T_EE5valueEiE4typeELi0EEET0_SB_S7_
PUBLIC 43c60 0 _ZN3fmt3v116detail5writeIcNS0_14basic_appenderIcEEnTnNSt6__ndk19enable_ifIXaaaasr11is_integralIT1_EE5valuentsr3std7is_sameIS7_bEE5valuentsr3std7is_sameIS7_T_EE5valueEiE4typeELi0EEET0_SB_S7_
PUBLIC 43fc0 0 _ZN3fmt3v116detail5writeIcNS0_14basic_appenderIcEEoTnNSt6__ndk19enable_ifIXaaaasr11is_integralIT1_EE5valuentsr3std7is_sameIS7_bEE5valuentsr3std7is_sameIS7_T_EE5valueEiE4typeELi0EEET0_SB_S7_
PUBLIC 442d4 0 _ZN3fmt3v116detail5writeIcNS0_14basic_appenderIcEEbTnNSt6__ndk19enable_ifIXsr3std7is_sameIT1_bEE5valueEiE4typeELi0EEET0_SA_S7_RKNS0_12format_specsENS1_10locale_refE
PUBLIC 44564 0 fmt::v11::detail::write_int_noinline<char, fmt::v11::basic_appender<char>, unsigned int>(fmt::v11::basic_appender<char>, fmt::v11::detail::write_int_arg<unsigned int>, fmt::v11::format_specs const&, fmt::v11::detail::locale_ref)
PUBLIC 45340 0 fmt::v11::detail::fill<char, fmt::v11::basic_appender<char> >(fmt::v11::basic_appender<char>, unsigned long, fmt::v11::detail::fill_t const&)
PUBLIC 45510 0 fmt::v11::detail::write_padded<char, (fmt::v11::align::type)1, fmt::v11::basic_appender<char>, fmt::v11::detail::write_char<char, fmt::v11::basic_appender<char> >(fmt::v11::basic_appender<char>, char, fmt::v11::format_specs const&)::{lambda(fmt::v11::basic_appender<char>&)#1}>(fmt::v11::basic_appender<char>, fmt::v11::format_specs const&, unsigned long, unsigned long, fmt::v11::detail::write_char<char, fmt::v11::basic_appender<char> >(fmt::v11::basic_appender<char>, char, fmt::v11::format_specs const&)::{lambda(fmt::v11::basic_appender<char>&)#1})
PUBLIC 4574c 0 fmt::v11::detail::write_escaped_cp<fmt::v11::basic_appender<char>, char>(fmt::v11::basic_appender<char>, fmt::v11::detail::find_escape_result<char> const&)
PUBLIC 45a58 0 fmt::v11::detail::write_codepoint<(unsigned long)2, char, fmt::v11::basic_appender<char> >(fmt::v11::basic_appender<char>, char, unsigned int)
PUBLIC 45bd0 0 fmt::v11::detail::write_codepoint<(unsigned long)8, char, fmt::v11::basic_appender<char> >(fmt::v11::basic_appender<char>, char, unsigned int)
PUBLIC 45d48 0 fmt::v11::detail::write_padded<char, (fmt::v11::align::type)1, fmt::v11::basic_appender<char>, fmt::v11::detail::write_nonfinite<char, fmt::v11::basic_appender<char> >(fmt::v11::basic_appender<char>, bool, fmt::v11::format_specs, fmt::v11::sign::type)::{lambda(fmt::v11::basic_appender<char>&)#1}>(fmt::v11::basic_appender<char>, fmt::v11::format_specs const&, unsigned long, unsigned long, fmt::v11::detail::write_nonfinite<char, fmt::v11::basic_appender<char> >(fmt::v11::basic_appender<char>, bool, fmt::v11::format_specs, fmt::v11::sign::type)::{lambda(fmt::v11::basic_appender<char>&)#1})
PUBLIC 45f88 0 fmt::v11::detail::do_write_float<char, fmt::v11::basic_appender<char>, fmt::v11::detail::dragonbox::decimal_fp<float>, fmt::v11::detail::digit_grouping<char> >(fmt::v11::basic_appender<char>, fmt::v11::detail::dragonbox::decimal_fp<float> const&, fmt::v11::format_specs const&, fmt::v11::detail::float_specs, fmt::v11::detail::locale_ref)
PUBLIC 46bfc 0 fmt::v11::detail::do_write_float<char, fmt::v11::basic_appender<char>, fmt::v11::detail::dragonbox::decimal_fp<float>, fmt::v11::detail::digit_grouping<char> >(fmt::v11::basic_appender<char>, fmt::v11::detail::dragonbox::decimal_fp<float> const&, fmt::v11::format_specs const&, fmt::v11::detail::float_specs, fmt::v11::detail::locale_ref)::{lambda(fmt::v11::basic_appender<char>(fmt::v11::basic_appender<char>))#1}::operator() const
PUBLIC 46d50 0 fmt::v11::detail::digit_grouping<char>::digit_grouping(fmt::v11::detail::locale_ref, bool)
PUBLIC 46fbc 0 fmt::v11::detail::digit_grouping<char>::~digit_grouping()
PUBLIC 47000 0 fmt::v11::detail::write_exponent<char, fmt::v11::basic_appender<char> >(int, fmt::v11::basic_appender<char>)
PUBLIC 471d0 0 _ZN3fmt3v116detail17write_significandIcjTnNSt6__ndk19enable_ifIXsr3std11is_integralIT0_EE5valueEiE4typeELi0EEEPT_S9_S5_iiS8_
PUBLIC 4734c 0 fmt::v11::detail::digit_grouping<char>::apply<fmt::v11::basic_appender<char>, char>(fmt::v11::basic_appender<char>, fmt::v11::basic_string_view<char>) const
PUBLIC 47704 0 fmt::v11::basic_memory_buffer<int, (unsigned long)500, std::__ndk1::allocator<int> >::grow(fmt::v11::detail::buffer<int>&, unsigned long)
PUBLIC 477a4 0 fmt::v11::detail::do_write_float<char, fmt::v11::basic_appender<char>, fmt::v11::detail::dragonbox::decimal_fp<double>, fmt::v11::detail::digit_grouping<char> >(fmt::v11::basic_appender<char>, fmt::v11::detail::dragonbox::decimal_fp<double> const&, fmt::v11::format_specs const&, fmt::v11::detail::float_specs, fmt::v11::detail::locale_ref)
PUBLIC 48458 0 fmt::v11::detail::do_write_float<char, fmt::v11::basic_appender<char>, fmt::v11::detail::dragonbox::decimal_fp<double>, fmt::v11::detail::digit_grouping<char> >(fmt::v11::basic_appender<char>, fmt::v11::detail::dragonbox::decimal_fp<double> const&, fmt::v11::format_specs const&, fmt::v11::detail::float_specs, fmt::v11::detail::locale_ref)::{lambda(fmt::v11::basic_appender<char>(fmt::v11::basic_appender<char>))#1}::operator() const
PUBLIC 485b0 0 _ZN3fmt3v116detail17write_significandIcmTnNSt6__ndk19enable_ifIXsr3std11is_integralIT0_EE5valueEiE4typeELi0EEEPT_S9_S5_iiS8_
PUBLIC 48740 0 fmt::v11::detail::write_float<char, fmt::v11::basic_appender<char>, long double>(fmt::v11::basic_appender<char>, long double, fmt::v11::format_specs, fmt::v11::detail::locale_ref)
PUBLIC 4923c 0 fmt::v11::detail::write_padded<char, (fmt::v11::align::type)2, fmt::v11::basic_appender<char>, fmt::v11::detail::write_bytes<char, (fmt::v11::align::type)2, fmt::v11::basic_appender<char> >(fmt::v11::basic_appender<char>, fmt::v11::basic_string_view<char>, fmt::v11::format_specs const&)::{lambda(fmt::v11::basic_appender<char>&)#1}>(fmt::v11::basic_appender<char>, fmt::v11::format_specs const&, unsigned long, unsigned long, fmt::v11::detail::write_bytes<char, (fmt::v11::align::type)2, fmt::v11::basic_appender<char> >(fmt::v11::basic_appender<char>, fmt::v11::basic_string_view<char>, fmt::v11::format_specs const&)::{lambda(fmt::v11::basic_appender<char>&)#1})
PUBLIC 49418 0 fmt::v11::detail::format_dragon(fmt::v11::detail::basic_fp<unsigned __int128>, unsigned int, int, fmt::v11::detail::buffer<char>&, int&)
PUBLIC 4a848 0 fmt::v11::detail::bigint::operator<<=(int)
PUBLIC 4a96c 0 fmt::v11::detail::bigint::assign_pow10(int)
PUBLIC 4b0c8 0 fmt::v11::detail::bigint::divmod_assign(fmt::v11::detail::bigint const&)
PUBLIC 4b3e8 0 fmt::v11::basic_memory_buffer<unsigned int, (unsigned long)32, std::__ndk1::allocator<unsigned int> >::grow(fmt::v11::detail::buffer<unsigned int>&, unsigned long)
PUBLIC 4b488 0 fmt::v11::detail::do_write_float<char, fmt::v11::basic_appender<char>, fmt::v11::detail::big_decimal_fp, fmt::v11::detail::digit_grouping<char> >(fmt::v11::basic_appender<char>, fmt::v11::detail::big_decimal_fp const&, fmt::v11::format_specs const&, fmt::v11::detail::float_specs, fmt::v11::detail::locale_ref)
PUBLIC 4c338 0 fmt::v11::detail::do_write_float<char, fmt::v11::basic_appender<char>, fmt::v11::detail::big_decimal_fp, fmt::v11::detail::digit_grouping<char> >(fmt::v11::basic_appender<char>, fmt::v11::detail::big_decimal_fp const&, fmt::v11::format_specs const&, fmt::v11::detail::float_specs, fmt::v11::detail::locale_ref)::{lambda(fmt::v11::basic_appender<char>(fmt::v11::basic_appender<char>))#1}::operator() const
PUBLIC 4c498 0 fmt::v11::detail::write_padded<char, (fmt::v11::align::type)2, fmt::v11::basic_appender<char>, fmt::v11::detail::write_ptr<char, fmt::v11::basic_appender<char>, unsigned long>(fmt::v11::basic_appender<char>, unsigned long, fmt::v11::format_specs const*)::{lambda(fmt::v11::basic_appender<char>&)#1}>(fmt::v11::basic_appender<char>, fmt::v11::format_specs const&, unsigned long, unsigned long, fmt::v11::detail::write_ptr<char, fmt::v11::basic_appender<char>, unsigned long>(fmt::v11::basic_appender<char>, unsigned long, fmt::v11::format_specs const*)::{lambda(fmt::v11::basic_appender<char>&)#1})
PUBLIC 4c6ac 0 fmt::v11::detail::parse_replacement_field<char, fmt::v11::detail::vformat_to<char>(fmt::v11::detail::buffer<char>&, fmt::v11::basic_string_view<char>, fmt::v11::detail::vformat_args<char>::type, fmt::v11::detail::locale_ref)::format_handler&>(char const*, char const*, fmt::v11::detail::vformat_to<char>(fmt::v11::detail::buffer<char>&, fmt::v11::basic_string_view<char>, fmt::v11::detail::vformat_args<char>::type, fmt::v11::detail::locale_ref)::format_handler&)
PUBLIC 4e348 0 fmt::v11::detail::parse_dynamic_spec<char>(char const*, char const*, int&, fmt::v11::detail::arg_ref<char>&, fmt::v11::basic_format_parse_context<char>&)
PUBLIC 4e5d8 0 fmt::v11::basic_format_args<fmt::v11::context>::get<char>(fmt::v11::basic_string_view<char>) const
PUBLIC 4e730 0 fmt::v11::detail::write_int_noinline<char, fmt::v11::basic_appender<char>, unsigned long>(fmt::v11::basic_appender<char>, fmt::v11::detail::write_int_arg<unsigned long>, fmt::v11::format_specs const&, fmt::v11::detail::locale_ref)
PUBLIC 4f584 0 fmt::v11::detail::write_int_noinline<char, fmt::v11::basic_appender<char>, unsigned __int128>(fmt::v11::basic_appender<char>, fmt::v11::detail::write_int_arg<unsigned __int128>, fmt::v11::format_specs const&, fmt::v11::detail::locale_ref)
PUBLIC 505ec 0 _ZN3fmt3v116detail15format_hexfloatIdTnNSt6__ndk19enable_ifIXntsr16is_double_doubleIT_EE5valueEiE4typeELi0EEEvS5_NS0_12format_specsERNS1_6bufferIcEE
PUBLIC 50b0c 0 fmt::v11::detail::format_float<double>(double, int, fmt::v11::detail::float_specs, fmt::v11::detail::buffer<char>&)
PUBLIC 514ac 0 fmt::v11::detail::write<char, fmt::v11::basic_appender<char> >(fmt::v11::basic_appender<char>, fmt::v11::basic_string_view<char>, fmt::v11::format_specs const&)
PUBLIC 52820 0 fmt::v11::detail::for_each_codepoint<fmt::v11::detail::compute_width(fmt::v11::basic_string_view<char>)::count_code_points>(fmt::v11::basic_string_view<char>, fmt::v11::detail::compute_width(fmt::v11::basic_string_view<char>)::count_code_points)::{lambda(char const*, char const*)#1}::operator()(char const*, char const*) const
PUBLIC 529d8 0 fmt::v11::detail::write_int<fmt::v11::basic_appender<char>, unsigned long, char>(fmt::v11::basic_appender<char>, unsigned long, unsigned int, fmt::v11::format_specs const&, fmt::v11::detail::digit_grouping<char> const&)
PUBLIC 52f54 0 fmt::v11::detail::write_int<fmt::v11::basic_appender<char>, unsigned __int128, char>(fmt::v11::basic_appender<char>, unsigned __int128, unsigned int, fmt::v11::format_specs const&, fmt::v11::detail::digit_grouping<char> const&)
PUBLIC 535d0 0 <.plt ELF section in raydeeux.variouscommenttweaks.android64.so>
STACK CFI INIT 205a0 10 .cfa: sp 0 +
STACK CFI INIT 205b0 8 .cfa: sp 0 +
STACK CFI INIT 205b8 8 .cfa: sp 0 +
STACK CFI INIT 205c0 14 .cfa: sp 0 +
STACK CFI INIT 205d4 1c .cfa: sp 0 +
STACK CFI INIT 205f0 10 .cfa: sp 0 +
STACK CFI INIT 20600 134 .cfa: sp 0 +
STACK CFI INIT 20734 84 .cfa: sp 0 +
STACK CFI INIT 207b8 f4 .cfa: sp 0 +
STACK CFI INIT 208ac a8 .cfa: sp 0 +
STACK CFI INIT 20954 7c .cfa: sp 0 +
STACK CFI INIT 209d0 14 .cfa: sp 0 +
STACK CFI INIT 209e4 40 .cfa: sp 0 +
STACK CFI INIT 20a24 28 .cfa: sp 0 +
STACK CFI INIT 20a4c 190 .cfa: sp 0 +
STACK CFI INIT 20bdc 2c8 .cfa: sp 0 +
STACK CFI INIT 20ea4 8 .cfa: sp 0 +
STACK CFI INIT 20eac 8 .cfa: sp 0 +
STACK CFI INIT 20eb4 44 .cfa: sp 0 +
STACK CFI INIT 20ef8 e8 .cfa: sp 0 +
STACK CFI INIT 20fe0 e8 .cfa: sp 0 +
STACK CFI INIT 210c8 14 .cfa: sp 0 +
STACK CFI INIT 210dc 10 .cfa: sp 0 +
STACK CFI INIT 210ec 10 .cfa: sp 0 +
STACK CFI INIT 210fc f0 .cfa: sp 0 +
STACK CFI INIT 211ec 44 .cfa: sp 0 +
STACK CFI INIT 21230 c .cfa: sp 0 +
STACK CFI INIT 2123c c .cfa: sp 0 +
STACK CFI INIT 21248 2c .cfa: sp 0 +
STACK CFI INIT 21274 280 .cfa: sp 0 +
STACK CFI INIT 214f4 c .cfa: sp 0 +
STACK CFI INIT 21500 120 .cfa: sp 0 +
STACK CFI INIT 21620 488 .cfa: sp 0 +
STACK CFI INIT 21aa8 c48 .cfa: sp 0 +
STACK CFI INIT 226f0 134 .cfa: sp 0 +
STACK CFI INIT 22824 210 .cfa: sp 0 +
STACK CFI INIT 22a34 38c .cfa: sp 0 +
STACK CFI INIT 22dc0 1c8 .cfa: sp 0 +
STACK CFI INIT 22f88 9bc .cfa: sp 0 +
STACK CFI INIT 23944 2d4 .cfa: sp 0 +
STACK CFI INIT 23c18 134 .cfa: sp 0 +
STACK CFI INIT 23d4c 120 .cfa: sp 0 +
STACK CFI INIT 23e6c 1c8 .cfa: sp 0 +
STACK CFI INIT 24034 168 .cfa: sp 0 +
STACK CFI INIT 2419c fc .cfa: sp 0 +
STACK CFI INIT 24298 30 .cfa: sp 0 +
STACK CFI INIT 24858 b4 .cfa: sp 0 +
STACK CFI 2485c .cfa: sp 80 +
STACK CFI 2486c .cfa: x29 48 + x19: .cfa -8 + ^ x20: .cfa -16 + ^ x21: .cfa -32 + ^ .ra: .cfa -40 + ^ x29: .cfa -48 + ^
STACK CFI 248f4 .cfa: sp 80 +
STACK CFI 24904 .cfa: sp 0 +
STACK CFI 24908 .cfa: x29 48 +
STACK CFI INIT 286f0 44 .cfa: sp 0 +
STACK CFI 286f4 .cfa: sp 32 +
STACK CFI 286fc .cfa: x29 32 + x19: .cfa -16 + ^ .ra: .cfa -24 + ^ x29: .cfa -32 + ^
STACK CFI 28718 .cfa: sp 32 +
STACK CFI 28720 .cfa: sp 0 +
STACK CFI 28724 .cfa: x29 32 +
STACK CFI 28728 .cfa: sp 32 +
STACK CFI 28730 .cfa: sp 0 +
STACK CFI INIT 28c14 8c .cfa: sp 0 +
STACK CFI 28c18 .cfa: sp 48 +
STACK CFI 28c24 .cfa: x29 48 + x19: .cfa -8 + ^ x20: .cfa -16 + ^ x21: .cfa -32 + ^ .ra: .cfa -40 + ^ x29: .cfa -48 + ^
STACK CFI 28c3c .cfa: sp 48 +
STACK CFI 28c48 .cfa: sp 0 +
STACK CFI 28c4c .cfa: x29 48 +
STACK CFI 28c90 .cfa: sp 48 +
STACK CFI 28c9c .cfa: sp 0 +
STACK CFI INIT 28ca0 7c .cfa: sp 0 +
STACK CFI 28ca4 .cfa: sp 48 +
STACK CFI 28cb0 .cfa: x29 48 + x19: .cfa -8 + ^ x20: .cfa -16 + ^ x21: .cfa -32 + ^ .ra: .cfa -40 + ^ x29: .cfa -48 + ^
STACK CFI 28cfc .cfa: sp 48 +
STACK CFI 28d08 .cfa: sp 0 +
STACK CFI 28d0c .cfa: sp 48 +
STACK CFI 28d18 .cfa: sp 0 +
STACK CFI INIT 28d1c 10 .cfa: sp 0 +
STACK CFI 28d20 .cfa: sp 16 +
STACK CFI 28d24 .cfa: x29 16 + .ra: .cfa -8 + ^ x29: .cfa -16 + ^
STACK CFI INIT 28d2c 14 .cfa: sp 0 +
STACK CFI 28d30 .cfa: sp 16 +
STACK CFI 28d34 .cfa: x29 16 + .ra: .cfa -8 + ^ x29: .cfa -16 + ^
STACK CFI INIT 28d90 30 .cfa: sp 0 +
STACK CFI 28d94 .cfa: sp 32 +
STACK CFI 28d9c .cfa: x29 32 + x19: .cfa -16 + ^ .ra: .cfa -24 + ^ x29: .cfa -32 + ^
STACK CFI 28db4 .cfa: sp 32 +
STACK CFI 28dbc .cfa: sp 0 +
STACK CFI INIT 28dc0 34 .cfa: sp 0 +
STACK CFI 28dc4 .cfa: sp 32 +
STACK CFI 28dcc .cfa: x29 32 + x19: .cfa -16 + ^ .ra: .cfa -24 + ^ x29: .cfa -32 + ^
STACK CFI INIT 28df4 8c .cfa: sp 0 +
STACK CFI 28df8 .cfa: sp 48 +
STACK CFI 28e04 .cfa: x29 48 + x19: .cfa -8 + ^ x20: .cfa -16 + ^ x21: .cfa -32 + ^ .ra: .cfa -40 + ^ x29: .cfa -48 + ^
STACK CFI 28e1c .cfa: sp 48 +
STACK CFI 28e28 .cfa: sp 0 +
STACK CFI 28e2c .cfa: x29 48 +
STACK CFI 28e70 .cfa: sp 48 +
STACK CFI 28e7c .cfa: sp 0 +
STACK CFI INIT 293dc 5c .cfa: sp 0 +
STACK CFI 293e0 .cfa: sp 32 +
STACK CFI 293e8 .cfa: x29 32 + x19: .cfa -16 + ^ .ra: .cfa -24 + ^ x29: .cfa -32 + ^
STACK CFI 29420 .cfa: sp 32 +
STACK CFI 29428 .cfa: sp 0 +
STACK CFI 2942c .cfa: sp 32 +
STACK CFI 29434 .cfa: sp 0 +
STACK CFI INIT 29438 44c .cfa: sp 0 +
STACK CFI INIT 29884 80 .cfa: sp 0 +
STACK CFI 29888 .cfa: sp 48 +
STACK CFI 29894 .cfa: x29 48 + x19: .cfa -8 + ^ x20: .cfa -16 + ^ x21: .cfa -24 + ^ x22: .cfa -32 + ^ .ra: .cfa -40 + ^ x29: .cfa -48 + ^
STACK CFI 298ac .cfa: sp 48 +
STACK CFI 298b8 .cfa: sp 0 +
STACK CFI 298bc .cfa: x29 48 +
STACK CFI 298ec .cfa: sp 48 +
STACK CFI 298f8 .cfa: sp 0 +
STACK CFI 298fc .cfa: x29 48 +
STACK CFI INIT 29904 1ac .cfa: sp 0 +
STACK CFI 29908 .cfa: sp 32 +
STACK CFI 29910 .cfa: x29 32 + x19: .cfa -8 + ^ x20: .cfa -16 + ^ .ra: .cfa -24 + ^ x29: .cfa -32 + ^
STACK CFI 29a00 .cfa: sp 32 +
STACK CFI 29a08 .cfa: sp 0 +
STACK CFI 29a0c .cfa: x29 32 +
STACK CFI INIT 29ab0 14 .cfa: sp 0 +
STACK CFI 29ab4 .cfa: sp 16 +
STACK CFI 29ab8 .cfa: x29 16 + .ra: .cfa -8 + ^ x29: .cfa -16 + ^
STACK CFI INIT 29ad0 30 .cfa: sp 0 +
STACK CFI INIT 29b00 98 .cfa: sp 0 +
STACK CFI INIT 29b98 59c .cfa: sp 0 +
STACK CFI INIT 2a134 8c .cfa: sp 0 +
STACK CFI INIT 2a1c0 30 .cfa: sp 0 +
STACK CFI INIT 2a1f0 50 .cfa: sp 0 +
STACK CFI 2a1f4 .cfa: sp 32 +
STACK CFI 2a1fc .cfa: x29 32 + x19: .cfa -8 + ^ x20: .cfa -16 + ^ .ra: .cfa -24 + ^ x29: .cfa -32 + ^
STACK CFI 2a234 .cfa: sp 32 +
STACK CFI 2a23c .cfa: sp 0 +
STACK CFI INIT 2a760 50 .cfa: sp 0 +
STACK CFI 2a764 .cfa: sp 32 +
STACK CFI 2a76c .cfa: x29 32 + x19: .cfa -8 + ^ x20: .cfa -16 + ^ .ra: .cfa -24 + ^ x29: .cfa -32 + ^
STACK CFI 2a7a4 .cfa: sp 32 +
STACK CFI 2a7ac .cfa: sp 0 +
STACK CFI INIT 2d068 50 .cfa: sp 0 +
STACK CFI 2d06c .cfa: sp 32 +
STACK CFI 2d074 .cfa: x29 32 + x19: .cfa -8 + ^ x20: .cfa -16 + ^ .ra: .cfa -24 + ^ x29: .cfa -32 + ^
STACK CFI 2d0ac .cfa: sp 32 +
STACK CFI 2d0b4 .cfa: sp 0 +
STACK CFI INIT 2d0b8 e8 .cfa: sp 0 +
STACK CFI 2d0bc .cfa: sp 32 +
STACK CFI 2d0c4 .cfa: x29 32 + x19: .cfa -8 + ^ x20: .cfa -16 + ^ .ra: .cfa -24 + ^ x29: .cfa -32 + ^
STACK CFI 2d104 .cfa: sp 32 +
STACK CFI 2d10c .cfa: sp 0 +
STACK CFI 2d110 .cfa: x29 32 +
STACK CFI 2d14c .cfa: sp 32 +
STACK CFI 2d154 .cfa: sp 0 +
STACK CFI 2d158 .cfa: x29 32 +
STACK CFI 2d178 .cfa: sp 32 +
STACK CFI 2d180 .cfa: sp 0 +
STACK CFI 2d184 .cfa: x29 32 +
STACK CFI 2d194 .cfa: sp 32 +
STACK CFI 2d19c .cfa: sp 0 +
STACK CFI INIT 2d1a0 ac .cfa: sp 0 +
STACK CFI 2d1a4 .cfa: sp 64 +
STACK CFI 2d1b4 .cfa: x29 64 + x19: .cfa -8 + ^ x20: .cfa -16 + ^ x21: .cfa -24 + ^ x22: .cfa -32 + ^ x23: .cfa -48 + ^ .ra: .cfa -56 + ^ x29: .cfa -64 + ^
STACK CFI 2d230 .cfa: sp 64 +
STACK CFI 2d240 .cfa: sp 0 +
STACK CFI 2d244 .cfa: x29 64 +
STACK CFI INIT 2d24c 110 .cfa: sp 0 +
STACK CFI 2d250 .cfa: sp 64 +
STACK CFI 2d260 .cfa: x29 64 + x19: .cfa -8 + ^ x20: .cfa -16 + ^ x21: .cfa -24 + ^ x22: .cfa -32 + ^ x23: .cfa -40 + ^ x24: .cfa -48 + ^ .ra: .cfa -56 + ^ x29: .cfa -64 + ^
STACK CFI 2d340 .cfa: sp 64 +
STACK CFI 2d350 .cfa: sp 0 +
STACK CFI 2d354 .cfa: x29 64 +
STACK CFI INIT 2d6dc 4 .cfa: sp 0 +
STACK CFI INIT 2d6e0 14 .cfa: sp 0 +
STACK CFI INIT 2d6f4 14 .cfa: sp 0 +
STACK CFI 2d6f8 .cfa: sp 16 +
STACK CFI 2d6fc .cfa: x29 16 + .ra: .cfa -8 + ^ x29: .cfa -16 + ^
STACK CFI INIT 2d708 4 .cfa: sp 0 +
STACK CFI INIT 2d70c 14 .cfa: sp 0 +
STACK CFI INIT 2d854 104 .cfa: sp 0 +
STACK CFI 2d858 .cfa: sp 64 +
STACK CFI 2d868 .cfa: x29 64 + x19: .cfa -8 + ^ x20: .cfa -16 + ^ x21: .cfa -24 + ^ x22: .cfa -32 + ^ x23: .cfa -48 + ^ .ra: .cfa -56 + ^ x29: .cfa -64 + ^
STACK CFI 2d8c4 .cfa: sp 64 +
STACK CFI 2d8d4 .cfa: sp 0 +
STACK CFI 2d8d8 .cfa: x29 64 +
STACK CFI 2d8f4 .cfa: sp 64 +
STACK CFI 2d904 .cfa: sp 0 +
STACK CFI 2d908 .cfa: x29 64 +
STACK CFI 2d944 .cfa: sp 64 +
STACK CFI 2d954 .cfa: sp 0 +
STACK CFI INIT 2dae8 50 .cfa: sp 0 +
STACK CFI 2daec .cfa: sp 32 +
STACK CFI 2daf4 .cfa: x29 32 + x19: .cfa -16 + ^ .ra: .cfa -24 + ^ x29: .cfa -32 + ^
STACK CFI 2db0c .cfa: sp 32 +
STACK CFI 2db14 .cfa: sp 0 +
STACK CFI 2db18 .cfa: x29 32 +
STACK CFI 2db2c .cfa: sp 32 +
STACK CFI 2db34 .cfa: sp 0 +
STACK CFI INIT 2ea34 50 .cfa: sp 0 +
STACK CFI 2ea38 .cfa: sp 32 +
STACK CFI 2ea40 .cfa: x29 32 + x19: .cfa -16 + ^ .ra: .cfa -24 + ^ x29: .cfa -32 + ^
STACK CFI 2ea58 .cfa: sp 32 +
STACK CFI 2ea60 .cfa: sp 0 +
STACK CFI 2ea64 .cfa: x29 32 +
STACK CFI 2ea78 .cfa: sp 32 +
STACK CFI 2ea80 .cfa: sp 0 +
STACK CFI INIT 2ea84 50 .cfa: sp 0 +
STACK CFI 2ea88 .cfa: sp 32 +
STACK CFI 2ea90 .cfa: x29 32 + x19: .cfa -16 + ^ .ra: .cfa -24 + ^ x29: .cfa -32 + ^
STACK CFI 2eaa8 .cfa: sp 32 +
STACK CFI 2eab0 .cfa: sp 0 +
STACK CFI 2eab4 .cfa: x29 32 +
STACK CFI 2eac8 .cfa: sp 32 +
STACK CFI 2ead0 .cfa: sp 0 +
STACK CFI INIT 2ead4 24 .cfa: sp 0 +
STACK CFI 2ead8 .cfa: sp 32 +
STACK CFI 2eae0 .cfa: x29 32 + x19: .cfa -16 + ^ .ra: .cfa -24 + ^ x29: .cfa -32 + ^
STACK CFI 2eaec .cfa: sp 32 +
STACK CFI 2eaf4 .cfa: sp 0 +
STACK CFI INIT 2eaf8 8 .cfa: sp 0 +
STACK CFI INIT 2eb00 8 .cfa: sp 0 +
STACK CFI INIT 2eb08 8 .cfa: sp 0 +
STACK CFI INIT 2eb10 4 .cfa: sp 0 +
STACK CFI INIT 2eb14 8 .cfa: sp 0 +
STACK CFI INIT 2eb1c bc .cfa: sp 0 +
STACK CFI 2eb20 .cfa: sp 32 +
STACK CFI 2eb28 .cfa: x29 32 + x19: .cfa -8 + ^ x20: .cfa -16 + ^ .ra: .cfa -24 + ^ x29: .cfa -32 + ^
STACK CFI 2eb64 .cfa: sp 32 +
STACK CFI 2eb6c .cfa: sp 0 +
STACK CFI 2eb70 .cfa: x29 32 +
STACK CFI 2ebcc .cfa: sp 32 +
STACK CFI 2ebd4 .cfa: sp 0 +
STACK CFI INIT 2ebd8 cc .cfa: sp 0 +
STACK CFI 2ebdc .cfa: sp 32 +
STACK CFI 2ebe4 .cfa: x29 32 + x19: .cfa -8 + ^ x20: .cfa -16 + ^ .ra: .cfa -24 + ^ x29: .cfa -32 + ^
STACK CFI 2ec28 .cfa: sp 32 +
STACK CFI 2ec30 .cfa: sp 0 +
STACK CFI 2ec34 .cfa: x29 32 +
STACK CFI 2ec98 .cfa: sp 32 +
STACK CFI 2eca0 .cfa: sp 0 +
STACK CFI INIT 2eca4 4 .cfa: sp 0 +
STACK CFI INIT 2eca8 4 .cfa: sp 0 +
STACK CFI INIT 2ecac 8 .cfa: sp 0 +
STACK CFI INIT 2ecb4 8 .cfa: sp 0 +
STACK CFI INIT 2f180 34 .cfa: sp 0 +
STACK CFI 2f184 .cfa: sp 16 +
STACK CFI 2f188 .cfa: x29 16 + .ra: .cfa -8 + ^ x29: .cfa -16 + ^
STACK CFI INIT 2f1b4 34 .cfa: sp 0 +
STACK CFI 2f1b8 .cfa: sp 16 +
STACK CFI 2f1bc .cfa: x29 16 + .ra: .cfa -8 + ^ x29: .cfa -16 + ^
STACK CFI INIT 30dac c .cfa: sp 0 +
STACK CFI INIT 30db8 3c .cfa: sp 0 +
STACK CFI 30dbc .cfa: sp 32 +
STACK CFI 30dc4 .cfa: x29 32 + x19: .cfa -16 + ^ .ra: .cfa -24 + ^ x29: .cfa -32 + ^
STACK CFI 30dd0 .cfa: sp 32 +
STACK CFI 30dd8 .cfa: sp 0 +
STACK CFI 30ddc .cfa: x29 32 +
STACK CFI 30de8 .cfa: sp 32 +
STACK CFI 30df0 .cfa: sp 0 +
STACK CFI INIT 311d4 44 .cfa: sp 0 +
STACK CFI 311d8 .cfa: sp 32 +
STACK CFI 311e0 .cfa: x29 32 + x19: .cfa -16 + ^ .ra: .cfa -24 + ^ x29: .cfa -32 + ^
STACK CFI 311fc .cfa: sp 32 +
STACK CFI 31204 .cfa: sp 0 +
STACK CFI 31208 .cfa: x29 32 +
STACK CFI 3120c .cfa: sp 32 +
STACK CFI 31214 .cfa: sp 0 +
STACK CFI INIT 31344 80 .cfa: sp 0 +
STACK CFI 31348 .cfa: sp 48 +
STACK CFI 31354 .cfa: x29 48 + x19: .cfa -8 + ^ x20: .cfa -16 + ^ x21: .cfa -32 + ^ .ra: .cfa -40 + ^ x29: .cfa -48 + ^
STACK CFI 313b4 .cfa: sp 48 +
STACK CFI 313c0 .cfa: sp 0 +
STACK CFI INIT 313c4 24 .cfa: sp 0 +
STACK CFI 313c8 .cfa: sp 32 +
STACK CFI 313d0 .cfa: x29 32 + x19: .cfa -16 + ^ .ra: .cfa -24 + ^ x29: .cfa -32 + ^
STACK CFI 313dc .cfa: sp 32 +
STACK CFI 313e4 .cfa: sp 0 +
STACK CFI INIT 313e8 4 .cfa: sp 0 +
STACK CFI INIT 313ec 8 .cfa: sp 0 +
STACK CFI INIT 313f4 8 .cfa: sp 0 +
STACK CFI INIT 313fc 28 .cfa: sp 0 +
STACK CFI 31400 .cfa: sp 32 +
STACK CFI 31408 .cfa: x29 32 + x19: .cfa -16 + ^ .ra: .cfa -24 + ^ x29: .cfa -32 + ^
STACK CFI 31418 .cfa: sp 32 +
STACK CFI 31420 .cfa: sp 0 +
STACK CFI INIT 31424 4 .cfa: sp 0 +
STACK CFI INIT 31428 4 .cfa: sp 0 +
STACK CFI INIT 3142c 4 .cfa: sp 0 +
STACK CFI INIT 31430 4 .cfa: sp 0 +
STACK CFI INIT 31434 4 .cfa: sp 0 +
STACK CFI INIT 31438 8 .cfa: sp 0 +
STACK CFI INIT 31b14 1c .cfa: sp 0 +
STACK CFI INIT 31f30 50 .cfa: sp 0 +
STACK CFI 31f34 .cfa: sp 32 +
STACK CFI 31f3c .cfa: x29 32 + x19: .cfa -16 + ^ .ra: .cfa -24 + ^ x29: .cfa -32 + ^
STACK CFI 31f54 .cfa: sp 32 +
STACK CFI 31f5c .cfa: sp 0 +
STACK CFI 31f60 .cfa: x29 32 +
STACK CFI 31f74 .cfa: sp 32 +
STACK CFI 31f7c .cfa: sp 0 +
STACK CFI INIT 31ff4 4 .cfa: sp 0 +
STACK CFI INIT 3214c 34 .cfa: sp 0 +
STACK CFI 32150 .cfa: sp 16 +
STACK CFI 32154 .cfa: x29 16 + .ra: .cfa -8 + ^ x29: .cfa -16 + ^
STACK CFI INIT 32180 24 .cfa: sp 0 +
STACK CFI 32184 .cfa: sp 32 +
STACK CFI 3218c .cfa: x29 32 + x19: .cfa -16 + ^ .ra: .cfa -24 + ^ x29: .cfa -32 + ^
STACK CFI 32198 .cfa: sp 32 +
STACK CFI 321a0 .cfa: sp 0 +
STACK CFI INIT 3231c 148 .cfa: sp 0 +
STACK CFI 32320 .cfa: sp 48 +
STACK CFI 3232c .cfa: x29 48 + x19: .cfa -8 + ^ x20: .cfa -16 + ^ x21: .cfa -32 + ^ .ra: .cfa -40 + ^ x29: .cfa -48 + ^
STACK CFI 32454 .cfa: sp 48 +
STACK CFI 32460 .cfa: sp 0 +
STACK CFI INIT 3268c 68 .cfa: sp 0 +
STACK CFI 32690 .cfa: sp 32 +
STACK CFI 32698 .cfa: x29 32 + x19: .cfa -8 + ^ x20: .cfa -16 + ^ .ra: .cfa -24 + ^ x29: .cfa -32 + ^
STACK CFI 326b0 .cfa: sp 32 +
STACK CFI 326b8 .cfa: sp 0 +
STACK CFI 326bc .cfa: x29 32 +
STACK CFI 326e8 .cfa: sp 32 +
STACK CFI 326f0 .cfa: sp 0 +
STACK CFI INIT 326f4 4 .cfa: sp 0 +
STACK CFI INIT 326f8 14 .cfa: sp 0 +
STACK CFI INIT 3270c 120 .cfa: sp 0 +
STACK CFI 32710 .cfa: sp 64 +
STACK CFI 32720 .cfa: x29 64 + x19: .cfa -8 + ^ x20: .cfa -16 + ^ x21: .cfa -24 + ^ x22: .cfa -32 + ^ x23: .cfa -40 + ^ x24: .cfa -48 + ^ .ra: .cfa -56 + ^ x29: .cfa -64 + ^
STACK CFI 32818 .cfa: sp 64 +
STACK CFI 32828 .cfa: sp 0 +
STACK CFI INIT 3282c d4 .cfa: sp 0 +
STACK CFI 32830 .cfa: sp 48 +
STACK CFI 3283c .cfa: x29 48 + x19: .cfa -8 + ^ x20: .cfa -16 + ^ x21: .cfa -32 + ^ .ra: .cfa -40 + ^ x29: .cfa -48 + ^
STACK CFI 328cc .cfa: sp 48 +
STACK CFI 328d8 .cfa: sp 0 +
STACK CFI 328dc .cfa: x29 48 +
STACK CFI INIT 32900 3c8 .cfa: sp 0 +
STACK CFI INIT 32cc8 8c .cfa: sp 0 +
STACK CFI 32cd0 .cfa: sp 32 +
STACK CFI 32cd8 .cfa: x29 32 + x19: .cfa -8 + ^ x20: .cfa -16 + ^ .ra: .cfa -24 + ^ x29: .cfa -32 + ^
STACK CFI 32d20 .cfa: sp 32 +
STACK CFI 32d28 .cfa: sp 0 +
STACK CFI 32d30 .cfa: x29 32 +
STACK CFI INIT 32e9c 50 .cfa: sp 0 +
STACK CFI 32ea0 .cfa: sp 32 +
STACK CFI 32ea8 .cfa: x29 32 + x19: .cfa -16 + ^ .ra: .cfa -24 + ^ x29: .cfa -32 + ^
STACK CFI 32ec0 .cfa: sp 32 +
STACK CFI 32ec8 .cfa: sp 0 +
STACK CFI 32ecc .cfa: x29 32 +
STACK CFI 32ee0 .cfa: sp 32 +
STACK CFI 32ee8 .cfa: sp 0 +
STACK CFI INIT 32eec 64 .cfa: sp 0 +
STACK CFI 32ef0 .cfa: sp 32 +
STACK CFI 32ef8 .cfa: x29 32 + x19: .cfa -16 + ^ .ra: .cfa -24 + ^ x29: .cfa -32 + ^
STACK CFI 32f24 .cfa: sp 32 +
STACK CFI 32f2c .cfa: sp 0 +
STACK CFI 32f30 .cfa: x29 32 +
STACK CFI 32f44 .cfa: sp 32 +
STACK CFI 32f4c .cfa: sp 0 +
STACK CFI INIT 32f50 14 .cfa: sp 0 +
STACK CFI 32f54 .cfa: sp 16 +
STACK CFI 32f58 .cfa: x29 16 + .ra: .cfa -8 + ^ x29: .cfa -16 + ^
STACK CFI INIT 32f64 178 .cfa: sp 0 +
STACK CFI 32f68 .cfa: sp 80 +
STACK CFI 32f7c .cfa: x29 80 + x19: .cfa -8 + ^ x20: .cfa -16 + ^ x21: .cfa -24 + ^ x22: .cfa -32 + ^ x23: .cfa -40 + ^ x24: .cfa -48 + ^ x25: .cfa -56 + ^ x26: .cfa -64 + ^ .ra: .cfa -72 + ^ x29: .cfa -80 + ^
STACK CFI 330c4 .cfa: sp 80 +
STACK CFI 330d8 .cfa: sp 0 +
STACK CFI INIT 330dc 1b0 .cfa: sp 0 +
STACK CFI INIT 3370c 1c .cfa: sp 0 +
STACK CFI INIT 33b54 4 .cfa: sp 0 +
STACK CFI INIT 348b8 1c .cfa: sp 0 +
STACK CFI INIT 34c5c 4 .cfa: sp 0 +
STACK CFI INIT 34c60 9c .cfa: sp 0 +
STACK CFI 34c64 .cfa: sp 48 +
STACK CFI 34c70 .cfa: x29 48 + x19: .cfa -8 + ^ x20: .cfa -16 + ^ x21: .cfa -24 + ^ x22: .cfa -32 + ^ .ra: .cfa -40 + ^ x29: .cfa -48 + ^
STACK CFI 34ca4 .cfa: sp 48 +
STACK CFI 34cb0 .cfa: sp 0 +
STACK CFI 34cb4 .cfa: x29 48 +
STACK CFI 34ce4 .cfa: sp 48 +
STACK CFI 34cf0 .cfa: sp 0 +
STACK CFI 34cf4 .cfa: x29 48 +
STACK CFI INIT 34cfc 7c .cfa: sp 0 +
STACK CFI 34d00 .cfa: sp 32 +
STACK CFI 34d08 .cfa: x29 32 + x19: .cfa -8 + ^ x20: .cfa -16 + ^ .ra: .cfa -24 + ^ x29: .cfa -32 + ^
STACK CFI 34d60 .cfa: sp 32 +
STACK CFI 34d68 .cfa: sp 0 +
STACK CFI 34d6c .cfa: sp 32 +
STACK CFI 34d74 .cfa: sp 0 +
STACK CFI INIT 34ee0 4 .cfa: sp 0 +
STACK CFI INIT 393b4 1c .cfa: sp 0 +
STACK CFI INIT 393d0 44 .cfa: sp 0 +
STACK CFI 393d4 .cfa: sp 32 +
STACK CFI 393dc .cfa: x29 32 + x19: .cfa -16 + ^ .ra: .cfa -24 + ^ x29: .cfa -32 + ^
STACK CFI 393f8 .cfa: sp 32 +
STACK CFI 39400 .cfa: sp 0 +
STACK CFI 39404 .cfa: x29 32 +
STACK CFI 39408 .cfa: sp 32 +
STACK CFI 39410 .cfa: sp 0 +
STACK CFI INIT 39414 14 .cfa: sp 0 +
STACK CFI 39418 .cfa: sp 16 +
STACK CFI 3941c .cfa: x29 16 + .ra: .cfa -8 + ^ x29: .cfa -16 + ^
STACK CFI INIT 39428 14 .cfa: sp 0 +
STACK CFI 3942c .cfa: sp 16 +
STACK CFI 39430 .cfa: x29 16 + .ra: .cfa -8 + ^ x29: .cfa -16 + ^
STACK CFI INIT 3943c c .cfa: sp 0 +
STACK CFI 39440 .cfa: sp 16 +
STACK CFI 39444 .cfa: x29 16 + .ra: .cfa -8 + ^ x29: .cfa -16 + ^
STACK CFI INIT 39498 30 .cfa: sp 0 +
STACK CFI 3949c .cfa: sp 32 +
STACK CFI 394a4 .cfa: x29 32 + x19: .cfa -16 + ^ .ra: .cfa -24 + ^ x29: .cfa -32 + ^
STACK CFI 394bc .cfa: sp 32 +
STACK CFI 394c4 .cfa: sp 0 +
STACK CFI INIT 394c8 c .cfa: sp 0 +
STACK CFI 394cc .cfa: sp 16 +
STACK CFI 394d0 .cfa: x29 16 + .ra: .cfa -8 + ^ x29: .cfa -16 + ^
STACK CFI INIT 394d4 4 .cfa: sp 0 +
STACK CFI INIT 394d8 4 .cfa: sp 0 +
STACK CFI INIT 394dc 38 .cfa: sp 0 +
STACK CFI 394e0 .cfa: sp 32 +
STACK CFI 394e8 .cfa: x29 32 + x19: .cfa -16 + ^ .ra: .cfa -24 + ^ x29: .cfa -32 + ^
STACK CFI 39508 .cfa: sp 32 +
STACK CFI 39510 .cfa: sp 0 +
STACK CFI INIT 39514 18 .cfa: sp 0 +
STACK CFI INIT 3952c 4 .cfa: sp 0 +
STACK CFI INIT 39530 4 .cfa: sp 0 +
STACK CFI INIT 39534 10 .cfa: sp 0 +
STACK CFI INIT 39544 1c .cfa: sp 0 +
STACK CFI INIT 39560 c .cfa: sp 0 +
STACK CFI INIT 3956c 128 .cfa: sp 0 +
STACK CFI 39570 .cfa: sp 80 +
STACK CFI 39584 .cfa: x29 80 + x19: .cfa -8 + ^ x20: .cfa -16 + ^ x21: .cfa -24 + ^ x22: .cfa -32 + ^ x23: .cfa -40 + ^ x24: .cfa -48 + ^ x25: .cfa -64 + ^ .ra: .cfa -72 + ^ x29: .cfa -80 + ^
STACK CFI 39674 .cfa: sp 80 +
STACK CFI 39688 .cfa: sp 0 +
STACK CFI 3968c .cfa: x29 80 +
STACK CFI INIT 39e28 c8 .cfa: sp 0 +
STACK CFI 39e2c .cfa: sp 48 +
STACK CFI 39e38 .cfa: x29 48 + x19: .cfa -8 + ^ x20: .cfa -16 + ^ x21: .cfa -32 + ^ .ra: .cfa -40 + ^ x29: .cfa -48 + ^
STACK CFI 39ecc .cfa: sp 48 +
STACK CFI 39ed8 .cfa: sp 0 +
STACK CFI 39edc .cfa: x29 48 +
STACK CFI 39ee0 .cfa: sp 48 +
STACK CFI 39eec .cfa: sp 0 +
STACK CFI INIT 3a370 1c .cfa: sp 0 +
STACK CFI INIT 3a714 4 .cfa: sp 0 +
STACK CFI INIT 3b230 1c .cfa: sp 0 +
STACK CFI INIT 3b644 10 .cfa: sp 0 +
STACK CFI INIT 3b654 30 .cfa: sp 0 +
STACK CFI 3b658 .cfa: sp 32 +
STACK CFI 3b660 .cfa: x29 32 + x19: .cfa -16 + ^ .ra: .cfa -24 + ^ x29: .cfa -32 + ^
STACK CFI 3b678 .cfa: sp 32 +
STACK CFI 3b680 .cfa: sp 0 +
STACK CFI INIT 3b684 c .cfa: sp 0 +
STACK CFI INIT 3b690 4 .cfa: sp 0 +
STACK CFI INIT 3b694 4 .cfa: sp 0 +
STACK CFI INIT 3b698 4 .cfa: sp 0 +
STACK CFI INIT 3b69c 34 .cfa: sp 0 +
STACK CFI 3b6a0 .cfa: sp 32 +
STACK CFI 3b6a8 .cfa: x29 32 + x19: .cfa -16 + ^ .ra: .cfa -24 + ^ x29: .cfa -32 + ^
STACK CFI 3b6c4 .cfa: sp 32 +
STACK CFI 3b6cc .cfa: sp 0 +
STACK CFI INIT 3b6d0 14 .cfa: sp 0 +
STACK CFI INIT 3b6e4 4 .cfa: sp 0 +
STACK CFI INIT 3b6e8 4 .cfa: sp 0 +
STACK CFI INIT 3b6ec 14 .cfa: sp 0 +
STACK CFI INIT 3b700 1c .cfa: sp 0 +
STACK CFI INIT 3b71c c .cfa: sp 0 +
STACK CFI INIT 3b820 50 .cfa: sp 0 +
STACK CFI 3b824 .cfa: sp 32 +
STACK CFI 3b82c .cfa: x29 32 + x19: .cfa -16 + ^ .ra: .cfa -24 + ^ x29: .cfa -32 + ^
STACK CFI 3b844 .cfa: sp 32 +
STACK CFI 3b84c .cfa: sp 0 +
STACK CFI 3b850 .cfa: x29 32 +
STACK CFI 3b864 .cfa: sp 32 +
STACK CFI 3b86c .cfa: sp 0 +
STACK CFI INIT 3b870 4 .cfa: sp 0 +
STACK CFI INIT 3b874 38 .cfa: sp 0 +
STACK CFI 3b878 .cfa: sp 32 +
STACK CFI 3b880 .cfa: x29 32 + x19: .cfa -16 + ^ .ra: .cfa -24 + ^ x29: .cfa -32 + ^
STACK CFI 3b8a0 .cfa: sp 32 +
STACK CFI 3b8a8 .cfa: sp 0 +
STACK CFI INIT 3b8ac 18 .cfa: sp 0 +
STACK CFI INIT 3b8c4 4 .cfa: sp 0 +
STACK CFI INIT 3b8c8 4 .cfa: sp 0 +
STACK CFI INIT 3be08 1c .cfa: sp 0 +
STACK CFI INIT 3be24 c .cfa: sp 0 +
STACK CFI INIT 3be30 4 .cfa: sp 0 +
STACK CFI INIT 3bfa8 9c .cfa: sp 0 +
STACK CFI 3bfac .cfa: sp 32 +
STACK CFI 3bfb4 .cfa: x29 32 + x19: .cfa -8 + ^ x20: .cfa -16 + ^ .ra: .cfa -24 + ^ x29: .cfa -32 + ^
STACK CFI 3c038 .cfa: sp 32 +
STACK CFI 3c040 .cfa: sp 0 +
STACK CFI INIT 3c044 a4 .cfa: sp 0 +
STACK CFI 3c048 .cfa: sp 32 +
STACK CFI 3c050 .cfa: x29 32 + x19: .cfa -8 + ^ x20: .cfa -16 + ^ .ra: .cfa -24 + ^ x29: .cfa -32 + ^
STACK CFI 3c0dc .cfa: sp 32 +
STACK CFI 3c0e4 .cfa: sp 0 +
STACK CFI INIT 3c0e8 4 .cfa: sp 0 +
STACK CFI INIT 3c0ec 4 .cfa: sp 0 +
STACK CFI INIT 3c0f0 38 .cfa: sp 0 +
STACK CFI 3c0f4 .cfa: sp 32 +
STACK CFI 3c0fc .cfa: x29 32 + x19: .cfa -16 + ^ .ra: .cfa -24 + ^ x29: .cfa -32 + ^
STACK CFI 3c11c .cfa: sp 32 +
STACK CFI 3c124 .cfa: sp 0 +
STACK CFI INIT 3c128 18 .cfa: sp 0 +
STACK CFI INIT 3c140 4 .cfa: sp 0 +
STACK CFI INIT 3c144 4 .cfa: sp 0 +
STACK CFI INIT 3c684 1c .cfa: sp 0 +
STACK CFI INIT 3c6a0 c .cfa: sp 0 +
STACK CFI INIT 3c6ac 4 .cfa: sp 0 +
STACK CFI INIT 3c824 5c .cfa: sp 0 +
STACK CFI 3c828 .cfa: sp 32 +
STACK CFI 3c830 .cfa: x29 32 + x19: .cfa -16 + ^ .ra: .cfa -24 + ^ x29: .cfa -32 + ^
STACK CFI 3c874 .cfa: sp 32 +
STACK CFI 3c87c .cfa: sp 0 +
STACK CFI INIT 3c880 64 .cfa: sp 0 +
STACK CFI 3c884 .cfa: sp 32 +
STACK CFI 3c88c .cfa: x29 32 + x19: .cfa -16 + ^ .ra: .cfa -24 + ^ x29: .cfa -32 + ^
STACK CFI 3c8d8 .cfa: sp 32 +
STACK CFI 3c8e0 .cfa: sp 0 +
STACK CFI INIT 3c8e4 4 .cfa: sp 0 +
STACK CFI INIT 3c8e8 4 .cfa: sp 0 +
STACK CFI INIT 3c8ec 34 .cfa: sp 0 +
STACK CFI 3c8f0 .cfa: sp 32 +
STACK CFI 3c8f8 .cfa: x29 32 + x19: .cfa -16 + ^ .ra: .cfa -24 + ^ x29: .cfa -32 + ^
STACK CFI 3c914 .cfa: sp 32 +
STACK CFI 3c91c .cfa: sp 0 +
STACK CFI INIT 3c920 14 .cfa: sp 0 +
STACK CFI INIT 3c934 4 .cfa: sp 0 +
STACK CFI INIT 3c938 4 .cfa: sp 0 +
STACK CFI INIT 3c93c 10 .cfa: sp 0 +
STACK CFI INIT 3c94c 1c .cfa: sp 0 +
STACK CFI INIT 3c968 c .cfa: sp 0 +
STACK CFI INIT 3cc7c 4 .cfa: sp 0 +
STACK CFI INIT 3ce88 9c .cfa: sp 0 +
STACK CFI INIT 3d050 3c .cfa: sp 0 +
STACK CFI 3d054 .cfa: sp 32 +
STACK CFI 3d05c .cfa: x29 32 + x19: .cfa -16 + ^ .ra: .cfa -24 + ^ x29: .cfa -32 + ^
STACK CFI 3d068 .cfa: sp 32 +
STACK CFI 3d070 .cfa: sp 0 +
STACK CFI 3d074 .cfa: x29 32 +
STACK CFI 3d080 .cfa: sp 32 +
STACK CFI 3d088 .cfa: sp 0 +
STACK CFI INIT 3d08c 4c .cfa: sp 0 +
STACK CFI 3d090 .cfa: sp 32 +
STACK CFI 3d098 .cfa: x29 32 + x19: .cfa -8 + ^ x20: .cfa -16 + ^ .ra: .cfa -24 + ^ x29: .cfa -32 + ^
STACK CFI 3d0c0 .cfa: sp 32 +
STACK CFI 3d0c8 .cfa: sp 0 +
STACK CFI 3d0cc .cfa: sp 32 +
STACK CFI 3d0d4 .cfa: sp 0 +
STACK CFI INIT 3d2f8 64 .cfa: sp 0 +
STACK CFI 3d2fc .cfa: sp 32 +
STACK CFI 3d304 .cfa: x29 32 + x19: .cfa -16 + ^ .ra: .cfa -24 + ^ x29: .cfa -32 + ^
STACK CFI 3d330 .cfa: sp 32 +
STACK CFI 3d338 .cfa: sp 0 +
STACK CFI 3d33c .cfa: x29 32 +
STACK CFI 3d350 .cfa: sp 32 +
STACK CFI 3d358 .cfa: sp 0 +
STACK CFI INIT 3d35c 24 .cfa: sp 0 +
STACK CFI 3d360 .cfa: sp 32 +
STACK CFI 3d368 .cfa: x29 32 + x19: .cfa -16 + ^ .ra: .cfa -24 + ^ x29: .cfa -32 + ^
STACK CFI 3d374 .cfa: sp 32 +
STACK CFI 3d37c .cfa: sp 0 +
STACK CFI INIT 3d5dc 24 .cfa: sp 0 +
STACK CFI 3d5e0 .cfa: sp 32 +
STACK CFI 3d5e8 .cfa: x29 32 + x19: .cfa -16 + ^ .ra: .cfa -24 + ^ x29: .cfa -32 + ^
STACK CFI 3d5f4 .cfa: sp 32 +
STACK CFI 3d5fc .cfa: sp 0 +
STACK CFI INIT 3d600 8 .cfa: sp 0 +
STACK CFI INIT 3d608 24 .cfa: sp 0 +
STACK CFI 3d60c .cfa: sp 32 +
STACK CFI 3d614 .cfa: x29 32 + x19: .cfa -16 + ^ .ra: .cfa -24 + ^ x29: .cfa -32 + ^
STACK CFI 3d620 .cfa: sp 32 +
STACK CFI 3d628 .cfa: sp 0 +
STACK CFI INIT 3d62c 28 .cfa: sp 0 +
STACK CFI 3d630 .cfa: sp 32 +
STACK CFI 3d638 .cfa: x29 32 + x19: .cfa -16 + ^ .ra: .cfa -24 + ^ x29: .cfa -32 + ^
STACK CFI 3d648 .cfa: sp 32 +
STACK CFI 3d650 .cfa: sp 0 +
STACK CFI INIT 3d954 8 .cfa: sp 0 +
STACK CFI INIT 3d95c 24 .cfa: sp 0 +
STACK CFI 3d960 .cfa: sp 32 +
STACK CFI 3d968 .cfa: x29 32 + x19: .cfa -16 + ^ .ra: .cfa -24 + ^ x29: .cfa -32 + ^
STACK CFI 3d974 .cfa: sp 32 +
STACK CFI 3d97c .cfa: sp 0 +
STACK CFI INIT 3d980 28 .cfa: sp 0 +
STACK CFI 3d984 .cfa: sp 32 +
STACK CFI 3d98c .cfa: x29 32 + x19: .cfa -16 + ^ .ra: .cfa -24 + ^ x29: .cfa -32 + ^
STACK CFI 3d99c .cfa: sp 32 +
STACK CFI 3d9a4 .cfa: sp 0 +
STACK CFI INIT 3dc0c 8 .cfa: sp 0 +
STACK CFI INIT 3dc14 24 .cfa: sp 0 +
STACK CFI 3dc18 .cfa: sp 32 +
STACK CFI 3dc20 .cfa: x29 32 + x19: .cfa -16 + ^ .ra: .cfa -24 + ^ x29: .cfa -32 + ^
STACK CFI 3dc2c .cfa: sp 32 +
STACK CFI 3dc34 .cfa: sp 0 +
STACK CFI INIT 3dc38 28 .cfa: sp 0 +
STACK CFI 3dc3c .cfa: sp 32 +
STACK CFI 3dc44 .cfa: x29 32 + x19: .cfa -16 + ^ .ra: .cfa -24 + ^ x29: .cfa -32 + ^
STACK CFI 3dc54 .cfa: sp 32 +
STACK CFI 3dc5c .cfa: sp 0 +
STACK CFI INIT 3dc60 8 .cfa: sp 0 +
STACK CFI INIT 3dc68 24 .cfa: sp 0 +
STACK CFI 3dc6c .cfa: sp 32 +
STACK CFI 3dc74 .cfa: x29 32 + x19: .cfa -16 + ^ .ra: .cfa -24 + ^ x29: .cfa -32 + ^
STACK CFI 3dc80 .cfa: sp 32 +
STACK CFI 3dc88 .cfa: sp 0 +
STACK CFI INIT 3dc8c 28 .cfa: sp 0 +
STACK CFI 3dc90 .cfa: sp 32 +
STACK CFI 3dc98 .cfa: x29 32 + x19: .cfa -16 + ^ .ra: .cfa -24 + ^ x29: .cfa -32 + ^
STACK CFI 3dca8 .cfa: sp 32 +
STACK CFI 3dcb0 .cfa: sp 0 +
STACK CFI INIT 3f6d4 4 .cfa: sp 0 +
STACK CFI INIT 40868 4 .cfa: sp 0 +
STACK CFI INIT 4086c 14 .cfa: sp 0 +
STACK CFI INIT 40d8c c .cfa: sp 0 +
STACK CFI INIT 40d98 24c .cfa: sp 0 +
STACK CFI INIT 40fe4 a0 .cfa: sp 0 +
STACK CFI 40ff0 .cfa: sp 32 +
STACK CFI 41048 .cfa: sp 0 +
STACK CFI 4104c .cfa: sp 32 +
STACK CFI 41054 .cfa: sp 0 +
STACK CFI 41058 .cfa: sp 32 +
STACK CFI 4106c .cfa: sp 0 +
STACK CFI 41070 .cfa: sp 32 +
STACK CFI 41080 .cfa: sp 0 +
STACK CFI INIT 41084 38 .cfa: sp 0 +
STACK CFI 41090 .cfa: sp 32 +
STACK CFI 410b8 .cfa: sp 0 +
STACK CFI INIT 41350 7c .cfa: sp 0 +
STACK CFI 41354 .cfa: sp 32 +
STACK CFI 4135c .cfa: x29 32 + x19: .cfa -16 + ^ .ra: .cfa -24 + ^ x29: .cfa -32 + ^
STACK CFI 41388 .cfa: sp 32 +
STACK CFI 41390 .cfa: sp 0 +
STACK CFI 41394 .cfa: x29 32 +
STACK CFI 413c0 .cfa: sp 32 +
STACK CFI 413c8 .cfa: sp 0 +
STACK CFI INIT 4141c 2c .cfa: sp 0 +
STACK CFI 41420 .cfa: sp 32 +
STACK CFI 41428 .cfa: x29 32 + x19: .cfa -16 + ^ .ra: .cfa -24 + ^ x29: .cfa -32 + ^
STACK CFI 4143c .cfa: sp 32 +
STACK CFI 41444 .cfa: sp 0 +
STACK CFI INIT 41c08 64 .cfa: sp 0 +
STACK CFI 41c0c .cfa: sp 32 +
STACK CFI 41c14 .cfa: x29 32 + x19: .cfa -16 + ^ .ra: .cfa -24 + ^ x29: .cfa -32 + ^
STACK CFI 41c30 .cfa: sp 32 +
STACK CFI 41c38 .cfa: sp 0 +
STACK CFI 41c3c .cfa: x29 32 +
STACK CFI 41c60 .cfa: sp 32 +
STACK CFI 41c68 .cfa: sp 0 +
STACK CFI INIT 41c6c 570 .cfa: sp 0 +
STACK CFI 41c70 .cfa: sp 176 +
STACK CFI 41c84 .cfa: x29 64 + x19: .cfa -8 + ^ x20: .cfa -16 + ^ x21: .cfa -24 + ^ x22: .cfa -32 + ^ x23: .cfa -40 + ^ x24: .cfa -48 + ^ .ra: .cfa -56 + ^ x29: .cfa -64 + ^
STACK CFI 41eb4 .cfa: sp 176 +
STACK CFI 41ec8 .cfa: sp 0 +
STACK CFI 41ecc .cfa: x29 64 +
STACK CFI 41f18 .cfa: sp 176 +
STACK CFI 41f2c .cfa: sp 0 +
STACK CFI 41f30 .cfa: x29 64 +
STACK CFI 41f68 .cfa: sp 176 +
STACK CFI 41f7c .cfa: sp 0 +
STACK CFI 41f80 .cfa: x29 64 +
STACK CFI 41f98 .cfa: sp 176 +
STACK CFI 41fac .cfa: sp 0 +
STACK CFI 41fb0 .cfa: x29 64 +
STACK CFI 41fd0 .cfa: sp 176 +
STACK CFI 41fe4 .cfa: sp 0 +
STACK CFI 41fe8 .cfa: x29 64 +
STACK CFI 42000 .cfa: sp 176 +
STACK CFI 42014 .cfa: sp 0 +
STACK CFI 42018 .cfa: x29 64 +
STACK CFI 4202c .cfa: sp 176 +
STACK CFI 42040 .cfa: sp 0 +
STACK CFI 42044 .cfa: x29 64 +
STACK CFI 42058 .cfa: sp 176 +
STACK CFI 4206c .cfa: sp 0 +
STACK CFI 42070 .cfa: x29 64 +
STACK CFI 42080 .cfa: sp 176 +
STACK CFI 42094 .cfa: sp 0 +
STACK CFI 42098 .cfa: x29 64 +
STACK CFI 420a8 .cfa: sp 176 +
STACK CFI 420bc .cfa: sp 0 +
STACK CFI 420c0 .cfa: x29 64 +
STACK CFI 420d8 .cfa: sp 176 +
STACK CFI 420ec .cfa: sp 0 +
STACK CFI 420f0 .cfa: x29 64 +
STACK CFI 42104 .cfa: sp 176 +
STACK CFI 42118 .cfa: sp 0 +
STACK CFI 4211c .cfa: x29 64 +
STACK CFI 42134 .cfa: sp 176 +
STACK CFI 42148 .cfa: sp 0 +
STACK CFI 4214c .cfa: x29 64 +
STACK CFI 42178 .cfa: sp 176 +
STACK CFI 4218c .cfa: sp 0 +
STACK CFI 42190 .cfa: x29 64 +
STACK CFI 421a4 .cfa: sp 176 +
STACK CFI 421b8 .cfa: sp 0 +
STACK CFI 421bc .cfa: x29 64 +
STACK CFI INIT 421dc 228 .cfa: sp 0 +
STACK CFI INIT 42404 2dc .cfa: sp 0 +
STACK CFI INIT 426e0 53c .cfa: sp 0 +
STACK CFI INIT 42c1c 78 .cfa: sp 0 +
STACK CFI 42c20 .cfa: sp 48 +
STACK CFI 42c2c .cfa: x29 48 + x19: .cfa -8 + ^ x20: .cfa -16 + ^ x21: .cfa -24 + ^ x22: .cfa -32 + ^ .ra: .cfa -40 + ^ x29: .cfa -48 + ^
STACK CFI 42c74 .cfa: sp 48 +
STACK CFI 42c80 .cfa: sp 0 +
STACK CFI 42c84 .cfa: sp 48 +
STACK CFI 42c90 .cfa: sp 0 +
STACK CFI INIT 42c94 8c .cfa: sp 0 +
STACK CFI 42c98 .cfa: sp 32 +
STACK CFI 42ca0 .cfa: x29 32 + x19: .cfa -16 + ^ .ra: .cfa -24 + ^ x29: .cfa -32 + ^
STACK CFI 42cd4 .cfa: sp 32 +
STACK CFI 42cdc .cfa: sp 0 +
STACK CFI 42ce0 .cfa: x29 32 +
STACK CFI 42d14 .cfa: sp 32 +
STACK CFI 42d1c .cfa: sp 0 +
STACK CFI INIT 42d20 24 .cfa: sp 0 +
STACK CFI 42d24 .cfa: sp 32 +
STACK CFI 42d2c .cfa: x29 32 + x19: .cfa -16 + ^ .ra: .cfa -24 + ^ x29: .cfa -32 + ^
STACK CFI 42d38 .cfa: sp 32 +
STACK CFI 42d40 .cfa: sp 0 +
STACK CFI INIT 42d44 150 .cfa: sp 0 +
STACK CFI 42d48 .cfa: sp 48 +
STACK CFI 42d54 .cfa: x29 48 + x19: .cfa -8 + ^ x20: .cfa -16 + ^ x21: .cfa -24 + ^ x22: .cfa -32 + ^ .ra: .cfa -40 + ^ x29: .cfa -48 + ^
STACK CFI 42e84 .cfa: sp 48 +
STACK CFI 42e90 .cfa: sp 0 +
STACK CFI INIT 42e94 68 .cfa: sp 0 +
STACK CFI 42e98 .cfa: sp 64 +
STACK CFI 42ea4 .cfa: x29 32 + x19: .cfa -16 + ^ .ra: .cfa -24 + ^ x29: .cfa -32 + ^
STACK CFI 42ee8 .cfa: sp 64 +
STACK CFI 42ef4 .cfa: sp 0 +
STACK CFI 42ef8 .cfa: x29 32 +
STACK CFI INIT 42efc 90 .cfa: sp 0 +
STACK CFI 42f00 .cfa: sp 32 +
STACK CFI 42f08 .cfa: x29 32 + x19: .cfa -8 + ^ x20: .cfa -16 + ^ .ra: .cfa -24 + ^ x29: .cfa -32 + ^
STACK CFI 42f34 .cfa: sp 32 +
STACK CFI 42f3c .cfa: sp 0 +
STACK CFI 42f40 .cfa: x29 32 +
STACK CFI 42f80 .cfa: sp 32 +
STACK CFI 42f88 .cfa: sp 0 +
STACK CFI INIT 42f8c ec .cfa: sp 0 +
STACK CFI 42f90 .cfa: sp 112 +
STACK CFI 42fa0 .cfa: x29 48 + x19: .cfa -8 + ^ x20: .cfa -16 + ^ x21: .cfa -32 + ^ .ra: .cfa -40 + ^ x29: .cfa -48 + ^
STACK CFI 43060 .cfa: sp 112 +
STACK CFI 43070 .cfa: sp 0 +
STACK CFI 43074 .cfa: x29 48 +
STACK CFI INIT 43078 ec .cfa: sp 0 +
STACK CFI 4307c .cfa: sp 112 +
STACK CFI 4308c .cfa: x29 48 + x19: .cfa -8 + ^ x20: .cfa -16 + ^ x21: .cfa -32 + ^ .ra: .cfa -40 + ^ x29: .cfa -48 + ^
STACK CFI 4314c .cfa: sp 112 +
STACK CFI 4315c .cfa: sp 0 +
STACK CFI 43160 .cfa: x29 48 +
STACK CFI INIT 43164 48 .cfa: sp 0 +
STACK CFI 43168 .cfa: sp 32 +
STACK CFI 43170 .cfa: x29 32 + x19: .cfa -8 + ^ x20: .cfa -16 + ^ .ra: .cfa -24 + ^ x29: .cfa -32 + ^
STACK CFI 43194 .cfa: sp 32 +
STACK CFI 4319c .cfa: sp 0 +
STACK CFI 431a0 .cfa: x29 32 +
STACK CFI INIT 431ac 98 .cfa: sp 0 +
STACK CFI 431b0 .cfa: sp 80 +
STACK CFI 431bc .cfa: x29 32 + x19: .cfa -16 + ^ .ra: .cfa -24 + ^ x29: .cfa -32 + ^
STACK CFI 43230 .cfa: sp 80 +
STACK CFI 4323c .cfa: sp 0 +
STACK CFI 43240 .cfa: x29 32 +
STACK CFI INIT 43244 260 .cfa: sp 0 +
STACK CFI 43248 .cfa: sp 112 +
STACK CFI 43260 .cfa: x29 80 + x19: .cfa -8 + ^ x20: .cfa -16 + ^ x21: .cfa -24 + ^ x22: .cfa -32 + ^ x23: .cfa -40 + ^ x24: .cfa -48 + ^ x25: .cfa -64 + ^ .ra: .cfa -72 + ^ x29: .cfa -80 + ^
STACK CFI 43444 .cfa: sp 112 +
STACK CFI 4345c .cfa: sp 0 +
STACK CFI 43460 .cfa: x29 80 +
STACK CFI INIT 434a4 150 .cfa: sp 0 +
STACK CFI 434a8 .cfa: sp 48 +
STACK CFI 434b4 .cfa: x29 48 + x19: .cfa -8 + ^ x20: .cfa -16 + ^ x21: .cfa -24 + ^ x22: .cfa -32 + ^ .ra: .cfa -40 + ^ x29: .cfa -48 + ^
STACK CFI 435e4 .cfa: sp 48 +
STACK CFI 435f0 .cfa: sp 0 +
STACK CFI INIT 435f4 1e0 .cfa: sp 0 +
STACK CFI 435f8 .cfa: sp 96 +
STACK CFI 4360c .cfa: x29 64 + x19: .cfa -8 + ^ x20: .cfa -16 + ^ x21: .cfa -24 + ^ x22: .cfa -32 + ^ x23: .cfa -40 + ^ x24: .cfa -48 + ^ .ra: .cfa -56 + ^ x29: .cfa -64 + ^
STACK CFI 4378c .cfa: sp 96 +
STACK CFI 437a0 .cfa: sp 0 +
STACK CFI 437a4 .cfa: x29 64 +
STACK CFI INIT 437d4 284 .cfa: sp 0 +
STACK CFI 437d8 .cfa: sp 112 +
STACK CFI 437f0 .cfa: x29 80 + x19: .cfa -8 + ^ x20: .cfa -16 + ^ x21: .cfa -24 + ^ x22: .cfa -32 + ^ x23: .cfa -40 + ^ x24: .cfa -48 + ^ x25: .cfa -64 + ^ .ra: .cfa -72 + ^ x29: .cfa -80 + ^
STACK CFI 439f8 .cfa: sp 112 +
STACK CFI 43a10 .cfa: sp 0 +
STACK CFI 43a14 .cfa: x29 80 +
STACK CFI INIT 43a58 208 .cfa: sp 0 +
STACK CFI 43a5c .cfa: sp 96 +
STACK CFI 43a70 .cfa: x29 64 + x19: .cfa -8 + ^ x20: .cfa -16 + ^ x21: .cfa -24 + ^ x22: .cfa -32 + ^ x23: .cfa -40 + ^ x24: .cfa -48 + ^ .ra: .cfa -56 + ^ x29: .cfa -64 + ^
STACK CFI 43c18 .cfa: sp 96 +
STACK CFI 43c2c .cfa: sp 0 +
STACK CFI 43c30 .cfa: x29 64 +
STACK CFI INIT 43c60 360 .cfa: sp 0 +
STACK CFI 43c64 .cfa: sp 160 +
STACK CFI 43c80 .cfa: x29 96 + x19: .cfa -8 + ^ x20: .cfa -16 + ^ x21: .cfa -24 + ^ x22: .cfa -32 + ^ x23: .cfa -40 + ^ x24: .cfa -48 + ^ x25: .cfa -56 + ^ x26: .cfa -64 + ^ x27: .cfa -72 + ^ x28: .cfa -80 + ^ .ra: .cfa -88 + ^ x29: .cfa -96 + ^
STACK CFI 43f4c .cfa: sp 160 +
STACK CFI 43f68 .cfa: sp 0 +
STACK CFI 43f6c .cfa: x29 96 +
STACK CFI INIT 43fc0 314 .cfa: sp 0 +
STACK CFI 43fc4 .cfa: sp 144 +
STACK CFI 43fe0 .cfa: x29 96 + x19: .cfa -8 + ^ x20: .cfa -16 + ^ x21: .cfa -24 + ^ x22: .cfa -32 + ^ x23: .cfa -40 + ^ x24: .cfa -48 + ^ x25: .cfa -56 + ^ x26: .cfa -64 + ^ x27: .cfa -72 + ^ x28: .cfa -80 + ^ .ra: .cfa -88 + ^ x29: .cfa -96 + ^
STACK CFI 4425c .cfa: sp 144 +
STACK CFI 44278 .cfa: sp 0 +
STACK CFI 4427c .cfa: x29 96 +
STACK CFI INIT 442d4 290 .cfa: sp 0 +
STACK CFI 442d8 .cfa: sp 128 +
STACK CFI 442f0 .cfa: x29 80 + x19: .cfa -8 + ^ x20: .cfa -16 + ^ x21: .cfa -24 + ^ x22: .cfa -32 + ^ x23: .cfa -40 + ^ x24: .cfa -48 + ^ x25: .cfa -56 + ^ x26: .cfa -64 + ^ .ra: .cfa -72 + ^ x29: .cfa -80 + ^
STACK CFI 44544 .cfa: sp 128 +
STACK CFI 4455c .cfa: sp 0 +
STACK CFI 44560 .cfa: x29 80 +
STACK CFI INIT 44564 ddc .cfa: sp 0 +
STACK CFI 44568 .cfa: sp 144 +
STACK CFI 44584 .cfa: x29 96 + x19: .cfa -8 + ^ x20: .cfa -16 + ^ x21: .cfa -24 + ^ x22: .cfa -32 + ^ x23: .cfa -40 + ^ x24: .cfa -48 + ^ x25: .cfa -56 + ^ x26: .cfa -64 + ^ x27: .cfa -72 + ^ x28: .cfa -80 + ^ .ra: .cfa -88 + ^ x29: .cfa -96 + ^
STACK CFI 45218 .cfa: sp 144 +
STACK CFI 45234 .cfa: sp 0 +
STACK CFI 45238 .cfa: x29 96 +
STACK CFI INIT 45340 1d0 .cfa: sp 0 +
STACK CFI 45344 .cfa: sp 80 +
STACK CFI 45358 .cfa: x29 80 + x19: .cfa -8 + ^ x20: .cfa -16 + ^ x21: .cfa -24 + ^ x22: .cfa -32 + ^ x23: .cfa -40 + ^ x24: .cfa -48 + ^ x25: .cfa -64 + ^ .ra: .cfa -72 + ^ x29: .cfa -80 + ^
STACK CFI 454f8 .cfa: sp 80 +
STACK CFI 4550c .cfa: sp 0 +
STACK CFI INIT 45510 23c .cfa: sp 0 +
STACK CFI 45514 .cfa: sp 112 +
STACK CFI 45528 .cfa: x29 64 + x19: .cfa -8 + ^ x20: .cfa -16 + ^ x21: .cfa -24 + ^ x22: .cfa -32 + ^ x23: .cfa -40 + ^ x24: .cfa -48 + ^ .ra: .cfa -56 + ^ x29: .cfa -64 + ^
STACK CFI 45704 .cfa: sp 112 +
STACK CFI 45718 .cfa: sp 0 +
STACK CFI 4571c .cfa: x29 64 +
STACK CFI INIT 4574c 30c .cfa: sp 0 +
STACK CFI 45750 .cfa: sp 80 +
STACK CFI 45764 .cfa: x29 64 + x19: .cfa -8 + ^ x20: .cfa -16 + ^ x21: .cfa -24 + ^ x22: .cfa -32 + ^ x23: .cfa -40 + ^ x24: .cfa -48 + ^ .ra: .cfa -56 + ^ x29: .cfa -64 + ^
STACK CFI 458e0 .cfa: sp 80 +
STACK CFI 458f4 .cfa: sp 0 +
STACK CFI 458f8 .cfa: x29 64 +
STACK CFI INIT 45a58 178 .cfa: sp 0 +
STACK CFI 45a5c .cfa: sp 80 +
STACK CFI 45a70 .cfa: x29 64 + x19: .cfa -8 + ^ x20: .cfa -16 + ^ x21: .cfa -24 + ^ x22: .cfa -32 + ^ x23: .cfa -40 + ^ x24: .cfa -48 + ^ .ra: .cfa -56 + ^ x29: .cfa -64 + ^
STACK CFI 45bb4 .cfa: sp 80 +
STACK CFI 45bc8 .cfa: sp 0 +
STACK CFI 45bcc .cfa: x29 64 +
STACK CFI INIT 45bd0 178 .cfa: sp 0 +
STACK CFI 45bd4 .cfa: sp 80 +
STACK CFI 45be8 .cfa: x29 64 + x19: .cfa -8 + ^ x20: .cfa -16 + ^ x21: .cfa -24 + ^ x22: .cfa -32 + ^ x23: .cfa -40 + ^ x24: .cfa -48 + ^ .ra: .cfa -56 + ^ x29: .cfa -64 + ^
STACK CFI 45d2c .cfa: sp 80 +
STACK CFI 45d40 .cfa: sp 0 +
STACK CFI 45d44 .cfa: x29 64 +
STACK CFI INIT 45d48 240 .cfa: sp 0 +
STACK CFI 45d4c .cfa: sp 96 +
STACK CFI 45d64 .cfa: x29 96 + x19: .cfa -8 + ^ x20: .cfa -16 + ^ x21: .cfa -24 + ^ x22: .cfa -32 + ^ x23: .cfa -40 + ^ x24: .cfa -48 + ^ x25: .cfa -56 + ^ x26: .cfa -64 + ^ x27: .cfa -72 + ^ x28: .cfa -80 + ^ .ra: .cfa -88 + ^ x29: .cfa -96 + ^
STACK CFI 45f6c .cfa: sp 96 +
STACK CFI 45f84 .cfa: sp 0 +
STACK CFI INIT 46bfc 154 .cfa: sp 0 +
STACK CFI 46c00 .cfa: sp 96 +
STACK CFI 46c14 .cfa: x29 64 + x19: .cfa -8 + ^ x20: .cfa -16 + ^ x21: .cfa -24 + ^ x22: .cfa -32 + ^ x23: .cfa -48 + ^ .ra: .cfa -56 + ^ x29: .cfa -64 + ^
STACK CFI 46cf4 .cfa: sp 96 +
STACK CFI 46d08 .cfa: sp 0 +
STACK CFI 46d0c .cfa: x29 64 +
STACK CFI INIT 46fbc 44 .cfa: sp 0 +
STACK CFI 46fc0 .cfa: sp 32 +
STACK CFI 46fc8 .cfa: x29 32 + x19: .cfa -16 + ^ .ra: .cfa -24 + ^ x29: .cfa -32 + ^
STACK CFI 46fe4 .cfa: sp 32 +
STACK CFI 46fec .cfa: sp 0 +
STACK CFI 46ff0 .cfa: x29 32 +
STACK CFI 46ff4 .cfa: sp 32 +
STACK CFI 46ffc .cfa: sp 0 +
STACK CFI INIT 47000 1d0 .cfa: sp 0 +
STACK CFI 47004 .cfa: sp 64 +
STACK CFI 47014 .cfa: x29 64 + x19: .cfa -8 + ^ x20: .cfa -16 + ^ x21: .cfa -24 + ^ x22: .cfa -32 + ^ x23: .cfa -40 + ^ x24: .cfa -48 + ^ .ra: .cfa -56 + ^ x29: .cfa -64 + ^
STACK CFI 470d4 .cfa: sp 64 +
STACK CFI 470e4 .cfa: sp 0 +
STACK CFI 470e8 .cfa: x29 64 +
STACK CFI INIT 471d0 17c .cfa: sp 0 +
STACK CFI INIT 47704 a0 .cfa: sp 0 +
STACK CFI 47708 .cfa: sp 48 +
STACK CFI 47714 .cfa: x29 48 + x19: .cfa -8 + ^ x20: .cfa -16 + ^ x21: .cfa -24 + ^ x22: .cfa -32 + ^ .ra: .cfa -40 + ^ x29: .cfa -48 + ^
STACK CFI 47780 .cfa: sp 48 +
STACK CFI 4778c .cfa: sp 0 +
STACK CFI 47790 .cfa: sp 48 +
STACK CFI 4779c .cfa: sp 0 +
STACK CFI 477a0 .cfa: x29 48 +
STACK CFI INIT 48458 158 .cfa: sp 0 +
STACK CFI 4845c .cfa: sp 96 +
STACK CFI 48470 .cfa: x29 64 + x19: .cfa -8 + ^ x20: .cfa -16 + ^ x21: .cfa -24 + ^ x22: .cfa -32 + ^ x23: .cfa -48 + ^ .ra: .cfa -56 + ^ x29: .cfa -64 + ^
STACK CFI 48554 .cfa: sp 96 +
STACK CFI 48568 .cfa: sp 0 +
STACK CFI 4856c .cfa: x29 64 +
STACK CFI INIT 485b0 190 .cfa: sp 0 +
STACK CFI INIT 4923c 1dc .cfa: sp 0 +
STACK CFI 49240 .cfa: sp 80 +
STACK CFI 49254 .cfa: x29 80 + x19: .cfa -8 + ^ x20: .cfa -16 + ^ x21: .cfa -24 + ^ x22: .cfa -32 + ^ x23: .cfa -40 + ^ x24: .cfa -48 + ^ x25: .cfa -64 + ^ .ra: .cfa -72 + ^ x29: .cfa -80 + ^
STACK CFI 49400 .cfa: sp 80 +
STACK CFI 49414 .cfa: sp 0 +
STACK CFI INIT 4a848 124 .cfa: sp 0 +
STACK CFI 4a878 .cfa: sp 32 +
STACK CFI 4a880 .cfa: x29 32 + x19: .cfa -8 + ^ x20: .cfa -16 + ^ .ra: .cfa -24 + ^ x29: .cfa -32 + ^
STACK CFI 4a960 .cfa: sp 32 +
STACK CFI 4a968 .cfa: sp 0 +
STACK CFI INIT 4b0c8 320 .cfa: sp 0 +
STACK CFI 4b0cc .cfa: sp 64 +
STACK CFI 4b0dc .cfa: x29 64 + x19: .cfa -8 + ^ x20: .cfa -16 + ^ x21: .cfa -24 + ^ x22: .cfa -32 + ^ x23: .cfa -40 + ^ x24: .cfa -48 + ^ .ra: .cfa -56 + ^ x29: .cfa -64 + ^
STACK CFI 4b158 .cfa: sp 64 +
STACK CFI 4b168 .cfa: sp 0 +
STACK CFI 4b16c .cfa: x29 64 +
STACK CFI 4b340 .cfa: sp 64 +
STACK CFI 4b350 .cfa: sp 0 +
STACK CFI 4b354 .cfa: x29 64 +
STACK CFI 4b364 .cfa: sp 64 +
STACK CFI 4b374 .cfa: sp 0 +
STACK CFI 4b378 .cfa: x29 64 +
STACK CFI INIT 4b3e8 a0 .cfa: sp 0 +
STACK CFI 4b3ec .cfa: sp 48 +
STACK CFI 4b3f8 .cfa: x29 48 + x19: .cfa -8 + ^ x20: .cfa -16 + ^ x21: .cfa -24 + ^ x22: .cfa -32 + ^ .ra: .cfa -40 + ^ x29: .cfa -48 + ^
STACK CFI 4b464 .cfa: sp 48 +
STACK CFI 4b470 .cfa: sp 0 +
STACK CFI 4b474 .cfa: sp 48 +
STACK CFI 4b480 .cfa: sp 0 +
STACK CFI 4b484 .cfa: x29 48 +
STACK CFI INIT 4c338 160 .cfa: sp 0 +
STACK CFI 4c33c .cfa: sp 64 +
STACK CFI 4c34c .cfa: x29 64 + x19: .cfa -8 + ^ x20: .cfa -16 + ^ x21: .cfa -24 + ^ x22: .cfa -32 + ^ x23: .cfa -48 + ^ .ra: .cfa -56 + ^ x29: .cfa -64 + ^
STACK CFI 4c444 .cfa: sp 64 +
STACK CFI 4c454 .cfa: sp 0 +
STACK CFI 4c458 .cfa: x29 64 +
STACK CFI INIT 4c498 214 .cfa: sp 0 +
STACK CFI 4c49c .cfa: sp 128 +
STACK CFI 4c4b8 .cfa: x29 96 + x19: .cfa -8 + ^ x20: .cfa -16 + ^ x21: .cfa -24 + ^ x22: .cfa -32 + ^ x23: .cfa -40 + ^ x24: .cfa -48 + ^ x25: .cfa -56 + ^ x26: .cfa -64 + ^ x27: .cfa -80 + ^ .ra: .cfa -88 + ^ x29: .cfa -96 + ^
STACK CFI 4c634 .cfa: sp 128 +
STACK CFI 4c650 .cfa: sp 0 +
STACK CFI 4c654 .cfa: x29 96 +
STACK CFI INIT 4e348 290 .cfa: sp 0 +
STACK CFI 4e34c .cfa: sp 16 +
STACK CFI 4e350 .cfa: x29 16 + .ra: .cfa -8 + ^ x29: .cfa -16 + ^
STACK CFI 4e3dc .cfa: sp 16 +
STACK CFI 4e3e0 .cfa: sp 0 +
STACK CFI 4e3e4 .cfa: x29 16 +
STACK CFI 4e434 .cfa: sp 16 +
STACK CFI 4e438 .cfa: sp 0 +
STACK CFI 4e43c .cfa: x29 16 +
STACK CFI 4e5a0 .cfa: sp 16 +
STACK CFI 4e5a4 .cfa: sp 0 +
STACK CFI 4e5a8 .cfa: x29 16 +
STACK CFI INIT 4e5d8 158 .cfa: sp 0 +
STACK CFI 4e5dc .cfa: sp 112 +
STACK CFI 4e5f8 .cfa: x29 96 + x19: .cfa -8 + ^ x20: .cfa -16 + ^ x21: .cfa -24 + ^ x22: .cfa -32 + ^ x23: .cfa -40 + ^ x24: .cfa -48 + ^ x25: .cfa -56 + ^ x26: .cfa -64 + ^ x27: .cfa -72 + ^ x28: .cfa -80 + ^ .ra: .cfa -88 + ^ x29: .cfa -96 + ^
STACK CFI 4e6e0 .cfa: sp 112 +
STACK CFI 4e6e4 .cfa: x29 96 +
STACK CFI 4e6ec .cfa: sp 112 +
STACK CFI 4e708 .cfa: sp 0 +
STACK CFI 4e70c .cfa: x29 96 +
STACK CFI 4e72c .cfa: sp 112 +
STACK CFI INIT 4e730 e54 .cfa: sp 0 +
STACK CFI 4e734 .cfa: sp 192 +
STACK CFI 4e750 .cfa: x29 96 + x19: .cfa -8 + ^ x20: .cfa -16 + ^ x21: .cfa -24 + ^ x22: .cfa -32 + ^ x23: .cfa -40 + ^ x24: .cfa -48 + ^ x25: .cfa -56 + ^ x26: .cfa -64 + ^ x27: .cfa -72 + ^ x28: .cfa -80 + ^ .ra: .cfa -88 + ^ x29: .cfa -96 + ^
STACK CFI 4f46c .cfa: sp 192 +
STACK CFI 4f488 .cfa: sp 0 +
STACK CFI 4f48c .cfa: x29 96 +
STACK CFI INIT 4f584 1068 .cfa: sp 0 +
STACK CFI 4f588 .cfa: sp 288 +
STACK CFI 4f5a4 .cfa: x29 96 + x19: .cfa -8 + ^ x20: .cfa -16 + ^ x21: .cfa -24 + ^ x22: .cfa -32 + ^ x23: .cfa -40 + ^ x24: .cfa -48 + ^ x25: .cfa -56 + ^ x26: .cfa -64 + ^ x27: .cfa -72 + ^ x28: .cfa -80 + ^ .ra: .cfa -88 + ^ x29: .cfa -96 + ^
STACK CFI 50334 .cfa: sp 288 +
STACK CFI 50350 .cfa: sp 0 +
STACK CFI 50354 .cfa: x29 96 +
STACK CFI INIT 505ec 520 .cfa: sp 0 +
STACK CFI 505f0 .cfa: sp 144 +
STACK CFI 5060c .cfa: x29 96 + x19: .cfa -8 + ^ x20: .cfa -16 + ^ x21: .cfa -24 + ^ x22: .cfa -32 + ^ x23: .cfa -40 + ^ x24: .cfa -48 + ^ x25: .cfa -56 + ^ x26: .cfa -64 + ^ x27: .cfa -72 + ^ x28: .cfa -80 + ^ .ra: .cfa -88 + ^ x29: .cfa -96 + ^
STACK CFI 50ae8 .cfa: sp 144 +
STACK CFI 50b04 .cfa: sp 0 +
STACK CFI 50b08 .cfa: x29 96 +
STACK CFI INIT 514ac 1374 .cfa: sp 0 +
STACK CFI 514b0 .cfa: sp 224 +
STACK CFI 514cc .cfa: x29 96 + x19: .cfa -8 + ^ x20: .cfa -16 + ^ x21: .cfa -24 + ^ x22: .cfa -32 + ^ x23: .cfa -40 + ^ x24: .cfa -48 + ^ x25: .cfa -56 + ^ x26: .cfa -64 + ^ x27: .cfa -72 + ^ x28: .cfa -80 + ^ .ra: .cfa -88 + ^ x29: .cfa -96 + ^
STACK CFI 527fc .cfa: sp 224 +
STACK CFI 52818 .cfa: sp 0 +
STACK CFI 5281c .cfa: x29 96 +
STACK CFI INIT 52820 1b8 .cfa: sp 0 +
STACK CFI INIT 243f4 448 .cfa: sp 0 +
STACK CFI 243f8 .cfa: sp 128 +
STACK CFI 24414 .cfa: x29 96 + x19: .cfa -8 + ^ x20: .cfa -16 + ^ x21: .cfa -24 + ^ x22: .cfa -32 + ^ x23: .cfa -40 + ^ x24: .cfa -48 + ^ x25: .cfa -56 + ^ x26: .cfa -64 + ^ x27: .cfa -72 + ^ x28: .cfa -80 + ^ .ra: .cfa -88 + ^ x29: .cfa -96 + ^
STACK CFI 247b8 .cfa: sp 128 +
STACK CFI 247d4 .cfa: sp 0 +
STACK CFI 247d8 .cfa: x29 96 +
STACK CFI INIT 2483c 1c .cfa: sp 0 +
STACK CFI 24840 .cfa: sp 16 +
STACK CFI 24844 .cfa: x29 16 + .ra: .cfa -8 + ^ x29: .cfa -16 + ^
STACK CFI 2484c .cfa: sp 16 +
STACK CFI 24850 .cfa: sp 0 +
STACK CFI 24854 .cfa: x29 16 +
STACK CFI INIT 2490c 20a4 .cfa: sp 0 +
STACK CFI 24910 .cfa: sp 96 +
STACK CFI 24928 .cfa: x29 96 + x19: .cfa -8 + ^ x20: .cfa -16 + ^ x21: .cfa -24 + ^ x22: .cfa -32 + ^ x23: .cfa -40 + ^ x24: .cfa -48 + ^ x25: .cfa -56 + ^ x26: .cfa -64 + ^ x27: .cfa -72 + ^ x28: .cfa -80 + ^ .ra: .cfa -88 + ^ x29: .cfa -96 + ^
STACK CFI 26338 .cfa: sp 96 +
STACK CFI 26350 .cfa: sp 0 +
STACK CFI 26354 .cfa: x29 96 +
STACK CFI INIT 269b0 138 .cfa: sp 0 +
STACK CFI 269b4 .cfa: sp 64 +
STACK CFI 269c4 .cfa: x29 64 + x19: .cfa -8 + ^ x20: .cfa -16 + ^ x21: .cfa -24 + ^ x22: .cfa -32 + ^ x23: .cfa -40 + ^ x24: .cfa -48 + ^ .ra: .cfa -56 + ^ x29: .cfa -64 + ^
STACK CFI 26a60 .cfa: sp 64 +
STACK CFI 26a70 .cfa: sp 0 +
STACK CFI 26a74 .cfa: x29 64 +
STACK CFI 26aa8 .cfa: sp 64 +
STACK CFI 26ab8 .cfa: sp 0 +
STACK CFI 26abc .cfa: x29 64 +
STACK CFI INIT 26ae8 138 .cfa: sp 0 +
STACK CFI 26aec .cfa: sp 64 +
STACK CFI 26afc .cfa: x29 64 + x19: .cfa -8 + ^ x20: .cfa -16 + ^ x21: .cfa -24 + ^ x22: .cfa -32 + ^ x23: .cfa -40 + ^ x24: .cfa -48 + ^ .ra: .cfa -56 + ^ x29: .cfa -64 + ^
STACK CFI 26b98 .cfa: sp 64 +
STACK CFI 26ba8 .cfa: sp 0 +
STACK CFI 26bac .cfa: x29 64 +
STACK CFI 26be0 .cfa: sp 64 +
STACK CFI 26bf0 .cfa: sp 0 +
STACK CFI 26bf4 .cfa: x29 64 +
STACK CFI INIT 26c20 138 .cfa: sp 0 +
STACK CFI 26c24 .cfa: sp 64 +
STACK CFI 26c34 .cfa: x29 64 + x19: .cfa -8 + ^ x20: .cfa -16 + ^ x21: .cfa -24 + ^ x22: .cfa -32 + ^ x23: .cfa -40 + ^ x24: .cfa -48 + ^ .ra: .cfa -56 + ^ x29: .cfa -64 + ^
STACK CFI 26cd0 .cfa: sp 64 +
STACK CFI 26ce0 .cfa: sp 0 +
STACK CFI 26ce4 .cfa: x29 64 +
STACK CFI 26d18 .cfa: sp 64 +
STACK CFI 26d28 .cfa: sp 0 +
STACK CFI 26d2c .cfa: x29 64 +
STACK CFI INIT 26d58 138 .cfa: sp 0 +
STACK CFI 26d5c .cfa: sp 64 +
STACK CFI 26d6c .cfa: x29 64 + x19: .cfa -8 + ^ x20: .cfa -16 + ^ x21: .cfa -24 + ^ x22: .cfa -32 + ^ x23: .cfa -40 + ^ x24: .cfa -48 + ^ .ra: .cfa -56 + ^ x29: .cfa -64 + ^
STACK CFI 26e08 .cfa: sp 64 +
STACK CFI 26e18 .cfa: sp 0 +
STACK CFI 26e1c .cfa: x29 64 +
STACK CFI 26e50 .cfa: sp 64 +
STACK CFI 26e60 .cfa: sp 0 +
STACK CFI 26e64 .cfa: x29 64 +
STACK CFI INIT 26e90 138 .cfa: sp 0 +
STACK CFI 26e94 .cfa: sp 64 +
STACK CFI 26ea4 .cfa: x29 64 + x19: .cfa -8 + ^ x20: .cfa -16 + ^ x21: .cfa -24 + ^ x22: .cfa -32 + ^ x23: .cfa -40 + ^ x24: .cfa -48 + ^ .ra: .cfa -56 + ^ x29: .cfa -64 + ^
STACK CFI 26f40 .cfa: sp 64 +
STACK CFI 26f50 .cfa: sp 0 +
STACK CFI 26f54 .cfa: x29 64 +
STACK CFI 26f88 .cfa: sp 64 +
STACK CFI 26f98 .cfa: sp 0 +
STACK CFI 26f9c .cfa: x29 64 +
STACK CFI INIT 26fc8 138 .cfa: sp 0 +
STACK CFI 26fcc .cfa: sp 64 +
STACK CFI 26fdc .cfa: x29 64 + x19: .cfa -8 + ^ x20: .cfa -16 + ^ x21: .cfa -24 + ^ x22: .cfa -32 + ^ x23: .cfa -40 + ^ x24: .cfa -48 + ^ .ra: .cfa -56 + ^ x29: .cfa -64 + ^
STACK CFI 27078 .cfa: sp 64 +
STACK CFI 27088 .cfa: sp 0 +
STACK CFI 2708c .cfa: x29 64 +
STACK CFI 270c0 .cfa: sp 64 +
STACK CFI 270d0 .cfa: sp 0 +
STACK CFI 270d4 .cfa: x29 64 +
STACK CFI INIT 27100 138 .cfa: sp 0 +
STACK CFI 27104 .cfa: sp 64 +
STACK CFI 27114 .cfa: x29 64 + x19: .cfa -8 + ^ x20: .cfa -16 + ^ x21: .cfa -24 + ^ x22: .cfa -32 + ^ x23: .cfa -40 + ^ x24: .cfa -48 + ^ .ra: .cfa -56 + ^ x29: .cfa -64 + ^
STACK CFI 271b0 .cfa: sp 64 +
STACK CFI 271c0 .cfa: sp 0 +
STACK CFI 271c4 .cfa: x29 64 +
STACK CFI 271f8 .cfa: sp 64 +
STACK CFI 27208 .cfa: sp 0 +
STACK CFI 2720c .cfa: x29 64 +
STACK CFI INIT 27238 138 .cfa: sp 0 +
STACK CFI 2723c .cfa: sp 64 +
STACK CFI 2724c .cfa: x29 64 + x19: .cfa -8 + ^ x20: .cfa -16 + ^ x21: .cfa -24 + ^ x22: .cfa -32 + ^ x23: .cfa -40 + ^ x24: .cfa -48 + ^ .ra: .cfa -56 + ^ x29: .cfa -64 + ^
STACK CFI 272e8 .cfa: sp 64 +
STACK CFI 272f8 .cfa: sp 0 +
STACK CFI 272fc .cfa: x29 64 +
STACK CFI 27330 .cfa: sp 64 +
STACK CFI 27340 .cfa: sp 0 +
STACK CFI 27344 .cfa: x29 64 +
STACK CFI INIT 27370 138 .cfa: sp 0 +
STACK CFI 27374 .cfa: sp 64 +
STACK CFI 27384 .cfa: x29 64 + x19: .cfa -8 + ^ x20: .cfa -16 + ^ x21: .cfa -24 + ^ x22: .cfa -32 + ^ x23: .cfa -40 + ^ x24: .cfa -48 + ^ .ra: .cfa -56 + ^ x29: .cfa -64 + ^
STACK CFI 27420 .cfa: sp 64 +
STACK CFI 27430 .cfa: sp 0 +
STACK CFI 27434 .cfa: x29 64 +
STACK CFI 27468 .cfa: sp 64 +
STACK CFI 27478 .cfa: sp 0 +
STACK CFI 2747c .cfa: x29 64 +
STACK CFI INIT 274a8 138 .cfa: sp 0 +
STACK CFI 274ac .cfa: sp 64 +
STACK CFI 274bc .cfa: x29 64 + x19: .cfa -8 + ^ x20: .cfa -16 + ^ x21: .cfa -24 + ^ x22: .cfa -32 + ^ x23: .cfa -40 + ^ x24: .cfa -48 + ^ .ra: .cfa -56 + ^ x29: .cfa -64 + ^
STACK CFI 27558 .cfa: sp 64 +
STACK CFI 27568 .cfa: sp 0 +
STACK CFI 2756c .cfa: x29 64 +
STACK CFI 275a0 .cfa: sp 64 +
STACK CFI 275b0 .cfa: sp 0 +
STACK CFI 275b4 .cfa: x29 64 +
STACK CFI INIT 275e0 138 .cfa: sp 0 +
STACK CFI 275e4 .cfa: sp 64 +
STACK CFI 275f4 .cfa: x29 64 + x19: .cfa -8 + ^ x20: .cfa -16 + ^ x21: .cfa -24 + ^ x22: .cfa -32 + ^ x23: .cfa -40 + ^ x24: .cfa -48 + ^ .ra: .cfa -56 + ^ x29: .cfa -64 + ^
STACK CFI 27690 .cfa: sp 64 +
STACK CFI 276a0 .cfa: sp 0 +
STACK CFI 276a4 .cfa: x29 64 +
STACK CFI 276d8 .cfa: sp 64 +
STACK CFI 276e8 .cfa: sp 0 +
STACK CFI 276ec .cfa: x29 64 +
STACK CFI INIT 27718 138 .cfa: sp 0 +
STACK CFI 2771c .cfa: sp 64 +
STACK CFI 2772c .cfa: x29 64 + x19: .cfa -8 + ^ x20: .cfa -16 + ^ x21: .cfa -24 + ^ x22: .cfa -32 + ^ x23: .cfa -40 + ^ x24: .cfa -48 + ^ .ra: .cfa -56 + ^ x29: .cfa -64 + ^
STACK CFI 277c8 .cfa: sp 64 +
STACK CFI 277d8 .cfa: sp 0 +
STACK CFI 277dc .cfa: x29 64 +
STACK CFI 27810 .cfa: sp 64 +
STACK CFI 27820 .cfa: sp 0 +
STACK CFI 27824 .cfa: x29 64 +
STACK CFI INIT 27850 138 .cfa: sp 0 +
STACK CFI 27854 .cfa: sp 64 +
STACK CFI 27864 .cfa: x29 64 + x19: .cfa -8 + ^ x20: .cfa -16 + ^ x21: .cfa -24 + ^ x22: .cfa -32 + ^ x23: .cfa -40 + ^ x24: .cfa -48 + ^ .ra: .cfa -56 + ^ x29: .cfa -64 + ^
STACK CFI 27900 .cfa: sp 64 +
STACK CFI 27910 .cfa: sp 0 +
STACK CFI 27914 .cfa: x29 64 +
STACK CFI 27948 .cfa: sp 64 +
STACK CFI 27958 .cfa: sp 0 +
STACK CFI 2795c .cfa: x29 64 +
STACK CFI INIT 27988 138 .cfa: sp 0 +
STACK CFI 2798c .cfa: sp 64 +
STACK CFI 2799c .cfa: x29 64 + x19: .cfa -8 + ^ x20: .cfa -16 + ^ x21: .cfa -24 + ^ x22: .cfa -32 + ^ x23: .cfa -40 + ^ x24: .cfa -48 + ^ .ra: .cfa -56 + ^ x29: .cfa -64 + ^
STACK CFI 27a38 .cfa: sp 64 +
STACK CFI 27a48 .cfa: sp 0 +
STACK CFI 27a4c .cfa: x29 64 +
STACK CFI 27a80 .cfa: sp 64 +
STACK CFI 27a90 .cfa: sp 0 +
STACK CFI 27a94 .cfa: x29 64 +
STACK CFI INIT 27ac0 138 .cfa: sp 0 +
STACK CFI 27ac4 .cfa: sp 64 +
STACK CFI 27ad4 .cfa: x29 64 + x19: .cfa -8 + ^ x20: .cfa -16 + ^ x21: .cfa -24 + ^ x22: .cfa -32 + ^ x23: .cfa -40 + ^ x24: .cfa -48 + ^ .ra: .cfa -56 + ^ x29: .cfa -64 + ^
STACK CFI 27b70 .cfa: sp 64 +
STACK CFI 27b80 .cfa: sp 0 +
STACK CFI 27b84 .cfa: x29 64 +
STACK CFI 27bb8 .cfa: sp 64 +
STACK CFI 27bc8 .cfa: sp 0 +
STACK CFI 27bcc .cfa: x29 64 +
STACK CFI INIT 27bf8 138 .cfa: sp 0 +
STACK CFI 27bfc .cfa: sp 64 +
STACK CFI 27c0c .cfa: x29 64 + x19: .cfa -8 + ^ x20: .cfa -16 + ^ x21: .cfa -24 + ^ x22: .cfa -32 + ^ x23: .cfa -40 + ^ x24: .cfa -48 + ^ .ra: .cfa -56 + ^ x29: .cfa -64 + ^
STACK CFI 27ca8 .cfa: sp 64 +
STACK CFI 27cb8 .cfa: sp 0 +
STACK CFI 27cbc .cfa: x29 64 +
STACK CFI 27cf0 .cfa: sp 64 +
STACK CFI 27d00 .cfa: sp 0 +
STACK CFI 27d04 .cfa: x29 64 +
STACK CFI INIT 27d30 138 .cfa: sp 0 +
STACK CFI 27d34 .cfa: sp 64 +
STACK CFI 27d44 .cfa: x29 64 + x19: .cfa -8 + ^ x20: .cfa -16 + ^ x21: .cfa -24 + ^ x22: .cfa -32 + ^ x23: .cfa -40 + ^ x24: .cfa -48 + ^ .ra: .cfa -56 + ^ x29: .cfa -64 + ^
STACK CFI 27de0 .cfa: sp 64 +
STACK CFI 27df0 .cfa: sp 0 +
STACK CFI 27df4 .cfa: x29 64 +
STACK CFI 27e28 .cfa: sp 64 +
STACK CFI 27e38 .cfa: sp 0 +
STACK CFI 27e3c .cfa: x29 64 +
STACK CFI INIT 27e68 138 .cfa: sp 0 +
STACK CFI 27e6c .cfa: sp 64 +
STACK CFI 27e7c .cfa: x29 64 + x19: .cfa -8 + ^ x20: .cfa -16 + ^ x21: .cfa -24 + ^ x22: .cfa -32 + ^ x23: .cfa -40 + ^ x24: .cfa -48 + ^ .ra: .cfa -56 + ^ x29: .cfa -64 + ^
STACK CFI 27f18 .cfa: sp 64 +
STACK CFI 27f28 .cfa: sp 0 +
STACK CFI 27f2c .cfa: x29 64 +
STACK CFI 27f60 .cfa: sp 64 +
STACK CFI 27f70 .cfa: sp 0 +
STACK CFI 27f74 .cfa: x29 64 +
STACK CFI INIT 27fa0 138 .cfa: sp 0 +
STACK CFI 27fa4 .cfa: sp 64 +
STACK CFI 27fb4 .cfa: x29 64 + x19: .cfa -8 + ^ x20: .cfa -16 + ^ x21: .cfa -24 + ^ x22: .cfa -32 + ^ x23: .cfa -40 + ^ x24: .cfa -48 + ^ .ra: .cfa -56 + ^ x29: .cfa -64 + ^
STACK CFI 28050 .cfa: sp 64 +
STACK CFI 28060 .cfa: sp 0 +
STACK CFI 28064 .cfa: x29 64 +
STACK CFI 28098 .cfa: sp 64 +
STACK CFI 280a8 .cfa: sp 0 +
STACK CFI 280ac .cfa: x29 64 +
STACK CFI INIT 280d8 138 .cfa: sp 0 +
STACK CFI 280dc .cfa: sp 64 +
STACK CFI 280ec .cfa: x29 64 + x19: .cfa -8 + ^ x20: .cfa -16 + ^ x21: .cfa -24 + ^ x22: .cfa -32 + ^ x23: .cfa -40 + ^ x24: .cfa -48 + ^ .ra: .cfa -56 + ^ x29: .cfa -64 + ^
STACK CFI 28188 .cfa: sp 64 +
STACK CFI 28198 .cfa: sp 0 +
STACK CFI 2819c .cfa: x29 64 +
STACK CFI 281d0 .cfa: sp 64 +
STACK CFI 281e0 .cfa: sp 0 +
STACK CFI 281e4 .cfa: x29 64 +
STACK CFI INIT 28210 138 .cfa: sp 0 +
STACK CFI 28214 .cfa: sp 64 +
STACK CFI 28224 .cfa: x29 64 + x19: .cfa -8 + ^ x20: .cfa -16 + ^ x21: .cfa -24 + ^ x22: .cfa -32 + ^ x23: .cfa -40 + ^ x24: .cfa -48 + ^ .ra: .cfa -56 + ^ x29: .cfa -64 + ^
STACK CFI 282c0 .cfa: sp 64 +
STACK CFI 282d0 .cfa: sp 0 +
STACK CFI 282d4 .cfa: x29 64 +
STACK CFI 28308 .cfa: sp 64 +
STACK CFI 28318 .cfa: sp 0 +
STACK CFI 2831c .cfa: x29 64 +
STACK CFI INIT 28348 138 .cfa: sp 0 +
STACK CFI 2834c .cfa: sp 64 +
STACK CFI 2835c .cfa: x29 64 + x19: .cfa -8 + ^ x20: .cfa -16 + ^ x21: .cfa -24 + ^ x22: .cfa -32 + ^ x23: .cfa -40 + ^ x24: .cfa -48 + ^ .ra: .cfa -56 + ^ x29: .cfa -64 + ^
STACK CFI 283f8 .cfa: sp 64 +
STACK CFI 28408 .cfa: sp 0 +
STACK CFI 2840c .cfa: x29 64 +
STACK CFI 28440 .cfa: sp 64 +
STACK CFI 28450 .cfa: sp 0 +
STACK CFI 28454 .cfa: x29 64 +
STACK CFI INIT 28480 138 .cfa: sp 0 +
STACK CFI 28484 .cfa: sp 64 +
STACK CFI 28494 .cfa: x29 64 + x19: .cfa -8 + ^ x20: .cfa -16 + ^ x21: .cfa -24 + ^ x22: .cfa -32 + ^ x23: .cfa -40 + ^ x24: .cfa -48 + ^ .ra: .cfa -56 + ^ x29: .cfa -64 + ^
STACK CFI 28530 .cfa: sp 64 +
STACK CFI 28540 .cfa: sp 0 +
STACK CFI 28544 .cfa: x29 64 +
STACK CFI 28578 .cfa: sp 64 +
STACK CFI 28588 .cfa: sp 0 +
STACK CFI 2858c .cfa: x29 64 +
STACK CFI INIT 285b8 138 .cfa: sp 0 +
STACK CFI 285bc .cfa: sp 64 +
STACK CFI 285cc .cfa: x29 64 + x19: .cfa -8 + ^ x20: .cfa -16 + ^ x21: .cfa -24 + ^ x22: .cfa -32 + ^ x23: .cfa -40 + ^ x24: .cfa -48 + ^ .ra: .cfa -56 + ^ x29: .cfa -64 + ^
STACK CFI 28668 .cfa: sp 64 +
STACK CFI 28678 .cfa: sp 0 +
STACK CFI 2867c .cfa: x29 64 +
STACK CFI 286b0 .cfa: sp 64 +
STACK CFI 286c0 .cfa: sp 0 +
STACK CFI 286c4 .cfa: x29 64 +
STACK CFI INIT 28734 138 .cfa: sp 0 +
STACK CFI 28738 .cfa: sp 64 +
STACK CFI 28748 .cfa: x29 64 + x19: .cfa -8 + ^ x20: .cfa -16 + ^ x21: .cfa -24 + ^ x22: .cfa -32 + ^ x23: .cfa -40 + ^ x24: .cfa -48 + ^ .ra: .cfa -56 + ^ x29: .cfa -64 + ^
STACK CFI 287e4 .cfa: sp 64 +
STACK CFI 287f4 .cfa: sp 0 +
STACK CFI 287f8 .cfa: x29 64 +
STACK CFI 2882c .cfa: sp 64 +
STACK CFI 2883c .cfa: sp 0 +
STACK CFI 28840 .cfa: x29 64 +
STACK CFI INIT 2886c 138 .cfa: sp 0 +
STACK CFI 28870 .cfa: sp 64 +
STACK CFI 28880 .cfa: x29 64 + x19: .cfa -8 + ^ x20: .cfa -16 + ^ x21: .cfa -24 + ^ x22: .cfa -32 + ^ x23: .cfa -40 + ^ x24: .cfa -48 + ^ .ra: .cfa -56 + ^ x29: .cfa -64 + ^
STACK CFI 2891c .cfa: sp 64 +
STACK CFI 2892c .cfa: sp 0 +
STACK CFI 28930 .cfa: x29 64 +
STACK CFI 28964 .cfa: sp 64 +
STACK CFI 28974 .cfa: sp 0 +
STACK CFI 28978 .cfa: x29 64 +
STACK CFI INIT 289a4 138 .cfa: sp 0 +
STACK CFI 289a8 .cfa: sp 64 +
STACK CFI 289b8 .cfa: x29 64 + x19: .cfa -8 + ^ x20: .cfa -16 + ^ x21: .cfa -24 + ^ x22: .cfa -32 + ^ x23: .cfa -40 + ^ x24: .cfa -48 + ^ .ra: .cfa -56 + ^ x29: .cfa -64 + ^
STACK CFI 28a54 .cfa: sp 64 +
STACK CFI 28a64 .cfa: sp 0 +
STACK CFI 28a68 .cfa: x29 64 +
STACK CFI 28a9c .cfa: sp 64 +
STACK CFI 28aac .cfa: sp 0 +
STACK CFI 28ab0 .cfa: x29 64 +
STACK CFI INIT 28adc 138 .cfa: sp 0 +
STACK CFI 28ae0 .cfa: sp 64 +
STACK CFI 28af0 .cfa: x29 64 + x19: .cfa -8 + ^ x20: .cfa -16 + ^ x21: .cfa -24 + ^ x22: .cfa -32 + ^ x23: .cfa -40 + ^ x24: .cfa -48 + ^ .ra: .cfa -56 + ^ x29: .cfa -64 + ^
STACK CFI 28b8c .cfa: sp 64 +
STACK CFI 28b9c .cfa: sp 0 +
STACK CFI 28ba0 .cfa: x29 64 +
STACK CFI 28bd4 .cfa: sp 64 +
STACK CFI 28be4 .cfa: sp 0 +
STACK CFI 28be8 .cfa: x29 64 +
STACK CFI INIT 28d40 50 .cfa: sp 0 +
STACK CFI 28d44 .cfa: sp 32 +
STACK CFI 28d4c .cfa: x29 32 + x19: .cfa -8 + ^ x20: .cfa -16 + ^ .ra: .cfa -24 + ^ x29: .cfa -32 + ^
STACK CFI INIT 28e80 478 .cfa: sp 0 +
STACK CFI 28e84 .cfa: sp 128 +
STACK CFI 28ea0 .cfa: x29 96 + x19: .cfa -8 + ^ x20: .cfa -16 + ^ x21: .cfa -24 + ^ x22: .cfa -32 + ^ x23: .cfa -40 + ^ x24: .cfa -48 + ^ x25: .cfa -56 + ^ x26: .cfa -64 + ^ x27: .cfa -72 + ^ x28: .cfa -80 + ^ .ra: .cfa -88 + ^ x29: .cfa -96 + ^
STACK CFI 292ac .cfa: sp 128 +
STACK CFI 292c8 .cfa: sp 0 +
STACK CFI 292cc .cfa: x29 96 +
STACK CFI INIT 292f8 e4 .cfa: sp 0 +
STACK CFI 292fc .cfa: sp 64 +
STACK CFI 2930c .cfa: x29 64 + x19: .cfa -8 + ^ x20: .cfa -16 + ^ x21: .cfa -24 + ^ x22: .cfa -32 + ^ x23: .cfa -48 + ^ .ra: .cfa -56 + ^ x29: .cfa -64 + ^
STACK CFI 29390 .cfa: sp 64 +
STACK CFI 293a0 .cfa: sp 0 +
STACK CFI 293a4 .cfa: x29 64 +
STACK CFI INIT 2a240 d0 .cfa: sp 0 +
STACK CFI 2a244 .cfa: sp 64 +
STACK CFI 2a250 .cfa: x29 32 + x19: .cfa -8 + ^ x20: .cfa -16 + ^ .ra: .cfa -24 + ^ x29: .cfa -32 + ^
STACK CFI 2a2d0 .cfa: sp 64 +
STACK CFI 2a2dc .cfa: sp 0 +
STACK CFI 2a2e0 .cfa: x29 32 +
STACK CFI INIT 2a310 450 .cfa: sp 0 +
STACK CFI 2a314 .cfa: sp 96 +
STACK CFI 2a32c .cfa: x29 96 + x19: .cfa -8 + ^ x20: .cfa -16 + ^ x21: .cfa -24 + ^ x22: .cfa -32 + ^ x23: .cfa -40 + ^ x24: .cfa -48 + ^ x25: .cfa -56 + ^ x26: .cfa -64 + ^ x27: .cfa -72 + ^ x28: .cfa -80 + ^ .ra: .cfa -88 + ^ x29: .cfa -96 + ^
STACK CFI 2a5f8 .cfa: sp 96 +
STACK CFI 2a610 .cfa: sp 0 +
STACK CFI 2a614 .cfa: x29 96 +
STACK CFI INIT 2a7b0 504 .cfa: sp 0 +
STACK CFI 2a7b4 .cfa: sp 96 +
STACK CFI 2a7cc .cfa: x29 96 + x19: .cfa -8 + ^ x20: .cfa -16 + ^ x21: .cfa -24 + ^ x22: .cfa -32 + ^ x23: .cfa -40 + ^ x24: .cfa -48 + ^ x25: .cfa -56 + ^ x26: .cfa -64 + ^ x27: .cfa -72 + ^ x28: .cfa -80 + ^ .ra: .cfa -88 + ^ x29: .cfa -96 + ^
STACK CFI 2abbc .cfa: sp 96 +
STACK CFI 2abd4 .cfa: sp 0 +
STACK CFI 2abd8 .cfa: x29 96 +
STACK CFI INIT 2acb4 668 .cfa: sp 0 +
STACK CFI 2acb8 .cfa: sp 96 +
STACK CFI 2acd0 .cfa: x29 96 + x19: .cfa -8 + ^ x20: .cfa -16 + ^ x21: .cfa -24 + ^ x22: .cfa -32 + ^ x23: .cfa -40 + ^ x24: .cfa -48 + ^ x25: .cfa -56 + ^ x26: .cfa -64 + ^ x27: .cfa -72 + ^ x28: .cfa -80 + ^ .ra: .cfa -88 + ^ x29: .cfa -96 + ^
STACK CFI 2aed0 .cfa: sp 96 +
STACK CFI 2aee8 .cfa: sp 0 +
STACK CFI 2aeec .cfa: x29 96 +
STACK CFI INIT 2b31c 1d4c .cfa: sp 0 +
STACK CFI 2b320 .cfa: sp 96 +
STACK CFI 2b338 .cfa: x29 96 + x19: .cfa -8 + ^ x20: .cfa -16 + ^ x21: .cfa -24 + ^ x22: .cfa -32 + ^ x23: .cfa -40 + ^ x24: .cfa -48 + ^ x25: .cfa -56 + ^ x26: .cfa -64 + ^ x27: .cfa -72 + ^ x28: .cfa -80 + ^ .ra: .cfa -88 + ^ x29: .cfa -96 + ^
STACK CFI 2ccf0 .cfa: sp 96 +
STACK CFI 2cd08 .cfa: sp 0 +
STACK CFI 2cd0c .cfa: x29 96 +
STACK CFI INIT 2d35c 1a4 .cfa: sp 0 +
STACK CFI 2d360 .cfa: sp 112 +
STACK CFI 2d378 .cfa: x29 80 + x19: .cfa -8 + ^ x20: .cfa -16 + ^ x21: .cfa -24 + ^ x22: .cfa -32 + ^ x23: .cfa -40 + ^ x24: .cfa -48 + ^ x25: .cfa -56 + ^ x26: .cfa -64 + ^ .ra: .cfa -72 + ^ x29: .cfa -80 + ^
STACK CFI 2d468 .cfa: sp 112 +
STACK CFI 2d480 .cfa: sp 0 +
STACK CFI 2d484 .cfa: x29 80 +
STACK CFI INIT 2d500 1dc .cfa: sp 0 +
STACK CFI 2d504 .cfa: sp 128 +
STACK CFI 2d520 .cfa: x29 96 + x19: .cfa -8 + ^ x20: .cfa -16 + ^ x21: .cfa -24 + ^ x22: .cfa -32 + ^ x23: .cfa -40 + ^ x24: .cfa -48 + ^ x25: .cfa -56 + ^ x26: .cfa -64 + ^ x27: .cfa -80 + ^ .ra: .cfa -88 + ^ x29: .cfa -96 + ^
STACK CFI 2d68c .cfa: sp 128 +
STACK CFI 2d6a8 .cfa: sp 0 +
STACK CFI 2d6ac .cfa: x29 96 +
STACK CFI INIT 2d720 134 .cfa: sp 0 +
STACK CFI 2d724 .cfa: sp 80 +
STACK CFI 2d734 .cfa: x29 48 + x19: .cfa -8 + ^ x20: .cfa -16 + ^ x21: .cfa -24 + ^ x22: .cfa -32 + ^ .ra: .cfa -40 + ^ x29: .cfa -48 + ^
STACK CFI 2d838 .cfa: sp 80 +
STACK CFI 2d848 .cfa: sp 0 +
STACK CFI 2d84c .cfa: x29 48 +
STACK CFI INIT 2d958 190 .cfa: sp 0 +
STACK CFI 2d95c .cfa: sp 96 +
STACK CFI 2d96c .cfa: x29 48 + x19: .cfa -8 + ^ x20: .cfa -16 + ^ x21: .cfa -24 + ^ x22: .cfa -32 + ^ .ra: .cfa -40 + ^ x29: .cfa -48 + ^
STACK CFI 2da64 .cfa: sp 96 +
STACK CFI 2da74 .cfa: sp 0 +
STACK CFI 2da78 .cfa: x29 48 +
STACK CFI INIT 2db38 118 .cfa: sp 0 +
STACK CFI 2db3c .cfa: sp 80 +
STACK CFI 2db4c .cfa: x29 48 + x19: .cfa -8 + ^ x20: .cfa -16 + ^ x21: .cfa -24 + ^ x22: .cfa -32 + ^ .ra: .cfa -40 + ^ x29: .cfa -48 + ^
STACK CFI 2dc34 .cfa: sp 80 +
STACK CFI 2dc44 .cfa: sp 0 +
STACK CFI 2dc48 .cfa: x29 48 +
STACK CFI INIT 2dc50 304 .cfa: sp 0 +
STACK CFI 2dc54 .cfa: sp 128 +
STACK CFI 2dc70 .cfa: x29 96 + x19: .cfa -8 + ^ x20: .cfa -16 + ^ x21: .cfa -24 + ^ x22: .cfa -32 + ^ x23: .cfa -40 + ^ x24: .cfa -48 + ^ x25: .cfa -56 + ^ x26: .cfa -64 + ^ x27: .cfa -72 + ^ x28: .cfa -80 + ^ .ra: .cfa -88 + ^ x29: .cfa -96 + ^
STACK CFI 2ded4 .cfa: sp 128 +
STACK CFI 2def0 .cfa: sp 0 +
STACK CFI 2def4 .cfa: x29 96 +
STACK CFI INIT 2df54 110 .cfa: sp 0 +
STACK CFI 2df58 .cfa: sp 80 +
STACK CFI 2df6c .cfa: x29 80 + x19: .cfa -8 + ^ x20: .cfa -16 + ^ x21: .cfa -24 + ^ x22: .cfa -32 + ^ x23: .cfa -40 + ^ x24: .cfa -48 + ^ x25: .cfa -64 + ^ .ra: .cfa -72 + ^ x29: .cfa -80 + ^
STACK CFI 2e008 .cfa: sp 80 +
STACK CFI 2e01c .cfa: sp 0 +
STACK CFI 2e020 .cfa: x29 80 +
STACK CFI INIT 2e064 1b4 .cfa: sp 0 +
STACK CFI 2e068 .cfa: sp 80 +
STACK CFI 2e07c .cfa: x29 64 + x19: .cfa -8 + ^ x20: .cfa -16 + ^ x21: .cfa -24 + ^ x22: .cfa -32 + ^ x23: .cfa -40 + ^ x24: .cfa -48 + ^ .ra: .cfa -56 + ^ x29: .cfa -64 + ^
STACK CFI 2e188 .cfa: sp 80 +
STACK CFI 2e19c .cfa: sp 0 +
STACK CFI 2e1a0 .cfa: x29 64 +
STACK CFI INIT 2e218 81c .cfa: sp 0 +
STACK CFI 2e21c .cfa: sp 112 +
STACK CFI 2e238 .cfa: x29 96 + x19: .cfa -8 + ^ x20: .cfa -16 + ^ x21: .cfa -24 + ^ x22: .cfa -32 + ^ x23: .cfa -40 + ^ x24: .cfa -48 + ^ x25: .cfa -56 + ^ x26: .cfa -64 + ^ x27: .cfa -72 + ^ x28: .cfa -80 + ^ .ra: .cfa -88 + ^ x29: .cfa -96 + ^ v8: .cfa -112 + ^
STACK CFI 2e8a4 .cfa: sp 112 +
STACK CFI 2e8c0 .cfa: sp 0 +
STACK CFI 2e8c4 .cfa: x29 96 +
STACK CFI INIT 2ecbc 4a4 .cfa: sp 0 +
STACK CFI 2ecc0 .cfa: sp 96 +
STACK CFI 2ecd0 .cfa: x29 48 + x19: .cfa -8 + ^ x20: .cfa -16 + ^ x21: .cfa -32 + ^ .ra: .cfa -40 + ^ x29: .cfa -48 + ^
STACK CFI 2ef10 .cfa: sp 96 +
STACK CFI 2ef20 .cfa: sp 0 +
STACK CFI 2ef24 .cfa: x29 48 +
STACK CFI INIT 2f160 20 .cfa: sp 0 +
STACK CFI 2f164 .cfa: sp 16 +
STACK CFI 2f168 .cfa: x29 16 + .ra: .cfa -8 + ^ x29: .cfa -16 + ^
STACK CFI 2f174 .cfa: sp 16 +
STACK CFI 2f178 .cfa: sp 0 +
STACK CFI 2f17c .cfa: x29 16 +
STACK CFI INIT 2f1e8 108 .cfa: sp 0 +
STACK CFI 2f1ec .cfa: sp 32 +
STACK CFI 2f1f4 .cfa: x29 32 + x19: .cfa -8 + ^ x20: .cfa -16 + ^ .ra: .cfa -24 + ^ x29: .cfa -32 + ^
STACK CFI 2f2ac .cfa: sp 32 +
STACK CFI 2f2b4 .cfa: sp 0 +
STACK CFI 2f2b8 .cfa: x29 32 +
STACK CFI 2f2d0 .cfa: sp 32 +
STACK CFI 2f2d8 .cfa: sp 0 +
STACK CFI 2f2dc .cfa: x29 32 +
STACK CFI INIT 2f2f0 d20 .cfa: sp 0 +
STACK CFI 2f2f4 .cfa: sp 112 +
STACK CFI 2f310 .cfa: x29 96 + x19: .cfa -8 + ^ x20: .cfa -16 + ^ x21: .cfa -24 + ^ x22: .cfa -32 + ^ x23: .cfa -40 + ^ x24: .cfa -48 + ^ x25: .cfa -56 + ^ x26: .cfa -64 + ^ x27: .cfa -72 + ^ x28: .cfa -80 + ^ .ra: .cfa -88 + ^ x29: .cfa -96 + ^ v8: .cfa -112 + ^
STACK CFI 2fe8c .cfa: sp 112 +
STACK CFI 2fea8 .cfa: sp 0 +
STACK CFI 2feac .cfa: x29 96 +
STACK CFI INIT 30010 3bc .cfa: sp 0 +
STACK CFI 30014 .cfa: sp 432 +
STACK CFI 30030 .cfa: x29 96 + x19: .cfa -8 + ^ x20: .cfa -16 + ^ x21: .cfa -24 + ^ x22: .cfa -32 + ^ x23: .cfa -40 + ^ x24: .cfa -48 + ^ x25: .cfa -56 + ^ x26: .cfa -64 + ^ x27: .cfa -72 + ^ x28: .cfa -80 + ^ .ra: .cfa -88 + ^ x29: .cfa -96 + ^
STACK CFI 30280 .cfa: sp 432 +
STACK CFI 3029c .cfa: sp 0 +
STACK CFI 302a0 .cfa: x29 96 +
STACK CFI INIT 303cc 340 .cfa: sp 0 +
STACK CFI 303d0 .cfa: sp 96 +
STACK CFI 303e8 .cfa: x29 96 + x19: .cfa -8 + ^ x20: .cfa -16 + ^ x21: .cfa -24 + ^ x22: .cfa -32 + ^ x23: .cfa -40 + ^ x24: .cfa -48 + ^ x25: .cfa -56 + ^ x26: .cfa -64 + ^ x28: .cfa -80 + ^ .ra: .cfa -88 + ^ x29: .cfa -96 + ^
STACK CFI 3067c .cfa: sp 96 +
STACK CFI 30694 .cfa: sp 0 +
STACK CFI 30698 .cfa: x29 96 +
STACK CFI INIT 3070c 340 .cfa: sp 0 +
STACK CFI 30710 .cfa: sp 96 +
STACK CFI 30728 .cfa: x29 96 + x19: .cfa -8 + ^ x20: .cfa -16 + ^ x21: .cfa -24 + ^ x22: .cfa -32 + ^ x23: .cfa -40 + ^ x24: .cfa -48 + ^ x25: .cfa -56 + ^ x26: .cfa -64 + ^ x28: .cfa -80 + ^ .ra: .cfa -88 + ^ x29: .cfa -96 + ^
STACK CFI 309bc .cfa: sp 96 +
STACK CFI 309d4 .cfa: sp 0 +
STACK CFI 309d8 .cfa: x29 96 +
STACK CFI INIT 30a4c 360 .cfa: sp 0 +
STACK CFI 30a50 .cfa: sp 96 +
STACK CFI 30a68 .cfa: x29 96 + x19: .cfa -8 + ^ x20: .cfa -16 + ^ x21: .cfa -24 + ^ x22: .cfa -32 + ^ x23: .cfa -40 + ^ x24: .cfa -48 + ^ x25: .cfa -56 + ^ x26: .cfa -64 + ^ x28: .cfa -80 + ^ .ra: .cfa -88 + ^ x29: .cfa -96 + ^
STACK CFI 30cf8 .cfa: sp 96 +
STACK CFI 30d10 .cfa: sp 0 +
STACK CFI 30d14 .cfa: x29 96 +
STACK CFI INIT 30df4 3e0 .cfa: sp 0 +
STACK CFI 30df8 .cfa: sp 176 +
STACK CFI 30e0c .cfa: x29 64 + x19: .cfa -8 + ^ x20: .cfa -16 + ^ x21: .cfa -24 + ^ x22: .cfa -32 + ^ x23: .cfa -48 + ^ .ra: .cfa -56 + ^ x29: .cfa -64 + ^
STACK CFI 310d8 .cfa: sp 176 +
STACK CFI 310ec .cfa: sp 0 +
STACK CFI 310f0 .cfa: x29 64 +
STACK CFI INIT 31218 12c .cfa: sp 0 +
STACK CFI 3121c .cfa: sp 80 +
STACK CFI 31230 .cfa: x29 80 + x19: .cfa -8 + ^ x20: .cfa -16 + ^ x21: .cfa -24 + ^ x22: .cfa -32 + ^ x23: .cfa -40 + ^ x24: .cfa -48 + ^ x25: .cfa -56 + ^ x26: .cfa -64 + ^ .ra: .cfa -72 + ^ x29: .cfa -80 + ^
STACK CFI 312f8 .cfa: sp 80 +
STACK CFI 3130c .cfa: sp 0 +
STACK CFI 31310 .cfa: x29 80 +
STACK CFI INIT 31440 254 .cfa: sp 0 +
STACK CFI 31444 .cfa: sp 96 +
STACK CFI 3145c .cfa: x29 80 + x19: .cfa -8 + ^ x20: .cfa -16 + ^ x21: .cfa -24 + ^ x22: .cfa -32 + ^ x23: .cfa -40 + ^ x24: .cfa -48 + ^ x25: .cfa -64 + ^ .ra: .cfa -72 + ^ x29: .cfa -80 + ^
STACK CFI 31670 .cfa: sp 96 +
STACK CFI 31688 .cfa: sp 0 +
STACK CFI 3168c .cfa: x29 80 +
STACK CFI INIT 31694 480 .cfa: sp 0 +
STACK CFI 31698 .cfa: sp 224 +
STACK CFI 316b4 .cfa: x29 96 + x19: .cfa -8 + ^ x20: .cfa -16 + ^ x21: .cfa -24 + ^ x22: .cfa -32 + ^ x23: .cfa -40 + ^ x24: .cfa -48 + ^ x25: .cfa -56 + ^ x26: .cfa -64 + ^ x27: .cfa -80 + ^ .ra: .cfa -88 + ^ x29: .cfa -96 + ^
STACK CFI 31920 .cfa: sp 224 +
STACK CFI 3193c .cfa: sp 0 +
STACK CFI 31940 .cfa: x29 96 +
STACK CFI 31a0c .cfa: sp 224 +
STACK CFI 31a28 .cfa: sp 0 +
STACK CFI 31a2c .cfa: x29 96 +
STACK CFI INIT 31b30 400 .cfa: sp 0 +
STACK CFI 31b34 .cfa: sp 224 +
STACK CFI 31b48 .cfa: x29 64 + x19: .cfa -8 + ^ x20: .cfa -16 + ^ x21: .cfa -24 + ^ x22: .cfa -32 + ^ x23: .cfa -40 + ^ x24: .cfa -48 + ^ .ra: .cfa -56 + ^ x29: .cfa -64 + ^
STACK CFI 31dfc .cfa: sp 224 +
STACK CFI 31e10 .cfa: sp 0 +
STACK CFI 31e14 .cfa: x29 64 +
STACK CFI INIT 31f80 74 .cfa: sp 0 +
STACK CFI 31f84 .cfa: sp 48 +
STACK CFI 31f90 .cfa: x29 32 + x19: .cfa -8 + ^ x20: .cfa -16 + ^ .ra: .cfa -24 + ^ x29: .cfa -32 + ^
STACK CFI 31fdc .cfa: sp 48 +
STACK CFI 31fe8 .cfa: sp 0 +
STACK CFI 31fec .cfa: x29 32 +
STACK CFI INIT 31ff8 154 .cfa: sp 0 +
STACK CFI 31ffc .cfa: sp 384 +
STACK CFI 32010 .cfa: x29 64 + x19: .cfa -8 + ^ x20: .cfa -16 + ^ x21: .cfa -24 + ^ x22: .cfa -32 + ^ x23: .cfa -40 + ^ x28: .cfa -48 + ^ .ra: .cfa -56 + ^ x29: .cfa -64 + ^
STACK CFI 320f4 .cfa: sp 384 +
STACK CFI 32108 .cfa: sp 0 +
STACK CFI 3210c .cfa: x29 64 +
STACK CFI INIT 321a4 178 .cfa: sp 0 +
STACK CFI 321a8 .cfa: sp 80 +
STACK CFI 321bc .cfa: x29 80 + x19: .cfa -8 + ^ x20: .cfa -16 + ^ x21: .cfa -24 + ^ x22: .cfa -32 + ^ x23: .cfa -40 + ^ x24: .cfa -48 + ^ x25: .cfa -64 + ^ .ra: .cfa -72 + ^ x29: .cfa -80 + ^
STACK CFI 322e8 .cfa: sp 80 +
STACK CFI 322fc .cfa: sp 0 +
STACK CFI 32300 .cfa: x29 80 +
STACK CFI INIT 32464 228 .cfa: sp 0 +
STACK CFI 32468 .cfa: sp 128 +
STACK CFI 32480 .cfa: x29 80 + x19: .cfa -8 + ^ x20: .cfa -16 + ^ x21: .cfa -24 + ^ x22: .cfa -32 + ^ x23: .cfa -40 + ^ x24: .cfa -48 + ^ x25: .cfa -64 + ^ .ra: .cfa -72 + ^ x29: .cfa -80 + ^
STACK CFI 3261c .cfa: sp 128 +
STACK CFI 32634 .cfa: sp 0 +
STACK CFI 32638 .cfa: x29 80 +
STACK CFI INIT 32d54 148 .cfa: sp 0 +
STACK CFI 32d58 .cfa: sp 112 +
STACK CFI 32d74 .cfa: x29 56 + x19: .cfa -8 + ^ x20: .cfa -16 + ^ x21: .cfa -24 + ^ x22: .cfa -32 + ^ x23: .cfa -40 + ^ .ra: .cfa -48 + ^ x29: .cfa -56 + ^ v8: .cfa -64 + ^ v9: .cfa -72 + ^ v10: .cfa -80 + ^
STACK CFI 32e4c .cfa: sp 112 +
STACK CFI 32e68 .cfa: sp 0 +
STACK CFI 32e6c .cfa: x29 56 +
STACK CFI INIT 3328c 480 .cfa: sp 0 +
STACK CFI 33290 .cfa: sp 224 +
STACK CFI 332ac .cfa: x29 96 + x19: .cfa -8 + ^ x20: .cfa -16 + ^ x21: .cfa -24 + ^ x22: .cfa -32 + ^ x23: .cfa -40 + ^ x24: .cfa -48 + ^ x25: .cfa -56 + ^ x26: .cfa -64 + ^ x27: .cfa -80 + ^ .ra: .cfa -88 + ^ x29: .cfa -96 + ^
STACK CFI 33518 .cfa: sp 224 +
STACK CFI 33534 .cfa: sp 0 +
STACK CFI 33538 .cfa: x29 96 +
STACK CFI 33604 .cfa: sp 224 +
STACK CFI 33620 .cfa: sp 0 +
STACK CFI 33624 .cfa: x29 96 +
STACK CFI INIT 33728 42c .cfa: sp 0 +
STACK CFI 3372c .cfa: sp 256 +
STACK CFI 33740 .cfa: x29 64 + x19: .cfa -8 + ^ x20: .cfa -16 + ^ x21: .cfa -24 + ^ x22: .cfa -32 + ^ x23: .cfa -40 + ^ x24: .cfa -48 + ^ .ra: .cfa -56 + ^ x29: .cfa -64 + ^
STACK CFI 33a08 .cfa: sp 256 +
STACK CFI 33a1c .cfa: sp 0 +
STACK CFI 33a20 .cfa: x29 64 +
STACK CFI INIT 33b58 37c .cfa: sp 0 +
STACK CFI 33b5c .cfa: sp 128 +
STACK CFI 33b70 .cfa: x29 64 + x19: .cfa -8 + ^ x20: .cfa -16 + ^ x21: .cfa -24 + ^ x22: .cfa -32 + ^ x23: .cfa -40 + ^ x24: .cfa -48 + ^ .ra: .cfa -56 + ^ x29: .cfa -64 + ^
STACK CFI 33e44 .cfa: sp 128 +
STACK CFI 33e58 .cfa: sp 0 +
STACK CFI 33e5c .cfa: x29 64 +
STACK CFI INIT 33ed4 280 .cfa: sp 0 +
STACK CFI 33ed8 .cfa: sp 144 +
STACK CFI 33eec .cfa: x29 64 + x19: .cfa -8 + ^ x20: .cfa -16 + ^ x21: .cfa -24 + ^ x22: .cfa -32 + ^ x23: .cfa -40 + ^ x24: .cfa -48 + ^ .ra: .cfa -56 + ^ x29: .cfa -64 + ^
STACK CFI 340a4 .cfa: sp 144 +
STACK CFI 340b8 .cfa: sp 0 +
STACK CFI 340bc .cfa: x29 64 +
STACK CFI INIT 34154 764 .cfa: sp 0 +
STACK CFI 34158 .cfa: sp 208 +
STACK CFI 34174 .cfa: x29 96 + x19: .cfa -8 + ^ x20: .cfa -16 + ^ x21: .cfa -24 + ^ x22: .cfa -32 + ^ x23: .cfa -40 + ^ x24: .cfa -48 + ^ x25: .cfa -56 + ^ x26: .cfa -64 + ^ x27: .cfa -72 + ^ x28: .cfa -80 + ^ .ra: .cfa -88 + ^ x29: .cfa -96 + ^
STACK CFI 342ec .cfa: sp 208 +
STACK CFI 34308 .cfa: sp 0 +
STACK CFI 3430c .cfa: x29 96 +
STACK CFI 34768 .cfa: sp 208 +
STACK CFI 34784 .cfa: sp 0 +
STACK CFI 34788 .cfa: x29 96 +
STACK CFI INIT 348d4 388 .cfa: sp 0 +
STACK CFI 348d8 .cfa: sp 256 +
STACK CFI 348ec .cfa: x29 64 + x19: .cfa -8 + ^ x20: .cfa -16 + ^ x21: .cfa -24 + ^ x22: .cfa -32 + ^ x23: .cfa -48 + ^ .ra: .cfa -56 + ^ x29: .cfa -64 + ^
STACK CFI 34b30 .cfa: sp 256 +
STACK CFI 34b44 .cfa: sp 0 +
STACK CFI 34b48 .cfa: x29 64 +
STACK CFI INIT 34d78 168 .cfa: sp 0 +
STACK CFI 34d7c .cfa: sp 384 +
STACK CFI 34d90 .cfa: x29 64 + x19: .cfa -8 + ^ x20: .cfa -16 + ^ x21: .cfa -24 + ^ x22: .cfa -32 + ^ x23: .cfa -40 + ^ x28: .cfa -48 + ^ .ra: .cfa -56 + ^ x29: .cfa -64 + ^
STACK CFI 34e88 .cfa: sp 384 +
STACK CFI 34e9c .cfa: sp 0 +
STACK CFI 34ea0 .cfa: x29 64 +
STACK CFI INIT 34ee4 1f00 .cfa: sp 0 +
STACK CFI 34ee8 .cfa: sp 416 +
STACK CFI 34f0c .cfa: x29 96 + x19: .cfa -8 + ^ x20: .cfa -16 + ^ x21: .cfa -24 + ^ x22: .cfa -32 + ^ x23: .cfa -40 + ^ x24: .cfa -48 + ^ x25: .cfa -56 + ^ x26: .cfa -64 + ^ x27: .cfa -72 + ^ x28: .cfa -80 + ^ .ra: .cfa -88 + ^ x29: .cfa -96 + ^ v8: .cfa -104 + ^ v9: .cfa -112 + ^ v10: .cfa -120 + ^ v11: .cfa -128 + ^
STACK CFI 34fa8 .cfa: sp 416 +
STACK CFI 34fcc .cfa: sp 0 +
STACK CFI 34fd0 .cfa: x29 96 +
STACK CFI INIT 36de4 648 .cfa: sp 0 +
STACK CFI 36de8 .cfa: sp 224 +
STACK CFI 36e04 .cfa: x29 96 + x19: .cfa -8 + ^ x20: .cfa -16 + ^ x21: .cfa -24 + ^ x22: .cfa -32 + ^ x23: .cfa -40 + ^ x24: .cfa -48 + ^ x25: .cfa -56 + ^ x26: .cfa -64 + ^ x27: .cfa -72 + ^ x28: .cfa -80 + ^ .ra: .cfa -88 + ^ x29: .cfa -96 + ^
STACK CFI 372bc .cfa: sp 224 +
STACK CFI 372d8 .cfa: sp 0 +
STACK CFI 372dc .cfa: x29 96 +
STACK CFI INIT 3742c 144 .cfa: sp 0 +
STACK CFI 37430 .cfa: sp 80 +
STACK CFI 37440 .cfa: x29 48 + x19: .cfa -8 + ^ x20: .cfa -16 + ^ x21: .cfa -32 + ^ .ra: .cfa -40 + ^ x29: .cfa -48 + ^
STACK CFI 37528 .cfa: sp 80 +
STACK CFI 37538 .cfa: sp 0 +
STACK CFI 3753c .cfa: x29 48 +
STACK CFI INIT 37570 c8 .cfa: sp 0 +
STACK CFI 37574 .cfa: sp 48 +
STACK CFI 37580 .cfa: x29 48 + x19: .cfa -8 + ^ x20: .cfa -16 + ^ x21: .cfa -32 + ^ .ra: .cfa -40 + ^ x29: .cfa -48 + ^
STACK CFI 37604 .cfa: sp 48 +
STACK CFI 37610 .cfa: sp 0 +
STACK CFI 37614 .cfa: sp 48 +
STACK CFI 37620 .cfa: sp 0 +
STACK CFI 37624 .cfa: x29 48 +
STACK CFI INIT 37638 4cc .cfa: sp 0 +
STACK CFI 3763c .cfa: sp 96 +
STACK CFI 37654 .cfa: x29 96 + x19: .cfa -8 + ^ x20: .cfa -16 + ^ x21: .cfa -24 + ^ x22: .cfa -32 + ^ x23: .cfa -40 + ^ x24: .cfa -48 + ^ x25: .cfa -56 + ^ x26: .cfa -64 + ^ x28: .cfa -80 + ^ .ra: .cfa -88 + ^ x29: .cfa -96 + ^
STACK CFI 37a58 .cfa: sp 96 +
STACK CFI 37a70 .cfa: sp 0 +
STACK CFI 37a74 .cfa: x29 96 +
STACK CFI INIT 37b04 494 .cfa: sp 0 +
STACK CFI 37b08 .cfa: sp 80 +
STACK CFI 37b1c .cfa: x29 80 + x19: .cfa -8 + ^ x20: .cfa -16 + ^ x21: .cfa -24 + ^ x22: .cfa -32 + ^ x23: .cfa -40 + ^ x24: .cfa -48 + ^ x25: .cfa -56 + ^ x28: .cfa -64 + ^ .ra: .cfa -72 + ^ x29: .cfa -80 + ^
STACK CFI 37efc .cfa: sp 80 +
STACK CFI 37f10 .cfa: sp 0 +
STACK CFI 37f14 .cfa: x29 80 +
STACK CFI INIT 37f98 35c .cfa: sp 0 +
STACK CFI 37f9c .cfa: sp 128 +
STACK CFI 37fb0 .cfa: x29 64 + x19: .cfa -8 + ^ x20: .cfa -16 + ^ x21: .cfa -24 + ^ x22: .cfa -32 + ^ x23: .cfa -48 + ^ .ra: .cfa -56 + ^ x29: .cfa -64 + ^
STACK CFI 38270 .cfa: sp 128 +
STACK CFI 38284 .cfa: sp 0 +
STACK CFI 38288 .cfa: x29 64 +
STACK CFI INIT 382f4 4d0 .cfa: sp 0 +
STACK CFI 382f8 .cfa: sp 112 +
STACK CFI 3830c .cfa: x29 64 + x19: .cfa -8 + ^ x20: .cfa -16 + ^ x21: .cfa -24 + ^ x22: .cfa -32 + ^ x23: .cfa -48 + ^ .ra: .cfa -56 + ^ x29: .cfa -64 + ^
STACK CFI 38734 .cfa: sp 112 +
STACK CFI 38748 .cfa: sp 0 +
STACK CFI 3874c .cfa: x29 64 +
STACK CFI INIT 387c4 298 .cfa: sp 0 +
STACK CFI 387c8 .cfa: sp 96 +
STACK CFI 387dc .cfa: x29 64 + x19: .cfa -8 + ^ x20: .cfa -16 + ^ x21: .cfa -24 + ^ x22: .cfa -32 + ^ x23: .cfa -48 + ^ .ra: .cfa -56 + ^ x29: .cfa -64 + ^
STACK CFI 38a0c .cfa: sp 96 +
STACK CFI 38a20 .cfa: sp 0 +
STACK CFI 38a24 .cfa: x29 64 +
STACK CFI INIT 38a5c 204 .cfa: sp 0 +
STACK CFI 38a60 .cfa: sp 80 +
STACK CFI 38a74 .cfa: x29 80 + x19: .cfa -8 + ^ x20: .cfa -16 + ^ x21: .cfa -24 + ^ x22: .cfa -32 + ^ x23: .cfa -40 + ^ x24: .cfa -48 + ^ x25: .cfa -56 + ^ x28: .cfa -64 + ^ .ra: .cfa -72 + ^ x29: .cfa -80 + ^
STACK CFI 38b58 .cfa: sp 80 +
STACK CFI 38b6c .cfa: sp 0 +
STACK CFI 38b70 .cfa: x29 80 +
STACK CFI 38c00 .cfa: sp 80 +
STACK CFI 38c14 .cfa: sp 0 +
STACK CFI 38c18 .cfa: x29 80 +
STACK CFI INIT 38c60 754 .cfa: sp 0 +
STACK CFI 38c64 .cfa: sp 112 +
STACK CFI 38c80 .cfa: x29 96 + x19: .cfa -8 + ^ x20: .cfa -16 + ^ x21: .cfa -24 + ^ x22: .cfa -32 + ^ x23: .cfa -40 + ^ x24: .cfa -48 + ^ x25: .cfa -56 + ^ x26: .cfa -64 + ^ x27: .cfa -72 + ^ x28: .cfa -80 + ^ .ra: .cfa -88 + ^ x29: .cfa -96 + ^ v8: .cfa -104 + ^ v9: .cfa -112 + ^
STACK CFI 392a0 .cfa: sp 112 +
STACK CFI 392bc .cfa: sp 0 +
STACK CFI 392c0 .cfa: x29 96 +
STACK CFI INIT 39448 50 .cfa: sp 0 +
STACK CFI 3944c .cfa: sp 32 +
STACK CFI 39454 .cfa: x29 32 + x19: .cfa -8 + ^ x20: .cfa -16 + ^ .ra: .cfa -24 + ^ x29: .cfa -32 + ^
STACK CFI INIT 39694 794 .cfa: sp 0 +
STACK CFI 39698 .cfa: sp 96 +
STACK CFI 396b0 .cfa: x29 96 + x19: .cfa -8 + ^ x20: .cfa -16 + ^ x21: .cfa -24 + ^ x22: .cfa -32 + ^ x23: .cfa -40 + ^ x24: .cfa -48 + ^ x25: .cfa -56 + ^ x26: .cfa -64 + ^ x27: .cfa -72 + ^ x28: .cfa -80 + ^ .ra: .cfa -88 + ^ x29: .cfa -96 + ^
STACK CFI 39d0c .cfa: sp 96 +
STACK CFI 39d24 .cfa: sp 0 +
STACK CFI 39d28 .cfa: x29 96 +
STACK CFI INIT 39ef0 480 .cfa: sp 0 +
STACK CFI 39ef4 .cfa: sp 224 +
STACK CFI 39f10 .cfa: x29 96 + x19: .cfa -8 + ^ x20: .cfa -16 + ^ x21: .cfa -24 + ^ x22: .cfa -32 + ^ x23: .cfa -40 + ^ x24: .cfa -48 + ^ x25: .cfa -56 + ^ x26: .cfa -64 + ^ x27: .cfa -80 + ^ .ra: .cfa -88 + ^ x29: .cfa -96 + ^
STACK CFI 3a17c .cfa: sp 224 +
STACK CFI 3a198 .cfa: sp 0 +
STACK CFI 3a19c .cfa: x29 96 +
STACK CFI 3a268 .cfa: sp 224 +
STACK CFI 3a284 .cfa: sp 0 +
STACK CFI 3a288 .cfa: x29 96 +
STACK CFI INIT 3a38c 388 .cfa: sp 0 +
STACK CFI 3a390 .cfa: sp 256 +
STACK CFI 3a3a4 .cfa: x29 64 + x19: .cfa -8 + ^ x20: .cfa -16 + ^ x21: .cfa -24 + ^ x22: .cfa -32 + ^ x23: .cfa -48 + ^ .ra: .cfa -56 + ^ x29: .cfa -64 + ^
STACK CFI 3a5e8 .cfa: sp 256 +
STACK CFI 3a5fc .cfa: sp 0 +
STACK CFI 3a600 .cfa: x29 64 +
STACK CFI INIT 3a718 9c .cfa: sp 0 +
STACK CFI 3a71c .cfa: sp 48 +
STACK CFI 3a728 .cfa: x29 48 + x19: .cfa -8 + ^ x20: .cfa -16 + ^ x21: .cfa -24 + ^ x22: .cfa -32 + ^ .ra: .cfa -40 + ^ x29: .cfa -48 + ^
STACK CFI 3a790 .cfa: sp 48 +
STACK CFI 3a79c .cfa: sp 0 +
STACK CFI 3a7a0 .cfa: x29 48 +
STACK CFI INIT 3a7b4 5fc .cfa: sp 0 +
STACK CFI 3a7b8 .cfa: sp 448 +
STACK CFI 3a7d0 .cfa: x29 80 + x19: .cfa -8 + ^ x20: .cfa -16 + ^ x21: .cfa -24 + ^ x22: .cfa -32 + ^ x23: .cfa -40 + ^ x24: .cfa -48 + ^ x28: .cfa -64 + ^ .ra: .cfa -72 + ^ x29: .cfa -80 + ^
STACK CFI 3ac4c .cfa: sp 448 +
STACK CFI 3ac64 .cfa: sp 0 +
STACK CFI 3ac68 .cfa: x29 80 +
STACK CFI INIT 3adb0 480 .cfa: sp 0 +
STACK CFI 3adb4 .cfa: sp 224 +
STACK CFI 3add0 .cfa: x29 96 + x19: .cfa -8 + ^ x20: .cfa -16 + ^ x21: .cfa -24 + ^ x22: .cfa -32 + ^ x23: .cfa -40 + ^ x24: .cfa -48 + ^ x25: .cfa -56 + ^ x26: .cfa -64 + ^ x27: .cfa -80 + ^ .ra: .cfa -88 + ^ x29: .cfa -96 + ^
STACK CFI 3b03c .cfa: sp 224 +
STACK CFI 3b058 .cfa: sp 0 +
STACK CFI 3b05c .cfa: x29 96 +
STACK CFI 3b128 .cfa: sp 224 +
STACK CFI 3b144 .cfa: sp 0 +
STACK CFI 3b148 .cfa: x29 96 +
STACK CFI INIT 3b24c 384 .cfa: sp 0 +
STACK CFI 3b250 .cfa: sp 192 +
STACK CFI 3b26c .cfa: x29 96 + x19: .cfa -8 + ^ x20: .cfa -16 + ^ x21: .cfa -24 + ^ x22: .cfa -32 + ^ x23: .cfa -40 + ^ x24: .cfa -48 + ^ x25: .cfa -56 + ^ x26: .cfa -64 + ^ x27: .cfa -80 + ^ .ra: .cfa -88 + ^ x29: .cfa -96 + ^
STACK CFI 3b49c .cfa: sp 192 +
STACK CFI 3b4b8 .cfa: sp 0 +
STACK CFI 3b4bc .cfa: x29 96 +
STACK CFI INIT 3b5d0 74 .cfa: sp 0 +
STACK CFI 3b5d4 .cfa: sp 48 +
STACK CFI 3b5e0 .cfa: x29 32 + x19: .cfa -8 + ^ x20: .cfa -16 + ^ .ra: .cfa -24 + ^ x29: .cfa -32 + ^
STACK CFI 3b62c .cfa: sp 48 +
STACK CFI 3b638 .cfa: sp 0 +
STACK CFI 3b63c .cfa: x29 32 +
STACK CFI INIT 3b728 f8 .cfa: sp 0 +
STACK CFI 3b72c .cfa: sp 48 +
STACK CFI 3b738 .cfa: x29 48 + x19: .cfa -8 + ^ x20: .cfa -16 + ^ x21: .cfa -32 + ^ .ra: .cfa -40 + ^ x29: .cfa -48 + ^
STACK CFI 3b7a4 .cfa: sp 48 +
STACK CFI 3b7b0 .cfa: sp 0 +
STACK CFI 3b7b4 .cfa: x29 48 +
STACK CFI INIT 3b8cc 53c .cfa: sp 0 +
STACK CFI 3b8d0 .cfa: sp 96 +
STACK CFI 3b8e8 .cfa: x29 96 + x19: .cfa -8 + ^ x20: .cfa -16 + ^ x21: .cfa -24 + ^ x22: .cfa -32 + ^ x23: .cfa -40 + ^ x24: .cfa -48 + ^ x25: .cfa -56 + ^ x26: .cfa -64 + ^ x28: .cfa -80 + ^ .ra: .cfa -88 + ^ x29: .cfa -96 + ^
STACK CFI 3bd4c .cfa: sp 96 +
STACK CFI 3bd64 .cfa: sp 0 +
STACK CFI 3bd68 .cfa: x29 96 +
STACK CFI INIT 3be34 174 .cfa: sp 0 +
STACK CFI 3be38 .cfa: sp 112 +
STACK CFI 3be48 .cfa: x29 48 + x19: .cfa -8 + ^ x20: .cfa -16 + ^ x21: .cfa -32 + ^ .ra: .cfa -40 + ^ x29: .cfa -48 + ^
STACK CFI 3bf44 .cfa: sp 112 +
STACK CFI 3bf54 .cfa: sp 0 +
STACK CFI 3bf58 .cfa: x29 48 +
STACK CFI INIT 3c148 53c .cfa: sp 0 +
STACK CFI 3c14c .cfa: sp 96 +
STACK CFI 3c164 .cfa: x29 96 + x19: .cfa -8 + ^ x20: .cfa -16 + ^ x21: .cfa -24 + ^ x22: .cfa -32 + ^ x23: .cfa -40 + ^ x24: .cfa -48 + ^ x25: .cfa -56 + ^ x26: .cfa -64 + ^ x28: .cfa -80 + ^ .ra: .cfa -88 + ^ x29: .cfa -96 + ^
STACK CFI 3c5c8 .cfa: sp 96 +
STACK CFI 3c5e0 .cfa: sp 0 +
STACK CFI 3c5e4 .cfa: x29 96 +
STACK CFI INIT 3c6b0 174 .cfa: sp 0 +
STACK CFI 3c6b4 .cfa: sp 112 +
STACK CFI 3c6c4 .cfa: x29 48 + x19: .cfa -8 + ^ x20: .cfa -16 + ^ x21: .cfa -32 + ^ .ra: .cfa -40 + ^ x29: .cfa -48 + ^
STACK CFI 3c7c0 .cfa: sp 112 +
STACK CFI 3c7d0 .cfa: sp 0 +
STACK CFI 3c7d4 .cfa: x29 48 +
STACK CFI INIT 3c974 308 .cfa: sp 0 +
STACK CFI 3c978 .cfa: sp 176 +
STACK CFI 3c98c .cfa: x29 64 + x19: .cfa -8 + ^ x20: .cfa -16 + ^ x21: .cfa -24 + ^ x22: .cfa -32 + ^ x23: .cfa -48 + ^ .ra: .cfa -56 + ^ x29: .cfa -64 + ^
STACK CFI 3cb74 .cfa: sp 176 +
STACK CFI 3cb88 .cfa: sp 0 +
STACK CFI 3cb8c .cfa: x29 64 +
STACK CFI INIT 3cc80 160 .cfa: sp 0 +
STACK CFI 3cc84 .cfa: sp 112 +
STACK CFI 3cc94 .cfa: x29 48 + x19: .cfa -8 + ^ x20: .cfa -16 + ^ x21: .cfa -24 + ^ x22: .cfa -32 + ^ .ra: .cfa -40 + ^ x29: .cfa -48 + ^
STACK CFI 3ccd0 .cfa: sp 112 +
STACK CFI 3cce0 .cfa: sp 0 +
STACK CFI 3cce4 .cfa: x29 48 +
STACK CFI INIT 3cde0 a8 .cfa: sp 0 +
STACK CFI 3cde4 .cfa: sp 32 +
STACK CFI 3cdec .cfa: x29 32 + x19: .cfa -16 + ^ .ra: .cfa -24 + ^ x29: .cfa -32 + ^
STACK CFI 3ce20 .cfa: sp 32 +
STACK CFI 3ce28 .cfa: sp 0 +
STACK CFI 3ce2c .cfa: x29 32 +
STACK CFI 3ce30 .cfa: sp 32 +
STACK CFI 3ce38 .cfa: sp 0 +
STACK CFI 3ce3c .cfa: x29 32 +
STACK CFI INIT 3cf24 12c .cfa: sp 0 +
STACK CFI 3cf28 .cfa: sp 80 +
STACK CFI 3cf38 .cfa: x29 48 + x19: .cfa -8 + ^ x20: .cfa -16 + ^ x21: .cfa -32 + ^ .ra: .cfa -40 + ^ x29: .cfa -48 + ^
STACK CFI 3cfd0 .cfa: sp 80 +
STACK CFI 3cfe0 .cfa: sp 0 +
STACK CFI 3cfe4 .cfa: x29 48 +
STACK CFI INIT 3d0d8 134 .cfa: sp 0 +
STACK CFI 3d0dc .cfa: sp 80 +
STACK CFI 3d0e8 .cfa: x29 32 + x19: .cfa -8 + ^ x20: .cfa -16 + ^ .ra: .cfa -24 + ^ x29: .cfa -32 + ^
STACK CFI 3d118 .cfa: sp 80 +
STACK CFI 3d124 .cfa: sp 0 +
STACK CFI 3d128 .cfa: x29 32 +
STACK CFI INIT 3d20c 78 .cfa: sp 0 +
STACK CFI 3d210 .cfa: sp 32 +
STACK CFI 3d218 .cfa: x29 32 + x19: .cfa -8 + ^ x20: .cfa -16 + ^ .ra: .cfa -24 + ^ x29: .cfa -32 + ^
STACK CFI 3d224 .cfa: sp 32 +
STACK CFI 3d22c .cfa: sp 0 +
STACK CFI 3d230 .cfa: x29 32 +
STACK CFI INIT 3d284 74 .cfa: sp 0 +
STACK CFI 3d288 .cfa: sp 48 +
STACK CFI 3d294 .cfa: x29 32 + x19: .cfa -8 + ^ x20: .cfa -16 + ^ .ra: .cfa -24 + ^ x29: .cfa -32 + ^
STACK CFI 3d2e0 .cfa: sp 48 +
STACK CFI 3d2ec .cfa: sp 0 +
STACK CFI 3d2f0 .cfa: x29 32 +
STACK CFI INIT 3d380 25c .cfa: sp 0 +
STACK CFI 3d384 .cfa: sp 128 +
STACK CFI 3d394 .cfa: x29 48 + x19: .cfa -8 + ^ x20: .cfa -16 + ^ x21: .cfa -32 + ^ .ra: .cfa -40 + ^ x29: .cfa -48 + ^
STACK CFI 3d47c .cfa: sp 128 +
STACK CFI 3d48c .cfa: sp 0 +
STACK CFI 3d490 .cfa: x29 48 +
STACK CFI INIT 3d654 300 .cfa: sp 0 +
STACK CFI 3d658 .cfa: sp 144 +
STACK CFI 3d66c .cfa: x29 64 + x19: .cfa -8 + ^ x20: .cfa -16 + ^ x21: .cfa -24 + ^ x22: .cfa -32 + ^ x23: .cfa -48 + ^ .ra: .cfa -56 + ^ x29: .cfa -64 + ^
STACK CFI 3d800 .cfa: sp 144 +
STACK CFI 3d814 .cfa: sp 0 +
STACK CFI 3d818 .cfa: x29 64 +
STACK CFI INIT 3d9a8 264 .cfa: sp 0 +
STACK CFI 3d9ac .cfa: sp 128 +
STACK CFI 3d9bc .cfa: x29 48 + x19: .cfa -8 + ^ x20: .cfa -16 + ^ x21: .cfa -32 + ^ .ra: .cfa -40 + ^ x29: .cfa -48 + ^
STACK CFI 3dab4 .cfa: sp 128 +
STACK CFI 3dac4 .cfa: sp 0 +
STACK CFI 3dac8 .cfa: x29 48 +
STACK CFI INIT 3dcb4 1b8 .cfa: sp 0 +
STACK CFI 3dcb8 .cfa: sp 160 +
STACK CFI 3dcd4 .cfa: x29 72 + x19: .cfa -8 + ^ x20: .cfa -16 + ^ x21: .cfa -24 + ^ x22: .cfa -32 + ^ x23: .cfa -40 + ^ x24: .cfa -48 + ^ x25: .cfa -56 + ^ .ra: .cfa -64 + ^ x29: .cfa -72 + ^ v8: .cfa -80 + ^
STACK CFI 3dd58 .cfa: sp 160 +
STACK CFI 3dd74 .cfa: sp 0 +
STACK CFI 3dd78 .cfa: x29 72 +
STACK CFI INIT 3de6c 4e4 .cfa: sp 0 +
STACK CFI 3de70 .cfa: sp 96 +
STACK CFI 3de88 .cfa: x29 80 + x19: .cfa -8 + ^ x20: .cfa -16 + ^ x21: .cfa -24 + ^ x22: .cfa -32 + ^ x23: .cfa -40 + ^ x24: .cfa -48 + ^ x25: .cfa -64 + ^ .ra: .cfa -72 + ^ x29: .cfa -80 + ^
STACK CFI 3e2cc .cfa: sp 96 +
STACK CFI 3e2e4 .cfa: sp 0 +
STACK CFI 3e2e8 .cfa: x29 80 +
STACK CFI INIT 3e350 1e8 .cfa: sp 0 +
STACK CFI 3e354 .cfa: sp 192 +
STACK CFI 3e378 .cfa: x29 88 + x19: .cfa -8 + ^ x20: .cfa -16 + ^ x21: .cfa -24 + ^ x22: .cfa -32 + ^ x23: .cfa -40 + ^ x24: .cfa -48 + ^ x25: .cfa -56 + ^ x26: .cfa -64 + ^ x27: .cfa -72 + ^ .ra: .cfa -80 + ^ x29: .cfa -88 + ^ v8: .cfa -96 + ^ v9: .cfa -104 + ^ v10: .cfa -112 + ^
STACK CFI 3e41c .cfa: sp 192 +
STACK CFI 3e440 .cfa: sp 0 +
STACK CFI 3e444 .cfa: x29 88 +
STACK CFI INIT 3e538 8f8 .cfa: sp 0 +
STACK CFI 3e53c .cfa: sp 112 +
STACK CFI 3e554 .cfa: x29 80 + x19: .cfa -8 + ^ x20: .cfa -16 + ^ x21: .cfa -24 + ^ x22: .cfa -32 + ^ x23: .cfa -40 + ^ x24: .cfa -48 + ^ x25: .cfa -64 + ^ .ra: .cfa -72 + ^ x29: .cfa -80 + ^
STACK CFI 3ed6c .cfa: sp 112 +
STACK CFI 3ed84 .cfa: sp 0 +
STACK CFI 3ed88 .cfa: x29 80 +
STACK CFI INIT 3ee30 a4 .cfa: sp 0 +
STACK CFI 3ee34 .cfa: sp 48 +
STACK CFI 3ee40 .cfa: x29 48 + x19: .cfa -8 + ^ x20: .cfa -16 + ^ x21: .cfa -32 + ^ .ra: .cfa -40 + ^ x29: .cfa -48 + ^
STACK CFI 3eeac .cfa: sp 48 +
STACK CFI 3eeb8 .cfa: sp 0 +
STACK CFI 3eebc .cfa: x29 48 +
STACK CFI INIT 3eed4 178 .cfa: sp 0 +
STACK CFI 3eed8 .cfa: sp 128 +
STACK CFI 3eee8 .cfa: x29 48 + x19: .cfa -8 + ^ x20: .cfa -16 + ^ x21: .cfa -24 + ^ x22: .cfa -32 + ^ .ra: .cfa -40 + ^ x29: .cfa -48 + ^
STACK CFI 3ef44 .cfa: sp 128 +
STACK CFI 3ef54 .cfa: sp 0 +
STACK CFI 3ef58 .cfa: x29 48 +
STACK CFI INIT 3f04c 1cc .cfa: sp 0 +
STACK CFI 3f050 .cfa: sp 176 +
STACK CFI 3f068 .cfa: x29 80 + x19: .cfa -8 + ^ x20: .cfa -16 + ^ x21: .cfa -24 + ^ x22: .cfa -32 + ^ x23: .cfa -40 + ^ x24: .cfa -48 + ^ x25: .cfa -56 + ^ x26: .cfa -64 + ^ .ra: .cfa -72 + ^ x29: .cfa -80 + ^
STACK CFI 3f100 .cfa: sp 176 +
STACK CFI 3f118 .cfa: sp 0 +
STACK CFI 3f11c .cfa: x29 80 +
STACK CFI INIT 3f218 4bc .cfa: sp 0 +
STACK CFI 3f21c .cfa: sp 96 +
STACK CFI 3f234 .cfa: x29 80 + x19: .cfa -8 + ^ x20: .cfa -16 + ^ x21: .cfa -24 + ^ x22: .cfa -32 + ^ x23: .cfa -40 + ^ x24: .cfa -48 + ^ x25: .cfa -64 + ^ .ra: .cfa -72 + ^ x29: .cfa -80 + ^
STACK CFI 3f650 .cfa: sp 96 +
STACK CFI 3f668 .cfa: sp 0 +
STACK CFI 3f66c .cfa: x29 80 +
STACK CFI INIT 3f6d8 2e4 .cfa: sp 0 +
STACK CFI 3f6dc .cfa: sp 144 +
STACK CFI 3f6f0 .cfa: x29 64 + x19: .cfa -8 + ^ x20: .cfa -16 + ^ x21: .cfa -24 + ^ x22: .cfa -32 + ^ x23: .cfa -48 + ^ .ra: .cfa -56 + ^ x29: .cfa -64 + ^
STACK CFI 3f868 .cfa: sp 144 +
STACK CFI 3f87c .cfa: sp 0 +
STACK CFI 3f880 .cfa: x29 64 +
STACK CFI INIT 3f9bc 2e4 .cfa: sp 0 +
STACK CFI 3f9c0 .cfa: sp 144 +
STACK CFI 3f9d4 .cfa: x29 64 + x19: .cfa -8 + ^ x20: .cfa -16 + ^ x21: .cfa -24 + ^ x22: .cfa -32 + ^ x23: .cfa -48 + ^ .ra: .cfa -56 + ^ x29: .cfa -64 + ^
STACK CFI 3fb4c .cfa: sp 144 +
STACK CFI 3fb60 .cfa: sp 0 +
STACK CFI 3fb64 .cfa: x29 64 +
STACK CFI INIT 3fca0 2a0 .cfa: sp 0 +
STACK CFI 3fca4 .cfa: sp 144 +
STACK CFI 3fcb8 .cfa: x29 64 + x19: .cfa -8 + ^ x20: .cfa -16 + ^ x21: .cfa -24 + ^ x22: .cfa -32 + ^ x23: .cfa -48 + ^ .ra: .cfa -56 + ^ x29: .cfa -64 + ^
STACK CFI 3fdec .cfa: sp 144 +
STACK CFI 3fe00 .cfa: sp 0 +
STACK CFI 3fe04 .cfa: x29 64 +
STACK CFI INIT 3ff40 2f0 .cfa: sp 0 +
STACK CFI 3ff44 .cfa: sp 144 +
STACK CFI 3ff58 .cfa: x29 64 + x19: .cfa -8 + ^ x20: .cfa -16 + ^ x21: .cfa -24 + ^ x22: .cfa -32 + ^ x23: .cfa -48 + ^ .ra: .cfa -56 + ^ x29: .cfa -64 + ^
STACK CFI 400dc .cfa: sp 144 +
STACK CFI 400f0 .cfa: sp 0 +
STACK CFI 400f4 .cfa: x29 64 +
STACK CFI INIT 40230 4e4 .cfa: sp 0 +
STACK CFI 40234 .cfa: sp 144 +
STACK CFI 40248 .cfa: x29 64 + x19: .cfa -8 + ^ x20: .cfa -16 + ^ x21: .cfa -24 + ^ x22: .cfa -32 + ^ x23: .cfa -48 + ^ .ra: .cfa -56 + ^ x29: .cfa -64 + ^
STACK CFI 4056c .cfa: sp 144 +
STACK CFI 40580 .cfa: sp 0 +
STACK CFI 40584 .cfa: x29 64 +
STACK CFI INIT 40714 154 .cfa: sp 0 +
STACK CFI 40718 .cfa: sp 384 +
STACK CFI 4072c .cfa: x29 64 + x19: .cfa -8 + ^ x20: .cfa -16 + ^ x21: .cfa -24 + ^ x22: .cfa -32 + ^ x23: .cfa -40 + ^ x28: .cfa -48 + ^ .ra: .cfa -56 + ^ x29: .cfa -64 + ^
STACK CFI 40810 .cfa: sp 384 +
STACK CFI 40824 .cfa: sp 0 +
STACK CFI 40828 .cfa: x29 64 +
STACK CFI INIT 40880 50c .cfa: sp 0 +
STACK CFI 40884 .cfa: sp 64 +
STACK CFI 40894 .cfa: x29 64 + x19: .cfa -8 + ^ x20: .cfa -16 + ^ x21: .cfa -24 + ^ x22: .cfa -32 + ^ x23: .cfa -40 + ^ x24: .cfa -48 + ^ .ra: .cfa -56 + ^ x29: .cfa -64 + ^
STACK CFI 409b4 .cfa: sp 64 +
STACK CFI 409c4 .cfa: sp 0 +
STACK CFI 409c8 .cfa: x29 64 +
STACK CFI 40d60 .cfa: sp 64 +
STACK CFI 40d70 .cfa: sp 0 +
STACK CFI 40d74 .cfa: x29 64 +
STACK CFI INIT 410bc 294 .cfa: sp 0 +
STACK CFI 410c0 .cfa: sp 240 +
STACK CFI 410d8 .cfa: x29 80 + x19: .cfa -8 + ^ x20: .cfa -16 + ^ x21: .cfa -24 + ^ x22: .cfa -32 + ^ x23: .cfa -40 + ^ x24: .cfa -48 + ^ x25: .cfa -64 + ^ .ra: .cfa -72 + ^ x29: .cfa -80 + ^
STACK CFI 41278 .cfa: sp 240 +
STACK CFI 41290 .cfa: sp 0 +
STACK CFI 41294 .cfa: x29 80 +
STACK CFI INIT 413cc 50 .cfa: sp 0 +
STACK CFI 413d0 .cfa: sp 32 +
STACK CFI 413d8 .cfa: x29 32 + x19: .cfa -8 + ^ x20: .cfa -16 + ^ .ra: .cfa -24 + ^ x29: .cfa -32 + ^
STACK CFI INIT 41448 7c0 .cfa: sp 0 +
STACK CFI 4144c .cfa: sp 320 +
STACK CFI 41468 .cfa: x29 96 + x19: .cfa -8 + ^ x20: .cfa -16 + ^ x21: .cfa -24 + ^ x22: .cfa -32 + ^ x23: .cfa -40 + ^ x24: .cfa -48 + ^ x25: .cfa -56 + ^ x26: .cfa -64 + ^ x27: .cfa -72 + ^ x28: .cfa -80 + ^ .ra: .cfa -88 + ^ x29: .cfa -96 + ^
STACK CFI 41ab8 .cfa: sp 320 +
STACK CFI 41ad4 .cfa: sp 0 +
STACK CFI 41ad8 .cfa: x29 96 +
STACK CFI INIT 45f88 c74 .cfa: sp 0 +
STACK CFI 45f8c .cfa: sp 96 +
STACK CFI 45fa4 .cfa: x29 96 + x19: .cfa -8 + ^ x20: .cfa -16 + ^ x21: .cfa -24 + ^ x22: .cfa -32 + ^ x23: .cfa -40 + ^ x24: .cfa -48 + ^ x25: .cfa -56 + ^ x26: .cfa -64 + ^ x27: .cfa -72 + ^ x28: .cfa -80 + ^ .ra: .cfa -88 + ^ x29: .cfa -96 + ^
STACK CFI 46a1c .cfa: sp 96 +
STACK CFI 46a34 .cfa: sp 0 +
STACK CFI 46a38 .cfa: x29 96 +
STACK CFI INIT 46d50 26c .cfa: sp 0 +
STACK CFI 46d54 .cfa: sp 128 +
STACK CFI 46d64 .cfa: x29 48 + x19: .cfa -8 + ^ x20: .cfa -16 + ^ x21: .cfa -24 + ^ x22: .cfa -32 + ^ .ra: .cfa -40 + ^ x29: .cfa -48 + ^
STACK CFI 46f08 .cfa: sp 128 +
STACK CFI 46f18 .cfa: sp 0 +
STACK CFI 46f1c .cfa: x29 48 +
STACK CFI INIT 4734c 3b8 .cfa: sp 0 +
STACK CFI 47350 .cfa: sp 96 +
STACK CFI 47368 .cfa: x29 96 + x19: .cfa -8 + ^ x20: .cfa -16 + ^ x21: .cfa -24 + ^ x22: .cfa -32 + ^ x23: .cfa -40 + ^ x24: .cfa -48 + ^ x25: .cfa -56 + ^ x26: .cfa -64 + ^ x27: .cfa -72 + ^ x28: .cfa -80 + ^ .ra: .cfa -88 + ^ x29: .cfa -96 + ^
STACK CFI 476a4 .cfa: sp 96 +
STACK CFI 476bc .cfa: sp 0 +
STACK CFI 476c0 .cfa: x29 96 +
STACK CFI INIT 477a4 cb4 .cfa: sp 0 +
STACK CFI 477a8 .cfa: sp 96 +
STACK CFI 477c0 .cfa: x29 96 + x19: .cfa -8 + ^ x20: .cfa -16 + ^ x21: .cfa -24 + ^ x22: .cfa -32 + ^ x23: .cfa -40 + ^ x24: .cfa -48 + ^ x25: .cfa -56 + ^ x26: .cfa -64 + ^ x27: .cfa -72 + ^ x28: .cfa -80 + ^ .ra: .cfa -88 + ^ x29: .cfa -96 + ^
STACK CFI 48268 .cfa: sp 96 +
STACK CFI 48280 .cfa: sp 0 +
STACK CFI 48284 .cfa: x29 96 +
STACK CFI INIT 48740 afc .cfa: sp 0 +
STACK CFI 48744 .cfa: sp 96 +
STACK CFI 4875c .cfa: x29 96 + x19: .cfa -8 + ^ x20: .cfa -16 + ^ x21: .cfa -24 + ^ x22: .cfa -32 + ^ x23: .cfa -40 + ^ x24: .cfa -48 + ^ x25: .cfa -56 + ^ x26: .cfa -64 + ^ x27: .cfa -72 + ^ x28: .cfa -80 + ^ .ra: .cfa -88 + ^ x29: .cfa -96 + ^
STACK CFI 491b0 .cfa: sp 96 +
STACK CFI 491c8 .cfa: sp 0 +
STACK CFI 491cc .cfa: x29 96 +
STACK CFI INIT 49418 1430 .cfa: sp 0 +
STACK CFI 4941c .cfa: sp 96 +
STACK CFI 49434 .cfa: x29 96 + x19: .cfa -8 + ^ x20: .cfa -16 + ^ x21: .cfa -24 + ^ x22: .cfa -32 + ^ x23: .cfa -40 + ^ x24: .cfa -48 + ^ x25: .cfa -56 + ^ x26: .cfa -64 + ^ x27: .cfa -72 + ^ x28: .cfa -80 + ^ .ra: .cfa -88 + ^ x29: .cfa -96 + ^
STACK CFI 4a6d0 .cfa: sp 96 +
STACK CFI 4a6e8 .cfa: sp 0 +
STACK CFI 4a6ec .cfa: x29 96 +
STACK CFI INIT 4a96c 75c .cfa: sp 0 +
STACK CFI 4a970 .cfa: sp 368 +
STACK CFI 4a98c .cfa: x29 96 + x19: .cfa -8 + ^ x20: .cfa -16 + ^ x21: .cfa -24 + ^ x22: .cfa -32 + ^ x23: .cfa -40 + ^ x24: .cfa -48 + ^ x25: .cfa -56 + ^ x26: .cfa -64 + ^ x27: .cfa -72 + ^ x28: .cfa -80 + ^ .ra: .cfa -88 + ^ x29: .cfa -96 + ^
STACK CFI 4aa40 .cfa: sp 368 +
STACK CFI 4aa5c .cfa: sp 0 +
STACK CFI 4aa60 .cfa: x29 96 +
STACK CFI 4aab4 .cfa: sp 368 +
STACK CFI 4aad0 .cfa: sp 0 +
STACK CFI 4aad4 .cfa: x29 96 +
STACK CFI INIT 4b488 eb0 .cfa: sp 0 +
STACK CFI 4b48c .cfa: sp 96 +
STACK CFI 4b4a4 .cfa: x29 96 + x19: .cfa -8 + ^ x20: .cfa -16 + ^ x21: .cfa -24 + ^ x22: .cfa -32 + ^ x23: .cfa -40 + ^ x24: .cfa -48 + ^ x25: .cfa -56 + ^ x26: .cfa -64 + ^ x27: .cfa -72 + ^ x28: .cfa -80 + ^ .ra: .cfa -88 + ^ x29: .cfa -96 + ^
STACK CFI 4c14c .cfa: sp 96 +
STACK CFI 4c164 .cfa: sp 0 +
STACK CFI 4c168 .cfa: x29 96 +
STACK CFI INIT 4c6ac 1c9c .cfa: sp 0 +
STACK CFI 4c6b0 .cfa: sp 112 +
STACK CFI 4c6cc .cfa: x29 96 + x19: .cfa -8 + ^ x20: .cfa -16 + ^ x21: .cfa -24 + ^ x22: .cfa -32 + ^ x23: .cfa -40 + ^ x24: .cfa -48 + ^ x25: .cfa -56 + ^ x26: .cfa -64 + ^ x27: .cfa -72 + ^ x28: .cfa -80 + ^ .ra: .cfa -88 + ^ x29: .cfa -96 + ^ v8: .cfa -112 + ^
STACK CFI 4cab4 .cfa: sp 112 +
STACK CFI 4cad0 .cfa: sp 0 +
STACK CFI 4cad4 .cfa: x29 96 +
STACK CFI INIT 50b0c 9a0 .cfa: sp 0 +
STACK CFI 50b10 .cfa: sp 144 +
STACK CFI 50b28 .cfa: x29 80 + x19: .cfa -8 + ^ x20: .cfa -16 + ^ x21: .cfa -24 + ^ x22: .cfa -32 + ^ x23: .cfa -40 + ^ x24: .cfa -48 + ^ x25: .cfa -64 + ^ .ra: .cfa -72 + ^ x29: .cfa -80 + ^
STACK CFI 51428 .cfa: sp 144 +
STACK CFI 51440 .cfa: sp 0 +
STACK CFI 51444 .cfa: x29 80 +
STACK CFI INIT 529d8 57c .cfa: sp 0 +
STACK CFI 529dc .cfa: sp 96 +
STACK CFI 529f4 .cfa: x29 96 + x19: .cfa -8 + ^ x20: .cfa -16 + ^ x21: .cfa -24 + ^ x22: .cfa -32 + ^ x23: .cfa -40 + ^ x24: .cfa -48 + ^ x25: .cfa -56 + ^ x26: .cfa -64 + ^ x27: .cfa -72 + ^ x28: .cfa -80 + ^ .ra: .cfa -88 + ^ x29: .cfa -96 + ^
STACK CFI 52eb8 .cfa: sp 96 +
STACK CFI 52ed0 .cfa: sp 0 +
STACK CFI 52ed4 .cfa: x29 96 +
STACK CFI INIT 52f54 67c .cfa: sp 0 +
STACK CFI 52f58 .cfa: sp 96 +
STACK CFI 52f70 .cfa: x29 96 + x19: .cfa -8 + ^ x20: .cfa -16 + ^ x21: .cfa -24 + ^ x22: .cfa -32 + ^ x23: .cfa -40 + ^ x24: .cfa -48 + ^ x25: .cfa -56 + ^ x26: .cfa -64 + ^ x27: .cfa -72 + ^ x28: .cfa -80 + ^ .ra: .cfa -88 + ^ x29: .cfa -96 + ^
STACK CFI 53534 .cfa: sp 96 +
STACK CFI 5354c .cfa: sp 0 +
STACK CFI 53550 .cfa: x29 96 +
