MODULE Linux arm64 FD7724F7E735D575EC0EA002C47459320 alphalaneous.dinnerbone.android64.so
INFO CODE_ID F72477FD35E775D5EC0EA002C4745932EC168C77
INFO GENERATOR mozilla/dump_syms 2.3.4
PUBLIC 30b0 0 __on_dlclose
PUBLIC 30c0 0 __emutls_unregister_key
PUBLIC 30c8 0 __on_dlclose_late
PUBLIC 30d0 0 __atexit_handler_wrapper
PUBLIC 30e4 0 atexit
PUBLIC 3100 0 pthread_atfork
PUBLIC 3110 0 __aarch64_ldadd8_relax
PUBLIC 3140 0 init_have_lse_atomics
PUBLIC 31d8 0 __init_cpu_features_constructor
PUBLIC 3484 0 __init_cpu_features
PUBLIC 3510 0 __aarch64_ldadd8_acq_rel
PUBLIC 3540 0 __cxx_global_var_init
PUBLIC 4098 0 geode::modifier::ModifyBase<geode::modifier::ModifyDerive<MyPlayerObject, PlayerObject> >::~ModifyBase()
PUBLIC 40b0 0 geode::modifier::ModifyDerive<MyPlayerObject, PlayerObject>::apply()
PUBLIC 4724 0 std::__ndk1::shared_ptr<geode::Hook>::~shared_ptr[abi:ne190000]()
PUBLIC 4774 0 geode::impl::ResultData<geode::Hook*, std::__ndk1::basic_string<char, std::__ndk1::char_traits<char>, std::__ndk1::allocator<char> > >::~ResultData()
PUBLIC 47e8 0 std::__ndk1::vector<std::__ndk1::basic_string<char, std::__ndk1::char_traits<char>, std::__ndk1::allocator<char> >, std::__ndk1::allocator<std::__ndk1::basic_string<char, std::__ndk1::char_traits<char>, std::__ndk1::allocator<char> > > >::~vector[abi:ne190000]()
PUBLIC 4864 0 geode::modifier::ModifyBase<geode::modifier::ModifyDerive<MyPlayerObject, PlayerObject> >::apply()
PUBLIC 4868 0 __clang_call_terminate
PUBLIC 4878 0 _ZN5geode15UnwrapExceptionC2IRPNS_4HookEQsr4implE18IsStringStreamableIT_EEENS_4impl5OkTagEOS5_
PUBLIC 4f94 0 std::__ndk1::__throw_bad_variant_access[abi:ne190000]()
PUBLIC m 4fc8 0 std::__ndk1::basic_stringstream<char, std::__ndk1::char_traits<char>, std::__ndk1::allocator<char> >::~basic_stringstream()
PUBLIC 5048 0 geode::UnwrapException::~UnwrapException()
PUBLIC 506c 0 std::__ndk1::basic_string<char, std::__ndk1::char_traits<char>, std::__ndk1::allocator<char> >::__throw_length_error[abi:ne190000]() const
PUBLIC 5080 0 std::__ndk1::__throw_length_error[abi:ne190000](char const*)
PUBLIC 50d0 0 std::length_error::length_error[abi:ne190000](char const*)
PUBLIC 5100 0 std::__throw_bad_array_new_length([abi:ne190000], void)
PUBLIC 5134 0 std::__ndk1::basic_string<char, std::__ndk1::char_traits<char>, std::__ndk1::allocator<char> >::__erase_external_with_move(unsigned long, unsigned long)
PUBLIC 51b8 0 std::__ndk1::basic_string<char, std::__ndk1::char_traits<char>, std::__ndk1::allocator<char> >::__init_copy_ctor_external(char const*, unsigned long)
PUBLIC 5248 0 std::__ndk1::__split_buffer<std::__ndk1::basic_string<char, std::__ndk1::char_traits<char>, std::__ndk1::allocator<char> >, std::__ndk1::allocator<std::__ndk1::basic_string<char, std::__ndk1::char_traits<char>, std::__ndk1::allocator<char> > >&>::~__split_buffer()
PUBLIC 52b0 0 std::__ndk1::vector<std::__ndk1::basic_string<char, std::__ndk1::char_traits<char>, std::__ndk1::allocator<char> >, std::__ndk1::allocator<std::__ndk1::basic_string<char, std::__ndk1::char_traits<char>, std::__ndk1::allocator<char> > > >::__throw_length_error[abi:ne190000]() const
PUBLIC 52c4 0 std::__ndk1::__variant_detail::__visitation::__base::__dispatcher<(unsigned long)0>::__dispatch[abi:ne190000]<std::__ndk1::__variant_detail::__dtor<std::__ndk1::__variant_detail::__traits<geode::Hook*, std::__ndk1::basic_string<char, std::__ndk1::char_traits<char>, std::__ndk1::allocator<char> > >, (std::__ndk1::__variant_detail::_Trait)1>::__destroy[abi:ne190000]()::{lambda(auto:1&)#1}, std::__ndk1::__variant_detail::__base<(std::__ndk1::__variant_detail::__traits<geode::Hook*, std::__ndk1::basic_string<char, std::__ndk1::char_traits<char>, std::__ndk1::allocator<char> > >)1, geode::Hook, std::__ndk1::allocator<char> >&>(std::__ndk1::__variant_detail::__dtor<std::__ndk1::__variant_detail::__traits<geode::Hook*, std::__ndk1::basic_string<char, std::__ndk1::char_traits<char>, std::__ndk1::allocator<char> > >, (std::__ndk1::__variant_detail::_Trait)1>, std::__ndk1::__variant_detail::__base<(std::__ndk1::__variant_detail::__traits<geode::Hook*, std::__ndk1::basic_string<char, std::__ndk1::char_traits<char>, std::__ndk1::allocator<char> > >)1, geode::Hook, std::__ndk1::allocator<char> >&)
PUBLIC 52c8 0 std::__ndk1::__variant_detail::__visitation::__base::__dispatcher<(unsigned long)1>::__dispatch[abi:ne190000]<std::__ndk1::__variant_detail::__dtor<std::__ndk1::__variant_detail::__traits<geode::Hook*, std::__ndk1::basic_string<char, std::__ndk1::char_traits<char>, std::__ndk1::allocator<char> > >, (std::__ndk1::__variant_detail::_Trait)1>::__destroy[abi:ne190000]()::{lambda(auto:1&)#1}, std::__ndk1::__variant_detail::__base<(std::__ndk1::__variant_detail::__traits<geode::Hook*, std::__ndk1::basic_string<char, std::__ndk1::char_traits<char>, std::__ndk1::allocator<char> > >)1, geode::Hook, std::__ndk1::allocator<char> >&>(std::__ndk1::__variant_detail::__dtor<std::__ndk1::__variant_detail::__traits<geode::Hook*, std::__ndk1::basic_string<char, std::__ndk1::char_traits<char>, std::__ndk1::allocator<char> > >, (std::__ndk1::__variant_detail::_Trait)1>, std::__ndk1::__variant_detail::__base<(std::__ndk1::__variant_detail::__traits<geode::Hook*, std::__ndk1::basic_string<char, std::__ndk1::char_traits<char>, std::__ndk1::allocator<char> > >)1, geode::Hook, std::__ndk1::allocator<char> >&)
PUBLIC 52dc 0 std::__ndk1::__tree<std::__ndk1::__value_type<std::__ndk1::basic_string<char, std::__ndk1::char_traits<char>, std::__ndk1::allocator<char> >, std::__ndk1::shared_ptr<geode::Hook> >, std::__ndk1::__map_value_compare<std::__ndk1::basic_string<char, std::__ndk1::char_traits<char>, std::__ndk1::allocator<char> >, std::__ndk1::__value_type<std::__ndk1::basic_string<char, std::__ndk1::char_traits<char>, std::__ndk1::allocator<char> >, std::__ndk1::shared_ptr<geode::Hook> >, std::__ndk1::less<std::__ndk1::basic_string<char, std::__ndk1::char_traits<char>, std::__ndk1::allocator<char> > >, true>, std::__ndk1::allocator<std::__ndk1::__value_type<std::__ndk1::basic_string<char, std::__ndk1::char_traits<char>, std::__ndk1::allocator<char> >, std::__ndk1::shared_ptr<geode::Hook> > > >::destroy(std::__ndk1::__tree_node<std::__ndk1::__value_type<std::__ndk1::basic_string<char, std::__ndk1::char_traits<char>, std::__ndk1::allocator<char> >, std::__ndk1::shared_ptr<geode::Hook> >, void*>*)
PUBLIC 5360 0 geode::modifier::AsStaticFunction_update<MyPlayerObject, void (MyPlayerObject::*)(float)>::Impl<void (MyPlayerObject::*)(float)>::function(MyPlayerObject*, float)
PUBLIC 5424 0 geode::modifier::AsStaticFunction_init<MyPlayerObject, bool (MyPlayerObject::*)(int, int, GJBaseGameLayer*, cocos2d::CCLayer*, bool)>::Impl<bool (MyPlayerObject::*)(int, int, GJBaseGameLayer*, cocos2d::CCLayer*, bool)>::function(MyPlayerObject*, int, int, GJBaseGameLayer*, cocos2d::CCLayer*, bool)
PUBLIC 5590 0 geode::addresser::Addresser::addressOfVirtual<void, PlayerObject, float>(void (PlayerObject::*)(float))
PUBLIC 5658 0 PlayerObject::PlayerObject(geode::ZeroConstructorType)
PUBLIC 5910 0 geode::stl::unordered_set<int, geode::stl::hash<int>, geode::stl::equal_to<int>, std::__ndk1::allocator<int> >::~unordered_set()
PUBLIC 5988 0 geode::stl::unordered_map<int, GameObject*, geode::stl::hash<int>, geode::stl::equal_to<int>, std::__ndk1::allocator<std::__ndk1::pair<int const, GameObject*> > >::~unordered_map()
PUBLIC 5a00 0 geode::stl::unordered_map<int, GJPointDouble, geode::stl::hash<int>, geode::stl::equal_to<int>, std::__ndk1::allocator<std::__ndk1::pair<int const, GJPointDouble> > >::~unordered_map()
PUBLIC 5a78 0 GameObject::~GameObject()
PUBLIC 5ac0 0 gd::map<int, bool>::erase(geode::stl::_rb_tree_node<std::__ndk1::pair<int, bool> >*)
PUBLIC 5b0c 0 std::__ndk1::shared_ptr<tulip::hook::CallingConvention>::~shared_ptr[abi:ne190000]()
PUBLIC 5b5c 0 tulip::hook::HandlerMetadata::~HandlerMetadata()
PUBLIC 5bc0 0 std::__ndk1::__tree<std::__ndk1::__value_type<std::__ndk1::basic_string<char, std::__ndk1::char_traits<char>, std::__ndk1::allocator<char> >, std::__ndk1::shared_ptr<geode::Hook> >, std::__ndk1::__map_value_compare<std::__ndk1::basic_string<char, std::__ndk1::char_traits<char>, std::__ndk1::allocator<char> >, std::__ndk1::__value_type<std::__ndk1::basic_string<char, std::__ndk1::char_traits<char>, std::__ndk1::allocator<char> >, std::__ndk1::shared_ptr<geode::Hook> >, std::__ndk1::less<std::__ndk1::basic_string<char, std::__ndk1::char_traits<char>, std::__ndk1::allocator<char> > >, true>, std::__ndk1::allocator<std::__ndk1::__value_type<std::__ndk1::basic_string<char, std::__ndk1::char_traits<char>, std::__ndk1::allocator<char> >, std::__ndk1::shared_ptr<geode::Hook> > > >::__emplace_unique_key_args<std::__ndk1::basic_string<char, std::__ndk1::char_traits<char>, std::__ndk1::allocator<char> >, std::__ndk1::piecewise_construct_t const&, std::__ndk1::tuple<std::__ndk1::basic_string<char, std::__ndk1::char_traits<char>, std::__ndk1::allocator<char> >&&>, std::__ndk1::tuple<> >(std::__ndk1::basic_string<char, std::__ndk1::char_traits<char>, std::__ndk1::allocator<char> > const&, std::__ndk1::piecewise_construct_t const&, std::__ndk1::tuple<std::__ndk1::basic_string<char, std::__ndk1::char_traits<char>, std::__ndk1::allocator<char> >&&>, std::__ndk1::tuple<>)
PUBLIC 5ecc 0 geode::cast::traverseTypeinfoFor(void*, geode::cast::ClassTypeinfoType const*, char const*)
PUBLIC 5fc4 0 geode::getMod()
PUBLIC m 6000 0 geodeImplicitEntry
PUBLIC 6040 0 <.plt ELF section in alphalaneous.dinnerbone.android64.so>
STACK CFI INIT 30b0 10 .cfa: sp 0 +
STACK CFI INIT 30c0 8 .cfa: sp 0 +
STACK CFI INIT 30c8 8 .cfa: sp 0 +
STACK CFI INIT 30d0 14 .cfa: sp 0 +
STACK CFI INIT 30e4 1c .cfa: sp 0 +
STACK CFI INIT 3100 10 .cfa: sp 0 +
STACK CFI INIT 3110 30 .cfa: sp 0 +
STACK CFI INIT 3140 98 .cfa: sp 0 +
STACK CFI INIT 31d8 2ac .cfa: sp 0 +
STACK CFI INIT 3484 8c .cfa: sp 0 +
STACK CFI INIT 3510 30 .cfa: sp 0 +
STACK CFI INIT 4098 18 .cfa: sp 0 +
STACK CFI INIT 4724 50 .cfa: sp 0 +
STACK CFI 4728 .cfa: sp 32 +
STACK CFI 4730 .cfa: x29 32 + x19: .cfa -16 + ^ .ra: .cfa -24 + ^ x29: .cfa -32 + ^
STACK CFI 4748 .cfa: sp 32 +
STACK CFI 4750 .cfa: sp 0 +
STACK CFI 4754 .cfa: x29 32 +
STACK CFI 4768 .cfa: sp 32 +
STACK CFI 4770 .cfa: sp 0 +
STACK CFI INIT 47e8 7c .cfa: sp 0 +
STACK CFI 47ec .cfa: sp 48 +
STACK CFI 47f8 .cfa: x29 48 + x19: .cfa -8 + ^ x20: .cfa -16 + ^ x21: .cfa -32 + ^ .ra: .cfa -40 + ^ x29: .cfa -48 + ^
STACK CFI 4844 .cfa: sp 48 +
STACK CFI 4850 .cfa: sp 0 +
STACK CFI 4854 .cfa: sp 48 +
STACK CFI 4860 .cfa: sp 0 +
STACK CFI INIT 4864 4 .cfa: sp 0 +
STACK CFI INIT 4868 10 .cfa: sp 0 +
STACK CFI 486c .cfa: sp 16 +
STACK CFI 4870 .cfa: x29 16 + .ra: .cfa -8 + ^ x29: .cfa -16 + ^
STACK CFI INIT 4f94 34 .cfa: sp 0 +
STACK CFI 4f98 .cfa: sp 16 +
STACK CFI 4f9c .cfa: x29 16 + .ra: .cfa -8 + ^ x29: .cfa -16 + ^
STACK CFI INIT 4fc8 80 .cfa: sp 0 +
STACK CFI 4fcc .cfa: sp 48 +
STACK CFI 4fd8 .cfa: x29 48 + x19: .cfa -8 + ^ x20: .cfa -16 + ^ x21: .cfa -32 + ^ .ra: .cfa -40 + ^ x29: .cfa -48 + ^
STACK CFI 5038 .cfa: sp 48 +
STACK CFI 5044 .cfa: sp 0 +
STACK CFI INIT 5048 24 .cfa: sp 0 +
STACK CFI 504c .cfa: sp 32 +
STACK CFI 5054 .cfa: x29 32 + x19: .cfa -16 + ^ .ra: .cfa -24 + ^ x29: .cfa -32 + ^
STACK CFI 5060 .cfa: sp 32 +
STACK CFI 5068 .cfa: sp 0 +
STACK CFI INIT 506c 14 .cfa: sp 0 +
STACK CFI 5070 .cfa: sp 16 +
STACK CFI 5074 .cfa: x29 16 + .ra: .cfa -8 + ^ x29: .cfa -16 + ^
STACK CFI INIT 50d0 30 .cfa: sp 0 +
STACK CFI 50d4 .cfa: sp 32 +
STACK CFI 50dc .cfa: x29 32 + x19: .cfa -16 + ^ .ra: .cfa -24 + ^ x29: .cfa -32 + ^
STACK CFI 50f4 .cfa: sp 32 +
STACK CFI 50fc .cfa: sp 0 +
STACK CFI INIT 5100 34 .cfa: sp 0 +
STACK CFI 5104 .cfa: sp 32 +
STACK CFI 510c .cfa: x29 32 + x19: .cfa -16 + ^ .ra: .cfa -24 + ^ x29: .cfa -32 + ^
STACK CFI INIT 5134 84 .cfa: sp 0 +
STACK CFI 513c .cfa: sp 48 +
STACK CFI 5148 .cfa: x29 48 + x19: .cfa -8 + ^ x20: .cfa -16 + ^ x21: .cfa -32 + ^ .ra: .cfa -40 + ^ x29: .cfa -48 + ^
STACK CFI 51a8 .cfa: sp 48 +
STACK CFI 51b4 .cfa: sp 0 +
STACK CFI INIT 51b8 90 .cfa: sp 0 +
STACK CFI 51bc .cfa: sp 48 +
STACK CFI 51c8 .cfa: x29 48 + x19: .cfa -8 + ^ x20: .cfa -16 + ^ x21: .cfa -24 + ^ x22: .cfa -32 + ^ .ra: .cfa -40 + ^ x29: .cfa -48 + ^
STACK CFI 51e0 .cfa: sp 48 +
STACK CFI 51ec .cfa: sp 0 +
STACK CFI 51f0 .cfa: x29 48 +
STACK CFI 5234 .cfa: sp 48 +
STACK CFI 5240 .cfa: sp 0 +
STACK CFI 5244 .cfa: x29 48 +
STACK CFI INIT 5248 68 .cfa: sp 0 +
STACK CFI 524c .cfa: sp 32 +
STACK CFI 5254 .cfa: x29 32 + x19: .cfa -8 + ^ x20: .cfa -16 + ^ .ra: .cfa -24 + ^ x29: .cfa -32 + ^
STACK CFI 526c .cfa: sp 32 +
STACK CFI 5274 .cfa: sp 0 +
STACK CFI 5278 .cfa: x29 32 +
STACK CFI 52a4 .cfa: sp 32 +
STACK CFI 52ac .cfa: sp 0 +
STACK CFI INIT 52b0 14 .cfa: sp 0 +
STACK CFI 52b4 .cfa: sp 16 +
STACK CFI 52b8 .cfa: x29 16 + .ra: .cfa -8 + ^ x29: .cfa -16 + ^
STACK CFI INIT 52c4 4 .cfa: sp 0 +
STACK CFI INIT 52c8 14 .cfa: sp 0 +
STACK CFI INIT 52dc 84 .cfa: sp 0 +
STACK CFI 52e4 .cfa: sp 32 +
STACK CFI 52ec .cfa: x29 32 + x19: .cfa -8 + ^ x20: .cfa -16 + ^ .ra: .cfa -24 + ^ x29: .cfa -32 + ^
STACK CFI 532c .cfa: sp 32 +
STACK CFI 5334 .cfa: sp 0 +
STACK CFI 533c .cfa: x29 32 +
STACK CFI INIT 5360 c4 .cfa: sp 0 +
STACK CFI 5364 .cfa: sp 48 +
STACK CFI 5370 .cfa: x29 32 + x19: .cfa -8 + ^ x20: .cfa -16 + ^ .ra: .cfa -24 + ^ x29: .cfa -32 + ^ v8: .cfa -48 + ^
STACK CFI 53b0 .cfa: sp 48 +
STACK CFI 53bc .cfa: sp 0 +
STACK CFI 53c0 .cfa: x29 32 +
STACK CFI 5414 .cfa: sp 48 +
STACK CFI 5420 .cfa: sp 0 +
STACK CFI INIT 5424 16c .cfa: sp 0 +
STACK CFI 5428 .cfa: sp 96 +
STACK CFI 543c .cfa: x29 64 + x19: .cfa -8 + ^ x20: .cfa -16 + ^ x21: .cfa -24 + ^ x22: .cfa -32 + ^ x23: .cfa -48 + ^ .ra: .cfa -56 + ^ x29: .cfa -64 + ^
STACK CFI 5574 .cfa: sp 96 +
STACK CFI 5588 .cfa: sp 0 +
STACK CFI 558c .cfa: x29 64 +
STACK CFI INIT 5910 78 .cfa: sp 0 +
STACK CFI 5914 .cfa: sp 48 +
STACK CFI 5920 .cfa: x29 48 + x19: .cfa -8 + ^ x20: .cfa -16 + ^ x21: .cfa -32 + ^ .ra: .cfa -40 + ^ x29: .cfa -48 + ^
STACK CFI 5968 .cfa: sp 48 +
STACK CFI 5974 .cfa: sp 0 +
STACK CFI 5978 .cfa: sp 48 +
STACK CFI 5984 .cfa: sp 0 +
STACK CFI INIT 5988 78 .cfa: sp 0 +
STACK CFI 598c .cfa: sp 48 +
STACK CFI 5998 .cfa: x29 48 + x19: .cfa -8 + ^ x20: .cfa -16 + ^ x21: .cfa -32 + ^ .ra: .cfa -40 + ^ x29: .cfa -48 + ^
STACK CFI 59e0 .cfa: sp 48 +
STACK CFI 59ec .cfa: sp 0 +
STACK CFI 59f0 .cfa: sp 48 +
STACK CFI 59fc .cfa: sp 0 +
STACK CFI INIT 5a00 78 .cfa: sp 0 +
STACK CFI 5a04 .cfa: sp 48 +
STACK CFI 5a10 .cfa: x29 48 + x19: .cfa -8 + ^ x20: .cfa -16 + ^ x21: .cfa -32 + ^ .ra: .cfa -40 + ^ x29: .cfa -48 + ^
STACK CFI 5a58 .cfa: sp 48 +
STACK CFI 5a64 .cfa: sp 0 +
STACK CFI 5a68 .cfa: sp 48 +
STACK CFI 5a74 .cfa: sp 0 +
STACK CFI INIT 5a78 48 .cfa: sp 0 +
STACK CFI 5a7c .cfa: sp 32 +
STACK CFI 5a84 .cfa: x29 32 + x19: .cfa -16 + ^ .ra: .cfa -24 + ^ x29: .cfa -32 + ^
STACK CFI 5ab4 .cfa: sp 32 +
STACK CFI 5abc .cfa: sp 0 +
STACK CFI INIT 5ac0 4c .cfa: sp 0 +
STACK CFI 5ac8 .cfa: sp 32 +
STACK CFI 5ad0 .cfa: x29 32 + x19: .cfa -16 + ^ .ra: .cfa -24 + ^ x29: .cfa -32 + ^
STACK CFI 5b00 .cfa: sp 32 +
STACK CFI 5b08 .cfa: sp 0 +
STACK CFI INIT 5b0c 50 .cfa: sp 0 +
STACK CFI 5b10 .cfa: sp 32 +
STACK CFI 5b18 .cfa: x29 32 + x19: .cfa -16 + ^ .ra: .cfa -24 + ^ x29: .cfa -32 + ^
STACK CFI 5b30 .cfa: sp 32 +
STACK CFI 5b38 .cfa: sp 0 +
STACK CFI 5b3c .cfa: x29 32 +
STACK CFI 5b50 .cfa: sp 32 +
STACK CFI 5b58 .cfa: sp 0 +
STACK CFI INIT 5b5c 64 .cfa: sp 0 +
STACK CFI 5b60 .cfa: sp 32 +
STACK CFI 5b68 .cfa: x29 32 + x19: .cfa -16 + ^ .ra: .cfa -24 + ^ x29: .cfa -32 + ^
STACK CFI 5b94 .cfa: sp 32 +
STACK CFI 5b9c .cfa: sp 0 +
STACK CFI 5ba0 .cfa: x29 32 +
STACK CFI 5bb4 .cfa: sp 32 +
STACK CFI 5bbc .cfa: sp 0 +
STACK CFI INIT 5bc0 30c .cfa: sp 0 +
STACK CFI 5bc4 .cfa: sp 96 +
STACK CFI 5bdc .cfa: x29 96 + x19: .cfa -8 + ^ x20: .cfa -16 + ^ x21: .cfa -24 + ^ x22: .cfa -32 + ^ x23: .cfa -40 + ^ x24: .cfa -48 + ^ x25: .cfa -56 + ^ x26: .cfa -64 + ^ x27: .cfa -80 + ^ .ra: .cfa -88 + ^ x29: .cfa -96 + ^
STACK CFI 5e90 .cfa: sp 96 +
STACK CFI 5ea8 .cfa: sp 0 +
STACK CFI 5eac .cfa: x29 96 +
STACK CFI INIT 5ecc f8 .cfa: sp 0 +
STACK CFI 5ed0 .cfa: sp 64 +
STACK CFI 5ee0 .cfa: x29 64 + x19: .cfa -8 + ^ x20: .cfa -16 + ^ x21: .cfa -24 + ^ x22: .cfa -32 + ^ x23: .cfa -48 + ^ .ra: .cfa -56 + ^ x29: .cfa -64 + ^
STACK CFI 5f3c .cfa: sp 64 +
STACK CFI 5f4c .cfa: sp 0 +
STACK CFI 5f50 .cfa: x29 64 +
STACK CFI 5f6c .cfa: sp 64 +
STACK CFI 5f7c .cfa: sp 0 +
STACK CFI 5f80 .cfa: x29 64 +
STACK CFI 5fb0 .cfa: sp 64 +
STACK CFI 5fc0 .cfa: sp 0 +
STACK CFI INIT 5fc4 3c .cfa: sp 0 +
STACK CFI 5fc8 .cfa: sp 32 +
STACK CFI 5fd0 .cfa: x29 32 + x19: .cfa -16 + ^ .ra: .cfa -24 + ^ x29: .cfa -32 + ^
STACK CFI 5fdc .cfa: sp 32 +
STACK CFI 5fe4 .cfa: sp 0 +
STACK CFI 5fe8 .cfa: x29 32 +
STACK CFI 5ff4 .cfa: sp 32 +
STACK CFI 5ffc .cfa: sp 0 +
STACK CFI INIT 6000 3c .cfa: sp 0 +
STACK CFI 6004 .cfa: sp 32 +
STACK CFI 600c .cfa: x29 32 + x19: .cfa -16 + ^ .ra: .cfa -24 + ^ x29: .cfa -32 + ^
STACK CFI 6018 .cfa: sp 32 +
STACK CFI 6020 .cfa: sp 0 +
STACK CFI 6024 .cfa: x29 32 +
STACK CFI 6030 .cfa: sp 32 +
STACK CFI 6038 .cfa: sp 0 +
STACK CFI INIT 3540 b58 .cfa: sp 0 +
STACK CFI 3544 .cfa: sp 240 +
STACK CFI 3560 .cfa: x29 96 + x19: .cfa -8 + ^ x20: .cfa -16 + ^ x21: .cfa -24 + ^ x22: .cfa -32 + ^ x23: .cfa -40 + ^ x24: .cfa -48 + ^ x25: .cfa -56 + ^ x26: .cfa -64 + ^ x27: .cfa -72 + ^ x28: .cfa -80 + ^ .ra: .cfa -88 + ^ x29: .cfa -96 + ^
STACK CFI 38b0 .cfa: sp 240 +
STACK CFI 38cc .cfa: sp 0 +
STACK CFI 38d0 .cfa: x29 96 +
STACK CFI 3f40 .cfa: sp 240 +
STACK CFI 3f5c .cfa: sp 0 +
STACK CFI 3f60 .cfa: x29 96 +
STACK CFI INIT 40b0 674 .cfa: sp 0 +
STACK CFI 40b4 .cfa: sp 256 +
STACK CFI 40cc .cfa: x29 80 + x19: .cfa -8 + ^ x20: .cfa -16 + ^ x21: .cfa -24 + ^ x22: .cfa -32 + ^ x23: .cfa -40 + ^ x24: .cfa -48 + ^ x25: .cfa -56 + ^ x26: .cfa -64 + ^ .ra: .cfa -72 + ^ x29: .cfa -80 + ^
STACK CFI 4538 .cfa: sp 256 +
STACK CFI 4550 .cfa: sp 0 +
STACK CFI 4554 .cfa: x29 80 +
STACK CFI INIT 4774 74 .cfa: sp 0 +
STACK CFI 4778 .cfa: sp 48 +
STACK CFI 4784 .cfa: x29 32 + x19: .cfa -8 + ^ x20: .cfa -16 + ^ .ra: .cfa -24 + ^ x29: .cfa -32 + ^
STACK CFI 47d0 .cfa: sp 48 +
STACK CFI 47dc .cfa: sp 0 +
STACK CFI 47e0 .cfa: x29 32 +
STACK CFI INIT 4878 71c .cfa: sp 0 +
STACK CFI 487c .cfa: sp 496 +
STACK CFI 4898 .cfa: x29 96 + x19: .cfa -8 + ^ x20: .cfa -16 + ^ x21: .cfa -24 + ^ x22: .cfa -32 + ^ x23: .cfa -40 + ^ x24: .cfa -48 + ^ x25: .cfa -56 + ^ x26: .cfa -64 + ^ x27: .cfa -72 + ^ x28: .cfa -80 + ^ .ra: .cfa -88 + ^ x29: .cfa -96 + ^
STACK CFI 4e64 .cfa: sp 496 +
STACK CFI 4e80 .cfa: sp 0 +
STACK CFI 4e84 .cfa: x29 96 +
STACK CFI INIT 5080 50 .cfa: sp 0 +
STACK CFI 5084 .cfa: sp 32 +
STACK CFI 508c .cfa: x29 32 + x19: .cfa -8 + ^ x20: .cfa -16 + ^ .ra: .cfa -24 + ^ x29: .cfa -32 + ^
STACK CFI INIT 5590 c8 .cfa: sp 0 +
STACK CFI 5594 .cfa: sp 32 +
STACK CFI 559c .cfa: x29 32 + x19: .cfa -8 + ^ x20: .cfa -16 + ^ .ra: .cfa -24 + ^ x29: .cfa -32 + ^
STACK CFI 55d0 .cfa: sp 32 +
STACK CFI 55d8 .cfa: sp 0 +
STACK CFI 55dc .cfa: x29 32 +
STACK CFI 55e0 .cfa: sp 32 +
STACK CFI 55e8 .cfa: sp 0 +
STACK CFI 55ec .cfa: x29 32 +
STACK CFI INIT 5658 2b8 .cfa: sp 0 +
STACK CFI 565c .cfa: sp 48 +
STACK CFI 5668 .cfa: x29 32 + x19: .cfa -8 + ^ x20: .cfa -16 + ^ .ra: .cfa -24 + ^ x29: .cfa -32 + ^ v8: .cfa -48 + ^
STACK CFI 586c .cfa: sp 48 +
STACK CFI 5878 .cfa: sp 0 +
STACK CFI 587c .cfa: x29 32 +
