MODULE Linux arm64 FE83F6D220B10CAB3D6146E53ED7632E0 firee.goldenbest.android64.so
INFO CODE_ID D2F683FEB120AB0C3D6146E53ED7632EEAFAE05F
INFO GENERATOR mozilla/dump_syms 2.3.4
PUBLIC 40b0 0 __on_dlclose
PUBLIC 40c0 0 __emutls_unregister_key
PUBLIC 40c8 0 __on_dlclose_late
PUBLIC 40d0 0 __atexit_handler_wrapper
PUBLIC 40e4 0 atexit
PUBLIC 4100 0 pthread_atfork
PUBLIC 4110 0 __aarch64_ldadd8_relax
PUBLIC 4140 0 init_have_lse_atomics
PUBLIC 41d8 0 __init_cpu_features_constructor
PUBLIC 4774 0 __init_cpu_features
PUBLIC 4800 0 __aarch64_ldadd8_acq_rel
PUBLIC 4830 0 __cxx_global_var_init
PUBLIC 53d0 0 geode::modifier::ModifyBase<geode::modifier::ModifyDerive<hook13<(anonymous namespace)::hook13Parent>, PlayLayer> >::~ModifyBase()
PUBLIC 53e8 0 geode::modifier::ModifyDerive<hook13<(anonymous namespace)::hook13Parent>, PlayLayer>::apply()
PUBLIC 5a34 0 std::__ndk1::shared_ptr<geode::Hook>::~shared_ptr[abi:ne180000]()
PUBLIC 5a84 0 geode::impl::ResultData<geode::Hook*, std::__ndk1::basic_string<char, std::__ndk1::char_traits<char>, std::__ndk1::allocator<char> > >::~ResultData()
PUBLIC 5af8 0 std::__ndk1::vector<std::__ndk1::basic_string<char, std::__ndk1::char_traits<char>, std::__ndk1::allocator<char> >, std::__ndk1::allocator<std::__ndk1::basic_string<char, std::__ndk1::char_traits<char>, std::__ndk1::allocator<char> > > >::~vector[abi:ne180000]()
PUBLIC 5b74 0 geode::modifier::ModifyBase<geode::modifier::ModifyDerive<hook13<(anonymous namespace)::hook13Parent>, PlayLayer> >::apply()
PUBLIC 5b78 0 __clang_call_terminate
PUBLIC 5b88 0 _ZN5geode15UnwrapExceptionC2IRPNS_4HookEQsr4implE18IsStringStreamableIT_EEENS_4impl5OkTagEOS5_
PUBLIC 6284 0 std::__ndk1::__throw_bad_variant_access[abi:ne180000]()
PUBLIC m 62b8 0 std::__ndk1::basic_stringstream<char, std::__ndk1::char_traits<char>, std::__ndk1::allocator<char> >::~basic_stringstream()
PUBLIC 6338 0 geode::UnwrapException::~UnwrapException()
PUBLIC 635c 0 std::__ndk1::basic_string<char, std::__ndk1::char_traits<char>, std::__ndk1::allocator<char> >::__throw_length_error[abi:ne180000]() const
PUBLIC 6370 0 std::__ndk1::__throw_length_error[abi:ne180000](char const*)
PUBLIC 63c0 0 std::length_error::length_error[abi:ne180000](char const*)
PUBLIC 63f0 0 std::__throw_bad_array_new_length([abi:ne180000], void)
PUBLIC 6424 0 std::__ndk1::basic_string<char, std::__ndk1::char_traits<char>, std::__ndk1::allocator<char> >::__init_copy_ctor_external(char const*, unsigned long)
PUBLIC 64a0 0 std::__ndk1::__split_buffer<std::__ndk1::basic_string<char, std::__ndk1::char_traits<char>, std::__ndk1::allocator<char> >, std::__ndk1::allocator<std::__ndk1::basic_string<char, std::__ndk1::char_traits<char>, std::__ndk1::allocator<char> > >&>::~__split_buffer()
PUBLIC 6508 0 std::__ndk1::vector<std::__ndk1::basic_string<char, std::__ndk1::char_traits<char>, std::__ndk1::allocator<char> >, std::__ndk1::allocator<std::__ndk1::basic_string<char, std::__ndk1::char_traits<char>, std::__ndk1::allocator<char> > > >::__throw_length_error[abi:ne180000]() const
PUBLIC 651c 0 std::__ndk1::__variant_detail::__visitation::__base::__dispatcher<(unsigned long)0>::__dispatch[abi:ne180000]<std::__ndk1::__variant_detail::__dtor<std::__ndk1::__variant_detail::__traits<geode::Hook*, std::__ndk1::basic_string<char, std::__ndk1::char_traits<char>, std::__ndk1::allocator<char> > >, (std::__ndk1::__variant_detail::_Trait)1>::__destroy[abi:ne180000]()::{lambda(auto:1&)#1}, std::__ndk1::__variant_detail::__base<(std::__ndk1::__variant_detail::__traits<geode::Hook*, std::__ndk1::basic_string<char, std::__ndk1::char_traits<char>, std::__ndk1::allocator<char> > >)1, geode::Hook, std::__ndk1::allocator<char> >&>(std::__ndk1::__variant_detail::__dtor<std::__ndk1::__variant_detail::__traits<geode::Hook*, std::__ndk1::basic_string<char, std::__ndk1::char_traits<char>, std::__ndk1::allocator<char> > >, (std::__ndk1::__variant_detail::_Trait)1>, std::__ndk1::__variant_detail::__base<(std::__ndk1::__variant_detail::__traits<geode::Hook*, std::__ndk1::basic_string<char, std::__ndk1::char_traits<char>, std::__ndk1::allocator<char> > >)1, geode::Hook, std::__ndk1::allocator<char> >&)
PUBLIC 6520 0 std::__ndk1::__variant_detail::__visitation::__base::__dispatcher<(unsigned long)1>::__dispatch[abi:ne180000]<std::__ndk1::__variant_detail::__dtor<std::__ndk1::__variant_detail::__traits<geode::Hook*, std::__ndk1::basic_string<char, std::__ndk1::char_traits<char>, std::__ndk1::allocator<char> > >, (std::__ndk1::__variant_detail::_Trait)1>::__destroy[abi:ne180000]()::{lambda(auto:1&)#1}, std::__ndk1::__variant_detail::__base<(std::__ndk1::__variant_detail::__traits<geode::Hook*, std::__ndk1::basic_string<char, std::__ndk1::char_traits<char>, std::__ndk1::allocator<char> > >)1, geode::Hook, std::__ndk1::allocator<char> >&>(std::__ndk1::__variant_detail::__dtor<std::__ndk1::__variant_detail::__traits<geode::Hook*, std::__ndk1::basic_string<char, std::__ndk1::char_traits<char>, std::__ndk1::allocator<char> > >, (std::__ndk1::__variant_detail::_Trait)1>, std::__ndk1::__variant_detail::__base<(std::__ndk1::__variant_detail::__traits<geode::Hook*, std::__ndk1::basic_string<char, std::__ndk1::char_traits<char>, std::__ndk1::allocator<char> > >)1, geode::Hook, std::__ndk1::allocator<char> >&)
PUBLIC 6534 0 std::__ndk1::__tree<std::__ndk1::__value_type<std::__ndk1::basic_string<char, std::__ndk1::char_traits<char>, std::__ndk1::allocator<char> >, std::__ndk1::shared_ptr<geode::Hook> >, std::__ndk1::__map_value_compare<std::__ndk1::basic_string<char, std::__ndk1::char_traits<char>, std::__ndk1::allocator<char> >, std::__ndk1::__value_type<std::__ndk1::basic_string<char, std::__ndk1::char_traits<char>, std::__ndk1::allocator<char> >, std::__ndk1::shared_ptr<geode::Hook> >, std::__ndk1::less<std::__ndk1::basic_string<char, std::__ndk1::char_traits<char>, std::__ndk1::allocator<char> > >, true>, std::__ndk1::allocator<std::__ndk1::__value_type<std::__ndk1::basic_string<char, std::__ndk1::char_traits<char>, std::__ndk1::allocator<char> >, std::__ndk1::shared_ptr<geode::Hook> > > >::destroy(std::__ndk1::__tree_node<std::__ndk1::__value_type<std::__ndk1::basic_string<char, std::__ndk1::char_traits<char>, std::__ndk1::allocator<char> >, std::__ndk1::shared_ptr<geode::Hook> >, void*>*)
PUBLIC 65b8 0 geode::modifier::AsStaticFunction_updateProgressbar<hook13<(anonymous namespace)::hook13Parent>, void (hook13<(anonymous namespace)::hook13Parent>::*)()>::Impl<void (hook13<(anonymous namespace)::hook13Parent>::*)()>::function(hook13<(anonymous namespace)::hook13Parent>*)
PUBLIC 6a70 0 geode::modifier::AsStaticFunction_updateTimeLabel<hook13<(anonymous namespace)::hook13Parent>, void (hook13<(anonymous namespace)::hook13Parent>::*)(int, int, bool)>::Impl<void (hook13<(anonymous namespace)::hook13Parent>::*)(int, int, bool)>::function(hook13<(anonymous namespace)::hook13Parent>*, int, int, bool)
PUBLIC 6da8 0 std::__ndk1::shared_ptr<tulip::hook::CallingConvention>::~shared_ptr[abi:ne180000]()
PUBLIC 6df8 0 tulip::hook::HandlerMetadata::~HandlerMetadata()
PUBLIC 6e5c 0 geode::modifier::FieldIntermediate<hook13<(anonymous namespace)::hook13Parent>, PlayLayer>::operator->()
PUBLIC 74a0 0 geode::Mod::getSettingValue<bool>(std::__ndk1::basic_string_view<char, std::__ndk1::char_traits<char> >) const
PUBLIC 75d0 0 geode::modifier::FieldIntermediate<hook13<(anonymous namespace)::hook13Parent>, PlayLayer>::fieldDestructor(void*)
PUBLIC 75d4 0 std::__ndk1::vector<void*, std::__ndk1::allocator<void*> >::__throw_length_error[abi:ne180000]() const
PUBLIC 75e8 0 std::__ndk1::vector<std::__ndk1::function<void (void*)>, std::__ndk1::allocator<std::__ndk1::function<void (void*)> > >::__throw_length_error[abi:ne180000]() const
PUBLIC 75fc 0 std::__ndk1::vector<void*, std::__ndk1::allocator<void*> >::__throw_out_of_range[abi:ne180000]() const
PUBLIC 7608 0 std::__ndk1::__throw_out_of_range[abi:ne180000](char const*)
PUBLIC 7650 0 std::out_of_range::out_of_range[abi:ne180000](char const*)
PUBLIC 7688 0 std::__ndk1::vector<std::__ndk1::function<void (void*)>, std::__ndk1::allocator<std::__ndk1::function<void (void*)> > >::__throw_out_of_range[abi:ne180000]() const
PUBLIC 7694 0 std::__ndk1::__function::__base<void (void*)>::~__base()
PUBLIC 7698 0 std::__ndk1::__function::__func<void (*)(void*), std::__ndk1::allocator<void (*)(void*)>, void (void*)>::~__func()
PUBLIC 769c 0 std::__ndk1::__function::__func<void (*)(void*), std::__ndk1::allocator<void (*)(void*)>, void (void*)>::__clone() const
PUBLIC 76d4 0 std::__ndk1::__function::__func<void (*)(void*), std::__ndk1::allocator<void (*)(void*)>, void (void*)>::__clone(std::__ndk1::__function::__base<void (void*)>*) const
PUBLIC 76ec 0 std::__ndk1::__function::__func<void (*)(void*), std::__ndk1::allocator<void (*)(void*)>, void (void*)>::destroy()
PUBLIC 76f0 0 std::__ndk1::__function::__func<void (*)(void*), std::__ndk1::allocator<void (*)(void*)>, void (void*)>::destroy_deallocate()
PUBLIC 76f4 0 std::__ndk1::__function::__func<void (*)(void*), std::__ndk1::allocator<void (*)(void*)>, void (void*)>::operator()(void*&&)
PUBLIC 7704 0 std::__ndk1::__function::__func<void (*)(void*), std::__ndk1::allocator<void (*)(void*)>, void (void*)>::target(std::type_info const&) const
PUBLIC 7720 0 std::__ndk1::__function::__func<void (*)(void*), std::__ndk1::allocator<void (*)(void*)>, void (void*)>::target_type() const
PUBLIC 772c 0 geode::cast::traverseTypeinfoFor(void*, geode::cast::ClassTypeinfoType const*, char const*)
PUBLIC 7824 0 std::__ndk1::__tree<std::__ndk1::__value_type<std::__ndk1::basic_string<char, std::__ndk1::char_traits<char>, std::__ndk1::allocator<char> >, std::__ndk1::shared_ptr<geode::Hook> >, std::__ndk1::__map_value_compare<std::__ndk1::basic_string<char, std::__ndk1::char_traits<char>, std::__ndk1::allocator<char> >, std::__ndk1::__value_type<std::__ndk1::basic_string<char, std::__ndk1::char_traits<char>, std::__ndk1::allocator<char> >, std::__ndk1::shared_ptr<geode::Hook> >, std::__ndk1::less<std::__ndk1::basic_string<char, std::__ndk1::char_traits<char>, std::__ndk1::allocator<char> > >, true>, std::__ndk1::allocator<std::__ndk1::__value_type<std::__ndk1::basic_string<char, std::__ndk1::char_traits<char>, std::__ndk1::allocator<char> >, std::__ndk1::shared_ptr<geode::Hook> > > >::__emplace_unique_key_args<std::__ndk1::basic_string<char, std::__ndk1::char_traits<char>, std::__ndk1::allocator<char> >, std::__ndk1::piecewise_construct_t const&, std::__ndk1::tuple<std::__ndk1::basic_string<char, std::__ndk1::char_traits<char>, std::__ndk1::allocator<char> >&&>, std::__ndk1::tuple<> >(std::__ndk1::basic_string<char, std::__ndk1::char_traits<char>, std::__ndk1::allocator<char> > const&, std::__ndk1::piecewise_construct_t const&, std::__ndk1::tuple<std::__ndk1::basic_string<char, std::__ndk1::char_traits<char>, std::__ndk1::allocator<char> >&&>, std::__ndk1::tuple<>)
PUBLIC 7b38 0 geode::addresser::Addresser::addressOfVirtual<void, PlayLayer, int, int, bool>(void (PlayLayer::*)(int, int, bool))
PUBLIC 7c00 0 PlayLayer::PlayLayer(geode::ZeroConstructorType)
PUBLIC 8910 0 geode::stl::unordered_map<int, int, geode::stl::hash<int>, geode::stl::equal_to<int>, std::__ndk1::allocator<std::__ndk1::pair<int const, int> > >::~unordered_map()
PUBLIC 8988 0 geode::stl::unordered_set<int, geode::stl::hash<int>, geode::stl::equal_to<int>, std::__ndk1::allocator<int> >::~unordered_set()
PUBLIC 8a00 0 geode::stl::unordered_map<int, gd::string, geode::stl::hash<int>, geode::stl::equal_to<int>, std::__ndk1::allocator<std::__ndk1::pair<int const, gd::string> > >::~unordered_map()
PUBLIC 8a84 0 geode::stl::unordered_map<int, gd::vector<LabelGameObject*>, geode::stl::hash<int>, geode::stl::equal_to<int>, std::__ndk1::allocator<std::__ndk1::pair<int const, gd::vector<LabelGameObject*> > > >::~unordered_map()
PUBLIC 8b10 0 geode::stl::unordered_map<int, std::__ndk1::pair<int, int>, geode::stl::hash<int>, geode::stl::equal_to<int>, std::__ndk1::allocator<std::__ndk1::pair<int const, std::__ndk1::pair<int, int> > > >::~unordered_map()
PUBLIC 8b88 0 geode::stl::unordered_map<int, gd::vector<GameObject*>, geode::stl::hash<int>, geode::stl::equal_to<int>, std::__ndk1::allocator<std::__ndk1::pair<int const, gd::vector<GameObject*> > > >::~unordered_map()
PUBLIC 8c14 0 geode::stl::unordered_map<int, cocos2d::CCPoint, geode::stl::hash<int>, geode::stl::equal_to<int>, std::__ndk1::allocator<std::__ndk1::pair<int const, cocos2d::CCPoint> > >::~unordered_map()
PUBLIC 8c8c 0 gd::vector<geode::stl::unordered_map<int, int, geode::stl::hash<int>, geode::stl::equal_to<int>, std::__ndk1::allocator<std::__ndk1::pair<int const, int> > > >::~vector()
PUBLIC 8d90 0 GJGameState::~GJGameState()
PUBLIC 9424 0 geode::stl::unordered_map<int, SongChannelState, geode::stl::hash<int>, geode::stl::equal_to<int>, std::__ndk1::allocator<std::__ndk1::pair<int const, SongChannelState> > >::~unordered_map()
PUBLIC 949c 0 geode::stl::unordered_map<int, std::__ndk1::vector<int, std::__ndk1::allocator<int> >, geode::stl::hash<int>, geode::stl::equal_to<int>, std::__ndk1::allocator<std::__ndk1::pair<int const, std::__ndk1::vector<int, std::__ndk1::allocator<int> > > > >::~unordered_map()
PUBLIC 952c 0 gd::vector<EnterEffectInstance>::~vector()
PUBLIC 95bc 0 geode::stl::unordered_map<int, std::__ndk1::vector<EnterEffectInstance, std::__ndk1::allocator<EnterEffectInstance> >, geode::stl::hash<int>, geode::stl::equal_to<int>, std::__ndk1::allocator<std::__ndk1::pair<int const, std::__ndk1::vector<EnterEffectInstance, std::__ndk1::allocator<EnterEffectInstance> > > > >::~unordered_map()
PUBLIC 9690 0 geode::stl::unordered_map<int, EnhancedGameObject*, geode::stl::hash<int>, geode::stl::equal_to<int>, std::__ndk1::allocator<std::__ndk1::pair<int const, EnhancedGameObject*> > >::~unordered_map()
PUBLIC 9708 0 geode::stl::unordered_map<int, GameObjectPhysics, geode::stl::hash<int>, geode::stl::equal_to<int>, std::__ndk1::allocator<std::__ndk1::pair<int const, GameObjectPhysics> > >::~unordered_map()
PUBLIC 9780 0 geode::stl::unordered_map<int, GJValueTween, geode::stl::hash<int>, geode::stl::equal_to<int>, std::__ndk1::allocator<std::__ndk1::pair<int const, GJValueTween> > >::~unordered_map()
PUBLIC 97f8 0 geode::stl::unordered_map<int, bool, geode::stl::hash<int>, geode::stl::equal_to<int>, std::__ndk1::allocator<std::__ndk1::pair<int const, bool> > >::~unordered_map()
PUBLIC 9870 0 gd::map<std::__ndk1::pair<int, int>, SFXTriggerInstance>::erase(geode::stl::_rb_tree_node<std::__ndk1::pair<std::__ndk1::pair<int, int>, SFXTriggerInstance> >*)
PUBLIC 98bc 0 gd::map<int, EnterEffectAnimValue>::erase(geode::stl::_rb_tree_node<std::__ndk1::pair<int, EnterEffectAnimValue> >*)
PUBLIC 9908 0 gd::map<std::__ndk1::pair<GJGameEvent, int>, int>::erase(geode::stl::_rb_tree_node<std::__ndk1::pair<std::__ndk1::pair<GJGameEvent, int>, int> >*)
PUBLIC 9954 0 gd::map<std::__ndk1::pair<GJGameEvent, int>, gd::vector<EventTriggerInstance> >::erase(geode::stl::_rb_tree_node<std::__ndk1::pair<std::__ndk1::pair<GJGameEvent, int>, gd::vector<EventTriggerInstance> > >*)
PUBLIC 99f4 0 gd::map<std::__ndk1::pair<int, int>, int>::erase(geode::stl::_rb_tree_node<std::__ndk1::pair<std::__ndk1::pair<int, int>, int> >*)
PUBLIC m 9a40 0 geodeImplicitEntry
PUBLIC 9a80 0 <.plt ELF section in firee.goldenbest.android64.so>
STACK CFI INIT 40b0 10 .cfa: sp 0 +
STACK CFI INIT 40c0 8 .cfa: sp 0 +
STACK CFI INIT 40c8 8 .cfa: sp 0 +
STACK CFI INIT 40d0 14 .cfa: sp 0 +
STACK CFI INIT 40e4 1c .cfa: sp 0 +
STACK CFI INIT 4100 10 .cfa: sp 0 +
STACK CFI INIT 4110 30 .cfa: sp 0 +
STACK CFI INIT 4140 98 .cfa: sp 0 +
STACK CFI INIT 41d8 59c .cfa: sp 0 +
STACK CFI INIT 4774 8c .cfa: sp 0 +
STACK CFI INIT 4800 30 .cfa: sp 0 +
STACK CFI INIT 53d0 18 .cfa: sp 0 +
STACK CFI INIT 5a34 50 .cfa: sp 0 +
STACK CFI 5a38 .cfa: sp 32 +
STACK CFI 5a40 .cfa: x29 32 + x19: .cfa -16 + ^ .ra: .cfa -24 + ^ x29: .cfa -32 + ^
STACK CFI 5a58 .cfa: sp 32 +
STACK CFI 5a60 .cfa: sp 0 +
STACK CFI 5a64 .cfa: x29 32 +
STACK CFI 5a78 .cfa: sp 32 +
STACK CFI 5a80 .cfa: sp 0 +
STACK CFI INIT 5af8 7c .cfa: sp 0 +
STACK CFI 5afc .cfa: sp 48 +
STACK CFI 5b08 .cfa: x29 48 + x19: .cfa -8 + ^ x20: .cfa -16 + ^ x21: .cfa -32 + ^ .ra: .cfa -40 + ^ x29: .cfa -48 + ^
STACK CFI 5b54 .cfa: sp 48 +
STACK CFI 5b60 .cfa: sp 0 +
STACK CFI 5b64 .cfa: sp 48 +
STACK CFI 5b70 .cfa: sp 0 +
STACK CFI INIT 5b74 4 .cfa: sp 0 +
STACK CFI INIT 5b78 10 .cfa: sp 0 +
STACK CFI 5b7c .cfa: sp 16 +
STACK CFI 5b80 .cfa: x29 16 + .ra: .cfa -8 + ^ x29: .cfa -16 + ^
STACK CFI INIT 6284 34 .cfa: sp 0 +
STACK CFI 6288 .cfa: sp 16 +
STACK CFI 628c .cfa: x29 16 + .ra: .cfa -8 + ^ x29: .cfa -16 + ^
STACK CFI INIT 62b8 80 .cfa: sp 0 +
STACK CFI 62bc .cfa: sp 48 +
STACK CFI 62c8 .cfa: x29 48 + x19: .cfa -8 + ^ x20: .cfa -16 + ^ x21: .cfa -32 + ^ .ra: .cfa -40 + ^ x29: .cfa -48 + ^
STACK CFI 6328 .cfa: sp 48 +
STACK CFI 6334 .cfa: sp 0 +
STACK CFI INIT 6338 24 .cfa: sp 0 +
STACK CFI 633c .cfa: sp 32 +
STACK CFI 6344 .cfa: x29 32 + x19: .cfa -16 + ^ .ra: .cfa -24 + ^ x29: .cfa -32 + ^
STACK CFI 6350 .cfa: sp 32 +
STACK CFI 6358 .cfa: sp 0 +
STACK CFI INIT 635c 14 .cfa: sp 0 +
STACK CFI 6360 .cfa: sp 16 +
STACK CFI 6364 .cfa: x29 16 + .ra: .cfa -8 + ^ x29: .cfa -16 + ^
STACK CFI INIT 63c0 30 .cfa: sp 0 +
STACK CFI 63c4 .cfa: sp 32 +
STACK CFI 63cc .cfa: x29 32 + x19: .cfa -16 + ^ .ra: .cfa -24 + ^ x29: .cfa -32 + ^
STACK CFI 63e4 .cfa: sp 32 +
STACK CFI 63ec .cfa: sp 0 +
STACK CFI INIT 63f0 34 .cfa: sp 0 +
STACK CFI 63f4 .cfa: sp 32 +
STACK CFI 63fc .cfa: x29 32 + x19: .cfa -16 + ^ .ra: .cfa -24 + ^ x29: .cfa -32 + ^
STACK CFI INIT 6424 7c .cfa: sp 0 +
STACK CFI 6428 .cfa: sp 48 +
STACK CFI 6434 .cfa: x29 48 + x19: .cfa -8 + ^ x20: .cfa -16 + ^ x21: .cfa -24 + ^ x22: .cfa -32 + ^ .ra: .cfa -40 + ^ x29: .cfa -48 + ^
STACK CFI 644c .cfa: sp 48 +
STACK CFI 6458 .cfa: sp 0 +
STACK CFI 645c .cfa: x29 48 +
STACK CFI 648c .cfa: sp 48 +
STACK CFI 6498 .cfa: sp 0 +
STACK CFI 649c .cfa: x29 48 +
STACK CFI INIT 64a0 68 .cfa: sp 0 +
STACK CFI 64a4 .cfa: sp 32 +
STACK CFI 64ac .cfa: x29 32 + x19: .cfa -8 + ^ x20: .cfa -16 + ^ .ra: .cfa -24 + ^ x29: .cfa -32 + ^
STACK CFI 64c4 .cfa: sp 32 +
STACK CFI 64cc .cfa: sp 0 +
STACK CFI 64d0 .cfa: x29 32 +
STACK CFI 64fc .cfa: sp 32 +
STACK CFI 6504 .cfa: sp 0 +
STACK CFI INIT 6508 14 .cfa: sp 0 +
STACK CFI 650c .cfa: sp 16 +
STACK CFI 6510 .cfa: x29 16 + .ra: .cfa -8 + ^ x29: .cfa -16 + ^
STACK CFI INIT 651c 4 .cfa: sp 0 +
STACK CFI INIT 6520 14 .cfa: sp 0 +
STACK CFI INIT 6534 84 .cfa: sp 0 +
STACK CFI 653c .cfa: sp 32 +
STACK CFI 6544 .cfa: x29 32 + x19: .cfa -8 + ^ x20: .cfa -16 + ^ .ra: .cfa -24 + ^ x29: .cfa -32 + ^
STACK CFI 6584 .cfa: sp 32 +
STACK CFI 658c .cfa: sp 0 +
STACK CFI 6594 .cfa: x29 32 +
STACK CFI INIT 65b8 4b8 .cfa: sp 0 +
STACK CFI 65bc .cfa: sp 128 +
STACK CFI 65dc .cfa: x29 80 + x19: .cfa -8 + ^ x20: .cfa -16 + ^ x21: .cfa -24 + ^ x22: .cfa -32 + ^ x23: .cfa -40 + ^ x24: .cfa -48 + ^ x25: .cfa -56 + ^ x26: .cfa -64 + ^ .ra: .cfa -72 + ^ x29: .cfa -80 + ^ v8: .cfa -88 + ^ v9: .cfa -96 + ^ v10: .cfa -112 + ^
STACK CFI 6a48 .cfa: sp 128 +
STACK CFI 6a68 .cfa: sp 0 +
STACK CFI 6a6c .cfa: x29 80 +
STACK CFI INIT 6a70 338 .cfa: sp 0 +
STACK CFI 6a74 .cfa: sp 112 +
STACK CFI 6a90 .cfa: x29 80 + x19: .cfa -8 + ^ x20: .cfa -16 + ^ x21: .cfa -24 + ^ x22: .cfa -32 + ^ x23: .cfa -40 + ^ x24: .cfa -48 + ^ x25: .cfa -56 + ^ x26: .cfa -64 + ^ .ra: .cfa -72 + ^ x29: .cfa -80 + ^ v8: .cfa -88 + ^ v9: .cfa -96 + ^
STACK CFI 6b54 .cfa: sp 112 +
STACK CFI 6b70 .cfa: sp 0 +
STACK CFI 6b74 .cfa: x29 80 +
STACK CFI 6c18 .cfa: sp 112 +
STACK CFI 6c34 .cfa: sp 0 +
STACK CFI 6c38 .cfa: x29 80 +
STACK CFI INIT 6da8 50 .cfa: sp 0 +
STACK CFI 6dac .cfa: sp 32 +
STACK CFI 6db4 .cfa: x29 32 + x19: .cfa -16 + ^ .ra: .cfa -24 + ^ x29: .cfa -32 + ^
STACK CFI 6dcc .cfa: sp 32 +
STACK CFI 6dd4 .cfa: sp 0 +
STACK CFI 6dd8 .cfa: x29 32 +
STACK CFI 6dec .cfa: sp 32 +
STACK CFI 6df4 .cfa: sp 0 +
STACK CFI INIT 6df8 64 .cfa: sp 0 +
STACK CFI 6dfc .cfa: sp 32 +
STACK CFI 6e04 .cfa: x29 32 + x19: .cfa -16 + ^ .ra: .cfa -24 + ^ x29: .cfa -32 + ^
STACK CFI 6e30 .cfa: sp 32 +
STACK CFI 6e38 .cfa: sp 0 +
STACK CFI 6e3c .cfa: x29 32 +
STACK CFI 6e50 .cfa: sp 32 +
STACK CFI 6e58 .cfa: sp 0 +
STACK CFI INIT 74a0 130 .cfa: sp 0 +
STACK CFI 74a4 .cfa: sp 80 +
STACK CFI 74b4 .cfa: x29 48 + x19: .cfa -8 + ^ x20: .cfa -16 + ^ x21: .cfa -24 + ^ x22: .cfa -32 + ^ .ra: .cfa -40 + ^ x29: .cfa -48 + ^
STACK CFI 75b8 .cfa: sp 80 +
STACK CFI 75c8 .cfa: sp 0 +
STACK CFI 75cc .cfa: x29 48 +
STACK CFI INIT 75d0 4 .cfa: sp 0 +
STACK CFI INIT 75d4 14 .cfa: sp 0 +
STACK CFI 75d8 .cfa: sp 16 +
STACK CFI 75dc .cfa: x29 16 + .ra: .cfa -8 + ^ x29: .cfa -16 + ^
STACK CFI INIT 75e8 14 .cfa: sp 0 +
STACK CFI 75ec .cfa: sp 16 +
STACK CFI 75f0 .cfa: x29 16 + .ra: .cfa -8 + ^ x29: .cfa -16 + ^
STACK CFI INIT 75fc c .cfa: sp 0 +
STACK CFI 7600 .cfa: sp 16 +
STACK CFI 7604 .cfa: x29 16 + .ra: .cfa -8 + ^ x29: .cfa -16 + ^
STACK CFI INIT 7650 38 .cfa: sp 0 +
STACK CFI 7654 .cfa: sp 32 +
STACK CFI 765c .cfa: x29 32 + x19: .cfa -16 + ^ .ra: .cfa -24 + ^ x29: .cfa -32 + ^
STACK CFI 767c .cfa: sp 32 +
STACK CFI 7684 .cfa: sp 0 +
STACK CFI INIT 7688 c .cfa: sp 0 +
STACK CFI 768c .cfa: sp 16 +
STACK CFI 7690 .cfa: x29 16 + .ra: .cfa -8 + ^ x29: .cfa -16 + ^
STACK CFI INIT 7694 4 .cfa: sp 0 +
STACK CFI INIT 7698 4 .cfa: sp 0 +
STACK CFI INIT 769c 38 .cfa: sp 0 +
STACK CFI 76a0 .cfa: sp 32 +
STACK CFI 76a8 .cfa: x29 32 + x19: .cfa -16 + ^ .ra: .cfa -24 + ^ x29: .cfa -32 + ^
STACK CFI 76c8 .cfa: sp 32 +
STACK CFI 76d0 .cfa: sp 0 +
STACK CFI INIT 76d4 18 .cfa: sp 0 +
STACK CFI INIT 76ec 4 .cfa: sp 0 +
STACK CFI INIT 76f0 4 .cfa: sp 0 +
STACK CFI INIT 76f4 10 .cfa: sp 0 +
STACK CFI INIT 7704 1c .cfa: sp 0 +
STACK CFI INIT 7720 c .cfa: sp 0 +
STACK CFI INIT 772c f8 .cfa: sp 0 +
STACK CFI 7730 .cfa: sp 64 +
STACK CFI 7740 .cfa: x29 64 + x19: .cfa -8 + ^ x20: .cfa -16 + ^ x21: .cfa -24 + ^ x22: .cfa -32 + ^ x23: .cfa -48 + ^ .ra: .cfa -56 + ^ x29: .cfa -64 + ^
STACK CFI 779c .cfa: sp 64 +
STACK CFI 77ac .cfa: sp 0 +
STACK CFI 77b0 .cfa: x29 64 +
STACK CFI 77cc .cfa: sp 64 +
STACK CFI 77dc .cfa: sp 0 +
STACK CFI 77e0 .cfa: x29 64 +
STACK CFI 7810 .cfa: sp 64 +
STACK CFI 7820 .cfa: sp 0 +
STACK CFI INIT 7824 314 .cfa: sp 0 +
STACK CFI 7828 .cfa: sp 96 +
STACK CFI 7840 .cfa: x29 96 + x19: .cfa -8 + ^ x20: .cfa -16 + ^ x21: .cfa -24 + ^ x22: .cfa -32 + ^ x23: .cfa -40 + ^ x24: .cfa -48 + ^ x25: .cfa -56 + ^ x26: .cfa -64 + ^ x27: .cfa -80 + ^ .ra: .cfa -88 + ^ x29: .cfa -96 + ^
STACK CFI 7afc .cfa: sp 96 +
STACK CFI 7b14 .cfa: sp 0 +
STACK CFI 7b18 .cfa: x29 96 +
STACK CFI INIT 8910 78 .cfa: sp 0 +
STACK CFI 8914 .cfa: sp 48 +
STACK CFI 8920 .cfa: x29 48 + x19: .cfa -8 + ^ x20: .cfa -16 + ^ x21: .cfa -32 + ^ .ra: .cfa -40 + ^ x29: .cfa -48 + ^
STACK CFI 8968 .cfa: sp 48 +
STACK CFI 8974 .cfa: sp 0 +
STACK CFI 8978 .cfa: sp 48 +
STACK CFI 8984 .cfa: sp 0 +
STACK CFI INIT 8988 78 .cfa: sp 0 +
STACK CFI 898c .cfa: sp 48 +
STACK CFI 8998 .cfa: x29 48 + x19: .cfa -8 + ^ x20: .cfa -16 + ^ x21: .cfa -32 + ^ .ra: .cfa -40 + ^ x29: .cfa -48 + ^
STACK CFI 89e0 .cfa: sp 48 +
STACK CFI 89ec .cfa: sp 0 +
STACK CFI 89f0 .cfa: sp 48 +
STACK CFI 89fc .cfa: sp 0 +
STACK CFI INIT 8a00 84 .cfa: sp 0 +
STACK CFI 8a04 .cfa: sp 48 +
STACK CFI 8a10 .cfa: x29 48 + x19: .cfa -8 + ^ x20: .cfa -16 + ^ x21: .cfa -24 + ^ x22: .cfa -32 + ^ .ra: .cfa -40 + ^ x29: .cfa -48 + ^
STACK CFI 8a64 .cfa: sp 48 +
STACK CFI 8a70 .cfa: sp 0 +
STACK CFI 8a74 .cfa: sp 48 +
STACK CFI 8a80 .cfa: sp 0 +
STACK CFI INIT 8a84 8c .cfa: sp 0 +
STACK CFI 8a88 .cfa: sp 48 +
STACK CFI 8a94 .cfa: x29 48 + x19: .cfa -8 + ^ x20: .cfa -16 + ^ x21: .cfa -24 + ^ x22: .cfa -32 + ^ .ra: .cfa -40 + ^ x29: .cfa -48 + ^
STACK CFI 8acc .cfa: sp 48 +
STACK CFI 8ad8 .cfa: sp 0 +
STACK CFI 8adc .cfa: x29 48 +
STACK CFI 8b00 .cfa: sp 48 +
STACK CFI 8b0c .cfa: sp 0 +
STACK CFI INIT 8b10 78 .cfa: sp 0 +
STACK CFI 8b14 .cfa: sp 48 +
STACK CFI 8b20 .cfa: x29 48 + x19: .cfa -8 + ^ x20: .cfa -16 + ^ x21: .cfa -32 + ^ .ra: .cfa -40 + ^ x29: .cfa -48 + ^
STACK CFI 8b68 .cfa: sp 48 +
STACK CFI 8b74 .cfa: sp 0 +
STACK CFI 8b78 .cfa: sp 48 +
STACK CFI 8b84 .cfa: sp 0 +
STACK CFI INIT 8b88 8c .cfa: sp 0 +
STACK CFI 8b8c .cfa: sp 48 +
STACK CFI 8b98 .cfa: x29 48 + x19: .cfa -8 + ^ x20: .cfa -16 + ^ x21: .cfa -24 + ^ x22: .cfa -32 + ^ .ra: .cfa -40 + ^ x29: .cfa -48 + ^
STACK CFI 8bd0 .cfa: sp 48 +
STACK CFI 8bdc .cfa: sp 0 +
STACK CFI 8be0 .cfa: x29 48 +
STACK CFI 8c04 .cfa: sp 48 +
STACK CFI 8c10 .cfa: sp 0 +
STACK CFI INIT 8c14 78 .cfa: sp 0 +
STACK CFI 8c18 .cfa: sp 48 +
STACK CFI 8c24 .cfa: x29 48 + x19: .cfa -8 + ^ x20: .cfa -16 + ^ x21: .cfa -32 + ^ .ra: .cfa -40 + ^ x29: .cfa -48 + ^
STACK CFI 8c6c .cfa: sp 48 +
STACK CFI 8c78 .cfa: sp 0 +
STACK CFI 8c7c .cfa: sp 48 +
STACK CFI 8c88 .cfa: sp 0 +
STACK CFI INIT 8c8c 104 .cfa: sp 0 +
STACK CFI 8c90 .cfa: sp 64 +
STACK CFI 8ca0 .cfa: x29 64 + x19: .cfa -8 + ^ x20: .cfa -16 + ^ x21: .cfa -24 + ^ x22: .cfa -32 + ^ x23: .cfa -48 + ^ .ra: .cfa -56 + ^ x29: .cfa -64 + ^
STACK CFI 8d68 .cfa: sp 64 +
STACK CFI 8d78 .cfa: sp 0 +
STACK CFI 8d7c .cfa: sp 64 +
STACK CFI 8d8c .cfa: sp 0 +
STACK CFI INIT 8d90 694 .cfa: sp 0 +
STACK CFI 8d94 .cfa: sp 64 +
STACK CFI 8da4 .cfa: x29 64 + x19: .cfa -8 + ^ x20: .cfa -16 + ^ x21: .cfa -24 + ^ x22: .cfa -32 + ^ x23: .cfa -40 + ^ x24: .cfa -48 + ^ .ra: .cfa -56 + ^ x29: .cfa -64 + ^
STACK CFI 933c .cfa: sp 64 +
STACK CFI 934c .cfa: sp 0 +
STACK CFI 9350 .cfa: x29 64 +
STACK CFI 9410 .cfa: sp 64 +
STACK CFI 9420 .cfa: sp 0 +
STACK CFI INIT 9424 78 .cfa: sp 0 +
STACK CFI 9428 .cfa: sp 48 +
STACK CFI 9434 .cfa: x29 48 + x19: .cfa -8 + ^ x20: .cfa -16 + ^ x21: .cfa -32 + ^ .ra: .cfa -40 + ^ x29: .cfa -48 + ^
STACK CFI 947c .cfa: sp 48 +
STACK CFI 9488 .cfa: sp 0 +
STACK CFI 948c .cfa: sp 48 +
STACK CFI 9498 .cfa: sp 0 +
STACK CFI INIT 949c 90 .cfa: sp 0 +
STACK CFI 94a0 .cfa: sp 48 +
STACK CFI 94ac .cfa: x29 48 + x19: .cfa -8 + ^ x20: .cfa -16 + ^ x21: .cfa -24 + ^ x22: .cfa -32 + ^ .ra: .cfa -40 + ^ x29: .cfa -48 + ^
STACK CFI 94e4 .cfa: sp 48 +
STACK CFI 94f0 .cfa: sp 0 +
STACK CFI 94f4 .cfa: x29 48 +
STACK CFI 951c .cfa: sp 48 +
STACK CFI 9528 .cfa: sp 0 +
STACK CFI INIT 952c 90 .cfa: sp 0 +
STACK CFI 9530 .cfa: sp 48 +
STACK CFI 953c .cfa: x29 48 + x19: .cfa -8 + ^ x20: .cfa -16 + ^ x21: .cfa -32 + ^ .ra: .cfa -40 + ^ x29: .cfa -48 + ^
STACK CFI 959c .cfa: sp 48 +
STACK CFI 95a8 .cfa: sp 0 +
STACK CFI 95ac .cfa: sp 48 +
STACK CFI 95b8 .cfa: sp 0 +
STACK CFI INIT 95bc d4 .cfa: sp 0 +
STACK CFI 95c0 .cfa: sp 64 +
STACK CFI 95d0 .cfa: x29 64 + x19: .cfa -8 + ^ x20: .cfa -16 + ^ x21: .cfa -24 + ^ x22: .cfa -32 + ^ x23: .cfa -40 + ^ x24: .cfa -48 + ^ .ra: .cfa -56 + ^ x29: .cfa -64 + ^
STACK CFI 9608 .cfa: sp 64 +
STACK CFI 9618 .cfa: sp 0 +
STACK CFI 961c .cfa: x29 64 +
STACK CFI 967c .cfa: sp 64 +
STACK CFI 968c .cfa: sp 0 +
STACK CFI INIT 9690 78 .cfa: sp 0 +
STACK CFI 9694 .cfa: sp 48 +
STACK CFI 96a0 .cfa: x29 48 + x19: .cfa -8 + ^ x20: .cfa -16 + ^ x21: .cfa -32 + ^ .ra: .cfa -40 + ^ x29: .cfa -48 + ^
STACK CFI 96e8 .cfa: sp 48 +
STACK CFI 96f4 .cfa: sp 0 +
STACK CFI 96f8 .cfa: sp 48 +
STACK CFI 9704 .cfa: sp 0 +
STACK CFI INIT 9708 78 .cfa: sp 0 +
STACK CFI 970c .cfa: sp 48 +
STACK CFI 9718 .cfa: x29 48 + x19: .cfa -8 + ^ x20: .cfa -16 + ^ x21: .cfa -32 + ^ .ra: .cfa -40 + ^ x29: .cfa -48 + ^
STACK CFI 9760 .cfa: sp 48 +
STACK CFI 976c .cfa: sp 0 +
STACK CFI 9770 .cfa: sp 48 +
STACK CFI 977c .cfa: sp 0 +
STACK CFI INIT 9780 78 .cfa: sp 0 +
STACK CFI 9784 .cfa: sp 48 +
STACK CFI 9790 .cfa: x29 48 + x19: .cfa -8 + ^ x20: .cfa -16 + ^ x21: .cfa -32 + ^ .ra: .cfa -40 + ^ x29: .cfa -48 + ^
STACK CFI 97d8 .cfa: sp 48 +
STACK CFI 97e4 .cfa: sp 0 +
STACK CFI 97e8 .cfa: sp 48 +
STACK CFI 97f4 .cfa: sp 0 +
STACK CFI INIT 97f8 78 .cfa: sp 0 +
STACK CFI 97fc .cfa: sp 48 +
STACK CFI 9808 .cfa: x29 48 + x19: .cfa -8 + ^ x20: .cfa -16 + ^ x21: .cfa -32 + ^ .ra: .cfa -40 + ^ x29: .cfa -48 + ^
STACK CFI 9850 .cfa: sp 48 +
STACK CFI 985c .cfa: sp 0 +
STACK CFI 9860 .cfa: sp 48 +
STACK CFI 986c .cfa: sp 0 +
STACK CFI INIT 9870 4c .cfa: sp 0 +
STACK CFI 9878 .cfa: sp 32 +
STACK CFI 9880 .cfa: x29 32 + x19: .cfa -16 + ^ .ra: .cfa -24 + ^ x29: .cfa -32 + ^
STACK CFI 98b0 .cfa: sp 32 +
STACK CFI 98b8 .cfa: sp 0 +
STACK CFI INIT 98bc 4c .cfa: sp 0 +
STACK CFI 98c4 .cfa: sp 32 +
STACK CFI 98cc .cfa: x29 32 + x19: .cfa -16 + ^ .ra: .cfa -24 + ^ x29: .cfa -32 + ^
STACK CFI 98fc .cfa: sp 32 +
STACK CFI 9904 .cfa: sp 0 +
STACK CFI INIT 9908 4c .cfa: sp 0 +
STACK CFI 9910 .cfa: sp 32 +
STACK CFI 9918 .cfa: x29 32 + x19: .cfa -16 + ^ .ra: .cfa -24 + ^ x29: .cfa -32 + ^
STACK CFI 9948 .cfa: sp 32 +
STACK CFI 9950 .cfa: sp 0 +
STACK CFI INIT 9954 a0 .cfa: sp 0 +
STACK CFI 995c .cfa: sp 48 +
STACK CFI 9968 .cfa: x29 48 + x19: .cfa -8 + ^ x20: .cfa -16 + ^ x21: .cfa -32 + ^ .ra: .cfa -40 + ^ x29: .cfa -48 + ^
STACK CFI 99e4 .cfa: sp 48 +
STACK CFI 99f0 .cfa: sp 0 +
STACK CFI INIT 99f4 4c .cfa: sp 0 +
STACK CFI 99fc .cfa: sp 32 +
STACK CFI 9a04 .cfa: x29 32 + x19: .cfa -16 + ^ .ra: .cfa -24 + ^ x29: .cfa -32 + ^
STACK CFI 9a34 .cfa: sp 32 +
STACK CFI 9a3c .cfa: sp 0 +
STACK CFI INIT 9a40 3c .cfa: sp 0 +
STACK CFI 9a44 .cfa: sp 32 +
STACK CFI 9a4c .cfa: x29 32 + x19: .cfa -16 + ^ .ra: .cfa -24 + ^ x29: .cfa -32 + ^
STACK CFI 9a58 .cfa: sp 32 +
STACK CFI 9a60 .cfa: sp 0 +
STACK CFI 9a64 .cfa: x29 32 +
STACK CFI 9a70 .cfa: sp 32 +
STACK CFI 9a78 .cfa: sp 0 +
STACK CFI INIT 4830 ba0 .cfa: sp 0 +
STACK CFI 4834 .cfa: sp 240 +
STACK CFI 4850 .cfa: x29 96 + x19: .cfa -8 + ^ x20: .cfa -16 + ^ x21: .cfa -24 + ^ x22: .cfa -32 + ^ x23: .cfa -40 + ^ x24: .cfa -48 + ^ x25: .cfa -56 + ^ x26: .cfa -64 + ^ x27: .cfa -72 + ^ x28: .cfa -80 + ^ .ra: .cfa -88 + ^ x29: .cfa -96 + ^
STACK CFI 5278 .cfa: sp 240 +
STACK CFI 5294 .cfa: sp 0 +
STACK CFI 5298 .cfa: x29 96 +
STACK CFI INIT 53e8 64c .cfa: sp 0 +
STACK CFI 53ec .cfa: sp 304 +
STACK CFI 5408 .cfa: x29 96 + x19: .cfa -8 + ^ x20: .cfa -16 + ^ x21: .cfa -24 + ^ x22: .cfa -32 + ^ x23: .cfa -40 + ^ x24: .cfa -48 + ^ x25: .cfa -56 + ^ x26: .cfa -64 + ^ x28: .cfa -80 + ^ .ra: .cfa -88 + ^ x29: .cfa -96 + ^
STACK CFI 5850 .cfa: sp 304 +
STACK CFI 586c .cfa: sp 0 +
STACK CFI 5870 .cfa: x29 96 +
STACK CFI INIT 5a84 74 .cfa: sp 0 +
STACK CFI 5a88 .cfa: sp 48 +
STACK CFI 5a94 .cfa: x29 32 + x19: .cfa -8 + ^ x20: .cfa -16 + ^ .ra: .cfa -24 + ^ x29: .cfa -32 + ^
STACK CFI 5ae0 .cfa: sp 48 +
STACK CFI 5aec .cfa: sp 0 +
STACK CFI 5af0 .cfa: x29 32 +
STACK CFI INIT 5b88 6fc .cfa: sp 0 +
STACK CFI 5b8c .cfa: sp 496 +
STACK CFI 5ba8 .cfa: x29 96 + x19: .cfa -8 + ^ x20: .cfa -16 + ^ x21: .cfa -24 + ^ x22: .cfa -32 + ^ x23: .cfa -40 + ^ x24: .cfa -48 + ^ x25: .cfa -56 + ^ x26: .cfa -64 + ^ x27: .cfa -72 + ^ x28: .cfa -80 + ^ .ra: .cfa -88 + ^ x29: .cfa -96 + ^
STACK CFI 6158 .cfa: sp 496 +
STACK CFI 6174 .cfa: sp 0 +
STACK CFI 6178 .cfa: x29 96 +
STACK CFI INIT 6370 50 .cfa: sp 0 +
STACK CFI 6374 .cfa: sp 32 +
STACK CFI 637c .cfa: x29 32 + x19: .cfa -8 + ^ x20: .cfa -16 + ^ .ra: .cfa -24 + ^ x29: .cfa -32 + ^
STACK CFI INIT 6e5c 644 .cfa: sp 0 +
STACK CFI 6e60 .cfa: sp 176 +
STACK CFI 6e7c .cfa: x29 96 + x19: .cfa -8 + ^ x20: .cfa -16 + ^ x21: .cfa -24 + ^ x22: .cfa -32 + ^ x23: .cfa -40 + ^ x24: .cfa -48 + ^ x25: .cfa -56 + ^ x26: .cfa -64 + ^ x27: .cfa -72 + ^ x28: .cfa -80 + ^ .ra: .cfa -88 + ^ x29: .cfa -96 + ^
STACK CFI 733c .cfa: sp 176 +
STACK CFI 7358 .cfa: sp 0 +
STACK CFI 735c .cfa: x29 96 +
STACK CFI INIT 7608 48 .cfa: sp 0 +
STACK CFI 760c .cfa: sp 32 +
STACK CFI 7614 .cfa: x29 32 + x19: .cfa -8 + ^ x20: .cfa -16 + ^ .ra: .cfa -24 + ^ x29: .cfa -32 + ^
STACK CFI INIT 7b38 c8 .cfa: sp 0 +
STACK CFI 7b3c .cfa: sp 32 +
STACK CFI 7b44 .cfa: x29 32 + x19: .cfa -8 + ^ x20: .cfa -16 + ^ .ra: .cfa -24 + ^ x29: .cfa -32 + ^
STACK CFI 7b78 .cfa: sp 32 +
STACK CFI 7b80 .cfa: sp 0 +
STACK CFI 7b84 .cfa: x29 32 +
STACK CFI 7b88 .cfa: sp 32 +
STACK CFI 7b90 .cfa: sp 0 +
STACK CFI 7b94 .cfa: x29 32 +
STACK CFI INIT 7c00 d10 .cfa: sp 0 +
STACK CFI 7c04 .cfa: sp 80 +
STACK CFI 7c18 .cfa: x29 80 + x19: .cfa -8 + ^ x20: .cfa -16 + ^ x21: .cfa -24 + ^ x22: .cfa -32 + ^ x23: .cfa -40 + ^ x24: .cfa -48 + ^ x25: .cfa -64 + ^ .ra: .cfa -72 + ^ x29: .cfa -80 + ^
STACK CFI 8400 .cfa: sp 80 +
STACK CFI 8414 .cfa: sp 0 +
STACK CFI 8418 .cfa: x29 80 +
