MODULE Linux arm64 453DE1A2E6901898AA14F0CB21AA0BB50 raydeeux.controlvanillasfx.android64.so
INFO CODE_ID A2E13D4590E69818AA14F0CB21AA0BB5D6793146
INFO GENERATOR mozilla/dump_syms 2.3.4
PUBLIC 97d0 0 __on_dlclose
PUBLIC 97e0 0 __emutls_unregister_key
PUBLIC 97e8 0 __on_dlclose_late
PUBLIC 97f0 0 __atexit_handler_wrapper
PUBLIC 9804 0 atexit
PUBLIC 9820 0 pthread_atfork
PUBLIC 9830 0 __aarch64_ldadd8_acq_rel
PUBLIC 9860 0 init_have_lse_atomics
PUBLIC 98f8 0 __init_cpu_features_constructor
PUBLIC 9e94 0 __init_cpu_features
PUBLIC 9f20 0 __aarch64_ldadd8_relax
PUBLIC 9f50 0 std::__ndk1::basic_regex<char, std::__ndk1::regex_traits<char> >::~basic_regex()
PUBLIC 9fb0 0 std::__ndk1::__list_imp<std::__ndk1::basic_string<char, std::__ndk1::char_traits<char>, std::__ndk1::allocator<char> >, std::__ndk1::allocator<std::__ndk1::basic_string<char, std::__ndk1::char_traits<char>, std::__ndk1::allocator<char> > > >::~__list_imp()
PUBLIC a028 0 std::__ndk1::__fs::filesystem::path::~path[abi:ne180000]()
PUBLIC a03c 0 __cxx_global_var_init.31
PUBLIC aa60 0 geode::modifier::ModifyBase<geode::modifier::ModifyDerive<MyFMODAudioEngine, FMODAudioEngine> >::~ModifyBase()
PUBLIC aa78 0 std::__ndk1::shared_ptr<std::__ndk1::__empty_state<char> >::~shared_ptr[abi:ne180000]()
PUBLIC aacc 0 std::__ndk1::basic_string<char, std::__ndk1::char_traits<char>, std::__ndk1::allocator<char> >::__throw_length_error[abi:ne180000]() const
PUBLIC aae0 0 std::__ndk1::__throw_length_error[abi:ne180000](char const*)
PUBLIC ab30 0 std::length_error::length_error[abi:ne180000](char const*)
PUBLIC ab60 0 std::__throw_bad_array_new_length([abi:ne180000], void)
PUBLIC ab94 0 __clang_call_terminate
PUBLIC aba4 0 std::__ndk1::basic_regex<char, std::__ndk1::regex_traits<char> >::__parse<char const*>(char const*, char const*)
PUBLIC b268 0 std::__ndk1::__throw_regex_error[abi:ne180000]<(std::__ndk1::regex_constants::error_type)17>()
PUBLIC b2b4 0 std::__ndk1::basic_regex<char, std::__ndk1::regex_traits<char> >::__parse_ecma_exp<char const*>(char const*, char const*)
PUBLIC b520 0 std::__ndk1::basic_regex<char, std::__ndk1::regex_traits<char> >::__parse_basic_reg_exp<char const*>(char const*, char const*)
PUBLIC b6c8 0 std::__ndk1::basic_regex<char, std::__ndk1::regex_traits<char> >::__parse_extended_reg_exp<char const*>(char const*, char const*)
PUBLIC b838 0 std::__ndk1::__throw_regex_error[abi:ne180000]<(std::__ndk1::regex_constants::error_type)14>()
PUBLIC b884 0 std::__ndk1::__end_state<char>::~__end_state()
PUBLIC b888 0 std::__ndk1::__end_state<char>::__exec(std::__ndk1::__state<char>&) const
PUBLIC b894 0 std::__ndk1::__node<char>::__exec_split(bool, std::__ndk1::__state<char>&) const
PUBLIC b898 0 std::__ndk1::__node<char>::__exec(std::__ndk1::__state<char>&) const
PUBLIC b89c 0 std::__ndk1::__shared_ptr_pointer<std::__ndk1::__empty_state<char>*, std::__ndk1::shared_ptr<std::__ndk1::__empty_state<char> >::__shared_ptr_default_delete<std::__ndk1::__empty_state<char>, std::__ndk1::__empty_state<char> >, std::__ndk1::allocator<std::__ndk1::__empty_state<char> > >::~__shared_ptr_pointer()
PUBLIC b8c0 0 std::__ndk1::__shared_ptr_pointer<std::__ndk1::__empty_state<char>*, std::__ndk1::shared_ptr<std::__ndk1::__empty_state<char> >::__shared_ptr_default_delete<std::__ndk1::__empty_state<char>, std::__ndk1::__empty_state<char> >, std::__ndk1::allocator<std::__ndk1::__empty_state<char> > >::__on_zero_shared()
PUBLIC b8d8 0 std::__ndk1::__shared_ptr_pointer<std::__ndk1::__empty_state<char>*, std::__ndk1::shared_ptr<std::__ndk1::__empty_state<char> >::__shared_ptr_default_delete<std::__ndk1::__empty_state<char>, std::__ndk1::__empty_state<char> >, std::__ndk1::allocator<std::__ndk1::__empty_state<char> > >::__get_deleter(std::type_info const&) const
PUBLIC b8f4 0 std::__ndk1::__shared_ptr_pointer<std::__ndk1::__empty_state<char>*, std::__ndk1::shared_ptr<std::__ndk1::__empty_state<char> >::__shared_ptr_default_delete<std::__ndk1::__empty_state<char>, std::__ndk1::__empty_state<char> >, std::__ndk1::allocator<std::__ndk1::__empty_state<char> > >::__on_zero_shared_weak()
PUBLIC b8f8 0 std::__ndk1::__empty_state<char>::~__empty_state()
PUBLIC b940 0 std::__ndk1::__empty_state<char>::__exec(std::__ndk1::__state<char>&) const
PUBLIC b954 0 std::__ndk1::__owns_one_state<char>::~__owns_one_state()
PUBLIC b99c 0 std::__ndk1::basic_regex<char, std::__ndk1::regex_traits<char> >::__parse_assertion<char const*>(char const*, char const*)
PUBLIC bd00 0 std::__ndk1::basic_regex<char, std::__ndk1::regex_traits<char> >::__parse_atom<char const*>(char const*, char const*)
PUBLIC c344 0 std::__ndk1::basic_regex<char, std::__ndk1::regex_traits<char> >::__parse_ERE_dupl_symbol<char const*>(char const*, char const*, std::__ndk1::__owns_one_state<char>*, unsigned int, unsigned int)
PUBLIC c738 0 std::__ndk1::basic_regex<char, std::__ndk1::regex_traits<char> >::basic_regex[abi:ne180000]()
PUBLIC c7a4 0 std::__ndk1::basic_regex<char, std::__ndk1::regex_traits<char> >::__push_lookahead(std::__ndk1::basic_regex<char, std::__ndk1::regex_traits<char> > const&, bool, unsigned int)
PUBLIC c858 0 std::__ndk1::__throw_regex_error[abi:ne180000]<(std::__ndk1::regex_constants::error_type)6>()
PUBLIC c8a4 0 std::__ndk1::__l_anchor_multiline<char>::~__l_anchor_multiline()
PUBLIC c8ec 0 std::__ndk1::__l_anchor_multiline<char>::__exec(std::__ndk1::__state<char>&) const
PUBLIC c950 0 std::__ndk1::__r_anchor_multiline<char>::~__r_anchor_multiline()
PUBLIC c998 0 std::__ndk1::__r_anchor_multiline<char>::__exec(std::__ndk1::__state<char>&) const
PUBLIC c9ec 0 std::__ndk1::__word_boundary<char, std::__ndk1::regex_traits<char> >::~__word_boundary()
PUBLIC ca48 0 std::__ndk1::__word_boundary<char, std::__ndk1::regex_traits<char> >::~__word_boundary()
PUBLIC caa0 0 std::__ndk1::__word_boundary<char, std::__ndk1::regex_traits<char> >::__exec(std::__ndk1::__state<char>&) const
PUBLIC cbb0 0 std::__ndk1::__lookahead<char, std::__ndk1::regex_traits<char> >::~__lookahead()
PUBLIC cc40 0 std::__ndk1::__lookahead<char, std::__ndk1::regex_traits<char> >::~__lookahead()
PUBLIC cccc 0 std::__ndk1::__lookahead<char, std::__ndk1::regex_traits<char> >::__exec(std::__ndk1::__state<char>&) const
PUBLIC cea0 0 std::__ndk1::basic_regex<char, std::__ndk1::regex_traits<char> >::__match_at_start_ecma<std::__ndk1::allocator<std::__ndk1::sub_match<char const*> > >(char const*, char const*, std::__ndk1::match_results<char const*, std::__ndk1::allocator<std::__ndk1::sub_match<char const*> > >&, std::__ndk1::regex_constants::match_flag_type, bool) const
PUBLIC d2ec 0 std::__ndk1::vector<std::__ndk1::sub_match<char const*>, std::__ndk1::allocator<std::__ndk1::sub_match<char const*> > >::assign(unsigned long, std::__ndk1::sub_match<char const*> const&)
PUBLIC d4b4 0 std::__ndk1::vector<std::__ndk1::sub_match<char const*>, std::__ndk1::allocator<std::__ndk1::sub_match<char const*> > >::__throw_length_error[abi:ne180000]() const
PUBLIC d4c8 0 std::__ndk1::__state<char>::~__state()
PUBLIC d50c 0 std::__ndk1::__throw_regex_error[abi:ne180000]<(std::__ndk1::regex_constants::error_type)12>()
PUBLIC d558 0 std::__ndk1::__state<char>::__state(std::__ndk1::__state<char> const&)
PUBLIC d6c8 0 std::__ndk1::__throw_regex_error[abi:ne180000]<(std::__ndk1::regex_constants::error_type)16>()
PUBLIC d714 0 std::__ndk1::vector<std::__ndk1::__state<char>, std::__ndk1::allocator<std::__ndk1::__state<char> > >::~vector[abi:ne180000]()
PUBLIC d7ac 0 std::__ndk1::vector<std::__ndk1::__state<char>, std::__ndk1::allocator<std::__ndk1::__state<char> > >::__push_back_slow_path<std::__ndk1::__state<char> >(std::__ndk1::__state<char>&&)
PUBLIC d988 0 std::__ndk1::vector<std::__ndk1::__state<char>, std::__ndk1::allocator<std::__ndk1::__state<char> > >::__throw_length_error[abi:ne180000]() const
PUBLIC d99c 0 std::__ndk1::vector<std::__ndk1::sub_match<char const*>, std::__ndk1::allocator<std::__ndk1::sub_match<char const*> > >::__append(unsigned long, std::__ndk1::sub_match<char const*> const&)
PUBLIC db44 0 std::__ndk1::vector<std::__ndk1::pair<unsigned long, char const*>, std::__ndk1::allocator<std::__ndk1::pair<unsigned long, char const*> > >::__append(unsigned long)
PUBLIC dc70 0 std::__ndk1::vector<std::__ndk1::pair<unsigned long, char const*>, std::__ndk1::allocator<std::__ndk1::pair<unsigned long, char const*> > >::__throw_length_error[abi:ne180000]() const
PUBLIC dc84 0 std::__ndk1::basic_regex<char, std::__ndk1::regex_traits<char> >::__parse_bracket_expression<char const*>(char const*, char const*)
PUBLIC ed78 0 std::__ndk1::__throw_regex_error[abi:ne180000]<(std::__ndk1::regex_constants::error_type)11>()
PUBLIC edc4 0 std::__ndk1::__match_any_but_newline<char>::~__match_any_but_newline()
PUBLIC ee0c 0 std::__ndk1::__throw_regex_error[abi:ne180000]<(std::__ndk1::regex_constants::error_type)3>()
PUBLIC ee58 0 std::__ndk1::basic_regex<char, std::__ndk1::regex_traits<char> >::__parse_character_escape<char const*>(char const*, char const*, std::__ndk1::basic_string<char, std::__ndk1::char_traits<char>, std::__ndk1::allocator<char> >*)
PUBLIC f364 0 std::__ndk1::basic_regex<char, std::__ndk1::regex_traits<char> >::__push_char(char)
PUBLIC f4a4 0 std::__ndk1::__throw_regex_error[abi:ne180000]<(std::__ndk1::regex_constants::error_type)4>()
PUBLIC f4f0 0 std::__ndk1::basic_regex<char, std::__ndk1::regex_traits<char> >::__push_back_ref(int)
PUBLIC f5b8 0 std::__ndk1::__match_char_icase<char, std::__ndk1::regex_traits<char> >::~__match_char_icase()
PUBLIC f614 0 std::__ndk1::__match_char_icase<char, std::__ndk1::regex_traits<char> >::~__match_char_icase()
PUBLIC f66c 0 std::__ndk1::__match_char_icase<char, std::__ndk1::regex_traits<char> >::__exec(std::__ndk1::__state<char>&) const
PUBLIC f6ec 0 std::__ndk1::__match_char_collate<char, std::__ndk1::regex_traits<char> >::~__match_char_collate()
PUBLIC f748 0 std::__ndk1::__match_char_collate<char, std::__ndk1::regex_traits<char> >::~__match_char_collate()
PUBLIC f7a0 0 std::__ndk1::__match_char_collate<char, std::__ndk1::regex_traits<char> >::__exec(std::__ndk1::__state<char>&) const
PUBLIC f7e8 0 std::__ndk1::__match_char<char>::~__match_char()
PUBLIC f830 0 std::__ndk1::__match_char<char>::__exec(std::__ndk1::__state<char>&) const
PUBLIC f878 0 std::__ndk1::__back_ref_icase<char, std::__ndk1::regex_traits<char> >::~__back_ref_icase()
PUBLIC f8d4 0 std::__ndk1::__back_ref_icase<char, std::__ndk1::regex_traits<char> >::~__back_ref_icase()
PUBLIC f92c 0 std::__ndk1::__back_ref_icase<char, std::__ndk1::regex_traits<char> >::__exec(std::__ndk1::__state<char>&) const
PUBLIC fa24 0 std::__ndk1::__back_ref_collate<char, std::__ndk1::regex_traits<char> >::~__back_ref_collate()
PUBLIC fa80 0 std::__ndk1::__back_ref_collate<char, std::__ndk1::regex_traits<char> >::~__back_ref_collate()
PUBLIC fad8 0 std::__ndk1::__back_ref_collate<char, std::__ndk1::regex_traits<char> >::__exec(std::__ndk1::__state<char>&) const
PUBLIC fb68 0 std::__ndk1::__back_ref<char>::~__back_ref()
PUBLIC fbb0 0 std::__ndk1::__back_ref<char>::__exec(std::__ndk1::__state<char>&) const
PUBLIC fc80 0 std::__ndk1::__bracket_expression<char, std::__ndk1::regex_traits<char> >::__add_char[abi:ne180000](char)
PUBLIC 10130 0 std::__ndk1::__bracket_expression<char, std::__ndk1::regex_traits<char> >::__bracket_expression[abi:ne180000](std::__ndk1::regex_traits<char> const&, std::__ndk1::__node<char>*, bool, bool, bool)
PUBLIC 1030c 0 std::__ndk1::vector<std::__ndk1::basic_string<char, std::__ndk1::char_traits<char>, std::__ndk1::allocator<char> >, std::__ndk1::allocator<std::__ndk1::basic_string<char, std::__ndk1::char_traits<char>, std::__ndk1::allocator<char> > > >::~vector[abi:ne180000]()
PUBLIC 10388 0 std::__ndk1::vector<std::__ndk1::pair<std::__ndk1::basic_string<char, std::__ndk1::char_traits<char>, std::__ndk1::allocator<char> >, std::__ndk1::basic_string<char, std::__ndk1::char_traits<char>, std::__ndk1::allocator<char> > >, std::__ndk1::allocator<std::__ndk1::pair<std::__ndk1::basic_string<char, std::__ndk1::char_traits<char>, std::__ndk1::allocator<char> >, std::__ndk1::basic_string<char, std::__ndk1::char_traits<char>, std::__ndk1::allocator<char> > > > >::~vector[abi:ne180000]()
PUBLIC 1042c 0 std::__ndk1::__bracket_expression<char, std::__ndk1::regex_traits<char> >::~__bracket_expression()
PUBLIC 10578 0 std::__ndk1::__bracket_expression<char, std::__ndk1::regex_traits<char> >::~__bracket_expression()
PUBLIC 1059c 0 std::__ndk1::__bracket_expression<char, std::__ndk1::regex_traits<char> >::__exec(std::__ndk1::__state<char>&) const
PUBLIC 11208 0 std::__ndk1::pair<std::__ndk1::basic_string<char, std::__ndk1::char_traits<char>, std::__ndk1::allocator<char> >, std::__ndk1::basic_string<char, std::__ndk1::char_traits<char>, std::__ndk1::allocator<char> > >::~pair()
PUBLIC 1124c 0 std::__ndk1::basic_string<char, std::__ndk1::char_traits<char>, std::__ndk1::allocator<char> >::__assign_no_alias<true>(char const*, unsigned long)
PUBLIC 112f8 0 std::__ndk1::basic_string<char, std::__ndk1::char_traits<char>, std::__ndk1::allocator<char> >::__assign_no_alias<false>(char const*, unsigned long)
PUBLIC 11408 0 std::__ndk1::regex_traits<char>::__transform_primary<char*>(char*, char*, char) const
PUBLIC 115cc 0 std::__ndk1::vector<char, std::__ndk1::allocator<char> >::__throw_length_error[abi:ne180000]() const
PUBLIC 115e0 0 std::__ndk1::__throw_regex_error[abi:ne180000]<(std::__ndk1::regex_constants::error_type)5>()
PUBLIC 1162c 0 std::__ndk1::basic_regex<char, std::__ndk1::regex_traits<char> >::__parse_class_escape<char const*>(char const*, char const*, std::__ndk1::basic_string<char, std::__ndk1::char_traits<char>, std::__ndk1::allocator<char> >&, std::__ndk1::__bracket_expression<char, std::__ndk1::regex_traits<char> >*)
PUBLIC 11bf4 0 std::__ndk1::basic_regex<char, std::__ndk1::regex_traits<char> >::__parse_awk_escape<char const*>(char const*, char const*, std::__ndk1::basic_string<char, std::__ndk1::char_traits<char>, std::__ndk1::allocator<char> >*)
PUBLIC 120b8 0 std::__ndk1::__bracket_expression<char, std::__ndk1::regex_traits<char> >::__add_digraph[abi:ne180000](char, char)
PUBLIC 124d8 0 std::__ndk1::__throw_regex_error[abi:ne180000]<(std::__ndk1::regex_constants::error_type)1>()
PUBLIC 12524 0 std::__ndk1::regex_traits<char>::__lookup_collatename<char const*>(char const*, char const*, char) const
PUBLIC 127d8 0 std::__ndk1::vector<std::__ndk1::basic_string<char, std::__ndk1::char_traits<char>, std::__ndk1::allocator<char> >, std::__ndk1::allocator<std::__ndk1::basic_string<char, std::__ndk1::char_traits<char>, std::__ndk1::allocator<char> > > >::__push_back_slow_path<std::__ndk1::basic_string<char, std::__ndk1::char_traits<char>, std::__ndk1::allocator<char> > const&>(std::__ndk1::basic_string<char, std::__ndk1::char_traits<char>, std::__ndk1::allocator<char> > const&)
PUBLIC 129fc 0 std::__ndk1::basic_string<char, std::__ndk1::char_traits<char>, std::__ndk1::allocator<char> >::__init_copy_ctor_external(char const*, unsigned long)
PUBLIC 12a7c 0 std::__ndk1::__split_buffer<std::__ndk1::basic_string<char, std::__ndk1::char_traits<char>, std::__ndk1::allocator<char> >, std::__ndk1::allocator<std::__ndk1::basic_string<char, std::__ndk1::char_traits<char>, std::__ndk1::allocator<char> > >&>::~__split_buffer()
PUBLIC 12ae4 0 std::__ndk1::vector<std::__ndk1::basic_string<char, std::__ndk1::char_traits<char>, std::__ndk1::allocator<char> >, std::__ndk1::allocator<std::__ndk1::basic_string<char, std::__ndk1::char_traits<char>, std::__ndk1::allocator<char> > > >::__throw_length_error[abi:ne180000]() const
PUBLIC 12af8 0 std::__ndk1::__throw_regex_error[abi:ne180000]<(std::__ndk1::regex_constants::error_type)2>()
PUBLIC 12b44 0 std::__ndk1::regex_traits<char>::transform<std::__ndk1::__wrap_iter<char*> >(std::__ndk1::__wrap_iter<char*>, std::__ndk1::__wrap_iter<char*>) const
PUBLIC 12cf8 0 std::__ndk1::__throw_regex_error[abi:ne180000]<(std::__ndk1::regex_constants::error_type)9>()
PUBLIC 12d44 0 std::__ndk1::vector<std::__ndk1::pair<std::__ndk1::basic_string<char, std::__ndk1::char_traits<char>, std::__ndk1::allocator<char> >, std::__ndk1::basic_string<char, std::__ndk1::char_traits<char>, std::__ndk1::allocator<char> > >, std::__ndk1::allocator<std::__ndk1::pair<std::__ndk1::basic_string<char, std::__ndk1::char_traits<char>, std::__ndk1::allocator<char> >, std::__ndk1::basic_string<char, std::__ndk1::char_traits<char>, std::__ndk1::allocator<char> > > > >::__push_back_slow_path<std::__ndk1::pair<std::__ndk1::basic_string<char, std::__ndk1::char_traits<char>, std::__ndk1::allocator<char> >, std::__ndk1::basic_string<char, std::__ndk1::char_traits<char>, std::__ndk1::allocator<char> > > >(std::__ndk1::pair<std::__ndk1::basic_string<char, std::__ndk1::char_traits<char>, std::__ndk1::allocator<char> >, std::__ndk1::basic_string<char, std::__ndk1::char_traits<char>, std::__ndk1::allocator<char> > >&&)
PUBLIC 12eec 0 std::__ndk1::vector<std::__ndk1::pair<std::__ndk1::basic_string<char, std::__ndk1::char_traits<char>, std::__ndk1::allocator<char> >, std::__ndk1::basic_string<char, std::__ndk1::char_traits<char>, std::__ndk1::allocator<char> > >, std::__ndk1::allocator<std::__ndk1::pair<std::__ndk1::basic_string<char, std::__ndk1::char_traits<char>, std::__ndk1::allocator<char> >, std::__ndk1::basic_string<char, std::__ndk1::char_traits<char>, std::__ndk1::allocator<char> > > > >::__throw_length_error[abi:ne180000]() const
PUBLIC 12f00 0 std::__ndk1::vector<std::__ndk1::pair<char, char>, std::__ndk1::allocator<std::__ndk1::pair<char, char> > >::__throw_length_error[abi:ne180000]() const
PUBLIC 12f14 0 std::__ndk1::__begin_marked_subexpression<char>::~__begin_marked_subexpression()
PUBLIC 12f5c 0 std::__ndk1::__begin_marked_subexpression<char>::__exec(std::__ndk1::__state<char>&) const
PUBLIC 12f8c 0 std::__ndk1::__end_marked_subexpression<char>::~__end_marked_subexpression()
PUBLIC 12fd4 0 std::__ndk1::__end_marked_subexpression<char>::__exec(std::__ndk1::__state<char>&) const
PUBLIC 1300c 0 std::__ndk1::basic_regex<char, std::__ndk1::regex_traits<char> >::__push_loop(unsigned long, unsigned long, std::__ndk1::__owns_one_state<char>*, unsigned long, unsigned long, bool)
PUBLIC 1314c 0 std::__ndk1::__throw_regex_error[abi:ne180000]<(std::__ndk1::regex_constants::error_type)8>()
PUBLIC 13198 0 std::__ndk1::__throw_regex_error[abi:ne180000]<(std::__ndk1::regex_constants::error_type)7>()
PUBLIC 131e4 0 std::__ndk1::__loop<char>::~__loop()
PUBLIC 1324c 0 std::__ndk1::__loop<char>::__exec(std::__ndk1::__state<char>&) const
PUBLIC 13410 0 std::__ndk1::__loop<char>::__exec_split(bool, std::__ndk1::__state<char>&) const
PUBLIC 134d4 0 std::__ndk1::__owns_two_states<char>::~__owns_two_states()
PUBLIC 1353c 0 std::__ndk1::__repeat_one_loop<char>::~__repeat_one_loop()
PUBLIC 13540 0 std::__ndk1::__repeat_one_loop<char>::__exec(std::__ndk1::__state<char>&) const
PUBLIC 13554 0 std::__ndk1::__owns_two_states<char>::~__owns_two_states()
PUBLIC 135c0 0 std::__ndk1::__alternate<char>::~__alternate()
PUBLIC 13628 0 std::__ndk1::__alternate<char>::__exec(std::__ndk1::__state<char>&) const
PUBLIC 13634 0 std::__ndk1::__alternate<char>::__exec_split(bool, std::__ndk1::__state<char>&) const
PUBLIC 13658 0 std::__ndk1::__node<char>::~__node()
PUBLIC 1365c 0 std::__ndk1::__empty_non_own_state<char>::~__empty_non_own_state()
PUBLIC 13660 0 std::__ndk1::__empty_non_own_state<char>::__exec(std::__ndk1::__state<char>&) const
PUBLIC 13674 0 std::__ndk1::__throw_regex_error[abi:ne180000]<(std::__ndk1::regex_constants::error_type)15>()
PUBLIC 136c0 0 std::__ndk1::basic_regex<char, std::__ndk1::regex_traits<char> >::__parse_nondupl_RE<char const*>(char const*, char const*)
PUBLIC 139bc 0 std::__ndk1::basic_regex<char, std::__ndk1::regex_traits<char> >::__parse_RE_dupl_symbol<char const*>(char const*, char const*, std::__ndk1::__owns_one_state<char>*, unsigned int, unsigned int)
PUBLIC 13c2c 0 std::__ndk1::__owns_one_state<char>::~__owns_one_state()
PUBLIC 13c58 0 std::__ndk1::__match_any<char>::~__match_any()
PUBLIC 13ca0 0 std::__ndk1::__match_any<char>::__exec(std::__ndk1::__state<char>&) const
PUBLIC 13ce0 0 std::__ndk1::basic_regex<char, std::__ndk1::regex_traits<char> >::__test_back_ref(char)
PUBLIC 13d40 0 std::__ndk1::basic_regex<char, std::__ndk1::regex_traits<char> >::__parse_ERE_expression<char const*>(char const*, char const*)
PUBLIC 1408c 0 _ZNSt6__ndk112basic_stringIcNS_11char_traitsIcEENS_9allocatorIcEEE6appendB8ne180000IPKcTnNS_9enable_ifIXsr31__has_forward_iterator_categoryIT_EE5valueEiE4typeELi0EEERS5_SA_SA_
PUBLIC 14390 0 geode::modifier::ModifyDerive<MyFMODAudioEngine, FMODAudioEngine>::apply()
PUBLIC 148b4 0 std::__ndk1::shared_ptr<geode::Hook>::~shared_ptr[abi:ne180000]()
PUBLIC 14904 0 geode::impl::ResultData<geode::Hook*, std::__ndk1::basic_string<char, std::__ndk1::char_traits<char>, std::__ndk1::allocator<char> > >::~ResultData()
PUBLIC 14978 0 geode::modifier::ModifyBase<geode::modifier::ModifyDerive<MyFMODAudioEngine, FMODAudioEngine> >::apply()
PUBLIC 1497c 0 _ZN5geode15UnwrapExceptionC2IRPNS_4HookEQsr4implE18IsStringStreamableIT_EEENS_4impl5OkTagEOS5_
PUBLIC 14ad0 0 std::__ndk1::__throw_bad_variant_access[abi:ne180000]()
PUBLIC 14b04 0 std::__ndk1::basic_stringstream<char, std::__ndk1::char_traits<char>, std::__ndk1::allocator<char> >::basic_stringstream[abi:ne180000]()
PUBLIC m 14c30 0 std::__ndk1::basic_stringstream<char, std::__ndk1::char_traits<char>, std::__ndk1::allocator<char> >::~basic_stringstream()
PUBLIC 14cb0 0 geode::UnwrapException::~UnwrapException()
PUBLIC 14cd4 0 std::__ndk1::__put_character_sequence[abi:ne180000]<char, std::__ndk1::char_traits<char> >(std::__ndk1::basic_ostream<char, std::__ndk1::char_traits<char> >, std::__ndk1::basic_ostream const*, unsigned long)
PUBLIC 14e78 0 std::__ndk1::__pad_and_output[abi:ne180000]<char, std::__ndk1::char_traits<char> >(std::__ndk1::char_traits<char>, std::__ndk1::ostreambuf_iterator const*, std::__ndk1::ostreambuf_iterator const, std::__ndk1::ostreambuf_iterator const, std::__ndk1::ios_base&, std::__ndk1::ostreambuf_iterator)
PUBLIC 15054 0 std::__ndk1::basic_stringbuf<char, std::__ndk1::char_traits<char>, std::__ndk1::allocator<char> >::str[abi:ne180000]() &&
PUBLIC 151cc 0 std::__ndk1::basic_stringbuf<char, std::__ndk1::char_traits<char>, std::__ndk1::allocator<char> >::__init_buf_ptrs[abi:ne180000]()
PUBLIC 15314 0 std::__ndk1::__variant_detail::__visitation::__base::__dispatcher<(unsigned long)0>::__dispatch[abi:ne180000]<std::__ndk1::__variant_detail::__dtor<std::__ndk1::__variant_detail::__traits<geode::Hook*, std::__ndk1::basic_string<char, std::__ndk1::char_traits<char>, std::__ndk1::allocator<char> > >, (std::__ndk1::__variant_detail::_Trait)1>::__destroy[abi:ne180000]()::{lambda(auto:1&)#1}, std::__ndk1::__variant_detail::__base<(std::__ndk1::__variant_detail::__traits<geode::Hook*, std::__ndk1::basic_string<char, std::__ndk1::char_traits<char>, std::__ndk1::allocator<char> > >)1, geode::Hook, std::__ndk1::allocator<char> >&>(std::__ndk1::__variant_detail::__dtor<std::__ndk1::__variant_detail::__traits<geode::Hook*, std::__ndk1::basic_string<char, std::__ndk1::char_traits<char>, std::__ndk1::allocator<char> > >, (std::__ndk1::__variant_detail::_Trait)1>, std::__ndk1::__variant_detail::__base<(std::__ndk1::__variant_detail::__traits<geode::Hook*, std::__ndk1::basic_string<char, std::__ndk1::char_traits<char>, std::__ndk1::allocator<char> > >)1, geode::Hook, std::__ndk1::allocator<char> >&)
PUBLIC 15318 0 std::__ndk1::__variant_detail::__visitation::__base::__dispatcher<(unsigned long)1>::__dispatch[abi:ne180000]<std::__ndk1::__variant_detail::__dtor<std::__ndk1::__variant_detail::__traits<geode::Hook*, std::__ndk1::basic_string<char, std::__ndk1::char_traits<char>, std::__ndk1::allocator<char> > >, (std::__ndk1::__variant_detail::_Trait)1>::__destroy[abi:ne180000]()::{lambda(auto:1&)#1}, std::__ndk1::__variant_detail::__base<(std::__ndk1::__variant_detail::__traits<geode::Hook*, std::__ndk1::basic_string<char, std::__ndk1::char_traits<char>, std::__ndk1::allocator<char> > >)1, geode::Hook, std::__ndk1::allocator<char> >&>(std::__ndk1::__variant_detail::__dtor<std::__ndk1::__variant_detail::__traits<geode::Hook*, std::__ndk1::basic_string<char, std::__ndk1::char_traits<char>, std::__ndk1::allocator<char> > >, (std::__ndk1::__variant_detail::_Trait)1>, std::__ndk1::__variant_detail::__base<(std::__ndk1::__variant_detail::__traits<geode::Hook*, std::__ndk1::basic_string<char, std::__ndk1::char_traits<char>, std::__ndk1::allocator<char> > >)1, geode::Hook, std::__ndk1::allocator<char> >&)
PUBLIC 1532c 0 std::__ndk1::__tree<std::__ndk1::__value_type<std::__ndk1::basic_string<char, std::__ndk1::char_traits<char>, std::__ndk1::allocator<char> >, std::__ndk1::shared_ptr<geode::Hook> >, std::__ndk1::__map_value_compare<std::__ndk1::basic_string<char, std::__ndk1::char_traits<char>, std::__ndk1::allocator<char> >, std::__ndk1::__value_type<std::__ndk1::basic_string<char, std::__ndk1::char_traits<char>, std::__ndk1::allocator<char> >, std::__ndk1::shared_ptr<geode::Hook> >, std::__ndk1::less<std::__ndk1::basic_string<char, std::__ndk1::char_traits<char>, std::__ndk1::allocator<char> > >, true>, std::__ndk1::allocator<std::__ndk1::__value_type<std::__ndk1::basic_string<char, std::__ndk1::char_traits<char>, std::__ndk1::allocator<char> >, std::__ndk1::shared_ptr<geode::Hook> > > >::destroy(std::__ndk1::__tree_node<std::__ndk1::__value_type<std::__ndk1::basic_string<char, std::__ndk1::char_traits<char>, std::__ndk1::allocator<char> >, std::__ndk1::shared_ptr<geode::Hook> >, void*>*)
PUBLIC 153b0 0 geode::modifier::AsStaticFunction_playEffect<MyFMODAudioEngine, void (MyFMODAudioEngine::*)(gd::string, float, float, float)>::Impl<void (MyFMODAudioEngine::*)(gd::string, float, float, float)>::function(MyFMODAudioEngine*, gd::string, float, float, float)
PUBLIC 15458 0 std::__ndk1::shared_ptr<tulip::hook::CallingConvention>::~shared_ptr[abi:ne180000]()
PUBLIC 154a8 0 tulip::hook::HandlerMetadata::~HandlerMetadata()
PUBLIC 1550c 0 std::__ndk1::vector<tulip::hook::AbstractType, std::__ndk1::allocator<tulip::hook::AbstractType> >::__throw_length_error[abi:ne180000]() const
PUBLIC 15520 0 MyFMODAudioEngine::playEffect(gd::string, float, float, float)
PUBLIC 18170 0 geode::Mod::getSettingValue<double>(std::__ndk1::basic_string_view<char, std::__ndk1::char_traits<char> >) const
PUBLIC 182a8 0 geode::cast::traverseTypeinfoFor(void*, geode::cast::ClassTypeinfoType const*, char const*)
PUBLIC 183a0 0 std::__ndk1::deque<std::__ndk1::__state<char>, std::__ndk1::allocator<std::__ndk1::__state<char> > >::~deque[abi:ne180000]()
PUBLIC 18568 0 std::__ndk1::deque<std::__ndk1::__state<char>, std::__ndk1::allocator<std::__ndk1::__state<char> > >::__add_back_capacity()
PUBLIC 18b58 0 std::__ndk1::__split_buffer<std::__ndk1::__state<char>*, std::__ndk1::allocator<std::__ndk1::__state<char>*> >::push_back(std::__ndk1::__state<char>*&&)
PUBLIC 18ce0 0 std::__ndk1::__split_buffer<std::__ndk1::__state<char>*, std::__ndk1::allocator<std::__ndk1::__state<char>*> >::push_front(std::__ndk1::__state<char>*&&)
PUBLIC 18e6c 0 std::__ndk1::vector<std::__ndk1::sub_match<std::__ndk1::__wrap_iter<char const*> >, std::__ndk1::allocator<std::__ndk1::sub_match<std::__ndk1::__wrap_iter<char const*> > > >::__throw_length_error[abi:ne180000]() const
PUBLIC 18e80 0 std::__ndk1::__fs::filesystem::path::operator/=[abi:ne180000](std::__ndk1::__fs::filesystem::path const&)
PUBLIC 18f60 0 std::__ndk1::__tree_balance_after_insert[abi:ne180000]<std::__ndk1::__tree_node_base<void*>*>(std::__ndk1::__tree_node_base<void*>*, std::__ndk1::__tree_node_base<void*>*)
PUBLIC 19110 0 _GLOBAL__sub_I_main.cpp
PUBLIC m 19be8 0 geodeImplicitEntry
PUBLIC 19c24 0 wrapFunction(unsigned long, tulip::hook::WrapperMetadata const&)
PUBLIC 19d58 0 geode::impl::ResultData<void*, std::__ndk1::basic_string<char, std::__ndk1::char_traits<char>, std::__ndk1::allocator<char> > >::unwrapErr() &
PUBLIC 19dd0 0 geode::impl::ResultData<void*, std::__ndk1::basic_string<char, std::__ndk1::char_traits<char>, std::__ndk1::allocator<char> > >::~ResultData()
PUBLIC 19e44 0 tulip::hook::WrapperMetadata::~WrapperMetadata()
PUBLIC 19ea8 0 FMODAudioEngine::playEffect(gd::string, float, float, float)
PUBLIC 1a048 0 tulip::hook::AbstractFunction::from<void, FMODAudioEngine*, gd::string, float, float, float>(void (*)(FMODAudioEngine*, gd::string, float, float, float))
PUBLIC 1a400 0 _ZN5geode15UnwrapExceptionC2IRPvQsr4implE18IsStringStreamableIT_EEENS_4impl5OkTagEOS4_
PUBLIC 1a554 0 _ZN5geode15UnwrapExceptionC2IRNSt6__ndk112basic_stringIcNS2_11char_traitsIcEENS2_9allocatorIcEEEEQsr4implE18IsStringStreamableIT_EEENS_4impl6ErrTagEOSA_
PUBLIC 1a6bc 0 std::__ndk1::__variant_detail::__visitation::__base::__dispatcher<(unsigned long)0>::__dispatch[abi:ne180000]<std::__ndk1::__variant_detail::__dtor<std::__ndk1::__variant_detail::__traits<void*, std::__ndk1::basic_string<char, std::__ndk1::char_traits<char>, std::__ndk1::allocator<char> > >, (std::__ndk1::__variant_detail::_Trait)1>::__destroy[abi:ne180000]()::{lambda(auto:1&)#1}, std::__ndk1::__variant_detail::__base<(std::__ndk1::__variant_detail::__traits<void*, std::__ndk1::basic_string<char, std::__ndk1::char_traits<char>, std::__ndk1::allocator<char> > >)1, std::__ndk1::__variant_detail::__traits, std::__ndk1::allocator<char> >&>(std::__ndk1::__variant_detail::__dtor<std::__ndk1::__variant_detail::__traits<void*, std::__ndk1::basic_string<char, std::__ndk1::char_traits<char>, std::__ndk1::allocator<char> > >, (std::__ndk1::__variant_detail::_Trait)1>, std::__ndk1::__variant_detail::__base<(std::__ndk1::__variant_detail::__traits<void*, std::__ndk1::basic_string<char, std::__ndk1::char_traits<char>, std::__ndk1::allocator<char> > >)1, std::__ndk1::__variant_detail::__traits, std::__ndk1::allocator<char> >&)
PUBLIC 1a6c0 0 std::__ndk1::__variant_detail::__visitation::__base::__dispatcher<(unsigned long)1>::__dispatch[abi:ne180000]<std::__ndk1::__variant_detail::__dtor<std::__ndk1::__variant_detail::__traits<void*, std::__ndk1::basic_string<char, std::__ndk1::char_traits<char>, std::__ndk1::allocator<char> > >, (std::__ndk1::__variant_detail::_Trait)1>::__destroy[abi:ne180000]()::{lambda(auto:1&)#1}, std::__ndk1::__variant_detail::__base<(std::__ndk1::__variant_detail::__traits<void*, std::__ndk1::basic_string<char, std::__ndk1::char_traits<char>, std::__ndk1::allocator<char> > >)1, std::__ndk1::__variant_detail::__traits, std::__ndk1::allocator<char> >&>(std::__ndk1::__variant_detail::__dtor<std::__ndk1::__variant_detail::__traits<void*, std::__ndk1::basic_string<char, std::__ndk1::char_traits<char>, std::__ndk1::allocator<char> > >, (std::__ndk1::__variant_detail::_Trait)1>, std::__ndk1::__variant_detail::__base<(std::__ndk1::__variant_detail::__traits<void*, std::__ndk1::basic_string<char, std::__ndk1::char_traits<char>, std::__ndk1::allocator<char> > >)1, std::__ndk1::__variant_detail::__traits, std::__ndk1::allocator<char> >&)
PUBLIC 1a6e0 0 <.plt ELF section in raydeeux.controlvanillasfx.android64.so>
STACK CFI INIT 97d0 10 .cfa: sp 0 +
STACK CFI INIT 97e0 8 .cfa: sp 0 +
STACK CFI INIT 97e8 8 .cfa: sp 0 +
STACK CFI INIT 97f0 14 .cfa: sp 0 +
STACK CFI INIT 9804 1c .cfa: sp 0 +
STACK CFI INIT 9820 10 .cfa: sp 0 +
STACK CFI INIT 9830 30 .cfa: sp 0 +
STACK CFI INIT 9860 98 .cfa: sp 0 +
STACK CFI INIT 98f8 59c .cfa: sp 0 +
STACK CFI INIT 9e94 8c .cfa: sp 0 +
STACK CFI INIT 9f20 30 .cfa: sp 0 +
STACK CFI INIT 9f50 60 .cfa: sp 0 +
STACK CFI 9f54 .cfa: sp 32 +
STACK CFI 9f5c .cfa: x29 32 + x19: .cfa -8 + ^ x20: .cfa -16 + ^ .ra: .cfa -24 + ^ x29: .cfa -32 + ^
STACK CFI 9f7c .cfa: sp 32 +
STACK CFI 9f84 .cfa: sp 0 +
STACK CFI 9f88 .cfa: x29 32 +
STACK CFI 9fa4 .cfa: sp 32 +
STACK CFI 9fac .cfa: sp 0 +
STACK CFI INIT 9fb0 78 .cfa: sp 0 +
STACK CFI 9fbc .cfa: sp 48 +
STACK CFI 9fc8 .cfa: x29 48 + x19: .cfa -8 + ^ x20: .cfa -16 + ^ x21: .cfa -32 + ^ .ra: .cfa -40 + ^ x29: .cfa -48 + ^
STACK CFI 9fec .cfa: sp 48 +
STACK CFI 9ff8 .cfa: sp 0 +
STACK CFI 9ffc .cfa: x29 48 +
STACK CFI INIT a028 14 .cfa: sp 0 +
STACK CFI INIT aa60 18 .cfa: sp 0 +
STACK CFI INIT aa78 54 .cfa: sp 0 +
STACK CFI aa7c .cfa: sp 32 +
STACK CFI aa84 .cfa: x29 32 + x19: .cfa -16 + ^ .ra: .cfa -24 + ^ x29: .cfa -32 + ^
STACK CFI aaa0 .cfa: sp 32 +
STACK CFI aaa8 .cfa: sp 0 +
STACK CFI aaac .cfa: x29 32 +
STACK CFI aac0 .cfa: sp 32 +
STACK CFI aac8 .cfa: sp 0 +
STACK CFI INIT aacc 14 .cfa: sp 0 +
STACK CFI aad0 .cfa: sp 16 +
STACK CFI aad4 .cfa: x29 16 + .ra: .cfa -8 + ^ x29: .cfa -16 + ^
STACK CFI INIT ab30 30 .cfa: sp 0 +
STACK CFI ab34 .cfa: sp 32 +
STACK CFI ab3c .cfa: x29 32 + x19: .cfa -16 + ^ .ra: .cfa -24 + ^ x29: .cfa -32 + ^
STACK CFI ab54 .cfa: sp 32 +
STACK CFI ab5c .cfa: sp 0 +
STACK CFI INIT ab60 34 .cfa: sp 0 +
STACK CFI ab64 .cfa: sp 32 +
STACK CFI ab6c .cfa: x29 32 + x19: .cfa -16 + ^ .ra: .cfa -24 + ^ x29: .cfa -32 + ^
STACK CFI INIT ab94 10 .cfa: sp 0 +
STACK CFI ab98 .cfa: sp 16 +
STACK CFI ab9c .cfa: x29 16 + .ra: .cfa -8 + ^ x29: .cfa -16 + ^
STACK CFI INIT b2b4 26c .cfa: sp 0 +
STACK CFI b2b8 .cfa: sp 112 +
STACK CFI b2d4 .cfa: x29 96 + x19: .cfa -8 + ^ x20: .cfa -16 + ^ x21: .cfa -24 + ^ x22: .cfa -32 + ^ x23: .cfa -40 + ^ x24: .cfa -48 + ^ x25: .cfa -56 + ^ x26: .cfa -64 + ^ x27: .cfa -72 + ^ x28: .cfa -80 + ^ .ra: .cfa -88 + ^ x29: .cfa -96 + ^
STACK CFI b500 .cfa: sp 112 +
STACK CFI b51c .cfa: sp 0 +
STACK CFI INIT b520 1a8 .cfa: sp 0 +
STACK CFI b524 .cfa: sp 64 +
STACK CFI b534 .cfa: x29 64 + x19: .cfa -8 + ^ x20: .cfa -16 + ^ x21: .cfa -24 + ^ x22: .cfa -32 + ^ x23: .cfa -48 + ^ .ra: .cfa -56 + ^ x29: .cfa -64 + ^
STACK CFI b5b8 .cfa: sp 64 +
STACK CFI b5c8 .cfa: sp 0 +
STACK CFI b5cc .cfa: x29 64 +
STACK CFI b5d4 .cfa: sp 64 +
STACK CFI b5e4 .cfa: sp 0 +
STACK CFI b5e8 .cfa: x29 64 +
STACK CFI b6b0 .cfa: sp 64 +
STACK CFI b6c0 .cfa: sp 0 +
STACK CFI b6c4 .cfa: x29 64 +
STACK CFI INIT b6c8 170 .cfa: sp 0 +
STACK CFI b6cc .cfa: sp 96 +
STACK CFI b6e4 .cfa: x29 96 + x19: .cfa -8 + ^ x20: .cfa -16 + ^ x21: .cfa -24 + ^ x22: .cfa -32 + ^ x23: .cfa -40 + ^ x24: .cfa -48 + ^ x25: .cfa -56 + ^ x26: .cfa -64 + ^ x27: .cfa -80 + ^ .ra: .cfa -88 + ^ x29: .cfa -96 + ^
STACK CFI b818 .cfa: sp 96 +
STACK CFI b830 .cfa: sp 0 +
STACK CFI b834 .cfa: x29 96 +
STACK CFI INIT b884 4 .cfa: sp 0 +
STACK CFI INIT b888 c .cfa: sp 0 +
STACK CFI INIT b894 4 .cfa: sp 0 +
STACK CFI INIT b898 4 .cfa: sp 0 +
STACK CFI INIT b89c 24 .cfa: sp 0 +
STACK CFI b8a0 .cfa: sp 32 +
STACK CFI b8a8 .cfa: x29 32 + x19: .cfa -16 + ^ .ra: .cfa -24 + ^ x29: .cfa -32 + ^
STACK CFI b8b4 .cfa: sp 32 +
STACK CFI b8bc .cfa: sp 0 +
STACK CFI INIT b8c0 18 .cfa: sp 0 +
STACK CFI INIT b8d8 1c .cfa: sp 0 +
STACK CFI INIT b8f4 4 .cfa: sp 0 +
STACK CFI INIT b8f8 48 .cfa: sp 0 +
STACK CFI b914 .cfa: sp 32 +
STACK CFI b91c .cfa: x29 32 + x19: .cfa -16 + ^ .ra: .cfa -24 + ^ x29: .cfa -32 + ^
STACK CFI b934 .cfa: sp 32 +
STACK CFI b93c .cfa: sp 0 +
STACK CFI INIT b940 14 .cfa: sp 0 +
STACK CFI INIT b954 48 .cfa: sp 0 +
STACK CFI b970 .cfa: sp 32 +
STACK CFI b978 .cfa: x29 32 + x19: .cfa -16 + ^ .ra: .cfa -24 + ^ x29: .cfa -32 + ^
STACK CFI b990 .cfa: sp 32 +
STACK CFI b998 .cfa: sp 0 +
STACK CFI INIT c344 3f4 .cfa: sp 0 +
STACK CFI c348 .cfa: sp 32 +
STACK CFI c350 .cfa: x29 32 + x19: .cfa -16 + ^ .ra: .cfa -24 + ^ x29: .cfa -32 + ^
STACK CFI c49c .cfa: sp 32 +
STACK CFI c4a4 .cfa: sp 0 +
STACK CFI c4a8 .cfa: x29 32 +
STACK CFI c4b0 .cfa: sp 32 +
STACK CFI c4b8 .cfa: sp 0 +
STACK CFI c4bc .cfa: x29 32 +
STACK CFI c4f8 .cfa: sp 32 +
STACK CFI c500 .cfa: sp 0 +
STACK CFI c504 .cfa: x29 32 +
STACK CFI c540 .cfa: sp 32 +
STACK CFI c548 .cfa: sp 0 +
STACK CFI c54c .cfa: x29 32 +
STACK CFI c578 .cfa: sp 32 +
STACK CFI c580 .cfa: sp 0 +
STACK CFI c584 .cfa: x29 32 +
STACK CFI c5a0 .cfa: sp 32 +
STACK CFI c5a8 .cfa: sp 0 +
STACK CFI c5ac .cfa: x29 32 +
STACK CFI c610 .cfa: sp 32 +
STACK CFI c618 .cfa: sp 0 +
STACK CFI c61c .cfa: x29 32 +
STACK CFI c6ec .cfa: sp 32 +
STACK CFI c6f4 .cfa: sp 0 +
STACK CFI c6f8 .cfa: x29 32 +
STACK CFI c724 .cfa: sp 32 +
STACK CFI c72c .cfa: sp 0 +
STACK CFI c730 .cfa: x29 32 +
STACK CFI INIT c7a4 b4 .cfa: sp 0 +
STACK CFI c7a8 .cfa: sp 64 +
STACK CFI c7b8 .cfa: x29 64 + x19: .cfa -8 + ^ x20: .cfa -16 + ^ x21: .cfa -24 + ^ x22: .cfa -32 + ^ x23: .cfa -48 + ^ .ra: .cfa -56 + ^ x29: .cfa -64 + ^
STACK CFI c844 .cfa: sp 64 +
STACK CFI c854 .cfa: sp 0 +
STACK CFI INIT c8a4 48 .cfa: sp 0 +
STACK CFI c8c0 .cfa: sp 32 +
STACK CFI c8c8 .cfa: x29 32 + x19: .cfa -16 + ^ .ra: .cfa -24 + ^ x29: .cfa -32 + ^
STACK CFI c8e0 .cfa: sp 32 +
STACK CFI c8e8 .cfa: sp 0 +
STACK CFI INIT c8ec 64 .cfa: sp 0 +
STACK CFI INIT c950 48 .cfa: sp 0 +
STACK CFI c96c .cfa: sp 32 +
STACK CFI c974 .cfa: x29 32 + x19: .cfa -16 + ^ .ra: .cfa -24 + ^ x29: .cfa -32 + ^
STACK CFI c98c .cfa: sp 32 +
STACK CFI c994 .cfa: sp 0 +
STACK CFI INIT c998 54 .cfa: sp 0 +
STACK CFI INIT c9ec 5c .cfa: sp 0 +
STACK CFI c9f0 .cfa: sp 32 +
STACK CFI c9f8 .cfa: x29 32 + x19: .cfa -16 + ^ .ra: .cfa -24 + ^ x29: .cfa -32 + ^
STACK CFI ca30 .cfa: sp 32 +
STACK CFI ca38 .cfa: sp 0 +
STACK CFI ca3c .cfa: sp 32 +
STACK CFI ca44 .cfa: sp 0 +
STACK CFI INIT ca48 58 .cfa: sp 0 +
STACK CFI ca4c .cfa: sp 32 +
STACK CFI ca54 .cfa: x29 32 + x19: .cfa -16 + ^ .ra: .cfa -24 + ^ x29: .cfa -32 + ^
STACK CFI ca94 .cfa: sp 32 +
STACK CFI ca9c .cfa: sp 0 +
STACK CFI INIT caa0 110 .cfa: sp 0 +
STACK CFI INIT cbb0 90 .cfa: sp 0 +
STACK CFI cbb4 .cfa: sp 32 +
STACK CFI cbbc .cfa: x29 32 + x19: .cfa -8 + ^ x20: .cfa -16 + ^ .ra: .cfa -24 + ^ x29: .cfa -32 + ^
STACK CFI cc28 .cfa: sp 32 +
STACK CFI cc30 .cfa: sp 0 +
STACK CFI cc34 .cfa: sp 32 +
STACK CFI cc3c .cfa: sp 0 +
STACK CFI INIT cc40 8c .cfa: sp 0 +
STACK CFI cc44 .cfa: sp 32 +
STACK CFI cc4c .cfa: x29 32 + x19: .cfa -8 + ^ x20: .cfa -16 + ^ .ra: .cfa -24 + ^ x29: .cfa -32 + ^
STACK CFI ccc0 .cfa: sp 32 +
STACK CFI ccc8 .cfa: sp 0 +
STACK CFI INIT d2ec 1c8 .cfa: sp 0 +
STACK CFI d2f0 .cfa: sp 48 +
STACK CFI d2fc .cfa: x29 48 + x19: .cfa -8 + ^ x20: .cfa -16 + ^ x21: .cfa -24 + ^ x22: .cfa -32 + ^ .ra: .cfa -40 + ^ x29: .cfa -48 + ^
STACK CFI d484 .cfa: sp 48 +
STACK CFI d490 .cfa: sp 0 +
STACK CFI d494 .cfa: x29 48 +
STACK CFI d4a0 .cfa: sp 48 +
STACK CFI d4ac .cfa: sp 0 +
STACK CFI d4b0 .cfa: x29 48 +
STACK CFI INIT d4b4 14 .cfa: sp 0 +
STACK CFI d4b8 .cfa: sp 16 +
STACK CFI d4bc .cfa: x29 16 + .ra: .cfa -8 + ^ x29: .cfa -16 + ^
STACK CFI INIT d4c8 44 .cfa: sp 0 +
STACK CFI d4cc .cfa: sp 32 +
STACK CFI d4d4 .cfa: x29 32 + x19: .cfa -16 + ^ .ra: .cfa -24 + ^ x29: .cfa -32 + ^
STACK CFI d4f4 .cfa: sp 32 +
STACK CFI d4fc .cfa: sp 0 +
STACK CFI d500 .cfa: sp 32 +
STACK CFI d508 .cfa: sp 0 +
STACK CFI INIT d714 98 .cfa: sp 0 +
STACK CFI d718 .cfa: sp 48 +
STACK CFI d724 .cfa: x29 48 + x19: .cfa -8 + ^ x20: .cfa -16 + ^ x21: .cfa -32 + ^ .ra: .cfa -40 + ^ x29: .cfa -48 + ^
STACK CFI d744 .cfa: sp 48 +
STACK CFI d750 .cfa: sp 0 +
STACK CFI d754 .cfa: x29 48 +
STACK CFI d78c .cfa: sp 48 +
STACK CFI d798 .cfa: sp 0 +
STACK CFI d79c .cfa: sp 48 +
STACK CFI d7a8 .cfa: sp 0 +
STACK CFI INIT d7ac 1dc .cfa: sp 0 +
STACK CFI d7b0 .cfa: sp 48 +
STACK CFI d7bc .cfa: x29 48 + x19: .cfa -8 + ^ x20: .cfa -16 + ^ x21: .cfa -24 + ^ x22: .cfa -32 + ^ .ra: .cfa -40 + ^ x29: .cfa -48 + ^
STACK CFI d970 .cfa: sp 48 +
STACK CFI d97c .cfa: sp 0 +
STACK CFI d980 .cfa: x29 48 +
STACK CFI INIT d988 14 .cfa: sp 0 +
STACK CFI d98c .cfa: sp 16 +
STACK CFI d990 .cfa: x29 16 + .ra: .cfa -8 + ^ x29: .cfa -16 + ^
STACK CFI INIT d99c 1a8 .cfa: sp 0 +
STACK CFI d9a0 .cfa: sp 64 +
STACK CFI d9b0 .cfa: x29 64 + x19: .cfa -8 + ^ x20: .cfa -16 + ^ x21: .cfa -24 + ^ x22: .cfa -32 + ^ x23: .cfa -40 + ^ x24: .cfa -48 + ^ .ra: .cfa -56 + ^ x29: .cfa -64 + ^
STACK CFI db14 .cfa: sp 64 +
STACK CFI db24 .cfa: sp 0 +
STACK CFI db28 .cfa: sp 64 +
STACK CFI db38 .cfa: sp 0 +
STACK CFI db3c .cfa: x29 64 +
STACK CFI INIT db44 12c .cfa: sp 0 +
STACK CFI db48 .cfa: sp 64 +
STACK CFI db58 .cfa: x29 64 + x19: .cfa -8 + ^ x20: .cfa -16 + ^ x21: .cfa -24 + ^ x22: .cfa -32 + ^ x23: .cfa -40 + ^ x24: .cfa -48 + ^ .ra: .cfa -56 + ^ x29: .cfa -64 + ^
STACK CFI dc40 .cfa: sp 64 +
STACK CFI dc50 .cfa: sp 0 +
STACK CFI dc54 .cfa: sp 64 +
STACK CFI dc64 .cfa: sp 0 +
STACK CFI dc68 .cfa: x29 64 +
STACK CFI INIT dc70 14 .cfa: sp 0 +
STACK CFI dc74 .cfa: sp 16 +
STACK CFI dc78 .cfa: x29 16 + .ra: .cfa -8 + ^ x29: .cfa -16 + ^
STACK CFI INIT edc4 48 .cfa: sp 0 +
STACK CFI ede0 .cfa: sp 32 +
STACK CFI ede8 .cfa: x29 32 + x19: .cfa -16 + ^ .ra: .cfa -24 + ^ x29: .cfa -32 + ^
STACK CFI ee00 .cfa: sp 32 +
STACK CFI ee08 .cfa: sp 0 +
STACK CFI INIT ee58 50c .cfa: sp 0 +
STACK CFI ee5c .cfa: sp 32 +
STACK CFI ee64 .cfa: x29 32 + x19: .cfa -16 + ^ .ra: .cfa -24 + ^ x29: .cfa -32 + ^
STACK CFI efac .cfa: sp 32 +
STACK CFI efb4 .cfa: sp 0 +
STACK CFI efb8 .cfa: x29 32 +
STACK CFI f128 .cfa: sp 32 +
STACK CFI f130 .cfa: sp 0 +
STACK CFI f134 .cfa: x29 32 +
STACK CFI f150 .cfa: sp 32 +
STACK CFI f158 .cfa: sp 0 +
STACK CFI f15c .cfa: x29 32 +
STACK CFI f1b8 .cfa: sp 32 +
STACK CFI f1c0 .cfa: sp 0 +
STACK CFI f1c4 .cfa: x29 32 +
STACK CFI f1e0 .cfa: sp 32 +
STACK CFI f1e8 .cfa: sp 0 +
STACK CFI f1ec .cfa: x29 32 +
STACK CFI f208 .cfa: sp 32 +
STACK CFI f210 .cfa: sp 0 +
STACK CFI f214 .cfa: x29 32 +
STACK CFI f230 .cfa: sp 32 +
STACK CFI f238 .cfa: sp 0 +
STACK CFI f23c .cfa: x29 32 +
STACK CFI f254 .cfa: sp 32 +
STACK CFI f25c .cfa: sp 0 +
STACK CFI f260 .cfa: x29 32 +
STACK CFI f27c .cfa: sp 32 +
STACK CFI f284 .cfa: sp 0 +
STACK CFI f288 .cfa: x29 32 +
STACK CFI f2a4 .cfa: sp 32 +
STACK CFI f2ac .cfa: sp 0 +
STACK CFI f2b0 .cfa: x29 32 +
STACK CFI f2cc .cfa: sp 32 +
STACK CFI f2d4 .cfa: sp 0 +
STACK CFI f2d8 .cfa: x29 32 +
STACK CFI f32c .cfa: sp 32 +
STACK CFI f334 .cfa: sp 0 +
STACK CFI f338 .cfa: x29 32 +
STACK CFI f354 .cfa: sp 32 +
STACK CFI f35c .cfa: sp 0 +
STACK CFI f360 .cfa: x29 32 +
STACK CFI INIT f4f0 c8 .cfa: sp 0 +
STACK CFI f4f4 .cfa: sp 48 +
STACK CFI f500 .cfa: x29 48 + x19: .cfa -8 + ^ x20: .cfa -16 + ^ x21: .cfa -32 + ^ .ra: .cfa -40 + ^ x29: .cfa -48 + ^
STACK CFI f5a8 .cfa: sp 48 +
STACK CFI f5b4 .cfa: sp 0 +
STACK CFI INIT f5b8 5c .cfa: sp 0 +
STACK CFI f5bc .cfa: sp 32 +
STACK CFI f5c4 .cfa: x29 32 + x19: .cfa -16 + ^ .ra: .cfa -24 + ^ x29: .cfa -32 + ^
STACK CFI f5fc .cfa: sp 32 +
STACK CFI f604 .cfa: sp 0 +
STACK CFI f608 .cfa: sp 32 +
STACK CFI f610 .cfa: sp 0 +
STACK CFI INIT f614 58 .cfa: sp 0 +
STACK CFI f618 .cfa: sp 32 +
STACK CFI f620 .cfa: x29 32 + x19: .cfa -16 + ^ .ra: .cfa -24 + ^ x29: .cfa -32 + ^
STACK CFI f660 .cfa: sp 32 +
STACK CFI f668 .cfa: sp 0 +
STACK CFI INIT f66c 80 .cfa: sp 0 +
STACK CFI f670 .cfa: sp 32 +
STACK CFI f678 .cfa: x29 32 + x19: .cfa -8 + ^ x20: .cfa -16 + ^ .ra: .cfa -24 + ^ x29: .cfa -32 + ^
STACK CFI f6c8 .cfa: sp 32 +
STACK CFI f6d0 .cfa: sp 0 +
STACK CFI f6d4 .cfa: x29 32 +
STACK CFI f6e0 .cfa: sp 32 +
STACK CFI f6e8 .cfa: sp 0 +
STACK CFI INIT f6ec 5c .cfa: sp 0 +
STACK CFI f6f0 .cfa: sp 32 +
STACK CFI f6f8 .cfa: x29 32 + x19: .cfa -16 + ^ .ra: .cfa -24 + ^ x29: .cfa -32 + ^
STACK CFI f730 .cfa: sp 32 +
STACK CFI f738 .cfa: sp 0 +
STACK CFI f73c .cfa: sp 32 +
STACK CFI f744 .cfa: sp 0 +
STACK CFI INIT f748 58 .cfa: sp 0 +
STACK CFI f74c .cfa: sp 32 +
STACK CFI f754 .cfa: x29 32 + x19: .cfa -16 + ^ .ra: .cfa -24 + ^ x29: .cfa -32 + ^
STACK CFI f794 .cfa: sp 32 +
STACK CFI f79c .cfa: sp 0 +
STACK CFI INIT f7a0 48 .cfa: sp 0 +
STACK CFI INIT f7e8 48 .cfa: sp 0 +
STACK CFI f804 .cfa: sp 32 +
STACK CFI f80c .cfa: x29 32 + x19: .cfa -16 + ^ .ra: .cfa -24 + ^ x29: .cfa -32 + ^
STACK CFI f824 .cfa: sp 32 +
STACK CFI f82c .cfa: sp 0 +
STACK CFI INIT f830 48 .cfa: sp 0 +
STACK CFI INIT f878 5c .cfa: sp 0 +
STACK CFI f87c .cfa: sp 32 +
STACK CFI f884 .cfa: x29 32 + x19: .cfa -16 + ^ .ra: .cfa -24 + ^ x29: .cfa -32 + ^
STACK CFI f8bc .cfa: sp 32 +
STACK CFI f8c4 .cfa: sp 0 +
STACK CFI f8c8 .cfa: sp 32 +
STACK CFI f8d0 .cfa: sp 0 +
STACK CFI INIT f8d4 58 .cfa: sp 0 +
STACK CFI f8d8 .cfa: sp 32 +
STACK CFI f8e0 .cfa: x29 32 + x19: .cfa -16 + ^ .ra: .cfa -24 + ^ x29: .cfa -32 + ^
STACK CFI f920 .cfa: sp 32 +
STACK CFI f928 .cfa: sp 0 +
STACK CFI INIT f92c f8 .cfa: sp 0 +
STACK CFI f930 .cfa: sp 64 +
STACK CFI f940 .cfa: x29 64 + x19: .cfa -8 + ^ x20: .cfa -16 + ^ x21: .cfa -24 + ^ x22: .cfa -32 + ^ x23: .cfa -40 + ^ x24: .cfa -48 + ^ .ra: .cfa -56 + ^ x29: .cfa -64 + ^
STACK CFI f984 .cfa: sp 64 +
STACK CFI f994 .cfa: sp 0 +
STACK CFI f998 .cfa: x29 64 +
STACK CFI fa10 .cfa: sp 64 +
STACK CFI fa20 .cfa: sp 0 +
STACK CFI INIT fa24 5c .cfa: sp 0 +
STACK CFI fa28 .cfa: sp 32 +
STACK CFI fa30 .cfa: x29 32 + x19: .cfa -16 + ^ .ra: .cfa -24 + ^ x29: .cfa -32 + ^
STACK CFI fa68 .cfa: sp 32 +
STACK CFI fa70 .cfa: sp 0 +
STACK CFI fa74 .cfa: sp 32 +
STACK CFI fa7c .cfa: sp 0 +
STACK CFI INIT fa80 58 .cfa: sp 0 +
STACK CFI fa84 .cfa: sp 32 +
STACK CFI fa8c .cfa: x29 32 + x19: .cfa -16 + ^ .ra: .cfa -24 + ^ x29: .cfa -32 + ^
STACK CFI facc .cfa: sp 32 +
STACK CFI fad4 .cfa: sp 0 +
STACK CFI INIT fad8 90 .cfa: sp 0 +
STACK CFI INIT fb68 48 .cfa: sp 0 +
STACK CFI fb84 .cfa: sp 32 +
STACK CFI fb8c .cfa: x29 32 + x19: .cfa -16 + ^ .ra: .cfa -24 + ^ x29: .cfa -32 + ^
STACK CFI fba4 .cfa: sp 32 +
STACK CFI fbac .cfa: sp 0 +
STACK CFI INIT fbb0 d0 .cfa: sp 0 +
STACK CFI fbb4 .cfa: sp 48 +
STACK CFI fbc0 .cfa: x29 48 + x19: .cfa -8 + ^ x20: .cfa -16 + ^ x21: .cfa -24 + ^ x22: .cfa -32 + ^ .ra: .cfa -40 + ^ x29: .cfa -48 + ^
STACK CFI fc44 .cfa: sp 48 +
STACK CFI fc50 .cfa: sp 0 +
STACK CFI fc54 .cfa: x29 48 +
STACK CFI fc6c .cfa: sp 48 +
STACK CFI fc78 .cfa: sp 0 +
STACK CFI fc7c .cfa: x29 48 +
STACK CFI INIT fc80 4b0 .cfa: sp 0 +
STACK CFI fc84 .cfa: sp 80 +
STACK CFI fc98 .cfa: x29 80 + x19: .cfa -8 + ^ x20: .cfa -16 + ^ x21: .cfa -24 + ^ x22: .cfa -32 + ^ x23: .cfa -40 + ^ x24: .cfa -48 + ^ x25: .cfa -64 + ^ .ra: .cfa -72 + ^ x29: .cfa -80 + ^
STACK CFI fccc .cfa: sp 80 +
STACK CFI fce0 .cfa: sp 0 +
STACK CFI fce4 .cfa: x29 80 +
STACK CFI 100a4 .cfa: sp 80 +
STACK CFI 100b8 .cfa: sp 0 +
STACK CFI 100bc .cfa: x29 80 +
STACK CFI 10114 .cfa: sp 80 +
STACK CFI 10128 .cfa: sp 0 +
STACK CFI 1012c .cfa: x29 80 +
STACK CFI INIT 1030c 7c .cfa: sp 0 +
STACK CFI 10310 .cfa: sp 48 +
STACK CFI 1031c .cfa: x29 48 + x19: .cfa -8 + ^ x20: .cfa -16 + ^ x21: .cfa -32 + ^ .ra: .cfa -40 + ^ x29: .cfa -48 + ^
STACK CFI 10368 .cfa: sp 48 +
STACK CFI 10374 .cfa: sp 0 +
STACK CFI 10378 .cfa: sp 48 +
STACK CFI 10384 .cfa: sp 0 +
STACK CFI INIT 10388 a4 .cfa: sp 0 +
STACK CFI 1038c .cfa: sp 48 +
STACK CFI 10398 .cfa: x29 48 + x19: .cfa -8 + ^ x20: .cfa -16 + ^ x21: .cfa -32 + ^ .ra: .cfa -40 + ^ x29: .cfa -48 + ^
STACK CFI 103b8 .cfa: sp 48 +
STACK CFI 103c4 .cfa: sp 0 +
STACK CFI 103c8 .cfa: x29 48 +
STACK CFI 1040c .cfa: sp 48 +
STACK CFI 10418 .cfa: sp 0 +
STACK CFI 1041c .cfa: sp 48 +
STACK CFI 10428 .cfa: sp 0 +
STACK CFI INIT 1042c 14c .cfa: sp 0 +
STACK CFI 10430 .cfa: sp 48 +
STACK CFI 1043c .cfa: x29 48 + x19: .cfa -8 + ^ x20: .cfa -16 + ^ x21: .cfa -32 + ^ .ra: .cfa -40 + ^ x29: .cfa -48 + ^
STACK CFI 10558 .cfa: sp 48 +
STACK CFI 10564 .cfa: sp 0 +
STACK CFI 10568 .cfa: sp 48 +
STACK CFI 10574 .cfa: sp 0 +
STACK CFI INIT 10578 24 .cfa: sp 0 +
STACK CFI 1057c .cfa: sp 32 +
STACK CFI 10584 .cfa: x29 32 + x19: .cfa -16 + ^ .ra: .cfa -24 + ^ x29: .cfa -32 + ^
STACK CFI 10590 .cfa: sp 32 +
STACK CFI 10598 .cfa: sp 0 +
STACK CFI INIT 11208 44 .cfa: sp 0 +
STACK CFI 1120c .cfa: sp 32 +
STACK CFI 11214 .cfa: x29 32 + x19: .cfa -16 + ^ .ra: .cfa -24 + ^ x29: .cfa -32 + ^
STACK CFI 11230 .cfa: sp 32 +
STACK CFI 11238 .cfa: sp 0 +
STACK CFI 1123c .cfa: x29 32 +
STACK CFI 11240 .cfa: sp 32 +
STACK CFI 11248 .cfa: sp 0 +
STACK CFI INIT 1124c ac .cfa: sp 0 +
STACK CFI 11250 .cfa: sp 64 +
STACK CFI 11260 .cfa: x29 64 + x19: .cfa -8 + ^ x20: .cfa -16 + ^ x21: .cfa -24 + ^ x22: .cfa -32 + ^ x23: .cfa -48 + ^ .ra: .cfa -56 + ^ x29: .cfa -64 + ^
STACK CFI 112dc .cfa: sp 64 +
STACK CFI 112ec .cfa: sp 0 +
STACK CFI 112f0 .cfa: x29 64 +
STACK CFI INIT 112f8 110 .cfa: sp 0 +
STACK CFI 112fc .cfa: sp 64 +
STACK CFI 1130c .cfa: x29 64 + x19: .cfa -8 + ^ x20: .cfa -16 + ^ x21: .cfa -24 + ^ x22: .cfa -32 + ^ x23: .cfa -40 + ^ x24: .cfa -48 + ^ .ra: .cfa -56 + ^ x29: .cfa -64 + ^
STACK CFI 113ec .cfa: sp 64 +
STACK CFI 113fc .cfa: sp 0 +
STACK CFI 11400 .cfa: x29 64 +
STACK CFI INIT 115cc 14 .cfa: sp 0 +
STACK CFI 115d0 .cfa: sp 16 +
STACK CFI 115d4 .cfa: x29 16 + .ra: .cfa -8 + ^ x29: .cfa -16 + ^
STACK CFI INIT 1162c 5c8 .cfa: sp 0 +
STACK CFI 11630 .cfa: sp 80 +
STACK CFI 11644 .cfa: x29 80 + x19: .cfa -8 + ^ x20: .cfa -16 + ^ x21: .cfa -24 + ^ x22: .cfa -32 + ^ x23: .cfa -40 + ^ x24: .cfa -48 + ^ x25: .cfa -56 + ^ x26: .cfa -64 + ^ .ra: .cfa -72 + ^ x29: .cfa -80 + ^
STACK CFI 11734 .cfa: sp 80 +
STACK CFI 11748 .cfa: sp 0 +
STACK CFI 1174c .cfa: x29 80 +
STACK CFI 117a0 .cfa: sp 80 +
STACK CFI 117b4 .cfa: sp 0 +
STACK CFI 117b8 .cfa: x29 80 +
STACK CFI 11bd4 .cfa: sp 80 +
STACK CFI 11be8 .cfa: sp 0 +
STACK CFI 11bec .cfa: x29 80 +
STACK CFI INIT 11bf4 4c4 .cfa: sp 0 +
STACK CFI 11bf8 .cfa: sp 32 +
STACK CFI 11c00 .cfa: x29 32 + x19: .cfa -16 + ^ .ra: .cfa -24 + ^ x29: .cfa -32 + ^
STACK CFI 11c54 .cfa: sp 32 +
STACK CFI 11c5c .cfa: sp 0 +
STACK CFI 11c60 .cfa: x29 32 +
STACK CFI 11ca0 .cfa: sp 32 +
STACK CFI 11ca8 .cfa: sp 0 +
STACK CFI 11cac .cfa: x29 32 +
STACK CFI 11cdc .cfa: sp 32 +
STACK CFI 11ce4 .cfa: sp 0 +
STACK CFI 11ce8 .cfa: x29 32 +
STACK CFI 11d18 .cfa: sp 32 +
STACK CFI 11d20 .cfa: sp 0 +
STACK CFI 11d24 .cfa: x29 32 +
STACK CFI 11d34 .cfa: sp 32 +
STACK CFI 11d3c .cfa: sp 0 +
STACK CFI 11d40 .cfa: x29 32 +
STACK CFI 11d60 .cfa: sp 32 +
STACK CFI 11d68 .cfa: sp 0 +
STACK CFI 11d6c .cfa: x29 32 +
STACK CFI 11d8c .cfa: sp 32 +
STACK CFI 11d94 .cfa: sp 0 +
STACK CFI 11d98 .cfa: x29 32 +
STACK CFI 11db8 .cfa: sp 32 +
STACK CFI 11dc0 .cfa: sp 0 +
STACK CFI 11dc4 .cfa: x29 32 +
STACK CFI 11de4 .cfa: sp 32 +
STACK CFI 11dec .cfa: sp 0 +
STACK CFI 11df0 .cfa: x29 32 +
STACK CFI 11e74 .cfa: sp 32 +
STACK CFI 11e7c .cfa: sp 0 +
STACK CFI 11e80 .cfa: x29 32 +
STACK CFI 11e90 .cfa: sp 32 +
STACK CFI 11e98 .cfa: sp 0 +
STACK CFI 11e9c .cfa: x29 32 +
STACK CFI 11eac .cfa: sp 32 +
STACK CFI 11eb4 .cfa: sp 0 +
STACK CFI 11eb8 .cfa: x29 32 +
STACK CFI 11ec8 .cfa: sp 32 +
STACK CFI 11ed0 .cfa: sp 0 +
STACK CFI 11ed4 .cfa: x29 32 +
STACK CFI 11ee4 .cfa: sp 32 +
STACK CFI 11eec .cfa: sp 0 +
STACK CFI 11ef0 .cfa: x29 32 +
STACK CFI 11f00 .cfa: sp 32 +
STACK CFI 11f08 .cfa: sp 0 +
STACK CFI 11f0c .cfa: x29 32 +
STACK CFI 11f1c .cfa: sp 32 +
STACK CFI 11f24 .cfa: sp 0 +
STACK CFI 11f28 .cfa: x29 32 +
STACK CFI 11f38 .cfa: sp 32 +
STACK CFI 11f40 .cfa: sp 0 +
STACK CFI 11f44 .cfa: x29 32 +
STACK CFI 11f68 .cfa: sp 32 +
STACK CFI 11f70 .cfa: sp 0 +
STACK CFI 11f74 .cfa: x29 32 +
STACK CFI 11f8c .cfa: sp 32 +
STACK CFI 11f94 .cfa: sp 0 +
STACK CFI 11f98 .cfa: x29 32 +
STACK CFI 11fb0 .cfa: sp 32 +
STACK CFI 11fb8 .cfa: sp 0 +
STACK CFI 11fbc .cfa: x29 32 +
STACK CFI 11fd4 .cfa: sp 32 +
STACK CFI 11fdc .cfa: sp 0 +
STACK CFI 11fe0 .cfa: x29 32 +
STACK CFI 11ff8 .cfa: sp 32 +
STACK CFI 12000 .cfa: sp 0 +
STACK CFI 12004 .cfa: x29 32 +
STACK CFI 1201c .cfa: sp 32 +
STACK CFI 12024 .cfa: sp 0 +
STACK CFI 12028 .cfa: x29 32 +
STACK CFI 12040 .cfa: sp 32 +
STACK CFI 12048 .cfa: sp 0 +
STACK CFI 1204c .cfa: x29 32 +
STACK CFI 12064 .cfa: sp 32 +
STACK CFI 1206c .cfa: sp 0 +
STACK CFI 12070 .cfa: x29 32 +
STACK CFI 12088 .cfa: sp 32 +
STACK CFI 12090 .cfa: sp 0 +
STACK CFI 12094 .cfa: x29 32 +
STACK CFI 120a8 .cfa: sp 32 +
STACK CFI 120b0 .cfa: sp 0 +
STACK CFI 120b4 .cfa: x29 32 +
STACK CFI INIT 120b8 420 .cfa: sp 0 +
STACK CFI 120bc .cfa: sp 80 +
STACK CFI 120d0 .cfa: x29 80 + x19: .cfa -8 + ^ x20: .cfa -16 + ^ x21: .cfa -24 + ^ x22: .cfa -32 + ^ x23: .cfa -40 + ^ x24: .cfa -48 + ^ x25: .cfa -64 + ^ .ra: .cfa -72 + ^ x29: .cfa -80 + ^
STACK CFI 12124 .cfa: sp 80 +
STACK CFI 12138 .cfa: sp 0 +
STACK CFI 1213c .cfa: x29 80 +
STACK CFI 122e4 .cfa: sp 80 +
STACK CFI 122f8 .cfa: sp 0 +
STACK CFI 122fc .cfa: x29 80 +
STACK CFI 124b8 .cfa: sp 80 +
STACK CFI 124cc .cfa: sp 0 +
STACK CFI 124d0 .cfa: x29 80 +
STACK CFI INIT 129fc 80 .cfa: sp 0 +
STACK CFI 12a00 .cfa: sp 48 +
STACK CFI 12a0c .cfa: x29 48 + x19: .cfa -8 + ^ x20: .cfa -16 + ^ x21: .cfa -24 + ^ x22: .cfa -32 + ^ .ra: .cfa -40 + ^ x29: .cfa -48 + ^
STACK CFI 12a24 .cfa: sp 48 +
STACK CFI 12a30 .cfa: sp 0 +
STACK CFI 12a34 .cfa: x29 48 +
STACK CFI 12a64 .cfa: sp 48 +
STACK CFI 12a70 .cfa: sp 0 +
STACK CFI 12a74 .cfa: x29 48 +
STACK CFI INIT 12a7c 68 .cfa: sp 0 +
STACK CFI 12a80 .cfa: sp 32 +
STACK CFI 12a88 .cfa: x29 32 + x19: .cfa -8 + ^ x20: .cfa -16 + ^ .ra: .cfa -24 + ^ x29: .cfa -32 + ^
STACK CFI 12aa0 .cfa: sp 32 +
STACK CFI 12aa8 .cfa: sp 0 +
STACK CFI 12aac .cfa: x29 32 +
STACK CFI 12ad8 .cfa: sp 32 +
STACK CFI 12ae0 .cfa: sp 0 +
STACK CFI INIT 12ae4 14 .cfa: sp 0 +
STACK CFI 12ae8 .cfa: sp 16 +
STACK CFI 12aec .cfa: x29 16 + .ra: .cfa -8 + ^ x29: .cfa -16 + ^
STACK CFI INIT 12d44 1a8 .cfa: sp 0 +
STACK CFI 12d48 .cfa: sp 48 +
STACK CFI 12d54 .cfa: x29 48 + x19: .cfa -8 + ^ x20: .cfa -16 + ^ x21: .cfa -24 + ^ x22: .cfa -32 + ^ .ra: .cfa -40 + ^ x29: .cfa -48 + ^
STACK CFI 12ed4 .cfa: sp 48 +
STACK CFI 12ee0 .cfa: sp 0 +
STACK CFI 12ee4 .cfa: x29 48 +
STACK CFI INIT 12eec 14 .cfa: sp 0 +
STACK CFI 12ef0 .cfa: sp 16 +
STACK CFI 12ef4 .cfa: x29 16 + .ra: .cfa -8 + ^ x29: .cfa -16 + ^
STACK CFI INIT 12f00 14 .cfa: sp 0 +
STACK CFI 12f04 .cfa: sp 16 +
STACK CFI 12f08 .cfa: x29 16 + .ra: .cfa -8 + ^ x29: .cfa -16 + ^
STACK CFI INIT 12f14 48 .cfa: sp 0 +
STACK CFI 12f30 .cfa: sp 32 +
STACK CFI 12f38 .cfa: x29 32 + x19: .cfa -16 + ^ .ra: .cfa -24 + ^ x29: .cfa -32 + ^
STACK CFI 12f50 .cfa: sp 32 +
STACK CFI 12f58 .cfa: sp 0 +
STACK CFI INIT 12f5c 30 .cfa: sp 0 +
STACK CFI INIT 12f8c 48 .cfa: sp 0 +
STACK CFI 12fa8 .cfa: sp 32 +
STACK CFI 12fb0 .cfa: x29 32 + x19: .cfa -16 + ^ .ra: .cfa -24 + ^ x29: .cfa -32 + ^
STACK CFI 12fc8 .cfa: sp 32 +
STACK CFI 12fd0 .cfa: sp 0 +
STACK CFI INIT 12fd4 38 .cfa: sp 0 +
STACK CFI INIT 131e4 68 .cfa: sp 0 +
STACK CFI 131e8 .cfa: sp 32 +
STACK CFI 131f0 .cfa: x29 32 + x19: .cfa -16 + ^ .ra: .cfa -24 + ^ x29: .cfa -32 + ^
STACK CFI 13240 .cfa: sp 32 +
STACK CFI 13248 .cfa: sp 0 +
STACK CFI INIT 1324c 1c4 .cfa: sp 0 +
STACK CFI INIT 13410 c4 .cfa: sp 0 +
STACK CFI INIT 134d4 68 .cfa: sp 0 +
STACK CFI 134d8 .cfa: sp 32 +
STACK CFI 134e0 .cfa: x29 32 + x19: .cfa -16 + ^ .ra: .cfa -24 + ^ x29: .cfa -32 + ^
STACK CFI 13530 .cfa: sp 32 +
STACK CFI 13538 .cfa: sp 0 +
STACK CFI INIT 1353c 4 .cfa: sp 0 +
STACK CFI INIT 13540 14 .cfa: sp 0 +
STACK CFI INIT 13554 6c .cfa: sp 0 +
STACK CFI 13558 .cfa: sp 32 +
STACK CFI 13560 .cfa: x29 32 + x19: .cfa -16 + ^ .ra: .cfa -24 + ^ x29: .cfa -32 + ^
STACK CFI 135a8 .cfa: sp 32 +
STACK CFI 135b0 .cfa: sp 0 +
STACK CFI 135b4 .cfa: sp 32 +
STACK CFI 135bc .cfa: sp 0 +
STACK CFI INIT 135c0 68 .cfa: sp 0 +
STACK CFI 135c4 .cfa: sp 32 +
STACK CFI 135cc .cfa: x29 32 + x19: .cfa -16 + ^ .ra: .cfa -24 + ^ x29: .cfa -32 + ^
STACK CFI 1361c .cfa: sp 32 +
STACK CFI 13624 .cfa: sp 0 +
STACK CFI INIT 13628 c .cfa: sp 0 +
STACK CFI INIT 13634 24 .cfa: sp 0 +
STACK CFI INIT 13658 4 .cfa: sp 0 +
STACK CFI INIT 1365c 4 .cfa: sp 0 +
STACK CFI INIT 13660 14 .cfa: sp 0 +
STACK CFI INIT 136c0 2fc .cfa: sp 0 +
STACK CFI 136c4 .cfa: sp 64 +
STACK CFI 136d4 .cfa: x29 64 + x19: .cfa -8 + ^ x20: .cfa -16 + ^ x21: .cfa -24 + ^ x22: .cfa -32 + ^ x23: .cfa -40 + ^ x24: .cfa -48 + ^ .ra: .cfa -56 + ^ x29: .cfa -64 + ^
STACK CFI 13850 .cfa: sp 64 +
STACK CFI 13860 .cfa: sp 0 +
STACK CFI 13864 .cfa: x29 64 +
STACK CFI 138a8 .cfa: sp 64 +
STACK CFI 138b8 .cfa: sp 0 +
STACK CFI 138bc .cfa: x29 64 +
STACK CFI 1398c .cfa: sp 64 +
STACK CFI 1399c .cfa: sp 0 +
STACK CFI 139a0 .cfa: sp 64 +
STACK CFI 139b0 .cfa: sp 0 +
STACK CFI 139b4 .cfa: x29 64 +
STACK CFI INIT 139bc 270 .cfa: sp 0 +
STACK CFI 139c0 .cfa: sp 32 +
STACK CFI 139c8 .cfa: x29 32 + x19: .cfa -16 + ^ .ra: .cfa -24 + ^ x29: .cfa -32 + ^
STACK CFI 13a00 .cfa: sp 32 +
STACK CFI 13a08 .cfa: sp 0 +
STACK CFI 13a0c .cfa: x29 32 +
STACK CFI 13b54 .cfa: sp 32 +
STACK CFI 13b5c .cfa: sp 0 +
STACK CFI 13b60 .cfa: x29 32 +
STACK CFI 13b9c .cfa: sp 32 +
STACK CFI 13ba4 .cfa: sp 0 +
STACK CFI 13ba8 .cfa: x29 32 +
STACK CFI 13c1c .cfa: sp 32 +
STACK CFI 13c24 .cfa: sp 0 +
STACK CFI 13c28 .cfa: x29 32 +
STACK CFI INIT 13c2c 2c .cfa: sp 0 +
STACK CFI INIT 13c58 48 .cfa: sp 0 +
STACK CFI 13c74 .cfa: sp 32 +
STACK CFI 13c7c .cfa: x29 32 + x19: .cfa -16 + ^ .ra: .cfa -24 + ^ x29: .cfa -32 + ^
STACK CFI 13c94 .cfa: sp 32 +
STACK CFI 13c9c .cfa: sp 0 +
STACK CFI INIT 13ca0 40 .cfa: sp 0 +
STACK CFI INIT 13ce0 60 .cfa: sp 0 +
STACK CFI 13ce4 .cfa: sp 16 +
STACK CFI 13ce8 .cfa: x29 16 + .ra: .cfa -8 + ^ x29: .cfa -16 + ^
STACK CFI 13d28 .cfa: sp 16 +
STACK CFI 13d2c .cfa: sp 0 +
STACK CFI 13d30 .cfa: x29 16 +
STACK CFI 13d34 .cfa: sp 16 +
STACK CFI 13d38 .cfa: sp 0 +
STACK CFI 13d3c .cfa: x29 16 +
STACK CFI INIT 13d40 34c .cfa: sp 0 +
STACK CFI 13d44 .cfa: sp 80 +
STACK CFI 13d58 .cfa: x29 80 + x19: .cfa -8 + ^ x20: .cfa -16 + ^ x21: .cfa -24 + ^ x22: .cfa -32 + ^ x23: .cfa -40 + ^ x24: .cfa -48 + ^ x25: .cfa -64 + ^ .ra: .cfa -72 + ^ x29: .cfa -80 + ^
STACK CFI 14054 .cfa: sp 80 +
STACK CFI 14068 .cfa: sp 0 +
STACK CFI 1406c .cfa: x29 80 +
STACK CFI 14070 .cfa: sp 80 +
STACK CFI 14084 .cfa: sp 0 +
STACK CFI 14088 .cfa: x29 80 +
STACK CFI INIT 148b4 50 .cfa: sp 0 +
STACK CFI 148b8 .cfa: sp 32 +
STACK CFI 148c0 .cfa: x29 32 + x19: .cfa -16 + ^ .ra: .cfa -24 + ^ x29: .cfa -32 + ^
STACK CFI 148d8 .cfa: sp 32 +
STACK CFI 148e0 .cfa: sp 0 +
STACK CFI 148e4 .cfa: x29 32 +
STACK CFI 148f8 .cfa: sp 32 +
STACK CFI 14900 .cfa: sp 0 +
STACK CFI INIT 14978 4 .cfa: sp 0 +
STACK CFI INIT 14ad0 34 .cfa: sp 0 +
STACK CFI 14ad4 .cfa: sp 16 +
STACK CFI 14ad8 .cfa: x29 16 + .ra: .cfa -8 + ^ x29: .cfa -16 + ^
STACK CFI INIT 14c30 80 .cfa: sp 0 +
STACK CFI 14c34 .cfa: sp 48 +
STACK CFI 14c40 .cfa: x29 48 + x19: .cfa -8 + ^ x20: .cfa -16 + ^ x21: .cfa -32 + ^ .ra: .cfa -40 + ^ x29: .cfa -48 + ^
STACK CFI 14ca0 .cfa: sp 48 +
STACK CFI 14cac .cfa: sp 0 +
STACK CFI INIT 14cb0 24 .cfa: sp 0 +
STACK CFI 14cb4 .cfa: sp 32 +
STACK CFI 14cbc .cfa: x29 32 + x19: .cfa -16 + ^ .ra: .cfa -24 + ^ x29: .cfa -32 + ^
STACK CFI 14cc8 .cfa: sp 32 +
STACK CFI 14cd0 .cfa: sp 0 +
STACK CFI INIT 151cc 148 .cfa: sp 0 +
STACK CFI 151d0 .cfa: sp 48 +
STACK CFI 151dc .cfa: x29 48 + x19: .cfa -8 + ^ x20: .cfa -16 + ^ x21: .cfa -32 + ^ .ra: .cfa -40 + ^ x29: .cfa -48 + ^
STACK CFI 15304 .cfa: sp 48 +
STACK CFI 15310 .cfa: sp 0 +
STACK CFI INIT 15314 4 .cfa: sp 0 +
STACK CFI INIT 15318 14 .cfa: sp 0 +
STACK CFI INIT 1532c 84 .cfa: sp 0 +
STACK CFI 15334 .cfa: sp 32 +
STACK CFI 1533c .cfa: x29 32 + x19: .cfa -8 + ^ x20: .cfa -16 + ^ .ra: .cfa -24 + ^ x29: .cfa -32 + ^
STACK CFI 1537c .cfa: sp 32 +
STACK CFI 15384 .cfa: sp 0 +
STACK CFI 1538c .cfa: x29 32 +
STACK CFI INIT 15458 50 .cfa: sp 0 +
STACK CFI 1545c .cfa: sp 32 +
STACK CFI 15464 .cfa: x29 32 + x19: .cfa -16 + ^ .ra: .cfa -24 + ^ x29: .cfa -32 + ^
STACK CFI 1547c .cfa: sp 32 +
STACK CFI 15484 .cfa: sp 0 +
STACK CFI 15488 .cfa: x29 32 +
STACK CFI 1549c .cfa: sp 32 +
STACK CFI 154a4 .cfa: sp 0 +
STACK CFI INIT 154a8 64 .cfa: sp 0 +
STACK CFI 154ac .cfa: sp 32 +
STACK CFI 154b4 .cfa: x29 32 + x19: .cfa -16 + ^ .ra: .cfa -24 + ^ x29: .cfa -32 + ^
STACK CFI 154e0 .cfa: sp 32 +
STACK CFI 154e8 .cfa: sp 0 +
STACK CFI 154ec .cfa: x29 32 +
STACK CFI 15500 .cfa: sp 32 +
STACK CFI 15508 .cfa: sp 0 +
STACK CFI INIT 1550c 14 .cfa: sp 0 +
STACK CFI 15510 .cfa: sp 16 +
STACK CFI 15514 .cfa: x29 16 + .ra: .cfa -8 + ^ x29: .cfa -16 + ^
STACK CFI INIT 18170 138 .cfa: sp 0 +
STACK CFI 18174 .cfa: sp 96 +
STACK CFI 18188 .cfa: x29 48 + x19: .cfa -8 + ^ x20: .cfa -16 + ^ x21: .cfa -24 + ^ x22: .cfa -32 + ^ .ra: .cfa -40 + ^ x29: .cfa -48 + ^ v8: .cfa -64 + ^
STACK CFI 1828c .cfa: sp 96 +
STACK CFI 182a0 .cfa: sp 0 +
STACK CFI 182a4 .cfa: x29 48 +
STACK CFI INIT 182a8 f8 .cfa: sp 0 +
STACK CFI 182ac .cfa: sp 64 +
STACK CFI 182bc .cfa: x29 64 + x19: .cfa -8 + ^ x20: .cfa -16 + ^ x21: .cfa -24 + ^ x22: .cfa -32 + ^ x23: .cfa -48 + ^ .ra: .cfa -56 + ^ x29: .cfa -64 + ^
STACK CFI 18318 .cfa: sp 64 +
STACK CFI 18328 .cfa: sp 0 +
STACK CFI 1832c .cfa: x29 64 +
STACK CFI 18348 .cfa: sp 64 +
STACK CFI 18358 .cfa: sp 0 +
STACK CFI 1835c .cfa: x29 64 +
STACK CFI 1838c .cfa: sp 64 +
STACK CFI 1839c .cfa: sp 0 +
STACK CFI INIT 183a0 1c8 .cfa: sp 0 +
STACK CFI 183a4 .cfa: sp 80 +
STACK CFI 183b8 .cfa: x29 80 + x19: .cfa -8 + ^ x20: .cfa -16 + ^ x21: .cfa -24 + ^ x22: .cfa -32 + ^ x23: .cfa -40 + ^ x24: .cfa -48 + ^ x25: .cfa -64 + ^ .ra: .cfa -72 + ^ x29: .cfa -80 + ^
STACK CFI 18538 .cfa: sp 80 +
STACK CFI 1854c .cfa: sp 0 +
STACK CFI 18550 .cfa: sp 80 +
STACK CFI 18564 .cfa: sp 0 +
STACK CFI INIT 18b58 188 .cfa: sp 0 +
STACK CFI 18b5c .cfa: sp 80 +
STACK CFI 18b70 .cfa: x29 80 + x19: .cfa -8 + ^ x20: .cfa -16 + ^ x21: .cfa -24 + ^ x22: .cfa -32 + ^ x23: .cfa -40 + ^ x24: .cfa -48 + ^ x25: .cfa -64 + ^ .ra: .cfa -72 + ^ x29: .cfa -80 + ^
STACK CFI 18cc4 .cfa: sp 80 +
STACK CFI 18cd8 .cfa: sp 0 +
STACK CFI 18cdc .cfa: x29 80 +
STACK CFI INIT 18ce0 18c .cfa: sp 0 +
STACK CFI 18ce4 .cfa: sp 64 +
STACK CFI 18cf4 .cfa: x29 64 + x19: .cfa -8 + ^ x20: .cfa -16 + ^ x21: .cfa -24 + ^ x22: .cfa -32 + ^ x23: .cfa -40 + ^ x24: .cfa -48 + ^ .ra: .cfa -56 + ^ x29: .cfa -64 + ^
STACK CFI 18e54 .cfa: sp 64 +
STACK CFI 18e64 .cfa: sp 0 +
STACK CFI 18e68 .cfa: x29 64 +
STACK CFI INIT 18e6c 14 .cfa: sp 0 +
STACK CFI 18e70 .cfa: sp 16 +
STACK CFI 18e74 .cfa: x29 16 + .ra: .cfa -8 + ^ x29: .cfa -16 + ^
STACK CFI INIT 18e80 e0 .cfa: sp 0 +
STACK CFI 18e84 .cfa: sp 32 +
STACK CFI 18e8c .cfa: x29 32 + x19: .cfa -8 + ^ x20: .cfa -16 + ^ .ra: .cfa -24 + ^ x29: .cfa -32 + ^
STACK CFI 18ecc .cfa: sp 32 +
STACK CFI 18ed4 .cfa: sp 0 +
STACK CFI 18ed8 .cfa: x29 32 +
STACK CFI 18f14 .cfa: sp 32 +
STACK CFI 18f1c .cfa: sp 0 +
STACK CFI 18f20 .cfa: x29 32 +
STACK CFI 18f3c .cfa: sp 32 +
STACK CFI 18f44 .cfa: sp 0 +
STACK CFI 18f48 .cfa: x29 32 +
STACK CFI 18f54 .cfa: sp 32 +
STACK CFI 18f5c .cfa: sp 0 +
STACK CFI INIT 18f60 1b0 .cfa: sp 0 +
STACK CFI INIT 19be8 3c .cfa: sp 0 +
STACK CFI 19bec .cfa: sp 32 +
STACK CFI 19bf4 .cfa: x29 32 + x19: .cfa -16 + ^ .ra: .cfa -24 + ^ x29: .cfa -32 + ^
STACK CFI 19c00 .cfa: sp 32 +
STACK CFI 19c08 .cfa: sp 0 +
STACK CFI 19c0c .cfa: x29 32 +
STACK CFI 19c18 .cfa: sp 32 +
STACK CFI 19c20 .cfa: sp 0 +
STACK CFI INIT 19e44 64 .cfa: sp 0 +
STACK CFI 19e48 .cfa: sp 32 +
STACK CFI 19e50 .cfa: x29 32 + x19: .cfa -16 + ^ .ra: .cfa -24 + ^ x29: .cfa -32 + ^
STACK CFI 19e7c .cfa: sp 32 +
STACK CFI 19e84 .cfa: sp 0 +
STACK CFI 19e88 .cfa: x29 32 +
STACK CFI 19e9c .cfa: sp 32 +
STACK CFI 19ea4 .cfa: sp 0 +
STACK CFI INIT 1a6bc 4 .cfa: sp 0 +
STACK CFI INIT 1a6c0 14 .cfa: sp 0 +
STACK CFI INIT a03c a24 .cfa: sp 0 +
STACK CFI a040 .cfa: sp 224 +
STACK CFI a05c .cfa: x29 96 + x19: .cfa -8 + ^ x20: .cfa -16 + ^ x21: .cfa -24 + ^ x22: .cfa -32 + ^ x23: .cfa -40 + ^ x24: .cfa -48 + ^ x25: .cfa -56 + ^ x26: .cfa -64 + ^ x27: .cfa -72 + ^ x28: .cfa -80 + ^ .ra: .cfa -88 + ^ x29: .cfa -96 + ^
STACK CFI a2cc .cfa: sp 224 +
STACK CFI a2e8 .cfa: sp 0 +
STACK CFI a2ec .cfa: x29 96 +
STACK CFI a94c .cfa: sp 224 +
STACK CFI a968 .cfa: sp 0 +
STACK CFI a96c .cfa: x29 96 +
STACK CFI INIT aae0 50 .cfa: sp 0 +
STACK CFI aae4 .cfa: sp 32 +
STACK CFI aaec .cfa: x29 32 + x19: .cfa -8 + ^ x20: .cfa -16 + ^ .ra: .cfa -24 + ^ x29: .cfa -32 + ^
STACK CFI INIT aba4 6c4 .cfa: sp 0 +
STACK CFI aba8 .cfa: sp 112 +
STACK CFI abc4 .cfa: x29 96 + x19: .cfa -8 + ^ x20: .cfa -16 + ^ x21: .cfa -24 + ^ x22: .cfa -32 + ^ x23: .cfa -40 + ^ x24: .cfa -48 + ^ x25: .cfa -56 + ^ x26: .cfa -64 + ^ x27: .cfa -72 + ^ x28: .cfa -80 + ^ .ra: .cfa -88 + ^ x29: .cfa -96 + ^
STACK CFI ad08 .cfa: sp 112 +
STACK CFI ad24 .cfa: sp 0 +
STACK CFI ad28 .cfa: x29 96 +
STACK CFI ad34 .cfa: sp 112 +
STACK CFI ad50 .cfa: sp 0 +
STACK CFI ad54 .cfa: x29 96 +
STACK CFI b1f0 .cfa: sp 112 +
STACK CFI b20c .cfa: sp 0 +
STACK CFI b210 .cfa: x29 96 +
STACK CFI INIT b268 4c .cfa: sp 0 +
STACK CFI b26c .cfa: sp 32 +
STACK CFI b274 .cfa: x29 32 + x19: .cfa -8 + ^ x20: .cfa -16 + ^ .ra: .cfa -24 + ^ x29: .cfa -32 + ^
STACK CFI INIT b838 4c .cfa: sp 0 +
STACK CFI b83c .cfa: sp 32 +
STACK CFI b844 .cfa: x29 32 + x19: .cfa -8 + ^ x20: .cfa -16 + ^ .ra: .cfa -24 + ^ x29: .cfa -32 + ^
STACK CFI INIT b99c 364 .cfa: sp 0 +
STACK CFI b9a0 .cfa: sp 144 +
STACK CFI b9b4 .cfa: x29 64 + x19: .cfa -8 + ^ x20: .cfa -16 + ^ x21: .cfa -24 + ^ x22: .cfa -32 + ^ x23: .cfa -48 + ^ .ra: .cfa -56 + ^ x29: .cfa -64 + ^
STACK CFI bb48 .cfa: sp 144 +
STACK CFI bb5c .cfa: sp 0 +
STACK CFI bb60 .cfa: x29 64 +
STACK CFI INIT bd00 644 .cfa: sp 0 +
STACK CFI bd04 .cfa: sp 64 +
STACK CFI bd14 .cfa: x29 64 + x19: .cfa -8 + ^ x20: .cfa -16 + ^ x21: .cfa -24 + ^ x22: .cfa -32 + ^ x23: .cfa -48 + ^ .ra: .cfa -56 + ^ x29: .cfa -64 + ^
STACK CFI bd80 .cfa: sp 64 +
STACK CFI bd90 .cfa: sp 0 +
STACK CFI bd94 .cfa: x29 64 +
STACK CFI bde4 .cfa: sp 64 +
STACK CFI bdf4 .cfa: sp 0 +
STACK CFI bdf8 .cfa: x29 64 +
STACK CFI be74 .cfa: sp 64 +
STACK CFI be84 .cfa: sp 0 +
STACK CFI be88 .cfa: x29 64 +
STACK CFI bf78 .cfa: sp 64 +
STACK CFI bf88 .cfa: sp 0 +
STACK CFI bf8c .cfa: x29 64 +
STACK CFI c01c .cfa: sp 64 +
STACK CFI c02c .cfa: sp 0 +
STACK CFI c030 .cfa: x29 64 +
STACK CFI c048 .cfa: sp 64 +
STACK CFI c058 .cfa: sp 0 +
STACK CFI c05c .cfa: x29 64 +
STACK CFI c1e4 .cfa: sp 64 +
STACK CFI c1f4 .cfa: sp 0 +
STACK CFI c1f8 .cfa: x29 64 +
STACK CFI c20c .cfa: sp 64 +
STACK CFI c21c .cfa: sp 0 +
STACK CFI c220 .cfa: x29 64 +
STACK CFI c2a8 .cfa: sp 64 +
STACK CFI c2b8 .cfa: sp 0 +
STACK CFI c2bc .cfa: x29 64 +
STACK CFI INIT c738 6c .cfa: sp 0 +
STACK CFI c73c .cfa: sp 32 +
STACK CFI c744 .cfa: x29 32 + x19: .cfa -8 + ^ x20: .cfa -16 + ^ .ra: .cfa -24 + ^ x29: .cfa -32 + ^
STACK CFI c784 .cfa: sp 32 +
STACK CFI c78c .cfa: sp 0 +
STACK CFI c790 .cfa: x29 32 +
STACK CFI INIT c858 4c .cfa: sp 0 +
STACK CFI c85c .cfa: sp 32 +
STACK CFI c864 .cfa: x29 32 + x19: .cfa -8 + ^ x20: .cfa -16 + ^ .ra: .cfa -24 + ^ x29: .cfa -32 + ^
STACK CFI INIT cccc 1d4 .cfa: sp 0 +
STACK CFI ccd0 .cfa: sp 176 +
STACK CFI cce0 .cfa: x29 48 + x19: .cfa -8 + ^ x20: .cfa -16 + ^ x21: .cfa -24 + ^ x22: .cfa -32 + ^ .ra: .cfa -40 + ^ x29: .cfa -48 + ^
STACK CFI ce38 .cfa: sp 176 +
STACK CFI ce48 .cfa: sp 0 +
STACK CFI ce4c .cfa: x29 48 +
STACK CFI ce5c .cfa: sp 176 +
STACK CFI ce6c .cfa: sp 0 +
STACK CFI ce70 .cfa: x29 48 +
STACK CFI INIT cea0 44c .cfa: sp 0 +
STACK CFI cea4 .cfa: sp 256 +
STACK CFI cec0 .cfa: x29 96 + x19: .cfa -8 + ^ x20: .cfa -16 + ^ x21: .cfa -24 + ^ x22: .cfa -32 + ^ x23: .cfa -40 + ^ x24: .cfa -48 + ^ x25: .cfa -56 + ^ x26: .cfa -64 + ^ x27: .cfa -72 + ^ x28: .cfa -80 + ^ .ra: .cfa -88 + ^ x29: .cfa -96 + ^
STACK CFI d1f0 .cfa: sp 256 +
STACK CFI d20c .cfa: sp 0 +
STACK CFI d210 .cfa: x29 96 +
STACK CFI INIT d50c 4c .cfa: sp 0 +
STACK CFI d510 .cfa: sp 32 +
STACK CFI d518 .cfa: x29 32 + x19: .cfa -8 + ^ x20: .cfa -16 + ^ .ra: .cfa -24 + ^ x29: .cfa -32 + ^
STACK CFI INIT d558 170 .cfa: sp 0 +
STACK CFI d55c .cfa: sp 80 +
STACK CFI d570 .cfa: x29 80 + x19: .cfa -8 + ^ x20: .cfa -16 + ^ x21: .cfa -24 + ^ x22: .cfa -32 + ^ x23: .cfa -40 + ^ x24: .cfa -48 + ^ x25: .cfa -64 + ^ .ra: .cfa -72 + ^ x29: .cfa -80 + ^
STACK CFI d664 .cfa: sp 80 +
STACK CFI d678 .cfa: sp 0 +
STACK CFI d67c .cfa: x29 80 +
STACK CFI INIT d6c8 4c .cfa: sp 0 +
STACK CFI d6cc .cfa: sp 32 +
STACK CFI d6d4 .cfa: x29 32 + x19: .cfa -8 + ^ x20: .cfa -16 + ^ .ra: .cfa -24 + ^ x29: .cfa -32 + ^
STACK CFI INIT dc84 10f4 .cfa: sp 0 +
STACK CFI dc88 .cfa: sp 432 +
STACK CFI dca4 .cfa: x29 96 + x19: .cfa -8 + ^ x20: .cfa -16 + ^ x21: .cfa -24 + ^ x22: .cfa -32 + ^ x23: .cfa -40 + ^ x24: .cfa -48 + ^ x25: .cfa -56 + ^ x26: .cfa -64 + ^ x27: .cfa -72 + ^ x28: .cfa -80 + ^ .ra: .cfa -88 + ^ x29: .cfa -96 + ^
STACK CFI ea8c .cfa: sp 432 +
STACK CFI eaa8 .cfa: sp 0 +
STACK CFI eaac .cfa: x29 96 +
STACK CFI INIT ed78 4c .cfa: sp 0 +
STACK CFI ed7c .cfa: sp 32 +
STACK CFI ed84 .cfa: x29 32 + x19: .cfa -8 + ^ x20: .cfa -16 + ^ .ra: .cfa -24 + ^ x29: .cfa -32 + ^
STACK CFI INIT ee0c 4c .cfa: sp 0 +
STACK CFI ee10 .cfa: sp 32 +
STACK CFI ee18 .cfa: x29 32 + x19: .cfa -8 + ^ x20: .cfa -16 + ^ .ra: .cfa -24 + ^ x29: .cfa -32 + ^
STACK CFI INIT f364 140 .cfa: sp 0 +
STACK CFI f368 .cfa: sp 48 +
STACK CFI f374 .cfa: x29 48 + x19: .cfa -8 + ^ x20: .cfa -16 + ^ x21: .cfa -32 + ^ .ra: .cfa -40 + ^ x29: .cfa -48 + ^
STACK CFI f454 .cfa: sp 48 +
STACK CFI f460 .cfa: sp 0 +
STACK CFI f464 .cfa: x29 48 +
STACK CFI INIT f4a4 4c .cfa: sp 0 +
STACK CFI f4a8 .cfa: sp 32 +
STACK CFI f4b0 .cfa: x29 32 + x19: .cfa -8 + ^ x20: .cfa -16 + ^ .ra: .cfa -24 + ^ x29: .cfa -32 + ^
STACK CFI INIT 10130 1dc .cfa: sp 0 +
STACK CFI 10134 .cfa: sp 128 +
STACK CFI 1014c .cfa: x29 80 + x19: .cfa -8 + ^ x20: .cfa -16 + ^ x21: .cfa -24 + ^ x22: .cfa -32 + ^ x23: .cfa -40 + ^ x24: .cfa -48 + ^ x25: .cfa -64 + ^ .ra: .cfa -72 + ^ x29: .cfa -80 + ^
STACK CFI 10240 .cfa: sp 128 +
STACK CFI 10258 .cfa: sp 0 +
STACK CFI 1025c .cfa: x29 80 +
STACK CFI INIT 1059c c6c .cfa: sp 0 +
STACK CFI 105a0 .cfa: sp 256 +
STACK CFI 105bc .cfa: x29 96 + x19: .cfa -8 + ^ x20: .cfa -16 + ^ x21: .cfa -24 + ^ x22: .cfa -32 + ^ x23: .cfa -40 + ^ x24: .cfa -48 + ^ x25: .cfa -56 + ^ x26: .cfa -64 + ^ x27: .cfa -72 + ^ x28: .cfa -80 + ^ .ra: .cfa -88 + ^ x29: .cfa -96 + ^
STACK CFI 11144 .cfa: sp 256 +
STACK CFI 11160 .cfa: sp 0 +
STACK CFI 11164 .cfa: x29 96 +
STACK CFI INIT 11408 1c4 .cfa: sp 0 +
STACK CFI 1140c .cfa: sp 112 +
STACK CFI 11424 .cfa: x29 80 + x19: .cfa -8 + ^ x20: .cfa -16 + ^ x21: .cfa -24 + ^ x22: .cfa -32 + ^ x23: .cfa -40 + ^ x24: .cfa -48 + ^ x25: .cfa -56 + ^ x26: .cfa -64 + ^ .ra: .cfa -72 + ^ x29: .cfa -80 + ^
STACK CFI 11550 .cfa: sp 112 +
STACK CFI 11568 .cfa: sp 0 +
STACK CFI 1156c .cfa: x29 80 +
STACK CFI INIT 115e0 4c .cfa: sp 0 +
STACK CFI 115e4 .cfa: sp 32 +
STACK CFI 115ec .cfa: x29 32 + x19: .cfa -8 + ^ x20: .cfa -16 + ^ .ra: .cfa -24 + ^ x29: .cfa -32 + ^
STACK CFI INIT 124d8 4c .cfa: sp 0 +
STACK CFI 124dc .cfa: sp 32 +
STACK CFI 124e4 .cfa: x29 32 + x19: .cfa -8 + ^ x20: .cfa -16 + ^ .ra: .cfa -24 + ^ x29: .cfa -32 + ^
STACK CFI INIT 12524 2b4 .cfa: sp 0 +
STACK CFI 12528 .cfa: sp 144 +
STACK CFI 12540 .cfa: x29 80 + x19: .cfa -8 + ^ x20: .cfa -16 + ^ x21: .cfa -24 + ^ x22: .cfa -32 + ^ x23: .cfa -40 + ^ x24: .cfa -48 + ^ x25: .cfa -56 + ^ x26: .cfa -64 + ^ .ra: .cfa -72 + ^ x29: .cfa -80 + ^
STACK CFI 12744 .cfa: sp 144 +
STACK CFI 1275c .cfa: sp 0 +
STACK CFI 12760 .cfa: x29 80 +
STACK CFI INIT 127d8 224 .cfa: sp 0 +
STACK CFI 127dc .cfa: sp 128 +
STACK CFI 127f4 .cfa: x29 80 + x19: .cfa -8 + ^ x20: .cfa -16 + ^ x21: .cfa -24 + ^ x22: .cfa -32 + ^ x23: .cfa -40 + ^ x24: .cfa -48 + ^ x25: .cfa -64 + ^ .ra: .cfa -72 + ^ x29: .cfa -80 + ^
STACK CFI 12990 .cfa: sp 128 +
STACK CFI 129a8 .cfa: sp 0 +
STACK CFI 129ac .cfa: x29 80 +
STACK CFI INIT 12af8 4c .cfa: sp 0 +
STACK CFI 12afc .cfa: sp 32 +
STACK CFI 12b04 .cfa: x29 32 + x19: .cfa -8 + ^ x20: .cfa -16 + ^ .ra: .cfa -24 + ^ x29: .cfa -32 + ^
STACK CFI INIT 12b44 1b4 .cfa: sp 0 +
STACK CFI 12b48 .cfa: sp 112 +
STACK CFI 12b60 .cfa: x29 80 + x19: .cfa -8 + ^ x20: .cfa -16 + ^ x21: .cfa -24 + ^ x22: .cfa -32 + ^ x23: .cfa -40 + ^ x24: .cfa -48 + ^ x25: .cfa -64 + ^ .ra: .cfa -72 + ^ x29: .cfa -80 + ^
STACK CFI 12c94 .cfa: sp 112 +
STACK CFI 12cac .cfa: sp 0 +
STACK CFI 12cb0 .cfa: x29 80 +
STACK CFI INIT 12cf8 4c .cfa: sp 0 +
STACK CFI 12cfc .cfa: sp 32 +
STACK CFI 12d04 .cfa: x29 32 + x19: .cfa -8 + ^ x20: .cfa -16 + ^ .ra: .cfa -24 + ^ x29: .cfa -32 + ^
STACK CFI INIT 1300c 140 .cfa: sp 0 +
STACK CFI 13010 .cfa: sp 96 +
STACK CFI 13028 .cfa: x29 96 + x19: .cfa -8 + ^ x20: .cfa -16 + ^ x21: .cfa -24 + ^ x22: .cfa -32 + ^ x23: .cfa -40 + ^ x24: .cfa -48 + ^ x25: .cfa -56 + ^ x26: .cfa -64 + ^ x27: .cfa -72 + ^ x28: .cfa -80 + ^ .ra: .cfa -88 + ^ x29: .cfa -96 + ^
STACK CFI 130e4 .cfa: sp 96 +
STACK CFI 130fc .cfa: sp 0 +
STACK CFI 13100 .cfa: x29 96 +
STACK CFI INIT 1314c 4c .cfa: sp 0 +
STACK CFI 13150 .cfa: sp 32 +
STACK CFI 13158 .cfa: x29 32 + x19: .cfa -8 + ^ x20: .cfa -16 + ^ .ra: .cfa -24 + ^ x29: .cfa -32 + ^
STACK CFI INIT 13198 4c .cfa: sp 0 +
STACK CFI 1319c .cfa: sp 32 +
STACK CFI 131a4 .cfa: x29 32 + x19: .cfa -8 + ^ x20: .cfa -16 + ^ .ra: .cfa -24 + ^ x29: .cfa -32 + ^
STACK CFI INIT 13674 4c .cfa: sp 0 +
STACK CFI 13678 .cfa: sp 32 +
STACK CFI 13680 .cfa: x29 32 + x19: .cfa -8 + ^ x20: .cfa -16 + ^ .ra: .cfa -24 + ^ x29: .cfa -32 + ^
STACK CFI INIT 1408c 304 .cfa: sp 0 +
STACK CFI 14090 .cfa: sp 128 +
STACK CFI 140ac .cfa: x29 96 + x19: .cfa -8 + ^ x20: .cfa -16 + ^ x21: .cfa -24 + ^ x22: .cfa -32 + ^ x23: .cfa -40 + ^ x24: .cfa -48 + ^ x25: .cfa -56 + ^ x26: .cfa -64 + ^ x27: .cfa -72 + ^ x28: .cfa -80 + ^ .ra: .cfa -88 + ^ x29: .cfa -96 + ^
STACK CFI 14310 .cfa: sp 128 +
STACK CFI 1432c .cfa: sp 0 +
STACK CFI 14330 .cfa: x29 96 +
STACK CFI INIT 14390 524 .cfa: sp 0 +
STACK CFI 14394 .cfa: sp 304 +
STACK CFI 143b0 .cfa: x29 96 + x19: .cfa -8 + ^ x20: .cfa -16 + ^ x21: .cfa -24 + ^ x22: .cfa -32 + ^ x23: .cfa -40 + ^ x24: .cfa -48 + ^ x25: .cfa -56 + ^ x26: .cfa -64 + ^ x27: .cfa -72 + ^ x28: .cfa -80 + ^ .ra: .cfa -88 + ^ x29: .cfa -96 + ^
STACK CFI 14754 .cfa: sp 304 +
STACK CFI 14770 .cfa: sp 0 +
STACK CFI 14774 .cfa: x29 96 +
STACK CFI INIT 14904 74 .cfa: sp 0 +
STACK CFI 14908 .cfa: sp 48 +
STACK CFI 14914 .cfa: x29 32 + x19: .cfa -8 + ^ x20: .cfa -16 + ^ .ra: .cfa -24 + ^ x29: .cfa -32 + ^
STACK CFI 14960 .cfa: sp 48 +
STACK CFI 1496c .cfa: sp 0 +
STACK CFI 14970 .cfa: x29 32 +
STACK CFI INIT 1497c 154 .cfa: sp 0 +
STACK CFI 14980 .cfa: sp 384 +
STACK CFI 14994 .cfa: x29 64 + x19: .cfa -8 + ^ x20: .cfa -16 + ^ x21: .cfa -24 + ^ x22: .cfa -32 + ^ x23: .cfa -40 + ^ x28: .cfa -48 + ^ .ra: .cfa -56 + ^ x29: .cfa -64 + ^
STACK CFI 14a78 .cfa: sp 384 +
STACK CFI 14a8c .cfa: sp 0 +
STACK CFI 14a90 .cfa: x29 64 +
STACK CFI INIT 14b04 12c .cfa: sp 0 +
STACK CFI 14b08 .cfa: sp 80 +
STACK CFI 14b1c .cfa: x29 80 + x19: .cfa -8 + ^ x20: .cfa -16 + ^ x21: .cfa -24 + ^ x22: .cfa -32 + ^ x23: .cfa -40 + ^ x24: .cfa -48 + ^ x25: .cfa -56 + ^ x26: .cfa -64 + ^ .ra: .cfa -72 + ^ x29: .cfa -80 + ^
STACK CFI 14be4 .cfa: sp 80 +
STACK CFI 14bf8 .cfa: sp 0 +
STACK CFI 14bfc .cfa: x29 80 +
STACK CFI INIT 14cd4 1a4 .cfa: sp 0 +
STACK CFI 14cd8 .cfa: sp 112 +
STACK CFI 14cf0 .cfa: x29 80 + x19: .cfa -8 + ^ x20: .cfa -16 + ^ x21: .cfa -24 + ^ x22: .cfa -32 + ^ x23: .cfa -40 + ^ x24: .cfa -48 + ^ x25: .cfa -56 + ^ x26: .cfa -64 + ^ .ra: .cfa -72 + ^ x29: .cfa -80 + ^
STACK CFI 14de0 .cfa: sp 112 +
STACK CFI 14df8 .cfa: sp 0 +
STACK CFI 14dfc .cfa: x29 80 +
STACK CFI INIT 14e78 1dc .cfa: sp 0 +
STACK CFI 14e7c .cfa: sp 128 +
STACK CFI 14e98 .cfa: x29 96 + x19: .cfa -8 + ^ x20: .cfa -16 + ^ x21: .cfa -24 + ^ x22: .cfa -32 + ^ x23: .cfa -40 + ^ x24: .cfa -48 + ^ x25: .cfa -56 + ^ x26: .cfa -64 + ^ x27: .cfa -80 + ^ .ra: .cfa -88 + ^ x29: .cfa -96 + ^
STACK CFI 15004 .cfa: sp 128 +
STACK CFI 15020 .cfa: sp 0 +
STACK CFI 15024 .cfa: x29 96 +
STACK CFI INIT 15054 178 .cfa: sp 0 +
STACK CFI 15058 .cfa: sp 80 +
STACK CFI 1506c .cfa: x29 80 + x19: .cfa -8 + ^ x20: .cfa -16 + ^ x21: .cfa -24 + ^ x22: .cfa -32 + ^ x23: .cfa -40 + ^ x24: .cfa -48 + ^ x25: .cfa -64 + ^ .ra: .cfa -72 + ^ x29: .cfa -80 + ^
STACK CFI 15198 .cfa: sp 80 +
STACK CFI 151ac .cfa: sp 0 +
STACK CFI 151b0 .cfa: x29 80 +
STACK CFI INIT 153b0 a8 .cfa: sp 0 +
STACK CFI 153b4 .cfa: sp 80 +
STACK CFI 153c8 .cfa: x29 32 + x19: .cfa -8 + ^ x20: .cfa -16 + ^ .ra: .cfa -24 + ^ x29: .cfa -32 + ^ v8: .cfa -40 + ^ v9: .cfa -48 + ^ v10: .cfa -64 + ^
STACK CFI 15414 .cfa: sp 80 +
STACK CFI 15428 .cfa: sp 0 +
STACK CFI 1542c .cfa: x29 32 +
STACK CFI INIT 15520 2c50 .cfa: sp 0 +
STACK CFI 15524 .cfa: sp 128 +
STACK CFI 15544 .cfa: x29 96 + x19: .cfa -8 + ^ x20: .cfa -16 + ^ x21: .cfa -24 + ^ x22: .cfa -32 + ^ x23: .cfa -40 + ^ x24: .cfa -48 + ^ x25: .cfa -56 + ^ x26: .cfa -64 + ^ x27: .cfa -72 + ^ x28: .cfa -80 + ^ .ra: .cfa -88 + ^ x29: .cfa -96 + ^ v8: .cfa -104 + ^ v9: .cfa -112 + ^ v10: .cfa -128 + ^
STACK CFI 15940 .cfa: sp 128 +
STACK CFI 15960 .cfa: sp 0 +
STACK CFI 15964 .cfa: x29 96 +
STACK CFI INIT 18568 5f0 .cfa: sp 0 +
STACK CFI 1856c .cfa: sp 112 +
STACK CFI 18588 .cfa: x29 96 + x19: .cfa -8 + ^ x20: .cfa -16 + ^ x21: .cfa -24 + ^ x22: .cfa -32 + ^ x23: .cfa -40 + ^ x24: .cfa -48 + ^ x25: .cfa -56 + ^ x26: .cfa -64 + ^ x27: .cfa -80 + ^ .ra: .cfa -88 + ^ x29: .cfa -96 + ^
STACK CFI 1882c .cfa: sp 112 +
STACK CFI 18848 .cfa: sp 0 +
STACK CFI 1884c .cfa: x29 96 +
STACK CFI 18a40 .cfa: sp 112 +
STACK CFI 18a5c .cfa: sp 0 +
STACK CFI 18a60 .cfa: x29 96 +
STACK CFI INIT 19110 ad8 .cfa: sp 0 +
STACK CFI 19114 .cfa: sp 80 +
STACK CFI 19128 .cfa: x29 80 + x19: .cfa -8 + ^ x20: .cfa -16 + ^ x21: .cfa -24 + ^ x22: .cfa -32 + ^ x23: .cfa -40 + ^ x24: .cfa -48 + ^ x25: .cfa -56 + ^ x28: .cfa -64 + ^ .ra: .cfa -72 + ^ x29: .cfa -80 + ^
STACK CFI 1971c .cfa: sp 80 +
STACK CFI 19730 .cfa: sp 0 +
STACK CFI 19734 .cfa: x29 80 +
STACK CFI INIT 19c24 134 .cfa: sp 0 +
STACK CFI 19c28 .cfa: sp 80 +
STACK CFI 19c34 .cfa: x29 32 + x19: .cfa -8 + ^ x20: .cfa -16 + ^ .ra: .cfa -24 + ^ x29: .cfa -32 + ^
STACK CFI 19c64 .cfa: sp 80 +
STACK CFI 19c70 .cfa: sp 0 +
STACK CFI 19c74 .cfa: x29 32 +
STACK CFI INIT 19d58 78 .cfa: sp 0 +
STACK CFI 19d5c .cfa: sp 32 +
STACK CFI 19d64 .cfa: x29 32 + x19: .cfa -8 + ^ x20: .cfa -16 + ^ .ra: .cfa -24 + ^ x29: .cfa -32 + ^
STACK CFI 19d70 .cfa: sp 32 +
STACK CFI 19d78 .cfa: sp 0 +
STACK CFI 19d7c .cfa: x29 32 +
STACK CFI INIT 19dd0 74 .cfa: sp 0 +
STACK CFI 19dd4 .cfa: sp 48 +
STACK CFI 19de0 .cfa: x29 32 + x19: .cfa -8 + ^ x20: .cfa -16 + ^ .ra: .cfa -24 + ^ x29: .cfa -32 + ^
STACK CFI 19e2c .cfa: sp 48 +
STACK CFI 19e38 .cfa: sp 0 +
STACK CFI 19e3c .cfa: x29 32 +
STACK CFI INIT 19ea8 1a0 .cfa: sp 0 +
STACK CFI 19eac .cfa: sp 160 +
STACK CFI 19ec4 .cfa: x29 48 + x19: .cfa -8 + ^ x20: .cfa -16 + ^ x21: .cfa -24 + ^ x22: .cfa -32 + ^ .ra: .cfa -40 + ^ x29: .cfa -48 + ^ v8: .cfa -56 + ^ v9: .cfa -64 + ^ v10: .cfa -80 + ^
STACK CFI 19f38 .cfa: sp 160 +
STACK CFI 19f50 .cfa: sp 0 +
STACK CFI 19f54 .cfa: x29 48 +
STACK CFI INIT 1a048 3b8 .cfa: sp 0 +
STACK CFI 1a04c .cfa: sp 80 +
STACK CFI 1a060 .cfa: x29 80 + x19: .cfa -8 + ^ x20: .cfa -16 + ^ x21: .cfa -24 + ^ x22: .cfa -32 + ^ x23: .cfa -40 + ^ x24: .cfa -48 + ^ x25: .cfa -64 + ^ .ra: .cfa -72 + ^ x29: .cfa -80 + ^
STACK CFI 1a390 .cfa: sp 80 +
STACK CFI 1a3a4 .cfa: sp 0 +
STACK CFI 1a3a8 .cfa: x29 80 +
STACK CFI INIT 1a400 154 .cfa: sp 0 +
STACK CFI 1a404 .cfa: sp 384 +
STACK CFI 1a418 .cfa: x29 64 + x19: .cfa -8 + ^ x20: .cfa -16 + ^ x21: .cfa -24 + ^ x22: .cfa -32 + ^ x23: .cfa -40 + ^ x28: .cfa -48 + ^ .ra: .cfa -56 + ^ x29: .cfa -64 + ^
STACK CFI 1a4fc .cfa: sp 384 +
STACK CFI 1a510 .cfa: sp 0 +
STACK CFI 1a514 .cfa: x29 64 +
STACK CFI INIT 1a554 168 .cfa: sp 0 +
STACK CFI 1a558 .cfa: sp 384 +
STACK CFI 1a56c .cfa: x29 64 + x19: .cfa -8 + ^ x20: .cfa -16 + ^ x21: .cfa -24 + ^ x22: .cfa -32 + ^ x23: .cfa -40 + ^ x28: .cfa -48 + ^ .ra: .cfa -56 + ^ x29: .cfa -64 + ^
STACK CFI 1a664 .cfa: sp 384 +
STACK CFI 1a678 .cfa: sp 0 +
STACK CFI 1a67c .cfa: x29 64 +
