MODULE Linux arm64 C7FCCFA8C805A0F9B9DC813DC9BB51EE0 hbg1010.iconsteal.android64.so
INFO CODE_ID A8CFFCC705C8F9A0B9DC813DC9BB51EEB802A64B
INFO GENERATOR mozilla/dump_syms 2.3.4
PUBLIC 13660 0 __on_dlclose
PUBLIC 13670 0 __emutls_unregister_key
PUBLIC 13678 0 __on_dlclose_late
PUBLIC 13680 0 __atexit_handler_wrapper
PUBLIC 13694 0 atexit
PUBLIC 136b0 0 pthread_atfork
PUBLIC 136c0 0 unwind_phase2
PUBLIC 137f4 0 _Unwind_Resume
PUBLIC 13878 0 unwind_phase2_forced
PUBLIC m 1396c 0 __unw_init_local
PUBLIC m 13a14 0 __unw_get_reg
PUBLIC 13a90 0 __unw_step_stage2
PUBLIC m 13aa4 0 __unw_get_proc_info
PUBLIC m 13ae4 0 __unw_resume
PUBLIC 13b0c 0 libunwind::CFI_Parser<libunwind::LocalAddressSpace>::decodeFDE(libunwind::LocalAddressSpace&, unsigned long, libunwind::CFI_Parser<libunwind::LocalAddressSpace>::FDE_Info*, libunwind::CFI_Parser<libunwind::LocalAddressSpace>::CIE_Info*, bool)
PUBLIC 13c9c 0 libunwind::CFI_Parser<libunwind::LocalAddressSpace>::parseCIE(libunwind::LocalAddressSpace&, unsigned long, libunwind::CFI_Parser<libunwind::LocalAddressSpace>::CIE_Info*)
PUBLIC 13f64 0 libunwind::AbstractUnwindCursor::~AbstractUnwindCursor()
PUBLIC 13f6c 0 libunwind::UnwindCursor<libunwind::LocalAddressSpace, libunwind::Registers_arm64>::~UnwindCursor()
PUBLIC 13f74 0 libunwind::UnwindCursor<libunwind::LocalAddressSpace, libunwind::Registers_arm64>::validReg(int)
PUBLIC 13fb8 0 libunwind::UnwindCursor<libunwind::LocalAddressSpace, libunwind::Registers_arm64>::getReg(int)
PUBLIC 140a0 0 libunwind::UnwindCursor<libunwind::LocalAddressSpace, libunwind::Registers_arm64>::setReg(int, unsigned long)
PUBLIC 14188 0 libunwind::UnwindCursor<libunwind::LocalAddressSpace, libunwind::Registers_arm64>::validFloatReg(int)
PUBLIC 1419c 0 libunwind::UnwindCursor<libunwind::LocalAddressSpace, libunwind::Registers_arm64>::getFloatReg(int)
PUBLIC 141ac 0 libunwind::UnwindCursor<libunwind::LocalAddressSpace, libunwind::Registers_arm64>::setFloatReg(int, double)
PUBLIC 141bc 0 libunwind::UnwindCursor<libunwind::LocalAddressSpace, libunwind::Registers_arm64>::step(bool)
PUBLIC 142ac 0 libunwind::UnwindCursor<libunwind::LocalAddressSpace, libunwind::Registers_arm64>::getInfo(unw_proc_info_t*)
PUBLIC 142f0 0 libunwind::UnwindCursor<libunwind::LocalAddressSpace, libunwind::Registers_arm64>::jumpto()
PUBLIC 142fc 0 libunwind::UnwindCursor<libunwind::LocalAddressSpace, libunwind::Registers_arm64>::isSignalFrame()
PUBLIC 14308 0 libunwind::UnwindCursor<libunwind::LocalAddressSpace, libunwind::Registers_arm64>::getFunctionName(char*, unsigned long, unsigned long*)
PUBLIC 14334 0 libunwind::UnwindCursor<libunwind::LocalAddressSpace, libunwind::Registers_arm64>::setInfoBasedOnIPRegister(bool)
PUBLIC 145b4 0 libunwind::UnwindCursor<libunwind::LocalAddressSpace, libunwind::Registers_arm64>::getRegisterName(int)
PUBLIC 145c0 0 libunwind::UnwindCursor<libunwind::LocalAddressSpace, libunwind::Registers_arm64>::stepThroughSigReturn(libunwind::Registers_arm64&)
PUBLIC 146e0 0 libunwind::DwarfInstructions<libunwind::LocalAddressSpace, libunwind::Registers_arm64>::stepWithDwarf(libunwind::LocalAddressSpace&, unsigned long, unsigned long, libunwind::Registers_arm64&, bool&, bool)
PUBLIC 14b68 0 libunwind::CFI_Parser<libunwind::LocalAddressSpace>::parseFDEInstructions(libunwind::LocalAddressSpace&, libunwind::CFI_Parser<libunwind::LocalAddressSpace>::FDE_Info const&, libunwind::CFI_Parser<libunwind::LocalAddressSpace>::CIE_Info const&, unsigned long, int, libunwind::CFI_Parser<libunwind::LocalAddressSpace>::PrologInfo*)
PUBLIC 157b0 0 libunwind::DwarfInstructions<libunwind::LocalAddressSpace, libunwind::Registers_arm64>::getCFA(libunwind::LocalAddressSpace&, libunwind::CFI_Parser<libunwind::LocalAddressSpace>::PrologInfo const&, libunwind::Registers_arm64 const&)
PUBLIC 158e4 0 libunwind::DwarfInstructions<libunwind::LocalAddressSpace, libunwind::Registers_arm64>::getSavedRegister(libunwind::LocalAddressSpace&, libunwind::Registers_arm64 const&, unsigned long, libunwind::CFI_Parser<libunwind::LocalAddressSpace>::RegisterLocation const&)
PUBLIC 15af4 0 libunwind::LocalAddressSpace::getEncodedP(unsigned long&, unsigned long, unsigned char, unsigned long)
PUBLIC 15e80 0 libunwind::LocalAddressSpace::getULEB128(unsigned long&, unsigned long)
PUBLIC 16048 0 libunwind::DwarfInstructions<libunwind::LocalAddressSpace, libunwind::Registers_arm64>::evaluateExpression(unsigned long, libunwind::LocalAddressSpace&, libunwind::Registers_arm64 const&, unsigned long)
PUBLIC 16a04 0 libunwind::UnwindCursor<libunwind::LocalAddressSpace, libunwind::Registers_arm64>::getInfoFromDwarfSection(unsigned long, libunwind::UnwindInfoSections const&, unsigned int)
PUBLIC 16cd8 0 libunwind::findUnwindSectionsByPhdr(dl_phdr_info*, unsigned long, void*)
PUBLIC 16e0c 0 libunwind::EHHeaderParser<libunwind::LocalAddressSpace>::decodeEHHdr(libunwind::LocalAddressSpace&, unsigned long, unsigned long, libunwind::EHHeaderParser<libunwind::LocalAddressSpace>::EHHeaderInfo&)
PUBLIC 16f2c 0 libunwind::CFI_Parser<libunwind::LocalAddressSpace>::findFDE(libunwind::LocalAddressSpace&, unsigned long, unsigned long, unsigned long, unsigned long, libunwind::CFI_Parser<libunwind::LocalAddressSpace>::FDE_Info*, libunwind::CFI_Parser<libunwind::LocalAddressSpace>::CIE_Info*)
PUBLIC 170f4 0 libunwind::EHHeaderParser<libunwind::LocalAddressSpace>::findFDE(libunwind::LocalAddressSpace&, unsigned long, unsigned long, unsigned int, libunwind::CFI_Parser<libunwind::LocalAddressSpace>::FDE_Info*, libunwind::CFI_Parser<libunwind::LocalAddressSpace>::CIE_Info*)
PUBLIC 1725c 0 libunwind::EHHeaderParser<libunwind::LocalAddressSpace>::getTableEntrySize(unsigned char)
PUBLIC 17358 0 libunwind::Registers_arm64::getRegisterName(int)
PUBLIC 17388 0 __libunwind_Registers_arm64_jumpto
PUBLIC m 17418 0 __unw_getcontext
PUBLIC 174c0 0 __aarch64_ldadd8_relax
PUBLIC 174f0 0 init_have_lse_atomics
PUBLIC 17588 0 __init_cpu_features_constructor
PUBLIC 17b24 0 __init_cpu_features
PUBLIC 17bb0 0 __aarch64_ldadd8_acq_rel
PUBLIC 17be0 0 CopyPlusPopup::create(GJUserScore* const&)
PUBLIC 17da0 0 geode::Popup<GJUserScore* const&>::~Popup()
PUBLIC 17e0c 0 CopyPlusPopup::createFormatted(char const*)
PUBLIC 1819c 0 CopyPlusPopup::onSelect(cocos2d::CCObject*)
PUBLIC 18638 0 CopyPlusPopup::createTextButton(char const*)
PUBLIC 187b8 0 CopyPlusPopup::setup(GJUserScore* const&)
PUBLIC 1933c 0 geode::Mod::getSettingValue<bool>(std::__ndk1::basic_string_view<char, std::__ndk1::char_traits<char> >) const
PUBLIC 19470 0 CopyPlusPopup::lockObject(int)
PUBLIC 19638 0 CopyPlusPopup::setIcons(cocos2d::CCObject*)
PUBLIC 19910 0 CopyPlusPopup::createInfoPopup(cocos2d::CCObject*)
PUBLIC 19a44 0 geode::Popup<GJUserScore* const&>::onClose(cocos2d::CCObject*)
PUBLIC 19b8c 0 cocos2d::CCCopying::copyWithZone(cocos2d::CCZone*)
PUBLIC 19b94 0 CopyPlusPopup::~CopyPlusPopup()
PUBLIC 19c08 0 geode::Popup<GJUserScore* const&>::registerWithTouchDispatcher()
PUBLIC 19c34 0 geode::Popup<GJUserScore* const&>::keyDown(cocos2d::enumKeyCodes)
PUBLIC 19c5c 0 cocos2d::CCLayerRGBA::setOpacityModifyRGB(bool)
PUBLIC 19c60 0 cocos2d::CCLayerRGBA::isOpacityModifyRGB()
PUBLIC 19c68 0 {virtual override thunk({offset(-320)}, CopyPlusPopup::~CopyPlusPopup())}
PUBLIC 19cd4 0 {virtual override thunk({offset(-320)}, CopyPlusPopup::~CopyPlusPopup())}
PUBLIC 19d48 0 {virtual override thunk({offset(-344)}, geode::Popup<GJUserScore* const&>::keyDown(cocos2d::enumKeyCodes))}
PUBLIC 19d74 0 cocos2d::CCKeyboardDelegate::keyUp(cocos2d::enumKeyCodes)
PUBLIC 19d78 0 cocos2d::CCMouseDelegate::rightKeyDown()
PUBLIC 19d7c 0 cocos2d::CCMouseDelegate::rightKeyUp()
PUBLIC 19d80 0 cocos2d::CCMouseDelegate::scrollWheel(float, float)
PUBLIC 19d84 0 {virtual override thunk({offset(-408)}, cocos2d::CCLayerRGBA::setOpacityModifyRGB(bool))}
PUBLIC 19d88 0 {virtual override thunk({offset(-408)}, cocos2d::CCLayerRGBA::isOpacityModifyRGB())}
PUBLIC 19d90 0 geode::Popup<GJUserScore* const&>::~Popup()
PUBLIC 19d94 0 {virtual override thunk({offset(-320)}, geode::Popup<GJUserScore* const&>::~Popup())}
PUBLIC 19e00 0 {virtual override thunk({offset(-320)}, geode::Popup<GJUserScore* const&>::~Popup())}
PUBLIC 19e04 0 __clang_call_terminate
PUBLIC 19e14 0 std::__ndk1::basic_string<char, std::__ndk1::char_traits<char>, std::__ndk1::allocator<char> >::__throw_length_error[abi:ne180000]() const
PUBLIC 19e28 0 std::__ndk1::__throw_length_error[abi:ne180000](char const*)
PUBLIC 19e78 0 std::length_error::length_error[abi:ne180000](char const*)
PUBLIC 19ea8 0 std::__ndk1::basic_string<char, std::__ndk1::char_traits<char>, std::__ndk1::allocator<char> >::__throw_out_of_range[abi:ne180000]() const
PUBLIC 19eb4 0 std::__ndk1::__throw_out_of_range[abi:ne180000](char const*)
PUBLIC 19f04 0 std::out_of_range::out_of_range[abi:ne180000](char const*)
PUBLIC 19f34 0 geode::Popup<GJUserScore* const&>::initBase(float, float, GJUserScore* const&, char const*, cocos2d::CCRect, bool)
PUBLIC 1a248 0 geode::cast::traverseTypeinfoFor(void*, geode::cast::ClassTypeinfoType const*, char const*)
PUBLIC 1a34c 0 geode::Popup<GJUserScore* const&>::CloseEvent::~CloseEvent()
PUBLIC 1a3ac 0 geode::Popup<GJUserScore* const&>::CloseEvent::~CloseEvent()
PUBLIC 1a41c 0 std::__ndk1::__shared_ptr_emplace<geode::Popup<GJUserScore* const&>::CloseEvent::Impl, std::__ndk1::allocator<geode::Popup<GJUserScore* const&>::CloseEvent::Impl> >::~__shared_ptr_emplace()
PUBLIC 1a42c 0 std::__ndk1::__shared_ptr_emplace<geode::Popup<GJUserScore* const&>::CloseEvent::Impl, std::__ndk1::allocator<geode::Popup<GJUserScore* const&>::CloseEvent::Impl> >::~__shared_ptr_emplace()
PUBLIC 1a45c 0 std::__ndk1::__shared_ptr_emplace<geode::Popup<GJUserScore* const&>::CloseEvent::Impl, std::__ndk1::allocator<geode::Popup<GJUserScore* const&>::CloseEvent::Impl> >::__on_zero_shared()
PUBLIC 1a460 0 std::__ndk1::__shared_ptr_emplace<geode::Popup<GJUserScore* const&>::CloseEvent::Impl, std::__ndk1::allocator<geode::Popup<GJUserScore* const&>::CloseEvent::Impl> >::__on_zero_shared_weak()
PUBLIC 1a464 0 __cxx_global_var_init
PUBLIC 1b038 0 geode::modifier::ModifyBase<geode::modifier::ModifyDerive<copyIcons, ProfilePage> >::~ModifyBase()
PUBLIC 1b050 0 geode::modifier::ModifyDerive<copyIcons, ProfilePage>::apply()
PUBLIC 1b4d4 0 std::__ndk1::shared_ptr<geode::Hook>::~shared_ptr[abi:ne180000]()
PUBLIC 1b524 0 geode::impl::ResultData<geode::Hook*, std::__ndk1::basic_string<char, std::__ndk1::char_traits<char>, std::__ndk1::allocator<char> > >::~ResultData()
PUBLIC 1b598 0 std::__ndk1::vector<std::__ndk1::basic_string<char, std::__ndk1::char_traits<char>, std::__ndk1::allocator<char> >, std::__ndk1::allocator<std::__ndk1::basic_string<char, std::__ndk1::char_traits<char>, std::__ndk1::allocator<char> > > >::~vector[abi:ne180000]()
PUBLIC 1b614 0 geode::modifier::ModifyBase<geode::modifier::ModifyDerive<copyIcons, ProfilePage> >::apply()
PUBLIC 1b618 0 _ZN5geode15UnwrapExceptionC2IRPNS_4HookEQsr4implE18IsStringStreamableIT_EEENS_4impl5OkTagEOS5_
PUBLIC 1b76c 0 std::__ndk1::__throw_bad_variant_access[abi:ne180000]()
PUBLIC 1b7a0 0 std::__ndk1::basic_stringstream<char, std::__ndk1::char_traits<char>, std::__ndk1::allocator<char> >::basic_stringstream[abi:ne180000]()
PUBLIC m 1b8cc 0 std::__ndk1::basic_stringstream<char, std::__ndk1::char_traits<char>, std::__ndk1::allocator<char> >::~basic_stringstream()
PUBLIC 1b94c 0 geode::UnwrapException::~UnwrapException()
PUBLIC 1b970 0 std::__ndk1::__put_character_sequence[abi:ne180000]<char, std::__ndk1::char_traits<char> >(std::__ndk1::basic_ostream<char, std::__ndk1::char_traits<char> >, std::__ndk1::basic_ostream const*, unsigned long)
PUBLIC 1bb14 0 std::__ndk1::__pad_and_output[abi:ne180000]<char, std::__ndk1::char_traits<char> >(std::__ndk1::char_traits<char>, std::__ndk1::ostreambuf_iterator const*, std::__ndk1::ostreambuf_iterator const, std::__ndk1::ostreambuf_iterator const, std::__ndk1::ios_base&, std::__ndk1::ostreambuf_iterator)
PUBLIC 1bcf0 0 std::__throw_bad_array_new_length([abi:ne180000], void)
PUBLIC 1bd24 0 std::__ndk1::basic_stringbuf<char, std::__ndk1::char_traits<char>, std::__ndk1::allocator<char> >::str[abi:ne180000]() &&
PUBLIC 1be9c 0 std::__ndk1::basic_stringbuf<char, std::__ndk1::char_traits<char>, std::__ndk1::allocator<char> >::__init_buf_ptrs[abi:ne180000]()
PUBLIC 1bfe4 0 std::__ndk1::basic_string<char, std::__ndk1::char_traits<char>, std::__ndk1::allocator<char> >::__init_copy_ctor_external(char const*, unsigned long)
PUBLIC 1c064 0 std::__ndk1::__split_buffer<std::__ndk1::basic_string<char, std::__ndk1::char_traits<char>, std::__ndk1::allocator<char> >, std::__ndk1::allocator<std::__ndk1::basic_string<char, std::__ndk1::char_traits<char>, std::__ndk1::allocator<char> > >&>::~__split_buffer()
PUBLIC 1c0cc 0 std::__ndk1::vector<std::__ndk1::basic_string<char, std::__ndk1::char_traits<char>, std::__ndk1::allocator<char> >, std::__ndk1::allocator<std::__ndk1::basic_string<char, std::__ndk1::char_traits<char>, std::__ndk1::allocator<char> > > >::__throw_length_error[abi:ne180000]() const
PUBLIC 1c0e0 0 std::__ndk1::__variant_detail::__visitation::__base::__dispatcher<(unsigned long)0>::__dispatch[abi:ne180000]<std::__ndk1::__variant_detail::__dtor<std::__ndk1::__variant_detail::__traits<geode::Hook*, std::__ndk1::basic_string<char, std::__ndk1::char_traits<char>, std::__ndk1::allocator<char> > >, (std::__ndk1::__variant_detail::_Trait)1>::__destroy[abi:ne180000]()::{lambda(auto:1&)#1}, std::__ndk1::__variant_detail::__base<(std::__ndk1::__variant_detail::__traits<geode::Hook*, std::__ndk1::basic_string<char, std::__ndk1::char_traits<char>, std::__ndk1::allocator<char> > >)1, geode::Hook, std::__ndk1::allocator<char> >&>(std::__ndk1::__variant_detail::__dtor<std::__ndk1::__variant_detail::__traits<geode::Hook*, std::__ndk1::basic_string<char, std::__ndk1::char_traits<char>, std::__ndk1::allocator<char> > >, (std::__ndk1::__variant_detail::_Trait)1>, std::__ndk1::__variant_detail::__base<(std::__ndk1::__variant_detail::__traits<geode::Hook*, std::__ndk1::basic_string<char, std::__ndk1::char_traits<char>, std::__ndk1::allocator<char> > >)1, geode::Hook, std::__ndk1::allocator<char> >&)
PUBLIC 1c0e4 0 std::__ndk1::__variant_detail::__visitation::__base::__dispatcher<(unsigned long)1>::__dispatch[abi:ne180000]<std::__ndk1::__variant_detail::__dtor<std::__ndk1::__variant_detail::__traits<geode::Hook*, std::__ndk1::basic_string<char, std::__ndk1::char_traits<char>, std::__ndk1::allocator<char> > >, (std::__ndk1::__variant_detail::_Trait)1>::__destroy[abi:ne180000]()::{lambda(auto:1&)#1}, std::__ndk1::__variant_detail::__base<(std::__ndk1::__variant_detail::__traits<geode::Hook*, std::__ndk1::basic_string<char, std::__ndk1::char_traits<char>, std::__ndk1::allocator<char> > >)1, geode::Hook, std::__ndk1::allocator<char> >&>(std::__ndk1::__variant_detail::__dtor<std::__ndk1::__variant_detail::__traits<geode::Hook*, std::__ndk1::basic_string<char, std::__ndk1::char_traits<char>, std::__ndk1::allocator<char> > >, (std::__ndk1::__variant_detail::_Trait)1>, std::__ndk1::__variant_detail::__base<(std::__ndk1::__variant_detail::__traits<geode::Hook*, std::__ndk1::basic_string<char, std::__ndk1::char_traits<char>, std::__ndk1::allocator<char> > >)1, geode::Hook, std::__ndk1::allocator<char> >&)
PUBLIC 1c0f8 0 std::__ndk1::__tree<std::__ndk1::__value_type<std::__ndk1::basic_string<char, std::__ndk1::char_traits<char>, std::__ndk1::allocator<char> >, std::__ndk1::shared_ptr<geode::Hook> >, std::__ndk1::__map_value_compare<std::__ndk1::basic_string<char, std::__ndk1::char_traits<char>, std::__ndk1::allocator<char> >, std::__ndk1::__value_type<std::__ndk1::basic_string<char, std::__ndk1::char_traits<char>, std::__ndk1::allocator<char> >, std::__ndk1::shared_ptr<geode::Hook> >, std::__ndk1::less<std::__ndk1::basic_string<char, std::__ndk1::char_traits<char>, std::__ndk1::allocator<char> > >, true>, std::__ndk1::allocator<std::__ndk1::__value_type<std::__ndk1::basic_string<char, std::__ndk1::char_traits<char>, std::__ndk1::allocator<char> >, std::__ndk1::shared_ptr<geode::Hook> > > >::destroy(std::__ndk1::__tree_node<std::__ndk1::__value_type<std::__ndk1::basic_string<char, std::__ndk1::char_traits<char>, std::__ndk1::allocator<char> >, std::__ndk1::shared_ptr<geode::Hook> >, void*>*)
PUBLIC 1c17c 0 geode::modifier::AsStaticFunction_loadPageFromUserInfo<copyIcons, void (copyIcons::*)(GJUserScore*)>::Impl<void (copyIcons::*)(GJUserScore*)>::function(copyIcons*, GJUserScore*)
PUBLIC 1c460 0 std::__ndk1::shared_ptr<tulip::hook::CallingConvention>::~shared_ptr[abi:ne180000]()
PUBLIC 1c4b0 0 tulip::hook::HandlerMetadata::~HandlerMetadata()
PUBLIC 1c514 0 copyIcons::setIcons(cocos2d::CCObject*)
PUBLIC 1cb3c 0 copyIcons::createCopyPlusLayer(cocos2d::CCObject*)
PUBLIC 1cc18 0 std::__ndk1::__tree_balance_after_insert[abi:ne180000]<std::__ndk1::__tree_node_base<void*>*>(std::__ndk1::__tree_node_base<void*>*, std::__ndk1::__tree_node_base<void*>*)
PUBLIC m 1cdc8 0 geodeImplicitEntry
PUBLIC 1ce04 0 std::__ndk1::unordered_map<void*, bool, std::__ndk1::hash<void*>, std::__ndk1::equal_to<void*>, std::__ndk1::allocator<std::__ndk1::pair<void* const, bool> > >::~unordered_map[abi:ne180000]()
PUBLIC 1ce50 0 wrapFunction(unsigned long, tulip::hook::WrapperMetadata const&)
PUBLIC 1cf84 0 geode::impl::ResultData<void*, std::__ndk1::basic_string<char, std::__ndk1::char_traits<char>, std::__ndk1::allocator<char> > >::unwrapErr() &
PUBLIC 1cffc 0 geode::impl::ResultData<void*, std::__ndk1::basic_string<char, std::__ndk1::char_traits<char>, std::__ndk1::allocator<char> > >::~ResultData()
PUBLIC 1d070 0 tulip::hook::WrapperMetadata::~WrapperMetadata()
PUBLIC 1d0d4 0 cocos2d::CCObject::~CCObject()
PUBLIC 1d0f8 0 cocos2d::CCNode::~CCNode()
PUBLIC 1d11c 0 {virtual override thunk({offset(-320)}, cocos2d::CCLayer::~CCLayer())}
PUBLIC 1d124 0 cocos2d::CCLayer::~CCLayer()
PUBLIC 1d148 0 {virtual override thunk({offset(-320)}, cocos2d::CCLayer::~CCLayer())}
PUBLIC 1d170 0 cocos2d::CCLayerRGBA::~CCLayerRGBA()
PUBLIC 1d448 0 {virtual override thunk({offset(-320)}, cocos2d::CCLayerRGBA::~CCLayerRGBA())}
PUBLIC 1d450 0 cocos2d::CCLayerRGBA::~CCLayerRGBA()
PUBLIC 1d474 0 {virtual override thunk({offset(-320)}, cocos2d::CCLayerRGBA::~CCLayerRGBA())}
PUBLIC 1d49c 0 cocos2d::CCLayerColor::CCLayerColor()
PUBLIC 1d6ec 0 {virtual override thunk({offset(-320)}, cocos2d::CCLayerColor::~CCLayerColor())}
PUBLIC 1d6f4 0 cocos2d::CCLayerColor::~CCLayerColor()
PUBLIC 1d718 0 {virtual override thunk({offset(-320)}, cocos2d::CCLayerColor::~CCLayerColor())}
PUBLIC 1d740 0 {virtual override thunk({offset(-320)}, FLAlertLayer::~FLAlertLayer())}
PUBLIC 1d748 0 FLAlertLayer::~FLAlertLayer()
PUBLIC 1d76c 0 {virtual override thunk({offset(-320)}, FLAlertLayer::~FLAlertLayer())}
PUBLIC 1d794 0 FLAlertLayer::create(FLAlertLayerProtocol*, char const*, gd::string, char const*, char const*, float)
PUBLIC 1d94c 0 tulip::hook::AbstractFunction::from<FLAlertLayer*, FLAlertLayerProtocol*, char const*, gd::string, char const*, char const*, float>(FLAlertLayer* (*)(FLAlertLayerProtocol*, char const*, gd::string, char const*, char const*, float))
PUBLIC 1dab8 0 cocos2d::CCObject::update(float)
PUBLIC 1dabc 0 cocos2d::CCLayerColor::~CCLayerColor()
PUBLIC 1dd78 0 FLAlertLayer::~FLAlertLayer()
PUBLIC 1e034 0 cocos2d::CCNode::~CCNode()
PUBLIC 1e2ac 0 cocos2d::CCLayer::~CCLayer()
PUBLIC 1e574 0 cocos2d::CCObject::~CCObject()
PUBLIC 1ea40 0 _ZN5geode15UnwrapExceptionC2IRPvQsr4implE18IsStringStreamableIT_EEENS_4impl5OkTagEOS4_
PUBLIC 1eb94 0 _ZN5geode15UnwrapExceptionC2IRNSt6__ndk112basic_stringIcNS2_11char_traitsIcEENS2_9allocatorIcEEEEQsr4implE18IsStringStreamableIT_EEENS_4impl6ErrTagEOSA_
PUBLIC 1ecfc 0 std::__ndk1::__variant_detail::__visitation::__base::__dispatcher<(unsigned long)0>::__dispatch[abi:ne180000]<std::__ndk1::__variant_detail::__dtor<std::__ndk1::__variant_detail::__traits<void*, std::__ndk1::basic_string<char, std::__ndk1::char_traits<char>, std::__ndk1::allocator<char> > >, (std::__ndk1::__variant_detail::_Trait)1>::__destroy[abi:ne180000]()::{lambda(auto:1&)#1}, std::__ndk1::__variant_detail::__base<(std::__ndk1::__variant_detail::__traits<void*, std::__ndk1::basic_string<char, std::__ndk1::char_traits<char>, std::__ndk1::allocator<char> > >)1, std::__ndk1::__variant_detail::__traits, std::__ndk1::allocator<char> >&>(std::__ndk1::__variant_detail::__dtor<std::__ndk1::__variant_detail::__traits<void*, std::__ndk1::basic_string<char, std::__ndk1::char_traits<char>, std::__ndk1::allocator<char> > >, (std::__ndk1::__variant_detail::_Trait)1>, std::__ndk1::__variant_detail::__base<(std::__ndk1::__variant_detail::__traits<void*, std::__ndk1::basic_string<char, std::__ndk1::char_traits<char>, std::__ndk1::allocator<char> > >)1, std::__ndk1::__variant_detail::__traits, std::__ndk1::allocator<char> >&)
PUBLIC 1ed00 0 std::__ndk1::__variant_detail::__visitation::__base::__dispatcher<(unsigned long)1>::__dispatch[abi:ne180000]<std::__ndk1::__variant_detail::__dtor<std::__ndk1::__variant_detail::__traits<void*, std::__ndk1::basic_string<char, std::__ndk1::char_traits<char>, std::__ndk1::allocator<char> > >, (std::__ndk1::__variant_detail::_Trait)1>::__destroy[abi:ne180000]()::{lambda(auto:1&)#1}, std::__ndk1::__variant_detail::__base<(std::__ndk1::__variant_detail::__traits<void*, std::__ndk1::basic_string<char, std::__ndk1::char_traits<char>, std::__ndk1::allocator<char> > >)1, std::__ndk1::__variant_detail::__traits, std::__ndk1::allocator<char> >&>(std::__ndk1::__variant_detail::__dtor<std::__ndk1::__variant_detail::__traits<void*, std::__ndk1::basic_string<char, std::__ndk1::char_traits<char>, std::__ndk1::allocator<char> > >, (std::__ndk1::__variant_detail::_Trait)1>, std::__ndk1::__variant_detail::__base<(std::__ndk1::__variant_detail::__traits<void*, std::__ndk1::basic_string<char, std::__ndk1::char_traits<char>, std::__ndk1::allocator<char> > >)1, std::__ndk1::__variant_detail::__traits, std::__ndk1::allocator<char> >&)
PUBLIC 1ed14 0 std::__ndk1::__hash_table<std::__ndk1::__hash_value_type<void*, bool>, std::__ndk1::__unordered_map_hasher<void*, std::__ndk1::__hash_value_type<void*, bool>, std::__ndk1::hash<void*>, std::__ndk1::equal_to<void*>, true>, std::__ndk1::__unordered_map_equal<void*, std::__ndk1::__hash_value_type<void*, bool>, std::__ndk1::equal_to<void*>, std::__ndk1::hash<void*>, true>, std::__ndk1::allocator<std::__ndk1::__hash_value_type<void*, bool> > >::__emplace_unique_key_args<void*, std::__ndk1::piecewise_construct_t const&, std::__ndk1::tuple<void* const&>, std::__ndk1::tuple<> >(void* const&, std::__ndk1::piecewise_construct_t const&, std::__ndk1::tuple<void* const&>, std::__ndk1::tuple<>)
PUBLIC 1f200 0 <.plt ELF section in hbg1010.iconsteal.android64.so>
STACK CFI INIT 13660 10 .cfa: sp 0 +
STACK CFI INIT 13670 8 .cfa: sp 0 +
STACK CFI INIT 13678 8 .cfa: sp 0 +
STACK CFI INIT 13680 14 .cfa: sp 0 +
STACK CFI INIT 13694 1c .cfa: sp 0 +
STACK CFI INIT 136b0 10 .cfa: sp 0 +
STACK CFI INIT 136c0 134 .cfa: sp 0 +
STACK CFI INIT 137f4 84 .cfa: sp 0 +
STACK CFI INIT 13878 f4 .cfa: sp 0 +
STACK CFI INIT 1396c a8 .cfa: sp 0 +
STACK CFI INIT 13a14 7c .cfa: sp 0 +
STACK CFI INIT 13a90 14 .cfa: sp 0 +
STACK CFI INIT 13aa4 40 .cfa: sp 0 +
STACK CFI INIT 13ae4 28 .cfa: sp 0 +
STACK CFI INIT 13b0c 190 .cfa: sp 0 +
STACK CFI INIT 13c9c 2c8 .cfa: sp 0 +
STACK CFI INIT 13f64 8 .cfa: sp 0 +
STACK CFI INIT 13f6c 8 .cfa: sp 0 +
STACK CFI INIT 13f74 44 .cfa: sp 0 +
STACK CFI INIT 13fb8 e8 .cfa: sp 0 +
STACK CFI INIT 140a0 e8 .cfa: sp 0 +
STACK CFI INIT 14188 14 .cfa: sp 0 +
STACK CFI INIT 1419c 10 .cfa: sp 0 +
STACK CFI INIT 141ac 10 .cfa: sp 0 +
STACK CFI INIT 141bc f0 .cfa: sp 0 +
STACK CFI INIT 142ac 44 .cfa: sp 0 +
STACK CFI INIT 142f0 c .cfa: sp 0 +
STACK CFI INIT 142fc c .cfa: sp 0 +
STACK CFI INIT 14308 2c .cfa: sp 0 +
STACK CFI INIT 14334 280 .cfa: sp 0 +
STACK CFI INIT 145b4 c .cfa: sp 0 +
STACK CFI INIT 145c0 120 .cfa: sp 0 +
STACK CFI INIT 146e0 488 .cfa: sp 0 +
STACK CFI INIT 14b68 c48 .cfa: sp 0 +
STACK CFI INIT 157b0 134 .cfa: sp 0 +
STACK CFI INIT 158e4 210 .cfa: sp 0 +
STACK CFI INIT 15af4 38c .cfa: sp 0 +
STACK CFI INIT 15e80 1c8 .cfa: sp 0 +
STACK CFI INIT 16048 9bc .cfa: sp 0 +
STACK CFI INIT 16a04 2d4 .cfa: sp 0 +
STACK CFI INIT 16cd8 134 .cfa: sp 0 +
STACK CFI INIT 16e0c 120 .cfa: sp 0 +
STACK CFI INIT 16f2c 1c8 .cfa: sp 0 +
STACK CFI INIT 170f4 168 .cfa: sp 0 +
STACK CFI INIT 1725c fc .cfa: sp 0 +
STACK CFI INIT 17358 30 .cfa: sp 0 +
STACK CFI INIT 174c0 30 .cfa: sp 0 +
STACK CFI INIT 174f0 98 .cfa: sp 0 +
STACK CFI INIT 17588 59c .cfa: sp 0 +
STACK CFI INIT 17b24 8c .cfa: sp 0 +
STACK CFI INIT 17bb0 30 .cfa: sp 0 +
STACK CFI INIT 19470 1c8 .cfa: sp 0 +
STACK CFI 19474 .cfa: sp 64 +
STACK CFI 19484 .cfa: x29 48 + x19: .cfa -8 + ^ x20: .cfa -16 + ^ x21: .cfa -32 + ^ .ra: .cfa -40 + ^ x29: .cfa -48 + ^
STACK CFI 19620 .cfa: sp 64 +
STACK CFI 19630 .cfa: sp 0 +
STACK CFI 19634 .cfa: x29 48 +
STACK CFI INIT 19638 2d8 .cfa: sp 0 +
STACK CFI 1963c .cfa: sp 80 +
STACK CFI 1964c .cfa: x29 48 + x19: .cfa -8 + ^ x20: .cfa -16 + ^ x21: .cfa -24 + ^ x22: .cfa -32 + ^ .ra: .cfa -40 + ^ x29: .cfa -48 + ^
STACK CFI 198b4 .cfa: sp 80 +
STACK CFI 198c4 .cfa: sp 0 +
STACK CFI 198c8 .cfa: x29 48 +
STACK CFI INIT 19b8c 8 .cfa: sp 0 +
STACK CFI INIT 19c08 2c .cfa: sp 0 +
STACK CFI 19c0c .cfa: sp 32 +
STACK CFI 19c14 .cfa: x29 32 + x19: .cfa -16 + ^ .ra: .cfa -24 + ^ x29: .cfa -32 + ^
STACK CFI 19c28 .cfa: sp 32 +
STACK CFI 19c30 .cfa: sp 0 +
STACK CFI INIT 19c34 28 .cfa: sp 0 +
STACK CFI INIT 19c5c 4 .cfa: sp 0 +
STACK CFI INIT 19c60 8 .cfa: sp 0 +
STACK CFI INIT 19d48 2c .cfa: sp 0 +
STACK CFI INIT 19d74 4 .cfa: sp 0 +
STACK CFI INIT 19d78 4 .cfa: sp 0 +
STACK CFI INIT 19d7c 4 .cfa: sp 0 +
STACK CFI INIT 19d80 4 .cfa: sp 0 +
STACK CFI INIT 19d84 4 .cfa: sp 0 +
STACK CFI INIT 19d88 8 .cfa: sp 0 +
STACK CFI INIT 19d90 4 .cfa: sp 0 +
STACK CFI INIT 19e00 4 .cfa: sp 0 +
STACK CFI INIT 19e04 10 .cfa: sp 0 +
STACK CFI 19e08 .cfa: sp 16 +
STACK CFI 19e0c .cfa: x29 16 + .ra: .cfa -8 + ^ x29: .cfa -16 + ^
STACK CFI INIT 19e14 14 .cfa: sp 0 +
STACK CFI 19e18 .cfa: sp 16 +
STACK CFI 19e1c .cfa: x29 16 + .ra: .cfa -8 + ^ x29: .cfa -16 + ^
STACK CFI INIT 19e78 30 .cfa: sp 0 +
STACK CFI 19e7c .cfa: sp 32 +
STACK CFI 19e84 .cfa: x29 32 + x19: .cfa -16 + ^ .ra: .cfa -24 + ^ x29: .cfa -32 + ^
STACK CFI 19e9c .cfa: sp 32 +
STACK CFI 19ea4 .cfa: sp 0 +
STACK CFI INIT 19ea8 c .cfa: sp 0 +
STACK CFI 19eac .cfa: sp 16 +
STACK CFI 19eb0 .cfa: x29 16 + .ra: .cfa -8 + ^ x29: .cfa -16 + ^
STACK CFI INIT 19f04 30 .cfa: sp 0 +
STACK CFI 19f08 .cfa: sp 32 +
STACK CFI 19f10 .cfa: x29 32 + x19: .cfa -16 + ^ .ra: .cfa -24 + ^ x29: .cfa -32 + ^
STACK CFI 19f28 .cfa: sp 32 +
STACK CFI 19f30 .cfa: sp 0 +
STACK CFI INIT 19f34 314 .cfa: sp 0 +
STACK CFI 19f38 .cfa: sp 128 +
STACK CFI 19f50 .cfa: x29 64 + x19: .cfa -8 + ^ x20: .cfa -16 + ^ x21: .cfa -24 + ^ x22: .cfa -32 + ^ x23: .cfa -40 + ^ x24: .cfa -48 + ^ .ra: .cfa -56 + ^ x29: .cfa -64 + ^ v8: .cfa -72 + ^ v9: .cfa -80 + ^
STACK CFI 1a18c .cfa: sp 128 +
STACK CFI 1a1a4 .cfa: sp 0 +
STACK CFI 1a1a8 .cfa: x29 64 +
STACK CFI INIT 1a248 104 .cfa: sp 0 +
STACK CFI 1a24c .cfa: sp 64 +
STACK CFI 1a25c .cfa: x29 64 + x19: .cfa -8 + ^ x20: .cfa -16 + ^ x21: .cfa -24 + ^ x22: .cfa -32 + ^ x23: .cfa -48 + ^ .ra: .cfa -56 + ^ x29: .cfa -64 + ^
STACK CFI 1a2b8 .cfa: sp 64 +
STACK CFI 1a2c8 .cfa: sp 0 +
STACK CFI 1a2cc .cfa: x29 64 +
STACK CFI 1a2e8 .cfa: sp 64 +
STACK CFI 1a2f8 .cfa: sp 0 +
STACK CFI 1a2fc .cfa: x29 64 +
STACK CFI 1a338 .cfa: sp 64 +
STACK CFI 1a348 .cfa: sp 0 +
STACK CFI INIT 1a34c 60 .cfa: sp 0 +
STACK CFI 1a350 .cfa: sp 32 +
STACK CFI 1a358 .cfa: x29 32 + x19: .cfa -8 + ^ x20: .cfa -16 + ^ .ra: .cfa -24 + ^ x29: .cfa -32 + ^
STACK CFI 1a378 .cfa: sp 32 +
STACK CFI 1a380 .cfa: sp 0 +
STACK CFI 1a384 .cfa: x29 32 +
STACK CFI 1a3a0 .cfa: sp 32 +
STACK CFI 1a3a8 .cfa: sp 0 +
STACK CFI INIT 1a3ac 70 .cfa: sp 0 +
STACK CFI 1a3b0 .cfa: sp 32 +
STACK CFI 1a3b8 .cfa: x29 32 + x19: .cfa -8 + ^ x20: .cfa -16 + ^ .ra: .cfa -24 + ^ x29: .cfa -32 + ^
STACK CFI 1a3e0 .cfa: sp 32 +
STACK CFI 1a3e8 .cfa: sp 0 +
STACK CFI 1a3ec .cfa: x29 32 +
STACK CFI 1a410 .cfa: sp 32 +
STACK CFI 1a418 .cfa: sp 0 +
STACK CFI INIT 1a41c 10 .cfa: sp 0 +
STACK CFI INIT 1a42c 30 .cfa: sp 0 +
STACK CFI 1a430 .cfa: sp 32 +
STACK CFI 1a438 .cfa: x29 32 + x19: .cfa -16 + ^ .ra: .cfa -24 + ^ x29: .cfa -32 + ^
STACK CFI 1a450 .cfa: sp 32 +
STACK CFI 1a458 .cfa: sp 0 +
STACK CFI INIT 1a45c 4 .cfa: sp 0 +
STACK CFI INIT 1a460 4 .cfa: sp 0 +
STACK CFI INIT 1b038 18 .cfa: sp 0 +
STACK CFI INIT 1b4d4 50 .cfa: sp 0 +
STACK CFI 1b4d8 .cfa: sp 32 +
STACK CFI 1b4e0 .cfa: x29 32 + x19: .cfa -16 + ^ .ra: .cfa -24 + ^ x29: .cfa -32 + ^
STACK CFI 1b4f8 .cfa: sp 32 +
STACK CFI 1b500 .cfa: sp 0 +
STACK CFI 1b504 .cfa: x29 32 +
STACK CFI 1b518 .cfa: sp 32 +
STACK CFI 1b520 .cfa: sp 0 +
STACK CFI INIT 1b598 7c .cfa: sp 0 +
STACK CFI 1b59c .cfa: sp 48 +
STACK CFI 1b5a8 .cfa: x29 48 + x19: .cfa -8 + ^ x20: .cfa -16 + ^ x21: .cfa -32 + ^ .ra: .cfa -40 + ^ x29: .cfa -48 + ^
STACK CFI 1b5f4 .cfa: sp 48 +
STACK CFI 1b600 .cfa: sp 0 +
STACK CFI 1b604 .cfa: sp 48 +
STACK CFI 1b610 .cfa: sp 0 +
STACK CFI INIT 1b614 4 .cfa: sp 0 +
STACK CFI INIT 1b76c 34 .cfa: sp 0 +
STACK CFI 1b770 .cfa: sp 16 +
STACK CFI 1b774 .cfa: x29 16 + .ra: .cfa -8 + ^ x29: .cfa -16 + ^
STACK CFI INIT 1b8cc 80 .cfa: sp 0 +
STACK CFI 1b8d0 .cfa: sp 48 +
STACK CFI 1b8dc .cfa: x29 48 + x19: .cfa -8 + ^ x20: .cfa -16 + ^ x21: .cfa -32 + ^ .ra: .cfa -40 + ^ x29: .cfa -48 + ^
STACK CFI 1b93c .cfa: sp 48 +
STACK CFI 1b948 .cfa: sp 0 +
STACK CFI INIT 1b94c 24 .cfa: sp 0 +
STACK CFI 1b950 .cfa: sp 32 +
STACK CFI 1b958 .cfa: x29 32 + x19: .cfa -16 + ^ .ra: .cfa -24 + ^ x29: .cfa -32 + ^
STACK CFI 1b964 .cfa: sp 32 +
STACK CFI 1b96c .cfa: sp 0 +
STACK CFI INIT 1bcf0 34 .cfa: sp 0 +
STACK CFI 1bcf4 .cfa: sp 32 +
STACK CFI 1bcfc .cfa: x29 32 + x19: .cfa -16 + ^ .ra: .cfa -24 + ^ x29: .cfa -32 + ^
STACK CFI INIT 1be9c 148 .cfa: sp 0 +
STACK CFI 1bea0 .cfa: sp 48 +
STACK CFI 1beac .cfa: x29 48 + x19: .cfa -8 + ^ x20: .cfa -16 + ^ x21: .cfa -32 + ^ .ra: .cfa -40 + ^ x29: .cfa -48 + ^
STACK CFI 1bfd4 .cfa: sp 48 +
STACK CFI 1bfe0 .cfa: sp 0 +
STACK CFI INIT 1bfe4 80 .cfa: sp 0 +
STACK CFI 1bfe8 .cfa: sp 48 +
STACK CFI 1bff4 .cfa: x29 48 + x19: .cfa -8 + ^ x20: .cfa -16 + ^ x21: .cfa -24 + ^ x22: .cfa -32 + ^ .ra: .cfa -40 + ^ x29: .cfa -48 + ^
STACK CFI 1c00c .cfa: sp 48 +
STACK CFI 1c018 .cfa: sp 0 +
STACK CFI 1c01c .cfa: x29 48 +
STACK CFI 1c04c .cfa: sp 48 +
STACK CFI 1c058 .cfa: sp 0 +
STACK CFI 1c05c .cfa: x29 48 +
STACK CFI INIT 1c064 68 .cfa: sp 0 +
STACK CFI 1c068 .cfa: sp 32 +
STACK CFI 1c070 .cfa: x29 32 + x19: .cfa -8 + ^ x20: .cfa -16 + ^ .ra: .cfa -24 + ^ x29: .cfa -32 + ^
STACK CFI 1c088 .cfa: sp 32 +
STACK CFI 1c090 .cfa: sp 0 +
STACK CFI 1c094 .cfa: x29 32 +
STACK CFI 1c0c0 .cfa: sp 32 +
STACK CFI 1c0c8 .cfa: sp 0 +
STACK CFI INIT 1c0cc 14 .cfa: sp 0 +
STACK CFI 1c0d0 .cfa: sp 16 +
STACK CFI 1c0d4 .cfa: x29 16 + .ra: .cfa -8 + ^ x29: .cfa -16 + ^
STACK CFI INIT 1c0e0 4 .cfa: sp 0 +
STACK CFI INIT 1c0e4 14 .cfa: sp 0 +
STACK CFI INIT 1c0f8 84 .cfa: sp 0 +
STACK CFI 1c100 .cfa: sp 32 +
STACK CFI 1c108 .cfa: x29 32 + x19: .cfa -8 + ^ x20: .cfa -16 + ^ .ra: .cfa -24 + ^ x29: .cfa -32 + ^
STACK CFI 1c148 .cfa: sp 32 +
STACK CFI 1c150 .cfa: sp 0 +
STACK CFI 1c158 .cfa: x29 32 +
STACK CFI INIT 1c460 50 .cfa: sp 0 +
STACK CFI 1c464 .cfa: sp 32 +
STACK CFI 1c46c .cfa: x29 32 + x19: .cfa -16 + ^ .ra: .cfa -24 + ^ x29: .cfa -32 + ^
STACK CFI 1c484 .cfa: sp 32 +
STACK CFI 1c48c .cfa: sp 0 +
STACK CFI 1c490 .cfa: x29 32 +
STACK CFI 1c4a4 .cfa: sp 32 +
STACK CFI 1c4ac .cfa: sp 0 +
STACK CFI INIT 1c4b0 64 .cfa: sp 0 +
STACK CFI 1c4b4 .cfa: sp 32 +
STACK CFI 1c4bc .cfa: x29 32 + x19: .cfa -16 + ^ .ra: .cfa -24 + ^ x29: .cfa -32 + ^
STACK CFI 1c4e8 .cfa: sp 32 +
STACK CFI 1c4f0 .cfa: sp 0 +
STACK CFI 1c4f4 .cfa: x29 32 +
STACK CFI 1c508 .cfa: sp 32 +
STACK CFI 1c510 .cfa: sp 0 +
STACK CFI INIT 1cc18 1b0 .cfa: sp 0 +
STACK CFI INIT 1cdc8 3c .cfa: sp 0 +
STACK CFI 1cdcc .cfa: sp 32 +
STACK CFI 1cdd4 .cfa: x29 32 + x19: .cfa -16 + ^ .ra: .cfa -24 + ^ x29: .cfa -32 + ^
STACK CFI 1cde0 .cfa: sp 32 +
STACK CFI 1cde8 .cfa: sp 0 +
STACK CFI 1cdec .cfa: x29 32 +
STACK CFI 1cdf8 .cfa: sp 32 +
STACK CFI 1ce00 .cfa: sp 0 +
STACK CFI INIT 1ce04 4c .cfa: sp 0 +
STACK CFI 1ce08 .cfa: sp 32 +
STACK CFI 1ce10 .cfa: x29 32 + x19: .cfa -8 + ^ x20: .cfa -16 + ^ .ra: .cfa -24 + ^ x29: .cfa -32 + ^
STACK CFI 1ce38 .cfa: sp 32 +
STACK CFI 1ce40 .cfa: sp 0 +
STACK CFI 1ce44 .cfa: sp 32 +
STACK CFI 1ce4c .cfa: sp 0 +
STACK CFI INIT 1d070 64 .cfa: sp 0 +
STACK CFI 1d074 .cfa: sp 32 +
STACK CFI 1d07c .cfa: x29 32 + x19: .cfa -16 + ^ .ra: .cfa -24 + ^ x29: .cfa -32 + ^
STACK CFI 1d0a8 .cfa: sp 32 +
STACK CFI 1d0b0 .cfa: sp 0 +
STACK CFI 1d0b4 .cfa: x29 32 +
STACK CFI 1d0c8 .cfa: sp 32 +
STACK CFI 1d0d0 .cfa: sp 0 +
STACK CFI INIT 1d0d4 24 .cfa: sp 0 +
STACK CFI 1d0d8 .cfa: sp 32 +
STACK CFI 1d0e0 .cfa: x29 32 + x19: .cfa -16 + ^ .ra: .cfa -24 + ^ x29: .cfa -32 + ^
STACK CFI 1d0ec .cfa: sp 32 +
STACK CFI 1d0f4 .cfa: sp 0 +
STACK CFI INIT 1d0f8 24 .cfa: sp 0 +
STACK CFI 1d0fc .cfa: sp 32 +
STACK CFI 1d104 .cfa: x29 32 + x19: .cfa -16 + ^ .ra: .cfa -24 + ^ x29: .cfa -32 + ^
STACK CFI 1d110 .cfa: sp 32 +
STACK CFI 1d118 .cfa: sp 0 +
STACK CFI INIT 1d11c 8 .cfa: sp 0 +
STACK CFI INIT 1d124 24 .cfa: sp 0 +
STACK CFI 1d128 .cfa: sp 32 +
STACK CFI 1d130 .cfa: x29 32 + x19: .cfa -16 + ^ .ra: .cfa -24 + ^ x29: .cfa -32 + ^
STACK CFI 1d13c .cfa: sp 32 +
STACK CFI 1d144 .cfa: sp 0 +
STACK CFI INIT 1d148 28 .cfa: sp 0 +
STACK CFI 1d14c .cfa: sp 32 +
STACK CFI 1d154 .cfa: x29 32 + x19: .cfa -16 + ^ .ra: .cfa -24 + ^ x29: .cfa -32 + ^
STACK CFI 1d164 .cfa: sp 32 +
STACK CFI 1d16c .cfa: sp 0 +
STACK CFI INIT 1d448 8 .cfa: sp 0 +
STACK CFI INIT 1d450 24 .cfa: sp 0 +
STACK CFI 1d454 .cfa: sp 32 +
STACK CFI 1d45c .cfa: x29 32 + x19: .cfa -16 + ^ .ra: .cfa -24 + ^ x29: .cfa -32 + ^
STACK CFI 1d468 .cfa: sp 32 +
STACK CFI 1d470 .cfa: sp 0 +
STACK CFI INIT 1d474 28 .cfa: sp 0 +
STACK CFI 1d478 .cfa: sp 32 +
STACK CFI 1d480 .cfa: x29 32 + x19: .cfa -16 + ^ .ra: .cfa -24 + ^ x29: .cfa -32 + ^
STACK CFI 1d490 .cfa: sp 32 +
STACK CFI 1d498 .cfa: sp 0 +
STACK CFI INIT 1d6ec 8 .cfa: sp 0 +
STACK CFI INIT 1d6f4 24 .cfa: sp 0 +
STACK CFI 1d6f8 .cfa: sp 32 +
STACK CFI 1d700 .cfa: x29 32 + x19: .cfa -16 + ^ .ra: .cfa -24 + ^ x29: .cfa -32 + ^
STACK CFI 1d70c .cfa: sp 32 +
STACK CFI 1d714 .cfa: sp 0 +
STACK CFI INIT 1d718 28 .cfa: sp 0 +
STACK CFI 1d71c .cfa: sp 32 +
STACK CFI 1d724 .cfa: x29 32 + x19: .cfa -16 + ^ .ra: .cfa -24 + ^ x29: .cfa -32 + ^
STACK CFI 1d734 .cfa: sp 32 +
STACK CFI 1d73c .cfa: sp 0 +
STACK CFI INIT 1d740 8 .cfa: sp 0 +
STACK CFI INIT 1d748 24 .cfa: sp 0 +
STACK CFI 1d74c .cfa: sp 32 +
STACK CFI 1d754 .cfa: x29 32 + x19: .cfa -16 + ^ .ra: .cfa -24 + ^ x29: .cfa -32 + ^
STACK CFI 1d760 .cfa: sp 32 +
STACK CFI 1d768 .cfa: sp 0 +
STACK CFI INIT 1d76c 28 .cfa: sp 0 +
STACK CFI 1d770 .cfa: sp 32 +
STACK CFI 1d778 .cfa: x29 32 + x19: .cfa -16 + ^ .ra: .cfa -24 + ^ x29: .cfa -32 + ^
STACK CFI 1d788 .cfa: sp 32 +
STACK CFI 1d790 .cfa: sp 0 +
STACK CFI INIT 1dab8 4 .cfa: sp 0 +
STACK CFI INIT 1ecfc 4 .cfa: sp 0 +
STACK CFI INIT 1ed00 14 .cfa: sp 0 +
STACK CFI INIT 17be0 1c0 .cfa: sp 0 +
STACK CFI 17be4 .cfa: sp 80 +
STACK CFI 17bf4 .cfa: x29 48 + x19: .cfa -8 + ^ x20: .cfa -16 + ^ x21: .cfa -32 + ^ .ra: .cfa -40 + ^ x29: .cfa -48 + ^
STACK CFI 17d60 .cfa: sp 80 +
STACK CFI 17d70 .cfa: sp 0 +
STACK CFI 17d74 .cfa: x29 48 +
STACK CFI INIT 17da0 6c .cfa: sp 0 +
STACK CFI 17da4 .cfa: sp 32 +
STACK CFI 17dac .cfa: x29 32 + x19: .cfa -16 + ^ .ra: .cfa -24 + ^ x29: .cfa -32 + ^
STACK CFI 17dfc .cfa: sp 32 +
STACK CFI 17e04 .cfa: sp 0 +
STACK CFI 17e08 .cfa: x29 32 +
STACK CFI INIT 17e0c 390 .cfa: sp 0 +
STACK CFI 17e10 .cfa: sp 208 +
STACK CFI 17e2c .cfa: x29 96 + x19: .cfa -8 + ^ x20: .cfa -16 + ^ x21: .cfa -24 + ^ x22: .cfa -32 + ^ x23: .cfa -40 + ^ x24: .cfa -48 + ^ x25: .cfa -56 + ^ x26: .cfa -64 + ^ x27: .cfa -72 + ^ x28: .cfa -80 + ^ .ra: .cfa -88 + ^ x29: .cfa -96 + ^
STACK CFI 18054 .cfa: sp 208 +
STACK CFI 18070 .cfa: sp 0 +
STACK CFI 18074 .cfa: x29 96 +
STACK CFI INIT 1819c 49c .cfa: sp 0 +
STACK CFI 181a0 .cfa: sp 224 +
STACK CFI 181bc .cfa: x29 80 + x19: .cfa -8 + ^ x20: .cfa -16 + ^ x21: .cfa -24 + ^ x22: .cfa -32 + ^ x23: .cfa -40 + ^ x24: .cfa -48 + ^ x25: .cfa -56 + ^ x26: .cfa -64 + ^ .ra: .cfa -72 + ^ x29: .cfa -80 + ^ v8: .cfa -96 + ^
STACK CFI 18544 .cfa: sp 224 +
STACK CFI 18560 .cfa: sp 0 +
STACK CFI 18564 .cfa: x29 80 +
STACK CFI INIT 18638 180 .cfa: sp 0 +
STACK CFI 1863c .cfa: sp 96 +
STACK CFI 18650 .cfa: x29 64 + x19: .cfa -8 + ^ x20: .cfa -16 + ^ x21: .cfa -24 + ^ x22: .cfa -32 + ^ x23: .cfa -40 + ^ x24: .cfa -48 + ^ .ra: .cfa -56 + ^ x29: .cfa -64 + ^
STACK CFI 18758 .cfa: sp 96 +
STACK CFI 1876c .cfa: sp 0 +
STACK CFI 18770 .cfa: x29 64 +
STACK CFI INIT 187b8 b84 .cfa: sp 0 +
STACK CFI 187bc .cfa: sp 160 +
STACK CFI 187dc .cfa: x29 88 + x19: .cfa -8 + ^ x20: .cfa -16 + ^ x21: .cfa -24 + ^ x22: .cfa -32 + ^ x23: .cfa -40 + ^ x24: .cfa -48 + ^ x25: .cfa -56 + ^ x26: .cfa -64 + ^ x27: .cfa -72 + ^ .ra: .cfa -80 + ^ x29: .cfa -88 + ^ v8: .cfa -96 + ^
STACK CFI 19160 .cfa: sp 160 +
STACK CFI 19180 .cfa: sp 0 +
STACK CFI 19184 .cfa: x29 88 +
STACK CFI INIT 1933c 134 .cfa: sp 0 +
STACK CFI 19340 .cfa: sp 80 +
STACK CFI 19350 .cfa: x29 48 + x19: .cfa -8 + ^ x20: .cfa -16 + ^ x21: .cfa -24 + ^ x22: .cfa -32 + ^ .ra: .cfa -40 + ^ x29: .cfa -48 + ^
STACK CFI 19454 .cfa: sp 80 +
STACK CFI 19464 .cfa: sp 0 +
STACK CFI 19468 .cfa: x29 48 +
STACK CFI INIT 19910 134 .cfa: sp 0 +
STACK CFI 19914 .cfa: sp 80 +
STACK CFI 19920 .cfa: x29 32 + x19: .cfa -8 + ^ x20: .cfa -16 + ^ .ra: .cfa -24 + ^ x29: .cfa -32 + ^
STACK CFI 199e4 .cfa: sp 80 +
STACK CFI 199f0 .cfa: sp 0 +
STACK CFI 199f4 .cfa: x29 32 +
STACK CFI INIT 19a44 148 .cfa: sp 0 +
STACK CFI 19a48 .cfa: sp 96 +
STACK CFI 19a58 .cfa: x29 48 + x19: .cfa -8 + ^ x20: .cfa -16 + ^ x21: .cfa -32 + ^ .ra: .cfa -40 + ^ x29: .cfa -48 + ^
STACK CFI 19b40 .cfa: sp 96 +
STACK CFI 19b50 .cfa: sp 0 +
STACK CFI 19b54 .cfa: x29 48 +
STACK CFI INIT 19b94 74 .cfa: sp 0 +
STACK CFI 19b98 .cfa: sp 32 +
STACK CFI 19ba0 .cfa: x29 32 + x19: .cfa -16 + ^ .ra: .cfa -24 + ^ x29: .cfa -32 + ^
STACK CFI 19bf8 .cfa: sp 32 +
STACK CFI 19c00 .cfa: sp 0 +
STACK CFI 19c04 .cfa: x29 32 +
STACK CFI INIT 19c68 6c .cfa: sp 0 +
STACK CFI 19c6c .cfa: sp 32 +
STACK CFI 19c74 .cfa: x29 32 + x19: .cfa -16 + ^ .ra: .cfa -24 + ^ x29: .cfa -32 + ^
STACK CFI 19cc4 .cfa: sp 32 +
STACK CFI 19ccc .cfa: sp 0 +
STACK CFI 19cd0 .cfa: x29 32 +
STACK CFI INIT 19cd4 74 .cfa: sp 0 +
STACK CFI 19cd8 .cfa: sp 32 +
STACK CFI 19ce0 .cfa: x29 32 + x19: .cfa -16 + ^ .ra: .cfa -24 + ^ x29: .cfa -32 + ^
STACK CFI 19d38 .cfa: sp 32 +
STACK CFI 19d40 .cfa: sp 0 +
STACK CFI 19d44 .cfa: x29 32 +
STACK CFI INIT 19d94 6c .cfa: sp 0 +
STACK CFI 19d98 .cfa: sp 32 +
STACK CFI 19da0 .cfa: x29 32 + x19: .cfa -16 + ^ .ra: .cfa -24 + ^ x29: .cfa -32 + ^
STACK CFI 19df0 .cfa: sp 32 +
STACK CFI 19df8 .cfa: sp 0 +
STACK CFI 19dfc .cfa: x29 32 +
STACK CFI INIT 19e28 50 .cfa: sp 0 +
STACK CFI 19e2c .cfa: sp 32 +
STACK CFI 19e34 .cfa: x29 32 + x19: .cfa -8 + ^ x20: .cfa -16 + ^ .ra: .cfa -24 + ^ x29: .cfa -32 + ^
STACK CFI INIT 19eb4 50 .cfa: sp 0 +
STACK CFI 19eb8 .cfa: sp 32 +
STACK CFI 19ec0 .cfa: x29 32 + x19: .cfa -8 + ^ x20: .cfa -16 + ^ .ra: .cfa -24 + ^ x29: .cfa -32 + ^
STACK CFI INIT 1a464 bd4 .cfa: sp 0 +
STACK CFI 1a468 .cfa: sp 240 +
STACK CFI 1a484 .cfa: x29 96 + x19: .cfa -8 + ^ x20: .cfa -16 + ^ x21: .cfa -24 + ^ x22: .cfa -32 + ^ x23: .cfa -40 + ^ x24: .cfa -48 + ^ x25: .cfa -56 + ^ x26: .cfa -64 + ^ x27: .cfa -72 + ^ x28: .cfa -80 + ^ .ra: .cfa -88 + ^ x29: .cfa -96 + ^
STACK CFI 1a860 .cfa: sp 240 +
STACK CFI 1a87c .cfa: sp 0 +
STACK CFI 1a880 .cfa: x29 96 +
STACK CFI 1aee0 .cfa: sp 240 +
STACK CFI 1aefc .cfa: sp 0 +
STACK CFI 1af00 .cfa: x29 96 +
STACK CFI INIT 1b050 484 .cfa: sp 0 +
STACK CFI 1b054 .cfa: sp 304 +
STACK CFI 1b070 .cfa: x29 96 + x19: .cfa -8 + ^ x20: .cfa -16 + ^ x21: .cfa -24 + ^ x22: .cfa -32 + ^ x23: .cfa -40 + ^ x24: .cfa -48 + ^ x25: .cfa -56 + ^ x26: .cfa -64 + ^ x27: .cfa -72 + ^ x28: .cfa -80 + ^ .ra: .cfa -88 + ^ x29: .cfa -96 + ^
STACK CFI 1b394 .cfa: sp 304 +
STACK CFI 1b3b0 .cfa: sp 0 +
STACK CFI 1b3b4 .cfa: x29 96 +
STACK CFI INIT 1b524 74 .cfa: sp 0 +
STACK CFI 1b528 .cfa: sp 48 +
STACK CFI 1b534 .cfa: x29 32 + x19: .cfa -8 + ^ x20: .cfa -16 + ^ .ra: .cfa -24 + ^ x29: .cfa -32 + ^
STACK CFI 1b580 .cfa: sp 48 +
STACK CFI 1b58c .cfa: sp 0 +
STACK CFI 1b590 .cfa: x29 32 +
STACK CFI INIT 1b618 154 .cfa: sp 0 +
STACK CFI 1b61c .cfa: sp 384 +
STACK CFI 1b630 .cfa: x29 64 + x19: .cfa -8 + ^ x20: .cfa -16 + ^ x21: .cfa -24 + ^ x22: .cfa -32 + ^ x23: .cfa -40 + ^ x28: .cfa -48 + ^ .ra: .cfa -56 + ^ x29: .cfa -64 + ^
STACK CFI 1b714 .cfa: sp 384 +
STACK CFI 1b728 .cfa: sp 0 +
STACK CFI 1b72c .cfa: x29 64 +
STACK CFI INIT 1b7a0 12c .cfa: sp 0 +
STACK CFI 1b7a4 .cfa: sp 80 +
STACK CFI 1b7b8 .cfa: x29 80 + x19: .cfa -8 + ^ x20: .cfa -16 + ^ x21: .cfa -24 + ^ x22: .cfa -32 + ^ x23: .cfa -40 + ^ x24: .cfa -48 + ^ x25: .cfa -56 + ^ x26: .cfa -64 + ^ .ra: .cfa -72 + ^ x29: .cfa -80 + ^
STACK CFI 1b880 .cfa: sp 80 +
STACK CFI 1b894 .cfa: sp 0 +
STACK CFI 1b898 .cfa: x29 80 +
STACK CFI INIT 1b970 1a4 .cfa: sp 0 +
STACK CFI 1b974 .cfa: sp 112 +
STACK CFI 1b98c .cfa: x29 80 + x19: .cfa -8 + ^ x20: .cfa -16 + ^ x21: .cfa -24 + ^ x22: .cfa -32 + ^ x23: .cfa -40 + ^ x24: .cfa -48 + ^ x25: .cfa -56 + ^ x26: .cfa -64 + ^ .ra: .cfa -72 + ^ x29: .cfa -80 + ^
STACK CFI 1ba7c .cfa: sp 112 +
STACK CFI 1ba94 .cfa: sp 0 +
STACK CFI 1ba98 .cfa: x29 80 +
STACK CFI INIT 1bb14 1dc .cfa: sp 0 +
STACK CFI 1bb18 .cfa: sp 128 +
STACK CFI 1bb34 .cfa: x29 96 + x19: .cfa -8 + ^ x20: .cfa -16 + ^ x21: .cfa -24 + ^ x22: .cfa -32 + ^ x23: .cfa -40 + ^ x24: .cfa -48 + ^ x25: .cfa -56 + ^ x26: .cfa -64 + ^ x27: .cfa -80 + ^ .ra: .cfa -88 + ^ x29: .cfa -96 + ^
STACK CFI 1bca0 .cfa: sp 128 +
STACK CFI 1bcbc .cfa: sp 0 +
STACK CFI 1bcc0 .cfa: x29 96 +
STACK CFI INIT 1bd24 178 .cfa: sp 0 +
STACK CFI 1bd28 .cfa: sp 80 +
STACK CFI 1bd3c .cfa: x29 80 + x19: .cfa -8 + ^ x20: .cfa -16 + ^ x21: .cfa -24 + ^ x22: .cfa -32 + ^ x23: .cfa -40 + ^ x24: .cfa -48 + ^ x25: .cfa -64 + ^ .ra: .cfa -72 + ^ x29: .cfa -80 + ^
STACK CFI 1be68 .cfa: sp 80 +
STACK CFI 1be7c .cfa: sp 0 +
STACK CFI 1be80 .cfa: x29 80 +
STACK CFI INIT 1c17c 2e4 .cfa: sp 0 +
STACK CFI 1c180 .cfa: sp 96 +
STACK CFI 1c194 .cfa: x29 64 + x19: .cfa -8 + ^ x20: .cfa -16 + ^ x21: .cfa -24 + ^ x22: .cfa -32 + ^ x23: .cfa -48 + ^ .ra: .cfa -56 + ^ x29: .cfa -64 + ^
STACK CFI 1c414 .cfa: sp 96 +
STACK CFI 1c428 .cfa: sp 0 +
STACK CFI 1c42c .cfa: x29 64 +
STACK CFI INIT 1c514 628 .cfa: sp 0 +
STACK CFI 1c518 .cfa: sp 96 +
STACK CFI 1c52c .cfa: x29 64 + x19: .cfa -8 + ^ x20: .cfa -16 + ^ x21: .cfa -24 + ^ x22: .cfa -32 + ^ x23: .cfa -48 + ^ .ra: .cfa -56 + ^ x29: .cfa -64 + ^
STACK CFI 1c8f4 .cfa: sp 96 +
STACK CFI 1c908 .cfa: sp 0 +
STACK CFI 1c90c .cfa: x29 64 +
STACK CFI INIT 1cb3c dc .cfa: sp 0 +
STACK CFI 1cb40 .cfa: sp 64 +
STACK CFI 1cb4c .cfa: x29 32 + x19: .cfa -8 + ^ x20: .cfa -16 + ^ .ra: .cfa -24 + ^ x29: .cfa -32 + ^
STACK CFI 1cbd8 .cfa: sp 64 +
STACK CFI 1cbe4 .cfa: sp 0 +
STACK CFI 1cbe8 .cfa: x29 32 +
STACK CFI INIT 1ce50 134 .cfa: sp 0 +
STACK CFI 1ce54 .cfa: sp 80 +
STACK CFI 1ce60 .cfa: x29 32 + x19: .cfa -8 + ^ x20: .cfa -16 + ^ .ra: .cfa -24 + ^ x29: .cfa -32 + ^
STACK CFI 1ce90 .cfa: sp 80 +
STACK CFI 1ce9c .cfa: sp 0 +
STACK CFI 1cea0 .cfa: x29 32 +
STACK CFI INIT 1cf84 78 .cfa: sp 0 +
STACK CFI 1cf88 .cfa: sp 32 +
STACK CFI 1cf90 .cfa: x29 32 + x19: .cfa -8 + ^ x20: .cfa -16 + ^ .ra: .cfa -24 + ^ x29: .cfa -32 + ^
STACK CFI 1cf9c .cfa: sp 32 +
STACK CFI 1cfa4 .cfa: sp 0 +
STACK CFI 1cfa8 .cfa: x29 32 +
STACK CFI INIT 1cffc 74 .cfa: sp 0 +
STACK CFI 1d000 .cfa: sp 48 +
STACK CFI 1d00c .cfa: x29 32 + x19: .cfa -8 + ^ x20: .cfa -16 + ^ .ra: .cfa -24 + ^ x29: .cfa -32 + ^
STACK CFI 1d058 .cfa: sp 48 +
STACK CFI 1d064 .cfa: sp 0 +
STACK CFI 1d068 .cfa: x29 32 +
STACK CFI INIT 1d170 2d8 .cfa: sp 0 +
STACK CFI 1d174 .cfa: sp 128 +
STACK CFI 1d188 .cfa: x29 64 + x19: .cfa -8 + ^ x20: .cfa -16 + ^ x21: .cfa -24 + ^ x22: .cfa -32 + ^ x23: .cfa -48 + ^ .ra: .cfa -56 + ^ x29: .cfa -64 + ^
STACK CFI 1d2f4 .cfa: sp 128 +
STACK CFI 1d308 .cfa: sp 0 +
STACK CFI 1d30c .cfa: x29 64 +
STACK CFI INIT 1d49c 250 .cfa: sp 0 +
STACK CFI 1d4a0 .cfa: sp 112 +
STACK CFI 1d4b0 .cfa: x29 48 + x19: .cfa -8 + ^ x20: .cfa -16 + ^ x21: .cfa -32 + ^ .ra: .cfa -40 + ^ x29: .cfa -48 + ^
STACK CFI 1d594 .cfa: sp 112 +
STACK CFI 1d5a4 .cfa: sp 0 +
STACK CFI 1d5a8 .cfa: x29 48 +
STACK CFI INIT 1d794 1b8 .cfa: sp 0 +
STACK CFI 1d798 .cfa: sp 160 +
STACK CFI 1d7b4 .cfa: x29 72 + x19: .cfa -8 + ^ x20: .cfa -16 + ^ x21: .cfa -24 + ^ x22: .cfa -32 + ^ x23: .cfa -40 + ^ x24: .cfa -48 + ^ x25: .cfa -56 + ^ .ra: .cfa -64 + ^ x29: .cfa -72 + ^ v8: .cfa -80 + ^
STACK CFI 1d838 .cfa: sp 160 +
STACK CFI 1d854 .cfa: sp 0 +
STACK CFI 1d858 .cfa: x29 72 +
STACK CFI INIT 1d94c 16c .cfa: sp 0 +
STACK CFI 1d950 .cfa: sp 64 +
STACK CFI 1d960 .cfa: x29 48 + x19: .cfa -8 + ^ x20: .cfa -16 + ^ x21: .cfa -24 + ^ x22: .cfa -32 + ^ .ra: .cfa -40 + ^ x29: .cfa -48 + ^
STACK CFI 1da58 .cfa: sp 64 +
STACK CFI 1da68 .cfa: sp 0 +
STACK CFI 1da6c .cfa: x29 48 +
STACK CFI INIT 1dabc 2bc .cfa: sp 0 +
STACK CFI 1dac0 .cfa: sp 128 +
STACK CFI 1dad4 .cfa: x29 64 + x19: .cfa -8 + ^ x20: .cfa -16 + ^ x21: .cfa -24 + ^ x22: .cfa -32 + ^ x23: .cfa -48 + ^ .ra: .cfa -56 + ^ x29: .cfa -64 + ^
STACK CFI 1dc24 .cfa: sp 128 +
STACK CFI 1dc38 .cfa: sp 0 +
STACK CFI 1dc3c .cfa: x29 64 +
STACK CFI INIT 1dd78 2bc .cfa: sp 0 +
STACK CFI 1dd7c .cfa: sp 128 +
STACK CFI 1dd90 .cfa: x29 64 + x19: .cfa -8 + ^ x20: .cfa -16 + ^ x21: .cfa -24 + ^ x22: .cfa -32 + ^ x23: .cfa -48 + ^ .ra: .cfa -56 + ^ x29: .cfa -64 + ^
STACK CFI 1dee0 .cfa: sp 128 +
STACK CFI 1def4 .cfa: sp 0 +
STACK CFI 1def8 .cfa: x29 64 +
STACK CFI INIT 1e034 278 .cfa: sp 0 +
STACK CFI 1e038 .cfa: sp 128 +
STACK CFI 1e04c .cfa: x29 64 + x19: .cfa -8 + ^ x20: .cfa -16 + ^ x21: .cfa -24 + ^ x22: .cfa -32 + ^ x23: .cfa -48 + ^ .ra: .cfa -56 + ^ x29: .cfa -64 + ^
STACK CFI 1e158 .cfa: sp 128 +
STACK CFI 1e16c .cfa: sp 0 +
STACK CFI 1e170 .cfa: x29 64 +
STACK CFI INIT 1e2ac 2c8 .cfa: sp 0 +
STACK CFI 1e2b0 .cfa: sp 128 +
STACK CFI 1e2c4 .cfa: x29 64 + x19: .cfa -8 + ^ x20: .cfa -16 + ^ x21: .cfa -24 + ^ x22: .cfa -32 + ^ x23: .cfa -48 + ^ .ra: .cfa -56 + ^ x29: .cfa -64 + ^
STACK CFI 1e420 .cfa: sp 128 +
STACK CFI 1e434 .cfa: sp 0 +
STACK CFI 1e438 .cfa: x29 64 +
STACK CFI INIT 1e574 4cc .cfa: sp 0 +
STACK CFI 1e578 .cfa: sp 128 +
STACK CFI 1e58c .cfa: x29 64 + x19: .cfa -8 + ^ x20: .cfa -16 + ^ x21: .cfa -24 + ^ x22: .cfa -32 + ^ x23: .cfa -48 + ^ .ra: .cfa -56 + ^ x29: .cfa -64 + ^
STACK CFI 1e898 .cfa: sp 128 +
STACK CFI 1e8ac .cfa: sp 0 +
STACK CFI 1e8b0 .cfa: x29 64 +
STACK CFI INIT 1ea40 154 .cfa: sp 0 +
STACK CFI 1ea44 .cfa: sp 384 +
STACK CFI 1ea58 .cfa: x29 64 + x19: .cfa -8 + ^ x20: .cfa -16 + ^ x21: .cfa -24 + ^ x22: .cfa -32 + ^ x23: .cfa -40 + ^ x28: .cfa -48 + ^ .ra: .cfa -56 + ^ x29: .cfa -64 + ^
STACK CFI 1eb3c .cfa: sp 384 +
STACK CFI 1eb50 .cfa: sp 0 +
STACK CFI 1eb54 .cfa: x29 64 +
STACK CFI INIT 1eb94 168 .cfa: sp 0 +
STACK CFI 1eb98 .cfa: sp 384 +
STACK CFI 1ebac .cfa: x29 64 + x19: .cfa -8 + ^ x20: .cfa -16 + ^ x21: .cfa -24 + ^ x22: .cfa -32 + ^ x23: .cfa -40 + ^ x28: .cfa -48 + ^ .ra: .cfa -56 + ^ x29: .cfa -64 + ^
STACK CFI 1eca4 .cfa: sp 384 +
STACK CFI 1ecb8 .cfa: sp 0 +
STACK CFI 1ecbc .cfa: x29 64 +
STACK CFI INIT 1ed14 4e0 .cfa: sp 0 +
STACK CFI 1ed18 .cfa: sp 64 +
STACK CFI 1ed28 .cfa: x29 64 + x19: .cfa -8 + ^ x20: .cfa -16 + ^ x21: .cfa -24 + ^ x22: .cfa -32 + ^ x23: .cfa -40 + ^ x24: .cfa -48 + ^ .ra: .cfa -56 + ^ x29: .cfa -64 + ^
STACK CFI 1f1c8 .cfa: sp 64 +
STACK CFI 1f1d8 .cfa: sp 0 +
STACK CFI 1f1dc .cfa: x29 64 +
