MODULE Linux arm64 F60D10583D77C3A537C58F5499E9BEF60 dogotrigger.level_history.android64.so
INFO CODE_ID 58100DF6773DA5C337C58F5499E9BEF624405DA3
INFO GENERATOR mozilla/dump_syms 2.3.4
PUBLIC 26980 0 __on_dlclose
PUBLIC 26990 0 __emutls_unregister_key
PUBLIC 26998 0 __on_dlclose_late
PUBLIC 269a0 0 __atexit_handler_wrapper
PUBLIC 269b4 0 atexit
PUBLIC 269d0 0 pthread_atfork
PUBLIC 269e0 0 unwind_phase2
PUBLIC 26b14 0 _Unwind_Resume
PUBLIC 26b98 0 unwind_phase2_forced
PUBLIC m 26c8c 0 __unw_init_local
PUBLIC m 26d34 0 __unw_get_reg
PUBLIC 26db0 0 __unw_step_stage2
PUBLIC m 26dc4 0 __unw_get_proc_info
PUBLIC m 26e04 0 __unw_resume
PUBLIC 26e2c 0 libunwind::CFI_Parser<libunwind::LocalAddressSpace>::decodeFDE(libunwind::LocalAddressSpace&, unsigned long, libunwind::CFI_Parser<libunwind::LocalAddressSpace>::FDE_Info*, libunwind::CFI_Parser<libunwind::LocalAddressSpace>::CIE_Info*, bool)
PUBLIC 26fbc 0 libunwind::CFI_Parser<libunwind::LocalAddressSpace>::parseCIE(libunwind::LocalAddressSpace&, unsigned long, libunwind::CFI_Parser<libunwind::LocalAddressSpace>::CIE_Info*)
PUBLIC 27284 0 libunwind::AbstractUnwindCursor::~AbstractUnwindCursor()
PUBLIC 2728c 0 libunwind::UnwindCursor<libunwind::LocalAddressSpace, libunwind::Registers_arm64>::~UnwindCursor()
PUBLIC 27294 0 libunwind::UnwindCursor<libunwind::LocalAddressSpace, libunwind::Registers_arm64>::validReg(int)
PUBLIC 272d8 0 libunwind::UnwindCursor<libunwind::LocalAddressSpace, libunwind::Registers_arm64>::getReg(int)
PUBLIC 273c0 0 libunwind::UnwindCursor<libunwind::LocalAddressSpace, libunwind::Registers_arm64>::setReg(int, unsigned long)
PUBLIC 274a8 0 libunwind::UnwindCursor<libunwind::LocalAddressSpace, libunwind::Registers_arm64>::validFloatReg(int)
PUBLIC 274bc 0 libunwind::UnwindCursor<libunwind::LocalAddressSpace, libunwind::Registers_arm64>::getFloatReg(int)
PUBLIC 274cc 0 libunwind::UnwindCursor<libunwind::LocalAddressSpace, libunwind::Registers_arm64>::setFloatReg(int, double)
PUBLIC 274dc 0 libunwind::UnwindCursor<libunwind::LocalAddressSpace, libunwind::Registers_arm64>::step(bool)
PUBLIC 275cc 0 libunwind::UnwindCursor<libunwind::LocalAddressSpace, libunwind::Registers_arm64>::getInfo(unw_proc_info_t*)
PUBLIC 27610 0 libunwind::UnwindCursor<libunwind::LocalAddressSpace, libunwind::Registers_arm64>::jumpto()
PUBLIC 2761c 0 libunwind::UnwindCursor<libunwind::LocalAddressSpace, libunwind::Registers_arm64>::isSignalFrame()
PUBLIC 27628 0 libunwind::UnwindCursor<libunwind::LocalAddressSpace, libunwind::Registers_arm64>::getFunctionName(char*, unsigned long, unsigned long*)
PUBLIC 27654 0 libunwind::UnwindCursor<libunwind::LocalAddressSpace, libunwind::Registers_arm64>::setInfoBasedOnIPRegister(bool)
PUBLIC 278d4 0 libunwind::UnwindCursor<libunwind::LocalAddressSpace, libunwind::Registers_arm64>::getRegisterName(int)
PUBLIC 278e0 0 libunwind::UnwindCursor<libunwind::LocalAddressSpace, libunwind::Registers_arm64>::stepThroughSigReturn(libunwind::Registers_arm64&)
PUBLIC 27a00 0 libunwind::DwarfInstructions<libunwind::LocalAddressSpace, libunwind::Registers_arm64>::stepWithDwarf(libunwind::LocalAddressSpace&, unsigned long, unsigned long, libunwind::Registers_arm64&, bool&, bool)
PUBLIC 27e88 0 libunwind::CFI_Parser<libunwind::LocalAddressSpace>::parseFDEInstructions(libunwind::LocalAddressSpace&, libunwind::CFI_Parser<libunwind::LocalAddressSpace>::FDE_Info const&, libunwind::CFI_Parser<libunwind::LocalAddressSpace>::CIE_Info const&, unsigned long, int, libunwind::CFI_Parser<libunwind::LocalAddressSpace>::PrologInfo*)
PUBLIC 28ad0 0 libunwind::DwarfInstructions<libunwind::LocalAddressSpace, libunwind::Registers_arm64>::getCFA(libunwind::LocalAddressSpace&, libunwind::CFI_Parser<libunwind::LocalAddressSpace>::PrologInfo const&, libunwind::Registers_arm64 const&)
PUBLIC 28c04 0 libunwind::DwarfInstructions<libunwind::LocalAddressSpace, libunwind::Registers_arm64>::getSavedRegister(libunwind::LocalAddressSpace&, libunwind::Registers_arm64 const&, unsigned long, libunwind::CFI_Parser<libunwind::LocalAddressSpace>::RegisterLocation const&)
PUBLIC 28e14 0 libunwind::LocalAddressSpace::getEncodedP(unsigned long&, unsigned long, unsigned char, unsigned long)
PUBLIC 291a0 0 libunwind::LocalAddressSpace::getULEB128(unsigned long&, unsigned long)
PUBLIC 29368 0 libunwind::DwarfInstructions<libunwind::LocalAddressSpace, libunwind::Registers_arm64>::evaluateExpression(unsigned long, libunwind::LocalAddressSpace&, libunwind::Registers_arm64 const&, unsigned long)
PUBLIC 29d24 0 libunwind::UnwindCursor<libunwind::LocalAddressSpace, libunwind::Registers_arm64>::getInfoFromDwarfSection(unsigned long, libunwind::UnwindInfoSections const&, unsigned int)
PUBLIC 29ff8 0 libunwind::findUnwindSectionsByPhdr(dl_phdr_info*, unsigned long, void*)
PUBLIC 2a12c 0 libunwind::EHHeaderParser<libunwind::LocalAddressSpace>::decodeEHHdr(libunwind::LocalAddressSpace&, unsigned long, unsigned long, libunwind::EHHeaderParser<libunwind::LocalAddressSpace>::EHHeaderInfo&)
PUBLIC 2a24c 0 libunwind::CFI_Parser<libunwind::LocalAddressSpace>::findFDE(libunwind::LocalAddressSpace&, unsigned long, unsigned long, unsigned long, unsigned long, libunwind::CFI_Parser<libunwind::LocalAddressSpace>::FDE_Info*, libunwind::CFI_Parser<libunwind::LocalAddressSpace>::CIE_Info*)
PUBLIC 2a414 0 libunwind::EHHeaderParser<libunwind::LocalAddressSpace>::findFDE(libunwind::LocalAddressSpace&, unsigned long, unsigned long, unsigned int, libunwind::CFI_Parser<libunwind::LocalAddressSpace>::FDE_Info*, libunwind::CFI_Parser<libunwind::LocalAddressSpace>::CIE_Info*)
PUBLIC 2a57c 0 libunwind::EHHeaderParser<libunwind::LocalAddressSpace>::getTableEntrySize(unsigned char)
PUBLIC 2a678 0 libunwind::Registers_arm64::getRegisterName(int)
PUBLIC 2a6a8 0 __libunwind_Registers_arm64_jumpto
PUBLIC m 2a738 0 __unw_getcontext
PUBLIC 2a7e0 0 __aarch64_ldadd8_acq_rel
PUBLIC 2a810 0 init_have_lse_atomics
PUBLIC 2a8a8 0 __init_cpu_features_constructor
PUBLIC 2ae44 0 __init_cpu_features
PUBLIC 2aed0 0 __aarch64_ldadd8_relax
FUNC 2af00 98 0 std::__ndk1::vector<std::__ndk1::shared_ptr<LevelProvider>, std::__ndk1::allocator<std::__ndk1::shared_ptr<LevelProvider> > >::~vector[abi:ne180000]()
FUNC 2af98 7a4 0 __cxx_global_var_init.2
FUNC 2b73c 18 0 geode::modifier::ModifyBase<geode::modifier::ModifyDerive<LHLevelSearchLayer, LevelSearchLayer> >::~ModifyBase()
PUBLIC 2b754 0 __clang_call_terminate
FUNC 2b764 50 0 std::__ndk1::shared_ptr<LevelProvider>::~shared_ptr[abi:ne180000]()
FUNC 2b7b4 458 0 geode::modifier::ModifyDerive<LHLevelSearchLayer, LevelSearchLayer>::apply()
FUNC 2bc0c 50 0 std::__ndk1::shared_ptr<geode::Hook>::~shared_ptr[abi:ne180000]()
FUNC 2bc5c 74 0 geode::impl::ResultData<geode::Hook*, std::__ndk1::basic_string<char, std::__ndk1::char_traits<char>, std::__ndk1::allocator<char> > >::~ResultData()
FUNC 2bcd0 7c 0 std::__ndk1::vector<std::__ndk1::basic_string<char, std::__ndk1::char_traits<char>, std::__ndk1::allocator<char> >, std::__ndk1::allocator<std::__ndk1::basic_string<char, std::__ndk1::char_traits<char>, std::__ndk1::allocator<char> > > >::~vector[abi:ne180000]()
FUNC 2bd4c 4 0 geode::modifier::ModifyBase<geode::modifier::ModifyDerive<LHLevelSearchLayer, LevelSearchLayer> >::apply()
FUNC 2bd50 154 0 _ZN5geode15UnwrapExceptionC2IRPNS_4HookEQsr4implE18IsStringStreamableIT_EEENS_4impl5OkTagEOS5_
FUNC 2bea4 34 0 std::__ndk1::__throw_bad_variant_access[abi:ne180000]()
FUNC 2bed8 124 0 std::__ndk1::basic_stringstream<char, std::__ndk1::char_traits<char>, std::__ndk1::allocator<char> >::basic_stringstream[abi:ne180000]()
FUNC 2bffc 80 0 std::__ndk1::basic_stringstream<char, std::__ndk1::char_traits<char>, std::__ndk1::allocator<char> >::~basic_stringstream()
FUNC 2c07c 24 0 geode::UnwrapException::~UnwrapException()
FUNC 2c0a0 198 0 std::__ndk1::__put_character_sequence[abi:ne180000]<char, std::__ndk1::char_traits<char> >(std::__ndk1::basic_ostream<char, std::__ndk1::char_traits<char> >, std::__ndk1::basic_ostream const*, unsigned long)
FUNC 2c238 1b4 0 std::__ndk1::__pad_and_output[abi:ne180000]<char, std::__ndk1::char_traits<char> >(std::__ndk1::char_traits<char>, std::__ndk1::ostreambuf_iterator const*, std::__ndk1::ostreambuf_iterator const, std::__ndk1::ostreambuf_iterator const, std::__ndk1::ios_base&, std::__ndk1::ostreambuf_iterator)
FUNC 2c3ec 14 0 std::__ndk1::basic_string<char, std::__ndk1::char_traits<char>, std::__ndk1::allocator<char> >::__throw_length_error[abi:ne180000]() const
FUNC 2c400 50 0 std::__ndk1::__throw_length_error[abi:ne180000](char const*)
FUNC 2c450 30 0 std::length_error::length_error[abi:ne180000](char const*)
FUNC 2c480 34 0 std::__throw_bad_array_new_length([abi:ne180000], void)
FUNC 2c4b4 15c 0 std::__ndk1::basic_stringbuf<char, std::__ndk1::char_traits<char>, std::__ndk1::allocator<char> >::str[abi:ne180000]() &&
FUNC 2c610 148 0 std::__ndk1::basic_stringbuf<char, std::__ndk1::char_traits<char>, std::__ndk1::allocator<char> >::__init_buf_ptrs[abi:ne180000]()
FUNC 2c758 70 0 std::__ndk1::basic_string<char, std::__ndk1::char_traits<char>, std::__ndk1::allocator<char> >::__init_copy_ctor_external(char const*, unsigned long)
FUNC 2c7c8 68 0 std::__ndk1::__split_buffer<std::__ndk1::basic_string<char, std::__ndk1::char_traits<char>, std::__ndk1::allocator<char> >, std::__ndk1::allocator<std::__ndk1::basic_string<char, std::__ndk1::char_traits<char>, std::__ndk1::allocator<char> > >&>::~__split_buffer()
FUNC 2c830 14 0 std::__ndk1::vector<std::__ndk1::basic_string<char, std::__ndk1::char_traits<char>, std::__ndk1::allocator<char> >, std::__ndk1::allocator<std::__ndk1::basic_string<char, std::__ndk1::char_traits<char>, std::__ndk1::allocator<char> > > >::__throw_length_error[abi:ne180000]() const
FUNC 2c844 4 0 std::__ndk1::__variant_detail::__visitation::__base::__dispatcher<(unsigned long)0>::__dispatch[abi:ne180000]<std::__ndk1::__variant_detail::__dtor<std::__ndk1::__variant_detail::__traits<geode::Hook*, std::__ndk1::basic_string<char, std::__ndk1::char_traits<char>, std::__ndk1::allocator<char> > >, (std::__ndk1::__variant_detail::_Trait)1>::__destroy[abi:ne180000]()::{lambda(auto:1&)#1}, std::__ndk1::__variant_detail::__base<(std::__ndk1::__variant_detail::__traits<geode::Hook*, std::__ndk1::basic_string<char, std::__ndk1::char_traits<char>, std::__ndk1::allocator<char> > >)1, geode::Hook, std::__ndk1::allocator<char> >&>(std::__ndk1::__variant_detail::__dtor<std::__ndk1::__variant_detail::__traits<geode::Hook*, std::__ndk1::basic_string<char, std::__ndk1::char_traits<char>, std::__ndk1::allocator<char> > >, (std::__ndk1::__variant_detail::_Trait)1>, std::__ndk1::__variant_detail::__base<(std::__ndk1::__variant_detail::__traits<geode::Hook*, std::__ndk1::basic_string<char, std::__ndk1::char_traits<char>, std::__ndk1::allocator<char> > >)1, geode::Hook, std::__ndk1::allocator<char> >&)
FUNC 2c848 14 0 std::__ndk1::__variant_detail::__visitation::__base::__dispatcher<(unsigned long)1>::__dispatch[abi:ne180000]<std::__ndk1::__variant_detail::__dtor<std::__ndk1::__variant_detail::__traits<geode::Hook*, std::__ndk1::basic_string<char, std::__ndk1::char_traits<char>, std::__ndk1::allocator<char> > >, (std::__ndk1::__variant_detail::_Trait)1>::__destroy[abi:ne180000]()::{lambda(auto:1&)#1}, std::__ndk1::__variant_detail::__base<(std::__ndk1::__variant_detail::__traits<geode::Hook*, std::__ndk1::basic_string<char, std::__ndk1::char_traits<char>, std::__ndk1::allocator<char> > >)1, geode::Hook, std::__ndk1::allocator<char> >&>(std::__ndk1::__variant_detail::__dtor<std::__ndk1::__variant_detail::__traits<geode::Hook*, std::__ndk1::basic_string<char, std::__ndk1::char_traits<char>, std::__ndk1::allocator<char> > >, (std::__ndk1::__variant_detail::_Trait)1>, std::__ndk1::__variant_detail::__base<(std::__ndk1::__variant_detail::__traits<geode::Hook*, std::__ndk1::basic_string<char, std::__ndk1::char_traits<char>, std::__ndk1::allocator<char> > >)1, geode::Hook, std::__ndk1::allocator<char> >&)
FUNC 2c85c 388 0 std::__ndk1::__tree_remove[abi:ne180000]<std::__ndk1::__tree_node_base<void*>*>(std::__ndk1::__tree_node_base<void*>*, std::__ndk1::__tree_node_base<void*>*)
FUNC 2cbe4 84 0 std::__ndk1::__tree<std::__ndk1::__value_type<std::__ndk1::basic_string<char, std::__ndk1::char_traits<char>, std::__ndk1::allocator<char> >, std::__ndk1::shared_ptr<geode::Hook> >, std::__ndk1::__map_value_compare<std::__ndk1::basic_string<char, std::__ndk1::char_traits<char>, std::__ndk1::allocator<char> >, std::__ndk1::__value_type<std::__ndk1::basic_string<char, std::__ndk1::char_traits<char>, std::__ndk1::allocator<char> >, std::__ndk1::shared_ptr<geode::Hook> >, std::__ndk1::less<std::__ndk1::basic_string<char, std::__ndk1::char_traits<char>, std::__ndk1::allocator<char> > >, true>, std::__ndk1::allocator<std::__ndk1::__value_type<std::__ndk1::basic_string<char, std::__ndk1::char_traits<char>, std::__ndk1::allocator<char> >, std::__ndk1::shared_ptr<geode::Hook> > > >::destroy(std::__ndk1::__tree_node<std::__ndk1::__value_type<std::__ndk1::basic_string<char, std::__ndk1::char_traits<char>, std::__ndk1::allocator<char> >, std::__ndk1::shared_ptr<geode::Hook> >, void*>*)
FUNC 2cc68 1dc 0 geode::modifier::AsStaticFunction_init<LHLevelSearchLayer, bool (LHLevelSearchLayer::*)(int)>::Impl<bool (LHLevelSearchLayer::*)(int)>::function(LHLevelSearchLayer*, int)
FUNC 2ce44 50 0 std::__ndk1::shared_ptr<tulip::hook::CallingConvention>::~shared_ptr[abi:ne180000]()
FUNC 2ce94 64 0 tulip::hook::HandlerMetadata::~HandlerMetadata()
FUNC 2cef8 184 0 LHLevelSearchLayer::onMyButton(cocos2d::CCObject*)
FUNC 2d07c b4 0 std::__ndk1::__exception_guard_exceptions<std::__ndk1::vector<std::__ndk1::shared_ptr<LevelProvider>, std::__ndk1::allocator<std::__ndk1::shared_ptr<LevelProvider> > >::__destroy_vector>::~__exception_guard_exceptions[abi:ne180000]()
FUNC 2d130 14 0 std::__ndk1::vector<std::__ndk1::shared_ptr<LevelProvider>, std::__ndk1::allocator<std::__ndk1::shared_ptr<LevelProvider> > >::__throw_length_error[abi:ne180000]() const
FUNC 2d144 19c 0 std::__ndk1::__tree_balance_after_insert[abi:ne180000]<std::__ndk1::__tree_node_base<void*>*>(std::__ndk1::__tree_node_base<void*>*, std::__ndk1::__tree_node_base<void*>*)
FUNC 2d2e0 50 0 std::__ndk1::shared_ptr<GDHistoryProvider>::~shared_ptr[abi:ne180000]()
FUNC 2d330 10 0 std::__ndk1::__shared_ptr_emplace<GDHistoryProvider, std::__ndk1::allocator<GDHistoryProvider> >::~__shared_ptr_emplace()
FUNC 2d340 30 0 std::__ndk1::__shared_ptr_emplace<GDHistoryProvider, std::__ndk1::allocator<GDHistoryProvider> >::~__shared_ptr_emplace()
FUNC 2d370 40 0 std::__ndk1::__shared_ptr_emplace<GDHistoryProvider, std::__ndk1::allocator<GDHistoryProvider> >::__on_zero_shared()
FUNC 2d3b0 4 0 std::__ndk1::__shared_ptr_emplace<GDHistoryProvider, std::__ndk1::allocator<GDHistoryProvider> >::__on_zero_shared_weak()
FUNC 2d3b4 114 0 LevelProvider::~LevelProvider()
FUNC 2d4c8 14 0 std::__ndk1::__variant_detail::__visitation::__base::__dispatcher<(unsigned long)0>::__dispatch[abi:ne180000]<std::__ndk1::__variant_detail::__dtor<std::__ndk1::__variant_detail::__traits<std::__ndk1::basic_string<char, std::__ndk1::char_traits<char>, std::__ndk1::allocator<char> >, int>, (std::__ndk1::__variant_detail::_Trait)1>::__destroy[abi:ne180000]()::{lambda(auto:1&)#1}, std::__ndk1::__variant_detail::__base<(std::__ndk1::__variant_detail::__traits<std::__ndk1::basic_string<char, std::__ndk1::char_traits<char>, std::__ndk1::allocator<char> >, int>)1, std::__ndk1::allocator<char>, int>&>(std::__ndk1::__variant_detail::__dtor<std::__ndk1::__variant_detail::__traits<std::__ndk1::basic_string<char, std::__ndk1::char_traits<char>, std::__ndk1::allocator<char> >, int>, (std::__ndk1::__variant_detail::_Trait)1>, std::__ndk1::__variant_detail::__base<(std::__ndk1::__variant_detail::__traits<std::__ndk1::basic_string<char, std::__ndk1::char_traits<char>, std::__ndk1::allocator<char> >, int>)1, std::__ndk1::allocator<char>, int>&)
FUNC 2d4dc 4 0 std::__ndk1::__variant_detail::__visitation::__base::__dispatcher<(unsigned long)1>::__dispatch[abi:ne180000]<std::__ndk1::__variant_detail::__dtor<std::__ndk1::__variant_detail::__traits<std::__ndk1::basic_string<char, std::__ndk1::char_traits<char>, std::__ndk1::allocator<char> >, int>, (std::__ndk1::__variant_detail::_Trait)1>::__destroy[abi:ne180000]()::{lambda(auto:1&)#1}, std::__ndk1::__variant_detail::__base<(std::__ndk1::__variant_detail::__traits<std::__ndk1::basic_string<char, std::__ndk1::char_traits<char>, std::__ndk1::allocator<char> >, int>)1, std::__ndk1::allocator<char>, int>&>(std::__ndk1::__variant_detail::__dtor<std::__ndk1::__variant_detail::__traits<std::__ndk1::basic_string<char, std::__ndk1::char_traits<char>, std::__ndk1::allocator<char> >, int>, (std::__ndk1::__variant_detail::_Trait)1>, std::__ndk1::__variant_detail::__base<(std::__ndk1::__variant_detail::__traits<std::__ndk1::basic_string<char, std::__ndk1::char_traits<char>, std::__ndk1::allocator<char> >, int>)1, std::__ndk1::allocator<char>, int>&)
FUNC 2d4e0 c0 0 _ZNSt6__ndk112__destroy_atB8ne180000IN13LevelProvider6CachedETnNS_9enable_ifIXntsr8is_arrayIT_EE5valueEiE4typeELi0EEEvPS4_
FUNC 2d5a0 344 0 _GLOBAL__sub_I_main.cpp
FUNC 2d8e4 24 0 GDHistoryProvider::getName()
FUNC 2d908 8c 0 std::__ndk1::basic_string<char, std::__ndk1::char_traits<char>, std::__ndk1::allocator<char> >::basic_string[abi:ne180000]<0>()
FUNC 2d994 1150 0 GDHistoryProvider::downloadLevel(std::__ndk1::function<void (LevelProvider*, GJGameLevel*)>)
FUNC 2eae4 12c 0 std::__ndk1::unordered_map<LevelProvider::LPFeatures, std::__ndk1::variant<std::__ndk1::basic_string<char, std::__ndk1::char_traits<char>, std::__ndk1::allocator<char> >, int>, std::__ndk1::hash<LevelProvider::LPFeatures>, std::__ndk1::equal_to<LevelProvider::LPFeatures>, std::__ndk1::allocator<std::__ndk1::pair<LevelProvider::LPFeatures const, std::__ndk1::variant<std::__ndk1::basic_string<char, std::__ndk1::char_traits<char>, std::__ndk1::allocator<char> >, int> > > >::unordered_map(std::__ndk1::unordered_map<LevelProvider::LPFeatures, std::__ndk1::variant<std::__ndk1::basic_string<char, std::__ndk1::char_traits<char>, std::__ndk1::allocator<char> >, int>, std::__ndk1::hash<LevelProvider::LPFeatures>, std::__ndk1::equal_to<LevelProvider::LPFeatures>, std::__ndk1::allocator<std::__ndk1::pair<LevelProvider::LPFeatures const, std::__ndk1::variant<std::__ndk1::basic_string<char, std::__ndk1::char_traits<char>, std::__ndk1::allocator<char> >, int> > > > const&)
FUNC 2ec10 e0 0 GDHistoryProvider::downloadLevel(std::__ndk1::function<void (LevelProvider*, GJGameLevel*)>)::$_1::~$_1()
FUNC 2ecf0 e0 0 GDHistoryProvider::downloadLevel(std::__ndk1::function<void (LevelProvider*, GJGameLevel*)>)::$_3::~$_3()
FUNC 2edd0 128 0 GeodeNetwork::~GeodeNetwork()
FUNC 2eef8 b0 0 std::__ndk1::unordered_map<LevelProvider::LPFeatures, std::__ndk1::variant<std::__ndk1::basic_string<char, std::__ndk1::char_traits<char>, std::__ndk1::allocator<char> >, int>, std::__ndk1::hash<LevelProvider::LPFeatures>, std::__ndk1::equal_to<LevelProvider::LPFeatures>, std::__ndk1::allocator<std::__ndk1::pair<LevelProvider::LPFeatures const, std::__ndk1::variant<std::__ndk1::basic_string<char, std::__ndk1::char_traits<char>, std::__ndk1::allocator<char> >, int> > > >::~unordered_map[abi:ne180000]()
FUNC 2efa8 178 0 GDHistoryProvider::getFeatures()
FUNC 2f120 4c 0 std::__ndk1::unordered_map<LevelProvider::LPFeatures, bool, std::__ndk1::hash<LevelProvider::LPFeatures>, std::__ndk1::equal_to<LevelProvider::LPFeatures>, std::__ndk1::allocator<std::__ndk1::pair<LevelProvider::LPFeatures const, bool> > >::~unordered_map[abi:ne180000]()
FUNC 2f16c 88 0 GDHistoryProvider::askMultipleLevels()
FUNC 2f1f4 68 0 GDHistoryProvider::cleanupLevels(bool)
FUNC 2f25c c68 0 GDHistoryProvider::getLevelData(int, std::__ndk1::function<void (LevelProvider*, std::__ndk1::basic_string<char, std::__ndk1::char_traits<char>, std::__ndk1::allocator<char> >, LevelProvider::BasicLevelInformation)>)
FUNC 2fec4 64 0 GDHistoryProvider::getLevelData(int, std::__ndk1::function<void (LevelProvider*, std::__ndk1::basic_string<char, std::__ndk1::char_traits<char>, std::__ndk1::allocator<char> >, LevelProvider::BasicLevelInformation)>)::$_0::~$_0()
FUNC 2ff28 11b4 0 GDHistoryProvider::parseResult(std::__ndk1::basic_string<char, std::__ndk1::char_traits<char>, std::__ndk1::allocator<char> >&, std::__ndk1::function<void (LevelProvider*, std::__ndk1::basic_string<char, std::__ndk1::char_traits<char>, std::__ndk1::allocator<char> >, LevelProvider::BasicLevelInformation)>, GeodeNetwork*)
FUNC 310dc e0 0 GDHistoryProvider::getLevelData(int, std::__ndk1::function<void (LevelProvider*, std::__ndk1::basic_string<char, std::__ndk1::char_traits<char>, std::__ndk1::allocator<char> >, LevelProvider::BasicLevelInformation)>)::$_2::~$_2()
FUNC 311bc a10 0 GDHistoryProvider::getErrorCodeDescription(std::__ndk1::basic_string<char, std::__ndk1::char_traits<char>, std::__ndk1::allocator<char> >)
FUNC 31bcc 44 0 std::__ndk1::pair<std::__ndk1::basic_string<char, std::__ndk1::char_traits<char>, std::__ndk1::allocator<char> > const, std::__ndk1::basic_string<char, std::__ndk1::char_traits<char>, std::__ndk1::allocator<char> > >::~pair()
FUNC 31c10 80 0 std::__ndk1::unordered_map<std::__ndk1::basic_string<char, std::__ndk1::char_traits<char>, std::__ndk1::allocator<char> >, std::__ndk1::basic_string<char, std::__ndk1::char_traits<char>, std::__ndk1::allocator<char> >, std::__ndk1::hash<std::__ndk1::basic_string<char, std::__ndk1::char_traits<char>, std::__ndk1::allocator<char> > >, std::__ndk1::equal_to<std::__ndk1::basic_string<char, std::__ndk1::char_traits<char>, std::__ndk1::allocator<char> > >, std::__ndk1::allocator<std::__ndk1::pair<std::__ndk1::basic_string<char, std::__ndk1::char_traits<char>, std::__ndk1::allocator<char> > const, std::__ndk1::basic_string<char, std::__ndk1::char_traits<char>, std::__ndk1::allocator<char> > > > >::~unordered_map[abi:ne180000]()
FUNC 31c90 fc 0 GDHistoryProvider::getDescription()
FUNC 31d8c 1db0 0 GDHistoryProvider::parseResult(std::__ndk1::basic_string<char, std::__ndk1::char_traits<char>, std::__ndk1::allocator<char> >&, std::__ndk1::function<void (LevelProvider*, GJGameLevel*)>, GeodeNetwork*)
FUNC 33b3c a4c 0 nlohmann::json_abi_v3_11_3::basic_json<std::__ndk1::map, std::__ndk1::vector, std::__ndk1::basic_string<char, std::__ndk1::char_traits<char>, std::__ndk1::allocator<char> >, bool, long, unsigned long, double, std::__ndk1::allocator, nlohmann::json_abi_v3_11_3::adl_serializer, std::__ndk1::vector<unsigned char, std::__ndk1::allocator<unsigned char> >, void>::parse<std::__ndk1::basic_string<char, std::__ndk1::char_traits<char>, std::__ndk1::allocator<char> >&>(std::__ndk1::basic_string<char, std::__ndk1::char_traits<char>, std::__ndk1::allocator<char> >&, std::__ndk1::function<bool (int, nlohmann::json_abi_v3_11_3::detail::parse_event_t, nlohmann::json_abi_v3_11_3::basic_json<std::__ndk1::map, std::__ndk1::vector, std::__ndk1::basic_string<char, std::__ndk1::char_traits<char>, std::__ndk1::allocator<char> >, bool, long, unsigned long, double, std::__ndk1::allocator, nlohmann::json_abi_v3_11_3::adl_serializer, std::__ndk1::vector<unsigned char, std::__ndk1::allocator<unsigned char> >, void>&)>, bool, bool)
FUNC 34588 74 0 std::__ndk1::function<void (LevelProvider*, GJGameLevel*)>::operator()(LevelProvider*, GJGameLevel*) const
FUNC 345fc 1c0 0 _ZN8nlohmann16json_abi_v3_11_310basic_jsonINSt6__ndk13mapENS2_6vectorENS2_12basic_stringIcNS2_11char_traitsIcEENS2_9allocatorIcEEEEblmdS8_NS0_14adl_serializerENS4_IhNS8_IhEEEEvE2atIRA8_KcTnNS2_9enable_ifIXsr6detail32is_usable_as_basic_json_key_typeISE_T_EE5valueEiE4typeELi0EEERSE_OSK_
FUNC 347bc 4ac 0 nlohmann::json_abi_v3_11_3::basic_json<std::__ndk1::map, std::__ndk1::vector, std::__ndk1::basic_string<char, std::__ndk1::char_traits<char>, std::__ndk1::allocator<char> >, bool, long, unsigned long, double, std::__ndk1::allocator, nlohmann::json_abi_v3_11_3::adl_serializer, std::__ndk1::vector<unsigned char, std::__ndk1::allocator<unsigned char> >, void>::basic_json(nlohmann::json_abi_v3_11_3::basic_json<std::__ndk1::map, std::__ndk1::vector, std::__ndk1::basic_string<char, std::__ndk1::char_traits<char>, std::__ndk1::allocator<char> >, bool, long, unsigned long, double, std::__ndk1::allocator, nlohmann::json_abi_v3_11_3::adl_serializer, std::__ndk1::vector<unsigned char, std::__ndk1::allocator<unsigned char> >, void> const&)
FUNC 34c68 2c8 0 nlohmann::json_abi_v3_11_3::basic_json<std::__ndk1::map, std::__ndk1::vector, std::__ndk1::basic_string<char, std::__ndk1::char_traits<char>, std::__ndk1::allocator<char> >, bool, long, unsigned long, double, std::__ndk1::allocator, nlohmann::json_abi_v3_11_3::adl_serializer, std::__ndk1::vector<unsigned char, std::__ndk1::allocator<unsigned char> >, void>::operator[](unsigned long)
FUNC 34f30 26c 0 nlohmann::json_abi_v3_11_3::basic_json<std::__ndk1::map, std::__ndk1::vector, std::__ndk1::basic_string<char, std::__ndk1::char_traits<char>, std::__ndk1::allocator<char> >, bool, long, unsigned long, double, std::__ndk1::allocator, nlohmann::json_abi_v3_11_3::adl_serializer, std::__ndk1::vector<unsigned char, std::__ndk1::allocator<unsigned char> >, void>::operator[]<char const>(char const*)
FUNC 3519c 1c 0 nlohmann::json_abi_v3_11_3::basic_json<std::__ndk1::map, std::__ndk1::vector, std::__ndk1::basic_string<char, std::__ndk1::char_traits<char>, std::__ndk1::allocator<char> >, bool, long, unsigned long, double, std::__ndk1::allocator, nlohmann::json_abi_v3_11_3::adl_serializer, std::__ndk1::vector<unsigned char, std::__ndk1::allocator<unsigned char> >, void>::~basic_json()
FUNC 351b8 1c0 0 _ZN8nlohmann16json_abi_v3_11_310basic_jsonINSt6__ndk13mapENS2_6vectorENS2_12basic_stringIcNS2_11char_traitsIcEENS2_9allocatorIcEEEEblmdS8_NS0_14adl_serializerENS4_IhNS8_IhEEEEvE2atIRA5_KcTnNS2_9enable_ifIXsr6detail32is_usable_as_basic_json_key_typeISE_T_EE5valueEiE4typeELi0EEERSE_OSK_
FUNC 35378 44 0 LevelProvider::BasicLevelInformation::~BasicLevelInformation()
FUNC 353bc 74 0 geode::impl::ResultData<GJGameLevel*, std::__ndk1::basic_string<char, std::__ndk1::char_traits<char>, std::__ndk1::allocator<char> > >::~ResultData()
FUNC 35430 50 0 std::__ndk1::basic_ofstream<char, std::__ndk1::char_traits<char> >::~basic_ofstream()
FUNC 35480 8c 0 geode::EventListener<geode::Task<geode::utils::web::WebResponse, geode::utils::web::WebProgress> >::~EventListener()
FUNC 3550c 4 0 geode::EventListener<geode::Task<geode::utils::web::WebResponse, geode::utils::web::WebProgress> >::getPool() const
FUNC 35510 1ac 0 geode::EventListener<geode::Task<geode::utils::web::WebResponse, geode::utils::web::WebProgress> >::handle(geode::Event*)
FUNC 356bc 94 0 geode::EventListener<geode::Task<geode::utils::web::WebResponse, geode::utils::web::WebProgress> >::~EventListener()
FUNC 35750 e4 0 geode::cast::traverseTypeinfoFor(void*, geode::cast::ClassTypeinfoType const*, char const*)
FUNC 35834 34 0 std::__ndk1::__throw_bad_function_call[abi:ne180000]()
FUNC 35868 24 0 std::__ndk1::bad_function_call::~bad_function_call()
FUNC 3588c 128 0 std::__ndk1::basic_string<char, std::__ndk1::char_traits<char>, std::__ndk1::allocator<char> >::__assign_external(char const*, unsigned long)
FUNC 359b4 c0 0 LevelProvider::Cached::~Cached()
FUNC 35a74 14 0 std::__ndk1::vector<GJGameLevel*, std::__ndk1::allocator<GJGameLevel*> >::__throw_length_error[abi:ne180000]() const
FUNC 35a88 ac 0 std::__ndk1::basic_string<char, std::__ndk1::char_traits<char>, std::__ndk1::allocator<char> >::__assign_no_alias<true>(char const*, unsigned long)
FUNC 35b34 100 0 std::__ndk1::basic_string<char, std::__ndk1::char_traits<char>, std::__ndk1::allocator<char> >::__assign_no_alias<false>(char const*, unsigned long)
FUNC 35c34 1b8 0 nlohmann::json_abi_v3_11_3::detail::from_json<nlohmann::json_abi_v3_11_3::basic_json<std::__ndk1::map, std::__ndk1::vector, std::__ndk1::basic_string<char, std::__ndk1::char_traits<char>, std::__ndk1::allocator<char> >, bool, long, unsigned long, double, std::__ndk1::allocator, nlohmann::json_abi_v3_11_3::adl_serializer, std::__ndk1::vector<unsigned char, std::__ndk1::allocator<unsigned char> >, void> >(nlohmann::json_abi_v3_11_3::basic_json<std::__ndk1::map, std::__ndk1::vector, std::__ndk1::basic_string<char, std::__ndk1::char_traits<char>, std::__ndk1::allocator<char> >, bool, long, unsigned long, double, std::__ndk1::allocator, nlohmann::json_abi_v3_11_3::adl_serializer, std::__ndk1::vector<unsigned char, std::__ndk1::allocator<unsigned char> >, void> const&, nlohmann::json_abi_v3_11_3::basic_json<std::__ndk1::map, std::__ndk1::vector, std::__ndk1::basic_string<char, std::__ndk1::char_traits<char>, std::__ndk1::allocator<char> >, bool, long, unsigned long, double, std::__ndk1::allocator, nlohmann::json_abi_v3_11_3::adl_serializer, std::__ndk1::vector<unsigned char, std::__ndk1::allocator<unsigned char> >, void>&::string_t)
FUNC 35dec 1dc 0 _ZN8nlohmann16json_abi_v3_11_36detail10type_error6createIPKNS0_10basic_jsonINSt6__ndk13mapENS5_6vectorENS5_12basic_stringIcNS5_11char_traitsIcEENS5_9allocatorIcEEEEblmdSB_NS0_14adl_serializerENS7_IhNSB_IhEEEEvEETnNS5_9enable_ifIXsr21is_basic_json_contextIT_EE5valueEiE4typeELi0EEES2_iRKSD_SL_
FUNC 35fc8 a8 0 nlohmann::json_abi_v3_11_3::detail::concat<std::__ndk1::basic_string<char, std::__ndk1::char_traits<char>, std::__ndk1::allocator<char> >, char const (&) [29], char const*>(char const (&) [29], char const*)
FUNC 36070 2c 0 nlohmann::json_abi_v3_11_3::basic_json<std::__ndk1::map, std::__ndk1::vector, std::__ndk1::basic_string<char, std::__ndk1::char_traits<char>, std::__ndk1::allocator<char> >, bool, long, unsigned long, double, std::__ndk1::allocator, nlohmann::json_abi_v3_11_3::adl_serializer, std::__ndk1::vector<unsigned char, std::__ndk1::allocator<unsigned char> >, void>::type_name() const
FUNC 3609c 100 0 nlohmann::json_abi_v3_11_3::detail::concat<std::__ndk1::basic_string<char, std::__ndk1::char_traits<char>, std::__ndk1::allocator<char> >, std::__ndk1::basic_string<char, std::__ndk1::char_traits<char>, std::__ndk1::allocator<char> >, std::__ndk1::basic_string<char, std::__ndk1::char_traits<char>, std::__ndk1::allocator<char> >, std::__ndk1::basic_string<char, std::__ndk1::char_traits<char>, std::__ndk1::allocator<char> > const&>(std::__ndk1::basic_string<char, std::__ndk1::char_traits<char>, std::__ndk1::allocator<char> >&&, std::__ndk1::basic_string<char, std::__ndk1::char_traits<char>, std::__ndk1::allocator<char> >, std::__ndk1::basic_string<char, std::__ndk1::char_traits<char>, std::__ndk1::allocator<char> > const&)
FUNC 3619c 144 0 nlohmann::json_abi_v3_11_3::detail::concat<std::__ndk1::basic_string<char, std::__ndk1::char_traits<char>, std::__ndk1::allocator<char> >, char const (&) [17], std::__ndk1::basic_string<char, std::__ndk1::char_traits<char>, std::__ndk1::allocator<char> > const&, char, std::__ndk1::basic_string<char, std::__ndk1::char_traits<char>, std::__ndk1::allocator<char> >, char const (&) [3]>(char const (&) [17], std::__ndk1::basic_string<char, std::__ndk1::char_traits<char>, std::__ndk1::allocator<char> > const&, char, std::__ndk1::basic_string<char, std::__ndk1::char_traits<char>, std::__ndk1::allocator<char> >, char const (&) [3])
FUNC 362e0 38 0 nlohmann::json_abi_v3_11_3::detail::type_error::~type_error()
FUNC 36318 8 0 nlohmann::json_abi_v3_11_3::detail::exception::what() const
FUNC 36320 38 0 nlohmann::json_abi_v3_11_3::detail::exception::~exception()
FUNC 36358 150 0 _ZN8nlohmann16json_abi_v3_11_36detail9from_jsonINS0_10basic_jsonINSt6__ndk13mapENS4_6vectorENS4_12basic_stringIcNS4_11char_traitsIcEENS4_9allocatorIcEEEEblmdSA_NS0_14adl_serializerENS6_IhNSA_IhEEEEvEEiTnNS4_9enable_ifIXaaaaaaaasr3std13is_arithmeticIT0_EE5valuentsr3std7is_sameISI_NT_17number_unsigned_tEEE5valuentsr3std7is_sameISI_NSJ_16number_integer_tEEE5valuentsr3std7is_sameISI_NSJ_14number_float_tEEE5valuentsr3std7is_sameISI_NSJ_9boolean_tEEE5valueEiE4typeELi0EEEvRKSJ_RSI_
FUNC 364a8 108 0 nlohmann::json_abi_v3_11_3::detail::from_json<nlohmann::json_abi_v3_11_3::basic_json<std::__ndk1::map, std::__ndk1::vector, std::__ndk1::basic_string<char, std::__ndk1::char_traits<char>, std::__ndk1::allocator<char> >, bool, long, unsigned long, double, std::__ndk1::allocator, nlohmann::json_abi_v3_11_3::adl_serializer, std::__ndk1::vector<unsigned char, std::__ndk1::allocator<unsigned char> >, void> >(nlohmann::json_abi_v3_11_3::basic_json<std::__ndk1::map, std::__ndk1::vector, std::__ndk1::basic_string<char, std::__ndk1::char_traits<char>, std::__ndk1::allocator<char> >, bool, long, unsigned long, double, std::__ndk1::allocator, nlohmann::json_abi_v3_11_3::adl_serializer, std::__ndk1::vector<unsigned char, std::__ndk1::allocator<unsigned char> >, void> const&, nlohmann::json_abi_v3_11_3::basic_json<std::__ndk1::map, std::__ndk1::vector, std::__ndk1::basic_string<char, std::__ndk1::char_traits<char>, std::__ndk1::allocator<char> >, bool, long, unsigned long, double, std::__ndk1::allocator, nlohmann::json_abi_v3_11_3::adl_serializer, std::__ndk1::vector<unsigned char, std::__ndk1::allocator<unsigned char> >, void>&::boolean_t)
FUNC 365b0 a8 0 nlohmann::json_abi_v3_11_3::detail::concat<std::__ndk1::basic_string<char, std::__ndk1::char_traits<char>, std::__ndk1::allocator<char> >, char const (&) [30], char const*>(char const (&) [30], char const*)
FUNC 36658 14 0 std::__ndk1::vector<GJGameLevel*, std::__ndk1::allocator<GJGameLevel*> >::__throw_out_of_range[abi:ne180000]() const
FUNC 3666c 50 0 std::__ndk1::__throw_out_of_range[abi:ne180000](char const*)
FUNC 366bc 30 0 std::out_of_range::out_of_range[abi:ne180000](char const*)
FUNC 366ec 130 0 std::__ndk1::vector<GJGameLevel*, std::__ndk1::allocator<GJGameLevel*> >::__assign_with_size[abi:ne180000]<GJGameLevel**, std::__ndk1::vector<GJGameLevel*, std::__ndk1::allocator<GJGameLevel*> >::__assign_with_size[abi:ne180000]>(GJGameLevel**, std::__ndk1::vector<GJGameLevel*, std::__ndk1::allocator<GJGameLevel*> >::__assign_with_size[abi:ne180000], long)
FUNC 3681c 154 0 _ZN5geode15UnwrapExceptionC2IRP11GJGameLevelQsr4implE18IsStringStreamableIT_EEENS_4impl5OkTagEOS5_
FUNC 36970 168 0 _ZN5geode15UnwrapExceptionC2IRNSt6__ndk112basic_stringIcNS2_11char_traitsIcEENS2_9allocatorIcEEEEQsr4implE18IsStringStreamableIT_EEENS_4impl6ErrTagEOSA_
FUNC 36ad8 4 0 std::__ndk1::__variant_detail::__visitation::__base::__dispatcher<(unsigned long)0>::__dispatch[abi:ne180000]<std::__ndk1::__variant_detail::__dtor<std::__ndk1::__variant_detail::__traits<GJGameLevel*, std::__ndk1::basic_string<char, std::__ndk1::char_traits<char>, std::__ndk1::allocator<char> > >, (std::__ndk1::__variant_detail::_Trait)1>::__destroy[abi:ne180000]()::{lambda(auto:1&)#1}, std::__ndk1::__variant_detail::__base<(std::__ndk1::__variant_detail::__traits<GJGameLevel*, std::__ndk1::basic_string<char, std::__ndk1::char_traits<char>, std::__ndk1::allocator<char> > >)1, GJGameLevel, std::__ndk1::allocator<char> >&>(std::__ndk1::__variant_detail::__dtor<std::__ndk1::__variant_detail::__traits<GJGameLevel*, std::__ndk1::basic_string<char, std::__ndk1::char_traits<char>, std::__ndk1::allocator<char> > >, (std::__ndk1::__variant_detail::_Trait)1>, std::__ndk1::__variant_detail::__base<(std::__ndk1::__variant_detail::__traits<GJGameLevel*, std::__ndk1::basic_string<char, std::__ndk1::char_traits<char>, std::__ndk1::allocator<char> > >)1, GJGameLevel, std::__ndk1::allocator<char> >&)
FUNC 36adc 14 0 std::__ndk1::__variant_detail::__visitation::__base::__dispatcher<(unsigned long)1>::__dispatch[abi:ne180000]<std::__ndk1::__variant_detail::__dtor<std::__ndk1::__variant_detail::__traits<GJGameLevel*, std::__ndk1::basic_string<char, std::__ndk1::char_traits<char>, std::__ndk1::allocator<char> > >, (std::__ndk1::__variant_detail::_Trait)1>::__destroy[abi:ne180000]()::{lambda(auto:1&)#1}, std::__ndk1::__variant_detail::__base<(std::__ndk1::__variant_detail::__traits<GJGameLevel*, std::__ndk1::basic_string<char, std::__ndk1::char_traits<char>, std::__ndk1::allocator<char> > >)1, GJGameLevel, std::__ndk1::allocator<char> >&>(std::__ndk1::__variant_detail::__dtor<std::__ndk1::__variant_detail::__traits<GJGameLevel*, std::__ndk1::basic_string<char, std::__ndk1::char_traits<char>, std::__ndk1::allocator<char> > >, (std::__ndk1::__variant_detail::_Trait)1>, std::__ndk1::__variant_detail::__base<(std::__ndk1::__variant_detail::__traits<GJGameLevel*, std::__ndk1::basic_string<char, std::__ndk1::char_traits<char>, std::__ndk1::allocator<char> > >)1, GJGameLevel, std::__ndk1::allocator<char> >&)
FUNC 36af0 1c 0 nlohmann::json_abi_v3_11_3::basic_json<std::__ndk1::map, std::__ndk1::vector, std::__ndk1::basic_string<char, std::__ndk1::char_traits<char>, std::__ndk1::allocator<char> >, bool, long, unsigned long, double, std::__ndk1::allocator, nlohmann::json_abi_v3_11_3::adl_serializer, std::__ndk1::vector<unsigned char, std::__ndk1::allocator<unsigned char> >, void>::data::~data()
FUNC 36b0c 47c 0 nlohmann::json_abi_v3_11_3::basic_json<std::__ndk1::map, std::__ndk1::vector, std::__ndk1::basic_string<char, std::__ndk1::char_traits<char>, std::__ndk1::allocator<char> >, bool, long, unsigned long, double, std::__ndk1::allocator, nlohmann::json_abi_v3_11_3::adl_serializer, std::__ndk1::vector<unsigned char, std::__ndk1::allocator<unsigned char> >, void>::json_value::destroy(nlohmann::json_abi_v3_11_3::detail::value_t)
FUNC 36f88 d8 0 std::__ndk1::vector<nlohmann::json_abi_v3_11_3::basic_json<std::__ndk1::map, std::__ndk1::vector, std::__ndk1::basic_string<char, std::__ndk1::char_traits<char>, std::__ndk1::allocator<char> >, bool, long, unsigned long, double, std::__ndk1::allocator, nlohmann::json_abi_v3_11_3::adl_serializer, std::__ndk1::vector<unsigned char, std::__ndk1::allocator<unsigned char> >, void>, std::__ndk1::allocator<nlohmann::json_abi_v3_11_3::basic_json<std::__ndk1::map, std::__ndk1::vector, std::__ndk1::basic_string<char, std::__ndk1::char_traits<char>, std::__ndk1::allocator<char> >, bool, long, unsigned long, double, std::__ndk1::allocator, nlohmann::json_abi_v3_11_3::adl_serializer, std::__ndk1::vector<unsigned char, std::__ndk1::allocator<unsigned char> >, void> > >::reserve(unsigned long)
FUNC 37060 64 0 std::__ndk1::vector<nlohmann::json_abi_v3_11_3::basic_json<std::__ndk1::map, std::__ndk1::vector, std::__ndk1::basic_string<char, std::__ndk1::char_traits<char>, std::__ndk1::allocator<char> >, bool, long, unsigned long, double, std::__ndk1::allocator, nlohmann::json_abi_v3_11_3::adl_serializer, std::__ndk1::vector<unsigned char, std::__ndk1::allocator<unsigned char> >, void>, std::__ndk1::allocator<nlohmann::json_abi_v3_11_3::basic_json<std::__ndk1::map, std::__ndk1::vector, std::__ndk1::basic_string<char, std::__ndk1::char_traits<char>, std::__ndk1::allocator<char> >, bool, long, unsigned long, double, std::__ndk1::allocator, nlohmann::json_abi_v3_11_3::adl_serializer, std::__ndk1::vector<unsigned char, std::__ndk1::allocator<unsigned char> >, void> > >::~vector[abi:ne180000]()
FUNC 370c4 14 0 std::__ndk1::vector<nlohmann::json_abi_v3_11_3::basic_json<std::__ndk1::map, std::__ndk1::vector, std::__ndk1::basic_string<char, std::__ndk1::char_traits<char>, std::__ndk1::allocator<char> >, bool, long, unsigned long, double, std::__ndk1::allocator, nlohmann::json_abi_v3_11_3::adl_serializer, std::__ndk1::vector<unsigned char, std::__ndk1::allocator<unsigned char> >, void>, std::__ndk1::allocator<nlohmann::json_abi_v3_11_3::basic_json<std::__ndk1::map, std::__ndk1::vector, std::__ndk1::basic_string<char, std::__ndk1::char_traits<char>, std::__ndk1::allocator<char> >, bool, long, unsigned long, double, std::__ndk1::allocator, nlohmann::json_abi_v3_11_3::adl_serializer, std::__ndk1::vector<unsigned char, std::__ndk1::allocator<unsigned char> >, void> > >::__throw_length_error[abi:ne180000]() const
FUNC 370d8 58 0 std::__ndk1::__split_buffer<nlohmann::json_abi_v3_11_3::basic_json<std::__ndk1::map, std::__ndk1::vector, std::__ndk1::basic_string<char, std::__ndk1::char_traits<char>, std::__ndk1::allocator<char> >, bool, long, unsigned long, double, std::__ndk1::allocator, nlohmann::json_abi_v3_11_3::adl_serializer, std::__ndk1::vector<unsigned char, std::__ndk1::allocator<unsigned char> >, void>, std::__ndk1::allocator<nlohmann::json_abi_v3_11_3::basic_json<std::__ndk1::map, std::__ndk1::vector, std::__ndk1::basic_string<char, std::__ndk1::char_traits<char>, std::__ndk1::allocator<char> >, bool, long, unsigned long, double, std::__ndk1::allocator, nlohmann::json_abi_v3_11_3::adl_serializer, std::__ndk1::vector<unsigned char, std::__ndk1::allocator<unsigned char> >, void> >&>::~__split_buffer()
FUNC 37130 11c 0 std::__ndk1::vector<nlohmann::json_abi_v3_11_3::basic_json<std::__ndk1::map, std::__ndk1::vector, std::__ndk1::basic_string<char, std::__ndk1::char_traits<char>, std::__ndk1::allocator<char> >, bool, long, unsigned long, double, std::__ndk1::allocator, nlohmann::json_abi_v3_11_3::adl_serializer, std::__ndk1::vector<unsigned char, std::__ndk1::allocator<unsigned char> >, void>, std::__ndk1::allocator<nlohmann::json_abi_v3_11_3::basic_json<std::__ndk1::map, std::__ndk1::vector, std::__ndk1::basic_string<char, std::__ndk1::char_traits<char>, std::__ndk1::allocator<char> >, bool, long, unsigned long, double, std::__ndk1::allocator, nlohmann::json_abi_v3_11_3::adl_serializer, std::__ndk1::vector<unsigned char, std::__ndk1::allocator<unsigned char> >, void> > >::__push_back_slow_path<nlohmann::json_abi_v3_11_3::basic_json<std::__ndk1::map, std::__ndk1::vector, std::__ndk1::basic_string<char, std::__ndk1::char_traits<char>, std::__ndk1::allocator<char> >, bool, long, unsigned long, double, std::__ndk1::allocator, nlohmann::json_abi_v3_11_3::adl_serializer, std::__ndk1::vector<unsigned char, std::__ndk1::allocator<unsigned char> >, void> >(nlohmann::json_abi_v3_11_3::basic_json<std::__ndk1::map, std::__ndk1::vector, std::__ndk1::basic_string<char, std::__ndk1::char_traits<char>, std::__ndk1::allocator<char> >, bool, long, unsigned long, double, std::__ndk1::allocator, nlohmann::json_abi_v3_11_3::adl_serializer, std::__ndk1::vector<unsigned char, std::__ndk1::allocator<unsigned char> >, void>&&)
FUNC 3724c 60 0 std::__ndk1::__tree<std::__ndk1::__value_type<std::__ndk1::basic_string<char, std::__ndk1::char_traits<char>, std::__ndk1::allocator<char> >, nlohmann::json_abi_v3_11_3::basic_json<std::__ndk1::map, std::__ndk1::vector, std::__ndk1::basic_string<char, std::__ndk1::char_traits<char>, std::__ndk1::allocator<char> >, bool, long, unsigned long, double, std::__ndk1::allocator, nlohmann::json_abi_v3_11_3::adl_serializer, std::__ndk1::vector<unsigned char, std::__ndk1::allocator<unsigned char> >, void> >, std::__ndk1::__map_value_compare<std::__ndk1::basic_string<char, std::__ndk1::char_traits<char>, std::__ndk1::allocator<char> >, std::__ndk1::__value_type<std::__ndk1::basic_string<char, std::__ndk1::char_traits<char>, std::__ndk1::allocator<char> >, nlohmann::json_abi_v3_11_3::basic_json<std::__ndk1::map, std::__ndk1::vector, std::__ndk1::basic_string<char, std::__ndk1::char_traits<char>, std::__ndk1::allocator<char> >, bool, long, unsigned long, double, std::__ndk1::allocator, nlohmann::json_abi_v3_11_3::adl_serializer, std::__ndk1::vector<unsigned char, std::__ndk1::allocator<unsigned char> >, void> >, std::__ndk1::less<void>, true>, std::__ndk1::allocator<std::__ndk1::__value_type<std::__ndk1::basic_string<char, std::__ndk1::char_traits<char>, std::__ndk1::allocator<char> >, nlohmann::json_abi_v3_11_3::basic_json<std::__ndk1::map, std::__ndk1::vector, std::__ndk1::basic_string<char, std::__ndk1::char_traits<char>, std::__ndk1::allocator<char> >, bool, long, unsigned long, double, std::__ndk1::allocator, nlohmann::json_abi_v3_11_3::adl_serializer, std::__ndk1::vector<unsigned char, std::__ndk1::allocator<unsigned char> >, void> > > >::destroy(std::__ndk1::__tree_node<std::__ndk1::__value_type<std::__ndk1::basic_string<char, std::__ndk1::char_traits<char>, std::__ndk1::allocator<char> >, nlohmann::json_abi_v3_11_3::basic_json<std::__ndk1::map, std::__ndk1::vector, std::__ndk1::basic_string<char, std::__ndk1::char_traits<char>, std::__ndk1::allocator<char> >, bool, long, unsigned long, double, std::__ndk1::allocator, nlohmann::json_abi_v3_11_3::adl_serializer, std::__ndk1::vector<unsigned char, std::__ndk1::allocator<unsigned char> >, void> >, void*>*)
FUNC 372ac b0 0 std::__ndk1::__hash_table<std::__ndk1::__hash_value_type<LevelProvider::LPFeatures, std::__ndk1::variant<std::__ndk1::basic_string<char, std::__ndk1::char_traits<char>, std::__ndk1::allocator<char> >, int> >, std::__ndk1::__unordered_map_hasher<LevelProvider::LPFeatures, std::__ndk1::__hash_value_type<LevelProvider::LPFeatures, std::__ndk1::variant<std::__ndk1::basic_string<char, std::__ndk1::char_traits<char>, std::__ndk1::allocator<char> >, int> >, std::__ndk1::hash<LevelProvider::LPFeatures>, std::__ndk1::equal_to<LevelProvider::LPFeatures>, true>, std::__ndk1::__unordered_map_equal<LevelProvider::LPFeatures, std::__ndk1::__hash_value_type<LevelProvider::LPFeatures, std::__ndk1::variant<std::__ndk1::basic_string<char, std::__ndk1::char_traits<char>, std::__ndk1::allocator<char> >, int> >, std::__ndk1::equal_to<LevelProvider::LPFeatures>, std::__ndk1::hash<LevelProvider::LPFeatures>, true>, std::__ndk1::allocator<std::__ndk1::__hash_value_type<LevelProvider::LPFeatures, std::__ndk1::variant<std::__ndk1::basic_string<char, std::__ndk1::char_traits<char>, std::__ndk1::allocator<char> >, int> > > >::~__hash_table()
FUNC 3735c 15c 0 std::__ndk1::__hash_table<std::__ndk1::__hash_value_type<LevelProvider::LPFeatures, std::__ndk1::variant<std::__ndk1::basic_string<char, std::__ndk1::char_traits<char>, std::__ndk1::allocator<char> >, int> >, std::__ndk1::__unordered_map_hasher<LevelProvider::LPFeatures, std::__ndk1::__hash_value_type<LevelProvider::LPFeatures, std::__ndk1::variant<std::__ndk1::basic_string<char, std::__ndk1::char_traits<char>, std::__ndk1::allocator<char> >, int> >, std::__ndk1::hash<LevelProvider::LPFeatures>, std::__ndk1::equal_to<LevelProvider::LPFeatures>, true>, std::__ndk1::__unordered_map_equal<LevelProvider::LPFeatures, std::__ndk1::__hash_value_type<LevelProvider::LPFeatures, std::__ndk1::variant<std::__ndk1::basic_string<char, std::__ndk1::char_traits<char>, std::__ndk1::allocator<char> >, int> >, std::__ndk1::equal_to<LevelProvider::LPFeatures>, std::__ndk1::hash<LevelProvider::LPFeatures>, true>, std::__ndk1::allocator<std::__ndk1::__hash_value_type<LevelProvider::LPFeatures, std::__ndk1::variant<std::__ndk1::basic_string<char, std::__ndk1::char_traits<char>, std::__ndk1::allocator<char> >, int> > > >::__do_rehash<true>(unsigned long)
FUNC 374b8 380 0 std::__ndk1::__hash_table<std::__ndk1::__hash_value_type<LevelProvider::LPFeatures, std::__ndk1::variant<std::__ndk1::basic_string<char, std::__ndk1::char_traits<char>, std::__ndk1::allocator<char> >, int> >, std::__ndk1::__unordered_map_hasher<LevelProvider::LPFeatures, std::__ndk1::__hash_value_type<LevelProvider::LPFeatures, std::__ndk1::variant<std::__ndk1::basic_string<char, std::__ndk1::char_traits<char>, std::__ndk1::allocator<char> >, int> >, std::__ndk1::hash<LevelProvider::LPFeatures>, std::__ndk1::equal_to<LevelProvider::LPFeatures>, true>, std::__ndk1::__unordered_map_equal<LevelProvider::LPFeatures, std::__ndk1::__hash_value_type<LevelProvider::LPFeatures, std::__ndk1::variant<std::__ndk1::basic_string<char, std::__ndk1::char_traits<char>, std::__ndk1::allocator<char> >, int> >, std::__ndk1::equal_to<LevelProvider::LPFeatures>, std::__ndk1::hash<LevelProvider::LPFeatures>, true>, std::__ndk1::allocator<std::__ndk1::__hash_value_type<LevelProvider::LPFeatures, std::__ndk1::variant<std::__ndk1::basic_string<char, std::__ndk1::char_traits<char>, std::__ndk1::allocator<char> >, int> > > >::__emplace_unique_key_args<LevelProvider::LPFeatures, std::__ndk1::pair<LevelProvider::LPFeatures const, std::__ndk1::variant<std::__ndk1::basic_string<char, std::__ndk1::char_traits<char>, std::__ndk1::allocator<char> >, int> > const&>(LevelProvider::LPFeatures const&, std::__ndk1::pair<LevelProvider::LPFeatures const, std::__ndk1::variant<std::__ndk1::basic_string<char, std::__ndk1::char_traits<char>, std::__ndk1::allocator<char> >, int> > const&)
FUNC 37838 84 0 std::__ndk1::unique_ptr<std::__ndk1::__hash_node<std::__ndk1::__hash_value_type<LevelProvider::LPFeatures, std::__ndk1::variant<std::__ndk1::basic_string<char, std::__ndk1::char_traits<char>, std::__ndk1::allocator<char> >, int> >, void*>, std::__ndk1::__hash_node_destructor<std::__ndk1::allocator<std::__ndk1::__hash_node<std::__ndk1::__hash_value_type<LevelProvider::LPFeatures, std::__ndk1::variant<std::__ndk1::basic_string<char, std::__ndk1::char_traits<char>, std::__ndk1::allocator<char> >, int> >, void*> > > >::~unique_ptr[abi:ne180000]()
FUNC 378bc 2c 0 std::__ndk1::__variant_detail::__visitation::__base::__dispatcher<(unsigned long)0, (unsigned long)0>::__dispatch[abi:ne180000]<std::__ndk1::__variant_detail::__ctor<std::__ndk1::__variant_detail::__traits<std::__ndk1::basic_string<char, std::__ndk1::char_traits<char>, std::__ndk1::allocator<char> >, int> >::__generic_construct[abi:ne180000]<std::__ndk1::__variant_detail::__copy_constructor<std::__ndk1::basic_string<char, std::__ndk1::char_traits<char>, std::__ndk1::allocator<char> >, (std::__ndk1::__variant_detail::_Trait)1> const&>(std::__ndk1::__variant_detail::__traits<std::__ndk1::basic_string<char, std::__ndk1::char_traits<char>, std::__ndk1::allocator<char> >, int>&, std::__ndk1::__variant_detail::__copy_constructor<std::__ndk1::basic_string<char, std::__ndk1::char_traits<char>, std::__ndk1::allocator<char> >, (std::__ndk1::__variant_detail::_Trait)1> const&)::{lambda(std::__ndk1::__variant_detail::__copy_constructor<std::__ndk1::basic_string<char, std::__ndk1::char_traits<char>, std::__ndk1::allocator<char> >, (std::__ndk1::__variant_detail::_Trait)1> const&, auto:2&&)#1}, std::__ndk1::__variant_detail::__base<(std::__ndk1::__variant_detail::__ctor<std::__ndk1::__variant_detail::__traits<std::__ndk1::basic_string<char, std::__ndk1::char_traits<char>, std::__ndk1::allocator<char> >, int> >::__generic_construct[abi:ne180000])1, std::__ndk1::allocator<char>, int>&, std::__ndk1::__variant_detail::__ctor<std::__ndk1::__variant_detail::__traits<std::__ndk1::basic_string<char, std::__ndk1::char_traits<char>, std::__ndk1::allocator<char> >, int> >::__generic_construct[abi:ne180000]<std::__ndk1::__variant_detail::__copy_constructor<std::__ndk1::basic_string<char, std::__ndk1::char_traits<char>, std::__ndk1::allocator<char> >, (std::__ndk1::__variant_detail::_Trait)1> const&>(std::__ndk1::__variant_detail::__traits<std::__ndk1::basic_string<char, std::__ndk1::char_traits<char>, std::__ndk1::allocator<char> >, int>&, std::__ndk1::__variant_detail::__copy_constructor<std::__ndk1::basic_string<char, std::__ndk1::char_traits<char>, std::__ndk1::allocator<char> >, (std::__ndk1::__variant_detail::_Trait)1> const&)::{lambda(std::__ndk1::__variant_detail::__copy_constructor<std::__ndk1::basic_string<char, std::__ndk1::char_traits<char>, std::__ndk1::allocator<char> >, (std::__ndk1::__variant_detail::_Trait)1> const&, auto:2&&)#1} const&>(std::__ndk1::__variant_detail::__copy_constructor<std::__ndk1::basic_string<char, std::__ndk1::char_traits<char>, std::__ndk1::allocator<char> >, (std::__ndk1::__variant_detail::_Trait)1> const&, std::__ndk1::__variant_detail::__base<(std::__ndk1::__variant_detail::__ctor<std::__ndk1::__variant_detail::__traits<std::__ndk1::basic_string<char, std::__ndk1::char_traits<char>, std::__ndk1::allocator<char> >, int> >::__generic_construct[abi:ne180000])1, std::__ndk1::allocator<char>, int>&, std::__ndk1::__variant_detail::__ctor<std::__ndk1::__variant_detail::__traits<std::__ndk1::basic_string<char, std::__ndk1::char_traits<char>, std::__ndk1::allocator<char> >, int> >::__generic_construct[abi:ne180000]<std::__ndk1::__variant_detail::__copy_constructor<std::__ndk1::basic_string<char, std::__ndk1::char_traits<char>, std::__ndk1::allocator<char> >, (std::__ndk1::__variant_detail::_Trait)1> const&>(std::__ndk1::__variant_detail::__traits<std::__ndk1::basic_string<char, std::__ndk1::char_traits<char>, std::__ndk1::allocator<char> >, int>&, std::__ndk1::__variant_detail::__copy_constructor<std::__ndk1::basic_string<char, std::__ndk1::char_traits<char>, std::__ndk1::allocator<char> >, (std::__ndk1::__variant_detail::_Trait)1> const&)::{lambda(std::__ndk1::__variant_detail::__copy_constructor<std::__ndk1::basic_string<char, std::__ndk1::char_traits<char>, std::__ndk1::allocator<char> >, (std::__ndk1::__variant_detail::_Trait)1> const&, auto:2&&)#1} const&)
FUNC 378e8 c 0 std::__ndk1::__variant_detail::__visitation::__base::__dispatcher<(unsigned long)1, (unsigned long)1>::__dispatch[abi:ne180000]<std::__ndk1::__variant_detail::__ctor<std::__ndk1::__variant_detail::__traits<std::__ndk1::basic_string<char, std::__ndk1::char_traits<char>, std::__ndk1::allocator<char> >, int> >::__generic_construct[abi:ne180000]<std::__ndk1::__variant_detail::__copy_constructor<std::__ndk1::basic_string<char, std::__ndk1::char_traits<char>, std::__ndk1::allocator<char> >, (std::__ndk1::__variant_detail::_Trait)1> const&>(std::__ndk1::__variant_detail::__traits<std::__ndk1::basic_string<char, std::__ndk1::char_traits<char>, std::__ndk1::allocator<char> >, int>&, std::__ndk1::__variant_detail::__copy_constructor<std::__ndk1::basic_string<char, std::__ndk1::char_traits<char>, std::__ndk1::allocator<char> >, (std::__ndk1::__variant_detail::_Trait)1> const&)::{lambda(std::__ndk1::__variant_detail::__copy_constructor<std::__ndk1::basic_string<char, std::__ndk1::char_traits<char>, std::__ndk1::allocator<char> >, (std::__ndk1::__variant_detail::_Trait)1> const&, auto:2&&)#1}, std::__ndk1::__variant_detail::__base<(std::__ndk1::__variant_detail::__ctor<std::__ndk1::__variant_detail::__traits<std::__ndk1::basic_string<char, std::__ndk1::char_traits<char>, std::__ndk1::allocator<char> >, int> >::__generic_construct[abi:ne180000])1, std::__ndk1::allocator<char>, int>&, std::__ndk1::__variant_detail::__ctor<std::__ndk1::__variant_detail::__traits<std::__ndk1::basic_string<char, std::__ndk1::char_traits<char>, std::__ndk1::allocator<char> >, int> >::__generic_construct[abi:ne180000]<std::__ndk1::__variant_detail::__copy_constructor<std::__ndk1::basic_string<char, std::__ndk1::char_traits<char>, std::__ndk1::allocator<char> >, (std::__ndk1::__variant_detail::_Trait)1> const&>(std::__ndk1::__variant_detail::__traits<std::__ndk1::basic_string<char, std::__ndk1::char_traits<char>, std::__ndk1::allocator<char> >, int>&, std::__ndk1::__variant_detail::__copy_constructor<std::__ndk1::basic_string<char, std::__ndk1::char_traits<char>, std::__ndk1::allocator<char> >, (std::__ndk1::__variant_detail::_Trait)1> const&)::{lambda(std::__ndk1::__variant_detail::__copy_constructor<std::__ndk1::basic_string<char, std::__ndk1::char_traits<char>, std::__ndk1::allocator<char> >, (std::__ndk1::__variant_detail::_Trait)1> const&, auto:2&&)#1} const&>(std::__ndk1::__variant_detail::__copy_constructor<std::__ndk1::basic_string<char, std::__ndk1::char_traits<char>, std::__ndk1::allocator<char> >, (std::__ndk1::__variant_detail::_Trait)1> const&, std::__ndk1::__variant_detail::__base<(std::__ndk1::__variant_detail::__ctor<std::__ndk1::__variant_detail::__traits<std::__ndk1::basic_string<char, std::__ndk1::char_traits<char>, std::__ndk1::allocator<char> >, int> >::__generic_construct[abi:ne180000])1, std::__ndk1::allocator<char>, int>&, std::__ndk1::__variant_detail::__ctor<std::__ndk1::__variant_detail::__traits<std::__ndk1::basic_string<char, std::__ndk1::char_traits<char>, std::__ndk1::allocator<char> >, int> >::__generic_construct[abi:ne180000]<std::__ndk1::__variant_detail::__copy_constructor<std::__ndk1::basic_string<char, std::__ndk1::char_traits<char>, std::__ndk1::allocator<char> >, (std::__ndk1::__variant_detail::_Trait)1> const&>(std::__ndk1::__variant_detail::__traits<std::__ndk1::basic_string<char, std::__ndk1::char_traits<char>, std::__ndk1::allocator<char> >, int>&, std::__ndk1::__variant_detail::__copy_constructor<std::__ndk1::basic_string<char, std::__ndk1::char_traits<char>, std::__ndk1::allocator<char> >, (std::__ndk1::__variant_detail::_Trait)1> const&)::{lambda(std::__ndk1::__variant_detail::__copy_constructor<std::__ndk1::basic_string<char, std::__ndk1::char_traits<char>, std::__ndk1::allocator<char> >, (std::__ndk1::__variant_detail::_Trait)1> const&, auto:2&&)#1} const&)
FUNC 378f4 74 0 std::__ndk1::__variant_detail::__dtor<std::__ndk1::__variant_detail::__traits<std::__ndk1::basic_string<char, std::__ndk1::char_traits<char>, std::__ndk1::allocator<char> >, int>, (std::__ndk1::__variant_detail::_Trait)1>::~__dtor()
FUNC 37968 90 0 std::__ndk1::__hash_table<std::__ndk1::__hash_value_type<LevelProvider::LPFeatures, std::__ndk1::variant<std::__ndk1::basic_string<char, std::__ndk1::char_traits<char>, std::__ndk1::allocator<char> >, int> >, std::__ndk1::__unordered_map_hasher<LevelProvider::LPFeatures, std::__ndk1::__hash_value_type<LevelProvider::LPFeatures, std::__ndk1::variant<std::__ndk1::basic_string<char, std::__ndk1::char_traits<char>, std::__ndk1::allocator<char> >, int> >, std::__ndk1::hash<LevelProvider::LPFeatures>, std::__ndk1::equal_to<LevelProvider::LPFeatures>, true>, std::__ndk1::__unordered_map_equal<LevelProvider::LPFeatures, std::__ndk1::__hash_value_type<LevelProvider::LPFeatures, std::__ndk1::variant<std::__ndk1::basic_string<char, std::__ndk1::char_traits<char>, std::__ndk1::allocator<char> >, int> >, std::__ndk1::equal_to<LevelProvider::LPFeatures>, std::__ndk1::hash<LevelProvider::LPFeatures>, true>, std::__ndk1::allocator<std::__ndk1::__hash_value_type<LevelProvider::LPFeatures, std::__ndk1::variant<std::__ndk1::basic_string<char, std::__ndk1::char_traits<char>, std::__ndk1::allocator<char> >, int> > > >::__deallocate_node(std::__ndk1::__hash_node_base<std::__ndk1::__hash_node<std::__ndk1::__hash_value_type<LevelProvider::LPFeatures, std::__ndk1::variant<std::__ndk1::basic_string<char, std::__ndk1::char_traits<char>, std::__ndk1::allocator<char> >, int> >, void*>*>*)
FUNC 379f8 318 0 std::__ndk1::__hash_table<std::__ndk1::__hash_value_type<LevelProvider::LPFeatures, std::__ndk1::variant<std::__ndk1::basic_string<char, std::__ndk1::char_traits<char>, std::__ndk1::allocator<char> >, int> >, std::__ndk1::__unordered_map_hasher<LevelProvider::LPFeatures, std::__ndk1::__hash_value_type<LevelProvider::LPFeatures, std::__ndk1::variant<std::__ndk1::basic_string<char, std::__ndk1::char_traits<char>, std::__ndk1::allocator<char> >, int> >, std::__ndk1::hash<LevelProvider::LPFeatures>, std::__ndk1::equal_to<LevelProvider::LPFeatures>, true>, std::__ndk1::__unordered_map_equal<LevelProvider::LPFeatures, std::__ndk1::__hash_value_type<LevelProvider::LPFeatures, std::__ndk1::variant<std::__ndk1::basic_string<char, std::__ndk1::char_traits<char>, std::__ndk1::allocator<char> >, int> >, std::__ndk1::equal_to<LevelProvider::LPFeatures>, std::__ndk1::hash<LevelProvider::LPFeatures>, true>, std::__ndk1::allocator<std::__ndk1::__hash_value_type<LevelProvider::LPFeatures, std::__ndk1::variant<std::__ndk1::basic_string<char, std::__ndk1::char_traits<char>, std::__ndk1::allocator<char> >, int> > > >::__emplace_unique_key_args<LevelProvider::LPFeatures, std::__ndk1::piecewise_construct_t const&, std::__ndk1::tuple<LevelProvider::LPFeatures&&>, std::__ndk1::tuple<> >(LevelProvider::LPFeatures const&, std::__ndk1::piecewise_construct_t const&, std::__ndk1::tuple<LevelProvider::LPFeatures&&>, std::__ndk1::tuple<>)
FUNC 37d10 44 0 std::__ndk1::__function::__func<GDHistoryProvider::downloadLevel(std::__ndk1::function<void (LevelProvider*, GJGameLevel*)>)::$_0, std::__ndk1::allocator<GDHistoryProvider::downloadLevel(std::__ndk1::function<void (LevelProvider*, GJGameLevel*)>)::$_0>, void (GeodeNetwork*)>::~__func()
FUNC 37d54 5c 0 std::__ndk1::__function::__func<GDHistoryProvider::downloadLevel(std::__ndk1::function<void (LevelProvider*, GJGameLevel*)>)::$_0, std::__ndk1::allocator<GDHistoryProvider::downloadLevel(std::__ndk1::function<void (LevelProvider*, GJGameLevel*)>)::$_0>, void (GeodeNetwork*)>::~__func()
FUNC 37db0 90 0 std::__ndk1::__function::__func<GDHistoryProvider::downloadLevel(std::__ndk1::function<void (LevelProvider*, GJGameLevel*)>)::$_0, std::__ndk1::allocator<GDHistoryProvider::downloadLevel(std::__ndk1::function<void (LevelProvider*, GJGameLevel*)>)::$_0>, void (GeodeNetwork*)>::__clone() const
FUNC 37e40 80 0 std::__ndk1::__function::__func<GDHistoryProvider::downloadLevel(std::__ndk1::function<void (LevelProvider*, GJGameLevel*)>)::$_0, std::__ndk1::allocator<GDHistoryProvider::downloadLevel(std::__ndk1::function<void (LevelProvider*, GJGameLevel*)>)::$_0>, void (GeodeNetwork*)>::__clone(std::__ndk1::__function::__base<void (GeodeNetwork*)>*) const
FUNC 37ec0 38 0 std::__ndk1::__function::__func<GDHistoryProvider::downloadLevel(std::__ndk1::function<void (LevelProvider*, GJGameLevel*)>)::$_0, std::__ndk1::allocator<GDHistoryProvider::downloadLevel(std::__ndk1::function<void (LevelProvider*, GJGameLevel*)>)::$_0>, void (GeodeNetwork*)>::destroy()
FUNC 37ef8 50 0 std::__ndk1::__function::__func<GDHistoryProvider::downloadLevel(std::__ndk1::function<void (LevelProvider*, GJGameLevel*)>)::$_0, std::__ndk1::allocator<GDHistoryProvider::downloadLevel(std::__ndk1::function<void (LevelProvider*, GJGameLevel*)>)::$_0>, void (GeodeNetwork*)>::destroy_deallocate()
FUNC 37f48 234 0 std::__ndk1::__function::__func<GDHistoryProvider::downloadLevel(std::__ndk1::function<void (LevelProvider*, GJGameLevel*)>)::$_0, std::__ndk1::allocator<GDHistoryProvider::downloadLevel(std::__ndk1::function<void (LevelProvider*, GJGameLevel*)>)::$_0>, void (GeodeNetwork*)>::operator()(GeodeNetwork*&&)
FUNC 3817c 1c 0 std::__ndk1::__function::__func<GDHistoryProvider::downloadLevel(std::__ndk1::function<void (LevelProvider*, GJGameLevel*)>)::$_0, std::__ndk1::allocator<GDHistoryProvider::downloadLevel(std::__ndk1::function<void (LevelProvider*, GJGameLevel*)>)::$_0>, void (GeodeNetwork*)>::target(std::type_info const&) const
FUNC 38198 c 0 std::__ndk1::__function::__func<GDHistoryProvider::downloadLevel(std::__ndk1::function<void (LevelProvider*, GJGameLevel*)>)::$_0, std::__ndk1::allocator<GDHistoryProvider::downloadLevel(std::__ndk1::function<void (LevelProvider*, GJGameLevel*)>)::$_0>, void (GeodeNetwork*)>::target_type() const
FUNC 381a4 ec 0 std::__ndk1::__function::__func<GDHistoryProvider::downloadLevel(std::__ndk1::function<void (LevelProvider*, GJGameLevel*)>)::$_1, std::__ndk1::allocator<GDHistoryProvider::downloadLevel(std::__ndk1::function<void (LevelProvider*, GJGameLevel*)>)::$_1>, void (GeodeNetwork*)>::~__func()
FUNC 38290 f4 0 std::__ndk1::__function::__func<GDHistoryProvider::downloadLevel(std::__ndk1::function<void (LevelProvider*, GJGameLevel*)>)::$_1, std::__ndk1::allocator<GDHistoryProvider::downloadLevel(std::__ndk1::function<void (LevelProvider*, GJGameLevel*)>)::$_1>, void (GeodeNetwork*)>::~__func()
FUNC 38384 e0 0 std::__ndk1::__function::__func<GDHistoryProvider::downloadLevel(std::__ndk1::function<void (LevelProvider*, GJGameLevel*)>)::$_1, std::__ndk1::allocator<GDHistoryProvider::downloadLevel(std::__ndk1::function<void (LevelProvider*, GJGameLevel*)>)::$_1>, void (GeodeNetwork*)>::__clone() const
FUNC 38464 d0 0 std::__ndk1::__function::__func<GDHistoryProvider::downloadLevel(std::__ndk1::function<void (LevelProvider*, GJGameLevel*)>)::$_1, std::__ndk1::allocator<GDHistoryProvider::downloadLevel(std::__ndk1::function<void (LevelProvider*, GJGameLevel*)>)::$_1>, void (GeodeNetwork*)>::__clone(std::__ndk1::__function::__base<void (GeodeNetwork*)>*) const
FUNC 38534 e0 0 std::__ndk1::__function::__func<GDHistoryProvider::downloadLevel(std::__ndk1::function<void (LevelProvider*, GJGameLevel*)>)::$_1, std::__ndk1::allocator<GDHistoryProvider::downloadLevel(std::__ndk1::function<void (LevelProvider*, GJGameLevel*)>)::$_1>, void (GeodeNetwork*)>::destroy()
FUNC 38614 e8 0 std::__ndk1::__function::__func<GDHistoryProvider::downloadLevel(std::__ndk1::function<void (LevelProvider*, GJGameLevel*)>)::$_1, std::__ndk1::allocator<GDHistoryProvider::downloadLevel(std::__ndk1::function<void (LevelProvider*, GJGameLevel*)>)::$_1>, void (GeodeNetwork*)>::destroy_deallocate()
FUNC 386fc 434 0 std::__ndk1::__function::__func<GDHistoryProvider::downloadLevel(std::__ndk1::function<void (LevelProvider*, GJGameLevel*)>)::$_1, std::__ndk1::allocator<GDHistoryProvider::downloadLevel(std::__ndk1::function<void (LevelProvider*, GJGameLevel*)>)::$_1>, void (GeodeNetwork*)>::operator()(GeodeNetwork*&&)
FUNC 38b30 1c 0 std::__ndk1::__function::__func<GDHistoryProvider::downloadLevel(std::__ndk1::function<void (LevelProvider*, GJGameLevel*)>)::$_1, std::__ndk1::allocator<GDHistoryProvider::downloadLevel(std::__ndk1::function<void (LevelProvider*, GJGameLevel*)>)::$_1>, void (GeodeNetwork*)>::target(std::type_info const&) const
FUNC 38b4c c 0 std::__ndk1::__function::__func<GDHistoryProvider::downloadLevel(std::__ndk1::function<void (LevelProvider*, GJGameLevel*)>)::$_1, std::__ndk1::allocator<GDHistoryProvider::downloadLevel(std::__ndk1::function<void (LevelProvider*, GJGameLevel*)>)::$_1>, void (GeodeNetwork*)>::target_type() const
FUNC 38b58 250 0 std::__ndk1::__hash_table<std::__ndk1::__hash_value_type<LevelProvider::LPFeatures, std::__ndk1::variant<std::__ndk1::basic_string<char, std::__ndk1::char_traits<char>, std::__ndk1::allocator<char> >, int> >, std::__ndk1::__unordered_map_hasher<LevelProvider::LPFeatures, std::__ndk1::__hash_value_type<LevelProvider::LPFeatures, std::__ndk1::variant<std::__ndk1::basic_string<char, std::__ndk1::char_traits<char>, std::__ndk1::allocator<char> >, int> >, std::__ndk1::hash<LevelProvider::LPFeatures>, std::__ndk1::equal_to<LevelProvider::LPFeatures>, true>, std::__ndk1::__unordered_map_equal<LevelProvider::LPFeatures, std::__ndk1::__hash_value_type<LevelProvider::LPFeatures, std::__ndk1::variant<std::__ndk1::basic_string<char, std::__ndk1::char_traits<char>, std::__ndk1::allocator<char> >, int> >, std::__ndk1::equal_to<LevelProvider::LPFeatures>, std::__ndk1::hash<LevelProvider::LPFeatures>, true>, std::__ndk1::allocator<std::__ndk1::__hash_value_type<LevelProvider::LPFeatures, std::__ndk1::variant<std::__ndk1::basic_string<char, std::__ndk1::char_traits<char>, std::__ndk1::allocator<char> >, int> > > >::__assign_multi<std::__ndk1::__hash_const_iterator<std::__ndk1::__hash_node<std::__ndk1::__hash_value_type<LevelProvider::LPFeatures, std::__ndk1::variant<std::__ndk1::basic_string<char, std::__ndk1::char_traits<char>, std::__ndk1::allocator<char> >, int> >, void*>*> >(std::__ndk1::__hash_const_iterator<std::__ndk1::__hash_node<std::__ndk1::__hash_value_type<LevelProvider::LPFeatures, std::__ndk1::variant<std::__ndk1::basic_string<char, std::__ndk1::char_traits<char>, std::__ndk1::allocator<char> >, int> >, void*>*>, std::__ndk1::__hash_const_iterator<std::__ndk1::__hash_node<std::__ndk1::__hash_value_type<LevelProvider::LPFeatures, std::__ndk1::variant<std::__ndk1::basic_string<char, std::__ndk1::char_traits<char>, std::__ndk1::allocator<char> >, int> >, void*>*>)
FUNC 38da8 428 0 std::__ndk1::__hash_table<std::__ndk1::__hash_value_type<LevelProvider::LPFeatures, std::__ndk1::variant<std::__ndk1::basic_string<char, std::__ndk1::char_traits<char>, std::__ndk1::allocator<char> >, int> >, std::__ndk1::__unordered_map_hasher<LevelProvider::LPFeatures, std::__ndk1::__hash_value_type<LevelProvider::LPFeatures, std::__ndk1::variant<std::__ndk1::basic_string<char, std::__ndk1::char_traits<char>, std::__ndk1::allocator<char> >, int> >, std::__ndk1::hash<LevelProvider::LPFeatures>, std::__ndk1::equal_to<LevelProvider::LPFeatures>, true>, std::__ndk1::__unordered_map_equal<LevelProvider::LPFeatures, std::__ndk1::__hash_value_type<LevelProvider::LPFeatures, std::__ndk1::variant<std::__ndk1::basic_string<char, std::__ndk1::char_traits<char>, std::__ndk1::allocator<char> >, int> >, std::__ndk1::equal_to<LevelProvider::LPFeatures>, std::__ndk1::hash<LevelProvider::LPFeatures>, true>, std::__ndk1::allocator<std::__ndk1::__hash_value_type<LevelProvider::LPFeatures, std::__ndk1::variant<std::__ndk1::basic_string<char, std::__ndk1::char_traits<char>, std::__ndk1::allocator<char> >, int> > > >::__node_insert_multi(std::__ndk1::__hash_node<std::__ndk1::__hash_value_type<LevelProvider::LPFeatures, std::__ndk1::variant<std::__ndk1::basic_string<char, std::__ndk1::char_traits<char>, std::__ndk1::allocator<char> >, int> >, void*>*)
FUNC 391d0 15c 0 std::__ndk1::__variant_detail::__visitation::__base::__dispatcher<(unsigned long)0, (unsigned long)0>::__dispatch[abi:ne180000]<std::__ndk1::__variant_detail::__assignment<std::__ndk1::__variant_detail::__traits<std::__ndk1::basic_string<char, std::__ndk1::char_traits<char>, std::__ndk1::allocator<char> >, int> >::__generic_assign[abi:ne180000]<std::__ndk1::__variant_detail::__copy_assignment<std::__ndk1::basic_string<char, std::__ndk1::char_traits<char>, std::__ndk1::allocator<char> >, (std::__ndk1::__variant_detail::_Trait)1> const&>(std::__ndk1::__variant_detail::__copy_assignment<std::__ndk1::basic_string<char, std::__ndk1::char_traits<char>, std::__ndk1::allocator<char> >, (std::__ndk1::__variant_detail::_Trait)1> const&)::{lambda(std::__ndk1::__variant_detail::__copy_assignment<std::__ndk1::basic_string<char, std::__ndk1::char_traits<char>, std::__ndk1::allocator<char> >, (std::__ndk1::__variant_detail::_Trait)1> const&, auto:2&&)#1}, std::__ndk1::__variant_detail::__base<(std::__ndk1::__variant_detail::__assignment<std::__ndk1::__variant_detail::__traits<std::__ndk1::basic_string<char, std::__ndk1::char_traits<char>, std::__ndk1::allocator<char> >, int> >::__generic_assign[abi:ne180000])1, std::__ndk1::allocator<char>, int>&, std::__ndk1::__variant_detail::__assignment<std::__ndk1::__variant_detail::__traits<std::__ndk1::basic_string<char, std::__ndk1::char_traits<char>, std::__ndk1::allocator<char> >, int> >::__generic_assign[abi:ne180000]<std::__ndk1::__variant_detail::__copy_assignment<std::__ndk1::basic_string<char, std::__ndk1::char_traits<char>, std::__ndk1::allocator<char> >, (std::__ndk1::__variant_detail::_Trait)1> const&>(std::__ndk1::__variant_detail::__copy_assignment<std::__ndk1::basic_string<char, std::__ndk1::char_traits<char>, std::__ndk1::allocator<char> >, (std::__ndk1::__variant_detail::_Trait)1> const&)::{lambda(std::__ndk1::__variant_detail::__copy_assignment<std::__ndk1::basic_string<char, std::__ndk1::char_traits<char>, std::__ndk1::allocator<char> >, (std::__ndk1::__variant_detail::_Trait)1> const&, auto:2&&)#1} const&>(std::__ndk1::__variant_detail::__copy_assignment<std::__ndk1::basic_string<char, std::__ndk1::char_traits<char>, std::__ndk1::allocator<char> >, (std::__ndk1::__variant_detail::_Trait)1> const, std::__ndk1::__variant_detail::__base<(std::__ndk1::__variant_detail::__assignment<std::__ndk1::__variant_detail::__traits<std::__ndk1::basic_string<char, std::__ndk1::char_traits<char>, std::__ndk1::allocator<char> >, int> >::__generic_assign[abi:ne180000])1, std::__ndk1::allocator<char>, int>&, std::__ndk1::__variant_detail::__assignment<std::__ndk1::__variant_detail::__traits<std::__ndk1::basic_string<char, std::__ndk1::char_traits<char>, std::__ndk1::allocator<char> >, int> >::__generic_assign[abi:ne180000]<std::__ndk1::__variant_detail::__copy_assignment<std::__ndk1::basic_string<char, std::__ndk1::char_traits<char>, std::__ndk1::allocator<char> >, (std::__ndk1::__variant_detail::_Trait)1> const&>(std::__ndk1::__variant_detail::__copy_assignment<std::__ndk1::basic_string<char, std::__ndk1::char_traits<char>, std::__ndk1::allocator<char> >, (std::__ndk1::__variant_detail::_Trait)1> const&)::{lambda(std::__ndk1::__variant_detail::__copy_assignment<std::__ndk1::basic_string<char, std::__ndk1::char_traits<char>, std::__ndk1::allocator<char> >, (std::__ndk1::__variant_detail::_Trait)1> const&, auto:2&&)#1} const&)
FUNC 3932c a8 0 std::__ndk1::__variant_detail::__visitation::__base::__dispatcher<(unsigned long)1, (unsigned long)1>::__dispatch[abi:ne180000]<std::__ndk1::__variant_detail::__assignment<std::__ndk1::__variant_detail::__traits<std::__ndk1::basic_string<char, std::__ndk1::char_traits<char>, std::__ndk1::allocator<char> >, int> >::__generic_assign[abi:ne180000]<std::__ndk1::__variant_detail::__copy_assignment<std::__ndk1::basic_string<char, std::__ndk1::char_traits<char>, std::__ndk1::allocator<char> >, (std::__ndk1::__variant_detail::_Trait)1> const&>(std::__ndk1::__variant_detail::__copy_assignment<std::__ndk1::basic_string<char, std::__ndk1::char_traits<char>, std::__ndk1::allocator<char> >, (std::__ndk1::__variant_detail::_Trait)1> const&)::{lambda(std::__ndk1::__variant_detail::__copy_assignment<std::__ndk1::basic_string<char, std::__ndk1::char_traits<char>, std::__ndk1::allocator<char> >, (std::__ndk1::__variant_detail::_Trait)1> const&, auto:2&&)#1}, std::__ndk1::__variant_detail::__base<(std::__ndk1::__variant_detail::__assignment<std::__ndk1::__variant_detail::__traits<std::__ndk1::basic_string<char, std::__ndk1::char_traits<char>, std::__ndk1::allocator<char> >, int> >::__generic_assign[abi:ne180000])1, std::__ndk1::allocator<char>, int>&, std::__ndk1::__variant_detail::__assignment<std::__ndk1::__variant_detail::__traits<std::__ndk1::basic_string<char, std::__ndk1::char_traits<char>, std::__ndk1::allocator<char> >, int> >::__generic_assign[abi:ne180000]<std::__ndk1::__variant_detail::__copy_assignment<std::__ndk1::basic_string<char, std::__ndk1::char_traits<char>, std::__ndk1::allocator<char> >, (std::__ndk1::__variant_detail::_Trait)1> const&>(std::__ndk1::__variant_detail::__copy_assignment<std::__ndk1::basic_string<char, std::__ndk1::char_traits<char>, std::__ndk1::allocator<char> >, (std::__ndk1::__variant_detail::_Trait)1> const&)::{lambda(std::__ndk1::__variant_detail::__copy_assignment<std::__ndk1::basic_string<char, std::__ndk1::char_traits<char>, std::__ndk1::allocator<char> >, (std::__ndk1::__variant_detail::_Trait)1> const&, auto:2&&)#1} const&>(std::__ndk1::__variant_detail::__copy_assignment<std::__ndk1::basic_string<char, std::__ndk1::char_traits<char>, std::__ndk1::allocator<char> >, (std::__ndk1::__variant_detail::_Trait)1> const, std::__ndk1::__variant_detail::__base<(std::__ndk1::__variant_detail::__assignment<std::__ndk1::__variant_detail::__traits<std::__ndk1::basic_string<char, std::__ndk1::char_traits<char>, std::__ndk1::allocator<char> >, int> >::__generic_assign[abi:ne180000])1, std::__ndk1::allocator<char>, int>&, std::__ndk1::__variant_detail::__assignment<std::__ndk1::__variant_detail::__traits<std::__ndk1::basic_string<char, std::__ndk1::char_traits<char>, std::__ndk1::allocator<char> >, int> >::__generic_assign[abi:ne180000]<std::__ndk1::__variant_detail::__copy_assignment<std::__ndk1::basic_string<char, std::__ndk1::char_traits<char>, std::__ndk1::allocator<char> >, (std::__ndk1::__variant_detail::_Trait)1> const&>(std::__ndk1::__variant_detail::__copy_assignment<std::__ndk1::basic_string<char, std::__ndk1::char_traits<char>, std::__ndk1::allocator<char> >, (std::__ndk1::__variant_detail::_Trait)1> const&)::{lambda(std::__ndk1::__variant_detail::__copy_assignment<std::__ndk1::basic_string<char, std::__ndk1::char_traits<char>, std::__ndk1::allocator<char> >, (std::__ndk1::__variant_detail::_Trait)1> const&, auto:2&&)#1} const&)
FUNC 393d4 2d8 0 std::__ndk1::vector<LevelProvider::Cached, std::__ndk1::allocator<LevelProvider::Cached> >::__push_back_slow_path<LevelProvider::Cached const&>(LevelProvider::Cached const&)
FUNC 396ac 54 0 std::__ndk1::__split_buffer<LevelProvider::Cached, std::__ndk1::allocator<LevelProvider::Cached>&>::~__split_buffer()
FUNC 39700 14 0 std::__ndk1::vector<LevelProvider::Cached, std::__ndk1::allocator<LevelProvider::Cached> >::__throw_length_error[abi:ne180000]() const
FUNC 39714 44 0 std::__ndk1::__function::__func<GDHistoryProvider::downloadLevel(std::__ndk1::function<void (LevelProvider*, GJGameLevel*)>)::$_2, std::__ndk1::allocator<GDHistoryProvider::downloadLevel(std::__ndk1::function<void (LevelProvider*, GJGameLevel*)>)::$_2>, void (GeodeNetwork*)>::~__func()
FUNC 39758 5c 0 std::__ndk1::__function::__func<GDHistoryProvider::downloadLevel(std::__ndk1::function<void (LevelProvider*, GJGameLevel*)>)::$_2, std::__ndk1::allocator<GDHistoryProvider::downloadLevel(std::__ndk1::function<void (LevelProvider*, GJGameLevel*)>)::$_2>, void (GeodeNetwork*)>::~__func()
FUNC 397b4 90 0 std::__ndk1::__function::__func<GDHistoryProvider::downloadLevel(std::__ndk1::function<void (LevelProvider*, GJGameLevel*)>)::$_2, std::__ndk1::allocator<GDHistoryProvider::downloadLevel(std::__ndk1::function<void (LevelProvider*, GJGameLevel*)>)::$_2>, void (GeodeNetwork*)>::__clone() const
FUNC 39844 80 0 std::__ndk1::__function::__func<GDHistoryProvider::downloadLevel(std::__ndk1::function<void (LevelProvider*, GJGameLevel*)>)::$_2, std::__ndk1::allocator<GDHistoryProvider::downloadLevel(std::__ndk1::function<void (LevelProvider*, GJGameLevel*)>)::$_2>, void (GeodeNetwork*)>::__clone(std::__ndk1::__function::__base<void (GeodeNetwork*)>*) const
FUNC 398c4 38 0 std::__ndk1::__function::__func<GDHistoryProvider::downloadLevel(std::__ndk1::function<void (LevelProvider*, GJGameLevel*)>)::$_2, std::__ndk1::allocator<GDHistoryProvider::downloadLevel(std::__ndk1::function<void (LevelProvider*, GJGameLevel*)>)::$_2>, void (GeodeNetwork*)>::destroy()
FUNC 398fc 50 0 std::__ndk1::__function::__func<GDHistoryProvider::downloadLevel(std::__ndk1::function<void (LevelProvider*, GJGameLevel*)>)::$_2, std::__ndk1::allocator<GDHistoryProvider::downloadLevel(std::__ndk1::function<void (LevelProvider*, GJGameLevel*)>)::$_2>, void (GeodeNetwork*)>::destroy_deallocate()
FUNC 3994c 234 0 std::__ndk1::__function::__func<GDHistoryProvider::downloadLevel(std::__ndk1::function<void (LevelProvider*, GJGameLevel*)>)::$_2, std::__ndk1::allocator<GDHistoryProvider::downloadLevel(std::__ndk1::function<void (LevelProvider*, GJGameLevel*)>)::$_2>, void (GeodeNetwork*)>::operator()(GeodeNetwork*&&)
FUNC 39b80 1c 0 std::__ndk1::__function::__func<GDHistoryProvider::downloadLevel(std::__ndk1::function<void (LevelProvider*, GJGameLevel*)>)::$_2, std::__ndk1::allocator<GDHistoryProvider::downloadLevel(std::__ndk1::function<void (LevelProvider*, GJGameLevel*)>)::$_2>, void (GeodeNetwork*)>::target(std::type_info const&) const
FUNC 39b9c c 0 std::__ndk1::__function::__func<GDHistoryProvider::downloadLevel(std::__ndk1::function<void (LevelProvider*, GJGameLevel*)>)::$_2, std::__ndk1::allocator<GDHistoryProvider::downloadLevel(std::__ndk1::function<void (LevelProvider*, GJGameLevel*)>)::$_2>, void (GeodeNetwork*)>::target_type() const
FUNC 39ba8 ec 0 std::__ndk1::__function::__func<GDHistoryProvider::downloadLevel(std::__ndk1::function<void (LevelProvider*, GJGameLevel*)>)::$_3, std::__ndk1::allocator<GDHistoryProvider::downloadLevel(std::__ndk1::function<void (LevelProvider*, GJGameLevel*)>)::$_3>, void (GeodeNetwork*)>::~__func()
FUNC 39c94 f4 0 std::__ndk1::__function::__func<GDHistoryProvider::downloadLevel(std::__ndk1::function<void (LevelProvider*, GJGameLevel*)>)::$_3, std::__ndk1::allocator<GDHistoryProvider::downloadLevel(std::__ndk1::function<void (LevelProvider*, GJGameLevel*)>)::$_3>, void (GeodeNetwork*)>::~__func()
FUNC 39d88 e0 0 std::__ndk1::__function::__func<GDHistoryProvider::downloadLevel(std::__ndk1::function<void (LevelProvider*, GJGameLevel*)>)::$_3, std::__ndk1::allocator<GDHistoryProvider::downloadLevel(std::__ndk1::function<void (LevelProvider*, GJGameLevel*)>)::$_3>, void (GeodeNetwork*)>::__clone() const
FUNC 39e68 d0 0 std::__ndk1::__function::__func<GDHistoryProvider::downloadLevel(std::__ndk1::function<void (LevelProvider*, GJGameLevel*)>)::$_3, std::__ndk1::allocator<GDHistoryProvider::downloadLevel(std::__ndk1::function<void (LevelProvider*, GJGameLevel*)>)::$_3>, void (GeodeNetwork*)>::__clone(std::__ndk1::__function::__base<void (GeodeNetwork*)>*) const
FUNC 39f38 e0 0 std::__ndk1::__function::__func<GDHistoryProvider::downloadLevel(std::__ndk1::function<void (LevelProvider*, GJGameLevel*)>)::$_3, std::__ndk1::allocator<GDHistoryProvider::downloadLevel(std::__ndk1::function<void (LevelProvider*, GJGameLevel*)>)::$_3>, void (GeodeNetwork*)>::destroy()
FUNC 3a018 e8 0 std::__ndk1::__function::__func<GDHistoryProvider::downloadLevel(std::__ndk1::function<void (LevelProvider*, GJGameLevel*)>)::$_3, std::__ndk1::allocator<GDHistoryProvider::downloadLevel(std::__ndk1::function<void (LevelProvider*, GJGameLevel*)>)::$_3>, void (GeodeNetwork*)>::destroy_deallocate()
FUNC 3a100 434 0 std::__ndk1::__function::__func<GDHistoryProvider::downloadLevel(std::__ndk1::function<void (LevelProvider*, GJGameLevel*)>)::$_3, std::__ndk1::allocator<GDHistoryProvider::downloadLevel(std::__ndk1::function<void (LevelProvider*, GJGameLevel*)>)::$_3>, void (GeodeNetwork*)>::operator()(GeodeNetwork*&&)
FUNC 3a534 1c 0 std::__ndk1::__function::__func<GDHistoryProvider::downloadLevel(std::__ndk1::function<void (LevelProvider*, GJGameLevel*)>)::$_3, std::__ndk1::allocator<GDHistoryProvider::downloadLevel(std::__ndk1::function<void (LevelProvider*, GJGameLevel*)>)::$_3>, void (GeodeNetwork*)>::target(std::type_info const&) const
FUNC 3a550 c 0 std::__ndk1::__function::__func<GDHistoryProvider::downloadLevel(std::__ndk1::function<void (LevelProvider*, GJGameLevel*)>)::$_3, std::__ndk1::allocator<GDHistoryProvider::downloadLevel(std::__ndk1::function<void (LevelProvider*, GJGameLevel*)>)::$_3>, void (GeodeNetwork*)>::target_type() const
FUNC 3a55c 2cc 0 std::__ndk1::__hash_table<std::__ndk1::__hash_value_type<LevelProvider::LPFeatures, bool>, std::__ndk1::__unordered_map_hasher<LevelProvider::LPFeatures, std::__ndk1::__hash_value_type<LevelProvider::LPFeatures, bool>, std::__ndk1::hash<LevelProvider::LPFeatures>, std::__ndk1::equal_to<LevelProvider::LPFeatures>, true>, std::__ndk1::__unordered_map_equal<LevelProvider::LPFeatures, std::__ndk1::__hash_value_type<LevelProvider::LPFeatures, bool>, std::__ndk1::equal_to<LevelProvider::LPFeatures>, std::__ndk1::hash<LevelProvider::LPFeatures>, true>, std::__ndk1::allocator<std::__ndk1::__hash_value_type<LevelProvider::LPFeatures, bool> > >::__emplace_unique_key_args<LevelProvider::LPFeatures, std::__ndk1::piecewise_construct_t const&, std::__ndk1::tuple<LevelProvider::LPFeatures&&>, std::__ndk1::tuple<> >(LevelProvider::LPFeatures const&, std::__ndk1::piecewise_construct_t const&, std::__ndk1::tuple<LevelProvider::LPFeatures&&>, std::__ndk1::tuple<>)
FUNC 3a828 15c 0 std::__ndk1::__hash_table<std::__ndk1::__hash_value_type<LevelProvider::LPFeatures, bool>, std::__ndk1::__unordered_map_hasher<LevelProvider::LPFeatures, std::__ndk1::__hash_value_type<LevelProvider::LPFeatures, bool>, std::__ndk1::hash<LevelProvider::LPFeatures>, std::__ndk1::equal_to<LevelProvider::LPFeatures>, true>, std::__ndk1::__unordered_map_equal<LevelProvider::LPFeatures, std::__ndk1::__hash_value_type<LevelProvider::LPFeatures, bool>, std::__ndk1::equal_to<LevelProvider::LPFeatures>, std::__ndk1::hash<LevelProvider::LPFeatures>, true>, std::__ndk1::allocator<std::__ndk1::__hash_value_type<LevelProvider::LPFeatures, bool> > >::__do_rehash<true>(unsigned long)
FUNC 3a984 70 0 std::__ndk1::__function::__func<GDHistoryProvider::getLevelData(int, std::__ndk1::function<void (LevelProvider*, std::__ndk1::basic_string<char, std::__ndk1::char_traits<char>, std::__ndk1::allocator<char> >, LevelProvider::BasicLevelInformation)>)::$_0, std::__ndk1::allocator<GDHistoryProvider::getLevelData(int, std::__ndk1::function<void (LevelProvider*, std::__ndk1::basic_string<char, std::__ndk1::char_traits<char>, std::__ndk1::allocator<char> >, LevelProvider::BasicLevelInformation)>)::$_0>, void (LevelProvider*, GJGameLevel*)>::~__func()
FUNC 3a9f4 6c 0 std::__ndk1::__function::__func<GDHistoryProvider::getLevelData(int, std::__ndk1::function<void (LevelProvider*, std::__ndk1::basic_string<char, std::__ndk1::char_traits<char>, std::__ndk1::allocator<char> >, LevelProvider::BasicLevelInformation)>)::$_0, std::__ndk1::allocator<GDHistoryProvider::getLevelData(int, std::__ndk1::function<void (LevelProvider*, std::__ndk1::basic_string<char, std::__ndk1::char_traits<char>, std::__ndk1::allocator<char> >, LevelProvider::BasicLevelInformation)>)::$_0>, void (LevelProvider*, GJGameLevel*)>::~__func()
FUNC 3aa60 54 0 std::__ndk1::__function::__func<GDHistoryProvider::getLevelData(int, std::__ndk1::function<void (LevelProvider*, std::__ndk1::basic_string<char, std::__ndk1::char_traits<char>, std::__ndk1::allocator<char> >, LevelProvider::BasicLevelInformation)>)::$_0, std::__ndk1::allocator<GDHistoryProvider::getLevelData(int, std::__ndk1::function<void (LevelProvider*, std::__ndk1::basic_string<char, std::__ndk1::char_traits<char>, std::__ndk1::allocator<char> >, LevelProvider::BasicLevelInformation)>)::$_0>, void (LevelProvider*, GJGameLevel*)>::__clone() const
FUNC 3aab4 1c 0 std::__ndk1::__function::__func<GDHistoryProvider::getLevelData(int, std::__ndk1::function<void (LevelProvider*, std::__ndk1::basic_string<char, std::__ndk1::char_traits<char>, std::__ndk1::allocator<char> >, LevelProvider::BasicLevelInformation)>)::$_0, std::__ndk1::allocator<GDHistoryProvider::getLevelData(int, std::__ndk1::function<void (LevelProvider*, std::__ndk1::basic_string<char, std::__ndk1::char_traits<char>, std::__ndk1::allocator<char> >, LevelProvider::BasicLevelInformation)>)::$_0>, void (LevelProvider*, GJGameLevel*)>::__clone(std::__ndk1::__function::__base<void (LevelProvider*, GJGameLevel*)>*) const
FUNC 3aad0 64 0 std::__ndk1::__function::__func<GDHistoryProvider::getLevelData(int, std::__ndk1::function<void (LevelProvider*, std::__ndk1::basic_string<char, std::__ndk1::char_traits<char>, std::__ndk1::allocator<char> >, LevelProvider::BasicLevelInformation)>)::$_0, std::__ndk1::allocator<GDHistoryProvider::getLevelData(int, std::__ndk1::function<void (LevelProvider*, std::__ndk1::basic_string<char, std::__ndk1::char_traits<char>, std::__ndk1::allocator<char> >, LevelProvider::BasicLevelInformation)>)::$_0>, void (LevelProvider*, GJGameLevel*)>::destroy()
FUNC 3ab34 60 0 std::__ndk1::__function::__func<GDHistoryProvider::getLevelData(int, std::__ndk1::function<void (LevelProvider*, std::__ndk1::basic_string<char, std::__ndk1::char_traits<char>, std::__ndk1::allocator<char> >, LevelProvider::BasicLevelInformation)>)::$_0, std::__ndk1::allocator<GDHistoryProvider::getLevelData(int, std::__ndk1::function<void (LevelProvider*, std::__ndk1::basic_string<char, std::__ndk1::char_traits<char>, std::__ndk1::allocator<char> >, LevelProvider::BasicLevelInformation)>)::$_0>, void (LevelProvider*, GJGameLevel*)>::destroy_deallocate()
FUNC 3ab94 77c 0 std::__ndk1::__function::__func<GDHistoryProvider::getLevelData(int, std::__ndk1::function<void (LevelProvider*, std::__ndk1::basic_string<char, std::__ndk1::char_traits<char>, std::__ndk1::allocator<char> >, LevelProvider::BasicLevelInformation)>)::$_0, std::__ndk1::allocator<GDHistoryProvider::getLevelData(int, std::__ndk1::function<void (LevelProvider*, std::__ndk1::basic_string<char, std::__ndk1::char_traits<char>, std::__ndk1::allocator<char> >, LevelProvider::BasicLevelInformation)>)::$_0>, void (LevelProvider*, GJGameLevel*)>::operator()(LevelProvider*&&, GJGameLevel*&&)
FUNC 3b310 1c 0 std::__ndk1::__function::__func<GDHistoryProvider::getLevelData(int, std::__ndk1::function<void (LevelProvider*, std::__ndk1::basic_string<char, std::__ndk1::char_traits<char>, std::__ndk1::allocator<char> >, LevelProvider::BasicLevelInformation)>)::$_0, std::__ndk1::allocator<GDHistoryProvider::getLevelData(int, std::__ndk1::function<void (LevelProvider*, std::__ndk1::basic_string<char, std::__ndk1::char_traits<char>, std::__ndk1::allocator<char> >, LevelProvider::BasicLevelInformation)>)::$_0>, void (LevelProvider*, GJGameLevel*)>::target(std::type_info const&) const
FUNC 3b32c c 0 std::__ndk1::__function::__func<GDHistoryProvider::getLevelData(int, std::__ndk1::function<void (LevelProvider*, std::__ndk1::basic_string<char, std::__ndk1::char_traits<char>, std::__ndk1::allocator<char> >, LevelProvider::BasicLevelInformation)>)::$_0, std::__ndk1::allocator<GDHistoryProvider::getLevelData(int, std::__ndk1::function<void (LevelProvider*, std::__ndk1::basic_string<char, std::__ndk1::char_traits<char>, std::__ndk1::allocator<char> >, LevelProvider::BasicLevelInformation)>)::$_0>, void (LevelProvider*, GJGameLevel*)>::target_type() const
FUNC 3b338 124 0 std::__ndk1::__compressed_pair_elem<GDHistoryProvider::getLevelData(int, std::__ndk1::function<void (LevelProvider*, std::__ndk1::basic_string<char, std::__ndk1::char_traits<char>, std::__ndk1::allocator<char> >, LevelProvider::BasicLevelInformation)>)::$_0, 0, false>::__compressed_pair_elem[abi:ne180000]<GDHistoryProvider::getLevelData(int, std::__ndk1::function<void (LevelProvider*, std::__ndk1::basic_string<char, std::__ndk1::char_traits<char>, std::__ndk1::allocator<char> >, LevelProvider::BasicLevelInformation)>)::$_0 const&, (unsigned long)0>(std::__ndk1::tuple<GDHistoryProvider::getLevelData(int, std::__ndk1::function<void (LevelProvider*, std::__ndk1::basic_string<char, std::__ndk1::char_traits<char>, std::__ndk1::allocator<char> >, LevelProvider::BasicLevelInformation)>)::$_0 const&>, std::__ndk1::__tuple_indices<((unsigned long)0)...>)
FUNC 3b45c 44 0 std::__ndk1::__function::__func<GDHistoryProvider::getLevelData(int, std::__ndk1::function<void (LevelProvider*, std::__ndk1::basic_string<char, std::__ndk1::char_traits<char>, std::__ndk1::allocator<char> >, LevelProvider::BasicLevelInformation)>)::$_1, std::__ndk1::allocator<GDHistoryProvider::getLevelData(int, std::__ndk1::function<void (LevelProvider*, std::__ndk1::basic_string<char, std::__ndk1::char_traits<char>, std::__ndk1::allocator<char> >, LevelProvider::BasicLevelInformation)>)::$_1>, void (GeodeNetwork*)>::~__func()
FUNC 3b4a0 5c 0 std::__ndk1::__function::__func<GDHistoryProvider::getLevelData(int, std::__ndk1::function<void (LevelProvider*, std::__ndk1::basic_string<char, std::__ndk1::char_traits<char>, std::__ndk1::allocator<char> >, LevelProvider::BasicLevelInformation)>)::$_1, std::__ndk1::allocator<GDHistoryProvider::getLevelData(int, std::__ndk1::function<void (LevelProvider*, std::__ndk1::basic_string<char, std::__ndk1::char_traits<char>, std::__ndk1::allocator<char> >, LevelProvider::BasicLevelInformation)>)::$_1>, void (GeodeNetwork*)>::~__func()
FUNC 3b4fc 98 0 std::__ndk1::__function::__func<GDHistoryProvider::getLevelData(int, std::__ndk1::function<void (LevelProvider*, std::__ndk1::basic_string<char, std::__ndk1::char_traits<char>, std::__ndk1::allocator<char> >, LevelProvider::BasicLevelInformation)>)::$_1, std::__ndk1::allocator<GDHistoryProvider::getLevelData(int, std::__ndk1::function<void (LevelProvider*, std::__ndk1::basic_string<char, std::__ndk1::char_traits<char>, std::__ndk1::allocator<char> >, LevelProvider::BasicLevelInformation)>)::$_1>, void (GeodeNetwork*)>::__clone() const
FUNC 3b594 84 0 std::__ndk1::__function::__func<GDHistoryProvider::getLevelData(int, std::__ndk1::function<void (LevelProvider*, std::__ndk1::basic_string<char, std::__ndk1::char_traits<char>, std::__ndk1::allocator<char> >, LevelProvider::BasicLevelInformation)>)::$_1, std::__ndk1::allocator<GDHistoryProvider::getLevelData(int, std::__ndk1::function<void (LevelProvider*, std::__ndk1::basic_string<char, std::__ndk1::char_traits<char>, std::__ndk1::allocator<char> >, LevelProvider::BasicLevelInformation)>)::$_1>, void (GeodeNetwork*)>::__clone(std::__ndk1::__function::__base<void (GeodeNetwork*)>*) const
FUNC 3b618 38 0 std::__ndk1::__function::__func<GDHistoryProvider::getLevelData(int, std::__ndk1::function<void (LevelProvider*, std::__ndk1::basic_string<char, std::__ndk1::char_traits<char>, std::__ndk1::allocator<char> >, LevelProvider::BasicLevelInformation)>)::$_1, std::__ndk1::allocator<GDHistoryProvider::getLevelData(int, std::__ndk1::function<void (LevelProvider*, std::__ndk1::basic_string<char, std::__ndk1::char_traits<char>, std::__ndk1::allocator<char> >, LevelProvider::BasicLevelInformation)>)::$_1>, void (GeodeNetwork*)>::destroy()
FUNC 3b650 50 0 std::__ndk1::__function::__func<GDHistoryProvider::getLevelData(int, std::__ndk1::function<void (LevelProvider*, std::__ndk1::basic_string<char, std::__ndk1::char_traits<char>, std::__ndk1::allocator<char> >, LevelProvider::BasicLevelInformation)>)::$_1, std::__ndk1::allocator<GDHistoryProvider::getLevelData(int, std::__ndk1::function<void (LevelProvider*, std::__ndk1::basic_string<char, std::__ndk1::char_traits<char>, std::__ndk1::allocator<char> >, LevelProvider::BasicLevelInformation)>)::$_1>, void (GeodeNetwork*)>::destroy_deallocate()
FUNC 3b6a0 164 0 std::__ndk1::__function::__func<GDHistoryProvider::getLevelData(int, std::__ndk1::function<void (LevelProvider*, std::__ndk1::basic_string<char, std::__ndk1::char_traits<char>, std::__ndk1::allocator<char> >, LevelProvider::BasicLevelInformation)>)::$_1, std::__ndk1::allocator<GDHistoryProvider::getLevelData(int, std::__ndk1::function<void (LevelProvider*, std::__ndk1::basic_string<char, std::__ndk1::char_traits<char>, std::__ndk1::allocator<char> >, LevelProvider::BasicLevelInformation)>)::$_1>, void (GeodeNetwork*)>::operator()(GeodeNetwork*&&)
FUNC 3b804 1c 0 std::__ndk1::__function::__func<GDHistoryProvider::getLevelData(int, std::__ndk1::function<void (LevelProvider*, std::__ndk1::basic_string<char, std::__ndk1::char_traits<char>, std::__ndk1::allocator<char> >, LevelProvider::BasicLevelInformation)>)::$_1, std::__ndk1::allocator<GDHistoryProvider::getLevelData(int, std::__ndk1::function<void (LevelProvider*, std::__ndk1::basic_string<char, std::__ndk1::char_traits<char>, std::__ndk1::allocator<char> >, LevelProvider::BasicLevelInformation)>)::$_1>, void (GeodeNetwork*)>::target(std::type_info const&) const
FUNC 3b820 c 0 std::__ndk1::__function::__func<GDHistoryProvider::getLevelData(int, std::__ndk1::function<void (LevelProvider*, std::__ndk1::basic_string<char, std::__ndk1::char_traits<char>, std::__ndk1::allocator<char> >, LevelProvider::BasicLevelInformation)>)::$_1, std::__ndk1::allocator<GDHistoryProvider::getLevelData(int, std::__ndk1::function<void (LevelProvider*, std::__ndk1::basic_string<char, std::__ndk1::char_traits<char>, std::__ndk1::allocator<char> >, LevelProvider::BasicLevelInformation)>)::$_1>, void (GeodeNetwork*)>::target_type() const
FUNC 3b82c ec 0 std::__ndk1::__function::__func<GDHistoryProvider::getLevelData(int, std::__ndk1::function<void (LevelProvider*, std::__ndk1::basic_string<char, std::__ndk1::char_traits<char>, std::__ndk1::allocator<char> >, LevelProvider::BasicLevelInformation)>)::$_2, std::__ndk1::allocator<GDHistoryProvider::getLevelData(int, std::__ndk1::function<void (LevelProvider*, std::__ndk1::basic_string<char, std::__ndk1::char_traits<char>, std::__ndk1::allocator<char> >, LevelProvider::BasicLevelInformation)>)::$_2>, void (GeodeNetwork*)>::~__func()
FUNC 3b918 f4 0 std::__ndk1::__function::__func<GDHistoryProvider::getLevelData(int, std::__ndk1::function<void (LevelProvider*, std::__ndk1::basic_string<char, std::__ndk1::char_traits<char>, std::__ndk1::allocator<char> >, LevelProvider::BasicLevelInformation)>)::$_2, std::__ndk1::allocator<GDHistoryProvider::getLevelData(int, std::__ndk1::function<void (LevelProvider*, std::__ndk1::basic_string<char, std::__ndk1::char_traits<char>, std::__ndk1::allocator<char> >, LevelProvider::BasicLevelInformation)>)::$_2>, void (GeodeNetwork*)>::~__func()
FUNC 3ba0c e8 0 std::__ndk1::__function::__func<GDHistoryProvider::getLevelData(int, std::__ndk1::function<void (LevelProvider*, std::__ndk1::basic_string<char, std::__ndk1::char_traits<char>, std::__ndk1::allocator<char> >, LevelProvider::BasicLevelInformation)>)::$_2, std::__ndk1::allocator<GDHistoryProvider::getLevelData(int, std::__ndk1::function<void (LevelProvider*, std::__ndk1::basic_string<char, std::__ndk1::char_traits<char>, std::__ndk1::allocator<char> >, LevelProvider::BasicLevelInformation)>)::$_2>, void (GeodeNetwork*)>::__clone() const
FUNC 3baf4 d8 0 std::__ndk1::__function::__func<GDHistoryProvider::getLevelData(int, std::__ndk1::function<void (LevelProvider*, std::__ndk1::basic_string<char, std::__ndk1::char_traits<char>, std::__ndk1::allocator<char> >, LevelProvider::BasicLevelInformation)>)::$_2, std::__ndk1::allocator<GDHistoryProvider::getLevelData(int, std::__ndk1::function<void (LevelProvider*, std::__ndk1::basic_string<char, std::__ndk1::char_traits<char>, std::__ndk1::allocator<char> >, LevelProvider::BasicLevelInformation)>)::$_2>, void (GeodeNetwork*)>::__clone(std::__ndk1::__function::__base<void (GeodeNetwork*)>*) const
FUNC 3bbcc e0 0 std::__ndk1::__function::__func<GDHistoryProvider::getLevelData(int, std::__ndk1::function<void (LevelProvider*, std::__ndk1::basic_string<char, std::__ndk1::char_traits<char>, std::__ndk1::allocator<char> >, LevelProvider::BasicLevelInformation)>)::$_2, std::__ndk1::allocator<GDHistoryProvider::getLevelData(int, std::__ndk1::function<void (LevelProvider*, std::__ndk1::basic_string<char, std::__ndk1::char_traits<char>, std::__ndk1::allocator<char> >, LevelProvider::BasicLevelInformation)>)::$_2>, void (GeodeNetwork*)>::destroy()
FUNC 3bcac e8 0 std::__ndk1::__function::__func<GDHistoryProvider::getLevelData(int, std::__ndk1::function<void (LevelProvider*, std::__ndk1::basic_string<char, std::__ndk1::char_traits<char>, std::__ndk1::allocator<char> >, LevelProvider::BasicLevelInformation)>)::$_2, std::__ndk1::allocator<GDHistoryProvider::getLevelData(int, std::__ndk1::function<void (LevelProvider*, std::__ndk1::basic_string<char, std::__ndk1::char_traits<char>, std::__ndk1::allocator<char> >, LevelProvider::BasicLevelInformation)>)::$_2>, void (GeodeNetwork*)>::destroy_deallocate()
FUNC 3bd94 360 0 std::__ndk1::__function::__func<GDHistoryProvider::getLevelData(int, std::__ndk1::function<void (LevelProvider*, std::__ndk1::basic_string<char, std::__ndk1::char_traits<char>, std::__ndk1::allocator<char> >, LevelProvider::BasicLevelInformation)>)::$_2, std::__ndk1::allocator<GDHistoryProvider::getLevelData(int, std::__ndk1::function<void (LevelProvider*, std::__ndk1::basic_string<char, std::__ndk1::char_traits<char>, std::__ndk1::allocator<char> >, LevelProvider::BasicLevelInformation)>)::$_2>, void (GeodeNetwork*)>::operator()(GeodeNetwork*&&)
FUNC 3c0f4 1c 0 std::__ndk1::__function::__func<GDHistoryProvider::getLevelData(int, std::__ndk1::function<void (LevelProvider*, std::__ndk1::basic_string<char, std::__ndk1::char_traits<char>, std::__ndk1::allocator<char> >, LevelProvider::BasicLevelInformation)>)::$_2, std::__ndk1::allocator<GDHistoryProvider::getLevelData(int, std::__ndk1::function<void (LevelProvider*, std::__ndk1::basic_string<char, std::__ndk1::char_traits<char>, std::__ndk1::allocator<char> >, LevelProvider::BasicLevelInformation)>)::$_2>, void (GeodeNetwork*)>::target(std::type_info const&) const
FUNC 3c110 c 0 std::__ndk1::__function::__func<GDHistoryProvider::getLevelData(int, std::__ndk1::function<void (LevelProvider*, std::__ndk1::basic_string<char, std::__ndk1::char_traits<char>, std::__ndk1::allocator<char> >, LevelProvider::BasicLevelInformation)>)::$_2, std::__ndk1::allocator<GDHistoryProvider::getLevelData(int, std::__ndk1::function<void (LevelProvider*, std::__ndk1::basic_string<char, std::__ndk1::char_traits<char>, std::__ndk1::allocator<char> >, LevelProvider::BasicLevelInformation)>)::$_2>, void (GeodeNetwork*)>::target_type() const
FUNC 3c11c 80 0 std::__ndk1::__hash_table<std::__ndk1::__hash_value_type<std::__ndk1::basic_string<char, std::__ndk1::char_traits<char>, std::__ndk1::allocator<char> >, std::__ndk1::basic_string<char, std::__ndk1::char_traits<char>, std::__ndk1::allocator<char> > >, std::__ndk1::__unordered_map_hasher<std::__ndk1::basic_string<char, std::__ndk1::char_traits<char>, std::__ndk1::allocator<char> >, std::__ndk1::__hash_value_type<std::__ndk1::basic_string<char, std::__ndk1::char_traits<char>, std::__ndk1::allocator<char> >, std::__ndk1::basic_string<char, std::__ndk1::char_traits<char>, std::__ndk1::allocator<char> > >, std::__ndk1::hash<std::__ndk1::basic_string<char, std::__ndk1::char_traits<char>, std::__ndk1::allocator<char> > >, std::__ndk1::equal_to<std::__ndk1::basic_string<char, std::__ndk1::char_traits<char>, std::__ndk1::allocator<char> > >, true>, std::__ndk1::__unordered_map_equal<std::__ndk1::basic_string<char, std::__ndk1::char_traits<char>, std::__ndk1::allocator<char> >, std::__ndk1::__hash_value_type<std::__ndk1::basic_string<char, std::__ndk1::char_traits<char>, std::__ndk1::allocator<char> >, std::__ndk1::basic_string<char, std::__ndk1::char_traits<char>, std::__ndk1::allocator<char> > >, std::__ndk1::equal_to<std::__ndk1::basic_string<char, std::__ndk1::char_traits<char>, std::__ndk1::allocator<char> > >, std::__ndk1::hash<std::__ndk1::basic_string<char, std::__ndk1::char_traits<char>, std::__ndk1::allocator<char> > >, true>, std::__ndk1::allocator<std::__ndk1::__hash_value_type<std::__ndk1::basic_string<char, std::__ndk1::char_traits<char>, std::__ndk1::allocator<char> >, std::__ndk1::basic_string<char, std::__ndk1::char_traits<char>, std::__ndk1::allocator<char> > > > >::~__hash_table()
FUNC 3c19c 3fc 0 std::__ndk1::__hash_table<std::__ndk1::__hash_value_type<std::__ndk1::basic_string<char, std::__ndk1::char_traits<char>, std::__ndk1::allocator<char> >, std::__ndk1::basic_string<char, std::__ndk1::char_traits<char>, std::__ndk1::allocator<char> > >, std::__ndk1::__unordered_map_hasher<std::__ndk1::basic_string<char, std::__ndk1::char_traits<char>, std::__ndk1::allocator<char> >, std::__ndk1::__hash_value_type<std::__ndk1::basic_string<char, std::__ndk1::char_traits<char>, std::__ndk1::allocator<char> >, std::__ndk1::basic_string<char, std::__ndk1::char_traits<char>, std::__ndk1::allocator<char> > >, std::__ndk1::hash<std::__ndk1::basic_string<char, std::__ndk1::char_traits<char>, std::__ndk1::allocator<char> > >, std::__ndk1::equal_to<std::__ndk1::basic_string<char, std::__ndk1::char_traits<char>, std::__ndk1::allocator<char> > >, true>, std::__ndk1::__unordered_map_equal<std::__ndk1::basic_string<char, std::__ndk1::char_traits<char>, std::__ndk1::allocator<char> >, std::__ndk1::__hash_value_type<std::__ndk1::basic_string<char, std::__ndk1::char_traits<char>, std::__ndk1::allocator<char> >, std::__ndk1::basic_string<char, std::__ndk1::char_traits<char>, std::__ndk1::allocator<char> > >, std::__ndk1::equal_to<std::__ndk1::basic_string<char, std::__ndk1::char_traits<char>, std::__ndk1::allocator<char> > >, std::__ndk1::hash<std::__ndk1::basic_string<char, std::__ndk1::char_traits<char>, std::__ndk1::allocator<char> > >, true>, std::__ndk1::allocator<std::__ndk1::__hash_value_type<std::__ndk1::basic_string<char, std::__ndk1::char_traits<char>, std::__ndk1::allocator<char> >, std::__ndk1::basic_string<char, std::__ndk1::char_traits<char>, std::__ndk1::allocator<char> > > > >::__emplace_unique_key_args<std::__ndk1::basic_string<char, std::__ndk1::char_traits<char>, std::__ndk1::allocator<char> >, std::__ndk1::pair<std::__ndk1::basic_string<char, std::__ndk1::char_traits<char>, std::__ndk1::allocator<char> > const, std::__ndk1::basic_string<char, std::__ndk1::char_traits<char>, std::__ndk1::allocator<char> > > const&>(std::__ndk1::basic_string<char, std::__ndk1::char_traits<char>, std::__ndk1::allocator<char> > const&, std::__ndk1::pair<std::__ndk1::basic_string<char, std::__ndk1::char_traits<char>, std::__ndk1::allocator<char> > const, std::__ndk1::basic_string<char, std::__ndk1::char_traits<char>, std::__ndk1::allocator<char> > > const&)
FUNC 3c598 5c 0 std::__ndk1::unique_ptr<std::__ndk1::__hash_node<std::__ndk1::__hash_value_type<std::__ndk1::basic_string<char, std::__ndk1::char_traits<char>, std::__ndk1::allocator<char> >, std::__ndk1::basic_string<char, std::__ndk1::char_traits<char>, std::__ndk1::allocator<char> > >, void*>, std::__ndk1::__hash_node_destructor<std::__ndk1::allocator<std::__ndk1::__hash_node<std::__ndk1::__hash_value_type<std::__ndk1::basic_string<char, std::__ndk1::char_traits<char>, std::__ndk1::allocator<char> >, std::__ndk1::basic_string<char, std::__ndk1::char_traits<char>, std::__ndk1::allocator<char> > >, void*> > > >::~unique_ptr[abi:ne180000]()
FUNC 3c5f4 444 0 std::__ndk1::__murmur2_or_cityhash<unsigned long, (unsigned long)64>::operator()[abi:ne180000](void const*, unsigned long) const
FUNC 3ca38 15c 0 std::__ndk1::__hash_table<std::__ndk1::__hash_value_type<std::__ndk1::basic_string<char, std::__ndk1::char_traits<char>, std::__ndk1::allocator<char> >, std::__ndk1::basic_string<char, std::__ndk1::char_traits<char>, std::__ndk1::allocator<char> > >, std::__ndk1::__unordered_map_hasher<std::__ndk1::basic_string<char, std::__ndk1::char_traits<char>, std::__ndk1::allocator<char> >, std::__ndk1::__hash_value_type<std::__ndk1::basic_string<char, std::__ndk1::char_traits<char>, std::__ndk1::allocator<char> >, std::__ndk1::basic_string<char, std::__ndk1::char_traits<char>, std::__ndk1::allocator<char> > >, std::__ndk1::hash<std::__ndk1::basic_string<char, std::__ndk1::char_traits<char>, std::__ndk1::allocator<char> > >, std::__ndk1::equal_to<std::__ndk1::basic_string<char, std::__ndk1::char_traits<char>, std::__ndk1::allocator<char> > >, true>, std::__ndk1::__unordered_map_equal<std::__ndk1::basic_string<char, std::__ndk1::char_traits<char>, std::__ndk1::allocator<char> >, std::__ndk1::__hash_value_type<std::__ndk1::basic_string<char, std::__ndk1::char_traits<char>, std::__ndk1::allocator<char> >, std::__ndk1::basic_string<char, std::__ndk1::char_traits<char>, std::__ndk1::allocator<char> > >, std::__ndk1::equal_to<std::__ndk1::basic_string<char, std::__ndk1::char_traits<char>, std::__ndk1::allocator<char> > >, std::__ndk1::hash<std::__ndk1::basic_string<char, std::__ndk1::char_traits<char>, std::__ndk1::allocator<char> > >, true>, std::__ndk1::allocator<std::__ndk1::__hash_value_type<std::__ndk1::basic_string<char, std::__ndk1::char_traits<char>, std::__ndk1::allocator<char> >, std::__ndk1::basic_string<char, std::__ndk1::char_traits<char>, std::__ndk1::allocator<char> > > > >::__do_rehash<true>(unsigned long)
FUNC 3cb94 74 0 nlohmann::json_abi_v3_11_3::detail::parser<nlohmann::json_abi_v3_11_3::basic_json<std::__ndk1::map, std::__ndk1::vector, std::__ndk1::basic_string<char, std::__ndk1::char_traits<char>, std::__ndk1::allocator<char> >, bool, long, unsigned long, double, std::__ndk1::allocator, nlohmann::json_abi_v3_11_3::adl_serializer, std::__ndk1::vector<unsigned char, std::__ndk1::allocator<unsigned char> >, void>, nlohmann::json_abi_v3_11_3::detail::iterator_input_adapter<std::__ndk1::__wrap_iter<char const*> > >::~parser()
FUNC 3cc08 ec 0 nlohmann::json_abi_v3_11_3::basic_json<std::__ndk1::map, std::__ndk1::vector, std::__ndk1::basic_string<char, std::__ndk1::char_traits<char>, std::__ndk1::allocator<char> >, bool, long, unsigned long, double, std::__ndk1::allocator, nlohmann::json_abi_v3_11_3::adl_serializer, std::__ndk1::vector<unsigned char, std::__ndk1::allocator<unsigned char> >, void>::json_value::json_value(nlohmann::json_abi_v3_11_3::detail::value_t)
FUNC 3ccf4 44 0 nlohmann::json_abi_v3_11_3::detail::lexer<nlohmann::json_abi_v3_11_3::basic_json<std::__ndk1::map, std::__ndk1::vector, std::__ndk1::basic_string<char, std::__ndk1::char_traits<char>, std::__ndk1::allocator<char> >, bool, long, unsigned long, double, std::__ndk1::allocator, nlohmann::json_abi_v3_11_3::adl_serializer, std::__ndk1::vector<unsigned char, std::__ndk1::allocator<unsigned char> >, void>, nlohmann::json_abi_v3_11_3::detail::iterator_input_adapter<std::__ndk1::__wrap_iter<char const*> > >::~lexer()
FUNC 3cd38 c08 0 nlohmann::json_abi_v3_11_3::detail::lexer<nlohmann::json_abi_v3_11_3::basic_json<std::__ndk1::map, std::__ndk1::vector, std::__ndk1::basic_string<char, std::__ndk1::char_traits<char>, std::__ndk1::allocator<char> >, bool, long, unsigned long, double, std::__ndk1::allocator, nlohmann::json_abi_v3_11_3::adl_serializer, std::__ndk1::vector<unsigned char, std::__ndk1::allocator<unsigned char> >, void>, nlohmann::json_abi_v3_11_3::detail::iterator_input_adapter<std::__ndk1::__wrap_iter<char const*> > >::scan()
FUNC 3d940 1fc 0 nlohmann::json_abi_v3_11_3::detail::lexer<nlohmann::json_abi_v3_11_3::basic_json<std::__ndk1::map, std::__ndk1::vector, std::__ndk1::basic_string<char, std::__ndk1::char_traits<char>, std::__ndk1::allocator<char> >, bool, long, unsigned long, double, std::__ndk1::allocator, nlohmann::json_abi_v3_11_3::adl_serializer, std::__ndk1::vector<unsigned char, std::__ndk1::allocator<unsigned char> >, void>, nlohmann::json_abi_v3_11_3::detail::iterator_input_adapter<std::__ndk1::__wrap_iter<char const*> > >::get()
FUNC 3db3c 14 0 std::__ndk1::vector<char, std::__ndk1::allocator<char> >::__throw_length_error[abi:ne180000]() const
FUNC 3db50 128 0 nlohmann::json_abi_v3_11_3::detail::lexer<nlohmann::json_abi_v3_11_3::basic_json<std::__ndk1::map, std::__ndk1::vector, std::__ndk1::basic_string<char, std::__ndk1::char_traits<char>, std::__ndk1::allocator<char> >, bool, long, unsigned long, double, std::__ndk1::allocator, nlohmann::json_abi_v3_11_3::adl_serializer, std::__ndk1::vector<unsigned char, std::__ndk1::allocator<unsigned char> >, void>, nlohmann::json_abi_v3_11_3::detail::iterator_input_adapter<std::__ndk1::__wrap_iter<char const*> > >::get_codepoint()
FUNC 3dc78 18b8 0 nlohmann::json_abi_v3_11_3::detail::parser<nlohmann::json_abi_v3_11_3::basic_json<std::__ndk1::map, std::__ndk1::vector, std::__ndk1::basic_string<char, std::__ndk1::char_traits<char>, std::__ndk1::allocator<char> >, bool, long, unsigned long, double, std::__ndk1::allocator, nlohmann::json_abi_v3_11_3::adl_serializer, std::__ndk1::vector<unsigned char, std::__ndk1::allocator<unsigned char> >, void>, nlohmann::json_abi_v3_11_3::detail::iterator_input_adapter<std::__ndk1::__wrap_iter<char const*> > >::sax_parse_internal<nlohmann::json_abi_v3_11_3::detail::json_sax_dom_callback_parser<nlohmann::json_abi_v3_11_3::basic_json<std::__ndk1::map, std::__ndk1::vector, std::__ndk1::basic_string<char, std::__ndk1::char_traits<char>, std::__ndk1::allocator<char> >, bool, long, unsigned long, double, std::__ndk1::allocator, nlohmann::json_abi_v3_11_3::adl_serializer, std::__ndk1::vector<unsigned char, std::__ndk1::allocator<unsigned char> >, void> > >(nlohmann::json_abi_v3_11_3::detail::json_sax_dom_callback_parser<nlohmann::json_abi_v3_11_3::basic_json<std::__ndk1::map, std::__ndk1::vector, std::__ndk1::basic_string<char, std::__ndk1::char_traits<char>, std::__ndk1::allocator<char> >, bool, long, unsigned long, double, std::__ndk1::allocator, nlohmann::json_abi_v3_11_3::adl_serializer, std::__ndk1::vector<unsigned char, std::__ndk1::allocator<unsigned char> >, void> >*)
FUNC 3f530 50 0 nlohmann::json_abi_v3_11_3::detail::json_sax_dom_callback_parser<nlohmann::json_abi_v3_11_3::basic_json<std::__ndk1::map, std::__ndk1::vector, std::__ndk1::basic_string<char, std::__ndk1::char_traits<char>, std::__ndk1::allocator<char> >, bool, long, unsigned long, double, std::__ndk1::allocator, nlohmann::json_abi_v3_11_3::adl_serializer, std::__ndk1::vector<unsigned char, std::__ndk1::allocator<unsigned char> >, void> >::parse_error<nlohmann::json_abi_v3_11_3::detail::parse_error>(unsigned long, std::__ndk1::basic_string<char, std::__ndk1::char_traits<char>, std::__ndk1::allocator<char> > const&, nlohmann::json_abi_v3_11_3::detail::parse_error const&)
FUNC 3f580 e0 0 nlohmann::json_abi_v3_11_3::detail::lexer<nlohmann::json_abi_v3_11_3::basic_json<std::__ndk1::map, std::__ndk1::vector, std::__ndk1::basic_string<char, std::__ndk1::char_traits<char>, std::__ndk1::allocator<char> >, bool, long, unsigned long, double, std::__ndk1::allocator, nlohmann::json_abi_v3_11_3::adl_serializer, std::__ndk1::vector<unsigned char, std::__ndk1::allocator<unsigned char> >, void>, nlohmann::json_abi_v3_11_3::detail::iterator_input_adapter<std::__ndk1::__wrap_iter<char const*> > >::get_token_string() const
FUNC 3f660 4dc 0 _ZN8nlohmann16json_abi_v3_11_36detail11parse_error6createIDnTnNSt6__ndk19enable_ifIXsr21is_basic_json_contextIT_EE5valueEiE4typeELi0EEES2_iRKNS1_10position_tERKNS4_12basic_stringIcNS4_11char_traitsIcEENS4_9allocatorIcEEEES6_
FUNC 3fb3c 46c 0 nlohmann::json_abi_v3_11_3::detail::parser<nlohmann::json_abi_v3_11_3::basic_json<std::__ndk1::map, std::__ndk1::vector, std::__ndk1::basic_string<char, std::__ndk1::char_traits<char>, std::__ndk1::allocator<char> >, bool, long, unsigned long, double, std::__ndk1::allocator, nlohmann::json_abi_v3_11_3::adl_serializer, std::__ndk1::vector<unsigned char, std::__ndk1::allocator<unsigned char> >, void>, nlohmann::json_abi_v3_11_3::detail::iterator_input_adapter<std::__ndk1::__wrap_iter<char const*> > >::exception_message(nlohmann::json_abi_v3_11_3::detail::lexer_base<nlohmann::json_abi_v3_11_3::basic_json<std::__ndk1::map, std::__ndk1::vector, std::__ndk1::basic_string<char, std::__ndk1::char_traits<char>, std::__ndk1::allocator<char> >, bool, long, unsigned long, double, std::__ndk1::allocator, nlohmann::json_abi_v3_11_3::adl_serializer, std::__ndk1::vector<unsigned char, std::__ndk1::allocator<unsigned char> >, void> >::token_type, std::__ndk1::basic_string<char, std::__ndk1::char_traits<char>, std::__ndk1::allocator<char> > const&)
FUNC 3ffa8 30 0 nlohmann::json_abi_v3_11_3::detail::exception::~exception()
FUNC 3ffd8 8c 0 nlohmann::json_abi_v3_11_3::detail::json_sax_dom_callback_parser<nlohmann::json_abi_v3_11_3::basic_json<std::__ndk1::map, std::__ndk1::vector, std::__ndk1::basic_string<char, std::__ndk1::char_traits<char>, std::__ndk1::allocator<char> >, bool, long, unsigned long, double, std::__ndk1::allocator, nlohmann::json_abi_v3_11_3::adl_serializer, std::__ndk1::vector<unsigned char, std::__ndk1::allocator<unsigned char> >, void> >::~json_sax_dom_callback_parser()
FUNC 40064 1840 0 nlohmann::json_abi_v3_11_3::detail::parser<nlohmann::json_abi_v3_11_3::basic_json<std::__ndk1::map, std::__ndk1::vector, std::__ndk1::basic_string<char, std::__ndk1::char_traits<char>, std::__ndk1::allocator<char> >, bool, long, unsigned long, double, std::__ndk1::allocator, nlohmann::json_abi_v3_11_3::adl_serializer, std::__ndk1::vector<unsigned char, std::__ndk1::allocator<unsigned char> >, void>, nlohmann::json_abi_v3_11_3::detail::iterator_input_adapter<std::__ndk1::__wrap_iter<char const*> > >::sax_parse_internal<nlohmann::json_abi_v3_11_3::detail::json_sax_dom_parser<nlohmann::json_abi_v3_11_3::basic_json<std::__ndk1::map, std::__ndk1::vector, std::__ndk1::basic_string<char, std::__ndk1::char_traits<char>, std::__ndk1::allocator<char> >, bool, long, unsigned long, double, std::__ndk1::allocator, nlohmann::json_abi_v3_11_3::adl_serializer, std::__ndk1::vector<unsigned char, std::__ndk1::allocator<unsigned char> >, void> > >(nlohmann::json_abi_v3_11_3::detail::json_sax_dom_parser<nlohmann::json_abi_v3_11_3::basic_json<std::__ndk1::map, std::__ndk1::vector, std::__ndk1::basic_string<char, std::__ndk1::char_traits<char>, std::__ndk1::allocator<char> >, bool, long, unsigned long, double, std::__ndk1::allocator, nlohmann::json_abi_v3_11_3::adl_serializer, std::__ndk1::vector<unsigned char, std::__ndk1::allocator<unsigned char> >, void> >*)
FUNC 418a4 50 0 nlohmann::json_abi_v3_11_3::detail::json_sax_dom_parser<nlohmann::json_abi_v3_11_3::basic_json<std::__ndk1::map, std::__ndk1::vector, std::__ndk1::basic_string<char, std::__ndk1::char_traits<char>, std::__ndk1::allocator<char> >, bool, long, unsigned long, double, std::__ndk1::allocator, nlohmann::json_abi_v3_11_3::adl_serializer, std::__ndk1::vector<unsigned char, std::__ndk1::allocator<unsigned char> >, void> >::parse_error<nlohmann::json_abi_v3_11_3::detail::parse_error>(unsigned long, std::__ndk1::basic_string<char, std::__ndk1::char_traits<char>, std::__ndk1::allocator<char> > const&, nlohmann::json_abi_v3_11_3::detail::parse_error const&)
FUNC 418f4 100 0 std::__ndk1::vector<bool, std::__ndk1::allocator<bool> >::reserve(unsigned long)
FUNC 419f4 14 0 std::__ndk1::vector<bool, std::__ndk1::allocator<bool> >::__throw_length_error[abi:ne180000]() const
FUNC 41a08 528 0 nlohmann::json_abi_v3_11_3::detail::json_sax_dom_callback_parser<nlohmann::json_abi_v3_11_3::basic_json<std::__ndk1::map, std::__ndk1::vector, std::__ndk1::basic_string<char, std::__ndk1::char_traits<char>, std::__ndk1::allocator<char> >, bool, long, unsigned long, double, std::__ndk1::allocator, nlohmann::json_abi_v3_11_3::adl_serializer, std::__ndk1::vector<unsigned char, std::__ndk1::allocator<unsigned char> >, void> >::end_object()
FUNC 41f30 24c 0 nlohmann::json_abi_v3_11_3::detail::json_sax_dom_callback_parser<nlohmann::json_abi_v3_11_3::basic_json<std::__ndk1::map, std::__ndk1::vector, std::__ndk1::basic_string<char, std::__ndk1::char_traits<char>, std::__ndk1::allocator<char> >, bool, long, unsigned long, double, std::__ndk1::allocator, nlohmann::json_abi_v3_11_3::adl_serializer, std::__ndk1::vector<unsigned char, std::__ndk1::allocator<unsigned char> >, void> >::key(std::__ndk1::basic_string<char, std::__ndk1::char_traits<char>, std::__ndk1::allocator<char> >&)
FUNC 4217c 18c 0 nlohmann::json_abi_v3_11_3::detail::json_sax_dom_callback_parser<nlohmann::json_abi_v3_11_3::basic_json<std::__ndk1::map, std::__ndk1::vector, std::__ndk1::basic_string<char, std::__ndk1::char_traits<char>, std::__ndk1::allocator<char> >, bool, long, unsigned long, double, std::__ndk1::allocator, nlohmann::json_abi_v3_11_3::adl_serializer, std::__ndk1::vector<unsigned char, std::__ndk1::allocator<unsigned char> >, void> >::end_array()
FUNC 42308 50 0 nlohmann::json_abi_v3_11_3::detail::json_sax_dom_callback_parser<nlohmann::json_abi_v3_11_3::basic_json<std::__ndk1::map, std::__ndk1::vector, std::__ndk1::basic_string<char, std::__ndk1::char_traits<char>, std::__ndk1::allocator<char> >, bool, long, unsigned long, double, std::__ndk1::allocator, nlohmann::json_abi_v3_11_3::adl_serializer, std::__ndk1::vector<unsigned char, std::__ndk1::allocator<unsigned char> >, void> >::parse_error<nlohmann::json_abi_v3_11_3::detail::out_of_range>(unsigned long, std::__ndk1::basic_string<char, std::__ndk1::char_traits<char>, std::__ndk1::allocator<char> > const&, nlohmann::json_abi_v3_11_3::detail::out_of_range const&)
FUNC 42358 1e0 0 _ZN8nlohmann16json_abi_v3_11_36detail12out_of_range6createIDnTnNSt6__ndk19enable_ifIXsr21is_basic_json_contextIT_EE5valueEiE4typeELi0EEES2_iRKNS4_12basic_stringIcNS4_11char_traitsIcEENS4_9allocatorIcEEEES6_
FUNC 42538 c4 0 nlohmann::json_abi_v3_11_3::detail::concat<std::__ndk1::basic_string<char, std::__ndk1::char_traits<char>, std::__ndk1::allocator<char> >, char const (&) [26], std::__ndk1::basic_string<char, std::__ndk1::char_traits<char>, std::__ndk1::allocator<char> >, char>(char const (&) [26], std::__ndk1::basic_string<char, std::__ndk1::char_traits<char>, std::__ndk1::allocator<char> >, char)
FUNC 425fc 1e8 0 nlohmann::json_abi_v3_11_3::detail::json_sax_dom_callback_parser<nlohmann::json_abi_v3_11_3::basic_json<std::__ndk1::map, std::__ndk1::vector, std::__ndk1::basic_string<char, std::__ndk1::char_traits<char>, std::__ndk1::allocator<char> >, bool, long, unsigned long, double, std::__ndk1::allocator, nlohmann::json_abi_v3_11_3::adl_serializer, std::__ndk1::vector<unsigned char, std::__ndk1::allocator<unsigned char> >, void> >::handle_value<nlohmann::json_abi_v3_11_3::detail::value_t>(nlohmann::json_abi_v3_11_3::detail::value_t&&, bool)
FUNC 427e4 1e0 0 _ZN8nlohmann16json_abi_v3_11_36detail12out_of_range6createIPNS0_10basic_jsonINSt6__ndk13mapENS5_6vectorENS5_12basic_stringIcNS5_11char_traitsIcEENS5_9allocatorIcEEEEblmdSB_NS0_14adl_serializerENS7_IhNSB_IhEEEEvEETnNS5_9enable_ifIXsr21is_basic_json_contextIT_EE5valueEiE4typeELi0EEES2_iRKSD_SK_
FUNC 429c4 11c 0 std::__ndk1::vector<nlohmann::json_abi_v3_11_3::basic_json<std::__ndk1::map, std::__ndk1::vector, std::__ndk1::basic_string<char, std::__ndk1::char_traits<char>, std::__ndk1::allocator<char> >, bool, long, unsigned long, double, std::__ndk1::allocator, nlohmann::json_abi_v3_11_3::adl_serializer, std::__ndk1::vector<unsigned char, std::__ndk1::allocator<unsigned char> >, void>, std::__ndk1::allocator<nlohmann::json_abi_v3_11_3::basic_json<std::__ndk1::map, std::__ndk1::vector, std::__ndk1::basic_string<char, std::__ndk1::char_traits<char>, std::__ndk1::allocator<char> >, bool, long, unsigned long, double, std::__ndk1::allocator, nlohmann::json_abi_v3_11_3::adl_serializer, std::__ndk1::vector<unsigned char, std::__ndk1::allocator<unsigned char> >, void> > >::__emplace_back_slow_path<nlohmann::json_abi_v3_11_3::basic_json<std::__ndk1::map, std::__ndk1::vector, std::__ndk1::basic_string<char, std::__ndk1::char_traits<char>, std::__ndk1::allocator<char> >, bool, long, unsigned long, double, std::__ndk1::allocator, nlohmann::json_abi_v3_11_3::adl_serializer, std::__ndk1::vector<unsigned char, std::__ndk1::allocator<unsigned char> >, void> >(nlohmann::json_abi_v3_11_3::basic_json<std::__ndk1::map, std::__ndk1::vector, std::__ndk1::basic_string<char, std::__ndk1::char_traits<char>, std::__ndk1::allocator<char> >, bool, long, unsigned long, double, std::__ndk1::allocator, nlohmann::json_abi_v3_11_3::adl_serializer, std::__ndk1::vector<unsigned char, std::__ndk1::allocator<unsigned char> >, void>&&)
FUNC 42ae0 14 0 std::__ndk1::vector<nlohmann::json_abi_v3_11_3::basic_json<std::__ndk1::map, std::__ndk1::vector, std::__ndk1::basic_string<char, std::__ndk1::char_traits<char>, std::__ndk1::allocator<char> >, bool, long, unsigned long, double, std::__ndk1::allocator, nlohmann::json_abi_v3_11_3::adl_serializer, std::__ndk1::vector<unsigned char, std::__ndk1::allocator<unsigned char> >, void>*, std::__ndk1::allocator<nlohmann::json_abi_v3_11_3::basic_json<std::__ndk1::map, std::__ndk1::vector, std::__ndk1::basic_string<char, std::__ndk1::char_traits<char>, std::__ndk1::allocator<char> >, bool, long, unsigned long, double, std::__ndk1::allocator, nlohmann::json_abi_v3_11_3::adl_serializer, std::__ndk1::vector<unsigned char, std::__ndk1::allocator<unsigned char> >, void>*> >::__throw_length_error[abi:ne180000]() const
FUNC 42af4 38 0 nlohmann::json_abi_v3_11_3::detail::out_of_range::~out_of_range()
FUNC 42b2c 1d0 0 _ZN8nlohmann16json_abi_v3_11_36detail16invalid_iterator6createIPNS0_10basic_jsonINSt6__ndk13mapENS5_6vectorENS5_12basic_stringIcNS5_11char_traitsIcEENS5_9allocatorIcEEEEblmdSB_NS0_14adl_serializerENS7_IhNSB_IhEEEEvEETnNS5_9enable_ifIXsr21is_basic_json_contextIT_EE5valueEiE4typeELi0EEES2_iRKSD_SK_
FUNC 42cfc 38 0 nlohmann::json_abi_v3_11_3::detail::invalid_iterator::~invalid_iterator()
FUNC 42d34 1d8 0 _ZN8nlohmann16json_abi_v3_11_36detail10type_error6createIPNS0_10basic_jsonINSt6__ndk13mapENS5_6vectorENS5_12basic_stringIcNS5_11char_traitsIcEENS5_9allocatorIcEEEEblmdSB_NS0_14adl_serializerENS7_IhNSB_IhEEEEvEETnNS5_9enable_ifIXsr21is_basic_json_contextIT_EE5valueEiE4typeELi0EEES2_iRKSD_SK_
FUNC 42f0c a8 0 nlohmann::json_abi_v3_11_3::detail::concat<std::__ndk1::basic_string<char, std::__ndk1::char_traits<char>, std::__ndk1::allocator<char> >, char const (&) [25], char const*>(char const (&) [25], char const*)
FUNC 42fb4 120 0 std::__ndk1::__tree<std::__ndk1::__value_type<std::__ndk1::basic_string<char, std::__ndk1::char_traits<char>, std::__ndk1::allocator<char> >, nlohmann::json_abi_v3_11_3::basic_json<std::__ndk1::map, std::__ndk1::vector, std::__ndk1::basic_string<char, std::__ndk1::char_traits<char>, std::__ndk1::allocator<char> >, bool, long, unsigned long, double, std::__ndk1::allocator, nlohmann::json_abi_v3_11_3::adl_serializer, std::__ndk1::vector<unsigned char, std::__ndk1::allocator<unsigned char> >, void> >, std::__ndk1::__map_value_compare<std::__ndk1::basic_string<char, std::__ndk1::char_traits<char>, std::__ndk1::allocator<char> >, std::__ndk1::__value_type<std::__ndk1::basic_string<char, std::__ndk1::char_traits<char>, std::__ndk1::allocator<char> >, nlohmann::json_abi_v3_11_3::basic_json<std::__ndk1::map, std::__ndk1::vector, std::__ndk1::basic_string<char, std::__ndk1::char_traits<char>, std::__ndk1::allocator<char> >, bool, long, unsigned long, double, std::__ndk1::allocator, nlohmann::json_abi_v3_11_3::adl_serializer, std::__ndk1::vector<unsigned char, std::__ndk1::allocator<unsigned char> >, void> >, std::__ndk1::less<void>, true>, std::__ndk1::allocator<std::__ndk1::__value_type<std::__ndk1::basic_string<char, std::__ndk1::char_traits<char>, std::__ndk1::allocator<char> >, nlohmann::json_abi_v3_11_3::basic_json<std::__ndk1::map, std::__ndk1::vector, std::__ndk1::basic_string<char, std::__ndk1::char_traits<char>, std::__ndk1::allocator<char> >, bool, long, unsigned long, double, std::__ndk1::allocator, nlohmann::json_abi_v3_11_3::adl_serializer, std::__ndk1::vector<unsigned char, std::__ndk1::allocator<unsigned char> >, void> > > >::__emplace_unique_key_args<std::__ndk1::basic_string<char, std::__ndk1::char_traits<char>, std::__ndk1::allocator<char> >, std::__ndk1::piecewise_construct_t const&, std::__ndk1::tuple<std::__ndk1::basic_string<char, std::__ndk1::char_traits<char>, std::__ndk1::allocator<char> > const&>, std::__ndk1::tuple<> >(std::__ndk1::basic_string<char, std::__ndk1::char_traits<char>, std::__ndk1::allocator<char> > const&, std::__ndk1::piecewise_construct_t const&, std::__ndk1::tuple<std::__ndk1::basic_string<char, std::__ndk1::char_traits<char>, std::__ndk1::allocator<char> > const&>, std::__ndk1::tuple<>)
FUNC 430d4 104 0 std::__ndk1::__tree<std::__ndk1::__value_type<std::__ndk1::basic_string<char, std::__ndk1::char_traits<char>, std::__ndk1::allocator<char> >, nlohmann::json_abi_v3_11_3::basic_json<std::__ndk1::map, std::__ndk1::vector, std::__ndk1::basic_string<char, std::__ndk1::char_traits<char>, std::__ndk1::allocator<char> >, bool, long, unsigned long, double, std::__ndk1::allocator, nlohmann::json_abi_v3_11_3::adl_serializer, std::__ndk1::vector<unsigned char, std::__ndk1::allocator<unsigned char> >, void> >, std::__ndk1::__map_value_compare<std::__ndk1::basic_string<char, std::__ndk1::char_traits<char>, std::__ndk1::allocator<char> >, std::__ndk1::__value_type<std::__ndk1::basic_string<char, std::__ndk1::char_traits<char>, std::__ndk1::allocator<char> >, nlohmann::json_abi_v3_11_3::basic_json<std::__ndk1::map, std::__ndk1::vector, std::__ndk1::basic_string<char, std::__ndk1::char_traits<char>, std::__ndk1::allocator<char> >, bool, long, unsigned long, double, std::__ndk1::allocator, nlohmann::json_abi_v3_11_3::adl_serializer, std::__ndk1::vector<unsigned char, std::__ndk1::allocator<unsigned char> >, void> >, std::__ndk1::less<void>, true>, std::__ndk1::allocator<std::__ndk1::__value_type<std::__ndk1::basic_string<char, std::__ndk1::char_traits<char>, std::__ndk1::allocator<char> >, nlohmann::json_abi_v3_11_3::basic_json<std::__ndk1::map, std::__ndk1::vector, std::__ndk1::basic_string<char, std::__ndk1::char_traits<char>, std::__ndk1::allocator<char> >, bool, long, unsigned long, double, std::__ndk1::allocator, nlohmann::json_abi_v3_11_3::adl_serializer, std::__ndk1::vector<unsigned char, std::__ndk1::allocator<unsigned char> >, void> > > >::__find_equal<std::__ndk1::basic_string<char, std::__ndk1::char_traits<char>, std::__ndk1::allocator<char> > >(std::__ndk1::__tree_end_node<std::__ndk1::__tree_node_base<void*>*>*&, std::__ndk1::basic_string<char, std::__ndk1::char_traits<char>, std::__ndk1::allocator<char> > const&)
FUNC 431d8 5c 0 std::__ndk1::unique_ptr<std::__ndk1::__tree_node<std::__ndk1::__value_type<std::__ndk1::basic_string<char, std::__ndk1::char_traits<char>, std::__ndk1::allocator<char> >, nlohmann::json_abi_v3_11_3::basic_json<std::__ndk1::map, std::__ndk1::vector, std::__ndk1::basic_string<char, std::__ndk1::char_traits<char>, std::__ndk1::allocator<char> >, bool, long, unsigned long, double, std::__ndk1::allocator, nlohmann::json_abi_v3_11_3::adl_serializer, std::__ndk1::vector<unsigned char, std::__ndk1::allocator<unsigned char> >, void> >, void*>, std::__ndk1::__tree_node_destructor<std::__ndk1::allocator<std::__ndk1::__tree_node<std::__ndk1::__value_type<std::__ndk1::basic_string<char, std::__ndk1::char_traits<char>, std::__ndk1::allocator<char> >, nlohmann::json_abi_v3_11_3::basic_json<std::__ndk1::map, std::__ndk1::vector, std::__ndk1::basic_string<char, std::__ndk1::char_traits<char>, std::__ndk1::allocator<char> >, bool, long, unsigned long, double, std::__ndk1::allocator, nlohmann::json_abi_v3_11_3::adl_serializer, std::__ndk1::vector<unsigned char, std::__ndk1::allocator<unsigned char> >, void> >, void*> > > >::~unique_ptr[abi:ne180000]()
FUNC 43234 48 0 nlohmann::json_abi_v3_11_3::detail::out_of_range::out_of_range(nlohmann::json_abi_v3_11_3::detail::out_of_range const&)
FUNC 4327c 1fc 0 nlohmann::json_abi_v3_11_3::detail::json_sax_dom_callback_parser<nlohmann::json_abi_v3_11_3::basic_json<std::__ndk1::map, std::__ndk1::vector, std::__ndk1::basic_string<char, std::__ndk1::char_traits<char>, std::__ndk1::allocator<char> >, bool, long, unsigned long, double, std::__ndk1::allocator, nlohmann::json_abi_v3_11_3::adl_serializer, std::__ndk1::vector<unsigned char, std::__ndk1::allocator<unsigned char> >, void> >::handle_value<bool&>(bool&, bool)
FUNC 43478 54 0 nlohmann::json_abi_v3_11_3::detail::parse_error::parse_error(nlohmann::json_abi_v3_11_3::detail::parse_error const&)
FUNC 434cc 38 0 nlohmann::json_abi_v3_11_3::detail::parse_error::~parse_error()
FUNC 43504 9c 0 snprintf(char*, unsigned long pass_object_size1, char const*, ...)
FUNC 435a0 50 0 nlohmann::json_abi_v3_11_3::detail::json_sax_dom_parser<nlohmann::json_abi_v3_11_3::basic_json<std::__ndk1::map, std::__ndk1::vector, std::__ndk1::basic_string<char, std::__ndk1::char_traits<char>, std::__ndk1::allocator<char> >, bool, long, unsigned long, double, std::__ndk1::allocator, nlohmann::json_abi_v3_11_3::adl_serializer, std::__ndk1::vector<unsigned char, std::__ndk1::allocator<unsigned char> >, void> >::parse_error<nlohmann::json_abi_v3_11_3::detail::out_of_range>(unsigned long, std::__ndk1::basic_string<char, std::__ndk1::char_traits<char>, std::__ndk1::allocator<char> > const&, nlohmann::json_abi_v3_11_3::detail::out_of_range const&)
FUNC 435f0 2b4 0 nlohmann::json_abi_v3_11_3::detail::json_sax_dom_parser<nlohmann::json_abi_v3_11_3::basic_json<std::__ndk1::map, std::__ndk1::vector, std::__ndk1::basic_string<char, std::__ndk1::char_traits<char>, std::__ndk1::allocator<char> >, bool, long, unsigned long, double, std::__ndk1::allocator, nlohmann::json_abi_v3_11_3::adl_serializer, std::__ndk1::vector<unsigned char, std::__ndk1::allocator<unsigned char> >, void> >::handle_value<nlohmann::json_abi_v3_11_3::detail::value_t>(nlohmann::json_abi_v3_11_3::detail::value_t&&)
FUNC 438a4 218 0 nlohmann::json_abi_v3_11_3::detail::json_sax_dom_parser<nlohmann::json_abi_v3_11_3::basic_json<std::__ndk1::map, std::__ndk1::vector, std::__ndk1::basic_string<char, std::__ndk1::char_traits<char>, std::__ndk1::allocator<char> >, bool, long, unsigned long, double, std::__ndk1::allocator, nlohmann::json_abi_v3_11_3::adl_serializer, std::__ndk1::vector<unsigned char, std::__ndk1::allocator<unsigned char> >, void> >::handle_value<bool&>(bool&)
FUNC 43abc fc 0 std::__ndk1::__tree<std::__ndk1::__value_type<std::__ndk1::basic_string<char, std::__ndk1::char_traits<char>, std::__ndk1::allocator<char> >, nlohmann::json_abi_v3_11_3::basic_json<std::__ndk1::map, std::__ndk1::vector, std::__ndk1::basic_string<char, std::__ndk1::char_traits<char>, std::__ndk1::allocator<char> >, bool, long, unsigned long, double, std::__ndk1::allocator, nlohmann::json_abi_v3_11_3::adl_serializer, std::__ndk1::vector<unsigned char, std::__ndk1::allocator<unsigned char> >, void> >, std::__ndk1::__map_value_compare<std::__ndk1::basic_string<char, std::__ndk1::char_traits<char>, std::__ndk1::allocator<char> >, std::__ndk1::__value_type<std::__ndk1::basic_string<char, std::__ndk1::char_traits<char>, std::__ndk1::allocator<char> >, nlohmann::json_abi_v3_11_3::basic_json<std::__ndk1::map, std::__ndk1::vector, std::__ndk1::basic_string<char, std::__ndk1::char_traits<char>, std::__ndk1::allocator<char> >, bool, long, unsigned long, double, std::__ndk1::allocator, nlohmann::json_abi_v3_11_3::adl_serializer, std::__ndk1::vector<unsigned char, std::__ndk1::allocator<unsigned char> >, void> >, std::__ndk1::less<void>, true>, std::__ndk1::allocator<std::__ndk1::__value_type<std::__ndk1::basic_string<char, std::__ndk1::char_traits<char>, std::__ndk1::allocator<char> >, nlohmann::json_abi_v3_11_3::basic_json<std::__ndk1::map, std::__ndk1::vector, std::__ndk1::basic_string<char, std::__ndk1::char_traits<char>, std::__ndk1::allocator<char> >, bool, long, unsigned long, double, std::__ndk1::allocator, nlohmann::json_abi_v3_11_3::adl_serializer, std::__ndk1::vector<unsigned char, std::__ndk1::allocator<unsigned char> >, void> > > >::find<char [8]>(char const (&) [8])
FUNC 43bb8 a8 0 nlohmann::json_abi_v3_11_3::detail::concat<std::__ndk1::basic_string<char, std::__ndk1::char_traits<char>, std::__ndk1::allocator<char> >, char const (&) [22], char const*>(char const (&) [22], char const*)
FUNC 43c60 e4 0 nlohmann::json_abi_v3_11_3::detail::concat<std::__ndk1::basic_string<char, std::__ndk1::char_traits<char>, std::__ndk1::allocator<char> >, char const (&) [6], std::__ndk1::basic_string<char, std::__ndk1::char_traits<char>, std::__ndk1::allocator<char> >, char const (&) [12]>(char const (&) [6], std::__ndk1::basic_string<char, std::__ndk1::char_traits<char>, std::__ndk1::allocator<char> >, char const (&) [12])
FUNC 43d44 74 0 std::__ndk1::__exception_guard_exceptions<std::__ndk1::vector<nlohmann::json_abi_v3_11_3::basic_json<std::__ndk1::map, std::__ndk1::vector, std::__ndk1::basic_string<char, std::__ndk1::char_traits<char>, std::__ndk1::allocator<char> >, bool, long, unsigned long, double, std::__ndk1::allocator, nlohmann::json_abi_v3_11_3::adl_serializer, std::__ndk1::vector<unsigned char, std::__ndk1::allocator<unsigned char> >, void>, std::__ndk1::allocator<nlohmann::json_abi_v3_11_3::basic_json<std::__ndk1::map, std::__ndk1::vector, std::__ndk1::basic_string<char, std::__ndk1::char_traits<char>, std::__ndk1::allocator<char> >, bool, long, unsigned long, double, std::__ndk1::allocator, nlohmann::json_abi_v3_11_3::adl_serializer, std::__ndk1::vector<unsigned char, std::__ndk1::allocator<unsigned char> >, void> > >::__destroy_vector>::~__exception_guard_exceptions[abi:ne180000]()
FUNC 43db8 48 0 std::__ndk1::__exception_guard_exceptions<std::__ndk1::_AllocatorDestroyRangeReverse<std::__ndk1::allocator<nlohmann::json_abi_v3_11_3::basic_json<std::__ndk1::map, std::__ndk1::vector, std::__ndk1::basic_string<char, std::__ndk1::char_traits<char>, std::__ndk1::allocator<char> >, bool, long, unsigned long, double, std::__ndk1::allocator, nlohmann::json_abi_v3_11_3::adl_serializer, std::__ndk1::vector<unsigned char, std::__ndk1::allocator<unsigned char> >, void> >, nlohmann::json_abi_v3_11_3::basic_json<std::__ndk1::map, std::__ndk1::vector, std::__ndk1::basic_string<char, std::__ndk1::char_traits<char>, std::__ndk1::allocator<char> >, bool, long, unsigned long, double, std::__ndk1::allocator, nlohmann::json_abi_v3_11_3::adl_serializer, std::__ndk1::vector<unsigned char, std::__ndk1::allocator<unsigned char> >, void>*> >::~__exception_guard_exceptions[abi:ne180000]()
FUNC 43e00 14 0 std::__ndk1::vector<unsigned char, std::__ndk1::allocator<unsigned char> >::__throw_length_error[abi:ne180000]() const
FUNC 43e14 a8 0 nlohmann::json_abi_v3_11_3::detail::concat<std::__ndk1::basic_string<char, std::__ndk1::char_traits<char>, std::__ndk1::allocator<char> >, char const (&) [52], char const*>(char const (&) [52], char const*)
FUNC 43ebc a8 0 nlohmann::json_abi_v3_11_3::detail::concat<std::__ndk1::basic_string<char, std::__ndk1::char_traits<char>, std::__ndk1::allocator<char> >, char const (&) [51], char const*>(char const (&) [51], char const*)
FUNC 43f64 fc 0 std::__ndk1::__tree<std::__ndk1::__value_type<std::__ndk1::basic_string<char, std::__ndk1::char_traits<char>, std::__ndk1::allocator<char> >, nlohmann::json_abi_v3_11_3::basic_json<std::__ndk1::map, std::__ndk1::vector, std::__ndk1::basic_string<char, std::__ndk1::char_traits<char>, std::__ndk1::allocator<char> >, bool, long, unsigned long, double, std::__ndk1::allocator, nlohmann::json_abi_v3_11_3::adl_serializer, std::__ndk1::vector<unsigned char, std::__ndk1::allocator<unsigned char> >, void> >, std::__ndk1::__map_value_compare<std::__ndk1::basic_string<char, std::__ndk1::char_traits<char>, std::__ndk1::allocator<char> >, std::__ndk1::__value_type<std::__ndk1::basic_string<char, std::__ndk1::char_traits<char>, std::__ndk1::allocator<char> >, nlohmann::json_abi_v3_11_3::basic_json<std::__ndk1::map, std::__ndk1::vector, std::__ndk1::basic_string<char, std::__ndk1::char_traits<char>, std::__ndk1::allocator<char> >, bool, long, unsigned long, double, std::__ndk1::allocator, nlohmann::json_abi_v3_11_3::adl_serializer, std::__ndk1::vector<unsigned char, std::__ndk1::allocator<unsigned char> >, void> >, std::__ndk1::less<void>, true>, std::__ndk1::allocator<std::__ndk1::__value_type<std::__ndk1::basic_string<char, std::__ndk1::char_traits<char>, std::__ndk1::allocator<char> >, nlohmann::json_abi_v3_11_3::basic_json<std::__ndk1::map, std::__ndk1::vector, std::__ndk1::basic_string<char, std::__ndk1::char_traits<char>, std::__ndk1::allocator<char> >, bool, long, unsigned long, double, std::__ndk1::allocator, nlohmann::json_abi_v3_11_3::adl_serializer, std::__ndk1::vector<unsigned char, std::__ndk1::allocator<unsigned char> >, void> > > >::find<char [5]>(char const (&) [5])
FUNC 44060 1d4 0 fmt::v11::detail::value<fmt::v11::context>::format_custom_arg<gd::string, fmt::v11::formatter<gd::string, char, void> >(void*, fmt::v11::basic_format_parse_context<char>&, fmt::v11::context&)
FUNC 44234 4a4 0 fmt::v11::detail::parse_format_specs<char>(char const*, char const*, fmt::v11::detail::dynamic_format_specs<char>&, fmt::v11::basic_format_parse_context<char>&, fmt::v11::detail::type)
FUNC 446d8 1a4 0 fmt::v11::detail::parse_dynamic_spec<char>(char const*, char const*, int&, fmt::v11::detail::arg_ref<char>&, fmt::v11::basic_format_parse_context<char>&)
FUNC 4487c 17c 0 fmt::v11::detail::do_parse_arg_id<char, fmt::v11::detail::dynamic_spec_id_handler<char>&>(char const*, char const*, fmt::v11::detail::dynamic_spec_id_handler<char>&)
FUNC 449f8 114 0 fmt::v11::detail::handle_dynamic_spec<fmt::v11::detail::width_checker, fmt::v11::context>(int&, fmt::v11::detail::arg_ref<fmt::v11::context::char_type>, fmt::v11::context&)
FUNC 44b0c 114 0 fmt::v11::detail::handle_dynamic_spec<fmt::v11::detail::precision_checker, fmt::v11::context>(int&, fmt::v11::detail::arg_ref<fmt::v11::context::char_type>, fmt::v11::context&)
FUNC 44c20 27c 0 fmt::v11::detail::write<char, fmt::v11::basic_appender<char> >(fmt::v11::basic_appender<char>, fmt::v11::basic_string_view<char>, fmt::v11::format_specs const&)
FUNC 44e9c 200 0 fmt::v11::detail::write_escaped_string<char, fmt::v11::detail::counting_iterator>(fmt::v11::detail::counting_iterator, fmt::v11::basic_string_view<char>)
FUNC 4509c 20c 0 fmt::v11::detail::write_padded<char, (fmt::v11::align::type)1, fmt::v11::basic_appender<char>, fmt::v11::detail::write<char, fmt::v11::basic_appender<char> >(fmt::v11::basic_appender<char>, fmt::v11::basic_string_view<char>, fmt::v11::format_specs const&)::{lambda(fmt::v11::basic_appender<char>)#1}>(fmt::v11::basic_appender<char>, fmt::v11::format_specs const&, unsigned long, unsigned long, fmt::v11::detail::write<char, fmt::v11::basic_appender<char> >(fmt::v11::basic_appender<char>, fmt::v11::basic_string_view<char>, fmt::v11::format_specs const&)::{lambda(fmt::v11::basic_appender<char>&&)#1})
FUNC 452a8 3ac 0 fmt::v11::detail::for_each_codepoint<fmt::v11::detail::code_point_index(fmt::v11::basic_string_view<char>, unsigned long)::{lambda(unsigned int, fmt::v11::basic_string_view<char>)#1}>(fmt::v11::basic_string_view<char>, fmt::v11::detail::code_point_index(fmt::v11::basic_string_view<char>, unsigned long)::{lambda(unsigned int, fmt::v11::basic_string_view<char>)#1})
FUNC 45654 194 0 fmt::v11::detail::write_escaped_cp<fmt::v11::detail::counting_iterator, char>(fmt::v11::detail::counting_iterator, fmt::v11::detail::find_escape_result<char> const&)
FUNC 457e8 17c 0 fmt::v11::detail::for_each_codepoint<fmt::v11::detail::find_escape(char const*, char const*)::{lambda(unsigned int, fmt::v11::basic_string_view<char>)#1}>(fmt::v11::basic_string_view<char>, fmt::v11::detail::find_escape(char const*, char const*)::{lambda(unsigned int, fmt::v11::basic_string_view<char>)#1})::{lambda(char const*, char const*)#1}::operator()(char const*, char const*) const
FUNC 45964 1b8 0 fmt::v11::detail::for_each_codepoint<fmt::v11::detail::compute_width(fmt::v11::basic_string_view<char>)::count_code_points>(fmt::v11::basic_string_view<char>, fmt::v11::detail::compute_width(fmt::v11::basic_string_view<char>)::count_code_points)::{lambda(char const*, char const*)#1}::operator()(char const*, char const*) const
FUNC 45b1c 1d0 0 fmt::v11::detail::fill<char, fmt::v11::basic_appender<char> >(fmt::v11::basic_appender<char>, unsigned long, fmt::v11::detail::fill_t const&)
FUNC 45cec 380 0 fmt::v11::detail::write_escaped_string<char, fmt::v11::basic_appender<char> >(fmt::v11::basic_appender<char>, fmt::v11::basic_string_view<char>)
FUNC 4606c 1e4 0 fmt::v11::detail::write_escaped_cp<fmt::v11::basic_appender<char>, char>(fmt::v11::basic_appender<char>, fmt::v11::detail::find_escape_result<char> const&)
FUNC 46250 178 0 fmt::v11::detail::write_codepoint<(unsigned long)2, char, fmt::v11::basic_appender<char> >(fmt::v11::basic_appender<char>, char, unsigned int)
FUNC 463c8 178 0 fmt::v11::detail::write_codepoint<(unsigned long)4, char, fmt::v11::basic_appender<char> >(fmt::v11::basic_appender<char>, char, unsigned int)
FUNC 46540 178 0 fmt::v11::detail::write_codepoint<(unsigned long)8, char, fmt::v11::basic_appender<char> >(fmt::v11::basic_appender<char>, char, unsigned int)
FUNC 466b8 94 0 fmt::v11::detail::get_dynamic_spec<fmt::v11::detail::width_checker, fmt::v11::basic_format_arg<fmt::v11::context> >(fmt::v11::basic_format_arg<fmt::v11::context>)
FUNC 4674c 158 0 fmt::v11::basic_format_args<fmt::v11::context>::get<char>(fmt::v11::basic_string_view<char>) const
FUNC 468a4 94 0 fmt::v11::detail::get_dynamic_spec<fmt::v11::detail::precision_checker, fmt::v11::basic_format_arg<fmt::v11::context> >(fmt::v11::basic_format_arg<fmt::v11::context>)
FUNC 46938 180 0 ProviderPopup::onToggler1PressMaybe(cocos2d::CCObject*)
FUNC 46ab8 818 0 ProviderPopup::setupProviderBox(cocos2d::CCLayer*, LevelProvider*)
FUNC 472d0 50 0 ProviderPopup::onExitButton(cocos2d::CCObject*)
FUNC 47320 244 0 ProviderPopup::onProviderInfoBtn(cocos2d::CCObject*)
FUNC 47564 38 0 ProviderPopup::update(float)
FUNC 4759c 118 0 ProviderPopup::removeThumbnailForCell(LevelCell*)
FUNC 476b4 df4 0 ProviderPopup::create(std::__ndk1::vector<std::__ndk1::shared_ptr<LevelProvider>, std::__ndk1::allocator<std::__ndk1::shared_ptr<LevelProvider> > >)
FUNC 484a8 38 0 ProviderPopup::registerWithTouchDispatcher()
FUNC 484e0 110 0 ProviderPopup::onPrevPage(cocos2d::CCObject*)
FUNC 485f0 110 0 ProviderPopup::onNextPage(cocos2d::CCObject*)
FUNC 48700 7bc 0 ProviderPopup::setupProviderBoxOnPage(cocos2d::CCLayer*)
FUNC 48ebc 7f8 0 ProviderPopup::setupLevelIDPage(cocos2d::CCLayer*)
FUNC 496b4 810 0 ProviderPopup::setupGenericSearchPage(cocos2d::CCLayer*)
FUNC 49ec4 8cc 0 ProviderPopup::setupSettingsPage(cocos2d::CCLayer*)
FUNC 4a790 65c 0 ProviderPopup::onLevelIDSearch(cocos2d::CCObject*)
FUNC 4adec 94c 0 ProviderPopup::createLevelCell(GJGameLevel*, cocos2d::CCLayer*)
FUNC 4b738 63c 0 ProviderPopup::onLevelPage(cocos2d::CCObject*)
FUNC 4bd74 168 0 ProviderPopup::setColorToButtonSprite(ButtonSprite*, cocos2d::_ccColor3B)
FUNC 4bedc 1e8 0 ProviderPopup::isPageHasFeature(ProviderPopupInfo*, int)
FUNC 4c0c4 2ec 0 ProviderPopup::applyBottomButtons(cocos2d::CCLayer*)
FUNC 4c3b0 780 0 ProviderPopup::onGenericSearch(cocos2d::CCObject*)
FUNC 4cb30 1b4 0 ProviderPopup::onCopyID(cocos2d::CCObject*)
FUNC 4cce4 2dc 0 ProviderPopup::onPlayLevelDownload(cocos2d::CCObject*)
FUNC 4cfc0 dc 0 ProviderPopup::scenePrintError(float)
FUNC 4d09c 8 0 cocos2d::CCCopying::copyWithZone(cocos2d::CCZone*)
FUNC 4d0a4 150 0 ProviderPopup::~ProviderPopup()
FUNC 4d1f4 24 0 ProviderPopup::~ProviderPopup()
FUNC 4d218 4 0 cocos2d::CCLayerRGBA::setOpacityModifyRGB(bool)
FUNC 4d21c 8 0 cocos2d::CCLayerRGBA::isOpacityModifyRGB()
FUNC 4d224 8 0 {virtual override thunk({offset(-320)}, ProviderPopup::~ProviderPopup())}
FUNC 4d22c 28 0 {virtual override thunk({offset(-320)}, ProviderPopup::~ProviderPopup())}
FUNC 4d254 4 0 cocos2d::CCKeyboardDelegate::keyUp(cocos2d::enumKeyCodes)
FUNC 4d258 4 0 cocos2d::CCMouseDelegate::rightKeyDown()
FUNC 4d25c 4 0 cocos2d::CCMouseDelegate::rightKeyUp()
FUNC 4d260 4 0 cocos2d::CCMouseDelegate::scrollWheel(float, float)
FUNC 4d264 4 0 {virtual override thunk({offset(-408)}, cocos2d::CCLayerRGBA::setOpacityModifyRGB(bool))}
FUNC 4d268 8 0 {virtual override thunk({offset(-408)}, cocos2d::CCLayerRGBA::isOpacityModifyRGB())}
FUNC 4d270 14 0 std::__ndk1::vector<cocos2d::CCNode*, std::__ndk1::allocator<cocos2d::CCNode*> >::__throw_length_error[abi:ne180000]() const
FUNC 4d284 14 0 std::__ndk1::vector<LevelCell*, std::__ndk1::allocator<LevelCell*> >::__throw_length_error[abi:ne180000]() const
FUNC 4d298 4 0 std::__ndk1::__function::__func<ProviderPopup::setupLevelIDPage(cocos2d::CCLayer*)::$_0, std::__ndk1::allocator<ProviderPopup::setupLevelIDPage(cocos2d::CCLayer*)::$_0>, void (std::__ndk1::basic_string<char, std::__ndk1::char_traits<char>, std::__ndk1::allocator<char> > const&)>::~__func()
FUNC 4d29c 34 0 std::__ndk1::__function::__func<ProviderPopup::setupLevelIDPage(cocos2d::CCLayer*)::$_0, std::__ndk1::allocator<ProviderPopup::setupLevelIDPage(cocos2d::CCLayer*)::$_0>, void (std::__ndk1::basic_string<char, std::__ndk1::char_traits<char>, std::__ndk1::allocator<char> > const&)>::__clone() const
FUNC 4d2d0 14 0 std::__ndk1::__function::__func<ProviderPopup::setupLevelIDPage(cocos2d::CCLayer*)::$_0, std::__ndk1::allocator<ProviderPopup::setupLevelIDPage(cocos2d::CCLayer*)::$_0>, void (std::__ndk1::basic_string<char, std::__ndk1::char_traits<char>, std::__ndk1::allocator<char> > const&)>::__clone(std::__ndk1::__function::__base<void (std::__ndk1::basic_string<char, std::__ndk1::char_traits<char>, std::__ndk1::allocator<char> > const&)>*) const
FUNC 4d2e4 4 0 std::__ndk1::__function::__func<ProviderPopup::setupLevelIDPage(cocos2d::CCLayer*)::$_0, std::__ndk1::allocator<ProviderPopup::setupLevelIDPage(cocos2d::CCLayer*)::$_0>, void (std::__ndk1::basic_string<char, std::__ndk1::char_traits<char>, std::__ndk1::allocator<char> > const&)>::destroy()
FUNC 4d2e8 4 0 std::__ndk1::__function::__func<ProviderPopup::setupLevelIDPage(cocos2d::CCLayer*)::$_0, std::__ndk1::allocator<ProviderPopup::setupLevelIDPage(cocos2d::CCLayer*)::$_0>, void (std::__ndk1::basic_string<char, std::__ndk1::char_traits<char>, std::__ndk1::allocator<char> > const&)>::destroy_deallocate()
FUNC 4d2ec b8 0 std::__ndk1::__function::__func<ProviderPopup::setupLevelIDPage(cocos2d::CCLayer*)::$_0, std::__ndk1::allocator<ProviderPopup::setupLevelIDPage(cocos2d::CCLayer*)::$_0>, void (std::__ndk1::basic_string<char, std::__ndk1::char_traits<char>, std::__ndk1::allocator<char> > const&)>::operator()(std::__ndk1::basic_string<char, std::__ndk1::char_traits<char>, std::__ndk1::allocator<char> > const&)
FUNC 4d3a4 1c 0 std::__ndk1::__function::__func<ProviderPopup::setupLevelIDPage(cocos2d::CCLayer*)::$_0, std::__ndk1::allocator<ProviderPopup::setupLevelIDPage(cocos2d::CCLayer*)::$_0>, void (std::__ndk1::basic_string<char, std::__ndk1::char_traits<char>, std::__ndk1::allocator<char> > const&)>::target(std::type_info const&) const
FUNC 4d3c0 c 0 std::__ndk1::__function::__func<ProviderPopup::setupLevelIDPage(cocos2d::CCLayer*)::$_0, std::__ndk1::allocator<ProviderPopup::setupLevelIDPage(cocos2d::CCLayer*)::$_0>, void (std::__ndk1::basic_string<char, std::__ndk1::char_traits<char>, std::__ndk1::allocator<char> > const&)>::target_type() const
FUNC 4d3cc 4 0 std::__ndk1::__function::__func<ProviderPopup::onLevelIDSearch(cocos2d::CCObject*)::$_0, std::__ndk1::allocator<ProviderPopup::onLevelIDSearch(cocos2d::CCObject*)::$_0>, void (LevelProvider*, GJGameLevel*)>::~__func()
FUNC 4d3d0 40 0 std::__ndk1::__function::__func<ProviderPopup::onLevelIDSearch(cocos2d::CCObject*)::$_0, std::__ndk1::allocator<ProviderPopup::onLevelIDSearch(cocos2d::CCObject*)::$_0>, void (LevelProvider*, GJGameLevel*)>::__clone() const
FUNC 4d410 20 0 std::__ndk1::__function::__func<ProviderPopup::onLevelIDSearch(cocos2d::CCObject*)::$_0, std::__ndk1::allocator<ProviderPopup::onLevelIDSearch(cocos2d::CCObject*)::$_0>, void (LevelProvider*, GJGameLevel*)>::__clone(std::__ndk1::__function::__base<void (LevelProvider*, GJGameLevel*)>*) const
FUNC 4d430 4 0 std::__ndk1::__function::__func<ProviderPopup::onLevelIDSearch(cocos2d::CCObject*)::$_0, std::__ndk1::allocator<ProviderPopup::onLevelIDSearch(cocos2d::CCObject*)::$_0>, void (LevelProvider*, GJGameLevel*)>::destroy()
FUNC 4d434 4 0 std::__ndk1::__function::__func<ProviderPopup::onLevelIDSearch(cocos2d::CCObject*)::$_0, std::__ndk1::allocator<ProviderPopup::onLevelIDSearch(cocos2d::CCObject*)::$_0>, void (LevelProvider*, GJGameLevel*)>::destroy_deallocate()
FUNC 4d438 b18 0 std::__ndk1::__function::__func<ProviderPopup::onLevelIDSearch(cocos2d::CCObject*)::$_0, std::__ndk1::allocator<ProviderPopup::onLevelIDSearch(cocos2d::CCObject*)::$_0>, void (LevelProvider*, GJGameLevel*)>::operator()(LevelProvider*&&, GJGameLevel*&&)
FUNC 4df50 1c 0 std::__ndk1::__function::__func<ProviderPopup::onLevelIDSearch(cocos2d::CCObject*)::$_0, std::__ndk1::allocator<ProviderPopup::onLevelIDSearch(cocos2d::CCObject*)::$_0>, void (LevelProvider*, GJGameLevel*)>::target(std::type_info const&) const
FUNC 4df6c c 0 std::__ndk1::__function::__func<ProviderPopup::onLevelIDSearch(cocos2d::CCObject*)::$_0, std::__ndk1::allocator<ProviderPopup::onLevelIDSearch(cocos2d::CCObject*)::$_0>, void (LevelProvider*, GJGameLevel*)>::target_type() const
FUNC 4df78 4 0 std::__ndk1::__function::__func<ProviderPopup::setupSettingsPage(cocos2d::CCLayer*)::$_0, std::__ndk1::allocator<ProviderPopup::setupSettingsPage(cocos2d::CCLayer*)::$_0>, void (std::__ndk1::basic_string<char, std::__ndk1::char_traits<char>, std::__ndk1::allocator<char> > const&)>::~__func()
FUNC 4df7c 34 0 std::__ndk1::__function::__func<ProviderPopup::setupSettingsPage(cocos2d::CCLayer*)::$_0, std::__ndk1::allocator<ProviderPopup::setupSettingsPage(cocos2d::CCLayer*)::$_0>, void (std::__ndk1::basic_string<char, std::__ndk1::char_traits<char>, std::__ndk1::allocator<char> > const&)>::__clone() const
FUNC 4dfb0 14 0 std::__ndk1::__function::__func<ProviderPopup::setupSettingsPage(cocos2d::CCLayer*)::$_0, std::__ndk1::allocator<ProviderPopup::setupSettingsPage(cocos2d::CCLayer*)::$_0>, void (std::__ndk1::basic_string<char, std::__ndk1::char_traits<char>, std::__ndk1::allocator<char> > const&)>::__clone(std::__ndk1::__function::__base<void (std::__ndk1::basic_string<char, std::__ndk1::char_traits<char>, std::__ndk1::allocator<char> > const&)>*) const
FUNC 4dfc4 4 0 std::__ndk1::__function::__func<ProviderPopup::setupSettingsPage(cocos2d::CCLayer*)::$_0, std::__ndk1::allocator<ProviderPopup::setupSettingsPage(cocos2d::CCLayer*)::$_0>, void (std::__ndk1::basic_string<char, std::__ndk1::char_traits<char>, std::__ndk1::allocator<char> > const&)>::destroy()
FUNC 4dfc8 4 0 std::__ndk1::__function::__func<ProviderPopup::setupSettingsPage(cocos2d::CCLayer*)::$_0, std::__ndk1::allocator<ProviderPopup::setupSettingsPage(cocos2d::CCLayer*)::$_0>, void (std::__ndk1::basic_string<char, std::__ndk1::char_traits<char>, std::__ndk1::allocator<char> > const&)>::destroy_deallocate()
FUNC 4dfcc b8 0 std::__ndk1::__function::__func<ProviderPopup::setupSettingsPage(cocos2d::CCLayer*)::$_0, std::__ndk1::allocator<ProviderPopup::setupSettingsPage(cocos2d::CCLayer*)::$_0>, void (std::__ndk1::basic_string<char, std::__ndk1::char_traits<char>, std::__ndk1::allocator<char> > const&)>::operator()(std::__ndk1::basic_string<char, std::__ndk1::char_traits<char>, std::__ndk1::allocator<char> > const&)
FUNC 4e084 1c 0 std::__ndk1::__function::__func<ProviderPopup::setupSettingsPage(cocos2d::CCLayer*)::$_0, std::__ndk1::allocator<ProviderPopup::setupSettingsPage(cocos2d::CCLayer*)::$_0>, void (std::__ndk1::basic_string<char, std::__ndk1::char_traits<char>, std::__ndk1::allocator<char> > const&)>::target(std::type_info const&) const
FUNC 4e0a0 c 0 std::__ndk1::__function::__func<ProviderPopup::setupSettingsPage(cocos2d::CCLayer*)::$_0, std::__ndk1::allocator<ProviderPopup::setupSettingsPage(cocos2d::CCLayer*)::$_0>, void (std::__ndk1::basic_string<char, std::__ndk1::char_traits<char>, std::__ndk1::allocator<char> > const&)>::target_type() const
FUNC 4e0ac 4 0 std::__ndk1::__function::__func<ProviderPopup::setupSettingsPage(cocos2d::CCLayer*)::$_1, std::__ndk1::allocator<ProviderPopup::setupSettingsPage(cocos2d::CCLayer*)::$_1>, void (std::__ndk1::basic_string<char, std::__ndk1::char_traits<char>, std::__ndk1::allocator<char> > const&)>::~__func()
FUNC 4e0b0 34 0 std::__ndk1::__function::__func<ProviderPopup::setupSettingsPage(cocos2d::CCLayer*)::$_1, std::__ndk1::allocator<ProviderPopup::setupSettingsPage(cocos2d::CCLayer*)::$_1>, void (std::__ndk1::basic_string<char, std::__ndk1::char_traits<char>, std::__ndk1::allocator<char> > const&)>::__clone() const
FUNC 4e0e4 14 0 std::__ndk1::__function::__func<ProviderPopup::setupSettingsPage(cocos2d::CCLayer*)::$_1, std::__ndk1::allocator<ProviderPopup::setupSettingsPage(cocos2d::CCLayer*)::$_1>, void (std::__ndk1::basic_string<char, std::__ndk1::char_traits<char>, std::__ndk1::allocator<char> > const&)>::__clone(std::__ndk1::__function::__base<void (std::__ndk1::basic_string<char, std::__ndk1::char_traits<char>, std::__ndk1::allocator<char> > const&)>*) const
FUNC 4e0f8 4 0 std::__ndk1::__function::__func<ProviderPopup::setupSettingsPage(cocos2d::CCLayer*)::$_1, std::__ndk1::allocator<ProviderPopup::setupSettingsPage(cocos2d::CCLayer*)::$_1>, void (std::__ndk1::basic_string<char, std::__ndk1::char_traits<char>, std::__ndk1::allocator<char> > const&)>::destroy()
FUNC 4e0fc 4 0 std::__ndk1::__function::__func<ProviderPopup::setupSettingsPage(cocos2d::CCLayer*)::$_1, std::__ndk1::allocator<ProviderPopup::setupSettingsPage(cocos2d::CCLayer*)::$_1>, void (std::__ndk1::basic_string<char, std::__ndk1::char_traits<char>, std::__ndk1::allocator<char> > const&)>::destroy_deallocate()
FUNC 4e100 b8 0 std::__ndk1::__function::__func<ProviderPopup::setupSettingsPage(cocos2d::CCLayer*)::$_1, std::__ndk1::allocator<ProviderPopup::setupSettingsPage(cocos2d::CCLayer*)::$_1>, void (std::__ndk1::basic_string<char, std::__ndk1::char_traits<char>, std::__ndk1::allocator<char> > const&)>::operator()(std::__ndk1::basic_string<char, std::__ndk1::char_traits<char>, std::__ndk1::allocator<char> > const&)
FUNC 4e1b8 1c 0 std::__ndk1::__function::__func<ProviderPopup::setupSettingsPage(cocos2d::CCLayer*)::$_1, std::__ndk1::allocator<ProviderPopup::setupSettingsPage(cocos2d::CCLayer*)::$_1>, void (std::__ndk1::basic_string<char, std::__ndk1::char_traits<char>, std::__ndk1::allocator<char> > const&)>::target(std::type_info const&) const
FUNC 4e1d4 c 0 std::__ndk1::__function::__func<ProviderPopup::setupSettingsPage(cocos2d::CCLayer*)::$_1, std::__ndk1::allocator<ProviderPopup::setupSettingsPage(cocos2d::CCLayer*)::$_1>, void (std::__ndk1::basic_string<char, std::__ndk1::char_traits<char>, std::__ndk1::allocator<char> > const&)>::target_type() const
FUNC 4e1e0 4 0 std::__ndk1::__function::__func<ProviderPopup::setupSettingsPage(cocos2d::CCLayer*)::$_2, std::__ndk1::allocator<ProviderPopup::setupSettingsPage(cocos2d::CCLayer*)::$_2>, void (std::__ndk1::basic_string<char, std::__ndk1::char_traits<char>, std::__ndk1::allocator<char> > const&)>::~__func()
FUNC 4e1e4 34 0 std::__ndk1::__function::__func<ProviderPopup::setupSettingsPage(cocos2d::CCLayer*)::$_2, std::__ndk1::allocator<ProviderPopup::setupSettingsPage(cocos2d::CCLayer*)::$_2>, void (std::__ndk1::basic_string<char, std::__ndk1::char_traits<char>, std::__ndk1::allocator<char> > const&)>::__clone() const
FUNC 4e218 14 0 std::__ndk1::__function::__func<ProviderPopup::setupSettingsPage(cocos2d::CCLayer*)::$_2, std::__ndk1::allocator<ProviderPopup::setupSettingsPage(cocos2d::CCLayer*)::$_2>, void (std::__ndk1::basic_string<char, std::__ndk1::char_traits<char>, std::__ndk1::allocator<char> > const&)>::__clone(std::__ndk1::__function::__base<void (std::__ndk1::basic_string<char, std::__ndk1::char_traits<char>, std::__ndk1::allocator<char> > const&)>*) const
FUNC 4e22c 4 0 std::__ndk1::__function::__func<ProviderPopup::setupSettingsPage(cocos2d::CCLayer*)::$_2, std::__ndk1::allocator<ProviderPopup::setupSettingsPage(cocos2d::CCLayer*)::$_2>, void (std::__ndk1::basic_string<char, std::__ndk1::char_traits<char>, std::__ndk1::allocator<char> > const&)>::destroy()
FUNC 4e230 4 0 std::__ndk1::__function::__func<ProviderPopup::setupSettingsPage(cocos2d::CCLayer*)::$_2, std::__ndk1::allocator<ProviderPopup::setupSettingsPage(cocos2d::CCLayer*)::$_2>, void (std::__ndk1::basic_string<char, std::__ndk1::char_traits<char>, std::__ndk1::allocator<char> > const&)>::destroy_deallocate()
FUNC 4e234 14c 0 std::__ndk1::__function::__func<ProviderPopup::setupSettingsPage(cocos2d::CCLayer*)::$_2, std::__ndk1::allocator<ProviderPopup::setupSettingsPage(cocos2d::CCLayer*)::$_2>, void (std::__ndk1::basic_string<char, std::__ndk1::char_traits<char>, std::__ndk1::allocator<char> > const&)>::operator()(std::__ndk1::basic_string<char, std::__ndk1::char_traits<char>, std::__ndk1::allocator<char> > const&)
FUNC 4e380 1c 0 std::__ndk1::__function::__func<ProviderPopup::setupSettingsPage(cocos2d::CCLayer*)::$_2, std::__ndk1::allocator<ProviderPopup::setupSettingsPage(cocos2d::CCLayer*)::$_2>, void (std::__ndk1::basic_string<char, std::__ndk1::char_traits<char>, std::__ndk1::allocator<char> > const&)>::target(std::type_info const&) const
FUNC 4e39c c 0 std::__ndk1::__function::__func<ProviderPopup::setupSettingsPage(cocos2d::CCLayer*)::$_2, std::__ndk1::allocator<ProviderPopup::setupSettingsPage(cocos2d::CCLayer*)::$_2>, void (std::__ndk1::basic_string<char, std::__ndk1::char_traits<char>, std::__ndk1::allocator<char> > const&)>::target_type() const
FUNC 4e3a8 4 0 std::__ndk1::__function::__base<void (std::__ndk1::basic_string<char, std::__ndk1::char_traits<char>, std::__ndk1::allocator<char> > const&)>::~__base()
FUNC 4e3ac 4 0 std::__ndk1::__function::__func<ProviderPopup::setupGenericSearchPage(cocos2d::CCLayer*)::$_0, std::__ndk1::allocator<ProviderPopup::setupGenericSearchPage(cocos2d::CCLayer*)::$_0>, void (std::__ndk1::basic_string<char, std::__ndk1::char_traits<char>, std::__ndk1::allocator<char> > const&)>::~__func()
FUNC 4e3b0 34 0 std::__ndk1::__function::__func<ProviderPopup::setupGenericSearchPage(cocos2d::CCLayer*)::$_0, std::__ndk1::allocator<ProviderPopup::setupGenericSearchPage(cocos2d::CCLayer*)::$_0>, void (std::__ndk1::basic_string<char, std::__ndk1::char_traits<char>, std::__ndk1::allocator<char> > const&)>::__clone() const
FUNC 4e3e4 14 0 std::__ndk1::__function::__func<ProviderPopup::setupGenericSearchPage(cocos2d::CCLayer*)::$_0, std::__ndk1::allocator<ProviderPopup::setupGenericSearchPage(cocos2d::CCLayer*)::$_0>, void (std::__ndk1::basic_string<char, std::__ndk1::char_traits<char>, std::__ndk1::allocator<char> > const&)>::__clone(std::__ndk1::__function::__base<void (std::__ndk1::basic_string<char, std::__ndk1::char_traits<char>, std::__ndk1::allocator<char> > const&)>*) const
FUNC 4e3f8 4 0 std::__ndk1::__function::__func<ProviderPopup::setupGenericSearchPage(cocos2d::CCLayer*)::$_0, std::__ndk1::allocator<ProviderPopup::setupGenericSearchPage(cocos2d::CCLayer*)::$_0>, void (std::__ndk1::basic_string<char, std::__ndk1::char_traits<char>, std::__ndk1::allocator<char> > const&)>::destroy()
FUNC 4e3fc 4 0 std::__ndk1::__function::__func<ProviderPopup::setupGenericSearchPage(cocos2d::CCLayer*)::$_0, std::__ndk1::allocator<ProviderPopup::setupGenericSearchPage(cocos2d::CCLayer*)::$_0>, void (std::__ndk1::basic_string<char, std::__ndk1::char_traits<char>, std::__ndk1::allocator<char> > const&)>::destroy_deallocate()
FUNC 4e400 b8 0 std::__ndk1::__function::__func<ProviderPopup::setupGenericSearchPage(cocos2d::CCLayer*)::$_0, std::__ndk1::allocator<ProviderPopup::setupGenericSearchPage(cocos2d::CCLayer*)::$_0>, void (std::__ndk1::basic_string<char, std::__ndk1::char_traits<char>, std::__ndk1::allocator<char> > const&)>::operator()(std::__ndk1::basic_string<char, std::__ndk1::char_traits<char>, std::__ndk1::allocator<char> > const&)
FUNC 4e4b8 1c 0 std::__ndk1::__function::__func<ProviderPopup::setupGenericSearchPage(cocos2d::CCLayer*)::$_0, std::__ndk1::allocator<ProviderPopup::setupGenericSearchPage(cocos2d::CCLayer*)::$_0>, void (std::__ndk1::basic_string<char, std::__ndk1::char_traits<char>, std::__ndk1::allocator<char> > const&)>::target(std::type_info const&) const
FUNC 4e4d4 c 0 std::__ndk1::__function::__func<ProviderPopup::setupGenericSearchPage(cocos2d::CCLayer*)::$_0, std::__ndk1::allocator<ProviderPopup::setupGenericSearchPage(cocos2d::CCLayer*)::$_0>, void (std::__ndk1::basic_string<char, std::__ndk1::char_traits<char>, std::__ndk1::allocator<char> > const&)>::target_type() const
FUNC 4e4e0 4 0 std::__ndk1::__function::__base<void (LevelProvider*, GJGameLevel*)>::~__base()
FUNC 4e4e4 4 0 std::__ndk1::__function::__func<ProviderPopup::onGenericSearch(cocos2d::CCObject*)::$_0, std::__ndk1::allocator<ProviderPopup::onGenericSearch(cocos2d::CCObject*)::$_0>, void (LevelProvider*, GJGameLevel*)>::~__func()
FUNC 4e4e8 40 0 std::__ndk1::__function::__func<ProviderPopup::onGenericSearch(cocos2d::CCObject*)::$_0, std::__ndk1::allocator<ProviderPopup::onGenericSearch(cocos2d::CCObject*)::$_0>, void (LevelProvider*, GJGameLevel*)>::__clone() const
FUNC 4e528 20 0 std::__ndk1::__function::__func<ProviderPopup::onGenericSearch(cocos2d::CCObject*)::$_0, std::__ndk1::allocator<ProviderPopup::onGenericSearch(cocos2d::CCObject*)::$_0>, void (LevelProvider*, GJGameLevel*)>::__clone(std::__ndk1::__function::__base<void (LevelProvider*, GJGameLevel*)>*) const
FUNC 4e548 4 0 std::__ndk1::__function::__func<ProviderPopup::onGenericSearch(cocos2d::CCObject*)::$_0, std::__ndk1::allocator<ProviderPopup::onGenericSearch(cocos2d::CCObject*)::$_0>, void (LevelProvider*, GJGameLevel*)>::destroy()
FUNC 4e54c 4 0 std::__ndk1::__function::__func<ProviderPopup::onGenericSearch(cocos2d::CCObject*)::$_0, std::__ndk1::allocator<ProviderPopup::onGenericSearch(cocos2d::CCObject*)::$_0>, void (LevelProvider*, GJGameLevel*)>::destroy_deallocate()
FUNC 4e550 a54 0 std::__ndk1::__function::__func<ProviderPopup::onGenericSearch(cocos2d::CCObject*)::$_0, std::__ndk1::allocator<ProviderPopup::onGenericSearch(cocos2d::CCObject*)::$_0>, void (LevelProvider*, GJGameLevel*)>::operator()(LevelProvider*&&, GJGameLevel*&&)
FUNC 4efa4 1c 0 std::__ndk1::__function::__func<ProviderPopup::onGenericSearch(cocos2d::CCObject*)::$_0, std::__ndk1::allocator<ProviderPopup::onGenericSearch(cocos2d::CCObject*)::$_0>, void (LevelProvider*, GJGameLevel*)>::target(std::type_info const&) const
FUNC 4efc0 c 0 std::__ndk1::__function::__func<ProviderPopup::onGenericSearch(cocos2d::CCObject*)::$_0, std::__ndk1::allocator<ProviderPopup::onGenericSearch(cocos2d::CCObject*)::$_0>, void (LevelProvider*, GJGameLevel*)>::target_type() const
FUNC 4efcc 4 0 std::__ndk1::__function::__base<void (LevelProvider*, std::__ndk1::basic_string<char, std::__ndk1::char_traits<char>, std::__ndk1::allocator<char> >, LevelProvider::BasicLevelInformation)>::~__base()
FUNC 4efd0 4 0 std::__ndk1::__function::__func<ProviderPopup::onPlayLevelDownload(cocos2d::CCObject*)::$_0, std::__ndk1::allocator<ProviderPopup::onPlayLevelDownload(cocos2d::CCObject*)::$_0>, void (LevelProvider*, std::__ndk1::basic_string<char, std::__ndk1::char_traits<char>, std::__ndk1::allocator<char> >, LevelProvider::BasicLevelInformation)>::~__func()
FUNC 4efd4 40 0 std::__ndk1::__function::__func<ProviderPopup::onPlayLevelDownload(cocos2d::CCObject*)::$_0, std::__ndk1::allocator<ProviderPopup::onPlayLevelDownload(cocos2d::CCObject*)::$_0>, void (LevelProvider*, std::__ndk1::basic_string<char, std::__ndk1::char_traits<char>, std::__ndk1::allocator<char> >, LevelProvider::BasicLevelInformation)>::__clone() const
FUNC 4f014 20 0 std::__ndk1::__function::__func<ProviderPopup::onPlayLevelDownload(cocos2d::CCObject*)::$_0, std::__ndk1::allocator<ProviderPopup::onPlayLevelDownload(cocos2d::CCObject*)::$_0>, void (LevelProvider*, std::__ndk1::basic_string<char, std::__ndk1::char_traits<char>, std::__ndk1::allocator<char> >, LevelProvider::BasicLevelInformation)>::__clone(std::__ndk1::__function::__base<void (LevelProvider*, std::__ndk1::basic_string<char, std::__ndk1::char_traits<char>, std::__ndk1::allocator<char> >, LevelProvider::BasicLevelInformation)>*) const
FUNC 4f034 4 0 std::__ndk1::__function::__func<ProviderPopup::onPlayLevelDownload(cocos2d::CCObject*)::$_0, std::__ndk1::allocator<ProviderPopup::onPlayLevelDownload(cocos2d::CCObject*)::$_0>, void (LevelProvider*, std::__ndk1::basic_string<char, std::__ndk1::char_traits<char>, std::__ndk1::allocator<char> >, LevelProvider::BasicLevelInformation)>::destroy()
FUNC 4f038 4 0 std::__ndk1::__function::__func<ProviderPopup::onPlayLevelDownload(cocos2d::CCObject*)::$_0, std::__ndk1::allocator<ProviderPopup::onPlayLevelDownload(cocos2d::CCObject*)::$_0>, void (LevelProvider*, std::__ndk1::basic_string<char, std::__ndk1::char_traits<char>, std::__ndk1::allocator<char> >, LevelProvider::BasicLevelInformation)>::destroy_deallocate()
FUNC 4f03c 480 0 std::__ndk1::__function::__func<ProviderPopup::onPlayLevelDownload(cocos2d::CCObject*)::$_0, std::__ndk1::allocator<ProviderPopup::onPlayLevelDownload(cocos2d::CCObject*)::$_0>, void (LevelProvider*, std::__ndk1::basic_string<char, std::__ndk1::char_traits<char>, std::__ndk1::allocator<char> >, LevelProvider::BasicLevelInformation)>::operator()(LevelProvider*&&, std::__ndk1::basic_string<char, std::__ndk1::char_traits<char>, std::__ndk1::allocator<char> >&&, LevelProvider::BasicLevelInformation&&)
FUNC 4f4bc 1c 0 std::__ndk1::__function::__func<ProviderPopup::onPlayLevelDownload(cocos2d::CCObject*)::$_0, std::__ndk1::allocator<ProviderPopup::onPlayLevelDownload(cocos2d::CCObject*)::$_0>, void (LevelProvider*, std::__ndk1::basic_string<char, std::__ndk1::char_traits<char>, std::__ndk1::allocator<char> >, LevelProvider::BasicLevelInformation)>::target(std::type_info const&) const
FUNC 4f4d8 c 0 std::__ndk1::__function::__func<ProviderPopup::onPlayLevelDownload(cocos2d::CCObject*)::$_0, std::__ndk1::allocator<ProviderPopup::onPlayLevelDownload(cocos2d::CCObject*)::$_0>, void (LevelProvider*, std::__ndk1::basic_string<char, std::__ndk1::char_traits<char>, std::__ndk1::allocator<char> >, LevelProvider::BasicLevelInformation)>::target_type() const
FUNC 4f4e4 1c 0 _GLOBAL__sub_I_ProviderPopup.cpp
FUNC 4f500 b0 0 LevelProvider::setParameter(LevelProvider::LPFeatures, int)
FUNC 4f5b0 140 0 LevelProvider::setParameter(LevelProvider::LPFeatures, std::__ndk1::basic_string<char, std::__ndk1::char_traits<char>, std::__ndk1::allocator<char> >)
FUNC 4f6f0 c 0 LevelProvider::askMultipleLevels()
FUNC 4f6fc 3b8 0 LevelProvider::url_encode(std::__ndk1::basic_string<char, std::__ndk1::char_traits<char>, std::__ndk1::allocator<char> >)
FUNC 4fab4 7c 0 std::__ndk1::basic_ostringstream<char, std::__ndk1::char_traits<char>, std::__ndk1::allocator<char> >::~basic_ostringstream()
FUNC 4fb30 2c 0 LevelProvider::getErrorCode()
FUNC 4fb5c 50 0 LevelProvider::getDescription()
FUNC 4fbac 19c 0 std::__ndk1::operator==[abi:ne180000]<LevelProvider::LPFeatures, std::__ndk1::variant<std::__ndk1::basic_string<char, std::__ndk1::char_traits<char>, std::__ndk1::allocator<char> >, int>, std::__ndk1::hash<LevelProvider>, std::__ndk1::equal_to<LevelProvider>, std::__ndk1::char_traits<char><std::__ndk1::pair<LevelProvider const, std::__ndk1::basic_string<char, std::__ndk1::char_traits<char>, std::__ndk1::allocator<char> > > > >(std::__ndk1::unordered_map<LevelProvider::LPFeatures, std::__ndk1::variant<std::__ndk1::basic_string<char, std::__ndk1::char_traits<char>, std::__ndk1::allocator<char> >, int>, std::__ndk1::hash<LevelProvider>, std::__ndk1::equal_to<LevelProvider>, std::__ndk1::char_traits<char><std::__ndk1::pair<LevelProvider const, std::__ndk1::basic_string<char, std::__ndk1::char_traits<char>, std::__ndk1::allocator<char> > > > > const&, std::__ndk1::unordered_map<LevelProvider::LPFeatures, std::__ndk1::variant<std::__ndk1::basic_string<char, std::__ndk1::char_traits<char>, std::__ndk1::allocator<char> >, int>, std::__ndk1::hash<LevelProvider>, std::__ndk1::equal_to<LevelProvider>, std::__ndk1::char_traits<char><std::__ndk1::pair<LevelProvider const, std::__ndk1::basic_string<char, std::__ndk1::char_traits<char>, std::__ndk1::allocator<char> > > > > const)
FUNC 4fd48 8 0 LevelProvider::getTimestampMaxDiff()
FUNC 4fd50 d0 0 LevelProvider::cleanupParameters()
FUNC 4fe20 b8 0 std::__ndk1::__variant_detail::__visitation::__base::__dispatcher<(unsigned long)0, (unsigned long)0>::__dispatch[abi:ne180000]<std::__ndk1::__variant_detail::__visitation::__variant::__value_visitor<std::__ndk1::__convert_to_bool<std::__ndk1::equal_to<void> > >&&, std::__ndk1::__variant_detail::__base<(std::__ndk1::__variant_detail::_Trait)1, std::__ndk1::basic_string<char, std::__ndk1::char_traits<char>, std::__ndk1::allocator<char> >, int> const&, std::__ndk1::__variant_detail::__base<(std::__ndk1::__variant_detail::_Trait)1, std::__ndk1::basic_string<char, std::__ndk1::char_traits<char>, std::__ndk1::allocator<char> >, int> const>(std::__ndk1::__variant_detail::__visitation::__variant::__value_visitor<std::__ndk1::__convert_to_bool<std::__ndk1::equal_to<void> > >&&, std::__ndk1::__variant_detail::__base<(std::__ndk1::__variant_detail::_Trait)1, std::__ndk1::basic_string<char, std::__ndk1::char_traits<char>, std::__ndk1::allocator<char> >, int> const&, std::__ndk1::__variant_detail::__base<(std::__ndk1::__variant_detail::_Trait)1, std::__ndk1::basic_string<char, std::__ndk1::char_traits<char>, std::__ndk1::allocator<char> >, int> const)
FUNC 4fed8 14 0 std::__ndk1::__variant_detail::__visitation::__base::__dispatcher<(unsigned long)1, (unsigned long)1>::__dispatch[abi:ne180000]<std::__ndk1::__variant_detail::__visitation::__variant::__value_visitor<std::__ndk1::__convert_to_bool<std::__ndk1::equal_to<void> > >&&, std::__ndk1::__variant_detail::__base<(std::__ndk1::__variant_detail::_Trait)1, std::__ndk1::basic_string<char, std::__ndk1::char_traits<char>, std::__ndk1::allocator<char> >, int> const&, std::__ndk1::__variant_detail::__base<(std::__ndk1::__variant_detail::_Trait)1, std::__ndk1::basic_string<char, std::__ndk1::char_traits<char>, std::__ndk1::allocator<char> >, int> const>(std::__ndk1::__variant_detail::__visitation::__variant::__value_visitor<std::__ndk1::__convert_to_bool<std::__ndk1::equal_to<void> > >&&, std::__ndk1::__variant_detail::__base<(std::__ndk1::__variant_detail::_Trait)1, std::__ndk1::basic_string<char, std::__ndk1::char_traits<char>, std::__ndk1::allocator<char> >, int> const&, std::__ndk1::__variant_detail::__base<(std::__ndk1::__variant_detail::_Trait)1, std::__ndk1::basic_string<char, std::__ndk1::char_traits<char>, std::__ndk1::allocator<char> >, int> const)
FUNC 4feec 318 0 std::__ndk1::__hash_table<std::__ndk1::__hash_value_type<LevelProvider::LPFeatures, std::__ndk1::variant<std::__ndk1::basic_string<char, std::__ndk1::char_traits<char>, std::__ndk1::allocator<char> >, int> >, std::__ndk1::__unordered_map_hasher<LevelProvider::LPFeatures, std::__ndk1::__hash_value_type<LevelProvider::LPFeatures, std::__ndk1::variant<std::__ndk1::basic_string<char, std::__ndk1::char_traits<char>, std::__ndk1::allocator<char> >, int> >, std::__ndk1::hash<LevelProvider::LPFeatures>, std::__ndk1::equal_to<LevelProvider::LPFeatures>, true>, std::__ndk1::__unordered_map_equal<LevelProvider::LPFeatures, std::__ndk1::__hash_value_type<LevelProvider::LPFeatures, std::__ndk1::variant<std::__ndk1::basic_string<char, std::__ndk1::char_traits<char>, std::__ndk1::allocator<char> >, int> >, std::__ndk1::equal_to<LevelProvider::LPFeatures>, std::__ndk1::hash<LevelProvider::LPFeatures>, true>, std::__ndk1::allocator<std::__ndk1::__hash_value_type<LevelProvider::LPFeatures, std::__ndk1::variant<std::__ndk1::basic_string<char, std::__ndk1::char_traits<char>, std::__ndk1::allocator<char> >, int> > > >::__emplace_unique_key_args<LevelProvider::LPFeatures, std::__ndk1::piecewise_construct_t const&, std::__ndk1::tuple<LevelProvider::LPFeatures const&>, std::__ndk1::tuple<> >(LevelProvider::LPFeatures const&, std::__ndk1::piecewise_construct_t const&, std::__ndk1::tuple<LevelProvider::LPFeatures const&>, std::__ndk1::tuple<>)
FUNC 50204 64 0 LoadingCircleLayer::init()
FUNC 50268 50 0 LoadingCircleLayer::update(float)
FUNC 502b8 24 0 LoadingCircleLayer::~LoadingCircleLayer()
FUNC 502dc 8 0 {virtual override thunk({offset(-320)}, LoadingCircleLayer::~LoadingCircleLayer())}
FUNC 502e4 28 0 {virtual override thunk({offset(-320)}, LoadingCircleLayer::~LoadingCircleLayer())}
FUNC 5030c 2bc 0 ProviderPopupWait::init()
FUNC 505c8 4 0 ProviderPopupWait::cleanup()
FUNC 505cc 24 0 ProviderPopupWait::~ProviderPopupWait()
FUNC 505f0 8 0 {virtual override thunk({offset(-320)}, ProviderPopupWait::~ProviderPopupWait())}
FUNC 505f8 28 0 {virtual override thunk({offset(-320)}, ProviderPopupWait::~ProviderPopupWait())}
FUNC 50620 cc 0 GeodeNetwork::setOkCallback(std::__ndk1::function<void (GeodeNetwork*)>)
FUNC 506ec cc 0 GeodeNetwork::setErrorCallback(std::__ndk1::function<void (GeodeNetwork*)>)
FUNC 507b8 54 0 GeodeNetwork::setURL(std::__ndk1::basic_string<char, std::__ndk1::char_traits<char>, std::__ndk1::allocator<char> >)
FUNC 5080c 1cc 0 GeodeNetwork::send()
FUNC 509d8 50 0 geode::Task<geode::utils::web::WebResponse, geode::utils::web::WebProgress>::~Task()
FUNC 50a28 298 0 GeodeNetwork::GeodeNetwork()
FUNC 50cc0 168 0 std::__ndk1::__function::__value_func<void (GeodeNetwork*)>::swap[abi:ne180000](std::__ndk1::__function::__value_func<void (GeodeNetwork*)>&)
FUNC 50e28 21c 0 geode::Task<geode::utils::web::WebResponse, geode::utils::web::WebProgress>::setListener(geode::EventListenerProtocol*)
FUNC 51044 50 0 geode::Task<geode::utils::web::WebResponse, geode::utils::web::WebProgress>::setListener(geode::EventListenerProtocol*)::{lambda()#1}::~{lambda()#1}()
FUNC 51094 50 0 geode::Task<geode::utils::web::WebResponse, geode::utils::web::WebProgress>::setListener(geode::EventListenerProtocol*)::{lambda()#2}::~{lambda()#2}()
FUNC 510e4 5c 0 std::__ndk1::__function::__func<geode::Task<geode::utils::web::WebResponse, geode::utils::web::WebProgress>::setListener(geode::EventListenerProtocol*)::{lambda()#1}, std::__ndk1::allocator<geode::Task<geode::utils::web::WebResponse, geode::utils::web::WebProgress>::setListener(geode::EventListenerProtocol*)::{lambda()#1}>, void ()>::~__func()
FUNC 51140 5c 0 std::__ndk1::__function::__func<geode::Task<geode::utils::web::WebResponse, geode::utils::web::WebProgress>::setListener(geode::EventListenerProtocol*)::{lambda()#1}, std::__ndk1::allocator<geode::Task<geode::utils::web::WebResponse, geode::utils::web::WebProgress>::setListener(geode::EventListenerProtocol*)::{lambda()#1}>, void ()>::~__func()
FUNC 5119c 58 0 std::__ndk1::__function::__func<geode::Task<geode::utils::web::WebResponse, geode::utils::web::WebProgress>::setListener(geode::EventListenerProtocol*)::{lambda()#1}, std::__ndk1::allocator<geode::Task<geode::utils::web::WebResponse, geode::utils::web::WebProgress>::setListener(geode::EventListenerProtocol*)::{lambda()#1}>, void ()>::__clone() const
FUNC 511f4 4c 0 std::__ndk1::__function::__func<geode::Task<geode::utils::web::WebResponse, geode::utils::web::WebProgress>::setListener(geode::EventListenerProtocol*)::{lambda()#1}, std::__ndk1::allocator<geode::Task<geode::utils::web::WebResponse, geode::utils::web::WebProgress>::setListener(geode::EventListenerProtocol*)::{lambda()#1}>, void ()>::__clone(std::__ndk1::__function::__base<void ()>*) const
FUNC 51240 50 0 std::__ndk1::__function::__func<geode::Task<geode::utils::web::WebResponse, geode::utils::web::WebProgress>::setListener(geode::EventListenerProtocol*)::{lambda()#1}, std::__ndk1::allocator<geode::Task<geode::utils::web::WebResponse, geode::utils::web::WebProgress>::setListener(geode::EventListenerProtocol*)::{lambda()#1}>, void ()>::destroy()
FUNC 51290 50 0 std::__ndk1::__function::__func<geode::Task<geode::utils::web::WebResponse, geode::utils::web::WebProgress>::setListener(geode::EventListenerProtocol*)::{lambda()#1}, std::__ndk1::allocator<geode::Task<geode::utils::web::WebResponse, geode::utils::web::WebProgress>::setListener(geode::EventListenerProtocol*)::{lambda()#1}>, void ()>::destroy_deallocate()
FUNC 512e0 198 0 std::__ndk1::__function::__func<geode::Task<geode::utils::web::WebResponse, geode::utils::web::WebProgress>::setListener(geode::EventListenerProtocol*)::{lambda()#1}, std::__ndk1::allocator<geode::Task<geode::utils::web::WebResponse, geode::utils::web::WebProgress>::setListener(geode::EventListenerProtocol*)::{lambda()#1}>, void ()>::operator()()
FUNC 51478 1c 0 std::__ndk1::__function::__func<geode::Task<geode::utils::web::WebResponse, geode::utils::web::WebProgress>::setListener(geode::EventListenerProtocol*)::{lambda()#1}, std::__ndk1::allocator<geode::Task<geode::utils::web::WebResponse, geode::utils::web::WebProgress>::setListener(geode::EventListenerProtocol*)::{lambda()#1}>, void ()>::target(std::type_info const&) const
FUNC 51494 c 0 std::__ndk1::__function::__func<geode::Task<geode::utils::web::WebResponse, geode::utils::web::WebProgress>::setListener(geode::EventListenerProtocol*)::{lambda()#1}, std::__ndk1::allocator<geode::Task<geode::utils::web::WebResponse, geode::utils::web::WebProgress>::setListener(geode::EventListenerProtocol*)::{lambda()#1}>, void ()>::target_type() const
FUNC 514a0 50 0 geode::Task<geode::utils::web::WebResponse, geode::utils::web::WebProgress>::Event::~Event()
FUNC 514f0 58 0 geode::Task<geode::utils::web::WebResponse, geode::utils::web::WebProgress>::Event::~Event()
FUNC 51548 5c 0 std::__ndk1::__function::__func<geode::Task<geode::utils::web::WebResponse, geode::utils::web::WebProgress>::setListener(geode::EventListenerProtocol*)::{lambda()#2}, std::__ndk1::allocator<geode::Task<geode::utils::web::WebResponse, geode::utils::web::WebProgress>::setListener(geode::EventListenerProtocol*)::{lambda()#2}>, void ()>::~__func()
FUNC 515a4 5c 0 std::__ndk1::__function::__func<geode::Task<geode::utils::web::WebResponse, geode::utils::web::WebProgress>::setListener(geode::EventListenerProtocol*)::{lambda()#2}, std::__ndk1::allocator<geode::Task<geode::utils::web::WebResponse, geode::utils::web::WebProgress>::setListener(geode::EventListenerProtocol*)::{lambda()#2}>, void ()>::~__func()
FUNC 51600 58 0 std::__ndk1::__function::__func<geode::Task<geode::utils::web::WebResponse, geode::utils::web::WebProgress>::setListener(geode::EventListenerProtocol*)::{lambda()#2}, std::__ndk1::allocator<geode::Task<geode::utils::web::WebResponse, geode::utils::web::WebProgress>::setListener(geode::EventListenerProtocol*)::{lambda()#2}>, void ()>::__clone() const
FUNC 51658 4c 0 std::__ndk1::__function::__func<geode::Task<geode::utils::web::WebResponse, geode::utils::web::WebProgress>::setListener(geode::EventListenerProtocol*)::{lambda()#2}, std::__ndk1::allocator<geode::Task<geode::utils::web::WebResponse, geode::utils::web::WebProgress>::setListener(geode::EventListenerProtocol*)::{lambda()#2}>, void ()>::__clone(std::__ndk1::__function::__base<void ()>*) const
FUNC 516a4 50 0 std::__ndk1::__function::__func<geode::Task<geode::utils::web::WebResponse, geode::utils::web::WebProgress>::setListener(geode::EventListenerProtocol*)::{lambda()#2}, std::__ndk1::allocator<geode::Task<geode::utils::web::WebResponse, geode::utils::web::WebProgress>::setListener(geode::EventListenerProtocol*)::{lambda()#2}>, void ()>::destroy()
FUNC 516f4 50 0 std::__ndk1::__function::__func<geode::Task<geode::utils::web::WebResponse, geode::utils::web::WebProgress>::setListener(geode::EventListenerProtocol*)::{lambda()#2}, std::__ndk1::allocator<geode::Task<geode::utils::web::WebResponse, geode::utils::web::WebProgress>::setListener(geode::EventListenerProtocol*)::{lambda()#2}>, void ()>::destroy_deallocate()
FUNC 51744 188 0 std::__ndk1::__function::__func<geode::Task<geode::utils::web::WebResponse, geode::utils::web::WebProgress>::setListener(geode::EventListenerProtocol*)::{lambda()#2}, std::__ndk1::allocator<geode::Task<geode::utils::web::WebResponse, geode::utils::web::WebProgress>::setListener(geode::EventListenerProtocol*)::{lambda()#2}>, void ()>::operator()()
FUNC 518cc 1c 0 std::__ndk1::__function::__func<geode::Task<geode::utils::web::WebResponse, geode::utils::web::WebProgress>::setListener(geode::EventListenerProtocol*)::{lambda()#2}, std::__ndk1::allocator<geode::Task<geode::utils::web::WebResponse, geode::utils::web::WebProgress>::setListener(geode::EventListenerProtocol*)::{lambda()#2}>, void ()>::target(std::type_info const&) const
FUNC 518e8 c 0 std::__ndk1::__function::__func<geode::Task<geode::utils::web::WebResponse, geode::utils::web::WebProgress>::setListener(geode::EventListenerProtocol*)::{lambda()#2}, std::__ndk1::allocator<geode::Task<geode::utils::web::WebResponse, geode::utils::web::WebProgress>::setListener(geode::EventListenerProtocol*)::{lambda()#2}>, void ()>::target_type() const
FUNC 518f4 4 0 std::__ndk1::__function::__base<void (geode::Task<geode::utils::web::WebResponse, geode::utils::web::WebProgress>::Event*)>::~__base()
FUNC 518f8 4 0 std::__ndk1::__function::__func<GeodeNetwork::setupListener()::$_0, std::__ndk1::allocator<GeodeNetwork::setupListener()::$_0>, void (geode::Task<geode::utils::web::WebResponse, geode::utils::web::WebProgress>::Event*)>::~__func()
FUNC 518fc 34 0 std::__ndk1::__function::__func<GeodeNetwork::setupListener()::$_0, std::__ndk1::allocator<GeodeNetwork::setupListener()::$_0>, void (geode::Task<geode::utils::web::WebResponse, geode::utils::web::WebProgress>::Event*)>::__clone() const
FUNC 51930 14 0 std::__ndk1::__function::__func<GeodeNetwork::setupListener()::$_0, std::__ndk1::allocator<GeodeNetwork::setupListener()::$_0>, void (geode::Task<geode::utils::web::WebResponse, geode::utils::web::WebProgress>::Event*)>::__clone(std::__ndk1::__function::__base<void (geode::Task<geode::utils::web::WebResponse, geode::utils::web::WebProgress>::Event*)>*) const
FUNC 51944 4 0 std::__ndk1::__function::__func<GeodeNetwork::setupListener()::$_0, std::__ndk1::allocator<GeodeNetwork::setupListener()::$_0>, void (geode::Task<geode::utils::web::WebResponse, geode::utils::web::WebProgress>::Event*)>::destroy()
FUNC 51948 4 0 std::__ndk1::__function::__func<GeodeNetwork::setupListener()::$_0, std::__ndk1::allocator<GeodeNetwork::setupListener()::$_0>, void (geode::Task<geode::utils::web::WebResponse, geode::utils::web::WebProgress>::Event*)>::destroy_deallocate()
FUNC 5194c 1d0 0 std::__ndk1::__function::__func<GeodeNetwork::setupListener()::$_0, std::__ndk1::allocator<GeodeNetwork::setupListener()::$_0>, void (geode::Task<geode::utils::web::WebResponse, geode::utils::web::WebProgress>::Event*)>::operator()(geode::Task<geode::utils::web::WebResponse, geode::utils::web::WebProgress>::Event*&&)
FUNC 51b1c 1c 0 std::__ndk1::__function::__func<GeodeNetwork::setupListener()::$_0, std::__ndk1::allocator<GeodeNetwork::setupListener()::$_0>, void (geode::Task<geode::utils::web::WebResponse, geode::utils::web::WebProgress>::Event*)>::target(std::type_info const&) const
FUNC 51b38 c 0 std::__ndk1::__function::__func<GeodeNetwork::setupListener()::$_0, std::__ndk1::allocator<GeodeNetwork::setupListener()::$_0>, void (geode::Task<geode::utils::web::WebResponse, geode::utils::web::WebProgress>::Event*)>::target_type() const
FUNC 51b44 14 0 std::__ndk1::__variant_detail::__visitation::__base::__dispatcher<(unsigned long)0>::__dispatch[abi:ne180000]<std::__ndk1::__variant_detail::__dtor<std::__ndk1::__variant_detail::__traits<std::__ndk1::basic_string<char, std::__ndk1::char_traits<char>, std::__ndk1::allocator<char> >, std::__ndk1::allocator<char> >, (std::__ndk1::__variant_detail::_Trait)1>::__destroy[abi:ne180000]()::{lambda(auto:1&)#1}, std::__ndk1::__variant_detail::__base<(std::__ndk1::__variant_detail::__traits<std::__ndk1::basic_string<char, std::__ndk1::char_traits<char>, std::__ndk1::allocator<char> >, std::__ndk1::allocator<char> >)1, std::__ndk1::allocator<char>, std::__ndk1::allocator<char> >&>(std::__ndk1::__variant_detail::__dtor<std::__ndk1::__variant_detail::__traits<std::__ndk1::basic_string<char, std::__ndk1::char_traits<char>, std::__ndk1::allocator<char> >, std::__ndk1::allocator<char> >, (std::__ndk1::__variant_detail::_Trait)1>, std::__ndk1::__variant_detail::__base<(std::__ndk1::__variant_detail::__traits<std::__ndk1::basic_string<char, std::__ndk1::char_traits<char>, std::__ndk1::allocator<char> >, std::__ndk1::allocator<char> >)1, std::__ndk1::allocator<char>, std::__ndk1::allocator<char> >&)
FUNC 51b58 14 0 std::__ndk1::__variant_detail::__visitation::__base::__dispatcher<(unsigned long)1>::__dispatch[abi:ne180000]<std::__ndk1::__variant_detail::__dtor<std::__ndk1::__variant_detail::__traits<std::__ndk1::basic_string<char, std::__ndk1::char_traits<char>, std::__ndk1::allocator<char> >, std::__ndk1::allocator<char> >, (std::__ndk1::__variant_detail::_Trait)1>::__destroy[abi:ne180000]()::{lambda(auto:1&)#1}, std::__ndk1::__variant_detail::__base<(std::__ndk1::__variant_detail::__traits<std::__ndk1::basic_string<char, std::__ndk1::char_traits<char>, std::__ndk1::allocator<char> >, std::__ndk1::allocator<char> >)1, std::__ndk1::allocator<char>, std::__ndk1::allocator<char> >&>(std::__ndk1::__variant_detail::__dtor<std::__ndk1::__variant_detail::__traits<std::__ndk1::basic_string<char, std::__ndk1::char_traits<char>, std::__ndk1::allocator<char> >, std::__ndk1::allocator<char> >, (std::__ndk1::__variant_detail::_Trait)1>, std::__ndk1::__variant_detail::__base<(std::__ndk1::__variant_detail::__traits<std::__ndk1::basic_string<char, std::__ndk1::char_traits<char>, std::__ndk1::allocator<char> >, std::__ndk1::allocator<char> >)1, std::__ndk1::allocator<char>, std::__ndk1::allocator<char> >&)
FUNC 51b6c 30 0 geodeImplicitEntry
FUNC 51b9c 4c 0 std::__ndk1::unordered_map<void*, bool, std::__ndk1::hash<void*>, std::__ndk1::equal_to<void*>, std::__ndk1::allocator<std::__ndk1::pair<void* const, bool> > >::~unordered_map[abi:ne180000]()
FUNC 51be8 134 0 wrapFunction(unsigned long, tulip::hook::WrapperMetadata const&)
FUNC 51d1c 78 0 geode::impl::ResultData<void*, std::__ndk1::basic_string<char, std::__ndk1::char_traits<char>, std::__ndk1::allocator<char> > >::unwrapErr() &
FUNC 51d94 74 0 geode::impl::ResultData<void*, std::__ndk1::basic_string<char, std::__ndk1::char_traits<char>, std::__ndk1::allocator<char> > >::~ResultData()
FUNC 51e08 64 0 tulip::hook::WrapperMetadata::~WrapperMetadata()
FUNC 51e6c 224 0 cocos2d::CCObject::CCObject()
FUNC 52090 24 0 cocos2d::CCObject::~CCObject()
FUNC 520b4 24 0 cocos2d::CCNode::~CCNode()
FUNC 520d8 28c 0 cocos2d::CCLayer::CCLayer()
FUNC 52364 8 0 {virtual override thunk({offset(-320)}, cocos2d::CCLayer::~CCLayer())}
FUNC 5236c 24 0 cocos2d::CCLayer::~CCLayer()
FUNC 52390 28 0 {virtual override thunk({offset(-320)}, cocos2d::CCLayer::~CCLayer())}
FUNC 523b8 308 0 cocos2d::CCLayerRGBA::~CCLayerRGBA()
FUNC 526c0 8 0 {virtual override thunk({offset(-320)}, cocos2d::CCLayerRGBA::~CCLayerRGBA())}
FUNC 526c8 24 0 cocos2d::CCLayerRGBA::~CCLayerRGBA()
FUNC 526ec 28 0 {virtual override thunk({offset(-320)}, cocos2d::CCLayerRGBA::~CCLayerRGBA())}
FUNC 52714 26c 0 cocos2d::CCLayerColor::CCLayerColor()
FUNC 52980 8 0 {virtual override thunk({offset(-320)}, cocos2d::CCLayerColor::~CCLayerColor())}
FUNC 52988 24 0 cocos2d::CCLayerColor::~CCLayerColor()
FUNC 529ac 28 0 {virtual override thunk({offset(-320)}, cocos2d::CCLayerColor::~CCLayerColor())}
FUNC 529d4 8 0 {virtual override thunk({offset(-320)}, FLAlertLayer::~FLAlertLayer())}
FUNC 529dc 24 0 FLAlertLayer::~FLAlertLayer()
FUNC 52a00 28 0 {virtual override thunk({offset(-320)}, FLAlertLayer::~FLAlertLayer())}
FUNC 52a28 1b8 0 FLAlertLayer::create(FLAlertLayerProtocol*, char const*, gd::string, char const*, char const*, float)
FUNC 52be0 148 0 tulip::hook::AbstractFunction::from<FLAlertLayer*, FLAlertLayerProtocol*, char const*, gd::string, char const*, char const*, float>(FLAlertLayer* (*)(FLAlertLayerProtocol*, char const*, gd::string, char const*, char const*, float))
FUNC 52d28 ac 0 FLAlertLayer::create(char const*, gd::string const&, char const*)
FUNC 52dd4 250 0 LevelCell::LevelCell(char const*, float, float)
FUNC 53024 e4 0 LevelCell::LevelCell(geode::CutoffConstructorType, unsigned long)
FUNC 53108 100 0 tulip::hook::AbstractFunction::from<void, LevelCell*, char const*, float, float>(void (*)(LevelCell*, char const*, float, float))
FUNC 53208 5c 0 TableViewCell::~TableViewCell()
FUNC 53264 4 0 cocos2d::CCObject::update(float)
FUNC 53268 2ec 0 cocos2d::CCLayerColor::~CCLayerColor()
FUNC 53554 2ec 0 FLAlertLayer::~FLAlertLayer()
FUNC 53840 24 0 CCIndexPath::~CCIndexPath()
FUNC 53864 2a8 0 cocos2d::CCNode::~CCNode()
FUNC 53b0c 2f8 0 cocos2d::CCLayer::~CCLayer()
FUNC 53e04 4c4 0 cocos2d::CCObject::~CCObject()
FUNC 542c8 154 0 _ZN5geode15UnwrapExceptionC2IRPvQsr4implE18IsStringStreamableIT_EEENS_4impl5OkTagEOS4_
FUNC 5441c 4 0 std::__ndk1::__variant_detail::__visitation::__base::__dispatcher<(unsigned long)0>::__dispatch[abi:ne180000]<std::__ndk1::__variant_detail::__dtor<std::__ndk1::__variant_detail::__traits<void*, std::__ndk1::basic_string<char, std::__ndk1::char_traits<char>, std::__ndk1::allocator<char> > >, (std::__ndk1::__variant_detail::_Trait)1>::__destroy[abi:ne180000]()::{lambda(auto:1&)#1}, std::__ndk1::__variant_detail::__base<(std::__ndk1::__variant_detail::__traits<void*, std::__ndk1::basic_string<char, std::__ndk1::char_traits<char>, std::__ndk1::allocator<char> > >)1, std::__ndk1::__variant_detail::__traits, std::__ndk1::allocator<char> >&>(std::__ndk1::__variant_detail::__dtor<std::__ndk1::__variant_detail::__traits<void*, std::__ndk1::basic_string<char, std::__ndk1::char_traits<char>, std::__ndk1::allocator<char> > >, (std::__ndk1::__variant_detail::_Trait)1>, std::__ndk1::__variant_detail::__base<(std::__ndk1::__variant_detail::__traits<void*, std::__ndk1::basic_string<char, std::__ndk1::char_traits<char>, std::__ndk1::allocator<char> > >)1, std::__ndk1::__variant_detail::__traits, std::__ndk1::allocator<char> >&)
FUNC 54420 14 0 std::__ndk1::__variant_detail::__visitation::__base::__dispatcher<(unsigned long)1>::__dispatch[abi:ne180000]<std::__ndk1::__variant_detail::__dtor<std::__ndk1::__variant_detail::__traits<void*, std::__ndk1::basic_string<char, std::__ndk1::char_traits<char>, std::__ndk1::allocator<char> > >, (std::__ndk1::__variant_detail::_Trait)1>::__destroy[abi:ne180000]()::{lambda(auto:1&)#1}, std::__ndk1::__variant_detail::__base<(std::__ndk1::__variant_detail::__traits<void*, std::__ndk1::basic_string<char, std::__ndk1::char_traits<char>, std::__ndk1::allocator<char> > >)1, std::__ndk1::__variant_detail::__traits, std::__ndk1::allocator<char> >&>(std::__ndk1::__variant_detail::__dtor<std::__ndk1::__variant_detail::__traits<void*, std::__ndk1::basic_string<char, std::__ndk1::char_traits<char>, std::__ndk1::allocator<char> > >, (std::__ndk1::__variant_detail::_Trait)1>, std::__ndk1::__variant_detail::__base<(std::__ndk1::__variant_detail::__traits<void*, std::__ndk1::basic_string<char, std::__ndk1::char_traits<char>, std::__ndk1::allocator<char> > >)1, std::__ndk1::__variant_detail::__traits, std::__ndk1::allocator<char> >&)
FUNC 54434 64 0 TableViewCell::~TableViewCell()
FUNC 54498 60 0 {virtual override thunk({offset(-320)}, TableViewCell::~TableViewCell())}
FUNC 544f8 68 0 {virtual override thunk({offset(-320)}, TableViewCell::~TableViewCell())}
FUNC 54560 43c 0 std::__ndk1::__hash_table<std::__ndk1::__hash_value_type<void*, bool>, std::__ndk1::__unordered_map_hasher<void*, std::__ndk1::__hash_value_type<void*, bool>, std::__ndk1::hash<void*>, std::__ndk1::equal_to<void*>, true>, std::__ndk1::__unordered_map_equal<void*, std::__ndk1::__hash_value_type<void*, bool>, std::__ndk1::equal_to<void*>, std::__ndk1::hash<void*>, true>, std::__ndk1::allocator<std::__ndk1::__hash_value_type<void*, bool> > >::__emplace_unique_key_args<void*, std::__ndk1::piecewise_construct_t const&, std::__ndk1::tuple<void* const&>, std::__ndk1::tuple<> >(void* const&, std::__ndk1::piecewise_construct_t const&, std::__ndk1::tuple<void* const&>, std::__ndk1::tuple<>)
PUBLIC 5499c 0 __udivti3
PUBLIC 549a8 0 __udivmodti4
PUBLIC m 54bf4 0 __eqtf2
PUBLIC 54c94 0 __unordtf2
FUNC 54ccc 294 0 fmt::v11::detail::write_loc(fmt::v11::basic_appender<char>, fmt::v11::loc_value, fmt::v11::format_specs const&, fmt::v11::detail::locale_ref)
FUNC 54f60 70 0 fmt::v11::format_facet<std::__ndk1::locale>::~format_facet()
FUNC 54fd0 50 0 fmt::v11::report_error(char const*)
FUNC 55020 2c 0 fmt::v11::format_error::runtime_error(char const*)
FUNC 5504c 750 0 fmt::v11::format_facet<std::__ndk1::locale>::do_put(fmt::v11::basic_appender<char>, fmt::v11::loc_value, fmt::v11::format_specs const&) const
FUNC 5579c 64 0 fmt::v11::detail::loc_writer<char>::~loc_writer()
FUNC 55800 12c 0 fmt::v11::vformat(fmt::v11::basic_string_view<char>, fmt::v11::basic_format_args<fmt::v11::context>)
FUNC 5592c 3c8 0 fmt::v11::detail::vformat_to<char>(fmt::v11::detail::buffer<char>&, fmt::v11::basic_string_view<char>, fmt::v11::detail::vformat_args<char>::type, fmt::v11::detail::locale_ref)
FUNC 55cf4 228 0 fmt::v11::detail::is_printable(unsigned int)
FUNC 55f1c 2b4 0 fmt::v11::detail::dragonbox::to_decimal<float>(float)
FUNC 561d0 530 0 fmt::v11::detail::dragonbox::to_decimal<double>(double)
FUNC 56700 78 0 fmt::v11::basic_memory_buffer<char, (unsigned long)500, std::__ndk1::allocator<char> >::grow(fmt::v11::detail::buffer<char>&, unsigned long)
FUNC 56778 78 0 fmt::v11::format_facet<std::__ndk1::locale>::~format_facet()
FUNC 567f0 24 0 fmt::v11::format_error::~format_error()
FUNC 56814 150 0 fmt::v11::detail::copy_noinline<char, char const*, fmt::v11::basic_appender<char> >(char const*, char const*, fmt::v11::basic_appender<char>)
FUNC 56964 6c 0 fmt::v11::detail::default_arg_formatter<char>::operator()<bool>(bool)
FUNC 569d0 74 0 fmt::v11::detail::default_arg_formatter<char>::operator()<char>(char)
FUNC 56a44 f0 0 fmt::v11::detail::default_arg_formatter<char>::operator()<float>(float)
FUNC 56b34 f0 0 fmt::v11::detail::default_arg_formatter<char>::operator()<double>(double)
FUNC 56c24 48 0 fmt::v11::detail::default_arg_formatter<char>::operator()<char const*>(char const*)
FUNC 56c6c 9c 0 fmt::v11::detail::default_arg_formatter<char>::operator()<void const*>(void const*)
FUNC 56d08 220 0 _ZN3fmt3v116detail5writeIcNS0_14basic_appenderIcEEiTnNSt6__ndk19enable_ifIXaaaasr11is_integralIT1_EE5valuentsr3std7is_sameIS7_bEE5valuentsr3std7is_sameIS7_T_EE5valueEiE4typeELi0EEET0_SB_S7_
FUNC 56f28 150 0 fmt::v11::detail::copy_noinline<char, char*, fmt::v11::basic_appender<char> >(char*, char*, fmt::v11::basic_appender<char>)
FUNC 57078 1c4 0 _ZN3fmt3v116detail5writeIcNS0_14basic_appenderIcEEjTnNSt6__ndk19enable_ifIXaaaasr11is_integralIT1_EE5valuentsr3std7is_sameIS7_bEE5valuentsr3std7is_sameIS7_T_EE5valueEiE4typeELi0EEET0_SB_S7_
FUNC 5723c 244 0 _ZN3fmt3v116detail5writeIcNS0_14basic_appenderIcEExTnNSt6__ndk19enable_ifIXaaaasr11is_integralIT1_EE5valuentsr3std7is_sameIS7_bEE5valuentsr3std7is_sameIS7_T_EE5valueEiE4typeELi0EEET0_SB_S7_
FUNC 57480 1ec 0 _ZN3fmt3v116detail5writeIcNS0_14basic_appenderIcEEyTnNSt6__ndk19enable_ifIXaaaasr11is_integralIT1_EE5valuentsr3std7is_sameIS7_bEE5valuentsr3std7is_sameIS7_T_EE5valueEiE4typeELi0EEET0_SB_S7_
FUNC 5766c 304 0 _ZN3fmt3v116detail5writeIcNS0_14basic_appenderIcEEnTnNSt6__ndk19enable_ifIXaaaasr11is_integralIT1_EE5valuentsr3std7is_sameIS7_bEE5valuentsr3std7is_sameIS7_T_EE5valueEiE4typeELi0EEET0_SB_S7_
FUNC 57970 2a4 0 _ZN3fmt3v116detail5writeIcNS0_14basic_appenderIcEEoTnNSt6__ndk19enable_ifIXaaaasr11is_integralIT1_EE5valuentsr3std7is_sameIS7_bEE5valuentsr3std7is_sameIS7_T_EE5valueEiE4typeELi0EEET0_SB_S7_
FUNC 57c14 2b4 0 _ZN3fmt3v116detail5writeIcNS0_14basic_appenderIcEEbTnNSt6__ndk19enable_ifIXsr3std7is_sameIT1_bEE5valueEiE4typeELi0EEET0_SA_S7_RKNS0_12format_specsENS1_10locale_refE
FUNC 57ec8 dd4 0 fmt::v11::detail::write_int_noinline<char, fmt::v11::basic_appender<char>, unsigned int>(fmt::v11::basic_appender<char>, fmt::v11::detail::write_int_arg<unsigned int>, fmt::v11::format_specs const&, fmt::v11::detail::locale_ref)
FUNC 58c9c 254 0 fmt::v11::detail::write_padded<char, (fmt::v11::align::type)1, fmt::v11::basic_appender<char>, fmt::v11::detail::write_char<char, fmt::v11::basic_appender<char> >(fmt::v11::basic_appender<char>, char, fmt::v11::format_specs const&)::{lambda(fmt::v11::basic_appender<char>&)#1}>(fmt::v11::basic_appender<char>, fmt::v11::format_specs const&, unsigned long, unsigned long, fmt::v11::detail::write_char<char, fmt::v11::basic_appender<char> >(fmt::v11::basic_appender<char>, char, fmt::v11::format_specs const&)::{lambda(fmt::v11::basic_appender<char>&)#1})
FUNC 58ef0 258 0 fmt::v11::detail::write_padded<char, (fmt::v11::align::type)1, fmt::v11::basic_appender<char>, fmt::v11::detail::write_nonfinite<char, fmt::v11::basic_appender<char> >(fmt::v11::basic_appender<char>, bool, fmt::v11::format_specs, fmt::v11::sign::type)::{lambda(fmt::v11::basic_appender<char>&)#1}>(fmt::v11::basic_appender<char>, fmt::v11::format_specs const&, unsigned long, unsigned long, fmt::v11::detail::write_nonfinite<char, fmt::v11::basic_appender<char> >(fmt::v11::basic_appender<char>, bool, fmt::v11::format_specs, fmt::v11::sign::type)::{lambda(fmt::v11::basic_appender<char>&)#1})
FUNC 59148 c3c 0 fmt::v11::detail::do_write_float<char, fmt::v11::basic_appender<char>, fmt::v11::detail::dragonbox::decimal_fp<float>, fmt::v11::detail::digit_grouping<char> >(fmt::v11::basic_appender<char>, fmt::v11::detail::dragonbox::decimal_fp<float> const&, fmt::v11::format_specs const&, fmt::v11::detail::float_specs, fmt::v11::detail::locale_ref)
FUNC 59d84 154 0 fmt::v11::detail::do_write_float<char, fmt::v11::basic_appender<char>, fmt::v11::detail::dragonbox::decimal_fp<float>, fmt::v11::detail::digit_grouping<char> >(fmt::v11::basic_appender<char>, fmt::v11::detail::dragonbox::decimal_fp<float> const&, fmt::v11::format_specs const&, fmt::v11::detail::float_specs, fmt::v11::detail::locale_ref)::{lambda(fmt::v11::basic_appender<char>(fmt::v11::basic_appender<char>))#1}::operator() const
FUNC 59ed8 238 0 fmt::v11::detail::digit_grouping<char>::digit_grouping(fmt::v11::detail::locale_ref, bool)
FUNC 5a110 44 0 fmt::v11::detail::digit_grouping<char>::~digit_grouping()
FUNC 5a154 1a4 0 fmt::v11::detail::write_exponent<char, fmt::v11::basic_appender<char> >(int, fmt::v11::basic_appender<char>)
FUNC 5a2f8 17c 0 _ZN3fmt3v116detail17write_significandIcjTnNSt6__ndk19enable_ifIXsr3std11is_integralIT0_EE5valueEiE4typeELi0EEEPT_S9_S5_iiS8_
FUNC 5a474 3a4 0 fmt::v11::detail::digit_grouping<char>::apply<fmt::v11::basic_appender<char>, char>(fmt::v11::basic_appender<char>, fmt::v11::basic_string_view<char>) const
FUNC 5a818 a0 0 fmt::v11::basic_memory_buffer<int, (unsigned long)500, std::__ndk1::allocator<int> >::grow(fmt::v11::detail::buffer<int>&, unsigned long)
FUNC 5a8b8 c78 0 fmt::v11::detail::do_write_float<char, fmt::v11::basic_appender<char>, fmt::v11::detail::dragonbox::decimal_fp<double>, fmt::v11::detail::digit_grouping<char> >(fmt::v11::basic_appender<char>, fmt::v11::detail::dragonbox::decimal_fp<double> const&, fmt::v11::format_specs const&, fmt::v11::detail::float_specs, fmt::v11::detail::locale_ref)
FUNC 5b530 158 0 fmt::v11::detail::do_write_float<char, fmt::v11::basic_appender<char>, fmt::v11::detail::dragonbox::decimal_fp<double>, fmt::v11::detail::digit_grouping<char> >(fmt::v11::basic_appender<char>, fmt::v11::detail::dragonbox::decimal_fp<double> const&, fmt::v11::format_specs const&, fmt::v11::detail::float_specs, fmt::v11::detail::locale_ref)::{lambda(fmt::v11::basic_appender<char>(fmt::v11::basic_appender<char>))#1}::operator() const
FUNC 5b688 190 0 _ZN3fmt3v116detail17write_significandIcmTnNSt6__ndk19enable_ifIXsr3std11is_integralIT0_EE5valueEiE4typeELi0EEEPT_S9_S5_iiS8_
FUNC 5b818 ad0 0 fmt::v11::detail::write_float<char, fmt::v11::basic_appender<char>, long double>(fmt::v11::basic_appender<char>, long double, fmt::v11::format_specs, fmt::v11::detail::locale_ref)
FUNC 5c2e8 1f4 0 fmt::v11::detail::write_padded<char, (fmt::v11::align::type)2, fmt::v11::basic_appender<char>, fmt::v11::detail::write_bytes<char, (fmt::v11::align::type)2, fmt::v11::basic_appender<char> >(fmt::v11::basic_appender<char>, fmt::v11::basic_string_view<char>, fmt::v11::format_specs const&)::{lambda(fmt::v11::basic_appender<char>&)#1}>(fmt::v11::basic_appender<char>, fmt::v11::format_specs const&, unsigned long, unsigned long, fmt::v11::detail::write_bytes<char, (fmt::v11::align::type)2, fmt::v11::basic_appender<char> >(fmt::v11::basic_appender<char>, fmt::v11::basic_string_view<char>, fmt::v11::format_specs const&)::{lambda(fmt::v11::basic_appender<char>&)#1})
FUNC 5c4dc 1350 0 fmt::v11::detail::format_dragon(fmt::v11::detail::basic_fp<unsigned __int128>, unsigned int, int, fmt::v11::detail::buffer<char>&, int&)
FUNC 5d82c 124 0 fmt::v11::detail::bigint::operator<<=(int)
FUNC 5d950 744 0 fmt::v11::detail::bigint::assign_pow10(int)
FUNC 5e094 2f4 0 fmt::v11::detail::bigint::divmod_assign(fmt::v11::detail::bigint const&)
FUNC 5e388 a0 0 fmt::v11::basic_memory_buffer<unsigned int, (unsigned long)32, std::__ndk1::allocator<unsigned int> >::grow(fmt::v11::detail::buffer<unsigned int>&, unsigned long)
FUNC 5e428 e8c 0 fmt::v11::detail::do_write_float<char, fmt::v11::basic_appender<char>, fmt::v11::detail::big_decimal_fp, fmt::v11::detail::digit_grouping<char> >(fmt::v11::basic_appender<char>, fmt::v11::detail::big_decimal_fp const&, fmt::v11::format_specs const&, fmt::v11::detail::float_specs, fmt::v11::detail::locale_ref)
FUNC 5f2b4 160 0 fmt::v11::detail::do_write_float<char, fmt::v11::basic_appender<char>, fmt::v11::detail::big_decimal_fp, fmt::v11::detail::digit_grouping<char> >(fmt::v11::basic_appender<char>, fmt::v11::detail::big_decimal_fp const&, fmt::v11::format_specs const&, fmt::v11::detail::float_specs, fmt::v11::detail::locale_ref)::{lambda(fmt::v11::basic_appender<char>(fmt::v11::basic_appender<char>))#1}::operator() const
FUNC 5f414 214 0 fmt::v11::detail::write_padded<char, (fmt::v11::align::type)2, fmt::v11::basic_appender<char>, fmt::v11::detail::write_ptr<char, fmt::v11::basic_appender<char>, unsigned long>(fmt::v11::basic_appender<char>, unsigned long, fmt::v11::format_specs const*)::{lambda(fmt::v11::basic_appender<char>&)#1}>(fmt::v11::basic_appender<char>, fmt::v11::format_specs const&, unsigned long, unsigned long, fmt::v11::detail::write_ptr<char, fmt::v11::basic_appender<char>, unsigned long>(fmt::v11::basic_appender<char>, unsigned long, fmt::v11::format_specs const*)::{lambda(fmt::v11::basic_appender<char>&)#1})
FUNC 5f628 14c4 0 fmt::v11::detail::parse_replacement_field<char, fmt::v11::detail::vformat_to<char>(fmt::v11::detail::buffer<char>&, fmt::v11::basic_string_view<char>, fmt::v11::detail::vformat_args<char>::type, fmt::v11::detail::locale_ref)::format_handler&>(char const*, char const*, fmt::v11::detail::vformat_to<char>(fmt::v11::detail::buffer<char>&, fmt::v11::basic_string_view<char>, fmt::v11::detail::vformat_args<char>::type, fmt::v11::detail::locale_ref)::format_handler&)
FUNC 60aec e30 0 fmt::v11::detail::write_int_noinline<char, fmt::v11::basic_appender<char>, unsigned long>(fmt::v11::basic_appender<char>, fmt::v11::detail::write_int_arg<unsigned long>, fmt::v11::format_specs const&, fmt::v11::detail::locale_ref)
FUNC 6191c fd4 0 fmt::v11::detail::write_int_noinline<char, fmt::v11::basic_appender<char>, unsigned __int128>(fmt::v11::basic_appender<char>, fmt::v11::detail::write_int_arg<unsigned __int128>, fmt::v11::format_specs const&, fmt::v11::detail::locale_ref)
FUNC 628f0 510 0 _ZN3fmt3v116detail15format_hexfloatIdTnNSt6__ndk19enable_ifIXntsr16is_double_doubleIT_EE5valueEiE4typeELi0EEEvS5_NS0_12format_specsERNS1_6bufferIcEE
FUNC 62e00 98c 0 fmt::v11::detail::format_float<double>(double, int, fmt::v11::detail::float_specs, fmt::v11::detail::buffer<char>&)
FUNC 6378c 570 0 fmt::v11::detail::write_int<fmt::v11::basic_appender<char>, unsigned long, char>(fmt::v11::basic_appender<char>, unsigned long, unsigned int, fmt::v11::format_specs const&, fmt::v11::detail::digit_grouping<char> const&)
FUNC 63cfc 664 0 fmt::v11::detail::write_int<fmt::v11::basic_appender<char>, unsigned __int128, char>(fmt::v11::basic_appender<char>, unsigned __int128, unsigned int, fmt::v11::format_specs const&, fmt::v11::detail::digit_grouping<char> const&)
PUBLIC 64360 0 <.plt ELF section in dogotrigger.level_history.android64.so>
STACK CFI INIT 26980 10 .cfa: sp 0 +
STACK CFI INIT 26990 8 .cfa: sp 0 +
STACK CFI INIT 26998 8 .cfa: sp 0 +
STACK CFI INIT 269a0 14 .cfa: sp 0 +
STACK CFI INIT 269b4 1c .cfa: sp 0 +
STACK CFI INIT 269d0 10 .cfa: sp 0 +
STACK CFI INIT 269e0 134 .cfa: sp 0 +
STACK CFI INIT 26b14 84 .cfa: sp 0 +
STACK CFI INIT 26b98 f4 .cfa: sp 0 +
STACK CFI INIT 26c8c a8 .cfa: sp 0 +
STACK CFI INIT 26d34 7c .cfa: sp 0 +
STACK CFI INIT 26db0 14 .cfa: sp 0 +
STACK CFI INIT 26dc4 40 .cfa: sp 0 +
STACK CFI INIT 26e04 28 .cfa: sp 0 +
STACK CFI INIT 26e2c 190 .cfa: sp 0 +
STACK CFI INIT 26fbc 2c8 .cfa: sp 0 +
STACK CFI INIT 27284 8 .cfa: sp 0 +
STACK CFI INIT 2728c 8 .cfa: sp 0 +
STACK CFI INIT 27294 44 .cfa: sp 0 +
STACK CFI INIT 272d8 e8 .cfa: sp 0 +
STACK CFI INIT 273c0 e8 .cfa: sp 0 +
STACK CFI INIT 274a8 14 .cfa: sp 0 +
STACK CFI INIT 274bc 10 .cfa: sp 0 +
STACK CFI INIT 274cc 10 .cfa: sp 0 +
STACK CFI INIT 274dc f0 .cfa: sp 0 +
STACK CFI INIT 275cc 44 .cfa: sp 0 +
STACK CFI INIT 27610 c .cfa: sp 0 +
STACK CFI INIT 2761c c .cfa: sp 0 +
STACK CFI INIT 27628 2c .cfa: sp 0 +
STACK CFI INIT 27654 280 .cfa: sp 0 +
STACK CFI INIT 278d4 c .cfa: sp 0 +
STACK CFI INIT 278e0 120 .cfa: sp 0 +
STACK CFI INIT 27a00 488 .cfa: sp 0 +
STACK CFI INIT 27e88 c48 .cfa: sp 0 +
STACK CFI INIT 28ad0 134 .cfa: sp 0 +
STACK CFI INIT 28c04 210 .cfa: sp 0 +
STACK CFI INIT 28e14 38c .cfa: sp 0 +
STACK CFI INIT 291a0 1c8 .cfa: sp 0 +
STACK CFI INIT 29368 9bc .cfa: sp 0 +
STACK CFI INIT 29d24 2d4 .cfa: sp 0 +
STACK CFI INIT 29ff8 134 .cfa: sp 0 +
STACK CFI INIT 2a12c 120 .cfa: sp 0 +
STACK CFI INIT 2a24c 1c8 .cfa: sp 0 +
STACK CFI INIT 2a414 168 .cfa: sp 0 +
STACK CFI INIT 2a57c fc .cfa: sp 0 +
STACK CFI INIT 2a678 30 .cfa: sp 0 +
STACK CFI INIT 2a7e0 30 .cfa: sp 0 +
STACK CFI INIT 2a810 98 .cfa: sp 0 +
STACK CFI INIT 2a8a8 59c .cfa: sp 0 +
STACK CFI INIT 2ae44 8c .cfa: sp 0 +
STACK CFI INIT 2aed0 30 .cfa: sp 0 +
STACK CFI INIT 2af00 98 .cfa: sp 0 +
STACK CFI 2af04 .cfa: sp 48 +
STACK CFI 2af10 .cfa: x29 48 + x19: .cfa -8 + ^ x20: .cfa -16 + ^ x21: .cfa -24 + ^ x22: .cfa -32 + ^ .ra: .cfa -40 + ^ x29: .cfa -48 + ^
STACK CFI 2af78 .cfa: sp 48 +
STACK CFI 2af84 .cfa: sp 0 +
STACK CFI 2af88 .cfa: sp 48 +
STACK CFI 2af94 .cfa: sp 0 +
STACK CFI INIT 2b73c 18 .cfa: sp 0 +
STACK CFI INIT 2b754 10 .cfa: sp 0 +
STACK CFI 2b758 .cfa: sp 16 +
STACK CFI 2b75c .cfa: x29 16 + .ra: .cfa -8 + ^ x29: .cfa -16 + ^
STACK CFI INIT 2b764 50 .cfa: sp 0 +
STACK CFI 2b768 .cfa: sp 32 +
STACK CFI 2b770 .cfa: x29 32 + x19: .cfa -16 + ^ .ra: .cfa -24 + ^ x29: .cfa -32 + ^
STACK CFI 2b788 .cfa: sp 32 +
STACK CFI 2b790 .cfa: sp 0 +
STACK CFI 2b794 .cfa: x29 32 +
STACK CFI 2b7a8 .cfa: sp 32 +
STACK CFI 2b7b0 .cfa: sp 0 +
STACK CFI INIT 2bc0c 50 .cfa: sp 0 +
STACK CFI 2bc10 .cfa: sp 32 +
STACK CFI 2bc18 .cfa: x29 32 + x19: .cfa -16 + ^ .ra: .cfa -24 + ^ x29: .cfa -32 + ^
STACK CFI 2bc30 .cfa: sp 32 +
STACK CFI 2bc38 .cfa: sp 0 +
STACK CFI 2bc3c .cfa: x29 32 +
STACK CFI 2bc50 .cfa: sp 32 +
STACK CFI 2bc58 .cfa: sp 0 +
STACK CFI INIT 2bcd0 7c .cfa: sp 0 +
STACK CFI 2bcd4 .cfa: sp 48 +
STACK CFI 2bce0 .cfa: x29 48 + x19: .cfa -8 + ^ x20: .cfa -16 + ^ x21: .cfa -32 + ^ .ra: .cfa -40 + ^ x29: .cfa -48 + ^
STACK CFI 2bd2c .cfa: sp 48 +
STACK CFI 2bd38 .cfa: sp 0 +
STACK CFI 2bd3c .cfa: sp 48 +
STACK CFI 2bd48 .cfa: sp 0 +
STACK CFI INIT 2bd4c 4 .cfa: sp 0 +
STACK CFI INIT 2bea4 34 .cfa: sp 0 +
STACK CFI 2bea8 .cfa: sp 16 +
STACK CFI 2beac .cfa: x29 16 + .ra: .cfa -8 + ^ x29: .cfa -16 + ^
STACK CFI INIT 2bffc 80 .cfa: sp 0 +
STACK CFI 2c000 .cfa: sp 48 +
STACK CFI 2c00c .cfa: x29 48 + x19: .cfa -8 + ^ x20: .cfa -16 + ^ x21: .cfa -32 + ^ .ra: .cfa -40 + ^ x29: .cfa -48 + ^
STACK CFI 2c06c .cfa: sp 48 +
STACK CFI 2c078 .cfa: sp 0 +
STACK CFI INIT 2c07c 24 .cfa: sp 0 +
STACK CFI 2c080 .cfa: sp 32 +
STACK CFI 2c088 .cfa: x29 32 + x19: .cfa -16 + ^ .ra: .cfa -24 + ^ x29: .cfa -32 + ^
STACK CFI 2c094 .cfa: sp 32 +
STACK CFI 2c09c .cfa: sp 0 +
STACK CFI INIT 2c3ec 14 .cfa: sp 0 +
STACK CFI 2c3f0 .cfa: sp 16 +
STACK CFI 2c3f4 .cfa: x29 16 + .ra: .cfa -8 + ^ x29: .cfa -16 + ^
STACK CFI INIT 2c450 30 .cfa: sp 0 +
STACK CFI 2c454 .cfa: sp 32 +
STACK CFI 2c45c .cfa: x29 32 + x19: .cfa -16 + ^ .ra: .cfa -24 + ^ x29: .cfa -32 + ^
STACK CFI 2c474 .cfa: sp 32 +
STACK CFI 2c47c .cfa: sp 0 +
STACK CFI INIT 2c480 34 .cfa: sp 0 +
STACK CFI 2c484 .cfa: sp 32 +
STACK CFI 2c48c .cfa: x29 32 + x19: .cfa -16 + ^ .ra: .cfa -24 + ^ x29: .cfa -32 + ^
STACK CFI INIT 2c610 148 .cfa: sp 0 +
STACK CFI 2c614 .cfa: sp 48 +
STACK CFI 2c620 .cfa: x29 48 + x19: .cfa -8 + ^ x20: .cfa -16 + ^ x21: .cfa -32 + ^ .ra: .cfa -40 + ^ x29: .cfa -48 + ^
STACK CFI 2c748 .cfa: sp 48 +
STACK CFI 2c754 .cfa: sp 0 +
STACK CFI INIT 2c758 70 .cfa: sp 0 +
STACK CFI 2c75c .cfa: sp 48 +
STACK CFI 2c768 .cfa: x29 48 + x19: .cfa -8 + ^ x20: .cfa -16 + ^ x21: .cfa -24 + ^ x22: .cfa -32 + ^ .ra: .cfa -40 + ^ x29: .cfa -48 + ^
STACK CFI 2c7b0 .cfa: sp 48 +
STACK CFI 2c7bc .cfa: sp 0 +
STACK CFI 2c7c0 .cfa: x29 48 +
STACK CFI INIT 2c7c8 68 .cfa: sp 0 +
STACK CFI 2c7cc .cfa: sp 32 +
STACK CFI 2c7d4 .cfa: x29 32 + x19: .cfa -8 + ^ x20: .cfa -16 + ^ .ra: .cfa -24 + ^ x29: .cfa -32 + ^
STACK CFI 2c7ec .cfa: sp 32 +
STACK CFI 2c7f4 .cfa: sp 0 +
STACK CFI 2c7f8 .cfa: x29 32 +
STACK CFI 2c824 .cfa: sp 32 +
STACK CFI 2c82c .cfa: sp 0 +
STACK CFI INIT 2c830 14 .cfa: sp 0 +
STACK CFI 2c834 .cfa: sp 16 +
STACK CFI 2c838 .cfa: x29 16 + .ra: .cfa -8 + ^ x29: .cfa -16 + ^
STACK CFI INIT 2c844 4 .cfa: sp 0 +
STACK CFI INIT 2c848 14 .cfa: sp 0 +
STACK CFI INIT 2c85c 388 .cfa: sp 0 +
STACK CFI INIT 2cbe4 84 .cfa: sp 0 +
STACK CFI 2cbec .cfa: sp 32 +
STACK CFI 2cbf4 .cfa: x29 32 + x19: .cfa -8 + ^ x20: .cfa -16 + ^ .ra: .cfa -24 + ^ x29: .cfa -32 + ^
STACK CFI 2cc34 .cfa: sp 32 +
STACK CFI 2cc3c .cfa: sp 0 +
STACK CFI 2cc44 .cfa: x29 32 +
STACK CFI INIT 2ce44 50 .cfa: sp 0 +
STACK CFI 2ce48 .cfa: sp 32 +
STACK CFI 2ce50 .cfa: x29 32 + x19: .cfa -16 + ^ .ra: .cfa -24 + ^ x29: .cfa -32 + ^
STACK CFI 2ce68 .cfa: sp 32 +
STACK CFI 2ce70 .cfa: sp 0 +
STACK CFI 2ce74 .cfa: x29 32 +
STACK CFI 2ce88 .cfa: sp 32 +
STACK CFI 2ce90 .cfa: sp 0 +
STACK CFI INIT 2ce94 64 .cfa: sp 0 +
STACK CFI 2ce98 .cfa: sp 32 +
STACK CFI 2cea0 .cfa: x29 32 + x19: .cfa -16 + ^ .ra: .cfa -24 + ^ x29: .cfa -32 + ^
STACK CFI 2cecc .cfa: sp 32 +
STACK CFI 2ced4 .cfa: sp 0 +
STACK CFI 2ced8 .cfa: x29 32 +
STACK CFI 2ceec .cfa: sp 32 +
STACK CFI 2cef4 .cfa: sp 0 +
STACK CFI INIT 2d07c b4 .cfa: sp 0 +
STACK CFI 2d080 .cfa: sp 64 +
STACK CFI 2d090 .cfa: x29 64 + x19: .cfa -8 + ^ x20: .cfa -16 + ^ x21: .cfa -24 + ^ x22: .cfa -32 + ^ x23: .cfa -48 + ^ .ra: .cfa -56 + ^ x29: .cfa -64 + ^
STACK CFI 2d098 .cfa: sp 64 +
STACK CFI 2d0a8 .cfa: sp 0 +
STACK CFI 2d0ac .cfa: x29 64 +
STACK CFI 2d11c .cfa: sp 64 +
STACK CFI 2d12c .cfa: sp 0 +
STACK CFI INIT 2d130 14 .cfa: sp 0 +
STACK CFI 2d134 .cfa: sp 16 +
STACK CFI 2d138 .cfa: x29 16 + .ra: .cfa -8 + ^ x29: .cfa -16 + ^
STACK CFI INIT 2d144 19c .cfa: sp 0 +
STACK CFI INIT 2d2e0 50 .cfa: sp 0 +
STACK CFI 2d2e4 .cfa: sp 32 +
STACK CFI 2d2ec .cfa: x29 32 + x19: .cfa -16 + ^ .ra: .cfa -24 + ^ x29: .cfa -32 + ^
STACK CFI 2d304 .cfa: sp 32 +
STACK CFI 2d30c .cfa: sp 0 +
STACK CFI 2d310 .cfa: x29 32 +
STACK CFI 2d324 .cfa: sp 32 +
STACK CFI 2d32c .cfa: sp 0 +
STACK CFI INIT 2d330 10 .cfa: sp 0 +
STACK CFI INIT 2d340 30 .cfa: sp 0 +
STACK CFI 2d344 .cfa: sp 32 +
STACK CFI 2d34c .cfa: x29 32 + x19: .cfa -16 + ^ .ra: .cfa -24 + ^ x29: .cfa -32 + ^
STACK CFI 2d364 .cfa: sp 32 +
STACK CFI 2d36c .cfa: sp 0 +
STACK CFI INIT 2d370 40 .cfa: sp 0 +
STACK CFI 2d374 .cfa: sp 32 +
STACK CFI 2d37c .cfa: x29 32 + x19: .cfa -16 + ^ .ra: .cfa -24 + ^ x29: .cfa -32 + ^
STACK CFI 2d3a4 .cfa: sp 32 +
STACK CFI 2d3ac .cfa: sp 0 +
STACK CFI INIT 2d3b0 4 .cfa: sp 0 +
STACK CFI INIT 2d4c8 14 .cfa: sp 0 +
STACK CFI INIT 2d4dc 4 .cfa: sp 0 +
STACK CFI INIT 2d8e4 24 .cfa: sp 0 +
STACK CFI INIT 2d908 8c .cfa: sp 0 +
STACK CFI 2d90c .cfa: sp 48 +
STACK CFI 2d918 .cfa: x29 48 + x19: .cfa -8 + ^ x20: .cfa -16 + ^ x21: .cfa -24 + ^ x22: .cfa -32 + ^ .ra: .cfa -40 + ^ x29: .cfa -48 + ^
STACK CFI 2d97c .cfa: sp 48 +
STACK CFI 2d988 .cfa: sp 0 +
STACK CFI 2d98c .cfa: x29 48 +
STACK CFI INIT 2edd0 128 .cfa: sp 0 +
STACK CFI 2edd4 .cfa: sp 48 +
STACK CFI 2ede0 .cfa: x29 48 + x19: .cfa -8 + ^ x20: .cfa -16 + ^ x21: .cfa -32 + ^ .ra: .cfa -40 + ^ x29: .cfa -48 + ^
STACK CFI 2eed8 .cfa: sp 48 +
STACK CFI 2eee4 .cfa: sp 0 +
STACK CFI 2eee8 .cfa: sp 48 +
STACK CFI 2eef4 .cfa: sp 0 +
STACK CFI INIT 2f120 4c .cfa: sp 0 +
STACK CFI 2f124 .cfa: sp 32 +
STACK CFI 2f12c .cfa: x29 32 + x19: .cfa -8 + ^ x20: .cfa -16 + ^ .ra: .cfa -24 + ^ x29: .cfa -32 + ^
STACK CFI 2f154 .cfa: sp 32 +
STACK CFI 2f15c .cfa: sp 0 +
STACK CFI 2f160 .cfa: sp 32 +
STACK CFI 2f168 .cfa: sp 0 +
STACK CFI INIT 2f1f4 68 .cfa: sp 0 +
STACK CFI 2f1f8 .cfa: sp 48 +
STACK CFI 2f204 .cfa: x29 48 + x19: .cfa -8 + ^ x20: .cfa -16 + ^ x21: .cfa -32 + ^ .ra: .cfa -40 + ^ x29: .cfa -48 + ^
STACK CFI 2f24c .cfa: sp 48 +
STACK CFI 2f258 .cfa: sp 0 +
STACK CFI INIT 2fec4 64 .cfa: sp 0 +
STACK CFI 2fec8 .cfa: sp 32 +
STACK CFI 2fed0 .cfa: x29 32 + x19: .cfa -16 + ^ .ra: .cfa -24 + ^ x29: .cfa -32 + ^
STACK CFI 2ff10 .cfa: sp 32 +
STACK CFI 2ff18 .cfa: sp 0 +
STACK CFI 2ff1c .cfa: sp 32 +
STACK CFI 2ff24 .cfa: sp 0 +
STACK CFI INIT 31bcc 44 .cfa: sp 0 +
STACK CFI 31bd0 .cfa: sp 32 +
STACK CFI 31bd8 .cfa: x29 32 + x19: .cfa -16 + ^ .ra: .cfa -24 + ^ x29: .cfa -32 + ^
STACK CFI 31bf4 .cfa: sp 32 +
STACK CFI 31bfc .cfa: sp 0 +
STACK CFI 31c00 .cfa: x29 32 +
STACK CFI 31c04 .cfa: sp 32 +
STACK CFI 31c0c .cfa: sp 0 +
STACK CFI INIT 31c10 80 .cfa: sp 0 +
STACK CFI 31c14 .cfa: sp 48 +
STACK CFI 31c20 .cfa: x29 48 + x19: .cfa -8 + ^ x20: .cfa -16 + ^ x21: .cfa -32 + ^ .ra: .cfa -40 + ^ x29: .cfa -48 + ^
STACK CFI 31c38 .cfa: sp 48 +
STACK CFI 31c44 .cfa: sp 0 +
STACK CFI 31c48 .cfa: x29 48 +
STACK CFI 31c80 .cfa: sp 48 +
STACK CFI 31c8c .cfa: sp 0 +
STACK CFI INIT 34588 74 .cfa: sp 0 +
STACK CFI 3458c .cfa: sp 64 +
STACK CFI 34598 .cfa: x29 32 + x19: .cfa -16 + ^ .ra: .cfa -24 + ^ x29: .cfa -32 + ^
STACK CFI 345d4 .cfa: sp 64 +
STACK CFI 345e0 .cfa: sp 0 +
STACK CFI 345e4 .cfa: x29 32 +
STACK CFI INIT 35378 44 .cfa: sp 0 +
STACK CFI 3537c .cfa: sp 32 +
STACK CFI 35384 .cfa: x29 32 + x19: .cfa -16 + ^ .ra: .cfa -24 + ^ x29: .cfa -32 + ^
STACK CFI 353a0 .cfa: sp 32 +
STACK CFI 353a8 .cfa: sp 0 +
STACK CFI 353ac .cfa: x29 32 +
STACK CFI 353b0 .cfa: sp 32 +
STACK CFI 353b8 .cfa: sp 0 +
STACK CFI INIT 35430 50 .cfa: sp 0 +
STACK CFI 35434 .cfa: sp 32 +
STACK CFI 3543c .cfa: x29 32 + x19: .cfa -8 + ^ x20: .cfa -16 + ^ .ra: .cfa -24 + ^ x29: .cfa -32 + ^
STACK CFI 35474 .cfa: sp 32 +
STACK CFI 3547c .cfa: sp 0 +
STACK CFI INIT 35480 8c .cfa: sp 0 +
STACK CFI 35484 .cfa: sp 32 +
STACK CFI 3548c .cfa: x29 32 + x19: .cfa -8 + ^ x20: .cfa -16 + ^ .ra: .cfa -24 + ^ x29: .cfa -32 + ^
STACK CFI 35500 .cfa: sp 32 +
STACK CFI 35508 .cfa: sp 0 +
STACK CFI INIT 3550c 4 .cfa: sp 0 +
STACK CFI INIT 356bc 94 .cfa: sp 0 +
STACK CFI 356c0 .cfa: sp 32 +
STACK CFI 356c8 .cfa: x29 32 + x19: .cfa -8 + ^ x20: .cfa -16 + ^ .ra: .cfa -24 + ^ x29: .cfa -32 + ^
STACK CFI 35744 .cfa: sp 32 +
STACK CFI 3574c .cfa: sp 0 +
STACK CFI INIT 35750 e4 .cfa: sp 0 +
STACK CFI 35754 .cfa: sp 64 +
STACK CFI 35764 .cfa: x29 64 + x19: .cfa -8 + ^ x20: .cfa -16 + ^ x21: .cfa -24 + ^ x22: .cfa -32 + ^ x23: .cfa -48 + ^ .ra: .cfa -56 + ^ x29: .cfa -64 + ^
STACK CFI 357dc .cfa: sp 64 +
STACK CFI 357ec .cfa: sp 0 +
STACK CFI 357f0 .cfa: x29 64 +
STACK CFI INIT 35834 34 .cfa: sp 0 +
STACK CFI 35838 .cfa: sp 16 +
STACK CFI 3583c .cfa: x29 16 + .ra: .cfa -8 + ^ x29: .cfa -16 + ^
STACK CFI INIT 35868 24 .cfa: sp 0 +
STACK CFI 3586c .cfa: sp 32 +
STACK CFI 35874 .cfa: x29 32 + x19: .cfa -16 + ^ .ra: .cfa -24 + ^ x29: .cfa -32 + ^
STACK CFI 35880 .cfa: sp 32 +
STACK CFI 35888 .cfa: sp 0 +
STACK CFI INIT 3588c 128 .cfa: sp 0 +
STACK CFI 35890 .cfa: sp 80 +
STACK CFI 358a4 .cfa: x29 80 + x19: .cfa -8 + ^ x20: .cfa -16 + ^ x21: .cfa -24 + ^ x22: .cfa -32 + ^ x23: .cfa -40 + ^ x24: .cfa -48 + ^ x25: .cfa -64 + ^ .ra: .cfa -72 + ^ x29: .cfa -80 + ^
STACK CFI 35994 .cfa: sp 80 +
STACK CFI 359a8 .cfa: sp 0 +
STACK CFI 359ac .cfa: x29 80 +
STACK CFI INIT 35a74 14 .cfa: sp 0 +
STACK CFI 35a78 .cfa: sp 16 +
STACK CFI 35a7c .cfa: x29 16 + .ra: .cfa -8 + ^ x29: .cfa -16 + ^
STACK CFI INIT 35a88 ac .cfa: sp 0 +
STACK CFI 35a8c .cfa: sp 64 +
STACK CFI 35a9c .cfa: x29 64 + x19: .cfa -8 + ^ x20: .cfa -16 + ^ x21: .cfa -24 + ^ x22: .cfa -32 + ^ x23: .cfa -48 + ^ .ra: .cfa -56 + ^ x29: .cfa -64 + ^
STACK CFI 35b18 .cfa: sp 64 +
STACK CFI 35b28 .cfa: sp 0 +
STACK CFI 35b2c .cfa: x29 64 +
STACK CFI INIT 35b34 100 .cfa: sp 0 +
STACK CFI 35b38 .cfa: sp 64 +
STACK CFI 35b48 .cfa: x29 64 + x19: .cfa -8 + ^ x20: .cfa -16 + ^ x21: .cfa -24 + ^ x22: .cfa -32 + ^ x23: .cfa -40 + ^ x24: .cfa -48 + ^ .ra: .cfa -56 + ^ x29: .cfa -64 + ^
STACK CFI 35c18 .cfa: sp 64 +
STACK CFI 35c28 .cfa: sp 0 +
STACK CFI 35c2c .cfa: x29 64 +
STACK CFI INIT 36070 2c .cfa: sp 0 +
STACK CFI INIT 362e0 38 .cfa: sp 0 +
STACK CFI 362e4 .cfa: sp 32 +
STACK CFI 362ec .cfa: x29 32 + x19: .cfa -16 + ^ .ra: .cfa -24 + ^ x29: .cfa -32 + ^
STACK CFI 3630c .cfa: sp 32 +
STACK CFI 36314 .cfa: sp 0 +
STACK CFI INIT 36318 8 .cfa: sp 0 +
STACK CFI INIT 36320 38 .cfa: sp 0 +
STACK CFI 36324 .cfa: sp 32 +
STACK CFI 3632c .cfa: x29 32 + x19: .cfa -16 + ^ .ra: .cfa -24 + ^ x29: .cfa -32 + ^
STACK CFI 3634c .cfa: sp 32 +
STACK CFI 36354 .cfa: sp 0 +
STACK CFI INIT 36658 14 .cfa: sp 0 +
STACK CFI 3665c .cfa: sp 16 +
STACK CFI 36660 .cfa: x29 16 + .ra: .cfa -8 + ^ x29: .cfa -16 + ^
STACK CFI INIT 366bc 30 .cfa: sp 0 +
STACK CFI 366c0 .cfa: sp 32 +
STACK CFI 366c8 .cfa: x29 32 + x19: .cfa -16 + ^ .ra: .cfa -24 + ^ x29: .cfa -32 + ^
STACK CFI 366e0 .cfa: sp 32 +
STACK CFI 366e8 .cfa: sp 0 +
STACK CFI INIT 366ec 130 .cfa: sp 0 +
STACK CFI 366f0 .cfa: sp 64 +
STACK CFI 36700 .cfa: x29 64 + x19: .cfa -8 + ^ x20: .cfa -16 + ^ x21: .cfa -24 + ^ x22: .cfa -32 + ^ x23: .cfa -48 + ^ .ra: .cfa -56 + ^ x29: .cfa -64 + ^
STACK CFI 36800 .cfa: sp 64 +
STACK CFI 36810 .cfa: sp 0 +
STACK CFI 36814 .cfa: x29 64 +
STACK CFI INIT 36ad8 4 .cfa: sp 0 +
STACK CFI INIT 36adc 14 .cfa: sp 0 +
STACK CFI INIT 370c4 14 .cfa: sp 0 +
STACK CFI 370c8 .cfa: sp 16 +
STACK CFI 370cc .cfa: x29 16 + .ra: .cfa -8 + ^ x29: .cfa -16 + ^
STACK CFI INIT 3735c 15c .cfa: sp 0 +
STACK CFI 37360 .cfa: sp 32 +
STACK CFI 37368 .cfa: x29 32 + x19: .cfa -8 + ^ x20: .cfa -16 + ^ .ra: .cfa -24 + ^ x29: .cfa -32 + ^
STACK CFI 374a8 .cfa: sp 32 +
STACK CFI 374b0 .cfa: sp 0 +
STACK CFI 374b4 .cfa: x29 32 +
STACK CFI INIT 378bc 2c .cfa: sp 0 +
STACK CFI INIT 378e8 c .cfa: sp 0 +
STACK CFI INIT 37d10 44 .cfa: sp 0 +
STACK CFI INIT 37d54 5c .cfa: sp 0 +
STACK CFI 37d58 .cfa: sp 32 +
STACK CFI 37d60 .cfa: x29 32 + x19: .cfa -16 + ^ .ra: .cfa -24 + ^ x29: .cfa -32 + ^
STACK CFI 37da4 .cfa: sp 32 +
STACK CFI 37dac .cfa: sp 0 +
STACK CFI INIT 37e40 80 .cfa: sp 0 +
STACK CFI 37e44 .cfa: sp 32 +
STACK CFI 37e4c .cfa: x29 32 + x19: .cfa -16 + ^ .ra: .cfa -24 + ^ x29: .cfa -32 + ^
STACK CFI 37e94 .cfa: sp 32 +
STACK CFI 37e9c .cfa: sp 0 +
STACK CFI 37ea0 .cfa: x29 32 +
STACK CFI 37eb4 .cfa: sp 32 +
STACK CFI 37ebc .cfa: sp 0 +
STACK CFI INIT 37ec0 38 .cfa: sp 0 +
STACK CFI INIT 37ef8 50 .cfa: sp 0 +
STACK CFI 37efc .cfa: sp 32 +
STACK CFI 37f04 .cfa: x29 32 + x19: .cfa -16 + ^ .ra: .cfa -24 + ^ x29: .cfa -32 + ^
STACK CFI 37f3c .cfa: sp 32 +
STACK CFI 37f44 .cfa: sp 0 +
STACK CFI INIT 3817c 1c .cfa: sp 0 +
STACK CFI INIT 38198 c .cfa: sp 0 +
STACK CFI INIT 38b30 1c .cfa: sp 0 +
STACK CFI INIT 38b4c c .cfa: sp 0 +
STACK CFI INIT 38da8 428 .cfa: sp 0 +
STACK CFI 38dac .cfa: sp 64 +
STACK CFI 38dbc .cfa: x29 64 + x19: .cfa -8 + ^ x20: .cfa -16 + ^ x21: .cfa -24 + ^ x22: .cfa -32 + ^ x23: .cfa -48 + ^ .ra: .cfa -56 + ^ x29: .cfa -64 + ^
STACK CFI 3917c .cfa: sp 64 +
STACK CFI 3918c .cfa: sp 0 +
STACK CFI 39190 .cfa: x29 64 +
STACK CFI INIT 396ac 54 .cfa: sp 0 +
STACK CFI 396b0 .cfa: sp 32 +
STACK CFI 396b8 .cfa: x29 32 + x19: .cfa -8 + ^ x20: .cfa -16 + ^ .ra: .cfa -24 + ^ x29: .cfa -32 + ^
STACK CFI 396e8 .cfa: sp 32 +
STACK CFI 396f0 .cfa: sp 0 +
STACK CFI 396f4 .cfa: sp 32 +
STACK CFI 396fc .cfa: sp 0 +
STACK CFI INIT 39700 14 .cfa: sp 0 +
STACK CFI 39704 .cfa: sp 16 +
STACK CFI 39708 .cfa: x29 16 + .ra: .cfa -8 + ^ x29: .cfa -16 + ^
STACK CFI INIT 39714 44 .cfa: sp 0 +
STACK CFI INIT 39758 5c .cfa: sp 0 +
STACK CFI 3975c .cfa: sp 32 +
STACK CFI 39764 .cfa: x29 32 + x19: .cfa -16 + ^ .ra: .cfa -24 + ^ x29: .cfa -32 + ^
STACK CFI 397a8 .cfa: sp 32 +
STACK CFI 397b0 .cfa: sp 0 +
STACK CFI INIT 39844 80 .cfa: sp 0 +
STACK CFI 39848 .cfa: sp 32 +
STACK CFI 39850 .cfa: x29 32 + x19: .cfa -16 + ^ .ra: .cfa -24 + ^ x29: .cfa -32 + ^
STACK CFI 39898 .cfa: sp 32 +
STACK CFI 398a0 .cfa: sp 0 +
STACK CFI 398a4 .cfa: x29 32 +
STACK CFI 398b8 .cfa: sp 32 +
STACK CFI 398c0 .cfa: sp 0 +
STACK CFI INIT 398c4 38 .cfa: sp 0 +
STACK CFI INIT 398fc 50 .cfa: sp 0 +
STACK CFI 39900 .cfa: sp 32 +
STACK CFI 39908 .cfa: x29 32 + x19: .cfa -16 + ^ .ra: .cfa -24 + ^ x29: .cfa -32 + ^
STACK CFI 39940 .cfa: sp 32 +
STACK CFI 39948 .cfa: sp 0 +
STACK CFI INIT 39b80 1c .cfa: sp 0 +
STACK CFI INIT 39b9c c .cfa: sp 0 +
STACK CFI INIT 3a534 1c .cfa: sp 0 +
STACK CFI INIT 3a550 c .cfa: sp 0 +
STACK CFI INIT 3a828 15c .cfa: sp 0 +
STACK CFI 3a82c .cfa: sp 32 +
STACK CFI 3a834 .cfa: x29 32 + x19: .cfa -8 + ^ x20: .cfa -16 + ^ .ra: .cfa -24 + ^ x29: .cfa -32 + ^
STACK CFI 3a974 .cfa: sp 32 +
STACK CFI 3a97c .cfa: sp 0 +
STACK CFI 3a980 .cfa: x29 32 +
STACK CFI INIT 3a984 70 .cfa: sp 0 +
STACK CFI 3a988 .cfa: sp 32 +
STACK CFI 3a990 .cfa: x29 32 + x19: .cfa -16 + ^ .ra: .cfa -24 + ^ x29: .cfa -32 + ^
STACK CFI 3a9dc .cfa: sp 32 +
STACK CFI 3a9e4 .cfa: sp 0 +
STACK CFI 3a9e8 .cfa: sp 32 +
STACK CFI 3a9f0 .cfa: sp 0 +
STACK CFI INIT 3a9f4 6c .cfa: sp 0 +
STACK CFI 3a9f8 .cfa: sp 32 +
STACK CFI 3aa00 .cfa: x29 32 + x19: .cfa -16 + ^ .ra: .cfa -24 + ^ x29: .cfa -32 + ^
STACK CFI 3aa54 .cfa: sp 32 +
STACK CFI 3aa5c .cfa: sp 0 +
STACK CFI INIT 3aab4 1c .cfa: sp 0 +
STACK CFI INIT 3aad0 64 .cfa: sp 0 +
STACK CFI 3aad4 .cfa: sp 32 +
STACK CFI 3aadc .cfa: x29 32 + x19: .cfa -16 + ^ .ra: .cfa -24 + ^ x29: .cfa -32 + ^
STACK CFI 3ab1c .cfa: sp 32 +
STACK CFI 3ab24 .cfa: sp 0 +
STACK CFI 3ab28 .cfa: sp 32 +
STACK CFI 3ab30 .cfa: sp 0 +
STACK CFI INIT 3ab34 60 .cfa: sp 0 +
STACK CFI 3ab38 .cfa: sp 32 +
STACK CFI 3ab40 .cfa: x29 32 + x19: .cfa -16 + ^ .ra: .cfa -24 + ^ x29: .cfa -32 + ^
STACK CFI 3ab88 .cfa: sp 32 +
STACK CFI 3ab90 .cfa: sp 0 +
STACK CFI INIT 3b310 1c .cfa: sp 0 +
STACK CFI INIT 3b32c c .cfa: sp 0 +
STACK CFI INIT 3b45c 44 .cfa: sp 0 +
STACK CFI INIT 3b4a0 5c .cfa: sp 0 +
STACK CFI 3b4a4 .cfa: sp 32 +
STACK CFI 3b4ac .cfa: x29 32 + x19: .cfa -16 + ^ .ra: .cfa -24 + ^ x29: .cfa -32 + ^
STACK CFI 3b4f0 .cfa: sp 32 +
STACK CFI 3b4f8 .cfa: sp 0 +
STACK CFI INIT 3b594 84 .cfa: sp 0 +
STACK CFI 3b598 .cfa: sp 32 +
STACK CFI 3b5a0 .cfa: x29 32 + x19: .cfa -8 + ^ x20: .cfa -16 + ^ .ra: .cfa -24 + ^ x29: .cfa -32 + ^
STACK CFI 3b60c .cfa: sp 32 +
STACK CFI 3b614 .cfa: sp 0 +
STACK CFI INIT 3b618 38 .cfa: sp 0 +
STACK CFI INIT 3b650 50 .cfa: sp 0 +
STACK CFI 3b654 .cfa: sp 32 +
STACK CFI 3b65c .cfa: x29 32 + x19: .cfa -16 + ^ .ra: .cfa -24 + ^ x29: .cfa -32 + ^
STACK CFI 3b694 .cfa: sp 32 +
STACK CFI 3b69c .cfa: sp 0 +
STACK CFI INIT 3b804 1c .cfa: sp 0 +
STACK CFI INIT 3b820 c .cfa: sp 0 +
STACK CFI INIT 3c0f4 1c .cfa: sp 0 +
STACK CFI INIT 3c110 c .cfa: sp 0 +
STACK CFI INIT 3c11c 80 .cfa: sp 0 +
STACK CFI 3c120 .cfa: sp 48 +
STACK CFI 3c12c .cfa: x29 48 + x19: .cfa -8 + ^ x20: .cfa -16 + ^ x21: .cfa -32 + ^ .ra: .cfa -40 + ^ x29: .cfa -48 + ^
STACK CFI 3c144 .cfa: sp 48 +
STACK CFI 3c150 .cfa: sp 0 +
STACK CFI 3c154 .cfa: x29 48 +
STACK CFI 3c18c .cfa: sp 48 +
STACK CFI 3c198 .cfa: sp 0 +
STACK CFI INIT 3c598 5c .cfa: sp 0 +
STACK CFI 3c59c .cfa: sp 32 +
STACK CFI 3c5a4 .cfa: x29 32 + x19: .cfa -16 + ^ .ra: .cfa -24 + ^ x29: .cfa -32 + ^
STACK CFI 3c5dc .cfa: sp 32 +
STACK CFI 3c5e4 .cfa: sp 0 +
STACK CFI 3c5e8 .cfa: sp 32 +
STACK CFI 3c5f0 .cfa: sp 0 +
STACK CFI INIT 3c5f4 444 .cfa: sp 0 +
STACK CFI INIT 3ca38 15c .cfa: sp 0 +
STACK CFI 3ca3c .cfa: sp 32 +
STACK CFI 3ca44 .cfa: x29 32 + x19: .cfa -8 + ^ x20: .cfa -16 + ^ .ra: .cfa -24 + ^ x29: .cfa -32 + ^
STACK CFI 3cb84 .cfa: sp 32 +
STACK CFI 3cb8c .cfa: sp 0 +
STACK CFI 3cb90 .cfa: x29 32 +
STACK CFI INIT 3cb94 74 .cfa: sp 0 +
STACK CFI 3cb98 .cfa: sp 32 +
STACK CFI 3cba0 .cfa: x29 32 + x19: .cfa -16 + ^ .ra: .cfa -24 + ^ x29: .cfa -32 + ^
STACK CFI 3cbf0 .cfa: sp 32 +
STACK CFI 3cbf8 .cfa: sp 0 +
STACK CFI 3cbfc .cfa: sp 32 +
STACK CFI 3cc04 .cfa: sp 0 +
STACK CFI INIT 3cc08 ec .cfa: sp 0 +
STACK CFI 3cc0c .cfa: sp 32 +
STACK CFI 3cc14 .cfa: x29 32 + x19: .cfa -16 + ^ .ra: .cfa -24 + ^ x29: .cfa -32 + ^
STACK CFI 3ccc8 .cfa: sp 32 +
STACK CFI 3ccd0 .cfa: sp 0 +
STACK CFI 3ccd4 .cfa: x29 32 +
STACK CFI INIT 3ccf4 44 .cfa: sp 0 +
STACK CFI 3ccf8 .cfa: sp 32 +
STACK CFI 3cd00 .cfa: x29 32 + x19: .cfa -16 + ^ .ra: .cfa -24 + ^ x29: .cfa -32 + ^
STACK CFI 3cd20 .cfa: sp 32 +
STACK CFI 3cd28 .cfa: sp 0 +
STACK CFI 3cd2c .cfa: sp 32 +
STACK CFI 3cd34 .cfa: sp 0 +
STACK CFI INIT 3d940 1fc .cfa: sp 0 +
STACK CFI 3d944 .cfa: sp 80 +
STACK CFI 3d958 .cfa: x29 80 + x19: .cfa -8 + ^ x20: .cfa -16 + ^ x21: .cfa -24 + ^ x22: .cfa -32 + ^ x23: .cfa -40 + ^ x24: .cfa -48 + ^ x25: .cfa -64 + ^ .ra: .cfa -72 + ^ x29: .cfa -80 + ^
STACK CFI 3db18 .cfa: sp 80 +
STACK CFI 3db2c .cfa: sp 0 +
STACK CFI 3db30 .cfa: x29 80 +
STACK CFI INIT 3db3c 14 .cfa: sp 0 +
STACK CFI 3db40 .cfa: sp 16 +
STACK CFI 3db44 .cfa: x29 16 + .ra: .cfa -8 + ^ x29: .cfa -16 + ^
STACK CFI INIT 3db50 128 .cfa: sp 0 +
STACK CFI 3db54 .cfa: sp 48 +
STACK CFI 3db60 .cfa: x29 48 + x19: .cfa -8 + ^ x20: .cfa -16 + ^ x21: .cfa -24 + ^ x22: .cfa -32 + ^ .ra: .cfa -40 + ^ x29: .cfa -48 + ^
STACK CFI 3dc68 .cfa: sp 48 +
STACK CFI 3dc74 .cfa: sp 0 +
STACK CFI INIT 3f530 50 .cfa: sp 0 +
STACK CFI 3f548 .cfa: sp 32 +
STACK CFI 3f550 .cfa: x29 32 + x19: .cfa -8 + ^ x20: .cfa -16 + ^ .ra: .cfa -24 + ^ x29: .cfa -32 + ^
STACK CFI INIT 3ffa8 30 .cfa: sp 0 +
STACK CFI 3ffac .cfa: sp 32 +
STACK CFI 3ffb4 .cfa: x29 32 + x19: .cfa -16 + ^ .ra: .cfa -24 + ^ x29: .cfa -32 + ^
STACK CFI 3ffcc .cfa: sp 32 +
STACK CFI 3ffd4 .cfa: sp 0 +
STACK CFI INIT 418a4 50 .cfa: sp 0 +
STACK CFI 418bc .cfa: sp 32 +
STACK CFI 418c4 .cfa: x29 32 + x19: .cfa -8 + ^ x20: .cfa -16 + ^ .ra: .cfa -24 + ^ x29: .cfa -32 + ^
STACK CFI INIT 418f4 100 .cfa: sp 0 +
STACK CFI 418f8 .cfa: sp 32 +
STACK CFI 41900 .cfa: x29 32 + x19: .cfa -8 + ^ x20: .cfa -16 + ^ .ra: .cfa -24 + ^ x29: .cfa -32 + ^
STACK CFI 419d8 .cfa: sp 32 +
STACK CFI 419e0 .cfa: sp 0 +
STACK CFI 419e4 .cfa: sp 32 +
STACK CFI 419ec .cfa: sp 0 +
STACK CFI 419f0 .cfa: x29 32 +
STACK CFI INIT 419f4 14 .cfa: sp 0 +
STACK CFI 419f8 .cfa: sp 16 +
STACK CFI 419fc .cfa: x29 16 + .ra: .cfa -8 + ^ x29: .cfa -16 + ^
STACK CFI INIT 42308 50 .cfa: sp 0 +
STACK CFI 42320 .cfa: sp 32 +
STACK CFI 42328 .cfa: x29 32 + x19: .cfa -8 + ^ x20: .cfa -16 + ^ .ra: .cfa -24 + ^ x29: .cfa -32 + ^
STACK CFI INIT 42ae0 14 .cfa: sp 0 +
STACK CFI 42ae4 .cfa: sp 16 +
STACK CFI 42ae8 .cfa: x29 16 + .ra: .cfa -8 + ^ x29: .cfa -16 + ^
STACK CFI INIT 42af4 38 .cfa: sp 0 +
STACK CFI 42af8 .cfa: sp 32 +
STACK CFI 42b00 .cfa: x29 32 + x19: .cfa -16 + ^ .ra: .cfa -24 + ^ x29: .cfa -32 + ^
STACK CFI 42b20 .cfa: sp 32 +
STACK CFI 42b28 .cfa: sp 0 +
STACK CFI INIT 42cfc 38 .cfa: sp 0 +
STACK CFI 42d00 .cfa: sp 32 +
STACK CFI 42d08 .cfa: x29 32 + x19: .cfa -16 + ^ .ra: .cfa -24 + ^ x29: .cfa -32 + ^
STACK CFI 42d28 .cfa: sp 32 +
STACK CFI 42d30 .cfa: sp 0 +
STACK CFI INIT 430d4 104 .cfa: sp 0 +
STACK CFI 430d8 .cfa: sp 80 +
STACK CFI 430ec .cfa: x29 80 + x19: .cfa -8 + ^ x20: .cfa -16 + ^ x21: .cfa -24 + ^ x22: .cfa -32 + ^ x23: .cfa -40 + ^ x24: .cfa -48 + ^ x25: .cfa -56 + ^ x26: .cfa -64 + ^ .ra: .cfa -72 + ^ x29: .cfa -80 + ^
STACK CFI 431c0 .cfa: sp 80 +
STACK CFI 431d4 .cfa: sp 0 +
STACK CFI INIT 43234 48 .cfa: sp 0 +
STACK CFI 43238 .cfa: sp 32 +
STACK CFI 43240 .cfa: x29 32 + x19: .cfa -16 + ^ .ra: .cfa -24 + ^ x29: .cfa -32 + ^
STACK CFI 43270 .cfa: sp 32 +
STACK CFI 43278 .cfa: sp 0 +
STACK CFI INIT 43478 54 .cfa: sp 0 +
STACK CFI 4347c .cfa: sp 32 +
STACK CFI 43484 .cfa: x29 32 + x19: .cfa -8 + ^ x20: .cfa -16 + ^ .ra: .cfa -24 + ^ x29: .cfa -32 + ^
STACK CFI 434c0 .cfa: sp 32 +
STACK CFI 434c8 .cfa: sp 0 +
STACK CFI INIT 434cc 38 .cfa: sp 0 +
STACK CFI 434d0 .cfa: sp 32 +
STACK CFI 434d8 .cfa: x29 32 + x19: .cfa -16 + ^ .ra: .cfa -24 + ^ x29: .cfa -32 + ^
STACK CFI 434f8 .cfa: sp 32 +
STACK CFI 43500 .cfa: sp 0 +
STACK CFI INIT 43504 9c .cfa: sp 0 +
STACK CFI 43508 .cfa: sp 272 +
STACK CFI 43514 .cfa: x29 32 + x19: .cfa -8 + ^ x28: .cfa -16 + ^ .ra: .cfa -24 + ^ x29: .cfa -32 + ^
STACK CFI 4358c .cfa: sp 272 +
STACK CFI 43598 .cfa: sp 0 +
STACK CFI 4359c .cfa: x29 32 +
STACK CFI INIT 435a0 50 .cfa: sp 0 +
STACK CFI 435b8 .cfa: sp 32 +
STACK CFI 435c0 .cfa: x29 32 + x19: .cfa -8 + ^ x20: .cfa -16 + ^ .ra: .cfa -24 + ^ x29: .cfa -32 + ^
STACK CFI INIT 43abc fc .cfa: sp 0 +
STACK CFI 43ac0 .cfa: sp 64 +
STACK CFI 43ad0 .cfa: x29 64 + x19: .cfa -8 + ^ x20: .cfa -16 + ^ x21: .cfa -24 + ^ x22: .cfa -32 + ^ x23: .cfa -40 + ^ x24: .cfa -48 + ^ .ra: .cfa -56 + ^ x29: .cfa -64 + ^
STACK CFI 43b94 .cfa: sp 64 +
STACK CFI 43ba4 .cfa: sp 0 +
STACK CFI 43ba8 .cfa: x29 64 +
STACK CFI INIT 43e00 14 .cfa: sp 0 +
STACK CFI 43e04 .cfa: sp 16 +
STACK CFI 43e08 .cfa: x29 16 + .ra: .cfa -8 + ^ x29: .cfa -16 + ^
STACK CFI INIT 43f64 fc .cfa: sp 0 +
STACK CFI 43f68 .cfa: sp 64 +
STACK CFI 43f78 .cfa: x29 64 + x19: .cfa -8 + ^ x20: .cfa -16 + ^ x21: .cfa -24 + ^ x22: .cfa -32 + ^ x23: .cfa -40 + ^ x24: .cfa -48 + ^ .ra: .cfa -56 + ^ x29: .cfa -64 + ^
STACK CFI 4403c .cfa: sp 64 +
STACK CFI 4404c .cfa: sp 0 +
STACK CFI 44050 .cfa: x29 64 +
STACK CFI INIT 44234 4a4 .cfa: sp 0 +
STACK CFI 44238 .cfa: sp 96 +
STACK CFI 44250 .cfa: x29 96 + x19: .cfa -8 + ^ x20: .cfa -16 + ^ x21: .cfa -24 + ^ x22: .cfa -32 + ^ x23: .cfa -40 + ^ x24: .cfa -48 + ^ x25: .cfa -56 + ^ x26: .cfa -64 + ^ x27: .cfa -72 + ^ x28: .cfa -80 + ^ .ra: .cfa -88 + ^ x29: .cfa -96 + ^
STACK CFI 44688 .cfa: sp 96 +
STACK CFI 446a0 .cfa: sp 0 +
STACK CFI 446a4 .cfa: x29 96 +
STACK CFI INIT 446d8 1a4 .cfa: sp 0 +
STACK CFI 446dc .cfa: sp 64 +
STACK CFI 446e8 .cfa: x29 32 + x19: .cfa -8 + ^ x20: .cfa -16 + ^ .ra: .cfa -24 + ^ x29: .cfa -32 + ^
STACK CFI 44814 .cfa: sp 64 +
STACK CFI 44820 .cfa: sp 0 +
STACK CFI 44824 .cfa: x29 32 +
STACK CFI INIT 4487c 17c .cfa: sp 0 +
STACK CFI 44880 .cfa: sp 16 +
STACK CFI 44884 .cfa: x29 16 + .ra: .cfa -8 + ^ x29: .cfa -16 + ^
STACK CFI 449d8 .cfa: sp 16 +
STACK CFI 449dc .cfa: sp 0 +
STACK CFI 449e0 .cfa: x29 16 +
STACK CFI INIT 449f8 114 .cfa: sp 0 +
STACK CFI 449fc .cfa: sp 128 +
STACK CFI 44a0c .cfa: x29 48 + x19: .cfa -8 + ^ x20: .cfa -16 + ^ x21: .cfa -32 + ^ .ra: .cfa -40 + ^ x29: .cfa -48 + ^
STACK CFI 44ad8 .cfa: sp 128 +
STACK CFI 44ae8 .cfa: sp 0 +
STACK CFI 44aec .cfa: x29 48 +
STACK CFI INIT 44b0c 114 .cfa: sp 0 +
STACK CFI 44b10 .cfa: sp 128 +
STACK CFI 44b20 .cfa: x29 48 + x19: .cfa -8 + ^ x20: .cfa -16 + ^ x21: .cfa -32 + ^ .ra: .cfa -40 + ^ x29: .cfa -48 + ^
STACK CFI 44bec .cfa: sp 128 +
STACK CFI 44bfc .cfa: sp 0 +
STACK CFI 44c00 .cfa: x29 48 +
STACK CFI INIT 44c20 27c .cfa: sp 0 +
STACK CFI 44c24 .cfa: sp 176 +
STACK CFI 44c40 .cfa: x29 96 + x19: .cfa -8 + ^ x20: .cfa -16 + ^ x21: .cfa -24 + ^ x22: .cfa -32 + ^ x23: .cfa -40 + ^ x24: .cfa -48 + ^ x25: .cfa -56 + ^ x26: .cfa -64 + ^ x27: .cfa -72 + ^ x28: .cfa -80 + ^ .ra: .cfa -88 + ^ x29: .cfa -96 + ^
STACK CFI 44e78 .cfa: sp 176 +
STACK CFI 44e94 .cfa: sp 0 +
STACK CFI 44e98 .cfa: x29 96 +
STACK CFI INIT 44e9c 200 .cfa: sp 0 +
STACK CFI 44ea0 .cfa: sp 144 +
STACK CFI 44ebc .cfa: x29 96 + x19: .cfa -8 + ^ x20: .cfa -16 + ^ x21: .cfa -24 + ^ x22: .cfa -32 + ^ x23: .cfa -40 + ^ x24: .cfa -48 + ^ x25: .cfa -56 + ^ x26: .cfa -64 + ^ x27: .cfa -72 + ^ x28: .cfa -80 + ^ .ra: .cfa -88 + ^ x29: .cfa -96 + ^
STACK CFI 45078 .cfa: sp 144 +
STACK CFI 45094 .cfa: sp 0 +
STACK CFI 45098 .cfa: x29 96 +
STACK CFI INIT 4509c 20c .cfa: sp 0 +
STACK CFI 450a0 .cfa: sp 80 +
STACK CFI 450b4 .cfa: x29 80 + x19: .cfa -8 + ^ x20: .cfa -16 + ^ x21: .cfa -24 + ^ x22: .cfa -32 + ^ x23: .cfa -40 + ^ x24: .cfa -48 + ^ x25: .cfa -64 + ^ .ra: .cfa -72 + ^ x29: .cfa -80 + ^
STACK CFI 45144 .cfa: sp 80 +
STACK CFI 45158 .cfa: sp 0 +
STACK CFI 4515c .cfa: x29 80 +
STACK CFI 45168 .cfa: sp 80 +
STACK CFI 4517c .cfa: sp 0 +
STACK CFI 45180 .cfa: x29 80 +
STACK CFI INIT 452a8 3ac .cfa: sp 0 +
STACK CFI 452ac .cfa: sp 128 +
STACK CFI 452c8 .cfa: x29 96 + x19: .cfa -8 + ^ x20: .cfa -16 + ^ x21: .cfa -24 + ^ x22: .cfa -32 + ^ x23: .cfa -40 + ^ x24: .cfa -48 + ^ x25: .cfa -56 + ^ x26: .cfa -64 + ^ x27: .cfa -72 + ^ x28: .cfa -80 + ^ .ra: .cfa -88 + ^ x29: .cfa -96 + ^
STACK CFI 45630 .cfa: sp 128 +
STACK CFI 4564c .cfa: sp 0 +
STACK CFI 45650 .cfa: x29 96 +
STACK CFI INIT 45654 194 .cfa: sp 0 +
STACK CFI 45658 .cfa: sp 32 +
STACK CFI 45660 .cfa: x29 16 + .ra: .cfa -8 + ^ x29: .cfa -16 + ^
STACK CFI 456a4 .cfa: sp 32 +
STACK CFI 456ac .cfa: sp 0 +
STACK CFI 456b0 .cfa: x29 16 +
STACK CFI INIT 457e8 17c .cfa: sp 0 +
STACK CFI 457ec .cfa: sp 80 +
STACK CFI 45800 .cfa: x29 80 + x19: .cfa -8 + ^ x20: .cfa -16 + ^ x21: .cfa -24 + ^ x22: .cfa -32 + ^ x23: .cfa -40 + ^ x24: .cfa -48 + ^ x25: .cfa -64 + ^ .ra: .cfa -72 + ^ x29: .cfa -80 + ^
STACK CFI 45908 .cfa: sp 80 +
STACK CFI 4591c .cfa: sp 0 +
STACK CFI 45920 .cfa: x29 80 +
STACK CFI INIT 45964 1b8 .cfa: sp 0 +
STACK CFI INIT 45b1c 1d0 .cfa: sp 0 +
STACK CFI 45b20 .cfa: sp 80 +
STACK CFI 45b34 .cfa: x29 80 + x19: .cfa -8 + ^ x20: .cfa -16 + ^ x21: .cfa -24 + ^ x22: .cfa -32 + ^ x23: .cfa -40 + ^ x24: .cfa -48 + ^ x25: .cfa -56 + ^ x26: .cfa -64 + ^ .ra: .cfa -72 + ^ x29: .cfa -80 + ^
STACK CFI 45cd4 .cfa: sp 80 +
STACK CFI 45ce8 .cfa: sp 0 +
STACK CFI INIT 45cec 380 .cfa: sp 0 +
STACK CFI 45cf0 .cfa: sp 144 +
STACK CFI 45d0c .cfa: x29 96 + x19: .cfa -8 + ^ x20: .cfa -16 + ^ x21: .cfa -24 + ^ x22: .cfa -32 + ^ x23: .cfa -40 + ^ x24: .cfa -48 + ^ x25: .cfa -56 + ^ x26: .cfa -64 + ^ x27: .cfa -72 + ^ x28: .cfa -80 + ^ .ra: .cfa -88 + ^ x29: .cfa -96 + ^
STACK CFI 46048 .cfa: sp 144 +
STACK CFI 46064 .cfa: sp 0 +
STACK CFI 46068 .cfa: x29 96 +
STACK CFI INIT 4606c 1e4 .cfa: sp 0 +
STACK CFI 46070 .cfa: sp 32 +
STACK CFI 46078 .cfa: x29 32 + x19: .cfa -8 + ^ x20: .cfa -16 + ^ .ra: .cfa -24 + ^ x29: .cfa -32 + ^
STACK CFI 46168 .cfa: sp 32 +
STACK CFI 46170 .cfa: sp 0 +
STACK CFI 46174 .cfa: x29 32 +
STACK CFI 461e8 .cfa: sp 32 +
STACK CFI 461f0 .cfa: sp 0 +
STACK CFI 461f4 .cfa: x29 32 +
STACK CFI 46204 .cfa: sp 32 +
STACK CFI 4620c .cfa: sp 0 +
STACK CFI 46210 .cfa: x29 32 +
STACK CFI 46220 .cfa: sp 32 +
STACK CFI 46228 .cfa: sp 0 +
STACK CFI 4622c .cfa: x29 32 +
STACK CFI INIT 46250 178 .cfa: sp 0 +
STACK CFI 46254 .cfa: sp 80 +
STACK CFI 46268 .cfa: x29 64 + x19: .cfa -8 + ^ x20: .cfa -16 + ^ x21: .cfa -24 + ^ x22: .cfa -32 + ^ x23: .cfa -40 + ^ x24: .cfa -48 + ^ .ra: .cfa -56 + ^ x29: .cfa -64 + ^
STACK CFI 463ac .cfa: sp 80 +
STACK CFI 463c0 .cfa: sp 0 +
STACK CFI 463c4 .cfa: x29 64 +
STACK CFI INIT 463c8 178 .cfa: sp 0 +
STACK CFI 463cc .cfa: sp 80 +
STACK CFI 463e0 .cfa: x29 64 + x19: .cfa -8 + ^ x20: .cfa -16 + ^ x21: .cfa -24 + ^ x22: .cfa -32 + ^ x23: .cfa -40 + ^ x24: .cfa -48 + ^ .ra: .cfa -56 + ^ x29: .cfa -64 + ^
STACK CFI 46524 .cfa: sp 80 +
STACK CFI 46538 .cfa: sp 0 +
STACK CFI 4653c .cfa: x29 64 +
STACK CFI INIT 46540 178 .cfa: sp 0 +
STACK CFI 46544 .cfa: sp 80 +
STACK CFI 46558 .cfa: x29 64 + x19: .cfa -8 + ^ x20: .cfa -16 + ^ x21: .cfa -24 + ^ x22: .cfa -32 + ^ x23: .cfa -40 + ^ x24: .cfa -48 + ^ .ra: .cfa -56 + ^ x29: .cfa -64 + ^
STACK CFI 4669c .cfa: sp 80 +
STACK CFI 466b0 .cfa: sp 0 +
STACK CFI 466b4 .cfa: x29 64 +
STACK CFI INIT 466b8 94 .cfa: sp 0 +
STACK CFI 466bc .cfa: sp 16 +
STACK CFI 466c0 .cfa: x29 16 + .ra: .cfa -8 + ^ x29: .cfa -16 + ^
STACK CFI 46714 .cfa: sp 16 +
STACK CFI 46718 .cfa: sp 0 +
STACK CFI 4671c .cfa: x29 16 +
STACK CFI INIT 4674c 158 .cfa: sp 0 +
STACK CFI 46750 .cfa: sp 112 +
STACK CFI 4676c .cfa: x29 96 + x19: .cfa -8 + ^ x20: .cfa -16 + ^ x21: .cfa -24 + ^ x22: .cfa -32 + ^ x23: .cfa -40 + ^ x24: .cfa -48 + ^ x25: .cfa -56 + ^ x26: .cfa -64 + ^ x27: .cfa -72 + ^ x28: .cfa -80 + ^ .ra: .cfa -88 + ^ x29: .cfa -96 + ^
STACK CFI 46854 .cfa: sp 112 +
STACK CFI 46858 .cfa: x29 96 +
STACK CFI 46860 .cfa: sp 112 +
STACK CFI 4687c .cfa: sp 0 +
STACK CFI 46880 .cfa: x29 96 +
STACK CFI 468a0 .cfa: sp 112 +
STACK CFI INIT 468a4 94 .cfa: sp 0 +
STACK CFI 468a8 .cfa: sp 16 +
STACK CFI 468ac .cfa: x29 16 + .ra: .cfa -8 + ^ x29: .cfa -16 + ^
STACK CFI 46900 .cfa: sp 16 +
STACK CFI 46904 .cfa: sp 0 +
STACK CFI 46908 .cfa: x29 16 +
STACK CFI INIT 472d0 50 .cfa: sp 0 +
STACK CFI 472d4 .cfa: sp 16 +
STACK CFI 472d8 .cfa: x29 16 + .ra: .cfa -8 + ^ x29: .cfa -16 + ^
STACK CFI 47318 .cfa: sp 16 +
STACK CFI 4731c .cfa: sp 0 +
STACK CFI INIT 47564 38 .cfa: sp 0 +
STACK CFI 47568 .cfa: sp 32 +
STACK CFI 47570 .cfa: x29 32 + x19: .cfa -8 + ^ x20: .cfa -16 + ^ .ra: .cfa -24 + ^ x29: .cfa -32 + ^
STACK CFI 47590 .cfa: sp 32 +
STACK CFI 47598 .cfa: sp 0 +
STACK CFI INIT 4759c 118 .cfa: sp 0 +
STACK CFI 475a0 .cfa: sp 96 +
STACK CFI 475b8 .cfa: x29 64 + x19: .cfa -8 + ^ x20: .cfa -16 + ^ x21: .cfa -24 + ^ x22: .cfa -32 + ^ x23: .cfa -40 + ^ x24: .cfa -48 + ^ .ra: .cfa -56 + ^ x29: .cfa -64 + ^ v8: .cfa -80 + ^
STACK CFI 47694 .cfa: sp 96 +
STACK CFI 476ac .cfa: sp 0 +
STACK CFI 476b0 .cfa: x29 64 +
STACK CFI INIT 484a8 38 .cfa: sp 0 +
STACK CFI 484ac .cfa: sp 32 +
STACK CFI 484b4 .cfa: x29 32 + x19: .cfa -16 + ^ .ra: .cfa -24 + ^ x29: .cfa -32 + ^
STACK CFI 484d4 .cfa: sp 32 +
STACK CFI 484dc .cfa: sp 0 +
STACK CFI INIT 484e0 110 .cfa: sp 0 +
STACK CFI 484e4 .cfa: sp 32 +
STACK CFI 484ec .cfa: x29 32 + x19: .cfa -8 + ^ x20: .cfa -16 + ^ .ra: .cfa -24 + ^ x29: .cfa -32 + ^
STACK CFI 485d8 .cfa: sp 32 +
STACK CFI 485e0 .cfa: sp 0 +
STACK CFI 485e4 .cfa: sp 32 +
STACK CFI 485ec .cfa: sp 0 +
STACK CFI INIT 485f0 110 .cfa: sp 0 +
STACK CFI 485f4 .cfa: sp 32 +
STACK CFI 485fc .cfa: x29 32 + x19: .cfa -8 + ^ x20: .cfa -16 + ^ .ra: .cfa -24 + ^ x29: .cfa -32 + ^
STACK CFI 486e8 .cfa: sp 32 +
STACK CFI 486f0 .cfa: sp 0 +
STACK CFI 486f4 .cfa: sp 32 +
STACK CFI 486fc .cfa: sp 0 +
STACK CFI INIT 4b738 63c .cfa: sp 0 +
STACK CFI 4b73c .cfa: sp 128 +
STACK CFI 4b758 .cfa: x29 96 + x19: .cfa -8 + ^ x20: .cfa -16 + ^ x21: .cfa -24 + ^ x22: .cfa -32 + ^ x23: .cfa -40 + ^ x24: .cfa -48 + ^ x25: .cfa -56 + ^ x26: .cfa -64 + ^ x27: .cfa -80 + ^ .ra: .cfa -88 + ^ x29: .cfa -96 + ^
STACK CFI 4bd38 .cfa: sp 128 +
STACK CFI 4bd54 .cfa: sp 0 +
STACK CFI 4bd58 .cfa: x29 96 +
STACK CFI INIT 4bd74 168 .cfa: sp 0 +
STACK CFI 4bd78 .cfa: sp 96 +
STACK CFI 4bd90 .cfa: x29 96 + x19: .cfa -8 + ^ x20: .cfa -16 + ^ x21: .cfa -24 + ^ x22: .cfa -32 + ^ x23: .cfa -40 + ^ x24: .cfa -48 + ^ x25: .cfa -56 + ^ x26: .cfa -64 + ^ x27: .cfa -80 + ^ .ra: .cfa -88 + ^ x29: .cfa -96 + ^
STACK CFI 4bec0 .cfa: sp 96 +
STACK CFI 4bed8 .cfa: sp 0 +
STACK CFI INIT 4d09c 8 .cfa: sp 0 +
STACK CFI INIT 4d0a4 150 .cfa: sp 0 +
STACK CFI 4d0a8 .cfa: sp 48 +
STACK CFI 4d0b4 .cfa: x29 48 + x19: .cfa -8 + ^ x20: .cfa -16 + ^ x21: .cfa -24 + ^ x22: .cfa -32 + ^ .ra: .cfa -40 + ^ x29: .cfa -48 + ^
STACK CFI 4d1e4 .cfa: sp 48 +
STACK CFI 4d1f0 .cfa: sp 0 +
STACK CFI INIT 4d1f4 24 .cfa: sp 0 +
STACK CFI 4d1f8 .cfa: sp 32 +
STACK CFI 4d200 .cfa: x29 32 + x19: .cfa -16 + ^ .ra: .cfa -24 + ^ x29: .cfa -32 + ^
STACK CFI 4d20c .cfa: sp 32 +
STACK CFI 4d214 .cfa: sp 0 +
STACK CFI INIT 4d218 4 .cfa: sp 0 +
STACK CFI INIT 4d21c 8 .cfa: sp 0 +
STACK CFI INIT 4d224 8 .cfa: sp 0 +
STACK CFI INIT 4d22c 28 .cfa: sp 0 +
STACK CFI 4d230 .cfa: sp 32 +
STACK CFI 4d238 .cfa: x29 32 + x19: .cfa -16 + ^ .ra: .cfa -24 + ^ x29: .cfa -32 + ^
STACK CFI 4d248 .cfa: sp 32 +
STACK CFI 4d250 .cfa: sp 0 +
STACK CFI INIT 4d254 4 .cfa: sp 0 +
STACK CFI INIT 4d258 4 .cfa: sp 0 +
STACK CFI INIT 4d25c 4 .cfa: sp 0 +
STACK CFI INIT 4d260 4 .cfa: sp 0 +
STACK CFI INIT 4d264 4 .cfa: sp 0 +
STACK CFI INIT 4d268 8 .cfa: sp 0 +
STACK CFI INIT 4d270 14 .cfa: sp 0 +
STACK CFI 4d274 .cfa: sp 16 +
STACK CFI 4d278 .cfa: x29 16 + .ra: .cfa -8 + ^ x29: .cfa -16 + ^
STACK CFI INIT 4d284 14 .cfa: sp 0 +
STACK CFI 4d288 .cfa: sp 16 +
STACK CFI 4d28c .cfa: x29 16 + .ra: .cfa -8 + ^ x29: .cfa -16 + ^
STACK CFI INIT 4d298 4 .cfa: sp 0 +
STACK CFI INIT 4d29c 34 .cfa: sp 0 +
STACK CFI 4d2a0 .cfa: sp 32 +
STACK CFI 4d2a8 .cfa: x29 32 + x19: .cfa -16 + ^ .ra: .cfa -24 + ^ x29: .cfa -32 + ^
STACK CFI 4d2c4 .cfa: sp 32 +
STACK CFI 4d2cc .cfa: sp 0 +
STACK CFI INIT 4d2d0 14 .cfa: sp 0 +
STACK CFI INIT 4d2e4 4 .cfa: sp 0 +
STACK CFI INIT 4d2e8 4 .cfa: sp 0 +
STACK CFI INIT 4d2ec b8 .cfa: sp 0 +
STACK CFI 4d2f0 .cfa: sp 32 +
STACK CFI 4d2f8 .cfa: x29 32 + x19: .cfa -16 + ^ .ra: .cfa -24 + ^ x29: .cfa -32 + ^
STACK CFI 4d364 .cfa: sp 32 +
STACK CFI 4d370 .cfa: sp 0 +
STACK CFI 4d374 .cfa: x29 32 +
STACK CFI 4d388 .cfa: sp 32 +
STACK CFI 4d390 .cfa: sp 0 +
STACK CFI 4d394 .cfa: x29 32 +
STACK CFI 4d398 .cfa: sp 32 +
STACK CFI 4d3a0 .cfa: sp 0 +
STACK CFI INIT 4d3a4 1c .cfa: sp 0 +
STACK CFI INIT 4d3c0 c .cfa: sp 0 +
STACK CFI INIT 4d3cc 4 .cfa: sp 0 +
STACK CFI INIT 4d3d0 40 .cfa: sp 0 +
STACK CFI 4d3d4 .cfa: sp 32 +
STACK CFI 4d3dc .cfa: x29 32 + x19: .cfa -16 + ^ .ra: .cfa -24 + ^ x29: .cfa -32 + ^
STACK CFI 4d404 .cfa: sp 32 +
STACK CFI 4d40c .cfa: sp 0 +
STACK CFI INIT 4d410 20 .cfa: sp 0 +
STACK CFI INIT 4d430 4 .cfa: sp 0 +
STACK CFI INIT 4d434 4 .cfa: sp 0 +
STACK CFI INIT 4df50 1c .cfa: sp 0 +
STACK CFI INIT 4df6c c .cfa: sp 0 +
STACK CFI INIT 4df78 4 .cfa: sp 0 +
STACK CFI INIT 4df7c 34 .cfa: sp 0 +
STACK CFI 4df80 .cfa: sp 32 +
STACK CFI 4df88 .cfa: x29 32 + x19: .cfa -16 + ^ .ra: .cfa -24 + ^ x29: .cfa -32 + ^
STACK CFI 4dfa4 .cfa: sp 32 +
STACK CFI 4dfac .cfa: sp 0 +
STACK CFI INIT 4dfb0 14 .cfa: sp 0 +
STACK CFI INIT 4dfc4 4 .cfa: sp 0 +
STACK CFI INIT 4dfc8 4 .cfa: sp 0 +
STACK CFI INIT 4dfcc b8 .cfa: sp 0 +
STACK CFI 4dfd0 .cfa: sp 32 +
STACK CFI 4dfd8 .cfa: x29 32 + x19: .cfa -16 + ^ .ra: .cfa -24 + ^ x29: .cfa -32 + ^
STACK CFI 4e044 .cfa: sp 32 +
STACK CFI 4e050 .cfa: sp 0 +
STACK CFI 4e054 .cfa: x29 32 +
STACK CFI 4e068 .cfa: sp 32 +
STACK CFI 4e070 .cfa: sp 0 +
STACK CFI 4e074 .cfa: x29 32 +
STACK CFI 4e078 .cfa: sp 32 +
STACK CFI 4e080 .cfa: sp 0 +
STACK CFI INIT 4e084 1c .cfa: sp 0 +
STACK CFI INIT 4e0a0 c .cfa: sp 0 +
STACK CFI INIT 4e0ac 4 .cfa: sp 0 +
STACK CFI INIT 4e0b0 34 .cfa: sp 0 +
STACK CFI 4e0b4 .cfa: sp 32 +
STACK CFI 4e0bc .cfa: x29 32 + x19: .cfa -16 + ^ .ra: .cfa -24 + ^ x29: .cfa -32 + ^
STACK CFI 4e0d8 .cfa: sp 32 +
STACK CFI 4e0e0 .cfa: sp 0 +
STACK CFI INIT 4e0e4 14 .cfa: sp 0 +
STACK CFI INIT 4e0f8 4 .cfa: sp 0 +
STACK CFI INIT 4e0fc 4 .cfa: sp 0 +
STACK CFI INIT 4e100 b8 .cfa: sp 0 +
STACK CFI 4e104 .cfa: sp 32 +
STACK CFI 4e10c .cfa: x29 32 + x19: .cfa -16 + ^ .ra: .cfa -24 + ^ x29: .cfa -32 + ^
STACK CFI 4e178 .cfa: sp 32 +
STACK CFI 4e184 .cfa: sp 0 +
STACK CFI 4e188 .cfa: x29 32 +
STACK CFI 4e19c .cfa: sp 32 +
STACK CFI 4e1a4 .cfa: sp 0 +
STACK CFI 4e1a8 .cfa: x29 32 +
STACK CFI 4e1ac .cfa: sp 32 +
STACK CFI 4e1b4 .cfa: sp 0 +
STACK CFI INIT 4e1b8 1c .cfa: sp 0 +
STACK CFI INIT 4e1d4 c .cfa: sp 0 +
STACK CFI INIT 4e1e0 4 .cfa: sp 0 +
STACK CFI INIT 4e1e4 34 .cfa: sp 0 +
STACK CFI 4e1e8 .cfa: sp 32 +
STACK CFI 4e1f0 .cfa: x29 32 + x19: .cfa -16 + ^ .ra: .cfa -24 + ^ x29: .cfa -32 + ^
STACK CFI 4e20c .cfa: sp 32 +
STACK CFI 4e214 .cfa: sp 0 +
STACK CFI INIT 4e218 14 .cfa: sp 0 +
STACK CFI INIT 4e22c 4 .cfa: sp 0 +
STACK CFI INIT 4e230 4 .cfa: sp 0 +
STACK CFI INIT 4e380 1c .cfa: sp 0 +
STACK CFI INIT 4e39c c .cfa: sp 0 +
STACK CFI INIT 4e3a8 4 .cfa: sp 0 +
STACK CFI INIT 4e3ac 4 .cfa: sp 0 +
STACK CFI INIT 4e3b0 34 .cfa: sp 0 +
STACK CFI 4e3b4 .cfa: sp 32 +
STACK CFI 4e3bc .cfa: x29 32 + x19: .cfa -16 + ^ .ra: .cfa -24 + ^ x29: .cfa -32 + ^
STACK CFI 4e3d8 .cfa: sp 32 +
STACK CFI 4e3e0 .cfa: sp 0 +
STACK CFI INIT 4e3e4 14 .cfa: sp 0 +
STACK CFI INIT 4e3f8 4 .cfa: sp 0 +
STACK CFI INIT 4e3fc 4 .cfa: sp 0 +
STACK CFI INIT 4e400 b8 .cfa: sp 0 +
STACK CFI 4e404 .cfa: sp 32 +
STACK CFI 4e40c .cfa: x29 32 + x19: .cfa -16 + ^ .ra: .cfa -24 + ^ x29: .cfa -32 + ^
STACK CFI 4e478 .cfa: sp 32 +
STACK CFI 4e484 .cfa: sp 0 +
STACK CFI 4e488 .cfa: x29 32 +
STACK CFI 4e49c .cfa: sp 32 +
STACK CFI 4e4a4 .cfa: sp 0 +
STACK CFI 4e4a8 .cfa: x29 32 +
STACK CFI 4e4ac .cfa: sp 32 +
STACK CFI 4e4b4 .cfa: sp 0 +
STACK CFI INIT 4e4b8 1c .cfa: sp 0 +
STACK CFI INIT 4e4d4 c .cfa: sp 0 +
STACK CFI INIT 4e4e0 4 .cfa: sp 0 +
STACK CFI INIT 4e4e4 4 .cfa: sp 0 +
STACK CFI INIT 4e4e8 40 .cfa: sp 0 +
STACK CFI 4e4ec .cfa: sp 32 +
STACK CFI 4e4f4 .cfa: x29 32 + x19: .cfa -16 + ^ .ra: .cfa -24 + ^ x29: .cfa -32 + ^
STACK CFI 4e51c .cfa: sp 32 +
STACK CFI 4e524 .cfa: sp 0 +
STACK CFI INIT 4e528 20 .cfa: sp 0 +
STACK CFI INIT 4e548 4 .cfa: sp 0 +
STACK CFI INIT 4e54c 4 .cfa: sp 0 +
STACK CFI INIT 4efa4 1c .cfa: sp 0 +
STACK CFI INIT 4efc0 c .cfa: sp 0 +
STACK CFI INIT 4efcc 4 .cfa: sp 0 +
STACK CFI INIT 4efd0 4 .cfa: sp 0 +
STACK CFI INIT 4efd4 40 .cfa: sp 0 +
STACK CFI 4efd8 .cfa: sp 32 +
STACK CFI 4efe0 .cfa: x29 32 + x19: .cfa -16 + ^ .ra: .cfa -24 + ^ x29: .cfa -32 + ^
STACK CFI 4f008 .cfa: sp 32 +
STACK CFI 4f010 .cfa: sp 0 +
STACK CFI INIT 4f014 20 .cfa: sp 0 +
STACK CFI INIT 4f034 4 .cfa: sp 0 +
STACK CFI INIT 4f038 4 .cfa: sp 0 +
STACK CFI INIT 4f4bc 1c .cfa: sp 0 +
STACK CFI INIT 4f4d8 c .cfa: sp 0 +
STACK CFI INIT 4f4e4 1c .cfa: sp 0 +
STACK CFI INIT 4f6f0 c .cfa: sp 0 +
STACK CFI INIT 4fab4 7c .cfa: sp 0 +
STACK CFI 4fab8 .cfa: sp 48 +
STACK CFI 4fac4 .cfa: x29 48 + x19: .cfa -8 + ^ x20: .cfa -16 + ^ x21: .cfa -32 + ^ .ra: .cfa -40 + ^ x29: .cfa -48 + ^
STACK CFI 4fb20 .cfa: sp 48 +
STACK CFI 4fb2c .cfa: sp 0 +
STACK CFI INIT 4fb30 2c .cfa: sp 0 +
STACK CFI INIT 4fb5c 50 .cfa: sp 0 +
STACK CFI 4fb60 .cfa: sp 32 +
STACK CFI 4fb68 .cfa: x29 32 + x19: .cfa -16 + ^ .ra: .cfa -24 + ^ x29: .cfa -32 + ^
STACK CFI 4fba0 .cfa: sp 32 +
STACK CFI 4fba8 .cfa: sp 0 +
STACK CFI INIT 4fbac 19c .cfa: sp 0 +
STACK CFI 4fbb0 .cfa: sp 96 +
STACK CFI 4fbc4 .cfa: x29 64 + x19: .cfa -8 + ^ x20: .cfa -16 + ^ x21: .cfa -24 + ^ x22: .cfa -32 + ^ x23: .cfa -48 + ^ .ra: .cfa -56 + ^ x29: .cfa -64 + ^
STACK CFI 4fd24 .cfa: sp 96 +
STACK CFI 4fd38 .cfa: sp 0 +
STACK CFI 4fd3c .cfa: x29 64 +
STACK CFI INIT 4fd48 8 .cfa: sp 0 +
STACK CFI INIT 4fe20 b8 .cfa: sp 0 +
STACK CFI 4fe24 .cfa: sp 16 +
STACK CFI 4fe28 .cfa: x29 16 + .ra: .cfa -8 + ^ x29: .cfa -16 + ^
STACK CFI 4fe7c .cfa: sp 16 +
STACK CFI 4fe80 .cfa: sp 0 +
STACK CFI 4fe84 .cfa: x29 16 +
STACK CFI 4fe88 .cfa: sp 16 +
STACK CFI 4fe8c .cfa: sp 0 +
STACK CFI 4fe90 .cfa: x29 16 +
STACK CFI 4fea0 .cfa: sp 16 +
STACK CFI 4fea4 .cfa: sp 0 +
STACK CFI 4fea8 .cfa: x29 16 +
STACK CFI 4fed0 .cfa: sp 16 +
STACK CFI 4fed4 .cfa: sp 0 +
STACK CFI INIT 4fed8 14 .cfa: sp 0 +
STACK CFI INIT 50204 64 .cfa: sp 0 +
STACK CFI 50208 .cfa: sp 32 +
STACK CFI 50210 .cfa: x29 32 + x19: .cfa -16 + ^ .ra: .cfa -24 + ^ x29: .cfa -32 + ^
STACK CFI 5025c .cfa: sp 32 +
STACK CFI 50264 .cfa: sp 0 +
STACK CFI INIT 50268 50 .cfa: sp 0 +
STACK CFI 5026c .cfa: sp 32 +
STACK CFI 50274 .cfa: x29 32 + x19: .cfa -16 + ^ .ra: .cfa -24 + ^ x29: .cfa -32 + ^
STACK CFI 502a0 .cfa: sp 32 +
STACK CFI 502a8 .cfa: sp 0 +
STACK CFI 502ac .cfa: sp 32 +
STACK CFI 502b4 .cfa: sp 0 +
STACK CFI INIT 502b8 24 .cfa: sp 0 +
STACK CFI 502bc .cfa: sp 32 +
STACK CFI 502c4 .cfa: x29 32 + x19: .cfa -16 + ^ .ra: .cfa -24 + ^ x29: .cfa -32 + ^
STACK CFI 502d0 .cfa: sp 32 +
STACK CFI 502d8 .cfa: sp 0 +
STACK CFI INIT 502dc 8 .cfa: sp 0 +
STACK CFI INIT 502e4 28 .cfa: sp 0 +
STACK CFI 502e8 .cfa: sp 32 +
STACK CFI 502f0 .cfa: x29 32 + x19: .cfa -16 + ^ .ra: .cfa -24 + ^ x29: .cfa -32 + ^
STACK CFI 50300 .cfa: sp 32 +
STACK CFI 50308 .cfa: sp 0 +
STACK CFI INIT 505c8 4 .cfa: sp 0 +
STACK CFI INIT 505cc 24 .cfa: sp 0 +
STACK CFI 505d0 .cfa: sp 32 +
STACK CFI 505d8 .cfa: x29 32 + x19: .cfa -16 + ^ .ra: .cfa -24 + ^ x29: .cfa -32 + ^
STACK CFI 505e4 .cfa: sp 32 +
STACK CFI 505ec .cfa: sp 0 +
STACK CFI INIT 505f0 8 .cfa: sp 0 +
STACK CFI INIT 505f8 28 .cfa: sp 0 +
STACK CFI 505fc .cfa: sp 32 +
STACK CFI 50604 .cfa: x29 32 + x19: .cfa -16 + ^ .ra: .cfa -24 + ^ x29: .cfa -32 + ^
STACK CFI 50614 .cfa: sp 32 +
STACK CFI 5061c .cfa: sp 0 +
STACK CFI INIT 50620 cc .cfa: sp 0 +
STACK CFI 50624 .cfa: sp 96 +
STACK CFI 50630 .cfa: x29 32 + x19: .cfa -8 + ^ x20: .cfa -16 + ^ .ra: .cfa -24 + ^ x29: .cfa -32 + ^
STACK CFI 506d8 .cfa: sp 96 +
STACK CFI 506e4 .cfa: sp 0 +
STACK CFI 506e8 .cfa: x29 32 +
STACK CFI INIT 506ec cc .cfa: sp 0 +
STACK CFI 506f0 .cfa: sp 96 +
STACK CFI 506fc .cfa: x29 32 + x19: .cfa -8 + ^ x20: .cfa -16 + ^ .ra: .cfa -24 + ^ x29: .cfa -32 + ^
STACK CFI 507a4 .cfa: sp 96 +
STACK CFI 507b0 .cfa: sp 0 +
STACK CFI 507b4 .cfa: x29 32 +
STACK CFI INIT 507b8 54 .cfa: sp 0 +
STACK CFI INIT 509d8 50 .cfa: sp 0 +
STACK CFI 509dc .cfa: sp 32 +
STACK CFI 509e4 .cfa: x29 32 + x19: .cfa -16 + ^ .ra: .cfa -24 + ^ x29: .cfa -32 + ^
STACK CFI 509fc .cfa: sp 32 +
STACK CFI 50a04 .cfa: sp 0 +
STACK CFI 50a08 .cfa: x29 32 +
STACK CFI 50a1c .cfa: sp 32 +
STACK CFI 50a24 .cfa: sp 0 +
STACK CFI INIT 51044 50 .cfa: sp 0 +
STACK CFI 51048 .cfa: sp 32 +
STACK CFI 51050 .cfa: x29 32 + x19: .cfa -16 + ^ .ra: .cfa -24 + ^ x29: .cfa -32 + ^
STACK CFI 51068 .cfa: sp 32 +
STACK CFI 51070 .cfa: sp 0 +
STACK CFI 51074 .cfa: x29 32 +
STACK CFI 51088 .cfa: sp 32 +
STACK CFI 51090 .cfa: sp 0 +
STACK CFI INIT 51094 50 .cfa: sp 0 +
STACK CFI 51098 .cfa: sp 32 +
STACK CFI 510a0 .cfa: x29 32 + x19: .cfa -16 + ^ .ra: .cfa -24 + ^ x29: .cfa -32 + ^
STACK CFI 510b8 .cfa: sp 32 +
STACK CFI 510c0 .cfa: sp 0 +
STACK CFI 510c4 .cfa: x29 32 +
STACK CFI 510d8 .cfa: sp 32 +
STACK CFI 510e0 .cfa: sp 0 +
STACK CFI INIT 510e4 5c .cfa: sp 0 +
STACK CFI 510e8 .cfa: sp 32 +
STACK CFI 510f0 .cfa: x29 32 + x19: .cfa -16 + ^ .ra: .cfa -24 + ^ x29: .cfa -32 + ^
STACK CFI 51114 .cfa: sp 32 +
STACK CFI 5111c .cfa: sp 0 +
STACK CFI 51120 .cfa: x29 32 +
STACK CFI 51134 .cfa: sp 32 +
STACK CFI 5113c .cfa: sp 0 +
STACK CFI INIT 51140 5c .cfa: sp 0 +
STACK CFI 51144 .cfa: sp 32 +
STACK CFI 5114c .cfa: x29 32 + x19: .cfa -8 + ^ x20: .cfa -16 + ^ .ra: .cfa -24 + ^ x29: .cfa -32 + ^
STACK CFI 51190 .cfa: sp 32 +
STACK CFI 51198 .cfa: sp 0 +
STACK CFI INIT 5119c 58 .cfa: sp 0 +
STACK CFI 511a0 .cfa: sp 32 +
STACK CFI 511a8 .cfa: x29 32 + x19: .cfa -8 + ^ x20: .cfa -16 + ^ .ra: .cfa -24 + ^ x29: .cfa -32 + ^
STACK CFI 511e8 .cfa: sp 32 +
STACK CFI 511f0 .cfa: sp 0 +
STACK CFI INIT 511f4 4c .cfa: sp 0 +
STACK CFI 511f8 .cfa: sp 32 +
STACK CFI 51200 .cfa: x29 32 + x19: .cfa -8 + ^ x20: .cfa -16 + ^ .ra: .cfa -24 + ^ x29: .cfa -32 + ^
STACK CFI 51234 .cfa: sp 32 +
STACK CFI 5123c .cfa: sp 0 +
STACK CFI INIT 51240 50 .cfa: sp 0 +
STACK CFI 51244 .cfa: sp 32 +
STACK CFI 5124c .cfa: x29 32 + x19: .cfa -16 + ^ .ra: .cfa -24 + ^ x29: .cfa -32 + ^
STACK CFI 51264 .cfa: sp 32 +
STACK CFI 5126c .cfa: sp 0 +
STACK CFI 51270 .cfa: x29 32 +
STACK CFI 51284 .cfa: sp 32 +
STACK CFI 5128c .cfa: sp 0 +
STACK CFI INIT 51290 50 .cfa: sp 0 +
STACK CFI 51294 .cfa: sp 32 +
STACK CFI 5129c .cfa: x29 32 + x19: .cfa -8 + ^ x20: .cfa -16 + ^ .ra: .cfa -24 + ^ x29: .cfa -32 + ^
STACK CFI 512d4 .cfa: sp 32 +
STACK CFI 512dc .cfa: sp 0 +
STACK CFI INIT 51478 1c .cfa: sp 0 +
STACK CFI INIT 51494 c .cfa: sp 0 +
STACK CFI INIT 514a0 50 .cfa: sp 0 +
STACK CFI 514a4 .cfa: sp 32 +
STACK CFI 514ac .cfa: x29 32 + x19: .cfa -8 + ^ x20: .cfa -16 + ^ .ra: .cfa -24 + ^ x29: .cfa -32 + ^
STACK CFI 514e4 .cfa: sp 32 +
STACK CFI 514ec .cfa: sp 0 +
STACK CFI INIT 514f0 58 .cfa: sp 0 +
STACK CFI 514f4 .cfa: sp 32 +
STACK CFI 514fc .cfa: x29 32 + x19: .cfa -8 + ^ x20: .cfa -16 + ^ .ra: .cfa -24 + ^ x29: .cfa -32 + ^
STACK CFI 5153c .cfa: sp 32 +
STACK CFI 51544 .cfa: sp 0 +
STACK CFI INIT 51548 5c .cfa: sp 0 +
STACK CFI 5154c .cfa: sp 32 +
STACK CFI 51554 .cfa: x29 32 + x19: .cfa -16 + ^ .ra: .cfa -24 + ^ x29: .cfa -32 + ^
STACK CFI 51578 .cfa: sp 32 +
STACK CFI 51580 .cfa: sp 0 +
STACK CFI 51584 .cfa: x29 32 +
STACK CFI 51598 .cfa: sp 32 +
STACK CFI 515a0 .cfa: sp 0 +
STACK CFI INIT 515a4 5c .cfa: sp 0 +
STACK CFI 515a8 .cfa: sp 32 +
STACK CFI 515b0 .cfa: x29 32 + x19: .cfa -8 + ^ x20: .cfa -16 + ^ .ra: .cfa -24 + ^ x29: .cfa -32 + ^
STACK CFI 515f4 .cfa: sp 32 +
STACK CFI 515fc .cfa: sp 0 +
STACK CFI INIT 51600 58 .cfa: sp 0 +
STACK CFI 51604 .cfa: sp 32 +
STACK CFI 5160c .cfa: x29 32 + x19: .cfa -8 + ^ x20: .cfa -16 + ^ .ra: .cfa -24 + ^ x29: .cfa -32 + ^
STACK CFI 5164c .cfa: sp 32 +
STACK CFI 51654 .cfa: sp 0 +
STACK CFI INIT 51658 4c .cfa: sp 0 +
STACK CFI 5165c .cfa: sp 32 +
STACK CFI 51664 .cfa: x29 32 + x19: .cfa -8 + ^ x20: .cfa -16 + ^ .ra: .cfa -24 + ^ x29: .cfa -32 + ^
STACK CFI 51698 .cfa: sp 32 +
STACK CFI 516a0 .cfa: sp 0 +
STACK CFI INIT 516a4 50 .cfa: sp 0 +
STACK CFI 516a8 .cfa: sp 32 +
STACK CFI 516b0 .cfa: x29 32 + x19: .cfa -16 + ^ .ra: .cfa -24 + ^ x29: .cfa -32 + ^
STACK CFI 516c8 .cfa: sp 32 +
STACK CFI 516d0 .cfa: sp 0 +
STACK CFI 516d4 .cfa: x29 32 +
STACK CFI 516e8 .cfa: sp 32 +
STACK CFI 516f0 .cfa: sp 0 +
STACK CFI INIT 516f4 50 .cfa: sp 0 +
STACK CFI 516f8 .cfa: sp 32 +
STACK CFI 51700 .cfa: x29 32 + x19: .cfa -8 + ^ x20: .cfa -16 + ^ .ra: .cfa -24 + ^ x29: .cfa -32 + ^
STACK CFI 51738 .cfa: sp 32 +
STACK CFI 51740 .cfa: sp 0 +
STACK CFI INIT 518cc 1c .cfa: sp 0 +
STACK CFI INIT 518e8 c .cfa: sp 0 +
STACK CFI INIT 518f4 4 .cfa: sp 0 +
STACK CFI INIT 518f8 4 .cfa: sp 0 +
STACK CFI INIT 518fc 34 .cfa: sp 0 +
STACK CFI 51900 .cfa: sp 32 +
STACK CFI 51908 .cfa: x29 32 + x19: .cfa -16 + ^ .ra: .cfa -24 + ^ x29: .cfa -32 + ^
STACK CFI 51924 .cfa: sp 32 +
STACK CFI 5192c .cfa: sp 0 +
STACK CFI INIT 51930 14 .cfa: sp 0 +
STACK CFI INIT 51944 4 .cfa: sp 0 +
STACK CFI INIT 51948 4 .cfa: sp 0 +
STACK CFI INIT 51b1c 1c .cfa: sp 0 +
STACK CFI INIT 51b38 c .cfa: sp 0 +
STACK CFI INIT 51b44 14 .cfa: sp 0 +
STACK CFI INIT 51b58 14 .cfa: sp 0 +
STACK CFI INIT 51b6c 30 .cfa: sp 0 +
STACK CFI 51b70 .cfa: sp 32 +
STACK CFI 51b78 .cfa: x29 32 + x19: .cfa -16 + ^ .ra: .cfa -24 + ^ x29: .cfa -32 + ^
STACK CFI 51b90 .cfa: sp 32 +
STACK CFI 51b98 .cfa: sp 0 +
STACK CFI INIT 51b9c 4c .cfa: sp 0 +
STACK CFI 51ba0 .cfa: sp 32 +
STACK CFI 51ba8 .cfa: x29 32 + x19: .cfa -8 + ^ x20: .cfa -16 + ^ .ra: .cfa -24 + ^ x29: .cfa -32 + ^
STACK CFI 51bd0 .cfa: sp 32 +
STACK CFI 51bd8 .cfa: sp 0 +
STACK CFI 51bdc .cfa: sp 32 +
STACK CFI 51be4 .cfa: sp 0 +
STACK CFI INIT 51e08 64 .cfa: sp 0 +
STACK CFI 51e0c .cfa: sp 32 +
STACK CFI 51e14 .cfa: x29 32 + x19: .cfa -16 + ^ .ra: .cfa -24 + ^ x29: .cfa -32 + ^
STACK CFI 51e40 .cfa: sp 32 +
STACK CFI 51e48 .cfa: sp 0 +
STACK CFI 51e4c .cfa: x29 32 +
STACK CFI 51e60 .cfa: sp 32 +
STACK CFI 51e68 .cfa: sp 0 +
STACK CFI INIT 52090 24 .cfa: sp 0 +
STACK CFI 52094 .cfa: sp 32 +
STACK CFI 5209c .cfa: x29 32 + x19: .cfa -16 + ^ .ra: .cfa -24 + ^ x29: .cfa -32 + ^
STACK CFI 520a8 .cfa: sp 32 +
STACK CFI 520b0 .cfa: sp 0 +
STACK CFI INIT 520b4 24 .cfa: sp 0 +
STACK CFI 520b8 .cfa: sp 32 +
STACK CFI 520c0 .cfa: x29 32 + x19: .cfa -16 + ^ .ra: .cfa -24 + ^ x29: .cfa -32 + ^
STACK CFI 520cc .cfa: sp 32 +
STACK CFI 520d4 .cfa: sp 0 +
STACK CFI INIT 52364 8 .cfa: sp 0 +
STACK CFI INIT 5236c 24 .cfa: sp 0 +
STACK CFI 52370 .cfa: sp 32 +
STACK CFI 52378 .cfa: x29 32 + x19: .cfa -16 + ^ .ra: .cfa -24 + ^ x29: .cfa -32 + ^
STACK CFI 52384 .cfa: sp 32 +
STACK CFI 5238c .cfa: sp 0 +
STACK CFI INIT 52390 28 .cfa: sp 0 +
STACK CFI 52394 .cfa: sp 32 +
STACK CFI 5239c .cfa: x29 32 + x19: .cfa -16 + ^ .ra: .cfa -24 + ^ x29: .cfa -32 + ^
STACK CFI 523ac .cfa: sp 32 +
STACK CFI 523b4 .cfa: sp 0 +
STACK CFI INIT 526c0 8 .cfa: sp 0 +
STACK CFI INIT 526c8 24 .cfa: sp 0 +
STACK CFI 526cc .cfa: sp 32 +
STACK CFI 526d4 .cfa: x29 32 + x19: .cfa -16 + ^ .ra: .cfa -24 + ^ x29: .cfa -32 + ^
STACK CFI 526e0 .cfa: sp 32 +
STACK CFI 526e8 .cfa: sp 0 +
STACK CFI INIT 526ec 28 .cfa: sp 0 +
STACK CFI 526f0 .cfa: sp 32 +
STACK CFI 526f8 .cfa: x29 32 + x19: .cfa -16 + ^ .ra: .cfa -24 + ^ x29: .cfa -32 + ^
STACK CFI 52708 .cfa: sp 32 +
STACK CFI 52710 .cfa: sp 0 +
STACK CFI INIT 52980 8 .cfa: sp 0 +
STACK CFI INIT 52988 24 .cfa: sp 0 +
STACK CFI 5298c .cfa: sp 32 +
STACK CFI 52994 .cfa: x29 32 + x19: .cfa -16 + ^ .ra: .cfa -24 + ^ x29: .cfa -32 + ^
STACK CFI 529a0 .cfa: sp 32 +
STACK CFI 529a8 .cfa: sp 0 +
STACK CFI INIT 529ac 28 .cfa: sp 0 +
STACK CFI 529b0 .cfa: sp 32 +
STACK CFI 529b8 .cfa: x29 32 + x19: .cfa -16 + ^ .ra: .cfa -24 + ^ x29: .cfa -32 + ^
STACK CFI 529c8 .cfa: sp 32 +
STACK CFI 529d0 .cfa: sp 0 +
STACK CFI INIT 529d4 8 .cfa: sp 0 +
STACK CFI INIT 529dc 24 .cfa: sp 0 +
STACK CFI 529e0 .cfa: sp 32 +
STACK CFI 529e8 .cfa: x29 32 + x19: .cfa -16 + ^ .ra: .cfa -24 + ^ x29: .cfa -32 + ^
STACK CFI 529f4 .cfa: sp 32 +
STACK CFI 529fc .cfa: sp 0 +
STACK CFI INIT 52a00 28 .cfa: sp 0 +
STACK CFI 52a04 .cfa: sp 32 +
STACK CFI 52a0c .cfa: x29 32 + x19: .cfa -16 + ^ .ra: .cfa -24 + ^ x29: .cfa -32 + ^
STACK CFI 52a1c .cfa: sp 32 +
STACK CFI 52a24 .cfa: sp 0 +
STACK CFI INIT 53208 5c .cfa: sp 0 +
STACK CFI 5320c .cfa: sp 32 +
STACK CFI 53214 .cfa: x29 32 + x19: .cfa -16 + ^ .ra: .cfa -24 + ^ x29: .cfa -32 + ^
STACK CFI 53258 .cfa: sp 32 +
STACK CFI 53260 .cfa: sp 0 +
STACK CFI INIT 53264 4 .cfa: sp 0 +
STACK CFI INIT 53840 24 .cfa: sp 0 +
STACK CFI 53844 .cfa: sp 32 +
STACK CFI 5384c .cfa: x29 32 + x19: .cfa -16 + ^ .ra: .cfa -24 + ^ x29: .cfa -32 + ^
STACK CFI 53858 .cfa: sp 32 +
STACK CFI 53860 .cfa: sp 0 +
STACK CFI INIT 5441c 4 .cfa: sp 0 +
STACK CFI INIT 54420 14 .cfa: sp 0 +
STACK CFI INIT 54434 64 .cfa: sp 0 +
STACK CFI 54438 .cfa: sp 32 +
STACK CFI 54440 .cfa: x29 32 + x19: .cfa -16 + ^ .ra: .cfa -24 + ^ x29: .cfa -32 + ^
STACK CFI 5448c .cfa: sp 32 +
STACK CFI 54494 .cfa: sp 0 +
STACK CFI INIT 54498 60 .cfa: sp 0 +
STACK CFI 5449c .cfa: sp 32 +
STACK CFI 544a4 .cfa: x29 32 + x19: .cfa -8 + ^ x20: .cfa -16 + ^ .ra: .cfa -24 + ^ x29: .cfa -32 + ^
STACK CFI 544ec .cfa: sp 32 +
STACK CFI 544f4 .cfa: sp 0 +
STACK CFI INIT 544f8 68 .cfa: sp 0 +
STACK CFI 544fc .cfa: sp 32 +
STACK CFI 54504 .cfa: x29 32 + x19: .cfa -8 + ^ x20: .cfa -16 + ^ .ra: .cfa -24 + ^ x29: .cfa -32 + ^
STACK CFI 54554 .cfa: sp 32 +
STACK CFI 5455c .cfa: sp 0 +
STACK CFI INIT 5499c c .cfa: sp 0 +
STACK CFI INIT 549a8 24c .cfa: sp 0 +
STACK CFI INIT 54bf4 a0 .cfa: sp 0 +
STACK CFI 54c00 .cfa: sp 32 +
STACK CFI 54c58 .cfa: sp 0 +
STACK CFI 54c5c .cfa: sp 32 +
STACK CFI 54c64 .cfa: sp 0 +
STACK CFI 54c68 .cfa: sp 32 +
STACK CFI 54c7c .cfa: sp 0 +
STACK CFI 54c80 .cfa: sp 32 +
STACK CFI 54c90 .cfa: sp 0 +
STACK CFI INIT 54c94 38 .cfa: sp 0 +
STACK CFI 54ca0 .cfa: sp 32 +
STACK CFI 54cc8 .cfa: sp 0 +
STACK CFI INIT 54f60 70 .cfa: sp 0 +
STACK CFI 54f64 .cfa: sp 32 +
STACK CFI 54f6c .cfa: x29 32 + x19: .cfa -16 + ^ .ra: .cfa -24 + ^ x29: .cfa -32 + ^
STACK CFI 54fa0 .cfa: sp 32 +
STACK CFI 54fa8 .cfa: sp 0 +
STACK CFI 54fac .cfa: x29 32 +
STACK CFI INIT 55020 2c .cfa: sp 0 +
STACK CFI 55024 .cfa: sp 32 +
STACK CFI 5502c .cfa: x29 32 + x19: .cfa -16 + ^ .ra: .cfa -24 + ^ x29: .cfa -32 + ^
STACK CFI 55040 .cfa: sp 32 +
STACK CFI 55048 .cfa: sp 0 +
STACK CFI INIT 5579c 64 .cfa: sp 0 +
STACK CFI 557a0 .cfa: sp 32 +
STACK CFI 557a8 .cfa: x29 32 + x19: .cfa -16 + ^ .ra: .cfa -24 + ^ x29: .cfa -32 + ^
STACK CFI 557c4 .cfa: sp 32 +
STACK CFI 557cc .cfa: sp 0 +
STACK CFI 557d0 .cfa: x29 32 +
STACK CFI 557f4 .cfa: sp 32 +
STACK CFI 557fc .cfa: sp 0 +
STACK CFI INIT 5592c 3c8 .cfa: sp 0 +
STACK CFI 55930 .cfa: sp 208 +
STACK CFI 55944 .cfa: x29 64 + x19: .cfa -8 + ^ x20: .cfa -16 + ^ x21: .cfa -24 + ^ x22: .cfa -32 + ^ x23: .cfa -40 + ^ x24: .cfa -48 + ^ .ra: .cfa -56 + ^ x29: .cfa -64 + ^
STACK CFI 55b5c .cfa: sp 208 +
STACK CFI 55b70 .cfa: sp 0 +
STACK CFI 55b74 .cfa: x29 64 +
STACK CFI INIT 55cf4 228 .cfa: sp 0 +
STACK CFI INIT 55f1c 2b4 .cfa: sp 0 +
STACK CFI INIT 561d0 530 .cfa: sp 0 +
STACK CFI INIT 56700 78 .cfa: sp 0 +
STACK CFI 56704 .cfa: sp 48 +
STACK CFI 56710 .cfa: x29 48 + x19: .cfa -8 + ^ x20: .cfa -16 + ^ x21: .cfa -24 + ^ x22: .cfa -32 + ^ .ra: .cfa -40 + ^ x29: .cfa -48 + ^
STACK CFI 56758 .cfa: sp 48 +
STACK CFI 56764 .cfa: sp 0 +
STACK CFI 56768 .cfa: sp 48 +
STACK CFI 56774 .cfa: sp 0 +
STACK CFI INIT 56778 78 .cfa: sp 0 +
STACK CFI 5677c .cfa: sp 32 +
STACK CFI 56784 .cfa: x29 32 + x19: .cfa -16 + ^ .ra: .cfa -24 + ^ x29: .cfa -32 + ^
STACK CFI 567c0 .cfa: sp 32 +
STACK CFI 567c8 .cfa: sp 0 +
STACK CFI 567cc .cfa: x29 32 +
STACK CFI INIT 567f0 24 .cfa: sp 0 +
STACK CFI 567f4 .cfa: sp 32 +
STACK CFI 567fc .cfa: x29 32 + x19: .cfa -16 + ^ .ra: .cfa -24 + ^ x29: .cfa -32 + ^
STACK CFI 56808 .cfa: sp 32 +
STACK CFI 56810 .cfa: sp 0 +
STACK CFI INIT 56814 150 .cfa: sp 0 +
STACK CFI 56818 .cfa: sp 48 +
STACK CFI 56824 .cfa: x29 48 + x19: .cfa -8 + ^ x20: .cfa -16 + ^ x21: .cfa -24 + ^ x22: .cfa -32 + ^ .ra: .cfa -40 + ^ x29: .cfa -48 + ^
STACK CFI 56954 .cfa: sp 48 +
STACK CFI 56960 .cfa: sp 0 +
STACK CFI INIT 56964 6c .cfa: sp 0 +
STACK CFI 56968 .cfa: sp 64 +
STACK CFI 56974 .cfa: x29 32 + x19: .cfa -16 + ^ .ra: .cfa -24 + ^ x29: .cfa -32 + ^
STACK CFI 569bc .cfa: sp 64 +
STACK CFI 569c8 .cfa: sp 0 +
STACK CFI 569cc .cfa: x29 32 +
STACK CFI INIT 569d0 74 .cfa: sp 0 +
STACK CFI 569d4 .cfa: sp 32 +
STACK CFI 569dc .cfa: x29 32 + x19: .cfa -8 + ^ x20: .cfa -16 + ^ .ra: .cfa -24 + ^ x29: .cfa -32 + ^
STACK CFI 56a38 .cfa: sp 32 +
STACK CFI 56a40 .cfa: sp 0 +
STACK CFI INIT 56a44 f0 .cfa: sp 0 +
STACK CFI 56a48 .cfa: sp 112 +
STACK CFI 56a58 .cfa: x29 48 + x19: .cfa -8 + ^ x20: .cfa -16 + ^ x21: .cfa -32 + ^ .ra: .cfa -40 + ^ x29: .cfa -48 + ^
STACK CFI 56b1c .cfa: sp 112 +
STACK CFI 56b2c .cfa: sp 0 +
STACK CFI 56b30 .cfa: x29 48 +
STACK CFI INIT 56b34 f0 .cfa: sp 0 +
STACK CFI 56b38 .cfa: sp 112 +
STACK CFI 56b48 .cfa: x29 48 + x19: .cfa -8 + ^ x20: .cfa -16 + ^ x21: .cfa -32 + ^ .ra: .cfa -40 + ^ x29: .cfa -48 + ^
STACK CFI 56c0c .cfa: sp 112 +
STACK CFI 56c1c .cfa: sp 0 +
STACK CFI 56c20 .cfa: x29 48 +
STACK CFI INIT 56c24 48 .cfa: sp 0 +
STACK CFI 56c28 .cfa: sp 32 +
STACK CFI 56c30 .cfa: x29 32 + x19: .cfa -8 + ^ x20: .cfa -16 + ^ .ra: .cfa -24 + ^ x29: .cfa -32 + ^
STACK CFI 56c54 .cfa: sp 32 +
STACK CFI 56c5c .cfa: sp 0 +
STACK CFI 56c60 .cfa: x29 32 +
STACK CFI INIT 56c6c 9c .cfa: sp 0 +
STACK CFI 56c70 .cfa: sp 80 +
STACK CFI 56c7c .cfa: x29 32 + x19: .cfa -16 + ^ .ra: .cfa -24 + ^ x29: .cfa -32 + ^
STACK CFI 56cf4 .cfa: sp 80 +
STACK CFI 56d00 .cfa: sp 0 +
STACK CFI 56d04 .cfa: x29 32 +
STACK CFI INIT 56d08 220 .cfa: sp 0 +
STACK CFI 56d0c .cfa: sp 112 +
STACK CFI 56d24 .cfa: x29 80 + x19: .cfa -8 + ^ x20: .cfa -16 + ^ x21: .cfa -24 + ^ x22: .cfa -32 + ^ x23: .cfa -40 + ^ x24: .cfa -48 + ^ x25: .cfa -64 + ^ .ra: .cfa -72 + ^ x29: .cfa -80 + ^
STACK CFI 56ee8 .cfa: sp 112 +
STACK CFI 56f00 .cfa: sp 0 +
STACK CFI 56f04 .cfa: x29 80 +
STACK CFI INIT 56f28 150 .cfa: sp 0 +
STACK CFI 56f2c .cfa: sp 48 +
STACK CFI 56f38 .cfa: x29 48 + x19: .cfa -8 + ^ x20: .cfa -16 + ^ x21: .cfa -24 + ^ x22: .cfa -32 + ^ .ra: .cfa -40 + ^ x29: .cfa -48 + ^
STACK CFI 57068 .cfa: sp 48 +
STACK CFI 57074 .cfa: sp 0 +
STACK CFI INIT 57078 1c4 .cfa: sp 0 +
STACK CFI 5707c .cfa: sp 96 +
STACK CFI 57090 .cfa: x29 64 + x19: .cfa -8 + ^ x20: .cfa -16 + ^ x21: .cfa -24 + ^ x22: .cfa -32 + ^ x23: .cfa -40 + ^ x24: .cfa -48 + ^ .ra: .cfa -56 + ^ x29: .cfa -64 + ^
STACK CFI 57200 .cfa: sp 96 +
STACK CFI 57214 .cfa: sp 0 +
STACK CFI 57218 .cfa: x29 64 +
STACK CFI INIT 5723c 244 .cfa: sp 0 +
STACK CFI 57240 .cfa: sp 112 +
STACK CFI 57258 .cfa: x29 80 + x19: .cfa -8 + ^ x20: .cfa -16 + ^ x21: .cfa -24 + ^ x22: .cfa -32 + ^ x23: .cfa -40 + ^ x24: .cfa -48 + ^ x25: .cfa -64 + ^ .ra: .cfa -72 + ^ x29: .cfa -80 + ^
STACK CFI 57440 .cfa: sp 112 +
STACK CFI 57458 .cfa: sp 0 +
STACK CFI 5745c .cfa: x29 80 +
STACK CFI INIT 57480 1ec .cfa: sp 0 +
STACK CFI 57484 .cfa: sp 96 +
STACK CFI 57498 .cfa: x29 64 + x19: .cfa -8 + ^ x20: .cfa -16 + ^ x21: .cfa -24 + ^ x22: .cfa -32 + ^ x23: .cfa -40 + ^ x24: .cfa -48 + ^ .ra: .cfa -56 + ^ x29: .cfa -64 + ^
STACK CFI 57630 .cfa: sp 96 +
STACK CFI 57644 .cfa: sp 0 +
STACK CFI 57648 .cfa: x29 64 +
STACK CFI INIT 5766c 304 .cfa: sp 0 +
STACK CFI 57670 .cfa: sp 160 +
STACK CFI 5768c .cfa: x29 96 + x19: .cfa -8 + ^ x20: .cfa -16 + ^ x21: .cfa -24 + ^ x22: .cfa -32 + ^ x23: .cfa -40 + ^ x24: .cfa -48 + ^ x25: .cfa -56 + ^ x26: .cfa -64 + ^ x27: .cfa -72 + ^ x28: .cfa -80 + ^ .ra: .cfa -88 + ^ x29: .cfa -96 + ^
STACK CFI 57914 .cfa: sp 160 +
STACK CFI 57930 .cfa: sp 0 +
STACK CFI 57934 .cfa: x29 96 +
STACK CFI INIT 57970 2a4 .cfa: sp 0 +
STACK CFI 57974 .cfa: sp 144 +
STACK CFI 57990 .cfa: x29 96 + x19: .cfa -8 + ^ x20: .cfa -16 + ^ x21: .cfa -24 + ^ x22: .cfa -32 + ^ x23: .cfa -40 + ^ x24: .cfa -48 + ^ x25: .cfa -56 + ^ x26: .cfa -64 + ^ x27: .cfa -72 + ^ x28: .cfa -80 + ^ .ra: .cfa -88 + ^ x29: .cfa -96 + ^
STACK CFI 57bb8 .cfa: sp 144 +
STACK CFI 57bd4 .cfa: sp 0 +
STACK CFI 57bd8 .cfa: x29 96 +
STACK CFI INIT 57c14 2b4 .cfa: sp 0 +
STACK CFI 57c18 .cfa: sp 128 +
STACK CFI 57c30 .cfa: x29 80 + x19: .cfa -8 + ^ x20: .cfa -16 + ^ x21: .cfa -24 + ^ x22: .cfa -32 + ^ x23: .cfa -40 + ^ x24: .cfa -48 + ^ x25: .cfa -56 + ^ x26: .cfa -64 + ^ .ra: .cfa -72 + ^ x29: .cfa -80 + ^
STACK CFI 57e24 .cfa: sp 128 +
STACK CFI 57e3c .cfa: sp 0 +
STACK CFI 57e40 .cfa: x29 80 +
STACK CFI 57ea8 .cfa: sp 128 +
STACK CFI 57ec0 .cfa: sp 0 +
STACK CFI 57ec4 .cfa: x29 80 +
STACK CFI INIT 57ec8 dd4 .cfa: sp 0 +
STACK CFI 57ecc .cfa: sp 144 +
STACK CFI 57ee8 .cfa: x29 96 + x19: .cfa -8 + ^ x20: .cfa -16 + ^ x21: .cfa -24 + ^ x22: .cfa -32 + ^ x23: .cfa -40 + ^ x24: .cfa -48 + ^ x25: .cfa -56 + ^ x26: .cfa -64 + ^ x27: .cfa -72 + ^ x28: .cfa -80 + ^ .ra: .cfa -88 + ^ x29: .cfa -96 + ^
STACK CFI 58c78 .cfa: sp 144 +
STACK CFI 58c94 .cfa: sp 0 +
STACK CFI 58c98 .cfa: x29 96 +
STACK CFI INIT 58c9c 254 .cfa: sp 0 +
STACK CFI 58ca0 .cfa: sp 112 +
STACK CFI 58cb4 .cfa: x29 64 + x19: .cfa -8 + ^ x20: .cfa -16 + ^ x21: .cfa -24 + ^ x22: .cfa -32 + ^ x23: .cfa -40 + ^ x24: .cfa -48 + ^ .ra: .cfa -56 + ^ x29: .cfa -64 + ^
STACK CFI 58e20 .cfa: sp 112 +
STACK CFI 58e34 .cfa: sp 0 +
STACK CFI 58e38 .cfa: x29 64 +
STACK CFI 58ea8 .cfa: sp 112 +
STACK CFI 58ebc .cfa: sp 0 +
STACK CFI 58ec0 .cfa: x29 64 +
STACK CFI INIT 58ef0 258 .cfa: sp 0 +
STACK CFI 58ef4 .cfa: sp 96 +
STACK CFI 58f0c .cfa: x29 96 + x19: .cfa -8 + ^ x20: .cfa -16 + ^ x21: .cfa -24 + ^ x22: .cfa -32 + ^ x23: .cfa -40 + ^ x24: .cfa -48 + ^ x25: .cfa -56 + ^ x26: .cfa -64 + ^ x27: .cfa -72 + ^ x28: .cfa -80 + ^ .ra: .cfa -88 + ^ x29: .cfa -96 + ^
STACK CFI 59104 .cfa: sp 96 +
STACK CFI 5911c .cfa: sp 0 +
STACK CFI 59120 .cfa: x29 96 +
STACK CFI 5912c .cfa: sp 96 +
STACK CFI 59144 .cfa: sp 0 +
STACK CFI INIT 59d84 154 .cfa: sp 0 +
STACK CFI 59d88 .cfa: sp 96 +
STACK CFI 59d9c .cfa: x29 64 + x19: .cfa -8 + ^ x20: .cfa -16 + ^ x21: .cfa -24 + ^ x22: .cfa -32 + ^ x23: .cfa -48 + ^ .ra: .cfa -56 + ^ x29: .cfa -64 + ^
STACK CFI 59e7c .cfa: sp 96 +
STACK CFI 59e90 .cfa: sp 0 +
STACK CFI 59e94 .cfa: x29 64 +
STACK CFI INIT 5a110 44 .cfa: sp 0 +
STACK CFI 5a114 .cfa: sp 32 +
STACK CFI 5a11c .cfa: x29 32 + x19: .cfa -16 + ^ .ra: .cfa -24 + ^ x29: .cfa -32 + ^
STACK CFI 5a138 .cfa: sp 32 +
STACK CFI 5a140 .cfa: sp 0 +
STACK CFI 5a144 .cfa: x29 32 +
STACK CFI 5a148 .cfa: sp 32 +
STACK CFI 5a150 .cfa: sp 0 +
STACK CFI INIT 5a154 1a4 .cfa: sp 0 +
STACK CFI 5a158 .cfa: sp 64 +
STACK CFI 5a168 .cfa: x29 64 + x19: .cfa -8 + ^ x20: .cfa -16 + ^ x21: .cfa -24 + ^ x22: .cfa -32 + ^ x23: .cfa -40 + ^ x24: .cfa -48 + ^ .ra: .cfa -56 + ^ x29: .cfa -64 + ^
STACK CFI 5a2e4 .cfa: sp 64 +
STACK CFI 5a2f4 .cfa: sp 0 +
STACK CFI INIT 5a2f8 17c .cfa: sp 0 +
STACK CFI INIT 5a818 a0 .cfa: sp 0 +
STACK CFI 5a81c .cfa: sp 48 +
STACK CFI 5a828 .cfa: x29 48 + x19: .cfa -8 + ^ x20: .cfa -16 + ^ x21: .cfa -24 + ^ x22: .cfa -32 + ^ .ra: .cfa -40 + ^ x29: .cfa -48 + ^
STACK CFI 5a894 .cfa: sp 48 +
STACK CFI 5a8a0 .cfa: sp 0 +
STACK CFI 5a8a4 .cfa: sp 48 +
STACK CFI 5a8b0 .cfa: sp 0 +
STACK CFI 5a8b4 .cfa: x29 48 +
STACK CFI INIT 5b530 158 .cfa: sp 0 +
STACK CFI 5b534 .cfa: sp 96 +
STACK CFI 5b548 .cfa: x29 64 + x19: .cfa -8 + ^ x20: .cfa -16 + ^ x21: .cfa -24 + ^ x22: .cfa -32 + ^ x23: .cfa -48 + ^ .ra: .cfa -56 + ^ x29: .cfa -64 + ^
STACK CFI 5b62c .cfa: sp 96 +
STACK CFI 5b640 .cfa: sp 0 +
STACK CFI 5b644 .cfa: x29 64 +
STACK CFI INIT 5b688 190 .cfa: sp 0 +
STACK CFI INIT 5c2e8 1f4 .cfa: sp 0 +
STACK CFI 5c2ec .cfa: sp 80 +
STACK CFI 5c300 .cfa: x29 80 + x19: .cfa -8 + ^ x20: .cfa -16 + ^ x21: .cfa -24 + ^ x22: .cfa -32 + ^ x23: .cfa -40 + ^ x24: .cfa -48 + ^ x25: .cfa -64 + ^ .ra: .cfa -72 + ^ x29: .cfa -80 + ^
STACK CFI 5c4a0 .cfa: sp 80 +
STACK CFI 5c4b4 .cfa: sp 0 +
STACK CFI 5c4b8 .cfa: x29 80 +
STACK CFI 5c4c4 .cfa: sp 80 +
STACK CFI 5c4d8 .cfa: sp 0 +
STACK CFI INIT 5d82c 124 .cfa: sp 0 +
STACK CFI 5d85c .cfa: sp 32 +
STACK CFI 5d864 .cfa: x29 32 + x19: .cfa -8 + ^ x20: .cfa -16 + ^ .ra: .cfa -24 + ^ x29: .cfa -32 + ^
STACK CFI 5d944 .cfa: sp 32 +
STACK CFI 5d94c .cfa: sp 0 +
STACK CFI INIT 5e094 2f4 .cfa: sp 0 +
STACK CFI 5e098 .cfa: sp 64 +
STACK CFI 5e0a8 .cfa: x29 64 + x19: .cfa -8 + ^ x20: .cfa -16 + ^ x21: .cfa -24 + ^ x22: .cfa -32 + ^ x23: .cfa -40 + ^ x24: .cfa -48 + ^ .ra: .cfa -56 + ^ x29: .cfa -64 + ^
STACK CFI 5e304 .cfa: sp 64 +
STACK CFI 5e314 .cfa: sp 0 +
STACK CFI 5e318 .cfa: x29 64 +
STACK CFI INIT 5e388 a0 .cfa: sp 0 +
STACK CFI 5e38c .cfa: sp 48 +
STACK CFI 5e398 .cfa: x29 48 + x19: .cfa -8 + ^ x20: .cfa -16 + ^ x21: .cfa -24 + ^ x22: .cfa -32 + ^ .ra: .cfa -40 + ^ x29: .cfa -48 + ^
STACK CFI 5e404 .cfa: sp 48 +
STACK CFI 5e410 .cfa: sp 0 +
STACK CFI 5e414 .cfa: sp 48 +
STACK CFI 5e420 .cfa: sp 0 +
STACK CFI 5e424 .cfa: x29 48 +
STACK CFI INIT 5f2b4 160 .cfa: sp 0 +
STACK CFI 5f2b8 .cfa: sp 64 +
STACK CFI 5f2c8 .cfa: x29 64 + x19: .cfa -8 + ^ x20: .cfa -16 + ^ x21: .cfa -24 + ^ x22: .cfa -32 + ^ x23: .cfa -48 + ^ .ra: .cfa -56 + ^ x29: .cfa -64 + ^
STACK CFI 5f3c0 .cfa: sp 64 +
STACK CFI 5f3d0 .cfa: sp 0 +
STACK CFI 5f3d4 .cfa: x29 64 +
STACK CFI INIT 5f414 214 .cfa: sp 0 +
STACK CFI 5f418 .cfa: sp 128 +
STACK CFI 5f434 .cfa: x29 96 + x19: .cfa -8 + ^ x20: .cfa -16 + ^ x21: .cfa -24 + ^ x22: .cfa -32 + ^ x23: .cfa -40 + ^ x24: .cfa -48 + ^ x25: .cfa -56 + ^ x26: .cfa -64 + ^ x27: .cfa -80 + ^ .ra: .cfa -88 + ^ x29: .cfa -96 + ^
STACK CFI 5f5b0 .cfa: sp 128 +
STACK CFI 5f5cc .cfa: sp 0 +
STACK CFI 5f5d0 .cfa: x29 96 +
STACK CFI INIT 60aec e30 .cfa: sp 0 +
STACK CFI 60af0 .cfa: sp 192 +
STACK CFI 60b0c .cfa: x29 96 + x19: .cfa -8 + ^ x20: .cfa -16 + ^ x21: .cfa -24 + ^ x22: .cfa -32 + ^ x23: .cfa -40 + ^ x24: .cfa -48 + ^ x25: .cfa -56 + ^ x26: .cfa -64 + ^ x27: .cfa -72 + ^ x28: .cfa -80 + ^ .ra: .cfa -88 + ^ x29: .cfa -96 + ^
STACK CFI 618f8 .cfa: sp 192 +
STACK CFI 61914 .cfa: sp 0 +
STACK CFI 61918 .cfa: x29 96 +
STACK CFI INIT 6191c fd4 .cfa: sp 0 +
STACK CFI 61920 .cfa: sp 288 +
STACK CFI 6193c .cfa: x29 96 + x19: .cfa -8 + ^ x20: .cfa -16 + ^ x21: .cfa -24 + ^ x22: .cfa -32 + ^ x23: .cfa -40 + ^ x24: .cfa -48 + ^ x25: .cfa -56 + ^ x26: .cfa -64 + ^ x27: .cfa -72 + ^ x28: .cfa -80 + ^ .ra: .cfa -88 + ^ x29: .cfa -96 + ^
STACK CFI 628cc .cfa: sp 288 +
STACK CFI 628e8 .cfa: sp 0 +
STACK CFI 628ec .cfa: x29 96 +
STACK CFI INIT 628f0 510 .cfa: sp 0 +
STACK CFI 628f4 .cfa: sp 144 +
STACK CFI 62910 .cfa: x29 96 + x19: .cfa -8 + ^ x20: .cfa -16 + ^ x21: .cfa -24 + ^ x22: .cfa -32 + ^ x23: .cfa -40 + ^ x24: .cfa -48 + ^ x25: .cfa -56 + ^ x26: .cfa -64 + ^ x27: .cfa -72 + ^ x28: .cfa -80 + ^ .ra: .cfa -88 + ^ x29: .cfa -96 + ^
STACK CFI 62ddc .cfa: sp 144 +
STACK CFI 62df8 .cfa: sp 0 +
STACK CFI 62dfc .cfa: x29 96 +
STACK CFI INIT 2af98 7a4 .cfa: sp 0 +
STACK CFI 2af9c .cfa: sp 240 +
STACK CFI 2afb8 .cfa: x29 96 + x19: .cfa -8 + ^ x20: .cfa -16 + ^ x21: .cfa -24 + ^ x22: .cfa -32 + ^ x23: .cfa -40 + ^ x24: .cfa -48 + ^ x25: .cfa -56 + ^ x26: .cfa -64 + ^ x27: .cfa -72 + ^ x28: .cfa -80 + ^ .ra: .cfa -88 + ^ x29: .cfa -96 + ^
STACK CFI 2b374 .cfa: sp 240 +
STACK CFI 2b390 .cfa: sp 0 +
STACK CFI 2b394 .cfa: x29 96 +
STACK CFI 2b5e8 .cfa: sp 240 +
STACK CFI 2b604 .cfa: sp 0 +
STACK CFI 2b608 .cfa: x29 96 +
STACK CFI INIT 2b7b4 458 .cfa: sp 0 +
STACK CFI 2b7b8 .cfa: sp 224 +
STACK CFI 2b7d4 .cfa: x29 96 + x19: .cfa -8 + ^ x20: .cfa -16 + ^ x21: .cfa -24 + ^ x22: .cfa -32 + ^ x23: .cfa -40 + ^ x24: .cfa -48 + ^ x25: .cfa -56 + ^ x26: .cfa -64 + ^ x27: .cfa -80 + ^ .ra: .cfa -88 + ^ x29: .cfa -96 + ^
STACK CFI 2bae4 .cfa: sp 224 +
STACK CFI 2bb00 .cfa: sp 0 +
STACK CFI 2bb04 .cfa: x29 96 +
STACK CFI INIT 2bc5c 74 .cfa: sp 0 +
STACK CFI 2bc60 .cfa: sp 48 +
STACK CFI 2bc6c .cfa: x29 32 + x19: .cfa -8 + ^ x20: .cfa -16 + ^ .ra: .cfa -24 + ^ x29: .cfa -32 + ^
STACK CFI 2bcb8 .cfa: sp 48 +
STACK CFI 2bcc4 .cfa: sp 0 +
STACK CFI 2bcc8 .cfa: x29 32 +
STACK CFI INIT 2bd50 154 .cfa: sp 0 +
STACK CFI 2bd54 .cfa: sp 384 +
STACK CFI 2bd68 .cfa: x29 64 + x19: .cfa -8 + ^ x20: .cfa -16 + ^ x21: .cfa -24 + ^ x22: .cfa -32 + ^ x23: .cfa -40 + ^ x28: .cfa -48 + ^ .ra: .cfa -56 + ^ x29: .cfa -64 + ^
STACK CFI 2be4c .cfa: sp 384 +
STACK CFI 2be60 .cfa: sp 0 +
STACK CFI 2be64 .cfa: x29 64 +
STACK CFI INIT 2bed8 124 .cfa: sp 0 +
STACK CFI 2bedc .cfa: sp 80 +
STACK CFI 2bef0 .cfa: x29 80 + x19: .cfa -8 + ^ x20: .cfa -16 + ^ x21: .cfa -24 + ^ x22: .cfa -32 + ^ x23: .cfa -40 + ^ x24: .cfa -48 + ^ x25: .cfa -56 + ^ x26: .cfa -64 + ^ .ra: .cfa -72 + ^ x29: .cfa -80 + ^
STACK CFI 2bfbc .cfa: sp 80 +
STACK CFI 2bfd0 .cfa: sp 0 +
STACK CFI 2bfd4 .cfa: x29 80 +
STACK CFI INIT 2c0a0 198 .cfa: sp 0 +
STACK CFI 2c0a4 .cfa: sp 112 +
STACK CFI 2c0bc .cfa: x29 80 + x19: .cfa -8 + ^ x20: .cfa -16 + ^ x21: .cfa -24 + ^ x22: .cfa -32 + ^ x23: .cfa -40 + ^ x24: .cfa -48 + ^ x25: .cfa -56 + ^ x26: .cfa -64 + ^ .ra: .cfa -72 + ^ x29: .cfa -80 + ^
STACK CFI 2c1ac .cfa: sp 112 +
STACK CFI 2c1c4 .cfa: sp 0 +
STACK CFI 2c1c8 .cfa: x29 80 +
STACK CFI INIT 2c238 1b4 .cfa: sp 0 +
STACK CFI 2c23c .cfa: sp 128 +
STACK CFI 2c258 .cfa: x29 96 + x19: .cfa -8 + ^ x20: .cfa -16 + ^ x21: .cfa -24 + ^ x22: .cfa -32 + ^ x23: .cfa -40 + ^ x24: .cfa -48 + ^ x25: .cfa -56 + ^ x26: .cfa -64 + ^ x27: .cfa -80 + ^ .ra: .cfa -88 + ^ x29: .cfa -96 + ^
STACK CFI 2c39c .cfa: sp 128 +
STACK CFI 2c3b8 .cfa: sp 0 +
STACK CFI 2c3bc .cfa: x29 96 +
STACK CFI INIT 2c400 50 .cfa: sp 0 +
STACK CFI 2c404 .cfa: sp 32 +
STACK CFI 2c40c .cfa: x29 32 + x19: .cfa -8 + ^ x20: .cfa -16 + ^ .ra: .cfa -24 + ^ x29: .cfa -32 + ^
STACK CFI INIT 2c4b4 15c .cfa: sp 0 +
STACK CFI 2c4b8 .cfa: sp 80 +
STACK CFI 2c4cc .cfa: x29 80 + x19: .cfa -8 + ^ x20: .cfa -16 + ^ x21: .cfa -24 + ^ x22: .cfa -32 + ^ x23: .cfa -40 + ^ x24: .cfa -48 + ^ x25: .cfa -64 + ^ .ra: .cfa -72 + ^ x29: .cfa -80 + ^
STACK CFI 2c5dc .cfa: sp 80 +
STACK CFI 2c5f0 .cfa: sp 0 +
STACK CFI 2c5f4 .cfa: x29 80 +
STACK CFI INIT 2cc68 1dc .cfa: sp 0 +
STACK CFI 2cc6c .cfa: sp 96 +
STACK CFI 2cc84 .cfa: x29 56 + x19: .cfa -8 + ^ x20: .cfa -16 + ^ x21: .cfa -24 + ^ x22: .cfa -32 + ^ x23: .cfa -40 + ^ .ra: .cfa -48 + ^ x29: .cfa -56 + ^ v8: .cfa -64 + ^
STACK CFI 2cdf8 .cfa: sp 96 +
STACK CFI 2ce10 .cfa: sp 0 +
STACK CFI 2ce14 .cfa: x29 56 +
STACK CFI INIT 2cef8 184 .cfa: sp 0 +
STACK CFI 2cefc .cfa: sp 112 +
STACK CFI 2cf10 .cfa: x29 64 + x19: .cfa -8 + ^ x20: .cfa -16 + ^ x21: .cfa -24 + ^ x22: .cfa -32 + ^ x23: .cfa -48 + ^ .ra: .cfa -56 + ^ x29: .cfa -64 + ^
STACK CFI 2d014 .cfa: sp 112 +
STACK CFI 2d028 .cfa: sp 0 +
STACK CFI 2d02c .cfa: x29 64 +
STACK CFI INIT 2d3b4 114 .cfa: sp 0 +
STACK CFI 2d3b8 .cfa: sp 80 +
STACK CFI 2d3cc .cfa: x29 64 + x19: .cfa -8 + ^ x20: .cfa -16 + ^ x21: .cfa -24 + ^ x22: .cfa -32 + ^ x23: .cfa -48 + ^ .ra: .cfa -56 + ^ x29: .cfa -64 + ^
STACK CFI 2d4a8 .cfa: sp 80 +
STACK CFI 2d4bc .cfa: sp 0 +
STACK CFI 2d4c0 .cfa: x29 64 +
STACK CFI INIT 2d4e0 c0 .cfa: sp 0 +
STACK CFI 2d4e4 .cfa: sp 80 +
STACK CFI 2d4f8 .cfa: x29 64 + x19: .cfa -8 + ^ x20: .cfa -16 + ^ x21: .cfa -24 + ^ x22: .cfa -32 + ^ x23: .cfa -48 + ^ .ra: .cfa -56 + ^ x29: .cfa -64 + ^
STACK CFI 2d580 .cfa: sp 80 +
STACK CFI 2d594 .cfa: sp 0 +
STACK CFI 2d598 .cfa: x29 64 +
STACK CFI INIT 2d5a0 344 .cfa: sp 0 +
STACK CFI 2d5a4 .cfa: sp 144 +
STACK CFI 2d5c0 .cfa: x29 96 + x19: .cfa -8 + ^ x20: .cfa -16 + ^ x21: .cfa -24 + ^ x22: .cfa -32 + ^ x23: .cfa -40 + ^ x24: .cfa -48 + ^ x25: .cfa -56 + ^ x26: .cfa -64 + ^ x27: .cfa -80 + ^ .ra: .cfa -88 + ^ x29: .cfa -96 + ^
STACK CFI 2d7c8 .cfa: sp 144 +
STACK CFI 2d7e4 .cfa: sp 0 +
STACK CFI 2d7e8 .cfa: x29 96 +
STACK CFI 2d80c .cfa: sp 144 +
STACK CFI 2d828 .cfa: sp 0 +
STACK CFI 2d82c .cfa: x29 96 +
STACK CFI INIT 2d994 1150 .cfa: sp 0 +
STACK CFI 2d998 .cfa: sp 96 +
STACK CFI 2d9b0 .cfa: x29 96 + x19: .cfa -8 + ^ x20: .cfa -16 + ^ x21: .cfa -24 + ^ x22: .cfa -32 + ^ x23: .cfa -40 + ^ x24: .cfa -48 + ^ x25: .cfa -56 + ^ x26: .cfa -64 + ^ x28: .cfa -80 + ^ .ra: .cfa -88 + ^ x29: .cfa -96 + ^
STACK CFI 2dcc8 .cfa: sp 96 +
STACK CFI 2dce0 .cfa: sp 0 +
STACK CFI 2dce4 .cfa: x29 96 +
STACK CFI INIT 2eae4 12c .cfa: sp 0 +
STACK CFI 2eae8 .cfa: sp 48 +
STACK CFI 2eaf4 .cfa: x29 48 + x19: .cfa -8 + ^ x20: .cfa -16 + ^ x21: .cfa -24 + ^ x22: .cfa -32 + ^ .ra: .cfa -40 + ^ x29: .cfa -48 + ^
STACK CFI 2ebe8 .cfa: sp 48 +
STACK CFI 2ebf4 .cfa: sp 0 +
STACK CFI 2ebf8 .cfa: x29 48 +
STACK CFI INIT 2ec10 e0 .cfa: sp 0 +
STACK CFI 2ec14 .cfa: sp 80 +
STACK CFI 2ec28 .cfa: x29 64 + x19: .cfa -8 + ^ x20: .cfa -16 + ^ x21: .cfa -24 + ^ x22: .cfa -32 + ^ x23: .cfa -48 + ^ .ra: .cfa -56 + ^ x29: .cfa -64 + ^
STACK CFI 2ecd0 .cfa: sp 80 +
STACK CFI 2ece4 .cfa: sp 0 +
STACK CFI 2ece8 .cfa: x29 64 +
STACK CFI INIT 2ecf0 e0 .cfa: sp 0 +
STACK CFI 2ecf4 .cfa: sp 80 +
STACK CFI 2ed08 .cfa: x29 64 + x19: .cfa -8 + ^ x20: .cfa -16 + ^ x21: .cfa -24 + ^ x22: .cfa -32 + ^ x23: .cfa -48 + ^ .ra: .cfa -56 + ^ x29: .cfa -64 + ^
STACK CFI 2edb0 .cfa: sp 80 +
STACK CFI 2edc4 .cfa: sp 0 +
STACK CFI 2edc8 .cfa: x29 64 +
STACK CFI INIT 2eef8 b0 .cfa: sp 0 +
STACK CFI 2eefc .cfa: sp 80 +
STACK CFI 2ef10 .cfa: x29 64 + x19: .cfa -8 + ^ x20: .cfa -16 + ^ x21: .cfa -24 + ^ x22: .cfa -32 + ^ x23: .cfa -48 + ^ .ra: .cfa -56 + ^ x29: .cfa -64 + ^
STACK CFI 2ef88 .cfa: sp 80 +
STACK CFI 2ef9c .cfa: sp 0 +
STACK CFI 2efa0 .cfa: x29 64 +
STACK CFI INIT 2efa8 178 .cfa: sp 0 +
STACK CFI 2efac .cfa: sp 80 +
STACK CFI 2efbc .cfa: x29 48 + x19: .cfa -8 + ^ x20: .cfa -16 + ^ x21: .cfa -24 + ^ x22: .cfa -32 + ^ .ra: .cfa -40 + ^ x29: .cfa -48 + ^
STACK CFI 2f0d4 .cfa: sp 80 +
STACK CFI 2f0e4 .cfa: sp 0 +
STACK CFI 2f0e8 .cfa: x29 48 +
STACK CFI INIT 2f16c 88 .cfa: sp 0 +
STACK CFI 2f170 .cfa: sp 48 +
STACK CFI 2f17c .cfa: x29 48 + x19: .cfa -8 + ^ x20: .cfa -16 + ^ x21: .cfa -24 + ^ x22: .cfa -32 + ^ .ra: .cfa -40 + ^ x29: .cfa -48 + ^
STACK CFI 2f1bc .cfa: sp 48 +
STACK CFI 2f1c8 .cfa: sp 0 +
STACK CFI 2f1cc .cfa: x29 48 +
STACK CFI INIT 2f25c c68 .cfa: sp 0 +
STACK CFI 2f260 .cfa: sp 96 +
STACK CFI 2f278 .cfa: x29 96 + x19: .cfa -8 + ^ x20: .cfa -16 + ^ x21: .cfa -24 + ^ x22: .cfa -32 + ^ x23: .cfa -40 + ^ x24: .cfa -48 + ^ x25: .cfa -56 + ^ x26: .cfa -64 + ^ x27: .cfa -72 + ^ x28: .cfa -80 + ^ .ra: .cfa -88 + ^ x29: .cfa -96 + ^
STACK CFI 2f760 .cfa: sp 96 +
STACK CFI 2f778 .cfa: sp 0 +
STACK CFI 2f77c .cfa: x29 96 +
STACK CFI INIT 2ff28 11b4 .cfa: sp 0 +
STACK CFI 2ff2c .cfa: sp 96 +
STACK CFI 2ff44 .cfa: x29 96 + x19: .cfa -8 + ^ x20: .cfa -16 + ^ x21: .cfa -24 + ^ x22: .cfa -32 + ^ x23: .cfa -40 + ^ x24: .cfa -48 + ^ x25: .cfa -56 + ^ x26: .cfa -64 + ^ x27: .cfa -72 + ^ x28: .cfa -80 + ^ .ra: .cfa -88 + ^ x29: .cfa -96 + ^
STACK CFI 30ad4 .cfa: sp 96 +
STACK CFI 30aec .cfa: sp 0 +
STACK CFI 30af0 .cfa: x29 96 +
STACK CFI INIT 310dc e0 .cfa: sp 0 +
STACK CFI 310e0 .cfa: sp 80 +
STACK CFI 310f4 .cfa: x29 64 + x19: .cfa -8 + ^ x20: .cfa -16 + ^ x21: .cfa -24 + ^ x22: .cfa -32 + ^ x23: .cfa -48 + ^ .ra: .cfa -56 + ^ x29: .cfa -64 + ^
STACK CFI 3119c .cfa: sp 80 +
STACK CFI 311b0 .cfa: sp 0 +
STACK CFI 311b4 .cfa: x29 64 +
STACK CFI INIT 311bc a10 .cfa: sp 0 +
STACK CFI 311c0 .cfa: sp 96 +
STACK CFI 311d8 .cfa: x29 96 + x19: .cfa -8 + ^ x20: .cfa -16 + ^ x21: .cfa -24 + ^ x22: .cfa -32 + ^ x23: .cfa -40 + ^ x24: .cfa -48 + ^ x25: .cfa -56 + ^ x26: .cfa -64 + ^ x27: .cfa -72 + ^ x28: .cfa -80 + ^ .ra: .cfa -88 + ^ x29: .cfa -96 + ^
STACK CFI 31aa4 .cfa: sp 96 +
STACK CFI 31abc .cfa: sp 0 +
STACK CFI 31ac0 .cfa: x29 96 +
STACK CFI INIT 31c90 fc .cfa: sp 0 +
STACK CFI 31c94 .cfa: sp 80 +
STACK CFI 31ca4 .cfa: x29 48 + x19: .cfa -8 + ^ x20: .cfa -16 + ^ x21: .cfa -32 + ^ .ra: .cfa -40 + ^ x29: .cfa -48 + ^
STACK CFI 31d48 .cfa: sp 80 +
STACK CFI 31d58 .cfa: sp 0 +
STACK CFI 31d5c .cfa: x29 48 +
STACK CFI INIT 31d8c 1db0 .cfa: sp 0 +
STACK CFI 31d90 .cfa: sp 336 +
STACK CFI 31dac .cfa: x29 96 + x19: .cfa -8 + ^ x20: .cfa -16 + ^ x21: .cfa -24 + ^ x22: .cfa -32 + ^ x23: .cfa -40 + ^ x24: .cfa -48 + ^ x25: .cfa -56 + ^ x26: .cfa -64 + ^ x27: .cfa -72 + ^ x28: .cfa -80 + ^ .ra: .cfa -88 + ^ x29: .cfa -96 + ^
STACK CFI 33804 .cfa: sp 336 +
STACK CFI 33820 .cfa: sp 0 +
STACK CFI 33824 .cfa: x29 96 +
STACK CFI INIT 33b3c a4c .cfa: sp 0 +
STACK CFI 33b40 .cfa: sp 80 +
STACK CFI 33b54 .cfa: x29 80 + x19: .cfa -8 + ^ x20: .cfa -16 + ^ x21: .cfa -24 + ^ x22: .cfa -32 + ^ x23: .cfa -40 + ^ x24: .cfa -48 + ^ x28: .cfa -64 + ^ .ra: .cfa -72 + ^ x29: .cfa -80 + ^
STACK CFI 33f64 .cfa: sp 80 +
STACK CFI 33f78 .cfa: sp 0 +
STACK CFI 33f7c .cfa: x29 80 +
STACK CFI INIT 345fc 1c0 .cfa: sp 0 +
STACK CFI 34600 .cfa: sp 112 +
STACK CFI 34610 .cfa: x29 48 + x19: .cfa -8 + ^ x20: .cfa -16 + ^ x21: .cfa -24 + ^ x22: .cfa -32 + ^ .ra: .cfa -40 + ^ x29: .cfa -48 + ^
STACK CFI 34654 .cfa: sp 112 +
STACK CFI 34664 .cfa: sp 0 +
STACK CFI 34668 .cfa: x29 48 +
STACK CFI INIT 347bc 4ac .cfa: sp 0 +
STACK CFI 347c0 .cfa: sp 176 +
STACK CFI 347dc .cfa: x29 96 + x19: .cfa -8 + ^ x20: .cfa -16 + ^ x21: .cfa -24 + ^ x22: .cfa -32 + ^ x23: .cfa -40 + ^ x24: .cfa -48 + ^ x25: .cfa -56 + ^ x26: .cfa -64 + ^ x27: .cfa -72 + ^ x28: .cfa -80 + ^ .ra: .cfa -88 + ^ x29: .cfa -96 + ^
STACK CFI 34960 .cfa: sp 176 +
STACK CFI 3497c .cfa: sp 0 +
STACK CFI 34980 .cfa: x29 96 +
STACK CFI INIT 34c68 2c8 .cfa: sp 0 +
STACK CFI 34c6c .cfa: sp 128 +
STACK CFI 34c84 .cfa: x29 80 + x19: .cfa -8 + ^ x20: .cfa -16 + ^ x21: .cfa -24 + ^ x22: .cfa -32 + ^ x23: .cfa -40 + ^ x24: .cfa -48 + ^ x25: .cfa -64 + ^ .ra: .cfa -72 + ^ x29: .cfa -80 + ^
STACK CFI 34d08 .cfa: sp 128 +
STACK CFI 34d20 .cfa: sp 0 +
STACK CFI 34d24 .cfa: x29 80 +
STACK CFI INIT 34f30 26c .cfa: sp 0 +
STACK CFI 34f34 .cfa: sp 128 +
STACK CFI 34f48 .cfa: x29 64 + x19: .cfa -8 + ^ x20: .cfa -16 + ^ x21: .cfa -24 + ^ x22: .cfa -32 + ^ x23: .cfa -40 + ^ x24: .cfa -48 + ^ .ra: .cfa -56 + ^ x29: .cfa -64 + ^
STACK CFI 350a4 .cfa: sp 128 +
STACK CFI 350b8 .cfa: sp 0 +
STACK CFI 350bc .cfa: x29 64 +
STACK CFI INIT 3519c 1c .cfa: sp 0 +
STACK CFI 351a0 .cfa: sp 16 +
STACK CFI 351a4 .cfa: x29 16 + .ra: .cfa -8 + ^ x29: .cfa -16 + ^
STACK CFI 351ac .cfa: sp 16 +
STACK CFI 351b0 .cfa: sp 0 +
STACK CFI 351b4 .cfa: x29 16 +
STACK CFI INIT 351b8 1c0 .cfa: sp 0 +
STACK CFI 351bc .cfa: sp 112 +
STACK CFI 351cc .cfa: x29 48 + x19: .cfa -8 + ^ x20: .cfa -16 + ^ x21: .cfa -24 + ^ x22: .cfa -32 + ^ .ra: .cfa -40 + ^ x29: .cfa -48 + ^
STACK CFI 35210 .cfa: sp 112 +
STACK CFI 35220 .cfa: sp 0 +
STACK CFI 35224 .cfa: x29 48 +
STACK CFI INIT 353bc 74 .cfa: sp 0 +
STACK CFI 353c0 .cfa: sp 48 +
STACK CFI 353cc .cfa: x29 32 + x19: .cfa -8 + ^ x20: .cfa -16 + ^ .ra: .cfa -24 + ^ x29: .cfa -32 + ^
STACK CFI 35418 .cfa: sp 48 +
STACK CFI 35424 .cfa: sp 0 +
STACK CFI 35428 .cfa: x29 32 +
STACK CFI INIT 35510 1ac .cfa: sp 0 +
STACK CFI 35514 .cfa: sp 128 +
STACK CFI 35524 .cfa: x29 48 + x19: .cfa -8 + ^ x20: .cfa -16 + ^ x21: .cfa -32 + ^ .ra: .cfa -40 + ^ x29: .cfa -48 + ^
STACK CFI 35640 .cfa: sp 128 +
STACK CFI 35650 .cfa: sp 0 +
STACK CFI 35654 .cfa: x29 48 +
STACK CFI INIT 359b4 c0 .cfa: sp 0 +
STACK CFI 359b8 .cfa: sp 80 +
STACK CFI 359cc .cfa: x29 64 + x19: .cfa -8 + ^ x20: .cfa -16 + ^ x21: .cfa -24 + ^ x22: .cfa -32 + ^ x23: .cfa -48 + ^ .ra: .cfa -56 + ^ x29: .cfa -64 + ^
STACK CFI 35a54 .cfa: sp 80 +
STACK CFI 35a68 .cfa: sp 0 +
STACK CFI 35a6c .cfa: x29 64 +
STACK CFI INIT 35c34 1b8 .cfa: sp 0 +
STACK CFI 35c38 .cfa: sp 96 +
STACK CFI 35c48 .cfa: x29 48 + x19: .cfa -8 + ^ x20: .cfa -16 + ^ x21: .cfa -24 + ^ x22: .cfa -32 + ^ .ra: .cfa -40 + ^ x29: .cfa -48 + ^
STACK CFI 35c9c .cfa: sp 96 +
STACK CFI 35ca0 .cfa: x29 48 +
STACK CFI 35cb0 .cfa: sp 96 +
STACK CFI 35cc0 .cfa: sp 0 +
STACK CFI 35cc4 .cfa: x29 48 +
STACK CFI 35cf0 .cfa: sp 96 +
STACK CFI 35d00 .cfa: sp 0 +
STACK CFI 35d04 .cfa: x29 48 +
STACK CFI 35d20 .cfa: sp 96 +
STACK CFI 35d30 .cfa: sp 0 +
STACK CFI 35d34 .cfa: x29 48 +
STACK CFI INIT 35dec 1dc .cfa: sp 0 +
STACK CFI 35df0 .cfa: sp 160 +
STACK CFI 35e00 .cfa: x29 48 + x19: .cfa -8 + ^ x20: .cfa -16 + ^ x21: .cfa -32 + ^ .ra: .cfa -40 + ^ x29: .cfa -48 + ^
STACK CFI 35f08 .cfa: sp 160 +
STACK CFI 35f18 .cfa: sp 0 +
STACK CFI 35f1c .cfa: x29 48 +
STACK CFI INIT 35fc8 a8 .cfa: sp 0 +
STACK CFI 35fcc .cfa: sp 48 +
STACK CFI 35fd8 .cfa: x29 48 + x19: .cfa -8 + ^ x20: .cfa -16 + ^ x21: .cfa -24 + ^ x22: .cfa -32 + ^ .ra: .cfa -40 + ^ x29: .cfa -48 + ^
STACK CFI 36044 .cfa: sp 48 +
STACK CFI 36050 .cfa: sp 0 +
STACK CFI 36054 .cfa: x29 48 +
STACK CFI INIT 3609c 100 .cfa: sp 0 +
STACK CFI 360a0 .cfa: sp 48 +
STACK CFI 360ac .cfa: x29 48 + x19: .cfa -8 + ^ x20: .cfa -16 + ^ x21: .cfa -24 + ^ x22: .cfa -32 + ^ .ra: .cfa -40 + ^ x29: .cfa -48 + ^
STACK CFI 36170 .cfa: sp 48 +
STACK CFI 3617c .cfa: sp 0 +
STACK CFI 36180 .cfa: x29 48 +
STACK CFI INIT 3619c 144 .cfa: sp 0 +
STACK CFI 361a0 .cfa: sp 96 +
STACK CFI 361b8 .cfa: x29 96 + x19: .cfa -8 + ^ x20: .cfa -16 + ^ x21: .cfa -24 + ^ x22: .cfa -32 + ^ x23: .cfa -40 + ^ x24: .cfa -48 + ^ x25: .cfa -56 + ^ x26: .cfa -64 + ^ x27: .cfa -80 + ^ .ra: .cfa -88 + ^ x29: .cfa -96 + ^
STACK CFI 362a8 .cfa: sp 96 +
STACK CFI 362c0 .cfa: sp 0 +
STACK CFI 362c4 .cfa: x29 96 +
STACK CFI INIT 36358 150 .cfa: sp 0 +
STACK CFI 3635c .cfa: sp 96 +
STACK CFI 3636c .cfa: x29 48 + x19: .cfa -8 + ^ x20: .cfa -16 + ^ x21: .cfa -32 + ^ .ra: .cfa -40 + ^ x29: .cfa -48 + ^
STACK CFI 36444 .cfa: sp 96 +
STACK CFI 36454 .cfa: sp 0 +
STACK CFI 36458 .cfa: x29 48 +
STACK CFI INIT 364a8 108 .cfa: sp 0 +
STACK CFI 364ac .cfa: sp 96 +
STACK CFI 364bc .cfa: x29 48 + x19: .cfa -8 + ^ x20: .cfa -16 + ^ x21: .cfa -24 + ^ x22: .cfa -32 + ^ .ra: .cfa -40 + ^ x29: .cfa -48 + ^
STACK CFI 364ec .cfa: sp 96 +
STACK CFI 364fc .cfa: sp 0 +
STACK CFI 36500 .cfa: x29 48 +
STACK CFI INIT 365b0 a8 .cfa: sp 0 +
STACK CFI 365b4 .cfa: sp 48 +
STACK CFI 365c0 .cfa: x29 48 + x19: .cfa -8 + ^ x20: .cfa -16 + ^ x21: .cfa -32 + ^ .ra: .cfa -40 + ^ x29: .cfa -48 + ^
STACK CFI 3662c .cfa: sp 48 +
STACK CFI 36638 .cfa: sp 0 +
STACK CFI 3663c .cfa: x29 48 +
STACK CFI INIT 3666c 50 .cfa: sp 0 +
STACK CFI 36670 .cfa: sp 32 +
STACK CFI 36678 .cfa: x29 32 + x19: .cfa -8 + ^ x20: .cfa -16 + ^ .ra: .cfa -24 + ^ x29: .cfa -32 + ^
STACK CFI INIT 3681c 154 .cfa: sp 0 +
STACK CFI 36820 .cfa: sp 384 +
STACK CFI 36834 .cfa: x29 64 + x19: .cfa -8 + ^ x20: .cfa -16 + ^ x21: .cfa -24 + ^ x22: .cfa -32 + ^ x23: .cfa -40 + ^ x28: .cfa -48 + ^ .ra: .cfa -56 + ^ x29: .cfa -64 + ^
STACK CFI 36918 .cfa: sp 384 +
STACK CFI 3692c .cfa: sp 0 +
STACK CFI 36930 .cfa: x29 64 +
STACK CFI INIT 36970 168 .cfa: sp 0 +
STACK CFI 36974 .cfa: sp 384 +
STACK CFI 36988 .cfa: x29 64 + x19: .cfa -8 + ^ x20: .cfa -16 + ^ x21: .cfa -24 + ^ x22: .cfa -32 + ^ x23: .cfa -40 + ^ x28: .cfa -48 + ^ .ra: .cfa -56 + ^ x29: .cfa -64 + ^
STACK CFI 36a80 .cfa: sp 384 +
STACK CFI 36a94 .cfa: sp 0 +
STACK CFI 36a98 .cfa: x29 64 +
STACK CFI INIT 36af0 1c .cfa: sp 0 +
STACK CFI 36af4 .cfa: sp 16 +
STACK CFI 36af8 .cfa: x29 16 + .ra: .cfa -8 + ^ x29: .cfa -16 + ^
STACK CFI 36b00 .cfa: sp 16 +
STACK CFI 36b04 .cfa: sp 0 +
STACK CFI 36b08 .cfa: x29 16 +
STACK CFI INIT 36b0c 47c .cfa: sp 0 +
STACK CFI 36b10 .cfa: sp 144 +
STACK CFI 36b2c .cfa: x29 96 + x19: .cfa -8 + ^ x20: .cfa -16 + ^ x21: .cfa -24 + ^ x22: .cfa -32 + ^ x23: .cfa -40 + ^ x24: .cfa -48 + ^ x25: .cfa -56 + ^ x26: .cfa -64 + ^ x27: .cfa -80 + ^ .ra: .cfa -88 + ^ x29: .cfa -96 + ^
STACK CFI 36b74 .cfa: sp 144 +
STACK CFI 36b90 .cfa: sp 0 +
STACK CFI 36b94 .cfa: x29 96 +
STACK CFI 36f14 .cfa: sp 144 +
STACK CFI 36f30 .cfa: sp 0 +
STACK CFI 36f34 .cfa: x29 96 +
STACK CFI INIT 36f88 d8 .cfa: sp 0 +
STACK CFI 36f8c .cfa: sp 48 +
STACK CFI 36f98 .cfa: x29 48 + x19: .cfa -8 + ^ x20: .cfa -16 + ^ x21: .cfa -24 + ^ x22: .cfa -32 + ^ .ra: .cfa -40 + ^ x29: .cfa -48 + ^
STACK CFI 37038 .cfa: sp 48 +
STACK CFI 37044 .cfa: sp 0 +
STACK CFI 37048 .cfa: sp 48 +
STACK CFI 37054 .cfa: sp 0 +
STACK CFI 37058 .cfa: x29 48 +
STACK CFI INIT 37060 64 .cfa: sp 0 +
STACK CFI 37064 .cfa: sp 48 +
STACK CFI 37070 .cfa: x29 48 + x19: .cfa -8 + ^ x20: .cfa -16 + ^ x21: .cfa -32 + ^ .ra: .cfa -40 + ^ x29: .cfa -48 + ^
STACK CFI 370a0 .cfa: sp 48 +
STACK CFI 370ac .cfa: sp 0 +
STACK CFI 370b0 .cfa: sp 48 +
STACK CFI 370bc .cfa: sp 0 +
STACK CFI 370c0 .cfa: x29 48 +
STACK CFI INIT 370d8 58 .cfa: sp 0 +
STACK CFI 370dc .cfa: sp 32 +
STACK CFI 370e4 .cfa: x29 32 + x19: .cfa -8 + ^ x20: .cfa -16 + ^ .ra: .cfa -24 + ^ x29: .cfa -32 + ^
STACK CFI 37114 .cfa: sp 32 +
STACK CFI 3711c .cfa: sp 0 +
STACK CFI 37120 .cfa: sp 32 +
STACK CFI 37128 .cfa: sp 0 +
STACK CFI 3712c .cfa: x29 32 +
STACK CFI INIT 37130 11c .cfa: sp 0 +
STACK CFI 37134 .cfa: sp 64 +
STACK CFI 37144 .cfa: x29 64 + x19: .cfa -8 + ^ x20: .cfa -16 + ^ x21: .cfa -24 + ^ x22: .cfa -32 + ^ x23: .cfa -48 + ^ .ra: .cfa -56 + ^ x29: .cfa -64 + ^
STACK CFI 3722c .cfa: sp 64 +
STACK CFI 3723c .cfa: sp 0 +
STACK CFI 37240 .cfa: x29 64 +
STACK CFI INIT 3724c 60 .cfa: sp 0 +
STACK CFI 37250 .cfa: sp 32 +
STACK CFI 37258 .cfa: x29 32 + x19: .cfa -16 + ^ .ra: .cfa -24 + ^ x29: .cfa -32 + ^
STACK CFI 37290 .cfa: sp 32 +
STACK CFI 37298 .cfa: sp 0 +
STACK CFI 3729c .cfa: sp 32 +
STACK CFI 372a4 .cfa: sp 0 +
STACK CFI 372a8 .cfa: x29 32 +
STACK CFI INIT 372ac b0 .cfa: sp 0 +
STACK CFI 372b0 .cfa: sp 80 +
STACK CFI 372c4 .cfa: x29 64 + x19: .cfa -8 + ^ x20: .cfa -16 + ^ x21: .cfa -24 + ^ x22: .cfa -32 + ^ x23: .cfa -48 + ^ .ra: .cfa -56 + ^ x29: .cfa -64 + ^
STACK CFI 3733c .cfa: sp 80 +
STACK CFI 37350 .cfa: sp 0 +
STACK CFI 37354 .cfa: x29 64 +
STACK CFI INIT 374b8 380 .cfa: sp 0 +
STACK CFI 374bc .cfa: sp 144 +
STACK CFI 374d8 .cfa: x29 96 + x19: .cfa -8 + ^ x20: .cfa -16 + ^ x21: .cfa -24 + ^ x22: .cfa -32 + ^ x23: .cfa -40 + ^ x24: .cfa -48 + ^ x25: .cfa -56 + ^ x26: .cfa -64 + ^ x27: .cfa -80 + ^ .ra: .cfa -88 + ^ x29: .cfa -96 + ^
STACK CFI 377e0 .cfa: sp 144 +
STACK CFI 377fc .cfa: sp 0 +
STACK CFI 37800 .cfa: x29 96 +
STACK CFI INIT 37838 84 .cfa: sp 0 +
STACK CFI 3783c .cfa: sp 48 +
STACK CFI 37848 .cfa: x29 32 + x19: .cfa -8 + ^ x20: .cfa -16 + ^ .ra: .cfa -24 + ^ x29: .cfa -32 + ^
STACK CFI 378a4 .cfa: sp 48 +
STACK CFI 378b0 .cfa: sp 0 +
STACK CFI 378b4 .cfa: x29 32 +
STACK CFI INIT 378f4 74 .cfa: sp 0 +
STACK CFI 378f8 .cfa: sp 48 +
STACK CFI 37904 .cfa: x29 32 + x19: .cfa -8 + ^ x20: .cfa -16 + ^ .ra: .cfa -24 + ^ x29: .cfa -32 + ^
STACK CFI 37950 .cfa: sp 48 +
STACK CFI 3795c .cfa: sp 0 +
STACK CFI 37960 .cfa: x29 32 +
STACK CFI INIT 37968 90 .cfa: sp 0 +
STACK CFI 3796c .cfa: sp 64 +
STACK CFI 3797c .cfa: x29 48 + x19: .cfa -8 + ^ x20: .cfa -16 + ^ x21: .cfa -24 + ^ x22: .cfa -32 + ^ .ra: .cfa -40 + ^ x29: .cfa -48 + ^
STACK CFI 379dc .cfa: sp 64 +
STACK CFI 379ec .cfa: sp 0 +
STACK CFI 379f0 .cfa: x29 48 +
STACK CFI INIT 379f8 318 .cfa: sp 0 +
STACK CFI 379fc .cfa: sp 112 +
STACK CFI 37a14 .cfa: x29 80 + x19: .cfa -8 + ^ x20: .cfa -16 + ^ x21: .cfa -24 + ^ x22: .cfa -32 + ^ x23: .cfa -40 + ^ x24: .cfa -48 + ^ x25: .cfa -56 + ^ x26: .cfa -64 + ^ .ra: .cfa -72 + ^ x29: .cfa -80 + ^
STACK CFI 37ccc .cfa: sp 112 +
STACK CFI 37ce4 .cfa: sp 0 +
STACK CFI 37ce8 .cfa: x29 80 +
STACK CFI INIT 37db0 90 .cfa: sp 0 +
STACK CFI 37db4 .cfa: sp 32 +
STACK CFI 37dbc .cfa: x29 32 + x19: .cfa -8 + ^ x20: .cfa -16 + ^ .ra: .cfa -24 + ^ x29: .cfa -32 + ^
STACK CFI 37e20 .cfa: sp 32 +
STACK CFI 37e28 .cfa: sp 0 +
STACK CFI 37e2c .cfa: x29 32 +
STACK CFI INIT 37f48 234 .cfa: sp 0 +
STACK CFI 37f4c .cfa: sp 128 +
STACK CFI 37f64 .cfa: x29 80 + x19: .cfa -8 + ^ x20: .cfa -16 + ^ x21: .cfa -24 + ^ x22: .cfa -32 + ^ x23: .cfa -40 + ^ x24: .cfa -48 + ^ x25: .cfa -64 + ^ .ra: .cfa -72 + ^ x29: .cfa -80 + ^
STACK CFI 380dc .cfa: sp 128 +
STACK CFI 380f4 .cfa: sp 0 +
STACK CFI 380f8 .cfa: x29 80 +
STACK CFI INIT 381a4 ec .cfa: sp 0 +
STACK CFI 381a8 .cfa: sp 80 +
STACK CFI 381bc .cfa: x29 64 + x19: .cfa -8 + ^ x20: .cfa -16 + ^ x21: .cfa -24 + ^ x22: .cfa -32 + ^ x23: .cfa -48 + ^ .ra: .cfa -56 + ^ x29: .cfa -64 + ^
STACK CFI 38270 .cfa: sp 80 +
STACK CFI 38284 .cfa: sp 0 +
STACK CFI 38288 .cfa: x29 64 +
STACK CFI INIT 38290 f4 .cfa: sp 0 +
STACK CFI 38294 .cfa: sp 80 +
STACK CFI 382a8 .cfa: x29 64 + x19: .cfa -8 + ^ x20: .cfa -16 + ^ x21: .cfa -24 + ^ x22: .cfa -32 + ^ x23: .cfa -48 + ^ .ra: .cfa -56 + ^ x29: .cfa -64 + ^
STACK CFI 38364 .cfa: sp 80 +
STACK CFI 38378 .cfa: sp 0 +
STACK CFI 3837c .cfa: x29 64 +
STACK CFI INIT 38384 e0 .cfa: sp 0 +
STACK CFI 38388 .cfa: sp 48 +
STACK CFI 38394 .cfa: x29 48 + x19: .cfa -8 + ^ x20: .cfa -16 + ^ x21: .cfa -32 + ^ .ra: .cfa -40 + ^ x29: .cfa -48 + ^
STACK CFI 38408 .cfa: sp 48 +
STACK CFI 38414 .cfa: sp 0 +
STACK CFI 38418 .cfa: x29 48 +
STACK CFI INIT 38464 d0 .cfa: sp 0 +
STACK CFI 38468 .cfa: sp 48 +
STACK CFI 38474 .cfa: x29 48 + x19: .cfa -8 + ^ x20: .cfa -16 + ^ x21: .cfa -32 + ^ .ra: .cfa -40 + ^ x29: .cfa -48 + ^
STACK CFI 384e8 .cfa: sp 48 +
STACK CFI 384f4 .cfa: sp 0 +
STACK CFI 384f8 .cfa: x29 48 +
STACK CFI INIT 38534 e0 .cfa: sp 0 +
STACK CFI 38538 .cfa: sp 80 +
STACK CFI 3854c .cfa: x29 64 + x19: .cfa -8 + ^ x20: .cfa -16 + ^ x21: .cfa -24 + ^ x22: .cfa -32 + ^ x23: .cfa -48 + ^ .ra: .cfa -56 + ^ x29: .cfa -64 + ^
STACK CFI 385f4 .cfa: sp 80 +
STACK CFI 38608 .cfa: sp 0 +
STACK CFI 3860c .cfa: x29 64 +
STACK CFI INIT 38614 e8 .cfa: sp 0 +
STACK CFI 38618 .cfa: sp 80 +
STACK CFI 3862c .cfa: x29 64 + x19: .cfa -8 + ^ x20: .cfa -16 + ^ x21: .cfa -24 + ^ x22: .cfa -32 + ^ x23: .cfa -48 + ^ .ra: .cfa -56 + ^ x29: .cfa -64 + ^
STACK CFI 386dc .cfa: sp 80 +
STACK CFI 386f0 .cfa: sp 0 +
STACK CFI 386f4 .cfa: x29 64 +
STACK CFI INIT 386fc 434 .cfa: sp 0 +
STACK CFI 38700 .cfa: sp 256 +
STACK CFI 38718 .cfa: x29 80 + x19: .cfa -8 + ^ x20: .cfa -16 + ^ x21: .cfa -24 + ^ x22: .cfa -32 + ^ x23: .cfa -40 + ^ x24: .cfa -48 + ^ x25: .cfa -64 + ^ .ra: .cfa -72 + ^ x29: .cfa -80 + ^
STACK CFI 389dc .cfa: sp 256 +
STACK CFI 389f4 .cfa: sp 0 +
STACK CFI 389f8 .cfa: x29 80 +
STACK CFI INIT 38b58 250 .cfa: sp 0 +
STACK CFI 38b5c .cfa: sp 144 +
STACK CFI 38b78 .cfa: x29 96 + x19: .cfa -8 + ^ x20: .cfa -16 + ^ x21: .cfa -24 + ^ x22: .cfa -32 + ^ x23: .cfa -40 + ^ x24: .cfa -48 + ^ x25: .cfa -56 + ^ x26: .cfa -64 + ^ x27: .cfa -80 + ^ .ra: .cfa -88 + ^ x29: .cfa -96 + ^
STACK CFI 38ce0 .cfa: sp 144 +
STACK CFI 38cfc .cfa: sp 0 +
STACK CFI 38d00 .cfa: x29 96 +
STACK CFI INIT 391d0 15c .cfa: sp 0 +
STACK CFI 391d4 .cfa: sp 80 +
STACK CFI 391e0 .cfa: x29 32 + x19: .cfa -8 + ^ x20: .cfa -16 + ^ .ra: .cfa -24 + ^ x29: .cfa -32 + ^
STACK CFI 39254 .cfa: sp 80 +
STACK CFI 39258 .cfa: x29 32 +
STACK CFI 392ac .cfa: sp 80 +
STACK CFI 392b8 .cfa: sp 0 +
STACK CFI 392bc .cfa: x29 32 +
STACK CFI 392e8 .cfa: sp 80 +
STACK CFI 392f4 .cfa: sp 0 +
STACK CFI 392f8 .cfa: x29 32 +
STACK CFI 39314 .cfa: sp 80 +
STACK CFI 39320 .cfa: sp 0 +
STACK CFI 39324 .cfa: x29 32 +
STACK CFI INIT 3932c a8 .cfa: sp 0 +
STACK CFI 39330 .cfa: sp 64 +
STACK CFI 39340 .cfa: x29 48 + x19: .cfa -8 + ^ x20: .cfa -16 + ^ x21: .cfa -32 + ^ .ra: .cfa -40 + ^ x29: .cfa -48 + ^
STACK CFI 393b8 .cfa: sp 64 +
STACK CFI 393c8 .cfa: sp 0 +
STACK CFI 393cc .cfa: x29 48 +
STACK CFI INIT 393d4 2d8 .cfa: sp 0 +
STACK CFI 393d8 .cfa: sp 128 +
STACK CFI 393f0 .cfa: x29 80 + x19: .cfa -8 + ^ x20: .cfa -16 + ^ x21: .cfa -24 + ^ x22: .cfa -32 + ^ x23: .cfa -40 + ^ x24: .cfa -48 + ^ x25: .cfa -64 + ^ .ra: .cfa -72 + ^ x29: .cfa -80 + ^
STACK CFI 3961c .cfa: sp 128 +
STACK CFI 39634 .cfa: sp 0 +
STACK CFI 39638 .cfa: x29 80 +
STACK CFI INIT 397b4 90 .cfa: sp 0 +
STACK CFI 397b8 .cfa: sp 32 +
STACK CFI 397c0 .cfa: x29 32 + x19: .cfa -8 + ^ x20: .cfa -16 + ^ .ra: .cfa -24 + ^ x29: .cfa -32 + ^
STACK CFI 39824 .cfa: sp 32 +
STACK CFI 3982c .cfa: sp 0 +
STACK CFI 39830 .cfa: x29 32 +
STACK CFI INIT 3994c 234 .cfa: sp 0 +
STACK CFI 39950 .cfa: sp 128 +
STACK CFI 39968 .cfa: x29 80 + x19: .cfa -8 + ^ x20: .cfa -16 + ^ x21: .cfa -24 + ^ x22: .cfa -32 + ^ x23: .cfa -40 + ^ x24: .cfa -48 + ^ x25: .cfa -64 + ^ .ra: .cfa -72 + ^ x29: .cfa -80 + ^
STACK CFI 39ae0 .cfa: sp 128 +
STACK CFI 39af8 .cfa: sp 0 +
STACK CFI 39afc .cfa: x29 80 +
STACK CFI INIT 39ba8 ec .cfa: sp 0 +
STACK CFI 39bac .cfa: sp 80 +
STACK CFI 39bc0 .cfa: x29 64 + x19: .cfa -8 + ^ x20: .cfa -16 + ^ x21: .cfa -24 + ^ x22: .cfa -32 + ^ x23: .cfa -48 + ^ .ra: .cfa -56 + ^ x29: .cfa -64 + ^
STACK CFI 39c74 .cfa: sp 80 +
STACK CFI 39c88 .cfa: sp 0 +
STACK CFI 39c8c .cfa: x29 64 +
STACK CFI INIT 39c94 f4 .cfa: sp 0 +
STACK CFI 39c98 .cfa: sp 80 +
STACK CFI 39cac .cfa: x29 64 + x19: .cfa -8 + ^ x20: .cfa -16 + ^ x21: .cfa -24 + ^ x22: .cfa -32 + ^ x23: .cfa -48 + ^ .ra: .cfa -56 + ^ x29: .cfa -64 + ^
STACK CFI 39d68 .cfa: sp 80 +
STACK CFI 39d7c .cfa: sp 0 +
STACK CFI 39d80 .cfa: x29 64 +
STACK CFI INIT 39d88 e0 .cfa: sp 0 +
STACK CFI 39d8c .cfa: sp 48 +
STACK CFI 39d98 .cfa: x29 48 + x19: .cfa -8 + ^ x20: .cfa -16 + ^ x21: .cfa -32 + ^ .ra: .cfa -40 + ^ x29: .cfa -48 + ^
STACK CFI 39e0c .cfa: sp 48 +
STACK CFI 39e18 .cfa: sp 0 +
STACK CFI 39e1c .cfa: x29 48 +
STACK CFI INIT 39e68 d0 .cfa: sp 0 +
STACK CFI 39e6c .cfa: sp 48 +
STACK CFI 39e78 .cfa: x29 48 + x19: .cfa -8 + ^ x20: .cfa -16 + ^ x21: .cfa -32 + ^ .ra: .cfa -40 + ^ x29: .cfa -48 + ^
STACK CFI 39eec .cfa: sp 48 +
STACK CFI 39ef8 .cfa: sp 0 +
STACK CFI 39efc .cfa: x29 48 +
STACK CFI INIT 39f38 e0 .cfa: sp 0 +
STACK CFI 39f3c .cfa: sp 80 +
STACK CFI 39f50 .cfa: x29 64 + x19: .cfa -8 + ^ x20: .cfa -16 + ^ x21: .cfa -24 + ^ x22: .cfa -32 + ^ x23: .cfa -48 + ^ .ra: .cfa -56 + ^ x29: .cfa -64 + ^
STACK CFI 39ff8 .cfa: sp 80 +
STACK CFI 3a00c .cfa: sp 0 +
STACK CFI 3a010 .cfa: x29 64 +
STACK CFI INIT 3a018 e8 .cfa: sp 0 +
STACK CFI 3a01c .cfa: sp 80 +
STACK CFI 3a030 .cfa: x29 64 + x19: .cfa -8 + ^ x20: .cfa -16 + ^ x21: .cfa -24 + ^ x22: .cfa -32 + ^ x23: .cfa -48 + ^ .ra: .cfa -56 + ^ x29: .cfa -64 + ^
STACK CFI 3a0e0 .cfa: sp 80 +
STACK CFI 3a0f4 .cfa: sp 0 +
STACK CFI 3a0f8 .cfa: x29 64 +
STACK CFI INIT 3a100 434 .cfa: sp 0 +
STACK CFI 3a104 .cfa: sp 256 +
STACK CFI 3a11c .cfa: x29 80 + x19: .cfa -8 + ^ x20: .cfa -16 + ^ x21: .cfa -24 + ^ x22: .cfa -32 + ^ x23: .cfa -40 + ^ x24: .cfa -48 + ^ x25: .cfa -64 + ^ .ra: .cfa -72 + ^ x29: .cfa -80 + ^
STACK CFI 3a3e0 .cfa: sp 256 +
STACK CFI 3a3f8 .cfa: sp 0 +
STACK CFI 3a3fc .cfa: x29 80 +
STACK CFI INIT 3a55c 2cc .cfa: sp 0 +
STACK CFI 3a560 .cfa: sp 64 +
STACK CFI 3a570 .cfa: x29 64 + x19: .cfa -8 + ^ x20: .cfa -16 + ^ x21: .cfa -24 + ^ x22: .cfa -32 + ^ x23: .cfa -40 + ^ x24: .cfa -48 + ^ .ra: .cfa -56 + ^ x29: .cfa -64 + ^
STACK CFI 3a800 .cfa: sp 64 +
STACK CFI 3a810 .cfa: sp 0 +
STACK CFI 3a814 .cfa: x29 64 +
STACK CFI INIT 3aa60 54 .cfa: sp 0 +
STACK CFI 3aa64 .cfa: sp 32 +
STACK CFI 3aa6c .cfa: x29 32 + x19: .cfa -8 + ^ x20: .cfa -16 + ^ .ra: .cfa -24 + ^ x29: .cfa -32 + ^
STACK CFI 3aa94 .cfa: sp 32 +
STACK CFI 3aa9c .cfa: sp 0 +
STACK CFI 3aaa0 .cfa: x29 32 +
STACK CFI INIT 3ab94 77c .cfa: sp 0 +
STACK CFI 3ab98 .cfa: sp 272 +
STACK CFI 3abb4 .cfa: x29 96 + x19: .cfa -8 + ^ x20: .cfa -16 + ^ x21: .cfa -24 + ^ x22: .cfa -32 + ^ x23: .cfa -40 + ^ x24: .cfa -48 + ^ x25: .cfa -56 + ^ x26: .cfa -64 + ^ x27: .cfa -72 + ^ x28: .cfa -80 + ^ .ra: .cfa -88 + ^ x29: .cfa -96 + ^
STACK CFI 3b008 .cfa: sp 272 +
STACK CFI 3b024 .cfa: sp 0 +
STACK CFI 3b028 .cfa: x29 96 +
STACK CFI INIT 3b338 124 .cfa: sp 0 +
STACK CFI 3b33c .cfa: sp 64 +
STACK CFI 3b34c .cfa: x29 64 + x19: .cfa -8 + ^ x20: .cfa -16 + ^ x21: .cfa -24 + ^ x22: .cfa -32 + ^ x23: .cfa -48 + ^ .ra: .cfa -56 + ^ x29: .cfa -64 + ^
STACK CFI 3b3f0 .cfa: sp 64 +
STACK CFI 3b400 .cfa: sp 0 +
STACK CFI 3b404 .cfa: x29 64 +
STACK CFI INIT 3b4fc 98 .cfa: sp 0 +
STACK CFI 3b500 .cfa: sp 32 +
STACK CFI 3b508 .cfa: x29 32 + x19: .cfa -8 + ^ x20: .cfa -16 + ^ .ra: .cfa -24 + ^ x29: .cfa -32 + ^
STACK CFI 3b574 .cfa: sp 32 +
STACK CFI 3b57c .cfa: sp 0 +
STACK CFI 3b580 .cfa: x29 32 +
STACK CFI INIT 3b6a0 164 .cfa: sp 0 +
STACK CFI 3b6a4 .cfa: sp 192 +
STACK CFI 3b6b0 .cfa: x29 32 + x19: .cfa -8 + ^ x20: .cfa -16 + ^ .ra: .cfa -24 + ^ x29: .cfa -32 + ^
STACK CFI 3b76c .cfa: sp 192 +
STACK CFI 3b778 .cfa: sp 0 +
STACK CFI 3b77c .cfa: x29 32 +
STACK CFI INIT 3b82c ec .cfa: sp 0 +
STACK CFI 3b830 .cfa: sp 80 +
STACK CFI 3b844 .cfa: x29 64 + x19: .cfa -8 + ^ x20: .cfa -16 + ^ x21: .cfa -24 + ^ x22: .cfa -32 + ^ x23: .cfa -48 + ^ .ra: .cfa -56 + ^ x29: .cfa -64 + ^
STACK CFI 3b8f8 .cfa: sp 80 +
STACK CFI 3b90c .cfa: sp 0 +
STACK CFI 3b910 .cfa: x29 64 +
STACK CFI INIT 3b918 f4 .cfa: sp 0 +
STACK CFI 3b91c .cfa: sp 80 +
STACK CFI 3b930 .cfa: x29 64 + x19: .cfa -8 + ^ x20: .cfa -16 + ^ x21: .cfa -24 + ^ x22: .cfa -32 + ^ x23: .cfa -48 + ^ .ra: .cfa -56 + ^ x29: .cfa -64 + ^
STACK CFI 3b9ec .cfa: sp 80 +
STACK CFI 3ba00 .cfa: sp 0 +
STACK CFI 3ba04 .cfa: x29 64 +
STACK CFI INIT 3ba0c e8 .cfa: sp 0 +
STACK CFI 3ba10 .cfa: sp 48 +
STACK CFI 3ba1c .cfa: x29 48 + x19: .cfa -8 + ^ x20: .cfa -16 + ^ x21: .cfa -32 + ^ .ra: .cfa -40 + ^ x29: .cfa -48 + ^
STACK CFI 3ba98 .cfa: sp 48 +
STACK CFI 3baa4 .cfa: sp 0 +
STACK CFI 3baa8 .cfa: x29 48 +
STACK CFI INIT 3baf4 d8 .cfa: sp 0 +
STACK CFI 3baf8 .cfa: sp 48 +
STACK CFI 3bb04 .cfa: x29 48 + x19: .cfa -8 + ^ x20: .cfa -16 + ^ x21: .cfa -32 + ^ .ra: .cfa -40 + ^ x29: .cfa -48 + ^
STACK CFI 3bb80 .cfa: sp 48 +
STACK CFI 3bb8c .cfa: sp 0 +
STACK CFI 3bb90 .cfa: x29 48 +
STACK CFI INIT 3bbcc e0 .cfa: sp 0 +
STACK CFI 3bbd0 .cfa: sp 80 +
STACK CFI 3bbe4 .cfa: x29 64 + x19: .cfa -8 + ^ x20: .cfa -16 + ^ x21: .cfa -24 + ^ x22: .cfa -32 + ^ x23: .cfa -48 + ^ .ra: .cfa -56 + ^ x29: .cfa -64 + ^
STACK CFI 3bc8c .cfa: sp 80 +
STACK CFI 3bca0 .cfa: sp 0 +
STACK CFI 3bca4 .cfa: x29 64 +
STACK CFI INIT 3bcac e8 .cfa: sp 0 +
STACK CFI 3bcb0 .cfa: sp 80 +
STACK CFI 3bcc4 .cfa: x29 64 + x19: .cfa -8 + ^ x20: .cfa -16 + ^ x21: .cfa -24 + ^ x22: .cfa -32 + ^ x23: .cfa -48 + ^ .ra: .cfa -56 + ^ x29: .cfa -64 + ^
STACK CFI 3bd74 .cfa: sp 80 +
STACK CFI 3bd88 .cfa: sp 0 +
STACK CFI 3bd8c .cfa: x29 64 +
STACK CFI INIT 3bd94 360 .cfa: sp 0 +
STACK CFI 3bd98 .cfa: sp 288 +
STACK CFI 3bdac .cfa: x29 64 + x19: .cfa -8 + ^ x20: .cfa -16 + ^ x21: .cfa -24 + ^ x22: .cfa -32 + ^ x28: .cfa -48 + ^ .ra: .cfa -56 + ^ x29: .cfa -64 + ^
STACK CFI 3bfe4 .cfa: sp 288 +
STACK CFI 3bff8 .cfa: sp 0 +
STACK CFI 3bffc .cfa: x29 64 +
STACK CFI INIT 3c19c 3fc .cfa: sp 0 +
STACK CFI 3c1a0 .cfa: sp 144 +
STACK CFI 3c1bc .cfa: x29 96 + x19: .cfa -8 + ^ x20: .cfa -16 + ^ x21: .cfa -24 + ^ x22: .cfa -32 + ^ x23: .cfa -40 + ^ x24: .cfa -48 + ^ x25: .cfa -56 + ^ x26: .cfa -64 + ^ x27: .cfa -72 + ^ x28: .cfa -80 + ^ .ra: .cfa -88 + ^ x29: .cfa -96 + ^
STACK CFI 3c530 .cfa: sp 144 +
STACK CFI 3c54c .cfa: sp 0 +
STACK CFI 3c550 .cfa: x29 96 +
STACK CFI INIT 3cd38 c08 .cfa: sp 0 +
STACK CFI 3cd3c .cfa: sp 96 +
STACK CFI 3cd54 .cfa: x29 80 + x19: .cfa -8 + ^ x20: .cfa -16 + ^ x21: .cfa -24 + ^ x22: .cfa -32 + ^ x23: .cfa -40 + ^ x24: .cfa -48 + ^ x25: .cfa -56 + ^ x26: .cfa -64 + ^ .ra: .cfa -72 + ^ x29: .cfa -80 + ^
STACK CFI 3cf4c .cfa: sp 96 +
STACK CFI 3cf64 .cfa: sp 0 +
STACK CFI 3cf68 .cfa: x29 80 +
STACK CFI INIT 3dc78 18b8 .cfa: sp 0 +
STACK CFI 3dc7c .cfa: sp 288 +
STACK CFI 3dc98 .cfa: x29 96 + x19: .cfa -8 + ^ x20: .cfa -16 + ^ x21: .cfa -24 + ^ x22: .cfa -32 + ^ x23: .cfa -40 + ^ x24: .cfa -48 + ^ x25: .cfa -56 + ^ x26: .cfa -64 + ^ x27: .cfa -72 + ^ x28: .cfa -80 + ^ .ra: .cfa -88 + ^ x29: .cfa -96 + ^
STACK CFI 3eda8 .cfa: sp 288 +
STACK CFI 3edc4 .cfa: sp 0 +
STACK CFI 3edc8 .cfa: x29 96 +
STACK CFI INIT 3f580 e0 .cfa: sp 0 +
STACK CFI 3f584 .cfa: sp 80 +
STACK CFI 3f594 .cfa: x29 48 + x19: .cfa -8 + ^ x20: .cfa -16 + ^ x21: .cfa -24 + ^ x22: .cfa -32 + ^ .ra: .cfa -40 + ^ x29: .cfa -48 + ^
STACK CFI 3f5c8 .cfa: sp 80 +
STACK CFI 3f5d8 .cfa: sp 0 +
STACK CFI 3f5dc .cfa: x29 48 +
STACK CFI INIT 3f660 4dc .cfa: sp 0 +
STACK CFI 3f664 .cfa: sp 240 +
STACK CFI 3f67c .cfa: x29 80 + x19: .cfa -8 + ^ x20: .cfa -16 + ^ x21: .cfa -24 + ^ x22: .cfa -32 + ^ x23: .cfa -40 + ^ x24: .cfa -48 + ^ x25: .cfa -56 + ^ x26: .cfa -64 + ^ .ra: .cfa -72 + ^ x29: .cfa -80 + ^
STACK CFI 3f9d0 .cfa: sp 240 +
STACK CFI 3f9e8 .cfa: sp 0 +
STACK CFI 3f9ec .cfa: x29 80 +
STACK CFI INIT 3fb3c 46c .cfa: sp 0 +
STACK CFI 3fb40 .cfa: sp 128 +
STACK CFI 3fb54 .cfa: x29 64 + x19: .cfa -8 + ^ x20: .cfa -16 + ^ x21: .cfa -24 + ^ x22: .cfa -32 + ^ x23: .cfa -48 + ^ .ra: .cfa -56 + ^ x29: .cfa -64 + ^
STACK CFI 3ff08 .cfa: sp 128 +
STACK CFI 3ff1c .cfa: sp 0 +
STACK CFI 3ff20 .cfa: x29 64 +
STACK CFI INIT 3ffd8 8c .cfa: sp 0 +
STACK CFI 3ffdc .cfa: sp 32 +
STACK CFI 3ffe4 .cfa: x29 32 + x19: .cfa -16 + ^ .ra: .cfa -24 + ^ x29: .cfa -32 + ^
STACK CFI 40048 .cfa: sp 32 +
STACK CFI 40050 .cfa: sp 0 +
STACK CFI 40054 .cfa: sp 32 +
STACK CFI 4005c .cfa: sp 0 +
STACK CFI 40060 .cfa: x29 32 +
STACK CFI INIT 40064 1840 .cfa: sp 0 +
STACK CFI 40068 .cfa: sp 304 +
STACK CFI 40088 .cfa: x29 96 + x19: .cfa -8 + ^ x20: .cfa -16 + ^ x21: .cfa -24 + ^ x22: .cfa -32 + ^ x23: .cfa -40 + ^ x24: .cfa -48 + ^ x25: .cfa -56 + ^ x26: .cfa -64 + ^ x27: .cfa -72 + ^ x28: .cfa -80 + ^ .ra: .cfa -88 + ^ x29: .cfa -96 + ^ v8: .cfa -112 + ^
STACK CFI 41138 .cfa: sp 304 +
STACK CFI 41158 .cfa: sp 0 +
STACK CFI 4115c .cfa: x29 96 +
STACK CFI INIT 41a08 528 .cfa: sp 0 +
STACK CFI 41a0c .cfa: sp 128 +
STACK CFI 41a20 .cfa: x29 64 + x19: .cfa -8 + ^ x20: .cfa -16 + ^ x21: .cfa -24 + ^ x22: .cfa -32 + ^ x23: .cfa -48 + ^ .ra: .cfa -56 + ^ x29: .cfa -64 + ^
STACK CFI 41d64 .cfa: sp 128 +
STACK CFI 41d78 .cfa: sp 0 +
STACK CFI 41d7c .cfa: x29 64 +
STACK CFI INIT 41f30 24c .cfa: sp 0 +
STACK CFI 41f34 .cfa: sp 112 +
STACK CFI 41f44 .cfa: x29 48 + x19: .cfa -8 + ^ x20: .cfa -16 + ^ x21: .cfa -24 + ^ x22: .cfa -32 + ^ .ra: .cfa -40 + ^ x29: .cfa -48 + ^
STACK CFI 420e0 .cfa: sp 112 +
STACK CFI 420f0 .cfa: sp 0 +
STACK CFI 420f4 .cfa: x29 48 +
STACK CFI INIT 4217c 18c .cfa: sp 0 +
STACK CFI 42180 .cfa: sp 80 +
STACK CFI 42190 .cfa: x29 48 + x19: .cfa -8 + ^ x20: .cfa -16 + ^ x21: .cfa -24 + ^ x22: .cfa -32 + ^ .ra: .cfa -40 + ^ x29: .cfa -48 + ^
STACK CFI 422d4 .cfa: sp 80 +
STACK CFI 422e4 .cfa: sp 0 +
STACK CFI 422e8 .cfa: x29 48 +
STACK CFI INIT 42358 1e0 .cfa: sp 0 +
STACK CFI 4235c .cfa: sp 160 +
STACK CFI 4236c .cfa: x29 48 + x19: .cfa -8 + ^ x20: .cfa -16 + ^ x21: .cfa -32 + ^ .ra: .cfa -40 + ^ x29: .cfa -48 + ^
STACK CFI 42478 .cfa: sp 160 +
STACK CFI 42488 .cfa: sp 0 +
STACK CFI 4248c .cfa: x29 48 +
STACK CFI INIT 42538 c4 .cfa: sp 0 +
STACK CFI 4253c .cfa: sp 48 +
STACK CFI 42548 .cfa: x29 48 + x19: .cfa -8 + ^ x20: .cfa -16 + ^ x21: .cfa -32 + ^ .ra: .cfa -40 + ^ x29: .cfa -48 + ^
STACK CFI 425d0 .cfa: sp 48 +
STACK CFI 425dc .cfa: sp 0 +
STACK CFI 425e0 .cfa: x29 48 +
STACK CFI INIT 425fc 1e8 .cfa: sp 0 +
STACK CFI 42600 .cfa: sp 112 +
STACK CFI 42610 .cfa: x29 48 + x19: .cfa -8 + ^ x20: .cfa -16 + ^ x21: .cfa -24 + ^ x22: .cfa -32 + ^ .ra: .cfa -40 + ^ x29: .cfa -48 + ^
STACK CFI 4279c .cfa: sp 112 +
STACK CFI 427ac .cfa: sp 0 +
STACK CFI 427b0 .cfa: x29 48 +
STACK CFI INIT 427e4 1e0 .cfa: sp 0 +
STACK CFI 427e8 .cfa: sp 160 +
STACK CFI 427f8 .cfa: x29 48 + x19: .cfa -8 + ^ x20: .cfa -16 + ^ x21: .cfa -32 + ^ .ra: .cfa -40 + ^ x29: .cfa -48 + ^
STACK CFI 42904 .cfa: sp 160 +
STACK CFI 42914 .cfa: sp 0 +
STACK CFI 42918 .cfa: x29 48 +
STACK CFI INIT 429c4 11c .cfa: sp 0 +
STACK CFI 429c8 .cfa: sp 64 +
STACK CFI 429d8 .cfa: x29 64 + x19: .cfa -8 + ^ x20: .cfa -16 + ^ x21: .cfa -24 + ^ x22: .cfa -32 + ^ x23: .cfa -48 + ^ .ra: .cfa -56 + ^ x29: .cfa -64 + ^
STACK CFI 42ac0 .cfa: sp 64 +
STACK CFI 42ad0 .cfa: sp 0 +
STACK CFI 42ad4 .cfa: x29 64 +
STACK CFI INIT 42b2c 1d0 .cfa: sp 0 +
STACK CFI 42b30 .cfa: sp 160 +
STACK CFI 42b40 .cfa: x29 48 + x19: .cfa -8 + ^ x20: .cfa -16 + ^ x21: .cfa -24 + ^ x22: .cfa -32 + ^ .ra: .cfa -40 + ^ x29: .cfa -48 + ^
STACK CFI 42c3c .cfa: sp 160 +
STACK CFI 42c4c .cfa: sp 0 +
STACK CFI 42c50 .cfa: x29 48 +
STACK CFI INIT 42d34 1d8 .cfa: sp 0 +
STACK CFI 42d38 .cfa: sp 160 +
STACK CFI 42d48 .cfa: x29 48 + x19: .cfa -8 + ^ x20: .cfa -16 + ^ x21: .cfa -24 + ^ x22: .cfa -32 + ^ .ra: .cfa -40 + ^ x29: .cfa -48 + ^
STACK CFI 42e4c .cfa: sp 160 +
STACK CFI 42e5c .cfa: sp 0 +
STACK CFI 42e60 .cfa: x29 48 +
STACK CFI INIT 42f0c a8 .cfa: sp 0 +
STACK CFI 42f10 .cfa: sp 48 +
STACK CFI 42f1c .cfa: x29 48 + x19: .cfa -8 + ^ x20: .cfa -16 + ^ x21: .cfa -32 + ^ .ra: .cfa -40 + ^ x29: .cfa -48 + ^
STACK CFI 42f88 .cfa: sp 48 +
STACK CFI 42f94 .cfa: sp 0 +
STACK CFI 42f98 .cfa: x29 48 +
STACK CFI INIT 42fb4 120 .cfa: sp 0 +
STACK CFI 42fb8 .cfa: sp 112 +
STACK CFI 42fcc .cfa: x29 64 + x19: .cfa -8 + ^ x20: .cfa -16 + ^ x21: .cfa -24 + ^ x22: .cfa -32 + ^ x23: .cfa -40 + ^ x24: .cfa -48 + ^ .ra: .cfa -56 + ^ x29: .cfa -64 + ^
STACK CFI 43094 .cfa: sp 112 +
STACK CFI 430a8 .cfa: sp 0 +
STACK CFI 430ac .cfa: x29 64 +
STACK CFI INIT 431d8 5c .cfa: sp 0 +
STACK CFI 431dc .cfa: sp 32 +
STACK CFI 431e4 .cfa: x29 32 + x19: .cfa -16 + ^ .ra: .cfa -24 + ^ x29: .cfa -32 + ^
STACK CFI 43218 .cfa: sp 32 +
STACK CFI 43220 .cfa: sp 0 +
STACK CFI 43224 .cfa: sp 32 +
STACK CFI 4322c .cfa: sp 0 +
STACK CFI 43230 .cfa: x29 32 +
STACK CFI INIT 4327c 1fc .cfa: sp 0 +
STACK CFI 43280 .cfa: sp 96 +
STACK CFI 4328c .cfa: x29 32 + x19: .cfa -8 + ^ x20: .cfa -16 + ^ .ra: .cfa -24 + ^ x29: .cfa -32 + ^
STACK CFI 43420 .cfa: sp 96 +
STACK CFI 4342c .cfa: sp 0 +
STACK CFI 43430 .cfa: x29 32 +
STACK CFI INIT 435f0 2b4 .cfa: sp 0 +
STACK CFI 435f4 .cfa: sp 144 +
STACK CFI 43608 .cfa: x29 64 + x19: .cfa -8 + ^ x20: .cfa -16 + ^ x21: .cfa -24 + ^ x22: .cfa -32 + ^ x23: .cfa -40 + ^ x24: .cfa -48 + ^ .ra: .cfa -56 + ^ x29: .cfa -64 + ^
STACK CFI 43824 .cfa: sp 144 +
STACK CFI 43838 .cfa: sp 0 +
STACK CFI 4383c .cfa: x29 64 +
STACK CFI INIT 438a4 218 .cfa: sp 0 +
STACK CFI 438a8 .cfa: sp 128 +
STACK CFI 438c0 .cfa: x29 80 + x19: .cfa -8 + ^ x20: .cfa -16 + ^ x21: .cfa -24 + ^ x22: .cfa -32 + ^ x23: .cfa -40 + ^ x24: .cfa -48 + ^ x25: .cfa -64 + ^ .ra: .cfa -72 + ^ x29: .cfa -80 + ^
STACK CFI 43a68 .cfa: sp 128 +
STACK CFI 43a80 .cfa: sp 0 +
STACK CFI 43a84 .cfa: x29 80 +
STACK CFI INIT 43bb8 a8 .cfa: sp 0 +
STACK CFI 43bbc .cfa: sp 48 +
STACK CFI 43bc8 .cfa: x29 48 + x19: .cfa -8 + ^ x20: .cfa -16 + ^ x21: .cfa -32 + ^ .ra: .cfa -40 + ^ x29: .cfa -48 + ^
STACK CFI 43c34 .cfa: sp 48 +
STACK CFI 43c40 .cfa: sp 0 +
STACK CFI 43c44 .cfa: x29 48 +
STACK CFI INIT 43c60 e4 .cfa: sp 0 +
STACK CFI 43c64 .cfa: sp 64 +
STACK CFI 43c74 .cfa: x29 64 + x19: .cfa -8 + ^ x20: .cfa -16 + ^ x21: .cfa -24 + ^ x22: .cfa -32 + ^ x23: .cfa -48 + ^ .ra: .cfa -56 + ^ x29: .cfa -64 + ^
STACK CFI 43d14 .cfa: sp 64 +
STACK CFI 43d24 .cfa: sp 0 +
STACK CFI 43d28 .cfa: x29 64 +
STACK CFI INIT 43d44 74 .cfa: sp 0 +
STACK CFI 43d48 .cfa: sp 48 +
STACK CFI 43d54 .cfa: x29 48 + x19: .cfa -8 + ^ x20: .cfa -16 + ^ x21: .cfa -24 + ^ x22: .cfa -32 + ^ .ra: .cfa -40 + ^ x29: .cfa -48 + ^
STACK CFI 43d5c .cfa: sp 48 +
STACK CFI 43d68 .cfa: sp 0 +
STACK CFI 43d6c .cfa: x29 48 +
STACK CFI 43da4 .cfa: sp 48 +
STACK CFI 43db0 .cfa: sp 0 +
STACK CFI 43db4 .cfa: x29 48 +
STACK CFI INIT 43db8 48 .cfa: sp 0 +
STACK CFI 43dbc .cfa: sp 32 +
STACK CFI 43dc4 .cfa: x29 32 + x19: .cfa -8 + ^ x20: .cfa -16 + ^ .ra: .cfa -24 + ^ x29: .cfa -32 + ^
STACK CFI 43dcc .cfa: sp 32 +
STACK CFI 43dd4 .cfa: sp 0 +
STACK CFI 43dd8 .cfa: x29 32 +
STACK CFI INIT 43e14 a8 .cfa: sp 0 +
STACK CFI 43e18 .cfa: sp 48 +
STACK CFI 43e24 .cfa: x29 48 + x19: .cfa -8 + ^ x20: .cfa -16 + ^ x21: .cfa -32 + ^ .ra: .cfa -40 + ^ x29: .cfa -48 + ^
STACK CFI 43e90 .cfa: sp 48 +
STACK CFI 43e9c .cfa: sp 0 +
STACK CFI 43ea0 .cfa: x29 48 +
STACK CFI INIT 43ebc a8 .cfa: sp 0 +
STACK CFI 43ec0 .cfa: sp 48 +
STACK CFI 43ecc .cfa: x29 48 + x19: .cfa -8 + ^ x20: .cfa -16 + ^ x21: .cfa -32 + ^ .ra: .cfa -40 + ^ x29: .cfa -48 + ^
STACK CFI 43f38 .cfa: sp 48 +
STACK CFI 43f44 .cfa: sp 0 +
STACK CFI 43f48 .cfa: x29 48 +
STACK CFI INIT 44060 1d4 .cfa: sp 0 +
STACK CFI 44064 .cfa: sp 320 +
STACK CFI 4407c .cfa: x29 80 + x19: .cfa -8 + ^ x20: .cfa -16 + ^ x21: .cfa -24 + ^ x22: .cfa -32 + ^ x23: .cfa -40 + ^ x24: .cfa -48 + ^ x28: .cfa -64 + ^ .ra: .cfa -72 + ^ x29: .cfa -80 + ^
STACK CFI 441e8 .cfa: sp 320 +
STACK CFI 44200 .cfa: sp 0 +
STACK CFI 44204 .cfa: x29 80 +
STACK CFI INIT 46938 180 .cfa: sp 0 +
STACK CFI 4693c .cfa: sp 128 +
STACK CFI 46950 .cfa: x29 64 + x19: .cfa -8 + ^ x20: .cfa -16 + ^ x21: .cfa -24 + ^ x22: .cfa -32 + ^ x23: .cfa -40 + ^ x24: .cfa -48 + ^ .ra: .cfa -56 + ^ x29: .cfa -64 + ^
STACK CFI 46a70 .cfa: sp 128 +
STACK CFI 46a84 .cfa: sp 0 +
STACK CFI 46a88 .cfa: x29 64 +
STACK CFI INIT 46ab8 818 .cfa: sp 0 +
STACK CFI 46abc .cfa: sp 160 +
STACK CFI 46ad4 .cfa: x29 56 + x19: .cfa -8 + ^ x20: .cfa -16 + ^ x21: .cfa -24 + ^ x22: .cfa -32 + ^ x23: .cfa -40 + ^ .ra: .cfa -48 + ^ x29: .cfa -56 + ^ v8: .cfa -64 + ^
STACK CFI 471fc .cfa: sp 160 +
STACK CFI 47214 .cfa: sp 0 +
STACK CFI 47218 .cfa: x29 56 +
STACK CFI INIT 47320 244 .cfa: sp 0 +
STACK CFI 47324 .cfa: sp 128 +
STACK CFI 47334 .cfa: x29 48 + x19: .cfa -8 + ^ x20: .cfa -16 + ^ x21: .cfa -32 + ^ .ra: .cfa -40 + ^ x29: .cfa -48 + ^
STACK CFI 474c8 .cfa: sp 128 +
STACK CFI 474d8 .cfa: sp 0 +
STACK CFI 474dc .cfa: x29 48 +
STACK CFI INIT 476b4 df4 .cfa: sp 0 +
STACK CFI 476b8 .cfa: sp 304 +
STACK CFI 476dc .cfa: x29 96 + x19: .cfa -8 + ^ x20: .cfa -16 + ^ x21: .cfa -24 + ^ x22: .cfa -32 + ^ x23: .cfa -40 + ^ x24: .cfa -48 + ^ x25: .cfa -56 + ^ x26: .cfa -64 + ^ x27: .cfa -72 + ^ x28: .cfa -80 + ^ .ra: .cfa -88 + ^ x29: .cfa -96 + ^ v8: .cfa -104 + ^ v9: .cfa -112 + ^ v10: .cfa -128 + ^
STACK CFI 4839c .cfa: sp 304 +
STACK CFI 483c0 .cfa: sp 0 +
STACK CFI 483c4 .cfa: x29 96 +
STACK CFI INIT 48700 7bc .cfa: sp 0 +
STACK CFI 48704 .cfa: sp 192 +
STACK CFI 48720 .cfa: x29 96 + x19: .cfa -8 + ^ x20: .cfa -16 + ^ x21: .cfa -24 + ^ x22: .cfa -32 + ^ x23: .cfa -40 + ^ x24: .cfa -48 + ^ x25: .cfa -56 + ^ x26: .cfa -64 + ^ x27: .cfa -80 + ^ .ra: .cfa -88 + ^ x29: .cfa -96 + ^
STACK CFI 48e24 .cfa: sp 192 +
STACK CFI 48e40 .cfa: sp 0 +
STACK CFI 48e44 .cfa: x29 96 +
STACK CFI INIT 48ebc 7f8 .cfa: sp 0 +
STACK CFI 48ec0 .cfa: sp 240 +
STACK CFI 48ee0 .cfa: x29 96 + x19: .cfa -8 + ^ x20: .cfa -16 + ^ x21: .cfa -24 + ^ x22: .cfa -32 + ^ x23: .cfa -40 + ^ x24: .cfa -48 + ^ x25: .cfa -56 + ^ x26: .cfa -64 + ^ x27: .cfa -72 + ^ x28: .cfa -80 + ^ .ra: .cfa -88 + ^ x29: .cfa -96 + ^ v8: .cfa -104 + ^ v9: .cfa -112 + ^
STACK CFI 495e4 .cfa: sp 240 +
STACK CFI 49604 .cfa: sp 0 +
STACK CFI 49608 .cfa: x29 96 +
STACK CFI INIT 496b4 810 .cfa: sp 0 +
STACK CFI 496b8 .cfa: sp 240 +
STACK CFI 496d8 .cfa: x29 96 + x19: .cfa -8 + ^ x20: .cfa -16 + ^ x21: .cfa -24 + ^ x22: .cfa -32 + ^ x23: .cfa -40 + ^ x24: .cfa -48 + ^ x25: .cfa -56 + ^ x26: .cfa -64 + ^ x27: .cfa -72 + ^ x28: .cfa -80 + ^ .ra: .cfa -88 + ^ x29: .cfa -96 + ^ v8: .cfa -104 + ^ v9: .cfa -112 + ^
STACK CFI 49df4 .cfa: sp 240 +
STACK CFI 49e14 .cfa: sp 0 +
STACK CFI 49e18 .cfa: x29 96 +
STACK CFI INIT 49ec4 8cc .cfa: sp 0 +
STACK CFI 49ec8 .cfa: sp 352 +
STACK CFI 49ee0 .cfa: x29 80 + x19: .cfa -8 + ^ x20: .cfa -16 + ^ x21: .cfa -24 + ^ x22: .cfa -32 + ^ x23: .cfa -40 + ^ x24: .cfa -48 + ^ x28: .cfa -64 + ^ .ra: .cfa -72 + ^ x29: .cfa -80 + ^
STACK CFI 4a66c .cfa: sp 352 +
STACK CFI 4a684 .cfa: sp 0 +
STACK CFI 4a688 .cfa: x29 80 +
STACK CFI INIT 4a790 65c .cfa: sp 0 +
STACK CFI 4a794 .cfa: sp 208 +
STACK CFI 4a7ac .cfa: x29 80 + x19: .cfa -8 + ^ x20: .cfa -16 + ^ x21: .cfa -24 + ^ x22: .cfa -32 + ^ x23: .cfa -40 + ^ x24: .cfa -48 + ^ x25: .cfa -56 + ^ x26: .cfa -64 + ^ .ra: .cfa -72 + ^ x29: .cfa -80 + ^
STACK CFI 4aa00 .cfa: sp 208 +
STACK CFI 4aa18 .cfa: sp 0 +
STACK CFI 4aa1c .cfa: x29 80 +
STACK CFI INIT 4adec 94c .cfa: sp 0 +
STACK CFI 4adf0 .cfa: sp 176 +
STACK CFI 4ae10 .cfa: x29 96 + x19: .cfa -8 + ^ x20: .cfa -16 + ^ x21: .cfa -24 + ^ x22: .cfa -32 + ^ x23: .cfa -40 + ^ x24: .cfa -48 + ^ x25: .cfa -56 + ^ x26: .cfa -64 + ^ x27: .cfa -72 + ^ x28: .cfa -80 + ^ .ra: .cfa -88 + ^ x29: .cfa -96 + ^ v8: .cfa -104 + ^ v9: .cfa -112 + ^
STACK CFI 4b57c .cfa: sp 176 +
STACK CFI 4b59c .cfa: sp 0 +
STACK CFI 4b5a0 .cfa: x29 96 +
STACK CFI INIT 4bedc 1e8 .cfa: sp 0 +
STACK CFI 4bee0 .cfa: sp 128 +
STACK CFI 4bef0 .cfa: x29 48 + x19: .cfa -8 + ^ x20: .cfa -16 + ^ x21: .cfa -32 + ^ .ra: .cfa -40 + ^ x29: .cfa -48 + ^
STACK CFI 4c078 .cfa: sp 128 +
STACK CFI 4c088 .cfa: sp 0 +
STACK CFI 4c08c .cfa: x29 48 +
STACK CFI INIT 4c0c4 2ec .cfa: sp 0 +
STACK CFI 4c0c8 .cfa: sp 96 +
STACK CFI 4c0e0 .cfa: x29 56 + x19: .cfa -8 + ^ x20: .cfa -16 + ^ x21: .cfa -24 + ^ x22: .cfa -32 + ^ x23: .cfa -40 + ^ .ra: .cfa -48 + ^ x29: .cfa -56 + ^ v8: .cfa -64 + ^
STACK CFI 4c360 .cfa: sp 96 +
STACK CFI 4c378 .cfa: sp 0 +
STACK CFI 4c37c .cfa: x29 56 +
STACK CFI INIT 4c3b0 780 .cfa: sp 0 +
STACK CFI 4c3b4 .cfa: sp 272 +
STACK CFI 4c3d0 .cfa: x29 96 + x19: .cfa -8 + ^ x20: .cfa -16 + ^ x21: .cfa -24 + ^ x22: .cfa -32 + ^ x23: .cfa -40 + ^ x24: .cfa -48 + ^ x25: .cfa -56 + ^ x26: .cfa -64 + ^ x27: .cfa -72 + ^ x28: .cfa -80 + ^ .ra: .cfa -88 + ^ x29: .cfa -96 + ^
STACK CFI 4c4b8 .cfa: sp 272 +
STACK CFI 4c4d4 .cfa: sp 0 +
STACK CFI 4c4d8 .cfa: x29 96 +
STACK CFI INIT 4cb30 1b4 .cfa: sp 0 +
STACK CFI 4cb34 .cfa: sp 96 +
STACK CFI 4cb40 .cfa: x29 32 + x19: .cfa -8 + ^ x20: .cfa -16 + ^ .ra: .cfa -24 + ^ x29: .cfa -32 + ^
STACK CFI 4cc9c .cfa: sp 96 +
STACK CFI 4cca8 .cfa: sp 0 +
STACK CFI 4ccac .cfa: x29 32 +
STACK CFI INIT 4cce4 2dc .cfa: sp 0 +
STACK CFI 4cce8 .cfa: sp 160 +
STACK CFI 4cd00 .cfa: x29 80 + x19: .cfa -8 + ^ x20: .cfa -16 + ^ x21: .cfa -24 + ^ x22: .cfa -32 + ^ x23: .cfa -40 + ^ x24: .cfa -48 + ^ x25: .cfa -56 + ^ x26: .cfa -64 + ^ .ra: .cfa -72 + ^ x29: .cfa -80 + ^
STACK CFI 4cf40 .cfa: sp 160 +
STACK CFI 4cf58 .cfa: sp 0 +
STACK CFI 4cf5c .cfa: x29 80 +
STACK CFI INIT 4cfc0 dc .cfa: sp 0 +
STACK CFI 4cfc4 .cfa: sp 64 +
STACK CFI 4cfd0 .cfa: x29 32 + x19: .cfa -8 + ^ x20: .cfa -16 + ^ .ra: .cfa -24 + ^ x29: .cfa -32 + ^
STACK CFI 4d054 .cfa: sp 64 +
STACK CFI 4d060 .cfa: sp 0 +
STACK CFI 4d064 .cfa: x29 32 +
STACK CFI INIT 4d438 b18 .cfa: sp 0 +
STACK CFI 4d43c .cfa: sp 240 +
STACK CFI 4d45c .cfa: x29 96 + x19: .cfa -8 + ^ x20: .cfa -16 + ^ x21: .cfa -24 + ^ x22: .cfa -32 + ^ x23: .cfa -40 + ^ x24: .cfa -48 + ^ x25: .cfa -56 + ^ x26: .cfa -64 + ^ x27: .cfa -72 + ^ x28: .cfa -80 + ^ .ra: .cfa -88 + ^ x29: .cfa -96 + ^ v8: .cfa -112 + ^
STACK CFI 4d53c .cfa: sp 240 +
STACK CFI 4d55c .cfa: sp 0 +
STACK CFI 4d560 .cfa: x29 96 +
STACK CFI 4ddb4 .cfa: sp 240 +
STACK CFI 4ddd4 .cfa: sp 0 +
STACK CFI 4ddd8 .cfa: x29 96 +
STACK CFI INIT 4e234 14c .cfa: sp 0 +
STACK CFI 4e238 .cfa: sp 80 +
STACK CFI 4e248 .cfa: x29 48 + x19: .cfa -8 + ^ x20: .cfa -16 + ^ x21: .cfa -32 + ^ .ra: .cfa -40 + ^ x29: .cfa -48 + ^
STACK CFI 4e33c .cfa: sp 80 +
STACK CFI 4e34c .cfa: sp 0 +
STACK CFI 4e350 .cfa: x29 48 +
STACK CFI INIT 4e550 a54 .cfa: sp 0 +
STACK CFI 4e554 .cfa: sp 240 +
STACK CFI 4e574 .cfa: x29 96 + x19: .cfa -8 + ^ x20: .cfa -16 + ^ x21: .cfa -24 + ^ x22: .cfa -32 + ^ x23: .cfa -40 + ^ x24: .cfa -48 + ^ x25: .cfa -56 + ^ x26: .cfa -64 + ^ x27: .cfa -72 + ^ x28: .cfa -80 + ^ .ra: .cfa -88 + ^ x29: .cfa -96 + ^ v8: .cfa -112 + ^
STACK CFI 4e654 .cfa: sp 240 +
STACK CFI 4e674 .cfa: sp 0 +
STACK CFI 4e678 .cfa: x29 96 +
STACK CFI 4ee0c .cfa: sp 240 +
STACK CFI 4ee2c .cfa: sp 0 +
STACK CFI 4ee30 .cfa: x29 96 +
STACK CFI INIT 4f03c 480 .cfa: sp 0 +
STACK CFI 4f040 .cfa: sp 288 +
STACK CFI 4f058 .cfa: x29 80 + x19: .cfa -8 + ^ x20: .cfa -16 + ^ x21: .cfa -24 + ^ x22: .cfa -32 + ^ x23: .cfa -40 + ^ x24: .cfa -48 + ^ x25: .cfa -56 + ^ x28: .cfa -64 + ^ .ra: .cfa -72 + ^ x29: .cfa -80 + ^
STACK CFI 4f3dc .cfa: sp 288 +
STACK CFI 4f3f4 .cfa: sp 0 +
STACK CFI 4f3f8 .cfa: x29 80 +
STACK CFI INIT 4f500 b0 .cfa: sp 0 +
STACK CFI 4f504 .cfa: sp 80 +
STACK CFI 4f514 .cfa: x29 48 + x19: .cfa -8 + ^ x20: .cfa -16 + ^ x21: .cfa -32 + ^ .ra: .cfa -40 + ^ x29: .cfa -48 + ^
STACK CFI 4f594 .cfa: sp 80 +
STACK CFI 4f5a4 .cfa: sp 0 +
STACK CFI 4f5a8 .cfa: x29 48 +
STACK CFI INIT 4f5b0 140 .cfa: sp 0 +
STACK CFI 4f5b4 .cfa: sp 112 +
STACK CFI 4f5c4 .cfa: x29 48 + x19: .cfa -8 + ^ x20: .cfa -16 + ^ x21: .cfa -24 + ^ x22: .cfa -32 + ^ .ra: .cfa -40 + ^ x29: .cfa -48 + ^
STACK CFI 4f6a4 .cfa: sp 112 +
STACK CFI 4f6b4 .cfa: sp 0 +
STACK CFI 4f6b8 .cfa: x29 48 +
STACK CFI INIT 4f6fc 3b8 .cfa: sp 0 +
STACK CFI 4f700 .cfa: sp 384 +
STACK CFI 4f71c .cfa: x29 96 + x19: .cfa -8 + ^ x20: .cfa -16 + ^ x21: .cfa -24 + ^ x22: .cfa -32 + ^ x23: .cfa -40 + ^ x24: .cfa -48 + ^ x25: .cfa -56 + ^ x26: .cfa -64 + ^ x27: .cfa -72 + ^ x28: .cfa -80 + ^ .ra: .cfa -88 + ^ x29: .cfa -96 + ^
STACK CFI 4fa18 .cfa: sp 384 +
STACK CFI 4fa34 .cfa: sp 0 +
STACK CFI 4fa38 .cfa: x29 96 +
STACK CFI INIT 4fd50 d0 .cfa: sp 0 +
STACK CFI 4fd54 .cfa: sp 80 +
STACK CFI 4fd68 .cfa: x29 64 + x19: .cfa -8 + ^ x20: .cfa -16 + ^ x21: .cfa -24 + ^ x22: .cfa -32 + ^ x23: .cfa -48 + ^ .ra: .cfa -56 + ^ x29: .cfa -64 + ^
STACK CFI 4fe00 .cfa: sp 80 +
STACK CFI 4fe14 .cfa: sp 0 +
STACK CFI 4fe18 .cfa: x29 64 +
STACK CFI INIT 4feec 318 .cfa: sp 0 +
STACK CFI 4fef0 .cfa: sp 112 +
STACK CFI 4ff08 .cfa: x29 80 + x19: .cfa -8 + ^ x20: .cfa -16 + ^ x21: .cfa -24 + ^ x22: .cfa -32 + ^ x23: .cfa -40 + ^ x24: .cfa -48 + ^ x25: .cfa -56 + ^ x26: .cfa -64 + ^ .ra: .cfa -72 + ^ x29: .cfa -80 + ^
STACK CFI 501c0 .cfa: sp 112 +
STACK CFI 501d8 .cfa: sp 0 +
STACK CFI 501dc .cfa: x29 80 +
STACK CFI INIT 5030c 2bc .cfa: sp 0 +
STACK CFI 50310 .cfa: sp 128 +
STACK CFI 5032c .cfa: x29 72 + x19: .cfa -8 + ^ x20: .cfa -16 + ^ x21: .cfa -24 + ^ x22: .cfa -32 + ^ x23: .cfa -40 + ^ x24: .cfa -48 + ^ x25: .cfa -56 + ^ .ra: .cfa -64 + ^ x29: .cfa -72 + ^ v8: .cfa -80 + ^
STACK CFI 5056c .cfa: sp 128 +
STACK CFI 50588 .cfa: sp 0 +
STACK CFI 5058c .cfa: x29 72 +
STACK CFI INIT 5080c 1cc .cfa: sp 0 +
STACK CFI 50810 .cfa: sp 160 +
STACK CFI 50824 .cfa: x29 64 + x19: .cfa -8 + ^ x20: .cfa -16 + ^ x21: .cfa -24 + ^ x22: .cfa -32 + ^ x23: .cfa -48 + ^ .ra: .cfa -56 + ^ x29: .cfa -64 + ^
STACK CFI 50978 .cfa: sp 160 +
STACK CFI 5098c .cfa: sp 0 +
STACK CFI 50990 .cfa: x29 64 +
STACK CFI INIT 50a28 298 .cfa: sp 0 +
STACK CFI 50a2c .cfa: sp 224 +
STACK CFI 50a44 .cfa: x29 80 + x19: .cfa -8 + ^ x20: .cfa -16 + ^ x21: .cfa -24 + ^ x22: .cfa -32 + ^ x23: .cfa -40 + ^ x24: .cfa -48 + ^ x25: .cfa -56 + ^ x26: .cfa -64 + ^ .ra: .cfa -72 + ^ x29: .cfa -80 + ^
STACK CFI 50bb4 .cfa: sp 224 +
STACK CFI 50bcc .cfa: sp 0 +
STACK CFI 50bd0 .cfa: x29 80 +
STACK CFI INIT 50cc0 168 .cfa: sp 0 +
STACK CFI 50cc4 .cfa: sp 96 +
STACK CFI 50cd4 .cfa: x29 48 + x19: .cfa -8 + ^ x20: .cfa -16 + ^ x21: .cfa -32 + ^ .ra: .cfa -40 + ^ x29: .cfa -48 + ^
STACK CFI 50e0c .cfa: sp 96 +
STACK CFI 50e1c .cfa: sp 0 +
STACK CFI 50e20 .cfa: x29 48 +
STACK CFI INIT 50e28 21c .cfa: sp 0 +
STACK CFI 50e2c .cfa: sp 192 +
STACK CFI 50e40 .cfa: x29 64 + x19: .cfa -8 + ^ x20: .cfa -16 + ^ x21: .cfa -24 + ^ x22: .cfa -32 + ^ x23: .cfa -48 + ^ .ra: .cfa -56 + ^ x29: .cfa -64 + ^
STACK CFI 50f80 .cfa: sp 192 +
STACK CFI 50f94 .cfa: sp 0 +
STACK CFI 50f98 .cfa: x29 64 +
STACK CFI INIT 512e0 198 .cfa: sp 0 +
STACK CFI 512e4 .cfa: sp 128 +
STACK CFI 512f8 .cfa: x29 64 + x19: .cfa -8 + ^ x20: .cfa -16 + ^ x21: .cfa -24 + ^ x22: .cfa -32 + ^ x23: .cfa -48 + ^ .ra: .cfa -56 + ^ x29: .cfa -64 + ^
STACK CFI 51438 .cfa: sp 128 +
STACK CFI 5144c .cfa: sp 0 +
STACK CFI 51450 .cfa: x29 64 +
STACK CFI INIT 51744 188 .cfa: sp 0 +
STACK CFI 51748 .cfa: sp 112 +
STACK CFI 51758 .cfa: x29 48 + x19: .cfa -8 + ^ x20: .cfa -16 + ^ x21: .cfa -24 + ^ x22: .cfa -32 + ^ .ra: .cfa -40 + ^ x29: .cfa -48 + ^
STACK CFI 51890 .cfa: sp 112 +
STACK CFI 518a0 .cfa: sp 0 +
STACK CFI 518a4 .cfa: x29 48 +
STACK CFI INIT 5194c 1d0 .cfa: sp 0 +
STACK CFI 51950 .cfa: sp 144 +
STACK CFI 51964 .cfa: x29 64 + x19: .cfa -8 + ^ x20: .cfa -16 + ^ x21: .cfa -24 + ^ x22: .cfa -32 + ^ x23: .cfa -40 + ^ x24: .cfa -48 + ^ .ra: .cfa -56 + ^ x29: .cfa -64 + ^
STACK CFI 51afc .cfa: sp 144 +
STACK CFI 51b10 .cfa: sp 0 +
STACK CFI 51b14 .cfa: x29 64 +
STACK CFI INIT 51be8 134 .cfa: sp 0 +
STACK CFI 51bec .cfa: sp 80 +
STACK CFI 51bf8 .cfa: x29 32 + x19: .cfa -8 + ^ x20: .cfa -16 + ^ .ra: .cfa -24 + ^ x29: .cfa -32 + ^
STACK CFI 51c28 .cfa: sp 80 +
STACK CFI 51c34 .cfa: sp 0 +
STACK CFI 51c38 .cfa: x29 32 +
STACK CFI INIT 51d1c 78 .cfa: sp 0 +
STACK CFI 51d20 .cfa: sp 32 +
STACK CFI 51d28 .cfa: x29 32 + x19: .cfa -8 + ^ x20: .cfa -16 + ^ .ra: .cfa -24 + ^ x29: .cfa -32 + ^
STACK CFI 51d34 .cfa: sp 32 +
STACK CFI 51d3c .cfa: sp 0 +
STACK CFI 51d40 .cfa: x29 32 +
STACK CFI INIT 51d94 74 .cfa: sp 0 +
STACK CFI 51d98 .cfa: sp 48 +
STACK CFI 51da4 .cfa: x29 32 + x19: .cfa -8 + ^ x20: .cfa -16 + ^ .ra: .cfa -24 + ^ x29: .cfa -32 + ^
STACK CFI 51df0 .cfa: sp 48 +
STACK CFI 51dfc .cfa: sp 0 +
STACK CFI 51e00 .cfa: x29 32 +
STACK CFI INIT 51e6c 224 .cfa: sp 0 +
STACK CFI 51e70 .cfa: sp 128 +
STACK CFI 51e80 .cfa: x29 48 + x19: .cfa -8 + ^ x20: .cfa -16 + ^ x21: .cfa -32 + ^ .ra: .cfa -40 + ^ x29: .cfa -48 + ^
STACK CFI 51f30 .cfa: sp 128 +
STACK CFI 51f40 .cfa: sp 0 +
STACK CFI 51f44 .cfa: x29 48 +
STACK CFI INIT 520d8 28c .cfa: sp 0 +
STACK CFI 520dc .cfa: sp 128 +
STACK CFI 520ec .cfa: x29 48 + x19: .cfa -8 + ^ x20: .cfa -16 + ^ x21: .cfa -32 + ^ .ra: .cfa -40 + ^ x29: .cfa -48 + ^
STACK CFI 52204 .cfa: sp 128 +
STACK CFI 52214 .cfa: sp 0 +
STACK CFI 52218 .cfa: x29 48 +
STACK CFI INIT 523b8 308 .cfa: sp 0 +
STACK CFI 523bc .cfa: sp 144 +
STACK CFI 523d0 .cfa: x29 64 + x19: .cfa -8 + ^ x20: .cfa -16 + ^ x21: .cfa -24 + ^ x22: .cfa -32 + ^ x23: .cfa -48 + ^ .ra: .cfa -56 + ^ x29: .cfa -64 + ^
STACK CFI 52564 .cfa: sp 144 +
STACK CFI 52578 .cfa: sp 0 +
STACK CFI 5257c .cfa: x29 64 +
STACK CFI INIT 52714 26c .cfa: sp 0 +
STACK CFI 52718 .cfa: sp 128 +
STACK CFI 52728 .cfa: x29 48 + x19: .cfa -8 + ^ x20: .cfa -16 + ^ x21: .cfa -32 + ^ .ra: .cfa -40 + ^ x29: .cfa -48 + ^
STACK CFI 52820 .cfa: sp 128 +
STACK CFI 52830 .cfa: sp 0 +
STACK CFI 52834 .cfa: x29 48 +
STACK CFI INIT 52a28 1b8 .cfa: sp 0 +
STACK CFI 52a2c .cfa: sp 160 +
STACK CFI 52a48 .cfa: x29 72 + x19: .cfa -8 + ^ x20: .cfa -16 + ^ x21: .cfa -24 + ^ x22: .cfa -32 + ^ x23: .cfa -40 + ^ x24: .cfa -48 + ^ x25: .cfa -56 + ^ .ra: .cfa -64 + ^ x29: .cfa -72 + ^ v8: .cfa -80 + ^
STACK CFI 52acc .cfa: sp 160 +
STACK CFI 52ae8 .cfa: sp 0 +
STACK CFI 52aec .cfa: x29 72 +
STACK CFI INIT 52be0 148 .cfa: sp 0 +
STACK CFI 52be4 .cfa: sp 64 +
STACK CFI 52bf4 .cfa: x29 48 + x19: .cfa -8 + ^ x20: .cfa -16 + ^ x21: .cfa -24 + ^ x22: .cfa -32 + ^ .ra: .cfa -40 + ^ x29: .cfa -48 + ^
STACK CFI 52cec .cfa: sp 64 +
STACK CFI 52cfc .cfa: sp 0 +
STACK CFI 52d00 .cfa: x29 48 +
STACK CFI INIT 52d28 ac .cfa: sp 0 +
STACK CFI 52d2c .cfa: sp 64 +
STACK CFI 52d3c .cfa: x29 48 + x19: .cfa -8 + ^ x20: .cfa -16 + ^ x21: .cfa -32 + ^ .ra: .cfa -40 + ^ x29: .cfa -48 + ^
STACK CFI 52d98 .cfa: sp 64 +
STACK CFI 52da8 .cfa: sp 0 +
STACK CFI 52dac .cfa: x29 48 +
STACK CFI INIT 52dd4 250 .cfa: sp 0 +
STACK CFI 52dd8 .cfa: sp 160 +
STACK CFI 52df0 .cfa: x29 64 + x19: .cfa -8 + ^ x20: .cfa -16 + ^ x21: .cfa -24 + ^ x22: .cfa -32 + ^ x23: .cfa -48 + ^ .ra: .cfa -56 + ^ x29: .cfa -64 + ^ v8: .cfa -72 + ^ v9: .cfa -80 + ^
STACK CFI 52ee0 .cfa: sp 160 +
STACK CFI 52ef8 .cfa: sp 0 +
STACK CFI 52efc .cfa: x29 64 +
STACK CFI INIT 53024 e4 .cfa: sp 0 +
STACK CFI 53028 .cfa: sp 32 +
STACK CFI 53030 .cfa: x29 32 + x19: .cfa -8 + ^ x20: .cfa -16 + ^ .ra: .cfa -24 + ^ x29: .cfa -32 + ^
STACK CFI 530d8 .cfa: sp 32 +
STACK CFI 530e0 .cfa: sp 0 +
STACK CFI 530e4 .cfa: x29 32 +
STACK CFI INIT 53108 100 .cfa: sp 0 +
STACK CFI 5310c .cfa: sp 64 +
STACK CFI 5311c .cfa: x29 48 + x19: .cfa -8 + ^ x20: .cfa -16 + ^ x21: .cfa -24 + ^ x22: .cfa -32 + ^ .ra: .cfa -40 + ^ x29: .cfa -48 + ^
STACK CFI 531d0 .cfa: sp 64 +
STACK CFI 531e0 .cfa: sp 0 +
STACK CFI 531e4 .cfa: x29 48 +
STACK CFI INIT 53268 2ec .cfa: sp 0 +
STACK CFI 5326c .cfa: sp 144 +
STACK CFI 53280 .cfa: x29 64 + x19: .cfa -8 + ^ x20: .cfa -16 + ^ x21: .cfa -24 + ^ x22: .cfa -32 + ^ x23: .cfa -48 + ^ .ra: .cfa -56 + ^ x29: .cfa -64 + ^
STACK CFI 533f8 .cfa: sp 144 +
STACK CFI 5340c .cfa: sp 0 +
STACK CFI 53410 .cfa: x29 64 +
STACK CFI INIT 53554 2ec .cfa: sp 0 +
STACK CFI 53558 .cfa: sp 144 +
STACK CFI 5356c .cfa: x29 64 + x19: .cfa -8 + ^ x20: .cfa -16 + ^ x21: .cfa -24 + ^ x22: .cfa -32 + ^ x23: .cfa -48 + ^ .ra: .cfa -56 + ^ x29: .cfa -64 + ^
STACK CFI 536e4 .cfa: sp 144 +
STACK CFI 536f8 .cfa: sp 0 +
STACK CFI 536fc .cfa: x29 64 +
STACK CFI INIT 53864 2a8 .cfa: sp 0 +
STACK CFI 53868 .cfa: sp 144 +
STACK CFI 5387c .cfa: x29 64 + x19: .cfa -8 + ^ x20: .cfa -16 + ^ x21: .cfa -24 + ^ x22: .cfa -32 + ^ x23: .cfa -48 + ^ .ra: .cfa -56 + ^ x29: .cfa -64 + ^
STACK CFI 539b0 .cfa: sp 144 +
STACK CFI 539c4 .cfa: sp 0 +
STACK CFI 539c8 .cfa: x29 64 +
STACK CFI INIT 53b0c 2f8 .cfa: sp 0 +
STACK CFI 53b10 .cfa: sp 144 +
STACK CFI 53b24 .cfa: x29 64 + x19: .cfa -8 + ^ x20: .cfa -16 + ^ x21: .cfa -24 + ^ x22: .cfa -32 + ^ x23: .cfa -48 + ^ .ra: .cfa -56 + ^ x29: .cfa -64 + ^
STACK CFI 53ca8 .cfa: sp 144 +
STACK CFI 53cbc .cfa: sp 0 +
STACK CFI 53cc0 .cfa: x29 64 +
STACK CFI INIT 53e04 4c4 .cfa: sp 0 +
STACK CFI 53e08 .cfa: sp 144 +
STACK CFI 53e1c .cfa: x29 64 + x19: .cfa -8 + ^ x20: .cfa -16 + ^ x21: .cfa -24 + ^ x22: .cfa -32 + ^ x23: .cfa -48 + ^ .ra: .cfa -56 + ^ x29: .cfa -64 + ^
STACK CFI 54118 .cfa: sp 144 +
STACK CFI 5412c .cfa: sp 0 +
STACK CFI 54130 .cfa: x29 64 +
STACK CFI INIT 542c8 154 .cfa: sp 0 +
STACK CFI 542cc .cfa: sp 384 +
STACK CFI 542e0 .cfa: x29 64 + x19: .cfa -8 + ^ x20: .cfa -16 + ^ x21: .cfa -24 + ^ x22: .cfa -32 + ^ x23: .cfa -40 + ^ x28: .cfa -48 + ^ .ra: .cfa -56 + ^ x29: .cfa -64 + ^
STACK CFI 543c4 .cfa: sp 384 +
STACK CFI 543d8 .cfa: sp 0 +
STACK CFI 543dc .cfa: x29 64 +
STACK CFI INIT 54560 43c .cfa: sp 0 +
STACK CFI 54564 .cfa: sp 64 +
STACK CFI 54574 .cfa: x29 64 + x19: .cfa -8 + ^ x20: .cfa -16 + ^ x21: .cfa -24 + ^ x22: .cfa -32 + ^ x23: .cfa -40 + ^ x24: .cfa -48 + ^ .ra: .cfa -56 + ^ x29: .cfa -64 + ^
STACK CFI 5492c .cfa: sp 64 +
STACK CFI 5493c .cfa: sp 0 +
STACK CFI 54940 .cfa: x29 64 +
STACK CFI INIT 54ccc 294 .cfa: sp 0 +
STACK CFI 54cd0 .cfa: sp 240 +
STACK CFI 54ce8 .cfa: x29 80 + x19: .cfa -8 + ^ x20: .cfa -16 + ^ x21: .cfa -24 + ^ x22: .cfa -32 + ^ x23: .cfa -40 + ^ x24: .cfa -48 + ^ x25: .cfa -64 + ^ .ra: .cfa -72 + ^ x29: .cfa -80 + ^
STACK CFI 54e88 .cfa: sp 240 +
STACK CFI 54ea0 .cfa: sp 0 +
STACK CFI 54ea4 .cfa: x29 80 +
STACK CFI INIT 54fd0 50 .cfa: sp 0 +
STACK CFI 54fd4 .cfa: sp 32 +
STACK CFI 54fdc .cfa: x29 32 + x19: .cfa -8 + ^ x20: .cfa -16 + ^ .ra: .cfa -24 + ^ x29: .cfa -32 + ^
STACK CFI INIT 5504c 750 .cfa: sp 0 +
STACK CFI 55050 .cfa: sp 320 +
STACK CFI 5506c .cfa: x29 96 + x19: .cfa -8 + ^ x20: .cfa -16 + ^ x21: .cfa -24 + ^ x22: .cfa -32 + ^ x23: .cfa -40 + ^ x24: .cfa -48 + ^ x25: .cfa -56 + ^ x26: .cfa -64 + ^ x27: .cfa -72 + ^ x28: .cfa -80 + ^ .ra: .cfa -88 + ^ x29: .cfa -96 + ^
STACK CFI 55658 .cfa: sp 320 +
STACK CFI 55674 .cfa: sp 0 +
STACK CFI 55678 .cfa: x29 96 +
STACK CFI INIT 55800 12c .cfa: sp 0 +
STACK CFI 55804 .cfa: sp 80 +
STACK CFI 55818 .cfa: x29 80 + x19: .cfa -8 + ^ x20: .cfa -16 + ^ x21: .cfa -24 + ^ x22: .cfa -32 + ^ x23: .cfa -40 + ^ x24: .cfa -48 + ^ x28: .cfa -64 + ^ .ra: .cfa -72 + ^ x29: .cfa -80 + ^
STACK CFI 558e0 .cfa: sp 80 +
STACK CFI 558f4 .cfa: sp 0 +
STACK CFI 558f8 .cfa: x29 80 +
STACK CFI INIT 59148 c3c .cfa: sp 0 +
STACK CFI 5914c .cfa: sp 96 +
STACK CFI 59164 .cfa: x29 96 + x19: .cfa -8 + ^ x20: .cfa -16 + ^ x21: .cfa -24 + ^ x22: .cfa -32 + ^ x23: .cfa -40 + ^ x24: .cfa -48 + ^ x25: .cfa -56 + ^ x26: .cfa -64 + ^ x27: .cfa -72 + ^ x28: .cfa -80 + ^ .ra: .cfa -88 + ^ x29: .cfa -96 + ^
STACK CFI 59c48 .cfa: sp 96 +
STACK CFI 59c60 .cfa: sp 0 +
STACK CFI 59c64 .cfa: x29 96 +
STACK CFI INIT 59ed8 238 .cfa: sp 0 +
STACK CFI 59edc .cfa: sp 128 +
STACK CFI 59eec .cfa: x29 48 + x19: .cfa -8 + ^ x20: .cfa -16 + ^ x21: .cfa -24 + ^ x22: .cfa -32 + ^ .ra: .cfa -40 + ^ x29: .cfa -48 + ^
STACK CFI 5a074 .cfa: sp 128 +
STACK CFI 5a084 .cfa: sp 0 +
STACK CFI 5a088 .cfa: x29 48 +
STACK CFI INIT 5a474 3a4 .cfa: sp 0 +
STACK CFI 5a478 .cfa: sp 96 +
STACK CFI 5a490 .cfa: x29 96 + x19: .cfa -8 + ^ x20: .cfa -16 + ^ x21: .cfa -24 + ^ x22: .cfa -32 + ^ x23: .cfa -40 + ^ x24: .cfa -48 + ^ x25: .cfa -56 + ^ x26: .cfa -64 + ^ x27: .cfa -72 + ^ x28: .cfa -80 + ^ .ra: .cfa -88 + ^ x29: .cfa -96 + ^
STACK CFI 5a7b8 .cfa: sp 96 +
STACK CFI 5a7d0 .cfa: sp 0 +
STACK CFI 5a7d4 .cfa: x29 96 +
STACK CFI INIT 5a8b8 c78 .cfa: sp 0 +
STACK CFI 5a8bc .cfa: sp 96 +
STACK CFI 5a8d4 .cfa: x29 96 + x19: .cfa -8 + ^ x20: .cfa -16 + ^ x21: .cfa -24 + ^ x22: .cfa -32 + ^ x23: .cfa -40 + ^ x24: .cfa -48 + ^ x25: .cfa -56 + ^ x26: .cfa -64 + ^ x27: .cfa -72 + ^ x28: .cfa -80 + ^ .ra: .cfa -88 + ^ x29: .cfa -96 + ^
STACK CFI 5b3e4 .cfa: sp 96 +
STACK CFI 5b3fc .cfa: sp 0 +
STACK CFI 5b400 .cfa: x29 96 +
STACK CFI INIT 5b818 ad0 .cfa: sp 0 +
STACK CFI 5b81c .cfa: sp 96 +
STACK CFI 5b834 .cfa: x29 96 + x19: .cfa -8 + ^ x20: .cfa -16 + ^ x21: .cfa -24 + ^ x22: .cfa -32 + ^ x23: .cfa -40 + ^ x24: .cfa -48 + ^ x25: .cfa -56 + ^ x26: .cfa -64 + ^ x27: .cfa -72 + ^ x28: .cfa -80 + ^ .ra: .cfa -88 + ^ x29: .cfa -96 + ^
STACK CFI 5c25c .cfa: sp 96 +
STACK CFI 5c274 .cfa: sp 0 +
STACK CFI 5c278 .cfa: x29 96 +
STACK CFI INIT 5c4dc 1350 .cfa: sp 0 +
STACK CFI 5c4e0 .cfa: sp 96 +
STACK CFI 5c4f8 .cfa: x29 96 + x19: .cfa -8 + ^ x20: .cfa -16 + ^ x21: .cfa -24 + ^ x22: .cfa -32 + ^ x23: .cfa -40 + ^ x24: .cfa -48 + ^ x25: .cfa -56 + ^ x26: .cfa -64 + ^ x27: .cfa -72 + ^ x28: .cfa -80 + ^ .ra: .cfa -88 + ^ x29: .cfa -96 + ^
STACK CFI 5d6f8 .cfa: sp 96 +
STACK CFI 5d710 .cfa: sp 0 +
STACK CFI 5d714 .cfa: x29 96 +
STACK CFI INIT 5d950 744 .cfa: sp 0 +
STACK CFI 5d954 .cfa: sp 368 +
STACK CFI 5d970 .cfa: x29 96 + x19: .cfa -8 + ^ x20: .cfa -16 + ^ x21: .cfa -24 + ^ x22: .cfa -32 + ^ x23: .cfa -40 + ^ x24: .cfa -48 + ^ x25: .cfa -56 + ^ x26: .cfa -64 + ^ x27: .cfa -72 + ^ x28: .cfa -80 + ^ .ra: .cfa -88 + ^ x29: .cfa -96 + ^
STACK CFI 5da0c .cfa: sp 368 +
STACK CFI 5da28 .cfa: sp 0 +
STACK CFI 5da2c .cfa: x29 96 +
STACK CFI 5da80 .cfa: sp 368 +
STACK CFI 5da9c .cfa: sp 0 +
STACK CFI 5daa0 .cfa: x29 96 +
STACK CFI INIT 5e428 e8c .cfa: sp 0 +
STACK CFI 5e42c .cfa: sp 96 +
STACK CFI 5e444 .cfa: x29 96 + x19: .cfa -8 + ^ x20: .cfa -16 + ^ x21: .cfa -24 + ^ x22: .cfa -32 + ^ x23: .cfa -40 + ^ x24: .cfa -48 + ^ x25: .cfa -56 + ^ x26: .cfa -64 + ^ x27: .cfa -72 + ^ x28: .cfa -80 + ^ .ra: .cfa -88 + ^ x29: .cfa -96 + ^
STACK CFI 5f0d4 .cfa: sp 96 +
STACK CFI 5f0ec .cfa: sp 0 +
STACK CFI 5f0f0 .cfa: x29 96 +
STACK CFI INIT 5f628 14c4 .cfa: sp 0 +
STACK CFI 5f62c .cfa: sp 112 +
STACK CFI 5f648 .cfa: x29 96 + x19: .cfa -8 + ^ x20: .cfa -16 + ^ x21: .cfa -24 + ^ x22: .cfa -32 + ^ x23: .cfa -40 + ^ x24: .cfa -48 + ^ x25: .cfa -56 + ^ x26: .cfa -64 + ^ x27: .cfa -72 + ^ x28: .cfa -80 + ^ .ra: .cfa -88 + ^ x29: .cfa -96 + ^ v8: .cfa -112 + ^
STACK CFI 60924 .cfa: sp 112 +
STACK CFI 60940 .cfa: sp 0 +
STACK CFI 60944 .cfa: x29 96 +
STACK CFI INIT 62e00 98c .cfa: sp 0 +
STACK CFI 62e04 .cfa: sp 144 +
STACK CFI 62e1c .cfa: x29 80 + x19: .cfa -8 + ^ x20: .cfa -16 + ^ x21: .cfa -24 + ^ x22: .cfa -32 + ^ x23: .cfa -40 + ^ x24: .cfa -48 + ^ x25: .cfa -64 + ^ .ra: .cfa -72 + ^ x29: .cfa -80 + ^
STACK CFI 63708 .cfa: sp 144 +
STACK CFI 63720 .cfa: sp 0 +
STACK CFI 63724 .cfa: x29 80 +
STACK CFI INIT 6378c 570 .cfa: sp 0 +
STACK CFI 63790 .cfa: sp 96 +
STACK CFI 637a8 .cfa: x29 96 + x19: .cfa -8 + ^ x20: .cfa -16 + ^ x21: .cfa -24 + ^ x22: .cfa -32 + ^ x23: .cfa -40 + ^ x24: .cfa -48 + ^ x25: .cfa -56 + ^ x26: .cfa -64 + ^ x27: .cfa -72 + ^ x28: .cfa -80 + ^ .ra: .cfa -88 + ^ x29: .cfa -96 + ^
STACK CFI 63c60 .cfa: sp 96 +
STACK CFI 63c78 .cfa: sp 0 +
STACK CFI 63c7c .cfa: x29 96 +
STACK CFI INIT 63cfc 664 .cfa: sp 0 +
STACK CFI 63d00 .cfa: sp 96 +
STACK CFI 63d18 .cfa: x29 96 + x19: .cfa -8 + ^ x20: .cfa -16 + ^ x21: .cfa -24 + ^ x22: .cfa -32 + ^ x23: .cfa -40 + ^ x24: .cfa -48 + ^ x25: .cfa -56 + ^ x26: .cfa -64 + ^ x27: .cfa -72 + ^ x28: .cfa -80 + ^ .ra: .cfa -88 + ^ x29: .cfa -96 + ^
STACK CFI 642c4 .cfa: sp 96 +
STACK CFI 642dc .cfa: sp 0 +
STACK CFI 642e0 .cfa: x29 96 +
