MODULE Linux arm64 E4B5A25BC237316007F05CE70C61B4D20 nwo5.better_editor_trail.android64.so
INFO CODE_ID 5BA2B5E437C2603107F05CE70C61B4D2237F090D
INFO GENERATOR mozilla/dump_syms 2.3.4
PUBLIC 4b60 0 __on_dlclose
PUBLIC 4b70 0 __emutls_unregister_key
PUBLIC 4b78 0 __on_dlclose_late
PUBLIC 4b80 0 __atexit_handler_wrapper
PUBLIC 4b94 0 atexit
PUBLIC 4bb0 0 pthread_atfork
PUBLIC 4bc0 0 __aarch64_ldadd8_relax
PUBLIC 4bf0 0 init_have_lse_atomics
PUBLIC 4c88 0 __init_cpu_features_constructor
PUBLIC 4f34 0 __init_cpu_features
PUBLIC 4fc0 0 __aarch64_ldadd8_acq_rel
PUBLIC 4ff0 0 __cxx_global_var_init.1
PUBLIC 5464 0 geode::modifier::ModifyBase<geode::modifier::ModifyDerive<LevelEditor, LevelEditorLayer> >::~ModifyBase()
PUBLIC 547c 0 __cxx_global_var_init.2
PUBLIC 58f0 0 geode::modifier::ModifyBase<geode::modifier::ModifyDerive<Player, PlayerObject> >::~ModifyBase()
PUBLIC 5908 0 geode::modifier::ModifyDerive<LevelEditor, LevelEditorLayer>::apply()
PUBLIC 6060 0 std::__ndk1::shared_ptr<geode::Hook>::~shared_ptr[abi:ne190000]()
PUBLIC 60b0 0 geode::impl::ResultData<geode::Hook*, std::__ndk1::basic_string<char, std::__ndk1::char_traits<char>, std::__ndk1::allocator<char> > >::~ResultData()
PUBLIC 6124 0 std::__ndk1::vector<std::__ndk1::basic_string<char, std::__ndk1::char_traits<char>, std::__ndk1::allocator<char> >, std::__ndk1::allocator<std::__ndk1::basic_string<char, std::__ndk1::char_traits<char>, std::__ndk1::allocator<char> > > >::~vector[abi:ne190000]()
PUBLIC 61a0 0 geode::modifier::ModifyBase<geode::modifier::ModifyDerive<LevelEditor, LevelEditorLayer> >::apply()
PUBLIC 61a4 0 __clang_call_terminate
PUBLIC 61b4 0 _ZN5geode15UnwrapExceptionC2IRPNS_4HookEQsr4implE18IsStringStreamableIT_EEENS_4impl5OkTagEOS5_
PUBLIC 6308 0 std::__ndk1::__throw_bad_variant_access[abi:ne190000]()
PUBLIC 633c 0 std::__ndk1::basic_stringstream<char, std::__ndk1::char_traits<char>, std::__ndk1::allocator<char> >::basic_stringstream[abi:ne190000]()
PUBLIC m 6470 0 std::__ndk1::basic_stringstream<char, std::__ndk1::char_traits<char>, std::__ndk1::allocator<char> >::~basic_stringstream()
PUBLIC 64f0 0 geode::UnwrapException::~UnwrapException()
PUBLIC 6514 0 std::__ndk1::__put_character_sequence[abi:ne190000]<char, std::__ndk1::char_traits<char> >(std::__ndk1::basic_ostream<char, std::__ndk1::char_traits<char> >, std::__ndk1::basic_ostream const*, unsigned long)
PUBLIC 66b8 0 std::__ndk1::__pad_and_output[abi:ne190000]<char, std::__ndk1::char_traits<char> >(std::__ndk1::char_traits<char>, std::__ndk1::ostreambuf_iterator const*, std::__ndk1::ostreambuf_iterator const, std::__ndk1::ostreambuf_iterator const, std::__ndk1::ios_base&, std::__ndk1::ostreambuf_iterator)
PUBLIC 68a4 0 std::__ndk1::basic_string<char, std::__ndk1::char_traits<char>, std::__ndk1::allocator<char> >::__throw_length_error[abi:ne190000]() const
PUBLIC 68b8 0 std::__ndk1::__throw_length_error[abi:ne190000](char const*)
PUBLIC 6908 0 std::length_error::length_error[abi:ne190000](char const*)
PUBLIC 6938 0 std::__throw_bad_array_new_length([abi:ne190000], void)
PUBLIC 696c 0 std::__ndk1::basic_stringbuf<char, std::__ndk1::char_traits<char>, std::__ndk1::allocator<char> >::str[abi:ne190000]() &&
PUBLIC 6adc 0 std::__ndk1::basic_stringbuf<char, std::__ndk1::char_traits<char>, std::__ndk1::allocator<char> >::__init_buf_ptrs[abi:ne190000]()
PUBLIC 6c24 0 std::__ndk1::basic_string<char, std::__ndk1::char_traits<char>, std::__ndk1::allocator<char> >::__erase_external_with_move(unsigned long, unsigned long)
PUBLIC 6cac 0 std::__ndk1::__throw_out_of_range[abi:ne190000](char const*)
PUBLIC 6cfc 0 std::out_of_range::out_of_range[abi:ne190000](char const*)
PUBLIC 6d2c 0 std::__ndk1::vector<std::__ndk1::basic_string<char, std::__ndk1::char_traits<char>, std::__ndk1::allocator<char> >, std::__ndk1::allocator<std::__ndk1::basic_string<char, std::__ndk1::char_traits<char>, std::__ndk1::allocator<char> > > >::__push_back_slow_path<std::__ndk1::basic_string<char, std::__ndk1::char_traits<char>, std::__ndk1::allocator<char> > const&>(std::__ndk1::basic_string<char, std::__ndk1::char_traits<char>, std::__ndk1::allocator<char> > const&)
PUBLIC 6ed8 0 std::__ndk1::basic_string<char, std::__ndk1::char_traits<char>, std::__ndk1::allocator<char> >::__init_copy_ctor_external(char const*, unsigned long)
PUBLIC 6f6c 0 std::__ndk1::__split_buffer<std::__ndk1::basic_string<char, std::__ndk1::char_traits<char>, std::__ndk1::allocator<char> >, std::__ndk1::allocator<std::__ndk1::basic_string<char, std::__ndk1::char_traits<char>, std::__ndk1::allocator<char> > >&>::~__split_buffer()
PUBLIC 6fd4 0 std::__ndk1::vector<std::__ndk1::basic_string<char, std::__ndk1::char_traits<char>, std::__ndk1::allocator<char> >, std::__ndk1::allocator<std::__ndk1::basic_string<char, std::__ndk1::char_traits<char>, std::__ndk1::allocator<char> > > >::__throw_length_error[abi:ne190000]() const
PUBLIC 6fe8 0 std::__ndk1::__variant_detail::__visitation::__base::__dispatcher<(unsigned long)0>::__dispatch[abi:ne190000]<std::__ndk1::__variant_detail::__dtor<std::__ndk1::__variant_detail::__traits<geode::Hook*, std::__ndk1::basic_string<char, std::__ndk1::char_traits<char>, std::__ndk1::allocator<char> > >, (std::__ndk1::__variant_detail::_Trait)1>::__destroy[abi:ne190000]()::{lambda(auto:1&)#1}, std::__ndk1::__variant_detail::__base<(std::__ndk1::__variant_detail::__traits<geode::Hook*, std::__ndk1::basic_string<char, std::__ndk1::char_traits<char>, std::__ndk1::allocator<char> > >)1, geode::Hook, std::__ndk1::allocator<char> >&>(std::__ndk1::__variant_detail::__dtor<std::__ndk1::__variant_detail::__traits<geode::Hook*, std::__ndk1::basic_string<char, std::__ndk1::char_traits<char>, std::__ndk1::allocator<char> > >, (std::__ndk1::__variant_detail::_Trait)1>, std::__ndk1::__variant_detail::__base<(std::__ndk1::__variant_detail::__traits<geode::Hook*, std::__ndk1::basic_string<char, std::__ndk1::char_traits<char>, std::__ndk1::allocator<char> > >)1, geode::Hook, std::__ndk1::allocator<char> >&)
PUBLIC 6fec 0 std::__ndk1::__variant_detail::__visitation::__base::__dispatcher<(unsigned long)1>::__dispatch[abi:ne190000]<std::__ndk1::__variant_detail::__dtor<std::__ndk1::__variant_detail::__traits<geode::Hook*, std::__ndk1::basic_string<char, std::__ndk1::char_traits<char>, std::__ndk1::allocator<char> > >, (std::__ndk1::__variant_detail::_Trait)1>::__destroy[abi:ne190000]()::{lambda(auto:1&)#1}, std::__ndk1::__variant_detail::__base<(std::__ndk1::__variant_detail::__traits<geode::Hook*, std::__ndk1::basic_string<char, std::__ndk1::char_traits<char>, std::__ndk1::allocator<char> > >)1, geode::Hook, std::__ndk1::allocator<char> >&>(std::__ndk1::__variant_detail::__dtor<std::__ndk1::__variant_detail::__traits<geode::Hook*, std::__ndk1::basic_string<char, std::__ndk1::char_traits<char>, std::__ndk1::allocator<char> > >, (std::__ndk1::__variant_detail::_Trait)1>, std::__ndk1::__variant_detail::__base<(std::__ndk1::__variant_detail::__traits<geode::Hook*, std::__ndk1::basic_string<char, std::__ndk1::char_traits<char>, std::__ndk1::allocator<char> > >)1, geode::Hook, std::__ndk1::allocator<char> >&)
PUBLIC 7000 0 std::__ndk1::__tree<std::__ndk1::__value_type<std::__ndk1::basic_string<char, std::__ndk1::char_traits<char>, std::__ndk1::allocator<char> >, std::__ndk1::shared_ptr<geode::Hook> >, std::__ndk1::__map_value_compare<std::__ndk1::basic_string<char, std::__ndk1::char_traits<char>, std::__ndk1::allocator<char> >, std::__ndk1::__value_type<std::__ndk1::basic_string<char, std::__ndk1::char_traits<char>, std::__ndk1::allocator<char> >, std::__ndk1::shared_ptr<geode::Hook> >, std::__ndk1::less<std::__ndk1::basic_string<char, std::__ndk1::char_traits<char>, std::__ndk1::allocator<char> > >, true>, std::__ndk1::allocator<std::__ndk1::__value_type<std::__ndk1::basic_string<char, std::__ndk1::char_traits<char>, std::__ndk1::allocator<char> >, std::__ndk1::shared_ptr<geode::Hook> > > >::find<std::__ndk1::basic_string<char, std::__ndk1::char_traits<char>, std::__ndk1::allocator<char> > >(std::__ndk1::basic_string<char, std::__ndk1::char_traits<char>, std::__ndk1::allocator<char> > const&)
PUBLIC 7128 0 std::__ndk1::__tree<std::__ndk1::__value_type<std::__ndk1::basic_string<char, std::__ndk1::char_traits<char>, std::__ndk1::allocator<char> >, std::__ndk1::shared_ptr<geode::Hook> >, std::__ndk1::__map_value_compare<std::__ndk1::basic_string<char, std::__ndk1::char_traits<char>, std::__ndk1::allocator<char> >, std::__ndk1::__value_type<std::__ndk1::basic_string<char, std::__ndk1::char_traits<char>, std::__ndk1::allocator<char> >, std::__ndk1::shared_ptr<geode::Hook> >, std::__ndk1::less<std::__ndk1::basic_string<char, std::__ndk1::char_traits<char>, std::__ndk1::allocator<char> > >, true>, std::__ndk1::allocator<std::__ndk1::__value_type<std::__ndk1::basic_string<char, std::__ndk1::char_traits<char>, std::__ndk1::allocator<char> >, std::__ndk1::shared_ptr<geode::Hook> > > >::erase(std::__ndk1::__tree_const_iterator<std::__ndk1::__value_type<std::__ndk1::basic_string<char, std::__ndk1::char_traits<char>, std::__ndk1::allocator<char> >, std::__ndk1::shared_ptr<geode::Hook> >, std::__ndk1::__tree_node<std::__ndk1::__value_type<std::__ndk1::basic_string<char, std::__ndk1::char_traits<char>, std::__ndk1::allocator<char> >, std::__ndk1::shared_ptr<geode::Hook> >, void*>*, long>)
PUBLIC 75cc 0 std::__ndk1::__tree<std::__ndk1::__value_type<std::__ndk1::basic_string<char, std::__ndk1::char_traits<char>, std::__ndk1::allocator<char> >, std::__ndk1::shared_ptr<geode::Hook> >, std::__ndk1::__map_value_compare<std::__ndk1::basic_string<char, std::__ndk1::char_traits<char>, std::__ndk1::allocator<char> >, std::__ndk1::__value_type<std::__ndk1::basic_string<char, std::__ndk1::char_traits<char>, std::__ndk1::allocator<char> >, std::__ndk1::shared_ptr<geode::Hook> >, std::__ndk1::less<std::__ndk1::basic_string<char, std::__ndk1::char_traits<char>, std::__ndk1::allocator<char> > >, true>, std::__ndk1::allocator<std::__ndk1::__value_type<std::__ndk1::basic_string<char, std::__ndk1::char_traits<char>, std::__ndk1::allocator<char> >, std::__ndk1::shared_ptr<geode::Hook> > > >::destroy(std::__ndk1::__tree_node<std::__ndk1::__value_type<std::__ndk1::basic_string<char, std::__ndk1::char_traits<char>, std::__ndk1::allocator<char> >, std::__ndk1::shared_ptr<geode::Hook> >, void*>*)
PUBLIC 7650 0 geode::modifier::AsStaticFunction_init<LevelEditor, bool (LevelEditor::*)(GJGameLevel*, bool)>::Impl<bool (LevelEditor::*)(GJGameLevel*, bool)>::function(LevelEditor*, GJGameLevel*, bool)
PUBLIC 7fb4 0 geode::Hook::create<void (*)(LevelEditor*)>(void*, void (*)(LevelEditor*), std::__ndk1::basic_string<char, std::__ndk1::char_traits<char>, std::__ndk1::allocator<char> > const&, tulip::hook::TulipConvention, tulip::hook::HookMetadata const&)
PUBLIC 80e8 0 geode::modifier::AsStaticFunction_onPlaytest<LevelEditor, void (LevelEditor::*)()>::Impl<void (LevelEditor::*)()>::function(LevelEditor*)
PUBLIC 8510 0 geode::modifier::AsStaticFunction_onStopPlaytest<LevelEditor, void (LevelEditor::*)()>::Impl<void (LevelEditor::*)()>::function(LevelEditor*)
PUBLIC 8558 0 std::__ndk1::shared_ptr<tulip::hook::CallingConvention>::~shared_ptr[abi:ne190000]()
PUBLIC 85a8 0 tulip::hook::HandlerMetadata::~HandlerMetadata()
PUBLIC 860c 0 geode::Mod::getSettingValue<bool>(std::__ndk1::basic_string_view<char, std::__ndk1::char_traits<char> >) const
PUBLIC 8734 0 geode::Mod::getSettingValue<cocos2d::_ccColor4B>(std::__ndk1::basic_string_view<char, std::__ndk1::char_traits<char> >) const
PUBLIC 8848 0 geode::cast::traverseTypeinfoFor(void*, geode::cast::ClassTypeinfoType const*, char const*)
PUBLIC 8940 0 geode::modifier::FieldIntermediate<LevelEditor, LevelEditorLayer>::self()
PUBLIC 8bdc 0 geode::modifier::FieldContainer::getField(unsigned long)
PUBLIC 8fac 0 geode::modifier::FieldContainer::setField(unsigned long, unsigned long, std::__ndk1::function<void (void*)>)
PUBLIC 90b8 0 geode::modifier::FieldIntermediate<LevelEditor, LevelEditorLayer>::fieldDestructor(void*)
PUBLIC 90bc 0 std::__ndk1::vector<void*, std::__ndk1::allocator<void*> >::__throw_length_error[abi:ne190000]() const
PUBLIC 90d0 0 std::__ndk1::vector<std::__ndk1::function<void (void*)>, std::__ndk1::allocator<std::__ndk1::function<void (void*)> > >::__throw_length_error[abi:ne190000]() const
PUBLIC 90e4 0 std::__ndk1::vector<void*, std::__ndk1::allocator<void*> >::__throw_out_of_range[abi:ne190000]() const
PUBLIC 90f0 0 std::__ndk1::vector<std::__ndk1::function<void (void*)>, std::__ndk1::allocator<std::__ndk1::function<void (void*)> > >::__throw_out_of_range[abi:ne190000]() const
PUBLIC 90fc 0 std::__ndk1::__function::__base<void (void*)>::~__base()
PUBLIC 9100 0 std::__ndk1::__function::__func<void (*)(void*), std::__ndk1::allocator<void (*)(void*)>, void (void*)>::~__func()
PUBLIC 9104 0 std::__ndk1::__function::__func<void (*)(void*), std::__ndk1::allocator<void (*)(void*)>, void (void*)>::__clone() const
PUBLIC 913c 0 std::__ndk1::__function::__func<void (*)(void*), std::__ndk1::allocator<void (*)(void*)>, void (void*)>::__clone(std::__ndk1::__function::__base<void (void*)>*) const
PUBLIC 9154 0 std::__ndk1::__function::__func<void (*)(void*), std::__ndk1::allocator<void (*)(void*)>, void (void*)>::destroy()
PUBLIC 9158 0 std::__ndk1::__function::__func<void (*)(void*), std::__ndk1::allocator<void (*)(void*)>, void (void*)>::destroy_deallocate()
PUBLIC 915c 0 std::__ndk1::__function::__func<void (*)(void*), std::__ndk1::allocator<void (*)(void*)>, void (void*)>::operator()(void*&&)
PUBLIC 916c 0 std::__ndk1::__function::__func<void (*)(void*), std::__ndk1::allocator<void (*)(void*)>, void (void*)>::target(std::type_info const&) const
PUBLIC 9188 0 std::__ndk1::__function::__func<void (*)(void*), std::__ndk1::allocator<void (*)(void*)>, void (void*)>::target_type() const
PUBLIC 9194 0 geode::Mod::getSettingValue<double>(std::__ndk1::basic_string_view<char, std::__ndk1::char_traits<char> >) const
PUBLIC 92c0 0 std::__ndk1::__tree<std::__ndk1::__value_type<std::__ndk1::basic_string<char, std::__ndk1::char_traits<char>, std::__ndk1::allocator<char> >, std::__ndk1::shared_ptr<geode::Hook> >, std::__ndk1::__map_value_compare<std::__ndk1::basic_string<char, std::__ndk1::char_traits<char>, std::__ndk1::allocator<char> >, std::__ndk1::__value_type<std::__ndk1::basic_string<char, std::__ndk1::char_traits<char>, std::__ndk1::allocator<char> >, std::__ndk1::shared_ptr<geode::Hook> >, std::__ndk1::less<std::__ndk1::basic_string<char, std::__ndk1::char_traits<char>, std::__ndk1::allocator<char> > >, true>, std::__ndk1::allocator<std::__ndk1::__value_type<std::__ndk1::basic_string<char, std::__ndk1::char_traits<char>, std::__ndk1::allocator<char> >, std::__ndk1::shared_ptr<geode::Hook> > > >::__emplace_unique_key_args<std::__ndk1::basic_string<char, std::__ndk1::char_traits<char>, std::__ndk1::allocator<char> >, std::__ndk1::piecewise_construct_t const&, std::__ndk1::tuple<std::__ndk1::basic_string<char, std::__ndk1::char_traits<char>, std::__ndk1::allocator<char> >&&>, std::__ndk1::tuple<> >(std::__ndk1::basic_string<char, std::__ndk1::char_traits<char>, std::__ndk1::allocator<char> > const&, std::__ndk1::piecewise_construct_t const&, std::__ndk1::tuple<std::__ndk1::basic_string<char, std::__ndk1::char_traits<char>, std::__ndk1::allocator<char> >&&>, std::__ndk1::tuple<>)
PUBLIC 9428 0 std::__ndk1::__tree_balance_after_insert[abi:ne190000]<std::__ndk1::__tree_node_base<void*>*>(std::__ndk1::__tree_node_base<void*>*, std::__ndk1::__tree_node_base<void*>*)
PUBLIC 95d0 0 LevelEditor::trailUpdate(float)
PUBLIC 9868 0 geode::modifier::ModifyDerive<Player, PlayerObject>::apply()
PUBLIC 9cac 0 geode::modifier::ModifyBase<geode::modifier::ModifyDerive<Player, PlayerObject> >::apply()
PUBLIC 9cb0 0 geode::Hook::create<bool (*)(Player*, PlayerButton)>(void*, bool (*)(Player*, PlayerButton), std::__ndk1::basic_string<char, std::__ndk1::char_traits<char>, std::__ndk1::allocator<char> > const&, tulip::hook::TulipConvention, tulip::hook::HookMetadata const&)
PUBLIC 9e34 0 geode::modifier::AsStaticFunction_pushButton<Player, bool (Player::*)(PlayerButton)>::Impl<bool (Player::*)(PlayerButton)>::function(Player*, PlayerButton)
PUBLIC 9ec4 0 geode::modifier::AsStaticFunction_releaseButton<Player, bool (Player::*)(PlayerButton)>::Impl<bool (Player::*)(PlayerButton)>::function(Player*, PlayerButton)
PUBLIC 9f40 0 LevelEditor::trailAddClick(bool, bool, PlayerObject*, bool, PlayerButton)
PUBLIC a4f4 0 geode::modifier::FieldIntermediate<Player, PlayerObject>::self()
PUBLIC a6d4 0 geode::modifier::FieldIntermediate<Player, PlayerObject>::fieldDestructor(void*)
PUBLIC a6d8 0 geode::Mod::getSettingValue<std::__ndk1::basic_string<char, std::__ndk1::char_traits<char>, std::__ndk1::allocator<char> > >(std::__ndk1::basic_string_view<char, std::__ndk1::char_traits<char> >) const
PUBLIC a868 0 std::__ndk1::shared_ptr<geode::StringSettingV3>::~shared_ptr[abi:ne190000]()
PUBLIC a8b8 0 _GLOBAL__sub_I_main.cpp
PUBLIC a904 0 geode::getMod()
PUBLIC m a940 0 geodeImplicitEntry
PUBLIC a97c 0 LevelEditorLayer::get()
PUBLIC a994 0 __CortexA53843419_8000
PUBLIC a9a0 0 <.plt ELF section in nwo5.better_editor_trail.android64.so>
STACK CFI INIT 4b60 10 .cfa: sp 0 +
STACK CFI INIT 4b70 8 .cfa: sp 0 +
STACK CFI INIT 4b78 8 .cfa: sp 0 +
STACK CFI INIT 4b80 14 .cfa: sp 0 +
STACK CFI INIT 4b94 1c .cfa: sp 0 +
STACK CFI INIT 4bb0 10 .cfa: sp 0 +
STACK CFI INIT 4bc0 30 .cfa: sp 0 +
STACK CFI INIT 4bf0 98 .cfa: sp 0 +
STACK CFI INIT 4c88 2ac .cfa: sp 0 +
STACK CFI INIT 4f34 8c .cfa: sp 0 +
STACK CFI INIT 4fc0 30 .cfa: sp 0 +
STACK CFI INIT 5464 18 .cfa: sp 0 +
STACK CFI INIT 58f0 18 .cfa: sp 0 +
STACK CFI INIT 6060 50 .cfa: sp 0 +
STACK CFI 6064 .cfa: sp 32 +
STACK CFI 606c .cfa: x29 32 + x19: .cfa -16 + ^ .ra: .cfa -24 + ^ x29: .cfa -32 + ^
STACK CFI 6084 .cfa: sp 32 +
STACK CFI 608c .cfa: sp 0 +
STACK CFI 6090 .cfa: x29 32 +
STACK CFI 60a4 .cfa: sp 32 +
STACK CFI 60ac .cfa: sp 0 +
STACK CFI INIT 6124 7c .cfa: sp 0 +
STACK CFI 6128 .cfa: sp 48 +
STACK CFI 6134 .cfa: x29 48 + x19: .cfa -8 + ^ x20: .cfa -16 + ^ x21: .cfa -32 + ^ .ra: .cfa -40 + ^ x29: .cfa -48 + ^
STACK CFI 6180 .cfa: sp 48 +
STACK CFI 618c .cfa: sp 0 +
STACK CFI 6190 .cfa: sp 48 +
STACK CFI 619c .cfa: sp 0 +
STACK CFI INIT 61a0 4 .cfa: sp 0 +
STACK CFI INIT 61a4 10 .cfa: sp 0 +
STACK CFI 61a8 .cfa: sp 16 +
STACK CFI 61ac .cfa: x29 16 + .ra: .cfa -8 + ^ x29: .cfa -16 + ^
STACK CFI INIT 6308 34 .cfa: sp 0 +
STACK CFI 630c .cfa: sp 16 +
STACK CFI 6310 .cfa: x29 16 + .ra: .cfa -8 + ^ x29: .cfa -16 + ^
STACK CFI INIT 6470 80 .cfa: sp 0 +
STACK CFI 6474 .cfa: sp 48 +
STACK CFI 6480 .cfa: x29 48 + x19: .cfa -8 + ^ x20: .cfa -16 + ^ x21: .cfa -32 + ^ .ra: .cfa -40 + ^ x29: .cfa -48 + ^
STACK CFI 64e0 .cfa: sp 48 +
STACK CFI 64ec .cfa: sp 0 +
STACK CFI INIT 64f0 24 .cfa: sp 0 +
STACK CFI 64f4 .cfa: sp 32 +
STACK CFI 64fc .cfa: x29 32 + x19: .cfa -16 + ^ .ra: .cfa -24 + ^ x29: .cfa -32 + ^
STACK CFI 6508 .cfa: sp 32 +
STACK CFI 6510 .cfa: sp 0 +
STACK CFI INIT 68a4 14 .cfa: sp 0 +
STACK CFI 68a8 .cfa: sp 16 +
STACK CFI 68ac .cfa: x29 16 + .ra: .cfa -8 + ^ x29: .cfa -16 + ^
STACK CFI INIT 6908 30 .cfa: sp 0 +
STACK CFI 690c .cfa: sp 32 +
STACK CFI 6914 .cfa: x29 32 + x19: .cfa -16 + ^ .ra: .cfa -24 + ^ x29: .cfa -32 + ^
STACK CFI 692c .cfa: sp 32 +
STACK CFI 6934 .cfa: sp 0 +
STACK CFI INIT 6938 34 .cfa: sp 0 +
STACK CFI 693c .cfa: sp 32 +
STACK CFI 6944 .cfa: x29 32 + x19: .cfa -16 + ^ .ra: .cfa -24 + ^ x29: .cfa -32 + ^
STACK CFI INIT 6adc 148 .cfa: sp 0 +
STACK CFI 6ae0 .cfa: sp 48 +
STACK CFI 6aec .cfa: x29 48 + x19: .cfa -8 + ^ x20: .cfa -16 + ^ x21: .cfa -32 + ^ .ra: .cfa -40 + ^ x29: .cfa -48 + ^
STACK CFI 6c14 .cfa: sp 48 +
STACK CFI 6c20 .cfa: sp 0 +
STACK CFI INIT 6c24 88 .cfa: sp 0 +
STACK CFI 6c2c .cfa: sp 48 +
STACK CFI 6c38 .cfa: x29 48 + x19: .cfa -8 + ^ x20: .cfa -16 + ^ x21: .cfa -24 + ^ x22: .cfa -32 + ^ .ra: .cfa -40 + ^ x29: .cfa -48 + ^
STACK CFI 6c9c .cfa: sp 48 +
STACK CFI 6ca8 .cfa: sp 0 +
STACK CFI INIT 6cfc 30 .cfa: sp 0 +
STACK CFI 6d00 .cfa: sp 32 +
STACK CFI 6d08 .cfa: x29 32 + x19: .cfa -16 + ^ .ra: .cfa -24 + ^ x29: .cfa -32 + ^
STACK CFI 6d20 .cfa: sp 32 +
STACK CFI 6d28 .cfa: sp 0 +
STACK CFI INIT 6ed8 94 .cfa: sp 0 +
STACK CFI 6edc .cfa: sp 48 +
STACK CFI 6ee8 .cfa: x29 48 + x19: .cfa -8 + ^ x20: .cfa -16 + ^ x21: .cfa -24 + ^ x22: .cfa -32 + ^ .ra: .cfa -40 + ^ x29: .cfa -48 + ^
STACK CFI 6f00 .cfa: sp 48 +
STACK CFI 6f0c .cfa: sp 0 +
STACK CFI 6f10 .cfa: x29 48 +
STACK CFI 6f54 .cfa: sp 48 +
STACK CFI 6f60 .cfa: sp 0 +
STACK CFI 6f64 .cfa: x29 48 +
STACK CFI INIT 6f6c 68 .cfa: sp 0 +
STACK CFI 6f70 .cfa: sp 32 +
STACK CFI 6f78 .cfa: x29 32 + x19: .cfa -8 + ^ x20: .cfa -16 + ^ .ra: .cfa -24 + ^ x29: .cfa -32 + ^
STACK CFI 6f90 .cfa: sp 32 +
STACK CFI 6f98 .cfa: sp 0 +
STACK CFI 6f9c .cfa: x29 32 +
STACK CFI 6fc8 .cfa: sp 32 +
STACK CFI 6fd0 .cfa: sp 0 +
STACK CFI INIT 6fd4 14 .cfa: sp 0 +
STACK CFI 6fd8 .cfa: sp 16 +
STACK CFI 6fdc .cfa: x29 16 + .ra: .cfa -8 + ^ x29: .cfa -16 + ^
STACK CFI INIT 6fe8 4 .cfa: sp 0 +
STACK CFI INIT 6fec 14 .cfa: sp 0 +
STACK CFI INIT 7000 128 .cfa: sp 0 +
STACK CFI 7004 .cfa: sp 64 +
STACK CFI 7014 .cfa: x29 64 + x19: .cfa -8 + ^ x20: .cfa -16 + ^ x21: .cfa -24 + ^ x22: .cfa -32 + ^ x23: .cfa -40 + ^ x24: .cfa -48 + ^ .ra: .cfa -56 + ^ x29: .cfa -64 + ^
STACK CFI 7114 .cfa: sp 64 +
STACK CFI 7124 .cfa: sp 0 +
STACK CFI INIT 7128 4a4 .cfa: sp 0 +
STACK CFI 712c .cfa: sp 32 +
STACK CFI 7134 .cfa: x29 32 + x19: .cfa -8 + ^ x20: .cfa -16 + ^ .ra: .cfa -24 + ^ x29: .cfa -32 + ^
STACK CFI 7514 .cfa: sp 32 +
STACK CFI 751c .cfa: sp 0 +
STACK CFI 7520 .cfa: x29 32 +
STACK CFI INIT 75cc 84 .cfa: sp 0 +
STACK CFI 75d4 .cfa: sp 32 +
STACK CFI 75dc .cfa: x29 32 + x19: .cfa -8 + ^ x20: .cfa -16 + ^ .ra: .cfa -24 + ^ x29: .cfa -32 + ^
STACK CFI 761c .cfa: sp 32 +
STACK CFI 7624 .cfa: sp 0 +
STACK CFI 762c .cfa: x29 32 +
STACK CFI INIT 7650 964 .cfa: sp 0 +
STACK CFI 7654 .cfa: sp 112 +
STACK CFI 766c .cfa: x29 80 + x19: .cfa -8 + ^ x20: .cfa -16 + ^ x21: .cfa -24 + ^ x22: .cfa -32 + ^ x23: .cfa -40 + ^ x24: .cfa -48 + ^ x25: .cfa -64 + ^ .ra: .cfa -72 + ^ x29: .cfa -80 + ^
STACK CFI 7f98 .cfa: sp 112 +
STACK CFI 7fb0 .cfa: sp 0 +
STACK CFI INIT 80e8 428 .cfa: sp 0 +
STACK CFI 80ec .cfa: sp 112 +
STACK CFI 8108 .cfa: x29 80 + x19: .cfa -8 + ^ x20: .cfa -16 + ^ x21: .cfa -24 + ^ x22: .cfa -32 + ^ x23: .cfa -40 + ^ x24: .cfa -48 + ^ x25: .cfa -56 + ^ x26: .cfa -64 + ^ .ra: .cfa -72 + ^ x29: .cfa -80 + ^ v8: .cfa -88 + ^ v9: .cfa -96 + ^ v10: .cfa -104 + ^ v11: .cfa -112 + ^
STACK CFI 84f0 .cfa: sp 112 +
STACK CFI 850c .cfa: sp 0 +
STACK CFI INIT 8510 48 .cfa: sp 0 +
STACK CFI 8514 .cfa: sp 32 +
STACK CFI 851c .cfa: x29 32 + x19: .cfa -16 + ^ .ra: .cfa -24 + ^ x29: .cfa -32 + ^
STACK CFI 854c .cfa: sp 32 +
STACK CFI 8554 .cfa: sp 0 +
STACK CFI INIT 8558 50 .cfa: sp 0 +
STACK CFI 855c .cfa: sp 32 +
STACK CFI 8564 .cfa: x29 32 + x19: .cfa -16 + ^ .ra: .cfa -24 + ^ x29: .cfa -32 + ^
STACK CFI 857c .cfa: sp 32 +
STACK CFI 8584 .cfa: sp 0 +
STACK CFI 8588 .cfa: x29 32 +
STACK CFI 859c .cfa: sp 32 +
STACK CFI 85a4 .cfa: sp 0 +
STACK CFI INIT 85a8 64 .cfa: sp 0 +
STACK CFI 85ac .cfa: sp 32 +
STACK CFI 85b4 .cfa: x29 32 + x19: .cfa -16 + ^ .ra: .cfa -24 + ^ x29: .cfa -32 + ^
STACK CFI 85e0 .cfa: sp 32 +
STACK CFI 85e8 .cfa: sp 0 +
STACK CFI 85ec .cfa: x29 32 +
STACK CFI 8600 .cfa: sp 32 +
STACK CFI 8608 .cfa: sp 0 +
STACK CFI INIT 860c 128 .cfa: sp 0 +
STACK CFI 8610 .cfa: sp 80 +
STACK CFI 8620 .cfa: x29 48 + x19: .cfa -8 + ^ x20: .cfa -16 + ^ x21: .cfa -24 + ^ x22: .cfa -32 + ^ .ra: .cfa -40 + ^ x29: .cfa -48 + ^
STACK CFI 871c .cfa: sp 80 +
STACK CFI 872c .cfa: sp 0 +
STACK CFI 8730 .cfa: x29 48 +
STACK CFI INIT 8734 114 .cfa: sp 0 +
STACK CFI 8738 .cfa: sp 80 +
STACK CFI 8748 .cfa: x29 48 + x19: .cfa -8 + ^ x20: .cfa -16 + ^ x21: .cfa -24 + ^ x22: .cfa -32 + ^ .ra: .cfa -40 + ^ x29: .cfa -48 + ^
STACK CFI 8830 .cfa: sp 80 +
STACK CFI 8840 .cfa: sp 0 +
STACK CFI 8844 .cfa: x29 48 +
STACK CFI INIT 8848 f8 .cfa: sp 0 +
STACK CFI 884c .cfa: sp 64 +
STACK CFI 885c .cfa: x29 64 + x19: .cfa -8 + ^ x20: .cfa -16 + ^ x21: .cfa -24 + ^ x22: .cfa -32 + ^ x23: .cfa -48 + ^ .ra: .cfa -56 + ^ x29: .cfa -64 + ^
STACK CFI 88b8 .cfa: sp 64 +
STACK CFI 88c8 .cfa: sp 0 +
STACK CFI 88cc .cfa: x29 64 +
STACK CFI 88e8 .cfa: sp 64 +
STACK CFI 88f8 .cfa: sp 0 +
STACK CFI 88fc .cfa: x29 64 +
STACK CFI 892c .cfa: sp 64 +
STACK CFI 893c .cfa: sp 0 +
STACK CFI INIT 90b8 4 .cfa: sp 0 +
STACK CFI INIT 90bc 14 .cfa: sp 0 +
STACK CFI 90c0 .cfa: sp 16 +
STACK CFI 90c4 .cfa: x29 16 + .ra: .cfa -8 + ^ x29: .cfa -16 + ^
STACK CFI INIT 90d0 14 .cfa: sp 0 +
STACK CFI 90d4 .cfa: sp 16 +
STACK CFI 90d8 .cfa: x29 16 + .ra: .cfa -8 + ^ x29: .cfa -16 + ^
STACK CFI INIT 90e4 c .cfa: sp 0 +
STACK CFI 90e8 .cfa: sp 16 +
STACK CFI 90ec .cfa: x29 16 + .ra: .cfa -8 + ^ x29: .cfa -16 + ^
STACK CFI INIT 90f0 c .cfa: sp 0 +
STACK CFI 90f4 .cfa: sp 16 +
STACK CFI 90f8 .cfa: x29 16 + .ra: .cfa -8 + ^ x29: .cfa -16 + ^
STACK CFI INIT 90fc 4 .cfa: sp 0 +
STACK CFI INIT 9100 4 .cfa: sp 0 +
STACK CFI INIT 9104 38 .cfa: sp 0 +
STACK CFI 9108 .cfa: sp 32 +
STACK CFI 9110 .cfa: x29 32 + x19: .cfa -16 + ^ .ra: .cfa -24 + ^ x29: .cfa -32 + ^
STACK CFI 9130 .cfa: sp 32 +
STACK CFI 9138 .cfa: sp 0 +
STACK CFI INIT 913c 18 .cfa: sp 0 +
STACK CFI INIT 9154 4 .cfa: sp 0 +
STACK CFI INIT 9158 4 .cfa: sp 0 +
STACK CFI INIT 915c 10 .cfa: sp 0 +
STACK CFI INIT 916c 1c .cfa: sp 0 +
STACK CFI INIT 9188 c .cfa: sp 0 +
STACK CFI INIT 9194 12c .cfa: sp 0 +
STACK CFI 9198 .cfa: sp 96 +
STACK CFI 91ac .cfa: x29 48 + x19: .cfa -8 + ^ x20: .cfa -16 + ^ x21: .cfa -24 + ^ x22: .cfa -32 + ^ .ra: .cfa -40 + ^ x29: .cfa -48 + ^ v8: .cfa -64 + ^
STACK CFI 92a4 .cfa: sp 96 +
STACK CFI 92b8 .cfa: sp 0 +
STACK CFI 92bc .cfa: x29 48 +
STACK CFI INIT 92c0 168 .cfa: sp 0 +
STACK CFI 92c4 .cfa: sp 80 +
STACK CFI 92d8 .cfa: x29 80 + x19: .cfa -8 + ^ x20: .cfa -16 + ^ x21: .cfa -24 + ^ x22: .cfa -32 + ^ x23: .cfa -40 + ^ x24: .cfa -48 + ^ x25: .cfa -56 + ^ x26: .cfa -64 + ^ .ra: .cfa -72 + ^ x29: .cfa -80 + ^
STACK CFI 9410 .cfa: sp 80 +
STACK CFI 9424 .cfa: sp 0 +
STACK CFI INIT 9428 1a8 .cfa: sp 0 +
STACK CFI INIT 95d0 298 .cfa: sp 0 +
STACK CFI 95d4 .cfa: sp 80 +
STACK CFI 95e8 .cfa: x29 64 + x19: .cfa -8 + ^ x20: .cfa -16 + ^ x21: .cfa -24 + ^ x22: .cfa -32 + ^ x23: .cfa -40 + ^ x24: .cfa -48 + ^ .ra: .cfa -56 + ^ x29: .cfa -64 + ^
STACK CFI 984c .cfa: sp 80 +
STACK CFI 9860 .cfa: sp 0 +
STACK CFI 9864 .cfa: x29 64 +
STACK CFI INIT 9cac 4 .cfa: sp 0 +
STACK CFI INIT 9e34 90 .cfa: sp 0 +
STACK CFI 9e38 .cfa: sp 48 +
STACK CFI 9e44 .cfa: x29 48 + x19: .cfa -8 + ^ x20: .cfa -16 + ^ x21: .cfa -32 + ^ .ra: .cfa -40 + ^ x29: .cfa -48 + ^
STACK CFI 9eb4 .cfa: sp 48 +
STACK CFI 9ec0 .cfa: sp 0 +
STACK CFI INIT 9ec4 7c .cfa: sp 0 +
STACK CFI 9ec8 .cfa: sp 48 +
STACK CFI 9ed4 .cfa: x29 48 + x19: .cfa -8 + ^ x20: .cfa -16 + ^ x21: .cfa -32 + ^ .ra: .cfa -40 + ^ x29: .cfa -48 + ^
STACK CFI 9f30 .cfa: sp 48 +
STACK CFI 9f3c .cfa: sp 0 +
STACK CFI INIT 9f40 5b4 .cfa: sp 0 +
STACK CFI 9f44 .cfa: sp 272 +
STACK CFI 9f6c .cfa: x29 96 + x19: .cfa -8 + ^ x20: .cfa -16 + ^ x21: .cfa -24 + ^ x22: .cfa -32 + ^ x23: .cfa -40 + ^ x24: .cfa -48 + ^ x25: .cfa -56 + ^ x26: .cfa -64 + ^ x27: .cfa -72 + ^ x28: .cfa -80 + ^ .ra: .cfa -88 + ^ x29: .cfa -96 + ^ v8: .cfa -104 + ^ v9: .cfa -112 + ^ v10: .cfa -120 + ^ v11: .cfa -128 + ^ v12: .cfa -144 + ^
STACK CFI a4c4 .cfa: sp 272 +
STACK CFI a4ec .cfa: sp 0 +
STACK CFI a4f0 .cfa: x29 96 +
STACK CFI INIT a6d4 4 .cfa: sp 0 +
STACK CFI INIT a868 50 .cfa: sp 0 +
STACK CFI a86c .cfa: sp 32 +
STACK CFI a874 .cfa: x29 32 + x19: .cfa -16 + ^ .ra: .cfa -24 + ^ x29: .cfa -32 + ^
STACK CFI a88c .cfa: sp 32 +
STACK CFI a894 .cfa: sp 0 +
STACK CFI a898 .cfa: x29 32 +
STACK CFI a8ac .cfa: sp 32 +
STACK CFI a8b4 .cfa: sp 0 +
STACK CFI INIT a8b8 4c .cfa: sp 0 +
STACK CFI a8bc .cfa: sp 32 +
STACK CFI a8c4 .cfa: x29 32 + x19: .cfa -16 + ^ .ra: .cfa -24 + ^ x29: .cfa -32 + ^
STACK CFI a8d8 .cfa: sp 32 +
STACK CFI a8e0 .cfa: sp 0 +
STACK CFI a8e4 .cfa: x29 32 +
STACK CFI a8f8 .cfa: sp 32 +
STACK CFI a900 .cfa: sp 0 +
STACK CFI INIT a904 3c .cfa: sp 0 +
STACK CFI a908 .cfa: sp 32 +
STACK CFI a910 .cfa: x29 32 + x19: .cfa -16 + ^ .ra: .cfa -24 + ^ x29: .cfa -32 + ^
STACK CFI a91c .cfa: sp 32 +
STACK CFI a924 .cfa: sp 0 +
STACK CFI a928 .cfa: x29 32 +
STACK CFI a934 .cfa: sp 32 +
STACK CFI a93c .cfa: sp 0 +
STACK CFI INIT a940 3c .cfa: sp 0 +
STACK CFI a944 .cfa: sp 32 +
STACK CFI a94c .cfa: x29 32 + x19: .cfa -16 + ^ .ra: .cfa -24 + ^ x29: .cfa -32 + ^
STACK CFI a958 .cfa: sp 32 +
STACK CFI a960 .cfa: sp 0 +
STACK CFI a964 .cfa: x29 32 +
STACK CFI a970 .cfa: sp 32 +
STACK CFI a978 .cfa: sp 0 +
STACK CFI INIT a97c 18 .cfa: sp 0 +
STACK CFI a980 .cfa: sp 16 +
STACK CFI a984 .cfa: x29 16 + .ra: .cfa -8 + ^ x29: .cfa -16 + ^
STACK CFI a98c .cfa: sp 16 +
STACK CFI a990 .cfa: sp 0 +
STACK CFI INIT 4ff0 474 .cfa: sp 0 +
STACK CFI 4ff4 .cfa: sp 224 +
STACK CFI 5010 .cfa: x29 96 + x19: .cfa -8 + ^ x20: .cfa -16 + ^ x21: .cfa -24 + ^ x22: .cfa -32 + ^ x23: .cfa -40 + ^ x24: .cfa -48 + ^ x25: .cfa -56 + ^ x26: .cfa -64 + ^ x27: .cfa -72 + ^ x28: .cfa -80 + ^ .ra: .cfa -88 + ^ x29: .cfa -96 + ^
STACK CFI 5270 .cfa: sp 224 +
STACK CFI 528c .cfa: sp 0 +
STACK CFI 5290 .cfa: x29 96 +
STACK CFI 535c .cfa: sp 224 +
STACK CFI 5378 .cfa: sp 0 +
STACK CFI 537c .cfa: x29 96 +
STACK CFI INIT 547c 474 .cfa: sp 0 +
STACK CFI 5480 .cfa: sp 224 +
STACK CFI 549c .cfa: x29 96 + x19: .cfa -8 + ^ x20: .cfa -16 + ^ x21: .cfa -24 + ^ x22: .cfa -32 + ^ x23: .cfa -40 + ^ x24: .cfa -48 + ^ x25: .cfa -56 + ^ x26: .cfa -64 + ^ x27: .cfa -72 + ^ x28: .cfa -80 + ^ .ra: .cfa -88 + ^ x29: .cfa -96 + ^
STACK CFI 56fc .cfa: sp 224 +
STACK CFI 5718 .cfa: sp 0 +
STACK CFI 571c .cfa: x29 96 +
STACK CFI 57e8 .cfa: sp 224 +
STACK CFI 5804 .cfa: sp 0 +
STACK CFI 5808 .cfa: x29 96 +
STACK CFI INIT 5908 758 .cfa: sp 0 +
STACK CFI 590c .cfa: sp 224 +
STACK CFI 5920 .cfa: x29 64 + x19: .cfa -8 + ^ x20: .cfa -16 + ^ x21: .cfa -24 + ^ x22: .cfa -32 + ^ x23: .cfa -40 + ^ x24: .cfa -48 + ^ .ra: .cfa -56 + ^ x29: .cfa -64 + ^
STACK CFI 5e14 .cfa: sp 224 +
STACK CFI 5e28 .cfa: sp 0 +
STACK CFI 5e2c .cfa: x29 64 +
STACK CFI INIT 60b0 74 .cfa: sp 0 +
STACK CFI 60b4 .cfa: sp 48 +
STACK CFI 60c0 .cfa: x29 32 + x19: .cfa -8 + ^ x20: .cfa -16 + ^ .ra: .cfa -24 + ^ x29: .cfa -32 + ^
STACK CFI 610c .cfa: sp 48 +
STACK CFI 6118 .cfa: sp 0 +
STACK CFI 611c .cfa: x29 32 +
STACK CFI INIT 61b4 154 .cfa: sp 0 +
STACK CFI 61b8 .cfa: sp 384 +
STACK CFI 61cc .cfa: x29 64 + x19: .cfa -8 + ^ x20: .cfa -16 + ^ x21: .cfa -24 + ^ x22: .cfa -32 + ^ x23: .cfa -40 + ^ x28: .cfa -48 + ^ .ra: .cfa -56 + ^ x29: .cfa -64 + ^
STACK CFI 62b0 .cfa: sp 384 +
STACK CFI 62c4 .cfa: sp 0 +
STACK CFI 62c8 .cfa: x29 64 +
STACK CFI INIT 633c 134 .cfa: sp 0 +
STACK CFI 6340 .cfa: sp 80 +
STACK CFI 6354 .cfa: x29 80 + x19: .cfa -8 + ^ x20: .cfa -16 + ^ x21: .cfa -24 + ^ x22: .cfa -32 + ^ x23: .cfa -40 + ^ x24: .cfa -48 + ^ x25: .cfa -56 + ^ x26: .cfa -64 + ^ .ra: .cfa -72 + ^ x29: .cfa -80 + ^
STACK CFI 6424 .cfa: sp 80 +
STACK CFI 6438 .cfa: sp 0 +
STACK CFI 643c .cfa: x29 80 +
STACK CFI INIT 6514 1a4 .cfa: sp 0 +
STACK CFI 6518 .cfa: sp 112 +
STACK CFI 6530 .cfa: x29 80 + x19: .cfa -8 + ^ x20: .cfa -16 + ^ x21: .cfa -24 + ^ x22: .cfa -32 + ^ x23: .cfa -40 + ^ x24: .cfa -48 + ^ x25: .cfa -56 + ^ x26: .cfa -64 + ^ .ra: .cfa -72 + ^ x29: .cfa -80 + ^
STACK CFI 6620 .cfa: sp 112 +
STACK CFI 6638 .cfa: sp 0 +
STACK CFI 663c .cfa: x29 80 +
STACK CFI INIT 66b8 1ec .cfa: sp 0 +
STACK CFI 66bc .cfa: sp 128 +
STACK CFI 66d8 .cfa: x29 96 + x19: .cfa -8 + ^ x20: .cfa -16 + ^ x21: .cfa -24 + ^ x22: .cfa -32 + ^ x23: .cfa -40 + ^ x24: .cfa -48 + ^ x25: .cfa -56 + ^ x26: .cfa -64 + ^ x27: .cfa -80 + ^ .ra: .cfa -88 + ^ x29: .cfa -96 + ^
STACK CFI 6854 .cfa: sp 128 +
STACK CFI 6870 .cfa: sp 0 +
STACK CFI 6874 .cfa: x29 96 +
STACK CFI INIT 68b8 50 .cfa: sp 0 +
STACK CFI 68bc .cfa: sp 32 +
STACK CFI 68c4 .cfa: x29 32 + x19: .cfa -8 + ^ x20: .cfa -16 + ^ .ra: .cfa -24 + ^ x29: .cfa -32 + ^
STACK CFI INIT 696c 170 .cfa: sp 0 +
STACK CFI 6970 .cfa: sp 48 +
STACK CFI 697c .cfa: x29 48 + x19: .cfa -8 + ^ x20: .cfa -16 + ^ x21: .cfa -32 + ^ .ra: .cfa -40 + ^ x29: .cfa -48 + ^
STACK CFI 6ab0 .cfa: sp 48 +
STACK CFI 6abc .cfa: sp 0 +
STACK CFI 6ac0 .cfa: x29 48 +
STACK CFI INIT 6cac 50 .cfa: sp 0 +
STACK CFI 6cb0 .cfa: sp 32 +
STACK CFI 6cb8 .cfa: x29 32 + x19: .cfa -8 + ^ x20: .cfa -16 + ^ .ra: .cfa -24 + ^ x29: .cfa -32 + ^
STACK CFI INIT 6d2c 1ac .cfa: sp 0 +
STACK CFI 6d30 .cfa: sp 128 +
STACK CFI 6d48 .cfa: x29 80 + x19: .cfa -8 + ^ x20: .cfa -16 + ^ x21: .cfa -24 + ^ x22: .cfa -32 + ^ x23: .cfa -40 + ^ x24: .cfa -48 + ^ x25: .cfa -64 + ^ .ra: .cfa -72 + ^ x29: .cfa -80 + ^
STACK CFI 6e6c .cfa: sp 128 +
STACK CFI 6e84 .cfa: sp 0 +
STACK CFI 6e88 .cfa: x29 80 +
STACK CFI INIT 7fb4 134 .cfa: sp 0 +
STACK CFI 7fb8 .cfa: sp 128 +
STACK CFI 7fcc .cfa: x29 64 + x19: .cfa -8 + ^ x20: .cfa -16 + ^ x21: .cfa -24 + ^ x22: .cfa -32 + ^ x23: .cfa -40 + ^ x24: .cfa -48 + ^ .ra: .cfa -56 + ^ x29: .cfa -64 + ^
STACK CFI 8098 .cfa: sp 128 +
STACK CFI 80ac .cfa: sp 0 +
STACK CFI 80b0 .cfa: x29 64 +
STACK CFI INIT 8940 29c .cfa: sp 0 +
STACK CFI 8944 .cfa: sp 112 +
STACK CFI 8954 .cfa: x29 48 + x19: .cfa -8 + ^ x20: .cfa -16 + ^ x21: .cfa -32 + ^ .ra: .cfa -40 + ^ x29: .cfa -48 + ^
STACK CFI 8b34 .cfa: sp 112 +
STACK CFI 8b44 .cfa: sp 0 +
STACK CFI 8b48 .cfa: x29 48 +
STACK CFI INIT 8bdc 3d0 .cfa: sp 0 +
STACK CFI 8be0 .cfa: sp 176 +
STACK CFI 8bfc .cfa: x29 96 + x19: .cfa -8 + ^ x20: .cfa -16 + ^ x21: .cfa -24 + ^ x22: .cfa -32 + ^ x23: .cfa -40 + ^ x24: .cfa -48 + ^ x25: .cfa -56 + ^ x26: .cfa -64 + ^ x27: .cfa -72 + ^ x28: .cfa -80 + ^ .ra: .cfa -88 + ^ x29: .cfa -96 + ^
STACK CFI 8c3c .cfa: sp 176 +
STACK CFI 8c58 .cfa: sp 0 +
STACK CFI 8c5c .cfa: x29 96 +
STACK CFI INIT 8fac 10c .cfa: sp 0 +
STACK CFI 8fb0 .cfa: sp 64 +
STACK CFI 8fc0 .cfa: x29 64 + x19: .cfa -8 + ^ x20: .cfa -16 + ^ x21: .cfa -24 + ^ x22: .cfa -32 + ^ x23: .cfa -48 + ^ .ra: .cfa -56 + ^ x29: .cfa -64 + ^
STACK CFI 9098 .cfa: sp 64 +
STACK CFI 90a8 .cfa: sp 0 +
STACK CFI 90ac .cfa: x29 64 +
STACK CFI INIT 9868 444 .cfa: sp 0 +
STACK CFI 986c .cfa: sp 176 +
STACK CFI 9880 .cfa: x29 64 + x19: .cfa -8 + ^ x20: .cfa -16 + ^ x21: .cfa -24 + ^ x22: .cfa -32 + ^ x23: .cfa -40 + ^ x24: .cfa -48 + ^ .ra: .cfa -56 + ^ x29: .cfa -64 + ^
STACK CFI 9b58 .cfa: sp 176 +
STACK CFI 9b6c .cfa: sp 0 +
STACK CFI 9b70 .cfa: x29 64 +
STACK CFI INIT 9cb0 184 .cfa: sp 0 +
STACK CFI 9cb4 .cfa: sp 144 +
STACK CFI 9ccc .cfa: x29 80 + x19: .cfa -8 + ^ x20: .cfa -16 + ^ x21: .cfa -24 + ^ x22: .cfa -32 + ^ x23: .cfa -40 + ^ x24: .cfa -48 + ^ x25: .cfa -56 + ^ x26: .cfa -64 + ^ .ra: .cfa -72 + ^ x29: .cfa -80 + ^
STACK CFI 9dcc .cfa: sp 144 +
STACK CFI 9de4 .cfa: sp 0 +
STACK CFI 9de8 .cfa: x29 80 +
STACK CFI INIT a4f4 1e0 .cfa: sp 0 +
STACK CFI a4f8 .cfa: sp 112 +
STACK CFI a508 .cfa: x29 48 + x19: .cfa -8 + ^ x20: .cfa -16 + ^ x21: .cfa -32 + ^ .ra: .cfa -40 + ^ x29: .cfa -48 + ^
STACK CFI a62c .cfa: sp 112 +
STACK CFI a63c .cfa: sp 0 +
STACK CFI a640 .cfa: x29 48 +
STACK CFI INIT a6d8 190 .cfa: sp 0 +
STACK CFI a6dc .cfa: sp 96 +
STACK CFI a6f0 .cfa: x29 64 + x19: .cfa -8 + ^ x20: .cfa -16 + ^ x21: .cfa -24 + ^ x22: .cfa -32 + ^ x23: .cfa -48 + ^ .ra: .cfa -56 + ^ x29: .cfa -64 + ^
STACK CFI a7e8 .cfa: sp 96 +
STACK CFI a7fc .cfa: sp 0 +
STACK CFI a800 .cfa: x29 64 +
