MODULE Linux arm64 E680C6B9AC9DB543527DEBAD28F4EE940 jacob375.gauntletlevelvault.android64.so
INFO CODE_ID B9C680E69DAC43B5527DEBAD28F4EE9431FC3608
INFO GENERATOR mozilla/dump_syms 2.3.4
PUBLIC 5b30 0 __on_dlclose
PUBLIC 5b40 0 __emutls_unregister_key
PUBLIC 5b48 0 __on_dlclose_late
PUBLIC 5b50 0 __atexit_handler_wrapper
PUBLIC 5b64 0 atexit
PUBLIC 5b80 0 pthread_atfork
PUBLIC 5b90 0 unwind_phase2
PUBLIC 5cc4 0 _Unwind_Resume
PUBLIC 5d48 0 unwind_phase2_forced
PUBLIC m 5e3c 0 __unw_init_local
PUBLIC m 5ee4 0 __unw_get_reg
PUBLIC 5f60 0 __unw_step_stage2
PUBLIC m 5f74 0 __unw_get_proc_info
PUBLIC m 5fb4 0 __unw_resume
PUBLIC 5fdc 0 libunwind::CFI_Parser<libunwind::LocalAddressSpace>::decodeFDE(libunwind::LocalAddressSpace&, unsigned long, libunwind::CFI_Parser<libunwind::LocalAddressSpace>::FDE_Info*, libunwind::CFI_Parser<libunwind::LocalAddressSpace>::CIE_Info*, bool)
PUBLIC 616c 0 libunwind::CFI_Parser<libunwind::LocalAddressSpace>::parseCIE(libunwind::LocalAddressSpace&, unsigned long, libunwind::CFI_Parser<libunwind::LocalAddressSpace>::CIE_Info*)
PUBLIC 6434 0 libunwind::AbstractUnwindCursor::~AbstractUnwindCursor()
PUBLIC 643c 0 libunwind::UnwindCursor<libunwind::LocalAddressSpace, libunwind::Registers_arm64>::~UnwindCursor()
PUBLIC 6444 0 libunwind::UnwindCursor<libunwind::LocalAddressSpace, libunwind::Registers_arm64>::validReg(int)
PUBLIC 6488 0 libunwind::UnwindCursor<libunwind::LocalAddressSpace, libunwind::Registers_arm64>::getReg(int)
PUBLIC 6570 0 libunwind::UnwindCursor<libunwind::LocalAddressSpace, libunwind::Registers_arm64>::setReg(int, unsigned long)
PUBLIC 6658 0 libunwind::UnwindCursor<libunwind::LocalAddressSpace, libunwind::Registers_arm64>::validFloatReg(int)
PUBLIC 666c 0 libunwind::UnwindCursor<libunwind::LocalAddressSpace, libunwind::Registers_arm64>::getFloatReg(int)
PUBLIC 667c 0 libunwind::UnwindCursor<libunwind::LocalAddressSpace, libunwind::Registers_arm64>::setFloatReg(int, double)
PUBLIC 668c 0 libunwind::UnwindCursor<libunwind::LocalAddressSpace, libunwind::Registers_arm64>::step(bool)
PUBLIC 677c 0 libunwind::UnwindCursor<libunwind::LocalAddressSpace, libunwind::Registers_arm64>::getInfo(unw_proc_info_t*)
PUBLIC 67c0 0 libunwind::UnwindCursor<libunwind::LocalAddressSpace, libunwind::Registers_arm64>::jumpto()
PUBLIC 67cc 0 libunwind::UnwindCursor<libunwind::LocalAddressSpace, libunwind::Registers_arm64>::isSignalFrame()
PUBLIC 67d8 0 libunwind::UnwindCursor<libunwind::LocalAddressSpace, libunwind::Registers_arm64>::getFunctionName(char*, unsigned long, unsigned long*)
PUBLIC 6804 0 libunwind::UnwindCursor<libunwind::LocalAddressSpace, libunwind::Registers_arm64>::setInfoBasedOnIPRegister(bool)
PUBLIC 6a84 0 libunwind::UnwindCursor<libunwind::LocalAddressSpace, libunwind::Registers_arm64>::getRegisterName(int)
PUBLIC 6a90 0 libunwind::UnwindCursor<libunwind::LocalAddressSpace, libunwind::Registers_arm64>::stepThroughSigReturn(libunwind::Registers_arm64&)
PUBLIC 6bb0 0 libunwind::DwarfInstructions<libunwind::LocalAddressSpace, libunwind::Registers_arm64>::stepWithDwarf(libunwind::LocalAddressSpace&, unsigned long, unsigned long, libunwind::Registers_arm64&, bool&, bool)
PUBLIC 7038 0 libunwind::CFI_Parser<libunwind::LocalAddressSpace>::parseFDEInstructions(libunwind::LocalAddressSpace&, libunwind::CFI_Parser<libunwind::LocalAddressSpace>::FDE_Info const&, libunwind::CFI_Parser<libunwind::LocalAddressSpace>::CIE_Info const&, unsigned long, int, libunwind::CFI_Parser<libunwind::LocalAddressSpace>::PrologInfo*)
PUBLIC 7c80 0 libunwind::DwarfInstructions<libunwind::LocalAddressSpace, libunwind::Registers_arm64>::getCFA(libunwind::LocalAddressSpace&, libunwind::CFI_Parser<libunwind::LocalAddressSpace>::PrologInfo const&, libunwind::Registers_arm64 const&)
PUBLIC 7db4 0 libunwind::DwarfInstructions<libunwind::LocalAddressSpace, libunwind::Registers_arm64>::getSavedRegister(libunwind::LocalAddressSpace&, libunwind::Registers_arm64 const&, unsigned long, libunwind::CFI_Parser<libunwind::LocalAddressSpace>::RegisterLocation const&)
PUBLIC 7fc4 0 libunwind::LocalAddressSpace::getEncodedP(unsigned long&, unsigned long, unsigned char, unsigned long)
PUBLIC 8350 0 libunwind::LocalAddressSpace::getULEB128(unsigned long&, unsigned long)
PUBLIC 8518 0 libunwind::DwarfInstructions<libunwind::LocalAddressSpace, libunwind::Registers_arm64>::evaluateExpression(unsigned long, libunwind::LocalAddressSpace&, libunwind::Registers_arm64 const&, unsigned long)
PUBLIC 8ed4 0 libunwind::UnwindCursor<libunwind::LocalAddressSpace, libunwind::Registers_arm64>::getInfoFromDwarfSection(unsigned long, libunwind::UnwindInfoSections const&, unsigned int)
PUBLIC 91a8 0 libunwind::findUnwindSectionsByPhdr(dl_phdr_info*, unsigned long, void*)
PUBLIC 92dc 0 libunwind::EHHeaderParser<libunwind::LocalAddressSpace>::decodeEHHdr(libunwind::LocalAddressSpace&, unsigned long, unsigned long, libunwind::EHHeaderParser<libunwind::LocalAddressSpace>::EHHeaderInfo&)
PUBLIC 93fc 0 libunwind::CFI_Parser<libunwind::LocalAddressSpace>::findFDE(libunwind::LocalAddressSpace&, unsigned long, unsigned long, unsigned long, unsigned long, libunwind::CFI_Parser<libunwind::LocalAddressSpace>::FDE_Info*, libunwind::CFI_Parser<libunwind::LocalAddressSpace>::CIE_Info*)
PUBLIC 95c4 0 libunwind::EHHeaderParser<libunwind::LocalAddressSpace>::findFDE(libunwind::LocalAddressSpace&, unsigned long, unsigned long, unsigned int, libunwind::CFI_Parser<libunwind::LocalAddressSpace>::FDE_Info*, libunwind::CFI_Parser<libunwind::LocalAddressSpace>::CIE_Info*)
PUBLIC 972c 0 libunwind::EHHeaderParser<libunwind::LocalAddressSpace>::getTableEntrySize(unsigned char)
PUBLIC 9828 0 libunwind::Registers_arm64::getRegisterName(int)
PUBLIC 9858 0 __libunwind_Registers_arm64_jumpto
PUBLIC m 98e8 0 __unw_getcontext
PUBLIC 9990 0 __aarch64_ldadd8_relax
PUBLIC 99c0 0 init_have_lse_atomics
PUBLIC 9a58 0 __init_cpu_features_constructor
PUBLIC 9ff4 0 __init_cpu_features
PUBLIC a080 0 __aarch64_ldadd8_acq_rel
PUBLIC a0b0 0 __cxx_global_var_init
PUBLIC a534 0 geode::modifier::ModifyBase<geode::modifier::ModifyDerive<MyGauntletLayer, GauntletLayer> >::~ModifyBase()
PUBLIC a54c 0 __cxx_global_var_init.1
PUBLIC a9d0 0 geode::modifier::ModifyBase<geode::modifier::ModifyDerive<MyGauntletSelectLayer, GauntletSelectLayer> >::~ModifyBase()
PUBLIC a9e8 0 geode::modifier::ModifyDerive<MyGauntletLayer, GauntletLayer>::apply()
PUBLIC ad40 0 std::__ndk1::shared_ptr<geode::Hook>::~shared_ptr[abi:ne180000]()
PUBLIC ad90 0 geode::impl::ResultData<geode::Hook*, std::__ndk1::basic_string<char, std::__ndk1::char_traits<char>, std::__ndk1::allocator<char> > >::~ResultData()
PUBLIC ae04 0 std::__ndk1::vector<std::__ndk1::basic_string<char, std::__ndk1::char_traits<char>, std::__ndk1::allocator<char> >, std::__ndk1::allocator<std::__ndk1::basic_string<char, std::__ndk1::char_traits<char>, std::__ndk1::allocator<char> > > >::~vector[abi:ne180000]()
PUBLIC ae80 0 geode::modifier::ModifyBase<geode::modifier::ModifyDerive<MyGauntletLayer, GauntletLayer> >::apply()
PUBLIC ae84 0 __clang_call_terminate
PUBLIC ae94 0 _ZN5geode15UnwrapExceptionC2IRPNS_4HookEQsr4implE18IsStringStreamableIT_EEENS_4impl5OkTagEOS5_
PUBLIC afe8 0 std::__ndk1::__throw_bad_variant_access[abi:ne180000]()
PUBLIC b01c 0 std::__ndk1::basic_stringstream<char, std::__ndk1::char_traits<char>, std::__ndk1::allocator<char> >::basic_stringstream[abi:ne180000]()
PUBLIC m b148 0 std::__ndk1::basic_stringstream<char, std::__ndk1::char_traits<char>, std::__ndk1::allocator<char> >::~basic_stringstream()
PUBLIC b1c8 0 geode::UnwrapException::~UnwrapException()
PUBLIC b1ec 0 std::__ndk1::__put_character_sequence[abi:ne180000]<char, std::__ndk1::char_traits<char> >(std::__ndk1::basic_ostream<char, std::__ndk1::char_traits<char> >, std::__ndk1::basic_ostream const*, unsigned long)
PUBLIC b390 0 std::__ndk1::__pad_and_output[abi:ne180000]<char, std::__ndk1::char_traits<char> >(std::__ndk1::char_traits<char>, std::__ndk1::ostreambuf_iterator const*, std::__ndk1::ostreambuf_iterator const, std::__ndk1::ostreambuf_iterator const, std::__ndk1::ios_base&, std::__ndk1::ostreambuf_iterator)
PUBLIC b56c 0 std::__ndk1::basic_string<char, std::__ndk1::char_traits<char>, std::__ndk1::allocator<char> >::__throw_length_error[abi:ne180000]() const
PUBLIC b580 0 std::__ndk1::__throw_length_error[abi:ne180000](char const*)
PUBLIC b5d0 0 std::length_error::length_error[abi:ne180000](char const*)
PUBLIC b600 0 std::__throw_bad_array_new_length([abi:ne180000], void)
PUBLIC b634 0 std::__ndk1::basic_stringbuf<char, std::__ndk1::char_traits<char>, std::__ndk1::allocator<char> >::str[abi:ne180000]() &&
PUBLIC b7ac 0 std::__ndk1::basic_stringbuf<char, std::__ndk1::char_traits<char>, std::__ndk1::allocator<char> >::__init_buf_ptrs[abi:ne180000]()
PUBLIC b8f4 0 std::__ndk1::vector<std::__ndk1::basic_string<char, std::__ndk1::char_traits<char>, std::__ndk1::allocator<char> >, std::__ndk1::allocator<std::__ndk1::basic_string<char, std::__ndk1::char_traits<char>, std::__ndk1::allocator<char> > > >::__push_back_slow_path<std::__ndk1::basic_string<char, std::__ndk1::char_traits<char>, std::__ndk1::allocator<char> > const&>(std::__ndk1::basic_string<char, std::__ndk1::char_traits<char>, std::__ndk1::allocator<char> > const&)
PUBLIC bb18 0 std::__ndk1::basic_string<char, std::__ndk1::char_traits<char>, std::__ndk1::allocator<char> >::__init_copy_ctor_external(char const*, unsigned long)
PUBLIC bb98 0 std::__ndk1::__split_buffer<std::__ndk1::basic_string<char, std::__ndk1::char_traits<char>, std::__ndk1::allocator<char> >, std::__ndk1::allocator<std::__ndk1::basic_string<char, std::__ndk1::char_traits<char>, std::__ndk1::allocator<char> > >&>::~__split_buffer()
PUBLIC bc00 0 std::__ndk1::vector<std::__ndk1::basic_string<char, std::__ndk1::char_traits<char>, std::__ndk1::allocator<char> >, std::__ndk1::allocator<std::__ndk1::basic_string<char, std::__ndk1::char_traits<char>, std::__ndk1::allocator<char> > > >::__throw_length_error[abi:ne180000]() const
PUBLIC bc14 0 std::__ndk1::__variant_detail::__visitation::__base::__dispatcher<(unsigned long)0>::__dispatch[abi:ne180000]<std::__ndk1::__variant_detail::__dtor<std::__ndk1::__variant_detail::__traits<geode::Hook*, std::__ndk1::basic_string<char, std::__ndk1::char_traits<char>, std::__ndk1::allocator<char> > >, (std::__ndk1::__variant_detail::_Trait)1>::__destroy[abi:ne180000]()::{lambda(auto:1&)#1}, std::__ndk1::__variant_detail::__base<(std::__ndk1::__variant_detail::__traits<geode::Hook*, std::__ndk1::basic_string<char, std::__ndk1::char_traits<char>, std::__ndk1::allocator<char> > >)1, geode::Hook, std::__ndk1::allocator<char> >&>(std::__ndk1::__variant_detail::__dtor<std::__ndk1::__variant_detail::__traits<geode::Hook*, std::__ndk1::basic_string<char, std::__ndk1::char_traits<char>, std::__ndk1::allocator<char> > >, (std::__ndk1::__variant_detail::_Trait)1>, std::__ndk1::__variant_detail::__base<(std::__ndk1::__variant_detail::__traits<geode::Hook*, std::__ndk1::basic_string<char, std::__ndk1::char_traits<char>, std::__ndk1::allocator<char> > >)1, geode::Hook, std::__ndk1::allocator<char> >&)
PUBLIC bc18 0 std::__ndk1::__variant_detail::__visitation::__base::__dispatcher<(unsigned long)1>::__dispatch[abi:ne180000]<std::__ndk1::__variant_detail::__dtor<std::__ndk1::__variant_detail::__traits<geode::Hook*, std::__ndk1::basic_string<char, std::__ndk1::char_traits<char>, std::__ndk1::allocator<char> > >, (std::__ndk1::__variant_detail::_Trait)1>::__destroy[abi:ne180000]()::{lambda(auto:1&)#1}, std::__ndk1::__variant_detail::__base<(std::__ndk1::__variant_detail::__traits<geode::Hook*, std::__ndk1::basic_string<char, std::__ndk1::char_traits<char>, std::__ndk1::allocator<char> > >)1, geode::Hook, std::__ndk1::allocator<char> >&>(std::__ndk1::__variant_detail::__dtor<std::__ndk1::__variant_detail::__traits<geode::Hook*, std::__ndk1::basic_string<char, std::__ndk1::char_traits<char>, std::__ndk1::allocator<char> > >, (std::__ndk1::__variant_detail::_Trait)1>, std::__ndk1::__variant_detail::__base<(std::__ndk1::__variant_detail::__traits<geode::Hook*, std::__ndk1::basic_string<char, std::__ndk1::char_traits<char>, std::__ndk1::allocator<char> > >)1, geode::Hook, std::__ndk1::allocator<char> >&)
PUBLIC bc2c 0 std::__ndk1::__tree<std::__ndk1::__value_type<std::__ndk1::basic_string<char, std::__ndk1::char_traits<char>, std::__ndk1::allocator<char> >, std::__ndk1::shared_ptr<geode::Hook> >, std::__ndk1::__map_value_compare<std::__ndk1::basic_string<char, std::__ndk1::char_traits<char>, std::__ndk1::allocator<char> >, std::__ndk1::__value_type<std::__ndk1::basic_string<char, std::__ndk1::char_traits<char>, std::__ndk1::allocator<char> >, std::__ndk1::shared_ptr<geode::Hook> >, std::__ndk1::less<std::__ndk1::basic_string<char, std::__ndk1::char_traits<char>, std::__ndk1::allocator<char> > >, true>, std::__ndk1::allocator<std::__ndk1::__value_type<std::__ndk1::basic_string<char, std::__ndk1::char_traits<char>, std::__ndk1::allocator<char> >, std::__ndk1::shared_ptr<geode::Hook> > > >::find<std::__ndk1::basic_string<char, std::__ndk1::char_traits<char>, std::__ndk1::allocator<char> > >(std::__ndk1::basic_string<char, std::__ndk1::char_traits<char>, std::__ndk1::allocator<char> > const&)
PUBLIC bd4c 0 std::__ndk1::__tree<std::__ndk1::__value_type<std::__ndk1::basic_string<char, std::__ndk1::char_traits<char>, std::__ndk1::allocator<char> >, std::__ndk1::shared_ptr<geode::Hook> >, std::__ndk1::__map_value_compare<std::__ndk1::basic_string<char, std::__ndk1::char_traits<char>, std::__ndk1::allocator<char> >, std::__ndk1::__value_type<std::__ndk1::basic_string<char, std::__ndk1::char_traits<char>, std::__ndk1::allocator<char> >, std::__ndk1::shared_ptr<geode::Hook> >, std::__ndk1::less<std::__ndk1::basic_string<char, std::__ndk1::char_traits<char>, std::__ndk1::allocator<char> > >, true>, std::__ndk1::allocator<std::__ndk1::__value_type<std::__ndk1::basic_string<char, std::__ndk1::char_traits<char>, std::__ndk1::allocator<char> >, std::__ndk1::shared_ptr<geode::Hook> > > >::erase(std::__ndk1::__tree_const_iterator<std::__ndk1::__value_type<std::__ndk1::basic_string<char, std::__ndk1::char_traits<char>, std::__ndk1::allocator<char> >, std::__ndk1::shared_ptr<geode::Hook> >, std::__ndk1::__tree_node<std::__ndk1::__value_type<std::__ndk1::basic_string<char, std::__ndk1::char_traits<char>, std::__ndk1::allocator<char> >, std::__ndk1::shared_ptr<geode::Hook> >, void*>*, long>)
PUBLIC c1f0 0 std::__ndk1::__tree<std::__ndk1::__value_type<std::__ndk1::basic_string<char, std::__ndk1::char_traits<char>, std::__ndk1::allocator<char> >, std::__ndk1::shared_ptr<geode::Hook> >, std::__ndk1::__map_value_compare<std::__ndk1::basic_string<char, std::__ndk1::char_traits<char>, std::__ndk1::allocator<char> >, std::__ndk1::__value_type<std::__ndk1::basic_string<char, std::__ndk1::char_traits<char>, std::__ndk1::allocator<char> >, std::__ndk1::shared_ptr<geode::Hook> >, std::__ndk1::less<std::__ndk1::basic_string<char, std::__ndk1::char_traits<char>, std::__ndk1::allocator<char> > >, true>, std::__ndk1::allocator<std::__ndk1::__value_type<std::__ndk1::basic_string<char, std::__ndk1::char_traits<char>, std::__ndk1::allocator<char> >, std::__ndk1::shared_ptr<geode::Hook> > > >::destroy(std::__ndk1::__tree_node<std::__ndk1::__value_type<std::__ndk1::basic_string<char, std::__ndk1::char_traits<char>, std::__ndk1::allocator<char> >, std::__ndk1::shared_ptr<geode::Hook> >, void*>*)
PUBLIC c274 0 geode::modifier::AsStaticFunction_init<MyGauntletLayer, bool (MyGauntletLayer::*)(GauntletType)>::Impl<bool (MyGauntletLayer::*)(GauntletType)>::function(MyGauntletLayer*, GauntletType)
PUBLIC c418 0 std::__ndk1::shared_ptr<tulip::hook::CallingConvention>::~shared_ptr[abi:ne180000]()
PUBLIC c468 0 tulip::hook::HandlerMetadata::~HandlerMetadata()
PUBLIC c4cc 0 MyGauntletLayer::gauntlet(cocos2d::CCObject*)
PUBLIC c614 0 std::__ndk1::__tree<std::__ndk1::__value_type<std::__ndk1::basic_string<char, std::__ndk1::char_traits<char>, std::__ndk1::allocator<char> >, std::__ndk1::shared_ptr<geode::Hook> >, std::__ndk1::__map_value_compare<std::__ndk1::basic_string<char, std::__ndk1::char_traits<char>, std::__ndk1::allocator<char> >, std::__ndk1::__value_type<std::__ndk1::basic_string<char, std::__ndk1::char_traits<char>, std::__ndk1::allocator<char> >, std::__ndk1::shared_ptr<geode::Hook> >, std::__ndk1::less<std::__ndk1::basic_string<char, std::__ndk1::char_traits<char>, std::__ndk1::allocator<char> > >, true>, std::__ndk1::allocator<std::__ndk1::__value_type<std::__ndk1::basic_string<char, std::__ndk1::char_traits<char>, std::__ndk1::allocator<char> >, std::__ndk1::shared_ptr<geode::Hook> > > >::__emplace_unique_key_args<std::__ndk1::basic_string<char, std::__ndk1::char_traits<char>, std::__ndk1::allocator<char> >, std::__ndk1::piecewise_construct_t const&, std::__ndk1::tuple<std::__ndk1::basic_string<char, std::__ndk1::char_traits<char>, std::__ndk1::allocator<char> >&&>, std::__ndk1::tuple<> >(std::__ndk1::basic_string<char, std::__ndk1::char_traits<char>, std::__ndk1::allocator<char> > const&, std::__ndk1::piecewise_construct_t const&, std::__ndk1::tuple<std::__ndk1::basic_string<char, std::__ndk1::char_traits<char>, std::__ndk1::allocator<char> >&&>, std::__ndk1::tuple<>)
PUBLIC c77c 0 std::__ndk1::__tree_balance_after_insert[abi:ne180000]<std::__ndk1::__tree_node_base<void*>*>(std::__ndk1::__tree_node_base<void*>*, std::__ndk1::__tree_node_base<void*>*)
PUBLIC c92c 0 geode::modifier::ModifyDerive<MyGauntletSelectLayer, GauntletSelectLayer>::apply()
PUBLIC cca0 0 geode::modifier::ModifyBase<geode::modifier::ModifyDerive<MyGauntletSelectLayer, GauntletSelectLayer> >::apply()
PUBLIC cca4 0 geode::modifier::AsStaticFunction_init<MyGauntletSelectLayer, bool (MyGauntletSelectLayer::*)(int)>::Impl<bool (MyGauntletSelectLayer::*)(int)>::function(MyGauntletSelectLayer*, int)
PUBLIC ce68 0 MyGauntletSelectLayer::gauntlet(cocos2d::CCObject*)
PUBLIC m cf44 0 geodeImplicitEntry
PUBLIC cf80 0 wrapFunction(unsigned long, tulip::hook::WrapperMetadata const&)
PUBLIC d0b4 0 geode::impl::ResultData<void*, std::__ndk1::basic_string<char, std::__ndk1::char_traits<char>, std::__ndk1::allocator<char> > >::unwrapErr() &
PUBLIC d12c 0 geode::impl::ResultData<void*, std::__ndk1::basic_string<char, std::__ndk1::char_traits<char>, std::__ndk1::allocator<char> > >::~ResultData()
PUBLIC d1a0 0 tulip::hook::WrapperMetadata::~WrapperMetadata()
PUBLIC d204 0 cocos2d::CCDictionary::objectForKey(gd::string const&)
PUBLIC d354 0 tulip::hook::AbstractFunction::from<cocos2d::CCObject*, cocos2d::CCDictionary*, gd::string const&>(cocos2d::CCObject* (*)(cocos2d::CCDictionary*, gd::string const&))
PUBLIC d3fc 0 FLAlertLayer::create(FLAlertLayerProtocol*, char const*, gd::string, char const*, char const*, float)
PUBLIC d5b4 0 tulip::hook::AbstractFunction::from<FLAlertLayer*, FLAlertLayerProtocol*, char const*, gd::string, char const*, char const*, float>(FLAlertLayer* (*)(FLAlertLayerProtocol*, char const*, gd::string, char const*, char const*, float))
PUBLIC d720 0 GJSearchObject::create(SearchType, gd::string)
PUBLIC d8a0 0 tulip::hook::AbstractFunction::from<GJSearchObject*, SearchType, gd::string>(GJSearchObject* (*)(SearchType, gd::string))
PUBLIC d944 0 _ZN5geode15UnwrapExceptionC2IRPvQsr4implE18IsStringStreamableIT_EEENS_4impl5OkTagEOS4_
PUBLIC da98 0 _ZN5geode15UnwrapExceptionC2IRNSt6__ndk112basic_stringIcNS2_11char_traitsIcEENS2_9allocatorIcEEEEQsr4implE18IsStringStreamableIT_EEENS_4impl6ErrTagEOSA_
PUBLIC dc00 0 std::__ndk1::__variant_detail::__visitation::__base::__dispatcher<(unsigned long)0>::__dispatch[abi:ne180000]<std::__ndk1::__variant_detail::__dtor<std::__ndk1::__variant_detail::__traits<void*, std::__ndk1::basic_string<char, std::__ndk1::char_traits<char>, std::__ndk1::allocator<char> > >, (std::__ndk1::__variant_detail::_Trait)1>::__destroy[abi:ne180000]()::{lambda(auto:1&)#1}, std::__ndk1::__variant_detail::__base<(std::__ndk1::__variant_detail::__traits<void*, std::__ndk1::basic_string<char, std::__ndk1::char_traits<char>, std::__ndk1::allocator<char> > >)1, std::__ndk1::__variant_detail::__traits, std::__ndk1::allocator<char> >&>(std::__ndk1::__variant_detail::__dtor<std::__ndk1::__variant_detail::__traits<void*, std::__ndk1::basic_string<char, std::__ndk1::char_traits<char>, std::__ndk1::allocator<char> > >, (std::__ndk1::__variant_detail::_Trait)1>, std::__ndk1::__variant_detail::__base<(std::__ndk1::__variant_detail::__traits<void*, std::__ndk1::basic_string<char, std::__ndk1::char_traits<char>, std::__ndk1::allocator<char> > >)1, std::__ndk1::__variant_detail::__traits, std::__ndk1::allocator<char> >&)
PUBLIC dc04 0 std::__ndk1::__variant_detail::__visitation::__base::__dispatcher<(unsigned long)1>::__dispatch[abi:ne180000]<std::__ndk1::__variant_detail::__dtor<std::__ndk1::__variant_detail::__traits<void*, std::__ndk1::basic_string<char, std::__ndk1::char_traits<char>, std::__ndk1::allocator<char> > >, (std::__ndk1::__variant_detail::_Trait)1>::__destroy[abi:ne180000]()::{lambda(auto:1&)#1}, std::__ndk1::__variant_detail::__base<(std::__ndk1::__variant_detail::__traits<void*, std::__ndk1::basic_string<char, std::__ndk1::char_traits<char>, std::__ndk1::allocator<char> > >)1, std::__ndk1::__variant_detail::__traits, std::__ndk1::allocator<char> >&>(std::__ndk1::__variant_detail::__dtor<std::__ndk1::__variant_detail::__traits<void*, std::__ndk1::basic_string<char, std::__ndk1::char_traits<char>, std::__ndk1::allocator<char> > >, (std::__ndk1::__variant_detail::_Trait)1>, std::__ndk1::__variant_detail::__base<(std::__ndk1::__variant_detail::__traits<void*, std::__ndk1::basic_string<char, std::__ndk1::char_traits<char>, std::__ndk1::allocator<char> > >)1, std::__ndk1::__variant_detail::__traits, std::__ndk1::allocator<char> >&)
PUBLIC dc20 0 <.plt ELF section in jacob375.gauntletlevelvault.android64.so>
STACK CFI INIT 5b30 10 .cfa: sp 0 +
STACK CFI INIT 5b40 8 .cfa: sp 0 +
STACK CFI INIT 5b48 8 .cfa: sp 0 +
STACK CFI INIT 5b50 14 .cfa: sp 0 +
STACK CFI INIT 5b64 1c .cfa: sp 0 +
STACK CFI INIT 5b80 10 .cfa: sp 0 +
STACK CFI INIT 5b90 134 .cfa: sp 0 +
STACK CFI INIT 5cc4 84 .cfa: sp 0 +
STACK CFI INIT 5d48 f4 .cfa: sp 0 +
STACK CFI INIT 5e3c a8 .cfa: sp 0 +
STACK CFI INIT 5ee4 7c .cfa: sp 0 +
STACK CFI INIT 5f60 14 .cfa: sp 0 +
STACK CFI INIT 5f74 40 .cfa: sp 0 +
STACK CFI INIT 5fb4 28 .cfa: sp 0 +
STACK CFI INIT 5fdc 190 .cfa: sp 0 +
STACK CFI INIT 616c 2c8 .cfa: sp 0 +
STACK CFI INIT 6434 8 .cfa: sp 0 +
STACK CFI INIT 643c 8 .cfa: sp 0 +
STACK CFI INIT 6444 44 .cfa: sp 0 +
STACK CFI INIT 6488 e8 .cfa: sp 0 +
STACK CFI INIT 6570 e8 .cfa: sp 0 +
STACK CFI INIT 6658 14 .cfa: sp 0 +
STACK CFI INIT 666c 10 .cfa: sp 0 +
STACK CFI INIT 667c 10 .cfa: sp 0 +
STACK CFI INIT 668c f0 .cfa: sp 0 +
STACK CFI INIT 677c 44 .cfa: sp 0 +
STACK CFI INIT 67c0 c .cfa: sp 0 +
STACK CFI INIT 67cc c .cfa: sp 0 +
STACK CFI INIT 67d8 2c .cfa: sp 0 +
STACK CFI INIT 6804 280 .cfa: sp 0 +
STACK CFI INIT 6a84 c .cfa: sp 0 +
STACK CFI INIT 6a90 120 .cfa: sp 0 +
STACK CFI INIT 6bb0 488 .cfa: sp 0 +
STACK CFI INIT 7038 c48 .cfa: sp 0 +
STACK CFI INIT 7c80 134 .cfa: sp 0 +
STACK CFI INIT 7db4 210 .cfa: sp 0 +
STACK CFI INIT 7fc4 38c .cfa: sp 0 +
STACK CFI INIT 8350 1c8 .cfa: sp 0 +
STACK CFI INIT 8518 9bc .cfa: sp 0 +
STACK CFI INIT 8ed4 2d4 .cfa: sp 0 +
STACK CFI INIT 91a8 134 .cfa: sp 0 +
STACK CFI INIT 92dc 120 .cfa: sp 0 +
STACK CFI INIT 93fc 1c8 .cfa: sp 0 +
STACK CFI INIT 95c4 168 .cfa: sp 0 +
STACK CFI INIT 972c fc .cfa: sp 0 +
STACK CFI INIT 9828 30 .cfa: sp 0 +
STACK CFI INIT 9990 30 .cfa: sp 0 +
STACK CFI INIT 99c0 98 .cfa: sp 0 +
STACK CFI INIT 9a58 59c .cfa: sp 0 +
STACK CFI INIT 9ff4 8c .cfa: sp 0 +
STACK CFI INIT a080 30 .cfa: sp 0 +
STACK CFI INIT a534 18 .cfa: sp 0 +
STACK CFI INIT a9d0 18 .cfa: sp 0 +
STACK CFI INIT ad40 50 .cfa: sp 0 +
STACK CFI ad44 .cfa: sp 32 +
STACK CFI ad4c .cfa: x29 32 + x19: .cfa -16 + ^ .ra: .cfa -24 + ^ x29: .cfa -32 + ^
STACK CFI ad64 .cfa: sp 32 +
STACK CFI ad6c .cfa: sp 0 +
STACK CFI ad70 .cfa: x29 32 +
STACK CFI ad84 .cfa: sp 32 +
STACK CFI ad8c .cfa: sp 0 +
STACK CFI INIT ae04 7c .cfa: sp 0 +
STACK CFI ae08 .cfa: sp 48 +
STACK CFI ae14 .cfa: x29 48 + x19: .cfa -8 + ^ x20: .cfa -16 + ^ x21: .cfa -32 + ^ .ra: .cfa -40 + ^ x29: .cfa -48 + ^
STACK CFI ae60 .cfa: sp 48 +
STACK CFI ae6c .cfa: sp 0 +
STACK CFI ae70 .cfa: sp 48 +
STACK CFI ae7c .cfa: sp 0 +
STACK CFI INIT ae80 4 .cfa: sp 0 +
STACK CFI INIT ae84 10 .cfa: sp 0 +
STACK CFI ae88 .cfa: sp 16 +
STACK CFI ae8c .cfa: x29 16 + .ra: .cfa -8 + ^ x29: .cfa -16 + ^
STACK CFI INIT afe8 34 .cfa: sp 0 +
STACK CFI afec .cfa: sp 16 +
STACK CFI aff0 .cfa: x29 16 + .ra: .cfa -8 + ^ x29: .cfa -16 + ^
STACK CFI INIT b148 80 .cfa: sp 0 +
STACK CFI b14c .cfa: sp 48 +
STACK CFI b158 .cfa: x29 48 + x19: .cfa -8 + ^ x20: .cfa -16 + ^ x21: .cfa -32 + ^ .ra: .cfa -40 + ^ x29: .cfa -48 + ^
STACK CFI b1b8 .cfa: sp 48 +
STACK CFI b1c4 .cfa: sp 0 +
STACK CFI INIT b1c8 24 .cfa: sp 0 +
STACK CFI b1cc .cfa: sp 32 +
STACK CFI b1d4 .cfa: x29 32 + x19: .cfa -16 + ^ .ra: .cfa -24 + ^ x29: .cfa -32 + ^
STACK CFI b1e0 .cfa: sp 32 +
STACK CFI b1e8 .cfa: sp 0 +
STACK CFI INIT b56c 14 .cfa: sp 0 +
STACK CFI b570 .cfa: sp 16 +
STACK CFI b574 .cfa: x29 16 + .ra: .cfa -8 + ^ x29: .cfa -16 + ^
STACK CFI INIT b5d0 30 .cfa: sp 0 +
STACK CFI b5d4 .cfa: sp 32 +
STACK CFI b5dc .cfa: x29 32 + x19: .cfa -16 + ^ .ra: .cfa -24 + ^ x29: .cfa -32 + ^
STACK CFI b5f4 .cfa: sp 32 +
STACK CFI b5fc .cfa: sp 0 +
STACK CFI INIT b600 34 .cfa: sp 0 +
STACK CFI b604 .cfa: sp 32 +
STACK CFI b60c .cfa: x29 32 + x19: .cfa -16 + ^ .ra: .cfa -24 + ^ x29: .cfa -32 + ^
STACK CFI INIT b7ac 148 .cfa: sp 0 +
STACK CFI b7b0 .cfa: sp 48 +
STACK CFI b7bc .cfa: x29 48 + x19: .cfa -8 + ^ x20: .cfa -16 + ^ x21: .cfa -32 + ^ .ra: .cfa -40 + ^ x29: .cfa -48 + ^
STACK CFI b8e4 .cfa: sp 48 +
STACK CFI b8f0 .cfa: sp 0 +
STACK CFI INIT bb18 80 .cfa: sp 0 +
STACK CFI bb1c .cfa: sp 48 +
STACK CFI bb28 .cfa: x29 48 + x19: .cfa -8 + ^ x20: .cfa -16 + ^ x21: .cfa -24 + ^ x22: .cfa -32 + ^ .ra: .cfa -40 + ^ x29: .cfa -48 + ^
STACK CFI bb40 .cfa: sp 48 +
STACK CFI bb4c .cfa: sp 0 +
STACK CFI bb50 .cfa: x29 48 +
STACK CFI bb80 .cfa: sp 48 +
STACK CFI bb8c .cfa: sp 0 +
STACK CFI bb90 .cfa: x29 48 +
STACK CFI INIT bb98 68 .cfa: sp 0 +
STACK CFI bb9c .cfa: sp 32 +
STACK CFI bba4 .cfa: x29 32 + x19: .cfa -8 + ^ x20: .cfa -16 + ^ .ra: .cfa -24 + ^ x29: .cfa -32 + ^
STACK CFI bbbc .cfa: sp 32 +
STACK CFI bbc4 .cfa: sp 0 +
STACK CFI bbc8 .cfa: x29 32 +
STACK CFI bbf4 .cfa: sp 32 +
STACK CFI bbfc .cfa: sp 0 +
STACK CFI INIT bc00 14 .cfa: sp 0 +
STACK CFI bc04 .cfa: sp 16 +
STACK CFI bc08 .cfa: x29 16 + .ra: .cfa -8 + ^ x29: .cfa -16 + ^
STACK CFI INIT bc14 4 .cfa: sp 0 +
STACK CFI INIT bc18 14 .cfa: sp 0 +
STACK CFI INIT bc2c 120 .cfa: sp 0 +
STACK CFI bc30 .cfa: sp 64 +
STACK CFI bc40 .cfa: x29 64 + x19: .cfa -8 + ^ x20: .cfa -16 + ^ x21: .cfa -24 + ^ x22: .cfa -32 + ^ x23: .cfa -40 + ^ x24: .cfa -48 + ^ .ra: .cfa -56 + ^ x29: .cfa -64 + ^
STACK CFI bd38 .cfa: sp 64 +
STACK CFI bd48 .cfa: sp 0 +
STACK CFI INIT bd4c 4a4 .cfa: sp 0 +
STACK CFI bd50 .cfa: sp 32 +
STACK CFI bd58 .cfa: x29 32 + x19: .cfa -8 + ^ x20: .cfa -16 + ^ .ra: .cfa -24 + ^ x29: .cfa -32 + ^
STACK CFI c138 .cfa: sp 32 +
STACK CFI c140 .cfa: sp 0 +
STACK CFI c144 .cfa: x29 32 +
STACK CFI INIT c1f0 84 .cfa: sp 0 +
STACK CFI c1f8 .cfa: sp 32 +
STACK CFI c200 .cfa: x29 32 + x19: .cfa -8 + ^ x20: .cfa -16 + ^ .ra: .cfa -24 + ^ x29: .cfa -32 + ^
STACK CFI c240 .cfa: sp 32 +
STACK CFI c248 .cfa: sp 0 +
STACK CFI c250 .cfa: x29 32 +
STACK CFI INIT c418 50 .cfa: sp 0 +
STACK CFI c41c .cfa: sp 32 +
STACK CFI c424 .cfa: x29 32 + x19: .cfa -16 + ^ .ra: .cfa -24 + ^ x29: .cfa -32 + ^
STACK CFI c43c .cfa: sp 32 +
STACK CFI c444 .cfa: sp 0 +
STACK CFI c448 .cfa: x29 32 +
STACK CFI c45c .cfa: sp 32 +
STACK CFI c464 .cfa: sp 0 +
STACK CFI INIT c468 64 .cfa: sp 0 +
STACK CFI c46c .cfa: sp 32 +
STACK CFI c474 .cfa: x29 32 + x19: .cfa -16 + ^ .ra: .cfa -24 + ^ x29: .cfa -32 + ^
STACK CFI c4a0 .cfa: sp 32 +
STACK CFI c4a8 .cfa: sp 0 +
STACK CFI c4ac .cfa: x29 32 +
STACK CFI c4c0 .cfa: sp 32 +
STACK CFI c4c8 .cfa: sp 0 +
STACK CFI INIT c614 168 .cfa: sp 0 +
STACK CFI c618 .cfa: sp 80 +
STACK CFI c62c .cfa: x29 80 + x19: .cfa -8 + ^ x20: .cfa -16 + ^ x21: .cfa -24 + ^ x22: .cfa -32 + ^ x23: .cfa -40 + ^ x24: .cfa -48 + ^ x25: .cfa -56 + ^ x26: .cfa -64 + ^ .ra: .cfa -72 + ^ x29: .cfa -80 + ^
STACK CFI c764 .cfa: sp 80 +
STACK CFI c778 .cfa: sp 0 +
STACK CFI INIT c77c 1b0 .cfa: sp 0 +
STACK CFI INIT cca0 4 .cfa: sp 0 +
STACK CFI INIT cf44 3c .cfa: sp 0 +
STACK CFI cf48 .cfa: sp 32 +
STACK CFI cf50 .cfa: x29 32 + x19: .cfa -16 + ^ .ra: .cfa -24 + ^ x29: .cfa -32 + ^
STACK CFI cf5c .cfa: sp 32 +
STACK CFI cf64 .cfa: sp 0 +
STACK CFI cf68 .cfa: x29 32 +
STACK CFI cf74 .cfa: sp 32 +
STACK CFI cf7c .cfa: sp 0 +
STACK CFI INIT d1a0 64 .cfa: sp 0 +
STACK CFI d1a4 .cfa: sp 32 +
STACK CFI d1ac .cfa: x29 32 + x19: .cfa -16 + ^ .ra: .cfa -24 + ^ x29: .cfa -32 + ^
STACK CFI d1d8 .cfa: sp 32 +
STACK CFI d1e0 .cfa: sp 0 +
STACK CFI d1e4 .cfa: x29 32 +
STACK CFI d1f8 .cfa: sp 32 +
STACK CFI d200 .cfa: sp 0 +
STACK CFI INIT dc00 4 .cfa: sp 0 +
STACK CFI INIT dc04 14 .cfa: sp 0 +
STACK CFI INIT a0b0 484 .cfa: sp 0 +
STACK CFI a0b4 .cfa: sp 224 +
STACK CFI a0d0 .cfa: x29 96 + x19: .cfa -8 + ^ x20: .cfa -16 + ^ x21: .cfa -24 + ^ x22: .cfa -32 + ^ x23: .cfa -40 + ^ x24: .cfa -48 + ^ x25: .cfa -56 + ^ x26: .cfa -64 + ^ x27: .cfa -72 + ^ x28: .cfa -80 + ^ .ra: .cfa -88 + ^ x29: .cfa -96 + ^
STACK CFI a340 .cfa: sp 224 +
STACK CFI a35c .cfa: sp 0 +
STACK CFI a360 .cfa: x29 96 +
STACK CFI a42c .cfa: sp 224 +
STACK CFI a448 .cfa: sp 0 +
STACK CFI a44c .cfa: x29 96 +
STACK CFI INIT a54c 484 .cfa: sp 0 +
STACK CFI a550 .cfa: sp 224 +
STACK CFI a56c .cfa: x29 96 + x19: .cfa -8 + ^ x20: .cfa -16 + ^ x21: .cfa -24 + ^ x22: .cfa -32 + ^ x23: .cfa -40 + ^ x24: .cfa -48 + ^ x25: .cfa -56 + ^ x26: .cfa -64 + ^ x27: .cfa -72 + ^ x28: .cfa -80 + ^ .ra: .cfa -88 + ^ x29: .cfa -96 + ^
STACK CFI a7dc .cfa: sp 224 +
STACK CFI a7f8 .cfa: sp 0 +
STACK CFI a7fc .cfa: x29 96 +
STACK CFI a8c8 .cfa: sp 224 +
STACK CFI a8e4 .cfa: sp 0 +
STACK CFI a8e8 .cfa: x29 96 +
STACK CFI INIT a9e8 358 .cfa: sp 0 +
STACK CFI a9ec .cfa: sp 192 +
STACK CFI aa00 .cfa: x29 64 + x19: .cfa -8 + ^ x20: .cfa -16 + ^ x21: .cfa -24 + ^ x22: .cfa -32 + ^ x23: .cfa -48 + ^ .ra: .cfa -56 + ^ x29: .cfa -64 + ^
STACK CFI ac1c .cfa: sp 192 +
STACK CFI ac30 .cfa: sp 0 +
STACK CFI ac34 .cfa: x29 64 +
STACK CFI INIT ad90 74 .cfa: sp 0 +
STACK CFI ad94 .cfa: sp 48 +
STACK CFI ada0 .cfa: x29 32 + x19: .cfa -8 + ^ x20: .cfa -16 + ^ .ra: .cfa -24 + ^ x29: .cfa -32 + ^
STACK CFI adec .cfa: sp 48 +
STACK CFI adf8 .cfa: sp 0 +
STACK CFI adfc .cfa: x29 32 +
STACK CFI INIT ae94 154 .cfa: sp 0 +
STACK CFI ae98 .cfa: sp 384 +
STACK CFI aeac .cfa: x29 64 + x19: .cfa -8 + ^ x20: .cfa -16 + ^ x21: .cfa -24 + ^ x22: .cfa -32 + ^ x23: .cfa -40 + ^ x28: .cfa -48 + ^ .ra: .cfa -56 + ^ x29: .cfa -64 + ^
STACK CFI af90 .cfa: sp 384 +
STACK CFI afa4 .cfa: sp 0 +
STACK CFI afa8 .cfa: x29 64 +
STACK CFI INIT b01c 12c .cfa: sp 0 +
STACK CFI b020 .cfa: sp 80 +
STACK CFI b034 .cfa: x29 80 + x19: .cfa -8 + ^ x20: .cfa -16 + ^ x21: .cfa -24 + ^ x22: .cfa -32 + ^ x23: .cfa -40 + ^ x24: .cfa -48 + ^ x25: .cfa -56 + ^ x26: .cfa -64 + ^ .ra: .cfa -72 + ^ x29: .cfa -80 + ^
STACK CFI b0fc .cfa: sp 80 +
STACK CFI b110 .cfa: sp 0 +
STACK CFI b114 .cfa: x29 80 +
STACK CFI INIT b1ec 1a4 .cfa: sp 0 +
STACK CFI b1f0 .cfa: sp 112 +
STACK CFI b208 .cfa: x29 80 + x19: .cfa -8 + ^ x20: .cfa -16 + ^ x21: .cfa -24 + ^ x22: .cfa -32 + ^ x23: .cfa -40 + ^ x24: .cfa -48 + ^ x25: .cfa -56 + ^ x26: .cfa -64 + ^ .ra: .cfa -72 + ^ x29: .cfa -80 + ^
STACK CFI b2f8 .cfa: sp 112 +
STACK CFI b310 .cfa: sp 0 +
STACK CFI b314 .cfa: x29 80 +
STACK CFI INIT b390 1dc .cfa: sp 0 +
STACK CFI b394 .cfa: sp 128 +
STACK CFI b3b0 .cfa: x29 96 + x19: .cfa -8 + ^ x20: .cfa -16 + ^ x21: .cfa -24 + ^ x22: .cfa -32 + ^ x23: .cfa -40 + ^ x24: .cfa -48 + ^ x25: .cfa -56 + ^ x26: .cfa -64 + ^ x27: .cfa -80 + ^ .ra: .cfa -88 + ^ x29: .cfa -96 + ^
STACK CFI b51c .cfa: sp 128 +
STACK CFI b538 .cfa: sp 0 +
STACK CFI b53c .cfa: x29 96 +
STACK CFI INIT b580 50 .cfa: sp 0 +
STACK CFI b584 .cfa: sp 32 +
STACK CFI b58c .cfa: x29 32 + x19: .cfa -8 + ^ x20: .cfa -16 + ^ .ra: .cfa -24 + ^ x29: .cfa -32 + ^
STACK CFI INIT b634 178 .cfa: sp 0 +
STACK CFI b638 .cfa: sp 80 +
STACK CFI b64c .cfa: x29 80 + x19: .cfa -8 + ^ x20: .cfa -16 + ^ x21: .cfa -24 + ^ x22: .cfa -32 + ^ x23: .cfa -40 + ^ x24: .cfa -48 + ^ x25: .cfa -64 + ^ .ra: .cfa -72 + ^ x29: .cfa -80 + ^
STACK CFI b778 .cfa: sp 80 +
STACK CFI b78c .cfa: sp 0 +
STACK CFI b790 .cfa: x29 80 +
STACK CFI INIT b8f4 224 .cfa: sp 0 +
STACK CFI b8f8 .cfa: sp 128 +
STACK CFI b910 .cfa: x29 80 + x19: .cfa -8 + ^ x20: .cfa -16 + ^ x21: .cfa -24 + ^ x22: .cfa -32 + ^ x23: .cfa -40 + ^ x24: .cfa -48 + ^ x25: .cfa -64 + ^ .ra: .cfa -72 + ^ x29: .cfa -80 + ^
STACK CFI baac .cfa: sp 128 +
STACK CFI bac4 .cfa: sp 0 +
STACK CFI bac8 .cfa: x29 80 +
STACK CFI INIT c274 1a4 .cfa: sp 0 +
STACK CFI c278 .cfa: sp 80 +
STACK CFI c288 .cfa: x29 48 + x19: .cfa -8 + ^ x20: .cfa -16 + ^ x21: .cfa -24 + ^ x22: .cfa -32 + ^ .ra: .cfa -40 + ^ x29: .cfa -48 + ^
STACK CFI c3c4 .cfa: sp 80 +
STACK CFI c3d4 .cfa: sp 0 +
STACK CFI c3d8 .cfa: x29 48 +
STACK CFI INIT c4cc 148 .cfa: sp 0 +
STACK CFI c4d0 .cfa: sp 96 +
STACK CFI c4e0 .cfa: x29 48 + x19: .cfa -8 + ^ x20: .cfa -16 + ^ x21: .cfa -32 + ^ .ra: .cfa -40 + ^ x29: .cfa -48 + ^
STACK CFI c5b0 .cfa: sp 96 +
STACK CFI c5c0 .cfa: sp 0 +
STACK CFI c5c4 .cfa: x29 48 +
STACK CFI INIT c92c 374 .cfa: sp 0 +
STACK CFI c930 .cfa: sp 240 +
STACK CFI c944 .cfa: x29 64 + x19: .cfa -8 + ^ x20: .cfa -16 + ^ x21: .cfa -24 + ^ x22: .cfa -32 + ^ x23: .cfa -48 + ^ .ra: .cfa -56 + ^ x29: .cfa -64 + ^
STACK CFI cb74 .cfa: sp 240 +
STACK CFI cb88 .cfa: sp 0 +
STACK CFI cb8c .cfa: x29 64 +
STACK CFI INIT cca4 1c4 .cfa: sp 0 +
STACK CFI cca8 .cfa: sp 96 +
STACK CFI ccbc .cfa: x29 64 + x19: .cfa -8 + ^ x20: .cfa -16 + ^ x21: .cfa -24 + ^ x22: .cfa -32 + ^ x23: .cfa -40 + ^ x24: .cfa -48 + ^ .ra: .cfa -56 + ^ x29: .cfa -64 + ^
STACK CFI ce20 .cfa: sp 96 +
STACK CFI ce34 .cfa: sp 0 +
STACK CFI ce38 .cfa: x29 64 +
STACK CFI INIT ce68 dc .cfa: sp 0 +
STACK CFI ce6c .cfa: sp 64 +
STACK CFI ce78 .cfa: x29 32 + x19: .cfa -8 + ^ x20: .cfa -16 + ^ .ra: .cfa -24 + ^ x29: .cfa -32 + ^
STACK CFI cefc .cfa: sp 64 +
STACK CFI cf08 .cfa: sp 0 +
STACK CFI cf0c .cfa: x29 32 +
STACK CFI INIT cf80 134 .cfa: sp 0 +
STACK CFI cf84 .cfa: sp 80 +
STACK CFI cf90 .cfa: x29 32 + x19: .cfa -8 + ^ x20: .cfa -16 + ^ .ra: .cfa -24 + ^ x29: .cfa -32 + ^
STACK CFI cfc0 .cfa: sp 80 +
STACK CFI cfcc .cfa: sp 0 +
STACK CFI cfd0 .cfa: x29 32 +
STACK CFI INIT d0b4 78 .cfa: sp 0 +
STACK CFI d0b8 .cfa: sp 32 +
STACK CFI d0c0 .cfa: x29 32 + x19: .cfa -8 + ^ x20: .cfa -16 + ^ .ra: .cfa -24 + ^ x29: .cfa -32 + ^
STACK CFI d0cc .cfa: sp 32 +
STACK CFI d0d4 .cfa: sp 0 +
STACK CFI d0d8 .cfa: x29 32 +
STACK CFI INIT d12c 74 .cfa: sp 0 +
STACK CFI d130 .cfa: sp 48 +
STACK CFI d13c .cfa: x29 32 + x19: .cfa -8 + ^ x20: .cfa -16 + ^ .ra: .cfa -24 + ^ x29: .cfa -32 + ^
STACK CFI d188 .cfa: sp 48 +
STACK CFI d194 .cfa: sp 0 +
STACK CFI d198 .cfa: x29 32 +
STACK CFI INIT d204 150 .cfa: sp 0 +
STACK CFI d208 .cfa: sp 128 +
STACK CFI d218 .cfa: x29 48 + x19: .cfa -8 + ^ x20: .cfa -16 + ^ x21: .cfa -24 + ^ x22: .cfa -32 + ^ .ra: .cfa -40 + ^ x29: .cfa -48 + ^
STACK CFI d260 .cfa: sp 128 +
STACK CFI d270 .cfa: sp 0 +
STACK CFI d274 .cfa: x29 48 +
STACK CFI INIT d354 a8 .cfa: sp 0 +
STACK CFI d358 .cfa: sp 64 +
STACK CFI d368 .cfa: x29 48 + x19: .cfa -8 + ^ x20: .cfa -16 + ^ x21: .cfa -32 + ^ .ra: .cfa -40 + ^ x29: .cfa -48 + ^
STACK CFI d3d0 .cfa: sp 64 +
STACK CFI d3e0 .cfa: sp 0 +
STACK CFI d3e4 .cfa: x29 48 +
STACK CFI INIT d3fc 1b8 .cfa: sp 0 +
STACK CFI d400 .cfa: sp 160 +
STACK CFI d41c .cfa: x29 72 + x19: .cfa -8 + ^ x20: .cfa -16 + ^ x21: .cfa -24 + ^ x22: .cfa -32 + ^ x23: .cfa -40 + ^ x24: .cfa -48 + ^ x25: .cfa -56 + ^ .ra: .cfa -64 + ^ x29: .cfa -72 + ^ v8: .cfa -80 + ^
STACK CFI d4a0 .cfa: sp 160 +
STACK CFI d4bc .cfa: sp 0 +
STACK CFI d4c0 .cfa: x29 72 +
STACK CFI INIT d5b4 16c .cfa: sp 0 +
STACK CFI d5b8 .cfa: sp 64 +
STACK CFI d5c8 .cfa: x29 48 + x19: .cfa -8 + ^ x20: .cfa -16 + ^ x21: .cfa -24 + ^ x22: .cfa -32 + ^ .ra: .cfa -40 + ^ x29: .cfa -48 + ^
STACK CFI d6c0 .cfa: sp 64 +
STACK CFI d6d0 .cfa: sp 0 +
STACK CFI d6d4 .cfa: x29 48 +
STACK CFI INIT d720 180 .cfa: sp 0 +
STACK CFI d724 .cfa: sp 128 +
STACK CFI d734 .cfa: x29 48 + x19: .cfa -8 + ^ x20: .cfa -16 + ^ x21: .cfa -24 + ^ x22: .cfa -32 + ^ .ra: .cfa -40 + ^ x29: .cfa -48 + ^
STACK CFI d798 .cfa: sp 128 +
STACK CFI d7a8 .cfa: sp 0 +
STACK CFI d7ac .cfa: x29 48 +
STACK CFI INIT d8a0 a4 .cfa: sp 0 +
STACK CFI d8a4 .cfa: sp 48 +
STACK CFI d8b0 .cfa: x29 48 + x19: .cfa -8 + ^ x20: .cfa -16 + ^ x21: .cfa -32 + ^ .ra: .cfa -40 + ^ x29: .cfa -48 + ^
STACK CFI d91c .cfa: sp 48 +
STACK CFI d928 .cfa: sp 0 +
STACK CFI d92c .cfa: x29 48 +
STACK CFI INIT d944 154 .cfa: sp 0 +
STACK CFI d948 .cfa: sp 384 +
STACK CFI d95c .cfa: x29 64 + x19: .cfa -8 + ^ x20: .cfa -16 + ^ x21: .cfa -24 + ^ x22: .cfa -32 + ^ x23: .cfa -40 + ^ x28: .cfa -48 + ^ .ra: .cfa -56 + ^ x29: .cfa -64 + ^
STACK CFI da40 .cfa: sp 384 +
STACK CFI da54 .cfa: sp 0 +
STACK CFI da58 .cfa: x29 64 +
STACK CFI INIT da98 168 .cfa: sp 0 +
STACK CFI da9c .cfa: sp 384 +
STACK CFI dab0 .cfa: x29 64 + x19: .cfa -8 + ^ x20: .cfa -16 + ^ x21: .cfa -24 + ^ x22: .cfa -32 + ^ x23: .cfa -40 + ^ x28: .cfa -48 + ^ .ra: .cfa -56 + ^ x29: .cfa -64 + ^
STACK CFI dba8 .cfa: sp 384 +
STACK CFI dbbc .cfa: sp 0 +
STACK CFI dbc0 .cfa: x29 64 +
