MODULE Linux arm64 5837C2323B60CFAF88F82EB3596D45210 hiimjustin000.level_info_colors.android64.so
INFO CODE_ID 32C23758603BAFCF88F82EB3596D45212B6F360A
INFO GENERATOR mozilla/dump_syms 2.3.4
PUBLIC 155e0 0 __on_dlclose
PUBLIC 155f0 0 __emutls_unregister_key
PUBLIC 155f8 0 __on_dlclose_late
PUBLIC 15600 0 __atexit_handler_wrapper
PUBLIC 15614 0 atexit
PUBLIC 15630 0 pthread_atfork
PUBLIC 15640 0 unwind_phase2
PUBLIC 15774 0 _Unwind_Resume
PUBLIC 157f8 0 unwind_phase2_forced
PUBLIC m 158ec 0 __unw_init_local
PUBLIC m 15994 0 __unw_get_reg
PUBLIC 15a10 0 __unw_step_stage2
PUBLIC m 15a24 0 __unw_get_proc_info
PUBLIC m 15a64 0 __unw_resume
PUBLIC 15a8c 0 libunwind::CFI_Parser<libunwind::LocalAddressSpace>::decodeFDE(libunwind::LocalAddressSpace&, unsigned long, libunwind::CFI_Parser<libunwind::LocalAddressSpace>::FDE_Info*, libunwind::CFI_Parser<libunwind::LocalAddressSpace>::CIE_Info*, bool)
PUBLIC 15c1c 0 libunwind::CFI_Parser<libunwind::LocalAddressSpace>::parseCIE(libunwind::LocalAddressSpace&, unsigned long, libunwind::CFI_Parser<libunwind::LocalAddressSpace>::CIE_Info*)
PUBLIC 15ee4 0 libunwind::AbstractUnwindCursor::~AbstractUnwindCursor()
PUBLIC 15eec 0 libunwind::UnwindCursor<libunwind::LocalAddressSpace, libunwind::Registers_arm64>::~UnwindCursor()
PUBLIC 15ef4 0 libunwind::UnwindCursor<libunwind::LocalAddressSpace, libunwind::Registers_arm64>::validReg(int)
PUBLIC 15f38 0 libunwind::UnwindCursor<libunwind::LocalAddressSpace, libunwind::Registers_arm64>::getReg(int)
PUBLIC 16020 0 libunwind::UnwindCursor<libunwind::LocalAddressSpace, libunwind::Registers_arm64>::setReg(int, unsigned long)
PUBLIC 16108 0 libunwind::UnwindCursor<libunwind::LocalAddressSpace, libunwind::Registers_arm64>::validFloatReg(int)
PUBLIC 1611c 0 libunwind::UnwindCursor<libunwind::LocalAddressSpace, libunwind::Registers_arm64>::getFloatReg(int)
PUBLIC 1612c 0 libunwind::UnwindCursor<libunwind::LocalAddressSpace, libunwind::Registers_arm64>::setFloatReg(int, double)
PUBLIC 1613c 0 libunwind::UnwindCursor<libunwind::LocalAddressSpace, libunwind::Registers_arm64>::step(bool)
PUBLIC 1622c 0 libunwind::UnwindCursor<libunwind::LocalAddressSpace, libunwind::Registers_arm64>::getInfo(unw_proc_info_t*)
PUBLIC 16270 0 libunwind::UnwindCursor<libunwind::LocalAddressSpace, libunwind::Registers_arm64>::jumpto()
PUBLIC 1627c 0 libunwind::UnwindCursor<libunwind::LocalAddressSpace, libunwind::Registers_arm64>::isSignalFrame()
PUBLIC 16288 0 libunwind::UnwindCursor<libunwind::LocalAddressSpace, libunwind::Registers_arm64>::getFunctionName(char*, unsigned long, unsigned long*)
PUBLIC 162b4 0 libunwind::UnwindCursor<libunwind::LocalAddressSpace, libunwind::Registers_arm64>::setInfoBasedOnIPRegister(bool)
PUBLIC 16534 0 libunwind::UnwindCursor<libunwind::LocalAddressSpace, libunwind::Registers_arm64>::getRegisterName(int)
PUBLIC 16540 0 libunwind::UnwindCursor<libunwind::LocalAddressSpace, libunwind::Registers_arm64>::stepThroughSigReturn(libunwind::Registers_arm64&)
PUBLIC 16660 0 libunwind::DwarfInstructions<libunwind::LocalAddressSpace, libunwind::Registers_arm64>::stepWithDwarf(libunwind::LocalAddressSpace&, unsigned long, unsigned long, libunwind::Registers_arm64&, bool&, bool)
PUBLIC 16ae8 0 libunwind::CFI_Parser<libunwind::LocalAddressSpace>::parseFDEInstructions(libunwind::LocalAddressSpace&, libunwind::CFI_Parser<libunwind::LocalAddressSpace>::FDE_Info const&, libunwind::CFI_Parser<libunwind::LocalAddressSpace>::CIE_Info const&, unsigned long, int, libunwind::CFI_Parser<libunwind::LocalAddressSpace>::PrologInfo*)
PUBLIC 17730 0 libunwind::DwarfInstructions<libunwind::LocalAddressSpace, libunwind::Registers_arm64>::getCFA(libunwind::LocalAddressSpace&, libunwind::CFI_Parser<libunwind::LocalAddressSpace>::PrologInfo const&, libunwind::Registers_arm64 const&)
PUBLIC 17864 0 libunwind::DwarfInstructions<libunwind::LocalAddressSpace, libunwind::Registers_arm64>::getSavedRegister(libunwind::LocalAddressSpace&, libunwind::Registers_arm64 const&, unsigned long, libunwind::CFI_Parser<libunwind::LocalAddressSpace>::RegisterLocation const&)
PUBLIC 17a74 0 libunwind::LocalAddressSpace::getEncodedP(unsigned long&, unsigned long, unsigned char, unsigned long)
PUBLIC 17e00 0 libunwind::LocalAddressSpace::getULEB128(unsigned long&, unsigned long)
PUBLIC 17fc8 0 libunwind::DwarfInstructions<libunwind::LocalAddressSpace, libunwind::Registers_arm64>::evaluateExpression(unsigned long, libunwind::LocalAddressSpace&, libunwind::Registers_arm64 const&, unsigned long)
PUBLIC 18984 0 libunwind::UnwindCursor<libunwind::LocalAddressSpace, libunwind::Registers_arm64>::getInfoFromDwarfSection(unsigned long, libunwind::UnwindInfoSections const&, unsigned int)
PUBLIC 18c58 0 libunwind::findUnwindSectionsByPhdr(dl_phdr_info*, unsigned long, void*)
PUBLIC 18d8c 0 libunwind::EHHeaderParser<libunwind::LocalAddressSpace>::decodeEHHdr(libunwind::LocalAddressSpace&, unsigned long, unsigned long, libunwind::EHHeaderParser<libunwind::LocalAddressSpace>::EHHeaderInfo&)
PUBLIC 18eac 0 libunwind::CFI_Parser<libunwind::LocalAddressSpace>::findFDE(libunwind::LocalAddressSpace&, unsigned long, unsigned long, unsigned long, unsigned long, libunwind::CFI_Parser<libunwind::LocalAddressSpace>::FDE_Info*, libunwind::CFI_Parser<libunwind::LocalAddressSpace>::CIE_Info*)
PUBLIC 19074 0 libunwind::EHHeaderParser<libunwind::LocalAddressSpace>::findFDE(libunwind::LocalAddressSpace&, unsigned long, unsigned long, unsigned int, libunwind::CFI_Parser<libunwind::LocalAddressSpace>::FDE_Info*, libunwind::CFI_Parser<libunwind::LocalAddressSpace>::CIE_Info*)
PUBLIC 191dc 0 libunwind::EHHeaderParser<libunwind::LocalAddressSpace>::getTableEntrySize(unsigned char)
PUBLIC 192d8 0 libunwind::Registers_arm64::getRegisterName(int)
PUBLIC 19308 0 __libunwind_Registers_arm64_jumpto
PUBLIC m 19398 0 __unw_getcontext
PUBLIC 19440 0 __aarch64_ldadd8_acq_rel
PUBLIC 19470 0 init_have_lse_atomics
PUBLIC 19508 0 __init_cpu_features_constructor
PUBLIC 19aa4 0 __init_cpu_features
PUBLIC 19b30 0 __aarch64_ldadd8_relax
PUBLIC 19b60 0 LICColorPopup::create(cocos2d::CCSprite*, cocos2d::_ccColor3B const&, cocos2d::_ccColor3B const&, bool, bool, bool, bool)
PUBLIC 19d2c 0 LICColorPopup::setup(cocos2d::CCSprite*, cocos2d::_ccColor3B const&, cocos2d::_ccColor3B const&, bool, bool, bool, bool)
PUBLIC 1acc0 0 geode::cocos::CCMenuItemExt::createSpriteExtra(cocos2d::CCNode*, std::__ndk1::function<void (CCMenuItemSpriteExtra*)>)
PUBLIC 1b08c 0 LICColorPopup::updateState(cocos2d::CCNode*)
PUBLIC 1b2c4 0 LICColorPopup::colorValueChanged(cocos2d::_ccColor3B)
PUBLIC 1b2e4 0 {virtual override thunk({offset(-672)}, LICColorPopup::colorValueChanged(cocos2d::_ccColor3B))}
PUBLIC 1b30c 0 LICColorPopup::onClose(cocos2d::CCObject*)
PUBLIC 1b378 0 cocos2d::CCCopying::copyWithZone(cocos2d::CCZone*)
PUBLIC 1b380 0 geode::Popup<cocos2d::CCSprite*, cocos2d::_ccColor3B const&, cocos2d::_ccColor3B const&, bool, bool, bool, bool>::~Popup()
PUBLIC 1b3ec 0 LICColorPopup::~LICColorPopup()
PUBLIC 1b460 0 geode::Popup<cocos2d::CCSprite*, cocos2d::_ccColor3B const&, cocos2d::_ccColor3B const&, bool, bool, bool, bool>::registerWithTouchDispatcher()
PUBLIC 1b48c 0 geode::Popup<cocos2d::CCSprite*, cocos2d::_ccColor3B const&, cocos2d::_ccColor3B const&, bool, bool, bool, bool>::keyDown(cocos2d::enumKeyCodes)
PUBLIC 1b4b4 0 cocos2d::CCLayerRGBA::setOpacityModifyRGB(bool)
PUBLIC 1b4b8 0 cocos2d::CCLayerRGBA::isOpacityModifyRGB()
PUBLIC 1b4c0 0 {virtual override thunk({offset(-320)}, LICColorPopup::~LICColorPopup())}
PUBLIC 1b52c 0 {virtual override thunk({offset(-320)}, LICColorPopup::~LICColorPopup())}
PUBLIC 1b5a0 0 {virtual override thunk({offset(-344)}, geode::Popup<cocos2d::CCSprite*, cocos2d::_ccColor3B const&, cocos2d::_ccColor3B const&, bool, bool, bool, bool>::keyDown(cocos2d::enumKeyCodes))}
PUBLIC 1b5cc 0 cocos2d::CCKeyboardDelegate::keyUp(cocos2d::enumKeyCodes)
PUBLIC 1b5d0 0 cocos2d::CCMouseDelegate::rightKeyDown()
PUBLIC 1b5d4 0 cocos2d::CCMouseDelegate::rightKeyUp()
PUBLIC 1b5d8 0 cocos2d::CCMouseDelegate::scrollWheel(float, float)
PUBLIC 1b5dc 0 {virtual override thunk({offset(-408)}, cocos2d::CCLayerRGBA::setOpacityModifyRGB(bool))}
PUBLIC 1b5e0 0 {virtual override thunk({offset(-408)}, cocos2d::CCLayerRGBA::isOpacityModifyRGB())}
PUBLIC 1b5e8 0 geode::Popup<cocos2d::CCSprite*, cocos2d::_ccColor3B const&, cocos2d::_ccColor3B const&, bool, bool, bool, bool>::~Popup()
PUBLIC 1b5ec 0 geode::Popup<cocos2d::CCSprite*, cocos2d::_ccColor3B const&, cocos2d::_ccColor3B const&, bool, bool, bool, bool>::onClose(cocos2d::CCObject*)
PUBLIC 1b734 0 {virtual override thunk({offset(-320)}, geode::Popup<cocos2d::CCSprite*, cocos2d::_ccColor3B const&, cocos2d::_ccColor3B const&, bool, bool, bool, bool>::~Popup())}
PUBLIC 1b7a0 0 {virtual override thunk({offset(-320)}, geode::Popup<cocos2d::CCSprite*, cocos2d::_ccColor3B const&, cocos2d::_ccColor3B const&, bool, bool, bool, bool>::~Popup())}
PUBLIC 1b7a4 0 __clang_call_terminate
PUBLIC 1b7b4 0 geode::Popup<cocos2d::CCSprite*, cocos2d::_ccColor3B const&, cocos2d::_ccColor3B const&, bool, bool, bool, bool>::CloseEvent::~CloseEvent()
PUBLIC 1b814 0 geode::Popup<cocos2d::CCSprite*, cocos2d::_ccColor3B const&, cocos2d::_ccColor3B const&, bool, bool, bool, bool>::CloseEvent::~CloseEvent()
PUBLIC 1b884 0 std::__ndk1::__shared_ptr_emplace<geode::Popup<cocos2d::CCSprite*, cocos2d::_ccColor3B const&, cocos2d::_ccColor3B const&, bool, bool, bool, bool>::CloseEvent::Impl, std::__ndk1::allocator<geode::Popup<cocos2d::CCSprite*, cocos2d::_ccColor3B const&, cocos2d::_ccColor3B const&, bool, bool, bool, bool>::CloseEvent::Impl> >::~__shared_ptr_emplace()
PUBLIC 1b894 0 std::__ndk1::__shared_ptr_emplace<geode::Popup<cocos2d::CCSprite*, cocos2d::_ccColor3B const&, cocos2d::_ccColor3B const&, bool, bool, bool, bool>::CloseEvent::Impl, std::__ndk1::allocator<geode::Popup<cocos2d::CCSprite*, cocos2d::_ccColor3B const&, cocos2d::_ccColor3B const&, bool, bool, bool, bool>::CloseEvent::Impl> >::~__shared_ptr_emplace()
PUBLIC 1b8c4 0 std::__ndk1::__shared_ptr_emplace<geode::Popup<cocos2d::CCSprite*, cocos2d::_ccColor3B const&, cocos2d::_ccColor3B const&, bool, bool, bool, bool>::CloseEvent::Impl, std::__ndk1::allocator<geode::Popup<cocos2d::CCSprite*, cocos2d::_ccColor3B const&, cocos2d::_ccColor3B const&, bool, bool, bool, bool>::CloseEvent::Impl> >::__on_zero_shared()
PUBLIC 1b8c8 0 std::__ndk1::__shared_ptr_emplace<geode::Popup<cocos2d::CCSprite*, cocos2d::_ccColor3B const&, cocos2d::_ccColor3B const&, bool, bool, bool, bool>::CloseEvent::Impl, std::__ndk1::allocator<geode::Popup<cocos2d::CCSprite*, cocos2d::_ccColor3B const&, cocos2d::_ccColor3B const&, bool, bool, bool, bool>::CloseEvent::Impl> >::__on_zero_shared_weak()
PUBLIC 1b8cc 0 geode::cocos::CCMenuItemExt::LambdaCallback<CCMenuItemSpriteExtra>::execute(cocos2d::CCNode*)
PUBLIC 1b93c 0 geode::cocos::CCMenuItemExt::LambdaCallback<CCMenuItemSpriteExtra>::~LambdaCallback()
PUBLIC 1b998 0 geode::cocos::CCMenuItemExt::LambdaCallback<CCMenuItemSpriteExtra>::~LambdaCallback()
PUBLIC 1b9fc 0 cocos2d::CCObject::update(float)
PUBLIC 1ba00 0 std::__ndk1::__throw_bad_function_call[abi:ne180000]()
PUBLIC 1ba34 0 std::__ndk1::bad_function_call::~bad_function_call()
PUBLIC 1ba58 0 _ZNSt6__ndk117__from_chars_atoiB8ne180000IiTnNS_9enable_ifIXsr9is_signedIT_EE5valueEiE4typeELi0EEENS_17from_chars_resultEPKcS7_RS2_
PUBLIC 1bcd4 0 geode::Popup<cocos2d::CCSprite*, cocos2d::_ccColor3B const&, cocos2d::_ccColor3B const&, bool, bool, bool, bool>::initBase(float, float, cocos2d::CCSprite*, cocos2d::_ccColor3B const&, cocos2d::_ccColor3B const&, bool, bool, bool, bool, char const*, cocos2d::CCRect, bool)
PUBLIC 1c010 0 std::__ndk1::__function::__func<LICColorPopup::setup(cocos2d::CCSprite*, cocos2d::_ccColor3B const&, cocos2d::_ccColor3B const&, bool, bool, bool, bool)::$_0, std::__ndk1::allocator<LICColorPopup::setup(cocos2d::CCSprite*, cocos2d::_ccColor3B const&, cocos2d::_ccColor3B const&, bool, bool, bool, bool)::$_0>, void (CCMenuItemSpriteExtra*)>::~__func()
PUBLIC 1c014 0 std::__ndk1::__function::__func<LICColorPopup::setup(cocos2d::CCSprite*, cocos2d::_ccColor3B const&, cocos2d::_ccColor3B const&, bool, bool, bool, bool)::$_0, std::__ndk1::allocator<LICColorPopup::setup(cocos2d::CCSprite*, cocos2d::_ccColor3B const&, cocos2d::_ccColor3B const&, bool, bool, bool, bool)::$_0>, void (CCMenuItemSpriteExtra*)>::__clone() const
PUBLIC 1c048 0 std::__ndk1::__function::__func<LICColorPopup::setup(cocos2d::CCSprite*, cocos2d::_ccColor3B const&, cocos2d::_ccColor3B const&, bool, bool, bool, bool)::$_0, std::__ndk1::allocator<LICColorPopup::setup(cocos2d::CCSprite*, cocos2d::_ccColor3B const&, cocos2d::_ccColor3B const&, bool, bool, bool, bool)::$_0>, void (CCMenuItemSpriteExtra*)>::__clone(std::__ndk1::__function::__base<void (CCMenuItemSpriteExtra*)>*) const
PUBLIC 1c05c 0 std::__ndk1::__function::__func<LICColorPopup::setup(cocos2d::CCSprite*, cocos2d::_ccColor3B const&, cocos2d::_ccColor3B const&, bool, bool, bool, bool)::$_0, std::__ndk1::allocator<LICColorPopup::setup(cocos2d::CCSprite*, cocos2d::_ccColor3B const&, cocos2d::_ccColor3B const&, bool, bool, bool, bool)::$_0>, void (CCMenuItemSpriteExtra*)>::destroy()
PUBLIC 1c060 0 std::__ndk1::__function::__func<LICColorPopup::setup(cocos2d::CCSprite*, cocos2d::_ccColor3B const&, cocos2d::_ccColor3B const&, bool, bool, bool, bool)::$_0, std::__ndk1::allocator<LICColorPopup::setup(cocos2d::CCSprite*, cocos2d::_ccColor3B const&, cocos2d::_ccColor3B const&, bool, bool, bool, bool)::$_0>, void (CCMenuItemSpriteExtra*)>::destroy_deallocate()
PUBLIC 1c064 0 std::__ndk1::__function::__func<LICColorPopup::setup(cocos2d::CCSprite*, cocos2d::_ccColor3B const&, cocos2d::_ccColor3B const&, bool, bool, bool, bool)::$_0, std::__ndk1::allocator<LICColorPopup::setup(cocos2d::CCSprite*, cocos2d::_ccColor3B const&, cocos2d::_ccColor3B const&, bool, bool, bool, bool)::$_0>, void (CCMenuItemSpriteExtra*)>::operator()(CCMenuItemSpriteExtra*&&)
PUBLIC 1c084 0 std::__ndk1::__function::__func<LICColorPopup::setup(cocos2d::CCSprite*, cocos2d::_ccColor3B const&, cocos2d::_ccColor3B const&, bool, bool, bool, bool)::$_0, std::__ndk1::allocator<LICColorPopup::setup(cocos2d::CCSprite*, cocos2d::_ccColor3B const&, cocos2d::_ccColor3B const&, bool, bool, bool, bool)::$_0>, void (CCMenuItemSpriteExtra*)>::target(std::type_info const&) const
PUBLIC 1c0a0 0 std::__ndk1::__function::__func<LICColorPopup::setup(cocos2d::CCSprite*, cocos2d::_ccColor3B const&, cocos2d::_ccColor3B const&, bool, bool, bool, bool)::$_0, std::__ndk1::allocator<LICColorPopup::setup(cocos2d::CCSprite*, cocos2d::_ccColor3B const&, cocos2d::_ccColor3B const&, bool, bool, bool, bool)::$_0>, void (CCMenuItemSpriteExtra*)>::target_type() const
PUBLIC 1c0ac 0 std::__ndk1::__function::__func<LICColorPopup::setup(cocos2d::CCSprite*, cocos2d::_ccColor3B const&, cocos2d::_ccColor3B const&, bool, bool, bool, bool)::$_1, std::__ndk1::allocator<LICColorPopup::setup(cocos2d::CCSprite*, cocos2d::_ccColor3B const&, cocos2d::_ccColor3B const&, bool, bool, bool, bool)::$_1>, void (CCMenuItemSpriteExtra*)>::~__func()
PUBLIC 1c0b0 0 std::__ndk1::__function::__func<LICColorPopup::setup(cocos2d::CCSprite*, cocos2d::_ccColor3B const&, cocos2d::_ccColor3B const&, bool, bool, bool, bool)::$_1, std::__ndk1::allocator<LICColorPopup::setup(cocos2d::CCSprite*, cocos2d::_ccColor3B const&, cocos2d::_ccColor3B const&, bool, bool, bool, bool)::$_1>, void (CCMenuItemSpriteExtra*)>::__clone() const
PUBLIC 1c0e4 0 std::__ndk1::__function::__func<LICColorPopup::setup(cocos2d::CCSprite*, cocos2d::_ccColor3B const&, cocos2d::_ccColor3B const&, bool, bool, bool, bool)::$_1, std::__ndk1::allocator<LICColorPopup::setup(cocos2d::CCSprite*, cocos2d::_ccColor3B const&, cocos2d::_ccColor3B const&, bool, bool, bool, bool)::$_1>, void (CCMenuItemSpriteExtra*)>::__clone(std::__ndk1::__function::__base<void (CCMenuItemSpriteExtra*)>*) const
PUBLIC 1c0f8 0 std::__ndk1::__function::__func<LICColorPopup::setup(cocos2d::CCSprite*, cocos2d::_ccColor3B const&, cocos2d::_ccColor3B const&, bool, bool, bool, bool)::$_1, std::__ndk1::allocator<LICColorPopup::setup(cocos2d::CCSprite*, cocos2d::_ccColor3B const&, cocos2d::_ccColor3B const&, bool, bool, bool, bool)::$_1>, void (CCMenuItemSpriteExtra*)>::destroy()
PUBLIC 1c0fc 0 std::__ndk1::__function::__func<LICColorPopup::setup(cocos2d::CCSprite*, cocos2d::_ccColor3B const&, cocos2d::_ccColor3B const&, bool, bool, bool, bool)::$_1, std::__ndk1::allocator<LICColorPopup::setup(cocos2d::CCSprite*, cocos2d::_ccColor3B const&, cocos2d::_ccColor3B const&, bool, bool, bool, bool)::$_1>, void (CCMenuItemSpriteExtra*)>::destroy_deallocate()
PUBLIC 1c100 0 std::__ndk1::__function::__func<LICColorPopup::setup(cocos2d::CCSprite*, cocos2d::_ccColor3B const&, cocos2d::_ccColor3B const&, bool, bool, bool, bool)::$_1, std::__ndk1::allocator<LICColorPopup::setup(cocos2d::CCSprite*, cocos2d::_ccColor3B const&, cocos2d::_ccColor3B const&, bool, bool, bool, bool)::$_1>, void (CCMenuItemSpriteExtra*)>::operator()(CCMenuItemSpriteExtra*&&)
PUBLIC 1c11c 0 std::__ndk1::__function::__func<LICColorPopup::setup(cocos2d::CCSprite*, cocos2d::_ccColor3B const&, cocos2d::_ccColor3B const&, bool, bool, bool, bool)::$_1, std::__ndk1::allocator<LICColorPopup::setup(cocos2d::CCSprite*, cocos2d::_ccColor3B const&, cocos2d::_ccColor3B const&, bool, bool, bool, bool)::$_1>, void (CCMenuItemSpriteExtra*)>::target(std::type_info const&) const
PUBLIC 1c138 0 std::__ndk1::__function::__func<LICColorPopup::setup(cocos2d::CCSprite*, cocos2d::_ccColor3B const&, cocos2d::_ccColor3B const&, bool, bool, bool, bool)::$_1, std::__ndk1::allocator<LICColorPopup::setup(cocos2d::CCSprite*, cocos2d::_ccColor3B const&, cocos2d::_ccColor3B const&, bool, bool, bool, bool)::$_1>, void (CCMenuItemSpriteExtra*)>::target_type() const
PUBLIC 1c144 0 std::__ndk1::__function::__func<LICColorPopup::setup(cocos2d::CCSprite*, cocos2d::_ccColor3B const&, cocos2d::_ccColor3B const&, bool, bool, bool, bool)::$_3, std::__ndk1::allocator<LICColorPopup::setup(cocos2d::CCSprite*, cocos2d::_ccColor3B const&, cocos2d::_ccColor3B const&, bool, bool, bool, bool)::$_3>, void (std::__ndk1::basic_string<char, std::__ndk1::char_traits<char>, std::__ndk1::allocator<char> > const&)>::~__func()
PUBLIC 1c148 0 std::__ndk1::__function::__func<LICColorPopup::setup(cocos2d::CCSprite*, cocos2d::_ccColor3B const&, cocos2d::_ccColor3B const&, bool, bool, bool, bool)::$_3, std::__ndk1::allocator<LICColorPopup::setup(cocos2d::CCSprite*, cocos2d::_ccColor3B const&, cocos2d::_ccColor3B const&, bool, bool, bool, bool)::$_3>, void (std::__ndk1::basic_string<char, std::__ndk1::char_traits<char>, std::__ndk1::allocator<char> > const&)>::__clone() const
PUBLIC 1c17c 0 std::__ndk1::__function::__func<LICColorPopup::setup(cocos2d::CCSprite*, cocos2d::_ccColor3B const&, cocos2d::_ccColor3B const&, bool, bool, bool, bool)::$_3, std::__ndk1::allocator<LICColorPopup::setup(cocos2d::CCSprite*, cocos2d::_ccColor3B const&, cocos2d::_ccColor3B const&, bool, bool, bool, bool)::$_3>, void (std::__ndk1::basic_string<char, std::__ndk1::char_traits<char>, std::__ndk1::allocator<char> > const&)>::__clone(std::__ndk1::__function::__base<void (std::__ndk1::basic_string<char, std::__ndk1::char_traits<char>, std::__ndk1::allocator<char> > const&)>*) const
PUBLIC 1c190 0 std::__ndk1::__function::__func<LICColorPopup::setup(cocos2d::CCSprite*, cocos2d::_ccColor3B const&, cocos2d::_ccColor3B const&, bool, bool, bool, bool)::$_3, std::__ndk1::allocator<LICColorPopup::setup(cocos2d::CCSprite*, cocos2d::_ccColor3B const&, cocos2d::_ccColor3B const&, bool, bool, bool, bool)::$_3>, void (std::__ndk1::basic_string<char, std::__ndk1::char_traits<char>, std::__ndk1::allocator<char> > const&)>::destroy()
PUBLIC 1c194 0 std::__ndk1::__function::__func<LICColorPopup::setup(cocos2d::CCSprite*, cocos2d::_ccColor3B const&, cocos2d::_ccColor3B const&, bool, bool, bool, bool)::$_3, std::__ndk1::allocator<LICColorPopup::setup(cocos2d::CCSprite*, cocos2d::_ccColor3B const&, cocos2d::_ccColor3B const&, bool, bool, bool, bool)::$_3>, void (std::__ndk1::basic_string<char, std::__ndk1::char_traits<char>, std::__ndk1::allocator<char> > const&)>::destroy_deallocate()
PUBLIC 1c198 0 std::__ndk1::__function::__func<LICColorPopup::setup(cocos2d::CCSprite*, cocos2d::_ccColor3B const&, cocos2d::_ccColor3B const&, bool, bool, bool, bool)::$_3, std::__ndk1::allocator<LICColorPopup::setup(cocos2d::CCSprite*, cocos2d::_ccColor3B const&, cocos2d::_ccColor3B const&, bool, bool, bool, bool)::$_3>, void (std::__ndk1::basic_string<char, std::__ndk1::char_traits<char>, std::__ndk1::allocator<char> > const&)>::operator()(std::__ndk1::basic_string<char, std::__ndk1::char_traits<char>, std::__ndk1::allocator<char> > const&)
PUBLIC 1c244 0 std::__ndk1::__function::__func<LICColorPopup::setup(cocos2d::CCSprite*, cocos2d::_ccColor3B const&, cocos2d::_ccColor3B const&, bool, bool, bool, bool)::$_3, std::__ndk1::allocator<LICColorPopup::setup(cocos2d::CCSprite*, cocos2d::_ccColor3B const&, cocos2d::_ccColor3B const&, bool, bool, bool, bool)::$_3>, void (std::__ndk1::basic_string<char, std::__ndk1::char_traits<char>, std::__ndk1::allocator<char> > const&)>::target(std::type_info const&) const
PUBLIC 1c260 0 std::__ndk1::__function::__func<LICColorPopup::setup(cocos2d::CCSprite*, cocos2d::_ccColor3B const&, cocos2d::_ccColor3B const&, bool, bool, bool, bool)::$_3, std::__ndk1::allocator<LICColorPopup::setup(cocos2d::CCSprite*, cocos2d::_ccColor3B const&, cocos2d::_ccColor3B const&, bool, bool, bool, bool)::$_3>, void (std::__ndk1::basic_string<char, std::__ndk1::char_traits<char>, std::__ndk1::allocator<char> > const&)>::target_type() const
PUBLIC 1c26c 0 std::__ndk1::__function::__func<LICColorPopup::setup(cocos2d::CCSprite*, cocos2d::_ccColor3B const&, cocos2d::_ccColor3B const&, bool, bool, bool, bool)::$_4, std::__ndk1::allocator<LICColorPopup::setup(cocos2d::CCSprite*, cocos2d::_ccColor3B const&, cocos2d::_ccColor3B const&, bool, bool, bool, bool)::$_4>, void (std::__ndk1::basic_string<char, std::__ndk1::char_traits<char>, std::__ndk1::allocator<char> > const&)>::~__func()
PUBLIC 1c270 0 std::__ndk1::__function::__func<LICColorPopup::setup(cocos2d::CCSprite*, cocos2d::_ccColor3B const&, cocos2d::_ccColor3B const&, bool, bool, bool, bool)::$_4, std::__ndk1::allocator<LICColorPopup::setup(cocos2d::CCSprite*, cocos2d::_ccColor3B const&, cocos2d::_ccColor3B const&, bool, bool, bool, bool)::$_4>, void (std::__ndk1::basic_string<char, std::__ndk1::char_traits<char>, std::__ndk1::allocator<char> > const&)>::__clone() const
PUBLIC 1c2a4 0 std::__ndk1::__function::__func<LICColorPopup::setup(cocos2d::CCSprite*, cocos2d::_ccColor3B const&, cocos2d::_ccColor3B const&, bool, bool, bool, bool)::$_4, std::__ndk1::allocator<LICColorPopup::setup(cocos2d::CCSprite*, cocos2d::_ccColor3B const&, cocos2d::_ccColor3B const&, bool, bool, bool, bool)::$_4>, void (std::__ndk1::basic_string<char, std::__ndk1::char_traits<char>, std::__ndk1::allocator<char> > const&)>::__clone(std::__ndk1::__function::__base<void (std::__ndk1::basic_string<char, std::__ndk1::char_traits<char>, std::__ndk1::allocator<char> > const&)>*) const
PUBLIC 1c2b8 0 std::__ndk1::__function::__func<LICColorPopup::setup(cocos2d::CCSprite*, cocos2d::_ccColor3B const&, cocos2d::_ccColor3B const&, bool, bool, bool, bool)::$_4, std::__ndk1::allocator<LICColorPopup::setup(cocos2d::CCSprite*, cocos2d::_ccColor3B const&, cocos2d::_ccColor3B const&, bool, bool, bool, bool)::$_4>, void (std::__ndk1::basic_string<char, std::__ndk1::char_traits<char>, std::__ndk1::allocator<char> > const&)>::destroy()
PUBLIC 1c2bc 0 std::__ndk1::__function::__func<LICColorPopup::setup(cocos2d::CCSprite*, cocos2d::_ccColor3B const&, cocos2d::_ccColor3B const&, bool, bool, bool, bool)::$_4, std::__ndk1::allocator<LICColorPopup::setup(cocos2d::CCSprite*, cocos2d::_ccColor3B const&, cocos2d::_ccColor3B const&, bool, bool, bool, bool)::$_4>, void (std::__ndk1::basic_string<char, std::__ndk1::char_traits<char>, std::__ndk1::allocator<char> > const&)>::destroy_deallocate()
PUBLIC 1c2c0 0 std::__ndk1::__function::__func<LICColorPopup::setup(cocos2d::CCSprite*, cocos2d::_ccColor3B const&, cocos2d::_ccColor3B const&, bool, bool, bool, bool)::$_4, std::__ndk1::allocator<LICColorPopup::setup(cocos2d::CCSprite*, cocos2d::_ccColor3B const&, cocos2d::_ccColor3B const&, bool, bool, bool, bool)::$_4>, void (std::__ndk1::basic_string<char, std::__ndk1::char_traits<char>, std::__ndk1::allocator<char> > const&)>::operator()(std::__ndk1::basic_string<char, std::__ndk1::char_traits<char>, std::__ndk1::allocator<char> > const&)
PUBLIC 1c36c 0 std::__ndk1::__function::__func<LICColorPopup::setup(cocos2d::CCSprite*, cocos2d::_ccColor3B const&, cocos2d::_ccColor3B const&, bool, bool, bool, bool)::$_4, std::__ndk1::allocator<LICColorPopup::setup(cocos2d::CCSprite*, cocos2d::_ccColor3B const&, cocos2d::_ccColor3B const&, bool, bool, bool, bool)::$_4>, void (std::__ndk1::basic_string<char, std::__ndk1::char_traits<char>, std::__ndk1::allocator<char> > const&)>::target(std::type_info const&) const
PUBLIC 1c388 0 std::__ndk1::__function::__func<LICColorPopup::setup(cocos2d::CCSprite*, cocos2d::_ccColor3B const&, cocos2d::_ccColor3B const&, bool, bool, bool, bool)::$_4, std::__ndk1::allocator<LICColorPopup::setup(cocos2d::CCSprite*, cocos2d::_ccColor3B const&, cocos2d::_ccColor3B const&, bool, bool, bool, bool)::$_4>, void (std::__ndk1::basic_string<char, std::__ndk1::char_traits<char>, std::__ndk1::allocator<char> > const&)>::target_type() const
PUBLIC 1c394 0 std::__ndk1::__function::__func<LICColorPopup::setup(cocos2d::CCSprite*, cocos2d::_ccColor3B const&, cocos2d::_ccColor3B const&, bool, bool, bool, bool)::$_5, std::__ndk1::allocator<LICColorPopup::setup(cocos2d::CCSprite*, cocos2d::_ccColor3B const&, cocos2d::_ccColor3B const&, bool, bool, bool, bool)::$_5>, void (std::__ndk1::basic_string<char, std::__ndk1::char_traits<char>, std::__ndk1::allocator<char> > const&)>::~__func()
PUBLIC 1c398 0 std::__ndk1::__function::__func<LICColorPopup::setup(cocos2d::CCSprite*, cocos2d::_ccColor3B const&, cocos2d::_ccColor3B const&, bool, bool, bool, bool)::$_5, std::__ndk1::allocator<LICColorPopup::setup(cocos2d::CCSprite*, cocos2d::_ccColor3B const&, cocos2d::_ccColor3B const&, bool, bool, bool, bool)::$_5>, void (std::__ndk1::basic_string<char, std::__ndk1::char_traits<char>, std::__ndk1::allocator<char> > const&)>::__clone() const
PUBLIC 1c3cc 0 std::__ndk1::__function::__func<LICColorPopup::setup(cocos2d::CCSprite*, cocos2d::_ccColor3B const&, cocos2d::_ccColor3B const&, bool, bool, bool, bool)::$_5, std::__ndk1::allocator<LICColorPopup::setup(cocos2d::CCSprite*, cocos2d::_ccColor3B const&, cocos2d::_ccColor3B const&, bool, bool, bool, bool)::$_5>, void (std::__ndk1::basic_string<char, std::__ndk1::char_traits<char>, std::__ndk1::allocator<char> > const&)>::__clone(std::__ndk1::__function::__base<void (std::__ndk1::basic_string<char, std::__ndk1::char_traits<char>, std::__ndk1::allocator<char> > const&)>*) const
PUBLIC 1c3e0 0 std::__ndk1::__function::__func<LICColorPopup::setup(cocos2d::CCSprite*, cocos2d::_ccColor3B const&, cocos2d::_ccColor3B const&, bool, bool, bool, bool)::$_5, std::__ndk1::allocator<LICColorPopup::setup(cocos2d::CCSprite*, cocos2d::_ccColor3B const&, cocos2d::_ccColor3B const&, bool, bool, bool, bool)::$_5>, void (std::__ndk1::basic_string<char, std::__ndk1::char_traits<char>, std::__ndk1::allocator<char> > const&)>::destroy()
PUBLIC 1c3e4 0 std::__ndk1::__function::__func<LICColorPopup::setup(cocos2d::CCSprite*, cocos2d::_ccColor3B const&, cocos2d::_ccColor3B const&, bool, bool, bool, bool)::$_5, std::__ndk1::allocator<LICColorPopup::setup(cocos2d::CCSprite*, cocos2d::_ccColor3B const&, cocos2d::_ccColor3B const&, bool, bool, bool, bool)::$_5>, void (std::__ndk1::basic_string<char, std::__ndk1::char_traits<char>, std::__ndk1::allocator<char> > const&)>::destroy_deallocate()
PUBLIC 1c3e8 0 std::__ndk1::__function::__func<LICColorPopup::setup(cocos2d::CCSprite*, cocos2d::_ccColor3B const&, cocos2d::_ccColor3B const&, bool, bool, bool, bool)::$_5, std::__ndk1::allocator<LICColorPopup::setup(cocos2d::CCSprite*, cocos2d::_ccColor3B const&, cocos2d::_ccColor3B const&, bool, bool, bool, bool)::$_5>, void (std::__ndk1::basic_string<char, std::__ndk1::char_traits<char>, std::__ndk1::allocator<char> > const&)>::operator()(std::__ndk1::basic_string<char, std::__ndk1::char_traits<char>, std::__ndk1::allocator<char> > const&)
PUBLIC 1c494 0 std::__ndk1::__function::__func<LICColorPopup::setup(cocos2d::CCSprite*, cocos2d::_ccColor3B const&, cocos2d::_ccColor3B const&, bool, bool, bool, bool)::$_5, std::__ndk1::allocator<LICColorPopup::setup(cocos2d::CCSprite*, cocos2d::_ccColor3B const&, cocos2d::_ccColor3B const&, bool, bool, bool, bool)::$_5>, void (std::__ndk1::basic_string<char, std::__ndk1::char_traits<char>, std::__ndk1::allocator<char> > const&)>::target(std::type_info const&) const
PUBLIC 1c4b0 0 std::__ndk1::__function::__func<LICColorPopup::setup(cocos2d::CCSprite*, cocos2d::_ccColor3B const&, cocos2d::_ccColor3B const&, bool, bool, bool, bool)::$_5, std::__ndk1::allocator<LICColorPopup::setup(cocos2d::CCSprite*, cocos2d::_ccColor3B const&, cocos2d::_ccColor3B const&, bool, bool, bool, bool)::$_5>, void (std::__ndk1::basic_string<char, std::__ndk1::char_traits<char>, std::__ndk1::allocator<char> > const&)>::target_type() const
PUBLIC 1c4bc 0 std::__ndk1::__function::__base<void (std::__ndk1::basic_string<char, std::__ndk1::char_traits<char>, std::__ndk1::allocator<char> > const&)>::~__base()
PUBLIC 1c4c0 0 std::__ndk1::__function::__func<LICColorPopup::setup(cocos2d::CCSprite*, cocos2d::_ccColor3B const&, cocos2d::_ccColor3B const&, bool, bool, bool, bool)::$_6, std::__ndk1::allocator<LICColorPopup::setup(cocos2d::CCSprite*, cocos2d::_ccColor3B const&, cocos2d::_ccColor3B const&, bool, bool, bool, bool)::$_6>, void (std::__ndk1::basic_string<char, std::__ndk1::char_traits<char>, std::__ndk1::allocator<char> > const&)>::~__func()
PUBLIC 1c4c4 0 std::__ndk1::__function::__func<LICColorPopup::setup(cocos2d::CCSprite*, cocos2d::_ccColor3B const&, cocos2d::_ccColor3B const&, bool, bool, bool, bool)::$_6, std::__ndk1::allocator<LICColorPopup::setup(cocos2d::CCSprite*, cocos2d::_ccColor3B const&, cocos2d::_ccColor3B const&, bool, bool, bool, bool)::$_6>, void (std::__ndk1::basic_string<char, std::__ndk1::char_traits<char>, std::__ndk1::allocator<char> > const&)>::__clone() const
PUBLIC 1c4f8 0 std::__ndk1::__function::__func<LICColorPopup::setup(cocos2d::CCSprite*, cocos2d::_ccColor3B const&, cocos2d::_ccColor3B const&, bool, bool, bool, bool)::$_6, std::__ndk1::allocator<LICColorPopup::setup(cocos2d::CCSprite*, cocos2d::_ccColor3B const&, cocos2d::_ccColor3B const&, bool, bool, bool, bool)::$_6>, void (std::__ndk1::basic_string<char, std::__ndk1::char_traits<char>, std::__ndk1::allocator<char> > const&)>::__clone(std::__ndk1::__function::__base<void (std::__ndk1::basic_string<char, std::__ndk1::char_traits<char>, std::__ndk1::allocator<char> > const&)>*) const
PUBLIC 1c50c 0 std::__ndk1::__function::__func<LICColorPopup::setup(cocos2d::CCSprite*, cocos2d::_ccColor3B const&, cocos2d::_ccColor3B const&, bool, bool, bool, bool)::$_6, std::__ndk1::allocator<LICColorPopup::setup(cocos2d::CCSprite*, cocos2d::_ccColor3B const&, cocos2d::_ccColor3B const&, bool, bool, bool, bool)::$_6>, void (std::__ndk1::basic_string<char, std::__ndk1::char_traits<char>, std::__ndk1::allocator<char> > const&)>::destroy()
PUBLIC 1c510 0 std::__ndk1::__function::__func<LICColorPopup::setup(cocos2d::CCSprite*, cocos2d::_ccColor3B const&, cocos2d::_ccColor3B const&, bool, bool, bool, bool)::$_6, std::__ndk1::allocator<LICColorPopup::setup(cocos2d::CCSprite*, cocos2d::_ccColor3B const&, cocos2d::_ccColor3B const&, bool, bool, bool, bool)::$_6>, void (std::__ndk1::basic_string<char, std::__ndk1::char_traits<char>, std::__ndk1::allocator<char> > const&)>::destroy_deallocate()
PUBLIC 1c514 0 std::__ndk1::__function::__func<LICColorPopup::setup(cocos2d::CCSprite*, cocos2d::_ccColor3B const&, cocos2d::_ccColor3B const&, bool, bool, bool, bool)::$_6, std::__ndk1::allocator<LICColorPopup::setup(cocos2d::CCSprite*, cocos2d::_ccColor3B const&, cocos2d::_ccColor3B const&, bool, bool, bool, bool)::$_6>, void (std::__ndk1::basic_string<char, std::__ndk1::char_traits<char>, std::__ndk1::allocator<char> > const&)>::operator()(std::__ndk1::basic_string<char, std::__ndk1::char_traits<char>, std::__ndk1::allocator<char> > const&)
PUBLIC 1c5b0 0 std::__ndk1::__function::__func<LICColorPopup::setup(cocos2d::CCSprite*, cocos2d::_ccColor3B const&, cocos2d::_ccColor3B const&, bool, bool, bool, bool)::$_6, std::__ndk1::allocator<LICColorPopup::setup(cocos2d::CCSprite*, cocos2d::_ccColor3B const&, cocos2d::_ccColor3B const&, bool, bool, bool, bool)::$_6>, void (std::__ndk1::basic_string<char, std::__ndk1::char_traits<char>, std::__ndk1::allocator<char> > const&)>::target(std::type_info const&) const
PUBLIC 1c5cc 0 std::__ndk1::__function::__func<LICColorPopup::setup(cocos2d::CCSprite*, cocos2d::_ccColor3B const&, cocos2d::_ccColor3B const&, bool, bool, bool, bool)::$_6, std::__ndk1::allocator<LICColorPopup::setup(cocos2d::CCSprite*, cocos2d::_ccColor3B const&, cocos2d::_ccColor3B const&, bool, bool, bool, bool)::$_6>, void (std::__ndk1::basic_string<char, std::__ndk1::char_traits<char>, std::__ndk1::allocator<char> > const&)>::target_type() const
PUBLIC 1c5d8 0 std::__ndk1::__variant_detail::__visitation::__base::__dispatcher<(unsigned long)0>::__dispatch[abi:ne180000]<std::__ndk1::__variant_detail::__dtor<std::__ndk1::__variant_detail::__traits<cocos2d::_ccColor3B, std::__ndk1::basic_string<char, std::__ndk1::char_traits<char>, std::__ndk1::allocator<char> > >, (std::__ndk1::__variant_detail::_Trait)1>::__destroy[abi:ne180000]()::{lambda(auto:1&)#1}, std::__ndk1::__variant_detail::__base<(std::__ndk1::__variant_detail::__traits<cocos2d::_ccColor3B, std::__ndk1::basic_string<char, std::__ndk1::char_traits<char>, std::__ndk1::allocator<char> > >)1, cocos2d, std::__ndk1::allocator<char> >&>(std::__ndk1::__variant_detail::__dtor<std::__ndk1::__variant_detail::__traits<cocos2d::_ccColor3B, std::__ndk1::basic_string<char, std::__ndk1::char_traits<char>, std::__ndk1::allocator<char> > >, (std::__ndk1::__variant_detail::_Trait)1>, std::__ndk1::__variant_detail::__base<(std::__ndk1::__variant_detail::__traits<cocos2d::_ccColor3B, std::__ndk1::basic_string<char, std::__ndk1::char_traits<char>, std::__ndk1::allocator<char> > >)1, cocos2d, std::__ndk1::allocator<char> >&)
PUBLIC 1c5dc 0 std::__ndk1::__variant_detail::__visitation::__base::__dispatcher<(unsigned long)1>::__dispatch[abi:ne180000]<std::__ndk1::__variant_detail::__dtor<std::__ndk1::__variant_detail::__traits<cocos2d::_ccColor3B, std::__ndk1::basic_string<char, std::__ndk1::char_traits<char>, std::__ndk1::allocator<char> > >, (std::__ndk1::__variant_detail::_Trait)1>::__destroy[abi:ne180000]()::{lambda(auto:1&)#1}, std::__ndk1::__variant_detail::__base<(std::__ndk1::__variant_detail::__traits<cocos2d::_ccColor3B, std::__ndk1::basic_string<char, std::__ndk1::char_traits<char>, std::__ndk1::allocator<char> > >)1, cocos2d, std::__ndk1::allocator<char> >&>(std::__ndk1::__variant_detail::__dtor<std::__ndk1::__variant_detail::__traits<cocos2d::_ccColor3B, std::__ndk1::basic_string<char, std::__ndk1::char_traits<char>, std::__ndk1::allocator<char> > >, (std::__ndk1::__variant_detail::_Trait)1>, std::__ndk1::__variant_detail::__base<(std::__ndk1::__variant_detail::__traits<cocos2d::_ccColor3B, std::__ndk1::basic_string<char, std::__ndk1::char_traits<char>, std::__ndk1::allocator<char> > >)1, cocos2d, std::__ndk1::allocator<char> >&)
PUBLIC 1c5f0 0 std::__ndk1::__function::__base<void (CCMenuItemSpriteExtra*)>::~__base()
PUBLIC 1c5f4 0 std::__ndk1::__function::__func<LICColorPopup::setup(cocos2d::CCSprite*, cocos2d::_ccColor3B const&, cocos2d::_ccColor3B const&, bool, bool, bool, bool)::$_2, std::__ndk1::allocator<LICColorPopup::setup(cocos2d::CCSprite*, cocos2d::_ccColor3B const&, cocos2d::_ccColor3B const&, bool, bool, bool, bool)::$_2>, void (CCMenuItemSpriteExtra*)>::~__func()
PUBLIC 1c5f8 0 std::__ndk1::__function::__func<LICColorPopup::setup(cocos2d::CCSprite*, cocos2d::_ccColor3B const&, cocos2d::_ccColor3B const&, bool, bool, bool, bool)::$_2, std::__ndk1::allocator<LICColorPopup::setup(cocos2d::CCSprite*, cocos2d::_ccColor3B const&, cocos2d::_ccColor3B const&, bool, bool, bool, bool)::$_2>, void (CCMenuItemSpriteExtra*)>::__clone() const
PUBLIC 1c630 0 std::__ndk1::__function::__func<LICColorPopup::setup(cocos2d::CCSprite*, cocos2d::_ccColor3B const&, cocos2d::_ccColor3B const&, bool, bool, bool, bool)::$_2, std::__ndk1::allocator<LICColorPopup::setup(cocos2d::CCSprite*, cocos2d::_ccColor3B const&, cocos2d::_ccColor3B const&, bool, bool, bool, bool)::$_2>, void (CCMenuItemSpriteExtra*)>::__clone(std::__ndk1::__function::__base<void (CCMenuItemSpriteExtra*)>*) const
PUBLIC 1c648 0 std::__ndk1::__function::__func<LICColorPopup::setup(cocos2d::CCSprite*, cocos2d::_ccColor3B const&, cocos2d::_ccColor3B const&, bool, bool, bool, bool)::$_2, std::__ndk1::allocator<LICColorPopup::setup(cocos2d::CCSprite*, cocos2d::_ccColor3B const&, cocos2d::_ccColor3B const&, bool, bool, bool, bool)::$_2>, void (CCMenuItemSpriteExtra*)>::destroy()
PUBLIC 1c64c 0 std::__ndk1::__function::__func<LICColorPopup::setup(cocos2d::CCSprite*, cocos2d::_ccColor3B const&, cocos2d::_ccColor3B const&, bool, bool, bool, bool)::$_2, std::__ndk1::allocator<LICColorPopup::setup(cocos2d::CCSprite*, cocos2d::_ccColor3B const&, cocos2d::_ccColor3B const&, bool, bool, bool, bool)::$_2>, void (CCMenuItemSpriteExtra*)>::destroy_deallocate()
PUBLIC 1c650 0 std::__ndk1::__function::__func<LICColorPopup::setup(cocos2d::CCSprite*, cocos2d::_ccColor3B const&, cocos2d::_ccColor3B const&, bool, bool, bool, bool)::$_2, std::__ndk1::allocator<LICColorPopup::setup(cocos2d::CCSprite*, cocos2d::_ccColor3B const&, cocos2d::_ccColor3B const&, bool, bool, bool, bool)::$_2>, void (CCMenuItemSpriteExtra*)>::operator()(CCMenuItemSpriteExtra*&&)
PUBLIC 1c77c 0 std::__ndk1::__function::__func<LICColorPopup::setup(cocos2d::CCSprite*, cocos2d::_ccColor3B const&, cocos2d::_ccColor3B const&, bool, bool, bool, bool)::$_2, std::__ndk1::allocator<LICColorPopup::setup(cocos2d::CCSprite*, cocos2d::_ccColor3B const&, cocos2d::_ccColor3B const&, bool, bool, bool, bool)::$_2>, void (CCMenuItemSpriteExtra*)>::target(std::type_info const&) const
PUBLIC 1c798 0 std::__ndk1::__function::__func<LICColorPopup::setup(cocos2d::CCSprite*, cocos2d::_ccColor3B const&, cocos2d::_ccColor3B const&, bool, bool, bool, bool)::$_2, std::__ndk1::allocator<LICColorPopup::setup(cocos2d::CCSprite*, cocos2d::_ccColor3B const&, cocos2d::_ccColor3B const&, bool, bool, bool, bool)::$_2>, void (CCMenuItemSpriteExtra*)>::target_type() const
PUBLIC 1c7a4 0 geode::Mod::get<void>()
PUBLIC 1c7e0 0 geode::Mod::setSettingValue<cocos2d::_ccColor3B>(std::__ndk1::basic_string_view<char, std::__ndk1::char_traits<char> >, cocos2d::_ccColor3B const&)
PUBLIC 1c9a4 0 std::__ndk1::shared_ptr<geode::Color3BSettingV3>::~shared_ptr[abi:ne180000]()
PUBLIC 1c9f4 0 geode::cast::traverseTypeinfoFor(void*, geode::cast::ClassTypeinfoType const*, char const*)
PUBLIC 1caf8 0 std::__ndk1::__variant_detail::__visitation::__base::__dispatcher<(unsigned long)0>::__dispatch[abi:ne180000]<std::__ndk1::__variant_detail::__dtor<std::__ndk1::__variant_detail::__traits<std::__ndk1::monostate, std::__ndk1::basic_string<char, std::__ndk1::char_traits<char>, std::__ndk1::allocator<char> > >, (std::__ndk1::__variant_detail::_Trait)1>::__destroy[abi:ne180000]()::{lambda(auto:1&)#1}, std::__ndk1::__variant_detail::__base<(std::__ndk1::__variant_detail::__traits<std::__ndk1::monostate, std::__ndk1::basic_string<char, std::__ndk1::char_traits<char>, std::__ndk1::allocator<char> > >)1, std::__ndk1::__variant_detail::__traits, std::__ndk1::allocator<char> >&>(std::__ndk1::__variant_detail::__dtor<std::__ndk1::__variant_detail::__traits<std::__ndk1::monostate, std::__ndk1::basic_string<char, std::__ndk1::char_traits<char>, std::__ndk1::allocator<char> > >, (std::__ndk1::__variant_detail::_Trait)1>, std::__ndk1::__variant_detail::__base<(std::__ndk1::__variant_detail::__traits<std::__ndk1::monostate, std::__ndk1::basic_string<char, std::__ndk1::char_traits<char>, std::__ndk1::allocator<char> > >)1, std::__ndk1::__variant_detail::__traits, std::__ndk1::allocator<char> >&)
PUBLIC 1cafc 0 std::__ndk1::__variant_detail::__visitation::__base::__dispatcher<(unsigned long)1>::__dispatch[abi:ne180000]<std::__ndk1::__variant_detail::__dtor<std::__ndk1::__variant_detail::__traits<std::__ndk1::monostate, std::__ndk1::basic_string<char, std::__ndk1::char_traits<char>, std::__ndk1::allocator<char> > >, (std::__ndk1::__variant_detail::_Trait)1>::__destroy[abi:ne180000]()::{lambda(auto:1&)#1}, std::__ndk1::__variant_detail::__base<(std::__ndk1::__variant_detail::__traits<std::__ndk1::monostate, std::__ndk1::basic_string<char, std::__ndk1::char_traits<char>, std::__ndk1::allocator<char> > >)1, std::__ndk1::__variant_detail::__traits, std::__ndk1::allocator<char> >&>(std::__ndk1::__variant_detail::__dtor<std::__ndk1::__variant_detail::__traits<std::__ndk1::monostate, std::__ndk1::basic_string<char, std::__ndk1::char_traits<char>, std::__ndk1::allocator<char> > >, (std::__ndk1::__variant_detail::_Trait)1>, std::__ndk1::__variant_detail::__base<(std::__ndk1::__variant_detail::__traits<std::__ndk1::monostate, std::__ndk1::basic_string<char, std::__ndk1::char_traits<char>, std::__ndk1::allocator<char> > >)1, std::__ndk1::__variant_detail::__traits, std::__ndk1::allocator<char> >&)
PUBLIC 1cb10 0 __cxx_global_var_init
PUBLIC 1d6e4 0 geode::modifier::ModifyBase<geode::modifier::ModifyDerive<LICLevelInfoLayer, LevelInfoLayer> >::~ModifyBase()
PUBLIC 1d6fc 0 geode::modifier::ModifyDerive<LICLevelInfoLayer, LevelInfoLayer>::apply()
PUBLIC 1dbac 0 std::__ndk1::shared_ptr<geode::Hook>::~shared_ptr[abi:ne180000]()
PUBLIC 1dbfc 0 geode::impl::ResultData<geode::Hook*, std::__ndk1::basic_string<char, std::__ndk1::char_traits<char>, std::__ndk1::allocator<char> > >::~ResultData()
PUBLIC 1dc70 0 std::__ndk1::vector<std::__ndk1::basic_string<char, std::__ndk1::char_traits<char>, std::__ndk1::allocator<char> >, std::__ndk1::allocator<std::__ndk1::basic_string<char, std::__ndk1::char_traits<char>, std::__ndk1::allocator<char> > > >::~vector[abi:ne180000]()
PUBLIC 1dcec 0 geode::modifier::ModifyBase<geode::modifier::ModifyDerive<LICLevelInfoLayer, LevelInfoLayer> >::apply()
PUBLIC 1dcf0 0 _ZN5geode15UnwrapExceptionC2IRPNS_4HookEQsr4implE18IsStringStreamableIT_EEENS_4impl5OkTagEOS5_
PUBLIC 1de44 0 std::__ndk1::__throw_bad_variant_access[abi:ne180000]()
PUBLIC 1de78 0 std::__ndk1::basic_stringstream<char, std::__ndk1::char_traits<char>, std::__ndk1::allocator<char> >::basic_stringstream[abi:ne180000]()
PUBLIC m 1dfa4 0 std::__ndk1::basic_stringstream<char, std::__ndk1::char_traits<char>, std::__ndk1::allocator<char> >::~basic_stringstream()
PUBLIC 1e024 0 geode::UnwrapException::~UnwrapException()
PUBLIC 1e048 0 std::__ndk1::__put_character_sequence[abi:ne180000]<char, std::__ndk1::char_traits<char> >(std::__ndk1::basic_ostream<char, std::__ndk1::char_traits<char> >, std::__ndk1::basic_ostream const*, unsigned long)
PUBLIC 1e1ec 0 std::__ndk1::__pad_and_output[abi:ne180000]<char, std::__ndk1::char_traits<char> >(std::__ndk1::char_traits<char>, std::__ndk1::ostreambuf_iterator const*, std::__ndk1::ostreambuf_iterator const, std::__ndk1::ostreambuf_iterator const, std::__ndk1::ios_base&, std::__ndk1::ostreambuf_iterator)
PUBLIC 1e3c8 0 std::__ndk1::basic_string<char, std::__ndk1::char_traits<char>, std::__ndk1::allocator<char> >::__throw_length_error[abi:ne180000]() const
PUBLIC 1e3dc 0 std::__ndk1::__throw_length_error[abi:ne180000](char const*)
PUBLIC 1e42c 0 std::length_error::length_error[abi:ne180000](char const*)
PUBLIC 1e45c 0 std::__throw_bad_array_new_length([abi:ne180000], void)
PUBLIC 1e490 0 std::__ndk1::basic_stringbuf<char, std::__ndk1::char_traits<char>, std::__ndk1::allocator<char> >::str[abi:ne180000]() &&
PUBLIC 1e608 0 std::__ndk1::basic_stringbuf<char, std::__ndk1::char_traits<char>, std::__ndk1::allocator<char> >::__init_buf_ptrs[abi:ne180000]()
PUBLIC 1e750 0 std::__ndk1::basic_string<char, std::__ndk1::char_traits<char>, std::__ndk1::allocator<char> >::__init_copy_ctor_external(char const*, unsigned long)
PUBLIC 1e7d0 0 std::__ndk1::__split_buffer<std::__ndk1::basic_string<char, std::__ndk1::char_traits<char>, std::__ndk1::allocator<char> >, std::__ndk1::allocator<std::__ndk1::basic_string<char, std::__ndk1::char_traits<char>, std::__ndk1::allocator<char> > >&>::~__split_buffer()
PUBLIC 1e838 0 std::__ndk1::vector<std::__ndk1::basic_string<char, std::__ndk1::char_traits<char>, std::__ndk1::allocator<char> >, std::__ndk1::allocator<std::__ndk1::basic_string<char, std::__ndk1::char_traits<char>, std::__ndk1::allocator<char> > > >::__throw_length_error[abi:ne180000]() const
PUBLIC 1e84c 0 std::__ndk1::__variant_detail::__visitation::__base::__dispatcher<(unsigned long)0>::__dispatch[abi:ne180000]<std::__ndk1::__variant_detail::__dtor<std::__ndk1::__variant_detail::__traits<geode::Hook*, std::__ndk1::basic_string<char, std::__ndk1::char_traits<char>, std::__ndk1::allocator<char> > >, (std::__ndk1::__variant_detail::_Trait)1>::__destroy[abi:ne180000]()::{lambda(auto:1&)#1}, std::__ndk1::__variant_detail::__base<(std::__ndk1::__variant_detail::__traits<geode::Hook*, std::__ndk1::basic_string<char, std::__ndk1::char_traits<char>, std::__ndk1::allocator<char> > >)1, geode::Hook, std::__ndk1::allocator<char> >&>(std::__ndk1::__variant_detail::__dtor<std::__ndk1::__variant_detail::__traits<geode::Hook*, std::__ndk1::basic_string<char, std::__ndk1::char_traits<char>, std::__ndk1::allocator<char> > >, (std::__ndk1::__variant_detail::_Trait)1>, std::__ndk1::__variant_detail::__base<(std::__ndk1::__variant_detail::__traits<geode::Hook*, std::__ndk1::basic_string<char, std::__ndk1::char_traits<char>, std::__ndk1::allocator<char> > >)1, geode::Hook, std::__ndk1::allocator<char> >&)
PUBLIC 1e850 0 std::__ndk1::__variant_detail::__visitation::__base::__dispatcher<(unsigned long)1>::__dispatch[abi:ne180000]<std::__ndk1::__variant_detail::__dtor<std::__ndk1::__variant_detail::__traits<geode::Hook*, std::__ndk1::basic_string<char, std::__ndk1::char_traits<char>, std::__ndk1::allocator<char> > >, (std::__ndk1::__variant_detail::_Trait)1>::__destroy[abi:ne180000]()::{lambda(auto:1&)#1}, std::__ndk1::__variant_detail::__base<(std::__ndk1::__variant_detail::__traits<geode::Hook*, std::__ndk1::basic_string<char, std::__ndk1::char_traits<char>, std::__ndk1::allocator<char> > >)1, geode::Hook, std::__ndk1::allocator<char> >&>(std::__ndk1::__variant_detail::__dtor<std::__ndk1::__variant_detail::__traits<geode::Hook*, std::__ndk1::basic_string<char, std::__ndk1::char_traits<char>, std::__ndk1::allocator<char> > >, (std::__ndk1::__variant_detail::_Trait)1>, std::__ndk1::__variant_detail::__base<(std::__ndk1::__variant_detail::__traits<geode::Hook*, std::__ndk1::basic_string<char, std::__ndk1::char_traits<char>, std::__ndk1::allocator<char> > >)1, geode::Hook, std::__ndk1::allocator<char> >&)
PUBLIC 1e864 0 std::__ndk1::__tree<std::__ndk1::__value_type<std::__ndk1::basic_string<char, std::__ndk1::char_traits<char>, std::__ndk1::allocator<char> >, std::__ndk1::shared_ptr<geode::Hook> >, std::__ndk1::__map_value_compare<std::__ndk1::basic_string<char, std::__ndk1::char_traits<char>, std::__ndk1::allocator<char> >, std::__ndk1::__value_type<std::__ndk1::basic_string<char, std::__ndk1::char_traits<char>, std::__ndk1::allocator<char> >, std::__ndk1::shared_ptr<geode::Hook> >, std::__ndk1::less<std::__ndk1::basic_string<char, std::__ndk1::char_traits<char>, std::__ndk1::allocator<char> > >, true>, std::__ndk1::allocator<std::__ndk1::__value_type<std::__ndk1::basic_string<char, std::__ndk1::char_traits<char>, std::__ndk1::allocator<char> >, std::__ndk1::shared_ptr<geode::Hook> > > >::destroy(std::__ndk1::__tree_node<std::__ndk1::__value_type<std::__ndk1::basic_string<char, std::__ndk1::char_traits<char>, std::__ndk1::allocator<char> >, std::__ndk1::shared_ptr<geode::Hook> >, void*>*)
PUBLIC 1e8e8 0 geode::modifier::AsStaticFunction_init<LICLevelInfoLayer, bool (LICLevelInfoLayer::*)(GJGameLevel*, bool)>::Impl<bool (LICLevelInfoLayer::*)(GJGameLevel*, bool)>::function(LICLevelInfoLayer*, GJGameLevel*, bool)
PUBLIC 1eb70 0 std::__ndk1::shared_ptr<tulip::hook::CallingConvention>::~shared_ptr[abi:ne180000]()
PUBLIC 1ebc0 0 tulip::hook::HandlerMetadata::~HandlerMetadata()
PUBLIC 1ec24 0 geode::Mod::getSettingValue<cocos2d::_ccColor3B>(std::__ndk1::basic_string_view<char, std::__ndk1::char_traits<char> >) const
PUBLIC 1ed44 0 LICLevelInfoLayer::onPickColor(cocos2d::CCObject*)
PUBLIC 1ee94 0 std::__ndk1::__tree_balance_after_insert[abi:ne180000]<std::__ndk1::__tree_node_base<void*>*>(std::__ndk1::__tree_node_base<void*>*, std::__ndk1::__tree_node_base<void*>*)
PUBLIC m 1f044 0 geodeImplicitEntry
PUBLIC 1f080 0 cocos2d::CCDestructor::~CCDestructor()
PUBLIC 1f17c 0 wrapFunction(unsigned long, tulip::hook::WrapperMetadata const&)
PUBLIC 1f2b0 0 geode::impl::ResultData<void*, std::__ndk1::basic_string<char, std::__ndk1::char_traits<char>, std::__ndk1::allocator<char> > >::unwrapErr() &
PUBLIC 1f328 0 geode::impl::ResultData<void*, std::__ndk1::basic_string<char, std::__ndk1::char_traits<char>, std::__ndk1::allocator<char> > >::~ResultData()
PUBLIC 1f39c 0 tulip::hook::WrapperMetadata::~WrapperMetadata()
PUBLIC 1f400 0 cocos2d::CCObject::CCObject()
PUBLIC 1f574 0 cocos2d::CCNode::~CCNode()
PUBLIC 1f598 0 {virtual override thunk({offset(-320)}, cocos2d::CCLayer::~CCLayer())}
PUBLIC 1f5a0 0 cocos2d::CCLayer::~CCLayer()
PUBLIC 1f5c4 0 {virtual override thunk({offset(-320)}, cocos2d::CCLayer::~CCLayer())}
PUBLIC 1f5ec 0 cocos2d::CCObject::~CCObject()
PUBLIC 1f610 0 cocos2d::CCLayerColor::CCLayerColor()
PUBLIC 1fb38 0 cocos2d::CCLayerRGBA::~CCLayerRGBA()
PUBLIC 1fd84 0 {virtual override thunk({offset(-320)}, cocos2d::CCLayerColor::~CCLayerColor())}
PUBLIC 1fd8c 0 cocos2d::CCLayerColor::~CCLayerColor()
PUBLIC 1fdb0 0 {virtual override thunk({offset(-320)}, cocos2d::CCLayerColor::~CCLayerColor())}
PUBLIC 1fdd8 0 {virtual override thunk({offset(-320)}, cocos2d::CCLayerRGBA::~CCLayerRGBA())}
PUBLIC 1fde0 0 cocos2d::CCLayerRGBA::~CCLayerRGBA()
PUBLIC 1fe04 0 {virtual override thunk({offset(-320)}, cocos2d::CCLayerRGBA::~CCLayerRGBA())}
PUBLIC 1fe2c 0 {virtual override thunk({offset(-320)}, FLAlertLayer::~FLAlertLayer())}
PUBLIC 1fe34 0 FLAlertLayer::~FLAlertLayer()
PUBLIC 1fe58 0 {virtual override thunk({offset(-320)}, FLAlertLayer::~FLAlertLayer())}
PUBLIC 1fe80 0 cocos2d::CCLayer::~CCLayer()
PUBLIC 200c4 0 cocos2d::CCLayerColor::~CCLayerColor()
PUBLIC 20318 0 FLAlertLayer::~FLAlertLayer()
PUBLIC 205cc 0 cocos2d::CCNode::~CCNode()
PUBLIC 207f0 0 cocos2d::CCObject::~CCObject()
PUBLIC 20a14 0 _ZN5geode15UnwrapExceptionC2IRPvQsr4implE18IsStringStreamableIT_EEENS_4impl5OkTagEOS4_
PUBLIC 20b68 0 _ZN5geode15UnwrapExceptionC2IRNSt6__ndk112basic_stringIcNS2_11char_traitsIcEENS2_9allocatorIcEEEEQsr4implE18IsStringStreamableIT_EEENS_4impl6ErrTagEOSA_
PUBLIC 20cd0 0 std::__ndk1::__variant_detail::__visitation::__base::__dispatcher<(unsigned long)0>::__dispatch[abi:ne180000]<std::__ndk1::__variant_detail::__dtor<std::__ndk1::__variant_detail::__traits<void*, std::__ndk1::basic_string<char, std::__ndk1::char_traits<char>, std::__ndk1::allocator<char> > >, (std::__ndk1::__variant_detail::_Trait)1>::__destroy[abi:ne180000]()::{lambda(auto:1&)#1}, std::__ndk1::__variant_detail::__base<(std::__ndk1::__variant_detail::__traits<void*, std::__ndk1::basic_string<char, std::__ndk1::char_traits<char>, std::__ndk1::allocator<char> > >)1, std::__ndk1::__variant_detail::__traits, std::__ndk1::allocator<char> >&>(std::__ndk1::__variant_detail::__dtor<std::__ndk1::__variant_detail::__traits<void*, std::__ndk1::basic_string<char, std::__ndk1::char_traits<char>, std::__ndk1::allocator<char> > >, (std::__ndk1::__variant_detail::_Trait)1>, std::__ndk1::__variant_detail::__base<(std::__ndk1::__variant_detail::__traits<void*, std::__ndk1::basic_string<char, std::__ndk1::char_traits<char>, std::__ndk1::allocator<char> > >)1, std::__ndk1::__variant_detail::__traits, std::__ndk1::allocator<char> >&)
PUBLIC 20cd4 0 std::__ndk1::__variant_detail::__visitation::__base::__dispatcher<(unsigned long)1>::__dispatch[abi:ne180000]<std::__ndk1::__variant_detail::__dtor<std::__ndk1::__variant_detail::__traits<void*, std::__ndk1::basic_string<char, std::__ndk1::char_traits<char>, std::__ndk1::allocator<char> > >, (std::__ndk1::__variant_detail::_Trait)1>::__destroy[abi:ne180000]()::{lambda(auto:1&)#1}, std::__ndk1::__variant_detail::__base<(std::__ndk1::__variant_detail::__traits<void*, std::__ndk1::basic_string<char, std::__ndk1::char_traits<char>, std::__ndk1::allocator<char> > >)1, std::__ndk1::__variant_detail::__traits, std::__ndk1::allocator<char> >&>(std::__ndk1::__variant_detail::__dtor<std::__ndk1::__variant_detail::__traits<void*, std::__ndk1::basic_string<char, std::__ndk1::char_traits<char>, std::__ndk1::allocator<char> > >, (std::__ndk1::__variant_detail::_Trait)1>, std::__ndk1::__variant_detail::__base<(std::__ndk1::__variant_detail::__traits<void*, std::__ndk1::basic_string<char, std::__ndk1::char_traits<char>, std::__ndk1::allocator<char> > >)1, std::__ndk1::__variant_detail::__traits, std::__ndk1::allocator<char> >&)
PUBLIC 20ce8 0 std::__ndk1::__hash_table<std::__ndk1::__hash_value_type<void*, bool>, std::__ndk1::__unordered_map_hasher<void*, std::__ndk1::__hash_value_type<void*, bool>, std::__ndk1::hash<void*>, std::__ndk1::equal_to<void*>, true>, std::__ndk1::__unordered_map_equal<void*, std::__ndk1::__hash_value_type<void*, bool>, std::__ndk1::equal_to<void*>, std::__ndk1::hash<void*>, true>, std::__ndk1::allocator<std::__ndk1::__hash_value_type<void*, bool> > >::__emplace_unique_key_args<void*, std::__ndk1::piecewise_construct_t const&, std::__ndk1::tuple<void* const&>, std::__ndk1::tuple<> >(void* const&, std::__ndk1::piecewise_construct_t const&, std::__ndk1::tuple<void* const&>, std::__ndk1::tuple<>)
PUBLIC 211c8 0 std::__ndk1::__hash_table<std::__ndk1::__hash_value_type<void*, bool>, std::__ndk1::__unordered_map_hasher<void*, std::__ndk1::__hash_value_type<void*, bool>, std::__ndk1::hash<void*>, std::__ndk1::equal_to<void*>, true>, std::__ndk1::__unordered_map_equal<void*, std::__ndk1::__hash_value_type<void*, bool>, std::__ndk1::equal_to<void*>, std::__ndk1::hash<void*>, true>, std::__ndk1::allocator<std::__ndk1::__hash_value_type<void*, bool> > >::find<void*>(void* const&)
PUBLIC 212d8 0 std::__ndk1::__hash_table<std::__ndk1::__hash_value_type<void*, bool>, std::__ndk1::__unordered_map_hasher<void*, std::__ndk1::__hash_value_type<void*, bool>, std::__ndk1::hash<void*>, std::__ndk1::equal_to<void*>, true>, std::__ndk1::__unordered_map_equal<void*, std::__ndk1::__hash_value_type<void*, bool>, std::__ndk1::equal_to<void*>, std::__ndk1::hash<void*>, true>, std::__ndk1::allocator<std::__ndk1::__hash_value_type<void*, bool> > >::remove(std::__ndk1::__hash_const_iterator<std::__ndk1::__hash_node<std::__ndk1::__hash_value_type<void*, bool>, void*>*>)
PUBLIC 21410 0 <.plt ELF section in hiimjustin000.level_info_colors.android64.so>
STACK CFI INIT 155e0 10 .cfa: sp 0 +
STACK CFI INIT 155f0 8 .cfa: sp 0 +
STACK CFI INIT 155f8 8 .cfa: sp 0 +
STACK CFI INIT 15600 14 .cfa: sp 0 +
STACK CFI INIT 15614 1c .cfa: sp 0 +
STACK CFI INIT 15630 10 .cfa: sp 0 +
STACK CFI INIT 15640 134 .cfa: sp 0 +
STACK CFI INIT 15774 84 .cfa: sp 0 +
STACK CFI INIT 157f8 f4 .cfa: sp 0 +
STACK CFI INIT 158ec a8 .cfa: sp 0 +
STACK CFI INIT 15994 7c .cfa: sp 0 +
STACK CFI INIT 15a10 14 .cfa: sp 0 +
STACK CFI INIT 15a24 40 .cfa: sp 0 +
STACK CFI INIT 15a64 28 .cfa: sp 0 +
STACK CFI INIT 15a8c 190 .cfa: sp 0 +
STACK CFI INIT 15c1c 2c8 .cfa: sp 0 +
STACK CFI INIT 15ee4 8 .cfa: sp 0 +
STACK CFI INIT 15eec 8 .cfa: sp 0 +
STACK CFI INIT 15ef4 44 .cfa: sp 0 +
STACK CFI INIT 15f38 e8 .cfa: sp 0 +
STACK CFI INIT 16020 e8 .cfa: sp 0 +
STACK CFI INIT 16108 14 .cfa: sp 0 +
STACK CFI INIT 1611c 10 .cfa: sp 0 +
STACK CFI INIT 1612c 10 .cfa: sp 0 +
STACK CFI INIT 1613c f0 .cfa: sp 0 +
STACK CFI INIT 1622c 44 .cfa: sp 0 +
STACK CFI INIT 16270 c .cfa: sp 0 +
STACK CFI INIT 1627c c .cfa: sp 0 +
STACK CFI INIT 16288 2c .cfa: sp 0 +
STACK CFI INIT 162b4 280 .cfa: sp 0 +
STACK CFI INIT 16534 c .cfa: sp 0 +
STACK CFI INIT 16540 120 .cfa: sp 0 +
STACK CFI INIT 16660 488 .cfa: sp 0 +
STACK CFI INIT 16ae8 c48 .cfa: sp 0 +
STACK CFI INIT 17730 134 .cfa: sp 0 +
STACK CFI INIT 17864 210 .cfa: sp 0 +
STACK CFI INIT 17a74 38c .cfa: sp 0 +
STACK CFI INIT 17e00 1c8 .cfa: sp 0 +
STACK CFI INIT 17fc8 9bc .cfa: sp 0 +
STACK CFI INIT 18984 2d4 .cfa: sp 0 +
STACK CFI INIT 18c58 134 .cfa: sp 0 +
STACK CFI INIT 18d8c 120 .cfa: sp 0 +
STACK CFI INIT 18eac 1c8 .cfa: sp 0 +
STACK CFI INIT 19074 168 .cfa: sp 0 +
STACK CFI INIT 191dc fc .cfa: sp 0 +
STACK CFI INIT 192d8 30 .cfa: sp 0 +
STACK CFI INIT 19440 30 .cfa: sp 0 +
STACK CFI INIT 19470 98 .cfa: sp 0 +
STACK CFI INIT 19508 59c .cfa: sp 0 +
STACK CFI INIT 19aa4 8c .cfa: sp 0 +
STACK CFI INIT 19b30 30 .cfa: sp 0 +
STACK CFI INIT 1b2c4 20 .cfa: sp 0 +
STACK CFI INIT 1b2e4 28 .cfa: sp 0 +
STACK CFI INIT 1b30c 6c .cfa: sp 0 +
STACK CFI 1b310 .cfa: sp 32 +
STACK CFI 1b318 .cfa: x29 32 + x19: .cfa -16 + ^ .ra: .cfa -24 + ^ x29: .cfa -32 + ^
STACK CFI 1b36c .cfa: sp 32 +
STACK CFI 1b374 .cfa: sp 0 +
STACK CFI INIT 1b378 8 .cfa: sp 0 +
STACK CFI INIT 1b460 2c .cfa: sp 0 +
STACK CFI 1b464 .cfa: sp 32 +
STACK CFI 1b46c .cfa: x29 32 + x19: .cfa -16 + ^ .ra: .cfa -24 + ^ x29: .cfa -32 + ^
STACK CFI 1b480 .cfa: sp 32 +
STACK CFI 1b488 .cfa: sp 0 +
STACK CFI INIT 1b48c 28 .cfa: sp 0 +
STACK CFI INIT 1b4b4 4 .cfa: sp 0 +
STACK CFI INIT 1b4b8 8 .cfa: sp 0 +
STACK CFI INIT 1b5a0 2c .cfa: sp 0 +
STACK CFI INIT 1b5cc 4 .cfa: sp 0 +
STACK CFI INIT 1b5d0 4 .cfa: sp 0 +
STACK CFI INIT 1b5d4 4 .cfa: sp 0 +
STACK CFI INIT 1b5d8 4 .cfa: sp 0 +
STACK CFI INIT 1b5dc 4 .cfa: sp 0 +
STACK CFI INIT 1b5e0 8 .cfa: sp 0 +
STACK CFI INIT 1b5e8 4 .cfa: sp 0 +
STACK CFI INIT 1b7a0 4 .cfa: sp 0 +
STACK CFI INIT 1b7a4 10 .cfa: sp 0 +
STACK CFI 1b7a8 .cfa: sp 16 +
STACK CFI 1b7ac .cfa: x29 16 + .ra: .cfa -8 + ^ x29: .cfa -16 + ^
STACK CFI INIT 1b7b4 60 .cfa: sp 0 +
STACK CFI 1b7b8 .cfa: sp 32 +
STACK CFI 1b7c0 .cfa: x29 32 + x19: .cfa -8 + ^ x20: .cfa -16 + ^ .ra: .cfa -24 + ^ x29: .cfa -32 + ^
STACK CFI 1b7e0 .cfa: sp 32 +
STACK CFI 1b7e8 .cfa: sp 0 +
STACK CFI 1b7ec .cfa: x29 32 +
STACK CFI 1b808 .cfa: sp 32 +
STACK CFI 1b810 .cfa: sp 0 +
STACK CFI INIT 1b814 70 .cfa: sp 0 +
STACK CFI 1b818 .cfa: sp 32 +
STACK CFI 1b820 .cfa: x29 32 + x19: .cfa -8 + ^ x20: .cfa -16 + ^ .ra: .cfa -24 + ^ x29: .cfa -32 + ^
STACK CFI 1b848 .cfa: sp 32 +
STACK CFI 1b850 .cfa: sp 0 +
STACK CFI 1b854 .cfa: x29 32 +
STACK CFI 1b878 .cfa: sp 32 +
STACK CFI 1b880 .cfa: sp 0 +
STACK CFI INIT 1b884 10 .cfa: sp 0 +
STACK CFI INIT 1b894 30 .cfa: sp 0 +
STACK CFI 1b898 .cfa: sp 32 +
STACK CFI 1b8a0 .cfa: x29 32 + x19: .cfa -16 + ^ .ra: .cfa -24 + ^ x29: .cfa -32 + ^
STACK CFI 1b8b8 .cfa: sp 32 +
STACK CFI 1b8c0 .cfa: sp 0 +
STACK CFI INIT 1b8c4 4 .cfa: sp 0 +
STACK CFI INIT 1b8c8 4 .cfa: sp 0 +
STACK CFI INIT 1b8cc 70 .cfa: sp 0 +
STACK CFI 1b8d0 .cfa: sp 48 +
STACK CFI 1b8dc .cfa: x29 32 + x19: .cfa -16 + ^ .ra: .cfa -24 + ^ x29: .cfa -32 + ^
STACK CFI 1b914 .cfa: sp 48 +
STACK CFI 1b920 .cfa: sp 0 +
STACK CFI 1b924 .cfa: x29 32 +
STACK CFI INIT 1b93c 5c .cfa: sp 0 +
STACK CFI 1b940 .cfa: sp 32 +
STACK CFI 1b948 .cfa: x29 32 + x19: .cfa -16 + ^ .ra: .cfa -24 + ^ x29: .cfa -32 + ^
STACK CFI 1b98c .cfa: sp 32 +
STACK CFI 1b994 .cfa: sp 0 +
STACK CFI INIT 1b998 64 .cfa: sp 0 +
STACK CFI 1b99c .cfa: sp 32 +
STACK CFI 1b9a4 .cfa: x29 32 + x19: .cfa -16 + ^ .ra: .cfa -24 + ^ x29: .cfa -32 + ^
STACK CFI 1b9f0 .cfa: sp 32 +
STACK CFI 1b9f8 .cfa: sp 0 +
STACK CFI INIT 1b9fc 4 .cfa: sp 0 +
STACK CFI INIT 1ba00 34 .cfa: sp 0 +
STACK CFI 1ba04 .cfa: sp 16 +
STACK CFI 1ba08 .cfa: x29 16 + .ra: .cfa -8 + ^ x29: .cfa -16 + ^
STACK CFI INIT 1ba34 24 .cfa: sp 0 +
STACK CFI 1ba38 .cfa: sp 32 +
STACK CFI 1ba40 .cfa: x29 32 + x19: .cfa -16 + ^ .ra: .cfa -24 + ^ x29: .cfa -32 + ^
STACK CFI 1ba4c .cfa: sp 32 +
STACK CFI 1ba54 .cfa: sp 0 +
STACK CFI INIT 1ba58 27c .cfa: sp 0 +
STACK CFI 1ba5c .cfa: sp 64 +
STACK CFI 1ba64 .cfa: x29 16 + .ra: .cfa -8 + ^ x29: .cfa -16 + ^
STACK CFI 1bcc4 .cfa: sp 64 +
STACK CFI 1bccc .cfa: sp 0 +
STACK CFI 1bcd0 .cfa: x29 16 +
STACK CFI INIT 1bcd4 33c .cfa: sp 0 +
STACK CFI 1bcd8 .cfa: sp 176 +
STACK CFI 1bcf8 .cfa: x29 96 + x19: .cfa -8 + ^ x20: .cfa -16 + ^ x21: .cfa -24 + ^ x22: .cfa -32 + ^ x23: .cfa -40 + ^ x24: .cfa -48 + ^ x25: .cfa -56 + ^ x26: .cfa -64 + ^ x27: .cfa -72 + ^ x28: .cfa -80 + ^ .ra: .cfa -88 + ^ x29: .cfa -96 + ^ v8: .cfa -104 + ^ v9: .cfa -112 + ^
STACK CFI 1bfe8 .cfa: sp 176 +
STACK CFI 1c008 .cfa: sp 0 +
STACK CFI 1c00c .cfa: x29 96 +
STACK CFI INIT 1c010 4 .cfa: sp 0 +
STACK CFI INIT 1c014 34 .cfa: sp 0 +
STACK CFI 1c018 .cfa: sp 32 +
STACK CFI 1c020 .cfa: x29 32 + x19: .cfa -16 + ^ .ra: .cfa -24 + ^ x29: .cfa -32 + ^
STACK CFI 1c03c .cfa: sp 32 +
STACK CFI 1c044 .cfa: sp 0 +
STACK CFI INIT 1c048 14 .cfa: sp 0 +
STACK CFI INIT 1c05c 4 .cfa: sp 0 +
STACK CFI INIT 1c060 4 .cfa: sp 0 +
STACK CFI INIT 1c064 20 .cfa: sp 0 +
STACK CFI INIT 1c084 1c .cfa: sp 0 +
STACK CFI INIT 1c0a0 c .cfa: sp 0 +
STACK CFI INIT 1c0ac 4 .cfa: sp 0 +
STACK CFI INIT 1c0b0 34 .cfa: sp 0 +
STACK CFI 1c0b4 .cfa: sp 32 +
STACK CFI 1c0bc .cfa: x29 32 + x19: .cfa -16 + ^ .ra: .cfa -24 + ^ x29: .cfa -32 + ^
STACK CFI 1c0d8 .cfa: sp 32 +
STACK CFI 1c0e0 .cfa: sp 0 +
STACK CFI INIT 1c0e4 14 .cfa: sp 0 +
STACK CFI INIT 1c0f8 4 .cfa: sp 0 +
STACK CFI INIT 1c0fc 4 .cfa: sp 0 +
STACK CFI INIT 1c100 1c .cfa: sp 0 +
STACK CFI INIT 1c11c 1c .cfa: sp 0 +
STACK CFI INIT 1c138 c .cfa: sp 0 +
STACK CFI INIT 1c144 4 .cfa: sp 0 +
STACK CFI INIT 1c148 34 .cfa: sp 0 +
STACK CFI 1c14c .cfa: sp 32 +
STACK CFI 1c154 .cfa: x29 32 + x19: .cfa -16 + ^ .ra: .cfa -24 + ^ x29: .cfa -32 + ^
STACK CFI 1c170 .cfa: sp 32 +
STACK CFI 1c178 .cfa: sp 0 +
STACK CFI INIT 1c17c 14 .cfa: sp 0 +
STACK CFI INIT 1c190 4 .cfa: sp 0 +
STACK CFI INIT 1c194 4 .cfa: sp 0 +
STACK CFI INIT 1c198 ac .cfa: sp 0 +
STACK CFI 1c19c .cfa: sp 48 +
STACK CFI 1c1a8 .cfa: x29 32 + x19: .cfa -8 + ^ x20: .cfa -16 + ^ .ra: .cfa -24 + ^ x29: .cfa -32 + ^
STACK CFI 1c214 .cfa: sp 48 +
STACK CFI 1c220 .cfa: sp 0 +
STACK CFI 1c224 .cfa: x29 32 +
STACK CFI INIT 1c244 1c .cfa: sp 0 +
STACK CFI INIT 1c260 c .cfa: sp 0 +
STACK CFI INIT 1c26c 4 .cfa: sp 0 +
STACK CFI INIT 1c270 34 .cfa: sp 0 +
STACK CFI 1c274 .cfa: sp 32 +
STACK CFI 1c27c .cfa: x29 32 + x19: .cfa -16 + ^ .ra: .cfa -24 + ^ x29: .cfa -32 + ^
STACK CFI 1c298 .cfa: sp 32 +
STACK CFI 1c2a0 .cfa: sp 0 +
STACK CFI INIT 1c2a4 14 .cfa: sp 0 +
STACK CFI INIT 1c2b8 4 .cfa: sp 0 +
STACK CFI INIT 1c2bc 4 .cfa: sp 0 +
STACK CFI INIT 1c2c0 ac .cfa: sp 0 +
STACK CFI 1c2c4 .cfa: sp 48 +
STACK CFI 1c2d0 .cfa: x29 32 + x19: .cfa -8 + ^ x20: .cfa -16 + ^ .ra: .cfa -24 + ^ x29: .cfa -32 + ^
STACK CFI 1c33c .cfa: sp 48 +
STACK CFI 1c348 .cfa: sp 0 +
STACK CFI 1c34c .cfa: x29 32 +
STACK CFI INIT 1c36c 1c .cfa: sp 0 +
STACK CFI INIT 1c388 c .cfa: sp 0 +
STACK CFI INIT 1c394 4 .cfa: sp 0 +
STACK CFI INIT 1c398 34 .cfa: sp 0 +
STACK CFI 1c39c .cfa: sp 32 +
STACK CFI 1c3a4 .cfa: x29 32 + x19: .cfa -16 + ^ .ra: .cfa -24 + ^ x29: .cfa -32 + ^
STACK CFI 1c3c0 .cfa: sp 32 +
STACK CFI 1c3c8 .cfa: sp 0 +
STACK CFI INIT 1c3cc 14 .cfa: sp 0 +
STACK CFI INIT 1c3e0 4 .cfa: sp 0 +
STACK CFI INIT 1c3e4 4 .cfa: sp 0 +
STACK CFI INIT 1c3e8 ac .cfa: sp 0 +
STACK CFI 1c3ec .cfa: sp 48 +
STACK CFI 1c3f8 .cfa: x29 32 + x19: .cfa -8 + ^ x20: .cfa -16 + ^ .ra: .cfa -24 + ^ x29: .cfa -32 + ^
STACK CFI 1c464 .cfa: sp 48 +
STACK CFI 1c470 .cfa: sp 0 +
STACK CFI 1c474 .cfa: x29 32 +
STACK CFI INIT 1c494 1c .cfa: sp 0 +
STACK CFI INIT 1c4b0 c .cfa: sp 0 +
STACK CFI INIT 1c4bc 4 .cfa: sp 0 +
STACK CFI INIT 1c4c0 4 .cfa: sp 0 +
STACK CFI INIT 1c4c4 34 .cfa: sp 0 +
STACK CFI 1c4c8 .cfa: sp 32 +
STACK CFI 1c4d0 .cfa: x29 32 + x19: .cfa -16 + ^ .ra: .cfa -24 + ^ x29: .cfa -32 + ^
STACK CFI 1c4ec .cfa: sp 32 +
STACK CFI 1c4f4 .cfa: sp 0 +
STACK CFI INIT 1c4f8 14 .cfa: sp 0 +
STACK CFI INIT 1c50c 4 .cfa: sp 0 +
STACK CFI INIT 1c510 4 .cfa: sp 0 +
STACK CFI INIT 1c5b0 1c .cfa: sp 0 +
STACK CFI INIT 1c5cc c .cfa: sp 0 +
STACK CFI INIT 1c5d8 4 .cfa: sp 0 +
STACK CFI INIT 1c5dc 14 .cfa: sp 0 +
STACK CFI INIT 1c5f0 4 .cfa: sp 0 +
STACK CFI INIT 1c5f4 4 .cfa: sp 0 +
STACK CFI INIT 1c5f8 38 .cfa: sp 0 +
STACK CFI 1c5fc .cfa: sp 32 +
STACK CFI 1c604 .cfa: x29 32 + x19: .cfa -16 + ^ .ra: .cfa -24 + ^ x29: .cfa -32 + ^
STACK CFI 1c624 .cfa: sp 32 +
STACK CFI 1c62c .cfa: sp 0 +
STACK CFI INIT 1c630 18 .cfa: sp 0 +
STACK CFI INIT 1c648 4 .cfa: sp 0 +
STACK CFI INIT 1c64c 4 .cfa: sp 0 +
STACK CFI INIT 1c650 12c .cfa: sp 0 +
STACK CFI 1c654 .cfa: sp 32 +
STACK CFI 1c65c .cfa: x29 32 + x19: .cfa -8 + ^ x20: .cfa -16 + ^ .ra: .cfa -24 + ^ x29: .cfa -32 + ^
STACK CFI 1c700 .cfa: sp 32 +
STACK CFI 1c708 .cfa: sp 0 +
STACK CFI 1c70c .cfa: x29 32 +
STACK CFI INIT 1c77c 1c .cfa: sp 0 +
STACK CFI INIT 1c798 c .cfa: sp 0 +
STACK CFI INIT 1c7a4 3c .cfa: sp 0 +
STACK CFI 1c7a8 .cfa: sp 32 +
STACK CFI 1c7b0 .cfa: x29 32 + x19: .cfa -16 + ^ .ra: .cfa -24 + ^ x29: .cfa -32 + ^
STACK CFI 1c7bc .cfa: sp 32 +
STACK CFI 1c7c4 .cfa: sp 0 +
STACK CFI 1c7c8 .cfa: x29 32 +
STACK CFI 1c7d4 .cfa: sp 32 +
STACK CFI 1c7dc .cfa: sp 0 +
STACK CFI INIT 1c9a4 50 .cfa: sp 0 +
STACK CFI 1c9a8 .cfa: sp 32 +
STACK CFI 1c9b0 .cfa: x29 32 + x19: .cfa -16 + ^ .ra: .cfa -24 + ^ x29: .cfa -32 + ^
STACK CFI 1c9c8 .cfa: sp 32 +
STACK CFI 1c9d0 .cfa: sp 0 +
STACK CFI 1c9d4 .cfa: x29 32 +
STACK CFI 1c9e8 .cfa: sp 32 +
STACK CFI 1c9f0 .cfa: sp 0 +
STACK CFI INIT 1c9f4 104 .cfa: sp 0 +
STACK CFI 1c9f8 .cfa: sp 64 +
STACK CFI 1ca08 .cfa: x29 64 + x19: .cfa -8 + ^ x20: .cfa -16 + ^ x21: .cfa -24 + ^ x22: .cfa -32 + ^ x23: .cfa -48 + ^ .ra: .cfa -56 + ^ x29: .cfa -64 + ^
STACK CFI 1ca64 .cfa: sp 64 +
STACK CFI 1ca74 .cfa: sp 0 +
STACK CFI 1ca78 .cfa: x29 64 +
STACK CFI 1ca94 .cfa: sp 64 +
STACK CFI 1caa4 .cfa: sp 0 +
STACK CFI 1caa8 .cfa: x29 64 +
STACK CFI 1cae4 .cfa: sp 64 +
STACK CFI 1caf4 .cfa: sp 0 +
STACK CFI INIT 1caf8 4 .cfa: sp 0 +
STACK CFI INIT 1cafc 14 .cfa: sp 0 +
STACK CFI INIT 1d6e4 18 .cfa: sp 0 +
STACK CFI INIT 1dbac 50 .cfa: sp 0 +
STACK CFI 1dbb0 .cfa: sp 32 +
STACK CFI 1dbb8 .cfa: x29 32 + x19: .cfa -16 + ^ .ra: .cfa -24 + ^ x29: .cfa -32 + ^
STACK CFI 1dbd0 .cfa: sp 32 +
STACK CFI 1dbd8 .cfa: sp 0 +
STACK CFI 1dbdc .cfa: x29 32 +
STACK CFI 1dbf0 .cfa: sp 32 +
STACK CFI 1dbf8 .cfa: sp 0 +
STACK CFI INIT 1dc70 7c .cfa: sp 0 +
STACK CFI 1dc74 .cfa: sp 48 +
STACK CFI 1dc80 .cfa: x29 48 + x19: .cfa -8 + ^ x20: .cfa -16 + ^ x21: .cfa -32 + ^ .ra: .cfa -40 + ^ x29: .cfa -48 + ^
STACK CFI 1dccc .cfa: sp 48 +
STACK CFI 1dcd8 .cfa: sp 0 +
STACK CFI 1dcdc .cfa: sp 48 +
STACK CFI 1dce8 .cfa: sp 0 +
STACK CFI INIT 1dcec 4 .cfa: sp 0 +
STACK CFI INIT 1de44 34 .cfa: sp 0 +
STACK CFI 1de48 .cfa: sp 16 +
STACK CFI 1de4c .cfa: x29 16 + .ra: .cfa -8 + ^ x29: .cfa -16 + ^
STACK CFI INIT 1dfa4 80 .cfa: sp 0 +
STACK CFI 1dfa8 .cfa: sp 48 +
STACK CFI 1dfb4 .cfa: x29 48 + x19: .cfa -8 + ^ x20: .cfa -16 + ^ x21: .cfa -32 + ^ .ra: .cfa -40 + ^ x29: .cfa -48 + ^
STACK CFI 1e014 .cfa: sp 48 +
STACK CFI 1e020 .cfa: sp 0 +
STACK CFI INIT 1e024 24 .cfa: sp 0 +
STACK CFI 1e028 .cfa: sp 32 +
STACK CFI 1e030 .cfa: x29 32 + x19: .cfa -16 + ^ .ra: .cfa -24 + ^ x29: .cfa -32 + ^
STACK CFI 1e03c .cfa: sp 32 +
STACK CFI 1e044 .cfa: sp 0 +
STACK CFI INIT 1e3c8 14 .cfa: sp 0 +
STACK CFI 1e3cc .cfa: sp 16 +
STACK CFI 1e3d0 .cfa: x29 16 + .ra: .cfa -8 + ^ x29: .cfa -16 + ^
STACK CFI INIT 1e42c 30 .cfa: sp 0 +
STACK CFI 1e430 .cfa: sp 32 +
STACK CFI 1e438 .cfa: x29 32 + x19: .cfa -16 + ^ .ra: .cfa -24 + ^ x29: .cfa -32 + ^
STACK CFI 1e450 .cfa: sp 32 +
STACK CFI 1e458 .cfa: sp 0 +
STACK CFI INIT 1e45c 34 .cfa: sp 0 +
STACK CFI 1e460 .cfa: sp 32 +
STACK CFI 1e468 .cfa: x29 32 + x19: .cfa -16 + ^ .ra: .cfa -24 + ^ x29: .cfa -32 + ^
STACK CFI INIT 1e608 148 .cfa: sp 0 +
STACK CFI 1e60c .cfa: sp 48 +
STACK CFI 1e618 .cfa: x29 48 + x19: .cfa -8 + ^ x20: .cfa -16 + ^ x21: .cfa -32 + ^ .ra: .cfa -40 + ^ x29: .cfa -48 + ^
STACK CFI 1e740 .cfa: sp 48 +
STACK CFI 1e74c .cfa: sp 0 +
STACK CFI INIT 1e750 80 .cfa: sp 0 +
STACK CFI 1e754 .cfa: sp 48 +
STACK CFI 1e760 .cfa: x29 48 + x19: .cfa -8 + ^ x20: .cfa -16 + ^ x21: .cfa -24 + ^ x22: .cfa -32 + ^ .ra: .cfa -40 + ^ x29: .cfa -48 + ^
STACK CFI 1e778 .cfa: sp 48 +
STACK CFI 1e784 .cfa: sp 0 +
STACK CFI 1e788 .cfa: x29 48 +
STACK CFI 1e7b8 .cfa: sp 48 +
STACK CFI 1e7c4 .cfa: sp 0 +
STACK CFI 1e7c8 .cfa: x29 48 +
STACK CFI INIT 1e7d0 68 .cfa: sp 0 +
STACK CFI 1e7d4 .cfa: sp 32 +
STACK CFI 1e7dc .cfa: x29 32 + x19: .cfa -8 + ^ x20: .cfa -16 + ^ .ra: .cfa -24 + ^ x29: .cfa -32 + ^
STACK CFI 1e7f4 .cfa: sp 32 +
STACK CFI 1e7fc .cfa: sp 0 +
STACK CFI 1e800 .cfa: x29 32 +
STACK CFI 1e82c .cfa: sp 32 +
STACK CFI 1e834 .cfa: sp 0 +
STACK CFI INIT 1e838 14 .cfa: sp 0 +
STACK CFI 1e83c .cfa: sp 16 +
STACK CFI 1e840 .cfa: x29 16 + .ra: .cfa -8 + ^ x29: .cfa -16 + ^
STACK CFI INIT 1e84c 4 .cfa: sp 0 +
STACK CFI INIT 1e850 14 .cfa: sp 0 +
STACK CFI INIT 1e864 84 .cfa: sp 0 +
STACK CFI 1e86c .cfa: sp 32 +
STACK CFI 1e874 .cfa: x29 32 + x19: .cfa -8 + ^ x20: .cfa -16 + ^ .ra: .cfa -24 + ^ x29: .cfa -32 + ^
STACK CFI 1e8b4 .cfa: sp 32 +
STACK CFI 1e8bc .cfa: sp 0 +
STACK CFI 1e8c4 .cfa: x29 32 +
STACK CFI INIT 1eb70 50 .cfa: sp 0 +
STACK CFI 1eb74 .cfa: sp 32 +
STACK CFI 1eb7c .cfa: x29 32 + x19: .cfa -16 + ^ .ra: .cfa -24 + ^ x29: .cfa -32 + ^
STACK CFI 1eb94 .cfa: sp 32 +
STACK CFI 1eb9c .cfa: sp 0 +
STACK CFI 1eba0 .cfa: x29 32 +
STACK CFI 1ebb4 .cfa: sp 32 +
STACK CFI 1ebbc .cfa: sp 0 +
STACK CFI INIT 1ebc0 64 .cfa: sp 0 +
STACK CFI 1ebc4 .cfa: sp 32 +
STACK CFI 1ebcc .cfa: x29 32 + x19: .cfa -16 + ^ .ra: .cfa -24 + ^ x29: .cfa -32 + ^
STACK CFI 1ebf8 .cfa: sp 32 +
STACK CFI 1ec00 .cfa: sp 0 +
STACK CFI 1ec04 .cfa: x29 32 +
STACK CFI 1ec18 .cfa: sp 32 +
STACK CFI 1ec20 .cfa: sp 0 +
STACK CFI INIT 1ed44 150 .cfa: sp 0 +
STACK CFI 1ed48 .cfa: sp 96 +
STACK CFI 1ed60 .cfa: x29 80 + x19: .cfa -8 + ^ x20: .cfa -16 + ^ x21: .cfa -24 + ^ x22: .cfa -32 + ^ x23: .cfa -40 + ^ x24: .cfa -48 + ^ x25: .cfa -64 + ^ .ra: .cfa -72 + ^ x29: .cfa -80 + ^
STACK CFI 1ee74 .cfa: sp 96 +
STACK CFI 1ee8c .cfa: sp 0 +
STACK CFI 1ee90 .cfa: x29 80 +
STACK CFI INIT 1ee94 1b0 .cfa: sp 0 +
STACK CFI INIT 1f044 3c .cfa: sp 0 +
STACK CFI 1f048 .cfa: sp 32 +
STACK CFI 1f050 .cfa: x29 32 + x19: .cfa -16 + ^ .ra: .cfa -24 + ^ x29: .cfa -32 + ^
STACK CFI 1f05c .cfa: sp 32 +
STACK CFI 1f064 .cfa: sp 0 +
STACK CFI 1f068 .cfa: x29 32 +
STACK CFI 1f074 .cfa: sp 32 +
STACK CFI 1f07c .cfa: sp 0 +
STACK CFI INIT 1f39c 64 .cfa: sp 0 +
STACK CFI 1f3a0 .cfa: sp 32 +
STACK CFI 1f3a8 .cfa: x29 32 + x19: .cfa -16 + ^ .ra: .cfa -24 + ^ x29: .cfa -32 + ^
STACK CFI 1f3d4 .cfa: sp 32 +
STACK CFI 1f3dc .cfa: sp 0 +
STACK CFI 1f3e0 .cfa: x29 32 +
STACK CFI 1f3f4 .cfa: sp 32 +
STACK CFI 1f3fc .cfa: sp 0 +
STACK CFI INIT 1f574 24 .cfa: sp 0 +
STACK CFI 1f578 .cfa: sp 32 +
STACK CFI 1f580 .cfa: x29 32 + x19: .cfa -16 + ^ .ra: .cfa -24 + ^ x29: .cfa -32 + ^
STACK CFI 1f58c .cfa: sp 32 +
STACK CFI 1f594 .cfa: sp 0 +
STACK CFI INIT 1f598 8 .cfa: sp 0 +
STACK CFI INIT 1f5a0 24 .cfa: sp 0 +
STACK CFI 1f5a4 .cfa: sp 32 +
STACK CFI 1f5ac .cfa: x29 32 + x19: .cfa -16 + ^ .ra: .cfa -24 + ^ x29: .cfa -32 + ^
STACK CFI 1f5b8 .cfa: sp 32 +
STACK CFI 1f5c0 .cfa: sp 0 +
STACK CFI INIT 1f5c4 28 .cfa: sp 0 +
STACK CFI 1f5c8 .cfa: sp 32 +
STACK CFI 1f5d0 .cfa: x29 32 + x19: .cfa -16 + ^ .ra: .cfa -24 + ^ x29: .cfa -32 + ^
STACK CFI 1f5e0 .cfa: sp 32 +
STACK CFI 1f5e8 .cfa: sp 0 +
STACK CFI INIT 1f5ec 24 .cfa: sp 0 +
STACK CFI 1f5f0 .cfa: sp 32 +
STACK CFI 1f5f8 .cfa: x29 32 + x19: .cfa -16 + ^ .ra: .cfa -24 + ^ x29: .cfa -32 + ^
STACK CFI 1f604 .cfa: sp 32 +
STACK CFI 1f60c .cfa: sp 0 +
STACK CFI INIT 1fd84 8 .cfa: sp 0 +
STACK CFI INIT 1fd8c 24 .cfa: sp 0 +
STACK CFI 1fd90 .cfa: sp 32 +
STACK CFI 1fd98 .cfa: x29 32 + x19: .cfa -16 + ^ .ra: .cfa -24 + ^ x29: .cfa -32 + ^
STACK CFI 1fda4 .cfa: sp 32 +
STACK CFI 1fdac .cfa: sp 0 +
STACK CFI INIT 1fdb0 28 .cfa: sp 0 +
STACK CFI 1fdb4 .cfa: sp 32 +
STACK CFI 1fdbc .cfa: x29 32 + x19: .cfa -16 + ^ .ra: .cfa -24 + ^ x29: .cfa -32 + ^
STACK CFI 1fdcc .cfa: sp 32 +
STACK CFI 1fdd4 .cfa: sp 0 +
STACK CFI INIT 1fdd8 8 .cfa: sp 0 +
STACK CFI INIT 1fde0 24 .cfa: sp 0 +
STACK CFI 1fde4 .cfa: sp 32 +
STACK CFI 1fdec .cfa: x29 32 + x19: .cfa -16 + ^ .ra: .cfa -24 + ^ x29: .cfa -32 + ^
STACK CFI 1fdf8 .cfa: sp 32 +
STACK CFI 1fe00 .cfa: sp 0 +
STACK CFI INIT 1fe04 28 .cfa: sp 0 +
STACK CFI 1fe08 .cfa: sp 32 +
STACK CFI 1fe10 .cfa: x29 32 + x19: .cfa -16 + ^ .ra: .cfa -24 + ^ x29: .cfa -32 + ^
STACK CFI 1fe20 .cfa: sp 32 +
STACK CFI 1fe28 .cfa: sp 0 +
STACK CFI INIT 1fe2c 8 .cfa: sp 0 +
STACK CFI INIT 1fe34 24 .cfa: sp 0 +
STACK CFI 1fe38 .cfa: sp 32 +
STACK CFI 1fe40 .cfa: x29 32 + x19: .cfa -16 + ^ .ra: .cfa -24 + ^ x29: .cfa -32 + ^
STACK CFI 1fe4c .cfa: sp 32 +
STACK CFI 1fe54 .cfa: sp 0 +
STACK CFI INIT 1fe58 28 .cfa: sp 0 +
STACK CFI 1fe5c .cfa: sp 32 +
STACK CFI 1fe64 .cfa: x29 32 + x19: .cfa -16 + ^ .ra: .cfa -24 + ^ x29: .cfa -32 + ^
STACK CFI 1fe74 .cfa: sp 32 +
STACK CFI 1fe7c .cfa: sp 0 +
STACK CFI INIT 20cd0 4 .cfa: sp 0 +
STACK CFI INIT 20cd4 14 .cfa: sp 0 +
STACK CFI INIT 211c8 110 .cfa: sp 0 +
STACK CFI INIT 212d8 134 .cfa: sp 0 +
STACK CFI INIT 19b60 1cc .cfa: sp 0 +
STACK CFI 19b64 .cfa: sp 160 +
STACK CFI 19b80 .cfa: x29 96 + x19: .cfa -8 + ^ x20: .cfa -16 + ^ x21: .cfa -24 + ^ x22: .cfa -32 + ^ x23: .cfa -40 + ^ x24: .cfa -48 + ^ x25: .cfa -56 + ^ x26: .cfa -64 + ^ x27: .cfa -80 + ^ .ra: .cfa -88 + ^ x29: .cfa -96 + ^
STACK CFI 19ce4 .cfa: sp 160 +
STACK CFI 19d00 .cfa: sp 0 +
STACK CFI 19d04 .cfa: x29 96 +
STACK CFI INIT 19d2c f94 .cfa: sp 0 +
STACK CFI 19d30 .cfa: sp 96 +
STACK CFI 19d48 .cfa: x29 96 + x19: .cfa -8 + ^ x20: .cfa -16 + ^ x21: .cfa -24 + ^ x22: .cfa -32 + ^ x23: .cfa -40 + ^ x24: .cfa -48 + ^ x25: .cfa -56 + ^ x26: .cfa -64 + ^ x27: .cfa -72 + ^ x28: .cfa -80 + ^ .ra: .cfa -88 + ^ x29: .cfa -96 + ^
STACK CFI 1ab64 .cfa: sp 96 +
STACK CFI 1ab7c .cfa: sp 0 +
STACK CFI 1ab80 .cfa: x29 96 +
STACK CFI INIT 1acc0 3cc .cfa: sp 0 +
STACK CFI 1acc4 .cfa: sp 224 +
STACK CFI 1acd8 .cfa: x29 64 + x19: .cfa -8 + ^ x20: .cfa -16 + ^ x21: .cfa -24 + ^ x22: .cfa -32 + ^ x23: .cfa -48 + ^ .ra: .cfa -56 + ^ x29: .cfa -64 + ^
STACK CFI 1af98 .cfa: sp 224 +
STACK CFI 1afac .cfa: sp 0 +
STACK CFI 1afb0 .cfa: x29 64 +
STACK CFI INIT 1b08c 238 .cfa: sp 0 +
STACK CFI 1b090 .cfa: sp 80 +
STACK CFI 1b0a0 .cfa: x29 48 + x19: .cfa -8 + ^ x20: .cfa -16 + ^ x21: .cfa -24 + ^ x22: .cfa -32 + ^ .ra: .cfa -40 + ^ x29: .cfa -48 + ^
STACK CFI 1b274 .cfa: sp 80 +
STACK CFI 1b284 .cfa: sp 0 +
STACK CFI 1b288 .cfa: x29 48 +
STACK CFI INIT 1b380 6c .cfa: sp 0 +
STACK CFI 1b384 .cfa: sp 32 +
STACK CFI 1b38c .cfa: x29 32 + x19: .cfa -16 + ^ .ra: .cfa -24 + ^ x29: .cfa -32 + ^
STACK CFI 1b3dc .cfa: sp 32 +
STACK CFI 1b3e4 .cfa: sp 0 +
STACK CFI 1b3e8 .cfa: x29 32 +
STACK CFI INIT 1b3ec 74 .cfa: sp 0 +
STACK CFI 1b3f0 .cfa: sp 32 +
STACK CFI 1b3f8 .cfa: x29 32 + x19: .cfa -16 + ^ .ra: .cfa -24 + ^ x29: .cfa -32 + ^
STACK CFI 1b450 .cfa: sp 32 +
STACK CFI 1b458 .cfa: sp 0 +
STACK CFI 1b45c .cfa: x29 32 +
STACK CFI INIT 1b4c0 6c .cfa: sp 0 +
STACK CFI 1b4c4 .cfa: sp 32 +
STACK CFI 1b4cc .cfa: x29 32 + x19: .cfa -16 + ^ .ra: .cfa -24 + ^ x29: .cfa -32 + ^
STACK CFI 1b51c .cfa: sp 32 +
STACK CFI 1b524 .cfa: sp 0 +
STACK CFI 1b528 .cfa: x29 32 +
STACK CFI INIT 1b52c 74 .cfa: sp 0 +
STACK CFI 1b530 .cfa: sp 32 +
STACK CFI 1b538 .cfa: x29 32 + x19: .cfa -16 + ^ .ra: .cfa -24 + ^ x29: .cfa -32 + ^
STACK CFI 1b590 .cfa: sp 32 +
STACK CFI 1b598 .cfa: sp 0 +
STACK CFI 1b59c .cfa: x29 32 +
STACK CFI INIT 1b5ec 148 .cfa: sp 0 +
STACK CFI 1b5f0 .cfa: sp 96 +
STACK CFI 1b600 .cfa: x29 48 + x19: .cfa -8 + ^ x20: .cfa -16 + ^ x21: .cfa -32 + ^ .ra: .cfa -40 + ^ x29: .cfa -48 + ^
STACK CFI 1b6e8 .cfa: sp 96 +
STACK CFI 1b6f8 .cfa: sp 0 +
STACK CFI 1b6fc .cfa: x29 48 +
STACK CFI INIT 1b734 6c .cfa: sp 0 +
STACK CFI 1b738 .cfa: sp 32 +
STACK CFI 1b740 .cfa: x29 32 + x19: .cfa -16 + ^ .ra: .cfa -24 + ^ x29: .cfa -32 + ^
STACK CFI 1b790 .cfa: sp 32 +
STACK CFI 1b798 .cfa: sp 0 +
STACK CFI 1b79c .cfa: x29 32 +
STACK CFI INIT 1c514 9c .cfa: sp 0 +
STACK CFI 1c518 .cfa: sp 80 +
STACK CFI 1c524 .cfa: x29 32 + x19: .cfa -8 + ^ x20: .cfa -16 + ^ .ra: .cfa -24 + ^ x29: .cfa -32 + ^
STACK CFI 1c598 .cfa: sp 80 +
STACK CFI 1c5a4 .cfa: sp 0 +
STACK CFI 1c5a8 .cfa: x29 32 +
STACK CFI INIT 1c7e0 1c4 .cfa: sp 0 +
STACK CFI 1c7e4 .cfa: sp 112 +
STACK CFI 1c7f8 .cfa: x29 64 + x19: .cfa -8 + ^ x20: .cfa -16 + ^ x21: .cfa -24 + ^ x22: .cfa -32 + ^ x23: .cfa -48 + ^ .ra: .cfa -56 + ^ x29: .cfa -64 + ^
STACK CFI 1c93c .cfa: sp 112 +
STACK CFI 1c950 .cfa: sp 0 +
STACK CFI 1c954 .cfa: x29 64 +
STACK CFI INIT 1cb10 bd4 .cfa: sp 0 +
STACK CFI 1cb14 .cfa: sp 240 +
STACK CFI 1cb30 .cfa: x29 96 + x19: .cfa -8 + ^ x20: .cfa -16 + ^ x21: .cfa -24 + ^ x22: .cfa -32 + ^ x23: .cfa -40 + ^ x24: .cfa -48 + ^ x25: .cfa -56 + ^ x26: .cfa -64 + ^ x27: .cfa -72 + ^ x28: .cfa -80 + ^ .ra: .cfa -88 + ^ x29: .cfa -96 + ^
STACK CFI 1cf0c .cfa: sp 240 +
STACK CFI 1cf28 .cfa: sp 0 +
STACK CFI 1cf2c .cfa: x29 96 +
STACK CFI 1d58c .cfa: sp 240 +
STACK CFI 1d5a8 .cfa: sp 0 +
STACK CFI 1d5ac .cfa: x29 96 +
STACK CFI INIT 1d6fc 4b0 .cfa: sp 0 +
STACK CFI 1d700 .cfa: sp 256 +
STACK CFI 1d71c .cfa: x29 96 + x19: .cfa -8 + ^ x20: .cfa -16 + ^ x21: .cfa -24 + ^ x22: .cfa -32 + ^ x23: .cfa -40 + ^ x24: .cfa -48 + ^ x25: .cfa -56 + ^ x26: .cfa -64 + ^ x27: .cfa -80 + ^ .ra: .cfa -88 + ^ x29: .cfa -96 + ^
STACK CFI 1da70 .cfa: sp 256 +
STACK CFI 1da8c .cfa: sp 0 +
STACK CFI 1da90 .cfa: x29 96 +
STACK CFI INIT 1dbfc 74 .cfa: sp 0 +
STACK CFI 1dc00 .cfa: sp 48 +
STACK CFI 1dc0c .cfa: x29 32 + x19: .cfa -8 + ^ x20: .cfa -16 + ^ .ra: .cfa -24 + ^ x29: .cfa -32 + ^
STACK CFI 1dc58 .cfa: sp 48 +
STACK CFI 1dc64 .cfa: sp 0 +
STACK CFI 1dc68 .cfa: x29 32 +
STACK CFI INIT 1dcf0 154 .cfa: sp 0 +
STACK CFI 1dcf4 .cfa: sp 384 +
STACK CFI 1dd08 .cfa: x29 64 + x19: .cfa -8 + ^ x20: .cfa -16 + ^ x21: .cfa -24 + ^ x22: .cfa -32 + ^ x23: .cfa -40 + ^ x28: .cfa -48 + ^ .ra: .cfa -56 + ^ x29: .cfa -64 + ^
STACK CFI 1ddec .cfa: sp 384 +
STACK CFI 1de00 .cfa: sp 0 +
STACK CFI 1de04 .cfa: x29 64 +
STACK CFI INIT 1de78 12c .cfa: sp 0 +
STACK CFI 1de7c .cfa: sp 80 +
STACK CFI 1de90 .cfa: x29 80 + x19: .cfa -8 + ^ x20: .cfa -16 + ^ x21: .cfa -24 + ^ x22: .cfa -32 + ^ x23: .cfa -40 + ^ x24: .cfa -48 + ^ x25: .cfa -56 + ^ x26: .cfa -64 + ^ .ra: .cfa -72 + ^ x29: .cfa -80 + ^
STACK CFI 1df58 .cfa: sp 80 +
STACK CFI 1df6c .cfa: sp 0 +
STACK CFI 1df70 .cfa: x29 80 +
STACK CFI INIT 1e048 1a4 .cfa: sp 0 +
STACK CFI 1e04c .cfa: sp 112 +
STACK CFI 1e064 .cfa: x29 80 + x19: .cfa -8 + ^ x20: .cfa -16 + ^ x21: .cfa -24 + ^ x22: .cfa -32 + ^ x23: .cfa -40 + ^ x24: .cfa -48 + ^ x25: .cfa -56 + ^ x26: .cfa -64 + ^ .ra: .cfa -72 + ^ x29: .cfa -80 + ^
STACK CFI 1e154 .cfa: sp 112 +
STACK CFI 1e16c .cfa: sp 0 +
STACK CFI 1e170 .cfa: x29 80 +
STACK CFI INIT 1e1ec 1dc .cfa: sp 0 +
STACK CFI 1e1f0 .cfa: sp 128 +
STACK CFI 1e20c .cfa: x29 96 + x19: .cfa -8 + ^ x20: .cfa -16 + ^ x21: .cfa -24 + ^ x22: .cfa -32 + ^ x23: .cfa -40 + ^ x24: .cfa -48 + ^ x25: .cfa -56 + ^ x26: .cfa -64 + ^ x27: .cfa -80 + ^ .ra: .cfa -88 + ^ x29: .cfa -96 + ^
STACK CFI 1e378 .cfa: sp 128 +
STACK CFI 1e394 .cfa: sp 0 +
STACK CFI 1e398 .cfa: x29 96 +
STACK CFI INIT 1e3dc 50 .cfa: sp 0 +
STACK CFI 1e3e0 .cfa: sp 32 +
STACK CFI 1e3e8 .cfa: x29 32 + x19: .cfa -8 + ^ x20: .cfa -16 + ^ .ra: .cfa -24 + ^ x29: .cfa -32 + ^
STACK CFI INIT 1e490 178 .cfa: sp 0 +
STACK CFI 1e494 .cfa: sp 80 +
STACK CFI 1e4a8 .cfa: x29 80 + x19: .cfa -8 + ^ x20: .cfa -16 + ^ x21: .cfa -24 + ^ x22: .cfa -32 + ^ x23: .cfa -40 + ^ x24: .cfa -48 + ^ x25: .cfa -64 + ^ .ra: .cfa -72 + ^ x29: .cfa -80 + ^
STACK CFI 1e5d4 .cfa: sp 80 +
STACK CFI 1e5e8 .cfa: sp 0 +
STACK CFI 1e5ec .cfa: x29 80 +
STACK CFI INIT 1e8e8 288 .cfa: sp 0 +
STACK CFI 1e8ec .cfa: sp 96 +
STACK CFI 1e900 .cfa: x29 64 + x19: .cfa -8 + ^ x20: .cfa -16 + ^ x21: .cfa -24 + ^ x22: .cfa -32 + ^ x23: .cfa -40 + ^ x24: .cfa -48 + ^ .ra: .cfa -56 + ^ x29: .cfa -64 + ^
STACK CFI 1eb18 .cfa: sp 96 +
STACK CFI 1eb2c .cfa: sp 0 +
STACK CFI 1eb30 .cfa: x29 64 +
STACK CFI INIT 1ec24 120 .cfa: sp 0 +
STACK CFI 1ec28 .cfa: sp 80 +
STACK CFI 1ec38 .cfa: x29 48 + x19: .cfa -8 + ^ x20: .cfa -16 + ^ x21: .cfa -24 + ^ x22: .cfa -32 + ^ .ra: .cfa -40 + ^ x29: .cfa -48 + ^
STACK CFI 1ed28 .cfa: sp 80 +
STACK CFI 1ed38 .cfa: sp 0 +
STACK CFI 1ed3c .cfa: x29 48 +
STACK CFI INIT 1f080 fc .cfa: sp 0 +
STACK CFI 1f084 .cfa: sp 96 +
STACK CFI 1f094 .cfa: x29 48 + x19: .cfa -8 + ^ x20: .cfa -16 + ^ x21: .cfa -32 + ^ .ra: .cfa -40 + ^ x29: .cfa -48 + ^
STACK CFI 1f10c .cfa: sp 96 +
STACK CFI 1f11c .cfa: sp 0 +
STACK CFI 1f120 .cfa: x29 48 +
STACK CFI INIT 1f17c 134 .cfa: sp 0 +
STACK CFI 1f180 .cfa: sp 80 +
STACK CFI 1f18c .cfa: x29 32 + x19: .cfa -8 + ^ x20: .cfa -16 + ^ .ra: .cfa -24 + ^ x29: .cfa -32 + ^
STACK CFI 1f1bc .cfa: sp 80 +
STACK CFI 1f1c8 .cfa: sp 0 +
STACK CFI 1f1cc .cfa: x29 32 +
STACK CFI INIT 1f2b0 78 .cfa: sp 0 +
STACK CFI 1f2b4 .cfa: sp 32 +
STACK CFI 1f2bc .cfa: x29 32 + x19: .cfa -8 + ^ x20: .cfa -16 + ^ .ra: .cfa -24 + ^ x29: .cfa -32 + ^
STACK CFI 1f2c8 .cfa: sp 32 +
STACK CFI 1f2d0 .cfa: sp 0 +
STACK CFI 1f2d4 .cfa: x29 32 +
STACK CFI INIT 1f328 74 .cfa: sp 0 +
STACK CFI 1f32c .cfa: sp 48 +
STACK CFI 1f338 .cfa: x29 32 + x19: .cfa -8 + ^ x20: .cfa -16 + ^ .ra: .cfa -24 + ^ x29: .cfa -32 + ^
STACK CFI 1f384 .cfa: sp 48 +
STACK CFI 1f390 .cfa: sp 0 +
STACK CFI 1f394 .cfa: x29 32 +
STACK CFI INIT 1f400 174 .cfa: sp 0 +
STACK CFI 1f404 .cfa: sp 112 +
STACK CFI 1f414 .cfa: x29 48 + x19: .cfa -8 + ^ x20: .cfa -16 + ^ x21: .cfa -32 + ^ .ra: .cfa -40 + ^ x29: .cfa -48 + ^
STACK CFI 1f460 .cfa: sp 112 +
STACK CFI 1f470 .cfa: sp 0 +
STACK CFI 1f474 .cfa: x29 48 +
STACK CFI INIT 1f610 528 .cfa: sp 0 +
STACK CFI 1f614 .cfa: sp 112 +
STACK CFI 1f624 .cfa: x29 48 + x19: .cfa -8 + ^ x20: .cfa -16 + ^ x21: .cfa -32 + ^ .ra: .cfa -40 + ^ x29: .cfa -48 + ^
STACK CFI 1f78c .cfa: sp 112 +
STACK CFI 1f79c .cfa: sp 0 +
STACK CFI 1f7a0 .cfa: x29 48 +
STACK CFI INIT 1fb38 24c .cfa: sp 0 +
STACK CFI 1fb3c .cfa: sp 128 +
STACK CFI 1fb50 .cfa: x29 64 + x19: .cfa -8 + ^ x20: .cfa -16 + ^ x21: .cfa -24 + ^ x22: .cfa -32 + ^ x23: .cfa -48 + ^ .ra: .cfa -56 + ^ x29: .cfa -64 + ^
STACK CFI 1fc20 .cfa: sp 128 +
STACK CFI 1fc34 .cfa: sp 0 +
STACK CFI 1fc38 .cfa: x29 64 +
STACK CFI INIT 1fe80 244 .cfa: sp 0 +
STACK CFI 1fe84 .cfa: sp 128 +
STACK CFI 1fe98 .cfa: x29 64 + x19: .cfa -8 + ^ x20: .cfa -16 + ^ x21: .cfa -24 + ^ x22: .cfa -32 + ^ x23: .cfa -48 + ^ .ra: .cfa -56 + ^ x29: .cfa -64 + ^
STACK CFI 1ff60 .cfa: sp 128 +
STACK CFI 1ff74 .cfa: sp 0 +
STACK CFI 1ff78 .cfa: x29 64 +
STACK CFI INIT 200c4 254 .cfa: sp 0 +
STACK CFI 200c8 .cfa: sp 128 +
STACK CFI 200dc .cfa: x29 64 + x19: .cfa -8 + ^ x20: .cfa -16 + ^ x21: .cfa -24 + ^ x22: .cfa -32 + ^ x23: .cfa -48 + ^ .ra: .cfa -56 + ^ x29: .cfa -64 + ^
STACK CFI 201b4 .cfa: sp 128 +
STACK CFI 201c8 .cfa: sp 0 +
STACK CFI 201cc .cfa: x29 64 +
STACK CFI INIT 20318 2b4 .cfa: sp 0 +
STACK CFI 2031c .cfa: sp 128 +
STACK CFI 20330 .cfa: x29 64 + x19: .cfa -8 + ^ x20: .cfa -16 + ^ x21: .cfa -24 + ^ x22: .cfa -32 + ^ x23: .cfa -40 + ^ x24: .cfa -48 + ^ .ra: .cfa -56 + ^ x29: .cfa -64 + ^
STACK CFI 20468 .cfa: sp 128 +
STACK CFI 2047c .cfa: sp 0 +
STACK CFI 20480 .cfa: x29 64 +
STACK CFI INIT 205cc 224 .cfa: sp 0 +
STACK CFI 205d0 .cfa: sp 128 +
STACK CFI 205e4 .cfa: x29 64 + x19: .cfa -8 + ^ x20: .cfa -16 + ^ x21: .cfa -24 + ^ x22: .cfa -32 + ^ x23: .cfa -48 + ^ .ra: .cfa -56 + ^ x29: .cfa -64 + ^
STACK CFI 2068c .cfa: sp 128 +
STACK CFI 206a0 .cfa: sp 0 +
STACK CFI 206a4 .cfa: x29 64 +
STACK CFI INIT 207f0 224 .cfa: sp 0 +
STACK CFI 207f4 .cfa: sp 128 +
STACK CFI 20808 .cfa: x29 64 + x19: .cfa -8 + ^ x20: .cfa -16 + ^ x21: .cfa -24 + ^ x22: .cfa -32 + ^ x23: .cfa -48 + ^ .ra: .cfa -56 + ^ x29: .cfa -64 + ^
STACK CFI 208b0 .cfa: sp 128 +
STACK CFI 208c4 .cfa: sp 0 +
STACK CFI 208c8 .cfa: x29 64 +
STACK CFI INIT 20a14 154 .cfa: sp 0 +
STACK CFI 20a18 .cfa: sp 384 +
STACK CFI 20a2c .cfa: x29 64 + x19: .cfa -8 + ^ x20: .cfa -16 + ^ x21: .cfa -24 + ^ x22: .cfa -32 + ^ x23: .cfa -40 + ^ x28: .cfa -48 + ^ .ra: .cfa -56 + ^ x29: .cfa -64 + ^
STACK CFI 20b10 .cfa: sp 384 +
STACK CFI 20b24 .cfa: sp 0 +
STACK CFI 20b28 .cfa: x29 64 +
STACK CFI INIT 20b68 168 .cfa: sp 0 +
STACK CFI 20b6c .cfa: sp 384 +
STACK CFI 20b80 .cfa: x29 64 + x19: .cfa -8 + ^ x20: .cfa -16 + ^ x21: .cfa -24 + ^ x22: .cfa -32 + ^ x23: .cfa -40 + ^ x28: .cfa -48 + ^ .ra: .cfa -56 + ^ x29: .cfa -64 + ^
STACK CFI 20c78 .cfa: sp 384 +
STACK CFI 20c8c .cfa: sp 0 +
STACK CFI 20c90 .cfa: x29 64 +
STACK CFI INIT 20ce8 4e0 .cfa: sp 0 +
STACK CFI 20cec .cfa: sp 64 +
STACK CFI 20cfc .cfa: x29 64 + x19: .cfa -8 + ^ x20: .cfa -16 + ^ x21: .cfa -24 + ^ x22: .cfa -32 + ^ x23: .cfa -40 + ^ x24: .cfa -48 + ^ .ra: .cfa -56 + ^ x29: .cfa -64 + ^
STACK CFI 2119c .cfa: sp 64 +
STACK CFI 211ac .cfa: sp 0 +
STACK CFI 211b0 .cfa: x29 64 +
