MODULE Linux arm64 A638D1AA087439658171387E03F38A620 jojo989.geometwy_dash.android64.so
INFO CODE_ID AAD138A6740865398171387E03F38A620A303070
INFO GENERATOR mozilla/dump_syms 2.3.4
PUBLIC 8af0 0 __on_dlclose
PUBLIC 8b00 0 __emutls_unregister_key
PUBLIC 8b08 0 __on_dlclose_late
PUBLIC 8b10 0 __atexit_handler_wrapper
PUBLIC 8b24 0 atexit
PUBLIC 8b40 0 pthread_atfork
PUBLIC 8b50 0 __aarch64_ldadd8_relax
PUBLIC 8b80 0 init_have_lse_atomics
PUBLIC 8c18 0 __init_cpu_features_constructor
PUBLIC 91b4 0 __init_cpu_features
PUBLIC 9240 0 __aarch64_ldadd8_acq_rel
PUBLIC 9270 0 __cxx_global_var_init
PUBLIC 9c58 0 geode::modifier::ModifyBase<geode::modifier::ModifyDerive<hook8<(anonymous namespace)::hook8Parent>, cocos2d::CCLabelBMFont> >::~ModifyBase()
PUBLIC 9c70 0 geode::modifier::ModifyDerive<hook8<(anonymous namespace)::hook8Parent>, cocos2d::CCLabelBMFont>::apply()
PUBLIC a29c 0 std::__ndk1::shared_ptr<geode::Hook>::~shared_ptr[abi:ne180000]()
PUBLIC a2ec 0 geode::impl::ResultData<geode::Hook*, std::__ndk1::basic_string<char, std::__ndk1::char_traits<char>, std::__ndk1::allocator<char> > >::~ResultData()
PUBLIC a360 0 std::__ndk1::vector<std::__ndk1::basic_string<char, std::__ndk1::char_traits<char>, std::__ndk1::allocator<char> >, std::__ndk1::allocator<std::__ndk1::basic_string<char, std::__ndk1::char_traits<char>, std::__ndk1::allocator<char> > > >::~vector[abi:ne180000]()
PUBLIC a3dc 0 geode::modifier::ModifyBase<geode::modifier::ModifyDerive<hook8<(anonymous namespace)::hook8Parent>, cocos2d::CCLabelBMFont> >::apply()
PUBLIC a3e0 0 __clang_call_terminate
PUBLIC a3f0 0 _ZN5geode15UnwrapExceptionC2IRPNS_4HookEQsr4implE18IsStringStreamableIT_EEENS_4impl5OkTagEOS5_
PUBLIC aaec 0 std::__ndk1::__throw_bad_variant_access[abi:ne180000]()
PUBLIC m ab20 0 std::__ndk1::basic_stringstream<char, std::__ndk1::char_traits<char>, std::__ndk1::allocator<char> >::~basic_stringstream()
PUBLIC aba0 0 geode::UnwrapException::~UnwrapException()
PUBLIC abc4 0 std::__ndk1::basic_string<char, std::__ndk1::char_traits<char>, std::__ndk1::allocator<char> >::__throw_length_error[abi:ne180000]() const
PUBLIC abd8 0 std::__ndk1::__throw_length_error[abi:ne180000](char const*)
PUBLIC ac28 0 std::length_error::length_error[abi:ne180000](char const*)
PUBLIC ac58 0 std::__throw_bad_array_new_length([abi:ne180000], void)
PUBLIC ac8c 0 std::__ndk1::vector<std::__ndk1::basic_string<char, std::__ndk1::char_traits<char>, std::__ndk1::allocator<char> >, std::__ndk1::allocator<std::__ndk1::basic_string<char, std::__ndk1::char_traits<char>, std::__ndk1::allocator<char> > > >::__push_back_slow_path<std::__ndk1::basic_string<char, std::__ndk1::char_traits<char>, std::__ndk1::allocator<char> > const&>(std::__ndk1::basic_string<char, std::__ndk1::char_traits<char>, std::__ndk1::allocator<char> > const&)
PUBLIC aeb0 0 std::__ndk1::basic_string<char, std::__ndk1::char_traits<char>, std::__ndk1::allocator<char> >::__init_copy_ctor_external(char const*, unsigned long)
PUBLIC af2c 0 std::__ndk1::__split_buffer<std::__ndk1::basic_string<char, std::__ndk1::char_traits<char>, std::__ndk1::allocator<char> >, std::__ndk1::allocator<std::__ndk1::basic_string<char, std::__ndk1::char_traits<char>, std::__ndk1::allocator<char> > >&>::~__split_buffer()
PUBLIC af94 0 std::__ndk1::vector<std::__ndk1::basic_string<char, std::__ndk1::char_traits<char>, std::__ndk1::allocator<char> >, std::__ndk1::allocator<std::__ndk1::basic_string<char, std::__ndk1::char_traits<char>, std::__ndk1::allocator<char> > > >::__throw_length_error[abi:ne180000]() const
PUBLIC afa8 0 std::__ndk1::__variant_detail::__visitation::__base::__dispatcher<(unsigned long)0>::__dispatch[abi:ne180000]<std::__ndk1::__variant_detail::__dtor<std::__ndk1::__variant_detail::__traits<geode::Hook*, std::__ndk1::basic_string<char, std::__ndk1::char_traits<char>, std::__ndk1::allocator<char> > >, (std::__ndk1::__variant_detail::_Trait)1>::__destroy[abi:ne180000]()::{lambda(auto:1&)#1}, std::__ndk1::__variant_detail::__base<(std::__ndk1::__variant_detail::__traits<geode::Hook*, std::__ndk1::basic_string<char, std::__ndk1::char_traits<char>, std::__ndk1::allocator<char> > >)1, geode::Hook, std::__ndk1::allocator<char> >&>(std::__ndk1::__variant_detail::__dtor<std::__ndk1::__variant_detail::__traits<geode::Hook*, std::__ndk1::basic_string<char, std::__ndk1::char_traits<char>, std::__ndk1::allocator<char> > >, (std::__ndk1::__variant_detail::_Trait)1>, std::__ndk1::__variant_detail::__base<(std::__ndk1::__variant_detail::__traits<geode::Hook*, std::__ndk1::basic_string<char, std::__ndk1::char_traits<char>, std::__ndk1::allocator<char> > >)1, geode::Hook, std::__ndk1::allocator<char> >&)
PUBLIC afac 0 std::__ndk1::__variant_detail::__visitation::__base::__dispatcher<(unsigned long)1>::__dispatch[abi:ne180000]<std::__ndk1::__variant_detail::__dtor<std::__ndk1::__variant_detail::__traits<geode::Hook*, std::__ndk1::basic_string<char, std::__ndk1::char_traits<char>, std::__ndk1::allocator<char> > >, (std::__ndk1::__variant_detail::_Trait)1>::__destroy[abi:ne180000]()::{lambda(auto:1&)#1}, std::__ndk1::__variant_detail::__base<(std::__ndk1::__variant_detail::__traits<geode::Hook*, std::__ndk1::basic_string<char, std::__ndk1::char_traits<char>, std::__ndk1::allocator<char> > >)1, geode::Hook, std::__ndk1::allocator<char> >&>(std::__ndk1::__variant_detail::__dtor<std::__ndk1::__variant_detail::__traits<geode::Hook*, std::__ndk1::basic_string<char, std::__ndk1::char_traits<char>, std::__ndk1::allocator<char> > >, (std::__ndk1::__variant_detail::_Trait)1>, std::__ndk1::__variant_detail::__base<(std::__ndk1::__variant_detail::__traits<geode::Hook*, std::__ndk1::basic_string<char, std::__ndk1::char_traits<char>, std::__ndk1::allocator<char> > >)1, geode::Hook, std::__ndk1::allocator<char> >&)
PUBLIC afc0 0 std::__ndk1::__tree<std::__ndk1::__value_type<std::__ndk1::basic_string<char, std::__ndk1::char_traits<char>, std::__ndk1::allocator<char> >, std::__ndk1::shared_ptr<geode::Hook> >, std::__ndk1::__map_value_compare<std::__ndk1::basic_string<char, std::__ndk1::char_traits<char>, std::__ndk1::allocator<char> >, std::__ndk1::__value_type<std::__ndk1::basic_string<char, std::__ndk1::char_traits<char>, std::__ndk1::allocator<char> >, std::__ndk1::shared_ptr<geode::Hook> >, std::__ndk1::less<std::__ndk1::basic_string<char, std::__ndk1::char_traits<char>, std::__ndk1::allocator<char> > >, true>, std::__ndk1::allocator<std::__ndk1::__value_type<std::__ndk1::basic_string<char, std::__ndk1::char_traits<char>, std::__ndk1::allocator<char> >, std::__ndk1::shared_ptr<geode::Hook> > > >::destroy(std::__ndk1::__tree_node<std::__ndk1::__value_type<std::__ndk1::basic_string<char, std::__ndk1::char_traits<char>, std::__ndk1::allocator<char> >, std::__ndk1::shared_ptr<geode::Hook> >, void*>*)
PUBLIC b044 0 geode::modifier::AsStaticFunction_create<hook8<(anonymous namespace)::hook8Parent>, cocos2d::CCLabelBMFont* (*)(char const*, char const*)>::Impl<cocos2d::CCLabelBMFont* (*)(char const*, char const*)>::function(char const*, char const*)
PUBLIC cc5c 0 std::__ndk1::shared_ptr<tulip::hook::CallingConvention>::~shared_ptr[abi:ne180000]()
PUBLIC ccac 0 tulip::hook::HandlerMetadata::~HandlerMetadata()
PUBLIC cd10 0 std::__ndk1::basic_regex<char, std::__ndk1::regex_traits<char> >::basic_regex[abi:ne180000](char const*, std::__ndk1::regex_constants::syntax_option_type)
PUBLIC cdd0 0 _ZNSt6__ndk14pairINS_11basic_regexIcNS_12regex_traitsIcEEEENS_12basic_stringIcNS_11char_traitsIcEENS_9allocatorIcEEEEEC2B8ne180000IS4_RA2_KcTnNS_9enable_ifIXclsr10_CheckArgsE17__enable_implicitIT_T0_EEEiE4typeELi0EEEOSH_OSI_
PUBLIC cebc 0 _ZNSt6__ndk14pairINS_11basic_regexIcNS_12regex_traitsIcEEEENS_12basic_stringIcNS_11char_traitsIcEENS_9allocatorIcEEEEEC2B8ne180000IS4_RA5_KcTnNS_9enable_ifIXclsr10_CheckArgsE17__enable_implicitIT_T0_EEEiE4typeELi0EEEOSH_OSI_
PUBLIC cfa8 0 std::__ndk1::pair<std::__ndk1::basic_regex<char, std::__ndk1::regex_traits<char> >, std::__ndk1::basic_string<char, std::__ndk1::char_traits<char>, std::__ndk1::allocator<char> > >::~pair()
PUBLIC d018 0 std::__ndk1::basic_regex<char, std::__ndk1::regex_traits<char> >::~basic_regex()
PUBLIC d078 0 std::__ndk1::vector<std::__ndk1::pair<std::__ndk1::basic_regex<char, std::__ndk1::regex_traits<char> >, std::__ndk1::basic_string<char, std::__ndk1::char_traits<char>, std::__ndk1::allocator<char> > >, std::__ndk1::allocator<std::__ndk1::pair<std::__ndk1::basic_regex<char, std::__ndk1::regex_traits<char> >, std::__ndk1::basic_string<char, std::__ndk1::char_traits<char>, std::__ndk1::allocator<char> > > > >::~vector[abi:ne180000]()
PUBLIC d138 0 std::__ndk1::shared_ptr<std::__ndk1::__empty_state<char> >::~shared_ptr[abi:ne180000]()
PUBLIC d188 0 std::__ndk1::basic_regex<char, std::__ndk1::regex_traits<char> >::__parse<char const*>(char const*, char const*)
PUBLIC d84c 0 std::__ndk1::__throw_regex_error[abi:ne180000]<(std::__ndk1::regex_constants::error_type)17>()
PUBLIC d898 0 std::__ndk1::basic_regex<char, std::__ndk1::regex_traits<char> >::__parse_ecma_exp<char const*>(char const*, char const*)
PUBLIC db04 0 std::__ndk1::basic_regex<char, std::__ndk1::regex_traits<char> >::__parse_basic_reg_exp<char const*>(char const*, char const*)
PUBLIC dcac 0 std::__ndk1::basic_regex<char, std::__ndk1::regex_traits<char> >::__parse_extended_reg_exp<char const*>(char const*, char const*)
PUBLIC de1c 0 std::__ndk1::__throw_regex_error[abi:ne180000]<(std::__ndk1::regex_constants::error_type)14>()
PUBLIC de68 0 std::__ndk1::__end_state<char>::~__end_state()
PUBLIC de6c 0 std::__ndk1::__end_state<char>::__exec(std::__ndk1::__state<char>&) const
PUBLIC de78 0 std::__ndk1::__node<char>::__exec_split(bool, std::__ndk1::__state<char>&) const
PUBLIC de7c 0 std::__ndk1::__node<char>::__exec(std::__ndk1::__state<char>&) const
PUBLIC de80 0 std::__ndk1::__shared_ptr_pointer<std::__ndk1::__empty_state<char>*, std::__ndk1::shared_ptr<std::__ndk1::__empty_state<char> >::__shared_ptr_default_delete<std::__ndk1::__empty_state<char>, std::__ndk1::__empty_state<char> >, std::__ndk1::allocator<std::__ndk1::__empty_state<char> > >::~__shared_ptr_pointer()
PUBLIC dea4 0 std::__ndk1::__shared_ptr_pointer<std::__ndk1::__empty_state<char>*, std::__ndk1::shared_ptr<std::__ndk1::__empty_state<char> >::__shared_ptr_default_delete<std::__ndk1::__empty_state<char>, std::__ndk1::__empty_state<char> >, std::__ndk1::allocator<std::__ndk1::__empty_state<char> > >::__on_zero_shared()
PUBLIC debc 0 std::__ndk1::__shared_ptr_pointer<std::__ndk1::__empty_state<char>*, std::__ndk1::shared_ptr<std::__ndk1::__empty_state<char> >::__shared_ptr_default_delete<std::__ndk1::__empty_state<char>, std::__ndk1::__empty_state<char> >, std::__ndk1::allocator<std::__ndk1::__empty_state<char> > >::__get_deleter(std::type_info const&) const
PUBLIC ded8 0 std::__ndk1::__shared_ptr_pointer<std::__ndk1::__empty_state<char>*, std::__ndk1::shared_ptr<std::__ndk1::__empty_state<char> >::__shared_ptr_default_delete<std::__ndk1::__empty_state<char>, std::__ndk1::__empty_state<char> >, std::__ndk1::allocator<std::__ndk1::__empty_state<char> > >::__on_zero_shared_weak()
PUBLIC dedc 0 std::__ndk1::__empty_state<char>::~__empty_state()
PUBLIC df24 0 std::__ndk1::__empty_state<char>::__exec(std::__ndk1::__state<char>&) const
PUBLIC df38 0 std::__ndk1::__owns_one_state<char>::~__owns_one_state()
PUBLIC df80 0 std::__ndk1::basic_regex<char, std::__ndk1::regex_traits<char> >::__parse_assertion<char const*>(char const*, char const*)
PUBLIC e2e4 0 std::__ndk1::basic_regex<char, std::__ndk1::regex_traits<char> >::__parse_atom<char const*>(char const*, char const*)
PUBLIC e928 0 std::__ndk1::basic_regex<char, std::__ndk1::regex_traits<char> >::__parse_ERE_dupl_symbol<char const*>(char const*, char const*, std::__ndk1::__owns_one_state<char>*, unsigned int, unsigned int)
PUBLIC ed1c 0 std::__ndk1::basic_regex<char, std::__ndk1::regex_traits<char> >::basic_regex[abi:ne180000]()
PUBLIC ed88 0 std::__ndk1::basic_regex<char, std::__ndk1::regex_traits<char> >::__push_lookahead(std::__ndk1::basic_regex<char, std::__ndk1::regex_traits<char> > const&, bool, unsigned int)
PUBLIC ee3c 0 std::__ndk1::__throw_regex_error[abi:ne180000]<(std::__ndk1::regex_constants::error_type)6>()
PUBLIC ee88 0 std::__ndk1::__l_anchor_multiline<char>::~__l_anchor_multiline()
PUBLIC eed0 0 std::__ndk1::__l_anchor_multiline<char>::__exec(std::__ndk1::__state<char>&) const
PUBLIC ef34 0 std::__ndk1::__r_anchor_multiline<char>::~__r_anchor_multiline()
PUBLIC ef7c 0 std::__ndk1::__r_anchor_multiline<char>::__exec(std::__ndk1::__state<char>&) const
PUBLIC efd0 0 std::__ndk1::__word_boundary<char, std::__ndk1::regex_traits<char> >::~__word_boundary()
PUBLIC f02c 0 std::__ndk1::__word_boundary<char, std::__ndk1::regex_traits<char> >::~__word_boundary()
PUBLIC f084 0 std::__ndk1::__word_boundary<char, std::__ndk1::regex_traits<char> >::__exec(std::__ndk1::__state<char>&) const
PUBLIC f194 0 std::__ndk1::__lookahead<char, std::__ndk1::regex_traits<char> >::~__lookahead()
PUBLIC f224 0 std::__ndk1::__lookahead<char, std::__ndk1::regex_traits<char> >::~__lookahead()
PUBLIC f2b0 0 std::__ndk1::__lookahead<char, std::__ndk1::regex_traits<char> >::__exec(std::__ndk1::__state<char>&) const
PUBLIC f484 0 std::__ndk1::basic_regex<char, std::__ndk1::regex_traits<char> >::__match_at_start_ecma<std::__ndk1::allocator<std::__ndk1::sub_match<char const*> > >(char const*, char const*, std::__ndk1::match_results<char const*, std::__ndk1::allocator<std::__ndk1::sub_match<char const*> > >&, std::__ndk1::regex_constants::match_flag_type, bool) const
PUBLIC f8d0 0 std::__ndk1::vector<std::__ndk1::sub_match<char const*>, std::__ndk1::allocator<std::__ndk1::sub_match<char const*> > >::assign(unsigned long, std::__ndk1::sub_match<char const*> const&)
PUBLIC faa0 0 std::__ndk1::vector<std::__ndk1::sub_match<char const*>, std::__ndk1::allocator<std::__ndk1::sub_match<char const*> > >::__throw_length_error[abi:ne180000]() const
PUBLIC fab4 0 std::__ndk1::__state<char>::~__state()
PUBLIC faf8 0 std::__ndk1::__throw_regex_error[abi:ne180000]<(std::__ndk1::regex_constants::error_type)12>()
PUBLIC fb44 0 std::__ndk1::__state<char>::__state(std::__ndk1::__state<char> const&)
PUBLIC fcb4 0 std::__ndk1::__throw_regex_error[abi:ne180000]<(std::__ndk1::regex_constants::error_type)16>()
PUBLIC fd00 0 std::__ndk1::vector<std::__ndk1::__state<char>, std::__ndk1::allocator<std::__ndk1::__state<char> > >::~vector[abi:ne180000]()
PUBLIC fd98 0 std::__ndk1::vector<std::__ndk1::__state<char>, std::__ndk1::allocator<std::__ndk1::__state<char> > >::__push_back_slow_path<std::__ndk1::__state<char> >(std::__ndk1::__state<char>&&)
PUBLIC ff74 0 std::__ndk1::vector<std::__ndk1::__state<char>, std::__ndk1::allocator<std::__ndk1::__state<char> > >::__throw_length_error[abi:ne180000]() const
PUBLIC ff88 0 std::__ndk1::vector<std::__ndk1::sub_match<char const*>, std::__ndk1::allocator<std::__ndk1::sub_match<char const*> > >::__append(unsigned long, std::__ndk1::sub_match<char const*> const&)
PUBLIC 10130 0 std::__ndk1::vector<std::__ndk1::pair<unsigned long, char const*>, std::__ndk1::allocator<std::__ndk1::pair<unsigned long, char const*> > >::__append(unsigned long)
PUBLIC 1025c 0 std::__ndk1::vector<std::__ndk1::pair<unsigned long, char const*>, std::__ndk1::allocator<std::__ndk1::pair<unsigned long, char const*> > >::__throw_length_error[abi:ne180000]() const
PUBLIC 10270 0 std::__ndk1::basic_regex<char, std::__ndk1::regex_traits<char> >::__parse_bracket_expression<char const*>(char const*, char const*)
PUBLIC 1135c 0 std::__ndk1::__throw_regex_error[abi:ne180000]<(std::__ndk1::regex_constants::error_type)11>()
PUBLIC 113a8 0 std::__ndk1::__match_any_but_newline<char>::~__match_any_but_newline()
PUBLIC 113f0 0 std::__ndk1::__throw_regex_error[abi:ne180000]<(std::__ndk1::regex_constants::error_type)3>()
PUBLIC 1143c 0 std::__ndk1::basic_regex<char, std::__ndk1::regex_traits<char> >::__parse_character_escape<char const*>(char const*, char const*, std::__ndk1::basic_string<char, std::__ndk1::char_traits<char>, std::__ndk1::allocator<char> >*)
PUBLIC 11948 0 std::__ndk1::basic_regex<char, std::__ndk1::regex_traits<char> >::__push_char(char)
PUBLIC 11a88 0 std::__ndk1::__throw_regex_error[abi:ne180000]<(std::__ndk1::regex_constants::error_type)4>()
PUBLIC 11ad4 0 std::__ndk1::basic_regex<char, std::__ndk1::regex_traits<char> >::__push_back_ref(int)
PUBLIC 11b9c 0 std::__ndk1::__match_char_icase<char, std::__ndk1::regex_traits<char> >::~__match_char_icase()
PUBLIC 11bf8 0 std::__ndk1::__match_char_icase<char, std::__ndk1::regex_traits<char> >::~__match_char_icase()
PUBLIC 11c50 0 std::__ndk1::__match_char_icase<char, std::__ndk1::regex_traits<char> >::__exec(std::__ndk1::__state<char>&) const
PUBLIC 11cd0 0 std::__ndk1::__match_char_collate<char, std::__ndk1::regex_traits<char> >::~__match_char_collate()
PUBLIC 11d2c 0 std::__ndk1::__match_char_collate<char, std::__ndk1::regex_traits<char> >::~__match_char_collate()
PUBLIC 11d84 0 std::__ndk1::__match_char_collate<char, std::__ndk1::regex_traits<char> >::__exec(std::__ndk1::__state<char>&) const
PUBLIC 11dcc 0 std::__ndk1::__match_char<char>::~__match_char()
PUBLIC 11e14 0 std::__ndk1::__match_char<char>::__exec(std::__ndk1::__state<char>&) const
PUBLIC 11e5c 0 std::__ndk1::__back_ref_icase<char, std::__ndk1::regex_traits<char> >::~__back_ref_icase()
PUBLIC 11eb8 0 std::__ndk1::__back_ref_icase<char, std::__ndk1::regex_traits<char> >::~__back_ref_icase()
PUBLIC 11f10 0 std::__ndk1::__back_ref_icase<char, std::__ndk1::regex_traits<char> >::__exec(std::__ndk1::__state<char>&) const
PUBLIC 12008 0 std::__ndk1::__back_ref_collate<char, std::__ndk1::regex_traits<char> >::~__back_ref_collate()
PUBLIC 12064 0 std::__ndk1::__back_ref_collate<char, std::__ndk1::regex_traits<char> >::~__back_ref_collate()
PUBLIC 120bc 0 std::__ndk1::__back_ref_collate<char, std::__ndk1::regex_traits<char> >::__exec(std::__ndk1::__state<char>&) const
PUBLIC 1214c 0 std::__ndk1::__back_ref<char>::~__back_ref()
PUBLIC 12194 0 std::__ndk1::__back_ref<char>::__exec(std::__ndk1::__state<char>&) const
PUBLIC 12264 0 std::__ndk1::__bracket_expression<char, std::__ndk1::regex_traits<char> >::__add_char[abi:ne180000](char)
PUBLIC 12714 0 std::__ndk1::__bracket_expression<char, std::__ndk1::regex_traits<char> >::__bracket_expression[abi:ne180000](std::__ndk1::regex_traits<char> const&, std::__ndk1::__node<char>*, bool, bool, bool)
PUBLIC 128f0 0 std::__ndk1::vector<std::__ndk1::pair<std::__ndk1::basic_string<char, std::__ndk1::char_traits<char>, std::__ndk1::allocator<char> >, std::__ndk1::basic_string<char, std::__ndk1::char_traits<char>, std::__ndk1::allocator<char> > >, std::__ndk1::allocator<std::__ndk1::pair<std::__ndk1::basic_string<char, std::__ndk1::char_traits<char>, std::__ndk1::allocator<char> >, std::__ndk1::basic_string<char, std::__ndk1::char_traits<char>, std::__ndk1::allocator<char> > > > >::~vector[abi:ne180000]()
PUBLIC 12994 0 std::__ndk1::__bracket_expression<char, std::__ndk1::regex_traits<char> >::~__bracket_expression()
PUBLIC 12ae0 0 std::__ndk1::__bracket_expression<char, std::__ndk1::regex_traits<char> >::~__bracket_expression()
PUBLIC 12b04 0 std::__ndk1::__bracket_expression<char, std::__ndk1::regex_traits<char> >::__exec(std::__ndk1::__state<char>&) const
PUBLIC 13770 0 std::__ndk1::pair<std::__ndk1::basic_string<char, std::__ndk1::char_traits<char>, std::__ndk1::allocator<char> >, std::__ndk1::basic_string<char, std::__ndk1::char_traits<char>, std::__ndk1::allocator<char> > >::~pair()
PUBLIC 137b4 0 std::__ndk1::basic_string<char, std::__ndk1::char_traits<char>, std::__ndk1::allocator<char> >::__assign_no_alias<true>(char const*, unsigned long)
PUBLIC 1385c 0 std::__ndk1::basic_string<char, std::__ndk1::char_traits<char>, std::__ndk1::allocator<char> >::__assign_no_alias<false>(char const*, unsigned long)
PUBLIC 13968 0 std::__ndk1::regex_traits<char>::__transform_primary<char*>(char*, char*, char) const
PUBLIC 13b28 0 std::__ndk1::vector<char, std::__ndk1::allocator<char> >::__throw_length_error[abi:ne180000]() const
PUBLIC 13b3c 0 std::__ndk1::__throw_regex_error[abi:ne180000]<(std::__ndk1::regex_constants::error_type)5>()
PUBLIC 13b88 0 std::__ndk1::basic_regex<char, std::__ndk1::regex_traits<char> >::__parse_class_escape<char const*>(char const*, char const*, std::__ndk1::basic_string<char, std::__ndk1::char_traits<char>, std::__ndk1::allocator<char> >&, std::__ndk1::__bracket_expression<char, std::__ndk1::regex_traits<char> >*)
PUBLIC 14150 0 std::__ndk1::basic_regex<char, std::__ndk1::regex_traits<char> >::__parse_awk_escape<char const*>(char const*, char const*, std::__ndk1::basic_string<char, std::__ndk1::char_traits<char>, std::__ndk1::allocator<char> >*)
PUBLIC 14614 0 std::__ndk1::__bracket_expression<char, std::__ndk1::regex_traits<char> >::__add_digraph[abi:ne180000](char, char)
PUBLIC 14a34 0 std::__ndk1::__throw_regex_error[abi:ne180000]<(std::__ndk1::regex_constants::error_type)1>()
PUBLIC 14a80 0 std::__ndk1::regex_traits<char>::__lookup_collatename<char const*>(char const*, char const*, char) const
PUBLIC 14d30 0 std::__ndk1::__throw_regex_error[abi:ne180000]<(std::__ndk1::regex_constants::error_type)2>()
PUBLIC 14d7c 0 std::__ndk1::regex_traits<char>::transform<std::__ndk1::__wrap_iter<char*> >(std::__ndk1::__wrap_iter<char*>, std::__ndk1::__wrap_iter<char*>) const
PUBLIC 14f2c 0 std::__ndk1::__throw_regex_error[abi:ne180000]<(std::__ndk1::regex_constants::error_type)9>()
PUBLIC 14f78 0 std::__ndk1::vector<std::__ndk1::pair<std::__ndk1::basic_string<char, std::__ndk1::char_traits<char>, std::__ndk1::allocator<char> >, std::__ndk1::basic_string<char, std::__ndk1::char_traits<char>, std::__ndk1::allocator<char> > >, std::__ndk1::allocator<std::__ndk1::pair<std::__ndk1::basic_string<char, std::__ndk1::char_traits<char>, std::__ndk1::allocator<char> >, std::__ndk1::basic_string<char, std::__ndk1::char_traits<char>, std::__ndk1::allocator<char> > > > >::__push_back_slow_path<std::__ndk1::pair<std::__ndk1::basic_string<char, std::__ndk1::char_traits<char>, std::__ndk1::allocator<char> >, std::__ndk1::basic_string<char, std::__ndk1::char_traits<char>, std::__ndk1::allocator<char> > > >(std::__ndk1::pair<std::__ndk1::basic_string<char, std::__ndk1::char_traits<char>, std::__ndk1::allocator<char> >, std::__ndk1::basic_string<char, std::__ndk1::char_traits<char>, std::__ndk1::allocator<char> > >&&)
PUBLIC 15120 0 std::__ndk1::vector<std::__ndk1::pair<std::__ndk1::basic_string<char, std::__ndk1::char_traits<char>, std::__ndk1::allocator<char> >, std::__ndk1::basic_string<char, std::__ndk1::char_traits<char>, std::__ndk1::allocator<char> > >, std::__ndk1::allocator<std::__ndk1::pair<std::__ndk1::basic_string<char, std::__ndk1::char_traits<char>, std::__ndk1::allocator<char> >, std::__ndk1::basic_string<char, std::__ndk1::char_traits<char>, std::__ndk1::allocator<char> > > > >::__throw_length_error[abi:ne180000]() const
PUBLIC 15134 0 std::__ndk1::vector<std::__ndk1::pair<char, char>, std::__ndk1::allocator<std::__ndk1::pair<char, char> > >::__throw_length_error[abi:ne180000]() const
PUBLIC 15148 0 std::__ndk1::__begin_marked_subexpression<char>::~__begin_marked_subexpression()
PUBLIC 15190 0 std::__ndk1::__begin_marked_subexpression<char>::__exec(std::__ndk1::__state<char>&) const
PUBLIC 151c0 0 std::__ndk1::__end_marked_subexpression<char>::~__end_marked_subexpression()
PUBLIC 15208 0 std::__ndk1::__end_marked_subexpression<char>::__exec(std::__ndk1::__state<char>&) const
PUBLIC 15240 0 std::__ndk1::basic_regex<char, std::__ndk1::regex_traits<char> >::__push_loop(unsigned long, unsigned long, std::__ndk1::__owns_one_state<char>*, unsigned long, unsigned long, bool)
PUBLIC 15380 0 std::__ndk1::__throw_regex_error[abi:ne180000]<(std::__ndk1::regex_constants::error_type)8>()
PUBLIC 153cc 0 std::__ndk1::__throw_regex_error[abi:ne180000]<(std::__ndk1::regex_constants::error_type)7>()
PUBLIC 15418 0 std::__ndk1::__loop<char>::~__loop()
PUBLIC 15480 0 std::__ndk1::__loop<char>::__exec(std::__ndk1::__state<char>&) const
PUBLIC 15644 0 std::__ndk1::__loop<char>::__exec_split(bool, std::__ndk1::__state<char>&) const
PUBLIC 15708 0 std::__ndk1::__owns_two_states<char>::~__owns_two_states()
PUBLIC 15770 0 std::__ndk1::__repeat_one_loop<char>::~__repeat_one_loop()
PUBLIC 15774 0 std::__ndk1::__repeat_one_loop<char>::__exec(std::__ndk1::__state<char>&) const
PUBLIC 15788 0 std::__ndk1::__owns_two_states<char>::~__owns_two_states()
PUBLIC 157f4 0 std::__ndk1::__alternate<char>::~__alternate()
PUBLIC 1585c 0 std::__ndk1::__alternate<char>::__exec(std::__ndk1::__state<char>&) const
PUBLIC 15868 0 std::__ndk1::__alternate<char>::__exec_split(bool, std::__ndk1::__state<char>&) const
PUBLIC 1588c 0 std::__ndk1::__node<char>::~__node()
PUBLIC 15890 0 std::__ndk1::__empty_non_own_state<char>::~__empty_non_own_state()
PUBLIC 15894 0 std::__ndk1::__empty_non_own_state<char>::__exec(std::__ndk1::__state<char>&) const
PUBLIC 158a8 0 std::__ndk1::__throw_regex_error[abi:ne180000]<(std::__ndk1::regex_constants::error_type)15>()
PUBLIC 158f4 0 std::__ndk1::basic_regex<char, std::__ndk1::regex_traits<char> >::__parse_nondupl_RE<char const*>(char const*, char const*)
PUBLIC 15bf0 0 std::__ndk1::basic_regex<char, std::__ndk1::regex_traits<char> >::__parse_RE_dupl_symbol<char const*>(char const*, char const*, std::__ndk1::__owns_one_state<char>*, unsigned int, unsigned int)
PUBLIC 15e60 0 std::__ndk1::__owns_one_state<char>::~__owns_one_state()
PUBLIC 15e8c 0 std::__ndk1::__match_any<char>::~__match_any()
PUBLIC 15ed4 0 std::__ndk1::__match_any<char>::__exec(std::__ndk1::__state<char>&) const
PUBLIC 15f14 0 std::__ndk1::basic_regex<char, std::__ndk1::regex_traits<char> >::__test_back_ref(char)
PUBLIC 15f74 0 std::__ndk1::basic_regex<char, std::__ndk1::regex_traits<char> >::__parse_ERE_expression<char const*>(char const*, char const*)
PUBLIC 162c0 0 std::__ndk1::__exception_guard_exceptions<std::__ndk1::vector<std::__ndk1::pair<std::__ndk1::basic_regex<char, std::__ndk1::regex_traits<char> >, std::__ndk1::basic_string<char, std::__ndk1::char_traits<char>, std::__ndk1::allocator<char> > >, std::__ndk1::allocator<std::__ndk1::pair<std::__ndk1::basic_regex<char, std::__ndk1::regex_traits<char> >, std::__ndk1::basic_string<char, std::__ndk1::char_traits<char>, std::__ndk1::allocator<char> > > > >::__destroy_vector>::~__exception_guard_exceptions[abi:ne180000]()
PUBLIC 16390 0 std::__ndk1::__exception_guard_exceptions<std::__ndk1::_AllocatorDestroyRangeReverse<std::__ndk1::allocator<std::__ndk1::pair<std::__ndk1::basic_regex<char, std::__ndk1::regex_traits<char> >, std::__ndk1::basic_string<char, std::__ndk1::char_traits<char>, std::__ndk1::allocator<char> > > >, std::__ndk1::pair<std::__ndk1::basic_regex<char, std::__ndk1::regex_traits<char> >, std::__ndk1::basic_string<char, std::__ndk1::char_traits<char>, std::__ndk1::allocator<char> > >*> >::~__exception_guard_exceptions[abi:ne180000]()
PUBLIC 16424 0 std::__ndk1::basic_regex<char, std::__ndk1::regex_traits<char> >::__search<std::__ndk1::allocator<std::__ndk1::sub_match<char const*> > >(char const*, char const*, std::__ndk1::match_results<char const*, std::__ndk1::allocator<std::__ndk1::sub_match<char const*> > >&, std::__ndk1::regex_constants::match_flag_type) const
PUBLIC 16690 0 std::__ndk1::match_results<std::__ndk1::__wrap_iter<char const*>, std::__ndk1::allocator<std::__ndk1::sub_match<std::__ndk1::__wrap_iter<char const*> > > >::__assign[abi:ne180000]<char const*, std::__ndk1::allocator<std::__ndk1::sub_match<char const*> > >(std::__ndk1::__wrap_iter<char const*>, std::__ndk1::__wrap_iter<char const*>, std::__ndk1::match_results<char const*, std::__ndk1::allocator<std::__ndk1::sub_match<char const*> > > const&, bool)
PUBLIC 169a8 0 std::__ndk1::basic_regex<char, std::__ndk1::regex_traits<char> >::__match_at_start_posix_nosubs<std::__ndk1::allocator<std::__ndk1::sub_match<char const*> > >(char const*, char const*, std::__ndk1::match_results<char const*, std::__ndk1::allocator<std::__ndk1::sub_match<char const*> > >&, std::__ndk1::regex_constants::match_flag_type, bool) const
PUBLIC 17850 0 std::__ndk1::basic_regex<char, std::__ndk1::regex_traits<char> >::__match_at_start_posix_subs<std::__ndk1::allocator<std::__ndk1::sub_match<char const*> > >(char const*, char const*, std::__ndk1::match_results<char const*, std::__ndk1::allocator<std::__ndk1::sub_match<char const*> > >&, std::__ndk1::regex_constants::match_flag_type, bool) const
PUBLIC 18250 0 std::__ndk1::deque<std::__ndk1::__state<char>, std::__ndk1::allocator<std::__ndk1::__state<char> > >::~deque[abi:ne180000]()
PUBLIC 18418 0 std::__ndk1::deque<std::__ndk1::__state<char>, std::__ndk1::allocator<std::__ndk1::__state<char> > >::__add_back_capacity()
PUBLIC 18a08 0 std::__ndk1::__split_buffer<std::__ndk1::__state<char>*, std::__ndk1::allocator<std::__ndk1::__state<char>*> >::push_back(std::__ndk1::__state<char>*&&)
PUBLIC 18b90 0 std::__ndk1::__split_buffer<std::__ndk1::__state<char>*, std::__ndk1::allocator<std::__ndk1::__state<char>*> >::push_front(std::__ndk1::__state<char>*&&)
PUBLIC 18d1c 0 std::__ndk1::__split_buffer<std::__ndk1::__state<char>*, std::__ndk1::allocator<std::__ndk1::__state<char>*> >::push_front(std::__ndk1::__state<char>* const&)
PUBLIC 18ea8 0 std::__ndk1::vector<std::__ndk1::sub_match<std::__ndk1::__wrap_iter<char const*> >, std::__ndk1::allocator<std::__ndk1::sub_match<std::__ndk1::__wrap_iter<char const*> > > >::__throw_length_error[abi:ne180000]() const
PUBLIC 18ebc 0 geode::cast::traverseTypeinfoFor(void*, geode::cast::ClassTypeinfoType const*, char const*)
PUBLIC m 18fb4 0 geodeImplicitEntry
PUBLIC 18ff0 0 <.plt ELF section in jojo989.geometwy_dash.android64.so>
STACK CFI INIT 8af0 10 .cfa: sp 0 +
STACK CFI INIT 8b00 8 .cfa: sp 0 +
STACK CFI INIT 8b08 8 .cfa: sp 0 +
STACK CFI INIT 8b10 14 .cfa: sp 0 +
STACK CFI INIT 8b24 1c .cfa: sp 0 +
STACK CFI INIT 8b40 10 .cfa: sp 0 +
STACK CFI INIT 8b50 30 .cfa: sp 0 +
STACK CFI INIT 8b80 98 .cfa: sp 0 +
STACK CFI INIT 8c18 59c .cfa: sp 0 +
STACK CFI INIT 91b4 8c .cfa: sp 0 +
STACK CFI INIT 9240 30 .cfa: sp 0 +
STACK CFI INIT 9c58 18 .cfa: sp 0 +
STACK CFI INIT a29c 50 .cfa: sp 0 +
STACK CFI a2a0 .cfa: sp 32 +
STACK CFI a2a8 .cfa: x29 32 + x19: .cfa -16 + ^ .ra: .cfa -24 + ^ x29: .cfa -32 + ^
STACK CFI a2c0 .cfa: sp 32 +
STACK CFI a2c8 .cfa: sp 0 +
STACK CFI a2cc .cfa: x29 32 +
STACK CFI a2e0 .cfa: sp 32 +
STACK CFI a2e8 .cfa: sp 0 +
STACK CFI INIT a360 7c .cfa: sp 0 +
STACK CFI a364 .cfa: sp 48 +
STACK CFI a370 .cfa: x29 48 + x19: .cfa -8 + ^ x20: .cfa -16 + ^ x21: .cfa -32 + ^ .ra: .cfa -40 + ^ x29: .cfa -48 + ^
STACK CFI a3bc .cfa: sp 48 +
STACK CFI a3c8 .cfa: sp 0 +
STACK CFI a3cc .cfa: sp 48 +
STACK CFI a3d8 .cfa: sp 0 +
STACK CFI INIT a3dc 4 .cfa: sp 0 +
STACK CFI INIT a3e0 10 .cfa: sp 0 +
STACK CFI a3e4 .cfa: sp 16 +
STACK CFI a3e8 .cfa: x29 16 + .ra: .cfa -8 + ^ x29: .cfa -16 + ^
STACK CFI INIT aaec 34 .cfa: sp 0 +
STACK CFI aaf0 .cfa: sp 16 +
STACK CFI aaf4 .cfa: x29 16 + .ra: .cfa -8 + ^ x29: .cfa -16 + ^
STACK CFI INIT ab20 80 .cfa: sp 0 +
STACK CFI ab24 .cfa: sp 48 +
STACK CFI ab30 .cfa: x29 48 + x19: .cfa -8 + ^ x20: .cfa -16 + ^ x21: .cfa -32 + ^ .ra: .cfa -40 + ^ x29: .cfa -48 + ^
STACK CFI ab90 .cfa: sp 48 +
STACK CFI ab9c .cfa: sp 0 +
STACK CFI INIT aba0 24 .cfa: sp 0 +
STACK CFI aba4 .cfa: sp 32 +
STACK CFI abac .cfa: x29 32 + x19: .cfa -16 + ^ .ra: .cfa -24 + ^ x29: .cfa -32 + ^
STACK CFI abb8 .cfa: sp 32 +
STACK CFI abc0 .cfa: sp 0 +
STACK CFI INIT abc4 14 .cfa: sp 0 +
STACK CFI abc8 .cfa: sp 16 +
STACK CFI abcc .cfa: x29 16 + .ra: .cfa -8 + ^ x29: .cfa -16 + ^
STACK CFI INIT ac28 30 .cfa: sp 0 +
STACK CFI ac2c .cfa: sp 32 +
STACK CFI ac34 .cfa: x29 32 + x19: .cfa -16 + ^ .ra: .cfa -24 + ^ x29: .cfa -32 + ^
STACK CFI ac4c .cfa: sp 32 +
STACK CFI ac54 .cfa: sp 0 +
STACK CFI INIT ac58 34 .cfa: sp 0 +
STACK CFI ac5c .cfa: sp 32 +
STACK CFI ac64 .cfa: x29 32 + x19: .cfa -16 + ^ .ra: .cfa -24 + ^ x29: .cfa -32 + ^
STACK CFI INIT aeb0 7c .cfa: sp 0 +
STACK CFI aeb4 .cfa: sp 48 +
STACK CFI aec0 .cfa: x29 48 + x19: .cfa -8 + ^ x20: .cfa -16 + ^ x21: .cfa -24 + ^ x22: .cfa -32 + ^ .ra: .cfa -40 + ^ x29: .cfa -48 + ^
STACK CFI aed8 .cfa: sp 48 +
STACK CFI aee4 .cfa: sp 0 +
STACK CFI aee8 .cfa: x29 48 +
STACK CFI af18 .cfa: sp 48 +
STACK CFI af24 .cfa: sp 0 +
STACK CFI af28 .cfa: x29 48 +
STACK CFI INIT af2c 68 .cfa: sp 0 +
STACK CFI af30 .cfa: sp 32 +
STACK CFI af38 .cfa: x29 32 + x19: .cfa -8 + ^ x20: .cfa -16 + ^ .ra: .cfa -24 + ^ x29: .cfa -32 + ^
STACK CFI af50 .cfa: sp 32 +
STACK CFI af58 .cfa: sp 0 +
STACK CFI af5c .cfa: x29 32 +
STACK CFI af88 .cfa: sp 32 +
STACK CFI af90 .cfa: sp 0 +
STACK CFI INIT af94 14 .cfa: sp 0 +
STACK CFI af98 .cfa: sp 16 +
STACK CFI af9c .cfa: x29 16 + .ra: .cfa -8 + ^ x29: .cfa -16 + ^
STACK CFI INIT afa8 4 .cfa: sp 0 +
STACK CFI INIT afac 14 .cfa: sp 0 +
STACK CFI INIT afc0 84 .cfa: sp 0 +
STACK CFI afc8 .cfa: sp 32 +
STACK CFI afd0 .cfa: x29 32 + x19: .cfa -8 + ^ x20: .cfa -16 + ^ .ra: .cfa -24 + ^ x29: .cfa -32 + ^
STACK CFI b010 .cfa: sp 32 +
STACK CFI b018 .cfa: sp 0 +
STACK CFI b020 .cfa: x29 32 +
STACK CFI INIT cc5c 50 .cfa: sp 0 +
STACK CFI cc60 .cfa: sp 32 +
STACK CFI cc68 .cfa: x29 32 + x19: .cfa -16 + ^ .ra: .cfa -24 + ^ x29: .cfa -32 + ^
STACK CFI cc80 .cfa: sp 32 +
STACK CFI cc88 .cfa: sp 0 +
STACK CFI cc8c .cfa: x29 32 +
STACK CFI cca0 .cfa: sp 32 +
STACK CFI cca8 .cfa: sp 0 +
STACK CFI INIT ccac 64 .cfa: sp 0 +
STACK CFI ccb0 .cfa: sp 32 +
STACK CFI ccb8 .cfa: x29 32 + x19: .cfa -16 + ^ .ra: .cfa -24 + ^ x29: .cfa -32 + ^
STACK CFI cce4 .cfa: sp 32 +
STACK CFI ccec .cfa: sp 0 +
STACK CFI ccf0 .cfa: x29 32 +
STACK CFI cd04 .cfa: sp 32 +
STACK CFI cd0c .cfa: sp 0 +
STACK CFI INIT cfa8 70 .cfa: sp 0 +
STACK CFI cfac .cfa: sp 32 +
STACK CFI cfb4 .cfa: x29 32 + x19: .cfa -8 + ^ x20: .cfa -16 + ^ .ra: .cfa -24 + ^ x29: .cfa -32 + ^
STACK CFI cfe4 .cfa: sp 32 +
STACK CFI cfec .cfa: sp 0 +
STACK CFI cff0 .cfa: x29 32 +
STACK CFI d00c .cfa: sp 32 +
STACK CFI d014 .cfa: sp 0 +
STACK CFI INIT d018 60 .cfa: sp 0 +
STACK CFI d01c .cfa: sp 32 +
STACK CFI d024 .cfa: x29 32 + x19: .cfa -8 + ^ x20: .cfa -16 + ^ .ra: .cfa -24 + ^ x29: .cfa -32 + ^
STACK CFI d044 .cfa: sp 32 +
STACK CFI d04c .cfa: sp 0 +
STACK CFI d050 .cfa: x29 32 +
STACK CFI d06c .cfa: sp 32 +
STACK CFI d074 .cfa: sp 0 +
STACK CFI INIT d078 c0 .cfa: sp 0 +
STACK CFI d07c .cfa: sp 48 +
STACK CFI d088 .cfa: x29 48 + x19: .cfa -8 + ^ x20: .cfa -16 + ^ x21: .cfa -24 + ^ x22: .cfa -32 + ^ .ra: .cfa -40 + ^ x29: .cfa -48 + ^
STACK CFI d0a8 .cfa: sp 48 +
STACK CFI d0b4 .cfa: sp 0 +
STACK CFI d0b8 .cfa: x29 48 +
STACK CFI d118 .cfa: sp 48 +
STACK CFI d124 .cfa: sp 0 +
STACK CFI d128 .cfa: sp 48 +
STACK CFI d134 .cfa: sp 0 +
STACK CFI INIT d138 50 .cfa: sp 0 +
STACK CFI d13c .cfa: sp 32 +
STACK CFI d144 .cfa: x29 32 + x19: .cfa -16 + ^ .ra: .cfa -24 + ^ x29: .cfa -32 + ^
STACK CFI d15c .cfa: sp 32 +
STACK CFI d164 .cfa: sp 0 +
STACK CFI d168 .cfa: x29 32 +
STACK CFI d17c .cfa: sp 32 +
STACK CFI d184 .cfa: sp 0 +
STACK CFI INIT d898 26c .cfa: sp 0 +
STACK CFI d89c .cfa: sp 112 +
STACK CFI d8b8 .cfa: x29 96 + x19: .cfa -8 + ^ x20: .cfa -16 + ^ x21: .cfa -24 + ^ x22: .cfa -32 + ^ x23: .cfa -40 + ^ x24: .cfa -48 + ^ x25: .cfa -56 + ^ x26: .cfa -64 + ^ x27: .cfa -72 + ^ x28: .cfa -80 + ^ .ra: .cfa -88 + ^ x29: .cfa -96 + ^
STACK CFI dae4 .cfa: sp 112 +
STACK CFI db00 .cfa: sp 0 +
STACK CFI INIT db04 1a8 .cfa: sp 0 +
STACK CFI db08 .cfa: sp 64 +
STACK CFI db18 .cfa: x29 64 + x19: .cfa -8 + ^ x20: .cfa -16 + ^ x21: .cfa -24 + ^ x22: .cfa -32 + ^ x23: .cfa -48 + ^ .ra: .cfa -56 + ^ x29: .cfa -64 + ^
STACK CFI db9c .cfa: sp 64 +
STACK CFI dbac .cfa: sp 0 +
STACK CFI dbb0 .cfa: x29 64 +
STACK CFI dbb8 .cfa: sp 64 +
STACK CFI dbc8 .cfa: sp 0 +
STACK CFI dbcc .cfa: x29 64 +
STACK CFI dc94 .cfa: sp 64 +
STACK CFI dca4 .cfa: sp 0 +
STACK CFI dca8 .cfa: x29 64 +
STACK CFI INIT dcac 170 .cfa: sp 0 +
STACK CFI dcb0 .cfa: sp 96 +
STACK CFI dcc8 .cfa: x29 96 + x19: .cfa -8 + ^ x20: .cfa -16 + ^ x21: .cfa -24 + ^ x22: .cfa -32 + ^ x23: .cfa -40 + ^ x24: .cfa -48 + ^ x25: .cfa -56 + ^ x26: .cfa -64 + ^ x27: .cfa -80 + ^ .ra: .cfa -88 + ^ x29: .cfa -96 + ^
STACK CFI ddfc .cfa: sp 96 +
STACK CFI de14 .cfa: sp 0 +
STACK CFI de18 .cfa: x29 96 +
STACK CFI INIT de68 4 .cfa: sp 0 +
STACK CFI INIT de6c c .cfa: sp 0 +
STACK CFI INIT de78 4 .cfa: sp 0 +
STACK CFI INIT de7c 4 .cfa: sp 0 +
STACK CFI INIT de80 24 .cfa: sp 0 +
STACK CFI de84 .cfa: sp 32 +
STACK CFI de8c .cfa: x29 32 + x19: .cfa -16 + ^ .ra: .cfa -24 + ^ x29: .cfa -32 + ^
STACK CFI de98 .cfa: sp 32 +
STACK CFI dea0 .cfa: sp 0 +
STACK CFI INIT dea4 18 .cfa: sp 0 +
STACK CFI INIT debc 1c .cfa: sp 0 +
STACK CFI INIT ded8 4 .cfa: sp 0 +
STACK CFI INIT dedc 48 .cfa: sp 0 +
STACK CFI def8 .cfa: sp 32 +
STACK CFI df00 .cfa: x29 32 + x19: .cfa -16 + ^ .ra: .cfa -24 + ^ x29: .cfa -32 + ^
STACK CFI df18 .cfa: sp 32 +
STACK CFI df20 .cfa: sp 0 +
STACK CFI INIT df24 14 .cfa: sp 0 +
STACK CFI INIT df38 48 .cfa: sp 0 +
STACK CFI df54 .cfa: sp 32 +
STACK CFI df5c .cfa: x29 32 + x19: .cfa -16 + ^ .ra: .cfa -24 + ^ x29: .cfa -32 + ^
STACK CFI df74 .cfa: sp 32 +
STACK CFI df7c .cfa: sp 0 +
STACK CFI INIT e928 3f4 .cfa: sp 0 +
STACK CFI e92c .cfa: sp 32 +
STACK CFI e934 .cfa: x29 32 + x19: .cfa -16 + ^ .ra: .cfa -24 + ^ x29: .cfa -32 + ^
STACK CFI ea80 .cfa: sp 32 +
STACK CFI ea88 .cfa: sp 0 +
STACK CFI ea8c .cfa: x29 32 +
STACK CFI ea94 .cfa: sp 32 +
STACK CFI ea9c .cfa: sp 0 +
STACK CFI eaa0 .cfa: x29 32 +
STACK CFI eadc .cfa: sp 32 +
STACK CFI eae4 .cfa: sp 0 +
STACK CFI eae8 .cfa: x29 32 +
STACK CFI eb24 .cfa: sp 32 +
STACK CFI eb2c .cfa: sp 0 +
STACK CFI eb30 .cfa: x29 32 +
STACK CFI eb5c .cfa: sp 32 +
STACK CFI eb64 .cfa: sp 0 +
STACK CFI eb68 .cfa: x29 32 +
STACK CFI eb84 .cfa: sp 32 +
STACK CFI eb8c .cfa: sp 0 +
STACK CFI eb90 .cfa: x29 32 +
STACK CFI ebf4 .cfa: sp 32 +
STACK CFI ebfc .cfa: sp 0 +
STACK CFI ec00 .cfa: x29 32 +
STACK CFI ecd0 .cfa: sp 32 +
STACK CFI ecd8 .cfa: sp 0 +
STACK CFI ecdc .cfa: x29 32 +
STACK CFI ed08 .cfa: sp 32 +
STACK CFI ed10 .cfa: sp 0 +
STACK CFI ed14 .cfa: x29 32 +
STACK CFI INIT ed88 b4 .cfa: sp 0 +
STACK CFI ed8c .cfa: sp 64 +
STACK CFI ed9c .cfa: x29 64 + x19: .cfa -8 + ^ x20: .cfa -16 + ^ x21: .cfa -24 + ^ x22: .cfa -32 + ^ x23: .cfa -48 + ^ .ra: .cfa -56 + ^ x29: .cfa -64 + ^
STACK CFI ee28 .cfa: sp 64 +
STACK CFI ee38 .cfa: sp 0 +
STACK CFI INIT ee88 48 .cfa: sp 0 +
STACK CFI eea4 .cfa: sp 32 +
STACK CFI eeac .cfa: x29 32 + x19: .cfa -16 + ^ .ra: .cfa -24 + ^ x29: .cfa -32 + ^
STACK CFI eec4 .cfa: sp 32 +
STACK CFI eecc .cfa: sp 0 +
STACK CFI INIT eed0 64 .cfa: sp 0 +
STACK CFI INIT ef34 48 .cfa: sp 0 +
STACK CFI ef50 .cfa: sp 32 +
STACK CFI ef58 .cfa: x29 32 + x19: .cfa -16 + ^ .ra: .cfa -24 + ^ x29: .cfa -32 + ^
STACK CFI ef70 .cfa: sp 32 +
STACK CFI ef78 .cfa: sp 0 +
STACK CFI INIT ef7c 54 .cfa: sp 0 +
STACK CFI INIT efd0 5c .cfa: sp 0 +
STACK CFI efd4 .cfa: sp 32 +
STACK CFI efdc .cfa: x29 32 + x19: .cfa -16 + ^ .ra: .cfa -24 + ^ x29: .cfa -32 + ^
STACK CFI f014 .cfa: sp 32 +
STACK CFI f01c .cfa: sp 0 +
STACK CFI f020 .cfa: sp 32 +
STACK CFI f028 .cfa: sp 0 +
STACK CFI INIT f02c 58 .cfa: sp 0 +
STACK CFI f030 .cfa: sp 32 +
STACK CFI f038 .cfa: x29 32 + x19: .cfa -16 + ^ .ra: .cfa -24 + ^ x29: .cfa -32 + ^
STACK CFI f078 .cfa: sp 32 +
STACK CFI f080 .cfa: sp 0 +
STACK CFI INIT f084 110 .cfa: sp 0 +
STACK CFI INIT f194 90 .cfa: sp 0 +
STACK CFI f198 .cfa: sp 32 +
STACK CFI f1a0 .cfa: x29 32 + x19: .cfa -8 + ^ x20: .cfa -16 + ^ .ra: .cfa -24 + ^ x29: .cfa -32 + ^
STACK CFI f20c .cfa: sp 32 +
STACK CFI f214 .cfa: sp 0 +
STACK CFI f218 .cfa: sp 32 +
STACK CFI f220 .cfa: sp 0 +
STACK CFI INIT f224 8c .cfa: sp 0 +
STACK CFI f228 .cfa: sp 32 +
STACK CFI f230 .cfa: x29 32 + x19: .cfa -8 + ^ x20: .cfa -16 + ^ .ra: .cfa -24 + ^ x29: .cfa -32 + ^
STACK CFI f2a4 .cfa: sp 32 +
STACK CFI f2ac .cfa: sp 0 +
STACK CFI INIT f8d0 1d0 .cfa: sp 0 +
STACK CFI f8d4 .cfa: sp 48 +
STACK CFI f8e0 .cfa: x29 48 + x19: .cfa -8 + ^ x20: .cfa -16 + ^ x21: .cfa -24 + ^ x22: .cfa -32 + ^ .ra: .cfa -40 + ^ x29: .cfa -48 + ^
STACK CFI fa70 .cfa: sp 48 +
STACK CFI fa7c .cfa: sp 0 +
STACK CFI fa80 .cfa: x29 48 +
STACK CFI fa8c .cfa: sp 48 +
STACK CFI fa98 .cfa: sp 0 +
STACK CFI fa9c .cfa: x29 48 +
STACK CFI INIT faa0 14 .cfa: sp 0 +
STACK CFI faa4 .cfa: sp 16 +
STACK CFI faa8 .cfa: x29 16 + .ra: .cfa -8 + ^ x29: .cfa -16 + ^
STACK CFI INIT fab4 44 .cfa: sp 0 +
STACK CFI fab8 .cfa: sp 32 +
STACK CFI fac0 .cfa: x29 32 + x19: .cfa -16 + ^ .ra: .cfa -24 + ^ x29: .cfa -32 + ^
STACK CFI fae0 .cfa: sp 32 +
STACK CFI fae8 .cfa: sp 0 +
STACK CFI faec .cfa: sp 32 +
STACK CFI faf4 .cfa: sp 0 +
STACK CFI INIT fd00 98 .cfa: sp 0 +
STACK CFI fd04 .cfa: sp 48 +
STACK CFI fd10 .cfa: x29 48 + x19: .cfa -8 + ^ x20: .cfa -16 + ^ x21: .cfa -32 + ^ .ra: .cfa -40 + ^ x29: .cfa -48 + ^
STACK CFI fd30 .cfa: sp 48 +
STACK CFI fd3c .cfa: sp 0 +
STACK CFI fd40 .cfa: x29 48 +
STACK CFI fd78 .cfa: sp 48 +
STACK CFI fd84 .cfa: sp 0 +
STACK CFI fd88 .cfa: sp 48 +
STACK CFI fd94 .cfa: sp 0 +
STACK CFI INIT fd98 1dc .cfa: sp 0 +
STACK CFI fd9c .cfa: sp 48 +
STACK CFI fda8 .cfa: x29 48 + x19: .cfa -8 + ^ x20: .cfa -16 + ^ x21: .cfa -24 + ^ x22: .cfa -32 + ^ .ra: .cfa -40 + ^ x29: .cfa -48 + ^
STACK CFI ff5c .cfa: sp 48 +
STACK CFI ff68 .cfa: sp 0 +
STACK CFI ff6c .cfa: x29 48 +
STACK CFI INIT ff74 14 .cfa: sp 0 +
STACK CFI ff78 .cfa: sp 16 +
STACK CFI ff7c .cfa: x29 16 + .ra: .cfa -8 + ^ x29: .cfa -16 + ^
STACK CFI INIT ff88 1a8 .cfa: sp 0 +
STACK CFI ff8c .cfa: sp 64 +
STACK CFI ff9c .cfa: x29 64 + x19: .cfa -8 + ^ x20: .cfa -16 + ^ x21: .cfa -24 + ^ x22: .cfa -32 + ^ x23: .cfa -40 + ^ x24: .cfa -48 + ^ .ra: .cfa -56 + ^ x29: .cfa -64 + ^
STACK CFI 10100 .cfa: sp 64 +
STACK CFI 10110 .cfa: sp 0 +
STACK CFI 10114 .cfa: sp 64 +
STACK CFI 10124 .cfa: sp 0 +
STACK CFI 10128 .cfa: x29 64 +
STACK CFI INIT 10130 12c .cfa: sp 0 +
STACK CFI 10134 .cfa: sp 64 +
STACK CFI 10144 .cfa: x29 64 + x19: .cfa -8 + ^ x20: .cfa -16 + ^ x21: .cfa -24 + ^ x22: .cfa -32 + ^ x23: .cfa -40 + ^ x24: .cfa -48 + ^ .ra: .cfa -56 + ^ x29: .cfa -64 + ^
STACK CFI 1022c .cfa: sp 64 +
STACK CFI 1023c .cfa: sp 0 +
STACK CFI 10240 .cfa: sp 64 +
STACK CFI 10250 .cfa: sp 0 +
STACK CFI 10254 .cfa: x29 64 +
STACK CFI INIT 1025c 14 .cfa: sp 0 +
STACK CFI 10260 .cfa: sp 16 +
STACK CFI 10264 .cfa: x29 16 + .ra: .cfa -8 + ^ x29: .cfa -16 + ^
STACK CFI INIT 113a8 48 .cfa: sp 0 +
STACK CFI 113c4 .cfa: sp 32 +
STACK CFI 113cc .cfa: x29 32 + x19: .cfa -16 + ^ .ra: .cfa -24 + ^ x29: .cfa -32 + ^
STACK CFI 113e4 .cfa: sp 32 +
STACK CFI 113ec .cfa: sp 0 +
STACK CFI INIT 1143c 50c .cfa: sp 0 +
STACK CFI 11440 .cfa: sp 32 +
STACK CFI 11448 .cfa: x29 32 + x19: .cfa -16 + ^ .ra: .cfa -24 + ^ x29: .cfa -32 + ^
STACK CFI 11590 .cfa: sp 32 +
STACK CFI 11598 .cfa: sp 0 +
STACK CFI 1159c .cfa: x29 32 +
STACK CFI 1170c .cfa: sp 32 +
STACK CFI 11714 .cfa: sp 0 +
STACK CFI 11718 .cfa: x29 32 +
STACK CFI 11734 .cfa: sp 32 +
STACK CFI 1173c .cfa: sp 0 +
STACK CFI 11740 .cfa: x29 32 +
STACK CFI 1179c .cfa: sp 32 +
STACK CFI 117a4 .cfa: sp 0 +
STACK CFI 117a8 .cfa: x29 32 +
STACK CFI 117c4 .cfa: sp 32 +
STACK CFI 117cc .cfa: sp 0 +
STACK CFI 117d0 .cfa: x29 32 +
STACK CFI 117ec .cfa: sp 32 +
STACK CFI 117f4 .cfa: sp 0 +
STACK CFI 117f8 .cfa: x29 32 +
STACK CFI 11814 .cfa: sp 32 +
STACK CFI 1181c .cfa: sp 0 +
STACK CFI 11820 .cfa: x29 32 +
STACK CFI 11838 .cfa: sp 32 +
STACK CFI 11840 .cfa: sp 0 +
STACK CFI 11844 .cfa: x29 32 +
STACK CFI 11860 .cfa: sp 32 +
STACK CFI 11868 .cfa: sp 0 +
STACK CFI 1186c .cfa: x29 32 +
STACK CFI 11888 .cfa: sp 32 +
STACK CFI 11890 .cfa: sp 0 +
STACK CFI 11894 .cfa: x29 32 +
STACK CFI 118b0 .cfa: sp 32 +
STACK CFI 118b8 .cfa: sp 0 +
STACK CFI 118bc .cfa: x29 32 +
STACK CFI 11910 .cfa: sp 32 +
STACK CFI 11918 .cfa: sp 0 +
STACK CFI 1191c .cfa: x29 32 +
STACK CFI 11938 .cfa: sp 32 +
STACK CFI 11940 .cfa: sp 0 +
STACK CFI 11944 .cfa: x29 32 +
STACK CFI INIT 11ad4 c8 .cfa: sp 0 +
STACK CFI 11ad8 .cfa: sp 48 +
STACK CFI 11ae4 .cfa: x29 48 + x19: .cfa -8 + ^ x20: .cfa -16 + ^ x21: .cfa -32 + ^ .ra: .cfa -40 + ^ x29: .cfa -48 + ^
STACK CFI 11b8c .cfa: sp 48 +
STACK CFI 11b98 .cfa: sp 0 +
STACK CFI INIT 11b9c 5c .cfa: sp 0 +
STACK CFI 11ba0 .cfa: sp 32 +
STACK CFI 11ba8 .cfa: x29 32 + x19: .cfa -16 + ^ .ra: .cfa -24 + ^ x29: .cfa -32 + ^
STACK CFI 11be0 .cfa: sp 32 +
STACK CFI 11be8 .cfa: sp 0 +
STACK CFI 11bec .cfa: sp 32 +
STACK CFI 11bf4 .cfa: sp 0 +
STACK CFI INIT 11bf8 58 .cfa: sp 0 +
STACK CFI 11bfc .cfa: sp 32 +
STACK CFI 11c04 .cfa: x29 32 + x19: .cfa -16 + ^ .ra: .cfa -24 + ^ x29: .cfa -32 + ^
STACK CFI 11c44 .cfa: sp 32 +
STACK CFI 11c4c .cfa: sp 0 +
STACK CFI INIT 11c50 80 .cfa: sp 0 +
STACK CFI 11c54 .cfa: sp 32 +
STACK CFI 11c5c .cfa: x29 32 + x19: .cfa -8 + ^ x20: .cfa -16 + ^ .ra: .cfa -24 + ^ x29: .cfa -32 + ^
STACK CFI 11cac .cfa: sp 32 +
STACK CFI 11cb4 .cfa: sp 0 +
STACK CFI 11cb8 .cfa: x29 32 +
STACK CFI 11cc4 .cfa: sp 32 +
STACK CFI 11ccc .cfa: sp 0 +
STACK CFI INIT 11cd0 5c .cfa: sp 0 +
STACK CFI 11cd4 .cfa: sp 32 +
STACK CFI 11cdc .cfa: x29 32 + x19: .cfa -16 + ^ .ra: .cfa -24 + ^ x29: .cfa -32 + ^
STACK CFI 11d14 .cfa: sp 32 +
STACK CFI 11d1c .cfa: sp 0 +
STACK CFI 11d20 .cfa: sp 32 +
STACK CFI 11d28 .cfa: sp 0 +
STACK CFI INIT 11d2c 58 .cfa: sp 0 +
STACK CFI 11d30 .cfa: sp 32 +
STACK CFI 11d38 .cfa: x29 32 + x19: .cfa -16 + ^ .ra: .cfa -24 + ^ x29: .cfa -32 + ^
STACK CFI 11d78 .cfa: sp 32 +
STACK CFI 11d80 .cfa: sp 0 +
STACK CFI INIT 11d84 48 .cfa: sp 0 +
STACK CFI INIT 11dcc 48 .cfa: sp 0 +
STACK CFI 11de8 .cfa: sp 32 +
STACK CFI 11df0 .cfa: x29 32 + x19: .cfa -16 + ^ .ra: .cfa -24 + ^ x29: .cfa -32 + ^
STACK CFI 11e08 .cfa: sp 32 +
STACK CFI 11e10 .cfa: sp 0 +
STACK CFI INIT 11e14 48 .cfa: sp 0 +
STACK CFI INIT 11e5c 5c .cfa: sp 0 +
STACK CFI 11e60 .cfa: sp 32 +
STACK CFI 11e68 .cfa: x29 32 + x19: .cfa -16 + ^ .ra: .cfa -24 + ^ x29: .cfa -32 + ^
STACK CFI 11ea0 .cfa: sp 32 +
STACK CFI 11ea8 .cfa: sp 0 +
STACK CFI 11eac .cfa: sp 32 +
STACK CFI 11eb4 .cfa: sp 0 +
STACK CFI INIT 11eb8 58 .cfa: sp 0 +
STACK CFI 11ebc .cfa: sp 32 +
STACK CFI 11ec4 .cfa: x29 32 + x19: .cfa -16 + ^ .ra: .cfa -24 + ^ x29: .cfa -32 + ^
STACK CFI 11f04 .cfa: sp 32 +
STACK CFI 11f0c .cfa: sp 0 +
STACK CFI INIT 11f10 f8 .cfa: sp 0 +
STACK CFI 11f14 .cfa: sp 64 +
STACK CFI 11f24 .cfa: x29 64 + x19: .cfa -8 + ^ x20: .cfa -16 + ^ x21: .cfa -24 + ^ x22: .cfa -32 + ^ x23: .cfa -40 + ^ x24: .cfa -48 + ^ .ra: .cfa -56 + ^ x29: .cfa -64 + ^
STACK CFI 11f68 .cfa: sp 64 +
STACK CFI 11f78 .cfa: sp 0 +
STACK CFI 11f7c .cfa: x29 64 +
STACK CFI 11ff4 .cfa: sp 64 +
STACK CFI 12004 .cfa: sp 0 +
STACK CFI INIT 12008 5c .cfa: sp 0 +
STACK CFI 1200c .cfa: sp 32 +
STACK CFI 12014 .cfa: x29 32 + x19: .cfa -16 + ^ .ra: .cfa -24 + ^ x29: .cfa -32 + ^
STACK CFI 1204c .cfa: sp 32 +
STACK CFI 12054 .cfa: sp 0 +
STACK CFI 12058 .cfa: sp 32 +
STACK CFI 12060 .cfa: sp 0 +
STACK CFI INIT 12064 58 .cfa: sp 0 +
STACK CFI 12068 .cfa: sp 32 +
STACK CFI 12070 .cfa: x29 32 + x19: .cfa -16 + ^ .ra: .cfa -24 + ^ x29: .cfa -32 + ^
STACK CFI 120b0 .cfa: sp 32 +
STACK CFI 120b8 .cfa: sp 0 +
STACK CFI INIT 120bc 90 .cfa: sp 0 +
STACK CFI INIT 1214c 48 .cfa: sp 0 +
STACK CFI 12168 .cfa: sp 32 +
STACK CFI 12170 .cfa: x29 32 + x19: .cfa -16 + ^ .ra: .cfa -24 + ^ x29: .cfa -32 + ^
STACK CFI 12188 .cfa: sp 32 +
STACK CFI 12190 .cfa: sp 0 +
STACK CFI INIT 12194 d0 .cfa: sp 0 +
STACK CFI 12198 .cfa: sp 48 +
STACK CFI 121a4 .cfa: x29 48 + x19: .cfa -8 + ^ x20: .cfa -16 + ^ x21: .cfa -24 + ^ x22: .cfa -32 + ^ .ra: .cfa -40 + ^ x29: .cfa -48 + ^
STACK CFI 12228 .cfa: sp 48 +
STACK CFI 12234 .cfa: sp 0 +
STACK CFI 12238 .cfa: x29 48 +
STACK CFI 12250 .cfa: sp 48 +
STACK CFI 1225c .cfa: sp 0 +
STACK CFI 12260 .cfa: x29 48 +
STACK CFI INIT 12264 4b0 .cfa: sp 0 +
STACK CFI 12268 .cfa: sp 80 +
STACK CFI 1227c .cfa: x29 80 + x19: .cfa -8 + ^ x20: .cfa -16 + ^ x21: .cfa -24 + ^ x22: .cfa -32 + ^ x23: .cfa -40 + ^ x24: .cfa -48 + ^ x25: .cfa -64 + ^ .ra: .cfa -72 + ^ x29: .cfa -80 + ^
STACK CFI 122b0 .cfa: sp 80 +
STACK CFI 122c4 .cfa: sp 0 +
STACK CFI 122c8 .cfa: x29 80 +
STACK CFI 12688 .cfa: sp 80 +
STACK CFI 1269c .cfa: sp 0 +
STACK CFI 126a0 .cfa: x29 80 +
STACK CFI 126f8 .cfa: sp 80 +
STACK CFI 1270c .cfa: sp 0 +
STACK CFI 12710 .cfa: x29 80 +
STACK CFI INIT 128f0 a4 .cfa: sp 0 +
STACK CFI 128f4 .cfa: sp 48 +
STACK CFI 12900 .cfa: x29 48 + x19: .cfa -8 + ^ x20: .cfa -16 + ^ x21: .cfa -32 + ^ .ra: .cfa -40 + ^ x29: .cfa -48 + ^
STACK CFI 12920 .cfa: sp 48 +
STACK CFI 1292c .cfa: sp 0 +
STACK CFI 12930 .cfa: x29 48 +
STACK CFI 12974 .cfa: sp 48 +
STACK CFI 12980 .cfa: sp 0 +
STACK CFI 12984 .cfa: sp 48 +
STACK CFI 12990 .cfa: sp 0 +
STACK CFI INIT 12994 14c .cfa: sp 0 +
STACK CFI 12998 .cfa: sp 48 +
STACK CFI 129a4 .cfa: x29 48 + x19: .cfa -8 + ^ x20: .cfa -16 + ^ x21: .cfa -32 + ^ .ra: .cfa -40 + ^ x29: .cfa -48 + ^
STACK CFI 12ac0 .cfa: sp 48 +
STACK CFI 12acc .cfa: sp 0 +
STACK CFI 12ad0 .cfa: sp 48 +
STACK CFI 12adc .cfa: sp 0 +
STACK CFI INIT 12ae0 24 .cfa: sp 0 +
STACK CFI 12ae4 .cfa: sp 32 +
STACK CFI 12aec .cfa: x29 32 + x19: .cfa -16 + ^ .ra: .cfa -24 + ^ x29: .cfa -32 + ^
STACK CFI 12af8 .cfa: sp 32 +
STACK CFI 12b00 .cfa: sp 0 +
STACK CFI INIT 13770 44 .cfa: sp 0 +
STACK CFI 13774 .cfa: sp 32 +
STACK CFI 1377c .cfa: x29 32 + x19: .cfa -16 + ^ .ra: .cfa -24 + ^ x29: .cfa -32 + ^
STACK CFI 13798 .cfa: sp 32 +
STACK CFI 137a0 .cfa: sp 0 +
STACK CFI 137a4 .cfa: x29 32 +
STACK CFI 137a8 .cfa: sp 32 +
STACK CFI 137b0 .cfa: sp 0 +
STACK CFI INIT 137b4 a8 .cfa: sp 0 +
STACK CFI 137b8 .cfa: sp 64 +
STACK CFI 137c8 .cfa: x29 64 + x19: .cfa -8 + ^ x20: .cfa -16 + ^ x21: .cfa -24 + ^ x22: .cfa -32 + ^ x23: .cfa -48 + ^ .ra: .cfa -56 + ^ x29: .cfa -64 + ^
STACK CFI 13844 .cfa: sp 64 +
STACK CFI 13854 .cfa: sp 0 +
STACK CFI 13858 .cfa: x29 64 +
STACK CFI INIT 1385c 10c .cfa: sp 0 +
STACK CFI 13860 .cfa: sp 64 +
STACK CFI 13870 .cfa: x29 64 + x19: .cfa -8 + ^ x20: .cfa -16 + ^ x21: .cfa -24 + ^ x22: .cfa -32 + ^ x23: .cfa -40 + ^ x24: .cfa -48 + ^ .ra: .cfa -56 + ^ x29: .cfa -64 + ^
STACK CFI 13950 .cfa: sp 64 +
STACK CFI 13960 .cfa: sp 0 +
STACK CFI 13964 .cfa: x29 64 +
STACK CFI INIT 13b28 14 .cfa: sp 0 +
STACK CFI 13b2c .cfa: sp 16 +
STACK CFI 13b30 .cfa: x29 16 + .ra: .cfa -8 + ^ x29: .cfa -16 + ^
STACK CFI INIT 13b88 5c8 .cfa: sp 0 +
STACK CFI 13b8c .cfa: sp 80 +
STACK CFI 13ba0 .cfa: x29 80 + x19: .cfa -8 + ^ x20: .cfa -16 + ^ x21: .cfa -24 + ^ x22: .cfa -32 + ^ x23: .cfa -40 + ^ x24: .cfa -48 + ^ x25: .cfa -56 + ^ x26: .cfa -64 + ^ .ra: .cfa -72 + ^ x29: .cfa -80 + ^
STACK CFI 13c90 .cfa: sp 80 +
STACK CFI 13ca4 .cfa: sp 0 +
STACK CFI 13ca8 .cfa: x29 80 +
STACK CFI 13cfc .cfa: sp 80 +
STACK CFI 13d10 .cfa: sp 0 +
STACK CFI 13d14 .cfa: x29 80 +
STACK CFI 14130 .cfa: sp 80 +
STACK CFI 14144 .cfa: sp 0 +
STACK CFI 14148 .cfa: x29 80 +
STACK CFI INIT 14150 4c4 .cfa: sp 0 +
STACK CFI 14154 .cfa: sp 32 +
STACK CFI 1415c .cfa: x29 32 + x19: .cfa -16 + ^ .ra: .cfa -24 + ^ x29: .cfa -32 + ^
STACK CFI 141b0 .cfa: sp 32 +
STACK CFI 141b8 .cfa: sp 0 +
STACK CFI 141bc .cfa: x29 32 +
STACK CFI 141fc .cfa: sp 32 +
STACK CFI 14204 .cfa: sp 0 +
STACK CFI 14208 .cfa: x29 32 +
STACK CFI 14238 .cfa: sp 32 +
STACK CFI 14240 .cfa: sp 0 +
STACK CFI 14244 .cfa: x29 32 +
STACK CFI 14274 .cfa: sp 32 +
STACK CFI 1427c .cfa: sp 0 +
STACK CFI 14280 .cfa: x29 32 +
STACK CFI 14290 .cfa: sp 32 +
STACK CFI 14298 .cfa: sp 0 +
STACK CFI 1429c .cfa: x29 32 +
STACK CFI 142bc .cfa: sp 32 +
STACK CFI 142c4 .cfa: sp 0 +
STACK CFI 142c8 .cfa: x29 32 +
STACK CFI 142e8 .cfa: sp 32 +
STACK CFI 142f0 .cfa: sp 0 +
STACK CFI 142f4 .cfa: x29 32 +
STACK CFI 14314 .cfa: sp 32 +
STACK CFI 1431c .cfa: sp 0 +
STACK CFI 14320 .cfa: x29 32 +
STACK CFI 14340 .cfa: sp 32 +
STACK CFI 14348 .cfa: sp 0 +
STACK CFI 1434c .cfa: x29 32 +
STACK CFI 143d0 .cfa: sp 32 +
STACK CFI 143d8 .cfa: sp 0 +
STACK CFI 143dc .cfa: x29 32 +
STACK CFI 143ec .cfa: sp 32 +
STACK CFI 143f4 .cfa: sp 0 +
STACK CFI 143f8 .cfa: x29 32 +
STACK CFI 14408 .cfa: sp 32 +
STACK CFI 14410 .cfa: sp 0 +
STACK CFI 14414 .cfa: x29 32 +
STACK CFI 14424 .cfa: sp 32 +
STACK CFI 1442c .cfa: sp 0 +
STACK CFI 14430 .cfa: x29 32 +
STACK CFI 14440 .cfa: sp 32 +
STACK CFI 14448 .cfa: sp 0 +
STACK CFI 1444c .cfa: x29 32 +
STACK CFI 1445c .cfa: sp 32 +
STACK CFI 14464 .cfa: sp 0 +
STACK CFI 14468 .cfa: x29 32 +
STACK CFI 14478 .cfa: sp 32 +
STACK CFI 14480 .cfa: sp 0 +
STACK CFI 14484 .cfa: x29 32 +
STACK CFI 14494 .cfa: sp 32 +
STACK CFI 1449c .cfa: sp 0 +
STACK CFI 144a0 .cfa: x29 32 +
STACK CFI 144c4 .cfa: sp 32 +
STACK CFI 144cc .cfa: sp 0 +
STACK CFI 144d0 .cfa: x29 32 +
STACK CFI 144e8 .cfa: sp 32 +
STACK CFI 144f0 .cfa: sp 0 +
STACK CFI 144f4 .cfa: x29 32 +
STACK CFI 1450c .cfa: sp 32 +
STACK CFI 14514 .cfa: sp 0 +
STACK CFI 14518 .cfa: x29 32 +
STACK CFI 14530 .cfa: sp 32 +
STACK CFI 14538 .cfa: sp 0 +
STACK CFI 1453c .cfa: x29 32 +
STACK CFI 14554 .cfa: sp 32 +
STACK CFI 1455c .cfa: sp 0 +
STACK CFI 14560 .cfa: x29 32 +
STACK CFI 14578 .cfa: sp 32 +
STACK CFI 14580 .cfa: sp 0 +
STACK CFI 14584 .cfa: x29 32 +
STACK CFI 1459c .cfa: sp 32 +
STACK CFI 145a4 .cfa: sp 0 +
STACK CFI 145a8 .cfa: x29 32 +
STACK CFI 145c0 .cfa: sp 32 +
STACK CFI 145c8 .cfa: sp 0 +
STACK CFI 145cc .cfa: x29 32 +
STACK CFI 145e4 .cfa: sp 32 +
STACK CFI 145ec .cfa: sp 0 +
STACK CFI 145f0 .cfa: x29 32 +
STACK CFI 14604 .cfa: sp 32 +
STACK CFI 1460c .cfa: sp 0 +
STACK CFI 14610 .cfa: x29 32 +
STACK CFI INIT 14614 420 .cfa: sp 0 +
STACK CFI 14618 .cfa: sp 80 +
STACK CFI 1462c .cfa: x29 80 + x19: .cfa -8 + ^ x20: .cfa -16 + ^ x21: .cfa -24 + ^ x22: .cfa -32 + ^ x23: .cfa -40 + ^ x24: .cfa -48 + ^ x25: .cfa -64 + ^ .ra: .cfa -72 + ^ x29: .cfa -80 + ^
STACK CFI 14680 .cfa: sp 80 +
STACK CFI 14694 .cfa: sp 0 +
STACK CFI 14698 .cfa: x29 80 +
STACK CFI 14840 .cfa: sp 80 +
STACK CFI 14854 .cfa: sp 0 +
STACK CFI 14858 .cfa: x29 80 +
STACK CFI 14a14 .cfa: sp 80 +
STACK CFI 14a28 .cfa: sp 0 +
STACK CFI 14a2c .cfa: x29 80 +
STACK CFI INIT 14f78 1a8 .cfa: sp 0 +
STACK CFI 14f7c .cfa: sp 48 +
STACK CFI 14f88 .cfa: x29 48 + x19: .cfa -8 + ^ x20: .cfa -16 + ^ x21: .cfa -24 + ^ x22: .cfa -32 + ^ .ra: .cfa -40 + ^ x29: .cfa -48 + ^
STACK CFI 15108 .cfa: sp 48 +
STACK CFI 15114 .cfa: sp 0 +
STACK CFI 15118 .cfa: x29 48 +
STACK CFI INIT 15120 14 .cfa: sp 0 +
STACK CFI 15124 .cfa: sp 16 +
STACK CFI 15128 .cfa: x29 16 + .ra: .cfa -8 + ^ x29: .cfa -16 + ^
STACK CFI INIT 15134 14 .cfa: sp 0 +
STACK CFI 15138 .cfa: sp 16 +
STACK CFI 1513c .cfa: x29 16 + .ra: .cfa -8 + ^ x29: .cfa -16 + ^
STACK CFI INIT 15148 48 .cfa: sp 0 +
STACK CFI 15164 .cfa: sp 32 +
STACK CFI 1516c .cfa: x29 32 + x19: .cfa -16 + ^ .ra: .cfa -24 + ^ x29: .cfa -32 + ^
STACK CFI 15184 .cfa: sp 32 +
STACK CFI 1518c .cfa: sp 0 +
STACK CFI INIT 15190 30 .cfa: sp 0 +
STACK CFI INIT 151c0 48 .cfa: sp 0 +
STACK CFI 151dc .cfa: sp 32 +
STACK CFI 151e4 .cfa: x29 32 + x19: .cfa -16 + ^ .ra: .cfa -24 + ^ x29: .cfa -32 + ^
STACK CFI 151fc .cfa: sp 32 +
STACK CFI 15204 .cfa: sp 0 +
STACK CFI INIT 15208 38 .cfa: sp 0 +
STACK CFI INIT 15418 68 .cfa: sp 0 +
STACK CFI 1541c .cfa: sp 32 +
STACK CFI 15424 .cfa: x29 32 + x19: .cfa -16 + ^ .ra: .cfa -24 + ^ x29: .cfa -32 + ^
STACK CFI 15474 .cfa: sp 32 +
STACK CFI 1547c .cfa: sp 0 +
STACK CFI INIT 15480 1c4 .cfa: sp 0 +
STACK CFI INIT 15644 c4 .cfa: sp 0 +
STACK CFI INIT 15708 68 .cfa: sp 0 +
STACK CFI 1570c .cfa: sp 32 +
STACK CFI 15714 .cfa: x29 32 + x19: .cfa -16 + ^ .ra: .cfa -24 + ^ x29: .cfa -32 + ^
STACK CFI 15764 .cfa: sp 32 +
STACK CFI 1576c .cfa: sp 0 +
STACK CFI INIT 15770 4 .cfa: sp 0 +
STACK CFI INIT 15774 14 .cfa: sp 0 +
STACK CFI INIT 15788 6c .cfa: sp 0 +
STACK CFI 1578c .cfa: sp 32 +
STACK CFI 15794 .cfa: x29 32 + x19: .cfa -16 + ^ .ra: .cfa -24 + ^ x29: .cfa -32 + ^
STACK CFI 157dc .cfa: sp 32 +
STACK CFI 157e4 .cfa: sp 0 +
STACK CFI 157e8 .cfa: sp 32 +
STACK CFI 157f0 .cfa: sp 0 +
STACK CFI INIT 157f4 68 .cfa: sp 0 +
STACK CFI 157f8 .cfa: sp 32 +
STACK CFI 15800 .cfa: x29 32 + x19: .cfa -16 + ^ .ra: .cfa -24 + ^ x29: .cfa -32 + ^
STACK CFI 15850 .cfa: sp 32 +
STACK CFI 15858 .cfa: sp 0 +
STACK CFI INIT 1585c c .cfa: sp 0 +
STACK CFI INIT 15868 24 .cfa: sp 0 +
STACK CFI INIT 1588c 4 .cfa: sp 0 +
STACK CFI INIT 15890 4 .cfa: sp 0 +
STACK CFI INIT 15894 14 .cfa: sp 0 +
STACK CFI INIT 158f4 2fc .cfa: sp 0 +
STACK CFI 158f8 .cfa: sp 64 +
STACK CFI 15908 .cfa: x29 64 + x19: .cfa -8 + ^ x20: .cfa -16 + ^ x21: .cfa -24 + ^ x22: .cfa -32 + ^ x23: .cfa -40 + ^ x24: .cfa -48 + ^ .ra: .cfa -56 + ^ x29: .cfa -64 + ^
STACK CFI 15a84 .cfa: sp 64 +
STACK CFI 15a94 .cfa: sp 0 +
STACK CFI 15a98 .cfa: x29 64 +
STACK CFI 15adc .cfa: sp 64 +
STACK CFI 15aec .cfa: sp 0 +
STACK CFI 15af0 .cfa: x29 64 +
STACK CFI 15bc0 .cfa: sp 64 +
STACK CFI 15bd0 .cfa: sp 0 +
STACK CFI 15bd4 .cfa: sp 64 +
STACK CFI 15be4 .cfa: sp 0 +
STACK CFI 15be8 .cfa: x29 64 +
STACK CFI INIT 15bf0 270 .cfa: sp 0 +
STACK CFI 15bf4 .cfa: sp 32 +
STACK CFI 15bfc .cfa: x29 32 + x19: .cfa -16 + ^ .ra: .cfa -24 + ^ x29: .cfa -32 + ^
STACK CFI 15c34 .cfa: sp 32 +
STACK CFI 15c3c .cfa: sp 0 +
STACK CFI 15c40 .cfa: x29 32 +
STACK CFI 15d88 .cfa: sp 32 +
STACK CFI 15d90 .cfa: sp 0 +
STACK CFI 15d94 .cfa: x29 32 +
STACK CFI 15dd0 .cfa: sp 32 +
STACK CFI 15dd8 .cfa: sp 0 +
STACK CFI 15ddc .cfa: x29 32 +
STACK CFI 15e50 .cfa: sp 32 +
STACK CFI 15e58 .cfa: sp 0 +
STACK CFI 15e5c .cfa: x29 32 +
STACK CFI INIT 15e60 2c .cfa: sp 0 +
STACK CFI INIT 15e8c 48 .cfa: sp 0 +
STACK CFI 15ea8 .cfa: sp 32 +
STACK CFI 15eb0 .cfa: x29 32 + x19: .cfa -16 + ^ .ra: .cfa -24 + ^ x29: .cfa -32 + ^
STACK CFI 15ec8 .cfa: sp 32 +
STACK CFI 15ed0 .cfa: sp 0 +
STACK CFI INIT 15ed4 40 .cfa: sp 0 +
STACK CFI INIT 15f14 60 .cfa: sp 0 +
STACK CFI 15f18 .cfa: sp 16 +
STACK CFI 15f1c .cfa: x29 16 + .ra: .cfa -8 + ^ x29: .cfa -16 + ^
STACK CFI 15f5c .cfa: sp 16 +
STACK CFI 15f60 .cfa: sp 0 +
STACK CFI 15f64 .cfa: x29 16 +
STACK CFI 15f68 .cfa: sp 16 +
STACK CFI 15f6c .cfa: sp 0 +
STACK CFI 15f70 .cfa: x29 16 +
STACK CFI INIT 15f74 34c .cfa: sp 0 +
STACK CFI 15f78 .cfa: sp 80 +
STACK CFI 15f8c .cfa: x29 80 + x19: .cfa -8 + ^ x20: .cfa -16 + ^ x21: .cfa -24 + ^ x22: .cfa -32 + ^ x23: .cfa -40 + ^ x24: .cfa -48 + ^ x25: .cfa -64 + ^ .ra: .cfa -72 + ^ x29: .cfa -80 + ^
STACK CFI 16288 .cfa: sp 80 +
STACK CFI 1629c .cfa: sp 0 +
STACK CFI 162a0 .cfa: x29 80 +
STACK CFI 162a4 .cfa: sp 80 +
STACK CFI 162b8 .cfa: sp 0 +
STACK CFI 162bc .cfa: x29 80 +
STACK CFI INIT 162c0 d0 .cfa: sp 0 +
STACK CFI 162c4 .cfa: sp 64 +
STACK CFI 162d4 .cfa: x29 64 + x19: .cfa -8 + ^ x20: .cfa -16 + ^ x21: .cfa -24 + ^ x22: .cfa -32 + ^ x23: .cfa -48 + ^ .ra: .cfa -56 + ^ x29: .cfa -64 + ^
STACK CFI 162dc .cfa: sp 64 +
STACK CFI 162ec .cfa: sp 0 +
STACK CFI 162f0 .cfa: x29 64 +
STACK CFI 1637c .cfa: sp 64 +
STACK CFI 1638c .cfa: sp 0 +
STACK CFI INIT 16390 94 .cfa: sp 0 +
STACK CFI 163a0 .cfa: sp 48 +
STACK CFI 163ac .cfa: x29 48 + x19: .cfa -8 + ^ x20: .cfa -16 + ^ x21: .cfa -32 + ^ .ra: .cfa -40 + ^ x29: .cfa -48 + ^
STACK CFI 16414 .cfa: sp 48 +
STACK CFI 16420 .cfa: sp 0 +
STACK CFI INIT 16424 26c .cfa: sp 0 +
STACK CFI 16428 .cfa: sp 80 +
STACK CFI 1643c .cfa: x29 80 + x19: .cfa -8 + ^ x20: .cfa -16 + ^ x21: .cfa -24 + ^ x22: .cfa -32 + ^ x23: .cfa -40 + ^ x24: .cfa -48 + ^ x25: .cfa -64 + ^ .ra: .cfa -72 + ^ x29: .cfa -80 + ^
STACK CFI 16570 .cfa: sp 80 +
STACK CFI 16584 .cfa: sp 0 +
STACK CFI 16588 .cfa: x29 80 +
STACK CFI 16678 .cfa: sp 80 +
STACK CFI 1668c .cfa: sp 0 +
STACK CFI INIT 16690 318 .cfa: sp 0 +
STACK CFI 16694 .cfa: sp 128 +
STACK CFI 166b0 .cfa: x29 96 + x19: .cfa -8 + ^ x20: .cfa -16 + ^ x21: .cfa -24 + ^ x22: .cfa -32 + ^ x23: .cfa -40 + ^ x24: .cfa -48 + ^ x25: .cfa -56 + ^ x26: .cfa -64 + ^ x27: .cfa -72 + ^ x28: .cfa -80 + ^ .ra: .cfa -88 + ^ x29: .cfa -96 + ^
STACK CFI 16980 .cfa: sp 128 +
STACK CFI 1699c .cfa: sp 0 +
STACK CFI 169a0 .cfa: x29 96 +
STACK CFI INIT 18250 1c8 .cfa: sp 0 +
STACK CFI 18254 .cfa: sp 80 +
STACK CFI 18268 .cfa: x29 80 + x19: .cfa -8 + ^ x20: .cfa -16 + ^ x21: .cfa -24 + ^ x22: .cfa -32 + ^ x23: .cfa -40 + ^ x24: .cfa -48 + ^ x25: .cfa -64 + ^ .ra: .cfa -72 + ^ x29: .cfa -80 + ^
STACK CFI 183e8 .cfa: sp 80 +
STACK CFI 183fc .cfa: sp 0 +
STACK CFI 18400 .cfa: sp 80 +
STACK CFI 18414 .cfa: sp 0 +
STACK CFI INIT 18a08 188 .cfa: sp 0 +
STACK CFI 18a0c .cfa: sp 80 +
STACK CFI 18a20 .cfa: x29 80 + x19: .cfa -8 + ^ x20: .cfa -16 + ^ x21: .cfa -24 + ^ x22: .cfa -32 + ^ x23: .cfa -40 + ^ x24: .cfa -48 + ^ x25: .cfa -64 + ^ .ra: .cfa -72 + ^ x29: .cfa -80 + ^
STACK CFI 18b74 .cfa: sp 80 +
STACK CFI 18b88 .cfa: sp 0 +
STACK CFI 18b8c .cfa: x29 80 +
STACK CFI INIT 18b90 18c .cfa: sp 0 +
STACK CFI 18b94 .cfa: sp 64 +
STACK CFI 18ba4 .cfa: x29 64 + x19: .cfa -8 + ^ x20: .cfa -16 + ^ x21: .cfa -24 + ^ x22: .cfa -32 + ^ x23: .cfa -40 + ^ x24: .cfa -48 + ^ .ra: .cfa -56 + ^ x29: .cfa -64 + ^
STACK CFI 18d04 .cfa: sp 64 +
STACK CFI 18d14 .cfa: sp 0 +
STACK CFI 18d18 .cfa: x29 64 +
STACK CFI INIT 18d1c 18c .cfa: sp 0 +
STACK CFI 18d20 .cfa: sp 64 +
STACK CFI 18d30 .cfa: x29 64 + x19: .cfa -8 + ^ x20: .cfa -16 + ^ x21: .cfa -24 + ^ x22: .cfa -32 + ^ x23: .cfa -40 + ^ x24: .cfa -48 + ^ .ra: .cfa -56 + ^ x29: .cfa -64 + ^
STACK CFI 18e90 .cfa: sp 64 +
STACK CFI 18ea0 .cfa: sp 0 +
STACK CFI 18ea4 .cfa: x29 64 +
STACK CFI INIT 18ea8 14 .cfa: sp 0 +
STACK CFI 18eac .cfa: sp 16 +
STACK CFI 18eb0 .cfa: x29 16 + .ra: .cfa -8 + ^ x29: .cfa -16 + ^
STACK CFI INIT 18ebc f8 .cfa: sp 0 +
STACK CFI 18ec0 .cfa: sp 64 +
STACK CFI 18ed0 .cfa: x29 64 + x19: .cfa -8 + ^ x20: .cfa -16 + ^ x21: .cfa -24 + ^ x22: .cfa -32 + ^ x23: .cfa -48 + ^ .ra: .cfa -56 + ^ x29: .cfa -64 + ^
STACK CFI 18f2c .cfa: sp 64 +
STACK CFI 18f3c .cfa: sp 0 +
STACK CFI 18f40 .cfa: x29 64 +
STACK CFI 18f5c .cfa: sp 64 +
STACK CFI 18f6c .cfa: sp 0 +
STACK CFI 18f70 .cfa: x29 64 +
STACK CFI 18fa0 .cfa: sp 64 +
STACK CFI 18fb0 .cfa: sp 0 +
STACK CFI INIT 18fb4 3c .cfa: sp 0 +
STACK CFI 18fb8 .cfa: sp 32 +
STACK CFI 18fc0 .cfa: x29 32 + x19: .cfa -16 + ^ .ra: .cfa -24 + ^ x29: .cfa -32 + ^
STACK CFI 18fcc .cfa: sp 32 +
STACK CFI 18fd4 .cfa: sp 0 +
STACK CFI 18fd8 .cfa: x29 32 +
STACK CFI 18fe4 .cfa: sp 32 +
STACK CFI 18fec .cfa: sp 0 +
STACK CFI INIT 9270 9e8 .cfa: sp 0 +
STACK CFI 9274 .cfa: sp 224 +
STACK CFI 9290 .cfa: x29 96 + x19: .cfa -8 + ^ x20: .cfa -16 + ^ x21: .cfa -24 + ^ x22: .cfa -32 + ^ x23: .cfa -40 + ^ x24: .cfa -48 + ^ x25: .cfa -56 + ^ x26: .cfa -64 + ^ x27: .cfa -72 + ^ x28: .cfa -80 + ^ .ra: .cfa -88 + ^ x29: .cfa -96 + ^
STACK CFI 9b44 .cfa: sp 224 +
STACK CFI 9b60 .cfa: sp 0 +
STACK CFI 9b64 .cfa: x29 96 +
STACK CFI INIT 9c70 62c .cfa: sp 0 +
STACK CFI 9c74 .cfa: sp 304 +
STACK CFI 9c90 .cfa: x29 96 + x19: .cfa -8 + ^ x20: .cfa -16 + ^ x21: .cfa -24 + ^ x22: .cfa -32 + ^ x23: .cfa -40 + ^ x24: .cfa -48 + ^ x25: .cfa -56 + ^ x26: .cfa -64 + ^ x27: .cfa -72 + ^ x28: .cfa -80 + ^ .ra: .cfa -88 + ^ x29: .cfa -96 + ^
STACK CFI a170 .cfa: sp 304 +
STACK CFI a18c .cfa: sp 0 +
STACK CFI a190 .cfa: x29 96 +
STACK CFI INIT a2ec 74 .cfa: sp 0 +
STACK CFI a2f0 .cfa: sp 48 +
STACK CFI a2fc .cfa: x29 32 + x19: .cfa -8 + ^ x20: .cfa -16 + ^ .ra: .cfa -24 + ^ x29: .cfa -32 + ^
STACK CFI a348 .cfa: sp 48 +
STACK CFI a354 .cfa: sp 0 +
STACK CFI a358 .cfa: x29 32 +
STACK CFI INIT a3f0 6fc .cfa: sp 0 +
STACK CFI a3f4 .cfa: sp 496 +
STACK CFI a410 .cfa: x29 96 + x19: .cfa -8 + ^ x20: .cfa -16 + ^ x21: .cfa -24 + ^ x22: .cfa -32 + ^ x23: .cfa -40 + ^ x24: .cfa -48 + ^ x25: .cfa -56 + ^ x26: .cfa -64 + ^ x27: .cfa -72 + ^ x28: .cfa -80 + ^ .ra: .cfa -88 + ^ x29: .cfa -96 + ^
STACK CFI a9c0 .cfa: sp 496 +
STACK CFI a9dc .cfa: sp 0 +
STACK CFI a9e0 .cfa: x29 96 +
STACK CFI INIT abd8 50 .cfa: sp 0 +
STACK CFI abdc .cfa: sp 32 +
STACK CFI abe4 .cfa: x29 32 + x19: .cfa -8 + ^ x20: .cfa -16 + ^ .ra: .cfa -24 + ^ x29: .cfa -32 + ^
STACK CFI INIT ac8c 224 .cfa: sp 0 +
STACK CFI ac90 .cfa: sp 128 +
STACK CFI aca8 .cfa: x29 80 + x19: .cfa -8 + ^ x20: .cfa -16 + ^ x21: .cfa -24 + ^ x22: .cfa -32 + ^ x23: .cfa -40 + ^ x24: .cfa -48 + ^ x25: .cfa -64 + ^ .ra: .cfa -72 + ^ x29: .cfa -80 + ^
STACK CFI ae44 .cfa: sp 128 +
STACK CFI ae5c .cfa: sp 0 +
STACK CFI ae60 .cfa: x29 80 +
STACK CFI INIT b044 1c18 .cfa: sp 0 +
STACK CFI b048 .cfa: sp 96 +
STACK CFI b060 .cfa: x29 96 + x19: .cfa -8 + ^ x20: .cfa -16 + ^ x21: .cfa -24 + ^ x22: .cfa -32 + ^ x23: .cfa -40 + ^ x24: .cfa -48 + ^ x25: .cfa -56 + ^ x26: .cfa -64 + ^ x27: .cfa -72 + ^ x28: .cfa -80 + ^ .ra: .cfa -88 + ^ x29: .cfa -96 + ^
STACK CFI c980 .cfa: sp 96 +
STACK CFI c998 .cfa: sp 0 +
STACK CFI c99c .cfa: x29 96 +
STACK CFI INIT cd10 c0 .cfa: sp 0 +
STACK CFI cd14 .cfa: sp 48 +
STACK CFI cd20 .cfa: x29 48 + x19: .cfa -8 + ^ x20: .cfa -16 + ^ x21: .cfa -32 + ^ .ra: .cfa -40 + ^ x29: .cfa -48 + ^
STACK CFI cd88 .cfa: sp 48 +
STACK CFI cd94 .cfa: sp 0 +
STACK CFI cd98 .cfa: x29 48 +
STACK CFI INIT cdd0 ec .cfa: sp 0 +
STACK CFI cdd4 .cfa: sp 64 +
STACK CFI cde4 .cfa: x29 64 + x19: .cfa -8 + ^ x20: .cfa -16 + ^ x21: .cfa -24 + ^ x22: .cfa -32 + ^ x23: .cfa -48 + ^ .ra: .cfa -56 + ^ x29: .cfa -64 + ^
STACK CFI ce48 .cfa: sp 64 +
STACK CFI ce58 .cfa: sp 0 +
STACK CFI ce5c .cfa: x29 64 +
STACK CFI ce90 .cfa: sp 64 +
STACK CFI cea0 .cfa: sp 0 +
STACK CFI cea4 .cfa: x29 64 +
STACK CFI INIT cebc ec .cfa: sp 0 +
STACK CFI cec0 .cfa: sp 64 +
STACK CFI ced0 .cfa: x29 64 + x19: .cfa -8 + ^ x20: .cfa -16 + ^ x21: .cfa -24 + ^ x22: .cfa -32 + ^ x23: .cfa -48 + ^ .ra: .cfa -56 + ^ x29: .cfa -64 + ^
STACK CFI cf34 .cfa: sp 64 +
STACK CFI cf44 .cfa: sp 0 +
STACK CFI cf48 .cfa: x29 64 +
STACK CFI cf7c .cfa: sp 64 +
STACK CFI cf8c .cfa: sp 0 +
STACK CFI cf90 .cfa: x29 64 +
STACK CFI INIT d188 6c4 .cfa: sp 0 +
STACK CFI d18c .cfa: sp 112 +
STACK CFI d1a8 .cfa: x29 96 + x19: .cfa -8 + ^ x20: .cfa -16 + ^ x21: .cfa -24 + ^ x22: .cfa -32 + ^ x23: .cfa -40 + ^ x24: .cfa -48 + ^ x25: .cfa -56 + ^ x26: .cfa -64 + ^ x27: .cfa -72 + ^ x28: .cfa -80 + ^ .ra: .cfa -88 + ^ x29: .cfa -96 + ^
STACK CFI d2ec .cfa: sp 112 +
STACK CFI d308 .cfa: sp 0 +
STACK CFI d30c .cfa: x29 96 +
STACK CFI d318 .cfa: sp 112 +
STACK CFI d334 .cfa: sp 0 +
STACK CFI d338 .cfa: x29 96 +
STACK CFI d7d4 .cfa: sp 112 +
STACK CFI d7f0 .cfa: sp 0 +
STACK CFI d7f4 .cfa: x29 96 +
STACK CFI INIT d84c 4c .cfa: sp 0 +
STACK CFI d850 .cfa: sp 32 +
STACK CFI d858 .cfa: x29 32 + x19: .cfa -8 + ^ x20: .cfa -16 + ^ .ra: .cfa -24 + ^ x29: .cfa -32 + ^
STACK CFI INIT de1c 4c .cfa: sp 0 +
STACK CFI de20 .cfa: sp 32 +
STACK CFI de28 .cfa: x29 32 + x19: .cfa -8 + ^ x20: .cfa -16 + ^ .ra: .cfa -24 + ^ x29: .cfa -32 + ^
STACK CFI INIT df80 364 .cfa: sp 0 +
STACK CFI df84 .cfa: sp 144 +
STACK CFI df98 .cfa: x29 64 + x19: .cfa -8 + ^ x20: .cfa -16 + ^ x21: .cfa -24 + ^ x22: .cfa -32 + ^ x23: .cfa -48 + ^ .ra: .cfa -56 + ^ x29: .cfa -64 + ^
STACK CFI e12c .cfa: sp 144 +
STACK CFI e140 .cfa: sp 0 +
STACK CFI e144 .cfa: x29 64 +
STACK CFI INIT e2e4 644 .cfa: sp 0 +
STACK CFI e2e8 .cfa: sp 64 +
STACK CFI e2f8 .cfa: x29 64 + x19: .cfa -8 + ^ x20: .cfa -16 + ^ x21: .cfa -24 + ^ x22: .cfa -32 + ^ x23: .cfa -48 + ^ .ra: .cfa -56 + ^ x29: .cfa -64 + ^
STACK CFI e364 .cfa: sp 64 +
STACK CFI e374 .cfa: sp 0 +
STACK CFI e378 .cfa: x29 64 +
STACK CFI e3c8 .cfa: sp 64 +
STACK CFI e3d8 .cfa: sp 0 +
STACK CFI e3dc .cfa: x29 64 +
STACK CFI e458 .cfa: sp 64 +
STACK CFI e468 .cfa: sp 0 +
STACK CFI e46c .cfa: x29 64 +
STACK CFI e55c .cfa: sp 64 +
STACK CFI e56c .cfa: sp 0 +
STACK CFI e570 .cfa: x29 64 +
STACK CFI e600 .cfa: sp 64 +
STACK CFI e610 .cfa: sp 0 +
STACK CFI e614 .cfa: x29 64 +
STACK CFI e62c .cfa: sp 64 +
STACK CFI e63c .cfa: sp 0 +
STACK CFI e640 .cfa: x29 64 +
STACK CFI e7c8 .cfa: sp 64 +
STACK CFI e7d8 .cfa: sp 0 +
STACK CFI e7dc .cfa: x29 64 +
STACK CFI e7f0 .cfa: sp 64 +
STACK CFI e800 .cfa: sp 0 +
STACK CFI e804 .cfa: x29 64 +
STACK CFI e88c .cfa: sp 64 +
STACK CFI e89c .cfa: sp 0 +
STACK CFI e8a0 .cfa: x29 64 +
STACK CFI INIT ed1c 6c .cfa: sp 0 +
STACK CFI ed20 .cfa: sp 32 +
STACK CFI ed28 .cfa: x29 32 + x19: .cfa -8 + ^ x20: .cfa -16 + ^ .ra: .cfa -24 + ^ x29: .cfa -32 + ^
STACK CFI ed68 .cfa: sp 32 +
STACK CFI ed70 .cfa: sp 0 +
STACK CFI ed74 .cfa: x29 32 +
STACK CFI INIT ee3c 4c .cfa: sp 0 +
STACK CFI ee40 .cfa: sp 32 +
STACK CFI ee48 .cfa: x29 32 + x19: .cfa -8 + ^ x20: .cfa -16 + ^ .ra: .cfa -24 + ^ x29: .cfa -32 + ^
STACK CFI INIT f2b0 1d4 .cfa: sp 0 +
STACK CFI f2b4 .cfa: sp 176 +
STACK CFI f2c4 .cfa: x29 48 + x19: .cfa -8 + ^ x20: .cfa -16 + ^ x21: .cfa -24 + ^ x22: .cfa -32 + ^ .ra: .cfa -40 + ^ x29: .cfa -48 + ^
STACK CFI f41c .cfa: sp 176 +
STACK CFI f42c .cfa: sp 0 +
STACK CFI f430 .cfa: x29 48 +
STACK CFI f440 .cfa: sp 176 +
STACK CFI f450 .cfa: sp 0 +
STACK CFI f454 .cfa: x29 48 +
STACK CFI INIT f484 44c .cfa: sp 0 +
STACK CFI f488 .cfa: sp 256 +
STACK CFI f4a4 .cfa: x29 96 + x19: .cfa -8 + ^ x20: .cfa -16 + ^ x21: .cfa -24 + ^ x22: .cfa -32 + ^ x23: .cfa -40 + ^ x24: .cfa -48 + ^ x25: .cfa -56 + ^ x26: .cfa -64 + ^ x27: .cfa -72 + ^ x28: .cfa -80 + ^ .ra: .cfa -88 + ^ x29: .cfa -96 + ^
STACK CFI f7d4 .cfa: sp 256 +
STACK CFI f7f0 .cfa: sp 0 +
STACK CFI f7f4 .cfa: x29 96 +
STACK CFI INIT faf8 4c .cfa: sp 0 +
STACK CFI fafc .cfa: sp 32 +
STACK CFI fb04 .cfa: x29 32 + x19: .cfa -8 + ^ x20: .cfa -16 + ^ .ra: .cfa -24 + ^ x29: .cfa -32 + ^
STACK CFI INIT fb44 170 .cfa: sp 0 +
STACK CFI fb48 .cfa: sp 80 +
STACK CFI fb5c .cfa: x29 80 + x19: .cfa -8 + ^ x20: .cfa -16 + ^ x21: .cfa -24 + ^ x22: .cfa -32 + ^ x23: .cfa -40 + ^ x24: .cfa -48 + ^ x25: .cfa -64 + ^ .ra: .cfa -72 + ^ x29: .cfa -80 + ^
STACK CFI fc50 .cfa: sp 80 +
STACK CFI fc64 .cfa: sp 0 +
STACK CFI fc68 .cfa: x29 80 +
STACK CFI INIT fcb4 4c .cfa: sp 0 +
STACK CFI fcb8 .cfa: sp 32 +
STACK CFI fcc0 .cfa: x29 32 + x19: .cfa -8 + ^ x20: .cfa -16 + ^ .ra: .cfa -24 + ^ x29: .cfa -32 + ^
STACK CFI INIT 10270 10ec .cfa: sp 0 +
STACK CFI 10274 .cfa: sp 432 +
STACK CFI 10290 .cfa: x29 96 + x19: .cfa -8 + ^ x20: .cfa -16 + ^ x21: .cfa -24 + ^ x22: .cfa -32 + ^ x23: .cfa -40 + ^ x24: .cfa -48 + ^ x25: .cfa -56 + ^ x26: .cfa -64 + ^ x27: .cfa -72 + ^ x28: .cfa -80 + ^ .ra: .cfa -88 + ^ x29: .cfa -96 + ^
STACK CFI 11078 .cfa: sp 432 +
STACK CFI 11094 .cfa: sp 0 +
STACK CFI 11098 .cfa: x29 96 +
STACK CFI INIT 1135c 4c .cfa: sp 0 +
STACK CFI 11360 .cfa: sp 32 +
STACK CFI 11368 .cfa: x29 32 + x19: .cfa -8 + ^ x20: .cfa -16 + ^ .ra: .cfa -24 + ^ x29: .cfa -32 + ^
STACK CFI INIT 113f0 4c .cfa: sp 0 +
STACK CFI 113f4 .cfa: sp 32 +
STACK CFI 113fc .cfa: x29 32 + x19: .cfa -8 + ^ x20: .cfa -16 + ^ .ra: .cfa -24 + ^ x29: .cfa -32 + ^
STACK CFI INIT 11948 140 .cfa: sp 0 +
STACK CFI 1194c .cfa: sp 48 +
STACK CFI 11958 .cfa: x29 48 + x19: .cfa -8 + ^ x20: .cfa -16 + ^ x21: .cfa -32 + ^ .ra: .cfa -40 + ^ x29: .cfa -48 + ^
STACK CFI 11a38 .cfa: sp 48 +
STACK CFI 11a44 .cfa: sp 0 +
STACK CFI 11a48 .cfa: x29 48 +
STACK CFI INIT 11a88 4c .cfa: sp 0 +
STACK CFI 11a8c .cfa: sp 32 +
STACK CFI 11a94 .cfa: x29 32 + x19: .cfa -8 + ^ x20: .cfa -16 + ^ .ra: .cfa -24 + ^ x29: .cfa -32 + ^
STACK CFI INIT 12714 1dc .cfa: sp 0 +
STACK CFI 12718 .cfa: sp 128 +
STACK CFI 12730 .cfa: x29 80 + x19: .cfa -8 + ^ x20: .cfa -16 + ^ x21: .cfa -24 + ^ x22: .cfa -32 + ^ x23: .cfa -40 + ^ x24: .cfa -48 + ^ x25: .cfa -64 + ^ .ra: .cfa -72 + ^ x29: .cfa -80 + ^
STACK CFI 12824 .cfa: sp 128 +
STACK CFI 1283c .cfa: sp 0 +
STACK CFI 12840 .cfa: x29 80 +
STACK CFI INIT 12b04 c6c .cfa: sp 0 +
STACK CFI 12b08 .cfa: sp 256 +
STACK CFI 12b24 .cfa: x29 96 + x19: .cfa -8 + ^ x20: .cfa -16 + ^ x21: .cfa -24 + ^ x22: .cfa -32 + ^ x23: .cfa -40 + ^ x24: .cfa -48 + ^ x25: .cfa -56 + ^ x26: .cfa -64 + ^ x27: .cfa -72 + ^ x28: .cfa -80 + ^ .ra: .cfa -88 + ^ x29: .cfa -96 + ^
STACK CFI 136ac .cfa: sp 256 +
STACK CFI 136c8 .cfa: sp 0 +
STACK CFI 136cc .cfa: x29 96 +
STACK CFI INIT 13968 1c0 .cfa: sp 0 +
STACK CFI 1396c .cfa: sp 112 +
STACK CFI 13984 .cfa: x29 80 + x19: .cfa -8 + ^ x20: .cfa -16 + ^ x21: .cfa -24 + ^ x22: .cfa -32 + ^ x23: .cfa -40 + ^ x24: .cfa -48 + ^ x25: .cfa -56 + ^ x26: .cfa -64 + ^ .ra: .cfa -72 + ^ x29: .cfa -80 + ^
STACK CFI 13ab0 .cfa: sp 112 +
STACK CFI 13ac8 .cfa: sp 0 +
STACK CFI 13acc .cfa: x29 80 +
STACK CFI INIT 13b3c 4c .cfa: sp 0 +
STACK CFI 13b40 .cfa: sp 32 +
STACK CFI 13b48 .cfa: x29 32 + x19: .cfa -8 + ^ x20: .cfa -16 + ^ .ra: .cfa -24 + ^ x29: .cfa -32 + ^
STACK CFI INIT 14a34 4c .cfa: sp 0 +
STACK CFI 14a38 .cfa: sp 32 +
STACK CFI 14a40 .cfa: x29 32 + x19: .cfa -8 + ^ x20: .cfa -16 + ^ .ra: .cfa -24 + ^ x29: .cfa -32 + ^
STACK CFI INIT 14a80 2b0 .cfa: sp 0 +
STACK CFI 14a84 .cfa: sp 144 +
STACK CFI 14a9c .cfa: x29 80 + x19: .cfa -8 + ^ x20: .cfa -16 + ^ x21: .cfa -24 + ^ x22: .cfa -32 + ^ x23: .cfa -40 + ^ x24: .cfa -48 + ^ x25: .cfa -56 + ^ x26: .cfa -64 + ^ .ra: .cfa -72 + ^ x29: .cfa -80 + ^
STACK CFI 14ca0 .cfa: sp 144 +
STACK CFI 14cb8 .cfa: sp 0 +
STACK CFI 14cbc .cfa: x29 80 +
STACK CFI INIT 14d30 4c .cfa: sp 0 +
STACK CFI 14d34 .cfa: sp 32 +
STACK CFI 14d3c .cfa: x29 32 + x19: .cfa -8 + ^ x20: .cfa -16 + ^ .ra: .cfa -24 + ^ x29: .cfa -32 + ^
STACK CFI INIT 14d7c 1b0 .cfa: sp 0 +
STACK CFI 14d80 .cfa: sp 112 +
STACK CFI 14d98 .cfa: x29 80 + x19: .cfa -8 + ^ x20: .cfa -16 + ^ x21: .cfa -24 + ^ x22: .cfa -32 + ^ x23: .cfa -40 + ^ x24: .cfa -48 + ^ x25: .cfa -64 + ^ .ra: .cfa -72 + ^ x29: .cfa -80 + ^
STACK CFI 14ecc .cfa: sp 112 +
STACK CFI 14ee4 .cfa: sp 0 +
STACK CFI 14ee8 .cfa: x29 80 +
STACK CFI INIT 14f2c 4c .cfa: sp 0 +
STACK CFI 14f30 .cfa: sp 32 +
STACK CFI 14f38 .cfa: x29 32 + x19: .cfa -8 + ^ x20: .cfa -16 + ^ .ra: .cfa -24 + ^ x29: .cfa -32 + ^
STACK CFI INIT 15240 140 .cfa: sp 0 +
STACK CFI 15244 .cfa: sp 96 +
STACK CFI 1525c .cfa: x29 96 + x19: .cfa -8 + ^ x20: .cfa -16 + ^ x21: .cfa -24 + ^ x22: .cfa -32 + ^ x23: .cfa -40 + ^ x24: .cfa -48 + ^ x25: .cfa -56 + ^ x26: .cfa -64 + ^ x27: .cfa -72 + ^ x28: .cfa -80 + ^ .ra: .cfa -88 + ^ x29: .cfa -96 + ^
STACK CFI 15318 .cfa: sp 96 +
STACK CFI 15330 .cfa: sp 0 +
STACK CFI 15334 .cfa: x29 96 +
STACK CFI INIT 15380 4c .cfa: sp 0 +
STACK CFI 15384 .cfa: sp 32 +
STACK CFI 1538c .cfa: x29 32 + x19: .cfa -8 + ^ x20: .cfa -16 + ^ .ra: .cfa -24 + ^ x29: .cfa -32 + ^
STACK CFI INIT 153cc 4c .cfa: sp 0 +
STACK CFI 153d0 .cfa: sp 32 +
STACK CFI 153d8 .cfa: x29 32 + x19: .cfa -8 + ^ x20: .cfa -16 + ^ .ra: .cfa -24 + ^ x29: .cfa -32 + ^
STACK CFI INIT 158a8 4c .cfa: sp 0 +
STACK CFI 158ac .cfa: sp 32 +
STACK CFI 158b4 .cfa: x29 32 + x19: .cfa -8 + ^ x20: .cfa -16 + ^ .ra: .cfa -24 + ^ x29: .cfa -32 + ^
STACK CFI INIT 169a8 ea8 .cfa: sp 0 +
STACK CFI 169ac .cfa: sp 384 +
STACK CFI 169c8 .cfa: x29 96 + x19: .cfa -8 + ^ x20: .cfa -16 + ^ x21: .cfa -24 + ^ x22: .cfa -32 + ^ x23: .cfa -40 + ^ x24: .cfa -48 + ^ x25: .cfa -56 + ^ x26: .cfa -64 + ^ x27: .cfa -72 + ^ x28: .cfa -80 + ^ .ra: .cfa -88 + ^ x29: .cfa -96 + ^
STACK CFI 17728 .cfa: sp 384 +
STACK CFI 17744 .cfa: sp 0 +
STACK CFI 17748 .cfa: x29 96 +
STACK CFI INIT 17850 a00 .cfa: sp 0 +
STACK CFI 17854 .cfa: sp 416 +
STACK CFI 17870 .cfa: x29 96 + x19: .cfa -8 + ^ x20: .cfa -16 + ^ x21: .cfa -24 + ^ x22: .cfa -32 + ^ x23: .cfa -40 + ^ x24: .cfa -48 + ^ x25: .cfa -56 + ^ x26: .cfa -64 + ^ x27: .cfa -72 + ^ x28: .cfa -80 + ^ .ra: .cfa -88 + ^ x29: .cfa -96 + ^
STACK CFI 17998 .cfa: sp 416 +
STACK CFI 179b4 .cfa: sp 0 +
STACK CFI 179b8 .cfa: x29 96 +
STACK CFI INIT 18418 5f0 .cfa: sp 0 +
STACK CFI 1841c .cfa: sp 112 +
STACK CFI 18438 .cfa: x29 96 + x19: .cfa -8 + ^ x20: .cfa -16 + ^ x21: .cfa -24 + ^ x22: .cfa -32 + ^ x23: .cfa -40 + ^ x24: .cfa -48 + ^ x25: .cfa -56 + ^ x26: .cfa -64 + ^ x27: .cfa -80 + ^ .ra: .cfa -88 + ^ x29: .cfa -96 + ^
STACK CFI 186dc .cfa: sp 112 +
STACK CFI 186f8 .cfa: sp 0 +
STACK CFI 186fc .cfa: x29 96 +
STACK CFI 188f0 .cfa: sp 112 +
STACK CFI 1890c .cfa: sp 0 +
STACK CFI 18910 .cfa: x29 96 +
