MODULE Linux arm64 1E0B35AFC4D24CA9EF797BF6D4BC881A0 alphalaneous.editorsounds.android64.so
INFO CODE_ID AF350B1ED2C4A94CEF797BF6D4BC881A103A0BB5
INFO GENERATOR mozilla/dump_syms 2.3.4
PUBLIC efb0 0 __on_dlclose
PUBLIC efc0 0 __emutls_unregister_key
PUBLIC efc8 0 __on_dlclose_late
PUBLIC efd0 0 __atexit_handler_wrapper
PUBLIC efe4 0 atexit
PUBLIC f000 0 pthread_atfork
PUBLIC f010 0 __aarch64_ldadd8_relax
PUBLIC f040 0 init_have_lse_atomics
PUBLIC f0d8 0 __init_cpu_features_constructor
PUBLIC f674 0 __init_cpu_features
PUBLIC f700 0 __aarch64_ldadd8_acq_rel
PUBLIC f730 0 __cxx_global_var_init
PUBLIC fe98 0 geode::modifier::ModifyBase<geode::modifier::ModifyDerive<MyEditorUI, EditorUI> >::~ModifyBase()
PUBLIC feb0 0 __cxx_global_var_init.1
PUBLIC 10334 0 geode::modifier::ModifyBase<geode::modifier::ModifyDerive<MyEditButtonBar, EditButtonBar> >::~ModifyBase()
PUBLIC 1034c 0 geode::modifier::ModifyDerive<MyEditorUI, EditorUI>::apply()
PUBLIC 144a4 0 std::__ndk1::shared_ptr<geode::Hook>::~shared_ptr[abi:ne180000]()
PUBLIC 144f4 0 geode::impl::ResultData<geode::Hook*, std::__ndk1::basic_string<char, std::__ndk1::char_traits<char>, std::__ndk1::allocator<char> > >::~ResultData()
PUBLIC 14568 0 std::__ndk1::vector<std::__ndk1::basic_string<char, std::__ndk1::char_traits<char>, std::__ndk1::allocator<char> >, std::__ndk1::allocator<std::__ndk1::basic_string<char, std::__ndk1::char_traits<char>, std::__ndk1::allocator<char> > > >::~vector[abi:ne180000]()
PUBLIC 145e4 0 geode::modifier::ModifyBase<geode::modifier::ModifyDerive<MyEditorUI, EditorUI> >::apply()
PUBLIC 145e8 0 __clang_call_terminate
PUBLIC 145f8 0 std::__ndk1::basic_string<char, std::__ndk1::char_traits<char>, std::__ndk1::allocator<char> >::__throw_length_error[abi:ne180000]() const
PUBLIC 1460c 0 std::__ndk1::__throw_length_error[abi:ne180000](char const*)
PUBLIC 1465c 0 std::length_error::length_error[abi:ne180000](char const*)
PUBLIC 1468c 0 std::__throw_bad_array_new_length([abi:ne180000], void)
PUBLIC 146c0 0 std::__ndk1::__tree<std::__ndk1::__value_type<std::__ndk1::basic_string<char, std::__ndk1::char_traits<char>, std::__ndk1::allocator<char> >, std::__ndk1::shared_ptr<geode::Hook> >, std::__ndk1::__map_value_compare<std::__ndk1::basic_string<char, std::__ndk1::char_traits<char>, std::__ndk1::allocator<char> >, std::__ndk1::__value_type<std::__ndk1::basic_string<char, std::__ndk1::char_traits<char>, std::__ndk1::allocator<char> >, std::__ndk1::shared_ptr<geode::Hook> >, std::__ndk1::less<std::__ndk1::basic_string<char, std::__ndk1::char_traits<char>, std::__ndk1::allocator<char> > >, true>, std::__ndk1::allocator<std::__ndk1::__value_type<std::__ndk1::basic_string<char, std::__ndk1::char_traits<char>, std::__ndk1::allocator<char> >, std::__ndk1::shared_ptr<geode::Hook> > > >::find<std::__ndk1::basic_string<char, std::__ndk1::char_traits<char>, std::__ndk1::allocator<char> > >(std::__ndk1::basic_string<char, std::__ndk1::char_traits<char>, std::__ndk1::allocator<char> > const&)
PUBLIC 147e0 0 std::__ndk1::unique_ptr<std::__ndk1::__tree_node<std::__ndk1::__value_type<std::__ndk1::basic_string<char, std::__ndk1::char_traits<char>, std::__ndk1::allocator<char> >, std::__ndk1::shared_ptr<geode::Hook> >, void*>, std::__ndk1::__tree_node_destructor<std::__ndk1::allocator<std::__ndk1::__tree_node<std::__ndk1::__value_type<std::__ndk1::basic_string<char, std::__ndk1::char_traits<char>, std::__ndk1::allocator<char> >, std::__ndk1::shared_ptr<geode::Hook> >, void*> > > >::~unique_ptr[abi:ne180000]()
PUBLIC 1485c 0 std::__ndk1::basic_string<char, std::__ndk1::char_traits<char>, std::__ndk1::allocator<char> >::__init_copy_ctor_external(char const*, unsigned long)
PUBLIC 148dc 0 std::__ndk1::__tree_balance_after_insert[abi:ne180000]<std::__ndk1::__tree_node_base<void*>*>(std::__ndk1::__tree_node_base<void*>*, std::__ndk1::__tree_node_base<void*>*)
PUBLIC 14a8c 0 _ZN5geode15UnwrapExceptionC2IRPNS_4HookEQsr4implE18IsStringStreamableIT_EEENS_4impl5OkTagEOS5_
PUBLIC 14be0 0 std::__ndk1::__throw_bad_variant_access[abi:ne180000]()
PUBLIC 14c14 0 std::__ndk1::basic_stringstream<char, std::__ndk1::char_traits<char>, std::__ndk1::allocator<char> >::basic_stringstream[abi:ne180000]()
PUBLIC m 14d40 0 std::__ndk1::basic_stringstream<char, std::__ndk1::char_traits<char>, std::__ndk1::allocator<char> >::~basic_stringstream()
PUBLIC 14dc0 0 geode::UnwrapException::~UnwrapException()
PUBLIC 14de4 0 std::__ndk1::__put_character_sequence[abi:ne180000]<char, std::__ndk1::char_traits<char> >(std::__ndk1::basic_ostream<char, std::__ndk1::char_traits<char> >, std::__ndk1::basic_ostream const*, unsigned long)
PUBLIC 14f88 0 std::__ndk1::__pad_and_output[abi:ne180000]<char, std::__ndk1::char_traits<char> >(std::__ndk1::char_traits<char>, std::__ndk1::ostreambuf_iterator const*, std::__ndk1::ostreambuf_iterator const, std::__ndk1::ostreambuf_iterator const, std::__ndk1::ios_base&, std::__ndk1::ostreambuf_iterator)
PUBLIC 15164 0 std::__ndk1::basic_stringbuf<char, std::__ndk1::char_traits<char>, std::__ndk1::allocator<char> >::str[abi:ne180000]() &&
PUBLIC 152dc 0 std::__ndk1::basic_stringbuf<char, std::__ndk1::char_traits<char>, std::__ndk1::allocator<char> >::__init_buf_ptrs[abi:ne180000]()
PUBLIC 15424 0 _ZN5geode15UnwrapExceptionC2IRNSt6__ndk112basic_stringIcNS2_11char_traitsIcEENS2_9allocatorIcEEEEQsr4implE18IsStringStreamableIT_EEENS_4impl6ErrTagEOSA_
PUBLIC 1558c 0 std::__ndk1::__variant_detail::__visitation::__base::__dispatcher<(unsigned long)0>::__dispatch[abi:ne180000]<std::__ndk1::__variant_detail::__dtor<std::__ndk1::__variant_detail::__traits<std::__ndk1::monostate, std::__ndk1::basic_string<char, std::__ndk1::char_traits<char>, std::__ndk1::allocator<char> > >, (std::__ndk1::__variant_detail::_Trait)1>::__destroy[abi:ne180000]()::{lambda(auto:1&)#1}, std::__ndk1::__variant_detail::__base<(std::__ndk1::__variant_detail::__traits<std::__ndk1::monostate, std::__ndk1::basic_string<char, std::__ndk1::char_traits<char>, std::__ndk1::allocator<char> > >)1, std::__ndk1::__variant_detail::__traits, std::__ndk1::allocator<char> >&>(std::__ndk1::__variant_detail::__dtor<std::__ndk1::__variant_detail::__traits<std::__ndk1::monostate, std::__ndk1::basic_string<char, std::__ndk1::char_traits<char>, std::__ndk1::allocator<char> > >, (std::__ndk1::__variant_detail::_Trait)1>, std::__ndk1::__variant_detail::__base<(std::__ndk1::__variant_detail::__traits<std::__ndk1::monostate, std::__ndk1::basic_string<char, std::__ndk1::char_traits<char>, std::__ndk1::allocator<char> > >)1, std::__ndk1::__variant_detail::__traits, std::__ndk1::allocator<char> >&)
PUBLIC 15590 0 std::__ndk1::__variant_detail::__visitation::__base::__dispatcher<(unsigned long)1>::__dispatch[abi:ne180000]<std::__ndk1::__variant_detail::__dtor<std::__ndk1::__variant_detail::__traits<std::__ndk1::monostate, std::__ndk1::basic_string<char, std::__ndk1::char_traits<char>, std::__ndk1::allocator<char> > >, (std::__ndk1::__variant_detail::_Trait)1>::__destroy[abi:ne180000]()::{lambda(auto:1&)#1}, std::__ndk1::__variant_detail::__base<(std::__ndk1::__variant_detail::__traits<std::__ndk1::monostate, std::__ndk1::basic_string<char, std::__ndk1::char_traits<char>, std::__ndk1::allocator<char> > >)1, std::__ndk1::__variant_detail::__traits, std::__ndk1::allocator<char> >&>(std::__ndk1::__variant_detail::__dtor<std::__ndk1::__variant_detail::__traits<std::__ndk1::monostate, std::__ndk1::basic_string<char, std::__ndk1::char_traits<char>, std::__ndk1::allocator<char> > >, (std::__ndk1::__variant_detail::_Trait)1>, std::__ndk1::__variant_detail::__base<(std::__ndk1::__variant_detail::__traits<std::__ndk1::monostate, std::__ndk1::basic_string<char, std::__ndk1::char_traits<char>, std::__ndk1::allocator<char> > >)1, std::__ndk1::__variant_detail::__traits, std::__ndk1::allocator<char> >&)
PUBLIC 155a4 0 std::__ndk1::vector<std::__ndk1::basic_string<char, std::__ndk1::char_traits<char>, std::__ndk1::allocator<char> >, std::__ndk1::allocator<std::__ndk1::basic_string<char, std::__ndk1::char_traits<char>, std::__ndk1::allocator<char> > > >::__push_back_slow_path<std::__ndk1::basic_string<char, std::__ndk1::char_traits<char>, std::__ndk1::allocator<char> > const&>(std::__ndk1::basic_string<char, std::__ndk1::char_traits<char>, std::__ndk1::allocator<char> > const&)
PUBLIC 157c8 0 std::__ndk1::__split_buffer<std::__ndk1::basic_string<char, std::__ndk1::char_traits<char>, std::__ndk1::allocator<char> >, std::__ndk1::allocator<std::__ndk1::basic_string<char, std::__ndk1::char_traits<char>, std::__ndk1::allocator<char> > >&>::~__split_buffer()
PUBLIC 15830 0 std::__ndk1::vector<std::__ndk1::basic_string<char, std::__ndk1::char_traits<char>, std::__ndk1::allocator<char> >, std::__ndk1::allocator<std::__ndk1::basic_string<char, std::__ndk1::char_traits<char>, std::__ndk1::allocator<char> > > >::__throw_length_error[abi:ne180000]() const
PUBLIC 15844 0 std::__ndk1::__variant_detail::__visitation::__base::__dispatcher<(unsigned long)0>::__dispatch[abi:ne180000]<std::__ndk1::__variant_detail::__dtor<std::__ndk1::__variant_detail::__traits<geode::Hook*, std::__ndk1::basic_string<char, std::__ndk1::char_traits<char>, std::__ndk1::allocator<char> > >, (std::__ndk1::__variant_detail::_Trait)1>::__destroy[abi:ne180000]()::{lambda(auto:1&)#1}, std::__ndk1::__variant_detail::__base<(std::__ndk1::__variant_detail::__traits<geode::Hook*, std::__ndk1::basic_string<char, std::__ndk1::char_traits<char>, std::__ndk1::allocator<char> > >)1, geode::Hook, std::__ndk1::allocator<char> >&>(std::__ndk1::__variant_detail::__dtor<std::__ndk1::__variant_detail::__traits<geode::Hook*, std::__ndk1::basic_string<char, std::__ndk1::char_traits<char>, std::__ndk1::allocator<char> > >, (std::__ndk1::__variant_detail::_Trait)1>, std::__ndk1::__variant_detail::__base<(std::__ndk1::__variant_detail::__traits<geode::Hook*, std::__ndk1::basic_string<char, std::__ndk1::char_traits<char>, std::__ndk1::allocator<char> > >)1, geode::Hook, std::__ndk1::allocator<char> >&)
PUBLIC 15848 0 std::__ndk1::__variant_detail::__visitation::__base::__dispatcher<(unsigned long)1>::__dispatch[abi:ne180000]<std::__ndk1::__variant_detail::__dtor<std::__ndk1::__variant_detail::__traits<geode::Hook*, std::__ndk1::basic_string<char, std::__ndk1::char_traits<char>, std::__ndk1::allocator<char> > >, (std::__ndk1::__variant_detail::_Trait)1>::__destroy[abi:ne180000]()::{lambda(auto:1&)#1}, std::__ndk1::__variant_detail::__base<(std::__ndk1::__variant_detail::__traits<geode::Hook*, std::__ndk1::basic_string<char, std::__ndk1::char_traits<char>, std::__ndk1::allocator<char> > >)1, geode::Hook, std::__ndk1::allocator<char> >&>(std::__ndk1::__variant_detail::__dtor<std::__ndk1::__variant_detail::__traits<geode::Hook*, std::__ndk1::basic_string<char, std::__ndk1::char_traits<char>, std::__ndk1::allocator<char> > >, (std::__ndk1::__variant_detail::_Trait)1>, std::__ndk1::__variant_detail::__base<(std::__ndk1::__variant_detail::__traits<geode::Hook*, std::__ndk1::basic_string<char, std::__ndk1::char_traits<char>, std::__ndk1::allocator<char> > >)1, geode::Hook, std::__ndk1::allocator<char> >&)
PUBLIC 1585c 0 std::__ndk1::__tree<std::__ndk1::__value_type<std::__ndk1::basic_string<char, std::__ndk1::char_traits<char>, std::__ndk1::allocator<char> >, std::__ndk1::shared_ptr<geode::Hook> >, std::__ndk1::__map_value_compare<std::__ndk1::basic_string<char, std::__ndk1::char_traits<char>, std::__ndk1::allocator<char> >, std::__ndk1::__value_type<std::__ndk1::basic_string<char, std::__ndk1::char_traits<char>, std::__ndk1::allocator<char> >, std::__ndk1::shared_ptr<geode::Hook> >, std::__ndk1::less<std::__ndk1::basic_string<char, std::__ndk1::char_traits<char>, std::__ndk1::allocator<char> > >, true>, std::__ndk1::allocator<std::__ndk1::__value_type<std::__ndk1::basic_string<char, std::__ndk1::char_traits<char>, std::__ndk1::allocator<char> >, std::__ndk1::shared_ptr<geode::Hook> > > >::erase(std::__ndk1::__tree_const_iterator<std::__ndk1::__value_type<std::__ndk1::basic_string<char, std::__ndk1::char_traits<char>, std::__ndk1::allocator<char> >, std::__ndk1::shared_ptr<geode::Hook> >, std::__ndk1::__tree_node<std::__ndk1::__value_type<std::__ndk1::basic_string<char, std::__ndk1::char_traits<char>, std::__ndk1::allocator<char> >, std::__ndk1::shared_ptr<geode::Hook> >, void*>*, long>)
PUBLIC 15d00 0 std::__ndk1::__tree<std::__ndk1::__value_type<std::__ndk1::basic_string<char, std::__ndk1::char_traits<char>, std::__ndk1::allocator<char> >, std::__ndk1::shared_ptr<geode::Hook> >, std::__ndk1::__map_value_compare<std::__ndk1::basic_string<char, std::__ndk1::char_traits<char>, std::__ndk1::allocator<char> >, std::__ndk1::__value_type<std::__ndk1::basic_string<char, std::__ndk1::char_traits<char>, std::__ndk1::allocator<char> >, std::__ndk1::shared_ptr<geode::Hook> >, std::__ndk1::less<std::__ndk1::basic_string<char, std::__ndk1::char_traits<char>, std::__ndk1::allocator<char> > >, true>, std::__ndk1::allocator<std::__ndk1::__value_type<std::__ndk1::basic_string<char, std::__ndk1::char_traits<char>, std::__ndk1::allocator<char> >, std::__ndk1::shared_ptr<geode::Hook> > > >::destroy(std::__ndk1::__tree_node<std::__ndk1::__value_type<std::__ndk1::basic_string<char, std::__ndk1::char_traits<char>, std::__ndk1::allocator<char> >, std::__ndk1::shared_ptr<geode::Hook> >, void*>*)
PUBLIC 15d84 0 geode::modifier::AsStaticFunction_keyDown<MyEditorUI, void (MyEditorUI::*)(cocos2d::enumKeyCodes)>::Impl<void (MyEditorUI::*)(cocos2d::enumKeyCodes)>::function(MyEditorUI*, cocos2d::enumKeyCodes)
PUBLIC 15e8c 0 geode::Hook::create<void (*)(MyEditorUI*, bool)>(void*, void (*)(MyEditorUI*, bool), std::__ndk1::basic_string<char, std::__ndk1::char_traits<char>, std::__ndk1::allocator<char> > const&, tulip::hook::TulipConvention, tulip::hook::HookMetadata const&)
PUBLIC 16010 0 geode::modifier::AsStaticFunction_doCopyObjects<MyEditorUI, void (MyEditorUI::*)(bool)>::Impl<void (MyEditorUI::*)(bool)>::function(MyEditorUI*, bool)
PUBLIC 160f8 0 geode::modifier::AsStaticFunction_doPasteObjects<MyEditorUI, void (MyEditorUI::*)(bool)>::Impl<void (MyEditorUI::*)(bool)>::function(MyEditorUI*, bool)
PUBLIC 161e4 0 geode::modifier::AsStaticFunction_init<MyEditorUI, bool (MyEditorUI::*)(LevelEditorLayer*)>::Impl<bool (MyEditorUI::*)(LevelEditorLayer*)>::function(MyEditorUI*, LevelEditorLayer*)
PUBLIC 16284 0 geode::modifier::AsStaticFunction_moveForCommand<MyEditorUI, cocos2d::CCPoint (MyEditorUI::*)(EditCommand)>::Impl<cocos2d::CCPoint (MyEditorUI::*)(EditCommand)>::function(MyEditorUI*, EditCommand)
PUBLIC 1655c 0 geode::Hook::create<void (*)(MyEditorUI*, cocos2d::CCObject*)>(void*, void (*)(MyEditorUI*, cocos2d::CCObject*), std::__ndk1::basic_string<char, std::__ndk1::char_traits<char>, std::__ndk1::allocator<char> > const&, tulip::hook::TulipConvention, tulip::hook::HookMetadata const&)
PUBLIC 166e0 0 geode::modifier::AsStaticFunction_onCreateButton<MyEditorUI, void (MyEditorUI::*)(cocos2d::CCObject*)>::Impl<void (MyEditorUI::*)(cocos2d::CCObject*)>::function(MyEditorUI*, cocos2d::CCObject*)
PUBLIC 167c8 0 geode::modifier::AsStaticFunction_onCreateObject<MyEditorUI, void (MyEditorUI::*)(int)>::Impl<void (MyEditorUI::*)(int)>::function(MyEditorUI*, int)
PUBLIC 16810 0 geode::modifier::AsStaticFunction_onDeselectAll<MyEditorUI, void (MyEditorUI::*)(cocos2d::CCObject*)>::Impl<void (MyEditorUI::*)(cocos2d::CCObject*)>::function(MyEditorUI*, cocos2d::CCObject*)
PUBLIC 168f8 0 geode::modifier::AsStaticFunction_onDuplicate<MyEditorUI, void (MyEditorUI::*)(cocos2d::CCObject*)>::Impl<void (MyEditorUI::*)(cocos2d::CCObject*)>::function(MyEditorUI*, cocos2d::CCObject*)
PUBLIC 169e0 0 geode::modifier::AsStaticFunction_onGoToBaseLayer<MyEditorUI, void (MyEditorUI::*)(cocos2d::CCObject*)>::Impl<void (MyEditorUI::*)(cocos2d::CCObject*)>::function(MyEditorUI*, cocos2d::CCObject*)
PUBLIC 16ac8 0 geode::modifier::AsStaticFunction_onGroupDown<MyEditorUI, void (MyEditorUI::*)(cocos2d::CCObject*)>::Impl<void (MyEditorUI::*)(cocos2d::CCObject*)>::function(MyEditorUI*, cocos2d::CCObject*)
PUBLIC 16bb0 0 geode::modifier::AsStaticFunction_onGroupSticky<MyEditorUI, void (MyEditorUI::*)(cocos2d::CCObject*)>::Impl<void (MyEditorUI::*)(cocos2d::CCObject*)>::function(MyEditorUI*, cocos2d::CCObject*)
PUBLIC 16c98 0 geode::modifier::AsStaticFunction_onGroupUp<MyEditorUI, void (MyEditorUI::*)(cocos2d::CCObject*)>::Impl<void (MyEditorUI::*)(cocos2d::CCObject*)>::function(MyEditorUI*, cocos2d::CCObject*)
PUBLIC 16d80 0 geode::modifier::AsStaticFunction_onPlaytest<MyEditorUI, void (MyEditorUI::*)(cocos2d::CCObject*)>::Impl<void (MyEditorUI::*)(cocos2d::CCObject*)>::function(MyEditorUI*, cocos2d::CCObject*)
PUBLIC 16db0 0 geode::modifier::AsStaticFunction_onSelectBuildTab<MyEditorUI, void (MyEditorUI::*)(cocos2d::CCObject*)>::Impl<void (MyEditorUI::*)(cocos2d::CCObject*)>::function(MyEditorUI*, cocos2d::CCObject*)
PUBLIC 16e98 0 geode::modifier::AsStaticFunction_onStopPlaytest<MyEditorUI, void (MyEditorUI::*)(cocos2d::CCObject*)>::Impl<void (MyEditorUI::*)(cocos2d::CCObject*)>::function(MyEditorUI*, cocos2d::CCObject*)
PUBLIC 16ec4 0 geode::modifier::AsStaticFunction_onUngroupSticky<MyEditorUI, void (MyEditorUI::*)(cocos2d::CCObject*)>::Impl<void (MyEditorUI::*)(cocos2d::CCObject*)>::function(MyEditorUI*, cocos2d::CCObject*)
PUBLIC 16fb0 0 geode::modifier::AsStaticFunction_redoLastAction<MyEditorUI, void (MyEditorUI::*)(cocos2d::CCObject*)>::Impl<void (MyEditorUI::*)(cocos2d::CCObject*)>::function(MyEditorUI*, cocos2d::CCObject*)
PUBLIC 170c0 0 geode::modifier::AsStaticFunction_selectAll<MyEditorUI, void (MyEditorUI::*)()>::Impl<void (MyEditorUI::*)()>::function(MyEditorUI*)
PUBLIC 171ac 0 geode::modifier::AsStaticFunction_selectAllWithDirection<MyEditorUI, void (MyEditorUI::*)(bool)>::Impl<void (MyEditorUI::*)(bool)>::function(MyEditorUI*, bool)
PUBLIC 17298 0 geode::modifier::AsStaticFunction_selectObject<MyEditorUI, void (MyEditorUI::*)(GameObject*, bool)>::Impl<void (MyEditorUI::*)(GameObject*, bool)>::function(MyEditorUI*, GameObject*, bool)
PUBLIC 17394 0 geode::modifier::AsStaticFunction_selectObjects<MyEditorUI, void (MyEditorUI::*)(cocos2d::CCArray*, bool)>::Impl<void (MyEditorUI::*)(cocos2d::CCArray*, bool)>::function(MyEditorUI*, cocos2d::CCArray*, bool)
PUBLIC 174b0 0 geode::modifier::AsStaticFunction_sliderChanged<MyEditorUI, void (MyEditorUI::*)(cocos2d::CCObject*)>::Impl<void (MyEditorUI::*)(cocos2d::CCObject*)>::function(MyEditorUI*, cocos2d::CCObject*)
PUBLIC 175fc 0 geode::modifier::AsStaticFunction_toggleEnableRotate<MyEditorUI, void (MyEditorUI::*)(cocos2d::CCObject*)>::Impl<void (MyEditorUI::*)(cocos2d::CCObject*)>::function(MyEditorUI*, cocos2d::CCObject*)
PUBLIC 176e8 0 geode::modifier::AsStaticFunction_toggleFreeMove<MyEditorUI, void (MyEditorUI::*)(cocos2d::CCObject*)>::Impl<void (MyEditorUI::*)(cocos2d::CCObject*)>::function(MyEditorUI*, cocos2d::CCObject*)
PUBLIC 177d4 0 geode::modifier::AsStaticFunction_toggleMode<MyEditorUI, void (MyEditorUI::*)(cocos2d::CCObject*)>::Impl<void (MyEditorUI::*)(cocos2d::CCObject*)>::function(MyEditorUI*, cocos2d::CCObject*)
PUBLIC 178c0 0 geode::modifier::AsStaticFunction_toggleSnap<MyEditorUI, void (MyEditorUI::*)(cocos2d::CCObject*)>::Impl<void (MyEditorUI::*)(cocos2d::CCObject*)>::function(MyEditorUI*, cocos2d::CCObject*)
PUBLIC 179ac 0 geode::modifier::AsStaticFunction_toggleSwipe<MyEditorUI, void (MyEditorUI::*)(cocos2d::CCObject*)>::Impl<void (MyEditorUI::*)(cocos2d::CCObject*)>::function(MyEditorUI*, cocos2d::CCObject*)
PUBLIC 17a98 0 geode::modifier::AsStaticFunction_transformObjectCall<MyEditorUI, void (MyEditorUI::*)(EditCommand)>::Impl<void (MyEditorUI::*)(EditCommand)>::function(MyEditorUI*, EditCommand)
PUBLIC 17b84 0 geode::modifier::AsStaticFunction_undoLastAction<MyEditorUI, void (MyEditorUI::*)(cocos2d::CCObject*)>::Impl<void (MyEditorUI::*)(cocos2d::CCObject*)>::function(MyEditorUI*, cocos2d::CCObject*)
PUBLIC 17c94 0 geode::modifier::AsStaticFunction_zoomGameLayer<MyEditorUI, void (MyEditorUI::*)(bool)>::Impl<void (MyEditorUI::*)(bool)>::function(MyEditorUI*, bool)
PUBLIC 17dcc 0 geode::addresser::Addresser::addressOfVirtual<void, EditorUI, cocos2d::enumKeyCodes>(void (EditorUI::*)(cocos2d::enumKeyCodes))
PUBLIC 17e94 0 EditorUI::EditorUI(geode::ZeroConstructorType)
PUBLIC 17fb8 0 std::__ndk1::shared_ptr<tulip::hook::CallingConvention>::~shared_ptr[abi:ne180000]()
PUBLIC 18008 0 tulip::hook::HandlerMetadata::~HandlerMetadata()
PUBLIC 1806c 0 std::__ndk1::vector<tulip::hook::AbstractType, std::__ndk1::allocator<tulip::hook::AbstractType> >::__throw_length_error[abi:ne180000]() const
PUBLIC 18080 0 geode::modifier::FieldIntermediate<MyEditorUI, EditorUI>::self()
PUBLIC 186d8 0 geode::modifier::FieldIntermediate<MyEditorUI, EditorUI>::fieldDestructor(void*)
PUBLIC 186e0 0 std::__ndk1::vector<void*, std::__ndk1::allocator<void*> >::__throw_length_error[abi:ne180000]() const
PUBLIC 186f4 0 std::__ndk1::vector<std::__ndk1::function<void (void*)>, std::__ndk1::allocator<std::__ndk1::function<void (void*)> > >::__throw_length_error[abi:ne180000]() const
PUBLIC 18708 0 std::__ndk1::vector<void*, std::__ndk1::allocator<void*> >::__throw_out_of_range[abi:ne180000]() const
PUBLIC 18714 0 std::__ndk1::__throw_out_of_range[abi:ne180000](char const*)
PUBLIC 18764 0 std::out_of_range::out_of_range[abi:ne180000](char const*)
PUBLIC 18794 0 std::__ndk1::vector<std::__ndk1::function<void (void*)>, std::__ndk1::allocator<std::__ndk1::function<void (void*)> > >::__throw_out_of_range[abi:ne180000]() const
PUBLIC 187a0 0 std::__ndk1::__tree<std::__ndk1::__value_type<std::__ndk1::basic_string<char, std::__ndk1::char_traits<char>, std::__ndk1::allocator<char> >, bool>, std::__ndk1::__map_value_compare<std::__ndk1::basic_string<char, std::__ndk1::char_traits<char>, std::__ndk1::allocator<char> >, std::__ndk1::__value_type<std::__ndk1::basic_string<char, std::__ndk1::char_traits<char>, std::__ndk1::allocator<char> >, bool>, std::__ndk1::less<std::__ndk1::basic_string<char, std::__ndk1::char_traits<char>, std::__ndk1::allocator<char> > >, true>, std::__ndk1::allocator<std::__ndk1::__value_type<std::__ndk1::basic_string<char, std::__ndk1::char_traits<char>, std::__ndk1::allocator<char> >, bool> > >::destroy(std::__ndk1::__tree_node<std::__ndk1::__value_type<std::__ndk1::basic_string<char, std::__ndk1::char_traits<char>, std::__ndk1::allocator<char> >, bool>, void*>*)
PUBLIC 187e8 0 std::__ndk1::__function::__base<void (void*)>::~__base()
PUBLIC 187ec 0 std::__ndk1::__function::__func<void (*)(void*), std::__ndk1::allocator<void (*)(void*)>, void (void*)>::~__func()
PUBLIC 187f0 0 std::__ndk1::__function::__func<void (*)(void*), std::__ndk1::allocator<void (*)(void*)>, void (void*)>::__clone() const
PUBLIC 18828 0 std::__ndk1::__function::__func<void (*)(void*), std::__ndk1::allocator<void (*)(void*)>, void (void*)>::__clone(std::__ndk1::__function::__base<void (void*)>*) const
PUBLIC 18840 0 std::__ndk1::__function::__func<void (*)(void*), std::__ndk1::allocator<void (*)(void*)>, void (void*)>::destroy()
PUBLIC 18844 0 std::__ndk1::__function::__func<void (*)(void*), std::__ndk1::allocator<void (*)(void*)>, void (void*)>::destroy_deallocate()
PUBLIC 18848 0 std::__ndk1::__function::__func<void (*)(void*), std::__ndk1::allocator<void (*)(void*)>, void (void*)>::operator()(void*&&)
PUBLIC 18858 0 std::__ndk1::__function::__func<void (*)(void*), std::__ndk1::allocator<void (*)(void*)>, void (void*)>::target(std::type_info const&) const
PUBLIC 18874 0 std::__ndk1::__function::__func<void (*)(void*), std::__ndk1::allocator<void (*)(void*)>, void (void*)>::target_type() const
PUBLIC 18880 0 MyEditorUI::playSoundIfExists(std::__ndk1::basic_string<char, std::__ndk1::char_traits<char>, std::__ndk1::allocator<char> >, float)
PUBLIC 18c50 0 std::__ndk1::__tree<std::__ndk1::__value_type<std::__ndk1::basic_string<char, std::__ndk1::char_traits<char>, std::__ndk1::allocator<char> >, bool>, std::__ndk1::__map_value_compare<std::__ndk1::basic_string<char, std::__ndk1::char_traits<char>, std::__ndk1::allocator<char> >, std::__ndk1::__value_type<std::__ndk1::basic_string<char, std::__ndk1::char_traits<char>, std::__ndk1::allocator<char> >, bool>, std::__ndk1::less<std::__ndk1::basic_string<char, std::__ndk1::char_traits<char>, std::__ndk1::allocator<char> > >, true>, std::__ndk1::allocator<std::__ndk1::__value_type<std::__ndk1::basic_string<char, std::__ndk1::char_traits<char>, std::__ndk1::allocator<char> >, bool> > >::__emplace_unique_key_args<std::__ndk1::basic_string<char, std::__ndk1::char_traits<char>, std::__ndk1::allocator<char> >, std::__ndk1::piecewise_construct_t const&, std::__ndk1::tuple<std::__ndk1::basic_string<char, std::__ndk1::char_traits<char>, std::__ndk1::allocator<char> > const&>, std::__ndk1::tuple<> >(std::__ndk1::basic_string<char, std::__ndk1::char_traits<char>, std::__ndk1::allocator<char> > const&, std::__ndk1::piecewise_construct_t const&, std::__ndk1::tuple<std::__ndk1::basic_string<char, std::__ndk1::char_traits<char>, std::__ndk1::allocator<char> > const&>, std::__ndk1::tuple<>)
PUBLIC 18e24 0 std::__ndk1::unique_ptr<std::__ndk1::__tree_node<std::__ndk1::__value_type<std::__ndk1::basic_string<char, std::__ndk1::char_traits<char>, std::__ndk1::allocator<char> >, bool>, void*>, std::__ndk1::__tree_node_destructor<std::__ndk1::allocator<std::__ndk1::__tree_node<std::__ndk1::__value_type<std::__ndk1::basic_string<char, std::__ndk1::char_traits<char>, std::__ndk1::allocator<char> >, bool>, void*> > > >::~unique_ptr[abi:ne180000]()
PUBLIC 18e74 0 std::__ndk1::__tree<std::__ndk1::__value_type<std::__ndk1::basic_string<char, std::__ndk1::char_traits<char>, std::__ndk1::allocator<char> >, std::__ndk1::shared_ptr<geode::Hook> >, std::__ndk1::__map_value_compare<std::__ndk1::basic_string<char, std::__ndk1::char_traits<char>, std::__ndk1::allocator<char> >, std::__ndk1::__value_type<std::__ndk1::basic_string<char, std::__ndk1::char_traits<char>, std::__ndk1::allocator<char> >, std::__ndk1::shared_ptr<geode::Hook> >, std::__ndk1::less<std::__ndk1::basic_string<char, std::__ndk1::char_traits<char>, std::__ndk1::allocator<char> > >, true>, std::__ndk1::allocator<std::__ndk1::__value_type<std::__ndk1::basic_string<char, std::__ndk1::char_traits<char>, std::__ndk1::allocator<char> >, std::__ndk1::shared_ptr<geode::Hook> > > >::__emplace_unique_key_args<std::__ndk1::basic_string<char, std::__ndk1::char_traits<char>, std::__ndk1::allocator<char> >, std::__ndk1::piecewise_construct_t const&, std::__ndk1::tuple<std::__ndk1::basic_string<char, std::__ndk1::char_traits<char>, std::__ndk1::allocator<char> >&&>, std::__ndk1::tuple<> >(std::__ndk1::basic_string<char, std::__ndk1::char_traits<char>, std::__ndk1::allocator<char> > const&, std::__ndk1::piecewise_construct_t const&, std::__ndk1::tuple<std::__ndk1::basic_string<char, std::__ndk1::char_traits<char>, std::__ndk1::allocator<char> >&&>, std::__ndk1::tuple<>)
PUBLIC 18fdc 0 MyEditorUI::checkForObjectChange(float)
PUBLIC 1934c 0 geode::modifier::ModifyDerive<MyEditButtonBar, EditButtonBar>::apply()
PUBLIC 19750 0 geode::modifier::ModifyBase<geode::modifier::ModifyDerive<MyEditButtonBar, EditButtonBar> >::apply()
PUBLIC 19754 0 geode::modifier::AsStaticFunction_loadFromItems<MyEditButtonBar, void (MyEditButtonBar::*)(cocos2d::CCArray*, int, int, bool)>::Impl<void (MyEditButtonBar::*)(cocos2d::CCArray*, int, int, bool)>::function(MyEditButtonBar*, cocos2d::CCArray*, int, int, bool)
PUBLIC 19968 0 MyEditButtonBar::onLeft_h(cocos2d::CCObject*)
PUBLIC 19a60 0 MyEditButtonBar::onRight_h(cocos2d::CCObject*)
PUBLIC 19b58 0 geode::cast::traverseTypeinfoFor(void*, geode::cast::ClassTypeinfoType const*, char const*)
PUBLIC m 19c50 0 geodeImplicitEntry
PUBLIC 19c8c 0 std::__ndk1::unordered_map<void*, bool, std::__ndk1::hash<void*>, std::__ndk1::equal_to<void*>, std::__ndk1::allocator<std::__ndk1::pair<void* const, bool> > >::~unordered_map[abi:ne180000]()
PUBLIC 19cd8 0 wrapFunction(unsigned long, tulip::hook::WrapperMetadata const&)
PUBLIC 19e0c 0 geode::impl::ResultData<void*, std::__ndk1::basic_string<char, std::__ndk1::char_traits<char>, std::__ndk1::allocator<char> > >::unwrapErr() &
PUBLIC 19e84 0 geode::impl::ResultData<void*, std::__ndk1::basic_string<char, std::__ndk1::char_traits<char>, std::__ndk1::allocator<char> > >::~ResultData()
PUBLIC 19ef8 0 tulip::hook::WrapperMetadata::~WrapperMetadata()
PUBLIC 19f5c 0 cocos2d::CCObject::~CCObject()
PUBLIC 19f80 0 cocos2d::CCNode::~CCNode()
PUBLIC 19fa4 0 {virtual override thunk({offset(-320)}, cocos2d::CCLayer::~CCLayer())}
PUBLIC 19fac 0 cocos2d::CCLayer::~CCLayer()
PUBLIC 19fd0 0 {virtual override thunk({offset(-320)}, cocos2d::CCLayer::~CCLayer())}
PUBLIC 19ff8 0 FMODAudioEngine::playEffectAdvanced(gd::string, float, float, float, float, bool, bool, int, int, int, int, bool, int, bool, bool, int, int, float, int)
PUBLIC 1a22c 0 tulip::hook::AbstractFunction::from<void, FMODAudioEngine*, gd::string, float, float, float, float, bool, bool, int, int, int, int, bool, int, bool, bool, int, int, float, int>(void (*)(FMODAudioEngine*, gd::string, float, float, float, float, bool, bool, int, int, int, int, bool, int, bool, bool, int, int, float, int))
PUBLIC 1b4c8 0 cocos2d::CCCopying::copyWithZone(cocos2d::CCZone*)
PUBLIC 1b4d0 0 cocos2d::CCObject::update(float)
PUBLIC 1b4d4 0 cocos2d::CCKeyboardDelegate::keyUp(cocos2d::enumKeyCodes)
PUBLIC 1b4d8 0 cocos2d::CCMouseDelegate::rightKeyDown()
PUBLIC 1b4dc 0 cocos2d::CCMouseDelegate::rightKeyUp()
PUBLIC 1b4e0 0 cocos2d::CCMouseDelegate::scrollWheel(float, float)
PUBLIC 1b4e4 0 cocos2d::CCLayer::~CCLayer()
PUBLIC 1b7ac 0 cocos2d::CCNode::~CCNode()
PUBLIC 1ba24 0 cocos2d::CCObject::~CCObject()
PUBLIC 1bef0 0 _ZN5geode15UnwrapExceptionC2IRPvQsr4implE18IsStringStreamableIT_EEENS_4impl5OkTagEOS4_
PUBLIC 1c044 0 std::__ndk1::__variant_detail::__visitation::__base::__dispatcher<(unsigned long)0>::__dispatch[abi:ne180000]<std::__ndk1::__variant_detail::__dtor<std::__ndk1::__variant_detail::__traits<void*, std::__ndk1::basic_string<char, std::__ndk1::char_traits<char>, std::__ndk1::allocator<char> > >, (std::__ndk1::__variant_detail::_Trait)1>::__destroy[abi:ne180000]()::{lambda(auto:1&)#1}, std::__ndk1::__variant_detail::__base<(std::__ndk1::__variant_detail::__traits<void*, std::__ndk1::basic_string<char, std::__ndk1::char_traits<char>, std::__ndk1::allocator<char> > >)1, std::__ndk1::__variant_detail::__traits, std::__ndk1::allocator<char> >&>(std::__ndk1::__variant_detail::__dtor<std::__ndk1::__variant_detail::__traits<void*, std::__ndk1::basic_string<char, std::__ndk1::char_traits<char>, std::__ndk1::allocator<char> > >, (std::__ndk1::__variant_detail::_Trait)1>, std::__ndk1::__variant_detail::__base<(std::__ndk1::__variant_detail::__traits<void*, std::__ndk1::basic_string<char, std::__ndk1::char_traits<char>, std::__ndk1::allocator<char> > >)1, std::__ndk1::__variant_detail::__traits, std::__ndk1::allocator<char> >&)
PUBLIC 1c048 0 std::__ndk1::__variant_detail::__visitation::__base::__dispatcher<(unsigned long)1>::__dispatch[abi:ne180000]<std::__ndk1::__variant_detail::__dtor<std::__ndk1::__variant_detail::__traits<void*, std::__ndk1::basic_string<char, std::__ndk1::char_traits<char>, std::__ndk1::allocator<char> > >, (std::__ndk1::__variant_detail::_Trait)1>::__destroy[abi:ne180000]()::{lambda(auto:1&)#1}, std::__ndk1::__variant_detail::__base<(std::__ndk1::__variant_detail::__traits<void*, std::__ndk1::basic_string<char, std::__ndk1::char_traits<char>, std::__ndk1::allocator<char> > >)1, std::__ndk1::__variant_detail::__traits, std::__ndk1::allocator<char> >&>(std::__ndk1::__variant_detail::__dtor<std::__ndk1::__variant_detail::__traits<void*, std::__ndk1::basic_string<char, std::__ndk1::char_traits<char>, std::__ndk1::allocator<char> > >, (std::__ndk1::__variant_detail::_Trait)1>, std::__ndk1::__variant_detail::__base<(std::__ndk1::__variant_detail::__traits<void*, std::__ndk1::basic_string<char, std::__ndk1::char_traits<char>, std::__ndk1::allocator<char> > >)1, std::__ndk1::__variant_detail::__traits, std::__ndk1::allocator<char> >&)
PUBLIC 1c05c 0 std::__ndk1::__hash_table<std::__ndk1::__hash_value_type<void*, bool>, std::__ndk1::__unordered_map_hasher<void*, std::__ndk1::__hash_value_type<void*, bool>, std::__ndk1::hash<void*>, std::__ndk1::equal_to<void*>, true>, std::__ndk1::__unordered_map_equal<void*, std::__ndk1::__hash_value_type<void*, bool>, std::__ndk1::equal_to<void*>, std::__ndk1::hash<void*>, true>, std::__ndk1::allocator<std::__ndk1::__hash_value_type<void*, bool> > >::__emplace_unique_key_args<void*, std::__ndk1::piecewise_construct_t const&, std::__ndk1::tuple<void* const&>, std::__ndk1::tuple<> >(void* const&, std::__ndk1::piecewise_construct_t const&, std::__ndk1::tuple<void* const&>, std::__ndk1::tuple<>)
PUBLIC 1c53c 0 __udivti3
PUBLIC 1c548 0 __udivmodti4
PUBLIC m 1c794 0 __eqtf2
PUBLIC 1c834 0 __unordtf2
PUBLIC 1c86c 0 fmt::v11::detail::write_loc(fmt::v11::basic_appender<char>, fmt::v11::loc_value, fmt::v11::format_specs const&, fmt::v11::detail::locale_ref)
PUBLIC 1cb00 0 fmt::v11::format_facet<std::__ndk1::locale>::~format_facet()
PUBLIC 1cb7c 0 fmt::v11::report_error(char const*)
PUBLIC 1cbcc 0 fmt::v11::format_error::runtime_error(char const*)
PUBLIC 1cbf8 0 fmt::v11::format_facet<std::__ndk1::locale>::do_put(fmt::v11::basic_appender<char>, fmt::v11::loc_value, fmt::v11::format_specs const&) const
PUBLIC 1d3b8 0 fmt::v11::detail::loc_writer<char>::~loc_writer()
PUBLIC 1d41c 0 fmt::v11::detail::vformat_to<char>(fmt::v11::detail::buffer<char>&, fmt::v11::basic_string_view<char>, fmt::v11::detail::vformat_args<char>::type, fmt::v11::detail::locale_ref)
PUBLIC 1d98c 0 fmt::v11::detail::is_printable(unsigned int)
PUBLIC 1dbb4 0 fmt::v11::detail::dragonbox::to_decimal<float>(float)
PUBLIC 1de90 0 fmt::v11::detail::dragonbox::to_decimal<double>(double)
PUBLIC 1e3cc 0 fmt::v11::basic_memory_buffer<char, (unsigned long)500, std::__ndk1::allocator<char> >::grow(fmt::v11::detail::buffer<char>&, unsigned long)
PUBLIC 1e444 0 fmt::v11::format_facet<std::__ndk1::locale>::~format_facet()
PUBLIC 1e4d0 0 fmt::v11::format_error::~format_error()
PUBLIC 1e4f4 0 fmt::v11::detail::copy_noinline<char, char const*, fmt::v11::basic_appender<char> >(char const*, char const*, fmt::v11::basic_appender<char>)
PUBLIC 1e644 0 fmt::v11::detail::default_arg_formatter<char>::operator()<bool>(bool)
PUBLIC 1e6ac 0 fmt::v11::detail::default_arg_formatter<char>::operator()<char>(char)
PUBLIC 1e73c 0 fmt::v11::detail::default_arg_formatter<char>::operator()<float>(float)
PUBLIC 1e828 0 fmt::v11::detail::default_arg_formatter<char>::operator()<double>(double)
PUBLIC 1e914 0 fmt::v11::detail::default_arg_formatter<char>::operator()<char const*>(char const*)
PUBLIC 1e95c 0 fmt::v11::detail::default_arg_formatter<char>::operator()<void const*>(void const*)
PUBLIC 1e9f4 0 _ZN3fmt3v116detail5writeIcNS0_14basic_appenderIcEEiTnNSt6__ndk19enable_ifIXaaaasr11is_integralIT1_EE5valuentsr3std7is_sameIS7_bEE5valuentsr3std7is_sameIS7_T_EE5valueEiE4typeELi0EEET0_SB_S7_
PUBLIC 1ec54 0 fmt::v11::detail::copy_noinline<char, char*, fmt::v11::basic_appender<char> >(char*, char*, fmt::v11::basic_appender<char>)
PUBLIC 1eda4 0 _ZN3fmt3v116detail5writeIcNS0_14basic_appenderIcEEjTnNSt6__ndk19enable_ifIXaaaasr11is_integralIT1_EE5valuentsr3std7is_sameIS7_bEE5valuentsr3std7is_sameIS7_T_EE5valueEiE4typeELi0EEET0_SB_S7_
PUBLIC 1ef84 0 _ZN3fmt3v116detail5writeIcNS0_14basic_appenderIcEExTnNSt6__ndk19enable_ifIXaaaasr11is_integralIT1_EE5valuentsr3std7is_sameIS7_bEE5valuentsr3std7is_sameIS7_T_EE5valueEiE4typeELi0EEET0_SB_S7_
PUBLIC 1f208 0 _ZN3fmt3v116detail5writeIcNS0_14basic_appenderIcEEyTnNSt6__ndk19enable_ifIXaaaasr11is_integralIT1_EE5valuentsr3std7is_sameIS7_bEE5valuentsr3std7is_sameIS7_T_EE5valueEiE4typeELi0EEET0_SB_S7_
PUBLIC 1f410 0 _ZN3fmt3v116detail5writeIcNS0_14basic_appenderIcEEnTnNSt6__ndk19enable_ifIXaaaasr11is_integralIT1_EE5valuentsr3std7is_sameIS7_bEE5valuentsr3std7is_sameIS7_T_EE5valueEiE4typeELi0EEET0_SB_S7_
PUBLIC 1f770 0 _ZN3fmt3v116detail5writeIcNS0_14basic_appenderIcEEoTnNSt6__ndk19enable_ifIXaaaasr11is_integralIT1_EE5valuentsr3std7is_sameIS7_bEE5valuentsr3std7is_sameIS7_T_EE5valueEiE4typeELi0EEET0_SB_S7_
PUBLIC 1fa84 0 _ZN3fmt3v116detail5writeIcNS0_14basic_appenderIcEEbTnNSt6__ndk19enable_ifIXsr3std7is_sameIT1_bEE5valueEiE4typeELi0EEET0_SA_S7_RKNS0_12format_specsENS1_10locale_refE
PUBLIC 1fd14 0 fmt::v11::detail::write_int_noinline<char, fmt::v11::basic_appender<char>, unsigned int>(fmt::v11::basic_appender<char>, fmt::v11::detail::write_int_arg<unsigned int>, fmt::v11::format_specs const&, fmt::v11::detail::locale_ref)
PUBLIC 20af0 0 fmt::v11::detail::fill<char, fmt::v11::basic_appender<char> >(fmt::v11::basic_appender<char>, unsigned long, fmt::v11::detail::fill_t const&)
PUBLIC 20cc0 0 fmt::v11::detail::write_padded<char, (fmt::v11::align::type)1, fmt::v11::basic_appender<char>, fmt::v11::detail::write_char<char, fmt::v11::basic_appender<char> >(fmt::v11::basic_appender<char>, char, fmt::v11::format_specs const&)::{lambda(fmt::v11::basic_appender<char>&)#1}>(fmt::v11::basic_appender<char>, fmt::v11::format_specs const&, unsigned long, unsigned long, fmt::v11::detail::write_char<char, fmt::v11::basic_appender<char> >(fmt::v11::basic_appender<char>, char, fmt::v11::format_specs const&)::{lambda(fmt::v11::basic_appender<char>&)#1})
PUBLIC 20efc 0 fmt::v11::detail::write_escaped_cp<fmt::v11::basic_appender<char>, char>(fmt::v11::basic_appender<char>, fmt::v11::detail::find_escape_result<char> const&)
PUBLIC 21208 0 fmt::v11::detail::write_codepoint<(unsigned long)2, char, fmt::v11::basic_appender<char> >(fmt::v11::basic_appender<char>, char, unsigned int)
PUBLIC 21380 0 fmt::v11::detail::write_codepoint<(unsigned long)8, char, fmt::v11::basic_appender<char> >(fmt::v11::basic_appender<char>, char, unsigned int)
PUBLIC 214f8 0 fmt::v11::detail::write_padded<char, (fmt::v11::align::type)1, fmt::v11::basic_appender<char>, fmt::v11::detail::write_nonfinite<char, fmt::v11::basic_appender<char> >(fmt::v11::basic_appender<char>, bool, fmt::v11::format_specs, fmt::v11::sign::type)::{lambda(fmt::v11::basic_appender<char>&)#1}>(fmt::v11::basic_appender<char>, fmt::v11::format_specs const&, unsigned long, unsigned long, fmt::v11::detail::write_nonfinite<char, fmt::v11::basic_appender<char> >(fmt::v11::basic_appender<char>, bool, fmt::v11::format_specs, fmt::v11::sign::type)::{lambda(fmt::v11::basic_appender<char>&)#1})
PUBLIC 21738 0 fmt::v11::detail::do_write_float<char, fmt::v11::basic_appender<char>, fmt::v11::detail::dragonbox::decimal_fp<float>, fmt::v11::detail::digit_grouping<char> >(fmt::v11::basic_appender<char>, fmt::v11::detail::dragonbox::decimal_fp<float> const&, fmt::v11::format_specs const&, fmt::v11::detail::float_specs, fmt::v11::detail::locale_ref)
PUBLIC 223ac 0 fmt::v11::detail::do_write_float<char, fmt::v11::basic_appender<char>, fmt::v11::detail::dragonbox::decimal_fp<float>, fmt::v11::detail::digit_grouping<char> >(fmt::v11::basic_appender<char>, fmt::v11::detail::dragonbox::decimal_fp<float> const&, fmt::v11::format_specs const&, fmt::v11::detail::float_specs, fmt::v11::detail::locale_ref)::{lambda(fmt::v11::basic_appender<char>(fmt::v11::basic_appender<char>))#1}::operator() const
PUBLIC 22500 0 fmt::v11::detail::digit_grouping<char>::digit_grouping(fmt::v11::detail::locale_ref, bool)
PUBLIC 2276c 0 fmt::v11::detail::digit_grouping<char>::~digit_grouping()
PUBLIC 227b0 0 fmt::v11::detail::write_exponent<char, fmt::v11::basic_appender<char> >(int, fmt::v11::basic_appender<char>)
PUBLIC 22980 0 _ZN3fmt3v116detail17write_significandIcjTnNSt6__ndk19enable_ifIXsr3std11is_integralIT0_EE5valueEiE4typeELi0EEEPT_S9_S5_iiS8_
PUBLIC 22afc 0 std::__ndk1::basic_string<char, std::__ndk1::char_traits<char>, std::__ndk1::allocator<char> >::__assign_no_alias<true>(char const*, unsigned long)
PUBLIC 22ba8 0 std::__ndk1::basic_string<char, std::__ndk1::char_traits<char>, std::__ndk1::allocator<char> >::__assign_no_alias<false>(char const*, unsigned long)
PUBLIC 22cb8 0 fmt::v11::detail::digit_grouping<char>::apply<fmt::v11::basic_appender<char>, char>(fmt::v11::basic_appender<char>, fmt::v11::basic_string_view<char>) const
PUBLIC 23070 0 fmt::v11::basic_memory_buffer<int, (unsigned long)500, std::__ndk1::allocator<int> >::grow(fmt::v11::detail::buffer<int>&, unsigned long)
PUBLIC 23110 0 fmt::v11::detail::do_write_float<char, fmt::v11::basic_appender<char>, fmt::v11::detail::dragonbox::decimal_fp<double>, fmt::v11::detail::digit_grouping<char> >(fmt::v11::basic_appender<char>, fmt::v11::detail::dragonbox::decimal_fp<double> const&, fmt::v11::format_specs const&, fmt::v11::detail::float_specs, fmt::v11::detail::locale_ref)
PUBLIC 23dc4 0 fmt::v11::detail::do_write_float<char, fmt::v11::basic_appender<char>, fmt::v11::detail::dragonbox::decimal_fp<double>, fmt::v11::detail::digit_grouping<char> >(fmt::v11::basic_appender<char>, fmt::v11::detail::dragonbox::decimal_fp<double> const&, fmt::v11::format_specs const&, fmt::v11::detail::float_specs, fmt::v11::detail::locale_ref)::{lambda(fmt::v11::basic_appender<char>(fmt::v11::basic_appender<char>))#1}::operator() const
PUBLIC 23f1c 0 _ZN3fmt3v116detail17write_significandIcmTnNSt6__ndk19enable_ifIXsr3std11is_integralIT0_EE5valueEiE4typeELi0EEEPT_S9_S5_iiS8_
PUBLIC 240ac 0 fmt::v11::detail::write_float<char, fmt::v11::basic_appender<char>, long double>(fmt::v11::basic_appender<char>, long double, fmt::v11::format_specs, fmt::v11::detail::locale_ref)
PUBLIC 24ba8 0 fmt::v11::detail::write_padded<char, (fmt::v11::align::type)2, fmt::v11::basic_appender<char>, fmt::v11::detail::write_bytes<char, (fmt::v11::align::type)2, fmt::v11::basic_appender<char> >(fmt::v11::basic_appender<char>, fmt::v11::basic_string_view<char>, fmt::v11::format_specs const&)::{lambda(fmt::v11::basic_appender<char>&)#1}>(fmt::v11::basic_appender<char>, fmt::v11::format_specs const&, unsigned long, unsigned long, fmt::v11::detail::write_bytes<char, (fmt::v11::align::type)2, fmt::v11::basic_appender<char> >(fmt::v11::basic_appender<char>, fmt::v11::basic_string_view<char>, fmt::v11::format_specs const&)::{lambda(fmt::v11::basic_appender<char>&)#1})
PUBLIC 24d84 0 fmt::v11::detail::format_dragon(fmt::v11::detail::basic_fp<unsigned __int128>, unsigned int, int, fmt::v11::detail::buffer<char>&, int&)
PUBLIC 261b4 0 fmt::v11::detail::bigint::operator<<=(int)
PUBLIC 262d8 0 fmt::v11::detail::bigint::assign_pow10(int)
PUBLIC 26a34 0 fmt::v11::detail::bigint::divmod_assign(fmt::v11::detail::bigint const&)
PUBLIC 26d54 0 fmt::v11::basic_memory_buffer<unsigned int, (unsigned long)32, std::__ndk1::allocator<unsigned int> >::grow(fmt::v11::detail::buffer<unsigned int>&, unsigned long)
PUBLIC 26df4 0 fmt::v11::detail::do_write_float<char, fmt::v11::basic_appender<char>, fmt::v11::detail::big_decimal_fp, fmt::v11::detail::digit_grouping<char> >(fmt::v11::basic_appender<char>, fmt::v11::detail::big_decimal_fp const&, fmt::v11::format_specs const&, fmt::v11::detail::float_specs, fmt::v11::detail::locale_ref)
PUBLIC 27ca4 0 fmt::v11::detail::do_write_float<char, fmt::v11::basic_appender<char>, fmt::v11::detail::big_decimal_fp, fmt::v11::detail::digit_grouping<char> >(fmt::v11::basic_appender<char>, fmt::v11::detail::big_decimal_fp const&, fmt::v11::format_specs const&, fmt::v11::detail::float_specs, fmt::v11::detail::locale_ref)::{lambda(fmt::v11::basic_appender<char>(fmt::v11::basic_appender<char>))#1}::operator() const
PUBLIC 27e04 0 fmt::v11::detail::write_padded<char, (fmt::v11::align::type)2, fmt::v11::basic_appender<char>, fmt::v11::detail::write_ptr<char, fmt::v11::basic_appender<char>, unsigned long>(fmt::v11::basic_appender<char>, unsigned long, fmt::v11::format_specs const*)::{lambda(fmt::v11::basic_appender<char>&)#1}>(fmt::v11::basic_appender<char>, fmt::v11::format_specs const&, unsigned long, unsigned long, fmt::v11::detail::write_ptr<char, fmt::v11::basic_appender<char>, unsigned long>(fmt::v11::basic_appender<char>, unsigned long, fmt::v11::format_specs const*)::{lambda(fmt::v11::basic_appender<char>&)#1})
PUBLIC 28018 0 fmt::v11::detail::parse_replacement_field<char, fmt::v11::detail::vformat_to<char>(fmt::v11::detail::buffer<char>&, fmt::v11::basic_string_view<char>, fmt::v11::detail::vformat_args<char>::type, fmt::v11::detail::locale_ref)::format_handler&>(char const*, char const*, fmt::v11::detail::vformat_to<char>(fmt::v11::detail::buffer<char>&, fmt::v11::basic_string_view<char>, fmt::v11::detail::vformat_args<char>::type, fmt::v11::detail::locale_ref)::format_handler&)
PUBLIC 29cb4 0 fmt::v11::detail::parse_dynamic_spec<char>(char const*, char const*, int&, fmt::v11::detail::arg_ref<char>&, fmt::v11::basic_format_parse_context<char>&)
PUBLIC 29f44 0 fmt::v11::basic_format_args<fmt::v11::context>::get<char>(fmt::v11::basic_string_view<char>) const
PUBLIC 2a09c 0 fmt::v11::detail::write_int_noinline<char, fmt::v11::basic_appender<char>, unsigned long>(fmt::v11::basic_appender<char>, fmt::v11::detail::write_int_arg<unsigned long>, fmt::v11::format_specs const&, fmt::v11::detail::locale_ref)
PUBLIC 2aef0 0 fmt::v11::detail::write_int_noinline<char, fmt::v11::basic_appender<char>, unsigned __int128>(fmt::v11::basic_appender<char>, fmt::v11::detail::write_int_arg<unsigned __int128>, fmt::v11::format_specs const&, fmt::v11::detail::locale_ref)
PUBLIC 2bf58 0 _ZN3fmt3v116detail15format_hexfloatIdTnNSt6__ndk19enable_ifIXntsr16is_double_doubleIT_EE5valueEiE4typeELi0EEEvS5_NS0_12format_specsERNS1_6bufferIcEE
PUBLIC 2c478 0 fmt::v11::detail::format_float<double>(double, int, fmt::v11::detail::float_specs, fmt::v11::detail::buffer<char>&)
PUBLIC 2ce18 0 fmt::v11::detail::write<char, fmt::v11::basic_appender<char> >(fmt::v11::basic_appender<char>, fmt::v11::basic_string_view<char>, fmt::v11::format_specs const&)
PUBLIC 2e184 0 fmt::v11::detail::for_each_codepoint<fmt::v11::detail::compute_width(fmt::v11::basic_string_view<char>)::count_code_points>(fmt::v11::basic_string_view<char>, fmt::v11::detail::compute_width(fmt::v11::basic_string_view<char>)::count_code_points)::{lambda(char const*, char const*)#1}::operator()(char const*, char const*) const
PUBLIC 2e33c 0 fmt::v11::detail::write_int<fmt::v11::basic_appender<char>, unsigned long, char>(fmt::v11::basic_appender<char>, unsigned long, unsigned int, fmt::v11::format_specs const&, fmt::v11::detail::digit_grouping<char> const&)
PUBLIC 2e8b8 0 fmt::v11::detail::write_int<fmt::v11::basic_appender<char>, unsigned __int128, char>(fmt::v11::basic_appender<char>, unsigned __int128, unsigned int, fmt::v11::format_specs const&, fmt::v11::detail::digit_grouping<char> const&)
PUBLIC 2ef40 0 <.plt ELF section in alphalaneous.editorsounds.android64.so>
STACK CFI INIT efb0 10 .cfa: sp 0 +
STACK CFI INIT efc0 8 .cfa: sp 0 +
STACK CFI INIT efc8 8 .cfa: sp 0 +
STACK CFI INIT efd0 14 .cfa: sp 0 +
STACK CFI INIT efe4 1c .cfa: sp 0 +
STACK CFI INIT f000 10 .cfa: sp 0 +
STACK CFI INIT f010 30 .cfa: sp 0 +
STACK CFI INIT f040 98 .cfa: sp 0 +
STACK CFI INIT f0d8 59c .cfa: sp 0 +
STACK CFI INIT f674 8c .cfa: sp 0 +
STACK CFI INIT f700 30 .cfa: sp 0 +
STACK CFI INIT fe98 18 .cfa: sp 0 +
STACK CFI INIT 10334 18 .cfa: sp 0 +
STACK CFI INIT 144a4 50 .cfa: sp 0 +
STACK CFI 144a8 .cfa: sp 32 +
STACK CFI 144b0 .cfa: x29 32 + x19: .cfa -16 + ^ .ra: .cfa -24 + ^ x29: .cfa -32 + ^
STACK CFI 144c8 .cfa: sp 32 +
STACK CFI 144d0 .cfa: sp 0 +
STACK CFI 144d4 .cfa: x29 32 +
STACK CFI 144e8 .cfa: sp 32 +
STACK CFI 144f0 .cfa: sp 0 +
STACK CFI INIT 14568 7c .cfa: sp 0 +
STACK CFI 1456c .cfa: sp 48 +
STACK CFI 14578 .cfa: x29 48 + x19: .cfa -8 + ^ x20: .cfa -16 + ^ x21: .cfa -32 + ^ .ra: .cfa -40 + ^ x29: .cfa -48 + ^
STACK CFI 145c4 .cfa: sp 48 +
STACK CFI 145d0 .cfa: sp 0 +
STACK CFI 145d4 .cfa: sp 48 +
STACK CFI 145e0 .cfa: sp 0 +
STACK CFI INIT 145e4 4 .cfa: sp 0 +
STACK CFI INIT 145e8 10 .cfa: sp 0 +
STACK CFI 145ec .cfa: sp 16 +
STACK CFI 145f0 .cfa: x29 16 + .ra: .cfa -8 + ^ x29: .cfa -16 + ^
STACK CFI INIT 145f8 14 .cfa: sp 0 +
STACK CFI 145fc .cfa: sp 16 +
STACK CFI 14600 .cfa: x29 16 + .ra: .cfa -8 + ^ x29: .cfa -16 + ^
STACK CFI INIT 1465c 30 .cfa: sp 0 +
STACK CFI 14660 .cfa: sp 32 +
STACK CFI 14668 .cfa: x29 32 + x19: .cfa -16 + ^ .ra: .cfa -24 + ^ x29: .cfa -32 + ^
STACK CFI 14680 .cfa: sp 32 +
STACK CFI 14688 .cfa: sp 0 +
STACK CFI INIT 1468c 34 .cfa: sp 0 +
STACK CFI 14690 .cfa: sp 32 +
STACK CFI 14698 .cfa: x29 32 + x19: .cfa -16 + ^ .ra: .cfa -24 + ^ x29: .cfa -32 + ^
STACK CFI INIT 146c0 120 .cfa: sp 0 +
STACK CFI 146c4 .cfa: sp 64 +
STACK CFI 146d4 .cfa: x29 64 + x19: .cfa -8 + ^ x20: .cfa -16 + ^ x21: .cfa -24 + ^ x22: .cfa -32 + ^ x23: .cfa -40 + ^ x24: .cfa -48 + ^ .ra: .cfa -56 + ^ x29: .cfa -64 + ^
STACK CFI 147cc .cfa: sp 64 +
STACK CFI 147dc .cfa: sp 0 +
STACK CFI INIT 147e0 7c .cfa: sp 0 +
STACK CFI 147e4 .cfa: sp 32 +
STACK CFI 147ec .cfa: x29 32 + x19: .cfa -8 + ^ x20: .cfa -16 + ^ .ra: .cfa -24 + ^ x29: .cfa -32 + ^
STACK CFI 14844 .cfa: sp 32 +
STACK CFI 1484c .cfa: sp 0 +
STACK CFI 14850 .cfa: sp 32 +
STACK CFI 14858 .cfa: sp 0 +
STACK CFI INIT 1485c 80 .cfa: sp 0 +
STACK CFI 14860 .cfa: sp 48 +
STACK CFI 1486c .cfa: x29 48 + x19: .cfa -8 + ^ x20: .cfa -16 + ^ x21: .cfa -24 + ^ x22: .cfa -32 + ^ .ra: .cfa -40 + ^ x29: .cfa -48 + ^
STACK CFI 14884 .cfa: sp 48 +
STACK CFI 14890 .cfa: sp 0 +
STACK CFI 14894 .cfa: x29 48 +
STACK CFI 148c4 .cfa: sp 48 +
STACK CFI 148d0 .cfa: sp 0 +
STACK CFI 148d4 .cfa: x29 48 +
STACK CFI INIT 148dc 1b0 .cfa: sp 0 +
STACK CFI INIT 14be0 34 .cfa: sp 0 +
STACK CFI 14be4 .cfa: sp 16 +
STACK CFI 14be8 .cfa: x29 16 + .ra: .cfa -8 + ^ x29: .cfa -16 + ^
STACK CFI INIT 14d40 80 .cfa: sp 0 +
STACK CFI 14d44 .cfa: sp 48 +
STACK CFI 14d50 .cfa: x29 48 + x19: .cfa -8 + ^ x20: .cfa -16 + ^ x21: .cfa -32 + ^ .ra: .cfa -40 + ^ x29: .cfa -48 + ^
STACK CFI 14db0 .cfa: sp 48 +
STACK CFI 14dbc .cfa: sp 0 +
STACK CFI INIT 14dc0 24 .cfa: sp 0 +
STACK CFI 14dc4 .cfa: sp 32 +
STACK CFI 14dcc .cfa: x29 32 + x19: .cfa -16 + ^ .ra: .cfa -24 + ^ x29: .cfa -32 + ^
STACK CFI 14dd8 .cfa: sp 32 +
STACK CFI 14de0 .cfa: sp 0 +
STACK CFI INIT 152dc 148 .cfa: sp 0 +
STACK CFI 152e0 .cfa: sp 48 +
STACK CFI 152ec .cfa: x29 48 + x19: .cfa -8 + ^ x20: .cfa -16 + ^ x21: .cfa -32 + ^ .ra: .cfa -40 + ^ x29: .cfa -48 + ^
STACK CFI 15414 .cfa: sp 48 +
STACK CFI 15420 .cfa: sp 0 +
STACK CFI INIT 1558c 4 .cfa: sp 0 +
STACK CFI INIT 15590 14 .cfa: sp 0 +
STACK CFI INIT 157c8 68 .cfa: sp 0 +
STACK CFI 157cc .cfa: sp 32 +
STACK CFI 157d4 .cfa: x29 32 + x19: .cfa -8 + ^ x20: .cfa -16 + ^ .ra: .cfa -24 + ^ x29: .cfa -32 + ^
STACK CFI 157ec .cfa: sp 32 +
STACK CFI 157f4 .cfa: sp 0 +
STACK CFI 157f8 .cfa: x29 32 +
STACK CFI 15824 .cfa: sp 32 +
STACK CFI 1582c .cfa: sp 0 +
STACK CFI INIT 15830 14 .cfa: sp 0 +
STACK CFI 15834 .cfa: sp 16 +
STACK CFI 15838 .cfa: x29 16 + .ra: .cfa -8 + ^ x29: .cfa -16 + ^
STACK CFI INIT 15844 4 .cfa: sp 0 +
STACK CFI INIT 15848 14 .cfa: sp 0 +
STACK CFI INIT 1585c 4a4 .cfa: sp 0 +
STACK CFI 15860 .cfa: sp 32 +
STACK CFI 15868 .cfa: x29 32 + x19: .cfa -8 + ^ x20: .cfa -16 + ^ .ra: .cfa -24 + ^ x29: .cfa -32 + ^
STACK CFI 15c48 .cfa: sp 32 +
STACK CFI 15c50 .cfa: sp 0 +
STACK CFI 15c54 .cfa: x29 32 +
STACK CFI INIT 15d00 84 .cfa: sp 0 +
STACK CFI 15d08 .cfa: sp 32 +
STACK CFI 15d10 .cfa: x29 32 + x19: .cfa -8 + ^ x20: .cfa -16 + ^ .ra: .cfa -24 + ^ x29: .cfa -32 + ^
STACK CFI 15d50 .cfa: sp 32 +
STACK CFI 15d58 .cfa: sp 0 +
STACK CFI 15d60 .cfa: x29 32 +
STACK CFI INIT 161e4 a0 .cfa: sp 0 +
STACK CFI 161e8 .cfa: sp 48 +
STACK CFI 161f4 .cfa: x29 48 + x19: .cfa -8 + ^ x20: .cfa -16 + ^ x21: .cfa -32 + ^ .ra: .cfa -40 + ^ x29: .cfa -48 + ^
STACK CFI 16274 .cfa: sp 48 +
STACK CFI 16280 .cfa: sp 0 +
STACK CFI INIT 167c8 48 .cfa: sp 0 +
STACK CFI 167cc .cfa: sp 32 +
STACK CFI 167d4 .cfa: x29 32 + x19: .cfa -8 + ^ x20: .cfa -16 + ^ .ra: .cfa -24 + ^ x29: .cfa -32 + ^
STACK CFI 16804 .cfa: sp 32 +
STACK CFI 1680c .cfa: sp 0 +
STACK CFI INIT 16d80 30 .cfa: sp 0 +
STACK CFI 16d84 .cfa: sp 32 +
STACK CFI 16d8c .cfa: x29 32 + x19: .cfa -16 + ^ .ra: .cfa -24 + ^ x29: .cfa -32 + ^
STACK CFI 16da4 .cfa: sp 32 +
STACK CFI 16dac .cfa: sp 0 +
STACK CFI INIT 16e98 2c .cfa: sp 0 +
STACK CFI 16e9c .cfa: sp 32 +
STACK CFI 16ea4 .cfa: x29 32 + x19: .cfa -16 + ^ .ra: .cfa -24 + ^ x29: .cfa -32 + ^
STACK CFI 16eb8 .cfa: sp 32 +
STACK CFI 16ec0 .cfa: sp 0 +
STACK CFI INIT 17fb8 50 .cfa: sp 0 +
STACK CFI 17fbc .cfa: sp 32 +
STACK CFI 17fc4 .cfa: x29 32 + x19: .cfa -16 + ^ .ra: .cfa -24 + ^ x29: .cfa -32 + ^
STACK CFI 17fdc .cfa: sp 32 +
STACK CFI 17fe4 .cfa: sp 0 +
STACK CFI 17fe8 .cfa: x29 32 +
STACK CFI 17ffc .cfa: sp 32 +
STACK CFI 18004 .cfa: sp 0 +
STACK CFI INIT 18008 64 .cfa: sp 0 +
STACK CFI 1800c .cfa: sp 32 +
STACK CFI 18014 .cfa: x29 32 + x19: .cfa -16 + ^ .ra: .cfa -24 + ^ x29: .cfa -32 + ^
STACK CFI 18040 .cfa: sp 32 +
STACK CFI 18048 .cfa: sp 0 +
STACK CFI 1804c .cfa: x29 32 +
STACK CFI 18060 .cfa: sp 32 +
STACK CFI 18068 .cfa: sp 0 +
STACK CFI INIT 1806c 14 .cfa: sp 0 +
STACK CFI 18070 .cfa: sp 16 +
STACK CFI 18074 .cfa: x29 16 + .ra: .cfa -8 + ^ x29: .cfa -16 + ^
STACK CFI INIT 186d8 8 .cfa: sp 0 +
STACK CFI INIT 186e0 14 .cfa: sp 0 +
STACK CFI 186e4 .cfa: sp 16 +
STACK CFI 186e8 .cfa: x29 16 + .ra: .cfa -8 + ^ x29: .cfa -16 + ^
STACK CFI INIT 186f4 14 .cfa: sp 0 +
STACK CFI 186f8 .cfa: sp 16 +
STACK CFI 186fc .cfa: x29 16 + .ra: .cfa -8 + ^ x29: .cfa -16 + ^
STACK CFI INIT 18708 c .cfa: sp 0 +
STACK CFI 1870c .cfa: sp 16 +
STACK CFI 18710 .cfa: x29 16 + .ra: .cfa -8 + ^ x29: .cfa -16 + ^
STACK CFI INIT 18764 30 .cfa: sp 0 +
STACK CFI 18768 .cfa: sp 32 +
STACK CFI 18770 .cfa: x29 32 + x19: .cfa -16 + ^ .ra: .cfa -24 + ^ x29: .cfa -32 + ^
STACK CFI 18788 .cfa: sp 32 +
STACK CFI 18790 .cfa: sp 0 +
STACK CFI INIT 18794 c .cfa: sp 0 +
STACK CFI 18798 .cfa: sp 16 +
STACK CFI 1879c .cfa: x29 16 + .ra: .cfa -8 + ^ x29: .cfa -16 + ^
STACK CFI INIT 187a0 48 .cfa: sp 0 +
STACK CFI 187a8 .cfa: sp 32 +
STACK CFI 187b0 .cfa: x29 32 + x19: .cfa -16 + ^ .ra: .cfa -24 + ^ x29: .cfa -32 + ^
STACK CFI 187d8 .cfa: sp 32 +
STACK CFI 187e0 .cfa: sp 0 +
STACK CFI INIT 187e8 4 .cfa: sp 0 +
STACK CFI INIT 187ec 4 .cfa: sp 0 +
STACK CFI INIT 187f0 38 .cfa: sp 0 +
STACK CFI 187f4 .cfa: sp 32 +
STACK CFI 187fc .cfa: x29 32 + x19: .cfa -16 + ^ .ra: .cfa -24 + ^ x29: .cfa -32 + ^
STACK CFI 1881c .cfa: sp 32 +
STACK CFI 18824 .cfa: sp 0 +
STACK CFI INIT 18828 18 .cfa: sp 0 +
STACK CFI INIT 18840 4 .cfa: sp 0 +
STACK CFI INIT 18844 4 .cfa: sp 0 +
STACK CFI INIT 18848 10 .cfa: sp 0 +
STACK CFI INIT 18858 1c .cfa: sp 0 +
STACK CFI INIT 18874 c .cfa: sp 0 +
STACK CFI INIT 18e24 50 .cfa: sp 0 +
STACK CFI 18e48 .cfa: sp 32 +
STACK CFI 18e50 .cfa: x29 32 + x19: .cfa -16 + ^ .ra: .cfa -24 + ^ x29: .cfa -32 + ^
STACK CFI 18e64 .cfa: sp 32 +
STACK CFI 18e6c .cfa: sp 0 +
STACK CFI INIT 18e74 168 .cfa: sp 0 +
STACK CFI 18e78 .cfa: sp 80 +
STACK CFI 18e8c .cfa: x29 80 + x19: .cfa -8 + ^ x20: .cfa -16 + ^ x21: .cfa -24 + ^ x22: .cfa -32 + ^ x23: .cfa -40 + ^ x24: .cfa -48 + ^ x25: .cfa -56 + ^ x26: .cfa -64 + ^ .ra: .cfa -72 + ^ x29: .cfa -80 + ^
STACK CFI 18fc4 .cfa: sp 80 +
STACK CFI 18fd8 .cfa: sp 0 +
STACK CFI INIT 19750 4 .cfa: sp 0 +
STACK CFI INIT 19754 214 .cfa: sp 0 +
STACK CFI 19758 .cfa: sp 64 +
STACK CFI 19768 .cfa: x29 64 + x19: .cfa -8 + ^ x20: .cfa -16 + ^ x21: .cfa -24 + ^ x22: .cfa -32 + ^ x23: .cfa -48 + ^ .ra: .cfa -56 + ^ x29: .cfa -64 + ^
STACK CFI 19954 .cfa: sp 64 +
STACK CFI 19964 .cfa: sp 0 +
STACK CFI INIT 19b58 f8 .cfa: sp 0 +
STACK CFI 19b5c .cfa: sp 64 +
STACK CFI 19b6c .cfa: x29 64 + x19: .cfa -8 + ^ x20: .cfa -16 + ^ x21: .cfa -24 + ^ x22: .cfa -32 + ^ x23: .cfa -48 + ^ .ra: .cfa -56 + ^ x29: .cfa -64 + ^
STACK CFI 19bc8 .cfa: sp 64 +
STACK CFI 19bd8 .cfa: sp 0 +
STACK CFI 19bdc .cfa: x29 64 +
STACK CFI 19bf8 .cfa: sp 64 +
STACK CFI 19c08 .cfa: sp 0 +
STACK CFI 19c0c .cfa: x29 64 +
STACK CFI 19c3c .cfa: sp 64 +
STACK CFI 19c4c .cfa: sp 0 +
STACK CFI INIT 19c50 3c .cfa: sp 0 +
STACK CFI 19c54 .cfa: sp 32 +
STACK CFI 19c5c .cfa: x29 32 + x19: .cfa -16 + ^ .ra: .cfa -24 + ^ x29: .cfa -32 + ^
STACK CFI 19c68 .cfa: sp 32 +
STACK CFI 19c70 .cfa: sp 0 +
STACK CFI 19c74 .cfa: x29 32 +
STACK CFI 19c80 .cfa: sp 32 +
STACK CFI 19c88 .cfa: sp 0 +
STACK CFI INIT 19c8c 4c .cfa: sp 0 +
STACK CFI 19c90 .cfa: sp 32 +
STACK CFI 19c98 .cfa: x29 32 + x19: .cfa -8 + ^ x20: .cfa -16 + ^ .ra: .cfa -24 + ^ x29: .cfa -32 + ^
STACK CFI 19cc0 .cfa: sp 32 +
STACK CFI 19cc8 .cfa: sp 0 +
STACK CFI 19ccc .cfa: sp 32 +
STACK CFI 19cd4 .cfa: sp 0 +
STACK CFI INIT 19ef8 64 .cfa: sp 0 +
STACK CFI 19efc .cfa: sp 32 +
STACK CFI 19f04 .cfa: x29 32 + x19: .cfa -16 + ^ .ra: .cfa -24 + ^ x29: .cfa -32 + ^
STACK CFI 19f30 .cfa: sp 32 +
STACK CFI 19f38 .cfa: sp 0 +
STACK CFI 19f3c .cfa: x29 32 +
STACK CFI 19f50 .cfa: sp 32 +
STACK CFI 19f58 .cfa: sp 0 +
STACK CFI INIT 19f5c 24 .cfa: sp 0 +
STACK CFI 19f60 .cfa: sp 32 +
STACK CFI 19f68 .cfa: x29 32 + x19: .cfa -16 + ^ .ra: .cfa -24 + ^ x29: .cfa -32 + ^
STACK CFI 19f74 .cfa: sp 32 +
STACK CFI 19f7c .cfa: sp 0 +
STACK CFI INIT 19f80 24 .cfa: sp 0 +
STACK CFI 19f84 .cfa: sp 32 +
STACK CFI 19f8c .cfa: x29 32 + x19: .cfa -16 + ^ .ra: .cfa -24 + ^ x29: .cfa -32 + ^
STACK CFI 19f98 .cfa: sp 32 +
STACK CFI 19fa0 .cfa: sp 0 +
STACK CFI INIT 19fa4 8 .cfa: sp 0 +
STACK CFI INIT 19fac 24 .cfa: sp 0 +
STACK CFI 19fb0 .cfa: sp 32 +
STACK CFI 19fb8 .cfa: x29 32 + x19: .cfa -16 + ^ .ra: .cfa -24 + ^ x29: .cfa -32 + ^
STACK CFI 19fc4 .cfa: sp 32 +
STACK CFI 19fcc .cfa: sp 0 +
STACK CFI INIT 19fd0 28 .cfa: sp 0 +
STACK CFI 19fd4 .cfa: sp 32 +
STACK CFI 19fdc .cfa: x29 32 + x19: .cfa -16 + ^ .ra: .cfa -24 + ^ x29: .cfa -32 + ^
STACK CFI 19fec .cfa: sp 32 +
STACK CFI 19ff4 .cfa: sp 0 +
STACK CFI INIT 1b4c8 8 .cfa: sp 0 +
STACK CFI INIT 1b4d0 4 .cfa: sp 0 +
STACK CFI INIT 1b4d4 4 .cfa: sp 0 +
STACK CFI INIT 1b4d8 4 .cfa: sp 0 +
STACK CFI INIT 1b4dc 4 .cfa: sp 0 +
STACK CFI INIT 1b4e0 4 .cfa: sp 0 +
STACK CFI INIT 1c044 4 .cfa: sp 0 +
STACK CFI INIT 1c048 14 .cfa: sp 0 +
STACK CFI INIT 1c53c c .cfa: sp 0 +
STACK CFI INIT 1c548 24c .cfa: sp 0 +
STACK CFI INIT 1c794 a0 .cfa: sp 0 +
STACK CFI 1c7a0 .cfa: sp 32 +
STACK CFI 1c7f8 .cfa: sp 0 +
STACK CFI 1c7fc .cfa: sp 32 +
STACK CFI 1c804 .cfa: sp 0 +
STACK CFI 1c808 .cfa: sp 32 +
STACK CFI 1c81c .cfa: sp 0 +
STACK CFI 1c820 .cfa: sp 32 +
STACK CFI 1c830 .cfa: sp 0 +
STACK CFI INIT 1c834 38 .cfa: sp 0 +
STACK CFI 1c840 .cfa: sp 32 +
STACK CFI 1c868 .cfa: sp 0 +
STACK CFI INIT 1cb00 7c .cfa: sp 0 +
STACK CFI 1cb04 .cfa: sp 32 +
STACK CFI 1cb0c .cfa: x29 32 + x19: .cfa -16 + ^ .ra: .cfa -24 + ^ x29: .cfa -32 + ^
STACK CFI 1cb38 .cfa: sp 32 +
STACK CFI 1cb40 .cfa: sp 0 +
STACK CFI 1cb44 .cfa: x29 32 +
STACK CFI 1cb70 .cfa: sp 32 +
STACK CFI 1cb78 .cfa: sp 0 +
STACK CFI INIT 1cbcc 2c .cfa: sp 0 +
STACK CFI 1cbd0 .cfa: sp 32 +
STACK CFI 1cbd8 .cfa: x29 32 + x19: .cfa -16 + ^ .ra: .cfa -24 + ^ x29: .cfa -32 + ^
STACK CFI 1cbec .cfa: sp 32 +
STACK CFI 1cbf4 .cfa: sp 0 +
STACK CFI INIT 1d3b8 64 .cfa: sp 0 +
STACK CFI 1d3bc .cfa: sp 32 +
STACK CFI 1d3c4 .cfa: x29 32 + x19: .cfa -16 + ^ .ra: .cfa -24 + ^ x29: .cfa -32 + ^
STACK CFI 1d3e0 .cfa: sp 32 +
STACK CFI 1d3e8 .cfa: sp 0 +
STACK CFI 1d3ec .cfa: x29 32 +
STACK CFI 1d410 .cfa: sp 32 +
STACK CFI 1d418 .cfa: sp 0 +
STACK CFI INIT 1d41c 570 .cfa: sp 0 +
STACK CFI 1d420 .cfa: sp 176 +
STACK CFI 1d434 .cfa: x29 64 + x19: .cfa -8 + ^ x20: .cfa -16 + ^ x21: .cfa -24 + ^ x22: .cfa -32 + ^ x23: .cfa -40 + ^ x24: .cfa -48 + ^ .ra: .cfa -56 + ^ x29: .cfa -64 + ^
STACK CFI 1d664 .cfa: sp 176 +
STACK CFI 1d678 .cfa: sp 0 +
STACK CFI 1d67c .cfa: x29 64 +
STACK CFI 1d6c8 .cfa: sp 176 +
STACK CFI 1d6dc .cfa: sp 0 +
STACK CFI 1d6e0 .cfa: x29 64 +
STACK CFI 1d718 .cfa: sp 176 +
STACK CFI 1d72c .cfa: sp 0 +
STACK CFI 1d730 .cfa: x29 64 +
STACK CFI 1d748 .cfa: sp 176 +
STACK CFI 1d75c .cfa: sp 0 +
STACK CFI 1d760 .cfa: x29 64 +
STACK CFI 1d780 .cfa: sp 176 +
STACK CFI 1d794 .cfa: sp 0 +
STACK CFI 1d798 .cfa: x29 64 +
STACK CFI 1d7b0 .cfa: sp 176 +
STACK CFI 1d7c4 .cfa: sp 0 +
STACK CFI 1d7c8 .cfa: x29 64 +
STACK CFI 1d7dc .cfa: sp 176 +
STACK CFI 1d7f0 .cfa: sp 0 +
STACK CFI 1d7f4 .cfa: x29 64 +
STACK CFI 1d808 .cfa: sp 176 +
STACK CFI 1d81c .cfa: sp 0 +
STACK CFI 1d820 .cfa: x29 64 +
STACK CFI 1d830 .cfa: sp 176 +
STACK CFI 1d844 .cfa: sp 0 +
STACK CFI 1d848 .cfa: x29 64 +
STACK CFI 1d858 .cfa: sp 176 +
STACK CFI 1d86c .cfa: sp 0 +
STACK CFI 1d870 .cfa: x29 64 +
STACK CFI 1d888 .cfa: sp 176 +
STACK CFI 1d89c .cfa: sp 0 +
STACK CFI 1d8a0 .cfa: x29 64 +
STACK CFI 1d8b4 .cfa: sp 176 +
STACK CFI 1d8c8 .cfa: sp 0 +
STACK CFI 1d8cc .cfa: x29 64 +
STACK CFI 1d8e4 .cfa: sp 176 +
STACK CFI 1d8f8 .cfa: sp 0 +
STACK CFI 1d8fc .cfa: x29 64 +
STACK CFI 1d928 .cfa: sp 176 +
STACK CFI 1d93c .cfa: sp 0 +
STACK CFI 1d940 .cfa: x29 64 +
STACK CFI 1d954 .cfa: sp 176 +
STACK CFI 1d968 .cfa: sp 0 +
STACK CFI 1d96c .cfa: x29 64 +
STACK CFI INIT 1d98c 228 .cfa: sp 0 +
STACK CFI INIT 1dbb4 2dc .cfa: sp 0 +
STACK CFI INIT 1de90 53c .cfa: sp 0 +
STACK CFI INIT 1e3cc 78 .cfa: sp 0 +
STACK CFI 1e3d0 .cfa: sp 48 +
STACK CFI 1e3dc .cfa: x29 48 + x19: .cfa -8 + ^ x20: .cfa -16 + ^ x21: .cfa -24 + ^ x22: .cfa -32 + ^ .ra: .cfa -40 + ^ x29: .cfa -48 + ^
STACK CFI 1e424 .cfa: sp 48 +
STACK CFI 1e430 .cfa: sp 0 +
STACK CFI 1e434 .cfa: sp 48 +
STACK CFI 1e440 .cfa: sp 0 +
STACK CFI INIT 1e444 8c .cfa: sp 0 +
STACK CFI 1e448 .cfa: sp 32 +
STACK CFI 1e450 .cfa: x29 32 + x19: .cfa -16 + ^ .ra: .cfa -24 + ^ x29: .cfa -32 + ^
STACK CFI 1e484 .cfa: sp 32 +
STACK CFI 1e48c .cfa: sp 0 +
STACK CFI 1e490 .cfa: x29 32 +
STACK CFI 1e4c4 .cfa: sp 32 +
STACK CFI 1e4cc .cfa: sp 0 +
STACK CFI INIT 1e4d0 24 .cfa: sp 0 +
STACK CFI 1e4d4 .cfa: sp 32 +
STACK CFI 1e4dc .cfa: x29 32 + x19: .cfa -16 + ^ .ra: .cfa -24 + ^ x29: .cfa -32 + ^
STACK CFI 1e4e8 .cfa: sp 32 +
STACK CFI 1e4f0 .cfa: sp 0 +
STACK CFI INIT 1e4f4 150 .cfa: sp 0 +
STACK CFI 1e4f8 .cfa: sp 48 +
STACK CFI 1e504 .cfa: x29 48 + x19: .cfa -8 + ^ x20: .cfa -16 + ^ x21: .cfa -24 + ^ x22: .cfa -32 + ^ .ra: .cfa -40 + ^ x29: .cfa -48 + ^
STACK CFI 1e634 .cfa: sp 48 +
STACK CFI 1e640 .cfa: sp 0 +
STACK CFI INIT 1e644 68 .cfa: sp 0 +
STACK CFI 1e648 .cfa: sp 64 +
STACK CFI 1e654 .cfa: x29 32 + x19: .cfa -16 + ^ .ra: .cfa -24 + ^ x29: .cfa -32 + ^
STACK CFI 1e698 .cfa: sp 64 +
STACK CFI 1e6a4 .cfa: sp 0 +
STACK CFI 1e6a8 .cfa: x29 32 +
STACK CFI INIT 1e6ac 90 .cfa: sp 0 +
STACK CFI 1e6b0 .cfa: sp 32 +
STACK CFI 1e6b8 .cfa: x29 32 + x19: .cfa -8 + ^ x20: .cfa -16 + ^ .ra: .cfa -24 + ^ x29: .cfa -32 + ^
STACK CFI 1e6e4 .cfa: sp 32 +
STACK CFI 1e6ec .cfa: sp 0 +
STACK CFI 1e6f0 .cfa: x29 32 +
STACK CFI 1e730 .cfa: sp 32 +
STACK CFI 1e738 .cfa: sp 0 +
STACK CFI INIT 1e73c ec .cfa: sp 0 +
STACK CFI 1e740 .cfa: sp 112 +
STACK CFI 1e750 .cfa: x29 48 + x19: .cfa -8 + ^ x20: .cfa -16 + ^ x21: .cfa -32 + ^ .ra: .cfa -40 + ^ x29: .cfa -48 + ^
STACK CFI 1e810 .cfa: sp 112 +
STACK CFI 1e820 .cfa: sp 0 +
STACK CFI 1e824 .cfa: x29 48 +
STACK CFI INIT 1e828 ec .cfa: sp 0 +
STACK CFI 1e82c .cfa: sp 112 +
STACK CFI 1e83c .cfa: x29 48 + x19: .cfa -8 + ^ x20: .cfa -16 + ^ x21: .cfa -32 + ^ .ra: .cfa -40 + ^ x29: .cfa -48 + ^
STACK CFI 1e8fc .cfa: sp 112 +
STACK CFI 1e90c .cfa: sp 0 +
STACK CFI 1e910 .cfa: x29 48 +
STACK CFI INIT 1e914 48 .cfa: sp 0 +
STACK CFI 1e918 .cfa: sp 32 +
STACK CFI 1e920 .cfa: x29 32 + x19: .cfa -8 + ^ x20: .cfa -16 + ^ .ra: .cfa -24 + ^ x29: .cfa -32 + ^
STACK CFI 1e944 .cfa: sp 32 +
STACK CFI 1e94c .cfa: sp 0 +
STACK CFI 1e950 .cfa: x29 32 +
STACK CFI INIT 1e95c 98 .cfa: sp 0 +
STACK CFI 1e960 .cfa: sp 80 +
STACK CFI 1e96c .cfa: x29 32 + x19: .cfa -16 + ^ .ra: .cfa -24 + ^ x29: .cfa -32 + ^
STACK CFI 1e9e0 .cfa: sp 80 +
STACK CFI 1e9ec .cfa: sp 0 +
STACK CFI 1e9f0 .cfa: x29 32 +
STACK CFI INIT 1e9f4 260 .cfa: sp 0 +
STACK CFI 1e9f8 .cfa: sp 112 +
STACK CFI 1ea10 .cfa: x29 80 + x19: .cfa -8 + ^ x20: .cfa -16 + ^ x21: .cfa -24 + ^ x22: .cfa -32 + ^ x23: .cfa -40 + ^ x24: .cfa -48 + ^ x25: .cfa -64 + ^ .ra: .cfa -72 + ^ x29: .cfa -80 + ^
STACK CFI 1ebf4 .cfa: sp 112 +
STACK CFI 1ec0c .cfa: sp 0 +
STACK CFI 1ec10 .cfa: x29 80 +
STACK CFI INIT 1ec54 150 .cfa: sp 0 +
STACK CFI 1ec58 .cfa: sp 48 +
STACK CFI 1ec64 .cfa: x29 48 + x19: .cfa -8 + ^ x20: .cfa -16 + ^ x21: .cfa -24 + ^ x22: .cfa -32 + ^ .ra: .cfa -40 + ^ x29: .cfa -48 + ^
STACK CFI 1ed94 .cfa: sp 48 +
STACK CFI 1eda0 .cfa: sp 0 +
STACK CFI INIT 1eda4 1e0 .cfa: sp 0 +
STACK CFI 1eda8 .cfa: sp 96 +
STACK CFI 1edbc .cfa: x29 64 + x19: .cfa -8 + ^ x20: .cfa -16 + ^ x21: .cfa -24 + ^ x22: .cfa -32 + ^ x23: .cfa -40 + ^ x24: .cfa -48 + ^ .ra: .cfa -56 + ^ x29: .cfa -64 + ^
STACK CFI 1ef3c .cfa: sp 96 +
STACK CFI 1ef50 .cfa: sp 0 +
STACK CFI 1ef54 .cfa: x29 64 +
STACK CFI INIT 1ef84 284 .cfa: sp 0 +
STACK CFI 1ef88 .cfa: sp 112 +
STACK CFI 1efa0 .cfa: x29 80 + x19: .cfa -8 + ^ x20: .cfa -16 + ^ x21: .cfa -24 + ^ x22: .cfa -32 + ^ x23: .cfa -40 + ^ x24: .cfa -48 + ^ x25: .cfa -64 + ^ .ra: .cfa -72 + ^ x29: .cfa -80 + ^
STACK CFI 1f1a8 .cfa: sp 112 +
STACK CFI 1f1c0 .cfa: sp 0 +
STACK CFI 1f1c4 .cfa: x29 80 +
STACK CFI INIT 1f208 208 .cfa: sp 0 +
STACK CFI 1f20c .cfa: sp 96 +
STACK CFI 1f220 .cfa: x29 64 + x19: .cfa -8 + ^ x20: .cfa -16 + ^ x21: .cfa -24 + ^ x22: .cfa -32 + ^ x23: .cfa -40 + ^ x24: .cfa -48 + ^ .ra: .cfa -56 + ^ x29: .cfa -64 + ^
STACK CFI 1f3c8 .cfa: sp 96 +
STACK CFI 1f3dc .cfa: sp 0 +
STACK CFI 1f3e0 .cfa: x29 64 +
STACK CFI INIT 1f410 360 .cfa: sp 0 +
STACK CFI 1f414 .cfa: sp 160 +
STACK CFI 1f430 .cfa: x29 96 + x19: .cfa -8 + ^ x20: .cfa -16 + ^ x21: .cfa -24 + ^ x22: .cfa -32 + ^ x23: .cfa -40 + ^ x24: .cfa -48 + ^ x25: .cfa -56 + ^ x26: .cfa -64 + ^ x27: .cfa -72 + ^ x28: .cfa -80 + ^ .ra: .cfa -88 + ^ x29: .cfa -96 + ^
STACK CFI 1f6fc .cfa: sp 160 +
STACK CFI 1f718 .cfa: sp 0 +
STACK CFI 1f71c .cfa: x29 96 +
STACK CFI INIT 1f770 314 .cfa: sp 0 +
STACK CFI 1f774 .cfa: sp 144 +
STACK CFI 1f790 .cfa: x29 96 + x19: .cfa -8 + ^ x20: .cfa -16 + ^ x21: .cfa -24 + ^ x22: .cfa -32 + ^ x23: .cfa -40 + ^ x24: .cfa -48 + ^ x25: .cfa -56 + ^ x26: .cfa -64 + ^ x27: .cfa -72 + ^ x28: .cfa -80 + ^ .ra: .cfa -88 + ^ x29: .cfa -96 + ^
STACK CFI 1fa0c .cfa: sp 144 +
STACK CFI 1fa28 .cfa: sp 0 +
STACK CFI 1fa2c .cfa: x29 96 +
STACK CFI INIT 1fa84 290 .cfa: sp 0 +
STACK CFI 1fa88 .cfa: sp 128 +
STACK CFI 1faa0 .cfa: x29 80 + x19: .cfa -8 + ^ x20: .cfa -16 + ^ x21: .cfa -24 + ^ x22: .cfa -32 + ^ x23: .cfa -40 + ^ x24: .cfa -48 + ^ x25: .cfa -56 + ^ x26: .cfa -64 + ^ .ra: .cfa -72 + ^ x29: .cfa -80 + ^
STACK CFI 1fcf4 .cfa: sp 128 +
STACK CFI 1fd0c .cfa: sp 0 +
STACK CFI 1fd10 .cfa: x29 80 +
STACK CFI INIT 1fd14 ddc .cfa: sp 0 +
STACK CFI 1fd18 .cfa: sp 144 +
STACK CFI 1fd34 .cfa: x29 96 + x19: .cfa -8 + ^ x20: .cfa -16 + ^ x21: .cfa -24 + ^ x22: .cfa -32 + ^ x23: .cfa -40 + ^ x24: .cfa -48 + ^ x25: .cfa -56 + ^ x26: .cfa -64 + ^ x27: .cfa -72 + ^ x28: .cfa -80 + ^ .ra: .cfa -88 + ^ x29: .cfa -96 + ^
STACK CFI 209c8 .cfa: sp 144 +
STACK CFI 209e4 .cfa: sp 0 +
STACK CFI 209e8 .cfa: x29 96 +
STACK CFI INIT 20af0 1d0 .cfa: sp 0 +
STACK CFI 20af4 .cfa: sp 80 +
STACK CFI 20b08 .cfa: x29 80 + x19: .cfa -8 + ^ x20: .cfa -16 + ^ x21: .cfa -24 + ^ x22: .cfa -32 + ^ x23: .cfa -40 + ^ x24: .cfa -48 + ^ x25: .cfa -64 + ^ .ra: .cfa -72 + ^ x29: .cfa -80 + ^
STACK CFI 20ca8 .cfa: sp 80 +
STACK CFI 20cbc .cfa: sp 0 +
STACK CFI INIT 20cc0 23c .cfa: sp 0 +
STACK CFI 20cc4 .cfa: sp 112 +
STACK CFI 20cd8 .cfa: x29 64 + x19: .cfa -8 + ^ x20: .cfa -16 + ^ x21: .cfa -24 + ^ x22: .cfa -32 + ^ x23: .cfa -40 + ^ x24: .cfa -48 + ^ .ra: .cfa -56 + ^ x29: .cfa -64 + ^
STACK CFI 20eb4 .cfa: sp 112 +
STACK CFI 20ec8 .cfa: sp 0 +
STACK CFI 20ecc .cfa: x29 64 +
STACK CFI INIT 20efc 30c .cfa: sp 0 +
STACK CFI 20f00 .cfa: sp 80 +
STACK CFI 20f14 .cfa: x29 64 + x19: .cfa -8 + ^ x20: .cfa -16 + ^ x21: .cfa -24 + ^ x22: .cfa -32 + ^ x23: .cfa -40 + ^ x24: .cfa -48 + ^ .ra: .cfa -56 + ^ x29: .cfa -64 + ^
STACK CFI 21090 .cfa: sp 80 +
STACK CFI 210a4 .cfa: sp 0 +
STACK CFI 210a8 .cfa: x29 64 +
STACK CFI INIT 21208 178 .cfa: sp 0 +
STACK CFI 2120c .cfa: sp 80 +
STACK CFI 21220 .cfa: x29 64 + x19: .cfa -8 + ^ x20: .cfa -16 + ^ x21: .cfa -24 + ^ x22: .cfa -32 + ^ x23: .cfa -40 + ^ x24: .cfa -48 + ^ .ra: .cfa -56 + ^ x29: .cfa -64 + ^
STACK CFI 21364 .cfa: sp 80 +
STACK CFI 21378 .cfa: sp 0 +
STACK CFI 2137c .cfa: x29 64 +
STACK CFI INIT 21380 178 .cfa: sp 0 +
STACK CFI 21384 .cfa: sp 80 +
STACK CFI 21398 .cfa: x29 64 + x19: .cfa -8 + ^ x20: .cfa -16 + ^ x21: .cfa -24 + ^ x22: .cfa -32 + ^ x23: .cfa -40 + ^ x24: .cfa -48 + ^ .ra: .cfa -56 + ^ x29: .cfa -64 + ^
STACK CFI 214dc .cfa: sp 80 +
STACK CFI 214f0 .cfa: sp 0 +
STACK CFI 214f4 .cfa: x29 64 +
STACK CFI INIT 214f8 240 .cfa: sp 0 +
STACK CFI 214fc .cfa: sp 96 +
STACK CFI 21514 .cfa: x29 96 + x19: .cfa -8 + ^ x20: .cfa -16 + ^ x21: .cfa -24 + ^ x22: .cfa -32 + ^ x23: .cfa -40 + ^ x24: .cfa -48 + ^ x25: .cfa -56 + ^ x26: .cfa -64 + ^ x27: .cfa -72 + ^ x28: .cfa -80 + ^ .ra: .cfa -88 + ^ x29: .cfa -96 + ^
STACK CFI 2171c .cfa: sp 96 +
STACK CFI 21734 .cfa: sp 0 +
STACK CFI INIT 223ac 154 .cfa: sp 0 +
STACK CFI 223b0 .cfa: sp 96 +
STACK CFI 223c4 .cfa: x29 64 + x19: .cfa -8 + ^ x20: .cfa -16 + ^ x21: .cfa -24 + ^ x22: .cfa -32 + ^ x23: .cfa -48 + ^ .ra: .cfa -56 + ^ x29: .cfa -64 + ^
STACK CFI 224a4 .cfa: sp 96 +
STACK CFI 224b8 .cfa: sp 0 +
STACK CFI 224bc .cfa: x29 64 +
STACK CFI INIT 2276c 44 .cfa: sp 0 +
STACK CFI 22770 .cfa: sp 32 +
STACK CFI 22778 .cfa: x29 32 + x19: .cfa -16 + ^ .ra: .cfa -24 + ^ x29: .cfa -32 + ^
STACK CFI 22794 .cfa: sp 32 +
STACK CFI 2279c .cfa: sp 0 +
STACK CFI 227a0 .cfa: x29 32 +
STACK CFI 227a4 .cfa: sp 32 +
STACK CFI 227ac .cfa: sp 0 +
STACK CFI INIT 227b0 1d0 .cfa: sp 0 +
STACK CFI 227b4 .cfa: sp 64 +
STACK CFI 227c4 .cfa: x29 64 + x19: .cfa -8 + ^ x20: .cfa -16 + ^ x21: .cfa -24 + ^ x22: .cfa -32 + ^ x23: .cfa -40 + ^ x24: .cfa -48 + ^ .ra: .cfa -56 + ^ x29: .cfa -64 + ^
STACK CFI 22884 .cfa: sp 64 +
STACK CFI 22894 .cfa: sp 0 +
STACK CFI 22898 .cfa: x29 64 +
STACK CFI INIT 22980 17c .cfa: sp 0 +
STACK CFI INIT 22afc ac .cfa: sp 0 +
STACK CFI 22b00 .cfa: sp 64 +
STACK CFI 22b10 .cfa: x29 64 + x19: .cfa -8 + ^ x20: .cfa -16 + ^ x21: .cfa -24 + ^ x22: .cfa -32 + ^ x23: .cfa -48 + ^ .ra: .cfa -56 + ^ x29: .cfa -64 + ^
STACK CFI 22b8c .cfa: sp 64 +
STACK CFI 22b9c .cfa: sp 0 +
STACK CFI 22ba0 .cfa: x29 64 +
STACK CFI INIT 22ba8 110 .cfa: sp 0 +
STACK CFI 22bac .cfa: sp 64 +
STACK CFI 22bbc .cfa: x29 64 + x19: .cfa -8 + ^ x20: .cfa -16 + ^ x21: .cfa -24 + ^ x22: .cfa -32 + ^ x23: .cfa -40 + ^ x24: .cfa -48 + ^ .ra: .cfa -56 + ^ x29: .cfa -64 + ^
STACK CFI 22c9c .cfa: sp 64 +
STACK CFI 22cac .cfa: sp 0 +
STACK CFI 22cb0 .cfa: x29 64 +
STACK CFI INIT 23070 a0 .cfa: sp 0 +
STACK CFI 23074 .cfa: sp 48 +
STACK CFI 23080 .cfa: x29 48 + x19: .cfa -8 + ^ x20: .cfa -16 + ^ x21: .cfa -24 + ^ x22: .cfa -32 + ^ .ra: .cfa -40 + ^ x29: .cfa -48 + ^
STACK CFI 230ec .cfa: sp 48 +
STACK CFI 230f8 .cfa: sp 0 +
STACK CFI 230fc .cfa: sp 48 +
STACK CFI 23108 .cfa: sp 0 +
STACK CFI 2310c .cfa: x29 48 +
STACK CFI INIT 23dc4 158 .cfa: sp 0 +
STACK CFI 23dc8 .cfa: sp 96 +
STACK CFI 23ddc .cfa: x29 64 + x19: .cfa -8 + ^ x20: .cfa -16 + ^ x21: .cfa -24 + ^ x22: .cfa -32 + ^ x23: .cfa -48 + ^ .ra: .cfa -56 + ^ x29: .cfa -64 + ^
STACK CFI 23ec0 .cfa: sp 96 +
STACK CFI 23ed4 .cfa: sp 0 +
STACK CFI 23ed8 .cfa: x29 64 +
STACK CFI INIT 23f1c 190 .cfa: sp 0 +
STACK CFI INIT 24ba8 1dc .cfa: sp 0 +
STACK CFI 24bac .cfa: sp 80 +
STACK CFI 24bc0 .cfa: x29 80 + x19: .cfa -8 + ^ x20: .cfa -16 + ^ x21: .cfa -24 + ^ x22: .cfa -32 + ^ x23: .cfa -40 + ^ x24: .cfa -48 + ^ x25: .cfa -64 + ^ .ra: .cfa -72 + ^ x29: .cfa -80 + ^
STACK CFI 24d6c .cfa: sp 80 +
STACK CFI 24d80 .cfa: sp 0 +
STACK CFI INIT 261b4 124 .cfa: sp 0 +
STACK CFI 261e4 .cfa: sp 32 +
STACK CFI 261ec .cfa: x29 32 + x19: .cfa -8 + ^ x20: .cfa -16 + ^ .ra: .cfa -24 + ^ x29: .cfa -32 + ^
STACK CFI 262cc .cfa: sp 32 +
STACK CFI 262d4 .cfa: sp 0 +
STACK CFI INIT 26a34 320 .cfa: sp 0 +
STACK CFI 26a38 .cfa: sp 64 +
STACK CFI 26a48 .cfa: x29 64 + x19: .cfa -8 + ^ x20: .cfa -16 + ^ x21: .cfa -24 + ^ x22: .cfa -32 + ^ x23: .cfa -40 + ^ x24: .cfa -48 + ^ .ra: .cfa -56 + ^ x29: .cfa -64 + ^
STACK CFI 26ac4 .cfa: sp 64 +
STACK CFI 26ad4 .cfa: sp 0 +
STACK CFI 26ad8 .cfa: x29 64 +
STACK CFI 26cac .cfa: sp 64 +
STACK CFI 26cbc .cfa: sp 0 +
STACK CFI 26cc0 .cfa: x29 64 +
STACK CFI 26cd0 .cfa: sp 64 +
STACK CFI 26ce0 .cfa: sp 0 +
STACK CFI 26ce4 .cfa: x29 64 +
STACK CFI INIT 26d54 a0 .cfa: sp 0 +
STACK CFI 26d58 .cfa: sp 48 +
STACK CFI 26d64 .cfa: x29 48 + x19: .cfa -8 + ^ x20: .cfa -16 + ^ x21: .cfa -24 + ^ x22: .cfa -32 + ^ .ra: .cfa -40 + ^ x29: .cfa -48 + ^
STACK CFI 26dd0 .cfa: sp 48 +
STACK CFI 26ddc .cfa: sp 0 +
STACK CFI 26de0 .cfa: sp 48 +
STACK CFI 26dec .cfa: sp 0 +
STACK CFI 26df0 .cfa: x29 48 +
STACK CFI INIT 27ca4 160 .cfa: sp 0 +
STACK CFI 27ca8 .cfa: sp 64 +
STACK CFI 27cb8 .cfa: x29 64 + x19: .cfa -8 + ^ x20: .cfa -16 + ^ x21: .cfa -24 + ^ x22: .cfa -32 + ^ x23: .cfa -48 + ^ .ra: .cfa -56 + ^ x29: .cfa -64 + ^
STACK CFI 27db0 .cfa: sp 64 +
STACK CFI 27dc0 .cfa: sp 0 +
STACK CFI 27dc4 .cfa: x29 64 +
STACK CFI INIT 27e04 214 .cfa: sp 0 +
STACK CFI 27e08 .cfa: sp 128 +
STACK CFI 27e24 .cfa: x29 96 + x19: .cfa -8 + ^ x20: .cfa -16 + ^ x21: .cfa -24 + ^ x22: .cfa -32 + ^ x23: .cfa -40 + ^ x24: .cfa -48 + ^ x25: .cfa -56 + ^ x26: .cfa -64 + ^ x27: .cfa -80 + ^ .ra: .cfa -88 + ^ x29: .cfa -96 + ^
STACK CFI 27fa0 .cfa: sp 128 +
STACK CFI 27fbc .cfa: sp 0 +
STACK CFI 27fc0 .cfa: x29 96 +
STACK CFI INIT 29cb4 290 .cfa: sp 0 +
STACK CFI 29cb8 .cfa: sp 16 +
STACK CFI 29cbc .cfa: x29 16 + .ra: .cfa -8 + ^ x29: .cfa -16 + ^
STACK CFI 29d48 .cfa: sp 16 +
STACK CFI 29d4c .cfa: sp 0 +
STACK CFI 29d50 .cfa: x29 16 +
STACK CFI 29da0 .cfa: sp 16 +
STACK CFI 29da4 .cfa: sp 0 +
STACK CFI 29da8 .cfa: x29 16 +
STACK CFI 29f0c .cfa: sp 16 +
STACK CFI 29f10 .cfa: sp 0 +
STACK CFI 29f14 .cfa: x29 16 +
STACK CFI INIT 29f44 158 .cfa: sp 0 +
STACK CFI 29f48 .cfa: sp 112 +
STACK CFI 29f64 .cfa: x29 96 + x19: .cfa -8 + ^ x20: .cfa -16 + ^ x21: .cfa -24 + ^ x22: .cfa -32 + ^ x23: .cfa -40 + ^ x24: .cfa -48 + ^ x25: .cfa -56 + ^ x26: .cfa -64 + ^ x27: .cfa -72 + ^ x28: .cfa -80 + ^ .ra: .cfa -88 + ^ x29: .cfa -96 + ^
STACK CFI 2a04c .cfa: sp 112 +
STACK CFI 2a050 .cfa: x29 96 +
STACK CFI 2a058 .cfa: sp 112 +
STACK CFI 2a074 .cfa: sp 0 +
STACK CFI 2a078 .cfa: x29 96 +
STACK CFI 2a098 .cfa: sp 112 +
STACK CFI INIT 2a09c e54 .cfa: sp 0 +
STACK CFI 2a0a0 .cfa: sp 192 +
STACK CFI 2a0bc .cfa: x29 96 + x19: .cfa -8 + ^ x20: .cfa -16 + ^ x21: .cfa -24 + ^ x22: .cfa -32 + ^ x23: .cfa -40 + ^ x24: .cfa -48 + ^ x25: .cfa -56 + ^ x26: .cfa -64 + ^ x27: .cfa -72 + ^ x28: .cfa -80 + ^ .ra: .cfa -88 + ^ x29: .cfa -96 + ^
STACK CFI 2add8 .cfa: sp 192 +
STACK CFI 2adf4 .cfa: sp 0 +
STACK CFI 2adf8 .cfa: x29 96 +
STACK CFI INIT 2aef0 1068 .cfa: sp 0 +
STACK CFI 2aef4 .cfa: sp 288 +
STACK CFI 2af10 .cfa: x29 96 + x19: .cfa -8 + ^ x20: .cfa -16 + ^ x21: .cfa -24 + ^ x22: .cfa -32 + ^ x23: .cfa -40 + ^ x24: .cfa -48 + ^ x25: .cfa -56 + ^ x26: .cfa -64 + ^ x27: .cfa -72 + ^ x28: .cfa -80 + ^ .ra: .cfa -88 + ^ x29: .cfa -96 + ^
STACK CFI 2bca0 .cfa: sp 288 +
STACK CFI 2bcbc .cfa: sp 0 +
STACK CFI 2bcc0 .cfa: x29 96 +
STACK CFI INIT 2bf58 520 .cfa: sp 0 +
STACK CFI 2bf5c .cfa: sp 144 +
STACK CFI 2bf78 .cfa: x29 96 + x19: .cfa -8 + ^ x20: .cfa -16 + ^ x21: .cfa -24 + ^ x22: .cfa -32 + ^ x23: .cfa -40 + ^ x24: .cfa -48 + ^ x25: .cfa -56 + ^ x26: .cfa -64 + ^ x27: .cfa -72 + ^ x28: .cfa -80 + ^ .ra: .cfa -88 + ^ x29: .cfa -96 + ^
STACK CFI 2c454 .cfa: sp 144 +
STACK CFI 2c470 .cfa: sp 0 +
STACK CFI 2c474 .cfa: x29 96 +
STACK CFI INIT 2ce18 136c .cfa: sp 0 +
STACK CFI 2ce1c .cfa: sp 224 +
STACK CFI 2ce38 .cfa: x29 96 + x19: .cfa -8 + ^ x20: .cfa -16 + ^ x21: .cfa -24 + ^ x22: .cfa -32 + ^ x23: .cfa -40 + ^ x24: .cfa -48 + ^ x25: .cfa -56 + ^ x26: .cfa -64 + ^ x27: .cfa -72 + ^ x28: .cfa -80 + ^ .ra: .cfa -88 + ^ x29: .cfa -96 + ^
STACK CFI 2e160 .cfa: sp 224 +
STACK CFI 2e17c .cfa: sp 0 +
STACK CFI 2e180 .cfa: x29 96 +
STACK CFI INIT 2e184 1b8 .cfa: sp 0 +
STACK CFI INIT f730 768 .cfa: sp 0 +
STACK CFI f734 .cfa: sp 224 +
STACK CFI f750 .cfa: x29 96 + x19: .cfa -8 + ^ x20: .cfa -16 + ^ x21: .cfa -24 + ^ x22: .cfa -32 + ^ x23: .cfa -40 + ^ x24: .cfa -48 + ^ x25: .cfa -56 + ^ x26: .cfa -64 + ^ x27: .cfa -72 + ^ x28: .cfa -80 + ^ .ra: .cfa -88 + ^ x29: .cfa -96 + ^
STACK CFI f8b8 .cfa: sp 224 +
STACK CFI f8d4 .cfa: sp 0 +
STACK CFI f8d8 .cfa: x29 96 +
STACK CFI fd2c .cfa: sp 224 +
STACK CFI fd48 .cfa: sp 0 +
STACK CFI fd4c .cfa: x29 96 +
STACK CFI INIT feb0 484 .cfa: sp 0 +
STACK CFI feb4 .cfa: sp 224 +
STACK CFI fed0 .cfa: x29 96 + x19: .cfa -8 + ^ x20: .cfa -16 + ^ x21: .cfa -24 + ^ x22: .cfa -32 + ^ x23: .cfa -40 + ^ x24: .cfa -48 + ^ x25: .cfa -56 + ^ x26: .cfa -64 + ^ x27: .cfa -72 + ^ x28: .cfa -80 + ^ .ra: .cfa -88 + ^ x29: .cfa -96 + ^
STACK CFI 10140 .cfa: sp 224 +
STACK CFI 1015c .cfa: sp 0 +
STACK CFI 10160 .cfa: x29 96 +
STACK CFI 1022c .cfa: sp 224 +
STACK CFI 10248 .cfa: sp 0 +
STACK CFI 1024c .cfa: x29 96 +
STACK CFI INIT 1034c 4158 .cfa: sp 0 +
STACK CFI 10350 .cfa: sp 304 +
STACK CFI 1036c .cfa: x29 96 + x19: .cfa -8 + ^ x20: .cfa -16 + ^ x21: .cfa -24 + ^ x22: .cfa -32 + ^ x23: .cfa -40 + ^ x24: .cfa -48 + ^ x25: .cfa -56 + ^ x26: .cfa -64 + ^ x27: .cfa -72 + ^ x28: .cfa -80 + ^ .ra: .cfa -88 + ^ x29: .cfa -96 + ^
STACK CFI 133b8 .cfa: sp 304 +
STACK CFI 133d4 .cfa: sp 0 +
STACK CFI 133d8 .cfa: x29 96 +
STACK CFI INIT 144f4 74 .cfa: sp 0 +
STACK CFI 144f8 .cfa: sp 48 +
STACK CFI 14504 .cfa: x29 32 + x19: .cfa -8 + ^ x20: .cfa -16 + ^ .ra: .cfa -24 + ^ x29: .cfa -32 + ^
STACK CFI 14550 .cfa: sp 48 +
STACK CFI 1455c .cfa: sp 0 +
STACK CFI 14560 .cfa: x29 32 +
STACK CFI INIT 1460c 50 .cfa: sp 0 +
STACK CFI 14610 .cfa: sp 32 +
STACK CFI 14618 .cfa: x29 32 + x19: .cfa -8 + ^ x20: .cfa -16 + ^ .ra: .cfa -24 + ^ x29: .cfa -32 + ^
STACK CFI INIT 14a8c 154 .cfa: sp 0 +
STACK CFI 14a90 .cfa: sp 384 +
STACK CFI 14aa4 .cfa: x29 64 + x19: .cfa -8 + ^ x20: .cfa -16 + ^ x21: .cfa -24 + ^ x22: .cfa -32 + ^ x23: .cfa -40 + ^ x28: .cfa -48 + ^ .ra: .cfa -56 + ^ x29: .cfa -64 + ^
STACK CFI 14b88 .cfa: sp 384 +
STACK CFI 14b9c .cfa: sp 0 +
STACK CFI 14ba0 .cfa: x29 64 +
STACK CFI INIT 14c14 12c .cfa: sp 0 +
STACK CFI 14c18 .cfa: sp 80 +
STACK CFI 14c2c .cfa: x29 80 + x19: .cfa -8 + ^ x20: .cfa -16 + ^ x21: .cfa -24 + ^ x22: .cfa -32 + ^ x23: .cfa -40 + ^ x24: .cfa -48 + ^ x25: .cfa -56 + ^ x26: .cfa -64 + ^ .ra: .cfa -72 + ^ x29: .cfa -80 + ^
STACK CFI 14cf4 .cfa: sp 80 +
STACK CFI 14d08 .cfa: sp 0 +
STACK CFI 14d0c .cfa: x29 80 +
STACK CFI INIT 14de4 1a4 .cfa: sp 0 +
STACK CFI 14de8 .cfa: sp 112 +
STACK CFI 14e00 .cfa: x29 80 + x19: .cfa -8 + ^ x20: .cfa -16 + ^ x21: .cfa -24 + ^ x22: .cfa -32 + ^ x23: .cfa -40 + ^ x24: .cfa -48 + ^ x25: .cfa -56 + ^ x26: .cfa -64 + ^ .ra: .cfa -72 + ^ x29: .cfa -80 + ^
STACK CFI 14ef0 .cfa: sp 112 +
STACK CFI 14f08 .cfa: sp 0 +
STACK CFI 14f0c .cfa: x29 80 +
STACK CFI INIT 14f88 1dc .cfa: sp 0 +
STACK CFI 14f8c .cfa: sp 128 +
STACK CFI 14fa8 .cfa: x29 96 + x19: .cfa -8 + ^ x20: .cfa -16 + ^ x21: .cfa -24 + ^ x22: .cfa -32 + ^ x23: .cfa -40 + ^ x24: .cfa -48 + ^ x25: .cfa -56 + ^ x26: .cfa -64 + ^ x27: .cfa -80 + ^ .ra: .cfa -88 + ^ x29: .cfa -96 + ^
STACK CFI 15114 .cfa: sp 128 +
STACK CFI 15130 .cfa: sp 0 +
STACK CFI 15134 .cfa: x29 96 +
STACK CFI INIT 15164 178 .cfa: sp 0 +
STACK CFI 15168 .cfa: sp 80 +
STACK CFI 1517c .cfa: x29 80 + x19: .cfa -8 + ^ x20: .cfa -16 + ^ x21: .cfa -24 + ^ x22: .cfa -32 + ^ x23: .cfa -40 + ^ x24: .cfa -48 + ^ x25: .cfa -64 + ^ .ra: .cfa -72 + ^ x29: .cfa -80 + ^
STACK CFI 152a8 .cfa: sp 80 +
STACK CFI 152bc .cfa: sp 0 +
STACK CFI 152c0 .cfa: x29 80 +
STACK CFI INIT 15424 168 .cfa: sp 0 +
STACK CFI 15428 .cfa: sp 384 +
STACK CFI 1543c .cfa: x29 64 + x19: .cfa -8 + ^ x20: .cfa -16 + ^ x21: .cfa -24 + ^ x22: .cfa -32 + ^ x23: .cfa -40 + ^ x28: .cfa -48 + ^ .ra: .cfa -56 + ^ x29: .cfa -64 + ^
STACK CFI 15534 .cfa: sp 384 +
STACK CFI 15548 .cfa: sp 0 +
STACK CFI 1554c .cfa: x29 64 +
STACK CFI INIT 155a4 224 .cfa: sp 0 +
STACK CFI 155a8 .cfa: sp 128 +
STACK CFI 155c0 .cfa: x29 80 + x19: .cfa -8 + ^ x20: .cfa -16 + ^ x21: .cfa -24 + ^ x22: .cfa -32 + ^ x23: .cfa -40 + ^ x24: .cfa -48 + ^ x25: .cfa -64 + ^ .ra: .cfa -72 + ^ x29: .cfa -80 + ^
STACK CFI 1575c .cfa: sp 128 +
STACK CFI 15774 .cfa: sp 0 +
STACK CFI 15778 .cfa: x29 80 +
STACK CFI INIT 15d84 108 .cfa: sp 0 +
STACK CFI 15d88 .cfa: sp 80 +
STACK CFI 15d98 .cfa: x29 48 + x19: .cfa -8 + ^ x20: .cfa -16 + ^ x21: .cfa -32 + ^ .ra: .cfa -40 + ^ x29: .cfa -48 + ^
STACK CFI 15e38 .cfa: sp 80 +
STACK CFI 15e48 .cfa: sp 0 +
STACK CFI 15e4c .cfa: x29 48 +
STACK CFI INIT 15e8c 184 .cfa: sp 0 +
STACK CFI 15e90 .cfa: sp 160 +
STACK CFI 15ea8 .cfa: x29 80 + x19: .cfa -8 + ^ x20: .cfa -16 + ^ x21: .cfa -24 + ^ x22: .cfa -32 + ^ x23: .cfa -40 + ^ x24: .cfa -48 + ^ x25: .cfa -56 + ^ x26: .cfa -64 + ^ .ra: .cfa -72 + ^ x29: .cfa -80 + ^
STACK CFI 15fa8 .cfa: sp 160 +
STACK CFI 15fc0 .cfa: sp 0 +
STACK CFI 15fc4 .cfa: x29 80 +
STACK CFI INIT 16010 e8 .cfa: sp 0 +
STACK CFI 16014 .cfa: sp 80 +
STACK CFI 16024 .cfa: x29 48 + x19: .cfa -8 + ^ x20: .cfa -16 + ^ x21: .cfa -32 + ^ .ra: .cfa -40 + ^ x29: .cfa -48 + ^
STACK CFI 160a4 .cfa: sp 80 +
STACK CFI 160b4 .cfa: sp 0 +
STACK CFI 160b8 .cfa: x29 48 +
STACK CFI INIT 160f8 ec .cfa: sp 0 +
STACK CFI 160fc .cfa: sp 80 +
STACK CFI 1610c .cfa: x29 48 + x19: .cfa -8 + ^ x20: .cfa -16 + ^ x21: .cfa -32 + ^ .ra: .cfa -40 + ^ x29: .cfa -48 + ^
STACK CFI 16190 .cfa: sp 80 +
STACK CFI 161a0 .cfa: sp 0 +
STACK CFI 161a4 .cfa: x29 48 +
STACK CFI INIT 16284 2d8 .cfa: sp 0 +
STACK CFI 16288 .cfa: sp 80 +
STACK CFI 16298 .cfa: x29 48 + x19: .cfa -8 + ^ x20: .cfa -16 + ^ x21: .cfa -32 + ^ .ra: .cfa -40 + ^ x29: .cfa -48 + ^
STACK CFI 164e0 .cfa: sp 80 +
STACK CFI 164f0 .cfa: sp 0 +
STACK CFI 164f4 .cfa: x29 48 +
STACK CFI INIT 1655c 184 .cfa: sp 0 +
STACK CFI 16560 .cfa: sp 160 +
STACK CFI 16578 .cfa: x29 80 + x19: .cfa -8 + ^ x20: .cfa -16 + ^ x21: .cfa -24 + ^ x22: .cfa -32 + ^ x23: .cfa -40 + ^ x24: .cfa -48 + ^ x25: .cfa -56 + ^ x26: .cfa -64 + ^ .ra: .cfa -72 + ^ x29: .cfa -80 + ^
STACK CFI 16678 .cfa: sp 160 +
STACK CFI 16690 .cfa: sp 0 +
STACK CFI 16694 .cfa: x29 80 +
STACK CFI INIT 166e0 e8 .cfa: sp 0 +
STACK CFI 166e4 .cfa: sp 80 +
STACK CFI 166f4 .cfa: x29 48 + x19: .cfa -8 + ^ x20: .cfa -16 + ^ x21: .cfa -32 + ^ .ra: .cfa -40 + ^ x29: .cfa -48 + ^
STACK CFI 16774 .cfa: sp 80 +
STACK CFI 16784 .cfa: sp 0 +
STACK CFI 16788 .cfa: x29 48 +
STACK CFI INIT 16810 e8 .cfa: sp 0 +
STACK CFI 16814 .cfa: sp 80 +
STACK CFI 16824 .cfa: x29 48 + x19: .cfa -8 + ^ x20: .cfa -16 + ^ x21: .cfa -32 + ^ .ra: .cfa -40 + ^ x29: .cfa -48 + ^
STACK CFI 168a4 .cfa: sp 80 +
STACK CFI 168b4 .cfa: sp 0 +
STACK CFI 168b8 .cfa: x29 48 +
STACK CFI INIT 168f8 e8 .cfa: sp 0 +
STACK CFI 168fc .cfa: sp 80 +
STACK CFI 1690c .cfa: x29 48 + x19: .cfa -8 + ^ x20: .cfa -16 + ^ x21: .cfa -32 + ^ .ra: .cfa -40 + ^ x29: .cfa -48 + ^
STACK CFI 1698c .cfa: sp 80 +
STACK CFI 1699c .cfa: sp 0 +
STACK CFI 169a0 .cfa: x29 48 +
STACK CFI INIT 169e0 e8 .cfa: sp 0 +
STACK CFI 169e4 .cfa: sp 80 +
STACK CFI 169f4 .cfa: x29 48 + x19: .cfa -8 + ^ x20: .cfa -16 + ^ x21: .cfa -32 + ^ .ra: .cfa -40 + ^ x29: .cfa -48 + ^
STACK CFI 16a74 .cfa: sp 80 +
STACK CFI 16a84 .cfa: sp 0 +
STACK CFI 16a88 .cfa: x29 48 +
STACK CFI INIT 16ac8 e8 .cfa: sp 0 +
STACK CFI 16acc .cfa: sp 80 +
STACK CFI 16adc .cfa: x29 48 + x19: .cfa -8 + ^ x20: .cfa -16 + ^ x21: .cfa -32 + ^ .ra: .cfa -40 + ^ x29: .cfa -48 + ^
STACK CFI 16b5c .cfa: sp 80 +
STACK CFI 16b6c .cfa: sp 0 +
STACK CFI 16b70 .cfa: x29 48 +
STACK CFI INIT 16bb0 e8 .cfa: sp 0 +
STACK CFI 16bb4 .cfa: sp 80 +
STACK CFI 16bc4 .cfa: x29 48 + x19: .cfa -8 + ^ x20: .cfa -16 + ^ x21: .cfa -32 + ^ .ra: .cfa -40 + ^ x29: .cfa -48 + ^
STACK CFI 16c44 .cfa: sp 80 +
STACK CFI 16c54 .cfa: sp 0 +
STACK CFI 16c58 .cfa: x29 48 +
STACK CFI INIT 16c98 e8 .cfa: sp 0 +
STACK CFI 16c9c .cfa: sp 80 +
STACK CFI 16cac .cfa: x29 48 + x19: .cfa -8 + ^ x20: .cfa -16 + ^ x21: .cfa -32 + ^ .ra: .cfa -40 + ^ x29: .cfa -48 + ^
STACK CFI 16d2c .cfa: sp 80 +
STACK CFI 16d3c .cfa: sp 0 +
STACK CFI 16d40 .cfa: x29 48 +
STACK CFI INIT 16db0 e8 .cfa: sp 0 +
STACK CFI 16db4 .cfa: sp 80 +
STACK CFI 16dc4 .cfa: x29 48 + x19: .cfa -8 + ^ x20: .cfa -16 + ^ x21: .cfa -32 + ^ .ra: .cfa -40 + ^ x29: .cfa -48 + ^
STACK CFI 16e44 .cfa: sp 80 +
STACK CFI 16e54 .cfa: sp 0 +
STACK CFI 16e58 .cfa: x29 48 +
STACK CFI INIT 16ec4 ec .cfa: sp 0 +
STACK CFI 16ec8 .cfa: sp 80 +
STACK CFI 16ed8 .cfa: x29 48 + x19: .cfa -8 + ^ x20: .cfa -16 + ^ x21: .cfa -32 + ^ .ra: .cfa -40 + ^ x29: .cfa -48 + ^
STACK CFI 16f5c .cfa: sp 80 +
STACK CFI 16f6c .cfa: sp 0 +
STACK CFI 16f70 .cfa: x29 48 +
STACK CFI INIT 16fb0 110 .cfa: sp 0 +
STACK CFI 16fb4 .cfa: sp 80 +
STACK CFI 16fc4 .cfa: x29 48 + x19: .cfa -8 + ^ x20: .cfa -16 + ^ x21: .cfa -32 + ^ .ra: .cfa -40 + ^ x29: .cfa -48 + ^
STACK CFI 1706c .cfa: sp 80 +
STACK CFI 1707c .cfa: sp 0 +
STACK CFI 17080 .cfa: x29 48 +
STACK CFI INIT 170c0 ec .cfa: sp 0 +
STACK CFI 170c4 .cfa: sp 80 +
STACK CFI 170d4 .cfa: x29 48 + x19: .cfa -8 + ^ x20: .cfa -16 + ^ x21: .cfa -32 + ^ .ra: .cfa -40 + ^ x29: .cfa -48 + ^
STACK CFI 17158 .cfa: sp 80 +
STACK CFI 17168 .cfa: sp 0 +
STACK CFI 1716c .cfa: x29 48 +
STACK CFI INIT 171ac ec .cfa: sp 0 +
STACK CFI 171b0 .cfa: sp 80 +
STACK CFI 171c0 .cfa: x29 48 + x19: .cfa -8 + ^ x20: .cfa -16 + ^ x21: .cfa -32 + ^ .ra: .cfa -40 + ^ x29: .cfa -48 + ^
STACK CFI 17244 .cfa: sp 80 +
STACK CFI 17254 .cfa: sp 0 +
STACK CFI 17258 .cfa: x29 48 +
STACK CFI INIT 17298 fc .cfa: sp 0 +
STACK CFI 1729c .cfa: sp 80 +
STACK CFI 172ac .cfa: x29 48 + x19: .cfa -8 + ^ x20: .cfa -16 + ^ x21: .cfa -32 + ^ .ra: .cfa -40 + ^ x29: .cfa -48 + ^
STACK CFI 17340 .cfa: sp 80 +
STACK CFI 17350 .cfa: sp 0 +
STACK CFI 17354 .cfa: x29 48 +
STACK CFI INIT 17394 11c .cfa: sp 0 +
STACK CFI 17398 .cfa: sp 80 +
STACK CFI 173a8 .cfa: x29 48 + x19: .cfa -8 + ^ x20: .cfa -16 + ^ x21: .cfa -24 + ^ x22: .cfa -32 + ^ .ra: .cfa -40 + ^ x29: .cfa -48 + ^
STACK CFI 1745c .cfa: sp 80 +
STACK CFI 1746c .cfa: sp 0 +
STACK CFI 17470 .cfa: x29 48 +
STACK CFI INIT 174b0 14c .cfa: sp 0 +
STACK CFI 174b4 .cfa: sp 80 +
STACK CFI 174c4 .cfa: x29 48 + x19: .cfa -8 + ^ x20: .cfa -16 + ^ x21: .cfa -24 + ^ x22: .cfa -32 + ^ .ra: .cfa -40 + ^ x29: .cfa -48 + ^
STACK CFI 175a8 .cfa: sp 80 +
STACK CFI 175b8 .cfa: sp 0 +
STACK CFI 175bc .cfa: x29 48 +
STACK CFI INIT 175fc ec .cfa: sp 0 +
STACK CFI 17600 .cfa: sp 80 +
STACK CFI 17610 .cfa: x29 48 + x19: .cfa -8 + ^ x20: .cfa -16 + ^ x21: .cfa -32 + ^ .ra: .cfa -40 + ^ x29: .cfa -48 + ^
STACK CFI 17694 .cfa: sp 80 +
STACK CFI 176a4 .cfa: sp 0 +
STACK CFI 176a8 .cfa: x29 48 +
STACK CFI INIT 176e8 ec .cfa: sp 0 +
STACK CFI 176ec .cfa: sp 80 +
STACK CFI 176fc .cfa: x29 48 + x19: .cfa -8 + ^ x20: .cfa -16 + ^ x21: .cfa -32 + ^ .ra: .cfa -40 + ^ x29: .cfa -48 + ^
STACK CFI 17780 .cfa: sp 80 +
STACK CFI 17790 .cfa: sp 0 +
STACK CFI 17794 .cfa: x29 48 +
STACK CFI INIT 177d4 ec .cfa: sp 0 +
STACK CFI 177d8 .cfa: sp 80 +
STACK CFI 177e8 .cfa: x29 48 + x19: .cfa -8 + ^ x20: .cfa -16 + ^ x21: .cfa -32 + ^ .ra: .cfa -40 + ^ x29: .cfa -48 + ^
STACK CFI 1786c .cfa: sp 80 +
STACK CFI 1787c .cfa: sp 0 +
STACK CFI 17880 .cfa: x29 48 +
STACK CFI INIT 178c0 ec .cfa: sp 0 +
STACK CFI 178c4 .cfa: sp 80 +
STACK CFI 178d4 .cfa: x29 48 + x19: .cfa -8 + ^ x20: .cfa -16 + ^ x21: .cfa -32 + ^ .ra: .cfa -40 + ^ x29: .cfa -48 + ^
STACK CFI 17958 .cfa: sp 80 +
STACK CFI 17968 .cfa: sp 0 +
STACK CFI 1796c .cfa: x29 48 +
STACK CFI INIT 179ac ec .cfa: sp 0 +
STACK CFI 179b0 .cfa: sp 80 +
STACK CFI 179c0 .cfa: x29 48 + x19: .cfa -8 + ^ x20: .cfa -16 + ^ x21: .cfa -32 + ^ .ra: .cfa -40 + ^ x29: .cfa -48 + ^
STACK CFI 17a44 .cfa: sp 80 +
STACK CFI 17a54 .cfa: sp 0 +
STACK CFI 17a58 .cfa: x29 48 +
STACK CFI INIT 17a98 ec .cfa: sp 0 +
STACK CFI 17a9c .cfa: sp 80 +
STACK CFI 17aac .cfa: x29 48 + x19: .cfa -8 + ^ x20: .cfa -16 + ^ x21: .cfa -32 + ^ .ra: .cfa -40 + ^ x29: .cfa -48 + ^
STACK CFI 17b30 .cfa: sp 80 +
STACK CFI 17b40 .cfa: sp 0 +
STACK CFI 17b44 .cfa: x29 48 +
STACK CFI INIT 17b84 110 .cfa: sp 0 +
STACK CFI 17b88 .cfa: sp 80 +
STACK CFI 17b98 .cfa: x29 48 + x19: .cfa -8 + ^ x20: .cfa -16 + ^ x21: .cfa -32 + ^ .ra: .cfa -40 + ^ x29: .cfa -48 + ^
STACK CFI 17c40 .cfa: sp 80 +
STACK CFI 17c50 .cfa: sp 0 +
STACK CFI 17c54 .cfa: x29 48 +
STACK CFI INIT 17c94 138 .cfa: sp 0 +
STACK CFI 17c98 .cfa: sp 80 +
STACK CFI 17ca8 .cfa: x29 48 + x19: .cfa -8 + ^ x20: .cfa -16 + ^ x21: .cfa -24 + ^ x22: .cfa -32 + ^ .ra: .cfa -40 + ^ x29: .cfa -48 + ^
STACK CFI 17d70 .cfa: sp 80 +
STACK CFI 17d80 .cfa: sp 0 +
STACK CFI 17d84 .cfa: x29 48 +
STACK CFI INIT 17dcc c8 .cfa: sp 0 +
STACK CFI 17dd0 .cfa: sp 32 +
STACK CFI 17dd8 .cfa: x29 32 + x19: .cfa -8 + ^ x20: .cfa -16 + ^ .ra: .cfa -24 + ^ x29: .cfa -32 + ^
STACK CFI 17e0c .cfa: sp 32 +
STACK CFI 17e14 .cfa: sp 0 +
STACK CFI 17e18 .cfa: x29 32 +
STACK CFI 17e1c .cfa: sp 32 +
STACK CFI 17e24 .cfa: sp 0 +
STACK CFI 17e28 .cfa: x29 32 +
STACK CFI INIT 17e94 124 .cfa: sp 0 +
STACK CFI 17e98 .cfa: sp 32 +
STACK CFI 17ea0 .cfa: x29 32 + x19: .cfa -8 + ^ x20: .cfa -16 + ^ .ra: .cfa -24 + ^ x29: .cfa -32 + ^
STACK CFI 17f98 .cfa: sp 32 +
STACK CFI 17fa0 .cfa: sp 0 +
STACK CFI 17fa4 .cfa: x29 32 +
STACK CFI INIT 18080 658 .cfa: sp 0 +
STACK CFI 18084 .cfa: sp 224 +
STACK CFI 180a0 .cfa: x29 96 + x19: .cfa -8 + ^ x20: .cfa -16 + ^ x21: .cfa -24 + ^ x22: .cfa -32 + ^ x23: .cfa -40 + ^ x24: .cfa -48 + ^ x25: .cfa -56 + ^ x26: .cfa -64 + ^ x27: .cfa -72 + ^ x28: .cfa -80 + ^ .ra: .cfa -88 + ^ x29: .cfa -96 + ^
STACK CFI 18568 .cfa: sp 224 +
STACK CFI 18584 .cfa: sp 0 +
STACK CFI 18588 .cfa: x29 96 +
STACK CFI INIT 18714 50 .cfa: sp 0 +
STACK CFI 18718 .cfa: sp 32 +
STACK CFI 18720 .cfa: x29 32 + x19: .cfa -8 + ^ x20: .cfa -16 + ^ .ra: .cfa -24 + ^ x29: .cfa -32 + ^
STACK CFI INIT 18880 3d0 .cfa: sp 0 +
STACK CFI 18884 .cfa: sp 208 +
STACK CFI 1889c .cfa: x29 80 + x19: .cfa -8 + ^ x20: .cfa -16 + ^ x21: .cfa -24 + ^ x22: .cfa -32 + ^ x23: .cfa -40 + ^ x24: .cfa -48 + ^ x25: .cfa -64 + ^ .ra: .cfa -72 + ^ x29: .cfa -80 + ^
STACK CFI 189cc .cfa: sp 208 +
STACK CFI 189e4 .cfa: sp 0 +
STACK CFI 189e8 .cfa: x29 80 +
STACK CFI INIT 18c50 1d4 .cfa: sp 0 +
STACK CFI 18c54 .cfa: sp 128 +
STACK CFI 18c70 .cfa: x29 96 + x19: .cfa -8 + ^ x20: .cfa -16 + ^ x21: .cfa -24 + ^ x22: .cfa -32 + ^ x23: .cfa -40 + ^ x24: .cfa -48 + ^ x25: .cfa -56 + ^ x26: .cfa -64 + ^ x27: .cfa -72 + ^ x28: .cfa -80 + ^ .ra: .cfa -88 + ^ x29: .cfa -96 + ^
STACK CFI 18ddc .cfa: sp 128 +
STACK CFI 18df8 .cfa: sp 0 +
STACK CFI 18dfc .cfa: x29 96 +
STACK CFI INIT 18fdc 370 .cfa: sp 0 +
STACK CFI 18fe0 .cfa: sp 96 +
STACK CFI 18ff8 .cfa: x29 96 + x19: .cfa -8 + ^ x20: .cfa -16 + ^ x21: .cfa -24 + ^ x22: .cfa -32 + ^ x23: .cfa -40 + ^ x24: .cfa -48 + ^ x25: .cfa -56 + ^ x26: .cfa -64 + ^ x27: .cfa -72 + ^ x28: .cfa -80 + ^ .ra: .cfa -88 + ^ x29: .cfa -96 + ^
STACK CFI 19254 .cfa: sp 96 +
STACK CFI 1926c .cfa: sp 0 +
STACK CFI 19270 .cfa: x29 96 +
STACK CFI INIT 1934c 404 .cfa: sp 0 +
STACK CFI 19350 .cfa: sp 272 +
STACK CFI 19364 .cfa: x29 64 + x19: .cfa -8 + ^ x20: .cfa -16 + ^ x21: .cfa -24 + ^ x22: .cfa -32 + ^ x23: .cfa -40 + ^ x28: .cfa -48 + ^ .ra: .cfa -56 + ^ x29: .cfa -64 + ^
STACK CFI 19614 .cfa: sp 272 +
STACK CFI 19628 .cfa: sp 0 +
STACK CFI 1962c .cfa: x29 64 +
STACK CFI INIT 19968 f8 .cfa: sp 0 +
STACK CFI 1996c .cfa: sp 80 +
STACK CFI 1997c .cfa: x29 48 + x19: .cfa -8 + ^ x20: .cfa -16 + ^ x21: .cfa -32 + ^ .ra: .cfa -40 + ^ x29: .cfa -48 + ^
STACK CFI 19a0c .cfa: sp 80 +
STACK CFI 19a1c .cfa: sp 0 +
STACK CFI 19a20 .cfa: x29 48 +
STACK CFI INIT 19a60 f8 .cfa: sp 0 +
STACK CFI 19a64 .cfa: sp 80 +
STACK CFI 19a74 .cfa: x29 48 + x19: .cfa -8 + ^ x20: .cfa -16 + ^ x21: .cfa -32 + ^ .ra: .cfa -40 + ^ x29: .cfa -48 + ^
STACK CFI 19b04 .cfa: sp 80 +
STACK CFI 19b14 .cfa: sp 0 +
STACK CFI 19b18 .cfa: x29 48 +
STACK CFI INIT 19cd8 134 .cfa: sp 0 +
STACK CFI 19cdc .cfa: sp 80 +
STACK CFI 19ce8 .cfa: x29 32 + x19: .cfa -8 + ^ x20: .cfa -16 + ^ .ra: .cfa -24 + ^ x29: .cfa -32 + ^
STACK CFI 19d18 .cfa: sp 80 +
STACK CFI 19d24 .cfa: sp 0 +
STACK CFI 19d28 .cfa: x29 32 +
STACK CFI INIT 19e0c 78 .cfa: sp 0 +
STACK CFI 19e10 .cfa: sp 32 +
STACK CFI 19e18 .cfa: x29 32 + x19: .cfa -8 + ^ x20: .cfa -16 + ^ .ra: .cfa -24 + ^ x29: .cfa -32 + ^
STACK CFI 19e24 .cfa: sp 32 +
STACK CFI 19e2c .cfa: sp 0 +
STACK CFI 19e30 .cfa: x29 32 +
STACK CFI INIT 19e84 74 .cfa: sp 0 +
STACK CFI 19e88 .cfa: sp 48 +
STACK CFI 19e94 .cfa: x29 32 + x19: .cfa -8 + ^ x20: .cfa -16 + ^ .ra: .cfa -24 + ^ x29: .cfa -32 + ^
STACK CFI 19ee0 .cfa: sp 48 +
STACK CFI 19eec .cfa: sp 0 +
STACK CFI 19ef0 .cfa: x29 32 +
STACK CFI INIT 19ff8 234 .cfa: sp 0 +
STACK CFI 19ffc .cfa: sp 320 +
STACK CFI 1a024 .cfa: x29 96 + x19: .cfa -8 + ^ x20: .cfa -16 + ^ x21: .cfa -24 + ^ x22: .cfa -32 + ^ x23: .cfa -40 + ^ x24: .cfa -48 + ^ x25: .cfa -56 + ^ x26: .cfa -64 + ^ x27: .cfa -72 + ^ x28: .cfa -80 + ^ .ra: .cfa -88 + ^ x29: .cfa -96 + ^ v8: .cfa -104 + ^ v9: .cfa -112 + ^ v10: .cfa -120 + ^ v11: .cfa -128 + ^ v12: .cfa -144 + ^
STACK CFI 1a10c .cfa: sp 320 +
STACK CFI 1a134 .cfa: sp 0 +
STACK CFI 1a138 .cfa: x29 96 +
STACK CFI INIT 1a22c 129c .cfa: sp 0 +
STACK CFI 1a230 .cfa: sp 96 +
STACK CFI 1a248 .cfa: x29 80 + x19: .cfa -8 + ^ x20: .cfa -16 + ^ x21: .cfa -24 + ^ x22: .cfa -32 + ^ x23: .cfa -40 + ^ x24: .cfa -48 + ^ x25: .cfa -64 + ^ .ra: .cfa -72 + ^ x29: .cfa -80 + ^
STACK CFI 1b364 .cfa: sp 96 +
STACK CFI 1b37c .cfa: sp 0 +
STACK CFI 1b380 .cfa: x29 80 +
STACK CFI INIT 1b4e4 2c8 .cfa: sp 0 +
STACK CFI 1b4e8 .cfa: sp 128 +
STACK CFI 1b4fc .cfa: x29 64 + x19: .cfa -8 + ^ x20: .cfa -16 + ^ x21: .cfa -24 + ^ x22: .cfa -32 + ^ x23: .cfa -48 + ^ .ra: .cfa -56 + ^ x29: .cfa -64 + ^
STACK CFI 1b658 .cfa: sp 128 +
STACK CFI 1b66c .cfa: sp 0 +
STACK CFI 1b670 .cfa: x29 64 +
STACK CFI INIT 1b7ac 278 .cfa: sp 0 +
STACK CFI 1b7b0 .cfa: sp 128 +
STACK CFI 1b7c4 .cfa: x29 64 + x19: .cfa -8 + ^ x20: .cfa -16 + ^ x21: .cfa -24 + ^ x22: .cfa -32 + ^ x23: .cfa -48 + ^ .ra: .cfa -56 + ^ x29: .cfa -64 + ^
STACK CFI 1b8d0 .cfa: sp 128 +
STACK CFI 1b8e4 .cfa: sp 0 +
STACK CFI 1b8e8 .cfa: x29 64 +
STACK CFI INIT 1ba24 4cc .cfa: sp 0 +
STACK CFI 1ba28 .cfa: sp 128 +
STACK CFI 1ba3c .cfa: x29 64 + x19: .cfa -8 + ^ x20: .cfa -16 + ^ x21: .cfa -24 + ^ x22: .cfa -32 + ^ x23: .cfa -48 + ^ .ra: .cfa -56 + ^ x29: .cfa -64 + ^
STACK CFI 1bd48 .cfa: sp 128 +
STACK CFI 1bd5c .cfa: sp 0 +
STACK CFI 1bd60 .cfa: x29 64 +
STACK CFI INIT 1bef0 154 .cfa: sp 0 +
STACK CFI 1bef4 .cfa: sp 384 +
STACK CFI 1bf08 .cfa: x29 64 + x19: .cfa -8 + ^ x20: .cfa -16 + ^ x21: .cfa -24 + ^ x22: .cfa -32 + ^ x23: .cfa -40 + ^ x28: .cfa -48 + ^ .ra: .cfa -56 + ^ x29: .cfa -64 + ^
STACK CFI 1bfec .cfa: sp 384 +
STACK CFI 1c000 .cfa: sp 0 +
STACK CFI 1c004 .cfa: x29 64 +
STACK CFI INIT 1c05c 4e0 .cfa: sp 0 +
STACK CFI 1c060 .cfa: sp 64 +
STACK CFI 1c070 .cfa: x29 64 + x19: .cfa -8 + ^ x20: .cfa -16 + ^ x21: .cfa -24 + ^ x22: .cfa -32 + ^ x23: .cfa -40 + ^ x24: .cfa -48 + ^ .ra: .cfa -56 + ^ x29: .cfa -64 + ^
STACK CFI 1c510 .cfa: sp 64 +
STACK CFI 1c520 .cfa: sp 0 +
STACK CFI 1c524 .cfa: x29 64 +
STACK CFI INIT 1c86c 294 .cfa: sp 0 +
STACK CFI 1c870 .cfa: sp 240 +
STACK CFI 1c888 .cfa: x29 80 + x19: .cfa -8 + ^ x20: .cfa -16 + ^ x21: .cfa -24 + ^ x22: .cfa -32 + ^ x23: .cfa -40 + ^ x24: .cfa -48 + ^ x25: .cfa -64 + ^ .ra: .cfa -72 + ^ x29: .cfa -80 + ^
STACK CFI 1ca28 .cfa: sp 240 +
STACK CFI 1ca40 .cfa: sp 0 +
STACK CFI 1ca44 .cfa: x29 80 +
STACK CFI INIT 1cb7c 50 .cfa: sp 0 +
STACK CFI 1cb80 .cfa: sp 32 +
STACK CFI 1cb88 .cfa: x29 32 + x19: .cfa -8 + ^ x20: .cfa -16 + ^ .ra: .cfa -24 + ^ x29: .cfa -32 + ^
STACK CFI INIT 1cbf8 7c0 .cfa: sp 0 +
STACK CFI 1cbfc .cfa: sp 320 +
STACK CFI 1cc18 .cfa: x29 96 + x19: .cfa -8 + ^ x20: .cfa -16 + ^ x21: .cfa -24 + ^ x22: .cfa -32 + ^ x23: .cfa -40 + ^ x24: .cfa -48 + ^ x25: .cfa -56 + ^ x26: .cfa -64 + ^ x27: .cfa -72 + ^ x28: .cfa -80 + ^ .ra: .cfa -88 + ^ x29: .cfa -96 + ^
STACK CFI 1d268 .cfa: sp 320 +
STACK CFI 1d284 .cfa: sp 0 +
STACK CFI 1d288 .cfa: x29 96 +
STACK CFI INIT 21738 c74 .cfa: sp 0 +
STACK CFI 2173c .cfa: sp 96 +
STACK CFI 21754 .cfa: x29 96 + x19: .cfa -8 + ^ x20: .cfa -16 + ^ x21: .cfa -24 + ^ x22: .cfa -32 + ^ x23: .cfa -40 + ^ x24: .cfa -48 + ^ x25: .cfa -56 + ^ x26: .cfa -64 + ^ x27: .cfa -72 + ^ x28: .cfa -80 + ^ .ra: .cfa -88 + ^ x29: .cfa -96 + ^
STACK CFI 221cc .cfa: sp 96 +
STACK CFI 221e4 .cfa: sp 0 +
STACK CFI 221e8 .cfa: x29 96 +
STACK CFI INIT 22500 26c .cfa: sp 0 +
STACK CFI 22504 .cfa: sp 128 +
STACK CFI 22514 .cfa: x29 48 + x19: .cfa -8 + ^ x20: .cfa -16 + ^ x21: .cfa -24 + ^ x22: .cfa -32 + ^ .ra: .cfa -40 + ^ x29: .cfa -48 + ^
STACK CFI 226b8 .cfa: sp 128 +
STACK CFI 226c8 .cfa: sp 0 +
STACK CFI 226cc .cfa: x29 48 +
STACK CFI INIT 22cb8 3b8 .cfa: sp 0 +
STACK CFI 22cbc .cfa: sp 96 +
STACK CFI 22cd4 .cfa: x29 96 + x19: .cfa -8 + ^ x20: .cfa -16 + ^ x21: .cfa -24 + ^ x22: .cfa -32 + ^ x23: .cfa -40 + ^ x24: .cfa -48 + ^ x25: .cfa -56 + ^ x26: .cfa -64 + ^ x27: .cfa -72 + ^ x28: .cfa -80 + ^ .ra: .cfa -88 + ^ x29: .cfa -96 + ^
STACK CFI 23010 .cfa: sp 96 +
STACK CFI 23028 .cfa: sp 0 +
STACK CFI 2302c .cfa: x29 96 +
STACK CFI INIT 23110 cb4 .cfa: sp 0 +
STACK CFI 23114 .cfa: sp 96 +
STACK CFI 2312c .cfa: x29 96 + x19: .cfa -8 + ^ x20: .cfa -16 + ^ x21: .cfa -24 + ^ x22: .cfa -32 + ^ x23: .cfa -40 + ^ x24: .cfa -48 + ^ x25: .cfa -56 + ^ x26: .cfa -64 + ^ x27: .cfa -72 + ^ x28: .cfa -80 + ^ .ra: .cfa -88 + ^ x29: .cfa -96 + ^
STACK CFI 23bd4 .cfa: sp 96 +
STACK CFI 23bec .cfa: sp 0 +
STACK CFI 23bf0 .cfa: x29 96 +
STACK CFI INIT 240ac afc .cfa: sp 0 +
STACK CFI 240b0 .cfa: sp 96 +
STACK CFI 240c8 .cfa: x29 96 + x19: .cfa -8 + ^ x20: .cfa -16 + ^ x21: .cfa -24 + ^ x22: .cfa -32 + ^ x23: .cfa -40 + ^ x24: .cfa -48 + ^ x25: .cfa -56 + ^ x26: .cfa -64 + ^ x27: .cfa -72 + ^ x28: .cfa -80 + ^ .ra: .cfa -88 + ^ x29: .cfa -96 + ^
STACK CFI 24b1c .cfa: sp 96 +
STACK CFI 24b34 .cfa: sp 0 +
STACK CFI 24b38 .cfa: x29 96 +
STACK CFI INIT 24d84 1430 .cfa: sp 0 +
STACK CFI 24d88 .cfa: sp 96 +
STACK CFI 24da0 .cfa: x29 96 + x19: .cfa -8 + ^ x20: .cfa -16 + ^ x21: .cfa -24 + ^ x22: .cfa -32 + ^ x23: .cfa -40 + ^ x24: .cfa -48 + ^ x25: .cfa -56 + ^ x26: .cfa -64 + ^ x27: .cfa -72 + ^ x28: .cfa -80 + ^ .ra: .cfa -88 + ^ x29: .cfa -96 + ^
STACK CFI 2603c .cfa: sp 96 +
STACK CFI 26054 .cfa: sp 0 +
STACK CFI 26058 .cfa: x29 96 +
STACK CFI INIT 262d8 75c .cfa: sp 0 +
STACK CFI 262dc .cfa: sp 368 +
STACK CFI 262f8 .cfa: x29 96 + x19: .cfa -8 + ^ x20: .cfa -16 + ^ x21: .cfa -24 + ^ x22: .cfa -32 + ^ x23: .cfa -40 + ^ x24: .cfa -48 + ^ x25: .cfa -56 + ^ x26: .cfa -64 + ^ x27: .cfa -72 + ^ x28: .cfa -80 + ^ .ra: .cfa -88 + ^ x29: .cfa -96 + ^
STACK CFI 263ac .cfa: sp 368 +
STACK CFI 263c8 .cfa: sp 0 +
STACK CFI 263cc .cfa: x29 96 +
STACK CFI 26420 .cfa: sp 368 +
STACK CFI 2643c .cfa: sp 0 +
STACK CFI 26440 .cfa: x29 96 +
STACK CFI INIT 26df4 eb0 .cfa: sp 0 +
STACK CFI 26df8 .cfa: sp 96 +
STACK CFI 26e10 .cfa: x29 96 + x19: .cfa -8 + ^ x20: .cfa -16 + ^ x21: .cfa -24 + ^ x22: .cfa -32 + ^ x23: .cfa -40 + ^ x24: .cfa -48 + ^ x25: .cfa -56 + ^ x26: .cfa -64 + ^ x27: .cfa -72 + ^ x28: .cfa -80 + ^ .ra: .cfa -88 + ^ x29: .cfa -96 + ^
STACK CFI 27ab8 .cfa: sp 96 +
STACK CFI 27ad0 .cfa: sp 0 +
STACK CFI 27ad4 .cfa: x29 96 +
STACK CFI INIT 28018 1c9c .cfa: sp 0 +
STACK CFI 2801c .cfa: sp 112 +
STACK CFI 28038 .cfa: x29 96 + x19: .cfa -8 + ^ x20: .cfa -16 + ^ x21: .cfa -24 + ^ x22: .cfa -32 + ^ x23: .cfa -40 + ^ x24: .cfa -48 + ^ x25: .cfa -56 + ^ x26: .cfa -64 + ^ x27: .cfa -72 + ^ x28: .cfa -80 + ^ .ra: .cfa -88 + ^ x29: .cfa -96 + ^ v8: .cfa -112 + ^
STACK CFI 28420 .cfa: sp 112 +
STACK CFI 2843c .cfa: sp 0 +
STACK CFI 28440 .cfa: x29 96 +
STACK CFI INIT 2c478 9a0 .cfa: sp 0 +
STACK CFI 2c47c .cfa: sp 144 +
STACK CFI 2c494 .cfa: x29 80 + x19: .cfa -8 + ^ x20: .cfa -16 + ^ x21: .cfa -24 + ^ x22: .cfa -32 + ^ x23: .cfa -40 + ^ x24: .cfa -48 + ^ x25: .cfa -64 + ^ .ra: .cfa -72 + ^ x29: .cfa -80 + ^
STACK CFI 2cd94 .cfa: sp 144 +
STACK CFI 2cdac .cfa: sp 0 +
STACK CFI 2cdb0 .cfa: x29 80 +
STACK CFI INIT 2e33c 57c .cfa: sp 0 +
STACK CFI 2e340 .cfa: sp 96 +
STACK CFI 2e358 .cfa: x29 96 + x19: .cfa -8 + ^ x20: .cfa -16 + ^ x21: .cfa -24 + ^ x22: .cfa -32 + ^ x23: .cfa -40 + ^ x24: .cfa -48 + ^ x25: .cfa -56 + ^ x26: .cfa -64 + ^ x27: .cfa -72 + ^ x28: .cfa -80 + ^ .ra: .cfa -88 + ^ x29: .cfa -96 + ^
STACK CFI 2e81c .cfa: sp 96 +
STACK CFI 2e834 .cfa: sp 0 +
STACK CFI 2e838 .cfa: x29 96 +
STACK CFI INIT 2e8b8 67c .cfa: sp 0 +
STACK CFI 2e8bc .cfa: sp 96 +
STACK CFI 2e8d4 .cfa: x29 96 + x19: .cfa -8 + ^ x20: .cfa -16 + ^ x21: .cfa -24 + ^ x22: .cfa -32 + ^ x23: .cfa -40 + ^ x24: .cfa -48 + ^ x25: .cfa -56 + ^ x26: .cfa -64 + ^ x27: .cfa -72 + ^ x28: .cfa -80 + ^ .ra: .cfa -88 + ^ x29: .cfa -96 + ^
STACK CFI 2ee98 .cfa: sp 96 +
STACK CFI 2eeb0 .cfa: sp 0 +
STACK CFI 2eeb4 .cfa: x29 96 +
