MODULE Linux arm64 3C1C14BB709C26F7C5A3CE3E1B8F5E920 omgrod.geodify.android64.so
INFO CODE_ID BB141C3C9C70F726C5A3CE3E1B8F5E92C2D409D4
INFO GENERATOR mozilla/dump_syms 2.3.4
PUBLIC 38d60 0 __on_dlclose
PUBLIC 38d70 0 __emutls_unregister_key
PUBLIC 38d78 0 __on_dlclose_late
PUBLIC 38d80 0 __atexit_handler_wrapper
PUBLIC 38d94 0 atexit
PUBLIC 38db0 0 pthread_atfork
PUBLIC 38dc0 0 unwind_phase2
PUBLIC 38ef4 0 _Unwind_Resume
PUBLIC 38f78 0 unwind_phase2_forced
PUBLIC m 3906c 0 __unw_init_local
PUBLIC m 39114 0 __unw_get_reg
PUBLIC 39190 0 __unw_step_stage2
PUBLIC m 391a4 0 __unw_get_proc_info
PUBLIC m 391e4 0 __unw_resume
PUBLIC 3920c 0 libunwind::CFI_Parser<libunwind::LocalAddressSpace>::decodeFDE(libunwind::LocalAddressSpace&, unsigned long, libunwind::CFI_Parser<libunwind::LocalAddressSpace>::FDE_Info*, libunwind::CFI_Parser<libunwind::LocalAddressSpace>::CIE_Info*, bool)
PUBLIC 3939c 0 libunwind::CFI_Parser<libunwind::LocalAddressSpace>::parseCIE(libunwind::LocalAddressSpace&, unsigned long, libunwind::CFI_Parser<libunwind::LocalAddressSpace>::CIE_Info*)
PUBLIC 39664 0 libunwind::AbstractUnwindCursor::~AbstractUnwindCursor()
PUBLIC 3966c 0 libunwind::UnwindCursor<libunwind::LocalAddressSpace, libunwind::Registers_arm64>::~UnwindCursor()
PUBLIC 39674 0 libunwind::UnwindCursor<libunwind::LocalAddressSpace, libunwind::Registers_arm64>::validReg(int)
PUBLIC 396b8 0 libunwind::UnwindCursor<libunwind::LocalAddressSpace, libunwind::Registers_arm64>::getReg(int)
PUBLIC 397a0 0 libunwind::UnwindCursor<libunwind::LocalAddressSpace, libunwind::Registers_arm64>::setReg(int, unsigned long)
PUBLIC 39888 0 libunwind::UnwindCursor<libunwind::LocalAddressSpace, libunwind::Registers_arm64>::validFloatReg(int)
PUBLIC 3989c 0 libunwind::UnwindCursor<libunwind::LocalAddressSpace, libunwind::Registers_arm64>::getFloatReg(int)
PUBLIC 398ac 0 libunwind::UnwindCursor<libunwind::LocalAddressSpace, libunwind::Registers_arm64>::setFloatReg(int, double)
PUBLIC 398bc 0 libunwind::UnwindCursor<libunwind::LocalAddressSpace, libunwind::Registers_arm64>::step(bool)
PUBLIC 399ac 0 libunwind::UnwindCursor<libunwind::LocalAddressSpace, libunwind::Registers_arm64>::getInfo(unw_proc_info_t*)
PUBLIC 399f0 0 libunwind::UnwindCursor<libunwind::LocalAddressSpace, libunwind::Registers_arm64>::jumpto()
PUBLIC 399fc 0 libunwind::UnwindCursor<libunwind::LocalAddressSpace, libunwind::Registers_arm64>::isSignalFrame()
PUBLIC 39a08 0 libunwind::UnwindCursor<libunwind::LocalAddressSpace, libunwind::Registers_arm64>::getFunctionName(char*, unsigned long, unsigned long*)
PUBLIC 39a34 0 libunwind::UnwindCursor<libunwind::LocalAddressSpace, libunwind::Registers_arm64>::setInfoBasedOnIPRegister(bool)
PUBLIC 39c70 0 libunwind::UnwindCursor<libunwind::LocalAddressSpace, libunwind::Registers_arm64>::getRegisterName(int)
PUBLIC 39c7c 0 libunwind::UnwindCursor<libunwind::LocalAddressSpace, libunwind::Registers_arm64>::stepThroughSigReturn(libunwind::Registers_arm64&)
PUBLIC 39d9c 0 libunwind::DwarfInstructions<libunwind::LocalAddressSpace, libunwind::Registers_arm64>::stepWithDwarf(libunwind::LocalAddressSpace&, unsigned long, unsigned long, libunwind::Registers_arm64&, bool&, bool)
PUBLIC 3a230 0 libunwind::CFI_Parser<libunwind::LocalAddressSpace>::parseFDEInstructions(libunwind::LocalAddressSpace&, libunwind::CFI_Parser<libunwind::LocalAddressSpace>::FDE_Info const&, libunwind::CFI_Parser<libunwind::LocalAddressSpace>::CIE_Info const&, unsigned long, int, libunwind::CFI_Parser<libunwind::LocalAddressSpace>::PrologInfo*)
PUBLIC 3ada8 0 libunwind::DwarfInstructions<libunwind::LocalAddressSpace, libunwind::Registers_arm64>::getCFA(libunwind::LocalAddressSpace&, libunwind::CFI_Parser<libunwind::LocalAddressSpace>::PrologInfo const&, libunwind::Registers_arm64 const&)
PUBLIC 3aedc 0 libunwind::DwarfInstructions<libunwind::LocalAddressSpace, libunwind::Registers_arm64>::getSavedRegister(libunwind::LocalAddressSpace&, libunwind::Registers_arm64 const&, unsigned long, libunwind::CFI_Parser<libunwind::LocalAddressSpace>::RegisterLocation const&)
PUBLIC 3b0ec 0 libunwind::LocalAddressSpace::getEncodedP(unsigned long&, unsigned long, unsigned char, unsigned long)
PUBLIC 3b478 0 libunwind::LocalAddressSpace::getULEB128(unsigned long&, unsigned long)
PUBLIC 3b640 0 libunwind::DwarfInstructions<libunwind::LocalAddressSpace, libunwind::Registers_arm64>::evaluateExpression(unsigned long, libunwind::LocalAddressSpace&, libunwind::Registers_arm64 const&, unsigned long)
PUBLIC 3c004 0 libunwind::UnwindCursor<libunwind::LocalAddressSpace, libunwind::Registers_arm64>::getInfoFromDwarfSection(unsigned long, libunwind::UnwindInfoSections const&, unsigned int)
PUBLIC 3c2d8 0 libunwind::findUnwindSectionsByPhdr(dl_phdr_info*, unsigned long, void*)
PUBLIC 3c408 0 libunwind::EHHeaderParser<libunwind::LocalAddressSpace>::decodeEHHdr(libunwind::LocalAddressSpace&, unsigned long, unsigned long, libunwind::EHHeaderParser<libunwind::LocalAddressSpace>::EHHeaderInfo&)
PUBLIC 3c528 0 libunwind::CFI_Parser<libunwind::LocalAddressSpace>::findFDE(libunwind::LocalAddressSpace&, unsigned long, unsigned long, unsigned long, unsigned long, libunwind::CFI_Parser<libunwind::LocalAddressSpace>::FDE_Info*, libunwind::CFI_Parser<libunwind::LocalAddressSpace>::CIE_Info*)
PUBLIC 3c6f0 0 libunwind::EHHeaderParser<libunwind::LocalAddressSpace>::findFDE(libunwind::LocalAddressSpace&, unsigned long, unsigned long, unsigned int, libunwind::CFI_Parser<libunwind::LocalAddressSpace>::FDE_Info*, libunwind::CFI_Parser<libunwind::LocalAddressSpace>::CIE_Info*)
PUBLIC 3c858 0 libunwind::EHHeaderParser<libunwind::LocalAddressSpace>::getTableEntrySize(unsigned char)
PUBLIC 3c954 0 libunwind::Registers_arm64::getRegisterName(int)
PUBLIC 3c984 0 __libunwind_Registers_arm64_jumpto
PUBLIC m 3ca14 0 __unw_getcontext
PUBLIC 3cab0 0 geodeExecFunction9<(anonymous namespace)::ExecFuncUnique9>()::{lambda(geode::ModPopupUIEvent*)#1}::__invoke(geode::ModPopupUIEvent*)
PUBLIC 3cbd8 0 geode::cast::traverseTypeinfoFor(void*, geode::cast::ClassTypeinfoType const*, char const*)
PUBLIC 3ccdc 0 geode::EventListener<geode::EventFilter<geode::ModPopupUIEvent> >::getPool() const
PUBLIC 3cce0 0 geode::EventListener<geode::EventFilter<geode::ModPopupUIEvent> >::handle(geode::Event*)
PUBLIC 3ce84 0 geode::EventListener<geode::EventFilter<geode::ModPopupUIEvent> >::~EventListener()
PUBLIC 3cee0 0 geode::EventListener<geode::EventFilter<geode::ModPopupUIEvent> >::~EventListener()
PUBLIC 3cf44 0 std::__ndk1::__function::__base<geode::ListenerResult(geode::ModPopupUIEvent*)>::~__base()
PUBLIC 3cf48 0 std::__ndk1::__function::__func<geode::ListenerResult (*)(geode::ModPopupUIEvent*), std::__ndk1::allocator<geode::ListenerResult (*)(geode::ModPopupUIEvent*)>, geode::ListenerResult(geode::ModPopupUIEvent*)>::~__func()
PUBLIC 3cf4c 0 std::__ndk1::__function::__func<geode::ListenerResult (*)(geode::ModPopupUIEvent*), std::__ndk1::allocator<geode::ListenerResult (*)(geode::ModPopupUIEvent*)>, geode::ListenerResult(geode::ModPopupUIEvent*)>::__clone() const
PUBLIC 3cf80 0 std::__ndk1::__function::__func<geode::ListenerResult (*)(geode::ModPopupUIEvent*), std::__ndk1::allocator<geode::ListenerResult (*)(geode::ModPopupUIEvent*)>, geode::ListenerResult(geode::ModPopupUIEvent*)>::__clone(std::__ndk1::__function::__base<geode::ListenerResult(geode::ModPopupUIEvent*)>*) const
PUBLIC 3cf94 0 std::__ndk1::__function::__func<geode::ListenerResult (*)(geode::ModPopupUIEvent*), std::__ndk1::allocator<geode::ListenerResult (*)(geode::ModPopupUIEvent*)>, geode::ListenerResult(geode::ModPopupUIEvent*)>::destroy()
PUBLIC 3cf98 0 std::__ndk1::__function::__func<geode::ListenerResult (*)(geode::ModPopupUIEvent*), std::__ndk1::allocator<geode::ListenerResult (*)(geode::ModPopupUIEvent*)>, geode::ListenerResult(geode::ModPopupUIEvent*)>::destroy_deallocate()
PUBLIC 3cf9c 0 std::__ndk1::__function::__func<geode::ListenerResult (*)(geode::ModPopupUIEvent*), std::__ndk1::allocator<geode::ListenerResult (*)(geode::ModPopupUIEvent*)>, geode::ListenerResult(geode::ModPopupUIEvent*)>::operator()(geode::ModPopupUIEvent*&&)
PUBLIC 3cfac 0 std::__ndk1::__function::__func<geode::ListenerResult (*)(geode::ModPopupUIEvent*), std::__ndk1::allocator<geode::ListenerResult (*)(geode::ModPopupUIEvent*)>, geode::ListenerResult(geode::ModPopupUIEvent*)>::target(std::type_info const&) const
PUBLIC 3cfc8 0 std::__ndk1::__function::__func<geode::ListenerResult (*)(geode::ModPopupUIEvent*), std::__ndk1::allocator<geode::ListenerResult (*)(geode::ModPopupUIEvent*)>, geode::ListenerResult(geode::ModPopupUIEvent*)>::target_type() const
PUBLIC 3cfd4 0 std::__ndk1::__throw_bad_function_call[abi:ne190000]()
PUBLIC 3d008 0 std::__ndk1::bad_function_call::~bad_function_call()
PUBLIC 3d02c 0 _GLOBAL__sub_I_CustomSettingLayer.cpp
PUBLIC 3d0d8 0 __clang_call_terminate
PUBLIC 3d0f0 0 __aarch64_ldadd8_relax
PUBLIC 3d120 0 init_have_lse_atomics
PUBLIC 3d1b8 0 __init_cpu_features_constructor
PUBLIC 3d464 0 __init_cpu_features
PUBLIC 3d4f0 0 __aarch64_ldadd8_acq_rel
PUBLIC 3d520 0 SwelvyBG::init(float, float, float, float)
PUBLIC 3da30 0 geode::Mod::getSettingValue<bool>(std::__ndk1::basic_string_view<char, std::__ndk1::char_traits<char> >) const
PUBLIC 3db5c 0 geode::Mod::getSettingValue<cocos2d::_ccColor3B>(std::__ndk1::basic_string_view<char, std::__ndk1::char_traits<char> >) const
PUBLIC 3dc7c 0 SwelvyBG::init(float, float, float, float)::$_0::operator()(cocos2d::_ccColor3B, char const*) const
PUBLIC 3e240 0 SwelvyBG::updateSpritePosition(float)
PUBLIC 3e46c 0 SwelvyBG::create(float, float, float, float)
PUBLIC 3e584 0 std::__ndk1::__independent_bits_engine<std::__ndk1::mersenne_twister_engine<unsigned long, (unsigned long)32, (unsigned long)624, (unsigned long)397, (unsigned long)31, (unsigned long)2567483615, (unsigned long)11, (unsigned long)4294967295, (unsigned long)7, (unsigned long)2636928640, (unsigned long)15, (unsigned long)4022730752, (unsigned long)18, (unsigned long)1812433253>, unsigned int>::__eval(std::__ndk1::integral_constant<bool, true>)
PUBLIC 3e784 0 cocos2d::CCCopying::copyWithZone(cocos2d::CCZone*)
PUBLIC 3e78c 0 cocos2d::CCFloat::~CCFloat()
PUBLIC 3e7b0 0 cocos2d::CCFloat::acceptVisitor(cocos2d::CCDataVisitor&)
PUBLIC 3e7c8 0 cocos2d::CCObject::update(float)
PUBLIC 3e7cc 0 SwelvyBG::~SwelvyBG()
PUBLIC 3e7f0 0 GYColorPopup::onApply(cocos2d::CCObject*)
PUBLIC 3e8f0 0 GYColorPopup::setup()
PUBLIC 3ee64 0 std::__ndk1::shared_ptr<geode::SettingV3>::~shared_ptr[abi:ne190000]()
PUBLIC 3eeb4 0 geode::Ref<geode::SettingNodeV3>::~Ref()
PUBLIC 3eed4 0 std::__ndk1::vector<std::__ndk1::basic_string<char, std::__ndk1::char_traits<char>, std::__ndk1::allocator<char> >, std::__ndk1::allocator<std::__ndk1::basic_string<char, std::__ndk1::char_traits<char>, std::__ndk1::allocator<char> > > >::~vector[abi:ne190000]()
PUBLIC 3ef50 0 GYColorPopup::create()
PUBLIC 3f090 0 GYColorPopup::~GYColorPopup()
PUBLIC 3f184 0 GYColorPopup::~GYColorPopup()
PUBLIC 3f1a8 0 geode::Popup<>::registerWithTouchDispatcher()
PUBLIC 3f1d4 0 geode::Popup<>::keyDown(cocos2d::enumKeyCodes)
PUBLIC 3f1fc 0 cocos2d::CCLayerRGBA::setOpacityModifyRGB(bool)
PUBLIC 3f200 0 cocos2d::CCLayerRGBA::isOpacityModifyRGB()
PUBLIC 3f208 0 geode::Popup<>::onClose(cocos2d::CCObject*)
PUBLIC 3f33c 0 {virtual override thunk({offset(-320)}, GYColorPopup::~GYColorPopup())}
PUBLIC 3f344 0 {virtual override thunk({offset(-320)}, GYColorPopup::~GYColorPopup())}
PUBLIC 3f36c 0 {virtual override thunk({offset(-344)}, geode::Popup<>::keyDown(cocos2d::enumKeyCodes))}
PUBLIC 3f398 0 cocos2d::CCKeyboardDelegate::keyUp(cocos2d::enumKeyCodes)
PUBLIC 3f39c 0 cocos2d::CCMouseDelegate::rightKeyDown()
PUBLIC 3f3a0 0 cocos2d::CCMouseDelegate::rightKeyUp()
PUBLIC 3f3a4 0 cocos2d::CCMouseDelegate::scrollWheel(float, float)
PUBLIC 3f3a8 0 {virtual override thunk({offset(-408)}, cocos2d::CCLayerRGBA::setOpacityModifyRGB(bool))}
PUBLIC 3f3ac 0 {virtual override thunk({offset(-408)}, cocos2d::CCLayerRGBA::isOpacityModifyRGB())}
PUBLIC 3f3b4 0 std::__ndk1::__throw_length_error[abi:ne190000](char const*)
PUBLIC 3f404 0 std::length_error::length_error[abi:ne190000](char const*)
PUBLIC 3f434 0 std::__throw_bad_array_new_length([abi:ne190000], void)
PUBLIC 3f468 0 std::__ndk1::vector<geode::Ref<geode::SettingNodeV3>, std::__ndk1::allocator<geode::Ref<geode::SettingNodeV3> > >::__push_back_slow_path<geode::Ref<geode::SettingNodeV3> >(geode::Ref<geode::SettingNodeV3>&&)
PUBLIC 3f614 0 std::__ndk1::vector<geode::Ref<geode::SettingNodeV3>, std::__ndk1::allocator<geode::Ref<geode::SettingNodeV3> > >::__throw_length_error[abi:ne190000]() const
PUBLIC 3f628 0 geode::Popup<>::~Popup()
PUBLIC 3f694 0 geode::Popup<>::~Popup()
PUBLIC 3f698 0 {virtual override thunk({offset(-320)}, geode::Popup<>::~Popup())}
PUBLIC 3f704 0 {virtual override thunk({offset(-320)}, geode::Popup<>::~Popup())}
PUBLIC 3f708 0 geode::Popup<>::initBase(float, float, char const*, cocos2d::CCRect, bool)
PUBLIC 3fa0c 0 geode::Popup<>::CloseEvent::~CloseEvent()
PUBLIC 3fa6c 0 geode::Popup<>::CloseEvent::~CloseEvent()
PUBLIC 3fadc 0 std::__ndk1::__shared_ptr_emplace<geode::Popup<>::CloseEvent::Impl, std::__ndk1::allocator<geode::Popup<>::CloseEvent::Impl> >::~__shared_ptr_emplace()
PUBLIC 3faec 0 std::__ndk1::__shared_ptr_emplace<geode::Popup<>::CloseEvent::Impl, std::__ndk1::allocator<geode::Popup<>::CloseEvent::Impl> >::~__shared_ptr_emplace()
PUBLIC 3fb1c 0 std::__ndk1::__shared_ptr_emplace<geode::Popup<>::CloseEvent::Impl, std::__ndk1::allocator<geode::Popup<>::CloseEvent::Impl> >::__on_zero_shared()
PUBLIC 3fb20 0 std::__ndk1::__shared_ptr_emplace<geode::Popup<>::CloseEvent::Impl, std::__ndk1::allocator<geode::Popup<>::CloseEvent::Impl> >::__on_zero_shared_weak()
PUBLIC 3fb24 0 GYModSettingsPopup::onApply(cocos2d::CCObject*)
PUBLIC 3fc24 0 GYModSettingsPopup::screenshotPopup(cocos2d::CCObject*)
PUBLIC 3fcd8 0 GYModSettingsPopup::setup(std::__ndk1::basic_string<char, std::__ndk1::char_traits<char>, std::__ndk1::allocator<char> > const&, std::__ndk1::basic_string<char, std::__ndk1::char_traits<char>, std::__ndk1::allocator<char> > const&, std::__ndk1::basic_string<char, std::__ndk1::char_traits<char>, std::__ndk1::allocator<char> > const&)
PUBLIC 40c74 0 Tags::Tags()
PUBLIC 42a84 0 Tags::~Tags()
PUBLIC 42b34 0 GYModSettingsPopup::create(std::__ndk1::basic_string<char, std::__ndk1::char_traits<char>, std::__ndk1::allocator<char> > const&, std::__ndk1::basic_string<char, std::__ndk1::char_traits<char>, std::__ndk1::allocator<char> > const&, std::__ndk1::basic_string<char, std::__ndk1::char_traits<char>, std::__ndk1::allocator<char> > const&)
PUBLIC 42c9c 0 GYModSettingsPopup::~GYModSettingsPopup()
PUBLIC 42d90 0 GYModSettingsPopup::~GYModSettingsPopup()
PUBLIC 42db4 0 geode::Popup<std::__ndk1::basic_string<char, std::__ndk1::char_traits<char>, std::__ndk1::allocator<char> > const&, std::__ndk1::basic_string<char, std::__ndk1::char_traits<char>, std::__ndk1::allocator<char> > const&, std::__ndk1::basic_string<char, std::__ndk1::char_traits<char>, std::__ndk1::allocator<char> > const&>::registerWithTouchDispatcher()
PUBLIC 42de0 0 geode::Popup<std::__ndk1::basic_string<char, std::__ndk1::char_traits<char>, std::__ndk1::allocator<char> > const&, std::__ndk1::basic_string<char, std::__ndk1::char_traits<char>, std::__ndk1::allocator<char> > const&, std::__ndk1::basic_string<char, std::__ndk1::char_traits<char>, std::__ndk1::allocator<char> > const&>::keyDown(cocos2d::enumKeyCodes)
PUBLIC 42e08 0 geode::Popup<std::__ndk1::basic_string<char, std::__ndk1::char_traits<char>, std::__ndk1::allocator<char> > const&, std::__ndk1::basic_string<char, std::__ndk1::char_traits<char>, std::__ndk1::allocator<char> > const&, std::__ndk1::basic_string<char, std::__ndk1::char_traits<char>, std::__ndk1::allocator<char> > const&>::onClose(cocos2d::CCObject*)
PUBLIC 42f3c 0 {virtual override thunk({offset(-320)}, GYModSettingsPopup::~GYModSettingsPopup())}
PUBLIC 42f44 0 {virtual override thunk({offset(-320)}, GYModSettingsPopup::~GYModSettingsPopup())}
PUBLIC 42f6c 0 {virtual override thunk({offset(-344)}, geode::Popup<std::__ndk1::basic_string<char, std::__ndk1::char_traits<char>, std::__ndk1::allocator<char> > const&, std::__ndk1::basic_string<char, std::__ndk1::char_traits<char>, std::__ndk1::allocator<char> > const&, std::__ndk1::basic_string<char, std::__ndk1::char_traits<char>, std::__ndk1::allocator<char> > const&>::keyDown(cocos2d::enumKeyCodes))}
PUBLIC 42f98 0 std::__ndk1::basic_string<char, std::__ndk1::char_traits<char>, std::__ndk1::allocator<char> >::__throw_length_error[abi:ne190000]() const
PUBLIC 42fac 0 std::__ndk1::unordered_map<int, std::__ndk1::basic_string<char, std::__ndk1::char_traits<char>, std::__ndk1::allocator<char> >, std::__ndk1::hash<int>, std::__ndk1::equal_to<int>, std::__ndk1::allocator<std::__ndk1::pair<int const, std::__ndk1::basic_string<char, std::__ndk1::char_traits<char>, std::__ndk1::allocator<char> > > > >::~unordered_map[abi:ne190000]()
PUBLIC 4301c 0 std::__ndk1::unordered_map<std::__ndk1::basic_string<char, std::__ndk1::char_traits<char>, std::__ndk1::allocator<char> >, int, std::__ndk1::hash<std::__ndk1::basic_string<char, std::__ndk1::char_traits<char>, std::__ndk1::allocator<char> > >, std::__ndk1::equal_to<std::__ndk1::basic_string<char, std::__ndk1::char_traits<char>, std::__ndk1::allocator<char> > >, std::__ndk1::allocator<std::__ndk1::pair<std::__ndk1::basic_string<char, std::__ndk1::char_traits<char>, std::__ndk1::allocator<char> > const, int> > >::~unordered_map[abi:ne190000]()
PUBLIC 4308c 0 std::__ndk1::__hash_table<std::__ndk1::__hash_value_type<std::__ndk1::basic_string<char, std::__ndk1::char_traits<char>, std::__ndk1::allocator<char> >, int>, std::__ndk1::__unordered_map_hasher<std::__ndk1::basic_string<char, std::__ndk1::char_traits<char>, std::__ndk1::allocator<char> >, std::__ndk1::__hash_value_type<std::__ndk1::basic_string<char, std::__ndk1::char_traits<char>, std::__ndk1::allocator<char> >, int>, std::__ndk1::hash<std::__ndk1::basic_string<char, std::__ndk1::char_traits<char>, std::__ndk1::allocator<char> > >, std::__ndk1::equal_to<std::__ndk1::basic_string<char, std::__ndk1::char_traits<char>, std::__ndk1::allocator<char> > >, true>, std::__ndk1::__unordered_map_equal<std::__ndk1::basic_string<char, std::__ndk1::char_traits<char>, std::__ndk1::allocator<char> >, std::__ndk1::__hash_value_type<std::__ndk1::basic_string<char, std::__ndk1::char_traits<char>, std::__ndk1::allocator<char> >, int>, std::__ndk1::equal_to<std::__ndk1::basic_string<char, std::__ndk1::char_traits<char>, std::__ndk1::allocator<char> > >, std::__ndk1::hash<std::__ndk1::basic_string<char, std::__ndk1::char_traits<char>, std::__ndk1::allocator<char> > >, true>, std::__ndk1::allocator<std::__ndk1::__hash_value_type<std::__ndk1::basic_string<char, std::__ndk1::char_traits<char>, std::__ndk1::allocator<char> >, int> > >::__assign_unique<std::__ndk1::pair<std::__ndk1::basic_string<char, std::__ndk1::char_traits<char>, std::__ndk1::allocator<char> > const, int> const*>(std::__ndk1::pair<std::__ndk1::basic_string<char, std::__ndk1::char_traits<char>, std::__ndk1::allocator<char> > const, int> const*, std::__ndk1::pair<std::__ndk1::basic_string<char, std::__ndk1::char_traits<char>, std::__ndk1::allocator<char> > const, int> const*)
PUBLIC 43200 0 std::__ndk1::__hash_table<std::__ndk1::__hash_value_type<std::__ndk1::basic_string<char, std::__ndk1::char_traits<char>, std::__ndk1::allocator<char> >, int>, std::__ndk1::__unordered_map_hasher<std::__ndk1::basic_string<char, std::__ndk1::char_traits<char>, std::__ndk1::allocator<char> >, std::__ndk1::__hash_value_type<std::__ndk1::basic_string<char, std::__ndk1::char_traits<char>, std::__ndk1::allocator<char> >, int>, std::__ndk1::hash<std::__ndk1::basic_string<char, std::__ndk1::char_traits<char>, std::__ndk1::allocator<char> > >, std::__ndk1::equal_to<std::__ndk1::basic_string<char, std::__ndk1::char_traits<char>, std::__ndk1::allocator<char> > >, true>, std::__ndk1::__unordered_map_equal<std::__ndk1::basic_string<char, std::__ndk1::char_traits<char>, std::__ndk1::allocator<char> >, std::__ndk1::__hash_value_type<std::__ndk1::basic_string<char, std::__ndk1::char_traits<char>, std::__ndk1::allocator<char> >, int>, std::__ndk1::equal_to<std::__ndk1::basic_string<char, std::__ndk1::char_traits<char>, std::__ndk1::allocator<char> > >, std::__ndk1::hash<std::__ndk1::basic_string<char, std::__ndk1::char_traits<char>, std::__ndk1::allocator<char> > >, true>, std::__ndk1::allocator<std::__ndk1::__hash_value_type<std::__ndk1::basic_string<char, std::__ndk1::char_traits<char>, std::__ndk1::allocator<char> >, int> > >::__node_insert_unique(std::__ndk1::__hash_node<std::__ndk1::__hash_value_type<std::__ndk1::basic_string<char, std::__ndk1::char_traits<char>, std::__ndk1::allocator<char> >, int>, void*>*)
PUBLIC 43364 0 std::__ndk1::__hash_table<std::__ndk1::__hash_value_type<std::__ndk1::basic_string<char, std::__ndk1::char_traits<char>, std::__ndk1::allocator<char> >, int>, std::__ndk1::__unordered_map_hasher<std::__ndk1::basic_string<char, std::__ndk1::char_traits<char>, std::__ndk1::allocator<char> >, std::__ndk1::__hash_value_type<std::__ndk1::basic_string<char, std::__ndk1::char_traits<char>, std::__ndk1::allocator<char> >, int>, std::__ndk1::hash<std::__ndk1::basic_string<char, std::__ndk1::char_traits<char>, std::__ndk1::allocator<char> > >, std::__ndk1::equal_to<std::__ndk1::basic_string<char, std::__ndk1::char_traits<char>, std::__ndk1::allocator<char> > >, true>, std::__ndk1::__unordered_map_equal<std::__ndk1::basic_string<char, std::__ndk1::char_traits<char>, std::__ndk1::allocator<char> >, std::__ndk1::__hash_value_type<std::__ndk1::basic_string<char, std::__ndk1::char_traits<char>, std::__ndk1::allocator<char> >, int>, std::__ndk1::equal_to<std::__ndk1::basic_string<char, std::__ndk1::char_traits<char>, std::__ndk1::allocator<char> > >, std::__ndk1::hash<std::__ndk1::basic_string<char, std::__ndk1::char_traits<char>, std::__ndk1::allocator<char> > >, true>, std::__ndk1::allocator<std::__ndk1::__hash_value_type<std::__ndk1::basic_string<char, std::__ndk1::char_traits<char>, std::__ndk1::allocator<char> >, int> > >::__deallocate_node(std::__ndk1::__hash_node_base<std::__ndk1::__hash_node<std::__ndk1::__hash_value_type<std::__ndk1::basic_string<char, std::__ndk1::char_traits<char>, std::__ndk1::allocator<char> >, int>, void*>*>*)
PUBLIC 433b0 0 std::__ndk1::basic_string<char, std::__ndk1::char_traits<char>, std::__ndk1::allocator<char> >::__assign_no_alias<true>(char const*, unsigned long)
PUBLIC 4345c 0 std::__ndk1::basic_string<char, std::__ndk1::char_traits<char>, std::__ndk1::allocator<char> >::__assign_no_alias<false>(char const*, unsigned long)
PUBLIC 43598 0 std::__ndk1::__hash_table<std::__ndk1::__hash_value_type<std::__ndk1::basic_string<char, std::__ndk1::char_traits<char>, std::__ndk1::allocator<char> >, int>, std::__ndk1::__unordered_map_hasher<std::__ndk1::basic_string<char, std::__ndk1::char_traits<char>, std::__ndk1::allocator<char> >, std::__ndk1::__hash_value_type<std::__ndk1::basic_string<char, std::__ndk1::char_traits<char>, std::__ndk1::allocator<char> >, int>, std::__ndk1::hash<std::__ndk1::basic_string<char, std::__ndk1::char_traits<char>, std::__ndk1::allocator<char> > >, std::__ndk1::equal_to<std::__ndk1::basic_string<char, std::__ndk1::char_traits<char>, std::__ndk1::allocator<char> > >, true>, std::__ndk1::__unordered_map_equal<std::__ndk1::basic_string<char, std::__ndk1::char_traits<char>, std::__ndk1::allocator<char> >, std::__ndk1::__hash_value_type<std::__ndk1::basic_string<char, std::__ndk1::char_traits<char>, std::__ndk1::allocator<char> >, int>, std::__ndk1::equal_to<std::__ndk1::basic_string<char, std::__ndk1::char_traits<char>, std::__ndk1::allocator<char> > >, std::__ndk1::hash<std::__ndk1::basic_string<char, std::__ndk1::char_traits<char>, std::__ndk1::allocator<char> > >, true>, std::__ndk1::allocator<std::__ndk1::__hash_value_type<std::__ndk1::basic_string<char, std::__ndk1::char_traits<char>, std::__ndk1::allocator<char> >, int> > >::__node_insert_unique_prepare[abi:ne190000](unsigned long, std::__ndk1::__hash_value_type<std::__ndk1::basic_string<char, std::__ndk1::char_traits<char>, std::__ndk1::allocator<char> >, int>&)
PUBLIC 438a8 0 std::__ndk1::__murmur2_or_cityhash<unsigned long, (unsigned long)64>::operator()[abi:ne190000](void const*, unsigned long) const
PUBLIC 43cf4 0 std::__ndk1::__hash_table<std::__ndk1::__hash_value_type<std::__ndk1::basic_string<char, std::__ndk1::char_traits<char>, std::__ndk1::allocator<char> >, int>, std::__ndk1::__unordered_map_hasher<std::__ndk1::basic_string<char, std::__ndk1::char_traits<char>, std::__ndk1::allocator<char> >, std::__ndk1::__hash_value_type<std::__ndk1::basic_string<char, std::__ndk1::char_traits<char>, std::__ndk1::allocator<char> >, int>, std::__ndk1::hash<std::__ndk1::basic_string<char, std::__ndk1::char_traits<char>, std::__ndk1::allocator<char> > >, std::__ndk1::equal_to<std::__ndk1::basic_string<char, std::__ndk1::char_traits<char>, std::__ndk1::allocator<char> > >, true>, std::__ndk1::__unordered_map_equal<std::__ndk1::basic_string<char, std::__ndk1::char_traits<char>, std::__ndk1::allocator<char> >, std::__ndk1::__hash_value_type<std::__ndk1::basic_string<char, std::__ndk1::char_traits<char>, std::__ndk1::allocator<char> >, int>, std::__ndk1::equal_to<std::__ndk1::basic_string<char, std::__ndk1::char_traits<char>, std::__ndk1::allocator<char> > >, std::__ndk1::hash<std::__ndk1::basic_string<char, std::__ndk1::char_traits<char>, std::__ndk1::allocator<char> > >, true>, std::__ndk1::allocator<std::__ndk1::__hash_value_type<std::__ndk1::basic_string<char, std::__ndk1::char_traits<char>, std::__ndk1::allocator<char> >, int> > >::__do_rehash<true>(unsigned long)
PUBLIC 43ea0 0 std::__ndk1::__hash_table<std::__ndk1::__hash_value_type<std::__ndk1::basic_string<char, std::__ndk1::char_traits<char>, std::__ndk1::allocator<char> >, int>, std::__ndk1::__unordered_map_hasher<std::__ndk1::basic_string<char, std::__ndk1::char_traits<char>, std::__ndk1::allocator<char> >, std::__ndk1::__hash_value_type<std::__ndk1::basic_string<char, std::__ndk1::char_traits<char>, std::__ndk1::allocator<char> >, int>, std::__ndk1::hash<std::__ndk1::basic_string<char, std::__ndk1::char_traits<char>, std::__ndk1::allocator<char> > >, std::__ndk1::equal_to<std::__ndk1::basic_string<char, std::__ndk1::char_traits<char>, std::__ndk1::allocator<char> > >, true>, std::__ndk1::__unordered_map_equal<std::__ndk1::basic_string<char, std::__ndk1::char_traits<char>, std::__ndk1::allocator<char> >, std::__ndk1::__hash_value_type<std::__ndk1::basic_string<char, std::__ndk1::char_traits<char>, std::__ndk1::allocator<char> >, int>, std::__ndk1::equal_to<std::__ndk1::basic_string<char, std::__ndk1::char_traits<char>, std::__ndk1::allocator<char> > >, std::__ndk1::hash<std::__ndk1::basic_string<char, std::__ndk1::char_traits<char>, std::__ndk1::allocator<char> > >, true>, std::__ndk1::allocator<std::__ndk1::__hash_value_type<std::__ndk1::basic_string<char, std::__ndk1::char_traits<char>, std::__ndk1::allocator<char> >, int> > >::__emplace_unique_key_args<std::__ndk1::basic_string<char, std::__ndk1::char_traits<char>, std::__ndk1::allocator<char> >, std::__ndk1::pair<std::__ndk1::basic_string<char, std::__ndk1::char_traits<char>, std::__ndk1::allocator<char> > const, int> const&>(std::__ndk1::basic_string<char, std::__ndk1::char_traits<char>, std::__ndk1::allocator<char> > const&, std::__ndk1::pair<std::__ndk1::basic_string<char, std::__ndk1::char_traits<char>, std::__ndk1::allocator<char> > const, int> const&)
PUBLIC 44360 0 std::__ndk1::unique_ptr<std::__ndk1::__hash_node<std::__ndk1::__hash_value_type<std::__ndk1::basic_string<char, std::__ndk1::char_traits<char>, std::__ndk1::allocator<char> >, int>, void*>, std::__ndk1::__hash_node_destructor<std::__ndk1::allocator<std::__ndk1::__hash_node<std::__ndk1::__hash_value_type<std::__ndk1::basic_string<char, std::__ndk1::char_traits<char>, std::__ndk1::allocator<char> >, int>, void*> > > >::~unique_ptr[abi:ne190000]()
PUBLIC 443b0 0 std::__ndk1::__hash_table<std::__ndk1::__hash_value_type<int, std::__ndk1::basic_string<char, std::__ndk1::char_traits<char>, std::__ndk1::allocator<char> > >, std::__ndk1::__unordered_map_hasher<int, std::__ndk1::__hash_value_type<int, std::__ndk1::basic_string<char, std::__ndk1::char_traits<char>, std::__ndk1::allocator<char> > >, std::__ndk1::hash<int>, std::__ndk1::equal_to<int>, true>, std::__ndk1::__unordered_map_equal<int, std::__ndk1::__hash_value_type<int, std::__ndk1::basic_string<char, std::__ndk1::char_traits<char>, std::__ndk1::allocator<char> > >, std::__ndk1::equal_to<int>, std::__ndk1::hash<int>, true>, std::__ndk1::allocator<std::__ndk1::__hash_value_type<int, std::__ndk1::basic_string<char, std::__ndk1::char_traits<char>, std::__ndk1::allocator<char> > > > >::__assign_unique<std::__ndk1::pair<int const, std::__ndk1::basic_string<char, std::__ndk1::char_traits<char>, std::__ndk1::allocator<char> > > const*>(std::__ndk1::pair<int const, std::__ndk1::basic_string<char, std::__ndk1::char_traits<char>, std::__ndk1::allocator<char> > > const*, std::__ndk1::pair<int const, std::__ndk1::basic_string<char, std::__ndk1::char_traits<char>, std::__ndk1::allocator<char> > > const*)
PUBLIC 44610 0 std::__ndk1::__hash_table<std::__ndk1::__hash_value_type<int, std::__ndk1::basic_string<char, std::__ndk1::char_traits<char>, std::__ndk1::allocator<char> > >, std::__ndk1::__unordered_map_hasher<int, std::__ndk1::__hash_value_type<int, std::__ndk1::basic_string<char, std::__ndk1::char_traits<char>, std::__ndk1::allocator<char> > >, std::__ndk1::hash<int>, std::__ndk1::equal_to<int>, true>, std::__ndk1::__unordered_map_equal<int, std::__ndk1::__hash_value_type<int, std::__ndk1::basic_string<char, std::__ndk1::char_traits<char>, std::__ndk1::allocator<char> > >, std::__ndk1::equal_to<int>, std::__ndk1::hash<int>, true>, std::__ndk1::allocator<std::__ndk1::__hash_value_type<int, std::__ndk1::basic_string<char, std::__ndk1::char_traits<char>, std::__ndk1::allocator<char> > > > >::__deallocate_node(std::__ndk1::__hash_node_base<std::__ndk1::__hash_node<std::__ndk1::__hash_value_type<int, std::__ndk1::basic_string<char, std::__ndk1::char_traits<char>, std::__ndk1::allocator<char> > >, void*>*>*)
PUBLIC 4465c 0 std::__ndk1::__hash_table<std::__ndk1::__hash_value_type<int, std::__ndk1::basic_string<char, std::__ndk1::char_traits<char>, std::__ndk1::allocator<char> > >, std::__ndk1::__unordered_map_hasher<int, std::__ndk1::__hash_value_type<int, std::__ndk1::basic_string<char, std::__ndk1::char_traits<char>, std::__ndk1::allocator<char> > >, std::__ndk1::hash<int>, std::__ndk1::equal_to<int>, true>, std::__ndk1::__unordered_map_equal<int, std::__ndk1::__hash_value_type<int, std::__ndk1::basic_string<char, std::__ndk1::char_traits<char>, std::__ndk1::allocator<char> > >, std::__ndk1::equal_to<int>, std::__ndk1::hash<int>, true>, std::__ndk1::allocator<std::__ndk1::__hash_value_type<int, std::__ndk1::basic_string<char, std::__ndk1::char_traits<char>, std::__ndk1::allocator<char> > > > >::__node_insert_unique_prepare[abi:ne190000](unsigned long, std::__ndk1::__hash_value_type<int, std::__ndk1::basic_string<char, std::__ndk1::char_traits<char>, std::__ndk1::allocator<char> > >&)
PUBLIC 4487c 0 std::__ndk1::__hash_table<std::__ndk1::__hash_value_type<int, std::__ndk1::basic_string<char, std::__ndk1::char_traits<char>, std::__ndk1::allocator<char> > >, std::__ndk1::__unordered_map_hasher<int, std::__ndk1::__hash_value_type<int, std::__ndk1::basic_string<char, std::__ndk1::char_traits<char>, std::__ndk1::allocator<char> > >, std::__ndk1::hash<int>, std::__ndk1::equal_to<int>, true>, std::__ndk1::__unordered_map_equal<int, std::__ndk1::__hash_value_type<int, std::__ndk1::basic_string<char, std::__ndk1::char_traits<char>, std::__ndk1::allocator<char> > >, std::__ndk1::equal_to<int>, std::__ndk1::hash<int>, true>, std::__ndk1::allocator<std::__ndk1::__hash_value_type<int, std::__ndk1::basic_string<char, std::__ndk1::char_traits<char>, std::__ndk1::allocator<char> > > > >::__do_rehash<true>(unsigned long)
PUBLIC 44a28 0 std::__ndk1::__hash_table<std::__ndk1::__hash_value_type<int, std::__ndk1::basic_string<char, std::__ndk1::char_traits<char>, std::__ndk1::allocator<char> > >, std::__ndk1::__unordered_map_hasher<int, std::__ndk1::__hash_value_type<int, std::__ndk1::basic_string<char, std::__ndk1::char_traits<char>, std::__ndk1::allocator<char> > >, std::__ndk1::hash<int>, std::__ndk1::equal_to<int>, true>, std::__ndk1::__unordered_map_equal<int, std::__ndk1::__hash_value_type<int, std::__ndk1::basic_string<char, std::__ndk1::char_traits<char>, std::__ndk1::allocator<char> > >, std::__ndk1::equal_to<int>, std::__ndk1::hash<int>, true>, std::__ndk1::allocator<std::__ndk1::__hash_value_type<int, std::__ndk1::basic_string<char, std::__ndk1::char_traits<char>, std::__ndk1::allocator<char> > > > >::__emplace_unique_key_args<int, std::__ndk1::pair<int const, std::__ndk1::basic_string<char, std::__ndk1::char_traits<char>, std::__ndk1::allocator<char> > > const&>(int const&, std::__ndk1::pair<int const, std::__ndk1::basic_string<char, std::__ndk1::char_traits<char>, std::__ndk1::allocator<char> > > const&)
PUBLIC 44de4 0 std::__ndk1::unique_ptr<std::__ndk1::__hash_node<std::__ndk1::__hash_value_type<int, std::__ndk1::basic_string<char, std::__ndk1::char_traits<char>, std::__ndk1::allocator<char> > >, void*>, std::__ndk1::__hash_node_destructor<std::__ndk1::allocator<std::__ndk1::__hash_node<std::__ndk1::__hash_value_type<int, std::__ndk1::basic_string<char, std::__ndk1::char_traits<char>, std::__ndk1::allocator<char> > >, void*> > > >::~unique_ptr[abi:ne190000]()
PUBLIC 44e34 0 std::__ndk1::basic_string<char, std::__ndk1::char_traits<char>, std::__ndk1::allocator<char> >::__init_copy_ctor_external(char const*, unsigned long)
PUBLIC 44ec8 0 geode::Popup<std::__ndk1::basic_string<char, std::__ndk1::char_traits<char>, std::__ndk1::allocator<char> > const&, std::__ndk1::basic_string<char, std::__ndk1::char_traits<char>, std::__ndk1::allocator<char> > const&, std::__ndk1::basic_string<char, std::__ndk1::char_traits<char>, std::__ndk1::allocator<char> > const&>::~Popup()
PUBLIC 44f34 0 geode::Popup<std::__ndk1::basic_string<char, std::__ndk1::char_traits<char>, std::__ndk1::allocator<char> > const&, std::__ndk1::basic_string<char, std::__ndk1::char_traits<char>, std::__ndk1::allocator<char> > const&, std::__ndk1::basic_string<char, std::__ndk1::char_traits<char>, std::__ndk1::allocator<char> > const&>::~Popup()
PUBLIC 44f38 0 {virtual override thunk({offset(-320)}, geode::Popup<std::__ndk1::basic_string<char, std::__ndk1::char_traits<char>, std::__ndk1::allocator<char> > const&, std::__ndk1::basic_string<char, std::__ndk1::char_traits<char>, std::__ndk1::allocator<char> > const&, std::__ndk1::basic_string<char, std::__ndk1::char_traits<char>, std::__ndk1::allocator<char> > const&>::~Popup())}
PUBLIC 44fa4 0 {virtual override thunk({offset(-320)}, geode::Popup<std::__ndk1::basic_string<char, std::__ndk1::char_traits<char>, std::__ndk1::allocator<char> > const&, std::__ndk1::basic_string<char, std::__ndk1::char_traits<char>, std::__ndk1::allocator<char> > const&, std::__ndk1::basic_string<char, std::__ndk1::char_traits<char>, std::__ndk1::allocator<char> > const&>::~Popup())}
PUBLIC 44fa8 0 geode::Popup<std::__ndk1::basic_string<char, std::__ndk1::char_traits<char>, std::__ndk1::allocator<char> > const&, std::__ndk1::basic_string<char, std::__ndk1::char_traits<char>, std::__ndk1::allocator<char> > const&, std::__ndk1::basic_string<char, std::__ndk1::char_traits<char>, std::__ndk1::allocator<char> > const&>::initBase(float, float, std::__ndk1::basic_string<char, std::__ndk1::char_traits<char>, std::__ndk1::allocator<char> > const&, std::__ndk1::basic_string<char, std::__ndk1::char_traits<char>, std::__ndk1::allocator<char> > const&, std::__ndk1::basic_string<char, std::__ndk1::char_traits<char>, std::__ndk1::allocator<char> > const&, char const*, cocos2d::CCRect, bool)
PUBLIC 452b0 0 geode::Popup<std::__ndk1::basic_string<char, std::__ndk1::char_traits<char>, std::__ndk1::allocator<char> > const&, std::__ndk1::basic_string<char, std::__ndk1::char_traits<char>, std::__ndk1::allocator<char> > const&, std::__ndk1::basic_string<char, std::__ndk1::char_traits<char>, std::__ndk1::allocator<char> > const&>::CloseEvent::~CloseEvent()
PUBLIC 45310 0 geode::Popup<std::__ndk1::basic_string<char, std::__ndk1::char_traits<char>, std::__ndk1::allocator<char> > const&, std::__ndk1::basic_string<char, std::__ndk1::char_traits<char>, std::__ndk1::allocator<char> > const&, std::__ndk1::basic_string<char, std::__ndk1::char_traits<char>, std::__ndk1::allocator<char> > const&>::CloseEvent::~CloseEvent()
PUBLIC 45380 0 std::__ndk1::__shared_ptr_emplace<geode::Popup<std::__ndk1::basic_string<char, std::__ndk1::char_traits<char>, std::__ndk1::allocator<char> > const&, std::__ndk1::basic_string<char, std::__ndk1::char_traits<char>, std::__ndk1::allocator<char> > const&, std::__ndk1::basic_string<char, std::__ndk1::char_traits<char>, std::__ndk1::allocator<char> > const&>::CloseEvent::Impl, std::__ndk1::allocator<geode::Popup<std::__ndk1::basic_string<char, std::__ndk1::char_traits<char>, std::__ndk1::allocator<char> > const&, std::__ndk1::basic_string<char, std::__ndk1::char_traits<char>, std::__ndk1::allocator<char> > const&, std::__ndk1::basic_string<char, std::__ndk1::char_traits<char>, std::__ndk1::allocator<char> > const&>::CloseEvent::Impl> >::~__shared_ptr_emplace()
PUBLIC 45390 0 std::__ndk1::__shared_ptr_emplace<geode::Popup<std::__ndk1::basic_string<char, std::__ndk1::char_traits<char>, std::__ndk1::allocator<char> > const&, std::__ndk1::basic_string<char, std::__ndk1::char_traits<char>, std::__ndk1::allocator<char> > const&, std::__ndk1::basic_string<char, std::__ndk1::char_traits<char>, std::__ndk1::allocator<char> > const&>::CloseEvent::Impl, std::__ndk1::allocator<geode::Popup<std::__ndk1::basic_string<char, std::__ndk1::char_traits<char>, std::__ndk1::allocator<char> > const&, std::__ndk1::basic_string<char, std::__ndk1::char_traits<char>, std::__ndk1::allocator<char> > const&, std::__ndk1::basic_string<char, std::__ndk1::char_traits<char>, std::__ndk1::allocator<char> > const&>::CloseEvent::Impl> >::~__shared_ptr_emplace()
PUBLIC 453c0 0 std::__ndk1::__shared_ptr_emplace<geode::Popup<std::__ndk1::basic_string<char, std::__ndk1::char_traits<char>, std::__ndk1::allocator<char> > const&, std::__ndk1::basic_string<char, std::__ndk1::char_traits<char>, std::__ndk1::allocator<char> > const&, std::__ndk1::basic_string<char, std::__ndk1::char_traits<char>, std::__ndk1::allocator<char> > const&>::CloseEvent::Impl, std::__ndk1::allocator<geode::Popup<std::__ndk1::basic_string<char, std::__ndk1::char_traits<char>, std::__ndk1::allocator<char> > const&, std::__ndk1::basic_string<char, std::__ndk1::char_traits<char>, std::__ndk1::allocator<char> > const&, std::__ndk1::basic_string<char, std::__ndk1::char_traits<char>, std::__ndk1::allocator<char> > const&>::CloseEvent::Impl> >::__on_zero_shared()
PUBLIC 453c4 0 std::__ndk1::__shared_ptr_emplace<geode::Popup<std::__ndk1::basic_string<char, std::__ndk1::char_traits<char>, std::__ndk1::allocator<char> > const&, std::__ndk1::basic_string<char, std::__ndk1::char_traits<char>, std::__ndk1::allocator<char> > const&, std::__ndk1::basic_string<char, std::__ndk1::char_traits<char>, std::__ndk1::allocator<char> > const&>::CloseEvent::Impl, std::__ndk1::allocator<geode::Popup<std::__ndk1::basic_string<char, std::__ndk1::char_traits<char>, std::__ndk1::allocator<char> > const&, std::__ndk1::basic_string<char, std::__ndk1::char_traits<char>, std::__ndk1::allocator<char> > const&, std::__ndk1::basic_string<char, std::__ndk1::char_traits<char>, std::__ndk1::allocator<char> > const&>::CloseEvent::Impl> >::__on_zero_shared_weak()
PUBLIC 453c8 0 GYModTile::viewMod(cocos2d::CCObject*)
PUBLIC 4546c 0 GYModTile::create(std::__ndk1::basic_string<char, std::__ndk1::char_traits<char>, std::__ndk1::allocator<char> >, std::__ndk1::basic_string<char, std::__ndk1::char_traits<char>, std::__ndk1::allocator<char> >, std::__ndk1::basic_string<char, std::__ndk1::char_traits<char>, std::__ndk1::allocator<char> >)
PUBLIC 45de0 0 GYModTile::~GYModTile()
PUBLIC 45e7c 0 GYModTile::~GYModTile()
PUBLIC 45f28 0 {virtual override thunk({offset(-320)}, GYModTile::~GYModTile())}
PUBLIC 45fc8 0 {virtual override thunk({offset(-320)}, GYModTile::~GYModTile())}
PUBLIC 46078 0 GYScreenshotPopup::setup(int const&)
PUBLIC 46920 0 geode::Task<geode::utils::web::WebResponse, geode::utils::web::WebProgress>::~Task()
PUBLIC 46970 0 GYScreenshotPopup::create(int const&)
PUBLIC 46a80 0 GYScreenshotPopup::GYScreenshotPopup()
PUBLIC 46bcc 0 GYScreenshotPopup::~GYScreenshotPopup()
PUBLIC 46d08 0 GYScreenshotPopup::~GYScreenshotPopup()
PUBLIC 46d2c 0 geode::Popup<int const&>::registerWithTouchDispatcher()
PUBLIC 46d58 0 geode::Popup<int const&>::keyDown(cocos2d::enumKeyCodes)
PUBLIC 46d80 0 geode::Popup<int const&>::onClose(cocos2d::CCObject*)
PUBLIC 46eb4 0 {virtual override thunk({offset(-320)}, GYScreenshotPopup::~GYScreenshotPopup())}
PUBLIC 46ebc 0 {virtual override thunk({offset(-320)}, GYScreenshotPopup::~GYScreenshotPopup())}
PUBLIC 46ee4 0 {virtual override thunk({offset(-344)}, geode::Popup<int const&>::keyDown(cocos2d::enumKeyCodes))}
PUBLIC 46f10 0 std::__ndk1::basic_string<char, std::__ndk1::char_traits<char>, std::__ndk1::allocator<char> >::__throw_out_of_range[abi:ne190000]() const
PUBLIC 46f1c 0 std::__ndk1::__throw_out_of_range[abi:ne190000](char const*)
PUBLIC 46f6c 0 std::out_of_range::out_of_range[abi:ne190000](char const*)
PUBLIC 46f9c 0 geode::Popup<int const&>::~Popup()
PUBLIC 47008 0 geode::Popup<int const&>::~Popup()
PUBLIC 4700c 0 {virtual override thunk({offset(-320)}, geode::Popup<int const&>::~Popup())}
PUBLIC 47078 0 {virtual override thunk({offset(-320)}, geode::Popup<int const&>::~Popup())}
PUBLIC 4707c 0 geode::Task<geode::utils::web::WebResponse, geode::utils::web::WebProgress>::setListener(geode::EventListenerProtocol*)
PUBLIC 47280 0 geode::EventListener<geode::Task<geode::utils::web::WebResponse, geode::utils::web::WebProgress> >::getPool() const
PUBLIC 47284 0 geode::EventListener<geode::Task<geode::utils::web::WebResponse, geode::utils::web::WebProgress> >::handle(geode::Event*)
PUBLIC 47450 0 geode::EventListener<geode::Task<geode::utils::web::WebResponse, geode::utils::web::WebProgress> >::~EventListener()
PUBLIC 474ec 0 geode::EventListener<geode::Task<geode::utils::web::WebResponse, geode::utils::web::WebProgress> >::~EventListener()
PUBLIC 47590 0 geode::Task<geode::utils::web::WebResponse, geode::utils::web::WebProgress>::setListener(geode::EventListenerProtocol*)::{lambda()#1}::~{lambda()#1}()
PUBLIC 475e0 0 geode::Task<geode::utils::web::WebResponse, geode::utils::web::WebProgress>::setListener(geode::EventListenerProtocol*)::{lambda()#2}::~{lambda()#2}()
PUBLIC 47630 0 std::__ndk1::__function::__func<geode::Task<geode::utils::web::WebResponse, geode::utils::web::WebProgress>::setListener(geode::EventListenerProtocol*)::{lambda()#1}, std::__ndk1::allocator<geode::Task<geode::utils::web::WebResponse, geode::utils::web::WebProgress>::setListener(geode::EventListenerProtocol*)::{lambda()#1}>, void ()>::~__func()
PUBLIC 4768c 0 std::__ndk1::__function::__func<geode::Task<geode::utils::web::WebResponse, geode::utils::web::WebProgress>::setListener(geode::EventListenerProtocol*)::{lambda()#1}, std::__ndk1::allocator<geode::Task<geode::utils::web::WebResponse, geode::utils::web::WebProgress>::setListener(geode::EventListenerProtocol*)::{lambda()#1}>, void ()>::~__func()
PUBLIC 476f8 0 std::__ndk1::__function::__func<geode::Task<geode::utils::web::WebResponse, geode::utils::web::WebProgress>::setListener(geode::EventListenerProtocol*)::{lambda()#1}, std::__ndk1::allocator<geode::Task<geode::utils::web::WebResponse, geode::utils::web::WebProgress>::setListener(geode::EventListenerProtocol*)::{lambda()#1}>, void ()>::__clone() const
PUBLIC 47750 0 std::__ndk1::__function::__func<geode::Task<geode::utils::web::WebResponse, geode::utils::web::WebProgress>::setListener(geode::EventListenerProtocol*)::{lambda()#1}, std::__ndk1::allocator<geode::Task<geode::utils::web::WebResponse, geode::utils::web::WebProgress>::setListener(geode::EventListenerProtocol*)::{lambda()#1}>, void ()>::__clone(std::__ndk1::__function::__base<void ()>*) const
PUBLIC 4779c 0 std::__ndk1::__function::__func<geode::Task<geode::utils::web::WebResponse, geode::utils::web::WebProgress>::setListener(geode::EventListenerProtocol*)::{lambda()#1}, std::__ndk1::allocator<geode::Task<geode::utils::web::WebResponse, geode::utils::web::WebProgress>::setListener(geode::EventListenerProtocol*)::{lambda()#1}>, void ()>::destroy()
PUBLIC 477ec 0 std::__ndk1::__function::__func<geode::Task<geode::utils::web::WebResponse, geode::utils::web::WebProgress>::setListener(geode::EventListenerProtocol*)::{lambda()#1}, std::__ndk1::allocator<geode::Task<geode::utils::web::WebResponse, geode::utils::web::WebProgress>::setListener(geode::EventListenerProtocol*)::{lambda()#1}>, void ()>::destroy_deallocate()
PUBLIC 4784c 0 std::__ndk1::__function::__func<geode::Task<geode::utils::web::WebResponse, geode::utils::web::WebProgress>::setListener(geode::EventListenerProtocol*)::{lambda()#1}, std::__ndk1::allocator<geode::Task<geode::utils::web::WebResponse, geode::utils::web::WebProgress>::setListener(geode::EventListenerProtocol*)::{lambda()#1}>, void ()>::operator()()
PUBLIC 479e4 0 std::__ndk1::__function::__func<geode::Task<geode::utils::web::WebResponse, geode::utils::web::WebProgress>::setListener(geode::EventListenerProtocol*)::{lambda()#1}, std::__ndk1::allocator<geode::Task<geode::utils::web::WebResponse, geode::utils::web::WebProgress>::setListener(geode::EventListenerProtocol*)::{lambda()#1}>, void ()>::target(std::type_info const&) const
PUBLIC 47a00 0 std::__ndk1::__function::__func<geode::Task<geode::utils::web::WebResponse, geode::utils::web::WebProgress>::setListener(geode::EventListenerProtocol*)::{lambda()#1}, std::__ndk1::allocator<geode::Task<geode::utils::web::WebResponse, geode::utils::web::WebProgress>::setListener(geode::EventListenerProtocol*)::{lambda()#1}>, void ()>::target_type() const
PUBLIC 47a0c 0 geode::Task<geode::utils::web::WebResponse, geode::utils::web::WebProgress>::Event::~Event()
PUBLIC 47a6c 0 geode::Task<geode::utils::web::WebResponse, geode::utils::web::WebProgress>::Event::~Event()
PUBLIC 47adc 0 std::__ndk1::__function::__func<geode::Task<geode::utils::web::WebResponse, geode::utils::web::WebProgress>::setListener(geode::EventListenerProtocol*)::{lambda()#2}, std::__ndk1::allocator<geode::Task<geode::utils::web::WebResponse, geode::utils::web::WebProgress>::setListener(geode::EventListenerProtocol*)::{lambda()#2}>, void ()>::~__func()
PUBLIC 47b38 0 std::__ndk1::__function::__func<geode::Task<geode::utils::web::WebResponse, geode::utils::web::WebProgress>::setListener(geode::EventListenerProtocol*)::{lambda()#2}, std::__ndk1::allocator<geode::Task<geode::utils::web::WebResponse, geode::utils::web::WebProgress>::setListener(geode::EventListenerProtocol*)::{lambda()#2}>, void ()>::~__func()
PUBLIC 47ba4 0 std::__ndk1::__function::__func<geode::Task<geode::utils::web::WebResponse, geode::utils::web::WebProgress>::setListener(geode::EventListenerProtocol*)::{lambda()#2}, std::__ndk1::allocator<geode::Task<geode::utils::web::WebResponse, geode::utils::web::WebProgress>::setListener(geode::EventListenerProtocol*)::{lambda()#2}>, void ()>::__clone() const
PUBLIC 47bfc 0 std::__ndk1::__function::__func<geode::Task<geode::utils::web::WebResponse, geode::utils::web::WebProgress>::setListener(geode::EventListenerProtocol*)::{lambda()#2}, std::__ndk1::allocator<geode::Task<geode::utils::web::WebResponse, geode::utils::web::WebProgress>::setListener(geode::EventListenerProtocol*)::{lambda()#2}>, void ()>::__clone(std::__ndk1::__function::__base<void ()>*) const
PUBLIC 47c48 0 std::__ndk1::__function::__func<geode::Task<geode::utils::web::WebResponse, geode::utils::web::WebProgress>::setListener(geode::EventListenerProtocol*)::{lambda()#2}, std::__ndk1::allocator<geode::Task<geode::utils::web::WebResponse, geode::utils::web::WebProgress>::setListener(geode::EventListenerProtocol*)::{lambda()#2}>, void ()>::destroy()
PUBLIC 47c98 0 std::__ndk1::__function::__func<geode::Task<geode::utils::web::WebResponse, geode::utils::web::WebProgress>::setListener(geode::EventListenerProtocol*)::{lambda()#2}, std::__ndk1::allocator<geode::Task<geode::utils::web::WebResponse, geode::utils::web::WebProgress>::setListener(geode::EventListenerProtocol*)::{lambda()#2}>, void ()>::destroy_deallocate()
PUBLIC 47cf8 0 std::__ndk1::__function::__func<geode::Task<geode::utils::web::WebResponse, geode::utils::web::WebProgress>::setListener(geode::EventListenerProtocol*)::{lambda()#2}, std::__ndk1::allocator<geode::Task<geode::utils::web::WebResponse, geode::utils::web::WebProgress>::setListener(geode::EventListenerProtocol*)::{lambda()#2}>, void ()>::operator()()
PUBLIC 47e80 0 std::__ndk1::__function::__func<geode::Task<geode::utils::web::WebResponse, geode::utils::web::WebProgress>::setListener(geode::EventListenerProtocol*)::{lambda()#2}, std::__ndk1::allocator<geode::Task<geode::utils::web::WebResponse, geode::utils::web::WebProgress>::setListener(geode::EventListenerProtocol*)::{lambda()#2}>, void ()>::target(std::type_info const&) const
PUBLIC 47e9c 0 std::__ndk1::__function::__func<geode::Task<geode::utils::web::WebResponse, geode::utils::web::WebProgress>::setListener(geode::EventListenerProtocol*)::{lambda()#2}, std::__ndk1::allocator<geode::Task<geode::utils::web::WebResponse, geode::utils::web::WebProgress>::setListener(geode::EventListenerProtocol*)::{lambda()#2}>, void ()>::target_type() const
PUBLIC 47ea8 0 std::__ndk1::__function::__base<void (geode::Task<geode::utils::web::WebResponse, geode::utils::web::WebProgress>::Event*)>::~__base()
PUBLIC 47eac 0 std::__ndk1::__function::__func<GYScreenshotPopup::setup(int const&)::$_0, std::__ndk1::allocator<GYScreenshotPopup::setup(int const&)::$_0>, void (geode::Task<geode::utils::web::WebResponse, geode::utils::web::WebProgress>::Event*)>::~__func()
PUBLIC 47eb0 0 std::__ndk1::__function::__func<GYScreenshotPopup::setup(int const&)::$_0, std::__ndk1::allocator<GYScreenshotPopup::setup(int const&)::$_0>, void (geode::Task<geode::utils::web::WebResponse, geode::utils::web::WebProgress>::Event*)>::__clone() const
PUBLIC 47ee4 0 std::__ndk1::__function::__func<GYScreenshotPopup::setup(int const&)::$_0, std::__ndk1::allocator<GYScreenshotPopup::setup(int const&)::$_0>, void (geode::Task<geode::utils::web::WebResponse, geode::utils::web::WebProgress>::Event*)>::__clone(std::__ndk1::__function::__base<void (geode::Task<geode::utils::web::WebResponse, geode::utils::web::WebProgress>::Event*)>*) const
PUBLIC 47ef8 0 std::__ndk1::__function::__func<GYScreenshotPopup::setup(int const&)::$_0, std::__ndk1::allocator<GYScreenshotPopup::setup(int const&)::$_0>, void (geode::Task<geode::utils::web::WebResponse, geode::utils::web::WebProgress>::Event*)>::destroy()
PUBLIC 47efc 0 std::__ndk1::__function::__func<GYScreenshotPopup::setup(int const&)::$_0, std::__ndk1::allocator<GYScreenshotPopup::setup(int const&)::$_0>, void (geode::Task<geode::utils::web::WebResponse, geode::utils::web::WebProgress>::Event*)>::destroy_deallocate()
PUBLIC 47f00 0 std::__ndk1::__function::__func<GYScreenshotPopup::setup(int const&)::$_0, std::__ndk1::allocator<GYScreenshotPopup::setup(int const&)::$_0>, void (geode::Task<geode::utils::web::WebResponse, geode::utils::web::WebProgress>::Event*)>::operator()(geode::Task<geode::utils::web::WebResponse, geode::utils::web::WebProgress>::Event*&&)
PUBLIC 481e8 0 std::__ndk1::__function::__func<GYScreenshotPopup::setup(int const&)::$_0, std::__ndk1::allocator<GYScreenshotPopup::setup(int const&)::$_0>, void (geode::Task<geode::utils::web::WebResponse, geode::utils::web::WebProgress>::Event*)>::target(std::type_info const&) const
PUBLIC 48204 0 std::__ndk1::__function::__func<GYScreenshotPopup::setup(int const&)::$_0, std::__ndk1::allocator<GYScreenshotPopup::setup(int const&)::$_0>, void (geode::Task<geode::utils::web::WebResponse, geode::utils::web::WebProgress>::Event*)>::target_type() const
PUBLIC 48210 0 std::__ndk1::vector<unsigned char, std::__ndk1::allocator<unsigned char> >::__throw_length_error[abi:ne190000]() const
PUBLIC 48224 0 std::__ndk1::__thread_proxy[abi:ne190000]<std::__ndk1::tuple<std::__ndk1::unique_ptr<std::__ndk1::__thread_struct, std::__ndk1::default_delete<std::__ndk1::unique_ptr> >, GYScreenshotPopup::setup(int const&)::$_0::operator()(geode::Task<$_0::utils::web::WebResponse, $_0::utils::WebProgress>::Event*) const::{lambda()#1}> >(std::__ndk1::tuple<std::__ndk1::unique_ptr<std::__ndk1::__thread_struct, std::__ndk1::default_delete<std::__ndk1::unique_ptr> >, GYScreenshotPopup::setup(int const&)::$_0::operator()(geode::Task<$_0::utils::web::WebResponse, $_0::utils::WebProgress>::Event*) const::{lambda()#1}>)
PUBLIC 483d4 0 std::__ndk1::unique_ptr<std::__ndk1::tuple<std::__ndk1::unique_ptr<std::__ndk1::__thread_struct, std::__ndk1::default_delete<std::__ndk1::__thread_struct> >, GYScreenshotPopup::setup(int const&)::$_0::operator()(geode::Task<geode::utils::web::WebResponse, geode::utils::web::WebProgress>::Event*) const::{lambda()#1}>, std::__ndk1::default_delete<std::__ndk1::tuple<std::__ndk1::unique_ptr<std::__ndk1::__thread_struct, std::__ndk1::default_delete<std::__ndk1::__thread_struct> >, GYScreenshotPopup::setup(int const&)::$_0::operator()(geode::Task<geode::utils::web::WebResponse, geode::utils::web::WebProgress>::Event*) const::{lambda()#1}> > >::~unique_ptr[abi:ne190000]()
PUBLIC 48434 0 std::__ndk1::unique_ptr<std::__ndk1::__thread_struct, std::__ndk1::default_delete<std::__ndk1::__thread_struct> >::~unique_ptr[abi:ne190000]()
PUBLIC 48470 0 std::__ndk1::__function::__base<void ()>::~__base()
PUBLIC 48474 0 std::__ndk1::__function::__func<GYScreenshotPopup::setup(int const&)::$_0::operator()(geode::Task<geode::utils::web::WebResponse, geode::utils::web::WebProgress>::Event*) const::{lambda()#1}::operator()() const::{lambda()#1}, std::__ndk1::allocator<GYScreenshotPopup::setup(int const&)::$_0::operator()(geode::Task<geode::utils::web::WebResponse, geode::utils::web::WebProgress>::Event*) const::{lambda()#1}::operator()() const::{lambda()#1}>, void ()>::~__func()
PUBLIC 48478 0 std::__ndk1::__function::__func<GYScreenshotPopup::setup(int const&)::$_0::operator()(geode::Task<geode::utils::web::WebResponse, geode::utils::web::WebProgress>::Event*) const::{lambda()#1}::operator()() const::{lambda()#1}, std::__ndk1::allocator<GYScreenshotPopup::setup(int const&)::$_0::operator()(geode::Task<geode::utils::web::WebResponse, geode::utils::web::WebProgress>::Event*) const::{lambda()#1}::operator()() const::{lambda()#1}>, void ()>::__clone() const
PUBLIC 484ac 0 std::__ndk1::__function::__func<GYScreenshotPopup::setup(int const&)::$_0::operator()(geode::Task<geode::utils::web::WebResponse, geode::utils::web::WebProgress>::Event*) const::{lambda()#1}::operator()() const::{lambda()#1}, std::__ndk1::allocator<GYScreenshotPopup::setup(int const&)::$_0::operator()(geode::Task<geode::utils::web::WebResponse, geode::utils::web::WebProgress>::Event*) const::{lambda()#1}::operator()() const::{lambda()#1}>, void ()>::__clone(std::__ndk1::__function::__base<void ()>*) const
PUBLIC 484c0 0 std::__ndk1::__function::__func<GYScreenshotPopup::setup(int const&)::$_0::operator()(geode::Task<geode::utils::web::WebResponse, geode::utils::web::WebProgress>::Event*) const::{lambda()#1}::operator()() const::{lambda()#1}, std::__ndk1::allocator<GYScreenshotPopup::setup(int const&)::$_0::operator()(geode::Task<geode::utils::web::WebResponse, geode::utils::web::WebProgress>::Event*) const::{lambda()#1}::operator()() const::{lambda()#1}>, void ()>::destroy()
PUBLIC 484c4 0 std::__ndk1::__function::__func<GYScreenshotPopup::setup(int const&)::$_0::operator()(geode::Task<geode::utils::web::WebResponse, geode::utils::web::WebProgress>::Event*) const::{lambda()#1}::operator()() const::{lambda()#1}, std::__ndk1::allocator<GYScreenshotPopup::setup(int const&)::$_0::operator()(geode::Task<geode::utils::web::WebResponse, geode::utils::web::WebProgress>::Event*) const::{lambda()#1}::operator()() const::{lambda()#1}>, void ()>::destroy_deallocate()
PUBLIC 484c8 0 std::__ndk1::__function::__func<GYScreenshotPopup::setup(int const&)::$_0::operator()(geode::Task<geode::utils::web::WebResponse, geode::utils::web::WebProgress>::Event*) const::{lambda()#1}::operator()() const::{lambda()#1}, std::__ndk1::allocator<GYScreenshotPopup::setup(int const&)::$_0::operator()(geode::Task<geode::utils::web::WebResponse, geode::utils::web::WebProgress>::Event*) const::{lambda()#1}::operator()() const::{lambda()#1}>, void ()>::operator()()
PUBLIC 48620 0 std::__ndk1::__function::__func<GYScreenshotPopup::setup(int const&)::$_0::operator()(geode::Task<geode::utils::web::WebResponse, geode::utils::web::WebProgress>::Event*) const::{lambda()#1}::operator()() const::{lambda()#1}, std::__ndk1::allocator<GYScreenshotPopup::setup(int const&)::$_0::operator()(geode::Task<geode::utils::web::WebResponse, geode::utils::web::WebProgress>::Event*) const::{lambda()#1}::operator()() const::{lambda()#1}>, void ()>::target(std::type_info const&) const
PUBLIC 4863c 0 std::__ndk1::__function::__func<GYScreenshotPopup::setup(int const&)::$_0::operator()(geode::Task<geode::utils::web::WebResponse, geode::utils::web::WebProgress>::Event*) const::{lambda()#1}::operator()() const::{lambda()#1}, std::__ndk1::allocator<GYScreenshotPopup::setup(int const&)::$_0::operator()(geode::Task<geode::utils::web::WebResponse, geode::utils::web::WebProgress>::Event*) const::{lambda()#1}::operator()() const::{lambda()#1}>, void ()>::target_type() const
PUBLIC 48648 0 geode::Popup<int const&>::initBase(float, float, int const&, char const*, cocos2d::CCRect, bool)
PUBLIC 48958 0 geode::Popup<int const&>::CloseEvent::~CloseEvent()
PUBLIC 489b8 0 geode::Popup<int const&>::CloseEvent::~CloseEvent()
PUBLIC 48a28 0 std::__ndk1::__shared_ptr_emplace<geode::Popup<int const&>::CloseEvent::Impl, std::__ndk1::allocator<geode::Popup<int const&>::CloseEvent::Impl> >::~__shared_ptr_emplace()
PUBLIC 48a38 0 std::__ndk1::__shared_ptr_emplace<geode::Popup<int const&>::CloseEvent::Impl, std::__ndk1::allocator<geode::Popup<int const&>::CloseEvent::Impl> >::~__shared_ptr_emplace()
PUBLIC 48a68 0 std::__ndk1::__shared_ptr_emplace<geode::Popup<int const&>::CloseEvent::Impl, std::__ndk1::allocator<geode::Popup<int const&>::CloseEvent::Impl> >::__on_zero_shared()
PUBLIC 48a6c 0 std::__ndk1::__shared_ptr_emplace<geode::Popup<int const&>::CloseEvent::Impl, std::__ndk1::allocator<geode::Popup<int const&>::CloseEvent::Impl> >::__on_zero_shared_weak()
PUBLIC 48a70 0 GYSettingSelectLayer::keyBackClicked()
PUBLIC 48a8c 0 {virtual override thunk({offset(-336)}, GYSettingSelectLayer::keyBackClicked())}
PUBLIC 48aa8 0 GYSettingSelectLayer::backWrapper(cocos2d::CCObject*)
PUBLIC 48ac4 0 GYSettingSelectLayer::settingsBtn(cocos2d::CCObject*)
PUBLIC 48c78 0 GYSettingSelectLayer::colorPopup(cocos2d::CCObject*)
PUBLIC 48c94 0 GYSettingSelectLayer::openNormalSettings(cocos2d::CCObject*)
PUBLIC 48d78 0 GYSettingSelectLayer::init()
PUBLIC 4c988 0 std::__ndk1::basic_string<char, std::__ndk1::char_traits<char>, std::__ndk1::allocator<char> >::basic_string[abi:ne190000]<0>()
PUBLIC 4ca38 0 geode::Mod::getSavedValue<bool>(std::__ndk1::basic_string_view<char, std::__ndk1::char_traits<char> >)
PUBLIC 4cbc0 0 nlohmann::json_abi_v3_11_3::basic_json<std::__ndk1::map, std::__ndk1::vector, std::__ndk1::basic_string<char, std::__ndk1::char_traits<char>, std::__ndk1::allocator<char> >, bool, long, unsigned long, double, std::__ndk1::allocator, nlohmann::json_abi_v3_11_3::adl_serializer, std::__ndk1::vector<unsigned char, std::__ndk1::allocator<unsigned char> >, void>::~basic_json()
PUBLIC 4cbdc 0 geode::log::error<char const*>(fmt::v11::basic_format_string<char, fmt::v11::type_identity<std::__ndk1::conditional<IsWrappedCocos<char const*>, decltype ((wrapCocosObj<char const*>)((std::declval<char const*>)())), char const*>::type>::type>, char const*&&)
PUBLIC 4cc4c 0 nlohmann::json_abi_v3_11_3::basic_json<std::__ndk1::map, std::__ndk1::vector, std::__ndk1::basic_string<char, std::__ndk1::char_traits<char>, std::__ndk1::allocator<char> >, bool, long, unsigned long, double, std::__ndk1::allocator, nlohmann::json_abi_v3_11_3::adl_serializer, std::__ndk1::vector<unsigned char, std::__ndk1::allocator<unsigned char> >, void>::operator[]<char const>(char const*)
PUBLIC 4cfb8 0 nlohmann::json_abi_v3_11_3::detail::iter_impl<nlohmann::json_abi_v3_11_3::basic_json<std::__ndk1::map, std::__ndk1::vector, std::__ndk1::basic_string<char, std::__ndk1::char_traits<char>, std::__ndk1::allocator<char> >, bool, long, unsigned long, double, std::__ndk1::allocator, nlohmann::json_abi_v3_11_3::adl_serializer, std::__ndk1::vector<unsigned char, std::__ndk1::allocator<unsigned char> >, void> const>::key() const
PUBLIC 4d0b4 0 nlohmann::json_abi_v3_11_3::basic_json<std::__ndk1::map, std::__ndk1::vector, std::__ndk1::basic_string<char, std::__ndk1::char_traits<char>, std::__ndk1::allocator<char> >, bool, long, unsigned long, double, std::__ndk1::allocator, nlohmann::json_abi_v3_11_3::adl_serializer, std::__ndk1::vector<unsigned char, std::__ndk1::allocator<unsigned char> >, void>::operator[]<char const>(char const*) const
PUBLIC 4d380 0 std::__ndk1::pair<std::__ndk1::basic_string<char, std::__ndk1::char_traits<char>, std::__ndk1::allocator<char> >, std::__ndk1::basic_string<char, std::__ndk1::char_traits<char>, std::__ndk1::allocator<char> > >::~pair()
PUBLIC 4d3c4 0 geode::log::info<>(fmt::v11::basic_format_string<char, fmt::v11::type_identity<std::__ndk1::conditional<IsWrappedCocos<>, decltype ((wrapCocosObj<>)((std::declval<>)())), >::type>::type>, &&)
PUBLIC 4d428 0 geode::log::info<std::__ndk1::basic_string<char, std::__ndk1::char_traits<char>, std::__ndk1::allocator<char> >&, std::__ndk1::basic_string<char, std::__ndk1::char_traits<char>, std::__ndk1::allocator<char> >&>(fmt::v11::basic_format_string<char, fmt::v11::type_identity<std::__ndk1::conditional<IsWrappedCocos<std::__ndk1::basic_string<char, std::__ndk1::char_traits<char>, std::__ndk1::allocator<char> >&, std::__ndk1::basic_string<char, std::__ndk1::char_traits<char>, std::__ndk1::allocator<char> >&>, decltype ((wrapCocosObj<std::__ndk1::basic_string<char, std::__ndk1::char_traits<char>, std::__ndk1::allocator<char> >&, std::__ndk1::basic_string<char, std::__ndk1::char_traits<char>, std::__ndk1::allocator<char> >&>)((std::declval<std::__ndk1::basic_string<char, std::__ndk1::char_traits<char>, std::__ndk1::allocator<char> >&, std::__ndk1::basic_string<char, std::__ndk1::char_traits<char>, std::__ndk1::allocator<char> >&>)())), std::__ndk1::basic_string<char, std::__ndk1::char_traits<char>, std::__ndk1::allocator<char> >&, std::__ndk1::basic_string<char, std::__ndk1::char_traits<char>, std::__ndk1::allocator<char> >&>::type>::type>, std::__ndk1::basic_string<char, std::__ndk1::char_traits<char>, std::__ndk1::allocator<char> >&, std::__ndk1::basic_string<char, std::__ndk1::char_traits<char>, std::__ndk1::allocator<char> >&)
PUBLIC 4d4d4 0 geode::log::warn<std::__ndk1::basic_string<char, std::__ndk1::char_traits<char>, std::__ndk1::allocator<char> >&>(fmt::v11::basic_format_string<char, fmt::v11::type_identity<std::__ndk1::conditional<IsWrappedCocos<std::__ndk1::basic_string<char, std::__ndk1::char_traits<char>, std::__ndk1::allocator<char> >&>, decltype ((wrapCocosObj<std::__ndk1::basic_string<char, std::__ndk1::char_traits<char>, std::__ndk1::allocator<char> >&>)((std::declval<std::__ndk1::basic_string<char, std::__ndk1::char_traits<char>, std::__ndk1::allocator<char> >&>)())), std::__ndk1::basic_string<char, std::__ndk1::char_traits<char>, std::__ndk1::allocator<char> >&>::type>::type>, std::__ndk1::basic_string<char, std::__ndk1::char_traits<char>, std::__ndk1::allocator<char> >&)
PUBLIC m 4d558 0 std::__ndk1::basic_ifstream<char, std::__ndk1::char_traits<char> >::~basic_ifstream()
PUBLIC 4d5a8 0 GYSettingSelectLayer::~GYSettingSelectLayer()
PUBLIC 4d5cc 0 {virtual override thunk({offset(-320)}, GYSettingSelectLayer::~GYSettingSelectLayer())}
PUBLIC 4d5d4 0 {virtual override thunk({offset(-320)}, GYSettingSelectLayer::~GYSettingSelectLayer())}
PUBLIC 4d5fc 0 nlohmann::json_abi_v3_11_3::basic_json<std::__ndk1::map, std::__ndk1::vector, std::__ndk1::basic_string<char, std::__ndk1::char_traits<char>, std::__ndk1::allocator<char> >, bool, long, unsigned long, double, std::__ndk1::allocator, nlohmann::json_abi_v3_11_3::adl_serializer, std::__ndk1::vector<unsigned char, std::__ndk1::allocator<unsigned char> >, void>::data::~data()
PUBLIC 4d618 0 nlohmann::json_abi_v3_11_3::basic_json<std::__ndk1::map, std::__ndk1::vector, std::__ndk1::basic_string<char, std::__ndk1::char_traits<char>, std::__ndk1::allocator<char> >, bool, long, unsigned long, double, std::__ndk1::allocator, nlohmann::json_abi_v3_11_3::adl_serializer, std::__ndk1::vector<unsigned char, std::__ndk1::allocator<unsigned char> >, void>::json_value::destroy(nlohmann::json_abi_v3_11_3::detail::value_t)
PUBLIC 4daac 0 std::__ndk1::vector<nlohmann::json_abi_v3_11_3::basic_json<std::__ndk1::map, std::__ndk1::vector, std::__ndk1::basic_string<char, std::__ndk1::char_traits<char>, std::__ndk1::allocator<char> >, bool, long, unsigned long, double, std::__ndk1::allocator, nlohmann::json_abi_v3_11_3::adl_serializer, std::__ndk1::vector<unsigned char, std::__ndk1::allocator<unsigned char> >, void>, std::__ndk1::allocator<nlohmann::json_abi_v3_11_3::basic_json<std::__ndk1::map, std::__ndk1::vector, std::__ndk1::basic_string<char, std::__ndk1::char_traits<char>, std::__ndk1::allocator<char> >, bool, long, unsigned long, double, std::__ndk1::allocator, nlohmann::json_abi_v3_11_3::adl_serializer, std::__ndk1::vector<unsigned char, std::__ndk1::allocator<unsigned char> >, void> > >::reserve(unsigned long)
PUBLIC 4db84 0 std::__ndk1::vector<nlohmann::json_abi_v3_11_3::basic_json<std::__ndk1::map, std::__ndk1::vector, std::__ndk1::basic_string<char, std::__ndk1::char_traits<char>, std::__ndk1::allocator<char> >, bool, long, unsigned long, double, std::__ndk1::allocator, nlohmann::json_abi_v3_11_3::adl_serializer, std::__ndk1::vector<unsigned char, std::__ndk1::allocator<unsigned char> >, void>, std::__ndk1::allocator<nlohmann::json_abi_v3_11_3::basic_json<std::__ndk1::map, std::__ndk1::vector, std::__ndk1::basic_string<char, std::__ndk1::char_traits<char>, std::__ndk1::allocator<char> >, bool, long, unsigned long, double, std::__ndk1::allocator, nlohmann::json_abi_v3_11_3::adl_serializer, std::__ndk1::vector<unsigned char, std::__ndk1::allocator<unsigned char> >, void> > >::~vector[abi:ne190000]()
PUBLIC 4dbe8 0 std::__ndk1::vector<nlohmann::json_abi_v3_11_3::basic_json<std::__ndk1::map, std::__ndk1::vector, std::__ndk1::basic_string<char, std::__ndk1::char_traits<char>, std::__ndk1::allocator<char> >, bool, long, unsigned long, double, std::__ndk1::allocator, nlohmann::json_abi_v3_11_3::adl_serializer, std::__ndk1::vector<unsigned char, std::__ndk1::allocator<unsigned char> >, void>, std::__ndk1::allocator<nlohmann::json_abi_v3_11_3::basic_json<std::__ndk1::map, std::__ndk1::vector, std::__ndk1::basic_string<char, std::__ndk1::char_traits<char>, std::__ndk1::allocator<char> >, bool, long, unsigned long, double, std::__ndk1::allocator, nlohmann::json_abi_v3_11_3::adl_serializer, std::__ndk1::vector<unsigned char, std::__ndk1::allocator<unsigned char> >, void> > >::__throw_length_error[abi:ne190000]() const
PUBLIC 4dbfc 0 std::__ndk1::__split_buffer<nlohmann::json_abi_v3_11_3::basic_json<std::__ndk1::map, std::__ndk1::vector, std::__ndk1::basic_string<char, std::__ndk1::char_traits<char>, std::__ndk1::allocator<char> >, bool, long, unsigned long, double, std::__ndk1::allocator, nlohmann::json_abi_v3_11_3::adl_serializer, std::__ndk1::vector<unsigned char, std::__ndk1::allocator<unsigned char> >, void>, std::__ndk1::allocator<nlohmann::json_abi_v3_11_3::basic_json<std::__ndk1::map, std::__ndk1::vector, std::__ndk1::basic_string<char, std::__ndk1::char_traits<char>, std::__ndk1::allocator<char> >, bool, long, unsigned long, double, std::__ndk1::allocator, nlohmann::json_abi_v3_11_3::adl_serializer, std::__ndk1::vector<unsigned char, std::__ndk1::allocator<unsigned char> >, void> >&>::~__split_buffer()
PUBLIC 4dc54 0 std::__ndk1::__exception_guard_exceptions<std::__ndk1::_AllocatorDestroyRangeReverse<std::__ndk1::allocator<nlohmann::json_abi_v3_11_3::basic_json<std::__ndk1::map, std::__ndk1::vector, std::__ndk1::basic_string<char, std::__ndk1::char_traits<char>, std::__ndk1::allocator<char> >, bool, long, unsigned long, double, std::__ndk1::allocator, nlohmann::json_abi_v3_11_3::adl_serializer, std::__ndk1::vector<unsigned char, std::__ndk1::allocator<unsigned char> >, void> >, nlohmann::json_abi_v3_11_3::basic_json<std::__ndk1::map, std::__ndk1::vector, std::__ndk1::basic_string<char, std::__ndk1::char_traits<char>, std::__ndk1::allocator<char> >, bool, long, unsigned long, double, std::__ndk1::allocator, nlohmann::json_abi_v3_11_3::adl_serializer, std::__ndk1::vector<unsigned char, std::__ndk1::allocator<unsigned char> >, void>*> >::~__exception_guard_exceptions[abi:ne190000]()
PUBLIC 4dc9c 0 std::__ndk1::vector<nlohmann::json_abi_v3_11_3::basic_json<std::__ndk1::map, std::__ndk1::vector, std::__ndk1::basic_string<char, std::__ndk1::char_traits<char>, std::__ndk1::allocator<char> >, bool, long, unsigned long, double, std::__ndk1::allocator, nlohmann::json_abi_v3_11_3::adl_serializer, std::__ndk1::vector<unsigned char, std::__ndk1::allocator<unsigned char> >, void>, std::__ndk1::allocator<nlohmann::json_abi_v3_11_3::basic_json<std::__ndk1::map, std::__ndk1::vector, std::__ndk1::basic_string<char, std::__ndk1::char_traits<char>, std::__ndk1::allocator<char> >, bool, long, unsigned long, double, std::__ndk1::allocator, nlohmann::json_abi_v3_11_3::adl_serializer, std::__ndk1::vector<unsigned char, std::__ndk1::allocator<unsigned char> >, void> > >::__push_back_slow_path<nlohmann::json_abi_v3_11_3::basic_json<std::__ndk1::map, std::__ndk1::vector, std::__ndk1::basic_string<char, std::__ndk1::char_traits<char>, std::__ndk1::allocator<char> >, bool, long, unsigned long, double, std::__ndk1::allocator, nlohmann::json_abi_v3_11_3::adl_serializer, std::__ndk1::vector<unsigned char, std::__ndk1::allocator<unsigned char> >, void> >(nlohmann::json_abi_v3_11_3::basic_json<std::__ndk1::map, std::__ndk1::vector, std::__ndk1::basic_string<char, std::__ndk1::char_traits<char>, std::__ndk1::allocator<char> >, bool, long, unsigned long, double, std::__ndk1::allocator, nlohmann::json_abi_v3_11_3::adl_serializer, std::__ndk1::vector<unsigned char, std::__ndk1::allocator<unsigned char> >, void>&&)
PUBLIC 4ddc0 0 std::__ndk1::__tree<std::__ndk1::__value_type<std::__ndk1::basic_string<char, std::__ndk1::char_traits<char>, std::__ndk1::allocator<char> >, nlohmann::json_abi_v3_11_3::basic_json<std::__ndk1::map, std::__ndk1::vector, std::__ndk1::basic_string<char, std::__ndk1::char_traits<char>, std::__ndk1::allocator<char> >, bool, long, unsigned long, double, std::__ndk1::allocator, nlohmann::json_abi_v3_11_3::adl_serializer, std::__ndk1::vector<unsigned char, std::__ndk1::allocator<unsigned char> >, void> >, std::__ndk1::__map_value_compare<std::__ndk1::basic_string<char, std::__ndk1::char_traits<char>, std::__ndk1::allocator<char> >, std::__ndk1::__value_type<std::__ndk1::basic_string<char, std::__ndk1::char_traits<char>, std::__ndk1::allocator<char> >, nlohmann::json_abi_v3_11_3::basic_json<std::__ndk1::map, std::__ndk1::vector, std::__ndk1::basic_string<char, std::__ndk1::char_traits<char>, std::__ndk1::allocator<char> >, bool, long, unsigned long, double, std::__ndk1::allocator, nlohmann::json_abi_v3_11_3::adl_serializer, std::__ndk1::vector<unsigned char, std::__ndk1::allocator<unsigned char> >, void> >, std::__ndk1::less<void>, true>, std::__ndk1::allocator<std::__ndk1::__value_type<std::__ndk1::basic_string<char, std::__ndk1::char_traits<char>, std::__ndk1::allocator<char> >, nlohmann::json_abi_v3_11_3::basic_json<std::__ndk1::map, std::__ndk1::vector, std::__ndk1::basic_string<char, std::__ndk1::char_traits<char>, std::__ndk1::allocator<char> >, bool, long, unsigned long, double, std::__ndk1::allocator, nlohmann::json_abi_v3_11_3::adl_serializer, std::__ndk1::vector<unsigned char, std::__ndk1::allocator<unsigned char> >, void> > > >::destroy(std::__ndk1::__tree_node<std::__ndk1::__value_type<std::__ndk1::basic_string<char, std::__ndk1::char_traits<char>, std::__ndk1::allocator<char> >, nlohmann::json_abi_v3_11_3::basic_json<std::__ndk1::map, std::__ndk1::vector, std::__ndk1::basic_string<char, std::__ndk1::char_traits<char>, std::__ndk1::allocator<char> >, bool, long, unsigned long, double, std::__ndk1::allocator, nlohmann::json_abi_v3_11_3::adl_serializer, std::__ndk1::vector<unsigned char, std::__ndk1::allocator<unsigned char> >, void> >, void*>*)
PUBLIC 4de20 0 geode::impl::ResultData<matjson::Value&, std::__ndk1::basic_string<char, std::__ndk1::char_traits<char>, std::__ndk1::allocator<char> > >::~ResultData()
PUBLIC 4de94 0 std::__ndk1::__throw_bad_variant_access[abi:ne190000]()
PUBLIC 4dec8 0 std::__ndk1::__variant_detail::__visitation::__base::__dispatcher<(unsigned long)0>::__dispatch[abi:ne190000]<std::__ndk1::__variant_detail::__dtor<std::__ndk1::__variant_detail::__traits<std::__ndk1::reference_wrapper<matjson::Value>, std::__ndk1::basic_string<char, std::__ndk1::char_traits<char>, std::__ndk1::allocator<char> > >, (std::__ndk1::__variant_detail::_Trait)1>::__destroy[abi:ne190000]()::{lambda(auto:1&)#1}, std::__ndk1::__variant_detail::__base<(std::__ndk1::__variant_detail::__traits<std::__ndk1::reference_wrapper<matjson::Value>, std::__ndk1::basic_string<char, std::__ndk1::char_traits<char>, std::__ndk1::allocator<char> > >)1, matjson::Value, std::__ndk1::allocator<char> >&>(std::__ndk1::__variant_detail::__dtor<std::__ndk1::__variant_detail::__traits<std::__ndk1::reference_wrapper<matjson::Value>, std::__ndk1::basic_string<char, std::__ndk1::char_traits<char>, std::__ndk1::allocator<char> > >, (std::__ndk1::__variant_detail::_Trait)1>, std::__ndk1::__variant_detail::__base<(std::__ndk1::__variant_detail::__traits<std::__ndk1::reference_wrapper<matjson::Value>, std::__ndk1::basic_string<char, std::__ndk1::char_traits<char>, std::__ndk1::allocator<char> > >)1, matjson::Value, std::__ndk1::allocator<char> >&)
PUBLIC 4decc 0 std::__ndk1::__variant_detail::__visitation::__base::__dispatcher<(unsigned long)1>::__dispatch[abi:ne190000]<std::__ndk1::__variant_detail::__dtor<std::__ndk1::__variant_detail::__traits<std::__ndk1::reference_wrapper<matjson::Value>, std::__ndk1::basic_string<char, std::__ndk1::char_traits<char>, std::__ndk1::allocator<char> > >, (std::__ndk1::__variant_detail::_Trait)1>::__destroy[abi:ne190000]()::{lambda(auto:1&)#1}, std::__ndk1::__variant_detail::__base<(std::__ndk1::__variant_detail::__traits<std::__ndk1::reference_wrapper<matjson::Value>, std::__ndk1::basic_string<char, std::__ndk1::char_traits<char>, std::__ndk1::allocator<char> > >)1, matjson::Value, std::__ndk1::allocator<char> >&>(std::__ndk1::__variant_detail::__dtor<std::__ndk1::__variant_detail::__traits<std::__ndk1::reference_wrapper<matjson::Value>, std::__ndk1::basic_string<char, std::__ndk1::char_traits<char>, std::__ndk1::allocator<char> > >, (std::__ndk1::__variant_detail::_Trait)1>, std::__ndk1::__variant_detail::__base<(std::__ndk1::__variant_detail::__traits<std::__ndk1::reference_wrapper<matjson::Value>, std::__ndk1::basic_string<char, std::__ndk1::char_traits<char>, std::__ndk1::allocator<char> > >)1, matjson::Value, std::__ndk1::allocator<char> >&)
PUBLIC 4dee0 0 std::__ndk1::__variant_detail::__visitation::__base::__dispatcher<(unsigned long)0>::__dispatch[abi:ne190000]<std::__ndk1::__variant_detail::__dtor<std::__ndk1::__variant_detail::__traits<bool, std::__ndk1::basic_string<char, std::__ndk1::char_traits<char>, std::__ndk1::allocator<char> > >, (std::__ndk1::__variant_detail::_Trait)1>::__destroy[abi:ne190000]()::{lambda(auto:1&)#1}, std::__ndk1::__variant_detail::__base<(std::__ndk1::__variant_detail::__traits<bool, std::__ndk1::basic_string<char, std::__ndk1::char_traits<char>, std::__ndk1::allocator<char> > >)1, bool, std::__ndk1::allocator<char> >&>(std::__ndk1::__variant_detail::__dtor<std::__ndk1::__variant_detail::__traits<bool, std::__ndk1::basic_string<char, std::__ndk1::char_traits<char>, std::__ndk1::allocator<char> > >, (std::__ndk1::__variant_detail::_Trait)1>, std::__ndk1::__variant_detail::__base<(std::__ndk1::__variant_detail::__traits<bool, std::__ndk1::basic_string<char, std::__ndk1::char_traits<char>, std::__ndk1::allocator<char> > >)1, bool, std::__ndk1::allocator<char> >&)
PUBLIC 4dee4 0 std::__ndk1::__variant_detail::__visitation::__base::__dispatcher<(unsigned long)1>::__dispatch[abi:ne190000]<std::__ndk1::__variant_detail::__dtor<std::__ndk1::__variant_detail::__traits<bool, std::__ndk1::basic_string<char, std::__ndk1::char_traits<char>, std::__ndk1::allocator<char> > >, (std::__ndk1::__variant_detail::_Trait)1>::__destroy[abi:ne190000]()::{lambda(auto:1&)#1}, std::__ndk1::__variant_detail::__base<(std::__ndk1::__variant_detail::__traits<bool, std::__ndk1::basic_string<char, std::__ndk1::char_traits<char>, std::__ndk1::allocator<char> > >)1, bool, std::__ndk1::allocator<char> >&>(std::__ndk1::__variant_detail::__dtor<std::__ndk1::__variant_detail::__traits<bool, std::__ndk1::basic_string<char, std::__ndk1::char_traits<char>, std::__ndk1::allocator<char> > >, (std::__ndk1::__variant_detail::_Trait)1>, std::__ndk1::__variant_detail::__base<(std::__ndk1::__variant_detail::__traits<bool, std::__ndk1::basic_string<char, std::__ndk1::char_traits<char>, std::__ndk1::allocator<char> > >)1, bool, std::__ndk1::allocator<char> >&)
PUBLIC 4def8 0 nlohmann::json_abi_v3_11_3::basic_json<std::__ndk1::map, std::__ndk1::vector, std::__ndk1::basic_string<char, std::__ndk1::char_traits<char>, std::__ndk1::allocator<char> >, bool, long, unsigned long, double, std::__ndk1::allocator, nlohmann::json_abi_v3_11_3::adl_serializer, std::__ndk1::vector<unsigned char, std::__ndk1::allocator<unsigned char> >, void>::json_value::json_value(nlohmann::json_abi_v3_11_3::detail::value_t)
PUBLIC 4e00c 0 nlohmann::json_abi_v3_11_3::detail::concat<std::__ndk1::basic_string<char, std::__ndk1::char_traits<char>, std::__ndk1::allocator<char> >, std::__ndk1::basic_string<char, std::__ndk1::char_traits<char>, std::__ndk1::allocator<char> >, std::__ndk1::basic_string<char, std::__ndk1::char_traits<char>, std::__ndk1::allocator<char> >, std::__ndk1::basic_string<char, std::__ndk1::char_traits<char>, std::__ndk1::allocator<char> > const&>(std::__ndk1::basic_string<char, std::__ndk1::char_traits<char>, std::__ndk1::allocator<char> >&&, std::__ndk1::basic_string<char, std::__ndk1::char_traits<char>, std::__ndk1::allocator<char> >, std::__ndk1::basic_string<char, std::__ndk1::char_traits<char>, std::__ndk1::allocator<char> > const&)
PUBLIC 4e108 0 nlohmann::json_abi_v3_11_3::detail::concat<std::__ndk1::basic_string<char, std::__ndk1::char_traits<char>, std::__ndk1::allocator<char> >, char const (&) [17], std::__ndk1::basic_string<char, std::__ndk1::char_traits<char>, std::__ndk1::allocator<char> > const&, char, std::__ndk1::basic_string<char, std::__ndk1::char_traits<char>, std::__ndk1::allocator<char> >, char const (&) [3]>(char const (&) [17], std::__ndk1::basic_string<char, std::__ndk1::char_traits<char>, std::__ndk1::allocator<char> > const&, char, std::__ndk1::basic_string<char, std::__ndk1::char_traits<char>, std::__ndk1::allocator<char> >, char const (&) [3])
PUBLIC 4e204 0 nlohmann::json_abi_v3_11_3::detail::exception::what() const
PUBLIC 4e20c 0 nlohmann::json_abi_v3_11_3::detail::exception::~exception()
PUBLIC 4e244 0 nlohmann::json_abi_v3_11_3::detail::parser<nlohmann::json_abi_v3_11_3::basic_json<std::__ndk1::map, std::__ndk1::vector, std::__ndk1::basic_string<char, std::__ndk1::char_traits<char>, std::__ndk1::allocator<char> >, bool, long, unsigned long, double, std::__ndk1::allocator, nlohmann::json_abi_v3_11_3::adl_serializer, std::__ndk1::vector<unsigned char, std::__ndk1::allocator<unsigned char> >, void>, nlohmann::json_abi_v3_11_3::detail::iterator_input_adapter<std::__ndk1::__wrap_iter<char const*> > >::~parser()
PUBLIC 4e2cc 0 nlohmann::json_abi_v3_11_3::detail::lexer<nlohmann::json_abi_v3_11_3::basic_json<std::__ndk1::map, std::__ndk1::vector, std::__ndk1::basic_string<char, std::__ndk1::char_traits<char>, std::__ndk1::allocator<char> >, bool, long, unsigned long, double, std::__ndk1::allocator, nlohmann::json_abi_v3_11_3::adl_serializer, std::__ndk1::vector<unsigned char, std::__ndk1::allocator<unsigned char> >, void>, nlohmann::json_abi_v3_11_3::detail::iterator_input_adapter<std::__ndk1::__wrap_iter<char const*> > >::~lexer()
PUBLIC 4e310 0 nlohmann::json_abi_v3_11_3::detail::lexer<nlohmann::json_abi_v3_11_3::basic_json<std::__ndk1::map, std::__ndk1::vector, std::__ndk1::basic_string<char, std::__ndk1::char_traits<char>, std::__ndk1::allocator<char> >, bool, long, unsigned long, double, std::__ndk1::allocator, nlohmann::json_abi_v3_11_3::adl_serializer, std::__ndk1::vector<unsigned char, std::__ndk1::allocator<unsigned char> >, void>, nlohmann::json_abi_v3_11_3::detail::iterator_input_adapter<std::__ndk1::__wrap_iter<char const*> > >::scan()
PUBLIC 4f948 0 nlohmann::json_abi_v3_11_3::detail::lexer<nlohmann::json_abi_v3_11_3::basic_json<std::__ndk1::map, std::__ndk1::vector, std::__ndk1::basic_string<char, std::__ndk1::char_traits<char>, std::__ndk1::allocator<char> >, bool, long, unsigned long, double, std::__ndk1::allocator, nlohmann::json_abi_v3_11_3::adl_serializer, std::__ndk1::vector<unsigned char, std::__ndk1::allocator<unsigned char> >, void>, nlohmann::json_abi_v3_11_3::detail::iterator_input_adapter<std::__ndk1::__wrap_iter<char const*> > >::skip_whitespace()
PUBLIC 4fad4 0 nlohmann::json_abi_v3_11_3::detail::lexer<nlohmann::json_abi_v3_11_3::basic_json<std::__ndk1::map, std::__ndk1::vector, std::__ndk1::basic_string<char, std::__ndk1::char_traits<char>, std::__ndk1::allocator<char> >, bool, long, unsigned long, double, std::__ndk1::allocator, nlohmann::json_abi_v3_11_3::adl_serializer, std::__ndk1::vector<unsigned char, std::__ndk1::allocator<unsigned char> >, void>, nlohmann::json_abi_v3_11_3::detail::iterator_input_adapter<std::__ndk1::__wrap_iter<char const*> > >::get()
PUBLIC 4fc30 0 std::__ndk1::vector<char, std::__ndk1::allocator<char> >::__throw_length_error[abi:ne190000]() const
PUBLIC 4fc44 0 nlohmann::json_abi_v3_11_3::detail::lexer<nlohmann::json_abi_v3_11_3::basic_json<std::__ndk1::map, std::__ndk1::vector, std::__ndk1::basic_string<char, std::__ndk1::char_traits<char>, std::__ndk1::allocator<char> >, bool, long, unsigned long, double, std::__ndk1::allocator, nlohmann::json_abi_v3_11_3::adl_serializer, std::__ndk1::vector<unsigned char, std::__ndk1::allocator<unsigned char> >, void>, nlohmann::json_abi_v3_11_3::detail::iterator_input_adapter<std::__ndk1::__wrap_iter<char const*> > >::get_codepoint()
PUBLIC 4fdf0 0 nlohmann::json_abi_v3_11_3::detail::parser<nlohmann::json_abi_v3_11_3::basic_json<std::__ndk1::map, std::__ndk1::vector, std::__ndk1::basic_string<char, std::__ndk1::char_traits<char>, std::__ndk1::allocator<char> >, bool, long, unsigned long, double, std::__ndk1::allocator, nlohmann::json_abi_v3_11_3::adl_serializer, std::__ndk1::vector<unsigned char, std::__ndk1::allocator<unsigned char> >, void>, nlohmann::json_abi_v3_11_3::detail::iterator_input_adapter<std::__ndk1::__wrap_iter<char const*> > >::sax_parse_internal<nlohmann::json_abi_v3_11_3::detail::json_sax_dom_callback_parser<nlohmann::json_abi_v3_11_3::basic_json<std::__ndk1::map, std::__ndk1::vector, std::__ndk1::basic_string<char, std::__ndk1::char_traits<char>, std::__ndk1::allocator<char> >, bool, long, unsigned long, double, std::__ndk1::allocator, nlohmann::json_abi_v3_11_3::adl_serializer, std::__ndk1::vector<unsigned char, std::__ndk1::allocator<unsigned char> >, void> > >(nlohmann::json_abi_v3_11_3::detail::json_sax_dom_callback_parser<nlohmann::json_abi_v3_11_3::basic_json<std::__ndk1::map, std::__ndk1::vector, std::__ndk1::basic_string<char, std::__ndk1::char_traits<char>, std::__ndk1::allocator<char> >, bool, long, unsigned long, double, std::__ndk1::allocator, nlohmann::json_abi_v3_11_3::adl_serializer, std::__ndk1::vector<unsigned char, std::__ndk1::allocator<unsigned char> >, void> >*)
PUBLIC 515c8 0 nlohmann::json_abi_v3_11_3::detail::json_sax_dom_callback_parser<nlohmann::json_abi_v3_11_3::basic_json<std::__ndk1::map, std::__ndk1::vector, std::__ndk1::basic_string<char, std::__ndk1::char_traits<char>, std::__ndk1::allocator<char> >, bool, long, unsigned long, double, std::__ndk1::allocator, nlohmann::json_abi_v3_11_3::adl_serializer, std::__ndk1::vector<unsigned char, std::__ndk1::allocator<unsigned char> >, void> >::parse_error<nlohmann::json_abi_v3_11_3::detail::parse_error>(unsigned long, std::__ndk1::basic_string<char, std::__ndk1::char_traits<char>, std::__ndk1::allocator<char> > const&, nlohmann::json_abi_v3_11_3::detail::parse_error const&)
PUBLIC 51618 0 nlohmann::json_abi_v3_11_3::detail::lexer<nlohmann::json_abi_v3_11_3::basic_json<std::__ndk1::map, std::__ndk1::vector, std::__ndk1::basic_string<char, std::__ndk1::char_traits<char>, std::__ndk1::allocator<char> >, bool, long, unsigned long, double, std::__ndk1::allocator, nlohmann::json_abi_v3_11_3::adl_serializer, std::__ndk1::vector<unsigned char, std::__ndk1::allocator<unsigned char> >, void>, nlohmann::json_abi_v3_11_3::detail::iterator_input_adapter<std::__ndk1::__wrap_iter<char const*> > >::get_token_string() const
PUBLIC 51700 0 _ZN8nlohmann16json_abi_v3_11_36detail11parse_error6createIDnTnNSt6__ndk19enable_ifIXsr21is_basic_json_contextIT_EE5valueEiE4typeELi0EEES2_iRKNS1_10position_tERKNS4_12basic_stringIcNS4_11char_traitsIcEENS4_9allocatorIcEEEES6_
PUBLIC 51b68 0 nlohmann::json_abi_v3_11_3::detail::parser<nlohmann::json_abi_v3_11_3::basic_json<std::__ndk1::map, std::__ndk1::vector, std::__ndk1::basic_string<char, std::__ndk1::char_traits<char>, std::__ndk1::allocator<char> >, bool, long, unsigned long, double, std::__ndk1::allocator, nlohmann::json_abi_v3_11_3::adl_serializer, std::__ndk1::vector<unsigned char, std::__ndk1::allocator<unsigned char> >, void>, nlohmann::json_abi_v3_11_3::detail::iterator_input_adapter<std::__ndk1::__wrap_iter<char const*> > >::exception_message(nlohmann::json_abi_v3_11_3::detail::lexer_base<nlohmann::json_abi_v3_11_3::basic_json<std::__ndk1::map, std::__ndk1::vector, std::__ndk1::basic_string<char, std::__ndk1::char_traits<char>, std::__ndk1::allocator<char> >, bool, long, unsigned long, double, std::__ndk1::allocator, nlohmann::json_abi_v3_11_3::adl_serializer, std::__ndk1::vector<unsigned char, std::__ndk1::allocator<unsigned char> >, void> >::token_type, std::__ndk1::basic_string<char, std::__ndk1::char_traits<char>, std::__ndk1::allocator<char> > const&)
PUBLIC 51f54 0 nlohmann::json_abi_v3_11_3::detail::exception::~exception()
PUBLIC 51f84 0 nlohmann::json_abi_v3_11_3::detail::json_sax_dom_callback_parser<nlohmann::json_abi_v3_11_3::basic_json<std::__ndk1::map, std::__ndk1::vector, std::__ndk1::basic_string<char, std::__ndk1::char_traits<char>, std::__ndk1::allocator<char> >, bool, long, unsigned long, double, std::__ndk1::allocator, nlohmann::json_abi_v3_11_3::adl_serializer, std::__ndk1::vector<unsigned char, std::__ndk1::allocator<unsigned char> >, void> >::~json_sax_dom_callback_parser()
PUBLIC 52010 0 nlohmann::json_abi_v3_11_3::detail::parser<nlohmann::json_abi_v3_11_3::basic_json<std::__ndk1::map, std::__ndk1::vector, std::__ndk1::basic_string<char, std::__ndk1::char_traits<char>, std::__ndk1::allocator<char> >, bool, long, unsigned long, double, std::__ndk1::allocator, nlohmann::json_abi_v3_11_3::adl_serializer, std::__ndk1::vector<unsigned char, std::__ndk1::allocator<unsigned char> >, void>, nlohmann::json_abi_v3_11_3::detail::iterator_input_adapter<std::__ndk1::__wrap_iter<char const*> > >::sax_parse_internal<nlohmann::json_abi_v3_11_3::detail::json_sax_dom_parser<nlohmann::json_abi_v3_11_3::basic_json<std::__ndk1::map, std::__ndk1::vector, std::__ndk1::basic_string<char, std::__ndk1::char_traits<char>, std::__ndk1::allocator<char> >, bool, long, unsigned long, double, std::__ndk1::allocator, nlohmann::json_abi_v3_11_3::adl_serializer, std::__ndk1::vector<unsigned char, std::__ndk1::allocator<unsigned char> >, void> > >(nlohmann::json_abi_v3_11_3::detail::json_sax_dom_parser<nlohmann::json_abi_v3_11_3::basic_json<std::__ndk1::map, std::__ndk1::vector, std::__ndk1::basic_string<char, std::__ndk1::char_traits<char>, std::__ndk1::allocator<char> >, bool, long, unsigned long, double, std::__ndk1::allocator, nlohmann::json_abi_v3_11_3::adl_serializer, std::__ndk1::vector<unsigned char, std::__ndk1::allocator<unsigned char> >, void> >*)
PUBLIC 5386c 0 nlohmann::json_abi_v3_11_3::detail::json_sax_dom_parser<nlohmann::json_abi_v3_11_3::basic_json<std::__ndk1::map, std::__ndk1::vector, std::__ndk1::basic_string<char, std::__ndk1::char_traits<char>, std::__ndk1::allocator<char> >, bool, long, unsigned long, double, std::__ndk1::allocator, nlohmann::json_abi_v3_11_3::adl_serializer, std::__ndk1::vector<unsigned char, std::__ndk1::allocator<unsigned char> >, void> >::parse_error<nlohmann::json_abi_v3_11_3::detail::parse_error>(unsigned long, std::__ndk1::basic_string<char, std::__ndk1::char_traits<char>, std::__ndk1::allocator<char> > const&, nlohmann::json_abi_v3_11_3::detail::parse_error const&)
PUBLIC 538bc 0 std::__ndk1::vector<bool, std::__ndk1::allocator<bool> >::reserve(unsigned long)
PUBLIC 539bc 0 std::__ndk1::vector<bool, std::__ndk1::allocator<bool> >::__throw_length_error[abi:ne190000]() const
PUBLIC 539d0 0 nlohmann::json_abi_v3_11_3::detail::json_sax_dom_callback_parser<nlohmann::json_abi_v3_11_3::basic_json<std::__ndk1::map, std::__ndk1::vector, std::__ndk1::basic_string<char, std::__ndk1::char_traits<char>, std::__ndk1::allocator<char> >, bool, long, unsigned long, double, std::__ndk1::allocator, nlohmann::json_abi_v3_11_3::adl_serializer, std::__ndk1::vector<unsigned char, std::__ndk1::allocator<unsigned char> >, void> >::end_object()
PUBLIC 53f14 0 nlohmann::json_abi_v3_11_3::detail::json_sax_dom_callback_parser<nlohmann::json_abi_v3_11_3::basic_json<std::__ndk1::map, std::__ndk1::vector, std::__ndk1::basic_string<char, std::__ndk1::char_traits<char>, std::__ndk1::allocator<char> >, bool, long, unsigned long, double, std::__ndk1::allocator, nlohmann::json_abi_v3_11_3::adl_serializer, std::__ndk1::vector<unsigned char, std::__ndk1::allocator<unsigned char> >, void> >::key(std::__ndk1::basic_string<char, std::__ndk1::char_traits<char>, std::__ndk1::allocator<char> >&)
PUBLIC 5415c 0 nlohmann::json_abi_v3_11_3::detail::json_sax_dom_callback_parser<nlohmann::json_abi_v3_11_3::basic_json<std::__ndk1::map, std::__ndk1::vector, std::__ndk1::basic_string<char, std::__ndk1::char_traits<char>, std::__ndk1::allocator<char> >, bool, long, unsigned long, double, std::__ndk1::allocator, nlohmann::json_abi_v3_11_3::adl_serializer, std::__ndk1::vector<unsigned char, std::__ndk1::allocator<unsigned char> >, void> >::end_array()
PUBLIC 542e8 0 nlohmann::json_abi_v3_11_3::detail::json_sax_dom_callback_parser<nlohmann::json_abi_v3_11_3::basic_json<std::__ndk1::map, std::__ndk1::vector, std::__ndk1::basic_string<char, std::__ndk1::char_traits<char>, std::__ndk1::allocator<char> >, bool, long, unsigned long, double, std::__ndk1::allocator, nlohmann::json_abi_v3_11_3::adl_serializer, std::__ndk1::vector<unsigned char, std::__ndk1::allocator<unsigned char> >, void> >::parse_error<nlohmann::json_abi_v3_11_3::detail::out_of_range>(unsigned long, std::__ndk1::basic_string<char, std::__ndk1::char_traits<char>, std::__ndk1::allocator<char> > const&, nlohmann::json_abi_v3_11_3::detail::out_of_range const&)
PUBLIC 54338 0 _ZN8nlohmann16json_abi_v3_11_36detail12out_of_range6createIDnTnNSt6__ndk19enable_ifIXsr21is_basic_json_contextIT_EE5valueEiE4typeELi0EEES2_iRKNS4_12basic_stringIcNS4_11char_traitsIcEENS4_9allocatorIcEEEES6_
PUBLIC 54514 0 nlohmann::json_abi_v3_11_3::detail::concat<std::__ndk1::basic_string<char, std::__ndk1::char_traits<char>, std::__ndk1::allocator<char> >, char const (&) [26], std::__ndk1::basic_string<char, std::__ndk1::char_traits<char>, std::__ndk1::allocator<char> >, char>(char const (&) [26], std::__ndk1::basic_string<char, std::__ndk1::char_traits<char>, std::__ndk1::allocator<char> >, char)
PUBLIC 545c0 0 nlohmann::json_abi_v3_11_3::detail::json_sax_dom_callback_parser<nlohmann::json_abi_v3_11_3::basic_json<std::__ndk1::map, std::__ndk1::vector, std::__ndk1::basic_string<char, std::__ndk1::char_traits<char>, std::__ndk1::allocator<char> >, bool, long, unsigned long, double, std::__ndk1::allocator, nlohmann::json_abi_v3_11_3::adl_serializer, std::__ndk1::vector<unsigned char, std::__ndk1::allocator<unsigned char> >, void> >::handle_value<nlohmann::json_abi_v3_11_3::detail::value_t>(nlohmann::json_abi_v3_11_3::detail::value_t&&, bool)
PUBLIC 547a4 0 std::__ndk1::vector<nlohmann::json_abi_v3_11_3::basic_json<std::__ndk1::map, std::__ndk1::vector, std::__ndk1::basic_string<char, std::__ndk1::char_traits<char>, std::__ndk1::allocator<char> >, bool, long, unsigned long, double, std::__ndk1::allocator, nlohmann::json_abi_v3_11_3::adl_serializer, std::__ndk1::vector<unsigned char, std::__ndk1::allocator<unsigned char> >, void>, std::__ndk1::allocator<nlohmann::json_abi_v3_11_3::basic_json<std::__ndk1::map, std::__ndk1::vector, std::__ndk1::basic_string<char, std::__ndk1::char_traits<char>, std::__ndk1::allocator<char> >, bool, long, unsigned long, double, std::__ndk1::allocator, nlohmann::json_abi_v3_11_3::adl_serializer, std::__ndk1::vector<unsigned char, std::__ndk1::allocator<unsigned char> >, void> > >::__emplace_back_slow_path<nlohmann::json_abi_v3_11_3::basic_json<std::__ndk1::map, std::__ndk1::vector, std::__ndk1::basic_string<char, std::__ndk1::char_traits<char>, std::__ndk1::allocator<char> >, bool, long, unsigned long, double, std::__ndk1::allocator, nlohmann::json_abi_v3_11_3::adl_serializer, std::__ndk1::vector<unsigned char, std::__ndk1::allocator<unsigned char> >, void> >(nlohmann::json_abi_v3_11_3::basic_json<std::__ndk1::map, std::__ndk1::vector, std::__ndk1::basic_string<char, std::__ndk1::char_traits<char>, std::__ndk1::allocator<char> >, bool, long, unsigned long, double, std::__ndk1::allocator, nlohmann::json_abi_v3_11_3::adl_serializer, std::__ndk1::vector<unsigned char, std::__ndk1::allocator<unsigned char> >, void>&&)
PUBLIC 548c8 0 std::__ndk1::vector<nlohmann::json_abi_v3_11_3::basic_json<std::__ndk1::map, std::__ndk1::vector, std::__ndk1::basic_string<char, std::__ndk1::char_traits<char>, std::__ndk1::allocator<char> >, bool, long, unsigned long, double, std::__ndk1::allocator, nlohmann::json_abi_v3_11_3::adl_serializer, std::__ndk1::vector<unsigned char, std::__ndk1::allocator<unsigned char> >, void>*, std::__ndk1::allocator<nlohmann::json_abi_v3_11_3::basic_json<std::__ndk1::map, std::__ndk1::vector, std::__ndk1::basic_string<char, std::__ndk1::char_traits<char>, std::__ndk1::allocator<char> >, bool, long, unsigned long, double, std::__ndk1::allocator, nlohmann::json_abi_v3_11_3::adl_serializer, std::__ndk1::vector<unsigned char, std::__ndk1::allocator<unsigned char> >, void>*> >::__throw_length_error[abi:ne190000]() const
PUBLIC 548dc 0 nlohmann::json_abi_v3_11_3::detail::out_of_range::~out_of_range()
PUBLIC 54914 0 nlohmann::json_abi_v3_11_3::basic_json<std::__ndk1::map, std::__ndk1::vector, std::__ndk1::basic_string<char, std::__ndk1::char_traits<char>, std::__ndk1::allocator<char> >, bool, long, unsigned long, double, std::__ndk1::allocator, nlohmann::json_abi_v3_11_3::adl_serializer, std::__ndk1::vector<unsigned char, std::__ndk1::allocator<unsigned char> >, void>::basic_json(nlohmann::json_abi_v3_11_3::basic_json<std::__ndk1::map, std::__ndk1::vector, std::__ndk1::basic_string<char, std::__ndk1::char_traits<char>, std::__ndk1::allocator<char> >, bool, long, unsigned long, double, std::__ndk1::allocator, nlohmann::json_abi_v3_11_3::adl_serializer, std::__ndk1::vector<unsigned char, std::__ndk1::allocator<unsigned char> >, void> const&)
PUBLIC 54e88 0 std::__ndk1::unique_ptr<std::__ndk1::__tree_node<std::__ndk1::__value_type<std::__ndk1::basic_string<char, std::__ndk1::char_traits<char>, std::__ndk1::allocator<char> >, nlohmann::json_abi_v3_11_3::basic_json<std::__ndk1::map, std::__ndk1::vector, std::__ndk1::basic_string<char, std::__ndk1::char_traits<char>, std::__ndk1::allocator<char> >, bool, long, unsigned long, double, std::__ndk1::allocator, nlohmann::json_abi_v3_11_3::adl_serializer, std::__ndk1::vector<unsigned char, std::__ndk1::allocator<unsigned char> >, void> >, void*>, std::__ndk1::__tree_node_destructor<std::__ndk1::allocator<std::__ndk1::__tree_node<std::__ndk1::__value_type<std::__ndk1::basic_string<char, std::__ndk1::char_traits<char>, std::__ndk1::allocator<char> >, nlohmann::json_abi_v3_11_3::basic_json<std::__ndk1::map, std::__ndk1::vector, std::__ndk1::basic_string<char, std::__ndk1::char_traits<char>, std::__ndk1::allocator<char> >, bool, long, unsigned long, double, std::__ndk1::allocator, nlohmann::json_abi_v3_11_3::adl_serializer, std::__ndk1::vector<unsigned char, std::__ndk1::allocator<unsigned char> >, void> >, void*> > > >::~unique_ptr[abi:ne190000]()
PUBLIC 54ee4 0 std::__ndk1::__tree_balance_after_insert[abi:ne190000]<std::__ndk1::__tree_node_base<void*>*>(std::__ndk1::__tree_node_base<void*>*, std::__ndk1::__tree_node_base<void*>*)
PUBLIC 5508c 0 std::__ndk1::__exception_guard_exceptions<std::__ndk1::vector<nlohmann::json_abi_v3_11_3::basic_json<std::__ndk1::map, std::__ndk1::vector, std::__ndk1::basic_string<char, std::__ndk1::char_traits<char>, std::__ndk1::allocator<char> >, bool, long, unsigned long, double, std::__ndk1::allocator, nlohmann::json_abi_v3_11_3::adl_serializer, std::__ndk1::vector<unsigned char, std::__ndk1::allocator<unsigned char> >, void>, std::__ndk1::allocator<nlohmann::json_abi_v3_11_3::basic_json<std::__ndk1::map, std::__ndk1::vector, std::__ndk1::basic_string<char, std::__ndk1::char_traits<char>, std::__ndk1::allocator<char> >, bool, long, unsigned long, double, std::__ndk1::allocator, nlohmann::json_abi_v3_11_3::adl_serializer, std::__ndk1::vector<unsigned char, std::__ndk1::allocator<unsigned char> >, void> > >::__destroy_vector>::~__exception_guard_exceptions[abi:ne190000]()
PUBLIC 55100 0 _ZN8nlohmann16json_abi_v3_11_36detail16invalid_iterator6createIPNS0_10basic_jsonINSt6__ndk13mapENS5_6vectorENS5_12basic_stringIcNS5_11char_traitsIcEENS5_9allocatorIcEEEEblmdSB_NS0_14adl_serializerENS7_IhNSB_IhEEEEvEETnNS5_9enable_ifIXsr21is_basic_json_contextIT_EE5valueEiE4typeELi0EEES2_iRKSD_SK_
PUBLIC 552d0 0 nlohmann::json_abi_v3_11_3::detail::invalid_iterator::~invalid_iterator()
PUBLIC 55308 0 _ZN8nlohmann16json_abi_v3_11_36detail10type_error6createIPNS0_10basic_jsonINSt6__ndk13mapENS5_6vectorENS5_12basic_stringIcNS5_11char_traitsIcEENS5_9allocatorIcEEEEblmdSB_NS0_14adl_serializerENS7_IhNSB_IhEEEEvEETnNS5_9enable_ifIXsr21is_basic_json_contextIT_EE5valueEiE4typeELi0EEES2_iRKSD_SK_
PUBLIC 554e0 0 nlohmann::json_abi_v3_11_3::detail::concat<std::__ndk1::basic_string<char, std::__ndk1::char_traits<char>, std::__ndk1::allocator<char> >, char const (&) [25], char const*>(char const (&) [25], char const*)
PUBLIC 55568 0 nlohmann::json_abi_v3_11_3::basic_json<std::__ndk1::map, std::__ndk1::vector, std::__ndk1::basic_string<char, std::__ndk1::char_traits<char>, std::__ndk1::allocator<char> >, bool, long, unsigned long, double, std::__ndk1::allocator, nlohmann::json_abi_v3_11_3::adl_serializer, std::__ndk1::vector<unsigned char, std::__ndk1::allocator<unsigned char> >, void>::type_name() const
PUBLIC 55598 0 std::__ndk1::__tree_remove[abi:ne190000]<std::__ndk1::__tree_node_base<void*>*>(std::__ndk1::__tree_node_base<void*>*, std::__ndk1::__tree_node_base<void*>*)
PUBLIC 55960 0 nlohmann::json_abi_v3_11_3::detail::type_error::~type_error()
PUBLIC 55998 0 std::__ndk1::__tree<std::__ndk1::__value_type<std::__ndk1::basic_string<char, std::__ndk1::char_traits<char>, std::__ndk1::allocator<char> >, nlohmann::json_abi_v3_11_3::basic_json<std::__ndk1::map, std::__ndk1::vector, std::__ndk1::basic_string<char, std::__ndk1::char_traits<char>, std::__ndk1::allocator<char> >, bool, long, unsigned long, double, std::__ndk1::allocator, nlohmann::json_abi_v3_11_3::adl_serializer, std::__ndk1::vector<unsigned char, std::__ndk1::allocator<unsigned char> >, void> >, std::__ndk1::__map_value_compare<std::__ndk1::basic_string<char, std::__ndk1::char_traits<char>, std::__ndk1::allocator<char> >, std::__ndk1::__value_type<std::__ndk1::basic_string<char, std::__ndk1::char_traits<char>, std::__ndk1::allocator<char> >, nlohmann::json_abi_v3_11_3::basic_json<std::__ndk1::map, std::__ndk1::vector, std::__ndk1::basic_string<char, std::__ndk1::char_traits<char>, std::__ndk1::allocator<char> >, bool, long, unsigned long, double, std::__ndk1::allocator, nlohmann::json_abi_v3_11_3::adl_serializer, std::__ndk1::vector<unsigned char, std::__ndk1::allocator<unsigned char> >, void> >, std::__ndk1::less<void>, true>, std::__ndk1::allocator<std::__ndk1::__value_type<std::__ndk1::basic_string<char, std::__ndk1::char_traits<char>, std::__ndk1::allocator<char> >, nlohmann::json_abi_v3_11_3::basic_json<std::__ndk1::map, std::__ndk1::vector, std::__ndk1::basic_string<char, std::__ndk1::char_traits<char>, std::__ndk1::allocator<char> >, bool, long, unsigned long, double, std::__ndk1::allocator, nlohmann::json_abi_v3_11_3::adl_serializer, std::__ndk1::vector<unsigned char, std::__ndk1::allocator<unsigned char> >, void> > > >::__emplace_unique_key_args<std::__ndk1::basic_string<char, std::__ndk1::char_traits<char>, std::__ndk1::allocator<char> >, std::__ndk1::piecewise_construct_t const&, std::__ndk1::tuple<std::__ndk1::basic_string<char, std::__ndk1::char_traits<char>, std::__ndk1::allocator<char> > const&>, std::__ndk1::tuple<> >(std::__ndk1::basic_string<char, std::__ndk1::char_traits<char>, std::__ndk1::allocator<char> > const&, std::__ndk1::piecewise_construct_t const&, std::__ndk1::tuple<std::__ndk1::basic_string<char, std::__ndk1::char_traits<char>, std::__ndk1::allocator<char> > const&>, std::__ndk1::tuple<>)
PUBLIC 55b70 0 nlohmann::json_abi_v3_11_3::detail::out_of_range::out_of_range(nlohmann::json_abi_v3_11_3::detail::out_of_range const&)
PUBLIC 55bb8 0 nlohmann::json_abi_v3_11_3::detail::json_sax_dom_callback_parser<nlohmann::json_abi_v3_11_3::basic_json<std::__ndk1::map, std::__ndk1::vector, std::__ndk1::basic_string<char, std::__ndk1::char_traits<char>, std::__ndk1::allocator<char> >, bool, long, unsigned long, double, std::__ndk1::allocator, nlohmann::json_abi_v3_11_3::adl_serializer, std::__ndk1::vector<unsigned char, std::__ndk1::allocator<unsigned char> >, void> >::handle_value<bool&>(bool&, bool)
PUBLIC 55db4 0 nlohmann::json_abi_v3_11_3::detail::parse_error::parse_error(nlohmann::json_abi_v3_11_3::detail::parse_error const&)
PUBLIC 55e08 0 nlohmann::json_abi_v3_11_3::detail::parse_error::~parse_error()
PUBLIC 55e40 0 snprintf(char*, unsigned long pass_object_size1, char const*, ...)
PUBLIC 55edc 0 nlohmann::json_abi_v3_11_3::detail::json_sax_dom_parser<nlohmann::json_abi_v3_11_3::basic_json<std::__ndk1::map, std::__ndk1::vector, std::__ndk1::basic_string<char, std::__ndk1::char_traits<char>, std::__ndk1::allocator<char> >, bool, long, unsigned long, double, std::__ndk1::allocator, nlohmann::json_abi_v3_11_3::adl_serializer, std::__ndk1::vector<unsigned char, std::__ndk1::allocator<unsigned char> >, void> >::parse_error<nlohmann::json_abi_v3_11_3::detail::out_of_range>(unsigned long, std::__ndk1::basic_string<char, std::__ndk1::char_traits<char>, std::__ndk1::allocator<char> > const&, nlohmann::json_abi_v3_11_3::detail::out_of_range const&)
PUBLIC 55f2c 0 nlohmann::json_abi_v3_11_3::detail::json_sax_dom_parser<nlohmann::json_abi_v3_11_3::basic_json<std::__ndk1::map, std::__ndk1::vector, std::__ndk1::basic_string<char, std::__ndk1::char_traits<char>, std::__ndk1::allocator<char> >, bool, long, unsigned long, double, std::__ndk1::allocator, nlohmann::json_abi_v3_11_3::adl_serializer, std::__ndk1::vector<unsigned char, std::__ndk1::allocator<unsigned char> >, void> >::handle_value<nlohmann::json_abi_v3_11_3::detail::value_t>(nlohmann::json_abi_v3_11_3::detail::value_t&&)
PUBLIC 561c8 0 nlohmann::json_abi_v3_11_3::detail::json_sax_dom_parser<nlohmann::json_abi_v3_11_3::basic_json<std::__ndk1::map, std::__ndk1::vector, std::__ndk1::basic_string<char, std::__ndk1::char_traits<char>, std::__ndk1::allocator<char> >, bool, long, unsigned long, double, std::__ndk1::allocator, nlohmann::json_abi_v3_11_3::adl_serializer, std::__ndk1::vector<unsigned char, std::__ndk1::allocator<unsigned char> >, void> >::handle_value<bool&>(bool&)
PUBLIC 56408 0 std::__ndk1::__tree<std::__ndk1::__value_type<std::__ndk1::basic_string<char, std::__ndk1::char_traits<char>, std::__ndk1::allocator<char> >, nlohmann::json_abi_v3_11_3::basic_json<std::__ndk1::map, std::__ndk1::vector, std::__ndk1::basic_string<char, std::__ndk1::char_traits<char>, std::__ndk1::allocator<char> >, bool, long, unsigned long, double, std::__ndk1::allocator, nlohmann::json_abi_v3_11_3::adl_serializer, std::__ndk1::vector<unsigned char, std::__ndk1::allocator<unsigned char> >, void> >, std::__ndk1::__map_value_compare<std::__ndk1::basic_string<char, std::__ndk1::char_traits<char>, std::__ndk1::allocator<char> >, std::__ndk1::__value_type<std::__ndk1::basic_string<char, std::__ndk1::char_traits<char>, std::__ndk1::allocator<char> >, nlohmann::json_abi_v3_11_3::basic_json<std::__ndk1::map, std::__ndk1::vector, std::__ndk1::basic_string<char, std::__ndk1::char_traits<char>, std::__ndk1::allocator<char> >, bool, long, unsigned long, double, std::__ndk1::allocator, nlohmann::json_abi_v3_11_3::adl_serializer, std::__ndk1::vector<unsigned char, std::__ndk1::allocator<unsigned char> >, void> >, std::__ndk1::less<void>, true>, std::__ndk1::allocator<std::__ndk1::__value_type<std::__ndk1::basic_string<char, std::__ndk1::char_traits<char>, std::__ndk1::allocator<char> >, nlohmann::json_abi_v3_11_3::basic_json<std::__ndk1::map, std::__ndk1::vector, std::__ndk1::basic_string<char, std::__ndk1::char_traits<char>, std::__ndk1::allocator<char> >, bool, long, unsigned long, double, std::__ndk1::allocator, nlohmann::json_abi_v3_11_3::adl_serializer, std::__ndk1::vector<unsigned char, std::__ndk1::allocator<unsigned char> >, void> > > >::find<char [5]>(char const (&) [5])
PUBLIC 56570 0 nlohmann::json_abi_v3_11_3::detail::concat<std::__ndk1::basic_string<char, std::__ndk1::char_traits<char>, std::__ndk1::allocator<char> >, char const (&) [51], char const*>(char const (&) [51], char const*)
PUBLIC 565f8 0 std::__ndk1::__tree<std::__ndk1::__value_type<std::__ndk1::basic_string<char, std::__ndk1::char_traits<char>, std::__ndk1::allocator<char> >, std::__ndk1::pair<std::__ndk1::basic_string<char, std::__ndk1::char_traits<char>, std::__ndk1::allocator<char> >, std::__ndk1::basic_string<char, std::__ndk1::char_traits<char>, std::__ndk1::allocator<char> > > >, std::__ndk1::__map_value_compare<std::__ndk1::basic_string<char, std::__ndk1::char_traits<char>, std::__ndk1::allocator<char> >, std::__ndk1::__value_type<std::__ndk1::basic_string<char, std::__ndk1::char_traits<char>, std::__ndk1::allocator<char> >, std::__ndk1::pair<std::__ndk1::basic_string<char, std::__ndk1::char_traits<char>, std::__ndk1::allocator<char> >, std::__ndk1::basic_string<char, std::__ndk1::char_traits<char>, std::__ndk1::allocator<char> > > >, std::__ndk1::less<std::__ndk1::basic_string<char, std::__ndk1::char_traits<char>, std::__ndk1::allocator<char> > >, true>, std::__ndk1::allocator<std::__ndk1::__value_type<std::__ndk1::basic_string<char, std::__ndk1::char_traits<char>, std::__ndk1::allocator<char> >, std::__ndk1::pair<std::__ndk1::basic_string<char, std::__ndk1::char_traits<char>, std::__ndk1::allocator<char> >, std::__ndk1::basic_string<char, std::__ndk1::char_traits<char>, std::__ndk1::allocator<char> > > > > >::destroy(std::__ndk1::__tree_node<std::__ndk1::__value_type<std::__ndk1::basic_string<char, std::__ndk1::char_traits<char>, std::__ndk1::allocator<char> >, std::__ndk1::pair<std::__ndk1::basic_string<char, std::__ndk1::char_traits<char>, std::__ndk1::allocator<char> >, std::__ndk1::basic_string<char, std::__ndk1::char_traits<char>, std::__ndk1::allocator<char> > > >, void*>*)
PUBLIC 56680 0 _ZNK8nlohmann16json_abi_v3_11_36detail9iter_implIKNS0_10basic_jsonINSt6__ndk13mapENS4_6vectorENS4_12basic_stringIcNS4_11char_traitsIcEENS4_9allocatorIcEEEEblmdSA_NS0_14adl_serializerENS6_IhNSA_IhEEEEvEEEeqISI_TnNS4_9enable_ifIXoosr3std7is_sameIT_SI_EE5valuesr3std7is_sameISL_NS2_ISG_EEEE5valueEDnE4typeELDn0EEEbRKSL_
PUBLIC 567b8 0 _ZN8nlohmann16json_abi_v3_11_36detail16invalid_iterator6createIPKNS0_10basic_jsonINSt6__ndk13mapENS5_6vectorENS5_12basic_stringIcNS5_11char_traitsIcEENS5_9allocatorIcEEEEblmdSB_NS0_14adl_serializerENS7_IhNSB_IhEEEEvEETnNS5_9enable_ifIXsr21is_basic_json_contextIT_EE5valueEiE4typeELi0EEES2_iRKSD_SL_
PUBLIC 56988 0 nlohmann::json_abi_v3_11_3::detail::iter_impl<nlohmann::json_abi_v3_11_3::basic_json<std::__ndk1::map, std::__ndk1::vector, std::__ndk1::basic_string<char, std::__ndk1::char_traits<char>, std::__ndk1::allocator<char> >, bool, long, unsigned long, double, std::__ndk1::allocator, nlohmann::json_abi_v3_11_3::adl_serializer, std::__ndk1::vector<unsigned char, std::__ndk1::allocator<unsigned char> >, void> const>::operator*() const
PUBLIC 56b18 0 _ZN8nlohmann16json_abi_v3_11_36detail10type_error6createIPKNS0_10basic_jsonINSt6__ndk13mapENS5_6vectorENS5_12basic_stringIcNS5_11char_traitsIcEENS5_9allocatorIcEEEEblmdSB_NS0_14adl_serializerENS7_IhNSB_IhEEEEvEETnNS5_9enable_ifIXsr21is_basic_json_contextIT_EE5valueEiE4typeELi0EEES2_iRKSD_SL_
PUBLIC 56cf0 0 std::__ndk1::__tree<std::__ndk1::__value_type<std::__ndk1::basic_string<char, std::__ndk1::char_traits<char>, std::__ndk1::allocator<char> >, nlohmann::json_abi_v3_11_3::basic_json<std::__ndk1::map, std::__ndk1::vector, std::__ndk1::basic_string<char, std::__ndk1::char_traits<char>, std::__ndk1::allocator<char> >, bool, long, unsigned long, double, std::__ndk1::allocator, nlohmann::json_abi_v3_11_3::adl_serializer, std::__ndk1::vector<unsigned char, std::__ndk1::allocator<unsigned char> >, void> >, std::__ndk1::__map_value_compare<std::__ndk1::basic_string<char, std::__ndk1::char_traits<char>, std::__ndk1::allocator<char> >, std::__ndk1::__value_type<std::__ndk1::basic_string<char, std::__ndk1::char_traits<char>, std::__ndk1::allocator<char> >, nlohmann::json_abi_v3_11_3::basic_json<std::__ndk1::map, std::__ndk1::vector, std::__ndk1::basic_string<char, std::__ndk1::char_traits<char>, std::__ndk1::allocator<char> >, bool, long, unsigned long, double, std::__ndk1::allocator, nlohmann::json_abi_v3_11_3::adl_serializer, std::__ndk1::vector<unsigned char, std::__ndk1::allocator<unsigned char> >, void> >, std::__ndk1::less<void>, true>, std::__ndk1::allocator<std::__ndk1::__value_type<std::__ndk1::basic_string<char, std::__ndk1::char_traits<char>, std::__ndk1::allocator<char> >, nlohmann::json_abi_v3_11_3::basic_json<std::__ndk1::map, std::__ndk1::vector, std::__ndk1::basic_string<char, std::__ndk1::char_traits<char>, std::__ndk1::allocator<char> >, bool, long, unsigned long, double, std::__ndk1::allocator, nlohmann::json_abi_v3_11_3::adl_serializer, std::__ndk1::vector<unsigned char, std::__ndk1::allocator<unsigned char> >, void> > > >::find<char [7]>(char const (&) [7])
PUBLIC 56e58 0 nlohmann::json_abi_v3_11_3::detail::from_json<nlohmann::json_abi_v3_11_3::basic_json<std::__ndk1::map, std::__ndk1::vector, std::__ndk1::basic_string<char, std::__ndk1::char_traits<char>, std::__ndk1::allocator<char> >, bool, long, unsigned long, double, std::__ndk1::allocator, nlohmann::json_abi_v3_11_3::adl_serializer, std::__ndk1::vector<unsigned char, std::__ndk1::allocator<unsigned char> >, void> >(nlohmann::json_abi_v3_11_3::basic_json<std::__ndk1::map, std::__ndk1::vector, std::__ndk1::basic_string<char, std::__ndk1::char_traits<char>, std::__ndk1::allocator<char> >, bool, long, unsigned long, double, std::__ndk1::allocator, nlohmann::json_abi_v3_11_3::adl_serializer, std::__ndk1::vector<unsigned char, std::__ndk1::allocator<unsigned char> >, void> const&, nlohmann::json_abi_v3_11_3::basic_json<std::__ndk1::map, std::__ndk1::vector, std::__ndk1::basic_string<char, std::__ndk1::char_traits<char>, std::__ndk1::allocator<char> >, bool, long, unsigned long, double, std::__ndk1::allocator, nlohmann::json_abi_v3_11_3::adl_serializer, std::__ndk1::vector<unsigned char, std::__ndk1::allocator<unsigned char> >, void>&::string_t)
PUBLIC 57020 0 nlohmann::json_abi_v3_11_3::detail::concat<std::__ndk1::basic_string<char, std::__ndk1::char_traits<char>, std::__ndk1::allocator<char> >, char const (&) [29], char const*>(char const (&) [29], char const*)
PUBLIC 570a8 0 std::__ndk1::__tree<std::__ndk1::__value_type<std::__ndk1::basic_string<char, std::__ndk1::char_traits<char>, std::__ndk1::allocator<char> >, std::__ndk1::pair<std::__ndk1::basic_string<char, std::__ndk1::char_traits<char>, std::__ndk1::allocator<char> >, std::__ndk1::basic_string<char, std::__ndk1::char_traits<char>, std::__ndk1::allocator<char> > > >, std::__ndk1::__map_value_compare<std::__ndk1::basic_string<char, std::__ndk1::char_traits<char>, std::__ndk1::allocator<char> >, std::__ndk1::__value_type<std::__ndk1::basic_string<char, std::__ndk1::char_traits<char>, std::__ndk1::allocator<char> >, std::__ndk1::pair<std::__ndk1::basic_string<char, std::__ndk1::char_traits<char>, std::__ndk1::allocator<char> >, std::__ndk1::basic_string<char, std::__ndk1::char_traits<char>, std::__ndk1::allocator<char> > > >, std::__ndk1::less<std::__ndk1::basic_string<char, std::__ndk1::char_traits<char>, std::__ndk1::allocator<char> > >, true>, std::__ndk1::allocator<std::__ndk1::__value_type<std::__ndk1::basic_string<char, std::__ndk1::char_traits<char>, std::__ndk1::allocator<char> >, std::__ndk1::pair<std::__ndk1::basic_string<char, std::__ndk1::char_traits<char>, std::__ndk1::allocator<char> >, std::__ndk1::basic_string<char, std::__ndk1::char_traits<char>, std::__ndk1::allocator<char> > > > > >::__emplace_unique_key_args<std::__ndk1::basic_string<char, std::__ndk1::char_traits<char>, std::__ndk1::allocator<char> >, std::__ndk1::piecewise_construct_t const&, std::__ndk1::tuple<std::__ndk1::basic_string<char, std::__ndk1::char_traits<char>, std::__ndk1::allocator<char> > const&>, std::__ndk1::tuple<> >(std::__ndk1::basic_string<char, std::__ndk1::char_traits<char>, std::__ndk1::allocator<char> > const&, std::__ndk1::piecewise_construct_t const&, std::__ndk1::tuple<std::__ndk1::basic_string<char, std::__ndk1::char_traits<char>, std::__ndk1::allocator<char> > const&>, std::__ndk1::tuple<>)
PUBLIC 57288 0 std::__ndk1::unique_ptr<std::__ndk1::__tree_node<std::__ndk1::__value_type<std::__ndk1::basic_string<char, std::__ndk1::char_traits<char>, std::__ndk1::allocator<char> >, std::__ndk1::pair<std::__ndk1::basic_string<char, std::__ndk1::char_traits<char>, std::__ndk1::allocator<char> >, std::__ndk1::basic_string<char, std::__ndk1::char_traits<char>, std::__ndk1::allocator<char> > > >, void*>, std::__ndk1::__tree_node_destructor<std::__ndk1::allocator<std::__ndk1::__tree_node<std::__ndk1::__value_type<std::__ndk1::basic_string<char, std::__ndk1::char_traits<char>, std::__ndk1::allocator<char> >, std::__ndk1::pair<std::__ndk1::basic_string<char, std::__ndk1::char_traits<char>, std::__ndk1::allocator<char> >, std::__ndk1::basic_string<char, std::__ndk1::char_traits<char>, std::__ndk1::allocator<char> > > >, void*> > > >::~unique_ptr[abi:ne190000]()
PUBLIC 57308 0 std::__ndk1::__tree<std::__ndk1::__value_type<std::__ndk1::basic_string<char, std::__ndk1::char_traits<char>, std::__ndk1::allocator<char> >, std::__ndk1::pair<std::__ndk1::basic_string<char, std::__ndk1::char_traits<char>, std::__ndk1::allocator<char> >, std::__ndk1::basic_string<char, std::__ndk1::char_traits<char>, std::__ndk1::allocator<char> > > >, std::__ndk1::__map_value_compare<std::__ndk1::basic_string<char, std::__ndk1::char_traits<char>, std::__ndk1::allocator<char> >, std::__ndk1::__value_type<std::__ndk1::basic_string<char, std::__ndk1::char_traits<char>, std::__ndk1::allocator<char> >, std::__ndk1::pair<std::__ndk1::basic_string<char, std::__ndk1::char_traits<char>, std::__ndk1::allocator<char> >, std::__ndk1::basic_string<char, std::__ndk1::char_traits<char>, std::__ndk1::allocator<char> > > >, std::__ndk1::less<std::__ndk1::basic_string<char, std::__ndk1::char_traits<char>, std::__ndk1::allocator<char> > >, true>, std::__ndk1::allocator<std::__ndk1::__value_type<std::__ndk1::basic_string<char, std::__ndk1::char_traits<char>, std::__ndk1::allocator<char> >, std::__ndk1::pair<std::__ndk1::basic_string<char, std::__ndk1::char_traits<char>, std::__ndk1::allocator<char> >, std::__ndk1::basic_string<char, std::__ndk1::char_traits<char>, std::__ndk1::allocator<char> > > > > >::find<std::__ndk1::basic_string<char, std::__ndk1::char_traits<char>, std::__ndk1::allocator<char> > >(std::__ndk1::basic_string<char, std::__ndk1::char_traits<char>, std::__ndk1::allocator<char> > const&)
PUBLIC 57430 0 __cxx_global_var_init
PUBLIC 575ac 0 std::__ndk1::__function::__base<void (cocos2d::CCNode*)>::~__base()
PUBLIC 575b0 0 std::__ndk1::__function::__func<AlphaUtils::ModifyLoad<myCustomCreatorLayer>::ModifyLoad(std::__ndk1::basic_string<char, std::__ndk1::char_traits<char>, std::__ndk1::allocator<char> >)::{lambda(cocos2d::CCNode*)#1}, std::__ndk1::allocator<AlphaUtils::ModifyLoad<myCustomCreatorLayer>::ModifyLoad(std::__ndk1::basic_string<char, std::__ndk1::char_traits<char>, std::__ndk1::allocator<char> >)::{lambda(cocos2d::CCNode*)#1}>, void (cocos2d::CCNode*)>::~__func()
PUBLIC 575b4 0 std::__ndk1::__function::__func<AlphaUtils::ModifyLoad<myCustomCreatorLayer>::ModifyLoad(std::__ndk1::basic_string<char, std::__ndk1::char_traits<char>, std::__ndk1::allocator<char> >)::{lambda(cocos2d::CCNode*)#1}, std::__ndk1::allocator<AlphaUtils::ModifyLoad<myCustomCreatorLayer>::ModifyLoad(std::__ndk1::basic_string<char, std::__ndk1::char_traits<char>, std::__ndk1::allocator<char> >)::{lambda(cocos2d::CCNode*)#1}>, void (cocos2d::CCNode*)>::__clone() const
PUBLIC 575d8 0 std::__ndk1::__function::__func<AlphaUtils::ModifyLoad<myCustomCreatorLayer>::ModifyLoad(std::__ndk1::basic_string<char, std::__ndk1::char_traits<char>, std::__ndk1::allocator<char> >)::{lambda(cocos2d::CCNode*)#1}, std::__ndk1::allocator<AlphaUtils::ModifyLoad<myCustomCreatorLayer>::ModifyLoad(std::__ndk1::basic_string<char, std::__ndk1::char_traits<char>, std::__ndk1::allocator<char> >)::{lambda(cocos2d::CCNode*)#1}>, void (cocos2d::CCNode*)>::__clone(std::__ndk1::__function::__base<void (cocos2d::CCNode*)>*) const
PUBLIC 575e8 0 std::__ndk1::__function::__func<AlphaUtils::ModifyLoad<myCustomCreatorLayer>::ModifyLoad(std::__ndk1::basic_string<char, std::__ndk1::char_traits<char>, std::__ndk1::allocator<char> >)::{lambda(cocos2d::CCNode*)#1}, std::__ndk1::allocator<AlphaUtils::ModifyLoad<myCustomCreatorLayer>::ModifyLoad(std::__ndk1::basic_string<char, std::__ndk1::char_traits<char>, std::__ndk1::allocator<char> >)::{lambda(cocos2d::CCNode*)#1}>, void (cocos2d::CCNode*)>::destroy()
PUBLIC 575ec 0 std::__ndk1::__function::__func<AlphaUtils::ModifyLoad<myCustomCreatorLayer>::ModifyLoad(std::__ndk1::basic_string<char, std::__ndk1::char_traits<char>, std::__ndk1::allocator<char> >)::{lambda(cocos2d::CCNode*)#1}, std::__ndk1::allocator<AlphaUtils::ModifyLoad<myCustomCreatorLayer>::ModifyLoad(std::__ndk1::basic_string<char, std::__ndk1::char_traits<char>, std::__ndk1::allocator<char> >)::{lambda(cocos2d::CCNode*)#1}>, void (cocos2d::CCNode*)>::destroy_deallocate()
PUBLIC 575f0 0 std::__ndk1::__function::__func<AlphaUtils::ModifyLoad<myCustomCreatorLayer>::ModifyLoad(std::__ndk1::basic_string<char, std::__ndk1::char_traits<char>, std::__ndk1::allocator<char> >)::{lambda(cocos2d::CCNode*)#1}, std::__ndk1::allocator<AlphaUtils::ModifyLoad<myCustomCreatorLayer>::ModifyLoad(std::__ndk1::basic_string<char, std::__ndk1::char_traits<char>, std::__ndk1::allocator<char> >)::{lambda(cocos2d::CCNode*)#1}>, void (cocos2d::CCNode*)>::operator()(cocos2d::CCNode*&&)
PUBLIC 576c8 0 std::__ndk1::__function::__func<AlphaUtils::ModifyLoad<myCustomCreatorLayer>::ModifyLoad(std::__ndk1::basic_string<char, std::__ndk1::char_traits<char>, std::__ndk1::allocator<char> >)::{lambda(cocos2d::CCNode*)#1}, std::__ndk1::allocator<AlphaUtils::ModifyLoad<myCustomCreatorLayer>::ModifyLoad(std::__ndk1::basic_string<char, std::__ndk1::char_traits<char>, std::__ndk1::allocator<char> >)::{lambda(cocos2d::CCNode*)#1}>, void (cocos2d::CCNode*)>::target(std::type_info const&) const
PUBLIC 576e4 0 std::__ndk1::__function::__func<AlphaUtils::ModifyLoad<myCustomCreatorLayer>::ModifyLoad(std::__ndk1::basic_string<char, std::__ndk1::char_traits<char>, std::__ndk1::allocator<char> >)::{lambda(cocos2d::CCNode*)#1}, std::__ndk1::allocator<AlphaUtils::ModifyLoad<myCustomCreatorLayer>::ModifyLoad(std::__ndk1::basic_string<char, std::__ndk1::char_traits<char>, std::__ndk1::allocator<char> >)::{lambda(cocos2d::CCNode*)#1}>, void (cocos2d::CCNode*)>::target_type() const
PUBLIC 576f0 0 __cxx_global_var_init
PUBLIC 57864 0 std::__ndk1::__function::__func<AlphaUtils::ModifyLoad<myDailyViewLayer>::ModifyLoad(std::__ndk1::basic_string<char, std::__ndk1::char_traits<char>, std::__ndk1::allocator<char> >)::{lambda(cocos2d::CCNode*)#1}, std::__ndk1::allocator<AlphaUtils::ModifyLoad<myDailyViewLayer>::ModifyLoad(std::__ndk1::basic_string<char, std::__ndk1::char_traits<char>, std::__ndk1::allocator<char> >)::{lambda(cocos2d::CCNode*)#1}>, void (cocos2d::CCNode*)>::~__func()
PUBLIC 57868 0 std::__ndk1::__function::__func<AlphaUtils::ModifyLoad<myDailyViewLayer>::ModifyLoad(std::__ndk1::basic_string<char, std::__ndk1::char_traits<char>, std::__ndk1::allocator<char> >)::{lambda(cocos2d::CCNode*)#1}, std::__ndk1::allocator<AlphaUtils::ModifyLoad<myDailyViewLayer>::ModifyLoad(std::__ndk1::basic_string<char, std::__ndk1::char_traits<char>, std::__ndk1::allocator<char> >)::{lambda(cocos2d::CCNode*)#1}>, void (cocos2d::CCNode*)>::__clone() const
PUBLIC 5788c 0 std::__ndk1::__function::__func<AlphaUtils::ModifyLoad<myDailyViewLayer>::ModifyLoad(std::__ndk1::basic_string<char, std::__ndk1::char_traits<char>, std::__ndk1::allocator<char> >)::{lambda(cocos2d::CCNode*)#1}, std::__ndk1::allocator<AlphaUtils::ModifyLoad<myDailyViewLayer>::ModifyLoad(std::__ndk1::basic_string<char, std::__ndk1::char_traits<char>, std::__ndk1::allocator<char> >)::{lambda(cocos2d::CCNode*)#1}>, void (cocos2d::CCNode*)>::__clone(std::__ndk1::__function::__base<void (cocos2d::CCNode*)>*) const
PUBLIC 5789c 0 std::__ndk1::__function::__func<AlphaUtils::ModifyLoad<myDailyViewLayer>::ModifyLoad(std::__ndk1::basic_string<char, std::__ndk1::char_traits<char>, std::__ndk1::allocator<char> >)::{lambda(cocos2d::CCNode*)#1}, std::__ndk1::allocator<AlphaUtils::ModifyLoad<myDailyViewLayer>::ModifyLoad(std::__ndk1::basic_string<char, std::__ndk1::char_traits<char>, std::__ndk1::allocator<char> >)::{lambda(cocos2d::CCNode*)#1}>, void (cocos2d::CCNode*)>::destroy()
PUBLIC 578a0 0 std::__ndk1::__function::__func<AlphaUtils::ModifyLoad<myDailyViewLayer>::ModifyLoad(std::__ndk1::basic_string<char, std::__ndk1::char_traits<char>, std::__ndk1::allocator<char> >)::{lambda(cocos2d::CCNode*)#1}, std::__ndk1::allocator<AlphaUtils::ModifyLoad<myDailyViewLayer>::ModifyLoad(std::__ndk1::basic_string<char, std::__ndk1::char_traits<char>, std::__ndk1::allocator<char> >)::{lambda(cocos2d::CCNode*)#1}>, void (cocos2d::CCNode*)>::destroy_deallocate()
PUBLIC 578a4 0 std::__ndk1::__function::__func<AlphaUtils::ModifyLoad<myDailyViewLayer>::ModifyLoad(std::__ndk1::basic_string<char, std::__ndk1::char_traits<char>, std::__ndk1::allocator<char> >)::{lambda(cocos2d::CCNode*)#1}, std::__ndk1::allocator<AlphaUtils::ModifyLoad<myDailyViewLayer>::ModifyLoad(std::__ndk1::basic_string<char, std::__ndk1::char_traits<char>, std::__ndk1::allocator<char> >)::{lambda(cocos2d::CCNode*)#1}>, void (cocos2d::CCNode*)>::operator()(cocos2d::CCNode*&&)
PUBLIC 5797c 0 std::__ndk1::__function::__func<AlphaUtils::ModifyLoad<myDailyViewLayer>::ModifyLoad(std::__ndk1::basic_string<char, std::__ndk1::char_traits<char>, std::__ndk1::allocator<char> >)::{lambda(cocos2d::CCNode*)#1}, std::__ndk1::allocator<AlphaUtils::ModifyLoad<myDailyViewLayer>::ModifyLoad(std::__ndk1::basic_string<char, std::__ndk1::char_traits<char>, std::__ndk1::allocator<char> >)::{lambda(cocos2d::CCNode*)#1}>, void (cocos2d::CCNode*)>::target(std::type_info const&) const
PUBLIC 57998 0 std::__ndk1::__function::__func<AlphaUtils::ModifyLoad<myDailyViewLayer>::ModifyLoad(std::__ndk1::basic_string<char, std::__ndk1::char_traits<char>, std::__ndk1::allocator<char> >)::{lambda(cocos2d::CCNode*)#1}, std::__ndk1::allocator<AlphaUtils::ModifyLoad<myDailyViewLayer>::ModifyLoad(std::__ndk1::basic_string<char, std::__ndk1::char_traits<char>, std::__ndk1::allocator<char> >)::{lambda(cocos2d::CCNode*)#1}>, void (cocos2d::CCNode*)>::target_type() const
PUBLIC 579a4 0 __cxx_global_var_init
PUBLIC 57b24 0 std::__ndk1::__function::__func<AlphaUtils::ModifyLoad<myLeaderboardViewLayer>::ModifyLoad(std::__ndk1::basic_string<char, std::__ndk1::char_traits<char>, std::__ndk1::allocator<char> >)::{lambda(cocos2d::CCNode*)#1}, std::__ndk1::allocator<AlphaUtils::ModifyLoad<myLeaderboardViewLayer>::ModifyLoad(std::__ndk1::basic_string<char, std::__ndk1::char_traits<char>, std::__ndk1::allocator<char> >)::{lambda(cocos2d::CCNode*)#1}>, void (cocos2d::CCNode*)>::~__func()
PUBLIC 57b28 0 std::__ndk1::__function::__func<AlphaUtils::ModifyLoad<myLeaderboardViewLayer>::ModifyLoad(std::__ndk1::basic_string<char, std::__ndk1::char_traits<char>, std::__ndk1::allocator<char> >)::{lambda(cocos2d::CCNode*)#1}, std::__ndk1::allocator<AlphaUtils::ModifyLoad<myLeaderboardViewLayer>::ModifyLoad(std::__ndk1::basic_string<char, std::__ndk1::char_traits<char>, std::__ndk1::allocator<char> >)::{lambda(cocos2d::CCNode*)#1}>, void (cocos2d::CCNode*)>::__clone() const
PUBLIC 57b4c 0 std::__ndk1::__function::__func<AlphaUtils::ModifyLoad<myLeaderboardViewLayer>::ModifyLoad(std::__ndk1::basic_string<char, std::__ndk1::char_traits<char>, std::__ndk1::allocator<char> >)::{lambda(cocos2d::CCNode*)#1}, std::__ndk1::allocator<AlphaUtils::ModifyLoad<myLeaderboardViewLayer>::ModifyLoad(std::__ndk1::basic_string<char, std::__ndk1::char_traits<char>, std::__ndk1::allocator<char> >)::{lambda(cocos2d::CCNode*)#1}>, void (cocos2d::CCNode*)>::__clone(std::__ndk1::__function::__base<void (cocos2d::CCNode*)>*) const
PUBLIC 57b5c 0 std::__ndk1::__function::__func<AlphaUtils::ModifyLoad<myLeaderboardViewLayer>::ModifyLoad(std::__ndk1::basic_string<char, std::__ndk1::char_traits<char>, std::__ndk1::allocator<char> >)::{lambda(cocos2d::CCNode*)#1}, std::__ndk1::allocator<AlphaUtils::ModifyLoad<myLeaderboardViewLayer>::ModifyLoad(std::__ndk1::basic_string<char, std::__ndk1::char_traits<char>, std::__ndk1::allocator<char> >)::{lambda(cocos2d::CCNode*)#1}>, void (cocos2d::CCNode*)>::destroy()
PUBLIC 57b60 0 std::__ndk1::__function::__func<AlphaUtils::ModifyLoad<myLeaderboardViewLayer>::ModifyLoad(std::__ndk1::basic_string<char, std::__ndk1::char_traits<char>, std::__ndk1::allocator<char> >)::{lambda(cocos2d::CCNode*)#1}, std::__ndk1::allocator<AlphaUtils::ModifyLoad<myLeaderboardViewLayer>::ModifyLoad(std::__ndk1::basic_string<char, std::__ndk1::char_traits<char>, std::__ndk1::allocator<char> >)::{lambda(cocos2d::CCNode*)#1}>, void (cocos2d::CCNode*)>::destroy_deallocate()
PUBLIC 57b64 0 std::__ndk1::__function::__func<AlphaUtils::ModifyLoad<myLeaderboardViewLayer>::ModifyLoad(std::__ndk1::basic_string<char, std::__ndk1::char_traits<char>, std::__ndk1::allocator<char> >)::{lambda(cocos2d::CCNode*)#1}, std::__ndk1::allocator<AlphaUtils::ModifyLoad<myLeaderboardViewLayer>::ModifyLoad(std::__ndk1::basic_string<char, std::__ndk1::char_traits<char>, std::__ndk1::allocator<char> >)::{lambda(cocos2d::CCNode*)#1}>, void (cocos2d::CCNode*)>::operator()(cocos2d::CCNode*&&)
PUBLIC 57c3c 0 std::__ndk1::__function::__func<AlphaUtils::ModifyLoad<myLeaderboardViewLayer>::ModifyLoad(std::__ndk1::basic_string<char, std::__ndk1::char_traits<char>, std::__ndk1::allocator<char> >)::{lambda(cocos2d::CCNode*)#1}, std::__ndk1::allocator<AlphaUtils::ModifyLoad<myLeaderboardViewLayer>::ModifyLoad(std::__ndk1::basic_string<char, std::__ndk1::char_traits<char>, std::__ndk1::allocator<char> >)::{lambda(cocos2d::CCNode*)#1}>, void (cocos2d::CCNode*)>::target(std::type_info const&) const
PUBLIC 57c58 0 std::__ndk1::__function::__func<AlphaUtils::ModifyLoad<myLeaderboardViewLayer>::ModifyLoad(std::__ndk1::basic_string<char, std::__ndk1::char_traits<char>, std::__ndk1::allocator<char> >)::{lambda(cocos2d::CCNode*)#1}, std::__ndk1::allocator<AlphaUtils::ModifyLoad<myLeaderboardViewLayer>::ModifyLoad(std::__ndk1::basic_string<char, std::__ndk1::char_traits<char>, std::__ndk1::allocator<char> >)::{lambda(cocos2d::CCNode*)#1}>, void (cocos2d::CCNode*)>::target_type() const
PUBLIC 57c64 0 __cxx_global_var_init
PUBLIC 57de4 0 std::__ndk1::__function::__func<AlphaUtils::ModifyLoad<myLevelSearchViewLayer>::ModifyLoad(std::__ndk1::basic_string<char, std::__ndk1::char_traits<char>, std::__ndk1::allocator<char> >)::{lambda(cocos2d::CCNode*)#1}, std::__ndk1::allocator<AlphaUtils::ModifyLoad<myLevelSearchViewLayer>::ModifyLoad(std::__ndk1::basic_string<char, std::__ndk1::char_traits<char>, std::__ndk1::allocator<char> >)::{lambda(cocos2d::CCNode*)#1}>, void (cocos2d::CCNode*)>::~__func()
PUBLIC 57de8 0 std::__ndk1::__function::__func<AlphaUtils::ModifyLoad<myLevelSearchViewLayer>::ModifyLoad(std::__ndk1::basic_string<char, std::__ndk1::char_traits<char>, std::__ndk1::allocator<char> >)::{lambda(cocos2d::CCNode*)#1}, std::__ndk1::allocator<AlphaUtils::ModifyLoad<myLevelSearchViewLayer>::ModifyLoad(std::__ndk1::basic_string<char, std::__ndk1::char_traits<char>, std::__ndk1::allocator<char> >)::{lambda(cocos2d::CCNode*)#1}>, void (cocos2d::CCNode*)>::__clone() const
PUBLIC 57e0c 0 std::__ndk1::__function::__func<AlphaUtils::ModifyLoad<myLevelSearchViewLayer>::ModifyLoad(std::__ndk1::basic_string<char, std::__ndk1::char_traits<char>, std::__ndk1::allocator<char> >)::{lambda(cocos2d::CCNode*)#1}, std::__ndk1::allocator<AlphaUtils::ModifyLoad<myLevelSearchViewLayer>::ModifyLoad(std::__ndk1::basic_string<char, std::__ndk1::char_traits<char>, std::__ndk1::allocator<char> >)::{lambda(cocos2d::CCNode*)#1}>, void (cocos2d::CCNode*)>::__clone(std::__ndk1::__function::__base<void (cocos2d::CCNode*)>*) const
PUBLIC 57e1c 0 std::__ndk1::__function::__func<AlphaUtils::ModifyLoad<myLevelSearchViewLayer>::ModifyLoad(std::__ndk1::basic_string<char, std::__ndk1::char_traits<char>, std::__ndk1::allocator<char> >)::{lambda(cocos2d::CCNode*)#1}, std::__ndk1::allocator<AlphaUtils::ModifyLoad<myLevelSearchViewLayer>::ModifyLoad(std::__ndk1::basic_string<char, std::__ndk1::char_traits<char>, std::__ndk1::allocator<char> >)::{lambda(cocos2d::CCNode*)#1}>, void (cocos2d::CCNode*)>::destroy()
PUBLIC 57e20 0 std::__ndk1::__function::__func<AlphaUtils::ModifyLoad<myLevelSearchViewLayer>::ModifyLoad(std::__ndk1::basic_string<char, std::__ndk1::char_traits<char>, std::__ndk1::allocator<char> >)::{lambda(cocos2d::CCNode*)#1}, std::__ndk1::allocator<AlphaUtils::ModifyLoad<myLevelSearchViewLayer>::ModifyLoad(std::__ndk1::basic_string<char, std::__ndk1::char_traits<char>, std::__ndk1::allocator<char> >)::{lambda(cocos2d::CCNode*)#1}>, void (cocos2d::CCNode*)>::destroy_deallocate()
PUBLIC 57e24 0 std::__ndk1::__function::__func<AlphaUtils::ModifyLoad<myLevelSearchViewLayer>::ModifyLoad(std::__ndk1::basic_string<char, std::__ndk1::char_traits<char>, std::__ndk1::allocator<char> >)::{lambda(cocos2d::CCNode*)#1}, std::__ndk1::allocator<AlphaUtils::ModifyLoad<myLevelSearchViewLayer>::ModifyLoad(std::__ndk1::basic_string<char, std::__ndk1::char_traits<char>, std::__ndk1::allocator<char> >)::{lambda(cocos2d::CCNode*)#1}>, void (cocos2d::CCNode*)>::operator()(cocos2d::CCNode*&&)
PUBLIC 57efc 0 std::__ndk1::__function::__func<AlphaUtils::ModifyLoad<myLevelSearchViewLayer>::ModifyLoad(std::__ndk1::basic_string<char, std::__ndk1::char_traits<char>, std::__ndk1::allocator<char> >)::{lambda(cocos2d::CCNode*)#1}, std::__ndk1::allocator<AlphaUtils::ModifyLoad<myLevelSearchViewLayer>::ModifyLoad(std::__ndk1::basic_string<char, std::__ndk1::char_traits<char>, std::__ndk1::allocator<char> >)::{lambda(cocos2d::CCNode*)#1}>, void (cocos2d::CCNode*)>::target(std::type_info const&) const
PUBLIC 57f18 0 std::__ndk1::__function::__func<AlphaUtils::ModifyLoad<myLevelSearchViewLayer>::ModifyLoad(std::__ndk1::basic_string<char, std::__ndk1::char_traits<char>, std::__ndk1::allocator<char> >)::{lambda(cocos2d::CCNode*)#1}, std::__ndk1::allocator<AlphaUtils::ModifyLoad<myLevelSearchViewLayer>::ModifyLoad(std::__ndk1::basic_string<char, std::__ndk1::char_traits<char>, std::__ndk1::allocator<char> >)::{lambda(cocos2d::CCNode*)#1}>, void (cocos2d::CCNode*)>::target_type() const
PUBLIC 57f24 0 __cxx_global_var_init
PUBLIC 5809c 0 std::__ndk1::__function::__func<AlphaUtils::ModifyLoad<myRewardGroupLayer>::ModifyLoad(std::__ndk1::basic_string<char, std::__ndk1::char_traits<char>, std::__ndk1::allocator<char> >)::{lambda(cocos2d::CCNode*)#1}, std::__ndk1::allocator<AlphaUtils::ModifyLoad<myRewardGroupLayer>::ModifyLoad(std::__ndk1::basic_string<char, std::__ndk1::char_traits<char>, std::__ndk1::allocator<char> >)::{lambda(cocos2d::CCNode*)#1}>, void (cocos2d::CCNode*)>::~__func()
PUBLIC 580a0 0 std::__ndk1::__function::__func<AlphaUtils::ModifyLoad<myRewardGroupLayer>::ModifyLoad(std::__ndk1::basic_string<char, std::__ndk1::char_traits<char>, std::__ndk1::allocator<char> >)::{lambda(cocos2d::CCNode*)#1}, std::__ndk1::allocator<AlphaUtils::ModifyLoad<myRewardGroupLayer>::ModifyLoad(std::__ndk1::basic_string<char, std::__ndk1::char_traits<char>, std::__ndk1::allocator<char> >)::{lambda(cocos2d::CCNode*)#1}>, void (cocos2d::CCNode*)>::__clone() const
PUBLIC 580c4 0 std::__ndk1::__function::__func<AlphaUtils::ModifyLoad<myRewardGroupLayer>::ModifyLoad(std::__ndk1::basic_string<char, std::__ndk1::char_traits<char>, std::__ndk1::allocator<char> >)::{lambda(cocos2d::CCNode*)#1}, std::__ndk1::allocator<AlphaUtils::ModifyLoad<myRewardGroupLayer>::ModifyLoad(std::__ndk1::basic_string<char, std::__ndk1::char_traits<char>, std::__ndk1::allocator<char> >)::{lambda(cocos2d::CCNode*)#1}>, void (cocos2d::CCNode*)>::__clone(std::__ndk1::__function::__base<void (cocos2d::CCNode*)>*) const
PUBLIC 580d4 0 std::__ndk1::__function::__func<AlphaUtils::ModifyLoad<myRewardGroupLayer>::ModifyLoad(std::__ndk1::basic_string<char, std::__ndk1::char_traits<char>, std::__ndk1::allocator<char> >)::{lambda(cocos2d::CCNode*)#1}, std::__ndk1::allocator<AlphaUtils::ModifyLoad<myRewardGroupLayer>::ModifyLoad(std::__ndk1::basic_string<char, std::__ndk1::char_traits<char>, std::__ndk1::allocator<char> >)::{lambda(cocos2d::CCNode*)#1}>, void (cocos2d::CCNode*)>::destroy()
PUBLIC 580d8 0 std::__ndk1::__function::__func<AlphaUtils::ModifyLoad<myRewardGroupLayer>::ModifyLoad(std::__ndk1::basic_string<char, std::__ndk1::char_traits<char>, std::__ndk1::allocator<char> >)::{lambda(cocos2d::CCNode*)#1}, std::__ndk1::allocator<AlphaUtils::ModifyLoad<myRewardGroupLayer>::ModifyLoad(std::__ndk1::basic_string<char, std::__ndk1::char_traits<char>, std::__ndk1::allocator<char> >)::{lambda(cocos2d::CCNode*)#1}>, void (cocos2d::CCNode*)>::destroy_deallocate()
PUBLIC 580dc 0 std::__ndk1::__function::__func<AlphaUtils::ModifyLoad<myRewardGroupLayer>::ModifyLoad(std::__ndk1::basic_string<char, std::__ndk1::char_traits<char>, std::__ndk1::allocator<char> >)::{lambda(cocos2d::CCNode*)#1}, std::__ndk1::allocator<AlphaUtils::ModifyLoad<myRewardGroupLayer>::ModifyLoad(std::__ndk1::basic_string<char, std::__ndk1::char_traits<char>, std::__ndk1::allocator<char> >)::{lambda(cocos2d::CCNode*)#1}>, void (cocos2d::CCNode*)>::operator()(cocos2d::CCNode*&&)
PUBLIC 581b4 0 std::__ndk1::__function::__func<AlphaUtils::ModifyLoad<myRewardGroupLayer>::ModifyLoad(std::__ndk1::basic_string<char, std::__ndk1::char_traits<char>, std::__ndk1::allocator<char> >)::{lambda(cocos2d::CCNode*)#1}, std::__ndk1::allocator<AlphaUtils::ModifyLoad<myRewardGroupLayer>::ModifyLoad(std::__ndk1::basic_string<char, std::__ndk1::char_traits<char>, std::__ndk1::allocator<char> >)::{lambda(cocos2d::CCNode*)#1}>, void (cocos2d::CCNode*)>::target(std::type_info const&) const
PUBLIC 581d0 0 std::__ndk1::__function::__func<AlphaUtils::ModifyLoad<myRewardGroupLayer>::ModifyLoad(std::__ndk1::basic_string<char, std::__ndk1::char_traits<char>, std::__ndk1::allocator<char> >)::{lambda(cocos2d::CCNode*)#1}, std::__ndk1::allocator<AlphaUtils::ModifyLoad<myRewardGroupLayer>::ModifyLoad(std::__ndk1::basic_string<char, std::__ndk1::char_traits<char>, std::__ndk1::allocator<char> >)::{lambda(cocos2d::CCNode*)#1}>, void (cocos2d::CCNode*)>::target_type() const
PUBLIC 581dc 0 __cxx_global_var_init
PUBLIC 58350 0 std::__ndk1::__function::__func<AlphaUtils::ModifyLoad<myRewardViewLayer>::ModifyLoad(std::__ndk1::basic_string<char, std::__ndk1::char_traits<char>, std::__ndk1::allocator<char> >)::{lambda(cocos2d::CCNode*)#1}, std::__ndk1::allocator<AlphaUtils::ModifyLoad<myRewardViewLayer>::ModifyLoad(std::__ndk1::basic_string<char, std::__ndk1::char_traits<char>, std::__ndk1::allocator<char> >)::{lambda(cocos2d::CCNode*)#1}>, void (cocos2d::CCNode*)>::~__func()
PUBLIC 58354 0 std::__ndk1::__function::__func<AlphaUtils::ModifyLoad<myRewardViewLayer>::ModifyLoad(std::__ndk1::basic_string<char, std::__ndk1::char_traits<char>, std::__ndk1::allocator<char> >)::{lambda(cocos2d::CCNode*)#1}, std::__ndk1::allocator<AlphaUtils::ModifyLoad<myRewardViewLayer>::ModifyLoad(std::__ndk1::basic_string<char, std::__ndk1::char_traits<char>, std::__ndk1::allocator<char> >)::{lambda(cocos2d::CCNode*)#1}>, void (cocos2d::CCNode*)>::__clone() const
PUBLIC 58378 0 std::__ndk1::__function::__func<AlphaUtils::ModifyLoad<myRewardViewLayer>::ModifyLoad(std::__ndk1::basic_string<char, std::__ndk1::char_traits<char>, std::__ndk1::allocator<char> >)::{lambda(cocos2d::CCNode*)#1}, std::__ndk1::allocator<AlphaUtils::ModifyLoad<myRewardViewLayer>::ModifyLoad(std::__ndk1::basic_string<char, std::__ndk1::char_traits<char>, std::__ndk1::allocator<char> >)::{lambda(cocos2d::CCNode*)#1}>, void (cocos2d::CCNode*)>::__clone(std::__ndk1::__function::__base<void (cocos2d::CCNode*)>*) const
PUBLIC 58388 0 std::__ndk1::__function::__func<AlphaUtils::ModifyLoad<myRewardViewLayer>::ModifyLoad(std::__ndk1::basic_string<char, std::__ndk1::char_traits<char>, std::__ndk1::allocator<char> >)::{lambda(cocos2d::CCNode*)#1}, std::__ndk1::allocator<AlphaUtils::ModifyLoad<myRewardViewLayer>::ModifyLoad(std::__ndk1::basic_string<char, std::__ndk1::char_traits<char>, std::__ndk1::allocator<char> >)::{lambda(cocos2d::CCNode*)#1}>, void (cocos2d::CCNode*)>::destroy()
PUBLIC 5838c 0 std::__ndk1::__function::__func<AlphaUtils::ModifyLoad<myRewardViewLayer>::ModifyLoad(std::__ndk1::basic_string<char, std::__ndk1::char_traits<char>, std::__ndk1::allocator<char> >)::{lambda(cocos2d::CCNode*)#1}, std::__ndk1::allocator<AlphaUtils::ModifyLoad<myRewardViewLayer>::ModifyLoad(std::__ndk1::basic_string<char, std::__ndk1::char_traits<char>, std::__ndk1::allocator<char> >)::{lambda(cocos2d::CCNode*)#1}>, void (cocos2d::CCNode*)>::destroy_deallocate()
PUBLIC 58390 0 std::__ndk1::__function::__func<AlphaUtils::ModifyLoad<myRewardViewLayer>::ModifyLoad(std::__ndk1::basic_string<char, std::__ndk1::char_traits<char>, std::__ndk1::allocator<char> >)::{lambda(cocos2d::CCNode*)#1}, std::__ndk1::allocator<AlphaUtils::ModifyLoad<myRewardViewLayer>::ModifyLoad(std::__ndk1::basic_string<char, std::__ndk1::char_traits<char>, std::__ndk1::allocator<char> >)::{lambda(cocos2d::CCNode*)#1}>, void (cocos2d::CCNode*)>::operator()(cocos2d::CCNode*&&)
PUBLIC 58468 0 std::__ndk1::__function::__func<AlphaUtils::ModifyLoad<myRewardViewLayer>::ModifyLoad(std::__ndk1::basic_string<char, std::__ndk1::char_traits<char>, std::__ndk1::allocator<char> >)::{lambda(cocos2d::CCNode*)#1}, std::__ndk1::allocator<AlphaUtils::ModifyLoad<myRewardViewLayer>::ModifyLoad(std::__ndk1::basic_string<char, std::__ndk1::char_traits<char>, std::__ndk1::allocator<char> >)::{lambda(cocos2d::CCNode*)#1}>, void (cocos2d::CCNode*)>::target(std::type_info const&) const
PUBLIC 58484 0 std::__ndk1::__function::__func<AlphaUtils::ModifyLoad<myRewardViewLayer>::ModifyLoad(std::__ndk1::basic_string<char, std::__ndk1::char_traits<char>, std::__ndk1::allocator<char> >)::{lambda(cocos2d::CCNode*)#1}, std::__ndk1::allocator<AlphaUtils::ModifyLoad<myRewardViewLayer>::ModifyLoad(std::__ndk1::basic_string<char, std::__ndk1::char_traits<char>, std::__ndk1::allocator<char> >)::{lambda(cocos2d::CCNode*)#1}>, void (cocos2d::CCNode*)>::target_type() const
PUBLIC 58490 0 __cxx_global_var_init
PUBLIC 58610 0 std::__ndk1::__function::__func<AlphaUtils::ModifyLoad<myGlobedLevelListLayer>::ModifyLoad(std::__ndk1::basic_string<char, std::__ndk1::char_traits<char>, std::__ndk1::allocator<char> >)::{lambda(cocos2d::CCNode*)#1}, std::__ndk1::allocator<AlphaUtils::ModifyLoad<myGlobedLevelListLayer>::ModifyLoad(std::__ndk1::basic_string<char, std::__ndk1::char_traits<char>, std::__ndk1::allocator<char> >)::{lambda(cocos2d::CCNode*)#1}>, void (cocos2d::CCNode*)>::~__func()
PUBLIC 58614 0 std::__ndk1::__function::__func<AlphaUtils::ModifyLoad<myGlobedLevelListLayer>::ModifyLoad(std::__ndk1::basic_string<char, std::__ndk1::char_traits<char>, std::__ndk1::allocator<char> >)::{lambda(cocos2d::CCNode*)#1}, std::__ndk1::allocator<AlphaUtils::ModifyLoad<myGlobedLevelListLayer>::ModifyLoad(std::__ndk1::basic_string<char, std::__ndk1::char_traits<char>, std::__ndk1::allocator<char> >)::{lambda(cocos2d::CCNode*)#1}>, void (cocos2d::CCNode*)>::__clone() const
PUBLIC 58638 0 std::__ndk1::__function::__func<AlphaUtils::ModifyLoad<myGlobedLevelListLayer>::ModifyLoad(std::__ndk1::basic_string<char, std::__ndk1::char_traits<char>, std::__ndk1::allocator<char> >)::{lambda(cocos2d::CCNode*)#1}, std::__ndk1::allocator<AlphaUtils::ModifyLoad<myGlobedLevelListLayer>::ModifyLoad(std::__ndk1::basic_string<char, std::__ndk1::char_traits<char>, std::__ndk1::allocator<char> >)::{lambda(cocos2d::CCNode*)#1}>, void (cocos2d::CCNode*)>::__clone(std::__ndk1::__function::__base<void (cocos2d::CCNode*)>*) const
PUBLIC 58648 0 std::__ndk1::__function::__func<AlphaUtils::ModifyLoad<myGlobedLevelListLayer>::ModifyLoad(std::__ndk1::basic_string<char, std::__ndk1::char_traits<char>, std::__ndk1::allocator<char> >)::{lambda(cocos2d::CCNode*)#1}, std::__ndk1::allocator<AlphaUtils::ModifyLoad<myGlobedLevelListLayer>::ModifyLoad(std::__ndk1::basic_string<char, std::__ndk1::char_traits<char>, std::__ndk1::allocator<char> >)::{lambda(cocos2d::CCNode*)#1}>, void (cocos2d::CCNode*)>::destroy()
PUBLIC 5864c 0 std::__ndk1::__function::__func<AlphaUtils::ModifyLoad<myGlobedLevelListLayer>::ModifyLoad(std::__ndk1::basic_string<char, std::__ndk1::char_traits<char>, std::__ndk1::allocator<char> >)::{lambda(cocos2d::CCNode*)#1}, std::__ndk1::allocator<AlphaUtils::ModifyLoad<myGlobedLevelListLayer>::ModifyLoad(std::__ndk1::basic_string<char, std::__ndk1::char_traits<char>, std::__ndk1::allocator<char> >)::{lambda(cocos2d::CCNode*)#1}>, void (cocos2d::CCNode*)>::destroy_deallocate()
PUBLIC 58650 0 std::__ndk1::__function::__func<AlphaUtils::ModifyLoad<myGlobedLevelListLayer>::ModifyLoad(std::__ndk1::basic_string<char, std::__ndk1::char_traits<char>, std::__ndk1::allocator<char> >)::{lambda(cocos2d::CCNode*)#1}, std::__ndk1::allocator<AlphaUtils::ModifyLoad<myGlobedLevelListLayer>::ModifyLoad(std::__ndk1::basic_string<char, std::__ndk1::char_traits<char>, std::__ndk1::allocator<char> >)::{lambda(cocos2d::CCNode*)#1}>, void (cocos2d::CCNode*)>::operator()(cocos2d::CCNode*&&)
PUBLIC 58728 0 std::__ndk1::__function::__func<AlphaUtils::ModifyLoad<myGlobedLevelListLayer>::ModifyLoad(std::__ndk1::basic_string<char, std::__ndk1::char_traits<char>, std::__ndk1::allocator<char> >)::{lambda(cocos2d::CCNode*)#1}, std::__ndk1::allocator<AlphaUtils::ModifyLoad<myGlobedLevelListLayer>::ModifyLoad(std::__ndk1::basic_string<char, std::__ndk1::char_traits<char>, std::__ndk1::allocator<char> >)::{lambda(cocos2d::CCNode*)#1}>, void (cocos2d::CCNode*)>::target(std::type_info const&) const
PUBLIC 58744 0 std::__ndk1::__function::__func<AlphaUtils::ModifyLoad<myGlobedLevelListLayer>::ModifyLoad(std::__ndk1::basic_string<char, std::__ndk1::char_traits<char>, std::__ndk1::allocator<char> >)::{lambda(cocos2d::CCNode*)#1}, std::__ndk1::allocator<AlphaUtils::ModifyLoad<myGlobedLevelListLayer>::ModifyLoad(std::__ndk1::basic_string<char, std::__ndk1::char_traits<char>, std::__ndk1::allocator<char> >)::{lambda(cocos2d::CCNode*)#1}>, void (cocos2d::CCNode*)>::target_type() const
PUBLIC 58750 0 __cxx_global_var_init
PUBLIC 588c4 0 std::__ndk1::__function::__func<AlphaUtils::ModifyLoad<myGlobedMenuLayer>::ModifyLoad(std::__ndk1::basic_string<char, std::__ndk1::char_traits<char>, std::__ndk1::allocator<char> >)::{lambda(cocos2d::CCNode*)#1}, std::__ndk1::allocator<AlphaUtils::ModifyLoad<myGlobedMenuLayer>::ModifyLoad(std::__ndk1::basic_string<char, std::__ndk1::char_traits<char>, std::__ndk1::allocator<char> >)::{lambda(cocos2d::CCNode*)#1}>, void (cocos2d::CCNode*)>::~__func()
PUBLIC 588c8 0 std::__ndk1::__function::__func<AlphaUtils::ModifyLoad<myGlobedMenuLayer>::ModifyLoad(std::__ndk1::basic_string<char, std::__ndk1::char_traits<char>, std::__ndk1::allocator<char> >)::{lambda(cocos2d::CCNode*)#1}, std::__ndk1::allocator<AlphaUtils::ModifyLoad<myGlobedMenuLayer>::ModifyLoad(std::__ndk1::basic_string<char, std::__ndk1::char_traits<char>, std::__ndk1::allocator<char> >)::{lambda(cocos2d::CCNode*)#1}>, void (cocos2d::CCNode*)>::__clone() const
PUBLIC 588ec 0 std::__ndk1::__function::__func<AlphaUtils::ModifyLoad<myGlobedMenuLayer>::ModifyLoad(std::__ndk1::basic_string<char, std::__ndk1::char_traits<char>, std::__ndk1::allocator<char> >)::{lambda(cocos2d::CCNode*)#1}, std::__ndk1::allocator<AlphaUtils::ModifyLoad<myGlobedMenuLayer>::ModifyLoad(std::__ndk1::basic_string<char, std::__ndk1::char_traits<char>, std::__ndk1::allocator<char> >)::{lambda(cocos2d::CCNode*)#1}>, void (cocos2d::CCNode*)>::__clone(std::__ndk1::__function::__base<void (cocos2d::CCNode*)>*) const
PUBLIC 588fc 0 std::__ndk1::__function::__func<AlphaUtils::ModifyLoad<myGlobedMenuLayer>::ModifyLoad(std::__ndk1::basic_string<char, std::__ndk1::char_traits<char>, std::__ndk1::allocator<char> >)::{lambda(cocos2d::CCNode*)#1}, std::__ndk1::allocator<AlphaUtils::ModifyLoad<myGlobedMenuLayer>::ModifyLoad(std::__ndk1::basic_string<char, std::__ndk1::char_traits<char>, std::__ndk1::allocator<char> >)::{lambda(cocos2d::CCNode*)#1}>, void (cocos2d::CCNode*)>::destroy()
PUBLIC 58900 0 std::__ndk1::__function::__func<AlphaUtils::ModifyLoad<myGlobedMenuLayer>::ModifyLoad(std::__ndk1::basic_string<char, std::__ndk1::char_traits<char>, std::__ndk1::allocator<char> >)::{lambda(cocos2d::CCNode*)#1}, std::__ndk1::allocator<AlphaUtils::ModifyLoad<myGlobedMenuLayer>::ModifyLoad(std::__ndk1::basic_string<char, std::__ndk1::char_traits<char>, std::__ndk1::allocator<char> >)::{lambda(cocos2d::CCNode*)#1}>, void (cocos2d::CCNode*)>::destroy_deallocate()
PUBLIC 58904 0 std::__ndk1::__function::__func<AlphaUtils::ModifyLoad<myGlobedMenuLayer>::ModifyLoad(std::__ndk1::basic_string<char, std::__ndk1::char_traits<char>, std::__ndk1::allocator<char> >)::{lambda(cocos2d::CCNode*)#1}, std::__ndk1::allocator<AlphaUtils::ModifyLoad<myGlobedMenuLayer>::ModifyLoad(std::__ndk1::basic_string<char, std::__ndk1::char_traits<char>, std::__ndk1::allocator<char> >)::{lambda(cocos2d::CCNode*)#1}>, void (cocos2d::CCNode*)>::operator()(cocos2d::CCNode*&&)
PUBLIC 589dc 0 std::__ndk1::__function::__func<AlphaUtils::ModifyLoad<myGlobedMenuLayer>::ModifyLoad(std::__ndk1::basic_string<char, std::__ndk1::char_traits<char>, std::__ndk1::allocator<char> >)::{lambda(cocos2d::CCNode*)#1}, std::__ndk1::allocator<AlphaUtils::ModifyLoad<myGlobedMenuLayer>::ModifyLoad(std::__ndk1::basic_string<char, std::__ndk1::char_traits<char>, std::__ndk1::allocator<char> >)::{lambda(cocos2d::CCNode*)#1}>, void (cocos2d::CCNode*)>::target(std::type_info const&) const
PUBLIC 589f8 0 std::__ndk1::__function::__func<AlphaUtils::ModifyLoad<myGlobedMenuLayer>::ModifyLoad(std::__ndk1::basic_string<char, std::__ndk1::char_traits<char>, std::__ndk1::allocator<char> >)::{lambda(cocos2d::CCNode*)#1}, std::__ndk1::allocator<AlphaUtils::ModifyLoad<myGlobedMenuLayer>::ModifyLoad(std::__ndk1::basic_string<char, std::__ndk1::char_traits<char>, std::__ndk1::allocator<char> >)::{lambda(cocos2d::CCNode*)#1}>, void (cocos2d::CCNode*)>::target_type() const
PUBLIC 58a04 0 __cxx_global_var_init
PUBLIC 58b80 0 std::__ndk1::__function::__func<AlphaUtils::ModifyLoad<myGlobedServersLayer>::ModifyLoad(std::__ndk1::basic_string<char, std::__ndk1::char_traits<char>, std::__ndk1::allocator<char> >)::{lambda(cocos2d::CCNode*)#1}, std::__ndk1::allocator<AlphaUtils::ModifyLoad<myGlobedServersLayer>::ModifyLoad(std::__ndk1::basic_string<char, std::__ndk1::char_traits<char>, std::__ndk1::allocator<char> >)::{lambda(cocos2d::CCNode*)#1}>, void (cocos2d::CCNode*)>::~__func()
PUBLIC 58b84 0 std::__ndk1::__function::__func<AlphaUtils::ModifyLoad<myGlobedServersLayer>::ModifyLoad(std::__ndk1::basic_string<char, std::__ndk1::char_traits<char>, std::__ndk1::allocator<char> >)::{lambda(cocos2d::CCNode*)#1}, std::__ndk1::allocator<AlphaUtils::ModifyLoad<myGlobedServersLayer>::ModifyLoad(std::__ndk1::basic_string<char, std::__ndk1::char_traits<char>, std::__ndk1::allocator<char> >)::{lambda(cocos2d::CCNode*)#1}>, void (cocos2d::CCNode*)>::__clone() const
PUBLIC 58ba8 0 std::__ndk1::__function::__func<AlphaUtils::ModifyLoad<myGlobedServersLayer>::ModifyLoad(std::__ndk1::basic_string<char, std::__ndk1::char_traits<char>, std::__ndk1::allocator<char> >)::{lambda(cocos2d::CCNode*)#1}, std::__ndk1::allocator<AlphaUtils::ModifyLoad<myGlobedServersLayer>::ModifyLoad(std::__ndk1::basic_string<char, std::__ndk1::char_traits<char>, std::__ndk1::allocator<char> >)::{lambda(cocos2d::CCNode*)#1}>, void (cocos2d::CCNode*)>::__clone(std::__ndk1::__function::__base<void (cocos2d::CCNode*)>*) const
PUBLIC 58bb8 0 std::__ndk1::__function::__func<AlphaUtils::ModifyLoad<myGlobedServersLayer>::ModifyLoad(std::__ndk1::basic_string<char, std::__ndk1::char_traits<char>, std::__ndk1::allocator<char> >)::{lambda(cocos2d::CCNode*)#1}, std::__ndk1::allocator<AlphaUtils::ModifyLoad<myGlobedServersLayer>::ModifyLoad(std::__ndk1::basic_string<char, std::__ndk1::char_traits<char>, std::__ndk1::allocator<char> >)::{lambda(cocos2d::CCNode*)#1}>, void (cocos2d::CCNode*)>::destroy()
PUBLIC 58bbc 0 std::__ndk1::__function::__func<AlphaUtils::ModifyLoad<myGlobedServersLayer>::ModifyLoad(std::__ndk1::basic_string<char, std::__ndk1::char_traits<char>, std::__ndk1::allocator<char> >)::{lambda(cocos2d::CCNode*)#1}, std::__ndk1::allocator<AlphaUtils::ModifyLoad<myGlobedServersLayer>::ModifyLoad(std::__ndk1::basic_string<char, std::__ndk1::char_traits<char>, std::__ndk1::allocator<char> >)::{lambda(cocos2d::CCNode*)#1}>, void (cocos2d::CCNode*)>::destroy_deallocate()
PUBLIC 58bc0 0 std::__ndk1::__function::__func<AlphaUtils::ModifyLoad<myGlobedServersLayer>::ModifyLoad(std::__ndk1::basic_string<char, std::__ndk1::char_traits<char>, std::__ndk1::allocator<char> >)::{lambda(cocos2d::CCNode*)#1}, std::__ndk1::allocator<AlphaUtils::ModifyLoad<myGlobedServersLayer>::ModifyLoad(std::__ndk1::basic_string<char, std::__ndk1::char_traits<char>, std::__ndk1::allocator<char> >)::{lambda(cocos2d::CCNode*)#1}>, void (cocos2d::CCNode*)>::operator()(cocos2d::CCNode*&&)
PUBLIC 58c98 0 std::__ndk1::__function::__func<AlphaUtils::ModifyLoad<myGlobedServersLayer>::ModifyLoad(std::__ndk1::basic_string<char, std::__ndk1::char_traits<char>, std::__ndk1::allocator<char> >)::{lambda(cocos2d::CCNode*)#1}, std::__ndk1::allocator<AlphaUtils::ModifyLoad<myGlobedServersLayer>::ModifyLoad(std::__ndk1::basic_string<char, std::__ndk1::char_traits<char>, std::__ndk1::allocator<char> >)::{lambda(cocos2d::CCNode*)#1}>, void (cocos2d::CCNode*)>::target(std::type_info const&) const
PUBLIC 58cb4 0 std::__ndk1::__function::__func<AlphaUtils::ModifyLoad<myGlobedServersLayer>::ModifyLoad(std::__ndk1::basic_string<char, std::__ndk1::char_traits<char>, std::__ndk1::allocator<char> >)::{lambda(cocos2d::CCNode*)#1}, std::__ndk1::allocator<AlphaUtils::ModifyLoad<myGlobedServersLayer>::ModifyLoad(std::__ndk1::basic_string<char, std::__ndk1::char_traits<char>, std::__ndk1::allocator<char> >)::{lambda(cocos2d::CCNode*)#1}>, void (cocos2d::CCNode*)>::target_type() const
PUBLIC 58cc0 0 __cxx_global_var_init
PUBLIC 58e3c 0 std::__ndk1::__function::__func<AlphaUtils::ModifyLoad<myGlobedSettingsLayer>::ModifyLoad(std::__ndk1::basic_string<char, std::__ndk1::char_traits<char>, std::__ndk1::allocator<char> >)::{lambda(cocos2d::CCNode*)#1}, std::__ndk1::allocator<AlphaUtils::ModifyLoad<myGlobedSettingsLayer>::ModifyLoad(std::__ndk1::basic_string<char, std::__ndk1::char_traits<char>, std::__ndk1::allocator<char> >)::{lambda(cocos2d::CCNode*)#1}>, void (cocos2d::CCNode*)>::~__func()
PUBLIC 58e40 0 std::__ndk1::__function::__func<AlphaUtils::ModifyLoad<myGlobedSettingsLayer>::ModifyLoad(std::__ndk1::basic_string<char, std::__ndk1::char_traits<char>, std::__ndk1::allocator<char> >)::{lambda(cocos2d::CCNode*)#1}, std::__ndk1::allocator<AlphaUtils::ModifyLoad<myGlobedSettingsLayer>::ModifyLoad(std::__ndk1::basic_string<char, std::__ndk1::char_traits<char>, std::__ndk1::allocator<char> >)::{lambda(cocos2d::CCNode*)#1}>, void (cocos2d::CCNode*)>::__clone() const
PUBLIC 58e64 0 std::__ndk1::__function::__func<AlphaUtils::ModifyLoad<myGlobedSettingsLayer>::ModifyLoad(std::__ndk1::basic_string<char, std::__ndk1::char_traits<char>, std::__ndk1::allocator<char> >)::{lambda(cocos2d::CCNode*)#1}, std::__ndk1::allocator<AlphaUtils::ModifyLoad<myGlobedSettingsLayer>::ModifyLoad(std::__ndk1::basic_string<char, std::__ndk1::char_traits<char>, std::__ndk1::allocator<char> >)::{lambda(cocos2d::CCNode*)#1}>, void (cocos2d::CCNode*)>::__clone(std::__ndk1::__function::__base<void (cocos2d::CCNode*)>*) const
PUBLIC 58e74 0 std::__ndk1::__function::__func<AlphaUtils::ModifyLoad<myGlobedSettingsLayer>::ModifyLoad(std::__ndk1::basic_string<char, std::__ndk1::char_traits<char>, std::__ndk1::allocator<char> >)::{lambda(cocos2d::CCNode*)#1}, std::__ndk1::allocator<AlphaUtils::ModifyLoad<myGlobedSettingsLayer>::ModifyLoad(std::__ndk1::basic_string<char, std::__ndk1::char_traits<char>, std::__ndk1::allocator<char> >)::{lambda(cocos2d::CCNode*)#1}>, void (cocos2d::CCNode*)>::destroy()
PUBLIC 58e78 0 std::__ndk1::__function::__func<AlphaUtils::ModifyLoad<myGlobedSettingsLayer>::ModifyLoad(std::__ndk1::basic_string<char, std::__ndk1::char_traits<char>, std::__ndk1::allocator<char> >)::{lambda(cocos2d::CCNode*)#1}, std::__ndk1::allocator<AlphaUtils::ModifyLoad<myGlobedSettingsLayer>::ModifyLoad(std::__ndk1::basic_string<char, std::__ndk1::char_traits<char>, std::__ndk1::allocator<char> >)::{lambda(cocos2d::CCNode*)#1}>, void (cocos2d::CCNode*)>::destroy_deallocate()
PUBLIC 58e7c 0 std::__ndk1::__function::__func<AlphaUtils::ModifyLoad<myGlobedSettingsLayer>::ModifyLoad(std::__ndk1::basic_string<char, std::__ndk1::char_traits<char>, std::__ndk1::allocator<char> >)::{lambda(cocos2d::CCNode*)#1}, std::__ndk1::allocator<AlphaUtils::ModifyLoad<myGlobedSettingsLayer>::ModifyLoad(std::__ndk1::basic_string<char, std::__ndk1::char_traits<char>, std::__ndk1::allocator<char> >)::{lambda(cocos2d::CCNode*)#1}>, void (cocos2d::CCNode*)>::operator()(cocos2d::CCNode*&&)
PUBLIC 58f54 0 std::__ndk1::__function::__func<AlphaUtils::ModifyLoad<myGlobedSettingsLayer>::ModifyLoad(std::__ndk1::basic_string<char, std::__ndk1::char_traits<char>, std::__ndk1::allocator<char> >)::{lambda(cocos2d::CCNode*)#1}, std::__ndk1::allocator<AlphaUtils::ModifyLoad<myGlobedSettingsLayer>::ModifyLoad(std::__ndk1::basic_string<char, std::__ndk1::char_traits<char>, std::__ndk1::allocator<char> >)::{lambda(cocos2d::CCNode*)#1}>, void (cocos2d::CCNode*)>::target(std::type_info const&) const
PUBLIC 58f70 0 std::__ndk1::__function::__func<AlphaUtils::ModifyLoad<myGlobedSettingsLayer>::ModifyLoad(std::__ndk1::basic_string<char, std::__ndk1::char_traits<char>, std::__ndk1::allocator<char> >)::{lambda(cocos2d::CCNode*)#1}, std::__ndk1::allocator<AlphaUtils::ModifyLoad<myGlobedSettingsLayer>::ModifyLoad(std::__ndk1::basic_string<char, std::__ndk1::char_traits<char>, std::__ndk1::allocator<char> >)::{lambda(cocos2d::CCNode*)#1}>, void (cocos2d::CCNode*)>::target_type() const
PUBLIC 58f7c 0 __cxx_global_var_init
PUBLIC 593ec 0 geode::modifier::ModifyBase<geode::modifier::ModifyDerive<MyCreatorLayer, CreatorLayer> >::~ModifyBase()
PUBLIC 59408 0 geode::modifier::ModifyDerive<MyCreatorLayer, CreatorLayer>::apply()
PUBLIC 59708 0 std::__ndk1::shared_ptr<geode::Hook>::~shared_ptr[abi:ne190000]()
PUBLIC 59758 0 geode::impl::ResultData<geode::Hook*, std::__ndk1::basic_string<char, std::__ndk1::char_traits<char>, std::__ndk1::allocator<char> > >::~ResultData()
PUBLIC 597cc 0 geode::modifier::ModifyBase<geode::modifier::ModifyDerive<MyCreatorLayer, CreatorLayer> >::apply()
PUBLIC 597d0 0 _ZN5geode15UnwrapExceptionC2IRPNS_4HookEQsr4implE18IsStringStreamableIT_EEENS_4impl5OkTagEOS5_
PUBLIC 59924 0 std::__ndk1::basic_stringstream<char, std::__ndk1::char_traits<char>, std::__ndk1::allocator<char> >::basic_stringstream[abi:ne190000]()
PUBLIC m 59a58 0 std::__ndk1::basic_stringstream<char, std::__ndk1::char_traits<char>, std::__ndk1::allocator<char> >::~basic_stringstream()
PUBLIC 59ad8 0 geode::UnwrapException::~UnwrapException()
PUBLIC 59afc 0 std::__ndk1::__put_character_sequence[abi:ne190000]<char, std::__ndk1::char_traits<char> >(std::__ndk1::basic_ostream<char, std::__ndk1::char_traits<char> >, std::__ndk1::basic_ostream const*, unsigned long)
PUBLIC 59ca0 0 std::__ndk1::__pad_and_output[abi:ne190000]<char, std::__ndk1::char_traits<char> >(std::__ndk1::char_traits<char>, std::__ndk1::ostreambuf_iterator const*, std::__ndk1::ostreambuf_iterator const, std::__ndk1::ostreambuf_iterator const, std::__ndk1::ios_base&, std::__ndk1::ostreambuf_iterator)
PUBLIC 59e8c 0 std::__ndk1::basic_stringbuf<char, std::__ndk1::char_traits<char>, std::__ndk1::allocator<char> >::str[abi:ne190000]() &&
PUBLIC 59ffc 0 std::__ndk1::basic_stringbuf<char, std::__ndk1::char_traits<char>, std::__ndk1::allocator<char> >::__init_buf_ptrs[abi:ne190000]()
PUBLIC 5a144 0 std::__ndk1::basic_string<char, std::__ndk1::char_traits<char>, std::__ndk1::allocator<char> >::__erase_external_with_move(unsigned long, unsigned long)
PUBLIC 5a1cc 0 std::__ndk1::vector<std::__ndk1::basic_string<char, std::__ndk1::char_traits<char>, std::__ndk1::allocator<char> >, std::__ndk1::allocator<std::__ndk1::basic_string<char, std::__ndk1::char_traits<char>, std::__ndk1::allocator<char> > > >::__push_back_slow_path<std::__ndk1::basic_string<char, std::__ndk1::char_traits<char>, std::__ndk1::allocator<char> > const&>(std::__ndk1::basic_string<char, std::__ndk1::char_traits<char>, std::__ndk1::allocator<char> > const&)
PUBLIC 5a37c 0 std::__ndk1::__split_buffer<std::__ndk1::basic_string<char, std::__ndk1::char_traits<char>, std::__ndk1::allocator<char> >, std::__ndk1::allocator<std::__ndk1::basic_string<char, std::__ndk1::char_traits<char>, std::__ndk1::allocator<char> > >&>::~__split_buffer()
PUBLIC 5a3e4 0 std::__ndk1::vector<std::__ndk1::basic_string<char, std::__ndk1::char_traits<char>, std::__ndk1::allocator<char> >, std::__ndk1::allocator<std::__ndk1::basic_string<char, std::__ndk1::char_traits<char>, std::__ndk1::allocator<char> > > >::__throw_length_error[abi:ne190000]() const
PUBLIC 5a3f8 0 std::__ndk1::__variant_detail::__visitation::__base::__dispatcher<(unsigned long)0>::__dispatch[abi:ne190000]<std::__ndk1::__variant_detail::__dtor<std::__ndk1::__variant_detail::__traits<geode::Hook*, std::__ndk1::basic_string<char, std::__ndk1::char_traits<char>, std::__ndk1::allocator<char> > >, (std::__ndk1::__variant_detail::_Trait)1>::__destroy[abi:ne190000]()::{lambda(auto:1&)#1}, std::__ndk1::__variant_detail::__base<(std::__ndk1::__variant_detail::__traits<geode::Hook*, std::__ndk1::basic_string<char, std::__ndk1::char_traits<char>, std::__ndk1::allocator<char> > >)1, geode::Hook, std::__ndk1::allocator<char> >&>(std::__ndk1::__variant_detail::__dtor<std::__ndk1::__variant_detail::__traits<geode::Hook*, std::__ndk1::basic_string<char, std::__ndk1::char_traits<char>, std::__ndk1::allocator<char> > >, (std::__ndk1::__variant_detail::_Trait)1>, std::__ndk1::__variant_detail::__base<(std::__ndk1::__variant_detail::__traits<geode::Hook*, std::__ndk1::basic_string<char, std::__ndk1::char_traits<char>, std::__ndk1::allocator<char> > >)1, geode::Hook, std::__ndk1::allocator<char> >&)
PUBLIC 5a3fc 0 std::__ndk1::__variant_detail::__visitation::__base::__dispatcher<(unsigned long)1>::__dispatch[abi:ne190000]<std::__ndk1::__variant_detail::__dtor<std::__ndk1::__variant_detail::__traits<geode::Hook*, std::__ndk1::basic_string<char, std::__ndk1::char_traits<char>, std::__ndk1::allocator<char> > >, (std::__ndk1::__variant_detail::_Trait)1>::__destroy[abi:ne190000]()::{lambda(auto:1&)#1}, std::__ndk1::__variant_detail::__base<(std::__ndk1::__variant_detail::__traits<geode::Hook*, std::__ndk1::basic_string<char, std::__ndk1::char_traits<char>, std::__ndk1::allocator<char> > >)1, geode::Hook, std::__ndk1::allocator<char> >&>(std::__ndk1::__variant_detail::__dtor<std::__ndk1::__variant_detail::__traits<geode::Hook*, std::__ndk1::basic_string<char, std::__ndk1::char_traits<char>, std::__ndk1::allocator<char> > >, (std::__ndk1::__variant_detail::_Trait)1>, std::__ndk1::__variant_detail::__base<(std::__ndk1::__variant_detail::__traits<geode::Hook*, std::__ndk1::basic_string<char, std::__ndk1::char_traits<char>, std::__ndk1::allocator<char> > >)1, geode::Hook, std::__ndk1::allocator<char> >&)
PUBLIC 5a410 0 std::__ndk1::__tree<std::__ndk1::__value_type<std::__ndk1::basic_string<char, std::__ndk1::char_traits<char>, std::__ndk1::allocator<char> >, std::__ndk1::shared_ptr<geode::Hook> >, std::__ndk1::__map_value_compare<std::__ndk1::basic_string<char, std::__ndk1::char_traits<char>, std::__ndk1::allocator<char> >, std::__ndk1::__value_type<std::__ndk1::basic_string<char, std::__ndk1::char_traits<char>, std::__ndk1::allocator<char> >, std::__ndk1::shared_ptr<geode::Hook> >, std::__ndk1::less<std::__ndk1::basic_string<char, std::__ndk1::char_traits<char>, std::__ndk1::allocator<char> > >, true>, std::__ndk1::allocator<std::__ndk1::__value_type<std::__ndk1::basic_string<char, std::__ndk1::char_traits<char>, std::__ndk1::allocator<char> >, std::__ndk1::shared_ptr<geode::Hook> > > >::find<std::__ndk1::basic_string<char, std::__ndk1::char_traits<char>, std::__ndk1::allocator<char> > >(std::__ndk1::basic_string<char, std::__ndk1::char_traits<char>, std::__ndk1::allocator<char> > const&)
PUBLIC 5a538 0 std::__ndk1::__tree<std::__ndk1::__value_type<std::__ndk1::basic_string<char, std::__ndk1::char_traits<char>, std::__ndk1::allocator<char> >, std::__ndk1::shared_ptr<geode::Hook> >, std::__ndk1::__map_value_compare<std::__ndk1::basic_string<char, std::__ndk1::char_traits<char>, std::__ndk1::allocator<char> >, std::__ndk1::__value_type<std::__ndk1::basic_string<char, std::__ndk1::char_traits<char>, std::__ndk1::allocator<char> >, std::__ndk1::shared_ptr<geode::Hook> >, std::__ndk1::less<std::__ndk1::basic_string<char, std::__ndk1::char_traits<char>, std::__ndk1::allocator<char> > >, true>, std::__ndk1::allocator<std::__ndk1::__value_type<std::__ndk1::basic_string<char, std::__ndk1::char_traits<char>, std::__ndk1::allocator<char> >, std::__ndk1::shared_ptr<geode::Hook> > > >::erase(std::__ndk1::__tree_const_iterator<std::__ndk1::__value_type<std::__ndk1::basic_string<char, std::__ndk1::char_traits<char>, std::__ndk1::allocator<char> >, std::__ndk1::shared_ptr<geode::Hook> >, std::__ndk1::__tree_node<std::__ndk1::__value_type<std::__ndk1::basic_string<char, std::__ndk1::char_traits<char>, std::__ndk1::allocator<char> >, std::__ndk1::shared_ptr<geode::Hook> >, void*>*, long>)
PUBLIC 5a60c 0 std::__ndk1::__tree<std::__ndk1::__value_type<std::__ndk1::basic_string<char, std::__ndk1::char_traits<char>, std::__ndk1::allocator<char> >, std::__ndk1::shared_ptr<geode::Hook> >, std::__ndk1::__map_value_compare<std::__ndk1::basic_string<char, std::__ndk1::char_traits<char>, std::__ndk1::allocator<char> >, std::__ndk1::__value_type<std::__ndk1::basic_string<char, std::__ndk1::char_traits<char>, std::__ndk1::allocator<char> >, std::__ndk1::shared_ptr<geode::Hook> >, std::__ndk1::less<std::__ndk1::basic_string<char, std::__ndk1::char_traits<char>, std::__ndk1::allocator<char> > >, true>, std::__ndk1::allocator<std::__ndk1::__value_type<std::__ndk1::basic_string<char, std::__ndk1::char_traits<char>, std::__ndk1::allocator<char> >, std::__ndk1::shared_ptr<geode::Hook> > > >::destroy(std::__ndk1::__tree_node<std::__ndk1::__value_type<std::__ndk1::basic_string<char, std::__ndk1::char_traits<char>, std::__ndk1::allocator<char> >, std::__ndk1::shared_ptr<geode::Hook> >, void*>*)
PUBLIC 5a698 0 geode::modifier::AsStaticFunction_init<MyCreatorLayer, bool (MyCreatorLayer::*)()>::Impl<bool (MyCreatorLayer::*)()>::function(MyCreatorLayer*)
PUBLIC 5a790 0 geode::addresser::Addresser::addressOfVirtual<bool, CreatorLayer, >(bool (CreatorLayer::*)())
PUBLIC 5a838 0 CreatorLayer::CreatorLayer(geode::ZeroConstructorType)
PUBLIC 5a8d0 0 std::__ndk1::shared_ptr<tulip::hook::CallingConvention>::~shared_ptr[abi:ne190000]()
PUBLIC 5a920 0 tulip::hook::HandlerMetadata::~HandlerMetadata()
PUBLIC 5a984 0 std::__ndk1::__tree<std::__ndk1::__value_type<std::__ndk1::basic_string<char, std::__ndk1::char_traits<char>, std::__ndk1::allocator<char> >, std::__ndk1::shared_ptr<geode::Hook> >, std::__ndk1::__map_value_compare<std::__ndk1::basic_string<char, std::__ndk1::char_traits<char>, std::__ndk1::allocator<char> >, std::__ndk1::__value_type<std::__ndk1::basic_string<char, std::__ndk1::char_traits<char>, std::__ndk1::allocator<char> >, std::__ndk1::shared_ptr<geode::Hook> >, std::__ndk1::less<std::__ndk1::basic_string<char, std::__ndk1::char_traits<char>, std::__ndk1::allocator<char> > >, true>, std::__ndk1::allocator<std::__ndk1::__value_type<std::__ndk1::basic_string<char, std::__ndk1::char_traits<char>, std::__ndk1::allocator<char> >, std::__ndk1::shared_ptr<geode::Hook> > > >::__emplace_unique_key_args<std::__ndk1::basic_string<char, std::__ndk1::char_traits<char>, std::__ndk1::allocator<char> >, std::__ndk1::piecewise_construct_t const&, std::__ndk1::tuple<std::__ndk1::basic_string<char, std::__ndk1::char_traits<char>, std::__ndk1::allocator<char> >&&>, std::__ndk1::tuple<> >(std::__ndk1::basic_string<char, std::__ndk1::char_traits<char>, std::__ndk1::allocator<char> > const&, std::__ndk1::piecewise_construct_t const&, std::__ndk1::tuple<std::__ndk1::basic_string<char, std::__ndk1::char_traits<char>, std::__ndk1::allocator<char> >&&>, std::__ndk1::tuple<>)
PUBLIC 5aafc 0 __cxx_global_var_init
PUBLIC 5af6c 0 geode::modifier::ModifyBase<geode::modifier::ModifyDerive<MyEditLevelLayer, EditLevelLayer> >::~ModifyBase()
PUBLIC 5af88 0 geode::modifier::ModifyDerive<MyEditLevelLayer, EditLevelLayer>::apply()
PUBLIC 5b2e0 0 geode::modifier::ModifyBase<geode::modifier::ModifyDerive<MyEditLevelLayer, EditLevelLayer> >::apply()
PUBLIC 5b2e4 0 geode::modifier::AsStaticFunction_init<MyEditLevelLayer, bool (MyEditLevelLayer::*)(GJGameLevel*)>::Impl<bool (MyEditLevelLayer::*)(GJGameLevel*)>::function(MyEditLevelLayer*, GJGameLevel*)
PUBLIC 5b53c 0 __cxx_global_var_init
PUBLIC 5b9ac 0 geode::modifier::ModifyBase<geode::modifier::ModifyDerive<MyGJGarageLayer, GJGarageLayer> >::~ModifyBase()
PUBLIC 5b9c8 0 geode::modifier::ModifyDerive<MyGJGarageLayer, GJGarageLayer>::apply()
PUBLIC 5bcd0 0 geode::modifier::ModifyBase<geode::modifier::ModifyDerive<MyGJGarageLayer, GJGarageLayer> >::apply()
PUBLIC 5bcd4 0 geode::modifier::AsStaticFunction_init<MyGJGarageLayer, bool (MyGJGarageLayer::*)()>::Impl<bool (MyGJGarageLayer::*)()>::function(MyGJGarageLayer*)
PUBLIC 5bdcc 0 geode::addresser::Addresser::addressOfVirtual<bool, GJGarageLayer, >(bool (GJGarageLayer::*)())
PUBLIC 5be74 0 GJGarageLayer::GJGarageLayer(geode::ZeroConstructorType)
PUBLIC 5bf28 0 __cxx_global_var_init
PUBLIC 5c398 0 geode::modifier::ModifyBase<geode::modifier::ModifyDerive<MyGJShopLayer, GJShopLayer> >::~ModifyBase()
PUBLIC 5c3b4 0 geode::modifier::ModifyDerive<MyGJShopLayer, GJShopLayer>::apply()
PUBLIC 5c6fc 0 geode::modifier::ModifyBase<geode::modifier::ModifyDerive<MyGJShopLayer, GJShopLayer> >::apply()
PUBLIC 5c700 0 geode::modifier::AsStaticFunction_init<MyGJShopLayer, bool (MyGJShopLayer::*)(ShopType)>::Impl<bool (MyGJShopLayer::*)(ShopType)>::function(MyGJShopLayer*, ShopType)
PUBLIC 5c99c 0 __cxx_global_var_init
PUBLIC 5ce0c 0 geode::modifier::ModifyBase<geode::modifier::ModifyDerive<MyGauntletLayer, GauntletLayer> >::~ModifyBase()
PUBLIC 5ce28 0 geode::modifier::ModifyDerive<MyGauntletLayer, GauntletLayer>::apply()
PUBLIC 5d180 0 geode::modifier::ModifyBase<geode::modifier::ModifyDerive<MyGauntletLayer, GauntletLayer> >::apply()
PUBLIC 5d184 0 geode::modifier::AsStaticFunction_init<MyGauntletLayer, bool (MyGauntletLayer::*)(GauntletType)>::Impl<bool (MyGauntletLayer::*)(GauntletType)>::function(MyGauntletLayer*, GauntletType)
PUBLIC 5d290 0 __cxx_global_var_init
PUBLIC 5d700 0 geode::modifier::ModifyBase<geode::modifier::ModifyDerive<MyGauntletSelectLayer, GauntletSelectLayer> >::~ModifyBase()
PUBLIC 5d71c 0 geode::modifier::ModifyDerive<MyGauntletSelectLayer, GauntletSelectLayer>::apply()
PUBLIC 5da90 0 geode::modifier::ModifyBase<geode::modifier::ModifyDerive<MyGauntletSelectLayer, GauntletSelectLayer> >::apply()
PUBLIC 5da94 0 geode::modifier::AsStaticFunction_init<MyGauntletSelectLayer, bool (MyGauntletSelectLayer::*)(int)>::Impl<bool (MyGauntletSelectLayer::*)(int)>::function(MyGauntletSelectLayer*, int)
PUBLIC 5db8c 0 __cxx_global_var_init
PUBLIC 5dffc 0 geode::modifier::ModifyBase<geode::modifier::ModifyDerive<MyLeaderboardsLayer, LeaderboardsLayer> >::~ModifyBase()
PUBLIC 5e018 0 geode::modifier::ModifyDerive<MyLeaderboardsLayer, LeaderboardsLayer>::apply()
PUBLIC 5e384 0 geode::modifier::ModifyBase<geode::modifier::ModifyDerive<MyLeaderboardsLayer, LeaderboardsLayer> >::apply()
PUBLIC 5e388 0 geode::modifier::AsStaticFunction_init<MyLeaderboardsLayer, bool (MyLeaderboardsLayer::*)(LeaderboardState)>::Impl<bool (MyLeaderboardsLayer::*)(LeaderboardState)>::function(MyLeaderboardsLayer*, LeaderboardState)
PUBLIC 5e480 0 __cxx_global_var_init
PUBLIC 5e8f0 0 geode::modifier::ModifyBase<geode::modifier::ModifyDerive<MyLevelAreaInnerLayer, LevelAreaInnerLayer> >::~ModifyBase()
PUBLIC 5e90c 0 geode::modifier::ModifyDerive<MyLevelAreaInnerLayer, LevelAreaInnerLayer>::apply()
PUBLIC 5ec80 0 geode::modifier::ModifyBase<geode::modifier::ModifyDerive<MyLevelAreaInnerLayer, LevelAreaInnerLayer> >::apply()
PUBLIC 5ec84 0 geode::modifier::AsStaticFunction_init<MyLevelAreaInnerLayer, bool (MyLevelAreaInnerLayer::*)(bool)>::Impl<bool (MyLevelAreaInnerLayer::*)(bool)>::function(MyLevelAreaInnerLayer*, bool)
PUBLIC 5ed44 0 __cxx_global_var_init
PUBLIC 5f1b4 0 geode::modifier::ModifyBase<geode::modifier::ModifyDerive<MyLevelAreaLayer, LevelAreaLayer> >::~ModifyBase()
PUBLIC 5f1d0 0 geode::modifier::ModifyDerive<MyLevelAreaLayer, LevelAreaLayer>::apply()
PUBLIC 5f4d8 0 geode::modifier::ModifyBase<geode::modifier::ModifyDerive<MyLevelAreaLayer, LevelAreaLayer> >::apply()
PUBLIC 5f4dc 0 geode::modifier::AsStaticFunction_init<MyLevelAreaLayer, bool (MyLevelAreaLayer::*)()>::Impl<bool (MyLevelAreaLayer::*)()>::function(MyLevelAreaLayer*)
PUBLIC 5f5d4 0 geode::addresser::Addresser::addressOfVirtual<bool, LevelAreaLayer, >(bool (LevelAreaLayer::*)())
PUBLIC 5f67c 0 LevelAreaLayer::LevelAreaLayer(geode::ZeroConstructorType)
PUBLIC 5f714 0 __cxx_global_var_init
PUBLIC 5fb84 0 geode::modifier::ModifyBase<geode::modifier::ModifyDerive<MyLevelBrowserLayer, LevelBrowserLayer> >::~ModifyBase()
PUBLIC 5fba0 0 geode::modifier::ModifyDerive<MyLevelBrowserLayer, LevelBrowserLayer>::apply()
PUBLIC 5ff0c 0 geode::modifier::ModifyBase<geode::modifier::ModifyDerive<MyLevelBrowserLayer, LevelBrowserLayer> >::apply()
PUBLIC 5ff10 0 geode::modifier::AsStaticFunction_init<MyLevelBrowserLayer, bool (MyLevelBrowserLayer::*)(GJSearchObject*)>::Impl<bool (MyLevelBrowserLayer::*)(GJSearchObject*)>::function(MyLevelBrowserLayer*, GJSearchObject*)
PUBLIC 60008 0 __cxx_global_var_init
PUBLIC 60478 0 geode::modifier::ModifyBase<geode::modifier::ModifyDerive<MyLevelInfoLayer, LevelInfoLayer> >::~ModifyBase()
PUBLIC 60494 0 geode::modifier::ModifyDerive<MyLevelInfoLayer, LevelInfoLayer>::apply()
PUBLIC 60834 0 geode::modifier::ModifyBase<geode::modifier::ModifyDerive<MyLevelInfoLayer, LevelInfoLayer> >::apply()
PUBLIC 60838 0 geode::modifier::AsStaticFunction_init<MyLevelInfoLayer, bool (MyLevelInfoLayer::*)(GJGameLevel*, bool)>::Impl<bool (MyLevelInfoLayer::*)(GJGameLevel*, bool)>::function(MyLevelInfoLayer*, GJGameLevel*, bool)
PUBLIC 60930 0 std::__ndk1::vector<tulip::hook::AbstractType, std::__ndk1::allocator<tulip::hook::AbstractType> >::__throw_length_error[abi:ne190000]() const
PUBLIC 60944 0 __cxx_global_var_init
PUBLIC 60db4 0 geode::modifier::ModifyBase<geode::modifier::ModifyDerive<MyLevelListLayer, LevelListLayer> >::~ModifyBase()
PUBLIC 60dd0 0 geode::modifier::ModifyDerive<MyLevelListLayer, LevelListLayer>::apply()
PUBLIC 61128 0 geode::modifier::ModifyBase<geode::modifier::ModifyDerive<MyLevelListLayer, LevelListLayer> >::apply()
PUBLIC 6112c 0 geode::modifier::AsStaticFunction_init<MyLevelListLayer, bool (MyLevelListLayer::*)(GJLevelList*)>::Impl<bool (MyLevelListLayer::*)(GJLevelList*)>::function(MyLevelListLayer*, GJLevelList*)
PUBLIC 61224 0 __cxx_global_var_init
PUBLIC 61694 0 geode::modifier::ModifyBase<geode::modifier::ModifyDerive<MyLevelSearchLayer, LevelSearchLayer> >::~ModifyBase()
PUBLIC 616b0 0 geode::modifier::ModifyDerive<MyLevelSearchLayer, LevelSearchLayer>::apply()
PUBLIC 619fc 0 geode::modifier::ModifyBase<geode::modifier::ModifyDerive<MyLevelSearchLayer, LevelSearchLayer> >::apply()
PUBLIC 61a00 0 geode::modifier::AsStaticFunction_init<MyLevelSearchLayer, bool (MyLevelSearchLayer::*)(int)>::Impl<bool (MyLevelSearchLayer::*)(int)>::function(MyLevelSearchLayer*, int)
PUBLIC 61e20 0 __cxx_global_var_init
PUBLIC 62290 0 geode::modifier::ModifyBase<geode::modifier::ModifyDerive<MyLevelSelectLayer, LevelSelectLayer> >::~ModifyBase()
PUBLIC 622ac 0 geode::modifier::ModifyDerive<MyLevelSelectLayer, LevelSelectLayer>::apply()
PUBLIC 625f8 0 geode::modifier::ModifyBase<geode::modifier::ModifyDerive<MyLevelSelectLayer, LevelSelectLayer> >::apply()
PUBLIC 625fc 0 geode::modifier::AsStaticFunction_init<MyLevelSelectLayer, bool (MyLevelSelectLayer::*)(int)>::Impl<bool (MyLevelSelectLayer::*)(int)>::function(MyLevelSelectLayer*, int)
PUBLIC 6271c 0 __cxx_global_var_init
PUBLIC 62b8c 0 geode::modifier::ModifyBase<geode::modifier::ModifyDerive<MyLoadingLayer, LoadingLayer> >::~ModifyBase()
PUBLIC 62ba8 0 geode::modifier::ModifyDerive<MyLoadingLayer, LoadingLayer>::apply()
PUBLIC 62ef8 0 geode::modifier::ModifyBase<geode::modifier::ModifyDerive<MyLoadingLayer, LoadingLayer> >::apply()
PUBLIC 62efc 0 geode::modifier::AsStaticFunction_init<MyLoadingLayer, bool (MyLoadingLayer::*)(bool)>::Impl<bool (MyLoadingLayer::*)(bool)>::function(MyLoadingLayer*, bool)
PUBLIC 62ff4 0 __cxx_global_var_init
PUBLIC 63740 0 geode::modifier::ModifyBase<geode::modifier::ModifyDerive<hook8<(anonymous namespace)::hook8Parent>, MenuLayer> >::~ModifyBase()
PUBLIC 6375c 0 geode::modifier::ModifyDerive<hook8<(anonymous namespace)::hook8Parent>, MenuLayer>::apply()
PUBLIC 63a50 0 geode::modifier::ModifyBase<geode::modifier::ModifyDerive<hook8<(anonymous namespace)::hook8Parent>, MenuLayer> >::apply()
PUBLIC 63a54 0 std::__ndk1::unique_ptr<std::__ndk1::__tree_node<std::__ndk1::__value_type<std::__ndk1::basic_string<char, std::__ndk1::char_traits<char>, std::__ndk1::allocator<char> >, std::__ndk1::shared_ptr<geode::Hook> >, void*>, std::__ndk1::__tree_node_destructor<std::__ndk1::allocator<std::__ndk1::__tree_node<std::__ndk1::__value_type<std::__ndk1::basic_string<char, std::__ndk1::char_traits<char>, std::__ndk1::allocator<char> >, std::__ndk1::shared_ptr<geode::Hook> >, void*> > > >::~unique_ptr[abi:ne190000]()
PUBLIC 63ad0 0 std::__ndk1::__variant_detail::__visitation::__base::__dispatcher<(unsigned long)0>::__dispatch[abi:ne190000]<std::__ndk1::__variant_detail::__dtor<std::__ndk1::__variant_detail::__traits<std::__ndk1::monostate, std::__ndk1::basic_string<char, std::__ndk1::char_traits<char>, std::__ndk1::allocator<char> > >, (std::__ndk1::__variant_detail::_Trait)1>::__destroy[abi:ne190000]()::{lambda(auto:1&)#1}, std::__ndk1::__variant_detail::__base<(std::__ndk1::__variant_detail::__traits<std::__ndk1::monostate, std::__ndk1::basic_string<char, std::__ndk1::char_traits<char>, std::__ndk1::allocator<char> > >)1, std::__ndk1::__variant_detail::__traits, std::__ndk1::allocator<char> >&>(std::__ndk1::__variant_detail::__dtor<std::__ndk1::__variant_detail::__traits<std::__ndk1::monostate, std::__ndk1::basic_string<char, std::__ndk1::char_traits<char>, std::__ndk1::allocator<char> > >, (std::__ndk1::__variant_detail::_Trait)1>, std::__ndk1::__variant_detail::__base<(std::__ndk1::__variant_detail::__traits<std::__ndk1::monostate, std::__ndk1::basic_string<char, std::__ndk1::char_traits<char>, std::__ndk1::allocator<char> > >)1, std::__ndk1::__variant_detail::__traits, std::__ndk1::allocator<char> >&)
PUBLIC 63ad4 0 std::__ndk1::__variant_detail::__visitation::__base::__dispatcher<(unsigned long)1>::__dispatch[abi:ne190000]<std::__ndk1::__variant_detail::__dtor<std::__ndk1::__variant_detail::__traits<std::__ndk1::monostate, std::__ndk1::basic_string<char, std::__ndk1::char_traits<char>, std::__ndk1::allocator<char> > >, (std::__ndk1::__variant_detail::_Trait)1>::__destroy[abi:ne190000]()::{lambda(auto:1&)#1}, std::__ndk1::__variant_detail::__base<(std::__ndk1::__variant_detail::__traits<std::__ndk1::monostate, std::__ndk1::basic_string<char, std::__ndk1::char_traits<char>, std::__ndk1::allocator<char> > >)1, std::__ndk1::__variant_detail::__traits, std::__ndk1::allocator<char> >&>(std::__ndk1::__variant_detail::__dtor<std::__ndk1::__variant_detail::__traits<std::__ndk1::monostate, std::__ndk1::basic_string<char, std::__ndk1::char_traits<char>, std::__ndk1::allocator<char> > >, (std::__ndk1::__variant_detail::_Trait)1>, std::__ndk1::__variant_detail::__base<(std::__ndk1::__variant_detail::__traits<std::__ndk1::monostate, std::__ndk1::basic_string<char, std::__ndk1::char_traits<char>, std::__ndk1::allocator<char> > >)1, std::__ndk1::__variant_detail::__traits, std::__ndk1::allocator<char> >&)
PUBLIC 63ae8 0 geode::modifier::AsStaticFunction_init<hook8<(anonymous namespace)::hook8Parent>, bool (hook8<(anonymous namespace)::hook8Parent>::*)()>::Impl<bool (hook8<(anonymous namespace)::hook8Parent>::*)()>::function(hook8<(anonymous namespace)::hook8Parent>*)
PUBLIC 63d50 0 geode::addresser::Addresser::addressOfVirtual<bool, MenuLayer, >(bool (MenuLayer::*)())
PUBLIC 63df8 0 MenuLayer::MenuLayer(geode::ZeroConstructorType)
PUBLIC 63e94 0 __cxx_global_var_init
PUBLIC 64304 0 geode::modifier::ModifyBase<geode::modifier::ModifyDerive<MyPlayLayer, PlayLayer> >::~ModifyBase()
PUBLIC 64320 0 geode::modifier::ModifyDerive<MyPlayLayer, PlayLayer>::apply()
PUBLIC 646b8 0 geode::modifier::ModifyBase<geode::modifier::ModifyDerive<MyPlayLayer, PlayLayer> >::apply()
PUBLIC 646bc 0 geode::modifier::AsStaticFunction_init<MyPlayLayer, bool (MyPlayLayer::*)(GJGameLevel*, bool, bool)>::Impl<bool (MyPlayLayer::*)(GJGameLevel*, bool, bool)>::function(MyPlayLayer*, GJGameLevel*, bool, bool)
PUBLIC 64808 0 __cxx_global_var_init
PUBLIC 64c78 0 geode::modifier::ModifyBase<geode::modifier::ModifyDerive<MySecretLayer, SecretLayer> >::~ModifyBase()
PUBLIC 64c94 0 geode::modifier::ModifyDerive<MySecretLayer, SecretLayer>::apply()
PUBLIC 64f8c 0 geode::modifier::ModifyBase<geode::modifier::ModifyDerive<MySecretLayer, SecretLayer> >::apply()
PUBLIC 64f90 0 geode::modifier::AsStaticFunction_init<MySecretLayer, bool (MySecretLayer::*)()>::Impl<bool (MySecretLayer::*)()>::function(MySecretLayer*)
PUBLIC 65088 0 geode::addresser::Addresser::addressOfVirtual<bool, SecretLayer, >(bool (SecretLayer::*)())
PUBLIC 65130 0 SecretLayer::SecretLayer(geode::ZeroConstructorType)
PUBLIC 651d0 0 __cxx_global_var_init
PUBLIC 65640 0 geode::modifier::ModifyBase<geode::modifier::ModifyDerive<MySecretLayer2, SecretLayer2> >::~ModifyBase()
PUBLIC 6565c 0 geode::modifier::ModifyDerive<MySecretLayer2, SecretLayer2>::apply()
PUBLIC 6595c 0 geode::modifier::ModifyBase<geode::modifier::ModifyDerive<MySecretLayer2, SecretLayer2> >::apply()
PUBLIC 65960 0 geode::modifier::AsStaticFunction_init<MySecretLayer2, bool (MySecretLayer2::*)()>::Impl<bool (MySecretLayer2::*)()>::function(MySecretLayer2*)
PUBLIC 65a58 0 geode::addresser::Addresser::addressOfVirtual<bool, SecretLayer2, >(bool (SecretLayer2::*)())
PUBLIC 65b00 0 SecretLayer2::SecretLayer2(geode::ZeroConstructorType)
PUBLIC 65b88 0 __cxx_global_var_init
PUBLIC 65ff8 0 geode::modifier::ModifyBase<geode::modifier::ModifyDerive<MySecretLayer3, SecretLayer3> >::~ModifyBase()
PUBLIC 66014 0 geode::modifier::ModifyDerive<MySecretLayer3, SecretLayer3>::apply()
PUBLIC 66314 0 geode::modifier::ModifyBase<geode::modifier::ModifyDerive<MySecretLayer3, SecretLayer3> >::apply()
PUBLIC 66318 0 geode::modifier::AsStaticFunction_init<MySecretLayer3, bool (MySecretLayer3::*)()>::Impl<bool (MySecretLayer3::*)()>::function(MySecretLayer3*)
PUBLIC 66410 0 geode::addresser::Addresser::addressOfVirtual<bool, SecretLayer3, >(bool (SecretLayer3::*)())
PUBLIC 664b8 0 SecretLayer3::SecretLayer3(geode::ZeroConstructorType)
PUBLIC 66550 0 __cxx_global_var_init
PUBLIC 669c0 0 geode::modifier::ModifyBase<geode::modifier::ModifyDerive<MySecretLayer4, SecretLayer4> >::~ModifyBase()
PUBLIC 669dc 0 geode::modifier::ModifyDerive<MySecretLayer4, SecretLayer4>::apply()
PUBLIC 66cdc 0 geode::modifier::ModifyBase<geode::modifier::ModifyDerive<MySecretLayer4, SecretLayer4> >::apply()
PUBLIC 66ce0 0 geode::modifier::AsStaticFunction_init<MySecretLayer4, bool (MySecretLayer4::*)()>::Impl<bool (MySecretLayer4::*)()>::function(MySecretLayer4*)
PUBLIC 66dd8 0 geode::addresser::Addresser::addressOfVirtual<bool, SecretLayer4, >(bool (SecretLayer4::*)())
PUBLIC 66e80 0 SecretLayer4::SecretLayer4(geode::ZeroConstructorType)
PUBLIC 66f28 0 __cxx_global_var_init
PUBLIC 67098 0 std::__ndk1::__function::__func<AlphaUtils::ModifyLoad<mySecretLayer5>::ModifyLoad(std::__ndk1::basic_string<char, std::__ndk1::char_traits<char>, std::__ndk1::allocator<char> >)::{lambda(cocos2d::CCNode*)#1}, std::__ndk1::allocator<AlphaUtils::ModifyLoad<mySecretLayer5>::ModifyLoad(std::__ndk1::basic_string<char, std::__ndk1::char_traits<char>, std::__ndk1::allocator<char> >)::{lambda(cocos2d::CCNode*)#1}>, void (cocos2d::CCNode*)>::~__func()
PUBLIC 6709c 0 std::__ndk1::__function::__func<AlphaUtils::ModifyLoad<mySecretLayer5>::ModifyLoad(std::__ndk1::basic_string<char, std::__ndk1::char_traits<char>, std::__ndk1::allocator<char> >)::{lambda(cocos2d::CCNode*)#1}, std::__ndk1::allocator<AlphaUtils::ModifyLoad<mySecretLayer5>::ModifyLoad(std::__ndk1::basic_string<char, std::__ndk1::char_traits<char>, std::__ndk1::allocator<char> >)::{lambda(cocos2d::CCNode*)#1}>, void (cocos2d::CCNode*)>::__clone() const
PUBLIC 670c0 0 std::__ndk1::__function::__func<AlphaUtils::ModifyLoad<mySecretLayer5>::ModifyLoad(std::__ndk1::basic_string<char, std::__ndk1::char_traits<char>, std::__ndk1::allocator<char> >)::{lambda(cocos2d::CCNode*)#1}, std::__ndk1::allocator<AlphaUtils::ModifyLoad<mySecretLayer5>::ModifyLoad(std::__ndk1::basic_string<char, std::__ndk1::char_traits<char>, std::__ndk1::allocator<char> >)::{lambda(cocos2d::CCNode*)#1}>, void (cocos2d::CCNode*)>::__clone(std::__ndk1::__function::__base<void (cocos2d::CCNode*)>*) const
PUBLIC 670d0 0 std::__ndk1::__function::__func<AlphaUtils::ModifyLoad<mySecretLayer5>::ModifyLoad(std::__ndk1::basic_string<char, std::__ndk1::char_traits<char>, std::__ndk1::allocator<char> >)::{lambda(cocos2d::CCNode*)#1}, std::__ndk1::allocator<AlphaUtils::ModifyLoad<mySecretLayer5>::ModifyLoad(std::__ndk1::basic_string<char, std::__ndk1::char_traits<char>, std::__ndk1::allocator<char> >)::{lambda(cocos2d::CCNode*)#1}>, void (cocos2d::CCNode*)>::destroy()
PUBLIC 670d4 0 std::__ndk1::__function::__func<AlphaUtils::ModifyLoad<mySecretLayer5>::ModifyLoad(std::__ndk1::basic_string<char, std::__ndk1::char_traits<char>, std::__ndk1::allocator<char> >)::{lambda(cocos2d::CCNode*)#1}, std::__ndk1::allocator<AlphaUtils::ModifyLoad<mySecretLayer5>::ModifyLoad(std::__ndk1::basic_string<char, std::__ndk1::char_traits<char>, std::__ndk1::allocator<char> >)::{lambda(cocos2d::CCNode*)#1}>, void (cocos2d::CCNode*)>::destroy_deallocate()
PUBLIC 670d8 0 std::__ndk1::__function::__func<AlphaUtils::ModifyLoad<mySecretLayer5>::ModifyLoad(std::__ndk1::basic_string<char, std::__ndk1::char_traits<char>, std::__ndk1::allocator<char> >)::{lambda(cocos2d::CCNode*)#1}, std::__ndk1::allocator<AlphaUtils::ModifyLoad<mySecretLayer5>::ModifyLoad(std::__ndk1::basic_string<char, std::__ndk1::char_traits<char>, std::__ndk1::allocator<char> >)::{lambda(cocos2d::CCNode*)#1}>, void (cocos2d::CCNode*)>::operator()(cocos2d::CCNode*&&)
PUBLIC 67238 0 std::__ndk1::__function::__func<AlphaUtils::ModifyLoad<mySecretLayer5>::ModifyLoad(std::__ndk1::basic_string<char, std::__ndk1::char_traits<char>, std::__ndk1::allocator<char> >)::{lambda(cocos2d::CCNode*)#1}, std::__ndk1::allocator<AlphaUtils::ModifyLoad<mySecretLayer5>::ModifyLoad(std::__ndk1::basic_string<char, std::__ndk1::char_traits<char>, std::__ndk1::allocator<char> >)::{lambda(cocos2d::CCNode*)#1}>, void (cocos2d::CCNode*)>::target(std::type_info const&) const
PUBLIC 67254 0 std::__ndk1::__function::__func<AlphaUtils::ModifyLoad<mySecretLayer5>::ModifyLoad(std::__ndk1::basic_string<char, std::__ndk1::char_traits<char>, std::__ndk1::allocator<char> >)::{lambda(cocos2d::CCNode*)#1}, std::__ndk1::allocator<AlphaUtils::ModifyLoad<mySecretLayer5>::ModifyLoad(std::__ndk1::basic_string<char, std::__ndk1::char_traits<char>, std::__ndk1::allocator<char> >)::{lambda(cocos2d::CCNode*)#1}>, void (cocos2d::CCNode*)>::target_type() const
PUBLIC 67260 0 __cxx_global_var_init
PUBLIC 676d0 0 geode::modifier::ModifyBase<geode::modifier::ModifyDerive<MySecretRewardsLayer, SecretRewardsLayer> >::~ModifyBase()
PUBLIC 676ec 0 geode::modifier::ModifyDerive<MySecretRewardsLayer, SecretRewardsLayer>::apply()
PUBLIC 67a58 0 geode::modifier::ModifyBase<geode::modifier::ModifyDerive<MySecretRewardsLayer, SecretRewardsLayer> >::apply()
PUBLIC 67a5c 0 geode::modifier::AsStaticFunction_init<MySecretRewardsLayer, bool (MySecretRewardsLayer::*)(bool)>::Impl<bool (MySecretRewardsLayer::*)(bool)>::function(MySecretRewardsLayer*, bool)
PUBLIC 67bcc 0 __cxx_global_var_init
PUBLIC 6803c 0 geode::modifier::ModifyBase<geode::modifier::ModifyDerive<MyUIOptionsLayer, UIOptionsLayer> >::~ModifyBase()
PUBLIC 68058 0 geode::modifier::ModifyDerive<MyUIOptionsLayer, UIOptionsLayer>::apply()
PUBLIC 683b0 0 geode::modifier::ModifyBase<geode::modifier::ModifyDerive<MyUIOptionsLayer, UIOptionsLayer> >::apply()
PUBLIC 683b4 0 geode::modifier::AsStaticFunction_init<MyUIOptionsLayer, bool (MyUIOptionsLayer::*)(bool)>::Impl<bool (MyUIOptionsLayer::*)(bool)>::function(MyUIOptionsLayer*, bool)
PUBLIC 68634 0 __cxx_global_var_init
PUBLIC 68aa4 0 geode::modifier::ModifyBase<geode::modifier::ModifyDerive<MyUIPOptionsLayer, UIPOptionsLayer> >::~ModifyBase()
PUBLIC 68ac0 0 geode::modifier::ModifyDerive<MyUIPOptionsLayer, UIPOptionsLayer>::apply()
PUBLIC 68dbc 0 geode::modifier::ModifyBase<geode::modifier::ModifyDerive<MyUIPOptionsLayer, UIPOptionsLayer> >::apply()
PUBLIC 68dc0 0 geode::modifier::AsStaticFunction_init<MyUIPOptionsLayer, bool (MyUIPOptionsLayer::*)()>::Impl<bool (MyUIPOptionsLayer::*)()>::function(MyUIPOptionsLayer*)
PUBLIC 69040 0 geode::addresser::Addresser::addressOfVirtual<bool, UIPOptionsLayer, >(bool (UIPOptionsLayer::*)())
PUBLIC 690e8 0 UIPOptionsLayer::UIPOptionsLayer(geode::ZeroConstructorType)
PUBLIC 6919c 0 __cxx_global_var_init
PUBLIC 69314 0 std::__ndk1::__function::__func<AlphaUtils::ModifyLoad<myMoreLeaderboards>::ModifyLoad(std::__ndk1::basic_string<char, std::__ndk1::char_traits<char>, std::__ndk1::allocator<char> >)::{lambda(cocos2d::CCNode*)#1}, std::__ndk1::allocator<AlphaUtils::ModifyLoad<myMoreLeaderboards>::ModifyLoad(std::__ndk1::basic_string<char, std::__ndk1::char_traits<char>, std::__ndk1::allocator<char> >)::{lambda(cocos2d::CCNode*)#1}>, void (cocos2d::CCNode*)>::~__func()
PUBLIC 69318 0 std::__ndk1::__function::__func<AlphaUtils::ModifyLoad<myMoreLeaderboards>::ModifyLoad(std::__ndk1::basic_string<char, std::__ndk1::char_traits<char>, std::__ndk1::allocator<char> >)::{lambda(cocos2d::CCNode*)#1}, std::__ndk1::allocator<AlphaUtils::ModifyLoad<myMoreLeaderboards>::ModifyLoad(std::__ndk1::basic_string<char, std::__ndk1::char_traits<char>, std::__ndk1::allocator<char> >)::{lambda(cocos2d::CCNode*)#1}>, void (cocos2d::CCNode*)>::__clone() const
PUBLIC 6933c 0 std::__ndk1::__function::__func<AlphaUtils::ModifyLoad<myMoreLeaderboards>::ModifyLoad(std::__ndk1::basic_string<char, std::__ndk1::char_traits<char>, std::__ndk1::allocator<char> >)::{lambda(cocos2d::CCNode*)#1}, std::__ndk1::allocator<AlphaUtils::ModifyLoad<myMoreLeaderboards>::ModifyLoad(std::__ndk1::basic_string<char, std::__ndk1::char_traits<char>, std::__ndk1::allocator<char> >)::{lambda(cocos2d::CCNode*)#1}>, void (cocos2d::CCNode*)>::__clone(std::__ndk1::__function::__base<void (cocos2d::CCNode*)>*) const
PUBLIC 6934c 0 std::__ndk1::__function::__func<AlphaUtils::ModifyLoad<myMoreLeaderboards>::ModifyLoad(std::__ndk1::basic_string<char, std::__ndk1::char_traits<char>, std::__ndk1::allocator<char> >)::{lambda(cocos2d::CCNode*)#1}, std::__ndk1::allocator<AlphaUtils::ModifyLoad<myMoreLeaderboards>::ModifyLoad(std::__ndk1::basic_string<char, std::__ndk1::char_traits<char>, std::__ndk1::allocator<char> >)::{lambda(cocos2d::CCNode*)#1}>, void (cocos2d::CCNode*)>::destroy()
PUBLIC 69350 0 std::__ndk1::__function::__func<AlphaUtils::ModifyLoad<myMoreLeaderboards>::ModifyLoad(std::__ndk1::basic_string<char, std::__ndk1::char_traits<char>, std::__ndk1::allocator<char> >)::{lambda(cocos2d::CCNode*)#1}, std::__ndk1::allocator<AlphaUtils::ModifyLoad<myMoreLeaderboards>::ModifyLoad(std::__ndk1::basic_string<char, std::__ndk1::char_traits<char>, std::__ndk1::allocator<char> >)::{lambda(cocos2d::CCNode*)#1}>, void (cocos2d::CCNode*)>::destroy_deallocate()
PUBLIC 69354 0 std::__ndk1::__function::__func<AlphaUtils::ModifyLoad<myMoreLeaderboards>::ModifyLoad(std::__ndk1::basic_string<char, std::__ndk1::char_traits<char>, std::__ndk1::allocator<char> >)::{lambda(cocos2d::CCNode*)#1}, std::__ndk1::allocator<AlphaUtils::ModifyLoad<myMoreLeaderboards>::ModifyLoad(std::__ndk1::basic_string<char, std::__ndk1::char_traits<char>, std::__ndk1::allocator<char> >)::{lambda(cocos2d::CCNode*)#1}>, void (cocos2d::CCNode*)>::operator()(cocos2d::CCNode*&&)
PUBLIC 694b4 0 std::__ndk1::__function::__func<AlphaUtils::ModifyLoad<myMoreLeaderboards>::ModifyLoad(std::__ndk1::basic_string<char, std::__ndk1::char_traits<char>, std::__ndk1::allocator<char> >)::{lambda(cocos2d::CCNode*)#1}, std::__ndk1::allocator<AlphaUtils::ModifyLoad<myMoreLeaderboards>::ModifyLoad(std::__ndk1::basic_string<char, std::__ndk1::char_traits<char>, std::__ndk1::allocator<char> >)::{lambda(cocos2d::CCNode*)#1}>, void (cocos2d::CCNode*)>::target(std::type_info const&) const
PUBLIC 694d0 0 std::__ndk1::__function::__func<AlphaUtils::ModifyLoad<myMoreLeaderboards>::ModifyLoad(std::__ndk1::basic_string<char, std::__ndk1::char_traits<char>, std::__ndk1::allocator<char> >)::{lambda(cocos2d::CCNode*)#1}, std::__ndk1::allocator<AlphaUtils::ModifyLoad<myMoreLeaderboards>::ModifyLoad(std::__ndk1::basic_string<char, std::__ndk1::char_traits<char>, std::__ndk1::allocator<char> >)::{lambda(cocos2d::CCNode*)#1}>, void (cocos2d::CCNode*)>::target_type() const
PUBLIC 694dc 0 __cxx_global_var_init
PUBLIC 69644 0 std::__ndk1::__function::__func<AlphaUtils::ModifyLoad<hook8>::ModifyLoad(std::__ndk1::basic_string<char, std::__ndk1::char_traits<char>, std::__ndk1::allocator<char> >)::{lambda(cocos2d::CCNode*)#1}, std::__ndk1::allocator<AlphaUtils::ModifyLoad<hook8>::ModifyLoad(std::__ndk1::basic_string<char, std::__ndk1::char_traits<char>, std::__ndk1::allocator<char> >)::{lambda(cocos2d::CCNode*)#1}>, void (cocos2d::CCNode*)>::~__func()
PUBLIC 69648 0 std::__ndk1::__function::__func<AlphaUtils::ModifyLoad<hook8>::ModifyLoad(std::__ndk1::basic_string<char, std::__ndk1::char_traits<char>, std::__ndk1::allocator<char> >)::{lambda(cocos2d::CCNode*)#1}, std::__ndk1::allocator<AlphaUtils::ModifyLoad<hook8>::ModifyLoad(std::__ndk1::basic_string<char, std::__ndk1::char_traits<char>, std::__ndk1::allocator<char> >)::{lambda(cocos2d::CCNode*)#1}>, void (cocos2d::CCNode*)>::__clone() const
PUBLIC 6966c 0 std::__ndk1::__function::__func<AlphaUtils::ModifyLoad<hook8>::ModifyLoad(std::__ndk1::basic_string<char, std::__ndk1::char_traits<char>, std::__ndk1::allocator<char> >)::{lambda(cocos2d::CCNode*)#1}, std::__ndk1::allocator<AlphaUtils::ModifyLoad<hook8>::ModifyLoad(std::__ndk1::basic_string<char, std::__ndk1::char_traits<char>, std::__ndk1::allocator<char> >)::{lambda(cocos2d::CCNode*)#1}>, void (cocos2d::CCNode*)>::__clone(std::__ndk1::__function::__base<void (cocos2d::CCNode*)>*) const
PUBLIC 6967c 0 std::__ndk1::__function::__func<AlphaUtils::ModifyLoad<hook8>::ModifyLoad(std::__ndk1::basic_string<char, std::__ndk1::char_traits<char>, std::__ndk1::allocator<char> >)::{lambda(cocos2d::CCNode*)#1}, std::__ndk1::allocator<AlphaUtils::ModifyLoad<hook8>::ModifyLoad(std::__ndk1::basic_string<char, std::__ndk1::char_traits<char>, std::__ndk1::allocator<char> >)::{lambda(cocos2d::CCNode*)#1}>, void (cocos2d::CCNode*)>::destroy()
PUBLIC 69680 0 std::__ndk1::__function::__func<AlphaUtils::ModifyLoad<hook8>::ModifyLoad(std::__ndk1::basic_string<char, std::__ndk1::char_traits<char>, std::__ndk1::allocator<char> >)::{lambda(cocos2d::CCNode*)#1}, std::__ndk1::allocator<AlphaUtils::ModifyLoad<hook8>::ModifyLoad(std::__ndk1::basic_string<char, std::__ndk1::char_traits<char>, std::__ndk1::allocator<char> >)::{lambda(cocos2d::CCNode*)#1}>, void (cocos2d::CCNode*)>::destroy_deallocate()
PUBLIC 69684 0 std::__ndk1::__function::__func<AlphaUtils::ModifyLoad<hook8>::ModifyLoad(std::__ndk1::basic_string<char, std::__ndk1::char_traits<char>, std::__ndk1::allocator<char> >)::{lambda(cocos2d::CCNode*)#1}, std::__ndk1::allocator<AlphaUtils::ModifyLoad<hook8>::ModifyLoad(std::__ndk1::basic_string<char, std::__ndk1::char_traits<char>, std::__ndk1::allocator<char> >)::{lambda(cocos2d::CCNode*)#1}>, void (cocos2d::CCNode*)>::operator()(cocos2d::CCNode*&&)
PUBLIC 6980c 0 std::__ndk1::__function::__func<AlphaUtils::ModifyLoad<hook8>::ModifyLoad(std::__ndk1::basic_string<char, std::__ndk1::char_traits<char>, std::__ndk1::allocator<char> >)::{lambda(cocos2d::CCNode*)#1}, std::__ndk1::allocator<AlphaUtils::ModifyLoad<hook8>::ModifyLoad(std::__ndk1::basic_string<char, std::__ndk1::char_traits<char>, std::__ndk1::allocator<char> >)::{lambda(cocos2d::CCNode*)#1}>, void (cocos2d::CCNode*)>::target(std::type_info const&) const
PUBLIC 69828 0 std::__ndk1::__function::__func<AlphaUtils::ModifyLoad<hook8>::ModifyLoad(std::__ndk1::basic_string<char, std::__ndk1::char_traits<char>, std::__ndk1::allocator<char> >)::{lambda(cocos2d::CCNode*)#1}, std::__ndk1::allocator<AlphaUtils::ModifyLoad<hook8>::ModifyLoad(std::__ndk1::basic_string<char, std::__ndk1::char_traits<char>, std::__ndk1::allocator<char> >)::{lambda(cocos2d::CCNode*)#1}>, void (cocos2d::CCNode*)>::target_type() const
PUBLIC 69834 0 __cxx_global_var_init
PUBLIC 699a8 0 std::__ndk1::__function::__func<AlphaUtils::ModifyLoad<myPackSelectLayer>::ModifyLoad(std::__ndk1::basic_string<char, std::__ndk1::char_traits<char>, std::__ndk1::allocator<char> >)::{lambda(cocos2d::CCNode*)#1}, std::__ndk1::allocator<AlphaUtils::ModifyLoad<myPackSelectLayer>::ModifyLoad(std::__ndk1::basic_string<char, std::__ndk1::char_traits<char>, std::__ndk1::allocator<char> >)::{lambda(cocos2d::CCNode*)#1}>, void (cocos2d::CCNode*)>::~__func()
PUBLIC 699ac 0 std::__ndk1::__function::__func<AlphaUtils::ModifyLoad<myPackSelectLayer>::ModifyLoad(std::__ndk1::basic_string<char, std::__ndk1::char_traits<char>, std::__ndk1::allocator<char> >)::{lambda(cocos2d::CCNode*)#1}, std::__ndk1::allocator<AlphaUtils::ModifyLoad<myPackSelectLayer>::ModifyLoad(std::__ndk1::basic_string<char, std::__ndk1::char_traits<char>, std::__ndk1::allocator<char> >)::{lambda(cocos2d::CCNode*)#1}>, void (cocos2d::CCNode*)>::__clone() const
PUBLIC 699d0 0 std::__ndk1::__function::__func<AlphaUtils::ModifyLoad<myPackSelectLayer>::ModifyLoad(std::__ndk1::basic_string<char, std::__ndk1::char_traits<char>, std::__ndk1::allocator<char> >)::{lambda(cocos2d::CCNode*)#1}, std::__ndk1::allocator<AlphaUtils::ModifyLoad<myPackSelectLayer>::ModifyLoad(std::__ndk1::basic_string<char, std::__ndk1::char_traits<char>, std::__ndk1::allocator<char> >)::{lambda(cocos2d::CCNode*)#1}>, void (cocos2d::CCNode*)>::__clone(std::__ndk1::__function::__base<void (cocos2d::CCNode*)>*) const
PUBLIC 699e0 0 std::__ndk1::__function::__func<AlphaUtils::ModifyLoad<myPackSelectLayer>::ModifyLoad(std::__ndk1::basic_string<char, std::__ndk1::char_traits<char>, std::__ndk1::allocator<char> >)::{lambda(cocos2d::CCNode*)#1}, std::__ndk1::allocator<AlphaUtils::ModifyLoad<myPackSelectLayer>::ModifyLoad(std::__ndk1::basic_string<char, std::__ndk1::char_traits<char>, std::__ndk1::allocator<char> >)::{lambda(cocos2d::CCNode*)#1}>, void (cocos2d::CCNode*)>::destroy()
PUBLIC 699e4 0 std::__ndk1::__function::__func<AlphaUtils::ModifyLoad<myPackSelectLayer>::ModifyLoad(std::__ndk1::basic_string<char, std::__ndk1::char_traits<char>, std::__ndk1::allocator<char> >)::{lambda(cocos2d::CCNode*)#1}, std::__ndk1::allocator<AlphaUtils::ModifyLoad<myPackSelectLayer>::ModifyLoad(std::__ndk1::basic_string<char, std::__ndk1::char_traits<char>, std::__ndk1::allocator<char> >)::{lambda(cocos2d::CCNode*)#1}>, void (cocos2d::CCNode*)>::destroy_deallocate()
PUBLIC 699e8 0 std::__ndk1::__function::__func<AlphaUtils::ModifyLoad<myPackSelectLayer>::ModifyLoad(std::__ndk1::basic_string<char, std::__ndk1::char_traits<char>, std::__ndk1::allocator<char> >)::{lambda(cocos2d::CCNode*)#1}, std::__ndk1::allocator<AlphaUtils::ModifyLoad<myPackSelectLayer>::ModifyLoad(std::__ndk1::basic_string<char, std::__ndk1::char_traits<char>, std::__ndk1::allocator<char> >)::{lambda(cocos2d::CCNode*)#1}>, void (cocos2d::CCNode*)>::operator()(cocos2d::CCNode*&&)
PUBLIC 69ac0 0 std::__ndk1::__function::__func<AlphaUtils::ModifyLoad<myPackSelectLayer>::ModifyLoad(std::__ndk1::basic_string<char, std::__ndk1::char_traits<char>, std::__ndk1::allocator<char> >)::{lambda(cocos2d::CCNode*)#1}, std::__ndk1::allocator<AlphaUtils::ModifyLoad<myPackSelectLayer>::ModifyLoad(std::__ndk1::basic_string<char, std::__ndk1::char_traits<char>, std::__ndk1::allocator<char> >)::{lambda(cocos2d::CCNode*)#1}>, void (cocos2d::CCNode*)>::target(std::type_info const&) const
PUBLIC 69adc 0 std::__ndk1::__function::__func<AlphaUtils::ModifyLoad<myPackSelectLayer>::ModifyLoad(std::__ndk1::basic_string<char, std::__ndk1::char_traits<char>, std::__ndk1::allocator<char> >)::{lambda(cocos2d::CCNode*)#1}, std::__ndk1::allocator<AlphaUtils::ModifyLoad<myPackSelectLayer>::ModifyLoad(std::__ndk1::basic_string<char, std::__ndk1::char_traits<char>, std::__ndk1::allocator<char> >)::{lambda(cocos2d::CCNode*)#1}>, void (cocos2d::CCNode*)>::target_type() const
PUBLIC 69ae8 0 __cxx_global_var_init
PUBLIC 69c54 0 std::__ndk1::__function::__func<AlphaUtils::ModifyLoad<myIDListLayer>::ModifyLoad(std::__ndk1::basic_string<char, std::__ndk1::char_traits<char>, std::__ndk1::allocator<char> >)::{lambda(cocos2d::CCNode*)#1}, std::__ndk1::allocator<AlphaUtils::ModifyLoad<myIDListLayer>::ModifyLoad(std::__ndk1::basic_string<char, std::__ndk1::char_traits<char>, std::__ndk1::allocator<char> >)::{lambda(cocos2d::CCNode*)#1}>, void (cocos2d::CCNode*)>::~__func()
PUBLIC 69c58 0 std::__ndk1::__function::__func<AlphaUtils::ModifyLoad<myIDListLayer>::ModifyLoad(std::__ndk1::basic_string<char, std::__ndk1::char_traits<char>, std::__ndk1::allocator<char> >)::{lambda(cocos2d::CCNode*)#1}, std::__ndk1::allocator<AlphaUtils::ModifyLoad<myIDListLayer>::ModifyLoad(std::__ndk1::basic_string<char, std::__ndk1::char_traits<char>, std::__ndk1::allocator<char> >)::{lambda(cocos2d::CCNode*)#1}>, void (cocos2d::CCNode*)>::__clone() const
PUBLIC 69c7c 0 std::__ndk1::__function::__func<AlphaUtils::ModifyLoad<myIDListLayer>::ModifyLoad(std::__ndk1::basic_string<char, std::__ndk1::char_traits<char>, std::__ndk1::allocator<char> >)::{lambda(cocos2d::CCNode*)#1}, std::__ndk1::allocator<AlphaUtils::ModifyLoad<myIDListLayer>::ModifyLoad(std::__ndk1::basic_string<char, std::__ndk1::char_traits<char>, std::__ndk1::allocator<char> >)::{lambda(cocos2d::CCNode*)#1}>, void (cocos2d::CCNode*)>::__clone(std::__ndk1::__function::__base<void (cocos2d::CCNode*)>*) const
PUBLIC 69c8c 0 std::__ndk1::__function::__func<AlphaUtils::ModifyLoad<myIDListLayer>::ModifyLoad(std::__ndk1::basic_string<char, std::__ndk1::char_traits<char>, std::__ndk1::allocator<char> >)::{lambda(cocos2d::CCNode*)#1}, std::__ndk1::allocator<AlphaUtils::ModifyLoad<myIDListLayer>::ModifyLoad(std::__ndk1::basic_string<char, std::__ndk1::char_traits<char>, std::__ndk1::allocator<char> >)::{lambda(cocos2d::CCNode*)#1}>, void (cocos2d::CCNode*)>::destroy()
PUBLIC 69c90 0 std::__ndk1::__function::__func<AlphaUtils::ModifyLoad<myIDListLayer>::ModifyLoad(std::__ndk1::basic_string<char, std::__ndk1::char_traits<char>, std::__ndk1::allocator<char> >)::{lambda(cocos2d::CCNode*)#1}, std::__ndk1::allocator<AlphaUtils::ModifyLoad<myIDListLayer>::ModifyLoad(std::__ndk1::basic_string<char, std::__ndk1::char_traits<char>, std::__ndk1::allocator<char> >)::{lambda(cocos2d::CCNode*)#1}>, void (cocos2d::CCNode*)>::destroy_deallocate()
PUBLIC 69c94 0 std::__ndk1::__function::__func<AlphaUtils::ModifyLoad<myIDListLayer>::ModifyLoad(std::__ndk1::basic_string<char, std::__ndk1::char_traits<char>, std::__ndk1::allocator<char> >)::{lambda(cocos2d::CCNode*)#1}, std::__ndk1::allocator<AlphaUtils::ModifyLoad<myIDListLayer>::ModifyLoad(std::__ndk1::basic_string<char, std::__ndk1::char_traits<char>, std::__ndk1::allocator<char> >)::{lambda(cocos2d::CCNode*)#1}>, void (cocos2d::CCNode*)>::operator()(cocos2d::CCNode*&&)
PUBLIC 69df4 0 std::__ndk1::__function::__func<AlphaUtils::ModifyLoad<myIDListLayer>::ModifyLoad(std::__ndk1::basic_string<char, std::__ndk1::char_traits<char>, std::__ndk1::allocator<char> >)::{lambda(cocos2d::CCNode*)#1}, std::__ndk1::allocator<AlphaUtils::ModifyLoad<myIDListLayer>::ModifyLoad(std::__ndk1::basic_string<char, std::__ndk1::char_traits<char>, std::__ndk1::allocator<char> >)::{lambda(cocos2d::CCNode*)#1}>, void (cocos2d::CCNode*)>::target(std::type_info const&) const
PUBLIC 69e10 0 std::__ndk1::__function::__func<AlphaUtils::ModifyLoad<myIDListLayer>::ModifyLoad(std::__ndk1::basic_string<char, std::__ndk1::char_traits<char>, std::__ndk1::allocator<char> >)::{lambda(cocos2d::CCNode*)#1}, std::__ndk1::allocator<AlphaUtils::ModifyLoad<myIDListLayer>::ModifyLoad(std::__ndk1::basic_string<char, std::__ndk1::char_traits<char>, std::__ndk1::allocator<char> >)::{lambda(cocos2d::CCNode*)#1}>, void (cocos2d::CCNode*)>::target_type() const
PUBLIC 69e1c 0 __cxx_global_var_init
PUBLIC 69f88 0 std::__ndk1::__function::__func<AlphaUtils::ModifyLoad<myIDPackLayer>::ModifyLoad(std::__ndk1::basic_string<char, std::__ndk1::char_traits<char>, std::__ndk1::allocator<char> >)::{lambda(cocos2d::CCNode*)#1}, std::__ndk1::allocator<AlphaUtils::ModifyLoad<myIDPackLayer>::ModifyLoad(std::__ndk1::basic_string<char, std::__ndk1::char_traits<char>, std::__ndk1::allocator<char> >)::{lambda(cocos2d::CCNode*)#1}>, void (cocos2d::CCNode*)>::~__func()
PUBLIC 69f8c 0 std::__ndk1::__function::__func<AlphaUtils::ModifyLoad<myIDPackLayer>::ModifyLoad(std::__ndk1::basic_string<char, std::__ndk1::char_traits<char>, std::__ndk1::allocator<char> >)::{lambda(cocos2d::CCNode*)#1}, std::__ndk1::allocator<AlphaUtils::ModifyLoad<myIDPackLayer>::ModifyLoad(std::__ndk1::basic_string<char, std::__ndk1::char_traits<char>, std::__ndk1::allocator<char> >)::{lambda(cocos2d::CCNode*)#1}>, void (cocos2d::CCNode*)>::__clone() const
PUBLIC 69fb0 0 std::__ndk1::__function::__func<AlphaUtils::ModifyLoad<myIDPackLayer>::ModifyLoad(std::__ndk1::basic_string<char, std::__ndk1::char_traits<char>, std::__ndk1::allocator<char> >)::{lambda(cocos2d::CCNode*)#1}, std::__ndk1::allocator<AlphaUtils::ModifyLoad<myIDPackLayer>::ModifyLoad(std::__ndk1::basic_string<char, std::__ndk1::char_traits<char>, std::__ndk1::allocator<char> >)::{lambda(cocos2d::CCNode*)#1}>, void (cocos2d::CCNode*)>::__clone(std::__ndk1::__function::__base<void (cocos2d::CCNode*)>*) const
PUBLIC 69fc0 0 std::__ndk1::__function::__func<AlphaUtils::ModifyLoad<myIDPackLayer>::ModifyLoad(std::__ndk1::basic_string<char, std::__ndk1::char_traits<char>, std::__ndk1::allocator<char> >)::{lambda(cocos2d::CCNode*)#1}, std::__ndk1::allocator<AlphaUtils::ModifyLoad<myIDPackLayer>::ModifyLoad(std::__ndk1::basic_string<char, std::__ndk1::char_traits<char>, std::__ndk1::allocator<char> >)::{lambda(cocos2d::CCNode*)#1}>, void (cocos2d::CCNode*)>::destroy()
PUBLIC 69fc4 0 std::__ndk1::__function::__func<AlphaUtils::ModifyLoad<myIDPackLayer>::ModifyLoad(std::__ndk1::basic_string<char, std::__ndk1::char_traits<char>, std::__ndk1::allocator<char> >)::{lambda(cocos2d::CCNode*)#1}, std::__ndk1::allocator<AlphaUtils::ModifyLoad<myIDPackLayer>::ModifyLoad(std::__ndk1::basic_string<char, std::__ndk1::char_traits<char>, std::__ndk1::allocator<char> >)::{lambda(cocos2d::CCNode*)#1}>, void (cocos2d::CCNode*)>::destroy_deallocate()
PUBLIC 69fc8 0 std::__ndk1::__function::__func<AlphaUtils::ModifyLoad<myIDPackLayer>::ModifyLoad(std::__ndk1::basic_string<char, std::__ndk1::char_traits<char>, std::__ndk1::allocator<char> >)::{lambda(cocos2d::CCNode*)#1}, std::__ndk1::allocator<AlphaUtils::ModifyLoad<myIDPackLayer>::ModifyLoad(std::__ndk1::basic_string<char, std::__ndk1::char_traits<char>, std::__ndk1::allocator<char> >)::{lambda(cocos2d::CCNode*)#1}>, void (cocos2d::CCNode*)>::operator()(cocos2d::CCNode*&&)
PUBLIC 6a128 0 std::__ndk1::__function::__func<AlphaUtils::ModifyLoad<myIDPackLayer>::ModifyLoad(std::__ndk1::basic_string<char, std::__ndk1::char_traits<char>, std::__ndk1::allocator<char> >)::{lambda(cocos2d::CCNode*)#1}, std::__ndk1::allocator<AlphaUtils::ModifyLoad<myIDPackLayer>::ModifyLoad(std::__ndk1::basic_string<char, std::__ndk1::char_traits<char>, std::__ndk1::allocator<char> >)::{lambda(cocos2d::CCNode*)#1}>, void (cocos2d::CCNode*)>::target(std::type_info const&) const
PUBLIC 6a144 0 std::__ndk1::__function::__func<AlphaUtils::ModifyLoad<myIDPackLayer>::ModifyLoad(std::__ndk1::basic_string<char, std::__ndk1::char_traits<char>, std::__ndk1::allocator<char> >)::{lambda(cocos2d::CCNode*)#1}, std::__ndk1::allocator<AlphaUtils::ModifyLoad<myIDPackLayer>::ModifyLoad(std::__ndk1::basic_string<char, std::__ndk1::char_traits<char>, std::__ndk1::allocator<char> >)::{lambda(cocos2d::CCNode*)#1}>, void (cocos2d::CCNode*)>::target_type() const
PUBLIC 6a150 0 __cxx_global_var_init
PUBLIC 6a2c8 0 std::__ndk1::__function::__func<AlphaUtils::ModifyLoad<myServerSwitchLayer>::ModifyLoad(std::__ndk1::basic_string<char, std::__ndk1::char_traits<char>, std::__ndk1::allocator<char> >)::{lambda(cocos2d::CCNode*)#1}, std::__ndk1::allocator<AlphaUtils::ModifyLoad<myServerSwitchLayer>::ModifyLoad(std::__ndk1::basic_string<char, std::__ndk1::char_traits<char>, std::__ndk1::allocator<char> >)::{lambda(cocos2d::CCNode*)#1}>, void (cocos2d::CCNode*)>::~__func()
PUBLIC 6a2cc 0 std::__ndk1::__function::__func<AlphaUtils::ModifyLoad<myServerSwitchLayer>::ModifyLoad(std::__ndk1::basic_string<char, std::__ndk1::char_traits<char>, std::__ndk1::allocator<char> >)::{lambda(cocos2d::CCNode*)#1}, std::__ndk1::allocator<AlphaUtils::ModifyLoad<myServerSwitchLayer>::ModifyLoad(std::__ndk1::basic_string<char, std::__ndk1::char_traits<char>, std::__ndk1::allocator<char> >)::{lambda(cocos2d::CCNode*)#1}>, void (cocos2d::CCNode*)>::__clone() const
PUBLIC 6a2f0 0 std::__ndk1::__function::__func<AlphaUtils::ModifyLoad<myServerSwitchLayer>::ModifyLoad(std::__ndk1::basic_string<char, std::__ndk1::char_traits<char>, std::__ndk1::allocator<char> >)::{lambda(cocos2d::CCNode*)#1}, std::__ndk1::allocator<AlphaUtils::ModifyLoad<myServerSwitchLayer>::ModifyLoad(std::__ndk1::basic_string<char, std::__ndk1::char_traits<char>, std::__ndk1::allocator<char> >)::{lambda(cocos2d::CCNode*)#1}>, void (cocos2d::CCNode*)>::__clone(std::__ndk1::__function::__base<void (cocos2d::CCNode*)>*) const
PUBLIC 6a300 0 std::__ndk1::__function::__func<AlphaUtils::ModifyLoad<myServerSwitchLayer>::ModifyLoad(std::__ndk1::basic_string<char, std::__ndk1::char_traits<char>, std::__ndk1::allocator<char> >)::{lambda(cocos2d::CCNode*)#1}, std::__ndk1::allocator<AlphaUtils::ModifyLoad<myServerSwitchLayer>::ModifyLoad(std::__ndk1::basic_string<char, std::__ndk1::char_traits<char>, std::__ndk1::allocator<char> >)::{lambda(cocos2d::CCNode*)#1}>, void (cocos2d::CCNode*)>::destroy()
PUBLIC 6a304 0 std::__ndk1::__function::__func<AlphaUtils::ModifyLoad<myServerSwitchLayer>::ModifyLoad(std::__ndk1::basic_string<char, std::__ndk1::char_traits<char>, std::__ndk1::allocator<char> >)::{lambda(cocos2d::CCNode*)#1}, std::__ndk1::allocator<AlphaUtils::ModifyLoad<myServerSwitchLayer>::ModifyLoad(std::__ndk1::basic_string<char, std::__ndk1::char_traits<char>, std::__ndk1::allocator<char> >)::{lambda(cocos2d::CCNode*)#1}>, void (cocos2d::CCNode*)>::destroy_deallocate()
PUBLIC 6a308 0 std::__ndk1::__function::__func<AlphaUtils::ModifyLoad<myServerSwitchLayer>::ModifyLoad(std::__ndk1::basic_string<char, std::__ndk1::char_traits<char>, std::__ndk1::allocator<char> >)::{lambda(cocos2d::CCNode*)#1}, std::__ndk1::allocator<AlphaUtils::ModifyLoad<myServerSwitchLayer>::ModifyLoad(std::__ndk1::basic_string<char, std::__ndk1::char_traits<char>, std::__ndk1::allocator<char> >)::{lambda(cocos2d::CCNode*)#1}>, void (cocos2d::CCNode*)>::operator()(cocos2d::CCNode*&&)
PUBLIC 6a3e0 0 std::__ndk1::__function::__func<AlphaUtils::ModifyLoad<myServerSwitchLayer>::ModifyLoad(std::__ndk1::basic_string<char, std::__ndk1::char_traits<char>, std::__ndk1::allocator<char> >)::{lambda(cocos2d::CCNode*)#1}, std::__ndk1::allocator<AlphaUtils::ModifyLoad<myServerSwitchLayer>::ModifyLoad(std::__ndk1::basic_string<char, std::__ndk1::char_traits<char>, std::__ndk1::allocator<char> >)::{lambda(cocos2d::CCNode*)#1}>, void (cocos2d::CCNode*)>::target(std::type_info const&) const
PUBLIC 6a3fc 0 std::__ndk1::__function::__func<AlphaUtils::ModifyLoad<myServerSwitchLayer>::ModifyLoad(std::__ndk1::basic_string<char, std::__ndk1::char_traits<char>, std::__ndk1::allocator<char> >)::{lambda(cocos2d::CCNode*)#1}, std::__ndk1::allocator<AlphaUtils::ModifyLoad<myServerSwitchLayer>::ModifyLoad(std::__ndk1::basic_string<char, std::__ndk1::char_traits<char>, std::__ndk1::allocator<char> >)::{lambda(cocos2d::CCNode*)#1}>, void (cocos2d::CCNode*)>::target_type() const
PUBLIC 6a408 0 __cxx_global_var_init
PUBLIC 6a58c 0 std::__ndk1::__function::__func<AlphaUtils::ModifyLoad<myBetterAchievementLayer>::ModifyLoad(std::__ndk1::basic_string<char, std::__ndk1::char_traits<char>, std::__ndk1::allocator<char> >)::{lambda(cocos2d::CCNode*)#1}, std::__ndk1::allocator<AlphaUtils::ModifyLoad<myBetterAchievementLayer>::ModifyLoad(std::__ndk1::basic_string<char, std::__ndk1::char_traits<char>, std::__ndk1::allocator<char> >)::{lambda(cocos2d::CCNode*)#1}>, void (cocos2d::CCNode*)>::~__func()
PUBLIC 6a590 0 std::__ndk1::__function::__func<AlphaUtils::ModifyLoad<myBetterAchievementLayer>::ModifyLoad(std::__ndk1::basic_string<char, std::__ndk1::char_traits<char>, std::__ndk1::allocator<char> >)::{lambda(cocos2d::CCNode*)#1}, std::__ndk1::allocator<AlphaUtils::ModifyLoad<myBetterAchievementLayer>::ModifyLoad(std::__ndk1::basic_string<char, std::__ndk1::char_traits<char>, std::__ndk1::allocator<char> >)::{lambda(cocos2d::CCNode*)#1}>, void (cocos2d::CCNode*)>::__clone() const
PUBLIC 6a5b4 0 std::__ndk1::__function::__func<AlphaUtils::ModifyLoad<myBetterAchievementLayer>::ModifyLoad(std::__ndk1::basic_string<char, std::__ndk1::char_traits<char>, std::__ndk1::allocator<char> >)::{lambda(cocos2d::CCNode*)#1}, std::__ndk1::allocator<AlphaUtils::ModifyLoad<myBetterAchievementLayer>::ModifyLoad(std::__ndk1::basic_string<char, std::__ndk1::char_traits<char>, std::__ndk1::allocator<char> >)::{lambda(cocos2d::CCNode*)#1}>, void (cocos2d::CCNode*)>::__clone(std::__ndk1::__function::__base<void (cocos2d::CCNode*)>*) const
PUBLIC 6a5c4 0 std::__ndk1::__function::__func<AlphaUtils::ModifyLoad<myBetterAchievementLayer>::ModifyLoad(std::__ndk1::basic_string<char, std::__ndk1::char_traits<char>, std::__ndk1::allocator<char> >)::{lambda(cocos2d::CCNode*)#1}, std::__ndk1::allocator<AlphaUtils::ModifyLoad<myBetterAchievementLayer>::ModifyLoad(std::__ndk1::basic_string<char, std::__ndk1::char_traits<char>, std::__ndk1::allocator<char> >)::{lambda(cocos2d::CCNode*)#1}>, void (cocos2d::CCNode*)>::destroy()
PUBLIC 6a5c8 0 std::__ndk1::__function::__func<AlphaUtils::ModifyLoad<myBetterAchievementLayer>::ModifyLoad(std::__ndk1::basic_string<char, std::__ndk1::char_traits<char>, std::__ndk1::allocator<char> >)::{lambda(cocos2d::CCNode*)#1}, std::__ndk1::allocator<AlphaUtils::ModifyLoad<myBetterAchievementLayer>::ModifyLoad(std::__ndk1::basic_string<char, std::__ndk1::char_traits<char>, std::__ndk1::allocator<char> >)::{lambda(cocos2d::CCNode*)#1}>, void (cocos2d::CCNode*)>::destroy_deallocate()
PUBLIC 6a5cc 0 std::__ndk1::__function::__func<AlphaUtils::ModifyLoad<myBetterAchievementLayer>::ModifyLoad(std::__ndk1::basic_string<char, std::__ndk1::char_traits<char>, std::__ndk1::allocator<char> >)::{lambda(cocos2d::CCNode*)#1}, std::__ndk1::allocator<AlphaUtils::ModifyLoad<myBetterAchievementLayer>::ModifyLoad(std::__ndk1::basic_string<char, std::__ndk1::char_traits<char>, std::__ndk1::allocator<char> >)::{lambda(cocos2d::CCNode*)#1}>, void (cocos2d::CCNode*)>::operator()(cocos2d::CCNode*&&)
PUBLIC 6a6a4 0 std::__ndk1::__function::__func<AlphaUtils::ModifyLoad<myBetterAchievementLayer>::ModifyLoad(std::__ndk1::basic_string<char, std::__ndk1::char_traits<char>, std::__ndk1::allocator<char> >)::{lambda(cocos2d::CCNode*)#1}, std::__ndk1::allocator<AlphaUtils::ModifyLoad<myBetterAchievementLayer>::ModifyLoad(std::__ndk1::basic_string<char, std::__ndk1::char_traits<char>, std::__ndk1::allocator<char> >)::{lambda(cocos2d::CCNode*)#1}>, void (cocos2d::CCNode*)>::target(std::type_info const&) const
PUBLIC 6a6c0 0 std::__ndk1::__function::__func<AlphaUtils::ModifyLoad<myBetterAchievementLayer>::ModifyLoad(std::__ndk1::basic_string<char, std::__ndk1::char_traits<char>, std::__ndk1::allocator<char> >)::{lambda(cocos2d::CCNode*)#1}, std::__ndk1::allocator<AlphaUtils::ModifyLoad<myBetterAchievementLayer>::ModifyLoad(std::__ndk1::basic_string<char, std::__ndk1::char_traits<char>, std::__ndk1::allocator<char> >)::{lambda(cocos2d::CCNode*)#1}>, void (cocos2d::CCNode*)>::target_type() const
PUBLIC 6a6cc 0 __cxx_global_var_init
PUBLIC 6a830 0 std::__ndk1::__function::__func<AlphaUtils::ModifyLoad<myDPLayer>::ModifyLoad(std::__ndk1::basic_string<char, std::__ndk1::char_traits<char>, std::__ndk1::allocator<char> >)::{lambda(cocos2d::CCNode*)#1}, std::__ndk1::allocator<AlphaUtils::ModifyLoad<myDPLayer>::ModifyLoad(std::__ndk1::basic_string<char, std::__ndk1::char_traits<char>, std::__ndk1::allocator<char> >)::{lambda(cocos2d::CCNode*)#1}>, void (cocos2d::CCNode*)>::~__func()
PUBLIC 6a834 0 std::__ndk1::__function::__func<AlphaUtils::ModifyLoad<myDPLayer>::ModifyLoad(std::__ndk1::basic_string<char, std::__ndk1::char_traits<char>, std::__ndk1::allocator<char> >)::{lambda(cocos2d::CCNode*)#1}, std::__ndk1::allocator<AlphaUtils::ModifyLoad<myDPLayer>::ModifyLoad(std::__ndk1::basic_string<char, std::__ndk1::char_traits<char>, std::__ndk1::allocator<char> >)::{lambda(cocos2d::CCNode*)#1}>, void (cocos2d::CCNode*)>::__clone() const
PUBLIC 6a858 0 std::__ndk1::__function::__func<AlphaUtils::ModifyLoad<myDPLayer>::ModifyLoad(std::__ndk1::basic_string<char, std::__ndk1::char_traits<char>, std::__ndk1::allocator<char> >)::{lambda(cocos2d::CCNode*)#1}, std::__ndk1::allocator<AlphaUtils::ModifyLoad<myDPLayer>::ModifyLoad(std::__ndk1::basic_string<char, std::__ndk1::char_traits<char>, std::__ndk1::allocator<char> >)::{lambda(cocos2d::CCNode*)#1}>, void (cocos2d::CCNode*)>::__clone(std::__ndk1::__function::__base<void (cocos2d::CCNode*)>*) const
PUBLIC 6a868 0 std::__ndk1::__function::__func<AlphaUtils::ModifyLoad<myDPLayer>::ModifyLoad(std::__ndk1::basic_string<char, std::__ndk1::char_traits<char>, std::__ndk1::allocator<char> >)::{lambda(cocos2d::CCNode*)#1}, std::__ndk1::allocator<AlphaUtils::ModifyLoad<myDPLayer>::ModifyLoad(std::__ndk1::basic_string<char, std::__ndk1::char_traits<char>, std::__ndk1::allocator<char> >)::{lambda(cocos2d::CCNode*)#1}>, void (cocos2d::CCNode*)>::destroy()
PUBLIC 6a86c 0 std::__ndk1::__function::__func<AlphaUtils::ModifyLoad<myDPLayer>::ModifyLoad(std::__ndk1::basic_string<char, std::__ndk1::char_traits<char>, std::__ndk1::allocator<char> >)::{lambda(cocos2d::CCNode*)#1}, std::__ndk1::allocator<AlphaUtils::ModifyLoad<myDPLayer>::ModifyLoad(std::__ndk1::basic_string<char, std::__ndk1::char_traits<char>, std::__ndk1::allocator<char> >)::{lambda(cocos2d::CCNode*)#1}>, void (cocos2d::CCNode*)>::destroy_deallocate()
PUBLIC 6a870 0 std::__ndk1::__function::__func<AlphaUtils::ModifyLoad<myDPLayer>::ModifyLoad(std::__ndk1::basic_string<char, std::__ndk1::char_traits<char>, std::__ndk1::allocator<char> >)::{lambda(cocos2d::CCNode*)#1}, std::__ndk1::allocator<AlphaUtils::ModifyLoad<myDPLayer>::ModifyLoad(std::__ndk1::basic_string<char, std::__ndk1::char_traits<char>, std::__ndk1::allocator<char> >)::{lambda(cocos2d::CCNode*)#1}>, void (cocos2d::CCNode*)>::operator()(cocos2d::CCNode*&&)
PUBLIC 6a948 0 std::__ndk1::__function::__func<AlphaUtils::ModifyLoad<myDPLayer>::ModifyLoad(std::__ndk1::basic_string<char, std::__ndk1::char_traits<char>, std::__ndk1::allocator<char> >)::{lambda(cocos2d::CCNode*)#1}, std::__ndk1::allocator<AlphaUtils::ModifyLoad<myDPLayer>::ModifyLoad(std::__ndk1::basic_string<char, std::__ndk1::char_traits<char>, std::__ndk1::allocator<char> >)::{lambda(cocos2d::CCNode*)#1}>, void (cocos2d::CCNode*)>::target(std::type_info const&) const
PUBLIC 6a964 0 std::__ndk1::__function::__func<AlphaUtils::ModifyLoad<myDPLayer>::ModifyLoad(std::__ndk1::basic_string<char, std::__ndk1::char_traits<char>, std::__ndk1::allocator<char> >)::{lambda(cocos2d::CCNode*)#1}, std::__ndk1::allocator<AlphaUtils::ModifyLoad<myDPLayer>::ModifyLoad(std::__ndk1::basic_string<char, std::__ndk1::char_traits<char>, std::__ndk1::allocator<char> >)::{lambda(cocos2d::CCNode*)#1}>, void (cocos2d::CCNode*)>::target_type() const
PUBLIC 6a970 0 __cxx_global_var_init
PUBLIC 6aadc 0 std::__ndk1::__function::__func<AlphaUtils::ModifyLoad<myDPListLayer>::ModifyLoad(std::__ndk1::basic_string<char, std::__ndk1::char_traits<char>, std::__ndk1::allocator<char> >)::{lambda(cocos2d::CCNode*)#1}, std::__ndk1::allocator<AlphaUtils::ModifyLoad<myDPListLayer>::ModifyLoad(std::__ndk1::basic_string<char, std::__ndk1::char_traits<char>, std::__ndk1::allocator<char> >)::{lambda(cocos2d::CCNode*)#1}>, void (cocos2d::CCNode*)>::~__func()
PUBLIC 6aae0 0 std::__ndk1::__function::__func<AlphaUtils::ModifyLoad<myDPListLayer>::ModifyLoad(std::__ndk1::basic_string<char, std::__ndk1::char_traits<char>, std::__ndk1::allocator<char> >)::{lambda(cocos2d::CCNode*)#1}, std::__ndk1::allocator<AlphaUtils::ModifyLoad<myDPListLayer>::ModifyLoad(std::__ndk1::basic_string<char, std::__ndk1::char_traits<char>, std::__ndk1::allocator<char> >)::{lambda(cocos2d::CCNode*)#1}>, void (cocos2d::CCNode*)>::__clone() const
PUBLIC 6ab04 0 std::__ndk1::__function::__func<AlphaUtils::ModifyLoad<myDPListLayer>::ModifyLoad(std::__ndk1::basic_string<char, std::__ndk1::char_traits<char>, std::__ndk1::allocator<char> >)::{lambda(cocos2d::CCNode*)#1}, std::__ndk1::allocator<AlphaUtils::ModifyLoad<myDPListLayer>::ModifyLoad(std::__ndk1::basic_string<char, std::__ndk1::char_traits<char>, std::__ndk1::allocator<char> >)::{lambda(cocos2d::CCNode*)#1}>, void (cocos2d::CCNode*)>::__clone(std::__ndk1::__function::__base<void (cocos2d::CCNode*)>*) const
PUBLIC 6ab14 0 std::__ndk1::__function::__func<AlphaUtils::ModifyLoad<myDPListLayer>::ModifyLoad(std::__ndk1::basic_string<char, std::__ndk1::char_traits<char>, std::__ndk1::allocator<char> >)::{lambda(cocos2d::CCNode*)#1}, std::__ndk1::allocator<AlphaUtils::ModifyLoad<myDPListLayer>::ModifyLoad(std::__ndk1::basic_string<char, std::__ndk1::char_traits<char>, std::__ndk1::allocator<char> >)::{lambda(cocos2d::CCNode*)#1}>, void (cocos2d::CCNode*)>::destroy()
PUBLIC 6ab18 0 std::__ndk1::__function::__func<AlphaUtils::ModifyLoad<myDPListLayer>::ModifyLoad(std::__ndk1::basic_string<char, std::__ndk1::char_traits<char>, std::__ndk1::allocator<char> >)::{lambda(cocos2d::CCNode*)#1}, std::__ndk1::allocator<AlphaUtils::ModifyLoad<myDPListLayer>::ModifyLoad(std::__ndk1::basic_string<char, std::__ndk1::char_traits<char>, std::__ndk1::allocator<char> >)::{lambda(cocos2d::CCNode*)#1}>, void (cocos2d::CCNode*)>::destroy_deallocate()
PUBLIC 6ab1c 0 std::__ndk1::__function::__func<AlphaUtils::ModifyLoad<myDPListLayer>::ModifyLoad(std::__ndk1::basic_string<char, std::__ndk1::char_traits<char>, std::__ndk1::allocator<char> >)::{lambda(cocos2d::CCNode*)#1}, std::__ndk1::allocator<AlphaUtils::ModifyLoad<myDPListLayer>::ModifyLoad(std::__ndk1::basic_string<char, std::__ndk1::char_traits<char>, std::__ndk1::allocator<char> >)::{lambda(cocos2d::CCNode*)#1}>, void (cocos2d::CCNode*)>::operator()(cocos2d::CCNode*&&)
PUBLIC 6abf4 0 std::__ndk1::__function::__func<AlphaUtils::ModifyLoad<myDPListLayer>::ModifyLoad(std::__ndk1::basic_string<char, std::__ndk1::char_traits<char>, std::__ndk1::allocator<char> >)::{lambda(cocos2d::CCNode*)#1}, std::__ndk1::allocator<AlphaUtils::ModifyLoad<myDPListLayer>::ModifyLoad(std::__ndk1::basic_string<char, std::__ndk1::char_traits<char>, std::__ndk1::allocator<char> >)::{lambda(cocos2d::CCNode*)#1}>, void (cocos2d::CCNode*)>::target(std::type_info const&) const
PUBLIC 6ac10 0 std::__ndk1::__function::__func<AlphaUtils::ModifyLoad<myDPListLayer>::ModifyLoad(std::__ndk1::basic_string<char, std::__ndk1::char_traits<char>, std::__ndk1::allocator<char> >)::{lambda(cocos2d::CCNode*)#1}, std::__ndk1::allocator<AlphaUtils::ModifyLoad<myDPListLayer>::ModifyLoad(std::__ndk1::basic_string<char, std::__ndk1::char_traits<char>, std::__ndk1::allocator<char> >)::{lambda(cocos2d::CCNode*)#1}>, void (cocos2d::CCNode*)>::target_type() const
PUBLIC 6ac1c 0 __cxx_global_var_init
PUBLIC 6ad8c 0 std::__ndk1::__function::__func<AlphaUtils::ModifyLoad<myDPSearchLayer>::ModifyLoad(std::__ndk1::basic_string<char, std::__ndk1::char_traits<char>, std::__ndk1::allocator<char> >)::{lambda(cocos2d::CCNode*)#1}, std::__ndk1::allocator<AlphaUtils::ModifyLoad<myDPSearchLayer>::ModifyLoad(std::__ndk1::basic_string<char, std::__ndk1::char_traits<char>, std::__ndk1::allocator<char> >)::{lambda(cocos2d::CCNode*)#1}>, void (cocos2d::CCNode*)>::~__func()
PUBLIC 6ad90 0 std::__ndk1::__function::__func<AlphaUtils::ModifyLoad<myDPSearchLayer>::ModifyLoad(std::__ndk1::basic_string<char, std::__ndk1::char_traits<char>, std::__ndk1::allocator<char> >)::{lambda(cocos2d::CCNode*)#1}, std::__ndk1::allocator<AlphaUtils::ModifyLoad<myDPSearchLayer>::ModifyLoad(std::__ndk1::basic_string<char, std::__ndk1::char_traits<char>, std::__ndk1::allocator<char> >)::{lambda(cocos2d::CCNode*)#1}>, void (cocos2d::CCNode*)>::__clone() const
PUBLIC 6adb4 0 std::__ndk1::__function::__func<AlphaUtils::ModifyLoad<myDPSearchLayer>::ModifyLoad(std::__ndk1::basic_string<char, std::__ndk1::char_traits<char>, std::__ndk1::allocator<char> >)::{lambda(cocos2d::CCNode*)#1}, std::__ndk1::allocator<AlphaUtils::ModifyLoad<myDPSearchLayer>::ModifyLoad(std::__ndk1::basic_string<char, std::__ndk1::char_traits<char>, std::__ndk1::allocator<char> >)::{lambda(cocos2d::CCNode*)#1}>, void (cocos2d::CCNode*)>::__clone(std::__ndk1::__function::__base<void (cocos2d::CCNode*)>*) const
PUBLIC 6adc4 0 std::__ndk1::__function::__func<AlphaUtils::ModifyLoad<myDPSearchLayer>::ModifyLoad(std::__ndk1::basic_string<char, std::__ndk1::char_traits<char>, std::__ndk1::allocator<char> >)::{lambda(cocos2d::CCNode*)#1}, std::__ndk1::allocator<AlphaUtils::ModifyLoad<myDPSearchLayer>::ModifyLoad(std::__ndk1::basic_string<char, std::__ndk1::char_traits<char>, std::__ndk1::allocator<char> >)::{lambda(cocos2d::CCNode*)#1}>, void (cocos2d::CCNode*)>::destroy()
PUBLIC 6adc8 0 std::__ndk1::__function::__func<AlphaUtils::ModifyLoad<myDPSearchLayer>::ModifyLoad(std::__ndk1::basic_string<char, std::__ndk1::char_traits<char>, std::__ndk1::allocator<char> >)::{lambda(cocos2d::CCNode*)#1}, std::__ndk1::allocator<AlphaUtils::ModifyLoad<myDPSearchLayer>::ModifyLoad(std::__ndk1::basic_string<char, std::__ndk1::char_traits<char>, std::__ndk1::allocator<char> >)::{lambda(cocos2d::CCNode*)#1}>, void (cocos2d::CCNode*)>::destroy_deallocate()
PUBLIC 6adcc 0 std::__ndk1::__function::__func<AlphaUtils::ModifyLoad<myDPSearchLayer>::ModifyLoad(std::__ndk1::basic_string<char, std::__ndk1::char_traits<char>, std::__ndk1::allocator<char> >)::{lambda(cocos2d::CCNode*)#1}, std::__ndk1::allocator<AlphaUtils::ModifyLoad<myDPSearchLayer>::ModifyLoad(std::__ndk1::basic_string<char, std::__ndk1::char_traits<char>, std::__ndk1::allocator<char> >)::{lambda(cocos2d::CCNode*)#1}>, void (cocos2d::CCNode*)>::operator()(cocos2d::CCNode*&&)
PUBLIC 6aea4 0 std::__ndk1::__function::__func<AlphaUtils::ModifyLoad<myDPSearchLayer>::ModifyLoad(std::__ndk1::basic_string<char, std::__ndk1::char_traits<char>, std::__ndk1::allocator<char> >)::{lambda(cocos2d::CCNode*)#1}, std::__ndk1::allocator<AlphaUtils::ModifyLoad<myDPSearchLayer>::ModifyLoad(std::__ndk1::basic_string<char, std::__ndk1::char_traits<char>, std::__ndk1::allocator<char> >)::{lambda(cocos2d::CCNode*)#1}>, void (cocos2d::CCNode*)>::target(std::type_info const&) const
PUBLIC 6aec0 0 std::__ndk1::__function::__func<AlphaUtils::ModifyLoad<myDPSearchLayer>::ModifyLoad(std::__ndk1::basic_string<char, std::__ndk1::char_traits<char>, std::__ndk1::allocator<char> >)::{lambda(cocos2d::CCNode*)#1}, std::__ndk1::allocator<AlphaUtils::ModifyLoad<myDPSearchLayer>::ModifyLoad(std::__ndk1::basic_string<char, std::__ndk1::char_traits<char>, std::__ndk1::allocator<char> >)::{lambda(cocos2d::CCNode*)#1}>, void (cocos2d::CCNode*)>::target_type() const
PUBLIC 6aecc 0 __cxx_global_var_init
PUBLIC 6b044 0 std::__ndk1::__function::__func<AlphaUtils::ModifyLoad<myRecommendedLayer>::ModifyLoad(std::__ndk1::basic_string<char, std::__ndk1::char_traits<char>, std::__ndk1::allocator<char> >)::{lambda(cocos2d::CCNode*)#1}, std::__ndk1::allocator<AlphaUtils::ModifyLoad<myRecommendedLayer>::ModifyLoad(std::__ndk1::basic_string<char, std::__ndk1::char_traits<char>, std::__ndk1::allocator<char> >)::{lambda(cocos2d::CCNode*)#1}>, void (cocos2d::CCNode*)>::~__func()
PUBLIC 6b048 0 std::__ndk1::__function::__func<AlphaUtils::ModifyLoad<myRecommendedLayer>::ModifyLoad(std::__ndk1::basic_string<char, std::__ndk1::char_traits<char>, std::__ndk1::allocator<char> >)::{lambda(cocos2d::CCNode*)#1}, std::__ndk1::allocator<AlphaUtils::ModifyLoad<myRecommendedLayer>::ModifyLoad(std::__ndk1::basic_string<char, std::__ndk1::char_traits<char>, std::__ndk1::allocator<char> >)::{lambda(cocos2d::CCNode*)#1}>, void (cocos2d::CCNode*)>::__clone() const
PUBLIC 6b06c 0 std::__ndk1::__function::__func<AlphaUtils::ModifyLoad<myRecommendedLayer>::ModifyLoad(std::__ndk1::basic_string<char, std::__ndk1::char_traits<char>, std::__ndk1::allocator<char> >)::{lambda(cocos2d::CCNode*)#1}, std::__ndk1::allocator<AlphaUtils::ModifyLoad<myRecommendedLayer>::ModifyLoad(std::__ndk1::basic_string<char, std::__ndk1::char_traits<char>, std::__ndk1::allocator<char> >)::{lambda(cocos2d::CCNode*)#1}>, void (cocos2d::CCNode*)>::__clone(std::__ndk1::__function::__base<void (cocos2d::CCNode*)>*) const
PUBLIC 6b07c 0 std::__ndk1::__function::__func<AlphaUtils::ModifyLoad<myRecommendedLayer>::ModifyLoad(std::__ndk1::basic_string<char, std::__ndk1::char_traits<char>, std::__ndk1::allocator<char> >)::{lambda(cocos2d::CCNode*)#1}, std::__ndk1::allocator<AlphaUtils::ModifyLoad<myRecommendedLayer>::ModifyLoad(std::__ndk1::basic_string<char, std::__ndk1::char_traits<char>, std::__ndk1::allocator<char> >)::{lambda(cocos2d::CCNode*)#1}>, void (cocos2d::CCNode*)>::destroy()
PUBLIC 6b080 0 std::__ndk1::__function::__func<AlphaUtils::ModifyLoad<myRecommendedLayer>::ModifyLoad(std::__ndk1::basic_string<char, std::__ndk1::char_traits<char>, std::__ndk1::allocator<char> >)::{lambda(cocos2d::CCNode*)#1}, std::__ndk1::allocator<AlphaUtils::ModifyLoad<myRecommendedLayer>::ModifyLoad(std::__ndk1::basic_string<char, std::__ndk1::char_traits<char>, std::__ndk1::allocator<char> >)::{lambda(cocos2d::CCNode*)#1}>, void (cocos2d::CCNode*)>::destroy_deallocate()
PUBLIC 6b084 0 std::__ndk1::__function::__func<AlphaUtils::ModifyLoad<myRecommendedLayer>::ModifyLoad(std::__ndk1::basic_string<char, std::__ndk1::char_traits<char>, std::__ndk1::allocator<char> >)::{lambda(cocos2d::CCNode*)#1}, std::__ndk1::allocator<AlphaUtils::ModifyLoad<myRecommendedLayer>::ModifyLoad(std::__ndk1::basic_string<char, std::__ndk1::char_traits<char>, std::__ndk1::allocator<char> >)::{lambda(cocos2d::CCNode*)#1}>, void (cocos2d::CCNode*)>::operator()(cocos2d::CCNode*&&)
PUBLIC 6b15c 0 std::__ndk1::__function::__func<AlphaUtils::ModifyLoad<myRecommendedLayer>::ModifyLoad(std::__ndk1::basic_string<char, std::__ndk1::char_traits<char>, std::__ndk1::allocator<char> >)::{lambda(cocos2d::CCNode*)#1}, std::__ndk1::allocator<AlphaUtils::ModifyLoad<myRecommendedLayer>::ModifyLoad(std::__ndk1::basic_string<char, std::__ndk1::char_traits<char>, std::__ndk1::allocator<char> >)::{lambda(cocos2d::CCNode*)#1}>, void (cocos2d::CCNode*)>::target(std::type_info const&) const
PUBLIC 6b178 0 std::__ndk1::__function::__func<AlphaUtils::ModifyLoad<myRecommendedLayer>::ModifyLoad(std::__ndk1::basic_string<char, std::__ndk1::char_traits<char>, std::__ndk1::allocator<char> >)::{lambda(cocos2d::CCNode*)#1}, std::__ndk1::allocator<AlphaUtils::ModifyLoad<myRecommendedLayer>::ModifyLoad(std::__ndk1::basic_string<char, std::__ndk1::char_traits<char>, std::__ndk1::allocator<char> >)::{lambda(cocos2d::CCNode*)#1}>, void (cocos2d::CCNode*)>::target_type() const
PUBLIC 6b184 0 __cxx_global_var_init
PUBLIC 6b2fc 0 std::__ndk1::__function::__func<AlphaUtils::ModifyLoad<myRouletteSafeLayer>::ModifyLoad(std::__ndk1::basic_string<char, std::__ndk1::char_traits<char>, std::__ndk1::allocator<char> >)::{lambda(cocos2d::CCNode*)#1}, std::__ndk1::allocator<AlphaUtils::ModifyLoad<myRouletteSafeLayer>::ModifyLoad(std::__ndk1::basic_string<char, std::__ndk1::char_traits<char>, std::__ndk1::allocator<char> >)::{lambda(cocos2d::CCNode*)#1}>, void (cocos2d::CCNode*)>::~__func()
PUBLIC 6b300 0 std::__ndk1::__function::__func<AlphaUtils::ModifyLoad<myRouletteSafeLayer>::ModifyLoad(std::__ndk1::basic_string<char, std::__ndk1::char_traits<char>, std::__ndk1::allocator<char> >)::{lambda(cocos2d::CCNode*)#1}, std::__ndk1::allocator<AlphaUtils::ModifyLoad<myRouletteSafeLayer>::ModifyLoad(std::__ndk1::basic_string<char, std::__ndk1::char_traits<char>, std::__ndk1::allocator<char> >)::{lambda(cocos2d::CCNode*)#1}>, void (cocos2d::CCNode*)>::__clone() const
PUBLIC 6b324 0 std::__ndk1::__function::__func<AlphaUtils::ModifyLoad<myRouletteSafeLayer>::ModifyLoad(std::__ndk1::basic_string<char, std::__ndk1::char_traits<char>, std::__ndk1::allocator<char> >)::{lambda(cocos2d::CCNode*)#1}, std::__ndk1::allocator<AlphaUtils::ModifyLoad<myRouletteSafeLayer>::ModifyLoad(std::__ndk1::basic_string<char, std::__ndk1::char_traits<char>, std::__ndk1::allocator<char> >)::{lambda(cocos2d::CCNode*)#1}>, void (cocos2d::CCNode*)>::__clone(std::__ndk1::__function::__base<void (cocos2d::CCNode*)>*) const
PUBLIC 6b334 0 std::__ndk1::__function::__func<AlphaUtils::ModifyLoad<myRouletteSafeLayer>::ModifyLoad(std::__ndk1::basic_string<char, std::__ndk1::char_traits<char>, std::__ndk1::allocator<char> >)::{lambda(cocos2d::CCNode*)#1}, std::__ndk1::allocator<AlphaUtils::ModifyLoad<myRouletteSafeLayer>::ModifyLoad(std::__ndk1::basic_string<char, std::__ndk1::char_traits<char>, std::__ndk1::allocator<char> >)::{lambda(cocos2d::CCNode*)#1}>, void (cocos2d::CCNode*)>::destroy()
PUBLIC 6b338 0 std::__ndk1::__function::__func<AlphaUtils::ModifyLoad<myRouletteSafeLayer>::ModifyLoad(std::__ndk1::basic_string<char, std::__ndk1::char_traits<char>, std::__ndk1::allocator<char> >)::{lambda(cocos2d::CCNode*)#1}, std::__ndk1::allocator<AlphaUtils::ModifyLoad<myRouletteSafeLayer>::ModifyLoad(std::__ndk1::basic_string<char, std::__ndk1::char_traits<char>, std::__ndk1::allocator<char> >)::{lambda(cocos2d::CCNode*)#1}>, void (cocos2d::CCNode*)>::destroy_deallocate()
PUBLIC 6b33c 0 std::__ndk1::__function::__func<AlphaUtils::ModifyLoad<myRouletteSafeLayer>::ModifyLoad(std::__ndk1::basic_string<char, std::__ndk1::char_traits<char>, std::__ndk1::allocator<char> >)::{lambda(cocos2d::CCNode*)#1}, std::__ndk1::allocator<AlphaUtils::ModifyLoad<myRouletteSafeLayer>::ModifyLoad(std::__ndk1::basic_string<char, std::__ndk1::char_traits<char>, std::__ndk1::allocator<char> >)::{lambda(cocos2d::CCNode*)#1}>, void (cocos2d::CCNode*)>::operator()(cocos2d::CCNode*&&)
PUBLIC 6b414 0 std::__ndk1::__function::__func<AlphaUtils::ModifyLoad<myRouletteSafeLayer>::ModifyLoad(std::__ndk1::basic_string<char, std::__ndk1::char_traits<char>, std::__ndk1::allocator<char> >)::{lambda(cocos2d::CCNode*)#1}, std::__ndk1::allocator<AlphaUtils::ModifyLoad<myRouletteSafeLayer>::ModifyLoad(std::__ndk1::basic_string<char, std::__ndk1::char_traits<char>, std::__ndk1::allocator<char> >)::{lambda(cocos2d::CCNode*)#1}>, void (cocos2d::CCNode*)>::target(std::type_info const&) const
PUBLIC 6b430 0 std::__ndk1::__function::__func<AlphaUtils::ModifyLoad<myRouletteSafeLayer>::ModifyLoad(std::__ndk1::basic_string<char, std::__ndk1::char_traits<char>, std::__ndk1::allocator<char> >)::{lambda(cocos2d::CCNode*)#1}, std::__ndk1::allocator<AlphaUtils::ModifyLoad<myRouletteSafeLayer>::ModifyLoad(std::__ndk1::basic_string<char, std::__ndk1::char_traits<char>, std::__ndk1::allocator<char> >)::{lambda(cocos2d::CCNode*)#1}>, void (cocos2d::CCNode*)>::target_type() const
PUBLIC 6b43c 0 __cxx_global_var_init
PUBLIC 6b524 0 AlphaUtils::ModifyLoad<hook7>::ModifyLoad(std::__ndk1::basic_string<char, std::__ndk1::char_traits<char>, std::__ndk1::allocator<char> >)
PUBLIC 6b670 0 std::__ndk1::__function::__func<AlphaUtils::ModifyLoad<hook7>::ModifyLoad(std::__ndk1::basic_string<char, std::__ndk1::char_traits<char>, std::__ndk1::allocator<char> >)::{lambda(cocos2d::CCNode*)#1}, std::__ndk1::allocator<AlphaUtils::ModifyLoad<hook7>::ModifyLoad(std::__ndk1::basic_string<char, std::__ndk1::char_traits<char>, std::__ndk1::allocator<char> >)::{lambda(cocos2d::CCNode*)#1}>, void (cocos2d::CCNode*)>::~__func()
PUBLIC 6b674 0 std::__ndk1::__function::__func<AlphaUtils::ModifyLoad<hook7>::ModifyLoad(std::__ndk1::basic_string<char, std::__ndk1::char_traits<char>, std::__ndk1::allocator<char> >)::{lambda(cocos2d::CCNode*)#1}, std::__ndk1::allocator<AlphaUtils::ModifyLoad<hook7>::ModifyLoad(std::__ndk1::basic_string<char, std::__ndk1::char_traits<char>, std::__ndk1::allocator<char> >)::{lambda(cocos2d::CCNode*)#1}>, void (cocos2d::CCNode*)>::__clone() const
PUBLIC 6b698 0 std::__ndk1::__function::__func<AlphaUtils::ModifyLoad<hook7>::ModifyLoad(std::__ndk1::basic_string<char, std::__ndk1::char_traits<char>, std::__ndk1::allocator<char> >)::{lambda(cocos2d::CCNode*)#1}, std::__ndk1::allocator<AlphaUtils::ModifyLoad<hook7>::ModifyLoad(std::__ndk1::basic_string<char, std::__ndk1::char_traits<char>, std::__ndk1::allocator<char> >)::{lambda(cocos2d::CCNode*)#1}>, void (cocos2d::CCNode*)>::__clone(std::__ndk1::__function::__base<void (cocos2d::CCNode*)>*) const
PUBLIC 6b6a8 0 std::__ndk1::__function::__func<AlphaUtils::ModifyLoad<hook7>::ModifyLoad(std::__ndk1::basic_string<char, std::__ndk1::char_traits<char>, std::__ndk1::allocator<char> >)::{lambda(cocos2d::CCNode*)#1}, std::__ndk1::allocator<AlphaUtils::ModifyLoad<hook7>::ModifyLoad(std::__ndk1::basic_string<char, std::__ndk1::char_traits<char>, std::__ndk1::allocator<char> >)::{lambda(cocos2d::CCNode*)#1}>, void (cocos2d::CCNode*)>::destroy()
PUBLIC 6b6ac 0 std::__ndk1::__function::__func<AlphaUtils::ModifyLoad<hook7>::ModifyLoad(std::__ndk1::basic_string<char, std::__ndk1::char_traits<char>, std::__ndk1::allocator<char> >)::{lambda(cocos2d::CCNode*)#1}, std::__ndk1::allocator<AlphaUtils::ModifyLoad<hook7>::ModifyLoad(std::__ndk1::basic_string<char, std::__ndk1::char_traits<char>, std::__ndk1::allocator<char> >)::{lambda(cocos2d::CCNode*)#1}>, void (cocos2d::CCNode*)>::destroy_deallocate()
PUBLIC 6b6b0 0 std::__ndk1::__function::__func<AlphaUtils::ModifyLoad<hook7>::ModifyLoad(std::__ndk1::basic_string<char, std::__ndk1::char_traits<char>, std::__ndk1::allocator<char> >)::{lambda(cocos2d::CCNode*)#1}, std::__ndk1::allocator<AlphaUtils::ModifyLoad<hook7>::ModifyLoad(std::__ndk1::basic_string<char, std::__ndk1::char_traits<char>, std::__ndk1::allocator<char> >)::{lambda(cocos2d::CCNode*)#1}>, void (cocos2d::CCNode*)>::operator()(cocos2d::CCNode*&&)
PUBLIC 6b6b8 0 std::__ndk1::__function::__func<AlphaUtils::ModifyLoad<hook7>::ModifyLoad(std::__ndk1::basic_string<char, std::__ndk1::char_traits<char>, std::__ndk1::allocator<char> >)::{lambda(cocos2d::CCNode*)#1}, std::__ndk1::allocator<AlphaUtils::ModifyLoad<hook7>::ModifyLoad(std::__ndk1::basic_string<char, std::__ndk1::char_traits<char>, std::__ndk1::allocator<char> >)::{lambda(cocos2d::CCNode*)#1}>, void (cocos2d::CCNode*)>::target(std::type_info const&) const
PUBLIC 6b6d4 0 std::__ndk1::__function::__func<AlphaUtils::ModifyLoad<hook7>::ModifyLoad(std::__ndk1::basic_string<char, std::__ndk1::char_traits<char>, std::__ndk1::allocator<char> >)::{lambda(cocos2d::CCNode*)#1}, std::__ndk1::allocator<AlphaUtils::ModifyLoad<hook7>::ModifyLoad(std::__ndk1::basic_string<char, std::__ndk1::char_traits<char>, std::__ndk1::allocator<char> >)::{lambda(cocos2d::CCNode*)#1}>, void (cocos2d::CCNode*)>::target_type() const
PUBLIC 6b6e0 0 hook7::modify()
PUBLIC 6b7cc 0 __cxx_global_var_init
PUBLIC 6b938 0 std::__ndk1::__function::__func<AlphaUtils::ModifyLoad<myGPKofiLayer>::ModifyLoad(std::__ndk1::basic_string<char, std::__ndk1::char_traits<char>, std::__ndk1::allocator<char> >)::{lambda(cocos2d::CCNode*)#1}, std::__ndk1::allocator<AlphaUtils::ModifyLoad<myGPKofiLayer>::ModifyLoad(std::__ndk1::basic_string<char, std::__ndk1::char_traits<char>, std::__ndk1::allocator<char> >)::{lambda(cocos2d::CCNode*)#1}>, void (cocos2d::CCNode*)>::~__func()
PUBLIC 6b93c 0 std::__ndk1::__function::__func<AlphaUtils::ModifyLoad<myGPKofiLayer>::ModifyLoad(std::__ndk1::basic_string<char, std::__ndk1::char_traits<char>, std::__ndk1::allocator<char> >)::{lambda(cocos2d::CCNode*)#1}, std::__ndk1::allocator<AlphaUtils::ModifyLoad<myGPKofiLayer>::ModifyLoad(std::__ndk1::basic_string<char, std::__ndk1::char_traits<char>, std::__ndk1::allocator<char> >)::{lambda(cocos2d::CCNode*)#1}>, void (cocos2d::CCNode*)>::__clone() const
PUBLIC 6b960 0 std::__ndk1::__function::__func<AlphaUtils::ModifyLoad<myGPKofiLayer>::ModifyLoad(std::__ndk1::basic_string<char, std::__ndk1::char_traits<char>, std::__ndk1::allocator<char> >)::{lambda(cocos2d::CCNode*)#1}, std::__ndk1::allocator<AlphaUtils::ModifyLoad<myGPKofiLayer>::ModifyLoad(std::__ndk1::basic_string<char, std::__ndk1::char_traits<char>, std::__ndk1::allocator<char> >)::{lambda(cocos2d::CCNode*)#1}>, void (cocos2d::CCNode*)>::__clone(std::__ndk1::__function::__base<void (cocos2d::CCNode*)>*) const
PUBLIC 6b970 0 std::__ndk1::__function::__func<AlphaUtils::ModifyLoad<myGPKofiLayer>::ModifyLoad(std::__ndk1::basic_string<char, std::__ndk1::char_traits<char>, std::__ndk1::allocator<char> >)::{lambda(cocos2d::CCNode*)#1}, std::__ndk1::allocator<AlphaUtils::ModifyLoad<myGPKofiLayer>::ModifyLoad(std::__ndk1::basic_string<char, std::__ndk1::char_traits<char>, std::__ndk1::allocator<char> >)::{lambda(cocos2d::CCNode*)#1}>, void (cocos2d::CCNode*)>::destroy()
PUBLIC 6b974 0 std::__ndk1::__function::__func<AlphaUtils::ModifyLoad<myGPKofiLayer>::ModifyLoad(std::__ndk1::basic_string<char, std::__ndk1::char_traits<char>, std::__ndk1::allocator<char> >)::{lambda(cocos2d::CCNode*)#1}, std::__ndk1::allocator<AlphaUtils::ModifyLoad<myGPKofiLayer>::ModifyLoad(std::__ndk1::basic_string<char, std::__ndk1::char_traits<char>, std::__ndk1::allocator<char> >)::{lambda(cocos2d::CCNode*)#1}>, void (cocos2d::CCNode*)>::destroy_deallocate()
PUBLIC 6b978 0 std::__ndk1::__function::__func<AlphaUtils::ModifyLoad<myGPKofiLayer>::ModifyLoad(std::__ndk1::basic_string<char, std::__ndk1::char_traits<char>, std::__ndk1::allocator<char> >)::{lambda(cocos2d::CCNode*)#1}, std::__ndk1::allocator<AlphaUtils::ModifyLoad<myGPKofiLayer>::ModifyLoad(std::__ndk1::basic_string<char, std::__ndk1::char_traits<char>, std::__ndk1::allocator<char> >)::{lambda(cocos2d::CCNode*)#1}>, void (cocos2d::CCNode*)>::operator()(cocos2d::CCNode*&&)
PUBLIC 6ba50 0 std::__ndk1::__function::__func<AlphaUtils::ModifyLoad<myGPKofiLayer>::ModifyLoad(std::__ndk1::basic_string<char, std::__ndk1::char_traits<char>, std::__ndk1::allocator<char> >)::{lambda(cocos2d::CCNode*)#1}, std::__ndk1::allocator<AlphaUtils::ModifyLoad<myGPKofiLayer>::ModifyLoad(std::__ndk1::basic_string<char, std::__ndk1::char_traits<char>, std::__ndk1::allocator<char> >)::{lambda(cocos2d::CCNode*)#1}>, void (cocos2d::CCNode*)>::target(std::type_info const&) const
PUBLIC 6ba6c 0 std::__ndk1::__function::__func<AlphaUtils::ModifyLoad<myGPKofiLayer>::ModifyLoad(std::__ndk1::basic_string<char, std::__ndk1::char_traits<char>, std::__ndk1::allocator<char> >)::{lambda(cocos2d::CCNode*)#1}, std::__ndk1::allocator<AlphaUtils::ModifyLoad<myGPKofiLayer>::ModifyLoad(std::__ndk1::basic_string<char, std::__ndk1::char_traits<char>, std::__ndk1::allocator<char> >)::{lambda(cocos2d::CCNode*)#1}>, void (cocos2d::CCNode*)>::target_type() const
PUBLIC 6ba78 0 __cxx_global_var_init
PUBLIC 6bbf0 0 std::__ndk1::__function::__func<AlphaUtils::ModifyLoad<myOdysseyComicLayer>::ModifyLoad(std::__ndk1::basic_string<char, std::__ndk1::char_traits<char>, std::__ndk1::allocator<char> >)::{lambda(cocos2d::CCNode*)#1}, std::__ndk1::allocator<AlphaUtils::ModifyLoad<myOdysseyComicLayer>::ModifyLoad(std::__ndk1::basic_string<char, std::__ndk1::char_traits<char>, std::__ndk1::allocator<char> >)::{lambda(cocos2d::CCNode*)#1}>, void (cocos2d::CCNode*)>::~__func()
PUBLIC 6bbf4 0 std::__ndk1::__function::__func<AlphaUtils::ModifyLoad<myOdysseyComicLayer>::ModifyLoad(std::__ndk1::basic_string<char, std::__ndk1::char_traits<char>, std::__ndk1::allocator<char> >)::{lambda(cocos2d::CCNode*)#1}, std::__ndk1::allocator<AlphaUtils::ModifyLoad<myOdysseyComicLayer>::ModifyLoad(std::__ndk1::basic_string<char, std::__ndk1::char_traits<char>, std::__ndk1::allocator<char> >)::{lambda(cocos2d::CCNode*)#1}>, void (cocos2d::CCNode*)>::__clone() const
PUBLIC 6bc18 0 std::__ndk1::__function::__func<AlphaUtils::ModifyLoad<myOdysseyComicLayer>::ModifyLoad(std::__ndk1::basic_string<char, std::__ndk1::char_traits<char>, std::__ndk1::allocator<char> >)::{lambda(cocos2d::CCNode*)#1}, std::__ndk1::allocator<AlphaUtils::ModifyLoad<myOdysseyComicLayer>::ModifyLoad(std::__ndk1::basic_string<char, std::__ndk1::char_traits<char>, std::__ndk1::allocator<char> >)::{lambda(cocos2d::CCNode*)#1}>, void (cocos2d::CCNode*)>::__clone(std::__ndk1::__function::__base<void (cocos2d::CCNode*)>*) const
PUBLIC 6bc28 0 std::__ndk1::__function::__func<AlphaUtils::ModifyLoad<myOdysseyComicLayer>::ModifyLoad(std::__ndk1::basic_string<char, std::__ndk1::char_traits<char>, std::__ndk1::allocator<char> >)::{lambda(cocos2d::CCNode*)#1}, std::__ndk1::allocator<AlphaUtils::ModifyLoad<myOdysseyComicLayer>::ModifyLoad(std::__ndk1::basic_string<char, std::__ndk1::char_traits<char>, std::__ndk1::allocator<char> >)::{lambda(cocos2d::CCNode*)#1}>, void (cocos2d::CCNode*)>::destroy()
PUBLIC 6bc2c 0 std::__ndk1::__function::__func<AlphaUtils::ModifyLoad<myOdysseyComicLayer>::ModifyLoad(std::__ndk1::basic_string<char, std::__ndk1::char_traits<char>, std::__ndk1::allocator<char> >)::{lambda(cocos2d::CCNode*)#1}, std::__ndk1::allocator<AlphaUtils::ModifyLoad<myOdysseyComicLayer>::ModifyLoad(std::__ndk1::basic_string<char, std::__ndk1::char_traits<char>, std::__ndk1::allocator<char> >)::{lambda(cocos2d::CCNode*)#1}>, void (cocos2d::CCNode*)>::destroy_deallocate()
PUBLIC 6bc30 0 std::__ndk1::__function::__func<AlphaUtils::ModifyLoad<myOdysseyComicLayer>::ModifyLoad(std::__ndk1::basic_string<char, std::__ndk1::char_traits<char>, std::__ndk1::allocator<char> >)::{lambda(cocos2d::CCNode*)#1}, std::__ndk1::allocator<AlphaUtils::ModifyLoad<myOdysseyComicLayer>::ModifyLoad(std::__ndk1::basic_string<char, std::__ndk1::char_traits<char>, std::__ndk1::allocator<char> >)::{lambda(cocos2d::CCNode*)#1}>, void (cocos2d::CCNode*)>::operator()(cocos2d::CCNode*&&)
PUBLIC 6bd08 0 std::__ndk1::__function::__func<AlphaUtils::ModifyLoad<myOdysseyComicLayer>::ModifyLoad(std::__ndk1::basic_string<char, std::__ndk1::char_traits<char>, std::__ndk1::allocator<char> >)::{lambda(cocos2d::CCNode*)#1}, std::__ndk1::allocator<AlphaUtils::ModifyLoad<myOdysseyComicLayer>::ModifyLoad(std::__ndk1::basic_string<char, std::__ndk1::char_traits<char>, std::__ndk1::allocator<char> >)::{lambda(cocos2d::CCNode*)#1}>, void (cocos2d::CCNode*)>::target(std::type_info const&) const
PUBLIC 6bd24 0 std::__ndk1::__function::__func<AlphaUtils::ModifyLoad<myOdysseyComicLayer>::ModifyLoad(std::__ndk1::basic_string<char, std::__ndk1::char_traits<char>, std::__ndk1::allocator<char> >)::{lambda(cocos2d::CCNode*)#1}, std::__ndk1::allocator<AlphaUtils::ModifyLoad<myOdysseyComicLayer>::ModifyLoad(std::__ndk1::basic_string<char, std::__ndk1::char_traits<char>, std::__ndk1::allocator<char> >)::{lambda(cocos2d::CCNode*)#1}>, void (cocos2d::CCNode*)>::target_type() const
PUBLIC 6bd30 0 __cxx_global_var_init
PUBLIC 6beac 0 std::__ndk1::__function::__func<AlphaUtils::ModifyLoad<myOdysseySelectLayer>::ModifyLoad(std::__ndk1::basic_string<char, std::__ndk1::char_traits<char>, std::__ndk1::allocator<char> >)::{lambda(cocos2d::CCNode*)#1}, std::__ndk1::allocator<AlphaUtils::ModifyLoad<myOdysseySelectLayer>::ModifyLoad(std::__ndk1::basic_string<char, std::__ndk1::char_traits<char>, std::__ndk1::allocator<char> >)::{lambda(cocos2d::CCNode*)#1}>, void (cocos2d::CCNode*)>::~__func()
PUBLIC 6beb0 0 std::__ndk1::__function::__func<AlphaUtils::ModifyLoad<myOdysseySelectLayer>::ModifyLoad(std::__ndk1::basic_string<char, std::__ndk1::char_traits<char>, std::__ndk1::allocator<char> >)::{lambda(cocos2d::CCNode*)#1}, std::__ndk1::allocator<AlphaUtils::ModifyLoad<myOdysseySelectLayer>::ModifyLoad(std::__ndk1::basic_string<char, std::__ndk1::char_traits<char>, std::__ndk1::allocator<char> >)::{lambda(cocos2d::CCNode*)#1}>, void (cocos2d::CCNode*)>::__clone() const
PUBLIC 6bed4 0 std::__ndk1::__function::__func<AlphaUtils::ModifyLoad<myOdysseySelectLayer>::ModifyLoad(std::__ndk1::basic_string<char, std::__ndk1::char_traits<char>, std::__ndk1::allocator<char> >)::{lambda(cocos2d::CCNode*)#1}, std::__ndk1::allocator<AlphaUtils::ModifyLoad<myOdysseySelectLayer>::ModifyLoad(std::__ndk1::basic_string<char, std::__ndk1::char_traits<char>, std::__ndk1::allocator<char> >)::{lambda(cocos2d::CCNode*)#1}>, void (cocos2d::CCNode*)>::__clone(std::__ndk1::__function::__base<void (cocos2d::CCNode*)>*) const
PUBLIC 6bee4 0 std::__ndk1::__function::__func<AlphaUtils::ModifyLoad<myOdysseySelectLayer>::ModifyLoad(std::__ndk1::basic_string<char, std::__ndk1::char_traits<char>, std::__ndk1::allocator<char> >)::{lambda(cocos2d::CCNode*)#1}, std::__ndk1::allocator<AlphaUtils::ModifyLoad<myOdysseySelectLayer>::ModifyLoad(std::__ndk1::basic_string<char, std::__ndk1::char_traits<char>, std::__ndk1::allocator<char> >)::{lambda(cocos2d::CCNode*)#1}>, void (cocos2d::CCNode*)>::destroy()
PUBLIC 6bee8 0 std::__ndk1::__function::__func<AlphaUtils::ModifyLoad<myOdysseySelectLayer>::ModifyLoad(std::__ndk1::basic_string<char, std::__ndk1::char_traits<char>, std::__ndk1::allocator<char> >)::{lambda(cocos2d::CCNode*)#1}, std::__ndk1::allocator<AlphaUtils::ModifyLoad<myOdysseySelectLayer>::ModifyLoad(std::__ndk1::basic_string<char, std::__ndk1::char_traits<char>, std::__ndk1::allocator<char> >)::{lambda(cocos2d::CCNode*)#1}>, void (cocos2d::CCNode*)>::destroy_deallocate()
PUBLIC 6beec 0 std::__ndk1::__function::__func<AlphaUtils::ModifyLoad<myOdysseySelectLayer>::ModifyLoad(std::__ndk1::basic_string<char, std::__ndk1::char_traits<char>, std::__ndk1::allocator<char> >)::{lambda(cocos2d::CCNode*)#1}, std::__ndk1::allocator<AlphaUtils::ModifyLoad<myOdysseySelectLayer>::ModifyLoad(std::__ndk1::basic_string<char, std::__ndk1::char_traits<char>, std::__ndk1::allocator<char> >)::{lambda(cocos2d::CCNode*)#1}>, void (cocos2d::CCNode*)>::operator()(cocos2d::CCNode*&&)
PUBLIC 6c04c 0 std::__ndk1::__function::__func<AlphaUtils::ModifyLoad<myOdysseySelectLayer>::ModifyLoad(std::__ndk1::basic_string<char, std::__ndk1::char_traits<char>, std::__ndk1::allocator<char> >)::{lambda(cocos2d::CCNode*)#1}, std::__ndk1::allocator<AlphaUtils::ModifyLoad<myOdysseySelectLayer>::ModifyLoad(std::__ndk1::basic_string<char, std::__ndk1::char_traits<char>, std::__ndk1::allocator<char> >)::{lambda(cocos2d::CCNode*)#1}>, void (cocos2d::CCNode*)>::target(std::type_info const&) const
PUBLIC 6c068 0 std::__ndk1::__function::__func<AlphaUtils::ModifyLoad<myOdysseySelectLayer>::ModifyLoad(std::__ndk1::basic_string<char, std::__ndk1::char_traits<char>, std::__ndk1::allocator<char> >)::{lambda(cocos2d::CCNode*)#1}, std::__ndk1::allocator<AlphaUtils::ModifyLoad<myOdysseySelectLayer>::ModifyLoad(std::__ndk1::basic_string<char, std::__ndk1::char_traits<char>, std::__ndk1::allocator<char> >)::{lambda(cocos2d::CCNode*)#1}>, void (cocos2d::CCNode*)>::target_type() const
PUBLIC 6c074 0 __cxx_global_var_init
PUBLIC 6c1f8 0 std::__ndk1::__function::__func<AlphaUtils::ModifyLoad<myNewgroundsBrowserLayer>::ModifyLoad(std::__ndk1::basic_string<char, std::__ndk1::char_traits<char>, std::__ndk1::allocator<char> >)::{lambda(cocos2d::CCNode*)#1}, std::__ndk1::allocator<AlphaUtils::ModifyLoad<myNewgroundsBrowserLayer>::ModifyLoad(std::__ndk1::basic_string<char, std::__ndk1::char_traits<char>, std::__ndk1::allocator<char> >)::{lambda(cocos2d::CCNode*)#1}>, void (cocos2d::CCNode*)>::~__func()
PUBLIC 6c1fc 0 std::__ndk1::__function::__func<AlphaUtils::ModifyLoad<myNewgroundsBrowserLayer>::ModifyLoad(std::__ndk1::basic_string<char, std::__ndk1::char_traits<char>, std::__ndk1::allocator<char> >)::{lambda(cocos2d::CCNode*)#1}, std::__ndk1::allocator<AlphaUtils::ModifyLoad<myNewgroundsBrowserLayer>::ModifyLoad(std::__ndk1::basic_string<char, std::__ndk1::char_traits<char>, std::__ndk1::allocator<char> >)::{lambda(cocos2d::CCNode*)#1}>, void (cocos2d::CCNode*)>::__clone() const
PUBLIC 6c220 0 std::__ndk1::__function::__func<AlphaUtils::ModifyLoad<myNewgroundsBrowserLayer>::ModifyLoad(std::__ndk1::basic_string<char, std::__ndk1::char_traits<char>, std::__ndk1::allocator<char> >)::{lambda(cocos2d::CCNode*)#1}, std::__ndk1::allocator<AlphaUtils::ModifyLoad<myNewgroundsBrowserLayer>::ModifyLoad(std::__ndk1::basic_string<char, std::__ndk1::char_traits<char>, std::__ndk1::allocator<char> >)::{lambda(cocos2d::CCNode*)#1}>, void (cocos2d::CCNode*)>::__clone(std::__ndk1::__function::__base<void (cocos2d::CCNode*)>*) const
PUBLIC 6c230 0 std::__ndk1::__function::__func<AlphaUtils::ModifyLoad<myNewgroundsBrowserLayer>::ModifyLoad(std::__ndk1::basic_string<char, std::__ndk1::char_traits<char>, std::__ndk1::allocator<char> >)::{lambda(cocos2d::CCNode*)#1}, std::__ndk1::allocator<AlphaUtils::ModifyLoad<myNewgroundsBrowserLayer>::ModifyLoad(std::__ndk1::basic_string<char, std::__ndk1::char_traits<char>, std::__ndk1::allocator<char> >)::{lambda(cocos2d::CCNode*)#1}>, void (cocos2d::CCNode*)>::destroy()
PUBLIC 6c234 0 std::__ndk1::__function::__func<AlphaUtils::ModifyLoad<myNewgroundsBrowserLayer>::ModifyLoad(std::__ndk1::basic_string<char, std::__ndk1::char_traits<char>, std::__ndk1::allocator<char> >)::{lambda(cocos2d::CCNode*)#1}, std::__ndk1::allocator<AlphaUtils::ModifyLoad<myNewgroundsBrowserLayer>::ModifyLoad(std::__ndk1::basic_string<char, std::__ndk1::char_traits<char>, std::__ndk1::allocator<char> >)::{lambda(cocos2d::CCNode*)#1}>, void (cocos2d::CCNode*)>::destroy_deallocate()
PUBLIC 6c238 0 std::__ndk1::__function::__func<AlphaUtils::ModifyLoad<myNewgroundsBrowserLayer>::ModifyLoad(std::__ndk1::basic_string<char, std::__ndk1::char_traits<char>, std::__ndk1::allocator<char> >)::{lambda(cocos2d::CCNode*)#1}, std::__ndk1::allocator<AlphaUtils::ModifyLoad<myNewgroundsBrowserLayer>::ModifyLoad(std::__ndk1::basic_string<char, std::__ndk1::char_traits<char>, std::__ndk1::allocator<char> >)::{lambda(cocos2d::CCNode*)#1}>, void (cocos2d::CCNode*)>::operator()(cocos2d::CCNode*&&)
PUBLIC 6c310 0 std::__ndk1::__function::__func<AlphaUtils::ModifyLoad<myNewgroundsBrowserLayer>::ModifyLoad(std::__ndk1::basic_string<char, std::__ndk1::char_traits<char>, std::__ndk1::allocator<char> >)::{lambda(cocos2d::CCNode*)#1}, std::__ndk1::allocator<AlphaUtils::ModifyLoad<myNewgroundsBrowserLayer>::ModifyLoad(std::__ndk1::basic_string<char, std::__ndk1::char_traits<char>, std::__ndk1::allocator<char> >)::{lambda(cocos2d::CCNode*)#1}>, void (cocos2d::CCNode*)>::target(std::type_info const&) const
PUBLIC 6c32c 0 std::__ndk1::__function::__func<AlphaUtils::ModifyLoad<myNewgroundsBrowserLayer>::ModifyLoad(std::__ndk1::basic_string<char, std::__ndk1::char_traits<char>, std::__ndk1::allocator<char> >)::{lambda(cocos2d::CCNode*)#1}, std::__ndk1::allocator<AlphaUtils::ModifyLoad<myNewgroundsBrowserLayer>::ModifyLoad(std::__ndk1::basic_string<char, std::__ndk1::char_traits<char>, std::__ndk1::allocator<char> >)::{lambda(cocos2d::CCNode*)#1}>, void (cocos2d::CCNode*)>::target_type() const
PUBLIC 6c338 0 __cxx_global_var_init
PUBLIC 6c4a8 0 std::__ndk1::__function::__func<AlphaUtils::ModifyLoad<mySecretLayer6R>::ModifyLoad(std::__ndk1::basic_string<char, std::__ndk1::char_traits<char>, std::__ndk1::allocator<char> >)::{lambda(cocos2d::CCNode*)#1}, std::__ndk1::allocator<AlphaUtils::ModifyLoad<mySecretLayer6R>::ModifyLoad(std::__ndk1::basic_string<char, std::__ndk1::char_traits<char>, std::__ndk1::allocator<char> >)::{lambda(cocos2d::CCNode*)#1}>, void (cocos2d::CCNode*)>::~__func()
PUBLIC 6c4ac 0 std::__ndk1::__function::__func<AlphaUtils::ModifyLoad<mySecretLayer6R>::ModifyLoad(std::__ndk1::basic_string<char, std::__ndk1::char_traits<char>, std::__ndk1::allocator<char> >)::{lambda(cocos2d::CCNode*)#1}, std::__ndk1::allocator<AlphaUtils::ModifyLoad<mySecretLayer6R>::ModifyLoad(std::__ndk1::basic_string<char, std::__ndk1::char_traits<char>, std::__ndk1::allocator<char> >)::{lambda(cocos2d::CCNode*)#1}>, void (cocos2d::CCNode*)>::__clone() const
PUBLIC 6c4d0 0 std::__ndk1::__function::__func<AlphaUtils::ModifyLoad<mySecretLayer6R>::ModifyLoad(std::__ndk1::basic_string<char, std::__ndk1::char_traits<char>, std::__ndk1::allocator<char> >)::{lambda(cocos2d::CCNode*)#1}, std::__ndk1::allocator<AlphaUtils::ModifyLoad<mySecretLayer6R>::ModifyLoad(std::__ndk1::basic_string<char, std::__ndk1::char_traits<char>, std::__ndk1::allocator<char> >)::{lambda(cocos2d::CCNode*)#1}>, void (cocos2d::CCNode*)>::__clone(std::__ndk1::__function::__base<void (cocos2d::CCNode*)>*) const
PUBLIC 6c4e0 0 std::__ndk1::__function::__func<AlphaUtils::ModifyLoad<mySecretLayer6R>::ModifyLoad(std::__ndk1::basic_string<char, std::__ndk1::char_traits<char>, std::__ndk1::allocator<char> >)::{lambda(cocos2d::CCNode*)#1}, std::__ndk1::allocator<AlphaUtils::ModifyLoad<mySecretLayer6R>::ModifyLoad(std::__ndk1::basic_string<char, std::__ndk1::char_traits<char>, std::__ndk1::allocator<char> >)::{lambda(cocos2d::CCNode*)#1}>, void (cocos2d::CCNode*)>::destroy()
PUBLIC 6c4e4 0 std::__ndk1::__function::__func<AlphaUtils::ModifyLoad<mySecretLayer6R>::ModifyLoad(std::__ndk1::basic_string<char, std::__ndk1::char_traits<char>, std::__ndk1::allocator<char> >)::{lambda(cocos2d::CCNode*)#1}, std::__ndk1::allocator<AlphaUtils::ModifyLoad<mySecretLayer6R>::ModifyLoad(std::__ndk1::basic_string<char, std::__ndk1::char_traits<char>, std::__ndk1::allocator<char> >)::{lambda(cocos2d::CCNode*)#1}>, void (cocos2d::CCNode*)>::destroy_deallocate()
PUBLIC 6c4e8 0 std::__ndk1::__function::__func<AlphaUtils::ModifyLoad<mySecretLayer6R>::ModifyLoad(std::__ndk1::basic_string<char, std::__ndk1::char_traits<char>, std::__ndk1::allocator<char> >)::{lambda(cocos2d::CCNode*)#1}, std::__ndk1::allocator<AlphaUtils::ModifyLoad<mySecretLayer6R>::ModifyLoad(std::__ndk1::basic_string<char, std::__ndk1::char_traits<char>, std::__ndk1::allocator<char> >)::{lambda(cocos2d::CCNode*)#1}>, void (cocos2d::CCNode*)>::operator()(cocos2d::CCNode*&&)
PUBLIC 6c648 0 std::__ndk1::__function::__func<AlphaUtils::ModifyLoad<mySecretLayer6R>::ModifyLoad(std::__ndk1::basic_string<char, std::__ndk1::char_traits<char>, std::__ndk1::allocator<char> >)::{lambda(cocos2d::CCNode*)#1}, std::__ndk1::allocator<AlphaUtils::ModifyLoad<mySecretLayer6R>::ModifyLoad(std::__ndk1::basic_string<char, std::__ndk1::char_traits<char>, std::__ndk1::allocator<char> >)::{lambda(cocos2d::CCNode*)#1}>, void (cocos2d::CCNode*)>::target(std::type_info const&) const
PUBLIC 6c664 0 std::__ndk1::__function::__func<AlphaUtils::ModifyLoad<mySecretLayer6R>::ModifyLoad(std::__ndk1::basic_string<char, std::__ndk1::char_traits<char>, std::__ndk1::allocator<char> >)::{lambda(cocos2d::CCNode*)#1}, std::__ndk1::allocator<AlphaUtils::ModifyLoad<mySecretLayer6R>::ModifyLoad(std::__ndk1::basic_string<char, std::__ndk1::char_traits<char>, std::__ndk1::allocator<char> >)::{lambda(cocos2d::CCNode*)#1}>, void (cocos2d::CCNode*)>::target_type() const
PUBLIC 6c670 0 __cxx_global_var_init
PUBLIC 6c7f0 0 std::__ndk1::__function::__func<AlphaUtils::ModifyLoad<myTextureWorkshopLayer>::ModifyLoad(std::__ndk1::basic_string<char, std::__ndk1::char_traits<char>, std::__ndk1::allocator<char> >)::{lambda(cocos2d::CCNode*)#1}, std::__ndk1::allocator<AlphaUtils::ModifyLoad<myTextureWorkshopLayer>::ModifyLoad(std::__ndk1::basic_string<char, std::__ndk1::char_traits<char>, std::__ndk1::allocator<char> >)::{lambda(cocos2d::CCNode*)#1}>, void (cocos2d::CCNode*)>::~__func()
PUBLIC 6c7f4 0 std::__ndk1::__function::__func<AlphaUtils::ModifyLoad<myTextureWorkshopLayer>::ModifyLoad(std::__ndk1::basic_string<char, std::__ndk1::char_traits<char>, std::__ndk1::allocator<char> >)::{lambda(cocos2d::CCNode*)#1}, std::__ndk1::allocator<AlphaUtils::ModifyLoad<myTextureWorkshopLayer>::ModifyLoad(std::__ndk1::basic_string<char, std::__ndk1::char_traits<char>, std::__ndk1::allocator<char> >)::{lambda(cocos2d::CCNode*)#1}>, void (cocos2d::CCNode*)>::__clone() const
PUBLIC 6c818 0 std::__ndk1::__function::__func<AlphaUtils::ModifyLoad<myTextureWorkshopLayer>::ModifyLoad(std::__ndk1::basic_string<char, std::__ndk1::char_traits<char>, std::__ndk1::allocator<char> >)::{lambda(cocos2d::CCNode*)#1}, std::__ndk1::allocator<AlphaUtils::ModifyLoad<myTextureWorkshopLayer>::ModifyLoad(std::__ndk1::basic_string<char, std::__ndk1::char_traits<char>, std::__ndk1::allocator<char> >)::{lambda(cocos2d::CCNode*)#1}>, void (cocos2d::CCNode*)>::__clone(std::__ndk1::__function::__base<void (cocos2d::CCNode*)>*) const
PUBLIC 6c828 0 std::__ndk1::__function::__func<AlphaUtils::ModifyLoad<myTextureWorkshopLayer>::ModifyLoad(std::__ndk1::basic_string<char, std::__ndk1::char_traits<char>, std::__ndk1::allocator<char> >)::{lambda(cocos2d::CCNode*)#1}, std::__ndk1::allocator<AlphaUtils::ModifyLoad<myTextureWorkshopLayer>::ModifyLoad(std::__ndk1::basic_string<char, std::__ndk1::char_traits<char>, std::__ndk1::allocator<char> >)::{lambda(cocos2d::CCNode*)#1}>, void (cocos2d::CCNode*)>::destroy()
PUBLIC 6c82c 0 std::__ndk1::__function::__func<AlphaUtils::ModifyLoad<myTextureWorkshopLayer>::ModifyLoad(std::__ndk1::basic_string<char, std::__ndk1::char_traits<char>, std::__ndk1::allocator<char> >)::{lambda(cocos2d::CCNode*)#1}, std::__ndk1::allocator<AlphaUtils::ModifyLoad<myTextureWorkshopLayer>::ModifyLoad(std::__ndk1::basic_string<char, std::__ndk1::char_traits<char>, std::__ndk1::allocator<char> >)::{lambda(cocos2d::CCNode*)#1}>, void (cocos2d::CCNode*)>::destroy_deallocate()
PUBLIC 6c830 0 std::__ndk1::__function::__func<AlphaUtils::ModifyLoad<myTextureWorkshopLayer>::ModifyLoad(std::__ndk1::basic_string<char, std::__ndk1::char_traits<char>, std::__ndk1::allocator<char> >)::{lambda(cocos2d::CCNode*)#1}, std::__ndk1::allocator<AlphaUtils::ModifyLoad<myTextureWorkshopLayer>::ModifyLoad(std::__ndk1::basic_string<char, std::__ndk1::char_traits<char>, std::__ndk1::allocator<char> >)::{lambda(cocos2d::CCNode*)#1}>, void (cocos2d::CCNode*)>::operator()(cocos2d::CCNode*&&)
PUBLIC 6c908 0 std::__ndk1::__function::__func<AlphaUtils::ModifyLoad<myTextureWorkshopLayer>::ModifyLoad(std::__ndk1::basic_string<char, std::__ndk1::char_traits<char>, std::__ndk1::allocator<char> >)::{lambda(cocos2d::CCNode*)#1}, std::__ndk1::allocator<AlphaUtils::ModifyLoad<myTextureWorkshopLayer>::ModifyLoad(std::__ndk1::basic_string<char, std::__ndk1::char_traits<char>, std::__ndk1::allocator<char> >)::{lambda(cocos2d::CCNode*)#1}>, void (cocos2d::CCNode*)>::target(std::type_info const&) const
PUBLIC 6c924 0 std::__ndk1::__function::__func<AlphaUtils::ModifyLoad<myTextureWorkshopLayer>::ModifyLoad(std::__ndk1::basic_string<char, std::__ndk1::char_traits<char>, std::__ndk1::allocator<char> >)::{lambda(cocos2d::CCNode*)#1}, std::__ndk1::allocator<AlphaUtils::ModifyLoad<myTextureWorkshopLayer>::ModifyLoad(std::__ndk1::basic_string<char, std::__ndk1::char_traits<char>, std::__ndk1::allocator<char> >)::{lambda(cocos2d::CCNode*)#1}>, void (cocos2d::CCNode*)>::target_type() const
PUBLIC 6c930 0 geode::getMod()
PUBLIC m 6c96c 0 geodeImplicitEntry
PUBLIC 6c9a8 0 std::__ndk1::unordered_map<void*, bool, std::__ndk1::hash<void*>, std::__ndk1::equal_to<void*>, std::__ndk1::allocator<std::__ndk1::pair<void* const, bool> > >::~unordered_map[abi:ne190000]()
PUBLIC 6c9f4 0 wrapFunction(unsigned long, tulip::hook::WrapperMetadata const&)
PUBLIC 6cb28 0 geode::impl::ResultData<void*, std::__ndk1::basic_string<char, std::__ndk1::char_traits<char>, std::__ndk1::allocator<char> > >::unwrapErr() &
PUBLIC 6cba0 0 geode::impl::ResultData<void*, std::__ndk1::basic_string<char, std::__ndk1::char_traits<char>, std::__ndk1::allocator<char> > >::~ResultData()
PUBLIC 6cc14 0 tulip::hook::WrapperMetadata::~WrapperMetadata()
PUBLIC 6cc78 0 cocos2d::CCObject::CCObject()
PUBLIC 6ce9c 0 cocos2d::CCObject::~CCObject()
PUBLIC 6cec0 0 cocos2d::CCNode::CCNode()
PUBLIC 6d11c 0 cocos2d::CCNode::~CCNode()
PUBLIC 6d140 0 cocos2d::CCLayer::CCLayer()
PUBLIC 6d3c4 0 {virtual override thunk({offset(-320)}, cocos2d::CCLayer::~CCLayer())}
PUBLIC 6d3cc 0 cocos2d::CCLayer::~CCLayer()
PUBLIC 6d3f0 0 {virtual override thunk({offset(-320)}, cocos2d::CCLayer::~CCLayer())}
PUBLIC 6d418 0 cocos2d::CCLayerRGBA::~CCLayerRGBA()
PUBLIC 6d718 0 {virtual override thunk({offset(-320)}, cocos2d::CCLayerRGBA::~CCLayerRGBA())}
PUBLIC 6d720 0 cocos2d::CCLayerRGBA::~CCLayerRGBA()
PUBLIC 6d744 0 {virtual override thunk({offset(-320)}, cocos2d::CCLayerRGBA::~CCLayerRGBA())}
PUBLIC 6d76c 0 cocos2d::CCLayerColor::CCLayerColor()
PUBLIC 6d9d0 0 {virtual override thunk({offset(-320)}, cocos2d::CCLayerColor::~CCLayerColor())}
PUBLIC 6d9d8 0 cocos2d::CCLayerColor::~CCLayerColor()
PUBLIC 6d9fc 0 {virtual override thunk({offset(-320)}, cocos2d::CCLayerColor::~CCLayerColor())}
PUBLIC 6da24 0 cocos2d::CCTexture2D::~CCTexture2D()
PUBLIC 6dc94 0 cocos2d::CCTexture2D::~CCTexture2D()
PUBLIC 6dcb8 0 cocos2d::CCTexture2D::CCTexture2D()
PUBLIC 6dee4 0 cocos2d::CCImage::CCImage()
PUBLIC 6e108 0 cocos2d::CCImage::~CCImage()
PUBLIC 6e370 0 cocos2d::CCImage::~CCImage()
PUBLIC 6e394 0 FLAlertLayer::FLAlertLayer()
PUBLIC 6e430 0 {virtual override thunk({offset(-320)}, FLAlertLayer::~FLAlertLayer())}
PUBLIC 6e438 0 FLAlertLayer::~FLAlertLayer()
PUBLIC 6e45c 0 {virtual override thunk({offset(-320)}, FLAlertLayer::~FLAlertLayer())}
PUBLIC 6e484 0 FLAlertLayer::create(FLAlertLayerProtocol*, char const*, gd::string, char const*, char const*, float)
PUBLIC 6e63c 0 tulip::hook::AbstractFunction::from<FLAlertLayer*, FLAlertLayerProtocol*, char const*, gd::string, char const*, char const*, float>(FLAlertLayer* (*)(FLAlertLayerProtocol*, char const*, gd::string, char const*, char const*, float))
PUBLIC 6ea0c 0 FLAlertLayer::create(char const*, gd::string const&, char const*)
PUBLIC 6eab8 0 ButtonSprite::create(char const*)
PUBLIC 6eae0 0 CCMenuItemSpriteExtra::create(cocos2d::CCNode*, cocos2d::CCObject*, void (cocos2d::CCObject::*)(cocos2d::CCObject*))
PUBLIC 6eaf4 0 cocos2d::CCLayerColor::~CCLayerColor()
PUBLIC 6edd8 0 cocos2d::CCLayer::~CCLayer()
PUBLIC 6f0c8 0 cocos2d::CCNode::~CCNode()
PUBLIC 6f368 0 FLAlertLayer::~FLAlertLayer()
PUBLIC 6f64c 0 cocos2d::CCObject::~CCObject()
PUBLIC 6fb40 0 _ZN5geode15UnwrapExceptionC2IRPvQsr4implE18IsStringStreamableIT_EEENS_4impl5OkTagEOS4_
PUBLIC 6fc94 0 _ZN5geode15UnwrapExceptionC2IRNSt6__ndk112basic_stringIcNS2_11char_traitsIcEENS2_9allocatorIcEEEEQsr4implE18IsStringStreamableIT_EEENS_4impl6ErrTagEOSA_
PUBLIC 6fdfc 0 std::__ndk1::__variant_detail::__visitation::__base::__dispatcher<(unsigned long)0>::__dispatch[abi:ne190000]<std::__ndk1::__variant_detail::__dtor<std::__ndk1::__variant_detail::__traits<void*, std::__ndk1::basic_string<char, std::__ndk1::char_traits<char>, std::__ndk1::allocator<char> > >, (std::__ndk1::__variant_detail::_Trait)1>::__destroy[abi:ne190000]()::{lambda(auto:1&)#1}, std::__ndk1::__variant_detail::__base<(std::__ndk1::__variant_detail::__traits<void*, std::__ndk1::basic_string<char, std::__ndk1::char_traits<char>, std::__ndk1::allocator<char> > >)1, std::__ndk1::__variant_detail::__traits, std::__ndk1::allocator<char> >&>(std::__ndk1::__variant_detail::__dtor<std::__ndk1::__variant_detail::__traits<void*, std::__ndk1::basic_string<char, std::__ndk1::char_traits<char>, std::__ndk1::allocator<char> > >, (std::__ndk1::__variant_detail::_Trait)1>, std::__ndk1::__variant_detail::__base<(std::__ndk1::__variant_detail::__traits<void*, std::__ndk1::basic_string<char, std::__ndk1::char_traits<char>, std::__ndk1::allocator<char> > >)1, std::__ndk1::__variant_detail::__traits, std::__ndk1::allocator<char> >&)
PUBLIC 6fe00 0 std::__ndk1::__variant_detail::__visitation::__base::__dispatcher<(unsigned long)1>::__dispatch[abi:ne190000]<std::__ndk1::__variant_detail::__dtor<std::__ndk1::__variant_detail::__traits<void*, std::__ndk1::basic_string<char, std::__ndk1::char_traits<char>, std::__ndk1::allocator<char> > >, (std::__ndk1::__variant_detail::_Trait)1>::__destroy[abi:ne190000]()::{lambda(auto:1&)#1}, std::__ndk1::__variant_detail::__base<(std::__ndk1::__variant_detail::__traits<void*, std::__ndk1::basic_string<char, std::__ndk1::char_traits<char>, std::__ndk1::allocator<char> > >)1, std::__ndk1::__variant_detail::__traits, std::__ndk1::allocator<char> >&>(std::__ndk1::__variant_detail::__dtor<std::__ndk1::__variant_detail::__traits<void*, std::__ndk1::basic_string<char, std::__ndk1::char_traits<char>, std::__ndk1::allocator<char> > >, (std::__ndk1::__variant_detail::_Trait)1>, std::__ndk1::__variant_detail::__base<(std::__ndk1::__variant_detail::__traits<void*, std::__ndk1::basic_string<char, std::__ndk1::char_traits<char>, std::__ndk1::allocator<char> > >)1, std::__ndk1::__variant_detail::__traits, std::__ndk1::allocator<char> >&)
PUBLIC 6fe14 0 std::__ndk1::__hash_table<std::__ndk1::__hash_value_type<void*, bool>, std::__ndk1::__unordered_map_hasher<void*, std::__ndk1::__hash_value_type<void*, bool>, std::__ndk1::hash<void*>, std::__ndk1::equal_to<void*>, true>, std::__ndk1::__unordered_map_equal<void*, std::__ndk1::__hash_value_type<void*, bool>, std::__ndk1::equal_to<void*>, std::__ndk1::hash<void*>, true>, std::__ndk1::allocator<std::__ndk1::__hash_value_type<void*, bool> > >::__emplace_unique_key_args<void*, std::__ndk1::piecewise_construct_t const&, std::__ndk1::tuple<void* const&>, std::__ndk1::tuple<> >(void* const&, std::__ndk1::piecewise_construct_t const&, std::__ndk1::tuple<void* const&>, std::__ndk1::tuple<>)
PUBLIC 70320 0 __udivti3
PUBLIC 7032c 0 __udivmodti4
PUBLIC m 70578 0 __eqtf2
PUBLIC 70618 0 __unordtf2
PUBLIC 70650 0 fmt::v11::detail::write_loc(fmt::v11::basic_appender<char>, fmt::v11::loc_value, fmt::v11::format_specs const&, fmt::v11::detail::locale_ref)
PUBLIC 708e4 0 fmt::v11::format_facet<std::__ndk1::locale>::~format_facet()
PUBLIC 70960 0 fmt::v11::report_error(char const*)
PUBLIC 709b0 0 fmt::v11::format_error::runtime_error(char const*)
PUBLIC 709dc 0 fmt::v11::format_facet<std::__ndk1::locale>::do_put(fmt::v11::basic_appender<char>, fmt::v11::loc_value, fmt::v11::format_specs const&) const
PUBLIC 7119c 0 fmt::v11::detail::loc_writer<char>::~loc_writer()
PUBLIC 71200 0 fmt::v11::vformat(fmt::v11::basic_string_view<char>, fmt::v11::basic_format_args<fmt::v11::context>)
PUBLIC 7134c 0 fmt::v11::detail::vformat_to<char>(fmt::v11::detail::buffer<char>&, fmt::v11::basic_string_view<char>, fmt::v11::detail::vformat_args<char>::type, fmt::v11::detail::locale_ref)
PUBLIC 718bc 0 fmt::v11::detail::is_printable(unsigned int)
PUBLIC 71ae4 0 fmt::v11::detail::dragonbox::to_decimal<float>(float)
PUBLIC 71dc0 0 fmt::v11::detail::dragonbox::to_decimal<double>(double)
PUBLIC 722fc 0 fmt::v11::basic_memory_buffer<char, (unsigned long)500, std::__ndk1::allocator<char> >::grow(fmt::v11::detail::buffer<char>&, unsigned long)
PUBLIC 72374 0 fmt::v11::format_facet<std::__ndk1::locale>::~format_facet()
PUBLIC 72400 0 fmt::v11::format_error::~format_error()
PUBLIC 72424 0 fmt::v11::detail::copy_noinline<char, char const*, fmt::v11::basic_appender<char> >(char const*, char const*, fmt::v11::basic_appender<char>)
PUBLIC 72574 0 fmt::v11::detail::default_arg_formatter<char>::operator()<bool>(bool)
PUBLIC 725dc 0 fmt::v11::detail::default_arg_formatter<char>::operator()<char>(char)
PUBLIC 7266c 0 fmt::v11::detail::default_arg_formatter<char>::operator()<float>(float)
PUBLIC 72758 0 fmt::v11::detail::default_arg_formatter<char>::operator()<double>(double)
PUBLIC 72844 0 fmt::v11::detail::default_arg_formatter<char>::operator()<char const*>(char const*)
PUBLIC 7288c 0 fmt::v11::detail::default_arg_formatter<char>::operator()<void const*>(void const*)
PUBLIC 72924 0 _ZN3fmt3v116detail5writeIcNS0_14basic_appenderIcEEiTnNSt6__ndk19enable_ifIXaaaasr11is_integralIT1_EE5valuentsr3std7is_sameIS7_bEE5valuentsr3std7is_sameIS7_T_EE5valueEiE4typeELi0EEET0_SB_S7_
PUBLIC 72b84 0 fmt::v11::detail::copy_noinline<char, char*, fmt::v11::basic_appender<char> >(char*, char*, fmt::v11::basic_appender<char>)
PUBLIC 72cd4 0 _ZN3fmt3v116detail5writeIcNS0_14basic_appenderIcEEjTnNSt6__ndk19enable_ifIXaaaasr11is_integralIT1_EE5valuentsr3std7is_sameIS7_bEE5valuentsr3std7is_sameIS7_T_EE5valueEiE4typeELi0EEET0_SB_S7_
PUBLIC 72eb4 0 _ZN3fmt3v116detail5writeIcNS0_14basic_appenderIcEExTnNSt6__ndk19enable_ifIXaaaasr11is_integralIT1_EE5valuentsr3std7is_sameIS7_bEE5valuentsr3std7is_sameIS7_T_EE5valueEiE4typeELi0EEET0_SB_S7_
PUBLIC 73138 0 _ZN3fmt3v116detail5writeIcNS0_14basic_appenderIcEEyTnNSt6__ndk19enable_ifIXaaaasr11is_integralIT1_EE5valuentsr3std7is_sameIS7_bEE5valuentsr3std7is_sameIS7_T_EE5valueEiE4typeELi0EEET0_SB_S7_
PUBLIC 73340 0 _ZN3fmt3v116detail5writeIcNS0_14basic_appenderIcEEnTnNSt6__ndk19enable_ifIXaaaasr11is_integralIT1_EE5valuentsr3std7is_sameIS7_bEE5valuentsr3std7is_sameIS7_T_EE5valueEiE4typeELi0EEET0_SB_S7_
PUBLIC 736a0 0 _ZN3fmt3v116detail5writeIcNS0_14basic_appenderIcEEoTnNSt6__ndk19enable_ifIXaaaasr11is_integralIT1_EE5valuentsr3std7is_sameIS7_bEE5valuentsr3std7is_sameIS7_T_EE5valueEiE4typeELi0EEET0_SB_S7_
PUBLIC 739b4 0 _ZN3fmt3v116detail5writeIcNS0_14basic_appenderIcEEbTnNSt6__ndk19enable_ifIXsr3std7is_sameIT1_bEE5valueEiE4typeELi0EEET0_SA_S7_RKNS0_12format_specsENS1_10locale_refE
PUBLIC 73c44 0 fmt::v11::detail::write_int_noinline<char, fmt::v11::basic_appender<char>, unsigned int>(fmt::v11::basic_appender<char>, fmt::v11::detail::write_int_arg<unsigned int>, fmt::v11::format_specs const&, fmt::v11::detail::locale_ref)
PUBLIC 74a0c 0 fmt::v11::detail::fill<char, fmt::v11::basic_appender<char> >(fmt::v11::basic_appender<char>, unsigned long, fmt::v11::detail::fill_t const&)
PUBLIC 74bdc 0 fmt::v11::detail::write_padded<char, (fmt::v11::align::type)1, fmt::v11::basic_appender<char>, fmt::v11::detail::write_char<char, fmt::v11::basic_appender<char> >(fmt::v11::basic_appender<char>, char, fmt::v11::format_specs const&)::{lambda(fmt::v11::basic_appender<char>&)#1}>(fmt::v11::basic_appender<char>, fmt::v11::format_specs const&, unsigned long, unsigned long, fmt::v11::detail::write_char<char, fmt::v11::basic_appender<char> >(fmt::v11::basic_appender<char>, char, fmt::v11::format_specs const&)::{lambda(fmt::v11::basic_appender<char>&)#1})
PUBLIC 74e18 0 fmt::v11::detail::write_escaped_cp<fmt::v11::basic_appender<char>, char>(fmt::v11::basic_appender<char>, fmt::v11::detail::find_escape_result<char> const&)
PUBLIC 75124 0 fmt::v11::detail::write_codepoint<(unsigned long)2, char, fmt::v11::basic_appender<char> >(fmt::v11::basic_appender<char>, char, unsigned int)
PUBLIC 7529c 0 fmt::v11::detail::write_codepoint<(unsigned long)8, char, fmt::v11::basic_appender<char> >(fmt::v11::basic_appender<char>, char, unsigned int)
PUBLIC 75414 0 fmt::v11::detail::write_padded<char, (fmt::v11::align::type)1, fmt::v11::basic_appender<char>, fmt::v11::detail::write_nonfinite<char, fmt::v11::basic_appender<char> >(fmt::v11::basic_appender<char>, bool, fmt::v11::format_specs, fmt::v11::sign::type)::{lambda(fmt::v11::basic_appender<char>&)#1}>(fmt::v11::basic_appender<char>, fmt::v11::format_specs const&, unsigned long, unsigned long, fmt::v11::detail::write_nonfinite<char, fmt::v11::basic_appender<char> >(fmt::v11::basic_appender<char>, bool, fmt::v11::format_specs, fmt::v11::sign::type)::{lambda(fmt::v11::basic_appender<char>&)#1})
PUBLIC 75654 0 fmt::v11::detail::do_write_float<char, fmt::v11::basic_appender<char>, fmt::v11::detail::dragonbox::decimal_fp<float>, fmt::v11::detail::digit_grouping<char> >(fmt::v11::basic_appender<char>, fmt::v11::detail::dragonbox::decimal_fp<float> const&, fmt::v11::format_specs const&, fmt::v11::detail::float_specs, fmt::v11::detail::locale_ref)
PUBLIC 762c8 0 fmt::v11::detail::do_write_float<char, fmt::v11::basic_appender<char>, fmt::v11::detail::dragonbox::decimal_fp<float>, fmt::v11::detail::digit_grouping<char> >(fmt::v11::basic_appender<char>, fmt::v11::detail::dragonbox::decimal_fp<float> const&, fmt::v11::format_specs const&, fmt::v11::detail::float_specs, fmt::v11::detail::locale_ref)::{lambda(fmt::v11::basic_appender<char>(fmt::v11::basic_appender<char>))#1}::operator() const
PUBLIC 7641c 0 fmt::v11::detail::digit_grouping<char>::digit_grouping(fmt::v11::detail::locale_ref, bool)
PUBLIC 76684 0 fmt::v11::detail::digit_grouping<char>::~digit_grouping()
PUBLIC 766c8 0 fmt::v11::detail::write_exponent<char, fmt::v11::basic_appender<char> >(int, fmt::v11::basic_appender<char>)
PUBLIC 76898 0 _ZN3fmt3v116detail17write_significandIcjTnNSt6__ndk19enable_ifIXsr3std11is_integralIT0_EE5valueEiE4typeELi0EEEPT_S9_S5_iiS8_
PUBLIC 76a14 0 fmt::v11::detail::digit_grouping<char>::apply<fmt::v11::basic_appender<char>, char>(fmt::v11::basic_appender<char>, fmt::v11::basic_string_view<char>) const
PUBLIC 76dcc 0 fmt::v11::basic_memory_buffer<int, (unsigned long)500, std::__ndk1::allocator<int> >::grow(fmt::v11::detail::buffer<int>&, unsigned long)
PUBLIC 76e6c 0 fmt::v11::detail::do_write_float<char, fmt::v11::basic_appender<char>, fmt::v11::detail::dragonbox::decimal_fp<double>, fmt::v11::detail::digit_grouping<char> >(fmt::v11::basic_appender<char>, fmt::v11::detail::dragonbox::decimal_fp<double> const&, fmt::v11::format_specs const&, fmt::v11::detail::float_specs, fmt::v11::detail::locale_ref)
PUBLIC 77b1c 0 fmt::v11::detail::do_write_float<char, fmt::v11::basic_appender<char>, fmt::v11::detail::dragonbox::decimal_fp<double>, fmt::v11::detail::digit_grouping<char> >(fmt::v11::basic_appender<char>, fmt::v11::detail::dragonbox::decimal_fp<double> const&, fmt::v11::format_specs const&, fmt::v11::detail::float_specs, fmt::v11::detail::locale_ref)::{lambda(fmt::v11::basic_appender<char>(fmt::v11::basic_appender<char>))#1}::operator() const
PUBLIC 77c74 0 _ZN3fmt3v116detail17write_significandIcmTnNSt6__ndk19enable_ifIXsr3std11is_integralIT0_EE5valueEiE4typeELi0EEEPT_S9_S5_iiS8_
PUBLIC 77e04 0 fmt::v11::detail::write_float<char, fmt::v11::basic_appender<char>, long double>(fmt::v11::basic_appender<char>, long double, fmt::v11::format_specs, fmt::v11::detail::locale_ref)
PUBLIC 788e8 0 fmt::v11::detail::write_padded<char, (fmt::v11::align::type)2, fmt::v11::basic_appender<char>, fmt::v11::detail::write_bytes<char, (fmt::v11::align::type)2, fmt::v11::basic_appender<char> >(fmt::v11::basic_appender<char>, fmt::v11::basic_string_view<char>, fmt::v11::format_specs const&)::{lambda(fmt::v11::basic_appender<char>&)#1}>(fmt::v11::basic_appender<char>, fmt::v11::format_specs const&, unsigned long, unsigned long, fmt::v11::detail::write_bytes<char, (fmt::v11::align::type)2, fmt::v11::basic_appender<char> >(fmt::v11::basic_appender<char>, fmt::v11::basic_string_view<char>, fmt::v11::format_specs const&)::{lambda(fmt::v11::basic_appender<char>&)#1})
PUBLIC 78ac4 0 fmt::v11::detail::format_dragon(fmt::v11::detail::basic_fp<unsigned __int128>, unsigned int, int, fmt::v11::detail::buffer<char>&, int&)
PUBLIC 79ee8 0 fmt::v11::detail::bigint::operator<<=(int)
PUBLIC 7a00c 0 fmt::v11::detail::bigint::assign_pow10(int)
PUBLIC 7a768 0 fmt::v11::detail::bigint::divmod_assign(fmt::v11::detail::bigint const&)
PUBLIC 7aa8c 0 fmt::v11::basic_memory_buffer<unsigned int, (unsigned long)32, std::__ndk1::allocator<unsigned int> >::grow(fmt::v11::detail::buffer<unsigned int>&, unsigned long)
PUBLIC 7ab2c 0 fmt::v11::detail::do_write_float<char, fmt::v11::basic_appender<char>, fmt::v11::detail::big_decimal_fp, fmt::v11::detail::digit_grouping<char> >(fmt::v11::basic_appender<char>, fmt::v11::detail::big_decimal_fp const&, fmt::v11::format_specs const&, fmt::v11::detail::float_specs, fmt::v11::detail::locale_ref)
PUBLIC 7b9d8 0 fmt::v11::detail::do_write_float<char, fmt::v11::basic_appender<char>, fmt::v11::detail::big_decimal_fp, fmt::v11::detail::digit_grouping<char> >(fmt::v11::basic_appender<char>, fmt::v11::detail::big_decimal_fp const&, fmt::v11::format_specs const&, fmt::v11::detail::float_specs, fmt::v11::detail::locale_ref)::{lambda(fmt::v11::basic_appender<char>(fmt::v11::basic_appender<char>))#1}::operator() const
PUBLIC 7bb38 0 fmt::v11::detail::write_padded<char, (fmt::v11::align::type)2, fmt::v11::basic_appender<char>, fmt::v11::detail::write_ptr<char, fmt::v11::basic_appender<char>, unsigned long>(fmt::v11::basic_appender<char>, unsigned long, fmt::v11::format_specs const*)::{lambda(fmt::v11::basic_appender<char>&)#1}>(fmt::v11::basic_appender<char>, fmt::v11::format_specs const&, unsigned long, unsigned long, fmt::v11::detail::write_ptr<char, fmt::v11::basic_appender<char>, unsigned long>(fmt::v11::basic_appender<char>, unsigned long, fmt::v11::format_specs const*)::{lambda(fmt::v11::basic_appender<char>&)#1})
PUBLIC 7bd4c 0 fmt::v11::detail::parse_replacement_field<char, fmt::v11::detail::vformat_to<char>(fmt::v11::detail::buffer<char>&, fmt::v11::basic_string_view<char>, fmt::v11::detail::vformat_args<char>::type, fmt::v11::detail::locale_ref)::format_handler&>(char const*, char const*, fmt::v11::detail::vformat_to<char>(fmt::v11::detail::buffer<char>&, fmt::v11::basic_string_view<char>, fmt::v11::detail::vformat_args<char>::type, fmt::v11::detail::locale_ref)::format_handler&)
PUBLIC 7d9b0 0 fmt::v11::detail::parse_dynamic_spec<char>(char const*, char const*, int&, fmt::v11::detail::arg_ref<char>&, fmt::v11::basic_format_parse_context<char>&)
PUBLIC 7dc40 0 fmt::v11::basic_format_args<fmt::v11::context>::get<char>(fmt::v11::basic_string_view<char>) const
PUBLIC 7dd74 0 fmt::v11::detail::write_int_noinline<char, fmt::v11::basic_appender<char>, unsigned long>(fmt::v11::basic_appender<char>, fmt::v11::detail::write_int_arg<unsigned long>, fmt::v11::format_specs const&, fmt::v11::detail::locale_ref)
PUBLIC 7ebc0 0 fmt::v11::detail::write_int_noinline<char, fmt::v11::basic_appender<char>, unsigned __int128>(fmt::v11::basic_appender<char>, fmt::v11::detail::write_int_arg<unsigned __int128>, fmt::v11::format_specs const&, fmt::v11::detail::locale_ref)
PUBLIC 7fc28 0 _ZN3fmt3v116detail15format_hexfloatIdTnNSt6__ndk19enable_ifIXntsr16is_double_doubleIT_EE5valueEiE4typeELi0EEEvS5_NS0_12format_specsERNS1_6bufferIcEE
PUBLIC 80148 0 fmt::v11::detail::format_float<double>(double, int, fmt::v11::detail::float_specs, fmt::v11::detail::buffer<char>&)
PUBLIC 80b94 0 fmt::v11::detail::write<char, fmt::v11::basic_appender<char> >(fmt::v11::basic_appender<char>, fmt::v11::basic_string_view<char>, fmt::v11::format_specs const&)
PUBLIC 81e70 0 fmt::v11::detail::for_each_codepoint<fmt::v11::detail::compute_width(fmt::v11::basic_string_view<char>)::count_code_points>(fmt::v11::basic_string_view<char>, fmt::v11::detail::compute_width(fmt::v11::basic_string_view<char>)::count_code_points)::{lambda(char const*, char const*)#1}::operator()(char const*, char const*) const
PUBLIC 82028 0 fmt::v11::detail::write_int<fmt::v11::basic_appender<char>, unsigned long, char>(fmt::v11::basic_appender<char>, unsigned long, unsigned int, fmt::v11::format_specs const&, fmt::v11::detail::digit_grouping<char> const&)
PUBLIC 825a4 0 fmt::v11::detail::write_int<fmt::v11::basic_appender<char>, unsigned __int128, char>(fmt::v11::basic_appender<char>, unsigned __int128, unsigned int, fmt::v11::format_specs const&, fmt::v11::detail::digit_grouping<char> const&)
PUBLIC 82c20 0 <.plt ELF section in omgrod.geodify.android64.so>
STACK CFI INIT 38d60 10 .cfa: sp 0 +
STACK CFI INIT 38d70 8 .cfa: sp 0 +
STACK CFI INIT 38d78 8 .cfa: sp 0 +
STACK CFI INIT 38d80 14 .cfa: sp 0 +
STACK CFI INIT 38d94 1c .cfa: sp 0 +
STACK CFI INIT 38db0 10 .cfa: sp 0 +
STACK CFI INIT 38dc0 134 .cfa: sp 0 +
STACK CFI INIT 38ef4 84 .cfa: sp 0 +
STACK CFI INIT 38f78 f4 .cfa: sp 0 +
STACK CFI INIT 3906c a8 .cfa: sp 0 +
STACK CFI INIT 39114 7c .cfa: sp 0 +
STACK CFI INIT 39190 14 .cfa: sp 0 +
STACK CFI INIT 391a4 40 .cfa: sp 0 +
STACK CFI INIT 391e4 28 .cfa: sp 0 +
STACK CFI INIT 3920c 190 .cfa: sp 0 +
STACK CFI INIT 3939c 2c8 .cfa: sp 0 +
STACK CFI INIT 39664 8 .cfa: sp 0 +
STACK CFI INIT 3966c 8 .cfa: sp 0 +
STACK CFI INIT 39674 44 .cfa: sp 0 +
STACK CFI INIT 396b8 e8 .cfa: sp 0 +
STACK CFI INIT 397a0 e8 .cfa: sp 0 +
STACK CFI INIT 39888 14 .cfa: sp 0 +
STACK CFI INIT 3989c 10 .cfa: sp 0 +
STACK CFI INIT 398ac 10 .cfa: sp 0 +
STACK CFI INIT 398bc f0 .cfa: sp 0 +
STACK CFI INIT 399ac 44 .cfa: sp 0 +
STACK CFI INIT 399f0 c .cfa: sp 0 +
STACK CFI INIT 399fc c .cfa: sp 0 +
STACK CFI INIT 39a08 2c .cfa: sp 0 +
STACK CFI INIT 39a34 23c .cfa: sp 0 +
STACK CFI INIT 39c70 c .cfa: sp 0 +
STACK CFI INIT 39c7c 120 .cfa: sp 0 +
STACK CFI INIT 39d9c 494 .cfa: sp 0 +
STACK CFI INIT 3a230 b78 .cfa: sp 0 +
STACK CFI INIT 3ada8 134 .cfa: sp 0 +
STACK CFI INIT 3aedc 210 .cfa: sp 0 +
STACK CFI INIT 3b0ec 38c .cfa: sp 0 +
STACK CFI INIT 3b478 1c8 .cfa: sp 0 +
STACK CFI INIT 3b640 9c4 .cfa: sp 0 +
STACK CFI INIT 3c004 2d4 .cfa: sp 0 +
STACK CFI INIT 3c2d8 130 .cfa: sp 0 +
STACK CFI INIT 3c408 120 .cfa: sp 0 +
STACK CFI INIT 3c528 1c8 .cfa: sp 0 +
STACK CFI INIT 3c6f0 168 .cfa: sp 0 +
STACK CFI INIT 3c858 fc .cfa: sp 0 +
STACK CFI INIT 3c954 30 .cfa: sp 0 +
STACK CFI INIT 3cab0 128 .cfa: sp 0 +
STACK CFI 3cab4 .cfa: sp 80 +
STACK CFI 3cac4 .cfa: x29 48 + x19: .cfa -8 + ^ x20: .cfa -16 + ^ x21: .cfa -32 + ^ .ra: .cfa -40 + ^ x29: .cfa -48 + ^
STACK CFI 3cbc0 .cfa: sp 80 +
STACK CFI 3cbd0 .cfa: sp 0 +
STACK CFI 3cbd4 .cfa: x29 48 +
STACK CFI INIT 3cbd8 104 .cfa: sp 0 +
STACK CFI 3cbdc .cfa: sp 64 +
STACK CFI 3cbec .cfa: x29 64 + x19: .cfa -8 + ^ x20: .cfa -16 + ^ x21: .cfa -24 + ^ x22: .cfa -32 + ^ x23: .cfa -48 + ^ .ra: .cfa -56 + ^ x29: .cfa -64 + ^
STACK CFI 3cc48 .cfa: sp 64 +
STACK CFI 3cc58 .cfa: sp 0 +
STACK CFI 3cc5c .cfa: x29 64 +
STACK CFI 3cc78 .cfa: sp 64 +
STACK CFI 3cc88 .cfa: sp 0 +
STACK CFI 3cc8c .cfa: x29 64 +
STACK CFI 3ccc8 .cfa: sp 64 +
STACK CFI 3ccd8 .cfa: sp 0 +
STACK CFI INIT 3ccdc 4 .cfa: sp 0 +
STACK CFI INIT 3ce84 5c .cfa: sp 0 +
STACK CFI 3ce88 .cfa: sp 32 +
STACK CFI 3ce90 .cfa: x29 32 + x19: .cfa -16 + ^ .ra: .cfa -24 + ^ x29: .cfa -32 + ^
STACK CFI 3ced4 .cfa: sp 32 +
STACK CFI 3cedc .cfa: sp 0 +
STACK CFI INIT 3cee0 64 .cfa: sp 0 +
STACK CFI 3cee4 .cfa: sp 32 +
STACK CFI 3ceec .cfa: x29 32 + x19: .cfa -16 + ^ .ra: .cfa -24 + ^ x29: .cfa -32 + ^
STACK CFI 3cf38 .cfa: sp 32 +
STACK CFI 3cf40 .cfa: sp 0 +
STACK CFI INIT 3cf44 4 .cfa: sp 0 +
STACK CFI INIT 3cf48 4 .cfa: sp 0 +
STACK CFI INIT 3cf4c 34 .cfa: sp 0 +
STACK CFI 3cf50 .cfa: sp 32 +
STACK CFI 3cf58 .cfa: x29 32 + x19: .cfa -16 + ^ .ra: .cfa -24 + ^ x29: .cfa -32 + ^
STACK CFI 3cf74 .cfa: sp 32 +
STACK CFI 3cf7c .cfa: sp 0 +
STACK CFI INIT 3cf80 14 .cfa: sp 0 +
STACK CFI INIT 3cf94 4 .cfa: sp 0 +
STACK CFI INIT 3cf98 4 .cfa: sp 0 +
STACK CFI INIT 3cf9c 10 .cfa: sp 0 +
STACK CFI INIT 3cfac 1c .cfa: sp 0 +
STACK CFI INIT 3cfc8 c .cfa: sp 0 +
STACK CFI INIT 3cfd4 34 .cfa: sp 0 +
STACK CFI 3cfd8 .cfa: sp 16 +
STACK CFI 3cfdc .cfa: x29 16 + .ra: .cfa -8 + ^ x29: .cfa -16 + ^
STACK CFI INIT 3d008 24 .cfa: sp 0 +
STACK CFI 3d00c .cfa: sp 32 +
STACK CFI 3d014 .cfa: x29 32 + x19: .cfa -16 + ^ .ra: .cfa -24 + ^ x29: .cfa -32 + ^
STACK CFI 3d020 .cfa: sp 32 +
STACK CFI 3d028 .cfa: sp 0 +
STACK CFI INIT 3d0d8 10 .cfa: sp 0 +
STACK CFI 3d0dc .cfa: sp 16 +
STACK CFI 3d0e0 .cfa: x29 16 + .ra: .cfa -8 + ^ x29: .cfa -16 + ^
STACK CFI INIT 3d0f0 30 .cfa: sp 0 +
STACK CFI INIT 3d120 98 .cfa: sp 0 +
STACK CFI INIT 3d1b8 2ac .cfa: sp 0 +
STACK CFI INIT 3d464 8c .cfa: sp 0 +
STACK CFI INIT 3d4f0 30 .cfa: sp 0 +
STACK CFI INIT 3e584 200 .cfa: sp 0 +
STACK CFI INIT 3e784 8 .cfa: sp 0 +
STACK CFI INIT 3e78c 24 .cfa: sp 0 +
STACK CFI 3e790 .cfa: sp 32 +
STACK CFI 3e798 .cfa: x29 32 + x19: .cfa -16 + ^ .ra: .cfa -24 + ^ x29: .cfa -32 + ^
STACK CFI 3e7a4 .cfa: sp 32 +
STACK CFI 3e7ac .cfa: sp 0 +
STACK CFI INIT 3e7b0 18 .cfa: sp 0 +
STACK CFI INIT 3e7c8 4 .cfa: sp 0 +
STACK CFI INIT 3e7cc 24 .cfa: sp 0 +
STACK CFI 3e7d0 .cfa: sp 32 +
STACK CFI 3e7d8 .cfa: x29 32 + x19: .cfa -16 + ^ .ra: .cfa -24 + ^ x29: .cfa -32 + ^
STACK CFI 3e7e4 .cfa: sp 32 +
STACK CFI 3e7ec .cfa: sp 0 +
STACK CFI INIT 3ee64 50 .cfa: sp 0 +
STACK CFI 3ee68 .cfa: sp 32 +
STACK CFI 3ee70 .cfa: x29 32 + x19: .cfa -16 + ^ .ra: .cfa -24 + ^ x29: .cfa -32 + ^
STACK CFI 3ee88 .cfa: sp 32 +
STACK CFI 3ee90 .cfa: sp 0 +
STACK CFI 3ee94 .cfa: x29 32 +
STACK CFI 3eea8 .cfa: sp 32 +
STACK CFI 3eeb0 .cfa: sp 0 +
STACK CFI INIT 3eed4 7c .cfa: sp 0 +
STACK CFI 3eed8 .cfa: sp 48 +
STACK CFI 3eee4 .cfa: x29 48 + x19: .cfa -8 + ^ x20: .cfa -16 + ^ x21: .cfa -32 + ^ .ra: .cfa -40 + ^ x29: .cfa -48 + ^
STACK CFI 3ef30 .cfa: sp 48 +
STACK CFI 3ef3c .cfa: sp 0 +
STACK CFI 3ef40 .cfa: sp 48 +
STACK CFI 3ef4c .cfa: sp 0 +
STACK CFI INIT 3f184 24 .cfa: sp 0 +
STACK CFI 3f188 .cfa: sp 32 +
STACK CFI 3f190 .cfa: x29 32 + x19: .cfa -16 + ^ .ra: .cfa -24 + ^ x29: .cfa -32 + ^
STACK CFI 3f19c .cfa: sp 32 +
STACK CFI 3f1a4 .cfa: sp 0 +
STACK CFI INIT 3f1a8 2c .cfa: sp 0 +
STACK CFI 3f1ac .cfa: sp 32 +
STACK CFI 3f1b4 .cfa: x29 32 + x19: .cfa -16 + ^ .ra: .cfa -24 + ^ x29: .cfa -32 + ^
STACK CFI 3f1c8 .cfa: sp 32 +
STACK CFI 3f1d0 .cfa: sp 0 +
STACK CFI INIT 3f1d4 28 .cfa: sp 0 +
STACK CFI INIT 3f1fc 4 .cfa: sp 0 +
STACK CFI INIT 3f200 8 .cfa: sp 0 +
STACK CFI INIT 3f33c 8 .cfa: sp 0 +
STACK CFI INIT 3f344 28 .cfa: sp 0 +
STACK CFI 3f348 .cfa: sp 32 +
STACK CFI 3f350 .cfa: x29 32 + x19: .cfa -16 + ^ .ra: .cfa -24 + ^ x29: .cfa -32 + ^
STACK CFI 3f360 .cfa: sp 32 +
STACK CFI 3f368 .cfa: sp 0 +
STACK CFI INIT 3f36c 2c .cfa: sp 0 +
STACK CFI INIT 3f398 4 .cfa: sp 0 +
STACK CFI INIT 3f39c 4 .cfa: sp 0 +
STACK CFI INIT 3f3a0 4 .cfa: sp 0 +
STACK CFI INIT 3f3a4 4 .cfa: sp 0 +
STACK CFI INIT 3f3a8 4 .cfa: sp 0 +
STACK CFI INIT 3f3ac 8 .cfa: sp 0 +
STACK CFI INIT 3f404 30 .cfa: sp 0 +
STACK CFI 3f408 .cfa: sp 32 +
STACK CFI 3f410 .cfa: x29 32 + x19: .cfa -16 + ^ .ra: .cfa -24 + ^ x29: .cfa -32 + ^
STACK CFI 3f428 .cfa: sp 32 +
STACK CFI 3f430 .cfa: sp 0 +
STACK CFI INIT 3f434 34 .cfa: sp 0 +
STACK CFI 3f438 .cfa: sp 32 +
STACK CFI 3f440 .cfa: x29 32 + x19: .cfa -16 + ^ .ra: .cfa -24 + ^ x29: .cfa -32 + ^
STACK CFI INIT 3f614 14 .cfa: sp 0 +
STACK CFI 3f618 .cfa: sp 16 +
STACK CFI 3f61c .cfa: x29 16 + .ra: .cfa -8 + ^ x29: .cfa -16 + ^
STACK CFI INIT 3f694 4 .cfa: sp 0 +
STACK CFI INIT 3f704 4 .cfa: sp 0 +
STACK CFI INIT 3f708 304 .cfa: sp 0 +
STACK CFI 3f70c .cfa: sp 128 +
STACK CFI 3f724 .cfa: x29 64 + x19: .cfa -8 + ^ x20: .cfa -16 + ^ x21: .cfa -24 + ^ x22: .cfa -32 + ^ x23: .cfa -48 + ^ .ra: .cfa -56 + ^ x29: .cfa -64 + ^ v8: .cfa -72 + ^ v9: .cfa -80 + ^
STACK CFI 3f954 .cfa: sp 128 +
STACK CFI 3f96c .cfa: sp 0 +
STACK CFI 3f970 .cfa: x29 64 +
STACK CFI INIT 3fa0c 60 .cfa: sp 0 +
STACK CFI 3fa10 .cfa: sp 32 +
STACK CFI 3fa18 .cfa: x29 32 + x19: .cfa -8 + ^ x20: .cfa -16 + ^ .ra: .cfa -24 + ^ x29: .cfa -32 + ^
STACK CFI 3fa38 .cfa: sp 32 +
STACK CFI 3fa40 .cfa: sp 0 +
STACK CFI 3fa44 .cfa: x29 32 +
STACK CFI 3fa60 .cfa: sp 32 +
STACK CFI 3fa68 .cfa: sp 0 +
STACK CFI INIT 3fa6c 70 .cfa: sp 0 +
STACK CFI 3fa70 .cfa: sp 32 +
STACK CFI 3fa78 .cfa: x29 32 + x19: .cfa -8 + ^ x20: .cfa -16 + ^ .ra: .cfa -24 + ^ x29: .cfa -32 + ^
STACK CFI 3faa0 .cfa: sp 32 +
STACK CFI 3faa8 .cfa: sp 0 +
STACK CFI 3faac .cfa: x29 32 +
STACK CFI 3fad0 .cfa: sp 32 +
STACK CFI 3fad8 .cfa: sp 0 +
STACK CFI INIT 3fadc 10 .cfa: sp 0 +
STACK CFI INIT 3faec 30 .cfa: sp 0 +
STACK CFI 3faf0 .cfa: sp 32 +
STACK CFI 3faf8 .cfa: x29 32 + x19: .cfa -16 + ^ .ra: .cfa -24 + ^ x29: .cfa -32 + ^
STACK CFI 3fb10 .cfa: sp 32 +
STACK CFI 3fb18 .cfa: sp 0 +
STACK CFI INIT 3fb1c 4 .cfa: sp 0 +
STACK CFI INIT 3fb20 4 .cfa: sp 0 +
STACK CFI INIT 3fc24 b4 .cfa: sp 0 +
STACK CFI 3fc28 .cfa: sp 80 +
STACK CFI 3fc38 .cfa: x29 48 + x19: .cfa -8 + ^ x20: .cfa -16 + ^ x21: .cfa -32 + ^ .ra: .cfa -40 + ^ x29: .cfa -48 + ^
STACK CFI 3fcc0 .cfa: sp 80 +
STACK CFI 3fcd0 .cfa: sp 0 +
STACK CFI 3fcd4 .cfa: x29 48 +
STACK CFI INIT 42a84 b0 .cfa: sp 0 +
STACK CFI 42a88 .cfa: sp 48 +
STACK CFI 42a94 .cfa: x29 48 + x19: .cfa -8 + ^ x20: .cfa -16 + ^ x21: .cfa -32 + ^ .ra: .cfa -40 + ^ x29: .cfa -48 + ^
STACK CFI 42ac4 .cfa: sp 48 +
STACK CFI 42ad0 .cfa: sp 0 +
STACK CFI 42ad4 .cfa: x29 48 +
STACK CFI 42b24 .cfa: sp 48 +
STACK CFI 42b30 .cfa: sp 0 +
STACK CFI INIT 42d90 24 .cfa: sp 0 +
STACK CFI 42d94 .cfa: sp 32 +
STACK CFI 42d9c .cfa: x29 32 + x19: .cfa -16 + ^ .ra: .cfa -24 + ^ x29: .cfa -32 + ^
STACK CFI 42da8 .cfa: sp 32 +
STACK CFI 42db0 .cfa: sp 0 +
STACK CFI INIT 42db4 2c .cfa: sp 0 +
STACK CFI 42db8 .cfa: sp 32 +
STACK CFI 42dc0 .cfa: x29 32 + x19: .cfa -16 + ^ .ra: .cfa -24 + ^ x29: .cfa -32 + ^
STACK CFI 42dd4 .cfa: sp 32 +
STACK CFI 42ddc .cfa: sp 0 +
STACK CFI INIT 42de0 28 .cfa: sp 0 +
STACK CFI INIT 42f3c 8 .cfa: sp 0 +
STACK CFI INIT 42f44 28 .cfa: sp 0 +
STACK CFI 42f48 .cfa: sp 32 +
STACK CFI 42f50 .cfa: x29 32 + x19: .cfa -16 + ^ .ra: .cfa -24 + ^ x29: .cfa -32 + ^
STACK CFI 42f60 .cfa: sp 32 +
STACK CFI 42f68 .cfa: sp 0 +
STACK CFI INIT 42f6c 2c .cfa: sp 0 +
STACK CFI INIT 42f98 14 .cfa: sp 0 +
STACK CFI 42f9c .cfa: sp 16 +
STACK CFI 42fa0 .cfa: x29 16 + .ra: .cfa -8 + ^ x29: .cfa -16 + ^
STACK CFI INIT 42fac 70 .cfa: sp 0 +
STACK CFI 42fb0 .cfa: sp 48 +
STACK CFI 42fbc .cfa: x29 48 + x19: .cfa -8 + ^ x20: .cfa -16 + ^ x21: .cfa -32 + ^ .ra: .cfa -40 + ^ x29: .cfa -48 + ^
STACK CFI 42fd4 .cfa: sp 48 +
STACK CFI 42fe0 .cfa: sp 0 +
STACK CFI 42fe4 .cfa: x29 48 +
STACK CFI 4300c .cfa: sp 48 +
STACK CFI 43018 .cfa: sp 0 +
STACK CFI INIT 4301c 70 .cfa: sp 0 +
STACK CFI 43020 .cfa: sp 48 +
STACK CFI 4302c .cfa: x29 48 + x19: .cfa -8 + ^ x20: .cfa -16 + ^ x21: .cfa -32 + ^ .ra: .cfa -40 + ^ x29: .cfa -48 + ^
STACK CFI 43044 .cfa: sp 48 +
STACK CFI 43050 .cfa: sp 0 +
STACK CFI 43054 .cfa: x29 48 +
STACK CFI 4307c .cfa: sp 48 +
STACK CFI 43088 .cfa: sp 0 +
STACK CFI INIT 43364 4c .cfa: sp 0 +
STACK CFI 4336c .cfa: sp 32 +
STACK CFI 43374 .cfa: x29 32 + x19: .cfa -8 + ^ x20: .cfa -16 + ^ .ra: .cfa -24 + ^ x29: .cfa -32 + ^
STACK CFI 433a4 .cfa: sp 32 +
STACK CFI 433ac .cfa: sp 0 +
STACK CFI INIT 433b0 ac .cfa: sp 0 +
STACK CFI 433b4 .cfa: sp 64 +
STACK CFI 433c4 .cfa: x29 64 + x19: .cfa -8 + ^ x20: .cfa -16 + ^ x21: .cfa -24 + ^ x22: .cfa -32 + ^ x23: .cfa -48 + ^ .ra: .cfa -56 + ^ x29: .cfa -64 + ^
STACK CFI 43440 .cfa: sp 64 +
STACK CFI 43450 .cfa: sp 0 +
STACK CFI 43454 .cfa: x29 64 +
STACK CFI INIT 4345c 13c .cfa: sp 0 +
STACK CFI 43460 .cfa: sp 64 +
STACK CFI 43470 .cfa: x29 64 + x19: .cfa -8 + ^ x20: .cfa -16 + ^ x21: .cfa -24 + ^ x22: .cfa -32 + ^ x23: .cfa -40 + ^ x24: .cfa -48 + ^ .ra: .cfa -56 + ^ x29: .cfa -64 + ^
STACK CFI 43550 .cfa: sp 64 +
STACK CFI 43560 .cfa: sp 0 +
STACK CFI 43564 .cfa: x29 64 +
STACK CFI INIT 43598 310 .cfa: sp 0 +
STACK CFI 4359c .cfa: sp 80 +
STACK CFI 435b0 .cfa: x29 80 + x19: .cfa -8 + ^ x20: .cfa -16 + ^ x21: .cfa -24 + ^ x22: .cfa -32 + ^ x23: .cfa -40 + ^ x24: .cfa -48 + ^ x25: .cfa -56 + ^ x26: .cfa -64 + ^ .ra: .cfa -72 + ^ x29: .cfa -80 + ^
STACK CFI 43890 .cfa: sp 80 +
STACK CFI 438a4 .cfa: sp 0 +
STACK CFI INIT 438a8 44c .cfa: sp 0 +
STACK CFI INIT 43cf4 1ac .cfa: sp 0 +
STACK CFI 43cf8 .cfa: sp 32 +
STACK CFI 43d00 .cfa: x29 32 + x19: .cfa -8 + ^ x20: .cfa -16 + ^ .ra: .cfa -24 + ^ x29: .cfa -32 + ^
STACK CFI 43df0 .cfa: sp 32 +
STACK CFI 43df8 .cfa: sp 0 +
STACK CFI 43dfc .cfa: x29 32 +
STACK CFI INIT 44360 50 .cfa: sp 0 +
STACK CFI 44384 .cfa: sp 32 +
STACK CFI 4438c .cfa: x29 32 + x19: .cfa -16 + ^ .ra: .cfa -24 + ^ x29: .cfa -32 + ^
STACK CFI 443a0 .cfa: sp 32 +
STACK CFI 443a8 .cfa: sp 0 +
STACK CFI INIT 44610 4c .cfa: sp 0 +
STACK CFI 44618 .cfa: sp 32 +
STACK CFI 44620 .cfa: x29 32 + x19: .cfa -8 + ^ x20: .cfa -16 + ^ .ra: .cfa -24 + ^ x29: .cfa -32 + ^
STACK CFI 44650 .cfa: sp 32 +
STACK CFI 44658 .cfa: sp 0 +
STACK CFI INIT 4465c 220 .cfa: sp 0 +
STACK CFI 44660 .cfa: sp 48 +
STACK CFI 4466c .cfa: x29 48 + x19: .cfa -8 + ^ x20: .cfa -16 + ^ x21: .cfa -32 + ^ .ra: .cfa -40 + ^ x29: .cfa -48 + ^
STACK CFI 4486c .cfa: sp 48 +
STACK CFI 44878 .cfa: sp 0 +
STACK CFI INIT 4487c 1ac .cfa: sp 0 +
STACK CFI 44880 .cfa: sp 32 +
STACK CFI 44888 .cfa: x29 32 + x19: .cfa -8 + ^ x20: .cfa -16 + ^ .ra: .cfa -24 + ^ x29: .cfa -32 + ^
STACK CFI 44978 .cfa: sp 32 +
STACK CFI 44980 .cfa: sp 0 +
STACK CFI 44984 .cfa: x29 32 +
STACK CFI INIT 44de4 50 .cfa: sp 0 +
STACK CFI 44e08 .cfa: sp 32 +
STACK CFI 44e10 .cfa: x29 32 + x19: .cfa -16 + ^ .ra: .cfa -24 + ^ x29: .cfa -32 + ^
STACK CFI 44e24 .cfa: sp 32 +
STACK CFI 44e2c .cfa: sp 0 +
STACK CFI INIT 44e34 94 .cfa: sp 0 +
STACK CFI 44e38 .cfa: sp 48 +
STACK CFI 44e44 .cfa: x29 48 + x19: .cfa -8 + ^ x20: .cfa -16 + ^ x21: .cfa -24 + ^ x22: .cfa -32 + ^ .ra: .cfa -40 + ^ x29: .cfa -48 + ^
STACK CFI 44e5c .cfa: sp 48 +
STACK CFI 44e68 .cfa: sp 0 +
STACK CFI 44e6c .cfa: x29 48 +
STACK CFI 44eb0 .cfa: sp 48 +
STACK CFI 44ebc .cfa: sp 0 +
STACK CFI 44ec0 .cfa: x29 48 +
STACK CFI INIT 44f34 4 .cfa: sp 0 +
STACK CFI INIT 44fa4 4 .cfa: sp 0 +
STACK CFI INIT 44fa8 308 .cfa: sp 0 +
STACK CFI 44fac .cfa: sp 144 +
STACK CFI 44fc8 .cfa: x29 80 + x19: .cfa -8 + ^ x20: .cfa -16 + ^ x21: .cfa -24 + ^ x22: .cfa -32 + ^ x23: .cfa -40 + ^ x24: .cfa -48 + ^ x25: .cfa -56 + ^ x26: .cfa -64 + ^ .ra: .cfa -72 + ^ x29: .cfa -80 + ^ v8: .cfa -88 + ^ v9: .cfa -96 + ^
STACK CFI 4528c .cfa: sp 144 +
STACK CFI 452a8 .cfa: sp 0 +
STACK CFI 452ac .cfa: x29 80 +
STACK CFI INIT 452b0 60 .cfa: sp 0 +
STACK CFI 452b4 .cfa: sp 32 +
STACK CFI 452bc .cfa: x29 32 + x19: .cfa -8 + ^ x20: .cfa -16 + ^ .ra: .cfa -24 + ^ x29: .cfa -32 + ^
STACK CFI 452dc .cfa: sp 32 +
STACK CFI 452e4 .cfa: sp 0 +
STACK CFI 452e8 .cfa: x29 32 +
STACK CFI 45304 .cfa: sp 32 +
STACK CFI 4530c .cfa: sp 0 +
STACK CFI INIT 45310 70 .cfa: sp 0 +
STACK CFI 45314 .cfa: sp 32 +
STACK CFI 4531c .cfa: x29 32 + x19: .cfa -8 + ^ x20: .cfa -16 + ^ .ra: .cfa -24 + ^ x29: .cfa -32 + ^
STACK CFI 45344 .cfa: sp 32 +
STACK CFI 4534c .cfa: sp 0 +
STACK CFI 45350 .cfa: x29 32 +
STACK CFI 45374 .cfa: sp 32 +
STACK CFI 4537c .cfa: sp 0 +
STACK CFI INIT 45380 10 .cfa: sp 0 +
STACK CFI INIT 45390 30 .cfa: sp 0 +
STACK CFI 45394 .cfa: sp 32 +
STACK CFI 4539c .cfa: x29 32 + x19: .cfa -16 + ^ .ra: .cfa -24 + ^ x29: .cfa -32 + ^
STACK CFI 453b4 .cfa: sp 32 +
STACK CFI 453bc .cfa: sp 0 +
STACK CFI INIT 453c0 4 .cfa: sp 0 +
STACK CFI INIT 453c4 4 .cfa: sp 0 +
STACK CFI INIT 453c8 a4 .cfa: sp 0 +
STACK CFI 453cc .cfa: sp 64 +
STACK CFI 453d8 .cfa: x29 32 + x19: .cfa -8 + ^ x20: .cfa -16 + ^ .ra: .cfa -24 + ^ x29: .cfa -32 + ^
STACK CFI 45458 .cfa: sp 64 +
STACK CFI 45464 .cfa: sp 0 +
STACK CFI 45468 .cfa: x29 32 +
STACK CFI INIT 45de0 9c .cfa: sp 0 +
STACK CFI 45de4 .cfa: sp 32 +
STACK CFI 45dec .cfa: x29 32 + x19: .cfa -16 + ^ .ra: .cfa -24 + ^ x29: .cfa -32 + ^
STACK CFI 45e38 .cfa: sp 32 +
STACK CFI 45e40 .cfa: sp 0 +
STACK CFI 45e44 .cfa: x29 32 +
STACK CFI 45e70 .cfa: sp 32 +
STACK CFI 45e78 .cfa: sp 0 +
STACK CFI INIT 45e7c ac .cfa: sp 0 +
STACK CFI 45e80 .cfa: sp 32 +
STACK CFI 45e88 .cfa: x29 32 + x19: .cfa -16 + ^ .ra: .cfa -24 + ^ x29: .cfa -32 + ^
STACK CFI 45edc .cfa: sp 32 +
STACK CFI 45ee4 .cfa: sp 0 +
STACK CFI 45ee8 .cfa: x29 32 +
STACK CFI 45f1c .cfa: sp 32 +
STACK CFI 45f24 .cfa: sp 0 +
STACK CFI INIT 45f28 a0 .cfa: sp 0 +
STACK CFI 45f2c .cfa: sp 32 +
STACK CFI 45f34 .cfa: x29 32 + x19: .cfa -8 + ^ x20: .cfa -16 + ^ .ra: .cfa -24 + ^ x29: .cfa -32 + ^
STACK CFI 45f84 .cfa: sp 32 +
STACK CFI 45f8c .cfa: sp 0 +
STACK CFI 45f90 .cfa: x29 32 +
STACK CFI 45fbc .cfa: sp 32 +
STACK CFI 45fc4 .cfa: sp 0 +
STACK CFI INIT 45fc8 b0 .cfa: sp 0 +
STACK CFI 45fcc .cfa: sp 32 +
STACK CFI 45fd4 .cfa: x29 32 + x19: .cfa -8 + ^ x20: .cfa -16 + ^ .ra: .cfa -24 + ^ x29: .cfa -32 + ^
STACK CFI 4602c .cfa: sp 32 +
STACK CFI 46034 .cfa: sp 0 +
STACK CFI 46038 .cfa: x29 32 +
STACK CFI 4606c .cfa: sp 32 +
STACK CFI 46074 .cfa: sp 0 +
STACK CFI INIT 46920 50 .cfa: sp 0 +
STACK CFI 46924 .cfa: sp 32 +
STACK CFI 4692c .cfa: x29 32 + x19: .cfa -16 + ^ .ra: .cfa -24 + ^ x29: .cfa -32 + ^
STACK CFI 46944 .cfa: sp 32 +
STACK CFI 4694c .cfa: sp 0 +
STACK CFI 46950 .cfa: x29 32 +
STACK CFI 46964 .cfa: sp 32 +
STACK CFI 4696c .cfa: sp 0 +
STACK CFI INIT 46d08 24 .cfa: sp 0 +
STACK CFI 46d0c .cfa: sp 32 +
STACK CFI 46d14 .cfa: x29 32 + x19: .cfa -16 + ^ .ra: .cfa -24 + ^ x29: .cfa -32 + ^
STACK CFI 46d20 .cfa: sp 32 +
STACK CFI 46d28 .cfa: sp 0 +
STACK CFI INIT 46d2c 2c .cfa: sp 0 +
STACK CFI 46d30 .cfa: sp 32 +
STACK CFI 46d38 .cfa: x29 32 + x19: .cfa -16 + ^ .ra: .cfa -24 + ^ x29: .cfa -32 + ^
STACK CFI 46d4c .cfa: sp 32 +
STACK CFI 46d54 .cfa: sp 0 +
STACK CFI INIT 46d58 28 .cfa: sp 0 +
STACK CFI INIT 46eb4 8 .cfa: sp 0 +
STACK CFI INIT 46ebc 28 .cfa: sp 0 +
STACK CFI 46ec0 .cfa: sp 32 +
STACK CFI 46ec8 .cfa: x29 32 + x19: .cfa -16 + ^ .ra: .cfa -24 + ^ x29: .cfa -32 + ^
STACK CFI 46ed8 .cfa: sp 32 +
STACK CFI 46ee0 .cfa: sp 0 +
STACK CFI INIT 46ee4 2c .cfa: sp 0 +
STACK CFI INIT 46f10 c .cfa: sp 0 +
STACK CFI 46f14 .cfa: sp 16 +
STACK CFI 46f18 .cfa: x29 16 + .ra: .cfa -8 + ^ x29: .cfa -16 + ^
STACK CFI INIT 46f6c 30 .cfa: sp 0 +
STACK CFI 46f70 .cfa: sp 32 +
STACK CFI 46f78 .cfa: x29 32 + x19: .cfa -16 + ^ .ra: .cfa -24 + ^ x29: .cfa -32 + ^
STACK CFI 46f90 .cfa: sp 32 +
STACK CFI 46f98 .cfa: sp 0 +
STACK CFI INIT 47008 4 .cfa: sp 0 +
STACK CFI INIT 47078 4 .cfa: sp 0 +
STACK CFI INIT 47280 4 .cfa: sp 0 +
STACK CFI INIT 47450 9c .cfa: sp 0 +
STACK CFI 47454 .cfa: sp 32 +
STACK CFI 4745c .cfa: x29 32 + x19: .cfa -8 + ^ x20: .cfa -16 + ^ .ra: .cfa -24 + ^ x29: .cfa -32 + ^
STACK CFI 474e0 .cfa: sp 32 +
STACK CFI 474e8 .cfa: sp 0 +
STACK CFI INIT 474ec a4 .cfa: sp 0 +
STACK CFI 474f0 .cfa: sp 32 +
STACK CFI 474f8 .cfa: x29 32 + x19: .cfa -8 + ^ x20: .cfa -16 + ^ .ra: .cfa -24 + ^ x29: .cfa -32 + ^
STACK CFI 47584 .cfa: sp 32 +
STACK CFI 4758c .cfa: sp 0 +
STACK CFI INIT 47590 50 .cfa: sp 0 +
STACK CFI 47594 .cfa: sp 32 +
STACK CFI 4759c .cfa: x29 32 + x19: .cfa -16 + ^ .ra: .cfa -24 + ^ x29: .cfa -32 + ^
STACK CFI 475b4 .cfa: sp 32 +
STACK CFI 475bc .cfa: sp 0 +
STACK CFI 475c0 .cfa: x29 32 +
STACK CFI 475d4 .cfa: sp 32 +
STACK CFI 475dc .cfa: sp 0 +
STACK CFI INIT 475e0 50 .cfa: sp 0 +
STACK CFI 475e4 .cfa: sp 32 +
STACK CFI 475ec .cfa: x29 32 + x19: .cfa -16 + ^ .ra: .cfa -24 + ^ x29: .cfa -32 + ^
STACK CFI 47604 .cfa: sp 32 +
STACK CFI 4760c .cfa: sp 0 +
STACK CFI 47610 .cfa: x29 32 +
STACK CFI 47624 .cfa: sp 32 +
STACK CFI 4762c .cfa: sp 0 +
STACK CFI INIT 47630 5c .cfa: sp 0 +
STACK CFI 47634 .cfa: sp 32 +
STACK CFI 4763c .cfa: x29 32 + x19: .cfa -16 + ^ .ra: .cfa -24 + ^ x29: .cfa -32 + ^
STACK CFI 47660 .cfa: sp 32 +
STACK CFI 47668 .cfa: sp 0 +
STACK CFI 4766c .cfa: x29 32 +
STACK CFI 47680 .cfa: sp 32 +
STACK CFI 47688 .cfa: sp 0 +
STACK CFI INIT 4768c 6c .cfa: sp 0 +
STACK CFI 47690 .cfa: sp 32 +
STACK CFI 47698 .cfa: x29 32 + x19: .cfa -8 + ^ x20: .cfa -16 + ^ .ra: .cfa -24 + ^ x29: .cfa -32 + ^
STACK CFI 476c4 .cfa: sp 32 +
STACK CFI 476cc .cfa: sp 0 +
STACK CFI 476d0 .cfa: x29 32 +
STACK CFI 476ec .cfa: sp 32 +
STACK CFI 476f4 .cfa: sp 0 +
STACK CFI INIT 476f8 58 .cfa: sp 0 +
STACK CFI 476fc .cfa: sp 32 +
STACK CFI 47704 .cfa: x29 32 + x19: .cfa -8 + ^ x20: .cfa -16 + ^ .ra: .cfa -24 + ^ x29: .cfa -32 + ^
STACK CFI 47744 .cfa: sp 32 +
STACK CFI 4774c .cfa: sp 0 +
STACK CFI INIT 47750 4c .cfa: sp 0 +
STACK CFI 47754 .cfa: sp 32 +
STACK CFI 4775c .cfa: x29 32 + x19: .cfa -8 + ^ x20: .cfa -16 + ^ .ra: .cfa -24 + ^ x29: .cfa -32 + ^
STACK CFI 47790 .cfa: sp 32 +
STACK CFI 47798 .cfa: sp 0 +
STACK CFI INIT 4779c 50 .cfa: sp 0 +
STACK CFI 477a0 .cfa: sp 32 +
STACK CFI 477a8 .cfa: x29 32 + x19: .cfa -16 + ^ .ra: .cfa -24 + ^ x29: .cfa -32 + ^
STACK CFI 477c0 .cfa: sp 32 +
STACK CFI 477c8 .cfa: sp 0 +
STACK CFI 477cc .cfa: x29 32 +
STACK CFI 477e0 .cfa: sp 32 +
STACK CFI 477e8 .cfa: sp 0 +
STACK CFI INIT 477ec 60 .cfa: sp 0 +
STACK CFI 477f0 .cfa: sp 32 +
STACK CFI 477f8 .cfa: x29 32 + x19: .cfa -8 + ^ x20: .cfa -16 + ^ .ra: .cfa -24 + ^ x29: .cfa -32 + ^
STACK CFI 47818 .cfa: sp 32 +
STACK CFI 47820 .cfa: sp 0 +
STACK CFI 47824 .cfa: x29 32 +
STACK CFI 47840 .cfa: sp 32 +
STACK CFI 47848 .cfa: sp 0 +
STACK CFI INIT 479e4 1c .cfa: sp 0 +
STACK CFI INIT 47a00 c .cfa: sp 0 +
STACK CFI INIT 47a0c 60 .cfa: sp 0 +
STACK CFI 47a10 .cfa: sp 32 +
STACK CFI 47a18 .cfa: x29 32 + x19: .cfa -8 + ^ x20: .cfa -16 + ^ .ra: .cfa -24 + ^ x29: .cfa -32 + ^
STACK CFI 47a38 .cfa: sp 32 +
STACK CFI 47a40 .cfa: sp 0 +
STACK CFI 47a44 .cfa: x29 32 +
STACK CFI 47a60 .cfa: sp 32 +
STACK CFI 47a68 .cfa: sp 0 +
STACK CFI INIT 47a6c 70 .cfa: sp 0 +
STACK CFI 47a70 .cfa: sp 32 +
STACK CFI 47a78 .cfa: x29 32 + x19: .cfa -8 + ^ x20: .cfa -16 + ^ .ra: .cfa -24 + ^ x29: .cfa -32 + ^
STACK CFI 47aa0 .cfa: sp 32 +
STACK CFI 47aa8 .cfa: sp 0 +
STACK CFI 47aac .cfa: x29 32 +
STACK CFI 47ad0 .cfa: sp 32 +
STACK CFI 47ad8 .cfa: sp 0 +
STACK CFI INIT 47adc 5c .cfa: sp 0 +
STACK CFI 47ae0 .cfa: sp 32 +
STACK CFI 47ae8 .cfa: x29 32 + x19: .cfa -16 + ^ .ra: .cfa -24 + ^ x29: .cfa -32 + ^
STACK CFI 47b0c .cfa: sp 32 +
STACK CFI 47b14 .cfa: sp 0 +
STACK CFI 47b18 .cfa: x29 32 +
STACK CFI 47b2c .cfa: sp 32 +
STACK CFI 47b34 .cfa: sp 0 +
STACK CFI INIT 47b38 6c .cfa: sp 0 +
STACK CFI 47b3c .cfa: sp 32 +
STACK CFI 47b44 .cfa: x29 32 + x19: .cfa -8 + ^ x20: .cfa -16 + ^ .ra: .cfa -24 + ^ x29: .cfa -32 + ^
STACK CFI 47b70 .cfa: sp 32 +
STACK CFI 47b78 .cfa: sp 0 +
STACK CFI 47b7c .cfa: x29 32 +
STACK CFI 47b98 .cfa: sp 32 +
STACK CFI 47ba0 .cfa: sp 0 +
STACK CFI INIT 47ba4 58 .cfa: sp 0 +
STACK CFI 47ba8 .cfa: sp 32 +
STACK CFI 47bb0 .cfa: x29 32 + x19: .cfa -8 + ^ x20: .cfa -16 + ^ .ra: .cfa -24 + ^ x29: .cfa -32 + ^
STACK CFI 47bf0 .cfa: sp 32 +
STACK CFI 47bf8 .cfa: sp 0 +
STACK CFI INIT 47bfc 4c .cfa: sp 0 +
STACK CFI 47c00 .cfa: sp 32 +
STACK CFI 47c08 .cfa: x29 32 + x19: .cfa -8 + ^ x20: .cfa -16 + ^ .ra: .cfa -24 + ^ x29: .cfa -32 + ^
STACK CFI 47c3c .cfa: sp 32 +
STACK CFI 47c44 .cfa: sp 0 +
STACK CFI INIT 47c48 50 .cfa: sp 0 +
STACK CFI 47c4c .cfa: sp 32 +
STACK CFI 47c54 .cfa: x29 32 + x19: .cfa -16 + ^ .ra: .cfa -24 + ^ x29: .cfa -32 + ^
STACK CFI 47c6c .cfa: sp 32 +
STACK CFI 47c74 .cfa: sp 0 +
STACK CFI 47c78 .cfa: x29 32 +
STACK CFI 47c8c .cfa: sp 32 +
STACK CFI 47c94 .cfa: sp 0 +
STACK CFI INIT 47c98 60 .cfa: sp 0 +
STACK CFI 47c9c .cfa: sp 32 +
STACK CFI 47ca4 .cfa: x29 32 + x19: .cfa -8 + ^ x20: .cfa -16 + ^ .ra: .cfa -24 + ^ x29: .cfa -32 + ^
STACK CFI 47cc4 .cfa: sp 32 +
STACK CFI 47ccc .cfa: sp 0 +
STACK CFI 47cd0 .cfa: x29 32 +
STACK CFI 47cec .cfa: sp 32 +
STACK CFI 47cf4 .cfa: sp 0 +
STACK CFI INIT 47e80 1c .cfa: sp 0 +
STACK CFI INIT 47e9c c .cfa: sp 0 +
STACK CFI INIT 47ea8 4 .cfa: sp 0 +
STACK CFI INIT 47eac 4 .cfa: sp 0 +
STACK CFI INIT 47eb0 34 .cfa: sp 0 +
STACK CFI 47eb4 .cfa: sp 32 +
STACK CFI 47ebc .cfa: x29 32 + x19: .cfa -16 + ^ .ra: .cfa -24 + ^ x29: .cfa -32 + ^
STACK CFI 47ed8 .cfa: sp 32 +
STACK CFI 47ee0 .cfa: sp 0 +
STACK CFI INIT 47ee4 14 .cfa: sp 0 +
STACK CFI INIT 47ef8 4 .cfa: sp 0 +
STACK CFI INIT 47efc 4 .cfa: sp 0 +
STACK CFI INIT 481e8 1c .cfa: sp 0 +
STACK CFI INIT 48204 c .cfa: sp 0 +
STACK CFI INIT 48210 14 .cfa: sp 0 +
STACK CFI 48214 .cfa: sp 16 +
STACK CFI 48218 .cfa: x29 16 + .ra: .cfa -8 + ^ x29: .cfa -16 + ^
STACK CFI INIT 483d4 60 .cfa: sp 0 +
STACK CFI 483d8 .cfa: sp 32 +
STACK CFI 483e0 .cfa: x29 32 + x19: .cfa -8 + ^ x20: .cfa -16 + ^ .ra: .cfa -24 + ^ x29: .cfa -32 + ^
STACK CFI 4841c .cfa: sp 32 +
STACK CFI 48424 .cfa: sp 0 +
STACK CFI 48428 .cfa: sp 32 +
STACK CFI 48430 .cfa: sp 0 +
STACK CFI INIT 48434 3c .cfa: sp 0 +
STACK CFI 48438 .cfa: sp 32 +
STACK CFI 48440 .cfa: x29 32 + x19: .cfa -16 + ^ .ra: .cfa -24 + ^ x29: .cfa -32 + ^
STACK CFI 48458 .cfa: sp 32 +
STACK CFI 48460 .cfa: sp 0 +
STACK CFI 48464 .cfa: sp 32 +
STACK CFI 4846c .cfa: sp 0 +
STACK CFI INIT 48470 4 .cfa: sp 0 +
STACK CFI INIT 48474 4 .cfa: sp 0 +
STACK CFI INIT 48478 34 .cfa: sp 0 +
STACK CFI 4847c .cfa: sp 32 +
STACK CFI 48484 .cfa: x29 32 + x19: .cfa -16 + ^ .ra: .cfa -24 + ^ x29: .cfa -32 + ^
STACK CFI 484a0 .cfa: sp 32 +
STACK CFI 484a8 .cfa: sp 0 +
STACK CFI INIT 484ac 14 .cfa: sp 0 +
STACK CFI INIT 484c0 4 .cfa: sp 0 +
STACK CFI INIT 484c4 4 .cfa: sp 0 +
STACK CFI INIT 48620 1c .cfa: sp 0 +
STACK CFI INIT 4863c c .cfa: sp 0 +
STACK CFI INIT 48648 310 .cfa: sp 0 +
STACK CFI 4864c .cfa: sp 128 +
STACK CFI 48664 .cfa: x29 64 + x19: .cfa -8 + ^ x20: .cfa -16 + ^ x21: .cfa -24 + ^ x22: .cfa -32 + ^ x23: .cfa -40 + ^ x24: .cfa -48 + ^ .ra: .cfa -56 + ^ x29: .cfa -64 + ^ v8: .cfa -72 + ^ v9: .cfa -80 + ^
STACK CFI 4889c .cfa: sp 128 +
STACK CFI 488b4 .cfa: sp 0 +
STACK CFI 488b8 .cfa: x29 64 +
STACK CFI INIT 48958 60 .cfa: sp 0 +
STACK CFI 4895c .cfa: sp 32 +
STACK CFI 48964 .cfa: x29 32 + x19: .cfa -8 + ^ x20: .cfa -16 + ^ .ra: .cfa -24 + ^ x29: .cfa -32 + ^
STACK CFI 48984 .cfa: sp 32 +
STACK CFI 4898c .cfa: sp 0 +
STACK CFI 48990 .cfa: x29 32 +
STACK CFI 489ac .cfa: sp 32 +
STACK CFI 489b4 .cfa: sp 0 +
STACK CFI INIT 489b8 70 .cfa: sp 0 +
STACK CFI 489bc .cfa: sp 32 +
STACK CFI 489c4 .cfa: x29 32 + x19: .cfa -8 + ^ x20: .cfa -16 + ^ .ra: .cfa -24 + ^ x29: .cfa -32 + ^
STACK CFI 489ec .cfa: sp 32 +
STACK CFI 489f4 .cfa: sp 0 +
STACK CFI 489f8 .cfa: x29 32 +
STACK CFI 48a1c .cfa: sp 32 +
STACK CFI 48a24 .cfa: sp 0 +
STACK CFI INIT 48a28 10 .cfa: sp 0 +
STACK CFI INIT 48a38 30 .cfa: sp 0 +
STACK CFI 48a3c .cfa: sp 32 +
STACK CFI 48a44 .cfa: x29 32 + x19: .cfa -16 + ^ .ra: .cfa -24 + ^ x29: .cfa -32 + ^
STACK CFI 48a5c .cfa: sp 32 +
STACK CFI 48a64 .cfa: sp 0 +
STACK CFI INIT 48a68 4 .cfa: sp 0 +
STACK CFI INIT 48a6c 4 .cfa: sp 0 +
STACK CFI INIT 48a70 1c .cfa: sp 0 +
STACK CFI 48a74 .cfa: sp 16 +
STACK CFI 48a78 .cfa: x29 16 + .ra: .cfa -8 + ^ x29: .cfa -16 + ^
STACK CFI 48a84 .cfa: sp 16 +
STACK CFI 48a88 .cfa: sp 0 +
STACK CFI INIT 48a8c 1c .cfa: sp 0 +
STACK CFI 48a90 .cfa: sp 16 +
STACK CFI 48a94 .cfa: x29 16 + .ra: .cfa -8 + ^ x29: .cfa -16 + ^
STACK CFI 48aa0 .cfa: sp 16 +
STACK CFI 48aa4 .cfa: sp 0 +
STACK CFI INIT 48aa8 1c .cfa: sp 0 +
STACK CFI 48aac .cfa: sp 16 +
STACK CFI 48ab0 .cfa: x29 16 + .ra: .cfa -8 + ^ x29: .cfa -16 + ^
STACK CFI 48abc .cfa: sp 16 +
STACK CFI 48ac0 .cfa: sp 0 +
STACK CFI INIT 48c78 1c .cfa: sp 0 +
STACK CFI 48c7c .cfa: sp 16 +
STACK CFI 48c80 .cfa: x29 16 + .ra: .cfa -8 + ^ x29: .cfa -16 + ^
STACK CFI 48c8c .cfa: sp 16 +
STACK CFI 48c90 .cfa: sp 0 +
STACK CFI INIT 4c988 b0 .cfa: sp 0 +
STACK CFI 4c98c .cfa: sp 48 +
STACK CFI 4c998 .cfa: x29 48 + x19: .cfa -8 + ^ x20: .cfa -16 + ^ x21: .cfa -24 + ^ x22: .cfa -32 + ^ .ra: .cfa -40 + ^ x29: .cfa -48 + ^
STACK CFI 4c9cc .cfa: sp 48 +
STACK CFI 4c9d8 .cfa: sp 0 +
STACK CFI 4c9dc .cfa: x29 48 +
STACK CFI 4ca20 .cfa: sp 48 +
STACK CFI 4ca2c .cfa: sp 0 +
STACK CFI 4ca30 .cfa: x29 48 +
STACK CFI INIT 4cbdc 70 .cfa: sp 0 +
STACK CFI 4cbe0 .cfa: sp 64 +
STACK CFI 4cbec .cfa: x29 32 + x19: .cfa -8 + ^ x20: .cfa -16 + ^ .ra: .cfa -24 + ^ x29: .cfa -32 + ^
STACK CFI 4cc38 .cfa: sp 64 +
STACK CFI 4cc44 .cfa: sp 0 +
STACK CFI 4cc48 .cfa: x29 32 +
STACK CFI INIT 4d380 44 .cfa: sp 0 +
STACK CFI 4d384 .cfa: sp 32 +
STACK CFI 4d38c .cfa: x29 32 + x19: .cfa -16 + ^ .ra: .cfa -24 + ^ x29: .cfa -32 + ^
STACK CFI 4d3a8 .cfa: sp 32 +
STACK CFI 4d3b0 .cfa: sp 0 +
STACK CFI 4d3b4 .cfa: x29 32 +
STACK CFI 4d3b8 .cfa: sp 32 +
STACK CFI 4d3c0 .cfa: sp 0 +
STACK CFI INIT 4d3c4 64 .cfa: sp 0 +
STACK CFI 4d3c8 .cfa: sp 64 +
STACK CFI 4d3d4 .cfa: x29 32 + x19: .cfa -16 + ^ .ra: .cfa -24 + ^ x29: .cfa -32 + ^
STACK CFI 4d414 .cfa: sp 64 +
STACK CFI 4d420 .cfa: sp 0 +
STACK CFI 4d424 .cfa: x29 32 +
STACK CFI INIT 4d428 ac .cfa: sp 0 +
STACK CFI 4d42c .cfa: sp 96 +
STACK CFI 4d43c .cfa: x29 48 + x19: .cfa -8 + ^ x20: .cfa -16 + ^ x21: .cfa -32 + ^ .ra: .cfa -40 + ^ x29: .cfa -48 + ^
STACK CFI 4d4bc .cfa: sp 96 +
STACK CFI 4d4cc .cfa: sp 0 +
STACK CFI 4d4d0 .cfa: x29 48 +
STACK CFI INIT 4d4d4 84 .cfa: sp 0 +
STACK CFI 4d4d8 .cfa: sp 64 +
STACK CFI 4d4e4 .cfa: x29 32 + x19: .cfa -8 + ^ x20: .cfa -16 + ^ .ra: .cfa -24 + ^ x29: .cfa -32 + ^
STACK CFI 4d544 .cfa: sp 64 +
STACK CFI 4d550 .cfa: sp 0 +
STACK CFI 4d554 .cfa: x29 32 +
STACK CFI INIT 4d558 50 .cfa: sp 0 +
STACK CFI 4d55c .cfa: sp 32 +
STACK CFI 4d564 .cfa: x29 32 + x19: .cfa -8 + ^ x20: .cfa -16 + ^ .ra: .cfa -24 + ^ x29: .cfa -32 + ^
STACK CFI 4d59c .cfa: sp 32 +
STACK CFI 4d5a4 .cfa: sp 0 +
STACK CFI INIT 4d5a8 24 .cfa: sp 0 +
STACK CFI 4d5ac .cfa: sp 32 +
STACK CFI 4d5b4 .cfa: x29 32 + x19: .cfa -16 + ^ .ra: .cfa -24 + ^ x29: .cfa -32 + ^
STACK CFI 4d5c0 .cfa: sp 32 +
STACK CFI 4d5c8 .cfa: sp 0 +
STACK CFI INIT 4d5cc 8 .cfa: sp 0 +
STACK CFI INIT 4d5d4 28 .cfa: sp 0 +
STACK CFI 4d5d8 .cfa: sp 32 +
STACK CFI 4d5e0 .cfa: x29 32 + x19: .cfa -16 + ^ .ra: .cfa -24 + ^ x29: .cfa -32 + ^
STACK CFI 4d5f0 .cfa: sp 32 +
STACK CFI 4d5f8 .cfa: sp 0 +
STACK CFI INIT 4dbe8 14 .cfa: sp 0 +
STACK CFI 4dbec .cfa: sp 16 +
STACK CFI 4dbf0 .cfa: x29 16 + .ra: .cfa -8 + ^ x29: .cfa -16 + ^
STACK CFI INIT 4de94 34 .cfa: sp 0 +
STACK CFI 4de98 .cfa: sp 16 +
STACK CFI 4de9c .cfa: x29 16 + .ra: .cfa -8 + ^ x29: .cfa -16 + ^
STACK CFI INIT 4dec8 4 .cfa: sp 0 +
STACK CFI INIT 4decc 14 .cfa: sp 0 +
STACK CFI INIT 4dee0 4 .cfa: sp 0 +
STACK CFI INIT 4dee4 14 .cfa: sp 0 +
STACK CFI INIT 4def8 114 .cfa: sp 0 +
STACK CFI 4defc .cfa: sp 32 +
STACK CFI 4df04 .cfa: x29 32 + x19: .cfa -16 + ^ .ra: .cfa -24 + ^ x29: .cfa -32 + ^
STACK CFI 4df4c .cfa: sp 32 +
STACK CFI 4df54 .cfa: sp 0 +
STACK CFI 4df58 .cfa: x29 32 +
STACK CFI 4df88 .cfa: sp 32 +
STACK CFI 4df90 .cfa: sp 0 +
STACK CFI 4df94 .cfa: x29 32 +
STACK CFI 4dfb4 .cfa: sp 32 +
STACK CFI 4dfbc .cfa: sp 0 +
STACK CFI 4dfc0 .cfa: x29 32 +
STACK CFI 4dfd0 .cfa: sp 32 +
STACK CFI 4dfd8 .cfa: sp 0 +
STACK CFI 4dfdc .cfa: x29 32 +
STACK CFI 4dff0 .cfa: sp 32 +
STACK CFI 4dff8 .cfa: sp 0 +
STACK CFI 4dffc .cfa: x29 32 +
STACK CFI 4e000 .cfa: sp 32 +
STACK CFI 4e008 .cfa: sp 0 +
STACK CFI INIT 4e204 8 .cfa: sp 0 +
STACK CFI INIT 4e20c 38 .cfa: sp 0 +
STACK CFI 4e210 .cfa: sp 32 +
STACK CFI 4e218 .cfa: x29 32 + x19: .cfa -16 + ^ .ra: .cfa -24 + ^ x29: .cfa -32 + ^
STACK CFI 4e238 .cfa: sp 32 +
STACK CFI 4e240 .cfa: sp 0 +
STACK CFI INIT 4e244 88 .cfa: sp 0 +
STACK CFI 4e248 .cfa: sp 32 +
STACK CFI 4e250 .cfa: x29 32 + x19: .cfa -16 + ^ .ra: .cfa -24 + ^ x29: .cfa -32 + ^
STACK CFI 4e298 .cfa: sp 32 +
STACK CFI 4e2a0 .cfa: sp 0 +
STACK CFI 4e2a4 .cfa: x29 32 +
STACK CFI 4e2b4 .cfa: sp 32 +
STACK CFI 4e2bc .cfa: sp 0 +
STACK CFI 4e2c0 .cfa: sp 32 +
STACK CFI 4e2c8 .cfa: sp 0 +
STACK CFI INIT 4e2cc 44 .cfa: sp 0 +
STACK CFI 4e2d0 .cfa: sp 32 +
STACK CFI 4e2d8 .cfa: x29 32 + x19: .cfa -16 + ^ .ra: .cfa -24 + ^ x29: .cfa -32 + ^
STACK CFI 4e2f8 .cfa: sp 32 +
STACK CFI 4e300 .cfa: sp 0 +
STACK CFI 4e304 .cfa: sp 32 +
STACK CFI 4e30c .cfa: sp 0 +
STACK CFI INIT 4f948 18c .cfa: sp 0 +
STACK CFI 4f94c .cfa: sp 112 +
STACK CFI 4f968 .cfa: x29 96 + x19: .cfa -8 + ^ x20: .cfa -16 + ^ x21: .cfa -24 + ^ x22: .cfa -32 + ^ x23: .cfa -40 + ^ x24: .cfa -48 + ^ x25: .cfa -56 + ^ x26: .cfa -64 + ^ x27: .cfa -80 + ^ .ra: .cfa -88 + ^ x29: .cfa -96 + ^
STACK CFI 4fab0 .cfa: sp 112 +
STACK CFI 4facc .cfa: sp 0 +
STACK CFI 4fad0 .cfa: x29 96 +
STACK CFI INIT 4fad4 15c .cfa: sp 0 +
STACK CFI 4fad8 .cfa: sp 80 +
STACK CFI 4faec .cfa: x29 80 + x19: .cfa -8 + ^ x20: .cfa -16 + ^ x21: .cfa -24 + ^ x22: .cfa -32 + ^ x23: .cfa -40 + ^ x24: .cfa -48 + ^ x25: .cfa -64 + ^ .ra: .cfa -72 + ^ x29: .cfa -80 + ^
STACK CFI 4fb98 .cfa: sp 80 +
STACK CFI 4fbac .cfa: sp 0 +
STACK CFI 4fbb0 .cfa: x29 80 +
STACK CFI 4fc00 .cfa: sp 80 +
STACK CFI 4fc14 .cfa: sp 0 +
STACK CFI 4fc18 .cfa: x29 80 +
STACK CFI INIT 4fc30 14 .cfa: sp 0 +
STACK CFI 4fc34 .cfa: sp 16 +
STACK CFI 4fc38 .cfa: x29 16 + .ra: .cfa -8 + ^ x29: .cfa -16 + ^
STACK CFI INIT 4fc44 1ac .cfa: sp 0 +
STACK CFI 4fc48 .cfa: sp 48 +
STACK CFI 4fc54 .cfa: x29 48 + x19: .cfa -8 + ^ x20: .cfa -16 + ^ x21: .cfa -24 + ^ x22: .cfa -32 + ^ .ra: .cfa -40 + ^ x29: .cfa -48 + ^
STACK CFI 4fdcc .cfa: sp 48 +
STACK CFI 4fdd8 .cfa: sp 0 +
STACK CFI 4fddc .cfa: x29 48 +
STACK CFI 4fde0 .cfa: sp 48 +
STACK CFI 4fdec .cfa: sp 0 +
STACK CFI INIT 515c8 50 .cfa: sp 0 +
STACK CFI 515e0 .cfa: sp 32 +
STACK CFI 515e8 .cfa: x29 32 + x19: .cfa -8 + ^ x20: .cfa -16 + ^ .ra: .cfa -24 + ^ x29: .cfa -32 + ^
STACK CFI INIT 51f54 30 .cfa: sp 0 +
STACK CFI 51f58 .cfa: sp 32 +
STACK CFI 51f60 .cfa: x29 32 + x19: .cfa -16 + ^ .ra: .cfa -24 + ^ x29: .cfa -32 + ^
STACK CFI 51f78 .cfa: sp 32 +
STACK CFI 51f80 .cfa: sp 0 +
STACK CFI INIT 5386c 50 .cfa: sp 0 +
STACK CFI 53884 .cfa: sp 32 +
STACK CFI 5388c .cfa: x29 32 + x19: .cfa -8 + ^ x20: .cfa -16 + ^ .ra: .cfa -24 + ^ x29: .cfa -32 + ^
STACK CFI INIT 538bc 100 .cfa: sp 0 +
STACK CFI 538c0 .cfa: sp 32 +
STACK CFI 538c8 .cfa: x29 32 + x19: .cfa -8 + ^ x20: .cfa -16 + ^ .ra: .cfa -24 + ^ x29: .cfa -32 + ^
STACK CFI 539a0 .cfa: sp 32 +
STACK CFI 539a8 .cfa: sp 0 +
STACK CFI 539ac .cfa: sp 32 +
STACK CFI 539b4 .cfa: sp 0 +
STACK CFI 539b8 .cfa: x29 32 +
STACK CFI INIT 539bc 14 .cfa: sp 0 +
STACK CFI 539c0 .cfa: sp 16 +
STACK CFI 539c4 .cfa: x29 16 + .ra: .cfa -8 + ^ x29: .cfa -16 + ^
STACK CFI INIT 542e8 50 .cfa: sp 0 +
STACK CFI 54300 .cfa: sp 32 +
STACK CFI 54308 .cfa: x29 32 + x19: .cfa -8 + ^ x20: .cfa -16 + ^ .ra: .cfa -24 + ^ x29: .cfa -32 + ^
STACK CFI INIT 548c8 14 .cfa: sp 0 +
STACK CFI 548cc .cfa: sp 16 +
STACK CFI 548d0 .cfa: x29 16 + .ra: .cfa -8 + ^ x29: .cfa -16 + ^
STACK CFI INIT 548dc 38 .cfa: sp 0 +
STACK CFI 548e0 .cfa: sp 32 +
STACK CFI 548e8 .cfa: x29 32 + x19: .cfa -16 + ^ .ra: .cfa -24 + ^ x29: .cfa -32 + ^
STACK CFI 54908 .cfa: sp 32 +
STACK CFI 54910 .cfa: sp 0 +
STACK CFI INIT 54ee4 1a8 .cfa: sp 0 +
STACK CFI INIT 552d0 38 .cfa: sp 0 +
STACK CFI 552d4 .cfa: sp 32 +
STACK CFI 552dc .cfa: x29 32 + x19: .cfa -16 + ^ .ra: .cfa -24 + ^ x29: .cfa -32 + ^
STACK CFI 552fc .cfa: sp 32 +
STACK CFI 55304 .cfa: sp 0 +
STACK CFI INIT 55568 30 .cfa: sp 0 +
STACK CFI INIT 55598 3c8 .cfa: sp 0 +
STACK CFI INIT 55960 38 .cfa: sp 0 +
STACK CFI 55964 .cfa: sp 32 +
STACK CFI 5596c .cfa: x29 32 + x19: .cfa -16 + ^ .ra: .cfa -24 + ^ x29: .cfa -32 + ^
STACK CFI 5598c .cfa: sp 32 +
STACK CFI 55994 .cfa: sp 0 +
STACK CFI INIT 55b70 48 .cfa: sp 0 +
STACK CFI 55b74 .cfa: sp 32 +
STACK CFI 55b7c .cfa: x29 32 + x19: .cfa -16 + ^ .ra: .cfa -24 + ^ x29: .cfa -32 + ^
STACK CFI 55bac .cfa: sp 32 +
STACK CFI 55bb4 .cfa: sp 0 +
STACK CFI INIT 55db4 54 .cfa: sp 0 +
STACK CFI 55db8 .cfa: sp 32 +
STACK CFI 55dc0 .cfa: x29 32 + x19: .cfa -8 + ^ x20: .cfa -16 + ^ .ra: .cfa -24 + ^ x29: .cfa -32 + ^
STACK CFI 55dfc .cfa: sp 32 +
STACK CFI 55e04 .cfa: sp 0 +
STACK CFI INIT 55e08 38 .cfa: sp 0 +
STACK CFI 55e0c .cfa: sp 32 +
STACK CFI 55e14 .cfa: x29 32 + x19: .cfa -16 + ^ .ra: .cfa -24 + ^ x29: .cfa -32 + ^
STACK CFI 55e34 .cfa: sp 32 +
STACK CFI 55e3c .cfa: sp 0 +
STACK CFI INIT 55e40 9c .cfa: sp 0 +
STACK CFI 55e44 .cfa: sp 272 +
STACK CFI 55e50 .cfa: x29 32 + x19: .cfa -8 + ^ x28: .cfa -16 + ^ .ra: .cfa -24 + ^ x29: .cfa -32 + ^
STACK CFI 55ec8 .cfa: sp 272 +
STACK CFI 55ed4 .cfa: sp 0 +
STACK CFI 55ed8 .cfa: x29 32 +
STACK CFI INIT 55edc 50 .cfa: sp 0 +
STACK CFI 55ef4 .cfa: sp 32 +
STACK CFI 55efc .cfa: x29 32 + x19: .cfa -8 + ^ x20: .cfa -16 + ^ .ra: .cfa -24 + ^ x29: .cfa -32 + ^
STACK CFI INIT 56408 168 .cfa: sp 0 +
STACK CFI 5640c .cfa: sp 64 +
STACK CFI 5641c .cfa: x29 64 + x19: .cfa -8 + ^ x20: .cfa -16 + ^ x21: .cfa -24 + ^ x22: .cfa -32 + ^ x23: .cfa -40 + ^ x24: .cfa -48 + ^ .ra: .cfa -56 + ^ x29: .cfa -64 + ^
STACK CFI 56504 .cfa: sp 64 +
STACK CFI 56514 .cfa: sp 0 +
STACK CFI 56518 .cfa: x29 64 +
STACK CFI 56520 .cfa: sp 64 +
STACK CFI 56530 .cfa: sp 0 +
STACK CFI 56534 .cfa: x29 64 +
STACK CFI 56540 .cfa: sp 64 +
STACK CFI 56550 .cfa: sp 0 +
STACK CFI 56554 .cfa: x29 64 +
STACK CFI 5655c .cfa: sp 64 +
STACK CFI 5656c .cfa: sp 0 +
STACK CFI INIT 565f8 88 .cfa: sp 0 +
STACK CFI 56600 .cfa: sp 32 +
STACK CFI 56608 .cfa: x29 32 + x19: .cfa -16 + ^ .ra: .cfa -24 + ^ x29: .cfa -32 + ^
STACK CFI 56638 .cfa: sp 32 +
STACK CFI 56640 .cfa: sp 0 +
STACK CFI 56648 .cfa: x29 32 +
STACK CFI 56674 .cfa: sp 32 +
STACK CFI 5667c .cfa: sp 0 +
STACK CFI INIT 56cf0 168 .cfa: sp 0 +
STACK CFI 56cf4 .cfa: sp 64 +
STACK CFI 56d04 .cfa: x29 64 + x19: .cfa -8 + ^ x20: .cfa -16 + ^ x21: .cfa -24 + ^ x22: .cfa -32 + ^ x23: .cfa -40 + ^ x24: .cfa -48 + ^ .ra: .cfa -56 + ^ x29: .cfa -64 + ^
STACK CFI 56dec .cfa: sp 64 +
STACK CFI 56dfc .cfa: sp 0 +
STACK CFI 56e00 .cfa: x29 64 +
STACK CFI 56e08 .cfa: sp 64 +
STACK CFI 56e18 .cfa: sp 0 +
STACK CFI 56e1c .cfa: x29 64 +
STACK CFI 56e28 .cfa: sp 64 +
STACK CFI 56e38 .cfa: sp 0 +
STACK CFI 56e3c .cfa: x29 64 +
STACK CFI 56e44 .cfa: sp 64 +
STACK CFI 56e54 .cfa: sp 0 +
STACK CFI INIT 57288 80 .cfa: sp 0 +
STACK CFI 5728c .cfa: sp 32 +
STACK CFI 57294 .cfa: x29 32 + x19: .cfa -16 + ^ .ra: .cfa -24 + ^ x29: .cfa -32 + ^
STACK CFI 572cc .cfa: sp 32 +
STACK CFI 572d4 .cfa: sp 0 +
STACK CFI 572d8 .cfa: sp 32 +
STACK CFI 572e0 .cfa: sp 0 +
STACK CFI 572e4 .cfa: x29 32 +
STACK CFI INIT 57308 128 .cfa: sp 0 +
STACK CFI 5730c .cfa: sp 64 +
STACK CFI 5731c .cfa: x29 64 + x19: .cfa -8 + ^ x20: .cfa -16 + ^ x21: .cfa -24 + ^ x22: .cfa -32 + ^ x23: .cfa -40 + ^ x24: .cfa -48 + ^ .ra: .cfa -56 + ^ x29: .cfa -64 + ^
STACK CFI 5741c .cfa: sp 64 +
STACK CFI 5742c .cfa: sp 0 +
STACK CFI INIT 575ac 4 .cfa: sp 0 +
STACK CFI INIT 575b0 4 .cfa: sp 0 +
STACK CFI INIT 575b4 24 .cfa: sp 0 +
STACK CFI 575b8 .cfa: sp 16 +
STACK CFI 575bc .cfa: x29 16 + .ra: .cfa -8 + ^ x29: .cfa -16 + ^
STACK CFI 575d0 .cfa: sp 16 +
STACK CFI 575d4 .cfa: sp 0 +
STACK CFI INIT 575d8 10 .cfa: sp 0 +
STACK CFI INIT 575e8 4 .cfa: sp 0 +
STACK CFI INIT 575ec 4 .cfa: sp 0 +
STACK CFI INIT 575f0 d8 .cfa: sp 0 +
STACK CFI 575f4 .cfa: sp 32 +
STACK CFI 575fc .cfa: x29 32 + x19: .cfa -8 + ^ x20: .cfa -16 + ^ .ra: .cfa -24 + ^ x29: .cfa -32 + ^
STACK CFI 576b0 .cfa: sp 32 +
STACK CFI 576b8 .cfa: sp 0 +
STACK CFI 576bc .cfa: sp 32 +
STACK CFI 576c4 .cfa: sp 0 +
STACK CFI INIT 576c8 1c .cfa: sp 0 +
STACK CFI INIT 576e4 c .cfa: sp 0 +
STACK CFI INIT 57864 4 .cfa: sp 0 +
STACK CFI INIT 57868 24 .cfa: sp 0 +
STACK CFI 5786c .cfa: sp 16 +
STACK CFI 57870 .cfa: x29 16 + .ra: .cfa -8 + ^ x29: .cfa -16 + ^
STACK CFI 57884 .cfa: sp 16 +
STACK CFI 57888 .cfa: sp 0 +
STACK CFI INIT 5788c 10 .cfa: sp 0 +
STACK CFI INIT 5789c 4 .cfa: sp 0 +
STACK CFI INIT 578a0 4 .cfa: sp 0 +
STACK CFI INIT 578a4 d8 .cfa: sp 0 +
STACK CFI 578a8 .cfa: sp 32 +
STACK CFI 578b0 .cfa: x29 32 + x19: .cfa -8 + ^ x20: .cfa -16 + ^ .ra: .cfa -24 + ^ x29: .cfa -32 + ^
STACK CFI 57964 .cfa: sp 32 +
STACK CFI 5796c .cfa: sp 0 +
STACK CFI 57970 .cfa: sp 32 +
STACK CFI 57978 .cfa: sp 0 +
STACK CFI INIT 5797c 1c .cfa: sp 0 +
STACK CFI INIT 57998 c .cfa: sp 0 +
STACK CFI INIT 57b24 4 .cfa: sp 0 +
STACK CFI INIT 57b28 24 .cfa: sp 0 +
STACK CFI 57b2c .cfa: sp 16 +
STACK CFI 57b30 .cfa: x29 16 + .ra: .cfa -8 + ^ x29: .cfa -16 + ^
STACK CFI 57b44 .cfa: sp 16 +
STACK CFI 57b48 .cfa: sp 0 +
STACK CFI INIT 57b4c 10 .cfa: sp 0 +
STACK CFI INIT 57b5c 4 .cfa: sp 0 +
STACK CFI INIT 57b60 4 .cfa: sp 0 +
STACK CFI INIT 57b64 d8 .cfa: sp 0 +
STACK CFI 57b68 .cfa: sp 32 +
STACK CFI 57b70 .cfa: x29 32 + x19: .cfa -8 + ^ x20: .cfa -16 + ^ .ra: .cfa -24 + ^ x29: .cfa -32 + ^
STACK CFI 57c24 .cfa: sp 32 +
STACK CFI 57c2c .cfa: sp 0 +
STACK CFI 57c30 .cfa: sp 32 +
STACK CFI 57c38 .cfa: sp 0 +
STACK CFI INIT 57c3c 1c .cfa: sp 0 +
STACK CFI INIT 57c58 c .cfa: sp 0 +
STACK CFI INIT 57de4 4 .cfa: sp 0 +
STACK CFI INIT 57de8 24 .cfa: sp 0 +
STACK CFI 57dec .cfa: sp 16 +
STACK CFI 57df0 .cfa: x29 16 + .ra: .cfa -8 + ^ x29: .cfa -16 + ^
STACK CFI 57e04 .cfa: sp 16 +
STACK CFI 57e08 .cfa: sp 0 +
STACK CFI INIT 57e0c 10 .cfa: sp 0 +
STACK CFI INIT 57e1c 4 .cfa: sp 0 +
STACK CFI INIT 57e20 4 .cfa: sp 0 +
STACK CFI INIT 57e24 d8 .cfa: sp 0 +
STACK CFI 57e28 .cfa: sp 32 +
STACK CFI 57e30 .cfa: x29 32 + x19: .cfa -8 + ^ x20: .cfa -16 + ^ .ra: .cfa -24 + ^ x29: .cfa -32 + ^
STACK CFI 57ee4 .cfa: sp 32 +
STACK CFI 57eec .cfa: sp 0 +
STACK CFI 57ef0 .cfa: sp 32 +
STACK CFI 57ef8 .cfa: sp 0 +
STACK CFI INIT 57efc 1c .cfa: sp 0 +
STACK CFI INIT 57f18 c .cfa: sp 0 +
STACK CFI INIT 5809c 4 .cfa: sp 0 +
STACK CFI INIT 580a0 24 .cfa: sp 0 +
STACK CFI 580a4 .cfa: sp 16 +
STACK CFI 580a8 .cfa: x29 16 + .ra: .cfa -8 + ^ x29: .cfa -16 + ^
STACK CFI 580bc .cfa: sp 16 +
STACK CFI 580c0 .cfa: sp 0 +
STACK CFI INIT 580c4 10 .cfa: sp 0 +
STACK CFI INIT 580d4 4 .cfa: sp 0 +
STACK CFI INIT 580d8 4 .cfa: sp 0 +
STACK CFI INIT 580dc d8 .cfa: sp 0 +
STACK CFI 580e0 .cfa: sp 32 +
STACK CFI 580e8 .cfa: x29 32 + x19: .cfa -8 + ^ x20: .cfa -16 + ^ .ra: .cfa -24 + ^ x29: .cfa -32 + ^
STACK CFI 5819c .cfa: sp 32 +
STACK CFI 581a4 .cfa: sp 0 +
STACK CFI 581a8 .cfa: sp 32 +
STACK CFI 581b0 .cfa: sp 0 +
STACK CFI INIT 581b4 1c .cfa: sp 0 +
STACK CFI INIT 581d0 c .cfa: sp 0 +
STACK CFI INIT 58350 4 .cfa: sp 0 +
STACK CFI INIT 58354 24 .cfa: sp 0 +
STACK CFI 58358 .cfa: sp 16 +
STACK CFI 5835c .cfa: x29 16 + .ra: .cfa -8 + ^ x29: .cfa -16 + ^
STACK CFI 58370 .cfa: sp 16 +
STACK CFI 58374 .cfa: sp 0 +
STACK CFI INIT 58378 10 .cfa: sp 0 +
STACK CFI INIT 58388 4 .cfa: sp 0 +
STACK CFI INIT 5838c 4 .cfa: sp 0 +
STACK CFI INIT 58390 d8 .cfa: sp 0 +
STACK CFI 58394 .cfa: sp 32 +
STACK CFI 5839c .cfa: x29 32 + x19: .cfa -8 + ^ x20: .cfa -16 + ^ .ra: .cfa -24 + ^ x29: .cfa -32 + ^
STACK CFI 58450 .cfa: sp 32 +
STACK CFI 58458 .cfa: sp 0 +
STACK CFI 5845c .cfa: sp 32 +
STACK CFI 58464 .cfa: sp 0 +
STACK CFI INIT 58468 1c .cfa: sp 0 +
STACK CFI INIT 58484 c .cfa: sp 0 +
STACK CFI INIT 58610 4 .cfa: sp 0 +
STACK CFI INIT 58614 24 .cfa: sp 0 +
STACK CFI 58618 .cfa: sp 16 +
STACK CFI 5861c .cfa: x29 16 + .ra: .cfa -8 + ^ x29: .cfa -16 + ^
STACK CFI 58630 .cfa: sp 16 +
STACK CFI 58634 .cfa: sp 0 +
STACK CFI INIT 58638 10 .cfa: sp 0 +
STACK CFI INIT 58648 4 .cfa: sp 0 +
STACK CFI INIT 5864c 4 .cfa: sp 0 +
STACK CFI INIT 58650 d8 .cfa: sp 0 +
STACK CFI 58654 .cfa: sp 32 +
STACK CFI 5865c .cfa: x29 32 + x19: .cfa -8 + ^ x20: .cfa -16 + ^ .ra: .cfa -24 + ^ x29: .cfa -32 + ^
STACK CFI 58710 .cfa: sp 32 +
STACK CFI 58718 .cfa: sp 0 +
STACK CFI 5871c .cfa: sp 32 +
STACK CFI 58724 .cfa: sp 0 +
STACK CFI INIT 58728 1c .cfa: sp 0 +
STACK CFI INIT 58744 c .cfa: sp 0 +
STACK CFI INIT 588c4 4 .cfa: sp 0 +
STACK CFI INIT 588c8 24 .cfa: sp 0 +
STACK CFI 588cc .cfa: sp 16 +
STACK CFI 588d0 .cfa: x29 16 + .ra: .cfa -8 + ^ x29: .cfa -16 + ^
STACK CFI 588e4 .cfa: sp 16 +
STACK CFI 588e8 .cfa: sp 0 +
STACK CFI INIT 588ec 10 .cfa: sp 0 +
STACK CFI INIT 588fc 4 .cfa: sp 0 +
STACK CFI INIT 58900 4 .cfa: sp 0 +
STACK CFI INIT 58904 d8 .cfa: sp 0 +
STACK CFI 58908 .cfa: sp 32 +
STACK CFI 58910 .cfa: x29 32 + x19: .cfa -8 + ^ x20: .cfa -16 + ^ .ra: .cfa -24 + ^ x29: .cfa -32 + ^
STACK CFI 589c4 .cfa: sp 32 +
STACK CFI 589cc .cfa: sp 0 +
STACK CFI 589d0 .cfa: sp 32 +
STACK CFI 589d8 .cfa: sp 0 +
STACK CFI INIT 589dc 1c .cfa: sp 0 +
STACK CFI INIT 589f8 c .cfa: sp 0 +
STACK CFI INIT 58b80 4 .cfa: sp 0 +
STACK CFI INIT 58b84 24 .cfa: sp 0 +
STACK CFI 58b88 .cfa: sp 16 +
STACK CFI 58b8c .cfa: x29 16 + .ra: .cfa -8 + ^ x29: .cfa -16 + ^
STACK CFI 58ba0 .cfa: sp 16 +
STACK CFI 58ba4 .cfa: sp 0 +
STACK CFI INIT 58ba8 10 .cfa: sp 0 +
STACK CFI INIT 58bb8 4 .cfa: sp 0 +
STACK CFI INIT 58bbc 4 .cfa: sp 0 +
STACK CFI INIT 58bc0 d8 .cfa: sp 0 +
STACK CFI 58bc4 .cfa: sp 32 +
STACK CFI 58bcc .cfa: x29 32 + x19: .cfa -8 + ^ x20: .cfa -16 + ^ .ra: .cfa -24 + ^ x29: .cfa -32 + ^
STACK CFI 58c80 .cfa: sp 32 +
STACK CFI 58c88 .cfa: sp 0 +
STACK CFI 58c8c .cfa: sp 32 +
STACK CFI 58c94 .cfa: sp 0 +
STACK CFI INIT 58c98 1c .cfa: sp 0 +
STACK CFI INIT 58cb4 c .cfa: sp 0 +
STACK CFI INIT 58e3c 4 .cfa: sp 0 +
STACK CFI INIT 58e40 24 .cfa: sp 0 +
STACK CFI 58e44 .cfa: sp 16 +
STACK CFI 58e48 .cfa: x29 16 + .ra: .cfa -8 + ^ x29: .cfa -16 + ^
STACK CFI 58e5c .cfa: sp 16 +
STACK CFI 58e60 .cfa: sp 0 +
STACK CFI INIT 58e64 10 .cfa: sp 0 +
STACK CFI INIT 58e74 4 .cfa: sp 0 +
STACK CFI INIT 58e78 4 .cfa: sp 0 +
STACK CFI INIT 58e7c d8 .cfa: sp 0 +
STACK CFI 58e80 .cfa: sp 32 +
STACK CFI 58e88 .cfa: x29 32 + x19: .cfa -8 + ^ x20: .cfa -16 + ^ .ra: .cfa -24 + ^ x29: .cfa -32 + ^
STACK CFI 58f3c .cfa: sp 32 +
STACK CFI 58f44 .cfa: sp 0 +
STACK CFI 58f48 .cfa: sp 32 +
STACK CFI 58f50 .cfa: sp 0 +
STACK CFI INIT 58f54 1c .cfa: sp 0 +
STACK CFI INIT 58f70 c .cfa: sp 0 +
STACK CFI INIT 593ec 1c .cfa: sp 0 +
STACK CFI INIT 59708 50 .cfa: sp 0 +
STACK CFI 5970c .cfa: sp 32 +
STACK CFI 59714 .cfa: x29 32 + x19: .cfa -16 + ^ .ra: .cfa -24 + ^ x29: .cfa -32 + ^
STACK CFI 5972c .cfa: sp 32 +
STACK CFI 59734 .cfa: sp 0 +
STACK CFI 59738 .cfa: x29 32 +
STACK CFI 5974c .cfa: sp 32 +
STACK CFI 59754 .cfa: sp 0 +
STACK CFI INIT 597cc 4 .cfa: sp 0 +
STACK CFI INIT 59a58 80 .cfa: sp 0 +
STACK CFI 59a5c .cfa: sp 48 +
STACK CFI 59a68 .cfa: x29 48 + x19: .cfa -8 + ^ x20: .cfa -16 + ^ x21: .cfa -32 + ^ .ra: .cfa -40 + ^ x29: .cfa -48 + ^
STACK CFI 59ac8 .cfa: sp 48 +
STACK CFI 59ad4 .cfa: sp 0 +
STACK CFI INIT 59ad8 24 .cfa: sp 0 +
STACK CFI 59adc .cfa: sp 32 +
STACK CFI 59ae4 .cfa: x29 32 + x19: .cfa -16 + ^ .ra: .cfa -24 + ^ x29: .cfa -32 + ^
STACK CFI 59af0 .cfa: sp 32 +
STACK CFI 59af8 .cfa: sp 0 +
STACK CFI INIT 59ffc 148 .cfa: sp 0 +
STACK CFI 5a000 .cfa: sp 48 +
STACK CFI 5a00c .cfa: x29 48 + x19: .cfa -8 + ^ x20: .cfa -16 + ^ x21: .cfa -32 + ^ .ra: .cfa -40 + ^ x29: .cfa -48 + ^
STACK CFI 5a134 .cfa: sp 48 +
STACK CFI 5a140 .cfa: sp 0 +
STACK CFI INIT 5a144 88 .cfa: sp 0 +
STACK CFI 5a14c .cfa: sp 48 +
STACK CFI 5a158 .cfa: x29 48 + x19: .cfa -8 + ^ x20: .cfa -16 + ^ x21: .cfa -24 + ^ x22: .cfa -32 + ^ .ra: .cfa -40 + ^ x29: .cfa -48 + ^
STACK CFI 5a1bc .cfa: sp 48 +
STACK CFI 5a1c8 .cfa: sp 0 +
STACK CFI INIT 5a37c 68 .cfa: sp 0 +
STACK CFI 5a380 .cfa: sp 32 +
STACK CFI 5a388 .cfa: x29 32 + x19: .cfa -8 + ^ x20: .cfa -16 + ^ .ra: .cfa -24 + ^ x29: .cfa -32 + ^
STACK CFI 5a3a0 .cfa: sp 32 +
STACK CFI 5a3a8 .cfa: sp 0 +
STACK CFI 5a3ac .cfa: x29 32 +
STACK CFI 5a3d8 .cfa: sp 32 +
STACK CFI 5a3e0 .cfa: sp 0 +
STACK CFI INIT 5a3e4 14 .cfa: sp 0 +
STACK CFI 5a3e8 .cfa: sp 16 +
STACK CFI 5a3ec .cfa: x29 16 + .ra: .cfa -8 + ^ x29: .cfa -16 + ^
STACK CFI INIT 5a3f8 4 .cfa: sp 0 +
STACK CFI INIT 5a3fc 14 .cfa: sp 0 +
STACK CFI INIT 5a410 128 .cfa: sp 0 +
STACK CFI 5a414 .cfa: sp 64 +
STACK CFI 5a424 .cfa: x29 64 + x19: .cfa -8 + ^ x20: .cfa -16 + ^ x21: .cfa -24 + ^ x22: .cfa -32 + ^ x23: .cfa -40 + ^ x24: .cfa -48 + ^ .ra: .cfa -56 + ^ x29: .cfa -64 + ^
STACK CFI 5a524 .cfa: sp 64 +
STACK CFI 5a534 .cfa: sp 0 +
STACK CFI INIT 5a538 d4 .cfa: sp 0 +
STACK CFI 5a53c .cfa: sp 48 +
STACK CFI 5a548 .cfa: x29 48 + x19: .cfa -8 + ^ x20: .cfa -16 + ^ x21: .cfa -32 + ^ .ra: .cfa -40 + ^ x29: .cfa -48 + ^
STACK CFI 5a5d8 .cfa: sp 48 +
STACK CFI 5a5e4 .cfa: sp 0 +
STACK CFI 5a5e8 .cfa: x29 48 +
STACK CFI INIT 5a60c 8c .cfa: sp 0 +
STACK CFI 5a614 .cfa: sp 32 +
STACK CFI 5a61c .cfa: x29 32 + x19: .cfa -8 + ^ x20: .cfa -16 + ^ .ra: .cfa -24 + ^ x29: .cfa -32 + ^
STACK CFI 5a664 .cfa: sp 32 +
STACK CFI 5a66c .cfa: sp 0 +
STACK CFI 5a674 .cfa: x29 32 +
STACK CFI INIT 5a698 f8 .cfa: sp 0 +
STACK CFI 5a69c .cfa: sp 48 +
STACK CFI 5a6a8 .cfa: x29 48 + x19: .cfa -8 + ^ x20: .cfa -16 + ^ x21: .cfa -32 + ^ .ra: .cfa -40 + ^ x29: .cfa -48 + ^
STACK CFI 5a6dc .cfa: sp 48 +
STACK CFI 5a6e8 .cfa: sp 0 +
STACK CFI 5a6ec .cfa: x29 48 +
STACK CFI 5a780 .cfa: sp 48 +
STACK CFI 5a78c .cfa: sp 0 +
STACK CFI INIT 5a838 98 .cfa: sp 0 +
STACK CFI INIT 5a8d0 50 .cfa: sp 0 +
STACK CFI 5a8d4 .cfa: sp 32 +
STACK CFI 5a8dc .cfa: x29 32 + x19: .cfa -16 + ^ .ra: .cfa -24 + ^ x29: .cfa -32 + ^
STACK CFI 5a8f4 .cfa: sp 32 +
STACK CFI 5a8fc .cfa: sp 0 +
STACK CFI 5a900 .cfa: x29 32 +
STACK CFI 5a914 .cfa: sp 32 +
STACK CFI 5a91c .cfa: sp 0 +
STACK CFI INIT 5a920 64 .cfa: sp 0 +
STACK CFI 5a924 .cfa: sp 32 +
STACK CFI 5a92c .cfa: x29 32 + x19: .cfa -16 + ^ .ra: .cfa -24 + ^ x29: .cfa -32 + ^
STACK CFI 5a958 .cfa: sp 32 +
STACK CFI 5a960 .cfa: sp 0 +
STACK CFI 5a964 .cfa: x29 32 +
STACK CFI 5a978 .cfa: sp 32 +
STACK CFI 5a980 .cfa: sp 0 +
STACK CFI INIT 5a984 178 .cfa: sp 0 +
STACK CFI 5a988 .cfa: sp 80 +
STACK CFI 5a99c .cfa: x29 80 + x19: .cfa -8 + ^ x20: .cfa -16 + ^ x21: .cfa -24 + ^ x22: .cfa -32 + ^ x23: .cfa -40 + ^ x24: .cfa -48 + ^ x25: .cfa -56 + ^ x26: .cfa -64 + ^ .ra: .cfa -72 + ^ x29: .cfa -80 + ^
STACK CFI 5aae4 .cfa: sp 80 +
STACK CFI 5aaf8 .cfa: sp 0 +
STACK CFI INIT 5af6c 1c .cfa: sp 0 +
STACK CFI INIT 5b2e0 4 .cfa: sp 0 +
STACK CFI INIT 5b2e4 258 .cfa: sp 0 +
STACK CFI 5b2e8 .cfa: sp 80 +
STACK CFI 5b2f8 .cfa: x29 48 + x19: .cfa -8 + ^ x20: .cfa -16 + ^ x21: .cfa -24 + ^ x22: .cfa -32 + ^ .ra: .cfa -40 + ^ x29: .cfa -48 + ^
STACK CFI 5b524 .cfa: sp 80 +
STACK CFI 5b534 .cfa: sp 0 +
STACK CFI 5b538 .cfa: x29 48 +
STACK CFI INIT 5b9ac 1c .cfa: sp 0 +
STACK CFI INIT 5bcd0 4 .cfa: sp 0 +
STACK CFI INIT 5bcd4 f8 .cfa: sp 0 +
STACK CFI 5bcd8 .cfa: sp 48 +
STACK CFI 5bce4 .cfa: x29 48 + x19: .cfa -8 + ^ x20: .cfa -16 + ^ x21: .cfa -32 + ^ .ra: .cfa -40 + ^ x29: .cfa -48 + ^
STACK CFI 5bd18 .cfa: sp 48 +
STACK CFI 5bd24 .cfa: sp 0 +
STACK CFI 5bd28 .cfa: x29 48 +
STACK CFI 5bdbc .cfa: sp 48 +
STACK CFI 5bdc8 .cfa: sp 0 +
STACK CFI INIT 5be74 b4 .cfa: sp 0 +
STACK CFI 5be78 .cfa: sp 32 +
STACK CFI 5be80 .cfa: x29 32 + x19: .cfa -16 + ^ .ra: .cfa -24 + ^ x29: .cfa -32 + ^
STACK CFI 5bf1c .cfa: sp 32 +
STACK CFI 5bf24 .cfa: sp 0 +
STACK CFI INIT 5c398 1c .cfa: sp 0 +
STACK CFI INIT 5c6fc 4 .cfa: sp 0 +
STACK CFI INIT 5c700 29c .cfa: sp 0 +
STACK CFI 5c704 .cfa: sp 48 +
STACK CFI 5c710 .cfa: x29 48 + x19: .cfa -8 + ^ x20: .cfa -16 + ^ x21: .cfa -24 + ^ x22: .cfa -32 + ^ .ra: .cfa -40 + ^ x29: .cfa -48 + ^
STACK CFI 5c848 .cfa: sp 48 +
STACK CFI 5c854 .cfa: sp 0 +
STACK CFI 5c858 .cfa: x29 48 +
STACK CFI 5c98c .cfa: sp 48 +
STACK CFI 5c998 .cfa: sp 0 +
STACK CFI INIT 5ce0c 1c .cfa: sp 0 +
STACK CFI INIT 5d180 4 .cfa: sp 0 +
STACK CFI INIT 5d184 10c .cfa: sp 0 +
STACK CFI 5d188 .cfa: sp 48 +
STACK CFI 5d194 .cfa: x29 48 + x19: .cfa -8 + ^ x20: .cfa -16 + ^ x21: .cfa -32 + ^ .ra: .cfa -40 + ^ x29: .cfa -48 + ^
STACK CFI 5d25c .cfa: sp 48 +
STACK CFI 5d268 .cfa: sp 0 +
STACK CFI 5d26c .cfa: x29 48 +
STACK CFI INIT 5d700 1c .cfa: sp 0 +
STACK CFI INIT 5da90 4 .cfa: sp 0 +
STACK CFI INIT 5da94 f8 .cfa: sp 0 +
STACK CFI 5da98 .cfa: sp 48 +
STACK CFI 5daa4 .cfa: x29 48 + x19: .cfa -8 + ^ x20: .cfa -16 + ^ x21: .cfa -32 + ^ .ra: .cfa -40 + ^ x29: .cfa -48 + ^
STACK CFI 5dad8 .cfa: sp 48 +
STACK CFI 5dae4 .cfa: sp 0 +
STACK CFI 5dae8 .cfa: x29 48 +
STACK CFI 5db7c .cfa: sp 48 +
STACK CFI 5db88 .cfa: sp 0 +
STACK CFI INIT 5dffc 1c .cfa: sp 0 +
STACK CFI INIT 5e384 4 .cfa: sp 0 +
STACK CFI INIT 5e388 f8 .cfa: sp 0 +
STACK CFI 5e38c .cfa: sp 48 +
STACK CFI 5e398 .cfa: x29 48 + x19: .cfa -8 + ^ x20: .cfa -16 + ^ x21: .cfa -32 + ^ .ra: .cfa -40 + ^ x29: .cfa -48 + ^
STACK CFI 5e3cc .cfa: sp 48 +
STACK CFI 5e3d8 .cfa: sp 0 +
STACK CFI 5e3dc .cfa: x29 48 +
STACK CFI 5e470 .cfa: sp 48 +
STACK CFI 5e47c .cfa: sp 0 +
STACK CFI INIT 5e8f0 1c .cfa: sp 0 +
STACK CFI INIT 5ec80 4 .cfa: sp 0 +
STACK CFI INIT 5ec84 c0 .cfa: sp 0 +
STACK CFI 5ec88 .cfa: sp 48 +
STACK CFI 5ec94 .cfa: x29 48 + x19: .cfa -8 + ^ x20: .cfa -16 + ^ x21: .cfa -32 + ^ .ra: .cfa -40 + ^ x29: .cfa -48 + ^
STACK CFI 5ed10 .cfa: sp 48 +
STACK CFI 5ed1c .cfa: sp 0 +
STACK CFI 5ed20 .cfa: x29 48 +
STACK CFI INIT 5f1b4 1c .cfa: sp 0 +
STACK CFI INIT 5f4d8 4 .cfa: sp 0 +
STACK CFI INIT 5f4dc f8 .cfa: sp 0 +
STACK CFI 5f4e0 .cfa: sp 48 +
STACK CFI 5f4ec .cfa: x29 48 + x19: .cfa -8 + ^ x20: .cfa -16 + ^ x21: .cfa -32 + ^ .ra: .cfa -40 + ^ x29: .cfa -48 + ^
STACK CFI 5f520 .cfa: sp 48 +
STACK CFI 5f52c .cfa: sp 0 +
STACK CFI 5f530 .cfa: x29 48 +
STACK CFI 5f5c4 .cfa: sp 48 +
STACK CFI 5f5d0 .cfa: sp 0 +
STACK CFI INIT 5f67c 98 .cfa: sp 0 +
STACK CFI INIT 5fb84 1c .cfa: sp 0 +
STACK CFI INIT 5ff0c 4 .cfa: sp 0 +
STACK CFI INIT 5ff10 f8 .cfa: sp 0 +
STACK CFI 5ff14 .cfa: sp 48 +
STACK CFI 5ff20 .cfa: x29 48 + x19: .cfa -8 + ^ x20: .cfa -16 + ^ x21: .cfa -32 + ^ .ra: .cfa -40 + ^ x29: .cfa -48 + ^
STACK CFI 5ff54 .cfa: sp 48 +
STACK CFI 5ff60 .cfa: sp 0 +
STACK CFI 5ff64 .cfa: x29 48 +
STACK CFI 5fff8 .cfa: sp 48 +
STACK CFI 60004 .cfa: sp 0 +
STACK CFI INIT 60478 1c .cfa: sp 0 +
STACK CFI INIT 60834 4 .cfa: sp 0 +
STACK CFI INIT 60838 f8 .cfa: sp 0 +
STACK CFI 6083c .cfa: sp 48 +
STACK CFI 60848 .cfa: x29 48 + x19: .cfa -8 + ^ x20: .cfa -16 + ^ x21: .cfa -32 + ^ .ra: .cfa -40 + ^ x29: .cfa -48 + ^
STACK CFI 6087c .cfa: sp 48 +
STACK CFI 60888 .cfa: sp 0 +
STACK CFI 6088c .cfa: x29 48 +
STACK CFI 60920 .cfa: sp 48 +
STACK CFI 6092c .cfa: sp 0 +
STACK CFI INIT 60930 14 .cfa: sp 0 +
STACK CFI 60934 .cfa: sp 16 +
STACK CFI 60938 .cfa: x29 16 + .ra: .cfa -8 + ^ x29: .cfa -16 + ^
STACK CFI INIT 60db4 1c .cfa: sp 0 +
STACK CFI INIT 61128 4 .cfa: sp 0 +
STACK CFI INIT 6112c f8 .cfa: sp 0 +
STACK CFI 61130 .cfa: sp 48 +
STACK CFI 6113c .cfa: x29 48 + x19: .cfa -8 + ^ x20: .cfa -16 + ^ x21: .cfa -32 + ^ .ra: .cfa -40 + ^ x29: .cfa -48 + ^
STACK CFI 61170 .cfa: sp 48 +
STACK CFI 6117c .cfa: sp 0 +
STACK CFI 61180 .cfa: x29 48 +
STACK CFI 61214 .cfa: sp 48 +
STACK CFI 61220 .cfa: sp 0 +
STACK CFI INIT 61694 1c .cfa: sp 0 +
STACK CFI INIT 619fc 4 .cfa: sp 0 +
STACK CFI INIT 61a00 420 .cfa: sp 0 +
STACK CFI 61a04 .cfa: sp 96 +
STACK CFI 61a1c .cfa: x29 80 + x19: .cfa -8 + ^ x20: .cfa -16 + ^ x21: .cfa -24 + ^ x22: .cfa -32 + ^ x23: .cfa -40 + ^ x24: .cfa -48 + ^ x25: .cfa -56 + ^ x26: .cfa -64 + ^ .ra: .cfa -72 + ^ x29: .cfa -80 + ^
STACK CFI 61e00 .cfa: sp 96 +
STACK CFI 61e18 .cfa: sp 0 +
STACK CFI 61e1c .cfa: x29 80 +
STACK CFI INIT 62290 1c .cfa: sp 0 +
STACK CFI INIT 625f8 4 .cfa: sp 0 +
STACK CFI INIT 625fc 120 .cfa: sp 0 +
STACK CFI 62600 .cfa: sp 48 +
STACK CFI 6260c .cfa: x29 48 + x19: .cfa -8 + ^ x20: .cfa -16 + ^ x21: .cfa -32 + ^ .ra: .cfa -40 + ^ x29: .cfa -48 + ^
STACK CFI 62640 .cfa: sp 48 +
STACK CFI 6264c .cfa: sp 0 +
STACK CFI 62650 .cfa: x29 48 +
STACK CFI 6270c .cfa: sp 48 +
STACK CFI 62718 .cfa: sp 0 +
STACK CFI INIT 62b8c 1c .cfa: sp 0 +
STACK CFI INIT 62ef8 4 .cfa: sp 0 +
STACK CFI INIT 62efc f8 .cfa: sp 0 +
STACK CFI 62f00 .cfa: sp 48 +
STACK CFI 62f0c .cfa: x29 48 + x19: .cfa -8 + ^ x20: .cfa -16 + ^ x21: .cfa -32 + ^ .ra: .cfa -40 + ^ x29: .cfa -48 + ^
STACK CFI 62f40 .cfa: sp 48 +
STACK CFI 62f4c .cfa: sp 0 +
STACK CFI 62f50 .cfa: x29 48 +
STACK CFI 62fe4 .cfa: sp 48 +
STACK CFI 62ff0 .cfa: sp 0 +
STACK CFI INIT 63740 1c .cfa: sp 0 +
STACK CFI INIT 63a50 4 .cfa: sp 0 +
STACK CFI INIT 63a54 7c .cfa: sp 0 +
STACK CFI 63a58 .cfa: sp 32 +
STACK CFI 63a60 .cfa: x29 32 + x19: .cfa -8 + ^ x20: .cfa -16 + ^ .ra: .cfa -24 + ^ x29: .cfa -32 + ^
STACK CFI 63ab8 .cfa: sp 32 +
STACK CFI 63ac0 .cfa: sp 0 +
STACK CFI 63ac4 .cfa: sp 32 +
STACK CFI 63acc .cfa: sp 0 +
STACK CFI INIT 63ad0 4 .cfa: sp 0 +
STACK CFI INIT 63ad4 14 .cfa: sp 0 +
STACK CFI INIT 63df8 9c .cfa: sp 0 +
STACK CFI INIT 64304 1c .cfa: sp 0 +
STACK CFI INIT 646b8 4 .cfa: sp 0 +
STACK CFI INIT 646bc 14c .cfa: sp 0 +
STACK CFI 646c0 .cfa: sp 48 +
STACK CFI 646cc .cfa: x29 48 + x19: .cfa -8 + ^ x20: .cfa -16 + ^ x21: .cfa -32 + ^ .ra: .cfa -40 + ^ x29: .cfa -48 + ^
STACK CFI 64700 .cfa: sp 48 +
STACK CFI 6470c .cfa: sp 0 +
STACK CFI 64710 .cfa: x29 48 +
STACK CFI 647f8 .cfa: sp 48 +
STACK CFI 64804 .cfa: sp 0 +
STACK CFI INIT 64c78 1c .cfa: sp 0 +
STACK CFI INIT 64f8c 4 .cfa: sp 0 +
STACK CFI INIT 64f90 f8 .cfa: sp 0 +
STACK CFI 64f94 .cfa: sp 48 +
STACK CFI 64fa0 .cfa: x29 48 + x19: .cfa -8 + ^ x20: .cfa -16 + ^ x21: .cfa -32 + ^ .ra: .cfa -40 + ^ x29: .cfa -48 + ^
STACK CFI 64fd4 .cfa: sp 48 +
STACK CFI 64fe0 .cfa: sp 0 +
STACK CFI 64fe4 .cfa: x29 48 +
STACK CFI 65078 .cfa: sp 48 +
STACK CFI 65084 .cfa: sp 0 +
STACK CFI INIT 65130 a0 .cfa: sp 0 +
STACK CFI INIT 65640 1c .cfa: sp 0 +
STACK CFI INIT 6595c 4 .cfa: sp 0 +
STACK CFI INIT 65960 f8 .cfa: sp 0 +
STACK CFI 65964 .cfa: sp 48 +
STACK CFI 65970 .cfa: x29 48 + x19: .cfa -8 + ^ x20: .cfa -16 + ^ x21: .cfa -32 + ^ .ra: .cfa -40 + ^ x29: .cfa -48 + ^
STACK CFI 659a4 .cfa: sp 48 +
STACK CFI 659b0 .cfa: sp 0 +
STACK CFI 659b4 .cfa: x29 48 +
STACK CFI 65a48 .cfa: sp 48 +
STACK CFI 65a54 .cfa: sp 0 +
STACK CFI INIT 65b00 88 .cfa: sp 0 +
STACK CFI 65b04 .cfa: sp 32 +
STACK CFI 65b0c .cfa: x29 32 + x19: .cfa -16 + ^ .ra: .cfa -24 + ^ x29: .cfa -32 + ^
STACK CFI 65b7c .cfa: sp 32 +
STACK CFI 65b84 .cfa: sp 0 +
STACK CFI INIT 65ff8 1c .cfa: sp 0 +
STACK CFI INIT 66314 4 .cfa: sp 0 +
STACK CFI INIT 66318 f8 .cfa: sp 0 +
STACK CFI 6631c .cfa: sp 48 +
STACK CFI 66328 .cfa: x29 48 + x19: .cfa -8 + ^ x20: .cfa -16 + ^ x21: .cfa -32 + ^ .ra: .cfa -40 + ^ x29: .cfa -48 + ^
STACK CFI 6635c .cfa: sp 48 +
STACK CFI 66368 .cfa: sp 0 +
STACK CFI 6636c .cfa: x29 48 +
STACK CFI 66400 .cfa: sp 48 +
STACK CFI 6640c .cfa: sp 0 +
STACK CFI INIT 664b8 98 .cfa: sp 0 +
STACK CFI INIT 669c0 1c .cfa: sp 0 +
STACK CFI INIT 66cdc 4 .cfa: sp 0 +
STACK CFI INIT 66ce0 f8 .cfa: sp 0 +
STACK CFI 66ce4 .cfa: sp 48 +
STACK CFI 66cf0 .cfa: x29 48 + x19: .cfa -8 + ^ x20: .cfa -16 + ^ x21: .cfa -32 + ^ .ra: .cfa -40 + ^ x29: .cfa -48 + ^
STACK CFI 66d24 .cfa: sp 48 +
STACK CFI 66d30 .cfa: sp 0 +
STACK CFI 66d34 .cfa: x29 48 +
STACK CFI 66dc8 .cfa: sp 48 +
STACK CFI 66dd4 .cfa: sp 0 +
STACK CFI INIT 66e80 a8 .cfa: sp 0 +
STACK CFI INIT 67098 4 .cfa: sp 0 +
STACK CFI INIT 6709c 24 .cfa: sp 0 +
STACK CFI 670a0 .cfa: sp 16 +
STACK CFI 670a4 .cfa: x29 16 + .ra: .cfa -8 + ^ x29: .cfa -16 + ^
STACK CFI 670b8 .cfa: sp 16 +
STACK CFI 670bc .cfa: sp 0 +
STACK CFI INIT 670c0 10 .cfa: sp 0 +
STACK CFI INIT 670d0 4 .cfa: sp 0 +
STACK CFI INIT 670d4 4 .cfa: sp 0 +
STACK CFI INIT 670d8 160 .cfa: sp 0 +
STACK CFI 670dc .cfa: sp 48 +
STACK CFI 670e8 .cfa: x29 48 + x19: .cfa -8 + ^ x20: .cfa -16 + ^ x21: .cfa -32 + ^ .ra: .cfa -40 + ^ x29: .cfa -48 + ^
STACK CFI 67218 .cfa: sp 48 +
STACK CFI 67224 .cfa: sp 0 +
STACK CFI 67228 .cfa: sp 48 +
STACK CFI 67234 .cfa: sp 0 +
STACK CFI INIT 67238 1c .cfa: sp 0 +
STACK CFI INIT 67254 c .cfa: sp 0 +
STACK CFI INIT 676d0 1c .cfa: sp 0 +
STACK CFI INIT 67a58 4 .cfa: sp 0 +
STACK CFI INIT 67a5c 170 .cfa: sp 0 +
STACK CFI 67a60 .cfa: sp 48 +
STACK CFI 67a6c .cfa: x29 48 + x19: .cfa -8 + ^ x20: .cfa -16 + ^ x21: .cfa -32 + ^ .ra: .cfa -40 + ^ x29: .cfa -48 + ^
STACK CFI 67aa0 .cfa: sp 48 +
STACK CFI 67aac .cfa: sp 0 +
STACK CFI 67ab0 .cfa: x29 48 +
STACK CFI 67bbc .cfa: sp 48 +
STACK CFI 67bc8 .cfa: sp 0 +
STACK CFI INIT 6803c 1c .cfa: sp 0 +
STACK CFI INIT 683b0 4 .cfa: sp 0 +
STACK CFI INIT 683b4 280 .cfa: sp 0 +
STACK CFI 683b8 .cfa: sp 64 +
STACK CFI 683c8 .cfa: x29 64 + x19: .cfa -8 + ^ x20: .cfa -16 + ^ x21: .cfa -24 + ^ x22: .cfa -32 + ^ x23: .cfa -40 + ^ x24: .cfa -48 + ^ .ra: .cfa -56 + ^ x29: .cfa -64 + ^
STACK CFI 68580 .cfa: sp 64 +
STACK CFI 68590 .cfa: sp 0 +
STACK CFI 68594 .cfa: x29 64 +
STACK CFI 685b8 .cfa: sp 64 +
STACK CFI 685c8 .cfa: sp 0 +
STACK CFI 685cc .cfa: x29 64 +
STACK CFI INIT 68aa4 1c .cfa: sp 0 +
STACK CFI INIT 68dbc 4 .cfa: sp 0 +
STACK CFI INIT 68dc0 280 .cfa: sp 0 +
STACK CFI 68dc4 .cfa: sp 64 +
STACK CFI 68dd4 .cfa: x29 64 + x19: .cfa -8 + ^ x20: .cfa -16 + ^ x21: .cfa -24 + ^ x22: .cfa -32 + ^ x23: .cfa -40 + ^ x24: .cfa -48 + ^ .ra: .cfa -56 + ^ x29: .cfa -64 + ^
STACK CFI 68f8c .cfa: sp 64 +
STACK CFI 68f9c .cfa: sp 0 +
STACK CFI 68fa0 .cfa: x29 64 +
STACK CFI 68fc4 .cfa: sp 64 +
STACK CFI 68fd4 .cfa: sp 0 +
STACK CFI 68fd8 .cfa: x29 64 +
STACK CFI INIT 690e8 b4 .cfa: sp 0 +
STACK CFI 690ec .cfa: sp 32 +
STACK CFI 690f4 .cfa: x29 32 + x19: .cfa -16 + ^ .ra: .cfa -24 + ^ x29: .cfa -32 + ^
STACK CFI 69190 .cfa: sp 32 +
STACK CFI 69198 .cfa: sp 0 +
STACK CFI INIT 69314 4 .cfa: sp 0 +
STACK CFI INIT 69318 24 .cfa: sp 0 +
STACK CFI 6931c .cfa: sp 16 +
STACK CFI 69320 .cfa: x29 16 + .ra: .cfa -8 + ^ x29: .cfa -16 + ^
STACK CFI 69334 .cfa: sp 16 +
STACK CFI 69338 .cfa: sp 0 +
STACK CFI INIT 6933c 10 .cfa: sp 0 +
STACK CFI INIT 6934c 4 .cfa: sp 0 +
STACK CFI INIT 69350 4 .cfa: sp 0 +
STACK CFI INIT 69354 160 .cfa: sp 0 +
STACK CFI 69358 .cfa: sp 48 +
STACK CFI 69364 .cfa: x29 48 + x19: .cfa -8 + ^ x20: .cfa -16 + ^ x21: .cfa -32 + ^ .ra: .cfa -40 + ^ x29: .cfa -48 + ^
STACK CFI 69494 .cfa: sp 48 +
STACK CFI 694a0 .cfa: sp 0 +
STACK CFI 694a4 .cfa: sp 48 +
STACK CFI 694b0 .cfa: sp 0 +
STACK CFI INIT 694b4 1c .cfa: sp 0 +
STACK CFI INIT 694d0 c .cfa: sp 0 +
STACK CFI INIT 69644 4 .cfa: sp 0 +
STACK CFI INIT 69648 24 .cfa: sp 0 +
STACK CFI 6964c .cfa: sp 16 +
STACK CFI 69650 .cfa: x29 16 + .ra: .cfa -8 + ^ x29: .cfa -16 + ^
STACK CFI 69664 .cfa: sp 16 +
STACK CFI 69668 .cfa: sp 0 +
STACK CFI INIT 6966c 10 .cfa: sp 0 +
STACK CFI INIT 6967c 4 .cfa: sp 0 +
STACK CFI INIT 69680 4 .cfa: sp 0 +
STACK CFI INIT 6980c 1c .cfa: sp 0 +
STACK CFI INIT 69828 c .cfa: sp 0 +
STACK CFI INIT 699a8 4 .cfa: sp 0 +
STACK CFI INIT 699ac 24 .cfa: sp 0 +
STACK CFI 699b0 .cfa: sp 16 +
STACK CFI 699b4 .cfa: x29 16 + .ra: .cfa -8 + ^ x29: .cfa -16 + ^
STACK CFI 699c8 .cfa: sp 16 +
STACK CFI 699cc .cfa: sp 0 +
STACK CFI INIT 699d0 10 .cfa: sp 0 +
STACK CFI INIT 699e0 4 .cfa: sp 0 +
STACK CFI INIT 699e4 4 .cfa: sp 0 +
STACK CFI INIT 699e8 d8 .cfa: sp 0 +
STACK CFI 699ec .cfa: sp 32 +
STACK CFI 699f4 .cfa: x29 32 + x19: .cfa -8 + ^ x20: .cfa -16 + ^ .ra: .cfa -24 + ^ x29: .cfa -32 + ^
STACK CFI 69aa8 .cfa: sp 32 +
STACK CFI 69ab0 .cfa: sp 0 +
STACK CFI 69ab4 .cfa: sp 32 +
STACK CFI 69abc .cfa: sp 0 +
STACK CFI INIT 69ac0 1c .cfa: sp 0 +
STACK CFI INIT 69adc c .cfa: sp 0 +
STACK CFI INIT 69c54 4 .cfa: sp 0 +
STACK CFI INIT 69c58 24 .cfa: sp 0 +
STACK CFI 69c5c .cfa: sp 16 +
STACK CFI 69c60 .cfa: x29 16 + .ra: .cfa -8 + ^ x29: .cfa -16 + ^
STACK CFI 69c74 .cfa: sp 16 +
STACK CFI 69c78 .cfa: sp 0 +
STACK CFI INIT 69c7c 10 .cfa: sp 0 +
STACK CFI INIT 69c8c 4 .cfa: sp 0 +
STACK CFI INIT 69c90 4 .cfa: sp 0 +
STACK CFI INIT 69c94 160 .cfa: sp 0 +
STACK CFI 69c98 .cfa: sp 48 +
STACK CFI 69ca4 .cfa: x29 48 + x19: .cfa -8 + ^ x20: .cfa -16 + ^ x21: .cfa -32 + ^ .ra: .cfa -40 + ^ x29: .cfa -48 + ^
STACK CFI 69dd4 .cfa: sp 48 +
STACK CFI 69de0 .cfa: sp 0 +
STACK CFI 69de4 .cfa: sp 48 +
STACK CFI 69df0 .cfa: sp 0 +
STACK CFI INIT 69df4 1c .cfa: sp 0 +
STACK CFI INIT 69e10 c .cfa: sp 0 +
STACK CFI INIT 69f88 4 .cfa: sp 0 +
STACK CFI INIT 69f8c 24 .cfa: sp 0 +
STACK CFI 69f90 .cfa: sp 16 +
STACK CFI 69f94 .cfa: x29 16 + .ra: .cfa -8 + ^ x29: .cfa -16 + ^
STACK CFI 69fa8 .cfa: sp 16 +
STACK CFI 69fac .cfa: sp 0 +
STACK CFI INIT 69fb0 10 .cfa: sp 0 +
STACK CFI INIT 69fc0 4 .cfa: sp 0 +
STACK CFI INIT 69fc4 4 .cfa: sp 0 +
STACK CFI INIT 69fc8 160 .cfa: sp 0 +
STACK CFI 69fcc .cfa: sp 48 +
STACK CFI 69fd8 .cfa: x29 48 + x19: .cfa -8 + ^ x20: .cfa -16 + ^ x21: .cfa -32 + ^ .ra: .cfa -40 + ^ x29: .cfa -48 + ^
STACK CFI 6a108 .cfa: sp 48 +
STACK CFI 6a114 .cfa: sp 0 +
STACK CFI 6a118 .cfa: sp 48 +
STACK CFI 6a124 .cfa: sp 0 +
STACK CFI INIT 6a128 1c .cfa: sp 0 +
STACK CFI INIT 6a144 c .cfa: sp 0 +
STACK CFI INIT 6a2c8 4 .cfa: sp 0 +
STACK CFI INIT 6a2cc 24 .cfa: sp 0 +
STACK CFI 6a2d0 .cfa: sp 16 +
STACK CFI 6a2d4 .cfa: x29 16 + .ra: .cfa -8 + ^ x29: .cfa -16 + ^
STACK CFI 6a2e8 .cfa: sp 16 +
STACK CFI 6a2ec .cfa: sp 0 +
STACK CFI INIT 6a2f0 10 .cfa: sp 0 +
STACK CFI INIT 6a300 4 .cfa: sp 0 +
STACK CFI INIT 6a304 4 .cfa: sp 0 +
STACK CFI INIT 6a308 d8 .cfa: sp 0 +
STACK CFI 6a30c .cfa: sp 32 +
STACK CFI 6a314 .cfa: x29 32 + x19: .cfa -8 + ^ x20: .cfa -16 + ^ .ra: .cfa -24 + ^ x29: .cfa -32 + ^
STACK CFI 6a3c8 .cfa: sp 32 +
STACK CFI 6a3d0 .cfa: sp 0 +
STACK CFI 6a3d4 .cfa: sp 32 +
STACK CFI 6a3dc .cfa: sp 0 +
STACK CFI INIT 6a3e0 1c .cfa: sp 0 +
STACK CFI INIT 6a3fc c .cfa: sp 0 +
STACK CFI INIT 6a58c 4 .cfa: sp 0 +
STACK CFI INIT 6a590 24 .cfa: sp 0 +
STACK CFI 6a594 .cfa: sp 16 +
STACK CFI 6a598 .cfa: x29 16 + .ra: .cfa -8 + ^ x29: .cfa -16 + ^
STACK CFI 6a5ac .cfa: sp 16 +
STACK CFI 6a5b0 .cfa: sp 0 +
STACK CFI INIT 6a5b4 10 .cfa: sp 0 +
STACK CFI INIT 6a5c4 4 .cfa: sp 0 +
STACK CFI INIT 6a5c8 4 .cfa: sp 0 +
STACK CFI INIT 6a5cc d8 .cfa: sp 0 +
STACK CFI 6a5d0 .cfa: sp 32 +
STACK CFI 6a5d8 .cfa: x29 32 + x19: .cfa -8 + ^ x20: .cfa -16 + ^ .ra: .cfa -24 + ^ x29: .cfa -32 + ^
STACK CFI 6a68c .cfa: sp 32 +
STACK CFI 6a694 .cfa: sp 0 +
STACK CFI 6a698 .cfa: sp 32 +
STACK CFI 6a6a0 .cfa: sp 0 +
STACK CFI INIT 6a6a4 1c .cfa: sp 0 +
STACK CFI INIT 6a6c0 c .cfa: sp 0 +
STACK CFI INIT 6a830 4 .cfa: sp 0 +
STACK CFI INIT 6a834 24 .cfa: sp 0 +
STACK CFI 6a838 .cfa: sp 16 +
STACK CFI 6a83c .cfa: x29 16 + .ra: .cfa -8 + ^ x29: .cfa -16 + ^
STACK CFI 6a850 .cfa: sp 16 +
STACK CFI 6a854 .cfa: sp 0 +
STACK CFI INIT 6a858 10 .cfa: sp 0 +
STACK CFI INIT 6a868 4 .cfa: sp 0 +
STACK CFI INIT 6a86c 4 .cfa: sp 0 +
STACK CFI INIT 6a870 d8 .cfa: sp 0 +
STACK CFI 6a874 .cfa: sp 32 +
STACK CFI 6a87c .cfa: x29 32 + x19: .cfa -8 + ^ x20: .cfa -16 + ^ .ra: .cfa -24 + ^ x29: .cfa -32 + ^
STACK CFI 6a930 .cfa: sp 32 +
STACK CFI 6a938 .cfa: sp 0 +
STACK CFI 6a93c .cfa: sp 32 +
STACK CFI 6a944 .cfa: sp 0 +
STACK CFI INIT 6a948 1c .cfa: sp 0 +
STACK CFI INIT 6a964 c .cfa: sp 0 +
STACK CFI INIT 6aadc 4 .cfa: sp 0 +
STACK CFI INIT 6aae0 24 .cfa: sp 0 +
STACK CFI 6aae4 .cfa: sp 16 +
STACK CFI 6aae8 .cfa: x29 16 + .ra: .cfa -8 + ^ x29: .cfa -16 + ^
STACK CFI 6aafc .cfa: sp 16 +
STACK CFI 6ab00 .cfa: sp 0 +
STACK CFI INIT 6ab04 10 .cfa: sp 0 +
STACK CFI INIT 6ab14 4 .cfa: sp 0 +
STACK CFI INIT 6ab18 4 .cfa: sp 0 +
STACK CFI INIT 6ab1c d8 .cfa: sp 0 +
STACK CFI 6ab20 .cfa: sp 32 +
STACK CFI 6ab28 .cfa: x29 32 + x19: .cfa -8 + ^ x20: .cfa -16 + ^ .ra: .cfa -24 + ^ x29: .cfa -32 + ^
STACK CFI 6abdc .cfa: sp 32 +
STACK CFI 6abe4 .cfa: sp 0 +
STACK CFI 6abe8 .cfa: sp 32 +
STACK CFI 6abf0 .cfa: sp 0 +
STACK CFI INIT 6abf4 1c .cfa: sp 0 +
STACK CFI INIT 6ac10 c .cfa: sp 0 +
STACK CFI INIT 6ad8c 4 .cfa: sp 0 +
STACK CFI INIT 6ad90 24 .cfa: sp 0 +
STACK CFI 6ad94 .cfa: sp 16 +
STACK CFI 6ad98 .cfa: x29 16 + .ra: .cfa -8 + ^ x29: .cfa -16 + ^
STACK CFI 6adac .cfa: sp 16 +
STACK CFI 6adb0 .cfa: sp 0 +
STACK CFI INIT 6adb4 10 .cfa: sp 0 +
STACK CFI INIT 6adc4 4 .cfa: sp 0 +
STACK CFI INIT 6adc8 4 .cfa: sp 0 +
STACK CFI INIT 6adcc d8 .cfa: sp 0 +
STACK CFI 6add0 .cfa: sp 32 +
STACK CFI 6add8 .cfa: x29 32 + x19: .cfa -8 + ^ x20: .cfa -16 + ^ .ra: .cfa -24 + ^ x29: .cfa -32 + ^
STACK CFI 6ae8c .cfa: sp 32 +
STACK CFI 6ae94 .cfa: sp 0 +
STACK CFI 6ae98 .cfa: sp 32 +
STACK CFI 6aea0 .cfa: sp 0 +
STACK CFI INIT 6aea4 1c .cfa: sp 0 +
STACK CFI INIT 6aec0 c .cfa: sp 0 +
STACK CFI INIT 6b044 4 .cfa: sp 0 +
STACK CFI INIT 6b048 24 .cfa: sp 0 +
STACK CFI 6b04c .cfa: sp 16 +
STACK CFI 6b050 .cfa: x29 16 + .ra: .cfa -8 + ^ x29: .cfa -16 + ^
STACK CFI 6b064 .cfa: sp 16 +
STACK CFI 6b068 .cfa: sp 0 +
STACK CFI INIT 6b06c 10 .cfa: sp 0 +
STACK CFI INIT 6b07c 4 .cfa: sp 0 +
STACK CFI INIT 6b080 4 .cfa: sp 0 +
STACK CFI INIT 6b084 d8 .cfa: sp 0 +
STACK CFI 6b088 .cfa: sp 32 +
STACK CFI 6b090 .cfa: x29 32 + x19: .cfa -8 + ^ x20: .cfa -16 + ^ .ra: .cfa -24 + ^ x29: .cfa -32 + ^
STACK CFI 6b144 .cfa: sp 32 +
STACK CFI 6b14c .cfa: sp 0 +
STACK CFI 6b150 .cfa: sp 32 +
STACK CFI 6b158 .cfa: sp 0 +
STACK CFI INIT 6b15c 1c .cfa: sp 0 +
STACK CFI INIT 6b178 c .cfa: sp 0 +
STACK CFI INIT 6b2fc 4 .cfa: sp 0 +
STACK CFI INIT 6b300 24 .cfa: sp 0 +
STACK CFI 6b304 .cfa: sp 16 +
STACK CFI 6b308 .cfa: x29 16 + .ra: .cfa -8 + ^ x29: .cfa -16 + ^
STACK CFI 6b31c .cfa: sp 16 +
STACK CFI 6b320 .cfa: sp 0 +
STACK CFI INIT 6b324 10 .cfa: sp 0 +
STACK CFI INIT 6b334 4 .cfa: sp 0 +
STACK CFI INIT 6b338 4 .cfa: sp 0 +
STACK CFI INIT 6b33c d8 .cfa: sp 0 +
STACK CFI 6b340 .cfa: sp 32 +
STACK CFI 6b348 .cfa: x29 32 + x19: .cfa -8 + ^ x20: .cfa -16 + ^ .ra: .cfa -24 + ^ x29: .cfa -32 + ^
STACK CFI 6b3fc .cfa: sp 32 +
STACK CFI 6b404 .cfa: sp 0 +
STACK CFI 6b408 .cfa: sp 32 +
STACK CFI 6b410 .cfa: sp 0 +
STACK CFI INIT 6b414 1c .cfa: sp 0 +
STACK CFI INIT 6b430 c .cfa: sp 0 +
STACK CFI INIT 6b670 4 .cfa: sp 0 +
STACK CFI INIT 6b674 24 .cfa: sp 0 +
STACK CFI 6b678 .cfa: sp 16 +
STACK CFI 6b67c .cfa: x29 16 + .ra: .cfa -8 + ^ x29: .cfa -16 + ^
STACK CFI 6b690 .cfa: sp 16 +
STACK CFI 6b694 .cfa: sp 0 +
STACK CFI INIT 6b698 10 .cfa: sp 0 +
STACK CFI INIT 6b6a8 4 .cfa: sp 0 +
STACK CFI INIT 6b6ac 4 .cfa: sp 0 +
STACK CFI INIT 6b6b0 8 .cfa: sp 0 +
STACK CFI INIT 6b6b8 1c .cfa: sp 0 +
STACK CFI INIT 6b6d4 c .cfa: sp 0 +
STACK CFI INIT 6b6e0 ec .cfa: sp 0 +
STACK CFI 6b6e4 .cfa: sp 32 +
STACK CFI 6b6ec .cfa: x29 32 + x19: .cfa -8 + ^ x20: .cfa -16 + ^ .ra: .cfa -24 + ^ x29: .cfa -32 + ^
STACK CFI 6b794 .cfa: sp 32 +
STACK CFI 6b79c .cfa: sp 0 +
STACK CFI 6b7a0 .cfa: x29 32 +
STACK CFI 6b7c0 .cfa: sp 32 +
STACK CFI 6b7c8 .cfa: sp 0 +
STACK CFI INIT 6b938 4 .cfa: sp 0 +
STACK CFI INIT 6b93c 24 .cfa: sp 0 +
STACK CFI 6b940 .cfa: sp 16 +
STACK CFI 6b944 .cfa: x29 16 + .ra: .cfa -8 + ^ x29: .cfa -16 + ^
STACK CFI 6b958 .cfa: sp 16 +
STACK CFI 6b95c .cfa: sp 0 +
STACK CFI INIT 6b960 10 .cfa: sp 0 +
STACK CFI INIT 6b970 4 .cfa: sp 0 +
STACK CFI INIT 6b974 4 .cfa: sp 0 +
STACK CFI INIT 6b978 d8 .cfa: sp 0 +
STACK CFI 6b97c .cfa: sp 32 +
STACK CFI 6b984 .cfa: x29 32 + x19: .cfa -8 + ^ x20: .cfa -16 + ^ .ra: .cfa -24 + ^ x29: .cfa -32 + ^
STACK CFI 6ba38 .cfa: sp 32 +
STACK CFI 6ba40 .cfa: sp 0 +
STACK CFI 6ba44 .cfa: sp 32 +
STACK CFI 6ba4c .cfa: sp 0 +
STACK CFI INIT 6ba50 1c .cfa: sp 0 +
STACK CFI INIT 6ba6c c .cfa: sp 0 +
STACK CFI INIT 6bbf0 4 .cfa: sp 0 +
STACK CFI INIT 6bbf4 24 .cfa: sp 0 +
STACK CFI 6bbf8 .cfa: sp 16 +
STACK CFI 6bbfc .cfa: x29 16 + .ra: .cfa -8 + ^ x29: .cfa -16 + ^
STACK CFI 6bc10 .cfa: sp 16 +
STACK CFI 6bc14 .cfa: sp 0 +
STACK CFI INIT 6bc18 10 .cfa: sp 0 +
STACK CFI INIT 6bc28 4 .cfa: sp 0 +
STACK CFI INIT 6bc2c 4 .cfa: sp 0 +
STACK CFI INIT 6bc30 d8 .cfa: sp 0 +
STACK CFI 6bc34 .cfa: sp 32 +
STACK CFI 6bc3c .cfa: x29 32 + x19: .cfa -8 + ^ x20: .cfa -16 + ^ .ra: .cfa -24 + ^ x29: .cfa -32 + ^
STACK CFI 6bcf0 .cfa: sp 32 +
STACK CFI 6bcf8 .cfa: sp 0 +
STACK CFI 6bcfc .cfa: sp 32 +
STACK CFI 6bd04 .cfa: sp 0 +
STACK CFI INIT 6bd08 1c .cfa: sp 0 +
STACK CFI INIT 6bd24 c .cfa: sp 0 +
STACK CFI INIT 6beac 4 .cfa: sp 0 +
STACK CFI INIT 6beb0 24 .cfa: sp 0 +
STACK CFI 6beb4 .cfa: sp 16 +
STACK CFI 6beb8 .cfa: x29 16 + .ra: .cfa -8 + ^ x29: .cfa -16 + ^
STACK CFI 6becc .cfa: sp 16 +
STACK CFI 6bed0 .cfa: sp 0 +
STACK CFI INIT 6bed4 10 .cfa: sp 0 +
STACK CFI INIT 6bee4 4 .cfa: sp 0 +
STACK CFI INIT 6bee8 4 .cfa: sp 0 +
STACK CFI INIT 6beec 160 .cfa: sp 0 +
STACK CFI 6bef0 .cfa: sp 48 +
STACK CFI 6befc .cfa: x29 48 + x19: .cfa -8 + ^ x20: .cfa -16 + ^ x21: .cfa -32 + ^ .ra: .cfa -40 + ^ x29: .cfa -48 + ^
STACK CFI 6c02c .cfa: sp 48 +
STACK CFI 6c038 .cfa: sp 0 +
STACK CFI 6c03c .cfa: sp 48 +
STACK CFI 6c048 .cfa: sp 0 +
STACK CFI INIT 6c04c 1c .cfa: sp 0 +
STACK CFI INIT 6c068 c .cfa: sp 0 +
STACK CFI INIT 6c1f8 4 .cfa: sp 0 +
STACK CFI INIT 6c1fc 24 .cfa: sp 0 +
STACK CFI 6c200 .cfa: sp 16 +
STACK CFI 6c204 .cfa: x29 16 + .ra: .cfa -8 + ^ x29: .cfa -16 + ^
STACK CFI 6c218 .cfa: sp 16 +
STACK CFI 6c21c .cfa: sp 0 +
STACK CFI INIT 6c220 10 .cfa: sp 0 +
STACK CFI INIT 6c230 4 .cfa: sp 0 +
STACK CFI INIT 6c234 4 .cfa: sp 0 +
STACK CFI INIT 6c238 d8 .cfa: sp 0 +
STACK CFI 6c23c .cfa: sp 32 +
STACK CFI 6c244 .cfa: x29 32 + x19: .cfa -8 + ^ x20: .cfa -16 + ^ .ra: .cfa -24 + ^ x29: .cfa -32 + ^
STACK CFI 6c2f8 .cfa: sp 32 +
STACK CFI 6c300 .cfa: sp 0 +
STACK CFI 6c304 .cfa: sp 32 +
STACK CFI 6c30c .cfa: sp 0 +
STACK CFI INIT 6c310 1c .cfa: sp 0 +
STACK CFI INIT 6c32c c .cfa: sp 0 +
STACK CFI INIT 6c4a8 4 .cfa: sp 0 +
STACK CFI INIT 6c4ac 24 .cfa: sp 0 +
STACK CFI 6c4b0 .cfa: sp 16 +
STACK CFI 6c4b4 .cfa: x29 16 + .ra: .cfa -8 + ^ x29: .cfa -16 + ^
STACK CFI 6c4c8 .cfa: sp 16 +
STACK CFI 6c4cc .cfa: sp 0 +
STACK CFI INIT 6c4d0 10 .cfa: sp 0 +
STACK CFI INIT 6c4e0 4 .cfa: sp 0 +
STACK CFI INIT 6c4e4 4 .cfa: sp 0 +
STACK CFI INIT 6c4e8 160 .cfa: sp 0 +
STACK CFI 6c4ec .cfa: sp 48 +
STACK CFI 6c4f8 .cfa: x29 48 + x19: .cfa -8 + ^ x20: .cfa -16 + ^ x21: .cfa -32 + ^ .ra: .cfa -40 + ^ x29: .cfa -48 + ^
STACK CFI 6c628 .cfa: sp 48 +
STACK CFI 6c634 .cfa: sp 0 +
STACK CFI 6c638 .cfa: sp 48 +
STACK CFI 6c644 .cfa: sp 0 +
STACK CFI INIT 6c648 1c .cfa: sp 0 +
STACK CFI INIT 6c664 c .cfa: sp 0 +
STACK CFI INIT 6c7f0 4 .cfa: sp 0 +
STACK CFI INIT 6c7f4 24 .cfa: sp 0 +
STACK CFI 6c7f8 .cfa: sp 16 +
STACK CFI 6c7fc .cfa: x29 16 + .ra: .cfa -8 + ^ x29: .cfa -16 + ^
STACK CFI 6c810 .cfa: sp 16 +
STACK CFI 6c814 .cfa: sp 0 +
STACK CFI INIT 6c818 10 .cfa: sp 0 +
STACK CFI INIT 6c828 4 .cfa: sp 0 +
STACK CFI INIT 6c82c 4 .cfa: sp 0 +
STACK CFI INIT 6c830 d8 .cfa: sp 0 +
STACK CFI 6c834 .cfa: sp 32 +
STACK CFI 6c83c .cfa: x29 32 + x19: .cfa -8 + ^ x20: .cfa -16 + ^ .ra: .cfa -24 + ^ x29: .cfa -32 + ^
STACK CFI 6c8f0 .cfa: sp 32 +
STACK CFI 6c8f8 .cfa: sp 0 +
STACK CFI 6c8fc .cfa: sp 32 +
STACK CFI 6c904 .cfa: sp 0 +
STACK CFI INIT 6c908 1c .cfa: sp 0 +
STACK CFI INIT 6c924 c .cfa: sp 0 +
STACK CFI INIT 6c930 3c .cfa: sp 0 +
STACK CFI 6c934 .cfa: sp 32 +
STACK CFI 6c93c .cfa: x29 32 + x19: .cfa -16 + ^ .ra: .cfa -24 + ^ x29: .cfa -32 + ^
STACK CFI 6c948 .cfa: sp 32 +
STACK CFI 6c950 .cfa: sp 0 +
STACK CFI 6c954 .cfa: x29 32 +
STACK CFI 6c960 .cfa: sp 32 +
STACK CFI 6c968 .cfa: sp 0 +
STACK CFI INIT 6c96c 3c .cfa: sp 0 +
STACK CFI 6c970 .cfa: sp 32 +
STACK CFI 6c978 .cfa: x29 32 + x19: .cfa -16 + ^ .ra: .cfa -24 + ^ x29: .cfa -32 + ^
STACK CFI 6c984 .cfa: sp 32 +
STACK CFI 6c98c .cfa: sp 0 +
STACK CFI 6c990 .cfa: x29 32 +
STACK CFI 6c99c .cfa: sp 32 +
STACK CFI 6c9a4 .cfa: sp 0 +
STACK CFI INIT 6c9a8 4c .cfa: sp 0 +
STACK CFI 6c9ac .cfa: sp 32 +
STACK CFI 6c9b4 .cfa: x29 32 + x19: .cfa -8 + ^ x20: .cfa -16 + ^ .ra: .cfa -24 + ^ x29: .cfa -32 + ^
STACK CFI 6c9dc .cfa: sp 32 +
STACK CFI 6c9e4 .cfa: sp 0 +
STACK CFI 6c9e8 .cfa: sp 32 +
STACK CFI 6c9f0 .cfa: sp 0 +
STACK CFI INIT 6cc14 64 .cfa: sp 0 +
STACK CFI 6cc18 .cfa: sp 32 +
STACK CFI 6cc20 .cfa: x29 32 + x19: .cfa -16 + ^ .ra: .cfa -24 + ^ x29: .cfa -32 + ^
STACK CFI 6cc4c .cfa: sp 32 +
STACK CFI 6cc54 .cfa: sp 0 +
STACK CFI 6cc58 .cfa: x29 32 +
STACK CFI 6cc6c .cfa: sp 32 +
STACK CFI 6cc74 .cfa: sp 0 +
STACK CFI INIT 6ce9c 24 .cfa: sp 0 +
STACK CFI 6cea0 .cfa: sp 32 +
STACK CFI 6cea8 .cfa: x29 32 + x19: .cfa -16 + ^ .ra: .cfa -24 + ^ x29: .cfa -32 + ^
STACK CFI 6ceb4 .cfa: sp 32 +
STACK CFI 6cebc .cfa: sp 0 +
STACK CFI INIT 6d11c 24 .cfa: sp 0 +
STACK CFI 6d120 .cfa: sp 32 +
STACK CFI 6d128 .cfa: x29 32 + x19: .cfa -16 + ^ .ra: .cfa -24 + ^ x29: .cfa -32 + ^
STACK CFI 6d134 .cfa: sp 32 +
STACK CFI 6d13c .cfa: sp 0 +
STACK CFI INIT 6d3c4 8 .cfa: sp 0 +
STACK CFI INIT 6d3cc 24 .cfa: sp 0 +
STACK CFI 6d3d0 .cfa: sp 32 +
STACK CFI 6d3d8 .cfa: x29 32 + x19: .cfa -16 + ^ .ra: .cfa -24 + ^ x29: .cfa -32 + ^
STACK CFI 6d3e4 .cfa: sp 32 +
STACK CFI 6d3ec .cfa: sp 0 +
STACK CFI INIT 6d3f0 28 .cfa: sp 0 +
STACK CFI 6d3f4 .cfa: sp 32 +
STACK CFI 6d3fc .cfa: x29 32 + x19: .cfa -16 + ^ .ra: .cfa -24 + ^ x29: .cfa -32 + ^
STACK CFI 6d40c .cfa: sp 32 +
STACK CFI 6d414 .cfa: sp 0 +
STACK CFI INIT 6d718 8 .cfa: sp 0 +
STACK CFI INIT 6d720 24 .cfa: sp 0 +
STACK CFI 6d724 .cfa: sp 32 +
STACK CFI 6d72c .cfa: x29 32 + x19: .cfa -16 + ^ .ra: .cfa -24 + ^ x29: .cfa -32 + ^
STACK CFI 6d738 .cfa: sp 32 +
STACK CFI 6d740 .cfa: sp 0 +
STACK CFI INIT 6d744 28 .cfa: sp 0 +
STACK CFI 6d748 .cfa: sp 32 +
STACK CFI 6d750 .cfa: x29 32 + x19: .cfa -16 + ^ .ra: .cfa -24 + ^ x29: .cfa -32 + ^
STACK CFI 6d760 .cfa: sp 32 +
STACK CFI 6d768 .cfa: sp 0 +
STACK CFI INIT 6d9d0 8 .cfa: sp 0 +
STACK CFI INIT 6d9d8 24 .cfa: sp 0 +
STACK CFI 6d9dc .cfa: sp 32 +
STACK CFI 6d9e4 .cfa: x29 32 + x19: .cfa -16 + ^ .ra: .cfa -24 + ^ x29: .cfa -32 + ^
STACK CFI 6d9f0 .cfa: sp 32 +
STACK CFI 6d9f8 .cfa: sp 0 +
STACK CFI INIT 6d9fc 28 .cfa: sp 0 +
STACK CFI 6da00 .cfa: sp 32 +
STACK CFI 6da08 .cfa: x29 32 + x19: .cfa -16 + ^ .ra: .cfa -24 + ^ x29: .cfa -32 + ^
STACK CFI 6da18 .cfa: sp 32 +
STACK CFI 6da20 .cfa: sp 0 +
STACK CFI INIT 6dc94 24 .cfa: sp 0 +
STACK CFI 6dc98 .cfa: sp 32 +
STACK CFI 6dca0 .cfa: x29 32 + x19: .cfa -16 + ^ .ra: .cfa -24 + ^ x29: .cfa -32 + ^
STACK CFI 6dcac .cfa: sp 32 +
STACK CFI 6dcb4 .cfa: sp 0 +
STACK CFI INIT 6e370 24 .cfa: sp 0 +
STACK CFI 6e374 .cfa: sp 32 +
STACK CFI 6e37c .cfa: x29 32 + x19: .cfa -16 + ^ .ra: .cfa -24 + ^ x29: .cfa -32 + ^
STACK CFI 6e388 .cfa: sp 32 +
STACK CFI 6e390 .cfa: sp 0 +
STACK CFI INIT 6e394 9c .cfa: sp 0 +
STACK CFI 6e398 .cfa: sp 32 +
STACK CFI 6e3a0 .cfa: x29 32 + x19: .cfa -16 + ^ .ra: .cfa -24 + ^ x29: .cfa -32 + ^
STACK CFI 6e424 .cfa: sp 32 +
STACK CFI 6e42c .cfa: sp 0 +
STACK CFI INIT 6e430 8 .cfa: sp 0 +
STACK CFI INIT 6e438 24 .cfa: sp 0 +
STACK CFI 6e43c .cfa: sp 32 +
STACK CFI 6e444 .cfa: x29 32 + x19: .cfa -16 + ^ .ra: .cfa -24 + ^ x29: .cfa -32 + ^
STACK CFI 6e450 .cfa: sp 32 +
STACK CFI 6e458 .cfa: sp 0 +
STACK CFI INIT 6e45c 28 .cfa: sp 0 +
STACK CFI 6e460 .cfa: sp 32 +
STACK CFI 6e468 .cfa: x29 32 + x19: .cfa -16 + ^ .ra: .cfa -24 + ^ x29: .cfa -32 + ^
STACK CFI 6e478 .cfa: sp 32 +
STACK CFI 6e480 .cfa: sp 0 +
STACK CFI INIT 6eab8 28 .cfa: sp 0 +
STACK CFI INIT 6eae0 14 .cfa: sp 0 +
STACK CFI INIT 6fdfc 4 .cfa: sp 0 +
STACK CFI INIT 6fe00 14 .cfa: sp 0 +
STACK CFI INIT 70320 c .cfa: sp 0 +
STACK CFI INIT 7032c 24c .cfa: sp 0 +
STACK CFI INIT 70578 a0 .cfa: sp 0 +
STACK CFI 70584 .cfa: sp 32 +
STACK CFI 705dc .cfa: sp 0 +
STACK CFI 705e0 .cfa: sp 32 +
STACK CFI 705e8 .cfa: sp 0 +
STACK CFI 705ec .cfa: sp 32 +
STACK CFI 70600 .cfa: sp 0 +
STACK CFI 70604 .cfa: sp 32 +
STACK CFI 70614 .cfa: sp 0 +
STACK CFI INIT 70618 38 .cfa: sp 0 +
STACK CFI 70624 .cfa: sp 32 +
STACK CFI 7064c .cfa: sp 0 +
STACK CFI INIT 708e4 7c .cfa: sp 0 +
STACK CFI 708e8 .cfa: sp 32 +
STACK CFI 708f0 .cfa: x29 32 + x19: .cfa -16 + ^ .ra: .cfa -24 + ^ x29: .cfa -32 + ^
STACK CFI 7091c .cfa: sp 32 +
STACK CFI 70924 .cfa: sp 0 +
STACK CFI 70928 .cfa: x29 32 +
STACK CFI 70954 .cfa: sp 32 +
STACK CFI 7095c .cfa: sp 0 +
STACK CFI INIT 709b0 2c .cfa: sp 0 +
STACK CFI 709b4 .cfa: sp 32 +
STACK CFI 709bc .cfa: x29 32 + x19: .cfa -16 + ^ .ra: .cfa -24 + ^ x29: .cfa -32 + ^
STACK CFI 709d0 .cfa: sp 32 +
STACK CFI 709d8 .cfa: sp 0 +
STACK CFI INIT 7119c 64 .cfa: sp 0 +
STACK CFI 711a0 .cfa: sp 32 +
STACK CFI 711a8 .cfa: x29 32 + x19: .cfa -16 + ^ .ra: .cfa -24 + ^ x29: .cfa -32 + ^
STACK CFI 711c4 .cfa: sp 32 +
STACK CFI 711cc .cfa: sp 0 +
STACK CFI 711d0 .cfa: x29 32 +
STACK CFI 711f4 .cfa: sp 32 +
STACK CFI 711fc .cfa: sp 0 +
STACK CFI INIT 7134c 570 .cfa: sp 0 +
STACK CFI 71350 .cfa: sp 176 +
STACK CFI 71364 .cfa: x29 64 + x19: .cfa -8 + ^ x20: .cfa -16 + ^ x21: .cfa -24 + ^ x22: .cfa -32 + ^ x23: .cfa -40 + ^ x24: .cfa -48 + ^ .ra: .cfa -56 + ^ x29: .cfa -64 + ^
STACK CFI 71594 .cfa: sp 176 +
STACK CFI 715a8 .cfa: sp 0 +
STACK CFI 715ac .cfa: x29 64 +
STACK CFI 715f8 .cfa: sp 176 +
STACK CFI 7160c .cfa: sp 0 +
STACK CFI 71610 .cfa: x29 64 +
STACK CFI 71648 .cfa: sp 176 +
STACK CFI 7165c .cfa: sp 0 +
STACK CFI 71660 .cfa: x29 64 +
STACK CFI 71678 .cfa: sp 176 +
STACK CFI 7168c .cfa: sp 0 +
STACK CFI 71690 .cfa: x29 64 +
STACK CFI 716b0 .cfa: sp 176 +
STACK CFI 716c4 .cfa: sp 0 +
STACK CFI 716c8 .cfa: x29 64 +
STACK CFI 716e0 .cfa: sp 176 +
STACK CFI 716f4 .cfa: sp 0 +
STACK CFI 716f8 .cfa: x29 64 +
STACK CFI 7170c .cfa: sp 176 +
STACK CFI 71720 .cfa: sp 0 +
STACK CFI 71724 .cfa: x29 64 +
STACK CFI 71738 .cfa: sp 176 +
STACK CFI 7174c .cfa: sp 0 +
STACK CFI 71750 .cfa: x29 64 +
STACK CFI 71760 .cfa: sp 176 +
STACK CFI 71774 .cfa: sp 0 +
STACK CFI 71778 .cfa: x29 64 +
STACK CFI 71788 .cfa: sp 176 +
STACK CFI 7179c .cfa: sp 0 +
STACK CFI 717a0 .cfa: x29 64 +
STACK CFI 717b8 .cfa: sp 176 +
STACK CFI 717cc .cfa: sp 0 +
STACK CFI 717d0 .cfa: x29 64 +
STACK CFI 717e4 .cfa: sp 176 +
STACK CFI 717f8 .cfa: sp 0 +
STACK CFI 717fc .cfa: x29 64 +
STACK CFI 71814 .cfa: sp 176 +
STACK CFI 71828 .cfa: sp 0 +
STACK CFI 7182c .cfa: x29 64 +
STACK CFI 71858 .cfa: sp 176 +
STACK CFI 7186c .cfa: sp 0 +
STACK CFI 71870 .cfa: x29 64 +
STACK CFI 71884 .cfa: sp 176 +
STACK CFI 71898 .cfa: sp 0 +
STACK CFI 7189c .cfa: x29 64 +
STACK CFI INIT 718bc 228 .cfa: sp 0 +
STACK CFI INIT 71ae4 2dc .cfa: sp 0 +
STACK CFI INIT 71dc0 53c .cfa: sp 0 +
STACK CFI INIT 722fc 78 .cfa: sp 0 +
STACK CFI 72300 .cfa: sp 48 +
STACK CFI 7230c .cfa: x29 48 + x19: .cfa -8 + ^ x20: .cfa -16 + ^ x21: .cfa -24 + ^ x22: .cfa -32 + ^ .ra: .cfa -40 + ^ x29: .cfa -48 + ^
STACK CFI 72354 .cfa: sp 48 +
STACK CFI 72360 .cfa: sp 0 +
STACK CFI 72364 .cfa: sp 48 +
STACK CFI 72370 .cfa: sp 0 +
STACK CFI INIT 72374 8c .cfa: sp 0 +
STACK CFI 72378 .cfa: sp 32 +
STACK CFI 72380 .cfa: x29 32 + x19: .cfa -16 + ^ .ra: .cfa -24 + ^ x29: .cfa -32 + ^
STACK CFI 723b4 .cfa: sp 32 +
STACK CFI 723bc .cfa: sp 0 +
STACK CFI 723c0 .cfa: x29 32 +
STACK CFI 723f4 .cfa: sp 32 +
STACK CFI 723fc .cfa: sp 0 +
STACK CFI INIT 72400 24 .cfa: sp 0 +
STACK CFI 72404 .cfa: sp 32 +
STACK CFI 7240c .cfa: x29 32 + x19: .cfa -16 + ^ .ra: .cfa -24 + ^ x29: .cfa -32 + ^
STACK CFI 72418 .cfa: sp 32 +
STACK CFI 72420 .cfa: sp 0 +
STACK CFI INIT 72424 150 .cfa: sp 0 +
STACK CFI 72428 .cfa: sp 48 +
STACK CFI 72434 .cfa: x29 48 + x19: .cfa -8 + ^ x20: .cfa -16 + ^ x21: .cfa -24 + ^ x22: .cfa -32 + ^ .ra: .cfa -40 + ^ x29: .cfa -48 + ^
STACK CFI 72564 .cfa: sp 48 +
STACK CFI 72570 .cfa: sp 0 +
STACK CFI INIT 72574 68 .cfa: sp 0 +
STACK CFI 72578 .cfa: sp 64 +
STACK CFI 72584 .cfa: x29 32 + x19: .cfa -16 + ^ .ra: .cfa -24 + ^ x29: .cfa -32 + ^
STACK CFI 725c8 .cfa: sp 64 +
STACK CFI 725d4 .cfa: sp 0 +
STACK CFI 725d8 .cfa: x29 32 +
STACK CFI INIT 725dc 90 .cfa: sp 0 +
STACK CFI 725e0 .cfa: sp 32 +
STACK CFI 725e8 .cfa: x29 32 + x19: .cfa -8 + ^ x20: .cfa -16 + ^ .ra: .cfa -24 + ^ x29: .cfa -32 + ^
STACK CFI 72614 .cfa: sp 32 +
STACK CFI 7261c .cfa: sp 0 +
STACK CFI 72620 .cfa: x29 32 +
STACK CFI 72660 .cfa: sp 32 +
STACK CFI 72668 .cfa: sp 0 +
STACK CFI INIT 7266c ec .cfa: sp 0 +
STACK CFI 72670 .cfa: sp 112 +
STACK CFI 72680 .cfa: x29 48 + x19: .cfa -8 + ^ x20: .cfa -16 + ^ x21: .cfa -32 + ^ .ra: .cfa -40 + ^ x29: .cfa -48 + ^
STACK CFI 72740 .cfa: sp 112 +
STACK CFI 72750 .cfa: sp 0 +
STACK CFI 72754 .cfa: x29 48 +
STACK CFI INIT 72758 ec .cfa: sp 0 +
STACK CFI 7275c .cfa: sp 112 +
STACK CFI 7276c .cfa: x29 48 + x19: .cfa -8 + ^ x20: .cfa -16 + ^ x21: .cfa -32 + ^ .ra: .cfa -40 + ^ x29: .cfa -48 + ^
STACK CFI 7282c .cfa: sp 112 +
STACK CFI 7283c .cfa: sp 0 +
STACK CFI 72840 .cfa: x29 48 +
STACK CFI INIT 72844 48 .cfa: sp 0 +
STACK CFI 72848 .cfa: sp 32 +
STACK CFI 72850 .cfa: x29 32 + x19: .cfa -8 + ^ x20: .cfa -16 + ^ .ra: .cfa -24 + ^ x29: .cfa -32 + ^
STACK CFI 72874 .cfa: sp 32 +
STACK CFI 7287c .cfa: sp 0 +
STACK CFI 72880 .cfa: x29 32 +
STACK CFI INIT 7288c 98 .cfa: sp 0 +
STACK CFI 72890 .cfa: sp 80 +
STACK CFI 7289c .cfa: x29 32 + x19: .cfa -16 + ^ .ra: .cfa -24 + ^ x29: .cfa -32 + ^
STACK CFI 72910 .cfa: sp 80 +
STACK CFI 7291c .cfa: sp 0 +
STACK CFI 72920 .cfa: x29 32 +
STACK CFI INIT 72924 260 .cfa: sp 0 +
STACK CFI 72928 .cfa: sp 112 +
STACK CFI 72940 .cfa: x29 80 + x19: .cfa -8 + ^ x20: .cfa -16 + ^ x21: .cfa -24 + ^ x22: .cfa -32 + ^ x23: .cfa -40 + ^ x24: .cfa -48 + ^ x25: .cfa -64 + ^ .ra: .cfa -72 + ^ x29: .cfa -80 + ^
STACK CFI 72b24 .cfa: sp 112 +
STACK CFI 72b3c .cfa: sp 0 +
STACK CFI 72b40 .cfa: x29 80 +
STACK CFI INIT 72b84 150 .cfa: sp 0 +
STACK CFI 72b88 .cfa: sp 48 +
STACK CFI 72b94 .cfa: x29 48 + x19: .cfa -8 + ^ x20: .cfa -16 + ^ x21: .cfa -24 + ^ x22: .cfa -32 + ^ .ra: .cfa -40 + ^ x29: .cfa -48 + ^
STACK CFI 72cc4 .cfa: sp 48 +
STACK CFI 72cd0 .cfa: sp 0 +
STACK CFI INIT 72cd4 1e0 .cfa: sp 0 +
STACK CFI 72cd8 .cfa: sp 96 +
STACK CFI 72cec .cfa: x29 64 + x19: .cfa -8 + ^ x20: .cfa -16 + ^ x21: .cfa -24 + ^ x22: .cfa -32 + ^ x23: .cfa -40 + ^ x24: .cfa -48 + ^ .ra: .cfa -56 + ^ x29: .cfa -64 + ^
STACK CFI 72e6c .cfa: sp 96 +
STACK CFI 72e80 .cfa: sp 0 +
STACK CFI 72e84 .cfa: x29 64 +
STACK CFI INIT 72eb4 284 .cfa: sp 0 +
STACK CFI 72eb8 .cfa: sp 112 +
STACK CFI 72ed0 .cfa: x29 80 + x19: .cfa -8 + ^ x20: .cfa -16 + ^ x21: .cfa -24 + ^ x22: .cfa -32 + ^ x23: .cfa -40 + ^ x24: .cfa -48 + ^ x25: .cfa -64 + ^ .ra: .cfa -72 + ^ x29: .cfa -80 + ^
STACK CFI 730d8 .cfa: sp 112 +
STACK CFI 730f0 .cfa: sp 0 +
STACK CFI 730f4 .cfa: x29 80 +
STACK CFI INIT 73138 208 .cfa: sp 0 +
STACK CFI 7313c .cfa: sp 96 +
STACK CFI 73150 .cfa: x29 64 + x19: .cfa -8 + ^ x20: .cfa -16 + ^ x21: .cfa -24 + ^ x22: .cfa -32 + ^ x23: .cfa -40 + ^ x24: .cfa -48 + ^ .ra: .cfa -56 + ^ x29: .cfa -64 + ^
STACK CFI 732f8 .cfa: sp 96 +
STACK CFI 7330c .cfa: sp 0 +
STACK CFI 73310 .cfa: x29 64 +
STACK CFI INIT 73340 360 .cfa: sp 0 +
STACK CFI 73344 .cfa: sp 160 +
STACK CFI 73360 .cfa: x29 96 + x19: .cfa -8 + ^ x20: .cfa -16 + ^ x21: .cfa -24 + ^ x22: .cfa -32 + ^ x23: .cfa -40 + ^ x24: .cfa -48 + ^ x25: .cfa -56 + ^ x26: .cfa -64 + ^ x27: .cfa -72 + ^ x28: .cfa -80 + ^ .ra: .cfa -88 + ^ x29: .cfa -96 + ^
STACK CFI 7362c .cfa: sp 160 +
STACK CFI 73648 .cfa: sp 0 +
STACK CFI 7364c .cfa: x29 96 +
STACK CFI INIT 736a0 314 .cfa: sp 0 +
STACK CFI 736a4 .cfa: sp 144 +
STACK CFI 736c0 .cfa: x29 96 + x19: .cfa -8 + ^ x20: .cfa -16 + ^ x21: .cfa -24 + ^ x22: .cfa -32 + ^ x23: .cfa -40 + ^ x24: .cfa -48 + ^ x25: .cfa -56 + ^ x26: .cfa -64 + ^ x27: .cfa -72 + ^ x28: .cfa -80 + ^ .ra: .cfa -88 + ^ x29: .cfa -96 + ^
STACK CFI 7393c .cfa: sp 144 +
STACK CFI 73958 .cfa: sp 0 +
STACK CFI 7395c .cfa: x29 96 +
STACK CFI INIT 739b4 290 .cfa: sp 0 +
STACK CFI 739b8 .cfa: sp 128 +
STACK CFI 739d0 .cfa: x29 80 + x19: .cfa -8 + ^ x20: .cfa -16 + ^ x21: .cfa -24 + ^ x22: .cfa -32 + ^ x23: .cfa -40 + ^ x24: .cfa -48 + ^ x25: .cfa -56 + ^ x26: .cfa -64 + ^ .ra: .cfa -72 + ^ x29: .cfa -80 + ^
STACK CFI 73c24 .cfa: sp 128 +
STACK CFI 73c3c .cfa: sp 0 +
STACK CFI 73c40 .cfa: x29 80 +
STACK CFI INIT 73c44 dc8 .cfa: sp 0 +
STACK CFI 73c48 .cfa: sp 144 +
STACK CFI 73c64 .cfa: x29 96 + x19: .cfa -8 + ^ x20: .cfa -16 + ^ x21: .cfa -24 + ^ x22: .cfa -32 + ^ x23: .cfa -40 + ^ x24: .cfa -48 + ^ x25: .cfa -56 + ^ x26: .cfa -64 + ^ x27: .cfa -72 + ^ x28: .cfa -80 + ^ .ra: .cfa -88 + ^ x29: .cfa -96 + ^
STACK CFI 748e4 .cfa: sp 144 +
STACK CFI 74900 .cfa: sp 0 +
STACK CFI 74904 .cfa: x29 96 +
STACK CFI INIT 74a0c 1d0 .cfa: sp 0 +
STACK CFI 74a10 .cfa: sp 80 +
STACK CFI 74a24 .cfa: x29 80 + x19: .cfa -8 + ^ x20: .cfa -16 + ^ x21: .cfa -24 + ^ x22: .cfa -32 + ^ x23: .cfa -40 + ^ x24: .cfa -48 + ^ x25: .cfa -64 + ^ .ra: .cfa -72 + ^ x29: .cfa -80 + ^
STACK CFI 74bc4 .cfa: sp 80 +
STACK CFI 74bd8 .cfa: sp 0 +
STACK CFI INIT 74bdc 23c .cfa: sp 0 +
STACK CFI 74be0 .cfa: sp 112 +
STACK CFI 74bf4 .cfa: x29 64 + x19: .cfa -8 + ^ x20: .cfa -16 + ^ x21: .cfa -24 + ^ x22: .cfa -32 + ^ x23: .cfa -40 + ^ x24: .cfa -48 + ^ .ra: .cfa -56 + ^ x29: .cfa -64 + ^
STACK CFI 74dd0 .cfa: sp 112 +
STACK CFI 74de4 .cfa: sp 0 +
STACK CFI 74de8 .cfa: x29 64 +
STACK CFI INIT 74e18 30c .cfa: sp 0 +
STACK CFI 74e1c .cfa: sp 80 +
STACK CFI 74e30 .cfa: x29 64 + x19: .cfa -8 + ^ x20: .cfa -16 + ^ x21: .cfa -24 + ^ x22: .cfa -32 + ^ x23: .cfa -40 + ^ x24: .cfa -48 + ^ .ra: .cfa -56 + ^ x29: .cfa -64 + ^
STACK CFI 74fac .cfa: sp 80 +
STACK CFI 74fc0 .cfa: sp 0 +
STACK CFI 74fc4 .cfa: x29 64 +
STACK CFI INIT 75124 178 .cfa: sp 0 +
STACK CFI 75128 .cfa: sp 80 +
STACK CFI 7513c .cfa: x29 64 + x19: .cfa -8 + ^ x20: .cfa -16 + ^ x21: .cfa -24 + ^ x22: .cfa -32 + ^ x23: .cfa -40 + ^ x24: .cfa -48 + ^ .ra: .cfa -56 + ^ x29: .cfa -64 + ^
STACK CFI 75280 .cfa: sp 80 +
STACK CFI 75294 .cfa: sp 0 +
STACK CFI 75298 .cfa: x29 64 +
STACK CFI INIT 7529c 178 .cfa: sp 0 +
STACK CFI 752a0 .cfa: sp 80 +
STACK CFI 752b4 .cfa: x29 64 + x19: .cfa -8 + ^ x20: .cfa -16 + ^ x21: .cfa -24 + ^ x22: .cfa -32 + ^ x23: .cfa -40 + ^ x24: .cfa -48 + ^ .ra: .cfa -56 + ^ x29: .cfa -64 + ^
STACK CFI 753f8 .cfa: sp 80 +
STACK CFI 7540c .cfa: sp 0 +
STACK CFI 75410 .cfa: x29 64 +
STACK CFI INIT 75414 240 .cfa: sp 0 +
STACK CFI 75418 .cfa: sp 96 +
STACK CFI 75430 .cfa: x29 96 + x19: .cfa -8 + ^ x20: .cfa -16 + ^ x21: .cfa -24 + ^ x22: .cfa -32 + ^ x23: .cfa -40 + ^ x24: .cfa -48 + ^ x25: .cfa -56 + ^ x26: .cfa -64 + ^ x27: .cfa -72 + ^ x28: .cfa -80 + ^ .ra: .cfa -88 + ^ x29: .cfa -96 + ^
STACK CFI 75638 .cfa: sp 96 +
STACK CFI 75650 .cfa: sp 0 +
STACK CFI INIT 762c8 154 .cfa: sp 0 +
STACK CFI 762cc .cfa: sp 96 +
STACK CFI 762e0 .cfa: x29 64 + x19: .cfa -8 + ^ x20: .cfa -16 + ^ x21: .cfa -24 + ^ x22: .cfa -32 + ^ x23: .cfa -48 + ^ .ra: .cfa -56 + ^ x29: .cfa -64 + ^
STACK CFI 763c0 .cfa: sp 96 +
STACK CFI 763d4 .cfa: sp 0 +
STACK CFI 763d8 .cfa: x29 64 +
STACK CFI INIT 76684 44 .cfa: sp 0 +
STACK CFI 76688 .cfa: sp 32 +
STACK CFI 76690 .cfa: x29 32 + x19: .cfa -16 + ^ .ra: .cfa -24 + ^ x29: .cfa -32 + ^
STACK CFI 766ac .cfa: sp 32 +
STACK CFI 766b4 .cfa: sp 0 +
STACK CFI 766b8 .cfa: x29 32 +
STACK CFI 766bc .cfa: sp 32 +
STACK CFI 766c4 .cfa: sp 0 +
STACK CFI INIT 766c8 1d0 .cfa: sp 0 +
STACK CFI 766cc .cfa: sp 64 +
STACK CFI 766dc .cfa: x29 64 + x19: .cfa -8 + ^ x20: .cfa -16 + ^ x21: .cfa -24 + ^ x22: .cfa -32 + ^ x23: .cfa -40 + ^ x24: .cfa -48 + ^ .ra: .cfa -56 + ^ x29: .cfa -64 + ^
STACK CFI 7679c .cfa: sp 64 +
STACK CFI 767ac .cfa: sp 0 +
STACK CFI 767b0 .cfa: x29 64 +
STACK CFI INIT 76898 17c .cfa: sp 0 +
STACK CFI INIT 76dcc a0 .cfa: sp 0 +
STACK CFI 76dd0 .cfa: sp 48 +
STACK CFI 76ddc .cfa: x29 48 + x19: .cfa -8 + ^ x20: .cfa -16 + ^ x21: .cfa -24 + ^ x22: .cfa -32 + ^ .ra: .cfa -40 + ^ x29: .cfa -48 + ^
STACK CFI 76e48 .cfa: sp 48 +
STACK CFI 76e54 .cfa: sp 0 +
STACK CFI 76e58 .cfa: sp 48 +
STACK CFI 76e64 .cfa: sp 0 +
STACK CFI 76e68 .cfa: x29 48 +
STACK CFI INIT 77b1c 158 .cfa: sp 0 +
STACK CFI 77b20 .cfa: sp 96 +
STACK CFI 77b34 .cfa: x29 64 + x19: .cfa -8 + ^ x20: .cfa -16 + ^ x21: .cfa -24 + ^ x22: .cfa -32 + ^ x23: .cfa -48 + ^ .ra: .cfa -56 + ^ x29: .cfa -64 + ^
STACK CFI 77c18 .cfa: sp 96 +
STACK CFI 77c2c .cfa: sp 0 +
STACK CFI 77c30 .cfa: x29 64 +
STACK CFI INIT 77c74 190 .cfa: sp 0 +
STACK CFI INIT 788e8 1dc .cfa: sp 0 +
STACK CFI 788ec .cfa: sp 80 +
STACK CFI 78900 .cfa: x29 80 + x19: .cfa -8 + ^ x20: .cfa -16 + ^ x21: .cfa -24 + ^ x22: .cfa -32 + ^ x23: .cfa -40 + ^ x24: .cfa -48 + ^ x25: .cfa -64 + ^ .ra: .cfa -72 + ^ x29: .cfa -80 + ^
STACK CFI 78aac .cfa: sp 80 +
STACK CFI 78ac0 .cfa: sp 0 +
STACK CFI INIT 79ee8 124 .cfa: sp 0 +
STACK CFI 79f18 .cfa: sp 32 +
STACK CFI 79f20 .cfa: x29 32 + x19: .cfa -8 + ^ x20: .cfa -16 + ^ .ra: .cfa -24 + ^ x29: .cfa -32 + ^
STACK CFI 7a000 .cfa: sp 32 +
STACK CFI 7a008 .cfa: sp 0 +
STACK CFI INIT 7a768 324 .cfa: sp 0 +
STACK CFI 7a76c .cfa: sp 64 +
STACK CFI 7a77c .cfa: x29 64 + x19: .cfa -8 + ^ x20: .cfa -16 + ^ x21: .cfa -24 + ^ x22: .cfa -32 + ^ x23: .cfa -40 + ^ x24: .cfa -48 + ^ .ra: .cfa -56 + ^ x29: .cfa -64 + ^
STACK CFI 7a7f8 .cfa: sp 64 +
STACK CFI 7a808 .cfa: sp 0 +
STACK CFI 7a80c .cfa: x29 64 +
STACK CFI 7a9e4 .cfa: sp 64 +
STACK CFI 7a9f4 .cfa: sp 0 +
STACK CFI 7a9f8 .cfa: x29 64 +
STACK CFI 7aa08 .cfa: sp 64 +
STACK CFI 7aa18 .cfa: sp 0 +
STACK CFI 7aa1c .cfa: x29 64 +
STACK CFI INIT 7aa8c a0 .cfa: sp 0 +
STACK CFI 7aa90 .cfa: sp 48 +
STACK CFI 7aa9c .cfa: x29 48 + x19: .cfa -8 + ^ x20: .cfa -16 + ^ x21: .cfa -24 + ^ x22: .cfa -32 + ^ .ra: .cfa -40 + ^ x29: .cfa -48 + ^
STACK CFI 7ab08 .cfa: sp 48 +
STACK CFI 7ab14 .cfa: sp 0 +
STACK CFI 7ab18 .cfa: sp 48 +
STACK CFI 7ab24 .cfa: sp 0 +
STACK CFI 7ab28 .cfa: x29 48 +
STACK CFI INIT 7b9d8 160 .cfa: sp 0 +
STACK CFI 7b9dc .cfa: sp 64 +
STACK CFI 7b9ec .cfa: x29 64 + x19: .cfa -8 + ^ x20: .cfa -16 + ^ x21: .cfa -24 + ^ x22: .cfa -32 + ^ x23: .cfa -48 + ^ .ra: .cfa -56 + ^ x29: .cfa -64 + ^
STACK CFI 7bae4 .cfa: sp 64 +
STACK CFI 7baf4 .cfa: sp 0 +
STACK CFI 7baf8 .cfa: x29 64 +
STACK CFI INIT 7bb38 214 .cfa: sp 0 +
STACK CFI 7bb3c .cfa: sp 128 +
STACK CFI 7bb58 .cfa: x29 96 + x19: .cfa -8 + ^ x20: .cfa -16 + ^ x21: .cfa -24 + ^ x22: .cfa -32 + ^ x23: .cfa -40 + ^ x24: .cfa -48 + ^ x25: .cfa -56 + ^ x26: .cfa -64 + ^ x27: .cfa -80 + ^ .ra: .cfa -88 + ^ x29: .cfa -96 + ^
STACK CFI 7bcd4 .cfa: sp 128 +
STACK CFI 7bcf0 .cfa: sp 0 +
STACK CFI 7bcf4 .cfa: x29 96 +
STACK CFI INIT 7d9b0 290 .cfa: sp 0 +
STACK CFI 7d9b4 .cfa: sp 16 +
STACK CFI 7d9b8 .cfa: x29 16 + .ra: .cfa -8 + ^ x29: .cfa -16 + ^
STACK CFI 7da44 .cfa: sp 16 +
STACK CFI 7da48 .cfa: sp 0 +
STACK CFI 7da4c .cfa: x29 16 +
STACK CFI 7da9c .cfa: sp 16 +
STACK CFI 7daa0 .cfa: sp 0 +
STACK CFI 7daa4 .cfa: x29 16 +
STACK CFI 7dc08 .cfa: sp 16 +
STACK CFI 7dc0c .cfa: sp 0 +
STACK CFI 7dc10 .cfa: x29 16 +
STACK CFI INIT 7dc40 134 .cfa: sp 0 +
STACK CFI 7dc44 .cfa: sp 96 +
STACK CFI 7dc5c .cfa: x29 96 + x19: .cfa -8 + ^ x20: .cfa -16 + ^ x21: .cfa -24 + ^ x22: .cfa -32 + ^ x23: .cfa -40 + ^ x24: .cfa -48 + ^ x25: .cfa -56 + ^ x26: .cfa -64 + ^ x27: .cfa -72 + ^ x28: .cfa -80 + ^ .ra: .cfa -88 + ^ x29: .cfa -96 + ^
STACK CFI 7dd2c .cfa: sp 96 +
STACK CFI 7dd30 .cfa: x29 96 +
STACK CFI 7dd34 .cfa: sp 96 +
STACK CFI 7dd4c .cfa: sp 0 +
STACK CFI 7dd50 .cfa: x29 96 +
STACK CFI 7dd70 .cfa: sp 96 +
STACK CFI INIT 7dd74 e4c .cfa: sp 0 +
STACK CFI 7dd78 .cfa: sp 192 +
STACK CFI 7dd94 .cfa: x29 96 + x19: .cfa -8 + ^ x20: .cfa -16 + ^ x21: .cfa -24 + ^ x22: .cfa -32 + ^ x23: .cfa -40 + ^ x24: .cfa -48 + ^ x25: .cfa -56 + ^ x26: .cfa -64 + ^ x27: .cfa -72 + ^ x28: .cfa -80 + ^ .ra: .cfa -88 + ^ x29: .cfa -96 + ^
STACK CFI 7eaa8 .cfa: sp 192 +
STACK CFI 7eac4 .cfa: sp 0 +
STACK CFI 7eac8 .cfa: x29 96 +
STACK CFI INIT 7ebc0 1068 .cfa: sp 0 +
STACK CFI 7ebc4 .cfa: sp 288 +
STACK CFI 7ebe0 .cfa: x29 96 + x19: .cfa -8 + ^ x20: .cfa -16 + ^ x21: .cfa -24 + ^ x22: .cfa -32 + ^ x23: .cfa -40 + ^ x24: .cfa -48 + ^ x25: .cfa -56 + ^ x26: .cfa -64 + ^ x27: .cfa -72 + ^ x28: .cfa -80 + ^ .ra: .cfa -88 + ^ x29: .cfa -96 + ^
STACK CFI 7f970 .cfa: sp 288 +
STACK CFI 7f98c .cfa: sp 0 +
STACK CFI 7f990 .cfa: x29 96 +
STACK CFI INIT 7fc28 520 .cfa: sp 0 +
STACK CFI 7fc2c .cfa: sp 144 +
STACK CFI 7fc48 .cfa: x29 96 + x19: .cfa -8 + ^ x20: .cfa -16 + ^ x21: .cfa -24 + ^ x22: .cfa -32 + ^ x23: .cfa -40 + ^ x24: .cfa -48 + ^ x25: .cfa -56 + ^ x26: .cfa -64 + ^ x27: .cfa -72 + ^ x28: .cfa -80 + ^ .ra: .cfa -88 + ^ x29: .cfa -96 + ^
STACK CFI 80124 .cfa: sp 144 +
STACK CFI 80140 .cfa: sp 0 +
STACK CFI 80144 .cfa: x29 96 +
STACK CFI INIT 80b94 12dc .cfa: sp 0 +
STACK CFI 80b98 .cfa: sp 208 +
STACK CFI 80bb4 .cfa: x29 96 + x19: .cfa -8 + ^ x20: .cfa -16 + ^ x21: .cfa -24 + ^ x22: .cfa -32 + ^ x23: .cfa -40 + ^ x24: .cfa -48 + ^ x25: .cfa -56 + ^ x26: .cfa -64 + ^ x27: .cfa -72 + ^ x28: .cfa -80 + ^ .ra: .cfa -88 + ^ x29: .cfa -96 + ^
STACK CFI 81e4c .cfa: sp 208 +
STACK CFI 81e68 .cfa: sp 0 +
STACK CFI 81e6c .cfa: x29 96 +
STACK CFI INIT 81e70 1b8 .cfa: sp 0 +
STACK CFI INIT 3cce0 1a4 .cfa: sp 0 +
STACK CFI 3cce4 .cfa: sp 128 +
STACK CFI 3ccf4 .cfa: x29 48 + x19: .cfa -8 + ^ x20: .cfa -16 + ^ x21: .cfa -32 + ^ .ra: .cfa -40 + ^ x29: .cfa -48 + ^
STACK CFI 3ce00 .cfa: sp 128 +
STACK CFI 3ce10 .cfa: sp 0 +
STACK CFI 3ce14 .cfa: x29 48 +
STACK CFI INIT 3d02c ac .cfa: sp 0 +
STACK CFI 3d030 .cfa: sp 48 +
STACK CFI 3d03c .cfa: x29 48 + x19: .cfa -8 + ^ x20: .cfa -16 + ^ x21: .cfa -32 + ^ .ra: .cfa -40 + ^ x29: .cfa -48 + ^
STACK CFI 3d07c .cfa: sp 48 +
STACK CFI 3d088 .cfa: sp 0 +
STACK CFI 3d08c .cfa: x29 48 +
STACK CFI INIT 3d520 510 .cfa: sp 0 +
STACK CFI 3d524 .cfa: sp 96 +
STACK CFI 3d53c .cfa: x29 96 + x19: .cfa -8 + ^ x20: .cfa -16 + ^ x21: .cfa -24 + ^ x22: .cfa -32 + ^ x23: .cfa -40 + ^ x24: .cfa -48 + ^ x25: .cfa -56 + ^ x26: .cfa -64 + ^ x28: .cfa -80 + ^ .ra: .cfa -88 + ^ x29: .cfa -96 + ^
STACK CFI 3d9a4 .cfa: sp 96 +
STACK CFI 3d9bc .cfa: sp 0 +
STACK CFI 3d9c0 .cfa: x29 96 +
STACK CFI INIT 3da30 12c .cfa: sp 0 +
STACK CFI 3da34 .cfa: sp 80 +
STACK CFI 3da44 .cfa: x29 48 + x19: .cfa -8 + ^ x20: .cfa -16 + ^ x21: .cfa -24 + ^ x22: .cfa -32 + ^ .ra: .cfa -40 + ^ x29: .cfa -48 + ^
STACK CFI 3db40 .cfa: sp 80 +
STACK CFI 3db50 .cfa: sp 0 +
STACK CFI 3db54 .cfa: x29 48 +
STACK CFI INIT 3db5c 120 .cfa: sp 0 +
STACK CFI 3db60 .cfa: sp 80 +
STACK CFI 3db70 .cfa: x29 48 + x19: .cfa -8 + ^ x20: .cfa -16 + ^ x21: .cfa -24 + ^ x22: .cfa -32 + ^ .ra: .cfa -40 + ^ x29: .cfa -48 + ^
STACK CFI 3dc60 .cfa: sp 80 +
STACK CFI 3dc70 .cfa: sp 0 +
STACK CFI 3dc74 .cfa: x29 48 +
STACK CFI INIT 3dc7c 5c4 .cfa: sp 0 +
STACK CFI 3dc80 .cfa: sp 272 +
STACK CFI 3dca0 .cfa: x29 72 + x19: .cfa -8 + ^ x20: .cfa -16 + ^ x21: .cfa -24 + ^ x22: .cfa -32 + ^ x23: .cfa -40 + ^ x24: .cfa -48 + ^ x28: .cfa -56 + ^ .ra: .cfa -64 + ^ x29: .cfa -72 + ^ v8: .cfa -80 + ^ v9: .cfa -88 + ^ v10: .cfa -96 + ^
STACK CFI 3e198 .cfa: sp 272 +
STACK CFI 3e1b8 .cfa: sp 0 +
STACK CFI 3e1bc .cfa: x29 72 +
STACK CFI INIT 3e240 22c .cfa: sp 0 +
STACK CFI 3e244 .cfa: sp 112 +
STACK CFI 3e25c .cfa: x29 48 + x19: .cfa -8 + ^ x20: .cfa -16 + ^ x21: .cfa -24 + ^ x22: .cfa -32 + ^ .ra: .cfa -40 + ^ x29: .cfa -48 + ^ v8: .cfa -56 + ^ v9: .cfa -64 + ^ v10: .cfa -80 + ^
STACK CFI 3e41c .cfa: sp 112 +
STACK CFI 3e434 .cfa: sp 0 +
STACK CFI 3e438 .cfa: x29 48 +
STACK CFI INIT 3e46c 118 .cfa: sp 0 +
STACK CFI 3e470 .cfa: sp 80 +
STACK CFI 3e480 .cfa: x29 32 + x19: .cfa -8 + ^ x20: .cfa -16 + ^ .ra: .cfa -24 + ^ x29: .cfa -32 + ^ v8: .cfa -40 + ^ v9: .cfa -48 + ^
STACK CFI 3e548 .cfa: sp 80 +
STACK CFI 3e558 .cfa: sp 0 +
STACK CFI 3e55c .cfa: x29 32 +
STACK CFI INIT 3e7f0 100 .cfa: sp 0 +
STACK CFI 3e7f4 .cfa: sp 64 +
STACK CFI 3e804 .cfa: x29 48 + x19: .cfa -8 + ^ x20: .cfa -16 + ^ x21: .cfa -24 + ^ x22: .cfa -32 + ^ .ra: .cfa -40 + ^ x29: .cfa -48 + ^
STACK CFI 3e8b0 .cfa: sp 64 +
STACK CFI 3e8c0 .cfa: sp 0 +
STACK CFI 3e8c4 .cfa: x29 48 +
STACK CFI INIT 3e8f0 574 .cfa: sp 0 +
STACK CFI 3e8f4 .cfa: sp 192 +
STACK CFI 3e910 .cfa: x29 96 + x19: .cfa -8 + ^ x20: .cfa -16 + ^ x21: .cfa -24 + ^ x22: .cfa -32 + ^ x23: .cfa -40 + ^ x24: .cfa -48 + ^ x25: .cfa -56 + ^ x26: .cfa -64 + ^ x27: .cfa -72 + ^ x28: .cfa -80 + ^ .ra: .cfa -88 + ^ x29: .cfa -96 + ^
STACK CFI 3edd8 .cfa: sp 192 +
STACK CFI 3edf4 .cfa: sp 0 +
STACK CFI 3edf8 .cfa: x29 96 +
STACK CFI INIT 3eeb4 20 .cfa: sp 0 +
STACK CFI 3eeb8 .cfa: sp 16 +
STACK CFI 3eebc .cfa: x29 16 + .ra: .cfa -8 + ^ x29: .cfa -16 + ^
STACK CFI 3eec8 .cfa: sp 16 +
STACK CFI 3eecc .cfa: sp 0 +
STACK CFI 3eed0 .cfa: x29 16 +
STACK CFI INIT 3ef50 140 .cfa: sp 0 +
STACK CFI 3ef54 .cfa: sp 80 +
STACK CFI 3ef60 .cfa: x29 32 + x19: .cfa -8 + ^ x20: .cfa -16 + ^ .ra: .cfa -24 + ^ x29: .cfa -32 + ^
STACK CFI 3f058 .cfa: sp 80 +
STACK CFI 3f064 .cfa: sp 0 +
STACK CFI 3f068 .cfa: x29 32 +
STACK CFI INIT 3f090 f4 .cfa: sp 0 +
STACK CFI 3f094 .cfa: sp 48 +
STACK CFI 3f0a0 .cfa: x29 48 + x19: .cfa -8 + ^ x20: .cfa -16 + ^ x21: .cfa -32 + ^ .ra: .cfa -40 + ^ x29: .cfa -48 + ^
STACK CFI 3f16c .cfa: sp 48 +
STACK CFI 3f178 .cfa: sp 0 +
STACK CFI 3f17c .cfa: x29 48 +
STACK CFI INIT 3f208 134 .cfa: sp 0 +
STACK CFI 3f20c .cfa: sp 96 +
STACK CFI 3f21c .cfa: x29 48 + x19: .cfa -8 + ^ x20: .cfa -16 + ^ x21: .cfa -32 + ^ .ra: .cfa -40 + ^ x29: .cfa -48 + ^
STACK CFI 3f2f0 .cfa: sp 96 +
STACK CFI 3f300 .cfa: sp 0 +
STACK CFI 3f304 .cfa: x29 48 +
STACK CFI INIT 3f3b4 50 .cfa: sp 0 +
STACK CFI 3f3b8 .cfa: sp 32 +
STACK CFI 3f3c0 .cfa: x29 32 + x19: .cfa -8 + ^ x20: .cfa -16 + ^ .ra: .cfa -24 + ^ x29: .cfa -32 + ^
STACK CFI INIT 3f468 1ac .cfa: sp 0 +
STACK CFI 3f46c .cfa: sp 80 +
STACK CFI 3f480 .cfa: x29 80 + x19: .cfa -8 + ^ x20: .cfa -16 + ^ x21: .cfa -24 + ^ x22: .cfa -32 + ^ x23: .cfa -40 + ^ x24: .cfa -48 + ^ x25: .cfa -56 + ^ x26: .cfa -64 + ^ .ra: .cfa -72 + ^ x29: .cfa -80 + ^
STACK CFI 3f5ec .cfa: sp 80 +
STACK CFI 3f600 .cfa: sp 0 +
STACK CFI 3f604 .cfa: x29 80 +
STACK CFI INIT 3f628 6c .cfa: sp 0 +
STACK CFI 3f62c .cfa: sp 32 +
STACK CFI 3f634 .cfa: x29 32 + x19: .cfa -16 + ^ .ra: .cfa -24 + ^ x29: .cfa -32 + ^
STACK CFI 3f684 .cfa: sp 32 +
STACK CFI 3f68c .cfa: sp 0 +
STACK CFI 3f690 .cfa: x29 32 +
STACK CFI INIT 3f698 6c .cfa: sp 0 +
STACK CFI 3f69c .cfa: sp 32 +
STACK CFI 3f6a4 .cfa: x29 32 + x19: .cfa -16 + ^ .ra: .cfa -24 + ^ x29: .cfa -32 + ^
STACK CFI 3f6f4 .cfa: sp 32 +
STACK CFI 3f6fc .cfa: sp 0 +
STACK CFI 3f700 .cfa: x29 32 +
STACK CFI INIT 3fb24 100 .cfa: sp 0 +
STACK CFI 3fb28 .cfa: sp 64 +
STACK CFI 3fb38 .cfa: x29 48 + x19: .cfa -8 + ^ x20: .cfa -16 + ^ x21: .cfa -24 + ^ x22: .cfa -32 + ^ .ra: .cfa -40 + ^ x29: .cfa -48 + ^
STACK CFI 3fbe4 .cfa: sp 64 +
STACK CFI 3fbf4 .cfa: sp 0 +
STACK CFI 3fbf8 .cfa: x29 48 +
STACK CFI INIT 3fcd8 f9c .cfa: sp 0 +
STACK CFI 3fcdc .cfa: sp 432 +
STACK CFI 3fcfc .cfa: x29 96 + x19: .cfa -8 + ^ x20: .cfa -16 + ^ x21: .cfa -24 + ^ x22: .cfa -32 + ^ x23: .cfa -40 + ^ x24: .cfa -48 + ^ x25: .cfa -56 + ^ x26: .cfa -64 + ^ x27: .cfa -72 + ^ x28: .cfa -80 + ^ .ra: .cfa -88 + ^ x29: .cfa -96 + ^ v8: .cfa -112 + ^
STACK CFI 40b44 .cfa: sp 432 +
STACK CFI 40b64 .cfa: sp 0 +
STACK CFI 40b68 .cfa: x29 96 +
STACK CFI INIT 40c74 1e10 .cfa: sp 0 +
STACK CFI 40c78 .cfa: sp 96 +
STACK CFI 40c90 .cfa: x29 96 + x19: .cfa -8 + ^ x20: .cfa -16 + ^ x21: .cfa -24 + ^ x22: .cfa -32 + ^ x23: .cfa -40 + ^ x24: .cfa -48 + ^ x25: .cfa -56 + ^ x26: .cfa -64 + ^ x27: .cfa -72 + ^ x28: .cfa -80 + ^ .ra: .cfa -88 + ^ x29: .cfa -96 + ^
STACK CFI 42878 .cfa: sp 96 +
STACK CFI 42890 .cfa: sp 0 +
STACK CFI 42894 .cfa: x29 96 +
STACK CFI INIT 42b34 168 .cfa: sp 0 +
STACK CFI 42b38 .cfa: sp 112 +
STACK CFI 42b4c .cfa: x29 64 + x19: .cfa -8 + ^ x20: .cfa -16 + ^ x21: .cfa -24 + ^ x22: .cfa -32 + ^ x23: .cfa -48 + ^ .ra: .cfa -56 + ^ x29: .cfa -64 + ^
STACK CFI 42c5c .cfa: sp 112 +
STACK CFI 42c70 .cfa: sp 0 +
STACK CFI 42c74 .cfa: x29 64 +
STACK CFI INIT 42c9c f4 .cfa: sp 0 +
STACK CFI 42ca0 .cfa: sp 48 +
STACK CFI 42cac .cfa: x29 48 + x19: .cfa -8 + ^ x20: .cfa -16 + ^ x21: .cfa -32 + ^ .ra: .cfa -40 + ^ x29: .cfa -48 + ^
STACK CFI 42d78 .cfa: sp 48 +
STACK CFI 42d84 .cfa: sp 0 +
STACK CFI 42d88 .cfa: x29 48 +
STACK CFI INIT 42e08 134 .cfa: sp 0 +
STACK CFI 42e0c .cfa: sp 96 +
STACK CFI 42e1c .cfa: x29 48 + x19: .cfa -8 + ^ x20: .cfa -16 + ^ x21: .cfa -32 + ^ .ra: .cfa -40 + ^ x29: .cfa -48 + ^
STACK CFI 42ef0 .cfa: sp 96 +
STACK CFI 42f00 .cfa: sp 0 +
STACK CFI 42f04 .cfa: x29 48 +
STACK CFI INIT 4308c 174 .cfa: sp 0 +
STACK CFI 43090 .cfa: sp 64 +
STACK CFI 430a0 .cfa: x29 64 + x19: .cfa -8 + ^ x20: .cfa -16 + ^ x21: .cfa -24 + ^ x22: .cfa -32 + ^ x23: .cfa -48 + ^ .ra: .cfa -56 + ^ x29: .cfa -64 + ^
STACK CFI 431c0 .cfa: sp 64 +
STACK CFI 431d0 .cfa: sp 0 +
STACK CFI 431d4 .cfa: x29 64 +
STACK CFI INIT 43200 164 .cfa: sp 0 +
STACK CFI 43204 .cfa: sp 64 +
STACK CFI 43214 .cfa: x29 48 + x19: .cfa -8 + ^ x20: .cfa -16 + ^ x21: .cfa -24 + ^ x22: .cfa -32 + ^ .ra: .cfa -40 + ^ x29: .cfa -48 + ^
STACK CFI 43280 .cfa: sp 64 +
STACK CFI 43290 .cfa: sp 0 +
STACK CFI 43294 .cfa: x29 48 +
STACK CFI INIT 43ea0 4c0 .cfa: sp 0 +
STACK CFI 43ea4 .cfa: sp 128 +
STACK CFI 43ec0 .cfa: x29 96 + x19: .cfa -8 + ^ x20: .cfa -16 + ^ x21: .cfa -24 + ^ x22: .cfa -32 + ^ x23: .cfa -40 + ^ x24: .cfa -48 + ^ x25: .cfa -56 + ^ x26: .cfa -64 + ^ x27: .cfa -72 + ^ x28: .cfa -80 + ^ .ra: .cfa -88 + ^ x29: .cfa -96 + ^
STACK CFI 44310 .cfa: sp 128 +
STACK CFI 4432c .cfa: sp 0 +
STACK CFI 44330 .cfa: x29 96 +
STACK CFI INIT 443b0 260 .cfa: sp 0 +
STACK CFI 443b4 .cfa: sp 80 +
STACK CFI 443c8 .cfa: x29 80 + x19: .cfa -8 + ^ x20: .cfa -16 + ^ x21: .cfa -24 + ^ x22: .cfa -32 + ^ x23: .cfa -40 + ^ x24: .cfa -48 + ^ x25: .cfa -64 + ^ .ra: .cfa -72 + ^ x29: .cfa -80 + ^
STACK CFI 445cc .cfa: sp 80 +
STACK CFI 445e0 .cfa: sp 0 +
STACK CFI 445e4 .cfa: x29 80 +
STACK CFI INIT 44a28 3bc .cfa: sp 0 +
STACK CFI 44a2c .cfa: sp 112 +
STACK CFI 44a44 .cfa: x29 80 + x19: .cfa -8 + ^ x20: .cfa -16 + ^ x21: .cfa -24 + ^ x22: .cfa -32 + ^ x23: .cfa -40 + ^ x24: .cfa -48 + ^ x25: .cfa -64 + ^ .ra: .cfa -72 + ^ x29: .cfa -80 + ^
STACK CFI 44d9c .cfa: sp 112 +
STACK CFI 44db4 .cfa: sp 0 +
STACK CFI 44db8 .cfa: x29 80 +
STACK CFI INIT 44ec8 6c .cfa: sp 0 +
STACK CFI 44ecc .cfa: sp 32 +
STACK CFI 44ed4 .cfa: x29 32 + x19: .cfa -16 + ^ .ra: .cfa -24 + ^ x29: .cfa -32 + ^
STACK CFI 44f24 .cfa: sp 32 +
STACK CFI 44f2c .cfa: sp 0 +
STACK CFI 44f30 .cfa: x29 32 +
STACK CFI INIT 44f38 6c .cfa: sp 0 +
STACK CFI 44f3c .cfa: sp 32 +
STACK CFI 44f44 .cfa: x29 32 + x19: .cfa -16 + ^ .ra: .cfa -24 + ^ x29: .cfa -32 + ^
STACK CFI 44f94 .cfa: sp 32 +
STACK CFI 44f9c .cfa: sp 0 +
STACK CFI 44fa0 .cfa: x29 32 +
STACK CFI INIT 4546c 974 .cfa: sp 0 +
STACK CFI 45470 .cfa: sp 256 +
STACK CFI 4548c .cfa: x29 64 + x19: .cfa -8 + ^ x20: .cfa -16 + ^ x21: .cfa -24 + ^ x22: .cfa -32 + ^ x23: .cfa -40 + ^ x24: .cfa -48 + ^ .ra: .cfa -56 + ^ x29: .cfa -64 + ^ v8: .cfa -72 + ^ v9: .cfa -80 + ^ v10: .cfa -96 + ^
STACK CFI 45cfc .cfa: sp 256 +
STACK CFI 45d18 .cfa: sp 0 +
STACK CFI 45d1c .cfa: x29 64 +
STACK CFI INIT 46078 8a8 .cfa: sp 0 +
STACK CFI 4607c .cfa: sp 464 +
STACK CFI 46098 .cfa: x29 96 + x19: .cfa -8 + ^ x20: .cfa -16 + ^ x21: .cfa -24 + ^ x22: .cfa -32 + ^ x23: .cfa -40 + ^ x24: .cfa -48 + ^ x25: .cfa -56 + ^ x26: .cfa -64 + ^ x27: .cfa -72 + ^ x28: .cfa -80 + ^ .ra: .cfa -88 + ^ x29: .cfa -96 + ^
STACK CFI 46784 .cfa: sp 464 +
STACK CFI 467a0 .cfa: sp 0 +
STACK CFI 467a4 .cfa: x29 96 +
STACK CFI INIT 46970 110 .cfa: sp 0 +
STACK CFI 46974 .cfa: sp 96 +
STACK CFI 46984 .cfa: x29 48 + x19: .cfa -8 + ^ x20: .cfa -16 + ^ x21: .cfa -32 + ^ .ra: .cfa -40 + ^ x29: .cfa -48 + ^
STACK CFI 46a44 .cfa: sp 96 +
STACK CFI 46a54 .cfa: sp 0 +
STACK CFI 46a58 .cfa: x29 48 +
STACK CFI INIT 46a80 14c .cfa: sp 0 +
STACK CFI 46a84 .cfa: sp 80 +
STACK CFI 46a94 .cfa: x29 48 + x19: .cfa -8 + ^ x20: .cfa -16 + ^ x21: .cfa -24 + ^ x22: .cfa -32 + ^ .ra: .cfa -40 + ^ x29: .cfa -48 + ^
STACK CFI 46b44 .cfa: sp 80 +
STACK CFI 46b54 .cfa: sp 0 +
STACK CFI 46b58 .cfa: x29 48 +
STACK CFI INIT 46bcc 13c .cfa: sp 0 +
STACK CFI 46bd0 .cfa: sp 32 +
STACK CFI 46bd8 .cfa: x29 32 + x19: .cfa -8 + ^ x20: .cfa -16 + ^ .ra: .cfa -24 + ^ x29: .cfa -32 + ^
STACK CFI 46cf4 .cfa: sp 32 +
STACK CFI 46cfc .cfa: sp 0 +
STACK CFI 46d00 .cfa: x29 32 +
STACK CFI INIT 46d80 134 .cfa: sp 0 +
STACK CFI 46d84 .cfa: sp 96 +
STACK CFI 46d94 .cfa: x29 48 + x19: .cfa -8 + ^ x20: .cfa -16 + ^ x21: .cfa -32 + ^ .ra: .cfa -40 + ^ x29: .cfa -48 + ^
STACK CFI 46e68 .cfa: sp 96 +
STACK CFI 46e78 .cfa: sp 0 +
STACK CFI 46e7c .cfa: x29 48 +
STACK CFI INIT 46f1c 50 .cfa: sp 0 +
STACK CFI 46f20 .cfa: sp 32 +
STACK CFI 46f28 .cfa: x29 32 + x19: .cfa -8 + ^ x20: .cfa -16 + ^ .ra: .cfa -24 + ^ x29: .cfa -32 + ^
STACK CFI INIT 46f9c 6c .cfa: sp 0 +
STACK CFI 46fa0 .cfa: sp 32 +
STACK CFI 46fa8 .cfa: x29 32 + x19: .cfa -16 + ^ .ra: .cfa -24 + ^ x29: .cfa -32 + ^
STACK CFI 46ff8 .cfa: sp 32 +
STACK CFI 47000 .cfa: sp 0 +
STACK CFI 47004 .cfa: x29 32 +
STACK CFI INIT 4700c 6c .cfa: sp 0 +
STACK CFI 47010 .cfa: sp 32 +
STACK CFI 47018 .cfa: x29 32 + x19: .cfa -16 + ^ .ra: .cfa -24 + ^ x29: .cfa -32 + ^
STACK CFI 47068 .cfa: sp 32 +
STACK CFI 47070 .cfa: sp 0 +
STACK CFI 47074 .cfa: x29 32 +
STACK CFI INIT 4707c 204 .cfa: sp 0 +
STACK CFI 47080 .cfa: sp 128 +
STACK CFI 47094 .cfa: x29 64 + x19: .cfa -8 + ^ x20: .cfa -16 + ^ x21: .cfa -24 + ^ x22: .cfa -32 + ^ x23: .cfa -40 + ^ x24: .cfa -48 + ^ .ra: .cfa -56 + ^ x29: .cfa -64 + ^
STACK CFI 471b8 .cfa: sp 128 +
STACK CFI 471cc .cfa: sp 0 +
STACK CFI 471d0 .cfa: x29 64 +
STACK CFI INIT 47284 1cc .cfa: sp 0 +
STACK CFI 47288 .cfa: sp 128 +
STACK CFI 47298 .cfa: x29 48 + x19: .cfa -8 + ^ x20: .cfa -16 + ^ x21: .cfa -32 + ^ .ra: .cfa -40 + ^ x29: .cfa -48 + ^
STACK CFI 473d4 .cfa: sp 128 +
STACK CFI 473e4 .cfa: sp 0 +
STACK CFI 473e8 .cfa: x29 48 +
STACK CFI INIT 4784c 198 .cfa: sp 0 +
STACK CFI 47850 .cfa: sp 128 +
STACK CFI 47864 .cfa: x29 64 + x19: .cfa -8 + ^ x20: .cfa -16 + ^ x21: .cfa -24 + ^ x22: .cfa -32 + ^ x23: .cfa -48 + ^ .ra: .cfa -56 + ^ x29: .cfa -64 + ^
STACK CFI 479a4 .cfa: sp 128 +
STACK CFI 479b8 .cfa: sp 0 +
STACK CFI 479bc .cfa: x29 64 +
STACK CFI INIT 47cf8 188 .cfa: sp 0 +
STACK CFI 47cfc .cfa: sp 112 +
STACK CFI 47d0c .cfa: x29 48 + x19: .cfa -8 + ^ x20: .cfa -16 + ^ x21: .cfa -24 + ^ x22: .cfa -32 + ^ .ra: .cfa -40 + ^ x29: .cfa -48 + ^
STACK CFI 47e44 .cfa: sp 112 +
STACK CFI 47e54 .cfa: sp 0 +
STACK CFI 47e58 .cfa: x29 48 +
STACK CFI INIT 47f00 2e8 .cfa: sp 0 +
STACK CFI 47f04 .cfa: sp 192 +
STACK CFI 47f20 .cfa: x29 64 + x19: .cfa -8 + ^ x20: .cfa -16 + ^ x21: .cfa -24 + ^ x22: .cfa -32 + ^ x23: .cfa -40 + ^ x24: .cfa -48 + ^ .ra: .cfa -56 + ^ x29: .cfa -64 + ^ v8: .cfa -72 + ^ v9: .cfa -80 + ^ v10: .cfa -96 + ^
STACK CFI 480fc .cfa: sp 192 +
STACK CFI 48118 .cfa: sp 0 +
STACK CFI 4811c .cfa: x29 64 +
STACK CFI INIT 48224 1b0 .cfa: sp 0 +
STACK CFI 48228 .cfa: sp 128 +
STACK CFI 48238 .cfa: x29 48 + x19: .cfa -8 + ^ x20: .cfa -16 + ^ x21: .cfa -24 + ^ x22: .cfa -32 + ^ .ra: .cfa -40 + ^ x29: .cfa -48 + ^
STACK CFI 48350 .cfa: sp 128 +
STACK CFI 48360 .cfa: sp 0 +
STACK CFI 48364 .cfa: x29 48 +
STACK CFI INIT 484c8 158 .cfa: sp 0 +
STACK CFI 484cc .cfa: sp 96 +
STACK CFI 484e4 .cfa: x29 48 + x19: .cfa -8 + ^ x20: .cfa -16 + ^ x21: .cfa -24 + ^ x22: .cfa -32 + ^ .ra: .cfa -40 + ^ x29: .cfa -48 + ^ v8: .cfa -56 + ^ v9: .cfa -64 + ^ v10: .cfa -80 + ^
STACK CFI 485dc .cfa: sp 96 +
STACK CFI 485f4 .cfa: sp 0 +
STACK CFI 485f8 .cfa: x29 48 +
STACK CFI INIT 48ac4 1b4 .cfa: sp 0 +
STACK CFI 48ac8 .cfa: sp 48 +
STACK CFI 48ad4 .cfa: x29 48 + x19: .cfa -8 + ^ x20: .cfa -16 + ^ x21: .cfa -32 + ^ .ra: .cfa -40 + ^ x29: .cfa -48 + ^
STACK CFI 48c40 .cfa: sp 48 +
STACK CFI 48c4c .cfa: sp 0 +
STACK CFI 48c50 .cfa: x29 48 +
STACK CFI INIT 48c94 e4 .cfa: sp 0 +
STACK CFI 48c98 .cfa: sp 64 +
STACK CFI 48ca8 .cfa: x29 48 + x19: .cfa -8 + ^ x20: .cfa -16 + ^ x21: .cfa -24 + ^ x22: .cfa -32 + ^ .ra: .cfa -40 + ^ x29: .cfa -48 + ^
STACK CFI 48d3c .cfa: sp 64 +
STACK CFI 48d4c .cfa: sp 0 +
STACK CFI 48d50 .cfa: x29 48 +
STACK CFI INIT 48d78 3c10 .cfa: sp 0 +
STACK CFI 48d7c .cfa: sp 128 +
STACK CFI 48d9c .cfa: x29 96 + x19: .cfa -8 + ^ x20: .cfa -16 + ^ x21: .cfa -24 + ^ x22: .cfa -32 + ^ x23: .cfa -40 + ^ x24: .cfa -48 + ^ x25: .cfa -56 + ^ x26: .cfa -64 + ^ x27: .cfa -72 + ^ x28: .cfa -80 + ^ .ra: .cfa -88 + ^ x29: .cfa -96 + ^ v8: .cfa -104 + ^ v9: .cfa -112 + ^ v10: .cfa -128 + ^
STACK CFI 4b244 .cfa: sp 128 +
STACK CFI 4b264 .cfa: sp 0 +
STACK CFI 4b268 .cfa: x29 96 +
STACK CFI INIT 4ca38 188 .cfa: sp 0 +
STACK CFI 4ca3c .cfa: sp 160 +
STACK CFI 4ca4c .cfa: x29 48 + x19: .cfa -8 + ^ x20: .cfa -16 + ^ x21: .cfa -32 + ^ .ra: .cfa -40 + ^ x29: .cfa -48 + ^
STACK CFI 4cb60 .cfa: sp 160 +
STACK CFI 4cb70 .cfa: sp 0 +
STACK CFI 4cb74 .cfa: x29 48 +
STACK CFI INIT 4cbc0 1c .cfa: sp 0 +
STACK CFI 4cbc4 .cfa: sp 16 +
STACK CFI 4cbc8 .cfa: x29 16 + .ra: .cfa -8 + ^ x29: .cfa -16 + ^
STACK CFI 4cbd0 .cfa: sp 16 +
STACK CFI 4cbd4 .cfa: sp 0 +
STACK CFI 4cbd8 .cfa: x29 16 +
STACK CFI INIT 4cc4c 36c .cfa: sp 0 +
STACK CFI 4cc50 .cfa: sp 160 +
STACK CFI 4cc6c .cfa: x29 96 + x19: .cfa -8 + ^ x20: .cfa -16 + ^ x21: .cfa -24 + ^ x22: .cfa -32 + ^ x23: .cfa -40 + ^ x24: .cfa -48 + ^ x25: .cfa -56 + ^ x26: .cfa -64 + ^ x27: .cfa -72 + ^ x28: .cfa -80 + ^ .ra: .cfa -88 + ^ x29: .cfa -96 + ^
STACK CFI 4cea8 .cfa: sp 160 +
STACK CFI 4cec4 .cfa: sp 0 +
STACK CFI 4cec8 .cfa: x29 96 +
STACK CFI INIT 4cfb8 fc .cfa: sp 0 +
STACK CFI 4cfbc .cfa: sp 80 +
STACK CFI 4cfcc .cfa: x29 48 + x19: .cfa -8 + ^ x20: .cfa -16 + ^ x21: .cfa -24 + ^ x22: .cfa -32 + ^ .ra: .cfa -40 + ^ x29: .cfa -48 + ^
STACK CFI 4cff8 .cfa: sp 80 +
STACK CFI 4d008 .cfa: sp 0 +
STACK CFI 4d00c .cfa: x29 48 +
STACK CFI INIT 4d0b4 2cc .cfa: sp 0 +
STACK CFI 4d0b8 .cfa: sp 144 +
STACK CFI 4d0d0 .cfa: x29 80 + x19: .cfa -8 + ^ x20: .cfa -16 + ^ x21: .cfa -24 + ^ x22: .cfa -32 + ^ x23: .cfa -40 + ^ x24: .cfa -48 + ^ x25: .cfa -56 + ^ x26: .cfa -64 + ^ .ra: .cfa -72 + ^ x29: .cfa -80 + ^
STACK CFI 4d288 .cfa: sp 144 +
STACK CFI 4d2a0 .cfa: sp 0 +
STACK CFI 4d2a4 .cfa: x29 80 +
STACK CFI INIT 4d5fc 1c .cfa: sp 0 +
STACK CFI 4d600 .cfa: sp 16 +
STACK CFI 4d604 .cfa: x29 16 + .ra: .cfa -8 + ^ x29: .cfa -16 + ^
STACK CFI 4d60c .cfa: sp 16 +
STACK CFI 4d610 .cfa: sp 0 +
STACK CFI 4d614 .cfa: x29 16 +
STACK CFI INIT 4d618 494 .cfa: sp 0 +
STACK CFI 4d61c .cfa: sp 144 +
STACK CFI 4d638 .cfa: x29 96 + x19: .cfa -8 + ^ x20: .cfa -16 + ^ x21: .cfa -24 + ^ x22: .cfa -32 + ^ x23: .cfa -40 + ^ x24: .cfa -48 + ^ x25: .cfa -56 + ^ x26: .cfa -64 + ^ x27: .cfa -80 + ^ .ra: .cfa -88 + ^ x29: .cfa -96 + ^
STACK CFI 4d680 .cfa: sp 144 +
STACK CFI 4d69c .cfa: sp 0 +
STACK CFI 4d6a0 .cfa: x29 96 +
STACK CFI 4da38 .cfa: sp 144 +
STACK CFI 4da54 .cfa: sp 0 +
STACK CFI 4da58 .cfa: x29 96 +
STACK CFI INIT 4daac d8 .cfa: sp 0 +
STACK CFI 4dab0 .cfa: sp 64 +
STACK CFI 4dac0 .cfa: x29 64 + x19: .cfa -8 + ^ x20: .cfa -16 + ^ x21: .cfa -24 + ^ x22: .cfa -32 + ^ x23: .cfa -40 + ^ x24: .cfa -48 + ^ .ra: .cfa -56 + ^ x29: .cfa -64 + ^
STACK CFI 4db54 .cfa: sp 64 +
STACK CFI 4db64 .cfa: sp 0 +
STACK CFI 4db68 .cfa: sp 64 +
STACK CFI 4db78 .cfa: sp 0 +
STACK CFI 4db7c .cfa: x29 64 +
STACK CFI INIT 4db84 64 .cfa: sp 0 +
STACK CFI 4db88 .cfa: sp 48 +
STACK CFI 4db94 .cfa: x29 48 + x19: .cfa -8 + ^ x20: .cfa -16 + ^ x21: .cfa -32 + ^ .ra: .cfa -40 + ^ x29: .cfa -48 + ^
STACK CFI 4dbc4 .cfa: sp 48 +
STACK CFI 4dbd0 .cfa: sp 0 +
STACK CFI 4dbd4 .cfa: sp 48 +
STACK CFI 4dbe0 .cfa: sp 0 +
STACK CFI 4dbe4 .cfa: x29 48 +
STACK CFI INIT 4dbfc 58 .cfa: sp 0 +
STACK CFI 4dc00 .cfa: sp 32 +
STACK CFI 4dc08 .cfa: x29 32 + x19: .cfa -8 + ^ x20: .cfa -16 + ^ .ra: .cfa -24 + ^ x29: .cfa -32 + ^
STACK CFI 4dc38 .cfa: sp 32 +
STACK CFI 4dc40 .cfa: sp 0 +
STACK CFI 4dc44 .cfa: sp 32 +
STACK CFI 4dc4c .cfa: sp 0 +
STACK CFI 4dc50 .cfa: x29 32 +
STACK CFI INIT 4dc54 48 .cfa: sp 0 +
STACK CFI 4dc58 .cfa: sp 32 +
STACK CFI 4dc60 .cfa: x29 32 + x19: .cfa -8 + ^ x20: .cfa -16 + ^ .ra: .cfa -24 + ^ x29: .cfa -32 + ^
STACK CFI 4dc68 .cfa: sp 32 +
STACK CFI 4dc70 .cfa: sp 0 +
STACK CFI 4dc74 .cfa: x29 32 +
STACK CFI INIT 4dc9c 124 .cfa: sp 0 +
STACK CFI 4dca0 .cfa: sp 80 +
STACK CFI 4dcb4 .cfa: x29 80 + x19: .cfa -8 + ^ x20: .cfa -16 + ^ x21: .cfa -24 + ^ x22: .cfa -32 + ^ x23: .cfa -40 + ^ x24: .cfa -48 + ^ x25: .cfa -64 + ^ .ra: .cfa -72 + ^ x29: .cfa -80 + ^
STACK CFI 4dd9c .cfa: sp 80 +
STACK CFI 4ddb0 .cfa: sp 0 +
STACK CFI 4ddb4 .cfa: x29 80 +
STACK CFI INIT 4ddc0 60 .cfa: sp 0 +
STACK CFI 4ddc4 .cfa: sp 32 +
STACK CFI 4ddcc .cfa: x29 32 + x19: .cfa -16 + ^ .ra: .cfa -24 + ^ x29: .cfa -32 + ^
STACK CFI 4de04 .cfa: sp 32 +
STACK CFI 4de0c .cfa: sp 0 +
STACK CFI 4de10 .cfa: sp 32 +
STACK CFI 4de18 .cfa: sp 0 +
STACK CFI 4de1c .cfa: x29 32 +
STACK CFI INIT 4de20 74 .cfa: sp 0 +
STACK CFI 4de24 .cfa: sp 48 +
STACK CFI 4de30 .cfa: x29 32 + x19: .cfa -8 + ^ x20: .cfa -16 + ^ .ra: .cfa -24 + ^ x29: .cfa -32 + ^
STACK CFI 4de7c .cfa: sp 48 +
STACK CFI 4de88 .cfa: sp 0 +
STACK CFI 4de8c .cfa: x29 32 +
STACK CFI INIT 4e00c fc .cfa: sp 0 +
STACK CFI 4e010 .cfa: sp 48 +
STACK CFI 4e01c .cfa: x29 48 + x19: .cfa -8 + ^ x20: .cfa -16 + ^ x21: .cfa -24 + ^ x22: .cfa -32 + ^ .ra: .cfa -40 + ^ x29: .cfa -48 + ^
STACK CFI 4e0dc .cfa: sp 48 +
STACK CFI 4e0e8 .cfa: sp 0 +
STACK CFI 4e0ec .cfa: x29 48 +
STACK CFI INIT 4e108 fc .cfa: sp 0 +
STACK CFI 4e10c .cfa: sp 48 +
STACK CFI 4e118 .cfa: x29 48 + x19: .cfa -8 + ^ x20: .cfa -16 + ^ x21: .cfa -24 + ^ x22: .cfa -32 + ^ .ra: .cfa -40 + ^ x29: .cfa -48 + ^
STACK CFI 4e1d8 .cfa: sp 48 +
STACK CFI 4e1e4 .cfa: sp 0 +
STACK CFI 4e1e8 .cfa: x29 48 +
STACK CFI INIT 4e310 1638 .cfa: sp 0 +
STACK CFI 4e314 .cfa: sp 144 +
STACK CFI 4e330 .cfa: x29 96 + x19: .cfa -8 + ^ x20: .cfa -16 + ^ x21: .cfa -24 + ^ x22: .cfa -32 + ^ x23: .cfa -40 + ^ x24: .cfa -48 + ^ x25: .cfa -56 + ^ x26: .cfa -64 + ^ x27: .cfa -72 + ^ x28: .cfa -80 + ^ .ra: .cfa -88 + ^ x29: .cfa -96 + ^
STACK CFI 4e580 .cfa: sp 144 +
STACK CFI 4e59c .cfa: sp 0 +
STACK CFI 4e5a0 .cfa: x29 96 +
STACK CFI INIT 4fdf0 17d8 .cfa: sp 0 +
STACK CFI 4fdf4 .cfa: sp 288 +
STACK CFI 4fe10 .cfa: x29 96 + x19: .cfa -8 + ^ x20: .cfa -16 + ^ x21: .cfa -24 + ^ x22: .cfa -32 + ^ x23: .cfa -40 + ^ x24: .cfa -48 + ^ x25: .cfa -56 + ^ x26: .cfa -64 + ^ x27: .cfa -72 + ^ x28: .cfa -80 + ^ .ra: .cfa -88 + ^ x29: .cfa -96 + ^
STACK CFI 50df4 .cfa: sp 288 +
STACK CFI 50e10 .cfa: sp 0 +
STACK CFI 50e14 .cfa: x29 96 +
STACK CFI INIT 51618 e8 .cfa: sp 0 +
STACK CFI 5161c .cfa: sp 80 +
STACK CFI 5162c .cfa: x29 48 + x19: .cfa -8 + ^ x20: .cfa -16 + ^ x21: .cfa -24 + ^ x22: .cfa -32 + ^ .ra: .cfa -40 + ^ x29: .cfa -48 + ^
STACK CFI 516b8 .cfa: sp 80 +
STACK CFI 516c8 .cfa: sp 0 +
STACK CFI 516cc .cfa: x29 48 +
STACK CFI INIT 51700 468 .cfa: sp 0 +
STACK CFI 51704 .cfa: sp 208 +
STACK CFI 51714 .cfa: x29 48 + x19: .cfa -8 + ^ x20: .cfa -16 + ^ x21: .cfa -24 + ^ x22: .cfa -32 + ^ .ra: .cfa -40 + ^ x29: .cfa -48 + ^
STACK CFI 51a04 .cfa: sp 208 +
STACK CFI 51a14 .cfa: sp 0 +
STACK CFI 51a18 .cfa: x29 48 +
STACK CFI INIT 51b68 3ec .cfa: sp 0 +
STACK CFI 51b6c .cfa: sp 128 +
STACK CFI 51b80 .cfa: x29 64 + x19: .cfa -8 + ^ x20: .cfa -16 + ^ x21: .cfa -24 + ^ x22: .cfa -32 + ^ x23: .cfa -48 + ^ .ra: .cfa -56 + ^ x29: .cfa -64 + ^
STACK CFI 51eb4 .cfa: sp 128 +
STACK CFI 51ec8 .cfa: sp 0 +
STACK CFI 51ecc .cfa: x29 64 +
STACK CFI INIT 51f84 8c .cfa: sp 0 +
STACK CFI 51f88 .cfa: sp 32 +
STACK CFI 51f90 .cfa: x29 32 + x19: .cfa -16 + ^ .ra: .cfa -24 + ^ x29: .cfa -32 + ^
STACK CFI 51ff4 .cfa: sp 32 +
STACK CFI 51ffc .cfa: sp 0 +
STACK CFI 52000 .cfa: sp 32 +
STACK CFI 52008 .cfa: sp 0 +
STACK CFI 5200c .cfa: x29 32 +
STACK CFI INIT 52010 185c .cfa: sp 0 +
STACK CFI 52014 .cfa: sp 304 +
STACK CFI 52034 .cfa: x29 96 + x19: .cfa -8 + ^ x20: .cfa -16 + ^ x21: .cfa -24 + ^ x22: .cfa -32 + ^ x23: .cfa -40 + ^ x24: .cfa -48 + ^ x25: .cfa -56 + ^ x26: .cfa -64 + ^ x27: .cfa -72 + ^ x28: .cfa -80 + ^ .ra: .cfa -88 + ^ x29: .cfa -96 + ^ v8: .cfa -112 + ^
STACK CFI 530a4 .cfa: sp 304 +
STACK CFI 530c4 .cfa: sp 0 +
STACK CFI 530c8 .cfa: x29 96 +
STACK CFI INIT 539d0 544 .cfa: sp 0 +
STACK CFI 539d4 .cfa: sp 128 +
STACK CFI 539e8 .cfa: x29 64 + x19: .cfa -8 + ^ x20: .cfa -16 + ^ x21: .cfa -24 + ^ x22: .cfa -32 + ^ x23: .cfa -48 + ^ .ra: .cfa -56 + ^ x29: .cfa -64 + ^
STACK CFI 53d2c .cfa: sp 128 +
STACK CFI 53d40 .cfa: sp 0 +
STACK CFI 53d44 .cfa: x29 64 +
STACK CFI INIT 53f14 248 .cfa: sp 0 +
STACK CFI 53f18 .cfa: sp 96 +
STACK CFI 53f28 .cfa: x29 48 + x19: .cfa -8 + ^ x20: .cfa -16 + ^ x21: .cfa -24 + ^ x22: .cfa -32 + ^ .ra: .cfa -40 + ^ x29: .cfa -48 + ^
STACK CFI 540c0 .cfa: sp 96 +
STACK CFI 540d0 .cfa: sp 0 +
STACK CFI 540d4 .cfa: x29 48 +
STACK CFI INIT 5415c 18c .cfa: sp 0 +
STACK CFI 54160 .cfa: sp 80 +
STACK CFI 54170 .cfa: x29 48 + x19: .cfa -8 + ^ x20: .cfa -16 + ^ x21: .cfa -24 + ^ x22: .cfa -32 + ^ .ra: .cfa -40 + ^ x29: .cfa -48 + ^
STACK CFI 542b4 .cfa: sp 80 +
STACK CFI 542c4 .cfa: sp 0 +
STACK CFI 542c8 .cfa: x29 48 +
STACK CFI INIT 54338 1dc .cfa: sp 0 +
STACK CFI 5433c .cfa: sp 160 +
STACK CFI 5434c .cfa: x29 48 + x19: .cfa -8 + ^ x20: .cfa -16 + ^ x21: .cfa -32 + ^ .ra: .cfa -40 + ^ x29: .cfa -48 + ^
STACK CFI 54454 .cfa: sp 160 +
STACK CFI 54464 .cfa: sp 0 +
STACK CFI 54468 .cfa: x29 48 +
STACK CFI INIT 54514 ac .cfa: sp 0 +
STACK CFI 54518 .cfa: sp 48 +
STACK CFI 54524 .cfa: x29 48 + x19: .cfa -8 + ^ x20: .cfa -16 + ^ x21: .cfa -32 + ^ .ra: .cfa -40 + ^ x29: .cfa -48 + ^
STACK CFI 54594 .cfa: sp 48 +
STACK CFI 545a0 .cfa: sp 0 +
STACK CFI 545a4 .cfa: x29 48 +
STACK CFI INIT 545c0 1e4 .cfa: sp 0 +
STACK CFI 545c4 .cfa: sp 112 +
STACK CFI 545d4 .cfa: x29 48 + x19: .cfa -8 + ^ x20: .cfa -16 + ^ x21: .cfa -24 + ^ x22: .cfa -32 + ^ .ra: .cfa -40 + ^ x29: .cfa -48 + ^
STACK CFI 5475c .cfa: sp 112 +
STACK CFI 5476c .cfa: sp 0 +
STACK CFI 54770 .cfa: x29 48 +
STACK CFI INIT 547a4 124 .cfa: sp 0 +
STACK CFI 547a8 .cfa: sp 80 +
STACK CFI 547bc .cfa: x29 80 + x19: .cfa -8 + ^ x20: .cfa -16 + ^ x21: .cfa -24 + ^ x22: .cfa -32 + ^ x23: .cfa -40 + ^ x24: .cfa -48 + ^ x25: .cfa -64 + ^ .ra: .cfa -72 + ^ x29: .cfa -80 + ^
STACK CFI 548a4 .cfa: sp 80 +
STACK CFI 548b8 .cfa: sp 0 +
STACK CFI 548bc .cfa: x29 80 +
STACK CFI INIT 54914 574 .cfa: sp 0 +
STACK CFI 54918 .cfa: sp 192 +
STACK CFI 54934 .cfa: x29 96 + x19: .cfa -8 + ^ x20: .cfa -16 + ^ x21: .cfa -24 + ^ x22: .cfa -32 + ^ x23: .cfa -40 + ^ x24: .cfa -48 + ^ x25: .cfa -56 + ^ x26: .cfa -64 + ^ x27: .cfa -72 + ^ x28: .cfa -80 + ^ .ra: .cfa -88 + ^ x29: .cfa -96 + ^
STACK CFI 54d5c .cfa: sp 192 +
STACK CFI 54d78 .cfa: sp 0 +
STACK CFI 54d7c .cfa: x29 96 +
STACK CFI INIT 54e88 5c .cfa: sp 0 +
STACK CFI 54e8c .cfa: sp 32 +
STACK CFI 54e94 .cfa: x29 32 + x19: .cfa -16 + ^ .ra: .cfa -24 + ^ x29: .cfa -32 + ^
STACK CFI 54ec8 .cfa: sp 32 +
STACK CFI 54ed0 .cfa: sp 0 +
STACK CFI 54ed4 .cfa: sp 32 +
STACK CFI 54edc .cfa: sp 0 +
STACK CFI 54ee0 .cfa: x29 32 +
STACK CFI INIT 5508c 74 .cfa: sp 0 +
STACK CFI 55090 .cfa: sp 48 +
STACK CFI 5509c .cfa: x29 48 + x19: .cfa -8 + ^ x20: .cfa -16 + ^ x21: .cfa -24 + ^ x22: .cfa -32 + ^ .ra: .cfa -40 + ^ x29: .cfa -48 + ^
STACK CFI 550a4 .cfa: sp 48 +
STACK CFI 550b0 .cfa: sp 0 +
STACK CFI 550b4 .cfa: x29 48 +
STACK CFI 550ec .cfa: sp 48 +
STACK CFI 550f8 .cfa: sp 0 +
STACK CFI 550fc .cfa: x29 48 +
STACK CFI INIT 55100 1d0 .cfa: sp 0 +
STACK CFI 55104 .cfa: sp 160 +
STACK CFI 55114 .cfa: x29 48 + x19: .cfa -8 + ^ x20: .cfa -16 + ^ x21: .cfa -24 + ^ x22: .cfa -32 + ^ .ra: .cfa -40 + ^ x29: .cfa -48 + ^
STACK CFI 55210 .cfa: sp 160 +
STACK CFI 55220 .cfa: sp 0 +
STACK CFI 55224 .cfa: x29 48 +
STACK CFI INIT 55308 1d8 .cfa: sp 0 +
STACK CFI 5530c .cfa: sp 160 +
STACK CFI 5531c .cfa: x29 48 + x19: .cfa -8 + ^ x20: .cfa -16 + ^ x21: .cfa -24 + ^ x22: .cfa -32 + ^ .ra: .cfa -40 + ^ x29: .cfa -48 + ^
STACK CFI 55420 .cfa: sp 160 +
STACK CFI 55430 .cfa: sp 0 +
STACK CFI 55434 .cfa: x29 48 +
STACK CFI INIT 554e0 88 .cfa: sp 0 +
STACK CFI 554e4 .cfa: sp 32 +
STACK CFI 554ec .cfa: x29 32 + x19: .cfa -8 + ^ x20: .cfa -16 + ^ .ra: .cfa -24 + ^ x29: .cfa -32 + ^
STACK CFI 55540 .cfa: sp 32 +
STACK CFI 55548 .cfa: sp 0 +
STACK CFI 5554c .cfa: x29 32 +
STACK CFI INIT 55998 1d8 .cfa: sp 0 +
STACK CFI 5599c .cfa: sp 128 +
STACK CFI 559b8 .cfa: x29 96 + x19: .cfa -8 + ^ x20: .cfa -16 + ^ x21: .cfa -24 + ^ x22: .cfa -32 + ^ x23: .cfa -40 + ^ x24: .cfa -48 + ^ x25: .cfa -56 + ^ x26: .cfa -64 + ^ x27: .cfa -72 + ^ x28: .cfa -80 + ^ .ra: .cfa -88 + ^ x29: .cfa -96 + ^
STACK CFI 55b28 .cfa: sp 128 +
STACK CFI 55b44 .cfa: sp 0 +
STACK CFI 55b48 .cfa: x29 96 +
STACK CFI INIT 55bb8 1fc .cfa: sp 0 +
STACK CFI 55bbc .cfa: sp 96 +
STACK CFI 55bc8 .cfa: x29 32 + x19: .cfa -8 + ^ x20: .cfa -16 + ^ .ra: .cfa -24 + ^ x29: .cfa -32 + ^
STACK CFI 55d5c .cfa: sp 96 +
STACK CFI 55d68 .cfa: sp 0 +
STACK CFI 55d6c .cfa: x29 32 +
STACK CFI INIT 55f2c 29c .cfa: sp 0 +
STACK CFI 55f30 .cfa: sp 160 +
STACK CFI 55f48 .cfa: x29 80 + x19: .cfa -8 + ^ x20: .cfa -16 + ^ x21: .cfa -24 + ^ x22: .cfa -32 + ^ x23: .cfa -40 + ^ x24: .cfa -48 + ^ x25: .cfa -64 + ^ .ra: .cfa -72 + ^ x29: .cfa -80 + ^
STACK CFI 56144 .cfa: sp 160 +
STACK CFI 5615c .cfa: sp 0 +
STACK CFI 56160 .cfa: x29 80 +
STACK CFI INIT 561c8 240 .cfa: sp 0 +
STACK CFI 561cc .cfa: sp 128 +
STACK CFI 561e4 .cfa: x29 80 + x19: .cfa -8 + ^ x20: .cfa -16 + ^ x21: .cfa -24 + ^ x22: .cfa -32 + ^ x23: .cfa -40 + ^ x24: .cfa -48 + ^ x25: .cfa -56 + ^ x26: .cfa -64 + ^ .ra: .cfa -72 + ^ x29: .cfa -80 + ^
STACK CFI 562c0 .cfa: sp 128 +
STACK CFI 562d8 .cfa: sp 0 +
STACK CFI 562dc .cfa: x29 80 +
STACK CFI INIT 56570 88 .cfa: sp 0 +
STACK CFI 56574 .cfa: sp 32 +
STACK CFI 5657c .cfa: x29 32 + x19: .cfa -8 + ^ x20: .cfa -16 + ^ .ra: .cfa -24 + ^ x29: .cfa -32 + ^
STACK CFI 565d0 .cfa: sp 32 +
STACK CFI 565d8 .cfa: sp 0 +
STACK CFI 565dc .cfa: x29 32 +
STACK CFI INIT 56680 138 .cfa: sp 0 +
STACK CFI 56684 .cfa: sp 80 +
STACK CFI 56694 .cfa: x29 48 + x19: .cfa -8 + ^ x20: .cfa -16 + ^ x21: .cfa -24 + ^ x22: .cfa -32 + ^ .ra: .cfa -40 + ^ x29: .cfa -48 + ^
STACK CFI 566fc .cfa: sp 80 +
STACK CFI 5670c .cfa: sp 0 +
STACK CFI 56710 .cfa: x29 48 +
STACK CFI INIT 567b8 1d0 .cfa: sp 0 +
STACK CFI 567bc .cfa: sp 160 +
STACK CFI 567cc .cfa: x29 48 + x19: .cfa -8 + ^ x20: .cfa -16 + ^ x21: .cfa -24 + ^ x22: .cfa -32 + ^ .ra: .cfa -40 + ^ x29: .cfa -48 + ^
STACK CFI 568c8 .cfa: sp 160 +
STACK CFI 568d8 .cfa: sp 0 +
STACK CFI 568dc .cfa: x29 48 +
STACK CFI INIT 56988 190 .cfa: sp 0 +
STACK CFI 5698c .cfa: sp 80 +
STACK CFI 5699c .cfa: x29 48 + x19: .cfa -8 + ^ x20: .cfa -16 + ^ x21: .cfa -24 + ^ x22: .cfa -32 + ^ .ra: .cfa -40 + ^ x29: .cfa -48 + ^
STACK CFI 56a50 .cfa: sp 80 +
STACK CFI 56a60 .cfa: sp 0 +
STACK CFI 56a64 .cfa: x29 48 +
STACK CFI INIT 56b18 1d8 .cfa: sp 0 +
STACK CFI 56b1c .cfa: sp 160 +
STACK CFI 56b2c .cfa: x29 48 + x19: .cfa -8 + ^ x20: .cfa -16 + ^ x21: .cfa -24 + ^ x22: .cfa -32 + ^ .ra: .cfa -40 + ^ x29: .cfa -48 + ^
STACK CFI 56c30 .cfa: sp 160 +
STACK CFI 56c40 .cfa: sp 0 +
STACK CFI 56c44 .cfa: x29 48 +
STACK CFI INIT 56e58 1c8 .cfa: sp 0 +
STACK CFI 56e5c .cfa: sp 96 +
STACK CFI 56e6c .cfa: x29 48 + x19: .cfa -8 + ^ x20: .cfa -16 + ^ x21: .cfa -24 + ^ x22: .cfa -32 + ^ .ra: .cfa -40 + ^ x29: .cfa -48 + ^
STACK CFI 56ec0 .cfa: sp 96 +
STACK CFI 56ed0 .cfa: sp 0 +
STACK CFI 56ed4 .cfa: x29 48 +
STACK CFI 56ee4 .cfa: sp 96 +
STACK CFI 56ef4 .cfa: sp 0 +
STACK CFI 56ef8 .cfa: x29 48 +
STACK CFI 56f24 .cfa: sp 96 +
STACK CFI 56f34 .cfa: sp 0 +
STACK CFI 56f38 .cfa: x29 48 +
STACK CFI 56f54 .cfa: sp 96 +
STACK CFI 56f64 .cfa: sp 0 +
STACK CFI 56f68 .cfa: x29 48 +
STACK CFI INIT 57020 88 .cfa: sp 0 +
STACK CFI 57024 .cfa: sp 32 +
STACK CFI 5702c .cfa: x29 32 + x19: .cfa -8 + ^ x20: .cfa -16 + ^ .ra: .cfa -24 + ^ x29: .cfa -32 + ^
STACK CFI 57080 .cfa: sp 32 +
STACK CFI 57088 .cfa: sp 0 +
STACK CFI 5708c .cfa: x29 32 +
STACK CFI INIT 570a8 1e0 .cfa: sp 0 +
STACK CFI 570ac .cfa: sp 128 +
STACK CFI 570c8 .cfa: x29 96 + x19: .cfa -8 + ^ x20: .cfa -16 + ^ x21: .cfa -24 + ^ x22: .cfa -32 + ^ x23: .cfa -40 + ^ x24: .cfa -48 + ^ x25: .cfa -56 + ^ x26: .cfa -64 + ^ x27: .cfa -72 + ^ x28: .cfa -80 + ^ .ra: .cfa -88 + ^ x29: .cfa -96 + ^
STACK CFI 57240 .cfa: sp 128 +
STACK CFI 5725c .cfa: sp 0 +
STACK CFI 57260 .cfa: x29 96 +
STACK CFI INIT 57430 17c .cfa: sp 0 +
STACK CFI 57434 .cfa: sp 128 +
STACK CFI 57440 .cfa: x29 32 + x19: .cfa -8 + ^ x20: .cfa -16 + ^ .ra: .cfa -24 + ^ x29: .cfa -32 + ^
STACK CFI 57528 .cfa: sp 128 +
STACK CFI 57534 .cfa: sp 0 +
STACK CFI 57538 .cfa: x29 32 +
STACK CFI INIT 576f0 174 .cfa: sp 0 +
STACK CFI 576f4 .cfa: sp 128 +
STACK CFI 57700 .cfa: x29 32 + x19: .cfa -8 + ^ x20: .cfa -16 + ^ .ra: .cfa -24 + ^ x29: .cfa -32 + ^
STACK CFI 577e0 .cfa: sp 128 +
STACK CFI 577ec .cfa: sp 0 +
STACK CFI 577f0 .cfa: x29 32 +
STACK CFI INIT 579a4 180 .cfa: sp 0 +
STACK CFI 579a8 .cfa: sp 128 +
STACK CFI 579b4 .cfa: x29 32 + x19: .cfa -8 + ^ x20: .cfa -16 + ^ .ra: .cfa -24 + ^ x29: .cfa -32 + ^
STACK CFI 57aa0 .cfa: sp 128 +
STACK CFI 57aac .cfa: sp 0 +
STACK CFI 57ab0 .cfa: x29 32 +
STACK CFI INIT 57c64 180 .cfa: sp 0 +
STACK CFI 57c68 .cfa: sp 128 +
STACK CFI 57c74 .cfa: x29 32 + x19: .cfa -8 + ^ x20: .cfa -16 + ^ .ra: .cfa -24 + ^ x29: .cfa -32 + ^
STACK CFI 57d60 .cfa: sp 128 +
STACK CFI 57d6c .cfa: sp 0 +
STACK CFI 57d70 .cfa: x29 32 +
STACK CFI INIT 57f24 178 .cfa: sp 0 +
STACK CFI 57f28 .cfa: sp 128 +
STACK CFI 57f34 .cfa: x29 32 + x19: .cfa -8 + ^ x20: .cfa -16 + ^ .ra: .cfa -24 + ^ x29: .cfa -32 + ^
STACK CFI 58018 .cfa: sp 128 +
STACK CFI 58024 .cfa: sp 0 +
STACK CFI 58028 .cfa: x29 32 +
STACK CFI INIT 581dc 174 .cfa: sp 0 +
STACK CFI 581e0 .cfa: sp 128 +
STACK CFI 581ec .cfa: x29 32 + x19: .cfa -8 + ^ x20: .cfa -16 + ^ .ra: .cfa -24 + ^ x29: .cfa -32 + ^
STACK CFI 582cc .cfa: sp 128 +
STACK CFI 582d8 .cfa: sp 0 +
STACK CFI 582dc .cfa: x29 32 +
STACK CFI INIT 58490 180 .cfa: sp 0 +
STACK CFI 58494 .cfa: sp 128 +
STACK CFI 584a0 .cfa: x29 32 + x19: .cfa -8 + ^ x20: .cfa -16 + ^ .ra: .cfa -24 + ^ x29: .cfa -32 + ^
STACK CFI 5858c .cfa: sp 128 +
STACK CFI 58598 .cfa: sp 0 +
STACK CFI 5859c .cfa: x29 32 +
STACK CFI INIT 58750 174 .cfa: sp 0 +
STACK CFI 58754 .cfa: sp 128 +
STACK CFI 58760 .cfa: x29 32 + x19: .cfa -8 + ^ x20: .cfa -16 + ^ .ra: .cfa -24 + ^ x29: .cfa -32 + ^
STACK CFI 58840 .cfa: sp 128 +
STACK CFI 5884c .cfa: sp 0 +
STACK CFI 58850 .cfa: x29 32 +
STACK CFI INIT 58a04 17c .cfa: sp 0 +
STACK CFI 58a08 .cfa: sp 128 +
STACK CFI 58a14 .cfa: x29 32 + x19: .cfa -8 + ^ x20: .cfa -16 + ^ .ra: .cfa -24 + ^ x29: .cfa -32 + ^
STACK CFI 58afc .cfa: sp 128 +
STACK CFI 58b08 .cfa: sp 0 +
STACK CFI 58b0c .cfa: x29 32 +
STACK CFI INIT 58cc0 17c .cfa: sp 0 +
STACK CFI 58cc4 .cfa: sp 128 +
STACK CFI 58cd0 .cfa: x29 32 + x19: .cfa -8 + ^ x20: .cfa -16 + ^ .ra: .cfa -24 + ^ x29: .cfa -32 + ^
STACK CFI 58db8 .cfa: sp 128 +
STACK CFI 58dc4 .cfa: sp 0 +
STACK CFI 58dc8 .cfa: x29 32 +
STACK CFI INIT 58f7c 470 .cfa: sp 0 +
STACK CFI 58f80 .cfa: sp 224 +
STACK CFI 58f9c .cfa: x29 96 + x19: .cfa -8 + ^ x20: .cfa -16 + ^ x21: .cfa -24 + ^ x22: .cfa -32 + ^ x23: .cfa -40 + ^ x24: .cfa -48 + ^ x25: .cfa -56 + ^ x26: .cfa -64 + ^ x27: .cfa -80 + ^ .ra: .cfa -88 + ^ x29: .cfa -96 + ^
STACK CFI 591f8 .cfa: sp 224 +
STACK CFI 59214 .cfa: sp 0 +
STACK CFI 59218 .cfa: x29 96 +
STACK CFI 592e4 .cfa: sp 224 +
STACK CFI 59300 .cfa: sp 0 +
STACK CFI 59304 .cfa: x29 96 +
STACK CFI INIT 59408 300 .cfa: sp 0 +
STACK CFI 5940c .cfa: sp 192 +
STACK CFI 59420 .cfa: x29 64 + x19: .cfa -8 + ^ x20: .cfa -16 + ^ x21: .cfa -24 + ^ x22: .cfa -32 + ^ x23: .cfa -48 + ^ .ra: .cfa -56 + ^ x29: .cfa -64 + ^
STACK CFI 59600 .cfa: sp 192 +
STACK CFI 59614 .cfa: sp 0 +
STACK CFI 59618 .cfa: x29 64 +
STACK CFI INIT 59758 74 .cfa: sp 0 +
STACK CFI 5975c .cfa: sp 48 +
STACK CFI 59768 .cfa: x29 32 + x19: .cfa -8 + ^ x20: .cfa -16 + ^ .ra: .cfa -24 + ^ x29: .cfa -32 + ^
STACK CFI 597b4 .cfa: sp 48 +
STACK CFI 597c0 .cfa: sp 0 +
STACK CFI 597c4 .cfa: x29 32 +
STACK CFI INIT 597d0 154 .cfa: sp 0 +
STACK CFI 597d4 .cfa: sp 384 +
STACK CFI 597e8 .cfa: x29 64 + x19: .cfa -8 + ^ x20: .cfa -16 + ^ x21: .cfa -24 + ^ x22: .cfa -32 + ^ x23: .cfa -40 + ^ x28: .cfa -48 + ^ .ra: .cfa -56 + ^ x29: .cfa -64 + ^
STACK CFI 598cc .cfa: sp 384 +
STACK CFI 598e0 .cfa: sp 0 +
STACK CFI 598e4 .cfa: x29 64 +
STACK CFI INIT 59924 134 .cfa: sp 0 +
STACK CFI 59928 .cfa: sp 80 +
STACK CFI 5993c .cfa: x29 80 + x19: .cfa -8 + ^ x20: .cfa -16 + ^ x21: .cfa -24 + ^ x22: .cfa -32 + ^ x23: .cfa -40 + ^ x24: .cfa -48 + ^ x25: .cfa -56 + ^ x26: .cfa -64 + ^ .ra: .cfa -72 + ^ x29: .cfa -80 + ^
STACK CFI 59a0c .cfa: sp 80 +
STACK CFI 59a20 .cfa: sp 0 +
STACK CFI 59a24 .cfa: x29 80 +
STACK CFI INIT 59afc 1a4 .cfa: sp 0 +
STACK CFI 59b00 .cfa: sp 112 +
STACK CFI 59b18 .cfa: x29 80 + x19: .cfa -8 + ^ x20: .cfa -16 + ^ x21: .cfa -24 + ^ x22: .cfa -32 + ^ x23: .cfa -40 + ^ x24: .cfa -48 + ^ x25: .cfa -56 + ^ x26: .cfa -64 + ^ .ra: .cfa -72 + ^ x29: .cfa -80 + ^
STACK CFI 59c08 .cfa: sp 112 +
STACK CFI 59c20 .cfa: sp 0 +
STACK CFI 59c24 .cfa: x29 80 +
STACK CFI INIT 59ca0 1ec .cfa: sp 0 +
STACK CFI 59ca4 .cfa: sp 128 +
STACK CFI 59cc0 .cfa: x29 96 + x19: .cfa -8 + ^ x20: .cfa -16 + ^ x21: .cfa -24 + ^ x22: .cfa -32 + ^ x23: .cfa -40 + ^ x24: .cfa -48 + ^ x25: .cfa -56 + ^ x26: .cfa -64 + ^ x27: .cfa -80 + ^ .ra: .cfa -88 + ^ x29: .cfa -96 + ^
STACK CFI 59e3c .cfa: sp 128 +
STACK CFI 59e58 .cfa: sp 0 +
STACK CFI 59e5c .cfa: x29 96 +
STACK CFI INIT 59e8c 170 .cfa: sp 0 +
STACK CFI 59e90 .cfa: sp 48 +
STACK CFI 59e9c .cfa: x29 48 + x19: .cfa -8 + ^ x20: .cfa -16 + ^ x21: .cfa -32 + ^ .ra: .cfa -40 + ^ x29: .cfa -48 + ^
STACK CFI 59fd0 .cfa: sp 48 +
STACK CFI 59fdc .cfa: sp 0 +
STACK CFI 59fe0 .cfa: x29 48 +
STACK CFI INIT 5a1cc 1b0 .cfa: sp 0 +
STACK CFI 5a1d0 .cfa: sp 128 +
STACK CFI 5a1e8 .cfa: x29 80 + x19: .cfa -8 + ^ x20: .cfa -16 + ^ x21: .cfa -24 + ^ x22: .cfa -32 + ^ x23: .cfa -40 + ^ x24: .cfa -48 + ^ x25: .cfa -64 + ^ .ra: .cfa -72 + ^ x29: .cfa -80 + ^
STACK CFI 5a30c .cfa: sp 128 +
STACK CFI 5a324 .cfa: sp 0 +
STACK CFI 5a328 .cfa: x29 80 +
STACK CFI INIT 5a790 a8 .cfa: sp 0 +
STACK CFI 5a794 .cfa: sp 32 +
STACK CFI 5a79c .cfa: x29 32 + x19: .cfa -16 + ^ .ra: .cfa -24 + ^ x29: .cfa -32 + ^
STACK CFI 5a7d0 .cfa: sp 32 +
STACK CFI 5a7d8 .cfa: sp 0 +
STACK CFI 5a7dc .cfa: x29 32 +
STACK CFI 5a7e0 .cfa: sp 32 +
STACK CFI 5a7e8 .cfa: sp 0 +
STACK CFI 5a7ec .cfa: x29 32 +
STACK CFI INIT 5aafc 470 .cfa: sp 0 +
STACK CFI 5ab00 .cfa: sp 224 +
STACK CFI 5ab1c .cfa: x29 96 + x19: .cfa -8 + ^ x20: .cfa -16 + ^ x21: .cfa -24 + ^ x22: .cfa -32 + ^ x23: .cfa -40 + ^ x24: .cfa -48 + ^ x25: .cfa -56 + ^ x26: .cfa -64 + ^ x27: .cfa -80 + ^ .ra: .cfa -88 + ^ x29: .cfa -96 + ^
STACK CFI 5ad78 .cfa: sp 224 +
STACK CFI 5ad94 .cfa: sp 0 +
STACK CFI 5ad98 .cfa: x29 96 +
STACK CFI 5ae64 .cfa: sp 224 +
STACK CFI 5ae80 .cfa: sp 0 +
STACK CFI 5ae84 .cfa: x29 96 +
STACK CFI INIT 5af88 358 .cfa: sp 0 +
STACK CFI 5af8c .cfa: sp 208 +
STACK CFI 5afa0 .cfa: x29 64 + x19: .cfa -8 + ^ x20: .cfa -16 + ^ x21: .cfa -24 + ^ x22: .cfa -32 + ^ x23: .cfa -48 + ^ .ra: .cfa -56 + ^ x29: .cfa -64 + ^
STACK CFI 5b1bc .cfa: sp 208 +
STACK CFI 5b1d0 .cfa: sp 0 +
STACK CFI 5b1d4 .cfa: x29 64 +
STACK CFI INIT 5b53c 470 .cfa: sp 0 +
STACK CFI 5b540 .cfa: sp 224 +
STACK CFI 5b55c .cfa: x29 96 + x19: .cfa -8 + ^ x20: .cfa -16 + ^ x21: .cfa -24 + ^ x22: .cfa -32 + ^ x23: .cfa -40 + ^ x24: .cfa -48 + ^ x25: .cfa -56 + ^ x26: .cfa -64 + ^ x27: .cfa -80 + ^ .ra: .cfa -88 + ^ x29: .cfa -96 + ^
STACK CFI 5b7b8 .cfa: sp 224 +
STACK CFI 5b7d4 .cfa: sp 0 +
STACK CFI 5b7d8 .cfa: x29 96 +
STACK CFI 5b8a4 .cfa: sp 224 +
STACK CFI 5b8c0 .cfa: sp 0 +
STACK CFI 5b8c4 .cfa: x29 96 +
STACK CFI INIT 5b9c8 308 .cfa: sp 0 +
STACK CFI 5b9cc .cfa: sp 192 +
STACK CFI 5b9e0 .cfa: x29 64 + x19: .cfa -8 + ^ x20: .cfa -16 + ^ x21: .cfa -24 + ^ x22: .cfa -32 + ^ x23: .cfa -48 + ^ .ra: .cfa -56 + ^ x29: .cfa -64 + ^
STACK CFI 5bbc8 .cfa: sp 192 +
STACK CFI 5bbdc .cfa: sp 0 +
STACK CFI 5bbe0 .cfa: x29 64 +
STACK CFI INIT 5bdcc a8 .cfa: sp 0 +
STACK CFI 5bdd0 .cfa: sp 32 +
STACK CFI 5bdd8 .cfa: x29 32 + x19: .cfa -16 + ^ .ra: .cfa -24 + ^ x29: .cfa -32 + ^
STACK CFI 5be0c .cfa: sp 32 +
STACK CFI 5be14 .cfa: sp 0 +
STACK CFI 5be18 .cfa: x29 32 +
STACK CFI 5be1c .cfa: sp 32 +
STACK CFI 5be24 .cfa: sp 0 +
STACK CFI 5be28 .cfa: x29 32 +
STACK CFI INIT 5bf28 470 .cfa: sp 0 +
STACK CFI 5bf2c .cfa: sp 224 +
STACK CFI 5bf48 .cfa: x29 96 + x19: .cfa -8 + ^ x20: .cfa -16 + ^ x21: .cfa -24 + ^ x22: .cfa -32 + ^ x23: .cfa -40 + ^ x24: .cfa -48 + ^ x25: .cfa -56 + ^ x26: .cfa -64 + ^ x27: .cfa -80 + ^ .ra: .cfa -88 + ^ x29: .cfa -96 + ^
STACK CFI 5c1a4 .cfa: sp 224 +
STACK CFI 5c1c0 .cfa: sp 0 +
STACK CFI 5c1c4 .cfa: x29 96 +
STACK CFI 5c290 .cfa: sp 224 +
STACK CFI 5c2ac .cfa: sp 0 +
STACK CFI 5c2b0 .cfa: x29 96 +
STACK CFI INIT 5c3b4 348 .cfa: sp 0 +
STACK CFI 5c3b8 .cfa: sp 192 +
STACK CFI 5c3cc .cfa: x29 64 + x19: .cfa -8 + ^ x20: .cfa -16 + ^ x21: .cfa -24 + ^ x22: .cfa -32 + ^ x23: .cfa -48 + ^ .ra: .cfa -56 + ^ x29: .cfa -64 + ^
STACK CFI 5c5d8 .cfa: sp 192 +
STACK CFI 5c5ec .cfa: sp 0 +
STACK CFI 5c5f0 .cfa: x29 64 +
STACK CFI INIT 5c99c 470 .cfa: sp 0 +
STACK CFI 5c9a0 .cfa: sp 224 +
STACK CFI 5c9bc .cfa: x29 96 + x19: .cfa -8 + ^ x20: .cfa -16 + ^ x21: .cfa -24 + ^ x22: .cfa -32 + ^ x23: .cfa -40 + ^ x24: .cfa -48 + ^ x25: .cfa -56 + ^ x26: .cfa -64 + ^ x27: .cfa -80 + ^ .ra: .cfa -88 + ^ x29: .cfa -96 + ^
STACK CFI 5cc18 .cfa: sp 224 +
STACK CFI 5cc34 .cfa: sp 0 +
STACK CFI 5cc38 .cfa: x29 96 +
STACK CFI 5cd04 .cfa: sp 224 +
STACK CFI 5cd20 .cfa: sp 0 +
STACK CFI 5cd24 .cfa: x29 96 +
STACK CFI INIT 5ce28 358 .cfa: sp 0 +
STACK CFI 5ce2c .cfa: sp 192 +
STACK CFI 5ce40 .cfa: x29 64 + x19: .cfa -8 + ^ x20: .cfa -16 + ^ x21: .cfa -24 + ^ x22: .cfa -32 + ^ x23: .cfa -48 + ^ .ra: .cfa -56 + ^ x29: .cfa -64 + ^
STACK CFI 5d05c .cfa: sp 192 +
STACK CFI 5d070 .cfa: sp 0 +
STACK CFI 5d074 .cfa: x29 64 +
STACK CFI INIT 5d290 470 .cfa: sp 0 +
STACK CFI 5d294 .cfa: sp 224 +
STACK CFI 5d2b0 .cfa: x29 96 + x19: .cfa -8 + ^ x20: .cfa -16 + ^ x21: .cfa -24 + ^ x22: .cfa -32 + ^ x23: .cfa -40 + ^ x24: .cfa -48 + ^ x25: .cfa -56 + ^ x26: .cfa -64 + ^ x27: .cfa -80 + ^ .ra: .cfa -88 + ^ x29: .cfa -96 + ^
STACK CFI 5d50c .cfa: sp 224 +
STACK CFI 5d528 .cfa: sp 0 +
STACK CFI 5d52c .cfa: x29 96 +
STACK CFI 5d5f8 .cfa: sp 224 +
STACK CFI 5d614 .cfa: sp 0 +
STACK CFI 5d618 .cfa: x29 96 +
STACK CFI INIT 5d71c 374 .cfa: sp 0 +
STACK CFI 5d720 .cfa: sp 240 +
STACK CFI 5d734 .cfa: x29 64 + x19: .cfa -8 + ^ x20: .cfa -16 + ^ x21: .cfa -24 + ^ x22: .cfa -32 + ^ x23: .cfa -48 + ^ .ra: .cfa -56 + ^ x29: .cfa -64 + ^
STACK CFI 5d964 .cfa: sp 240 +
STACK CFI 5d978 .cfa: sp 0 +
STACK CFI 5d97c .cfa: x29 64 +
STACK CFI INIT 5db8c 470 .cfa: sp 0 +
STACK CFI 5db90 .cfa: sp 224 +
STACK CFI 5dbac .cfa: x29 96 + x19: .cfa -8 + ^ x20: .cfa -16 + ^ x21: .cfa -24 + ^ x22: .cfa -32 + ^ x23: .cfa -40 + ^ x24: .cfa -48 + ^ x25: .cfa -56 + ^ x26: .cfa -64 + ^ x27: .cfa -80 + ^ .ra: .cfa -88 + ^ x29: .cfa -96 + ^
STACK CFI 5de08 .cfa: sp 224 +
STACK CFI 5de24 .cfa: sp 0 +
STACK CFI 5de28 .cfa: x29 96 +
STACK CFI 5def4 .cfa: sp 224 +
STACK CFI 5df10 .cfa: sp 0 +
STACK CFI 5df14 .cfa: x29 96 +
STACK CFI INIT 5e018 36c .cfa: sp 0 +
STACK CFI 5e01c .cfa: sp 224 +
STACK CFI 5e030 .cfa: x29 64 + x19: .cfa -8 + ^ x20: .cfa -16 + ^ x21: .cfa -24 + ^ x22: .cfa -32 + ^ x23: .cfa -40 + ^ x24: .cfa -48 + ^ .ra: .cfa -56 + ^ x29: .cfa -64 + ^
STACK CFI 5e258 .cfa: sp 224 +
STACK CFI 5e26c .cfa: sp 0 +
STACK CFI 5e270 .cfa: x29 64 +
STACK CFI INIT 5e480 470 .cfa: sp 0 +
STACK CFI 5e484 .cfa: sp 224 +
STACK CFI 5e4a0 .cfa: x29 96 + x19: .cfa -8 + ^ x20: .cfa -16 + ^ x21: .cfa -24 + ^ x22: .cfa -32 + ^ x23: .cfa -40 + ^ x24: .cfa -48 + ^ x25: .cfa -56 + ^ x26: .cfa -64 + ^ x27: .cfa -80 + ^ .ra: .cfa -88 + ^ x29: .cfa -96 + ^
STACK CFI 5e6fc .cfa: sp 224 +
STACK CFI 5e718 .cfa: sp 0 +
STACK CFI 5e71c .cfa: x29 96 +
STACK CFI 5e7e8 .cfa: sp 224 +
STACK CFI 5e804 .cfa: sp 0 +
STACK CFI 5e808 .cfa: x29 96 +
STACK CFI INIT 5e90c 374 .cfa: sp 0 +
STACK CFI 5e910 .cfa: sp 256 +
STACK CFI 5e924 .cfa: x29 64 + x19: .cfa -8 + ^ x20: .cfa -16 + ^ x21: .cfa -24 + ^ x22: .cfa -32 + ^ x23: .cfa -48 + ^ .ra: .cfa -56 + ^ x29: .cfa -64 + ^
STACK CFI 5eb54 .cfa: sp 256 +
STACK CFI 5eb68 .cfa: sp 0 +
STACK CFI 5eb6c .cfa: x29 64 +
STACK CFI INIT 5ed44 470 .cfa: sp 0 +
STACK CFI 5ed48 .cfa: sp 224 +
STACK CFI 5ed64 .cfa: x29 96 + x19: .cfa -8 + ^ x20: .cfa -16 + ^ x21: .cfa -24 + ^ x22: .cfa -32 + ^ x23: .cfa -40 + ^ x24: .cfa -48 + ^ x25: .cfa -56 + ^ x26: .cfa -64 + ^ x27: .cfa -80 + ^ .ra: .cfa -88 + ^ x29: .cfa -96 + ^
STACK CFI 5efc0 .cfa: sp 224 +
STACK CFI 5efdc .cfa: sp 0 +
STACK CFI 5efe0 .cfa: x29 96 +
STACK CFI 5f0ac .cfa: sp 224 +
STACK CFI 5f0c8 .cfa: sp 0 +
STACK CFI 5f0cc .cfa: x29 96 +
STACK CFI INIT 5f1d0 308 .cfa: sp 0 +
STACK CFI 5f1d4 .cfa: sp 192 +
STACK CFI 5f1e8 .cfa: x29 64 + x19: .cfa -8 + ^ x20: .cfa -16 + ^ x21: .cfa -24 + ^ x22: .cfa -32 + ^ x23: .cfa -48 + ^ .ra: .cfa -56 + ^ x29: .cfa -64 + ^
STACK CFI 5f3d0 .cfa: sp 192 +
STACK CFI 5f3e4 .cfa: sp 0 +
STACK CFI 5f3e8 .cfa: x29 64 +
STACK CFI INIT 5f5d4 a8 .cfa: sp 0 +
STACK CFI 5f5d8 .cfa: sp 32 +
STACK CFI 5f5e0 .cfa: x29 32 + x19: .cfa -16 + ^ .ra: .cfa -24 + ^ x29: .cfa -32 + ^
STACK CFI 5f614 .cfa: sp 32 +
STACK CFI 5f61c .cfa: sp 0 +
STACK CFI 5f620 .cfa: x29 32 +
STACK CFI 5f624 .cfa: sp 32 +
STACK CFI 5f62c .cfa: sp 0 +
STACK CFI 5f630 .cfa: x29 32 +
STACK CFI INIT 5f714 470 .cfa: sp 0 +
STACK CFI 5f718 .cfa: sp 224 +
STACK CFI 5f734 .cfa: x29 96 + x19: .cfa -8 + ^ x20: .cfa -16 + ^ x21: .cfa -24 + ^ x22: .cfa -32 + ^ x23: .cfa -40 + ^ x24: .cfa -48 + ^ x25: .cfa -56 + ^ x26: .cfa -64 + ^ x27: .cfa -80 + ^ .ra: .cfa -88 + ^ x29: .cfa -96 + ^
STACK CFI 5f990 .cfa: sp 224 +
STACK CFI 5f9ac .cfa: sp 0 +
STACK CFI 5f9b0 .cfa: x29 96 +
STACK CFI 5fa7c .cfa: sp 224 +
STACK CFI 5fa98 .cfa: sp 0 +
STACK CFI 5fa9c .cfa: x29 96 +
STACK CFI INIT 5fba0 36c .cfa: sp 0 +
STACK CFI 5fba4 .cfa: sp 240 +
STACK CFI 5fbb8 .cfa: x29 64 + x19: .cfa -8 + ^ x20: .cfa -16 + ^ x21: .cfa -24 + ^ x22: .cfa -32 + ^ x23: .cfa -40 + ^ x24: .cfa -48 + ^ .ra: .cfa -56 + ^ x29: .cfa -64 + ^
STACK CFI 5fde0 .cfa: sp 240 +
STACK CFI 5fdf4 .cfa: sp 0 +
STACK CFI 5fdf8 .cfa: x29 64 +
STACK CFI INIT 60008 470 .cfa: sp 0 +
STACK CFI 6000c .cfa: sp 224 +
STACK CFI 60028 .cfa: x29 96 + x19: .cfa -8 + ^ x20: .cfa -16 + ^ x21: .cfa -24 + ^ x22: .cfa -32 + ^ x23: .cfa -40 + ^ x24: .cfa -48 + ^ x25: .cfa -56 + ^ x26: .cfa -64 + ^ x27: .cfa -80 + ^ .ra: .cfa -88 + ^ x29: .cfa -96 + ^
STACK CFI 60284 .cfa: sp 224 +
STACK CFI 602a0 .cfa: sp 0 +
STACK CFI 602a4 .cfa: x29 96 +
STACK CFI 60370 .cfa: sp 224 +
STACK CFI 6038c .cfa: sp 0 +
STACK CFI 60390 .cfa: x29 96 +
STACK CFI INIT 60494 3a0 .cfa: sp 0 +
STACK CFI 60498 .cfa: sp 224 +
STACK CFI 604ac .cfa: x29 64 + x19: .cfa -8 + ^ x20: .cfa -16 + ^ x21: .cfa -24 + ^ x22: .cfa -32 + ^ x23: .cfa -48 + ^ .ra: .cfa -56 + ^ x29: .cfa -64 + ^
STACK CFI 60704 .cfa: sp 224 +
STACK CFI 60718 .cfa: sp 0 +
STACK CFI 6071c .cfa: x29 64 +
STACK CFI INIT 60944 470 .cfa: sp 0 +
STACK CFI 60948 .cfa: sp 224 +
STACK CFI 60964 .cfa: x29 96 + x19: .cfa -8 + ^ x20: .cfa -16 + ^ x21: .cfa -24 + ^ x22: .cfa -32 + ^ x23: .cfa -40 + ^ x24: .cfa -48 + ^ x25: .cfa -56 + ^ x26: .cfa -64 + ^ x27: .cfa -80 + ^ .ra: .cfa -88 + ^ x29: .cfa -96 + ^
STACK CFI 60bc0 .cfa: sp 224 +
STACK CFI 60bdc .cfa: sp 0 +
STACK CFI 60be0 .cfa: x29 96 +
STACK CFI 60cac .cfa: sp 224 +
STACK CFI 60cc8 .cfa: sp 0 +
STACK CFI 60ccc .cfa: x29 96 +
STACK CFI INIT 60dd0 358 .cfa: sp 0 +
STACK CFI 60dd4 .cfa: sp 208 +
STACK CFI 60de8 .cfa: x29 64 + x19: .cfa -8 + ^ x20: .cfa -16 + ^ x21: .cfa -24 + ^ x22: .cfa -32 + ^ x23: .cfa -48 + ^ .ra: .cfa -56 + ^ x29: .cfa -64 + ^
STACK CFI 61004 .cfa: sp 208 +
STACK CFI 61018 .cfa: sp 0 +
STACK CFI 6101c .cfa: x29 64 +
STACK CFI INIT 61224 470 .cfa: sp 0 +
STACK CFI 61228 .cfa: sp 224 +
STACK CFI 61244 .cfa: x29 96 + x19: .cfa -8 + ^ x20: .cfa -16 + ^ x21: .cfa -24 + ^ x22: .cfa -32 + ^ x23: .cfa -40 + ^ x24: .cfa -48 + ^ x25: .cfa -56 + ^ x26: .cfa -64 + ^ x27: .cfa -80 + ^ .ra: .cfa -88 + ^ x29: .cfa -96 + ^
STACK CFI 614a0 .cfa: sp 224 +
STACK CFI 614bc .cfa: sp 0 +
STACK CFI 614c0 .cfa: x29 96 +
STACK CFI 6158c .cfa: sp 224 +
STACK CFI 615a8 .cfa: sp 0 +
STACK CFI 615ac .cfa: x29 96 +
STACK CFI INIT 616b0 34c .cfa: sp 0 +
STACK CFI 616b4 .cfa: sp 192 +
STACK CFI 616c8 .cfa: x29 64 + x19: .cfa -8 + ^ x20: .cfa -16 + ^ x21: .cfa -24 + ^ x22: .cfa -32 + ^ x23: .cfa -40 + ^ x24: .cfa -48 + ^ .ra: .cfa -56 + ^ x29: .cfa -64 + ^
STACK CFI 618d8 .cfa: sp 192 +
STACK CFI 618ec .cfa: sp 0 +
STACK CFI 618f0 .cfa: x29 64 +
STACK CFI INIT 61e20 470 .cfa: sp 0 +
STACK CFI 61e24 .cfa: sp 224 +
STACK CFI 61e40 .cfa: x29 96 + x19: .cfa -8 + ^ x20: .cfa -16 + ^ x21: .cfa -24 + ^ x22: .cfa -32 + ^ x23: .cfa -40 + ^ x24: .cfa -48 + ^ x25: .cfa -56 + ^ x26: .cfa -64 + ^ x27: .cfa -80 + ^ .ra: .cfa -88 + ^ x29: .cfa -96 + ^
STACK CFI 6209c .cfa: sp 224 +
STACK CFI 620b8 .cfa: sp 0 +
STACK CFI 620bc .cfa: x29 96 +
STACK CFI 62188 .cfa: sp 224 +
STACK CFI 621a4 .cfa: sp 0 +
STACK CFI 621a8 .cfa: x29 96 +
STACK CFI INIT 622ac 34c .cfa: sp 0 +
STACK CFI 622b0 .cfa: sp 192 +
STACK CFI 622c4 .cfa: x29 64 + x19: .cfa -8 + ^ x20: .cfa -16 + ^ x21: .cfa -24 + ^ x22: .cfa -32 + ^ x23: .cfa -40 + ^ x24: .cfa -48 + ^ .ra: .cfa -56 + ^ x29: .cfa -64 + ^
STACK CFI 624d4 .cfa: sp 192 +
STACK CFI 624e8 .cfa: sp 0 +
STACK CFI 624ec .cfa: x29 64 +
STACK CFI INIT 6271c 470 .cfa: sp 0 +
STACK CFI 62720 .cfa: sp 224 +
STACK CFI 6273c .cfa: x29 96 + x19: .cfa -8 + ^ x20: .cfa -16 + ^ x21: .cfa -24 + ^ x22: .cfa -32 + ^ x23: .cfa -40 + ^ x24: .cfa -48 + ^ x25: .cfa -56 + ^ x26: .cfa -64 + ^ x27: .cfa -80 + ^ .ra: .cfa -88 + ^ x29: .cfa -96 + ^
STACK CFI 62998 .cfa: sp 224 +
STACK CFI 629b4 .cfa: sp 0 +
STACK CFI 629b8 .cfa: x29 96 +
STACK CFI 62a84 .cfa: sp 224 +
STACK CFI 62aa0 .cfa: sp 0 +
STACK CFI 62aa4 .cfa: x29 96 +
STACK CFI INIT 62ba8 350 .cfa: sp 0 +
STACK CFI 62bac .cfa: sp 208 +
STACK CFI 62bc0 .cfa: x29 64 + x19: .cfa -8 + ^ x20: .cfa -16 + ^ x21: .cfa -24 + ^ x22: .cfa -32 + ^ x23: .cfa -48 + ^ .ra: .cfa -56 + ^ x29: .cfa -64 + ^
STACK CFI 62dd4 .cfa: sp 208 +
STACK CFI 62de8 .cfa: sp 0 +
STACK CFI 62dec .cfa: x29 64 +
STACK CFI INIT 62ff4 74c .cfa: sp 0 +
STACK CFI 62ff8 .cfa: sp 224 +
STACK CFI 63014 .cfa: x29 96 + x19: .cfa -8 + ^ x20: .cfa -16 + ^ x21: .cfa -24 + ^ x22: .cfa -32 + ^ x23: .cfa -40 + ^ x24: .cfa -48 + ^ x25: .cfa -56 + ^ x26: .cfa -64 + ^ x27: .cfa -72 + ^ x28: .cfa -80 + ^ .ra: .cfa -88 + ^ x29: .cfa -96 + ^
STACK CFI 635a4 .cfa: sp 224 +
STACK CFI 635c0 .cfa: sp 0 +
STACK CFI 635c4 .cfa: x29 96 +
STACK CFI INIT 6375c 2f4 .cfa: sp 0 +
STACK CFI 63760 .cfa: sp 176 +
STACK CFI 63774 .cfa: x29 64 + x19: .cfa -8 + ^ x20: .cfa -16 + ^ x21: .cfa -24 + ^ x22: .cfa -32 + ^ x23: .cfa -48 + ^ .ra: .cfa -56 + ^ x29: .cfa -64 + ^
STACK CFI 63948 .cfa: sp 176 +
STACK CFI 6395c .cfa: sp 0 +
STACK CFI 63960 .cfa: x29 64 +
STACK CFI INIT 63ae8 268 .cfa: sp 0 +
STACK CFI 63aec .cfa: sp 96 +
STACK CFI 63b00 .cfa: x29 64 + x19: .cfa -8 + ^ x20: .cfa -16 + ^ x21: .cfa -24 + ^ x22: .cfa -32 + ^ x23: .cfa -48 + ^ .ra: .cfa -56 + ^ x29: .cfa -64 + ^
STACK CFI 63d08 .cfa: sp 96 +
STACK CFI 63d1c .cfa: sp 0 +
STACK CFI 63d20 .cfa: x29 64 +
STACK CFI INIT 63d50 a8 .cfa: sp 0 +
STACK CFI 63d54 .cfa: sp 32 +
STACK CFI 63d5c .cfa: x29 32 + x19: .cfa -16 + ^ .ra: .cfa -24 + ^ x29: .cfa -32 + ^
STACK CFI 63d90 .cfa: sp 32 +
STACK CFI 63d98 .cfa: sp 0 +
STACK CFI 63d9c .cfa: x29 32 +
STACK CFI 63da0 .cfa: sp 32 +
STACK CFI 63da8 .cfa: sp 0 +
STACK CFI 63dac .cfa: x29 32 +
STACK CFI INIT 63e94 470 .cfa: sp 0 +
STACK CFI 63e98 .cfa: sp 224 +
STACK CFI 63eb4 .cfa: x29 96 + x19: .cfa -8 + ^ x20: .cfa -16 + ^ x21: .cfa -24 + ^ x22: .cfa -32 + ^ x23: .cfa -40 + ^ x24: .cfa -48 + ^ x25: .cfa -56 + ^ x26: .cfa -64 + ^ x27: .cfa -80 + ^ .ra: .cfa -88 + ^ x29: .cfa -96 + ^
STACK CFI 64110 .cfa: sp 224 +
STACK CFI 6412c .cfa: sp 0 +
STACK CFI 64130 .cfa: x29 96 +
STACK CFI 641fc .cfa: sp 224 +
STACK CFI 64218 .cfa: sp 0 +
STACK CFI 6421c .cfa: x29 96 +
STACK CFI INIT 64320 398 .cfa: sp 0 +
STACK CFI 64324 .cfa: sp 224 +
STACK CFI 6433c .cfa: x29 80 + x19: .cfa -8 + ^ x20: .cfa -16 + ^ x21: .cfa -24 + ^ x22: .cfa -32 + ^ x23: .cfa -40 + ^ x24: .cfa -48 + ^ x25: .cfa -56 + ^ x26: .cfa -64 + ^ .ra: .cfa -72 + ^ x29: .cfa -80 + ^
STACK CFI 64584 .cfa: sp 224 +
STACK CFI 6459c .cfa: sp 0 +
STACK CFI 645a0 .cfa: x29 80 +
STACK CFI INIT 64808 470 .cfa: sp 0 +
STACK CFI 6480c .cfa: sp 224 +
STACK CFI 64828 .cfa: x29 96 + x19: .cfa -8 + ^ x20: .cfa -16 + ^ x21: .cfa -24 + ^ x22: .cfa -32 + ^ x23: .cfa -40 + ^ x24: .cfa -48 + ^ x25: .cfa -56 + ^ x26: .cfa -64 + ^ x27: .cfa -80 + ^ .ra: .cfa -88 + ^ x29: .cfa -96 + ^
STACK CFI 64a84 .cfa: sp 224 +
STACK CFI 64aa0 .cfa: sp 0 +
STACK CFI 64aa4 .cfa: x29 96 +
STACK CFI 64b70 .cfa: sp 224 +
STACK CFI 64b8c .cfa: sp 0 +
STACK CFI 64b90 .cfa: x29 96 +
STACK CFI INIT 64c94 2f8 .cfa: sp 0 +
STACK CFI 64c98 .cfa: sp 192 +
STACK CFI 64cac .cfa: x29 64 + x19: .cfa -8 + ^ x20: .cfa -16 + ^ x21: .cfa -24 + ^ x22: .cfa -32 + ^ x23: .cfa -48 + ^ .ra: .cfa -56 + ^ x29: .cfa -64 + ^
STACK CFI 64e84 .cfa: sp 192 +
STACK CFI 64e98 .cfa: sp 0 +
STACK CFI 64e9c .cfa: x29 64 +
STACK CFI INIT 65088 a8 .cfa: sp 0 +
STACK CFI 6508c .cfa: sp 32 +
STACK CFI 65094 .cfa: x29 32 + x19: .cfa -16 + ^ .ra: .cfa -24 + ^ x29: .cfa -32 + ^
STACK CFI 650c8 .cfa: sp 32 +
STACK CFI 650d0 .cfa: sp 0 +
STACK CFI 650d4 .cfa: x29 32 +
STACK CFI 650d8 .cfa: sp 32 +
STACK CFI 650e0 .cfa: sp 0 +
STACK CFI 650e4 .cfa: x29 32 +
STACK CFI INIT 651d0 470 .cfa: sp 0 +
STACK CFI 651d4 .cfa: sp 224 +
STACK CFI 651f0 .cfa: x29 96 + x19: .cfa -8 + ^ x20: .cfa -16 + ^ x21: .cfa -24 + ^ x22: .cfa -32 + ^ x23: .cfa -40 + ^ x24: .cfa -48 + ^ x25: .cfa -56 + ^ x26: .cfa -64 + ^ x27: .cfa -80 + ^ .ra: .cfa -88 + ^ x29: .cfa -96 + ^
STACK CFI 6544c .cfa: sp 224 +
STACK CFI 65468 .cfa: sp 0 +
STACK CFI 6546c .cfa: x29 96 +
STACK CFI 65538 .cfa: sp 224 +
STACK CFI 65554 .cfa: sp 0 +
STACK CFI 65558 .cfa: x29 96 +
STACK CFI INIT 6565c 300 .cfa: sp 0 +
STACK CFI 65660 .cfa: sp 192 +
STACK CFI 65674 .cfa: x29 64 + x19: .cfa -8 + ^ x20: .cfa -16 + ^ x21: .cfa -24 + ^ x22: .cfa -32 + ^ x23: .cfa -48 + ^ .ra: .cfa -56 + ^ x29: .cfa -64 + ^
STACK CFI 65854 .cfa: sp 192 +
STACK CFI 65868 .cfa: sp 0 +
STACK CFI 6586c .cfa: x29 64 +
STACK CFI INIT 65a58 a8 .cfa: sp 0 +
STACK CFI 65a5c .cfa: sp 32 +
STACK CFI 65a64 .cfa: x29 32 + x19: .cfa -16 + ^ .ra: .cfa -24 + ^ x29: .cfa -32 + ^
STACK CFI 65a98 .cfa: sp 32 +
STACK CFI 65aa0 .cfa: sp 0 +
STACK CFI 65aa4 .cfa: x29 32 +
STACK CFI 65aa8 .cfa: sp 32 +
STACK CFI 65ab0 .cfa: sp 0 +
STACK CFI 65ab4 .cfa: x29 32 +
STACK CFI INIT 65b88 470 .cfa: sp 0 +
STACK CFI 65b8c .cfa: sp 224 +
STACK CFI 65ba8 .cfa: x29 96 + x19: .cfa -8 + ^ x20: .cfa -16 + ^ x21: .cfa -24 + ^ x22: .cfa -32 + ^ x23: .cfa -40 + ^ x24: .cfa -48 + ^ x25: .cfa -56 + ^ x26: .cfa -64 + ^ x27: .cfa -80 + ^ .ra: .cfa -88 + ^ x29: .cfa -96 + ^
STACK CFI 65e04 .cfa: sp 224 +
STACK CFI 65e20 .cfa: sp 0 +
STACK CFI 65e24 .cfa: x29 96 +
STACK CFI 65ef0 .cfa: sp 224 +
STACK CFI 65f0c .cfa: sp 0 +
STACK CFI 65f10 .cfa: x29 96 +
STACK CFI INIT 66014 300 .cfa: sp 0 +
STACK CFI 66018 .cfa: sp 192 +
STACK CFI 6602c .cfa: x29 64 + x19: .cfa -8 + ^ x20: .cfa -16 + ^ x21: .cfa -24 + ^ x22: .cfa -32 + ^ x23: .cfa -48 + ^ .ra: .cfa -56 + ^ x29: .cfa -64 + ^
STACK CFI 6620c .cfa: sp 192 +
STACK CFI 66220 .cfa: sp 0 +
STACK CFI 66224 .cfa: x29 64 +
STACK CFI INIT 66410 a8 .cfa: sp 0 +
STACK CFI 66414 .cfa: sp 32 +
STACK CFI 6641c .cfa: x29 32 + x19: .cfa -16 + ^ .ra: .cfa -24 + ^ x29: .cfa -32 + ^
STACK CFI 66450 .cfa: sp 32 +
STACK CFI 66458 .cfa: sp 0 +
STACK CFI 6645c .cfa: x29 32 +
STACK CFI 66460 .cfa: sp 32 +
STACK CFI 66468 .cfa: sp 0 +
STACK CFI 6646c .cfa: x29 32 +
STACK CFI INIT 66550 470 .cfa: sp 0 +
STACK CFI 66554 .cfa: sp 224 +
STACK CFI 66570 .cfa: x29 96 + x19: .cfa -8 + ^ x20: .cfa -16 + ^ x21: .cfa -24 + ^ x22: .cfa -32 + ^ x23: .cfa -40 + ^ x24: .cfa -48 + ^ x25: .cfa -56 + ^ x26: .cfa -64 + ^ x27: .cfa -80 + ^ .ra: .cfa -88 + ^ x29: .cfa -96 + ^
STACK CFI 667cc .cfa: sp 224 +
STACK CFI 667e8 .cfa: sp 0 +
STACK CFI 667ec .cfa: x29 96 +
STACK CFI 668b8 .cfa: sp 224 +
STACK CFI 668d4 .cfa: sp 0 +
STACK CFI 668d8 .cfa: x29 96 +
STACK CFI INIT 669dc 300 .cfa: sp 0 +
STACK CFI 669e0 .cfa: sp 192 +
STACK CFI 669f4 .cfa: x29 64 + x19: .cfa -8 + ^ x20: .cfa -16 + ^ x21: .cfa -24 + ^ x22: .cfa -32 + ^ x23: .cfa -48 + ^ .ra: .cfa -56 + ^ x29: .cfa -64 + ^
STACK CFI 66bd4 .cfa: sp 192 +
STACK CFI 66be8 .cfa: sp 0 +
STACK CFI 66bec .cfa: x29 64 +
STACK CFI INIT 66dd8 a8 .cfa: sp 0 +
STACK CFI 66ddc .cfa: sp 32 +
STACK CFI 66de4 .cfa: x29 32 + x19: .cfa -16 + ^ .ra: .cfa -24 + ^ x29: .cfa -32 + ^
STACK CFI 66e18 .cfa: sp 32 +
STACK CFI 66e20 .cfa: sp 0 +
STACK CFI 66e24 .cfa: x29 32 +
STACK CFI 66e28 .cfa: sp 32 +
STACK CFI 66e30 .cfa: sp 0 +
STACK CFI 66e34 .cfa: x29 32 +
STACK CFI INIT 66f28 170 .cfa: sp 0 +
STACK CFI 66f2c .cfa: sp 128 +
STACK CFI 66f38 .cfa: x29 32 + x19: .cfa -8 + ^ x20: .cfa -16 + ^ .ra: .cfa -24 + ^ x29: .cfa -32 + ^
STACK CFI 67014 .cfa: sp 128 +
STACK CFI 67020 .cfa: sp 0 +
STACK CFI 67024 .cfa: x29 32 +
STACK CFI INIT 67260 470 .cfa: sp 0 +
STACK CFI 67264 .cfa: sp 224 +
STACK CFI 67280 .cfa: x29 96 + x19: .cfa -8 + ^ x20: .cfa -16 + ^ x21: .cfa -24 + ^ x22: .cfa -32 + ^ x23: .cfa -40 + ^ x24: .cfa -48 + ^ x25: .cfa -56 + ^ x26: .cfa -64 + ^ x27: .cfa -80 + ^ .ra: .cfa -88 + ^ x29: .cfa -96 + ^
STACK CFI 674dc .cfa: sp 224 +
STACK CFI 674f8 .cfa: sp 0 +
STACK CFI 674fc .cfa: x29 96 +
STACK CFI 675c8 .cfa: sp 224 +
STACK CFI 675e4 .cfa: sp 0 +
STACK CFI 675e8 .cfa: x29 96 +
STACK CFI INIT 676ec 36c .cfa: sp 0 +
STACK CFI 676f0 .cfa: sp 240 +
STACK CFI 67704 .cfa: x29 64 + x19: .cfa -8 + ^ x20: .cfa -16 + ^ x21: .cfa -24 + ^ x22: .cfa -32 + ^ x23: .cfa -40 + ^ x24: .cfa -48 + ^ .ra: .cfa -56 + ^ x29: .cfa -64 + ^
STACK CFI 6792c .cfa: sp 240 +
STACK CFI 67940 .cfa: sp 0 +
STACK CFI 67944 .cfa: x29 64 +
STACK CFI INIT 67bcc 470 .cfa: sp 0 +
STACK CFI 67bd0 .cfa: sp 224 +
STACK CFI 67bec .cfa: x29 96 + x19: .cfa -8 + ^ x20: .cfa -16 + ^ x21: .cfa -24 + ^ x22: .cfa -32 + ^ x23: .cfa -40 + ^ x24: .cfa -48 + ^ x25: .cfa -56 + ^ x26: .cfa -64 + ^ x27: .cfa -80 + ^ .ra: .cfa -88 + ^ x29: .cfa -96 + ^
STACK CFI 67e48 .cfa: sp 224 +
STACK CFI 67e64 .cfa: sp 0 +
STACK CFI 67e68 .cfa: x29 96 +
STACK CFI 67f34 .cfa: sp 224 +
STACK CFI 67f50 .cfa: sp 0 +
STACK CFI 67f54 .cfa: x29 96 +
STACK CFI INIT 68058 358 .cfa: sp 0 +
STACK CFI 6805c .cfa: sp 208 +
STACK CFI 68070 .cfa: x29 64 + x19: .cfa -8 + ^ x20: .cfa -16 + ^ x21: .cfa -24 + ^ x22: .cfa -32 + ^ x23: .cfa -48 + ^ .ra: .cfa -56 + ^ x29: .cfa -64 + ^
STACK CFI 6828c .cfa: sp 208 +
STACK CFI 682a0 .cfa: sp 0 +
STACK CFI 682a4 .cfa: x29 64 +
STACK CFI INIT 68634 470 .cfa: sp 0 +
STACK CFI 68638 .cfa: sp 224 +
STACK CFI 68654 .cfa: x29 96 + x19: .cfa -8 + ^ x20: .cfa -16 + ^ x21: .cfa -24 + ^ x22: .cfa -32 + ^ x23: .cfa -40 + ^ x24: .cfa -48 + ^ x25: .cfa -56 + ^ x26: .cfa -64 + ^ x27: .cfa -80 + ^ .ra: .cfa -88 + ^ x29: .cfa -96 + ^
STACK CFI 688b0 .cfa: sp 224 +
STACK CFI 688cc .cfa: sp 0 +
STACK CFI 688d0 .cfa: x29 96 +
STACK CFI 6899c .cfa: sp 224 +
STACK CFI 689b8 .cfa: sp 0 +
STACK CFI 689bc .cfa: x29 96 +
STACK CFI INIT 68ac0 2fc .cfa: sp 0 +
STACK CFI 68ac4 .cfa: sp 192 +
STACK CFI 68ad8 .cfa: x29 64 + x19: .cfa -8 + ^ x20: .cfa -16 + ^ x21: .cfa -24 + ^ x22: .cfa -32 + ^ x23: .cfa -48 + ^ .ra: .cfa -56 + ^ x29: .cfa -64 + ^
STACK CFI 68cb4 .cfa: sp 192 +
STACK CFI 68cc8 .cfa: sp 0 +
STACK CFI 68ccc .cfa: x29 64 +
STACK CFI INIT 69040 a8 .cfa: sp 0 +
STACK CFI 69044 .cfa: sp 32 +
STACK CFI 6904c .cfa: x29 32 + x19: .cfa -16 + ^ .ra: .cfa -24 + ^ x29: .cfa -32 + ^
STACK CFI 69080 .cfa: sp 32 +
STACK CFI 69088 .cfa: sp 0 +
STACK CFI 6908c .cfa: x29 32 +
STACK CFI 69090 .cfa: sp 32 +
STACK CFI 69098 .cfa: sp 0 +
STACK CFI 6909c .cfa: x29 32 +
STACK CFI INIT 6919c 178 .cfa: sp 0 +
STACK CFI 691a0 .cfa: sp 128 +
STACK CFI 691ac .cfa: x29 32 + x19: .cfa -8 + ^ x20: .cfa -16 + ^ .ra: .cfa -24 + ^ x29: .cfa -32 + ^
STACK CFI 69290 .cfa: sp 128 +
STACK CFI 6929c .cfa: sp 0 +
STACK CFI 692a0 .cfa: x29 32 +
STACK CFI INIT 694dc 168 .cfa: sp 0 +
STACK CFI 694e0 .cfa: sp 128 +
STACK CFI 694ec .cfa: x29 32 + x19: .cfa -8 + ^ x20: .cfa -16 + ^ .ra: .cfa -24 + ^ x29: .cfa -32 + ^
STACK CFI 695c0 .cfa: sp 128 +
STACK CFI 695cc .cfa: sp 0 +
STACK CFI 695d0 .cfa: x29 32 +
STACK CFI INIT 69684 188 .cfa: sp 0 +
STACK CFI 69688 .cfa: sp 80 +
STACK CFI 69698 .cfa: x29 48 + x19: .cfa -8 + ^ x20: .cfa -16 + ^ x21: .cfa -32 + ^ .ra: .cfa -40 + ^ x29: .cfa -48 + ^
STACK CFI 697c8 .cfa: sp 80 +
STACK CFI 697d8 .cfa: sp 0 +
STACK CFI 697dc .cfa: x29 48 +
STACK CFI INIT 69834 174 .cfa: sp 0 +
STACK CFI 69838 .cfa: sp 128 +
STACK CFI 69844 .cfa: x29 32 + x19: .cfa -8 + ^ x20: .cfa -16 + ^ .ra: .cfa -24 + ^ x29: .cfa -32 + ^
STACK CFI 69924 .cfa: sp 128 +
STACK CFI 69930 .cfa: sp 0 +
STACK CFI 69934 .cfa: x29 32 +
STACK CFI INIT 69ae8 16c .cfa: sp 0 +
STACK CFI 69aec .cfa: sp 128 +
STACK CFI 69af8 .cfa: x29 32 + x19: .cfa -8 + ^ x20: .cfa -16 + ^ .ra: .cfa -24 + ^ x29: .cfa -32 + ^
STACK CFI 69bd0 .cfa: sp 128 +
STACK CFI 69bdc .cfa: sp 0 +
STACK CFI 69be0 .cfa: x29 32 +
STACK CFI INIT 69e1c 16c .cfa: sp 0 +
STACK CFI 69e20 .cfa: sp 128 +
STACK CFI 69e2c .cfa: x29 32 + x19: .cfa -8 + ^ x20: .cfa -16 + ^ .ra: .cfa -24 + ^ x29: .cfa -32 + ^
STACK CFI 69f04 .cfa: sp 128 +
STACK CFI 69f10 .cfa: sp 0 +
STACK CFI 69f14 .cfa: x29 32 +
STACK CFI INIT 6a150 178 .cfa: sp 0 +
STACK CFI 6a154 .cfa: sp 128 +
STACK CFI 6a160 .cfa: x29 32 + x19: .cfa -8 + ^ x20: .cfa -16 + ^ .ra: .cfa -24 + ^ x29: .cfa -32 + ^
STACK CFI 6a244 .cfa: sp 128 +
STACK CFI 6a250 .cfa: sp 0 +
STACK CFI 6a254 .cfa: x29 32 +
STACK CFI INIT 6a408 184 .cfa: sp 0 +
STACK CFI 6a40c .cfa: sp 128 +
STACK CFI 6a418 .cfa: x29 32 + x19: .cfa -8 + ^ x20: .cfa -16 + ^ .ra: .cfa -24 + ^ x29: .cfa -32 + ^
STACK CFI 6a508 .cfa: sp 128 +
STACK CFI 6a514 .cfa: sp 0 +
STACK CFI 6a518 .cfa: x29 32 +
STACK CFI INIT 6a6cc 164 .cfa: sp 0 +
STACK CFI 6a6d0 .cfa: sp 128 +
STACK CFI 6a6dc .cfa: x29 32 + x19: .cfa -8 + ^ x20: .cfa -16 + ^ .ra: .cfa -24 + ^ x29: .cfa -32 + ^
STACK CFI 6a7ac .cfa: sp 128 +
STACK CFI 6a7b8 .cfa: sp 0 +
STACK CFI 6a7bc .cfa: x29 32 +
STACK CFI INIT 6a970 16c .cfa: sp 0 +
STACK CFI 6a974 .cfa: sp 128 +
STACK CFI 6a980 .cfa: x29 32 + x19: .cfa -8 + ^ x20: .cfa -16 + ^ .ra: .cfa -24 + ^ x29: .cfa -32 + ^
STACK CFI 6aa58 .cfa: sp 128 +
STACK CFI 6aa64 .cfa: sp 0 +
STACK CFI 6aa68 .cfa: x29 32 +
STACK CFI INIT 6ac1c 170 .cfa: sp 0 +
STACK CFI 6ac20 .cfa: sp 128 +
STACK CFI 6ac2c .cfa: x29 32 + x19: .cfa -8 + ^ x20: .cfa -16 + ^ .ra: .cfa -24 + ^ x29: .cfa -32 + ^
STACK CFI 6ad08 .cfa: sp 128 +
STACK CFI 6ad14 .cfa: sp 0 +
STACK CFI 6ad18 .cfa: x29 32 +
STACK CFI INIT 6aecc 178 .cfa: sp 0 +
STACK CFI 6aed0 .cfa: sp 128 +
STACK CFI 6aedc .cfa: x29 32 + x19: .cfa -8 + ^ x20: .cfa -16 + ^ .ra: .cfa -24 + ^ x29: .cfa -32 + ^
STACK CFI 6afc0 .cfa: sp 128 +
STACK CFI 6afcc .cfa: sp 0 +
STACK CFI 6afd0 .cfa: x29 32 +
STACK CFI INIT 6b184 178 .cfa: sp 0 +
STACK CFI 6b188 .cfa: sp 128 +
STACK CFI 6b194 .cfa: x29 32 + x19: .cfa -8 + ^ x20: .cfa -16 + ^ .ra: .cfa -24 + ^ x29: .cfa -32 + ^
STACK CFI 6b278 .cfa: sp 128 +
STACK CFI 6b284 .cfa: sp 0 +
STACK CFI 6b288 .cfa: x29 32 +
STACK CFI INIT 6b43c e8 .cfa: sp 0 +
STACK CFI 6b440 .cfa: sp 64 +
STACK CFI 6b44c .cfa: x29 32 + x19: .cfa -8 + ^ x20: .cfa -16 + ^ .ra: .cfa -24 + ^ x29: .cfa -32 + ^
STACK CFI 6b4d8 .cfa: sp 64 +
STACK CFI 6b4e4 .cfa: sp 0 +
STACK CFI 6b4e8 .cfa: x29 32 +
STACK CFI INIT 6b524 14c .cfa: sp 0 +
STACK CFI 6b528 .cfa: sp 128 +
STACK CFI 6b534 .cfa: x29 32 + x19: .cfa -8 + ^ x20: .cfa -16 + ^ .ra: .cfa -24 + ^ x29: .cfa -32 + ^
STACK CFI 6b5e8 .cfa: sp 128 +
STACK CFI 6b5f4 .cfa: sp 0 +
STACK CFI 6b5f8 .cfa: x29 32 +
STACK CFI INIT 6b7cc 16c .cfa: sp 0 +
STACK CFI 6b7d0 .cfa: sp 128 +
STACK CFI 6b7dc .cfa: x29 32 + x19: .cfa -8 + ^ x20: .cfa -16 + ^ .ra: .cfa -24 + ^ x29: .cfa -32 + ^
STACK CFI 6b8b4 .cfa: sp 128 +
STACK CFI 6b8c0 .cfa: sp 0 +
STACK CFI 6b8c4 .cfa: x29 32 +
STACK CFI INIT 6ba78 178 .cfa: sp 0 +
STACK CFI 6ba7c .cfa: sp 128 +
STACK CFI 6ba88 .cfa: x29 32 + x19: .cfa -8 + ^ x20: .cfa -16 + ^ .ra: .cfa -24 + ^ x29: .cfa -32 + ^
STACK CFI 6bb6c .cfa: sp 128 +
STACK CFI 6bb78 .cfa: sp 0 +
STACK CFI 6bb7c .cfa: x29 32 +
STACK CFI INIT 6bd30 17c .cfa: sp 0 +
STACK CFI 6bd34 .cfa: sp 128 +
STACK CFI 6bd40 .cfa: x29 32 + x19: .cfa -8 + ^ x20: .cfa -16 + ^ .ra: .cfa -24 + ^ x29: .cfa -32 + ^
STACK CFI 6be28 .cfa: sp 128 +
STACK CFI 6be34 .cfa: sp 0 +
STACK CFI 6be38 .cfa: x29 32 +
STACK CFI INIT 6c074 184 .cfa: sp 0 +
STACK CFI 6c078 .cfa: sp 128 +
STACK CFI 6c084 .cfa: x29 32 + x19: .cfa -8 + ^ x20: .cfa -16 + ^ .ra: .cfa -24 + ^ x29: .cfa -32 + ^
STACK CFI 6c174 .cfa: sp 128 +
STACK CFI 6c180 .cfa: sp 0 +
STACK CFI 6c184 .cfa: x29 32 +
STACK CFI INIT 6c338 170 .cfa: sp 0 +
STACK CFI 6c33c .cfa: sp 128 +
STACK CFI 6c348 .cfa: x29 32 + x19: .cfa -8 + ^ x20: .cfa -16 + ^ .ra: .cfa -24 + ^ x29: .cfa -32 + ^
STACK CFI 6c424 .cfa: sp 128 +
STACK CFI 6c430 .cfa: sp 0 +
STACK CFI 6c434 .cfa: x29 32 +
STACK CFI INIT 6c670 180 .cfa: sp 0 +
STACK CFI 6c674 .cfa: sp 128 +
STACK CFI 6c680 .cfa: x29 32 + x19: .cfa -8 + ^ x20: .cfa -16 + ^ .ra: .cfa -24 + ^ x29: .cfa -32 + ^
STACK CFI 6c76c .cfa: sp 128 +
STACK CFI 6c778 .cfa: sp 0 +
STACK CFI 6c77c .cfa: x29 32 +
STACK CFI INIT 6c9f4 134 .cfa: sp 0 +
STACK CFI 6c9f8 .cfa: sp 80 +
STACK CFI 6ca04 .cfa: x29 32 + x19: .cfa -8 + ^ x20: .cfa -16 + ^ .ra: .cfa -24 + ^ x29: .cfa -32 + ^
STACK CFI 6ca34 .cfa: sp 80 +
STACK CFI 6ca40 .cfa: sp 0 +
STACK CFI 6ca44 .cfa: x29 32 +
STACK CFI INIT 6cb28 78 .cfa: sp 0 +
STACK CFI 6cb2c .cfa: sp 32 +
STACK CFI 6cb34 .cfa: x29 32 + x19: .cfa -8 + ^ x20: .cfa -16 + ^ .ra: .cfa -24 + ^ x29: .cfa -32 + ^
STACK CFI 6cb40 .cfa: sp 32 +
STACK CFI 6cb48 .cfa: sp 0 +
STACK CFI 6cb4c .cfa: x29 32 +
STACK CFI INIT 6cba0 74 .cfa: sp 0 +
STACK CFI 6cba4 .cfa: sp 48 +
STACK CFI 6cbb0 .cfa: x29 32 + x19: .cfa -8 + ^ x20: .cfa -16 + ^ .ra: .cfa -24 + ^ x29: .cfa -32 + ^
STACK CFI 6cbfc .cfa: sp 48 +
STACK CFI 6cc08 .cfa: sp 0 +
STACK CFI 6cc0c .cfa: x29 32 +
STACK CFI INIT 6cc78 224 .cfa: sp 0 +
STACK CFI 6cc7c .cfa: sp 128 +
STACK CFI 6cc8c .cfa: x29 48 + x19: .cfa -8 + ^ x20: .cfa -16 + ^ x21: .cfa -32 + ^ .ra: .cfa -40 + ^ x29: .cfa -48 + ^
STACK CFI 6cd3c .cfa: sp 128 +
STACK CFI 6cd4c .cfa: sp 0 +
STACK CFI 6cd50 .cfa: x29 48 +
STACK CFI INIT 6cec0 25c .cfa: sp 0 +
STACK CFI 6cec4 .cfa: sp 128 +
STACK CFI 6ced4 .cfa: x29 48 + x19: .cfa -8 + ^ x20: .cfa -16 + ^ x21: .cfa -32 + ^ .ra: .cfa -40 + ^ x29: .cfa -48 + ^
STACK CFI 6cfbc .cfa: sp 128 +
STACK CFI 6cfcc .cfa: sp 0 +
STACK CFI 6cfd0 .cfa: x29 48 +
STACK CFI INIT 6d140 284 .cfa: sp 0 +
STACK CFI 6d144 .cfa: sp 128 +
STACK CFI 6d154 .cfa: x29 48 + x19: .cfa -8 + ^ x20: .cfa -16 + ^ x21: .cfa -32 + ^ .ra: .cfa -40 + ^ x29: .cfa -48 + ^
STACK CFI 6d26c .cfa: sp 128 +
STACK CFI 6d27c .cfa: sp 0 +
STACK CFI 6d280 .cfa: x29 48 +
STACK CFI INIT 6d418 300 .cfa: sp 0 +
STACK CFI 6d41c .cfa: sp 144 +
STACK CFI 6d430 .cfa: x29 64 + x19: .cfa -8 + ^ x20: .cfa -16 + ^ x21: .cfa -24 + ^ x22: .cfa -32 + ^ x23: .cfa -48 + ^ .ra: .cfa -56 + ^ x29: .cfa -64 + ^
STACK CFI 6d5c4 .cfa: sp 144 +
STACK CFI 6d5d8 .cfa: sp 0 +
STACK CFI 6d5dc .cfa: x29 64 +
STACK CFI INIT 6d76c 264 .cfa: sp 0 +
STACK CFI 6d770 .cfa: sp 128 +
STACK CFI 6d780 .cfa: x29 48 + x19: .cfa -8 + ^ x20: .cfa -16 + ^ x21: .cfa -32 + ^ .ra: .cfa -40 + ^ x29: .cfa -48 + ^
STACK CFI 6d878 .cfa: sp 128 +
STACK CFI 6d888 .cfa: sp 0 +
STACK CFI 6d88c .cfa: x29 48 +
STACK CFI INIT 6da24 270 .cfa: sp 0 +
STACK CFI 6da28 .cfa: sp 144 +
STACK CFI 6da3c .cfa: x29 64 + x19: .cfa -8 + ^ x20: .cfa -16 + ^ x21: .cfa -24 + ^ x22: .cfa -32 + ^ x23: .cfa -48 + ^ .ra: .cfa -56 + ^ x29: .cfa -64 + ^
STACK CFI 6db40 .cfa: sp 144 +
STACK CFI 6db54 .cfa: sp 0 +
STACK CFI 6db58 .cfa: x29 64 +
STACK CFI INIT 6dcb8 22c .cfa: sp 0 +
STACK CFI 6dcbc .cfa: sp 128 +
STACK CFI 6dccc .cfa: x29 48 + x19: .cfa -8 + ^ x20: .cfa -16 + ^ x21: .cfa -32 + ^ .ra: .cfa -40 + ^ x29: .cfa -48 + ^
STACK CFI 6dd84 .cfa: sp 128 +
STACK CFI 6dd94 .cfa: sp 0 +
STACK CFI 6dd98 .cfa: x29 48 +
STACK CFI INIT 6dee4 224 .cfa: sp 0 +
STACK CFI 6dee8 .cfa: sp 128 +
STACK CFI 6def8 .cfa: x29 48 + x19: .cfa -8 + ^ x20: .cfa -16 + ^ x21: .cfa -32 + ^ .ra: .cfa -40 + ^ x29: .cfa -48 + ^
STACK CFI 6dfa8 .cfa: sp 128 +
STACK CFI 6dfb8 .cfa: sp 0 +
STACK CFI 6dfbc .cfa: x29 48 +
STACK CFI INIT 6e108 268 .cfa: sp 0 +
STACK CFI 6e10c .cfa: sp 144 +
STACK CFI 6e120 .cfa: x29 64 + x19: .cfa -8 + ^ x20: .cfa -16 + ^ x21: .cfa -24 + ^ x22: .cfa -32 + ^ x23: .cfa -48 + ^ .ra: .cfa -56 + ^ x29: .cfa -64 + ^
STACK CFI 6e21c .cfa: sp 144 +
STACK CFI 6e230 .cfa: sp 0 +
STACK CFI 6e234 .cfa: x29 64 +
STACK CFI INIT 6e484 1b8 .cfa: sp 0 +
STACK CFI 6e488 .cfa: sp 160 +
STACK CFI 6e4a4 .cfa: x29 72 + x19: .cfa -8 + ^ x20: .cfa -16 + ^ x21: .cfa -24 + ^ x22: .cfa -32 + ^ x23: .cfa -40 + ^ x24: .cfa -48 + ^ x25: .cfa -56 + ^ .ra: .cfa -64 + ^ x29: .cfa -72 + ^ v8: .cfa -80 + ^
STACK CFI 6e528 .cfa: sp 160 +
STACK CFI 6e544 .cfa: sp 0 +
STACK CFI 6e548 .cfa: x29 72 +
STACK CFI INIT 6e63c 3d0 .cfa: sp 0 +
STACK CFI 6e640 .cfa: sp 96 +
STACK CFI 6e658 .cfa: x29 80 + x19: .cfa -8 + ^ x20: .cfa -16 + ^ x21: .cfa -24 + ^ x22: .cfa -32 + ^ x23: .cfa -40 + ^ x24: .cfa -48 + ^ x25: .cfa -64 + ^ .ra: .cfa -72 + ^ x29: .cfa -80 + ^
STACK CFI 6e988 .cfa: sp 96 +
STACK CFI 6e9a0 .cfa: sp 0 +
STACK CFI 6e9a4 .cfa: x29 80 +
STACK CFI INIT 6ea0c ac .cfa: sp 0 +
STACK CFI 6ea10 .cfa: sp 64 +
STACK CFI 6ea20 .cfa: x29 48 + x19: .cfa -8 + ^ x20: .cfa -16 + ^ x21: .cfa -32 + ^ .ra: .cfa -40 + ^ x29: .cfa -48 + ^
STACK CFI 6ea7c .cfa: sp 64 +
STACK CFI 6ea8c .cfa: sp 0 +
STACK CFI 6ea90 .cfa: x29 48 +
STACK CFI INIT 6eaf4 2e4 .cfa: sp 0 +
STACK CFI 6eaf8 .cfa: sp 144 +
STACK CFI 6eb0c .cfa: x29 64 + x19: .cfa -8 + ^ x20: .cfa -16 + ^ x21: .cfa -24 + ^ x22: .cfa -32 + ^ x23: .cfa -48 + ^ .ra: .cfa -56 + ^ x29: .cfa -64 + ^
STACK CFI 6ec84 .cfa: sp 144 +
STACK CFI 6ec98 .cfa: sp 0 +
STACK CFI 6ec9c .cfa: x29 64 +
STACK CFI INIT 6edd8 2f0 .cfa: sp 0 +
STACK CFI 6eddc .cfa: sp 144 +
STACK CFI 6edf0 .cfa: x29 64 + x19: .cfa -8 + ^ x20: .cfa -16 + ^ x21: .cfa -24 + ^ x22: .cfa -32 + ^ x23: .cfa -48 + ^ .ra: .cfa -56 + ^ x29: .cfa -64 + ^
STACK CFI 6ef74 .cfa: sp 144 +
STACK CFI 6ef88 .cfa: sp 0 +
STACK CFI 6ef8c .cfa: x29 64 +
STACK CFI INIT 6f0c8 2a0 .cfa: sp 0 +
STACK CFI 6f0cc .cfa: sp 144 +
STACK CFI 6f0e0 .cfa: x29 64 + x19: .cfa -8 + ^ x20: .cfa -16 + ^ x21: .cfa -24 + ^ x22: .cfa -32 + ^ x23: .cfa -48 + ^ .ra: .cfa -56 + ^ x29: .cfa -64 + ^
STACK CFI 6f214 .cfa: sp 144 +
STACK CFI 6f228 .cfa: sp 0 +
STACK CFI 6f22c .cfa: x29 64 +
STACK CFI INIT 6f368 2e4 .cfa: sp 0 +
STACK CFI 6f36c .cfa: sp 144 +
STACK CFI 6f380 .cfa: x29 64 + x19: .cfa -8 + ^ x20: .cfa -16 + ^ x21: .cfa -24 + ^ x22: .cfa -32 + ^ x23: .cfa -48 + ^ .ra: .cfa -56 + ^ x29: .cfa -64 + ^
STACK CFI 6f4f8 .cfa: sp 144 +
STACK CFI 6f50c .cfa: sp 0 +
STACK CFI 6f510 .cfa: x29 64 +
STACK CFI INIT 6f64c 4f4 .cfa: sp 0 +
STACK CFI 6f650 .cfa: sp 144 +
STACK CFI 6f664 .cfa: x29 64 + x19: .cfa -8 + ^ x20: .cfa -16 + ^ x21: .cfa -24 + ^ x22: .cfa -32 + ^ x23: .cfa -48 + ^ .ra: .cfa -56 + ^ x29: .cfa -64 + ^
STACK CFI 6f998 .cfa: sp 144 +
STACK CFI 6f9ac .cfa: sp 0 +
STACK CFI 6f9b0 .cfa: x29 64 +
STACK CFI INIT 6fb40 154 .cfa: sp 0 +
STACK CFI 6fb44 .cfa: sp 384 +
STACK CFI 6fb58 .cfa: x29 64 + x19: .cfa -8 + ^ x20: .cfa -16 + ^ x21: .cfa -24 + ^ x22: .cfa -32 + ^ x23: .cfa -40 + ^ x28: .cfa -48 + ^ .ra: .cfa -56 + ^ x29: .cfa -64 + ^
STACK CFI 6fc3c .cfa: sp 384 +
STACK CFI 6fc50 .cfa: sp 0 +
STACK CFI 6fc54 .cfa: x29 64 +
STACK CFI INIT 6fc94 168 .cfa: sp 0 +
STACK CFI 6fc98 .cfa: sp 384 +
STACK CFI 6fcac .cfa: x29 64 + x19: .cfa -8 + ^ x20: .cfa -16 + ^ x21: .cfa -24 + ^ x22: .cfa -32 + ^ x23: .cfa -40 + ^ x28: .cfa -48 + ^ .ra: .cfa -56 + ^ x29: .cfa -64 + ^
STACK CFI 6fda4 .cfa: sp 384 +
STACK CFI 6fdb8 .cfa: sp 0 +
STACK CFI 6fdbc .cfa: x29 64 +
STACK CFI INIT 6fe14 50c .cfa: sp 0 +
STACK CFI 6fe18 .cfa: sp 64 +
STACK CFI 6fe28 .cfa: x29 64 + x19: .cfa -8 + ^ x20: .cfa -16 + ^ x21: .cfa -24 + ^ x22: .cfa -32 + ^ x23: .cfa -40 + ^ x24: .cfa -48 + ^ .ra: .cfa -56 + ^ x29: .cfa -64 + ^
STACK CFI 6ff48 .cfa: sp 64 +
STACK CFI 6ff58 .cfa: sp 0 +
STACK CFI 6ff5c .cfa: x29 64 +
STACK CFI 702f4 .cfa: sp 64 +
STACK CFI 70304 .cfa: sp 0 +
STACK CFI 70308 .cfa: x29 64 +
STACK CFI INIT 70650 294 .cfa: sp 0 +
STACK CFI 70654 .cfa: sp 240 +
STACK CFI 7066c .cfa: x29 80 + x19: .cfa -8 + ^ x20: .cfa -16 + ^ x21: .cfa -24 + ^ x22: .cfa -32 + ^ x23: .cfa -40 + ^ x24: .cfa -48 + ^ x25: .cfa -64 + ^ .ra: .cfa -72 + ^ x29: .cfa -80 + ^
STACK CFI 7080c .cfa: sp 240 +
STACK CFI 70824 .cfa: sp 0 +
STACK CFI 70828 .cfa: x29 80 +
STACK CFI INIT 70960 50 .cfa: sp 0 +
STACK CFI 70964 .cfa: sp 32 +
STACK CFI 7096c .cfa: x29 32 + x19: .cfa -8 + ^ x20: .cfa -16 + ^ .ra: .cfa -24 + ^ x29: .cfa -32 + ^
STACK CFI INIT 709dc 7c0 .cfa: sp 0 +
STACK CFI 709e0 .cfa: sp 320 +
STACK CFI 709fc .cfa: x29 96 + x19: .cfa -8 + ^ x20: .cfa -16 + ^ x21: .cfa -24 + ^ x22: .cfa -32 + ^ x23: .cfa -40 + ^ x24: .cfa -48 + ^ x25: .cfa -56 + ^ x26: .cfa -64 + ^ x27: .cfa -72 + ^ x28: .cfa -80 + ^ .ra: .cfa -88 + ^ x29: .cfa -96 + ^
STACK CFI 7104c .cfa: sp 320 +
STACK CFI 71068 .cfa: sp 0 +
STACK CFI 7106c .cfa: x29 96 +
STACK CFI INIT 71200 14c .cfa: sp 0 +
STACK CFI 71204 .cfa: sp 80 +
STACK CFI 71218 .cfa: x29 80 + x19: .cfa -8 + ^ x20: .cfa -16 + ^ x21: .cfa -24 + ^ x22: .cfa -32 + ^ x23: .cfa -40 + ^ x24: .cfa -48 + ^ x28: .cfa -64 + ^ .ra: .cfa -72 + ^ x29: .cfa -80 + ^
STACK CFI 712ac .cfa: sp 80 +
STACK CFI 712c0 .cfa: sp 0 +
STACK CFI 712c4 .cfa: x29 80 +
STACK CFI INIT 75654 c74 .cfa: sp 0 +
STACK CFI 75658 .cfa: sp 96 +
STACK CFI 75670 .cfa: x29 96 + x19: .cfa -8 + ^ x20: .cfa -16 + ^ x21: .cfa -24 + ^ x22: .cfa -32 + ^ x23: .cfa -40 + ^ x24: .cfa -48 + ^ x25: .cfa -56 + ^ x26: .cfa -64 + ^ x27: .cfa -72 + ^ x28: .cfa -80 + ^ .ra: .cfa -88 + ^ x29: .cfa -96 + ^
STACK CFI 760e4 .cfa: sp 96 +
STACK CFI 760fc .cfa: sp 0 +
STACK CFI 76100 .cfa: x29 96 +
STACK CFI INIT 7641c 268 .cfa: sp 0 +
STACK CFI 76420 .cfa: sp 128 +
STACK CFI 76430 .cfa: x29 48 + x19: .cfa -8 + ^ x20: .cfa -16 + ^ x21: .cfa -24 + ^ x22: .cfa -32 + ^ .ra: .cfa -40 + ^ x29: .cfa -48 + ^
STACK CFI 765d0 .cfa: sp 128 +
STACK CFI 765e0 .cfa: sp 0 +
STACK CFI 765e4 .cfa: x29 48 +
STACK CFI INIT 76a14 3b8 .cfa: sp 0 +
STACK CFI 76a18 .cfa: sp 96 +
STACK CFI 76a30 .cfa: x29 96 + x19: .cfa -8 + ^ x20: .cfa -16 + ^ x21: .cfa -24 + ^ x22: .cfa -32 + ^ x23: .cfa -40 + ^ x24: .cfa -48 + ^ x25: .cfa -56 + ^ x26: .cfa -64 + ^ x27: .cfa -72 + ^ x28: .cfa -80 + ^ .ra: .cfa -88 + ^ x29: .cfa -96 + ^
STACK CFI 76d6c .cfa: sp 96 +
STACK CFI 76d84 .cfa: sp 0 +
STACK CFI 76d88 .cfa: x29 96 +
STACK CFI INIT 76e6c cb0 .cfa: sp 0 +
STACK CFI 76e70 .cfa: sp 96 +
STACK CFI 76e88 .cfa: x29 96 + x19: .cfa -8 + ^ x20: .cfa -16 + ^ x21: .cfa -24 + ^ x22: .cfa -32 + ^ x23: .cfa -40 + ^ x24: .cfa -48 + ^ x25: .cfa -56 + ^ x26: .cfa -64 + ^ x27: .cfa -72 + ^ x28: .cfa -80 + ^ .ra: .cfa -88 + ^ x29: .cfa -96 + ^
STACK CFI 7792c .cfa: sp 96 +
STACK CFI 77944 .cfa: sp 0 +
STACK CFI 77948 .cfa: x29 96 +
STACK CFI INIT 77e04 ae4 .cfa: sp 0 +
STACK CFI 77e08 .cfa: sp 96 +
STACK CFI 77e20 .cfa: x29 96 + x19: .cfa -8 + ^ x20: .cfa -16 + ^ x21: .cfa -24 + ^ x22: .cfa -32 + ^ x23: .cfa -40 + ^ x24: .cfa -48 + ^ x25: .cfa -56 + ^ x26: .cfa -64 + ^ x27: .cfa -72 + ^ x28: .cfa -80 + ^ .ra: .cfa -88 + ^ x29: .cfa -96 + ^
STACK CFI 7885c .cfa: sp 96 +
STACK CFI 78874 .cfa: sp 0 +
STACK CFI 78878 .cfa: x29 96 +
STACK CFI INIT 78ac4 1424 .cfa: sp 0 +
STACK CFI 78ac8 .cfa: sp 96 +
STACK CFI 78ae0 .cfa: x29 96 + x19: .cfa -8 + ^ x20: .cfa -16 + ^ x21: .cfa -24 + ^ x22: .cfa -32 + ^ x23: .cfa -40 + ^ x24: .cfa -48 + ^ x25: .cfa -56 + ^ x26: .cfa -64 + ^ x27: .cfa -72 + ^ x28: .cfa -80 + ^ .ra: .cfa -88 + ^ x29: .cfa -96 + ^
STACK CFI 79d78 .cfa: sp 96 +
STACK CFI 79d90 .cfa: sp 0 +
STACK CFI 79d94 .cfa: x29 96 +
STACK CFI INIT 7a00c 75c .cfa: sp 0 +
STACK CFI 7a010 .cfa: sp 368 +
STACK CFI 7a02c .cfa: x29 96 + x19: .cfa -8 + ^ x20: .cfa -16 + ^ x21: .cfa -24 + ^ x22: .cfa -32 + ^ x23: .cfa -40 + ^ x24: .cfa -48 + ^ x25: .cfa -56 + ^ x26: .cfa -64 + ^ x27: .cfa -72 + ^ x28: .cfa -80 + ^ .ra: .cfa -88 + ^ x29: .cfa -96 + ^
STACK CFI 7a0e0 .cfa: sp 368 +
STACK CFI 7a0fc .cfa: sp 0 +
STACK CFI 7a100 .cfa: x29 96 +
STACK CFI 7a154 .cfa: sp 368 +
STACK CFI 7a170 .cfa: sp 0 +
STACK CFI 7a174 .cfa: x29 96 +
STACK CFI INIT 7ab2c eac .cfa: sp 0 +
STACK CFI 7ab30 .cfa: sp 96 +
STACK CFI 7ab48 .cfa: x29 96 + x19: .cfa -8 + ^ x20: .cfa -16 + ^ x21: .cfa -24 + ^ x22: .cfa -32 + ^ x23: .cfa -40 + ^ x24: .cfa -48 + ^ x25: .cfa -56 + ^ x26: .cfa -64 + ^ x27: .cfa -72 + ^ x28: .cfa -80 + ^ .ra: .cfa -88 + ^ x29: .cfa -96 + ^
STACK CFI 7b7ec .cfa: sp 96 +
STACK CFI 7b804 .cfa: sp 0 +
STACK CFI 7b808 .cfa: x29 96 +
STACK CFI INIT 7bd4c 1c64 .cfa: sp 0 +
STACK CFI 7bd50 .cfa: sp 112 +
STACK CFI 7bd6c .cfa: x29 96 + x19: .cfa -8 + ^ x20: .cfa -16 + ^ x21: .cfa -24 + ^ x22: .cfa -32 + ^ x23: .cfa -40 + ^ x24: .cfa -48 + ^ x25: .cfa -56 + ^ x26: .cfa -64 + ^ x27: .cfa -72 + ^ x28: .cfa -80 + ^ .ra: .cfa -88 + ^ x29: .cfa -96 + ^ v8: .cfa -112 + ^
STACK CFI 7c140 .cfa: sp 112 +
STACK CFI 7c15c .cfa: sp 0 +
STACK CFI 7c160 .cfa: x29 96 +
STACK CFI INIT 80148 a4c .cfa: sp 0 +
STACK CFI 8014c .cfa: sp 144 +
STACK CFI 80164 .cfa: x29 80 + x19: .cfa -8 + ^ x20: .cfa -16 + ^ x21: .cfa -24 + ^ x22: .cfa -32 + ^ x23: .cfa -40 + ^ x24: .cfa -48 + ^ x25: .cfa -64 + ^ .ra: .cfa -72 + ^ x29: .cfa -80 + ^
STACK CFI 80aec .cfa: sp 144 +
STACK CFI 80b04 .cfa: sp 0 +
STACK CFI 80b08 .cfa: x29 80 +
STACK CFI INIT 82028 57c .cfa: sp 0 +
STACK CFI 8202c .cfa: sp 96 +
STACK CFI 82044 .cfa: x29 96 + x19: .cfa -8 + ^ x20: .cfa -16 + ^ x21: .cfa -24 + ^ x22: .cfa -32 + ^ x23: .cfa -40 + ^ x24: .cfa -48 + ^ x25: .cfa -56 + ^ x26: .cfa -64 + ^ x27: .cfa -72 + ^ x28: .cfa -80 + ^ .ra: .cfa -88 + ^ x29: .cfa -96 + ^
STACK CFI 82508 .cfa: sp 96 +
STACK CFI 82520 .cfa: sp 0 +
STACK CFI 82524 .cfa: x29 96 +
STACK CFI INIT 825a4 67c .cfa: sp 0 +
STACK CFI 825a8 .cfa: sp 96 +
STACK CFI 825c0 .cfa: x29 96 + x19: .cfa -8 + ^ x20: .cfa -16 + ^ x21: .cfa -24 + ^ x22: .cfa -32 + ^ x23: .cfa -40 + ^ x24: .cfa -48 + ^ x25: .cfa -56 + ^ x26: .cfa -64 + ^ x27: .cfa -72 + ^ x28: .cfa -80 + ^ .ra: .cfa -88 + ^ x29: .cfa -96 + ^
STACK CFI 82b84 .cfa: sp 96 +
STACK CFI 82b9c .cfa: sp 0 +
STACK CFI 82ba0 .cfa: x29 96 +
