MODULE Linux arm64 3ACD63EFDBA0AB6226A04B7035CE958B0 hbg1010.break_mod.android64.so
INFO CODE_ID EF63CD3AA0DB62AB26A04B7035CE958B274BECAC
INFO GENERATOR mozilla/dump_syms 2.3.4
PUBLIC 22120 0 __on_dlclose
PUBLIC 22130 0 __emutls_unregister_key
PUBLIC 22138 0 __on_dlclose_late
PUBLIC 22140 0 __atexit_handler_wrapper
PUBLIC 22154 0 atexit
PUBLIC 22170 0 pthread_atfork
PUBLIC 22180 0 unwind_phase2
PUBLIC 222b4 0 _Unwind_Resume
PUBLIC 22338 0 unwind_phase2_forced
PUBLIC m 2242c 0 __unw_init_local
PUBLIC m 224d4 0 __unw_get_reg
PUBLIC 22550 0 __unw_step_stage2
PUBLIC m 22564 0 __unw_get_proc_info
PUBLIC m 225a4 0 __unw_resume
PUBLIC 225cc 0 libunwind::CFI_Parser<libunwind::LocalAddressSpace>::decodeFDE(libunwind::LocalAddressSpace&, unsigned long, libunwind::CFI_Parser<libunwind::LocalAddressSpace>::FDE_Info*, libunwind::CFI_Parser<libunwind::LocalAddressSpace>::CIE_Info*, bool)
PUBLIC 2275c 0 libunwind::CFI_Parser<libunwind::LocalAddressSpace>::parseCIE(libunwind::LocalAddressSpace&, unsigned long, libunwind::CFI_Parser<libunwind::LocalAddressSpace>::CIE_Info*)
PUBLIC 22a24 0 libunwind::AbstractUnwindCursor::~AbstractUnwindCursor()
PUBLIC 22a2c 0 libunwind::UnwindCursor<libunwind::LocalAddressSpace, libunwind::Registers_arm64>::~UnwindCursor()
PUBLIC 22a34 0 libunwind::UnwindCursor<libunwind::LocalAddressSpace, libunwind::Registers_arm64>::validReg(int)
PUBLIC 22a78 0 libunwind::UnwindCursor<libunwind::LocalAddressSpace, libunwind::Registers_arm64>::getReg(int)
PUBLIC 22b60 0 libunwind::UnwindCursor<libunwind::LocalAddressSpace, libunwind::Registers_arm64>::setReg(int, unsigned long)
PUBLIC 22c48 0 libunwind::UnwindCursor<libunwind::LocalAddressSpace, libunwind::Registers_arm64>::validFloatReg(int)
PUBLIC 22c5c 0 libunwind::UnwindCursor<libunwind::LocalAddressSpace, libunwind::Registers_arm64>::getFloatReg(int)
PUBLIC 22c6c 0 libunwind::UnwindCursor<libunwind::LocalAddressSpace, libunwind::Registers_arm64>::setFloatReg(int, double)
PUBLIC 22c7c 0 libunwind::UnwindCursor<libunwind::LocalAddressSpace, libunwind::Registers_arm64>::step(bool)
PUBLIC 22d6c 0 libunwind::UnwindCursor<libunwind::LocalAddressSpace, libunwind::Registers_arm64>::getInfo(unw_proc_info_t*)
PUBLIC 22db0 0 libunwind::UnwindCursor<libunwind::LocalAddressSpace, libunwind::Registers_arm64>::jumpto()
PUBLIC 22dbc 0 libunwind::UnwindCursor<libunwind::LocalAddressSpace, libunwind::Registers_arm64>::isSignalFrame()
PUBLIC 22dc8 0 libunwind::UnwindCursor<libunwind::LocalAddressSpace, libunwind::Registers_arm64>::getFunctionName(char*, unsigned long, unsigned long*)
PUBLIC 22df4 0 libunwind::UnwindCursor<libunwind::LocalAddressSpace, libunwind::Registers_arm64>::setInfoBasedOnIPRegister(bool)
PUBLIC 23074 0 libunwind::UnwindCursor<libunwind::LocalAddressSpace, libunwind::Registers_arm64>::getRegisterName(int)
PUBLIC 23080 0 libunwind::UnwindCursor<libunwind::LocalAddressSpace, libunwind::Registers_arm64>::stepThroughSigReturn(libunwind::Registers_arm64&)
PUBLIC 231a0 0 libunwind::DwarfInstructions<libunwind::LocalAddressSpace, libunwind::Registers_arm64>::stepWithDwarf(libunwind::LocalAddressSpace&, unsigned long, unsigned long, libunwind::Registers_arm64&, bool&, bool)
PUBLIC 23628 0 libunwind::CFI_Parser<libunwind::LocalAddressSpace>::parseFDEInstructions(libunwind::LocalAddressSpace&, libunwind::CFI_Parser<libunwind::LocalAddressSpace>::FDE_Info const&, libunwind::CFI_Parser<libunwind::LocalAddressSpace>::CIE_Info const&, unsigned long, int, libunwind::CFI_Parser<libunwind::LocalAddressSpace>::PrologInfo*)
PUBLIC 24270 0 libunwind::DwarfInstructions<libunwind::LocalAddressSpace, libunwind::Registers_arm64>::getCFA(libunwind::LocalAddressSpace&, libunwind::CFI_Parser<libunwind::LocalAddressSpace>::PrologInfo const&, libunwind::Registers_arm64 const&)
PUBLIC 243a4 0 libunwind::DwarfInstructions<libunwind::LocalAddressSpace, libunwind::Registers_arm64>::getSavedRegister(libunwind::LocalAddressSpace&, libunwind::Registers_arm64 const&, unsigned long, libunwind::CFI_Parser<libunwind::LocalAddressSpace>::RegisterLocation const&)
PUBLIC 245b4 0 libunwind::LocalAddressSpace::getEncodedP(unsigned long&, unsigned long, unsigned char, unsigned long)
PUBLIC 24940 0 libunwind::LocalAddressSpace::getULEB128(unsigned long&, unsigned long)
PUBLIC 24b08 0 libunwind::DwarfInstructions<libunwind::LocalAddressSpace, libunwind::Registers_arm64>::evaluateExpression(unsigned long, libunwind::LocalAddressSpace&, libunwind::Registers_arm64 const&, unsigned long)
PUBLIC 254c4 0 libunwind::UnwindCursor<libunwind::LocalAddressSpace, libunwind::Registers_arm64>::getInfoFromDwarfSection(unsigned long, libunwind::UnwindInfoSections const&, unsigned int)
PUBLIC 25798 0 libunwind::findUnwindSectionsByPhdr(dl_phdr_info*, unsigned long, void*)
PUBLIC 258cc 0 libunwind::EHHeaderParser<libunwind::LocalAddressSpace>::decodeEHHdr(libunwind::LocalAddressSpace&, unsigned long, unsigned long, libunwind::EHHeaderParser<libunwind::LocalAddressSpace>::EHHeaderInfo&)
PUBLIC 259ec 0 libunwind::CFI_Parser<libunwind::LocalAddressSpace>::findFDE(libunwind::LocalAddressSpace&, unsigned long, unsigned long, unsigned long, unsigned long, libunwind::CFI_Parser<libunwind::LocalAddressSpace>::FDE_Info*, libunwind::CFI_Parser<libunwind::LocalAddressSpace>::CIE_Info*)
PUBLIC 25bb4 0 libunwind::EHHeaderParser<libunwind::LocalAddressSpace>::findFDE(libunwind::LocalAddressSpace&, unsigned long, unsigned long, unsigned int, libunwind::CFI_Parser<libunwind::LocalAddressSpace>::FDE_Info*, libunwind::CFI_Parser<libunwind::LocalAddressSpace>::CIE_Info*)
PUBLIC 25d1c 0 libunwind::EHHeaderParser<libunwind::LocalAddressSpace>::getTableEntrySize(unsigned char)
PUBLIC 25e18 0 libunwind::Registers_arm64::getRegisterName(int)
PUBLIC 25e48 0 __libunwind_Registers_arm64_jumpto
PUBLIC m 25ed8 0 __unw_getcontext
PUBLIC 25f80 0 __aarch64_ldadd8_relax
PUBLIC 25fb0 0 init_have_lse_atomics
PUBLIC 26048 0 __init_cpu_features_constructor
PUBLIC 265e4 0 __init_cpu_features
PUBLIC 26670 0 __aarch64_ldadd8_acq_rel
PUBLIC 266a0 0 geode::Mod::getSettingValue<bool>(std::__ndk1::basic_string_view<char, std::__ndk1::char_traits<char> >) const
PUBLIC 267d4 0 geode::Mod::getSettingValue<long>(std::__ndk1::basic_string_view<char, std::__ndk1::char_traits<char> >) const
PUBLIC 268ec 0 __cxx_global_var_init
PUBLIC 2694c 0 geode::modifier::ModifyBase<geode::modifier::ModifyDerive<EditorUITimer, EditorUI> >::~ModifyBase()
PUBLIC 26968 0 __cxx_global_var_init.4
PUBLIC 269c8 0 geode::modifier::ModifyBase<geode::modifier::ModifyDerive<TimerPlayLayer, PlayLayer> >::~ModifyBase()
PUBLIC 269e4 0 __cxx_global_var_init.5
PUBLIC 26e64 0 geode::modifier::ModifyBase<geode::modifier::ModifyDerive<EditorTimerPause, EditorPauseLayer> >::~ModifyBase()
PUBLIC 26e80 0 __clang_call_terminate
PUBLIC 26e90 0 std::__ndk1::basic_string<char, std::__ndk1::char_traits<char>, std::__ndk1::allocator<char> >::__throw_length_error[abi:ne180000]() const
PUBLIC 26ea4 0 std::__ndk1::__throw_length_error[abi:ne180000](char const*)
PUBLIC 26ef4 0 std::length_error::length_error[abi:ne180000](char const*)
PUBLIC 26f24 0 std::__throw_bad_array_new_length([abi:ne180000], void)
PUBLIC 26f58 0 geode::modifier::ModifyBase<geode::modifier::ModifyDerive<EditorUITimer, EditorUI> >::ModifyBase()
PUBLIC 27354 0 geode::modifier::ModifyDerive<EditorUITimer, EditorUI>::apply()
PUBLIC 27f38 0 std::__ndk1::shared_ptr<geode::Hook>::~shared_ptr[abi:ne180000]()
PUBLIC 27f88 0 geode::impl::ResultData<geode::Hook*, std::__ndk1::basic_string<char, std::__ndk1::char_traits<char>, std::__ndk1::allocator<char> > >::~ResultData()
PUBLIC 27ffc 0 std::__ndk1::vector<std::__ndk1::basic_string<char, std::__ndk1::char_traits<char>, std::__ndk1::allocator<char> >, std::__ndk1::allocator<std::__ndk1::basic_string<char, std::__ndk1::char_traits<char>, std::__ndk1::allocator<char> > > >::~vector[abi:ne180000]()
PUBLIC 28078 0 geode::modifier::ModifyBase<geode::modifier::ModifyDerive<EditorUITimer, EditorUI> >::apply()
PUBLIC 2807c 0 _ZN5geode15UnwrapExceptionC2IRPNS_4HookEQsr4implE18IsStringStreamableIT_EEENS_4impl5OkTagEOS5_
PUBLIC 281d0 0 std::__ndk1::__throw_bad_variant_access[abi:ne180000]()
PUBLIC 28204 0 std::__ndk1::basic_stringstream<char, std::__ndk1::char_traits<char>, std::__ndk1::allocator<char> >::basic_stringstream[abi:ne180000]()
PUBLIC m 28330 0 std::__ndk1::basic_stringstream<char, std::__ndk1::char_traits<char>, std::__ndk1::allocator<char> >::~basic_stringstream()
PUBLIC 283b0 0 geode::UnwrapException::~UnwrapException()
PUBLIC 283d4 0 std::__ndk1::__put_character_sequence[abi:ne180000]<char, std::__ndk1::char_traits<char> >(std::__ndk1::basic_ostream<char, std::__ndk1::char_traits<char> >, std::__ndk1::basic_ostream const*, unsigned long)
PUBLIC 28578 0 std::__ndk1::__pad_and_output[abi:ne180000]<char, std::__ndk1::char_traits<char> >(std::__ndk1::char_traits<char>, std::__ndk1::ostreambuf_iterator const*, std::__ndk1::ostreambuf_iterator const, std::__ndk1::ostreambuf_iterator const, std::__ndk1::ios_base&, std::__ndk1::ostreambuf_iterator)
PUBLIC 28754 0 std::__ndk1::basic_stringbuf<char, std::__ndk1::char_traits<char>, std::__ndk1::allocator<char> >::str[abi:ne180000]() &&
PUBLIC 288cc 0 std::__ndk1::basic_stringbuf<char, std::__ndk1::char_traits<char>, std::__ndk1::allocator<char> >::__init_buf_ptrs[abi:ne180000]()
PUBLIC 28a14 0 std::__ndk1::vector<std::__ndk1::basic_string<char, std::__ndk1::char_traits<char>, std::__ndk1::allocator<char> >, std::__ndk1::allocator<std::__ndk1::basic_string<char, std::__ndk1::char_traits<char>, std::__ndk1::allocator<char> > > >::__push_back_slow_path<std::__ndk1::basic_string<char, std::__ndk1::char_traits<char>, std::__ndk1::allocator<char> > const&>(std::__ndk1::basic_string<char, std::__ndk1::char_traits<char>, std::__ndk1::allocator<char> > const&)
PUBLIC 28c3c 0 std::__ndk1::basic_string<char, std::__ndk1::char_traits<char>, std::__ndk1::allocator<char> >::__init_copy_ctor_external(char const*, unsigned long)
PUBLIC 28cbc 0 std::__ndk1::__split_buffer<std::__ndk1::basic_string<char, std::__ndk1::char_traits<char>, std::__ndk1::allocator<char> >, std::__ndk1::allocator<std::__ndk1::basic_string<char, std::__ndk1::char_traits<char>, std::__ndk1::allocator<char> > >&>::~__split_buffer()
PUBLIC 28d24 0 std::__ndk1::vector<std::__ndk1::basic_string<char, std::__ndk1::char_traits<char>, std::__ndk1::allocator<char> >, std::__ndk1::allocator<std::__ndk1::basic_string<char, std::__ndk1::char_traits<char>, std::__ndk1::allocator<char> > > >::__throw_length_error[abi:ne180000]() const
PUBLIC 28d38 0 std::__ndk1::__variant_detail::__visitation::__base::__dispatcher<(unsigned long)0>::__dispatch[abi:ne180000]<std::__ndk1::__variant_detail::__dtor<std::__ndk1::__variant_detail::__traits<geode::Hook*, std::__ndk1::basic_string<char, std::__ndk1::char_traits<char>, std::__ndk1::allocator<char> > >, (std::__ndk1::__variant_detail::_Trait)1>::__destroy[abi:ne180000]()::{lambda(auto:1&)#1}, std::__ndk1::__variant_detail::__base<(std::__ndk1::__variant_detail::__traits<geode::Hook*, std::__ndk1::basic_string<char, std::__ndk1::char_traits<char>, std::__ndk1::allocator<char> > >)1, geode::Hook, std::__ndk1::allocator<char> >&>(std::__ndk1::__variant_detail::__dtor<std::__ndk1::__variant_detail::__traits<geode::Hook*, std::__ndk1::basic_string<char, std::__ndk1::char_traits<char>, std::__ndk1::allocator<char> > >, (std::__ndk1::__variant_detail::_Trait)1>, std::__ndk1::__variant_detail::__base<(std::__ndk1::__variant_detail::__traits<geode::Hook*, std::__ndk1::basic_string<char, std::__ndk1::char_traits<char>, std::__ndk1::allocator<char> > >)1, geode::Hook, std::__ndk1::allocator<char> >&)
PUBLIC 28d3c 0 std::__ndk1::__variant_detail::__visitation::__base::__dispatcher<(unsigned long)1>::__dispatch[abi:ne180000]<std::__ndk1::__variant_detail::__dtor<std::__ndk1::__variant_detail::__traits<geode::Hook*, std::__ndk1::basic_string<char, std::__ndk1::char_traits<char>, std::__ndk1::allocator<char> > >, (std::__ndk1::__variant_detail::_Trait)1>::__destroy[abi:ne180000]()::{lambda(auto:1&)#1}, std::__ndk1::__variant_detail::__base<(std::__ndk1::__variant_detail::__traits<geode::Hook*, std::__ndk1::basic_string<char, std::__ndk1::char_traits<char>, std::__ndk1::allocator<char> > >)1, geode::Hook, std::__ndk1::allocator<char> >&>(std::__ndk1::__variant_detail::__dtor<std::__ndk1::__variant_detail::__traits<geode::Hook*, std::__ndk1::basic_string<char, std::__ndk1::char_traits<char>, std::__ndk1::allocator<char> > >, (std::__ndk1::__variant_detail::_Trait)1>, std::__ndk1::__variant_detail::__base<(std::__ndk1::__variant_detail::__traits<geode::Hook*, std::__ndk1::basic_string<char, std::__ndk1::char_traits<char>, std::__ndk1::allocator<char> > >)1, geode::Hook, std::__ndk1::allocator<char> >&)
PUBLIC 28d50 0 std::__ndk1::__tree<std::__ndk1::__value_type<std::__ndk1::basic_string<char, std::__ndk1::char_traits<char>, std::__ndk1::allocator<char> >, std::__ndk1::shared_ptr<geode::Hook> >, std::__ndk1::__map_value_compare<std::__ndk1::basic_string<char, std::__ndk1::char_traits<char>, std::__ndk1::allocator<char> >, std::__ndk1::__value_type<std::__ndk1::basic_string<char, std::__ndk1::char_traits<char>, std::__ndk1::allocator<char> >, std::__ndk1::shared_ptr<geode::Hook> >, std::__ndk1::less<std::__ndk1::basic_string<char, std::__ndk1::char_traits<char>, std::__ndk1::allocator<char> > >, true>, std::__ndk1::allocator<std::__ndk1::__value_type<std::__ndk1::basic_string<char, std::__ndk1::char_traits<char>, std::__ndk1::allocator<char> >, std::__ndk1::shared_ptr<geode::Hook> > > >::find<std::__ndk1::basic_string<char, std::__ndk1::char_traits<char>, std::__ndk1::allocator<char> > >(std::__ndk1::basic_string<char, std::__ndk1::char_traits<char>, std::__ndk1::allocator<char> > const&)
PUBLIC 28e70 0 std::__ndk1::__tree<std::__ndk1::__value_type<std::__ndk1::basic_string<char, std::__ndk1::char_traits<char>, std::__ndk1::allocator<char> >, std::__ndk1::shared_ptr<geode::Hook> >, std::__ndk1::__map_value_compare<std::__ndk1::basic_string<char, std::__ndk1::char_traits<char>, std::__ndk1::allocator<char> >, std::__ndk1::__value_type<std::__ndk1::basic_string<char, std::__ndk1::char_traits<char>, std::__ndk1::allocator<char> >, std::__ndk1::shared_ptr<geode::Hook> >, std::__ndk1::less<std::__ndk1::basic_string<char, std::__ndk1::char_traits<char>, std::__ndk1::allocator<char> > >, true>, std::__ndk1::allocator<std::__ndk1::__value_type<std::__ndk1::basic_string<char, std::__ndk1::char_traits<char>, std::__ndk1::allocator<char> >, std::__ndk1::shared_ptr<geode::Hook> > > >::erase(std::__ndk1::__tree_const_iterator<std::__ndk1::__value_type<std::__ndk1::basic_string<char, std::__ndk1::char_traits<char>, std::__ndk1::allocator<char> >, std::__ndk1::shared_ptr<geode::Hook> >, std::__ndk1::__tree_node<std::__ndk1::__value_type<std::__ndk1::basic_string<char, std::__ndk1::char_traits<char>, std::__ndk1::allocator<char> >, std::__ndk1::shared_ptr<geode::Hook> >, void*>*, long>)
PUBLIC 28f44 0 std::__ndk1::__tree_remove[abi:ne180000]<std::__ndk1::__tree_node_base<void*>*>(std::__ndk1::__tree_node_base<void*>*, std::__ndk1::__tree_node_base<void*>*)
PUBLIC 2930c 0 std::__ndk1::__tree<std::__ndk1::__value_type<std::__ndk1::basic_string<char, std::__ndk1::char_traits<char>, std::__ndk1::allocator<char> >, std::__ndk1::shared_ptr<geode::Hook> >, std::__ndk1::__map_value_compare<std::__ndk1::basic_string<char, std::__ndk1::char_traits<char>, std::__ndk1::allocator<char> >, std::__ndk1::__value_type<std::__ndk1::basic_string<char, std::__ndk1::char_traits<char>, std::__ndk1::allocator<char> >, std::__ndk1::shared_ptr<geode::Hook> >, std::__ndk1::less<std::__ndk1::basic_string<char, std::__ndk1::char_traits<char>, std::__ndk1::allocator<char> > >, true>, std::__ndk1::allocator<std::__ndk1::__value_type<std::__ndk1::basic_string<char, std::__ndk1::char_traits<char>, std::__ndk1::allocator<char> >, std::__ndk1::shared_ptr<geode::Hook> > > >::destroy(std::__ndk1::__tree_node<std::__ndk1::__value_type<std::__ndk1::basic_string<char, std::__ndk1::char_traits<char>, std::__ndk1::allocator<char> >, std::__ndk1::shared_ptr<geode::Hook> >, void*>*)
PUBLIC 29398 0 geode::Hook::create<bool (*)(EditorUITimer*, LevelEditorLayer*)>(void*, bool (*)(EditorUITimer*, LevelEditorLayer*), std::__ndk1::basic_string<char, std::__ndk1::char_traits<char>, std::__ndk1::allocator<char> > const&, tulip::hook::TulipConvention, tulip::hook::HookMetadata const&)
PUBLIC 2951c 0 geode::modifier::AsStaticFunction_init<EditorUITimer, bool (EditorUITimer::*)(LevelEditorLayer*)>::Impl<bool (EditorUITimer::*)(LevelEditorLayer*)>::function(EditorUITimer*, LevelEditorLayer*)
PUBLIC 29520 0 geode::Hook::create<void (*)(EditorUITimer*, cocos2d::CCObject*)>(void*, void (*)(EditorUITimer*, cocos2d::CCObject*), std::__ndk1::basic_string<char, std::__ndk1::char_traits<char>, std::__ndk1::allocator<char> > const&, tulip::hook::TulipConvention, tulip::hook::HookMetadata const&)
PUBLIC 296a4 0 geode::modifier::AsStaticFunction_onPause<EditorUITimer, void (EditorUITimer::*)(cocos2d::CCObject*)>::Impl<void (EditorUITimer::*)(cocos2d::CCObject*)>::function(EditorUITimer*, cocos2d::CCObject*)
PUBLIC 296e0 0 geode::modifier::AsStaticFunction_onPlaytest<EditorUITimer, void (EditorUITimer::*)(cocos2d::CCObject*)>::Impl<void (EditorUITimer::*)(cocos2d::CCObject*)>::function(EditorUITimer*, cocos2d::CCObject*)
PUBLIC 29710 0 geode::modifier::AsStaticFunction_onStopPlaytest<EditorUITimer, void (EditorUITimer::*)(cocos2d::CCObject*)>::Impl<void (EditorUITimer::*)(cocos2d::CCObject*)>::function(EditorUITimer*, cocos2d::CCObject*)
PUBLIC 2974c 0 geode::Hook::create<void (*)(EditorUITimer*)>(void*, void (*)(EditorUITimer*), std::__ndk1::basic_string<char, std::__ndk1::char_traits<char>, std::__ndk1::allocator<char> > const&, tulip::hook::TulipConvention, tulip::hook::HookMetadata const&)
PUBLIC 29880 0 geode::modifier::AsStaticFunction_playtestStopped<EditorUITimer, void (EditorUITimer::*)()>::Impl<void (EditorUITimer::*)()>::function(EditorUITimer*)
PUBLIC 298ac 0 geode::Hook::create<void (*)(EditorUITimer*, bool)>(void*, void (*)(EditorUITimer*, bool), std::__ndk1::basic_string<char, std::__ndk1::char_traits<char>, std::__ndk1::allocator<char> > const&, tulip::hook::TulipConvention, tulip::hook::HookMetadata const&)
PUBLIC 29a30 0 geode::modifier::AsStaticFunction_showUI<EditorUITimer, void (EditorUITimer::*)(bool)>::Impl<void (EditorUITimer::*)(bool)>::function(EditorUITimer*, bool)
PUBLIC 29ac4 0 std::__ndk1::shared_ptr<tulip::hook::CallingConvention>::~shared_ptr[abi:ne180000]()
PUBLIC 29b14 0 tulip::hook::HandlerMetadata::~HandlerMetadata()
PUBLIC 29b78 0 std::__ndk1::vector<tulip::hook::AbstractType, std::__ndk1::allocator<tulip::hook::AbstractType> >::__throw_length_error[abi:ne180000]() const
PUBLIC 29b8c 0 std::__ndk1::__tree<std::__ndk1::__value_type<std::__ndk1::basic_string<char, std::__ndk1::char_traits<char>, std::__ndk1::allocator<char> >, std::__ndk1::shared_ptr<geode::Hook> >, std::__ndk1::__map_value_compare<std::__ndk1::basic_string<char, std::__ndk1::char_traits<char>, std::__ndk1::allocator<char> >, std::__ndk1::__value_type<std::__ndk1::basic_string<char, std::__ndk1::char_traits<char>, std::__ndk1::allocator<char> >, std::__ndk1::shared_ptr<geode::Hook> >, std::__ndk1::less<std::__ndk1::basic_string<char, std::__ndk1::char_traits<char>, std::__ndk1::allocator<char> > >, true>, std::__ndk1::allocator<std::__ndk1::__value_type<std::__ndk1::basic_string<char, std::__ndk1::char_traits<char>, std::__ndk1::allocator<char> >, std::__ndk1::shared_ptr<geode::Hook> > > >::__emplace_unique_key_args<std::__ndk1::basic_string<char, std::__ndk1::char_traits<char>, std::__ndk1::allocator<char> >, std::__ndk1::piecewise_construct_t const&, std::__ndk1::tuple<std::__ndk1::basic_string<char, std::__ndk1::char_traits<char>, std::__ndk1::allocator<char> >&&>, std::__ndk1::tuple<> >(std::__ndk1::basic_string<char, std::__ndk1::char_traits<char>, std::__ndk1::allocator<char> > const&, std::__ndk1::piecewise_construct_t const&, std::__ndk1::tuple<std::__ndk1::basic_string<char, std::__ndk1::char_traits<char>, std::__ndk1::allocator<char> >&&>, std::__ndk1::tuple<>)
PUBLIC 29d04 0 std::__ndk1::__tree_balance_after_insert[abi:ne180000]<std::__ndk1::__tree_node_base<void*>*>(std::__ndk1::__tree_node_base<void*>*, std::__ndk1::__tree_node_base<void*>*)
PUBLIC 29eb4 0 geode::modifier::ModifyBase<geode::modifier::ModifyDerive<TimerPlayLayer, PlayLayer> >::ModifyBase()
PUBLIC 2a2b0 0 geode::modifier::ModifyDerive<TimerPlayLayer, PlayLayer>::apply()
PUBLIC 2a6f0 0 geode::modifier::ModifyBase<geode::modifier::ModifyDerive<TimerPlayLayer, PlayLayer> >::apply()
PUBLIC 2a6f4 0 geode::Hook::create<bool (*)(TimerPlayLayer*, GJGameLevel*, bool, bool)>(void*, bool (*)(TimerPlayLayer*, GJGameLevel*, bool, bool), std::__ndk1::basic_string<char, std::__ndk1::char_traits<char>, std::__ndk1::allocator<char> > const&, tulip::hook::TulipConvention, tulip::hook::HookMetadata const&)
PUBLIC 2a80c 0 geode::modifier::AsStaticFunction_init<TimerPlayLayer, bool (TimerPlayLayer::*)(GJGameLevel*, bool, bool)>::Impl<bool (TimerPlayLayer::*)(GJGameLevel*, bool, bool)>::function(TimerPlayLayer*, GJGameLevel*, bool, bool)
PUBLIC 2a810 0 geode::Hook::create<void (*)(TimerPlayLayer*)>(void*, void (*)(TimerPlayLayer*), std::__ndk1::basic_string<char, std::__ndk1::char_traits<char>, std::__ndk1::allocator<char> > const&, tulip::hook::TulipConvention, tulip::hook::HookMetadata const&)
PUBLIC 2a944 0 geode::modifier::AsStaticFunction_resetLevel<TimerPlayLayer, void (TimerPlayLayer::*)()>::Impl<void (TimerPlayLayer::*)()>::function(TimerPlayLayer*)
PUBLIC 2a948 0 tulip::hook::AbstractFunction::from<bool, TimerPlayLayer*, GJGameLevel*, bool, bool>(bool (*)(TimerPlayLayer*, GJGameLevel*, bool, bool))
PUBLIC 2abfc 0 geode::cast::traverseTypeinfoFor(void*, geode::cast::ClassTypeinfoType const*, char const*)
PUBLIC 2ad00 0 geode::modifier::ModifyDerive<EditorTimerPause, EditorPauseLayer>::apply()
PUBLIC 2b334 0 geode::modifier::ModifyBase<geode::modifier::ModifyDerive<EditorTimerPause, EditorPauseLayer> >::apply()
PUBLIC 2b338 0 geode::modifier::AsStaticFunction_init<EditorTimerPause, bool (EditorTimerPause::*)(LevelEditorLayer*)>::Impl<bool (EditorTimerPause::*)(LevelEditorLayer*)>::function(EditorTimerPause*, LevelEditorLayer*)
PUBLIC 2b560 0 geode::modifier::AsStaticFunction_onResume<EditorTimerPause, void (EditorTimerPause::*)(cocos2d::CCObject*)>::Impl<void (EditorTimerPause::*)(cocos2d::CCObject*)>::function(EditorTimerPause*, cocos2d::CCObject*)
PUBLIC 2b690 0 EditorUITimer::Fields::reset(EditorUITimer*, int)
PUBLIC 2b8d8 0 EditorUITimer::forceReset(int)
PUBLIC 2bbb4 0 EditorUITimer::onEvent(geode::Task<bool, int>::Event*)
PUBLIC 2bd24 0 geode::Task<bool, int>::~Task()
PUBLIC 2bd74 0 EditorUITimer::checkEndPlaytest()
PUBLIC 2be50 0 EditorUITimer::pauseTimer(bool)
PUBLIC 2bf30 0 EditorUITimer::init(LevelEditorLayer*)
PUBLIC 2c1ac 0 geode::modifier::FieldIntermediate<EditorUITimer, EditorUI>::self()
PUBLIC 2c3f4 0 std::__ndk1::shared_ptr<geode::Task<bool, int>::Handle>::~shared_ptr[abi:ne180000]()
PUBLIC 2c444 0 geode::modifier::FieldContainer::getField(unsigned long)
PUBLIC 2c6fc 0 geode::modifier::FieldContainer::setField(unsigned long, unsigned long, std::__ndk1::function<void (void*)>)
PUBLIC 2c810 0 geode::modifier::FieldIntermediate<EditorUITimer, EditorUI>::fieldDestructor(void*)
PUBLIC 2c8b8 0 std::__ndk1::vector<void*, std::__ndk1::allocator<void*> >::__throw_length_error[abi:ne180000]() const
PUBLIC 2c8cc 0 std::__ndk1::vector<std::__ndk1::function<void (void*)>, std::__ndk1::allocator<std::__ndk1::function<void (void*)> > >::__push_back_slow_path<std::__ndk1::function<void (void*)> >(std::__ndk1::function<void (void*)>&&)
PUBLIC 2caf8 0 std::__ndk1::vector<std::__ndk1::function<void (void*)>, std::__ndk1::allocator<std::__ndk1::function<void (void*)> > >::__throw_length_error[abi:ne180000]() const
PUBLIC 2cb0c 0 std::__ndk1::vector<void*, std::__ndk1::allocator<void*> >::__throw_out_of_range[abi:ne180000]() const
PUBLIC 2cb20 0 std::__ndk1::__throw_out_of_range[abi:ne180000](char const*)
PUBLIC 2cb70 0 std::out_of_range::out_of_range[abi:ne180000](char const*)
PUBLIC 2cba0 0 std::__ndk1::vector<std::__ndk1::function<void (void*)>, std::__ndk1::allocator<std::__ndk1::function<void (void*)> > >::__throw_out_of_range[abi:ne180000]() const
PUBLIC 2cbb4 0 geode::EventListener<geode::Task<bool, int> >::~EventListener()
PUBLIC 2cc50 0 geode::EventListener<geode::Task<bool, int> >::getPool() const
PUBLIC 2cc54 0 geode::EventListener<geode::Task<bool, int> >::handle(geode::Event*)
PUBLIC 2ce20 0 geode::EventListener<geode::Task<bool, int> >::~EventListener()
PUBLIC 2cec4 0 std::__ndk1::__throw_bad_function_call[abi:ne180000]()
PUBLIC 2cef8 0 std::__ndk1::bad_function_call::~bad_function_call()
PUBLIC 2cf1c 0 std::__ndk1::__function::__base<void (void*)>::~__base()
PUBLIC 2cf20 0 std::__ndk1::__function::__func<void (*)(void*), std::__ndk1::allocator<void (*)(void*)>, void (void*)>::~__func()
PUBLIC 2cf24 0 std::__ndk1::__function::__func<void (*)(void*), std::__ndk1::allocator<void (*)(void*)>, void (void*)>::__clone() const
PUBLIC 2cf5c 0 std::__ndk1::__function::__func<void (*)(void*), std::__ndk1::allocator<void (*)(void*)>, void (void*)>::__clone(std::__ndk1::__function::__base<void (void*)>*) const
PUBLIC 2cf74 0 std::__ndk1::__function::__func<void (*)(void*), std::__ndk1::allocator<void (*)(void*)>, void (void*)>::destroy()
PUBLIC 2cf78 0 std::__ndk1::__function::__func<void (*)(void*), std::__ndk1::allocator<void (*)(void*)>, void (void*)>::destroy_deallocate()
PUBLIC 2cf7c 0 std::__ndk1::__function::__func<void (*)(void*), std::__ndk1::allocator<void (*)(void*)>, void (void*)>::operator()(void*&&)
PUBLIC 2cf8c 0 std::__ndk1::__function::__func<void (*)(void*), std::__ndk1::allocator<void (*)(void*)>, void (void*)>::target(std::type_info const&) const
PUBLIC 2cfa8 0 std::__ndk1::__function::__func<void (*)(void*), std::__ndk1::allocator<void (*)(void*)>, void (void*)>::target_type() const
PUBLIC 2cfb4 0 geode::Task<bool, int>::setListener(geode::EventListenerProtocol*)
PUBLIC 2d1d0 0 geode::Task<bool, int>::setListener(geode::EventListenerProtocol*)::{lambda()#1}::~{lambda()#1}()
PUBLIC 2d220 0 geode::Task<bool, int>::setListener(geode::EventListenerProtocol*)::{lambda()#2}::~{lambda()#2}()
PUBLIC 2d270 0 std::__ndk1::__function::__func<geode::Task<bool, int>::setListener(geode::EventListenerProtocol*)::{lambda()#1}, std::__ndk1::allocator<geode::Task<bool, int>::setListener(geode::EventListenerProtocol*)::{lambda()#1}>, void ()>::~__func()
PUBLIC 2d2cc 0 std::__ndk1::__function::__func<geode::Task<bool, int>::setListener(geode::EventListenerProtocol*)::{lambda()#1}, std::__ndk1::allocator<geode::Task<bool, int>::setListener(geode::EventListenerProtocol*)::{lambda()#1}>, void ()>::~__func()
PUBLIC 2d338 0 std::__ndk1::__function::__func<geode::Task<bool, int>::setListener(geode::EventListenerProtocol*)::{lambda()#1}, std::__ndk1::allocator<geode::Task<bool, int>::setListener(geode::EventListenerProtocol*)::{lambda()#1}>, void ()>::__clone() const
PUBLIC 2d390 0 std::__ndk1::__function::__func<geode::Task<bool, int>::setListener(geode::EventListenerProtocol*)::{lambda()#1}, std::__ndk1::allocator<geode::Task<bool, int>::setListener(geode::EventListenerProtocol*)::{lambda()#1}>, void ()>::__clone(std::__ndk1::__function::__base<void ()>*) const
PUBLIC 2d3dc 0 std::__ndk1::__function::__func<geode::Task<bool, int>::setListener(geode::EventListenerProtocol*)::{lambda()#1}, std::__ndk1::allocator<geode::Task<bool, int>::setListener(geode::EventListenerProtocol*)::{lambda()#1}>, void ()>::destroy()
PUBLIC 2d42c 0 std::__ndk1::__function::__func<geode::Task<bool, int>::setListener(geode::EventListenerProtocol*)::{lambda()#1}, std::__ndk1::allocator<geode::Task<bool, int>::setListener(geode::EventListenerProtocol*)::{lambda()#1}>, void ()>::destroy_deallocate()
PUBLIC 2d48c 0 std::__ndk1::__function::__func<geode::Task<bool, int>::setListener(geode::EventListenerProtocol*)::{lambda()#1}, std::__ndk1::allocator<geode::Task<bool, int>::setListener(geode::EventListenerProtocol*)::{lambda()#1}>, void ()>::operator()()
PUBLIC 2d494 0 std::__ndk1::__function::__func<geode::Task<bool, int>::setListener(geode::EventListenerProtocol*)::{lambda()#1}, std::__ndk1::allocator<geode::Task<bool, int>::setListener(geode::EventListenerProtocol*)::{lambda()#1}>, void ()>::target(std::type_info const&) const
PUBLIC 2d4b0 0 std::__ndk1::__function::__func<geode::Task<bool, int>::setListener(geode::EventListenerProtocol*)::{lambda()#1}, std::__ndk1::allocator<geode::Task<bool, int>::setListener(geode::EventListenerProtocol*)::{lambda()#1}>, void ()>::target_type() const
PUBLIC 2d4bc 0 geode::Task<bool, int>::setListener(geode::EventListenerProtocol*)::{lambda()#1}::operator()() const
PUBLIC 2d68c 0 geode::Task<bool, int>::Event::~Event()
PUBLIC 2d6ec 0 geode::Task<bool, int>::Event::~Event()
PUBLIC 2d75c 0 std::__ndk1::__function::__func<geode::Task<bool, int>::setListener(geode::EventListenerProtocol*)::{lambda()#2}, std::__ndk1::allocator<geode::Task<bool, int>::setListener(geode::EventListenerProtocol*)::{lambda()#2}>, void ()>::~__func()
PUBLIC 2d7b8 0 std::__ndk1::__function::__func<geode::Task<bool, int>::setListener(geode::EventListenerProtocol*)::{lambda()#2}, std::__ndk1::allocator<geode::Task<bool, int>::setListener(geode::EventListenerProtocol*)::{lambda()#2}>, void ()>::~__func()
PUBLIC 2d824 0 std::__ndk1::__function::__func<geode::Task<bool, int>::setListener(geode::EventListenerProtocol*)::{lambda()#2}, std::__ndk1::allocator<geode::Task<bool, int>::setListener(geode::EventListenerProtocol*)::{lambda()#2}>, void ()>::__clone() const
PUBLIC 2d87c 0 std::__ndk1::__function::__func<geode::Task<bool, int>::setListener(geode::EventListenerProtocol*)::{lambda()#2}, std::__ndk1::allocator<geode::Task<bool, int>::setListener(geode::EventListenerProtocol*)::{lambda()#2}>, void ()>::__clone(std::__ndk1::__function::__base<void ()>*) const
PUBLIC 2d8c8 0 std::__ndk1::__function::__func<geode::Task<bool, int>::setListener(geode::EventListenerProtocol*)::{lambda()#2}, std::__ndk1::allocator<geode::Task<bool, int>::setListener(geode::EventListenerProtocol*)::{lambda()#2}>, void ()>::destroy()
PUBLIC 2d918 0 std::__ndk1::__function::__func<geode::Task<bool, int>::setListener(geode::EventListenerProtocol*)::{lambda()#2}, std::__ndk1::allocator<geode::Task<bool, int>::setListener(geode::EventListenerProtocol*)::{lambda()#2}>, void ()>::destroy_deallocate()
PUBLIC 2d978 0 std::__ndk1::__function::__func<geode::Task<bool, int>::setListener(geode::EventListenerProtocol*)::{lambda()#2}, std::__ndk1::allocator<geode::Task<bool, int>::setListener(geode::EventListenerProtocol*)::{lambda()#2}>, void ()>::operator()()
PUBLIC 2d980 0 std::__ndk1::__function::__func<geode::Task<bool, int>::setListener(geode::EventListenerProtocol*)::{lambda()#2}, std::__ndk1::allocator<geode::Task<bool, int>::setListener(geode::EventListenerProtocol*)::{lambda()#2}>, void ()>::target(std::type_info const&) const
PUBLIC 2d99c 0 std::__ndk1::__function::__func<geode::Task<bool, int>::setListener(geode::EventListenerProtocol*)::{lambda()#2}, std::__ndk1::allocator<geode::Task<bool, int>::setListener(geode::EventListenerProtocol*)::{lambda()#2}>, void ()>::target_type() const
PUBLIC 2d9a8 0 geode::Task<bool, int>::setListener(geode::EventListenerProtocol*)::{lambda()#2}::operator()() const
PUBLIC 2db6c 0 geode::Task<bool, int>::cancel(std::__ndk1::shared_ptr<geode::Task<bool, int>::Handle>, bool)
PUBLIC 2dcdc 0 geode::Task<bool, int>::cancel(std::__ndk1::shared_ptr<geode::Task<bool, int>::Handle>, bool)::{lambda()#1}::~{lambda()#1}()
PUBLIC 2dd2c 0 std::__ndk1::__function::__func<geode::Task<bool, int>::cancel(std::__ndk1::shared_ptr<geode::Task<bool, int>::Handle>, bool)::{lambda()#1}, std::__ndk1::allocator<geode::Task<bool, int>::cancel(std::__ndk1::shared_ptr<geode::Task<bool, int>::Handle>, bool)::{lambda()#1}>, void ()>::~__func()
PUBLIC 2dd88 0 std::__ndk1::__function::__func<geode::Task<bool, int>::cancel(std::__ndk1::shared_ptr<geode::Task<bool, int>::Handle>, bool)::{lambda()#1}, std::__ndk1::allocator<geode::Task<bool, int>::cancel(std::__ndk1::shared_ptr<geode::Task<bool, int>::Handle>, bool)::{lambda()#1}>, void ()>::~__func()
PUBLIC 2ddf4 0 std::__ndk1::__function::__func<geode::Task<bool, int>::cancel(std::__ndk1::shared_ptr<geode::Task<bool, int>::Handle>, bool)::{lambda()#1}, std::__ndk1::allocator<geode::Task<bool, int>::cancel(std::__ndk1::shared_ptr<geode::Task<bool, int>::Handle>, bool)::{lambda()#1}>, void ()>::__clone() const
PUBLIC 2de44 0 std::__ndk1::__function::__func<geode::Task<bool, int>::cancel(std::__ndk1::shared_ptr<geode::Task<bool, int>::Handle>, bool)::{lambda()#1}, std::__ndk1::allocator<geode::Task<bool, int>::cancel(std::__ndk1::shared_ptr<geode::Task<bool, int>::Handle>, bool)::{lambda()#1}>, void ()>::__clone(std::__ndk1::__function::__base<void ()>*) const
PUBLIC 2de78 0 std::__ndk1::__function::__func<geode::Task<bool, int>::cancel(std::__ndk1::shared_ptr<geode::Task<bool, int>::Handle>, bool)::{lambda()#1}, std::__ndk1::allocator<geode::Task<bool, int>::cancel(std::__ndk1::shared_ptr<geode::Task<bool, int>::Handle>, bool)::{lambda()#1}>, void ()>::destroy()
PUBLIC 2dec8 0 std::__ndk1::__function::__func<geode::Task<bool, int>::cancel(std::__ndk1::shared_ptr<geode::Task<bool, int>::Handle>, bool)::{lambda()#1}, std::__ndk1::allocator<geode::Task<bool, int>::cancel(std::__ndk1::shared_ptr<geode::Task<bool, int>::Handle>, bool)::{lambda()#1}>, void ()>::destroy_deallocate()
PUBLIC 2df28 0 std::__ndk1::__function::__func<geode::Task<bool, int>::cancel(std::__ndk1::shared_ptr<geode::Task<bool, int>::Handle>, bool)::{lambda()#1}, std::__ndk1::allocator<geode::Task<bool, int>::cancel(std::__ndk1::shared_ptr<geode::Task<bool, int>::Handle>, bool)::{lambda()#1}>, void ()>::operator()()
PUBLIC 2df30 0 std::__ndk1::__function::__func<geode::Task<bool, int>::cancel(std::__ndk1::shared_ptr<geode::Task<bool, int>::Handle>, bool)::{lambda()#1}, std::__ndk1::allocator<geode::Task<bool, int>::cancel(std::__ndk1::shared_ptr<geode::Task<bool, int>::Handle>, bool)::{lambda()#1}>, void ()>::target(std::type_info const&) const
PUBLIC 2df4c 0 std::__ndk1::__function::__func<geode::Task<bool, int>::cancel(std::__ndk1::shared_ptr<geode::Task<bool, int>::Handle>, bool)::{lambda()#1}, std::__ndk1::allocator<geode::Task<bool, int>::cancel(std::__ndk1::shared_ptr<geode::Task<bool, int>::Handle>, bool)::{lambda()#1}>, void ()>::target_type() const
PUBLIC 2df58 0 geode::Task<bool, int>::cancel(std::__ndk1::shared_ptr<geode::Task<bool, int>::Handle>, bool)::{lambda()#1}::operator()()
PUBLIC 2e11c 0 std::__ndk1::__function::__base<void (geode::Task<bool, int>::Event*)>::~__base()
PUBLIC 2e120 0 std::__ndk1::__function::__func<std::__ndk1::__bind<void (EditorUITimer::*&)(geode::Task<bool, int>::Event*), EditorUITimer*&, std::__ndk1::placeholders::__ph<1> const&>, std::__ndk1::allocator<std::__ndk1::__bind<void (EditorUITimer::*&)(geode::Task<bool, int>::Event*), EditorUITimer*&, std::__ndk1::placeholders::__ph<1> const&> >, void (geode::Task<bool, int>::Event*)>::~__func()
PUBLIC 2e124 0 std::__ndk1::__function::__func<std::__ndk1::__bind<void (EditorUITimer::*&)(geode::Task<bool, int>::Event*), EditorUITimer*&, std::__ndk1::placeholders::__ph<1> const&>, std::__ndk1::allocator<std::__ndk1::__bind<void (EditorUITimer::*&)(geode::Task<bool, int>::Event*), EditorUITimer*&, std::__ndk1::placeholders::__ph<1> const&> >, void (geode::Task<bool, int>::Event*)>::__clone() const
PUBLIC 2e164 0 std::__ndk1::__function::__func<std::__ndk1::__bind<void (EditorUITimer::*&)(geode::Task<bool, int>::Event*), EditorUITimer*&, std::__ndk1::placeholders::__ph<1> const&>, std::__ndk1::allocator<std::__ndk1::__bind<void (EditorUITimer::*&)(geode::Task<bool, int>::Event*), EditorUITimer*&, std::__ndk1::placeholders::__ph<1> const&> >, void (geode::Task<bool, int>::Event*)>::__clone(std::__ndk1::__function::__base<void (geode::Task<bool, int>::Event*)>*) const
PUBLIC 2e184 0 std::__ndk1::__function::__func<std::__ndk1::__bind<void (EditorUITimer::*&)(geode::Task<bool, int>::Event*), EditorUITimer*&, std::__ndk1::placeholders::__ph<1> const&>, std::__ndk1::allocator<std::__ndk1::__bind<void (EditorUITimer::*&)(geode::Task<bool, int>::Event*), EditorUITimer*&, std::__ndk1::placeholders::__ph<1> const&> >, void (geode::Task<bool, int>::Event*)>::destroy()
PUBLIC 2e188 0 std::__ndk1::__function::__func<std::__ndk1::__bind<void (EditorUITimer::*&)(geode::Task<bool, int>::Event*), EditorUITimer*&, std::__ndk1::placeholders::__ph<1> const&>, std::__ndk1::allocator<std::__ndk1::__bind<void (EditorUITimer::*&)(geode::Task<bool, int>::Event*), EditorUITimer*&, std::__ndk1::placeholders::__ph<1> const&> >, void (geode::Task<bool, int>::Event*)>::destroy_deallocate()
PUBLIC 2e18c 0 std::__ndk1::__function::__func<std::__ndk1::__bind<void (EditorUITimer::*&)(geode::Task<bool, int>::Event*), EditorUITimer*&, std::__ndk1::placeholders::__ph<1> const&>, std::__ndk1::allocator<std::__ndk1::__bind<void (EditorUITimer::*&)(geode::Task<bool, int>::Event*), EditorUITimer*&, std::__ndk1::placeholders::__ph<1> const&> >, void (geode::Task<bool, int>::Event*)>::operator()(geode::Task<bool, int>::Event*&&)
PUBLIC 2e1ac 0 std::__ndk1::__function::__func<std::__ndk1::__bind<void (EditorUITimer::*&)(geode::Task<bool, int>::Event*), EditorUITimer*&, std::__ndk1::placeholders::__ph<1> const&>, std::__ndk1::allocator<std::__ndk1::__bind<void (EditorUITimer::*&)(geode::Task<bool, int>::Event*), EditorUITimer*&, std::__ndk1::placeholders::__ph<1> const&> >, void (geode::Task<bool, int>::Event*)>::target(std::type_info const&) const
PUBLIC 2e1c8 0 std::__ndk1::__function::__func<std::__ndk1::__bind<void (EditorUITimer::*&)(geode::Task<bool, int>::Event*), EditorUITimer*&, std::__ndk1::placeholders::__ph<1> const&>, std::__ndk1::allocator<std::__ndk1::__bind<void (EditorUITimer::*&)(geode::Task<bool, int>::Event*), EditorUITimer*&, std::__ndk1::placeholders::__ph<1> const&> >, void (geode::Task<bool, int>::Event*)>::target_type() const
PUBLIC 2e1d4 0 std::__ndk1::__function::__value_func<void (geode::Task<bool, int>::Event*)>::swap[abi:ne180000](std::__ndk1::__function::__value_func<void (geode::Task<bool, int>::Event*)>&)
PUBLIC 2e36c 0 cocos2d::CCCopying::copyWithZone(cocos2d::CCZone*)
PUBLIC 2e374 0 cocos2d::CCLayerRGBA::setOpacityModifyRGB(bool)
PUBLIC 2e378 0 cocos2d::CCLayerRGBA::isOpacityModifyRGB()
PUBLIC 2e380 0 cocos2d::CCMouseDelegate::rightKeyDown()
PUBLIC 2e384 0 cocos2d::CCMouseDelegate::rightKeyUp()
PUBLIC 2e388 0 cocos2d::CCMouseDelegate::scrollWheel(float, float)
PUBLIC 2e38c 0 {virtual override thunk({offset(-408)}, cocos2d::CCLayerRGBA::setOpacityModifyRGB(bool))}
PUBLIC 2e390 0 {virtual override thunk({offset(-408)}, cocos2d::CCLayerRGBA::isOpacityModifyRGB())}
PUBLIC 2e398 0 __cxx_global_var_init.3
PUBLIC 2e818 0 geode::modifier::ModifyBase<geode::modifier::ModifyDerive<TimerPauseLayer, PauseLayer> >::~ModifyBase()
PUBLIC 2e834 0 geode::modifier::ModifyDerive<TimerPauseLayer, PauseLayer>::apply()
PUBLIC 2eb64 0 geode::modifier::ModifyBase<geode::modifier::ModifyDerive<TimerPauseLayer, PauseLayer> >::apply()
PUBLIC 2eb68 0 geode::modifier::AsStaticFunction_customSetup<TimerPauseLayer, void (TimerPauseLayer::*)()>::Impl<void (TimerPauseLayer::*)()>::function(TimerPauseLayer*)
PUBLIC 2ed44 0 geode::addresser::Addresser::addressOfVirtual<void, PauseLayer, >(void (PauseLayer::*)())
PUBLIC 2edec 0 PauseLayer::PauseLayer(geode::ZeroConstructorType)
PUBLIC 2ee78 0 TimerPlayLayer::pauseTimer(bool)
PUBLIC 2ef88 0 TimerPlayLayer::init(GJGameLevel*, bool, bool)
PUBLIC 2f064 0 TimerPlayLayer::resetLevel()
PUBLIC 2f2c0 0 geode::modifier::FieldIntermediate<TimerPlayLayer, PlayLayer>::self()
PUBLIC 2f44c 0 geode::modifier::FieldIntermediate<TimerPlayLayer, PlayLayer>::fieldDestructor(void*)
PUBLIC 2f450 0 geodeExecFunction14<(anonymous namespace)::ExecFuncUnique14>()::{lambda(TimerEvent*)#1}::__invoke(TimerEvent*)
PUBLIC 2f890 0 std::__ndk1::__function::__base<void (FLAlertLayer*, bool)>::~__base()
PUBLIC 2f894 0 std::__ndk1::__function::__func<geodeExecFunction14<(anonymous namespace)::ExecFuncUnique14>()::{lambda(TimerEvent*)#1}::operator()(TimerEvent*) const::{lambda(auto:1, bool)#1}, std::__ndk1::allocator<geodeExecFunction14<(anonymous namespace)::ExecFuncUnique14>()::{lambda(TimerEvent*)#1}::operator()(TimerEvent*) const::{lambda(auto:1, bool)#1}>, void (FLAlertLayer*, bool)>::~__func()
PUBLIC 2f898 0 std::__ndk1::__function::__func<geodeExecFunction14<(anonymous namespace)::ExecFuncUnique14>()::{lambda(TimerEvent*)#1}::operator()(TimerEvent*) const::{lambda(auto:1, bool)#1}, std::__ndk1::allocator<geodeExecFunction14<(anonymous namespace)::ExecFuncUnique14>()::{lambda(TimerEvent*)#1}::operator()(TimerEvent*) const::{lambda(auto:1, bool)#1}>, void (FLAlertLayer*, bool)>::__clone() const
PUBLIC 2f8cc 0 std::__ndk1::__function::__func<geodeExecFunction14<(anonymous namespace)::ExecFuncUnique14>()::{lambda(TimerEvent*)#1}::operator()(TimerEvent*) const::{lambda(auto:1, bool)#1}, std::__ndk1::allocator<geodeExecFunction14<(anonymous namespace)::ExecFuncUnique14>()::{lambda(TimerEvent*)#1}::operator()(TimerEvent*) const::{lambda(auto:1, bool)#1}>, void (FLAlertLayer*, bool)>::__clone(std::__ndk1::__function::__base<void (FLAlertLayer*, bool)>*) const
PUBLIC 2f8e0 0 std::__ndk1::__function::__func<geodeExecFunction14<(anonymous namespace)::ExecFuncUnique14>()::{lambda(TimerEvent*)#1}::operator()(TimerEvent*) const::{lambda(auto:1, bool)#1}, std::__ndk1::allocator<geodeExecFunction14<(anonymous namespace)::ExecFuncUnique14>()::{lambda(TimerEvent*)#1}::operator()(TimerEvent*) const::{lambda(auto:1, bool)#1}>, void (FLAlertLayer*, bool)>::destroy()
PUBLIC 2f8e4 0 std::__ndk1::__function::__func<geodeExecFunction14<(anonymous namespace)::ExecFuncUnique14>()::{lambda(TimerEvent*)#1}::operator()(TimerEvent*) const::{lambda(auto:1, bool)#1}, std::__ndk1::allocator<geodeExecFunction14<(anonymous namespace)::ExecFuncUnique14>()::{lambda(TimerEvent*)#1}::operator()(TimerEvent*) const::{lambda(auto:1, bool)#1}>, void (FLAlertLayer*, bool)>::destroy_deallocate()
PUBLIC 2f8e8 0 std::__ndk1::__function::__func<geodeExecFunction14<(anonymous namespace)::ExecFuncUnique14>()::{lambda(TimerEvent*)#1}::operator()(TimerEvent*) const::{lambda(auto:1, bool)#1}, std::__ndk1::allocator<geodeExecFunction14<(anonymous namespace)::ExecFuncUnique14>()::{lambda(TimerEvent*)#1}::operator()(TimerEvent*) const::{lambda(auto:1, bool)#1}>, void (FLAlertLayer*, bool)>::operator()(FLAlertLayer*&&, bool&&)
PUBLIC 2fb14 0 std::__ndk1::__function::__func<geodeExecFunction14<(anonymous namespace)::ExecFuncUnique14>()::{lambda(TimerEvent*)#1}::operator()(TimerEvent*) const::{lambda(auto:1, bool)#1}, std::__ndk1::allocator<geodeExecFunction14<(anonymous namespace)::ExecFuncUnique14>()::{lambda(TimerEvent*)#1}::operator()(TimerEvent*) const::{lambda(auto:1, bool)#1}>, void (FLAlertLayer*, bool)>::target(std::type_info const&) const
PUBLIC 2fb30 0 std::__ndk1::__function::__func<geodeExecFunction14<(anonymous namespace)::ExecFuncUnique14>()::{lambda(TimerEvent*)#1}::operator()(TimerEvent*) const::{lambda(auto:1, bool)#1}, std::__ndk1::allocator<geodeExecFunction14<(anonymous namespace)::ExecFuncUnique14>()::{lambda(TimerEvent*)#1}::operator()(TimerEvent*) const::{lambda(auto:1, bool)#1}>, void (FLAlertLayer*, bool)>::target_type() const
PUBLIC 2fb3c 0 geode::EventListener<geode::EventFilter<TimerEvent> >::getPool() const
PUBLIC 2fb40 0 geode::EventListener<geode::EventFilter<TimerEvent> >::handle(geode::Event*)
PUBLIC 2fce0 0 geode::EventListener<geode::EventFilter<TimerEvent> >::~EventListener()
PUBLIC 2fd3c 0 geode::EventListener<geode::EventFilter<TimerEvent> >::~EventListener()
PUBLIC 2fda0 0 std::__ndk1::__function::__base<geode::ListenerResult(TimerEvent*)>::~__base()
PUBLIC 2fda4 0 std::__ndk1::__function::__func<geode::ListenerResult (*)(TimerEvent*), std::__ndk1::allocator<geode::ListenerResult (*)(TimerEvent*)>, geode::ListenerResult(TimerEvent*)>::~__func()
PUBLIC 2fda8 0 std::__ndk1::__function::__func<geode::ListenerResult (*)(TimerEvent*), std::__ndk1::allocator<geode::ListenerResult (*)(TimerEvent*)>, geode::ListenerResult(TimerEvent*)>::__clone() const
PUBLIC 2fddc 0 std::__ndk1::__function::__func<geode::ListenerResult (*)(TimerEvent*), std::__ndk1::allocator<geode::ListenerResult (*)(TimerEvent*)>, geode::ListenerResult(TimerEvent*)>::__clone(std::__ndk1::__function::__base<geode::ListenerResult(TimerEvent*)>*) const
PUBLIC 2fdf0 0 std::__ndk1::__function::__func<geode::ListenerResult (*)(TimerEvent*), std::__ndk1::allocator<geode::ListenerResult (*)(TimerEvent*)>, geode::ListenerResult(TimerEvent*)>::destroy()
PUBLIC 2fdf4 0 std::__ndk1::__function::__func<geode::ListenerResult (*)(TimerEvent*), std::__ndk1::allocator<geode::ListenerResult (*)(TimerEvent*)>, geode::ListenerResult(TimerEvent*)>::destroy_deallocate()
PUBLIC 2fdf8 0 std::__ndk1::__function::__func<geode::ListenerResult (*)(TimerEvent*), std::__ndk1::allocator<geode::ListenerResult (*)(TimerEvent*)>, geode::ListenerResult(TimerEvent*)>::operator()(TimerEvent*&&)
PUBLIC 2fe08 0 std::__ndk1::__function::__func<geode::ListenerResult (*)(TimerEvent*), std::__ndk1::allocator<geode::ListenerResult (*)(TimerEvent*)>, geode::ListenerResult(TimerEvent*)>::target(std::type_info const&) const
PUBLIC 2fe24 0 std::__ndk1::__function::__func<geode::ListenerResult (*)(TimerEvent*), std::__ndk1::allocator<geode::ListenerResult (*)(TimerEvent*)>, geode::ListenerResult(TimerEvent*)>::target_type() const
PUBLIC 2fe30 0 _GLOBAL__sub_I_main.cpp
PUBLIC 2fedc 0 geode::Task<bool, int>::run(std::__ndk1::function<geode::Task<bool, int>::Result(std::__ndk1::function<void (int)>, std::__ndk1::function<bool ()>)>&&, std::__ndk1::basic_string_view<char, std::__ndk1::char_traits<char> >)
PUBLIC 30154 0 geode::Task<bool, int>::Handle::create(std::__ndk1::basic_string_view<char, std::__ndk1::char_traits<char> >)
PUBLIC 30268 0 std::__ndk1::thread::thread<geode::Task<bool, int>::run(std::__ndk1::function<geode::Task<bool, int>::Result(std::__ndk1::function<void (int)>, std::__ndk1::function<bool ()>)>&&, std::__ndk1::basic_string_view<char, std::__ndk1::char_traits<char> >)::{lambda()#1}, , void>(&&)
PUBLIC 303dc 0 geode::Task<bool, int>::run(std::__ndk1::function<geode::Task<bool, int>::Result(std::__ndk1::function<void (int)>, std::__ndk1::function<bool ()>)>&&, std::__ndk1::basic_string_view<char, std::__ndk1::char_traits<char> >)::{lambda()#1}::~{lambda()#1}()
PUBLIC 3044c 0 std::__ndk1::__shared_ptr_emplace<geode::Task<bool, int>::Handle, std::__ndk1::allocator<geode::Task<bool, int>::Handle> >::~__shared_ptr_emplace()
PUBLIC 3045c 0 std::__ndk1::__shared_ptr_emplace<geode::Task<bool, int>::Handle, std::__ndk1::allocator<geode::Task<bool, int>::Handle> >::~__shared_ptr_emplace()
PUBLIC 3048c 0 std::__ndk1::__shared_ptr_emplace<geode::Task<bool, int>::Handle, std::__ndk1::allocator<geode::Task<bool, int>::Handle> >::__on_zero_shared()
PUBLIC 30494 0 std::__ndk1::__shared_ptr_emplace<geode::Task<bool, int>::Handle, std::__ndk1::allocator<geode::Task<bool, int>::Handle> >::__on_zero_shared_weak()
PUBLIC 30498 0 geode::Task<bool, int>::Handle::~Handle()
PUBLIC 30530 0 std::__ndk1::__thread_proxy[abi:ne180000]<std::__ndk1::tuple<std::__ndk1::unique_ptr<std::__ndk1::__thread_struct, std::__ndk1::default_delete<std::__ndk1::unique_ptr> >, geode::Task<bool, int>::run(std::__ndk1::function<geode::Task::Result(geode::Task<bool, int><void (int)>, geode::Task<bool, int><bool ()>)>&&, std::__ndk1::basic_string_view<char, std::__ndk1::char_traits<char> >)::{lambda()#1}> >(std::__ndk1::tuple<std::__ndk1::unique_ptr<std::__ndk1::__thread_struct, std::__ndk1::default_delete<std::__ndk1::unique_ptr> >, geode::Task<bool, int>::run(std::__ndk1::function<geode::Task::Result(geode::Task<bool, int><void (int)>, geode::Task<bool, int><bool ()>)>&&, std::__ndk1::basic_string_view<char, std::__ndk1::char_traits<char> >)::{lambda()#1}>)
PUBLIC 305d0 0 std::__ndk1::unique_ptr<std::__ndk1::__thread_struct, std::__ndk1::default_delete<std::__ndk1::__thread_struct> >::~unique_ptr[abi:ne180000]()
PUBLIC 3060c 0 geode::Task<bool, int>::run(std::__ndk1::function<geode::Task<bool, int>::Result(std::__ndk1::function<void (int)>, std::__ndk1::function<bool ()>)>&&, std::__ndk1::basic_string_view<char, std::__ndk1::char_traits<char> >)::{lambda()#1}::operator()() const
PUBLIC 309ec 0 geode::Task<bool, int>::finish(std::__ndk1::shared_ptr<geode::Task<bool, int>::Handle>, bool&&)
PUBLIC 30b5c 0 std::__ndk1::__function::__func<geode::Task<bool, int>::run(std::__ndk1::function<geode::Task<bool, int>::Result(std::__ndk1::function<void (int)>, std::__ndk1::function<bool ()>)>&&, std::__ndk1::basic_string_view<char, std::__ndk1::char_traits<char> >)::{lambda()#1}::operator()() const::{lambda(int)#1}, std::__ndk1::allocator<geode::Task<bool, int>::run(std::__ndk1::function<geode::Task<bool, int>::Result(std::__ndk1::function<void (int)>, std::__ndk1::function<bool ()>)>&&, std::__ndk1::basic_string_view<char, std::__ndk1::char_traits<char> >)::{lambda()#1}::operator()() const::{lambda(int)#1}>, void (int)>::~__func()
PUBLIC 30b7c 0 std::__ndk1::__function::__func<geode::Task<bool, int>::run(std::__ndk1::function<geode::Task<bool, int>::Result(std::__ndk1::function<void (int)>, std::__ndk1::function<bool ()>)>&&, std::__ndk1::basic_string_view<char, std::__ndk1::char_traits<char> >)::{lambda()#1}::operator()() const::{lambda(int)#1}, std::__ndk1::allocator<geode::Task<bool, int>::run(std::__ndk1::function<geode::Task<bool, int>::Result(std::__ndk1::function<void (int)>, std::__ndk1::function<bool ()>)>&&, std::__ndk1::basic_string_view<char, std::__ndk1::char_traits<char> >)::{lambda()#1}::operator()() const::{lambda(int)#1}>, void (int)>::~__func()
PUBLIC 30bb8 0 std::__ndk1::__function::__func<geode::Task<bool, int>::run(std::__ndk1::function<geode::Task<bool, int>::Result(std::__ndk1::function<void (int)>, std::__ndk1::function<bool ()>)>&&, std::__ndk1::basic_string_view<char, std::__ndk1::char_traits<char> >)::{lambda()#1}::operator()() const::{lambda(int)#1}, std::__ndk1::allocator<geode::Task<bool, int>::run(std::__ndk1::function<geode::Task<bool, int>::Result(std::__ndk1::function<void (int)>, std::__ndk1::function<bool ()>)>&&, std::__ndk1::basic_string_view<char, std::__ndk1::char_traits<char> >)::{lambda()#1}::operator()() const::{lambda(int)#1}>, void (int)>::__clone() const
PUBLIC 30c08 0 std::__ndk1::__function::__func<geode::Task<bool, int>::run(std::__ndk1::function<geode::Task<bool, int>::Result(std::__ndk1::function<void (int)>, std::__ndk1::function<bool ()>)>&&, std::__ndk1::basic_string_view<char, std::__ndk1::char_traits<char> >)::{lambda()#1}::operator()() const::{lambda(int)#1}, std::__ndk1::allocator<geode::Task<bool, int>::run(std::__ndk1::function<geode::Task<bool, int>::Result(std::__ndk1::function<void (int)>, std::__ndk1::function<bool ()>)>&&, std::__ndk1::basic_string_view<char, std::__ndk1::char_traits<char> >)::{lambda()#1}::operator()() const::{lambda(int)#1}>, void (int)>::__clone(std::__ndk1::__function::__base<void (int)>*) const
PUBLIC 30c3c 0 std::__ndk1::__function::__func<geode::Task<bool, int>::run(std::__ndk1::function<geode::Task<bool, int>::Result(std::__ndk1::function<void (int)>, std::__ndk1::function<bool ()>)>&&, std::__ndk1::basic_string_view<char, std::__ndk1::char_traits<char> >)::{lambda()#1}::operator()() const::{lambda(int)#1}, std::__ndk1::allocator<geode::Task<bool, int>::run(std::__ndk1::function<geode::Task<bool, int>::Result(std::__ndk1::function<void (int)>, std::__ndk1::function<bool ()>)>&&, std::__ndk1::basic_string_view<char, std::__ndk1::char_traits<char> >)::{lambda()#1}::operator()() const::{lambda(int)#1}>, void (int)>::destroy()
PUBLIC 30c4c 0 std::__ndk1::__function::__func<geode::Task<bool, int>::run(std::__ndk1::function<geode::Task<bool, int>::Result(std::__ndk1::function<void (int)>, std::__ndk1::function<bool ()>)>&&, std::__ndk1::basic_string_view<char, std::__ndk1::char_traits<char> >)::{lambda()#1}::operator()() const::{lambda(int)#1}, std::__ndk1::allocator<geode::Task<bool, int>::run(std::__ndk1::function<geode::Task<bool, int>::Result(std::__ndk1::function<void (int)>, std::__ndk1::function<bool ()>)>&&, std::__ndk1::basic_string_view<char, std::__ndk1::char_traits<char> >)::{lambda()#1}::operator()() const::{lambda(int)#1}>, void (int)>::destroy_deallocate()
PUBLIC 30c7c 0 std::__ndk1::__function::__func<geode::Task<bool, int>::run(std::__ndk1::function<geode::Task<bool, int>::Result(std::__ndk1::function<void (int)>, std::__ndk1::function<bool ()>)>&&, std::__ndk1::basic_string_view<char, std::__ndk1::char_traits<char> >)::{lambda()#1}::operator()() const::{lambda(int)#1}, std::__ndk1::allocator<geode::Task<bool, int>::run(std::__ndk1::function<geode::Task<bool, int>::Result(std::__ndk1::function<void (int)>, std::__ndk1::function<bool ()>)>&&, std::__ndk1::basic_string_view<char, std::__ndk1::char_traits<char> >)::{lambda()#1}::operator()() const::{lambda(int)#1}>, void (int)>::operator()(int&&)
PUBLIC 30d48 0 std::__ndk1::__function::__func<geode::Task<bool, int>::run(std::__ndk1::function<geode::Task<bool, int>::Result(std::__ndk1::function<void (int)>, std::__ndk1::function<bool ()>)>&&, std::__ndk1::basic_string_view<char, std::__ndk1::char_traits<char> >)::{lambda()#1}::operator()() const::{lambda(int)#1}, std::__ndk1::allocator<geode::Task<bool, int>::run(std::__ndk1::function<geode::Task<bool, int>::Result(std::__ndk1::function<void (int)>, std::__ndk1::function<bool ()>)>&&, std::__ndk1::basic_string_view<char, std::__ndk1::char_traits<char> >)::{lambda()#1}::operator()() const::{lambda(int)#1}>, void (int)>::target(std::type_info const&) const
PUBLIC 30d64 0 std::__ndk1::__function::__func<geode::Task<bool, int>::run(std::__ndk1::function<geode::Task<bool, int>::Result(std::__ndk1::function<void (int)>, std::__ndk1::function<bool ()>)>&&, std::__ndk1::basic_string_view<char, std::__ndk1::char_traits<char> >)::{lambda()#1}::operator()() const::{lambda(int)#1}, std::__ndk1::allocator<geode::Task<bool, int>::run(std::__ndk1::function<geode::Task<bool, int>::Result(std::__ndk1::function<void (int)>, std::__ndk1::function<bool ()>)>&&, std::__ndk1::basic_string_view<char, std::__ndk1::char_traits<char> >)::{lambda()#1}::operator()() const::{lambda(int)#1}>, void (int)>::target_type() const
PUBLIC 30d70 0 geode::Task<bool, int>::progress(std::__ndk1::shared_ptr<geode::Task<bool, int>::Handle>, int&&)
PUBLIC 30ec0 0 geode::Task<bool, int>::progress(std::__ndk1::shared_ptr<geode::Task<bool, int>::Handle>, int&&)::{lambda()#1}::~{lambda()#1}()
PUBLIC 30f10 0 std::__ndk1::__function::__func<geode::Task<bool, int>::progress(std::__ndk1::shared_ptr<geode::Task<bool, int>::Handle>, int&&)::{lambda()#1}, std::__ndk1::allocator<geode::Task<bool, int>::progress(std::__ndk1::shared_ptr<geode::Task<bool, int>::Handle>, int&&)::{lambda()#1}>, void ()>::~__func()
PUBLIC 30f6c 0 std::__ndk1::__function::__func<geode::Task<bool, int>::progress(std::__ndk1::shared_ptr<geode::Task<bool, int>::Handle>, int&&)::{lambda()#1}, std::__ndk1::allocator<geode::Task<bool, int>::progress(std::__ndk1::shared_ptr<geode::Task<bool, int>::Handle>, int&&)::{lambda()#1}>, void ()>::~__func()
PUBLIC 30fd8 0 std::__ndk1::__function::__func<geode::Task<bool, int>::progress(std::__ndk1::shared_ptr<geode::Task<bool, int>::Handle>, int&&)::{lambda()#1}, std::__ndk1::allocator<geode::Task<bool, int>::progress(std::__ndk1::shared_ptr<geode::Task<bool, int>::Handle>, int&&)::{lambda()#1}>, void ()>::__clone() const
PUBLIC 31030 0 std::__ndk1::__function::__func<geode::Task<bool, int>::progress(std::__ndk1::shared_ptr<geode::Task<bool, int>::Handle>, int&&)::{lambda()#1}, std::__ndk1::allocator<geode::Task<bool, int>::progress(std::__ndk1::shared_ptr<geode::Task<bool, int>::Handle>, int&&)::{lambda()#1}>, void ()>::__clone(std::__ndk1::__function::__base<void ()>*) const
PUBLIC 3107c 0 std::__ndk1::__function::__func<geode::Task<bool, int>::progress(std::__ndk1::shared_ptr<geode::Task<bool, int>::Handle>, int&&)::{lambda()#1}, std::__ndk1::allocator<geode::Task<bool, int>::progress(std::__ndk1::shared_ptr<geode::Task<bool, int>::Handle>, int&&)::{lambda()#1}>, void ()>::destroy()
PUBLIC 310cc 0 std::__ndk1::__function::__func<geode::Task<bool, int>::progress(std::__ndk1::shared_ptr<geode::Task<bool, int>::Handle>, int&&)::{lambda()#1}, std::__ndk1::allocator<geode::Task<bool, int>::progress(std::__ndk1::shared_ptr<geode::Task<bool, int>::Handle>, int&&)::{lambda()#1}>, void ()>::destroy_deallocate()
PUBLIC 3112c 0 std::__ndk1::__function::__func<geode::Task<bool, int>::progress(std::__ndk1::shared_ptr<geode::Task<bool, int>::Handle>, int&&)::{lambda()#1}, std::__ndk1::allocator<geode::Task<bool, int>::progress(std::__ndk1::shared_ptr<geode::Task<bool, int>::Handle>, int&&)::{lambda()#1}>, void ()>::operator()()
PUBLIC 31134 0 std::__ndk1::__function::__func<geode::Task<bool, int>::progress(std::__ndk1::shared_ptr<geode::Task<bool, int>::Handle>, int&&)::{lambda()#1}, std::__ndk1::allocator<geode::Task<bool, int>::progress(std::__ndk1::shared_ptr<geode::Task<bool, int>::Handle>, int&&)::{lambda()#1}>, void ()>::target(std::type_info const&) const
PUBLIC 31150 0 std::__ndk1::__function::__func<geode::Task<bool, int>::progress(std::__ndk1::shared_ptr<geode::Task<bool, int>::Handle>, int&&)::{lambda()#1}, std::__ndk1::allocator<geode::Task<bool, int>::progress(std::__ndk1::shared_ptr<geode::Task<bool, int>::Handle>, int&&)::{lambda()#1}>, void ()>::target_type() const
PUBLIC 3115c 0 geode::Task<bool, int>::progress(std::__ndk1::shared_ptr<geode::Task<bool, int>::Handle>, int&&)::{lambda()#1}::operator()()
PUBLIC 31318 0 std::__ndk1::__function::__func<geode::Task<bool, int>::run(std::__ndk1::function<geode::Task<bool, int>::Result(std::__ndk1::function<void (int)>, std::__ndk1::function<bool ()>)>&&, std::__ndk1::basic_string_view<char, std::__ndk1::char_traits<char> >)::{lambda()#1}::operator()() const::{lambda()#1}, std::__ndk1::allocator<geode::Task<bool, int>::run(std::__ndk1::function<geode::Task<bool, int>::Result(std::__ndk1::function<void (int)>, std::__ndk1::function<bool ()>)>&&, std::__ndk1::basic_string_view<char, std::__ndk1::char_traits<char> >)::{lambda()#1}::operator()() const::{lambda()#1}>, bool ()>::~__func()
PUBLIC 31338 0 std::__ndk1::__function::__func<geode::Task<bool, int>::run(std::__ndk1::function<geode::Task<bool, int>::Result(std::__ndk1::function<void (int)>, std::__ndk1::function<bool ()>)>&&, std::__ndk1::basic_string_view<char, std::__ndk1::char_traits<char> >)::{lambda()#1}::operator()() const::{lambda()#1}, std::__ndk1::allocator<geode::Task<bool, int>::run(std::__ndk1::function<geode::Task<bool, int>::Result(std::__ndk1::function<void (int)>, std::__ndk1::function<bool ()>)>&&, std::__ndk1::basic_string_view<char, std::__ndk1::char_traits<char> >)::{lambda()#1}::operator()() const::{lambda()#1}>, bool ()>::~__func()
PUBLIC 31374 0 std::__ndk1::__function::__func<geode::Task<bool, int>::run(std::__ndk1::function<geode::Task<bool, int>::Result(std::__ndk1::function<void (int)>, std::__ndk1::function<bool ()>)>&&, std::__ndk1::basic_string_view<char, std::__ndk1::char_traits<char> >)::{lambda()#1}::operator()() const::{lambda()#1}, std::__ndk1::allocator<geode::Task<bool, int>::run(std::__ndk1::function<geode::Task<bool, int>::Result(std::__ndk1::function<void (int)>, std::__ndk1::function<bool ()>)>&&, std::__ndk1::basic_string_view<char, std::__ndk1::char_traits<char> >)::{lambda()#1}::operator()() const::{lambda()#1}>, bool ()>::__clone() const
PUBLIC 313c4 0 std::__ndk1::__function::__func<geode::Task<bool, int>::run(std::__ndk1::function<geode::Task<bool, int>::Result(std::__ndk1::function<void (int)>, std::__ndk1::function<bool ()>)>&&, std::__ndk1::basic_string_view<char, std::__ndk1::char_traits<char> >)::{lambda()#1}::operator()() const::{lambda()#1}, std::__ndk1::allocator<geode::Task<bool, int>::run(std::__ndk1::function<geode::Task<bool, int>::Result(std::__ndk1::function<void (int)>, std::__ndk1::function<bool ()>)>&&, std::__ndk1::basic_string_view<char, std::__ndk1::char_traits<char> >)::{lambda()#1}::operator()() const::{lambda()#1}>, bool ()>::__clone(std::__ndk1::__function::__base<bool ()>*) const
PUBLIC 313f8 0 std::__ndk1::__function::__func<geode::Task<bool, int>::run(std::__ndk1::function<geode::Task<bool, int>::Result(std::__ndk1::function<void (int)>, std::__ndk1::function<bool ()>)>&&, std::__ndk1::basic_string_view<char, std::__ndk1::char_traits<char> >)::{lambda()#1}::operator()() const::{lambda()#1}, std::__ndk1::allocator<geode::Task<bool, int>::run(std::__ndk1::function<geode::Task<bool, int>::Result(std::__ndk1::function<void (int)>, std::__ndk1::function<bool ()>)>&&, std::__ndk1::basic_string_view<char, std::__ndk1::char_traits<char> >)::{lambda()#1}::operator()() const::{lambda()#1}>, bool ()>::destroy()
PUBLIC 31408 0 std::__ndk1::__function::__func<geode::Task<bool, int>::run(std::__ndk1::function<geode::Task<bool, int>::Result(std::__ndk1::function<void (int)>, std::__ndk1::function<bool ()>)>&&, std::__ndk1::basic_string_view<char, std::__ndk1::char_traits<char> >)::{lambda()#1}::operator()() const::{lambda()#1}, std::__ndk1::allocator<geode::Task<bool, int>::run(std::__ndk1::function<geode::Task<bool, int>::Result(std::__ndk1::function<void (int)>, std::__ndk1::function<bool ()>)>&&, std::__ndk1::basic_string_view<char, std::__ndk1::char_traits<char> >)::{lambda()#1}::operator()() const::{lambda()#1}>, bool ()>::destroy_deallocate()
PUBLIC 31438 0 std::__ndk1::__function::__func<geode::Task<bool, int>::run(std::__ndk1::function<geode::Task<bool, int>::Result(std::__ndk1::function<void (int)>, std::__ndk1::function<bool ()>)>&&, std::__ndk1::basic_string_view<char, std::__ndk1::char_traits<char> >)::{lambda()#1}::operator()() const::{lambda()#1}, std::__ndk1::allocator<geode::Task<bool, int>::run(std::__ndk1::function<geode::Task<bool, int>::Result(std::__ndk1::function<void (int)>, std::__ndk1::function<bool ()>)>&&, std::__ndk1::basic_string_view<char, std::__ndk1::char_traits<char> >)::{lambda()#1}::operator()() const::{lambda()#1}>, bool ()>::operator()()
PUBLIC 31440 0 std::__ndk1::__function::__func<geode::Task<bool, int>::run(std::__ndk1::function<geode::Task<bool, int>::Result(std::__ndk1::function<void (int)>, std::__ndk1::function<bool ()>)>&&, std::__ndk1::basic_string_view<char, std::__ndk1::char_traits<char> >)::{lambda()#1}::operator()() const::{lambda()#1}, std::__ndk1::allocator<geode::Task<bool, int>::run(std::__ndk1::function<geode::Task<bool, int>::Result(std::__ndk1::function<void (int)>, std::__ndk1::function<bool ()>)>&&, std::__ndk1::basic_string_view<char, std::__ndk1::char_traits<char> >)::{lambda()#1}::operator()() const::{lambda()#1}>, bool ()>::target(std::type_info const&) const
PUBLIC 3145c 0 std::__ndk1::__function::__func<geode::Task<bool, int>::run(std::__ndk1::function<geode::Task<bool, int>::Result(std::__ndk1::function<void (int)>, std::__ndk1::function<bool ()>)>&&, std::__ndk1::basic_string_view<char, std::__ndk1::char_traits<char> >)::{lambda()#1}::operator()() const::{lambda()#1}, std::__ndk1::allocator<geode::Task<bool, int>::run(std::__ndk1::function<geode::Task<bool, int>::Result(std::__ndk1::function<void (int)>, std::__ndk1::function<bool ()>)>&&, std::__ndk1::basic_string_view<char, std::__ndk1::char_traits<char> >)::{lambda()#1}::operator()() const::{lambda()#1}>, bool ()>::target_type() const
PUBLIC 31468 0 std::__ndk1::__invoke_void_return_wrapper<bool, false>::__call[abi:ne180000]<geode::Task<bool, int>::run(std::__ndk1::function<geode::Task::Result(geode::Task<bool, int><void (int)>, geode::Task<bool, int><bool ()>)>&&, std::__ndk1::basic_string_view<char, std::__ndk1::char_traits<char> >)::{lambda()#1}::operator()() const::{lambda()#1}&>(geode::Task<bool, int>::run(std::__ndk1::function<geode::Task::Result(geode::Task<bool, int><void (int)>, geode::Task<bool, int><bool ()>)>&&, std::__ndk1::basic_string_view<char, std::__ndk1::char_traits<char> >)::{lambda()#1}::operator()() const::{lambda()#1}&)
PUBLIC 31564 0 geode::Task<bool, int>::finish(std::__ndk1::shared_ptr<geode::Task<bool, int>::Handle>, bool&&)::{lambda()#1}::~{lambda()#1}()
PUBLIC 315b4 0 std::__ndk1::__function::__func<geode::Task<bool, int>::finish(std::__ndk1::shared_ptr<geode::Task<bool, int>::Handle>, bool&&)::{lambda()#1}, std::__ndk1::allocator<geode::Task<bool, int>::finish(std::__ndk1::shared_ptr<geode::Task<bool, int>::Handle>, bool&&)::{lambda()#1}>, void ()>::~__func()
PUBLIC 31610 0 std::__ndk1::__function::__func<geode::Task<bool, int>::finish(std::__ndk1::shared_ptr<geode::Task<bool, int>::Handle>, bool&&)::{lambda()#1}, std::__ndk1::allocator<geode::Task<bool, int>::finish(std::__ndk1::shared_ptr<geode::Task<bool, int>::Handle>, bool&&)::{lambda()#1}>, void ()>::~__func()
PUBLIC 3167c 0 std::__ndk1::__function::__func<geode::Task<bool, int>::finish(std::__ndk1::shared_ptr<geode::Task<bool, int>::Handle>, bool&&)::{lambda()#1}, std::__ndk1::allocator<geode::Task<bool, int>::finish(std::__ndk1::shared_ptr<geode::Task<bool, int>::Handle>, bool&&)::{lambda()#1}>, void ()>::__clone() const
PUBLIC 316d4 0 std::__ndk1::__function::__func<geode::Task<bool, int>::finish(std::__ndk1::shared_ptr<geode::Task<bool, int>::Handle>, bool&&)::{lambda()#1}, std::__ndk1::allocator<geode::Task<bool, int>::finish(std::__ndk1::shared_ptr<geode::Task<bool, int>::Handle>, bool&&)::{lambda()#1}>, void ()>::__clone(std::__ndk1::__function::__base<void ()>*) const
PUBLIC 31720 0 std::__ndk1::__function::__func<geode::Task<bool, int>::finish(std::__ndk1::shared_ptr<geode::Task<bool, int>::Handle>, bool&&)::{lambda()#1}, std::__ndk1::allocator<geode::Task<bool, int>::finish(std::__ndk1::shared_ptr<geode::Task<bool, int>::Handle>, bool&&)::{lambda()#1}>, void ()>::destroy()
PUBLIC 31770 0 std::__ndk1::__function::__func<geode::Task<bool, int>::finish(std::__ndk1::shared_ptr<geode::Task<bool, int>::Handle>, bool&&)::{lambda()#1}, std::__ndk1::allocator<geode::Task<bool, int>::finish(std::__ndk1::shared_ptr<geode::Task<bool, int>::Handle>, bool&&)::{lambda()#1}>, void ()>::destroy_deallocate()
PUBLIC 317d0 0 std::__ndk1::__function::__func<geode::Task<bool, int>::finish(std::__ndk1::shared_ptr<geode::Task<bool, int>::Handle>, bool&&)::{lambda()#1}, std::__ndk1::allocator<geode::Task<bool, int>::finish(std::__ndk1::shared_ptr<geode::Task<bool, int>::Handle>, bool&&)::{lambda()#1}>, void ()>::operator()()
PUBLIC 317d8 0 std::__ndk1::__function::__func<geode::Task<bool, int>::finish(std::__ndk1::shared_ptr<geode::Task<bool, int>::Handle>, bool&&)::{lambda()#1}, std::__ndk1::allocator<geode::Task<bool, int>::finish(std::__ndk1::shared_ptr<geode::Task<bool, int>::Handle>, bool&&)::{lambda()#1}>, void ()>::target(std::type_info const&) const
PUBLIC 317f4 0 std::__ndk1::__function::__func<geode::Task<bool, int>::finish(std::__ndk1::shared_ptr<geode::Task<bool, int>::Handle>, bool&&)::{lambda()#1}, std::__ndk1::allocator<geode::Task<bool, int>::finish(std::__ndk1::shared_ptr<geode::Task<bool, int>::Handle>, bool&&)::{lambda()#1}>, void ()>::target_type() const
PUBLIC 31800 0 geode::Task<bool, int>::finish(std::__ndk1::shared_ptr<geode::Task<bool, int>::Handle>, bool&&)::{lambda()#1}::operator()()
PUBLIC 319d4 0 std::__ndk1::unique_ptr<std::__ndk1::tuple<std::__ndk1::unique_ptr<std::__ndk1::__thread_struct, std::__ndk1::default_delete<std::__ndk1::__thread_struct> >, geode::Task<bool, int>::run(std::__ndk1::function<geode::Task<bool, int>::Result(std::__ndk1::function<void (int)>, std::__ndk1::function<bool ()>)>&&, std::__ndk1::basic_string_view<char, std::__ndk1::char_traits<char> >)::{lambda()#1}>, std::__ndk1::default_delete<std::__ndk1::tuple<std::__ndk1::unique_ptr<std::__ndk1::__thread_struct, std::__ndk1::default_delete<std::__ndk1::__thread_struct> >, geode::Task<bool, int>::run(std::__ndk1::function<geode::Task<bool, int>::Result(std::__ndk1::function<void (int)>, std::__ndk1::function<bool ()>)>&&, std::__ndk1::basic_string_view<char, std::__ndk1::char_traits<char> >)::{lambda()#1}> > >::reset[abi:ne180000](std::__ndk1::tuple<std::__ndk1::unique_ptr<std::__ndk1::__thread_struct, std::__ndk1::default_delete<std::__ndk1::__thread_struct> >, geode::Task<bool, int>::run(std::__ndk1::function<geode::Task<bool, int>::Result(std::__ndk1::function<void (int)>, std::__ndk1::function<bool ()>)>&&, std::__ndk1::basic_string_view<char, std::__ndk1::char_traits<char> >)::{lambda()#1}>*)
PUBLIC 31a70 0 std::__ndk1::__function::__base<geode::Task<bool, int>::Result(std::__ndk1::function<void (int)>, std::__ndk1::function<bool ()>)>::~__base()
PUBLIC 31a74 0 std::__ndk1::__function::__func<startEditorTimer(int)::$_0, std::__ndk1::allocator<startEditorTimer(int)::$_0>, geode::Task<bool, int>::Result(std::__ndk1::function<void (int)>, std::__ndk1::function<bool ()>)>::~__func()
PUBLIC 31a78 0 std::__ndk1::__function::__func<startEditorTimer(int)::$_0, std::__ndk1::allocator<startEditorTimer(int)::$_0>, geode::Task<bool, int>::Result(std::__ndk1::function<void (int)>, std::__ndk1::function<bool ()>)>::__clone() const
PUBLIC 31ab0 0 std::__ndk1::__function::__func<startEditorTimer(int)::$_0, std::__ndk1::allocator<startEditorTimer(int)::$_0>, geode::Task<bool, int>::Result(std::__ndk1::function<void (int)>, std::__ndk1::function<bool ()>)>::__clone(std::__ndk1::__function::__base<geode::Task<bool, int>::Result(std::__ndk1::function<void (int)>, std::__ndk1::function<bool ()>)>*) const
PUBLIC 31ac8 0 std::__ndk1::__function::__func<startEditorTimer(int)::$_0, std::__ndk1::allocator<startEditorTimer(int)::$_0>, geode::Task<bool, int>::Result(std::__ndk1::function<void (int)>, std::__ndk1::function<bool ()>)>::destroy()
PUBLIC 31acc 0 std::__ndk1::__function::__func<startEditorTimer(int)::$_0, std::__ndk1::allocator<startEditorTimer(int)::$_0>, geode::Task<bool, int>::Result(std::__ndk1::function<void (int)>, std::__ndk1::function<bool ()>)>::destroy_deallocate()
PUBLIC 31ad0 0 std::__ndk1::__function::__func<startEditorTimer(int)::$_0, std::__ndk1::allocator<startEditorTimer(int)::$_0>, geode::Task<bool, int>::Result(std::__ndk1::function<void (int)>, std::__ndk1::function<bool ()>)>::operator()(std::__ndk1::function<void (int)>&&, std::__ndk1::function<bool ()>&&)
PUBLIC 31d8c 0 std::__ndk1::__function::__func<startEditorTimer(int)::$_0, std::__ndk1::allocator<startEditorTimer(int)::$_0>, geode::Task<bool, int>::Result(std::__ndk1::function<void (int)>, std::__ndk1::function<bool ()>)>::target(std::type_info const&) const
PUBLIC 31da8 0 std::__ndk1::__function::__func<startEditorTimer(int)::$_0, std::__ndk1::allocator<startEditorTimer(int)::$_0>, geode::Task<bool, int>::Result(std::__ndk1::function<void (int)>, std::__ndk1::function<bool ()>)>::target_type() const
PUBLIC 31db4 0 TimerSettingsButton::onTimerSettings(cocos2d::CCObject*)
PUBLIC 31f28 0 TimerSettingsLayer::create(cocos2d::CCNode* const&)
PUBLIC 3209c 0 TimerSettingsLayer::setup(cocos2d::CCNode* const&)
PUBLIC 32a1c 0 TimerSettingsLayer::resetTimer(cocos2d::CCObject*)
PUBLIC 32b5c 0 TimerSettingsLayer::pauseTime(cocos2d::CCObject*)
PUBLIC 32c94 0 TimerSettingsLayer::changeSettings(cocos2d::CCObject*)
PUBLIC 32cd8 0 TimerSettingsLayer::createInfoPopup(cocos2d::CCObject*)
PUBLIC 32e4c 0 TimerSettingsLayer::updateButtons()
PUBLIC 33388 0 geode::cocos::CCArrayExt<cocos2d::CCNode*, cocos2d::CCNode>::~CCArrayExt()
PUBLIC 333a4 0 TimerSettingsLayer::~TimerSettingsLayer()
PUBLIC 33470 0 {virtual override thunk({offset(-320)}, TimerSettingsLayer::~TimerSettingsLayer())}
PUBLIC 33478 0 TimerSettingsLayer::~TimerSettingsLayer()
PUBLIC 3349c 0 {virtual override thunk({offset(-320)}, TimerSettingsLayer::~TimerSettingsLayer())}
PUBLIC 334c4 0 geode::Popup<cocos2d::CCNode* const&>::registerWithTouchDispatcher()
PUBLIC 334f0 0 geode::Popup<cocos2d::CCNode* const&>::keyDown(cocos2d::enumKeyCodes)
PUBLIC 33518 0 geode::Popup<cocos2d::CCNode* const&>::onClose(cocos2d::CCObject*)
PUBLIC 33660 0 {virtual override thunk({offset(-344)}, geode::Popup<cocos2d::CCNode* const&>::keyDown(cocos2d::enumKeyCodes))}
PUBLIC 3368c 0 cocos2d::CCKeyboardDelegate::keyUp(cocos2d::enumKeyCodes)
PUBLIC 33690 0 geode::Popup<cocos2d::CCNode* const&>::~Popup()
PUBLIC 336fc 0 geode::Popup<cocos2d::CCNode* const&>::~Popup()
PUBLIC 33700 0 {virtual override thunk({offset(-320)}, geode::Popup<cocos2d::CCNode* const&>::~Popup())}
PUBLIC 3376c 0 {virtual override thunk({offset(-320)}, geode::Popup<cocos2d::CCNode* const&>::~Popup())}
PUBLIC 33770 0 std::__ndk1::shared_ptr<geode::SettingV3>::~shared_ptr[abi:ne180000]()
PUBLIC 337c0 0 geode::Popup<cocos2d::CCNode* const&>::initBase(float, float, cocos2d::CCNode* const&, char const*, cocos2d::CCRect, bool)
PUBLIC 33ad4 0 geode::SettingChangedFilterV3::~SettingChangedFilterV3()
PUBLIC 33b24 0 std::__ndk1::__function::__base<void (std::__ndk1::shared_ptr<geode::SettingV3>)>::~__base()
PUBLIC 33b28 0 std::__ndk1::__function::__func<geode::listenForSettingChangesV3<bool, TimerSettingsLayer::setup(cocos2d::CCNode* const&)::$_0>(std::__ndk1::basic_string_view<char, std::__ndk1::char_traits<char> >, TimerSettingsLayer::setup(cocos2d::CCNode* const&)::$_0&&, geode::Mod*)::{lambda(std::__ndk1::shared_ptr<geode::SettingV3>)#1}, std::__ndk1::allocator<geode::listenForSettingChangesV3<bool, TimerSettingsLayer::setup(cocos2d::CCNode* const&)::$_0>(std::__ndk1::basic_string_view<char, std::__ndk1::char_traits<char> >, TimerSettingsLayer::setup(cocos2d::CCNode* const&)::$_0&&, geode::Mod*)::{lambda(std::__ndk1::shared_ptr<geode::SettingV3>)#1}>, void (std::__ndk1::shared_ptr<geode::SettingV3>)>::~__func()
PUBLIC 33b2c 0 std::__ndk1::__function::__func<geode::listenForSettingChangesV3<bool, TimerSettingsLayer::setup(cocos2d::CCNode* const&)::$_0>(std::__ndk1::basic_string_view<char, std::__ndk1::char_traits<char> >, TimerSettingsLayer::setup(cocos2d::CCNode* const&)::$_0&&, geode::Mod*)::{lambda(std::__ndk1::shared_ptr<geode::SettingV3>)#1}, std::__ndk1::allocator<geode::listenForSettingChangesV3<bool, TimerSettingsLayer::setup(cocos2d::CCNode* const&)::$_0>(std::__ndk1::basic_string_view<char, std::__ndk1::char_traits<char> >, TimerSettingsLayer::setup(cocos2d::CCNode* const&)::$_0&&, geode::Mod*)::{lambda(std::__ndk1::shared_ptr<geode::SettingV3>)#1}>, void (std::__ndk1::shared_ptr<geode::SettingV3>)>::__clone() const
PUBLIC 33b60 0 std::__ndk1::__function::__func<geode::listenForSettingChangesV3<bool, TimerSettingsLayer::setup(cocos2d::CCNode* const&)::$_0>(std::__ndk1::basic_string_view<char, std::__ndk1::char_traits<char> >, TimerSettingsLayer::setup(cocos2d::CCNode* const&)::$_0&&, geode::Mod*)::{lambda(std::__ndk1::shared_ptr<geode::SettingV3>)#1}, std::__ndk1::allocator<geode::listenForSettingChangesV3<bool, TimerSettingsLayer::setup(cocos2d::CCNode* const&)::$_0>(std::__ndk1::basic_string_view<char, std::__ndk1::char_traits<char> >, TimerSettingsLayer::setup(cocos2d::CCNode* const&)::$_0&&, geode::Mod*)::{lambda(std::__ndk1::shared_ptr<geode::SettingV3>)#1}>, void (std::__ndk1::shared_ptr<geode::SettingV3>)>::__clone(std::__ndk1::__function::__base<void (std::__ndk1::shared_ptr<geode::SettingV3>)>*) const
PUBLIC 33b74 0 std::__ndk1::__function::__func<geode::listenForSettingChangesV3<bool, TimerSettingsLayer::setup(cocos2d::CCNode* const&)::$_0>(std::__ndk1::basic_string_view<char, std::__ndk1::char_traits<char> >, TimerSettingsLayer::setup(cocos2d::CCNode* const&)::$_0&&, geode::Mod*)::{lambda(std::__ndk1::shared_ptr<geode::SettingV3>)#1}, std::__ndk1::allocator<geode::listenForSettingChangesV3<bool, TimerSettingsLayer::setup(cocos2d::CCNode* const&)::$_0>(std::__ndk1::basic_string_view<char, std::__ndk1::char_traits<char> >, TimerSettingsLayer::setup(cocos2d::CCNode* const&)::$_0&&, geode::Mod*)::{lambda(std::__ndk1::shared_ptr<geode::SettingV3>)#1}>, void (std::__ndk1::shared_ptr<geode::SettingV3>)>::destroy()
PUBLIC 33b78 0 std::__ndk1::__function::__func<geode::listenForSettingChangesV3<bool, TimerSettingsLayer::setup(cocos2d::CCNode* const&)::$_0>(std::__ndk1::basic_string_view<char, std::__ndk1::char_traits<char> >, TimerSettingsLayer::setup(cocos2d::CCNode* const&)::$_0&&, geode::Mod*)::{lambda(std::__ndk1::shared_ptr<geode::SettingV3>)#1}, std::__ndk1::allocator<geode::listenForSettingChangesV3<bool, TimerSettingsLayer::setup(cocos2d::CCNode* const&)::$_0>(std::__ndk1::basic_string_view<char, std::__ndk1::char_traits<char> >, TimerSettingsLayer::setup(cocos2d::CCNode* const&)::$_0&&, geode::Mod*)::{lambda(std::__ndk1::shared_ptr<geode::SettingV3>)#1}>, void (std::__ndk1::shared_ptr<geode::SettingV3>)>::destroy_deallocate()
PUBLIC 33b7c 0 std::__ndk1::__function::__func<geode::listenForSettingChangesV3<bool, TimerSettingsLayer::setup(cocos2d::CCNode* const&)::$_0>(std::__ndk1::basic_string_view<char, std::__ndk1::char_traits<char> >, TimerSettingsLayer::setup(cocos2d::CCNode* const&)::$_0&&, geode::Mod*)::{lambda(std::__ndk1::shared_ptr<geode::SettingV3>)#1}, std::__ndk1::allocator<geode::listenForSettingChangesV3<bool, TimerSettingsLayer::setup(cocos2d::CCNode* const&)::$_0>(std::__ndk1::basic_string_view<char, std::__ndk1::char_traits<char> >, TimerSettingsLayer::setup(cocos2d::CCNode* const&)::$_0&&, geode::Mod*)::{lambda(std::__ndk1::shared_ptr<geode::SettingV3>)#1}>, void (std::__ndk1::shared_ptr<geode::SettingV3>)>::operator()(std::__ndk1::shared_ptr<geode::SettingV3>&&)
PUBLIC 33ca8 0 std::__ndk1::__function::__func<geode::listenForSettingChangesV3<bool, TimerSettingsLayer::setup(cocos2d::CCNode* const&)::$_0>(std::__ndk1::basic_string_view<char, std::__ndk1::char_traits<char> >, TimerSettingsLayer::setup(cocos2d::CCNode* const&)::$_0&&, geode::Mod*)::{lambda(std::__ndk1::shared_ptr<geode::SettingV3>)#1}, std::__ndk1::allocator<geode::listenForSettingChangesV3<bool, TimerSettingsLayer::setup(cocos2d::CCNode* const&)::$_0>(std::__ndk1::basic_string_view<char, std::__ndk1::char_traits<char> >, TimerSettingsLayer::setup(cocos2d::CCNode* const&)::$_0&&, geode::Mod*)::{lambda(std::__ndk1::shared_ptr<geode::SettingV3>)#1}>, void (std::__ndk1::shared_ptr<geode::SettingV3>)>::target(std::type_info const&) const
PUBLIC 33cc4 0 std::__ndk1::__function::__func<geode::listenForSettingChangesV3<bool, TimerSettingsLayer::setup(cocos2d::CCNode* const&)::$_0>(std::__ndk1::basic_string_view<char, std::__ndk1::char_traits<char> >, TimerSettingsLayer::setup(cocos2d::CCNode* const&)::$_0&&, geode::Mod*)::{lambda(std::__ndk1::shared_ptr<geode::SettingV3>)#1}, std::__ndk1::allocator<geode::listenForSettingChangesV3<bool, TimerSettingsLayer::setup(cocos2d::CCNode* const&)::$_0>(std::__ndk1::basic_string_view<char, std::__ndk1::char_traits<char> >, TimerSettingsLayer::setup(cocos2d::CCNode* const&)::$_0&&, geode::Mod*)::{lambda(std::__ndk1::shared_ptr<geode::SettingV3>)#1}>, void (std::__ndk1::shared_ptr<geode::SettingV3>)>::target_type() const
PUBLIC 33cd0 0 std::__ndk1::shared_ptr<geode::BoolSettingV3>::~shared_ptr[abi:ne180000]()
PUBLIC 33d20 0 geode::EventListener<geode::SettingChangedFilterV3>::getPool() const
PUBLIC 33d24 0 geode::EventListener<geode::SettingChangedFilterV3>::handle(geode::Event*)
PUBLIC 33e98 0 geode::EventListener<geode::SettingChangedFilterV3>::~EventListener()
PUBLIC 33f34 0 geode::EventListener<geode::SettingChangedFilterV3>::~EventListener()
PUBLIC 33fd8 0 geode::Popup<cocos2d::CCNode* const&>::CloseEvent::~CloseEvent()
PUBLIC 34038 0 geode::Popup<cocos2d::CCNode* const&>::CloseEvent::~CloseEvent()
PUBLIC 340a8 0 std::__ndk1::__shared_ptr_emplace<geode::Popup<cocos2d::CCNode* const&>::CloseEvent::Impl, std::__ndk1::allocator<geode::Popup<cocos2d::CCNode* const&>::CloseEvent::Impl> >::~__shared_ptr_emplace()
PUBLIC 340b8 0 std::__ndk1::__shared_ptr_emplace<geode::Popup<cocos2d::CCNode* const&>::CloseEvent::Impl, std::__ndk1::allocator<geode::Popup<cocos2d::CCNode* const&>::CloseEvent::Impl> >::~__shared_ptr_emplace()
PUBLIC 340e8 0 std::__ndk1::__shared_ptr_emplace<geode::Popup<cocos2d::CCNode* const&>::CloseEvent::Impl, std::__ndk1::allocator<geode::Popup<cocos2d::CCNode* const&>::CloseEvent::Impl> >::__on_zero_shared()
PUBLIC 340ec 0 std::__ndk1::__shared_ptr_emplace<geode::Popup<cocos2d::CCNode* const&>::CloseEvent::Impl, std::__ndk1::allocator<geode::Popup<cocos2d::CCNode* const&>::CloseEvent::Impl> >::__on_zero_shared_weak()
PUBLIC 340f0 0 TimerEvent::TimerEvent(bool, cocos2d::CCNode*)
PUBLIC 341d8 0 TimerEvent::~TimerEvent()
PUBLIC 341fc 0 TimerLayer::create(std::__ndk1::basic_string<char, std::__ndk1::char_traits<char>, std::__ndk1::allocator<char> > const&)
PUBLIC 34370 0 TimerLayer::setup(std::__ndk1::basic_string<char, std::__ndk1::char_traits<char>, std::__ndk1::allocator<char> > const&)
PUBLIC 34ad4 0 TimerLayer::countDown(geode::Task<bool, int>::Event*)
PUBLIC 34fc0 0 TimerLayer::onClose(cocos2d::CCObject*)
PUBLIC 35084 0 geode::Popup<std::__ndk1::basic_string<char, std::__ndk1::char_traits<char>, std::__ndk1::allocator<char> > const&>::onClose(cocos2d::CCObject*)
PUBLIC 351cc 0 geode::Popup<std::__ndk1::basic_string<char, std::__ndk1::char_traits<char>, std::__ndk1::allocator<char> > const&>::~Popup()
PUBLIC 35238 0 TimerLayer::~TimerLayer()
PUBLIC 352ac 0 geode::Popup<std::__ndk1::basic_string<char, std::__ndk1::char_traits<char>, std::__ndk1::allocator<char> > const&>::registerWithTouchDispatcher()
PUBLIC 352d8 0 geode::Popup<std::__ndk1::basic_string<char, std::__ndk1::char_traits<char>, std::__ndk1::allocator<char> > const&>::keyDown(cocos2d::enumKeyCodes)
PUBLIC 35300 0 {virtual override thunk({offset(-320)}, TimerLayer::~TimerLayer())}
PUBLIC 3536c 0 {virtual override thunk({offset(-320)}, TimerLayer::~TimerLayer())}
PUBLIC 353e0 0 {virtual override thunk({offset(-344)}, geode::Popup<std::__ndk1::basic_string<char, std::__ndk1::char_traits<char>, std::__ndk1::allocator<char> > const&>::keyDown(cocos2d::enumKeyCodes))}
PUBLIC 3540c 0 geode::Popup<std::__ndk1::basic_string<char, std::__ndk1::char_traits<char>, std::__ndk1::allocator<char> > const&>::~Popup()
PUBLIC 35410 0 {virtual override thunk({offset(-320)}, geode::Popup<std::__ndk1::basic_string<char, std::__ndk1::char_traits<char>, std::__ndk1::allocator<char> > const&>::~Popup())}
PUBLIC 3547c 0 {virtual override thunk({offset(-320)}, geode::Popup<std::__ndk1::basic_string<char, std::__ndk1::char_traits<char>, std::__ndk1::allocator<char> > const&>::~Popup())}
PUBLIC 35480 0 std::__ndk1::__function::__func<beginTimer()::$_0, std::__ndk1::allocator<beginTimer()::$_0>, geode::Task<bool, int>::Result(std::__ndk1::function<void (int)>, std::__ndk1::function<bool ()>)>::~__func()
PUBLIC 35484 0 std::__ndk1::__function::__func<beginTimer()::$_0, std::__ndk1::allocator<beginTimer()::$_0>, geode::Task<bool, int>::Result(std::__ndk1::function<void (int)>, std::__ndk1::function<bool ()>)>::__clone() const
PUBLIC 354a8 0 std::__ndk1::__function::__func<beginTimer()::$_0, std::__ndk1::allocator<beginTimer()::$_0>, geode::Task<bool, int>::Result(std::__ndk1::function<void (int)>, std::__ndk1::function<bool ()>)>::__clone(std::__ndk1::__function::__base<geode::Task<bool, int>::Result(std::__ndk1::function<void (int)>, std::__ndk1::function<bool ()>)>*) const
PUBLIC 354b8 0 std::__ndk1::__function::__func<beginTimer()::$_0, std::__ndk1::allocator<beginTimer()::$_0>, geode::Task<bool, int>::Result(std::__ndk1::function<void (int)>, std::__ndk1::function<bool ()>)>::destroy()
PUBLIC 354bc 0 std::__ndk1::__function::__func<beginTimer()::$_0, std::__ndk1::allocator<beginTimer()::$_0>, geode::Task<bool, int>::Result(std::__ndk1::function<void (int)>, std::__ndk1::function<bool ()>)>::destroy_deallocate()
PUBLIC 354c0 0 std::__ndk1::__function::__func<beginTimer()::$_0, std::__ndk1::allocator<beginTimer()::$_0>, geode::Task<bool, int>::Result(std::__ndk1::function<void (int)>, std::__ndk1::function<bool ()>)>::operator()(std::__ndk1::function<void (int)>&&, std::__ndk1::function<bool ()>&&)
PUBLIC 35744 0 std::__ndk1::__function::__func<beginTimer()::$_0, std::__ndk1::allocator<beginTimer()::$_0>, geode::Task<bool, int>::Result(std::__ndk1::function<void (int)>, std::__ndk1::function<bool ()>)>::target(std::type_info const&) const
PUBLIC 35760 0 std::__ndk1::__function::__func<beginTimer()::$_0, std::__ndk1::allocator<beginTimer()::$_0>, geode::Task<bool, int>::Result(std::__ndk1::function<void (int)>, std::__ndk1::function<bool ()>)>::target_type() const
PUBLIC 3576c 0 geode::Popup<std::__ndk1::basic_string<char, std::__ndk1::char_traits<char>, std::__ndk1::allocator<char> > const&>::initBase(float, float, std::__ndk1::basic_string<char, std::__ndk1::char_traits<char>, std::__ndk1::allocator<char> > const&, char const*, cocos2d::CCRect, bool)
PUBLIC 35a80 0 std::__ndk1::__function::__func<std::__ndk1::__bind<void (TimerLayer::*&)(geode::Task<bool, int>::Event*), TimerLayer*&, std::__ndk1::placeholders::__ph<1> const&>, std::__ndk1::allocator<std::__ndk1::__bind<void (TimerLayer::*&)(geode::Task<bool, int>::Event*), TimerLayer*&, std::__ndk1::placeholders::__ph<1> const&> >, void (geode::Task<bool, int>::Event*)>::~__func()
PUBLIC 35a84 0 std::__ndk1::__function::__func<std::__ndk1::__bind<void (TimerLayer::*&)(geode::Task<bool, int>::Event*), TimerLayer*&, std::__ndk1::placeholders::__ph<1> const&>, std::__ndk1::allocator<std::__ndk1::__bind<void (TimerLayer::*&)(geode::Task<bool, int>::Event*), TimerLayer*&, std::__ndk1::placeholders::__ph<1> const&> >, void (geode::Task<bool, int>::Event*)>::__clone() const
PUBLIC 35ac4 0 std::__ndk1::__function::__func<std::__ndk1::__bind<void (TimerLayer::*&)(geode::Task<bool, int>::Event*), TimerLayer*&, std::__ndk1::placeholders::__ph<1> const&>, std::__ndk1::allocator<std::__ndk1::__bind<void (TimerLayer::*&)(geode::Task<bool, int>::Event*), TimerLayer*&, std::__ndk1::placeholders::__ph<1> const&> >, void (geode::Task<bool, int>::Event*)>::__clone(std::__ndk1::__function::__base<void (geode::Task<bool, int>::Event*)>*) const
PUBLIC 35ae4 0 std::__ndk1::__function::__func<std::__ndk1::__bind<void (TimerLayer::*&)(geode::Task<bool, int>::Event*), TimerLayer*&, std::__ndk1::placeholders::__ph<1> const&>, std::__ndk1::allocator<std::__ndk1::__bind<void (TimerLayer::*&)(geode::Task<bool, int>::Event*), TimerLayer*&, std::__ndk1::placeholders::__ph<1> const&> >, void (geode::Task<bool, int>::Event*)>::destroy()
PUBLIC 35ae8 0 std::__ndk1::__function::__func<std::__ndk1::__bind<void (TimerLayer::*&)(geode::Task<bool, int>::Event*), TimerLayer*&, std::__ndk1::placeholders::__ph<1> const&>, std::__ndk1::allocator<std::__ndk1::__bind<void (TimerLayer::*&)(geode::Task<bool, int>::Event*), TimerLayer*&, std::__ndk1::placeholders::__ph<1> const&> >, void (geode::Task<bool, int>::Event*)>::destroy_deallocate()
PUBLIC 35aec 0 std::__ndk1::__function::__func<std::__ndk1::__bind<void (TimerLayer::*&)(geode::Task<bool, int>::Event*), TimerLayer*&, std::__ndk1::placeholders::__ph<1> const&>, std::__ndk1::allocator<std::__ndk1::__bind<void (TimerLayer::*&)(geode::Task<bool, int>::Event*), TimerLayer*&, std::__ndk1::placeholders::__ph<1> const&> >, void (geode::Task<bool, int>::Event*)>::operator()(geode::Task<bool, int>::Event*&&)
PUBLIC 35b0c 0 std::__ndk1::__function::__func<std::__ndk1::__bind<void (TimerLayer::*&)(geode::Task<bool, int>::Event*), TimerLayer*&, std::__ndk1::placeholders::__ph<1> const&>, std::__ndk1::allocator<std::__ndk1::__bind<void (TimerLayer::*&)(geode::Task<bool, int>::Event*), TimerLayer*&, std::__ndk1::placeholders::__ph<1> const&> >, void (geode::Task<bool, int>::Event*)>::target(std::type_info const&) const
PUBLIC 35b28 0 std::__ndk1::__function::__func<std::__ndk1::__bind<void (TimerLayer::*&)(geode::Task<bool, int>::Event*), TimerLayer*&, std::__ndk1::placeholders::__ph<1> const&>, std::__ndk1::allocator<std::__ndk1::__bind<void (TimerLayer::*&)(geode::Task<bool, int>::Event*), TimerLayer*&, std::__ndk1::placeholders::__ph<1> const&> >, void (geode::Task<bool, int>::Event*)>::target_type() const
PUBLIC 35b34 0 geode::Popup<std::__ndk1::basic_string<char, std::__ndk1::char_traits<char>, std::__ndk1::allocator<char> > const&>::CloseEvent::~CloseEvent()
PUBLIC 35b94 0 geode::Popup<std::__ndk1::basic_string<char, std::__ndk1::char_traits<char>, std::__ndk1::allocator<char> > const&>::CloseEvent::~CloseEvent()
PUBLIC 35c04 0 std::__ndk1::__shared_ptr_emplace<geode::Popup<std::__ndk1::basic_string<char, std::__ndk1::char_traits<char>, std::__ndk1::allocator<char> > const&>::CloseEvent::Impl, std::__ndk1::allocator<geode::Popup<std::__ndk1::basic_string<char, std::__ndk1::char_traits<char>, std::__ndk1::allocator<char> > const&>::CloseEvent::Impl> >::~__shared_ptr_emplace()
PUBLIC 35c14 0 std::__ndk1::__shared_ptr_emplace<geode::Popup<std::__ndk1::basic_string<char, std::__ndk1::char_traits<char>, std::__ndk1::allocator<char> > const&>::CloseEvent::Impl, std::__ndk1::allocator<geode::Popup<std::__ndk1::basic_string<char, std::__ndk1::char_traits<char>, std::__ndk1::allocator<char> > const&>::CloseEvent::Impl> >::~__shared_ptr_emplace()
PUBLIC 35c44 0 std::__ndk1::__shared_ptr_emplace<geode::Popup<std::__ndk1::basic_string<char, std::__ndk1::char_traits<char>, std::__ndk1::allocator<char> > const&>::CloseEvent::Impl, std::__ndk1::allocator<geode::Popup<std::__ndk1::basic_string<char, std::__ndk1::char_traits<char>, std::__ndk1::allocator<char> > const&>::CloseEvent::Impl> >::__on_zero_shared()
PUBLIC 35c48 0 std::__ndk1::__shared_ptr_emplace<geode::Popup<std::__ndk1::basic_string<char, std::__ndk1::char_traits<char>, std::__ndk1::allocator<char> > const&>::CloseEvent::Impl, std::__ndk1::allocator<geode::Popup<std::__ndk1::basic_string<char, std::__ndk1::char_traits<char>, std::__ndk1::allocator<char> > const&>::CloseEvent::Impl> >::__on_zero_shared_weak()
PUBLIC 35c4c 0 _GLOBAL__sub_I_TimerLayer.cpp
PUBLIC m 35d50 0 geodeImplicitEntry
PUBLIC 35d8c 0 std::__ndk1::unordered_map<void*, bool, std::__ndk1::hash<void*>, std::__ndk1::equal_to<void*>, std::__ndk1::allocator<std::__ndk1::pair<void* const, bool> > >::~unordered_map[abi:ne180000]()
PUBLIC 35dd8 0 wrapFunction(unsigned long, tulip::hook::WrapperMetadata const&)
PUBLIC 35f0c 0 geode::impl::ResultData<void*, std::__ndk1::basic_string<char, std::__ndk1::char_traits<char>, std::__ndk1::allocator<char> > >::unwrapErr() &
PUBLIC 35f84 0 geode::impl::ResultData<void*, std::__ndk1::basic_string<char, std::__ndk1::char_traits<char>, std::__ndk1::allocator<char> > >::~ResultData()
PUBLIC 35ff8 0 tulip::hook::WrapperMetadata::~WrapperMetadata()
PUBLIC 3605c 0 cocos2d::CCObject::~CCObject()
PUBLIC 36080 0 cocos2d::CCNode::~CCNode()
PUBLIC 360a4 0 {virtual override thunk({offset(-320)}, cocos2d::CCLayer::~CCLayer())}
PUBLIC 360ac 0 cocos2d::CCLayer::~CCLayer()
PUBLIC 360d0 0 {virtual override thunk({offset(-320)}, cocos2d::CCLayer::~CCLayer())}
PUBLIC 360f8 0 cocos2d::CCLayerRGBA::~CCLayerRGBA()
PUBLIC 363d0 0 {virtual override thunk({offset(-320)}, cocos2d::CCLayerRGBA::~CCLayerRGBA())}
PUBLIC 363d8 0 cocos2d::CCLayerRGBA::~CCLayerRGBA()
PUBLIC 363fc 0 {virtual override thunk({offset(-320)}, cocos2d::CCLayerRGBA::~CCLayerRGBA())}
PUBLIC 36424 0 cocos2d::CCLayerColor::CCLayerColor()
PUBLIC 36674 0 {virtual override thunk({offset(-320)}, cocos2d::CCLayerColor::~CCLayerColor())}
PUBLIC 3667c 0 cocos2d::CCLayerColor::~CCLayerColor()
PUBLIC 366a0 0 {virtual override thunk({offset(-320)}, cocos2d::CCLayerColor::~CCLayerColor())}
PUBLIC 366c8 0 {virtual override thunk({offset(-320)}, FLAlertLayer::~FLAlertLayer())}
PUBLIC 366d0 0 FLAlertLayer::~FLAlertLayer()
PUBLIC 366f4 0 {virtual override thunk({offset(-320)}, FLAlertLayer::~FLAlertLayer())}
PUBLIC 3671c 0 FLAlertLayer::create(FLAlertLayerProtocol*, char const*, gd::string, char const*, char const*, float)
PUBLIC 368d4 0 tulip::hook::AbstractFunction::from<FLAlertLayer*, FLAlertLayerProtocol*, char const*, gd::string, char const*, char const*, float>(FLAlertLayer* (*)(FLAlertLayerProtocol*, char const*, gd::string, char const*, char const*, float))
PUBLIC 36db8 0 FMODAudioEngine::playEffectAdvanced(gd::string, float, float, float, float, bool, bool, int, int, int, int, bool, int, bool, bool, int, int, float, int)
PUBLIC 36fec 0 tulip::hook::AbstractFunction::from<void, FMODAudioEngine*, gd::string, float, float, float, float, bool, bool, int, int, int, int, bool, int, bool, bool, int, int, float, int>(void (*)(FMODAudioEngine*, gd::string, float, float, float, float, bool, bool, int, int, int, int, bool, int, bool, bool, int, int, float, int))
PUBLIC 38288 0 cocos2d::CCObject::update(float)
PUBLIC 3828c 0 cocos2d::CCLayerColor::~CCLayerColor()
PUBLIC 38548 0 cocos2d::CCLayer::~CCLayer()
PUBLIC 38810 0 cocos2d::CCNode::~CCNode()
PUBLIC 38a88 0 FLAlertLayer::~FLAlertLayer()
PUBLIC 38d44 0 cocos2d::CCObject::~CCObject()
PUBLIC 39210 0 _ZN5geode15UnwrapExceptionC2IRPvQsr4implE18IsStringStreamableIT_EEENS_4impl5OkTagEOS4_
PUBLIC 39364 0 _ZN5geode15UnwrapExceptionC2IRNSt6__ndk112basic_stringIcNS2_11char_traitsIcEENS2_9allocatorIcEEEEQsr4implE18IsStringStreamableIT_EEENS_4impl6ErrTagEOSA_
PUBLIC 394cc 0 std::__ndk1::__variant_detail::__visitation::__base::__dispatcher<(unsigned long)0>::__dispatch[abi:ne180000]<std::__ndk1::__variant_detail::__dtor<std::__ndk1::__variant_detail::__traits<void*, std::__ndk1::basic_string<char, std::__ndk1::char_traits<char>, std::__ndk1::allocator<char> > >, (std::__ndk1::__variant_detail::_Trait)1>::__destroy[abi:ne180000]()::{lambda(auto:1&)#1}, std::__ndk1::__variant_detail::__base<(std::__ndk1::__variant_detail::__traits<void*, std::__ndk1::basic_string<char, std::__ndk1::char_traits<char>, std::__ndk1::allocator<char> > >)1, std::__ndk1::__variant_detail::__traits, std::__ndk1::allocator<char> >&>(std::__ndk1::__variant_detail::__dtor<std::__ndk1::__variant_detail::__traits<void*, std::__ndk1::basic_string<char, std::__ndk1::char_traits<char>, std::__ndk1::allocator<char> > >, (std::__ndk1::__variant_detail::_Trait)1>, std::__ndk1::__variant_detail::__base<(std::__ndk1::__variant_detail::__traits<void*, std::__ndk1::basic_string<char, std::__ndk1::char_traits<char>, std::__ndk1::allocator<char> > >)1, std::__ndk1::__variant_detail::__traits, std::__ndk1::allocator<char> >&)
PUBLIC 394d0 0 std::__ndk1::__variant_detail::__visitation::__base::__dispatcher<(unsigned long)1>::__dispatch[abi:ne180000]<std::__ndk1::__variant_detail::__dtor<std::__ndk1::__variant_detail::__traits<void*, std::__ndk1::basic_string<char, std::__ndk1::char_traits<char>, std::__ndk1::allocator<char> > >, (std::__ndk1::__variant_detail::_Trait)1>::__destroy[abi:ne180000]()::{lambda(auto:1&)#1}, std::__ndk1::__variant_detail::__base<(std::__ndk1::__variant_detail::__traits<void*, std::__ndk1::basic_string<char, std::__ndk1::char_traits<char>, std::__ndk1::allocator<char> > >)1, std::__ndk1::__variant_detail::__traits, std::__ndk1::allocator<char> >&>(std::__ndk1::__variant_detail::__dtor<std::__ndk1::__variant_detail::__traits<void*, std::__ndk1::basic_string<char, std::__ndk1::char_traits<char>, std::__ndk1::allocator<char> > >, (std::__ndk1::__variant_detail::_Trait)1>, std::__ndk1::__variant_detail::__base<(std::__ndk1::__variant_detail::__traits<void*, std::__ndk1::basic_string<char, std::__ndk1::char_traits<char>, std::__ndk1::allocator<char> > >)1, std::__ndk1::__variant_detail::__traits, std::__ndk1::allocator<char> >&)
PUBLIC 394e4 0 std::__ndk1::__hash_table<std::__ndk1::__hash_value_type<void*, bool>, std::__ndk1::__unordered_map_hasher<void*, std::__ndk1::__hash_value_type<void*, bool>, std::__ndk1::hash<void*>, std::__ndk1::equal_to<void*>, true>, std::__ndk1::__unordered_map_equal<void*, std::__ndk1::__hash_value_type<void*, bool>, std::__ndk1::equal_to<void*>, std::__ndk1::hash<void*>, true>, std::__ndk1::allocator<std::__ndk1::__hash_value_type<void*, bool> > >::__emplace_unique_key_args<void*, std::__ndk1::piecewise_construct_t const&, std::__ndk1::tuple<void* const&>, std::__ndk1::tuple<> >(void* const&, std::__ndk1::piecewise_construct_t const&, std::__ndk1::tuple<void* const&>, std::__ndk1::tuple<>)
PUBLIC 399c4 0 __udivti3
PUBLIC 399d0 0 __udivmodti4
PUBLIC m 39c1c 0 __eqtf2
PUBLIC 39cbc 0 __unordtf2
PUBLIC 39cf4 0 fmt::v11::detail::write_loc(fmt::v11::basic_appender<char>, fmt::v11::loc_value, fmt::v11::format_specs const&, fmt::v11::detail::locale_ref)
PUBLIC 39f88 0 fmt::v11::format_facet<std::__ndk1::locale>::~format_facet()
PUBLIC 3a004 0 fmt::v11::report_error(char const*)
PUBLIC 3a054 0 fmt::v11::format_error::runtime_error(char const*)
PUBLIC 3a080 0 fmt::v11::format_facet<std::__ndk1::locale>::do_put(fmt::v11::basic_appender<char>, fmt::v11::loc_value, fmt::v11::format_specs const&) const
PUBLIC 3a840 0 fmt::v11::detail::loc_writer<char>::~loc_writer()
PUBLIC 3a8a4 0 fmt::v11::detail::vformat_to<char>(fmt::v11::detail::buffer<char>&, fmt::v11::basic_string_view<char>, fmt::v11::detail::vformat_args<char>::type, fmt::v11::detail::locale_ref)
PUBLIC 3ae14 0 fmt::v11::detail::is_printable(unsigned int)
PUBLIC 3b03c 0 fmt::v11::detail::dragonbox::to_decimal<float>(float)
PUBLIC 3b318 0 fmt::v11::detail::dragonbox::to_decimal<double>(double)
PUBLIC 3b854 0 fmt::v11::basic_memory_buffer<char, (unsigned long)500, std::__ndk1::allocator<char> >::grow(fmt::v11::detail::buffer<char>&, unsigned long)
PUBLIC 3b8cc 0 fmt::v11::format_facet<std::__ndk1::locale>::~format_facet()
PUBLIC 3b958 0 fmt::v11::format_error::~format_error()
PUBLIC 3b97c 0 fmt::v11::detail::copy_noinline<char, char const*, fmt::v11::basic_appender<char> >(char const*, char const*, fmt::v11::basic_appender<char>)
PUBLIC 3bacc 0 fmt::v11::detail::default_arg_formatter<char>::operator()<bool>(bool)
PUBLIC 3bb34 0 fmt::v11::detail::default_arg_formatter<char>::operator()<char>(char)
PUBLIC 3bbc4 0 fmt::v11::detail::default_arg_formatter<char>::operator()<float>(float)
PUBLIC 3bcb0 0 fmt::v11::detail::default_arg_formatter<char>::operator()<double>(double)
PUBLIC 3bd9c 0 fmt::v11::detail::default_arg_formatter<char>::operator()<char const*>(char const*)
PUBLIC 3bde4 0 fmt::v11::detail::default_arg_formatter<char>::operator()<void const*>(void const*)
PUBLIC 3be7c 0 _ZN3fmt3v116detail5writeIcNS0_14basic_appenderIcEEiTnNSt6__ndk19enable_ifIXaaaasr11is_integralIT1_EE5valuentsr3std7is_sameIS7_bEE5valuentsr3std7is_sameIS7_T_EE5valueEiE4typeELi0EEET0_SB_S7_
PUBLIC 3c0dc 0 fmt::v11::detail::copy_noinline<char, char*, fmt::v11::basic_appender<char> >(char*, char*, fmt::v11::basic_appender<char>)
PUBLIC 3c22c 0 _ZN3fmt3v116detail5writeIcNS0_14basic_appenderIcEEjTnNSt6__ndk19enable_ifIXaaaasr11is_integralIT1_EE5valuentsr3std7is_sameIS7_bEE5valuentsr3std7is_sameIS7_T_EE5valueEiE4typeELi0EEET0_SB_S7_
PUBLIC 3c40c 0 _ZN3fmt3v116detail5writeIcNS0_14basic_appenderIcEExTnNSt6__ndk19enable_ifIXaaaasr11is_integralIT1_EE5valuentsr3std7is_sameIS7_bEE5valuentsr3std7is_sameIS7_T_EE5valueEiE4typeELi0EEET0_SB_S7_
PUBLIC 3c690 0 _ZN3fmt3v116detail5writeIcNS0_14basic_appenderIcEEyTnNSt6__ndk19enable_ifIXaaaasr11is_integralIT1_EE5valuentsr3std7is_sameIS7_bEE5valuentsr3std7is_sameIS7_T_EE5valueEiE4typeELi0EEET0_SB_S7_
PUBLIC 3c898 0 _ZN3fmt3v116detail5writeIcNS0_14basic_appenderIcEEnTnNSt6__ndk19enable_ifIXaaaasr11is_integralIT1_EE5valuentsr3std7is_sameIS7_bEE5valuentsr3std7is_sameIS7_T_EE5valueEiE4typeELi0EEET0_SB_S7_
PUBLIC 3cbf8 0 _ZN3fmt3v116detail5writeIcNS0_14basic_appenderIcEEoTnNSt6__ndk19enable_ifIXaaaasr11is_integralIT1_EE5valuentsr3std7is_sameIS7_bEE5valuentsr3std7is_sameIS7_T_EE5valueEiE4typeELi0EEET0_SB_S7_
PUBLIC 3cf0c 0 _ZN3fmt3v116detail5writeIcNS0_14basic_appenderIcEEbTnNSt6__ndk19enable_ifIXsr3std7is_sameIT1_bEE5valueEiE4typeELi0EEET0_SA_S7_RKNS0_12format_specsENS1_10locale_refE
PUBLIC 3d19c 0 fmt::v11::detail::write_int_noinline<char, fmt::v11::basic_appender<char>, unsigned int>(fmt::v11::basic_appender<char>, fmt::v11::detail::write_int_arg<unsigned int>, fmt::v11::format_specs const&, fmt::v11::detail::locale_ref)
PUBLIC 3df78 0 fmt::v11::detail::fill<char, fmt::v11::basic_appender<char> >(fmt::v11::basic_appender<char>, unsigned long, fmt::v11::detail::fill_t const&)
PUBLIC 3e148 0 fmt::v11::detail::write_padded<char, (fmt::v11::align::type)1, fmt::v11::basic_appender<char>, fmt::v11::detail::write_char<char, fmt::v11::basic_appender<char> >(fmt::v11::basic_appender<char>, char, fmt::v11::format_specs const&)::{lambda(fmt::v11::basic_appender<char>&)#1}>(fmt::v11::basic_appender<char>, fmt::v11::format_specs const&, unsigned long, unsigned long, fmt::v11::detail::write_char<char, fmt::v11::basic_appender<char> >(fmt::v11::basic_appender<char>, char, fmt::v11::format_specs const&)::{lambda(fmt::v11::basic_appender<char>&)#1})
PUBLIC 3e384 0 fmt::v11::detail::write_escaped_cp<fmt::v11::basic_appender<char>, char>(fmt::v11::basic_appender<char>, fmt::v11::detail::find_escape_result<char> const&)
PUBLIC 3e690 0 fmt::v11::detail::write_codepoint<(unsigned long)2, char, fmt::v11::basic_appender<char> >(fmt::v11::basic_appender<char>, char, unsigned int)
PUBLIC 3e808 0 fmt::v11::detail::write_codepoint<(unsigned long)8, char, fmt::v11::basic_appender<char> >(fmt::v11::basic_appender<char>, char, unsigned int)
PUBLIC 3e980 0 fmt::v11::detail::write_padded<char, (fmt::v11::align::type)1, fmt::v11::basic_appender<char>, fmt::v11::detail::write_nonfinite<char, fmt::v11::basic_appender<char> >(fmt::v11::basic_appender<char>, bool, fmt::v11::format_specs, fmt::v11::sign::type)::{lambda(fmt::v11::basic_appender<char>&)#1}>(fmt::v11::basic_appender<char>, fmt::v11::format_specs const&, unsigned long, unsigned long, fmt::v11::detail::write_nonfinite<char, fmt::v11::basic_appender<char> >(fmt::v11::basic_appender<char>, bool, fmt::v11::format_specs, fmt::v11::sign::type)::{lambda(fmt::v11::basic_appender<char>&)#1})
PUBLIC 3ebc0 0 fmt::v11::detail::do_write_float<char, fmt::v11::basic_appender<char>, fmt::v11::detail::dragonbox::decimal_fp<float>, fmt::v11::detail::digit_grouping<char> >(fmt::v11::basic_appender<char>, fmt::v11::detail::dragonbox::decimal_fp<float> const&, fmt::v11::format_specs const&, fmt::v11::detail::float_specs, fmt::v11::detail::locale_ref)
PUBLIC 3f834 0 fmt::v11::detail::do_write_float<char, fmt::v11::basic_appender<char>, fmt::v11::detail::dragonbox::decimal_fp<float>, fmt::v11::detail::digit_grouping<char> >(fmt::v11::basic_appender<char>, fmt::v11::detail::dragonbox::decimal_fp<float> const&, fmt::v11::format_specs const&, fmt::v11::detail::float_specs, fmt::v11::detail::locale_ref)::{lambda(fmt::v11::basic_appender<char>(fmt::v11::basic_appender<char>))#1}::operator() const
PUBLIC 3f988 0 fmt::v11::detail::digit_grouping<char>::digit_grouping(fmt::v11::detail::locale_ref, bool)
PUBLIC 3fbf4 0 fmt::v11::detail::digit_grouping<char>::~digit_grouping()
PUBLIC 3fc38 0 fmt::v11::detail::write_exponent<char, fmt::v11::basic_appender<char> >(int, fmt::v11::basic_appender<char>)
PUBLIC 3fe08 0 _ZN3fmt3v116detail17write_significandIcjTnNSt6__ndk19enable_ifIXsr3std11is_integralIT0_EE5valueEiE4typeELi0EEEPT_S9_S5_iiS8_
PUBLIC 3ff84 0 std::__ndk1::basic_string<char, std::__ndk1::char_traits<char>, std::__ndk1::allocator<char> >::__assign_no_alias<true>(char const*, unsigned long)
PUBLIC 40030 0 std::__ndk1::basic_string<char, std::__ndk1::char_traits<char>, std::__ndk1::allocator<char> >::__assign_no_alias<false>(char const*, unsigned long)
PUBLIC 40140 0 fmt::v11::detail::digit_grouping<char>::apply<fmt::v11::basic_appender<char>, char>(fmt::v11::basic_appender<char>, fmt::v11::basic_string_view<char>) const
PUBLIC 404f8 0 fmt::v11::basic_memory_buffer<int, (unsigned long)500, std::__ndk1::allocator<int> >::grow(fmt::v11::detail::buffer<int>&, unsigned long)
PUBLIC 40598 0 fmt::v11::detail::do_write_float<char, fmt::v11::basic_appender<char>, fmt::v11::detail::dragonbox::decimal_fp<double>, fmt::v11::detail::digit_grouping<char> >(fmt::v11::basic_appender<char>, fmt::v11::detail::dragonbox::decimal_fp<double> const&, fmt::v11::format_specs const&, fmt::v11::detail::float_specs, fmt::v11::detail::locale_ref)
PUBLIC 4124c 0 fmt::v11::detail::do_write_float<char, fmt::v11::basic_appender<char>, fmt::v11::detail::dragonbox::decimal_fp<double>, fmt::v11::detail::digit_grouping<char> >(fmt::v11::basic_appender<char>, fmt::v11::detail::dragonbox::decimal_fp<double> const&, fmt::v11::format_specs const&, fmt::v11::detail::float_specs, fmt::v11::detail::locale_ref)::{lambda(fmt::v11::basic_appender<char>(fmt::v11::basic_appender<char>))#1}::operator() const
PUBLIC 413a4 0 _ZN3fmt3v116detail17write_significandIcmTnNSt6__ndk19enable_ifIXsr3std11is_integralIT0_EE5valueEiE4typeELi0EEEPT_S9_S5_iiS8_
PUBLIC 41534 0 fmt::v11::detail::write_float<char, fmt::v11::basic_appender<char>, long double>(fmt::v11::basic_appender<char>, long double, fmt::v11::format_specs, fmt::v11::detail::locale_ref)
PUBLIC 42030 0 fmt::v11::detail::write_padded<char, (fmt::v11::align::type)2, fmt::v11::basic_appender<char>, fmt::v11::detail::write_bytes<char, (fmt::v11::align::type)2, fmt::v11::basic_appender<char> >(fmt::v11::basic_appender<char>, fmt::v11::basic_string_view<char>, fmt::v11::format_specs const&)::{lambda(fmt::v11::basic_appender<char>&)#1}>(fmt::v11::basic_appender<char>, fmt::v11::format_specs const&, unsigned long, unsigned long, fmt::v11::detail::write_bytes<char, (fmt::v11::align::type)2, fmt::v11::basic_appender<char> >(fmt::v11::basic_appender<char>, fmt::v11::basic_string_view<char>, fmt::v11::format_specs const&)::{lambda(fmt::v11::basic_appender<char>&)#1})
PUBLIC 4220c 0 fmt::v11::detail::format_dragon(fmt::v11::detail::basic_fp<unsigned __int128>, unsigned int, int, fmt::v11::detail::buffer<char>&, int&)
PUBLIC 4363c 0 fmt::v11::detail::bigint::operator<<=(int)
PUBLIC 43760 0 fmt::v11::detail::bigint::assign_pow10(int)
PUBLIC 43ebc 0 fmt::v11::detail::bigint::divmod_assign(fmt::v11::detail::bigint const&)
PUBLIC 441dc 0 fmt::v11::basic_memory_buffer<unsigned int, (unsigned long)32, std::__ndk1::allocator<unsigned int> >::grow(fmt::v11::detail::buffer<unsigned int>&, unsigned long)
PUBLIC 4427c 0 fmt::v11::detail::do_write_float<char, fmt::v11::basic_appender<char>, fmt::v11::detail::big_decimal_fp, fmt::v11::detail::digit_grouping<char> >(fmt::v11::basic_appender<char>, fmt::v11::detail::big_decimal_fp const&, fmt::v11::format_specs const&, fmt::v11::detail::float_specs, fmt::v11::detail::locale_ref)
PUBLIC 4512c 0 fmt::v11::detail::do_write_float<char, fmt::v11::basic_appender<char>, fmt::v11::detail::big_decimal_fp, fmt::v11::detail::digit_grouping<char> >(fmt::v11::basic_appender<char>, fmt::v11::detail::big_decimal_fp const&, fmt::v11::format_specs const&, fmt::v11::detail::float_specs, fmt::v11::detail::locale_ref)::{lambda(fmt::v11::basic_appender<char>(fmt::v11::basic_appender<char>))#1}::operator() const
PUBLIC 4528c 0 fmt::v11::detail::write_padded<char, (fmt::v11::align::type)2, fmt::v11::basic_appender<char>, fmt::v11::detail::write_ptr<char, fmt::v11::basic_appender<char>, unsigned long>(fmt::v11::basic_appender<char>, unsigned long, fmt::v11::format_specs const*)::{lambda(fmt::v11::basic_appender<char>&)#1}>(fmt::v11::basic_appender<char>, fmt::v11::format_specs const&, unsigned long, unsigned long, fmt::v11::detail::write_ptr<char, fmt::v11::basic_appender<char>, unsigned long>(fmt::v11::basic_appender<char>, unsigned long, fmt::v11::format_specs const*)::{lambda(fmt::v11::basic_appender<char>&)#1})
PUBLIC 454a0 0 fmt::v11::detail::parse_replacement_field<char, fmt::v11::detail::vformat_to<char>(fmt::v11::detail::buffer<char>&, fmt::v11::basic_string_view<char>, fmt::v11::detail::vformat_args<char>::type, fmt::v11::detail::locale_ref)::format_handler&>(char const*, char const*, fmt::v11::detail::vformat_to<char>(fmt::v11::detail::buffer<char>&, fmt::v11::basic_string_view<char>, fmt::v11::detail::vformat_args<char>::type, fmt::v11::detail::locale_ref)::format_handler&)
PUBLIC 4713c 0 fmt::v11::detail::parse_dynamic_spec<char>(char const*, char const*, int&, fmt::v11::detail::arg_ref<char>&, fmt::v11::basic_format_parse_context<char>&)
PUBLIC 473cc 0 fmt::v11::basic_format_args<fmt::v11::context>::get<char>(fmt::v11::basic_string_view<char>) const
PUBLIC 47524 0 fmt::v11::detail::write_int_noinline<char, fmt::v11::basic_appender<char>, unsigned long>(fmt::v11::basic_appender<char>, fmt::v11::detail::write_int_arg<unsigned long>, fmt::v11::format_specs const&, fmt::v11::detail::locale_ref)
PUBLIC 48378 0 fmt::v11::detail::write_int_noinline<char, fmt::v11::basic_appender<char>, unsigned __int128>(fmt::v11::basic_appender<char>, fmt::v11::detail::write_int_arg<unsigned __int128>, fmt::v11::format_specs const&, fmt::v11::detail::locale_ref)
PUBLIC 493e0 0 _ZN3fmt3v116detail15format_hexfloatIdTnNSt6__ndk19enable_ifIXntsr16is_double_doubleIT_EE5valueEiE4typeELi0EEEvS5_NS0_12format_specsERNS1_6bufferIcEE
PUBLIC 49900 0 fmt::v11::detail::format_float<double>(double, int, fmt::v11::detail::float_specs, fmt::v11::detail::buffer<char>&)
PUBLIC 4a2a0 0 fmt::v11::detail::write<char, fmt::v11::basic_appender<char> >(fmt::v11::basic_appender<char>, fmt::v11::basic_string_view<char>, fmt::v11::format_specs const&)
PUBLIC 4b60c 0 fmt::v11::detail::for_each_codepoint<fmt::v11::detail::compute_width(fmt::v11::basic_string_view<char>)::count_code_points>(fmt::v11::basic_string_view<char>, fmt::v11::detail::compute_width(fmt::v11::basic_string_view<char>)::count_code_points)::{lambda(char const*, char const*)#1}::operator()(char const*, char const*) const
PUBLIC 4b7c4 0 fmt::v11::detail::write_int<fmt::v11::basic_appender<char>, unsigned long, char>(fmt::v11::basic_appender<char>, unsigned long, unsigned int, fmt::v11::format_specs const&, fmt::v11::detail::digit_grouping<char> const&)
PUBLIC 4bd40 0 fmt::v11::detail::write_int<fmt::v11::basic_appender<char>, unsigned __int128, char>(fmt::v11::basic_appender<char>, unsigned __int128, unsigned int, fmt::v11::format_specs const&, fmt::v11::detail::digit_grouping<char> const&)
PUBLIC 4c3c0 0 <.plt ELF section in hbg1010.break_mod.android64.so>
STACK CFI INIT 22120 10 .cfa: sp 0 +
STACK CFI INIT 22130 8 .cfa: sp 0 +
STACK CFI INIT 22138 8 .cfa: sp 0 +
STACK CFI INIT 22140 14 .cfa: sp 0 +
STACK CFI INIT 22154 1c .cfa: sp 0 +
STACK CFI INIT 22170 10 .cfa: sp 0 +
STACK CFI INIT 22180 134 .cfa: sp 0 +
STACK CFI INIT 222b4 84 .cfa: sp 0 +
STACK CFI INIT 22338 f4 .cfa: sp 0 +
STACK CFI INIT 2242c a8 .cfa: sp 0 +
STACK CFI INIT 224d4 7c .cfa: sp 0 +
STACK CFI INIT 22550 14 .cfa: sp 0 +
STACK CFI INIT 22564 40 .cfa: sp 0 +
STACK CFI INIT 225a4 28 .cfa: sp 0 +
STACK CFI INIT 225cc 190 .cfa: sp 0 +
STACK CFI INIT 2275c 2c8 .cfa: sp 0 +
STACK CFI INIT 22a24 8 .cfa: sp 0 +
STACK CFI INIT 22a2c 8 .cfa: sp 0 +
STACK CFI INIT 22a34 44 .cfa: sp 0 +
STACK CFI INIT 22a78 e8 .cfa: sp 0 +
STACK CFI INIT 22b60 e8 .cfa: sp 0 +
STACK CFI INIT 22c48 14 .cfa: sp 0 +
STACK CFI INIT 22c5c 10 .cfa: sp 0 +
STACK CFI INIT 22c6c 10 .cfa: sp 0 +
STACK CFI INIT 22c7c f0 .cfa: sp 0 +
STACK CFI INIT 22d6c 44 .cfa: sp 0 +
STACK CFI INIT 22db0 c .cfa: sp 0 +
STACK CFI INIT 22dbc c .cfa: sp 0 +
STACK CFI INIT 22dc8 2c .cfa: sp 0 +
STACK CFI INIT 22df4 280 .cfa: sp 0 +
STACK CFI INIT 23074 c .cfa: sp 0 +
STACK CFI INIT 23080 120 .cfa: sp 0 +
STACK CFI INIT 231a0 488 .cfa: sp 0 +
STACK CFI INIT 23628 c48 .cfa: sp 0 +
STACK CFI INIT 24270 134 .cfa: sp 0 +
STACK CFI INIT 243a4 210 .cfa: sp 0 +
STACK CFI INIT 245b4 38c .cfa: sp 0 +
STACK CFI INIT 24940 1c8 .cfa: sp 0 +
STACK CFI INIT 24b08 9bc .cfa: sp 0 +
STACK CFI INIT 254c4 2d4 .cfa: sp 0 +
STACK CFI INIT 25798 134 .cfa: sp 0 +
STACK CFI INIT 258cc 120 .cfa: sp 0 +
STACK CFI INIT 259ec 1c8 .cfa: sp 0 +
STACK CFI INIT 25bb4 168 .cfa: sp 0 +
STACK CFI INIT 25d1c fc .cfa: sp 0 +
STACK CFI INIT 25e18 30 .cfa: sp 0 +
STACK CFI INIT 25f80 30 .cfa: sp 0 +
STACK CFI INIT 25fb0 98 .cfa: sp 0 +
STACK CFI INIT 26048 59c .cfa: sp 0 +
STACK CFI INIT 265e4 8c .cfa: sp 0 +
STACK CFI INIT 26670 30 .cfa: sp 0 +
STACK CFI INIT 268ec 60 .cfa: sp 0 +
STACK CFI 268fc .cfa: sp 32 +
STACK CFI 26904 .cfa: x29 32 + x19: .cfa -16 + ^ .ra: .cfa -24 + ^ x29: .cfa -32 + ^
STACK CFI 2693c .cfa: sp 32 +
STACK CFI 26944 .cfa: sp 0 +
STACK CFI INIT 2694c 1c .cfa: sp 0 +
STACK CFI INIT 26968 60 .cfa: sp 0 +
STACK CFI 26978 .cfa: sp 32 +
STACK CFI 26980 .cfa: x29 32 + x19: .cfa -16 + ^ .ra: .cfa -24 + ^ x29: .cfa -32 + ^
STACK CFI 269b8 .cfa: sp 32 +
STACK CFI 269c0 .cfa: sp 0 +
STACK CFI INIT 269c8 1c .cfa: sp 0 +
STACK CFI INIT 26e64 1c .cfa: sp 0 +
STACK CFI INIT 26e80 10 .cfa: sp 0 +
STACK CFI 26e84 .cfa: sp 16 +
STACK CFI 26e88 .cfa: x29 16 + .ra: .cfa -8 + ^ x29: .cfa -16 + ^
STACK CFI INIT 26e90 14 .cfa: sp 0 +
STACK CFI 26e94 .cfa: sp 16 +
STACK CFI 26e98 .cfa: x29 16 + .ra: .cfa -8 + ^ x29: .cfa -16 + ^
STACK CFI INIT 26ef4 30 .cfa: sp 0 +
STACK CFI 26ef8 .cfa: sp 32 +
STACK CFI 26f00 .cfa: x29 32 + x19: .cfa -16 + ^ .ra: .cfa -24 + ^ x29: .cfa -32 + ^
STACK CFI 26f18 .cfa: sp 32 +
STACK CFI 26f20 .cfa: sp 0 +
STACK CFI INIT 26f24 34 .cfa: sp 0 +
STACK CFI 26f28 .cfa: sp 32 +
STACK CFI 26f30 .cfa: x29 32 + x19: .cfa -16 + ^ .ra: .cfa -24 + ^ x29: .cfa -32 + ^
STACK CFI INIT 27f38 50 .cfa: sp 0 +
STACK CFI 27f3c .cfa: sp 32 +
STACK CFI 27f44 .cfa: x29 32 + x19: .cfa -16 + ^ .ra: .cfa -24 + ^ x29: .cfa -32 + ^
STACK CFI 27f5c .cfa: sp 32 +
STACK CFI 27f64 .cfa: sp 0 +
STACK CFI 27f68 .cfa: x29 32 +
STACK CFI 27f7c .cfa: sp 32 +
STACK CFI 27f84 .cfa: sp 0 +
STACK CFI INIT 27ffc 7c .cfa: sp 0 +
STACK CFI 28000 .cfa: sp 48 +
STACK CFI 2800c .cfa: x29 48 + x19: .cfa -8 + ^ x20: .cfa -16 + ^ x21: .cfa -32 + ^ .ra: .cfa -40 + ^ x29: .cfa -48 + ^
STACK CFI 28058 .cfa: sp 48 +
STACK CFI 28064 .cfa: sp 0 +
STACK CFI 28068 .cfa: sp 48 +
STACK CFI 28074 .cfa: sp 0 +
STACK CFI INIT 28078 4 .cfa: sp 0 +
STACK CFI INIT 281d0 34 .cfa: sp 0 +
STACK CFI 281d4 .cfa: sp 16 +
STACK CFI 281d8 .cfa: x29 16 + .ra: .cfa -8 + ^ x29: .cfa -16 + ^
STACK CFI INIT 28330 80 .cfa: sp 0 +
STACK CFI 28334 .cfa: sp 48 +
STACK CFI 28340 .cfa: x29 48 + x19: .cfa -8 + ^ x20: .cfa -16 + ^ x21: .cfa -32 + ^ .ra: .cfa -40 + ^ x29: .cfa -48 + ^
STACK CFI 283a0 .cfa: sp 48 +
STACK CFI 283ac .cfa: sp 0 +
STACK CFI INIT 283b0 24 .cfa: sp 0 +
STACK CFI 283b4 .cfa: sp 32 +
STACK CFI 283bc .cfa: x29 32 + x19: .cfa -16 + ^ .ra: .cfa -24 + ^ x29: .cfa -32 + ^
STACK CFI 283c8 .cfa: sp 32 +
STACK CFI 283d0 .cfa: sp 0 +
STACK CFI INIT 288cc 148 .cfa: sp 0 +
STACK CFI 288d0 .cfa: sp 48 +
STACK CFI 288dc .cfa: x29 48 + x19: .cfa -8 + ^ x20: .cfa -16 + ^ x21: .cfa -32 + ^ .ra: .cfa -40 + ^ x29: .cfa -48 + ^
STACK CFI 28a04 .cfa: sp 48 +
STACK CFI 28a10 .cfa: sp 0 +
STACK CFI INIT 28c3c 80 .cfa: sp 0 +
STACK CFI 28c40 .cfa: sp 48 +
STACK CFI 28c4c .cfa: x29 48 + x19: .cfa -8 + ^ x20: .cfa -16 + ^ x21: .cfa -24 + ^ x22: .cfa -32 + ^ .ra: .cfa -40 + ^ x29: .cfa -48 + ^
STACK CFI 28c64 .cfa: sp 48 +
STACK CFI 28c70 .cfa: sp 0 +
STACK CFI 28c74 .cfa: x29 48 +
STACK CFI 28ca4 .cfa: sp 48 +
STACK CFI 28cb0 .cfa: sp 0 +
STACK CFI 28cb4 .cfa: x29 48 +
STACK CFI INIT 28cbc 68 .cfa: sp 0 +
STACK CFI 28cc0 .cfa: sp 32 +
STACK CFI 28cc8 .cfa: x29 32 + x19: .cfa -8 + ^ x20: .cfa -16 + ^ .ra: .cfa -24 + ^ x29: .cfa -32 + ^
STACK CFI 28ce0 .cfa: sp 32 +
STACK CFI 28ce8 .cfa: sp 0 +
STACK CFI 28cec .cfa: x29 32 +
STACK CFI 28d18 .cfa: sp 32 +
STACK CFI 28d20 .cfa: sp 0 +
STACK CFI INIT 28d24 14 .cfa: sp 0 +
STACK CFI 28d28 .cfa: sp 16 +
STACK CFI 28d2c .cfa: x29 16 + .ra: .cfa -8 + ^ x29: .cfa -16 + ^
STACK CFI INIT 28d38 4 .cfa: sp 0 +
STACK CFI INIT 28d3c 14 .cfa: sp 0 +
STACK CFI INIT 28d50 120 .cfa: sp 0 +
STACK CFI 28d54 .cfa: sp 64 +
STACK CFI 28d64 .cfa: x29 64 + x19: .cfa -8 + ^ x20: .cfa -16 + ^ x21: .cfa -24 + ^ x22: .cfa -32 + ^ x23: .cfa -40 + ^ x24: .cfa -48 + ^ .ra: .cfa -56 + ^ x29: .cfa -64 + ^
STACK CFI 28e5c .cfa: sp 64 +
STACK CFI 28e6c .cfa: sp 0 +
STACK CFI INIT 28e70 d4 .cfa: sp 0 +
STACK CFI 28e74 .cfa: sp 48 +
STACK CFI 28e80 .cfa: x29 48 + x19: .cfa -8 + ^ x20: .cfa -16 + ^ x21: .cfa -32 + ^ .ra: .cfa -40 + ^ x29: .cfa -48 + ^
STACK CFI 28f10 .cfa: sp 48 +
STACK CFI 28f1c .cfa: sp 0 +
STACK CFI 28f20 .cfa: x29 48 +
STACK CFI INIT 28f44 3c8 .cfa: sp 0 +
STACK CFI INIT 2930c 8c .cfa: sp 0 +
STACK CFI 29314 .cfa: sp 32 +
STACK CFI 2931c .cfa: x29 32 + x19: .cfa -8 + ^ x20: .cfa -16 + ^ .ra: .cfa -24 + ^ x29: .cfa -32 + ^
STACK CFI 29364 .cfa: sp 32 +
STACK CFI 2936c .cfa: sp 0 +
STACK CFI 29374 .cfa: x29 32 +
STACK CFI INIT 2951c 4 .cfa: sp 0 +
STACK CFI INIT 296a4 3c .cfa: sp 0 +
STACK CFI 296a8 .cfa: sp 32 +
STACK CFI 296b0 .cfa: x29 32 + x19: .cfa -8 + ^ x20: .cfa -16 + ^ .ra: .cfa -24 + ^ x29: .cfa -32 + ^
STACK CFI 296c0 .cfa: sp 32 +
STACK CFI 296c8 .cfa: sp 0 +
STACK CFI 296cc .cfa: x29 32 +
STACK CFI 296d4 .cfa: sp 32 +
STACK CFI 296dc .cfa: sp 0 +
STACK CFI INIT 296e0 30 .cfa: sp 0 +
STACK CFI 296e4 .cfa: sp 32 +
STACK CFI 296ec .cfa: x29 32 + x19: .cfa -16 + ^ .ra: .cfa -24 + ^ x29: .cfa -32 + ^
STACK CFI 29704 .cfa: sp 32 +
STACK CFI 2970c .cfa: sp 0 +
STACK CFI INIT 29710 3c .cfa: sp 0 +
STACK CFI 29714 .cfa: sp 32 +
STACK CFI 2971c .cfa: x29 32 + x19: .cfa -8 + ^ x20: .cfa -16 + ^ .ra: .cfa -24 + ^ x29: .cfa -32 + ^
STACK CFI 2972c .cfa: sp 32 +
STACK CFI 29734 .cfa: sp 0 +
STACK CFI 29738 .cfa: x29 32 +
STACK CFI 29740 .cfa: sp 32 +
STACK CFI 29748 .cfa: sp 0 +
STACK CFI INIT 29880 2c .cfa: sp 0 +
STACK CFI 29884 .cfa: sp 32 +
STACK CFI 2988c .cfa: x29 32 + x19: .cfa -16 + ^ .ra: .cfa -24 + ^ x29: .cfa -32 + ^
STACK CFI 298a0 .cfa: sp 32 +
STACK CFI 298a8 .cfa: sp 0 +
STACK CFI INIT 29a30 94 .cfa: sp 0 +
STACK CFI 29a34 .cfa: sp 32 +
STACK CFI 29a3c .cfa: x29 32 + x19: .cfa -16 + ^ .ra: .cfa -24 + ^ x29: .cfa -32 + ^
STACK CFI 29aac .cfa: sp 32 +
STACK CFI 29ab4 .cfa: sp 0 +
STACK CFI 29ab8 .cfa: sp 32 +
STACK CFI 29ac0 .cfa: sp 0 +
STACK CFI INIT 29ac4 50 .cfa: sp 0 +
STACK CFI 29ac8 .cfa: sp 32 +
STACK CFI 29ad0 .cfa: x29 32 + x19: .cfa -16 + ^ .ra: .cfa -24 + ^ x29: .cfa -32 + ^
STACK CFI 29ae8 .cfa: sp 32 +
STACK CFI 29af0 .cfa: sp 0 +
STACK CFI 29af4 .cfa: x29 32 +
STACK CFI 29b08 .cfa: sp 32 +
STACK CFI 29b10 .cfa: sp 0 +
STACK CFI INIT 29b14 64 .cfa: sp 0 +
STACK CFI 29b18 .cfa: sp 32 +
STACK CFI 29b20 .cfa: x29 32 + x19: .cfa -16 + ^ .ra: .cfa -24 + ^ x29: .cfa -32 + ^
STACK CFI 29b4c .cfa: sp 32 +
STACK CFI 29b54 .cfa: sp 0 +
STACK CFI 29b58 .cfa: x29 32 +
STACK CFI 29b6c .cfa: sp 32 +
STACK CFI 29b74 .cfa: sp 0 +
STACK CFI INIT 29b78 14 .cfa: sp 0 +
STACK CFI 29b7c .cfa: sp 16 +
STACK CFI 29b80 .cfa: x29 16 + .ra: .cfa -8 + ^ x29: .cfa -16 + ^
STACK CFI INIT 29b8c 178 .cfa: sp 0 +
STACK CFI 29b90 .cfa: sp 80 +
STACK CFI 29ba4 .cfa: x29 80 + x19: .cfa -8 + ^ x20: .cfa -16 + ^ x21: .cfa -24 + ^ x22: .cfa -32 + ^ x23: .cfa -40 + ^ x24: .cfa -48 + ^ x25: .cfa -56 + ^ x26: .cfa -64 + ^ .ra: .cfa -72 + ^ x29: .cfa -80 + ^
STACK CFI 29cec .cfa: sp 80 +
STACK CFI 29d00 .cfa: sp 0 +
STACK CFI INIT 29d04 1b0 .cfa: sp 0 +
STACK CFI INIT 2a6f0 4 .cfa: sp 0 +
STACK CFI INIT 2a80c 4 .cfa: sp 0 +
STACK CFI INIT 2a944 4 .cfa: sp 0 +
STACK CFI INIT 2abfc 104 .cfa: sp 0 +
STACK CFI 2ac00 .cfa: sp 64 +
STACK CFI 2ac10 .cfa: x29 64 + x19: .cfa -8 + ^ x20: .cfa -16 + ^ x21: .cfa -24 + ^ x22: .cfa -32 + ^ x23: .cfa -48 + ^ .ra: .cfa -56 + ^ x29: .cfa -64 + ^
STACK CFI 2ac6c .cfa: sp 64 +
STACK CFI 2ac7c .cfa: sp 0 +
STACK CFI 2ac80 .cfa: x29 64 +
STACK CFI 2ac9c .cfa: sp 64 +
STACK CFI 2acac .cfa: sp 0 +
STACK CFI 2acb0 .cfa: x29 64 +
STACK CFI 2acec .cfa: sp 64 +
STACK CFI 2acfc .cfa: sp 0 +
STACK CFI INIT 2b334 4 .cfa: sp 0 +
STACK CFI INIT 2b560 130 .cfa: sp 0 +
STACK CFI 2b564 .cfa: sp 80 +
STACK CFI 2b574 .cfa: x29 48 + x19: .cfa -8 + ^ x20: .cfa -16 + ^ x21: .cfa -24 + ^ x22: .cfa -32 + ^ .ra: .cfa -40 + ^ x29: .cfa -48 + ^
STACK CFI 2b664 .cfa: sp 80 +
STACK CFI 2b674 .cfa: sp 0 +
STACK CFI 2b678 .cfa: x29 48 +
STACK CFI INIT 2bd24 50 .cfa: sp 0 +
STACK CFI 2bd28 .cfa: sp 32 +
STACK CFI 2bd30 .cfa: x29 32 + x19: .cfa -16 + ^ .ra: .cfa -24 + ^ x29: .cfa -32 + ^
STACK CFI 2bd48 .cfa: sp 32 +
STACK CFI 2bd50 .cfa: sp 0 +
STACK CFI 2bd54 .cfa: x29 32 +
STACK CFI 2bd68 .cfa: sp 32 +
STACK CFI 2bd70 .cfa: sp 0 +
STACK CFI INIT 2c3f4 50 .cfa: sp 0 +
STACK CFI 2c3f8 .cfa: sp 32 +
STACK CFI 2c400 .cfa: x29 32 + x19: .cfa -16 + ^ .ra: .cfa -24 + ^ x29: .cfa -32 + ^
STACK CFI 2c418 .cfa: sp 32 +
STACK CFI 2c420 .cfa: sp 0 +
STACK CFI 2c424 .cfa: x29 32 +
STACK CFI 2c438 .cfa: sp 32 +
STACK CFI 2c440 .cfa: sp 0 +
STACK CFI INIT 2c810 a8 .cfa: sp 0 +
STACK CFI 2c814 .cfa: sp 48 +
STACK CFI 2c820 .cfa: x29 48 + x19: .cfa -8 + ^ x20: .cfa -16 + ^ x21: .cfa -32 + ^ .ra: .cfa -40 + ^ x29: .cfa -48 + ^
STACK CFI 2c8a8 .cfa: sp 48 +
STACK CFI 2c8b4 .cfa: sp 0 +
STACK CFI INIT 2c8b8 14 .cfa: sp 0 +
STACK CFI 2c8bc .cfa: sp 16 +
STACK CFI 2c8c0 .cfa: x29 16 + .ra: .cfa -8 + ^ x29: .cfa -16 + ^
STACK CFI INIT 2caf8 14 .cfa: sp 0 +
STACK CFI 2cafc .cfa: sp 16 +
STACK CFI 2cb00 .cfa: x29 16 + .ra: .cfa -8 + ^ x29: .cfa -16 + ^
STACK CFI INIT 2cb0c 14 .cfa: sp 0 +
STACK CFI 2cb10 .cfa: sp 16 +
STACK CFI 2cb14 .cfa: x29 16 + .ra: .cfa -8 + ^ x29: .cfa -16 + ^
STACK CFI INIT 2cb70 30 .cfa: sp 0 +
STACK CFI 2cb74 .cfa: sp 32 +
STACK CFI 2cb7c .cfa: x29 32 + x19: .cfa -16 + ^ .ra: .cfa -24 + ^ x29: .cfa -32 + ^
STACK CFI 2cb94 .cfa: sp 32 +
STACK CFI 2cb9c .cfa: sp 0 +
STACK CFI INIT 2cba0 14 .cfa: sp 0 +
STACK CFI 2cba4 .cfa: sp 16 +
STACK CFI 2cba8 .cfa: x29 16 + .ra: .cfa -8 + ^ x29: .cfa -16 + ^
STACK CFI INIT 2cbb4 9c .cfa: sp 0 +
STACK CFI 2cbb8 .cfa: sp 32 +
STACK CFI 2cbc0 .cfa: x29 32 + x19: .cfa -8 + ^ x20: .cfa -16 + ^ .ra: .cfa -24 + ^ x29: .cfa -32 + ^
STACK CFI 2cc44 .cfa: sp 32 +
STACK CFI 2cc4c .cfa: sp 0 +
STACK CFI INIT 2cc50 4 .cfa: sp 0 +
STACK CFI INIT 2ce20 a4 .cfa: sp 0 +
STACK CFI 2ce24 .cfa: sp 32 +
STACK CFI 2ce2c .cfa: x29 32 + x19: .cfa -8 + ^ x20: .cfa -16 + ^ .ra: .cfa -24 + ^ x29: .cfa -32 + ^
STACK CFI 2ceb8 .cfa: sp 32 +
STACK CFI 2cec0 .cfa: sp 0 +
STACK CFI INIT 2cec4 34 .cfa: sp 0 +
STACK CFI 2cec8 .cfa: sp 16 +
STACK CFI 2cecc .cfa: x29 16 + .ra: .cfa -8 + ^ x29: .cfa -16 + ^
STACK CFI INIT 2cef8 24 .cfa: sp 0 +
STACK CFI 2cefc .cfa: sp 32 +
STACK CFI 2cf04 .cfa: x29 32 + x19: .cfa -16 + ^ .ra: .cfa -24 + ^ x29: .cfa -32 + ^
STACK CFI 2cf10 .cfa: sp 32 +
STACK CFI 2cf18 .cfa: sp 0 +
STACK CFI INIT 2cf1c 4 .cfa: sp 0 +
STACK CFI INIT 2cf20 4 .cfa: sp 0 +
STACK CFI INIT 2cf24 38 .cfa: sp 0 +
STACK CFI 2cf28 .cfa: sp 32 +
STACK CFI 2cf30 .cfa: x29 32 + x19: .cfa -16 + ^ .ra: .cfa -24 + ^ x29: .cfa -32 + ^
STACK CFI 2cf50 .cfa: sp 32 +
STACK CFI 2cf58 .cfa: sp 0 +
STACK CFI INIT 2cf5c 18 .cfa: sp 0 +
STACK CFI INIT 2cf74 4 .cfa: sp 0 +
STACK CFI INIT 2cf78 4 .cfa: sp 0 +
STACK CFI INIT 2cf7c 10 .cfa: sp 0 +
STACK CFI INIT 2cf8c 1c .cfa: sp 0 +
STACK CFI INIT 2cfa8 c .cfa: sp 0 +
STACK CFI INIT 2d1d0 50 .cfa: sp 0 +
STACK CFI 2d1d4 .cfa: sp 32 +
STACK CFI 2d1dc .cfa: x29 32 + x19: .cfa -16 + ^ .ra: .cfa -24 + ^ x29: .cfa -32 + ^
STACK CFI 2d1f4 .cfa: sp 32 +
STACK CFI 2d1fc .cfa: sp 0 +
STACK CFI 2d200 .cfa: x29 32 +
STACK CFI 2d214 .cfa: sp 32 +
STACK CFI 2d21c .cfa: sp 0 +
STACK CFI INIT 2d220 50 .cfa: sp 0 +
STACK CFI 2d224 .cfa: sp 32 +
STACK CFI 2d22c .cfa: x29 32 + x19: .cfa -16 + ^ .ra: .cfa -24 + ^ x29: .cfa -32 + ^
STACK CFI 2d244 .cfa: sp 32 +
STACK CFI 2d24c .cfa: sp 0 +
STACK CFI 2d250 .cfa: x29 32 +
STACK CFI 2d264 .cfa: sp 32 +
STACK CFI 2d26c .cfa: sp 0 +
STACK CFI INIT 2d270 5c .cfa: sp 0 +
STACK CFI 2d274 .cfa: sp 32 +
STACK CFI 2d27c .cfa: x29 32 + x19: .cfa -16 + ^ .ra: .cfa -24 + ^ x29: .cfa -32 + ^
STACK CFI 2d2a0 .cfa: sp 32 +
STACK CFI 2d2a8 .cfa: sp 0 +
STACK CFI 2d2ac .cfa: x29 32 +
STACK CFI 2d2c0 .cfa: sp 32 +
STACK CFI 2d2c8 .cfa: sp 0 +
STACK CFI INIT 2d2cc 6c .cfa: sp 0 +
STACK CFI 2d2d0 .cfa: sp 32 +
STACK CFI 2d2d8 .cfa: x29 32 + x19: .cfa -8 + ^ x20: .cfa -16 + ^ .ra: .cfa -24 + ^ x29: .cfa -32 + ^
STACK CFI 2d304 .cfa: sp 32 +
STACK CFI 2d30c .cfa: sp 0 +
STACK CFI 2d310 .cfa: x29 32 +
STACK CFI 2d32c .cfa: sp 32 +
STACK CFI 2d334 .cfa: sp 0 +
STACK CFI INIT 2d338 58 .cfa: sp 0 +
STACK CFI 2d33c .cfa: sp 32 +
STACK CFI 2d344 .cfa: x29 32 + x19: .cfa -8 + ^ x20: .cfa -16 + ^ .ra: .cfa -24 + ^ x29: .cfa -32 + ^
STACK CFI 2d384 .cfa: sp 32 +
STACK CFI 2d38c .cfa: sp 0 +
STACK CFI INIT 2d390 4c .cfa: sp 0 +
STACK CFI 2d394 .cfa: sp 32 +
STACK CFI 2d39c .cfa: x29 32 + x19: .cfa -8 + ^ x20: .cfa -16 + ^ .ra: .cfa -24 + ^ x29: .cfa -32 + ^
STACK CFI 2d3d0 .cfa: sp 32 +
STACK CFI 2d3d8 .cfa: sp 0 +
STACK CFI INIT 2d3dc 50 .cfa: sp 0 +
STACK CFI 2d3e0 .cfa: sp 32 +
STACK CFI 2d3e8 .cfa: x29 32 + x19: .cfa -16 + ^ .ra: .cfa -24 + ^ x29: .cfa -32 + ^
STACK CFI 2d400 .cfa: sp 32 +
STACK CFI 2d408 .cfa: sp 0 +
STACK CFI 2d40c .cfa: x29 32 +
STACK CFI 2d420 .cfa: sp 32 +
STACK CFI 2d428 .cfa: sp 0 +
STACK CFI INIT 2d42c 60 .cfa: sp 0 +
STACK CFI 2d430 .cfa: sp 32 +
STACK CFI 2d438 .cfa: x29 32 + x19: .cfa -8 + ^ x20: .cfa -16 + ^ .ra: .cfa -24 + ^ x29: .cfa -32 + ^
STACK CFI 2d458 .cfa: sp 32 +
STACK CFI 2d460 .cfa: sp 0 +
STACK CFI 2d464 .cfa: x29 32 +
STACK CFI 2d480 .cfa: sp 32 +
STACK CFI 2d488 .cfa: sp 0 +
STACK CFI INIT 2d48c 8 .cfa: sp 0 +
STACK CFI INIT 2d494 1c .cfa: sp 0 +
STACK CFI INIT 2d4b0 c .cfa: sp 0 +
STACK CFI INIT 2d68c 60 .cfa: sp 0 +
STACK CFI 2d690 .cfa: sp 32 +
STACK CFI 2d698 .cfa: x29 32 + x19: .cfa -8 + ^ x20: .cfa -16 + ^ .ra: .cfa -24 + ^ x29: .cfa -32 + ^
STACK CFI 2d6b8 .cfa: sp 32 +
STACK CFI 2d6c0 .cfa: sp 0 +
STACK CFI 2d6c4 .cfa: x29 32 +
STACK CFI 2d6e0 .cfa: sp 32 +
STACK CFI 2d6e8 .cfa: sp 0 +
STACK CFI INIT 2d6ec 70 .cfa: sp 0 +
STACK CFI 2d6f0 .cfa: sp 32 +
STACK CFI 2d6f8 .cfa: x29 32 + x19: .cfa -8 + ^ x20: .cfa -16 + ^ .ra: .cfa -24 + ^ x29: .cfa -32 + ^
STACK CFI 2d720 .cfa: sp 32 +
STACK CFI 2d728 .cfa: sp 0 +
STACK CFI 2d72c .cfa: x29 32 +
STACK CFI 2d750 .cfa: sp 32 +
STACK CFI 2d758 .cfa: sp 0 +
STACK CFI INIT 2d75c 5c .cfa: sp 0 +
STACK CFI 2d760 .cfa: sp 32 +
STACK CFI 2d768 .cfa: x29 32 + x19: .cfa -16 + ^ .ra: .cfa -24 + ^ x29: .cfa -32 + ^
STACK CFI 2d78c .cfa: sp 32 +
STACK CFI 2d794 .cfa: sp 0 +
STACK CFI 2d798 .cfa: x29 32 +
STACK CFI 2d7ac .cfa: sp 32 +
STACK CFI 2d7b4 .cfa: sp 0 +
STACK CFI INIT 2d7b8 6c .cfa: sp 0 +
STACK CFI 2d7bc .cfa: sp 32 +
STACK CFI 2d7c4 .cfa: x29 32 + x19: .cfa -8 + ^ x20: .cfa -16 + ^ .ra: .cfa -24 + ^ x29: .cfa -32 + ^
STACK CFI 2d7f0 .cfa: sp 32 +
STACK CFI 2d7f8 .cfa: sp 0 +
STACK CFI 2d7fc .cfa: x29 32 +
STACK CFI 2d818 .cfa: sp 32 +
STACK CFI 2d820 .cfa: sp 0 +
STACK CFI INIT 2d824 58 .cfa: sp 0 +
STACK CFI 2d828 .cfa: sp 32 +
STACK CFI 2d830 .cfa: x29 32 + x19: .cfa -8 + ^ x20: .cfa -16 + ^ .ra: .cfa -24 + ^ x29: .cfa -32 + ^
STACK CFI 2d870 .cfa: sp 32 +
STACK CFI 2d878 .cfa: sp 0 +
STACK CFI INIT 2d87c 4c .cfa: sp 0 +
STACK CFI 2d880 .cfa: sp 32 +
STACK CFI 2d888 .cfa: x29 32 + x19: .cfa -8 + ^ x20: .cfa -16 + ^ .ra: .cfa -24 + ^ x29: .cfa -32 + ^
STACK CFI 2d8bc .cfa: sp 32 +
STACK CFI 2d8c4 .cfa: sp 0 +
STACK CFI INIT 2d8c8 50 .cfa: sp 0 +
STACK CFI 2d8cc .cfa: sp 32 +
STACK CFI 2d8d4 .cfa: x29 32 + x19: .cfa -16 + ^ .ra: .cfa -24 + ^ x29: .cfa -32 + ^
STACK CFI 2d8ec .cfa: sp 32 +
STACK CFI 2d8f4 .cfa: sp 0 +
STACK CFI 2d8f8 .cfa: x29 32 +
STACK CFI 2d90c .cfa: sp 32 +
STACK CFI 2d914 .cfa: sp 0 +
STACK CFI INIT 2d918 60 .cfa: sp 0 +
STACK CFI 2d91c .cfa: sp 32 +
STACK CFI 2d924 .cfa: x29 32 + x19: .cfa -8 + ^ x20: .cfa -16 + ^ .ra: .cfa -24 + ^ x29: .cfa -32 + ^
STACK CFI 2d944 .cfa: sp 32 +
STACK CFI 2d94c .cfa: sp 0 +
STACK CFI 2d950 .cfa: x29 32 +
STACK CFI 2d96c .cfa: sp 32 +
STACK CFI 2d974 .cfa: sp 0 +
STACK CFI INIT 2d978 8 .cfa: sp 0 +
STACK CFI INIT 2d980 1c .cfa: sp 0 +
STACK CFI INIT 2d99c c .cfa: sp 0 +
STACK CFI INIT 2dcdc 50 .cfa: sp 0 +
STACK CFI 2dce0 .cfa: sp 32 +
STACK CFI 2dce8 .cfa: x29 32 + x19: .cfa -16 + ^ .ra: .cfa -24 + ^ x29: .cfa -32 + ^
STACK CFI 2dd00 .cfa: sp 32 +
STACK CFI 2dd08 .cfa: sp 0 +
STACK CFI 2dd0c .cfa: x29 32 +
STACK CFI 2dd20 .cfa: sp 32 +
STACK CFI 2dd28 .cfa: sp 0 +
STACK CFI INIT 2dd2c 5c .cfa: sp 0 +
STACK CFI 2dd30 .cfa: sp 32 +
STACK CFI 2dd38 .cfa: x29 32 + x19: .cfa -16 + ^ .ra: .cfa -24 + ^ x29: .cfa -32 + ^
STACK CFI 2dd5c .cfa: sp 32 +
STACK CFI 2dd64 .cfa: sp 0 +
STACK CFI 2dd68 .cfa: x29 32 +
STACK CFI 2dd7c .cfa: sp 32 +
STACK CFI 2dd84 .cfa: sp 0 +
STACK CFI INIT 2dd88 6c .cfa: sp 0 +
STACK CFI 2dd8c .cfa: sp 32 +
STACK CFI 2dd94 .cfa: x29 32 + x19: .cfa -8 + ^ x20: .cfa -16 + ^ .ra: .cfa -24 + ^ x29: .cfa -32 + ^
STACK CFI 2ddc0 .cfa: sp 32 +
STACK CFI 2ddc8 .cfa: sp 0 +
STACK CFI 2ddcc .cfa: x29 32 +
STACK CFI 2dde8 .cfa: sp 32 +
STACK CFI 2ddf0 .cfa: sp 0 +
STACK CFI INIT 2ddf4 50 .cfa: sp 0 +
STACK CFI 2ddf8 .cfa: sp 32 +
STACK CFI 2de00 .cfa: x29 32 + x19: .cfa -16 + ^ .ra: .cfa -24 + ^ x29: .cfa -32 + ^
STACK CFI 2de38 .cfa: sp 32 +
STACK CFI 2de40 .cfa: sp 0 +
STACK CFI INIT 2de44 34 .cfa: sp 0 +
STACK CFI 2de60 .cfa: sp 16 +
STACK CFI 2de64 .cfa: x29 16 + .ra: .cfa -8 + ^ x29: .cfa -16 + ^
STACK CFI 2de70 .cfa: sp 16 +
STACK CFI 2de74 .cfa: sp 0 +
STACK CFI INIT 2de78 50 .cfa: sp 0 +
STACK CFI 2de7c .cfa: sp 32 +
STACK CFI 2de84 .cfa: x29 32 + x19: .cfa -16 + ^ .ra: .cfa -24 + ^ x29: .cfa -32 + ^
STACK CFI 2de9c .cfa: sp 32 +
STACK CFI 2dea4 .cfa: sp 0 +
STACK CFI 2dea8 .cfa: x29 32 +
STACK CFI 2debc .cfa: sp 32 +
STACK CFI 2dec4 .cfa: sp 0 +
STACK CFI INIT 2dec8 60 .cfa: sp 0 +
STACK CFI 2decc .cfa: sp 32 +
STACK CFI 2ded4 .cfa: x29 32 + x19: .cfa -8 + ^ x20: .cfa -16 + ^ .ra: .cfa -24 + ^ x29: .cfa -32 + ^
STACK CFI 2def4 .cfa: sp 32 +
STACK CFI 2defc .cfa: sp 0 +
STACK CFI 2df00 .cfa: x29 32 +
STACK CFI 2df1c .cfa: sp 32 +
STACK CFI 2df24 .cfa: sp 0 +
STACK CFI INIT 2df28 8 .cfa: sp 0 +
STACK CFI INIT 2df30 1c .cfa: sp 0 +
STACK CFI INIT 2df4c c .cfa: sp 0 +
STACK CFI INIT 2e11c 4 .cfa: sp 0 +
STACK CFI INIT 2e120 4 .cfa: sp 0 +
STACK CFI INIT 2e124 40 .cfa: sp 0 +
STACK CFI 2e128 .cfa: sp 32 +
STACK CFI 2e130 .cfa: x29 32 + x19: .cfa -16 + ^ .ra: .cfa -24 + ^ x29: .cfa -32 + ^
STACK CFI 2e158 .cfa: sp 32 +
STACK CFI 2e160 .cfa: sp 0 +
STACK CFI INIT 2e164 20 .cfa: sp 0 +
STACK CFI INIT 2e184 4 .cfa: sp 0 +
STACK CFI INIT 2e188 4 .cfa: sp 0 +
STACK CFI INIT 2e18c 20 .cfa: sp 0 +
STACK CFI INIT 2e1ac 1c .cfa: sp 0 +
STACK CFI INIT 2e1c8 c .cfa: sp 0 +
STACK CFI INIT 2e36c 8 .cfa: sp 0 +
STACK CFI INIT 2e374 4 .cfa: sp 0 +
STACK CFI INIT 2e378 8 .cfa: sp 0 +
STACK CFI INIT 2e380 4 .cfa: sp 0 +
STACK CFI INIT 2e384 4 .cfa: sp 0 +
STACK CFI INIT 2e388 4 .cfa: sp 0 +
STACK CFI INIT 2e38c 4 .cfa: sp 0 +
STACK CFI INIT 2e390 8 .cfa: sp 0 +
STACK CFI INIT 2e818 1c .cfa: sp 0 +
STACK CFI INIT 2eb64 4 .cfa: sp 0 +
STACK CFI INIT 2edec 8c .cfa: sp 0 +
STACK CFI 2edf0 .cfa: sp 32 +
STACK CFI 2edf8 .cfa: x29 32 + x19: .cfa -16 + ^ .ra: .cfa -24 + ^ x29: .cfa -32 + ^
STACK CFI 2ee6c .cfa: sp 32 +
STACK CFI 2ee74 .cfa: sp 0 +
STACK CFI INIT 2ee78 110 .cfa: sp 0 +
STACK CFI 2ee7c .cfa: sp 80 +
STACK CFI 2ee8c .cfa: x29 48 + x19: .cfa -8 + ^ x20: .cfa -16 + ^ x21: .cfa -24 + ^ x22: .cfa -32 + ^ .ra: .cfa -40 + ^ x29: .cfa -48 + ^
STACK CFI 2ef3c .cfa: sp 80 +
STACK CFI 2ef4c .cfa: sp 0 +
STACK CFI 2ef50 .cfa: x29 48 +
STACK CFI INIT 2ef88 dc .cfa: sp 0 +
STACK CFI 2ef8c .cfa: sp 64 +
STACK CFI 2ef9c .cfa: x29 64 + x19: .cfa -8 + ^ x20: .cfa -16 + ^ x21: .cfa -24 + ^ x22: .cfa -32 + ^ x23: .cfa -48 + ^ .ra: .cfa -56 + ^ x29: .cfa -64 + ^
STACK CFI 2f050 .cfa: sp 64 +
STACK CFI 2f060 .cfa: sp 0 +
STACK CFI INIT 2f44c 4 .cfa: sp 0 +
STACK CFI INIT 2f890 4 .cfa: sp 0 +
STACK CFI INIT 2f894 4 .cfa: sp 0 +
STACK CFI INIT 2f898 34 .cfa: sp 0 +
STACK CFI 2f89c .cfa: sp 32 +
STACK CFI 2f8a4 .cfa: x29 32 + x19: .cfa -16 + ^ .ra: .cfa -24 + ^ x29: .cfa -32 + ^
STACK CFI 2f8c0 .cfa: sp 32 +
STACK CFI 2f8c8 .cfa: sp 0 +
STACK CFI INIT 2f8cc 14 .cfa: sp 0 +
STACK CFI INIT 2f8e0 4 .cfa: sp 0 +
STACK CFI INIT 2f8e4 4 .cfa: sp 0 +
STACK CFI INIT 2fb14 1c .cfa: sp 0 +
STACK CFI INIT 2fb30 c .cfa: sp 0 +
STACK CFI INIT 2fb3c 4 .cfa: sp 0 +
STACK CFI INIT 2fce0 5c .cfa: sp 0 +
STACK CFI 2fce4 .cfa: sp 32 +
STACK CFI 2fcec .cfa: x29 32 + x19: .cfa -16 + ^ .ra: .cfa -24 + ^ x29: .cfa -32 + ^
STACK CFI 2fd30 .cfa: sp 32 +
STACK CFI 2fd38 .cfa: sp 0 +
STACK CFI INIT 2fd3c 64 .cfa: sp 0 +
STACK CFI 2fd40 .cfa: sp 32 +
STACK CFI 2fd48 .cfa: x29 32 + x19: .cfa -16 + ^ .ra: .cfa -24 + ^ x29: .cfa -32 + ^
STACK CFI 2fd94 .cfa: sp 32 +
STACK CFI 2fd9c .cfa: sp 0 +
STACK CFI INIT 2fda0 4 .cfa: sp 0 +
STACK CFI INIT 2fda4 4 .cfa: sp 0 +
STACK CFI INIT 2fda8 34 .cfa: sp 0 +
STACK CFI 2fdac .cfa: sp 32 +
STACK CFI 2fdb4 .cfa: x29 32 + x19: .cfa -16 + ^ .ra: .cfa -24 + ^ x29: .cfa -32 + ^
STACK CFI 2fdd0 .cfa: sp 32 +
STACK CFI 2fdd8 .cfa: sp 0 +
STACK CFI INIT 2fddc 14 .cfa: sp 0 +
STACK CFI INIT 2fdf0 4 .cfa: sp 0 +
STACK CFI INIT 2fdf4 4 .cfa: sp 0 +
STACK CFI INIT 2fdf8 10 .cfa: sp 0 +
STACK CFI INIT 2fe08 1c .cfa: sp 0 +
STACK CFI INIT 2fe24 c .cfa: sp 0 +
STACK CFI INIT 303dc 70 .cfa: sp 0 +
STACK CFI 303e0 .cfa: sp 32 +
STACK CFI 303e8 .cfa: x29 32 + x19: .cfa -16 + ^ .ra: .cfa -24 + ^ x29: .cfa -32 + ^
STACK CFI 30434 .cfa: sp 32 +
STACK CFI 3043c .cfa: sp 0 +
STACK CFI 30440 .cfa: sp 32 +
STACK CFI 30448 .cfa: sp 0 +
STACK CFI INIT 3044c 10 .cfa: sp 0 +
STACK CFI INIT 3045c 30 .cfa: sp 0 +
STACK CFI 30460 .cfa: sp 32 +
STACK CFI 30468 .cfa: x29 32 + x19: .cfa -16 + ^ .ra: .cfa -24 + ^ x29: .cfa -32 + ^
STACK CFI 30480 .cfa: sp 32 +
STACK CFI 30488 .cfa: sp 0 +
STACK CFI INIT 3048c 8 .cfa: sp 0 +
STACK CFI INIT 30494 4 .cfa: sp 0 +
STACK CFI INIT 305d0 3c .cfa: sp 0 +
STACK CFI 305d4 .cfa: sp 32 +
STACK CFI 305dc .cfa: x29 32 + x19: .cfa -16 + ^ .ra: .cfa -24 + ^ x29: .cfa -32 + ^
STACK CFI 305f4 .cfa: sp 32 +
STACK CFI 305fc .cfa: sp 0 +
STACK CFI 30600 .cfa: sp 32 +
STACK CFI 30608 .cfa: sp 0 +
STACK CFI INIT 30b5c 20 .cfa: sp 0 +
STACK CFI INIT 30b7c 3c .cfa: sp 0 +
STACK CFI 30b94 .cfa: sp 32 +
STACK CFI 30b9c .cfa: x29 32 + x19: .cfa -16 + ^ .ra: .cfa -24 + ^ x29: .cfa -32 + ^
STACK CFI 30bac .cfa: sp 32 +
STACK CFI 30bb4 .cfa: sp 0 +
STACK CFI INIT 30bb8 50 .cfa: sp 0 +
STACK CFI 30bbc .cfa: sp 32 +
STACK CFI 30bc4 .cfa: x29 32 + x19: .cfa -16 + ^ .ra: .cfa -24 + ^ x29: .cfa -32 + ^
STACK CFI 30bfc .cfa: sp 32 +
STACK CFI 30c04 .cfa: sp 0 +
STACK CFI INIT 30c08 34 .cfa: sp 0 +
STACK CFI 30c24 .cfa: sp 16 +
STACK CFI 30c28 .cfa: x29 16 + .ra: .cfa -8 + ^ x29: .cfa -16 + ^
STACK CFI 30c34 .cfa: sp 16 +
STACK CFI 30c38 .cfa: sp 0 +
STACK CFI INIT 30c3c 10 .cfa: sp 0 +
STACK CFI INIT 30c4c 30 .cfa: sp 0 +
STACK CFI 30c58 .cfa: sp 32 +
STACK CFI 30c60 .cfa: x29 32 + x19: .cfa -16 + ^ .ra: .cfa -24 + ^ x29: .cfa -32 + ^
STACK CFI 30c70 .cfa: sp 32 +
STACK CFI 30c78 .cfa: sp 0 +
STACK CFI INIT 30d48 1c .cfa: sp 0 +
STACK CFI INIT 30d64 c .cfa: sp 0 +
STACK CFI INIT 30ec0 50 .cfa: sp 0 +
STACK CFI 30ec4 .cfa: sp 32 +
STACK CFI 30ecc .cfa: x29 32 + x19: .cfa -16 + ^ .ra: .cfa -24 + ^ x29: .cfa -32 + ^
STACK CFI 30ee4 .cfa: sp 32 +
STACK CFI 30eec .cfa: sp 0 +
STACK CFI 30ef0 .cfa: x29 32 +
STACK CFI 30f04 .cfa: sp 32 +
STACK CFI 30f0c .cfa: sp 0 +
STACK CFI INIT 30f10 5c .cfa: sp 0 +
STACK CFI 30f14 .cfa: sp 32 +
STACK CFI 30f1c .cfa: x29 32 + x19: .cfa -16 + ^ .ra: .cfa -24 + ^ x29: .cfa -32 + ^
STACK CFI 30f40 .cfa: sp 32 +
STACK CFI 30f48 .cfa: sp 0 +
STACK CFI 30f4c .cfa: x29 32 +
STACK CFI 30f60 .cfa: sp 32 +
STACK CFI 30f68 .cfa: sp 0 +
STACK CFI INIT 30f6c 6c .cfa: sp 0 +
STACK CFI 30f70 .cfa: sp 32 +
STACK CFI 30f78 .cfa: x29 32 + x19: .cfa -8 + ^ x20: .cfa -16 + ^ .ra: .cfa -24 + ^ x29: .cfa -32 + ^
STACK CFI 30fa4 .cfa: sp 32 +
STACK CFI 30fac .cfa: sp 0 +
STACK CFI 30fb0 .cfa: x29 32 +
STACK CFI 30fcc .cfa: sp 32 +
STACK CFI 30fd4 .cfa: sp 0 +
STACK CFI INIT 30fd8 58 .cfa: sp 0 +
STACK CFI 30fdc .cfa: sp 32 +
STACK CFI 30fe4 .cfa: x29 32 + x19: .cfa -8 + ^ x20: .cfa -16 + ^ .ra: .cfa -24 + ^ x29: .cfa -32 + ^
STACK CFI 31024 .cfa: sp 32 +
STACK CFI 3102c .cfa: sp 0 +
STACK CFI INIT 31030 4c .cfa: sp 0 +
STACK CFI 31034 .cfa: sp 32 +
STACK CFI 3103c .cfa: x29 32 + x19: .cfa -8 + ^ x20: .cfa -16 + ^ .ra: .cfa -24 + ^ x29: .cfa -32 + ^
STACK CFI 31070 .cfa: sp 32 +
STACK CFI 31078 .cfa: sp 0 +
STACK CFI INIT 3107c 50 .cfa: sp 0 +
STACK CFI 31080 .cfa: sp 32 +
STACK CFI 31088 .cfa: x29 32 + x19: .cfa -16 + ^ .ra: .cfa -24 + ^ x29: .cfa -32 + ^
STACK CFI 310a0 .cfa: sp 32 +
STACK CFI 310a8 .cfa: sp 0 +
STACK CFI 310ac .cfa: x29 32 +
STACK CFI 310c0 .cfa: sp 32 +
STACK CFI 310c8 .cfa: sp 0 +
STACK CFI INIT 310cc 60 .cfa: sp 0 +
STACK CFI 310d0 .cfa: sp 32 +
STACK CFI 310d8 .cfa: x29 32 + x19: .cfa -8 + ^ x20: .cfa -16 + ^ .ra: .cfa -24 + ^ x29: .cfa -32 + ^
STACK CFI 310f8 .cfa: sp 32 +
STACK CFI 31100 .cfa: sp 0 +
STACK CFI 31104 .cfa: x29 32 +
STACK CFI 31120 .cfa: sp 32 +
STACK CFI 31128 .cfa: sp 0 +
STACK CFI INIT 3112c 8 .cfa: sp 0 +
STACK CFI INIT 31134 1c .cfa: sp 0 +
STACK CFI INIT 31150 c .cfa: sp 0 +
STACK CFI INIT 31318 20 .cfa: sp 0 +
STACK CFI INIT 31338 3c .cfa: sp 0 +
STACK CFI 31350 .cfa: sp 32 +
STACK CFI 31358 .cfa: x29 32 + x19: .cfa -16 + ^ .ra: .cfa -24 + ^ x29: .cfa -32 + ^
STACK CFI 31368 .cfa: sp 32 +
STACK CFI 31370 .cfa: sp 0 +
STACK CFI INIT 31374 50 .cfa: sp 0 +
STACK CFI 31378 .cfa: sp 32 +
STACK CFI 31380 .cfa: x29 32 + x19: .cfa -16 + ^ .ra: .cfa -24 + ^ x29: .cfa -32 + ^
STACK CFI 313b8 .cfa: sp 32 +
STACK CFI 313c0 .cfa: sp 0 +
STACK CFI INIT 313c4 34 .cfa: sp 0 +
STACK CFI 313e0 .cfa: sp 16 +
STACK CFI 313e4 .cfa: x29 16 + .ra: .cfa -8 + ^ x29: .cfa -16 + ^
STACK CFI 313f0 .cfa: sp 16 +
STACK CFI 313f4 .cfa: sp 0 +
STACK CFI INIT 313f8 10 .cfa: sp 0 +
STACK CFI INIT 31408 30 .cfa: sp 0 +
STACK CFI 31414 .cfa: sp 32 +
STACK CFI 3141c .cfa: x29 32 + x19: .cfa -16 + ^ .ra: .cfa -24 + ^ x29: .cfa -32 + ^
STACK CFI 3142c .cfa: sp 32 +
STACK CFI 31434 .cfa: sp 0 +
STACK CFI INIT 31438 8 .cfa: sp 0 +
STACK CFI INIT 31440 1c .cfa: sp 0 +
STACK CFI INIT 3145c c .cfa: sp 0 +
STACK CFI INIT 31564 50 .cfa: sp 0 +
STACK CFI 31568 .cfa: sp 32 +
STACK CFI 31570 .cfa: x29 32 + x19: .cfa -16 + ^ .ra: .cfa -24 + ^ x29: .cfa -32 + ^
STACK CFI 31588 .cfa: sp 32 +
STACK CFI 31590 .cfa: sp 0 +
STACK CFI 31594 .cfa: x29 32 +
STACK CFI 315a8 .cfa: sp 32 +
STACK CFI 315b0 .cfa: sp 0 +
STACK CFI INIT 315b4 5c .cfa: sp 0 +
STACK CFI 315b8 .cfa: sp 32 +
STACK CFI 315c0 .cfa: x29 32 + x19: .cfa -16 + ^ .ra: .cfa -24 + ^ x29: .cfa -32 + ^
STACK CFI 315e4 .cfa: sp 32 +
STACK CFI 315ec .cfa: sp 0 +
STACK CFI 315f0 .cfa: x29 32 +
STACK CFI 31604 .cfa: sp 32 +
STACK CFI 3160c .cfa: sp 0 +
STACK CFI INIT 31610 6c .cfa: sp 0 +
STACK CFI 31614 .cfa: sp 32 +
STACK CFI 3161c .cfa: x29 32 + x19: .cfa -8 + ^ x20: .cfa -16 + ^ .ra: .cfa -24 + ^ x29: .cfa -32 + ^
STACK CFI 31648 .cfa: sp 32 +
STACK CFI 31650 .cfa: sp 0 +
STACK CFI 31654 .cfa: x29 32 +
STACK CFI 31670 .cfa: sp 32 +
STACK CFI 31678 .cfa: sp 0 +
STACK CFI INIT 3167c 58 .cfa: sp 0 +
STACK CFI 31680 .cfa: sp 32 +
STACK CFI 31688 .cfa: x29 32 + x19: .cfa -8 + ^ x20: .cfa -16 + ^ .ra: .cfa -24 + ^ x29: .cfa -32 + ^
STACK CFI 316c8 .cfa: sp 32 +
STACK CFI 316d0 .cfa: sp 0 +
STACK CFI INIT 316d4 4c .cfa: sp 0 +
STACK CFI 316d8 .cfa: sp 32 +
STACK CFI 316e0 .cfa: x29 32 + x19: .cfa -8 + ^ x20: .cfa -16 + ^ .ra: .cfa -24 + ^ x29: .cfa -32 + ^
STACK CFI 31714 .cfa: sp 32 +
STACK CFI 3171c .cfa: sp 0 +
STACK CFI INIT 31720 50 .cfa: sp 0 +
STACK CFI 31724 .cfa: sp 32 +
STACK CFI 3172c .cfa: x29 32 + x19: .cfa -16 + ^ .ra: .cfa -24 + ^ x29: .cfa -32 + ^
STACK CFI 31744 .cfa: sp 32 +
STACK CFI 3174c .cfa: sp 0 +
STACK CFI 31750 .cfa: x29 32 +
STACK CFI 31764 .cfa: sp 32 +
STACK CFI 3176c .cfa: sp 0 +
STACK CFI INIT 31770 60 .cfa: sp 0 +
STACK CFI 31774 .cfa: sp 32 +
STACK CFI 3177c .cfa: x29 32 + x19: .cfa -8 + ^ x20: .cfa -16 + ^ .ra: .cfa -24 + ^ x29: .cfa -32 + ^
STACK CFI 3179c .cfa: sp 32 +
STACK CFI 317a4 .cfa: sp 0 +
STACK CFI 317a8 .cfa: x29 32 +
STACK CFI 317c4 .cfa: sp 32 +
STACK CFI 317cc .cfa: sp 0 +
STACK CFI INIT 317d0 8 .cfa: sp 0 +
STACK CFI INIT 317d8 1c .cfa: sp 0 +
STACK CFI INIT 317f4 c .cfa: sp 0 +
STACK CFI INIT 319d4 9c .cfa: sp 0 +
STACK CFI 319d8 .cfa: sp 32 +
STACK CFI 319e0 .cfa: x29 32 + x19: .cfa -8 + ^ x20: .cfa -16 + ^ .ra: .cfa -24 + ^ x29: .cfa -32 + ^
STACK CFI 31a08 .cfa: sp 32 +
STACK CFI 31a10 .cfa: sp 0 +
STACK CFI 31a14 .cfa: x29 32 +
STACK CFI 31a64 .cfa: sp 32 +
STACK CFI 31a6c .cfa: sp 0 +
STACK CFI INIT 31a70 4 .cfa: sp 0 +
STACK CFI INIT 31a74 4 .cfa: sp 0 +
STACK CFI INIT 31a78 38 .cfa: sp 0 +
STACK CFI 31a7c .cfa: sp 32 +
STACK CFI 31a84 .cfa: x29 32 + x19: .cfa -16 + ^ .ra: .cfa -24 + ^ x29: .cfa -32 + ^
STACK CFI 31aa4 .cfa: sp 32 +
STACK CFI 31aac .cfa: sp 0 +
STACK CFI INIT 31ab0 18 .cfa: sp 0 +
STACK CFI INIT 31ac8 4 .cfa: sp 0 +
STACK CFI INIT 31acc 4 .cfa: sp 0 +
STACK CFI INIT 31d8c 1c .cfa: sp 0 +
STACK CFI INIT 31da8 c .cfa: sp 0 +
STACK CFI INIT 31db4 174 .cfa: sp 0 +
STACK CFI 31db8 .cfa: sp 80 +
STACK CFI 31dc8 .cfa: x29 48 + x19: .cfa -8 + ^ x20: .cfa -16 + ^ x21: .cfa -32 + ^ .ra: .cfa -40 + ^ x29: .cfa -48 + ^
STACK CFI 31f10 .cfa: sp 80 +
STACK CFI 31f20 .cfa: sp 0 +
STACK CFI 31f24 .cfa: x29 48 +
STACK CFI INIT 32a1c 140 .cfa: sp 0 +
STACK CFI 32a20 .cfa: sp 48 +
STACK CFI 32a2c .cfa: x29 48 + x19: .cfa -8 + ^ x20: .cfa -16 + ^ x21: .cfa -32 + ^ .ra: .cfa -40 + ^ x29: .cfa -48 + ^
STACK CFI 32acc .cfa: sp 48 +
STACK CFI 32ad8 .cfa: sp 0 +
STACK CFI 32adc .cfa: x29 48 +
STACK CFI 32b4c .cfa: sp 48 +
STACK CFI 32b58 .cfa: sp 0 +
STACK CFI INIT 32b5c 138 .cfa: sp 0 +
STACK CFI 32b60 .cfa: sp 80 +
STACK CFI 32b70 .cfa: x29 48 + x19: .cfa -8 + ^ x20: .cfa -16 + ^ x21: .cfa -32 + ^ .ra: .cfa -40 + ^ x29: .cfa -48 + ^
STACK CFI 32c54 .cfa: sp 80 +
STACK CFI 32c64 .cfa: sp 0 +
STACK CFI 32c68 .cfa: x29 48 +
STACK CFI INIT 32c94 44 .cfa: sp 0 +
STACK CFI 32c98 .cfa: sp 32 +
STACK CFI 32ca0 .cfa: x29 32 + x19: .cfa -16 + ^ .ra: .cfa -24 + ^ x29: .cfa -32 + ^
STACK CFI 32cb0 .cfa: sp 32 +
STACK CFI 32cb8 .cfa: sp 0 +
STACK CFI 32cbc .cfa: x29 32 +
STACK CFI 32ccc .cfa: sp 32 +
STACK CFI 32cd4 .cfa: sp 0 +
STACK CFI INIT 33470 8 .cfa: sp 0 +
STACK CFI INIT 33478 24 .cfa: sp 0 +
STACK CFI 3347c .cfa: sp 32 +
STACK CFI 33484 .cfa: x29 32 + x19: .cfa -16 + ^ .ra: .cfa -24 + ^ x29: .cfa -32 + ^
STACK CFI 33490 .cfa: sp 32 +
STACK CFI 33498 .cfa: sp 0 +
STACK CFI INIT 3349c 28 .cfa: sp 0 +
STACK CFI 334a0 .cfa: sp 32 +
STACK CFI 334a8 .cfa: x29 32 + x19: .cfa -16 + ^ .ra: .cfa -24 + ^ x29: .cfa -32 + ^
STACK CFI 334b8 .cfa: sp 32 +
STACK CFI 334c0 .cfa: sp 0 +
STACK CFI INIT 334c4 2c .cfa: sp 0 +
STACK CFI 334c8 .cfa: sp 32 +
STACK CFI 334d0 .cfa: x29 32 + x19: .cfa -16 + ^ .ra: .cfa -24 + ^ x29: .cfa -32 + ^
STACK CFI 334e4 .cfa: sp 32 +
STACK CFI 334ec .cfa: sp 0 +
STACK CFI INIT 334f0 28 .cfa: sp 0 +
STACK CFI INIT 33660 2c .cfa: sp 0 +
STACK CFI INIT 3368c 4 .cfa: sp 0 +
STACK CFI INIT 336fc 4 .cfa: sp 0 +
STACK CFI INIT 3376c 4 .cfa: sp 0 +
STACK CFI INIT 33770 50 .cfa: sp 0 +
STACK CFI 33774 .cfa: sp 32 +
STACK CFI 3377c .cfa: x29 32 + x19: .cfa -16 + ^ .ra: .cfa -24 + ^ x29: .cfa -32 + ^
STACK CFI 33794 .cfa: sp 32 +
STACK CFI 3379c .cfa: sp 0 +
STACK CFI 337a0 .cfa: x29 32 +
STACK CFI 337b4 .cfa: sp 32 +
STACK CFI 337bc .cfa: sp 0 +
STACK CFI INIT 337c0 314 .cfa: sp 0 +
STACK CFI 337c4 .cfa: sp 128 +
STACK CFI 337dc .cfa: x29 64 + x19: .cfa -8 + ^ x20: .cfa -16 + ^ x21: .cfa -24 + ^ x22: .cfa -32 + ^ x23: .cfa -40 + ^ x24: .cfa -48 + ^ .ra: .cfa -56 + ^ x29: .cfa -64 + ^ v8: .cfa -72 + ^ v9: .cfa -80 + ^
STACK CFI 33a18 .cfa: sp 128 +
STACK CFI 33a30 .cfa: sp 0 +
STACK CFI 33a34 .cfa: x29 64 +
STACK CFI INIT 33ad4 50 .cfa: sp 0 +
STACK CFI 33ad8 .cfa: sp 32 +
STACK CFI 33ae0 .cfa: x29 32 + x19: .cfa -16 + ^ .ra: .cfa -24 + ^ x29: .cfa -32 + ^
STACK CFI 33af8 .cfa: sp 32 +
STACK CFI 33b00 .cfa: sp 0 +
STACK CFI 33b04 .cfa: x29 32 +
STACK CFI 33b18 .cfa: sp 32 +
STACK CFI 33b20 .cfa: sp 0 +
STACK CFI INIT 33b24 4 .cfa: sp 0 +
STACK CFI INIT 33b28 4 .cfa: sp 0 +
STACK CFI INIT 33b2c 34 .cfa: sp 0 +
STACK CFI 33b30 .cfa: sp 32 +
STACK CFI 33b38 .cfa: x29 32 + x19: .cfa -16 + ^ .ra: .cfa -24 + ^ x29: .cfa -32 + ^
STACK CFI 33b54 .cfa: sp 32 +
STACK CFI 33b5c .cfa: sp 0 +
STACK CFI INIT 33b60 14 .cfa: sp 0 +
STACK CFI INIT 33b74 4 .cfa: sp 0 +
STACK CFI INIT 33b78 4 .cfa: sp 0 +
STACK CFI INIT 33ca8 1c .cfa: sp 0 +
STACK CFI INIT 33cc4 c .cfa: sp 0 +
STACK CFI INIT 33cd0 50 .cfa: sp 0 +
STACK CFI 33cd4 .cfa: sp 32 +
STACK CFI 33cdc .cfa: x29 32 + x19: .cfa -16 + ^ .ra: .cfa -24 + ^ x29: .cfa -32 + ^
STACK CFI 33cf4 .cfa: sp 32 +
STACK CFI 33cfc .cfa: sp 0 +
STACK CFI 33d00 .cfa: x29 32 +
STACK CFI 33d14 .cfa: sp 32 +
STACK CFI 33d1c .cfa: sp 0 +
STACK CFI INIT 33d20 4 .cfa: sp 0 +
STACK CFI INIT 33e98 9c .cfa: sp 0 +
STACK CFI 33e9c .cfa: sp 32 +
STACK CFI 33ea4 .cfa: x29 32 + x19: .cfa -8 + ^ x20: .cfa -16 + ^ .ra: .cfa -24 + ^ x29: .cfa -32 + ^
STACK CFI 33f28 .cfa: sp 32 +
STACK CFI 33f30 .cfa: sp 0 +
STACK CFI INIT 33f34 a4 .cfa: sp 0 +
STACK CFI 33f38 .cfa: sp 32 +
STACK CFI 33f40 .cfa: x29 32 + x19: .cfa -8 + ^ x20: .cfa -16 + ^ .ra: .cfa -24 + ^ x29: .cfa -32 + ^
STACK CFI 33fcc .cfa: sp 32 +
STACK CFI 33fd4 .cfa: sp 0 +
STACK CFI INIT 33fd8 60 .cfa: sp 0 +
STACK CFI 33fdc .cfa: sp 32 +
STACK CFI 33fe4 .cfa: x29 32 + x19: .cfa -8 + ^ x20: .cfa -16 + ^ .ra: .cfa -24 + ^ x29: .cfa -32 + ^
STACK CFI 34004 .cfa: sp 32 +
STACK CFI 3400c .cfa: sp 0 +
STACK CFI 34010 .cfa: x29 32 +
STACK CFI 3402c .cfa: sp 32 +
STACK CFI 34034 .cfa: sp 0 +
STACK CFI INIT 34038 70 .cfa: sp 0 +
STACK CFI 3403c .cfa: sp 32 +
STACK CFI 34044 .cfa: x29 32 + x19: .cfa -8 + ^ x20: .cfa -16 + ^ .ra: .cfa -24 + ^ x29: .cfa -32 + ^
STACK CFI 3406c .cfa: sp 32 +
STACK CFI 34074 .cfa: sp 0 +
STACK CFI 34078 .cfa: x29 32 +
STACK CFI 3409c .cfa: sp 32 +
STACK CFI 340a4 .cfa: sp 0 +
STACK CFI INIT 340a8 10 .cfa: sp 0 +
STACK CFI INIT 340b8 30 .cfa: sp 0 +
STACK CFI 340bc .cfa: sp 32 +
STACK CFI 340c4 .cfa: x29 32 + x19: .cfa -16 + ^ .ra: .cfa -24 + ^ x29: .cfa -32 + ^
STACK CFI 340dc .cfa: sp 32 +
STACK CFI 340e4 .cfa: sp 0 +
STACK CFI INIT 340e8 4 .cfa: sp 0 +
STACK CFI INIT 340ec 4 .cfa: sp 0 +
STACK CFI INIT 341d8 24 .cfa: sp 0 +
STACK CFI 341dc .cfa: sp 32 +
STACK CFI 341e4 .cfa: x29 32 + x19: .cfa -16 + ^ .ra: .cfa -24 + ^ x29: .cfa -32 + ^
STACK CFI 341f0 .cfa: sp 32 +
STACK CFI 341f8 .cfa: sp 0 +
STACK CFI INIT 352ac 2c .cfa: sp 0 +
STACK CFI 352b0 .cfa: sp 32 +
STACK CFI 352b8 .cfa: x29 32 + x19: .cfa -16 + ^ .ra: .cfa -24 + ^ x29: .cfa -32 + ^
STACK CFI 352cc .cfa: sp 32 +
STACK CFI 352d4 .cfa: sp 0 +
STACK CFI INIT 352d8 28 .cfa: sp 0 +
STACK CFI INIT 353e0 2c .cfa: sp 0 +
STACK CFI INIT 3540c 4 .cfa: sp 0 +
STACK CFI INIT 3547c 4 .cfa: sp 0 +
STACK CFI INIT 35480 4 .cfa: sp 0 +
STACK CFI INIT 35484 24 .cfa: sp 0 +
STACK CFI 35488 .cfa: sp 16 +
STACK CFI 3548c .cfa: x29 16 + .ra: .cfa -8 + ^ x29: .cfa -16 + ^
STACK CFI 354a0 .cfa: sp 16 +
STACK CFI 354a4 .cfa: sp 0 +
STACK CFI INIT 354a8 10 .cfa: sp 0 +
STACK CFI INIT 354b8 4 .cfa: sp 0 +
STACK CFI INIT 354bc 4 .cfa: sp 0 +
STACK CFI INIT 35744 1c .cfa: sp 0 +
STACK CFI INIT 35760 c .cfa: sp 0 +
STACK CFI INIT 3576c 314 .cfa: sp 0 +
STACK CFI 35770 .cfa: sp 128 +
STACK CFI 35788 .cfa: x29 64 + x19: .cfa -8 + ^ x20: .cfa -16 + ^ x21: .cfa -24 + ^ x22: .cfa -32 + ^ x23: .cfa -40 + ^ x24: .cfa -48 + ^ .ra: .cfa -56 + ^ x29: .cfa -64 + ^ v8: .cfa -72 + ^ v9: .cfa -80 + ^
STACK CFI 359c4 .cfa: sp 128 +
STACK CFI 359dc .cfa: sp 0 +
STACK CFI 359e0 .cfa: x29 64 +
STACK CFI INIT 35a80 4 .cfa: sp 0 +
STACK CFI INIT 35a84 40 .cfa: sp 0 +
STACK CFI 35a88 .cfa: sp 32 +
STACK CFI 35a90 .cfa: x29 32 + x19: .cfa -16 + ^ .ra: .cfa -24 + ^ x29: .cfa -32 + ^
STACK CFI 35ab8 .cfa: sp 32 +
STACK CFI 35ac0 .cfa: sp 0 +
STACK CFI INIT 35ac4 20 .cfa: sp 0 +
STACK CFI INIT 35ae4 4 .cfa: sp 0 +
STACK CFI INIT 35ae8 4 .cfa: sp 0 +
STACK CFI INIT 35aec 20 .cfa: sp 0 +
STACK CFI INIT 35b0c 1c .cfa: sp 0 +
STACK CFI INIT 35b28 c .cfa: sp 0 +
STACK CFI INIT 35b34 60 .cfa: sp 0 +
STACK CFI 35b38 .cfa: sp 32 +
STACK CFI 35b40 .cfa: x29 32 + x19: .cfa -8 + ^ x20: .cfa -16 + ^ .ra: .cfa -24 + ^ x29: .cfa -32 + ^
STACK CFI 35b60 .cfa: sp 32 +
STACK CFI 35b68 .cfa: sp 0 +
STACK CFI 35b6c .cfa: x29 32 +
STACK CFI 35b88 .cfa: sp 32 +
STACK CFI 35b90 .cfa: sp 0 +
STACK CFI INIT 35b94 70 .cfa: sp 0 +
STACK CFI 35b98 .cfa: sp 32 +
STACK CFI 35ba0 .cfa: x29 32 + x19: .cfa -8 + ^ x20: .cfa -16 + ^ .ra: .cfa -24 + ^ x29: .cfa -32 + ^
STACK CFI 35bc8 .cfa: sp 32 +
STACK CFI 35bd0 .cfa: sp 0 +
STACK CFI 35bd4 .cfa: x29 32 +
STACK CFI 35bf8 .cfa: sp 32 +
STACK CFI 35c00 .cfa: sp 0 +
STACK CFI INIT 35c04 10 .cfa: sp 0 +
STACK CFI INIT 35c14 30 .cfa: sp 0 +
STACK CFI 35c18 .cfa: sp 32 +
STACK CFI 35c20 .cfa: x29 32 + x19: .cfa -16 + ^ .ra: .cfa -24 + ^ x29: .cfa -32 + ^
STACK CFI 35c38 .cfa: sp 32 +
STACK CFI 35c40 .cfa: sp 0 +
STACK CFI INIT 35c44 4 .cfa: sp 0 +
STACK CFI INIT 35c48 4 .cfa: sp 0 +
STACK CFI INIT 35d50 3c .cfa: sp 0 +
STACK CFI 35d54 .cfa: sp 32 +
STACK CFI 35d5c .cfa: x29 32 + x19: .cfa -16 + ^ .ra: .cfa -24 + ^ x29: .cfa -32 + ^
STACK CFI 35d68 .cfa: sp 32 +
STACK CFI 35d70 .cfa: sp 0 +
STACK CFI 35d74 .cfa: x29 32 +
STACK CFI 35d80 .cfa: sp 32 +
STACK CFI 35d88 .cfa: sp 0 +
STACK CFI INIT 35d8c 4c .cfa: sp 0 +
STACK CFI 35d90 .cfa: sp 32 +
STACK CFI 35d98 .cfa: x29 32 + x19: .cfa -8 + ^ x20: .cfa -16 + ^ .ra: .cfa -24 + ^ x29: .cfa -32 + ^
STACK CFI 35dc0 .cfa: sp 32 +
STACK CFI 35dc8 .cfa: sp 0 +
STACK CFI 35dcc .cfa: sp 32 +
STACK CFI 35dd4 .cfa: sp 0 +
STACK CFI INIT 35ff8 64 .cfa: sp 0 +
STACK CFI 35ffc .cfa: sp 32 +
STACK CFI 36004 .cfa: x29 32 + x19: .cfa -16 + ^ .ra: .cfa -24 + ^ x29: .cfa -32 + ^
STACK CFI 36030 .cfa: sp 32 +
STACK CFI 36038 .cfa: sp 0 +
STACK CFI 3603c .cfa: x29 32 +
STACK CFI 36050 .cfa: sp 32 +
STACK CFI 36058 .cfa: sp 0 +
STACK CFI INIT 3605c 24 .cfa: sp 0 +
STACK CFI 36060 .cfa: sp 32 +
STACK CFI 36068 .cfa: x29 32 + x19: .cfa -16 + ^ .ra: .cfa -24 + ^ x29: .cfa -32 + ^
STACK CFI 36074 .cfa: sp 32 +
STACK CFI 3607c .cfa: sp 0 +
STACK CFI INIT 36080 24 .cfa: sp 0 +
STACK CFI 36084 .cfa: sp 32 +
STACK CFI 3608c .cfa: x29 32 + x19: .cfa -16 + ^ .ra: .cfa -24 + ^ x29: .cfa -32 + ^
STACK CFI 36098 .cfa: sp 32 +
STACK CFI 360a0 .cfa: sp 0 +
STACK CFI INIT 360a4 8 .cfa: sp 0 +
STACK CFI INIT 360ac 24 .cfa: sp 0 +
STACK CFI 360b0 .cfa: sp 32 +
STACK CFI 360b8 .cfa: x29 32 + x19: .cfa -16 + ^ .ra: .cfa -24 + ^ x29: .cfa -32 + ^
STACK CFI 360c4 .cfa: sp 32 +
STACK CFI 360cc .cfa: sp 0 +
STACK CFI INIT 360d0 28 .cfa: sp 0 +
STACK CFI 360d4 .cfa: sp 32 +
STACK CFI 360dc .cfa: x29 32 + x19: .cfa -16 + ^ .ra: .cfa -24 + ^ x29: .cfa -32 + ^
STACK CFI 360ec .cfa: sp 32 +
STACK CFI 360f4 .cfa: sp 0 +
STACK CFI INIT 363d0 8 .cfa: sp 0 +
STACK CFI INIT 363d8 24 .cfa: sp 0 +
STACK CFI 363dc .cfa: sp 32 +
STACK CFI 363e4 .cfa: x29 32 + x19: .cfa -16 + ^ .ra: .cfa -24 + ^ x29: .cfa -32 + ^
STACK CFI 363f0 .cfa: sp 32 +
STACK CFI 363f8 .cfa: sp 0 +
STACK CFI INIT 363fc 28 .cfa: sp 0 +
STACK CFI 36400 .cfa: sp 32 +
STACK CFI 36408 .cfa: x29 32 + x19: .cfa -16 + ^ .ra: .cfa -24 + ^ x29: .cfa -32 + ^
STACK CFI 36418 .cfa: sp 32 +
STACK CFI 36420 .cfa: sp 0 +
STACK CFI INIT 36674 8 .cfa: sp 0 +
STACK CFI INIT 3667c 24 .cfa: sp 0 +
STACK CFI 36680 .cfa: sp 32 +
STACK CFI 36688 .cfa: x29 32 + x19: .cfa -16 + ^ .ra: .cfa -24 + ^ x29: .cfa -32 + ^
STACK CFI 36694 .cfa: sp 32 +
STACK CFI 3669c .cfa: sp 0 +
STACK CFI INIT 366a0 28 .cfa: sp 0 +
STACK CFI 366a4 .cfa: sp 32 +
STACK CFI 366ac .cfa: x29 32 + x19: .cfa -16 + ^ .ra: .cfa -24 + ^ x29: .cfa -32 + ^
STACK CFI 366bc .cfa: sp 32 +
STACK CFI 366c4 .cfa: sp 0 +
STACK CFI INIT 366c8 8 .cfa: sp 0 +
STACK CFI INIT 366d0 24 .cfa: sp 0 +
STACK CFI 366d4 .cfa: sp 32 +
STACK CFI 366dc .cfa: x29 32 + x19: .cfa -16 + ^ .ra: .cfa -24 + ^ x29: .cfa -32 + ^
STACK CFI 366e8 .cfa: sp 32 +
STACK CFI 366f0 .cfa: sp 0 +
STACK CFI INIT 366f4 28 .cfa: sp 0 +
STACK CFI 366f8 .cfa: sp 32 +
STACK CFI 36700 .cfa: x29 32 + x19: .cfa -16 + ^ .ra: .cfa -24 + ^ x29: .cfa -32 + ^
STACK CFI 36710 .cfa: sp 32 +
STACK CFI 36718 .cfa: sp 0 +
STACK CFI INIT 38288 4 .cfa: sp 0 +
STACK CFI INIT 394cc 4 .cfa: sp 0 +
STACK CFI INIT 394d0 14 .cfa: sp 0 +
STACK CFI INIT 399c4 c .cfa: sp 0 +
STACK CFI INIT 399d0 24c .cfa: sp 0 +
STACK CFI INIT 39c1c a0 .cfa: sp 0 +
STACK CFI 39c28 .cfa: sp 32 +
STACK CFI 39c80 .cfa: sp 0 +
STACK CFI 39c84 .cfa: sp 32 +
STACK CFI 39c8c .cfa: sp 0 +
STACK CFI 39c90 .cfa: sp 32 +
STACK CFI 39ca4 .cfa: sp 0 +
STACK CFI 39ca8 .cfa: sp 32 +
STACK CFI 39cb8 .cfa: sp 0 +
STACK CFI INIT 39cbc 38 .cfa: sp 0 +
STACK CFI 39cc8 .cfa: sp 32 +
STACK CFI 39cf0 .cfa: sp 0 +
STACK CFI INIT 39f88 7c .cfa: sp 0 +
STACK CFI 39f8c .cfa: sp 32 +
STACK CFI 39f94 .cfa: x29 32 + x19: .cfa -16 + ^ .ra: .cfa -24 + ^ x29: .cfa -32 + ^
STACK CFI 39fc0 .cfa: sp 32 +
STACK CFI 39fc8 .cfa: sp 0 +
STACK CFI 39fcc .cfa: x29 32 +
STACK CFI 39ff8 .cfa: sp 32 +
STACK CFI 3a000 .cfa: sp 0 +
STACK CFI INIT 3a054 2c .cfa: sp 0 +
STACK CFI 3a058 .cfa: sp 32 +
STACK CFI 3a060 .cfa: x29 32 + x19: .cfa -16 + ^ .ra: .cfa -24 + ^ x29: .cfa -32 + ^
STACK CFI 3a074 .cfa: sp 32 +
STACK CFI 3a07c .cfa: sp 0 +
STACK CFI INIT 3a840 64 .cfa: sp 0 +
STACK CFI 3a844 .cfa: sp 32 +
STACK CFI 3a84c .cfa: x29 32 + x19: .cfa -16 + ^ .ra: .cfa -24 + ^ x29: .cfa -32 + ^
STACK CFI 3a868 .cfa: sp 32 +
STACK CFI 3a870 .cfa: sp 0 +
STACK CFI 3a874 .cfa: x29 32 +
STACK CFI 3a898 .cfa: sp 32 +
STACK CFI 3a8a0 .cfa: sp 0 +
STACK CFI INIT 3a8a4 570 .cfa: sp 0 +
STACK CFI 3a8a8 .cfa: sp 176 +
STACK CFI 3a8bc .cfa: x29 64 + x19: .cfa -8 + ^ x20: .cfa -16 + ^ x21: .cfa -24 + ^ x22: .cfa -32 + ^ x23: .cfa -40 + ^ x24: .cfa -48 + ^ .ra: .cfa -56 + ^ x29: .cfa -64 + ^
STACK CFI 3aaec .cfa: sp 176 +
STACK CFI 3ab00 .cfa: sp 0 +
STACK CFI 3ab04 .cfa: x29 64 +
STACK CFI 3ab50 .cfa: sp 176 +
STACK CFI 3ab64 .cfa: sp 0 +
STACK CFI 3ab68 .cfa: x29 64 +
STACK CFI 3aba0 .cfa: sp 176 +
STACK CFI 3abb4 .cfa: sp 0 +
STACK CFI 3abb8 .cfa: x29 64 +
STACK CFI 3abd0 .cfa: sp 176 +
STACK CFI 3abe4 .cfa: sp 0 +
STACK CFI 3abe8 .cfa: x29 64 +
STACK CFI 3ac08 .cfa: sp 176 +
STACK CFI 3ac1c .cfa: sp 0 +
STACK CFI 3ac20 .cfa: x29 64 +
STACK CFI 3ac38 .cfa: sp 176 +
STACK CFI 3ac4c .cfa: sp 0 +
STACK CFI 3ac50 .cfa: x29 64 +
STACK CFI 3ac64 .cfa: sp 176 +
STACK CFI 3ac78 .cfa: sp 0 +
STACK CFI 3ac7c .cfa: x29 64 +
STACK CFI 3ac90 .cfa: sp 176 +
STACK CFI 3aca4 .cfa: sp 0 +
STACK CFI 3aca8 .cfa: x29 64 +
STACK CFI 3acb8 .cfa: sp 176 +
STACK CFI 3accc .cfa: sp 0 +
STACK CFI 3acd0 .cfa: x29 64 +
STACK CFI 3ace0 .cfa: sp 176 +
STACK CFI 3acf4 .cfa: sp 0 +
STACK CFI 3acf8 .cfa: x29 64 +
STACK CFI 3ad10 .cfa: sp 176 +
STACK CFI 3ad24 .cfa: sp 0 +
STACK CFI 3ad28 .cfa: x29 64 +
STACK CFI 3ad3c .cfa: sp 176 +
STACK CFI 3ad50 .cfa: sp 0 +
STACK CFI 3ad54 .cfa: x29 64 +
STACK CFI 3ad6c .cfa: sp 176 +
STACK CFI 3ad80 .cfa: sp 0 +
STACK CFI 3ad84 .cfa: x29 64 +
STACK CFI 3adb0 .cfa: sp 176 +
STACK CFI 3adc4 .cfa: sp 0 +
STACK CFI 3adc8 .cfa: x29 64 +
STACK CFI 3addc .cfa: sp 176 +
STACK CFI 3adf0 .cfa: sp 0 +
STACK CFI 3adf4 .cfa: x29 64 +
STACK CFI INIT 3ae14 228 .cfa: sp 0 +
STACK CFI INIT 3b03c 2dc .cfa: sp 0 +
STACK CFI INIT 3b318 53c .cfa: sp 0 +
STACK CFI INIT 3b854 78 .cfa: sp 0 +
STACK CFI 3b858 .cfa: sp 48 +
STACK CFI 3b864 .cfa: x29 48 + x19: .cfa -8 + ^ x20: .cfa -16 + ^ x21: .cfa -24 + ^ x22: .cfa -32 + ^ .ra: .cfa -40 + ^ x29: .cfa -48 + ^
STACK CFI 3b8ac .cfa: sp 48 +
STACK CFI 3b8b8 .cfa: sp 0 +
STACK CFI 3b8bc .cfa: sp 48 +
STACK CFI 3b8c8 .cfa: sp 0 +
STACK CFI INIT 3b8cc 8c .cfa: sp 0 +
STACK CFI 3b8d0 .cfa: sp 32 +
STACK CFI 3b8d8 .cfa: x29 32 + x19: .cfa -16 + ^ .ra: .cfa -24 + ^ x29: .cfa -32 + ^
STACK CFI 3b90c .cfa: sp 32 +
STACK CFI 3b914 .cfa: sp 0 +
STACK CFI 3b918 .cfa: x29 32 +
STACK CFI 3b94c .cfa: sp 32 +
STACK CFI 3b954 .cfa: sp 0 +
STACK CFI INIT 3b958 24 .cfa: sp 0 +
STACK CFI 3b95c .cfa: sp 32 +
STACK CFI 3b964 .cfa: x29 32 + x19: .cfa -16 + ^ .ra: .cfa -24 + ^ x29: .cfa -32 + ^
STACK CFI 3b970 .cfa: sp 32 +
STACK CFI 3b978 .cfa: sp 0 +
STACK CFI INIT 3b97c 150 .cfa: sp 0 +
STACK CFI 3b980 .cfa: sp 48 +
STACK CFI 3b98c .cfa: x29 48 + x19: .cfa -8 + ^ x20: .cfa -16 + ^ x21: .cfa -24 + ^ x22: .cfa -32 + ^ .ra: .cfa -40 + ^ x29: .cfa -48 + ^
STACK CFI 3babc .cfa: sp 48 +
STACK CFI 3bac8 .cfa: sp 0 +
STACK CFI INIT 3bacc 68 .cfa: sp 0 +
STACK CFI 3bad0 .cfa: sp 64 +
STACK CFI 3badc .cfa: x29 32 + x19: .cfa -16 + ^ .ra: .cfa -24 + ^ x29: .cfa -32 + ^
STACK CFI 3bb20 .cfa: sp 64 +
STACK CFI 3bb2c .cfa: sp 0 +
STACK CFI 3bb30 .cfa: x29 32 +
STACK CFI INIT 3bb34 90 .cfa: sp 0 +
STACK CFI 3bb38 .cfa: sp 32 +
STACK CFI 3bb40 .cfa: x29 32 + x19: .cfa -8 + ^ x20: .cfa -16 + ^ .ra: .cfa -24 + ^ x29: .cfa -32 + ^
STACK CFI 3bb6c .cfa: sp 32 +
STACK CFI 3bb74 .cfa: sp 0 +
STACK CFI 3bb78 .cfa: x29 32 +
STACK CFI 3bbb8 .cfa: sp 32 +
STACK CFI 3bbc0 .cfa: sp 0 +
STACK CFI INIT 3bbc4 ec .cfa: sp 0 +
STACK CFI 3bbc8 .cfa: sp 112 +
STACK CFI 3bbd8 .cfa: x29 48 + x19: .cfa -8 + ^ x20: .cfa -16 + ^ x21: .cfa -32 + ^ .ra: .cfa -40 + ^ x29: .cfa -48 + ^
STACK CFI 3bc98 .cfa: sp 112 +
STACK CFI 3bca8 .cfa: sp 0 +
STACK CFI 3bcac .cfa: x29 48 +
STACK CFI INIT 3bcb0 ec .cfa: sp 0 +
STACK CFI 3bcb4 .cfa: sp 112 +
STACK CFI 3bcc4 .cfa: x29 48 + x19: .cfa -8 + ^ x20: .cfa -16 + ^ x21: .cfa -32 + ^ .ra: .cfa -40 + ^ x29: .cfa -48 + ^
STACK CFI 3bd84 .cfa: sp 112 +
STACK CFI 3bd94 .cfa: sp 0 +
STACK CFI 3bd98 .cfa: x29 48 +
STACK CFI INIT 3bd9c 48 .cfa: sp 0 +
STACK CFI 3bda0 .cfa: sp 32 +
STACK CFI 3bda8 .cfa: x29 32 + x19: .cfa -8 + ^ x20: .cfa -16 + ^ .ra: .cfa -24 + ^ x29: .cfa -32 + ^
STACK CFI 3bdcc .cfa: sp 32 +
STACK CFI 3bdd4 .cfa: sp 0 +
STACK CFI 3bdd8 .cfa: x29 32 +
STACK CFI INIT 3bde4 98 .cfa: sp 0 +
STACK CFI 3bde8 .cfa: sp 80 +
STACK CFI 3bdf4 .cfa: x29 32 + x19: .cfa -16 + ^ .ra: .cfa -24 + ^ x29: .cfa -32 + ^
STACK CFI 3be68 .cfa: sp 80 +
STACK CFI 3be74 .cfa: sp 0 +
STACK CFI 3be78 .cfa: x29 32 +
STACK CFI INIT 3be7c 260 .cfa: sp 0 +
STACK CFI 3be80 .cfa: sp 112 +
STACK CFI 3be98 .cfa: x29 80 + x19: .cfa -8 + ^ x20: .cfa -16 + ^ x21: .cfa -24 + ^ x22: .cfa -32 + ^ x23: .cfa -40 + ^ x24: .cfa -48 + ^ x25: .cfa -64 + ^ .ra: .cfa -72 + ^ x29: .cfa -80 + ^
STACK CFI 3c07c .cfa: sp 112 +
STACK CFI 3c094 .cfa: sp 0 +
STACK CFI 3c098 .cfa: x29 80 +
STACK CFI INIT 3c0dc 150 .cfa: sp 0 +
STACK CFI 3c0e0 .cfa: sp 48 +
STACK CFI 3c0ec .cfa: x29 48 + x19: .cfa -8 + ^ x20: .cfa -16 + ^ x21: .cfa -24 + ^ x22: .cfa -32 + ^ .ra: .cfa -40 + ^ x29: .cfa -48 + ^
STACK CFI 3c21c .cfa: sp 48 +
STACK CFI 3c228 .cfa: sp 0 +
STACK CFI INIT 3c22c 1e0 .cfa: sp 0 +
STACK CFI 3c230 .cfa: sp 96 +
STACK CFI 3c244 .cfa: x29 64 + x19: .cfa -8 + ^ x20: .cfa -16 + ^ x21: .cfa -24 + ^ x22: .cfa -32 + ^ x23: .cfa -40 + ^ x24: .cfa -48 + ^ .ra: .cfa -56 + ^ x29: .cfa -64 + ^
STACK CFI 3c3c4 .cfa: sp 96 +
STACK CFI 3c3d8 .cfa: sp 0 +
STACK CFI 3c3dc .cfa: x29 64 +
STACK CFI INIT 3c40c 284 .cfa: sp 0 +
STACK CFI 3c410 .cfa: sp 112 +
STACK CFI 3c428 .cfa: x29 80 + x19: .cfa -8 + ^ x20: .cfa -16 + ^ x21: .cfa -24 + ^ x22: .cfa -32 + ^ x23: .cfa -40 + ^ x24: .cfa -48 + ^ x25: .cfa -64 + ^ .ra: .cfa -72 + ^ x29: .cfa -80 + ^
STACK CFI 3c630 .cfa: sp 112 +
STACK CFI 3c648 .cfa: sp 0 +
STACK CFI 3c64c .cfa: x29 80 +
STACK CFI INIT 3c690 208 .cfa: sp 0 +
STACK CFI 3c694 .cfa: sp 96 +
STACK CFI 3c6a8 .cfa: x29 64 + x19: .cfa -8 + ^ x20: .cfa -16 + ^ x21: .cfa -24 + ^ x22: .cfa -32 + ^ x23: .cfa -40 + ^ x24: .cfa -48 + ^ .ra: .cfa -56 + ^ x29: .cfa -64 + ^
STACK CFI 3c850 .cfa: sp 96 +
STACK CFI 3c864 .cfa: sp 0 +
STACK CFI 3c868 .cfa: x29 64 +
STACK CFI INIT 3c898 360 .cfa: sp 0 +
STACK CFI 3c89c .cfa: sp 160 +
STACK CFI 3c8b8 .cfa: x29 96 + x19: .cfa -8 + ^ x20: .cfa -16 + ^ x21: .cfa -24 + ^ x22: .cfa -32 + ^ x23: .cfa -40 + ^ x24: .cfa -48 + ^ x25: .cfa -56 + ^ x26: .cfa -64 + ^ x27: .cfa -72 + ^ x28: .cfa -80 + ^ .ra: .cfa -88 + ^ x29: .cfa -96 + ^
STACK CFI 3cb84 .cfa: sp 160 +
STACK CFI 3cba0 .cfa: sp 0 +
STACK CFI 3cba4 .cfa: x29 96 +
STACK CFI INIT 3cbf8 314 .cfa: sp 0 +
STACK CFI 3cbfc .cfa: sp 144 +
STACK CFI 3cc18 .cfa: x29 96 + x19: .cfa -8 + ^ x20: .cfa -16 + ^ x21: .cfa -24 + ^ x22: .cfa -32 + ^ x23: .cfa -40 + ^ x24: .cfa -48 + ^ x25: .cfa -56 + ^ x26: .cfa -64 + ^ x27: .cfa -72 + ^ x28: .cfa -80 + ^ .ra: .cfa -88 + ^ x29: .cfa -96 + ^
STACK CFI 3ce94 .cfa: sp 144 +
STACK CFI 3ceb0 .cfa: sp 0 +
STACK CFI 3ceb4 .cfa: x29 96 +
STACK CFI INIT 3cf0c 290 .cfa: sp 0 +
STACK CFI 3cf10 .cfa: sp 128 +
STACK CFI 3cf28 .cfa: x29 80 + x19: .cfa -8 + ^ x20: .cfa -16 + ^ x21: .cfa -24 + ^ x22: .cfa -32 + ^ x23: .cfa -40 + ^ x24: .cfa -48 + ^ x25: .cfa -56 + ^ x26: .cfa -64 + ^ .ra: .cfa -72 + ^ x29: .cfa -80 + ^
STACK CFI 3d17c .cfa: sp 128 +
STACK CFI 3d194 .cfa: sp 0 +
STACK CFI 3d198 .cfa: x29 80 +
STACK CFI INIT 3d19c ddc .cfa: sp 0 +
STACK CFI 3d1a0 .cfa: sp 144 +
STACK CFI 3d1bc .cfa: x29 96 + x19: .cfa -8 + ^ x20: .cfa -16 + ^ x21: .cfa -24 + ^ x22: .cfa -32 + ^ x23: .cfa -40 + ^ x24: .cfa -48 + ^ x25: .cfa -56 + ^ x26: .cfa -64 + ^ x27: .cfa -72 + ^ x28: .cfa -80 + ^ .ra: .cfa -88 + ^ x29: .cfa -96 + ^
STACK CFI 3de50 .cfa: sp 144 +
STACK CFI 3de6c .cfa: sp 0 +
STACK CFI 3de70 .cfa: x29 96 +
STACK CFI INIT 3df78 1d0 .cfa: sp 0 +
STACK CFI 3df7c .cfa: sp 80 +
STACK CFI 3df90 .cfa: x29 80 + x19: .cfa -8 + ^ x20: .cfa -16 + ^ x21: .cfa -24 + ^ x22: .cfa -32 + ^ x23: .cfa -40 + ^ x24: .cfa -48 + ^ x25: .cfa -64 + ^ .ra: .cfa -72 + ^ x29: .cfa -80 + ^
STACK CFI 3e130 .cfa: sp 80 +
STACK CFI 3e144 .cfa: sp 0 +
STACK CFI INIT 3e148 23c .cfa: sp 0 +
STACK CFI 3e14c .cfa: sp 112 +
STACK CFI 3e160 .cfa: x29 64 + x19: .cfa -8 + ^ x20: .cfa -16 + ^ x21: .cfa -24 + ^ x22: .cfa -32 + ^ x23: .cfa -40 + ^ x24: .cfa -48 + ^ .ra: .cfa -56 + ^ x29: .cfa -64 + ^
STACK CFI 3e33c .cfa: sp 112 +
STACK CFI 3e350 .cfa: sp 0 +
STACK CFI 3e354 .cfa: x29 64 +
STACK CFI INIT 3e384 30c .cfa: sp 0 +
STACK CFI 3e388 .cfa: sp 80 +
STACK CFI 3e39c .cfa: x29 64 + x19: .cfa -8 + ^ x20: .cfa -16 + ^ x21: .cfa -24 + ^ x22: .cfa -32 + ^ x23: .cfa -40 + ^ x24: .cfa -48 + ^ .ra: .cfa -56 + ^ x29: .cfa -64 + ^
STACK CFI 3e518 .cfa: sp 80 +
STACK CFI 3e52c .cfa: sp 0 +
STACK CFI 3e530 .cfa: x29 64 +
STACK CFI INIT 3e690 178 .cfa: sp 0 +
STACK CFI 3e694 .cfa: sp 80 +
STACK CFI 3e6a8 .cfa: x29 64 + x19: .cfa -8 + ^ x20: .cfa -16 + ^ x21: .cfa -24 + ^ x22: .cfa -32 + ^ x23: .cfa -40 + ^ x24: .cfa -48 + ^ .ra: .cfa -56 + ^ x29: .cfa -64 + ^
STACK CFI 3e7ec .cfa: sp 80 +
STACK CFI 3e800 .cfa: sp 0 +
STACK CFI 3e804 .cfa: x29 64 +
STACK CFI INIT 3e808 178 .cfa: sp 0 +
STACK CFI 3e80c .cfa: sp 80 +
STACK CFI 3e820 .cfa: x29 64 + x19: .cfa -8 + ^ x20: .cfa -16 + ^ x21: .cfa -24 + ^ x22: .cfa -32 + ^ x23: .cfa -40 + ^ x24: .cfa -48 + ^ .ra: .cfa -56 + ^ x29: .cfa -64 + ^
STACK CFI 3e964 .cfa: sp 80 +
STACK CFI 3e978 .cfa: sp 0 +
STACK CFI 3e97c .cfa: x29 64 +
STACK CFI INIT 3e980 240 .cfa: sp 0 +
STACK CFI 3e984 .cfa: sp 96 +
STACK CFI 3e99c .cfa: x29 96 + x19: .cfa -8 + ^ x20: .cfa -16 + ^ x21: .cfa -24 + ^ x22: .cfa -32 + ^ x23: .cfa -40 + ^ x24: .cfa -48 + ^ x25: .cfa -56 + ^ x26: .cfa -64 + ^ x27: .cfa -72 + ^ x28: .cfa -80 + ^ .ra: .cfa -88 + ^ x29: .cfa -96 + ^
STACK CFI 3eba4 .cfa: sp 96 +
STACK CFI 3ebbc .cfa: sp 0 +
STACK CFI INIT 3f834 154 .cfa: sp 0 +
STACK CFI 3f838 .cfa: sp 96 +
STACK CFI 3f84c .cfa: x29 64 + x19: .cfa -8 + ^ x20: .cfa -16 + ^ x21: .cfa -24 + ^ x22: .cfa -32 + ^ x23: .cfa -48 + ^ .ra: .cfa -56 + ^ x29: .cfa -64 + ^
STACK CFI 3f92c .cfa: sp 96 +
STACK CFI 3f940 .cfa: sp 0 +
STACK CFI 3f944 .cfa: x29 64 +
STACK CFI INIT 3fbf4 44 .cfa: sp 0 +
STACK CFI 3fbf8 .cfa: sp 32 +
STACK CFI 3fc00 .cfa: x29 32 + x19: .cfa -16 + ^ .ra: .cfa -24 + ^ x29: .cfa -32 + ^
STACK CFI 3fc1c .cfa: sp 32 +
STACK CFI 3fc24 .cfa: sp 0 +
STACK CFI 3fc28 .cfa: x29 32 +
STACK CFI 3fc2c .cfa: sp 32 +
STACK CFI 3fc34 .cfa: sp 0 +
STACK CFI INIT 3fc38 1d0 .cfa: sp 0 +
STACK CFI 3fc3c .cfa: sp 64 +
STACK CFI 3fc4c .cfa: x29 64 + x19: .cfa -8 + ^ x20: .cfa -16 + ^ x21: .cfa -24 + ^ x22: .cfa -32 + ^ x23: .cfa -40 + ^ x24: .cfa -48 + ^ .ra: .cfa -56 + ^ x29: .cfa -64 + ^
STACK CFI 3fd0c .cfa: sp 64 +
STACK CFI 3fd1c .cfa: sp 0 +
STACK CFI 3fd20 .cfa: x29 64 +
STACK CFI INIT 3fe08 17c .cfa: sp 0 +
STACK CFI INIT 3ff84 ac .cfa: sp 0 +
STACK CFI 3ff88 .cfa: sp 64 +
STACK CFI 3ff98 .cfa: x29 64 + x19: .cfa -8 + ^ x20: .cfa -16 + ^ x21: .cfa -24 + ^ x22: .cfa -32 + ^ x23: .cfa -48 + ^ .ra: .cfa -56 + ^ x29: .cfa -64 + ^
STACK CFI 40014 .cfa: sp 64 +
STACK CFI 40024 .cfa: sp 0 +
STACK CFI 40028 .cfa: x29 64 +
STACK CFI INIT 40030 110 .cfa: sp 0 +
STACK CFI 40034 .cfa: sp 64 +
STACK CFI 40044 .cfa: x29 64 + x19: .cfa -8 + ^ x20: .cfa -16 + ^ x21: .cfa -24 + ^ x22: .cfa -32 + ^ x23: .cfa -40 + ^ x24: .cfa -48 + ^ .ra: .cfa -56 + ^ x29: .cfa -64 + ^
STACK CFI 40124 .cfa: sp 64 +
STACK CFI 40134 .cfa: sp 0 +
STACK CFI 40138 .cfa: x29 64 +
STACK CFI INIT 404f8 a0 .cfa: sp 0 +
STACK CFI 404fc .cfa: sp 48 +
STACK CFI 40508 .cfa: x29 48 + x19: .cfa -8 + ^ x20: .cfa -16 + ^ x21: .cfa -24 + ^ x22: .cfa -32 + ^ .ra: .cfa -40 + ^ x29: .cfa -48 + ^
STACK CFI 40574 .cfa: sp 48 +
STACK CFI 40580 .cfa: sp 0 +
STACK CFI 40584 .cfa: sp 48 +
STACK CFI 40590 .cfa: sp 0 +
STACK CFI 40594 .cfa: x29 48 +
STACK CFI INIT 4124c 158 .cfa: sp 0 +
STACK CFI 41250 .cfa: sp 96 +
STACK CFI 41264 .cfa: x29 64 + x19: .cfa -8 + ^ x20: .cfa -16 + ^ x21: .cfa -24 + ^ x22: .cfa -32 + ^ x23: .cfa -48 + ^ .ra: .cfa -56 + ^ x29: .cfa -64 + ^
STACK CFI 41348 .cfa: sp 96 +
STACK CFI 4135c .cfa: sp 0 +
STACK CFI 41360 .cfa: x29 64 +
STACK CFI INIT 413a4 190 .cfa: sp 0 +
STACK CFI INIT 42030 1dc .cfa: sp 0 +
STACK CFI 42034 .cfa: sp 80 +
STACK CFI 42048 .cfa: x29 80 + x19: .cfa -8 + ^ x20: .cfa -16 + ^ x21: .cfa -24 + ^ x22: .cfa -32 + ^ x23: .cfa -40 + ^ x24: .cfa -48 + ^ x25: .cfa -64 + ^ .ra: .cfa -72 + ^ x29: .cfa -80 + ^
STACK CFI 421f4 .cfa: sp 80 +
STACK CFI 42208 .cfa: sp 0 +
STACK CFI INIT 4363c 124 .cfa: sp 0 +
STACK CFI 4366c .cfa: sp 32 +
STACK CFI 43674 .cfa: x29 32 + x19: .cfa -8 + ^ x20: .cfa -16 + ^ .ra: .cfa -24 + ^ x29: .cfa -32 + ^
STACK CFI 43754 .cfa: sp 32 +
STACK CFI 4375c .cfa: sp 0 +
STACK CFI INIT 43ebc 320 .cfa: sp 0 +
STACK CFI 43ec0 .cfa: sp 64 +
STACK CFI 43ed0 .cfa: x29 64 + x19: .cfa -8 + ^ x20: .cfa -16 + ^ x21: .cfa -24 + ^ x22: .cfa -32 + ^ x23: .cfa -40 + ^ x24: .cfa -48 + ^ .ra: .cfa -56 + ^ x29: .cfa -64 + ^
STACK CFI 43f4c .cfa: sp 64 +
STACK CFI 43f5c .cfa: sp 0 +
STACK CFI 43f60 .cfa: x29 64 +
STACK CFI 44134 .cfa: sp 64 +
STACK CFI 44144 .cfa: sp 0 +
STACK CFI 44148 .cfa: x29 64 +
STACK CFI 44158 .cfa: sp 64 +
STACK CFI 44168 .cfa: sp 0 +
STACK CFI 4416c .cfa: x29 64 +
STACK CFI INIT 441dc a0 .cfa: sp 0 +
STACK CFI 441e0 .cfa: sp 48 +
STACK CFI 441ec .cfa: x29 48 + x19: .cfa -8 + ^ x20: .cfa -16 + ^ x21: .cfa -24 + ^ x22: .cfa -32 + ^ .ra: .cfa -40 + ^ x29: .cfa -48 + ^
STACK CFI 44258 .cfa: sp 48 +
STACK CFI 44264 .cfa: sp 0 +
STACK CFI 44268 .cfa: sp 48 +
STACK CFI 44274 .cfa: sp 0 +
STACK CFI 44278 .cfa: x29 48 +
STACK CFI INIT 4512c 160 .cfa: sp 0 +
STACK CFI 45130 .cfa: sp 64 +
STACK CFI 45140 .cfa: x29 64 + x19: .cfa -8 + ^ x20: .cfa -16 + ^ x21: .cfa -24 + ^ x22: .cfa -32 + ^ x23: .cfa -48 + ^ .ra: .cfa -56 + ^ x29: .cfa -64 + ^
STACK CFI 45238 .cfa: sp 64 +
STACK CFI 45248 .cfa: sp 0 +
STACK CFI 4524c .cfa: x29 64 +
STACK CFI INIT 4528c 214 .cfa: sp 0 +
STACK CFI 45290 .cfa: sp 128 +
STACK CFI 452ac .cfa: x29 96 + x19: .cfa -8 + ^ x20: .cfa -16 + ^ x21: .cfa -24 + ^ x22: .cfa -32 + ^ x23: .cfa -40 + ^ x24: .cfa -48 + ^ x25: .cfa -56 + ^ x26: .cfa -64 + ^ x27: .cfa -80 + ^ .ra: .cfa -88 + ^ x29: .cfa -96 + ^
STACK CFI 45428 .cfa: sp 128 +
STACK CFI 45444 .cfa: sp 0 +
STACK CFI 45448 .cfa: x29 96 +
STACK CFI INIT 4713c 290 .cfa: sp 0 +
STACK CFI 47140 .cfa: sp 16 +
STACK CFI 47144 .cfa: x29 16 + .ra: .cfa -8 + ^ x29: .cfa -16 + ^
STACK CFI 471d0 .cfa: sp 16 +
STACK CFI 471d4 .cfa: sp 0 +
STACK CFI 471d8 .cfa: x29 16 +
STACK CFI 47228 .cfa: sp 16 +
STACK CFI 4722c .cfa: sp 0 +
STACK CFI 47230 .cfa: x29 16 +
STACK CFI 47394 .cfa: sp 16 +
STACK CFI 47398 .cfa: sp 0 +
STACK CFI 4739c .cfa: x29 16 +
STACK CFI INIT 473cc 158 .cfa: sp 0 +
STACK CFI 473d0 .cfa: sp 112 +
STACK CFI 473ec .cfa: x29 96 + x19: .cfa -8 + ^ x20: .cfa -16 + ^ x21: .cfa -24 + ^ x22: .cfa -32 + ^ x23: .cfa -40 + ^ x24: .cfa -48 + ^ x25: .cfa -56 + ^ x26: .cfa -64 + ^ x27: .cfa -72 + ^ x28: .cfa -80 + ^ .ra: .cfa -88 + ^ x29: .cfa -96 + ^
STACK CFI 474d4 .cfa: sp 112 +
STACK CFI 474d8 .cfa: x29 96 +
STACK CFI 474e0 .cfa: sp 112 +
STACK CFI 474fc .cfa: sp 0 +
STACK CFI 47500 .cfa: x29 96 +
STACK CFI 47520 .cfa: sp 112 +
STACK CFI INIT 47524 e54 .cfa: sp 0 +
STACK CFI 47528 .cfa: sp 192 +
STACK CFI 47544 .cfa: x29 96 + x19: .cfa -8 + ^ x20: .cfa -16 + ^ x21: .cfa -24 + ^ x22: .cfa -32 + ^ x23: .cfa -40 + ^ x24: .cfa -48 + ^ x25: .cfa -56 + ^ x26: .cfa -64 + ^ x27: .cfa -72 + ^ x28: .cfa -80 + ^ .ra: .cfa -88 + ^ x29: .cfa -96 + ^
STACK CFI 48260 .cfa: sp 192 +
STACK CFI 4827c .cfa: sp 0 +
STACK CFI 48280 .cfa: x29 96 +
STACK CFI INIT 48378 1068 .cfa: sp 0 +
STACK CFI 4837c .cfa: sp 288 +
STACK CFI 48398 .cfa: x29 96 + x19: .cfa -8 + ^ x20: .cfa -16 + ^ x21: .cfa -24 + ^ x22: .cfa -32 + ^ x23: .cfa -40 + ^ x24: .cfa -48 + ^ x25: .cfa -56 + ^ x26: .cfa -64 + ^ x27: .cfa -72 + ^ x28: .cfa -80 + ^ .ra: .cfa -88 + ^ x29: .cfa -96 + ^
STACK CFI 49128 .cfa: sp 288 +
STACK CFI 49144 .cfa: sp 0 +
STACK CFI 49148 .cfa: x29 96 +
STACK CFI INIT 493e0 520 .cfa: sp 0 +
STACK CFI 493e4 .cfa: sp 144 +
STACK CFI 49400 .cfa: x29 96 + x19: .cfa -8 + ^ x20: .cfa -16 + ^ x21: .cfa -24 + ^ x22: .cfa -32 + ^ x23: .cfa -40 + ^ x24: .cfa -48 + ^ x25: .cfa -56 + ^ x26: .cfa -64 + ^ x27: .cfa -72 + ^ x28: .cfa -80 + ^ .ra: .cfa -88 + ^ x29: .cfa -96 + ^
STACK CFI 498dc .cfa: sp 144 +
STACK CFI 498f8 .cfa: sp 0 +
STACK CFI 498fc .cfa: x29 96 +
STACK CFI INIT 4a2a0 136c .cfa: sp 0 +
STACK CFI 4a2a4 .cfa: sp 224 +
STACK CFI 4a2c0 .cfa: x29 96 + x19: .cfa -8 + ^ x20: .cfa -16 + ^ x21: .cfa -24 + ^ x22: .cfa -32 + ^ x23: .cfa -40 + ^ x24: .cfa -48 + ^ x25: .cfa -56 + ^ x26: .cfa -64 + ^ x27: .cfa -72 + ^ x28: .cfa -80 + ^ .ra: .cfa -88 + ^ x29: .cfa -96 + ^
STACK CFI 4b5e8 .cfa: sp 224 +
STACK CFI 4b604 .cfa: sp 0 +
STACK CFI 4b608 .cfa: x29 96 +
STACK CFI INIT 4b60c 1b8 .cfa: sp 0 +
STACK CFI INIT 266a0 134 .cfa: sp 0 +
STACK CFI 266a4 .cfa: sp 80 +
STACK CFI 266b4 .cfa: x29 48 + x19: .cfa -8 + ^ x20: .cfa -16 + ^ x21: .cfa -24 + ^ x22: .cfa -32 + ^ .ra: .cfa -40 + ^ x29: .cfa -48 + ^
STACK CFI 267b8 .cfa: sp 80 +
STACK CFI 267c8 .cfa: sp 0 +
STACK CFI 267cc .cfa: x29 48 +
STACK CFI INIT 267d4 118 .cfa: sp 0 +
STACK CFI 267d8 .cfa: sp 80 +
STACK CFI 267e8 .cfa: x29 48 + x19: .cfa -8 + ^ x20: .cfa -16 + ^ x21: .cfa -24 + ^ x22: .cfa -32 + ^ .ra: .cfa -40 + ^ x29: .cfa -48 + ^
STACK CFI 268d0 .cfa: sp 80 +
STACK CFI 268e0 .cfa: sp 0 +
STACK CFI 268e4 .cfa: x29 48 +
STACK CFI INIT 269e4 480 .cfa: sp 0 +
STACK CFI 269e8 .cfa: sp 224 +
STACK CFI 26a04 .cfa: x29 96 + x19: .cfa -8 + ^ x20: .cfa -16 + ^ x21: .cfa -24 + ^ x22: .cfa -32 + ^ x23: .cfa -40 + ^ x24: .cfa -48 + ^ x25: .cfa -56 + ^ x26: .cfa -64 + ^ x27: .cfa -80 + ^ .ra: .cfa -88 + ^ x29: .cfa -96 + ^
STACK CFI 26c70 .cfa: sp 224 +
STACK CFI 26c8c .cfa: sp 0 +
STACK CFI 26c90 .cfa: x29 96 +
STACK CFI 26d5c .cfa: sp 224 +
STACK CFI 26d78 .cfa: sp 0 +
STACK CFI 26d7c .cfa: x29 96 +
STACK CFI INIT 26ea4 50 .cfa: sp 0 +
STACK CFI 26ea8 .cfa: sp 32 +
STACK CFI 26eb0 .cfa: x29 32 + x19: .cfa -8 + ^ x20: .cfa -16 + ^ .ra: .cfa -24 + ^ x29: .cfa -32 + ^
STACK CFI INIT 26f58 3fc .cfa: sp 0 +
STACK CFI 26f5c .cfa: sp 224 +
STACK CFI 26f78 .cfa: x29 96 + x19: .cfa -8 + ^ x20: .cfa -16 + ^ x21: .cfa -24 + ^ x22: .cfa -32 + ^ x23: .cfa -40 + ^ x24: .cfa -48 + ^ x25: .cfa -56 + ^ x26: .cfa -64 + ^ x27: .cfa -72 + ^ x28: .cfa -80 + ^ .ra: .cfa -88 + ^ x29: .cfa -96 + ^
STACK CFI 27250 .cfa: sp 224 +
STACK CFI 2726c .cfa: sp 0 +
STACK CFI 27270 .cfa: x29 96 +
STACK CFI INIT 27354 be4 .cfa: sp 0 +
STACK CFI 27358 .cfa: sp 176 +
STACK CFI 2736c .cfa: x29 64 + x19: .cfa -8 + ^ x20: .cfa -16 + ^ x21: .cfa -24 + ^ x22: .cfa -32 + ^ x23: .cfa -40 + ^ x24: .cfa -48 + ^ .ra: .cfa -56 + ^ x29: .cfa -64 + ^
STACK CFI 27c28 .cfa: sp 176 +
STACK CFI 27c3c .cfa: sp 0 +
STACK CFI 27c40 .cfa: x29 64 +
STACK CFI INIT 27f88 74 .cfa: sp 0 +
STACK CFI 27f8c .cfa: sp 48 +
STACK CFI 27f98 .cfa: x29 32 + x19: .cfa -8 + ^ x20: .cfa -16 + ^ .ra: .cfa -24 + ^ x29: .cfa -32 + ^
STACK CFI 27fe4 .cfa: sp 48 +
STACK CFI 27ff0 .cfa: sp 0 +
STACK CFI 27ff4 .cfa: x29 32 +
STACK CFI INIT 2807c 154 .cfa: sp 0 +
STACK CFI 28080 .cfa: sp 384 +
STACK CFI 28094 .cfa: x29 64 + x19: .cfa -8 + ^ x20: .cfa -16 + ^ x21: .cfa -24 + ^ x22: .cfa -32 + ^ x23: .cfa -40 + ^ x28: .cfa -48 + ^ .ra: .cfa -56 + ^ x29: .cfa -64 + ^
STACK CFI 28178 .cfa: sp 384 +
STACK CFI 2818c .cfa: sp 0 +
STACK CFI 28190 .cfa: x29 64 +
STACK CFI INIT 28204 12c .cfa: sp 0 +
STACK CFI 28208 .cfa: sp 80 +
STACK CFI 2821c .cfa: x29 80 + x19: .cfa -8 + ^ x20: .cfa -16 + ^ x21: .cfa -24 + ^ x22: .cfa -32 + ^ x23: .cfa -40 + ^ x24: .cfa -48 + ^ x25: .cfa -56 + ^ x26: .cfa -64 + ^ .ra: .cfa -72 + ^ x29: .cfa -80 + ^
STACK CFI 282e4 .cfa: sp 80 +
STACK CFI 282f8 .cfa: sp 0 +
STACK CFI 282fc .cfa: x29 80 +
STACK CFI INIT 283d4 1a4 .cfa: sp 0 +
STACK CFI 283d8 .cfa: sp 112 +
STACK CFI 283f0 .cfa: x29 80 + x19: .cfa -8 + ^ x20: .cfa -16 + ^ x21: .cfa -24 + ^ x22: .cfa -32 + ^ x23: .cfa -40 + ^ x24: .cfa -48 + ^ x25: .cfa -56 + ^ x26: .cfa -64 + ^ .ra: .cfa -72 + ^ x29: .cfa -80 + ^
STACK CFI 284e0 .cfa: sp 112 +
STACK CFI 284f8 .cfa: sp 0 +
STACK CFI 284fc .cfa: x29 80 +
STACK CFI INIT 28578 1dc .cfa: sp 0 +
STACK CFI 2857c .cfa: sp 128 +
STACK CFI 28598 .cfa: x29 96 + x19: .cfa -8 + ^ x20: .cfa -16 + ^ x21: .cfa -24 + ^ x22: .cfa -32 + ^ x23: .cfa -40 + ^ x24: .cfa -48 + ^ x25: .cfa -56 + ^ x26: .cfa -64 + ^ x27: .cfa -80 + ^ .ra: .cfa -88 + ^ x29: .cfa -96 + ^
STACK CFI 28704 .cfa: sp 128 +
STACK CFI 28720 .cfa: sp 0 +
STACK CFI 28724 .cfa: x29 96 +
STACK CFI INIT 28754 178 .cfa: sp 0 +
STACK CFI 28758 .cfa: sp 80 +
STACK CFI 2876c .cfa: x29 80 + x19: .cfa -8 + ^ x20: .cfa -16 + ^ x21: .cfa -24 + ^ x22: .cfa -32 + ^ x23: .cfa -40 + ^ x24: .cfa -48 + ^ x25: .cfa -64 + ^ .ra: .cfa -72 + ^ x29: .cfa -80 + ^
STACK CFI 28898 .cfa: sp 80 +
STACK CFI 288ac .cfa: sp 0 +
STACK CFI 288b0 .cfa: x29 80 +
STACK CFI INIT 28a14 228 .cfa: sp 0 +
STACK CFI 28a18 .cfa: sp 128 +
STACK CFI 28a30 .cfa: x29 80 + x19: .cfa -8 + ^ x20: .cfa -16 + ^ x21: .cfa -24 + ^ x22: .cfa -32 + ^ x23: .cfa -40 + ^ x24: .cfa -48 + ^ x25: .cfa -64 + ^ .ra: .cfa -72 + ^ x29: .cfa -80 + ^
STACK CFI 28bcc .cfa: sp 128 +
STACK CFI 28be4 .cfa: sp 0 +
STACK CFI 28be8 .cfa: x29 80 +
STACK CFI INIT 29398 184 .cfa: sp 0 +
STACK CFI 2939c .cfa: sp 160 +
STACK CFI 293b4 .cfa: x29 80 + x19: .cfa -8 + ^ x20: .cfa -16 + ^ x21: .cfa -24 + ^ x22: .cfa -32 + ^ x23: .cfa -40 + ^ x24: .cfa -48 + ^ x25: .cfa -56 + ^ x26: .cfa -64 + ^ .ra: .cfa -72 + ^ x29: .cfa -80 + ^
STACK CFI 294b4 .cfa: sp 160 +
STACK CFI 294cc .cfa: sp 0 +
STACK CFI 294d0 .cfa: x29 80 +
STACK CFI INIT 29520 184 .cfa: sp 0 +
STACK CFI 29524 .cfa: sp 160 +
STACK CFI 2953c .cfa: x29 80 + x19: .cfa -8 + ^ x20: .cfa -16 + ^ x21: .cfa -24 + ^ x22: .cfa -32 + ^ x23: .cfa -40 + ^ x24: .cfa -48 + ^ x25: .cfa -56 + ^ x26: .cfa -64 + ^ .ra: .cfa -72 + ^ x29: .cfa -80 + ^
STACK CFI 2963c .cfa: sp 160 +
STACK CFI 29654 .cfa: sp 0 +
STACK CFI 29658 .cfa: x29 80 +
STACK CFI INIT 2974c 134 .cfa: sp 0 +
STACK CFI 29750 .cfa: sp 128 +
STACK CFI 29764 .cfa: x29 64 + x19: .cfa -8 + ^ x20: .cfa -16 + ^ x21: .cfa -24 + ^ x22: .cfa -32 + ^ x23: .cfa -40 + ^ x24: .cfa -48 + ^ .ra: .cfa -56 + ^ x29: .cfa -64 + ^
STACK CFI 29830 .cfa: sp 128 +
STACK CFI 29844 .cfa: sp 0 +
STACK CFI 29848 .cfa: x29 64 +
STACK CFI INIT 298ac 184 .cfa: sp 0 +
STACK CFI 298b0 .cfa: sp 160 +
STACK CFI 298c8 .cfa: x29 80 + x19: .cfa -8 + ^ x20: .cfa -16 + ^ x21: .cfa -24 + ^ x22: .cfa -32 + ^ x23: .cfa -40 + ^ x24: .cfa -48 + ^ x25: .cfa -56 + ^ x26: .cfa -64 + ^ .ra: .cfa -72 + ^ x29: .cfa -80 + ^
STACK CFI 299c8 .cfa: sp 160 +
STACK CFI 299e0 .cfa: sp 0 +
STACK CFI 299e4 .cfa: x29 80 +
STACK CFI INIT 29eb4 3fc .cfa: sp 0 +
STACK CFI 29eb8 .cfa: sp 224 +
STACK CFI 29ed4 .cfa: x29 96 + x19: .cfa -8 + ^ x20: .cfa -16 + ^ x21: .cfa -24 + ^ x22: .cfa -32 + ^ x23: .cfa -40 + ^ x24: .cfa -48 + ^ x25: .cfa -56 + ^ x26: .cfa -64 + ^ x27: .cfa -72 + ^ x28: .cfa -80 + ^ .ra: .cfa -88 + ^ x29: .cfa -96 + ^
STACK CFI 2a1ac .cfa: sp 224 +
STACK CFI 2a1c8 .cfa: sp 0 +
STACK CFI 2a1cc .cfa: x29 96 +
STACK CFI INIT 2a2b0 440 .cfa: sp 0 +
STACK CFI 2a2b4 .cfa: sp 144 +
STACK CFI 2a2c8 .cfa: x29 64 + x19: .cfa -8 + ^ x20: .cfa -16 + ^ x21: .cfa -24 + ^ x22: .cfa -32 + ^ x23: .cfa -40 + ^ x24: .cfa -48 + ^ .ra: .cfa -56 + ^ x29: .cfa -64 + ^
STACK CFI 2a5b0 .cfa: sp 144 +
STACK CFI 2a5c4 .cfa: sp 0 +
STACK CFI 2a5c8 .cfa: x29 64 +
STACK CFI INIT 2a6f4 118 .cfa: sp 0 +
STACK CFI 2a6f8 .cfa: sp 144 +
STACK CFI 2a710 .cfa: x29 80 + x19: .cfa -8 + ^ x20: .cfa -16 + ^ x21: .cfa -24 + ^ x22: .cfa -32 + ^ x23: .cfa -40 + ^ x24: .cfa -48 + ^ x25: .cfa -64 + ^ .ra: .cfa -72 + ^ x29: .cfa -80 + ^
STACK CFI 2a7b8 .cfa: sp 144 +
STACK CFI 2a7d0 .cfa: sp 0 +
STACK CFI 2a7d4 .cfa: x29 80 +
STACK CFI INIT 2a810 134 .cfa: sp 0 +
STACK CFI 2a814 .cfa: sp 128 +
STACK CFI 2a828 .cfa: x29 64 + x19: .cfa -8 + ^ x20: .cfa -16 + ^ x21: .cfa -24 + ^ x22: .cfa -32 + ^ x23: .cfa -40 + ^ x24: .cfa -48 + ^ .ra: .cfa -56 + ^ x29: .cfa -64 + ^
STACK CFI 2a8f4 .cfa: sp 128 +
STACK CFI 2a908 .cfa: sp 0 +
STACK CFI 2a90c .cfa: x29 64 +
STACK CFI INIT 2a948 2b4 .cfa: sp 0 +
STACK CFI 2a94c .cfa: sp 112 +
STACK CFI 2a964 .cfa: x29 80 + x19: .cfa -8 + ^ x20: .cfa -16 + ^ x21: .cfa -24 + ^ x22: .cfa -32 + ^ x23: .cfa -40 + ^ x24: .cfa -48 + ^ x25: .cfa -64 + ^ .ra: .cfa -72 + ^ x29: .cfa -80 + ^
STACK CFI 2ab98 .cfa: sp 112 +
STACK CFI 2abb0 .cfa: sp 0 +
STACK CFI 2abb4 .cfa: x29 80 +
STACK CFI INIT 2ad00 634 .cfa: sp 0 +
STACK CFI 2ad04 .cfa: sp 288 +
STACK CFI 2ad20 .cfa: x29 96 + x19: .cfa -8 + ^ x20: .cfa -16 + ^ x21: .cfa -24 + ^ x22: .cfa -32 + ^ x23: .cfa -40 + ^ x24: .cfa -48 + ^ x25: .cfa -56 + ^ x26: .cfa -64 + ^ x28: .cfa -80 + ^ .ra: .cfa -88 + ^ x29: .cfa -96 + ^
STACK CFI 2b160 .cfa: sp 288 +
STACK CFI 2b17c .cfa: sp 0 +
STACK CFI 2b180 .cfa: x29 96 +
STACK CFI INIT 2b338 228 .cfa: sp 0 +
STACK CFI 2b33c .cfa: sp 96 +
STACK CFI 2b350 .cfa: x29 64 + x19: .cfa -8 + ^ x20: .cfa -16 + ^ x21: .cfa -24 + ^ x22: .cfa -32 + ^ x23: .cfa -48 + ^ .ra: .cfa -56 + ^ x29: .cfa -64 + ^
STACK CFI 2b518 .cfa: sp 96 +
STACK CFI 2b52c .cfa: sp 0 +
STACK CFI 2b530 .cfa: x29 64 +
STACK CFI INIT 2b690 248 .cfa: sp 0 +
STACK CFI 2b694 .cfa: sp 160 +
STACK CFI 2b6a8 .cfa: x29 64 + x19: .cfa -8 + ^ x20: .cfa -16 + ^ x21: .cfa -24 + ^ x22: .cfa -32 + ^ x23: .cfa -48 + ^ .ra: .cfa -56 + ^ x29: .cfa -64 + ^
STACK CFI 2b860 .cfa: sp 160 +
STACK CFI 2b874 .cfa: sp 0 +
STACK CFI 2b878 .cfa: x29 64 +
STACK CFI INIT 2b8d8 2dc .cfa: sp 0 +
STACK CFI 2b8dc .cfa: sp 160 +
STACK CFI 2b8f0 .cfa: x29 64 + x19: .cfa -8 + ^ x20: .cfa -16 + ^ x21: .cfa -24 + ^ x22: .cfa -32 + ^ x23: .cfa -48 + ^ .ra: .cfa -56 + ^ x29: .cfa -64 + ^
STACK CFI 2b97c .cfa: sp 160 +
STACK CFI 2b990 .cfa: sp 0 +
STACK CFI 2b994 .cfa: x29 64 +
STACK CFI INIT 2bbb4 170 .cfa: sp 0 +
STACK CFI 2bbb8 .cfa: sp 80 +
STACK CFI 2bbc8 .cfa: x29 48 + x19: .cfa -8 + ^ x20: .cfa -16 + ^ x21: .cfa -32 + ^ .ra: .cfa -40 + ^ x29: .cfa -48 + ^
STACK CFI 2bce8 .cfa: sp 80 +
STACK CFI 2bcf8 .cfa: sp 0 +
STACK CFI 2bcfc .cfa: x29 48 +
STACK CFI INIT 2bd74 dc .cfa: sp 0 +
STACK CFI 2bd78 .cfa: sp 80 +
STACK CFI 2bd88 .cfa: x29 48 + x19: .cfa -8 + ^ x20: .cfa -16 + ^ x21: .cfa -32 + ^ .ra: .cfa -40 + ^ x29: .cfa -48 + ^
STACK CFI 2be14 .cfa: sp 80 +
STACK CFI 2be24 .cfa: sp 0 +
STACK CFI 2be28 .cfa: x29 48 +
STACK CFI INIT 2be50 e0 .cfa: sp 0 +
STACK CFI 2be54 .cfa: sp 80 +
STACK CFI 2be64 .cfa: x29 48 + x19: .cfa -8 + ^ x20: .cfa -16 + ^ x21: .cfa -32 + ^ .ra: .cfa -40 + ^ x29: .cfa -48 + ^
STACK CFI 2bef4 .cfa: sp 80 +
STACK CFI 2bf04 .cfa: sp 0 +
STACK CFI 2bf08 .cfa: x29 48 +
STACK CFI INIT 2bf30 27c .cfa: sp 0 +
STACK CFI 2bf34 .cfa: sp 160 +
STACK CFI 2bf48 .cfa: x29 64 + x19: .cfa -8 + ^ x20: .cfa -16 + ^ x21: .cfa -24 + ^ x22: .cfa -32 + ^ x23: .cfa -40 + ^ x24: .cfa -48 + ^ .ra: .cfa -56 + ^ x29: .cfa -64 + ^
STACK CFI 2c134 .cfa: sp 160 +
STACK CFI 2c148 .cfa: sp 0 +
STACK CFI 2c14c .cfa: x29 64 +
STACK CFI INIT 2c1ac 248 .cfa: sp 0 +
STACK CFI 2c1b0 .cfa: sp 160 +
STACK CFI 2c1c4 .cfa: x29 64 + x19: .cfa -8 + ^ x20: .cfa -16 + ^ x21: .cfa -24 + ^ x22: .cfa -32 + ^ x23: .cfa -48 + ^ .ra: .cfa -56 + ^ x29: .cfa -64 + ^
STACK CFI 2c2f8 .cfa: sp 160 +
STACK CFI 2c30c .cfa: sp 0 +
STACK CFI 2c310 .cfa: x29 64 +
STACK CFI INIT 2c444 2b8 .cfa: sp 0 +
STACK CFI 2c448 .cfa: sp 160 +
STACK CFI 2c464 .cfa: x29 96 + x19: .cfa -8 + ^ x20: .cfa -16 + ^ x21: .cfa -24 + ^ x22: .cfa -32 + ^ x23: .cfa -40 + ^ x24: .cfa -48 + ^ x25: .cfa -56 + ^ x26: .cfa -64 + ^ x27: .cfa -72 + ^ x28: .cfa -80 + ^ .ra: .cfa -88 + ^ x29: .cfa -96 + ^
STACK CFI 2c49c .cfa: sp 160 +
STACK CFI 2c4b8 .cfa: sp 0 +
STACK CFI 2c4bc .cfa: x29 96 +
STACK CFI INIT 2c6fc 114 .cfa: sp 0 +
STACK CFI 2c700 .cfa: sp 64 +
STACK CFI 2c710 .cfa: x29 64 + x19: .cfa -8 + ^ x20: .cfa -16 + ^ x21: .cfa -24 + ^ x22: .cfa -32 + ^ x23: .cfa -48 + ^ .ra: .cfa -56 + ^ x29: .cfa -64 + ^
STACK CFI 2c7ec .cfa: sp 64 +
STACK CFI 2c7fc .cfa: sp 0 +
STACK CFI 2c800 .cfa: x29 64 +
STACK CFI INIT 2c8cc 22c .cfa: sp 0 +
STACK CFI 2c8d0 .cfa: sp 96 +
STACK CFI 2c8e8 .cfa: x29 96 + x19: .cfa -8 + ^ x20: .cfa -16 + ^ x21: .cfa -24 + ^ x22: .cfa -32 + ^ x23: .cfa -40 + ^ x24: .cfa -48 + ^ x25: .cfa -56 + ^ x26: .cfa -64 + ^ x27: .cfa -80 + ^ .ra: .cfa -88 + ^ x29: .cfa -96 + ^
STACK CFI 2ca8c .cfa: sp 96 +
STACK CFI 2caa4 .cfa: sp 0 +
STACK CFI 2caa8 .cfa: x29 96 +
STACK CFI INIT 2cb20 50 .cfa: sp 0 +
STACK CFI 2cb24 .cfa: sp 32 +
STACK CFI 2cb2c .cfa: x29 32 + x19: .cfa -8 + ^ x20: .cfa -16 + ^ .ra: .cfa -24 + ^ x29: .cfa -32 + ^
STACK CFI INIT 2cc54 1cc .cfa: sp 0 +
STACK CFI 2cc58 .cfa: sp 128 +
STACK CFI 2cc68 .cfa: x29 48 + x19: .cfa -8 + ^ x20: .cfa -16 + ^ x21: .cfa -32 + ^ .ra: .cfa -40 + ^ x29: .cfa -48 + ^
STACK CFI 2cda4 .cfa: sp 128 +
STACK CFI 2cdb4 .cfa: sp 0 +
STACK CFI 2cdb8 .cfa: x29 48 +
STACK CFI INIT 2cfb4 21c .cfa: sp 0 +
STACK CFI 2cfb8 .cfa: sp 192 +
STACK CFI 2cfcc .cfa: x29 64 + x19: .cfa -8 + ^ x20: .cfa -16 + ^ x21: .cfa -24 + ^ x22: .cfa -32 + ^ x23: .cfa -48 + ^ .ra: .cfa -56 + ^ x29: .cfa -64 + ^
STACK CFI 2d10c .cfa: sp 192 +
STACK CFI 2d120 .cfa: sp 0 +
STACK CFI 2d124 .cfa: x29 64 +
STACK CFI INIT 2d4bc 1d0 .cfa: sp 0 +
STACK CFI 2d4c0 .cfa: sp 128 +
STACK CFI 2d4d4 .cfa: x29 64 + x19: .cfa -8 + ^ x20: .cfa -16 + ^ x21: .cfa -24 + ^ x22: .cfa -32 + ^ x23: .cfa -48 + ^ .ra: .cfa -56 + ^ x29: .cfa -64 + ^
STACK CFI 2d64c .cfa: sp 128 +
STACK CFI 2d660 .cfa: sp 0 +
STACK CFI 2d664 .cfa: x29 64 +
STACK CFI INIT 2d9a8 1c4 .cfa: sp 0 +
STACK CFI 2d9ac .cfa: sp 112 +
STACK CFI 2d9bc .cfa: x29 48 + x19: .cfa -8 + ^ x20: .cfa -16 + ^ x21: .cfa -24 + ^ x22: .cfa -32 + ^ .ra: .cfa -40 + ^ x29: .cfa -48 + ^
STACK CFI 2db30 .cfa: sp 112 +
STACK CFI 2db40 .cfa: sp 0 +
STACK CFI 2db44 .cfa: x29 48 +
STACK CFI INIT 2db6c 170 .cfa: sp 0 +
STACK CFI 2db70 .cfa: sp 144 +
STACK CFI 2db84 .cfa: x29 64 + x19: .cfa -8 + ^ x20: .cfa -16 + ^ x21: .cfa -24 + ^ x22: .cfa -32 + ^ x23: .cfa -48 + ^ .ra: .cfa -56 + ^ x29: .cfa -64 + ^
STACK CFI 2dc5c .cfa: sp 144 +
STACK CFI 2dc70 .cfa: sp 0 +
STACK CFI 2dc74 .cfa: x29 64 +
STACK CFI INIT 2df58 1c4 .cfa: sp 0 +
STACK CFI 2df5c .cfa: sp 128 +
STACK CFI 2df6c .cfa: x29 48 + x19: .cfa -8 + ^ x20: .cfa -16 + ^ x21: .cfa -24 + ^ x22: .cfa -32 + ^ .ra: .cfa -40 + ^ x29: .cfa -48 + ^
STACK CFI 2e0d8 .cfa: sp 128 +
STACK CFI 2e0e8 .cfa: sp 0 +
STACK CFI 2e0ec .cfa: x29 48 +
STACK CFI INIT 2e1d4 198 .cfa: sp 0 +
STACK CFI 2e1d8 .cfa: sp 96 +
STACK CFI 2e1e8 .cfa: x29 48 + x19: .cfa -8 + ^ x20: .cfa -16 + ^ x21: .cfa -32 + ^ .ra: .cfa -40 + ^ x29: .cfa -48 + ^
STACK CFI 2e2c4 .cfa: sp 96 +
STACK CFI 2e2d4 .cfa: sp 0 +
STACK CFI 2e2d8 .cfa: x29 48 +
STACK CFI INIT 2e398 480 .cfa: sp 0 +
STACK CFI 2e39c .cfa: sp 224 +
STACK CFI 2e3b8 .cfa: x29 96 + x19: .cfa -8 + ^ x20: .cfa -16 + ^ x21: .cfa -24 + ^ x22: .cfa -32 + ^ x23: .cfa -40 + ^ x24: .cfa -48 + ^ x25: .cfa -56 + ^ x26: .cfa -64 + ^ x27: .cfa -80 + ^ .ra: .cfa -88 + ^ x29: .cfa -96 + ^
STACK CFI 2e624 .cfa: sp 224 +
STACK CFI 2e640 .cfa: sp 0 +
STACK CFI 2e644 .cfa: x29 96 +
STACK CFI 2e710 .cfa: sp 224 +
STACK CFI 2e72c .cfa: sp 0 +
STACK CFI 2e730 .cfa: x29 96 +
STACK CFI INIT 2e834 330 .cfa: sp 0 +
STACK CFI 2e838 .cfa: sp 224 +
STACK CFI 2e84c .cfa: x29 64 + x19: .cfa -8 + ^ x20: .cfa -16 + ^ x21: .cfa -24 + ^ x22: .cfa -32 + ^ x23: .cfa -48 + ^ .ra: .cfa -56 + ^ x29: .cfa -64 + ^
STACK CFI 2ea54 .cfa: sp 224 +
STACK CFI 2ea68 .cfa: sp 0 +
STACK CFI 2ea6c .cfa: x29 64 +
STACK CFI INIT 2eb68 1dc .cfa: sp 0 +
STACK CFI 2eb6c .cfa: sp 80 +
STACK CFI 2eb7c .cfa: x29 48 + x19: .cfa -8 + ^ x20: .cfa -16 + ^ x21: .cfa -32 + ^ .ra: .cfa -40 + ^ x29: .cfa -48 + ^
STACK CFI 2ed00 .cfa: sp 80 +
STACK CFI 2ed10 .cfa: sp 0 +
STACK CFI 2ed14 .cfa: x29 48 +
STACK CFI INIT 2ed44 a8 .cfa: sp 0 +
STACK CFI 2ed48 .cfa: sp 32 +
STACK CFI 2ed50 .cfa: x29 32 + x19: .cfa -16 + ^ .ra: .cfa -24 + ^ x29: .cfa -32 + ^
STACK CFI 2ed84 .cfa: sp 32 +
STACK CFI 2ed8c .cfa: sp 0 +
STACK CFI 2ed90 .cfa: x29 32 +
STACK CFI 2ed94 .cfa: sp 32 +
STACK CFI 2ed9c .cfa: sp 0 +
STACK CFI 2eda0 .cfa: x29 32 +
STACK CFI INIT 2f064 25c .cfa: sp 0 +
STACK CFI 2f068 .cfa: sp 96 +
STACK CFI 2f07c .cfa: x29 64 + x19: .cfa -8 + ^ x20: .cfa -16 + ^ x21: .cfa -24 + ^ x22: .cfa -32 + ^ x23: .cfa -40 + ^ x24: .cfa -48 + ^ .ra: .cfa -56 + ^ x29: .cfa -64 + ^
STACK CFI 2f108 .cfa: sp 96 +
STACK CFI 2f11c .cfa: sp 0 +
STACK CFI 2f120 .cfa: x29 64 +
STACK CFI INIT 2f2c0 18c .cfa: sp 0 +
STACK CFI 2f2c4 .cfa: sp 112 +
STACK CFI 2f2d4 .cfa: x29 48 + x19: .cfa -8 + ^ x20: .cfa -16 + ^ x21: .cfa -32 + ^ .ra: .cfa -40 + ^ x29: .cfa -48 + ^
STACK CFI 2f3a4 .cfa: sp 112 +
STACK CFI 2f3b4 .cfa: sp 0 +
STACK CFI 2f3b8 .cfa: x29 48 +
STACK CFI INIT 2f450 440 .cfa: sp 0 +
STACK CFI 2f454 .cfa: sp 96 +
STACK CFI 2f46c .cfa: x29 96 + x19: .cfa -8 + ^ x20: .cfa -16 + ^ x21: .cfa -24 + ^ x22: .cfa -32 + ^ x23: .cfa -40 + ^ x24: .cfa -48 + ^ x25: .cfa -56 + ^ x26: .cfa -64 + ^ x28: .cfa -80 + ^ .ra: .cfa -88 + ^ x29: .cfa -96 + ^
STACK CFI 2f7cc .cfa: sp 96 +
STACK CFI 2f7e4 .cfa: sp 0 +
STACK CFI 2f7e8 .cfa: x29 96 +
STACK CFI INIT 2f8e8 22c .cfa: sp 0 +
STACK CFI 2f8ec .cfa: sp 80 +
STACK CFI 2f900 .cfa: x29 80 + x19: .cfa -8 + ^ x20: .cfa -16 + ^ x21: .cfa -24 + ^ x22: .cfa -32 + ^ x23: .cfa -40 + ^ x24: .cfa -48 + ^ x28: .cfa -64 + ^ .ra: .cfa -72 + ^ x29: .cfa -80 + ^
STACK CFI 2fa5c .cfa: sp 80 +
STACK CFI 2fa70 .cfa: sp 0 +
STACK CFI 2fa74 .cfa: x29 80 +
STACK CFI INIT 2fb40 1a0 .cfa: sp 0 +
STACK CFI 2fb44 .cfa: sp 128 +
STACK CFI 2fb54 .cfa: x29 48 + x19: .cfa -8 + ^ x20: .cfa -16 + ^ x21: .cfa -32 + ^ .ra: .cfa -40 + ^ x29: .cfa -48 + ^
STACK CFI 2fc5c .cfa: sp 128 +
STACK CFI 2fc6c .cfa: sp 0 +
STACK CFI 2fc70 .cfa: x29 48 +
STACK CFI INIT 2fe30 ac .cfa: sp 0 +
STACK CFI 2fe34 .cfa: sp 48 +
STACK CFI 2fe40 .cfa: x29 48 + x19: .cfa -8 + ^ x20: .cfa -16 + ^ x21: .cfa -32 + ^ .ra: .cfa -40 + ^ x29: .cfa -48 + ^
STACK CFI 2fe80 .cfa: sp 48 +
STACK CFI 2fe8c .cfa: sp 0 +
STACK CFI 2fe90 .cfa: x29 48 +
STACK CFI INIT 2fedc 278 .cfa: sp 0 +
STACK CFI 2fee0 .cfa: sp 224 +
STACK CFI 2fef8 .cfa: x29 80 + x19: .cfa -8 + ^ x20: .cfa -16 + ^ x21: .cfa -24 + ^ x22: .cfa -32 + ^ x23: .cfa -40 + ^ x24: .cfa -48 + ^ x25: .cfa -64 + ^ .ra: .cfa -72 + ^ x29: .cfa -80 + ^
STACK CFI 300c0 .cfa: sp 224 +
STACK CFI 300d8 .cfa: sp 0 +
STACK CFI 300dc .cfa: x29 80 +
STACK CFI INIT 30154 114 .cfa: sp 0 +
STACK CFI 30158 .cfa: sp 80 +
STACK CFI 3016c .cfa: x29 80 + x19: .cfa -8 + ^ x20: .cfa -16 + ^ x21: .cfa -24 + ^ x22: .cfa -32 + ^ x23: .cfa -40 + ^ x24: .cfa -48 + ^ x25: .cfa -64 + ^ .ra: .cfa -72 + ^ x29: .cfa -80 + ^
STACK CFI 30208 .cfa: sp 80 +
STACK CFI 3021c .cfa: sp 0 +
STACK CFI 30220 .cfa: x29 80 +
STACK CFI INIT 30268 174 .cfa: sp 0 +
STACK CFI 3026c .cfa: sp 96 +
STACK CFI 30280 .cfa: x29 64 + x19: .cfa -8 + ^ x20: .cfa -16 + ^ x21: .cfa -24 + ^ x22: .cfa -32 + ^ x23: .cfa -48 + ^ .ra: .cfa -56 + ^ x29: .cfa -64 + ^
STACK CFI 30358 .cfa: sp 96 +
STACK CFI 3036c .cfa: sp 0 +
STACK CFI 30370 .cfa: x29 64 +
STACK CFI INIT 30498 98 .cfa: sp 0 +
STACK CFI 3049c .cfa: sp 32 +
STACK CFI 304a4 .cfa: x29 32 + x19: .cfa -8 + ^ x20: .cfa -16 + ^ .ra: .cfa -24 + ^ x29: .cfa -32 + ^
STACK CFI 304dc .cfa: sp 32 +
STACK CFI 304e4 .cfa: sp 0 +
STACK CFI 304e8 .cfa: x29 32 +
STACK CFI INIT 30530 a0 .cfa: sp 0 +
STACK CFI 30534 .cfa: sp 48 +
STACK CFI 30540 .cfa: x29 32 + x19: .cfa -8 + ^ x20: .cfa -16 + ^ .ra: .cfa -24 + ^ x29: .cfa -32 + ^
STACK CFI 30594 .cfa: sp 48 +
STACK CFI 305a0 .cfa: sp 0 +
STACK CFI 305a4 .cfa: x29 32 +
STACK CFI INIT 3060c 3e0 .cfa: sp 0 +
STACK CFI 30610 .cfa: sp 80 +
STACK CFI 30624 .cfa: x29 80 + x19: .cfa -8 + ^ x20: .cfa -16 + ^ x21: .cfa -24 + ^ x22: .cfa -32 + ^ x23: .cfa -40 + ^ x24: .cfa -48 + ^ x25: .cfa -56 + ^ x28: .cfa -64 + ^ .ra: .cfa -72 + ^ x29: .cfa -80 + ^
STACK CFI 308ec .cfa: sp 80 +
STACK CFI 30900 .cfa: sp 0 +
STACK CFI 30904 .cfa: x29 80 +
STACK CFI INIT 309ec 170 .cfa: sp 0 +
STACK CFI 309f0 .cfa: sp 160 +
STACK CFI 30a04 .cfa: x29 64 + x19: .cfa -8 + ^ x20: .cfa -16 + ^ x21: .cfa -24 + ^ x22: .cfa -32 + ^ x23: .cfa -48 + ^ .ra: .cfa -56 + ^ x29: .cfa -64 + ^
STACK CFI 30ae4 .cfa: sp 160 +
STACK CFI 30af8 .cfa: sp 0 +
STACK CFI 30afc .cfa: x29 64 +
STACK CFI INIT 30c7c cc .cfa: sp 0 +
STACK CFI 30c80 .cfa: sp 64 +
STACK CFI 30c8c .cfa: x29 32 + x19: .cfa -8 + ^ x20: .cfa -16 + ^ .ra: .cfa -24 + ^ x29: .cfa -32 + ^
STACK CFI 30d10 .cfa: sp 64 +
STACK CFI 30d1c .cfa: sp 0 +
STACK CFI 30d20 .cfa: x29 32 +
STACK CFI INIT 30d70 150 .cfa: sp 0 +
STACK CFI 30d74 .cfa: sp 160 +
STACK CFI 30d88 .cfa: x29 64 + x19: .cfa -8 + ^ x20: .cfa -16 + ^ x21: .cfa -24 + ^ x22: .cfa -32 + ^ x23: .cfa -48 + ^ .ra: .cfa -56 + ^ x29: .cfa -64 + ^
STACK CFI 30e48 .cfa: sp 160 +
STACK CFI 30e5c .cfa: sp 0 +
STACK CFI 30e60 .cfa: x29 64 +
STACK CFI INIT 3115c 1bc .cfa: sp 0 +
STACK CFI 31160 .cfa: sp 144 +
STACK CFI 31174 .cfa: x29 64 + x19: .cfa -8 + ^ x20: .cfa -16 + ^ x21: .cfa -24 + ^ x22: .cfa -32 + ^ x23: .cfa -48 + ^ .ra: .cfa -56 + ^ x29: .cfa -64 + ^
STACK CFI 312d0 .cfa: sp 144 +
STACK CFI 312e4 .cfa: sp 0 +
STACK CFI 312e8 .cfa: x29 64 +
STACK CFI INIT 31468 fc .cfa: sp 0 +
STACK CFI 3146c .cfa: sp 80 +
STACK CFI 3147c .cfa: x29 48 + x19: .cfa -8 + ^ x20: .cfa -16 + ^ x21: .cfa -24 + ^ x22: .cfa -32 + ^ .ra: .cfa -40 + ^ x29: .cfa -48 + ^
STACK CFI 314f8 .cfa: sp 80 +
STACK CFI 31508 .cfa: sp 0 +
STACK CFI 3150c .cfa: x29 48 +
STACK CFI INIT 31800 1d4 .cfa: sp 0 +
STACK CFI 31804 .cfa: sp 144 +
STACK CFI 31818 .cfa: x29 64 + x19: .cfa -8 + ^ x20: .cfa -16 + ^ x21: .cfa -24 + ^ x22: .cfa -32 + ^ x23: .cfa -48 + ^ .ra: .cfa -56 + ^ x29: .cfa -64 + ^
STACK CFI 3198c .cfa: sp 144 +
STACK CFI 319a0 .cfa: sp 0 +
STACK CFI 319a4 .cfa: x29 64 +
STACK CFI INIT 31ad0 2bc .cfa: sp 0 +
STACK CFI 31ad4 .cfa: sp 192 +
STACK CFI 31ae8 .cfa: x29 64 + x19: .cfa -8 + ^ x20: .cfa -16 + ^ x21: .cfa -24 + ^ x22: .cfa -32 + ^ x23: .cfa -40 + ^ x24: .cfa -48 + ^ .ra: .cfa -56 + ^ x29: .cfa -64 + ^
STACK CFI 31cd4 .cfa: sp 192 +
STACK CFI 31ce8 .cfa: sp 0 +
STACK CFI 31cec .cfa: x29 64 +
STACK CFI INIT 31f28 174 .cfa: sp 0 +
STACK CFI 31f2c .cfa: sp 80 +
STACK CFI 31f3c .cfa: x29 48 + x19: .cfa -8 + ^ x20: .cfa -16 + ^ x21: .cfa -32 + ^ .ra: .cfa -40 + ^ x29: .cfa -48 + ^
STACK CFI 32060 .cfa: sp 80 +
STACK CFI 32070 .cfa: sp 0 +
STACK CFI 32074 .cfa: x29 48 +
STACK CFI INIT 3209c 980 .cfa: sp 0 +
STACK CFI 320a0 .cfa: sp 272 +
STACK CFI 320c0 .cfa: x29 96 + x19: .cfa -8 + ^ x20: .cfa -16 + ^ x21: .cfa -24 + ^ x22: .cfa -32 + ^ x23: .cfa -40 + ^ x24: .cfa -48 + ^ x25: .cfa -56 + ^ x26: .cfa -64 + ^ x27: .cfa -72 + ^ x28: .cfa -80 + ^ .ra: .cfa -88 + ^ x29: .cfa -96 + ^ v8: .cfa -112 + ^
STACK CFI 328d8 .cfa: sp 272 +
STACK CFI 328f8 .cfa: sp 0 +
STACK CFI 328fc .cfa: x29 96 +
STACK CFI INIT 32cd8 174 .cfa: sp 0 +
STACK CFI 32cdc .cfa: sp 96 +
STACK CFI 32cec .cfa: x29 48 + x19: .cfa -8 + ^ x20: .cfa -16 + ^ x21: .cfa -32 + ^ .ra: .cfa -40 + ^ x29: .cfa -48 + ^
STACK CFI 32de8 .cfa: sp 96 +
STACK CFI 32df8 .cfa: sp 0 +
STACK CFI 32dfc .cfa: x29 48 +
STACK CFI INIT 32e4c 53c .cfa: sp 0 +
STACK CFI 32e50 .cfa: sp 160 +
STACK CFI 32e70 .cfa: x29 96 + x19: .cfa -8 + ^ x20: .cfa -16 + ^ x21: .cfa -24 + ^ x22: .cfa -32 + ^ x23: .cfa -40 + ^ x24: .cfa -48 + ^ x25: .cfa -56 + ^ x26: .cfa -64 + ^ x27: .cfa -72 + ^ x28: .cfa -80 + ^ .ra: .cfa -88 + ^ x29: .cfa -96 + ^ v8: .cfa -112 + ^
STACK CFI 33314 .cfa: sp 160 +
STACK CFI 33334 .cfa: sp 0 +
STACK CFI 33338 .cfa: x29 96 +
STACK CFI INIT 33388 1c .cfa: sp 0 +
STACK CFI 3338c .cfa: sp 16 +
STACK CFI 33390 .cfa: x29 16 + .ra: .cfa -8 + ^ x29: .cfa -16 + ^
STACK CFI 33398 .cfa: sp 16 +
STACK CFI 3339c .cfa: sp 0 +
STACK CFI 333a0 .cfa: x29 16 +
STACK CFI INIT 333a4 cc .cfa: sp 0 +
STACK CFI 333a8 .cfa: sp 32 +
STACK CFI 333b0 .cfa: x29 32 + x19: .cfa -16 + ^ .ra: .cfa -24 + ^ x29: .cfa -32 + ^
STACK CFI 3345c .cfa: sp 32 +
STACK CFI 33464 .cfa: sp 0 +
STACK CFI 33468 .cfa: x29 32 +
STACK CFI INIT 33518 148 .cfa: sp 0 +
STACK CFI 3351c .cfa: sp 96 +
STACK CFI 3352c .cfa: x29 48 + x19: .cfa -8 + ^ x20: .cfa -16 + ^ x21: .cfa -32 + ^ .ra: .cfa -40 + ^ x29: .cfa -48 + ^
STACK CFI 33614 .cfa: sp 96 +
STACK CFI 33624 .cfa: sp 0 +
STACK CFI 33628 .cfa: x29 48 +
STACK CFI INIT 33690 6c .cfa: sp 0 +
STACK CFI 33694 .cfa: sp 32 +
STACK CFI 3369c .cfa: x29 32 + x19: .cfa -16 + ^ .ra: .cfa -24 + ^ x29: .cfa -32 + ^
STACK CFI 336ec .cfa: sp 32 +
STACK CFI 336f4 .cfa: sp 0 +
STACK CFI 336f8 .cfa: x29 32 +
STACK CFI INIT 33700 6c .cfa: sp 0 +
STACK CFI 33704 .cfa: sp 32 +
STACK CFI 3370c .cfa: x29 32 + x19: .cfa -16 + ^ .ra: .cfa -24 + ^ x29: .cfa -32 + ^
STACK CFI 3375c .cfa: sp 32 +
STACK CFI 33764 .cfa: sp 0 +
STACK CFI 33768 .cfa: x29 32 +
STACK CFI INIT 33b7c 12c .cfa: sp 0 +
STACK CFI 33b80 .cfa: sp 48 +
STACK CFI 33b8c .cfa: x29 48 + x19: .cfa -8 + ^ x20: .cfa -16 + ^ x21: .cfa -32 + ^ .ra: .cfa -40 + ^ x29: .cfa -48 + ^
STACK CFI 33c20 .cfa: sp 48 +
STACK CFI 33c2c .cfa: sp 0 +
STACK CFI 33c30 .cfa: x29 48 +
STACK CFI 33c78 .cfa: sp 48 +
STACK CFI 33c84 .cfa: sp 0 +
STACK CFI 33c88 .cfa: x29 48 +
STACK CFI INIT 33d24 174 .cfa: sp 0 +
STACK CFI 33d28 .cfa: sp 112 +
STACK CFI 33d38 .cfa: x29 48 + x19: .cfa -8 + ^ x20: .cfa -16 + ^ x21: .cfa -32 + ^ .ra: .cfa -40 + ^ x29: .cfa -48 + ^
STACK CFI 33e34 .cfa: sp 112 +
STACK CFI 33e44 .cfa: sp 0 +
STACK CFI 33e48 .cfa: x29 48 +
STACK CFI INIT 340f0 e8 .cfa: sp 0 +
STACK CFI 340f4 .cfa: sp 80 +
STACK CFI 34104 .cfa: x29 48 + x19: .cfa -8 + ^ x20: .cfa -16 + ^ x21: .cfa -24 + ^ x22: .cfa -32 + ^ .ra: .cfa -40 + ^ x29: .cfa -48 + ^
STACK CFI 3419c .cfa: sp 80 +
STACK CFI 341ac .cfa: sp 0 +
STACK CFI 341b0 .cfa: x29 48 +
STACK CFI INIT 341fc 174 .cfa: sp 0 +
STACK CFI 34200 .cfa: sp 80 +
STACK CFI 34210 .cfa: x29 48 + x19: .cfa -8 + ^ x20: .cfa -16 + ^ x21: .cfa -32 + ^ .ra: .cfa -40 + ^ x29: .cfa -48 + ^
STACK CFI 34334 .cfa: sp 80 +
STACK CFI 34344 .cfa: sp 0 +
STACK CFI 34348 .cfa: x29 48 +
STACK CFI INIT 34370 764 .cfa: sp 0 +
STACK CFI 34374 .cfa: sp 112 +
STACK CFI 34390 .cfa: x29 96 + x19: .cfa -8 + ^ x20: .cfa -16 + ^ x21: .cfa -24 + ^ x22: .cfa -32 + ^ x23: .cfa -40 + ^ x24: .cfa -48 + ^ x25: .cfa -56 + ^ x26: .cfa -64 + ^ x27: .cfa -72 + ^ x28: .cfa -80 + ^ .ra: .cfa -88 + ^ x29: .cfa -96 + ^ v8: .cfa -112 + ^
STACK CFI 349f8 .cfa: sp 112 +
STACK CFI 34a14 .cfa: sp 0 +
STACK CFI 34a18 .cfa: x29 96 +
STACK CFI INIT 34ad4 4ec .cfa: sp 0 +
STACK CFI 34ad8 .cfa: sp 96 +
STACK CFI 34af0 .cfa: x29 96 + x19: .cfa -8 + ^ x20: .cfa -16 + ^ x21: .cfa -24 + ^ x22: .cfa -32 + ^ x23: .cfa -40 + ^ x24: .cfa -48 + ^ x25: .cfa -56 + ^ x26: .cfa -64 + ^ x28: .cfa -80 + ^ .ra: .cfa -88 + ^ x29: .cfa -96 + ^
STACK CFI 34f28 .cfa: sp 96 +
STACK CFI 34f40 .cfa: sp 0 +
STACK CFI 34f44 .cfa: x29 96 +
STACK CFI INIT 34fc0 c4 .cfa: sp 0 +
STACK CFI 34fc4 .cfa: sp 64 +
STACK CFI 34fd0 .cfa: x29 32 + x19: .cfa -8 + ^ x20: .cfa -16 + ^ .ra: .cfa -24 + ^ x29: .cfa -32 + ^
STACK CFI 3504c .cfa: sp 64 +
STACK CFI 35058 .cfa: sp 0 +
STACK CFI 3505c .cfa: x29 32 +
STACK CFI INIT 35084 148 .cfa: sp 0 +
STACK CFI 35088 .cfa: sp 96 +
STACK CFI 35098 .cfa: x29 48 + x19: .cfa -8 + ^ x20: .cfa -16 + ^ x21: .cfa -32 + ^ .ra: .cfa -40 + ^ x29: .cfa -48 + ^
STACK CFI 35180 .cfa: sp 96 +
STACK CFI 35190 .cfa: sp 0 +
STACK CFI 35194 .cfa: x29 48 +
STACK CFI INIT 351cc 6c .cfa: sp 0 +
STACK CFI 351d0 .cfa: sp 32 +
STACK CFI 351d8 .cfa: x29 32 + x19: .cfa -16 + ^ .ra: .cfa -24 + ^ x29: .cfa -32 + ^
STACK CFI 35228 .cfa: sp 32 +
STACK CFI 35230 .cfa: sp 0 +
STACK CFI 35234 .cfa: x29 32 +
STACK CFI INIT 35238 74 .cfa: sp 0 +
STACK CFI 3523c .cfa: sp 32 +
STACK CFI 35244 .cfa: x29 32 + x19: .cfa -16 + ^ .ra: .cfa -24 + ^ x29: .cfa -32 + ^
STACK CFI 3529c .cfa: sp 32 +
STACK CFI 352a4 .cfa: sp 0 +
STACK CFI 352a8 .cfa: x29 32 +
STACK CFI INIT 35300 6c .cfa: sp 0 +
STACK CFI 35304 .cfa: sp 32 +
STACK CFI 3530c .cfa: x29 32 + x19: .cfa -16 + ^ .ra: .cfa -24 + ^ x29: .cfa -32 + ^
STACK CFI 3535c .cfa: sp 32 +
STACK CFI 35364 .cfa: sp 0 +
STACK CFI 35368 .cfa: x29 32 +
STACK CFI INIT 3536c 74 .cfa: sp 0 +
STACK CFI 35370 .cfa: sp 32 +
STACK CFI 35378 .cfa: x29 32 + x19: .cfa -16 + ^ .ra: .cfa -24 + ^ x29: .cfa -32 + ^
STACK CFI 353d0 .cfa: sp 32 +
STACK CFI 353d8 .cfa: sp 0 +
STACK CFI 353dc .cfa: x29 32 +
STACK CFI INIT 35410 6c .cfa: sp 0 +
STACK CFI 35414 .cfa: sp 32 +
STACK CFI 3541c .cfa: x29 32 + x19: .cfa -16 + ^ .ra: .cfa -24 + ^ x29: .cfa -32 + ^
STACK CFI 3546c .cfa: sp 32 +
STACK CFI 35474 .cfa: sp 0 +
STACK CFI 35478 .cfa: x29 32 +
STACK CFI INIT 354c0 284 .cfa: sp 0 +
STACK CFI 354c4 .cfa: sp 176 +
STACK CFI 354d4 .cfa: x29 48 + x19: .cfa -8 + ^ x20: .cfa -16 + ^ x21: .cfa -32 + ^ .ra: .cfa -40 + ^ x29: .cfa -48 + ^
STACK CFI 35690 .cfa: sp 176 +
STACK CFI 356a0 .cfa: sp 0 +
STACK CFI 356a4 .cfa: x29 48 +
STACK CFI INIT 35c4c 104 .cfa: sp 0 +
STACK CFI 35c50 .cfa: sp 80 +
STACK CFI 35c60 .cfa: x29 48 + x19: .cfa -8 + ^ x20: .cfa -16 + ^ x21: .cfa -32 + ^ .ra: .cfa -40 + ^ x29: .cfa -48 + ^
STACK CFI 35cd0 .cfa: sp 80 +
STACK CFI 35ce0 .cfa: sp 0 +
STACK CFI 35ce4 .cfa: x29 48 +
STACK CFI INIT 35dd8 134 .cfa: sp 0 +
STACK CFI 35ddc .cfa: sp 80 +
STACK CFI 35de8 .cfa: x29 32 + x19: .cfa -8 + ^ x20: .cfa -16 + ^ .ra: .cfa -24 + ^ x29: .cfa -32 + ^
STACK CFI 35e18 .cfa: sp 80 +
STACK CFI 35e24 .cfa: sp 0 +
STACK CFI 35e28 .cfa: x29 32 +
STACK CFI INIT 35f0c 78 .cfa: sp 0 +
STACK CFI 35f10 .cfa: sp 32 +
STACK CFI 35f18 .cfa: x29 32 + x19: .cfa -8 + ^ x20: .cfa -16 + ^ .ra: .cfa -24 + ^ x29: .cfa -32 + ^
STACK CFI 35f24 .cfa: sp 32 +
STACK CFI 35f2c .cfa: sp 0 +
STACK CFI 35f30 .cfa: x29 32 +
STACK CFI INIT 35f84 74 .cfa: sp 0 +
STACK CFI 35f88 .cfa: sp 48 +
STACK CFI 35f94 .cfa: x29 32 + x19: .cfa -8 + ^ x20: .cfa -16 + ^ .ra: .cfa -24 + ^ x29: .cfa -32 + ^
STACK CFI 35fe0 .cfa: sp 48 +
STACK CFI 35fec .cfa: sp 0 +
STACK CFI 35ff0 .cfa: x29 32 +
STACK CFI INIT 360f8 2d8 .cfa: sp 0 +
STACK CFI 360fc .cfa: sp 128 +
STACK CFI 36110 .cfa: x29 64 + x19: .cfa -8 + ^ x20: .cfa -16 + ^ x21: .cfa -24 + ^ x22: .cfa -32 + ^ x23: .cfa -48 + ^ .ra: .cfa -56 + ^ x29: .cfa -64 + ^
STACK CFI 3627c .cfa: sp 128 +
STACK CFI 36290 .cfa: sp 0 +
STACK CFI 36294 .cfa: x29 64 +
STACK CFI INIT 36424 250 .cfa: sp 0 +
STACK CFI 36428 .cfa: sp 112 +
STACK CFI 36438 .cfa: x29 48 + x19: .cfa -8 + ^ x20: .cfa -16 + ^ x21: .cfa -32 + ^ .ra: .cfa -40 + ^ x29: .cfa -48 + ^
STACK CFI 3651c .cfa: sp 112 +
STACK CFI 3652c .cfa: sp 0 +
STACK CFI 36530 .cfa: x29 48 +
STACK CFI INIT 3671c 1b8 .cfa: sp 0 +
STACK CFI 36720 .cfa: sp 160 +
STACK CFI 3673c .cfa: x29 72 + x19: .cfa -8 + ^ x20: .cfa -16 + ^ x21: .cfa -24 + ^ x22: .cfa -32 + ^ x23: .cfa -40 + ^ x24: .cfa -48 + ^ x25: .cfa -56 + ^ .ra: .cfa -64 + ^ x29: .cfa -72 + ^ v8: .cfa -80 + ^
STACK CFI 367c0 .cfa: sp 160 +
STACK CFI 367dc .cfa: sp 0 +
STACK CFI 367e0 .cfa: x29 72 +
STACK CFI INIT 368d4 4e4 .cfa: sp 0 +
STACK CFI 368d8 .cfa: sp 96 +
STACK CFI 368f0 .cfa: x29 80 + x19: .cfa -8 + ^ x20: .cfa -16 + ^ x21: .cfa -24 + ^ x22: .cfa -32 + ^ x23: .cfa -40 + ^ x24: .cfa -48 + ^ x25: .cfa -64 + ^ .ra: .cfa -72 + ^ x29: .cfa -80 + ^
STACK CFI 36d34 .cfa: sp 96 +
STACK CFI 36d4c .cfa: sp 0 +
STACK CFI 36d50 .cfa: x29 80 +
STACK CFI INIT 36db8 234 .cfa: sp 0 +
STACK CFI 36dbc .cfa: sp 320 +
STACK CFI 36de4 .cfa: x29 96 + x19: .cfa -8 + ^ x20: .cfa -16 + ^ x21: .cfa -24 + ^ x22: .cfa -32 + ^ x23: .cfa -40 + ^ x24: .cfa -48 + ^ x25: .cfa -56 + ^ x26: .cfa -64 + ^ x27: .cfa -72 + ^ x28: .cfa -80 + ^ .ra: .cfa -88 + ^ x29: .cfa -96 + ^ v8: .cfa -104 + ^ v9: .cfa -112 + ^ v10: .cfa -120 + ^ v11: .cfa -128 + ^ v12: .cfa -144 + ^
STACK CFI 36ecc .cfa: sp 320 +
STACK CFI 36ef4 .cfa: sp 0 +
STACK CFI 36ef8 .cfa: x29 96 +
STACK CFI INIT 36fec 129c .cfa: sp 0 +
STACK CFI 36ff0 .cfa: sp 96 +
STACK CFI 37008 .cfa: x29 80 + x19: .cfa -8 + ^ x20: .cfa -16 + ^ x21: .cfa -24 + ^ x22: .cfa -32 + ^ x23: .cfa -40 + ^ x24: .cfa -48 + ^ x25: .cfa -64 + ^ .ra: .cfa -72 + ^ x29: .cfa -80 + ^
STACK CFI 38124 .cfa: sp 96 +
STACK CFI 3813c .cfa: sp 0 +
STACK CFI 38140 .cfa: x29 80 +
STACK CFI INIT 3828c 2bc .cfa: sp 0 +
STACK CFI 38290 .cfa: sp 128 +
STACK CFI 382a4 .cfa: x29 64 + x19: .cfa -8 + ^ x20: .cfa -16 + ^ x21: .cfa -24 + ^ x22: .cfa -32 + ^ x23: .cfa -48 + ^ .ra: .cfa -56 + ^ x29: .cfa -64 + ^
STACK CFI 383f4 .cfa: sp 128 +
STACK CFI 38408 .cfa: sp 0 +
STACK CFI 3840c .cfa: x29 64 +
STACK CFI INIT 38548 2c8 .cfa: sp 0 +
STACK CFI 3854c .cfa: sp 128 +
STACK CFI 38560 .cfa: x29 64 + x19: .cfa -8 + ^ x20: .cfa -16 + ^ x21: .cfa -24 + ^ x22: .cfa -32 + ^ x23: .cfa -48 + ^ .ra: .cfa -56 + ^ x29: .cfa -64 + ^
STACK CFI 386bc .cfa: sp 128 +
STACK CFI 386d0 .cfa: sp 0 +
STACK CFI 386d4 .cfa: x29 64 +
STACK CFI INIT 38810 278 .cfa: sp 0 +
STACK CFI 38814 .cfa: sp 128 +
STACK CFI 38828 .cfa: x29 64 + x19: .cfa -8 + ^ x20: .cfa -16 + ^ x21: .cfa -24 + ^ x22: .cfa -32 + ^ x23: .cfa -48 + ^ .ra: .cfa -56 + ^ x29: .cfa -64 + ^
STACK CFI 38934 .cfa: sp 128 +
STACK CFI 38948 .cfa: sp 0 +
STACK CFI 3894c .cfa: x29 64 +
STACK CFI INIT 38a88 2bc .cfa: sp 0 +
STACK CFI 38a8c .cfa: sp 128 +
STACK CFI 38aa0 .cfa: x29 64 + x19: .cfa -8 + ^ x20: .cfa -16 + ^ x21: .cfa -24 + ^ x22: .cfa -32 + ^ x23: .cfa -48 + ^ .ra: .cfa -56 + ^ x29: .cfa -64 + ^
STACK CFI 38bf0 .cfa: sp 128 +
STACK CFI 38c04 .cfa: sp 0 +
STACK CFI 38c08 .cfa: x29 64 +
STACK CFI INIT 38d44 4cc .cfa: sp 0 +
STACK CFI 38d48 .cfa: sp 128 +
STACK CFI 38d5c .cfa: x29 64 + x19: .cfa -8 + ^ x20: .cfa -16 + ^ x21: .cfa -24 + ^ x22: .cfa -32 + ^ x23: .cfa -48 + ^ .ra: .cfa -56 + ^ x29: .cfa -64 + ^
STACK CFI 39068 .cfa: sp 128 +
STACK CFI 3907c .cfa: sp 0 +
STACK CFI 39080 .cfa: x29 64 +
STACK CFI INIT 39210 154 .cfa: sp 0 +
STACK CFI 39214 .cfa: sp 384 +
STACK CFI 39228 .cfa: x29 64 + x19: .cfa -8 + ^ x20: .cfa -16 + ^ x21: .cfa -24 + ^ x22: .cfa -32 + ^ x23: .cfa -40 + ^ x28: .cfa -48 + ^ .ra: .cfa -56 + ^ x29: .cfa -64 + ^
STACK CFI 3930c .cfa: sp 384 +
STACK CFI 39320 .cfa: sp 0 +
STACK CFI 39324 .cfa: x29 64 +
STACK CFI INIT 39364 168 .cfa: sp 0 +
STACK CFI 39368 .cfa: sp 384 +
STACK CFI 3937c .cfa: x29 64 + x19: .cfa -8 + ^ x20: .cfa -16 + ^ x21: .cfa -24 + ^ x22: .cfa -32 + ^ x23: .cfa -40 + ^ x28: .cfa -48 + ^ .ra: .cfa -56 + ^ x29: .cfa -64 + ^
STACK CFI 39474 .cfa: sp 384 +
STACK CFI 39488 .cfa: sp 0 +
STACK CFI 3948c .cfa: x29 64 +
STACK CFI INIT 394e4 4e0 .cfa: sp 0 +
STACK CFI 394e8 .cfa: sp 64 +
STACK CFI 394f8 .cfa: x29 64 + x19: .cfa -8 + ^ x20: .cfa -16 + ^ x21: .cfa -24 + ^ x22: .cfa -32 + ^ x23: .cfa -40 + ^ x24: .cfa -48 + ^ .ra: .cfa -56 + ^ x29: .cfa -64 + ^
STACK CFI 39998 .cfa: sp 64 +
STACK CFI 399a8 .cfa: sp 0 +
STACK CFI 399ac .cfa: x29 64 +
STACK CFI INIT 39cf4 294 .cfa: sp 0 +
STACK CFI 39cf8 .cfa: sp 240 +
STACK CFI 39d10 .cfa: x29 80 + x19: .cfa -8 + ^ x20: .cfa -16 + ^ x21: .cfa -24 + ^ x22: .cfa -32 + ^ x23: .cfa -40 + ^ x24: .cfa -48 + ^ x25: .cfa -64 + ^ .ra: .cfa -72 + ^ x29: .cfa -80 + ^
STACK CFI 39eb0 .cfa: sp 240 +
STACK CFI 39ec8 .cfa: sp 0 +
STACK CFI 39ecc .cfa: x29 80 +
STACK CFI INIT 3a004 50 .cfa: sp 0 +
STACK CFI 3a008 .cfa: sp 32 +
STACK CFI 3a010 .cfa: x29 32 + x19: .cfa -8 + ^ x20: .cfa -16 + ^ .ra: .cfa -24 + ^ x29: .cfa -32 + ^
STACK CFI INIT 3a080 7c0 .cfa: sp 0 +
STACK CFI 3a084 .cfa: sp 320 +
STACK CFI 3a0a0 .cfa: x29 96 + x19: .cfa -8 + ^ x20: .cfa -16 + ^ x21: .cfa -24 + ^ x22: .cfa -32 + ^ x23: .cfa -40 + ^ x24: .cfa -48 + ^ x25: .cfa -56 + ^ x26: .cfa -64 + ^ x27: .cfa -72 + ^ x28: .cfa -80 + ^ .ra: .cfa -88 + ^ x29: .cfa -96 + ^
STACK CFI 3a6f0 .cfa: sp 320 +
STACK CFI 3a70c .cfa: sp 0 +
STACK CFI 3a710 .cfa: x29 96 +
STACK CFI INIT 3ebc0 c74 .cfa: sp 0 +
STACK CFI 3ebc4 .cfa: sp 96 +
STACK CFI 3ebdc .cfa: x29 96 + x19: .cfa -8 + ^ x20: .cfa -16 + ^ x21: .cfa -24 + ^ x22: .cfa -32 + ^ x23: .cfa -40 + ^ x24: .cfa -48 + ^ x25: .cfa -56 + ^ x26: .cfa -64 + ^ x27: .cfa -72 + ^ x28: .cfa -80 + ^ .ra: .cfa -88 + ^ x29: .cfa -96 + ^
STACK CFI 3f654 .cfa: sp 96 +
STACK CFI 3f66c .cfa: sp 0 +
STACK CFI 3f670 .cfa: x29 96 +
STACK CFI INIT 3f988 26c .cfa: sp 0 +
STACK CFI 3f98c .cfa: sp 128 +
STACK CFI 3f99c .cfa: x29 48 + x19: .cfa -8 + ^ x20: .cfa -16 + ^ x21: .cfa -24 + ^ x22: .cfa -32 + ^ .ra: .cfa -40 + ^ x29: .cfa -48 + ^
STACK CFI 3fb40 .cfa: sp 128 +
STACK CFI 3fb50 .cfa: sp 0 +
STACK CFI 3fb54 .cfa: x29 48 +
STACK CFI INIT 40140 3b8 .cfa: sp 0 +
STACK CFI 40144 .cfa: sp 96 +
STACK CFI 4015c .cfa: x29 96 + x19: .cfa -8 + ^ x20: .cfa -16 + ^ x21: .cfa -24 + ^ x22: .cfa -32 + ^ x23: .cfa -40 + ^ x24: .cfa -48 + ^ x25: .cfa -56 + ^ x26: .cfa -64 + ^ x27: .cfa -72 + ^ x28: .cfa -80 + ^ .ra: .cfa -88 + ^ x29: .cfa -96 + ^
STACK CFI 40498 .cfa: sp 96 +
STACK CFI 404b0 .cfa: sp 0 +
STACK CFI 404b4 .cfa: x29 96 +
STACK CFI INIT 40598 cb4 .cfa: sp 0 +
STACK CFI 4059c .cfa: sp 96 +
STACK CFI 405b4 .cfa: x29 96 + x19: .cfa -8 + ^ x20: .cfa -16 + ^ x21: .cfa -24 + ^ x22: .cfa -32 + ^ x23: .cfa -40 + ^ x24: .cfa -48 + ^ x25: .cfa -56 + ^ x26: .cfa -64 + ^ x27: .cfa -72 + ^ x28: .cfa -80 + ^ .ra: .cfa -88 + ^ x29: .cfa -96 + ^
STACK CFI 4105c .cfa: sp 96 +
STACK CFI 41074 .cfa: sp 0 +
STACK CFI 41078 .cfa: x29 96 +
STACK CFI INIT 41534 afc .cfa: sp 0 +
STACK CFI 41538 .cfa: sp 96 +
STACK CFI 41550 .cfa: x29 96 + x19: .cfa -8 + ^ x20: .cfa -16 + ^ x21: .cfa -24 + ^ x22: .cfa -32 + ^ x23: .cfa -40 + ^ x24: .cfa -48 + ^ x25: .cfa -56 + ^ x26: .cfa -64 + ^ x27: .cfa -72 + ^ x28: .cfa -80 + ^ .ra: .cfa -88 + ^ x29: .cfa -96 + ^
STACK CFI 41fa4 .cfa: sp 96 +
STACK CFI 41fbc .cfa: sp 0 +
STACK CFI 41fc0 .cfa: x29 96 +
STACK CFI INIT 4220c 1430 .cfa: sp 0 +
STACK CFI 42210 .cfa: sp 96 +
STACK CFI 42228 .cfa: x29 96 + x19: .cfa -8 + ^ x20: .cfa -16 + ^ x21: .cfa -24 + ^ x22: .cfa -32 + ^ x23: .cfa -40 + ^ x24: .cfa -48 + ^ x25: .cfa -56 + ^ x26: .cfa -64 + ^ x27: .cfa -72 + ^ x28: .cfa -80 + ^ .ra: .cfa -88 + ^ x29: .cfa -96 + ^
STACK CFI 434c4 .cfa: sp 96 +
STACK CFI 434dc .cfa: sp 0 +
STACK CFI 434e0 .cfa: x29 96 +
STACK CFI INIT 43760 75c .cfa: sp 0 +
STACK CFI 43764 .cfa: sp 368 +
STACK CFI 43780 .cfa: x29 96 + x19: .cfa -8 + ^ x20: .cfa -16 + ^ x21: .cfa -24 + ^ x22: .cfa -32 + ^ x23: .cfa -40 + ^ x24: .cfa -48 + ^ x25: .cfa -56 + ^ x26: .cfa -64 + ^ x27: .cfa -72 + ^ x28: .cfa -80 + ^ .ra: .cfa -88 + ^ x29: .cfa -96 + ^
STACK CFI 43834 .cfa: sp 368 +
STACK CFI 43850 .cfa: sp 0 +
STACK CFI 43854 .cfa: x29 96 +
STACK CFI 438a8 .cfa: sp 368 +
STACK CFI 438c4 .cfa: sp 0 +
STACK CFI 438c8 .cfa: x29 96 +
STACK CFI INIT 4427c eb0 .cfa: sp 0 +
STACK CFI 44280 .cfa: sp 96 +
STACK CFI 44298 .cfa: x29 96 + x19: .cfa -8 + ^ x20: .cfa -16 + ^ x21: .cfa -24 + ^ x22: .cfa -32 + ^ x23: .cfa -40 + ^ x24: .cfa -48 + ^ x25: .cfa -56 + ^ x26: .cfa -64 + ^ x27: .cfa -72 + ^ x28: .cfa -80 + ^ .ra: .cfa -88 + ^ x29: .cfa -96 + ^
STACK CFI 44f40 .cfa: sp 96 +
STACK CFI 44f58 .cfa: sp 0 +
STACK CFI 44f5c .cfa: x29 96 +
STACK CFI INIT 454a0 1c9c .cfa: sp 0 +
STACK CFI 454a4 .cfa: sp 112 +
STACK CFI 454c0 .cfa: x29 96 + x19: .cfa -8 + ^ x20: .cfa -16 + ^ x21: .cfa -24 + ^ x22: .cfa -32 + ^ x23: .cfa -40 + ^ x24: .cfa -48 + ^ x25: .cfa -56 + ^ x26: .cfa -64 + ^ x27: .cfa -72 + ^ x28: .cfa -80 + ^ .ra: .cfa -88 + ^ x29: .cfa -96 + ^ v8: .cfa -112 + ^
STACK CFI 458a8 .cfa: sp 112 +
STACK CFI 458c4 .cfa: sp 0 +
STACK CFI 458c8 .cfa: x29 96 +
STACK CFI INIT 49900 9a0 .cfa: sp 0 +
STACK CFI 49904 .cfa: sp 144 +
STACK CFI 4991c .cfa: x29 80 + x19: .cfa -8 + ^ x20: .cfa -16 + ^ x21: .cfa -24 + ^ x22: .cfa -32 + ^ x23: .cfa -40 + ^ x24: .cfa -48 + ^ x25: .cfa -64 + ^ .ra: .cfa -72 + ^ x29: .cfa -80 + ^
STACK CFI 4a21c .cfa: sp 144 +
STACK CFI 4a234 .cfa: sp 0 +
STACK CFI 4a238 .cfa: x29 80 +
STACK CFI INIT 4b7c4 57c .cfa: sp 0 +
STACK CFI 4b7c8 .cfa: sp 96 +
STACK CFI 4b7e0 .cfa: x29 96 + x19: .cfa -8 + ^ x20: .cfa -16 + ^ x21: .cfa -24 + ^ x22: .cfa -32 + ^ x23: .cfa -40 + ^ x24: .cfa -48 + ^ x25: .cfa -56 + ^ x26: .cfa -64 + ^ x27: .cfa -72 + ^ x28: .cfa -80 + ^ .ra: .cfa -88 + ^ x29: .cfa -96 + ^
STACK CFI 4bca4 .cfa: sp 96 +
STACK CFI 4bcbc .cfa: sp 0 +
STACK CFI 4bcc0 .cfa: x29 96 +
STACK CFI INIT 4bd40 67c .cfa: sp 0 +
STACK CFI 4bd44 .cfa: sp 96 +
STACK CFI 4bd5c .cfa: x29 96 + x19: .cfa -8 + ^ x20: .cfa -16 + ^ x21: .cfa -24 + ^ x22: .cfa -32 + ^ x23: .cfa -40 + ^ x24: .cfa -48 + ^ x25: .cfa -56 + ^ x26: .cfa -64 + ^ x27: .cfa -72 + ^ x28: .cfa -80 + ^ .ra: .cfa -88 + ^ x29: .cfa -96 + ^
STACK CFI 4c320 .cfa: sp 96 +
STACK CFI 4c338 .cfa: sp 0 +
STACK CFI 4c33c .cfa: x29 96 +
