MODULE Linux arm64 68DF20CC00B73F14503CEA3C034AD9950 sorkopiko.saveretry.android64.so
INFO CODE_ID CC20DF68B700143F503CEA3C034AD995C344F71F
INFO GENERATOR mozilla/dump_syms 2.3.4
PUBLIC 94f0 0 __on_dlclose
PUBLIC 9500 0 __emutls_unregister_key
PUBLIC 9508 0 __on_dlclose_late
PUBLIC 9510 0 __atexit_handler_wrapper
PUBLIC 9524 0 atexit
PUBLIC 9540 0 pthread_atfork
PUBLIC 9550 0 unwind_phase2
PUBLIC 9684 0 _Unwind_Resume
PUBLIC 9708 0 unwind_phase2_forced
PUBLIC m 97fc 0 __unw_init_local
PUBLIC m 98a4 0 __unw_get_reg
PUBLIC 9920 0 __unw_step_stage2
PUBLIC m 9934 0 __unw_get_proc_info
PUBLIC m 9974 0 __unw_resume
PUBLIC 999c 0 libunwind::CFI_Parser<libunwind::LocalAddressSpace>::decodeFDE(libunwind::LocalAddressSpace&, unsigned long, libunwind::CFI_Parser<libunwind::LocalAddressSpace>::FDE_Info*, libunwind::CFI_Parser<libunwind::LocalAddressSpace>::CIE_Info*, bool)
PUBLIC 9b2c 0 libunwind::CFI_Parser<libunwind::LocalAddressSpace>::parseCIE(libunwind::LocalAddressSpace&, unsigned long, libunwind::CFI_Parser<libunwind::LocalAddressSpace>::CIE_Info*)
PUBLIC 9df4 0 libunwind::AbstractUnwindCursor::~AbstractUnwindCursor()
PUBLIC 9dfc 0 libunwind::UnwindCursor<libunwind::LocalAddressSpace, libunwind::Registers_arm64>::~UnwindCursor()
PUBLIC 9e04 0 libunwind::UnwindCursor<libunwind::LocalAddressSpace, libunwind::Registers_arm64>::validReg(int)
PUBLIC 9e48 0 libunwind::UnwindCursor<libunwind::LocalAddressSpace, libunwind::Registers_arm64>::getReg(int)
PUBLIC 9f30 0 libunwind::UnwindCursor<libunwind::LocalAddressSpace, libunwind::Registers_arm64>::setReg(int, unsigned long)
PUBLIC a018 0 libunwind::UnwindCursor<libunwind::LocalAddressSpace, libunwind::Registers_arm64>::validFloatReg(int)
PUBLIC a02c 0 libunwind::UnwindCursor<libunwind::LocalAddressSpace, libunwind::Registers_arm64>::getFloatReg(int)
PUBLIC a03c 0 libunwind::UnwindCursor<libunwind::LocalAddressSpace, libunwind::Registers_arm64>::setFloatReg(int, double)
PUBLIC a04c 0 libunwind::UnwindCursor<libunwind::LocalAddressSpace, libunwind::Registers_arm64>::step(bool)
PUBLIC a13c 0 libunwind::UnwindCursor<libunwind::LocalAddressSpace, libunwind::Registers_arm64>::getInfo(unw_proc_info_t*)
PUBLIC a180 0 libunwind::UnwindCursor<libunwind::LocalAddressSpace, libunwind::Registers_arm64>::jumpto()
PUBLIC a18c 0 libunwind::UnwindCursor<libunwind::LocalAddressSpace, libunwind::Registers_arm64>::isSignalFrame()
PUBLIC a198 0 libunwind::UnwindCursor<libunwind::LocalAddressSpace, libunwind::Registers_arm64>::getFunctionName(char*, unsigned long, unsigned long*)
PUBLIC a1c4 0 libunwind::UnwindCursor<libunwind::LocalAddressSpace, libunwind::Registers_arm64>::setInfoBasedOnIPRegister(bool)
PUBLIC a444 0 libunwind::UnwindCursor<libunwind::LocalAddressSpace, libunwind::Registers_arm64>::getRegisterName(int)
PUBLIC a450 0 libunwind::UnwindCursor<libunwind::LocalAddressSpace, libunwind::Registers_arm64>::stepThroughSigReturn(libunwind::Registers_arm64&)
PUBLIC a570 0 libunwind::DwarfInstructions<libunwind::LocalAddressSpace, libunwind::Registers_arm64>::stepWithDwarf(libunwind::LocalAddressSpace&, unsigned long, unsigned long, libunwind::Registers_arm64&, bool&, bool)
PUBLIC a9f8 0 libunwind::CFI_Parser<libunwind::LocalAddressSpace>::parseFDEInstructions(libunwind::LocalAddressSpace&, libunwind::CFI_Parser<libunwind::LocalAddressSpace>::FDE_Info const&, libunwind::CFI_Parser<libunwind::LocalAddressSpace>::CIE_Info const&, unsigned long, int, libunwind::CFI_Parser<libunwind::LocalAddressSpace>::PrologInfo*)
PUBLIC b640 0 libunwind::DwarfInstructions<libunwind::LocalAddressSpace, libunwind::Registers_arm64>::getCFA(libunwind::LocalAddressSpace&, libunwind::CFI_Parser<libunwind::LocalAddressSpace>::PrologInfo const&, libunwind::Registers_arm64 const&)
PUBLIC b774 0 libunwind::DwarfInstructions<libunwind::LocalAddressSpace, libunwind::Registers_arm64>::getSavedRegister(libunwind::LocalAddressSpace&, libunwind::Registers_arm64 const&, unsigned long, libunwind::CFI_Parser<libunwind::LocalAddressSpace>::RegisterLocation const&)
PUBLIC b984 0 libunwind::LocalAddressSpace::getEncodedP(unsigned long&, unsigned long, unsigned char, unsigned long)
PUBLIC bd10 0 libunwind::LocalAddressSpace::getULEB128(unsigned long&, unsigned long)
PUBLIC bed8 0 libunwind::DwarfInstructions<libunwind::LocalAddressSpace, libunwind::Registers_arm64>::evaluateExpression(unsigned long, libunwind::LocalAddressSpace&, libunwind::Registers_arm64 const&, unsigned long)
PUBLIC c894 0 libunwind::UnwindCursor<libunwind::LocalAddressSpace, libunwind::Registers_arm64>::getInfoFromDwarfSection(unsigned long, libunwind::UnwindInfoSections const&, unsigned int)
PUBLIC cb68 0 libunwind::findUnwindSectionsByPhdr(dl_phdr_info*, unsigned long, void*)
PUBLIC cc9c 0 libunwind::EHHeaderParser<libunwind::LocalAddressSpace>::decodeEHHdr(libunwind::LocalAddressSpace&, unsigned long, unsigned long, libunwind::EHHeaderParser<libunwind::LocalAddressSpace>::EHHeaderInfo&)
PUBLIC cdbc 0 libunwind::CFI_Parser<libunwind::LocalAddressSpace>::findFDE(libunwind::LocalAddressSpace&, unsigned long, unsigned long, unsigned long, unsigned long, libunwind::CFI_Parser<libunwind::LocalAddressSpace>::FDE_Info*, libunwind::CFI_Parser<libunwind::LocalAddressSpace>::CIE_Info*)
PUBLIC cf84 0 libunwind::EHHeaderParser<libunwind::LocalAddressSpace>::findFDE(libunwind::LocalAddressSpace&, unsigned long, unsigned long, unsigned int, libunwind::CFI_Parser<libunwind::LocalAddressSpace>::FDE_Info*, libunwind::CFI_Parser<libunwind::LocalAddressSpace>::CIE_Info*)
PUBLIC d0ec 0 libunwind::EHHeaderParser<libunwind::LocalAddressSpace>::getTableEntrySize(unsigned char)
PUBLIC d1e8 0 libunwind::Registers_arm64::getRegisterName(int)
PUBLIC d218 0 __libunwind_Registers_arm64_jumpto
PUBLIC m d2a8 0 __unw_getcontext
PUBLIC d350 0 __aarch64_ldadd8_relax
PUBLIC d380 0 init_have_lse_atomics
PUBLIC d418 0 __init_cpu_features_constructor
PUBLIC d9b4 0 __init_cpu_features
PUBLIC da40 0 __aarch64_ldadd8_acq_rel
PUBLIC da70 0 __cxx_global_var_init
PUBLIC e644 0 geode::modifier::ModifyBase<geode::modifier::ModifyDerive<SRAccountLayer, AccountLayer> >::~ModifyBase()
PUBLIC e65c 0 geode::modifier::ModifyDerive<SRAccountLayer, AccountLayer>::apply()
PUBLIC f3fc 0 std::__ndk1::shared_ptr<geode::Hook>::~shared_ptr[abi:ne180000]()
PUBLIC f44c 0 geode::impl::ResultData<geode::Hook*, std::__ndk1::basic_string<char, std::__ndk1::char_traits<char>, std::__ndk1::allocator<char> > >::~ResultData()
PUBLIC f4c0 0 std::__ndk1::vector<std::__ndk1::basic_string<char, std::__ndk1::char_traits<char>, std::__ndk1::allocator<char> >, std::__ndk1::allocator<std::__ndk1::basic_string<char, std::__ndk1::char_traits<char>, std::__ndk1::allocator<char> > > >::~vector[abi:ne180000]()
PUBLIC f53c 0 geode::modifier::ModifyBase<geode::modifier::ModifyDerive<SRAccountLayer, AccountLayer> >::apply()
PUBLIC f540 0 __clang_call_terminate
PUBLIC f550 0 _ZN5geode15UnwrapExceptionC2IRPNS_4HookEQsr4implE18IsStringStreamableIT_EEENS_4impl5OkTagEOS5_
PUBLIC f6a4 0 std::__ndk1::__throw_bad_variant_access[abi:ne180000]()
PUBLIC f6d8 0 std::__ndk1::basic_stringstream<char, std::__ndk1::char_traits<char>, std::__ndk1::allocator<char> >::basic_stringstream[abi:ne180000]()
PUBLIC m f804 0 std::__ndk1::basic_stringstream<char, std::__ndk1::char_traits<char>, std::__ndk1::allocator<char> >::~basic_stringstream()
PUBLIC f884 0 geode::UnwrapException::~UnwrapException()
PUBLIC f8a8 0 std::__ndk1::__put_character_sequence[abi:ne180000]<char, std::__ndk1::char_traits<char> >(std::__ndk1::basic_ostream<char, std::__ndk1::char_traits<char> >, std::__ndk1::basic_ostream const*, unsigned long)
PUBLIC fa4c 0 std::__ndk1::__pad_and_output[abi:ne180000]<char, std::__ndk1::char_traits<char> >(std::__ndk1::char_traits<char>, std::__ndk1::ostreambuf_iterator const*, std::__ndk1::ostreambuf_iterator const, std::__ndk1::ostreambuf_iterator const, std::__ndk1::ios_base&, std::__ndk1::ostreambuf_iterator)
PUBLIC fc28 0 std::__ndk1::basic_string<char, std::__ndk1::char_traits<char>, std::__ndk1::allocator<char> >::__throw_length_error[abi:ne180000]() const
PUBLIC fc3c 0 std::__ndk1::__throw_length_error[abi:ne180000](char const*)
PUBLIC fc8c 0 std::length_error::length_error[abi:ne180000](char const*)
PUBLIC fcbc 0 std::__throw_bad_array_new_length([abi:ne180000], void)
PUBLIC fcf0 0 std::__ndk1::basic_stringbuf<char, std::__ndk1::char_traits<char>, std::__ndk1::allocator<char> >::str[abi:ne180000]() &&
PUBLIC fe68 0 std::__ndk1::basic_stringbuf<char, std::__ndk1::char_traits<char>, std::__ndk1::allocator<char> >::__init_buf_ptrs[abi:ne180000]()
PUBLIC ffb0 0 std::__ndk1::basic_string<char, std::__ndk1::char_traits<char>, std::__ndk1::allocator<char> >::__init_copy_ctor_external(char const*, unsigned long)
PUBLIC 10030 0 std::__ndk1::__split_buffer<std::__ndk1::basic_string<char, std::__ndk1::char_traits<char>, std::__ndk1::allocator<char> >, std::__ndk1::allocator<std::__ndk1::basic_string<char, std::__ndk1::char_traits<char>, std::__ndk1::allocator<char> > >&>::~__split_buffer()
PUBLIC 10098 0 std::__ndk1::vector<std::__ndk1::basic_string<char, std::__ndk1::char_traits<char>, std::__ndk1::allocator<char> >, std::__ndk1::allocator<std::__ndk1::basic_string<char, std::__ndk1::char_traits<char>, std::__ndk1::allocator<char> > > >::__throw_length_error[abi:ne180000]() const
PUBLIC 100ac 0 std::__ndk1::__variant_detail::__visitation::__base::__dispatcher<(unsigned long)0>::__dispatch[abi:ne180000]<std::__ndk1::__variant_detail::__dtor<std::__ndk1::__variant_detail::__traits<geode::Hook*, std::__ndk1::basic_string<char, std::__ndk1::char_traits<char>, std::__ndk1::allocator<char> > >, (std::__ndk1::__variant_detail::_Trait)1>::__destroy[abi:ne180000]()::{lambda(auto:1&)#1}, std::__ndk1::__variant_detail::__base<(std::__ndk1::__variant_detail::__traits<geode::Hook*, std::__ndk1::basic_string<char, std::__ndk1::char_traits<char>, std::__ndk1::allocator<char> > >)1, geode::Hook, std::__ndk1::allocator<char> >&>(std::__ndk1::__variant_detail::__dtor<std::__ndk1::__variant_detail::__traits<geode::Hook*, std::__ndk1::basic_string<char, std::__ndk1::char_traits<char>, std::__ndk1::allocator<char> > >, (std::__ndk1::__variant_detail::_Trait)1>, std::__ndk1::__variant_detail::__base<(std::__ndk1::__variant_detail::__traits<geode::Hook*, std::__ndk1::basic_string<char, std::__ndk1::char_traits<char>, std::__ndk1::allocator<char> > >)1, geode::Hook, std::__ndk1::allocator<char> >&)
PUBLIC 100b0 0 std::__ndk1::__variant_detail::__visitation::__base::__dispatcher<(unsigned long)1>::__dispatch[abi:ne180000]<std::__ndk1::__variant_detail::__dtor<std::__ndk1::__variant_detail::__traits<geode::Hook*, std::__ndk1::basic_string<char, std::__ndk1::char_traits<char>, std::__ndk1::allocator<char> > >, (std::__ndk1::__variant_detail::_Trait)1>::__destroy[abi:ne180000]()::{lambda(auto:1&)#1}, std::__ndk1::__variant_detail::__base<(std::__ndk1::__variant_detail::__traits<geode::Hook*, std::__ndk1::basic_string<char, std::__ndk1::char_traits<char>, std::__ndk1::allocator<char> > >)1, geode::Hook, std::__ndk1::allocator<char> >&>(std::__ndk1::__variant_detail::__dtor<std::__ndk1::__variant_detail::__traits<geode::Hook*, std::__ndk1::basic_string<char, std::__ndk1::char_traits<char>, std::__ndk1::allocator<char> > >, (std::__ndk1::__variant_detail::_Trait)1>, std::__ndk1::__variant_detail::__base<(std::__ndk1::__variant_detail::__traits<geode::Hook*, std::__ndk1::basic_string<char, std::__ndk1::char_traits<char>, std::__ndk1::allocator<char> > >)1, geode::Hook, std::__ndk1::allocator<char> >&)
PUBLIC 100c4 0 std::__ndk1::__tree<std::__ndk1::__value_type<std::__ndk1::basic_string<char, std::__ndk1::char_traits<char>, std::__ndk1::allocator<char> >, std::__ndk1::shared_ptr<geode::Hook> >, std::__ndk1::__map_value_compare<std::__ndk1::basic_string<char, std::__ndk1::char_traits<char>, std::__ndk1::allocator<char> >, std::__ndk1::__value_type<std::__ndk1::basic_string<char, std::__ndk1::char_traits<char>, std::__ndk1::allocator<char> >, std::__ndk1::shared_ptr<geode::Hook> >, std::__ndk1::less<std::__ndk1::basic_string<char, std::__ndk1::char_traits<char>, std::__ndk1::allocator<char> > >, true>, std::__ndk1::allocator<std::__ndk1::__value_type<std::__ndk1::basic_string<char, std::__ndk1::char_traits<char>, std::__ndk1::allocator<char> >, std::__ndk1::shared_ptr<geode::Hook> > > >::destroy(std::__ndk1::__tree_node<std::__ndk1::__value_type<std::__ndk1::basic_string<char, std::__ndk1::char_traits<char>, std::__ndk1::allocator<char> >, std::__ndk1::shared_ptr<geode::Hook> >, void*>*)
PUBLIC 10148 0 geode::Hook::create<void (*)(SRAccountLayer*)>(void*, void (*)(SRAccountLayer*), std::__ndk1::basic_string<char, std::__ndk1::char_traits<char>, std::__ndk1::allocator<char> > const&, tulip::hook::TulipConvention, tulip::hook::HookMetadata const&)
PUBLIC 1027c 0 geode::modifier::AsStaticFunction_customSetup<SRAccountLayer, void (SRAccountLayer::*)()>::Impl<void (SRAccountLayer::*)()>::function(SRAccountLayer*)
PUBLIC 10684 0 geode::modifier::AsStaticFunction_backupAccountFinished<SRAccountLayer, void (SRAccountLayer::*)()>::Impl<void (SRAccountLayer::*)()>::function(SRAccountLayer*)
PUBLIC 1070c 0 geode::Hook::create<void (*)(SRAccountLayer*, BackupAccountError, int)>(void*, void (*)(SRAccountLayer*, BackupAccountError, int), std::__ndk1::basic_string<char, std::__ndk1::char_traits<char>, std::__ndk1::allocator<char> > const&, tulip::hook::TulipConvention, tulip::hook::HookMetadata const&)
PUBLIC 108d4 0 geode::modifier::AsStaticFunction_backupAccountFailed<SRAccountLayer, void (SRAccountLayer::*)(BackupAccountError, int)>::Impl<void (SRAccountLayer::*)(BackupAccountError, int)>::function(SRAccountLayer*, BackupAccountError, int)
PUBLIC 10adc 0 geode::modifier::AsStaticFunction_syncAccountFinished<SRAccountLayer, void (SRAccountLayer::*)()>::Impl<void (SRAccountLayer::*)()>::function(SRAccountLayer*)
PUBLIC 10b64 0 geode::modifier::AsStaticFunction_syncAccountFailed<SRAccountLayer, void (SRAccountLayer::*)(BackupAccountError, int)>::Impl<void (SRAccountLayer::*)(BackupAccountError, int)>::function(SRAccountLayer*, BackupAccountError, int)
PUBLIC 10cb4 0 geode::modifier::AsStaticFunction_FLAlert_Clicked<SRAccountLayer, void (SRAccountLayer::*)(FLAlertLayer*, bool)>::Impl<void (SRAccountLayer::*)(FLAlertLayer*, bool)>::function(SRAccountLayer*, FLAlertLayer*, bool)
PUBLIC 10ecc 0 geode::addresser::Addresser::addressOfVirtual<void, AccountLayer, >(void (AccountLayer::*)())
PUBLIC 10f98 0 AccountLayer::AccountLayer(geode::ZeroConstructorType)
PUBLIC 11040 0 std::__ndk1::shared_ptr<tulip::hook::CallingConvention>::~shared_ptr[abi:ne180000]()
PUBLIC 11090 0 tulip::hook::HandlerMetadata::~HandlerMetadata()
PUBLIC 110f4 0 SRAccountLayer::cancelBackup(cocos2d::CCObject*)
PUBLIC 11218 0 geode::modifier::FieldIntermediate<SRAccountLayer, AccountLayer>::self()
PUBLIC 11864 0 geode::modifier::FieldIntermediate<SRAccountLayer, AccountLayer>::fieldDestructor(void*)
PUBLIC 11868 0 std::__ndk1::vector<void*, std::__ndk1::allocator<void*> >::__throw_length_error[abi:ne180000]() const
PUBLIC 1187c 0 std::__ndk1::vector<std::__ndk1::function<void (void*)>, std::__ndk1::allocator<std::__ndk1::function<void (void*)> > >::__throw_length_error[abi:ne180000]() const
PUBLIC 11890 0 std::__ndk1::vector<void*, std::__ndk1::allocator<void*> >::__throw_out_of_range[abi:ne180000]() const
PUBLIC 1189c 0 std::__ndk1::__throw_out_of_range[abi:ne180000](char const*)
PUBLIC 118ec 0 std::out_of_range::out_of_range[abi:ne180000](char const*)
PUBLIC 1191c 0 std::__ndk1::vector<std::__ndk1::function<void (void*)>, std::__ndk1::allocator<std::__ndk1::function<void (void*)> > >::__throw_out_of_range[abi:ne180000]() const
PUBLIC 11928 0 std::__ndk1::__function::__base<void (void*)>::~__base()
PUBLIC 1192c 0 std::__ndk1::__function::__func<void (*)(void*), std::__ndk1::allocator<void (*)(void*)>, void (void*)>::~__func()
PUBLIC 11930 0 std::__ndk1::__function::__func<void (*)(void*), std::__ndk1::allocator<void (*)(void*)>, void (void*)>::__clone() const
PUBLIC 11968 0 std::__ndk1::__function::__func<void (*)(void*), std::__ndk1::allocator<void (*)(void*)>, void (void*)>::__clone(std::__ndk1::__function::__base<void (void*)>*) const
PUBLIC 11980 0 std::__ndk1::__function::__func<void (*)(void*), std::__ndk1::allocator<void (*)(void*)>, void (void*)>::destroy()
PUBLIC 11984 0 std::__ndk1::__function::__func<void (*)(void*), std::__ndk1::allocator<void (*)(void*)>, void (void*)>::destroy_deallocate()
PUBLIC 11988 0 std::__ndk1::__function::__func<void (*)(void*), std::__ndk1::allocator<void (*)(void*)>, void (void*)>::operator()(void*&&)
PUBLIC 11998 0 std::__ndk1::__function::__func<void (*)(void*), std::__ndk1::allocator<void (*)(void*)>, void (void*)>::target(std::type_info const&) const
PUBLIC 119b4 0 std::__ndk1::__function::__func<void (*)(void*), std::__ndk1::allocator<void (*)(void*)>, void (void*)>::target_type() const
PUBLIC 119c0 0 std::__ndk1::__tree<std::__ndk1::__value_type<std::__ndk1::basic_string<char, std::__ndk1::char_traits<char>, std::__ndk1::allocator<char> >, std::__ndk1::shared_ptr<geode::Hook> >, std::__ndk1::__map_value_compare<std::__ndk1::basic_string<char, std::__ndk1::char_traits<char>, std::__ndk1::allocator<char> >, std::__ndk1::__value_type<std::__ndk1::basic_string<char, std::__ndk1::char_traits<char>, std::__ndk1::allocator<char> >, std::__ndk1::shared_ptr<geode::Hook> >, std::__ndk1::less<std::__ndk1::basic_string<char, std::__ndk1::char_traits<char>, std::__ndk1::allocator<char> > >, true>, std::__ndk1::allocator<std::__ndk1::__value_type<std::__ndk1::basic_string<char, std::__ndk1::char_traits<char>, std::__ndk1::allocator<char> >, std::__ndk1::shared_ptr<geode::Hook> > > >::__emplace_unique_key_args<std::__ndk1::basic_string<char, std::__ndk1::char_traits<char>, std::__ndk1::allocator<char> >, std::__ndk1::piecewise_construct_t const&, std::__ndk1::tuple<std::__ndk1::basic_string<char, std::__ndk1::char_traits<char>, std::__ndk1::allocator<char> >&&>, std::__ndk1::tuple<> >(std::__ndk1::basic_string<char, std::__ndk1::char_traits<char>, std::__ndk1::allocator<char> > const&, std::__ndk1::piecewise_construct_t const&, std::__ndk1::tuple<std::__ndk1::basic_string<char, std::__ndk1::char_traits<char>, std::__ndk1::allocator<char> >&&>, std::__ndk1::tuple<>)
PUBLIC 11b28 0 std::__ndk1::__tree_balance_after_insert[abi:ne180000]<std::__ndk1::__tree_node_base<void*>*>(std::__ndk1::__tree_node_base<void*>*, std::__ndk1::__tree_node_base<void*>*)
PUBLIC 11cd8 0 SRAccountLayer::showAttempts()
PUBLIC 11eb0 0 std::__ndk1::basic_string<char, std::__ndk1::char_traits<char>, std::__ndk1::allocator<char> >::__assign_external(char const*, unsigned long)
PUBLIC 11fb0 0 geode::addresser::Addresser::addressOfVirtual<void, AccountLayer, BackupAccountError, int>(void (AccountLayer::*)(BackupAccountError, int))
PUBLIC 1207c 0 SRAccountLayer::incrementAttempt()
PUBLIC 12240 0 geode::addresser::Addresser::addressOfVirtual<void, AccountLayer, FLAlertLayer*, bool>(void (AccountLayer::*)(FLAlertLayer*, bool))
PUBLIC m 122e8 0 geodeImplicitEntry
PUBLIC 12324 0 wrapFunction(unsigned long, tulip::hook::WrapperMetadata const&)
PUBLIC 12458 0 geode::impl::ResultData<void*, std::__ndk1::basic_string<char, std::__ndk1::char_traits<char>, std::__ndk1::allocator<char> > >::unwrapErr() &
PUBLIC 124d0 0 geode::impl::ResultData<void*, std::__ndk1::basic_string<char, std::__ndk1::char_traits<char>, std::__ndk1::allocator<char> > >::~ResultData()
PUBLIC 12544 0 tulip::hook::WrapperMetadata::~WrapperMetadata()
PUBLIC 125a8 0 TextArea::setString(gd::string)
PUBLIC 12720 0 tulip::hook::AbstractFunction::from<void, TextArea*, gd::string>(void (*)(TextArea*, gd::string))
PUBLIC 127c4 0 _ZN5geode15UnwrapExceptionC2IRPvQsr4implE18IsStringStreamableIT_EEENS_4impl5OkTagEOS4_
PUBLIC 12918 0 _ZN5geode15UnwrapExceptionC2IRNSt6__ndk112basic_stringIcNS2_11char_traitsIcEENS2_9allocatorIcEEEEQsr4implE18IsStringStreamableIT_EEENS_4impl6ErrTagEOSA_
PUBLIC 12a80 0 std::__ndk1::__variant_detail::__visitation::__base::__dispatcher<(unsigned long)0>::__dispatch[abi:ne180000]<std::__ndk1::__variant_detail::__dtor<std::__ndk1::__variant_detail::__traits<void*, std::__ndk1::basic_string<char, std::__ndk1::char_traits<char>, std::__ndk1::allocator<char> > >, (std::__ndk1::__variant_detail::_Trait)1>::__destroy[abi:ne180000]()::{lambda(auto:1&)#1}, std::__ndk1::__variant_detail::__base<(std::__ndk1::__variant_detail::__traits<void*, std::__ndk1::basic_string<char, std::__ndk1::char_traits<char>, std::__ndk1::allocator<char> > >)1, std::__ndk1::__variant_detail::__traits, std::__ndk1::allocator<char> >&>(std::__ndk1::__variant_detail::__dtor<std::__ndk1::__variant_detail::__traits<void*, std::__ndk1::basic_string<char, std::__ndk1::char_traits<char>, std::__ndk1::allocator<char> > >, (std::__ndk1::__variant_detail::_Trait)1>, std::__ndk1::__variant_detail::__base<(std::__ndk1::__variant_detail::__traits<void*, std::__ndk1::basic_string<char, std::__ndk1::char_traits<char>, std::__ndk1::allocator<char> > >)1, std::__ndk1::__variant_detail::__traits, std::__ndk1::allocator<char> >&)
PUBLIC 12a84 0 std::__ndk1::__variant_detail::__visitation::__base::__dispatcher<(unsigned long)1>::__dispatch[abi:ne180000]<std::__ndk1::__variant_detail::__dtor<std::__ndk1::__variant_detail::__traits<void*, std::__ndk1::basic_string<char, std::__ndk1::char_traits<char>, std::__ndk1::allocator<char> > >, (std::__ndk1::__variant_detail::_Trait)1>::__destroy[abi:ne180000]()::{lambda(auto:1&)#1}, std::__ndk1::__variant_detail::__base<(std::__ndk1::__variant_detail::__traits<void*, std::__ndk1::basic_string<char, std::__ndk1::char_traits<char>, std::__ndk1::allocator<char> > >)1, std::__ndk1::__variant_detail::__traits, std::__ndk1::allocator<char> >&>(std::__ndk1::__variant_detail::__dtor<std::__ndk1::__variant_detail::__traits<void*, std::__ndk1::basic_string<char, std::__ndk1::char_traits<char>, std::__ndk1::allocator<char> > >, (std::__ndk1::__variant_detail::_Trait)1>, std::__ndk1::__variant_detail::__base<(std::__ndk1::__variant_detail::__traits<void*, std::__ndk1::basic_string<char, std::__ndk1::char_traits<char>, std::__ndk1::allocator<char> > >)1, std::__ndk1::__variant_detail::__traits, std::__ndk1::allocator<char> >&)
PUBLIC 12a98 0 __udivti3
PUBLIC 12aa4 0 __udivmodti4
PUBLIC m 12cf0 0 __eqtf2
PUBLIC 12d90 0 __unordtf2
PUBLIC 12dc8 0 fmt::v11::detail::write_loc(fmt::v11::basic_appender<char>, fmt::v11::loc_value, fmt::v11::format_specs const&, fmt::v11::detail::locale_ref)
PUBLIC 1305c 0 fmt::v11::format_facet<std::__ndk1::locale>::~format_facet()
PUBLIC 130d8 0 fmt::v11::report_error(char const*)
PUBLIC 13128 0 fmt::v11::format_error::runtime_error(char const*)
PUBLIC 13154 0 fmt::v11::format_facet<std::__ndk1::locale>::do_put(fmt::v11::basic_appender<char>, fmt::v11::loc_value, fmt::v11::format_specs const&) const
PUBLIC 13914 0 fmt::v11::detail::loc_writer<char>::~loc_writer()
PUBLIC 13978 0 fmt::v11::detail::vformat_to<char>(fmt::v11::detail::buffer<char>&, fmt::v11::basic_string_view<char>, fmt::v11::detail::vformat_args<char>::type, fmt::v11::detail::locale_ref)
PUBLIC 13ee8 0 fmt::v11::detail::is_printable(unsigned int)
PUBLIC 14110 0 fmt::v11::detail::dragonbox::to_decimal<float>(float)
PUBLIC 143ec 0 fmt::v11::detail::dragonbox::to_decimal<double>(double)
PUBLIC 14928 0 fmt::v11::basic_memory_buffer<char, (unsigned long)500, std::__ndk1::allocator<char> >::grow(fmt::v11::detail::buffer<char>&, unsigned long)
PUBLIC 149a0 0 fmt::v11::format_facet<std::__ndk1::locale>::~format_facet()
PUBLIC 14a2c 0 fmt::v11::format_error::~format_error()
PUBLIC 14a50 0 fmt::v11::detail::copy_noinline<char, char const*, fmt::v11::basic_appender<char> >(char const*, char const*, fmt::v11::basic_appender<char>)
PUBLIC 14ba0 0 fmt::v11::detail::default_arg_formatter<char>::operator()<bool>(bool)
PUBLIC 14c08 0 fmt::v11::detail::default_arg_formatter<char>::operator()<char>(char)
PUBLIC 14c98 0 fmt::v11::detail::default_arg_formatter<char>::operator()<float>(float)
PUBLIC 14d84 0 fmt::v11::detail::default_arg_formatter<char>::operator()<double>(double)
PUBLIC 14e70 0 fmt::v11::detail::default_arg_formatter<char>::operator()<char const*>(char const*)
PUBLIC 14eb8 0 fmt::v11::detail::default_arg_formatter<char>::operator()<void const*>(void const*)
PUBLIC 14f50 0 _ZN3fmt3v116detail5writeIcNS0_14basic_appenderIcEEiTnNSt6__ndk19enable_ifIXaaaasr11is_integralIT1_EE5valuentsr3std7is_sameIS7_bEE5valuentsr3std7is_sameIS7_T_EE5valueEiE4typeELi0EEET0_SB_S7_
PUBLIC 151b0 0 fmt::v11::detail::copy_noinline<char, char*, fmt::v11::basic_appender<char> >(char*, char*, fmt::v11::basic_appender<char>)
PUBLIC 15300 0 _ZN3fmt3v116detail5writeIcNS0_14basic_appenderIcEEjTnNSt6__ndk19enable_ifIXaaaasr11is_integralIT1_EE5valuentsr3std7is_sameIS7_bEE5valuentsr3std7is_sameIS7_T_EE5valueEiE4typeELi0EEET0_SB_S7_
PUBLIC 154e0 0 _ZN3fmt3v116detail5writeIcNS0_14basic_appenderIcEExTnNSt6__ndk19enable_ifIXaaaasr11is_integralIT1_EE5valuentsr3std7is_sameIS7_bEE5valuentsr3std7is_sameIS7_T_EE5valueEiE4typeELi0EEET0_SB_S7_
PUBLIC 15764 0 _ZN3fmt3v116detail5writeIcNS0_14basic_appenderIcEEyTnNSt6__ndk19enable_ifIXaaaasr11is_integralIT1_EE5valuentsr3std7is_sameIS7_bEE5valuentsr3std7is_sameIS7_T_EE5valueEiE4typeELi0EEET0_SB_S7_
PUBLIC 1596c 0 _ZN3fmt3v116detail5writeIcNS0_14basic_appenderIcEEnTnNSt6__ndk19enable_ifIXaaaasr11is_integralIT1_EE5valuentsr3std7is_sameIS7_bEE5valuentsr3std7is_sameIS7_T_EE5valueEiE4typeELi0EEET0_SB_S7_
PUBLIC 15ccc 0 _ZN3fmt3v116detail5writeIcNS0_14basic_appenderIcEEoTnNSt6__ndk19enable_ifIXaaaasr11is_integralIT1_EE5valuentsr3std7is_sameIS7_bEE5valuentsr3std7is_sameIS7_T_EE5valueEiE4typeELi0EEET0_SB_S7_
PUBLIC 15fe0 0 _ZN3fmt3v116detail5writeIcNS0_14basic_appenderIcEEbTnNSt6__ndk19enable_ifIXsr3std7is_sameIT1_bEE5valueEiE4typeELi0EEET0_SA_S7_RKNS0_12format_specsENS1_10locale_refE
PUBLIC 16270 0 fmt::v11::detail::write_int_noinline<char, fmt::v11::basic_appender<char>, unsigned int>(fmt::v11::basic_appender<char>, fmt::v11::detail::write_int_arg<unsigned int>, fmt::v11::format_specs const&, fmt::v11::detail::locale_ref)
PUBLIC 1704c 0 fmt::v11::detail::fill<char, fmt::v11::basic_appender<char> >(fmt::v11::basic_appender<char>, unsigned long, fmt::v11::detail::fill_t const&)
PUBLIC 1721c 0 fmt::v11::detail::write_padded<char, (fmt::v11::align::type)1, fmt::v11::basic_appender<char>, fmt::v11::detail::write_char<char, fmt::v11::basic_appender<char> >(fmt::v11::basic_appender<char>, char, fmt::v11::format_specs const&)::{lambda(fmt::v11::basic_appender<char>&)#1}>(fmt::v11::basic_appender<char>, fmt::v11::format_specs const&, unsigned long, unsigned long, fmt::v11::detail::write_char<char, fmt::v11::basic_appender<char> >(fmt::v11::basic_appender<char>, char, fmt::v11::format_specs const&)::{lambda(fmt::v11::basic_appender<char>&)#1})
PUBLIC 17458 0 fmt::v11::detail::write_escaped_cp<fmt::v11::basic_appender<char>, char>(fmt::v11::basic_appender<char>, fmt::v11::detail::find_escape_result<char> const&)
PUBLIC 17764 0 fmt::v11::detail::write_codepoint<(unsigned long)2, char, fmt::v11::basic_appender<char> >(fmt::v11::basic_appender<char>, char, unsigned int)
PUBLIC 178dc 0 fmt::v11::detail::write_codepoint<(unsigned long)8, char, fmt::v11::basic_appender<char> >(fmt::v11::basic_appender<char>, char, unsigned int)
PUBLIC 17a54 0 fmt::v11::detail::write_padded<char, (fmt::v11::align::type)1, fmt::v11::basic_appender<char>, fmt::v11::detail::write_nonfinite<char, fmt::v11::basic_appender<char> >(fmt::v11::basic_appender<char>, bool, fmt::v11::format_specs, fmt::v11::sign::type)::{lambda(fmt::v11::basic_appender<char>&)#1}>(fmt::v11::basic_appender<char>, fmt::v11::format_specs const&, unsigned long, unsigned long, fmt::v11::detail::write_nonfinite<char, fmt::v11::basic_appender<char> >(fmt::v11::basic_appender<char>, bool, fmt::v11::format_specs, fmt::v11::sign::type)::{lambda(fmt::v11::basic_appender<char>&)#1})
PUBLIC 17c94 0 fmt::v11::detail::do_write_float<char, fmt::v11::basic_appender<char>, fmt::v11::detail::dragonbox::decimal_fp<float>, fmt::v11::detail::digit_grouping<char> >(fmt::v11::basic_appender<char>, fmt::v11::detail::dragonbox::decimal_fp<float> const&, fmt::v11::format_specs const&, fmt::v11::detail::float_specs, fmt::v11::detail::locale_ref)
PUBLIC 18908 0 fmt::v11::detail::do_write_float<char, fmt::v11::basic_appender<char>, fmt::v11::detail::dragonbox::decimal_fp<float>, fmt::v11::detail::digit_grouping<char> >(fmt::v11::basic_appender<char>, fmt::v11::detail::dragonbox::decimal_fp<float> const&, fmt::v11::format_specs const&, fmt::v11::detail::float_specs, fmt::v11::detail::locale_ref)::{lambda(fmt::v11::basic_appender<char>(fmt::v11::basic_appender<char>))#1}::operator() const
PUBLIC 18a5c 0 fmt::v11::detail::digit_grouping<char>::digit_grouping(fmt::v11::detail::locale_ref, bool)
PUBLIC 18cc8 0 fmt::v11::detail::digit_grouping<char>::~digit_grouping()
PUBLIC 18d0c 0 fmt::v11::detail::write_exponent<char, fmt::v11::basic_appender<char> >(int, fmt::v11::basic_appender<char>)
PUBLIC 18edc 0 _ZN3fmt3v116detail17write_significandIcjTnNSt6__ndk19enable_ifIXsr3std11is_integralIT0_EE5valueEiE4typeELi0EEEPT_S9_S5_iiS8_
PUBLIC 19058 0 std::__ndk1::basic_string<char, std::__ndk1::char_traits<char>, std::__ndk1::allocator<char> >::__assign_no_alias<true>(char const*, unsigned long)
PUBLIC 19104 0 std::__ndk1::basic_string<char, std::__ndk1::char_traits<char>, std::__ndk1::allocator<char> >::__assign_no_alias<false>(char const*, unsigned long)
PUBLIC 19214 0 fmt::v11::detail::digit_grouping<char>::apply<fmt::v11::basic_appender<char>, char>(fmt::v11::basic_appender<char>, fmt::v11::basic_string_view<char>) const
PUBLIC 195cc 0 fmt::v11::basic_memory_buffer<int, (unsigned long)500, std::__ndk1::allocator<int> >::grow(fmt::v11::detail::buffer<int>&, unsigned long)
PUBLIC 1966c 0 fmt::v11::detail::do_write_float<char, fmt::v11::basic_appender<char>, fmt::v11::detail::dragonbox::decimal_fp<double>, fmt::v11::detail::digit_grouping<char> >(fmt::v11::basic_appender<char>, fmt::v11::detail::dragonbox::decimal_fp<double> const&, fmt::v11::format_specs const&, fmt::v11::detail::float_specs, fmt::v11::detail::locale_ref)
PUBLIC 1a320 0 fmt::v11::detail::do_write_float<char, fmt::v11::basic_appender<char>, fmt::v11::detail::dragonbox::decimal_fp<double>, fmt::v11::detail::digit_grouping<char> >(fmt::v11::basic_appender<char>, fmt::v11::detail::dragonbox::decimal_fp<double> const&, fmt::v11::format_specs const&, fmt::v11::detail::float_specs, fmt::v11::detail::locale_ref)::{lambda(fmt::v11::basic_appender<char>(fmt::v11::basic_appender<char>))#1}::operator() const
PUBLIC 1a478 0 _ZN3fmt3v116detail17write_significandIcmTnNSt6__ndk19enable_ifIXsr3std11is_integralIT0_EE5valueEiE4typeELi0EEEPT_S9_S5_iiS8_
PUBLIC 1a608 0 fmt::v11::detail::write_float<char, fmt::v11::basic_appender<char>, long double>(fmt::v11::basic_appender<char>, long double, fmt::v11::format_specs, fmt::v11::detail::locale_ref)
PUBLIC 1b104 0 fmt::v11::detail::write_padded<char, (fmt::v11::align::type)2, fmt::v11::basic_appender<char>, fmt::v11::detail::write_bytes<char, (fmt::v11::align::type)2, fmt::v11::basic_appender<char> >(fmt::v11::basic_appender<char>, fmt::v11::basic_string_view<char>, fmt::v11::format_specs const&)::{lambda(fmt::v11::basic_appender<char>&)#1}>(fmt::v11::basic_appender<char>, fmt::v11::format_specs const&, unsigned long, unsigned long, fmt::v11::detail::write_bytes<char, (fmt::v11::align::type)2, fmt::v11::basic_appender<char> >(fmt::v11::basic_appender<char>, fmt::v11::basic_string_view<char>, fmt::v11::format_specs const&)::{lambda(fmt::v11::basic_appender<char>&)#1})
PUBLIC 1b2e0 0 fmt::v11::detail::format_dragon(fmt::v11::detail::basic_fp<unsigned __int128>, unsigned int, int, fmt::v11::detail::buffer<char>&, int&)
PUBLIC 1c710 0 fmt::v11::detail::bigint::operator<<=(int)
PUBLIC 1c834 0 fmt::v11::detail::bigint::assign_pow10(int)
PUBLIC 1cf90 0 fmt::v11::detail::bigint::divmod_assign(fmt::v11::detail::bigint const&)
PUBLIC 1d2b0 0 fmt::v11::basic_memory_buffer<unsigned int, (unsigned long)32, std::__ndk1::allocator<unsigned int> >::grow(fmt::v11::detail::buffer<unsigned int>&, unsigned long)
PUBLIC 1d350 0 fmt::v11::detail::do_write_float<char, fmt::v11::basic_appender<char>, fmt::v11::detail::big_decimal_fp, fmt::v11::detail::digit_grouping<char> >(fmt::v11::basic_appender<char>, fmt::v11::detail::big_decimal_fp const&, fmt::v11::format_specs const&, fmt::v11::detail::float_specs, fmt::v11::detail::locale_ref)
PUBLIC 1e200 0 fmt::v11::detail::do_write_float<char, fmt::v11::basic_appender<char>, fmt::v11::detail::big_decimal_fp, fmt::v11::detail::digit_grouping<char> >(fmt::v11::basic_appender<char>, fmt::v11::detail::big_decimal_fp const&, fmt::v11::format_specs const&, fmt::v11::detail::float_specs, fmt::v11::detail::locale_ref)::{lambda(fmt::v11::basic_appender<char>(fmt::v11::basic_appender<char>))#1}::operator() const
PUBLIC 1e360 0 fmt::v11::detail::write_padded<char, (fmt::v11::align::type)2, fmt::v11::basic_appender<char>, fmt::v11::detail::write_ptr<char, fmt::v11::basic_appender<char>, unsigned long>(fmt::v11::basic_appender<char>, unsigned long, fmt::v11::format_specs const*)::{lambda(fmt::v11::basic_appender<char>&)#1}>(fmt::v11::basic_appender<char>, fmt::v11::format_specs const&, unsigned long, unsigned long, fmt::v11::detail::write_ptr<char, fmt::v11::basic_appender<char>, unsigned long>(fmt::v11::basic_appender<char>, unsigned long, fmt::v11::format_specs const*)::{lambda(fmt::v11::basic_appender<char>&)#1})
PUBLIC 1e574 0 fmt::v11::detail::parse_replacement_field<char, fmt::v11::detail::vformat_to<char>(fmt::v11::detail::buffer<char>&, fmt::v11::basic_string_view<char>, fmt::v11::detail::vformat_args<char>::type, fmt::v11::detail::locale_ref)::format_handler&>(char const*, char const*, fmt::v11::detail::vformat_to<char>(fmt::v11::detail::buffer<char>&, fmt::v11::basic_string_view<char>, fmt::v11::detail::vformat_args<char>::type, fmt::v11::detail::locale_ref)::format_handler&)
PUBLIC 20210 0 fmt::v11::detail::parse_dynamic_spec<char>(char const*, char const*, int&, fmt::v11::detail::arg_ref<char>&, fmt::v11::basic_format_parse_context<char>&)
PUBLIC 204a0 0 fmt::v11::basic_format_args<fmt::v11::context>::get<char>(fmt::v11::basic_string_view<char>) const
PUBLIC 205f8 0 fmt::v11::detail::write_int_noinline<char, fmt::v11::basic_appender<char>, unsigned long>(fmt::v11::basic_appender<char>, fmt::v11::detail::write_int_arg<unsigned long>, fmt::v11::format_specs const&, fmt::v11::detail::locale_ref)
PUBLIC 2144c 0 fmt::v11::detail::write_int_noinline<char, fmt::v11::basic_appender<char>, unsigned __int128>(fmt::v11::basic_appender<char>, fmt::v11::detail::write_int_arg<unsigned __int128>, fmt::v11::format_specs const&, fmt::v11::detail::locale_ref)
PUBLIC 224b4 0 _ZN3fmt3v116detail15format_hexfloatIdTnNSt6__ndk19enable_ifIXntsr16is_double_doubleIT_EE5valueEiE4typeELi0EEEvS5_NS0_12format_specsERNS1_6bufferIcEE
PUBLIC 229d4 0 fmt::v11::detail::format_float<double>(double, int, fmt::v11::detail::float_specs, fmt::v11::detail::buffer<char>&)
PUBLIC 23374 0 fmt::v11::detail::write<char, fmt::v11::basic_appender<char> >(fmt::v11::basic_appender<char>, fmt::v11::basic_string_view<char>, fmt::v11::format_specs const&)
PUBLIC 246e0 0 fmt::v11::detail::for_each_codepoint<fmt::v11::detail::compute_width(fmt::v11::basic_string_view<char>)::count_code_points>(fmt::v11::basic_string_view<char>, fmt::v11::detail::compute_width(fmt::v11::basic_string_view<char>)::count_code_points)::{lambda(char const*, char const*)#1}::operator()(char const*, char const*) const
PUBLIC 24898 0 fmt::v11::detail::write_int<fmt::v11::basic_appender<char>, unsigned long, char>(fmt::v11::basic_appender<char>, unsigned long, unsigned int, fmt::v11::format_specs const&, fmt::v11::detail::digit_grouping<char> const&)
PUBLIC 24e14 0 fmt::v11::detail::write_int<fmt::v11::basic_appender<char>, unsigned __int128, char>(fmt::v11::basic_appender<char>, unsigned __int128, unsigned int, fmt::v11::format_specs const&, fmt::v11::detail::digit_grouping<char> const&)
PUBLIC 25490 0 <.plt ELF section in sorkopiko.saveretry.android64.so>
STACK CFI INIT 94f0 10 .cfa: sp 0 +
STACK CFI INIT 9500 8 .cfa: sp 0 +
STACK CFI INIT 9508 8 .cfa: sp 0 +
STACK CFI INIT 9510 14 .cfa: sp 0 +
STACK CFI INIT 9524 1c .cfa: sp 0 +
STACK CFI INIT 9540 10 .cfa: sp 0 +
STACK CFI INIT 9550 134 .cfa: sp 0 +
STACK CFI INIT 9684 84 .cfa: sp 0 +
STACK CFI INIT 9708 f4 .cfa: sp 0 +
STACK CFI INIT 97fc a8 .cfa: sp 0 +
STACK CFI INIT 98a4 7c .cfa: sp 0 +
STACK CFI INIT 9920 14 .cfa: sp 0 +
STACK CFI INIT 9934 40 .cfa: sp 0 +
STACK CFI INIT 9974 28 .cfa: sp 0 +
STACK CFI INIT 999c 190 .cfa: sp 0 +
STACK CFI INIT 9b2c 2c8 .cfa: sp 0 +
STACK CFI INIT 9df4 8 .cfa: sp 0 +
STACK CFI INIT 9dfc 8 .cfa: sp 0 +
STACK CFI INIT 9e04 44 .cfa: sp 0 +
STACK CFI INIT 9e48 e8 .cfa: sp 0 +
STACK CFI INIT 9f30 e8 .cfa: sp 0 +
STACK CFI INIT a018 14 .cfa: sp 0 +
STACK CFI INIT a02c 10 .cfa: sp 0 +
STACK CFI INIT a03c 10 .cfa: sp 0 +
STACK CFI INIT a04c f0 .cfa: sp 0 +
STACK CFI INIT a13c 44 .cfa: sp 0 +
STACK CFI INIT a180 c .cfa: sp 0 +
STACK CFI INIT a18c c .cfa: sp 0 +
STACK CFI INIT a198 2c .cfa: sp 0 +
STACK CFI INIT a1c4 280 .cfa: sp 0 +
STACK CFI INIT a444 c .cfa: sp 0 +
STACK CFI INIT a450 120 .cfa: sp 0 +
STACK CFI INIT a570 488 .cfa: sp 0 +
STACK CFI INIT a9f8 c48 .cfa: sp 0 +
STACK CFI INIT b640 134 .cfa: sp 0 +
STACK CFI INIT b774 210 .cfa: sp 0 +
STACK CFI INIT b984 38c .cfa: sp 0 +
STACK CFI INIT bd10 1c8 .cfa: sp 0 +
STACK CFI INIT bed8 9bc .cfa: sp 0 +
STACK CFI INIT c894 2d4 .cfa: sp 0 +
STACK CFI INIT cb68 134 .cfa: sp 0 +
STACK CFI INIT cc9c 120 .cfa: sp 0 +
STACK CFI INIT cdbc 1c8 .cfa: sp 0 +
STACK CFI INIT cf84 168 .cfa: sp 0 +
STACK CFI INIT d0ec fc .cfa: sp 0 +
STACK CFI INIT d1e8 30 .cfa: sp 0 +
STACK CFI INIT d350 30 .cfa: sp 0 +
STACK CFI INIT d380 98 .cfa: sp 0 +
STACK CFI INIT d418 59c .cfa: sp 0 +
STACK CFI INIT d9b4 8c .cfa: sp 0 +
STACK CFI INIT da40 30 .cfa: sp 0 +
STACK CFI INIT e644 18 .cfa: sp 0 +
STACK CFI INIT f3fc 50 .cfa: sp 0 +
STACK CFI f400 .cfa: sp 32 +
STACK CFI f408 .cfa: x29 32 + x19: .cfa -16 + ^ .ra: .cfa -24 + ^ x29: .cfa -32 + ^
STACK CFI f420 .cfa: sp 32 +
STACK CFI f428 .cfa: sp 0 +
STACK CFI f42c .cfa: x29 32 +
STACK CFI f440 .cfa: sp 32 +
STACK CFI f448 .cfa: sp 0 +
STACK CFI INIT f4c0 7c .cfa: sp 0 +
STACK CFI f4c4 .cfa: sp 48 +
STACK CFI f4d0 .cfa: x29 48 + x19: .cfa -8 + ^ x20: .cfa -16 + ^ x21: .cfa -32 + ^ .ra: .cfa -40 + ^ x29: .cfa -48 + ^
STACK CFI f51c .cfa: sp 48 +
STACK CFI f528 .cfa: sp 0 +
STACK CFI f52c .cfa: sp 48 +
STACK CFI f538 .cfa: sp 0 +
STACK CFI INIT f53c 4 .cfa: sp 0 +
STACK CFI INIT f540 10 .cfa: sp 0 +
STACK CFI f544 .cfa: sp 16 +
STACK CFI f548 .cfa: x29 16 + .ra: .cfa -8 + ^ x29: .cfa -16 + ^
STACK CFI INIT f6a4 34 .cfa: sp 0 +
STACK CFI f6a8 .cfa: sp 16 +
STACK CFI f6ac .cfa: x29 16 + .ra: .cfa -8 + ^ x29: .cfa -16 + ^
STACK CFI INIT f804 80 .cfa: sp 0 +
STACK CFI f808 .cfa: sp 48 +
STACK CFI f814 .cfa: x29 48 + x19: .cfa -8 + ^ x20: .cfa -16 + ^ x21: .cfa -32 + ^ .ra: .cfa -40 + ^ x29: .cfa -48 + ^
STACK CFI f874 .cfa: sp 48 +
STACK CFI f880 .cfa: sp 0 +
STACK CFI INIT f884 24 .cfa: sp 0 +
STACK CFI f888 .cfa: sp 32 +
STACK CFI f890 .cfa: x29 32 + x19: .cfa -16 + ^ .ra: .cfa -24 + ^ x29: .cfa -32 + ^
STACK CFI f89c .cfa: sp 32 +
STACK CFI f8a4 .cfa: sp 0 +
STACK CFI INIT fc28 14 .cfa: sp 0 +
STACK CFI fc2c .cfa: sp 16 +
STACK CFI fc30 .cfa: x29 16 + .ra: .cfa -8 + ^ x29: .cfa -16 + ^
STACK CFI INIT fc8c 30 .cfa: sp 0 +
STACK CFI fc90 .cfa: sp 32 +
STACK CFI fc98 .cfa: x29 32 + x19: .cfa -16 + ^ .ra: .cfa -24 + ^ x29: .cfa -32 + ^
STACK CFI fcb0 .cfa: sp 32 +
STACK CFI fcb8 .cfa: sp 0 +
STACK CFI INIT fcbc 34 .cfa: sp 0 +
STACK CFI fcc0 .cfa: sp 32 +
STACK CFI fcc8 .cfa: x29 32 + x19: .cfa -16 + ^ .ra: .cfa -24 + ^ x29: .cfa -32 + ^
STACK CFI INIT fe68 148 .cfa: sp 0 +
STACK CFI fe6c .cfa: sp 48 +
STACK CFI fe78 .cfa: x29 48 + x19: .cfa -8 + ^ x20: .cfa -16 + ^ x21: .cfa -32 + ^ .ra: .cfa -40 + ^ x29: .cfa -48 + ^
STACK CFI ffa0 .cfa: sp 48 +
STACK CFI ffac .cfa: sp 0 +
STACK CFI INIT ffb0 80 .cfa: sp 0 +
STACK CFI ffb4 .cfa: sp 48 +
STACK CFI ffc0 .cfa: x29 48 + x19: .cfa -8 + ^ x20: .cfa -16 + ^ x21: .cfa -24 + ^ x22: .cfa -32 + ^ .ra: .cfa -40 + ^ x29: .cfa -48 + ^
STACK CFI ffd8 .cfa: sp 48 +
STACK CFI ffe4 .cfa: sp 0 +
STACK CFI ffe8 .cfa: x29 48 +
STACK CFI 10018 .cfa: sp 48 +
STACK CFI 10024 .cfa: sp 0 +
STACK CFI 10028 .cfa: x29 48 +
STACK CFI INIT 10030 68 .cfa: sp 0 +
STACK CFI 10034 .cfa: sp 32 +
STACK CFI 1003c .cfa: x29 32 + x19: .cfa -8 + ^ x20: .cfa -16 + ^ .ra: .cfa -24 + ^ x29: .cfa -32 + ^
STACK CFI 10054 .cfa: sp 32 +
STACK CFI 1005c .cfa: sp 0 +
STACK CFI 10060 .cfa: x29 32 +
STACK CFI 1008c .cfa: sp 32 +
STACK CFI 10094 .cfa: sp 0 +
STACK CFI INIT 10098 14 .cfa: sp 0 +
STACK CFI 1009c .cfa: sp 16 +
STACK CFI 100a0 .cfa: x29 16 + .ra: .cfa -8 + ^ x29: .cfa -16 + ^
STACK CFI INIT 100ac 4 .cfa: sp 0 +
STACK CFI INIT 100b0 14 .cfa: sp 0 +
STACK CFI INIT 100c4 84 .cfa: sp 0 +
STACK CFI 100cc .cfa: sp 32 +
STACK CFI 100d4 .cfa: x29 32 + x19: .cfa -8 + ^ x20: .cfa -16 + ^ .ra: .cfa -24 + ^ x29: .cfa -32 + ^
STACK CFI 10114 .cfa: sp 32 +
STACK CFI 1011c .cfa: sp 0 +
STACK CFI 10124 .cfa: x29 32 +
STACK CFI INIT 10684 88 .cfa: sp 0 +
STACK CFI 10688 .cfa: sp 32 +
STACK CFI 10690 .cfa: x29 32 + x19: .cfa -16 + ^ .ra: .cfa -24 + ^ x29: .cfa -32 + ^
STACK CFI 10700 .cfa: sp 32 +
STACK CFI 10708 .cfa: sp 0 +
STACK CFI INIT 108d4 208 .cfa: sp 0 +
STACK CFI 108d8 .cfa: sp 112 +
STACK CFI 108ec .cfa: x29 64 + x19: .cfa -8 + ^ x20: .cfa -16 + ^ x21: .cfa -24 + ^ x22: .cfa -32 + ^ x23: .cfa -48 + ^ .ra: .cfa -56 + ^ x29: .cfa -64 + ^
STACK CFI 109e8 .cfa: sp 112 +
STACK CFI 109fc .cfa: sp 0 +
STACK CFI 10a00 .cfa: x29 64 +
STACK CFI INIT 10adc 88 .cfa: sp 0 +
STACK CFI 10ae0 .cfa: sp 32 +
STACK CFI 10ae8 .cfa: x29 32 + x19: .cfa -16 + ^ .ra: .cfa -24 + ^ x29: .cfa -32 + ^
STACK CFI 10b58 .cfa: sp 32 +
STACK CFI 10b60 .cfa: sp 0 +
STACK CFI INIT 10b64 150 .cfa: sp 0 +
STACK CFI 10b68 .cfa: sp 112 +
STACK CFI 10b7c .cfa: x29 64 + x19: .cfa -8 + ^ x20: .cfa -16 + ^ x21: .cfa -24 + ^ x22: .cfa -32 + ^ x23: .cfa -48 + ^ .ra: .cfa -56 + ^ x29: .cfa -64 + ^
STACK CFI 10c78 .cfa: sp 112 +
STACK CFI 10c8c .cfa: sp 0 +
STACK CFI 10c90 .cfa: x29 64 +
STACK CFI INIT 10f98 a8 .cfa: sp 0 +
STACK CFI 10f9c .cfa: sp 32 +
STACK CFI 10fa4 .cfa: x29 32 + x19: .cfa -16 + ^ .ra: .cfa -24 + ^ x29: .cfa -32 + ^
STACK CFI 11034 .cfa: sp 32 +
STACK CFI 1103c .cfa: sp 0 +
STACK CFI INIT 11040 50 .cfa: sp 0 +
STACK CFI 11044 .cfa: sp 32 +
STACK CFI 1104c .cfa: x29 32 + x19: .cfa -16 + ^ .ra: .cfa -24 + ^ x29: .cfa -32 + ^
STACK CFI 11064 .cfa: sp 32 +
STACK CFI 1106c .cfa: sp 0 +
STACK CFI 11070 .cfa: x29 32 +
STACK CFI 11084 .cfa: sp 32 +
STACK CFI 1108c .cfa: sp 0 +
STACK CFI INIT 11090 64 .cfa: sp 0 +
STACK CFI 11094 .cfa: sp 32 +
STACK CFI 1109c .cfa: x29 32 + x19: .cfa -16 + ^ .ra: .cfa -24 + ^ x29: .cfa -32 + ^
STACK CFI 110c8 .cfa: sp 32 +
STACK CFI 110d0 .cfa: sp 0 +
STACK CFI 110d4 .cfa: x29 32 +
STACK CFI 110e8 .cfa: sp 32 +
STACK CFI 110f0 .cfa: sp 0 +
STACK CFI INIT 11864 4 .cfa: sp 0 +
STACK CFI INIT 11868 14 .cfa: sp 0 +
STACK CFI 1186c .cfa: sp 16 +
STACK CFI 11870 .cfa: x29 16 + .ra: .cfa -8 + ^ x29: .cfa -16 + ^
STACK CFI INIT 1187c 14 .cfa: sp 0 +
STACK CFI 11880 .cfa: sp 16 +
STACK CFI 11884 .cfa: x29 16 + .ra: .cfa -8 + ^ x29: .cfa -16 + ^
STACK CFI INIT 11890 c .cfa: sp 0 +
STACK CFI 11894 .cfa: sp 16 +
STACK CFI 11898 .cfa: x29 16 + .ra: .cfa -8 + ^ x29: .cfa -16 + ^
STACK CFI INIT 118ec 30 .cfa: sp 0 +
STACK CFI 118f0 .cfa: sp 32 +
STACK CFI 118f8 .cfa: x29 32 + x19: .cfa -16 + ^ .ra: .cfa -24 + ^ x29: .cfa -32 + ^
STACK CFI 11910 .cfa: sp 32 +
STACK CFI 11918 .cfa: sp 0 +
STACK CFI INIT 1191c c .cfa: sp 0 +
STACK CFI 11920 .cfa: sp 16 +
STACK CFI 11924 .cfa: x29 16 + .ra: .cfa -8 + ^ x29: .cfa -16 + ^
STACK CFI INIT 11928 4 .cfa: sp 0 +
STACK CFI INIT 1192c 4 .cfa: sp 0 +
STACK CFI INIT 11930 38 .cfa: sp 0 +
STACK CFI 11934 .cfa: sp 32 +
STACK CFI 1193c .cfa: x29 32 + x19: .cfa -16 + ^ .ra: .cfa -24 + ^ x29: .cfa -32 + ^
STACK CFI 1195c .cfa: sp 32 +
STACK CFI 11964 .cfa: sp 0 +
STACK CFI INIT 11968 18 .cfa: sp 0 +
STACK CFI INIT 11980 4 .cfa: sp 0 +
STACK CFI INIT 11984 4 .cfa: sp 0 +
STACK CFI INIT 11988 10 .cfa: sp 0 +
STACK CFI INIT 11998 1c .cfa: sp 0 +
STACK CFI INIT 119b4 c .cfa: sp 0 +
STACK CFI INIT 119c0 168 .cfa: sp 0 +
STACK CFI 119c4 .cfa: sp 80 +
STACK CFI 119d8 .cfa: x29 80 + x19: .cfa -8 + ^ x20: .cfa -16 + ^ x21: .cfa -24 + ^ x22: .cfa -32 + ^ x23: .cfa -40 + ^ x24: .cfa -48 + ^ x25: .cfa -56 + ^ x26: .cfa -64 + ^ .ra: .cfa -72 + ^ x29: .cfa -80 + ^
STACK CFI 11b10 .cfa: sp 80 +
STACK CFI 11b24 .cfa: sp 0 +
STACK CFI INIT 11b28 1b0 .cfa: sp 0 +
STACK CFI INIT 11eb0 100 .cfa: sp 0 +
STACK CFI 11eb4 .cfa: sp 64 +
STACK CFI 11ec4 .cfa: x29 64 + x19: .cfa -8 + ^ x20: .cfa -16 + ^ x21: .cfa -24 + ^ x22: .cfa -32 + ^ x23: .cfa -40 + ^ x24: .cfa -48 + ^ .ra: .cfa -56 + ^ x29: .cfa -64 + ^
STACK CFI 11f9c .cfa: sp 64 +
STACK CFI 11fac .cfa: sp 0 +
STACK CFI INIT 122e8 3c .cfa: sp 0 +
STACK CFI 122ec .cfa: sp 32 +
STACK CFI 122f4 .cfa: x29 32 + x19: .cfa -16 + ^ .ra: .cfa -24 + ^ x29: .cfa -32 + ^
STACK CFI 12300 .cfa: sp 32 +
STACK CFI 12308 .cfa: sp 0 +
STACK CFI 1230c .cfa: x29 32 +
STACK CFI 12318 .cfa: sp 32 +
STACK CFI 12320 .cfa: sp 0 +
STACK CFI INIT 12544 64 .cfa: sp 0 +
STACK CFI 12548 .cfa: sp 32 +
STACK CFI 12550 .cfa: x29 32 + x19: .cfa -16 + ^ .ra: .cfa -24 + ^ x29: .cfa -32 + ^
STACK CFI 1257c .cfa: sp 32 +
STACK CFI 12584 .cfa: sp 0 +
STACK CFI 12588 .cfa: x29 32 +
STACK CFI 1259c .cfa: sp 32 +
STACK CFI 125a4 .cfa: sp 0 +
STACK CFI INIT 12a80 4 .cfa: sp 0 +
STACK CFI INIT 12a84 14 .cfa: sp 0 +
STACK CFI INIT 12a98 c .cfa: sp 0 +
STACK CFI INIT 12aa4 24c .cfa: sp 0 +
STACK CFI INIT 12cf0 a0 .cfa: sp 0 +
STACK CFI 12cfc .cfa: sp 32 +
STACK CFI 12d54 .cfa: sp 0 +
STACK CFI 12d58 .cfa: sp 32 +
STACK CFI 12d60 .cfa: sp 0 +
STACK CFI 12d64 .cfa: sp 32 +
STACK CFI 12d78 .cfa: sp 0 +
STACK CFI 12d7c .cfa: sp 32 +
STACK CFI 12d8c .cfa: sp 0 +
STACK CFI INIT 12d90 38 .cfa: sp 0 +
STACK CFI 12d9c .cfa: sp 32 +
STACK CFI 12dc4 .cfa: sp 0 +
STACK CFI INIT 1305c 7c .cfa: sp 0 +
STACK CFI 13060 .cfa: sp 32 +
STACK CFI 13068 .cfa: x29 32 + x19: .cfa -16 + ^ .ra: .cfa -24 + ^ x29: .cfa -32 + ^
STACK CFI 13094 .cfa: sp 32 +
STACK CFI 1309c .cfa: sp 0 +
STACK CFI 130a0 .cfa: x29 32 +
STACK CFI 130cc .cfa: sp 32 +
STACK CFI 130d4 .cfa: sp 0 +
STACK CFI INIT 13128 2c .cfa: sp 0 +
STACK CFI 1312c .cfa: sp 32 +
STACK CFI 13134 .cfa: x29 32 + x19: .cfa -16 + ^ .ra: .cfa -24 + ^ x29: .cfa -32 + ^
STACK CFI 13148 .cfa: sp 32 +
STACK CFI 13150 .cfa: sp 0 +
STACK CFI INIT 13914 64 .cfa: sp 0 +
STACK CFI 13918 .cfa: sp 32 +
STACK CFI 13920 .cfa: x29 32 + x19: .cfa -16 + ^ .ra: .cfa -24 + ^ x29: .cfa -32 + ^
STACK CFI 1393c .cfa: sp 32 +
STACK CFI 13944 .cfa: sp 0 +
STACK CFI 13948 .cfa: x29 32 +
STACK CFI 1396c .cfa: sp 32 +
STACK CFI 13974 .cfa: sp 0 +
STACK CFI INIT 13978 570 .cfa: sp 0 +
STACK CFI 1397c .cfa: sp 176 +
STACK CFI 13990 .cfa: x29 64 + x19: .cfa -8 + ^ x20: .cfa -16 + ^ x21: .cfa -24 + ^ x22: .cfa -32 + ^ x23: .cfa -40 + ^ x24: .cfa -48 + ^ .ra: .cfa -56 + ^ x29: .cfa -64 + ^
STACK CFI 13bc0 .cfa: sp 176 +
STACK CFI 13bd4 .cfa: sp 0 +
STACK CFI 13bd8 .cfa: x29 64 +
STACK CFI 13c24 .cfa: sp 176 +
STACK CFI 13c38 .cfa: sp 0 +
STACK CFI 13c3c .cfa: x29 64 +
STACK CFI 13c74 .cfa: sp 176 +
STACK CFI 13c88 .cfa: sp 0 +
STACK CFI 13c8c .cfa: x29 64 +
STACK CFI 13ca4 .cfa: sp 176 +
STACK CFI 13cb8 .cfa: sp 0 +
STACK CFI 13cbc .cfa: x29 64 +
STACK CFI 13cdc .cfa: sp 176 +
STACK CFI 13cf0 .cfa: sp 0 +
STACK CFI 13cf4 .cfa: x29 64 +
STACK CFI 13d0c .cfa: sp 176 +
STACK CFI 13d20 .cfa: sp 0 +
STACK CFI 13d24 .cfa: x29 64 +
STACK CFI 13d38 .cfa: sp 176 +
STACK CFI 13d4c .cfa: sp 0 +
STACK CFI 13d50 .cfa: x29 64 +
STACK CFI 13d64 .cfa: sp 176 +
STACK CFI 13d78 .cfa: sp 0 +
STACK CFI 13d7c .cfa: x29 64 +
STACK CFI 13d8c .cfa: sp 176 +
STACK CFI 13da0 .cfa: sp 0 +
STACK CFI 13da4 .cfa: x29 64 +
STACK CFI 13db4 .cfa: sp 176 +
STACK CFI 13dc8 .cfa: sp 0 +
STACK CFI 13dcc .cfa: x29 64 +
STACK CFI 13de4 .cfa: sp 176 +
STACK CFI 13df8 .cfa: sp 0 +
STACK CFI 13dfc .cfa: x29 64 +
STACK CFI 13e10 .cfa: sp 176 +
STACK CFI 13e24 .cfa: sp 0 +
STACK CFI 13e28 .cfa: x29 64 +
STACK CFI 13e40 .cfa: sp 176 +
STACK CFI 13e54 .cfa: sp 0 +
STACK CFI 13e58 .cfa: x29 64 +
STACK CFI 13e84 .cfa: sp 176 +
STACK CFI 13e98 .cfa: sp 0 +
STACK CFI 13e9c .cfa: x29 64 +
STACK CFI 13eb0 .cfa: sp 176 +
STACK CFI 13ec4 .cfa: sp 0 +
STACK CFI 13ec8 .cfa: x29 64 +
STACK CFI INIT 13ee8 228 .cfa: sp 0 +
STACK CFI INIT 14110 2dc .cfa: sp 0 +
STACK CFI INIT 143ec 53c .cfa: sp 0 +
STACK CFI INIT 14928 78 .cfa: sp 0 +
STACK CFI 1492c .cfa: sp 48 +
STACK CFI 14938 .cfa: x29 48 + x19: .cfa -8 + ^ x20: .cfa -16 + ^ x21: .cfa -24 + ^ x22: .cfa -32 + ^ .ra: .cfa -40 + ^ x29: .cfa -48 + ^
STACK CFI 14980 .cfa: sp 48 +
STACK CFI 1498c .cfa: sp 0 +
STACK CFI 14990 .cfa: sp 48 +
STACK CFI 1499c .cfa: sp 0 +
STACK CFI INIT 149a0 8c .cfa: sp 0 +
STACK CFI 149a4 .cfa: sp 32 +
STACK CFI 149ac .cfa: x29 32 + x19: .cfa -16 + ^ .ra: .cfa -24 + ^ x29: .cfa -32 + ^
STACK CFI 149e0 .cfa: sp 32 +
STACK CFI 149e8 .cfa: sp 0 +
STACK CFI 149ec .cfa: x29 32 +
STACK CFI 14a20 .cfa: sp 32 +
STACK CFI 14a28 .cfa: sp 0 +
STACK CFI INIT 14a2c 24 .cfa: sp 0 +
STACK CFI 14a30 .cfa: sp 32 +
STACK CFI 14a38 .cfa: x29 32 + x19: .cfa -16 + ^ .ra: .cfa -24 + ^ x29: .cfa -32 + ^
STACK CFI 14a44 .cfa: sp 32 +
STACK CFI 14a4c .cfa: sp 0 +
STACK CFI INIT 14a50 150 .cfa: sp 0 +
STACK CFI 14a54 .cfa: sp 48 +
STACK CFI 14a60 .cfa: x29 48 + x19: .cfa -8 + ^ x20: .cfa -16 + ^ x21: .cfa -24 + ^ x22: .cfa -32 + ^ .ra: .cfa -40 + ^ x29: .cfa -48 + ^
STACK CFI 14b90 .cfa: sp 48 +
STACK CFI 14b9c .cfa: sp 0 +
STACK CFI INIT 14ba0 68 .cfa: sp 0 +
STACK CFI 14ba4 .cfa: sp 64 +
STACK CFI 14bb0 .cfa: x29 32 + x19: .cfa -16 + ^ .ra: .cfa -24 + ^ x29: .cfa -32 + ^
STACK CFI 14bf4 .cfa: sp 64 +
STACK CFI 14c00 .cfa: sp 0 +
STACK CFI 14c04 .cfa: x29 32 +
STACK CFI INIT 14c08 90 .cfa: sp 0 +
STACK CFI 14c0c .cfa: sp 32 +
STACK CFI 14c14 .cfa: x29 32 + x19: .cfa -8 + ^ x20: .cfa -16 + ^ .ra: .cfa -24 + ^ x29: .cfa -32 + ^
STACK CFI 14c40 .cfa: sp 32 +
STACK CFI 14c48 .cfa: sp 0 +
STACK CFI 14c4c .cfa: x29 32 +
STACK CFI 14c8c .cfa: sp 32 +
STACK CFI 14c94 .cfa: sp 0 +
STACK CFI INIT 14c98 ec .cfa: sp 0 +
STACK CFI 14c9c .cfa: sp 112 +
STACK CFI 14cac .cfa: x29 48 + x19: .cfa -8 + ^ x20: .cfa -16 + ^ x21: .cfa -32 + ^ .ra: .cfa -40 + ^ x29: .cfa -48 + ^
STACK CFI 14d6c .cfa: sp 112 +
STACK CFI 14d7c .cfa: sp 0 +
STACK CFI 14d80 .cfa: x29 48 +
STACK CFI INIT 14d84 ec .cfa: sp 0 +
STACK CFI 14d88 .cfa: sp 112 +
STACK CFI 14d98 .cfa: x29 48 + x19: .cfa -8 + ^ x20: .cfa -16 + ^ x21: .cfa -32 + ^ .ra: .cfa -40 + ^ x29: .cfa -48 + ^
STACK CFI 14e58 .cfa: sp 112 +
STACK CFI 14e68 .cfa: sp 0 +
STACK CFI 14e6c .cfa: x29 48 +
STACK CFI INIT 14e70 48 .cfa: sp 0 +
STACK CFI 14e74 .cfa: sp 32 +
STACK CFI 14e7c .cfa: x29 32 + x19: .cfa -8 + ^ x20: .cfa -16 + ^ .ra: .cfa -24 + ^ x29: .cfa -32 + ^
STACK CFI 14ea0 .cfa: sp 32 +
STACK CFI 14ea8 .cfa: sp 0 +
STACK CFI 14eac .cfa: x29 32 +
STACK CFI INIT 14eb8 98 .cfa: sp 0 +
STACK CFI 14ebc .cfa: sp 80 +
STACK CFI 14ec8 .cfa: x29 32 + x19: .cfa -16 + ^ .ra: .cfa -24 + ^ x29: .cfa -32 + ^
STACK CFI 14f3c .cfa: sp 80 +
STACK CFI 14f48 .cfa: sp 0 +
STACK CFI 14f4c .cfa: x29 32 +
STACK CFI INIT 14f50 260 .cfa: sp 0 +
STACK CFI 14f54 .cfa: sp 112 +
STACK CFI 14f6c .cfa: x29 80 + x19: .cfa -8 + ^ x20: .cfa -16 + ^ x21: .cfa -24 + ^ x22: .cfa -32 + ^ x23: .cfa -40 + ^ x24: .cfa -48 + ^ x25: .cfa -64 + ^ .ra: .cfa -72 + ^ x29: .cfa -80 + ^
STACK CFI 15150 .cfa: sp 112 +
STACK CFI 15168 .cfa: sp 0 +
STACK CFI 1516c .cfa: x29 80 +
STACK CFI INIT 151b0 150 .cfa: sp 0 +
STACK CFI 151b4 .cfa: sp 48 +
STACK CFI 151c0 .cfa: x29 48 + x19: .cfa -8 + ^ x20: .cfa -16 + ^ x21: .cfa -24 + ^ x22: .cfa -32 + ^ .ra: .cfa -40 + ^ x29: .cfa -48 + ^
STACK CFI 152f0 .cfa: sp 48 +
STACK CFI 152fc .cfa: sp 0 +
STACK CFI INIT 15300 1e0 .cfa: sp 0 +
STACK CFI 15304 .cfa: sp 96 +
STACK CFI 15318 .cfa: x29 64 + x19: .cfa -8 + ^ x20: .cfa -16 + ^ x21: .cfa -24 + ^ x22: .cfa -32 + ^ x23: .cfa -40 + ^ x24: .cfa -48 + ^ .ra: .cfa -56 + ^ x29: .cfa -64 + ^
STACK CFI 15498 .cfa: sp 96 +
STACK CFI 154ac .cfa: sp 0 +
STACK CFI 154b0 .cfa: x29 64 +
STACK CFI INIT 154e0 284 .cfa: sp 0 +
STACK CFI 154e4 .cfa: sp 112 +
STACK CFI 154fc .cfa: x29 80 + x19: .cfa -8 + ^ x20: .cfa -16 + ^ x21: .cfa -24 + ^ x22: .cfa -32 + ^ x23: .cfa -40 + ^ x24: .cfa -48 + ^ x25: .cfa -64 + ^ .ra: .cfa -72 + ^ x29: .cfa -80 + ^
STACK CFI 15704 .cfa: sp 112 +
STACK CFI 1571c .cfa: sp 0 +
STACK CFI 15720 .cfa: x29 80 +
STACK CFI INIT 15764 208 .cfa: sp 0 +
STACK CFI 15768 .cfa: sp 96 +
STACK CFI 1577c .cfa: x29 64 + x19: .cfa -8 + ^ x20: .cfa -16 + ^ x21: .cfa -24 + ^ x22: .cfa -32 + ^ x23: .cfa -40 + ^ x24: .cfa -48 + ^ .ra: .cfa -56 + ^ x29: .cfa -64 + ^
STACK CFI 15924 .cfa: sp 96 +
STACK CFI 15938 .cfa: sp 0 +
STACK CFI 1593c .cfa: x29 64 +
STACK CFI INIT 1596c 360 .cfa: sp 0 +
STACK CFI 15970 .cfa: sp 160 +
STACK CFI 1598c .cfa: x29 96 + x19: .cfa -8 + ^ x20: .cfa -16 + ^ x21: .cfa -24 + ^ x22: .cfa -32 + ^ x23: .cfa -40 + ^ x24: .cfa -48 + ^ x25: .cfa -56 + ^ x26: .cfa -64 + ^ x27: .cfa -72 + ^ x28: .cfa -80 + ^ .ra: .cfa -88 + ^ x29: .cfa -96 + ^
STACK CFI 15c58 .cfa: sp 160 +
STACK CFI 15c74 .cfa: sp 0 +
STACK CFI 15c78 .cfa: x29 96 +
STACK CFI INIT 15ccc 314 .cfa: sp 0 +
STACK CFI 15cd0 .cfa: sp 144 +
STACK CFI 15cec .cfa: x29 96 + x19: .cfa -8 + ^ x20: .cfa -16 + ^ x21: .cfa -24 + ^ x22: .cfa -32 + ^ x23: .cfa -40 + ^ x24: .cfa -48 + ^ x25: .cfa -56 + ^ x26: .cfa -64 + ^ x27: .cfa -72 + ^ x28: .cfa -80 + ^ .ra: .cfa -88 + ^ x29: .cfa -96 + ^
STACK CFI 15f68 .cfa: sp 144 +
STACK CFI 15f84 .cfa: sp 0 +
STACK CFI 15f88 .cfa: x29 96 +
STACK CFI INIT 15fe0 290 .cfa: sp 0 +
STACK CFI 15fe4 .cfa: sp 128 +
STACK CFI 15ffc .cfa: x29 80 + x19: .cfa -8 + ^ x20: .cfa -16 + ^ x21: .cfa -24 + ^ x22: .cfa -32 + ^ x23: .cfa -40 + ^ x24: .cfa -48 + ^ x25: .cfa -56 + ^ x26: .cfa -64 + ^ .ra: .cfa -72 + ^ x29: .cfa -80 + ^
STACK CFI 16250 .cfa: sp 128 +
STACK CFI 16268 .cfa: sp 0 +
STACK CFI 1626c .cfa: x29 80 +
STACK CFI INIT 16270 ddc .cfa: sp 0 +
STACK CFI 16274 .cfa: sp 144 +
STACK CFI 16290 .cfa: x29 96 + x19: .cfa -8 + ^ x20: .cfa -16 + ^ x21: .cfa -24 + ^ x22: .cfa -32 + ^ x23: .cfa -40 + ^ x24: .cfa -48 + ^ x25: .cfa -56 + ^ x26: .cfa -64 + ^ x27: .cfa -72 + ^ x28: .cfa -80 + ^ .ra: .cfa -88 + ^ x29: .cfa -96 + ^
STACK CFI 16f24 .cfa: sp 144 +
STACK CFI 16f40 .cfa: sp 0 +
STACK CFI 16f44 .cfa: x29 96 +
STACK CFI INIT 1704c 1d0 .cfa: sp 0 +
STACK CFI 17050 .cfa: sp 80 +
STACK CFI 17064 .cfa: x29 80 + x19: .cfa -8 + ^ x20: .cfa -16 + ^ x21: .cfa -24 + ^ x22: .cfa -32 + ^ x23: .cfa -40 + ^ x24: .cfa -48 + ^ x25: .cfa -64 + ^ .ra: .cfa -72 + ^ x29: .cfa -80 + ^
STACK CFI 17204 .cfa: sp 80 +
STACK CFI 17218 .cfa: sp 0 +
STACK CFI INIT 1721c 23c .cfa: sp 0 +
STACK CFI 17220 .cfa: sp 112 +
STACK CFI 17234 .cfa: x29 64 + x19: .cfa -8 + ^ x20: .cfa -16 + ^ x21: .cfa -24 + ^ x22: .cfa -32 + ^ x23: .cfa -40 + ^ x24: .cfa -48 + ^ .ra: .cfa -56 + ^ x29: .cfa -64 + ^
STACK CFI 17410 .cfa: sp 112 +
STACK CFI 17424 .cfa: sp 0 +
STACK CFI 17428 .cfa: x29 64 +
STACK CFI INIT 17458 30c .cfa: sp 0 +
STACK CFI 1745c .cfa: sp 80 +
STACK CFI 17470 .cfa: x29 64 + x19: .cfa -8 + ^ x20: .cfa -16 + ^ x21: .cfa -24 + ^ x22: .cfa -32 + ^ x23: .cfa -40 + ^ x24: .cfa -48 + ^ .ra: .cfa -56 + ^ x29: .cfa -64 + ^
STACK CFI 175ec .cfa: sp 80 +
STACK CFI 17600 .cfa: sp 0 +
STACK CFI 17604 .cfa: x29 64 +
STACK CFI INIT 17764 178 .cfa: sp 0 +
STACK CFI 17768 .cfa: sp 80 +
STACK CFI 1777c .cfa: x29 64 + x19: .cfa -8 + ^ x20: .cfa -16 + ^ x21: .cfa -24 + ^ x22: .cfa -32 + ^ x23: .cfa -40 + ^ x24: .cfa -48 + ^ .ra: .cfa -56 + ^ x29: .cfa -64 + ^
STACK CFI 178c0 .cfa: sp 80 +
STACK CFI 178d4 .cfa: sp 0 +
STACK CFI 178d8 .cfa: x29 64 +
STACK CFI INIT 178dc 178 .cfa: sp 0 +
STACK CFI 178e0 .cfa: sp 80 +
STACK CFI 178f4 .cfa: x29 64 + x19: .cfa -8 + ^ x20: .cfa -16 + ^ x21: .cfa -24 + ^ x22: .cfa -32 + ^ x23: .cfa -40 + ^ x24: .cfa -48 + ^ .ra: .cfa -56 + ^ x29: .cfa -64 + ^
STACK CFI 17a38 .cfa: sp 80 +
STACK CFI 17a4c .cfa: sp 0 +
STACK CFI 17a50 .cfa: x29 64 +
STACK CFI INIT 17a54 240 .cfa: sp 0 +
STACK CFI 17a58 .cfa: sp 96 +
STACK CFI 17a70 .cfa: x29 96 + x19: .cfa -8 + ^ x20: .cfa -16 + ^ x21: .cfa -24 + ^ x22: .cfa -32 + ^ x23: .cfa -40 + ^ x24: .cfa -48 + ^ x25: .cfa -56 + ^ x26: .cfa -64 + ^ x27: .cfa -72 + ^ x28: .cfa -80 + ^ .ra: .cfa -88 + ^ x29: .cfa -96 + ^
STACK CFI 17c78 .cfa: sp 96 +
STACK CFI 17c90 .cfa: sp 0 +
STACK CFI INIT 18908 154 .cfa: sp 0 +
STACK CFI 1890c .cfa: sp 96 +
STACK CFI 18920 .cfa: x29 64 + x19: .cfa -8 + ^ x20: .cfa -16 + ^ x21: .cfa -24 + ^ x22: .cfa -32 + ^ x23: .cfa -48 + ^ .ra: .cfa -56 + ^ x29: .cfa -64 + ^
STACK CFI 18a00 .cfa: sp 96 +
STACK CFI 18a14 .cfa: sp 0 +
STACK CFI 18a18 .cfa: x29 64 +
STACK CFI INIT 18cc8 44 .cfa: sp 0 +
STACK CFI 18ccc .cfa: sp 32 +
STACK CFI 18cd4 .cfa: x29 32 + x19: .cfa -16 + ^ .ra: .cfa -24 + ^ x29: .cfa -32 + ^
STACK CFI 18cf0 .cfa: sp 32 +
STACK CFI 18cf8 .cfa: sp 0 +
STACK CFI 18cfc .cfa: x29 32 +
STACK CFI 18d00 .cfa: sp 32 +
STACK CFI 18d08 .cfa: sp 0 +
STACK CFI INIT 18d0c 1d0 .cfa: sp 0 +
STACK CFI 18d10 .cfa: sp 64 +
STACK CFI 18d20 .cfa: x29 64 + x19: .cfa -8 + ^ x20: .cfa -16 + ^ x21: .cfa -24 + ^ x22: .cfa -32 + ^ x23: .cfa -40 + ^ x24: .cfa -48 + ^ .ra: .cfa -56 + ^ x29: .cfa -64 + ^
STACK CFI 18de0 .cfa: sp 64 +
STACK CFI 18df0 .cfa: sp 0 +
STACK CFI 18df4 .cfa: x29 64 +
STACK CFI INIT 18edc 17c .cfa: sp 0 +
STACK CFI INIT 19058 ac .cfa: sp 0 +
STACK CFI 1905c .cfa: sp 64 +
STACK CFI 1906c .cfa: x29 64 + x19: .cfa -8 + ^ x20: .cfa -16 + ^ x21: .cfa -24 + ^ x22: .cfa -32 + ^ x23: .cfa -48 + ^ .ra: .cfa -56 + ^ x29: .cfa -64 + ^
STACK CFI 190e8 .cfa: sp 64 +
STACK CFI 190f8 .cfa: sp 0 +
STACK CFI 190fc .cfa: x29 64 +
STACK CFI INIT 19104 110 .cfa: sp 0 +
STACK CFI 19108 .cfa: sp 64 +
STACK CFI 19118 .cfa: x29 64 + x19: .cfa -8 + ^ x20: .cfa -16 + ^ x21: .cfa -24 + ^ x22: .cfa -32 + ^ x23: .cfa -40 + ^ x24: .cfa -48 + ^ .ra: .cfa -56 + ^ x29: .cfa -64 + ^
STACK CFI 191f8 .cfa: sp 64 +
STACK CFI 19208 .cfa: sp 0 +
STACK CFI 1920c .cfa: x29 64 +
STACK CFI INIT 195cc a0 .cfa: sp 0 +
STACK CFI 195d0 .cfa: sp 48 +
STACK CFI 195dc .cfa: x29 48 + x19: .cfa -8 + ^ x20: .cfa -16 + ^ x21: .cfa -24 + ^ x22: .cfa -32 + ^ .ra: .cfa -40 + ^ x29: .cfa -48 + ^
STACK CFI 19648 .cfa: sp 48 +
STACK CFI 19654 .cfa: sp 0 +
STACK CFI 19658 .cfa: sp 48 +
STACK CFI 19664 .cfa: sp 0 +
STACK CFI 19668 .cfa: x29 48 +
STACK CFI INIT 1a320 158 .cfa: sp 0 +
STACK CFI 1a324 .cfa: sp 96 +
STACK CFI 1a338 .cfa: x29 64 + x19: .cfa -8 + ^ x20: .cfa -16 + ^ x21: .cfa -24 + ^ x22: .cfa -32 + ^ x23: .cfa -48 + ^ .ra: .cfa -56 + ^ x29: .cfa -64 + ^
STACK CFI 1a41c .cfa: sp 96 +
STACK CFI 1a430 .cfa: sp 0 +
STACK CFI 1a434 .cfa: x29 64 +
STACK CFI INIT 1a478 190 .cfa: sp 0 +
STACK CFI INIT 1b104 1dc .cfa: sp 0 +
STACK CFI 1b108 .cfa: sp 80 +
STACK CFI 1b11c .cfa: x29 80 + x19: .cfa -8 + ^ x20: .cfa -16 + ^ x21: .cfa -24 + ^ x22: .cfa -32 + ^ x23: .cfa -40 + ^ x24: .cfa -48 + ^ x25: .cfa -64 + ^ .ra: .cfa -72 + ^ x29: .cfa -80 + ^
STACK CFI 1b2c8 .cfa: sp 80 +
STACK CFI 1b2dc .cfa: sp 0 +
STACK CFI INIT 1c710 124 .cfa: sp 0 +
STACK CFI 1c740 .cfa: sp 32 +
STACK CFI 1c748 .cfa: x29 32 + x19: .cfa -8 + ^ x20: .cfa -16 + ^ .ra: .cfa -24 + ^ x29: .cfa -32 + ^
STACK CFI 1c828 .cfa: sp 32 +
STACK CFI 1c830 .cfa: sp 0 +
STACK CFI INIT 1cf90 320 .cfa: sp 0 +
STACK CFI 1cf94 .cfa: sp 64 +
STACK CFI 1cfa4 .cfa: x29 64 + x19: .cfa -8 + ^ x20: .cfa -16 + ^ x21: .cfa -24 + ^ x22: .cfa -32 + ^ x23: .cfa -40 + ^ x24: .cfa -48 + ^ .ra: .cfa -56 + ^ x29: .cfa -64 + ^
STACK CFI 1d020 .cfa: sp 64 +
STACK CFI 1d030 .cfa: sp 0 +
STACK CFI 1d034 .cfa: x29 64 +
STACK CFI 1d208 .cfa: sp 64 +
STACK CFI 1d218 .cfa: sp 0 +
STACK CFI 1d21c .cfa: x29 64 +
STACK CFI 1d22c .cfa: sp 64 +
STACK CFI 1d23c .cfa: sp 0 +
STACK CFI 1d240 .cfa: x29 64 +
STACK CFI INIT 1d2b0 a0 .cfa: sp 0 +
STACK CFI 1d2b4 .cfa: sp 48 +
STACK CFI 1d2c0 .cfa: x29 48 + x19: .cfa -8 + ^ x20: .cfa -16 + ^ x21: .cfa -24 + ^ x22: .cfa -32 + ^ .ra: .cfa -40 + ^ x29: .cfa -48 + ^
STACK CFI 1d32c .cfa: sp 48 +
STACK CFI 1d338 .cfa: sp 0 +
STACK CFI 1d33c .cfa: sp 48 +
STACK CFI 1d348 .cfa: sp 0 +
STACK CFI 1d34c .cfa: x29 48 +
STACK CFI INIT 1e200 160 .cfa: sp 0 +
STACK CFI 1e204 .cfa: sp 64 +
STACK CFI 1e214 .cfa: x29 64 + x19: .cfa -8 + ^ x20: .cfa -16 + ^ x21: .cfa -24 + ^ x22: .cfa -32 + ^ x23: .cfa -48 + ^ .ra: .cfa -56 + ^ x29: .cfa -64 + ^
STACK CFI 1e30c .cfa: sp 64 +
STACK CFI 1e31c .cfa: sp 0 +
STACK CFI 1e320 .cfa: x29 64 +
STACK CFI INIT 1e360 214 .cfa: sp 0 +
STACK CFI 1e364 .cfa: sp 128 +
STACK CFI 1e380 .cfa: x29 96 + x19: .cfa -8 + ^ x20: .cfa -16 + ^ x21: .cfa -24 + ^ x22: .cfa -32 + ^ x23: .cfa -40 + ^ x24: .cfa -48 + ^ x25: .cfa -56 + ^ x26: .cfa -64 + ^ x27: .cfa -80 + ^ .ra: .cfa -88 + ^ x29: .cfa -96 + ^
STACK CFI 1e4fc .cfa: sp 128 +
STACK CFI 1e518 .cfa: sp 0 +
STACK CFI 1e51c .cfa: x29 96 +
STACK CFI INIT 20210 290 .cfa: sp 0 +
STACK CFI 20214 .cfa: sp 16 +
STACK CFI 20218 .cfa: x29 16 + .ra: .cfa -8 + ^ x29: .cfa -16 + ^
STACK CFI 202a4 .cfa: sp 16 +
STACK CFI 202a8 .cfa: sp 0 +
STACK CFI 202ac .cfa: x29 16 +
STACK CFI 202fc .cfa: sp 16 +
STACK CFI 20300 .cfa: sp 0 +
STACK CFI 20304 .cfa: x29 16 +
STACK CFI 20468 .cfa: sp 16 +
STACK CFI 2046c .cfa: sp 0 +
STACK CFI 20470 .cfa: x29 16 +
STACK CFI INIT 204a0 158 .cfa: sp 0 +
STACK CFI 204a4 .cfa: sp 112 +
STACK CFI 204c0 .cfa: x29 96 + x19: .cfa -8 + ^ x20: .cfa -16 + ^ x21: .cfa -24 + ^ x22: .cfa -32 + ^ x23: .cfa -40 + ^ x24: .cfa -48 + ^ x25: .cfa -56 + ^ x26: .cfa -64 + ^ x27: .cfa -72 + ^ x28: .cfa -80 + ^ .ra: .cfa -88 + ^ x29: .cfa -96 + ^
STACK CFI 205a8 .cfa: sp 112 +
STACK CFI 205ac .cfa: x29 96 +
STACK CFI 205b4 .cfa: sp 112 +
STACK CFI 205d0 .cfa: sp 0 +
STACK CFI 205d4 .cfa: x29 96 +
STACK CFI 205f4 .cfa: sp 112 +
STACK CFI INIT 205f8 e54 .cfa: sp 0 +
STACK CFI 205fc .cfa: sp 192 +
STACK CFI 20618 .cfa: x29 96 + x19: .cfa -8 + ^ x20: .cfa -16 + ^ x21: .cfa -24 + ^ x22: .cfa -32 + ^ x23: .cfa -40 + ^ x24: .cfa -48 + ^ x25: .cfa -56 + ^ x26: .cfa -64 + ^ x27: .cfa -72 + ^ x28: .cfa -80 + ^ .ra: .cfa -88 + ^ x29: .cfa -96 + ^
STACK CFI 21334 .cfa: sp 192 +
STACK CFI 21350 .cfa: sp 0 +
STACK CFI 21354 .cfa: x29 96 +
STACK CFI INIT 2144c 1068 .cfa: sp 0 +
STACK CFI 21450 .cfa: sp 288 +
STACK CFI 2146c .cfa: x29 96 + x19: .cfa -8 + ^ x20: .cfa -16 + ^ x21: .cfa -24 + ^ x22: .cfa -32 + ^ x23: .cfa -40 + ^ x24: .cfa -48 + ^ x25: .cfa -56 + ^ x26: .cfa -64 + ^ x27: .cfa -72 + ^ x28: .cfa -80 + ^ .ra: .cfa -88 + ^ x29: .cfa -96 + ^
STACK CFI 221fc .cfa: sp 288 +
STACK CFI 22218 .cfa: sp 0 +
STACK CFI 2221c .cfa: x29 96 +
STACK CFI INIT 224b4 520 .cfa: sp 0 +
STACK CFI 224b8 .cfa: sp 144 +
STACK CFI 224d4 .cfa: x29 96 + x19: .cfa -8 + ^ x20: .cfa -16 + ^ x21: .cfa -24 + ^ x22: .cfa -32 + ^ x23: .cfa -40 + ^ x24: .cfa -48 + ^ x25: .cfa -56 + ^ x26: .cfa -64 + ^ x27: .cfa -72 + ^ x28: .cfa -80 + ^ .ra: .cfa -88 + ^ x29: .cfa -96 + ^
STACK CFI 229b0 .cfa: sp 144 +
STACK CFI 229cc .cfa: sp 0 +
STACK CFI 229d0 .cfa: x29 96 +
STACK CFI INIT 23374 136c .cfa: sp 0 +
STACK CFI 23378 .cfa: sp 224 +
STACK CFI 23394 .cfa: x29 96 + x19: .cfa -8 + ^ x20: .cfa -16 + ^ x21: .cfa -24 + ^ x22: .cfa -32 + ^ x23: .cfa -40 + ^ x24: .cfa -48 + ^ x25: .cfa -56 + ^ x26: .cfa -64 + ^ x27: .cfa -72 + ^ x28: .cfa -80 + ^ .ra: .cfa -88 + ^ x29: .cfa -96 + ^
STACK CFI 246bc .cfa: sp 224 +
STACK CFI 246d8 .cfa: sp 0 +
STACK CFI 246dc .cfa: x29 96 +
STACK CFI INIT 246e0 1b8 .cfa: sp 0 +
STACK CFI INIT da70 bd4 .cfa: sp 0 +
STACK CFI da74 .cfa: sp 240 +
STACK CFI da90 .cfa: x29 96 + x19: .cfa -8 + ^ x20: .cfa -16 + ^ x21: .cfa -24 + ^ x22: .cfa -32 + ^ x23: .cfa -40 + ^ x24: .cfa -48 + ^ x25: .cfa -56 + ^ x26: .cfa -64 + ^ x27: .cfa -72 + ^ x28: .cfa -80 + ^ .ra: .cfa -88 + ^ x29: .cfa -96 + ^
STACK CFI de6c .cfa: sp 240 +
STACK CFI de88 .cfa: sp 0 +
STACK CFI de8c .cfa: x29 96 +
STACK CFI e4ec .cfa: sp 240 +
STACK CFI e508 .cfa: sp 0 +
STACK CFI e50c .cfa: x29 96 +
STACK CFI INIT e65c da0 .cfa: sp 0 +
STACK CFI e660 .cfa: sp 288 +
STACK CFI e678 .cfa: x29 80 + x19: .cfa -8 + ^ x20: .cfa -16 + ^ x21: .cfa -24 + ^ x22: .cfa -32 + ^ x23: .cfa -40 + ^ x24: .cfa -48 + ^ x25: .cfa -56 + ^ x28: .cfa -64 + ^ .ra: .cfa -72 + ^ x29: .cfa -80 + ^
STACK CFI f030 .cfa: sp 288 +
STACK CFI f048 .cfa: sp 0 +
STACK CFI f04c .cfa: x29 80 +
STACK CFI INIT f44c 74 .cfa: sp 0 +
STACK CFI f450 .cfa: sp 48 +
STACK CFI f45c .cfa: x29 32 + x19: .cfa -8 + ^ x20: .cfa -16 + ^ .ra: .cfa -24 + ^ x29: .cfa -32 + ^
STACK CFI f4a8 .cfa: sp 48 +
STACK CFI f4b4 .cfa: sp 0 +
STACK CFI f4b8 .cfa: x29 32 +
STACK CFI INIT f550 154 .cfa: sp 0 +
STACK CFI f554 .cfa: sp 384 +
STACK CFI f568 .cfa: x29 64 + x19: .cfa -8 + ^ x20: .cfa -16 + ^ x21: .cfa -24 + ^ x22: .cfa -32 + ^ x23: .cfa -40 + ^ x28: .cfa -48 + ^ .ra: .cfa -56 + ^ x29: .cfa -64 + ^
STACK CFI f64c .cfa: sp 384 +
STACK CFI f660 .cfa: sp 0 +
STACK CFI f664 .cfa: x29 64 +
STACK CFI INIT f6d8 12c .cfa: sp 0 +
STACK CFI f6dc .cfa: sp 80 +
STACK CFI f6f0 .cfa: x29 80 + x19: .cfa -8 + ^ x20: .cfa -16 + ^ x21: .cfa -24 + ^ x22: .cfa -32 + ^ x23: .cfa -40 + ^ x24: .cfa -48 + ^ x25: .cfa -56 + ^ x26: .cfa -64 + ^ .ra: .cfa -72 + ^ x29: .cfa -80 + ^
STACK CFI f7b8 .cfa: sp 80 +
STACK CFI f7cc .cfa: sp 0 +
STACK CFI f7d0 .cfa: x29 80 +
STACK CFI INIT f8a8 1a4 .cfa: sp 0 +
STACK CFI f8ac .cfa: sp 112 +
STACK CFI f8c4 .cfa: x29 80 + x19: .cfa -8 + ^ x20: .cfa -16 + ^ x21: .cfa -24 + ^ x22: .cfa -32 + ^ x23: .cfa -40 + ^ x24: .cfa -48 + ^ x25: .cfa -56 + ^ x26: .cfa -64 + ^ .ra: .cfa -72 + ^ x29: .cfa -80 + ^
STACK CFI f9b4 .cfa: sp 112 +
STACK CFI f9cc .cfa: sp 0 +
STACK CFI f9d0 .cfa: x29 80 +
STACK CFI INIT fa4c 1dc .cfa: sp 0 +
STACK CFI fa50 .cfa: sp 128 +
STACK CFI fa6c .cfa: x29 96 + x19: .cfa -8 + ^ x20: .cfa -16 + ^ x21: .cfa -24 + ^ x22: .cfa -32 + ^ x23: .cfa -40 + ^ x24: .cfa -48 + ^ x25: .cfa -56 + ^ x26: .cfa -64 + ^ x27: .cfa -80 + ^ .ra: .cfa -88 + ^ x29: .cfa -96 + ^
STACK CFI fbd8 .cfa: sp 128 +
STACK CFI fbf4 .cfa: sp 0 +
STACK CFI fbf8 .cfa: x29 96 +
STACK CFI INIT fc3c 50 .cfa: sp 0 +
STACK CFI fc40 .cfa: sp 32 +
STACK CFI fc48 .cfa: x29 32 + x19: .cfa -8 + ^ x20: .cfa -16 + ^ .ra: .cfa -24 + ^ x29: .cfa -32 + ^
STACK CFI INIT fcf0 178 .cfa: sp 0 +
STACK CFI fcf4 .cfa: sp 80 +
STACK CFI fd08 .cfa: x29 80 + x19: .cfa -8 + ^ x20: .cfa -16 + ^ x21: .cfa -24 + ^ x22: .cfa -32 + ^ x23: .cfa -40 + ^ x24: .cfa -48 + ^ x25: .cfa -64 + ^ .ra: .cfa -72 + ^ x29: .cfa -80 + ^
STACK CFI fe34 .cfa: sp 80 +
STACK CFI fe48 .cfa: sp 0 +
STACK CFI fe4c .cfa: x29 80 +
STACK CFI INIT 10148 134 .cfa: sp 0 +
STACK CFI 1014c .cfa: sp 128 +
STACK CFI 10160 .cfa: x29 64 + x19: .cfa -8 + ^ x20: .cfa -16 + ^ x21: .cfa -24 + ^ x22: .cfa -32 + ^ x23: .cfa -40 + ^ x24: .cfa -48 + ^ .ra: .cfa -56 + ^ x29: .cfa -64 + ^
STACK CFI 1022c .cfa: sp 128 +
STACK CFI 10240 .cfa: sp 0 +
STACK CFI 10244 .cfa: x29 64 +
STACK CFI INIT 1027c 408 .cfa: sp 0 +
STACK CFI 10280 .cfa: sp 96 +
STACK CFI 10298 .cfa: x29 80 + x19: .cfa -8 + ^ x20: .cfa -16 + ^ x21: .cfa -24 + ^ x22: .cfa -32 + ^ x23: .cfa -40 + ^ x24: .cfa -48 + ^ x25: .cfa -56 + ^ x28: .cfa -64 + ^ .ra: .cfa -72 + ^ x29: .cfa -80 + ^ v8: .cfa -96 + ^
STACK CFI 105c8 .cfa: sp 96 +
STACK CFI 105e0 .cfa: sp 0 +
STACK CFI 105e4 .cfa: x29 80 +
STACK CFI INIT 1070c 1c8 .cfa: sp 0 +
STACK CFI 10710 .cfa: sp 160 +
STACK CFI 10728 .cfa: x29 80 + x19: .cfa -8 + ^ x20: .cfa -16 + ^ x21: .cfa -24 + ^ x22: .cfa -32 + ^ x23: .cfa -40 + ^ x24: .cfa -48 + ^ x25: .cfa -56 + ^ x26: .cfa -64 + ^ .ra: .cfa -72 + ^ x29: .cfa -80 + ^
STACK CFI 10860 .cfa: sp 160 +
STACK CFI 10878 .cfa: sp 0 +
STACK CFI 1087c .cfa: x29 80 +
STACK CFI INIT 10cb4 218 .cfa: sp 0 +
STACK CFI 10cb8 .cfa: sp 96 +
STACK CFI 10cd0 .cfa: x29 96 + x19: .cfa -8 + ^ x20: .cfa -16 + ^ x21: .cfa -24 + ^ x22: .cfa -32 + ^ x23: .cfa -40 + ^ x24: .cfa -48 + ^ x25: .cfa -56 + ^ x26: .cfa -64 + ^ x28: .cfa -80 + ^ .ra: .cfa -88 + ^ x29: .cfa -96 + ^
STACK CFI 10e24 .cfa: sp 96 +
STACK CFI 10e3c .cfa: sp 0 +
STACK CFI 10e40 .cfa: x29 96 +
STACK CFI INIT 10ecc cc .cfa: sp 0 +
STACK CFI 10ed0 .cfa: sp 48 +
STACK CFI 10edc .cfa: x29 48 + x19: .cfa -8 + ^ x20: .cfa -16 + ^ x21: .cfa -24 + ^ x22: .cfa -32 + ^ .ra: .cfa -40 + ^ x29: .cfa -48 + ^
STACK CFI 10f28 .cfa: sp 48 +
STACK CFI 10f34 .cfa: sp 0 +
STACK CFI 10f38 .cfa: x29 48 +
STACK CFI 10f3c .cfa: sp 48 +
STACK CFI 10f48 .cfa: sp 0 +
STACK CFI 10f4c .cfa: x29 48 +
STACK CFI INIT 110f4 124 .cfa: sp 0 +
STACK CFI 110f8 .cfa: sp 80 +
STACK CFI 11108 .cfa: x29 48 + x19: .cfa -8 + ^ x20: .cfa -16 + ^ x21: .cfa -32 + ^ .ra: .cfa -40 + ^ x29: .cfa -48 + ^
STACK CFI 111d4 .cfa: sp 80 +
STACK CFI 111e4 .cfa: sp 0 +
STACK CFI 111e8 .cfa: x29 48 +
STACK CFI INIT 11218 64c .cfa: sp 0 +
STACK CFI 1121c .cfa: sp 224 +
STACK CFI 11238 .cfa: x29 96 + x19: .cfa -8 + ^ x20: .cfa -16 + ^ x21: .cfa -24 + ^ x22: .cfa -32 + ^ x23: .cfa -40 + ^ x24: .cfa -48 + ^ x25: .cfa -56 + ^ x26: .cfa -64 + ^ x27: .cfa -72 + ^ x28: .cfa -80 + ^ .ra: .cfa -88 + ^ x29: .cfa -96 + ^
STACK CFI 116f4 .cfa: sp 224 +
STACK CFI 11710 .cfa: sp 0 +
STACK CFI 11714 .cfa: x29 96 +
STACK CFI INIT 1189c 50 .cfa: sp 0 +
STACK CFI 118a0 .cfa: sp 32 +
STACK CFI 118a8 .cfa: x29 32 + x19: .cfa -8 + ^ x20: .cfa -16 + ^ .ra: .cfa -24 + ^ x29: .cfa -32 + ^
STACK CFI INIT 11cd8 1d8 .cfa: sp 0 +
STACK CFI 11cdc .cfa: sp 80 +
STACK CFI 11cf0 .cfa: x29 80 + x19: .cfa -8 + ^ x20: .cfa -16 + ^ x21: .cfa -24 + ^ x22: .cfa -32 + ^ x23: .cfa -40 + ^ x24: .cfa -48 + ^ x25: .cfa -56 + ^ x28: .cfa -64 + ^ .ra: .cfa -72 + ^ x29: .cfa -80 + ^
STACK CFI 11dfc .cfa: sp 80 +
STACK CFI 11e10 .cfa: sp 0 +
STACK CFI 11e14 .cfa: x29 80 +
STACK CFI INIT 11fb0 cc .cfa: sp 0 +
STACK CFI 11fb4 .cfa: sp 48 +
STACK CFI 11fc0 .cfa: x29 48 + x19: .cfa -8 + ^ x20: .cfa -16 + ^ x21: .cfa -24 + ^ x22: .cfa -32 + ^ .ra: .cfa -40 + ^ x29: .cfa -48 + ^
STACK CFI 1200c .cfa: sp 48 +
STACK CFI 12018 .cfa: sp 0 +
STACK CFI 1201c .cfa: x29 48 +
STACK CFI 12020 .cfa: sp 48 +
STACK CFI 1202c .cfa: sp 0 +
STACK CFI 12030 .cfa: x29 48 +
STACK CFI INIT 1207c 1c4 .cfa: sp 0 +
STACK CFI 12080 .cfa: sp 80 +
STACK CFI 12094 .cfa: x29 80 + x19: .cfa -8 + ^ x20: .cfa -16 + ^ x21: .cfa -24 + ^ x22: .cfa -32 + ^ x23: .cfa -40 + ^ x24: .cfa -48 + ^ x25: .cfa -56 + ^ x28: .cfa -64 + ^ .ra: .cfa -72 + ^ x29: .cfa -80 + ^
STACK CFI 1219c .cfa: sp 80 +
STACK CFI 121b0 .cfa: sp 0 +
STACK CFI 121b4 .cfa: x29 80 +
STACK CFI INIT 12240 a8 .cfa: sp 0 +
STACK CFI 12244 .cfa: sp 32 +
STACK CFI 1224c .cfa: x29 32 + x19: .cfa -16 + ^ .ra: .cfa -24 + ^ x29: .cfa -32 + ^
STACK CFI 12280 .cfa: sp 32 +
STACK CFI 12288 .cfa: sp 0 +
STACK CFI 1228c .cfa: x29 32 +
STACK CFI 12290 .cfa: sp 32 +
STACK CFI 12298 .cfa: sp 0 +
STACK CFI 1229c .cfa: x29 32 +
STACK CFI INIT 12324 134 .cfa: sp 0 +
STACK CFI 12328 .cfa: sp 80 +
STACK CFI 12334 .cfa: x29 32 + x19: .cfa -8 + ^ x20: .cfa -16 + ^ .ra: .cfa -24 + ^ x29: .cfa -32 + ^
STACK CFI 12364 .cfa: sp 80 +
STACK CFI 12370 .cfa: sp 0 +
STACK CFI 12374 .cfa: x29 32 +
STACK CFI INIT 12458 78 .cfa: sp 0 +
STACK CFI 1245c .cfa: sp 32 +
STACK CFI 12464 .cfa: x29 32 + x19: .cfa -8 + ^ x20: .cfa -16 + ^ .ra: .cfa -24 + ^ x29: .cfa -32 + ^
STACK CFI 12470 .cfa: sp 32 +
STACK CFI 12478 .cfa: sp 0 +
STACK CFI 1247c .cfa: x29 32 +
STACK CFI INIT 124d0 74 .cfa: sp 0 +
STACK CFI 124d4 .cfa: sp 48 +
STACK CFI 124e0 .cfa: x29 32 + x19: .cfa -8 + ^ x20: .cfa -16 + ^ .ra: .cfa -24 + ^ x29: .cfa -32 + ^
STACK CFI 1252c .cfa: sp 48 +
STACK CFI 12538 .cfa: sp 0 +
STACK CFI 1253c .cfa: x29 32 +
STACK CFI INIT 125a8 178 .cfa: sp 0 +
STACK CFI 125ac .cfa: sp 128 +
STACK CFI 125bc .cfa: x29 48 + x19: .cfa -8 + ^ x20: .cfa -16 + ^ x21: .cfa -24 + ^ x22: .cfa -32 + ^ .ra: .cfa -40 + ^ x29: .cfa -48 + ^
STACK CFI 12618 .cfa: sp 128 +
STACK CFI 12628 .cfa: sp 0 +
STACK CFI 1262c .cfa: x29 48 +
STACK CFI INIT 12720 a4 .cfa: sp 0 +
STACK CFI 12724 .cfa: sp 48 +
STACK CFI 12730 .cfa: x29 48 + x19: .cfa -8 + ^ x20: .cfa -16 + ^ x21: .cfa -32 + ^ .ra: .cfa -40 + ^ x29: .cfa -48 + ^
STACK CFI 1279c .cfa: sp 48 +
STACK CFI 127a8 .cfa: sp 0 +
STACK CFI 127ac .cfa: x29 48 +
STACK CFI INIT 127c4 154 .cfa: sp 0 +
STACK CFI 127c8 .cfa: sp 384 +
STACK CFI 127dc .cfa: x29 64 + x19: .cfa -8 + ^ x20: .cfa -16 + ^ x21: .cfa -24 + ^ x22: .cfa -32 + ^ x23: .cfa -40 + ^ x28: .cfa -48 + ^ .ra: .cfa -56 + ^ x29: .cfa -64 + ^
STACK CFI 128c0 .cfa: sp 384 +
STACK CFI 128d4 .cfa: sp 0 +
STACK CFI 128d8 .cfa: x29 64 +
STACK CFI INIT 12918 168 .cfa: sp 0 +
STACK CFI 1291c .cfa: sp 384 +
STACK CFI 12930 .cfa: x29 64 + x19: .cfa -8 + ^ x20: .cfa -16 + ^ x21: .cfa -24 + ^ x22: .cfa -32 + ^ x23: .cfa -40 + ^ x28: .cfa -48 + ^ .ra: .cfa -56 + ^ x29: .cfa -64 + ^
STACK CFI 12a28 .cfa: sp 384 +
STACK CFI 12a3c .cfa: sp 0 +
STACK CFI 12a40 .cfa: x29 64 +
STACK CFI INIT 12dc8 294 .cfa: sp 0 +
STACK CFI 12dcc .cfa: sp 240 +
STACK CFI 12de4 .cfa: x29 80 + x19: .cfa -8 + ^ x20: .cfa -16 + ^ x21: .cfa -24 + ^ x22: .cfa -32 + ^ x23: .cfa -40 + ^ x24: .cfa -48 + ^ x25: .cfa -64 + ^ .ra: .cfa -72 + ^ x29: .cfa -80 + ^
STACK CFI 12f84 .cfa: sp 240 +
STACK CFI 12f9c .cfa: sp 0 +
STACK CFI 12fa0 .cfa: x29 80 +
STACK CFI INIT 130d8 50 .cfa: sp 0 +
STACK CFI 130dc .cfa: sp 32 +
STACK CFI 130e4 .cfa: x29 32 + x19: .cfa -8 + ^ x20: .cfa -16 + ^ .ra: .cfa -24 + ^ x29: .cfa -32 + ^
STACK CFI INIT 13154 7c0 .cfa: sp 0 +
STACK CFI 13158 .cfa: sp 320 +
STACK CFI 13174 .cfa: x29 96 + x19: .cfa -8 + ^ x20: .cfa -16 + ^ x21: .cfa -24 + ^ x22: .cfa -32 + ^ x23: .cfa -40 + ^ x24: .cfa -48 + ^ x25: .cfa -56 + ^ x26: .cfa -64 + ^ x27: .cfa -72 + ^ x28: .cfa -80 + ^ .ra: .cfa -88 + ^ x29: .cfa -96 + ^
STACK CFI 137c4 .cfa: sp 320 +
STACK CFI 137e0 .cfa: sp 0 +
STACK CFI 137e4 .cfa: x29 96 +
STACK CFI INIT 17c94 c74 .cfa: sp 0 +
STACK CFI 17c98 .cfa: sp 96 +
STACK CFI 17cb0 .cfa: x29 96 + x19: .cfa -8 + ^ x20: .cfa -16 + ^ x21: .cfa -24 + ^ x22: .cfa -32 + ^ x23: .cfa -40 + ^ x24: .cfa -48 + ^ x25: .cfa -56 + ^ x26: .cfa -64 + ^ x27: .cfa -72 + ^ x28: .cfa -80 + ^ .ra: .cfa -88 + ^ x29: .cfa -96 + ^
STACK CFI 18728 .cfa: sp 96 +
STACK CFI 18740 .cfa: sp 0 +
STACK CFI 18744 .cfa: x29 96 +
STACK CFI INIT 18a5c 26c .cfa: sp 0 +
STACK CFI 18a60 .cfa: sp 128 +
STACK CFI 18a70 .cfa: x29 48 + x19: .cfa -8 + ^ x20: .cfa -16 + ^ x21: .cfa -24 + ^ x22: .cfa -32 + ^ .ra: .cfa -40 + ^ x29: .cfa -48 + ^
STACK CFI 18c14 .cfa: sp 128 +
STACK CFI 18c24 .cfa: sp 0 +
STACK CFI 18c28 .cfa: x29 48 +
STACK CFI INIT 19214 3b8 .cfa: sp 0 +
STACK CFI 19218 .cfa: sp 96 +
STACK CFI 19230 .cfa: x29 96 + x19: .cfa -8 + ^ x20: .cfa -16 + ^ x21: .cfa -24 + ^ x22: .cfa -32 + ^ x23: .cfa -40 + ^ x24: .cfa -48 + ^ x25: .cfa -56 + ^ x26: .cfa -64 + ^ x27: .cfa -72 + ^ x28: .cfa -80 + ^ .ra: .cfa -88 + ^ x29: .cfa -96 + ^
STACK CFI 1956c .cfa: sp 96 +
STACK CFI 19584 .cfa: sp 0 +
STACK CFI 19588 .cfa: x29 96 +
STACK CFI INIT 1966c cb4 .cfa: sp 0 +
STACK CFI 19670 .cfa: sp 96 +
STACK CFI 19688 .cfa: x29 96 + x19: .cfa -8 + ^ x20: .cfa -16 + ^ x21: .cfa -24 + ^ x22: .cfa -32 + ^ x23: .cfa -40 + ^ x24: .cfa -48 + ^ x25: .cfa -56 + ^ x26: .cfa -64 + ^ x27: .cfa -72 + ^ x28: .cfa -80 + ^ .ra: .cfa -88 + ^ x29: .cfa -96 + ^
STACK CFI 1a130 .cfa: sp 96 +
STACK CFI 1a148 .cfa: sp 0 +
STACK CFI 1a14c .cfa: x29 96 +
STACK CFI INIT 1a608 afc .cfa: sp 0 +
STACK CFI 1a60c .cfa: sp 96 +
STACK CFI 1a624 .cfa: x29 96 + x19: .cfa -8 + ^ x20: .cfa -16 + ^ x21: .cfa -24 + ^ x22: .cfa -32 + ^ x23: .cfa -40 + ^ x24: .cfa -48 + ^ x25: .cfa -56 + ^ x26: .cfa -64 + ^ x27: .cfa -72 + ^ x28: .cfa -80 + ^ .ra: .cfa -88 + ^ x29: .cfa -96 + ^
STACK CFI 1b078 .cfa: sp 96 +
STACK CFI 1b090 .cfa: sp 0 +
STACK CFI 1b094 .cfa: x29 96 +
STACK CFI INIT 1b2e0 1430 .cfa: sp 0 +
STACK CFI 1b2e4 .cfa: sp 96 +
STACK CFI 1b2fc .cfa: x29 96 + x19: .cfa -8 + ^ x20: .cfa -16 + ^ x21: .cfa -24 + ^ x22: .cfa -32 + ^ x23: .cfa -40 + ^ x24: .cfa -48 + ^ x25: .cfa -56 + ^ x26: .cfa -64 + ^ x27: .cfa -72 + ^ x28: .cfa -80 + ^ .ra: .cfa -88 + ^ x29: .cfa -96 + ^
STACK CFI 1c598 .cfa: sp 96 +
STACK CFI 1c5b0 .cfa: sp 0 +
STACK CFI 1c5b4 .cfa: x29 96 +
STACK CFI INIT 1c834 75c .cfa: sp 0 +
STACK CFI 1c838 .cfa: sp 368 +
STACK CFI 1c854 .cfa: x29 96 + x19: .cfa -8 + ^ x20: .cfa -16 + ^ x21: .cfa -24 + ^ x22: .cfa -32 + ^ x23: .cfa -40 + ^ x24: .cfa -48 + ^ x25: .cfa -56 + ^ x26: .cfa -64 + ^ x27: .cfa -72 + ^ x28: .cfa -80 + ^ .ra: .cfa -88 + ^ x29: .cfa -96 + ^
STACK CFI 1c908 .cfa: sp 368 +
STACK CFI 1c924 .cfa: sp 0 +
STACK CFI 1c928 .cfa: x29 96 +
STACK CFI 1c97c .cfa: sp 368 +
STACK CFI 1c998 .cfa: sp 0 +
STACK CFI 1c99c .cfa: x29 96 +
STACK CFI INIT 1d350 eb0 .cfa: sp 0 +
STACK CFI 1d354 .cfa: sp 96 +
STACK CFI 1d36c .cfa: x29 96 + x19: .cfa -8 + ^ x20: .cfa -16 + ^ x21: .cfa -24 + ^ x22: .cfa -32 + ^ x23: .cfa -40 + ^ x24: .cfa -48 + ^ x25: .cfa -56 + ^ x26: .cfa -64 + ^ x27: .cfa -72 + ^ x28: .cfa -80 + ^ .ra: .cfa -88 + ^ x29: .cfa -96 + ^
STACK CFI 1e014 .cfa: sp 96 +
STACK CFI 1e02c .cfa: sp 0 +
STACK CFI 1e030 .cfa: x29 96 +
STACK CFI INIT 1e574 1c9c .cfa: sp 0 +
STACK CFI 1e578 .cfa: sp 112 +
STACK CFI 1e594 .cfa: x29 96 + x19: .cfa -8 + ^ x20: .cfa -16 + ^ x21: .cfa -24 + ^ x22: .cfa -32 + ^ x23: .cfa -40 + ^ x24: .cfa -48 + ^ x25: .cfa -56 + ^ x26: .cfa -64 + ^ x27: .cfa -72 + ^ x28: .cfa -80 + ^ .ra: .cfa -88 + ^ x29: .cfa -96 + ^ v8: .cfa -112 + ^
STACK CFI 1e97c .cfa: sp 112 +
STACK CFI 1e998 .cfa: sp 0 +
STACK CFI 1e99c .cfa: x29 96 +
STACK CFI INIT 229d4 9a0 .cfa: sp 0 +
STACK CFI 229d8 .cfa: sp 144 +
STACK CFI 229f0 .cfa: x29 80 + x19: .cfa -8 + ^ x20: .cfa -16 + ^ x21: .cfa -24 + ^ x22: .cfa -32 + ^ x23: .cfa -40 + ^ x24: .cfa -48 + ^ x25: .cfa -64 + ^ .ra: .cfa -72 + ^ x29: .cfa -80 + ^
STACK CFI 232f0 .cfa: sp 144 +
STACK CFI 23308 .cfa: sp 0 +
STACK CFI 2330c .cfa: x29 80 +
STACK CFI INIT 24898 57c .cfa: sp 0 +
STACK CFI 2489c .cfa: sp 96 +
STACK CFI 248b4 .cfa: x29 96 + x19: .cfa -8 + ^ x20: .cfa -16 + ^ x21: .cfa -24 + ^ x22: .cfa -32 + ^ x23: .cfa -40 + ^ x24: .cfa -48 + ^ x25: .cfa -56 + ^ x26: .cfa -64 + ^ x27: .cfa -72 + ^ x28: .cfa -80 + ^ .ra: .cfa -88 + ^ x29: .cfa -96 + ^
STACK CFI 24d78 .cfa: sp 96 +
STACK CFI 24d90 .cfa: sp 0 +
STACK CFI 24d94 .cfa: x29 96 +
STACK CFI INIT 24e14 67c .cfa: sp 0 +
STACK CFI 24e18 .cfa: sp 96 +
STACK CFI 24e30 .cfa: x29 96 + x19: .cfa -8 + ^ x20: .cfa -16 + ^ x21: .cfa -24 + ^ x22: .cfa -32 + ^ x23: .cfa -40 + ^ x24: .cfa -48 + ^ x25: .cfa -56 + ^ x26: .cfa -64 + ^ x27: .cfa -72 + ^ x28: .cfa -80 + ^ .ra: .cfa -88 + ^ x29: .cfa -96 + ^
STACK CFI 253f4 .cfa: sp 96 +
STACK CFI 2540c .cfa: sp 0 +
STACK CFI 25410 .cfa: x29 96 +
