MODULE Linux arm64 E8E3232BA6A7F944F27C5B279A5D2BE70 raydeeux.frickglow.android64.so
INFO CODE_ID 2B23E3E8A7A644F9F27C5B279A5D2BE7E30F69D2
INFO GENERATOR mozilla/dump_syms 2.3.4
PUBLIC ae60 0 __on_dlclose
PUBLIC ae70 0 __emutls_unregister_key
PUBLIC ae78 0 __on_dlclose_late
PUBLIC ae80 0 __atexit_handler_wrapper
PUBLIC ae94 0 atexit
PUBLIC aeb0 0 pthread_atfork
PUBLIC aec0 0 __aarch64_ldadd8_relax
PUBLIC aef0 0 init_have_lse_atomics
PUBLIC af88 0 __init_cpu_features_constructor
PUBLIC b524 0 __init_cpu_features
PUBLIC b5b0 0 __aarch64_ldadd8_acq_rel
PUBLIC b5e0 0 std::__ndk1::__list_imp<int, std::__ndk1::allocator<int> >::~__list_imp()
PUBLIC b63c 0 __cxx_global_var_init.3
PUBLIC bb9c 0 geode::modifier::ModifyBase<geode::modifier::ModifyDerive<MyGameObject, GameObject> >::~ModifyBase()
PUBLIC bbb4 0 __cxx_global_var_init.4
PUBLIC c038 0 geode::modifier::ModifyBase<geode::modifier::ModifyDerive<MyPlayLayer, PlayLayer> >::~ModifyBase()
PUBLIC c050 0 __clang_call_terminate
PUBLIC c060 0 std::__throw_bad_array_new_length([abi:ne180000], void)
PUBLIC c094 0 geode::modifier::ModifyDerive<MyGameObject, GameObject>::apply()
PUBLIC c668 0 std::__ndk1::shared_ptr<geode::Hook>::~shared_ptr[abi:ne180000]()
PUBLIC c6b8 0 geode::impl::ResultData<geode::Hook*, std::__ndk1::basic_string<char, std::__ndk1::char_traits<char>, std::__ndk1::allocator<char> > >::~ResultData()
PUBLIC c72c 0 std::__ndk1::vector<std::__ndk1::basic_string<char, std::__ndk1::char_traits<char>, std::__ndk1::allocator<char> >, std::__ndk1::allocator<std::__ndk1::basic_string<char, std::__ndk1::char_traits<char>, std::__ndk1::allocator<char> > > >::~vector[abi:ne180000]()
PUBLIC c7a8 0 geode::modifier::ModifyBase<geode::modifier::ModifyDerive<MyGameObject, GameObject> >::apply()
PUBLIC c7ac 0 geode::modifier::ModifyBase<geode::modifier::ModifyDerive<MyGameObject, GameObject> >::setHookPriority(std::__ndk1::basic_string<char, std::__ndk1::char_traits<char>, std::__ndk1::allocator<char> > const&, int)
PUBLIC ca7c 0 std::__ndk1::__tree<std::__ndk1::__value_type<std::__ndk1::basic_string<char, std::__ndk1::char_traits<char>, std::__ndk1::allocator<char> >, std::__ndk1::shared_ptr<geode::Hook> >, std::__ndk1::__map_value_compare<std::__ndk1::basic_string<char, std::__ndk1::char_traits<char>, std::__ndk1::allocator<char> >, std::__ndk1::__value_type<std::__ndk1::basic_string<char, std::__ndk1::char_traits<char>, std::__ndk1::allocator<char> >, std::__ndk1::shared_ptr<geode::Hook> >, std::__ndk1::less<std::__ndk1::basic_string<char, std::__ndk1::char_traits<char>, std::__ndk1::allocator<char> > >, true>, std::__ndk1::allocator<std::__ndk1::__value_type<std::__ndk1::basic_string<char, std::__ndk1::char_traits<char>, std::__ndk1::allocator<char> >, std::__ndk1::shared_ptr<geode::Hook> > > >::find<std::__ndk1::basic_string<char, std::__ndk1::char_traits<char>, std::__ndk1::allocator<char> > >(std::__ndk1::basic_string<char, std::__ndk1::char_traits<char>, std::__ndk1::allocator<char> > const&)
PUBLIC cb9c 0 std::__ndk1::unique_ptr<std::__ndk1::__tree_node<std::__ndk1::__value_type<std::__ndk1::basic_string<char, std::__ndk1::char_traits<char>, std::__ndk1::allocator<char> >, std::__ndk1::shared_ptr<geode::Hook> >, void*>, std::__ndk1::__tree_node_destructor<std::__ndk1::allocator<std::__ndk1::__tree_node<std::__ndk1::__value_type<std::__ndk1::basic_string<char, std::__ndk1::char_traits<char>, std::__ndk1::allocator<char> >, std::__ndk1::shared_ptr<geode::Hook> >, void*> > > >::~unique_ptr[abi:ne180000]()
PUBLIC cc18 0 std::__ndk1::basic_string<char, std::__ndk1::char_traits<char>, std::__ndk1::allocator<char> >::__init_copy_ctor_external(char const*, unsigned long)
PUBLIC cc98 0 std::__ndk1::basic_string<char, std::__ndk1::char_traits<char>, std::__ndk1::allocator<char> >::__throw_length_error[abi:ne180000]() const
PUBLIC ccac 0 std::__ndk1::__throw_length_error[abi:ne180000](char const*)
PUBLIC ccfc 0 std::length_error::length_error[abi:ne180000](char const*)
PUBLIC cd2c 0 std::__ndk1::__tree_balance_after_insert[abi:ne180000]<std::__ndk1::__tree_node_base<void*>*>(std::__ndk1::__tree_node_base<void*>*, std::__ndk1::__tree_node_base<void*>*)
PUBLIC cedc 0 _ZN5geode15UnwrapExceptionC2IRPNS_4HookEQsr4implE18IsStringStreamableIT_EEENS_4impl5OkTagEOS5_
PUBLIC d030 0 std::__ndk1::__throw_bad_variant_access[abi:ne180000]()
PUBLIC d064 0 std::__ndk1::basic_stringstream<char, std::__ndk1::char_traits<char>, std::__ndk1::allocator<char> >::basic_stringstream[abi:ne180000]()
PUBLIC m d190 0 std::__ndk1::basic_stringstream<char, std::__ndk1::char_traits<char>, std::__ndk1::allocator<char> >::~basic_stringstream()
PUBLIC d210 0 geode::UnwrapException::~UnwrapException()
PUBLIC d234 0 std::__ndk1::__put_character_sequence[abi:ne180000]<char, std::__ndk1::char_traits<char> >(std::__ndk1::basic_ostream<char, std::__ndk1::char_traits<char> >, std::__ndk1::basic_ostream const*, unsigned long)
PUBLIC d3d8 0 std::__ndk1::__pad_and_output[abi:ne180000]<char, std::__ndk1::char_traits<char> >(std::__ndk1::char_traits<char>, std::__ndk1::ostreambuf_iterator const*, std::__ndk1::ostreambuf_iterator const, std::__ndk1::ostreambuf_iterator const, std::__ndk1::ios_base&, std::__ndk1::ostreambuf_iterator)
PUBLIC d5b4 0 std::__ndk1::basic_stringbuf<char, std::__ndk1::char_traits<char>, std::__ndk1::allocator<char> >::str[abi:ne180000]() &&
PUBLIC d72c 0 std::__ndk1::basic_stringbuf<char, std::__ndk1::char_traits<char>, std::__ndk1::allocator<char> >::__init_buf_ptrs[abi:ne180000]()
PUBLIC d874 0 std::__ndk1::__variant_detail::__visitation::__base::__dispatcher<(unsigned long)0>::__dispatch[abi:ne180000]<std::__ndk1::__variant_detail::__dtor<std::__ndk1::__variant_detail::__traits<std::__ndk1::monostate, std::__ndk1::basic_string<char, std::__ndk1::char_traits<char>, std::__ndk1::allocator<char> > >, (std::__ndk1::__variant_detail::_Trait)1>::__destroy[abi:ne180000]()::{lambda(auto:1&)#1}, std::__ndk1::__variant_detail::__base<(std::__ndk1::__variant_detail::__traits<std::__ndk1::monostate, std::__ndk1::basic_string<char, std::__ndk1::char_traits<char>, std::__ndk1::allocator<char> > >)1, std::__ndk1::__variant_detail::__traits, std::__ndk1::allocator<char> >&>(std::__ndk1::__variant_detail::__dtor<std::__ndk1::__variant_detail::__traits<std::__ndk1::monostate, std::__ndk1::basic_string<char, std::__ndk1::char_traits<char>, std::__ndk1::allocator<char> > >, (std::__ndk1::__variant_detail::_Trait)1>, std::__ndk1::__variant_detail::__base<(std::__ndk1::__variant_detail::__traits<std::__ndk1::monostate, std::__ndk1::basic_string<char, std::__ndk1::char_traits<char>, std::__ndk1::allocator<char> > >)1, std::__ndk1::__variant_detail::__traits, std::__ndk1::allocator<char> >&)
PUBLIC d878 0 std::__ndk1::__variant_detail::__visitation::__base::__dispatcher<(unsigned long)1>::__dispatch[abi:ne180000]<std::__ndk1::__variant_detail::__dtor<std::__ndk1::__variant_detail::__traits<std::__ndk1::monostate, std::__ndk1::basic_string<char, std::__ndk1::char_traits<char>, std::__ndk1::allocator<char> > >, (std::__ndk1::__variant_detail::_Trait)1>::__destroy[abi:ne180000]()::{lambda(auto:1&)#1}, std::__ndk1::__variant_detail::__base<(std::__ndk1::__variant_detail::__traits<std::__ndk1::monostate, std::__ndk1::basic_string<char, std::__ndk1::char_traits<char>, std::__ndk1::allocator<char> > >)1, std::__ndk1::__variant_detail::__traits, std::__ndk1::allocator<char> >&>(std::__ndk1::__variant_detail::__dtor<std::__ndk1::__variant_detail::__traits<std::__ndk1::monostate, std::__ndk1::basic_string<char, std::__ndk1::char_traits<char>, std::__ndk1::allocator<char> > >, (std::__ndk1::__variant_detail::_Trait)1>, std::__ndk1::__variant_detail::__base<(std::__ndk1::__variant_detail::__traits<std::__ndk1::monostate, std::__ndk1::basic_string<char, std::__ndk1::char_traits<char>, std::__ndk1::allocator<char> > >)1, std::__ndk1::__variant_detail::__traits, std::__ndk1::allocator<char> >&)
PUBLIC d88c 0 std::__ndk1::vector<std::__ndk1::basic_string<char, std::__ndk1::char_traits<char>, std::__ndk1::allocator<char> >, std::__ndk1::allocator<std::__ndk1::basic_string<char, std::__ndk1::char_traits<char>, std::__ndk1::allocator<char> > > >::__push_back_slow_path<std::__ndk1::basic_string<char, std::__ndk1::char_traits<char>, std::__ndk1::allocator<char> > const&>(std::__ndk1::basic_string<char, std::__ndk1::char_traits<char>, std::__ndk1::allocator<char> > const&)
PUBLIC dab0 0 std::__ndk1::__split_buffer<std::__ndk1::basic_string<char, std::__ndk1::char_traits<char>, std::__ndk1::allocator<char> >, std::__ndk1::allocator<std::__ndk1::basic_string<char, std::__ndk1::char_traits<char>, std::__ndk1::allocator<char> > >&>::~__split_buffer()
PUBLIC db18 0 std::__ndk1::vector<std::__ndk1::basic_string<char, std::__ndk1::char_traits<char>, std::__ndk1::allocator<char> >, std::__ndk1::allocator<std::__ndk1::basic_string<char, std::__ndk1::char_traits<char>, std::__ndk1::allocator<char> > > >::__throw_length_error[abi:ne180000]() const
PUBLIC db2c 0 std::__ndk1::__variant_detail::__visitation::__base::__dispatcher<(unsigned long)0>::__dispatch[abi:ne180000]<std::__ndk1::__variant_detail::__dtor<std::__ndk1::__variant_detail::__traits<geode::Hook*, std::__ndk1::basic_string<char, std::__ndk1::char_traits<char>, std::__ndk1::allocator<char> > >, (std::__ndk1::__variant_detail::_Trait)1>::__destroy[abi:ne180000]()::{lambda(auto:1&)#1}, std::__ndk1::__variant_detail::__base<(std::__ndk1::__variant_detail::__traits<geode::Hook*, std::__ndk1::basic_string<char, std::__ndk1::char_traits<char>, std::__ndk1::allocator<char> > >)1, geode::Hook, std::__ndk1::allocator<char> >&>(std::__ndk1::__variant_detail::__dtor<std::__ndk1::__variant_detail::__traits<geode::Hook*, std::__ndk1::basic_string<char, std::__ndk1::char_traits<char>, std::__ndk1::allocator<char> > >, (std::__ndk1::__variant_detail::_Trait)1>, std::__ndk1::__variant_detail::__base<(std::__ndk1::__variant_detail::__traits<geode::Hook*, std::__ndk1::basic_string<char, std::__ndk1::char_traits<char>, std::__ndk1::allocator<char> > >)1, geode::Hook, std::__ndk1::allocator<char> >&)
PUBLIC db30 0 std::__ndk1::__variant_detail::__visitation::__base::__dispatcher<(unsigned long)1>::__dispatch[abi:ne180000]<std::__ndk1::__variant_detail::__dtor<std::__ndk1::__variant_detail::__traits<geode::Hook*, std::__ndk1::basic_string<char, std::__ndk1::char_traits<char>, std::__ndk1::allocator<char> > >, (std::__ndk1::__variant_detail::_Trait)1>::__destroy[abi:ne180000]()::{lambda(auto:1&)#1}, std::__ndk1::__variant_detail::__base<(std::__ndk1::__variant_detail::__traits<geode::Hook*, std::__ndk1::basic_string<char, std::__ndk1::char_traits<char>, std::__ndk1::allocator<char> > >)1, geode::Hook, std::__ndk1::allocator<char> >&>(std::__ndk1::__variant_detail::__dtor<std::__ndk1::__variant_detail::__traits<geode::Hook*, std::__ndk1::basic_string<char, std::__ndk1::char_traits<char>, std::__ndk1::allocator<char> > >, (std::__ndk1::__variant_detail::_Trait)1>, std::__ndk1::__variant_detail::__base<(std::__ndk1::__variant_detail::__traits<geode::Hook*, std::__ndk1::basic_string<char, std::__ndk1::char_traits<char>, std::__ndk1::allocator<char> > >)1, geode::Hook, std::__ndk1::allocator<char> >&)
PUBLIC db44 0 std::__ndk1::__tree<std::__ndk1::__value_type<std::__ndk1::basic_string<char, std::__ndk1::char_traits<char>, std::__ndk1::allocator<char> >, std::__ndk1::shared_ptr<geode::Hook> >, std::__ndk1::__map_value_compare<std::__ndk1::basic_string<char, std::__ndk1::char_traits<char>, std::__ndk1::allocator<char> >, std::__ndk1::__value_type<std::__ndk1::basic_string<char, std::__ndk1::char_traits<char>, std::__ndk1::allocator<char> >, std::__ndk1::shared_ptr<geode::Hook> >, std::__ndk1::less<std::__ndk1::basic_string<char, std::__ndk1::char_traits<char>, std::__ndk1::allocator<char> > >, true>, std::__ndk1::allocator<std::__ndk1::__value_type<std::__ndk1::basic_string<char, std::__ndk1::char_traits<char>, std::__ndk1::allocator<char> >, std::__ndk1::shared_ptr<geode::Hook> > > >::erase(std::__ndk1::__tree_const_iterator<std::__ndk1::__value_type<std::__ndk1::basic_string<char, std::__ndk1::char_traits<char>, std::__ndk1::allocator<char> >, std::__ndk1::shared_ptr<geode::Hook> >, std::__ndk1::__tree_node<std::__ndk1::__value_type<std::__ndk1::basic_string<char, std::__ndk1::char_traits<char>, std::__ndk1::allocator<char> >, std::__ndk1::shared_ptr<geode::Hook> >, void*>*, long>)
PUBLIC dfe8 0 std::__ndk1::__tree<std::__ndk1::__value_type<std::__ndk1::basic_string<char, std::__ndk1::char_traits<char>, std::__ndk1::allocator<char> >, std::__ndk1::shared_ptr<geode::Hook> >, std::__ndk1::__map_value_compare<std::__ndk1::basic_string<char, std::__ndk1::char_traits<char>, std::__ndk1::allocator<char> >, std::__ndk1::__value_type<std::__ndk1::basic_string<char, std::__ndk1::char_traits<char>, std::__ndk1::allocator<char> >, std::__ndk1::shared_ptr<geode::Hook> >, std::__ndk1::less<std::__ndk1::basic_string<char, std::__ndk1::char_traits<char>, std::__ndk1::allocator<char> > >, true>, std::__ndk1::allocator<std::__ndk1::__value_type<std::__ndk1::basic_string<char, std::__ndk1::char_traits<char>, std::__ndk1::allocator<char> >, std::__ndk1::shared_ptr<geode::Hook> > > >::destroy(std::__ndk1::__tree_node<std::__ndk1::__value_type<std::__ndk1::basic_string<char, std::__ndk1::char_traits<char>, std::__ndk1::allocator<char> >, std::__ndk1::shared_ptr<geode::Hook> >, void*>*)
PUBLIC e06c 0 geode::modifier::AsStaticFunction_createWithFrame<MyGameObject, GameObject* (*)(char const*)>::Impl<GameObject* (*)(char const*)>::function(char const*)
PUBLIC e3e0 0 geode::modifier::AsStaticFunction_setVisible<MyGameObject, void (MyGameObject::*)(bool)>::Impl<void (MyGameObject::*)(bool)>::function(MyGameObject*, bool)
PUBLIC e48c 0 std::__ndk1::shared_ptr<tulip::hook::CallingConvention>::~shared_ptr[abi:ne180000]()
PUBLIC e4dc 0 tulip::hook::HandlerMetadata::~HandlerMetadata()
PUBLIC e540 0 geode::Mod::getSettingValue<bool>(std::__ndk1::basic_string_view<char, std::__ndk1::char_traits<char> >) const
PUBLIC e670 0 geode::Mod::getSettingValue<long>(std::__ndk1::basic_string_view<char, std::__ndk1::char_traits<char> >) const
PUBLIC e790 0 geode::cast::traverseTypeinfoFor(void*, geode::cast::ClassTypeinfoType const*, char const*)
PUBLIC e888 0 std::__ndk1::__throw_out_of_range[abi:ne180000](char const*)
PUBLIC e8d8 0 std::out_of_range::out_of_range[abi:ne180000](char const*)
PUBLIC e908 0 geode::modifier::FieldIntermediate<MyGameObject, GameObject>::self()
PUBLIC ef48 0 geode::modifier::FieldIntermediate<MyGameObject, GameObject>::fieldDestructor(void*)
PUBLIC ef4c 0 std::__ndk1::vector<void*, std::__ndk1::allocator<void*> >::__throw_length_error[abi:ne180000]() const
PUBLIC ef60 0 std::__ndk1::vector<std::__ndk1::function<void (void*)>, std::__ndk1::allocator<std::__ndk1::function<void (void*)> > >::__throw_length_error[abi:ne180000]() const
PUBLIC ef74 0 std::__ndk1::vector<void*, std::__ndk1::allocator<void*> >::__throw_out_of_range[abi:ne180000]() const
PUBLIC ef80 0 std::__ndk1::vector<std::__ndk1::function<void (void*)>, std::__ndk1::allocator<std::__ndk1::function<void (void*)> > >::__throw_out_of_range[abi:ne180000]() const
PUBLIC ef8c 0 std::__ndk1::__function::__base<void (void*)>::~__base()
PUBLIC ef90 0 std::__ndk1::__function::__func<void (*)(void*), std::__ndk1::allocator<void (*)(void*)>, void (void*)>::~__func()
PUBLIC ef94 0 std::__ndk1::__function::__func<void (*)(void*), std::__ndk1::allocator<void (*)(void*)>, void (void*)>::__clone() const
PUBLIC efcc 0 std::__ndk1::__function::__func<void (*)(void*), std::__ndk1::allocator<void (*)(void*)>, void (void*)>::__clone(std::__ndk1::__function::__base<void (void*)>*) const
PUBLIC efe4 0 std::__ndk1::__function::__func<void (*)(void*), std::__ndk1::allocator<void (*)(void*)>, void (void*)>::destroy()
PUBLIC efe8 0 std::__ndk1::__function::__func<void (*)(void*), std::__ndk1::allocator<void (*)(void*)>, void (void*)>::destroy_deallocate()
PUBLIC efec 0 std::__ndk1::__function::__func<void (*)(void*), std::__ndk1::allocator<void (*)(void*)>, void (void*)>::operator()(void*&&)
PUBLIC effc 0 std::__ndk1::__function::__func<void (*)(void*), std::__ndk1::allocator<void (*)(void*)>, void (void*)>::target(std::type_info const&) const
PUBLIC f018 0 std::__ndk1::__function::__func<void (*)(void*), std::__ndk1::allocator<void (*)(void*)>, void (void*)>::target_type() const
PUBLIC f024 0 std::__ndk1::__tree<std::__ndk1::__value_type<std::__ndk1::basic_string<char, std::__ndk1::char_traits<char>, std::__ndk1::allocator<char> >, std::__ndk1::shared_ptr<geode::Hook> >, std::__ndk1::__map_value_compare<std::__ndk1::basic_string<char, std::__ndk1::char_traits<char>, std::__ndk1::allocator<char> >, std::__ndk1::__value_type<std::__ndk1::basic_string<char, std::__ndk1::char_traits<char>, std::__ndk1::allocator<char> >, std::__ndk1::shared_ptr<geode::Hook> >, std::__ndk1::less<std::__ndk1::basic_string<char, std::__ndk1::char_traits<char>, std::__ndk1::allocator<char> > >, true>, std::__ndk1::allocator<std::__ndk1::__value_type<std::__ndk1::basic_string<char, std::__ndk1::char_traits<char>, std::__ndk1::allocator<char> >, std::__ndk1::shared_ptr<geode::Hook> > > >::__emplace_unique_key_args<std::__ndk1::basic_string<char, std::__ndk1::char_traits<char>, std::__ndk1::allocator<char> >, std::__ndk1::piecewise_construct_t const&, std::__ndk1::tuple<std::__ndk1::basic_string<char, std::__ndk1::char_traits<char>, std::__ndk1::allocator<char> >&&>, std::__ndk1::tuple<> >(std::__ndk1::basic_string<char, std::__ndk1::char_traits<char>, std::__ndk1::allocator<char> > const&, std::__ndk1::piecewise_construct_t const&, std::__ndk1::tuple<std::__ndk1::basic_string<char, std::__ndk1::char_traits<char>, std::__ndk1::allocator<char> >&&>, std::__ndk1::tuple<>)
PUBLIC f18c 0 geode::addresser::Addresser::addressOfVirtual<void, GameObject, bool>(void (GameObject::*)(bool))
PUBLIC f254 0 GameObject::GameObject(geode::ZeroConstructorType)
PUBLIC f330 0 geode::modifier::ModifyDerive<MyPlayLayer, PlayLayer>::apply()
PUBLIC f688 0 geode::modifier::ModifyBase<geode::modifier::ModifyDerive<MyPlayLayer, PlayLayer> >::apply()
PUBLIC f68c 0 geode::modifier::AsStaticFunction_addObject<MyPlayLayer, void (MyPlayLayer::*)(GameObject*)>::Impl<void (MyPlayLayer::*)(GameObject*)>::function(MyPlayLayer*, GameObject*)
PUBLIC f8c4 0 _GLOBAL__sub_I_main.cpp
PUBLIC m f9fc 0 geodeImplicitEntry
PUBLIC fa38 0 wrapFunction(unsigned long, tulip::hook::WrapperMetadata const&)
PUBLIC fb6c 0 geode::impl::ResultData<void*, std::__ndk1::basic_string<char, std::__ndk1::char_traits<char>, std::__ndk1::allocator<char> > >::unwrapErr() &
PUBLIC fbe4 0 geode::impl::ResultData<void*, std::__ndk1::basic_string<char, std::__ndk1::char_traits<char>, std::__ndk1::allocator<char> > >::~ResultData()
PUBLIC fc58 0 tulip::hook::WrapperMetadata::~WrapperMetadata()
PUBLIC fcbc 0 cocos2d::CCNode::~CCNode()
PUBLIC fce0 0 cocos2d::CCObject::~CCObject()
PUBLIC fd04 0 cocos2d::CCNodeRGBA::~CCNodeRGBA()
PUBLIC fd28 0 cocos2d::CCSprite::~CCSprite()
PUBLIC fd4c 0 cocos2d::CCNodeRGBA::~CCNodeRGBA()
PUBLIC ff80 0 cocos2d::CCSprite::~CCSprite()
PUBLIC 101bc 0 cocos2d::CCCopying::copyWithZone(cocos2d::CCZone*)
PUBLIC 101c4 0 cocos2d::CCObject::update(float)
PUBLIC 101c8 0 cocos2d::CCNodeRGBA::setOpacityModifyRGB(bool)
PUBLIC 101cc 0 cocos2d::CCNodeRGBA::isOpacityModifyRGB()
PUBLIC 101d4 0 {virtual override thunk({offset(-320)}, cocos2d::CCNodeRGBA::setOpacityModifyRGB(bool))}
PUBLIC 101d8 0 {virtual override thunk({offset(-320)}, cocos2d::CCNodeRGBA::isOpacityModifyRGB())}
PUBLIC 101e0 0 cocos2d::CCSprite::setBlendFunc(cocos2d::_ccBlendFunc)
PUBLIC 101ec 0 cocos2d::CCSprite::getBlendFunc()
PUBLIC 101f8 0 cocos2d::CCSprite::isDirty()
PUBLIC 10200 0 cocos2d::CCSprite::setDirty(bool)
PUBLIC 10208 0 {virtual override thunk({offset(-344)}, cocos2d::CCSprite::setBlendFunc(cocos2d::_ccBlendFunc))}
PUBLIC 10210 0 {virtual override thunk({offset(-344)}, cocos2d::CCSprite::getBlendFunc())}
PUBLIC 10218 0 cocos2d::CCNode::~CCNode()
PUBLIC 10444 0 cocos2d::CCObject::~CCObject()
PUBLIC 108e8 0 _ZN5geode15UnwrapExceptionC2IRPvQsr4implE18IsStringStreamableIT_EEENS_4impl5OkTagEOS4_
PUBLIC 10a3c 0 _ZN5geode15UnwrapExceptionC2IRNSt6__ndk112basic_stringIcNS2_11char_traitsIcEENS2_9allocatorIcEEEEQsr4implE18IsStringStreamableIT_EEENS_4impl6ErrTagEOSA_
PUBLIC 10ba4 0 std::__ndk1::__variant_detail::__visitation::__base::__dispatcher<(unsigned long)0>::__dispatch[abi:ne180000]<std::__ndk1::__variant_detail::__dtor<std::__ndk1::__variant_detail::__traits<void*, std::__ndk1::basic_string<char, std::__ndk1::char_traits<char>, std::__ndk1::allocator<char> > >, (std::__ndk1::__variant_detail::_Trait)1>::__destroy[abi:ne180000]()::{lambda(auto:1&)#1}, std::__ndk1::__variant_detail::__base<(std::__ndk1::__variant_detail::__traits<void*, std::__ndk1::basic_string<char, std::__ndk1::char_traits<char>, std::__ndk1::allocator<char> > >)1, std::__ndk1::__variant_detail::__traits, std::__ndk1::allocator<char> >&>(std::__ndk1::__variant_detail::__dtor<std::__ndk1::__variant_detail::__traits<void*, std::__ndk1::basic_string<char, std::__ndk1::char_traits<char>, std::__ndk1::allocator<char> > >, (std::__ndk1::__variant_detail::_Trait)1>, std::__ndk1::__variant_detail::__base<(std::__ndk1::__variant_detail::__traits<void*, std::__ndk1::basic_string<char, std::__ndk1::char_traits<char>, std::__ndk1::allocator<char> > >)1, std::__ndk1::__variant_detail::__traits, std::__ndk1::allocator<char> >&)
PUBLIC 10ba8 0 std::__ndk1::__variant_detail::__visitation::__base::__dispatcher<(unsigned long)1>::__dispatch[abi:ne180000]<std::__ndk1::__variant_detail::__dtor<std::__ndk1::__variant_detail::__traits<void*, std::__ndk1::basic_string<char, std::__ndk1::char_traits<char>, std::__ndk1::allocator<char> > >, (std::__ndk1::__variant_detail::_Trait)1>::__destroy[abi:ne180000]()::{lambda(auto:1&)#1}, std::__ndk1::__variant_detail::__base<(std::__ndk1::__variant_detail::__traits<void*, std::__ndk1::basic_string<char, std::__ndk1::char_traits<char>, std::__ndk1::allocator<char> > >)1, std::__ndk1::__variant_detail::__traits, std::__ndk1::allocator<char> >&>(std::__ndk1::__variant_detail::__dtor<std::__ndk1::__variant_detail::__traits<void*, std::__ndk1::basic_string<char, std::__ndk1::char_traits<char>, std::__ndk1::allocator<char> > >, (std::__ndk1::__variant_detail::_Trait)1>, std::__ndk1::__variant_detail::__base<(std::__ndk1::__variant_detail::__traits<void*, std::__ndk1::basic_string<char, std::__ndk1::char_traits<char>, std::__ndk1::allocator<char> > >)1, std::__ndk1::__variant_detail::__traits, std::__ndk1::allocator<char> >&)
PUBLIC 10bbc 0 std::__ndk1::__hash_table<std::__ndk1::__hash_value_type<void*, bool>, std::__ndk1::__unordered_map_hasher<void*, std::__ndk1::__hash_value_type<void*, bool>, std::__ndk1::hash<void*>, std::__ndk1::equal_to<void*>, true>, std::__ndk1::__unordered_map_equal<void*, std::__ndk1::__hash_value_type<void*, bool>, std::__ndk1::equal_to<void*>, std::__ndk1::hash<void*>, true>, std::__ndk1::allocator<std::__ndk1::__hash_value_type<void*, bool> > >::__emplace_unique_key_args<void*, std::__ndk1::piecewise_construct_t const&, std::__ndk1::tuple<void* const&>, std::__ndk1::tuple<> >(void* const&, std::__ndk1::piecewise_construct_t const&, std::__ndk1::tuple<void* const&>, std::__ndk1::tuple<>)
PUBLIC 1109c 0 __CortexA53843419_F008
PUBLIC 110b0 0 <.plt ELF section in raydeeux.frickglow.android64.so>
STACK CFI INIT ae60 10 .cfa: sp 0 +
STACK CFI INIT ae70 8 .cfa: sp 0 +
STACK CFI INIT ae78 8 .cfa: sp 0 +
STACK CFI INIT ae80 14 .cfa: sp 0 +
STACK CFI INIT ae94 1c .cfa: sp 0 +
STACK CFI INIT aeb0 10 .cfa: sp 0 +
STACK CFI INIT aec0 30 .cfa: sp 0 +
STACK CFI INIT aef0 98 .cfa: sp 0 +
STACK CFI INIT af88 59c .cfa: sp 0 +
STACK CFI INIT b524 8c .cfa: sp 0 +
STACK CFI INIT b5b0 30 .cfa: sp 0 +
STACK CFI INIT b5e0 5c .cfa: sp 0 +
STACK CFI b5ec .cfa: sp 32 +
STACK CFI b5f4 .cfa: x29 32 + x19: .cfa -8 + ^ x20: .cfa -16 + ^ .ra: .cfa -24 + ^ x29: .cfa -32 + ^
STACK CFI b630 .cfa: sp 32 +
STACK CFI b638 .cfa: sp 0 +
STACK CFI INIT bb9c 18 .cfa: sp 0 +
STACK CFI INIT c038 18 .cfa: sp 0 +
STACK CFI INIT c050 10 .cfa: sp 0 +
STACK CFI c054 .cfa: sp 16 +
STACK CFI c058 .cfa: x29 16 + .ra: .cfa -8 + ^ x29: .cfa -16 + ^
STACK CFI INIT c060 34 .cfa: sp 0 +
STACK CFI c064 .cfa: sp 32 +
STACK CFI c06c .cfa: x29 32 + x19: .cfa -16 + ^ .ra: .cfa -24 + ^ x29: .cfa -32 + ^
STACK CFI INIT c668 50 .cfa: sp 0 +
STACK CFI c66c .cfa: sp 32 +
STACK CFI c674 .cfa: x29 32 + x19: .cfa -16 + ^ .ra: .cfa -24 + ^ x29: .cfa -32 + ^
STACK CFI c68c .cfa: sp 32 +
STACK CFI c694 .cfa: sp 0 +
STACK CFI c698 .cfa: x29 32 +
STACK CFI c6ac .cfa: sp 32 +
STACK CFI c6b4 .cfa: sp 0 +
STACK CFI INIT c72c 7c .cfa: sp 0 +
STACK CFI c730 .cfa: sp 48 +
STACK CFI c73c .cfa: x29 48 + x19: .cfa -8 + ^ x20: .cfa -16 + ^ x21: .cfa -32 + ^ .ra: .cfa -40 + ^ x29: .cfa -48 + ^
STACK CFI c788 .cfa: sp 48 +
STACK CFI c794 .cfa: sp 0 +
STACK CFI c798 .cfa: sp 48 +
STACK CFI c7a4 .cfa: sp 0 +
STACK CFI INIT c7a8 4 .cfa: sp 0 +
STACK CFI INIT ca7c 120 .cfa: sp 0 +
STACK CFI ca80 .cfa: sp 64 +
STACK CFI ca90 .cfa: x29 64 + x19: .cfa -8 + ^ x20: .cfa -16 + ^ x21: .cfa -24 + ^ x22: .cfa -32 + ^ x23: .cfa -40 + ^ x24: .cfa -48 + ^ .ra: .cfa -56 + ^ x29: .cfa -64 + ^
STACK CFI cb88 .cfa: sp 64 +
STACK CFI cb98 .cfa: sp 0 +
STACK CFI INIT cb9c 7c .cfa: sp 0 +
STACK CFI cba0 .cfa: sp 32 +
STACK CFI cba8 .cfa: x29 32 + x19: .cfa -8 + ^ x20: .cfa -16 + ^ .ra: .cfa -24 + ^ x29: .cfa -32 + ^
STACK CFI cc00 .cfa: sp 32 +
STACK CFI cc08 .cfa: sp 0 +
STACK CFI cc0c .cfa: sp 32 +
STACK CFI cc14 .cfa: sp 0 +
STACK CFI INIT cc18 80 .cfa: sp 0 +
STACK CFI cc1c .cfa: sp 48 +
STACK CFI cc28 .cfa: x29 48 + x19: .cfa -8 + ^ x20: .cfa -16 + ^ x21: .cfa -24 + ^ x22: .cfa -32 + ^ .ra: .cfa -40 + ^ x29: .cfa -48 + ^
STACK CFI cc40 .cfa: sp 48 +
STACK CFI cc4c .cfa: sp 0 +
STACK CFI cc50 .cfa: x29 48 +
STACK CFI cc80 .cfa: sp 48 +
STACK CFI cc8c .cfa: sp 0 +
STACK CFI cc90 .cfa: x29 48 +
STACK CFI INIT cc98 14 .cfa: sp 0 +
STACK CFI cc9c .cfa: sp 16 +
STACK CFI cca0 .cfa: x29 16 + .ra: .cfa -8 + ^ x29: .cfa -16 + ^
STACK CFI INIT ccfc 30 .cfa: sp 0 +
STACK CFI cd00 .cfa: sp 32 +
STACK CFI cd08 .cfa: x29 32 + x19: .cfa -16 + ^ .ra: .cfa -24 + ^ x29: .cfa -32 + ^
STACK CFI cd20 .cfa: sp 32 +
STACK CFI cd28 .cfa: sp 0 +
STACK CFI INIT cd2c 1b0 .cfa: sp 0 +
STACK CFI INIT d030 34 .cfa: sp 0 +
STACK CFI d034 .cfa: sp 16 +
STACK CFI d038 .cfa: x29 16 + .ra: .cfa -8 + ^ x29: .cfa -16 + ^
STACK CFI INIT d190 80 .cfa: sp 0 +
STACK CFI d194 .cfa: sp 48 +
STACK CFI d1a0 .cfa: x29 48 + x19: .cfa -8 + ^ x20: .cfa -16 + ^ x21: .cfa -32 + ^ .ra: .cfa -40 + ^ x29: .cfa -48 + ^
STACK CFI d200 .cfa: sp 48 +
STACK CFI d20c .cfa: sp 0 +
STACK CFI INIT d210 24 .cfa: sp 0 +
STACK CFI d214 .cfa: sp 32 +
STACK CFI d21c .cfa: x29 32 + x19: .cfa -16 + ^ .ra: .cfa -24 + ^ x29: .cfa -32 + ^
STACK CFI d228 .cfa: sp 32 +
STACK CFI d230 .cfa: sp 0 +
STACK CFI INIT d72c 148 .cfa: sp 0 +
STACK CFI d730 .cfa: sp 48 +
STACK CFI d73c .cfa: x29 48 + x19: .cfa -8 + ^ x20: .cfa -16 + ^ x21: .cfa -32 + ^ .ra: .cfa -40 + ^ x29: .cfa -48 + ^
STACK CFI d864 .cfa: sp 48 +
STACK CFI d870 .cfa: sp 0 +
STACK CFI INIT d874 4 .cfa: sp 0 +
STACK CFI INIT d878 14 .cfa: sp 0 +
STACK CFI INIT dab0 68 .cfa: sp 0 +
STACK CFI dab4 .cfa: sp 32 +
STACK CFI dabc .cfa: x29 32 + x19: .cfa -8 + ^ x20: .cfa -16 + ^ .ra: .cfa -24 + ^ x29: .cfa -32 + ^
STACK CFI dad4 .cfa: sp 32 +
STACK CFI dadc .cfa: sp 0 +
STACK CFI dae0 .cfa: x29 32 +
STACK CFI db0c .cfa: sp 32 +
STACK CFI db14 .cfa: sp 0 +
STACK CFI INIT db18 14 .cfa: sp 0 +
STACK CFI db1c .cfa: sp 16 +
STACK CFI db20 .cfa: x29 16 + .ra: .cfa -8 + ^ x29: .cfa -16 + ^
STACK CFI INIT db2c 4 .cfa: sp 0 +
STACK CFI INIT db30 14 .cfa: sp 0 +
STACK CFI INIT db44 4a4 .cfa: sp 0 +
STACK CFI db48 .cfa: sp 32 +
STACK CFI db50 .cfa: x29 32 + x19: .cfa -8 + ^ x20: .cfa -16 + ^ .ra: .cfa -24 + ^ x29: .cfa -32 + ^
STACK CFI df30 .cfa: sp 32 +
STACK CFI df38 .cfa: sp 0 +
STACK CFI df3c .cfa: x29 32 +
STACK CFI INIT dfe8 84 .cfa: sp 0 +
STACK CFI dff0 .cfa: sp 32 +
STACK CFI dff8 .cfa: x29 32 + x19: .cfa -8 + ^ x20: .cfa -16 + ^ .ra: .cfa -24 + ^ x29: .cfa -32 + ^
STACK CFI e038 .cfa: sp 32 +
STACK CFI e040 .cfa: sp 0 +
STACK CFI e048 .cfa: x29 32 +
STACK CFI INIT e3e0 ac .cfa: sp 0 +
STACK CFI e3e4 .cfa: sp 48 +
STACK CFI e3f0 .cfa: x29 48 + x19: .cfa -8 + ^ x20: .cfa -16 + ^ x21: .cfa -24 + ^ x22: .cfa -32 + ^ .ra: .cfa -40 + ^ x29: .cfa -48 + ^
STACK CFI e430 .cfa: sp 48 +
STACK CFI e43c .cfa: sp 0 +
STACK CFI e440 .cfa: x29 48 +
STACK CFI e47c .cfa: sp 48 +
STACK CFI e488 .cfa: sp 0 +
STACK CFI INIT e48c 50 .cfa: sp 0 +
STACK CFI e490 .cfa: sp 32 +
STACK CFI e498 .cfa: x29 32 + x19: .cfa -16 + ^ .ra: .cfa -24 + ^ x29: .cfa -32 + ^
STACK CFI e4b0 .cfa: sp 32 +
STACK CFI e4b8 .cfa: sp 0 +
STACK CFI e4bc .cfa: x29 32 +
STACK CFI e4d0 .cfa: sp 32 +
STACK CFI e4d8 .cfa: sp 0 +
STACK CFI INIT e4dc 64 .cfa: sp 0 +
STACK CFI e4e0 .cfa: sp 32 +
STACK CFI e4e8 .cfa: x29 32 + x19: .cfa -16 + ^ .ra: .cfa -24 + ^ x29: .cfa -32 + ^
STACK CFI e514 .cfa: sp 32 +
STACK CFI e51c .cfa: sp 0 +
STACK CFI e520 .cfa: x29 32 +
STACK CFI e534 .cfa: sp 32 +
STACK CFI e53c .cfa: sp 0 +
STACK CFI INIT e540 130 .cfa: sp 0 +
STACK CFI e544 .cfa: sp 80 +
STACK CFI e554 .cfa: x29 48 + x19: .cfa -8 + ^ x20: .cfa -16 + ^ x21: .cfa -24 + ^ x22: .cfa -32 + ^ .ra: .cfa -40 + ^ x29: .cfa -48 + ^
STACK CFI e658 .cfa: sp 80 +
STACK CFI e668 .cfa: sp 0 +
STACK CFI e66c .cfa: x29 48 +
STACK CFI INIT e670 120 .cfa: sp 0 +
STACK CFI e674 .cfa: sp 80 +
STACK CFI e684 .cfa: x29 48 + x19: .cfa -8 + ^ x20: .cfa -16 + ^ x21: .cfa -24 + ^ x22: .cfa -32 + ^ .ra: .cfa -40 + ^ x29: .cfa -48 + ^
STACK CFI e778 .cfa: sp 80 +
STACK CFI e788 .cfa: sp 0 +
STACK CFI e78c .cfa: x29 48 +
STACK CFI INIT e790 f8 .cfa: sp 0 +
STACK CFI e794 .cfa: sp 64 +
STACK CFI e7a4 .cfa: x29 64 + x19: .cfa -8 + ^ x20: .cfa -16 + ^ x21: .cfa -24 + ^ x22: .cfa -32 + ^ x23: .cfa -48 + ^ .ra: .cfa -56 + ^ x29: .cfa -64 + ^
STACK CFI e800 .cfa: sp 64 +
STACK CFI e810 .cfa: sp 0 +
STACK CFI e814 .cfa: x29 64 +
STACK CFI e830 .cfa: sp 64 +
STACK CFI e840 .cfa: sp 0 +
STACK CFI e844 .cfa: x29 64 +
STACK CFI e874 .cfa: sp 64 +
STACK CFI e884 .cfa: sp 0 +
STACK CFI INIT e8d8 30 .cfa: sp 0 +
STACK CFI e8dc .cfa: sp 32 +
STACK CFI e8e4 .cfa: x29 32 + x19: .cfa -16 + ^ .ra: .cfa -24 + ^ x29: .cfa -32 + ^
STACK CFI e8fc .cfa: sp 32 +
STACK CFI e904 .cfa: sp 0 +
STACK CFI INIT ef48 4 .cfa: sp 0 +
STACK CFI INIT ef4c 14 .cfa: sp 0 +
STACK CFI ef50 .cfa: sp 16 +
STACK CFI ef54 .cfa: x29 16 + .ra: .cfa -8 + ^ x29: .cfa -16 + ^
STACK CFI INIT ef60 14 .cfa: sp 0 +
STACK CFI ef64 .cfa: sp 16 +
STACK CFI ef68 .cfa: x29 16 + .ra: .cfa -8 + ^ x29: .cfa -16 + ^
STACK CFI INIT ef74 c .cfa: sp 0 +
STACK CFI ef78 .cfa: sp 16 +
STACK CFI ef7c .cfa: x29 16 + .ra: .cfa -8 + ^ x29: .cfa -16 + ^
STACK CFI INIT ef80 c .cfa: sp 0 +
STACK CFI ef84 .cfa: sp 16 +
STACK CFI ef88 .cfa: x29 16 + .ra: .cfa -8 + ^ x29: .cfa -16 + ^
STACK CFI INIT ef8c 4 .cfa: sp 0 +
STACK CFI INIT ef90 4 .cfa: sp 0 +
STACK CFI INIT ef94 38 .cfa: sp 0 +
STACK CFI ef98 .cfa: sp 32 +
STACK CFI efa0 .cfa: x29 32 + x19: .cfa -16 + ^ .ra: .cfa -24 + ^ x29: .cfa -32 + ^
STACK CFI efc0 .cfa: sp 32 +
STACK CFI efc8 .cfa: sp 0 +
STACK CFI INIT efcc 18 .cfa: sp 0 +
STACK CFI INIT efe4 4 .cfa: sp 0 +
STACK CFI INIT efe8 4 .cfa: sp 0 +
STACK CFI INIT efec 10 .cfa: sp 0 +
STACK CFI INIT effc 1c .cfa: sp 0 +
STACK CFI INIT f018 c .cfa: sp 0 +
STACK CFI INIT f024 168 .cfa: sp 0 +
STACK CFI f028 .cfa: sp 80 +
STACK CFI f03c .cfa: x29 80 + x19: .cfa -8 + ^ x20: .cfa -16 + ^ x21: .cfa -24 + ^ x22: .cfa -32 + ^ x23: .cfa -40 + ^ x24: .cfa -48 + ^ x25: .cfa -56 + ^ x26: .cfa -64 + ^ .ra: .cfa -72 + ^ x29: .cfa -80 + ^
STACK CFI f174 .cfa: sp 80 +
STACK CFI f188 .cfa: sp 0 +
STACK CFI INIT f688 4 .cfa: sp 0 +
STACK CFI INIT f68c 238 .cfa: sp 0 +
STACK CFI f690 .cfa: sp 48 +
STACK CFI f69c .cfa: x29 48 + x19: .cfa -8 + ^ x20: .cfa -16 + ^ x21: .cfa -24 + ^ x22: .cfa -32 + ^ .ra: .cfa -40 + ^ x29: .cfa -48 + ^
STACK CFI f8a4 .cfa: sp 48 +
STACK CFI f8b0 .cfa: sp 0 +
STACK CFI f8b4 .cfa: sp 48 +
STACK CFI f8c0 .cfa: sp 0 +
STACK CFI INIT f9fc 3c .cfa: sp 0 +
STACK CFI fa00 .cfa: sp 32 +
STACK CFI fa08 .cfa: x29 32 + x19: .cfa -16 + ^ .ra: .cfa -24 + ^ x29: .cfa -32 + ^
STACK CFI fa14 .cfa: sp 32 +
STACK CFI fa1c .cfa: sp 0 +
STACK CFI fa20 .cfa: x29 32 +
STACK CFI fa2c .cfa: sp 32 +
STACK CFI fa34 .cfa: sp 0 +
STACK CFI INIT fc58 64 .cfa: sp 0 +
STACK CFI fc5c .cfa: sp 32 +
STACK CFI fc64 .cfa: x29 32 + x19: .cfa -16 + ^ .ra: .cfa -24 + ^ x29: .cfa -32 + ^
STACK CFI fc90 .cfa: sp 32 +
STACK CFI fc98 .cfa: sp 0 +
STACK CFI fc9c .cfa: x29 32 +
STACK CFI fcb0 .cfa: sp 32 +
STACK CFI fcb8 .cfa: sp 0 +
STACK CFI INIT fcbc 24 .cfa: sp 0 +
STACK CFI fcc0 .cfa: sp 32 +
STACK CFI fcc8 .cfa: x29 32 + x19: .cfa -16 + ^ .ra: .cfa -24 + ^ x29: .cfa -32 + ^
STACK CFI fcd4 .cfa: sp 32 +
STACK CFI fcdc .cfa: sp 0 +
STACK CFI INIT fce0 24 .cfa: sp 0 +
STACK CFI fce4 .cfa: sp 32 +
STACK CFI fcec .cfa: x29 32 + x19: .cfa -16 + ^ .ra: .cfa -24 + ^ x29: .cfa -32 + ^
STACK CFI fcf8 .cfa: sp 32 +
STACK CFI fd00 .cfa: sp 0 +
STACK CFI INIT fd04 24 .cfa: sp 0 +
STACK CFI fd08 .cfa: sp 32 +
STACK CFI fd10 .cfa: x29 32 + x19: .cfa -16 + ^ .ra: .cfa -24 + ^ x29: .cfa -32 + ^
STACK CFI fd1c .cfa: sp 32 +
STACK CFI fd24 .cfa: sp 0 +
STACK CFI INIT fd28 24 .cfa: sp 0 +
STACK CFI fd2c .cfa: sp 32 +
STACK CFI fd34 .cfa: x29 32 + x19: .cfa -16 + ^ .ra: .cfa -24 + ^ x29: .cfa -32 + ^
STACK CFI fd40 .cfa: sp 32 +
STACK CFI fd48 .cfa: sp 0 +
STACK CFI INIT 101bc 8 .cfa: sp 0 +
STACK CFI INIT 101c4 4 .cfa: sp 0 +
STACK CFI INIT 101c8 4 .cfa: sp 0 +
STACK CFI INIT 101cc 8 .cfa: sp 0 +
STACK CFI INIT 101d4 4 .cfa: sp 0 +
STACK CFI INIT 101d8 8 .cfa: sp 0 +
STACK CFI INIT 101e0 c .cfa: sp 0 +
STACK CFI INIT 101ec c .cfa: sp 0 +
STACK CFI INIT 101f8 8 .cfa: sp 0 +
STACK CFI INIT 10200 8 .cfa: sp 0 +
STACK CFI INIT 10208 8 .cfa: sp 0 +
STACK CFI INIT 10210 8 .cfa: sp 0 +
STACK CFI INIT 10ba4 4 .cfa: sp 0 +
STACK CFI INIT 10ba8 14 .cfa: sp 0 +
STACK CFI INIT b63c 560 .cfa: sp 0 +
STACK CFI b640 .cfa: sp 224 +
STACK CFI b65c .cfa: x29 96 + x19: .cfa -8 + ^ x20: .cfa -16 + ^ x21: .cfa -24 + ^ x22: .cfa -32 + ^ x23: .cfa -40 + ^ x24: .cfa -48 + ^ x25: .cfa -56 + ^ x26: .cfa -64 + ^ x27: .cfa -72 + ^ x28: .cfa -80 + ^ .ra: .cfa -88 + ^ x29: .cfa -96 + ^
STACK CFI b990 .cfa: sp 224 +
STACK CFI b9ac .cfa: sp 0 +
STACK CFI b9b0 .cfa: x29 96 +
STACK CFI ba7c .cfa: sp 224 +
STACK CFI ba98 .cfa: sp 0 +
STACK CFI ba9c .cfa: x29 96 +
STACK CFI INIT bbb4 484 .cfa: sp 0 +
STACK CFI bbb8 .cfa: sp 224 +
STACK CFI bbd4 .cfa: x29 96 + x19: .cfa -8 + ^ x20: .cfa -16 + ^ x21: .cfa -24 + ^ x22: .cfa -32 + ^ x23: .cfa -40 + ^ x24: .cfa -48 + ^ x25: .cfa -56 + ^ x26: .cfa -64 + ^ x27: .cfa -72 + ^ x28: .cfa -80 + ^ .ra: .cfa -88 + ^ x29: .cfa -96 + ^
STACK CFI be44 .cfa: sp 224 +
STACK CFI be60 .cfa: sp 0 +
STACK CFI be64 .cfa: x29 96 +
STACK CFI bf30 .cfa: sp 224 +
STACK CFI bf4c .cfa: sp 0 +
STACK CFI bf50 .cfa: x29 96 +
STACK CFI INIT c094 5d4 .cfa: sp 0 +
STACK CFI c098 .cfa: sp 272 +
STACK CFI c0b0 .cfa: x29 80 + x19: .cfa -8 + ^ x20: .cfa -16 + ^ x21: .cfa -24 + ^ x22: .cfa -32 + ^ x23: .cfa -40 + ^ x24: .cfa -48 + ^ x25: .cfa -56 + ^ x28: .cfa -64 + ^ .ra: .cfa -72 + ^ x29: .cfa -80 + ^
STACK CFI c498 .cfa: sp 272 +
STACK CFI c4b0 .cfa: sp 0 +
STACK CFI c4b4 .cfa: x29 80 +
STACK CFI INIT c6b8 74 .cfa: sp 0 +
STACK CFI c6bc .cfa: sp 48 +
STACK CFI c6c8 .cfa: x29 32 + x19: .cfa -8 + ^ x20: .cfa -16 + ^ .ra: .cfa -24 + ^ x29: .cfa -32 + ^
STACK CFI c714 .cfa: sp 48 +
STACK CFI c720 .cfa: sp 0 +
STACK CFI c724 .cfa: x29 32 +
STACK CFI INIT c7ac 2d0 .cfa: sp 0 +
STACK CFI c7b0 .cfa: sp 176 +
STACK CFI c7cc .cfa: x29 96 + x19: .cfa -8 + ^ x20: .cfa -16 + ^ x21: .cfa -24 + ^ x22: .cfa -32 + ^ x23: .cfa -40 + ^ x24: .cfa -48 + ^ x25: .cfa -56 + ^ x26: .cfa -64 + ^ x27: .cfa -72 + ^ x28: .cfa -80 + ^ .ra: .cfa -88 + ^ x29: .cfa -96 + ^
STACK CFI ca1c .cfa: sp 176 +
STACK CFI ca38 .cfa: sp 0 +
STACK CFI ca3c .cfa: x29 96 +
STACK CFI INIT ccac 50 .cfa: sp 0 +
STACK CFI ccb0 .cfa: sp 32 +
STACK CFI ccb8 .cfa: x29 32 + x19: .cfa -8 + ^ x20: .cfa -16 + ^ .ra: .cfa -24 + ^ x29: .cfa -32 + ^
STACK CFI INIT cedc 154 .cfa: sp 0 +
STACK CFI cee0 .cfa: sp 384 +
STACK CFI cef4 .cfa: x29 64 + x19: .cfa -8 + ^ x20: .cfa -16 + ^ x21: .cfa -24 + ^ x22: .cfa -32 + ^ x23: .cfa -40 + ^ x28: .cfa -48 + ^ .ra: .cfa -56 + ^ x29: .cfa -64 + ^
STACK CFI cfd8 .cfa: sp 384 +
STACK CFI cfec .cfa: sp 0 +
STACK CFI cff0 .cfa: x29 64 +
STACK CFI INIT d064 12c .cfa: sp 0 +
STACK CFI d068 .cfa: sp 80 +
STACK CFI d07c .cfa: x29 80 + x19: .cfa -8 + ^ x20: .cfa -16 + ^ x21: .cfa -24 + ^ x22: .cfa -32 + ^ x23: .cfa -40 + ^ x24: .cfa -48 + ^ x25: .cfa -56 + ^ x26: .cfa -64 + ^ .ra: .cfa -72 + ^ x29: .cfa -80 + ^
STACK CFI d144 .cfa: sp 80 +
STACK CFI d158 .cfa: sp 0 +
STACK CFI d15c .cfa: x29 80 +
STACK CFI INIT d234 1a4 .cfa: sp 0 +
STACK CFI d238 .cfa: sp 112 +
STACK CFI d250 .cfa: x29 80 + x19: .cfa -8 + ^ x20: .cfa -16 + ^ x21: .cfa -24 + ^ x22: .cfa -32 + ^ x23: .cfa -40 + ^ x24: .cfa -48 + ^ x25: .cfa -56 + ^ x26: .cfa -64 + ^ .ra: .cfa -72 + ^ x29: .cfa -80 + ^
STACK CFI d340 .cfa: sp 112 +
STACK CFI d358 .cfa: sp 0 +
STACK CFI d35c .cfa: x29 80 +
STACK CFI INIT d3d8 1dc .cfa: sp 0 +
STACK CFI d3dc .cfa: sp 128 +
STACK CFI d3f8 .cfa: x29 96 + x19: .cfa -8 + ^ x20: .cfa -16 + ^ x21: .cfa -24 + ^ x22: .cfa -32 + ^ x23: .cfa -40 + ^ x24: .cfa -48 + ^ x25: .cfa -56 + ^ x26: .cfa -64 + ^ x27: .cfa -80 + ^ .ra: .cfa -88 + ^ x29: .cfa -96 + ^
STACK CFI d564 .cfa: sp 128 +
STACK CFI d580 .cfa: sp 0 +
STACK CFI d584 .cfa: x29 96 +
STACK CFI INIT d5b4 178 .cfa: sp 0 +
STACK CFI d5b8 .cfa: sp 80 +
STACK CFI d5cc .cfa: x29 80 + x19: .cfa -8 + ^ x20: .cfa -16 + ^ x21: .cfa -24 + ^ x22: .cfa -32 + ^ x23: .cfa -40 + ^ x24: .cfa -48 + ^ x25: .cfa -64 + ^ .ra: .cfa -72 + ^ x29: .cfa -80 + ^
STACK CFI d6f8 .cfa: sp 80 +
STACK CFI d70c .cfa: sp 0 +
STACK CFI d710 .cfa: x29 80 +
STACK CFI INIT d88c 224 .cfa: sp 0 +
STACK CFI d890 .cfa: sp 128 +
STACK CFI d8a8 .cfa: x29 80 + x19: .cfa -8 + ^ x20: .cfa -16 + ^ x21: .cfa -24 + ^ x22: .cfa -32 + ^ x23: .cfa -40 + ^ x24: .cfa -48 + ^ x25: .cfa -64 + ^ .ra: .cfa -72 + ^ x29: .cfa -80 + ^
STACK CFI da44 .cfa: sp 128 +
STACK CFI da5c .cfa: sp 0 +
STACK CFI da60 .cfa: x29 80 +
STACK CFI INIT e06c 374 .cfa: sp 0 +
STACK CFI e070 .cfa: sp 128 +
STACK CFI e084 .cfa: x29 64 + x19: .cfa -8 + ^ x20: .cfa -16 + ^ x21: .cfa -24 + ^ x22: .cfa -32 + ^ x23: .cfa -40 + ^ x24: .cfa -48 + ^ .ra: .cfa -56 + ^ x29: .cfa -64 + ^
STACK CFI e338 .cfa: sp 128 +
STACK CFI e34c .cfa: sp 0 +
STACK CFI e350 .cfa: x29 64 +
STACK CFI INIT e888 50 .cfa: sp 0 +
STACK CFI e88c .cfa: sp 32 +
STACK CFI e894 .cfa: x29 32 + x19: .cfa -8 + ^ x20: .cfa -16 + ^ .ra: .cfa -24 + ^ x29: .cfa -32 + ^
STACK CFI INIT e908 640 .cfa: sp 0 +
STACK CFI e90c .cfa: sp 224 +
STACK CFI e928 .cfa: x29 96 + x19: .cfa -8 + ^ x20: .cfa -16 + ^ x21: .cfa -24 + ^ x22: .cfa -32 + ^ x23: .cfa -40 + ^ x24: .cfa -48 + ^ x25: .cfa -56 + ^ x26: .cfa -64 + ^ x27: .cfa -72 + ^ x28: .cfa -80 + ^ .ra: .cfa -88 + ^ x29: .cfa -96 + ^
STACK CFI edd8 .cfa: sp 224 +
STACK CFI edf4 .cfa: sp 0 +
STACK CFI edf8 .cfa: x29 96 +
STACK CFI INIT f18c c8 .cfa: sp 0 +
STACK CFI f190 .cfa: sp 32 +
STACK CFI f198 .cfa: x29 32 + x19: .cfa -8 + ^ x20: .cfa -16 + ^ .ra: .cfa -24 + ^ x29: .cfa -32 + ^
STACK CFI f1cc .cfa: sp 32 +
STACK CFI f1d4 .cfa: sp 0 +
STACK CFI f1d8 .cfa: x29 32 +
STACK CFI f1dc .cfa: sp 32 +
STACK CFI f1e4 .cfa: sp 0 +
STACK CFI f1e8 .cfa: x29 32 +
STACK CFI INIT f254 dc .cfa: sp 0 +
STACK CFI f258 .cfa: sp 48 +
STACK CFI f264 .cfa: x29 32 + x19: .cfa -8 + ^ x20: .cfa -16 + ^ .ra: .cfa -24 + ^ x29: .cfa -32 + ^ v8: .cfa -48 + ^
STACK CFI f30c .cfa: sp 48 +
STACK CFI f318 .cfa: sp 0 +
STACK CFI f31c .cfa: x29 32 +
STACK CFI INIT f330 358 .cfa: sp 0 +
STACK CFI f334 .cfa: sp 208 +
STACK CFI f348 .cfa: x29 64 + x19: .cfa -8 + ^ x20: .cfa -16 + ^ x21: .cfa -24 + ^ x22: .cfa -32 + ^ x23: .cfa -48 + ^ .ra: .cfa -56 + ^ x29: .cfa -64 + ^
STACK CFI f564 .cfa: sp 208 +
STACK CFI f578 .cfa: sp 0 +
STACK CFI f57c .cfa: x29 64 +
STACK CFI INIT f8c4 138 .cfa: sp 0 +
STACK CFI f8c8 .cfa: sp 64 +
STACK CFI f8d8 .cfa: x29 64 + x19: .cfa -8 + ^ x20: .cfa -16 + ^ x21: .cfa -24 + ^ x22: .cfa -32 + ^ x23: .cfa -48 + ^ .ra: .cfa -56 + ^ x29: .cfa -64 + ^
STACK CFI f9b8 .cfa: sp 64 +
STACK CFI f9c8 .cfa: sp 0 +
STACK CFI f9cc .cfa: x29 64 +
STACK CFI INIT fa38 134 .cfa: sp 0 +
STACK CFI fa3c .cfa: sp 80 +
STACK CFI fa48 .cfa: x29 32 + x19: .cfa -8 + ^ x20: .cfa -16 + ^ .ra: .cfa -24 + ^ x29: .cfa -32 + ^
STACK CFI fa78 .cfa: sp 80 +
STACK CFI fa84 .cfa: sp 0 +
STACK CFI fa88 .cfa: x29 32 +
STACK CFI INIT fb6c 78 .cfa: sp 0 +
STACK CFI fb70 .cfa: sp 32 +
STACK CFI fb78 .cfa: x29 32 + x19: .cfa -8 + ^ x20: .cfa -16 + ^ .ra: .cfa -24 + ^ x29: .cfa -32 + ^
STACK CFI fb84 .cfa: sp 32 +
STACK CFI fb8c .cfa: sp 0 +
STACK CFI fb90 .cfa: x29 32 +
STACK CFI INIT fbe4 74 .cfa: sp 0 +
STACK CFI fbe8 .cfa: sp 48 +
STACK CFI fbf4 .cfa: x29 32 + x19: .cfa -8 + ^ x20: .cfa -16 + ^ .ra: .cfa -24 + ^ x29: .cfa -32 + ^
STACK CFI fc40 .cfa: sp 48 +
STACK CFI fc4c .cfa: sp 0 +
STACK CFI fc50 .cfa: x29 32 +
STACK CFI INIT fd4c 234 .cfa: sp 0 +
STACK CFI fd50 .cfa: sp 128 +
STACK CFI fd64 .cfa: x29 64 + x19: .cfa -8 + ^ x20: .cfa -16 + ^ x21: .cfa -24 + ^ x22: .cfa -32 + ^ x23: .cfa -48 + ^ .ra: .cfa -56 + ^ x29: .cfa -64 + ^
STACK CFI fe14 .cfa: sp 128 +
STACK CFI fe28 .cfa: sp 0 +
STACK CFI fe2c .cfa: x29 64 +
STACK CFI INIT ff80 23c .cfa: sp 0 +
STACK CFI ff84 .cfa: sp 128 +
STACK CFI ff98 .cfa: x29 64 + x19: .cfa -8 + ^ x20: .cfa -16 + ^ x21: .cfa -24 + ^ x22: .cfa -32 + ^ x23: .cfa -48 + ^ .ra: .cfa -56 + ^ x29: .cfa -64 + ^
STACK CFI 10050 .cfa: sp 128 +
STACK CFI 10064 .cfa: sp 0 +
STACK CFI 10068 .cfa: x29 64 +
STACK CFI INIT 10218 22c .cfa: sp 0 +
STACK CFI 1021c .cfa: sp 128 +
STACK CFI 10230 .cfa: x29 64 + x19: .cfa -8 + ^ x20: .cfa -16 + ^ x21: .cfa -24 + ^ x22: .cfa -32 + ^ x23: .cfa -48 + ^ .ra: .cfa -56 + ^ x29: .cfa -64 + ^
STACK CFI 102d8 .cfa: sp 128 +
STACK CFI 102ec .cfa: sp 0 +
STACK CFI 102f0 .cfa: x29 64 +
STACK CFI INIT 10444 4a4 .cfa: sp 0 +
STACK CFI 10448 .cfa: sp 128 +
STACK CFI 1045c .cfa: x29 64 + x19: .cfa -8 + ^ x20: .cfa -16 + ^ x21: .cfa -24 + ^ x22: .cfa -32 + ^ x23: .cfa -48 + ^ .ra: .cfa -56 + ^ x29: .cfa -64 + ^
STACK CFI 10724 .cfa: sp 128 +
STACK CFI 10738 .cfa: sp 0 +
STACK CFI 1073c .cfa: x29 64 +
STACK CFI INIT 108e8 154 .cfa: sp 0 +
STACK CFI 108ec .cfa: sp 384 +
STACK CFI 10900 .cfa: x29 64 + x19: .cfa -8 + ^ x20: .cfa -16 + ^ x21: .cfa -24 + ^ x22: .cfa -32 + ^ x23: .cfa -40 + ^ x28: .cfa -48 + ^ .ra: .cfa -56 + ^ x29: .cfa -64 + ^
STACK CFI 109e4 .cfa: sp 384 +
STACK CFI 109f8 .cfa: sp 0 +
STACK CFI 109fc .cfa: x29 64 +
STACK CFI INIT 10a3c 168 .cfa: sp 0 +
STACK CFI 10a40 .cfa: sp 384 +
STACK CFI 10a54 .cfa: x29 64 + x19: .cfa -8 + ^ x20: .cfa -16 + ^ x21: .cfa -24 + ^ x22: .cfa -32 + ^ x23: .cfa -40 + ^ x28: .cfa -48 + ^ .ra: .cfa -56 + ^ x29: .cfa -64 + ^
STACK CFI 10b4c .cfa: sp 384 +
STACK CFI 10b60 .cfa: sp 0 +
STACK CFI 10b64 .cfa: x29 64 +
STACK CFI INIT 10bbc 4e0 .cfa: sp 0 +
STACK CFI 10bc0 .cfa: sp 64 +
STACK CFI 10bd0 .cfa: x29 64 + x19: .cfa -8 + ^ x20: .cfa -16 + ^ x21: .cfa -24 + ^ x22: .cfa -32 + ^ x23: .cfa -40 + ^ x24: .cfa -48 + ^ .ra: .cfa -56 + ^ x29: .cfa -64 + ^
STACK CFI 11070 .cfa: sp 64 +
STACK CFI 11080 .cfa: sp 0 +
STACK CFI 11084 .cfa: x29 64 +
