MODULE Linux arm 9525B5E3F885924E7C0A72F84D6F8FB80 naxrin.chroma_icons.android32.so
INFO CODE_ID E3B5259585F84E927C0A72F84D6F8FB812740D65
INFO GENERATOR mozilla/dump_syms 2.3.4
PUBLIC 2c170 0 __on_dlclose
PUBLIC 2c180 0 __emutls_unregister_key
PUBLIC 2c184 0 __on_dlclose_late
PUBLIC 2c188 0 __atexit_handler_wrapper
PUBLIC 2c194 0 atexit
PUBLIC 2c1b4 0 pthread_atfork
FUNC 2c1c4 98 0 __cxx_global_array_dtor
FUNC 2c25c 98 0 __cxx_global_array_dtor.12
FUNC 2c2f4 1a0 0 _GLOBAL__sub_I_LayerCallback.cpp
FUNC 2c494 10 0 std::__ndk1::map<PlayerObject*, bool, std::__ndk1::less<PlayerObject*>, std::__ndk1::allocator<std::__ndk1::pair<PlayerObject* const, bool> > >::~map[abi:ne190000]()
FUNC 2c4a4 4bc 0 ChromaLayer::handleBoolSignal(SignalEvent<bool>*)
FUNC 2c960 16 0 geode::cocos::CCArrayExt<SetupItemCell*>::~CCArrayExt()
FUNC 2c978 9c 0 std::__ndk1::map<std::__ndk1::basic_string<char, std::__ndk1::char_traits<char>, std::__ndk1::allocator<char> >, bool, std::__ndk1::less<std::__ndk1::basic_string<char, std::__ndk1::char_traits<char>, std::__ndk1::allocator<char> > >, std::__ndk1::allocator<std::__ndk1::pair<std::__ndk1::basic_string<char, std::__ndk1::char_traits<char>, std::__ndk1::allocator<char> > const, bool> > >::operator[](std::__ndk1::basic_string<char, std::__ndk1::char_traits<char>, std::__ndk1::allocator<char> >&&)
FUNC 2ca14 20 0 geode::Mod::get<void>()
FUNC 2ca34 14c 0 geode::Mod::getSavedValue<float>(std::__ndk1::basic_string_view<char, std::__ndk1::char_traits<char> >, float const&)
FUNC 2cb80 9f8 0 ChromaLayer::handleIntSignal(SignalEvent<int>*)
FUNC 2d578 1c 0 ChromaSetup::~ChromaSetup()
FUNC 2d594 48 0 cocos2d::CCSequence::create(cocos2d::CCFiniteTimeAction*, ...)
FUNC 2d5dc 38 0 _ZN5geode5cocos11CallFuncExt6createITkNSt6__ndk19invocableEZN11ChromaLayer15handleIntSignalEP11SignalEventIiEE3$_1EEDaOT_
FUNC 2d614 38 0 _ZN5geode5cocos11CallFuncExt6createITkNSt6__ndk19invocableEZN11ChromaLayer15handleIntSignalEP11SignalEventIiEE3$_2EEDaOT_
FUNC 2d64c 80 0 geode::Mod::setSavedValue<bool>(std::__ndk1::basic_string_view<char, std::__ndk1::char_traits<char> >, bool const&)
FUNC 2d6cc 6c 0 ChromaLayer::handleFloatSignal(SignalEvent<float>*)
FUNC 2d738 88 0 geode::Mod::setSavedValue<float>(std::__ndk1::basic_string_view<char, std::__ndk1::char_traits<char> >, float const&)
FUNC 2d7c0 50 0 ChromaLayer::handleColorSignal(SignalEvent<cocos2d::_ccColor3B>*)
FUNC 2d810 40c 0 ChromaLayer::onSwitchPlayer(cocos2d::CCObject*)
FUNC 2dc20 420 0 ChromaLayer::onShowPopup(cocos2d::CCObject*)
FUNC 2e040 bd0 0 ChromaLayer::onSwitchEasyAdv(cocos2d::CCObject*)
FUNC 2ec10 69c 0 ChromaLayer::onSwitchChannelPage(cocos2d::CCObject*)
FUNC 2f2b0 268 0 ChromaLayer::onOptionsPage(cocos2d::CCObject*)
FUNC 2f518 29c 0 ChromaLayer::onInfoPage(cocos2d::CCObject*)
FUNC 2f7b4 114 0 ChromaLayer::onInfoButtons(cocos2d::CCObject*)
FUNC 2f8c8 3a 0 geode::Task<bool, std::__ndk1::monostate>::~Task()
FUNC 2f902 3e 0 ChromaLayer::onColorDisplayBtn(cocos2d::CCObject*)
FUNC 2f940 88 0 ChromaLayer::onCopy(cocos2d::CCObject*)
FUNC 2f9c8 1a4 0 ChromaLayer::onPaste(cocos2d::CCObject*)
FUNC 2fb6c 2c 0 ChromaLayer::onResc(cocos2d::CCObject*)
FUNC 2fb98 c6 0 ChromaLayer::onApply(cocos2d::CCObject*)
FUNC 2fc60 64c 0 ChromaLayer::onClose(cocos2d::CCObject*)
PUBLIC 302ad 0 __clang_call_terminate
FUNC 302b8 10 0 std::__ndk1::basic_string<char, std::__ndk1::char_traits<char>, std::__ndk1::allocator<char> >::__throw_length_error[abi:ne190000]() const
FUNC 302c8 38 0 std::__ndk1::__throw_length_error[abi:ne190000](char const*)
FUNC 30300 18 0 std::length_error::length_error[abi:ne190000](char const*)
FUNC 30318 28 0 std::__throw_bad_array_new_length([abi:ne190000], void)
FUNC 30340 b8 0 std::__ndk1::map<int, cocos2d::_ccColor3B, std::__ndk1::less<int>, std::__ndk1::allocator<std::__ndk1::pair<int const, cocos2d::_ccColor3B> > >::insert[abi:ne190000]<std::__ndk1::__map_const_iterator<std::__ndk1::__tree_const_iterator<std::__ndk1::__value_type<int, cocos2d::_ccColor3B>, std::__ndk1::__tree_node<std::__ndk1::__value_type, void*>*, int> > >(std::__ndk1::__map_const_iterator<std::__ndk1::__tree_const_iterator<std::__ndk1::__value_type<int, cocos2d::_ccColor3B>, std::__ndk1::__tree_node<std::__ndk1::__value_type, void*>*, int> >, std::__ndk1::__map_const_iterator<std::__ndk1::__tree_const_iterator<std::__ndk1::__value_type<int, cocos2d::_ccColor3B>, std::__ndk1::__tree_node<std::__ndk1::__value_type, void*>*, int> >)
FUNC 303f8 106 0 std::__ndk1::__tree<std::__ndk1::__value_type<int, cocos2d::_ccColor3B>, std::__ndk1::__map_value_compare<int, std::__ndk1::__value_type<int, cocos2d::_ccColor3B>, std::__ndk1::less<int>, true>, std::__ndk1::allocator<std::__ndk1::__value_type<int, cocos2d::_ccColor3B> > >::__find_equal<int>(std::__ndk1::__tree_const_iterator<std::__ndk1::__value_type<int, cocos2d::_ccColor3B>, std::__ndk1::__tree_node<std::__ndk1::__value_type<int, cocos2d::_ccColor3B>, void*>*, int>, std::__ndk1::__tree_end_node<std::__ndk1::__tree_node_base<void*>*>*&, std::__ndk1::__tree_node_base<void*>*&, int const&)
FUNC 304fe 14a 0 std::__ndk1::__tree_balance_after_insert[abi:ne190000]<std::__ndk1::__tree_node_base<void*>*>(std::__ndk1::__tree_node_base<void*>*, std::__ndk1::__tree_node_base<void*>*)
FUNC 30648 28 0 std::__ndk1::__tree<std::__ndk1::__value_type<int, cocos2d::_ccColor3B>, std::__ndk1::__map_value_compare<int, std::__ndk1::__value_type<int, cocos2d::_ccColor3B>, std::__ndk1::less<int>, true>, std::__ndk1::allocator<std::__ndk1::__value_type<int, cocos2d::_ccColor3B> > >::destroy(std::__ndk1::__tree_node<std::__ndk1::__value_type<int, cocos2d::_ccColor3B>, void*>*)
FUNC 30670 10 0 std::__ndk1::vector<Page, std::__ndk1::allocator<Page> >::__throw_length_error[abi:ne190000]() const
FUNC 30680 10 0 geode::cocos::CallFuncExtImpl<ChromaLayer::handleIntSignal(SignalEvent<int>*)::$_0>::~CallFuncExtImpl()
FUNC 30690 198 0 geode::cocos::CallFuncExtImpl<ChromaLayer::handleIntSignal(SignalEvent<int>*)::$_0>::update(float)
FUNC 30828 4 0 cocos2d::CCAction::setTag(int)
FUNC 3082c 10 0 geode::cocos::CallFuncExtImpl<ChromaLayer::handleIntSignal(SignalEvent<int>*)::$_1>::~CallFuncExtImpl()
FUNC 3083c d0 0 geode::cocos::CallFuncExtImpl<ChromaLayer::handleIntSignal(SignalEvent<int>*)::$_1>::update(float)
FUNC 3090c 10 0 geode::cocos::CallFuncExtImpl<ChromaLayer::handleIntSignal(SignalEvent<int>*)::$_2>::~CallFuncExtImpl()
FUNC 3091c e 0 geode::cocos::CallFuncExtImpl<ChromaLayer::handleIntSignal(SignalEvent<int>*)::$_2>::update(float)
FUNC 3092a 10 0 geode::cocos::CallFuncExtImpl<ChromaLayer::handleIntSignal(SignalEvent<int>*)::$_3>::~CallFuncExtImpl()
FUNC 30940 198 0 geode::cocos::CallFuncExtImpl<ChromaLayer::handleIntSignal(SignalEvent<int>*)::$_3>::update(float)
FUNC 30ad8 22e 0 std::__ndk1::__tree<std::__ndk1::__value_type<int, cocos2d::_ccColor3B>, std::__ndk1::__map_value_compare<int, std::__ndk1::__value_type<int, cocos2d::_ccColor3B>, std::__ndk1::less<int>, true>, std::__ndk1::allocator<std::__ndk1::__value_type<int, cocos2d::_ccColor3B> > >::__assign_multi<std::__ndk1::__tree_const_iterator<std::__ndk1::__value_type<int, cocos2d::_ccColor3B>, std::__ndk1::__tree_node<std::__ndk1::__value_type<int, cocos2d::_ccColor3B>, void*>*, int> >(std::__ndk1::__tree_const_iterator<std::__ndk1::__value_type<int, cocos2d::_ccColor3B>, std::__ndk1::__tree_node<std::__ndk1::__value_type<int, cocos2d::_ccColor3B>, void*>*, int>, std::__ndk1::__tree_const_iterator<std::__ndk1::__value_type<int, cocos2d::_ccColor3B>, std::__ndk1::__tree_node<std::__ndk1::__value_type<int, cocos2d::_ccColor3B>, void*>*, int>)
FUNC 30d06 10 0 geode::cocos::CallFuncExtImpl<ChromaLayer::onSwitchPlayer(cocos2d::CCObject*)::$_0>::~CallFuncExtImpl()
FUNC 30d18 d0 0 geode::cocos::CallFuncExtImpl<ChromaLayer::onSwitchPlayer(cocos2d::CCObject*)::$_0>::update(float)
FUNC 30de8 10 0 geode::cocos::CallFuncExtImpl<ChromaLayer::onSwitchPlayer(cocos2d::CCObject*)::$_1>::~CallFuncExtImpl()
FUNC 30df8 e 0 geode::cocos::CallFuncExtImpl<ChromaLayer::onSwitchPlayer(cocos2d::CCObject*)::$_1>::update(float)
FUNC 30e06 10 0 geode::cocos::CallFuncExtImpl<ChromaLayer::onShowPopup(cocos2d::CCObject*)::$_0>::~CallFuncExtImpl()
FUNC 30e18 198 0 geode::cocos::CallFuncExtImpl<ChromaLayer::onShowPopup(cocos2d::CCObject*)::$_0>::update(float)
FUNC 30fb0 10 0 geode::cocos::CallFuncExtImpl<ChromaLayer::onSwitchEasyAdv(cocos2d::CCObject*)::$_0>::~CallFuncExtImpl()
FUNC 30fc0 c 0 geode::cocos::CallFuncExtImpl<ChromaLayer::onSwitchEasyAdv(cocos2d::CCObject*)::$_0>::update(float)
FUNC 30fcc 10 0 geode::cocos::CallFuncExtImpl<ChromaLayer::onSwitchChannelPage(cocos2d::CCObject*)::$_0>::~CallFuncExtImpl()
FUNC 30fdc e 0 geode::cocos::CallFuncExtImpl<ChromaLayer::onSwitchChannelPage(cocos2d::CCObject*)::$_0>::update(float)
FUNC 30fea 10 0 geode::cocos::CallFuncExtImpl<ChromaLayer::onSwitchChannelPage(cocos2d::CCObject*)::$_1>::~CallFuncExtImpl()
FUNC 30ffc d8 0 geode::cocos::CallFuncExtImpl<ChromaLayer::onSwitchChannelPage(cocos2d::CCObject*)::$_1>::update(float)
FUNC 310d4 10 0 geode::cocos::CallFuncExtImpl<ChromaLayer::onOptionsPage(cocos2d::CCObject*)::$_0>::~CallFuncExtImpl()
FUNC 310e8 198 0 geode::cocos::CallFuncExtImpl<ChromaLayer::onOptionsPage(cocos2d::CCObject*)::$_0>::update(float)
FUNC 31280 10 0 geode::cocos::CallFuncExtImpl<ChromaLayer::onInfoPage(cocos2d::CCObject*)::$_0>::~CallFuncExtImpl()
FUNC 31290 198 0 geode::cocos::CallFuncExtImpl<ChromaLayer::onInfoPage(cocos2d::CCObject*)::$_0>::update(float)
FUNC 31428 10 0 geode::cocos::CallFuncExtImpl<ChromaLayer::onPaste(cocos2d::CCObject*)::$_0>::~CallFuncExtImpl()
FUNC 31438 d0 0 geode::cocos::CallFuncExtImpl<ChromaLayer::onPaste(cocos2d::CCObject*)::$_0>::update(float)
FUNC 31508 10 0 geode::cocos::CallFuncExtImpl<ChromaLayer::onPaste(cocos2d::CCObject*)::$_1>::~CallFuncExtImpl()
FUNC 31518 e 0 geode::cocos::CallFuncExtImpl<ChromaLayer::onPaste(cocos2d::CCObject*)::$_1>::update(float)
FUNC 31526 10 0 geode::cocos::CallFuncExtImpl<ChromaLayer::onClose(cocos2d::CCObject*)::$_0>::~CallFuncExtImpl()
FUNC 31536 8 0 geode::cocos::CallFuncExtImpl<ChromaLayer::onClose(cocos2d::CCObject*)::$_0>::update(float)
FUNC 31540 d4 0 geode::Popup<>::onClose(cocos2d::CCObject*)
FUNC 31614 44 0 geode::Popup<>::CloseEvent::~CloseEvent()
FUNC 31658 40 0 geode::Popup<>::CloseEvent::~CloseEvent()
FUNC 31698 10 0 std::__ndk1::__shared_ptr_emplace<geode::Popup<>::CloseEvent::Impl, std::__ndk1::allocator<geode::Popup<>::CloseEvent::Impl> >::~__shared_ptr_emplace()
FUNC 316a8 1c 0 std::__ndk1::__shared_ptr_emplace<geode::Popup<>::CloseEvent::Impl, std::__ndk1::allocator<geode::Popup<>::CloseEvent::Impl> >::~__shared_ptr_emplace()
FUNC 316c4 2 0 std::__ndk1::__shared_ptr_emplace<geode::Popup<>::CloseEvent::Impl, std::__ndk1::allocator<geode::Popup<>::CloseEvent::Impl> >::__on_zero_shared()
FUNC 316c6 4 0 std::__ndk1::__shared_ptr_emplace<geode::Popup<>::CloseEvent::Impl, std::__ndk1::allocator<geode::Popup<>::CloseEvent::Impl> >::__on_zero_shared_weak()
FUNC 316ca 10 0 geode::cocos::CallFuncExtImpl<ChromaLayer::onClose(cocos2d::CCObject*)::$_1>::~CallFuncExtImpl()
FUNC 316da 8 0 geode::cocos::CallFuncExtImpl<ChromaLayer::onClose(cocos2d::CCObject*)::$_1>::update(float)
FUNC 316e2 10 0 geode::cocos::CallFuncExtImpl<ChromaLayer::onClose(cocos2d::CCObject*)::$_2>::~CallFuncExtImpl()
FUNC 316f8 198 0 geode::cocos::CallFuncExtImpl<ChromaLayer::onClose(cocos2d::CCObject*)::$_2>::update(float)
FUNC 31890 60 0 geode::impl::ResultData<matjson::Value&, std::__ndk1::basic_string<char, std::__ndk1::char_traits<char>, std::__ndk1::allocator<char> > >::~ResultData()
FUNC 318f0 c0 0 matjson::Value::as<float>() const
FUNC 319b0 34 0 std::__ndk1::__throw_bad_variant_access[abi:ne190000]()
FUNC 319e4 46 0 std::__ndk1::basic_string<char, std::__ndk1::char_traits<char>, std::__ndk1::allocator<char> >::__init_copy_ctor_external(char const*, unsigned int)
FUNC 31a2a 2 0 std::__ndk1::__variant_detail::__visitation::__base::__dispatcher<(unsigned int)0>::__dispatch[abi:ne190000]<std::__ndk1::__variant_detail::__dtor<std::__ndk1::__variant_detail::__traits<double, std::__ndk1::basic_string<char, std::__ndk1::char_traits<char>, std::__ndk1::allocator<char> > >, (std::__ndk1::__variant_detail::_Trait)1>::__destroy[abi:ne190000]()::{lambda(auto:1&)#1}, std::__ndk1::__variant_detail::__base<(std::__ndk1::__variant_detail::__traits<double, std::__ndk1::basic_string<char, std::__ndk1::char_traits<char>, std::__ndk1::allocator<char> > >)1, double, std::__ndk1::allocator<char> >&>(std::__ndk1::__variant_detail::__dtor<std::__ndk1::__variant_detail::__traits<double, std::__ndk1::basic_string<char, std::__ndk1::char_traits<char>, std::__ndk1::allocator<char> > >, (std::__ndk1::__variant_detail::_Trait)1>, std::__ndk1::__variant_detail::__base<(std::__ndk1::__variant_detail::__traits<double, std::__ndk1::basic_string<char, std::__ndk1::char_traits<char>, std::__ndk1::allocator<char> > >)1, double, std::__ndk1::allocator<char> >&)
FUNC 31a2c e 0 std::__ndk1::__variant_detail::__visitation::__base::__dispatcher<(unsigned int)1>::__dispatch[abi:ne190000]<std::__ndk1::__variant_detail::__dtor<std::__ndk1::__variant_detail::__traits<double, std::__ndk1::basic_string<char, std::__ndk1::char_traits<char>, std::__ndk1::allocator<char> > >, (std::__ndk1::__variant_detail::_Trait)1>::__destroy[abi:ne190000]()::{lambda(auto:1&)#1}, std::__ndk1::__variant_detail::__base<(std::__ndk1::__variant_detail::__traits<double, std::__ndk1::basic_string<char, std::__ndk1::char_traits<char>, std::__ndk1::allocator<char> > >)1, double, std::__ndk1::allocator<char> >&>(std::__ndk1::__variant_detail::__dtor<std::__ndk1::__variant_detail::__traits<double, std::__ndk1::basic_string<char, std::__ndk1::char_traits<char>, std::__ndk1::allocator<char> > >, (std::__ndk1::__variant_detail::_Trait)1>, std::__ndk1::__variant_detail::__base<(std::__ndk1::__variant_detail::__traits<double, std::__ndk1::basic_string<char, std::__ndk1::char_traits<char>, std::__ndk1::allocator<char> > >)1, double, std::__ndk1::allocator<char> >&)
FUNC 31a3a 2 0 std::__ndk1::__variant_detail::__visitation::__base::__dispatcher<(unsigned int)0>::__dispatch[abi:ne190000]<std::__ndk1::__variant_detail::__dtor<std::__ndk1::__variant_detail::__traits<std::__ndk1::reference_wrapper<matjson::Value>, std::__ndk1::basic_string<char, std::__ndk1::char_traits<char>, std::__ndk1::allocator<char> > >, (std::__ndk1::__variant_detail::_Trait)1>::__destroy[abi:ne190000]()::{lambda(auto:1&)#1}, std::__ndk1::__variant_detail::__base<(std::__ndk1::__variant_detail::__traits<std::__ndk1::reference_wrapper<matjson::Value>, std::__ndk1::basic_string<char, std::__ndk1::char_traits<char>, std::__ndk1::allocator<char> > >)1, matjson::Value, std::__ndk1::allocator<char> >&>(std::__ndk1::__variant_detail::__dtor<std::__ndk1::__variant_detail::__traits<std::__ndk1::reference_wrapper<matjson::Value>, std::__ndk1::basic_string<char, std::__ndk1::char_traits<char>, std::__ndk1::allocator<char> > >, (std::__ndk1::__variant_detail::_Trait)1>, std::__ndk1::__variant_detail::__base<(std::__ndk1::__variant_detail::__traits<std::__ndk1::reference_wrapper<matjson::Value>, std::__ndk1::basic_string<char, std::__ndk1::char_traits<char>, std::__ndk1::allocator<char> > >)1, matjson::Value, std::__ndk1::allocator<char> >&)
FUNC 31a3c e 0 std::__ndk1::__variant_detail::__visitation::__base::__dispatcher<(unsigned int)1>::__dispatch[abi:ne190000]<std::__ndk1::__variant_detail::__dtor<std::__ndk1::__variant_detail::__traits<std::__ndk1::reference_wrapper<matjson::Value>, std::__ndk1::basic_string<char, std::__ndk1::char_traits<char>, std::__ndk1::allocator<char> > >, (std::__ndk1::__variant_detail::_Trait)1>::__destroy[abi:ne190000]()::{lambda(auto:1&)#1}, std::__ndk1::__variant_detail::__base<(std::__ndk1::__variant_detail::__traits<std::__ndk1::reference_wrapper<matjson::Value>, std::__ndk1::basic_string<char, std::__ndk1::char_traits<char>, std::__ndk1::allocator<char> > >)1, matjson::Value, std::__ndk1::allocator<char> >&>(std::__ndk1::__variant_detail::__dtor<std::__ndk1::__variant_detail::__traits<std::__ndk1::reference_wrapper<matjson::Value>, std::__ndk1::basic_string<char, std::__ndk1::char_traits<char>, std::__ndk1::allocator<char> > >, (std::__ndk1::__variant_detail::_Trait)1>, std::__ndk1::__variant_detail::__base<(std::__ndk1::__variant_detail::__traits<std::__ndk1::reference_wrapper<matjson::Value>, std::__ndk1::basic_string<char, std::__ndk1::char_traits<char>, std::__ndk1::allocator<char> > >)1, matjson::Value, std::__ndk1::allocator<char> >&)
FUNC 31a4a 2 0 std::__ndk1::__variant_detail::__visitation::__base::__dispatcher<(unsigned int)0>::__dispatch[abi:ne190000]<std::__ndk1::__variant_detail::__dtor<std::__ndk1::__variant_detail::__traits<float, std::__ndk1::basic_string<char, std::__ndk1::char_traits<char>, std::__ndk1::allocator<char> > >, (std::__ndk1::__variant_detail::_Trait)1>::__destroy[abi:ne190000]()::{lambda(auto:1&)#1}, std::__ndk1::__variant_detail::__base<(std::__ndk1::__variant_detail::__traits<float, std::__ndk1::basic_string<char, std::__ndk1::char_traits<char>, std::__ndk1::allocator<char> > >)1, float, std::__ndk1::allocator<char> >&>(std::__ndk1::__variant_detail::__dtor<std::__ndk1::__variant_detail::__traits<float, std::__ndk1::basic_string<char, std::__ndk1::char_traits<char>, std::__ndk1::allocator<char> > >, (std::__ndk1::__variant_detail::_Trait)1>, std::__ndk1::__variant_detail::__base<(std::__ndk1::__variant_detail::__traits<float, std::__ndk1::basic_string<char, std::__ndk1::char_traits<char>, std::__ndk1::allocator<char> > >)1, float, std::__ndk1::allocator<char> >&)
FUNC 31a4c e 0 std::__ndk1::__variant_detail::__visitation::__base::__dispatcher<(unsigned int)1>::__dispatch[abi:ne190000]<std::__ndk1::__variant_detail::__dtor<std::__ndk1::__variant_detail::__traits<float, std::__ndk1::basic_string<char, std::__ndk1::char_traits<char>, std::__ndk1::allocator<char> > >, (std::__ndk1::__variant_detail::_Trait)1>::__destroy[abi:ne190000]()::{lambda(auto:1&)#1}, std::__ndk1::__variant_detail::__base<(std::__ndk1::__variant_detail::__traits<float, std::__ndk1::basic_string<char, std::__ndk1::char_traits<char>, std::__ndk1::allocator<char> > >)1, float, std::__ndk1::allocator<char> >&>(std::__ndk1::__variant_detail::__dtor<std::__ndk1::__variant_detail::__traits<float, std::__ndk1::basic_string<char, std::__ndk1::char_traits<char>, std::__ndk1::allocator<char> > >, (std::__ndk1::__variant_detail::_Trait)1>, std::__ndk1::__variant_detail::__base<(std::__ndk1::__variant_detail::__traits<float, std::__ndk1::basic_string<char, std::__ndk1::char_traits<char>, std::__ndk1::allocator<char> > >)1, float, std::__ndk1::allocator<char> >&)
FUNC 31a5a 28 0 std::__ndk1::__tree<std::__ndk1::__value_type<PlayerObject*, bool>, std::__ndk1::__map_value_compare<PlayerObject*, std::__ndk1::__value_type<PlayerObject*, bool>, std::__ndk1::less<PlayerObject*>, true>, std::__ndk1::allocator<std::__ndk1::__value_type<PlayerObject*, bool> > >::destroy(std::__ndk1::__tree_node<std::__ndk1::__value_type<PlayerObject*, bool>, void*>*)
FUNC 31a82 ba 0 std::__ndk1::__tree<std::__ndk1::__value_type<std::__ndk1::basic_string<char, std::__ndk1::char_traits<char>, std::__ndk1::allocator<char> >, bool>, std::__ndk1::__map_value_compare<std::__ndk1::basic_string<char, std::__ndk1::char_traits<char>, std::__ndk1::allocator<char> >, std::__ndk1::__value_type<std::__ndk1::basic_string<char, std::__ndk1::char_traits<char>, std::__ndk1::allocator<char> >, bool>, std::__ndk1::less<std::__ndk1::basic_string<char, std::__ndk1::char_traits<char>, std::__ndk1::allocator<char> > >, true>, std::__ndk1::allocator<std::__ndk1::__value_type<std::__ndk1::basic_string<char, std::__ndk1::char_traits<char>, std::__ndk1::allocator<char> >, bool> > >::__find_equal<std::__ndk1::basic_string<char, std::__ndk1::char_traits<char>, std::__ndk1::allocator<char> > >(std::__ndk1::__tree_end_node<std::__ndk1::__tree_node_base<void*>*>*&, std::__ndk1::basic_string<char, std::__ndk1::char_traits<char>, std::__ndk1::allocator<char> > const&)
FUNC 31b3c 10c 0 geode::Mod::getSavedValue<bool>(std::__ndk1::basic_string_view<char, std::__ndk1::char_traits<char> >)
FUNC 31c48 2 0 std::__ndk1::__variant_detail::__visitation::__base::__dispatcher<(unsigned int)0>::__dispatch[abi:ne190000]<std::__ndk1::__variant_detail::__dtor<std::__ndk1::__variant_detail::__traits<bool, std::__ndk1::basic_string<char, std::__ndk1::char_traits<char>, std::__ndk1::allocator<char> > >, (std::__ndk1::__variant_detail::_Trait)1>::__destroy[abi:ne190000]()::{lambda(auto:1&)#1}, std::__ndk1::__variant_detail::__base<(std::__ndk1::__variant_detail::__traits<bool, std::__ndk1::basic_string<char, std::__ndk1::char_traits<char>, std::__ndk1::allocator<char> > >)1, bool, std::__ndk1::allocator<char> >&>(std::__ndk1::__variant_detail::__dtor<std::__ndk1::__variant_detail::__traits<bool, std::__ndk1::basic_string<char, std::__ndk1::char_traits<char>, std::__ndk1::allocator<char> > >, (std::__ndk1::__variant_detail::_Trait)1>, std::__ndk1::__variant_detail::__base<(std::__ndk1::__variant_detail::__traits<bool, std::__ndk1::basic_string<char, std::__ndk1::char_traits<char>, std::__ndk1::allocator<char> > >)1, bool, std::__ndk1::allocator<char> >&)
FUNC 31c4a e 0 std::__ndk1::__variant_detail::__visitation::__base::__dispatcher<(unsigned int)1>::__dispatch[abi:ne190000]<std::__ndk1::__variant_detail::__dtor<std::__ndk1::__variant_detail::__traits<bool, std::__ndk1::basic_string<char, std::__ndk1::char_traits<char>, std::__ndk1::allocator<char> > >, (std::__ndk1::__variant_detail::_Trait)1>::__destroy[abi:ne190000]()::{lambda(auto:1&)#1}, std::__ndk1::__variant_detail::__base<(std::__ndk1::__variant_detail::__traits<bool, std::__ndk1::basic_string<char, std::__ndk1::char_traits<char>, std::__ndk1::allocator<char> > >)1, bool, std::__ndk1::allocator<char> >&>(std::__ndk1::__variant_detail::__dtor<std::__ndk1::__variant_detail::__traits<bool, std::__ndk1::basic_string<char, std::__ndk1::char_traits<char>, std::__ndk1::allocator<char> > >, (std::__ndk1::__variant_detail::_Trait)1>, std::__ndk1::__variant_detail::__base<(std::__ndk1::__variant_detail::__traits<bool, std::__ndk1::basic_string<char, std::__ndk1::char_traits<char>, std::__ndk1::allocator<char> > >)1, bool, std::__ndk1::allocator<char> >&)
FUNC 31c58 120 0 geode::Mod::getSavedValue<float>(std::__ndk1::basic_string_view<char, std::__ndk1::char_traits<char> >)
FUNC 31d78 98 0 __cxx_global_array_dtor.12
FUNC 31e10 16c 0 _GLOBAL__sub_I_LayerInit.cpp
FUNC 31f7c b38 0 ChromaLayer::setup()
FUNC 32ab4 13c 0 geode::Mod::getSavedValue<bool>(std::__ndk1::basic_string_view<char, std::__ndk1::char_traits<char> >, bool const&)
FUNC 32bf0 894 0 ChromaLayer::makeItemPage()
FUNC 33484 94 0 ItemCell::create(int)
FUNC 33520 fdc 0 ChromaLayer::makeSetupPage()
FUNC 344fc a4 0 SetupItemCell::create(int, float, int)
FUNC 345a0 b4 0 SetupOptionCell::create()
FUNC 34654 b28 0 ChromaLayer::makeColorPage()
FUNC 3517c 9c 0 ColorValueCell::create(int)
FUNC 35220 984 0 ChromaLayer::makeOptionsPage()
FUNC 35ba4 118 0 OptionTogglerCell::create(char const*, float, int, std::__ndk1::basic_string<char, std::__ndk1::char_traits<char>, std::__ndk1::allocator<char> >, char const*)
FUNC 35cbc 110 0 OptionTitleCell::create(char const*, float, int, std::__ndk1::basic_string<char, std::__ndk1::char_traits<char>, std::__ndk1::allocator<char> >)
FUNC 35dcc a74 0 ChromaLayer::makeInfoPage()
FUNC 36840 4 0 cocos2d::CCCopying::copyWithZone(cocos2d::CCZone*)
FUNC 36844 1d0 0 ChromaLayer::~ChromaLayer()
FUNC 36a14 10 0 ChromaLayer::~ChromaLayer()
FUNC 36a24 20 0 geode::Popup<>::registerWithTouchDispatcher()
FUNC 36a44 a 0 ChromaLayer::keyBackClicked()
FUNC 36a4e 18 0 geode::Popup<>::keyDown(cocos2d::enumKeyCodes)
FUNC 36a66 2 0 cocos2d::CCLayerRGBA::setOpacityModifyRGB(bool)
FUNC 36a68 4 0 cocos2d::CCLayerRGBA::isOpacityModifyRGB()
FUNC 36a6c 8 0 {virtual override thunk({offset(-264)}, ChromaLayer::~ChromaLayer())}
FUNC 36a74 14 0 {virtual override thunk({offset(-264)}, ChromaLayer::~ChromaLayer())}
FUNC 36a88 16 0 {virtual override thunk({offset(-272)}, ChromaLayer::keyBackClicked())}
FUNC 36a9e 1c 0 {virtual override thunk({offset(-276)}, geode::Popup<>::keyDown(cocos2d::enumKeyCodes))}
FUNC 36aba 2 0 cocos2d::CCKeyboardDelegate::keyUp(cocos2d::enumKeyCodes)
FUNC 36abc 2 0 cocos2d::CCMouseDelegate::rightKeyDown()
FUNC 36abe 2 0 cocos2d::CCMouseDelegate::rightKeyUp()
FUNC 36ac0 2 0 cocos2d::CCMouseDelegate::scrollWheel(float, float)
FUNC 36ac2 2 0 {virtual override thunk({offset(-316)}, cocos2d::CCLayerRGBA::setOpacityModifyRGB(bool))}
FUNC 36ac4 4 0 {virtual override thunk({offset(-316)}, cocos2d::CCLayerRGBA::isOpacityModifyRGB())}
FUNC 36ac8 2 0 cocos2d::CCMenu::setOpacityModifyRGB(bool)
FUNC 36aca 4 0 cocos2d::CCMenu::isOpacityModifyRGB()
FUNC 36ace 6 0 cocos2d::CCMenu::isEnabled()
FUNC 36ad4 6 0 cocos2d::CCMenu::setEnabled(bool)
FUNC 36adc 84 0 BaseCell::Fade(bool)
FUNC 36b60 2 0 {virtual override thunk({offset(-316)}, cocos2d::CCMenu::setOpacityModifyRGB(bool))}
FUNC 36b62 4 0 {virtual override thunk({offset(-316)}, cocos2d::CCMenu::isOpacityModifyRGB())}
FUNC 36b68 34 0 std::__ndk1::__throw_bad_function_call[abi:ne190000]()
FUNC 36b9c 10 0 std::__ndk1::bad_function_call::~bad_function_call()
FUNC 36bac 1d8 0 ScrollLayerPlus::ScrollLayerPlus(cocos2d::CCRect const&, bool, bool)
FUNC 36d84 10 0 ScrollLayerPlus::~ScrollLayerPlus()
FUNC 36d94 8 0 {virtual override thunk({offset(-264)}, ScrollLayerPlus::~ScrollLayerPlus())}
FUNC 36d9c 14 0 {virtual override thunk({offset(-264)}, ScrollLayerPlus::~ScrollLayerPlus())}
FUNC 36db0 70 0 MyContentLayer::~MyContentLayer()
FUNC 36e20 74 0 MyContentLayer::~MyContentLayer()
FUNC 36e94 fc 0 MyContentLayer::setPosition(cocos2d::CCPoint const&)
FUNC 36f90 14c 0 MyContentLayer::addChild(cocos2d::CCNode*)
FUNC 370dc 74 0 {virtual override thunk({offset(-264)}, MyContentLayer::~MyContentLayer())}
FUNC 37150 78 0 {virtual override thunk({offset(-264)}, MyContentLayer::~MyContentLayer())}
FUNC 371c8 16 0 geode::cocos::CCArrayExt<cocos2d::CCMenu*>::~CCArrayExt()
FUNC 371e0 10 0 std::__ndk1::vector<float, std::__ndk1::allocator<float> >::__throw_length_error[abi:ne190000]() const
FUNC 371f0 10 0 std::__ndk1::vector<cocos2d::CCAction*, std::__ndk1::allocator<cocos2d::CCAction*> >::__throw_length_error[abi:ne190000]() const
FUNC 37200 10 0 SetupItemCell::~SetupItemCell()
FUNC 37210 8 0 {virtual override thunk({offset(-264)}, SetupItemCell::~SetupItemCell())}
FUNC 37218 14 0 {virtual override thunk({offset(-264)}, SetupItemCell::~SetupItemCell())}
FUNC 3722c 10 0 OptionTitleCell::~OptionTitleCell()
FUNC 3723c 8 0 {virtual override thunk({offset(-264)}, OptionTitleCell::~OptionTitleCell())}
FUNC 37244 14 0 {virtual override thunk({offset(-264)}, OptionTitleCell::~OptionTitleCell())}
FUNC 37258 38 0 geode::EventListener<geode::EventFilter<SignalEvent<cocos2d::_ccColor3B> > >::~EventListener()
FUNC 37290 38 0 geode::EventListener<geode::EventFilter<SignalEvent<float> > >::~EventListener()
FUNC 372c8 38 0 geode::EventListener<geode::EventFilter<SignalEvent<int> > >::~EventListener()
FUNC 37300 38 0 geode::EventListener<geode::EventFilter<SignalEvent<bool> > >::~EventListener()
FUNC 37338 4 0 geode::EventListener<geode::EventFilter<SignalEvent<cocos2d::_ccColor3B> > >::getPool() const
FUNC 3733c dc 0 geode::EventListener<geode::EventFilter<SignalEvent<cocos2d::_ccColor3B> > >::handle(geode::Event*)
FUNC 37418 3c 0 geode::EventListener<geode::EventFilter<SignalEvent<cocos2d::_ccColor3B> > >::~EventListener()
FUNC 37454 8c 0 geode::cast::traverseTypeinfoFor(void*, geode::cast::ClassTypeinfoType const*, char const*)
FUNC 374e0 4 0 geode::EventListener<geode::EventFilter<SignalEvent<float> > >::getPool() const
FUNC 374e4 dc 0 geode::EventListener<geode::EventFilter<SignalEvent<float> > >::handle(geode::Event*)
FUNC 375c0 3c 0 geode::EventListener<geode::EventFilter<SignalEvent<float> > >::~EventListener()
FUNC 375fc 4 0 geode::EventListener<geode::EventFilter<SignalEvent<int> > >::getPool() const
FUNC 37600 dc 0 geode::EventListener<geode::EventFilter<SignalEvent<int> > >::handle(geode::Event*)
FUNC 376dc 3c 0 geode::EventListener<geode::EventFilter<SignalEvent<int> > >::~EventListener()
FUNC 37718 4 0 geode::EventListener<geode::EventFilter<SignalEvent<bool> > >::getPool() const
FUNC 3771c dc 0 geode::EventListener<geode::EventFilter<SignalEvent<bool> > >::handle(geode::Event*)
FUNC 377f8 3c 0 geode::EventListener<geode::EventFilter<SignalEvent<bool> > >::~EventListener()
FUNC 37834 5c 0 geode::Popup<>::~Popup()
FUNC 37890 2 0 geode::Popup<>::~Popup()
FUNC 37894 60 0 {virtual override thunk({offset(-264)}, geode::Popup<>::~Popup())}
FUNC 378f4 2 0 {virtual override thunk({offset(-264)}, geode::Popup<>::~Popup())}
FUNC 378f8 98 0 __cxx_global_array_dtor
FUNC 37990 98 0 __cxx_global_array_dtor.12
FUNC 37a28 178 0 _GLOBAL__sub_I_LayerTransition.cpp
FUNC 37ba0 ea4 0 ChromaLayer::switchTheme()
FUNC 38a48 124 0 BaseCell::switchTheme()
FUNC 38b6c 16 0 geode::cocos::CCArrayExt<BaseCell*>::~CCArrayExt()
FUNC 38b82 16 0 geode::cocos::CCArrayExt<CCMenuItemSpriteExtra*>::~CCArrayExt()
FUNC 38b98 62c 0 ChromaLayer::refreshColorPage(int)
FUNC 391c4 84 0 std::__ndk1::basic_regex<char, std::__ndk1::regex_traits<char> >::basic_regex[abi:ne190000](char const*, std::__ndk1::regex_constants::syntax_option_type)
FUNC 39248 44 0 std::__ndk1::basic_regex<char, std::__ndk1::regex_traits<char> >::~basic_regex()
FUNC 3928c e4 0 ColorValueCell::setVal(int)
FUNC 39370 21c 0 ChromaLayer::transistColorBtn(bool, bool)
FUNC 39590 f8 0 ChromaLayer::fadeMainMenu()
FUNC 39688 1c0 0 ChromaLayer::fadeWarnPage()
FUNC 39848 748 0 ChromaLayer::fadeItemPage()
FUNC 39f90 3b8 0 ChromaLayer::fadeSetupPage()
FUNC 3a348 370 0 ChromaLayer::fadeColorPage()
FUNC 3a6b8 d8 0 cocos2d::CCNode::getChildByType<cocos2d::CCSprite>(int)
FUNC 3a790 1a 0 ChromaLayer::fadeOptionsPage()
FUNC 3a7b0 2b0 0 ChromaLayer::fadePopupPage()
FUNC 3aa60 16 0 geode::cocos::CCArrayExt<cocos2d::CCNode*>::~CCArrayExt()
FUNC 3aa78 478 0 ChromaLayer::fadeInfoPage()
FUNC 3aef0 10 0 geode::cocos::CallFuncExtImpl<ChromaLayer::switchTheme()::$_0>::~CallFuncExtImpl()
FUNC 3af00 208 0 geode::cocos::CallFuncExtImpl<ChromaLayer::switchTheme()::$_0>::update(float)
FUNC 3b108 3a 0 std::__ndk1::shared_ptr<std::__ndk1::__empty_state<char> >::~shared_ptr[abi:ne190000]()
FUNC 3b144 b4 0 cocos2d::CCString::createWithFormat(char const*, ...)
FUNC 3b1f8 10 0 geode::cocos::CallFuncExtImpl<ChromaLayer::fadeWarnPage()::$_0>::~CallFuncExtImpl()
FUNC 3b208 10 0 geode::cocos::CallFuncExtImpl<ChromaLayer::fadeWarnPage()::$_0>::update(float)
FUNC 3b218 10 0 geode::cocos::CallFuncExtImpl<ChromaLayer::fadePopupPage()::$_0>::~CallFuncExtImpl()
FUNC 3b228 c 0 geode::cocos::CallFuncExtImpl<ChromaLayer::fadePopupPage()::$_0>::update(float)
FUNC 3b234 2a0 0 std::__ndk1::basic_regex<char, std::__ndk1::regex_traits<char> >::__parse<char const*>(char const*, char const*)
FUNC 3b4d4 38 0 std::__ndk1::__throw_regex_error[abi:ne190000]<(std::__ndk1::regex_constants::error_type)17>()
FUNC 3b50c 180 0 std::__ndk1::basic_regex<char, std::__ndk1::regex_traits<char> >::__parse_ecma_exp<char const*>(char const*, char const*)
FUNC 3b68c f4 0 std::__ndk1::basic_regex<char, std::__ndk1::regex_traits<char> >::__parse_basic_reg_exp<char const*>(char const*, char const*)
FUNC 3b780 f8 0 std::__ndk1::basic_regex<char, std::__ndk1::regex_traits<char> >::__parse_extended_reg_exp<char const*>(char const*, char const*)
FUNC 3b878 134 0 std::__ndk1::basic_regex<char, std::__ndk1::regex_traits<char> >::__parse_grep<char const*>(char const*, char const*)
FUNC 3b9ac 134 0 std::__ndk1::basic_regex<char, std::__ndk1::regex_traits<char> >::__parse_egrep<char const*>(char const*, char const*)
FUNC 3bae0 38 0 std::__ndk1::__throw_regex_error[abi:ne190000]<(std::__ndk1::regex_constants::error_type)14>()
FUNC 3bb18 4 0 std::__ndk1::__end_state<char>::~__end_state()
FUNC 3bb1c c 0 std::__ndk1::__end_state<char>::__exec(std::__ndk1::__state<char>&) const
FUNC 3bb28 2 0 std::__ndk1::__node<char>::__exec_split(bool, std::__ndk1::__state<char>&) const
FUNC 3bb2a 2 0 std::__ndk1::__node<char>::__exec(std::__ndk1::__state<char>&) const
FUNC 3bb2c 10 0 std::__ndk1::__shared_ptr_pointer<std::__ndk1::__empty_state<char>*, std::__ndk1::shared_ptr<std::__ndk1::__empty_state<char> >::__shared_ptr_default_delete<std::__ndk1::__empty_state<char>, std::__ndk1::__empty_state<char> >, std::__ndk1::allocator<std::__ndk1::__empty_state<char> > >::~__shared_ptr_pointer()
FUNC 3bb3c e 0 std::__ndk1::__shared_ptr_pointer<std::__ndk1::__empty_state<char>*, std::__ndk1::shared_ptr<std::__ndk1::__empty_state<char> >::__shared_ptr_default_delete<std::__ndk1::__empty_state<char>, std::__ndk1::__empty_state<char> >, std::__ndk1::allocator<std::__ndk1::__empty_state<char> > >::__on_zero_shared()
FUNC 3bb4c 1c 0 std::__ndk1::__shared_ptr_pointer<std::__ndk1::__empty_state<char>*, std::__ndk1::shared_ptr<std::__ndk1::__empty_state<char> >::__shared_ptr_default_delete<std::__ndk1::__empty_state<char>, std::__ndk1::__empty_state<char> >, std::__ndk1::allocator<std::__ndk1::__empty_state<char> > >::__get_deleter(std::type_info const&) const
FUNC 3bb68 4 0 std::__ndk1::__shared_ptr_pointer<std::__ndk1::__empty_state<char>*, std::__ndk1::shared_ptr<std::__ndk1::__empty_state<char> >::__shared_ptr_default_delete<std::__ndk1::__empty_state<char>, std::__ndk1::__empty_state<char> >, std::__ndk1::allocator<std::__ndk1::__empty_state<char> > >::__on_zero_shared_weak()
FUNC 3bb6c 30 0 std::__ndk1::__empty_state<char>::~__empty_state()
FUNC 3bb9c 10 0 std::__ndk1::__empty_state<char>::__exec(std::__ndk1::__state<char>&) const
FUNC 3bbac 30 0 std::__ndk1::__owns_one_state<char>::~__owns_one_state()
FUNC 3bbdc 208 0 std::__ndk1::basic_regex<char, std::__ndk1::regex_traits<char> >::__parse_assertion<char const*>(char const*, char const*)
FUNC 3bde4 214 0 std::__ndk1::basic_regex<char, std::__ndk1::regex_traits<char> >::__parse_atom<char const*>(char const*, char const*)
FUNC 3bff8 24e 0 std::__ndk1::basic_regex<char, std::__ndk1::regex_traits<char> >::__parse_ERE_dupl_symbol<char const*>(char const*, char const*, std::__ndk1::__owns_one_state<char>*, unsigned int, unsigned int)
FUNC 3c248 50 0 std::__ndk1::basic_regex<char, std::__ndk1::regex_traits<char> >::basic_regex[abi:ne190000]()
FUNC 3c298 84 0 std::__ndk1::basic_regex<char, std::__ndk1::regex_traits<char> >::__push_lookahead(std::__ndk1::basic_regex<char, std::__ndk1::regex_traits<char> > const&, bool, unsigned int)
FUNC 3c31c 38 0 std::__ndk1::__throw_regex_error[abi:ne190000]<(std::__ndk1::regex_constants::error_type)6>()
FUNC 3c354 30 0 std::__ndk1::__l_anchor_multiline<char>::~__l_anchor_multiline()
FUNC 3c384 48 0 std::__ndk1::__l_anchor_multiline<char>::__exec(std::__ndk1::__state<char>&) const
FUNC 3c3cc 30 0 std::__ndk1::__r_anchor_multiline<char>::~__r_anchor_multiline()
FUNC 3c3fc 3a 0 std::__ndk1::__r_anchor_multiline<char>::__exec(std::__ndk1::__state<char>&) const
FUNC 3c438 3c 0 std::__ndk1::__word_boundary<char, std::__ndk1::regex_traits<char> >::~__word_boundary()
FUNC 3c474 40 0 std::__ndk1::__word_boundary<char, std::__ndk1::regex_traits<char> >::~__word_boundary()
FUNC 3c4b4 d6 0 std::__ndk1::__word_boundary<char, std::__ndk1::regex_traits<char> >::__exec(std::__ndk1::__state<char>&) const
FUNC 3c58c 74 0 std::__ndk1::__lookahead<char, std::__ndk1::regex_traits<char> >::~__lookahead()
FUNC 3c600 7c 0 std::__ndk1::__lookahead<char, std::__ndk1::regex_traits<char> >::~__lookahead()
FUNC 3c67c 14c 0 std::__ndk1::__lookahead<char, std::__ndk1::regex_traits<char> >::__exec(std::__ndk1::__state<char>&) const
FUNC 3c7c8 32c 0 std::__ndk1::basic_regex<char, std::__ndk1::regex_traits<char> >::__match_at_start_ecma<std::__ndk1::allocator<std::__ndk1::sub_match<char const*> > >(char const*, char const*, std::__ndk1::match_results<char const*, std::__ndk1::allocator<std::__ndk1::sub_match<char const*> > >&, std::__ndk1::regex_constants::match_flag_type, bool) const
FUNC 3caf4 124 0 std::__ndk1::vector<std::__ndk1::sub_match<char const*>, std::__ndk1::allocator<std::__ndk1::sub_match<char const*> > >::assign(unsigned int, std::__ndk1::sub_match<char const*> const&)
FUNC 3cc18 10 0 std::__ndk1::vector<std::__ndk1::sub_match<char const*>, std::__ndk1::allocator<std::__ndk1::sub_match<char const*> > >::__throw_length_error[abi:ne190000]() const
FUNC 3cc28 22 0 std::__ndk1::__state<char>::~__state()
FUNC 3cc4c 38 0 std::__ndk1::__throw_regex_error[abi:ne190000]<(std::__ndk1::regex_constants::error_type)12>()
FUNC 3cc84 11c 0 std::__ndk1::__state<char>::__state(std::__ndk1::__state<char> const&)
FUNC 3cda0 38 0 std::__ndk1::__throw_regex_error[abi:ne190000]<(std::__ndk1::regex_constants::error_type)16>()
FUNC 3cdd8 4c 0 std::__ndk1::vector<std::__ndk1::__state<char>, std::__ndk1::allocator<std::__ndk1::__state<char> > >::~vector[abi:ne190000]()
FUNC 3ce24 176 0 std::__ndk1::vector<std::__ndk1::__state<char>, std::__ndk1::allocator<std::__ndk1::__state<char> > >::__push_back_slow_path<std::__ndk1::__state<char> >(std::__ndk1::__state<char>&&)
FUNC 3cf9c 10 0 std::__ndk1::vector<std::__ndk1::__state<char>, std::__ndk1::allocator<std::__ndk1::__state<char> > >::__throw_length_error[abi:ne190000]() const
FUNC 3cfac 110 0 std::__ndk1::vector<std::__ndk1::sub_match<char const*>, std::__ndk1::allocator<std::__ndk1::sub_match<char const*> > >::__append(unsigned int, std::__ndk1::sub_match<char const*> const&)
FUNC 3d0bc c2 0 std::__ndk1::vector<std::__ndk1::pair<unsigned int, char const*>, std::__ndk1::allocator<std::__ndk1::pair<unsigned int, char const*> > >::__append(unsigned int)
FUNC 3d180 10 0 std::__ndk1::vector<std::__ndk1::pair<unsigned int, char const*>, std::__ndk1::allocator<std::__ndk1::pair<unsigned int, char const*> > >::__throw_length_error[abi:ne190000]() const
FUNC 3d190 ce 0 std::__ndk1::basic_regex<char, std::__ndk1::regex_traits<char> >::__parse_bracket_expression<char const*>(char const*, char const*)
FUNC 3d260 38 0 std::__ndk1::__throw_regex_error[abi:ne190000]<(std::__ndk1::regex_constants::error_type)11>()
FUNC 3d298 84 0 std::__ndk1::basic_regex<char, std::__ndk1::regex_traits<char> >::__parse_pattern_character<char const*>(char const*, char const*)
FUNC 3d31c 30 0 std::__ndk1::__match_any_but_newline<char>::~__match_any_but_newline()
FUNC 3d34c 38 0 std::__ndk1::__throw_regex_error[abi:ne190000]<(std::__ndk1::regex_constants::error_type)3>()
FUNC 3d384 84 0 std::__ndk1::basic_regex<char, std::__ndk1::regex_traits<char> >::__parse_decimal_escape<char const*>(char const*, char const*)
FUNC 3d408 190 0 std::__ndk1::basic_regex<char, std::__ndk1::regex_traits<char> >::__parse_character_class_escape<char const*>(char const*, char const*)
FUNC 3d598 35e 0 std::__ndk1::basic_regex<char, std::__ndk1::regex_traits<char> >::__parse_character_escape<char const*>(char const*, char const*, std::__ndk1::basic_string<char, std::__ndk1::char_traits<char>, std::__ndk1::allocator<char> >*)
FUNC 3d8f8 e4 0 std::__ndk1::basic_regex<char, std::__ndk1::regex_traits<char> >::__push_char(char)
FUNC 3d9dc 38 0 std::__ndk1::__throw_regex_error[abi:ne190000]<(std::__ndk1::regex_constants::error_type)4>()
FUNC 3da14 88 0 std::__ndk1::basic_regex<char, std::__ndk1::regex_traits<char> >::__push_back_ref(int)
FUNC 3da9c 3c 0 std::__ndk1::__match_char_icase<char, std::__ndk1::regex_traits<char> >::~__match_char_icase()
FUNC 3dad8 40 0 std::__ndk1::__match_char_icase<char, std::__ndk1::regex_traits<char> >::~__match_char_icase()
FUNC 3db18 42 0 std::__ndk1::__match_char_icase<char, std::__ndk1::regex_traits<char> >::__exec(std::__ndk1::__state<char>&) const
FUNC 3db5c 3c 0 std::__ndk1::__match_char_collate<char, std::__ndk1::regex_traits<char> >::~__match_char_collate()
FUNC 3db98 40 0 std::__ndk1::__match_char_collate<char, std::__ndk1::regex_traits<char> >::~__match_char_collate()
FUNC 3dbd8 32 0 std::__ndk1::__match_char_collate<char, std::__ndk1::regex_traits<char> >::__exec(std::__ndk1::__state<char>&) const
FUNC 3dc0c 30 0 std::__ndk1::__match_char<char>::~__match_char()
FUNC 3dc3c 32 0 std::__ndk1::__match_char<char>::__exec(std::__ndk1::__state<char>&) const
FUNC 3dc70 3c 0 std::__ndk1::__back_ref_icase<char, std::__ndk1::regex_traits<char> >::~__back_ref_icase()
FUNC 3dcac 40 0 std::__ndk1::__back_ref_icase<char, std::__ndk1::regex_traits<char> >::~__back_ref_icase()
FUNC 3dcec 8e 0 std::__ndk1::__back_ref_icase<char, std::__ndk1::regex_traits<char> >::__exec(std::__ndk1::__state<char>&) const
FUNC 3dd7c 3c 0 std::__ndk1::__back_ref_collate<char, std::__ndk1::regex_traits<char> >::~__back_ref_collate()
FUNC 3ddb8 40 0 std::__ndk1::__back_ref_collate<char, std::__ndk1::regex_traits<char> >::~__back_ref_collate()
FUNC 3ddf8 6c 0 std::__ndk1::__back_ref_collate<char, std::__ndk1::regex_traits<char> >::__exec(std::__ndk1::__state<char>&) const
FUNC 3de64 30 0 std::__ndk1::__back_ref<char>::~__back_ref()
FUNC 3de94 7a 0 std::__ndk1::__back_ref<char>::__exec(std::__ndk1::__state<char>&) const
FUNC 3df0e 130 0 std::__ndk1::__bracket_expression<char, std::__ndk1::regex_traits<char> >::__add_char[abi:ne190000](char)
FUNC 3e040 138 0 std::__ndk1::__bracket_expression<char, std::__ndk1::regex_traits<char> >::__bracket_expression[abi:ne190000](std::__ndk1::regex_traits<char> const&, std::__ndk1::__node<char>*, bool, bool, bool)
FUNC 3e178 3e 0 std::__ndk1::vector<std::__ndk1::basic_string<char, std::__ndk1::char_traits<char>, std::__ndk1::allocator<char> >, std::__ndk1::allocator<std::__ndk1::basic_string<char, std::__ndk1::char_traits<char>, std::__ndk1::allocator<char> > > >::~vector[abi:ne190000]()
FUNC 3e1b6 54 0 std::__ndk1::vector<std::__ndk1::pair<std::__ndk1::basic_string<char, std::__ndk1::char_traits<char>, std::__ndk1::allocator<char> >, std::__ndk1::basic_string<char, std::__ndk1::char_traits<char>, std::__ndk1::allocator<char> > >, std::__ndk1::allocator<std::__ndk1::pair<std::__ndk1::basic_string<char, std::__ndk1::char_traits<char>, std::__ndk1::allocator<char> >, std::__ndk1::basic_string<char, std::__ndk1::char_traits<char>, std::__ndk1::allocator<char> > > > >::~vector[abi:ne190000]()
FUNC 3e20c f4 0 std::__ndk1::__bracket_expression<char, std::__ndk1::regex_traits<char> >::~__bracket_expression()
FUNC 3e300 10 0 std::__ndk1::__bracket_expression<char, std::__ndk1::regex_traits<char> >::~__bracket_expression()
FUNC 3e310 844 0 std::__ndk1::__bracket_expression<char, std::__ndk1::regex_traits<char> >::__exec(std::__ndk1::__state<char>&) const
FUNC 3eb54 22 0 std::__ndk1::pair<std::__ndk1::basic_string<char, std::__ndk1::char_traits<char>, std::__ndk1::allocator<char> >, std::__ndk1::basic_string<char, std::__ndk1::char_traits<char>, std::__ndk1::allocator<char> > >::~pair()
FUNC 3eb78 1c4 0 std::__ndk1::regex_traits<char>::__lookup_collatename<char*>(char*, char*, char) const
FUNC 3ed3c 66 0 std::__ndk1::basic_string<char, std::__ndk1::char_traits<char>, std::__ndk1::allocator<char> >::__assign_no_alias<true>(char const*, unsigned int)
FUNC 3eda2 a6 0 std::__ndk1::basic_string<char, std::__ndk1::char_traits<char>, std::__ndk1::allocator<char> >::__assign_no_alias<false>(char const*, unsigned int)
FUNC 3ee48 118 0 std::__ndk1::regex_traits<char>::__transform_primary<char*>(char*, char*, char) const
FUNC 3ef60 10 0 std::__ndk1::vector<char, std::__ndk1::allocator<char> >::__throw_length_error[abi:ne190000]() const
FUNC 3ef70 38 0 std::__ndk1::__throw_regex_error[abi:ne190000]<(std::__ndk1::regex_constants::error_type)5>()
FUNC 3efa8 2d4 0 std::__ndk1::basic_regex<char, std::__ndk1::regex_traits<char> >::__parse_expression_term<char const*>(char const*, char const*, std::__ndk1::__bracket_expression<char, std::__ndk1::regex_traits<char> >*)
FUNC 3f27c 184 0 std::__ndk1::basic_regex<char, std::__ndk1::regex_traits<char> >::__parse_equivalence_class<char const*>(char const*, char const*, std::__ndk1::__bracket_expression<char, std::__ndk1::regex_traits<char> >*)
FUNC 3f400 a4 0 std::__ndk1::basic_regex<char, std::__ndk1::regex_traits<char> >::__parse_collating_symbol<char const*>(char const*, char const*, std::__ndk1::basic_string<char, std::__ndk1::char_traits<char>, std::__ndk1::allocator<char> >&)
FUNC 3f4a4 100 0 std::__ndk1::basic_regex<char, std::__ndk1::regex_traits<char> >::__parse_class_escape<char const*>(char const*, char const*, std::__ndk1::basic_string<char, std::__ndk1::char_traits<char>, std::__ndk1::allocator<char> >&, std::__ndk1::__bracket_expression<char, std::__ndk1::regex_traits<char> >*)
FUNC 3f5a4 292 0 std::__ndk1::basic_regex<char, std::__ndk1::regex_traits<char> >::__parse_awk_escape<char const*>(char const*, char const*, std::__ndk1::basic_string<char, std::__ndk1::char_traits<char>, std::__ndk1::allocator<char> >*)
FUNC 3f838 31c 0 std::__ndk1::__bracket_expression<char, std::__ndk1::regex_traits<char> >::__add_range[abi:ne190000](std::__ndk1::basic_string<char, std::__ndk1::char_traits<char>, std::__ndk1::allocator<char> >, std::__ndk1::allocator<char>)
FUNC 3fb54 154 0 std::__ndk1::__bracket_expression<char, std::__ndk1::regex_traits<char> >::__add_digraph[abi:ne190000](char, char)
FUNC 3fca8 38 0 std::__ndk1::__throw_regex_error[abi:ne190000]<(std::__ndk1::regex_constants::error_type)1>()
FUNC 3fce0 1c4 0 std::__ndk1::regex_traits<char>::__lookup_collatename<char const*>(char const*, char const*, char) const
FUNC 3fea4 144 0 std::__ndk1::regex_traits<char>::__transform_primary<std::__ndk1::__wrap_iter<char*> >(std::__ndk1::__wrap_iter<char*>, std::__ndk1::__wrap_iter<char*>, char) const
FUNC 3ffe8 120 0 std::__ndk1::vector<std::__ndk1::basic_string<char, std::__ndk1::char_traits<char>, std::__ndk1::allocator<char> >, std::__ndk1::allocator<std::__ndk1::basic_string<char, std::__ndk1::char_traits<char>, std::__ndk1::allocator<char> > > >::__push_back_slow_path<std::__ndk1::basic_string<char, std::__ndk1::char_traits<char>, std::__ndk1::allocator<char> > const&>(std::__ndk1::basic_string<char, std::__ndk1::char_traits<char>, std::__ndk1::allocator<char> > const&)
FUNC 40108 3c 0 std::__ndk1::__split_buffer<std::__ndk1::basic_string<char, std::__ndk1::char_traits<char>, std::__ndk1::allocator<char> >, std::__ndk1::allocator<std::__ndk1::basic_string<char, std::__ndk1::char_traits<char>, std::__ndk1::allocator<char> > >&>::~__split_buffer()
FUNC 40144 10 0 std::__ndk1::vector<std::__ndk1::basic_string<char, std::__ndk1::char_traits<char>, std::__ndk1::allocator<char> >, std::__ndk1::allocator<std::__ndk1::basic_string<char, std::__ndk1::char_traits<char>, std::__ndk1::allocator<char> > > >::__throw_length_error[abi:ne190000]() const
FUNC 40154 38 0 std::__ndk1::__throw_regex_error[abi:ne190000]<(std::__ndk1::regex_constants::error_type)2>()
FUNC 4018c ec 0 std::__ndk1::regex_traits<char>::__lookup_classname<char const*>(char const*, char const*, bool, char) const
FUNC 40278 130 0 std::__ndk1::__bracket_expression<char, std::__ndk1::regex_traits<char> >::__add_neg_char[abi:ne190000](char)
FUNC 403a8 10c 0 std::__ndk1::regex_traits<char>::transform<std::__ndk1::__wrap_iter<char*> >(std::__ndk1::__wrap_iter<char*>, std::__ndk1::__wrap_iter<char*>) const
FUNC 404b4 38 0 std::__ndk1::__throw_regex_error[abi:ne190000]<(std::__ndk1::regex_constants::error_type)9>()
FUNC 404ec 126 0 std::__ndk1::vector<std::__ndk1::pair<std::__ndk1::basic_string<char, std::__ndk1::char_traits<char>, std::__ndk1::allocator<char> >, std::__ndk1::basic_string<char, std::__ndk1::char_traits<char>, std::__ndk1::allocator<char> > >, std::__ndk1::allocator<std::__ndk1::pair<std::__ndk1::basic_string<char, std::__ndk1::char_traits<char>, std::__ndk1::allocator<char> >, std::__ndk1::basic_string<char, std::__ndk1::char_traits<char>, std::__ndk1::allocator<char> > > > >::__push_back_slow_path<std::__ndk1::pair<std::__ndk1::basic_string<char, std::__ndk1::char_traits<char>, std::__ndk1::allocator<char> >, std::__ndk1::basic_string<char, std::__ndk1::char_traits<char>, std::__ndk1::allocator<char> > > >(std::__ndk1::pair<std::__ndk1::basic_string<char, std::__ndk1::char_traits<char>, std::__ndk1::allocator<char> >, std::__ndk1::basic_string<char, std::__ndk1::char_traits<char>, std::__ndk1::allocator<char> > >&&)
FUNC 40614 10 0 std::__ndk1::vector<std::__ndk1::pair<std::__ndk1::basic_string<char, std::__ndk1::char_traits<char>, std::__ndk1::allocator<char> >, std::__ndk1::basic_string<char, std::__ndk1::char_traits<char>, std::__ndk1::allocator<char> > >, std::__ndk1::allocator<std::__ndk1::pair<std::__ndk1::basic_string<char, std::__ndk1::char_traits<char>, std::__ndk1::allocator<char> >, std::__ndk1::basic_string<char, std::__ndk1::char_traits<char>, std::__ndk1::allocator<char> > > > >::__throw_length_error[abi:ne190000]() const
FUNC 40624 10 0 std::__ndk1::vector<std::__ndk1::pair<char, char>, std::__ndk1::allocator<std::__ndk1::pair<char, char> > >::__throw_length_error[abi:ne190000]() const
FUNC 40634 30 0 std::__ndk1::__begin_marked_subexpression<char>::~__begin_marked_subexpression()
FUNC 40664 28 0 std::__ndk1::__begin_marked_subexpression<char>::__exec(std::__ndk1::__state<char>&) const
FUNC 4068c 30 0 std::__ndk1::__end_marked_subexpression<char>::~__end_marked_subexpression()
FUNC 406bc 2e 0 std::__ndk1::__end_marked_subexpression<char>::__exec(std::__ndk1::__state<char>&) const
FUNC 406ec dc 0 std::__ndk1::basic_regex<char, std::__ndk1::regex_traits<char> >::__push_loop(unsigned int, unsigned int, std::__ndk1::__owns_one_state<char>*, unsigned int, unsigned int, bool)
FUNC 407c8 38 0 std::__ndk1::__throw_regex_error[abi:ne190000]<(std::__ndk1::regex_constants::error_type)8>()
FUNC 40800 38 0 std::__ndk1::__throw_regex_error[abi:ne190000]<(std::__ndk1::regex_constants::error_type)7>()
FUNC 40838 44 0 std::__ndk1::__loop<char>::~__loop()
FUNC 4087c 100 0 std::__ndk1::__loop<char>::__exec(std::__ndk1::__state<char>&) const
FUNC 4097c 5c 0 std::__ndk1::__loop<char>::__exec_split(bool, std::__ndk1::__state<char>&) const
FUNC 409d8 44 0 std::__ndk1::__owns_two_states<char>::~__owns_two_states()
FUNC 40a1c 4 0 std::__ndk1::__repeat_one_loop<char>::~__repeat_one_loop()
FUNC 40a20 10 0 std::__ndk1::__repeat_one_loop<char>::__exec(std::__ndk1::__state<char>&) const
FUNC 40a30 40 0 std::__ndk1::__owns_two_states<char>::~__owns_two_states()
FUNC 40a70 44 0 std::__ndk1::__alternate<char>::~__alternate()
FUNC 40ab4 c 0 std::__ndk1::__alternate<char>::__exec(std::__ndk1::__state<char>&) const
FUNC 40ac0 18 0 std::__ndk1::__alternate<char>::__exec_split(bool, std::__ndk1::__state<char>&) const
FUNC 40ad8 2 0 std::__ndk1::__node<char>::~__node()
FUNC 40ada 4 0 std::__ndk1::__empty_non_own_state<char>::~__empty_non_own_state()
FUNC 40ade 10 0 std::__ndk1::__empty_non_own_state<char>::__exec(std::__ndk1::__state<char>&) const
FUNC 40af0 38 0 std::__ndk1::__throw_regex_error[abi:ne190000]<(std::__ndk1::regex_constants::error_type)15>()
FUNC 40b28 14c 0 std::__ndk1::basic_regex<char, std::__ndk1::regex_traits<char> >::__parse_nondupl_RE<char const*>(char const*, char const*)
FUNC 40c74 182 0 std::__ndk1::basic_regex<char, std::__ndk1::regex_traits<char> >::__parse_RE_dupl_symbol<char const*>(char const*, char const*, std::__ndk1::__owns_one_state<char>*, unsigned int, unsigned int)
FUNC 40df8 a0 0 std::__ndk1::basic_regex<char, std::__ndk1::regex_traits<char> >::__parse_one_char_or_coll_elem_RE<char const*>(char const*, char const*)
FUNC 40e98 70 0 std::__ndk1::basic_regex<char, std::__ndk1::regex_traits<char> >::__parse_QUOTED_CHAR<char const*>(char const*, char const*)
FUNC 40f08 2c 0 std::__ndk1::__owns_one_state<char>::~__owns_one_state()
FUNC 40f34 30 0 std::__ndk1::__match_any<char>::~__match_any()
FUNC 40f64 2e 0 std::__ndk1::__match_any<char>::__exec(std::__ndk1::__state<char>&) const
FUNC 40f92 34 0 std::__ndk1::basic_regex<char, std::__ndk1::regex_traits<char> >::__test_back_ref(char)
FUNC 40fc8 18c 0 std::__ndk1::basic_regex<char, std::__ndk1::regex_traits<char> >::__parse_ERE_expression<char const*>(char const*, char const*)
FUNC 41154 8a 0 std::__ndk1::basic_regex<char, std::__ndk1::regex_traits<char> >::__parse_ORD_CHAR_ERE<char const*>(char const*, char const*)
FUNC 411e0 bc 0 std::__ndk1::basic_regex<char, std::__ndk1::regex_traits<char> >::__parse_QUOTED_CHAR_ERE<char const*>(char const*, char const*)
FUNC 4129c 208 0 std::__ndk1::basic_regex<char, std::__ndk1::regex_traits<char> >::__search<std::__ndk1::allocator<std::__ndk1::sub_match<char const*> > >(char const*, char const*, std::__ndk1::match_results<char const*, std::__ndk1::allocator<std::__ndk1::sub_match<char const*> > >&, std::__ndk1::regex_constants::match_flag_type) const
FUNC 414a4 15c 0 std::__ndk1::match_results<std::__ndk1::__wrap_iter<char const*>, std::__ndk1::allocator<std::__ndk1::sub_match<std::__ndk1::__wrap_iter<char const*> > > >::__assign[abi:ne190000]<char const*, std::__ndk1::allocator<std::__ndk1::sub_match<char const*> > >(std::__ndk1::__wrap_iter<char const*>, std::__ndk1::__wrap_iter<char const*>, std::__ndk1::match_results<char const*, std::__ndk1::allocator<std::__ndk1::sub_match<char const*> > > const&, bool)
FUNC 41600 5d0 0 std::__ndk1::basic_regex<char, std::__ndk1::regex_traits<char> >::__match_at_start_posix_nosubs<std::__ndk1::allocator<std::__ndk1::sub_match<char const*> > >(char const*, char const*, std::__ndk1::match_results<char const*, std::__ndk1::allocator<std::__ndk1::sub_match<char const*> > >&, std::__ndk1::regex_constants::match_flag_type, bool) const
FUNC 41bd0 450 0 std::__ndk1::basic_regex<char, std::__ndk1::regex_traits<char> >::__match_at_start_posix_subs<std::__ndk1::allocator<std::__ndk1::sub_match<char const*> > >(char const*, char const*, std::__ndk1::match_results<char const*, std::__ndk1::allocator<std::__ndk1::sub_match<char const*> > >&, std::__ndk1::regex_constants::match_flag_type, bool) const
FUNC 42020 d4 0 std::__ndk1::deque<std::__ndk1::__state<char>, std::__ndk1::allocator<std::__ndk1::__state<char> > >::clear()
FUNC 420f4 c0 0 std::__ndk1::deque<std::__ndk1::__state<char>, std::__ndk1::allocator<std::__ndk1::__state<char> > >::push_front(std::__ndk1::__state<char>&&)
FUNC 421b4 4a 0 std::__ndk1::deque<std::__ndk1::__state<char>, std::__ndk1::allocator<std::__ndk1::__state<char> > >::~deque[abi:ne190000]()
FUNC 42200 36c 0 std::__ndk1::deque<std::__ndk1::__state<char>, std::__ndk1::allocator<std::__ndk1::__state<char> > >::__add_back_capacity()
FUNC 4256c 120 0 std::__ndk1::__split_buffer<std::__ndk1::__state<char>*, std::__ndk1::allocator<std::__ndk1::__state<char>*> >::push_back(std::__ndk1::__state<char>*&&)
FUNC 4268c 11e 0 std::__ndk1::__split_buffer<std::__ndk1::__state<char>*, std::__ndk1::allocator<std::__ndk1::__state<char>*> >::push_front(std::__ndk1::__state<char>*&&)
FUNC 427aa 11e 0 std::__ndk1::__split_buffer<std::__ndk1::__state<char>*, std::__ndk1::allocator<std::__ndk1::__state<char>*>&>::push_front(std::__ndk1::__state<char>* const&)
FUNC 428c8 28c 0 std::__ndk1::deque<std::__ndk1::__state<char>, std::__ndk1::allocator<std::__ndk1::__state<char> > >::__add_front_capacity()
FUNC 42b54 11e 0 std::__ndk1::__split_buffer<std::__ndk1::__state<char>*, std::__ndk1::allocator<std::__ndk1::__state<char>*> >::push_front(std::__ndk1::__state<char>* const&)
FUNC 42c72 140 0 std::__ndk1::vector<std::__ndk1::sub_match<char const*>, std::__ndk1::allocator<std::__ndk1::sub_match<char const*> > >::__assign_with_size[abi:ne190000]<std::__ndk1::sub_match<char const*>*, std::__ndk1::vector<std::__ndk1::sub_match<char const*>, std::__ndk1::allocator<std::__ndk1::sub_match<char const*> > >::__assign_with_size[abi:ne190000]>(std::__ndk1::sub_match<char const*>*, std::__ndk1::vector<std::__ndk1::sub_match<char const*>, std::__ndk1::allocator<std::__ndk1::sub_match<char const*> > >::__assign_with_size[abi:ne190000], int)
FUNC 42db2 25c 0 std::__ndk1::vector<std::__ndk1::pair<unsigned int, char const*>, std::__ndk1::allocator<std::__ndk1::pair<unsigned int, char const*> > >::__assign_with_size[abi:ne190000]<std::__ndk1::pair<unsigned int, char const*>*, std::__ndk1::vector<std::__ndk1::pair<unsigned int, char const*>, std::__ndk1::allocator<std::__ndk1::pair<unsigned int, char const*> > >::__assign_with_size[abi:ne190000]>(std::__ndk1::pair<unsigned int, char const*>*, std::__ndk1::vector<std::__ndk1::pair<unsigned int, char const*>, std::__ndk1::allocator<std::__ndk1::pair<unsigned int, char const*> > >::__assign_with_size[abi:ne190000], int)
FUNC 4300e 104 0 std::__ndk1::vector<std::__ndk1::sub_match<std::__ndk1::__wrap_iter<char const*> >, std::__ndk1::allocator<std::__ndk1::sub_match<std::__ndk1::__wrap_iter<char const*> > > >::__append(unsigned int)
FUNC 43114 10 0 std::__ndk1::vector<std::__ndk1::sub_match<std::__ndk1::__wrap_iter<char const*> >, std::__ndk1::allocator<std::__ndk1::sub_match<std::__ndk1::__wrap_iter<char const*> > > >::__throw_length_error[abi:ne190000]() const
FUNC 43124 98 0 __cxx_global_array_dtor
FUNC 431bc 98 0 __cxx_global_array_dtor.12
FUNC 43254 178 0 _GLOBAL__sub_I_LayerUtils.cpp
FUNC 433d0 3f0 0 ChromaLayer::show()
FUNC 437c0 288 0 ChromaLayer::update(float)
FUNC 43a48 d0 0 ChromaLayer::getColorTarget()
FUNC 43b18 3d8 0 ChromaLayer::dumpConfig()
FUNC 43ef0 56c 0 ChromaLayer::switchTab(int)
FUNC 44460 138 0 SetupItemCell::select(bool)
FUNC 44598 34c 0 ChromaLayer::makeHintPopup(std::__ndk1::basic_string<char, std::__ndk1::char_traits<char>, std::__ndk1::allocator<char> >, std::__ndk1::basic_string<char, std::__ndk1::char_traits<char>, std::__ndk1::allocator<char> >)
FUNC 448e4 10 0 ChromaLayer::colorValueChanged(cocos2d::_ccColor3B)
FUNC 448f4 14 0 {virtual override thunk({offset(-520)}, ChromaLayer::colorValueChanged(cocos2d::_ccColor3B))}
FUNC 44908 60 0 geode::impl::ResultData<bool, std::__ndk1::basic_string<char, std::__ndk1::char_traits<char>, std::__ndk1::allocator<char> > >::~ResultData()
FUNC 44968 60 0 geode::impl::ResultData<ChromaSetup, std::__ndk1::basic_string<char, std::__ndk1::char_traits<char>, std::__ndk1::allocator<char> > >::~ResultData()
FUNC 449c8 338 0 matjson::Serialize<ChromaSetup>::fromJson(matjson::Value const&)
FUNC 44d00 bc 0 _ZNO5geode6ResultINSt6__ndk112basic_stringIcNS1_11char_traitsIcEENS1_9allocatorIcEEEES7_E7andThenIZN7matjson9SerializeI11ChromaSetupE8fromJsonERKNSA_5ValueEEUlT_E_Qaaaasr3stdE9invocableITL0__SH_Esr4implE8IsResultINS1_13invoke_resultISJ_JSH_EE4typeEEsr3stdE14convertible_toIT0_NS_4impl12IsResultImplISM_E7ErrTypeEEEENSK_ISH_JS7_EE4typeEOSH_
FUNC 44dbc 60 0 geode::impl::ResultData<cocos2d::_ccColor3B, std::__ndk1::basic_string<char, std::__ndk1::char_traits<char>, std::__ndk1::allocator<char> > >::~ResultData()
FUNC 44e1c 60 0 geode::impl::ResultData<std::__ndk1::basic_string<char, std::__ndk1::char_traits<char>, std::__ndk1::allocator<char> >, std::__ndk1::basic_string<char, std::__ndk1::char_traits<char>, std::__ndk1::allocator<char> > >::~ResultData()
FUNC 44e7c 60 0 geode::impl::ResultData<long long, std::__ndk1::basic_string<char, std::__ndk1::char_traits<char>, std::__ndk1::allocator<char> > >::~ResultData()
FUNC 44edc 2 0 std::__ndk1::__variant_detail::__visitation::__base::__dispatcher<(unsigned int)0>::__dispatch[abi:ne190000]<std::__ndk1::__variant_detail::__dtor<std::__ndk1::__variant_detail::__traits<cocos2d::_ccColor3B, std::__ndk1::basic_string<char, std::__ndk1::char_traits<char>, std::__ndk1::allocator<char> > >, (std::__ndk1::__variant_detail::_Trait)1>::__destroy[abi:ne190000]()::{lambda(auto:1&)#1}, std::__ndk1::__variant_detail::__base<(std::__ndk1::__variant_detail::__traits<cocos2d::_ccColor3B, std::__ndk1::basic_string<char, std::__ndk1::char_traits<char>, std::__ndk1::allocator<char> > >)1, cocos2d, std::__ndk1::allocator<char> >&>(std::__ndk1::__variant_detail::__dtor<std::__ndk1::__variant_detail::__traits<cocos2d::_ccColor3B, std::__ndk1::basic_string<char, std::__ndk1::char_traits<char>, std::__ndk1::allocator<char> > >, (std::__ndk1::__variant_detail::_Trait)1>, std::__ndk1::__variant_detail::__base<(std::__ndk1::__variant_detail::__traits<cocos2d::_ccColor3B, std::__ndk1::basic_string<char, std::__ndk1::char_traits<char>, std::__ndk1::allocator<char> > >)1, cocos2d, std::__ndk1::allocator<char> >&)
FUNC 44ede e 0 std::__ndk1::__variant_detail::__visitation::__base::__dispatcher<(unsigned int)1>::__dispatch[abi:ne190000]<std::__ndk1::__variant_detail::__dtor<std::__ndk1::__variant_detail::__traits<cocos2d::_ccColor3B, std::__ndk1::basic_string<char, std::__ndk1::char_traits<char>, std::__ndk1::allocator<char> > >, (std::__ndk1::__variant_detail::_Trait)1>::__destroy[abi:ne190000]()::{lambda(auto:1&)#1}, std::__ndk1::__variant_detail::__base<(std::__ndk1::__variant_detail::__traits<cocos2d::_ccColor3B, std::__ndk1::basic_string<char, std::__ndk1::char_traits<char>, std::__ndk1::allocator<char> > >)1, cocos2d, std::__ndk1::allocator<char> >&>(std::__ndk1::__variant_detail::__dtor<std::__ndk1::__variant_detail::__traits<cocos2d::_ccColor3B, std::__ndk1::basic_string<char, std::__ndk1::char_traits<char>, std::__ndk1::allocator<char> > >, (std::__ndk1::__variant_detail::_Trait)1>, std::__ndk1::__variant_detail::__base<(std::__ndk1::__variant_detail::__traits<cocos2d::_ccColor3B, std::__ndk1::basic_string<char, std::__ndk1::char_traits<char>, std::__ndk1::allocator<char> > >)1, cocos2d, std::__ndk1::allocator<char> >&)
FUNC 44eec e 0 std::__ndk1::__variant_detail::__visitation::__base::__dispatcher<(unsigned int)0>::__dispatch[abi:ne190000]<std::__ndk1::__variant_detail::__dtor<std::__ndk1::__variant_detail::__traits<std::__ndk1::basic_string<char, std::__ndk1::char_traits<char>, std::__ndk1::allocator<char> >, std::__ndk1::allocator<char> >, (std::__ndk1::__variant_detail::_Trait)1>::__destroy[abi:ne190000]()::{lambda(auto:1&)#1}, std::__ndk1::__variant_detail::__base<(std::__ndk1::__variant_detail::__traits<std::__ndk1::basic_string<char, std::__ndk1::char_traits<char>, std::__ndk1::allocator<char> >, std::__ndk1::allocator<char> >)1, std::__ndk1::allocator<char>, std::__ndk1::allocator<char> >&>(std::__ndk1::__variant_detail::__dtor<std::__ndk1::__variant_detail::__traits<std::__ndk1::basic_string<char, std::__ndk1::char_traits<char>, std::__ndk1::allocator<char> >, std::__ndk1::allocator<char> >, (std::__ndk1::__variant_detail::_Trait)1>, std::__ndk1::__variant_detail::__base<(std::__ndk1::__variant_detail::__traits<std::__ndk1::basic_string<char, std::__ndk1::char_traits<char>, std::__ndk1::allocator<char> >, std::__ndk1::allocator<char> >)1, std::__ndk1::allocator<char>, std::__ndk1::allocator<char> >&)
FUNC 44efa e 0 std::__ndk1::__variant_detail::__visitation::__base::__dispatcher<(unsigned int)1>::__dispatch[abi:ne190000]<std::__ndk1::__variant_detail::__dtor<std::__ndk1::__variant_detail::__traits<std::__ndk1::basic_string<char, std::__ndk1::char_traits<char>, std::__ndk1::allocator<char> >, std::__ndk1::allocator<char> >, (std::__ndk1::__variant_detail::_Trait)1>::__destroy[abi:ne190000]()::{lambda(auto:1&)#1}, std::__ndk1::__variant_detail::__base<(std::__ndk1::__variant_detail::__traits<std::__ndk1::basic_string<char, std::__ndk1::char_traits<char>, std::__ndk1::allocator<char> >, std::__ndk1::allocator<char> >)1, std::__ndk1::allocator<char>, std::__ndk1::allocator<char> >&>(std::__ndk1::__variant_detail::__dtor<std::__ndk1::__variant_detail::__traits<std::__ndk1::basic_string<char, std::__ndk1::char_traits<char>, std::__ndk1::allocator<char> >, std::__ndk1::allocator<char> >, (std::__ndk1::__variant_detail::_Trait)1>, std::__ndk1::__variant_detail::__base<(std::__ndk1::__variant_detail::__traits<std::__ndk1::basic_string<char, std::__ndk1::char_traits<char>, std::__ndk1::allocator<char> >, std::__ndk1::allocator<char> >)1, std::__ndk1::allocator<char>, std::__ndk1::allocator<char> >&)
FUNC 44f08 2 0 std::__ndk1::__variant_detail::__visitation::__base::__dispatcher<(unsigned int)0>::__dispatch[abi:ne190000]<std::__ndk1::__variant_detail::__dtor<std::__ndk1::__variant_detail::__traits<long long, std::__ndk1::basic_string<char, std::__ndk1::char_traits<char>, std::__ndk1::allocator<char> > >, (std::__ndk1::__variant_detail::_Trait)1>::__destroy[abi:ne190000]()::{lambda(auto:1&)#1}, std::__ndk1::__variant_detail::__base<(std::__ndk1::__variant_detail::__traits<long long, std::__ndk1::basic_string<char, std::__ndk1::char_traits<char>, std::__ndk1::allocator<char> > >)1, long long, std::__ndk1::allocator<char> >&>(std::__ndk1::__variant_detail::__dtor<std::__ndk1::__variant_detail::__traits<long long, std::__ndk1::basic_string<char, std::__ndk1::char_traits<char>, std::__ndk1::allocator<char> > >, (std::__ndk1::__variant_detail::_Trait)1>, std::__ndk1::__variant_detail::__base<(std::__ndk1::__variant_detail::__traits<long long, std::__ndk1::basic_string<char, std::__ndk1::char_traits<char>, std::__ndk1::allocator<char> > >)1, long long, std::__ndk1::allocator<char> >&)
FUNC 44f0a e 0 std::__ndk1::__variant_detail::__visitation::__base::__dispatcher<(unsigned int)1>::__dispatch[abi:ne190000]<std::__ndk1::__variant_detail::__dtor<std::__ndk1::__variant_detail::__traits<long long, std::__ndk1::basic_string<char, std::__ndk1::char_traits<char>, std::__ndk1::allocator<char> > >, (std::__ndk1::__variant_detail::_Trait)1>::__destroy[abi:ne190000]()::{lambda(auto:1&)#1}, std::__ndk1::__variant_detail::__base<(std::__ndk1::__variant_detail::__traits<long long, std::__ndk1::basic_string<char, std::__ndk1::char_traits<char>, std::__ndk1::allocator<char> > >)1, long long, std::__ndk1::allocator<char> >&>(std::__ndk1::__variant_detail::__dtor<std::__ndk1::__variant_detail::__traits<long long, std::__ndk1::basic_string<char, std::__ndk1::char_traits<char>, std::__ndk1::allocator<char> > >, (std::__ndk1::__variant_detail::_Trait)1>, std::__ndk1::__variant_detail::__base<(std::__ndk1::__variant_detail::__traits<long long, std::__ndk1::basic_string<char, std::__ndk1::char_traits<char>, std::__ndk1::allocator<char> > >)1, long long, std::__ndk1::allocator<char> >&)
FUNC 44f18 1e 0 std::__ndk1::__variant_detail::__visitation::__base::__dispatcher<(unsigned int)0>::__dispatch[abi:ne190000]<std::__ndk1::__variant_detail::__dtor<std::__ndk1::__variant_detail::__traits<ChromaSetup, std::__ndk1::basic_string<char, std::__ndk1::char_traits<char>, std::__ndk1::allocator<char> > >, (std::__ndk1::__variant_detail::_Trait)1>::__destroy[abi:ne190000]()::{lambda(auto:1&)#1}, std::__ndk1::__variant_detail::__base<(std::__ndk1::__variant_detail::__traits<ChromaSetup, std::__ndk1::basic_string<char, std::__ndk1::char_traits<char>, std::__ndk1::allocator<char> > >)1, std::__ndk1::__variant_detail::__traits, std::__ndk1::allocator<char> >&>(std::__ndk1::__variant_detail::__dtor<std::__ndk1::__variant_detail::__traits<ChromaSetup, std::__ndk1::basic_string<char, std::__ndk1::char_traits<char>, std::__ndk1::allocator<char> > >, (std::__ndk1::__variant_detail::_Trait)1>, std::__ndk1::__variant_detail::__base<(std::__ndk1::__variant_detail::__traits<ChromaSetup, std::__ndk1::basic_string<char, std::__ndk1::char_traits<char>, std::__ndk1::allocator<char> > >)1, std::__ndk1::__variant_detail::__traits, std::__ndk1::allocator<char> >&)
FUNC 44f36 e 0 std::__ndk1::__variant_detail::__visitation::__base::__dispatcher<(unsigned int)1>::__dispatch[abi:ne190000]<std::__ndk1::__variant_detail::__dtor<std::__ndk1::__variant_detail::__traits<ChromaSetup, std::__ndk1::basic_string<char, std::__ndk1::char_traits<char>, std::__ndk1::allocator<char> > >, (std::__ndk1::__variant_detail::_Trait)1>::__destroy[abi:ne190000]()::{lambda(auto:1&)#1}, std::__ndk1::__variant_detail::__base<(std::__ndk1::__variant_detail::__traits<ChromaSetup, std::__ndk1::basic_string<char, std::__ndk1::char_traits<char>, std::__ndk1::allocator<char> > >)1, std::__ndk1::__variant_detail::__traits, std::__ndk1::allocator<char> >&>(std::__ndk1::__variant_detail::__dtor<std::__ndk1::__variant_detail::__traits<ChromaSetup, std::__ndk1::basic_string<char, std::__ndk1::char_traits<char>, std::__ndk1::allocator<char> > >, (std::__ndk1::__variant_detail::_Trait)1>, std::__ndk1::__variant_detail::__base<(std::__ndk1::__variant_detail::__traits<ChromaSetup, std::__ndk1::basic_string<char, std::__ndk1::char_traits<char>, std::__ndk1::allocator<char> > >)1, std::__ndk1::__variant_detail::__traits, std::__ndk1::allocator<char> >&)
FUNC 44f44 214 0 matjson::Serialize<ChromaSetup>::toJson(ChromaSetup const&)
FUNC 45158 10c 0 matjson::makeObject(std::initializer_list<std::__ndk1::pair<std::__ndk1::basic_string<char, std::__ndk1::char_traits<char>, std::__ndk1::allocator<char> >, matjson::Value> >)
FUNC 45264 7e 0 _ZNSt6__ndk14pairINS_12basic_stringIcNS_11char_traitsIcEENS_9allocatorIcEEEEN7matjson5ValueEEC2B8ne190000IRA5_KcRKiTnNS_9enable_ifIXclsr10_CheckArgsE23__is_pair_constructibleIT_T0_EEEiE4typeELi0EEEOSH_OSI_
FUNC 452e2 7e 0 _ZNSt6__ndk14pairINS_12basic_stringIcNS_11char_traitsIcEENS_9allocatorIcEEEEN7matjson5ValueEEC2B8ne190000IRA11_KcRKiTnNS_9enable_ifIXclsr10_CheckArgsE23__is_pair_constructibleIT_T0_EEEiE4typeELi0EEEOSH_OSI_
FUNC 45360 7c 0 _ZNSt6__ndk14pairINS_12basic_stringIcNS_11char_traitsIcEENS_9allocatorIcEEEEN7matjson5ValueEEC2B8ne190000IRA5_KcRKbTnNS_9enable_ifIXclsr10_CheckArgsE23__is_pair_constructibleIT_T0_EEEiE4typeELi0EEEOSH_OSI_
FUNC 453dc d4 0 _ZNSt6__ndk14pairINS_12basic_stringIcNS_11char_traitsIcEENS_9allocatorIcEEEEN7matjson5ValueEEC2B8ne190000IRA6_KcS6_TnNS_9enable_ifIXclsr10_CheckArgsE23__is_pair_constructibleIT_T0_EEEiE4typeELi0EEEOSF_OSG_
FUNC 454b0 7a 0 _ZNSt6__ndk14pairINS_12basic_stringIcNS_11char_traitsIcEENS_9allocatorIcEEEEN7matjson5ValueEEC2B8ne190000IRA9_KcS8_TnNS_9enable_ifIXclsr10_CheckArgsE23__is_pair_constructibleIT_T0_EEEiE4typeELi0EEEOSF_OSG_
FUNC 4552a 1c 0 std::__ndk1::pair<std::__ndk1::basic_string<char, std::__ndk1::char_traits<char>, std::__ndk1::allocator<char> >, matjson::Value>::~pair()
FUNC 45546 2a 0 std::__ndk1::vector<matjson::Value, std::__ndk1::allocator<matjson::Value> >::~vector[abi:ne190000]()
FUNC 45570 11c 0 std::__ndk1::vector<matjson::Value, std::__ndk1::allocator<matjson::Value> >::__emplace_back_slow_path<matjson::Value const&>(matjson::Value const&)
FUNC 4568c 2a 0 std::__ndk1::__split_buffer<matjson::Value, std::__ndk1::allocator<matjson::Value>&>::~__split_buffer()
FUNC 456b8 10 0 std::__ndk1::vector<matjson::Value, std::__ndk1::allocator<matjson::Value> >::__throw_length_error[abi:ne190000]() const
FUNC 456c8 4 0 CCBlurLayer::~CCBlurLayer()
FUNC 456cc 8 0 {virtual override thunk({offset(-264)}, CCBlurLayer::~CCBlurLayer())}
FUNC 456d4 10 0 CCBlurLayer::~CCBlurLayer()
FUNC 456e4 14 0 {virtual override thunk({offset(-264)}, CCBlurLayer::~CCBlurLayer())}
FUNC 456f8 22 0 CCBlurLayer::init()
FUNC 4571c a0 0 CCBlurLayer::create()
FUNC 457bc 48 0 CCBlurLayer::visit()
FUNC 45804 1c0 0 CCBlurLayer::draw()
FUNC 459c4 b0 0 Shader::compile(std::__ndk1::__fs::filesystem::path const&, std::__ndk1::__fs::filesystem::path const&)::$_0::operator()(unsigned int) const
FUNC 45a74 174 0 RenderTexture::setup(int, int)
FUNC 45be8 cc4 0 setupPostProcess()
FUNC 468ac 108 0 cleanupPostProcess()
FUNC 469b4 7c 0 geodeExecFunction389<(anonymous namespace)::ExecFuncUnique389>(geode::ModStateEvent*)
FUNC 46a30 2bc 0 __cxx_global_var_init.20
FUNC 46cec 2bc 0 __cxx_global_var_init.21
FUNC 46fa8 b8 0 _GLOBAL__sub_I_CCBlurLayer.cpp
FUNC 47060 20 0 geode::modifier::ModifyBase<geode::modifier::ModifyDerive<hook371<(anonymous namespace)::hook371Parent>, cocos2d::CCEGLViewProtocol> >::~ModifyBase()
FUNC 47080 20 0 geode::modifier::ModifyBase<geode::modifier::ModifyDerive<hook381<(anonymous namespace)::hook381Parent>, GameManager> >::~ModifyBase()
FUNC 470a0 104 0 _ZN5geode15UnwrapExceptionC2IRNSt6__ndk112basic_stringIcNS2_11char_traitsIcEENS2_9allocatorIcEEEEQsr4implE18IsStringStreamableIT_EEENS_4impl5OkTagEOSA_
FUNC 471a4 d8 0 std::__ndk1::basic_stringstream<char, std::__ndk1::char_traits<char>, std::__ndk1::allocator<char> >::basic_stringstream[abi:ne190000]()
FUNC 4727c 68 0 std::__ndk1::basic_stringstream<char, std::__ndk1::char_traits<char>, std::__ndk1::allocator<char> >::~basic_stringstream()
FUNC 472e4 10 0 geode::UnwrapException::~UnwrapException()
FUNC 472f4 108 0 std::__ndk1::__put_character_sequence[abi:ne190000]<char, std::__ndk1::char_traits<char> >(std::__ndk1::basic_ostream<char, std::__ndk1::char_traits<char> >, std::__ndk1::basic_ostream const*, unsigned int)
FUNC 473fc 110 0 std::__ndk1::__pad_and_output[abi:ne190000]<char, std::__ndk1::char_traits<char> >(std::__ndk1::char_traits<char>, std::__ndk1::ostreambuf_iterator const*, std::__ndk1::ostreambuf_iterator const, std::__ndk1::ostreambuf_iterator const, std::__ndk1::ios_base&, std::__ndk1::ostreambuf_iterator)
FUNC 4750c da 0 std::__ndk1::basic_stringbuf<char, std::__ndk1::char_traits<char>, std::__ndk1::allocator<char> >::str[abi:ne190000]() &&
FUNC 475e6 e0 0 std::__ndk1::basic_stringbuf<char, std::__ndk1::char_traits<char>, std::__ndk1::allocator<char> >::__init_buf_ptrs[abi:ne190000]()
FUNC 476c6 5e 0 std::__ndk1::basic_string<char, std::__ndk1::char_traits<char>, std::__ndk1::allocator<char> >::__erase_external_with_move(unsigned int, unsigned int)
FUNC 47724 104 0 _ZN5geode15UnwrapExceptionC2IRNSt6__ndk112basic_stringIcNS2_11char_traitsIcEENS2_9allocatorIcEEEEQsr4implE18IsStringStreamableIT_EEENS_4impl6ErrTagEOSA_
FUNC 47828 1e0 0 _ZNSt6__ndk112basic_stringIcNS_11char_traitsIcEENS_9allocatorIcEEE6appendB8ne190000IPKcTnNS_9enable_ifIXsr31__has_forward_iterator_categoryIT_EE5valueEiE4typeELi0EEERS5_SA_SA_
FUNC 47a08 9c 0 std::__ndk1::__variant_detail::__visitation::__base::__dispatcher<(unsigned int)0, (unsigned int)0>::__dispatch[abi:ne190000]<std::__ndk1::__variant_detail::__assignment<std::__ndk1::__variant_detail::__traits<std::__ndk1::basic_string<char, std::__ndk1::char_traits<char>, std::__ndk1::allocator<char> >, std::__ndk1::allocator<char> > >::__generic_assign[abi:ne190000]<std::__ndk1::__variant_detail::__move_assignment<std::__ndk1::basic_string<char, std::__ndk1::char_traits<char>, std::__ndk1::allocator<char> >, (std::__ndk1::__variant_detail::_Trait)1> >(std::__ndk1::__variant_detail::__move_assignment<std::__ndk1::basic_string<char, std::__ndk1::char_traits<char>, std::__ndk1::allocator<char> >, (std::__ndk1::__variant_detail::_Trait)1>&&)::{lambda(std::__ndk1::__variant_detail::_Trait&, auto:2&&)#1}, std::__ndk1::__variant_detail::__base<(std::__ndk1::__variant_detail::__assignment<std::__ndk1::__variant_detail::__traits<std::__ndk1::basic_string<char, std::__ndk1::char_traits<char>, std::__ndk1::allocator<char> >, std::__ndk1::allocator<char> > >::__generic_assign[abi:ne190000])1, std::__ndk1::allocator<char>, std::__ndk1::allocator<char> >&, std::__ndk1::__variant_detail::__assignment<std::__ndk1::__variant_detail::__traits<std::__ndk1::basic_string<char, std::__ndk1::char_traits<char>, std::__ndk1::allocator<char> >, std::__ndk1::allocator<char> > >::__generic_assign[abi:ne190000]<std::__ndk1::__variant_detail::__move_assignment<std::__ndk1::basic_string<char, std::__ndk1::char_traits<char>, std::__ndk1::allocator<char> >, (std::__ndk1::__variant_detail::_Trait)1> >(std::__ndk1::__variant_detail::__move_assignment<std::__ndk1::basic_string<char, std::__ndk1::char_traits<char>, std::__ndk1::allocator<char> >, (std::__ndk1::__variant_detail::_Trait)1>&&)::{lambda(std::__ndk1::__variant_detail::_Trait&, auto:2&&)#1}>(std::__ndk1::__variant_detail::_Trait, std::__ndk1::__variant_detail::__base<(std::__ndk1::__variant_detail::__assignment<std::__ndk1::__variant_detail::__traits<std::__ndk1::basic_string<char, std::__ndk1::char_traits<char>, std::__ndk1::allocator<char> >, std::__ndk1::allocator<char> > >::__generic_assign[abi:ne190000])1, std::__ndk1::allocator<char>, std::__ndk1::allocator<char> >&, std::__ndk1::__variant_detail::__assignment<std::__ndk1::__variant_detail::__traits<std::__ndk1::basic_string<char, std::__ndk1::char_traits<char>, std::__ndk1::allocator<char> >, std::__ndk1::allocator<char> > >::__generic_assign[abi:ne190000]<std::__ndk1::__variant_detail::__move_assignment<std::__ndk1::basic_string<char, std::__ndk1::char_traits<char>, std::__ndk1::allocator<char> >, (std::__ndk1::__variant_detail::_Trait)1> >(std::__ndk1::__variant_detail::__move_assignment<std::__ndk1::basic_string<char, std::__ndk1::char_traits<char>, std::__ndk1::allocator<char> >, (std::__ndk1::__variant_detail::_Trait)1>&&)::{lambda(std::__ndk1::__variant_detail::_Trait&, auto:2&&)#1})
FUNC 47aa4 a0 0 std::__ndk1::__variant_detail::__visitation::__base::__dispatcher<(unsigned int)1, (unsigned int)1>::__dispatch[abi:ne190000]<std::__ndk1::__variant_detail::__assignment<std::__ndk1::__variant_detail::__traits<std::__ndk1::basic_string<char, std::__ndk1::char_traits<char>, std::__ndk1::allocator<char> >, std::__ndk1::allocator<char> > >::__generic_assign[abi:ne190000]<std::__ndk1::__variant_detail::__move_assignment<std::__ndk1::basic_string<char, std::__ndk1::char_traits<char>, std::__ndk1::allocator<char> >, (std::__ndk1::__variant_detail::_Trait)1> >(std::__ndk1::__variant_detail::__move_assignment<std::__ndk1::basic_string<char, std::__ndk1::char_traits<char>, std::__ndk1::allocator<char> >, (std::__ndk1::__variant_detail::_Trait)1>&&)::{lambda(std::__ndk1::__variant_detail::_Trait&, auto:2&&)#1}, std::__ndk1::__variant_detail::__base<(std::__ndk1::__variant_detail::__assignment<std::__ndk1::__variant_detail::__traits<std::__ndk1::basic_string<char, std::__ndk1::char_traits<char>, std::__ndk1::allocator<char> >, std::__ndk1::allocator<char> > >::__generic_assign[abi:ne190000])1, std::__ndk1::allocator<char>, std::__ndk1::allocator<char> >&, std::__ndk1::__variant_detail::__assignment<std::__ndk1::__variant_detail::__traits<std::__ndk1::basic_string<char, std::__ndk1::char_traits<char>, std::__ndk1::allocator<char> >, std::__ndk1::allocator<char> > >::__generic_assign[abi:ne190000]<std::__ndk1::__variant_detail::__move_assignment<std::__ndk1::basic_string<char, std::__ndk1::char_traits<char>, std::__ndk1::allocator<char> >, (std::__ndk1::__variant_detail::_Trait)1> >(std::__ndk1::__variant_detail::__move_assignment<std::__ndk1::basic_string<char, std::__ndk1::char_traits<char>, std::__ndk1::allocator<char> >, (std::__ndk1::__variant_detail::_Trait)1>&&)::{lambda(std::__ndk1::__variant_detail::_Trait&, auto:2&&)#1}>(std::__ndk1::__variant_detail::_Trait, std::__ndk1::__variant_detail::__base<(std::__ndk1::__variant_detail::__assignment<std::__ndk1::__variant_detail::__traits<std::__ndk1::basic_string<char, std::__ndk1::char_traits<char>, std::__ndk1::allocator<char> >, std::__ndk1::allocator<char> > >::__generic_assign[abi:ne190000])1, std::__ndk1::allocator<char>, std::__ndk1::allocator<char> >&, std::__ndk1::__variant_detail::__assignment<std::__ndk1::__variant_detail::__traits<std::__ndk1::basic_string<char, std::__ndk1::char_traits<char>, std::__ndk1::allocator<char> >, std::__ndk1::allocator<char> > >::__generic_assign[abi:ne190000]<std::__ndk1::__variant_detail::__move_assignment<std::__ndk1::basic_string<char, std::__ndk1::char_traits<char>, std::__ndk1::allocator<char> >, (std::__ndk1::__variant_detail::_Trait)1> >(std::__ndk1::__variant_detail::__move_assignment<std::__ndk1::basic_string<char, std::__ndk1::char_traits<char>, std::__ndk1::allocator<char> >, (std::__ndk1::__variant_detail::_Trait)1>&&)::{lambda(std::__ndk1::__variant_detail::_Trait&, auto:2&&)#1})
FUNC 47b50 338 0 geode::modifier::ModifyDerive<hook371<(anonymous namespace)::hook371Parent>, cocos2d::CCEGLViewProtocol>::apply()
FUNC 47e88 3a 0 std::__ndk1::shared_ptr<geode::Hook>::~shared_ptr[abi:ne190000]()
FUNC 47ec4 60 0 geode::impl::ResultData<geode::Hook*, std::__ndk1::basic_string<char, std::__ndk1::char_traits<char>, std::__ndk1::allocator<char> > >::~ResultData()
FUNC 47f24 2 0 geode::modifier::ModifyBase<geode::modifier::ModifyDerive<hook371<(anonymous namespace)::hook371Parent>, cocos2d::CCEGLViewProtocol> >::apply()
FUNC 47f28 f8 0 _ZN5geode15UnwrapExceptionC2IRPNS_4HookEQsr4implE18IsStringStreamableIT_EEENS_4impl5OkTagEOS5_
FUNC 48020 2 0 std::__ndk1::__variant_detail::__visitation::__base::__dispatcher<(unsigned int)0>::__dispatch[abi:ne190000]<std::__ndk1::__variant_detail::__dtor<std::__ndk1::__variant_detail::__traits<geode::Hook*, std::__ndk1::basic_string<char, std::__ndk1::char_traits<char>, std::__ndk1::allocator<char> > >, (std::__ndk1::__variant_detail::_Trait)1>::__destroy[abi:ne190000]()::{lambda(auto:1&)#1}, std::__ndk1::__variant_detail::__base<(std::__ndk1::__variant_detail::__traits<geode::Hook*, std::__ndk1::basic_string<char, std::__ndk1::char_traits<char>, std::__ndk1::allocator<char> > >)1, geode::Hook, std::__ndk1::allocator<char> >&>(std::__ndk1::__variant_detail::__dtor<std::__ndk1::__variant_detail::__traits<geode::Hook*, std::__ndk1::basic_string<char, std::__ndk1::char_traits<char>, std::__ndk1::allocator<char> > >, (std::__ndk1::__variant_detail::_Trait)1>, std::__ndk1::__variant_detail::__base<(std::__ndk1::__variant_detail::__traits<geode::Hook*, std::__ndk1::basic_string<char, std::__ndk1::char_traits<char>, std::__ndk1::allocator<char> > >)1, geode::Hook, std::__ndk1::allocator<char> >&)
FUNC 48022 e 0 std::__ndk1::__variant_detail::__visitation::__base::__dispatcher<(unsigned int)1>::__dispatch[abi:ne190000]<std::__ndk1::__variant_detail::__dtor<std::__ndk1::__variant_detail::__traits<geode::Hook*, std::__ndk1::basic_string<char, std::__ndk1::char_traits<char>, std::__ndk1::allocator<char> > >, (std::__ndk1::__variant_detail::_Trait)1>::__destroy[abi:ne190000]()::{lambda(auto:1&)#1}, std::__ndk1::__variant_detail::__base<(std::__ndk1::__variant_detail::__traits<geode::Hook*, std::__ndk1::basic_string<char, std::__ndk1::char_traits<char>, std::__ndk1::allocator<char> > >)1, geode::Hook, std::__ndk1::allocator<char> >&>(std::__ndk1::__variant_detail::__dtor<std::__ndk1::__variant_detail::__traits<geode::Hook*, std::__ndk1::basic_string<char, std::__ndk1::char_traits<char>, std::__ndk1::allocator<char> > >, (std::__ndk1::__variant_detail::_Trait)1>, std::__ndk1::__variant_detail::__base<(std::__ndk1::__variant_detail::__traits<geode::Hook*, std::__ndk1::basic_string<char, std::__ndk1::char_traits<char>, std::__ndk1::allocator<char> > >)1, geode::Hook, std::__ndk1::allocator<char> >&)
FUNC 48030 c0 0 std::__ndk1::__tree<std::__ndk1::__value_type<std::__ndk1::basic_string<char, std::__ndk1::char_traits<char>, std::__ndk1::allocator<char> >, std::__ndk1::shared_ptr<geode::Hook> >, std::__ndk1::__map_value_compare<std::__ndk1::basic_string<char, std::__ndk1::char_traits<char>, std::__ndk1::allocator<char> >, std::__ndk1::__value_type<std::__ndk1::basic_string<char, std::__ndk1::char_traits<char>, std::__ndk1::allocator<char> >, std::__ndk1::shared_ptr<geode::Hook> >, std::__ndk1::less<std::__ndk1::basic_string<char, std::__ndk1::char_traits<char>, std::__ndk1::allocator<char> > >, true>, std::__ndk1::allocator<std::__ndk1::__value_type<std::__ndk1::basic_string<char, std::__ndk1::char_traits<char>, std::__ndk1::allocator<char> >, std::__ndk1::shared_ptr<geode::Hook> > > >::find<std::__ndk1::basic_string<char, std::__ndk1::char_traits<char>, std::__ndk1::allocator<char> > >(std::__ndk1::basic_string<char, std::__ndk1::char_traits<char>, std::__ndk1::allocator<char> > const&)
FUNC 480f0 82 0 std::__ndk1::__tree<std::__ndk1::__value_type<std::__ndk1::basic_string<char, std::__ndk1::char_traits<char>, std::__ndk1::allocator<char> >, std::__ndk1::shared_ptr<geode::Hook> >, std::__ndk1::__map_value_compare<std::__ndk1::basic_string<char, std::__ndk1::char_traits<char>, std::__ndk1::allocator<char> >, std::__ndk1::__value_type<std::__ndk1::basic_string<char, std::__ndk1::char_traits<char>, std::__ndk1::allocator<char> >, std::__ndk1::shared_ptr<geode::Hook> >, std::__ndk1::less<std::__ndk1::basic_string<char, std::__ndk1::char_traits<char>, std::__ndk1::allocator<char> > >, true>, std::__ndk1::allocator<std::__ndk1::__value_type<std::__ndk1::basic_string<char, std::__ndk1::char_traits<char>, std::__ndk1::allocator<char> >, std::__ndk1::shared_ptr<geode::Hook> > > >::erase(std::__ndk1::__tree_const_iterator<std::__ndk1::__value_type<std::__ndk1::basic_string<char, std::__ndk1::char_traits<char>, std::__ndk1::allocator<char> >, std::__ndk1::shared_ptr<geode::Hook> >, std::__ndk1::__tree_node<std::__ndk1::__value_type<std::__ndk1::basic_string<char, std::__ndk1::char_traits<char>, std::__ndk1::allocator<char> >, std::__ndk1::shared_ptr<geode::Hook> >, void*>*, int>)
FUNC 48172 274 0 std::__ndk1::__tree_remove[abi:ne190000]<std::__ndk1::__tree_node_base<void*>*>(std::__ndk1::__tree_node_base<void*>*, std::__ndk1::__tree_node_base<void*>*)
FUNC 483e6 5e 0 std::__ndk1::__tree<std::__ndk1::__value_type<std::__ndk1::basic_string<char, std::__ndk1::char_traits<char>, std::__ndk1::allocator<char> >, std::__ndk1::shared_ptr<geode::Hook> >, std::__ndk1::__map_value_compare<std::__ndk1::basic_string<char, std::__ndk1::char_traits<char>, std::__ndk1::allocator<char> >, std::__ndk1::__value_type<std::__ndk1::basic_string<char, std::__ndk1::char_traits<char>, std::__ndk1::allocator<char> >, std::__ndk1::shared_ptr<geode::Hook> >, std::__ndk1::less<std::__ndk1::basic_string<char, std::__ndk1::char_traits<char>, std::__ndk1::allocator<char> > >, true>, std::__ndk1::allocator<std::__ndk1::__value_type<std::__ndk1::basic_string<char, std::__ndk1::char_traits<char>, std::__ndk1::allocator<char> >, std::__ndk1::shared_ptr<geode::Hook> > > >::destroy(std::__ndk1::__tree_node<std::__ndk1::__value_type<std::__ndk1::basic_string<char, std::__ndk1::char_traits<char>, std::__ndk1::allocator<char> >, std::__ndk1::shared_ptr<geode::Hook> >, void*>*)
FUNC 48444 22 0 geode::modifier::AsStaticFunction_setFrameSize<hook371<(anonymous namespace)::hook371Parent>, void (hook371<(anonymous namespace)::hook371Parent>::*)(float, float)>::Impl<void (hook371<(anonymous namespace)::hook371Parent>::*)(float, float)>::function(hook371<(anonymous namespace)::hook371Parent>*, float, float)
FUNC 48468 90 0 geode::addresser::Addresser::addressOfVirtual<void, cocos2d::CCEGLViewProtocol, float, float>(void (cocos2d::CCEGLViewProtocol::*)(float, float))
FUNC 484f8 3a 0 std::__ndk1::shared_ptr<tulip::hook::CallingConvention>::~shared_ptr[abi:ne190000]()
FUNC 48532 46 0 tulip::hook::HandlerMetadata::~HandlerMetadata()
FUNC 48578 ba 0 std::__ndk1::__tree<std::__ndk1::__value_type<std::__ndk1::basic_string<char, std::__ndk1::char_traits<char>, std::__ndk1::allocator<char> >, std::__ndk1::shared_ptr<geode::Hook> >, std::__ndk1::__map_value_compare<std::__ndk1::basic_string<char, std::__ndk1::char_traits<char>, std::__ndk1::allocator<char> >, std::__ndk1::__value_type<std::__ndk1::basic_string<char, std::__ndk1::char_traits<char>, std::__ndk1::allocator<char> >, std::__ndk1::shared_ptr<geode::Hook> >, std::__ndk1::less<std::__ndk1::basic_string<char, std::__ndk1::char_traits<char>, std::__ndk1::allocator<char> > >, true>, std::__ndk1::allocator<std::__ndk1::__value_type<std::__ndk1::basic_string<char, std::__ndk1::char_traits<char>, std::__ndk1::allocator<char> >, std::__ndk1::shared_ptr<geode::Hook> > > >::__find_equal<std::__ndk1::basic_string<char, std::__ndk1::char_traits<char>, std::__ndk1::allocator<char> > >(std::__ndk1::__tree_end_node<std::__ndk1::__tree_node_base<void*>*>*&, std::__ndk1::basic_string<char, std::__ndk1::char_traits<char>, std::__ndk1::allocator<char> > const&)
FUNC 48634 2c8 0 geode::modifier::ModifyDerive<hook381<(anonymous namespace)::hook381Parent>, GameManager>::apply()
FUNC 488fc 2 0 geode::modifier::ModifyBase<geode::modifier::ModifyDerive<hook381<(anonymous namespace)::hook381Parent>, GameManager> >::apply()
FUNC 488fe 14 0 geode::modifier::AsStaticFunction_reloadAllStep5<hook381<(anonymous namespace)::hook381Parent>, void (hook381<(anonymous namespace)::hook381Parent>::*)()>::Impl<void (hook381<(anonymous namespace)::hook381Parent>::*)()>::function(hook381<(anonymous namespace)::hook381Parent>*)
FUNC 48912 2 0 std::__ndk1::__function::__base<void ()>::~__base()
FUNC 48914 4 0 std::__ndk1::__function::__func<geodeExecFunction389<(anonymous namespace)::ExecFuncUnique389>(geode::ModStateEvent*)::{lambda()#1}, std::__ndk1::allocator<geodeExecFunction389<(anonymous namespace)::ExecFuncUnique389>(geode::ModStateEvent*)::{lambda()#1}>, void ()>::~__func()
FUNC 48918 18 0 std::__ndk1::__function::__func<geodeExecFunction389<(anonymous namespace)::ExecFuncUnique389>(geode::ModStateEvent*)::{lambda()#1}, std::__ndk1::allocator<geodeExecFunction389<(anonymous namespace)::ExecFuncUnique389>(geode::ModStateEvent*)::{lambda()#1}>, void ()>::__clone() const
FUNC 48930 10 0 std::__ndk1::__function::__func<geodeExecFunction389<(anonymous namespace)::ExecFuncUnique389>(geode::ModStateEvent*)::{lambda()#1}, std::__ndk1::allocator<geodeExecFunction389<(anonymous namespace)::ExecFuncUnique389>(geode::ModStateEvent*)::{lambda()#1}>, void ()>::__clone(std::__ndk1::__function::__base<void ()>*) const
FUNC 48940 2 0 std::__ndk1::__function::__func<geodeExecFunction389<(anonymous namespace)::ExecFuncUnique389>(geode::ModStateEvent*)::{lambda()#1}, std::__ndk1::allocator<geodeExecFunction389<(anonymous namespace)::ExecFuncUnique389>(geode::ModStateEvent*)::{lambda()#1}>, void ()>::destroy()
FUNC 48942 4 0 std::__ndk1::__function::__func<geodeExecFunction389<(anonymous namespace)::ExecFuncUnique389>(geode::ModStateEvent*)::{lambda()#1}, std::__ndk1::allocator<geodeExecFunction389<(anonymous namespace)::ExecFuncUnique389>(geode::ModStateEvent*)::{lambda()#1}>, void ()>::destroy_deallocate()
FUNC 48946 10 0 std::__ndk1::__function::__func<geodeExecFunction389<(anonymous namespace)::ExecFuncUnique389>(geode::ModStateEvent*)::{lambda()#1}, std::__ndk1::allocator<geodeExecFunction389<(anonymous namespace)::ExecFuncUnique389>(geode::ModStateEvent*)::{lambda()#1}>, void ()>::operator()()
FUNC 48958 18 0 std::__ndk1::__function::__func<geodeExecFunction389<(anonymous namespace)::ExecFuncUnique389>(geode::ModStateEvent*)::{lambda()#1}, std::__ndk1::allocator<geodeExecFunction389<(anonymous namespace)::ExecFuncUnique389>(geode::ModStateEvent*)::{lambda()#1}>, void ()>::target(std::type_info const&) const
FUNC 48970 c 0 std::__ndk1::__function::__func<geodeExecFunction389<(anonymous namespace)::ExecFuncUnique389>(geode::ModStateEvent*)::{lambda()#1}, std::__ndk1::allocator<geodeExecFunction389<(anonymous namespace)::ExecFuncUnique389>(geode::ModStateEvent*)::{lambda()#1}>, void ()>::target_type() const
FUNC 4897c 4 0 geode::EventListener<geode::ModStateFilter>::getPool() const
FUNC 48980 e0 0 geode::EventListener<geode::ModStateFilter>::handle(geode::Event*)
FUNC 48a60 38 0 geode::EventListener<geode::ModStateFilter>::~EventListener()
FUNC 48a98 3c 0 geode::EventListener<geode::ModStateFilter>::~EventListener()
FUNC 48ad4 2 0 std::__ndk1::__function::__base<void (geode::ModStateEvent*)>::~__base()
FUNC 48ad6 4 0 std::__ndk1::__function::__func<void (*)(geode::ModStateEvent*), std::__ndk1::allocator<void (*)(geode::ModStateEvent*)>, void (geode::ModStateEvent*)>::~__func()
FUNC 48adc 20 0 std::__ndk1::__function::__func<void (*)(geode::ModStateEvent*), std::__ndk1::allocator<void (*)(geode::ModStateEvent*)>, void (geode::ModStateEvent*)>::__clone() const
FUNC 48afc 14 0 std::__ndk1::__function::__func<void (*)(geode::ModStateEvent*), std::__ndk1::allocator<void (*)(geode::ModStateEvent*)>, void (geode::ModStateEvent*)>::__clone(std::__ndk1::__function::__base<void (geode::ModStateEvent*)>*) const
FUNC 48b10 2 0 std::__ndk1::__function::__func<void (*)(geode::ModStateEvent*), std::__ndk1::allocator<void (*)(geode::ModStateEvent*)>, void (geode::ModStateEvent*)>::destroy()
FUNC 48b12 4 0 std::__ndk1::__function::__func<void (*)(geode::ModStateEvent*), std::__ndk1::allocator<void (*)(geode::ModStateEvent*)>, void (geode::ModStateEvent*)>::destroy_deallocate()
FUNC 48b16 8 0 std::__ndk1::__function::__func<void (*)(geode::ModStateEvent*), std::__ndk1::allocator<void (*)(geode::ModStateEvent*)>, void (geode::ModStateEvent*)>::operator()(geode::ModStateEvent*&&)
FUNC 48b20 18 0 std::__ndk1::__function::__func<void (*)(geode::ModStateEvent*), std::__ndk1::allocator<void (*)(geode::ModStateEvent*)>, void (geode::ModStateEvent*)>::target(std::type_info const&) const
FUNC 48b38 c 0 std::__ndk1::__function::__func<void (*)(geode::ModStateEvent*), std::__ndk1::allocator<void (*)(geode::ModStateEvent*)>, void (geode::ModStateEvent*)>::target_type() const
FUNC 48b44 98 0 __cxx_global_array_dtor
FUNC 48bdc 98 0 __cxx_global_array_dtor.12
FUNC 48c74 38 0 __cxx_global_array_dtor.39
FUNC 48cac 188 0 _GLOBAL__sub_I_cells.cpp
FUNC 48e34 200 0 BaseCell::setup(cocos2d::CCPoint, cocos2d::CCSize, int, std::__ndk1::basic_string<char, std::__ndk1::char_traits<char>, std::__ndk1::allocator<char> >)
FUNC 49038 1b4 0 BaseCell::tint(float, int, int, int)
FUNC 491ec 408 0 WarnCell::init()
FUNC 495f4 98 0 WarnCell::onClick(cocos2d::CCObject*)
FUNC 4968c 1c0 0 OptionTitleCell::init(char const*, float, int, std::__ndk1::basic_string<char, std::__ndk1::char_traits<char>, std::__ndk1::allocator<char> >)
FUNC 49850 450 0 OptionTogglerCell::init(char const*, float, int, std::__ndk1::basic_string<char, std::__ndk1::char_traits<char>, std::__ndk1::allocator<char> >, char const*)
FUNC 49ca0 23c 0 OptionTogglerCell::onOption(cocos2d::CCObject*)
FUNC 49edc 30 0 SignalEvent<bool>::~SignalEvent()
FUNC 49f0c 170 0 OptionTogglerCell::Fade(bool)
FUNC 4a07c 620 0 ItemCell::init(int)
FUNC 4a69c 90 0 ItemCell::onPickItem(cocos2d::CCObject*)
FUNC 4a730 10c 0 ItemCell::Fade(bool)
FUNC 4a83c 270 0 SetupItemCell::init(int, float, int)
FUNC 4aaac 8c 0 SetupItemCell::onPickItem(cocos2d::CCObject*)
FUNC 4ab40 49c 0 SetupOptionCell::init()
FUNC 4afdc 3e 0 std::__ndk1::vector<std::__ndk1::vector<int, std::__ndk1::allocator<int> >, std::__ndk1::allocator<std::__ndk1::vector<int, std::__ndk1::allocator<int> > > >::~vector[abi:ne190000]()
FUNC 4b020 4c4 0 SetupOptionCell::refreshUI(ChromaSetup, bool)
FUNC 4b4e8 160 0 SetupOptionCell::Fade(bool, int)
FUNC 4b648 468 0 ColorValueCell::init(int)
FUNC 4bab0 144 0 ColorValueCell::onSlider(cocos2d::CCObject*)
FUNC 4bbf4 17c 0 ColorValueCell::textChanged(CCTextInputNode*)
FUNC 4bd70 30 0 SignalEvent<int>::~SignalEvent()
FUNC 4bda0 8 0 {virtual override thunk({offset(-344)}, ColorValueCell::textChanged(CCTextInputNode*))}
FUNC 4bda8 1b8 0 ColorValueCell::textInputClosed(CCTextInputNode*)
FUNC 4bf60 8 0 {virtual override thunk({offset(-344)}, ColorValueCell::textInputClosed(CCTextInputNode*))}
FUNC 4bf68 12c 0 ColorValueCell::sliderBegan(Slider*)
FUNC 4c094 8 0 {virtual override thunk({offset(-348)}, ColorValueCell::sliderBegan(Slider*))}
FUNC 4c0a0 280 0 ColorValueCell::sliderEnded(Slider*)
FUNC 4c320 8 0 {virtual override thunk({offset(-348)}, ColorValueCell::sliderEnded(Slider*))}
FUNC 4c328 2d0 0 ColorValueCell::Fade(bool)
FUNC 4c5f8 e0 0 cocos2d::CCNode::getChildByType<CCTextInputNode>(int)
FUNC 4c6d8 320 0 ColorHexCell::init()
FUNC 4c9f8 158 0 ColorHexCell::textChanged(CCTextInputNode*)
FUNC 4cb50 30 0 SignalEvent<cocos2d::_ccColor3B>::~SignalEvent()
FUNC 4cb80 8 0 {virtual override thunk({offset(-344)}, ColorHexCell::textChanged(CCTextInputNode*))}
FUNC 4cb88 158 0 ColorHexCell::Fade(bool)
FUNC 4cce0 10 0 WarnCell::~WarnCell()
FUNC 4ccf0 d8 0 WarnCell::Fade(bool)
FUNC 4cdc8 8 0 {virtual override thunk({offset(-264)}, WarnCell::~WarnCell())}
FUNC 4cdd0 14 0 {virtual override thunk({offset(-264)}, WarnCell::~WarnCell())}
FUNC 4cde4 10 0 OptionTogglerCell::~OptionTogglerCell()
FUNC 4cdf4 8 0 {virtual override thunk({offset(-264)}, OptionTogglerCell::~OptionTogglerCell())}
FUNC 4cdfc 14 0 {virtual override thunk({offset(-264)}, OptionTogglerCell::~OptionTogglerCell())}
FUNC 4ce10 58 0 ItemCell::~ItemCell()
FUNC 4ce68 5c 0 ItemCell::~ItemCell()
FUNC 4cec4 5c 0 {virtual override thunk({offset(-264)}, ItemCell::~ItemCell())}
FUNC 4cf20 60 0 {virtual override thunk({offset(-264)}, ItemCell::~ItemCell())}
FUNC 4cf80 6c 0 SetupOptionCell::~SetupOptionCell()
FUNC 4cfec 70 0 SetupOptionCell::~SetupOptionCell()
FUNC 4d05c 6c 0 {virtual override thunk({offset(-264)}, SetupOptionCell::~SetupOptionCell())}
FUNC 4d0c8 70 0 {virtual override thunk({offset(-264)}, SetupOptionCell::~SetupOptionCell())}
FUNC 4d138 10 0 ColorValueCell::~ColorValueCell()
FUNC 4d148 3c 0 ColorValueCell::Val2Slider(int)
FUNC 4d184 2c 0 ColorValueCell::Slider2Val(float)
FUNC 4d1b0 8 0 {virtual override thunk({offset(-264)}, ColorValueCell::~ColorValueCell())}
FUNC 4d1b8 14 0 {virtual override thunk({offset(-264)}, ColorValueCell::~ColorValueCell())}
FUNC 4d1cc 60 0 ColorHexCell::~ColorHexCell()
FUNC 4d22c 64 0 ColorHexCell::~ColorHexCell()
FUNC 4d290 64 0 {virtual override thunk({offset(-264)}, ColorHexCell::~ColorHexCell())}
FUNC 4d2f4 68 0 {virtual override thunk({offset(-264)}, ColorHexCell::~ColorHexCell())}
FUNC 4d35c 2c 0 SignalEvent<bool>::~SignalEvent()
FUNC 4d388 10 0 geode::cocos::CallFuncExtImpl<OptionTogglerCell::Fade(bool)::$_0>::~CallFuncExtImpl()
FUNC 4d398 c 0 geode::cocos::CallFuncExtImpl<OptionTogglerCell::Fade(bool)::$_0>::update(float)
FUNC 4d3a4 10 0 PickItemButton::~PickItemButton()
FUNC 4d3b4 2 0 cocos2d::CCNodeRGBA::setOpacityModifyRGB(bool)
FUNC 4d3b6 4 0 cocos2d::CCNodeRGBA::isOpacityModifyRGB()
FUNC 4d3ba 2 0 {virtual override thunk({offset(-264)}, cocos2d::CCNodeRGBA::setOpacityModifyRGB(bool))}
FUNC 4d3bc 4 0 {virtual override thunk({offset(-264)}, cocos2d::CCNodeRGBA::isOpacityModifyRGB())}
FUNC 4d3c0 10 0 std::__ndk1::vector<PickItemButton*, std::__ndk1::allocator<PickItemButton*> >::__throw_length_error[abi:ne190000]() const
FUNC 4d3d0 4e 0 std::__ndk1::__exception_guard_exceptions<std::__ndk1::vector<std::__ndk1::vector<int, std::__ndk1::allocator<int> >, std::__ndk1::allocator<std::__ndk1::vector<int, std::__ndk1::allocator<int> > > >::__destroy_vector>::~__exception_guard_exceptions[abi:ne190000]()
FUNC 4d41e 3a 0 std::__ndk1::__exception_guard_exceptions<std::__ndk1::_AllocatorDestroyRangeReverse<std::__ndk1::allocator<std::__ndk1::vector<int, std::__ndk1::allocator<int> > >, std::__ndk1::vector<int, std::__ndk1::allocator<int> >*> >::~__exception_guard_exceptions[abi:ne190000]()
FUNC 4d458 10 0 std::__ndk1::vector<std::__ndk1::vector<int, std::__ndk1::allocator<int> >, std::__ndk1::allocator<std::__ndk1::vector<int, std::__ndk1::allocator<int> > > >::__throw_out_of_range[abi:ne190000]() const
FUNC 4d468 38 0 std::__ndk1::__throw_out_of_range[abi:ne190000](char const*)
FUNC 4d4a0 18 0 std::out_of_range::out_of_range[abi:ne190000](char const*)
FUNC 4d4b8 9c 0 SliderBundleBase::~SliderBundleBase()
FUNC 4d554 a0 0 SetupOptionLine::~SetupOptionLine()
FUNC 4d5f4 c8 0 SliderBundleBase::textChanged(CCTextInputNode*)
FUNC 4d6bc e8 0 SliderBundleBase::textInputClosed(CCTextInputNode*)
FUNC 4d7a4 cc 0 SliderBundleBase::sliderBegan(Slider*)
FUNC 4d870 108 0 SliderBundleBase::sliderEnded(Slider*)
FUNC 4d978 1bc 0 SliderBundleBase::postEvent()
FUNC 4db34 a4 0 {virtual override thunk({offset(-264)}, SetupOptionLine::~SetupOptionLine())}
FUNC 4dbd8 a8 0 {virtual override thunk({offset(-264)}, SetupOptionLine::~SetupOptionLine())}
FUNC 4dc80 8 0 {virtual override thunk({offset(-340)}, SliderBundleBase::textChanged(CCTextInputNode*))}
FUNC 4dc88 8 0 {virtual override thunk({offset(-340)}, SliderBundleBase::textInputClosed(CCTextInputNode*))}
FUNC 4dc90 8 0 {virtual override thunk({offset(-344)}, SliderBundleBase::sliderBegan(Slider*))}
FUNC 4dc98 8 0 {virtual override thunk({offset(-344)}, SliderBundleBase::sliderEnded(Slider*))}
FUNC 4dca0 a0 0 SliderBundleBase::~SliderBundleBase()
FUNC 4dd40 a4 0 {virtual override thunk({offset(-264)}, SliderBundleBase::~SliderBundleBase())}
FUNC 4dde4 a8 0 {virtual override thunk({offset(-264)}, SliderBundleBase::~SliderBundleBase())}
FUNC 4de8c c8 0 std::__ndk1::basic_string<char, std::__ndk1::char_traits<char>, std::__ndk1::allocator<char> >::__assign_external(char const*, unsigned int)
FUNC 4df54 30 0 SignalEvent<float>::~SignalEvent()
FUNC 4df84 2c 0 SignalEvent<float>::~SignalEvent()
FUNC 4dfb0 10 0 geode::cocos::CallFuncExtImpl<SetupOptionCell::refreshUI(ChromaSetup, bool)::$_0>::~CallFuncExtImpl()
FUNC 4dfc0 16 0 geode::cocos::CallFuncExtImpl<SetupOptionCell::refreshUI(ChromaSetup, bool)::$_0>::update(float)
FUNC 4dfd6 10 0 geode::cocos::CallFuncExtImpl<SetupOptionCell::refreshUI(ChromaSetup, bool)::$_1>::~CallFuncExtImpl()
FUNC 4dfe6 10 0 geode::cocos::CallFuncExtImpl<SetupOptionCell::refreshUI(ChromaSetup, bool)::$_1>::update(float)
FUNC 4dff8 2c 0 SignalEvent<int>::~SignalEvent()
FUNC 4e024 2c 0 SignalEvent<cocos2d::_ccColor3B>::~SignalEvent()
FUNC 4e050 3a 0 std::__ndk1::unique_ptr<std::__ndk1::__tree_node<std::__ndk1::__value_type<std::__ndk1::basic_string<char, std::__ndk1::char_traits<char>, std::__ndk1::allocator<char> >, bool>, void*>, std::__ndk1::__tree_node_destructor<std::__ndk1::allocator<std::__ndk1::__tree_node<std::__ndk1::__value_type<std::__ndk1::basic_string<char, std::__ndk1::char_traits<char>, std::__ndk1::allocator<char> >, bool>, void*> > > >::~unique_ptr[abi:ne190000]()
FUNC 4e08c c4 0 std::__ndk1::__tree<std::__ndk1::__value_type<std::__ndk1::basic_string<char, std::__ndk1::char_traits<char>, std::__ndk1::allocator<char> >, bool>, std::__ndk1::__map_value_compare<std::__ndk1::basic_string<char, std::__ndk1::char_traits<char>, std::__ndk1::allocator<char> >, std::__ndk1::__value_type<std::__ndk1::basic_string<char, std::__ndk1::char_traits<char>, std::__ndk1::allocator<char> >, bool>, std::__ndk1::less<std::__ndk1::basic_string<char, std::__ndk1::char_traits<char>, std::__ndk1::allocator<char> > >, true>, std::__ndk1::allocator<std::__ndk1::__value_type<std::__ndk1::basic_string<char, std::__ndk1::char_traits<char>, std::__ndk1::allocator<char> >, bool> > >::__emplace_unique_key_args<std::__ndk1::basic_string<char, std::__ndk1::char_traits<char>, std::__ndk1::allocator<char> >, std::__ndk1::piecewise_construct_t const&, std::__ndk1::tuple<std::__ndk1::basic_string<char, std::__ndk1::char_traits<char>, std::__ndk1::allocator<char> > const&>, std::__ndk1::tuple<> >(std::__ndk1::basic_string<char, std::__ndk1::char_traits<char>, std::__ndk1::allocator<char> > const&, std::__ndk1::piecewise_construct_t const&, std::__ndk1::tuple<std::__ndk1::basic_string<char, std::__ndk1::char_traits<char>, std::__ndk1::allocator<char> > const&>, std::__ndk1::tuple<>)
FUNC 4e150 98 0 __cxx_global_array_dtor.12
FUNC 4e1e8 16c 0 _GLOBAL__sub_I_mynode.cpp
FUNC 4e354 278 0 PickItemButton::init(int, bool, cocos2d::CCObject*, void (cocos2d::CCObject::*)(cocos2d::CCObject*))
FUNC 4e5cc 464 0 PickItemButton::setPlayerStatus()
FUNC 4ea30 44 0 garageIconIndex(int)
FUNC 4ea74 16 0 geode::cocos::CCArrayExt<cocos2d::CCObject*>::~CCArrayExt()
FUNC 4ea8c e0 0 cocos2d::CCNode::getChildByType<CCPartAnimSprite>(int)
FUNC 4eb6c 114 0 geode::Mod::getSavedValue<long long>(std::__ndk1::basic_string_view<char, std::__ndk1::char_traits<char> >)
FUNC 4ec80 15c 0 geode::Mod::getSavedValue<std::__ndk1::basic_string<char, std::__ndk1::char_traits<char>, std::__ndk1::allocator<char> > >(std::__ndk1::basic_string_view<char, std::__ndk1::char_traits<char> >)
FUNC 4eddc 34 0 geode::DispatchEvent<SimplePlayer*, std::__ndk1::basic_string<char, std::__ndk1::char_traits<char>, std::__ndk1::allocator<char> >, IconType>::~DispatchEvent()
FUNC 4ee10 ec 0 PickItemButton::delayFade(int, bool)
FUNC 4eefc 640 0 PickItemButton::runChroma(float const&, float const&, int const&)
FUNC 4f53c 178 0 PickItemButton::toggleChroma()
FUNC 4f6b4 3a0 0 PickItemButton::toggleChroma(bool)
FUNC 4fa54 520 0 SliderBundleBase::init(std::__ndk1::basic_string<char, std::__ndk1::char_traits<char>, std::__ndk1::allocator<char> >, char const*, float, float, float, bool, bool, float, float, float, float, float, float, float, float, float, std::__ndk1::function<float (float)>, std::__ndk1::function<float (float)>)
FUNC 4ff74 5c 0 SliderBundleBase::onSlider(cocos2d::CCObject*)
FUNC 4ffd0 c8 0 SliderBundleBase::onArrow(cocos2d::CCObject*)
FUNC 50098 2e0 0 SliderBundleBase::setVal(float, short)
FUNC 50378 60 0 std::__ndk1::basic_ostringstream<char, std::__ndk1::char_traits<char>, std::__ndk1::allocator<char> >::~basic_ostringstream()
FUNC 503d8 2a4 0 SliderBundleBase::helpFade(bool)
FUNC 5067c 238 0 SpeedSliderBundle::init()
FUNC 508b8 cc 0 SpeedSliderBundle::Fade(bool)
FUNC 50984 840 0 SetupOptionLine::init(OptionLineType, int, int)
FUNC 511c4 e8 0 SetupOptionLine::onToggle(cocos2d::CCObject*)
FUNC 512ac 94 0 SetupOptionLine::onPickColor(cocos2d::CCObject*)
FUNC 51340 bc 0 MyContentLayer::getSomething(float, float)
FUNC 51400 7b8 0 ScrollLayerPlus::Transition(bool, int)
FUNC 51bb8 a0 0 SpeedSliderBundle::~SpeedSliderBundle()
FUNC 51c58 a4 0 {virtual override thunk({offset(-264)}, SpeedSliderBundle::~SpeedSliderBundle())}
FUNC 51cfc a8 0 {virtual override thunk({offset(-264)}, SpeedSliderBundle::~SpeedSliderBundle())}
FUNC 51da4 1dc 0 geode::DispatchEvent<SimplePlayer*, std::__ndk1::basic_string<char, std::__ndk1::char_traits<char>, std::__ndk1::allocator<char> >, IconType>::getPool() const
FUNC 51f80 38 0 geode::DispatchEvent<SimplePlayer*, std::__ndk1::basic_string<char, std::__ndk1::char_traits<char>, std::__ndk1::allocator<char> >, IconType>::~DispatchEvent()
FUNC 51fb8 4dc 0 std::__ndk1::__hash_table<std::__ndk1::__hash_value_type<std::__ndk1::basic_string<char, std::__ndk1::char_traits<char>, std::__ndk1::allocator<char> >, geode::EventListenerPool*>, std::__ndk1::__unordered_map_hasher<std::__ndk1::basic_string<char, std::__ndk1::char_traits<char>, std::__ndk1::allocator<char> >, std::__ndk1::__hash_value_type<std::__ndk1::basic_string<char, std::__ndk1::char_traits<char>, std::__ndk1::allocator<char> >, geode::EventListenerPool*>, std::__ndk1::hash<std::__ndk1::basic_string<char, std::__ndk1::char_traits<char>, std::__ndk1::allocator<char> > >, std::__ndk1::equal_to<std::__ndk1::basic_string<char, std::__ndk1::char_traits<char>, std::__ndk1::allocator<char> > >, true>, std::__ndk1::__unordered_map_equal<std::__ndk1::basic_string<char, std::__ndk1::char_traits<char>, std::__ndk1::allocator<char> >, std::__ndk1::__hash_value_type<std::__ndk1::basic_string<char, std::__ndk1::char_traits<char>, std::__ndk1::allocator<char> >, geode::EventListenerPool*>, std::__ndk1::equal_to<std::__ndk1::basic_string<char, std::__ndk1::char_traits<char>, std::__ndk1::allocator<char> > >, std::__ndk1::hash<std::__ndk1::basic_string<char, std::__ndk1::char_traits<char>, std::__ndk1::allocator<char> > >, true>, std::__ndk1::allocator<std::__ndk1::__hash_value_type<std::__ndk1::basic_string<char, std::__ndk1::char_traits<char>, std::__ndk1::allocator<char> >, geode::EventListenerPool*> > >::__emplace_unique_key_args<std::__ndk1::basic_string<char, std::__ndk1::char_traits<char>, std::__ndk1::allocator<char> >, std::__ndk1::piecewise_construct_t const&, std::__ndk1::tuple<std::__ndk1::basic_string<char, std::__ndk1::char_traits<char>, std::__ndk1::allocator<char> > const&>, std::__ndk1::tuple<> >(std::__ndk1::basic_string<char, std::__ndk1::char_traits<char>, std::__ndk1::allocator<char> > const&, std::__ndk1::piecewise_construct_t const&, std::__ndk1::tuple<std::__ndk1::basic_string<char, std::__ndk1::char_traits<char>, std::__ndk1::allocator<char> > const&>, std::__ndk1::tuple<>)
FUNC 52494 3a 0 std::__ndk1::unique_ptr<std::__ndk1::__hash_node<std::__ndk1::__hash_value_type<std::__ndk1::basic_string<char, std::__ndk1::char_traits<char>, std::__ndk1::allocator<char> >, geode::EventListenerPool*>, void*>, std::__ndk1::__hash_node_destructor<std::__ndk1::allocator<std::__ndk1::__hash_node<std::__ndk1::__hash_value_type<std::__ndk1::basic_string<char, std::__ndk1::char_traits<char>, std::__ndk1::allocator<char> >, geode::EventListenerPool*>, void*> > > >::~unique_ptr[abi:ne190000]()
FUNC 524ce 10 0 geode::cocos::CallFuncExtImpl<PickItemButton::delayFade(int, bool)::$_0>::~CallFuncExtImpl()
FUNC 524e0 84 0 geode::cocos::CallFuncExtImpl<PickItemButton::delayFade(int, bool)::$_0>::update(float)
FUNC 52564 10 0 std::__ndk1::vector<float, std::__ndk1::allocator<float> >::__throw_out_of_range[abi:ne190000]() const
FUNC 52574 10 0 geode::cocos::CallFuncExtImpl<ScrollLayerPlus::Transition(bool, int)::$_0>::~CallFuncExtImpl()
FUNC 52584 38 0 geode::cocos::CallFuncExtImpl<ScrollLayerPlus::Transition(bool, int)::$_0>::update(float)
FUNC 525bc 10 0 std::__ndk1::vector<cocos2d::CCAction*, std::__ndk1::allocator<cocos2d::CCAction*> >::__throw_out_of_range[abi:ne190000]() const
FUNC 525cc 10 0 geode::cocos::CallFuncExtImpl<ScrollLayerPlus::Transition(bool, int)::$_1>::~CallFuncExtImpl()
FUNC 525dc 22 0 geode::cocos::CallFuncExtImpl<ScrollLayerPlus::Transition(bool, int)::$_1>::update(float)
FUNC 525fe 10 0 geode::cocos::CallFuncExtImpl<ScrollLayerPlus::Transition(bool, int)::$_2>::~CallFuncExtImpl()
FUNC 5260e c 0 geode::cocos::CallFuncExtImpl<ScrollLayerPlus::Transition(bool, int)::$_2>::update(float)
FUNC 5261c bc 0 matjson::Value::as<long long>() const
FUNC 526d8 cc 0 std::__ndk1::__function::__value_func<float (float)>::swap[abi:ne190000](std::__ndk1::__function::__value_func<float (float)>&)
FUNC 527a4 4 0 std::__ndk1::__function::__func<SpeedSliderBundle::init()::$_0, std::__ndk1::allocator<SpeedSliderBundle::init()::$_0>, float (float)>::~__func()
FUNC 527a8 18 0 std::__ndk1::__function::__func<SpeedSliderBundle::init()::$_0, std::__ndk1::allocator<SpeedSliderBundle::init()::$_0>, float (float)>::__clone() const
FUNC 527c0 10 0 std::__ndk1::__function::__func<SpeedSliderBundle::init()::$_0, std::__ndk1::allocator<SpeedSliderBundle::init()::$_0>, float (float)>::__clone(std::__ndk1::__function::__base<float (float)>*) const
FUNC 527d0 2 0 std::__ndk1::__function::__func<SpeedSliderBundle::init()::$_0, std::__ndk1::allocator<SpeedSliderBundle::init()::$_0>, float (float)>::destroy()
FUNC 527d2 4 0 std::__ndk1::__function::__func<SpeedSliderBundle::init()::$_0, std::__ndk1::allocator<SpeedSliderBundle::init()::$_0>, float (float)>::destroy_deallocate()
FUNC 527d6 28 0 std::__ndk1::__function::__func<SpeedSliderBundle::init()::$_0, std::__ndk1::allocator<SpeedSliderBundle::init()::$_0>, float (float)>::operator()(float&&)
FUNC 52800 18 0 std::__ndk1::__function::__func<SpeedSliderBundle::init()::$_0, std::__ndk1::allocator<SpeedSliderBundle::init()::$_0>, float (float)>::target(std::type_info const&) const
FUNC 52818 c 0 std::__ndk1::__function::__func<SpeedSliderBundle::init()::$_0, std::__ndk1::allocator<SpeedSliderBundle::init()::$_0>, float (float)>::target_type() const
FUNC 52824 4 0 std::__ndk1::__function::__func<SpeedSliderBundle::init()::$_1, std::__ndk1::allocator<SpeedSliderBundle::init()::$_1>, float (float)>::~__func()
FUNC 52828 18 0 std::__ndk1::__function::__func<SpeedSliderBundle::init()::$_1, std::__ndk1::allocator<SpeedSliderBundle::init()::$_1>, float (float)>::__clone() const
FUNC 52840 10 0 std::__ndk1::__function::__func<SpeedSliderBundle::init()::$_1, std::__ndk1::allocator<SpeedSliderBundle::init()::$_1>, float (float)>::__clone(std::__ndk1::__function::__base<float (float)>*) const
FUNC 52850 2 0 std::__ndk1::__function::__func<SpeedSliderBundle::init()::$_1, std::__ndk1::allocator<SpeedSliderBundle::init()::$_1>, float (float)>::destroy()
FUNC 52852 4 0 std::__ndk1::__function::__func<SpeedSliderBundle::init()::$_1, std::__ndk1::allocator<SpeedSliderBundle::init()::$_1>, float (float)>::destroy_deallocate()
FUNC 52856 16 0 std::__ndk1::__function::__func<SpeedSliderBundle::init()::$_1, std::__ndk1::allocator<SpeedSliderBundle::init()::$_1>, float (float)>::operator()(float&&)
FUNC 5286c 18 0 std::__ndk1::__function::__func<SpeedSliderBundle::init()::$_1, std::__ndk1::allocator<SpeedSliderBundle::init()::$_1>, float (float)>::target(std::type_info const&) const
FUNC 52884 c 0 std::__ndk1::__function::__func<SpeedSliderBundle::init()::$_1, std::__ndk1::allocator<SpeedSliderBundle::init()::$_1>, float (float)>::target_type() const
FUNC 52890 4 0 std::__ndk1::__function::__func<SetupOptionLine::init(OptionLineType, int, int)::$_0, std::__ndk1::allocator<SetupOptionLine::init(OptionLineType, int, int)::$_0>, float (float)>::~__func()
FUNC 52894 18 0 std::__ndk1::__function::__func<SetupOptionLine::init(OptionLineType, int, int)::$_0, std::__ndk1::allocator<SetupOptionLine::init(OptionLineType, int, int)::$_0>, float (float)>::__clone() const
FUNC 528ac 10 0 std::__ndk1::__function::__func<SetupOptionLine::init(OptionLineType, int, int)::$_0, std::__ndk1::allocator<SetupOptionLine::init(OptionLineType, int, int)::$_0>, float (float)>::__clone(std::__ndk1::__function::__base<float (float)>*) const
FUNC 528bc 2 0 std::__ndk1::__function::__func<SetupOptionLine::init(OptionLineType, int, int)::$_0, std::__ndk1::allocator<SetupOptionLine::init(OptionLineType, int, int)::$_0>, float (float)>::destroy()
FUNC 528be 4 0 std::__ndk1::__function::__func<SetupOptionLine::init(OptionLineType, int, int)::$_0, std::__ndk1::allocator<SetupOptionLine::init(OptionLineType, int, int)::$_0>, float (float)>::destroy_deallocate()
FUNC 528c4 18 0 std::__ndk1::__function::__func<SetupOptionLine::init(OptionLineType, int, int)::$_0, std::__ndk1::allocator<SetupOptionLine::init(OptionLineType, int, int)::$_0>, float (float)>::operator()(float&&)
FUNC 528dc 18 0 std::__ndk1::__function::__func<SetupOptionLine::init(OptionLineType, int, int)::$_0, std::__ndk1::allocator<SetupOptionLine::init(OptionLineType, int, int)::$_0>, float (float)>::target(std::type_info const&) const
FUNC 528f4 c 0 std::__ndk1::__function::__func<SetupOptionLine::init(OptionLineType, int, int)::$_0, std::__ndk1::allocator<SetupOptionLine::init(OptionLineType, int, int)::$_0>, float (float)>::target_type() const
FUNC 52900 4 0 std::__ndk1::__function::__func<SetupOptionLine::init(OptionLineType, int, int)::$_1, std::__ndk1::allocator<SetupOptionLine::init(OptionLineType, int, int)::$_1>, float (float)>::~__func()
FUNC 52904 18 0 std::__ndk1::__function::__func<SetupOptionLine::init(OptionLineType, int, int)::$_1, std::__ndk1::allocator<SetupOptionLine::init(OptionLineType, int, int)::$_1>, float (float)>::__clone() const
FUNC 5291c 10 0 std::__ndk1::__function::__func<SetupOptionLine::init(OptionLineType, int, int)::$_1, std::__ndk1::allocator<SetupOptionLine::init(OptionLineType, int, int)::$_1>, float (float)>::__clone(std::__ndk1::__function::__base<float (float)>*) const
FUNC 5292c 2 0 std::__ndk1::__function::__func<SetupOptionLine::init(OptionLineType, int, int)::$_1, std::__ndk1::allocator<SetupOptionLine::init(OptionLineType, int, int)::$_1>, float (float)>::destroy()
FUNC 5292e 4 0 std::__ndk1::__function::__func<SetupOptionLine::init(OptionLineType, int, int)::$_1, std::__ndk1::allocator<SetupOptionLine::init(OptionLineType, int, int)::$_1>, float (float)>::destroy_deallocate()
FUNC 52934 18 0 std::__ndk1::__function::__func<SetupOptionLine::init(OptionLineType, int, int)::$_1, std::__ndk1::allocator<SetupOptionLine::init(OptionLineType, int, int)::$_1>, float (float)>::operator()(float&&)
FUNC 5294c 18 0 std::__ndk1::__function::__func<SetupOptionLine::init(OptionLineType, int, int)::$_1, std::__ndk1::allocator<SetupOptionLine::init(OptionLineType, int, int)::$_1>, float (float)>::target(std::type_info const&) const
FUNC 52964 c 0 std::__ndk1::__function::__func<SetupOptionLine::init(OptionLineType, int, int)::$_1, std::__ndk1::allocator<SetupOptionLine::init(OptionLineType, int, int)::$_1>, float (float)>::target_type() const
FUNC 52970 4 0 std::__ndk1::__function::__func<SetupOptionLine::init(OptionLineType, int, int)::$_2, std::__ndk1::allocator<SetupOptionLine::init(OptionLineType, int, int)::$_2>, float (float)>::~__func()
FUNC 52974 18 0 std::__ndk1::__function::__func<SetupOptionLine::init(OptionLineType, int, int)::$_2, std::__ndk1::allocator<SetupOptionLine::init(OptionLineType, int, int)::$_2>, float (float)>::__clone() const
FUNC 5298c 10 0 std::__ndk1::__function::__func<SetupOptionLine::init(OptionLineType, int, int)::$_2, std::__ndk1::allocator<SetupOptionLine::init(OptionLineType, int, int)::$_2>, float (float)>::__clone(std::__ndk1::__function::__base<float (float)>*) const
FUNC 5299c 2 0 std::__ndk1::__function::__func<SetupOptionLine::init(OptionLineType, int, int)::$_2, std::__ndk1::allocator<SetupOptionLine::init(OptionLineType, int, int)::$_2>, float (float)>::destroy()
FUNC 5299e 4 0 std::__ndk1::__function::__func<SetupOptionLine::init(OptionLineType, int, int)::$_2, std::__ndk1::allocator<SetupOptionLine::init(OptionLineType, int, int)::$_2>, float (float)>::destroy_deallocate()
FUNC 529a4 18 0 std::__ndk1::__function::__func<SetupOptionLine::init(OptionLineType, int, int)::$_2, std::__ndk1::allocator<SetupOptionLine::init(OptionLineType, int, int)::$_2>, float (float)>::operator()(float&&)
FUNC 529bc 18 0 std::__ndk1::__function::__func<SetupOptionLine::init(OptionLineType, int, int)::$_2, std::__ndk1::allocator<SetupOptionLine::init(OptionLineType, int, int)::$_2>, float (float)>::target(std::type_info const&) const
FUNC 529d4 c 0 std::__ndk1::__function::__func<SetupOptionLine::init(OptionLineType, int, int)::$_2, std::__ndk1::allocator<SetupOptionLine::init(OptionLineType, int, int)::$_2>, float (float)>::target_type() const
FUNC 529e0 2 0 std::__ndk1::__function::__base<float (float)>::~__base()
FUNC 529e2 4 0 std::__ndk1::__function::__func<SetupOptionLine::init(OptionLineType, int, int)::$_3, std::__ndk1::allocator<SetupOptionLine::init(OptionLineType, int, int)::$_3>, float (float)>::~__func()
FUNC 529e8 18 0 std::__ndk1::__function::__func<SetupOptionLine::init(OptionLineType, int, int)::$_3, std::__ndk1::allocator<SetupOptionLine::init(OptionLineType, int, int)::$_3>, float (float)>::__clone() const
FUNC 52a00 10 0 std::__ndk1::__function::__func<SetupOptionLine::init(OptionLineType, int, int)::$_3, std::__ndk1::allocator<SetupOptionLine::init(OptionLineType, int, int)::$_3>, float (float)>::__clone(std::__ndk1::__function::__base<float (float)>*) const
FUNC 52a10 2 0 std::__ndk1::__function::__func<SetupOptionLine::init(OptionLineType, int, int)::$_3, std::__ndk1::allocator<SetupOptionLine::init(OptionLineType, int, int)::$_3>, float (float)>::destroy()
FUNC 52a12 4 0 std::__ndk1::__function::__func<SetupOptionLine::init(OptionLineType, int, int)::$_3, std::__ndk1::allocator<SetupOptionLine::init(OptionLineType, int, int)::$_3>, float (float)>::destroy_deallocate()
FUNC 52a18 18 0 std::__ndk1::__function::__func<SetupOptionLine::init(OptionLineType, int, int)::$_3, std::__ndk1::allocator<SetupOptionLine::init(OptionLineType, int, int)::$_3>, float (float)>::operator()(float&&)
FUNC 52a30 18 0 std::__ndk1::__function::__func<SetupOptionLine::init(OptionLineType, int, int)::$_3, std::__ndk1::allocator<SetupOptionLine::init(OptionLineType, int, int)::$_3>, float (float)>::target(std::type_info const&) const
FUNC 52a48 c 0 std::__ndk1::__function::__func<SetupOptionLine::init(OptionLineType, int, int)::$_3, std::__ndk1::allocator<SetupOptionLine::init(OptionLineType, int, int)::$_3>, float (float)>::target_type() const
FUNC 52a54 98 0 __cxx_global_array_dtor.12
FUNC 52aec 1b0 0 _GLOBAL__sub_I_utility.cpp
FUNC 52c9c 10 0 std::__ndk1::map<std::__ndk1::basic_string<char, std::__ndk1::char_traits<char>, std::__ndk1::allocator<char> >, bool, std::__ndk1::less<std::__ndk1::basic_string<char, std::__ndk1::char_traits<char>, std::__ndk1::allocator<char> > >, std::__ndk1::allocator<std::__ndk1::pair<std::__ndk1::basic_string<char, std::__ndk1::char_traits<char>, std::__ndk1::allocator<char> > const, bool> > >::~map[abi:ne190000]()
FUNC 52cac 10 0 std::__ndk1::map<short, ChromaSetup, std::__ndk1::less<short>, std::__ndk1::allocator<std::__ndk1::pair<short const, ChromaSetup> > >::~map[abi:ne190000]()
FUNC 52cc0 188 0 fade(cocos2d::CCNode*, bool, float, float, float, int)
FUNC 52e48 188 0 fade(cocos2d::CCMenuItem*, bool, float, float, float, int)
FUNC 52fd0 47c 0 MapfromJson(matjson::Value const&, int, int)
FUNC 5344c c0 0 std::__ndk1::map<int, cocos2d::_ccColor3B, std::__ndk1::less<int>, std::__ndk1::allocator<std::__ndk1::pair<int const, cocos2d::_ccColor3B> > >::map[abi:ne190000](std::initializer_list<std::__ndk1::pair<int const, cocos2d::_ccColor3B> >, std::__ndk1::less<int> const&)
FUNC 5350c 110 0 MaptoJson(std::__ndk1::map<int, cocos2d::_ccColor3B, std::__ndk1::less<int>, std::__ndk1::allocator<std::__ndk1::pair<int const, cocos2d::_ccColor3B> > > const&)
FUNC 5361c 194 0 GJItemEffect::createEffectItem(int)
FUNC 537b0 6fc 0 getChroma(ChromaSetup const&, cocos2d::_ccColor3B const&, float, float, int)
FUNC 53eac 10 0 geode::cocos::CallFuncExtImpl<fade(cocos2d::CCNode*, bool, float, float, float, int)::$_0>::~CallFuncExtImpl()
FUNC 53ebc 10 0 geode::cocos::CallFuncExtImpl<fade(cocos2d::CCNode*, bool, float, float, float, int)::$_0>::update(float)
FUNC 53ecc 10 0 geode::cocos::CallFuncExtImpl<fade(cocos2d::CCMenuItem*, bool, float, float, float, int)::$_0>::~CallFuncExtImpl()
FUNC 53edc c 0 geode::cocos::CallFuncExtImpl<fade(cocos2d::CCMenuItem*, bool, float, float, float, int)::$_0>::update(float)
FUNC 53ee8 10 0 GJItemEffect::~GJItemEffect()
FUNC 53ef8 6 0 cocos2d::CCSprite::setBlendFunc(cocos2d::_ccBlendFunc)
FUNC 53efe a 0 cocos2d::CCSprite::getBlendFunc()
FUNC 53f08 6 0 cocos2d::CCSprite::isDirty()
FUNC 53f0e 6 0 cocos2d::CCSprite::setDirty(bool)
FUNC 53f14 6 0 {virtual override thunk({offset(-280)}, cocos2d::CCSprite::setBlendFunc(cocos2d::_ccBlendFunc))}
FUNC 53f1a a 0 {virtual override thunk({offset(-280)}, cocos2d::CCSprite::getBlendFunc())}
FUNC 53f24 32 0 std::__ndk1::__tree<std::__ndk1::__value_type<std::__ndk1::basic_string<char, std::__ndk1::char_traits<char>, std::__ndk1::allocator<char> >, bool>, std::__ndk1::__map_value_compare<std::__ndk1::basic_string<char, std::__ndk1::char_traits<char>, std::__ndk1::allocator<char> >, std::__ndk1::__value_type<std::__ndk1::basic_string<char, std::__ndk1::char_traits<char>, std::__ndk1::allocator<char> >, bool>, std::__ndk1::less<std::__ndk1::basic_string<char, std::__ndk1::char_traits<char>, std::__ndk1::allocator<char> > >, true>, std::__ndk1::allocator<std::__ndk1::__value_type<std::__ndk1::basic_string<char, std::__ndk1::char_traits<char>, std::__ndk1::allocator<char> >, bool> > >::destroy(std::__ndk1::__tree_node<std::__ndk1::__value_type<std::__ndk1::basic_string<char, std::__ndk1::char_traits<char>, std::__ndk1::allocator<char> >, bool>, void*>*)
FUNC 53f56 38 0 std::__ndk1::__tree<std::__ndk1::__value_type<short, ChromaSetup>, std::__ndk1::__map_value_compare<short, std::__ndk1::__value_type<short, ChromaSetup>, std::__ndk1::less<short>, true>, std::__ndk1::allocator<std::__ndk1::__value_type<short, ChromaSetup> > >::destroy(std::__ndk1::__tree_node<std::__ndk1::__value_type<short, ChromaSetup>, void*>*)
FUNC 53f90 98 0 __cxx_global_array_dtor
FUNC 54028 98 0 __cxx_global_array_dtor.12
FUNC 540c0 220 0 _GLOBAL__sub_I_main.cpp
FUNC 542e0 128c 0 geodeExecFunction656<(anonymous namespace)::ExecFuncUnique656>(geode::ModStateEvent*)
FUNC 5556c 2ec 0 __cxx_global_var_init.14
FUNC 55858 20 0 geode::modifier::ModifyBase<geode::modifier::ModifyDerive<IconLayer, GJGarageLayer> >::~ModifyBase()
FUNC 55878 2ec 0 __cxx_global_var_init.15
FUNC 55b64 20 0 geode::modifier::ModifyBase<geode::modifier::ModifyDerive<PoseLayer, PauseLayer> >::~ModifyBase()
FUNC 55b84 2ec 0 __cxx_global_var_init.16
FUNC 55e70 20 0 geode::modifier::ModifyBase<geode::modifier::ModifyDerive<EditorMenu, EditorUI> >::~ModifyBase()
FUNC 55e90 2ec 0 __cxx_global_var_init.17
FUNC 5617c 20 0 geode::modifier::ModifyBase<geode::modifier::ModifyDerive<MyBaseGameLayer, GJBaseGameLayer> >::~ModifyBase()
FUNC 5619c 2ec 0 __cxx_global_var_init.18
FUNC 56488 20 0 geode::modifier::ModifyBase<geode::modifier::ModifyDerive<GameLayer, PlayLayer> >::~ModifyBase()
FUNC 564a8 2ec 0 __cxx_global_var_init.19
FUNC 56794 20 0 geode::modifier::ModifyBase<geode::modifier::ModifyDerive<NivelEditorLayer, LevelEditorLayer> >::~ModifyBase()
FUNC 567b4 2ec 0 __cxx_global_var_init.20
FUNC 56aa0 20 0 geode::modifier::ModifyBase<geode::modifier::ModifyDerive<MainGameLayer, MenuGameLayer> >::~ModifyBase()
FUNC 56ac0 2ec 0 __cxx_global_var_init.21
FUNC 56dac 20 0 geode::modifier::ModifyBase<geode::modifier::ModifyDerive<OptionalGhostTrail, GhostTrailEffect> >::~ModifyBase()
FUNC 56dcc 2ec 0 __cxx_global_var_init.22
FUNC 570b8 20 0 geode::modifier::ModifyBase<geode::modifier::ModifyDerive<ChromaPlayer, PlayerObject> >::~ModifyBase()
FUNC 570d8 2bc 0 geode::modifier::ModifyDerive<IconLayer, GJGarageLayer>::apply()
FUNC 57394 2 0 geode::modifier::ModifyBase<geode::modifier::ModifyDerive<IconLayer, GJGarageLayer> >::apply()
FUNC 57398 7c 0 geode::addresser::getVirtual<bool (GJGarageLayer::*)()>(bool (GJGarageLayer::*)())
FUNC 57414 18c 0 geode::modifier::AsStaticFunction_init<IconLayer, bool (IconLayer::*)()>::Impl<bool (IconLayer::*)()>::function(IconLayer*)
FUNC 575a0 a4 0 GJGarageLayer::GJGarageLayer(geode::ZeroConstructorType)
FUNC 57644 17c 0 geode::stl::_rb_insert_rebalance(bool, geode::stl::_rb_tree_base*, geode::stl::_rb_tree_base*, geode::stl::_rb_tree_base&)
FUNC 577c0 10 0 std::__ndk1::vector<tulip::hook::AbstractType, std::__ndk1::allocator<tulip::hook::AbstractType> >::__throw_length_error[abi:ne190000]() const
FUNC 577d0 14 0 IconLayer::onChromaMenu(cocos2d::CCObject*)
FUNC 577f0 644 0 ChromaLayer::create()
FUNC 57e34 1c 0 std::__ndk1::pair<bool, ChromaSetup>::~pair()
FUNC 57e50 2 0 std::__ndk1::__function::__base<geode::ListenerResult(SignalEvent<bool>*)>::~__base()
FUNC 57e52 4 0 std::__ndk1::__function::__func<ChromaLayer::listenerBool::{lambda(SignalEvent<bool>*)#1}, std::__ndk1::allocator<ChromaLayer::listenerBool::{lambda(SignalEvent<bool>*)#1}>, geode::ListenerResult(SignalEvent<bool>*)>::~__func()
FUNC 57e58 20 0 std::__ndk1::__function::__func<ChromaLayer::listenerBool::{lambda(SignalEvent<bool>*)#1}, std::__ndk1::allocator<ChromaLayer::listenerBool::{lambda(SignalEvent<bool>*)#1}>, geode::ListenerResult(SignalEvent<bool>*)>::__clone() const
FUNC 57e78 14 0 std::__ndk1::__function::__func<ChromaLayer::listenerBool::{lambda(SignalEvent<bool>*)#1}, std::__ndk1::allocator<ChromaLayer::listenerBool::{lambda(SignalEvent<bool>*)#1}>, geode::ListenerResult(SignalEvent<bool>*)>::__clone(std::__ndk1::__function::__base<geode::ListenerResult(SignalEvent<bool>*)>*) const
FUNC 57e8c 2 0 std::__ndk1::__function::__func<ChromaLayer::listenerBool::{lambda(SignalEvent<bool>*)#1}, std::__ndk1::allocator<ChromaLayer::listenerBool::{lambda(SignalEvent<bool>*)#1}>, geode::ListenerResult(SignalEvent<bool>*)>::destroy()
FUNC 57e8e 4 0 std::__ndk1::__function::__func<ChromaLayer::listenerBool::{lambda(SignalEvent<bool>*)#1}, std::__ndk1::allocator<ChromaLayer::listenerBool::{lambda(SignalEvent<bool>*)#1}>, geode::ListenerResult(SignalEvent<bool>*)>::destroy_deallocate()
FUNC 57e92 8 0 std::__ndk1::__function::__func<ChromaLayer::listenerBool::{lambda(SignalEvent<bool>*)#1}, std::__ndk1::allocator<ChromaLayer::listenerBool::{lambda(SignalEvent<bool>*)#1}>, geode::ListenerResult(SignalEvent<bool>*)>::operator()(SignalEvent<bool>*&&)
FUNC 57e9c 18 0 std::__ndk1::__function::__func<ChromaLayer::listenerBool::{lambda(SignalEvent<bool>*)#1}, std::__ndk1::allocator<ChromaLayer::listenerBool::{lambda(SignalEvent<bool>*)#1}>, geode::ListenerResult(SignalEvent<bool>*)>::target(std::type_info const&) const
FUNC 57eb4 c 0 std::__ndk1::__function::__func<ChromaLayer::listenerBool::{lambda(SignalEvent<bool>*)#1}, std::__ndk1::allocator<ChromaLayer::listenerBool::{lambda(SignalEvent<bool>*)#1}>, geode::ListenerResult(SignalEvent<bool>*)>::target_type() const
FUNC 57ec0 2 0 std::__ndk1::__function::__base<geode::ListenerResult(SignalEvent<int>*)>::~__base()
FUNC 57ec2 4 0 std::__ndk1::__function::__func<ChromaLayer::listenerInt::{lambda(SignalEvent<int>*)#1}, std::__ndk1::allocator<ChromaLayer::listenerInt::{lambda(SignalEvent<int>*)#1}>, geode::ListenerResult(SignalEvent<int>*)>::~__func()
FUNC 57ec8 20 0 std::__ndk1::__function::__func<ChromaLayer::listenerInt::{lambda(SignalEvent<int>*)#1}, std::__ndk1::allocator<ChromaLayer::listenerInt::{lambda(SignalEvent<int>*)#1}>, geode::ListenerResult(SignalEvent<int>*)>::__clone() const
FUNC 57ee8 14 0 std::__ndk1::__function::__func<ChromaLayer::listenerInt::{lambda(SignalEvent<int>*)#1}, std::__ndk1::allocator<ChromaLayer::listenerInt::{lambda(SignalEvent<int>*)#1}>, geode::ListenerResult(SignalEvent<int>*)>::__clone(std::__ndk1::__function::__base<geode::ListenerResult(SignalEvent<int>*)>*) const
FUNC 57efc 2 0 std::__ndk1::__function::__func<ChromaLayer::listenerInt::{lambda(SignalEvent<int>*)#1}, std::__ndk1::allocator<ChromaLayer::listenerInt::{lambda(SignalEvent<int>*)#1}>, geode::ListenerResult(SignalEvent<int>*)>::destroy()
FUNC 57efe 4 0 std::__ndk1::__function::__func<ChromaLayer::listenerInt::{lambda(SignalEvent<int>*)#1}, std::__ndk1::allocator<ChromaLayer::listenerInt::{lambda(SignalEvent<int>*)#1}>, geode::ListenerResult(SignalEvent<int>*)>::destroy_deallocate()
FUNC 57f02 8 0 std::__ndk1::__function::__func<ChromaLayer::listenerInt::{lambda(SignalEvent<int>*)#1}, std::__ndk1::allocator<ChromaLayer::listenerInt::{lambda(SignalEvent<int>*)#1}>, geode::ListenerResult(SignalEvent<int>*)>::operator()(SignalEvent<int>*&&)
FUNC 57f0c 18 0 std::__ndk1::__function::__func<ChromaLayer::listenerInt::{lambda(SignalEvent<int>*)#1}, std::__ndk1::allocator<ChromaLayer::listenerInt::{lambda(SignalEvent<int>*)#1}>, geode::ListenerResult(SignalEvent<int>*)>::target(std::type_info const&) const
FUNC 57f24 c 0 std::__ndk1::__function::__func<ChromaLayer::listenerInt::{lambda(SignalEvent<int>*)#1}, std::__ndk1::allocator<ChromaLayer::listenerInt::{lambda(SignalEvent<int>*)#1}>, geode::ListenerResult(SignalEvent<int>*)>::target_type() const
FUNC 57f30 2 0 std::__ndk1::__function::__base<geode::ListenerResult(SignalEvent<float>*)>::~__base()
FUNC 57f32 4 0 std::__ndk1::__function::__func<ChromaLayer::listenerFloat::{lambda(SignalEvent<float>*)#1}, std::__ndk1::allocator<ChromaLayer::listenerFloat::{lambda(SignalEvent<float>*)#1}>, geode::ListenerResult(SignalEvent<float>*)>::~__func()
FUNC 57f38 20 0 std::__ndk1::__function::__func<ChromaLayer::listenerFloat::{lambda(SignalEvent<float>*)#1}, std::__ndk1::allocator<ChromaLayer::listenerFloat::{lambda(SignalEvent<float>*)#1}>, geode::ListenerResult(SignalEvent<float>*)>::__clone() const
FUNC 57f58 14 0 std::__ndk1::__function::__func<ChromaLayer::listenerFloat::{lambda(SignalEvent<float>*)#1}, std::__ndk1::allocator<ChromaLayer::listenerFloat::{lambda(SignalEvent<float>*)#1}>, geode::ListenerResult(SignalEvent<float>*)>::__clone(std::__ndk1::__function::__base<geode::ListenerResult(SignalEvent<float>*)>*) const
FUNC 57f6c 2 0 std::__ndk1::__function::__func<ChromaLayer::listenerFloat::{lambda(SignalEvent<float>*)#1}, std::__ndk1::allocator<ChromaLayer::listenerFloat::{lambda(SignalEvent<float>*)#1}>, geode::ListenerResult(SignalEvent<float>*)>::destroy()
FUNC 57f6e 4 0 std::__ndk1::__function::__func<ChromaLayer::listenerFloat::{lambda(SignalEvent<float>*)#1}, std::__ndk1::allocator<ChromaLayer::listenerFloat::{lambda(SignalEvent<float>*)#1}>, geode::ListenerResult(SignalEvent<float>*)>::destroy_deallocate()
FUNC 57f72 8 0 std::__ndk1::__function::__func<ChromaLayer::listenerFloat::{lambda(SignalEvent<float>*)#1}, std::__ndk1::allocator<ChromaLayer::listenerFloat::{lambda(SignalEvent<float>*)#1}>, geode::ListenerResult(SignalEvent<float>*)>::operator()(SignalEvent<float>*&&)
FUNC 57f7c 18 0 std::__ndk1::__function::__func<ChromaLayer::listenerFloat::{lambda(SignalEvent<float>*)#1}, std::__ndk1::allocator<ChromaLayer::listenerFloat::{lambda(SignalEvent<float>*)#1}>, geode::ListenerResult(SignalEvent<float>*)>::target(std::type_info const&) const
FUNC 57f94 c 0 std::__ndk1::__function::__func<ChromaLayer::listenerFloat::{lambda(SignalEvent<float>*)#1}, std::__ndk1::allocator<ChromaLayer::listenerFloat::{lambda(SignalEvent<float>*)#1}>, geode::ListenerResult(SignalEvent<float>*)>::target_type() const
FUNC 57fa0 2 0 std::__ndk1::__function::__base<geode::ListenerResult(SignalEvent<cocos2d::_ccColor3B>*)>::~__base()
FUNC 57fa2 4 0 std::__ndk1::__function::__func<ChromaLayer::listenerColor::{lambda(SignalEvent<cocos2d::_ccColor3B>*)#1}, std::__ndk1::allocator<ChromaLayer::listenerColor::{lambda(SignalEvent<cocos2d::_ccColor3B>*)#1}>, geode::ListenerResult(SignalEvent<cocos2d::_ccColor3B>*)>::~__func()
FUNC 57fa8 20 0 std::__ndk1::__function::__func<ChromaLayer::listenerColor::{lambda(SignalEvent<cocos2d::_ccColor3B>*)#1}, std::__ndk1::allocator<ChromaLayer::listenerColor::{lambda(SignalEvent<cocos2d::_ccColor3B>*)#1}>, geode::ListenerResult(SignalEvent<cocos2d::_ccColor3B>*)>::__clone() const
FUNC 57fc8 14 0 std::__ndk1::__function::__func<ChromaLayer::listenerColor::{lambda(SignalEvent<cocos2d::_ccColor3B>*)#1}, std::__ndk1::allocator<ChromaLayer::listenerColor::{lambda(SignalEvent<cocos2d::_ccColor3B>*)#1}>, geode::ListenerResult(SignalEvent<cocos2d::_ccColor3B>*)>::__clone(std::__ndk1::__function::__base<geode::ListenerResult(SignalEvent<cocos2d::_ccColor3B>*)>*) const
FUNC 57fdc 2 0 std::__ndk1::__function::__func<ChromaLayer::listenerColor::{lambda(SignalEvent<cocos2d::_ccColor3B>*)#1}, std::__ndk1::allocator<ChromaLayer::listenerColor::{lambda(SignalEvent<cocos2d::_ccColor3B>*)#1}>, geode::ListenerResult(SignalEvent<cocos2d::_ccColor3B>*)>::destroy()
FUNC 57fde 4 0 std::__ndk1::__function::__func<ChromaLayer::listenerColor::{lambda(SignalEvent<cocos2d::_ccColor3B>*)#1}, std::__ndk1::allocator<ChromaLayer::listenerColor::{lambda(SignalEvent<cocos2d::_ccColor3B>*)#1}>, geode::ListenerResult(SignalEvent<cocos2d::_ccColor3B>*)>::destroy_deallocate()
FUNC 57fe2 8 0 std::__ndk1::__function::__func<ChromaLayer::listenerColor::{lambda(SignalEvent<cocos2d::_ccColor3B>*)#1}, std::__ndk1::allocator<ChromaLayer::listenerColor::{lambda(SignalEvent<cocos2d::_ccColor3B>*)#1}>, geode::ListenerResult(SignalEvent<cocos2d::_ccColor3B>*)>::operator()(SignalEvent<cocos2d::_ccColor3B>*&&)
FUNC 57fec 18 0 std::__ndk1::__function::__func<ChromaLayer::listenerColor::{lambda(SignalEvent<cocos2d::_ccColor3B>*)#1}, std::__ndk1::allocator<ChromaLayer::listenerColor::{lambda(SignalEvent<cocos2d::_ccColor3B>*)#1}>, geode::ListenerResult(SignalEvent<cocos2d::_ccColor3B>*)>::target(std::type_info const&) const
FUNC 58004 c 0 std::__ndk1::__function::__func<ChromaLayer::listenerColor::{lambda(SignalEvent<cocos2d::_ccColor3B>*)#1}, std::__ndk1::allocator<ChromaLayer::listenerColor::{lambda(SignalEvent<cocos2d::_ccColor3B>*)#1}>, geode::ListenerResult(SignalEvent<cocos2d::_ccColor3B>*)>::target_type() const
FUNC 58010 2bc 0 geode::modifier::ModifyDerive<PoseLayer, PauseLayer>::apply()
FUNC 582cc 2 0 geode::modifier::ModifyBase<geode::modifier::ModifyDerive<PoseLayer, PauseLayer> >::apply()
FUNC 582d0 7c 0 geode::addresser::getVirtual<void (PauseLayer::*)()>(void (PauseLayer::*)())
FUNC 5834c 104 0 geode::modifier::AsStaticFunction_customSetup<PoseLayer, void (PoseLayer::*)()>::Impl<void (PoseLayer::*)()>::function(PoseLayer*)
FUNC 58450 78 0 PauseLayer::PauseLayer(geode::ZeroConstructorType)
FUNC 584c8 14 0 PoseLayer::onChromaMenu(cocos2d::CCObject*)
FUNC 584e0 570 0 geode::modifier::ModifyDerive<EditorMenu, EditorUI>::apply()
FUNC 58a50 2 0 geode::modifier::ModifyBase<geode::modifier::ModifyDerive<EditorMenu, EditorUI> >::apply()
FUNC 58a54 1e0 0 geode::modifier::AsStaticFunction_init<EditorMenu, bool (EditorMenu::*)(LevelEditorLayer*)>::Impl<bool (EditorMenu::*)(LevelEditorLayer*)>::function(EditorMenu*, LevelEditorLayer*)
FUNC 58c34 32 0 geode::modifier::AsStaticFunction_showUI<EditorMenu, void (EditorMenu::*)(bool)>::Impl<void (EditorMenu::*)(bool)>::function(EditorMenu*, bool)
FUNC 58c66 14 0 EditorMenu::onChromaMenu(cocos2d::CCObject*)
FUNC 58c7c 114 0 geode::modifier::FieldIntermediate<EditorMenu, EditorUI>::self()
FUNC 58d90 288 0 geode::modifier::FieldContainer::getField(unsigned int)
FUNC 59018 a6 0 geode::modifier::FieldContainer::setField(unsigned int, unsigned int, std::__ndk1::function<void (void*)>)
FUNC 590be 2 0 geode::modifier::FieldIntermediate<EditorMenu, EditorUI>::fieldDestructor(void*)
FUNC 590c0 10 0 std::__ndk1::vector<void*, std::__ndk1::allocator<void*> >::__throw_length_error[abi:ne190000]() const
FUNC 590d0 10 0 std::__ndk1::vector<std::__ndk1::function<void (void*)>, std::__ndk1::allocator<std::__ndk1::function<void (void*)> > >::__throw_length_error[abi:ne190000]() const
FUNC 590e0 10 0 std::__ndk1::vector<void*, std::__ndk1::allocator<void*> >::__throw_out_of_range[abi:ne190000]() const
FUNC 590f0 10 0 std::__ndk1::vector<std::__ndk1::function<void (void*)>, std::__ndk1::allocator<std::__ndk1::function<void (void*)> > >::__throw_out_of_range[abi:ne190000]() const
FUNC 59100 2 0 std::__ndk1::__function::__base<void (void*)>::~__base()
FUNC 59102 4 0 std::__ndk1::__function::__func<void (*)(void*), std::__ndk1::allocator<void (*)(void*)>, void (void*)>::~__func()
FUNC 59108 20 0 std::__ndk1::__function::__func<void (*)(void*), std::__ndk1::allocator<void (*)(void*)>, void (void*)>::__clone() const
FUNC 59128 14 0 std::__ndk1::__function::__func<void (*)(void*), std::__ndk1::allocator<void (*)(void*)>, void (void*)>::__clone(std::__ndk1::__function::__base<void (void*)>*) const
FUNC 5913c 2 0 std::__ndk1::__function::__func<void (*)(void*), std::__ndk1::allocator<void (*)(void*)>, void (void*)>::destroy()
FUNC 5913e 4 0 std::__ndk1::__function::__func<void (*)(void*), std::__ndk1::allocator<void (*)(void*)>, void (void*)>::destroy_deallocate()
FUNC 59142 8 0 std::__ndk1::__function::__func<void (*)(void*), std::__ndk1::allocator<void (*)(void*)>, void (void*)>::operator()(void*&&)
FUNC 5914c 18 0 std::__ndk1::__function::__func<void (*)(void*), std::__ndk1::allocator<void (*)(void*)>, void (void*)>::target(std::type_info const&) const
FUNC 59164 c 0 std::__ndk1::__function::__func<void (*)(void*), std::__ndk1::allocator<void (*)(void*)>, void (void*)>::target_type() const
FUNC 59170 58c 0 geode::modifier::ModifyDerive<MyBaseGameLayer, GJBaseGameLayer>::apply()
FUNC 596fc 2 0 geode::modifier::ModifyBase<geode::modifier::ModifyDerive<MyBaseGameLayer, GJBaseGameLayer> >::apply()
FUNC 59700 84 0 geode::addresser::getVirtual<void (GJBaseGameLayer::*)(GameObject*, float)>(void (GJBaseGameLayer::*)(GameObject*, float))
FUNC 59784 18 0 geode::modifier::AsStaticFunction_updateTimeWarp<MyBaseGameLayer, void (MyBaseGameLayer::*)(GameObject*, float)>::Impl<void (MyBaseGameLayer::*)(GameObject*, float)>::function(MyBaseGameLayer*, GameObject*, float)
FUNC 5979c 18 0 geode::modifier::AsStaticFunction_resetPlayer<MyBaseGameLayer, void (MyBaseGameLayer::*)()>::Impl<void (MyBaseGameLayer::*)()>::function(MyBaseGameLayer*)
FUNC 597b4 556 0 GJBaseGameLayer::GJBaseGameLayer(geode::ZeroConstructorType)
FUNC 59d0c 3d8 0 GJGameState::GJGameState()
FUNC 5a0e4 3a 0 geode::stl::unordered_map<int, int, geode::stl::hash<int>, geode::stl::equal_to<int>, std::__ndk1::allocator<std::__ndk1::pair<int const, int> > >::~unordered_map()
FUNC 5a11e 3a 0 geode::stl::unordered_set<int, geode::stl::hash<int>, geode::stl::equal_to<int>, std::__ndk1::allocator<int> >::~unordered_set()
FUNC 5a158 4c 0 geode::stl::unordered_map<int, gd::string, geode::stl::hash<int>, geode::stl::equal_to<int>, std::__ndk1::allocator<std::__ndk1::pair<int const, gd::string> > >::~unordered_map()
FUNC 5a1a4 14 0 gd::map<std::__ndk1::pair<int, int>, int>::~map()
FUNC 5a1b8 4e 0 geode::stl::unordered_map<int, gd::vector<LabelGameObject*>, geode::stl::hash<int>, geode::stl::equal_to<int>, std::__ndk1::allocator<std::__ndk1::pair<int const, gd::vector<LabelGameObject*> > > >::~unordered_map()
FUNC 5a206 3a 0 geode::stl::unordered_map<int, std::__ndk1::pair<int, int>, geode::stl::hash<int>, geode::stl::equal_to<int>, std::__ndk1::allocator<std::__ndk1::pair<int const, std::__ndk1::pair<int, int> > > >::~unordered_map()
FUNC 5a240 4e 0 geode::stl::unordered_map<int, gd::vector<GameObject*>, geode::stl::hash<int>, geode::stl::equal_to<int>, std::__ndk1::allocator<std::__ndk1::pair<int const, gd::vector<GameObject*> > > >::~unordered_map()
FUNC 5a28e 3a 0 geode::stl::unordered_map<int, cocos2d::CCPoint, geode::stl::hash<int>, geode::stl::equal_to<int>, std::__ndk1::allocator<std::__ndk1::pair<int const, cocos2d::CCPoint> > >::~unordered_map()
FUNC 5a2c8 9a 0 gd::vector<geode::stl::unordered_map<int, int, geode::stl::hash<int>, geode::stl::equal_to<int>, std::__ndk1::allocator<std::__ndk1::pair<int const, int> > > >::~vector()
FUNC 5a362 33a 0 GJGameState::~GJGameState()
FUNC 5a69c 3a 0 geode::stl::unordered_map<int, SongChannelState, geode::stl::hash<int>, geode::stl::equal_to<int>, std::__ndk1::allocator<std::__ndk1::pair<int const, SongChannelState> > >::~unordered_map()
FUNC 5a6d6 14 0 gd::map<std::__ndk1::pair<int, int>, SFXTriggerInstance>::~map()
FUNC 5a6ea 50 0 geode::stl::unordered_map<int, std::__ndk1::vector<int, std::__ndk1::allocator<int> >, geode::stl::hash<int>, geode::stl::equal_to<int>, std::__ndk1::allocator<std::__ndk1::pair<int const, std::__ndk1::vector<int, std::__ndk1::allocator<int> > > > >::~unordered_map()
FUNC 5a73a 5c 0 gd::vector<EnterEffectInstance>::~vector()
FUNC 5a796 34 0 geode::stl::unordered_map<int, std::__ndk1::vector<EnterEffectInstance, std::__ndk1::allocator<EnterEffectInstance> >, geode::stl::hash<int>, geode::stl::equal_to<int>, std::__ndk1::allocator<std::__ndk1::pair<int const, std::__ndk1::vector<EnterEffectInstance, std::__ndk1::allocator<EnterEffectInstance> > > > >::~unordered_map()
FUNC 5a7ca 14 0 gd::map<std::__ndk1::pair<GJGameEvent, int>, int>::~map()
FUNC 5a7de 14 0 gd::map<std::__ndk1::pair<GJGameEvent, int>, gd::vector<EventTriggerInstance> >::~map()
FUNC 5a7f2 3a 0 geode::stl::unordered_map<int, EnhancedGameObject*, geode::stl::hash<int>, geode::stl::equal_to<int>, std::__ndk1::allocator<std::__ndk1::pair<int const, EnhancedGameObject*> > >::~unordered_map()
FUNC 5a82c 3a 0 geode::stl::unordered_map<int, GameObjectPhysics, geode::stl::hash<int>, geode::stl::equal_to<int>, std::__ndk1::allocator<std::__ndk1::pair<int const, GameObjectPhysics> > >::~unordered_map()
FUNC 5a866 3a 0 geode::stl::unordered_map<int, GJValueTween, geode::stl::hash<int>, geode::stl::equal_to<int>, std::__ndk1::allocator<std::__ndk1::pair<int const, GJValueTween> > >::~unordered_map()
FUNC 5a8a0 3a 0 geode::stl::unordered_map<int, bool, geode::stl::hash<int>, geode::stl::equal_to<int>, std::__ndk1::allocator<std::__ndk1::pair<int const, bool> > >::~unordered_map()
FUNC 5a8dc 11c 0 gd::map<std::__ndk1::pair<GJGameEvent, int>, gd::vector<EventTriggerInstance> >::map(std::__ndk1::map<std::__ndk1::pair<GJGameEvent, int>, gd::vector<EventTriggerInstance>, std::__ndk1::less<std::__ndk1::pair<GJGameEvent, int> >, std::__ndk1::allocator<std::__ndk1::pair<std::__ndk1::pair<GJGameEvent, int> const, gd::vector<EventTriggerInstance> > > >)
FUNC 5a9f8 19e 0 gd::map<std::__ndk1::pair<GJGameEvent, int>, gd::vector<EventTriggerInstance> >::insert_pair(std::__ndk1::pair<std::__ndk1::pair<GJGameEvent, int>, gd::vector<EventTriggerInstance> > const&)
FUNC 5ab96 40 0 std::__ndk1::pair<std::__ndk1::pair<GJGameEvent, int>, gd::vector<EventTriggerInstance> >::~pair()
FUNC 5abd6 40 0 std::__ndk1::pair<std::__ndk1::pair<GJGameEvent, int> const, gd::vector<EventTriggerInstance> >::~pair()
FUNC 5ac16 110 0 gd::vector<EventTriggerInstance>::vector(gd::vector<EventTriggerInstance> const&)
FUNC 5ad26 134 0 gd::vector<EventTriggerInstance>::operator=(gd::vector<EventTriggerInstance> const&)
FUNC 5ae5a 40 0 gd::vector<EventTriggerInstance>::~vector()
FUNC 5ae9a 5c 0 std::__ndk1::__tree<std::__ndk1::__value_type<std::__ndk1::pair<GJGameEvent, int>, gd::vector<EventTriggerInstance> >, std::__ndk1::__map_value_compare<std::__ndk1::pair<GJGameEvent, int>, std::__ndk1::__value_type<std::__ndk1::pair<GJGameEvent, int>, gd::vector<EventTriggerInstance> >, std::__ndk1::less<std::__ndk1::pair<GJGameEvent, int> >, true>, std::__ndk1::allocator<std::__ndk1::__value_type<std::__ndk1::pair<GJGameEvent, int>, gd::vector<EventTriggerInstance> > > >::destroy(std::__ndk1::__tree_node<std::__ndk1::__value_type<std::__ndk1::pair<GJGameEvent, int>, gd::vector<EventTriggerInstance> >, void*>*)
FUNC 5aef6 2c 0 gd::map<std::__ndk1::pair<int, int>, SFXTriggerInstance>::erase(geode::stl::_rb_tree_node<std::__ndk1::pair<std::__ndk1::pair<int, int>, SFXTriggerInstance> >*)
FUNC 5af22 2c 0 gd::map<int, EnterEffectAnimValue>::erase(geode::stl::_rb_tree_node<std::__ndk1::pair<int, EnterEffectAnimValue> >*)
FUNC 5af4e 64 0 geode::stl::__detail::_Hashtable_alloc<std::__ndk1::allocator<geode::stl::__detail::_Hash_node<std::__ndk1::pair<int const, std::__ndk1::vector<EnterEffectInstance, std::__ndk1::allocator<EnterEffectInstance> > >, false> > >::_M_deallocate_nodes(geode::stl::__detail::_Hash_node<std::__ndk1::pair<int const, std::__ndk1::vector<EnterEffectInstance, std::__ndk1::allocator<EnterEffectInstance> > >, false>*)
FUNC 5afb2 2c 0 gd::map<std::__ndk1::pair<GJGameEvent, int>, int>::erase(geode::stl::_rb_tree_node<std::__ndk1::pair<std::__ndk1::pair<GJGameEvent, int>, int> >*)
FUNC 5afde 6e 0 gd::map<std::__ndk1::pair<GJGameEvent, int>, gd::vector<EventTriggerInstance> >::erase(geode::stl::_rb_tree_node<std::__ndk1::pair<std::__ndk1::pair<GJGameEvent, int>, gd::vector<EventTriggerInstance> > >*)
FUNC 5b04c 2c 0 gd::map<std::__ndk1::pair<int, int>, int>::erase(geode::stl::_rb_tree_node<std::__ndk1::pair<std::__ndk1::pair<int, int>, int> >*)
FUNC 5b080 5cc 0 geode::modifier::ModifyDerive<GameLayer, PlayLayer>::apply()
FUNC 5b64c 2 0 geode::modifier::ModifyBase<geode::modifier::ModifyDerive<GameLayer, PlayLayer> >::apply()
FUNC 5b650 84 0 geode::addresser::getVirtual<void (PlayLayer::*)(float)>(void (PlayLayer::*)(float))
FUNC 5b6d4 474 0 geode::modifier::AsStaticFunction_postUpdate<GameLayer, void (GameLayer::*)(float)>::Impl<void (GameLayer::*)(float)>::function(GameLayer*, float)
FUNC 5bb48 138 0 geode::modifier::AsStaticFunction_init<GameLayer, bool (GameLayer::*)(GJGameLevel*, bool, bool)>::Impl<bool (GameLayer::*)(GJGameLevel*, bool, bool)>::function(GameLayer*, GJGameLevel*, bool, bool)
FUNC 5bc80 88 0 PlayLayer::PlayLayer(geode::ZeroConstructorType)
FUNC 5bd08 552 0 GJBaseGameLayer::GJBaseGameLayer(geode::ZeroConstructorType, unsigned int)
FUNC 5c25c 118 0 geode::modifier::FieldIntermediate<GameLayer, PlayLayer>::self()
FUNC 5c374 2 0 geode::modifier::FieldIntermediate<GameLayer, PlayLayer>::fieldDestructor(void*)
FUNC 5c380 5bc 0 geode::modifier::ModifyDerive<NivelEditorLayer, LevelEditorLayer>::apply()
FUNC 5c93c 2 0 geode::modifier::ModifyBase<geode::modifier::ModifyDerive<NivelEditorLayer, LevelEditorLayer> >::apply()
FUNC 5c940 84 0 geode::addresser::getVirtual<void (LevelEditorLayer::*)(float)>(void (LevelEditorLayer::*)(float))
FUNC 5c9c4 1c8 0 geode::modifier::AsStaticFunction_postUpdate<NivelEditorLayer, void (NivelEditorLayer::*)(float)>::Impl<void (NivelEditorLayer::*)(float)>::function(NivelEditorLayer*, float)
FUNC 5cb8c 90 0 geode::modifier::AsStaticFunction_init<NivelEditorLayer, bool (NivelEditorLayer::*)(GJGameLevel*, bool)>::Impl<bool (NivelEditorLayer::*)(GJGameLevel*, bool)>::function(NivelEditorLayer*, GJGameLevel*, bool)
FUNC 5cc1c 60 0 LevelEditorLayer::LevelEditorLayer(geode::ZeroConstructorType)
FUNC 5cc80 7bc 0 geode::modifier::ModifyDerive<MainGameLayer, MenuGameLayer>::apply()
FUNC 5d43c 2 0 geode::modifier::ModifyBase<geode::modifier::ModifyDerive<MainGameLayer, MenuGameLayer> >::apply()
FUNC 5d440 7c 0 geode::addresser::getVirtual<void (MenuGameLayer::*)(float)>(void (MenuGameLayer::*)(float))
FUNC 5d4bc 1bc 0 geode::modifier::AsStaticFunction_update<MainGameLayer, void (MainGameLayer::*)(float)>::Impl<void (MainGameLayer::*)(float)>::function(MainGameLayer*, float)
FUNC 5d678 7c 0 geode::addresser::getVirtual<bool (MenuGameLayer::*)()>(bool (MenuGameLayer::*)())
FUNC 5d6f4 4c 0 geode::modifier::AsStaticFunction_init<MainGameLayer, bool (MainGameLayer::*)()>::Impl<bool (MainGameLayer::*)()>::function(MainGameLayer*)
FUNC 5d740 100 0 geode::modifier::AsStaticFunction_resetPlayer<MainGameLayer, void (MainGameLayer::*)()>::Impl<void (MainGameLayer::*)()>::function(MainGameLayer*)
FUNC 5d840 64 0 MenuGameLayer::MenuGameLayer(geode::ZeroConstructorType)
FUNC 5d8b0 30c 0 geode::modifier::ModifyDerive<OptionalGhostTrail, GhostTrailEffect>::apply()
FUNC 5dbbc 2 0 geode::modifier::ModifyBase<geode::modifier::ModifyDerive<OptionalGhostTrail, GhostTrailEffect> >::apply()
FUNC 5dbc0 180 0 geode::modifier::AsStaticFunction_trailSnapshot<OptionalGhostTrail, void (OptionalGhostTrail::*)(float)>::Impl<void (OptionalGhostTrail::*)(float)>::function(OptionalGhostTrail*, float)
FUNC 5dd40 b4c 0 geode::modifier::ModifyDerive<ChromaPlayer, PlayerObject>::apply()
FUNC 5e88c 2 0 geode::modifier::ModifyBase<geode::modifier::ModifyDerive<ChromaPlayer, PlayerObject> >::apply()
FUNC 5e88e 26 0 geode::addresser::getVirtual<void (PlayerObject::*)(float)>(void (PlayerObject::*)(float))
FUNC 5e8b8 948 0 geode::modifier::AsStaticFunction_update<ChromaPlayer, void (ChromaPlayer::*)(float)>::Impl<void (ChromaPlayer::*)(float)>::function(ChromaPlayer*, float)
FUNC 5f200 26 0 geode::addresser::getVirtual<void (PlayerObject::*)(cocos2d::CCPoint const&)>(void (PlayerObject::*)(cocos2d::CCPoint const&))
FUNC 5f228 dc 0 geode::modifier::AsStaticFunction_setPosition<ChromaPlayer, void (ChromaPlayer::*)(cocos2d::CCPoint const&)>::Impl<void (ChromaPlayer::*)(cocos2d::CCPoint const&)>::function(ChromaPlayer*, cocos2d::CCPoint const&)
FUNC 5f304 101c 0 geode::modifier::AsStaticFunction_init<ChromaPlayer, bool (ChromaPlayer::*)(int, int, GJBaseGameLayer*, cocos2d::CCLayer*, bool)>::Impl<bool (ChromaPlayer::*)(int, int, GJBaseGameLayer*, cocos2d::CCLayer*, bool)>::function(ChromaPlayer*, int, int, GJBaseGameLayer*, cocos2d::CCLayer*, bool)
FUNC 60320 6d0 0 geode::modifier::AsStaticFunction_playSpiderDashEffect<ChromaPlayer, void (ChromaPlayer::*)(cocos2d::CCPoint, cocos2d::CCPoint)>::Impl<void (ChromaPlayer::*)(cocos2d::CCPoint, cocos2d::CCPoint)>::function(ChromaPlayer*, cocos2d::CCPoint, cocos2d::CCPoint)
FUNC 609f0 6c 0 _ZN5geode9addresser9Addresser14cachedInstanceI12PlayerObjectEEPT_vQ18HasZeroConstructorIS4_E
FUNC 60a5c 230 0 PlayerObject::PlayerObject(geode::ZeroConstructorType)
FUNC 60c8c 14 0 gd::map<int, bool>::~map()
FUNC 60ca0 3a 0 geode::stl::unordered_map<int, GameObject*, geode::stl::hash<int>, geode::stl::equal_to<int>, std::__ndk1::allocator<std::__ndk1::pair<int const, GameObject*> > >::~unordered_map()
FUNC 60cda 3a 0 geode::stl::unordered_map<int, GJPointDouble, geode::stl::hash<int>, geode::stl::equal_to<int>, std::__ndk1::allocator<std::__ndk1::pair<int const, GJPointDouble> > >::~unordered_map()
FUNC 60d14 34 0 GameObject::~GameObject()
FUNC 60d48 2c 0 gd::map<int, bool>::erase(geode::stl::_rb_tree_node<std::__ndk1::pair<int, bool> >*)
FUNC 60d74 138c 0 ChromaPlayer::processChroma()
FUNC 62100 12c 0 geode::modifier::FieldIntermediate<ChromaPlayer, PlayerObject>::self()
FUNC 6222c 5a 0 geode::modifier::FieldIntermediate<ChromaPlayer, PlayerObject>::fieldDestructor(void*)
FUNC 62288 a8 0 std::__ndk1::map<short, ChromaSetup, std::__ndk1::less<short>, std::__ndk1::allocator<std::__ndk1::pair<short const, ChromaSetup> > >::operator[](short&&)
FUNC 62330 134 0 ChromaPlayer::getStatusID()
FUNC 62464 10 0 geode::cocos::CallFuncExtImpl<ChromaPlayer::generateChromaGhostTrail()::{lambda()#1}>::~CallFuncExtImpl()
FUNC 62474 c 0 geode::cocos::CallFuncExtImpl<ChromaPlayer::generateChromaGhostTrail()::{lambda()#1}>::update(float)
FUNC 62480 16 0 geode::cocos::CCArrayExt<cocos2d::CCSprite*>::~CCArrayExt()
FUNC 62498 238 0 geode::Mod::getSavedValue<ChromaSetup>(std::__ndk1::basic_string_view<char, std::__ndk1::char_traits<char> >, ChromaSetup const&)
FUNC 626d0 290 0 std::__ndk1::__tree<std::__ndk1::__value_type<std::__ndk1::basic_string<char, std::__ndk1::char_traits<char>, std::__ndk1::allocator<char> >, bool>, std::__ndk1::__map_value_compare<std::__ndk1::basic_string<char, std::__ndk1::char_traits<char>, std::__ndk1::allocator<char> >, std::__ndk1::__value_type<std::__ndk1::basic_string<char, std::__ndk1::char_traits<char>, std::__ndk1::allocator<char> >, bool>, std::__ndk1::less<std::__ndk1::basic_string<char, std::__ndk1::char_traits<char>, std::__ndk1::allocator<char> > >, true>, std::__ndk1::allocator<std::__ndk1::__value_type<std::__ndk1::basic_string<char, std::__ndk1::char_traits<char>, std::__ndk1::allocator<char> >, bool> > >::__emplace_hint_unique_key_args<std::__ndk1::basic_string<char, std::__ndk1::char_traits<char>, std::__ndk1::allocator<char> >, std::__ndk1::pair<std::__ndk1::basic_string<char, std::__ndk1::char_traits<char>, std::__ndk1::allocator<char> > const, bool> const&>(std::__ndk1::__tree_const_iterator<std::__ndk1::__value_type<std::__ndk1::basic_string<char, std::__ndk1::char_traits<char>, std::__ndk1::allocator<char> >, bool>, std::__ndk1::__tree_node<std::__ndk1::__value_type<std::__ndk1::basic_string<char, std::__ndk1::char_traits<char>, std::__ndk1::allocator<char> >, bool>, void*>*, int>, std::__ndk1::basic_string<char, std::__ndk1::char_traits<char>, std::__ndk1::allocator<char> > const&, std::__ndk1::pair<std::__ndk1::basic_string<char, std::__ndk1::char_traits<char>, std::__ndk1::allocator<char> > const, bool> const&)
FUNC 62960 20 0 geode::getMod()
FUNC 62980 20 0 geodeImplicitEntry
FUNC 629a0 28 0 std::__ndk1::unordered_map<void*, bool, std::__ndk1::hash<void*>, std::__ndk1::equal_to<void*>, std::__ndk1::allocator<std::__ndk1::pair<void* const, bool> > >::~unordered_map[abi:ne190000]()
FUNC 629c8 cc 0 wrapFunction(unsigned int, tulip::hook::WrapperMetadata const&)
FUNC 62a94 48 0 geode::impl::ResultData<void*, std::__ndk1::basic_string<char, std::__ndk1::char_traits<char>, std::__ndk1::allocator<char> > >::unwrapErr() &
FUNC 62adc 60 0 geode::impl::ResultData<void*, std::__ndk1::basic_string<char, std::__ndk1::char_traits<char>, std::__ndk1::allocator<char> > >::~ResultData()
FUNC 62b3c 46 0 tulip::hook::WrapperMetadata::~WrapperMetadata()
FUNC 62b84 1f8 0 cocos2d::CCEGLViewProtocol::~CCEGLViewProtocol()
FUNC 62d7c 10 0 cocos2d::CCEGLViewProtocol::~CCEGLViewProtocol()
FUNC 62d8c 10 0 cocos2d::CCObject::~CCObject()
FUNC 62d9c 10 0 cocos2d::CCNode::~CCNode()
FUNC 62dac 1c8 0 cocos2d::CCNodeRGBA::CCNodeRGBA()
FUNC 62f74 10 0 cocos2d::CCNodeRGBA::~CCNodeRGBA()
FUNC 62f84 10 0 cocos2d::CCAction::~CCAction()
FUNC 62f94 1bc 0 cocos2d::CCActionInstant::CCActionInstant()
FUNC 63150 228 0 cocos2d::CCAction::~CCAction()
FUNC 63378 8 0 {virtual override thunk({offset(-264)}, cocos2d::CCLayer::~CCLayer())}
FUNC 63380 10 0 cocos2d::CCLayer::~CCLayer()
FUNC 63390 14 0 {virtual override thunk({offset(-264)}, cocos2d::CCLayer::~CCLayer())}
FUNC 633a4 1e8 0 cocos2d::CCLayerRGBA::CCLayerRGBA()
FUNC 6358c 27c 0 cocos2d::CCLayerRGBA::~CCLayerRGBA()
FUNC 63808 8 0 {virtual override thunk({offset(-264)}, cocos2d::CCLayerRGBA::~CCLayerRGBA())}
FUNC 63810 10 0 cocos2d::CCLayerRGBA::~CCLayerRGBA()
FUNC 63820 14 0 {virtual override thunk({offset(-264)}, cocos2d::CCLayerRGBA::~CCLayerRGBA())}
FUNC 63834 1f0 0 cocos2d::CCLayerColor::CCLayerColor()
FUNC 63a24 8 0 {virtual override thunk({offset(-264)}, cocos2d::CCLayerColor::~CCLayerColor())}
FUNC 63a2c 10 0 cocos2d::CCLayerColor::~CCLayerColor()
FUNC 63a3c 14 0 {virtual override thunk({offset(-264)}, cocos2d::CCLayerColor::~CCLayerColor())}
FUNC 63a50 1e4 0 cocos2d::CCSprite::CCSprite()
FUNC 63c34 10 0 cocos2d::CCSprite::~CCSprite()
FUNC 63c44 10 0 cocos2d::CCMenuItem::~CCMenuItem()
FUNC 63c54 74 0 FLAlertLayer::FLAlertLayer()
FUNC 63cc8 8 0 {virtual override thunk({offset(-264)}, FLAlertLayer::~FLAlertLayer())}
FUNC 63cd0 10 0 FLAlertLayer::~FLAlertLayer()
FUNC 63ce0 14 0 {virtual override thunk({offset(-264)}, FLAlertLayer::~FLAlertLayer())}
FUNC 63cf4 2 0 TextInputDelegate::textInputOpened(CCTextInputNode*)
FUNC 63cf6 2 0 TextInputDelegate::textInputClosed(CCTextInputNode*)
FUNC 63cf8 2 0 TextInputDelegate::textInputShouldOffset(CCTextInputNode*, float)
FUNC 63cfa 2 0 TextInputDelegate::textInputReturn(CCTextInputNode*)
FUNC 63cfc 4 0 TextInputDelegate::allowTextInput(CCTextInputNode*)
FUNC 63d00 2 0 TextInputDelegate::enterPressed(CCTextInputNode*)
FUNC 63d04 258 0 cocos2d::CCNodeRGBA::~CCNodeRGBA()
FUNC 63f5c 2 0 GameObject::update(float)
FUNC 63f5e 2 0 GameObject::firstSetup()
FUNC 63f60 f8 0 GameObject::setupCustomSprites(gd::string)
FUNC 64060 70 0 tulip::hook::AbstractFunction::from<void, GameObject*, gd::string>(void (*)(GameObject*, gd::string))
FUNC 640d0 2 0 GameObject::triggerObject(GJBaseGameLayer*, int, gd::vector<int> const*)
FUNC 640d2 2 0 GameObject::customObjectSetup(gd::vector<gd::string>&, gd::vector<void*>&)
FUNC 640d4 2 0 GameObject::particleWasActivated()
FUNC 640d6 2 0 GameObject::triggerActivated(float)
FUNC 640d8 2 0 GameObject::animationTriggered()
FUNC 640da 2 0 GameObject::activatedByPlayer(PlayerObject*)
FUNC 640dc 4 0 GameObject::hasBeenActivatedByPlayer(PlayerObject*)
FUNC 640e0 4 0 GameObject::hasBeenActivated()
FUNC 640e4 4 0 GameObject::canAllowMultiActivate()
FUNC 640e8 2 0 GameObject::blendModeChanged()
FUNC 640ea 2 0 GameObject::updateMainParticleOpacity(unsigned char)
FUNC 640ec 2 0 GameObject::updateSecondaryParticleOpacity(unsigned char)
FUNC 640ee 4 0 GameObject::canReverse()
FUNC 640f2 4 0 GameObject::isSpecialSpawnObject()
FUNC 640f6 4 0 GameObject::canBeOrdered()
FUNC 640fa 4 0 GameObject::getObjectLabel()
FUNC 640fe 2 0 GameObject::setObjectLabel(cocos2d::CCLabelBMFont*)
FUNC 64100 4 0 GameObject::shouldDrawEditorHitbox()
FUNC 64104 4 0 GameObject::getHasSyncedAnimation()
FUNC 64108 4 0 GameObject::getHasRotateAction()
FUNC 6410c 4 0 GameObject::canMultiActivate(bool)
FUNC 64110 2 0 GameObject::updateTextKerning(int)
FUNC 64112 4 0 GameObject::getTextKerning()
FUNC 64118 294 0 CCContentLayer::~CCContentLayer()
FUNC 643ac 8 0 {virtual override thunk({offset(-264)}, CCContentLayer::~CCContentLayer())}
FUNC 643b4 10 0 CCContentLayer::~CCContentLayer()
FUNC 643c4 14 0 {virtual override thunk({offset(-264)}, CCContentLayer::~CCContentLayer())}
FUNC 643e0 a4 0 CCMenuItemSpriteExtra::CCMenuItemSpriteExtra()
FUNC 64484 25c 0 cocos2d::CCMenuItem::~CCMenuItem()
FUNC 646e0 34 0 CCMenuItemSpriteExtra::~CCMenuItemSpriteExtra()
FUNC 64714 38 0 CCMenuItemSpriteExtra::~CCMenuItemSpriteExtra()
FUNC 6474c 18 0 CCMenuItemSpriteExtra::create(cocos2d::CCNode*, cocos2d::CCObject*, void (cocos2d::CCObject::*)(cocos2d::CCObject*))
FUNC 64764 180 0 CCMenuItemToggler::createWithStandardSprites(cocos2d::CCObject*, void (cocos2d::CCObject::*)(cocos2d::CCObject*), float)
FUNC 648e4 6 0 CCMenuItemToggler::isToggled()
FUNC 648f0 70 0 tulip::hook::AbstractFunction::from<void, CCTextInputNode*, gd::string>(void (*)(CCTextInputNode*, gd::string))
FUNC 64960 f8 0 CCTextInputNode::setString(gd::string)
FUNC 64a58 270 0 cocos2d::CCSprite::~CCSprite()
FUNC 64cc8 e 0 GameManager::getPlayerBall()
FUNC 64cd6 e 0 GameManager::getPlayerBird()
FUNC 64ce4 e 0 GameManager::getPlayerColor()
FUNC 64cf2 e 0 GameManager::getPlayerColor2()
FUNC 64d00 e 0 GameManager::getPlayerDart()
FUNC 64d0e e 0 GameManager::getPlayerFrame()
FUNC 64d1c e 0 GameManager::getPlayerGlowColor()
FUNC 64d2a e 0 GameManager::getPlayerJetpack()
FUNC 64d38 e 0 GameManager::getPlayerRobot()
FUNC 64d46 e 0 GameManager::getPlayerShip()
FUNC 64d54 e 0 GameManager::getPlayerSpider()
FUNC 64d62 e 0 GameManager::getPlayerSwing()
FUNC 64d70 6c8 0 GJBaseGameLayer::~GJBaseGameLayer()
FUNC 65438 552 0 GJBaseGameLayer::GJBaseGameLayer(geode::CutoffConstructorType, unsigned int)
FUNC 6598a 8 0 {virtual override thunk({offset(-264)}, GJBaseGameLayer::~GJBaseGameLayer())}
FUNC 65992 10 0 GJBaseGameLayer::~GJBaseGameLayer()
FUNC 659a2 14 0 {virtual override thunk({offset(-264)}, GJBaseGameLayer::~GJBaseGameLayer())}
FUNC 659b8 f0 0 GJBaseGameLayer::toggleGroupTriggered(int, bool, gd::vector<int> const&, int, int)
FUNC 65ab0 320 0 tulip::hook::AbstractFunction::from<void, GJBaseGameLayer*, int, bool, gd::vector<int> const&, int, int>(void (*)(GJBaseGameLayer*, int, bool, gd::vector<int> const&, int, int))
FUNC 65dd0 18 0 {virtual override thunk({offset(-316)}, GJBaseGameLayer::toggleGroupTriggered(int, bool, gd::vector<int> const&, int, int))}
FUNC 65de8 fc 0 GJBaseGameLayer::spawnGroup(int, bool, double, gd::vector<int> const&, int, int)
FUNC 65ef0 3c0 0 tulip::hook::AbstractFunction::from<void, GJBaseGameLayer*, int, bool, double, gd::vector<int> const&, int, int>(void (*)(GJBaseGameLayer*, int, bool, double, gd::vector<int> const&, int, int))
FUNC 662b0 24 0 {virtual override thunk({offset(-316)}, GJBaseGameLayer::spawnGroup(int, bool, double, gd::vector<int> const&, int, int))}
FUNC 662d4 ec 0 GJBaseGameLayer::spawnObject(GameObject*, double, gd::vector<int> const&)
FUNC 663c0 160 0 tulip::hook::AbstractFunction::from<void, GJBaseGameLayer*, GameObject*, double, gd::vector<int> const&>(void (*)(GJBaseGameLayer*, GameObject*, double, gd::vector<int> const&))
FUNC 66520 10 0 {virtual override thunk({offset(-316)}, GJBaseGameLayer::spawnObject(GameObject*, double, gd::vector<int> const&))}
FUNC 66530 e8 0 GJBaseGameLayer::activatePlatformerEndTrigger(EndTriggerGameObject*, gd::vector<int> const&)
FUNC 66620 a0 0 tulip::hook::AbstractFunction::from<void, GJBaseGameLayer*, EndTriggerGameObject*, gd::vector<int> const&>(void (*)(GJBaseGameLayer*, EndTriggerGameObject*, gd::vector<int> const&))
FUNC 666c0 2 0 GJBaseGameLayer::toggleGlitter(bool)
FUNC 666c2 4 0 GJBaseGameLayer::timeForPos(cocos2d::CCPoint, int, int, bool, int)
FUNC 666c6 8 0 GJBaseGameLayer::posForTime(float)
FUNC 666ce 2 0 GJBaseGameLayer::resetSPTriggered()
FUNC 666d0 ec 0 GJBaseGameLayer::createCustomParticle(gd::string const&, cocos2d::ParticleStruct const&, int, bool)
FUNC 667c0 280 0 tulip::hook::AbstractFunction::from<TodoReturnPlaceholder, GJBaseGameLayer*, gd::string const&, cocos2d::ParticleStruct const&, int, bool>(TodoReturnPlaceholder (*)(GJBaseGameLayer*, gd::string const&, cocos2d::ParticleStruct const&, int, bool))
FUNC 66a40 fc 0 GJBaseGameLayer::claimCustomParticle(gd::string const&, cocos2d::ParticleStruct const&, int, int, int, bool)
FUNC 66b40 3d0 0 tulip::hook::AbstractFunction::from<TodoReturnPlaceholder, GJBaseGameLayer*, gd::string const&, cocos2d::ParticleStruct const&, int, int, int, bool>(TodoReturnPlaceholder (*)(GJBaseGameLayer*, gd::string const&, cocos2d::ParticleStruct const&, int, int, int, bool))
FUNC 66f10 e8 0 GJBaseGameLayer::unclaimCustomParticle(gd::string const&, cocos2d::CCParticleSystemQuad*)
FUNC 67000 a0 0 tulip::hook::AbstractFunction::from<TodoReturnPlaceholder, GJBaseGameLayer*, gd::string const&, cocos2d::CCParticleSystemQuad*>(TodoReturnPlaceholder (*)(GJBaseGameLayer*, gd::string const&, cocos2d::CCParticleSystemQuad*))
FUNC 670a0 2f8 0 PlayLayer::~PlayLayer()
FUNC 67398 8 0 {virtual override thunk({offset(-264)}, PlayLayer::~PlayLayer())}
FUNC 673a0 10 0 PlayLayer::~PlayLayer()
FUNC 673b0 14 0 {virtual override thunk({offset(-264)}, PlayLayer::~PlayLayer())}
FUNC 673c4 e 0 PlayLayer::get()
FUNC 673d4 e8 0 PlayLayer::activatePlatformerEndTrigger(EndTriggerGameObject*, gd::vector<int> const&)
FUNC 674c0 a0 0 tulip::hook::AbstractFunction::from<void, PlayLayer*, EndTriggerGameObject*, gd::vector<int> const&>(void (*)(PlayLayer*, EndTriggerGameObject*, gd::vector<int> const&))
FUNC 67560 14 0 SimplePlayer::enableCustomGlowColor(cocos2d::_ccColor3B const&)
FUNC 67574 1c 0 SimplePlayer::setSecondColor(cocos2d::_ccColor3B const&)
FUNC 67590 44 0 Slider::create(cocos2d::CCNode*, void (cocos2d::CCObject::*)(cocos2d::CCObject*), float)
FUNC 675d4 a 0 Slider::getThumb()
FUNC 675de c 0 Slider::getValue()
FUNC 675ea 2 0 cocos2d::CCObject::update(float)
FUNC 675ec 2 0 cocos2d::CCEGLViewProtocol::end()
FUNC 675ee 4 0 cocos2d::CCEGLViewProtocol::isOpenGLReady()
FUNC 675f2 2 0 cocos2d::CCEGLViewProtocol::swapBuffers()
FUNC 675f4 2 0 cocos2d::CCEGLViewProtocol::setIMEKeyboardState(bool)
FUNC 675f8 38 0 GameObject::~GameObject()
FUNC 67630 294 0 cocos2d::CCLayerColor::~CCLayerColor()
FUNC 678c4 274 0 cocos2d::CCLayer::~CCLayer()
FUNC 67b38 22c 0 cocos2d::CCNode::~CCNode()
FUNC 67d64 294 0 FLAlertLayer::~FLAlertLayer()
FUNC 67ff8 42c 0 cocos2d::CCObject::~CCObject()
FUNC 68424 f8 0 _ZN5geode15UnwrapExceptionC2IRPvQsr4implE18IsStringStreamableIT_EEENS_4impl5OkTagEOS4_
FUNC 6851c 2 0 std::__ndk1::__variant_detail::__visitation::__base::__dispatcher<(unsigned int)0>::__dispatch[abi:ne190000]<std::__ndk1::__variant_detail::__dtor<std::__ndk1::__variant_detail::__traits<void*, std::__ndk1::basic_string<char, std::__ndk1::char_traits<char>, std::__ndk1::allocator<char> > >, (std::__ndk1::__variant_detail::_Trait)1>::__destroy[abi:ne190000]()::{lambda(auto:1&)#1}, std::__ndk1::__variant_detail::__base<(std::__ndk1::__variant_detail::__traits<void*, std::__ndk1::basic_string<char, std::__ndk1::char_traits<char>, std::__ndk1::allocator<char> > >)1, std::__ndk1::__variant_detail::__traits, std::__ndk1::allocator<char> >&>(std::__ndk1::__variant_detail::__dtor<std::__ndk1::__variant_detail::__traits<void*, std::__ndk1::basic_string<char, std::__ndk1::char_traits<char>, std::__ndk1::allocator<char> > >, (std::__ndk1::__variant_detail::_Trait)1>, std::__ndk1::__variant_detail::__base<(std::__ndk1::__variant_detail::__traits<void*, std::__ndk1::basic_string<char, std::__ndk1::char_traits<char>, std::__ndk1::allocator<char> > >)1, std::__ndk1::__variant_detail::__traits, std::__ndk1::allocator<char> >&)
FUNC 6851e e 0 std::__ndk1::__variant_detail::__visitation::__base::__dispatcher<(unsigned int)1>::__dispatch[abi:ne190000]<std::__ndk1::__variant_detail::__dtor<std::__ndk1::__variant_detail::__traits<void*, std::__ndk1::basic_string<char, std::__ndk1::char_traits<char>, std::__ndk1::allocator<char> > >, (std::__ndk1::__variant_detail::_Trait)1>::__destroy[abi:ne190000]()::{lambda(auto:1&)#1}, std::__ndk1::__variant_detail::__base<(std::__ndk1::__variant_detail::__traits<void*, std::__ndk1::basic_string<char, std::__ndk1::char_traits<char>, std::__ndk1::allocator<char> > >)1, std::__ndk1::__variant_detail::__traits, std::__ndk1::allocator<char> >&>(std::__ndk1::__variant_detail::__dtor<std::__ndk1::__variant_detail::__traits<void*, std::__ndk1::basic_string<char, std::__ndk1::char_traits<char>, std::__ndk1::allocator<char> > >, (std::__ndk1::__variant_detail::_Trait)1>, std::__ndk1::__variant_detail::__base<(std::__ndk1::__variant_detail::__traits<void*, std::__ndk1::basic_string<char, std::__ndk1::char_traits<char>, std::__ndk1::allocator<char> > >)1, std::__ndk1::__variant_detail::__traits, std::__ndk1::allocator<char> >&)
FUNC 6852c 3ea 0 std::__ndk1::__hash_table<std::__ndk1::__hash_value_type<void*, bool>, std::__ndk1::__unordered_map_hasher<void*, std::__ndk1::__hash_value_type<void*, bool>, std::__ndk1::hash<void*>, std::__ndk1::equal_to<void*>, true>, std::__ndk1::__unordered_map_equal<void*, std::__ndk1::__hash_value_type<void*, bool>, std::__ndk1::equal_to<void*>, std::__ndk1::hash<void*>, true>, std::__ndk1::allocator<std::__ndk1::__hash_value_type<void*, bool> > >::__emplace_unique_key_args<void*, std::__ndk1::piecewise_construct_t const&, std::__ndk1::tuple<void* const&>, std::__ndk1::tuple<> >(void* const&, std::__ndk1::piecewise_construct_t const&, std::__ndk1::tuple<void* const&>, std::__ndk1::tuple<>)
FUNC 68918 1cc 0 fmt::v11::detail::write_loc(fmt::v11::basic_appender<char>, fmt::v11::loc_value, fmt::v11::format_specs const&, fmt::v11::detail::locale_ref)
FUNC 68ae4 44 0 fmt::v11::format_facet<std::__ndk1::locale>::~format_facet()
FUNC 68b28 38 0 fmt::v11::report_error(char const*)
FUNC 68b60 18 0 fmt::v11::format_error::runtime_error(char const*)
FUNC 68b78 420 0 fmt::v11::format_facet<std::__ndk1::locale>::do_put(fmt::v11::basic_appender<char>, fmt::v11::loc_value, fmt::v11::format_specs const&) const
FUNC 68f98 30 0 fmt::v11::detail::loc_writer<char>::~loc_writer()
FUNC 68fc8 c0 0 fmt::v11::vformat(fmt::v11::basic_string_view<char>, fmt::v11::basic_format_args<fmt::v11::context>)
FUNC 69088 198 0 fmt::v11::detail::dragonbox::cache_accessor<double>::get_cached_power(int)
FUNC 69220 278 0 fmt::v11::detail::vformat_to<char>(fmt::v11::detail::buffer<char>&, fmt::v11::basic_string_view<char>, fmt::v11::detail::vformat_args<char>::type, fmt::v11::detail::locale_ref)
FUNC 694a0 228 0 fmt::v11::detail::is_printable(unsigned int)
FUNC 696c8 360 0 fmt::v11::detail::dragonbox::to_decimal<float>(float)
FUNC 69a28 7fc 0 fmt::v11::detail::dragonbox::to_decimal<double>(double)
FUNC 6a224 4c 0 fmt::v11::basic_memory_buffer<char, (unsigned int)500, std::__ndk1::allocator<char> >::grow(fmt::v11::detail::buffer<char>&, unsigned int)
FUNC 6a270 48 0 fmt::v11::format_facet<std::__ndk1::locale>::~format_facet()
FUNC 6a2b8 10 0 fmt::v11::format_error::~format_error()
FUNC 6a2c8 9a 0 fmt::v11::detail::copy_noinline<char, char const*, fmt::v11::basic_appender<char> >(char const*, char const*, fmt::v11::basic_appender<char>)
FUNC 6a364 54 0 fmt::v11::detail::default_arg_formatter<char>::operator()<bool>(bool)
FUNC 6a3b8 34 0 fmt::v11::detail::default_arg_formatter<char>::operator()<char>(char)
FUNC 6a3f0 e8 0 fmt::v11::detail::default_arg_formatter<char>::operator()<float>(float)
FUNC 6a4e0 ec 0 fmt::v11::detail::default_arg_formatter<char>::operator()<double>(double)
FUNC 6a5d0 ec 0 fmt::v11::detail::default_arg_formatter<char>::operator()<long double>(long double)
FUNC 6a6bc 2c 0 fmt::v11::detail::default_arg_formatter<char>::operator()<char const*>(char const*)
FUNC 6a6e8 74 0 fmt::v11::detail::default_arg_formatter<char>::operator()<void const*>(void const*)
FUNC 6a75c 1b0 0 _ZN3fmt3v116detail5writeIcNS0_14basic_appenderIcEEiTnNSt6__ndk19enable_ifIXaaaasr11is_integralIT1_EE5valuentsr3std7is_sameIS7_bEE5valuentsr3std7is_sameIS7_T_EE5valueEiE4typeELi0EEET0_SB_S7_
FUNC 6a90c 9a 0 fmt::v11::detail::copy_noinline<char, char*, fmt::v11::basic_appender<char> >(char*, char*, fmt::v11::basic_appender<char>)
FUNC 6a9a8 174 0 _ZN3fmt3v116detail5writeIcNS0_14basic_appenderIcEEjTnNSt6__ndk19enable_ifIXaaaasr11is_integralIT1_EE5valuentsr3std7is_sameIS7_bEE5valuentsr3std7is_sameIS7_T_EE5valueEiE4typeELi0EEET0_SB_S7_
FUNC 6ab1c 218 0 _ZN3fmt3v116detail5writeIcNS0_14basic_appenderIcEExTnNSt6__ndk19enable_ifIXaaaasr11is_integralIT1_EE5valuentsr3std7is_sameIS7_bEE5valuentsr3std7is_sameIS7_T_EE5valueEiE4typeELi0EEET0_SB_S7_
FUNC 6ad34 1dc 0 _ZN3fmt3v116detail5writeIcNS0_14basic_appenderIcEEyTnNSt6__ndk19enable_ifIXaaaasr11is_integralIT1_EE5valuentsr3std7is_sameIS7_bEE5valuentsr3std7is_sameIS7_T_EE5valueEiE4typeELi0EEET0_SB_S7_
FUNC 6af10 188 0 _ZN3fmt3v116detail5writeIcNS0_14basic_appenderIcEEbTnNSt6__ndk19enable_ifIXsr3std7is_sameIT1_bEE5valueEiE4typeELi0EEET0_SA_S7_RKNS0_12format_specsENS1_10locale_refE
FUNC 6b098 9f8 0 fmt::v11::detail::write_int_noinline<char, fmt::v11::basic_appender<char>, unsigned int>(fmt::v11::basic_appender<char>, fmt::v11::detail::write_int_arg<unsigned int>, fmt::v11::format_specs const&, fmt::v11::detail::locale_ref)
FUNC 6ba90 fa 0 fmt::v11::detail::fill<char, fmt::v11::basic_appender<char> >(fmt::v11::basic_appender<char>, unsigned int, fmt::v11::detail::fill_t const&)
FUNC 6bb8c 184 0 fmt::v11::detail::write_padded<char, (fmt::v11::align::type)1, fmt::v11::basic_appender<char>, fmt::v11::detail::write_char<char, fmt::v11::basic_appender<char> >(fmt::v11::basic_appender<char>, char, fmt::v11::format_specs const&)::{lambda(fmt::v11::basic_appender<char>&)#1}>(fmt::v11::basic_appender<char>, fmt::v11::format_specs const&, unsigned int, unsigned int, fmt::v11::detail::write_char<char, fmt::v11::basic_appender<char> >(fmt::v11::basic_appender<char>, char, fmt::v11::format_specs const&)::{lambda(fmt::v11::basic_appender<char>&)#1})
FUNC 6bd10 210 0 fmt::v11::detail::write_escaped_cp<fmt::v11::basic_appender<char>, char>(fmt::v11::basic_appender<char>, fmt::v11::detail::find_escape_result<char> const&)
FUNC 6bf20 e0 0 fmt::v11::detail::write_codepoint<(unsigned int)2, char, fmt::v11::basic_appender<char> >(fmt::v11::basic_appender<char>, char, unsigned int)
FUNC 6c000 e0 0 fmt::v11::detail::write_codepoint<(unsigned int)8, char, fmt::v11::basic_appender<char> >(fmt::v11::basic_appender<char>, char, unsigned int)
FUNC 6c0e0 140 0 fmt::v11::detail::write_padded<char, (fmt::v11::align::type)1, fmt::v11::basic_appender<char>, fmt::v11::detail::write_nonfinite<char, fmt::v11::basic_appender<char> >(fmt::v11::basic_appender<char>, bool, fmt::v11::format_specs, fmt::v11::sign::type)::{lambda(fmt::v11::basic_appender<char>&)#1}>(fmt::v11::basic_appender<char>, fmt::v11::format_specs const&, unsigned int, unsigned int, fmt::v11::detail::write_nonfinite<char, fmt::v11::basic_appender<char> >(fmt::v11::basic_appender<char>, bool, fmt::v11::format_specs, fmt::v11::sign::type)::{lambda(fmt::v11::basic_appender<char>&)#1})
FUNC 6c220 904 0 fmt::v11::detail::do_write_float<char, fmt::v11::basic_appender<char>, fmt::v11::detail::dragonbox::decimal_fp<float>, fmt::v11::detail::digit_grouping<char> >(fmt::v11::basic_appender<char>, fmt::v11::detail::dragonbox::decimal_fp<float> const&, fmt::v11::format_specs const&, fmt::v11::detail::float_specs, fmt::v11::detail::locale_ref)
FUNC 6cb24 e0 0 fmt::v11::detail::do_write_float<char, fmt::v11::basic_appender<char>, fmt::v11::detail::dragonbox::decimal_fp<float>, fmt::v11::detail::digit_grouping<char> >(fmt::v11::basic_appender<char>, fmt::v11::detail::dragonbox::decimal_fp<float> const&, fmt::v11::format_specs const&, fmt::v11::detail::float_specs, fmt::v11::detail::locale_ref)::{lambda(fmt::v11::basic_appender<char>(fmt::v11::basic_appender<char>))#1}::operator() const
FUNC 6cc04 194 0 fmt::v11::detail::digit_grouping<char>::digit_grouping(fmt::v11::detail::locale_ref, bool)
FUNC 6cd98 22 0 fmt::v11::detail::digit_grouping<char>::~digit_grouping()
FUNC 6cdbc 104 0 fmt::v11::detail::write_exponent<char, fmt::v11::basic_appender<char> >(int, fmt::v11::basic_appender<char>)
FUNC 6cec0 144 0 _ZN3fmt3v116detail17write_significandIcjTnNSt6__ndk19enable_ifIXsr3std11is_integralIT0_EE5valueEiE4typeELi0EEEPT_S9_S5_iiS8_
FUNC 6d004 21c 0 fmt::v11::detail::digit_grouping<char>::apply<fmt::v11::basic_appender<char>, char>(fmt::v11::basic_appender<char>, fmt::v11::basic_string_view<char>) const
FUNC 6d220 6e 0 fmt::v11::basic_memory_buffer<int, (unsigned int)500, std::__ndk1::allocator<int> >::grow(fmt::v11::detail::buffer<int>&, unsigned int)
FUNC 6d290 9ac 0 fmt::v11::detail::do_write_float<char, fmt::v11::basic_appender<char>, fmt::v11::detail::dragonbox::decimal_fp<double>, fmt::v11::detail::digit_grouping<char> >(fmt::v11::basic_appender<char>, fmt::v11::detail::dragonbox::decimal_fp<double> const&, fmt::v11::format_specs const&, fmt::v11::detail::float_specs, fmt::v11::detail::locale_ref)
FUNC 6dc3c e8 0 fmt::v11::detail::do_write_float<char, fmt::v11::basic_appender<char>, fmt::v11::detail::dragonbox::decimal_fp<double>, fmt::v11::detail::digit_grouping<char> >(fmt::v11::basic_appender<char>, fmt::v11::detail::dragonbox::decimal_fp<double> const&, fmt::v11::format_specs const&, fmt::v11::detail::float_specs, fmt::v11::detail::locale_ref)::{lambda(fmt::v11::basic_appender<char>(fmt::v11::basic_appender<char>))#1}::operator() const
FUNC 6dd24 19c 0 _ZN3fmt3v116detail17write_significandIcyTnNSt6__ndk19enable_ifIXsr3std11is_integralIT0_EE5valueEiE4typeELi0EEEPT_S9_S5_iiS8_
FUNC 6dec0 150 0 fmt::v11::detail::write_padded<char, (fmt::v11::align::type)2, fmt::v11::basic_appender<char>, fmt::v11::detail::write_ptr<char, fmt::v11::basic_appender<char>, unsigned int>(fmt::v11::basic_appender<char>, unsigned int, fmt::v11::format_specs const*)::{lambda(fmt::v11::basic_appender<char>&)#1}>(fmt::v11::basic_appender<char>, fmt::v11::format_specs const&, unsigned int, unsigned int, fmt::v11::detail::write_ptr<char, fmt::v11::basic_appender<char>, unsigned int>(fmt::v11::basic_appender<char>, unsigned int, fmt::v11::format_specs const*)::{lambda(fmt::v11::basic_appender<char>&)#1})
FUNC 6e010 1808 0 fmt::v11::detail::parse_replacement_field<char, fmt::v11::detail::vformat_to<char>(fmt::v11::detail::buffer<char>&, fmt::v11::basic_string_view<char>, fmt::v11::detail::vformat_args<char>::type, fmt::v11::detail::locale_ref)::format_handler&>(char const*, char const*, fmt::v11::detail::vformat_to<char>(fmt::v11::detail::buffer<char>&, fmt::v11::basic_string_view<char>, fmt::v11::detail::vformat_args<char>::type, fmt::v11::detail::locale_ref)::format_handler&)
FUNC 6f818 1cc 0 fmt::v11::detail::parse_dynamic_spec<char>(char const*, char const*, int&, fmt::v11::detail::arg_ref<char>&, fmt::v11::basic_format_parse_context<char>&)
FUNC 6f9e4 f6 0 fmt::v11::basic_format_args<fmt::v11::context>::get<char>(fmt::v11::basic_string_view<char>) const
FUNC 6fadc b78 0 fmt::v11::detail::write_int_noinline<char, fmt::v11::basic_appender<char>, unsigned long long>(fmt::v11::basic_appender<char>, fmt::v11::detail::write_int_arg<unsigned long long>, fmt::v11::format_specs const&, fmt::v11::detail::locale_ref)
FUNC 70654 3a4 0 _ZN3fmt3v116detail15format_hexfloatIdTnNSt6__ndk19enable_ifIXntsr16is_double_doubleIT_EE5valueEiE4typeELi0EEEvS5_NS0_12format_specsERNS1_6bufferIcEE
FUNC 709f8 ebc 0 fmt::v11::detail::format_float<double>(double, int, fmt::v11::detail::float_specs, fmt::v11::detail::buffer<char>&)
FUNC 718b4 10c 0 fmt::v11::detail::write_padded<char, (fmt::v11::align::type)2, fmt::v11::basic_appender<char>, fmt::v11::detail::write_bytes<char, (fmt::v11::align::type)2, fmt::v11::basic_appender<char> >(fmt::v11::basic_appender<char>, fmt::v11::basic_string_view<char>, fmt::v11::format_specs const&)::{lambda(fmt::v11::basic_appender<char>&)#1}>(fmt::v11::basic_appender<char>, fmt::v11::format_specs const&, unsigned int, unsigned int, fmt::v11::detail::write_bytes<char, (fmt::v11::align::type)2, fmt::v11::basic_appender<char> >(fmt::v11::basic_appender<char>, fmt::v11::basic_string_view<char>, fmt::v11::format_specs const&)::{lambda(fmt::v11::basic_appender<char>&)#1})
FUNC 719c0 c4 0 fmt::v11::detail::bigint::operator<<=(int)
FUNC 71a84 414 0 fmt::v11::detail::bigint::assign_pow10(int)
FUNC 71e98 276 0 fmt::v11::detail::bigint::divmod_assign(fmt::v11::detail::bigint const&)
FUNC 7210e 6e 0 fmt::v11::basic_memory_buffer<unsigned int, (unsigned int)32, std::__ndk1::allocator<unsigned int> >::grow(fmt::v11::detail::buffer<unsigned int>&, unsigned int)
FUNC 7217c 994 0 fmt::v11::detail::do_write_float<char, fmt::v11::basic_appender<char>, fmt::v11::detail::big_decimal_fp, fmt::v11::detail::digit_grouping<char> >(fmt::v11::basic_appender<char>, fmt::v11::detail::big_decimal_fp const&, fmt::v11::format_specs const&, fmt::v11::detail::float_specs, fmt::v11::detail::locale_ref)
FUNC 72b10 e0 0 fmt::v11::detail::do_write_float<char, fmt::v11::basic_appender<char>, fmt::v11::detail::big_decimal_fp, fmt::v11::detail::digit_grouping<char> >(fmt::v11::basic_appender<char>, fmt::v11::detail::big_decimal_fp const&, fmt::v11::format_specs const&, fmt::v11::detail::float_specs, fmt::v11::detail::locale_ref)::{lambda(fmt::v11::basic_appender<char>(fmt::v11::basic_appender<char>))#1}::operator() const
FUNC 72bf0 834 0 fmt::v11::detail::write<char, fmt::v11::basic_appender<char> >(fmt::v11::basic_appender<char>, fmt::v11::basic_string_view<char>, fmt::v11::format_specs const&)
FUNC 73424 124 0 fmt::v11::detail::for_each_codepoint<fmt::v11::detail::find_escape(char const*, char const*)::{lambda(unsigned int, fmt::v11::basic_string_view<char>)#1}>(fmt::v11::basic_string_view<char>, fmt::v11::detail::find_escape(char const*, char const*)::{lambda(unsigned int, fmt::v11::basic_string_view<char>)#1})::{lambda(char const*, char const*)#1}::operator()(char const*, char const*) const
FUNC 73550 1e4 0 fmt::v11::detail::for_each_codepoint<fmt::v11::detail::compute_width(fmt::v11::basic_string_view<char>)::count_code_points>(fmt::v11::basic_string_view<char>, fmt::v11::detail::compute_width(fmt::v11::basic_string_view<char>)::count_code_points)::{lambda(char const*, char const*)#1}::operator()(char const*, char const*) const
FUNC 73734 544 0 fmt::v11::detail::write_int<fmt::v11::basic_appender<char>, unsigned long long, char>(fmt::v11::basic_appender<char>, unsigned long long, unsigned int, fmt::v11::format_specs const&, fmt::v11::detail::digit_grouping<char> const&)
PUBLIC 73c79 0 __ThumbV7PILongThunk__ZdlPv
PUBLIC 73c85 0 __ThumbV7PILongThunk___cxa_atexit
PUBLIC 73c91 0 __ThumbV7PILongThunk__ZN5geode5EventD2Ev
PUBLIC 73c9d 0 __ThumbV7PILongThunk__ZNSt6__ndk119__shared_weak_countD2Ev
PUBLIC 73ca9 0 __ThumbV7PILongThunk__ZN7cocos2d17CCTouchDispatcher19addTargetedDelegateEPNS_15CCTouchDelegateEib
PUBLIC 73cb5 0 __ThumbV7PILongThunk__ZN12FLAlertLayer7keyDownEN7cocos2d12enumKeyCodesE
PUBLIC 73cc1 0 __ThumbV7PILongThunk__ZN5geode21EventListenerProtocolD2Ev
PUBLIC 73ccd 0 __ThumbV7PILongThunk__ZN5geode24DefaultEventListenerPool3getEv
PUBLIC 73cd9 0 __ThumbV7PILongThunk__ZNSt6__ndk16localeD1Ev
PUBLIC 73ce5 0 __ThumbV7PILongThunk__ZN7cocos2d6CCNode5visitEv
PUBLIC 73cf1 0 __ThumbV7PILongThunk__ZN7cocos2d12CCLayerColor4drawEv
PUBLIC 73cfd 0 __ThumbV7PILongThunk__ZN5geode9addresser9Addresser19followThunkFunctionEi
PUBLIC 73d09 0 __ThumbV7PILongThunk__ZN16LevelEditorLayer4initEP11GJGameLevelb
PUBLIC 73d15 0 __ThumbV7PILongThunk__ZN13MenuGameLayer4initEv
PUBLIC 73d21 0 __ThumbV7PILongThunk__ZN12SimplePlayer12updateColorsEv
PUBLIC 73d2d 0 __ThumbV7PILongThunk__ZN11SliderThumb8getValueEv
PUBLIC 73d39 0 __ThumbV7PILongThunk__ZNSt6__ndk16locale5facetD2Ev
PUBLIC 73d50 0 <.plt ELF section in naxrin.chroma_icons.android32.so>
STACK CFI INIT 2c1c4 98 .cfa: sp 0 +
STACK CFI 2c1c6 .cfa: sp 16 + .ra: .cfa -4 + ^ r7: .cfa -8 + ^ r6: .cfa -12 + ^ r4: .cfa -16 + ^
STACK CFI 2c1c8 .cfa: r7 8 +
STACK CFI INIT 2c25c 98 .cfa: sp 0 +
STACK CFI 2c25e .cfa: sp 16 + .ra: .cfa -4 + ^ r7: .cfa -8 + ^ r6: .cfa -12 + ^ r4: .cfa -16 + ^
STACK CFI 2c260 .cfa: r7 8 +
STACK CFI INIT 2c494 10 .cfa: sp 0 +
STACK CFI 2c496 .cfa: sp 16 + .ra: .cfa -4 + ^ r7: .cfa -8 + ^ r6: .cfa -12 + ^ r4: .cfa -16 + ^
STACK CFI 2c498 .cfa: r7 8 +
STACK CFI INIT 2c4a4 4bc .cfa: sp 0 +
STACK CFI 2c4a6 .cfa: sp 20 + .ra: .cfa -4 + ^ r7: .cfa -8 + ^ r6: .cfa -12 + ^ r5: .cfa -16 + ^ r4: .cfa -20 + ^
STACK CFI 2c4a8 .cfa: r7 8 +
STACK CFI 2c4ac r11: .cfa -24 + ^ r10: .cfa -28 + ^ r9: .cfa -32 + ^ r8: .cfa -36 + ^
STACK CFI INIT 2c960 16 .cfa: sp 0 +
STACK CFI 2c962 .cfa: sp 16 + .ra: .cfa -4 + ^ r7: .cfa -8 + ^ r6: .cfa -12 + ^ r4: .cfa -16 + ^
STACK CFI 2c964 .cfa: r7 8 +
STACK CFI INIT 2c978 9c .cfa: sp 0 +
STACK CFI 2c97a .cfa: sp 20 + .ra: .cfa -4 + ^ r7: .cfa -8 + ^ r6: .cfa -12 + ^ r5: .cfa -16 + ^ r4: .cfa -20 + ^
STACK CFI 2c97c .cfa: r7 8 +
STACK CFI 2c980 r8: .cfa -24 + ^
STACK CFI INIT 2ca14 20 .cfa: sp 0 +
STACK CFI 2ca16 .cfa: sp 16 + .ra: .cfa -4 + ^ r7: .cfa -8 + ^ r6: .cfa -12 + ^ r4: .cfa -16 + ^
STACK CFI 2ca18 .cfa: r7 8 +
STACK CFI INIT 2ca34 14c .cfa: sp 0 +
STACK CFI 2ca36 .cfa: sp 20 + .ra: .cfa -4 + ^ r7: .cfa -8 + ^ r6: .cfa -12 + ^ r5: .cfa -16 + ^ r4: .cfa -20 + ^
STACK CFI 2ca38 .cfa: r7 8 +
STACK CFI 2ca3c r10: .cfa -24 + ^ r9: .cfa -28 + ^ r8: .cfa -32 + ^
STACK CFI INIT 2cb80 9f8 .cfa: sp 0 +
STACK CFI 2cb82 .cfa: sp 20 + .ra: .cfa -4 + ^ r7: .cfa -8 + ^ r6: .cfa -12 + ^ r5: .cfa -16 + ^ r4: .cfa -20 + ^
STACK CFI 2cb84 .cfa: r7 8 +
STACK CFI 2cb88 r11: .cfa -24 + ^ r10: .cfa -28 + ^ r9: .cfa -32 + ^ r8: .cfa -36 + ^
STACK CFI INIT 2d578 1c .cfa: sp 0 +
STACK CFI 2d57a .cfa: sp 16 + .ra: .cfa -4 + ^ r7: .cfa -8 + ^ r6: .cfa -12 + ^ r4: .cfa -16 + ^
STACK CFI 2d57c .cfa: r7 8 +
STACK CFI INIT 2d594 48 .cfa: sp 0 +
STACK CFI 2d596 .cfa: sp 12 +
STACK CFI 2d598 .cfa: sp 20 + .ra: .cfa -16 + ^ r7: .cfa -20 + ^
STACK CFI 2d59a .cfa: r7 20 +
STACK CFI INIT 2d5dc 38 .cfa: sp 0 +
STACK CFI 2d5de .cfa: sp 16 + .ra: .cfa -4 + ^ r7: .cfa -8 + ^ r5: .cfa -12 + ^ r4: .cfa -16 + ^
STACK CFI 2d5e0 .cfa: r7 8 +
STACK CFI INIT 2d614 38 .cfa: sp 0 +
STACK CFI 2d616 .cfa: sp 16 + .ra: .cfa -4 + ^ r7: .cfa -8 + ^ r5: .cfa -12 + ^ r4: .cfa -16 + ^
STACK CFI 2d618 .cfa: r7 8 +
STACK CFI INIT 2d64c 80 .cfa: sp 0 +
STACK CFI 2d64e .cfa: sp 20 + .ra: .cfa -4 + ^ r7: .cfa -8 + ^ r6: .cfa -12 + ^ r5: .cfa -16 + ^ r4: .cfa -20 + ^
STACK CFI 2d650 .cfa: r7 8 +
STACK CFI 2d654 r10: .cfa -24 + ^ r9: .cfa -28 + ^ r8: .cfa -32 + ^
STACK CFI INIT 2d6cc 6c .cfa: sp 0 +
STACK CFI 2d6ce .cfa: sp 16 + .ra: .cfa -4 + ^ r7: .cfa -8 + ^ r5: .cfa -12 + ^ r4: .cfa -16 + ^
STACK CFI 2d6d0 .cfa: r7 8 +
STACK CFI INIT 2d738 88 .cfa: sp 0 +
STACK CFI 2d73a .cfa: sp 20 + .ra: .cfa -4 + ^ r7: .cfa -8 + ^ r6: .cfa -12 + ^ r5: .cfa -16 + ^ r4: .cfa -20 + ^
STACK CFI 2d73c .cfa: r7 8 +
STACK CFI 2d740 r10: .cfa -24 + ^ r9: .cfa -28 + ^ r8: .cfa -32 + ^
STACK CFI INIT 2d7c0 50 .cfa: sp 0 +
STACK CFI 2d7c2 .cfa: sp 16 + .ra: .cfa -4 + ^ r7: .cfa -8 + ^ r5: .cfa -12 + ^ r4: .cfa -16 + ^
STACK CFI 2d7c4 .cfa: r7 8 +
STACK CFI INIT 2d810 40c .cfa: sp 0 +
STACK CFI 2d812 .cfa: sp 20 + .ra: .cfa -4 + ^ r7: .cfa -8 + ^ r6: .cfa -12 + ^ r5: .cfa -16 + ^ r4: .cfa -20 + ^
STACK CFI 2d814 .cfa: r7 8 +
STACK CFI 2d818 r10: .cfa -24 + ^ r9: .cfa -28 + ^ r8: .cfa -32 + ^
STACK CFI INIT 2dc20 420 .cfa: sp 0 +
STACK CFI 2dc22 .cfa: sp 20 + .ra: .cfa -4 + ^ r7: .cfa -8 + ^ r6: .cfa -12 + ^ r5: .cfa -16 + ^ r4: .cfa -20 + ^
STACK CFI 2dc24 .cfa: r7 8 +
STACK CFI 2dc28 r11: .cfa -24 + ^ r10: .cfa -28 + ^ r9: .cfa -32 + ^ r8: .cfa -36 + ^
STACK CFI INIT 2e040 bd0 .cfa: sp 0 +
STACK CFI 2e042 .cfa: sp 20 + .ra: .cfa -4 + ^ r7: .cfa -8 + ^ r6: .cfa -12 + ^ r5: .cfa -16 + ^ r4: .cfa -20 + ^
STACK CFI 2e044 .cfa: r7 8 +
STACK CFI 2e048 r11: .cfa -24 + ^ r10: .cfa -28 + ^ r9: .cfa -32 + ^ r8: .cfa -36 + ^
STACK CFI INIT 2ec10 69c .cfa: sp 0 +
STACK CFI 2ec12 .cfa: sp 20 + .ra: .cfa -4 + ^ r7: .cfa -8 + ^ r6: .cfa -12 + ^ r5: .cfa -16 + ^ r4: .cfa -20 + ^
STACK CFI 2ec14 .cfa: r7 8 +
STACK CFI 2ec18 r11: .cfa -24 + ^ r10: .cfa -28 + ^ r9: .cfa -32 + ^ r8: .cfa -36 + ^
STACK CFI INIT 2f2b0 268 .cfa: sp 0 +
STACK CFI 2f2b2 .cfa: sp 20 + .ra: .cfa -4 + ^ r7: .cfa -8 + ^ r6: .cfa -12 + ^ r5: .cfa -16 + ^ r4: .cfa -20 + ^
STACK CFI 2f2b4 .cfa: r7 8 +
STACK CFI 2f2b8 r11: .cfa -24 + ^ r10: .cfa -28 + ^ r9: .cfa -32 + ^ r8: .cfa -36 + ^
STACK CFI INIT 2f518 29c .cfa: sp 0 +
STACK CFI 2f51a .cfa: sp 20 + .ra: .cfa -4 + ^ r7: .cfa -8 + ^ r6: .cfa -12 + ^ r5: .cfa -16 + ^ r4: .cfa -20 + ^
STACK CFI 2f51c .cfa: r7 8 +
STACK CFI 2f520 r11: .cfa -24 + ^ r10: .cfa -28 + ^ r9: .cfa -32 + ^ r8: .cfa -36 + ^
STACK CFI INIT 2f7b4 114 .cfa: sp 0 +
STACK CFI 2f7b6 .cfa: sp 16 + .ra: .cfa -4 + ^ r7: .cfa -8 + ^ r6: .cfa -12 + ^ r4: .cfa -16 + ^
STACK CFI 2f7b8 .cfa: r7 8 +
STACK CFI INIT 2f8c8 3a .cfa: sp 0 +
STACK CFI 2f8ca .cfa: sp 16 + .ra: .cfa -4 + ^ r7: .cfa -8 + ^ r5: .cfa -12 + ^ r4: .cfa -16 + ^
STACK CFI 2f8cc .cfa: r7 8 +
STACK CFI INIT 2f902 3e .cfa: sp 0 +
STACK CFI 2f904 .cfa: sp 16 + .ra: .cfa -4 + ^ r7: .cfa -8 + ^ r5: .cfa -12 + ^ r4: .cfa -16 + ^
STACK CFI 2f906 .cfa: r7 8 +
STACK CFI INIT 2f940 88 .cfa: sp 0 +
STACK CFI 2f942 .cfa: sp 16 + .ra: .cfa -4 + ^ r7: .cfa -8 + ^ r6: .cfa -12 + ^ r4: .cfa -16 + ^
STACK CFI 2f944 .cfa: r7 8 +
STACK CFI INIT 2f9c8 1a4 .cfa: sp 0 +
STACK CFI 2f9ca .cfa: sp 20 + .ra: .cfa -4 + ^ r7: .cfa -8 + ^ r6: .cfa -12 + ^ r5: .cfa -16 + ^ r4: .cfa -20 + ^
STACK CFI 2f9cc .cfa: r7 8 +
STACK CFI 2f9d0 r11: .cfa -24 + ^ r9: .cfa -28 + ^ r8: .cfa -32 + ^
STACK CFI INIT 2fb6c 2c .cfa: sp 0 +
STACK CFI 2fb6e .cfa: sp 16 + .ra: .cfa -4 + ^ r7: .cfa -8 + ^ r6: .cfa -12 + ^ r4: .cfa -16 + ^
STACK CFI 2fb70 .cfa: r7 8 +
STACK CFI INIT 2fb98 c6 .cfa: sp 0 +
STACK CFI 2fb9a .cfa: sp 16 + .ra: .cfa -4 + ^ r7: .cfa -8 + ^ r5: .cfa -12 + ^ r4: .cfa -16 + ^
STACK CFI 2fb9c .cfa: r7 8 +
STACK CFI INIT 2fc60 64c .cfa: sp 0 +
STACK CFI 2fc62 .cfa: sp 20 + .ra: .cfa -4 + ^ r7: .cfa -8 + ^ r6: .cfa -12 + ^ r5: .cfa -16 + ^ r4: .cfa -20 + ^
STACK CFI 2fc64 .cfa: r7 8 +
STACK CFI 2fc68 r11: .cfa -24 + ^ r10: .cfa -28 + ^ r9: .cfa -32 + ^ r8: .cfa -36 + ^
STACK CFI INIT 302ac c .cfa: sp 0 +
STACK CFI 302ae .cfa: sp 8 + .ra: .cfa -4 + ^ r7: .cfa -8 + ^
STACK CFI 302b0 .cfa: r7 8 +
STACK CFI INIT 302b8 10 .cfa: sp 0 +
STACK CFI 302ba .cfa: sp 8 + .ra: .cfa -4 + ^ r7: .cfa -8 + ^
STACK CFI 302bc .cfa: r7 8 +
STACK CFI INIT 302c8 38 .cfa: sp 0 +
STACK CFI 302ca .cfa: sp 16 + .ra: .cfa -4 + ^ r7: .cfa -8 + ^ r5: .cfa -12 + ^ r4: .cfa -16 + ^
STACK CFI 302cc .cfa: r7 8 +
STACK CFI INIT 30300 18 .cfa: sp 0 +
STACK CFI 30302 .cfa: sp 8 + .ra: .cfa -4 + ^ r7: .cfa -8 + ^
STACK CFI 30304 .cfa: r7 8 +
STACK CFI INIT 30318 28 .cfa: sp 0 +
STACK CFI 3031a .cfa: sp 8 + .ra: .cfa -4 + ^ r7: .cfa -8 + ^
STACK CFI 3031c .cfa: r7 8 +
STACK CFI INIT 30340 b8 .cfa: sp 0 +
STACK CFI 30342 .cfa: sp 20 + .ra: .cfa -4 + ^ r7: .cfa -8 + ^ r6: .cfa -12 + ^ r5: .cfa -16 + ^ r4: .cfa -20 + ^
STACK CFI 30344 .cfa: r7 8 +
STACK CFI 30348 r11: .cfa -24 + ^ r10: .cfa -28 + ^ r9: .cfa -32 + ^ r8: .cfa -36 + ^
STACK CFI INIT 303f8 106 .cfa: sp 0 +
STACK CFI 303fa .cfa: sp 20 + .ra: .cfa -4 + ^ r7: .cfa -8 + ^ r6: .cfa -12 + ^ r5: .cfa -16 + ^ r4: .cfa -20 + ^
STACK CFI 303fc .cfa: r7 8 +
STACK CFI 30400 r11: .cfa -24 + ^
STACK CFI INIT 304fe 14a .cfa: sp 0 +
STACK CFI 30510 .cfa: sp 16 + .ra: .cfa -4 + ^ r7: .cfa -8 + ^ r6: .cfa -12 + ^ r4: .cfa -16 + ^
STACK CFI 30512 .cfa: r7 8 +
STACK CFI INIT 30648 28 .cfa: sp 0 +
STACK CFI 30650 .cfa: sp 16 + .ra: .cfa -4 + ^ r7: .cfa -8 + ^ r5: .cfa -12 + ^ r4: .cfa -16 + ^
STACK CFI 30652 .cfa: r7 8 +
STACK CFI INIT 30670 10 .cfa: sp 0 +
STACK CFI 30672 .cfa: sp 8 + .ra: .cfa -4 + ^ r7: .cfa -8 + ^
STACK CFI 30674 .cfa: r7 8 +
STACK CFI INIT 30680 10 .cfa: sp 0 +
STACK CFI 30682 .cfa: sp 8 + .ra: .cfa -4 + ^ r7: .cfa -8 + ^
STACK CFI 30684 .cfa: r7 8 +
STACK CFI INIT 30690 198 .cfa: sp 0 +
STACK CFI 30692 .cfa: sp 20 + .ra: .cfa -4 + ^ r7: .cfa -8 + ^ r6: .cfa -12 + ^ r5: .cfa -16 + ^ r4: .cfa -20 + ^
STACK CFI 30694 .cfa: r7 8 +
STACK CFI 30698 r11: .cfa -24 + ^ r10: .cfa -28 + ^ r9: .cfa -32 + ^ r8: .cfa -36 + ^
STACK CFI INIT 30828 4 .cfa: sp 0 +
STACK CFI INIT 3082c 10 .cfa: sp 0 +
STACK CFI 3082e .cfa: sp 8 + .ra: .cfa -4 + ^ r7: .cfa -8 + ^
STACK CFI 30830 .cfa: r7 8 +
STACK CFI INIT 3083c d0 .cfa: sp 0 +
STACK CFI 3083e .cfa: sp 20 + .ra: .cfa -4 + ^ r7: .cfa -8 + ^ r6: .cfa -12 + ^ r5: .cfa -16 + ^ r4: .cfa -20 + ^
STACK CFI 30840 .cfa: r7 8 +
STACK CFI 30844 r11: .cfa -24 + ^ r9: .cfa -28 + ^ r8: .cfa -32 + ^
STACK CFI INIT 3090c 10 .cfa: sp 0 +
STACK CFI 3090e .cfa: sp 8 + .ra: .cfa -4 + ^ r7: .cfa -8 + ^
STACK CFI 30910 .cfa: r7 8 +
STACK CFI INIT 3091c e .cfa: sp 0 +
STACK CFI INIT 3092a 10 .cfa: sp 0 +
STACK CFI 3092c .cfa: sp 8 + .ra: .cfa -4 + ^ r7: .cfa -8 + ^
STACK CFI 3092e .cfa: r7 8 +
STACK CFI INIT 30940 198 .cfa: sp 0 +
STACK CFI 30942 .cfa: sp 20 + .ra: .cfa -4 + ^ r7: .cfa -8 + ^ r6: .cfa -12 + ^ r5: .cfa -16 + ^ r4: .cfa -20 + ^
STACK CFI 30944 .cfa: r7 8 +
STACK CFI 30948 r11: .cfa -24 + ^ r10: .cfa -28 + ^ r9: .cfa -32 + ^ r8: .cfa -36 + ^
STACK CFI INIT 30ad8 22e .cfa: sp 0 +
STACK CFI 30ada .cfa: sp 20 + .ra: .cfa -4 + ^ r7: .cfa -8 + ^ r6: .cfa -12 + ^ r5: .cfa -16 + ^ r4: .cfa -20 + ^
STACK CFI 30adc .cfa: r7 8 +
STACK CFI 30ae0 r11: .cfa -24 + ^ r10: .cfa -28 + ^ r9: .cfa -32 + ^ r8: .cfa -36 + ^
STACK CFI INIT 30d06 10 .cfa: sp 0 +
STACK CFI 30d08 .cfa: sp 8 + .ra: .cfa -4 + ^ r7: .cfa -8 + ^
STACK CFI 30d0a .cfa: r7 8 +
STACK CFI INIT 30d18 d0 .cfa: sp 0 +
STACK CFI 30d1a .cfa: sp 20 + .ra: .cfa -4 + ^ r7: .cfa -8 + ^ r6: .cfa -12 + ^ r5: .cfa -16 + ^ r4: .cfa -20 + ^
STACK CFI 30d1c .cfa: r7 8 +
STACK CFI 30d20 r11: .cfa -24 + ^ r9: .cfa -28 + ^ r8: .cfa -32 + ^
STACK CFI INIT 30de8 10 .cfa: sp 0 +
STACK CFI 30dea .cfa: sp 8 + .ra: .cfa -4 + ^ r7: .cfa -8 + ^
STACK CFI 30dec .cfa: r7 8 +
STACK CFI INIT 30df8 e .cfa: sp 0 +
STACK CFI INIT 30e06 10 .cfa: sp 0 +
STACK CFI 30e08 .cfa: sp 8 + .ra: .cfa -4 + ^ r7: .cfa -8 + ^
STACK CFI 30e0a .cfa: r7 8 +
STACK CFI INIT 30e18 198 .cfa: sp 0 +
STACK CFI 30e1a .cfa: sp 20 + .ra: .cfa -4 + ^ r7: .cfa -8 + ^ r6: .cfa -12 + ^ r5: .cfa -16 + ^ r4: .cfa -20 + ^
STACK CFI 30e1c .cfa: r7 8 +
STACK CFI 30e20 r11: .cfa -24 + ^ r10: .cfa -28 + ^ r9: .cfa -32 + ^ r8: .cfa -36 + ^
STACK CFI INIT 30fb0 10 .cfa: sp 0 +
STACK CFI 30fb2 .cfa: sp 8 + .ra: .cfa -4 + ^ r7: .cfa -8 + ^
STACK CFI 30fb4 .cfa: r7 8 +
STACK CFI INIT 30fc0 c .cfa: sp 0 +
STACK CFI INIT 30fcc 10 .cfa: sp 0 +
STACK CFI 30fce .cfa: sp 8 + .ra: .cfa -4 + ^ r7: .cfa -8 + ^
STACK CFI 30fd0 .cfa: r7 8 +
STACK CFI INIT 30fdc e .cfa: sp 0 +
STACK CFI INIT 30fea 10 .cfa: sp 0 +
STACK CFI 30fec .cfa: sp 8 + .ra: .cfa -4 + ^ r7: .cfa -8 + ^
STACK CFI 30fee .cfa: r7 8 +
STACK CFI INIT 30ffc d8 .cfa: sp 0 +
STACK CFI 30ffe .cfa: sp 20 + .ra: .cfa -4 + ^ r7: .cfa -8 + ^ r6: .cfa -12 + ^ r5: .cfa -16 + ^ r4: .cfa -20 + ^
STACK CFI 31000 .cfa: r7 8 +
STACK CFI 31004 r10: .cfa -24 + ^ r9: .cfa -28 + ^ r8: .cfa -32 + ^
STACK CFI INIT 310d4 10 .cfa: sp 0 +
STACK CFI 310d6 .cfa: sp 8 + .ra: .cfa -4 + ^ r7: .cfa -8 + ^
STACK CFI 310d8 .cfa: r7 8 +
STACK CFI INIT 310e8 198 .cfa: sp 0 +
STACK CFI 310ea .cfa: sp 20 + .ra: .cfa -4 + ^ r7: .cfa -8 + ^ r6: .cfa -12 + ^ r5: .cfa -16 + ^ r4: .cfa -20 + ^
STACK CFI 310ec .cfa: r7 8 +
STACK CFI 310f0 r11: .cfa -24 + ^ r10: .cfa -28 + ^ r9: .cfa -32 + ^ r8: .cfa -36 + ^
STACK CFI INIT 31280 10 .cfa: sp 0 +
STACK CFI 31282 .cfa: sp 8 + .ra: .cfa -4 + ^ r7: .cfa -8 + ^
STACK CFI 31284 .cfa: r7 8 +
STACK CFI INIT 31290 198 .cfa: sp 0 +
STACK CFI 31292 .cfa: sp 20 + .ra: .cfa -4 + ^ r7: .cfa -8 + ^ r6: .cfa -12 + ^ r5: .cfa -16 + ^ r4: .cfa -20 + ^
STACK CFI 31294 .cfa: r7 8 +
STACK CFI 31298 r11: .cfa -24 + ^ r10: .cfa -28 + ^ r9: .cfa -32 + ^ r8: .cfa -36 + ^
STACK CFI INIT 31428 10 .cfa: sp 0 +
STACK CFI 3142a .cfa: sp 8 + .ra: .cfa -4 + ^ r7: .cfa -8 + ^
STACK CFI 3142c .cfa: r7 8 +
STACK CFI INIT 31438 d0 .cfa: sp 0 +
STACK CFI 3143a .cfa: sp 20 + .ra: .cfa -4 + ^ r7: .cfa -8 + ^ r6: .cfa -12 + ^ r5: .cfa -16 + ^ r4: .cfa -20 + ^
STACK CFI 3143c .cfa: r7 8 +
STACK CFI 31440 r11: .cfa -24 + ^ r9: .cfa -28 + ^ r8: .cfa -32 + ^
STACK CFI INIT 31508 10 .cfa: sp 0 +
STACK CFI 3150a .cfa: sp 8 + .ra: .cfa -4 + ^ r7: .cfa -8 + ^
STACK CFI 3150c .cfa: r7 8 +
STACK CFI INIT 31518 e .cfa: sp 0 +
STACK CFI INIT 31526 10 .cfa: sp 0 +
STACK CFI 31528 .cfa: sp 8 + .ra: .cfa -4 + ^ r7: .cfa -8 + ^
STACK CFI 3152a .cfa: r7 8 +
STACK CFI INIT 31536 8 .cfa: sp 0 +
STACK CFI INIT 31540 d4 .cfa: sp 0 +
STACK CFI 31542 .cfa: sp 16 + .ra: .cfa -4 + ^ r7: .cfa -8 + ^ r5: .cfa -12 + ^ r4: .cfa -16 + ^
STACK CFI 31544 .cfa: r7 8 +
STACK CFI INIT 31614 44 .cfa: sp 0 +
STACK CFI 31616 .cfa: sp 16 + .ra: .cfa -4 + ^ r7: .cfa -8 + ^ r5: .cfa -12 + ^ r4: .cfa -16 + ^
STACK CFI 31618 .cfa: r7 8 +
STACK CFI INIT 31658 40 .cfa: sp 0 +
STACK CFI 3165a .cfa: sp 16 + .ra: .cfa -4 + ^ r7: .cfa -8 + ^ r5: .cfa -12 + ^ r4: .cfa -16 + ^
STACK CFI 3165c .cfa: r7 8 +
STACK CFI INIT 31698 10 .cfa: sp 0 +
STACK CFI INIT 316a8 1c .cfa: sp 0 +
STACK CFI 316aa .cfa: sp 8 + .ra: .cfa -4 + ^ r7: .cfa -8 + ^
STACK CFI 316ac .cfa: r7 8 +
STACK CFI INIT 316c4 2 .cfa: sp 0 +
STACK CFI INIT 316c6 4 .cfa: sp 0 +
STACK CFI INIT 316ca 10 .cfa: sp 0 +
STACK CFI 316cc .cfa: sp 8 + .ra: .cfa -4 + ^ r7: .cfa -8 + ^
STACK CFI 316ce .cfa: r7 8 +
STACK CFI INIT 316da 8 .cfa: sp 0 +
STACK CFI INIT 316e2 10 .cfa: sp 0 +
STACK CFI 316e4 .cfa: sp 8 + .ra: .cfa -4 + ^ r7: .cfa -8 + ^
STACK CFI 316e6 .cfa: r7 8 +
STACK CFI INIT 316f8 198 .cfa: sp 0 +
STACK CFI 316fa .cfa: sp 20 + .ra: .cfa -4 + ^ r7: .cfa -8 + ^ r6: .cfa -12 + ^ r5: .cfa -16 + ^ r4: .cfa -20 + ^
STACK CFI 316fc .cfa: r7 8 +
STACK CFI 31700 r11: .cfa -24 + ^ r10: .cfa -28 + ^ r9: .cfa -32 + ^ r8: .cfa -36 + ^
STACK CFI INIT 31890 60 .cfa: sp 0 +
STACK CFI 31892 .cfa: sp 16 + .ra: .cfa -4 + ^ r7: .cfa -8 + ^ r6: .cfa -12 + ^ r4: .cfa -16 + ^
STACK CFI 31894 .cfa: r7 8 +
STACK CFI INIT 318f0 c0 .cfa: sp 0 +
STACK CFI 318f2 .cfa: sp 16 + .ra: .cfa -4 + ^ r7: .cfa -8 + ^ r6: .cfa -12 + ^ r4: .cfa -16 + ^
STACK CFI 318f4 .cfa: r7 8 +
STACK CFI INIT 319b0 34 .cfa: sp 0 +
STACK CFI 319b2 .cfa: sp 8 + .ra: .cfa -4 + ^ r7: .cfa -8 + ^
STACK CFI 319b4 .cfa: r7 8 +
STACK CFI INIT 319e4 46 .cfa: sp 0 +
STACK CFI 319e6 .cfa: sp 20 + .ra: .cfa -4 + ^ r7: .cfa -8 + ^ r6: .cfa -12 + ^ r5: .cfa -16 + ^ r4: .cfa -20 + ^
STACK CFI 319e8 .cfa: r7 8 +
STACK CFI 319ec r8: .cfa -24 + ^
STACK CFI INIT 31a2a 2 .cfa: sp 0 +
STACK CFI INIT 31a2c e .cfa: sp 0 +
STACK CFI INIT 31a3a 2 .cfa: sp 0 +
STACK CFI INIT 31a3c e .cfa: sp 0 +
STACK CFI INIT 31a4a 2 .cfa: sp 0 +
STACK CFI INIT 31a4c e .cfa: sp 0 +
STACK CFI INIT 31a5a 28 .cfa: sp 0 +
STACK CFI 31a62 .cfa: sp 16 + .ra: .cfa -4 + ^ r7: .cfa -8 + ^ r5: .cfa -12 + ^ r4: .cfa -16 + ^
STACK CFI 31a64 .cfa: r7 8 +
STACK CFI INIT 31a82 ba .cfa: sp 0 +
STACK CFI 31a84 .cfa: sp 20 + .ra: .cfa -4 + ^ r7: .cfa -8 + ^ r6: .cfa -12 + ^ r5: .cfa -16 + ^ r4: .cfa -20 + ^
STACK CFI 31a86 .cfa: r7 8 +
STACK CFI 31a8a r11: .cfa -24 + ^ r10: .cfa -28 + ^ r9: .cfa -32 + ^ r8: .cfa -36 + ^
STACK CFI INIT 31b3c 10c .cfa: sp 0 +
STACK CFI 31b3e .cfa: sp 20 + .ra: .cfa -4 + ^ r7: .cfa -8 + ^ r6: .cfa -12 + ^ r5: .cfa -16 + ^ r4: .cfa -20 + ^
STACK CFI 31b40 .cfa: r7 8 +
STACK CFI 31b44 r11: .cfa -24 + ^
STACK CFI INIT 31c48 2 .cfa: sp 0 +
STACK CFI INIT 31c4a e .cfa: sp 0 +
STACK CFI INIT 31c58 120 .cfa: sp 0 +
STACK CFI 31c5a .cfa: sp 20 + .ra: .cfa -4 + ^ r7: .cfa -8 + ^ r6: .cfa -12 + ^ r5: .cfa -16 + ^ r4: .cfa -20 + ^
STACK CFI 31c5c .cfa: r7 8 +
STACK CFI 31c60 r11: .cfa -24 + ^
STACK CFI INIT 2c2f4 1a0 .cfa: sp 0 +
STACK CFI 2c2f6 .cfa: sp 20 + .ra: .cfa -4 + ^ r7: .cfa -8 + ^ r6: .cfa -12 + ^ r5: .cfa -16 + ^ r4: .cfa -20 + ^
STACK CFI 2c2f8 .cfa: r7 8 +
STACK CFI 2c2fc r11: .cfa -24 + ^ r10: .cfa -28 + ^ r9: .cfa -32 + ^ r8: .cfa -36 + ^
STACK CFI INIT 31d78 98 .cfa: sp 0 +
STACK CFI 31d7a .cfa: sp 16 + .ra: .cfa -4 + ^ r7: .cfa -8 + ^ r6: .cfa -12 + ^ r4: .cfa -16 + ^
STACK CFI 31d7c .cfa: r7 8 +
STACK CFI INIT 31f7c b38 .cfa: sp 0 +
STACK CFI 31f7e .cfa: sp 20 + .ra: .cfa -4 + ^ r7: .cfa -8 + ^ r6: .cfa -12 + ^ r5: .cfa -16 + ^ r4: .cfa -20 + ^
STACK CFI 31f80 .cfa: r7 8 +
STACK CFI 31f84 r11: .cfa -24 + ^ r10: .cfa -28 + ^ r9: .cfa -32 + ^ r8: .cfa -36 + ^
STACK CFI INIT 32ab4 13c .cfa: sp 0 +
STACK CFI 32ab6 .cfa: sp 20 + .ra: .cfa -4 + ^ r7: .cfa -8 + ^ r6: .cfa -12 + ^ r5: .cfa -16 + ^ r4: .cfa -20 + ^
STACK CFI 32ab8 .cfa: r7 8 +
STACK CFI 32abc r11: .cfa -24 + ^ r10: .cfa -28 + ^ r9: .cfa -32 + ^ r8: .cfa -36 + ^
STACK CFI INIT 32bf0 894 .cfa: sp 0 +
STACK CFI 32bf2 .cfa: sp 20 + .ra: .cfa -4 + ^ r7: .cfa -8 + ^ r6: .cfa -12 + ^ r5: .cfa -16 + ^ r4: .cfa -20 + ^
STACK CFI 32bf4 .cfa: r7 8 +
STACK CFI 32bf8 r11: .cfa -24 + ^ r10: .cfa -28 + ^ r9: .cfa -32 + ^ r8: .cfa -36 + ^
STACK CFI INIT 33484 94 .cfa: sp 0 +
STACK CFI 33486 .cfa: sp 20 + .ra: .cfa -4 + ^ r7: .cfa -8 + ^ r6: .cfa -12 + ^ r5: .cfa -16 + ^ r4: .cfa -20 + ^
STACK CFI 33488 .cfa: r7 8 +
STACK CFI 3348c r8: .cfa -24 + ^
STACK CFI INIT 33520 fdc .cfa: sp 0 +
STACK CFI 33522 .cfa: sp 20 + .ra: .cfa -4 + ^ r7: .cfa -8 + ^ r6: .cfa -12 + ^ r5: .cfa -16 + ^ r4: .cfa -20 + ^
STACK CFI 33524 .cfa: r7 8 +
STACK CFI 33528 r11: .cfa -24 + ^ r10: .cfa -28 + ^ r9: .cfa -32 + ^ r8: .cfa -36 + ^
STACK CFI INIT 344fc a4 .cfa: sp 0 +
STACK CFI 344fe .cfa: sp 20 + .ra: .cfa -4 + ^ r7: .cfa -8 + ^ r6: .cfa -12 + ^ r5: .cfa -16 + ^ r4: .cfa -20 + ^
STACK CFI 34500 .cfa: r7 8 +
STACK CFI 34504 r11: .cfa -24 + ^ r9: .cfa -28 + ^ r8: .cfa -32 + ^
STACK CFI INIT 345a0 b4 .cfa: sp 0 +
STACK CFI 345a2 .cfa: sp 16 + .ra: .cfa -4 + ^ r7: .cfa -8 + ^ r6: .cfa -12 + ^ r4: .cfa -16 + ^
STACK CFI 345a4 .cfa: r7 8 +
STACK CFI INIT 34654 b28 .cfa: sp 0 +
STACK CFI 34656 .cfa: sp 20 + .ra: .cfa -4 + ^ r7: .cfa -8 + ^ r6: .cfa -12 + ^ r5: .cfa -16 + ^ r4: .cfa -20 + ^
STACK CFI 34658 .cfa: r7 8 +
STACK CFI 3465c r11: .cfa -24 + ^ r10: .cfa -28 + ^ r9: .cfa -32 + ^ r8: .cfa -36 + ^
STACK CFI INIT 3517c 9c .cfa: sp 0 +
STACK CFI 3517e .cfa: sp 20 + .ra: .cfa -4 + ^ r7: .cfa -8 + ^ r6: .cfa -12 + ^ r5: .cfa -16 + ^ r4: .cfa -20 + ^
STACK CFI 35180 .cfa: r7 8 +
STACK CFI 35184 r8: .cfa -24 + ^
STACK CFI INIT 35220 984 .cfa: sp 0 +
STACK CFI 35222 .cfa: sp 20 + .ra: .cfa -4 + ^ r7: .cfa -8 + ^ r6: .cfa -12 + ^ r5: .cfa -16 + ^ r4: .cfa -20 + ^
STACK CFI 35224 .cfa: r7 8 +
STACK CFI 35228 r11: .cfa -24 + ^ r10: .cfa -28 + ^ r9: .cfa -32 + ^ r8: .cfa -36 + ^
STACK CFI INIT 35ba4 118 .cfa: sp 0 +
STACK CFI 35ba6 .cfa: sp 20 + .ra: .cfa -4 + ^ r7: .cfa -8 + ^ r6: .cfa -12 + ^ r5: .cfa -16 + ^ r4: .cfa -20 + ^
STACK CFI 35ba8 .cfa: r7 8 +
STACK CFI 35bac r11: .cfa -24 + ^ r10: .cfa -28 + ^ r9: .cfa -32 + ^ r8: .cfa -36 + ^
STACK CFI INIT 35cbc 110 .cfa: sp 0 +
STACK CFI 35cbe .cfa: sp 20 + .ra: .cfa -4 + ^ r7: .cfa -8 + ^ r6: .cfa -12 + ^ r5: .cfa -16 + ^ r4: .cfa -20 + ^
STACK CFI 35cc0 .cfa: r7 8 +
STACK CFI 35cc4 r10: .cfa -24 + ^ r9: .cfa -28 + ^ r8: .cfa -32 + ^
STACK CFI INIT 35dcc a74 .cfa: sp 0 +
STACK CFI 35dce .cfa: sp 20 + .ra: .cfa -4 + ^ r7: .cfa -8 + ^ r6: .cfa -12 + ^ r5: .cfa -16 + ^ r4: .cfa -20 + ^
STACK CFI 35dd0 .cfa: r7 8 +
STACK CFI 35dd4 r11: .cfa -24 + ^ r10: .cfa -28 + ^ r9: .cfa -32 + ^ r8: .cfa -36 + ^
STACK CFI INIT 36840 4 .cfa: sp 0 +
STACK CFI INIT 36844 1d0 .cfa: sp 0 +
STACK CFI 36846 .cfa: sp 16 + .ra: .cfa -4 + ^ r7: .cfa -8 + ^ r5: .cfa -12 + ^ r4: .cfa -16 + ^
STACK CFI 36848 .cfa: r7 8 +
STACK CFI INIT 36a14 10 .cfa: sp 0 +
STACK CFI 36a16 .cfa: sp 8 + .ra: .cfa -4 + ^ r7: .cfa -8 + ^
STACK CFI 36a18 .cfa: r7 8 +
STACK CFI INIT 36a24 20 .cfa: sp 0 +
STACK CFI 36a26 .cfa: sp 16 + .ra: .cfa -4 + ^ r7: .cfa -8 + ^ r6: .cfa -12 + ^ r4: .cfa -16 + ^
STACK CFI 36a28 .cfa: r7 8 +
STACK CFI INIT 36a44 a .cfa: sp 0 +
STACK CFI INIT 36a4e 18 .cfa: sp 0 +
STACK CFI INIT 36a66 2 .cfa: sp 0 +
STACK CFI INIT 36a68 4 .cfa: sp 0 +
STACK CFI INIT 36a6c 8 .cfa: sp 0 +
STACK CFI INIT 36a74 14 .cfa: sp 0 +
STACK CFI 36a76 .cfa: sp 8 + .ra: .cfa -4 + ^ r7: .cfa -8 + ^
STACK CFI 36a78 .cfa: r7 8 +
STACK CFI INIT 36a88 16 .cfa: sp 0 +
STACK CFI INIT 36a9e 1c .cfa: sp 0 +
STACK CFI INIT 36aba 2 .cfa: sp 0 +
STACK CFI INIT 36abc 2 .cfa: sp 0 +
STACK CFI INIT 36abe 2 .cfa: sp 0 +
STACK CFI INIT 36ac0 2 .cfa: sp 0 +
STACK CFI INIT 36ac2 2 .cfa: sp 0 +
STACK CFI INIT 36ac4 4 .cfa: sp 0 +
STACK CFI INIT 36ac8 2 .cfa: sp 0 +
STACK CFI INIT 36aca 4 .cfa: sp 0 +
STACK CFI INIT 36ace 6 .cfa: sp 0 +
STACK CFI INIT 36ad4 6 .cfa: sp 0 +
STACK CFI INIT 36adc 84 .cfa: sp 0 +
STACK CFI 36ade .cfa: sp 20 + .ra: .cfa -4 + ^ r7: .cfa -8 + ^ r6: .cfa -12 + ^ r5: .cfa -16 + ^ r4: .cfa -20 + ^
STACK CFI 36ae0 .cfa: r7 8 +
STACK CFI 36ae4 r11: .cfa -24 + ^
STACK CFI INIT 36b60 2 .cfa: sp 0 +
STACK CFI INIT 36b62 4 .cfa: sp 0 +
STACK CFI INIT 36b68 34 .cfa: sp 0 +
STACK CFI 36b6a .cfa: sp 8 + .ra: .cfa -4 + ^ r7: .cfa -8 + ^
STACK CFI 36b6c .cfa: r7 8 +
STACK CFI INIT 36b9c 10 .cfa: sp 0 +
STACK CFI 36b9e .cfa: sp 8 + .ra: .cfa -4 + ^ r7: .cfa -8 + ^
STACK CFI 36ba0 .cfa: r7 8 +
STACK CFI INIT 36bac 1d8 .cfa: sp 0 +
STACK CFI 36bae .cfa: sp 20 + .ra: .cfa -4 + ^ r7: .cfa -8 + ^ r6: .cfa -12 + ^ r5: .cfa -16 + ^ r4: .cfa -20 + ^
STACK CFI 36bb0 .cfa: r7 8 +
STACK CFI 36bb4 r8: .cfa -24 + ^
STACK CFI INIT 36d84 10 .cfa: sp 0 +
STACK CFI 36d86 .cfa: sp 8 + .ra: .cfa -4 + ^ r7: .cfa -8 + ^
STACK CFI 36d88 .cfa: r7 8 +
STACK CFI INIT 36d94 8 .cfa: sp 0 +
STACK CFI INIT 36d9c 14 .cfa: sp 0 +
STACK CFI 36d9e .cfa: sp 8 + .ra: .cfa -4 + ^ r7: .cfa -8 + ^
STACK CFI 36da0 .cfa: r7 8 +
STACK CFI INIT 36db0 70 .cfa: sp 0 +
STACK CFI 36db2 .cfa: sp 16 + .ra: .cfa -4 + ^ r7: .cfa -8 + ^ r5: .cfa -12 + ^ r4: .cfa -16 + ^
STACK CFI 36db4 .cfa: r7 8 +
STACK CFI INIT 36e20 74 .cfa: sp 0 +
STACK CFI 36e22 .cfa: sp 16 + .ra: .cfa -4 + ^ r7: .cfa -8 + ^ r5: .cfa -12 + ^ r4: .cfa -16 + ^
STACK CFI 36e24 .cfa: r7 8 +
STACK CFI INIT 36e94 fc .cfa: sp 0 +
STACK CFI 36e96 .cfa: sp 20 + .ra: .cfa -4 + ^ r7: .cfa -8 + ^ r6: .cfa -12 + ^ r5: .cfa -16 + ^ r4: .cfa -20 + ^
STACK CFI 36e98 .cfa: r7 8 +
STACK CFI 36e9c r10: .cfa -24 + ^ r9: .cfa -28 + ^ r8: .cfa -32 + ^
STACK CFI INIT 36f90 14c .cfa: sp 0 +
STACK CFI 36f92 .cfa: sp 20 + .ra: .cfa -4 + ^ r7: .cfa -8 + ^ r6: .cfa -12 + ^ r5: .cfa -16 + ^ r4: .cfa -20 + ^
STACK CFI 36f94 .cfa: r7 8 +
STACK CFI 36f98 r11: .cfa -24 + ^ r10: .cfa -28 + ^ r9: .cfa -32 + ^ r8: .cfa -36 + ^
STACK CFI INIT 370dc 74 .cfa: sp 0 +
STACK CFI 370de .cfa: sp 16 + .ra: .cfa -4 + ^ r7: .cfa -8 + ^ r5: .cfa -12 + ^ r4: .cfa -16 + ^
STACK CFI 370e0 .cfa: r7 8 +
STACK CFI INIT 37150 78 .cfa: sp 0 +
STACK CFI 37152 .cfa: sp 16 + .ra: .cfa -4 + ^ r7: .cfa -8 + ^ r5: .cfa -12 + ^ r4: .cfa -16 + ^
STACK CFI 37154 .cfa: r7 8 +
STACK CFI INIT 371c8 16 .cfa: sp 0 +
STACK CFI 371ca .cfa: sp 16 + .ra: .cfa -4 + ^ r7: .cfa -8 + ^ r6: .cfa -12 + ^ r4: .cfa -16 + ^
STACK CFI 371cc .cfa: r7 8 +
STACK CFI INIT 371e0 10 .cfa: sp 0 +
STACK CFI 371e2 .cfa: sp 8 + .ra: .cfa -4 + ^ r7: .cfa -8 + ^
STACK CFI 371e4 .cfa: r7 8 +
STACK CFI INIT 371f0 10 .cfa: sp 0 +
STACK CFI 371f2 .cfa: sp 8 + .ra: .cfa -4 + ^ r7: .cfa -8 + ^
STACK CFI 371f4 .cfa: r7 8 +
STACK CFI INIT 37200 10 .cfa: sp 0 +
STACK CFI 37202 .cfa: sp 8 + .ra: .cfa -4 + ^ r7: .cfa -8 + ^
STACK CFI 37204 .cfa: r7 8 +
STACK CFI INIT 37210 8 .cfa: sp 0 +
STACK CFI INIT 37218 14 .cfa: sp 0 +
STACK CFI 3721a .cfa: sp 8 + .ra: .cfa -4 + ^ r7: .cfa -8 + ^
STACK CFI 3721c .cfa: r7 8 +
STACK CFI INIT 3722c 10 .cfa: sp 0 +
STACK CFI 3722e .cfa: sp 8 + .ra: .cfa -4 + ^ r7: .cfa -8 + ^
STACK CFI 37230 .cfa: r7 8 +
STACK CFI INIT 3723c 8 .cfa: sp 0 +
STACK CFI INIT 37244 14 .cfa: sp 0 +
STACK CFI 37246 .cfa: sp 8 + .ra: .cfa -4 + ^ r7: .cfa -8 + ^
STACK CFI 37248 .cfa: r7 8 +
STACK CFI INIT 37258 38 .cfa: sp 0 +
STACK CFI 3725a .cfa: sp 16 + .ra: .cfa -4 + ^ r7: .cfa -8 + ^ r6: .cfa -12 + ^ r4: .cfa -16 + ^
STACK CFI 3725c .cfa: r7 8 +
STACK CFI INIT 37290 38 .cfa: sp 0 +
STACK CFI 37292 .cfa: sp 16 + .ra: .cfa -4 + ^ r7: .cfa -8 + ^ r6: .cfa -12 + ^ r4: .cfa -16 + ^
STACK CFI 37294 .cfa: r7 8 +
STACK CFI INIT 372c8 38 .cfa: sp 0 +
STACK CFI 372ca .cfa: sp 16 + .ra: .cfa -4 + ^ r7: .cfa -8 + ^ r6: .cfa -12 + ^ r4: .cfa -16 + ^
STACK CFI 372cc .cfa: r7 8 +
STACK CFI INIT 37300 38 .cfa: sp 0 +
STACK CFI 37302 .cfa: sp 16 + .ra: .cfa -4 + ^ r7: .cfa -8 + ^ r6: .cfa -12 + ^ r4: .cfa -16 + ^
STACK CFI 37304 .cfa: r7 8 +
STACK CFI INIT 37338 4 .cfa: sp 0 +
STACK CFI INIT 3733c dc .cfa: sp 0 +
STACK CFI 3733e .cfa: sp 16 + .ra: .cfa -4 + ^ r7: .cfa -8 + ^ r5: .cfa -12 + ^ r4: .cfa -16 + ^
STACK CFI 37340 .cfa: r7 8 +
STACK CFI INIT 37418 3c .cfa: sp 0 +
STACK CFI 3741a .cfa: sp 16 + .ra: .cfa -4 + ^ r7: .cfa -8 + ^ r6: .cfa -12 + ^ r4: .cfa -16 + ^
STACK CFI 3741c .cfa: r7 8 +
STACK CFI INIT 37454 8c .cfa: sp 0 +
STACK CFI 37456 .cfa: sp 20 + .ra: .cfa -4 + ^ r7: .cfa -8 + ^ r6: .cfa -12 + ^ r5: .cfa -16 + ^ r4: .cfa -20 + ^
STACK CFI 37458 .cfa: r7 8 +
STACK CFI 3745c r11: .cfa -24 + ^ r9: .cfa -28 + ^ r8: .cfa -32 + ^
STACK CFI INIT 374e0 4 .cfa: sp 0 +
STACK CFI INIT 374e4 dc .cfa: sp 0 +
STACK CFI 374e6 .cfa: sp 16 + .ra: .cfa -4 + ^ r7: .cfa -8 + ^ r5: .cfa -12 + ^ r4: .cfa -16 + ^
STACK CFI 374e8 .cfa: r7 8 +
STACK CFI INIT 375c0 3c .cfa: sp 0 +
STACK CFI 375c2 .cfa: sp 16 + .ra: .cfa -4 + ^ r7: .cfa -8 + ^ r6: .cfa -12 + ^ r4: .cfa -16 + ^
STACK CFI 375c4 .cfa: r7 8 +
STACK CFI INIT 375fc 4 .cfa: sp 0 +
STACK CFI INIT 37600 dc .cfa: sp 0 +
STACK CFI 37602 .cfa: sp 16 + .ra: .cfa -4 + ^ r7: .cfa -8 + ^ r5: .cfa -12 + ^ r4: .cfa -16 + ^
STACK CFI 37604 .cfa: r7 8 +
STACK CFI INIT 376dc 3c .cfa: sp 0 +
STACK CFI 376de .cfa: sp 16 + .ra: .cfa -4 + ^ r7: .cfa -8 + ^ r6: .cfa -12 + ^ r4: .cfa -16 + ^
STACK CFI 376e0 .cfa: r7 8 +
STACK CFI INIT 37718 4 .cfa: sp 0 +
STACK CFI INIT 3771c dc .cfa: sp 0 +
STACK CFI 3771e .cfa: sp 16 + .ra: .cfa -4 + ^ r7: .cfa -8 + ^ r5: .cfa -12 + ^ r4: .cfa -16 + ^
STACK CFI 37720 .cfa: r7 8 +
STACK CFI INIT 377f8 3c .cfa: sp 0 +
STACK CFI 377fa .cfa: sp 16 + .ra: .cfa -4 + ^ r7: .cfa -8 + ^ r6: .cfa -12 + ^ r4: .cfa -16 + ^
STACK CFI 377fc .cfa: r7 8 +
STACK CFI INIT 37834 5c .cfa: sp 0 +
STACK CFI 37836 .cfa: sp 16 + .ra: .cfa -4 + ^ r7: .cfa -8 + ^ r6: .cfa -12 + ^ r4: .cfa -16 + ^
STACK CFI 37838 .cfa: r7 8 +
STACK CFI INIT 37890 2 .cfa: sp 0 +
STACK CFI INIT 37894 60 .cfa: sp 0 +
STACK CFI 37896 .cfa: sp 16 + .ra: .cfa -4 + ^ r7: .cfa -8 + ^ r6: .cfa -12 + ^ r4: .cfa -16 + ^
STACK CFI 37898 .cfa: r7 8 +
STACK CFI INIT 378f4 2 .cfa: sp 0 +
STACK CFI INIT 31e10 16c .cfa: sp 0 +
STACK CFI 31e12 .cfa: sp 20 + .ra: .cfa -4 + ^ r7: .cfa -8 + ^ r6: .cfa -12 + ^ r5: .cfa -16 + ^ r4: .cfa -20 + ^
STACK CFI 31e14 .cfa: r7 8 +
STACK CFI 31e18 r11: .cfa -24 + ^ r10: .cfa -28 + ^ r9: .cfa -32 + ^ r8: .cfa -36 + ^
STACK CFI INIT 378f8 98 .cfa: sp 0 +
STACK CFI 378fa .cfa: sp 16 + .ra: .cfa -4 + ^ r7: .cfa -8 + ^ r6: .cfa -12 + ^ r4: .cfa -16 + ^
STACK CFI 378fc .cfa: r7 8 +
STACK CFI INIT 37990 98 .cfa: sp 0 +
STACK CFI 37992 .cfa: sp 16 + .ra: .cfa -4 + ^ r7: .cfa -8 + ^ r6: .cfa -12 + ^ r4: .cfa -16 + ^
STACK CFI 37994 .cfa: r7 8 +
STACK CFI INIT 37ba0 ea4 .cfa: sp 0 +
STACK CFI 37ba2 .cfa: sp 20 + .ra: .cfa -4 + ^ r7: .cfa -8 + ^ r6: .cfa -12 + ^ r5: .cfa -16 + ^ r4: .cfa -20 + ^
STACK CFI 37ba4 .cfa: r7 8 +
STACK CFI 37ba8 r11: .cfa -24 + ^ r10: .cfa -28 + ^ r9: .cfa -32 + ^ r8: .cfa -36 + ^
STACK CFI INIT 38a48 124 .cfa: sp 0 +
STACK CFI 38a4a .cfa: sp 20 + .ra: .cfa -4 + ^ r7: .cfa -8 + ^ r6: .cfa -12 + ^ r5: .cfa -16 + ^ r4: .cfa -20 + ^
STACK CFI 38a4c .cfa: r7 8 +
STACK CFI 38a50 r11: .cfa -24 + ^ r9: .cfa -28 + ^ r8: .cfa -32 + ^
STACK CFI INIT 38b6c 16 .cfa: sp 0 +
STACK CFI 38b6e .cfa: sp 16 + .ra: .cfa -4 + ^ r7: .cfa -8 + ^ r6: .cfa -12 + ^ r4: .cfa -16 + ^
STACK CFI 38b70 .cfa: r7 8 +
STACK CFI INIT 38b82 16 .cfa: sp 0 +
STACK CFI 38b84 .cfa: sp 16 + .ra: .cfa -4 + ^ r7: .cfa -8 + ^ r6: .cfa -12 + ^ r4: .cfa -16 + ^
STACK CFI 38b86 .cfa: r7 8 +
STACK CFI INIT 38b98 62c .cfa: sp 0 +
STACK CFI 38b9a .cfa: sp 20 + .ra: .cfa -4 + ^ r7: .cfa -8 + ^ r6: .cfa -12 + ^ r5: .cfa -16 + ^ r4: .cfa -20 + ^
STACK CFI 38b9c .cfa: r7 8 +
STACK CFI 38ba0 r11: .cfa -24 + ^ r10: .cfa -28 + ^ r9: .cfa -32 + ^ r8: .cfa -36 + ^
STACK CFI INIT 391c4 84 .cfa: sp 0 +
STACK CFI 391c6 .cfa: sp 20 + .ra: .cfa -4 + ^ r7: .cfa -8 + ^ r6: .cfa -12 + ^ r5: .cfa -16 + ^ r4: .cfa -20 + ^
STACK CFI 391c8 .cfa: r7 8 +
STACK CFI 391cc r8: .cfa -24 + ^
STACK CFI INIT 39248 44 .cfa: sp 0 +
STACK CFI 3924a .cfa: sp 16 + .ra: .cfa -4 + ^ r7: .cfa -8 + ^ r5: .cfa -12 + ^ r4: .cfa -16 + ^
STACK CFI 3924c .cfa: r7 8 +
STACK CFI INIT 3928c e4 .cfa: sp 0 +
STACK CFI 3928e .cfa: sp 20 + .ra: .cfa -4 + ^ r7: .cfa -8 + ^ r6: .cfa -12 + ^ r5: .cfa -16 + ^ r4: .cfa -20 + ^
STACK CFI 39290 .cfa: r7 8 +
STACK CFI 39294 r11: .cfa -24 + ^ r10: .cfa -28 + ^ r9: .cfa -32 + ^ r8: .cfa -36 + ^
STACK CFI INIT 39370 21c .cfa: sp 0 +
STACK CFI 39372 .cfa: sp 20 + .ra: .cfa -4 + ^ r7: .cfa -8 + ^ r6: .cfa -12 + ^ r5: .cfa -16 + ^ r4: .cfa -20 + ^
STACK CFI 39374 .cfa: r7 8 +
STACK CFI 39378 r11: .cfa -24 + ^ r10: .cfa -28 + ^ r9: .cfa -32 + ^ r8: .cfa -36 + ^
STACK CFI INIT 39590 f8 .cfa: sp 0 +
STACK CFI 39592 .cfa: sp 20 + .ra: .cfa -4 + ^ r7: .cfa -8 + ^ r6: .cfa -12 + ^ r5: .cfa -16 + ^ r4: .cfa -20 + ^
STACK CFI 39594 .cfa: r7 8 +
STACK CFI 39598 r10: .cfa -24 + ^ r9: .cfa -28 + ^ r8: .cfa -32 + ^
STACK CFI INIT 39688 1c0 .cfa: sp 0 +
STACK CFI 3968a .cfa: sp 20 + .ra: .cfa -4 + ^ r7: .cfa -8 + ^ r6: .cfa -12 + ^ r5: .cfa -16 + ^ r4: .cfa -20 + ^
STACK CFI 3968c .cfa: r7 8 +
STACK CFI 39690 r8: .cfa -24 + ^
STACK CFI INIT 39848 748 .cfa: sp 0 +
STACK CFI 3984a .cfa: sp 20 + .ra: .cfa -4 + ^ r7: .cfa -8 + ^ r6: .cfa -12 + ^ r5: .cfa -16 + ^ r4: .cfa -20 + ^
STACK CFI 3984c .cfa: r7 8 +
STACK CFI 39850 r11: .cfa -24 + ^ r10: .cfa -28 + ^ r9: .cfa -32 + ^ r8: .cfa -36 + ^
STACK CFI INIT 39f90 3b8 .cfa: sp 0 +
STACK CFI 39f92 .cfa: sp 20 + .ra: .cfa -4 + ^ r7: .cfa -8 + ^ r6: .cfa -12 + ^ r5: .cfa -16 + ^ r4: .cfa -20 + ^
STACK CFI 39f94 .cfa: r7 8 +
STACK CFI 39f98 r11: .cfa -24 + ^ r10: .cfa -28 + ^ r9: .cfa -32 + ^ r8: .cfa -36 + ^
STACK CFI INIT 3a348 370 .cfa: sp 0 +
STACK CFI 3a34a .cfa: sp 20 + .ra: .cfa -4 + ^ r7: .cfa -8 + ^ r6: .cfa -12 + ^ r5: .cfa -16 + ^ r4: .cfa -20 + ^
STACK CFI 3a34c .cfa: r7 8 +
STACK CFI 3a350 r11: .cfa -24 + ^ r10: .cfa -28 + ^ r9: .cfa -32 + ^ r8: .cfa -36 + ^
STACK CFI INIT 3a6b8 d8 .cfa: sp 0 +
STACK CFI 3a6ba .cfa: sp 20 + .ra: .cfa -4 + ^ r7: .cfa -8 + ^ r6: .cfa -12 + ^ r5: .cfa -16 + ^ r4: .cfa -20 + ^
STACK CFI 3a6bc .cfa: r7 8 +
STACK CFI 3a6c0 r11: .cfa -24 + ^ r9: .cfa -28 + ^ r8: .cfa -32 + ^
STACK CFI INIT 3a790 1a .cfa: sp 0 +
STACK CFI INIT 3a7b0 2b0 .cfa: sp 0 +
STACK CFI 3a7b2 .cfa: sp 20 + .ra: .cfa -4 + ^ r7: .cfa -8 + ^ r6: .cfa -12 + ^ r5: .cfa -16 + ^ r4: .cfa -20 + ^
STACK CFI 3a7b4 .cfa: r7 8 +
STACK CFI 3a7b8 r11: .cfa -24 + ^ r10: .cfa -28 + ^ r9: .cfa -32 + ^ r8: .cfa -36 + ^
STACK CFI INIT 3aa60 16 .cfa: sp 0 +
STACK CFI 3aa62 .cfa: sp 16 + .ra: .cfa -4 + ^ r7: .cfa -8 + ^ r6: .cfa -12 + ^ r4: .cfa -16 + ^
STACK CFI 3aa64 .cfa: r7 8 +
STACK CFI INIT 3aa78 478 .cfa: sp 0 +
STACK CFI 3aa7a .cfa: sp 20 + .ra: .cfa -4 + ^ r7: .cfa -8 + ^ r6: .cfa -12 + ^ r5: .cfa -16 + ^ r4: .cfa -20 + ^
STACK CFI 3aa7c .cfa: r7 8 +
STACK CFI 3aa80 r11: .cfa -24 + ^ r10: .cfa -28 + ^ r9: .cfa -32 + ^ r8: .cfa -36 + ^
STACK CFI INIT 3aef0 10 .cfa: sp 0 +
STACK CFI 3aef2 .cfa: sp 8 + .ra: .cfa -4 + ^ r7: .cfa -8 + ^
STACK CFI 3aef4 .cfa: r7 8 +
STACK CFI INIT 3af00 208 .cfa: sp 0 +
STACK CFI 3af02 .cfa: sp 20 + .ra: .cfa -4 + ^ r7: .cfa -8 + ^ r6: .cfa -12 + ^ r5: .cfa -16 + ^ r4: .cfa -20 + ^
STACK CFI 3af04 .cfa: r7 8 +
STACK CFI 3af08 r11: .cfa -24 + ^ r10: .cfa -28 + ^ r9: .cfa -32 + ^ r8: .cfa -36 + ^
STACK CFI INIT 3b108 3a .cfa: sp 0 +
STACK CFI 3b10a .cfa: sp 16 + .ra: .cfa -4 + ^ r7: .cfa -8 + ^ r5: .cfa -12 + ^ r4: .cfa -16 + ^
STACK CFI 3b10c .cfa: r7 8 +
STACK CFI INIT 3b144 b4 .cfa: sp 0 +
STACK CFI 3b146 .cfa: sp 12 +
STACK CFI 3b148 .cfa: sp 32 + .ra: .cfa -16 + ^ r7: .cfa -20 + ^ r6: .cfa -24 + ^ r5: .cfa -28 + ^ r4: .cfa -32 + ^
STACK CFI 3b14a .cfa: r7 20 +
STACK CFI 3b14e r11: .cfa -36 + ^
STACK CFI INIT 3b1f8 10 .cfa: sp 0 +
STACK CFI 3b1fa .cfa: sp 8 + .ra: .cfa -4 + ^ r7: .cfa -8 + ^
STACK CFI 3b1fc .cfa: r7 8 +
STACK CFI INIT 3b208 10 .cfa: sp 0 +
STACK CFI INIT 3b218 10 .cfa: sp 0 +
STACK CFI 3b21a .cfa: sp 8 + .ra: .cfa -4 + ^ r7: .cfa -8 + ^
STACK CFI 3b21c .cfa: r7 8 +
STACK CFI INIT 3b228 c .cfa: sp 0 +
STACK CFI INIT 3b234 2a0 .cfa: sp 0 +
STACK CFI 3b236 .cfa: sp 20 + .ra: .cfa -4 + ^ r7: .cfa -8 + ^ r6: .cfa -12 + ^ r5: .cfa -16 + ^ r4: .cfa -20 + ^
STACK CFI 3b238 .cfa: r7 8 +
STACK CFI 3b23c r11: .cfa -24 + ^ r10: .cfa -28 + ^ r9: .cfa -32 + ^ r8: .cfa -36 + ^
STACK CFI INIT 3b4d4 38 .cfa: sp 0 +
STACK CFI 3b4d6 .cfa: sp 16 + .ra: .cfa -4 + ^ r7: .cfa -8 + ^ r6: .cfa -12 + ^ r4: .cfa -16 + ^
STACK CFI 3b4d8 .cfa: r7 8 +
STACK CFI INIT 3b50c 180 .cfa: sp 0 +
STACK CFI 3b50e .cfa: sp 20 + .ra: .cfa -4 + ^ r7: .cfa -8 + ^ r6: .cfa -12 + ^ r5: .cfa -16 + ^ r4: .cfa -20 + ^
STACK CFI 3b510 .cfa: r7 8 +
STACK CFI 3b514 r11: .cfa -24 + ^ r10: .cfa -28 + ^ r9: .cfa -32 + ^ r8: .cfa -36 + ^
STACK CFI INIT 3b68c f4 .cfa: sp 0 +
STACK CFI 3b68e .cfa: sp 20 + .ra: .cfa -4 + ^ r7: .cfa -8 + ^ r6: .cfa -12 + ^ r5: .cfa -16 + ^ r4: .cfa -20 + ^
STACK CFI 3b690 .cfa: r7 8 +
STACK CFI 3b694 r11: .cfa -24 + ^ r9: .cfa -28 + ^ r8: .cfa -32 + ^
STACK CFI INIT 3b780 f8 .cfa: sp 0 +
STACK CFI 3b782 .cfa: sp 20 + .ra: .cfa -4 + ^ r7: .cfa -8 + ^ r6: .cfa -12 + ^ r5: .cfa -16 + ^ r4: .cfa -20 + ^
STACK CFI 3b784 .cfa: r7 8 +
STACK CFI 3b788 r11: .cfa -24 + ^ r10: .cfa -28 + ^ r9: .cfa -32 + ^ r8: .cfa -36 + ^
STACK CFI INIT 3b878 134 .cfa: sp 0 +
STACK CFI 3b87a .cfa: sp 20 + .ra: .cfa -4 + ^ r7: .cfa -8 + ^ r6: .cfa -12 + ^ r5: .cfa -16 + ^ r4: .cfa -20 + ^
STACK CFI 3b87c .cfa: r7 8 +
STACK CFI 3b880 r11: .cfa -24 + ^ r10: .cfa -28 + ^ r9: .cfa -32 + ^ r8: .cfa -36 + ^
STACK CFI INIT 3b9ac 134 .cfa: sp 0 +
STACK CFI 3b9ae .cfa: sp 20 + .ra: .cfa -4 + ^ r7: .cfa -8 + ^ r6: .cfa -12 + ^ r5: .cfa -16 + ^ r4: .cfa -20 + ^
STACK CFI 3b9b0 .cfa: r7 8 +
STACK CFI 3b9b4 r11: .cfa -24 + ^ r10: .cfa -28 + ^ r9: .cfa -32 + ^ r8: .cfa -36 + ^
STACK CFI INIT 3bae0 38 .cfa: sp 0 +
STACK CFI 3bae2 .cfa: sp 16 + .ra: .cfa -4 + ^ r7: .cfa -8 + ^ r6: .cfa -12 + ^ r4: .cfa -16 + ^
STACK CFI 3bae4 .cfa: r7 8 +
STACK CFI INIT 3bb18 4 .cfa: sp 0 +
STACK CFI INIT 3bb1c c .cfa: sp 0 +
STACK CFI INIT 3bb28 2 .cfa: sp 0 +
STACK CFI INIT 3bb2a 2 .cfa: sp 0 +
STACK CFI INIT 3bb2c 10 .cfa: sp 0 +
STACK CFI 3bb2e .cfa: sp 8 + .ra: .cfa -4 + ^ r7: .cfa -8 + ^
STACK CFI 3bb30 .cfa: r7 8 +
STACK CFI INIT 3bb3c e .cfa: sp 0 +
STACK CFI INIT 3bb4c 1c .cfa: sp 0 +
STACK CFI INIT 3bb68 4 .cfa: sp 0 +
STACK CFI INIT 3bb6c 30 .cfa: sp 0 +
STACK CFI 3bb82 .cfa: sp 16 + .ra: .cfa -4 + ^ r7: .cfa -8 + ^ r6: .cfa -12 + ^ r4: .cfa -16 + ^
STACK CFI 3bb84 .cfa: r7 8 +
STACK CFI INIT 3bb9c 10 .cfa: sp 0 +
STACK CFI INIT 3bbac 30 .cfa: sp 0 +
STACK CFI 3bbc2 .cfa: sp 16 + .ra: .cfa -4 + ^ r7: .cfa -8 + ^ r6: .cfa -12 + ^ r4: .cfa -16 + ^
STACK CFI 3bbc4 .cfa: r7 8 +
STACK CFI INIT 0 5a .cfa: sp 0 +
STACK CFI 2 .cfa: sp 20 + .ra: .cfa -4 + ^ r7: .cfa -8 + ^ r6: .cfa -12 + ^ r5: .cfa -16 + ^ r4: .cfa -20 + ^
STACK CFI 4 .cfa: r7 8 +
STACK CFI 8 r11: .cfa -24 + ^ r9: .cfa -28 + ^ r8: .cfa -32 + ^
STACK CFI INIT 0 50 .cfa: sp 0 +
STACK CFI 2 .cfa: sp 20 + .ra: .cfa -4 + ^ r7: .cfa -8 + ^ r6: .cfa -12 + ^ r5: .cfa -16 + ^ r4: .cfa -20 + ^
STACK CFI 4 .cfa: r7 8 +
STACK CFI 8 r11: .cfa -24 + ^ r9: .cfa -28 + ^ r8: .cfa -32 + ^
STACK CFI INIT 3bbdc 208 .cfa: sp 0 +
STACK CFI 3bbde .cfa: sp 20 + .ra: .cfa -4 + ^ r7: .cfa -8 + ^ r6: .cfa -12 + ^ r5: .cfa -16 + ^ r4: .cfa -20 + ^
STACK CFI 3bbe0 .cfa: r7 8 +
STACK CFI 3bbe4 r11: .cfa -24 + ^ r9: .cfa -28 + ^ r8: .cfa -32 + ^
STACK CFI INIT 3bde4 214 .cfa: sp 0 +
STACK CFI 3bde6 .cfa: sp 20 + .ra: .cfa -4 + ^ r7: .cfa -8 + ^ r6: .cfa -12 + ^ r5: .cfa -16 + ^ r4: .cfa -20 + ^
STACK CFI 3bde8 .cfa: r7 8 +
STACK CFI 3bdec r11: .cfa -24 + ^ r9: .cfa -28 + ^ r8: .cfa -32 + ^
STACK CFI INIT 3bff8 24e .cfa: sp 0 +
STACK CFI 3bffa .cfa: sp 20 + .ra: .cfa -4 + ^ r7: .cfa -8 + ^ r6: .cfa -12 + ^ r5: .cfa -16 + ^ r4: .cfa -20 + ^
STACK CFI 3bffc .cfa: r7 8 +
STACK CFI 3c000 r11: .cfa -24 + ^ r10: .cfa -28 + ^ r9: .cfa -32 + ^ r8: .cfa -36 + ^
STACK CFI INIT 3c248 50 .cfa: sp 0 +
STACK CFI 3c24a .cfa: sp 16 + .ra: .cfa -4 + ^ r7: .cfa -8 + ^ r6: .cfa -12 + ^ r4: .cfa -16 + ^
STACK CFI 3c24c .cfa: r7 8 +
STACK CFI INIT 3c298 84 .cfa: sp 0 +
STACK CFI 3c29a .cfa: sp 20 + .ra: .cfa -4 + ^ r7: .cfa -8 + ^ r6: .cfa -12 + ^ r5: .cfa -16 + ^ r4: .cfa -20 + ^
STACK CFI 3c29c .cfa: r7 8 +
STACK CFI 3c2a0 r11: .cfa -24 + ^ r9: .cfa -28 + ^ r8: .cfa -32 + ^
STACK CFI INIT 3c31c 38 .cfa: sp 0 +
STACK CFI 3c31e .cfa: sp 16 + .ra: .cfa -4 + ^ r7: .cfa -8 + ^ r6: .cfa -12 + ^ r4: .cfa -16 + ^
STACK CFI 3c320 .cfa: r7 8 +
STACK CFI INIT 3c354 30 .cfa: sp 0 +
STACK CFI 3c36a .cfa: sp 16 + .ra: .cfa -4 + ^ r7: .cfa -8 + ^ r6: .cfa -12 + ^ r4: .cfa -16 + ^
STACK CFI 3c36c .cfa: r7 8 +
STACK CFI INIT 3c384 48 .cfa: sp 0 +
STACK CFI INIT 3c3cc 30 .cfa: sp 0 +
STACK CFI 3c3e2 .cfa: sp 16 + .ra: .cfa -4 + ^ r7: .cfa -8 + ^ r6: .cfa -12 + ^ r4: .cfa -16 + ^
STACK CFI 3c3e4 .cfa: r7 8 +
STACK CFI INIT 3c3fc 3a .cfa: sp 0 +
STACK CFI INIT 3c438 3c .cfa: sp 0 +
STACK CFI 3c43a .cfa: sp 16 + .ra: .cfa -4 + ^ r7: .cfa -8 + ^ r6: .cfa -12 + ^ r4: .cfa -16 + ^
STACK CFI 3c43c .cfa: r7 8 +
STACK CFI INIT 3c474 40 .cfa: sp 0 +
STACK CFI 3c476 .cfa: sp 16 + .ra: .cfa -4 + ^ r7: .cfa -8 + ^ r6: .cfa -12 + ^ r4: .cfa -16 + ^
STACK CFI 3c478 .cfa: r7 8 +
STACK CFI INIT 3c4b4 d6 .cfa: sp 0 +
STACK CFI 3c4b6 .cfa: sp 8 + .ra: .cfa -4 + ^ r7: .cfa -8 + ^
STACK CFI 3c4b8 .cfa: r7 8 +
STACK CFI INIT 3c58c 74 .cfa: sp 0 +
STACK CFI 3c58e .cfa: sp 20 + .ra: .cfa -4 + ^ r7: .cfa -8 + ^ r6: .cfa -12 + ^ r5: .cfa -16 + ^ r4: .cfa -20 + ^
STACK CFI 3c590 .cfa: r7 8 +
STACK CFI 3c594 r11: .cfa -24 + ^
STACK CFI INIT 3c600 7c .cfa: sp 0 +
STACK CFI 3c602 .cfa: sp 20 + .ra: .cfa -4 + ^ r7: .cfa -8 + ^ r6: .cfa -12 + ^ r5: .cfa -16 + ^ r4: .cfa -20 + ^
STACK CFI 3c604 .cfa: r7 8 +
STACK CFI 3c608 r11: .cfa -24 + ^
STACK CFI INIT 3c67c 14c .cfa: sp 0 +
STACK CFI 3c67e .cfa: sp 20 + .ra: .cfa -4 + ^ r7: .cfa -8 + ^ r6: .cfa -12 + ^ r5: .cfa -16 + ^ r4: .cfa -20 + ^
STACK CFI 3c680 .cfa: r7 8 +
STACK CFI 3c684 r11: .cfa -24 + ^ r9: .cfa -28 + ^ r8: .cfa -32 + ^
STACK CFI INIT 3c7c8 32c .cfa: sp 0 +
STACK CFI 3c7ca .cfa: sp 20 + .ra: .cfa -4 + ^ r7: .cfa -8 + ^ r6: .cfa -12 + ^ r5: .cfa -16 + ^ r4: .cfa -20 + ^
STACK CFI 3c7cc .cfa: r7 8 +
STACK CFI 3c7d0 r11: .cfa -24 + ^ r10: .cfa -28 + ^ r9: .cfa -32 + ^ r8: .cfa -36 + ^
STACK CFI INIT 3caf4 124 .cfa: sp 0 +
STACK CFI 3caf6 .cfa: sp 20 + .ra: .cfa -4 + ^ r7: .cfa -8 + ^ r6: .cfa -12 + ^ r5: .cfa -16 + ^ r4: .cfa -20 + ^
STACK CFI 3caf8 .cfa: r7 8 +
STACK CFI 3cafc r10: .cfa -24 + ^ r9: .cfa -28 + ^ r8: .cfa -32 + ^
STACK CFI INIT 3cc18 10 .cfa: sp 0 +
STACK CFI 3cc1a .cfa: sp 8 + .ra: .cfa -4 + ^ r7: .cfa -8 + ^
STACK CFI 3cc1c .cfa: r7 8 +
STACK CFI INIT 3cc28 22 .cfa: sp 0 +
STACK CFI 3cc2a .cfa: sp 16 + .ra: .cfa -4 + ^ r7: .cfa -8 + ^ r6: .cfa -12 + ^ r4: .cfa -16 + ^
STACK CFI 3cc2c .cfa: r7 8 +
STACK CFI INIT 3cc4c 38 .cfa: sp 0 +
STACK CFI 3cc4e .cfa: sp 16 + .ra: .cfa -4 + ^ r7: .cfa -8 + ^ r6: .cfa -12 + ^ r4: .cfa -16 + ^
STACK CFI 3cc50 .cfa: r7 8 +
STACK CFI INIT 3cc84 11c .cfa: sp 0 +
STACK CFI 3cc86 .cfa: sp 20 + .ra: .cfa -4 + ^ r7: .cfa -8 + ^ r6: .cfa -12 + ^ r5: .cfa -16 + ^ r4: .cfa -20 + ^
STACK CFI 3cc88 .cfa: r7 8 +
STACK CFI 3cc8c r11: .cfa -24 + ^ r10: .cfa -28 + ^ r9: .cfa -32 + ^ r8: .cfa -36 + ^
STACK CFI INIT 3cda0 38 .cfa: sp 0 +
STACK CFI 3cda2 .cfa: sp 16 + .ra: .cfa -4 + ^ r7: .cfa -8 + ^ r6: .cfa -12 + ^ r4: .cfa -16 + ^
STACK CFI 3cda4 .cfa: r7 8 +
STACK CFI INIT 3cdd8 4c .cfa: sp 0 +
STACK CFI 3cdda .cfa: sp 20 + .ra: .cfa -4 + ^ r7: .cfa -8 + ^ r6: .cfa -12 + ^ r5: .cfa -16 + ^ r4: .cfa -20 + ^
STACK CFI 3cddc .cfa: r7 8 +
STACK CFI 3cde0 r11: .cfa -24 + ^
STACK CFI INIT 3ce24 176 .cfa: sp 0 +
STACK CFI 3ce26 .cfa: sp 20 + .ra: .cfa -4 + ^ r7: .cfa -8 + ^ r6: .cfa -12 + ^ r5: .cfa -16 + ^ r4: .cfa -20 + ^
STACK CFI 3ce28 .cfa: r7 8 +
STACK CFI 3ce2c r11: .cfa -24 + ^ r10: .cfa -28 + ^ r9: .cfa -32 + ^ r8: .cfa -36 + ^
STACK CFI INIT 0 50 .cfa: sp 0 +
STACK CFI 2 .cfa: sp 20 + .ra: .cfa -4 + ^ r7: .cfa -8 + ^ r6: .cfa -12 + ^ r5: .cfa -16 + ^ r4: .cfa -20 + ^
STACK CFI 4 .cfa: r7 8 +
STACK CFI 8 r11: .cfa -24 + ^
STACK CFI INIT 3cf9c 10 .cfa: sp 0 +
STACK CFI 3cf9e .cfa: sp 8 + .ra: .cfa -4 + ^ r7: .cfa -8 + ^
STACK CFI 3cfa0 .cfa: r7 8 +
STACK CFI INIT 0 94 .cfa: sp 0 +
STACK CFI 8 .cfa: sp 20 + .ra: .cfa -4 + ^ r7: .cfa -8 + ^ r6: .cfa -12 + ^ r5: .cfa -16 + ^ r4: .cfa -20 + ^
STACK CFI a .cfa: r7 8 +
STACK CFI e r8: .cfa -24 + ^
STACK CFI INIT 3cfac 110 .cfa: sp 0 +
STACK CFI 3cfae .cfa: sp 20 + .ra: .cfa -4 + ^ r7: .cfa -8 + ^ r6: .cfa -12 + ^ r5: .cfa -16 + ^ r4: .cfa -20 + ^
STACK CFI 3cfb0 .cfa: r7 8 +
STACK CFI 3cfb4 r11: .cfa -24 + ^ r10: .cfa -28 + ^ r9: .cfa -32 + ^ r8: .cfa -36 + ^
STACK CFI INIT 3d0bc c2 .cfa: sp 0 +
STACK CFI 3d0be .cfa: sp 20 + .ra: .cfa -4 + ^ r7: .cfa -8 + ^ r6: .cfa -12 + ^ r5: .cfa -16 + ^ r4: .cfa -20 + ^
STACK CFI 3d0c0 .cfa: r7 8 +
STACK CFI 3d0c4 r11: .cfa -24 + ^ r10: .cfa -28 + ^ r9: .cfa -32 + ^ r8: .cfa -36 + ^
STACK CFI INIT 3d180 10 .cfa: sp 0 +
STACK CFI 3d182 .cfa: sp 8 + .ra: .cfa -4 + ^ r7: .cfa -8 + ^
STACK CFI 3d184 .cfa: r7 8 +
STACK CFI INIT 3d190 ce .cfa: sp 0 +
STACK CFI 3d192 .cfa: sp 20 + .ra: .cfa -4 + ^ r7: .cfa -8 + ^ r6: .cfa -12 + ^ r5: .cfa -16 + ^ r4: .cfa -20 + ^
STACK CFI 3d194 .cfa: r7 8 +
STACK CFI 3d198 r10: .cfa -24 + ^ r9: .cfa -28 + ^ r8: .cfa -32 + ^
STACK CFI INIT 3d260 38 .cfa: sp 0 +
STACK CFI 3d262 .cfa: sp 16 + .ra: .cfa -4 + ^ r7: .cfa -8 + ^ r6: .cfa -12 + ^ r4: .cfa -16 + ^
STACK CFI 3d264 .cfa: r7 8 +
STACK CFI INIT 3d298 84 .cfa: sp 0 +
STACK CFI 3d29a .cfa: sp 16 + .ra: .cfa -4 + ^ r7: .cfa -8 + ^ r6: .cfa -12 + ^ r4: .cfa -16 + ^
STACK CFI 3d29c .cfa: r7 8 +
STACK CFI INIT 3d31c 30 .cfa: sp 0 +
STACK CFI 3d332 .cfa: sp 16 + .ra: .cfa -4 + ^ r7: .cfa -8 + ^ r6: .cfa -12 + ^ r4: .cfa -16 + ^
STACK CFI 3d334 .cfa: r7 8 +
STACK CFI INIT 3d34c 38 .cfa: sp 0 +
STACK CFI 3d34e .cfa: sp 16 + .ra: .cfa -4 + ^ r7: .cfa -8 + ^ r6: .cfa -12 + ^ r4: .cfa -16 + ^
STACK CFI 3d350 .cfa: r7 8 +
STACK CFI INIT 3d384 84 .cfa: sp 0 +
STACK CFI 3d386 .cfa: sp 16 + .ra: .cfa -4 + ^ r7: .cfa -8 + ^ r5: .cfa -12 + ^ r4: .cfa -16 + ^
STACK CFI 3d388 .cfa: r7 8 +
STACK CFI INIT 3d408 190 .cfa: sp 0 +
STACK CFI 3d40a .cfa: sp 20 + .ra: .cfa -4 + ^ r7: .cfa -8 + ^ r6: .cfa -12 + ^ r5: .cfa -16 + ^ r4: .cfa -20 + ^
STACK CFI 3d40c .cfa: r7 8 +
STACK CFI 3d410 r11: .cfa -24 + ^
STACK CFI INIT 3d598 35e .cfa: sp 0 +
STACK CFI 3d59a .cfa: sp 20 + .ra: .cfa -4 + ^ r7: .cfa -8 + ^ r6: .cfa -12 + ^ r5: .cfa -16 + ^ r4: .cfa -20 + ^
STACK CFI 3d59c .cfa: r7 8 +
STACK CFI 3d5a0 r8: .cfa -24 + ^
STACK CFI INIT 3d8f8 e4 .cfa: sp 0 +
STACK CFI 3d8fa .cfa: sp 20 + .ra: .cfa -4 + ^ r7: .cfa -8 + ^ r6: .cfa -12 + ^ r5: .cfa -16 + ^ r4: .cfa -20 + ^
STACK CFI 3d8fc .cfa: r7 8 +
STACK CFI 3d900 r8: .cfa -24 + ^
STACK CFI INIT 3d9dc 38 .cfa: sp 0 +
STACK CFI 3d9de .cfa: sp 16 + .ra: .cfa -4 + ^ r7: .cfa -8 + ^ r6: .cfa -12 + ^ r4: .cfa -16 + ^
STACK CFI 3d9e0 .cfa: r7 8 +
STACK CFI INIT 3da14 88 .cfa: sp 0 +
STACK CFI 3da16 .cfa: sp 20 + .ra: .cfa -4 + ^ r7: .cfa -8 + ^ r6: .cfa -12 + ^ r5: .cfa -16 + ^ r4: .cfa -20 + ^
STACK CFI 3da18 .cfa: r7 8 +
STACK CFI 3da1c r11: .cfa -24 + ^
STACK CFI INIT 3da9c 3c .cfa: sp 0 +
STACK CFI 3da9e .cfa: sp 16 + .ra: .cfa -4 + ^ r7: .cfa -8 + ^ r6: .cfa -12 + ^ r4: .cfa -16 + ^
STACK CFI 3daa0 .cfa: r7 8 +
STACK CFI INIT 3dad8 40 .cfa: sp 0 +
STACK CFI 3dada .cfa: sp 16 + .ra: .cfa -4 + ^ r7: .cfa -8 + ^ r6: .cfa -12 + ^ r4: .cfa -16 + ^
STACK CFI 3dadc .cfa: r7 8 +
STACK CFI INIT 3db18 42 .cfa: sp 0 +
STACK CFI 3db1a .cfa: sp 16 + .ra: .cfa -4 + ^ r7: .cfa -8 + ^ r5: .cfa -12 + ^ r4: .cfa -16 + ^
STACK CFI 3db1c .cfa: r7 8 +
STACK CFI INIT 3db5c 3c .cfa: sp 0 +
STACK CFI 3db5e .cfa: sp 16 + .ra: .cfa -4 + ^ r7: .cfa -8 + ^ r6: .cfa -12 + ^ r4: .cfa -16 + ^
STACK CFI 3db60 .cfa: r7 8 +
STACK CFI INIT 3db98 40 .cfa: sp 0 +
STACK CFI 3db9a .cfa: sp 16 + .ra: .cfa -4 + ^ r7: .cfa -8 + ^ r6: .cfa -12 + ^ r4: .cfa -16 + ^
STACK CFI 3db9c .cfa: r7 8 +
STACK CFI INIT 3dbd8 32 .cfa: sp 0 +
STACK CFI INIT 3dc0c 30 .cfa: sp 0 +
STACK CFI 3dc22 .cfa: sp 16 + .ra: .cfa -4 + ^ r7: .cfa -8 + ^ r6: .cfa -12 + ^ r4: .cfa -16 + ^
STACK CFI 3dc24 .cfa: r7 8 +
STACK CFI INIT 3dc3c 32 .cfa: sp 0 +
STACK CFI INIT 3dc70 3c .cfa: sp 0 +
STACK CFI 3dc72 .cfa: sp 16 + .ra: .cfa -4 + ^ r7: .cfa -8 + ^ r6: .cfa -12 + ^ r4: .cfa -16 + ^
STACK CFI 3dc74 .cfa: r7 8 +
STACK CFI INIT 3dcac 40 .cfa: sp 0 +
STACK CFI 3dcae .cfa: sp 16 + .ra: .cfa -4 + ^ r7: .cfa -8 + ^ r6: .cfa -12 + ^ r4: .cfa -16 + ^
STACK CFI 3dcb0 .cfa: r7 8 +
STACK CFI INIT 3dcec 8e .cfa: sp 0 +
STACK CFI 3dcee .cfa: sp 20 + .ra: .cfa -4 + ^ r7: .cfa -8 + ^ r6: .cfa -12 + ^ r5: .cfa -16 + ^ r4: .cfa -20 + ^
STACK CFI 3dcf0 .cfa: r7 8 +
STACK CFI 3dcf4 r10: .cfa -24 + ^ r9: .cfa -28 + ^ r8: .cfa -32 + ^
STACK CFI INIT 3dd7c 3c .cfa: sp 0 +
STACK CFI 3dd7e .cfa: sp 16 + .ra: .cfa -4 + ^ r7: .cfa -8 + ^ r6: .cfa -12 + ^ r4: .cfa -16 + ^
STACK CFI 3dd80 .cfa: r7 8 +
STACK CFI INIT 3ddb8 40 .cfa: sp 0 +
STACK CFI 3ddba .cfa: sp 16 + .ra: .cfa -4 + ^ r7: .cfa -8 + ^ r6: .cfa -12 + ^ r4: .cfa -16 + ^
STACK CFI 3ddbc .cfa: r7 8 +
STACK CFI INIT 3ddf8 6c .cfa: sp 0 +
STACK CFI 3ddfa .cfa: sp 20 + .ra: .cfa -4 + ^ r7: .cfa -8 + ^ r6: .cfa -12 + ^ r5: .cfa -16 + ^ r4: .cfa -20 + ^
STACK CFI 3ddfc .cfa: r7 8 +
STACK CFI 3de00 r11: .cfa -24 + ^
STACK CFI INIT 3de64 30 .cfa: sp 0 +
STACK CFI 3de7a .cfa: sp 16 + .ra: .cfa -4 + ^ r7: .cfa -8 + ^ r6: .cfa -12 + ^ r4: .cfa -16 + ^
STACK CFI 3de7c .cfa: r7 8 +
STACK CFI INIT 3de94 7a .cfa: sp 0 +
STACK CFI 3de96 .cfa: sp 20 + .ra: .cfa -4 + ^ r7: .cfa -8 + ^ r6: .cfa -12 + ^ r5: .cfa -16 + ^ r4: .cfa -20 + ^
STACK CFI 3de98 .cfa: r7 8 +
STACK CFI 3de9c r8: .cfa -24 + ^
STACK CFI INIT 3df0e 130 .cfa: sp 0 +
STACK CFI 3df10 .cfa: sp 20 + .ra: .cfa -4 + ^ r7: .cfa -8 + ^ r6: .cfa -12 + ^ r5: .cfa -16 + ^ r4: .cfa -20 + ^
STACK CFI 3df12 .cfa: r7 8 +
STACK CFI 3df16 r11: .cfa -24 + ^ r10: .cfa -28 + ^ r9: .cfa -32 + ^ r8: .cfa -36 + ^
STACK CFI INIT 3e040 138 .cfa: sp 0 +
STACK CFI 3e042 .cfa: sp 20 + .ra: .cfa -4 + ^ r7: .cfa -8 + ^ r6: .cfa -12 + ^ r5: .cfa -16 + ^ r4: .cfa -20 + ^
STACK CFI 3e044 .cfa: r7 8 +
STACK CFI 3e048 r10: .cfa -24 + ^ r9: .cfa -28 + ^ r8: .cfa -32 + ^
STACK CFI INIT 3e178 3e .cfa: sp 0 +
STACK CFI 3e17a .cfa: sp 20 + .ra: .cfa -4 + ^ r7: .cfa -8 + ^ r6: .cfa -12 + ^ r5: .cfa -16 + ^ r4: .cfa -20 + ^
STACK CFI 3e17c .cfa: r7 8 +
STACK CFI 3e180 r11: .cfa -24 + ^
STACK CFI INIT 3e1b6 54 .cfa: sp 0 +
STACK CFI 3e1b8 .cfa: sp 20 + .ra: .cfa -4 + ^ r7: .cfa -8 + ^ r6: .cfa -12 + ^ r5: .cfa -16 + ^ r4: .cfa -20 + ^
STACK CFI 3e1ba .cfa: r7 8 +
STACK CFI 3e1be r8: .cfa -24 + ^
STACK CFI INIT 3e20c f4 .cfa: sp 0 +
STACK CFI 3e20e .cfa: sp 20 + .ra: .cfa -4 + ^ r7: .cfa -8 + ^ r6: .cfa -12 + ^ r5: .cfa -16 + ^ r4: .cfa -20 + ^
STACK CFI 3e210 .cfa: r7 8 +
STACK CFI 3e214 r8: .cfa -24 + ^
STACK CFI INIT 3e300 10 .cfa: sp 0 +
STACK CFI 3e302 .cfa: sp 8 + .ra: .cfa -4 + ^ r7: .cfa -8 + ^
STACK CFI 3e304 .cfa: r7 8 +
STACK CFI INIT 3e310 844 .cfa: sp 0 +
STACK CFI 3e312 .cfa: sp 20 + .ra: .cfa -4 + ^ r7: .cfa -8 + ^ r6: .cfa -12 + ^ r5: .cfa -16 + ^ r4: .cfa -20 + ^
STACK CFI 3e314 .cfa: r7 8 +
STACK CFI 3e318 r11: .cfa -24 + ^ r10: .cfa -28 + ^ r9: .cfa -32 + ^ r8: .cfa -36 + ^
STACK CFI INIT 3eb54 22 .cfa: sp 0 +
STACK CFI 3eb56 .cfa: sp 16 + .ra: .cfa -4 + ^ r7: .cfa -8 + ^ r6: .cfa -12 + ^ r4: .cfa -16 + ^
STACK CFI 3eb58 .cfa: r7 8 +
STACK CFI INIT 0 d8 .cfa: sp 0 +
STACK CFI 2 .cfa: sp 20 + .ra: .cfa -4 + ^ r7: .cfa -8 + ^ r6: .cfa -12 + ^ r5: .cfa -16 + ^ r4: .cfa -20 + ^
STACK CFI 4 .cfa: r7 8 +
STACK CFI 8 r11: .cfa -24 + ^ r10: .cfa -28 + ^ r9: .cfa -32 + ^ r8: .cfa -36 + ^
STACK CFI INIT 3eb78 1c4 .cfa: sp 0 +
STACK CFI 3eb7a .cfa: sp 20 + .ra: .cfa -4 + ^ r7: .cfa -8 + ^ r6: .cfa -12 + ^ r5: .cfa -16 + ^ r4: .cfa -20 + ^
STACK CFI 3eb7c .cfa: r7 8 +
STACK CFI 3eb80 r11: .cfa -24 + ^ r10: .cfa -28 + ^ r9: .cfa -32 + ^ r8: .cfa -36 + ^
STACK CFI INIT 3ed3c 66 .cfa: sp 0 +
STACK CFI 3ed3e .cfa: sp 20 + .ra: .cfa -4 + ^ r7: .cfa -8 + ^ r6: .cfa -12 + ^ r5: .cfa -16 + ^ r4: .cfa -20 + ^
STACK CFI 3ed40 .cfa: r7 8 +
STACK CFI 3ed44 r11: .cfa -24 + ^ r9: .cfa -28 + ^ r8: .cfa -32 + ^
STACK CFI INIT 3eda2 a6 .cfa: sp 0 +
STACK CFI 3eda4 .cfa: sp 20 + .ra: .cfa -4 + ^ r7: .cfa -8 + ^ r6: .cfa -12 + ^ r5: .cfa -16 + ^ r4: .cfa -20 + ^
STACK CFI 3eda6 .cfa: r7 8 +
STACK CFI 3edaa r10: .cfa -24 + ^ r9: .cfa -28 + ^ r8: .cfa -32 + ^
STACK CFI INIT 3ee48 118 .cfa: sp 0 +
STACK CFI 3ee4a .cfa: sp 20 + .ra: .cfa -4 + ^ r7: .cfa -8 + ^ r6: .cfa -12 + ^ r5: .cfa -16 + ^ r4: .cfa -20 + ^
STACK CFI 3ee4c .cfa: r7 8 +
STACK CFI 3ee50 r11: .cfa -24 + ^ r10: .cfa -28 + ^ r9: .cfa -32 + ^ r8: .cfa -36 + ^
STACK CFI INIT 3ef60 10 .cfa: sp 0 +
STACK CFI 3ef62 .cfa: sp 8 + .ra: .cfa -4 + ^ r7: .cfa -8 + ^
STACK CFI 3ef64 .cfa: r7 8 +
STACK CFI INIT 3ef70 38 .cfa: sp 0 +
STACK CFI 3ef72 .cfa: sp 16 + .ra: .cfa -4 + ^ r7: .cfa -8 + ^ r6: .cfa -12 + ^ r4: .cfa -16 + ^
STACK CFI 3ef74 .cfa: r7 8 +
STACK CFI INIT 3efa8 2d4 .cfa: sp 0 +
STACK CFI 3efaa .cfa: sp 20 + .ra: .cfa -4 + ^ r7: .cfa -8 + ^ r6: .cfa -12 + ^ r5: .cfa -16 + ^ r4: .cfa -20 + ^
STACK CFI 3efac .cfa: r7 8 +
STACK CFI 3efb0 r10: .cfa -24 + ^ r9: .cfa -28 + ^ r8: .cfa -32 + ^
STACK CFI INIT 3f27c 184 .cfa: sp 0 +
STACK CFI 3f27e .cfa: sp 20 + .ra: .cfa -4 + ^ r7: .cfa -8 + ^ r6: .cfa -12 + ^ r5: .cfa -16 + ^ r4: .cfa -20 + ^
STACK CFI 3f280 .cfa: r7 8 +
STACK CFI 3f284 r10: .cfa -24 + ^ r9: .cfa -28 + ^ r8: .cfa -32 + ^
STACK CFI INIT 3f400 a4 .cfa: sp 0 +
STACK CFI 3f402 .cfa: sp 20 + .ra: .cfa -4 + ^ r7: .cfa -8 + ^ r6: .cfa -12 + ^ r5: .cfa -16 + ^ r4: .cfa -20 + ^
STACK CFI 3f404 .cfa: r7 8 +
STACK CFI 3f408 r11: .cfa -24 + ^
STACK CFI INIT 3f4a4 100 .cfa: sp 0 +
STACK CFI 3f4a6 .cfa: sp 16 + .ra: .cfa -4 + ^ r7: .cfa -8 + ^ r6: .cfa -12 + ^ r4: .cfa -16 + ^
STACK CFI 3f4a8 .cfa: r7 8 +
STACK CFI INIT 3f5a4 292 .cfa: sp 0 +
STACK CFI 3f5a6 .cfa: sp 20 + .ra: .cfa -4 + ^ r7: .cfa -8 + ^ r6: .cfa -12 + ^ r5: .cfa -16 + ^ r4: .cfa -20 + ^
STACK CFI 3f5a8 .cfa: r7 8 +
STACK CFI 3f5ac r11: .cfa -24 + ^
STACK CFI INIT 3f838 31c .cfa: sp 0 +
STACK CFI 3f83a .cfa: sp 20 + .ra: .cfa -4 + ^ r7: .cfa -8 + ^ r6: .cfa -12 + ^ r5: .cfa -16 + ^ r4: .cfa -20 + ^
STACK CFI 3f83c .cfa: r7 8 +
STACK CFI 3f840 r11: .cfa -24 + ^ r9: .cfa -28 + ^ r8: .cfa -32 + ^
STACK CFI INIT 3fb54 154 .cfa: sp 0 +
STACK CFI 3fb56 .cfa: sp 20 + .ra: .cfa -4 + ^ r7: .cfa -8 + ^ r6: .cfa -12 + ^ r5: .cfa -16 + ^ r4: .cfa -20 + ^
STACK CFI 3fb58 .cfa: r7 8 +
STACK CFI 3fb5c r11: .cfa -24 + ^ r10: .cfa -28 + ^ r9: .cfa -32 + ^ r8: .cfa -36 + ^
STACK CFI INIT 3fca8 38 .cfa: sp 0 +
STACK CFI 3fcaa .cfa: sp 16 + .ra: .cfa -4 + ^ r7: .cfa -8 + ^ r6: .cfa -12 + ^ r4: .cfa -16 + ^
STACK CFI 3fcac .cfa: r7 8 +
STACK CFI INIT 3fce0 1c4 .cfa: sp 0 +
STACK CFI 3fce2 .cfa: sp 20 + .ra: .cfa -4 + ^ r7: .cfa -8 + ^ r6: .cfa -12 + ^ r5: .cfa -16 + ^ r4: .cfa -20 + ^
STACK CFI 3fce4 .cfa: r7 8 +
STACK CFI 3fce8 r11: .cfa -24 + ^ r10: .cfa -28 + ^ r9: .cfa -32 + ^ r8: .cfa -36 + ^
STACK CFI INIT 3fea4 144 .cfa: sp 0 +
STACK CFI 3fea6 .cfa: sp 20 + .ra: .cfa -4 + ^ r7: .cfa -8 + ^ r6: .cfa -12 + ^ r5: .cfa -16 + ^ r4: .cfa -20 + ^
STACK CFI 3fea8 .cfa: r7 8 +
STACK CFI 3feac r11: .cfa -24 + ^ r10: .cfa -28 + ^ r9: .cfa -32 + ^ r8: .cfa -36 + ^
STACK CFI INIT 3ffe8 120 .cfa: sp 0 +
STACK CFI 3ffea .cfa: sp 20 + .ra: .cfa -4 + ^ r7: .cfa -8 + ^ r6: .cfa -12 + ^ r5: .cfa -16 + ^ r4: .cfa -20 + ^
STACK CFI 3ffec .cfa: r7 8 +
STACK CFI 3fff0 r11: .cfa -24 + ^ r10: .cfa -28 + ^ r9: .cfa -32 + ^ r8: .cfa -36 + ^
STACK CFI INIT 40108 3c .cfa: sp 0 +
STACK CFI 4010a .cfa: sp 16 + .ra: .cfa -4 + ^ r7: .cfa -8 + ^ r5: .cfa -12 + ^ r4: .cfa -16 + ^
STACK CFI 4010c .cfa: r7 8 +
STACK CFI INIT 40144 10 .cfa: sp 0 +
STACK CFI 40146 .cfa: sp 8 + .ra: .cfa -4 + ^ r7: .cfa -8 + ^
STACK CFI 40148 .cfa: r7 8 +
STACK CFI INIT 40154 38 .cfa: sp 0 +
STACK CFI 40156 .cfa: sp 16 + .ra: .cfa -4 + ^ r7: .cfa -8 + ^ r6: .cfa -12 + ^ r4: .cfa -16 + ^
STACK CFI 40158 .cfa: r7 8 +
STACK CFI INIT 4018c ec .cfa: sp 0 +
STACK CFI 4018e .cfa: sp 20 + .ra: .cfa -4 + ^ r7: .cfa -8 + ^ r6: .cfa -12 + ^ r5: .cfa -16 + ^ r4: .cfa -20 + ^
STACK CFI 40190 .cfa: r7 8 +
STACK CFI 40194 r11: .cfa -24 + ^ r10: .cfa -28 + ^ r9: .cfa -32 + ^ r8: .cfa -36 + ^
STACK CFI INIT 40278 130 .cfa: sp 0 +
STACK CFI 4027a .cfa: sp 20 + .ra: .cfa -4 + ^ r7: .cfa -8 + ^ r6: .cfa -12 + ^ r5: .cfa -16 + ^ r4: .cfa -20 + ^
STACK CFI 4027c .cfa: r7 8 +
STACK CFI 40280 r11: .cfa -24 + ^ r10: .cfa -28 + ^ r9: .cfa -32 + ^ r8: .cfa -36 + ^
STACK CFI INIT 403a8 10c .cfa: sp 0 +
STACK CFI 403aa .cfa: sp 20 + .ra: .cfa -4 + ^ r7: .cfa -8 + ^ r6: .cfa -12 + ^ r5: .cfa -16 + ^ r4: .cfa -20 + ^
STACK CFI 403ac .cfa: r7 8 +
STACK CFI 403b0 r11: .cfa -24 + ^ r10: .cfa -28 + ^ r9: .cfa -32 + ^ r8: .cfa -36 + ^
STACK CFI INIT 404b4 38 .cfa: sp 0 +
STACK CFI 404b6 .cfa: sp 16 + .ra: .cfa -4 + ^ r7: .cfa -8 + ^ r6: .cfa -12 + ^ r4: .cfa -16 + ^
STACK CFI 404b8 .cfa: r7 8 +
STACK CFI INIT 404ec 126 .cfa: sp 0 +
STACK CFI 404ee .cfa: sp 20 + .ra: .cfa -4 + ^ r7: .cfa -8 + ^ r6: .cfa -12 + ^ r5: .cfa -16 + ^ r4: .cfa -20 + ^
STACK CFI 404f0 .cfa: r7 8 +
STACK CFI 404f4 r11: .cfa -24 + ^ r10: .cfa -28 + ^ r9: .cfa -32 + ^ r8: .cfa -36 + ^
STACK CFI INIT 40614 10 .cfa: sp 0 +
STACK CFI 40616 .cfa: sp 8 + .ra: .cfa -4 + ^ r7: .cfa -8 + ^
STACK CFI 40618 .cfa: r7 8 +
STACK CFI INIT 40624 10 .cfa: sp 0 +
STACK CFI 40626 .cfa: sp 8 + .ra: .cfa -4 + ^ r7: .cfa -8 + ^
STACK CFI 40628 .cfa: r7 8 +
STACK CFI INIT 40634 30 .cfa: sp 0 +
STACK CFI 4064a .cfa: sp 16 + .ra: .cfa -4 + ^ r7: .cfa -8 + ^ r6: .cfa -12 + ^ r4: .cfa -16 + ^
STACK CFI 4064c .cfa: r7 8 +
STACK CFI INIT 40664 28 .cfa: sp 0 +
STACK CFI 40666 .cfa: sp 8 + .ra: .cfa -4 + ^ r7: .cfa -8 + ^
STACK CFI 40668 .cfa: r7 8 +
STACK CFI INIT 4068c 30 .cfa: sp 0 +
STACK CFI 406a2 .cfa: sp 16 + .ra: .cfa -4 + ^ r7: .cfa -8 + ^ r6: .cfa -12 + ^ r4: .cfa -16 + ^
STACK CFI 406a4 .cfa: r7 8 +
STACK CFI INIT 406bc 2e .cfa: sp 0 +
STACK CFI 406be .cfa: sp 8 + .ra: .cfa -4 + ^ r7: .cfa -8 + ^
STACK CFI 406c0 .cfa: r7 8 +
STACK CFI INIT 406ec dc .cfa: sp 0 +
STACK CFI 406ee .cfa: sp 20 + .ra: .cfa -4 + ^ r7: .cfa -8 + ^ r6: .cfa -12 + ^ r5: .cfa -16 + ^ r4: .cfa -20 + ^
STACK CFI 406f0 .cfa: r7 8 +
STACK CFI 406f4 r11: .cfa -24 + ^ r10: .cfa -28 + ^ r9: .cfa -32 + ^ r8: .cfa -36 + ^
STACK CFI INIT 407c8 38 .cfa: sp 0 +
STACK CFI 407ca .cfa: sp 16 + .ra: .cfa -4 + ^ r7: .cfa -8 + ^ r6: .cfa -12 + ^ r4: .cfa -16 + ^
STACK CFI 407cc .cfa: r7 8 +
STACK CFI INIT 40800 38 .cfa: sp 0 +
STACK CFI 40802 .cfa: sp 16 + .ra: .cfa -4 + ^ r7: .cfa -8 + ^ r6: .cfa -12 + ^ r4: .cfa -16 + ^
STACK CFI 40804 .cfa: r7 8 +
STACK CFI INIT 40838 44 .cfa: sp 0 +
STACK CFI 4083a .cfa: sp 16 + .ra: .cfa -4 + ^ r7: .cfa -8 + ^ r6: .cfa -12 + ^ r4: .cfa -16 + ^
STACK CFI 4083c .cfa: r7 8 +
STACK CFI INIT 4087c 100 .cfa: sp 0 +
STACK CFI 4087e .cfa: sp 20 + .ra: .cfa -4 + ^ r7: .cfa -8 + ^ r6: .cfa -12 + ^ r5: .cfa -16 + ^ r4: .cfa -20 + ^
STACK CFI 40880 .cfa: r7 8 +
STACK CFI 40884 r11: .cfa -24 + ^
STACK CFI INIT 4097c 5c .cfa: sp 0 +
STACK CFI 40996 .cfa: sp 16 + .ra: .cfa -4 + ^ r7: .cfa -8 + ^ r6: .cfa -12 + ^ r4: .cfa -16 + ^
STACK CFI 40998 .cfa: r7 8 +
STACK CFI INIT 409d8 44 .cfa: sp 0 +
STACK CFI 409da .cfa: sp 16 + .ra: .cfa -4 + ^ r7: .cfa -8 + ^ r6: .cfa -12 + ^ r4: .cfa -16 + ^
STACK CFI 409dc .cfa: r7 8 +
STACK CFI INIT 40a1c 4 .cfa: sp 0 +
STACK CFI INIT 40a20 10 .cfa: sp 0 +
STACK CFI INIT 40a30 40 .cfa: sp 0 +
STACK CFI 40a32 .cfa: sp 16 + .ra: .cfa -4 + ^ r7: .cfa -8 + ^ r6: .cfa -12 + ^ r4: .cfa -16 + ^
STACK CFI 40a34 .cfa: r7 8 +
STACK CFI INIT 40a70 44 .cfa: sp 0 +
STACK CFI 40a72 .cfa: sp 16 + .ra: .cfa -4 + ^ r7: .cfa -8 + ^ r6: .cfa -12 + ^ r4: .cfa -16 + ^
STACK CFI 40a74 .cfa: r7 8 +
STACK CFI INIT 40ab4 c .cfa: sp 0 +
STACK CFI INIT 40ac0 18 .cfa: sp 0 +
STACK CFI INIT 40ad8 2 .cfa: sp 0 +
STACK CFI INIT 40ada 4 .cfa: sp 0 +
STACK CFI INIT 40ade 10 .cfa: sp 0 +
STACK CFI INIT 40af0 38 .cfa: sp 0 +
STACK CFI 40af2 .cfa: sp 16 + .ra: .cfa -4 + ^ r7: .cfa -8 + ^ r6: .cfa -12 + ^ r4: .cfa -16 + ^
STACK CFI 40af4 .cfa: r7 8 +
STACK CFI INIT 40b28 14c .cfa: sp 0 +
STACK CFI 40b2a .cfa: sp 20 + .ra: .cfa -4 + ^ r7: .cfa -8 + ^ r6: .cfa -12 + ^ r5: .cfa -16 + ^ r4: .cfa -20 + ^
STACK CFI 40b2c .cfa: r7 8 +
STACK CFI 40b30 r10: .cfa -24 + ^ r9: .cfa -28 + ^ r8: .cfa -32 + ^
STACK CFI INIT 40c74 182 .cfa: sp 0 +
STACK CFI 40c76 .cfa: sp 20 + .ra: .cfa -4 + ^ r7: .cfa -8 + ^ r6: .cfa -12 + ^ r5: .cfa -16 + ^ r4: .cfa -20 + ^
STACK CFI 40c78 .cfa: r7 8 +
STACK CFI 40c7c r11: .cfa -24 + ^ r9: .cfa -28 + ^ r8: .cfa -32 + ^
STACK CFI INIT 40df8 a0 .cfa: sp 0 +
STACK CFI 40dfa .cfa: sp 20 + .ra: .cfa -4 + ^ r7: .cfa -8 + ^ r6: .cfa -12 + ^ r5: .cfa -16 + ^ r4: .cfa -20 + ^
STACK CFI 40dfc .cfa: r7 8 +
STACK CFI 40e00 r8: .cfa -24 + ^
STACK CFI INIT 40e98 70 .cfa: sp 0 +
STACK CFI 40e9a .cfa: sp 16 + .ra: .cfa -4 + ^ r7: .cfa -8 + ^ r6: .cfa -12 + ^ r4: .cfa -16 + ^
STACK CFI 40e9c .cfa: r7 8 +
STACK CFI INIT 40f08 2c .cfa: sp 0 +
STACK CFI 40f1c .cfa: sp 16 + .ra: .cfa -4 + ^ r7: .cfa -8 + ^ r6: .cfa -12 + ^ r4: .cfa -16 + ^
STACK CFI 40f1e .cfa: r7 8 +
STACK CFI INIT 40f34 30 .cfa: sp 0 +
STACK CFI 40f4a .cfa: sp 16 + .ra: .cfa -4 + ^ r7: .cfa -8 + ^ r6: .cfa -12 + ^ r4: .cfa -16 + ^
STACK CFI 40f4c .cfa: r7 8 +
STACK CFI INIT 40f64 2e .cfa: sp 0 +
STACK CFI INIT 40f92 34 .cfa: sp 0 +
STACK CFI 40f94 .cfa: sp 8 + .ra: .cfa -4 + ^ r7: .cfa -8 + ^
STACK CFI 40f96 .cfa: r7 8 +
STACK CFI INIT 40fc8 18c .cfa: sp 0 +
STACK CFI 40fca .cfa: sp 20 + .ra: .cfa -4 + ^ r7: .cfa -8 + ^ r6: .cfa -12 + ^ r5: .cfa -16 + ^ r4: .cfa -20 + ^
STACK CFI 40fcc .cfa: r7 8 +
STACK CFI 40fd0 r11: .cfa -24 + ^ r10: .cfa -28 + ^ r9: .cfa -32 + ^ r8: .cfa -36 + ^
STACK CFI INIT 41154 8a .cfa: sp 0 +
STACK CFI 41156 .cfa: sp 16 + .ra: .cfa -4 + ^ r7: .cfa -8 + ^ r6: .cfa -12 + ^ r4: .cfa -16 + ^
STACK CFI 41158 .cfa: r7 8 +
STACK CFI INIT 411e0 bc .cfa: sp 0 +
STACK CFI 411e2 .cfa: sp 16 + .ra: .cfa -4 + ^ r7: .cfa -8 + ^ r6: .cfa -12 + ^ r4: .cfa -16 + ^
STACK CFI 411e4 .cfa: r7 8 +
STACK CFI INIT 4129c 208 .cfa: sp 0 +
STACK CFI 4129e .cfa: sp 20 + .ra: .cfa -4 + ^ r7: .cfa -8 + ^ r6: .cfa -12 + ^ r5: .cfa -16 + ^ r4: .cfa -20 + ^
STACK CFI 412a0 .cfa: r7 8 +
STACK CFI 412a4 r11: .cfa -24 + ^ r10: .cfa -28 + ^ r9: .cfa -32 + ^ r8: .cfa -36 + ^
STACK CFI INIT 414a4 15c .cfa: sp 0 +
STACK CFI 414a6 .cfa: sp 20 + .ra: .cfa -4 + ^ r7: .cfa -8 + ^ r6: .cfa -12 + ^ r5: .cfa -16 + ^ r4: .cfa -20 + ^
STACK CFI 414a8 .cfa: r7 8 +
STACK CFI 414ac r11: .cfa -24 + ^ r10: .cfa -28 + ^ r9: .cfa -32 + ^ r8: .cfa -36 + ^
STACK CFI INIT 41600 5d0 .cfa: sp 0 +
STACK CFI 41602 .cfa: sp 20 + .ra: .cfa -4 + ^ r7: .cfa -8 + ^ r6: .cfa -12 + ^ r5: .cfa -16 + ^ r4: .cfa -20 + ^
STACK CFI 41604 .cfa: r7 8 +
STACK CFI 41608 r11: .cfa -24 + ^ r10: .cfa -28 + ^ r9: .cfa -32 + ^ r8: .cfa -36 + ^
STACK CFI INIT 41bd0 450 .cfa: sp 0 +
STACK CFI 41bd2 .cfa: sp 20 + .ra: .cfa -4 + ^ r7: .cfa -8 + ^ r6: .cfa -12 + ^ r5: .cfa -16 + ^ r4: .cfa -20 + ^
STACK CFI 41bd4 .cfa: r7 8 +
STACK CFI 41bd8 r11: .cfa -24 + ^ r10: .cfa -28 + ^ r9: .cfa -32 + ^ r8: .cfa -36 + ^
STACK CFI INIT 42020 d4 .cfa: sp 0 +
STACK CFI 42022 .cfa: sp 20 + .ra: .cfa -4 + ^ r7: .cfa -8 + ^ r6: .cfa -12 + ^ r5: .cfa -16 + ^ r4: .cfa -20 + ^
STACK CFI 42024 .cfa: r7 8 +
STACK CFI 42028 r10: .cfa -24 + ^ r9: .cfa -28 + ^ r8: .cfa -32 + ^
STACK CFI INIT 420f4 c0 .cfa: sp 0 +
STACK CFI 420f6 .cfa: sp 16 + .ra: .cfa -4 + ^ r7: .cfa -8 + ^ r5: .cfa -12 + ^ r4: .cfa -16 + ^
STACK CFI 420f8 .cfa: r7 8 +
STACK CFI INIT 421b4 4a .cfa: sp 0 +
STACK CFI 421b6 .cfa: sp 20 + .ra: .cfa -4 + ^ r7: .cfa -8 + ^ r6: .cfa -12 + ^ r5: .cfa -16 + ^ r4: .cfa -20 + ^
STACK CFI 421b8 .cfa: r7 8 +
STACK CFI 421bc r11: .cfa -24 + ^
STACK CFI INIT 42200 36c .cfa: sp 0 +
STACK CFI 42202 .cfa: sp 20 + .ra: .cfa -4 + ^ r7: .cfa -8 + ^ r6: .cfa -12 + ^ r5: .cfa -16 + ^ r4: .cfa -20 + ^
STACK CFI 42204 .cfa: r7 8 +
STACK CFI 42208 r11: .cfa -24 + ^ r10: .cfa -28 + ^ r9: .cfa -32 + ^ r8: .cfa -36 + ^
STACK CFI INIT 4256c 120 .cfa: sp 0 +
STACK CFI 4256e .cfa: sp 20 + .ra: .cfa -4 + ^ r7: .cfa -8 + ^ r6: .cfa -12 + ^ r5: .cfa -16 + ^ r4: .cfa -20 + ^
STACK CFI 42570 .cfa: r7 8 +
STACK CFI 42574 r11: .cfa -24 + ^ r10: .cfa -28 + ^ r9: .cfa -32 + ^ r8: .cfa -36 + ^
STACK CFI INIT 4268c 11e .cfa: sp 0 +
STACK CFI 4268e .cfa: sp 20 + .ra: .cfa -4 + ^ r7: .cfa -8 + ^ r6: .cfa -12 + ^ r5: .cfa -16 + ^ r4: .cfa -20 + ^
STACK CFI 42690 .cfa: r7 8 +
STACK CFI 42694 r11: .cfa -24 + ^ r10: .cfa -28 + ^ r9: .cfa -32 + ^ r8: .cfa -36 + ^
STACK CFI INIT 427aa 11e .cfa: sp 0 +
STACK CFI 427ac .cfa: sp 20 + .ra: .cfa -4 + ^ r7: .cfa -8 + ^ r6: .cfa -12 + ^ r5: .cfa -16 + ^ r4: .cfa -20 + ^
STACK CFI 427ae .cfa: r7 8 +
STACK CFI 427b2 r11: .cfa -24 + ^ r10: .cfa -28 + ^ r9: .cfa -32 + ^ r8: .cfa -36 + ^
STACK CFI INIT 428c8 28c .cfa: sp 0 +
STACK CFI 428ca .cfa: sp 20 + .ra: .cfa -4 + ^ r7: .cfa -8 + ^ r6: .cfa -12 + ^ r5: .cfa -16 + ^ r4: .cfa -20 + ^
STACK CFI 428cc .cfa: r7 8 +
STACK CFI 428d0 r11: .cfa -24 + ^ r10: .cfa -28 + ^ r9: .cfa -32 + ^ r8: .cfa -36 + ^
STACK CFI INIT 42b54 11e .cfa: sp 0 +
STACK CFI 42b56 .cfa: sp 20 + .ra: .cfa -4 + ^ r7: .cfa -8 + ^ r6: .cfa -12 + ^ r5: .cfa -16 + ^ r4: .cfa -20 + ^
STACK CFI 42b58 .cfa: r7 8 +
STACK CFI 42b5c r11: .cfa -24 + ^ r10: .cfa -28 + ^ r9: .cfa -32 + ^ r8: .cfa -36 + ^
STACK CFI INIT 42c72 140 .cfa: sp 0 +
STACK CFI 42c74 .cfa: sp 20 + .ra: .cfa -4 + ^ r7: .cfa -8 + ^ r6: .cfa -12 + ^ r5: .cfa -16 + ^ r4: .cfa -20 + ^
STACK CFI 42c76 .cfa: r7 8 +
STACK CFI 42c7a r11: .cfa -24 + ^ r10: .cfa -28 + ^ r9: .cfa -32 + ^ r8: .cfa -36 + ^
STACK CFI INIT 42db2 25c .cfa: sp 0 +
STACK CFI 42db4 .cfa: sp 20 + .ra: .cfa -4 + ^ r7: .cfa -8 + ^ r6: .cfa -12 + ^ r5: .cfa -16 + ^ r4: .cfa -20 + ^
STACK CFI 42db6 .cfa: r7 8 +
STACK CFI 42dba r11: .cfa -24 + ^ r10: .cfa -28 + ^ r9: .cfa -32 + ^ r8: .cfa -36 + ^
STACK CFI INIT 4300e 104 .cfa: sp 0 +
STACK CFI 43010 .cfa: sp 20 + .ra: .cfa -4 + ^ r7: .cfa -8 + ^ r6: .cfa -12 + ^ r5: .cfa -16 + ^ r4: .cfa -20 + ^
STACK CFI 43012 .cfa: r7 8 +
STACK CFI 43016 r11: .cfa -24 + ^ r10: .cfa -28 + ^ r9: .cfa -32 + ^ r8: .cfa -36 + ^
STACK CFI INIT 43114 10 .cfa: sp 0 +
STACK CFI 43116 .cfa: sp 8 + .ra: .cfa -4 + ^ r7: .cfa -8 + ^
STACK CFI 43118 .cfa: r7 8 +
STACK CFI INIT 37a28 178 .cfa: sp 0 +
STACK CFI 37a2a .cfa: sp 20 + .ra: .cfa -4 + ^ r7: .cfa -8 + ^ r6: .cfa -12 + ^ r5: .cfa -16 + ^ r4: .cfa -20 + ^
STACK CFI 37a2c .cfa: r7 8 +
STACK CFI 37a30 r10: .cfa -24 + ^ r9: .cfa -28 + ^ r8: .cfa -32 + ^
STACK CFI INIT 43124 98 .cfa: sp 0 +
STACK CFI 43126 .cfa: sp 16 + .ra: .cfa -4 + ^ r7: .cfa -8 + ^ r6: .cfa -12 + ^ r4: .cfa -16 + ^
STACK CFI 43128 .cfa: r7 8 +
STACK CFI INIT 431bc 98 .cfa: sp 0 +
STACK CFI 431be .cfa: sp 16 + .ra: .cfa -4 + ^ r7: .cfa -8 + ^ r6: .cfa -12 + ^ r4: .cfa -16 + ^
STACK CFI 431c0 .cfa: r7 8 +
STACK CFI INIT 433d0 3f0 .cfa: sp 0 +
STACK CFI 433d2 .cfa: sp 20 + .ra: .cfa -4 + ^ r7: .cfa -8 + ^ r6: .cfa -12 + ^ r5: .cfa -16 + ^ r4: .cfa -20 + ^
STACK CFI 433d4 .cfa: r7 8 +
STACK CFI 433d8 r11: .cfa -24 + ^ r10: .cfa -28 + ^ r9: .cfa -32 + ^ r8: .cfa -36 + ^
STACK CFI INIT 437c0 288 .cfa: sp 0 +
STACK CFI 437c2 .cfa: sp 20 + .ra: .cfa -4 + ^ r7: .cfa -8 + ^ r6: .cfa -12 + ^ r5: .cfa -16 + ^ r4: .cfa -20 + ^
STACK CFI 437c4 .cfa: r7 8 +
STACK CFI 437c8 r11: .cfa -24 + ^ r10: .cfa -28 + ^ r9: .cfa -32 + ^ r8: .cfa -36 + ^
STACK CFI INIT 43a48 d0 .cfa: sp 0 +
STACK CFI 43a4a .cfa: sp 16 + .ra: .cfa -4 + ^ r7: .cfa -8 + ^ r6: .cfa -12 + ^ r4: .cfa -16 + ^
STACK CFI 43a4c .cfa: r7 8 +
STACK CFI INIT 43b18 3d8 .cfa: sp 0 +
STACK CFI 43b1a .cfa: sp 20 + .ra: .cfa -4 + ^ r7: .cfa -8 + ^ r6: .cfa -12 + ^ r5: .cfa -16 + ^ r4: .cfa -20 + ^
STACK CFI 43b1c .cfa: r7 8 +
STACK CFI 43b20 r11: .cfa -24 + ^ r10: .cfa -28 + ^ r9: .cfa -32 + ^ r8: .cfa -36 + ^
STACK CFI INIT 43ef0 56c .cfa: sp 0 +
STACK CFI 43ef2 .cfa: sp 20 + .ra: .cfa -4 + ^ r7: .cfa -8 + ^ r6: .cfa -12 + ^ r5: .cfa -16 + ^ r4: .cfa -20 + ^
STACK CFI 43ef4 .cfa: r7 8 +
STACK CFI 43ef8 r11: .cfa -24 + ^ r10: .cfa -28 + ^ r9: .cfa -32 + ^ r8: .cfa -36 + ^
STACK CFI INIT 44460 138 .cfa: sp 0 +
STACK CFI 44462 .cfa: sp 20 + .ra: .cfa -4 + ^ r7: .cfa -8 + ^ r6: .cfa -12 + ^ r5: .cfa -16 + ^ r4: .cfa -20 + ^
STACK CFI 44464 .cfa: r7 8 +
STACK CFI 44468 r11: .cfa -24 + ^ r9: .cfa -28 + ^ r8: .cfa -32 + ^
STACK CFI INIT 44598 34c .cfa: sp 0 +
STACK CFI 4459a .cfa: sp 20 + .ra: .cfa -4 + ^ r7: .cfa -8 + ^ r6: .cfa -12 + ^ r5: .cfa -16 + ^ r4: .cfa -20 + ^
STACK CFI 4459c .cfa: r7 8 +
STACK CFI 445a0 r10: .cfa -24 + ^ r9: .cfa -28 + ^ r8: .cfa -32 + ^
STACK CFI INIT 448e4 10 .cfa: sp 0 +
STACK CFI INIT 448f4 14 .cfa: sp 0 +
STACK CFI INIT 44908 60 .cfa: sp 0 +
STACK CFI 4490a .cfa: sp 16 + .ra: .cfa -4 + ^ r7: .cfa -8 + ^ r6: .cfa -12 + ^ r4: .cfa -16 + ^
STACK CFI 4490c .cfa: r7 8 +
STACK CFI INIT 44968 60 .cfa: sp 0 +
STACK CFI 4496a .cfa: sp 16 + .ra: .cfa -4 + ^ r7: .cfa -8 + ^ r6: .cfa -12 + ^ r4: .cfa -16 + ^
STACK CFI 4496c .cfa: r7 8 +
STACK CFI INIT 449c8 338 .cfa: sp 0 +
STACK CFI 449ca .cfa: sp 20 + .ra: .cfa -4 + ^ r7: .cfa -8 + ^ r6: .cfa -12 + ^ r5: .cfa -16 + ^ r4: .cfa -20 + ^
STACK CFI 449cc .cfa: r7 8 +
STACK CFI 449d0 r11: .cfa -24 + ^ r10: .cfa -28 + ^ r9: .cfa -32 + ^ r8: .cfa -36 + ^
STACK CFI INIT 44d00 bc .cfa: sp 0 +
STACK CFI 44d02 .cfa: sp 16 + .ra: .cfa -4 + ^ r7: .cfa -8 + ^ r6: .cfa -12 + ^ r4: .cfa -16 + ^
STACK CFI 44d04 .cfa: r7 8 +
STACK CFI INIT 44dbc 60 .cfa: sp 0 +
STACK CFI 44dbe .cfa: sp 16 + .ra: .cfa -4 + ^ r7: .cfa -8 + ^ r6: .cfa -12 + ^ r4: .cfa -16 + ^
STACK CFI 44dc0 .cfa: r7 8 +
STACK CFI INIT 44e1c 60 .cfa: sp 0 +
STACK CFI 44e1e .cfa: sp 16 + .ra: .cfa -4 + ^ r7: .cfa -8 + ^ r6: .cfa -12 + ^ r4: .cfa -16 + ^
STACK CFI 44e20 .cfa: r7 8 +
STACK CFI INIT 44e7c 60 .cfa: sp 0 +
STACK CFI 44e7e .cfa: sp 16 + .ra: .cfa -4 + ^ r7: .cfa -8 + ^ r6: .cfa -12 + ^ r4: .cfa -16 + ^
STACK CFI 44e80 .cfa: r7 8 +
STACK CFI INIT 44edc 2 .cfa: sp 0 +
STACK CFI INIT 44ede e .cfa: sp 0 +
STACK CFI INIT 44eec e .cfa: sp 0 +
STACK CFI INIT 44efa e .cfa: sp 0 +
STACK CFI INIT 44f08 2 .cfa: sp 0 +
STACK CFI INIT 44f0a e .cfa: sp 0 +
STACK CFI INIT 44f18 1e .cfa: sp 0 +
STACK CFI 44f1a .cfa: sp 16 + .ra: .cfa -4 + ^ r7: .cfa -8 + ^ r6: .cfa -12 + ^ r4: .cfa -16 + ^
STACK CFI 44f1c .cfa: r7 8 +
STACK CFI INIT 44f36 e .cfa: sp 0 +
STACK CFI INIT 44f44 214 .cfa: sp 0 +
STACK CFI 44f46 .cfa: sp 20 + .ra: .cfa -4 + ^ r7: .cfa -8 + ^ r6: .cfa -12 + ^ r5: .cfa -16 + ^ r4: .cfa -20 + ^
STACK CFI 44f48 .cfa: r7 8 +
STACK CFI 44f4c r11: .cfa -24 + ^ r10: .cfa -28 + ^ r9: .cfa -32 + ^ r8: .cfa -36 + ^
STACK CFI INIT 45158 10c .cfa: sp 0 +
STACK CFI 4515a .cfa: sp 20 + .ra: .cfa -4 + ^ r7: .cfa -8 + ^ r6: .cfa -12 + ^ r5: .cfa -16 + ^ r4: .cfa -20 + ^
STACK CFI 4515c .cfa: r7 8 +
STACK CFI 45160 r11: .cfa -24 + ^ r10: .cfa -28 + ^ r9: .cfa -32 + ^ r8: .cfa -36 + ^
STACK CFI INIT 45264 7e .cfa: sp 0 +
STACK CFI 45266 .cfa: sp 20 + .ra: .cfa -4 + ^ r7: .cfa -8 + ^ r6: .cfa -12 + ^ r5: .cfa -16 + ^ r4: .cfa -20 + ^
STACK CFI 45268 .cfa: r7 8 +
STACK CFI 4526c r10: .cfa -24 + ^ r9: .cfa -28 + ^ r8: .cfa -32 + ^
STACK CFI INIT 452e2 7e .cfa: sp 0 +
STACK CFI 452e4 .cfa: sp 20 + .ra: .cfa -4 + ^ r7: .cfa -8 + ^ r6: .cfa -12 + ^ r5: .cfa -16 + ^ r4: .cfa -20 + ^
STACK CFI 452e6 .cfa: r7 8 +
STACK CFI 452ea r10: .cfa -24 + ^ r9: .cfa -28 + ^ r8: .cfa -32 + ^
STACK CFI INIT 45360 7c .cfa: sp 0 +
STACK CFI 45362 .cfa: sp 20 + .ra: .cfa -4 + ^ r7: .cfa -8 + ^ r6: .cfa -12 + ^ r5: .cfa -16 + ^ r4: .cfa -20 + ^
STACK CFI 45364 .cfa: r7 8 +
STACK CFI 45368 r10: .cfa -24 + ^ r9: .cfa -28 + ^ r8: .cfa -32 + ^
STACK CFI INIT 453dc d4 .cfa: sp 0 +
STACK CFI 453de .cfa: sp 20 + .ra: .cfa -4 + ^ r7: .cfa -8 + ^ r6: .cfa -12 + ^ r5: .cfa -16 + ^ r4: .cfa -20 + ^
STACK CFI 453e0 .cfa: r7 8 +
STACK CFI 453e4 r10: .cfa -24 + ^ r9: .cfa -28 + ^ r8: .cfa -32 + ^
STACK CFI INIT 454b0 7a .cfa: sp 0 +
STACK CFI 454b2 .cfa: sp 20 + .ra: .cfa -4 + ^ r7: .cfa -8 + ^ r6: .cfa -12 + ^ r5: .cfa -16 + ^ r4: .cfa -20 + ^
STACK CFI 454b4 .cfa: r7 8 +
STACK CFI 454b8 r10: .cfa -24 + ^ r9: .cfa -28 + ^ r8: .cfa -32 + ^
STACK CFI INIT 4552a 1c .cfa: sp 0 +
STACK CFI 4552c .cfa: sp 16 + .ra: .cfa -4 + ^ r7: .cfa -8 + ^ r6: .cfa -12 + ^ r4: .cfa -16 + ^
STACK CFI 4552e .cfa: r7 8 +
STACK CFI INIT 45546 2a .cfa: sp 0 +
STACK CFI 45548 .cfa: sp 16 + .ra: .cfa -4 + ^ r7: .cfa -8 + ^ r5: .cfa -12 + ^ r4: .cfa -16 + ^
STACK CFI 4554a .cfa: r7 8 +
STACK CFI INIT 45570 11c .cfa: sp 0 +
STACK CFI 45572 .cfa: sp 20 + .ra: .cfa -4 + ^ r7: .cfa -8 + ^ r6: .cfa -12 + ^ r5: .cfa -16 + ^ r4: .cfa -20 + ^
STACK CFI 45574 .cfa: r7 8 +
STACK CFI 45578 r11: .cfa -24 + ^ r10: .cfa -28 + ^ r9: .cfa -32 + ^ r8: .cfa -36 + ^
STACK CFI INIT 4568c 2a .cfa: sp 0 +
STACK CFI 4568e .cfa: sp 16 + .ra: .cfa -4 + ^ r7: .cfa -8 + ^ r5: .cfa -12 + ^ r4: .cfa -16 + ^
STACK CFI 45690 .cfa: r7 8 +
STACK CFI INIT 456b8 10 .cfa: sp 0 +
STACK CFI 456ba .cfa: sp 8 + .ra: .cfa -4 + ^ r7: .cfa -8 + ^
STACK CFI 456bc .cfa: r7 8 +
STACK CFI INIT 43254 178 .cfa: sp 0 +
STACK CFI 43256 .cfa: sp 20 + .ra: .cfa -4 + ^ r7: .cfa -8 + ^ r6: .cfa -12 + ^ r5: .cfa -16 + ^ r4: .cfa -20 + ^
STACK CFI 43258 .cfa: r7 8 +
STACK CFI 4325c r10: .cfa -24 + ^ r9: .cfa -28 + ^ r8: .cfa -32 + ^
STACK CFI INIT 456c8 4 .cfa: sp 0 +
STACK CFI INIT 456cc 8 .cfa: sp 0 +
STACK CFI INIT 456d4 10 .cfa: sp 0 +
STACK CFI 456d6 .cfa: sp 8 + .ra: .cfa -4 + ^ r7: .cfa -8 + ^
STACK CFI 456d8 .cfa: r7 8 +
STACK CFI INIT 456e4 14 .cfa: sp 0 +
STACK CFI 456e6 .cfa: sp 8 + .ra: .cfa -4 + ^ r7: .cfa -8 + ^
STACK CFI 456e8 .cfa: r7 8 +
STACK CFI INIT 456f8 22 .cfa: sp 0 +
STACK CFI 456fa .cfa: sp 16 + .ra: .cfa -4 + ^ r7: .cfa -8 + ^ r5: .cfa -12 + ^ r4: .cfa -16 + ^
STACK CFI 456fc .cfa: r7 8 +
STACK CFI INIT 4571c a0 .cfa: sp 0 +
STACK CFI 4571e .cfa: sp 16 + .ra: .cfa -4 + ^ r7: .cfa -8 + ^ r6: .cfa -12 + ^ r4: .cfa -16 + ^
STACK CFI 45720 .cfa: r7 8 +
STACK CFI INIT 457bc 48 .cfa: sp 0 +
STACK CFI 457be .cfa: sp 16 + .ra: .cfa -4 + ^ r7: .cfa -8 + ^ r6: .cfa -12 + ^ r4: .cfa -16 + ^
STACK CFI 457c0 .cfa: r7 8 +
STACK CFI INIT 45804 1c0 .cfa: sp 0 +
STACK CFI 45806 .cfa: sp 20 + .ra: .cfa -4 + ^ r7: .cfa -8 + ^ r6: .cfa -12 + ^ r5: .cfa -16 + ^ r4: .cfa -20 + ^
STACK CFI 45808 .cfa: r7 8 +
STACK CFI 4580c r8: .cfa -24 + ^
STACK CFI INIT 459c4 b0 .cfa: sp 0 +
STACK CFI 459c6 .cfa: sp 20 + .ra: .cfa -4 + ^ r7: .cfa -8 + ^ r6: .cfa -12 + ^ r5: .cfa -16 + ^ r4: .cfa -20 + ^
STACK CFI 459c8 .cfa: r7 8 +
STACK CFI 459cc r8: .cfa -24 + ^
STACK CFI INIT 45a74 174 .cfa: sp 0 +
STACK CFI 45a76 .cfa: sp 20 + .ra: .cfa -4 + ^ r7: .cfa -8 + ^ r6: .cfa -12 + ^ r5: .cfa -16 + ^ r4: .cfa -20 + ^
STACK CFI 45a78 .cfa: r7 8 +
STACK CFI 45a7c r8: .cfa -24 + ^
STACK CFI INIT 45be8 cc4 .cfa: sp 0 +
STACK CFI 45bea .cfa: sp 20 + .ra: .cfa -4 + ^ r7: .cfa -8 + ^ r6: .cfa -12 + ^ r5: .cfa -16 + ^ r4: .cfa -20 + ^
STACK CFI 45bec .cfa: r7 8 +
STACK CFI 45bf0 r11: .cfa -24 + ^ r10: .cfa -28 + ^ r9: .cfa -32 + ^ r8: .cfa -36 + ^
STACK CFI INIT 468ac 108 .cfa: sp 0 +
STACK CFI 468ae .cfa: sp 20 + .ra: .cfa -4 + ^ r7: .cfa -8 + ^ r6: .cfa -12 + ^ r5: .cfa -16 + ^ r4: .cfa -20 + ^
STACK CFI 468b0 .cfa: r7 8 +
STACK CFI 468b4 r8: .cfa -24 + ^
STACK CFI INIT 469b4 7c .cfa: sp 0 +
STACK CFI 469b6 .cfa: sp 16 + .ra: .cfa -4 + ^ r7: .cfa -8 + ^ r6: .cfa -12 + ^ r4: .cfa -16 + ^
STACK CFI 469b8 .cfa: r7 8 +
STACK CFI INIT 46a30 2bc .cfa: sp 0 +
STACK CFI 46a32 .cfa: sp 20 + .ra: .cfa -4 + ^ r7: .cfa -8 + ^ r6: .cfa -12 + ^ r5: .cfa -16 + ^ r4: .cfa -20 + ^
STACK CFI 46a34 .cfa: r7 8 +
STACK CFI 46a38 r11: .cfa -24 + ^ r10: .cfa -28 + ^ r9: .cfa -32 + ^ r8: .cfa -36 + ^
STACK CFI INIT 47060 20 .cfa: sp 0 +
STACK CFI 47062 .cfa: sp 16 + .ra: .cfa -4 + ^ r7: .cfa -8 + ^ r6: .cfa -12 + ^ r4: .cfa -16 + ^
STACK CFI 47064 .cfa: r7 8 +
STACK CFI INIT 46cec 2bc .cfa: sp 0 +
STACK CFI 46cee .cfa: sp 20 + .ra: .cfa -4 + ^ r7: .cfa -8 + ^ r6: .cfa -12 + ^ r5: .cfa -16 + ^ r4: .cfa -20 + ^
STACK CFI 46cf0 .cfa: r7 8 +
STACK CFI 46cf4 r11: .cfa -24 + ^ r10: .cfa -28 + ^ r9: .cfa -32 + ^ r8: .cfa -36 + ^
STACK CFI INIT 47080 20 .cfa: sp 0 +
STACK CFI 47082 .cfa: sp 16 + .ra: .cfa -4 + ^ r7: .cfa -8 + ^ r6: .cfa -12 + ^ r4: .cfa -16 + ^
STACK CFI 47084 .cfa: r7 8 +
STACK CFI INIT 470a0 104 .cfa: sp 0 +
STACK CFI 470a2 .cfa: sp 20 + .ra: .cfa -4 + ^ r7: .cfa -8 + ^ r6: .cfa -12 + ^ r5: .cfa -16 + ^ r4: .cfa -20 + ^
STACK CFI 470a4 .cfa: r7 8 +
STACK CFI 470a8 r8: .cfa -24 + ^
STACK CFI INIT 471a4 d8 .cfa: sp 0 +
STACK CFI 471a6 .cfa: sp 20 + .ra: .cfa -4 + ^ r7: .cfa -8 + ^ r6: .cfa -12 + ^ r5: .cfa -16 + ^ r4: .cfa -20 + ^
STACK CFI 471a8 .cfa: r7 8 +
STACK CFI 471ac r11: .cfa -24 + ^ r10: .cfa -28 + ^ r9: .cfa -32 + ^ r8: .cfa -36 + ^
STACK CFI INIT 4727c 68 .cfa: sp 0 +
STACK CFI 4727e .cfa: sp 20 + .ra: .cfa -4 + ^ r7: .cfa -8 + ^ r6: .cfa -12 + ^ r5: .cfa -16 + ^ r4: .cfa -20 + ^
STACK CFI 47280 .cfa: r7 8 +
STACK CFI 47284 r11: .cfa -24 + ^
STACK CFI INIT 472e4 10 .cfa: sp 0 +
STACK CFI 472e6 .cfa: sp 8 + .ra: .cfa -4 + ^ r7: .cfa -8 + ^
STACK CFI 472e8 .cfa: r7 8 +
STACK CFI INIT 472f4 108 .cfa: sp 0 +
STACK CFI 472f6 .cfa: sp 20 + .ra: .cfa -4 + ^ r7: .cfa -8 + ^ r6: .cfa -12 + ^ r5: .cfa -16 + ^ r4: .cfa -20 + ^
STACK CFI 472f8 .cfa: r7 8 +
STACK CFI 472fc r11: .cfa -24 + ^ r10: .cfa -28 + ^ r9: .cfa -32 + ^ r8: .cfa -36 + ^
STACK CFI INIT 473fc 110 .cfa: sp 0 +
STACK CFI 473fe .cfa: sp 20 + .ra: .cfa -4 + ^ r7: .cfa -8 + ^ r6: .cfa -12 + ^ r5: .cfa -16 + ^ r4: .cfa -20 + ^
STACK CFI 47400 .cfa: r7 8 +
STACK CFI 47404 r11: .cfa -24 + ^ r10: .cfa -28 + ^ r9: .cfa -32 + ^ r8: .cfa -36 + ^
STACK CFI INIT 4750c da .cfa: sp 0 +
STACK CFI 4750e .cfa: sp 20 + .ra: .cfa -4 + ^ r7: .cfa -8 + ^ r6: .cfa -12 + ^ r5: .cfa -16 + ^ r4: .cfa -20 + ^
STACK CFI 47510 .cfa: r7 8 +
STACK CFI 47514 r11: .cfa -24 + ^
STACK CFI INIT 475e6 e0 .cfa: sp 0 +
STACK CFI 475e8 .cfa: sp 20 + .ra: .cfa -4 + ^ r7: .cfa -8 + ^ r6: .cfa -12 + ^ r5: .cfa -16 + ^ r4: .cfa -20 + ^
STACK CFI 475ea .cfa: r7 8 +
STACK CFI 475ee r11: .cfa -24 + ^ r9: .cfa -28 + ^ r8: .cfa -32 + ^
STACK CFI INIT 476c6 5e .cfa: sp 0 +
STACK CFI 476ce .cfa: sp 20 + .ra: .cfa -4 + ^ r7: .cfa -8 + ^ r6: .cfa -12 + ^ r5: .cfa -16 + ^ r4: .cfa -20 + ^
STACK CFI 476d0 .cfa: r7 8 +
STACK CFI 476d4 r8: .cfa -24 + ^
STACK CFI INIT 47724 104 .cfa: sp 0 +
STACK CFI 47726 .cfa: sp 20 + .ra: .cfa -4 + ^ r7: .cfa -8 + ^ r6: .cfa -12 + ^ r5: .cfa -16 + ^ r4: .cfa -20 + ^
STACK CFI 47728 .cfa: r7 8 +
STACK CFI 4772c r8: .cfa -24 + ^
STACK CFI INIT 47828 1e0 .cfa: sp 0 +
STACK CFI 4782a .cfa: sp 20 + .ra: .cfa -4 + ^ r7: .cfa -8 + ^ r6: .cfa -12 + ^ r5: .cfa -16 + ^ r4: .cfa -20 + ^
STACK CFI 4782c .cfa: r7 8 +
STACK CFI 47830 r11: .cfa -24 + ^ r10: .cfa -28 + ^ r9: .cfa -32 + ^ r8: .cfa -36 + ^
STACK CFI INIT 47a08 9c .cfa: sp 0 +
STACK CFI 47a0a .cfa: sp 16 + .ra: .cfa -4 + ^ r7: .cfa -8 + ^ r5: .cfa -12 + ^ r4: .cfa -16 + ^
STACK CFI 47a0c .cfa: r7 8 +
STACK CFI INIT 47aa4 a0 .cfa: sp 0 +
STACK CFI 47aa6 .cfa: sp 16 + .ra: .cfa -4 + ^ r7: .cfa -8 + ^ r5: .cfa -12 + ^ r4: .cfa -16 + ^
STACK CFI 47aa8 .cfa: r7 8 +
STACK CFI INIT 47b50 338 .cfa: sp 0 +
STACK CFI 47b52 .cfa: sp 20 + .ra: .cfa -4 + ^ r7: .cfa -8 + ^ r6: .cfa -12 + ^ r5: .cfa -16 + ^ r4: .cfa -20 + ^
STACK CFI 47b54 .cfa: r7 8 +
STACK CFI 47b58 r11: .cfa -24 + ^ r9: .cfa -28 + ^ r8: .cfa -32 + ^
STACK CFI INIT 47e88 3a .cfa: sp 0 +
STACK CFI 47e8a .cfa: sp 16 + .ra: .cfa -4 + ^ r7: .cfa -8 + ^ r5: .cfa -12 + ^ r4: .cfa -16 + ^
STACK CFI 47e8c .cfa: r7 8 +
STACK CFI INIT 47ec4 60 .cfa: sp 0 +
STACK CFI 47ec6 .cfa: sp 16 + .ra: .cfa -4 + ^ r7: .cfa -8 + ^ r6: .cfa -12 + ^ r4: .cfa -16 + ^
STACK CFI 47ec8 .cfa: r7 8 +
STACK CFI INIT 47f24 2 .cfa: sp 0 +
STACK CFI INIT 47f28 f8 .cfa: sp 0 +
STACK CFI 47f2a .cfa: sp 20 + .ra: .cfa -4 + ^ r7: .cfa -8 + ^ r6: .cfa -12 + ^ r5: .cfa -16 + ^ r4: .cfa -20 + ^
STACK CFI 47f2c .cfa: r7 8 +
STACK CFI 47f30 r8: .cfa -24 + ^
STACK CFI INIT 48020 2 .cfa: sp 0 +
STACK CFI INIT 48022 e .cfa: sp 0 +
STACK CFI INIT 48030 c0 .cfa: sp 0 +
STACK CFI 48032 .cfa: sp 20 + .ra: .cfa -4 + ^ r7: .cfa -8 + ^ r6: .cfa -12 + ^ r5: .cfa -16 + ^ r4: .cfa -20 + ^
STACK CFI 48034 .cfa: r7 8 +
STACK CFI 48038 r10: .cfa -24 + ^ r9: .cfa -28 + ^ r8: .cfa -32 + ^
STACK CFI INIT 480f0 82 .cfa: sp 0 +
STACK CFI 480f2 .cfa: sp 20 + .ra: .cfa -4 + ^ r7: .cfa -8 + ^ r6: .cfa -12 + ^ r5: .cfa -16 + ^ r4: .cfa -20 + ^
STACK CFI 480f4 .cfa: r7 8 +
STACK CFI 480f8 r11: .cfa -24 + ^
STACK CFI INIT 48172 274 .cfa: sp 0 +
STACK CFI 48174 .cfa: sp 20 + .ra: .cfa -4 + ^ r7: .cfa -8 + ^ r6: .cfa -12 + ^ r5: .cfa -16 + ^ r4: .cfa -20 + ^
STACK CFI 48176 .cfa: r7 8 +
STACK CFI 4817a r8: .cfa -24 + ^
STACK CFI INIT 483e6 5e .cfa: sp 0 +
STACK CFI 483ee .cfa: sp 16 + .ra: .cfa -4 + ^ r7: .cfa -8 + ^ r5: .cfa -12 + ^ r4: .cfa -16 + ^
STACK CFI 483f0 .cfa: r7 8 +
STACK CFI INIT 48444 22 .cfa: sp 0 +
STACK CFI 48446 .cfa: sp 8 + .ra: .cfa -4 + ^ r7: .cfa -8 + ^
STACK CFI 48448 .cfa: r7 8 +
STACK CFI INIT 48468 90 .cfa: sp 0 +
STACK CFI 4846a .cfa: sp 16 + .ra: .cfa -4 + ^ r7: .cfa -8 + ^ r6: .cfa -12 + ^ r4: .cfa -16 + ^
STACK CFI 4846c .cfa: r7 8 +
STACK CFI INIT 484f8 3a .cfa: sp 0 +
STACK CFI 484fa .cfa: sp 16 + .ra: .cfa -4 + ^ r7: .cfa -8 + ^ r5: .cfa -12 + ^ r4: .cfa -16 + ^
STACK CFI 484fc .cfa: r7 8 +
STACK CFI INIT 48532 46 .cfa: sp 0 +
STACK CFI 48534 .cfa: sp 16 + .ra: .cfa -4 + ^ r7: .cfa -8 + ^ r5: .cfa -12 + ^ r4: .cfa -16 + ^
STACK CFI 48536 .cfa: r7 8 +
STACK CFI INIT 48578 ba .cfa: sp 0 +
STACK CFI 4857a .cfa: sp 20 + .ra: .cfa -4 + ^ r7: .cfa -8 + ^ r6: .cfa -12 + ^ r5: .cfa -16 + ^ r4: .cfa -20 + ^
STACK CFI 4857c .cfa: r7 8 +
STACK CFI 48580 r11: .cfa -24 + ^ r10: .cfa -28 + ^ r9: .cfa -32 + ^ r8: .cfa -36 + ^
STACK CFI INIT 48634 2c8 .cfa: sp 0 +
STACK CFI 48636 .cfa: sp 20 + .ra: .cfa -4 + ^ r7: .cfa -8 + ^ r6: .cfa -12 + ^ r5: .cfa -16 + ^ r4: .cfa -20 + ^
STACK CFI 48638 .cfa: r7 8 +
STACK CFI 4863c r11: .cfa -24 + ^ r9: .cfa -28 + ^ r8: .cfa -32 + ^
STACK CFI INIT 488fc 2 .cfa: sp 0 +
STACK CFI INIT 488fe 14 .cfa: sp 0 +
STACK CFI 48900 .cfa: sp 8 + .ra: .cfa -4 + ^ r7: .cfa -8 + ^
STACK CFI 48902 .cfa: r7 8 +
STACK CFI INIT 48912 2 .cfa: sp 0 +
STACK CFI INIT 48914 4 .cfa: sp 0 +
STACK CFI INIT 48918 18 .cfa: sp 0 +
STACK CFI 4891a .cfa: sp 8 + .ra: .cfa -4 + ^ r7: .cfa -8 + ^
STACK CFI 4891c .cfa: r7 8 +
STACK CFI INIT 48930 10 .cfa: sp 0 +
STACK CFI INIT 48940 2 .cfa: sp 0 +
STACK CFI INIT 48942 4 .cfa: sp 0 +
STACK CFI INIT 48946 10 .cfa: sp 0 +
STACK CFI 48948 .cfa: sp 8 + .ra: .cfa -4 + ^ r7: .cfa -8 + ^
STACK CFI 4894a .cfa: r7 8 +
STACK CFI INIT 48958 18 .cfa: sp 0 +
STACK CFI INIT 48970 c .cfa: sp 0 +
STACK CFI INIT 4897c 4 .cfa: sp 0 +
STACK CFI INIT 48980 e0 .cfa: sp 0 +
STACK CFI 48982 .cfa: sp 20 + .ra: .cfa -4 + ^ r7: .cfa -8 + ^ r6: .cfa -12 + ^ r5: .cfa -16 + ^ r4: .cfa -20 + ^
STACK CFI 48984 .cfa: r7 8 +
STACK CFI 48988 r11: .cfa -24 + ^
STACK CFI INIT 48a60 38 .cfa: sp 0 +
STACK CFI 48a62 .cfa: sp 16 + .ra: .cfa -4 + ^ r7: .cfa -8 + ^ r6: .cfa -12 + ^ r4: .cfa -16 + ^
STACK CFI 48a64 .cfa: r7 8 +
STACK CFI INIT 48a98 3c .cfa: sp 0 +
STACK CFI 48a9a .cfa: sp 16 + .ra: .cfa -4 + ^ r7: .cfa -8 + ^ r6: .cfa -12 + ^ r4: .cfa -16 + ^
STACK CFI 48a9c .cfa: r7 8 +
STACK CFI INIT 48ad4 2 .cfa: sp 0 +
STACK CFI INIT 48ad6 4 .cfa: sp 0 +
STACK CFI INIT 48adc 20 .cfa: sp 0 +
STACK CFI 48ade .cfa: sp 16 + .ra: .cfa -4 + ^ r7: .cfa -8 + ^ r6: .cfa -12 + ^ r4: .cfa -16 + ^
STACK CFI 48ae0 .cfa: r7 8 +
STACK CFI INIT 48afc 14 .cfa: sp 0 +
STACK CFI INIT 48b10 2 .cfa: sp 0 +
STACK CFI INIT 48b12 4 .cfa: sp 0 +
STACK CFI INIT 48b16 8 .cfa: sp 0 +
STACK CFI INIT 48b20 18 .cfa: sp 0 +
STACK CFI INIT 48b38 c .cfa: sp 0 +
STACK CFI INIT 46fa8 b8 .cfa: sp 0 +
STACK CFI 46faa .cfa: sp 20 + .ra: .cfa -4 + ^ r7: .cfa -8 + ^ r6: .cfa -12 + ^ r5: .cfa -16 + ^ r4: .cfa -20 + ^
STACK CFI 46fac .cfa: r7 8 +
STACK CFI 46fb0 r8: .cfa -24 + ^
STACK CFI INIT 48b44 98 .cfa: sp 0 +
STACK CFI 48b46 .cfa: sp 16 + .ra: .cfa -4 + ^ r7: .cfa -8 + ^ r6: .cfa -12 + ^ r4: .cfa -16 + ^
STACK CFI 48b48 .cfa: r7 8 +
STACK CFI INIT 48bdc 98 .cfa: sp 0 +
STACK CFI 48bde .cfa: sp 16 + .ra: .cfa -4 + ^ r7: .cfa -8 + ^ r6: .cfa -12 + ^ r4: .cfa -16 + ^
STACK CFI 48be0 .cfa: r7 8 +
STACK CFI INIT 48e34 200 .cfa: sp 0 +
STACK CFI 48e36 .cfa: sp 20 + .ra: .cfa -4 + ^ r7: .cfa -8 + ^ r6: .cfa -12 + ^ r5: .cfa -16 + ^ r4: .cfa -20 + ^
STACK CFI 48e38 .cfa: r7 8 +
STACK CFI 48e3c r11: .cfa -24 + ^ r9: .cfa -28 + ^ r8: .cfa -32 + ^
STACK CFI INIT 49038 1b4 .cfa: sp 0 +
STACK CFI 4903a .cfa: sp 20 + .ra: .cfa -4 + ^ r7: .cfa -8 + ^ r6: .cfa -12 + ^ r5: .cfa -16 + ^ r4: .cfa -20 + ^
STACK CFI 4903c .cfa: r7 8 +
STACK CFI 49040 r11: .cfa -24 + ^ r10: .cfa -28 + ^ r9: .cfa -32 + ^ r8: .cfa -36 + ^
STACK CFI INIT 491ec 408 .cfa: sp 0 +
STACK CFI 491ee .cfa: sp 20 + .ra: .cfa -4 + ^ r7: .cfa -8 + ^ r6: .cfa -12 + ^ r5: .cfa -16 + ^ r4: .cfa -20 + ^
STACK CFI 491f0 .cfa: r7 8 +
STACK CFI 491f4 r11: .cfa -24 + ^ r10: .cfa -28 + ^ r9: .cfa -32 + ^ r8: .cfa -36 + ^
STACK CFI INIT 495f4 98 .cfa: sp 0 +
STACK CFI 495f6 .cfa: sp 16 + .ra: .cfa -4 + ^ r7: .cfa -8 + ^ r6: .cfa -12 + ^ r4: .cfa -16 + ^
STACK CFI 495f8 .cfa: r7 8 +
STACK CFI INIT 4968c 1c0 .cfa: sp 0 +
STACK CFI 4968e .cfa: sp 20 + .ra: .cfa -4 + ^ r7: .cfa -8 + ^ r6: .cfa -12 + ^ r5: .cfa -16 + ^ r4: .cfa -20 + ^
STACK CFI 49690 .cfa: r7 8 +
STACK CFI 49694 r11: .cfa -24 + ^ r10: .cfa -28 + ^ r9: .cfa -32 + ^ r8: .cfa -36 + ^
STACK CFI INIT 49850 450 .cfa: sp 0 +
STACK CFI 49852 .cfa: sp 20 + .ra: .cfa -4 + ^ r7: .cfa -8 + ^ r6: .cfa -12 + ^ r5: .cfa -16 + ^ r4: .cfa -20 + ^
STACK CFI 49854 .cfa: r7 8 +
STACK CFI 49858 r11: .cfa -24 + ^ r10: .cfa -28 + ^ r9: .cfa -32 + ^ r8: .cfa -36 + ^
STACK CFI INIT 49ca0 23c .cfa: sp 0 +
STACK CFI 49ca2 .cfa: sp 20 + .ra: .cfa -4 + ^ r7: .cfa -8 + ^ r6: .cfa -12 + ^ r5: .cfa -16 + ^ r4: .cfa -20 + ^
STACK CFI 49ca4 .cfa: r7 8 +
STACK CFI 49ca8 r10: .cfa -24 + ^ r9: .cfa -28 + ^ r8: .cfa -32 + ^
STACK CFI INIT 49edc 30 .cfa: sp 0 +
STACK CFI 49ef0 .cfa: sp 16 + .ra: .cfa -4 + ^ r7: .cfa -8 + ^ r6: .cfa -12 + ^ r4: .cfa -16 + ^
STACK CFI 49ef2 .cfa: r7 8 +
STACK CFI INIT 49f0c 170 .cfa: sp 0 +
STACK CFI 49f0e .cfa: sp 20 + .ra: .cfa -4 + ^ r7: .cfa -8 + ^ r6: .cfa -12 + ^ r5: .cfa -16 + ^ r4: .cfa -20 + ^
STACK CFI 49f10 .cfa: r7 8 +
STACK CFI 49f14 r10: .cfa -24 + ^ r9: .cfa -28 + ^ r8: .cfa -32 + ^
STACK CFI INIT 4a07c 620 .cfa: sp 0 +
STACK CFI 4a07e .cfa: sp 20 + .ra: .cfa -4 + ^ r7: .cfa -8 + ^ r6: .cfa -12 + ^ r5: .cfa -16 + ^ r4: .cfa -20 + ^
STACK CFI 4a080 .cfa: r7 8 +
STACK CFI 4a084 r11: .cfa -24 + ^ r10: .cfa -28 + ^ r9: .cfa -32 + ^ r8: .cfa -36 + ^
STACK CFI INIT 4a69c 90 .cfa: sp 0 +
STACK CFI 4a69e .cfa: sp 16 + .ra: .cfa -4 + ^ r7: .cfa -8 + ^ r6: .cfa -12 + ^ r4: .cfa -16 + ^
STACK CFI 4a6a0 .cfa: r7 8 +
STACK CFI INIT 4a730 10c .cfa: sp 0 +
STACK CFI 4a732 .cfa: sp 20 + .ra: .cfa -4 + ^ r7: .cfa -8 + ^ r6: .cfa -12 + ^ r5: .cfa -16 + ^ r4: .cfa -20 + ^
STACK CFI 4a734 .cfa: r7 8 +
STACK CFI 4a738 r11: .cfa -24 + ^ r9: .cfa -28 + ^ r8: .cfa -32 + ^
STACK CFI INIT 4a83c 270 .cfa: sp 0 +
STACK CFI 4a83e .cfa: sp 20 + .ra: .cfa -4 + ^ r7: .cfa -8 + ^ r6: .cfa -12 + ^ r5: .cfa -16 + ^ r4: .cfa -20 + ^
STACK CFI 4a840 .cfa: r7 8 +
STACK CFI 4a844 r10: .cfa -24 + ^ r9: .cfa -28 + ^ r8: .cfa -32 + ^
STACK CFI INIT 4aaac 8c .cfa: sp 0 +
STACK CFI 4aaae .cfa: sp 16 + .ra: .cfa -4 + ^ r7: .cfa -8 + ^ r6: .cfa -12 + ^ r4: .cfa -16 + ^
STACK CFI 4aab0 .cfa: r7 8 +
STACK CFI INIT 4ab40 49c .cfa: sp 0 +
STACK CFI 4ab42 .cfa: sp 20 + .ra: .cfa -4 + ^ r7: .cfa -8 + ^ r6: .cfa -12 + ^ r5: .cfa -16 + ^ r4: .cfa -20 + ^
STACK CFI 4ab44 .cfa: r7 8 +
STACK CFI 4ab48 r11: .cfa -24 + ^ r10: .cfa -28 + ^ r9: .cfa -32 + ^ r8: .cfa -36 + ^
STACK CFI INIT 4afdc 3e .cfa: sp 0 +
STACK CFI 4afde .cfa: sp 20 + .ra: .cfa -4 + ^ r7: .cfa -8 + ^ r6: .cfa -12 + ^ r5: .cfa -16 + ^ r4: .cfa -20 + ^
STACK CFI 4afe0 .cfa: r7 8 +
STACK CFI 4afe4 r11: .cfa -24 + ^
STACK CFI INIT 4b020 4c4 .cfa: sp 0 +
STACK CFI 4b022 .cfa: sp 20 + .ra: .cfa -4 + ^ r7: .cfa -8 + ^ r6: .cfa -12 + ^ r5: .cfa -16 + ^ r4: .cfa -20 + ^
STACK CFI 4b024 .cfa: r7 8 +
STACK CFI 4b028 r11: .cfa -24 + ^ r10: .cfa -28 + ^ r9: .cfa -32 + ^ r8: .cfa -36 + ^
STACK CFI INIT 4b4e8 160 .cfa: sp 0 +
STACK CFI 4b4ea .cfa: sp 20 + .ra: .cfa -4 + ^ r7: .cfa -8 + ^ r6: .cfa -12 + ^ r5: .cfa -16 + ^ r4: .cfa -20 + ^
STACK CFI 4b4ec .cfa: r7 8 +
STACK CFI 4b4f0 r11: .cfa -24 + ^ r9: .cfa -28 + ^ r8: .cfa -32 + ^
STACK CFI INIT 48c74 38 .cfa: sp 0 +
STACK CFI 48c76 .cfa: sp 16 + .ra: .cfa -4 + ^ r7: .cfa -8 + ^ r6: .cfa -12 + ^ r4: .cfa -16 + ^
STACK CFI 48c78 .cfa: r7 8 +
STACK CFI INIT 4b648 468 .cfa: sp 0 +
STACK CFI 4b64a .cfa: sp 20 + .ra: .cfa -4 + ^ r7: .cfa -8 + ^ r6: .cfa -12 + ^ r5: .cfa -16 + ^ r4: .cfa -20 + ^
STACK CFI 4b64c .cfa: r7 8 +
STACK CFI 4b650 r11: .cfa -24 + ^ r10: .cfa -28 + ^ r9: .cfa -32 + ^ r8: .cfa -36 + ^
STACK CFI INIT 0 d8 .cfa: sp 0 +
STACK CFI 2 .cfa: sp 20 + .ra: .cfa -4 + ^ r7: .cfa -8 + ^ r6: .cfa -12 + ^ r5: .cfa -16 + ^ r4: .cfa -20 + ^
STACK CFI 4 .cfa: r7 8 +
STACK CFI 8 r11: .cfa -24 + ^ r9: .cfa -28 + ^ r8: .cfa -32 + ^
STACK CFI INIT 4bab0 144 .cfa: sp 0 +
STACK CFI 4bab2 .cfa: sp 20 + .ra: .cfa -4 + ^ r7: .cfa -8 + ^ r6: .cfa -12 + ^ r5: .cfa -16 + ^ r4: .cfa -20 + ^
STACK CFI 4bab4 .cfa: r7 8 +
STACK CFI 4bab8 r11: .cfa -24 + ^
STACK CFI INIT 4bbf4 17c .cfa: sp 0 +
STACK CFI 4bbf6 .cfa: sp 20 + .ra: .cfa -4 + ^ r7: .cfa -8 + ^ r6: .cfa -12 + ^ r5: .cfa -16 + ^ r4: .cfa -20 + ^
STACK CFI 4bbf8 .cfa: r7 8 +
STACK CFI 4bbfc r11: .cfa -24 + ^
STACK CFI INIT 4bd70 30 .cfa: sp 0 +
STACK CFI 4bd84 .cfa: sp 16 + .ra: .cfa -4 + ^ r7: .cfa -8 + ^ r6: .cfa -12 + ^ r4: .cfa -16 + ^
STACK CFI 4bd86 .cfa: r7 8 +
STACK CFI INIT 4bda0 8 .cfa: sp 0 +
STACK CFI INIT 4bda8 1b8 .cfa: sp 0 +
STACK CFI 4bdaa .cfa: sp 20 + .ra: .cfa -4 + ^ r7: .cfa -8 + ^ r6: .cfa -12 + ^ r5: .cfa -16 + ^ r4: .cfa -20 + ^
STACK CFI 4bdac .cfa: r7 8 +
STACK CFI 4bdb0 r11: .cfa -24 + ^
STACK CFI INIT 4bf60 8 .cfa: sp 0 +
STACK CFI INIT 4bf68 12c .cfa: sp 0 +
STACK CFI 4bf6a .cfa: sp 20 + .ra: .cfa -4 + ^ r7: .cfa -8 + ^ r6: .cfa -12 + ^ r5: .cfa -16 + ^ r4: .cfa -20 + ^
STACK CFI 4bf6c .cfa: r7 8 +
STACK CFI 4bf70 r11: .cfa -24 + ^
STACK CFI INIT 4c094 8 .cfa: sp 0 +
STACK CFI INIT 4c0a0 280 .cfa: sp 0 +
STACK CFI 4c0a2 .cfa: sp 20 + .ra: .cfa -4 + ^ r7: .cfa -8 + ^ r6: .cfa -12 + ^ r5: .cfa -16 + ^ r4: .cfa -20 + ^
STACK CFI 4c0a4 .cfa: r7 8 +
STACK CFI 4c0a8 r10: .cfa -24 + ^ r9: .cfa -28 + ^ r8: .cfa -32 + ^
STACK CFI INIT 4c320 8 .cfa: sp 0 +
STACK CFI INIT 4c328 2d0 .cfa: sp 0 +
STACK CFI 4c32a .cfa: sp 20 + .ra: .cfa -4 + ^ r7: .cfa -8 + ^ r6: .cfa -12 + ^ r5: .cfa -16 + ^ r4: .cfa -20 + ^
STACK CFI 4c32c .cfa: r7 8 +
STACK CFI 4c330 r11: .cfa -24 + ^ r10: .cfa -28 + ^ r9: .cfa -32 + ^ r8: .cfa -36 + ^
STACK CFI INIT 4c5f8 e0 .cfa: sp 0 +
STACK CFI 4c5fa .cfa: sp 20 + .ra: .cfa -4 + ^ r7: .cfa -8 + ^ r6: .cfa -12 + ^ r5: .cfa -16 + ^ r4: .cfa -20 + ^
STACK CFI 4c5fc .cfa: r7 8 +
STACK CFI 4c600 r11: .cfa -24 + ^ r9: .cfa -28 + ^ r8: .cfa -32 + ^
STACK CFI INIT 0 d8 .cfa: sp 0 +
STACK CFI 2 .cfa: sp 20 + .ra: .cfa -4 + ^ r7: .cfa -8 + ^ r6: .cfa -12 + ^ r5: .cfa -16 + ^ r4: .cfa -20 + ^
STACK CFI 4 .cfa: r7 8 +
STACK CFI 8 r11: .cfa -24 + ^ r9: .cfa -28 + ^ r8: .cfa -32 + ^
STACK CFI INIT 4c6d8 320 .cfa: sp 0 +
STACK CFI 4c6da .cfa: sp 20 + .ra: .cfa -4 + ^ r7: .cfa -8 + ^ r6: .cfa -12 + ^ r5: .cfa -16 + ^ r4: .cfa -20 + ^
STACK CFI 4c6dc .cfa: r7 8 +
STACK CFI 4c6e0 r11: .cfa -24 + ^ r10: .cfa -28 + ^ r9: .cfa -32 + ^ r8: .cfa -36 + ^
STACK CFI INIT 4c9f8 158 .cfa: sp 0 +
STACK CFI 4c9fa .cfa: sp 20 + .ra: .cfa -4 + ^ r7: .cfa -8 + ^ r6: .cfa -12 + ^ r5: .cfa -16 + ^ r4: .cfa -20 + ^
STACK CFI 4c9fc .cfa: r7 8 +
STACK CFI 4ca00 r11: .cfa -24 + ^
STACK CFI INIT 4cb50 30 .cfa: sp 0 +
STACK CFI 4cb64 .cfa: sp 16 + .ra: .cfa -4 + ^ r7: .cfa -8 + ^ r6: .cfa -12 + ^ r4: .cfa -16 + ^
STACK CFI 4cb66 .cfa: r7 8 +
STACK CFI INIT 4cb80 8 .cfa: sp 0 +
STACK CFI INIT 4cb88 158 .cfa: sp 0 +
STACK CFI 4cb8a .cfa: sp 20 + .ra: .cfa -4 + ^ r7: .cfa -8 + ^ r6: .cfa -12 + ^ r5: .cfa -16 + ^ r4: .cfa -20 + ^
STACK CFI 4cb8c .cfa: r7 8 +
STACK CFI 4cb90 r10: .cfa -24 + ^ r9: .cfa -28 + ^ r8: .cfa -32 + ^
STACK CFI INIT 4cce0 10 .cfa: sp 0 +
STACK CFI 4cce2 .cfa: sp 8 + .ra: .cfa -4 + ^ r7: .cfa -8 + ^
STACK CFI 4cce4 .cfa: r7 8 +
STACK CFI INIT 4ccf0 d8 .cfa: sp 0 +
STACK CFI 4ccf2 .cfa: sp 20 + .ra: .cfa -4 + ^ r7: .cfa -8 + ^ r6: .cfa -12 + ^ r5: .cfa -16 + ^ r4: .cfa -20 + ^
STACK CFI 4ccf4 .cfa: r7 8 +
STACK CFI 4ccf8 r11: .cfa -24 + ^ r9: .cfa -28 + ^ r8: .cfa -32 + ^
STACK CFI INIT 4cdc8 8 .cfa: sp 0 +
STACK CFI INIT 4cdd0 14 .cfa: sp 0 +
STACK CFI 4cdd2 .cfa: sp 8 + .ra: .cfa -4 + ^ r7: .cfa -8 + ^
STACK CFI 4cdd4 .cfa: r7 8 +
STACK CFI INIT 4cde4 10 .cfa: sp 0 +
STACK CFI 4cde6 .cfa: sp 8 + .ra: .cfa -4 + ^ r7: .cfa -8 + ^
STACK CFI 4cde8 .cfa: r7 8 +
STACK CFI INIT 4cdf4 8 .cfa: sp 0 +
STACK CFI INIT 4cdfc 14 .cfa: sp 0 +
STACK CFI 4cdfe .cfa: sp 8 + .ra: .cfa -4 + ^ r7: .cfa -8 + ^
STACK CFI 4ce00 .cfa: r7 8 +
STACK CFI INIT 4ce10 58 .cfa: sp 0 +
STACK CFI 4ce12 .cfa: sp 16 + .ra: .cfa -4 + ^ r7: .cfa -8 + ^ r5: .cfa -12 + ^ r4: .cfa -16 + ^
STACK CFI 4ce14 .cfa: r7 8 +
STACK CFI INIT 4ce68 5c .cfa: sp 0 +
STACK CFI 4ce6a .cfa: sp 16 + .ra: .cfa -4 + ^ r7: .cfa -8 + ^ r5: .cfa -12 + ^ r4: .cfa -16 + ^
STACK CFI 4ce6c .cfa: r7 8 +
STACK CFI INIT 4cec4 5c .cfa: sp 0 +
STACK CFI 4cec6 .cfa: sp 16 + .ra: .cfa -4 + ^ r7: .cfa -8 + ^ r6: .cfa -12 + ^ r4: .cfa -16 + ^
STACK CFI 4cec8 .cfa: r7 8 +
STACK CFI INIT 4cf20 60 .cfa: sp 0 +
STACK CFI 4cf22 .cfa: sp 16 + .ra: .cfa -4 + ^ r7: .cfa -8 + ^ r6: .cfa -12 + ^ r4: .cfa -16 + ^
STACK CFI 4cf24 .cfa: r7 8 +
STACK CFI INIT 4cf80 6c .cfa: sp 0 +
STACK CFI 4cf82 .cfa: sp 16 + .ra: .cfa -4 + ^ r7: .cfa -8 + ^ r5: .cfa -12 + ^ r4: .cfa -16 + ^
STACK CFI 4cf84 .cfa: r7 8 +
STACK CFI INIT 4cfec 70 .cfa: sp 0 +
STACK CFI 4cfee .cfa: sp 16 + .ra: .cfa -4 + ^ r7: .cfa -8 + ^ r5: .cfa -12 + ^ r4: .cfa -16 + ^
STACK CFI 4cff0 .cfa: r7 8 +
STACK CFI INIT 4d05c 6c .cfa: sp 0 +
STACK CFI 4d05e .cfa: sp 16 + .ra: .cfa -4 + ^ r7: .cfa -8 + ^ r5: .cfa -12 + ^ r4: .cfa -16 + ^
STACK CFI 4d060 .cfa: r7 8 +
STACK CFI INIT 4d0c8 70 .cfa: sp 0 +
STACK CFI 4d0ca .cfa: sp 16 + .ra: .cfa -4 + ^ r7: .cfa -8 + ^ r5: .cfa -12 + ^ r4: .cfa -16 + ^
STACK CFI 4d0cc .cfa: r7 8 +
STACK CFI INIT 4d138 10 .cfa: sp 0 +
STACK CFI 4d13a .cfa: sp 8 + .ra: .cfa -4 + ^ r7: .cfa -8 + ^
STACK CFI 4d13c .cfa: r7 8 +
STACK CFI INIT 4d148 3c .cfa: sp 0 +
STACK CFI INIT 4d184 2c .cfa: sp 0 +
STACK CFI 4d186 .cfa: sp 8 + .ra: .cfa -4 + ^ r7: .cfa -8 + ^
STACK CFI 4d188 .cfa: r7 8 +
STACK CFI INIT 4d1b0 8 .cfa: sp 0 +
STACK CFI INIT 4d1b8 14 .cfa: sp 0 +
STACK CFI 4d1ba .cfa: sp 8 + .ra: .cfa -4 + ^ r7: .cfa -8 + ^
STACK CFI 4d1bc .cfa: r7 8 +
STACK CFI INIT 4d1cc 60 .cfa: sp 0 +
STACK CFI 4d1ce .cfa: sp 16 + .ra: .cfa -4 + ^ r7: .cfa -8 + ^ r5: .cfa -12 + ^ r4: .cfa -16 + ^
STACK CFI 4d1d0 .cfa: r7 8 +
STACK CFI INIT 4d22c 64 .cfa: sp 0 +
STACK CFI 4d22e .cfa: sp 16 + .ra: .cfa -4 + ^ r7: .cfa -8 + ^ r5: .cfa -12 + ^ r4: .cfa -16 + ^
STACK CFI 4d230 .cfa: r7 8 +
STACK CFI INIT 4d290 64 .cfa: sp 0 +
STACK CFI 4d292 .cfa: sp 16 + .ra: .cfa -4 + ^ r7: .cfa -8 + ^ r6: .cfa -12 + ^ r4: .cfa -16 + ^
STACK CFI 4d294 .cfa: r7 8 +
STACK CFI INIT 4d2f4 68 .cfa: sp 0 +
STACK CFI 4d2f6 .cfa: sp 16 + .ra: .cfa -4 + ^ r7: .cfa -8 + ^ r6: .cfa -12 + ^ r4: .cfa -16 + ^
STACK CFI 4d2f8 .cfa: r7 8 +
STACK CFI INIT 4d35c 2c .cfa: sp 0 +
STACK CFI 4d35e .cfa: sp 16 + .ra: .cfa -4 + ^ r7: .cfa -8 + ^ r6: .cfa -12 + ^ r4: .cfa -16 + ^
STACK CFI 4d360 .cfa: r7 8 +
STACK CFI INIT 4d388 10 .cfa: sp 0 +
STACK CFI 4d38a .cfa: sp 8 + .ra: .cfa -4 + ^ r7: .cfa -8 + ^
STACK CFI 4d38c .cfa: r7 8 +
STACK CFI INIT 4d398 c .cfa: sp 0 +
STACK CFI INIT 4d3a4 10 .cfa: sp 0 +
STACK CFI 4d3a6 .cfa: sp 8 + .ra: .cfa -4 + ^ r7: .cfa -8 + ^
STACK CFI 4d3a8 .cfa: r7 8 +
STACK CFI INIT 4d3b4 2 .cfa: sp 0 +
STACK CFI INIT 4d3b6 4 .cfa: sp 0 +
STACK CFI INIT 4d3ba 2 .cfa: sp 0 +
STACK CFI INIT 4d3bc 4 .cfa: sp 0 +
STACK CFI INIT 4d3c0 10 .cfa: sp 0 +
STACK CFI 4d3c2 .cfa: sp 8 + .ra: .cfa -4 + ^ r7: .cfa -8 + ^
STACK CFI 4d3c4 .cfa: r7 8 +
STACK CFI INIT 4d3d0 4e .cfa: sp 0 +
STACK CFI 4d3d2 .cfa: sp 20 + .ra: .cfa -4 + ^ r7: .cfa -8 + ^ r6: .cfa -12 + ^ r5: .cfa -16 + ^ r4: .cfa -20 + ^
STACK CFI 4d3d4 .cfa: r7 8 +
STACK CFI 4d3d8 r8: .cfa -24 + ^
STACK CFI INIT 4d41e 3a .cfa: sp 0 +
STACK CFI 4d420 .cfa: sp 20 + .ra: .cfa -4 + ^ r7: .cfa -8 + ^ r6: .cfa -12 + ^ r5: .cfa -16 + ^ r4: .cfa -20 + ^
STACK CFI 4d422 .cfa: r7 8 +
STACK CFI 4d426 r11: .cfa -24 + ^
STACK CFI INIT 4d458 10 .cfa: sp 0 +
STACK CFI 4d45a .cfa: sp 8 + .ra: .cfa -4 + ^ r7: .cfa -8 + ^
STACK CFI 4d45c .cfa: r7 8 +
STACK CFI INIT 4d468 38 .cfa: sp 0 +
STACK CFI 4d46a .cfa: sp 16 + .ra: .cfa -4 + ^ r7: .cfa -8 + ^ r5: .cfa -12 + ^ r4: .cfa -16 + ^
STACK CFI 4d46c .cfa: r7 8 +
STACK CFI INIT 4d4a0 18 .cfa: sp 0 +
STACK CFI 4d4a2 .cfa: sp 8 + .ra: .cfa -4 + ^ r7: .cfa -8 + ^
STACK CFI 4d4a4 .cfa: r7 8 +
STACK CFI INIT 4d4b8 9c .cfa: sp 0 +
STACK CFI 4d4ba .cfa: sp 16 + .ra: .cfa -4 + ^ r7: .cfa -8 + ^ r5: .cfa -12 + ^ r4: .cfa -16 + ^
STACK CFI 4d4bc .cfa: r7 8 +
STACK CFI INIT 4d554 a0 .cfa: sp 0 +
STACK CFI 4d556 .cfa: sp 16 + .ra: .cfa -4 + ^ r7: .cfa -8 + ^ r5: .cfa -12 + ^ r4: .cfa -16 + ^
STACK CFI 4d558 .cfa: r7 8 +
STACK CFI INIT 4d5f4 c8 .cfa: sp 0 +
STACK CFI 4d5f6 .cfa: sp 16 + .ra: .cfa -4 + ^ r7: .cfa -8 + ^ r5: .cfa -12 + ^ r4: .cfa -16 + ^
STACK CFI 4d5f8 .cfa: r7 8 +
STACK CFI INIT 4d6bc e8 .cfa: sp 0 +
STACK CFI 4d6be .cfa: sp 20 + .ra: .cfa -4 + ^ r7: .cfa -8 + ^ r6: .cfa -12 + ^ r5: .cfa -16 + ^ r4: .cfa -20 + ^
STACK CFI 4d6c0 .cfa: r7 8 +
STACK CFI 4d6c4 r11: .cfa -24 + ^
STACK CFI INIT 4d7a4 cc .cfa: sp 0 +
STACK CFI 4d7a6 .cfa: sp 16 + .ra: .cfa -4 + ^ r7: .cfa -8 + ^ r5: .cfa -12 + ^ r4: .cfa -16 + ^
STACK CFI 4d7a8 .cfa: r7 8 +
STACK CFI INIT 4d870 108 .cfa: sp 0 +
STACK CFI 4d872 .cfa: sp 20 + .ra: .cfa -4 + ^ r7: .cfa -8 + ^ r6: .cfa -12 + ^ r5: .cfa -16 + ^ r4: .cfa -20 + ^
STACK CFI 4d874 .cfa: r7 8 +
STACK CFI 4d878 r8: .cfa -24 + ^
STACK CFI INIT 4d978 1bc .cfa: sp 0 +
STACK CFI 4d97a .cfa: sp 16 + .ra: .cfa -4 + ^ r7: .cfa -8 + ^ r6: .cfa -12 + ^ r4: .cfa -16 + ^
STACK CFI 4d97c .cfa: r7 8 +
STACK CFI INIT 4db34 a4 .cfa: sp 0 +
STACK CFI 4db36 .cfa: sp 16 + .ra: .cfa -4 + ^ r7: .cfa -8 + ^ r5: .cfa -12 + ^ r4: .cfa -16 + ^
STACK CFI 4db38 .cfa: r7 8 +
STACK CFI INIT 4dbd8 a8 .cfa: sp 0 +
STACK CFI 4dbda .cfa: sp 16 + .ra: .cfa -4 + ^ r7: .cfa -8 + ^ r5: .cfa -12 + ^ r4: .cfa -16 + ^
STACK CFI 4dbdc .cfa: r7 8 +
STACK CFI INIT 4dc80 8 .cfa: sp 0 +
STACK CFI INIT 4dc88 8 .cfa: sp 0 +
STACK CFI INIT 4dc90 8 .cfa: sp 0 +
STACK CFI INIT 4dc98 8 .cfa: sp 0 +
STACK CFI INIT 4dca0 a0 .cfa: sp 0 +
STACK CFI 4dca2 .cfa: sp 16 + .ra: .cfa -4 + ^ r7: .cfa -8 + ^ r5: .cfa -12 + ^ r4: .cfa -16 + ^
STACK CFI 4dca4 .cfa: r7 8 +
STACK CFI INIT 4dd40 a4 .cfa: sp 0 +
STACK CFI 4dd42 .cfa: sp 16 + .ra: .cfa -4 + ^ r7: .cfa -8 + ^ r5: .cfa -12 + ^ r4: .cfa -16 + ^
STACK CFI 4dd44 .cfa: r7 8 +
STACK CFI INIT 4dde4 a8 .cfa: sp 0 +
STACK CFI 4dde6 .cfa: sp 16 + .ra: .cfa -4 + ^ r7: .cfa -8 + ^ r5: .cfa -12 + ^ r4: .cfa -16 + ^
STACK CFI 4dde8 .cfa: r7 8 +
STACK CFI INIT 4de8c c8 .cfa: sp 0 +
STACK CFI 4de8e .cfa: sp 20 + .ra: .cfa -4 + ^ r7: .cfa -8 + ^ r6: .cfa -12 + ^ r5: .cfa -16 + ^ r4: .cfa -20 + ^
STACK CFI 4de90 .cfa: r7 8 +
STACK CFI 4de94 r11: .cfa -24 + ^ r10: .cfa -28 + ^ r9: .cfa -32 + ^ r8: .cfa -36 + ^
STACK CFI INIT 4df54 30 .cfa: sp 0 +
STACK CFI 4df68 .cfa: sp 16 + .ra: .cfa -4 + ^ r7: .cfa -8 + ^ r6: .cfa -12 + ^ r4: .cfa -16 + ^
STACK CFI 4df6a .cfa: r7 8 +
STACK CFI INIT 4df84 2c .cfa: sp 0 +
STACK CFI 4df86 .cfa: sp 16 + .ra: .cfa -4 + ^ r7: .cfa -8 + ^ r6: .cfa -12 + ^ r4: .cfa -16 + ^
STACK CFI 4df88 .cfa: r7 8 +
STACK CFI INIT 4dfb0 10 .cfa: sp 0 +
STACK CFI 4dfb2 .cfa: sp 8 + .ra: .cfa -4 + ^ r7: .cfa -8 + ^
STACK CFI 4dfb4 .cfa: r7 8 +
STACK CFI INIT 4dfc0 16 .cfa: sp 0 +
STACK CFI INIT 4dfd6 10 .cfa: sp 0 +
STACK CFI 4dfd8 .cfa: sp 8 + .ra: .cfa -4 + ^ r7: .cfa -8 + ^
STACK CFI 4dfda .cfa: r7 8 +
STACK CFI INIT 4dfe6 10 .cfa: sp 0 +
STACK CFI INIT 4dff8 2c .cfa: sp 0 +
STACK CFI 4dffa .cfa: sp 16 + .ra: .cfa -4 + ^ r7: .cfa -8 + ^ r6: .cfa -12 + ^ r4: .cfa -16 + ^
STACK CFI 4dffc .cfa: r7 8 +
STACK CFI INIT 4e024 2c .cfa: sp 0 +
STACK CFI 4e026 .cfa: sp 16 + .ra: .cfa -4 + ^ r7: .cfa -8 + ^ r6: .cfa -12 + ^ r4: .cfa -16 + ^
STACK CFI 4e028 .cfa: r7 8 +
STACK CFI INIT 4e050 3a .cfa: sp 0 +
STACK CFI 4e05c .cfa: sp 16 + .ra: .cfa -4 + ^ r7: .cfa -8 + ^ r5: .cfa -12 + ^ r4: .cfa -16 + ^
STACK CFI 4e05e .cfa: r7 8 +
STACK CFI INIT 4e08c c4 .cfa: sp 0 +
STACK CFI 4e08e .cfa: sp 20 + .ra: .cfa -4 + ^ r7: .cfa -8 + ^ r6: .cfa -12 + ^ r5: .cfa -16 + ^ r4: .cfa -20 + ^
STACK CFI 4e090 .cfa: r7 8 +
STACK CFI 4e094 r10: .cfa -24 + ^ r9: .cfa -28 + ^ r8: .cfa -32 + ^
STACK CFI INIT 48cac 188 .cfa: sp 0 +
STACK CFI 48cae .cfa: sp 20 + .ra: .cfa -4 + ^ r7: .cfa -8 + ^ r6: .cfa -12 + ^ r5: .cfa -16 + ^ r4: .cfa -20 + ^
STACK CFI 48cb0 .cfa: r7 8 +
STACK CFI 48cb4 r10: .cfa -24 + ^ r9: .cfa -28 + ^ r8: .cfa -32 + ^
STACK CFI INIT 4e150 98 .cfa: sp 0 +
STACK CFI 4e152 .cfa: sp 16 + .ra: .cfa -4 + ^ r7: .cfa -8 + ^ r6: .cfa -12 + ^ r4: .cfa -16 + ^
STACK CFI 4e154 .cfa: r7 8 +
STACK CFI INIT 4e354 278 .cfa: sp 0 +
STACK CFI 4e356 .cfa: sp 20 + .ra: .cfa -4 + ^ r7: .cfa -8 + ^ r6: .cfa -12 + ^ r5: .cfa -16 + ^ r4: .cfa -20 + ^
STACK CFI 4e358 .cfa: r7 8 +
STACK CFI 4e35c r11: .cfa -24 + ^ r10: .cfa -28 + ^ r9: .cfa -32 + ^ r8: .cfa -36 + ^
STACK CFI INIT 4e5cc 464 .cfa: sp 0 +
STACK CFI 4e5ce .cfa: sp 20 + .ra: .cfa -4 + ^ r7: .cfa -8 + ^ r6: .cfa -12 + ^ r5: .cfa -16 + ^ r4: .cfa -20 + ^
STACK CFI 4e5d0 .cfa: r7 8 +
STACK CFI 4e5d4 r11: .cfa -24 + ^ r10: .cfa -28 + ^ r9: .cfa -32 + ^ r8: .cfa -36 + ^
STACK CFI INIT 4ea30 44 .cfa: sp 0 +
STACK CFI INIT 4ea74 16 .cfa: sp 0 +
STACK CFI 4ea76 .cfa: sp 16 + .ra: .cfa -4 + ^ r7: .cfa -8 + ^ r6: .cfa -12 + ^ r4: .cfa -16 + ^
STACK CFI 4ea78 .cfa: r7 8 +
STACK CFI INIT 4ea8c e0 .cfa: sp 0 +
STACK CFI 4ea8e .cfa: sp 20 + .ra: .cfa -4 + ^ r7: .cfa -8 + ^ r6: .cfa -12 + ^ r5: .cfa -16 + ^ r4: .cfa -20 + ^
STACK CFI 4ea90 .cfa: r7 8 +
STACK CFI 4ea94 r11: .cfa -24 + ^ r9: .cfa -28 + ^ r8: .cfa -32 + ^
STACK CFI INIT 4eb6c 114 .cfa: sp 0 +
STACK CFI 4eb6e .cfa: sp 20 + .ra: .cfa -4 + ^ r7: .cfa -8 + ^ r6: .cfa -12 + ^ r5: .cfa -16 + ^ r4: .cfa -20 + ^
STACK CFI 4eb70 .cfa: r7 8 +
STACK CFI 4eb74 r8: .cfa -24 + ^
STACK CFI INIT 4ec80 15c .cfa: sp 0 +
STACK CFI 4ec82 .cfa: sp 20 + .ra: .cfa -4 + ^ r7: .cfa -8 + ^ r6: .cfa -12 + ^ r5: .cfa -16 + ^ r4: .cfa -20 + ^
STACK CFI 4ec84 .cfa: r7 8 +
STACK CFI 4ec88 r8: .cfa -24 + ^
STACK CFI INIT 4eddc 34 .cfa: sp 0 +
STACK CFI 4edde .cfa: sp 16 + .ra: .cfa -4 + ^ r7: .cfa -8 + ^ r6: .cfa -12 + ^ r4: .cfa -16 + ^
STACK CFI 4ede0 .cfa: r7 8 +
STACK CFI INIT 4ee10 ec .cfa: sp 0 +
STACK CFI 4ee12 .cfa: sp 20 + .ra: .cfa -4 + ^ r7: .cfa -8 + ^ r6: .cfa -12 + ^ r5: .cfa -16 + ^ r4: .cfa -20 + ^
STACK CFI 4ee14 .cfa: r7 8 +
STACK CFI 4ee18 r8: .cfa -24 + ^
STACK CFI INIT 4eefc 640 .cfa: sp 0 +
STACK CFI 4eefe .cfa: sp 20 + .ra: .cfa -4 + ^ r7: .cfa -8 + ^ r6: .cfa -12 + ^ r5: .cfa -16 + ^ r4: .cfa -20 + ^
STACK CFI 4ef00 .cfa: r7 8 +
STACK CFI 4ef04 r11: .cfa -24 + ^ r10: .cfa -28 + ^ r9: .cfa -32 + ^ r8: .cfa -36 + ^
STACK CFI INIT 4f53c 178 .cfa: sp 0 +
STACK CFI 4f53e .cfa: sp 20 + .ra: .cfa -4 + ^ r7: .cfa -8 + ^ r6: .cfa -12 + ^ r5: .cfa -16 + ^ r4: .cfa -20 + ^
STACK CFI 4f540 .cfa: r7 8 +
STACK CFI 4f544 r11: .cfa -24 + ^ r9: .cfa -28 + ^ r8: .cfa -32 + ^
STACK CFI INIT 4f6b4 3a0 .cfa: sp 0 +
STACK CFI 4f6b6 .cfa: sp 20 + .ra: .cfa -4 + ^ r7: .cfa -8 + ^ r6: .cfa -12 + ^ r5: .cfa -16 + ^ r4: .cfa -20 + ^
STACK CFI 4f6b8 .cfa: r7 8 +
STACK CFI 4f6bc r11: .cfa -24 + ^ r10: .cfa -28 + ^ r9: .cfa -32 + ^ r8: .cfa -36 + ^
STACK CFI INIT 4fa54 520 .cfa: sp 0 +
STACK CFI 4fa56 .cfa: sp 20 + .ra: .cfa -4 + ^ r7: .cfa -8 + ^ r6: .cfa -12 + ^ r5: .cfa -16 + ^ r4: .cfa -20 + ^
STACK CFI 4fa58 .cfa: r7 8 +
STACK CFI 4fa5c r11: .cfa -24 + ^ r10: .cfa -28 + ^ r9: .cfa -32 + ^ r8: .cfa -36 + ^
STACK CFI INIT 4ff74 5c .cfa: sp 0 +
STACK CFI 4ff76 .cfa: sp 16 + .ra: .cfa -4 + ^ r7: .cfa -8 + ^ r6: .cfa -12 + ^ r4: .cfa -16 + ^
STACK CFI 4ff78 .cfa: r7 8 +
STACK CFI INIT 4ffd0 c8 .cfa: sp 0 +
STACK CFI 4ffd2 .cfa: sp 16 + .ra: .cfa -4 + ^ r7: .cfa -8 + ^ r6: .cfa -12 + ^ r4: .cfa -16 + ^
STACK CFI 4ffd4 .cfa: r7 8 +
STACK CFI INIT 50098 2e0 .cfa: sp 0 +
STACK CFI 5009a .cfa: sp 20 + .ra: .cfa -4 + ^ r7: .cfa -8 + ^ r6: .cfa -12 + ^ r5: .cfa -16 + ^ r4: .cfa -20 + ^
STACK CFI 5009c .cfa: r7 8 +
STACK CFI 500a0 r11: .cfa -24 + ^ r10: .cfa -28 + ^ r9: .cfa -32 + ^ r8: .cfa -36 + ^
STACK CFI INIT 50378 60 .cfa: sp 0 +
STACK CFI 5037a .cfa: sp 20 + .ra: .cfa -4 + ^ r7: .cfa -8 + ^ r6: .cfa -12 + ^ r5: .cfa -16 + ^ r4: .cfa -20 + ^
STACK CFI 5037c .cfa: r7 8 +
STACK CFI 50380 r11: .cfa -24 + ^
STACK CFI INIT 503d8 2a4 .cfa: sp 0 +
STACK CFI 503da .cfa: sp 20 + .ra: .cfa -4 + ^ r7: .cfa -8 + ^ r6: .cfa -12 + ^ r5: .cfa -16 + ^ r4: .cfa -20 + ^
STACK CFI 503dc .cfa: r7 8 +
STACK CFI 503e0 r11: .cfa -24 + ^ r10: .cfa -28 + ^ r9: .cfa -32 + ^ r8: .cfa -36 + ^
STACK CFI INIT 5067c 238 .cfa: sp 0 +
STACK CFI 5067e .cfa: sp 20 + .ra: .cfa -4 + ^ r7: .cfa -8 + ^ r6: .cfa -12 + ^ r5: .cfa -16 + ^ r4: .cfa -20 + ^
STACK CFI 50680 .cfa: r7 8 +
STACK CFI 50684 r11: .cfa -24 + ^ r9: .cfa -28 + ^ r8: .cfa -32 + ^
STACK CFI INIT 508b8 cc .cfa: sp 0 +
STACK CFI 508ba .cfa: sp 20 + .ra: .cfa -4 + ^ r7: .cfa -8 + ^ r6: .cfa -12 + ^ r5: .cfa -16 + ^ r4: .cfa -20 + ^
STACK CFI 508bc .cfa: r7 8 +
STACK CFI 508c0 r11: .cfa -24 + ^
STACK CFI INIT 50984 840 .cfa: sp 0 +
STACK CFI 50986 .cfa: sp 20 + .ra: .cfa -4 + ^ r7: .cfa -8 + ^ r6: .cfa -12 + ^ r5: .cfa -16 + ^ r4: .cfa -20 + ^
STACK CFI 50988 .cfa: r7 8 +
STACK CFI 5098c r11: .cfa -24 + ^ r10: .cfa -28 + ^ r9: .cfa -32 + ^ r8: .cfa -36 + ^
STACK CFI INIT 511c4 e8 .cfa: sp 0 +
STACK CFI 511c6 .cfa: sp 16 + .ra: .cfa -4 + ^ r7: .cfa -8 + ^ r6: .cfa -12 + ^ r4: .cfa -16 + ^
STACK CFI 511c8 .cfa: r7 8 +
STACK CFI INIT 512ac 94 .cfa: sp 0 +
STACK CFI 512ae .cfa: sp 16 + .ra: .cfa -4 + ^ r7: .cfa -8 + ^ r6: .cfa -12 + ^ r4: .cfa -16 + ^
STACK CFI 512b0 .cfa: r7 8 +
STACK CFI INIT 51340 bc .cfa: sp 0 +
STACK CFI 51342 .cfa: sp 20 + .ra: .cfa -4 + ^ r7: .cfa -8 + ^ r6: .cfa -12 + ^ r5: .cfa -16 + ^ r4: .cfa -20 + ^
STACK CFI 51344 .cfa: r7 8 +
STACK CFI 51348 r11: .cfa -24 + ^
STACK CFI INIT 51400 7b8 .cfa: sp 0 +
STACK CFI 51402 .cfa: sp 20 + .ra: .cfa -4 + ^ r7: .cfa -8 + ^ r6: .cfa -12 + ^ r5: .cfa -16 + ^ r4: .cfa -20 + ^
STACK CFI 51404 .cfa: r7 8 +
STACK CFI 51408 r11: .cfa -24 + ^ r10: .cfa -28 + ^ r9: .cfa -32 + ^ r8: .cfa -36 + ^
STACK CFI INIT 51bb8 a0 .cfa: sp 0 +
STACK CFI 51bba .cfa: sp 16 + .ra: .cfa -4 + ^ r7: .cfa -8 + ^ r5: .cfa -12 + ^ r4: .cfa -16 + ^
STACK CFI 51bbc .cfa: r7 8 +
STACK CFI INIT 51c58 a4 .cfa: sp 0 +
STACK CFI 51c5a .cfa: sp 16 + .ra: .cfa -4 + ^ r7: .cfa -8 + ^ r5: .cfa -12 + ^ r4: .cfa -16 + ^
STACK CFI 51c5c .cfa: r7 8 +
STACK CFI INIT 51cfc a8 .cfa: sp 0 +
STACK CFI 51cfe .cfa: sp 16 + .ra: .cfa -4 + ^ r7: .cfa -8 + ^ r5: .cfa -12 + ^ r4: .cfa -16 + ^
STACK CFI 51d00 .cfa: r7 8 +
STACK CFI INIT 51da4 1dc .cfa: sp 0 +
STACK CFI 51da6 .cfa: sp 20 + .ra: .cfa -4 + ^ r7: .cfa -8 + ^ r6: .cfa -12 + ^ r5: .cfa -16 + ^ r4: .cfa -20 + ^
STACK CFI 51da8 .cfa: r7 8 +
STACK CFI 51dac r11: .cfa -24 + ^ r10: .cfa -28 + ^ r9: .cfa -32 + ^ r8: .cfa -36 + ^
STACK CFI INIT 51f80 38 .cfa: sp 0 +
STACK CFI 51f82 .cfa: sp 16 + .ra: .cfa -4 + ^ r7: .cfa -8 + ^ r6: .cfa -12 + ^ r4: .cfa -16 + ^
STACK CFI 51f84 .cfa: r7 8 +
STACK CFI INIT 51fb8 4dc .cfa: sp 0 +
STACK CFI 51fba .cfa: sp 20 + .ra: .cfa -4 + ^ r7: .cfa -8 + ^ r6: .cfa -12 + ^ r5: .cfa -16 + ^ r4: .cfa -20 + ^
STACK CFI 51fbc .cfa: r7 8 +
STACK CFI 51fc0 r11: .cfa -24 + ^ r10: .cfa -28 + ^ r9: .cfa -32 + ^ r8: .cfa -36 + ^
STACK CFI INIT 52494 3a .cfa: sp 0 +
STACK CFI 524a0 .cfa: sp 16 + .ra: .cfa -4 + ^ r7: .cfa -8 + ^ r5: .cfa -12 + ^ r4: .cfa -16 + ^
STACK CFI 524a2 .cfa: r7 8 +
STACK CFI INIT 524ce 10 .cfa: sp 0 +
STACK CFI 524d0 .cfa: sp 8 + .ra: .cfa -4 + ^ r7: .cfa -8 + ^
STACK CFI 524d2 .cfa: r7 8 +
STACK CFI INIT 524e0 84 .cfa: sp 0 +
STACK CFI 524e2 .cfa: sp 20 + .ra: .cfa -4 + ^ r7: .cfa -8 + ^ r6: .cfa -12 + ^ r5: .cfa -16 + ^ r4: .cfa -20 + ^
STACK CFI 524e4 .cfa: r7 8 +
STACK CFI 524e8 r11: .cfa -24 + ^
STACK CFI INIT 52564 10 .cfa: sp 0 +
STACK CFI 52566 .cfa: sp 8 + .ra: .cfa -4 + ^ r7: .cfa -8 + ^
STACK CFI 52568 .cfa: r7 8 +
STACK CFI INIT 52574 10 .cfa: sp 0 +
STACK CFI 52576 .cfa: sp 8 + .ra: .cfa -4 + ^ r7: .cfa -8 + ^
STACK CFI 52578 .cfa: r7 8 +
STACK CFI INIT 52584 38 .cfa: sp 0 +
STACK CFI 52586 .cfa: sp 16 + .ra: .cfa -4 + ^ r7: .cfa -8 + ^ r6: .cfa -12 + ^ r4: .cfa -16 + ^
STACK CFI 52588 .cfa: r7 8 +
STACK CFI INIT 525bc 10 .cfa: sp 0 +
STACK CFI 525be .cfa: sp 8 + .ra: .cfa -4 + ^ r7: .cfa -8 + ^
STACK CFI 525c0 .cfa: r7 8 +
STACK CFI INIT 525cc 10 .cfa: sp 0 +
STACK CFI 525ce .cfa: sp 8 + .ra: .cfa -4 + ^ r7: .cfa -8 + ^
STACK CFI 525d0 .cfa: r7 8 +
STACK CFI INIT 525dc 22 .cfa: sp 0 +
STACK CFI 525de .cfa: sp 16 + .ra: .cfa -4 + ^ r7: .cfa -8 + ^ r6: .cfa -12 + ^ r4: .cfa -16 + ^
STACK CFI 525e0 .cfa: r7 8 +
STACK CFI INIT 525fe 10 .cfa: sp 0 +
STACK CFI 52600 .cfa: sp 8 + .ra: .cfa -4 + ^ r7: .cfa -8 + ^
STACK CFI 52602 .cfa: r7 8 +
STACK CFI INIT 5260e c .cfa: sp 0 +
STACK CFI INIT 5261c bc .cfa: sp 0 +
STACK CFI 5261e .cfa: sp 16 + .ra: .cfa -4 + ^ r7: .cfa -8 + ^ r6: .cfa -12 + ^ r4: .cfa -16 + ^
STACK CFI 52620 .cfa: r7 8 +
STACK CFI INIT 526d8 cc .cfa: sp 0 +
STACK CFI 526da .cfa: sp 20 + .ra: .cfa -4 + ^ r7: .cfa -8 + ^ r6: .cfa -12 + ^ r5: .cfa -16 + ^ r4: .cfa -20 + ^
STACK CFI 526dc .cfa: r7 8 +
STACK CFI 526e0 r11: .cfa -24 + ^
STACK CFI INIT 527a4 4 .cfa: sp 0 +
STACK CFI INIT 527a8 18 .cfa: sp 0 +
STACK CFI 527aa .cfa: sp 8 + .ra: .cfa -4 + ^ r7: .cfa -8 + ^
STACK CFI 527ac .cfa: r7 8 +
STACK CFI INIT 527c0 10 .cfa: sp 0 +
STACK CFI INIT 527d0 2 .cfa: sp 0 +
STACK CFI INIT 527d2 4 .cfa: sp 0 +
STACK CFI INIT 527d6 28 .cfa: sp 0 +
STACK CFI INIT 52800 18 .cfa: sp 0 +
STACK CFI INIT 52818 c .cfa: sp 0 +
STACK CFI INIT 52824 4 .cfa: sp 0 +
STACK CFI INIT 52828 18 .cfa: sp 0 +
STACK CFI 5282a .cfa: sp 8 + .ra: .cfa -4 + ^ r7: .cfa -8 + ^
STACK CFI 5282c .cfa: r7 8 +
STACK CFI INIT 52840 10 .cfa: sp 0 +
STACK CFI INIT 52850 2 .cfa: sp 0 +
STACK CFI INIT 52852 4 .cfa: sp 0 +
STACK CFI INIT 52856 16 .cfa: sp 0 +
STACK CFI INIT 5286c 18 .cfa: sp 0 +
STACK CFI INIT 52884 c .cfa: sp 0 +
STACK CFI INIT 52890 4 .cfa: sp 0 +
STACK CFI INIT 52894 18 .cfa: sp 0 +
STACK CFI 52896 .cfa: sp 8 + .ra: .cfa -4 + ^ r7: .cfa -8 + ^
STACK CFI 52898 .cfa: r7 8 +
STACK CFI INIT 528ac 10 .cfa: sp 0 +
STACK CFI INIT 528bc 2 .cfa: sp 0 +
STACK CFI INIT 528be 4 .cfa: sp 0 +
STACK CFI INIT 528c4 18 .cfa: sp 0 +
STACK CFI INIT 528dc 18 .cfa: sp 0 +
STACK CFI INIT 528f4 c .cfa: sp 0 +
STACK CFI INIT 52900 4 .cfa: sp 0 +
STACK CFI INIT 52904 18 .cfa: sp 0 +
STACK CFI 52906 .cfa: sp 8 + .ra: .cfa -4 + ^ r7: .cfa -8 + ^
STACK CFI 52908 .cfa: r7 8 +
STACK CFI INIT 5291c 10 .cfa: sp 0 +
STACK CFI INIT 5292c 2 .cfa: sp 0 +
STACK CFI INIT 5292e 4 .cfa: sp 0 +
STACK CFI INIT 52934 18 .cfa: sp 0 +
STACK CFI INIT 5294c 18 .cfa: sp 0 +
STACK CFI INIT 52964 c .cfa: sp 0 +
STACK CFI INIT 52970 4 .cfa: sp 0 +
STACK CFI INIT 52974 18 .cfa: sp 0 +
STACK CFI 52976 .cfa: sp 8 + .ra: .cfa -4 + ^ r7: .cfa -8 + ^
STACK CFI 52978 .cfa: r7 8 +
STACK CFI INIT 5298c 10 .cfa: sp 0 +
STACK CFI INIT 5299c 2 .cfa: sp 0 +
STACK CFI INIT 5299e 4 .cfa: sp 0 +
STACK CFI INIT 529a4 18 .cfa: sp 0 +
STACK CFI INIT 529bc 18 .cfa: sp 0 +
STACK CFI INIT 529d4 c .cfa: sp 0 +
STACK CFI INIT 529e0 2 .cfa: sp 0 +
STACK CFI INIT 529e2 4 .cfa: sp 0 +
STACK CFI INIT 529e8 18 .cfa: sp 0 +
STACK CFI 529ea .cfa: sp 8 + .ra: .cfa -4 + ^ r7: .cfa -8 + ^
STACK CFI 529ec .cfa: r7 8 +
STACK CFI INIT 52a00 10 .cfa: sp 0 +
STACK CFI INIT 52a10 2 .cfa: sp 0 +
STACK CFI INIT 52a12 4 .cfa: sp 0 +
STACK CFI INIT 52a18 18 .cfa: sp 0 +
STACK CFI INIT 52a30 18 .cfa: sp 0 +
STACK CFI INIT 52a48 c .cfa: sp 0 +
STACK CFI INIT 4e1e8 16c .cfa: sp 0 +
STACK CFI 4e1ea .cfa: sp 20 + .ra: .cfa -4 + ^ r7: .cfa -8 + ^ r6: .cfa -12 + ^ r5: .cfa -16 + ^ r4: .cfa -20 + ^
STACK CFI 4e1ec .cfa: r7 8 +
STACK CFI 4e1f0 r11: .cfa -24 + ^ r10: .cfa -28 + ^ r9: .cfa -32 + ^ r8: .cfa -36 + ^
STACK CFI INIT 52a54 98 .cfa: sp 0 +
STACK CFI 52a56 .cfa: sp 16 + .ra: .cfa -4 + ^ r7: .cfa -8 + ^ r6: .cfa -12 + ^ r4: .cfa -16 + ^
STACK CFI 52a58 .cfa: r7 8 +
STACK CFI INIT 52c9c 10 .cfa: sp 0 +
STACK CFI 52c9e .cfa: sp 16 + .ra: .cfa -4 + ^ r7: .cfa -8 + ^ r6: .cfa -12 + ^ r4: .cfa -16 + ^
STACK CFI 52ca0 .cfa: r7 8 +
STACK CFI INIT 52cac 10 .cfa: sp 0 +
STACK CFI 52cae .cfa: sp 16 + .ra: .cfa -4 + ^ r7: .cfa -8 + ^ r6: .cfa -12 + ^ r4: .cfa -16 + ^
STACK CFI 52cb0 .cfa: r7 8 +
STACK CFI INIT 52cc0 188 .cfa: sp 0 +
STACK CFI 52cc2 .cfa: sp 20 + .ra: .cfa -4 + ^ r7: .cfa -8 + ^ r6: .cfa -12 + ^ r5: .cfa -16 + ^ r4: .cfa -20 + ^
STACK CFI 52cc4 .cfa: r7 8 +
STACK CFI 52cc8 r11: .cfa -24 + ^ r9: .cfa -28 + ^ r8: .cfa -32 + ^
STACK CFI INIT 52e48 188 .cfa: sp 0 +
STACK CFI 52e4a .cfa: sp 20 + .ra: .cfa -4 + ^ r7: .cfa -8 + ^ r6: .cfa -12 + ^ r5: .cfa -16 + ^ r4: .cfa -20 + ^
STACK CFI 52e4c .cfa: r7 8 +
STACK CFI 52e50 r11: .cfa -24 + ^ r9: .cfa -28 + ^ r8: .cfa -32 + ^
STACK CFI INIT 52fd0 47c .cfa: sp 0 +
STACK CFI 52fd2 .cfa: sp 20 + .ra: .cfa -4 + ^ r7: .cfa -8 + ^ r6: .cfa -12 + ^ r5: .cfa -16 + ^ r4: .cfa -20 + ^
STACK CFI 52fd4 .cfa: r7 8 +
STACK CFI 52fd8 r11: .cfa -24 + ^ r10: .cfa -28 + ^ r9: .cfa -32 + ^ r8: .cfa -36 + ^
STACK CFI INIT 5344c c0 .cfa: sp 0 +
STACK CFI 5344e .cfa: sp 20 + .ra: .cfa -4 + ^ r7: .cfa -8 + ^ r6: .cfa -12 + ^ r5: .cfa -16 + ^ r4: .cfa -20 + ^
STACK CFI 53450 .cfa: r7 8 +
STACK CFI 53454 r11: .cfa -24 + ^ r10: .cfa -28 + ^ r9: .cfa -32 + ^ r8: .cfa -36 + ^
STACK CFI INIT 5350c 110 .cfa: sp 0 +
STACK CFI 5350e .cfa: sp 20 + .ra: .cfa -4 + ^ r7: .cfa -8 + ^ r6: .cfa -12 + ^ r5: .cfa -16 + ^ r4: .cfa -20 + ^
STACK CFI 53510 .cfa: r7 8 +
STACK CFI 53514 r11: .cfa -24 + ^ r10: .cfa -28 + ^ r9: .cfa -32 + ^ r8: .cfa -36 + ^
STACK CFI INIT 5361c 194 .cfa: sp 0 +
STACK CFI 5361e .cfa: sp 20 + .ra: .cfa -4 + ^ r7: .cfa -8 + ^ r6: .cfa -12 + ^ r5: .cfa -16 + ^ r4: .cfa -20 + ^
STACK CFI 53620 .cfa: r7 8 +
STACK CFI 53624 r11: .cfa -24 + ^
STACK CFI INIT 537b0 6fc .cfa: sp 0 +
STACK CFI 537b2 .cfa: sp 20 + .ra: .cfa -4 + ^ r7: .cfa -8 + ^ r6: .cfa -12 + ^ r5: .cfa -16 + ^ r4: .cfa -20 + ^
STACK CFI 537b4 .cfa: r7 8 +
STACK CFI 537b8 r11: .cfa -24 + ^ r10: .cfa -28 + ^ r9: .cfa -32 + ^ r8: .cfa -36 + ^
STACK CFI INIT 53eac 10 .cfa: sp 0 +
STACK CFI 53eae .cfa: sp 8 + .ra: .cfa -4 + ^ r7: .cfa -8 + ^
STACK CFI 53eb0 .cfa: r7 8 +
STACK CFI INIT 53ebc 10 .cfa: sp 0 +
STACK CFI INIT 53ecc 10 .cfa: sp 0 +
STACK CFI 53ece .cfa: sp 8 + .ra: .cfa -4 + ^ r7: .cfa -8 + ^
STACK CFI 53ed0 .cfa: r7 8 +
STACK CFI INIT 53edc c .cfa: sp 0 +
STACK CFI INIT 53ee8 10 .cfa: sp 0 +
STACK CFI 53eea .cfa: sp 8 + .ra: .cfa -4 + ^ r7: .cfa -8 + ^
STACK CFI 53eec .cfa: r7 8 +
STACK CFI INIT 53ef8 6 .cfa: sp 0 +
STACK CFI INIT 53efe a .cfa: sp 0 +
STACK CFI INIT 53f08 6 .cfa: sp 0 +
STACK CFI INIT 53f0e 6 .cfa: sp 0 +
STACK CFI INIT 53f14 6 .cfa: sp 0 +
STACK CFI INIT 53f1a a .cfa: sp 0 +
STACK CFI INIT 53f24 32 .cfa: sp 0 +
STACK CFI 53f2c .cfa: sp 16 + .ra: .cfa -4 + ^ r7: .cfa -8 + ^ r5: .cfa -12 + ^ r4: .cfa -16 + ^
STACK CFI 53f2e .cfa: r7 8 +
STACK CFI INIT 53f56 38 .cfa: sp 0 +
STACK CFI 53f5e .cfa: sp 16 + .ra: .cfa -4 + ^ r7: .cfa -8 + ^ r6: .cfa -12 + ^ r4: .cfa -16 + ^
STACK CFI 53f60 .cfa: r7 8 +
STACK CFI INIT 52aec 1b0 .cfa: sp 0 +
STACK CFI 52aee .cfa: sp 20 + .ra: .cfa -4 + ^ r7: .cfa -8 + ^ r6: .cfa -12 + ^ r5: .cfa -16 + ^ r4: .cfa -20 + ^
STACK CFI 52af0 .cfa: r7 8 +
STACK CFI 52af4 r11: .cfa -24 + ^ r10: .cfa -28 + ^ r9: .cfa -32 + ^ r8: .cfa -36 + ^
STACK CFI INIT 53f90 98 .cfa: sp 0 +
STACK CFI 53f92 .cfa: sp 16 + .ra: .cfa -4 + ^ r7: .cfa -8 + ^ r6: .cfa -12 + ^ r4: .cfa -16 + ^
STACK CFI 53f94 .cfa: r7 8 +
STACK CFI INIT 54028 98 .cfa: sp 0 +
STACK CFI 5402a .cfa: sp 16 + .ra: .cfa -4 + ^ r7: .cfa -8 + ^ r6: .cfa -12 + ^ r4: .cfa -16 + ^
STACK CFI 5402c .cfa: r7 8 +
STACK CFI INIT 542e0 128c .cfa: sp 0 +
STACK CFI 542e2 .cfa: sp 20 + .ra: .cfa -4 + ^ r7: .cfa -8 + ^ r6: .cfa -12 + ^ r5: .cfa -16 + ^ r4: .cfa -20 + ^
STACK CFI 542e4 .cfa: r7 8 +
STACK CFI 542e8 r11: .cfa -24 + ^ r10: .cfa -28 + ^ r9: .cfa -32 + ^ r8: .cfa -36 + ^
STACK CFI INIT 5556c 2ec .cfa: sp 0 +
STACK CFI 5556e .cfa: sp 20 + .ra: .cfa -4 + ^ r7: .cfa -8 + ^ r6: .cfa -12 + ^ r5: .cfa -16 + ^ r4: .cfa -20 + ^
STACK CFI 55570 .cfa: r7 8 +
STACK CFI 55574 r11: .cfa -24 + ^ r10: .cfa -28 + ^ r9: .cfa -32 + ^ r8: .cfa -36 + ^
STACK CFI INIT 55858 20 .cfa: sp 0 +
STACK CFI 5585a .cfa: sp 16 + .ra: .cfa -4 + ^ r7: .cfa -8 + ^ r6: .cfa -12 + ^ r4: .cfa -16 + ^
STACK CFI 5585c .cfa: r7 8 +
STACK CFI INIT 55878 2ec .cfa: sp 0 +
STACK CFI 5587a .cfa: sp 20 + .ra: .cfa -4 + ^ r7: .cfa -8 + ^ r6: .cfa -12 + ^ r5: .cfa -16 + ^ r4: .cfa -20 + ^
STACK CFI 5587c .cfa: r7 8 +
STACK CFI 55880 r11: .cfa -24 + ^ r10: .cfa -28 + ^ r9: .cfa -32 + ^ r8: .cfa -36 + ^
STACK CFI INIT 55b64 20 .cfa: sp 0 +
STACK CFI 55b66 .cfa: sp 16 + .ra: .cfa -4 + ^ r7: .cfa -8 + ^ r6: .cfa -12 + ^ r4: .cfa -16 + ^
STACK CFI 55b68 .cfa: r7 8 +
STACK CFI INIT 55b84 2ec .cfa: sp 0 +
STACK CFI 55b86 .cfa: sp 20 + .ra: .cfa -4 + ^ r7: .cfa -8 + ^ r6: .cfa -12 + ^ r5: .cfa -16 + ^ r4: .cfa -20 + ^
STACK CFI 55b88 .cfa: r7 8 +
STACK CFI 55b8c r11: .cfa -24 + ^ r10: .cfa -28 + ^ r9: .cfa -32 + ^ r8: .cfa -36 + ^
STACK CFI INIT 55e70 20 .cfa: sp 0 +
STACK CFI 55e72 .cfa: sp 16 + .ra: .cfa -4 + ^ r7: .cfa -8 + ^ r6: .cfa -12 + ^ r4: .cfa -16 + ^
STACK CFI 55e74 .cfa: r7 8 +
STACK CFI INIT 55e90 2ec .cfa: sp 0 +
STACK CFI 55e92 .cfa: sp 20 + .ra: .cfa -4 + ^ r7: .cfa -8 + ^ r6: .cfa -12 + ^ r5: .cfa -16 + ^ r4: .cfa -20 + ^
STACK CFI 55e94 .cfa: r7 8 +
STACK CFI 55e98 r11: .cfa -24 + ^ r10: .cfa -28 + ^ r9: .cfa -32 + ^ r8: .cfa -36 + ^
STACK CFI INIT 5617c 20 .cfa: sp 0 +
STACK CFI 5617e .cfa: sp 16 + .ra: .cfa -4 + ^ r7: .cfa -8 + ^ r6: .cfa -12 + ^ r4: .cfa -16 + ^
STACK CFI 56180 .cfa: r7 8 +
STACK CFI INIT 5619c 2ec .cfa: sp 0 +
STACK CFI 5619e .cfa: sp 20 + .ra: .cfa -4 + ^ r7: .cfa -8 + ^ r6: .cfa -12 + ^ r5: .cfa -16 + ^ r4: .cfa -20 + ^
STACK CFI 561a0 .cfa: r7 8 +
STACK CFI 561a4 r11: .cfa -24 + ^ r10: .cfa -28 + ^ r9: .cfa -32 + ^ r8: .cfa -36 + ^
STACK CFI INIT 56488 20 .cfa: sp 0 +
STACK CFI 5648a .cfa: sp 16 + .ra: .cfa -4 + ^ r7: .cfa -8 + ^ r6: .cfa -12 + ^ r4: .cfa -16 + ^
STACK CFI 5648c .cfa: r7 8 +
STACK CFI INIT 564a8 2ec .cfa: sp 0 +
STACK CFI 564aa .cfa: sp 20 + .ra: .cfa -4 + ^ r7: .cfa -8 + ^ r6: .cfa -12 + ^ r5: .cfa -16 + ^ r4: .cfa -20 + ^
STACK CFI 564ac .cfa: r7 8 +
STACK CFI 564b0 r11: .cfa -24 + ^ r10: .cfa -28 + ^ r9: .cfa -32 + ^ r8: .cfa -36 + ^
STACK CFI INIT 56794 20 .cfa: sp 0 +
STACK CFI 56796 .cfa: sp 16 + .ra: .cfa -4 + ^ r7: .cfa -8 + ^ r6: .cfa -12 + ^ r4: .cfa -16 + ^
STACK CFI 56798 .cfa: r7 8 +
STACK CFI INIT 567b4 2ec .cfa: sp 0 +
STACK CFI 567b6 .cfa: sp 20 + .ra: .cfa -4 + ^ r7: .cfa -8 + ^ r6: .cfa -12 + ^ r5: .cfa -16 + ^ r4: .cfa -20 + ^
STACK CFI 567b8 .cfa: r7 8 +
STACK CFI 567bc r11: .cfa -24 + ^ r10: .cfa -28 + ^ r9: .cfa -32 + ^ r8: .cfa -36 + ^
STACK CFI INIT 56aa0 20 .cfa: sp 0 +
STACK CFI 56aa2 .cfa: sp 16 + .ra: .cfa -4 + ^ r7: .cfa -8 + ^ r6: .cfa -12 + ^ r4: .cfa -16 + ^
STACK CFI 56aa4 .cfa: r7 8 +
STACK CFI INIT 56ac0 2ec .cfa: sp 0 +
STACK CFI 56ac2 .cfa: sp 20 + .ra: .cfa -4 + ^ r7: .cfa -8 + ^ r6: .cfa -12 + ^ r5: .cfa -16 + ^ r4: .cfa -20 + ^
STACK CFI 56ac4 .cfa: r7 8 +
STACK CFI 56ac8 r11: .cfa -24 + ^ r10: .cfa -28 + ^ r9: .cfa -32 + ^ r8: .cfa -36 + ^
STACK CFI INIT 56dac 20 .cfa: sp 0 +
STACK CFI 56dae .cfa: sp 16 + .ra: .cfa -4 + ^ r7: .cfa -8 + ^ r6: .cfa -12 + ^ r4: .cfa -16 + ^
STACK CFI 56db0 .cfa: r7 8 +
STACK CFI INIT 56dcc 2ec .cfa: sp 0 +
STACK CFI 56dce .cfa: sp 20 + .ra: .cfa -4 + ^ r7: .cfa -8 + ^ r6: .cfa -12 + ^ r5: .cfa -16 + ^ r4: .cfa -20 + ^
STACK CFI 56dd0 .cfa: r7 8 +
STACK CFI 56dd4 r11: .cfa -24 + ^ r10: .cfa -28 + ^ r9: .cfa -32 + ^ r8: .cfa -36 + ^
STACK CFI INIT 570b8 20 .cfa: sp 0 +
STACK CFI 570ba .cfa: sp 16 + .ra: .cfa -4 + ^ r7: .cfa -8 + ^ r6: .cfa -12 + ^ r4: .cfa -16 + ^
STACK CFI 570bc .cfa: r7 8 +
STACK CFI INIT 570d8 2bc .cfa: sp 0 +
STACK CFI 570da .cfa: sp 20 + .ra: .cfa -4 + ^ r7: .cfa -8 + ^ r6: .cfa -12 + ^ r5: .cfa -16 + ^ r4: .cfa -20 + ^
STACK CFI 570dc .cfa: r7 8 +
STACK CFI 570e0 r11: .cfa -24 + ^ r9: .cfa -28 + ^ r8: .cfa -32 + ^
STACK CFI INIT 57394 2 .cfa: sp 0 +
STACK CFI INIT 57398 7c .cfa: sp 0 +
STACK CFI 5739a .cfa: sp 16 + .ra: .cfa -4 + ^ r7: .cfa -8 + ^ r6: .cfa -12 + ^ r4: .cfa -16 + ^
STACK CFI 5739c .cfa: r7 8 +
STACK CFI INIT 57414 18c .cfa: sp 0 +
STACK CFI 57416 .cfa: sp 20 + .ra: .cfa -4 + ^ r7: .cfa -8 + ^ r6: .cfa -12 + ^ r5: .cfa -16 + ^ r4: .cfa -20 + ^
STACK CFI 57418 .cfa: r7 8 +
STACK CFI 5741c r8: .cfa -24 + ^
STACK CFI INIT 575a0 a4 .cfa: sp 0 +
STACK CFI 575a2 .cfa: sp 20 + .ra: .cfa -4 + ^ r7: .cfa -8 + ^ r6: .cfa -12 + ^ r5: .cfa -16 + ^ r4: .cfa -20 + ^
STACK CFI 575a4 .cfa: r7 8 +
STACK CFI 575a8 r11: .cfa -24 + ^
STACK CFI INIT 57644 17c .cfa: sp 0 +
STACK CFI 57646 .cfa: sp 20 + .ra: .cfa -4 + ^ r7: .cfa -8 + ^ r6: .cfa -12 + ^ r5: .cfa -16 + ^ r4: .cfa -20 + ^
STACK CFI 57648 .cfa: r7 8 +
STACK CFI 5764c r11: .cfa -24 + ^
STACK CFI INIT 577c0 10 .cfa: sp 0 +
STACK CFI 577c2 .cfa: sp 8 + .ra: .cfa -4 + ^ r7: .cfa -8 + ^
STACK CFI 577c4 .cfa: r7 8 +
STACK CFI INIT 577d0 14 .cfa: sp 0 +
STACK CFI 577d2 .cfa: sp 8 + .ra: .cfa -4 + ^ r7: .cfa -8 + ^
STACK CFI 577d4 .cfa: r7 8 +
STACK CFI INIT 577f0 644 .cfa: sp 0 +
STACK CFI 577f2 .cfa: sp 20 + .ra: .cfa -4 + ^ r7: .cfa -8 + ^ r6: .cfa -12 + ^ r5: .cfa -16 + ^ r4: .cfa -20 + ^
STACK CFI 577f4 .cfa: r7 8 +
STACK CFI 577f8 r11: .cfa -24 + ^ r10: .cfa -28 + ^ r9: .cfa -32 + ^ r8: .cfa -36 + ^
STACK CFI INIT 57e34 1c .cfa: sp 0 +
STACK CFI 57e36 .cfa: sp 16 + .ra: .cfa -4 + ^ r7: .cfa -8 + ^ r6: .cfa -12 + ^ r4: .cfa -16 + ^
STACK CFI 57e38 .cfa: r7 8 +
STACK CFI INIT 57e50 2 .cfa: sp 0 +
STACK CFI INIT 57e52 4 .cfa: sp 0 +
STACK CFI INIT 57e58 20 .cfa: sp 0 +
STACK CFI 57e5a .cfa: sp 16 + .ra: .cfa -4 + ^ r7: .cfa -8 + ^ r6: .cfa -12 + ^ r4: .cfa -16 + ^
STACK CFI 57e5c .cfa: r7 8 +
STACK CFI INIT 57e78 14 .cfa: sp 0 +
STACK CFI INIT 57e8c 2 .cfa: sp 0 +
STACK CFI INIT 57e8e 4 .cfa: sp 0 +
STACK CFI INIT 57e92 8 .cfa: sp 0 +
STACK CFI INIT 57e9c 18 .cfa: sp 0 +
STACK CFI INIT 57eb4 c .cfa: sp 0 +
STACK CFI INIT 57ec0 2 .cfa: sp 0 +
STACK CFI INIT 57ec2 4 .cfa: sp 0 +
STACK CFI INIT 57ec8 20 .cfa: sp 0 +
STACK CFI 57eca .cfa: sp 16 + .ra: .cfa -4 + ^ r7: .cfa -8 + ^ r6: .cfa -12 + ^ r4: .cfa -16 + ^
STACK CFI 57ecc .cfa: r7 8 +
STACK CFI INIT 57ee8 14 .cfa: sp 0 +
STACK CFI INIT 57efc 2 .cfa: sp 0 +
STACK CFI INIT 57efe 4 .cfa: sp 0 +
STACK CFI INIT 57f02 8 .cfa: sp 0 +
STACK CFI INIT 57f0c 18 .cfa: sp 0 +
STACK CFI INIT 57f24 c .cfa: sp 0 +
STACK CFI INIT 57f30 2 .cfa: sp 0 +
STACK CFI INIT 57f32 4 .cfa: sp 0 +
STACK CFI INIT 57f38 20 .cfa: sp 0 +
STACK CFI 57f3a .cfa: sp 16 + .ra: .cfa -4 + ^ r7: .cfa -8 + ^ r6: .cfa -12 + ^ r4: .cfa -16 + ^
STACK CFI 57f3c .cfa: r7 8 +
STACK CFI INIT 57f58 14 .cfa: sp 0 +
STACK CFI INIT 57f6c 2 .cfa: sp 0 +
STACK CFI INIT 57f6e 4 .cfa: sp 0 +
STACK CFI INIT 57f72 8 .cfa: sp 0 +
STACK CFI INIT 57f7c 18 .cfa: sp 0 +
STACK CFI INIT 57f94 c .cfa: sp 0 +
STACK CFI INIT 57fa0 2 .cfa: sp 0 +
STACK CFI INIT 57fa2 4 .cfa: sp 0 +
STACK CFI INIT 57fa8 20 .cfa: sp 0 +
STACK CFI 57faa .cfa: sp 16 + .ra: .cfa -4 + ^ r7: .cfa -8 + ^ r6: .cfa -12 + ^ r4: .cfa -16 + ^
STACK CFI 57fac .cfa: r7 8 +
STACK CFI INIT 57fc8 14 .cfa: sp 0 +
STACK CFI INIT 57fdc 2 .cfa: sp 0 +
STACK CFI INIT 57fde 4 .cfa: sp 0 +
STACK CFI INIT 57fe2 8 .cfa: sp 0 +
STACK CFI INIT 57fec 18 .cfa: sp 0 +
STACK CFI INIT 58004 c .cfa: sp 0 +
STACK CFI INIT 58010 2bc .cfa: sp 0 +
STACK CFI 58012 .cfa: sp 20 + .ra: .cfa -4 + ^ r7: .cfa -8 + ^ r6: .cfa -12 + ^ r5: .cfa -16 + ^ r4: .cfa -20 + ^
STACK CFI 58014 .cfa: r7 8 +
STACK CFI 58018 r11: .cfa -24 + ^ r9: .cfa -28 + ^ r8: .cfa -32 + ^
STACK CFI INIT 582cc 2 .cfa: sp 0 +
STACK CFI INIT 582d0 7c .cfa: sp 0 +
STACK CFI 582d2 .cfa: sp 16 + .ra: .cfa -4 + ^ r7: .cfa -8 + ^ r6: .cfa -12 + ^ r4: .cfa -16 + ^
STACK CFI 582d4 .cfa: r7 8 +
STACK CFI INIT 5834c 104 .cfa: sp 0 +
STACK CFI 5834e .cfa: sp 20 + .ra: .cfa -4 + ^ r7: .cfa -8 + ^ r6: .cfa -12 + ^ r5: .cfa -16 + ^ r4: .cfa -20 + ^
STACK CFI 58350 .cfa: r7 8 +
STACK CFI 58354 r11: .cfa -24 + ^
STACK CFI INIT 58450 78 .cfa: sp 0 +
STACK CFI 58452 .cfa: sp 16 + .ra: .cfa -4 + ^ r7: .cfa -8 + ^ r6: .cfa -12 + ^ r4: .cfa -16 + ^
STACK CFI 58454 .cfa: r7 8 +
STACK CFI INIT 584c8 14 .cfa: sp 0 +
STACK CFI 584ca .cfa: sp 8 + .ra: .cfa -4 + ^ r7: .cfa -8 + ^
STACK CFI 584cc .cfa: r7 8 +
STACK CFI INIT 584e0 570 .cfa: sp 0 +
STACK CFI 584e2 .cfa: sp 20 + .ra: .cfa -4 + ^ r7: .cfa -8 + ^ r6: .cfa -12 + ^ r5: .cfa -16 + ^ r4: .cfa -20 + ^
STACK CFI 584e4 .cfa: r7 8 +
STACK CFI 584e8 r11: .cfa -24 + ^ r9: .cfa -28 + ^ r8: .cfa -32 + ^
STACK CFI INIT 58a50 2 .cfa: sp 0 +
STACK CFI INIT 58a54 1e0 .cfa: sp 0 +
STACK CFI 58a56 .cfa: sp 20 + .ra: .cfa -4 + ^ r7: .cfa -8 + ^ r6: .cfa -12 + ^ r5: .cfa -16 + ^ r4: .cfa -20 + ^
STACK CFI 58a58 .cfa: r7 8 +
STACK CFI 58a5c r10: .cfa -24 + ^ r9: .cfa -28 + ^ r8: .cfa -32 + ^
STACK CFI INIT 58c34 32 .cfa: sp 0 +
STACK CFI 58c36 .cfa: sp 16 + .ra: .cfa -4 + ^ r7: .cfa -8 + ^ r5: .cfa -12 + ^ r4: .cfa -16 + ^
STACK CFI 58c38 .cfa: r7 8 +
STACK CFI INIT 58c66 14 .cfa: sp 0 +
STACK CFI 58c68 .cfa: sp 8 + .ra: .cfa -4 + ^ r7: .cfa -8 + ^
STACK CFI 58c6a .cfa: r7 8 +
STACK CFI INIT 58c7c 114 .cfa: sp 0 +
STACK CFI 58c7e .cfa: sp 20 + .ra: .cfa -4 + ^ r7: .cfa -8 + ^ r6: .cfa -12 + ^ r5: .cfa -16 + ^ r4: .cfa -20 + ^
STACK CFI 58c80 .cfa: r7 8 +
STACK CFI 58c84 r11: .cfa -24 + ^
STACK CFI INIT 58d90 288 .cfa: sp 0 +
STACK CFI 58d92 .cfa: sp 20 + .ra: .cfa -4 + ^ r7: .cfa -8 + ^ r6: .cfa -12 + ^ r5: .cfa -16 + ^ r4: .cfa -20 + ^
STACK CFI 58d94 .cfa: r7 8 +
STACK CFI 58d98 r11: .cfa -24 + ^ r10: .cfa -28 + ^ r9: .cfa -32 + ^ r8: .cfa -36 + ^
STACK CFI INIT 59018 a6 .cfa: sp 0 +
STACK CFI 5901a .cfa: sp 20 + .ra: .cfa -4 + ^ r7: .cfa -8 + ^ r6: .cfa -12 + ^ r5: .cfa -16 + ^ r4: .cfa -20 + ^
STACK CFI 5901c .cfa: r7 8 +
STACK CFI 59020 r11: .cfa -24 + ^ r9: .cfa -28 + ^ r8: .cfa -32 + ^
STACK CFI INIT 590be 2 .cfa: sp 0 +
STACK CFI INIT 590c0 10 .cfa: sp 0 +
STACK CFI 590c2 .cfa: sp 8 + .ra: .cfa -4 + ^ r7: .cfa -8 + ^
STACK CFI 590c4 .cfa: r7 8 +
STACK CFI INIT 590d0 10 .cfa: sp 0 +
STACK CFI 590d2 .cfa: sp 8 + .ra: .cfa -4 + ^ r7: .cfa -8 + ^
STACK CFI 590d4 .cfa: r7 8 +
STACK CFI INIT 590e0 10 .cfa: sp 0 +
STACK CFI 590e2 .cfa: sp 8 + .ra: .cfa -4 + ^ r7: .cfa -8 + ^
STACK CFI 590e4 .cfa: r7 8 +
STACK CFI INIT 590f0 10 .cfa: sp 0 +
STACK CFI 590f2 .cfa: sp 8 + .ra: .cfa -4 + ^ r7: .cfa -8 + ^
STACK CFI 590f4 .cfa: r7 8 +
STACK CFI INIT 59100 2 .cfa: sp 0 +
STACK CFI INIT 59102 4 .cfa: sp 0 +
STACK CFI INIT 59108 20 .cfa: sp 0 +
STACK CFI 5910a .cfa: sp 16 + .ra: .cfa -4 + ^ r7: .cfa -8 + ^ r6: .cfa -12 + ^ r4: .cfa -16 + ^
STACK CFI 5910c .cfa: r7 8 +
STACK CFI INIT 59128 14 .cfa: sp 0 +
STACK CFI INIT 5913c 2 .cfa: sp 0 +
STACK CFI INIT 5913e 4 .cfa: sp 0 +
STACK CFI INIT 59142 8 .cfa: sp 0 +
STACK CFI INIT 5914c 18 .cfa: sp 0 +
STACK CFI INIT 59164 c .cfa: sp 0 +
STACK CFI INIT 59170 58c .cfa: sp 0 +
STACK CFI 59172 .cfa: sp 20 + .ra: .cfa -4 + ^ r7: .cfa -8 + ^ r6: .cfa -12 + ^ r5: .cfa -16 + ^ r4: .cfa -20 + ^
STACK CFI 59174 .cfa: r7 8 +
STACK CFI 59178 r10: .cfa -24 + ^ r9: .cfa -28 + ^ r8: .cfa -32 + ^
STACK CFI INIT 596fc 2 .cfa: sp 0 +
STACK CFI INIT 59700 84 .cfa: sp 0 +
STACK CFI 59702 .cfa: sp 16 + .ra: .cfa -4 + ^ r7: .cfa -8 + ^ r5: .cfa -12 + ^ r4: .cfa -16 + ^
STACK CFI 59704 .cfa: r7 8 +
STACK CFI INIT 59784 18 .cfa: sp 0 +
STACK CFI 59786 .cfa: sp 16 + .ra: .cfa -4 + ^ r7: .cfa -8 + ^ r6: .cfa -12 + ^ r4: .cfa -16 + ^
STACK CFI 59788 .cfa: r7 8 +
STACK CFI INIT 5979c 18 .cfa: sp 0 +
STACK CFI 5979e .cfa: sp 8 + .ra: .cfa -4 + ^ r7: .cfa -8 + ^
STACK CFI 597a0 .cfa: r7 8 +
STACK CFI INIT 597b4 556 .cfa: sp 0 +
STACK CFI 597b6 .cfa: sp 20 + .ra: .cfa -4 + ^ r7: .cfa -8 + ^ r6: .cfa -12 + ^ r5: .cfa -16 + ^ r4: .cfa -20 + ^
STACK CFI 597b8 .cfa: r7 8 +
STACK CFI 597bc r11: .cfa -24 + ^ r10: .cfa -28 + ^ r9: .cfa -32 + ^ r8: .cfa -36 + ^
STACK CFI INIT 59d0c 3d8 .cfa: sp 0 +
STACK CFI 59d0e .cfa: sp 20 + .ra: .cfa -4 + ^ r7: .cfa -8 + ^ r6: .cfa -12 + ^ r5: .cfa -16 + ^ r4: .cfa -20 + ^
STACK CFI 59d10 .cfa: r7 8 +
STACK CFI 59d14 r11: .cfa -24 + ^ r10: .cfa -28 + ^ r9: .cfa -32 + ^ r8: .cfa -36 + ^
STACK CFI INIT 5a0e4 3a .cfa: sp 0 +
STACK CFI 5a0e6 .cfa: sp 16 + .ra: .cfa -4 + ^ r7: .cfa -8 + ^ r5: .cfa -12 + ^ r4: .cfa -16 + ^
STACK CFI 5a0e8 .cfa: r7 8 +
STACK CFI INIT 5a11e 3a .cfa: sp 0 +
STACK CFI 5a120 .cfa: sp 16 + .ra: .cfa -4 + ^ r7: .cfa -8 + ^ r5: .cfa -12 + ^ r4: .cfa -16 + ^
STACK CFI 5a122 .cfa: r7 8 +
STACK CFI INIT 5a158 4c .cfa: sp 0 +
STACK CFI 5a15a .cfa: sp 20 + .ra: .cfa -4 + ^ r7: .cfa -8 + ^ r6: .cfa -12 + ^ r5: .cfa -16 + ^ r4: .cfa -20 + ^
STACK CFI 5a15c .cfa: r7 8 +
STACK CFI 5a160 r11: .cfa -24 + ^
STACK CFI INIT 5a1a4 14 .cfa: sp 0 +
STACK CFI 5a1a6 .cfa: sp 16 + .ra: .cfa -4 + ^ r7: .cfa -8 + ^ r6: .cfa -12 + ^ r4: .cfa -16 + ^
STACK CFI 5a1a8 .cfa: r7 8 +
STACK CFI INIT 5a1b8 4e .cfa: sp 0 +
STACK CFI 5a1ba .cfa: sp 20 + .ra: .cfa -4 + ^ r7: .cfa -8 + ^ r6: .cfa -12 + ^ r5: .cfa -16 + ^ r4: .cfa -20 + ^
STACK CFI 5a1bc .cfa: r7 8 +
STACK CFI 5a1c0 r11: .cfa -24 + ^
STACK CFI INIT 5a206 3a .cfa: sp 0 +
STACK CFI 5a208 .cfa: sp 16 + .ra: .cfa -4 + ^ r7: .cfa -8 + ^ r5: .cfa -12 + ^ r4: .cfa -16 + ^
STACK CFI 5a20a .cfa: r7 8 +
STACK CFI INIT 5a240 4e .cfa: sp 0 +
STACK CFI 5a242 .cfa: sp 20 + .ra: .cfa -4 + ^ r7: .cfa -8 + ^ r6: .cfa -12 + ^ r5: .cfa -16 + ^ r4: .cfa -20 + ^
STACK CFI 5a244 .cfa: r7 8 +
STACK CFI 5a248 r11: .cfa -24 + ^
STACK CFI INIT 5a28e 3a .cfa: sp 0 +
STACK CFI 5a290 .cfa: sp 16 + .ra: .cfa -4 + ^ r7: .cfa -8 + ^ r5: .cfa -12 + ^ r4: .cfa -16 + ^
STACK CFI 5a292 .cfa: r7 8 +
STACK CFI INIT 5a2c8 9a .cfa: sp 0 +
STACK CFI 5a2ca .cfa: sp 20 + .ra: .cfa -4 + ^ r7: .cfa -8 + ^ r6: .cfa -12 + ^ r5: .cfa -16 + ^ r4: .cfa -20 + ^
STACK CFI 5a2cc .cfa: r7 8 +
STACK CFI 5a2d0 r11: .cfa -24 + ^ r9: .cfa -28 + ^ r8: .cfa -32 + ^
STACK CFI INIT 5a362 33a .cfa: sp 0 +
STACK CFI 5a364 .cfa: sp 20 + .ra: .cfa -4 + ^ r7: .cfa -8 + ^ r6: .cfa -12 + ^ r5: .cfa -16 + ^ r4: .cfa -20 + ^
STACK CFI 5a366 .cfa: r7 8 +
STACK CFI 5a36a r11: .cfa -24 + ^
STACK CFI INIT 5a69c 3a .cfa: sp 0 +
STACK CFI 5a69e .cfa: sp 16 + .ra: .cfa -4 + ^ r7: .cfa -8 + ^ r5: .cfa -12 + ^ r4: .cfa -16 + ^
STACK CFI 5a6a0 .cfa: r7 8 +
STACK CFI INIT 5a6d6 14 .cfa: sp 0 +
STACK CFI 5a6d8 .cfa: sp 16 + .ra: .cfa -4 + ^ r7: .cfa -8 + ^ r6: .cfa -12 + ^ r4: .cfa -16 + ^
STACK CFI 5a6da .cfa: r7 8 +
STACK CFI INIT 5a6ea 50 .cfa: sp 0 +
STACK CFI 5a6ec .cfa: sp 20 + .ra: .cfa -4 + ^ r7: .cfa -8 + ^ r6: .cfa -12 + ^ r5: .cfa -16 + ^ r4: .cfa -20 + ^
STACK CFI 5a6ee .cfa: r7 8 +
STACK CFI 5a6f2 r11: .cfa -24 + ^
STACK CFI INIT 5a73a 5c .cfa: sp 0 +
STACK CFI 5a73c .cfa: sp 20 + .ra: .cfa -4 + ^ r7: .cfa -8 + ^ r6: .cfa -12 + ^ r5: .cfa -16 + ^ r4: .cfa -20 + ^
STACK CFI 5a73e .cfa: r7 8 +
STACK CFI 5a742 r11: .cfa -24 + ^
STACK CFI INIT 5a796 34 .cfa: sp 0 +
STACK CFI 5a798 .cfa: sp 16 + .ra: .cfa -4 + ^ r7: .cfa -8 + ^ r6: .cfa -12 + ^ r4: .cfa -16 + ^
STACK CFI 5a79a .cfa: r7 8 +
STACK CFI INIT 5a7ca 14 .cfa: sp 0 +
STACK CFI 5a7cc .cfa: sp 16 + .ra: .cfa -4 + ^ r7: .cfa -8 + ^ r6: .cfa -12 + ^ r4: .cfa -16 + ^
STACK CFI 5a7ce .cfa: r7 8 +
STACK CFI INIT 5a7de 14 .cfa: sp 0 +
STACK CFI 5a7e0 .cfa: sp 16 + .ra: .cfa -4 + ^ r7: .cfa -8 + ^ r6: .cfa -12 + ^ r4: .cfa -16 + ^
STACK CFI 5a7e2 .cfa: r7 8 +
STACK CFI INIT 5a7f2 3a .cfa: sp 0 +
STACK CFI 5a7f4 .cfa: sp 16 + .ra: .cfa -4 + ^ r7: .cfa -8 + ^ r5: .cfa -12 + ^ r4: .cfa -16 + ^
STACK CFI 5a7f6 .cfa: r7 8 +
STACK CFI INIT 5a82c 3a .cfa: sp 0 +
STACK CFI 5a82e .cfa: sp 16 + .ra: .cfa -4 + ^ r7: .cfa -8 + ^ r5: .cfa -12 + ^ r4: .cfa -16 + ^
STACK CFI 5a830 .cfa: r7 8 +
STACK CFI INIT 5a866 3a .cfa: sp 0 +
STACK CFI 5a868 .cfa: sp 16 + .ra: .cfa -4 + ^ r7: .cfa -8 + ^ r5: .cfa -12 + ^ r4: .cfa -16 + ^
STACK CFI 5a86a .cfa: r7 8 +
STACK CFI INIT 5a8a0 3a .cfa: sp 0 +
STACK CFI 5a8a2 .cfa: sp 16 + .ra: .cfa -4 + ^ r7: .cfa -8 + ^ r5: .cfa -12 + ^ r4: .cfa -16 + ^
STACK CFI 5a8a4 .cfa: r7 8 +
STACK CFI INIT 5a8dc 11c .cfa: sp 0 +
STACK CFI 5a8de .cfa: sp 20 + .ra: .cfa -4 + ^ r7: .cfa -8 + ^ r6: .cfa -12 + ^ r5: .cfa -16 + ^ r4: .cfa -20 + ^
STACK CFI 5a8e0 .cfa: r7 8 +
STACK CFI 5a8e4 r11: .cfa -24 + ^ r10: .cfa -28 + ^ r9: .cfa -32 + ^ r8: .cfa -36 + ^
STACK CFI INIT 5a9f8 19e .cfa: sp 0 +
STACK CFI 5a9fa .cfa: sp 20 + .ra: .cfa -4 + ^ r7: .cfa -8 + ^ r6: .cfa -12 + ^ r5: .cfa -16 + ^ r4: .cfa -20 + ^
STACK CFI 5a9fc .cfa: r7 8 +
STACK CFI 5aa00 r11: .cfa -24 + ^ r10: .cfa -28 + ^ r9: .cfa -32 + ^ r8: .cfa -36 + ^
STACK CFI INIT 5ab96 40 .cfa: sp 0 +
STACK CFI 5ab98 .cfa: sp 20 + .ra: .cfa -4 + ^ r7: .cfa -8 + ^ r6: .cfa -12 + ^ r5: .cfa -16 + ^ r4: .cfa -20 + ^
STACK CFI 5ab9a .cfa: r7 8 +
STACK CFI 5ab9e r11: .cfa -24 + ^
STACK CFI INIT 5abd6 40 .cfa: sp 0 +
STACK CFI 5abd8 .cfa: sp 20 + .ra: .cfa -4 + ^ r7: .cfa -8 + ^ r6: .cfa -12 + ^ r5: .cfa -16 + ^ r4: .cfa -20 + ^
STACK CFI 5abda .cfa: r7 8 +
STACK CFI 5abde r11: .cfa -24 + ^
STACK CFI INIT 5ac16 110 .cfa: sp 0 +
STACK CFI 5ac18 .cfa: sp 20 + .ra: .cfa -4 + ^ r7: .cfa -8 + ^ r6: .cfa -12 + ^ r5: .cfa -16 + ^ r4: .cfa -20 + ^
STACK CFI 5ac1a .cfa: r7 8 +
STACK CFI 5ac1e r10: .cfa -24 + ^ r9: .cfa -28 + ^ r8: .cfa -32 + ^
STACK CFI INIT 5ad26 134 .cfa: sp 0 +
STACK CFI 5ad28 .cfa: sp 20 + .ra: .cfa -4 + ^ r7: .cfa -8 + ^ r6: .cfa -12 + ^ r5: .cfa -16 + ^ r4: .cfa -20 + ^
STACK CFI 5ad2a .cfa: r7 8 +
STACK CFI 5ad2e r10: .cfa -24 + ^ r9: .cfa -28 + ^ r8: .cfa -32 + ^
STACK CFI INIT 5ae5a 40 .cfa: sp 0 +
STACK CFI 5ae5c .cfa: sp 20 + .ra: .cfa -4 + ^ r7: .cfa -8 + ^ r6: .cfa -12 + ^ r5: .cfa -16 + ^ r4: .cfa -20 + ^
STACK CFI 5ae5e .cfa: r7 8 +
STACK CFI 5ae62 r11: .cfa -24 + ^
STACK CFI INIT 5ae9a 5c .cfa: sp 0 +
STACK CFI 5aea2 .cfa: sp 20 + .ra: .cfa -4 + ^ r7: .cfa -8 + ^ r6: .cfa -12 + ^ r5: .cfa -16 + ^ r4: .cfa -20 + ^
STACK CFI 5aea4 .cfa: r7 8 +
STACK CFI 5aea8 r11: .cfa -24 + ^
STACK CFI INIT 5aef6 2c .cfa: sp 0 +
STACK CFI 5aefe .cfa: sp 16 + .ra: .cfa -4 + ^ r7: .cfa -8 + ^ r5: .cfa -12 + ^ r4: .cfa -16 + ^
STACK CFI 5af00 .cfa: r7 8 +
STACK CFI INIT 5af22 2c .cfa: sp 0 +
STACK CFI 5af2a .cfa: sp 16 + .ra: .cfa -4 + ^ r7: .cfa -8 + ^ r5: .cfa -12 + ^ r4: .cfa -16 + ^
STACK CFI 5af2c .cfa: r7 8 +
STACK CFI INIT 5af4e 64 .cfa: sp 0 +
STACK CFI 5af50 .cfa: sp 20 + .ra: .cfa -4 + ^ r7: .cfa -8 + ^ r6: .cfa -12 + ^ r5: .cfa -16 + ^ r4: .cfa -20 + ^
STACK CFI 5af52 .cfa: r7 8 +
STACK CFI 5af56 r11: .cfa -24 + ^ r9: .cfa -28 + ^ r8: .cfa -32 + ^
STACK CFI INIT 5afb2 2c .cfa: sp 0 +
STACK CFI 5afba .cfa: sp 16 + .ra: .cfa -4 + ^ r7: .cfa -8 + ^ r5: .cfa -12 + ^ r4: .cfa -16 + ^
STACK CFI 5afbc .cfa: r7 8 +
STACK CFI INIT 5afde 6e .cfa: sp 0 +
STACK CFI 5afe6 .cfa: sp 20 + .ra: .cfa -4 + ^ r7: .cfa -8 + ^ r6: .cfa -12 + ^ r5: .cfa -16 + ^ r4: .cfa -20 + ^
STACK CFI 5afe8 .cfa: r7 8 +
STACK CFI 5afec r8: .cfa -24 + ^
STACK CFI INIT 5b04c 2c .cfa: sp 0 +
STACK CFI 5b054 .cfa: sp 16 + .ra: .cfa -4 + ^ r7: .cfa -8 + ^ r5: .cfa -12 + ^ r4: .cfa -16 + ^
STACK CFI 5b056 .cfa: r7 8 +
STACK CFI INIT 5b080 5cc .cfa: sp 0 +
STACK CFI 5b082 .cfa: sp 20 + .ra: .cfa -4 + ^ r7: .cfa -8 + ^ r6: .cfa -12 + ^ r5: .cfa -16 + ^ r4: .cfa -20 + ^
STACK CFI 5b084 .cfa: r7 8 +
STACK CFI 5b088 r11: .cfa -24 + ^ r10: .cfa -28 + ^ r9: .cfa -32 + ^ r8: .cfa -36 + ^
STACK CFI INIT 5b64c 2 .cfa: sp 0 +
STACK CFI INIT 5b650 84 .cfa: sp 0 +
STACK CFI 5b652 .cfa: sp 16 + .ra: .cfa -4 + ^ r7: .cfa -8 + ^ r5: .cfa -12 + ^ r4: .cfa -16 + ^
STACK CFI 5b654 .cfa: r7 8 +
STACK CFI INIT 5b6d4 474 .cfa: sp 0 +
STACK CFI 5b6d6 .cfa: sp 20 + .ra: .cfa -4 + ^ r7: .cfa -8 + ^ r6: .cfa -12 + ^ r5: .cfa -16 + ^ r4: .cfa -20 + ^
STACK CFI 5b6d8 .cfa: r7 8 +
STACK CFI 5b6dc r10: .cfa -24 + ^ r9: .cfa -28 + ^ r8: .cfa -32 + ^
STACK CFI INIT 5bb48 138 .cfa: sp 0 +
STACK CFI 5bb4a .cfa: sp 20 + .ra: .cfa -4 + ^ r7: .cfa -8 + ^ r6: .cfa -12 + ^ r5: .cfa -16 + ^ r4: .cfa -20 + ^
STACK CFI 5bb4c .cfa: r7 8 +
STACK CFI 5bb50 r11: .cfa -24 + ^ r10: .cfa -28 + ^ r9: .cfa -32 + ^ r8: .cfa -36 + ^
STACK CFI INIT 5bc80 88 .cfa: sp 0 +
STACK CFI 5bc82 .cfa: sp 16 + .ra: .cfa -4 + ^ r7: .cfa -8 + ^ r5: .cfa -12 + ^ r4: .cfa -16 + ^
STACK CFI 5bc84 .cfa: r7 8 +
STACK CFI INIT 5bd08 552 .cfa: sp 0 +
STACK CFI 5bd0a .cfa: sp 20 + .ra: .cfa -4 + ^ r7: .cfa -8 + ^ r6: .cfa -12 + ^ r5: .cfa -16 + ^ r4: .cfa -20 + ^
STACK CFI 5bd0c .cfa: r7 8 +
STACK CFI 5bd10 r11: .cfa -24 + ^ r10: .cfa -28 + ^ r9: .cfa -32 + ^ r8: .cfa -36 + ^
STACK CFI INIT 5c25c 118 .cfa: sp 0 +
STACK CFI 5c25e .cfa: sp 20 + .ra: .cfa -4 + ^ r7: .cfa -8 + ^ r6: .cfa -12 + ^ r5: .cfa -16 + ^ r4: .cfa -20 + ^
STACK CFI 5c260 .cfa: r7 8 +
STACK CFI 5c264 r11: .cfa -24 + ^
STACK CFI INIT 5c374 2 .cfa: sp 0 +
STACK CFI INIT 5c380 5bc .cfa: sp 0 +
STACK CFI 5c382 .cfa: sp 20 + .ra: .cfa -4 + ^ r7: .cfa -8 + ^ r6: .cfa -12 + ^ r5: .cfa -16 + ^ r4: .cfa -20 + ^
STACK CFI 5c384 .cfa: r7 8 +
STACK CFI 5c388 r10: .cfa -24 + ^ r9: .cfa -28 + ^ r8: .cfa -32 + ^
STACK CFI INIT 5c93c 2 .cfa: sp 0 +
STACK CFI INIT 5c940 84 .cfa: sp 0 +
STACK CFI 5c942 .cfa: sp 16 + .ra: .cfa -4 + ^ r7: .cfa -8 + ^ r5: .cfa -12 + ^ r4: .cfa -16 + ^
STACK CFI 5c944 .cfa: r7 8 +
STACK CFI INIT 5c9c4 1c8 .cfa: sp 0 +
STACK CFI 5c9c6 .cfa: sp 20 + .ra: .cfa -4 + ^ r7: .cfa -8 + ^ r6: .cfa -12 + ^ r5: .cfa -16 + ^ r4: .cfa -20 + ^
STACK CFI 5c9c8 .cfa: r7 8 +
STACK CFI 5c9cc r10: .cfa -24 + ^ r9: .cfa -28 + ^ r8: .cfa -32 + ^
STACK CFI INIT 5cb8c 90 .cfa: sp 0 +
STACK CFI 5cb8e .cfa: sp 20 + .ra: .cfa -4 + ^ r7: .cfa -8 + ^ r6: .cfa -12 + ^ r5: .cfa -16 + ^ r4: .cfa -20 + ^
STACK CFI 5cb90 .cfa: r7 8 +
STACK CFI 5cb94 r10: .cfa -24 + ^ r9: .cfa -28 + ^ r8: .cfa -32 + ^
STACK CFI INIT 5cc1c 60 .cfa: sp 0 +
STACK CFI 5cc1e .cfa: sp 16 + .ra: .cfa -4 + ^ r7: .cfa -8 + ^ r6: .cfa -12 + ^ r4: .cfa -16 + ^
STACK CFI 5cc20 .cfa: r7 8 +
STACK CFI INIT 5cc80 7bc .cfa: sp 0 +
STACK CFI 5cc82 .cfa: sp 20 + .ra: .cfa -4 + ^ r7: .cfa -8 + ^ r6: .cfa -12 + ^ r5: .cfa -16 + ^ r4: .cfa -20 + ^
STACK CFI 5cc84 .cfa: r7 8 +
STACK CFI 5cc88 r10: .cfa -24 + ^ r9: .cfa -28 + ^ r8: .cfa -32 + ^
STACK CFI INIT 5d43c 2 .cfa: sp 0 +
STACK CFI INIT 5d440 7c .cfa: sp 0 +
STACK CFI 5d442 .cfa: sp 16 + .ra: .cfa -4 + ^ r7: .cfa -8 + ^ r6: .cfa -12 + ^ r4: .cfa -16 + ^
STACK CFI 5d444 .cfa: r7 8 +
STACK CFI INIT 5d4bc 1bc .cfa: sp 0 +
STACK CFI 5d4be .cfa: sp 20 + .ra: .cfa -4 + ^ r7: .cfa -8 + ^ r6: .cfa -12 + ^ r5: .cfa -16 + ^ r4: .cfa -20 + ^
STACK CFI 5d4c0 .cfa: r7 8 +
STACK CFI 5d4c4 r10: .cfa -24 + ^ r9: .cfa -28 + ^ r8: .cfa -32 + ^
STACK CFI INIT 5d678 7c .cfa: sp 0 +
STACK CFI 5d67a .cfa: sp 16 + .ra: .cfa -4 + ^ r7: .cfa -8 + ^ r6: .cfa -12 + ^ r4: .cfa -16 + ^
STACK CFI 5d67c .cfa: r7 8 +
STACK CFI INIT 5d6f4 4c .cfa: sp 0 +
STACK CFI 5d6f6 .cfa: sp 20 + .ra: .cfa -4 + ^ r7: .cfa -8 + ^ r6: .cfa -12 + ^ r5: .cfa -16 + ^ r4: .cfa -20 + ^
STACK CFI 5d6f8 .cfa: r7 8 +
STACK CFI 5d6fc r8: .cfa -24 + ^
STACK CFI INIT 5d740 100 .cfa: sp 0 +
STACK CFI 5d742 .cfa: sp 20 + .ra: .cfa -4 + ^ r7: .cfa -8 + ^ r6: .cfa -12 + ^ r5: .cfa -16 + ^ r4: .cfa -20 + ^
STACK CFI 5d744 .cfa: r7 8 +
STACK CFI 5d748 r8: .cfa -24 + ^
STACK CFI INIT 5d840 64 .cfa: sp 0 +
STACK CFI 5d842 .cfa: sp 16 + .ra: .cfa -4 + ^ r7: .cfa -8 + ^ r6: .cfa -12 + ^ r4: .cfa -16 + ^
STACK CFI 5d844 .cfa: r7 8 +
STACK CFI INIT 5d8b0 30c .cfa: sp 0 +
STACK CFI 5d8b2 .cfa: sp 20 + .ra: .cfa -4 + ^ r7: .cfa -8 + ^ r6: .cfa -12 + ^ r5: .cfa -16 + ^ r4: .cfa -20 + ^
STACK CFI 5d8b4 .cfa: r7 8 +
STACK CFI 5d8b8 r10: .cfa -24 + ^ r9: .cfa -28 + ^ r8: .cfa -32 + ^
STACK CFI INIT 5dbbc 2 .cfa: sp 0 +
STACK CFI INIT 5dbc0 180 .cfa: sp 0 +
STACK CFI 5dbc2 .cfa: sp 20 + .ra: .cfa -4 + ^ r7: .cfa -8 + ^ r6: .cfa -12 + ^ r5: .cfa -16 + ^ r4: .cfa -20 + ^
STACK CFI 5dbc4 .cfa: r7 8 +
STACK CFI 5dbc8 r10: .cfa -24 + ^ r9: .cfa -28 + ^ r8: .cfa -32 + ^
STACK CFI INIT 5dd40 b4c .cfa: sp 0 +
STACK CFI 5dd42 .cfa: sp 20 + .ra: .cfa -4 + ^ r7: .cfa -8 + ^ r6: .cfa -12 + ^ r5: .cfa -16 + ^ r4: .cfa -20 + ^
STACK CFI 5dd44 .cfa: r7 8 +
STACK CFI 5dd48 r11: .cfa -24 + ^ r10: .cfa -28 + ^ r9: .cfa -32 + ^ r8: .cfa -36 + ^
STACK CFI INIT 5e88c 2 .cfa: sp 0 +
STACK CFI INIT 5e88e 26 .cfa: sp 0 +
STACK CFI 5e890 .cfa: sp 16 + .ra: .cfa -4 + ^ r7: .cfa -8 + ^ r6: .cfa -12 + ^ r4: .cfa -16 + ^
STACK CFI 5e892 .cfa: r7 8 +
STACK CFI INIT 5e8b8 948 .cfa: sp 0 +
STACK CFI 5e8ba .cfa: sp 20 + .ra: .cfa -4 + ^ r7: .cfa -8 + ^ r6: .cfa -12 + ^ r5: .cfa -16 + ^ r4: .cfa -20 + ^
STACK CFI 5e8bc .cfa: r7 8 +
STACK CFI 5e8c0 r11: .cfa -24 + ^ r10: .cfa -28 + ^ r9: .cfa -32 + ^ r8: .cfa -36 + ^
STACK CFI INIT 5f200 26 .cfa: sp 0 +
STACK CFI 5f202 .cfa: sp 16 + .ra: .cfa -4 + ^ r7: .cfa -8 + ^ r6: .cfa -12 + ^ r4: .cfa -16 + ^
STACK CFI 5f204 .cfa: r7 8 +
STACK CFI INIT 5f228 dc .cfa: sp 0 +
STACK CFI 5f22a .cfa: sp 20 + .ra: .cfa -4 + ^ r7: .cfa -8 + ^ r6: .cfa -12 + ^ r5: .cfa -16 + ^ r4: .cfa -20 + ^
STACK CFI 5f22c .cfa: r7 8 +
STACK CFI 5f230 r8: .cfa -24 + ^
STACK CFI INIT 5f304 101c .cfa: sp 0 +
STACK CFI 5f306 .cfa: sp 20 + .ra: .cfa -4 + ^ r7: .cfa -8 + ^ r6: .cfa -12 + ^ r5: .cfa -16 + ^ r4: .cfa -20 + ^
STACK CFI 5f308 .cfa: r7 8 +
STACK CFI 5f30c r11: .cfa -24 + ^ r10: .cfa -28 + ^ r9: .cfa -32 + ^ r8: .cfa -36 + ^
STACK CFI INIT 60320 6d0 .cfa: sp 0 +
STACK CFI 60322 .cfa: sp 20 + .ra: .cfa -4 + ^ r7: .cfa -8 + ^ r6: .cfa -12 + ^ r5: .cfa -16 + ^ r4: .cfa -20 + ^
STACK CFI 60324 .cfa: r7 8 +
STACK CFI 60328 r11: .cfa -24 + ^ r10: .cfa -28 + ^ r9: .cfa -32 + ^ r8: .cfa -36 + ^
STACK CFI INIT 609f0 6c .cfa: sp 0 +
STACK CFI 609f2 .cfa: sp 16 + .ra: .cfa -4 + ^ r7: .cfa -8 + ^ r5: .cfa -12 + ^ r4: .cfa -16 + ^
STACK CFI 609f4 .cfa: r7 8 +
STACK CFI INIT 60a5c 230 .cfa: sp 0 +
STACK CFI 60a5e .cfa: sp 20 + .ra: .cfa -4 + ^ r7: .cfa -8 + ^ r6: .cfa -12 + ^ r5: .cfa -16 + ^ r4: .cfa -20 + ^
STACK CFI 60a60 .cfa: r7 8 +
STACK CFI 60a64 r10: .cfa -24 + ^ r9: .cfa -28 + ^ r8: .cfa -32 + ^
STACK CFI INIT 60c8c 14 .cfa: sp 0 +
STACK CFI 60c8e .cfa: sp 16 + .ra: .cfa -4 + ^ r7: .cfa -8 + ^ r6: .cfa -12 + ^ r4: .cfa -16 + ^
STACK CFI 60c90 .cfa: r7 8 +
STACK CFI INIT 60ca0 3a .cfa: sp 0 +
STACK CFI 60ca2 .cfa: sp 16 + .ra: .cfa -4 + ^ r7: .cfa -8 + ^ r5: .cfa -12 + ^ r4: .cfa -16 + ^
STACK CFI 60ca4 .cfa: r7 8 +
STACK CFI INIT 60cda 3a .cfa: sp 0 +
STACK CFI 60cdc .cfa: sp 16 + .ra: .cfa -4 + ^ r7: .cfa -8 + ^ r5: .cfa -12 + ^ r4: .cfa -16 + ^
STACK CFI 60cde .cfa: r7 8 +
STACK CFI INIT 60d14 34 .cfa: sp 0 +
STACK CFI 60d16 .cfa: sp 16 + .ra: .cfa -4 + ^ r7: .cfa -8 + ^ r6: .cfa -12 + ^ r4: .cfa -16 + ^
STACK CFI 60d18 .cfa: r7 8 +
STACK CFI INIT 60d48 2c .cfa: sp 0 +
STACK CFI 60d50 .cfa: sp 16 + .ra: .cfa -4 + ^ r7: .cfa -8 + ^ r5: .cfa -12 + ^ r4: .cfa -16 + ^
STACK CFI 60d52 .cfa: r7 8 +
STACK CFI INIT 60d74 138c .cfa: sp 0 +
STACK CFI 60d76 .cfa: sp 20 + .ra: .cfa -4 + ^ r7: .cfa -8 + ^ r6: .cfa -12 + ^ r5: .cfa -16 + ^ r4: .cfa -20 + ^
STACK CFI 60d78 .cfa: r7 8 +
STACK CFI 60d7c r11: .cfa -24 + ^ r10: .cfa -28 + ^ r9: .cfa -32 + ^ r8: .cfa -36 + ^
STACK CFI INIT 62100 12c .cfa: sp 0 +
STACK CFI 62102 .cfa: sp 20 + .ra: .cfa -4 + ^ r7: .cfa -8 + ^ r6: .cfa -12 + ^ r5: .cfa -16 + ^ r4: .cfa -20 + ^
STACK CFI 62104 .cfa: r7 8 +
STACK CFI 62108 r11: .cfa -24 + ^
STACK CFI INIT 6222c 5a .cfa: sp 0 +
STACK CFI 6222e .cfa: sp 16 + .ra: .cfa -4 + ^ r7: .cfa -8 + ^ r6: .cfa -12 + ^ r4: .cfa -16 + ^
STACK CFI 62230 .cfa: r7 8 +
STACK CFI INIT 62288 a8 .cfa: sp 0 +
STACK CFI 6228a .cfa: sp 20 + .ra: .cfa -4 + ^ r7: .cfa -8 + ^ r6: .cfa -12 + ^ r5: .cfa -16 + ^ r4: .cfa -20 + ^
STACK CFI 6228c .cfa: r7 8 +
STACK CFI 62290 r11: .cfa -24 + ^ r9: .cfa -28 + ^ r8: .cfa -32 + ^
STACK CFI INIT 62330 134 .cfa: sp 0 +
STACK CFI 62332 .cfa: sp 20 + .ra: .cfa -4 + ^ r7: .cfa -8 + ^ r6: .cfa -12 + ^ r5: .cfa -16 + ^ r4: .cfa -20 + ^
STACK CFI 62334 .cfa: r7 8 +
STACK CFI 62338 r8: .cfa -24 + ^
STACK CFI INIT 62464 10 .cfa: sp 0 +
STACK CFI 62466 .cfa: sp 8 + .ra: .cfa -4 + ^ r7: .cfa -8 + ^
STACK CFI 62468 .cfa: r7 8 +
STACK CFI INIT 62474 c .cfa: sp 0 +
STACK CFI INIT 62480 16 .cfa: sp 0 +
STACK CFI 62482 .cfa: sp 16 + .ra: .cfa -4 + ^ r7: .cfa -8 + ^ r6: .cfa -12 + ^ r4: .cfa -16 + ^
STACK CFI 62484 .cfa: r7 8 +
STACK CFI INIT 62498 238 .cfa: sp 0 +
STACK CFI 6249a .cfa: sp 20 + .ra: .cfa -4 + ^ r7: .cfa -8 + ^ r6: .cfa -12 + ^ r5: .cfa -16 + ^ r4: .cfa -20 + ^
STACK CFI 6249c .cfa: r7 8 +
STACK CFI 624a0 r11: .cfa -24 + ^ r10: .cfa -28 + ^ r9: .cfa -32 + ^ r8: .cfa -36 + ^
STACK CFI INIT 626d0 290 .cfa: sp 0 +
STACK CFI 626d2 .cfa: sp 20 + .ra: .cfa -4 + ^ r7: .cfa -8 + ^ r6: .cfa -12 + ^ r5: .cfa -16 + ^ r4: .cfa -20 + ^
STACK CFI 626d4 .cfa: r7 8 +
STACK CFI 626d8 r11: .cfa -24 + ^ r10: .cfa -28 + ^ r9: .cfa -32 + ^ r8: .cfa -36 + ^
STACK CFI INIT 540c0 220 .cfa: sp 0 +
STACK CFI 540c2 .cfa: sp 20 + .ra: .cfa -4 + ^ r7: .cfa -8 + ^ r6: .cfa -12 + ^ r5: .cfa -16 + ^ r4: .cfa -20 + ^
STACK CFI 540c4 .cfa: r7 8 +
STACK CFI 540c8 r10: .cfa -24 + ^ r9: .cfa -28 + ^ r8: .cfa -32 + ^
STACK CFI INIT 62960 20 .cfa: sp 0 +
STACK CFI 62962 .cfa: sp 16 + .ra: .cfa -4 + ^ r7: .cfa -8 + ^ r6: .cfa -12 + ^ r4: .cfa -16 + ^
STACK CFI 62964 .cfa: r7 8 +
STACK CFI INIT 62980 20 .cfa: sp 0 +
STACK CFI 62982 .cfa: sp 16 + .ra: .cfa -4 + ^ r7: .cfa -8 + ^ r6: .cfa -12 + ^ r4: .cfa -16 + ^
STACK CFI 62984 .cfa: r7 8 +
STACK CFI INIT 629a0 28 .cfa: sp 0 +
STACK CFI 629a2 .cfa: sp 16 + .ra: .cfa -4 + ^ r7: .cfa -8 + ^ r5: .cfa -12 + ^ r4: .cfa -16 + ^
STACK CFI 629a4 .cfa: r7 8 +
STACK CFI INIT 629c8 cc .cfa: sp 0 +
STACK CFI 629ca .cfa: sp 16 + .ra: .cfa -4 + ^ r7: .cfa -8 + ^ r6: .cfa -12 + ^ r4: .cfa -16 + ^
STACK CFI 629cc .cfa: r7 8 +
STACK CFI INIT 62a94 48 .cfa: sp 0 +
STACK CFI 62a96 .cfa: sp 16 + .ra: .cfa -4 + ^ r7: .cfa -8 + ^ r5: .cfa -12 + ^ r4: .cfa -16 + ^
STACK CFI 62a98 .cfa: r7 8 +
STACK CFI INIT 62adc 60 .cfa: sp 0 +
STACK CFI 62ade .cfa: sp 16 + .ra: .cfa -4 + ^ r7: .cfa -8 + ^ r6: .cfa -12 + ^ r4: .cfa -16 + ^
STACK CFI 62ae0 .cfa: r7 8 +
STACK CFI INIT 62b3c 46 .cfa: sp 0 +
STACK CFI 62b3e .cfa: sp 16 + .ra: .cfa -4 + ^ r7: .cfa -8 + ^ r5: .cfa -12 + ^ r4: .cfa -16 + ^
STACK CFI 62b40 .cfa: r7 8 +
STACK CFI INIT 62b84 1f8 .cfa: sp 0 +
STACK CFI 62b86 .cfa: sp 20 + .ra: .cfa -4 + ^ r7: .cfa -8 + ^ r6: .cfa -12 + ^ r5: .cfa -16 + ^ r4: .cfa -20 + ^
STACK CFI 62b88 .cfa: r7 8 +
STACK CFI 62b8c r11: .cfa -24 + ^ r10: .cfa -28 + ^ r9: .cfa -32 + ^ r8: .cfa -36 + ^
STACK CFI INIT 62d7c 10 .cfa: sp 0 +
STACK CFI 62d7e .cfa: sp 8 + .ra: .cfa -4 + ^ r7: .cfa -8 + ^
STACK CFI 62d80 .cfa: r7 8 +
STACK CFI INIT 62d8c 10 .cfa: sp 0 +
STACK CFI 62d8e .cfa: sp 8 + .ra: .cfa -4 + ^ r7: .cfa -8 + ^
STACK CFI 62d90 .cfa: r7 8 +
STACK CFI INIT 62d9c 10 .cfa: sp 0 +
STACK CFI 62d9e .cfa: sp 8 + .ra: .cfa -4 + ^ r7: .cfa -8 + ^
STACK CFI 62da0 .cfa: r7 8 +
STACK CFI INIT 62dac 1c8 .cfa: sp 0 +
STACK CFI 62dae .cfa: sp 20 + .ra: .cfa -4 + ^ r7: .cfa -8 + ^ r6: .cfa -12 + ^ r5: .cfa -16 + ^ r4: .cfa -20 + ^
STACK CFI 62db0 .cfa: r7 8 +
STACK CFI 62db4 r8: .cfa -24 + ^
STACK CFI INIT 62f74 10 .cfa: sp 0 +
STACK CFI 62f76 .cfa: sp 8 + .ra: .cfa -4 + ^ r7: .cfa -8 + ^
STACK CFI 62f78 .cfa: r7 8 +
STACK CFI INIT 62f84 10 .cfa: sp 0 +
STACK CFI 62f86 .cfa: sp 8 + .ra: .cfa -4 + ^ r7: .cfa -8 + ^
STACK CFI 62f88 .cfa: r7 8 +
STACK CFI INIT 62f94 1bc .cfa: sp 0 +
STACK CFI 62f96 .cfa: sp 20 + .ra: .cfa -4 + ^ r7: .cfa -8 + ^ r6: .cfa -12 + ^ r5: .cfa -16 + ^ r4: .cfa -20 + ^
STACK CFI 62f98 .cfa: r7 8 +
STACK CFI 62f9c r11: .cfa -24 + ^ r9: .cfa -28 + ^ r8: .cfa -32 + ^
STACK CFI INIT 63150 228 .cfa: sp 0 +
STACK CFI 63152 .cfa: sp 20 + .ra: .cfa -4 + ^ r7: .cfa -8 + ^ r6: .cfa -12 + ^ r5: .cfa -16 + ^ r4: .cfa -20 + ^
STACK CFI 63154 .cfa: r7 8 +
STACK CFI 63158 r11: .cfa -24 + ^ r10: .cfa -28 + ^ r9: .cfa -32 + ^ r8: .cfa -36 + ^
STACK CFI INIT 63378 8 .cfa: sp 0 +
STACK CFI INIT 63380 10 .cfa: sp 0 +
STACK CFI 63382 .cfa: sp 8 + .ra: .cfa -4 + ^ r7: .cfa -8 + ^
STACK CFI 63384 .cfa: r7 8 +
STACK CFI INIT 63390 14 .cfa: sp 0 +
STACK CFI 63392 .cfa: sp 8 + .ra: .cfa -4 + ^ r7: .cfa -8 + ^
STACK CFI 63394 .cfa: r7 8 +
STACK CFI INIT 633a4 1e8 .cfa: sp 0 +
STACK CFI 633a6 .cfa: sp 20 + .ra: .cfa -4 + ^ r7: .cfa -8 + ^ r6: .cfa -12 + ^ r5: .cfa -16 + ^ r4: .cfa -20 + ^
STACK CFI 633a8 .cfa: r7 8 +
STACK CFI 633ac r8: .cfa -24 + ^
STACK CFI INIT 6358c 27c .cfa: sp 0 +
STACK CFI 6358e .cfa: sp 20 + .ra: .cfa -4 + ^ r7: .cfa -8 + ^ r6: .cfa -12 + ^ r5: .cfa -16 + ^ r4: .cfa -20 + ^
STACK CFI 63590 .cfa: r7 8 +
STACK CFI 63594 r11: .cfa -24 + ^ r10: .cfa -28 + ^ r9: .cfa -32 + ^ r8: .cfa -36 + ^
STACK CFI INIT 63808 8 .cfa: sp 0 +
STACK CFI INIT 63810 10 .cfa: sp 0 +
STACK CFI 63812 .cfa: sp 8 + .ra: .cfa -4 + ^ r7: .cfa -8 + ^
STACK CFI 63814 .cfa: r7 8 +
STACK CFI INIT 63820 14 .cfa: sp 0 +
STACK CFI 63822 .cfa: sp 8 + .ra: .cfa -4 + ^ r7: .cfa -8 + ^
STACK CFI 63824 .cfa: r7 8 +
STACK CFI INIT 63834 1f0 .cfa: sp 0 +
STACK CFI 63836 .cfa: sp 20 + .ra: .cfa -4 + ^ r7: .cfa -8 + ^ r6: .cfa -12 + ^ r5: .cfa -16 + ^ r4: .cfa -20 + ^
STACK CFI 63838 .cfa: r7 8 +
STACK CFI 6383c r8: .cfa -24 + ^
STACK CFI INIT 63a24 8 .cfa: sp 0 +
STACK CFI INIT 63a2c 10 .cfa: sp 0 +
STACK CFI 63a2e .cfa: sp 8 + .ra: .cfa -4 + ^ r7: .cfa -8 + ^
STACK CFI 63a30 .cfa: r7 8 +
STACK CFI INIT 63a3c 14 .cfa: sp 0 +
STACK CFI 63a3e .cfa: sp 8 + .ra: .cfa -4 + ^ r7: .cfa -8 + ^
STACK CFI 63a40 .cfa: r7 8 +
STACK CFI INIT 63a50 1e4 .cfa: sp 0 +
STACK CFI 63a52 .cfa: sp 20 + .ra: .cfa -4 + ^ r7: .cfa -8 + ^ r6: .cfa -12 + ^ r5: .cfa -16 + ^ r4: .cfa -20 + ^
STACK CFI 63a54 .cfa: r7 8 +
STACK CFI 63a58 r8: .cfa -24 + ^
STACK CFI INIT 63c34 10 .cfa: sp 0 +
STACK CFI 63c36 .cfa: sp 8 + .ra: .cfa -4 + ^ r7: .cfa -8 + ^
STACK CFI 63c38 .cfa: r7 8 +
STACK CFI INIT 63c44 10 .cfa: sp 0 +
STACK CFI 63c46 .cfa: sp 8 + .ra: .cfa -4 + ^ r7: .cfa -8 + ^
STACK CFI 63c48 .cfa: r7 8 +
STACK CFI INIT 63c54 74 .cfa: sp 0 +
STACK CFI 63c56 .cfa: sp 16 + .ra: .cfa -4 + ^ r7: .cfa -8 + ^ r5: .cfa -12 + ^ r4: .cfa -16 + ^
STACK CFI 63c58 .cfa: r7 8 +
STACK CFI INIT 63cc8 8 .cfa: sp 0 +
STACK CFI INIT 63cd0 10 .cfa: sp 0 +
STACK CFI 63cd2 .cfa: sp 8 + .ra: .cfa -4 + ^ r7: .cfa -8 + ^
STACK CFI 63cd4 .cfa: r7 8 +
STACK CFI INIT 63ce0 14 .cfa: sp 0 +
STACK CFI 63ce2 .cfa: sp 8 + .ra: .cfa -4 + ^ r7: .cfa -8 + ^
STACK CFI 63ce4 .cfa: r7 8 +
STACK CFI INIT 63cf4 2 .cfa: sp 0 +
STACK CFI INIT 63cf6 2 .cfa: sp 0 +
STACK CFI INIT 63cf8 2 .cfa: sp 0 +
STACK CFI INIT 63cfa 2 .cfa: sp 0 +
STACK CFI INIT 63cfc 4 .cfa: sp 0 +
STACK CFI INIT 63d00 2 .cfa: sp 0 +
STACK CFI INIT 63d04 258 .cfa: sp 0 +
STACK CFI 63d06 .cfa: sp 20 + .ra: .cfa -4 + ^ r7: .cfa -8 + ^ r6: .cfa -12 + ^ r5: .cfa -16 + ^ r4: .cfa -20 + ^
STACK CFI 63d08 .cfa: r7 8 +
STACK CFI 63d0c r11: .cfa -24 + ^ r10: .cfa -28 + ^ r9: .cfa -32 + ^ r8: .cfa -36 + ^
STACK CFI INIT 63f5c 2 .cfa: sp 0 +
STACK CFI INIT 63f5e 2 .cfa: sp 0 +
STACK CFI INIT 63f60 f8 .cfa: sp 0 +
STACK CFI 63f62 .cfa: sp 20 + .ra: .cfa -4 + ^ r7: .cfa -8 + ^ r6: .cfa -12 + ^ r5: .cfa -16 + ^ r4: .cfa -20 + ^
STACK CFI 63f64 .cfa: r7 8 +
STACK CFI 63f68 r11: .cfa -24 + ^ r9: .cfa -28 + ^ r8: .cfa -32 + ^
STACK CFI INIT 64060 70 .cfa: sp 0 +
STACK CFI 64062 .cfa: sp 20 + .ra: .cfa -4 + ^ r7: .cfa -8 + ^ r6: .cfa -12 + ^ r5: .cfa -16 + ^ r4: .cfa -20 + ^
STACK CFI 64064 .cfa: r7 8 +
STACK CFI 64068 r11: .cfa -24 + ^
STACK CFI INIT 640d0 2 .cfa: sp 0 +
STACK CFI INIT 640d2 2 .cfa: sp 0 +
STACK CFI INIT 640d4 2 .cfa: sp 0 +
STACK CFI INIT 640d6 2 .cfa: sp 0 +
STACK CFI INIT 640d8 2 .cfa: sp 0 +
STACK CFI INIT 640da 2 .cfa: sp 0 +
STACK CFI INIT 640dc 4 .cfa: sp 0 +
STACK CFI INIT 640e0 4 .cfa: sp 0 +
STACK CFI INIT 640e4 4 .cfa: sp 0 +
STACK CFI INIT 640e8 2 .cfa: sp 0 +
STACK CFI INIT 640ea 2 .cfa: sp 0 +
STACK CFI INIT 640ec 2 .cfa: sp 0 +
STACK CFI INIT 640ee 4 .cfa: sp 0 +
STACK CFI INIT 640f2 4 .cfa: sp 0 +
STACK CFI INIT 640f6 4 .cfa: sp 0 +
STACK CFI INIT 640fa 4 .cfa: sp 0 +
STACK CFI INIT 640fe 2 .cfa: sp 0 +
STACK CFI INIT 64100 4 .cfa: sp 0 +
STACK CFI INIT 64104 4 .cfa: sp 0 +
STACK CFI INIT 64108 4 .cfa: sp 0 +
STACK CFI INIT 6410c 4 .cfa: sp 0 +
STACK CFI INIT 64110 2 .cfa: sp 0 +
STACK CFI INIT 64112 4 .cfa: sp 0 +
STACK CFI INIT 64118 294 .cfa: sp 0 +
STACK CFI 6411a .cfa: sp 20 + .ra: .cfa -4 + ^ r7: .cfa -8 + ^ r6: .cfa -12 + ^ r5: .cfa -16 + ^ r4: .cfa -20 + ^
STACK CFI 6411c .cfa: r7 8 +
STACK CFI 64120 r11: .cfa -24 + ^ r10: .cfa -28 + ^ r9: .cfa -32 + ^ r8: .cfa -36 + ^
STACK CFI INIT 643ac 8 .cfa: sp 0 +
STACK CFI INIT 643b4 10 .cfa: sp 0 +
STACK CFI 643b6 .cfa: sp 8 + .ra: .cfa -4 + ^ r7: .cfa -8 + ^
STACK CFI 643b8 .cfa: r7 8 +
STACK CFI INIT 643c4 14 .cfa: sp 0 +
STACK CFI 643c6 .cfa: sp 8 + .ra: .cfa -4 + ^ r7: .cfa -8 + ^
STACK CFI 643c8 .cfa: r7 8 +
STACK CFI INIT 643e0 a4 .cfa: sp 0 +
STACK CFI 643e2 .cfa: sp 16 + .ra: .cfa -4 + ^ r7: .cfa -8 + ^ r5: .cfa -12 + ^ r4: .cfa -16 + ^
STACK CFI 643e4 .cfa: r7 8 +
STACK CFI INIT 64484 25c .cfa: sp 0 +
STACK CFI 64486 .cfa: sp 20 + .ra: .cfa -4 + ^ r7: .cfa -8 + ^ r6: .cfa -12 + ^ r5: .cfa -16 + ^ r4: .cfa -20 + ^
STACK CFI 64488 .cfa: r7 8 +
STACK CFI 6448c r11: .cfa -24 + ^ r10: .cfa -28 + ^ r9: .cfa -32 + ^ r8: .cfa -36 + ^
STACK CFI INIT 646e0 34 .cfa: sp 0 +
STACK CFI 646e2 .cfa: sp 16 + .ra: .cfa -4 + ^ r7: .cfa -8 + ^ r6: .cfa -12 + ^ r4: .cfa -16 + ^
STACK CFI 646e4 .cfa: r7 8 +
STACK CFI INIT 64714 38 .cfa: sp 0 +
STACK CFI 64716 .cfa: sp 16 + .ra: .cfa -4 + ^ r7: .cfa -8 + ^ r6: .cfa -12 + ^ r4: .cfa -16 + ^
STACK CFI 64718 .cfa: r7 8 +
STACK CFI INIT 6474c 18 .cfa: sp 0 +
STACK CFI 6474e .cfa: sp 8 + .ra: .cfa -4 + ^ r7: .cfa -8 + ^
STACK CFI 64750 .cfa: r7 8 +
STACK CFI INIT 64764 180 .cfa: sp 0 +
STACK CFI 64766 .cfa: sp 20 + .ra: .cfa -4 + ^ r7: .cfa -8 + ^ r6: .cfa -12 + ^ r5: .cfa -16 + ^ r4: .cfa -20 + ^
STACK CFI 64768 .cfa: r7 8 +
STACK CFI 6476c r11: .cfa -24 + ^ r10: .cfa -28 + ^ r9: .cfa -32 + ^ r8: .cfa -36 + ^
STACK CFI INIT 648e4 6 .cfa: sp 0 +
STACK CFI INIT 648f0 70 .cfa: sp 0 +
STACK CFI 648f2 .cfa: sp 20 + .ra: .cfa -4 + ^ r7: .cfa -8 + ^ r6: .cfa -12 + ^ r5: .cfa -16 + ^ r4: .cfa -20 + ^
STACK CFI 648f4 .cfa: r7 8 +
STACK CFI 648f8 r11: .cfa -24 + ^
STACK CFI INIT 64960 f8 .cfa: sp 0 +
STACK CFI 64962 .cfa: sp 20 + .ra: .cfa -4 + ^ r7: .cfa -8 + ^ r6: .cfa -12 + ^ r5: .cfa -16 + ^ r4: .cfa -20 + ^
STACK CFI 64964 .cfa: r7 8 +
STACK CFI 64968 r11: .cfa -24 + ^ r9: .cfa -28 + ^ r8: .cfa -32 + ^
STACK CFI INIT 64a58 270 .cfa: sp 0 +
STACK CFI 64a5a .cfa: sp 20 + .ra: .cfa -4 + ^ r7: .cfa -8 + ^ r6: .cfa -12 + ^ r5: .cfa -16 + ^ r4: .cfa -20 + ^
STACK CFI 64a5c .cfa: r7 8 +
STACK CFI 64a60 r11: .cfa -24 + ^ r10: .cfa -28 + ^ r9: .cfa -32 + ^ r8: .cfa -36 + ^
STACK CFI INIT 64cc8 e .cfa: sp 0 +
STACK CFI INIT 64cd6 e .cfa: sp 0 +
STACK CFI INIT 64ce4 e .cfa: sp 0 +
STACK CFI INIT 64cf2 e .cfa: sp 0 +
STACK CFI INIT 64d00 e .cfa: sp 0 +
STACK CFI INIT 64d0e e .cfa: sp 0 +
STACK CFI INIT 64d1c e .cfa: sp 0 +
STACK CFI INIT 64d2a e .cfa: sp 0 +
STACK CFI INIT 64d38 e .cfa: sp 0 +
STACK CFI INIT 64d46 e .cfa: sp 0 +
STACK CFI INIT 64d54 e .cfa: sp 0 +
STACK CFI INIT 64d62 e .cfa: sp 0 +
STACK CFI INIT 64d70 6c8 .cfa: sp 0 +
STACK CFI 64d72 .cfa: sp 20 + .ra: .cfa -4 + ^ r7: .cfa -8 + ^ r6: .cfa -12 + ^ r5: .cfa -16 + ^ r4: .cfa -20 + ^
STACK CFI 64d74 .cfa: r7 8 +
STACK CFI 64d78 r11: .cfa -24 + ^ r10: .cfa -28 + ^ r9: .cfa -32 + ^ r8: .cfa -36 + ^
STACK CFI INIT 65438 552 .cfa: sp 0 +
STACK CFI 6543a .cfa: sp 20 + .ra: .cfa -4 + ^ r7: .cfa -8 + ^ r6: .cfa -12 + ^ r5: .cfa -16 + ^ r4: .cfa -20 + ^
STACK CFI 6543c .cfa: r7 8 +
STACK CFI 65440 r11: .cfa -24 + ^ r10: .cfa -28 + ^ r9: .cfa -32 + ^ r8: .cfa -36 + ^
STACK CFI INIT 6598a 8 .cfa: sp 0 +
STACK CFI INIT 65992 10 .cfa: sp 0 +
STACK CFI 65994 .cfa: sp 8 + .ra: .cfa -4 + ^ r7: .cfa -8 + ^
STACK CFI 65996 .cfa: r7 8 +
STACK CFI INIT 659a2 14 .cfa: sp 0 +
STACK CFI 659a4 .cfa: sp 8 + .ra: .cfa -4 + ^ r7: .cfa -8 + ^
STACK CFI 659a6 .cfa: r7 8 +
STACK CFI INIT 659b8 f0 .cfa: sp 0 +
STACK CFI 659ba .cfa: sp 20 + .ra: .cfa -4 + ^ r7: .cfa -8 + ^ r6: .cfa -12 + ^ r5: .cfa -16 + ^ r4: .cfa -20 + ^
STACK CFI 659bc .cfa: r7 8 +
STACK CFI 659c0 r11: .cfa -24 + ^ r10: .cfa -28 + ^ r9: .cfa -32 + ^ r8: .cfa -36 + ^
STACK CFI INIT 65ab0 320 .cfa: sp 0 +
STACK CFI 65ab2 .cfa: sp 20 + .ra: .cfa -4 + ^ r7: .cfa -8 + ^ r6: .cfa -12 + ^ r5: .cfa -16 + ^ r4: .cfa -20 + ^
STACK CFI 65ab4 .cfa: r7 8 +
STACK CFI 65ab8 r11: .cfa -24 + ^ r10: .cfa -28 + ^ r9: .cfa -32 + ^ r8: .cfa -36 + ^
STACK CFI INIT 65dd0 18 .cfa: sp 0 +
STACK CFI 65dd2 .cfa: sp 8 + .ra: .cfa -4 + ^ r7: .cfa -8 + ^
STACK CFI 65dd4 .cfa: r7 8 +
STACK CFI INIT 65de8 fc .cfa: sp 0 +
STACK CFI 65dea .cfa: sp 20 + .ra: .cfa -4 + ^ r7: .cfa -8 + ^ r6: .cfa -12 + ^ r5: .cfa -16 + ^ r4: .cfa -20 + ^
STACK CFI 65dec .cfa: r7 8 +
STACK CFI 65df0 r10: .cfa -24 + ^ r9: .cfa -28 + ^ r8: .cfa -32 + ^
STACK CFI INIT 65ef0 3c0 .cfa: sp 0 +
STACK CFI 65ef2 .cfa: sp 20 + .ra: .cfa -4 + ^ r7: .cfa -8 + ^ r6: .cfa -12 + ^ r5: .cfa -16 + ^ r4: .cfa -20 + ^
STACK CFI 65ef4 .cfa: r7 8 +
STACK CFI 65ef8 r11: .cfa -24 + ^ r10: .cfa -28 + ^ r9: .cfa -32 + ^ r8: .cfa -36 + ^
STACK CFI INIT 662b0 24 .cfa: sp 0 +
STACK CFI 662b2 .cfa: sp 8 + .ra: .cfa -4 + ^ r7: .cfa -8 + ^
STACK CFI 662b4 .cfa: r7 8 +
STACK CFI INIT 662d4 ec .cfa: sp 0 +
STACK CFI 662d6 .cfa: sp 20 + .ra: .cfa -4 + ^ r7: .cfa -8 + ^ r6: .cfa -12 + ^ r5: .cfa -16 + ^ r4: .cfa -20 + ^
STACK CFI 662d8 .cfa: r7 8 +
STACK CFI 662dc r11: .cfa -24 + ^ r10: .cfa -28 + ^ r9: .cfa -32 + ^ r8: .cfa -36 + ^
STACK CFI INIT 663c0 160 .cfa: sp 0 +
STACK CFI 663c2 .cfa: sp 20 + .ra: .cfa -4 + ^ r7: .cfa -8 + ^ r6: .cfa -12 + ^ r5: .cfa -16 + ^ r4: .cfa -20 + ^
STACK CFI 663c4 .cfa: r7 8 +
STACK CFI 663c8 r11: .cfa -24 + ^ r10: .cfa -28 + ^ r9: .cfa -32 + ^ r8: .cfa -36 + ^
STACK CFI INIT 66520 10 .cfa: sp 0 +
STACK CFI INIT 66530 e8 .cfa: sp 0 +
STACK CFI 66532 .cfa: sp 20 + .ra: .cfa -4 + ^ r7: .cfa -8 + ^ r6: .cfa -12 + ^ r5: .cfa -16 + ^ r4: .cfa -20 + ^
STACK CFI 66534 .cfa: r7 8 +
STACK CFI 66538 r10: .cfa -24 + ^ r9: .cfa -28 + ^ r8: .cfa -32 + ^
STACK CFI INIT 66620 a0 .cfa: sp 0 +
STACK CFI 66622 .cfa: sp 20 + .ra: .cfa -4 + ^ r7: .cfa -8 + ^ r6: .cfa -12 + ^ r5: .cfa -16 + ^ r4: .cfa -20 + ^
STACK CFI 66624 .cfa: r7 8 +
STACK CFI 66628 r11: .cfa -24 + ^
STACK CFI INIT 666c0 2 .cfa: sp 0 +
STACK CFI INIT 666c2 4 .cfa: sp 0 +
STACK CFI INIT 666c6 8 .cfa: sp 0 +
STACK CFI INIT 666ce 2 .cfa: sp 0 +
STACK CFI INIT 666d0 ec .cfa: sp 0 +
STACK CFI 666d2 .cfa: sp 20 + .ra: .cfa -4 + ^ r7: .cfa -8 + ^ r6: .cfa -12 + ^ r5: .cfa -16 + ^ r4: .cfa -20 + ^
STACK CFI 666d4 .cfa: r7 8 +
STACK CFI 666d8 r11: .cfa -24 + ^ r10: .cfa -28 + ^ r9: .cfa -32 + ^ r8: .cfa -36 + ^
STACK CFI INIT 667c0 280 .cfa: sp 0 +
STACK CFI 667c2 .cfa: sp 20 + .ra: .cfa -4 + ^ r7: .cfa -8 + ^ r6: .cfa -12 + ^ r5: .cfa -16 + ^ r4: .cfa -20 + ^
STACK CFI 667c4 .cfa: r7 8 +
STACK CFI 667c8 r11: .cfa -24 + ^ r10: .cfa -28 + ^ r9: .cfa -32 + ^ r8: .cfa -36 + ^
STACK CFI INIT 66a40 fc .cfa: sp 0 +
STACK CFI 66a42 .cfa: sp 20 + .ra: .cfa -4 + ^ r7: .cfa -8 + ^ r6: .cfa -12 + ^ r5: .cfa -16 + ^ r4: .cfa -20 + ^
STACK CFI 66a44 .cfa: r7 8 +
STACK CFI 66a48 r11: .cfa -24 + ^ r10: .cfa -28 + ^ r9: .cfa -32 + ^ r8: .cfa -36 + ^
STACK CFI INIT 66b40 3d0 .cfa: sp 0 +
STACK CFI 66b42 .cfa: sp 20 + .ra: .cfa -4 + ^ r7: .cfa -8 + ^ r6: .cfa -12 + ^ r5: .cfa -16 + ^ r4: .cfa -20 + ^
STACK CFI 66b44 .cfa: r7 8 +
STACK CFI 66b48 r11: .cfa -24 + ^ r10: .cfa -28 + ^ r9: .cfa -32 + ^ r8: .cfa -36 + ^
STACK CFI INIT 66f10 e8 .cfa: sp 0 +
STACK CFI 66f12 .cfa: sp 20 + .ra: .cfa -4 + ^ r7: .cfa -8 + ^ r6: .cfa -12 + ^ r5: .cfa -16 + ^ r4: .cfa -20 + ^
STACK CFI 66f14 .cfa: r7 8 +
STACK CFI 66f18 r10: .cfa -24 + ^ r9: .cfa -28 + ^ r8: .cfa -32 + ^
STACK CFI INIT 67000 a0 .cfa: sp 0 +
STACK CFI 67002 .cfa: sp 20 + .ra: .cfa -4 + ^ r7: .cfa -8 + ^ r6: .cfa -12 + ^ r5: .cfa -16 + ^ r4: .cfa -20 + ^
STACK CFI 67004 .cfa: r7 8 +
STACK CFI 67008 r11: .cfa -24 + ^
STACK CFI INIT 670a0 2f8 .cfa: sp 0 +
STACK CFI 670a2 .cfa: sp 20 + .ra: .cfa -4 + ^ r7: .cfa -8 + ^ r6: .cfa -12 + ^ r5: .cfa -16 + ^ r4: .cfa -20 + ^
STACK CFI 670a4 .cfa: r7 8 +
STACK CFI 670a8 r11: .cfa -24 + ^ r10: .cfa -28 + ^ r9: .cfa -32 + ^ r8: .cfa -36 + ^
STACK CFI INIT 67398 8 .cfa: sp 0 +
STACK CFI INIT 673a0 10 .cfa: sp 0 +
STACK CFI 673a2 .cfa: sp 8 + .ra: .cfa -4 + ^ r7: .cfa -8 + ^
STACK CFI 673a4 .cfa: r7 8 +
STACK CFI INIT 673b0 14 .cfa: sp 0 +
STACK CFI 673b2 .cfa: sp 8 + .ra: .cfa -4 + ^ r7: .cfa -8 + ^
STACK CFI 673b4 .cfa: r7 8 +
STACK CFI INIT 673c4 e .cfa: sp 0 +
STACK CFI 673c6 .cfa: sp 8 + .ra: .cfa -4 + ^ r7: .cfa -8 + ^
STACK CFI 673c8 .cfa: r7 8 +
STACK CFI INIT 673d4 e8 .cfa: sp 0 +
STACK CFI 673d6 .cfa: sp 20 + .ra: .cfa -4 + ^ r7: .cfa -8 + ^ r6: .cfa -12 + ^ r5: .cfa -16 + ^ r4: .cfa -20 + ^
STACK CFI 673d8 .cfa: r7 8 +
STACK CFI 673dc r10: .cfa -24 + ^ r9: .cfa -28 + ^ r8: .cfa -32 + ^
STACK CFI INIT 674c0 a0 .cfa: sp 0 +
STACK CFI 674c2 .cfa: sp 20 + .ra: .cfa -4 + ^ r7: .cfa -8 + ^ r6: .cfa -12 + ^ r5: .cfa -16 + ^ r4: .cfa -20 + ^
STACK CFI 674c4 .cfa: r7 8 +
STACK CFI 674c8 r11: .cfa -24 + ^
STACK CFI INIT 67560 14 .cfa: sp 0 +
STACK CFI INIT 67574 1c .cfa: sp 0 +
STACK CFI 67576 .cfa: sp 16 + .ra: .cfa -4 + ^ r7: .cfa -8 + ^ r6: .cfa -12 + ^ r4: .cfa -16 + ^
STACK CFI 67578 .cfa: r7 8 +
STACK CFI INIT 67590 44 .cfa: sp 0 +
STACK CFI 67592 .cfa: sp 20 + .ra: .cfa -4 + ^ r7: .cfa -8 + ^ r6: .cfa -12 + ^ r5: .cfa -16 + ^ r4: .cfa -20 + ^
STACK CFI 67594 .cfa: r7 8 +
STACK CFI 67598 r11: .cfa -24 + ^
STACK CFI INIT 675d4 a .cfa: sp 0 +
STACK CFI INIT 675de c .cfa: sp 0 +
STACK CFI INIT 675ea 2 .cfa: sp 0 +
STACK CFI INIT 675ec 2 .cfa: sp 0 +
STACK CFI INIT 675ee 4 .cfa: sp 0 +
STACK CFI INIT 675f2 2 .cfa: sp 0 +
STACK CFI INIT 675f4 2 .cfa: sp 0 +
STACK CFI INIT 675f8 38 .cfa: sp 0 +
STACK CFI 675fa .cfa: sp 16 + .ra: .cfa -4 + ^ r7: .cfa -8 + ^ r6: .cfa -12 + ^ r4: .cfa -16 + ^
STACK CFI 675fc .cfa: r7 8 +
STACK CFI INIT 67630 294 .cfa: sp 0 +
STACK CFI 67632 .cfa: sp 20 + .ra: .cfa -4 + ^ r7: .cfa -8 + ^ r6: .cfa -12 + ^ r5: .cfa -16 + ^ r4: .cfa -20 + ^
STACK CFI 67634 .cfa: r7 8 +
STACK CFI 67638 r11: .cfa -24 + ^ r10: .cfa -28 + ^ r9: .cfa -32 + ^ r8: .cfa -36 + ^
STACK CFI INIT 678c4 274 .cfa: sp 0 +
STACK CFI 678c6 .cfa: sp 20 + .ra: .cfa -4 + ^ r7: .cfa -8 + ^ r6: .cfa -12 + ^ r5: .cfa -16 + ^ r4: .cfa -20 + ^
STACK CFI 678c8 .cfa: r7 8 +
STACK CFI 678cc r11: .cfa -24 + ^ r10: .cfa -28 + ^ r9: .cfa -32 + ^ r8: .cfa -36 + ^
STACK CFI INIT 67b38 22c .cfa: sp 0 +
STACK CFI 67b3a .cfa: sp 20 + .ra: .cfa -4 + ^ r7: .cfa -8 + ^ r6: .cfa -12 + ^ r5: .cfa -16 + ^ r4: .cfa -20 + ^
STACK CFI 67b3c .cfa: r7 8 +
STACK CFI 67b40 r11: .cfa -24 + ^ r10: .cfa -28 + ^ r9: .cfa -32 + ^ r8: .cfa -36 + ^
STACK CFI INIT 67d64 294 .cfa: sp 0 +
STACK CFI 67d66 .cfa: sp 20 + .ra: .cfa -4 + ^ r7: .cfa -8 + ^ r6: .cfa -12 + ^ r5: .cfa -16 + ^ r4: .cfa -20 + ^
STACK CFI 67d68 .cfa: r7 8 +
STACK CFI 67d6c r11: .cfa -24 + ^ r10: .cfa -28 + ^ r9: .cfa -32 + ^ r8: .cfa -36 + ^
STACK CFI INIT 67ff8 42c .cfa: sp 0 +
STACK CFI 67ffa .cfa: sp 20 + .ra: .cfa -4 + ^ r7: .cfa -8 + ^ r6: .cfa -12 + ^ r5: .cfa -16 + ^ r4: .cfa -20 + ^
STACK CFI 67ffc .cfa: r7 8 +
STACK CFI 68000 r11: .cfa -24 + ^ r10: .cfa -28 + ^ r9: .cfa -32 + ^ r8: .cfa -36 + ^
STACK CFI INIT 68424 f8 .cfa: sp 0 +
STACK CFI 68426 .cfa: sp 20 + .ra: .cfa -4 + ^ r7: .cfa -8 + ^ r6: .cfa -12 + ^ r5: .cfa -16 + ^ r4: .cfa -20 + ^
STACK CFI 68428 .cfa: r7 8 +
STACK CFI 6842c r8: .cfa -24 + ^
STACK CFI INIT 6851c 2 .cfa: sp 0 +
STACK CFI INIT 6851e e .cfa: sp 0 +
STACK CFI INIT 6852c 3ea .cfa: sp 0 +
STACK CFI 6852e .cfa: sp 20 + .ra: .cfa -4 + ^ r7: .cfa -8 + ^ r6: .cfa -12 + ^ r5: .cfa -16 + ^ r4: .cfa -20 + ^
STACK CFI 68530 .cfa: r7 8 +
STACK CFI 68534 r11: .cfa -24 + ^ r10: .cfa -28 + ^ r9: .cfa -32 + ^ r8: .cfa -36 + ^
STACK CFI INIT 68918 1cc .cfa: sp 0 +
STACK CFI 6891a .cfa: sp 20 + .ra: .cfa -4 + ^ r7: .cfa -8 + ^ r6: .cfa -12 + ^ r5: .cfa -16 + ^ r4: .cfa -20 + ^
STACK CFI 6891c .cfa: r7 8 +
STACK CFI 68920 r11: .cfa -24 + ^ r10: .cfa -28 + ^ r9: .cfa -32 + ^ r8: .cfa -36 + ^
STACK CFI INIT 68ae4 44 .cfa: sp 0 +
STACK CFI 68ae6 .cfa: sp 16 + .ra: .cfa -4 + ^ r7: .cfa -8 + ^ r6: .cfa -12 + ^ r4: .cfa -16 + ^
STACK CFI 68ae8 .cfa: r7 8 +
STACK CFI INIT 68b28 38 .cfa: sp 0 +
STACK CFI 68b2a .cfa: sp 16 + .ra: .cfa -4 + ^ r7: .cfa -8 + ^ r5: .cfa -12 + ^ r4: .cfa -16 + ^
STACK CFI 68b2c .cfa: r7 8 +
STACK CFI INIT 68b60 18 .cfa: sp 0 +
STACK CFI 68b62 .cfa: sp 8 + .ra: .cfa -4 + ^ r7: .cfa -8 + ^
STACK CFI 68b64 .cfa: r7 8 +
STACK CFI INIT 68b78 420 .cfa: sp 0 +
STACK CFI 68b7a .cfa: sp 20 + .ra: .cfa -4 + ^ r7: .cfa -8 + ^ r6: .cfa -12 + ^ r5: .cfa -16 + ^ r4: .cfa -20 + ^
STACK CFI 68b7c .cfa: r7 8 +
STACK CFI 68b80 r11: .cfa -24 + ^ r10: .cfa -28 + ^ r9: .cfa -32 + ^ r8: .cfa -36 + ^
STACK CFI INIT 68f98 30 .cfa: sp 0 +
STACK CFI 68f9a .cfa: sp 16 + .ra: .cfa -4 + ^ r7: .cfa -8 + ^ r6: .cfa -12 + ^ r4: .cfa -16 + ^
STACK CFI 68f9c .cfa: r7 8 +
STACK CFI INIT 68fc8 c0 .cfa: sp 0 +
STACK CFI 68fca .cfa: sp 20 + .ra: .cfa -4 + ^ r7: .cfa -8 + ^ r6: .cfa -12 + ^ r5: .cfa -16 + ^ r4: .cfa -20 + ^
STACK CFI 68fcc .cfa: r7 8 +
STACK CFI 68fd0 r11: .cfa -24 + ^ r9: .cfa -28 + ^ r8: .cfa -32 + ^
STACK CFI INIT 69088 198 .cfa: sp 0 +
STACK CFI 6908a .cfa: sp 20 + .ra: .cfa -4 + ^ r7: .cfa -8 + ^ r6: .cfa -12 + ^ r5: .cfa -16 + ^ r4: .cfa -20 + ^
STACK CFI 6908c .cfa: r7 8 +
STACK CFI 69090 r11: .cfa -24 + ^ r10: .cfa -28 + ^ r9: .cfa -32 + ^ r8: .cfa -36 + ^
STACK CFI INIT 69220 278 .cfa: sp 0 +
STACK CFI 69222 .cfa: sp 20 + .ra: .cfa -4 + ^ r7: .cfa -8 + ^ r6: .cfa -12 + ^ r5: .cfa -16 + ^ r4: .cfa -20 + ^
STACK CFI 69224 .cfa: r7 8 +
STACK CFI 69228 r10: .cfa -24 + ^ r9: .cfa -28 + ^ r8: .cfa -32 + ^
STACK CFI INIT 694a0 228 .cfa: sp 0 +
STACK CFI 694a2 .cfa: sp 20 + .ra: .cfa -4 + ^ r7: .cfa -8 + ^ r6: .cfa -12 + ^ r5: .cfa -16 + ^ r4: .cfa -20 + ^
STACK CFI 694a4 .cfa: r7 8 +
STACK CFI 694a8 r11: .cfa -24 + ^
STACK CFI INIT 696c8 360 .cfa: sp 0 +
STACK CFI 696ca .cfa: sp 20 + .ra: .cfa -4 + ^ r7: .cfa -8 + ^ r6: .cfa -12 + ^ r5: .cfa -16 + ^ r4: .cfa -20 + ^
STACK CFI 696cc .cfa: r7 8 +
STACK CFI 696d0 r11: .cfa -24 + ^ r10: .cfa -28 + ^ r9: .cfa -32 + ^ r8: .cfa -36 + ^
STACK CFI INIT 69a28 7fc .cfa: sp 0 +
STACK CFI 69a2a .cfa: sp 20 + .ra: .cfa -4 + ^ r7: .cfa -8 + ^ r6: .cfa -12 + ^ r5: .cfa -16 + ^ r4: .cfa -20 + ^
STACK CFI 69a2c .cfa: r7 8 +
STACK CFI 69a30 r11: .cfa -24 + ^ r10: .cfa -28 + ^ r9: .cfa -32 + ^ r8: .cfa -36 + ^
STACK CFI INIT 6a224 4c .cfa: sp 0 +
STACK CFI 6a226 .cfa: sp 20 + .ra: .cfa -4 + ^ r7: .cfa -8 + ^ r6: .cfa -12 + ^ r5: .cfa -16 + ^ r4: .cfa -20 + ^
STACK CFI 6a228 .cfa: r7 8 +
STACK CFI 6a22c r8: .cfa -24 + ^
STACK CFI INIT 6a270 48 .cfa: sp 0 +
STACK CFI 6a272 .cfa: sp 16 + .ra: .cfa -4 + ^ r7: .cfa -8 + ^ r6: .cfa -12 + ^ r4: .cfa -16 + ^
STACK CFI 6a274 .cfa: r7 8 +
STACK CFI INIT 6a2b8 10 .cfa: sp 0 +
STACK CFI 6a2ba .cfa: sp 8 + .ra: .cfa -4 + ^ r7: .cfa -8 + ^
STACK CFI 6a2bc .cfa: r7 8 +
STACK CFI INIT 6a2c8 9a .cfa: sp 0 +
STACK CFI 6a2ca .cfa: sp 20 + .ra: .cfa -4 + ^ r7: .cfa -8 + ^ r6: .cfa -12 + ^ r5: .cfa -16 + ^ r4: .cfa -20 + ^
STACK CFI 6a2cc .cfa: r7 8 +
STACK CFI 6a2d0 r11: .cfa -24 + ^ r9: .cfa -28 + ^ r8: .cfa -32 + ^
STACK CFI INIT 6a364 54 .cfa: sp 0 +
STACK CFI 6a366 .cfa: sp 8 + .ra: .cfa -4 + ^ r7: .cfa -8 + ^
STACK CFI 6a368 .cfa: r7 8 +
STACK CFI INIT 6a3b8 34 .cfa: sp 0 +
STACK CFI 6a3ba .cfa: sp 16 + .ra: .cfa -4 + ^ r7: .cfa -8 + ^ r5: .cfa -12 + ^ r4: .cfa -16 + ^
STACK CFI 6a3bc .cfa: r7 8 +
STACK CFI INIT 6a3f0 e8 .cfa: sp 0 +
STACK CFI 6a3f2 .cfa: sp 20 + .ra: .cfa -4 + ^ r7: .cfa -8 + ^ r6: .cfa -12 + ^ r5: .cfa -16 + ^ r4: .cfa -20 + ^
STACK CFI 6a3f4 .cfa: r7 8 +
STACK CFI 6a3f8 r11: .cfa -24 + ^
STACK CFI INIT 6a4e0 ec .cfa: sp 0 +
STACK CFI 6a4e2 .cfa: sp 20 + .ra: .cfa -4 + ^ r7: .cfa -8 + ^ r6: .cfa -12 + ^ r5: .cfa -16 + ^ r4: .cfa -20 + ^
STACK CFI 6a4e4 .cfa: r7 8 +
STACK CFI 6a4e8 r11: .cfa -24 + ^
STACK CFI INIT 6a5d0 ec .cfa: sp 0 +
STACK CFI 6a5d2 .cfa: sp 20 + .ra: .cfa -4 + ^ r7: .cfa -8 + ^ r6: .cfa -12 + ^ r5: .cfa -16 + ^ r4: .cfa -20 + ^
STACK CFI 6a5d4 .cfa: r7 8 +
STACK CFI 6a5d8 r11: .cfa -24 + ^
STACK CFI INIT 6a6bc 2c .cfa: sp 0 +
STACK CFI 6a6be .cfa: sp 16 + .ra: .cfa -4 + ^ r7: .cfa -8 + ^ r5: .cfa -12 + ^ r4: .cfa -16 + ^
STACK CFI 6a6c0 .cfa: r7 8 +
STACK CFI INIT 6a6e8 74 .cfa: sp 0 +
STACK CFI 6a6ea .cfa: sp 8 + .ra: .cfa -4 + ^ r7: .cfa -8 + ^
STACK CFI 6a6ec .cfa: r7 8 +
STACK CFI INIT 6a75c 1b0 .cfa: sp 0 +
STACK CFI 6a75e .cfa: sp 20 + .ra: .cfa -4 + ^ r7: .cfa -8 + ^ r6: .cfa -12 + ^ r5: .cfa -16 + ^ r4: .cfa -20 + ^
STACK CFI 6a760 .cfa: r7 8 +
STACK CFI 6a764 r10: .cfa -24 + ^ r9: .cfa -28 + ^ r8: .cfa -32 + ^
STACK CFI INIT 6a90c 9a .cfa: sp 0 +
STACK CFI 6a90e .cfa: sp 20 + .ra: .cfa -4 + ^ r7: .cfa -8 + ^ r6: .cfa -12 + ^ r5: .cfa -16 + ^ r4: .cfa -20 + ^
STACK CFI 6a910 .cfa: r7 8 +
STACK CFI 6a914 r11: .cfa -24 + ^ r9: .cfa -28 + ^ r8: .cfa -32 + ^
STACK CFI INIT 6a9a8 174 .cfa: sp 0 +
STACK CFI 6a9aa .cfa: sp 20 + .ra: .cfa -4 + ^ r7: .cfa -8 + ^ r6: .cfa -12 + ^ r5: .cfa -16 + ^ r4: .cfa -20 + ^
STACK CFI 6a9ac .cfa: r7 8 +
STACK CFI 6a9b0 r10: .cfa -24 + ^ r9: .cfa -28 + ^ r8: .cfa -32 + ^
STACK CFI INIT 6ab1c 218 .cfa: sp 0 +
STACK CFI 6ab1e .cfa: sp 20 + .ra: .cfa -4 + ^ r7: .cfa -8 + ^ r6: .cfa -12 + ^ r5: .cfa -16 + ^ r4: .cfa -20 + ^
STACK CFI 6ab20 .cfa: r7 8 +
STACK CFI 6ab24 r11: .cfa -24 + ^ r10: .cfa -28 + ^ r9: .cfa -32 + ^ r8: .cfa -36 + ^
STACK CFI INIT 6ad34 1dc .cfa: sp 0 +
STACK CFI 6ad36 .cfa: sp 20 + .ra: .cfa -4 + ^ r7: .cfa -8 + ^ r6: .cfa -12 + ^ r5: .cfa -16 + ^ r4: .cfa -20 + ^
STACK CFI 6ad38 .cfa: r7 8 +
STACK CFI 6ad3c r11: .cfa -24 + ^ r10: .cfa -28 + ^ r9: .cfa -32 + ^ r8: .cfa -36 + ^
STACK CFI INIT 6af10 188 .cfa: sp 0 +
STACK CFI 6af12 .cfa: sp 20 + .ra: .cfa -4 + ^ r7: .cfa -8 + ^ r6: .cfa -12 + ^ r5: .cfa -16 + ^ r4: .cfa -20 + ^
STACK CFI 6af14 .cfa: r7 8 +
STACK CFI 6af18 r11: .cfa -24 + ^ r10: .cfa -28 + ^ r9: .cfa -32 + ^ r8: .cfa -36 + ^
STACK CFI INIT 6b098 9f8 .cfa: sp 0 +
STACK CFI 6b09a .cfa: sp 20 + .ra: .cfa -4 + ^ r7: .cfa -8 + ^ r6: .cfa -12 + ^ r5: .cfa -16 + ^ r4: .cfa -20 + ^
STACK CFI 6b09c .cfa: r7 8 +
STACK CFI 6b0a0 r11: .cfa -24 + ^ r10: .cfa -28 + ^ r9: .cfa -32 + ^ r8: .cfa -36 + ^
STACK CFI INIT 6ba90 fa .cfa: sp 0 +
STACK CFI 6ba92 .cfa: sp 20 + .ra: .cfa -4 + ^ r7: .cfa -8 + ^ r6: .cfa -12 + ^ r5: .cfa -16 + ^ r4: .cfa -20 + ^
STACK CFI 6ba94 .cfa: r7 8 +
STACK CFI 6ba98 r11: .cfa -24 + ^ r10: .cfa -28 + ^ r9: .cfa -32 + ^ r8: .cfa -36 + ^
STACK CFI INIT 6bb8c 184 .cfa: sp 0 +
STACK CFI 6bb8e .cfa: sp 20 + .ra: .cfa -4 + ^ r7: .cfa -8 + ^ r6: .cfa -12 + ^ r5: .cfa -16 + ^ r4: .cfa -20 + ^
STACK CFI 6bb90 .cfa: r7 8 +
STACK CFI 6bb94 r11: .cfa -24 + ^ r10: .cfa -28 + ^ r9: .cfa -32 + ^ r8: .cfa -36 + ^
STACK CFI INIT 6bd10 210 .cfa: sp 0 +
STACK CFI 6bd12 .cfa: sp 20 + .ra: .cfa -4 + ^ r7: .cfa -8 + ^ r6: .cfa -12 + ^ r5: .cfa -16 + ^ r4: .cfa -20 + ^
STACK CFI 6bd14 .cfa: r7 8 +
STACK CFI 6bd18 r8: .cfa -24 + ^
STACK CFI INIT 6bf20 e0 .cfa: sp 0 +
STACK CFI 6bf22 .cfa: sp 20 + .ra: .cfa -4 + ^ r7: .cfa -8 + ^ r6: .cfa -12 + ^ r5: .cfa -16 + ^ r4: .cfa -20 + ^
STACK CFI 6bf24 .cfa: r7 8 +
STACK CFI 6bf28 r8: .cfa -24 + ^
STACK CFI INIT 6c000 e0 .cfa: sp 0 +
STACK CFI 6c002 .cfa: sp 20 + .ra: .cfa -4 + ^ r7: .cfa -8 + ^ r6: .cfa -12 + ^ r5: .cfa -16 + ^ r4: .cfa -20 + ^
STACK CFI 6c004 .cfa: r7 8 +
STACK CFI 6c008 r8: .cfa -24 + ^
STACK CFI INIT 6c0e0 140 .cfa: sp 0 +
STACK CFI 6c0e2 .cfa: sp 20 + .ra: .cfa -4 + ^ r7: .cfa -8 + ^ r6: .cfa -12 + ^ r5: .cfa -16 + ^ r4: .cfa -20 + ^
STACK CFI 6c0e4 .cfa: r7 8 +
STACK CFI 6c0e8 r11: .cfa -24 + ^ r10: .cfa -28 + ^ r9: .cfa -32 + ^ r8: .cfa -36 + ^
STACK CFI INIT 6c220 904 .cfa: sp 0 +
STACK CFI 6c222 .cfa: sp 20 + .ra: .cfa -4 + ^ r7: .cfa -8 + ^ r6: .cfa -12 + ^ r5: .cfa -16 + ^ r4: .cfa -20 + ^
STACK CFI 6c224 .cfa: r7 8 +
STACK CFI 6c228 r11: .cfa -24 + ^ r10: .cfa -28 + ^ r9: .cfa -32 + ^ r8: .cfa -36 + ^
STACK CFI INIT 6cb24 e0 .cfa: sp 0 +
STACK CFI 6cb26 .cfa: sp 20 + .ra: .cfa -4 + ^ r7: .cfa -8 + ^ r6: .cfa -12 + ^ r5: .cfa -16 + ^ r4: .cfa -20 + ^
STACK CFI 6cb28 .cfa: r7 8 +
STACK CFI 6cb2c r8: .cfa -24 + ^
STACK CFI INIT 6cc04 194 .cfa: sp 0 +
STACK CFI 6cc06 .cfa: sp 20 + .ra: .cfa -4 + ^ r7: .cfa -8 + ^ r6: .cfa -12 + ^ r5: .cfa -16 + ^ r4: .cfa -20 + ^
STACK CFI 6cc08 .cfa: r7 8 +
STACK CFI 6cc0c r8: .cfa -24 + ^
STACK CFI INIT 6cd98 22 .cfa: sp 0 +
STACK CFI 6cd9a .cfa: sp 16 + .ra: .cfa -4 + ^ r7: .cfa -8 + ^ r6: .cfa -12 + ^ r4: .cfa -16 + ^
STACK CFI 6cd9c .cfa: r7 8 +
STACK CFI INIT 6cdbc 104 .cfa: sp 0 +
STACK CFI 6cdbe .cfa: sp 20 + .ra: .cfa -4 + ^ r7: .cfa -8 + ^ r6: .cfa -12 + ^ r5: .cfa -16 + ^ r4: .cfa -20 + ^
STACK CFI 6cdc0 .cfa: r7 8 +
STACK CFI 6cdc4 r10: .cfa -24 + ^ r9: .cfa -28 + ^ r8: .cfa -32 + ^
STACK CFI INIT 6cec0 144 .cfa: sp 0 +
STACK CFI 6cec2 .cfa: sp 20 + .ra: .cfa -4 + ^ r7: .cfa -8 + ^ r6: .cfa -12 + ^ r5: .cfa -16 + ^ r4: .cfa -20 + ^
STACK CFI 6cec4 .cfa: r7 8 +
STACK CFI 6cec8 r11: .cfa -24 + ^ r9: .cfa -28 + ^ r8: .cfa -32 + ^
STACK CFI INIT 6d004 21c .cfa: sp 0 +
STACK CFI 6d006 .cfa: sp 20 + .ra: .cfa -4 + ^ r7: .cfa -8 + ^ r6: .cfa -12 + ^ r5: .cfa -16 + ^ r4: .cfa -20 + ^
STACK CFI 6d008 .cfa: r7 8 +
STACK CFI 6d00c r11: .cfa -24 + ^ r10: .cfa -28 + ^ r9: .cfa -32 + ^ r8: .cfa -36 + ^
STACK CFI INIT 6d220 6e .cfa: sp 0 +
STACK CFI 6d222 .cfa: sp 20 + .ra: .cfa -4 + ^ r7: .cfa -8 + ^ r6: .cfa -12 + ^ r5: .cfa -16 + ^ r4: .cfa -20 + ^
STACK CFI 6d224 .cfa: r7 8 +
STACK CFI 6d228 r8: .cfa -24 + ^
STACK CFI INIT 6d290 9ac .cfa: sp 0 +
STACK CFI 6d292 .cfa: sp 20 + .ra: .cfa -4 + ^ r7: .cfa -8 + ^ r6: .cfa -12 + ^ r5: .cfa -16 + ^ r4: .cfa -20 + ^
STACK CFI 6d294 .cfa: r7 8 +
STACK CFI 6d298 r11: .cfa -24 + ^ r10: .cfa -28 + ^ r9: .cfa -32 + ^ r8: .cfa -36 + ^
STACK CFI INIT 6dc3c e8 .cfa: sp 0 +
STACK CFI 6dc3e .cfa: sp 20 + .ra: .cfa -4 + ^ r7: .cfa -8 + ^ r6: .cfa -12 + ^ r5: .cfa -16 + ^ r4: .cfa -20 + ^
STACK CFI 6dc40 .cfa: r7 8 +
STACK CFI 6dc44 r8: .cfa -24 + ^
STACK CFI INIT 6dd24 19c .cfa: sp 0 +
STACK CFI 6dd26 .cfa: sp 20 + .ra: .cfa -4 + ^ r7: .cfa -8 + ^ r6: .cfa -12 + ^ r5: .cfa -16 + ^ r4: .cfa -20 + ^
STACK CFI 6dd28 .cfa: r7 8 +
STACK CFI 6dd2c r11: .cfa -24 + ^ r10: .cfa -28 + ^ r9: .cfa -32 + ^ r8: .cfa -36 + ^
STACK CFI INIT 6dec0 150 .cfa: sp 0 +
STACK CFI 6dec2 .cfa: sp 20 + .ra: .cfa -4 + ^ r7: .cfa -8 + ^ r6: .cfa -12 + ^ r5: .cfa -16 + ^ r4: .cfa -20 + ^
STACK CFI 6dec4 .cfa: r7 8 +
STACK CFI 6dec8 r11: .cfa -24 + ^ r10: .cfa -28 + ^ r9: .cfa -32 + ^ r8: .cfa -36 + ^
STACK CFI INIT 6e010 1808 .cfa: sp 0 +
STACK CFI 6e012 .cfa: sp 20 + .ra: .cfa -4 + ^ r7: .cfa -8 + ^ r6: .cfa -12 + ^ r5: .cfa -16 + ^ r4: .cfa -20 + ^
STACK CFI 6e014 .cfa: r7 8 +
STACK CFI 6e018 r11: .cfa -24 + ^ r10: .cfa -28 + ^ r9: .cfa -32 + ^ r8: .cfa -36 + ^
STACK CFI INIT 6f818 1cc .cfa: sp 0 +
STACK CFI 6f81a .cfa: sp 20 + .ra: .cfa -4 + ^ r7: .cfa -8 + ^ r6: .cfa -12 + ^ r5: .cfa -16 + ^ r4: .cfa -20 + ^
STACK CFI 6f81c .cfa: r7 8 +
STACK CFI 6f820 r8: .cfa -24 + ^
STACK CFI INIT 6f9e4 f6 .cfa: sp 0 +
STACK CFI 6f9e6 .cfa: sp 20 + .ra: .cfa -4 + ^ r7: .cfa -8 + ^ r6: .cfa -12 + ^ r5: .cfa -16 + ^ r4: .cfa -20 + ^
STACK CFI 6f9e8 .cfa: r7 8 +
STACK CFI 6f9ec r11: .cfa -24 + ^ r10: .cfa -28 + ^ r9: .cfa -32 + ^ r8: .cfa -36 + ^
STACK CFI INIT 6fadc b78 .cfa: sp 0 +
STACK CFI 6fade .cfa: sp 20 + .ra: .cfa -4 + ^ r7: .cfa -8 + ^ r6: .cfa -12 + ^ r5: .cfa -16 + ^ r4: .cfa -20 + ^
STACK CFI 6fae0 .cfa: r7 8 +
STACK CFI 6fae4 r11: .cfa -24 + ^ r10: .cfa -28 + ^ r9: .cfa -32 + ^ r8: .cfa -36 + ^
STACK CFI INIT 70654 3a4 .cfa: sp 0 +
STACK CFI 70656 .cfa: sp 20 + .ra: .cfa -4 + ^ r7: .cfa -8 + ^ r6: .cfa -12 + ^ r5: .cfa -16 + ^ r4: .cfa -20 + ^
STACK CFI 70658 .cfa: r7 8 +
STACK CFI 7065c r11: .cfa -24 + ^ r10: .cfa -28 + ^ r9: .cfa -32 + ^ r8: .cfa -36 + ^
STACK CFI INIT 709f8 ebc .cfa: sp 0 +
STACK CFI 709fa .cfa: sp 20 + .ra: .cfa -4 + ^ r7: .cfa -8 + ^ r6: .cfa -12 + ^ r5: .cfa -16 + ^ r4: .cfa -20 + ^
STACK CFI 709fc .cfa: r7 8 +
STACK CFI 70a00 r11: .cfa -24 + ^ r10: .cfa -28 + ^ r9: .cfa -32 + ^ r8: .cfa -36 + ^
STACK CFI INIT 718b4 10c .cfa: sp 0 +
STACK CFI 718b6 .cfa: sp 20 + .ra: .cfa -4 + ^ r7: .cfa -8 + ^ r6: .cfa -12 + ^ r5: .cfa -16 + ^ r4: .cfa -20 + ^
STACK CFI 718b8 .cfa: r7 8 +
STACK CFI 718bc r11: .cfa -24 + ^ r10: .cfa -28 + ^ r9: .cfa -32 + ^ r8: .cfa -36 + ^
STACK CFI INIT 719c0 c4 .cfa: sp 0 +
STACK CFI 719de .cfa: sp 20 + .ra: .cfa -4 + ^ r7: .cfa -8 + ^ r6: .cfa -12 + ^ r5: .cfa -16 + ^ r4: .cfa -20 + ^
STACK CFI 719e0 .cfa: r7 8 +
STACK CFI 719e4 r8: .cfa -24 + ^
STACK CFI INIT 71a84 414 .cfa: sp 0 +
STACK CFI 71a86 .cfa: sp 20 + .ra: .cfa -4 + ^ r7: .cfa -8 + ^ r6: .cfa -12 + ^ r5: .cfa -16 + ^ r4: .cfa -20 + ^
STACK CFI 71a88 .cfa: r7 8 +
STACK CFI 71a8c r11: .cfa -24 + ^ r10: .cfa -28 + ^ r9: .cfa -32 + ^ r8: .cfa -36 + ^
STACK CFI INIT 71e98 276 .cfa: sp 0 +
STACK CFI 71e9a .cfa: sp 20 + .ra: .cfa -4 + ^ r7: .cfa -8 + ^ r6: .cfa -12 + ^ r5: .cfa -16 + ^ r4: .cfa -20 + ^
STACK CFI 71e9c .cfa: r7 8 +
STACK CFI 71ea0 r11: .cfa -24 + ^ r10: .cfa -28 + ^ r9: .cfa -32 + ^ r8: .cfa -36 + ^
STACK CFI INIT 7210e 6e .cfa: sp 0 +
STACK CFI 72110 .cfa: sp 20 + .ra: .cfa -4 + ^ r7: .cfa -8 + ^ r6: .cfa -12 + ^ r5: .cfa -16 + ^ r4: .cfa -20 + ^
STACK CFI 72112 .cfa: r7 8 +
STACK CFI 72116 r8: .cfa -24 + ^
STACK CFI INIT 7217c 994 .cfa: sp 0 +
STACK CFI 7217e .cfa: sp 20 + .ra: .cfa -4 + ^ r7: .cfa -8 + ^ r6: .cfa -12 + ^ r5: .cfa -16 + ^ r4: .cfa -20 + ^
STACK CFI 72180 .cfa: r7 8 +
STACK CFI 72184 r11: .cfa -24 + ^ r10: .cfa -28 + ^ r9: .cfa -32 + ^ r8: .cfa -36 + ^
STACK CFI INIT 72b10 e0 .cfa: sp 0 +
STACK CFI 72b12 .cfa: sp 20 + .ra: .cfa -4 + ^ r7: .cfa -8 + ^ r6: .cfa -12 + ^ r5: .cfa -16 + ^ r4: .cfa -20 + ^
STACK CFI 72b14 .cfa: r7 8 +
STACK CFI 72b18 r11: .cfa -24 + ^ r10: .cfa -28 + ^ r9: .cfa -32 + ^ r8: .cfa -36 + ^
STACK CFI INIT 72bf0 834 .cfa: sp 0 +
STACK CFI 72bf2 .cfa: sp 20 + .ra: .cfa -4 + ^ r7: .cfa -8 + ^ r6: .cfa -12 + ^ r5: .cfa -16 + ^ r4: .cfa -20 + ^
STACK CFI 72bf4 .cfa: r7 8 +
STACK CFI 72bf8 r11: .cfa -24 + ^ r10: .cfa -28 + ^ r9: .cfa -32 + ^ r8: .cfa -36 + ^
STACK CFI INIT 73424 124 .cfa: sp 0 +
STACK CFI 73426 .cfa: sp 20 + .ra: .cfa -4 + ^ r7: .cfa -8 + ^ r6: .cfa -12 + ^ r5: .cfa -16 + ^ r4: .cfa -20 + ^
STACK CFI 73428 .cfa: r7 8 +
STACK CFI 7342c r11: .cfa -24 + ^ r10: .cfa -28 + ^ r9: .cfa -32 + ^ r8: .cfa -36 + ^
STACK CFI INIT 73550 1e4 .cfa: sp 0 +
STACK CFI 73552 .cfa: sp 20 + .ra: .cfa -4 + ^ r7: .cfa -8 + ^ r6: .cfa -12 + ^ r5: .cfa -16 + ^ r4: .cfa -20 + ^
STACK CFI 73554 .cfa: r7 8 +
STACK CFI 73558 r11: .cfa -24 + ^ r10: .cfa -28 + ^ r9: .cfa -32 + ^ r8: .cfa -36 + ^
STACK CFI INIT 73734 544 .cfa: sp 0 +
STACK CFI 73736 .cfa: sp 20 + .ra: .cfa -4 + ^ r7: .cfa -8 + ^ r6: .cfa -12 + ^ r5: .cfa -16 + ^ r4: .cfa -20 + ^
STACK CFI 73738 .cfa: r7 8 +
STACK CFI 7373c r11: .cfa -24 + ^ r10: .cfa -28 + ^ r9: .cfa -32 + ^ r8: .cfa -36 + ^
