MODULE Linux arm64 7AAC1ABFE1DC954587A8917B39D379440 alk.allium.android64.so
INFO CODE_ID BF1AAC7ADCE1459587A8917B39D379447D4E5CEA
INFO GENERATOR mozilla/dump_syms 2.3.4
PUBLIC 1a590 0 __on_dlclose
PUBLIC 1a5a0 0 __emutls_unregister_key
PUBLIC 1a5a8 0 __on_dlclose_late
PUBLIC 1a5b0 0 __atexit_handler_wrapper
PUBLIC 1a5c4 0 atexit
PUBLIC 1a5e0 0 pthread_atfork
PUBLIC 1a5f0 0 unwind_phase2
PUBLIC 1a724 0 _Unwind_Resume
PUBLIC 1a7a8 0 unwind_phase2_forced
PUBLIC m 1a89c 0 __unw_init_local
PUBLIC m 1a944 0 __unw_get_reg
PUBLIC 1a9c0 0 __unw_step_stage2
PUBLIC m 1a9d4 0 __unw_get_proc_info
PUBLIC m 1aa14 0 __unw_resume
PUBLIC 1aa3c 0 libunwind::CFI_Parser<libunwind::LocalAddressSpace>::decodeFDE(libunwind::LocalAddressSpace&, unsigned long, libunwind::CFI_Parser<libunwind::LocalAddressSpace>::FDE_Info*, libunwind::CFI_Parser<libunwind::LocalAddressSpace>::CIE_Info*, bool)
PUBLIC 1abcc 0 libunwind::CFI_Parser<libunwind::LocalAddressSpace>::parseCIE(libunwind::LocalAddressSpace&, unsigned long, libunwind::CFI_Parser<libunwind::LocalAddressSpace>::CIE_Info*)
PUBLIC 1ae94 0 libunwind::AbstractUnwindCursor::~AbstractUnwindCursor()
PUBLIC 1ae9c 0 libunwind::UnwindCursor<libunwind::LocalAddressSpace, libunwind::Registers_arm64>::~UnwindCursor()
PUBLIC 1aea4 0 libunwind::UnwindCursor<libunwind::LocalAddressSpace, libunwind::Registers_arm64>::validReg(int)
PUBLIC 1aee8 0 libunwind::UnwindCursor<libunwind::LocalAddressSpace, libunwind::Registers_arm64>::getReg(int)
PUBLIC 1afd0 0 libunwind::UnwindCursor<libunwind::LocalAddressSpace, libunwind::Registers_arm64>::setReg(int, unsigned long)
PUBLIC 1b0b8 0 libunwind::UnwindCursor<libunwind::LocalAddressSpace, libunwind::Registers_arm64>::validFloatReg(int)
PUBLIC 1b0cc 0 libunwind::UnwindCursor<libunwind::LocalAddressSpace, libunwind::Registers_arm64>::getFloatReg(int)
PUBLIC 1b0dc 0 libunwind::UnwindCursor<libunwind::LocalAddressSpace, libunwind::Registers_arm64>::setFloatReg(int, double)
PUBLIC 1b0ec 0 libunwind::UnwindCursor<libunwind::LocalAddressSpace, libunwind::Registers_arm64>::step(bool)
PUBLIC 1b1dc 0 libunwind::UnwindCursor<libunwind::LocalAddressSpace, libunwind::Registers_arm64>::getInfo(unw_proc_info_t*)
PUBLIC 1b220 0 libunwind::UnwindCursor<libunwind::LocalAddressSpace, libunwind::Registers_arm64>::jumpto()
PUBLIC 1b22c 0 libunwind::UnwindCursor<libunwind::LocalAddressSpace, libunwind::Registers_arm64>::isSignalFrame()
PUBLIC 1b238 0 libunwind::UnwindCursor<libunwind::LocalAddressSpace, libunwind::Registers_arm64>::getFunctionName(char*, unsigned long, unsigned long*)
PUBLIC 1b264 0 libunwind::UnwindCursor<libunwind::LocalAddressSpace, libunwind::Registers_arm64>::setInfoBasedOnIPRegister(bool)
PUBLIC 1b4e4 0 libunwind::UnwindCursor<libunwind::LocalAddressSpace, libunwind::Registers_arm64>::getRegisterName(int)
PUBLIC 1b4f0 0 libunwind::UnwindCursor<libunwind::LocalAddressSpace, libunwind::Registers_arm64>::stepThroughSigReturn(libunwind::Registers_arm64&)
PUBLIC 1b610 0 libunwind::DwarfInstructions<libunwind::LocalAddressSpace, libunwind::Registers_arm64>::stepWithDwarf(libunwind::LocalAddressSpace&, unsigned long, unsigned long, libunwind::Registers_arm64&, bool&, bool)
PUBLIC 1ba98 0 libunwind::CFI_Parser<libunwind::LocalAddressSpace>::parseFDEInstructions(libunwind::LocalAddressSpace&, libunwind::CFI_Parser<libunwind::LocalAddressSpace>::FDE_Info const&, libunwind::CFI_Parser<libunwind::LocalAddressSpace>::CIE_Info const&, unsigned long, int, libunwind::CFI_Parser<libunwind::LocalAddressSpace>::PrologInfo*)
PUBLIC 1c6e0 0 libunwind::DwarfInstructions<libunwind::LocalAddressSpace, libunwind::Registers_arm64>::getCFA(libunwind::LocalAddressSpace&, libunwind::CFI_Parser<libunwind::LocalAddressSpace>::PrologInfo const&, libunwind::Registers_arm64 const&)
PUBLIC 1c814 0 libunwind::DwarfInstructions<libunwind::LocalAddressSpace, libunwind::Registers_arm64>::getSavedRegister(libunwind::LocalAddressSpace&, libunwind::Registers_arm64 const&, unsigned long, libunwind::CFI_Parser<libunwind::LocalAddressSpace>::RegisterLocation const&)
PUBLIC 1ca24 0 libunwind::LocalAddressSpace::getEncodedP(unsigned long&, unsigned long, unsigned char, unsigned long)
PUBLIC 1cdb0 0 libunwind::LocalAddressSpace::getULEB128(unsigned long&, unsigned long)
PUBLIC 1cf78 0 libunwind::DwarfInstructions<libunwind::LocalAddressSpace, libunwind::Registers_arm64>::evaluateExpression(unsigned long, libunwind::LocalAddressSpace&, libunwind::Registers_arm64 const&, unsigned long)
PUBLIC 1d934 0 libunwind::UnwindCursor<libunwind::LocalAddressSpace, libunwind::Registers_arm64>::getInfoFromDwarfSection(unsigned long, libunwind::UnwindInfoSections const&, unsigned int)
PUBLIC 1dc08 0 libunwind::findUnwindSectionsByPhdr(dl_phdr_info*, unsigned long, void*)
PUBLIC 1dd3c 0 libunwind::EHHeaderParser<libunwind::LocalAddressSpace>::decodeEHHdr(libunwind::LocalAddressSpace&, unsigned long, unsigned long, libunwind::EHHeaderParser<libunwind::LocalAddressSpace>::EHHeaderInfo&)
PUBLIC 1de5c 0 libunwind::CFI_Parser<libunwind::LocalAddressSpace>::findFDE(libunwind::LocalAddressSpace&, unsigned long, unsigned long, unsigned long, unsigned long, libunwind::CFI_Parser<libunwind::LocalAddressSpace>::FDE_Info*, libunwind::CFI_Parser<libunwind::LocalAddressSpace>::CIE_Info*)
PUBLIC 1e024 0 libunwind::EHHeaderParser<libunwind::LocalAddressSpace>::findFDE(libunwind::LocalAddressSpace&, unsigned long, unsigned long, unsigned int, libunwind::CFI_Parser<libunwind::LocalAddressSpace>::FDE_Info*, libunwind::CFI_Parser<libunwind::LocalAddressSpace>::CIE_Info*)
PUBLIC 1e18c 0 libunwind::EHHeaderParser<libunwind::LocalAddressSpace>::getTableEntrySize(unsigned char)
PUBLIC 1e288 0 libunwind::Registers_arm64::getRegisterName(int)
PUBLIC 1e2b8 0 __libunwind_Registers_arm64_jumpto
PUBLIC m 1e348 0 __unw_getcontext
PUBLIC 1e3f0 0 __aarch64_ldadd8_relax
PUBLIC 1e420 0 init_have_lse_atomics
PUBLIC 1e4b8 0 __init_cpu_features_constructor
PUBLIC 1ea54 0 __init_cpu_features
PUBLIC 1eae0 0 __aarch64_ldadd8_acq_rel
PUBLIC 1eb10 0 __cxx_global_var_init
PUBLIC 1f6e4 0 geode::modifier::ModifyBase<geode::modifier::ModifyDerive<EditorUIHook, EditorUI> >::~ModifyBase()
PUBLIC 1f6fc 0 geode::modifier::ModifyDerive<EditorUIHook, EditorUI>::apply()
PUBLIC 200e4 0 std::__ndk1::shared_ptr<geode::Hook>::~shared_ptr[abi:ne180000]()
PUBLIC 20134 0 geode::impl::ResultData<geode::Hook*, std::__ndk1::basic_string<char, std::__ndk1::char_traits<char>, std::__ndk1::allocator<char> > >::~ResultData()
PUBLIC 201a8 0 std::__ndk1::vector<std::__ndk1::basic_string<char, std::__ndk1::char_traits<char>, std::__ndk1::allocator<char> >, std::__ndk1::allocator<std::__ndk1::basic_string<char, std::__ndk1::char_traits<char>, std::__ndk1::allocator<char> > > >::~vector[abi:ne180000]()
PUBLIC 20224 0 geode::modifier::ModifyBase<geode::modifier::ModifyDerive<EditorUIHook, EditorUI> >::apply()
PUBLIC 20228 0 __clang_call_terminate
PUBLIC 20238 0 _ZN5geode15UnwrapExceptionC2IRPNS_4HookEQsr4implE18IsStringStreamableIT_EEENS_4impl5OkTagEOS5_
PUBLIC 2038c 0 std::__ndk1::__throw_bad_variant_access[abi:ne180000]()
PUBLIC 203c0 0 std::__ndk1::basic_stringstream<char, std::__ndk1::char_traits<char>, std::__ndk1::allocator<char> >::basic_stringstream[abi:ne180000]()
PUBLIC m 204ec 0 std::__ndk1::basic_stringstream<char, std::__ndk1::char_traits<char>, std::__ndk1::allocator<char> >::~basic_stringstream()
PUBLIC 2056c 0 geode::UnwrapException::~UnwrapException()
PUBLIC 20590 0 std::__ndk1::__put_character_sequence[abi:ne180000]<char, std::__ndk1::char_traits<char> >(std::__ndk1::basic_ostream<char, std::__ndk1::char_traits<char> >, std::__ndk1::basic_ostream const*, unsigned long)
PUBLIC 20734 0 std::__ndk1::__pad_and_output[abi:ne180000]<char, std::__ndk1::char_traits<char> >(std::__ndk1::char_traits<char>, std::__ndk1::ostreambuf_iterator const*, std::__ndk1::ostreambuf_iterator const, std::__ndk1::ostreambuf_iterator const, std::__ndk1::ios_base&, std::__ndk1::ostreambuf_iterator)
PUBLIC 20910 0 std::__ndk1::basic_string<char, std::__ndk1::char_traits<char>, std::__ndk1::allocator<char> >::__throw_length_error[abi:ne180000]() const
PUBLIC 20924 0 std::__ndk1::__throw_length_error[abi:ne180000](char const*)
PUBLIC 20974 0 std::length_error::length_error[abi:ne180000](char const*)
PUBLIC 209a4 0 std::__throw_bad_array_new_length([abi:ne180000], void)
PUBLIC 209d8 0 std::__ndk1::basic_stringbuf<char, std::__ndk1::char_traits<char>, std::__ndk1::allocator<char> >::str[abi:ne180000]() &&
PUBLIC 20b50 0 std::__ndk1::basic_stringbuf<char, std::__ndk1::char_traits<char>, std::__ndk1::allocator<char> >::__init_buf_ptrs[abi:ne180000]()
PUBLIC 20c98 0 std::__ndk1::basic_string<char, std::__ndk1::char_traits<char>, std::__ndk1::allocator<char> >::__init_copy_ctor_external(char const*, unsigned long)
PUBLIC 20d18 0 std::__ndk1::__split_buffer<std::__ndk1::basic_string<char, std::__ndk1::char_traits<char>, std::__ndk1::allocator<char> >, std::__ndk1::allocator<std::__ndk1::basic_string<char, std::__ndk1::char_traits<char>, std::__ndk1::allocator<char> > >&>::~__split_buffer()
PUBLIC 20d80 0 std::__ndk1::vector<std::__ndk1::basic_string<char, std::__ndk1::char_traits<char>, std::__ndk1::allocator<char> >, std::__ndk1::allocator<std::__ndk1::basic_string<char, std::__ndk1::char_traits<char>, std::__ndk1::allocator<char> > > >::__throw_length_error[abi:ne180000]() const
PUBLIC 20d94 0 std::__ndk1::__variant_detail::__visitation::__base::__dispatcher<(unsigned long)0>::__dispatch[abi:ne180000]<std::__ndk1::__variant_detail::__dtor<std::__ndk1::__variant_detail::__traits<geode::Hook*, std::__ndk1::basic_string<char, std::__ndk1::char_traits<char>, std::__ndk1::allocator<char> > >, (std::__ndk1::__variant_detail::_Trait)1>::__destroy[abi:ne180000]()::{lambda(auto:1&)#1}, std::__ndk1::__variant_detail::__base<(std::__ndk1::__variant_detail::__traits<geode::Hook*, std::__ndk1::basic_string<char, std::__ndk1::char_traits<char>, std::__ndk1::allocator<char> > >)1, geode::Hook, std::__ndk1::allocator<char> >&>(std::__ndk1::__variant_detail::__dtor<std::__ndk1::__variant_detail::__traits<geode::Hook*, std::__ndk1::basic_string<char, std::__ndk1::char_traits<char>, std::__ndk1::allocator<char> > >, (std::__ndk1::__variant_detail::_Trait)1>, std::__ndk1::__variant_detail::__base<(std::__ndk1::__variant_detail::__traits<geode::Hook*, std::__ndk1::basic_string<char, std::__ndk1::char_traits<char>, std::__ndk1::allocator<char> > >)1, geode::Hook, std::__ndk1::allocator<char> >&)
PUBLIC 20d98 0 std::__ndk1::__variant_detail::__visitation::__base::__dispatcher<(unsigned long)1>::__dispatch[abi:ne180000]<std::__ndk1::__variant_detail::__dtor<std::__ndk1::__variant_detail::__traits<geode::Hook*, std::__ndk1::basic_string<char, std::__ndk1::char_traits<char>, std::__ndk1::allocator<char> > >, (std::__ndk1::__variant_detail::_Trait)1>::__destroy[abi:ne180000]()::{lambda(auto:1&)#1}, std::__ndk1::__variant_detail::__base<(std::__ndk1::__variant_detail::__traits<geode::Hook*, std::__ndk1::basic_string<char, std::__ndk1::char_traits<char>, std::__ndk1::allocator<char> > >)1, geode::Hook, std::__ndk1::allocator<char> >&>(std::__ndk1::__variant_detail::__dtor<std::__ndk1::__variant_detail::__traits<geode::Hook*, std::__ndk1::basic_string<char, std::__ndk1::char_traits<char>, std::__ndk1::allocator<char> > >, (std::__ndk1::__variant_detail::_Trait)1>, std::__ndk1::__variant_detail::__base<(std::__ndk1::__variant_detail::__traits<geode::Hook*, std::__ndk1::basic_string<char, std::__ndk1::char_traits<char>, std::__ndk1::allocator<char> > >)1, geode::Hook, std::__ndk1::allocator<char> >&)
PUBLIC 20dac 0 std::__ndk1::__tree<std::__ndk1::__value_type<std::__ndk1::basic_string<char, std::__ndk1::char_traits<char>, std::__ndk1::allocator<char> >, std::__ndk1::shared_ptr<geode::Hook> >, std::__ndk1::__map_value_compare<std::__ndk1::basic_string<char, std::__ndk1::char_traits<char>, std::__ndk1::allocator<char> >, std::__ndk1::__value_type<std::__ndk1::basic_string<char, std::__ndk1::char_traits<char>, std::__ndk1::allocator<char> >, std::__ndk1::shared_ptr<geode::Hook> >, std::__ndk1::less<std::__ndk1::basic_string<char, std::__ndk1::char_traits<char>, std::__ndk1::allocator<char> > >, true>, std::__ndk1::allocator<std::__ndk1::__value_type<std::__ndk1::basic_string<char, std::__ndk1::char_traits<char>, std::__ndk1::allocator<char> >, std::__ndk1::shared_ptr<geode::Hook> > > >::destroy(std::__ndk1::__tree_node<std::__ndk1::__value_type<std::__ndk1::basic_string<char, std::__ndk1::char_traits<char>, std::__ndk1::allocator<char> >, std::__ndk1::shared_ptr<geode::Hook> >, void*>*)
PUBLIC 20e30 0 geode::modifier::AsStaticFunction_ccTouchBegan<EditorUIHook, bool (EditorUIHook::*)(cocos2d::CCTouch*, cocos2d::CCEvent*)>::Impl<bool (EditorUIHook::*)(cocos2d::CCTouch*, cocos2d::CCEvent*)>::function(EditorUIHook*, cocos2d::CCTouch*, cocos2d::CCEvent*)
PUBLIC 20f98 0 geode::Hook::create<void (*)(EditorUIHook*, cocos2d::CCTouch*, cocos2d::CCEvent*)>(void*, void (*)(EditorUIHook*, cocos2d::CCTouch*, cocos2d::CCEvent*), std::__ndk1::basic_string<char, std::__ndk1::char_traits<char>, std::__ndk1::allocator<char> > const&, tulip::hook::TulipConvention, tulip::hook::HookMetadata const&)
PUBLIC 2115c 0 geode::modifier::AsStaticFunction_ccTouchMoved<EditorUIHook, void (EditorUIHook::*)(cocos2d::CCTouch*, cocos2d::CCEvent*)>::Impl<void (EditorUIHook::*)(cocos2d::CCTouch*, cocos2d::CCEvent*)>::function(EditorUIHook*, cocos2d::CCTouch*, cocos2d::CCEvent*)
PUBLIC 212c0 0 geode::modifier::AsStaticFunction_ccTouchEnded<EditorUIHook, void (EditorUIHook::*)(cocos2d::CCTouch*, cocos2d::CCEvent*)>::Impl<void (EditorUIHook::*)(cocos2d::CCTouch*, cocos2d::CCEvent*)>::function(EditorUIHook*, cocos2d::CCTouch*, cocos2d::CCEvent*)
PUBLIC 21424 0 geode::modifier::AsStaticFunction_init<EditorUIHook, bool (EditorUIHook::*)(LevelEditorLayer*)>::Impl<bool (EditorUIHook::*)(LevelEditorLayer*)>::function(EditorUIHook*, LevelEditorLayer*)
PUBLIC 21880 0 geode::addresser::Addresser::addressOfVirtual<bool, EditorUI, cocos2d::CCTouch*, cocos2d::CCEvent*>(bool (EditorUI::*)(cocos2d::CCTouch*, cocos2d::CCEvent*))
PUBLIC 21928 0 EditorUI::EditorUI(geode::ZeroConstructorType)
PUBLIC 219ec 0 std::__ndk1::shared_ptr<tulip::hook::CallingConvention>::~shared_ptr[abi:ne180000]()
PUBLIC 21a3c 0 tulip::hook::HandlerMetadata::~HandlerMetadata()
PUBLIC 21aa0 0 geode::modifier::FieldIntermediate<EditorUIHook, EditorUI>::self()
PUBLIC 220e0 0 geode::modifier::FieldIntermediate<EditorUIHook, EditorUI>::fieldDestructor(void*)
PUBLIC 22100 0 std::__ndk1::vector<void*, std::__ndk1::allocator<void*> >::__throw_length_error[abi:ne180000]() const
PUBLIC 22114 0 std::__ndk1::vector<std::__ndk1::function<void (void*)>, std::__ndk1::allocator<std::__ndk1::function<void (void*)> > >::__throw_length_error[abi:ne180000]() const
PUBLIC 22128 0 std::__ndk1::vector<void*, std::__ndk1::allocator<void*> >::__throw_out_of_range[abi:ne180000]() const
PUBLIC 22134 0 std::__ndk1::__throw_out_of_range[abi:ne180000](char const*)
PUBLIC 22184 0 std::out_of_range::out_of_range[abi:ne180000](char const*)
PUBLIC 221b4 0 std::__ndk1::vector<std::__ndk1::function<void (void*)>, std::__ndk1::allocator<std::__ndk1::function<void (void*)> > >::__throw_out_of_range[abi:ne180000]() const
PUBLIC 221c0 0 std::__ndk1::__function::__base<void (void*)>::~__base()
PUBLIC 221c4 0 std::__ndk1::__function::__func<void (*)(void*), std::__ndk1::allocator<void (*)(void*)>, void (void*)>::~__func()
PUBLIC 221c8 0 std::__ndk1::__function::__func<void (*)(void*), std::__ndk1::allocator<void (*)(void*)>, void (void*)>::__clone() const
PUBLIC 22200 0 std::__ndk1::__function::__func<void (*)(void*), std::__ndk1::allocator<void (*)(void*)>, void (void*)>::__clone(std::__ndk1::__function::__base<void (void*)>*) const
PUBLIC 22218 0 std::__ndk1::__function::__func<void (*)(void*), std::__ndk1::allocator<void (*)(void*)>, void (void*)>::destroy()
PUBLIC 2221c 0 std::__ndk1::__function::__func<void (*)(void*), std::__ndk1::allocator<void (*)(void*)>, void (void*)>::destroy_deallocate()
PUBLIC 22220 0 std::__ndk1::__function::__func<void (*)(void*), std::__ndk1::allocator<void (*)(void*)>, void (void*)>::operator()(void*&&)
PUBLIC 22230 0 std::__ndk1::__function::__func<void (*)(void*), std::__ndk1::allocator<void (*)(void*)>, void (void*)>::target(std::type_info const&) const
PUBLIC 2224c 0 std::__ndk1::__function::__func<void (*)(void*), std::__ndk1::allocator<void (*)(void*)>, void (void*)>::target_type() const
PUBLIC 22258 0 std::__ndk1::__tree<std::__ndk1::__value_type<std::__ndk1::basic_string<char, std::__ndk1::char_traits<char>, std::__ndk1::allocator<char> >, std::__ndk1::shared_ptr<geode::Hook> >, std::__ndk1::__map_value_compare<std::__ndk1::basic_string<char, std::__ndk1::char_traits<char>, std::__ndk1::allocator<char> >, std::__ndk1::__value_type<std::__ndk1::basic_string<char, std::__ndk1::char_traits<char>, std::__ndk1::allocator<char> >, std::__ndk1::shared_ptr<geode::Hook> >, std::__ndk1::less<std::__ndk1::basic_string<char, std::__ndk1::char_traits<char>, std::__ndk1::allocator<char> > >, true>, std::__ndk1::allocator<std::__ndk1::__value_type<std::__ndk1::basic_string<char, std::__ndk1::char_traits<char>, std::__ndk1::allocator<char> >, std::__ndk1::shared_ptr<geode::Hook> > > >::__emplace_unique_key_args<std::__ndk1::basic_string<char, std::__ndk1::char_traits<char>, std::__ndk1::allocator<char> >, std::__ndk1::piecewise_construct_t const&, std::__ndk1::tuple<std::__ndk1::basic_string<char, std::__ndk1::char_traits<char>, std::__ndk1::allocator<char> >&&>, std::__ndk1::tuple<> >(std::__ndk1::basic_string<char, std::__ndk1::char_traits<char>, std::__ndk1::allocator<char> > const&, std::__ndk1::piecewise_construct_t const&, std::__ndk1::tuple<std::__ndk1::basic_string<char, std::__ndk1::char_traits<char>, std::__ndk1::allocator<char> >&&>, std::__ndk1::tuple<>)
PUBLIC 223c0 0 std::__ndk1::__tree_balance_after_insert[abi:ne180000]<std::__ndk1::__tree_node_base<void*>*>(std::__ndk1::__tree_node_base<void*>*, std::__ndk1::__tree_node_base<void*>*)
PUBLIC 22570 0 geode::addresser::Addresser::addressOfVirtual<void, EditorUI, cocos2d::CCTouch*, cocos2d::CCEvent*>(void (EditorUI::*)(cocos2d::CCTouch*, cocos2d::CCEvent*))
PUBLIC 2263c 0 geode::Mod::getSavedValue<bool>(std::__ndk1::basic_string_view<char, std::__ndk1::char_traits<char> >, bool const&)
PUBLIC 22828 0 geode::impl::ResultData<matjson::Value&, std::__ndk1::basic_string<char, std::__ndk1::char_traits<char>, std::__ndk1::allocator<char> > >::~ResultData()
PUBLIC 2289c 0 std::__ndk1::__variant_detail::__visitation::__base::__dispatcher<(unsigned long)0>::__dispatch[abi:ne180000]<std::__ndk1::__variant_detail::__dtor<std::__ndk1::__variant_detail::__traits<std::__ndk1::reference_wrapper<matjson::Value>, std::__ndk1::basic_string<char, std::__ndk1::char_traits<char>, std::__ndk1::allocator<char> > >, (std::__ndk1::__variant_detail::_Trait)1>::__destroy[abi:ne180000]()::{lambda(auto:1&)#1}, std::__ndk1::__variant_detail::__base<(std::__ndk1::__variant_detail::__traits<std::__ndk1::reference_wrapper<matjson::Value>, std::__ndk1::basic_string<char, std::__ndk1::char_traits<char>, std::__ndk1::allocator<char> > >)1, matjson::Value, std::__ndk1::allocator<char> >&>(std::__ndk1::__variant_detail::__dtor<std::__ndk1::__variant_detail::__traits<std::__ndk1::reference_wrapper<matjson::Value>, std::__ndk1::basic_string<char, std::__ndk1::char_traits<char>, std::__ndk1::allocator<char> > >, (std::__ndk1::__variant_detail::_Trait)1>, std::__ndk1::__variant_detail::__base<(std::__ndk1::__variant_detail::__traits<std::__ndk1::reference_wrapper<matjson::Value>, std::__ndk1::basic_string<char, std::__ndk1::char_traits<char>, std::__ndk1::allocator<char> > >)1, matjson::Value, std::__ndk1::allocator<char> >&)
PUBLIC 228a0 0 std::__ndk1::__variant_detail::__visitation::__base::__dispatcher<(unsigned long)1>::__dispatch[abi:ne180000]<std::__ndk1::__variant_detail::__dtor<std::__ndk1::__variant_detail::__traits<std::__ndk1::reference_wrapper<matjson::Value>, std::__ndk1::basic_string<char, std::__ndk1::char_traits<char>, std::__ndk1::allocator<char> > >, (std::__ndk1::__variant_detail::_Trait)1>::__destroy[abi:ne180000]()::{lambda(auto:1&)#1}, std::__ndk1::__variant_detail::__base<(std::__ndk1::__variant_detail::__traits<std::__ndk1::reference_wrapper<matjson::Value>, std::__ndk1::basic_string<char, std::__ndk1::char_traits<char>, std::__ndk1::allocator<char> > >)1, matjson::Value, std::__ndk1::allocator<char> >&>(std::__ndk1::__variant_detail::__dtor<std::__ndk1::__variant_detail::__traits<std::__ndk1::reference_wrapper<matjson::Value>, std::__ndk1::basic_string<char, std::__ndk1::char_traits<char>, std::__ndk1::allocator<char> > >, (std::__ndk1::__variant_detail::_Trait)1>, std::__ndk1::__variant_detail::__base<(std::__ndk1::__variant_detail::__traits<std::__ndk1::reference_wrapper<matjson::Value>, std::__ndk1::basic_string<char, std::__ndk1::char_traits<char>, std::__ndk1::allocator<char> > >)1, matjson::Value, std::__ndk1::allocator<char> >&)
PUBLIC 228b4 0 std::__ndk1::__variant_detail::__visitation::__base::__dispatcher<(unsigned long)0>::__dispatch[abi:ne180000]<std::__ndk1::__variant_detail::__dtor<std::__ndk1::__variant_detail::__traits<bool, std::__ndk1::basic_string<char, std::__ndk1::char_traits<char>, std::__ndk1::allocator<char> > >, (std::__ndk1::__variant_detail::_Trait)1>::__destroy[abi:ne180000]()::{lambda(auto:1&)#1}, std::__ndk1::__variant_detail::__base<(std::__ndk1::__variant_detail::__traits<bool, std::__ndk1::basic_string<char, std::__ndk1::char_traits<char>, std::__ndk1::allocator<char> > >)1, bool, std::__ndk1::allocator<char> >&>(std::__ndk1::__variant_detail::__dtor<std::__ndk1::__variant_detail::__traits<bool, std::__ndk1::basic_string<char, std::__ndk1::char_traits<char>, std::__ndk1::allocator<char> > >, (std::__ndk1::__variant_detail::_Trait)1>, std::__ndk1::__variant_detail::__base<(std::__ndk1::__variant_detail::__traits<bool, std::__ndk1::basic_string<char, std::__ndk1::char_traits<char>, std::__ndk1::allocator<char> > >)1, bool, std::__ndk1::allocator<char> >&)
PUBLIC 228b8 0 std::__ndk1::__variant_detail::__visitation::__base::__dispatcher<(unsigned long)1>::__dispatch[abi:ne180000]<std::__ndk1::__variant_detail::__dtor<std::__ndk1::__variant_detail::__traits<bool, std::__ndk1::basic_string<char, std::__ndk1::char_traits<char>, std::__ndk1::allocator<char> > >, (std::__ndk1::__variant_detail::_Trait)1>::__destroy[abi:ne180000]()::{lambda(auto:1&)#1}, std::__ndk1::__variant_detail::__base<(std::__ndk1::__variant_detail::__traits<bool, std::__ndk1::basic_string<char, std::__ndk1::char_traits<char>, std::__ndk1::allocator<char> > >)1, bool, std::__ndk1::allocator<char> >&>(std::__ndk1::__variant_detail::__dtor<std::__ndk1::__variant_detail::__traits<bool, std::__ndk1::basic_string<char, std::__ndk1::char_traits<char>, std::__ndk1::allocator<char> > >, (std::__ndk1::__variant_detail::_Trait)1>, std::__ndk1::__variant_detail::__base<(std::__ndk1::__variant_detail::__traits<bool, std::__ndk1::basic_string<char, std::__ndk1::char_traits<char>, std::__ndk1::allocator<char> > >)1, bool, std::__ndk1::allocator<char> >&)
PUBLIC 228cc 0 geode::Mod::getSavedValue<bool>(std::__ndk1::basic_string_view<char, std::__ndk1::char_traits<char> >)
PUBLIC 22a5c 0 std::__ndk1::__function::__base<cocos2d::CCNode* (EditorUI*, CCMenuItemToggler*)>::~__base()
PUBLIC 22a60 0 std::__ndk1::__function::__func<EditorUIHook::init(LevelEditorLayer*)::{lambda(EditorUI*, CCMenuItemToggler*)#1}, std::__ndk1::allocator<EditorUIHook::init(LevelEditorLayer*)::{lambda(EditorUI*, CCMenuItemToggler*)#1}>, cocos2d::CCNode* (EditorUI*, CCMenuItemToggler*)>::~__func()
PUBLIC 22a64 0 std::__ndk1::__function::__func<EditorUIHook::init(LevelEditorLayer*)::{lambda(EditorUI*, CCMenuItemToggler*)#1}, std::__ndk1::allocator<EditorUIHook::init(LevelEditorLayer*)::{lambda(EditorUI*, CCMenuItemToggler*)#1}>, cocos2d::CCNode* (EditorUI*, CCMenuItemToggler*)>::__clone() const
PUBLIC 22a98 0 std::__ndk1::__function::__func<EditorUIHook::init(LevelEditorLayer*)::{lambda(EditorUI*, CCMenuItemToggler*)#1}, std::__ndk1::allocator<EditorUIHook::init(LevelEditorLayer*)::{lambda(EditorUI*, CCMenuItemToggler*)#1}>, cocos2d::CCNode* (EditorUI*, CCMenuItemToggler*)>::__clone(std::__ndk1::__function::__base<cocos2d::CCNode* (EditorUI*, CCMenuItemToggler*)>*) const
PUBLIC 22aac 0 std::__ndk1::__function::__func<EditorUIHook::init(LevelEditorLayer*)::{lambda(EditorUI*, CCMenuItemToggler*)#1}, std::__ndk1::allocator<EditorUIHook::init(LevelEditorLayer*)::{lambda(EditorUI*, CCMenuItemToggler*)#1}>, cocos2d::CCNode* (EditorUI*, CCMenuItemToggler*)>::destroy()
PUBLIC 22ab0 0 std::__ndk1::__function::__func<EditorUIHook::init(LevelEditorLayer*)::{lambda(EditorUI*, CCMenuItemToggler*)#1}, std::__ndk1::allocator<EditorUIHook::init(LevelEditorLayer*)::{lambda(EditorUI*, CCMenuItemToggler*)#1}>, cocos2d::CCNode* (EditorUI*, CCMenuItemToggler*)>::destroy_deallocate()
PUBLIC 22ab4 0 std::__ndk1::__function::__func<EditorUIHook::init(LevelEditorLayer*)::{lambda(EditorUI*, CCMenuItemToggler*)#1}, std::__ndk1::allocator<EditorUIHook::init(LevelEditorLayer*)::{lambda(EditorUI*, CCMenuItemToggler*)#1}>, cocos2d::CCNode* (EditorUI*, CCMenuItemToggler*)>::operator()(EditorUI*&&, CCMenuItemToggler*&&)
PUBLIC 22c10 0 std::__ndk1::__function::__func<EditorUIHook::init(LevelEditorLayer*)::{lambda(EditorUI*, CCMenuItemToggler*)#1}, std::__ndk1::allocator<EditorUIHook::init(LevelEditorLayer*)::{lambda(EditorUI*, CCMenuItemToggler*)#1}>, cocos2d::CCNode* (EditorUI*, CCMenuItemToggler*)>::target(std::type_info const&) const
PUBLIC 22c2c 0 std::__ndk1::__function::__func<EditorUIHook::init(LevelEditorLayer*)::{lambda(EditorUI*, CCMenuItemToggler*)#1}, std::__ndk1::allocator<EditorUIHook::init(LevelEditorLayer*)::{lambda(EditorUI*, CCMenuItemToggler*)#1}>, cocos2d::CCNode* (EditorUI*, CCMenuItemToggler*)>::target_type() const
PUBLIC 22c38 0 geode::cast::traverseTypeinfoFor(void*, geode::cast::ClassTypeinfoType const*, char const*)
PUBLIC 22d3c 0 std::__ndk1::__function::__base<void (EditorUI*, bool, cocos2d::CCNode*)>::~__base()
PUBLIC 22d40 0 std::__ndk1::__function::__func<EditorUIHook::init(LevelEditorLayer*)::{lambda(EditorUI*, bool, cocos2d::CCNode*)#1}, std::__ndk1::allocator<EditorUIHook::init(LevelEditorLayer*)::{lambda(EditorUI*, bool, cocos2d::CCNode*)#1}>, void (EditorUI*, bool, cocos2d::CCNode*)>::~__func()
PUBLIC 22d44 0 std::__ndk1::__function::__func<EditorUIHook::init(LevelEditorLayer*)::{lambda(EditorUI*, bool, cocos2d::CCNode*)#1}, std::__ndk1::allocator<EditorUIHook::init(LevelEditorLayer*)::{lambda(EditorUI*, bool, cocos2d::CCNode*)#1}>, void (EditorUI*, bool, cocos2d::CCNode*)>::__clone() const
PUBLIC 22d78 0 std::__ndk1::__function::__func<EditorUIHook::init(LevelEditorLayer*)::{lambda(EditorUI*, bool, cocos2d::CCNode*)#1}, std::__ndk1::allocator<EditorUIHook::init(LevelEditorLayer*)::{lambda(EditorUI*, bool, cocos2d::CCNode*)#1}>, void (EditorUI*, bool, cocos2d::CCNode*)>::__clone(std::__ndk1::__function::__base<void (EditorUI*, bool, cocos2d::CCNode*)>*) const
PUBLIC 22d8c 0 std::__ndk1::__function::__func<EditorUIHook::init(LevelEditorLayer*)::{lambda(EditorUI*, bool, cocos2d::CCNode*)#1}, std::__ndk1::allocator<EditorUIHook::init(LevelEditorLayer*)::{lambda(EditorUI*, bool, cocos2d::CCNode*)#1}>, void (EditorUI*, bool, cocos2d::CCNode*)>::destroy()
PUBLIC 22d90 0 std::__ndk1::__function::__func<EditorUIHook::init(LevelEditorLayer*)::{lambda(EditorUI*, bool, cocos2d::CCNode*)#1}, std::__ndk1::allocator<EditorUIHook::init(LevelEditorLayer*)::{lambda(EditorUI*, bool, cocos2d::CCNode*)#1}>, void (EditorUI*, bool, cocos2d::CCNode*)>::destroy_deallocate()
PUBLIC 22d94 0 std::__ndk1::__function::__func<EditorUIHook::init(LevelEditorLayer*)::{lambda(EditorUI*, bool, cocos2d::CCNode*)#1}, std::__ndk1::allocator<EditorUIHook::init(LevelEditorLayer*)::{lambda(EditorUI*, bool, cocos2d::CCNode*)#1}>, void (EditorUI*, bool, cocos2d::CCNode*)>::operator()(EditorUI*&&, bool&&, cocos2d::CCNode*&&)
PUBLIC 22e2c 0 std::__ndk1::__function::__func<EditorUIHook::init(LevelEditorLayer*)::{lambda(EditorUI*, bool, cocos2d::CCNode*)#1}, std::__ndk1::allocator<EditorUIHook::init(LevelEditorLayer*)::{lambda(EditorUI*, bool, cocos2d::CCNode*)#1}>, void (EditorUI*, bool, cocos2d::CCNode*)>::target(std::type_info const&) const
PUBLIC 22e48 0 std::__ndk1::__function::__func<EditorUIHook::init(LevelEditorLayer*)::{lambda(EditorUI*, bool, cocos2d::CCNode*)#1}, std::__ndk1::allocator<EditorUIHook::init(LevelEditorLayer*)::{lambda(EditorUI*, bool, cocos2d::CCNode*)#1}>, void (EditorUI*, bool, cocos2d::CCNode*)>::target_type() const
PUBLIC 22e54 0 geode::Mod::getSettingValue<long>(std::__ndk1::basic_string_view<char, std::__ndk1::char_traits<char> >) const
PUBLIC 22f6c 0 geode::Mod::getSettingValue<double>(std::__ndk1::basic_string_view<char, std::__ndk1::char_traits<char> >) const
PUBLIC 2309c 0 allium::AlliumButtonBar::init(EditorUI*)
PUBLIC 23744 0 allium::AlliumButtonBar::addButton(std::__ndk1::basic_string_view<char, std::__ndk1::char_traits<char> >, std::__ndk1::basic_string_view<char, std::__ndk1::char_traits<char> >, std::__ndk1::basic_string_view<char, std::__ndk1::char_traits<char> >, std::__ndk1::function<void (CCMenuItemSpriteExtra*)> const&)
PUBLIC 23a48 0 cocos2d::CCSequence::create(cocos2d::CCFiniteTimeAction*, ...)
PUBLIC 23ae0 0 geode::cocos::CCMenuItemExt::createSpriteExtra(cocos2d::CCNode*, std::__ndk1::function<void (CCMenuItemSpriteExtra*)>)
PUBLIC 23c1c 0 allium::AlliumButtonBar::addToggle(std::__ndk1::basic_string_view<char, std::__ndk1::char_traits<char> >, std::__ndk1::basic_string_view<char, std::__ndk1::char_traits<char> >, std::__ndk1::basic_string_view<char, std::__ndk1::char_traits<char> >, std::__ndk1::basic_string_view<char, std::__ndk1::char_traits<char> >, std::__ndk1::function<void (CCMenuItemToggler*)> const&)
PUBLIC 242c0 0 cocos2d::CCCopying::copyWithZone(cocos2d::CCZone*)
PUBLIC 242c8 0 allium::AlliumButtonBar::~AlliumButtonBar()
PUBLIC 24304 0 allium::AlliumButtonBar::~AlliumButtonBar()
PUBLIC 24348 0 geode::cocos::CCMenuItemExt::assignCallback<CCMenuItemSpriteExtra>(cocos2d::CCMenuItem*, std::__ndk1::function<void (CCMenuItemSpriteExtra*)>)
PUBLIC 244dc 0 geode::cocos::CCMenuItemExt::LambdaCallback<CCMenuItemSpriteExtra>::create(std::__ndk1::function<void (CCMenuItemSpriteExtra*)>)
PUBLIC 246a4 0 geode::cocos::CCMenuItemExt::LambdaCallback<CCMenuItemSpriteExtra>::execute(cocos2d::CCNode*)
PUBLIC 24714 0 geode::cocos::CCMenuItemExt::LambdaCallback<CCMenuItemSpriteExtra>::~LambdaCallback()
PUBLIC 24770 0 geode::cocos::CCMenuItemExt::LambdaCallback<CCMenuItemSpriteExtra>::~LambdaCallback()
PUBLIC 247d4 0 cocos2d::CCObject::update(float)
PUBLIC 247d8 0 std::__ndk1::__throw_bad_function_call[abi:ne180000]()
PUBLIC 2480c 0 std::__ndk1::bad_function_call::~bad_function_call()
PUBLIC 24830 0 geode::cocos::CCMenuItemExt::LambdaCallback<CCMenuItemToggler>::execute(cocos2d::CCNode*)
PUBLIC 248a0 0 geode::cocos::CCMenuItemExt::LambdaCallback<CCMenuItemToggler>::~LambdaCallback()
PUBLIC 248fc 0 geode::cocos::CCMenuItemExt::LambdaCallback<CCMenuItemToggler>::~LambdaCallback()
PUBLIC 24960 0 std::__ndk1::__function::__func<allium::AlliumButtonBar::init(EditorUI*)::$_0, std::__ndk1::allocator<allium::AlliumButtonBar::init(EditorUI*)::$_0>, void (CCMenuItemSpriteExtra*)>::~__func()
PUBLIC 24964 0 std::__ndk1::__function::__func<allium::AlliumButtonBar::init(EditorUI*)::$_0, std::__ndk1::allocator<allium::AlliumButtonBar::init(EditorUI*)::$_0>, void (CCMenuItemSpriteExtra*)>::__clone() const
PUBLIC 24988 0 std::__ndk1::__function::__func<allium::AlliumButtonBar::init(EditorUI*)::$_0, std::__ndk1::allocator<allium::AlliumButtonBar::init(EditorUI*)::$_0>, void (CCMenuItemSpriteExtra*)>::__clone(std::__ndk1::__function::__base<void (CCMenuItemSpriteExtra*)>*) const
PUBLIC 24998 0 std::__ndk1::__function::__func<allium::AlliumButtonBar::init(EditorUI*)::$_0, std::__ndk1::allocator<allium::AlliumButtonBar::init(EditorUI*)::$_0>, void (CCMenuItemSpriteExtra*)>::destroy()
PUBLIC 2499c 0 std::__ndk1::__function::__func<allium::AlliumButtonBar::init(EditorUI*)::$_0, std::__ndk1::allocator<allium::AlliumButtonBar::init(EditorUI*)::$_0>, void (CCMenuItemSpriteExtra*)>::destroy_deallocate()
PUBLIC 249a0 0 std::__ndk1::__function::__func<allium::AlliumButtonBar::init(EditorUI*)::$_0, std::__ndk1::allocator<allium::AlliumButtonBar::init(EditorUI*)::$_0>, void (CCMenuItemSpriteExtra*)>::operator()(CCMenuItemSpriteExtra*&&)
PUBLIC 249bc 0 std::__ndk1::__function::__func<allium::AlliumButtonBar::init(EditorUI*)::$_0, std::__ndk1::allocator<allium::AlliumButtonBar::init(EditorUI*)::$_0>, void (CCMenuItemSpriteExtra*)>::target(std::type_info const&) const
PUBLIC 249d8 0 std::__ndk1::__function::__func<allium::AlliumButtonBar::init(EditorUI*)::$_0, std::__ndk1::allocator<allium::AlliumButtonBar::init(EditorUI*)::$_0>, void (CCMenuItemSpriteExtra*)>::target_type() const
PUBLIC 249e4 0 std::__ndk1::__function::__func<allium::AlliumButtonBar::init(EditorUI*)::$_1, std::__ndk1::allocator<allium::AlliumButtonBar::init(EditorUI*)::$_1>, void (CCMenuItemToggler*)>::~__func()
PUBLIC 249e8 0 std::__ndk1::__function::__func<allium::AlliumButtonBar::init(EditorUI*)::$_1, std::__ndk1::allocator<allium::AlliumButtonBar::init(EditorUI*)::$_1>, void (CCMenuItemToggler*)>::__clone() const
PUBLIC 24a0c 0 std::__ndk1::__function::__func<allium::AlliumButtonBar::init(EditorUI*)::$_1, std::__ndk1::allocator<allium::AlliumButtonBar::init(EditorUI*)::$_1>, void (CCMenuItemToggler*)>::__clone(std::__ndk1::__function::__base<void (CCMenuItemToggler*)>*) const
PUBLIC 24a1c 0 std::__ndk1::__function::__func<allium::AlliumButtonBar::init(EditorUI*)::$_1, std::__ndk1::allocator<allium::AlliumButtonBar::init(EditorUI*)::$_1>, void (CCMenuItemToggler*)>::destroy()
PUBLIC 24a20 0 std::__ndk1::__function::__func<allium::AlliumButtonBar::init(EditorUI*)::$_1, std::__ndk1::allocator<allium::AlliumButtonBar::init(EditorUI*)::$_1>, void (CCMenuItemToggler*)>::destroy_deallocate()
PUBLIC 24a24 0 std::__ndk1::__function::__func<allium::AlliumButtonBar::init(EditorUI*)::$_1, std::__ndk1::allocator<allium::AlliumButtonBar::init(EditorUI*)::$_1>, void (CCMenuItemToggler*)>::operator()(CCMenuItemToggler*&&)
PUBLIC 24ab0 0 std::__ndk1::__function::__func<allium::AlliumButtonBar::init(EditorUI*)::$_1, std::__ndk1::allocator<allium::AlliumButtonBar::init(EditorUI*)::$_1>, void (CCMenuItemToggler*)>::target(std::type_info const&) const
PUBLIC 24acc 0 std::__ndk1::__function::__func<allium::AlliumButtonBar::init(EditorUI*)::$_1, std::__ndk1::allocator<allium::AlliumButtonBar::init(EditorUI*)::$_1>, void (CCMenuItemToggler*)>::target_type() const
PUBLIC 24ad8 0 std::__ndk1::__function::__func<allium::AlliumButtonBar::init(EditorUI*)::$_2, std::__ndk1::allocator<allium::AlliumButtonBar::init(EditorUI*)::$_2>, void (CCMenuItemToggler*)>::~__func()
PUBLIC 24adc 0 std::__ndk1::__function::__func<allium::AlliumButtonBar::init(EditorUI*)::$_2, std::__ndk1::allocator<allium::AlliumButtonBar::init(EditorUI*)::$_2>, void (CCMenuItemToggler*)>::__clone() const
PUBLIC 24b10 0 std::__ndk1::__function::__func<allium::AlliumButtonBar::init(EditorUI*)::$_2, std::__ndk1::allocator<allium::AlliumButtonBar::init(EditorUI*)::$_2>, void (CCMenuItemToggler*)>::__clone(std::__ndk1::__function::__base<void (CCMenuItemToggler*)>*) const
PUBLIC 24b24 0 std::__ndk1::__function::__func<allium::AlliumButtonBar::init(EditorUI*)::$_2, std::__ndk1::allocator<allium::AlliumButtonBar::init(EditorUI*)::$_2>, void (CCMenuItemToggler*)>::destroy()
PUBLIC 24b28 0 std::__ndk1::__function::__func<allium::AlliumButtonBar::init(EditorUI*)::$_2, std::__ndk1::allocator<allium::AlliumButtonBar::init(EditorUI*)::$_2>, void (CCMenuItemToggler*)>::destroy_deallocate()
PUBLIC 24b2c 0 std::__ndk1::__function::__func<allium::AlliumButtonBar::init(EditorUI*)::$_2, std::__ndk1::allocator<allium::AlliumButtonBar::init(EditorUI*)::$_2>, void (CCMenuItemToggler*)>::operator()(CCMenuItemToggler*&&)
PUBLIC 24d44 0 std::__ndk1::__function::__func<allium::AlliumButtonBar::init(EditorUI*)::$_2, std::__ndk1::allocator<allium::AlliumButtonBar::init(EditorUI*)::$_2>, void (CCMenuItemToggler*)>::target(std::type_info const&) const
PUBLIC 24d60 0 std::__ndk1::__function::__func<allium::AlliumButtonBar::init(EditorUI*)::$_2, std::__ndk1::allocator<allium::AlliumButtonBar::init(EditorUI*)::$_2>, void (CCMenuItemToggler*)>::target_type() const
PUBLIC 24d6c 0 std::__ndk1::__function::__func<allium::AlliumButtonBar::init(EditorUI*)::$_3, std::__ndk1::allocator<allium::AlliumButtonBar::init(EditorUI*)::$_3>, void (CCMenuItemToggler*)>::~__func()
PUBLIC 24d70 0 std::__ndk1::__function::__func<allium::AlliumButtonBar::init(EditorUI*)::$_3, std::__ndk1::allocator<allium::AlliumButtonBar::init(EditorUI*)::$_3>, void (CCMenuItemToggler*)>::__clone() const
PUBLIC 24da4 0 std::__ndk1::__function::__func<allium::AlliumButtonBar::init(EditorUI*)::$_3, std::__ndk1::allocator<allium::AlliumButtonBar::init(EditorUI*)::$_3>, void (CCMenuItemToggler*)>::__clone(std::__ndk1::__function::__base<void (CCMenuItemToggler*)>*) const
PUBLIC 24db8 0 std::__ndk1::__function::__func<allium::AlliumButtonBar::init(EditorUI*)::$_3, std::__ndk1::allocator<allium::AlliumButtonBar::init(EditorUI*)::$_3>, void (CCMenuItemToggler*)>::destroy()
PUBLIC 24dbc 0 std::__ndk1::__function::__func<allium::AlliumButtonBar::init(EditorUI*)::$_3, std::__ndk1::allocator<allium::AlliumButtonBar::init(EditorUI*)::$_3>, void (CCMenuItemToggler*)>::destroy_deallocate()
PUBLIC 24dc0 0 std::__ndk1::__function::__func<allium::AlliumButtonBar::init(EditorUI*)::$_3, std::__ndk1::allocator<allium::AlliumButtonBar::init(EditorUI*)::$_3>, void (CCMenuItemToggler*)>::operator()(CCMenuItemToggler*&&)
PUBLIC 24fe4 0 std::__ndk1::__function::__func<allium::AlliumButtonBar::init(EditorUI*)::$_3, std::__ndk1::allocator<allium::AlliumButtonBar::init(EditorUI*)::$_3>, void (CCMenuItemToggler*)>::target(std::type_info const&) const
PUBLIC 25000 0 std::__ndk1::__function::__func<allium::AlliumButtonBar::init(EditorUI*)::$_3, std::__ndk1::allocator<allium::AlliumButtonBar::init(EditorUI*)::$_3>, void (CCMenuItemToggler*)>::target_type() const
PUBLIC 2500c 0 std::__ndk1::__function::__base<void (CCMenuItemToggler*)>::~__base()
PUBLIC 25010 0 std::__ndk1::__function::__func<allium::AlliumButtonBar::init(EditorUI*)::$_4, std::__ndk1::allocator<allium::AlliumButtonBar::init(EditorUI*)::$_4>, void (CCMenuItemToggler*)>::~__func()
PUBLIC 25014 0 std::__ndk1::__function::__func<allium::AlliumButtonBar::init(EditorUI*)::$_4, std::__ndk1::allocator<allium::AlliumButtonBar::init(EditorUI*)::$_4>, void (CCMenuItemToggler*)>::__clone() const
PUBLIC 25048 0 std::__ndk1::__function::__func<allium::AlliumButtonBar::init(EditorUI*)::$_4, std::__ndk1::allocator<allium::AlliumButtonBar::init(EditorUI*)::$_4>, void (CCMenuItemToggler*)>::__clone(std::__ndk1::__function::__base<void (CCMenuItemToggler*)>*) const
PUBLIC 2505c 0 std::__ndk1::__function::__func<allium::AlliumButtonBar::init(EditorUI*)::$_4, std::__ndk1::allocator<allium::AlliumButtonBar::init(EditorUI*)::$_4>, void (CCMenuItemToggler*)>::destroy()
PUBLIC 25060 0 std::__ndk1::__function::__func<allium::AlliumButtonBar::init(EditorUI*)::$_4, std::__ndk1::allocator<allium::AlliumButtonBar::init(EditorUI*)::$_4>, void (CCMenuItemToggler*)>::destroy_deallocate()
PUBLIC 25064 0 std::__ndk1::__function::__func<allium::AlliumButtonBar::init(EditorUI*)::$_4, std::__ndk1::allocator<allium::AlliumButtonBar::init(EditorUI*)::$_4>, void (CCMenuItemToggler*)>::operator()(CCMenuItemToggler*&&)
PUBLIC 25278 0 std::__ndk1::__function::__func<allium::AlliumButtonBar::init(EditorUI*)::$_4, std::__ndk1::allocator<allium::AlliumButtonBar::init(EditorUI*)::$_4>, void (CCMenuItemToggler*)>::target(std::type_info const&) const
PUBLIC 25294 0 std::__ndk1::__function::__func<allium::AlliumButtonBar::init(EditorUI*)::$_4, std::__ndk1::allocator<allium::AlliumButtonBar::init(EditorUI*)::$_4>, void (CCMenuItemToggler*)>::target_type() const
PUBLIC 252a0 0 std::__ndk1::__function::__func<allium::AlliumButtonBar::init(EditorUI*)::$_5, std::__ndk1::allocator<allium::AlliumButtonBar::init(EditorUI*)::$_5>, void (CCMenuItemSpriteExtra*)>::~__func()
PUBLIC 252a4 0 std::__ndk1::__function::__func<allium::AlliumButtonBar::init(EditorUI*)::$_5, std::__ndk1::allocator<allium::AlliumButtonBar::init(EditorUI*)::$_5>, void (CCMenuItemSpriteExtra*)>::__clone() const
PUBLIC 252c8 0 std::__ndk1::__function::__func<allium::AlliumButtonBar::init(EditorUI*)::$_5, std::__ndk1::allocator<allium::AlliumButtonBar::init(EditorUI*)::$_5>, void (CCMenuItemSpriteExtra*)>::__clone(std::__ndk1::__function::__base<void (CCMenuItemSpriteExtra*)>*) const
PUBLIC 252d8 0 std::__ndk1::__function::__func<allium::AlliumButtonBar::init(EditorUI*)::$_5, std::__ndk1::allocator<allium::AlliumButtonBar::init(EditorUI*)::$_5>, void (CCMenuItemSpriteExtra*)>::destroy()
PUBLIC 252dc 0 std::__ndk1::__function::__func<allium::AlliumButtonBar::init(EditorUI*)::$_5, std::__ndk1::allocator<allium::AlliumButtonBar::init(EditorUI*)::$_5>, void (CCMenuItemSpriteExtra*)>::destroy_deallocate()
PUBLIC 252e0 0 std::__ndk1::__function::__func<allium::AlliumButtonBar::init(EditorUI*)::$_5, std::__ndk1::allocator<allium::AlliumButtonBar::init(EditorUI*)::$_5>, void (CCMenuItemSpriteExtra*)>::operator()(CCMenuItemSpriteExtra*&&)
PUBLIC 2531c 0 std::__ndk1::__function::__func<allium::AlliumButtonBar::init(EditorUI*)::$_5, std::__ndk1::allocator<allium::AlliumButtonBar::init(EditorUI*)::$_5>, void (CCMenuItemSpriteExtra*)>::target(std::type_info const&) const
PUBLIC 25338 0 std::__ndk1::__function::__func<allium::AlliumButtonBar::init(EditorUI*)::$_5, std::__ndk1::allocator<allium::AlliumButtonBar::init(EditorUI*)::$_5>, void (CCMenuItemSpriteExtra*)>::target_type() const
PUBLIC 25344 0 std::__ndk1::__function::__base<void (CCMenuItemSpriteExtra*)>::~__base()
PUBLIC 25348 0 std::__ndk1::__function::__func<allium::AlliumButtonBar::init(EditorUI*)::$_6, std::__ndk1::allocator<allium::AlliumButtonBar::init(EditorUI*)::$_6>, void (CCMenuItemSpriteExtra*)>::~__func()
PUBLIC 2534c 0 std::__ndk1::__function::__func<allium::AlliumButtonBar::init(EditorUI*)::$_6, std::__ndk1::allocator<allium::AlliumButtonBar::init(EditorUI*)::$_6>, void (CCMenuItemSpriteExtra*)>::__clone() const
PUBLIC 25380 0 std::__ndk1::__function::__func<allium::AlliumButtonBar::init(EditorUI*)::$_6, std::__ndk1::allocator<allium::AlliumButtonBar::init(EditorUI*)::$_6>, void (CCMenuItemSpriteExtra*)>::__clone(std::__ndk1::__function::__base<void (CCMenuItemSpriteExtra*)>*) const
PUBLIC 25394 0 std::__ndk1::__function::__func<allium::AlliumButtonBar::init(EditorUI*)::$_6, std::__ndk1::allocator<allium::AlliumButtonBar::init(EditorUI*)::$_6>, void (CCMenuItemSpriteExtra*)>::destroy()
PUBLIC 25398 0 std::__ndk1::__function::__func<allium::AlliumButtonBar::init(EditorUI*)::$_6, std::__ndk1::allocator<allium::AlliumButtonBar::init(EditorUI*)::$_6>, void (CCMenuItemSpriteExtra*)>::destroy_deallocate()
PUBLIC 2539c 0 std::__ndk1::__function::__func<allium::AlliumButtonBar::init(EditorUI*)::$_6, std::__ndk1::allocator<allium::AlliumButtonBar::init(EditorUI*)::$_6>, void (CCMenuItemSpriteExtra*)>::operator()(CCMenuItemSpriteExtra*&&)
PUBLIC 253e0 0 std::__ndk1::__function::__func<allium::AlliumButtonBar::init(EditorUI*)::$_6, std::__ndk1::allocator<allium::AlliumButtonBar::init(EditorUI*)::$_6>, void (CCMenuItemSpriteExtra*)>::target(std::type_info const&) const
PUBLIC 253fc 0 std::__ndk1::__function::__func<allium::AlliumButtonBar::init(EditorUI*)::$_6, std::__ndk1::allocator<allium::AlliumButtonBar::init(EditorUI*)::$_6>, void (CCMenuItemSpriteExtra*)>::target_type() const
PUBLIC 25408 0 std::__ndk1::__function::__func<allium::AlliumButtonBar::addButton(std::__ndk1::basic_string_view<char, std::__ndk1::char_traits<char> >, std::__ndk1::basic_string_view<char, std::__ndk1::char_traits<char> >, std::__ndk1::basic_string_view<char, std::__ndk1::char_traits<char> >, std::__ndk1::function<void (CCMenuItemSpriteExtra*)> const&)::$_0, std::__ndk1::allocator<allium::AlliumButtonBar::addButton(std::__ndk1::basic_string_view<char, std::__ndk1::char_traits<char> >, std::__ndk1::basic_string_view<char, std::__ndk1::char_traits<char> >, std::__ndk1::basic_string_view<char, std::__ndk1::char_traits<char> >, std::__ndk1::function<void (CCMenuItemSpriteExtra*)> const&)::$_0>, void (CCMenuItemSpriteExtra*)>::~__func()
PUBLIC 25454 0 std::__ndk1::__function::__func<allium::AlliumButtonBar::addButton(std::__ndk1::basic_string_view<char, std::__ndk1::char_traits<char> >, std::__ndk1::basic_string_view<char, std::__ndk1::char_traits<char> >, std::__ndk1::basic_string_view<char, std::__ndk1::char_traits<char> >, std::__ndk1::function<void (CCMenuItemSpriteExtra*)> const&)::$_0, std::__ndk1::allocator<allium::AlliumButtonBar::addButton(std::__ndk1::basic_string_view<char, std::__ndk1::char_traits<char> >, std::__ndk1::basic_string_view<char, std::__ndk1::char_traits<char> >, std::__ndk1::basic_string_view<char, std::__ndk1::char_traits<char> >, std::__ndk1::function<void (CCMenuItemSpriteExtra*)> const&)::$_0>, void (CCMenuItemSpriteExtra*)>::~__func()
PUBLIC 254b0 0 std::__ndk1::__function::__func<allium::AlliumButtonBar::addButton(std::__ndk1::basic_string_view<char, std::__ndk1::char_traits<char> >, std::__ndk1::basic_string_view<char, std::__ndk1::char_traits<char> >, std::__ndk1::basic_string_view<char, std::__ndk1::char_traits<char> >, std::__ndk1::function<void (CCMenuItemSpriteExtra*)> const&)::$_0, std::__ndk1::allocator<allium::AlliumButtonBar::addButton(std::__ndk1::basic_string_view<char, std::__ndk1::char_traits<char> >, std::__ndk1::basic_string_view<char, std::__ndk1::char_traits<char> >, std::__ndk1::basic_string_view<char, std::__ndk1::char_traits<char> >, std::__ndk1::function<void (CCMenuItemSpriteExtra*)> const&)::$_0>, void (CCMenuItemSpriteExtra*)>::__clone() const
PUBLIC 25544 0 std::__ndk1::__function::__func<allium::AlliumButtonBar::addButton(std::__ndk1::basic_string_view<char, std::__ndk1::char_traits<char> >, std::__ndk1::basic_string_view<char, std::__ndk1::char_traits<char> >, std::__ndk1::basic_string_view<char, std::__ndk1::char_traits<char> >, std::__ndk1::function<void (CCMenuItemSpriteExtra*)> const&)::$_0, std::__ndk1::allocator<allium::AlliumButtonBar::addButton(std::__ndk1::basic_string_view<char, std::__ndk1::char_traits<char> >, std::__ndk1::basic_string_view<char, std::__ndk1::char_traits<char> >, std::__ndk1::basic_string_view<char, std::__ndk1::char_traits<char> >, std::__ndk1::function<void (CCMenuItemSpriteExtra*)> const&)::$_0>, void (CCMenuItemSpriteExtra*)>::__clone(std::__ndk1::__function::__base<void (CCMenuItemSpriteExtra*)>*) const
PUBLIC 255c0 0 std::__ndk1::__function::__func<allium::AlliumButtonBar::addButton(std::__ndk1::basic_string_view<char, std::__ndk1::char_traits<char> >, std::__ndk1::basic_string_view<char, std::__ndk1::char_traits<char> >, std::__ndk1::basic_string_view<char, std::__ndk1::char_traits<char> >, std::__ndk1::function<void (CCMenuItemSpriteExtra*)> const&)::$_0, std::__ndk1::allocator<allium::AlliumButtonBar::addButton(std::__ndk1::basic_string_view<char, std::__ndk1::char_traits<char> >, std::__ndk1::basic_string_view<char, std::__ndk1::char_traits<char> >, std::__ndk1::basic_string_view<char, std::__ndk1::char_traits<char> >, std::__ndk1::function<void (CCMenuItemSpriteExtra*)> const&)::$_0>, void (CCMenuItemSpriteExtra*)>::destroy()
PUBLIC 25600 0 std::__ndk1::__function::__func<allium::AlliumButtonBar::addButton(std::__ndk1::basic_string_view<char, std::__ndk1::char_traits<char> >, std::__ndk1::basic_string_view<char, std::__ndk1::char_traits<char> >, std::__ndk1::basic_string_view<char, std::__ndk1::char_traits<char> >, std::__ndk1::function<void (CCMenuItemSpriteExtra*)> const&)::$_0, std::__ndk1::allocator<allium::AlliumButtonBar::addButton(std::__ndk1::basic_string_view<char, std::__ndk1::char_traits<char> >, std::__ndk1::basic_string_view<char, std::__ndk1::char_traits<char> >, std::__ndk1::basic_string_view<char, std::__ndk1::char_traits<char> >, std::__ndk1::function<void (CCMenuItemSpriteExtra*)> const&)::$_0>, void (CCMenuItemSpriteExtra*)>::destroy_deallocate()
PUBLIC 25650 0 std::__ndk1::__function::__func<allium::AlliumButtonBar::addButton(std::__ndk1::basic_string_view<char, std::__ndk1::char_traits<char> >, std::__ndk1::basic_string_view<char, std::__ndk1::char_traits<char> >, std::__ndk1::basic_string_view<char, std::__ndk1::char_traits<char> >, std::__ndk1::function<void (CCMenuItemSpriteExtra*)> const&)::$_0, std::__ndk1::allocator<allium::AlliumButtonBar::addButton(std::__ndk1::basic_string_view<char, std::__ndk1::char_traits<char> >, std::__ndk1::basic_string_view<char, std::__ndk1::char_traits<char> >, std::__ndk1::basic_string_view<char, std::__ndk1::char_traits<char> >, std::__ndk1::function<void (CCMenuItemSpriteExtra*)> const&)::$_0>, void (CCMenuItemSpriteExtra*)>::operator()(CCMenuItemSpriteExtra*&&)
PUBLIC 256c4 0 std::__ndk1::__function::__func<allium::AlliumButtonBar::addButton(std::__ndk1::basic_string_view<char, std::__ndk1::char_traits<char> >, std::__ndk1::basic_string_view<char, std::__ndk1::char_traits<char> >, std::__ndk1::basic_string_view<char, std::__ndk1::char_traits<char> >, std::__ndk1::function<void (CCMenuItemSpriteExtra*)> const&)::$_0, std::__ndk1::allocator<allium::AlliumButtonBar::addButton(std::__ndk1::basic_string_view<char, std::__ndk1::char_traits<char> >, std::__ndk1::basic_string_view<char, std::__ndk1::char_traits<char> >, std::__ndk1::basic_string_view<char, std::__ndk1::char_traits<char> >, std::__ndk1::function<void (CCMenuItemSpriteExtra*)> const&)::$_0>, void (CCMenuItemSpriteExtra*)>::target(std::type_info const&) const
PUBLIC 256e0 0 std::__ndk1::__function::__func<allium::AlliumButtonBar::addButton(std::__ndk1::basic_string_view<char, std::__ndk1::char_traits<char> >, std::__ndk1::basic_string_view<char, std::__ndk1::char_traits<char> >, std::__ndk1::basic_string_view<char, std::__ndk1::char_traits<char> >, std::__ndk1::function<void (CCMenuItemSpriteExtra*)> const&)::$_0, std::__ndk1::allocator<allium::AlliumButtonBar::addButton(std::__ndk1::basic_string_view<char, std::__ndk1::char_traits<char> >, std::__ndk1::basic_string_view<char, std::__ndk1::char_traits<char> >, std::__ndk1::basic_string_view<char, std::__ndk1::char_traits<char> >, std::__ndk1::function<void (CCMenuItemSpriteExtra*)> const&)::$_0>, void (CCMenuItemSpriteExtra*)>::target_type() const
PUBLIC 256ec 0 std::__ndk1::__function::__func<allium::AlliumButtonBar::addToggle(std::__ndk1::basic_string_view<char, std::__ndk1::char_traits<char> >, std::__ndk1::basic_string_view<char, std::__ndk1::char_traits<char> >, std::__ndk1::basic_string_view<char, std::__ndk1::char_traits<char> >, std::__ndk1::basic_string_view<char, std::__ndk1::char_traits<char> >, std::__ndk1::function<void (CCMenuItemToggler*)> const&)::$_0, std::__ndk1::allocator<allium::AlliumButtonBar::addToggle(std::__ndk1::basic_string_view<char, std::__ndk1::char_traits<char> >, std::__ndk1::basic_string_view<char, std::__ndk1::char_traits<char> >, std::__ndk1::basic_string_view<char, std::__ndk1::char_traits<char> >, std::__ndk1::basic_string_view<char, std::__ndk1::char_traits<char> >, std::__ndk1::function<void (CCMenuItemToggler*)> const&)::$_0>, void (CCMenuItemToggler*)>::~__func()
PUBLIC 25738 0 std::__ndk1::__function::__func<allium::AlliumButtonBar::addToggle(std::__ndk1::basic_string_view<char, std::__ndk1::char_traits<char> >, std::__ndk1::basic_string_view<char, std::__ndk1::char_traits<char> >, std::__ndk1::basic_string_view<char, std::__ndk1::char_traits<char> >, std::__ndk1::basic_string_view<char, std::__ndk1::char_traits<char> >, std::__ndk1::function<void (CCMenuItemToggler*)> const&)::$_0, std::__ndk1::allocator<allium::AlliumButtonBar::addToggle(std::__ndk1::basic_string_view<char, std::__ndk1::char_traits<char> >, std::__ndk1::basic_string_view<char, std::__ndk1::char_traits<char> >, std::__ndk1::basic_string_view<char, std::__ndk1::char_traits<char> >, std::__ndk1::basic_string_view<char, std::__ndk1::char_traits<char> >, std::__ndk1::function<void (CCMenuItemToggler*)> const&)::$_0>, void (CCMenuItemToggler*)>::~__func()
PUBLIC 25794 0 std::__ndk1::__function::__func<allium::AlliumButtonBar::addToggle(std::__ndk1::basic_string_view<char, std::__ndk1::char_traits<char> >, std::__ndk1::basic_string_view<char, std::__ndk1::char_traits<char> >, std::__ndk1::basic_string_view<char, std::__ndk1::char_traits<char> >, std::__ndk1::basic_string_view<char, std::__ndk1::char_traits<char> >, std::__ndk1::function<void (CCMenuItemToggler*)> const&)::$_0, std::__ndk1::allocator<allium::AlliumButtonBar::addToggle(std::__ndk1::basic_string_view<char, std::__ndk1::char_traits<char> >, std::__ndk1::basic_string_view<char, std::__ndk1::char_traits<char> >, std::__ndk1::basic_string_view<char, std::__ndk1::char_traits<char> >, std::__ndk1::basic_string_view<char, std::__ndk1::char_traits<char> >, std::__ndk1::function<void (CCMenuItemToggler*)> const&)::$_0>, void (CCMenuItemToggler*)>::__clone() const
PUBLIC 25828 0 std::__ndk1::__function::__func<allium::AlliumButtonBar::addToggle(std::__ndk1::basic_string_view<char, std::__ndk1::char_traits<char> >, std::__ndk1::basic_string_view<char, std::__ndk1::char_traits<char> >, std::__ndk1::basic_string_view<char, std::__ndk1::char_traits<char> >, std::__ndk1::basic_string_view<char, std::__ndk1::char_traits<char> >, std::__ndk1::function<void (CCMenuItemToggler*)> const&)::$_0, std::__ndk1::allocator<allium::AlliumButtonBar::addToggle(std::__ndk1::basic_string_view<char, std::__ndk1::char_traits<char> >, std::__ndk1::basic_string_view<char, std::__ndk1::char_traits<char> >, std::__ndk1::basic_string_view<char, std::__ndk1::char_traits<char> >, std::__ndk1::basic_string_view<char, std::__ndk1::char_traits<char> >, std::__ndk1::function<void (CCMenuItemToggler*)> const&)::$_0>, void (CCMenuItemToggler*)>::__clone(std::__ndk1::__function::__base<void (CCMenuItemToggler*)>*) const
PUBLIC 258a4 0 std::__ndk1::__function::__func<allium::AlliumButtonBar::addToggle(std::__ndk1::basic_string_view<char, std::__ndk1::char_traits<char> >, std::__ndk1::basic_string_view<char, std::__ndk1::char_traits<char> >, std::__ndk1::basic_string_view<char, std::__ndk1::char_traits<char> >, std::__ndk1::basic_string_view<char, std::__ndk1::char_traits<char> >, std::__ndk1::function<void (CCMenuItemToggler*)> const&)::$_0, std::__ndk1::allocator<allium::AlliumButtonBar::addToggle(std::__ndk1::basic_string_view<char, std::__ndk1::char_traits<char> >, std::__ndk1::basic_string_view<char, std::__ndk1::char_traits<char> >, std::__ndk1::basic_string_view<char, std::__ndk1::char_traits<char> >, std::__ndk1::basic_string_view<char, std::__ndk1::char_traits<char> >, std::__ndk1::function<void (CCMenuItemToggler*)> const&)::$_0>, void (CCMenuItemToggler*)>::destroy()
PUBLIC 258e4 0 std::__ndk1::__function::__func<allium::AlliumButtonBar::addToggle(std::__ndk1::basic_string_view<char, std::__ndk1::char_traits<char> >, std::__ndk1::basic_string_view<char, std::__ndk1::char_traits<char> >, std::__ndk1::basic_string_view<char, std::__ndk1::char_traits<char> >, std::__ndk1::basic_string_view<char, std::__ndk1::char_traits<char> >, std::__ndk1::function<void (CCMenuItemToggler*)> const&)::$_0, std::__ndk1::allocator<allium::AlliumButtonBar::addToggle(std::__ndk1::basic_string_view<char, std::__ndk1::char_traits<char> >, std::__ndk1::basic_string_view<char, std::__ndk1::char_traits<char> >, std::__ndk1::basic_string_view<char, std::__ndk1::char_traits<char> >, std::__ndk1::basic_string_view<char, std::__ndk1::char_traits<char> >, std::__ndk1::function<void (CCMenuItemToggler*)> const&)::$_0>, void (CCMenuItemToggler*)>::destroy_deallocate()
PUBLIC 25934 0 std::__ndk1::__function::__func<allium::AlliumButtonBar::addToggle(std::__ndk1::basic_string_view<char, std::__ndk1::char_traits<char> >, std::__ndk1::basic_string_view<char, std::__ndk1::char_traits<char> >, std::__ndk1::basic_string_view<char, std::__ndk1::char_traits<char> >, std::__ndk1::basic_string_view<char, std::__ndk1::char_traits<char> >, std::__ndk1::function<void (CCMenuItemToggler*)> const&)::$_0, std::__ndk1::allocator<allium::AlliumButtonBar::addToggle(std::__ndk1::basic_string_view<char, std::__ndk1::char_traits<char> >, std::__ndk1::basic_string_view<char, std::__ndk1::char_traits<char> >, std::__ndk1::basic_string_view<char, std::__ndk1::char_traits<char> >, std::__ndk1::basic_string_view<char, std::__ndk1::char_traits<char> >, std::__ndk1::function<void (CCMenuItemToggler*)> const&)::$_0>, void (CCMenuItemToggler*)>::operator()(CCMenuItemToggler*&&)
PUBLIC 259a8 0 std::__ndk1::__function::__func<allium::AlliumButtonBar::addToggle(std::__ndk1::basic_string_view<char, std::__ndk1::char_traits<char> >, std::__ndk1::basic_string_view<char, std::__ndk1::char_traits<char> >, std::__ndk1::basic_string_view<char, std::__ndk1::char_traits<char> >, std::__ndk1::basic_string_view<char, std::__ndk1::char_traits<char> >, std::__ndk1::function<void (CCMenuItemToggler*)> const&)::$_0, std::__ndk1::allocator<allium::AlliumButtonBar::addToggle(std::__ndk1::basic_string_view<char, std::__ndk1::char_traits<char> >, std::__ndk1::basic_string_view<char, std::__ndk1::char_traits<char> >, std::__ndk1::basic_string_view<char, std::__ndk1::char_traits<char> >, std::__ndk1::basic_string_view<char, std::__ndk1::char_traits<char> >, std::__ndk1::function<void (CCMenuItemToggler*)> const&)::$_0>, void (CCMenuItemToggler*)>::target(std::type_info const&) const
PUBLIC 259c4 0 std::__ndk1::__function::__func<allium::AlliumButtonBar::addToggle(std::__ndk1::basic_string_view<char, std::__ndk1::char_traits<char> >, std::__ndk1::basic_string_view<char, std::__ndk1::char_traits<char> >, std::__ndk1::basic_string_view<char, std::__ndk1::char_traits<char> >, std::__ndk1::basic_string_view<char, std::__ndk1::char_traits<char> >, std::__ndk1::function<void (CCMenuItemToggler*)> const&)::$_0, std::__ndk1::allocator<allium::AlliumButtonBar::addToggle(std::__ndk1::basic_string_view<char, std::__ndk1::char_traits<char> >, std::__ndk1::basic_string_view<char, std::__ndk1::char_traits<char> >, std::__ndk1::basic_string_view<char, std::__ndk1::char_traits<char> >, std::__ndk1::basic_string_view<char, std::__ndk1::char_traits<char> >, std::__ndk1::function<void (CCMenuItemToggler*)> const&)::$_0>, void (CCMenuItemToggler*)>::target_type() const
PUBLIC 259d0 0 allium::SupportPopup::create()
PUBLIC 25ae8 0 allium::SupportPopup::~SupportPopup()
PUBLIC 25b54 0 {virtual override thunk({offset(-320)}, allium::SupportPopup::~SupportPopup())}
PUBLIC 25bc0 0 allium::SupportPopup::~SupportPopup()
PUBLIC 25c34 0 {virtual override thunk({offset(-320)}, allium::SupportPopup::~SupportPopup())}
PUBLIC 25ca8 0 allium::SupportPopup::registerWithTouchDispatcher()
PUBLIC 25cd4 0 allium::SupportPopup::init()
PUBLIC 25f9c 0 allium::SupportPopup::onClose(cocos2d::CCObject*)
PUBLIC 25fa8 0 allium::SupportPopup::keyBackClicked()
PUBLIC 25fb4 0 {virtual override thunk({offset(-336)}, allium::SupportPopup::keyBackClicked())}
PUBLIC 25fc4 0 cocos2d::CCLayerRGBA::setOpacityModifyRGB(bool)
PUBLIC 25fc8 0 cocos2d::CCLayerRGBA::isOpacityModifyRGB()
PUBLIC 25fd0 0 cocos2d::CCKeyboardDelegate::keyUp(cocos2d::enumKeyCodes)
PUBLIC 25fd4 0 cocos2d::CCMouseDelegate::rightKeyDown()
PUBLIC 25fd8 0 cocos2d::CCMouseDelegate::rightKeyUp()
PUBLIC 25fdc 0 cocos2d::CCMouseDelegate::scrollWheel(float, float)
PUBLIC 25fe0 0 {virtual override thunk({offset(-408)}, cocos2d::CCLayerRGBA::setOpacityModifyRGB(bool))}
PUBLIC 25fe4 0 {virtual override thunk({offset(-408)}, cocos2d::CCLayerRGBA::isOpacityModifyRGB())}
PUBLIC 25fec 0 std::__ndk1::__function::__func<allium::SupportPopup::init()::$_0, std::__ndk1::allocator<allium::SupportPopup::init()::$_0>, void (CCMenuItemSpriteExtra*)>::~__func()
PUBLIC 25ff0 0 std::__ndk1::__function::__func<allium::SupportPopup::init()::$_0, std::__ndk1::allocator<allium::SupportPopup::init()::$_0>, void (CCMenuItemSpriteExtra*)>::__clone() const
PUBLIC 26014 0 std::__ndk1::__function::__func<allium::SupportPopup::init()::$_0, std::__ndk1::allocator<allium::SupportPopup::init()::$_0>, void (CCMenuItemSpriteExtra*)>::__clone(std::__ndk1::__function::__base<void (CCMenuItemSpriteExtra*)>*) const
PUBLIC 26024 0 std::__ndk1::__function::__func<allium::SupportPopup::init()::$_0, std::__ndk1::allocator<allium::SupportPopup::init()::$_0>, void (CCMenuItemSpriteExtra*)>::destroy()
PUBLIC 26028 0 std::__ndk1::__function::__func<allium::SupportPopup::init()::$_0, std::__ndk1::allocator<allium::SupportPopup::init()::$_0>, void (CCMenuItemSpriteExtra*)>::destroy_deallocate()
PUBLIC 2602c 0 std::__ndk1::__function::__func<allium::SupportPopup::init()::$_0, std::__ndk1::allocator<allium::SupportPopup::init()::$_0>, void (CCMenuItemSpriteExtra*)>::operator()(CCMenuItemSpriteExtra*&&)
PUBLIC 26118 0 std::__ndk1::__function::__func<allium::SupportPopup::init()::$_0, std::__ndk1::allocator<allium::SupportPopup::init()::$_0>, void (CCMenuItemSpriteExtra*)>::target(std::type_info const&) const
PUBLIC 26134 0 std::__ndk1::__function::__func<allium::SupportPopup::init()::$_0, std::__ndk1::allocator<allium::SupportPopup::init()::$_0>, void (CCMenuItemSpriteExtra*)>::target_type() const
PUBLIC 26140 0 allium::BrushDrawer::updateOverlay()
PUBLIC 26730 0 allium::BrushDrawer::updateLine()
PUBLIC 26a30 0 std::__ndk1::vector<cocos2d::CCPoint, std::__ndk1::allocator<cocos2d::CCPoint> >::__throw_length_error[abi:ne180000]() const
PUBLIC 26a44 0 allium::CurveBrushDrawer::init()
PUBLIC 26a80 0 allium::CurveBrushDrawer::handleTouchStart(cocos2d::CCPoint const&)
PUBLIC 26e58 0 allium::CurveBrushDrawer::handleTouchMove(cocos2d::CCPoint const&)
PUBLIC 26f0c 0 allium::CurveBrushDrawer::getGeneratedPoints()
PUBLIC 27230 0 allium::CurveBrushDrawer::handleTouchEnd(cocos2d::CCPoint const&)
PUBLIC 27518 0 agg::curve4_div::~curve4_div()
PUBLIC 27590 0 allium::CurveBrushDrawer::initializeConverter()
PUBLIC 27920 0 allium::CurveBrushDrawer::updateOverlay()
PUBLIC 27ab8 0 allium::CurveBrushDrawer::updateLine()
PUBLIC 27b00 0 allium::CurveBrushDrawer::~CurveBrushDrawer()
PUBLIC 27b5c 0 allium::CurveBrushDrawer::~CurveBrushDrawer()
PUBLIC 27bc0 0 std::__ndk1::vector<std::__ndk1::array<double, (unsigned long)2>, std::__ndk1::allocator<std::__ndk1::array<double, (unsigned long)2> > >::__throw_length_error[abi:ne180000]() const
PUBLIC 27bd4 0 std::__ndk1::vector<allium::PolylineConverter::Point, std::__ndk1::allocator<allium::PolylineConverter::Point> >::__throw_length_error[abi:ne180000]() const
PUBLIC 27be8 0 allium::EditorUtilities::addRectangle(cocos2d::CCPoint const&, cocos2d::CCPoint const&, cocos2d::CCPoint const&, cocos2d::CCPoint const&)
PUBLIC 27ef0 0 allium::EditorUtilities::addCircle(cocos2d::CCPoint const&, float)
PUBLIC 28148 0 std::__ndk1::vector<GameObject*, std::__ndk1::allocator<GameObject*> >::__throw_length_error[abi:ne180000]() const
PUBLIC 2815c 0 allium::FreeBrushDrawer::init()
PUBLIC 28198 0 allium::FreeBrushDrawer::handleTouchStart(cocos2d::CCPoint const&)
PUBLIC 2825c 0 allium::FreeBrushDrawer::handleTouchMove(cocos2d::CCPoint const&)
PUBLIC 284ac 0 allium::FreeBrushDrawer::simplify(std::__ndk1::vector<cocos2d::CCPoint, std::__ndk1::allocator<cocos2d::CCPoint> > const&)
PUBLIC 28e0c 0 allium::FreeBrushDrawer::handleTouchEnd(cocos2d::CCPoint const&)
PUBLIC 29064 0 allium::FreeBrushDrawer::initializeConverter()
PUBLIC 292f8 0 allium::FreeBrushDrawer::updateOverlay()
PUBLIC 2933c 0 allium::FreeBrushDrawer::updateLine()
PUBLIC 29370 0 allium::FreeBrushDrawer::~FreeBrushDrawer()
PUBLIC 293b0 0 allium::FreeBrushDrawer::~FreeBrushDrawer()
PUBLIC 293f4 0 std::__ndk1::vector<cocos2d::CCPoint, std::__ndk1::allocator<cocos2d::CCPoint> >::__insert_with_size[abi:ne180000]<std::__ndk1::__wrap_iter<cocos2d::CCPoint const*>, cocos2d::CCPoint const*>(cocos2d::CCPoint const*, std::__ndk1::__wrap_iter<cocos2d::CCPoint const*>, cocos2d::CCPoint const*, long)
PUBLIC 29af8 0 allium::LineBrushDrawer::init()
PUBLIC 29b34 0 allium::LineBrushDrawer::handleTouchStart(cocos2d::CCPoint const&)
PUBLIC 29b48 0 allium::LineBrushDrawer::handleTouchMove(cocos2d::CCPoint const&)
PUBLIC 29b68 0 allium::LineBrushDrawer::handleTouchEnd(cocos2d::CCPoint const&)
PUBLIC 29ba4 0 allium::LineBrushDrawer::initializeConverter()
PUBLIC 29cac 0 allium::LineBrushDrawer::updateOverlay()
PUBLIC 29cd4 0 allium::LineBrushDrawer::updateLine()
PUBLIC 29ce8 0 allium::LineBrushDrawer::~LineBrushDrawer()
PUBLIC 29d0c 0 allium::PolylineConverter::extend(allium::PolylineConverter::Point, allium::PolylineConverter::Point, allium::PolylineConverter::Point)
PUBLIC 29f10 0 allium::PolylineConverter::handleExtension(std::__ndk1::vector<allium::PolylineConverter::Rect, std::__ndk1::allocator<allium::PolylineConverter::Rect> >&, std::__ndk1::vector<allium::PolylineConverter::Circle, std::__ndk1::allocator<allium::PolylineConverter::Circle> >&)
PUBLIC 2a48c 0 std::__ndk1::vector<allium::PolylineConverter::Circle, std::__ndk1::allocator<allium::PolylineConverter::Circle> >::__throw_length_error[abi:ne180000]() const
PUBLIC 2a4a0 0 std::__ndk1::vector<allium::PolylineConverter::Rect, std::__ndk1::allocator<allium::PolylineConverter::Rect> >::__throw_length_error[abi:ne180000]() const
PUBLIC m 2a4b4 0 geodeImplicitEntry
PUBLIC 2a4f0 0 agg::pod_bvector<agg::point_base<double>, (unsigned int)6>::add(agg::point_base<double> const&)
PUBLIC 2a5d4 0 agg::curve4_div::bezier(double, double, double, double, double, double, double, double)
PUBLIC 2a7c8 0 agg::curve4_div::recursive_bezier(double, double, double, double, double, double, double, double, unsigned int)
PUBLIC 2b248 0 std::__ndk1::unordered_map<void*, bool, std::__ndk1::hash<void*>, std::__ndk1::equal_to<void*>, std::__ndk1::allocator<std::__ndk1::pair<void* const, bool> > >::~unordered_map[abi:ne180000]()
PUBLIC 2b294 0 wrapFunction(unsigned long, tulip::hook::WrapperMetadata const&)
PUBLIC 2b3c8 0 geode::impl::ResultData<void*, std::__ndk1::basic_string<char, std::__ndk1::char_traits<char>, std::__ndk1::allocator<char> > >::unwrapErr() &
PUBLIC 2b440 0 geode::impl::ResultData<void*, std::__ndk1::basic_string<char, std::__ndk1::char_traits<char>, std::__ndk1::allocator<char> > >::~ResultData()
PUBLIC 2b4b4 0 tulip::hook::WrapperMetadata::~WrapperMetadata()
PUBLIC 2b518 0 cocos2d::CCObject::CCObject()
PUBLIC 2b73c 0 cocos2d::CCObject::~CCObject()
PUBLIC 2b760 0 cocos2d::CCNode::CCNode()
PUBLIC 2b9bc 0 cocos2d::CCNode::~CCNode()
PUBLIC 2b9e0 0 {virtual override thunk({offset(-320)}, cocos2d::CCLayer::~CCLayer())}
PUBLIC 2b9e8 0 cocos2d::CCLayer::~CCLayer()
PUBLIC 2ba0c 0 {virtual override thunk({offset(-320)}, cocos2d::CCLayer::~CCLayer())}
PUBLIC 2ba34 0 cocos2d::CCLayerRGBA::~CCLayerRGBA()
PUBLIC 2bd34 0 {virtual override thunk({offset(-320)}, cocos2d::CCLayerRGBA::~CCLayerRGBA())}
PUBLIC 2bd3c 0 cocos2d::CCLayerRGBA::~CCLayerRGBA()
PUBLIC 2bd60 0 {virtual override thunk({offset(-320)}, cocos2d::CCLayerRGBA::~CCLayerRGBA())}
PUBLIC 2bd88 0 cocos2d::CCLayerColor::CCLayerColor()
PUBLIC 2bfec 0 {virtual override thunk({offset(-320)}, cocos2d::CCLayerColor::~CCLayerColor())}
PUBLIC 2bff4 0 cocos2d::CCLayerColor::~CCLayerColor()
PUBLIC 2c018 0 {virtual override thunk({offset(-320)}, cocos2d::CCLayerColor::~CCLayerColor())}
PUBLIC 2c040 0 {virtual override thunk({offset(-320)}, FLAlertLayer::~FLAlertLayer())}
PUBLIC 2c048 0 FLAlertLayer::~FLAlertLayer()
PUBLIC 2c06c 0 {virtual override thunk({offset(-320)}, FLAlertLayer::~FLAlertLayer())}
PUBLIC 2c094 0 UndoObject::~UndoObject()
PUBLIC 2c0dc 0 UndoObject::~UndoObject()
PUBLIC 2c12c 0 UndoObject::createWithArray(cocos2d::CCArray*, UndoCommand)
PUBLIC 2c1c4 0 cocos2d::CCLayerColor::~CCLayerColor()
PUBLIC 2c4a8 0 FLAlertLayer::~FLAlertLayer()
PUBLIC 2c78c 0 cocos2d::CCNode::~CCNode()
PUBLIC 2ca2c 0 cocos2d::CCLayer::~CCLayer()
PUBLIC 2cd1c 0 cocos2d::CCObject::~CCObject()
PUBLIC 2d210 0 _ZN5geode15UnwrapExceptionC2IRPvQsr4implE18IsStringStreamableIT_EEENS_4impl5OkTagEOS4_
PUBLIC 2d364 0 _ZN5geode15UnwrapExceptionC2IRNSt6__ndk112basic_stringIcNS2_11char_traitsIcEENS2_9allocatorIcEEEEQsr4implE18IsStringStreamableIT_EEENS_4impl6ErrTagEOSA_
PUBLIC 2d4cc 0 std::__ndk1::__variant_detail::__visitation::__base::__dispatcher<(unsigned long)0>::__dispatch[abi:ne180000]<std::__ndk1::__variant_detail::__dtor<std::__ndk1::__variant_detail::__traits<void*, std::__ndk1::basic_string<char, std::__ndk1::char_traits<char>, std::__ndk1::allocator<char> > >, (std::__ndk1::__variant_detail::_Trait)1>::__destroy[abi:ne180000]()::{lambda(auto:1&)#1}, std::__ndk1::__variant_detail::__base<(std::__ndk1::__variant_detail::__traits<void*, std::__ndk1::basic_string<char, std::__ndk1::char_traits<char>, std::__ndk1::allocator<char> > >)1, std::__ndk1::__variant_detail::__traits, std::__ndk1::allocator<char> >&>(std::__ndk1::__variant_detail::__dtor<std::__ndk1::__variant_detail::__traits<void*, std::__ndk1::basic_string<char, std::__ndk1::char_traits<char>, std::__ndk1::allocator<char> > >, (std::__ndk1::__variant_detail::_Trait)1>, std::__ndk1::__variant_detail::__base<(std::__ndk1::__variant_detail::__traits<void*, std::__ndk1::basic_string<char, std::__ndk1::char_traits<char>, std::__ndk1::allocator<char> > >)1, std::__ndk1::__variant_detail::__traits, std::__ndk1::allocator<char> >&)
PUBLIC 2d4d0 0 std::__ndk1::__variant_detail::__visitation::__base::__dispatcher<(unsigned long)1>::__dispatch[abi:ne180000]<std::__ndk1::__variant_detail::__dtor<std::__ndk1::__variant_detail::__traits<void*, std::__ndk1::basic_string<char, std::__ndk1::char_traits<char>, std::__ndk1::allocator<char> > >, (std::__ndk1::__variant_detail::_Trait)1>::__destroy[abi:ne180000]()::{lambda(auto:1&)#1}, std::__ndk1::__variant_detail::__base<(std::__ndk1::__variant_detail::__traits<void*, std::__ndk1::basic_string<char, std::__ndk1::char_traits<char>, std::__ndk1::allocator<char> > >)1, std::__ndk1::__variant_detail::__traits, std::__ndk1::allocator<char> >&>(std::__ndk1::__variant_detail::__dtor<std::__ndk1::__variant_detail::__traits<void*, std::__ndk1::basic_string<char, std::__ndk1::char_traits<char>, std::__ndk1::allocator<char> > >, (std::__ndk1::__variant_detail::_Trait)1>, std::__ndk1::__variant_detail::__base<(std::__ndk1::__variant_detail::__traits<void*, std::__ndk1::basic_string<char, std::__ndk1::char_traits<char>, std::__ndk1::allocator<char> > >)1, std::__ndk1::__variant_detail::__traits, std::__ndk1::allocator<char> >&)
PUBLIC 2d4e4 0 std::__ndk1::__hash_table<std::__ndk1::__hash_value_type<void*, bool>, std::__ndk1::__unordered_map_hasher<void*, std::__ndk1::__hash_value_type<void*, bool>, std::__ndk1::hash<void*>, std::__ndk1::equal_to<void*>, true>, std::__ndk1::__unordered_map_equal<void*, std::__ndk1::__hash_value_type<void*, bool>, std::__ndk1::equal_to<void*>, std::__ndk1::hash<void*>, true>, std::__ndk1::allocator<std::__ndk1::__hash_value_type<void*, bool> > >::__emplace_unique_key_args<void*, std::__ndk1::piecewise_construct_t const&, std::__ndk1::tuple<void* const&>, std::__ndk1::tuple<> >(void* const&, std::__ndk1::piecewise_construct_t const&, std::__ndk1::tuple<void* const&>, std::__ndk1::tuple<>)
PUBLIC 2d9f0 0 <.plt ELF section in alk.allium.android64.so>
STACK CFI INIT 1a590 10 .cfa: sp 0 +
STACK CFI INIT 1a5a0 8 .cfa: sp 0 +
STACK CFI INIT 1a5a8 8 .cfa: sp 0 +
STACK CFI INIT 1a5b0 14 .cfa: sp 0 +
STACK CFI INIT 1a5c4 1c .cfa: sp 0 +
STACK CFI INIT 1a5e0 10 .cfa: sp 0 +
STACK CFI INIT 1a5f0 134 .cfa: sp 0 +
STACK CFI INIT 1a724 84 .cfa: sp 0 +
STACK CFI INIT 1a7a8 f4 .cfa: sp 0 +
STACK CFI INIT 1a89c a8 .cfa: sp 0 +
STACK CFI INIT 1a944 7c .cfa: sp 0 +
STACK CFI INIT 1a9c0 14 .cfa: sp 0 +
STACK CFI INIT 1a9d4 40 .cfa: sp 0 +
STACK CFI INIT 1aa14 28 .cfa: sp 0 +
STACK CFI INIT 1aa3c 190 .cfa: sp 0 +
STACK CFI INIT 1abcc 2c8 .cfa: sp 0 +
STACK CFI INIT 1ae94 8 .cfa: sp 0 +
STACK CFI INIT 1ae9c 8 .cfa: sp 0 +
STACK CFI INIT 1aea4 44 .cfa: sp 0 +
STACK CFI INIT 1aee8 e8 .cfa: sp 0 +
STACK CFI INIT 1afd0 e8 .cfa: sp 0 +
STACK CFI INIT 1b0b8 14 .cfa: sp 0 +
STACK CFI INIT 1b0cc 10 .cfa: sp 0 +
STACK CFI INIT 1b0dc 10 .cfa: sp 0 +
STACK CFI INIT 1b0ec f0 .cfa: sp 0 +
STACK CFI INIT 1b1dc 44 .cfa: sp 0 +
STACK CFI INIT 1b220 c .cfa: sp 0 +
STACK CFI INIT 1b22c c .cfa: sp 0 +
STACK CFI INIT 1b238 2c .cfa: sp 0 +
STACK CFI INIT 1b264 280 .cfa: sp 0 +
STACK CFI INIT 1b4e4 c .cfa: sp 0 +
STACK CFI INIT 1b4f0 120 .cfa: sp 0 +
STACK CFI INIT 1b610 488 .cfa: sp 0 +
STACK CFI INIT 1ba98 c48 .cfa: sp 0 +
STACK CFI INIT 1c6e0 134 .cfa: sp 0 +
STACK CFI INIT 1c814 210 .cfa: sp 0 +
STACK CFI INIT 1ca24 38c .cfa: sp 0 +
STACK CFI INIT 1cdb0 1c8 .cfa: sp 0 +
STACK CFI INIT 1cf78 9bc .cfa: sp 0 +
STACK CFI INIT 1d934 2d4 .cfa: sp 0 +
STACK CFI INIT 1dc08 134 .cfa: sp 0 +
STACK CFI INIT 1dd3c 120 .cfa: sp 0 +
STACK CFI INIT 1de5c 1c8 .cfa: sp 0 +
STACK CFI INIT 1e024 168 .cfa: sp 0 +
STACK CFI INIT 1e18c fc .cfa: sp 0 +
STACK CFI INIT 1e288 30 .cfa: sp 0 +
STACK CFI INIT 1e3f0 30 .cfa: sp 0 +
STACK CFI INIT 1e420 98 .cfa: sp 0 +
STACK CFI INIT 1e4b8 59c .cfa: sp 0 +
STACK CFI INIT 1ea54 8c .cfa: sp 0 +
STACK CFI INIT 1eae0 30 .cfa: sp 0 +
STACK CFI INIT 1f6e4 18 .cfa: sp 0 +
STACK CFI INIT 200e4 50 .cfa: sp 0 +
STACK CFI 200e8 .cfa: sp 32 +
STACK CFI 200f0 .cfa: x29 32 + x19: .cfa -16 + ^ .ra: .cfa -24 + ^ x29: .cfa -32 + ^
STACK CFI 20108 .cfa: sp 32 +
STACK CFI 20110 .cfa: sp 0 +
STACK CFI 20114 .cfa: x29 32 +
STACK CFI 20128 .cfa: sp 32 +
STACK CFI 20130 .cfa: sp 0 +
STACK CFI INIT 201a8 7c .cfa: sp 0 +
STACK CFI 201ac .cfa: sp 48 +
STACK CFI 201b8 .cfa: x29 48 + x19: .cfa -8 + ^ x20: .cfa -16 + ^ x21: .cfa -32 + ^ .ra: .cfa -40 + ^ x29: .cfa -48 + ^
STACK CFI 20204 .cfa: sp 48 +
STACK CFI 20210 .cfa: sp 0 +
STACK CFI 20214 .cfa: sp 48 +
STACK CFI 20220 .cfa: sp 0 +
STACK CFI INIT 20224 4 .cfa: sp 0 +
STACK CFI INIT 20228 10 .cfa: sp 0 +
STACK CFI 2022c .cfa: sp 16 +
STACK CFI 20230 .cfa: x29 16 + .ra: .cfa -8 + ^ x29: .cfa -16 + ^
STACK CFI INIT 2038c 34 .cfa: sp 0 +
STACK CFI 20390 .cfa: sp 16 +
STACK CFI 20394 .cfa: x29 16 + .ra: .cfa -8 + ^ x29: .cfa -16 + ^
STACK CFI INIT 204ec 80 .cfa: sp 0 +
STACK CFI 204f0 .cfa: sp 48 +
STACK CFI 204fc .cfa: x29 48 + x19: .cfa -8 + ^ x20: .cfa -16 + ^ x21: .cfa -32 + ^ .ra: .cfa -40 + ^ x29: .cfa -48 + ^
STACK CFI 2055c .cfa: sp 48 +
STACK CFI 20568 .cfa: sp 0 +
STACK CFI INIT 2056c 24 .cfa: sp 0 +
STACK CFI 20570 .cfa: sp 32 +
STACK CFI 20578 .cfa: x29 32 + x19: .cfa -16 + ^ .ra: .cfa -24 + ^ x29: .cfa -32 + ^
STACK CFI 20584 .cfa: sp 32 +
STACK CFI 2058c .cfa: sp 0 +
STACK CFI INIT 20910 14 .cfa: sp 0 +
STACK CFI 20914 .cfa: sp 16 +
STACK CFI 20918 .cfa: x29 16 + .ra: .cfa -8 + ^ x29: .cfa -16 + ^
STACK CFI INIT 20974 30 .cfa: sp 0 +
STACK CFI 20978 .cfa: sp 32 +
STACK CFI 20980 .cfa: x29 32 + x19: .cfa -16 + ^ .ra: .cfa -24 + ^ x29: .cfa -32 + ^
STACK CFI 20998 .cfa: sp 32 +
STACK CFI 209a0 .cfa: sp 0 +
STACK CFI INIT 209a4 34 .cfa: sp 0 +
STACK CFI 209a8 .cfa: sp 32 +
STACK CFI 209b0 .cfa: x29 32 + x19: .cfa -16 + ^ .ra: .cfa -24 + ^ x29: .cfa -32 + ^
STACK CFI INIT 20b50 148 .cfa: sp 0 +
STACK CFI 20b54 .cfa: sp 48 +
STACK CFI 20b60 .cfa: x29 48 + x19: .cfa -8 + ^ x20: .cfa -16 + ^ x21: .cfa -32 + ^ .ra: .cfa -40 + ^ x29: .cfa -48 + ^
STACK CFI 20c88 .cfa: sp 48 +
STACK CFI 20c94 .cfa: sp 0 +
STACK CFI INIT 20c98 80 .cfa: sp 0 +
STACK CFI 20c9c .cfa: sp 48 +
STACK CFI 20ca8 .cfa: x29 48 + x19: .cfa -8 + ^ x20: .cfa -16 + ^ x21: .cfa -24 + ^ x22: .cfa -32 + ^ .ra: .cfa -40 + ^ x29: .cfa -48 + ^
STACK CFI 20cc0 .cfa: sp 48 +
STACK CFI 20ccc .cfa: sp 0 +
STACK CFI 20cd0 .cfa: x29 48 +
STACK CFI 20d00 .cfa: sp 48 +
STACK CFI 20d0c .cfa: sp 0 +
STACK CFI 20d10 .cfa: x29 48 +
STACK CFI INIT 20d18 68 .cfa: sp 0 +
STACK CFI 20d1c .cfa: sp 32 +
STACK CFI 20d24 .cfa: x29 32 + x19: .cfa -8 + ^ x20: .cfa -16 + ^ .ra: .cfa -24 + ^ x29: .cfa -32 + ^
STACK CFI 20d3c .cfa: sp 32 +
STACK CFI 20d44 .cfa: sp 0 +
STACK CFI 20d48 .cfa: x29 32 +
STACK CFI 20d74 .cfa: sp 32 +
STACK CFI 20d7c .cfa: sp 0 +
STACK CFI INIT 20d80 14 .cfa: sp 0 +
STACK CFI 20d84 .cfa: sp 16 +
STACK CFI 20d88 .cfa: x29 16 + .ra: .cfa -8 + ^ x29: .cfa -16 + ^
STACK CFI INIT 20d94 4 .cfa: sp 0 +
STACK CFI INIT 20d98 14 .cfa: sp 0 +
STACK CFI INIT 20dac 84 .cfa: sp 0 +
STACK CFI 20db4 .cfa: sp 32 +
STACK CFI 20dbc .cfa: x29 32 + x19: .cfa -8 + ^ x20: .cfa -16 + ^ .ra: .cfa -24 + ^ x29: .cfa -32 + ^
STACK CFI 20dfc .cfa: sp 32 +
STACK CFI 20e04 .cfa: sp 0 +
STACK CFI 20e0c .cfa: x29 32 +
STACK CFI INIT 20e30 168 .cfa: sp 0 +
STACK CFI 20e34 .cfa: sp 96 +
STACK CFI 20e48 .cfa: x29 64 + x19: .cfa -8 + ^ x20: .cfa -16 + ^ x21: .cfa -24 + ^ x22: .cfa -32 + ^ x23: .cfa -48 + ^ .ra: .cfa -56 + ^ x29: .cfa -64 + ^
STACK CFI 20f48 .cfa: sp 96 +
STACK CFI 20f5c .cfa: sp 0 +
STACK CFI 20f60 .cfa: x29 64 +
STACK CFI 20f7c .cfa: sp 96 +
STACK CFI 20f90 .cfa: sp 0 +
STACK CFI 20f94 .cfa: x29 64 +
STACK CFI INIT 2115c 164 .cfa: sp 0 +
STACK CFI 21160 .cfa: sp 96 +
STACK CFI 21174 .cfa: x29 64 + x19: .cfa -8 + ^ x20: .cfa -16 + ^ x21: .cfa -24 + ^ x22: .cfa -32 + ^ x23: .cfa -48 + ^ .ra: .cfa -56 + ^ x29: .cfa -64 + ^
STACK CFI 21270 .cfa: sp 96 +
STACK CFI 21284 .cfa: sp 0 +
STACK CFI 21288 .cfa: x29 64 +
STACK CFI 212a4 .cfa: sp 96 +
STACK CFI 212b8 .cfa: sp 0 +
STACK CFI 212bc .cfa: x29 64 +
STACK CFI INIT 212c0 164 .cfa: sp 0 +
STACK CFI 212c4 .cfa: sp 96 +
STACK CFI 212d8 .cfa: x29 64 + x19: .cfa -8 + ^ x20: .cfa -16 + ^ x21: .cfa -24 + ^ x22: .cfa -32 + ^ x23: .cfa -48 + ^ .ra: .cfa -56 + ^ x29: .cfa -64 + ^
STACK CFI 213d4 .cfa: sp 96 +
STACK CFI 213e8 .cfa: sp 0 +
STACK CFI 213ec .cfa: x29 64 +
STACK CFI 21408 .cfa: sp 96 +
STACK CFI 2141c .cfa: sp 0 +
STACK CFI 21420 .cfa: x29 64 +
STACK CFI INIT 21928 c4 .cfa: sp 0 +
STACK CFI 2192c .cfa: sp 32 +
STACK CFI 21934 .cfa: x29 32 + x19: .cfa -16 + ^ .ra: .cfa -24 + ^ x29: .cfa -32 + ^
STACK CFI 219e0 .cfa: sp 32 +
STACK CFI 219e8 .cfa: sp 0 +
STACK CFI INIT 219ec 50 .cfa: sp 0 +
STACK CFI 219f0 .cfa: sp 32 +
STACK CFI 219f8 .cfa: x29 32 + x19: .cfa -16 + ^ .ra: .cfa -24 + ^ x29: .cfa -32 + ^
STACK CFI 21a10 .cfa: sp 32 +
STACK CFI 21a18 .cfa: sp 0 +
STACK CFI 21a1c .cfa: x29 32 +
STACK CFI 21a30 .cfa: sp 32 +
STACK CFI 21a38 .cfa: sp 0 +
STACK CFI INIT 21a3c 64 .cfa: sp 0 +
STACK CFI 21a40 .cfa: sp 32 +
STACK CFI 21a48 .cfa: x29 32 + x19: .cfa -16 + ^ .ra: .cfa -24 + ^ x29: .cfa -32 + ^
STACK CFI 21a74 .cfa: sp 32 +
STACK CFI 21a7c .cfa: sp 0 +
STACK CFI 21a80 .cfa: x29 32 +
STACK CFI 21a94 .cfa: sp 32 +
STACK CFI 21a9c .cfa: sp 0 +
STACK CFI INIT 22100 14 .cfa: sp 0 +
STACK CFI 22104 .cfa: sp 16 +
STACK CFI 22108 .cfa: x29 16 + .ra: .cfa -8 + ^ x29: .cfa -16 + ^
STACK CFI INIT 22114 14 .cfa: sp 0 +
STACK CFI 22118 .cfa: sp 16 +
STACK CFI 2211c .cfa: x29 16 + .ra: .cfa -8 + ^ x29: .cfa -16 + ^
STACK CFI INIT 22128 c .cfa: sp 0 +
STACK CFI 2212c .cfa: sp 16 +
STACK CFI 22130 .cfa: x29 16 + .ra: .cfa -8 + ^ x29: .cfa -16 + ^
STACK CFI INIT 22184 30 .cfa: sp 0 +
STACK CFI 22188 .cfa: sp 32 +
STACK CFI 22190 .cfa: x29 32 + x19: .cfa -16 + ^ .ra: .cfa -24 + ^ x29: .cfa -32 + ^
STACK CFI 221a8 .cfa: sp 32 +
STACK CFI 221b0 .cfa: sp 0 +
STACK CFI INIT 221b4 c .cfa: sp 0 +
STACK CFI 221b8 .cfa: sp 16 +
STACK CFI 221bc .cfa: x29 16 + .ra: .cfa -8 + ^ x29: .cfa -16 + ^
STACK CFI INIT 221c0 4 .cfa: sp 0 +
STACK CFI INIT 221c4 4 .cfa: sp 0 +
STACK CFI INIT 221c8 38 .cfa: sp 0 +
STACK CFI 221cc .cfa: sp 32 +
STACK CFI 221d4 .cfa: x29 32 + x19: .cfa -16 + ^ .ra: .cfa -24 + ^ x29: .cfa -32 + ^
STACK CFI 221f4 .cfa: sp 32 +
STACK CFI 221fc .cfa: sp 0 +
STACK CFI INIT 22200 18 .cfa: sp 0 +
STACK CFI INIT 22218 4 .cfa: sp 0 +
STACK CFI INIT 2221c 4 .cfa: sp 0 +
STACK CFI INIT 22220 10 .cfa: sp 0 +
STACK CFI INIT 22230 1c .cfa: sp 0 +
STACK CFI INIT 2224c c .cfa: sp 0 +
STACK CFI INIT 22258 168 .cfa: sp 0 +
STACK CFI 2225c .cfa: sp 80 +
STACK CFI 22270 .cfa: x29 80 + x19: .cfa -8 + ^ x20: .cfa -16 + ^ x21: .cfa -24 + ^ x22: .cfa -32 + ^ x23: .cfa -40 + ^ x24: .cfa -48 + ^ x25: .cfa -56 + ^ x26: .cfa -64 + ^ .ra: .cfa -72 + ^ x29: .cfa -80 + ^
STACK CFI 223a8 .cfa: sp 80 +
STACK CFI 223bc .cfa: sp 0 +
STACK CFI INIT 223c0 1b0 .cfa: sp 0 +
STACK CFI INIT 2289c 4 .cfa: sp 0 +
STACK CFI INIT 228a0 14 .cfa: sp 0 +
STACK CFI INIT 228b4 4 .cfa: sp 0 +
STACK CFI INIT 228b8 14 .cfa: sp 0 +
STACK CFI INIT 22a5c 4 .cfa: sp 0 +
STACK CFI INIT 22a60 4 .cfa: sp 0 +
STACK CFI INIT 22a64 34 .cfa: sp 0 +
STACK CFI 22a68 .cfa: sp 32 +
STACK CFI 22a70 .cfa: x29 32 + x19: .cfa -16 + ^ .ra: .cfa -24 + ^ x29: .cfa -32 + ^
STACK CFI 22a8c .cfa: sp 32 +
STACK CFI 22a94 .cfa: sp 0 +
STACK CFI INIT 22a98 14 .cfa: sp 0 +
STACK CFI INIT 22aac 4 .cfa: sp 0 +
STACK CFI INIT 22ab0 4 .cfa: sp 0 +
STACK CFI INIT 22ab4 15c .cfa: sp 0 +
STACK CFI 22ab8 .cfa: sp 80 +
STACK CFI 22ad0 .cfa: x29 56 + x19: .cfa -8 + ^ x20: .cfa -16 + ^ x21: .cfa -24 + ^ x22: .cfa -32 + ^ x23: .cfa -40 + ^ .ra: .cfa -48 + ^ x29: .cfa -56 + ^ v8: .cfa -64 + ^
STACK CFI 22bf0 .cfa: sp 80 +
STACK CFI 22c08 .cfa: sp 0 +
STACK CFI 22c0c .cfa: x29 56 +
STACK CFI INIT 22c10 1c .cfa: sp 0 +
STACK CFI INIT 22c2c c .cfa: sp 0 +
STACK CFI INIT 22c38 104 .cfa: sp 0 +
STACK CFI 22c3c .cfa: sp 64 +
STACK CFI 22c4c .cfa: x29 64 + x19: .cfa -8 + ^ x20: .cfa -16 + ^ x21: .cfa -24 + ^ x22: .cfa -32 + ^ x23: .cfa -48 + ^ .ra: .cfa -56 + ^ x29: .cfa -64 + ^
STACK CFI 22ca8 .cfa: sp 64 +
STACK CFI 22cb8 .cfa: sp 0 +
STACK CFI 22cbc .cfa: x29 64 +
STACK CFI 22cd8 .cfa: sp 64 +
STACK CFI 22ce8 .cfa: sp 0 +
STACK CFI 22cec .cfa: x29 64 +
STACK CFI 22d28 .cfa: sp 64 +
STACK CFI 22d38 .cfa: sp 0 +
STACK CFI INIT 22d3c 4 .cfa: sp 0 +
STACK CFI INIT 22d40 4 .cfa: sp 0 +
STACK CFI INIT 22d44 34 .cfa: sp 0 +
STACK CFI 22d48 .cfa: sp 32 +
STACK CFI 22d50 .cfa: x29 32 + x19: .cfa -16 + ^ .ra: .cfa -24 + ^ x29: .cfa -32 + ^
STACK CFI 22d6c .cfa: sp 32 +
STACK CFI 22d74 .cfa: sp 0 +
STACK CFI INIT 22d78 14 .cfa: sp 0 +
STACK CFI INIT 22d8c 4 .cfa: sp 0 +
STACK CFI INIT 22d90 4 .cfa: sp 0 +
STACK CFI INIT 22d94 98 .cfa: sp 0 +
STACK CFI 22da4 .cfa: sp 32 +
STACK CFI 22dac .cfa: x29 32 + x19: .cfa -16 + ^ .ra: .cfa -24 + ^ x29: .cfa -32 + ^
STACK CFI 22e20 .cfa: sp 32 +
STACK CFI 22e28 .cfa: sp 0 +
STACK CFI INIT 22e2c 1c .cfa: sp 0 +
STACK CFI INIT 22e48 c .cfa: sp 0 +
STACK CFI INIT 23a48 98 .cfa: sp 0 +
STACK CFI 23a4c .cfa: sp 304 +
STACK CFI 23a58 .cfa: x29 32 + x19: .cfa -8 + ^ x28: .cfa -16 + ^ .ra: .cfa -24 + ^ x29: .cfa -32 + ^
STACK CFI 23acc .cfa: sp 304 +
STACK CFI 23ad8 .cfa: sp 0 +
STACK CFI 23adc .cfa: x29 32 +
STACK CFI INIT 242c0 8 .cfa: sp 0 +
STACK CFI INIT 246a4 70 .cfa: sp 0 +
STACK CFI 246a8 .cfa: sp 48 +
STACK CFI 246b4 .cfa: x29 32 + x19: .cfa -16 + ^ .ra: .cfa -24 + ^ x29: .cfa -32 + ^
STACK CFI 246ec .cfa: sp 48 +
STACK CFI 246f8 .cfa: sp 0 +
STACK CFI 246fc .cfa: x29 32 +
STACK CFI INIT 24714 5c .cfa: sp 0 +
STACK CFI 24718 .cfa: sp 32 +
STACK CFI 24720 .cfa: x29 32 + x19: .cfa -16 + ^ .ra: .cfa -24 + ^ x29: .cfa -32 + ^
STACK CFI 24764 .cfa: sp 32 +
STACK CFI 2476c .cfa: sp 0 +
STACK CFI INIT 24770 64 .cfa: sp 0 +
STACK CFI 24774 .cfa: sp 32 +
STACK CFI 2477c .cfa: x29 32 + x19: .cfa -16 + ^ .ra: .cfa -24 + ^ x29: .cfa -32 + ^
STACK CFI 247c8 .cfa: sp 32 +
STACK CFI 247d0 .cfa: sp 0 +
STACK CFI INIT 247d4 4 .cfa: sp 0 +
STACK CFI INIT 247d8 34 .cfa: sp 0 +
STACK CFI 247dc .cfa: sp 16 +
STACK CFI 247e0 .cfa: x29 16 + .ra: .cfa -8 + ^ x29: .cfa -16 + ^
STACK CFI INIT 2480c 24 .cfa: sp 0 +
STACK CFI 24810 .cfa: sp 32 +
STACK CFI 24818 .cfa: x29 32 + x19: .cfa -16 + ^ .ra: .cfa -24 + ^ x29: .cfa -32 + ^
STACK CFI 24824 .cfa: sp 32 +
STACK CFI 2482c .cfa: sp 0 +
STACK CFI INIT 24830 70 .cfa: sp 0 +
STACK CFI 24834 .cfa: sp 48 +
STACK CFI 24840 .cfa: x29 32 + x19: .cfa -16 + ^ .ra: .cfa -24 + ^ x29: .cfa -32 + ^
STACK CFI 24878 .cfa: sp 48 +
STACK CFI 24884 .cfa: sp 0 +
STACK CFI 24888 .cfa: x29 32 +
STACK CFI INIT 248a0 5c .cfa: sp 0 +
STACK CFI 248a4 .cfa: sp 32 +
STACK CFI 248ac .cfa: x29 32 + x19: .cfa -16 + ^ .ra: .cfa -24 + ^ x29: .cfa -32 + ^
STACK CFI 248f0 .cfa: sp 32 +
STACK CFI 248f8 .cfa: sp 0 +
STACK CFI INIT 248fc 64 .cfa: sp 0 +
STACK CFI 24900 .cfa: sp 32 +
STACK CFI 24908 .cfa: x29 32 + x19: .cfa -16 + ^ .ra: .cfa -24 + ^ x29: .cfa -32 + ^
STACK CFI 24954 .cfa: sp 32 +
STACK CFI 2495c .cfa: sp 0 +
STACK CFI INIT 24960 4 .cfa: sp 0 +
STACK CFI INIT 24964 24 .cfa: sp 0 +
STACK CFI 24968 .cfa: sp 16 +
STACK CFI 2496c .cfa: x29 16 + .ra: .cfa -8 + ^ x29: .cfa -16 + ^
STACK CFI 24980 .cfa: sp 16 +
STACK CFI 24984 .cfa: sp 0 +
STACK CFI INIT 24988 10 .cfa: sp 0 +
STACK CFI INIT 24998 4 .cfa: sp 0 +
STACK CFI INIT 2499c 4 .cfa: sp 0 +
STACK CFI INIT 249a0 1c .cfa: sp 0 +
STACK CFI 249a4 .cfa: sp 16 +
STACK CFI 249a8 .cfa: x29 16 + .ra: .cfa -8 + ^ x29: .cfa -16 + ^
STACK CFI 249b4 .cfa: sp 16 +
STACK CFI 249b8 .cfa: sp 0 +
STACK CFI INIT 249bc 1c .cfa: sp 0 +
STACK CFI INIT 249d8 c .cfa: sp 0 +
STACK CFI INIT 249e4 4 .cfa: sp 0 +
STACK CFI INIT 249e8 24 .cfa: sp 0 +
STACK CFI 249ec .cfa: sp 16 +
STACK CFI 249f0 .cfa: x29 16 + .ra: .cfa -8 + ^ x29: .cfa -16 + ^
STACK CFI 24a04 .cfa: sp 16 +
STACK CFI 24a08 .cfa: sp 0 +
STACK CFI INIT 24a0c 10 .cfa: sp 0 +
STACK CFI INIT 24a1c 4 .cfa: sp 0 +
STACK CFI INIT 24a20 4 .cfa: sp 0 +
STACK CFI INIT 24a24 8c .cfa: sp 0 +
STACK CFI 24a28 .cfa: sp 32 +
STACK CFI 24a30 .cfa: x29 32 + x19: .cfa -16 + ^ .ra: .cfa -24 + ^ x29: .cfa -32 + ^
STACK CFI 24a48 .cfa: sp 32 +
STACK CFI 24a50 .cfa: sp 0 +
STACK CFI 24a54 .cfa: x29 32 +
STACK CFI 24a78 .cfa: sp 32 +
STACK CFI 24a80 .cfa: sp 0 +
STACK CFI 24a84 .cfa: x29 32 +
STACK CFI 24aa4 .cfa: sp 32 +
STACK CFI 24aac .cfa: sp 0 +
STACK CFI INIT 24ab0 1c .cfa: sp 0 +
STACK CFI INIT 24acc c .cfa: sp 0 +
STACK CFI INIT 24ad8 4 .cfa: sp 0 +
STACK CFI INIT 24adc 34 .cfa: sp 0 +
STACK CFI 24ae0 .cfa: sp 32 +
STACK CFI 24ae8 .cfa: x29 32 + x19: .cfa -16 + ^ .ra: .cfa -24 + ^ x29: .cfa -32 + ^
STACK CFI 24b04 .cfa: sp 32 +
STACK CFI 24b0c .cfa: sp 0 +
STACK CFI INIT 24b10 14 .cfa: sp 0 +
STACK CFI INIT 24b24 4 .cfa: sp 0 +
STACK CFI INIT 24b28 4 .cfa: sp 0 +
STACK CFI INIT 24d44 1c .cfa: sp 0 +
STACK CFI INIT 24d60 c .cfa: sp 0 +
STACK CFI INIT 24d6c 4 .cfa: sp 0 +
STACK CFI INIT 24d70 34 .cfa: sp 0 +
STACK CFI 24d74 .cfa: sp 32 +
STACK CFI 24d7c .cfa: x29 32 + x19: .cfa -16 + ^ .ra: .cfa -24 + ^ x29: .cfa -32 + ^
STACK CFI 24d98 .cfa: sp 32 +
STACK CFI 24da0 .cfa: sp 0 +
STACK CFI INIT 24da4 14 .cfa: sp 0 +
STACK CFI INIT 24db8 4 .cfa: sp 0 +
STACK CFI INIT 24dbc 4 .cfa: sp 0 +
STACK CFI INIT 24fe4 1c .cfa: sp 0 +
STACK CFI INIT 25000 c .cfa: sp 0 +
STACK CFI INIT 2500c 4 .cfa: sp 0 +
STACK CFI INIT 25010 4 .cfa: sp 0 +
STACK CFI INIT 25014 34 .cfa: sp 0 +
STACK CFI 25018 .cfa: sp 32 +
STACK CFI 25020 .cfa: x29 32 + x19: .cfa -16 + ^ .ra: .cfa -24 + ^ x29: .cfa -32 + ^
STACK CFI 2503c .cfa: sp 32 +
STACK CFI 25044 .cfa: sp 0 +
STACK CFI INIT 25048 14 .cfa: sp 0 +
STACK CFI INIT 2505c 4 .cfa: sp 0 +
STACK CFI INIT 25060 4 .cfa: sp 0 +
STACK CFI INIT 25278 1c .cfa: sp 0 +
STACK CFI INIT 25294 c .cfa: sp 0 +
STACK CFI INIT 252a0 4 .cfa: sp 0 +
STACK CFI INIT 252a4 24 .cfa: sp 0 +
STACK CFI 252a8 .cfa: sp 16 +
STACK CFI 252ac .cfa: x29 16 + .ra: .cfa -8 + ^ x29: .cfa -16 + ^
STACK CFI 252c0 .cfa: sp 16 +
STACK CFI 252c4 .cfa: sp 0 +
STACK CFI INIT 252c8 10 .cfa: sp 0 +
STACK CFI INIT 252d8 4 .cfa: sp 0 +
STACK CFI INIT 252dc 4 .cfa: sp 0 +
STACK CFI INIT 252e0 3c .cfa: sp 0 +
STACK CFI 252e4 .cfa: sp 32 +
STACK CFI 252ec .cfa: x29 32 + x19: .cfa -16 + ^ .ra: .cfa -24 + ^ x29: .cfa -32 + ^
STACK CFI 252f8 .cfa: sp 32 +
STACK CFI 25300 .cfa: sp 0 +
STACK CFI 25304 .cfa: x29 32 +
STACK CFI 25310 .cfa: sp 32 +
STACK CFI 25318 .cfa: sp 0 +
STACK CFI INIT 2531c 1c .cfa: sp 0 +
STACK CFI INIT 25338 c .cfa: sp 0 +
STACK CFI INIT 25344 4 .cfa: sp 0 +
STACK CFI INIT 25348 4 .cfa: sp 0 +
STACK CFI INIT 2534c 34 .cfa: sp 0 +
STACK CFI 25350 .cfa: sp 32 +
STACK CFI 25358 .cfa: x29 32 + x19: .cfa -16 + ^ .ra: .cfa -24 + ^ x29: .cfa -32 + ^
STACK CFI 25374 .cfa: sp 32 +
STACK CFI 2537c .cfa: sp 0 +
STACK CFI INIT 25380 14 .cfa: sp 0 +
STACK CFI INIT 25394 4 .cfa: sp 0 +
STACK CFI INIT 25398 4 .cfa: sp 0 +
STACK CFI INIT 2539c 44 .cfa: sp 0 +
STACK CFI 253a0 .cfa: sp 32 +
STACK CFI 253a8 .cfa: x29 32 + x19: .cfa -16 + ^ .ra: .cfa -24 + ^ x29: .cfa -32 + ^
STACK CFI 253c8 .cfa: sp 32 +
STACK CFI 253d0 .cfa: sp 0 +
STACK CFI 253d4 .cfa: sp 32 +
STACK CFI 253dc .cfa: sp 0 +
STACK CFI INIT 253e0 1c .cfa: sp 0 +
STACK CFI INIT 253fc c .cfa: sp 0 +
STACK CFI INIT 25408 4c .cfa: sp 0 +
STACK CFI INIT 25454 5c .cfa: sp 0 +
STACK CFI 25458 .cfa: sp 32 +
STACK CFI 25460 .cfa: x29 32 + x19: .cfa -16 + ^ .ra: .cfa -24 + ^ x29: .cfa -32 + ^
STACK CFI 254a4 .cfa: sp 32 +
STACK CFI 254ac .cfa: sp 0 +
STACK CFI INIT 25544 7c .cfa: sp 0 +
STACK CFI 25548 .cfa: sp 32 +
STACK CFI 25550 .cfa: x29 32 + x19: .cfa -16 + ^ .ra: .cfa -24 + ^ x29: .cfa -32 + ^
STACK CFI 25588 .cfa: sp 32 +
STACK CFI 25590 .cfa: sp 0 +
STACK CFI 25594 .cfa: x29 32 +
STACK CFI 25598 .cfa: sp 32 +
STACK CFI 255a0 .cfa: sp 0 +
STACK CFI 255a4 .cfa: x29 32 +
STACK CFI 255b4 .cfa: sp 32 +
STACK CFI 255bc .cfa: sp 0 +
STACK CFI INIT 255c0 40 .cfa: sp 0 +
STACK CFI INIT 25600 50 .cfa: sp 0 +
STACK CFI 25604 .cfa: sp 32 +
STACK CFI 2560c .cfa: x29 32 + x19: .cfa -16 + ^ .ra: .cfa -24 + ^ x29: .cfa -32 + ^
STACK CFI 25644 .cfa: sp 32 +
STACK CFI 2564c .cfa: sp 0 +
STACK CFI INIT 25650 74 .cfa: sp 0 +
STACK CFI 25654 .cfa: sp 48 +
STACK CFI 25660 .cfa: x29 32 + x19: .cfa -16 + ^ .ra: .cfa -24 + ^ x29: .cfa -32 + ^
STACK CFI 2569c .cfa: sp 48 +
STACK CFI 256a8 .cfa: sp 0 +
STACK CFI 256ac .cfa: x29 32 +
STACK CFI INIT 256c4 1c .cfa: sp 0 +
STACK CFI INIT 256e0 c .cfa: sp 0 +
STACK CFI INIT 256ec 4c .cfa: sp 0 +
STACK CFI INIT 25738 5c .cfa: sp 0 +
STACK CFI 2573c .cfa: sp 32 +
STACK CFI 25744 .cfa: x29 32 + x19: .cfa -16 + ^ .ra: .cfa -24 + ^ x29: .cfa -32 + ^
STACK CFI 25788 .cfa: sp 32 +
STACK CFI 25790 .cfa: sp 0 +
STACK CFI INIT 25828 7c .cfa: sp 0 +
STACK CFI 2582c .cfa: sp 32 +
STACK CFI 25834 .cfa: x29 32 + x19: .cfa -16 + ^ .ra: .cfa -24 + ^ x29: .cfa -32 + ^
STACK CFI 2586c .cfa: sp 32 +
STACK CFI 25874 .cfa: sp 0 +
STACK CFI 25878 .cfa: x29 32 +
STACK CFI 2587c .cfa: sp 32 +
STACK CFI 25884 .cfa: sp 0 +
STACK CFI 25888 .cfa: x29 32 +
STACK CFI 25898 .cfa: sp 32 +
STACK CFI 258a0 .cfa: sp 0 +
STACK CFI INIT 258a4 40 .cfa: sp 0 +
STACK CFI INIT 258e4 50 .cfa: sp 0 +
STACK CFI 258e8 .cfa: sp 32 +
STACK CFI 258f0 .cfa: x29 32 + x19: .cfa -16 + ^ .ra: .cfa -24 + ^ x29: .cfa -32 + ^
STACK CFI 25928 .cfa: sp 32 +
STACK CFI 25930 .cfa: sp 0 +
STACK CFI INIT 25934 74 .cfa: sp 0 +
STACK CFI 25938 .cfa: sp 48 +
STACK CFI 25944 .cfa: x29 32 + x19: .cfa -16 + ^ .ra: .cfa -24 + ^ x29: .cfa -32 + ^
STACK CFI 25980 .cfa: sp 48 +
STACK CFI 2598c .cfa: sp 0 +
STACK CFI 25990 .cfa: x29 32 +
STACK CFI INIT 259a8 1c .cfa: sp 0 +
STACK CFI INIT 259c4 c .cfa: sp 0 +
STACK CFI INIT 25ca8 2c .cfa: sp 0 +
STACK CFI 25cac .cfa: sp 32 +
STACK CFI 25cb4 .cfa: x29 32 + x19: .cfa -16 + ^ .ra: .cfa -24 + ^ x29: .cfa -32 + ^
STACK CFI 25cc8 .cfa: sp 32 +
STACK CFI 25cd0 .cfa: sp 0 +
STACK CFI INIT 25f9c c .cfa: sp 0 +
STACK CFI INIT 25fa8 c .cfa: sp 0 +
STACK CFI INIT 25fb4 10 .cfa: sp 0 +
STACK CFI INIT 25fc4 4 .cfa: sp 0 +
STACK CFI INIT 25fc8 8 .cfa: sp 0 +
STACK CFI INIT 25fd0 4 .cfa: sp 0 +
STACK CFI INIT 25fd4 4 .cfa: sp 0 +
STACK CFI INIT 25fd8 4 .cfa: sp 0 +
STACK CFI INIT 25fdc 4 .cfa: sp 0 +
STACK CFI INIT 25fe0 4 .cfa: sp 0 +
STACK CFI INIT 25fe4 8 .cfa: sp 0 +
STACK CFI INIT 25fec 4 .cfa: sp 0 +
STACK CFI INIT 25ff0 24 .cfa: sp 0 +
STACK CFI 25ff4 .cfa: sp 16 +
STACK CFI 25ff8 .cfa: x29 16 + .ra: .cfa -8 + ^ x29: .cfa -16 + ^
STACK CFI 2600c .cfa: sp 16 +
STACK CFI 26010 .cfa: sp 0 +
STACK CFI INIT 26014 10 .cfa: sp 0 +
STACK CFI INIT 26024 4 .cfa: sp 0 +
STACK CFI INIT 26028 4 .cfa: sp 0 +
STACK CFI INIT 26118 1c .cfa: sp 0 +
STACK CFI INIT 26134 c .cfa: sp 0 +
STACK CFI INIT 26a30 14 .cfa: sp 0 +
STACK CFI 26a34 .cfa: sp 16 +
STACK CFI 26a38 .cfa: x29 16 + .ra: .cfa -8 + ^ x29: .cfa -16 + ^
STACK CFI INIT 26a44 3c .cfa: sp 0 +
STACK CFI 26a48 .cfa: sp 32 +
STACK CFI 26a50 .cfa: x29 32 + x19: .cfa -16 + ^ .ra: .cfa -24 + ^ x29: .cfa -32 + ^
STACK CFI 26a74 .cfa: sp 32 +
STACK CFI 26a7c .cfa: sp 0 +
STACK CFI INIT 26a80 3d8 .cfa: sp 0 +
STACK CFI 26a84 .cfa: sp 80 +
STACK CFI 26a98 .cfa: x29 80 + x19: .cfa -8 + ^ x20: .cfa -16 + ^ x21: .cfa -24 + ^ x22: .cfa -32 + ^ x23: .cfa -40 + ^ x24: .cfa -48 + ^ x25: .cfa -64 + ^ .ra: .cfa -72 + ^ x29: .cfa -80 + ^
STACK CFI 26cec .cfa: sp 80 +
STACK CFI 26d00 .cfa: sp 0 +
STACK CFI 26d04 .cfa: x29 80 +
STACK CFI INIT 26e58 b4 .cfa: sp 0 +
STACK CFI 26e5c .cfa: sp 64 +
STACK CFI 26e68 .cfa: x29 32 + x19: .cfa -8 + ^ x20: .cfa -16 + ^ .ra: .cfa -24 + ^ x29: .cfa -32 + ^
STACK CFI 26ef8 .cfa: sp 64 +
STACK CFI 26f04 .cfa: sp 0 +
STACK CFI 26f08 .cfa: x29 32 +
STACK CFI INIT 27230 2e8 .cfa: sp 0 +
STACK CFI 27234 .cfa: sp 128 +
STACK CFI 27250 .cfa: x29 96 + x19: .cfa -8 + ^ x20: .cfa -16 + ^ x21: .cfa -24 + ^ x22: .cfa -32 + ^ x23: .cfa -40 + ^ x24: .cfa -48 + ^ x25: .cfa -56 + ^ x26: .cfa -64 + ^ x27: .cfa -72 + ^ x28: .cfa -80 + ^ .ra: .cfa -88 + ^ x29: .cfa -96 + ^
STACK CFI 274b4 .cfa: sp 128 +
STACK CFI 274d0 .cfa: sp 0 +
STACK CFI 274d4 .cfa: x29 96 +
STACK CFI INIT 27518 78 .cfa: sp 0 +
STACK CFI 2751c .cfa: sp 32 +
STACK CFI 27524 .cfa: x29 32 + x19: .cfa -8 + ^ x20: .cfa -16 + ^ .ra: .cfa -24 + ^ x29: .cfa -32 + ^
STACK CFI 27578 .cfa: sp 32 +
STACK CFI 27580 .cfa: sp 0 +
STACK CFI 27584 .cfa: sp 32 +
STACK CFI 2758c .cfa: sp 0 +
STACK CFI INIT 27920 198 .cfa: sp 0 +
STACK CFI 27924 .cfa: sp 144 +
STACK CFI 27930 .cfa: x29 32 + x19: .cfa -8 + ^ x20: .cfa -16 + ^ .ra: .cfa -24 + ^ x29: .cfa -32 + ^
STACK CFI 27aa4 .cfa: sp 144 +
STACK CFI 27ab0 .cfa: sp 0 +
STACK CFI 27ab4 .cfa: x29 32 +
STACK CFI INIT 27ab8 48 .cfa: sp 0 +
STACK CFI 27abc .cfa: sp 32 +
STACK CFI 27ac4 .cfa: x29 32 + x19: .cfa -16 + ^ .ra: .cfa -24 + ^ x29: .cfa -32 + ^
STACK CFI 27af4 .cfa: sp 32 +
STACK CFI 27afc .cfa: sp 0 +
STACK CFI INIT 27b00 5c .cfa: sp 0 +
STACK CFI 27b04 .cfa: sp 32 +
STACK CFI 27b0c .cfa: x29 32 + x19: .cfa -16 + ^ .ra: .cfa -24 + ^ x29: .cfa -32 + ^
STACK CFI 27b50 .cfa: sp 32 +
STACK CFI 27b58 .cfa: sp 0 +
STACK CFI INIT 27b5c 64 .cfa: sp 0 +
STACK CFI 27b60 .cfa: sp 32 +
STACK CFI 27b68 .cfa: x29 32 + x19: .cfa -16 + ^ .ra: .cfa -24 + ^ x29: .cfa -32 + ^
STACK CFI 27bb4 .cfa: sp 32 +
STACK CFI 27bbc .cfa: sp 0 +
STACK CFI INIT 27bc0 14 .cfa: sp 0 +
STACK CFI 27bc4 .cfa: sp 16 +
STACK CFI 27bc8 .cfa: x29 16 + .ra: .cfa -8 + ^ x29: .cfa -16 + ^
STACK CFI INIT 27bd4 14 .cfa: sp 0 +
STACK CFI 27bd8 .cfa: sp 16 +
STACK CFI 27bdc .cfa: x29 16 + .ra: .cfa -8 + ^ x29: .cfa -16 + ^
STACK CFI INIT 27be8 308 .cfa: sp 0 +
STACK CFI 27bec .cfa: sp 144 +
STACK CFI 27c0c .cfa: x29 80 + x19: .cfa -8 + ^ x20: .cfa -16 + ^ x21: .cfa -24 + ^ x22: .cfa -32 + ^ x23: .cfa -40 + ^ x24: .cfa -48 + ^ x25: .cfa -56 + ^ x26: .cfa -64 + ^ .ra: .cfa -72 + ^ x29: .cfa -80 + ^ v8: .cfa -88 + ^ v9: .cfa -96 + ^ v10: .cfa -104 + ^ v11: .cfa -112 + ^
STACK CFI 27e9c .cfa: sp 144 +
STACK CFI 27ebc .cfa: sp 0 +
STACK CFI 27ec0 .cfa: x29 80 +
STACK CFI INIT 27ef0 258 .cfa: sp 0 +
STACK CFI 27ef4 .cfa: sp 112 +
STACK CFI 27f10 .cfa: x29 80 + x19: .cfa -8 + ^ x20: .cfa -16 + ^ x21: .cfa -24 + ^ x22: .cfa -32 + ^ x23: .cfa -40 + ^ x24: .cfa -48 + ^ x25: .cfa -56 + ^ x26: .cfa -64 + ^ .ra: .cfa -72 + ^ x29: .cfa -80 + ^ v8: .cfa -96 + ^
STACK CFI 280f8 .cfa: sp 112 +
STACK CFI 28114 .cfa: sp 0 +
STACK CFI 28118 .cfa: x29 80 +
STACK CFI INIT 28148 14 .cfa: sp 0 +
STACK CFI 2814c .cfa: sp 16 +
STACK CFI 28150 .cfa: x29 16 + .ra: .cfa -8 + ^ x29: .cfa -16 + ^
STACK CFI INIT 2815c 3c .cfa: sp 0 +
STACK CFI 28160 .cfa: sp 32 +
STACK CFI 28168 .cfa: x29 32 + x19: .cfa -16 + ^ .ra: .cfa -24 + ^ x29: .cfa -32 + ^
STACK CFI 2818c .cfa: sp 32 +
STACK CFI 28194 .cfa: sp 0 +
STACK CFI INIT 28198 c4 .cfa: sp 0 +
STACK CFI 2819c .cfa: sp 48 +
STACK CFI 281a8 .cfa: x29 48 + x19: .cfa -8 + ^ x20: .cfa -16 + ^ x21: .cfa -24 + ^ x22: .cfa -32 + ^ .ra: .cfa -40 + ^ x29: .cfa -48 + ^
STACK CFI 281d8 .cfa: sp 48 +
STACK CFI 281e4 .cfa: sp 0 +
STACK CFI 281e8 .cfa: x29 48 +
STACK CFI 28248 .cfa: sp 48 +
STACK CFI 28254 .cfa: sp 0 +
STACK CFI 28258 .cfa: x29 48 +
STACK CFI INIT 2825c 250 .cfa: sp 0 +
STACK CFI 28260 .cfa: sp 128 +
STACK CFI 2827c .cfa: x29 96 + x19: .cfa -8 + ^ x20: .cfa -16 + ^ x21: .cfa -24 + ^ x22: .cfa -32 + ^ x23: .cfa -40 + ^ x24: .cfa -48 + ^ x25: .cfa -56 + ^ x26: .cfa -64 + ^ x27: .cfa -80 + ^ .ra: .cfa -88 + ^ x29: .cfa -96 + ^
STACK CFI 283c8 .cfa: sp 128 +
STACK CFI 283e4 .cfa: sp 0 +
STACK CFI 283e8 .cfa: x29 96 +
STACK CFI INIT 28e0c 258 .cfa: sp 0 +
STACK CFI 28e10 .cfa: sp 128 +
STACK CFI 28e2c .cfa: x29 96 + x19: .cfa -8 + ^ x20: .cfa -16 + ^ x21: .cfa -24 + ^ x22: .cfa -32 + ^ x23: .cfa -40 + ^ x24: .cfa -48 + ^ x25: .cfa -56 + ^ x26: .cfa -64 + ^ x27: .cfa -80 + ^ .ra: .cfa -88 + ^ x29: .cfa -96 + ^
STACK CFI 28f80 .cfa: sp 128 +
STACK CFI 28f9c .cfa: sp 0 +
STACK CFI 28fa0 .cfa: x29 96 +
STACK CFI INIT 292f8 44 .cfa: sp 0 +
STACK CFI 292fc .cfa: sp 32 +
STACK CFI 29304 .cfa: x29 32 + x19: .cfa -16 + ^ .ra: .cfa -24 + ^ x29: .cfa -32 + ^
STACK CFI 29320 .cfa: sp 32 +
STACK CFI 29328 .cfa: sp 0 +
STACK CFI 2932c .cfa: x29 32 +
STACK CFI 29330 .cfa: sp 32 +
STACK CFI 29338 .cfa: sp 0 +
STACK CFI INIT 2933c 34 .cfa: sp 0 +
STACK CFI 29348 .cfa: sp 32 +
STACK CFI 29350 .cfa: x29 32 + x19: .cfa -16 + ^ .ra: .cfa -24 + ^ x29: .cfa -32 + ^
STACK CFI 29364 .cfa: sp 32 +
STACK CFI 2936c .cfa: sp 0 +
STACK CFI INIT 29370 40 .cfa: sp 0 +
STACK CFI 29388 .cfa: sp 32 +
STACK CFI 29390 .cfa: x29 32 + x19: .cfa -16 + ^ .ra: .cfa -24 + ^ x29: .cfa -32 + ^
STACK CFI 293a4 .cfa: sp 32 +
STACK CFI 293ac .cfa: sp 0 +
STACK CFI INIT 293b0 44 .cfa: sp 0 +
STACK CFI 293b4 .cfa: sp 32 +
STACK CFI 293bc .cfa: x29 32 + x19: .cfa -16 + ^ .ra: .cfa -24 + ^ x29: .cfa -32 + ^
STACK CFI 293e8 .cfa: sp 32 +
STACK CFI 293f0 .cfa: sp 0 +
STACK CFI INIT 293f4 704 .cfa: sp 0 +
STACK CFI 293f8 .cfa: sp 80 +
STACK CFI 2940c .cfa: x29 80 + x19: .cfa -8 + ^ x20: .cfa -16 + ^ x21: .cfa -24 + ^ x22: .cfa -32 + ^ x23: .cfa -40 + ^ x24: .cfa -48 + ^ x25: .cfa -56 + ^ x26: .cfa -64 + ^ .ra: .cfa -72 + ^ x29: .cfa -80 + ^
STACK CFI 296ec .cfa: sp 80 +
STACK CFI 29700 .cfa: sp 0 +
STACK CFI 29704 .cfa: x29 80 +
STACK CFI 29a34 .cfa: sp 80 +
STACK CFI 29a48 .cfa: sp 0 +
STACK CFI 29a4c .cfa: x29 80 +
STACK CFI INIT 29af8 3c .cfa: sp 0 +
STACK CFI 29afc .cfa: sp 32 +
STACK CFI 29b04 .cfa: x29 32 + x19: .cfa -16 + ^ .ra: .cfa -24 + ^ x29: .cfa -32 + ^
STACK CFI 29b28 .cfa: sp 32 +
STACK CFI 29b30 .cfa: sp 0 +
STACK CFI INIT 29b34 14 .cfa: sp 0 +
STACK CFI INIT 29b48 20 .cfa: sp 0 +
STACK CFI INIT 29b68 3c .cfa: sp 0 +
STACK CFI 29b6c .cfa: sp 32 +
STACK CFI 29b74 .cfa: x29 32 + x19: .cfa -16 + ^ .ra: .cfa -24 + ^ x29: .cfa -32 + ^
STACK CFI 29b98 .cfa: sp 32 +
STACK CFI 29ba0 .cfa: sp 0 +
STACK CFI INIT 29cac 28 .cfa: sp 0 +
STACK CFI 29cb0 .cfa: sp 32 +
STACK CFI 29cb8 .cfa: x29 32 + x19: .cfa -16 + ^ .ra: .cfa -24 + ^ x29: .cfa -32 + ^
STACK CFI 29cc8 .cfa: sp 32 +
STACK CFI 29cd0 .cfa: sp 0 +
STACK CFI INIT 29cd4 14 .cfa: sp 0 +
STACK CFI INIT 29ce8 24 .cfa: sp 0 +
STACK CFI 29cec .cfa: sp 32 +
STACK CFI 29cf4 .cfa: x29 32 + x19: .cfa -16 + ^ .ra: .cfa -24 + ^ x29: .cfa -32 + ^
STACK CFI 29d00 .cfa: sp 32 +
STACK CFI 29d08 .cfa: sp 0 +
STACK CFI INIT 29d0c 204 .cfa: sp 0 +
STACK CFI 29d10 .cfa: sp 144 +
STACK CFI 29d28 .cfa: x29 16 + .ra: .cfa -8 + ^ x29: .cfa -16 + ^ v8: .cfa -24 + ^ v9: .cfa -32 + ^ v10: .cfa -40 + ^ v11: .cfa -48 + ^ v12: .cfa -56 + ^ v13: .cfa -64 + ^ v14: .cfa -72 + ^ v15: .cfa -80 + ^
STACK CFI 29ef4 .cfa: sp 144 +
STACK CFI 29f0c .cfa: sp 0 +
STACK CFI INIT 29f10 57c .cfa: sp 0 +
STACK CFI 29f14 .cfa: sp 288 +
STACK CFI 29f40 .cfa: x29 96 + x19: .cfa -8 + ^ x20: .cfa -16 + ^ x21: .cfa -24 + ^ x22: .cfa -32 + ^ x23: .cfa -40 + ^ x24: .cfa -48 + ^ x25: .cfa -56 + ^ x26: .cfa -64 + ^ x27: .cfa -72 + ^ x28: .cfa -80 + ^ .ra: .cfa -88 + ^ x29: .cfa -96 + ^ v8: .cfa -104 + ^ v9: .cfa -112 + ^ v10: .cfa -120 + ^ v11: .cfa -128 + ^ v12: .cfa -136 + ^ v13: .cfa -144 + ^ v14: .cfa -152 + ^ v15: .cfa -160 + ^
STACK CFI 2a450 .cfa: sp 288 +
STACK CFI 2a47c .cfa: sp 0 +
STACK CFI 2a480 .cfa: x29 96 +
STACK CFI INIT 2a48c 14 .cfa: sp 0 +
STACK CFI 2a490 .cfa: sp 16 +
STACK CFI 2a494 .cfa: x29 16 + .ra: .cfa -8 + ^ x29: .cfa -16 + ^
STACK CFI INIT 2a4a0 14 .cfa: sp 0 +
STACK CFI 2a4a4 .cfa: sp 16 +
STACK CFI 2a4a8 .cfa: x29 16 + .ra: .cfa -8 + ^ x29: .cfa -16 + ^
STACK CFI INIT 2a4b4 3c .cfa: sp 0 +
STACK CFI 2a4b8 .cfa: sp 32 +
STACK CFI 2a4c0 .cfa: x29 32 + x19: .cfa -16 + ^ .ra: .cfa -24 + ^ x29: .cfa -32 + ^
STACK CFI 2a4cc .cfa: sp 32 +
STACK CFI 2a4d4 .cfa: sp 0 +
STACK CFI 2a4d8 .cfa: x29 32 +
STACK CFI 2a4e4 .cfa: sp 32 +
STACK CFI 2a4ec .cfa: sp 0 +
STACK CFI INIT 2a4f0 e4 .cfa: sp 0 +
STACK CFI 2a4f4 .cfa: sp 80 +
STACK CFI 2a508 .cfa: x29 80 + x19: .cfa -8 + ^ x20: .cfa -16 + ^ x21: .cfa -24 + ^ x22: .cfa -32 + ^ x23: .cfa -40 + ^ x24: .cfa -48 + ^ x25: .cfa -56 + ^ x26: .cfa -64 + ^ .ra: .cfa -72 + ^ x29: .cfa -80 + ^
STACK CFI 2a5bc .cfa: sp 80 +
STACK CFI 2a5d0 .cfa: sp 0 +
STACK CFI INIT 2a5d4 1f4 .cfa: sp 0 +
STACK CFI 2a5d8 .cfa: sp 144 +
STACK CFI 2a5fc .cfa: x29 80 + x19: .cfa -8 + ^ x20: .cfa -16 + ^ x21: .cfa -24 + ^ x22: .cfa -32 + ^ x23: .cfa -40 + ^ x24: .cfa -48 + ^ x25: .cfa -64 + ^ .ra: .cfa -72 + ^ x29: .cfa -80 + ^ v8: .cfa -88 + ^ v9: .cfa -96 + ^ v10: .cfa -104 + ^ v11: .cfa -112 + ^ v12: .cfa -120 + ^ v13: .cfa -128 + ^ v14: .cfa -136 + ^ v15: .cfa -144 + ^
STACK CFI 2a7a0 .cfa: sp 144 +
STACK CFI 2a7c4 .cfa: sp 0 +
STACK CFI INIT 2a7c8 a80 .cfa: sp 0 +
STACK CFI 2a7cc .cfa: sp 240 +
STACK CFI 2a7f4 .cfa: x29 80 + x19: .cfa -8 + ^ x20: .cfa -16 + ^ x21: .cfa -24 + ^ x22: .cfa -32 + ^ x23: .cfa -40 + ^ x24: .cfa -48 + ^ x25: .cfa -56 + ^ x26: .cfa -64 + ^ .ra: .cfa -72 + ^ x29: .cfa -80 + ^ v8: .cfa -88 + ^ v9: .cfa -96 + ^ v10: .cfa -104 + ^ v11: .cfa -112 + ^ v12: .cfa -120 + ^ v13: .cfa -128 + ^ v14: .cfa -136 + ^ v15: .cfa -144 + ^
STACK CFI 2b218 .cfa: sp 240 +
STACK CFI 2b240 .cfa: sp 0 +
STACK CFI 2b244 .cfa: x29 80 +
STACK CFI INIT 2b248 4c .cfa: sp 0 +
STACK CFI 2b24c .cfa: sp 32 +
STACK CFI 2b254 .cfa: x29 32 + x19: .cfa -8 + ^ x20: .cfa -16 + ^ .ra: .cfa -24 + ^ x29: .cfa -32 + ^
STACK CFI 2b27c .cfa: sp 32 +
STACK CFI 2b284 .cfa: sp 0 +
STACK CFI 2b288 .cfa: sp 32 +
STACK CFI 2b290 .cfa: sp 0 +
STACK CFI INIT 2b4b4 64 .cfa: sp 0 +
STACK CFI 2b4b8 .cfa: sp 32 +
STACK CFI 2b4c0 .cfa: x29 32 + x19: .cfa -16 + ^ .ra: .cfa -24 + ^ x29: .cfa -32 + ^
STACK CFI 2b4ec .cfa: sp 32 +
STACK CFI 2b4f4 .cfa: sp 0 +
STACK CFI 2b4f8 .cfa: x29 32 +
STACK CFI 2b50c .cfa: sp 32 +
STACK CFI 2b514 .cfa: sp 0 +
STACK CFI INIT 2b73c 24 .cfa: sp 0 +
STACK CFI 2b740 .cfa: sp 32 +
STACK CFI 2b748 .cfa: x29 32 + x19: .cfa -16 + ^ .ra: .cfa -24 + ^ x29: .cfa -32 + ^
STACK CFI 2b754 .cfa: sp 32 +
STACK CFI 2b75c .cfa: sp 0 +
STACK CFI INIT 2b9bc 24 .cfa: sp 0 +
STACK CFI 2b9c0 .cfa: sp 32 +
STACK CFI 2b9c8 .cfa: x29 32 + x19: .cfa -16 + ^ .ra: .cfa -24 + ^ x29: .cfa -32 + ^
STACK CFI 2b9d4 .cfa: sp 32 +
STACK CFI 2b9dc .cfa: sp 0 +
STACK CFI INIT 2b9e0 8 .cfa: sp 0 +
STACK CFI INIT 2b9e8 24 .cfa: sp 0 +
STACK CFI 2b9ec .cfa: sp 32 +
STACK CFI 2b9f4 .cfa: x29 32 + x19: .cfa -16 + ^ .ra: .cfa -24 + ^ x29: .cfa -32 + ^
STACK CFI 2ba00 .cfa: sp 32 +
STACK CFI 2ba08 .cfa: sp 0 +
STACK CFI INIT 2ba0c 28 .cfa: sp 0 +
STACK CFI 2ba10 .cfa: sp 32 +
STACK CFI 2ba18 .cfa: x29 32 + x19: .cfa -16 + ^ .ra: .cfa -24 + ^ x29: .cfa -32 + ^
STACK CFI 2ba28 .cfa: sp 32 +
STACK CFI 2ba30 .cfa: sp 0 +
STACK CFI INIT 2bd34 8 .cfa: sp 0 +
STACK CFI INIT 2bd3c 24 .cfa: sp 0 +
STACK CFI 2bd40 .cfa: sp 32 +
STACK CFI 2bd48 .cfa: x29 32 + x19: .cfa -16 + ^ .ra: .cfa -24 + ^ x29: .cfa -32 + ^
STACK CFI 2bd54 .cfa: sp 32 +
STACK CFI 2bd5c .cfa: sp 0 +
STACK CFI INIT 2bd60 28 .cfa: sp 0 +
STACK CFI 2bd64 .cfa: sp 32 +
STACK CFI 2bd6c .cfa: x29 32 + x19: .cfa -16 + ^ .ra: .cfa -24 + ^ x29: .cfa -32 + ^
STACK CFI 2bd7c .cfa: sp 32 +
STACK CFI 2bd84 .cfa: sp 0 +
STACK CFI INIT 2bfec 8 .cfa: sp 0 +
STACK CFI INIT 2bff4 24 .cfa: sp 0 +
STACK CFI 2bff8 .cfa: sp 32 +
STACK CFI 2c000 .cfa: x29 32 + x19: .cfa -16 + ^ .ra: .cfa -24 + ^ x29: .cfa -32 + ^
STACK CFI 2c00c .cfa: sp 32 +
STACK CFI 2c014 .cfa: sp 0 +
STACK CFI INIT 2c018 28 .cfa: sp 0 +
STACK CFI 2c01c .cfa: sp 32 +
STACK CFI 2c024 .cfa: x29 32 + x19: .cfa -16 + ^ .ra: .cfa -24 + ^ x29: .cfa -32 + ^
STACK CFI 2c034 .cfa: sp 32 +
STACK CFI 2c03c .cfa: sp 0 +
STACK CFI INIT 2c040 8 .cfa: sp 0 +
STACK CFI INIT 2c048 24 .cfa: sp 0 +
STACK CFI 2c04c .cfa: sp 32 +
STACK CFI 2c054 .cfa: x29 32 + x19: .cfa -16 + ^ .ra: .cfa -24 + ^ x29: .cfa -32 + ^
STACK CFI 2c060 .cfa: sp 32 +
STACK CFI 2c068 .cfa: sp 0 +
STACK CFI INIT 2c06c 28 .cfa: sp 0 +
STACK CFI 2c070 .cfa: sp 32 +
STACK CFI 2c078 .cfa: x29 32 + x19: .cfa -16 + ^ .ra: .cfa -24 + ^ x29: .cfa -32 + ^
STACK CFI 2c088 .cfa: sp 32 +
STACK CFI 2c090 .cfa: sp 0 +
STACK CFI INIT 2d4cc 4 .cfa: sp 0 +
STACK CFI INIT 2d4d0 14 .cfa: sp 0 +
STACK CFI INIT 1eb10 bd4 .cfa: sp 0 +
STACK CFI 1eb14 .cfa: sp 240 +
STACK CFI 1eb30 .cfa: x29 96 + x19: .cfa -8 + ^ x20: .cfa -16 + ^ x21: .cfa -24 + ^ x22: .cfa -32 + ^ x23: .cfa -40 + ^ x24: .cfa -48 + ^ x25: .cfa -56 + ^ x26: .cfa -64 + ^ x27: .cfa -72 + ^ x28: .cfa -80 + ^ .ra: .cfa -88 + ^ x29: .cfa -96 + ^
STACK CFI 1ef0c .cfa: sp 240 +
STACK CFI 1ef28 .cfa: sp 0 +
STACK CFI 1ef2c .cfa: x29 96 +
STACK CFI 1f58c .cfa: sp 240 +
STACK CFI 1f5a8 .cfa: sp 0 +
STACK CFI 1f5ac .cfa: x29 96 +
STACK CFI INIT 1f6fc 9e8 .cfa: sp 0 +
STACK CFI 1f700 .cfa: sp 224 +
STACK CFI 1f718 .cfa: x29 80 + x19: .cfa -8 + ^ x20: .cfa -16 + ^ x21: .cfa -24 + ^ x22: .cfa -32 + ^ x23: .cfa -40 + ^ x24: .cfa -48 + ^ x25: .cfa -56 + ^ x26: .cfa -64 + ^ .ra: .cfa -72 + ^ x29: .cfa -80 + ^
STACK CFI 1fdec .cfa: sp 224 +
STACK CFI 1fe04 .cfa: sp 0 +
STACK CFI 1fe08 .cfa: x29 80 +
STACK CFI INIT 20134 74 .cfa: sp 0 +
STACK CFI 20138 .cfa: sp 48 +
STACK CFI 20144 .cfa: x29 32 + x19: .cfa -8 + ^ x20: .cfa -16 + ^ .ra: .cfa -24 + ^ x29: .cfa -32 + ^
STACK CFI 20190 .cfa: sp 48 +
STACK CFI 2019c .cfa: sp 0 +
STACK CFI 201a0 .cfa: x29 32 +
STACK CFI INIT 20238 154 .cfa: sp 0 +
STACK CFI 2023c .cfa: sp 384 +
STACK CFI 20250 .cfa: x29 64 + x19: .cfa -8 + ^ x20: .cfa -16 + ^ x21: .cfa -24 + ^ x22: .cfa -32 + ^ x23: .cfa -40 + ^ x28: .cfa -48 + ^ .ra: .cfa -56 + ^ x29: .cfa -64 + ^
STACK CFI 20334 .cfa: sp 384 +
STACK CFI 20348 .cfa: sp 0 +
STACK CFI 2034c .cfa: x29 64 +
STACK CFI INIT 203c0 12c .cfa: sp 0 +
STACK CFI 203c4 .cfa: sp 80 +
STACK CFI 203d8 .cfa: x29 80 + x19: .cfa -8 + ^ x20: .cfa -16 + ^ x21: .cfa -24 + ^ x22: .cfa -32 + ^ x23: .cfa -40 + ^ x24: .cfa -48 + ^ x25: .cfa -56 + ^ x26: .cfa -64 + ^ .ra: .cfa -72 + ^ x29: .cfa -80 + ^
STACK CFI 204a0 .cfa: sp 80 +
STACK CFI 204b4 .cfa: sp 0 +
STACK CFI 204b8 .cfa: x29 80 +
STACK CFI INIT 20590 1a4 .cfa: sp 0 +
STACK CFI 20594 .cfa: sp 112 +
STACK CFI 205ac .cfa: x29 80 + x19: .cfa -8 + ^ x20: .cfa -16 + ^ x21: .cfa -24 + ^ x22: .cfa -32 + ^ x23: .cfa -40 + ^ x24: .cfa -48 + ^ x25: .cfa -56 + ^ x26: .cfa -64 + ^ .ra: .cfa -72 + ^ x29: .cfa -80 + ^
STACK CFI 2069c .cfa: sp 112 +
STACK CFI 206b4 .cfa: sp 0 +
STACK CFI 206b8 .cfa: x29 80 +
STACK CFI INIT 20734 1dc .cfa: sp 0 +
STACK CFI 20738 .cfa: sp 128 +
STACK CFI 20754 .cfa: x29 96 + x19: .cfa -8 + ^ x20: .cfa -16 + ^ x21: .cfa -24 + ^ x22: .cfa -32 + ^ x23: .cfa -40 + ^ x24: .cfa -48 + ^ x25: .cfa -56 + ^ x26: .cfa -64 + ^ x27: .cfa -80 + ^ .ra: .cfa -88 + ^ x29: .cfa -96 + ^
STACK CFI 208c0 .cfa: sp 128 +
STACK CFI 208dc .cfa: sp 0 +
STACK CFI 208e0 .cfa: x29 96 +
STACK CFI INIT 20924 50 .cfa: sp 0 +
STACK CFI 20928 .cfa: sp 32 +
STACK CFI 20930 .cfa: x29 32 + x19: .cfa -8 + ^ x20: .cfa -16 + ^ .ra: .cfa -24 + ^ x29: .cfa -32 + ^
STACK CFI INIT 209d8 178 .cfa: sp 0 +
STACK CFI 209dc .cfa: sp 80 +
STACK CFI 209f0 .cfa: x29 80 + x19: .cfa -8 + ^ x20: .cfa -16 + ^ x21: .cfa -24 + ^ x22: .cfa -32 + ^ x23: .cfa -40 + ^ x24: .cfa -48 + ^ x25: .cfa -64 + ^ .ra: .cfa -72 + ^ x29: .cfa -80 + ^
STACK CFI 20b1c .cfa: sp 80 +
STACK CFI 20b30 .cfa: sp 0 +
STACK CFI 20b34 .cfa: x29 80 +
STACK CFI INIT 20f98 1c4 .cfa: sp 0 +
STACK CFI 20f9c .cfa: sp 160 +
STACK CFI 20fb4 .cfa: x29 80 + x19: .cfa -8 + ^ x20: .cfa -16 + ^ x21: .cfa -24 + ^ x22: .cfa -32 + ^ x23: .cfa -40 + ^ x24: .cfa -48 + ^ x25: .cfa -56 + ^ x26: .cfa -64 + ^ .ra: .cfa -72 + ^ x29: .cfa -80 + ^
STACK CFI 210e8 .cfa: sp 160 +
STACK CFI 21100 .cfa: sp 0 +
STACK CFI 21104 .cfa: x29 80 +
STACK CFI INIT 21424 45c .cfa: sp 0 +
STACK CFI 21428 .cfa: sp 256 +
STACK CFI 2143c .cfa: x29 64 + x19: .cfa -8 + ^ x20: .cfa -16 + ^ x21: .cfa -24 + ^ x22: .cfa -32 + ^ x23: .cfa -40 + ^ x24: .cfa -48 + ^ .ra: .cfa -56 + ^ x29: .cfa -64 + ^
STACK CFI 2173c .cfa: sp 256 +
STACK CFI 21750 .cfa: sp 0 +
STACK CFI 21754 .cfa: x29 64 +
STACK CFI INIT 21880 a8 .cfa: sp 0 +
STACK CFI 21884 .cfa: sp 32 +
STACK CFI 2188c .cfa: x29 32 + x19: .cfa -16 + ^ .ra: .cfa -24 + ^ x29: .cfa -32 + ^
STACK CFI 218c0 .cfa: sp 32 +
STACK CFI 218c8 .cfa: sp 0 +
STACK CFI 218cc .cfa: x29 32 +
STACK CFI 218d0 .cfa: sp 32 +
STACK CFI 218d8 .cfa: sp 0 +
STACK CFI 218dc .cfa: x29 32 +
STACK CFI INIT 21aa0 640 .cfa: sp 0 +
STACK CFI 21aa4 .cfa: sp 224 +
STACK CFI 21ac0 .cfa: x29 96 + x19: .cfa -8 + ^ x20: .cfa -16 + ^ x21: .cfa -24 + ^ x22: .cfa -32 + ^ x23: .cfa -40 + ^ x24: .cfa -48 + ^ x25: .cfa -56 + ^ x26: .cfa -64 + ^ x27: .cfa -72 + ^ x28: .cfa -80 + ^ .ra: .cfa -88 + ^ x29: .cfa -96 + ^
STACK CFI 21f70 .cfa: sp 224 +
STACK CFI 21f8c .cfa: sp 0 +
STACK CFI 21f90 .cfa: x29 96 +
STACK CFI INIT 220e0 20 .cfa: sp 0 +
STACK CFI 220e4 .cfa: sp 16 +
STACK CFI 220e8 .cfa: x29 16 + .ra: .cfa -8 + ^ x29: .cfa -16 + ^
STACK CFI 220f4 .cfa: sp 16 +
STACK CFI 220f8 .cfa: sp 0 +
STACK CFI 220fc .cfa: x29 16 +
STACK CFI INIT 22134 50 .cfa: sp 0 +
STACK CFI 22138 .cfa: sp 32 +
STACK CFI 22140 .cfa: x29 32 + x19: .cfa -8 + ^ x20: .cfa -16 + ^ .ra: .cfa -24 + ^ x29: .cfa -32 + ^
STACK CFI INIT 22570 cc .cfa: sp 0 +
STACK CFI 22574 .cfa: sp 48 +
STACK CFI 22580 .cfa: x29 48 + x19: .cfa -8 + ^ x20: .cfa -16 + ^ x21: .cfa -24 + ^ x22: .cfa -32 + ^ .ra: .cfa -40 + ^ x29: .cfa -48 + ^
STACK CFI 225cc .cfa: sp 48 +
STACK CFI 225d8 .cfa: sp 0 +
STACK CFI 225dc .cfa: x29 48 +
STACK CFI 225e0 .cfa: sp 48 +
STACK CFI 225ec .cfa: sp 0 +
STACK CFI 225f0 .cfa: x29 48 +
STACK CFI INIT 2263c 1ec .cfa: sp 0 +
STACK CFI 22640 .cfa: sp 208 +
STACK CFI 22658 .cfa: x29 80 + x19: .cfa -8 + ^ x20: .cfa -16 + ^ x21: .cfa -24 + ^ x22: .cfa -32 + ^ x23: .cfa -40 + ^ x24: .cfa -48 + ^ x25: .cfa -64 + ^ .ra: .cfa -72 + ^ x29: .cfa -80 + ^
STACK CFI 227b4 .cfa: sp 208 +
STACK CFI 227cc .cfa: sp 0 +
STACK CFI 227d0 .cfa: x29 80 +
STACK CFI INIT 22828 74 .cfa: sp 0 +
STACK CFI 2282c .cfa: sp 48 +
STACK CFI 22838 .cfa: x29 32 + x19: .cfa -8 + ^ x20: .cfa -16 + ^ .ra: .cfa -24 + ^ x29: .cfa -32 + ^
STACK CFI 22884 .cfa: sp 48 +
STACK CFI 22890 .cfa: sp 0 +
STACK CFI 22894 .cfa: x29 32 +
STACK CFI INIT 228cc 190 .cfa: sp 0 +
STACK CFI 228d0 .cfa: sp 160 +
STACK CFI 228e0 .cfa: x29 48 + x19: .cfa -8 + ^ x20: .cfa -16 + ^ x21: .cfa -32 + ^ .ra: .cfa -40 + ^ x29: .cfa -48 + ^
STACK CFI 22a00 .cfa: sp 160 +
STACK CFI 22a10 .cfa: sp 0 +
STACK CFI 22a14 .cfa: x29 48 +
STACK CFI INIT 22e54 118 .cfa: sp 0 +
STACK CFI 22e58 .cfa: sp 80 +
STACK CFI 22e68 .cfa: x29 48 + x19: .cfa -8 + ^ x20: .cfa -16 + ^ x21: .cfa -24 + ^ x22: .cfa -32 + ^ .ra: .cfa -40 + ^ x29: .cfa -48 + ^
STACK CFI 22f50 .cfa: sp 80 +
STACK CFI 22f60 .cfa: sp 0 +
STACK CFI 22f64 .cfa: x29 48 +
STACK CFI INIT 22f6c 130 .cfa: sp 0 +
STACK CFI 22f70 .cfa: sp 96 +
STACK CFI 22f84 .cfa: x29 48 + x19: .cfa -8 + ^ x20: .cfa -16 + ^ x21: .cfa -24 + ^ x22: .cfa -32 + ^ .ra: .cfa -40 + ^ x29: .cfa -48 + ^ v8: .cfa -64 + ^
STACK CFI 2307c .cfa: sp 96 +
STACK CFI 23090 .cfa: sp 0 +
STACK CFI 23094 .cfa: x29 48 +
STACK CFI INIT 2309c 6a8 .cfa: sp 0 +
STACK CFI 230a0 .cfa: sp 192 +
STACK CFI 230c4 .cfa: x29 88 + x19: .cfa -8 + ^ x20: .cfa -16 + ^ x21: .cfa -24 + ^ x22: .cfa -32 + ^ x23: .cfa -40 + ^ x24: .cfa -48 + ^ x25: .cfa -56 + ^ x26: .cfa -64 + ^ x27: .cfa -72 + ^ .ra: .cfa -80 + ^ x29: .cfa -88 + ^ v8: .cfa -96 + ^ v9: .cfa -104 + ^ v10: .cfa -112 + ^
STACK CFI 2363c .cfa: sp 192 +
STACK CFI 23660 .cfa: sp 0 +
STACK CFI 23664 .cfa: x29 88 +
STACK CFI INIT 23744 304 .cfa: sp 0 +
STACK CFI 23748 .cfa: sp 224 +
STACK CFI 23760 .cfa: x29 80 + x19: .cfa -8 + ^ x20: .cfa -16 + ^ x21: .cfa -24 + ^ x22: .cfa -32 + ^ x23: .cfa -40 + ^ x24: .cfa -48 + ^ x25: .cfa -64 + ^ .ra: .cfa -72 + ^ x29: .cfa -80 + ^
STACK CFI 23964 .cfa: sp 224 +
STACK CFI 2397c .cfa: sp 0 +
STACK CFI 23980 .cfa: x29 80 +
STACK CFI INIT 23ae0 13c .cfa: sp 0 +
STACK CFI 23ae4 .cfa: sp 112 +
STACK CFI 23af4 .cfa: x29 48 + x19: .cfa -8 + ^ x20: .cfa -16 + ^ x21: .cfa -32 + ^ .ra: .cfa -40 + ^ x29: .cfa -48 + ^
STACK CFI 23bb4 .cfa: sp 112 +
STACK CFI 23bc4 .cfa: sp 0 +
STACK CFI 23bc8 .cfa: x29 48 +
STACK CFI INIT 23c1c 6a4 .cfa: sp 0 +
STACK CFI 23c20 .cfa: sp 352 +
STACK CFI 23c3c .cfa: x29 80 + x19: .cfa -8 + ^ x20: .cfa -16 + ^ x21: .cfa -24 + ^ x22: .cfa -32 + ^ x23: .cfa -40 + ^ x24: .cfa -48 + ^ x25: .cfa -56 + ^ x28: .cfa -64 + ^ .ra: .cfa -72 + ^ x29: .cfa -80 + ^ v8: .cfa -96 + ^
STACK CFI 24114 .cfa: sp 352 +
STACK CFI 24130 .cfa: sp 0 +
STACK CFI 24134 .cfa: x29 80 +
STACK CFI INIT 242c8 3c .cfa: sp 0 +
STACK CFI 242cc .cfa: sp 32 +
STACK CFI 242d4 .cfa: x29 32 + x19: .cfa -16 + ^ .ra: .cfa -24 + ^ x29: .cfa -32 + ^
STACK CFI 242f4 .cfa: sp 32 +
STACK CFI 242fc .cfa: sp 0 +
STACK CFI 24300 .cfa: x29 32 +
STACK CFI INIT 24304 44 .cfa: sp 0 +
STACK CFI 24308 .cfa: sp 32 +
STACK CFI 24310 .cfa: x29 32 + x19: .cfa -16 + ^ .ra: .cfa -24 + ^ x29: .cfa -32 + ^
STACK CFI 24338 .cfa: sp 32 +
STACK CFI 24340 .cfa: sp 0 +
STACK CFI 24344 .cfa: x29 32 +
STACK CFI INIT 24348 194 .cfa: sp 0 +
STACK CFI 2434c .cfa: sp 144 +
STACK CFI 2435c .cfa: x29 48 + x19: .cfa -8 + ^ x20: .cfa -16 + ^ x21: .cfa -24 + ^ x22: .cfa -32 + ^ .ra: .cfa -40 + ^ x29: .cfa -48 + ^
STACK CFI 2445c .cfa: sp 144 +
STACK CFI 2446c .cfa: sp 0 +
STACK CFI 24470 .cfa: x29 48 +
STACK CFI INIT 244dc 1c8 .cfa: sp 0 +
STACK CFI 244e0 .cfa: sp 112 +
STACK CFI 244f0 .cfa: x29 48 + x19: .cfa -8 + ^ x20: .cfa -16 + ^ x21: .cfa -24 + ^ x22: .cfa -32 + ^ .ra: .cfa -40 + ^ x29: .cfa -48 + ^
STACK CFI 24644 .cfa: sp 112 +
STACK CFI 24654 .cfa: sp 0 +
STACK CFI 24658 .cfa: x29 48 +
STACK CFI INIT 24b2c 218 .cfa: sp 0 +
STACK CFI 24b30 .cfa: sp 80 +
STACK CFI 24b40 .cfa: x29 48 + x19: .cfa -8 + ^ x20: .cfa -16 + ^ x21: .cfa -32 + ^ .ra: .cfa -40 + ^ x29: .cfa -48 + ^
STACK CFI 24ce8 .cfa: sp 80 +
STACK CFI 24cf8 .cfa: sp 0 +
STACK CFI 24cfc .cfa: x29 48 +
STACK CFI INIT 24dc0 224 .cfa: sp 0 +
STACK CFI 24dc4 .cfa: sp 80 +
STACK CFI 24dd4 .cfa: x29 48 + x19: .cfa -8 + ^ x20: .cfa -16 + ^ x21: .cfa -32 + ^ .ra: .cfa -40 + ^ x29: .cfa -48 + ^
STACK CFI 24f88 .cfa: sp 80 +
STACK CFI 24f98 .cfa: sp 0 +
STACK CFI 24f9c .cfa: x29 48 +
STACK CFI INIT 25064 214 .cfa: sp 0 +
STACK CFI 25068 .cfa: sp 80 +
STACK CFI 25078 .cfa: x29 48 + x19: .cfa -8 + ^ x20: .cfa -16 + ^ x21: .cfa -32 + ^ .ra: .cfa -40 + ^ x29: .cfa -48 + ^
STACK CFI 2521c .cfa: sp 80 +
STACK CFI 2522c .cfa: sp 0 +
STACK CFI 25230 .cfa: x29 48 +
STACK CFI INIT 254b0 94 .cfa: sp 0 +
STACK CFI 254b4 .cfa: sp 32 +
STACK CFI 254bc .cfa: x29 32 + x19: .cfa -8 + ^ x20: .cfa -16 + ^ .ra: .cfa -24 + ^ x29: .cfa -32 + ^
STACK CFI 25504 .cfa: sp 32 +
STACK CFI 2550c .cfa: sp 0 +
STACK CFI 25510 .cfa: x29 32 +
STACK CFI 25524 .cfa: sp 32 +
STACK CFI 2552c .cfa: sp 0 +
STACK CFI 25530 .cfa: x29 32 +
STACK CFI INIT 25794 94 .cfa: sp 0 +
STACK CFI 25798 .cfa: sp 32 +
STACK CFI 257a0 .cfa: x29 32 + x19: .cfa -8 + ^ x20: .cfa -16 + ^ .ra: .cfa -24 + ^ x29: .cfa -32 + ^
STACK CFI 257e8 .cfa: sp 32 +
STACK CFI 257f0 .cfa: sp 0 +
STACK CFI 257f4 .cfa: x29 32 +
STACK CFI 25808 .cfa: sp 32 +
STACK CFI 25810 .cfa: sp 0 +
STACK CFI 25814 .cfa: x29 32 +
STACK CFI INIT 259d0 118 .cfa: sp 0 +
STACK CFI 259d4 .cfa: sp 32 +
STACK CFI 259dc .cfa: x29 32 + x19: .cfa -8 + ^ x20: .cfa -16 + ^ .ra: .cfa -24 + ^ x29: .cfa -32 + ^
STACK CFI 25a9c .cfa: sp 32 +
STACK CFI 25aa4 .cfa: sp 0 +
STACK CFI 25aa8 .cfa: x29 32 +
STACK CFI 25ac0 .cfa: sp 32 +
STACK CFI 25ac8 .cfa: sp 0 +
STACK CFI 25acc .cfa: x29 32 +
STACK CFI INIT 25ae8 6c .cfa: sp 0 +
STACK CFI 25aec .cfa: sp 32 +
STACK CFI 25af4 .cfa: x29 32 + x19: .cfa -16 + ^ .ra: .cfa -24 + ^ x29: .cfa -32 + ^
STACK CFI 25b44 .cfa: sp 32 +
STACK CFI 25b4c .cfa: sp 0 +
STACK CFI 25b50 .cfa: x29 32 +
STACK CFI INIT 25b54 6c .cfa: sp 0 +
STACK CFI 25b58 .cfa: sp 32 +
STACK CFI 25b60 .cfa: x29 32 + x19: .cfa -16 + ^ .ra: .cfa -24 + ^ x29: .cfa -32 + ^
STACK CFI 25bb0 .cfa: sp 32 +
STACK CFI 25bb8 .cfa: sp 0 +
STACK CFI 25bbc .cfa: x29 32 +
STACK CFI INIT 25bc0 74 .cfa: sp 0 +
STACK CFI 25bc4 .cfa: sp 32 +
STACK CFI 25bcc .cfa: x29 32 + x19: .cfa -16 + ^ .ra: .cfa -24 + ^ x29: .cfa -32 + ^
STACK CFI 25c24 .cfa: sp 32 +
STACK CFI 25c2c .cfa: sp 0 +
STACK CFI 25c30 .cfa: x29 32 +
STACK CFI INIT 25c34 74 .cfa: sp 0 +
STACK CFI 25c38 .cfa: sp 32 +
STACK CFI 25c40 .cfa: x29 32 + x19: .cfa -16 + ^ .ra: .cfa -24 + ^ x29: .cfa -32 + ^
STACK CFI 25c98 .cfa: sp 32 +
STACK CFI 25ca0 .cfa: sp 0 +
STACK CFI 25ca4 .cfa: x29 32 +
STACK CFI INIT 25cd4 2c8 .cfa: sp 0 +
STACK CFI 25cd8 .cfa: sp 144 +
STACK CFI 25cf0 .cfa: x29 56 + x19: .cfa -8 + ^ x20: .cfa -16 + ^ x21: .cfa -24 + ^ x22: .cfa -32 + ^ x23: .cfa -40 + ^ .ra: .cfa -48 + ^ x29: .cfa -56 + ^ v8: .cfa -64 + ^
STACK CFI 25f30 .cfa: sp 144 +
STACK CFI 25f48 .cfa: sp 0 +
STACK CFI 25f4c .cfa: x29 56 +
STACK CFI INIT 2602c ec .cfa: sp 0 +
STACK CFI 26030 .cfa: sp 64 +
STACK CFI 26040 .cfa: x29 48 + x19: .cfa -8 + ^ x20: .cfa -16 + ^ x21: .cfa -24 + ^ x22: .cfa -32 + ^ .ra: .cfa -40 + ^ x29: .cfa -48 + ^
STACK CFI 260dc .cfa: sp 64 +
STACK CFI 260ec .cfa: sp 0 +
STACK CFI 260f0 .cfa: x29 48 +
STACK CFI INIT 26140 5f0 .cfa: sp 0 +
STACK CFI 26144 .cfa: sp 368 +
STACK CFI 2616c .cfa: x29 96 + x19: .cfa -8 + ^ x20: .cfa -16 + ^ x21: .cfa -24 + ^ x22: .cfa -32 + ^ x23: .cfa -40 + ^ x24: .cfa -48 + ^ x25: .cfa -56 + ^ x26: .cfa -64 + ^ x27: .cfa -72 + ^ x28: .cfa -80 + ^ .ra: .cfa -88 + ^ x29: .cfa -96 + ^ v8: .cfa -104 + ^ v9: .cfa -112 + ^ v10: .cfa -120 + ^ v11: .cfa -128 + ^ v12: .cfa -144 + ^
STACK CFI 2660c .cfa: sp 368 +
STACK CFI 26634 .cfa: sp 0 +
STACK CFI 26638 .cfa: x29 96 +
STACK CFI INIT 26730 300 .cfa: sp 0 +
STACK CFI 26734 .cfa: sp 192 +
STACK CFI 26748 .cfa: x29 64 + x19: .cfa -8 + ^ x20: .cfa -16 + ^ x21: .cfa -24 + ^ x22: .cfa -32 + ^ x23: .cfa -48 + ^ .ra: .cfa -56 + ^ x29: .cfa -64 + ^
STACK CFI 26968 .cfa: sp 192 +
STACK CFI 2697c .cfa: sp 0 +
STACK CFI 26980 .cfa: x29 64 +
STACK CFI INIT 26f0c 324 .cfa: sp 0 +
STACK CFI 26f10 .cfa: sp 176 +
STACK CFI 26f28 .cfa: x29 80 + x19: .cfa -8 + ^ x20: .cfa -16 + ^ x21: .cfa -24 + ^ x22: .cfa -32 + ^ x23: .cfa -40 + ^ x24: .cfa -48 + ^ x25: .cfa -56 + ^ x26: .cfa -64 + ^ .ra: .cfa -72 + ^ x29: .cfa -80 + ^
STACK CFI 271a0 .cfa: sp 176 +
STACK CFI 271b8 .cfa: sp 0 +
STACK CFI 271bc .cfa: x29 80 +
STACK CFI INIT 27590 390 .cfa: sp 0 +
STACK CFI 27594 .cfa: sp 160 +
STACK CFI 275b0 .cfa: x29 96 + x19: .cfa -8 + ^ x20: .cfa -16 + ^ x21: .cfa -24 + ^ x22: .cfa -32 + ^ x23: .cfa -40 + ^ x24: .cfa -48 + ^ x25: .cfa -56 + ^ x26: .cfa -64 + ^ x27: .cfa -72 + ^ x28: .cfa -80 + ^ .ra: .cfa -88 + ^ x29: .cfa -96 + ^
STACK CFI 27854 .cfa: sp 160 +
STACK CFI 27870 .cfa: sp 0 +
STACK CFI 27874 .cfa: x29 96 +
STACK CFI INIT 284ac 960 .cfa: sp 0 +
STACK CFI 284b0 .cfa: sp 176 +
STACK CFI 284d0 .cfa: x29 88 + x19: .cfa -8 + ^ x20: .cfa -16 + ^ x21: .cfa -24 + ^ x22: .cfa -32 + ^ x23: .cfa -40 + ^ x24: .cfa -48 + ^ x25: .cfa -56 + ^ x26: .cfa -64 + ^ x27: .cfa -72 + ^ .ra: .cfa -80 + ^ x29: .cfa -88 + ^ v8: .cfa -96 + ^
STACK CFI 28b7c .cfa: sp 176 +
STACK CFI 28b9c .cfa: sp 0 +
STACK CFI 28ba0 .cfa: x29 88 +
STACK CFI INIT 29064 294 .cfa: sp 0 +
STACK CFI 29068 .cfa: sp 160 +
STACK CFI 29084 .cfa: x29 96 + x19: .cfa -8 + ^ x20: .cfa -16 + ^ x21: .cfa -24 + ^ x22: .cfa -32 + ^ x23: .cfa -40 + ^ x24: .cfa -48 + ^ x25: .cfa -56 + ^ x26: .cfa -64 + ^ x27: .cfa -72 + ^ x28: .cfa -80 + ^ .ra: .cfa -88 + ^ x29: .cfa -96 + ^
STACK CFI 29248 .cfa: sp 160 +
STACK CFI 29264 .cfa: sp 0 +
STACK CFI 29268 .cfa: x29 96 +
STACK CFI INIT 29ba4 108 .cfa: sp 0 +
STACK CFI 29ba8 .cfa: sp 48 +
STACK CFI 29bb8 .cfa: x29 40 + x19: .cfa -8 + ^ x20: .cfa -16 + ^ x21: .cfa -24 + ^ .ra: .cfa -32 + ^ x29: .cfa -40 + ^ v8: .cfa -48 + ^
STACK CFI 29c6c .cfa: sp 48 +
STACK CFI 29c7c .cfa: sp 0 +
STACK CFI 29c80 .cfa: x29 40 +
STACK CFI INIT 2b294 134 .cfa: sp 0 +
STACK CFI 2b298 .cfa: sp 80 +
STACK CFI 2b2a4 .cfa: x29 32 + x19: .cfa -8 + ^ x20: .cfa -16 + ^ .ra: .cfa -24 + ^ x29: .cfa -32 + ^
STACK CFI 2b2d4 .cfa: sp 80 +
STACK CFI 2b2e0 .cfa: sp 0 +
STACK CFI 2b2e4 .cfa: x29 32 +
STACK CFI INIT 2b3c8 78 .cfa: sp 0 +
STACK CFI 2b3cc .cfa: sp 32 +
STACK CFI 2b3d4 .cfa: x29 32 + x19: .cfa -8 + ^ x20: .cfa -16 + ^ .ra: .cfa -24 + ^ x29: .cfa -32 + ^
STACK CFI 2b3e0 .cfa: sp 32 +
STACK CFI 2b3e8 .cfa: sp 0 +
STACK CFI 2b3ec .cfa: x29 32 +
STACK CFI INIT 2b440 74 .cfa: sp 0 +
STACK CFI 2b444 .cfa: sp 48 +
STACK CFI 2b450 .cfa: x29 32 + x19: .cfa -8 + ^ x20: .cfa -16 + ^ .ra: .cfa -24 + ^ x29: .cfa -32 + ^
STACK CFI 2b49c .cfa: sp 48 +
STACK CFI 2b4a8 .cfa: sp 0 +
STACK CFI 2b4ac .cfa: x29 32 +
STACK CFI INIT 2b518 224 .cfa: sp 0 +
STACK CFI 2b51c .cfa: sp 128 +
STACK CFI 2b52c .cfa: x29 48 + x19: .cfa -8 + ^ x20: .cfa -16 + ^ x21: .cfa -32 + ^ .ra: .cfa -40 + ^ x29: .cfa -48 + ^
STACK CFI 2b5dc .cfa: sp 128 +
STACK CFI 2b5ec .cfa: sp 0 +
STACK CFI 2b5f0 .cfa: x29 48 +
STACK CFI INIT 2b760 25c .cfa: sp 0 +
STACK CFI 2b764 .cfa: sp 128 +
STACK CFI 2b774 .cfa: x29 48 + x19: .cfa -8 + ^ x20: .cfa -16 + ^ x21: .cfa -32 + ^ .ra: .cfa -40 + ^ x29: .cfa -48 + ^
STACK CFI 2b85c .cfa: sp 128 +
STACK CFI 2b86c .cfa: sp 0 +
STACK CFI 2b870 .cfa: x29 48 +
STACK CFI INIT 2ba34 300 .cfa: sp 0 +
STACK CFI 2ba38 .cfa: sp 144 +
STACK CFI 2ba4c .cfa: x29 64 + x19: .cfa -8 + ^ x20: .cfa -16 + ^ x21: .cfa -24 + ^ x22: .cfa -32 + ^ x23: .cfa -48 + ^ .ra: .cfa -56 + ^ x29: .cfa -64 + ^
STACK CFI 2bbe0 .cfa: sp 144 +
STACK CFI 2bbf4 .cfa: sp 0 +
STACK CFI 2bbf8 .cfa: x29 64 +
STACK CFI INIT 2bd88 264 .cfa: sp 0 +
STACK CFI 2bd8c .cfa: sp 128 +
STACK CFI 2bd9c .cfa: x29 48 + x19: .cfa -8 + ^ x20: .cfa -16 + ^ x21: .cfa -32 + ^ .ra: .cfa -40 + ^ x29: .cfa -48 + ^
STACK CFI 2be94 .cfa: sp 128 +
STACK CFI 2bea4 .cfa: sp 0 +
STACK CFI 2bea8 .cfa: x29 48 +
STACK CFI INIT 2c094 48 .cfa: sp 0 +
STACK CFI 2c098 .cfa: sp 32 +
STACK CFI 2c0a0 .cfa: x29 32 + x19: .cfa -16 + ^ .ra: .cfa -24 + ^ x29: .cfa -32 + ^
STACK CFI 2c0cc .cfa: sp 32 +
STACK CFI 2c0d4 .cfa: sp 0 +
STACK CFI 2c0d8 .cfa: x29 32 +
STACK CFI INIT 2c0dc 50 .cfa: sp 0 +
STACK CFI 2c0e0 .cfa: sp 32 +
STACK CFI 2c0e8 .cfa: x29 32 + x19: .cfa -16 + ^ .ra: .cfa -24 + ^ x29: .cfa -32 + ^
STACK CFI 2c11c .cfa: sp 32 +
STACK CFI 2c124 .cfa: sp 0 +
STACK CFI 2c128 .cfa: x29 32 +
STACK CFI INIT 2c12c 98 .cfa: sp 0 +
STACK CFI 2c130 .cfa: sp 48 +
STACK CFI 2c13c .cfa: x29 48 + x19: .cfa -8 + ^ x20: .cfa -16 + ^ x21: .cfa -32 + ^ .ra: .cfa -40 + ^ x29: .cfa -48 + ^
STACK CFI 2c1a0 .cfa: sp 48 +
STACK CFI 2c1ac .cfa: sp 0 +
STACK CFI 2c1b0 .cfa: x29 48 +
STACK CFI INIT 2c1c4 2e4 .cfa: sp 0 +
STACK CFI 2c1c8 .cfa: sp 144 +
STACK CFI 2c1dc .cfa: x29 64 + x19: .cfa -8 + ^ x20: .cfa -16 + ^ x21: .cfa -24 + ^ x22: .cfa -32 + ^ x23: .cfa -48 + ^ .ra: .cfa -56 + ^ x29: .cfa -64 + ^
STACK CFI 2c354 .cfa: sp 144 +
STACK CFI 2c368 .cfa: sp 0 +
STACK CFI 2c36c .cfa: x29 64 +
STACK CFI INIT 2c4a8 2e4 .cfa: sp 0 +
STACK CFI 2c4ac .cfa: sp 144 +
STACK CFI 2c4c0 .cfa: x29 64 + x19: .cfa -8 + ^ x20: .cfa -16 + ^ x21: .cfa -24 + ^ x22: .cfa -32 + ^ x23: .cfa -48 + ^ .ra: .cfa -56 + ^ x29: .cfa -64 + ^
STACK CFI 2c638 .cfa: sp 144 +
STACK CFI 2c64c .cfa: sp 0 +
STACK CFI 2c650 .cfa: x29 64 +
STACK CFI INIT 2c78c 2a0 .cfa: sp 0 +
STACK CFI 2c790 .cfa: sp 144 +
STACK CFI 2c7a4 .cfa: x29 64 + x19: .cfa -8 + ^ x20: .cfa -16 + ^ x21: .cfa -24 + ^ x22: .cfa -32 + ^ x23: .cfa -48 + ^ .ra: .cfa -56 + ^ x29: .cfa -64 + ^
STACK CFI 2c8d8 .cfa: sp 144 +
STACK CFI 2c8ec .cfa: sp 0 +
STACK CFI 2c8f0 .cfa: x29 64 +
STACK CFI INIT 2ca2c 2f0 .cfa: sp 0 +
STACK CFI 2ca30 .cfa: sp 144 +
STACK CFI 2ca44 .cfa: x29 64 + x19: .cfa -8 + ^ x20: .cfa -16 + ^ x21: .cfa -24 + ^ x22: .cfa -32 + ^ x23: .cfa -48 + ^ .ra: .cfa -56 + ^ x29: .cfa -64 + ^
STACK CFI 2cbc8 .cfa: sp 144 +
STACK CFI 2cbdc .cfa: sp 0 +
STACK CFI 2cbe0 .cfa: x29 64 +
STACK CFI INIT 2cd1c 4f4 .cfa: sp 0 +
STACK CFI 2cd20 .cfa: sp 144 +
STACK CFI 2cd34 .cfa: x29 64 + x19: .cfa -8 + ^ x20: .cfa -16 + ^ x21: .cfa -24 + ^ x22: .cfa -32 + ^ x23: .cfa -48 + ^ .ra: .cfa -56 + ^ x29: .cfa -64 + ^
STACK CFI 2d068 .cfa: sp 144 +
STACK CFI 2d07c .cfa: sp 0 +
STACK CFI 2d080 .cfa: x29 64 +
STACK CFI INIT 2d210 154 .cfa: sp 0 +
STACK CFI 2d214 .cfa: sp 384 +
STACK CFI 2d228 .cfa: x29 64 + x19: .cfa -8 + ^ x20: .cfa -16 + ^ x21: .cfa -24 + ^ x22: .cfa -32 + ^ x23: .cfa -40 + ^ x28: .cfa -48 + ^ .ra: .cfa -56 + ^ x29: .cfa -64 + ^
STACK CFI 2d30c .cfa: sp 384 +
STACK CFI 2d320 .cfa: sp 0 +
STACK CFI 2d324 .cfa: x29 64 +
STACK CFI INIT 2d364 168 .cfa: sp 0 +
STACK CFI 2d368 .cfa: sp 384 +
STACK CFI 2d37c .cfa: x29 64 + x19: .cfa -8 + ^ x20: .cfa -16 + ^ x21: .cfa -24 + ^ x22: .cfa -32 + ^ x23: .cfa -40 + ^ x28: .cfa -48 + ^ .ra: .cfa -56 + ^ x29: .cfa -64 + ^
STACK CFI 2d474 .cfa: sp 384 +
STACK CFI 2d488 .cfa: sp 0 +
STACK CFI 2d48c .cfa: x29 64 +
STACK CFI INIT 2d4e4 50c .cfa: sp 0 +
STACK CFI 2d4e8 .cfa: sp 64 +
STACK CFI 2d4f8 .cfa: x29 64 + x19: .cfa -8 + ^ x20: .cfa -16 + ^ x21: .cfa -24 + ^ x22: .cfa -32 + ^ x23: .cfa -40 + ^ x24: .cfa -48 + ^ .ra: .cfa -56 + ^ x29: .cfa -64 + ^
STACK CFI 2d618 .cfa: sp 64 +
STACK CFI 2d628 .cfa: sp 0 +
STACK CFI 2d62c .cfa: x29 64 +
STACK CFI 2d9c4 .cfa: sp 64 +
STACK CFI 2d9d4 .cfa: sp 0 +
STACK CFI 2d9d8 .cfa: x29 64 +
