MODULE Linux arm64 9BC7F2948EE1878187614D3C4784325F0 naxrin.chroma_icons.android64.so
INFO CODE_ID 94F2C79BE18E818787614D3C4784325FBE4ECBF6
INFO GENERATOR mozilla/dump_syms 2.3.4
PUBLIC 5a580 0 __on_dlclose
PUBLIC 5a590 0 __emutls_unregister_key
PUBLIC 5a598 0 __on_dlclose_late
PUBLIC 5a5a0 0 __atexit_handler_wrapper
PUBLIC 5a5b4 0 atexit
PUBLIC 5a5d0 0 pthread_atfork
PUBLIC 5a5e0 0 unwind_phase2
PUBLIC 5a714 0 _Unwind_Resume
PUBLIC 5a798 0 unwind_phase2_forced
PUBLIC m 5a88c 0 __unw_init_local
PUBLIC m 5a934 0 __unw_get_reg
PUBLIC 5a9b0 0 __unw_step_stage2
PUBLIC m 5a9c4 0 __unw_get_proc_info
PUBLIC m 5aa04 0 __unw_resume
PUBLIC 5aa2c 0 libunwind::CFI_Parser<libunwind::LocalAddressSpace>::decodeFDE(libunwind::LocalAddressSpace&, unsigned long, libunwind::CFI_Parser<libunwind::LocalAddressSpace>::FDE_Info*, libunwind::CFI_Parser<libunwind::LocalAddressSpace>::CIE_Info*, bool)
PUBLIC 5abbc 0 libunwind::CFI_Parser<libunwind::LocalAddressSpace>::parseCIE(libunwind::LocalAddressSpace&, unsigned long, libunwind::CFI_Parser<libunwind::LocalAddressSpace>::CIE_Info*)
PUBLIC 5ae84 0 libunwind::AbstractUnwindCursor::~AbstractUnwindCursor()
PUBLIC 5ae8c 0 libunwind::UnwindCursor<libunwind::LocalAddressSpace, libunwind::Registers_arm64>::~UnwindCursor()
PUBLIC 5ae94 0 libunwind::UnwindCursor<libunwind::LocalAddressSpace, libunwind::Registers_arm64>::validReg(int)
PUBLIC 5aed8 0 libunwind::UnwindCursor<libunwind::LocalAddressSpace, libunwind::Registers_arm64>::getReg(int)
PUBLIC 5afc0 0 libunwind::UnwindCursor<libunwind::LocalAddressSpace, libunwind::Registers_arm64>::setReg(int, unsigned long)
PUBLIC 5b0a8 0 libunwind::UnwindCursor<libunwind::LocalAddressSpace, libunwind::Registers_arm64>::validFloatReg(int)
PUBLIC 5b0bc 0 libunwind::UnwindCursor<libunwind::LocalAddressSpace, libunwind::Registers_arm64>::getFloatReg(int)
PUBLIC 5b0cc 0 libunwind::UnwindCursor<libunwind::LocalAddressSpace, libunwind::Registers_arm64>::setFloatReg(int, double)
PUBLIC 5b0dc 0 libunwind::UnwindCursor<libunwind::LocalAddressSpace, libunwind::Registers_arm64>::step(bool)
PUBLIC 5b1cc 0 libunwind::UnwindCursor<libunwind::LocalAddressSpace, libunwind::Registers_arm64>::getInfo(unw_proc_info_t*)
PUBLIC 5b210 0 libunwind::UnwindCursor<libunwind::LocalAddressSpace, libunwind::Registers_arm64>::jumpto()
PUBLIC 5b21c 0 libunwind::UnwindCursor<libunwind::LocalAddressSpace, libunwind::Registers_arm64>::isSignalFrame()
PUBLIC 5b228 0 libunwind::UnwindCursor<libunwind::LocalAddressSpace, libunwind::Registers_arm64>::getFunctionName(char*, unsigned long, unsigned long*)
PUBLIC 5b254 0 libunwind::UnwindCursor<libunwind::LocalAddressSpace, libunwind::Registers_arm64>::setInfoBasedOnIPRegister(bool)
PUBLIC 5b490 0 libunwind::UnwindCursor<libunwind::LocalAddressSpace, libunwind::Registers_arm64>::getRegisterName(int)
PUBLIC 5b49c 0 libunwind::UnwindCursor<libunwind::LocalAddressSpace, libunwind::Registers_arm64>::stepThroughSigReturn(libunwind::Registers_arm64&)
PUBLIC 5b5bc 0 libunwind::DwarfInstructions<libunwind::LocalAddressSpace, libunwind::Registers_arm64>::stepWithDwarf(libunwind::LocalAddressSpace&, unsigned long, unsigned long, libunwind::Registers_arm64&, bool&, bool)
PUBLIC 5ba50 0 libunwind::CFI_Parser<libunwind::LocalAddressSpace>::parseFDEInstructions(libunwind::LocalAddressSpace&, libunwind::CFI_Parser<libunwind::LocalAddressSpace>::FDE_Info const&, libunwind::CFI_Parser<libunwind::LocalAddressSpace>::CIE_Info const&, unsigned long, int, libunwind::CFI_Parser<libunwind::LocalAddressSpace>::PrologInfo*)
PUBLIC 5c5c8 0 libunwind::DwarfInstructions<libunwind::LocalAddressSpace, libunwind::Registers_arm64>::getCFA(libunwind::LocalAddressSpace&, libunwind::CFI_Parser<libunwind::LocalAddressSpace>::PrologInfo const&, libunwind::Registers_arm64 const&)
PUBLIC 5c6fc 0 libunwind::DwarfInstructions<libunwind::LocalAddressSpace, libunwind::Registers_arm64>::getSavedRegister(libunwind::LocalAddressSpace&, libunwind::Registers_arm64 const&, unsigned long, libunwind::CFI_Parser<libunwind::LocalAddressSpace>::RegisterLocation const&)
PUBLIC 5c90c 0 libunwind::LocalAddressSpace::getEncodedP(unsigned long&, unsigned long, unsigned char, unsigned long)
PUBLIC 5cc98 0 libunwind::LocalAddressSpace::getULEB128(unsigned long&, unsigned long)
PUBLIC 5ce60 0 libunwind::DwarfInstructions<libunwind::LocalAddressSpace, libunwind::Registers_arm64>::evaluateExpression(unsigned long, libunwind::LocalAddressSpace&, libunwind::Registers_arm64 const&, unsigned long)
PUBLIC 5d824 0 libunwind::UnwindCursor<libunwind::LocalAddressSpace, libunwind::Registers_arm64>::getInfoFromDwarfSection(unsigned long, libunwind::UnwindInfoSections const&, unsigned int)
PUBLIC 5daf8 0 libunwind::findUnwindSectionsByPhdr(dl_phdr_info*, unsigned long, void*)
PUBLIC 5dc28 0 libunwind::EHHeaderParser<libunwind::LocalAddressSpace>::decodeEHHdr(libunwind::LocalAddressSpace&, unsigned long, unsigned long, libunwind::EHHeaderParser<libunwind::LocalAddressSpace>::EHHeaderInfo&)
PUBLIC 5dd48 0 libunwind::CFI_Parser<libunwind::LocalAddressSpace>::findFDE(libunwind::LocalAddressSpace&, unsigned long, unsigned long, unsigned long, unsigned long, libunwind::CFI_Parser<libunwind::LocalAddressSpace>::FDE_Info*, libunwind::CFI_Parser<libunwind::LocalAddressSpace>::CIE_Info*)
PUBLIC 5df10 0 libunwind::EHHeaderParser<libunwind::LocalAddressSpace>::findFDE(libunwind::LocalAddressSpace&, unsigned long, unsigned long, unsigned int, libunwind::CFI_Parser<libunwind::LocalAddressSpace>::FDE_Info*, libunwind::CFI_Parser<libunwind::LocalAddressSpace>::CIE_Info*)
PUBLIC 5e078 0 libunwind::EHHeaderParser<libunwind::LocalAddressSpace>::getTableEntrySize(unsigned char)
PUBLIC 5e174 0 libunwind::Registers_arm64::getRegisterName(int)
PUBLIC 5e1a4 0 __libunwind_Registers_arm64_jumpto
PUBLIC m 5e234 0 __unw_getcontext
PUBLIC 5e2d0 0 __aarch64_ldadd8_acq_rel
PUBLIC 5e300 0 init_have_lse_atomics
PUBLIC 5e398 0 __init_cpu_features_constructor
PUBLIC 5e644 0 __init_cpu_features
FUNC 5e6d0 104 0 __cxx_global_array_dtor
FUNC 5e7d4 104 0 __cxx_global_array_dtor.3
FUNC 5e8d8 78 0 _GLOBAL__sub_I_LayerCallback.cpp
FUNC 5e950 8 0 std::__ndk1::map<PlayerObject*, bool, std::__ndk1::less<PlayerObject*>, std::__ndk1::allocator<std::__ndk1::pair<PlayerObject* const, bool> > >::~map[abi:ne190000]()
FUNC 5e958 6d8 0 ChromaLayer::handleBoolSignal(SignalEvent<bool>*)
FUNC 5f030 20 0 geode::cocos::CCArrayExt<SetupItemCell*>::~CCArrayExt()
FUNC 5f050 e0 0 std::__ndk1::map<std::__ndk1::basic_string<char, std::__ndk1::char_traits<char>, std::__ndk1::allocator<char> >, bool, std::__ndk1::less<std::__ndk1::basic_string<char, std::__ndk1::char_traits<char>, std::__ndk1::allocator<char> > >, std::__ndk1::allocator<std::__ndk1::pair<std::__ndk1::basic_string<char, std::__ndk1::char_traits<char>, std::__ndk1::allocator<char> > const, bool> > >::operator[](std::__ndk1::basic_string<char, std::__ndk1::char_traits<char>, std::__ndk1::allocator<char> >&&)
FUNC 5f130 30 0 geode::Mod::get<void>()
FUNC 5f160 1d4 0 geode::Mod::getSavedValue<float>(std::__ndk1::basic_string_view<char, std::__ndk1::char_traits<char> >, float const&)
FUNC 5f334 d44 0 ChromaLayer::handleIntSignal(SignalEvent<int>*)
FUNC 60078 30 0 ChromaSetup::~ChromaSetup()
FUNC 600a8 98 0 cocos2d::CCSequence::create(cocos2d::CCFiniteTimeAction*, ...)
FUNC 60140 60 0 _ZN5geode5cocos11CallFuncExt6createITkNSt6__ndk19invocableEZN11ChromaLayer15handleIntSignalEP11SignalEventIiEE3$_1EEDaOT_
FUNC 601a0 60 0 _ZN5geode5cocos11CallFuncExt6createITkNSt6__ndk19invocableEZN11ChromaLayer15handleIntSignalEP11SignalEventIiEE3$_2EEDaOT_
FUNC 60200 d0 0 geode::Mod::setSavedValue<bool>(std::__ndk1::basic_string_view<char, std::__ndk1::char_traits<char> >, bool const&)
FUNC 602d0 b8 0 ChromaLayer::handleFloatSignal(SignalEvent<float>*)
FUNC 60388 e0 0 geode::Mod::setSavedValue<float>(std::__ndk1::basic_string_view<char, std::__ndk1::char_traits<char> >, float const&)
FUNC 60468 8c 0 ChromaLayer::handleColorSignal(SignalEvent<cocos2d::_ccColor3B>*)
FUNC 604f4 544 0 ChromaLayer::onSwitchPlayer(cocos2d::CCObject*)
FUNC 60a38 580 0 ChromaLayer::onShowPopup(cocos2d::CCObject*)
FUNC 60fb8 1080 0 ChromaLayer::onSwitchEasyAdv(cocos2d::CCObject*)
FUNC 62038 878 0 ChromaLayer::onSwitchChannelPage(cocos2d::CCObject*)
FUNC 628b0 33c 0 ChromaLayer::onOptionsPage(cocos2d::CCObject*)
FUNC 62bec 384 0 ChromaLayer::onInfoPage(cocos2d::CCObject*)
FUNC 62f70 180 0 ChromaLayer::onInfoButtons(cocos2d::CCObject*)
FUNC 630f0 50 0 geode::Task<bool, std::__ndk1::monostate>::~Task()
FUNC 63140 70 0 ChromaLayer::onColorDisplayBtn(cocos2d::CCObject*)
FUNC 631b0 e8 0 ChromaLayer::onCopy(cocos2d::CCObject*)
FUNC 63298 230 0 ChromaLayer::onPaste(cocos2d::CCObject*)
FUNC 634c8 44 0 ChromaLayer::onResc(cocos2d::CCObject*)
FUNC 6350c 14c 0 ChromaLayer::onApply(cocos2d::CCObject*)
FUNC 63658 81c 0 ChromaLayer::onClose(cocos2d::CCObject*)
PUBLIC 63e74 0 __clang_call_terminate
FUNC 63e84 14 0 std::__ndk1::basic_string<char, std::__ndk1::char_traits<char>, std::__ndk1::allocator<char> >::__throw_length_error[abi:ne190000]() const
FUNC 63e98 50 0 std::__ndk1::__throw_length_error[abi:ne190000](char const*)
FUNC 63ee8 30 0 std::length_error::length_error[abi:ne190000](char const*)
FUNC 63f18 34 0 std::__throw_bad_array_new_length([abi:ne190000], void)
FUNC 63f4c 124 0 std::__ndk1::map<int, cocos2d::_ccColor3B, std::__ndk1::less<int>, std::__ndk1::allocator<std::__ndk1::pair<int const, cocos2d::_ccColor3B> > >::insert[abi:ne190000]<std::__ndk1::__map_const_iterator<std::__ndk1::__tree_const_iterator<std::__ndk1::__value_type<int, cocos2d::_ccColor3B>, std::__ndk1::__tree_node<std::__ndk1::__value_type, void*>*, long> > >(std::__ndk1::__map_const_iterator<std::__ndk1::__tree_const_iterator<std::__ndk1::__value_type<int, cocos2d::_ccColor3B>, std::__ndk1::__tree_node<std::__ndk1::__value_type, void*>*, long> >, std::__ndk1::__map_const_iterator<std::__ndk1::__tree_const_iterator<std::__ndk1::__value_type<int, cocos2d::_ccColor3B>, std::__ndk1::__tree_node<std::__ndk1::__value_type, void*>*, long> >)
FUNC 64070 1a8 0 std::__ndk1::__tree<std::__ndk1::__value_type<int, cocos2d::_ccColor3B>, std::__ndk1::__map_value_compare<int, std::__ndk1::__value_type<int, cocos2d::_ccColor3B>, std::__ndk1::less<int>, true>, std::__ndk1::allocator<std::__ndk1::__value_type<int, cocos2d::_ccColor3B> > >::__find_equal<int>(std::__ndk1::__tree_const_iterator<std::__ndk1::__value_type<int, cocos2d::_ccColor3B>, std::__ndk1::__tree_node<std::__ndk1::__value_type<int, cocos2d::_ccColor3B>, void*>*, long>, std::__ndk1::__tree_end_node<std::__ndk1::__tree_node_base<void*>*>*&, std::__ndk1::__tree_node_base<void*>*&, int const&)
FUNC 64218 194 0 std::__ndk1::__tree_balance_after_insert[abi:ne190000]<std::__ndk1::__tree_node_base<void*>*>(std::__ndk1::__tree_node_base<void*>*, std::__ndk1::__tree_node_base<void*>*)
FUNC 643ac 44 0 std::__ndk1::__tree<std::__ndk1::__value_type<int, cocos2d::_ccColor3B>, std::__ndk1::__map_value_compare<int, std::__ndk1::__value_type<int, cocos2d::_ccColor3B>, std::__ndk1::less<int>, true>, std::__ndk1::allocator<std::__ndk1::__value_type<int, cocos2d::_ccColor3B> > >::destroy(std::__ndk1::__tree_node<std::__ndk1::__value_type<int, cocos2d::_ccColor3B>, void*>*)
FUNC 643f0 14 0 std::__ndk1::vector<Page, std::__ndk1::allocator<Page> >::__throw_length_error[abi:ne190000]() const
FUNC 64404 24 0 geode::cocos::CallFuncExtImpl<ChromaLayer::handleIntSignal(SignalEvent<int>*)::$_0>::~CallFuncExtImpl()
FUNC 64428 1c4 0 geode::cocos::CallFuncExtImpl<ChromaLayer::handleIntSignal(SignalEvent<int>*)::$_0>::update(float)
FUNC 645ec 8 0 cocos2d::CCAction::setTag(int)
FUNC 645f4 24 0 geode::cocos::CallFuncExtImpl<ChromaLayer::handleIntSignal(SignalEvent<int>*)::$_1>::~CallFuncExtImpl()
FUNC 64618 12c 0 geode::cocos::CallFuncExtImpl<ChromaLayer::handleIntSignal(SignalEvent<int>*)::$_1>::update(float)
FUNC 64744 24 0 geode::cocos::CallFuncExtImpl<ChromaLayer::handleIntSignal(SignalEvent<int>*)::$_2>::~CallFuncExtImpl()
FUNC 64768 14 0 geode::cocos::CallFuncExtImpl<ChromaLayer::handleIntSignal(SignalEvent<int>*)::$_2>::update(float)
FUNC 6477c 24 0 geode::cocos::CallFuncExtImpl<ChromaLayer::handleIntSignal(SignalEvent<int>*)::$_3>::~CallFuncExtImpl()
FUNC 647a0 1c4 0 geode::cocos::CallFuncExtImpl<ChromaLayer::handleIntSignal(SignalEvent<int>*)::$_3>::update(float)
FUNC 64964 30c 0 std::__ndk1::__tree<std::__ndk1::__value_type<int, cocos2d::_ccColor3B>, std::__ndk1::__map_value_compare<int, std::__ndk1::__value_type<int, cocos2d::_ccColor3B>, std::__ndk1::less<int>, true>, std::__ndk1::allocator<std::__ndk1::__value_type<int, cocos2d::_ccColor3B> > >::__assign_multi<std::__ndk1::__tree_const_iterator<std::__ndk1::__value_type<int, cocos2d::_ccColor3B>, std::__ndk1::__tree_node<std::__ndk1::__value_type<int, cocos2d::_ccColor3B>, void*>*, long> >(std::__ndk1::__tree_const_iterator<std::__ndk1::__value_type<int, cocos2d::_ccColor3B>, std::__ndk1::__tree_node<std::__ndk1::__value_type<int, cocos2d::_ccColor3B>, void*>*, long>, std::__ndk1::__tree_const_iterator<std::__ndk1::__value_type<int, cocos2d::_ccColor3B>, std::__ndk1::__tree_node<std::__ndk1::__value_type<int, cocos2d::_ccColor3B>, void*>*, long>)
FUNC 64c70 24 0 geode::cocos::CallFuncExtImpl<ChromaLayer::onSwitchPlayer(cocos2d::CCObject*)::$_0>::~CallFuncExtImpl()
FUNC 64c94 12c 0 geode::cocos::CallFuncExtImpl<ChromaLayer::onSwitchPlayer(cocos2d::CCObject*)::$_0>::update(float)
FUNC 64dc0 24 0 geode::cocos::CallFuncExtImpl<ChromaLayer::onSwitchPlayer(cocos2d::CCObject*)::$_1>::~CallFuncExtImpl()
FUNC 64de4 14 0 geode::cocos::CallFuncExtImpl<ChromaLayer::onSwitchPlayer(cocos2d::CCObject*)::$_1>::update(float)
FUNC 64df8 24 0 geode::cocos::CallFuncExtImpl<ChromaLayer::onShowPopup(cocos2d::CCObject*)::$_0>::~CallFuncExtImpl()
FUNC 64e1c 1c4 0 geode::cocos::CallFuncExtImpl<ChromaLayer::onShowPopup(cocos2d::CCObject*)::$_0>::update(float)
FUNC 64fe0 24 0 geode::cocos::CallFuncExtImpl<ChromaLayer::onSwitchEasyAdv(cocos2d::CCObject*)::$_0>::~CallFuncExtImpl()
FUNC 65004 14 0 geode::cocos::CallFuncExtImpl<ChromaLayer::onSwitchEasyAdv(cocos2d::CCObject*)::$_0>::update(float)
FUNC 65018 24 0 geode::cocos::CallFuncExtImpl<ChromaLayer::onSwitchChannelPage(cocos2d::CCObject*)::$_0>::~CallFuncExtImpl()
FUNC 6503c 18 0 geode::cocos::CallFuncExtImpl<ChromaLayer::onSwitchChannelPage(cocos2d::CCObject*)::$_0>::update(float)
FUNC 65054 24 0 geode::cocos::CallFuncExtImpl<ChromaLayer::onSwitchChannelPage(cocos2d::CCObject*)::$_1>::~CallFuncExtImpl()
FUNC 65078 138 0 geode::cocos::CallFuncExtImpl<ChromaLayer::onSwitchChannelPage(cocos2d::CCObject*)::$_1>::update(float)
FUNC 651b0 24 0 geode::cocos::CallFuncExtImpl<ChromaLayer::onOptionsPage(cocos2d::CCObject*)::$_0>::~CallFuncExtImpl()
FUNC 651d4 1c4 0 geode::cocos::CallFuncExtImpl<ChromaLayer::onOptionsPage(cocos2d::CCObject*)::$_0>::update(float)
FUNC 65398 24 0 geode::cocos::CallFuncExtImpl<ChromaLayer::onInfoPage(cocos2d::CCObject*)::$_0>::~CallFuncExtImpl()
FUNC 653bc 1c4 0 geode::cocos::CallFuncExtImpl<ChromaLayer::onInfoPage(cocos2d::CCObject*)::$_0>::update(float)
FUNC 65580 24 0 geode::cocos::CallFuncExtImpl<ChromaLayer::onPaste(cocos2d::CCObject*)::$_0>::~CallFuncExtImpl()
FUNC 655a4 12c 0 geode::cocos::CallFuncExtImpl<ChromaLayer::onPaste(cocos2d::CCObject*)::$_0>::update(float)
FUNC 656d0 24 0 geode::cocos::CallFuncExtImpl<ChromaLayer::onPaste(cocos2d::CCObject*)::$_1>::~CallFuncExtImpl()
FUNC 656f4 14 0 geode::cocos::CallFuncExtImpl<ChromaLayer::onPaste(cocos2d::CCObject*)::$_1>::update(float)
FUNC 65708 24 0 geode::cocos::CallFuncExtImpl<ChromaLayer::onClose(cocos2d::CCObject*)::$_0>::~CallFuncExtImpl()
FUNC 6572c c 0 geode::cocos::CallFuncExtImpl<ChromaLayer::onClose(cocos2d::CCObject*)::$_0>::update(float)
FUNC 65738 134 0 geode::Popup<>::onClose(cocos2d::CCObject*)
FUNC 6586c 50 0 geode::Popup<>::CloseEvent::~CloseEvent()
FUNC 658bc 58 0 geode::Popup<>::CloseEvent::~CloseEvent()
FUNC 65914 10 0 std::__ndk1::__shared_ptr_emplace<geode::Popup<>::CloseEvent::Impl, std::__ndk1::allocator<geode::Popup<>::CloseEvent::Impl> >::~__shared_ptr_emplace()
FUNC 65924 30 0 std::__ndk1::__shared_ptr_emplace<geode::Popup<>::CloseEvent::Impl, std::__ndk1::allocator<geode::Popup<>::CloseEvent::Impl> >::~__shared_ptr_emplace()
FUNC 65954 4 0 std::__ndk1::__shared_ptr_emplace<geode::Popup<>::CloseEvent::Impl, std::__ndk1::allocator<geode::Popup<>::CloseEvent::Impl> >::__on_zero_shared()
FUNC 65958 4 0 std::__ndk1::__shared_ptr_emplace<geode::Popup<>::CloseEvent::Impl, std::__ndk1::allocator<geode::Popup<>::CloseEvent::Impl> >::__on_zero_shared_weak()
FUNC 6595c 24 0 geode::cocos::CallFuncExtImpl<ChromaLayer::onClose(cocos2d::CCObject*)::$_1>::~CallFuncExtImpl()
FUNC 65980 c 0 geode::cocos::CallFuncExtImpl<ChromaLayer::onClose(cocos2d::CCObject*)::$_1>::update(float)
FUNC 6598c 24 0 geode::cocos::CallFuncExtImpl<ChromaLayer::onClose(cocos2d::CCObject*)::$_2>::~CallFuncExtImpl()
FUNC 659b0 1c4 0 geode::cocos::CallFuncExtImpl<ChromaLayer::onClose(cocos2d::CCObject*)::$_2>::update(float)
FUNC 65b74 74 0 geode::impl::ResultData<matjson::Value&, std::__ndk1::basic_string<char, std::__ndk1::char_traits<char>, std::__ndk1::allocator<char> > >::~ResultData()
FUNC 65be8 108 0 matjson::Value::as<float>() const
FUNC 65cf0 34 0 std::__ndk1::__throw_bad_variant_access[abi:ne190000]()
FUNC 65d24 84 0 std::__ndk1::basic_string<char, std::__ndk1::char_traits<char>, std::__ndk1::allocator<char> >::__init_copy_ctor_external(char const*, unsigned long)
FUNC 65da8 4 0 std::__ndk1::__variant_detail::__visitation::__base::__dispatcher<(unsigned long)0>::__dispatch[abi:ne190000]<std::__ndk1::__variant_detail::__dtor<std::__ndk1::__variant_detail::__traits<double, std::__ndk1::basic_string<char, std::__ndk1::char_traits<char>, std::__ndk1::allocator<char> > >, (std::__ndk1::__variant_detail::_Trait)1>::__destroy[abi:ne190000]()::{lambda(auto:1&)#1}, std::__ndk1::__variant_detail::__base<(std::__ndk1::__variant_detail::__traits<double, std::__ndk1::basic_string<char, std::__ndk1::char_traits<char>, std::__ndk1::allocator<char> > >)1, double, std::__ndk1::allocator<char> >&>(std::__ndk1::__variant_detail::__dtor<std::__ndk1::__variant_detail::__traits<double, std::__ndk1::basic_string<char, std::__ndk1::char_traits<char>, std::__ndk1::allocator<char> > >, (std::__ndk1::__variant_detail::_Trait)1>, std::__ndk1::__variant_detail::__base<(std::__ndk1::__variant_detail::__traits<double, std::__ndk1::basic_string<char, std::__ndk1::char_traits<char>, std::__ndk1::allocator<char> > >)1, double, std::__ndk1::allocator<char> >&)
FUNC 65dac 14 0 std::__ndk1::__variant_detail::__visitation::__base::__dispatcher<(unsigned long)1>::__dispatch[abi:ne190000]<std::__ndk1::__variant_detail::__dtor<std::__ndk1::__variant_detail::__traits<double, std::__ndk1::basic_string<char, std::__ndk1::char_traits<char>, std::__ndk1::allocator<char> > >, (std::__ndk1::__variant_detail::_Trait)1>::__destroy[abi:ne190000]()::{lambda(auto:1&)#1}, std::__ndk1::__variant_detail::__base<(std::__ndk1::__variant_detail::__traits<double, std::__ndk1::basic_string<char, std::__ndk1::char_traits<char>, std::__ndk1::allocator<char> > >)1, double, std::__ndk1::allocator<char> >&>(std::__ndk1::__variant_detail::__dtor<std::__ndk1::__variant_detail::__traits<double, std::__ndk1::basic_string<char, std::__ndk1::char_traits<char>, std::__ndk1::allocator<char> > >, (std::__ndk1::__variant_detail::_Trait)1>, std::__ndk1::__variant_detail::__base<(std::__ndk1::__variant_detail::__traits<double, std::__ndk1::basic_string<char, std::__ndk1::char_traits<char>, std::__ndk1::allocator<char> > >)1, double, std::__ndk1::allocator<char> >&)
FUNC 65dc0 4 0 std::__ndk1::__variant_detail::__visitation::__base::__dispatcher<(unsigned long)0>::__dispatch[abi:ne190000]<std::__ndk1::__variant_detail::__dtor<std::__ndk1::__variant_detail::__traits<std::__ndk1::reference_wrapper<matjson::Value>, std::__ndk1::basic_string<char, std::__ndk1::char_traits<char>, std::__ndk1::allocator<char> > >, (std::__ndk1::__variant_detail::_Trait)1>::__destroy[abi:ne190000]()::{lambda(auto:1&)#1}, std::__ndk1::__variant_detail::__base<(std::__ndk1::__variant_detail::__traits<std::__ndk1::reference_wrapper<matjson::Value>, std::__ndk1::basic_string<char, std::__ndk1::char_traits<char>, std::__ndk1::allocator<char> > >)1, matjson::Value, std::__ndk1::allocator<char> >&>(std::__ndk1::__variant_detail::__dtor<std::__ndk1::__variant_detail::__traits<std::__ndk1::reference_wrapper<matjson::Value>, std::__ndk1::basic_string<char, std::__ndk1::char_traits<char>, std::__ndk1::allocator<char> > >, (std::__ndk1::__variant_detail::_Trait)1>, std::__ndk1::__variant_detail::__base<(std::__ndk1::__variant_detail::__traits<std::__ndk1::reference_wrapper<matjson::Value>, std::__ndk1::basic_string<char, std::__ndk1::char_traits<char>, std::__ndk1::allocator<char> > >)1, matjson::Value, std::__ndk1::allocator<char> >&)
FUNC 65dc4 14 0 std::__ndk1::__variant_detail::__visitation::__base::__dispatcher<(unsigned long)1>::__dispatch[abi:ne190000]<std::__ndk1::__variant_detail::__dtor<std::__ndk1::__variant_detail::__traits<std::__ndk1::reference_wrapper<matjson::Value>, std::__ndk1::basic_string<char, std::__ndk1::char_traits<char>, std::__ndk1::allocator<char> > >, (std::__ndk1::__variant_detail::_Trait)1>::__destroy[abi:ne190000]()::{lambda(auto:1&)#1}, std::__ndk1::__variant_detail::__base<(std::__ndk1::__variant_detail::__traits<std::__ndk1::reference_wrapper<matjson::Value>, std::__ndk1::basic_string<char, std::__ndk1::char_traits<char>, std::__ndk1::allocator<char> > >)1, matjson::Value, std::__ndk1::allocator<char> >&>(std::__ndk1::__variant_detail::__dtor<std::__ndk1::__variant_detail::__traits<std::__ndk1::reference_wrapper<matjson::Value>, std::__ndk1::basic_string<char, std::__ndk1::char_traits<char>, std::__ndk1::allocator<char> > >, (std::__ndk1::__variant_detail::_Trait)1>, std::__ndk1::__variant_detail::__base<(std::__ndk1::__variant_detail::__traits<std::__ndk1::reference_wrapper<matjson::Value>, std::__ndk1::basic_string<char, std::__ndk1::char_traits<char>, std::__ndk1::allocator<char> > >)1, matjson::Value, std::__ndk1::allocator<char> >&)
FUNC 65dd8 4 0 std::__ndk1::__variant_detail::__visitation::__base::__dispatcher<(unsigned long)0>::__dispatch[abi:ne190000]<std::__ndk1::__variant_detail::__dtor<std::__ndk1::__variant_detail::__traits<float, std::__ndk1::basic_string<char, std::__ndk1::char_traits<char>, std::__ndk1::allocator<char> > >, (std::__ndk1::__variant_detail::_Trait)1>::__destroy[abi:ne190000]()::{lambda(auto:1&)#1}, std::__ndk1::__variant_detail::__base<(std::__ndk1::__variant_detail::__traits<float, std::__ndk1::basic_string<char, std::__ndk1::char_traits<char>, std::__ndk1::allocator<char> > >)1, float, std::__ndk1::allocator<char> >&>(std::__ndk1::__variant_detail::__dtor<std::__ndk1::__variant_detail::__traits<float, std::__ndk1::basic_string<char, std::__ndk1::char_traits<char>, std::__ndk1::allocator<char> > >, (std::__ndk1::__variant_detail::_Trait)1>, std::__ndk1::__variant_detail::__base<(std::__ndk1::__variant_detail::__traits<float, std::__ndk1::basic_string<char, std::__ndk1::char_traits<char>, std::__ndk1::allocator<char> > >)1, float, std::__ndk1::allocator<char> >&)
FUNC 65ddc 14 0 std::__ndk1::__variant_detail::__visitation::__base::__dispatcher<(unsigned long)1>::__dispatch[abi:ne190000]<std::__ndk1::__variant_detail::__dtor<std::__ndk1::__variant_detail::__traits<float, std::__ndk1::basic_string<char, std::__ndk1::char_traits<char>, std::__ndk1::allocator<char> > >, (std::__ndk1::__variant_detail::_Trait)1>::__destroy[abi:ne190000]()::{lambda(auto:1&)#1}, std::__ndk1::__variant_detail::__base<(std::__ndk1::__variant_detail::__traits<float, std::__ndk1::basic_string<char, std::__ndk1::char_traits<char>, std::__ndk1::allocator<char> > >)1, float, std::__ndk1::allocator<char> >&>(std::__ndk1::__variant_detail::__dtor<std::__ndk1::__variant_detail::__traits<float, std::__ndk1::basic_string<char, std::__ndk1::char_traits<char>, std::__ndk1::allocator<char> > >, (std::__ndk1::__variant_detail::_Trait)1>, std::__ndk1::__variant_detail::__base<(std::__ndk1::__variant_detail::__traits<float, std::__ndk1::basic_string<char, std::__ndk1::char_traits<char>, std::__ndk1::allocator<char> > >)1, float, std::__ndk1::allocator<char> >&)
FUNC 65df0 44 0 std::__ndk1::__tree<std::__ndk1::__value_type<PlayerObject*, bool>, std::__ndk1::__map_value_compare<PlayerObject*, std::__ndk1::__value_type<PlayerObject*, bool>, std::__ndk1::less<PlayerObject*>, true>, std::__ndk1::allocator<std::__ndk1::__value_type<PlayerObject*, bool> > >::destroy(std::__ndk1::__tree_node<std::__ndk1::__value_type<PlayerObject*, bool>, void*>*)
FUNC 65e34 104 0 std::__ndk1::__tree<std::__ndk1::__value_type<std::__ndk1::basic_string<char, std::__ndk1::char_traits<char>, std::__ndk1::allocator<char> >, bool>, std::__ndk1::__map_value_compare<std::__ndk1::basic_string<char, std::__ndk1::char_traits<char>, std::__ndk1::allocator<char> >, std::__ndk1::__value_type<std::__ndk1::basic_string<char, std::__ndk1::char_traits<char>, std::__ndk1::allocator<char> >, bool>, std::__ndk1::less<std::__ndk1::basic_string<char, std::__ndk1::char_traits<char>, std::__ndk1::allocator<char> > >, true>, std::__ndk1::allocator<std::__ndk1::__value_type<std::__ndk1::basic_string<char, std::__ndk1::char_traits<char>, std::__ndk1::allocator<char> >, bool> > >::__find_equal<std::__ndk1::basic_string<char, std::__ndk1::char_traits<char>, std::__ndk1::allocator<char> > >(std::__ndk1::__tree_end_node<std::__ndk1::__tree_node_base<void*>*>*&, std::__ndk1::basic_string<char, std::__ndk1::char_traits<char>, std::__ndk1::allocator<char> > const&)
FUNC 65f38 17c 0 geode::Mod::getSavedValue<bool>(std::__ndk1::basic_string_view<char, std::__ndk1::char_traits<char> >)
FUNC 660b4 4 0 std::__ndk1::__variant_detail::__visitation::__base::__dispatcher<(unsigned long)0>::__dispatch[abi:ne190000]<std::__ndk1::__variant_detail::__dtor<std::__ndk1::__variant_detail::__traits<bool, std::__ndk1::basic_string<char, std::__ndk1::char_traits<char>, std::__ndk1::allocator<char> > >, (std::__ndk1::__variant_detail::_Trait)1>::__destroy[abi:ne190000]()::{lambda(auto:1&)#1}, std::__ndk1::__variant_detail::__base<(std::__ndk1::__variant_detail::__traits<bool, std::__ndk1::basic_string<char, std::__ndk1::char_traits<char>, std::__ndk1::allocator<char> > >)1, bool, std::__ndk1::allocator<char> >&>(std::__ndk1::__variant_detail::__dtor<std::__ndk1::__variant_detail::__traits<bool, std::__ndk1::basic_string<char, std::__ndk1::char_traits<char>, std::__ndk1::allocator<char> > >, (std::__ndk1::__variant_detail::_Trait)1>, std::__ndk1::__variant_detail::__base<(std::__ndk1::__variant_detail::__traits<bool, std::__ndk1::basic_string<char, std::__ndk1::char_traits<char>, std::__ndk1::allocator<char> > >)1, bool, std::__ndk1::allocator<char> >&)
FUNC 660b8 14 0 std::__ndk1::__variant_detail::__visitation::__base::__dispatcher<(unsigned long)1>::__dispatch[abi:ne190000]<std::__ndk1::__variant_detail::__dtor<std::__ndk1::__variant_detail::__traits<bool, std::__ndk1::basic_string<char, std::__ndk1::char_traits<char>, std::__ndk1::allocator<char> > >, (std::__ndk1::__variant_detail::_Trait)1>::__destroy[abi:ne190000]()::{lambda(auto:1&)#1}, std::__ndk1::__variant_detail::__base<(std::__ndk1::__variant_detail::__traits<bool, std::__ndk1::basic_string<char, std::__ndk1::char_traits<char>, std::__ndk1::allocator<char> > >)1, bool, std::__ndk1::allocator<char> >&>(std::__ndk1::__variant_detail::__dtor<std::__ndk1::__variant_detail::__traits<bool, std::__ndk1::basic_string<char, std::__ndk1::char_traits<char>, std::__ndk1::allocator<char> > >, (std::__ndk1::__variant_detail::_Trait)1>, std::__ndk1::__variant_detail::__base<(std::__ndk1::__variant_detail::__traits<bool, std::__ndk1::basic_string<char, std::__ndk1::char_traits<char>, std::__ndk1::allocator<char> > >)1, bool, std::__ndk1::allocator<char> >&)
FUNC 660cc 184 0 geode::Mod::getSavedValue<float>(std::__ndk1::basic_string_view<char, std::__ndk1::char_traits<char> >)
FUNC 66250 e14 0 ChromaLayer::setup()
FUNC 67064 1d0 0 geode::Mod::getSavedValue<bool>(std::__ndk1::basic_string_view<char, std::__ndk1::char_traits<char> >, bool const&)
FUNC 67234 adc 0 ChromaLayer::makeItemPage()
FUNC 67d10 f8 0 ItemCell::create(int)
FUNC 67e08 13ec 0 ChromaLayer::makeSetupPage()
FUNC 691f4 114 0 SetupItemCell::create(int, float, int)
FUNC 69308 f8 0 SetupOptionCell::create()
FUNC 69400 e94 0 ChromaLayer::makeColorPage()
FUNC 6a294 104 0 ColorValueCell::create(int)
FUNC 6a398 a9c 0 ChromaLayer::makeOptionsPage()
FUNC 6ae34 1ac 0 OptionTogglerCell::create(char const*, float, int, std::__ndk1::basic_string<char, std::__ndk1::char_traits<char>, std::__ndk1::allocator<char> >, char const*)
FUNC 6afe0 1a4 0 OptionTitleCell::create(char const*, float, int, std::__ndk1::basic_string<char, std::__ndk1::char_traits<char>, std::__ndk1::allocator<char> >)
FUNC 6b184 d8c 0 ChromaLayer::makeInfoPage()
FUNC 6bf10 8 0 cocos2d::CCCopying::copyWithZone(cocos2d::CCZone*)
FUNC 6bf18 220 0 ChromaLayer::~ChromaLayer()
FUNC 6c138 24 0 ChromaLayer::~ChromaLayer()
FUNC 6c15c 2c 0 geode::Popup<>::registerWithTouchDispatcher()
FUNC 6c188 10 0 ChromaLayer::keyBackClicked()
FUNC 6c198 28 0 geode::Popup<>::keyDown(cocos2d::enumKeyCodes)
FUNC 6c1c0 4 0 cocos2d::CCLayerRGBA::setOpacityModifyRGB(bool)
FUNC 6c1c4 8 0 cocos2d::CCLayerRGBA::isOpacityModifyRGB()
FUNC 6c1cc 8 0 {virtual override thunk({offset(-320)}, ChromaLayer::~ChromaLayer())}
FUNC 6c1d4 28 0 {virtual override thunk({offset(-320)}, ChromaLayer::~ChromaLayer())}
FUNC 6c1fc 14 0 {virtual override thunk({offset(-336)}, ChromaLayer::keyBackClicked())}
FUNC 6c210 2c 0 {virtual override thunk({offset(-344)}, geode::Popup<>::keyDown(cocos2d::enumKeyCodes))}
FUNC 6c23c 4 0 cocos2d::CCKeyboardDelegate::keyUp(cocos2d::enumKeyCodes)
FUNC 6c240 4 0 cocos2d::CCMouseDelegate::rightKeyDown()
FUNC 6c244 4 0 cocos2d::CCMouseDelegate::rightKeyUp()
FUNC 6c248 4 0 cocos2d::CCMouseDelegate::scrollWheel(float, float)
FUNC 6c24c 4 0 {virtual override thunk({offset(-408)}, cocos2d::CCLayerRGBA::setOpacityModifyRGB(bool))}
FUNC 6c250 8 0 {virtual override thunk({offset(-408)}, cocos2d::CCLayerRGBA::isOpacityModifyRGB())}
FUNC 6c258 4 0 cocos2d::CCMenu::setOpacityModifyRGB(bool)
FUNC 6c25c 8 0 cocos2d::CCMenu::isOpacityModifyRGB()
FUNC 6c264 8 0 cocos2d::CCMenu::isEnabled()
FUNC 6c26c 8 0 cocos2d::CCMenu::setEnabled(bool)
FUNC 6c274 a4 0 BaseCell::Fade(bool)
FUNC 6c318 4 0 {virtual override thunk({offset(-408)}, cocos2d::CCMenu::setOpacityModifyRGB(bool))}
FUNC 6c31c 8 0 {virtual override thunk({offset(-408)}, cocos2d::CCMenu::isOpacityModifyRGB())}
FUNC 6c324 34 0 std::__ndk1::__throw_bad_function_call[abi:ne190000]()
FUNC 6c358 24 0 std::__ndk1::bad_function_call::~bad_function_call()
FUNC 6c37c 23c 0 ScrollLayerPlus::ScrollLayerPlus(cocos2d::CCRect const&, bool, bool)
FUNC 6c5b8 24 0 ScrollLayerPlus::~ScrollLayerPlus()
FUNC 6c5dc 8 0 {virtual override thunk({offset(-320)}, ScrollLayerPlus::~ScrollLayerPlus())}
FUNC 6c5e4 28 0 {virtual override thunk({offset(-320)}, ScrollLayerPlus::~ScrollLayerPlus())}
FUNC 6c60c 7c 0 MyContentLayer::~MyContentLayer()
FUNC 6c688 84 0 MyContentLayer::~MyContentLayer()
FUNC 6c70c 160 0 MyContentLayer::setPosition(cocos2d::CCPoint const&)
FUNC 6c86c 1b8 0 MyContentLayer::addChild(cocos2d::CCNode*)
FUNC 6ca24 80 0 {virtual override thunk({offset(-320)}, MyContentLayer::~MyContentLayer())}
FUNC 6caa4 88 0 {virtual override thunk({offset(-320)}, MyContentLayer::~MyContentLayer())}
FUNC 6cb2c 20 0 geode::cocos::CCArrayExt<cocos2d::CCMenu*>::~CCArrayExt()
FUNC 6cb4c 14 0 std::__ndk1::vector<float, std::__ndk1::allocator<float> >::__throw_length_error[abi:ne190000]() const
FUNC 6cb60 14 0 std::__ndk1::vector<cocos2d::CCAction*, std::__ndk1::allocator<cocos2d::CCAction*> >::__throw_length_error[abi:ne190000]() const
FUNC 6cb74 24 0 SetupItemCell::~SetupItemCell()
FUNC 6cb98 8 0 {virtual override thunk({offset(-320)}, SetupItemCell::~SetupItemCell())}
FUNC 6cba0 28 0 {virtual override thunk({offset(-320)}, SetupItemCell::~SetupItemCell())}
FUNC 6cbc8 24 0 OptionTitleCell::~OptionTitleCell()
FUNC 6cbec 8 0 {virtual override thunk({offset(-320)}, OptionTitleCell::~OptionTitleCell())}
FUNC 6cbf4 28 0 {virtual override thunk({offset(-320)}, OptionTitleCell::~OptionTitleCell())}
FUNC 6cc1c 5c 0 geode::EventListener<geode::EventFilter<SignalEvent<cocos2d::_ccColor3B> > >::~EventListener()
FUNC 6cc78 5c 0 geode::EventListener<geode::EventFilter<SignalEvent<float> > >::~EventListener()
FUNC 6ccd4 5c 0 geode::EventListener<geode::EventFilter<SignalEvent<int> > >::~EventListener()
FUNC 6cd30 5c 0 geode::EventListener<geode::EventFilter<SignalEvent<bool> > >::~EventListener()
FUNC 6cd8c 4 0 geode::EventListener<geode::EventFilter<SignalEvent<cocos2d::_ccColor3B> > >::getPool() const
FUNC 6cd90 1a0 0 geode::EventListener<geode::EventFilter<SignalEvent<cocos2d::_ccColor3B> > >::handle(geode::Event*)
FUNC 6cf30 64 0 geode::EventListener<geode::EventFilter<SignalEvent<cocos2d::_ccColor3B> > >::~EventListener()
FUNC 6cf94 e4 0 geode::cast::traverseTypeinfoFor(void*, geode::cast::ClassTypeinfoType const*, char const*)
FUNC 6d078 4 0 geode::EventListener<geode::EventFilter<SignalEvent<float> > >::getPool() const
FUNC 6d07c 1a0 0 geode::EventListener<geode::EventFilter<SignalEvent<float> > >::handle(geode::Event*)
FUNC 6d21c 64 0 geode::EventListener<geode::EventFilter<SignalEvent<float> > >::~EventListener()
FUNC 6d280 4 0 geode::EventListener<geode::EventFilter<SignalEvent<int> > >::getPool() const
FUNC 6d284 1a0 0 geode::EventListener<geode::EventFilter<SignalEvent<int> > >::handle(geode::Event*)
FUNC 6d424 64 0 geode::EventListener<geode::EventFilter<SignalEvent<int> > >::~EventListener()
FUNC 6d488 4 0 geode::EventListener<geode::EventFilter<SignalEvent<bool> > >::getPool() const
FUNC 6d48c 1a0 0 geode::EventListener<geode::EventFilter<SignalEvent<bool> > >::handle(geode::Event*)
FUNC 6d62c 64 0 geode::EventListener<geode::EventFilter<SignalEvent<bool> > >::~EventListener()
FUNC 6d690 6c 0 geode::Popup<>::~Popup()
FUNC 6d6fc 4 0 geode::Popup<>::~Popup()
FUNC 6d700 6c 0 {virtual override thunk({offset(-320)}, geode::Popup<>::~Popup())}
FUNC 6d76c 4 0 {virtual override thunk({offset(-320)}, geode::Popup<>::~Popup())}
FUNC 6d770 1c 0 _GLOBAL__sub_I_LayerInit.cpp
PUBLIC 6d790 0 __aarch64_ldadd8_relax
FUNC 6d7c0 104 0 __cxx_global_array_dtor
FUNC 6d8c4 104 0 __cxx_global_array_dtor.3
FUNC 6d9c8 50 0 _GLOBAL__sub_I_LayerTransition.cpp
FUNC 6da18 11d0 0 ChromaLayer::switchTheme()
FUNC 6ebe8 170 0 BaseCell::switchTheme()
FUNC 6ed58 20 0 geode::cocos::CCArrayExt<BaseCell*>::~CCArrayExt()
FUNC 6ed78 20 0 geode::cocos::CCArrayExt<CCMenuItemSpriteExtra*>::~CCArrayExt()
FUNC 6ed98 824 0 ChromaLayer::refreshColorPage(int)
FUNC 6f5bc b8 0 std::__ndk1::basic_regex<char, std::__ndk1::regex_traits<char> >::basic_regex[abi:ne190000](char const*, std::__ndk1::regex_constants::syntax_option_type)
FUNC 6f674 50 0 std::__ndk1::basic_regex<char, std::__ndk1::regex_traits<char> >::~basic_regex()
FUNC 6f6c4 174 0 ColorValueCell::setVal(int)
FUNC 6f838 284 0 ChromaLayer::transistColorBtn(bool, bool)
FUNC 6fabc 140 0 ChromaLayer::fadeMainMenu()
FUNC 6fbfc 27c 0 ChromaLayer::fadeWarnPage()
FUNC 6fe78 8f0 0 ChromaLayer::fadeItemPage()
FUNC 70768 4ec 0 ChromaLayer::fadeSetupPage()
FUNC 70c54 44c 0 ChromaLayer::fadeColorPage()
FUNC 710a0 154 0 cocos2d::CCNode::getChildByType<cocos2d::CCSprite>(int)
FUNC 711f4 1c 0 ChromaLayer::fadeOptionsPage()
FUNC 71210 338 0 ChromaLayer::fadePopupPage()
FUNC 71548 20 0 geode::cocos::CCArrayExt<cocos2d::CCNode*>::~CCArrayExt()
FUNC 71568 580 0 ChromaLayer::fadeInfoPage()
FUNC 71ae8 24 0 geode::cocos::CallFuncExtImpl<ChromaLayer::switchTheme()::$_0>::~CallFuncExtImpl()
FUNC 71b0c 2c8 0 geode::cocos::CallFuncExtImpl<ChromaLayer::switchTheme()::$_0>::update(float)
FUNC 71dd4 50 0 std::__ndk1::shared_ptr<std::__ndk1::__empty_state<char> >::~shared_ptr[abi:ne190000]()
FUNC 71e24 140 0 cocos2d::CCString::createWithFormat(char const*, ...)
FUNC 71f64 24 0 geode::cocos::CallFuncExtImpl<ChromaLayer::fadeWarnPage()::$_0>::~CallFuncExtImpl()
FUNC 71f88 18 0 geode::cocos::CallFuncExtImpl<ChromaLayer::fadeWarnPage()::$_0>::update(float)
FUNC 71fa0 24 0 geode::cocos::CallFuncExtImpl<ChromaLayer::fadePopupPage()::$_0>::~CallFuncExtImpl()
FUNC 71fc4 14 0 geode::cocos::CallFuncExtImpl<ChromaLayer::fadePopupPage()::$_0>::update(float)
FUNC 71fd8 434 0 std::__ndk1::basic_regex<char, std::__ndk1::regex_traits<char> >::__parse<char const*>(char const*, char const*)
FUNC 7240c 4c 0 std::__ndk1::__throw_regex_error[abi:ne190000]<(std::__ndk1::regex_constants::error_type)17>()
FUNC 72458 270 0 std::__ndk1::basic_regex<char, std::__ndk1::regex_traits<char> >::__parse_ecma_exp<char const*>(char const*, char const*)
FUNC 726c8 180 0 std::__ndk1::basic_regex<char, std::__ndk1::regex_traits<char> >::__parse_basic_reg_exp<char const*>(char const*, char const*)
FUNC 72848 174 0 std::__ndk1::basic_regex<char, std::__ndk1::regex_traits<char> >::__parse_extended_reg_exp<char const*>(char const*, char const*)
FUNC 729bc 1b4 0 std::__ndk1::basic_regex<char, std::__ndk1::regex_traits<char> >::__parse_grep<char const*>(char const*, char const*)
FUNC 72b70 1b4 0 std::__ndk1::basic_regex<char, std::__ndk1::regex_traits<char> >::__parse_egrep<char const*>(char const*, char const*)
FUNC 72d24 4c 0 std::__ndk1::__throw_regex_error[abi:ne190000]<(std::__ndk1::regex_constants::error_type)14>()
FUNC 72d70 4 0 std::__ndk1::__end_state<char>::~__end_state()
FUNC 72d74 c 0 std::__ndk1::__end_state<char>::__exec(std::__ndk1::__state<char>&) const
FUNC 72d80 4 0 std::__ndk1::__node<char>::__exec_split(bool, std::__ndk1::__state<char>&) const
FUNC 72d84 4 0 std::__ndk1::__node<char>::__exec(std::__ndk1::__state<char>&) const
FUNC 72d88 24 0 std::__ndk1::__shared_ptr_pointer<std::__ndk1::__empty_state<char>*, std::__ndk1::shared_ptr<std::__ndk1::__empty_state<char> >::__shared_ptr_default_delete<std::__ndk1::__empty_state<char>, std::__ndk1::__empty_state<char> >, std::__ndk1::allocator<std::__ndk1::__empty_state<char> > >::~__shared_ptr_pointer()
FUNC 72dac 18 0 std::__ndk1::__shared_ptr_pointer<std::__ndk1::__empty_state<char>*, std::__ndk1::shared_ptr<std::__ndk1::__empty_state<char> >::__shared_ptr_default_delete<std::__ndk1::__empty_state<char>, std::__ndk1::__empty_state<char> >, std::__ndk1::allocator<std::__ndk1::__empty_state<char> > >::__on_zero_shared()
FUNC 72dc4 1c 0 std::__ndk1::__shared_ptr_pointer<std::__ndk1::__empty_state<char>*, std::__ndk1::shared_ptr<std::__ndk1::__empty_state<char> >::__shared_ptr_default_delete<std::__ndk1::__empty_state<char>, std::__ndk1::__empty_state<char> >, std::__ndk1::allocator<std::__ndk1::__empty_state<char> > >::__get_deleter(std::type_info const&) const
FUNC 72de0 4 0 std::__ndk1::__shared_ptr_pointer<std::__ndk1::__empty_state<char>*, std::__ndk1::shared_ptr<std::__ndk1::__empty_state<char> >::__shared_ptr_default_delete<std::__ndk1::__empty_state<char>, std::__ndk1::__empty_state<char> >, std::__ndk1::allocator<std::__ndk1::__empty_state<char> > >::__on_zero_shared_weak()
FUNC 72de4 48 0 std::__ndk1::__empty_state<char>::~__empty_state()
FUNC 72e2c 14 0 std::__ndk1::__empty_state<char>::__exec(std::__ndk1::__state<char>&) const
FUNC 72e40 48 0 std::__ndk1::__owns_one_state<char>::~__owns_one_state()
FUNC 72e88 364 0 std::__ndk1::basic_regex<char, std::__ndk1::regex_traits<char> >::__parse_assertion<char const*>(char const*, char const*)
FUNC 731ec 2b8 0 std::__ndk1::basic_regex<char, std::__ndk1::regex_traits<char> >::__parse_atom<char const*>(char const*, char const*)
FUNC 734a4 360 0 std::__ndk1::basic_regex<char, std::__ndk1::regex_traits<char> >::__parse_ERE_dupl_symbol<char const*>(char const*, char const*, std::__ndk1::__owns_one_state<char>*, unsigned int, unsigned int)
FUNC 73804 6c 0 std::__ndk1::basic_regex<char, std::__ndk1::regex_traits<char> >::basic_regex[abi:ne190000]()
FUNC 73870 b4 0 std::__ndk1::basic_regex<char, std::__ndk1::regex_traits<char> >::__push_lookahead(std::__ndk1::basic_regex<char, std::__ndk1::regex_traits<char> > const&, bool, unsigned int)
FUNC 73924 4c 0 std::__ndk1::__throw_regex_error[abi:ne190000]<(std::__ndk1::regex_constants::error_type)6>()
FUNC 73970 48 0 std::__ndk1::__l_anchor_multiline<char>::~__l_anchor_multiline()
FUNC 739b8 60 0 std::__ndk1::__l_anchor_multiline<char>::__exec(std::__ndk1::__state<char>&) const
FUNC 73a18 48 0 std::__ndk1::__r_anchor_multiline<char>::~__r_anchor_multiline()
FUNC 73a60 50 0 std::__ndk1::__r_anchor_multiline<char>::__exec(std::__ndk1::__state<char>&) const
FUNC 73ab0 5c 0 std::__ndk1::__word_boundary<char, std::__ndk1::regex_traits<char> >::~__word_boundary()
FUNC 73b0c 58 0 std::__ndk1::__word_boundary<char, std::__ndk1::regex_traits<char> >::~__word_boundary()
FUNC 73b64 110 0 std::__ndk1::__word_boundary<char, std::__ndk1::regex_traits<char> >::__exec(std::__ndk1::__state<char>&) const
FUNC 73c74 90 0 std::__ndk1::__lookahead<char, std::__ndk1::regex_traits<char> >::~__lookahead()
FUNC 73d04 8c 0 std::__ndk1::__lookahead<char, std::__ndk1::regex_traits<char> >::~__lookahead()
FUNC 73d90 1b8 0 std::__ndk1::__lookahead<char, std::__ndk1::regex_traits<char> >::__exec(std::__ndk1::__state<char>&) const
FUNC 73f48 474 0 std::__ndk1::basic_regex<char, std::__ndk1::regex_traits<char> >::__match_at_start_ecma<std::__ndk1::allocator<std::__ndk1::sub_match<char const*> > >(char const*, char const*, std::__ndk1::match_results<char const*, std::__ndk1::allocator<std::__ndk1::sub_match<char const*> > >&, std::__ndk1::regex_constants::match_flag_type, bool) const
FUNC 743bc 1c8 0 std::__ndk1::vector<std::__ndk1::sub_match<char const*>, std::__ndk1::allocator<std::__ndk1::sub_match<char const*> > >::assign(unsigned long, std::__ndk1::sub_match<char const*> const&)
FUNC 74584 14 0 std::__ndk1::vector<std::__ndk1::sub_match<char const*>, std::__ndk1::allocator<std::__ndk1::sub_match<char const*> > >::__throw_length_error[abi:ne190000]() const
FUNC 74598 44 0 std::__ndk1::__state<char>::~__state()
FUNC 745dc 4c 0 std::__ndk1::__throw_regex_error[abi:ne190000]<(std::__ndk1::regex_constants::error_type)12>()
FUNC 74628 178 0 std::__ndk1::__state<char>::__state(std::__ndk1::__state<char> const&)
FUNC 747a0 4c 0 std::__ndk1::__throw_regex_error[abi:ne190000]<(std::__ndk1::regex_constants::error_type)16>()
FUNC 747ec 88 0 std::__ndk1::vector<std::__ndk1::__state<char>, std::__ndk1::allocator<std::__ndk1::__state<char> > >::~vector[abi:ne190000]()
FUNC 74874 1e4 0 std::__ndk1::vector<std::__ndk1::__state<char>, std::__ndk1::allocator<std::__ndk1::__state<char> > >::__push_back_slow_path<std::__ndk1::__state<char> >(std::__ndk1::__state<char>&&)
FUNC 74a58 124 0 std::__ndk1::vector<std::__ndk1::__state<char>, std::__ndk1::allocator<std::__ndk1::__state<char> > >::__swap_out_circular_buffer(std::__ndk1::__split_buffer<std::__ndk1::__state<char>, std::__ndk1::allocator<std::__ndk1::__state<char> >&>&)
FUNC 74b7c 7c 0 std::__ndk1::__split_buffer<std::__ndk1::__state<char>, std::__ndk1::allocator<std::__ndk1::__state<char> >&>::~__split_buffer()
FUNC 74bf8 14 0 std::__ndk1::vector<std::__ndk1::__state<char>, std::__ndk1::allocator<std::__ndk1::__state<char> > >::__throw_length_error[abi:ne190000]() const
FUNC 74c0c 18c 0 std::__ndk1::vector<std::__ndk1::sub_match<char const*>, std::__ndk1::allocator<std::__ndk1::sub_match<char const*> > >::__append(unsigned long, std::__ndk1::sub_match<char const*> const&)
FUNC 74d98 12c 0 std::__ndk1::vector<std::__ndk1::pair<unsigned long, char const*>, std::__ndk1::allocator<std::__ndk1::pair<unsigned long, char const*> > >::__append(unsigned long)
FUNC 74ec4 14 0 std::__ndk1::vector<std::__ndk1::pair<unsigned long, char const*>, std::__ndk1::allocator<std::__ndk1::pair<unsigned long, char const*> > >::__throw_length_error[abi:ne190000]() const
FUNC 74ed8 154 0 std::__ndk1::basic_regex<char, std::__ndk1::regex_traits<char> >::__parse_bracket_expression<char const*>(char const*, char const*)
FUNC 7502c 4c 0 std::__ndk1::__throw_regex_error[abi:ne190000]<(std::__ndk1::regex_constants::error_type)11>()
FUNC 75078 68 0 std::__ndk1::basic_regex<char, std::__ndk1::regex_traits<char> >::__parse_pattern_character<char const*>(char const*, char const*)
FUNC 750e0 48 0 std::__ndk1::__match_any_but_newline<char>::~__match_any_but_newline()
FUNC 75128 4c 0 std::__ndk1::__throw_regex_error[abi:ne190000]<(std::__ndk1::regex_constants::error_type)3>()
FUNC 75174 c8 0 std::__ndk1::basic_regex<char, std::__ndk1::regex_traits<char> >::__parse_decimal_escape<char const*>(char const*, char const*)
FUNC 7523c 204 0 std::__ndk1::basic_regex<char, std::__ndk1::regex_traits<char> >::__parse_character_class_escape<char const*>(char const*, char const*)
FUNC 75440 468 0 std::__ndk1::basic_regex<char, std::__ndk1::regex_traits<char> >::__parse_character_escape<char const*>(char const*, char const*, std::__ndk1::basic_string<char, std::__ndk1::char_traits<char>, std::__ndk1::allocator<char> >*)
FUNC 758a8 140 0 std::__ndk1::basic_regex<char, std::__ndk1::regex_traits<char> >::__push_char(char)
FUNC 759e8 4c 0 std::__ndk1::__throw_regex_error[abi:ne190000]<(std::__ndk1::regex_constants::error_type)4>()
FUNC 75a34 c8 0 std::__ndk1::basic_regex<char, std::__ndk1::regex_traits<char> >::__push_back_ref(int)
FUNC 75afc 5c 0 std::__ndk1::__match_char_icase<char, std::__ndk1::regex_traits<char> >::~__match_char_icase()
FUNC 75b58 58 0 std::__ndk1::__match_char_icase<char, std::__ndk1::regex_traits<char> >::~__match_char_icase()
FUNC 75bb0 78 0 std::__ndk1::__match_char_icase<char, std::__ndk1::regex_traits<char> >::__exec(std::__ndk1::__state<char>&) const
FUNC 75c28 5c 0 std::__ndk1::__match_char_collate<char, std::__ndk1::regex_traits<char> >::~__match_char_collate()
FUNC 75c84 58 0 std::__ndk1::__match_char_collate<char, std::__ndk1::regex_traits<char> >::~__match_char_collate()
FUNC 75cdc 48 0 std::__ndk1::__match_char_collate<char, std::__ndk1::regex_traits<char> >::__exec(std::__ndk1::__state<char>&) const
FUNC 75d24 48 0 std::__ndk1::__match_char<char>::~__match_char()
FUNC 75d6c 48 0 std::__ndk1::__match_char<char>::__exec(std::__ndk1::__state<char>&) const
FUNC 75db4 5c 0 std::__ndk1::__back_ref_icase<char, std::__ndk1::regex_traits<char> >::~__back_ref_icase()
FUNC 75e10 58 0 std::__ndk1::__back_ref_icase<char, std::__ndk1::regex_traits<char> >::~__back_ref_icase()
FUNC 75e68 e8 0 std::__ndk1::__back_ref_icase<char, std::__ndk1::regex_traits<char> >::__exec(std::__ndk1::__state<char>&) const
FUNC 75f50 5c 0 std::__ndk1::__back_ref_collate<char, std::__ndk1::regex_traits<char> >::~__back_ref_collate()
FUNC 75fac 58 0 std::__ndk1::__back_ref_collate<char, std::__ndk1::regex_traits<char> >::~__back_ref_collate()
FUNC 76004 88 0 std::__ndk1::__back_ref_collate<char, std::__ndk1::regex_traits<char> >::__exec(std::__ndk1::__state<char>&) const
FUNC 7608c 48 0 std::__ndk1::__back_ref<char>::~__back_ref()
FUNC 760d4 c0 0 std::__ndk1::__back_ref<char>::__exec(std::__ndk1::__state<char>&) const
FUNC 76194 15c 0 std::__ndk1::__bracket_expression<char, std::__ndk1::regex_traits<char> >::__add_char[abi:ne190000](char)
FUNC 762f0 1bc 0 std::__ndk1::__bracket_expression<char, std::__ndk1::regex_traits<char> >::__bracket_expression[abi:ne190000](std::__ndk1::regex_traits<char> const&, std::__ndk1::__node<char>*, bool, bool, bool)
FUNC 764ac 7c 0 std::__ndk1::vector<std::__ndk1::basic_string<char, std::__ndk1::char_traits<char>, std::__ndk1::allocator<char> >, std::__ndk1::allocator<std::__ndk1::basic_string<char, std::__ndk1::char_traits<char>, std::__ndk1::allocator<char> > > >::~vector[abi:ne190000]()
FUNC 76528 8c 0 std::__ndk1::vector<std::__ndk1::pair<std::__ndk1::basic_string<char, std::__ndk1::char_traits<char>, std::__ndk1::allocator<char> >, std::__ndk1::basic_string<char, std::__ndk1::char_traits<char>, std::__ndk1::allocator<char> > >, std::__ndk1::allocator<std::__ndk1::pair<std::__ndk1::basic_string<char, std::__ndk1::char_traits<char>, std::__ndk1::allocator<char> >, std::__ndk1::basic_string<char, std::__ndk1::char_traits<char>, std::__ndk1::allocator<char> > > > >::~vector[abi:ne190000]()
FUNC 765b4 144 0 std::__ndk1::__bracket_expression<char, std::__ndk1::regex_traits<char> >::~__bracket_expression()
FUNC 766f8 24 0 std::__ndk1::__bracket_expression<char, std::__ndk1::regex_traits<char> >::~__bracket_expression()
FUNC 7671c a14 0 std::__ndk1::__bracket_expression<char, std::__ndk1::regex_traits<char> >::__exec(std::__ndk1::__state<char>&) const
FUNC 77130 44 0 std::__ndk1::pair<std::__ndk1::basic_string<char, std::__ndk1::char_traits<char>, std::__ndk1::allocator<char> >, std::__ndk1::basic_string<char, std::__ndk1::char_traits<char>, std::__ndk1::allocator<char> > >::~pair()
FUNC 77174 2b0 0 std::__ndk1::regex_traits<char>::__lookup_collatename<char*>(char*, char*, char) const
FUNC 77424 ac 0 std::__ndk1::basic_string<char, std::__ndk1::char_traits<char>, std::__ndk1::allocator<char> >::__assign_no_alias<true>(char const*, unsigned long)
FUNC 774d0 11c 0 std::__ndk1::basic_string<char, std::__ndk1::char_traits<char>, std::__ndk1::allocator<char> >::__assign_no_alias<false>(char const*, unsigned long)
FUNC 775ec 1d4 0 std::__ndk1::regex_traits<char>::__transform_primary<char*>(char*, char*, char) const
FUNC 777c0 14 0 std::__ndk1::vector<char, std::__ndk1::allocator<char> >::__throw_length_error[abi:ne190000]() const
FUNC 777d4 4c 0 std::__ndk1::__throw_regex_error[abi:ne190000]<(std::__ndk1::regex_constants::error_type)5>()
FUNC 77820 4d8 0 std::__ndk1::basic_regex<char, std::__ndk1::regex_traits<char> >::__parse_expression_term<char const*>(char const*, char const*, std::__ndk1::__bracket_expression<char, std::__ndk1::regex_traits<char> >*)
FUNC 77cf8 28c 0 std::__ndk1::basic_regex<char, std::__ndk1::regex_traits<char> >::__parse_equivalence_class<char const*>(char const*, char const*, std::__ndk1::__bracket_expression<char, std::__ndk1::regex_traits<char> >*)
FUNC 77f84 11c 0 std::__ndk1::basic_regex<char, std::__ndk1::regex_traits<char> >::__parse_collating_symbol<char const*>(char const*, char const*, std::__ndk1::basic_string<char, std::__ndk1::char_traits<char>, std::__ndk1::allocator<char> >&)
FUNC 780a0 16c 0 std::__ndk1::basic_regex<char, std::__ndk1::regex_traits<char> >::__parse_class_escape<char const*>(char const*, char const*, std::__ndk1::basic_string<char, std::__ndk1::char_traits<char>, std::__ndk1::allocator<char> >&, std::__ndk1::__bracket_expression<char, std::__ndk1::regex_traits<char> >*)
FUNC 7820c 348 0 std::__ndk1::basic_regex<char, std::__ndk1::regex_traits<char> >::__parse_awk_escape<char const*>(char const*, char const*, std::__ndk1::basic_string<char, std::__ndk1::char_traits<char>, std::__ndk1::allocator<char> >*)
FUNC 78554 470 0 std::__ndk1::__bracket_expression<char, std::__ndk1::regex_traits<char> >::__add_range[abi:ne190000](std::__ndk1::basic_string<char, std::__ndk1::char_traits<char>, std::__ndk1::allocator<char> >, std::__ndk1::allocator<char>)
FUNC 789c4 20c 0 std::__ndk1::__bracket_expression<char, std::__ndk1::regex_traits<char> >::__add_digraph[abi:ne190000](char, char)
FUNC 78bd0 4c 0 std::__ndk1::__throw_regex_error[abi:ne190000]<(std::__ndk1::regex_constants::error_type)1>()
FUNC 78c1c 2b0 0 std::__ndk1::regex_traits<char>::__lookup_collatename<char const*>(char const*, char const*, char) const
FUNC 78ecc 228 0 std::__ndk1::regex_traits<char>::__transform_primary<std::__ndk1::__wrap_iter<char*> >(std::__ndk1::__wrap_iter<char*>, std::__ndk1::__wrap_iter<char*>, char) const
FUNC 790f4 1b0 0 std::__ndk1::vector<std::__ndk1::basic_string<char, std::__ndk1::char_traits<char>, std::__ndk1::allocator<char> >, std::__ndk1::allocator<std::__ndk1::basic_string<char, std::__ndk1::char_traits<char>, std::__ndk1::allocator<char> > > >::__push_back_slow_path<std::__ndk1::basic_string<char, std::__ndk1::char_traits<char>, std::__ndk1::allocator<char> > const&>(std::__ndk1::basic_string<char, std::__ndk1::char_traits<char>, std::__ndk1::allocator<char> > const&)
FUNC 792a4 68 0 std::__ndk1::__split_buffer<std::__ndk1::basic_string<char, std::__ndk1::char_traits<char>, std::__ndk1::allocator<char> >, std::__ndk1::allocator<std::__ndk1::basic_string<char, std::__ndk1::char_traits<char>, std::__ndk1::allocator<char> > >&>::~__split_buffer()
FUNC 7930c 14 0 std::__ndk1::vector<std::__ndk1::basic_string<char, std::__ndk1::char_traits<char>, std::__ndk1::allocator<char> >, std::__ndk1::allocator<std::__ndk1::basic_string<char, std::__ndk1::char_traits<char>, std::__ndk1::allocator<char> > > >::__throw_length_error[abi:ne190000]() const
FUNC 79320 4c 0 std::__ndk1::__throw_regex_error[abi:ne190000]<(std::__ndk1::regex_constants::error_type)2>()
FUNC 7936c 194 0 std::__ndk1::regex_traits<char>::__lookup_classname<char const*>(char const*, char const*, bool, char) const
FUNC 79500 15c 0 std::__ndk1::__bracket_expression<char, std::__ndk1::regex_traits<char> >::__add_neg_char[abi:ne190000](char)
FUNC 7965c 1c4 0 std::__ndk1::regex_traits<char>::transform<std::__ndk1::__wrap_iter<char*> >(std::__ndk1::__wrap_iter<char*>, std::__ndk1::__wrap_iter<char*>) const
FUNC 79820 4c 0 std::__ndk1::__throw_regex_error[abi:ne190000]<(std::__ndk1::regex_constants::error_type)9>()
FUNC 7986c 1a0 0 std::__ndk1::vector<std::__ndk1::pair<std::__ndk1::basic_string<char, std::__ndk1::char_traits<char>, std::__ndk1::allocator<char> >, std::__ndk1::basic_string<char, std::__ndk1::char_traits<char>, std::__ndk1::allocator<char> > >, std::__ndk1::allocator<std::__ndk1::pair<std::__ndk1::basic_string<char, std::__ndk1::char_traits<char>, std::__ndk1::allocator<char> >, std::__ndk1::basic_string<char, std::__ndk1::char_traits<char>, std::__ndk1::allocator<char> > > > >::__push_back_slow_path<std::__ndk1::pair<std::__ndk1::basic_string<char, std::__ndk1::char_traits<char>, std::__ndk1::allocator<char> >, std::__ndk1::basic_string<char, std::__ndk1::char_traits<char>, std::__ndk1::allocator<char> > > >(std::__ndk1::pair<std::__ndk1::basic_string<char, std::__ndk1::char_traits<char>, std::__ndk1::allocator<char> >, std::__ndk1::basic_string<char, std::__ndk1::char_traits<char>, std::__ndk1::allocator<char> > >&&)
FUNC 79a0c 14 0 std::__ndk1::vector<std::__ndk1::pair<std::__ndk1::basic_string<char, std::__ndk1::char_traits<char>, std::__ndk1::allocator<char> >, std::__ndk1::basic_string<char, std::__ndk1::char_traits<char>, std::__ndk1::allocator<char> > >, std::__ndk1::allocator<std::__ndk1::pair<std::__ndk1::basic_string<char, std::__ndk1::char_traits<char>, std::__ndk1::allocator<char> >, std::__ndk1::basic_string<char, std::__ndk1::char_traits<char>, std::__ndk1::allocator<char> > > > >::__throw_length_error[abi:ne190000]() const
FUNC 79a20 14 0 std::__ndk1::vector<std::__ndk1::pair<char, char>, std::__ndk1::allocator<std::__ndk1::pair<char, char> > >::__throw_length_error[abi:ne190000]() const
FUNC 79a34 48 0 std::__ndk1::__begin_marked_subexpression<char>::~__begin_marked_subexpression()
FUNC 79a7c 30 0 std::__ndk1::__begin_marked_subexpression<char>::__exec(std::__ndk1::__state<char>&) const
FUNC 79aac 48 0 std::__ndk1::__end_marked_subexpression<char>::~__end_marked_subexpression()
FUNC 79af4 38 0 std::__ndk1::__end_marked_subexpression<char>::__exec(std::__ndk1::__state<char>&) const
FUNC 79b2c 140 0 std::__ndk1::basic_regex<char, std::__ndk1::regex_traits<char> >::__push_loop(unsigned long, unsigned long, std::__ndk1::__owns_one_state<char>*, unsigned long, unsigned long, bool)
FUNC 79c6c 4c 0 std::__ndk1::__throw_regex_error[abi:ne190000]<(std::__ndk1::regex_constants::error_type)8>()
FUNC 79cb8 4c 0 std::__ndk1::__throw_regex_error[abi:ne190000]<(std::__ndk1::regex_constants::error_type)7>()
FUNC 79d04 68 0 std::__ndk1::__loop<char>::~__loop()
FUNC 79d6c 1c4 0 std::__ndk1::__loop<char>::__exec(std::__ndk1::__state<char>&) const
FUNC 79f30 c4 0 std::__ndk1::__loop<char>::__exec_split(bool, std::__ndk1::__state<char>&) const
FUNC 79ff4 68 0 std::__ndk1::__owns_two_states<char>::~__owns_two_states()
FUNC 7a05c 4 0 std::__ndk1::__repeat_one_loop<char>::~__repeat_one_loop()
FUNC 7a060 14 0 std::__ndk1::__repeat_one_loop<char>::__exec(std::__ndk1::__state<char>&) const
FUNC 7a074 6c 0 std::__ndk1::__owns_two_states<char>::~__owns_two_states()
FUNC 7a0e0 68 0 std::__ndk1::__alternate<char>::~__alternate()
FUNC 7a148 c 0 std::__ndk1::__alternate<char>::__exec(std::__ndk1::__state<char>&) const
FUNC 7a154 24 0 std::__ndk1::__alternate<char>::__exec_split(bool, std::__ndk1::__state<char>&) const
FUNC 7a178 4 0 std::__ndk1::__node<char>::~__node()
FUNC 7a17c 4 0 std::__ndk1::__empty_non_own_state<char>::~__empty_non_own_state()
FUNC 7a180 14 0 std::__ndk1::__empty_non_own_state<char>::__exec(std::__ndk1::__state<char>&) const
FUNC 7a194 4c 0 std::__ndk1::__throw_regex_error[abi:ne190000]<(std::__ndk1::regex_constants::error_type)15>()
FUNC 7a1e0 1f4 0 std::__ndk1::basic_regex<char, std::__ndk1::regex_traits<char> >::__parse_nondupl_RE<char const*>(char const*, char const*)
FUNC 7a3d4 23c 0 std::__ndk1::basic_regex<char, std::__ndk1::regex_traits<char> >::__parse_RE_dupl_symbol<char const*>(char const*, char const*, std::__ndk1::__owns_one_state<char>*, unsigned int, unsigned int)
FUNC 7a610 104 0 std::__ndk1::basic_regex<char, std::__ndk1::regex_traits<char> >::__parse_one_char_or_coll_elem_RE<char const*>(char const*, char const*)
FUNC 7a714 2c 0 std::__ndk1::__owns_one_state<char>::~__owns_one_state()
FUNC 7a740 48 0 std::__ndk1::__match_any<char>::~__match_any()
FUNC 7a788 40 0 std::__ndk1::__match_any<char>::__exec(std::__ndk1::__state<char>&) const
FUNC 7a7c8 60 0 std::__ndk1::basic_regex<char, std::__ndk1::regex_traits<char> >::__test_back_ref(char)
FUNC 7a828 1fc 0 std::__ndk1::basic_regex<char, std::__ndk1::regex_traits<char> >::__parse_ERE_expression<char const*>(char const*, char const*)
FUNC 7aa24 120 0 std::__ndk1::basic_regex<char, std::__ndk1::regex_traits<char> >::__parse_one_char_or_coll_elem_ERE<char const*>(char const*, char const*)
FUNC 7ab44 d0 0 std::__ndk1::basic_regex<char, std::__ndk1::regex_traits<char> >::__parse_QUOTED_CHAR_ERE<char const*>(char const*, char const*)
FUNC 7ac14 2f4 0 std::__ndk1::basic_regex<char, std::__ndk1::regex_traits<char> >::__search<std::__ndk1::allocator<std::__ndk1::sub_match<char const*> > >(char const*, char const*, std::__ndk1::match_results<char const*, std::__ndk1::allocator<std::__ndk1::sub_match<char const*> > >&, std::__ndk1::regex_constants::match_flag_type) const
FUNC 7af08 1bc 0 std::__ndk1::match_results<std::__ndk1::__wrap_iter<char const*>, std::__ndk1::allocator<std::__ndk1::sub_match<std::__ndk1::__wrap_iter<char const*> > > >::__assign[abi:ne190000]<char const*, std::__ndk1::allocator<std::__ndk1::sub_match<char const*> > >(std::__ndk1::__wrap_iter<char const*>, std::__ndk1::__wrap_iter<char const*>, std::__ndk1::match_results<char const*, std::__ndk1::allocator<std::__ndk1::sub_match<char const*> > > const&, bool)
FUNC 7b0c4 8e0 0 std::__ndk1::basic_regex<char, std::__ndk1::regex_traits<char> >::__match_at_start_posix_nosubs<std::__ndk1::allocator<std::__ndk1::sub_match<char const*> > >(char const*, char const*, std::__ndk1::match_results<char const*, std::__ndk1::allocator<std::__ndk1::sub_match<char const*> > >&, std::__ndk1::regex_constants::match_flag_type, bool) const
FUNC 7b9a4 600 0 std::__ndk1::basic_regex<char, std::__ndk1::regex_traits<char> >::__match_at_start_posix_subs<std::__ndk1::allocator<std::__ndk1::sub_match<char const*> > >(char const*, char const*, std::__ndk1::match_results<char const*, std::__ndk1::allocator<std::__ndk1::sub_match<char const*> > >&, std::__ndk1::regex_constants::match_flag_type, bool) const
FUNC 7bfa4 154 0 std::__ndk1::deque<std::__ndk1::__state<char>, std::__ndk1::allocator<std::__ndk1::__state<char> > >::clear()
FUNC 7c0f8 7c 0 std::__ndk1::deque<std::__ndk1::__state<char>, std::__ndk1::allocator<std::__ndk1::__state<char> > >::~deque[abi:ne190000]()
FUNC 7c174 4bc 0 std::__ndk1::deque<std::__ndk1::__state<char>, std::__ndk1::allocator<std::__ndk1::__state<char> > >::__add_back_capacity()
FUNC 7c630 188 0 std::__ndk1::__split_buffer<std::__ndk1::__state<char>*, std::__ndk1::allocator<std::__ndk1::__state<char>*> >::push_back(std::__ndk1::__state<char>*&&)
FUNC 7c7b8 18c 0 std::__ndk1::__split_buffer<std::__ndk1::__state<char>*, std::__ndk1::allocator<std::__ndk1::__state<char>*> >::push_front(std::__ndk1::__state<char>*&&)
FUNC 7c944 18c 0 std::__ndk1::__split_buffer<std::__ndk1::__state<char>*, std::__ndk1::allocator<std::__ndk1::__state<char>*>&>::push_front(std::__ndk1::__state<char>* const&)
FUNC 7cad0 3e4 0 std::__ndk1::deque<std::__ndk1::__state<char>, std::__ndk1::allocator<std::__ndk1::__state<char> > >::__add_front_capacity()
FUNC 7ceb4 18c 0 std::__ndk1::__split_buffer<std::__ndk1::__state<char>*, std::__ndk1::allocator<std::__ndk1::__state<char>*> >::push_front(std::__ndk1::__state<char>* const&)
FUNC 7d040 1ec 0 std::__ndk1::vector<std::__ndk1::sub_match<char const*>, std::__ndk1::allocator<std::__ndk1::sub_match<char const*> > >::__assign_with_size[abi:ne190000]<std::__ndk1::sub_match<char const*>*, std::__ndk1::vector<std::__ndk1::sub_match<char const*>, std::__ndk1::allocator<std::__ndk1::sub_match<char const*> > >::__assign_with_size[abi:ne190000]>(std::__ndk1::sub_match<char const*>*, std::__ndk1::vector<std::__ndk1::sub_match<char const*>, std::__ndk1::allocator<std::__ndk1::sub_match<char const*> > >::__assign_with_size[abi:ne190000], long)
FUNC 7d22c 2dc 0 std::__ndk1::vector<std::__ndk1::pair<unsigned long, char const*>, std::__ndk1::allocator<std::__ndk1::pair<unsigned long, char const*> > >::__assign_with_size[abi:ne190000]<std::__ndk1::pair<unsigned long, char const*>*, std::__ndk1::vector<std::__ndk1::pair<unsigned long, char const*>, std::__ndk1::allocator<std::__ndk1::pair<unsigned long, char const*> > >::__assign_with_size[abi:ne190000]>(std::__ndk1::pair<unsigned long, char const*>*, std::__ndk1::vector<std::__ndk1::pair<unsigned long, char const*>, std::__ndk1::allocator<std::__ndk1::pair<unsigned long, char const*> > >::__assign_with_size[abi:ne190000], long)
FUNC 7d508 17c 0 std::__ndk1::vector<std::__ndk1::sub_match<std::__ndk1::__wrap_iter<char const*> >, std::__ndk1::allocator<std::__ndk1::sub_match<std::__ndk1::__wrap_iter<char const*> > > >::__append(unsigned long)
FUNC 7d684 14 0 std::__ndk1::vector<std::__ndk1::sub_match<std::__ndk1::__wrap_iter<char const*> >, std::__ndk1::allocator<std::__ndk1::sub_match<std::__ndk1::__wrap_iter<char const*> > > >::__throw_length_error[abi:ne190000]() const
FUNC 7d698 104 0 __cxx_global_array_dtor
FUNC 7d79c 104 0 __cxx_global_array_dtor.3
FUNC 7d8a0 50 0 _GLOBAL__sub_I_LayerUtils.cpp
FUNC 7d8f0 528 0 ChromaLayer::show()
FUNC 7de18 370 0 ChromaLayer::update(float)
FUNC 7e188 128 0 ChromaLayer::getColorTarget()
FUNC 7e2b0 4f4 0 ChromaLayer::dumpConfig()
FUNC 7e7a4 6d4 0 ChromaLayer::switchTab(int)
FUNC 7ee78 194 0 SetupItemCell::select(bool)
FUNC 7f00c 490 0 ChromaLayer::makeHintPopup(std::__ndk1::basic_string<char, std::__ndk1::char_traits<char>, std::__ndk1::allocator<char> >, std::__ndk1::basic_string<char, std::__ndk1::char_traits<char>, std::__ndk1::allocator<char> >)
FUNC 7f49c 1c 0 ChromaLayer::colorValueChanged(cocos2d::_ccColor3B)
FUNC 7f4b8 20 0 {virtual override thunk({offset(-672)}, ChromaLayer::colorValueChanged(cocos2d::_ccColor3B))}
FUNC 7f4d8 74 0 geode::impl::ResultData<bool, std::__ndk1::basic_string<char, std::__ndk1::char_traits<char>, std::__ndk1::allocator<char> > >::~ResultData()
FUNC 7f54c 74 0 geode::impl::ResultData<ChromaSetup, std::__ndk1::basic_string<char, std::__ndk1::char_traits<char>, std::__ndk1::allocator<char> > >::~ResultData()
FUNC 7f5c0 438 0 matjson::Serialize<ChromaSetup>::fromJson(matjson::Value const&)
FUNC 7f9f8 128 0 _ZNO5geode6ResultINSt6__ndk112basic_stringIcNS1_11char_traitsIcEENS1_9allocatorIcEEEES7_E7andThenIZN7matjson9SerializeI11ChromaSetupE8fromJsonERKNSA_5ValueEEUlT_E_Qaaaasr3stdE9invocableITL0__SH_Esr4implE8IsResultINS1_13invoke_resultISJ_JSH_EE4typeEEsr3stdE14convertible_toIT0_NS_4impl12IsResultImplISM_E7ErrTypeEEEENSK_ISH_JS7_EE4typeEOSH_
FUNC 7fb20 74 0 geode::impl::ResultData<cocos2d::_ccColor3B, std::__ndk1::basic_string<char, std::__ndk1::char_traits<char>, std::__ndk1::allocator<char> > >::~ResultData()
FUNC 7fb94 74 0 geode::impl::ResultData<std::__ndk1::basic_string<char, std::__ndk1::char_traits<char>, std::__ndk1::allocator<char> >, std::__ndk1::basic_string<char, std::__ndk1::char_traits<char>, std::__ndk1::allocator<char> > >::~ResultData()
FUNC 7fc08 74 0 geode::impl::ResultData<long, std::__ndk1::basic_string<char, std::__ndk1::char_traits<char>, std::__ndk1::allocator<char> > >::~ResultData()
FUNC 7fc7c 4 0 std::__ndk1::__variant_detail::__visitation::__base::__dispatcher<(unsigned long)0>::__dispatch[abi:ne190000]<std::__ndk1::__variant_detail::__dtor<std::__ndk1::__variant_detail::__traits<cocos2d::_ccColor3B, std::__ndk1::basic_string<char, std::__ndk1::char_traits<char>, std::__ndk1::allocator<char> > >, (std::__ndk1::__variant_detail::_Trait)1>::__destroy[abi:ne190000]()::{lambda(auto:1&)#1}, std::__ndk1::__variant_detail::__base<(std::__ndk1::__variant_detail::__traits<cocos2d::_ccColor3B, std::__ndk1::basic_string<char, std::__ndk1::char_traits<char>, std::__ndk1::allocator<char> > >)1, cocos2d, std::__ndk1::allocator<char> >&>(std::__ndk1::__variant_detail::__dtor<std::__ndk1::__variant_detail::__traits<cocos2d::_ccColor3B, std::__ndk1::basic_string<char, std::__ndk1::char_traits<char>, std::__ndk1::allocator<char> > >, (std::__ndk1::__variant_detail::_Trait)1>, std::__ndk1::__variant_detail::__base<(std::__ndk1::__variant_detail::__traits<cocos2d::_ccColor3B, std::__ndk1::basic_string<char, std::__ndk1::char_traits<char>, std::__ndk1::allocator<char> > >)1, cocos2d, std::__ndk1::allocator<char> >&)
FUNC 7fc80 14 0 std::__ndk1::__variant_detail::__visitation::__base::__dispatcher<(unsigned long)1>::__dispatch[abi:ne190000]<std::__ndk1::__variant_detail::__dtor<std::__ndk1::__variant_detail::__traits<cocos2d::_ccColor3B, std::__ndk1::basic_string<char, std::__ndk1::char_traits<char>, std::__ndk1::allocator<char> > >, (std::__ndk1::__variant_detail::_Trait)1>::__destroy[abi:ne190000]()::{lambda(auto:1&)#1}, std::__ndk1::__variant_detail::__base<(std::__ndk1::__variant_detail::__traits<cocos2d::_ccColor3B, std::__ndk1::basic_string<char, std::__ndk1::char_traits<char>, std::__ndk1::allocator<char> > >)1, cocos2d, std::__ndk1::allocator<char> >&>(std::__ndk1::__variant_detail::__dtor<std::__ndk1::__variant_detail::__traits<cocos2d::_ccColor3B, std::__ndk1::basic_string<char, std::__ndk1::char_traits<char>, std::__ndk1::allocator<char> > >, (std::__ndk1::__variant_detail::_Trait)1>, std::__ndk1::__variant_detail::__base<(std::__ndk1::__variant_detail::__traits<cocos2d::_ccColor3B, std::__ndk1::basic_string<char, std::__ndk1::char_traits<char>, std::__ndk1::allocator<char> > >)1, cocos2d, std::__ndk1::allocator<char> >&)
FUNC 7fc94 14 0 std::__ndk1::__variant_detail::__visitation::__base::__dispatcher<(unsigned long)0>::__dispatch[abi:ne190000]<std::__ndk1::__variant_detail::__dtor<std::__ndk1::__variant_detail::__traits<std::__ndk1::basic_string<char, std::__ndk1::char_traits<char>, std::__ndk1::allocator<char> >, std::__ndk1::allocator<char> >, (std::__ndk1::__variant_detail::_Trait)1>::__destroy[abi:ne190000]()::{lambda(auto:1&)#1}, std::__ndk1::__variant_detail::__base<(std::__ndk1::__variant_detail::__traits<std::__ndk1::basic_string<char, std::__ndk1::char_traits<char>, std::__ndk1::allocator<char> >, std::__ndk1::allocator<char> >)1, std::__ndk1::allocator<char>, std::__ndk1::allocator<char> >&>(std::__ndk1::__variant_detail::__dtor<std::__ndk1::__variant_detail::__traits<std::__ndk1::basic_string<char, std::__ndk1::char_traits<char>, std::__ndk1::allocator<char> >, std::__ndk1::allocator<char> >, (std::__ndk1::__variant_detail::_Trait)1>, std::__ndk1::__variant_detail::__base<(std::__ndk1::__variant_detail::__traits<std::__ndk1::basic_string<char, std::__ndk1::char_traits<char>, std::__ndk1::allocator<char> >, std::__ndk1::allocator<char> >)1, std::__ndk1::allocator<char>, std::__ndk1::allocator<char> >&)
FUNC 7fca8 14 0 std::__ndk1::__variant_detail::__visitation::__base::__dispatcher<(unsigned long)1>::__dispatch[abi:ne190000]<std::__ndk1::__variant_detail::__dtor<std::__ndk1::__variant_detail::__traits<std::__ndk1::basic_string<char, std::__ndk1::char_traits<char>, std::__ndk1::allocator<char> >, std::__ndk1::allocator<char> >, (std::__ndk1::__variant_detail::_Trait)1>::__destroy[abi:ne190000]()::{lambda(auto:1&)#1}, std::__ndk1::__variant_detail::__base<(std::__ndk1::__variant_detail::__traits<std::__ndk1::basic_string<char, std::__ndk1::char_traits<char>, std::__ndk1::allocator<char> >, std::__ndk1::allocator<char> >)1, std::__ndk1::allocator<char>, std::__ndk1::allocator<char> >&>(std::__ndk1::__variant_detail::__dtor<std::__ndk1::__variant_detail::__traits<std::__ndk1::basic_string<char, std::__ndk1::char_traits<char>, std::__ndk1::allocator<char> >, std::__ndk1::allocator<char> >, (std::__ndk1::__variant_detail::_Trait)1>, std::__ndk1::__variant_detail::__base<(std::__ndk1::__variant_detail::__traits<std::__ndk1::basic_string<char, std::__ndk1::char_traits<char>, std::__ndk1::allocator<char> >, std::__ndk1::allocator<char> >)1, std::__ndk1::allocator<char>, std::__ndk1::allocator<char> >&)
FUNC 7fcbc 4 0 std::__ndk1::__variant_detail::__visitation::__base::__dispatcher<(unsigned long)0>::__dispatch[abi:ne190000]<std::__ndk1::__variant_detail::__dtor<std::__ndk1::__variant_detail::__traits<long, std::__ndk1::basic_string<char, std::__ndk1::char_traits<char>, std::__ndk1::allocator<char> > >, (std::__ndk1::__variant_detail::_Trait)1>::__destroy[abi:ne190000]()::{lambda(auto:1&)#1}, std::__ndk1::__variant_detail::__base<(std::__ndk1::__variant_detail::__traits<long, std::__ndk1::basic_string<char, std::__ndk1::char_traits<char>, std::__ndk1::allocator<char> > >)1, long, std::__ndk1::allocator<char> >&>(std::__ndk1::__variant_detail::__dtor<std::__ndk1::__variant_detail::__traits<long, std::__ndk1::basic_string<char, std::__ndk1::char_traits<char>, std::__ndk1::allocator<char> > >, (std::__ndk1::__variant_detail::_Trait)1>, std::__ndk1::__variant_detail::__base<(std::__ndk1::__variant_detail::__traits<long, std::__ndk1::basic_string<char, std::__ndk1::char_traits<char>, std::__ndk1::allocator<char> > >)1, long, std::__ndk1::allocator<char> >&)
FUNC 7fcc0 14 0 std::__ndk1::__variant_detail::__visitation::__base::__dispatcher<(unsigned long)1>::__dispatch[abi:ne190000]<std::__ndk1::__variant_detail::__dtor<std::__ndk1::__variant_detail::__traits<long, std::__ndk1::basic_string<char, std::__ndk1::char_traits<char>, std::__ndk1::allocator<char> > >, (std::__ndk1::__variant_detail::_Trait)1>::__destroy[abi:ne190000]()::{lambda(auto:1&)#1}, std::__ndk1::__variant_detail::__base<(std::__ndk1::__variant_detail::__traits<long, std::__ndk1::basic_string<char, std::__ndk1::char_traits<char>, std::__ndk1::allocator<char> > >)1, long, std::__ndk1::allocator<char> >&>(std::__ndk1::__variant_detail::__dtor<std::__ndk1::__variant_detail::__traits<long, std::__ndk1::basic_string<char, std::__ndk1::char_traits<char>, std::__ndk1::allocator<char> > >, (std::__ndk1::__variant_detail::_Trait)1>, std::__ndk1::__variant_detail::__base<(std::__ndk1::__variant_detail::__traits<long, std::__ndk1::basic_string<char, std::__ndk1::char_traits<char>, std::__ndk1::allocator<char> > >)1, long, std::__ndk1::allocator<char> >&)
FUNC 7fcd4 30 0 std::__ndk1::__variant_detail::__visitation::__base::__dispatcher<(unsigned long)0>::__dispatch[abi:ne190000]<std::__ndk1::__variant_detail::__dtor<std::__ndk1::__variant_detail::__traits<ChromaSetup, std::__ndk1::basic_string<char, std::__ndk1::char_traits<char>, std::__ndk1::allocator<char> > >, (std::__ndk1::__variant_detail::_Trait)1>::__destroy[abi:ne190000]()::{lambda(auto:1&)#1}, std::__ndk1::__variant_detail::__base<(std::__ndk1::__variant_detail::__traits<ChromaSetup, std::__ndk1::basic_string<char, std::__ndk1::char_traits<char>, std::__ndk1::allocator<char> > >)1, std::__ndk1::__variant_detail::__traits, std::__ndk1::allocator<char> >&>(std::__ndk1::__variant_detail::__dtor<std::__ndk1::__variant_detail::__traits<ChromaSetup, std::__ndk1::basic_string<char, std::__ndk1::char_traits<char>, std::__ndk1::allocator<char> > >, (std::__ndk1::__variant_detail::_Trait)1>, std::__ndk1::__variant_detail::__base<(std::__ndk1::__variant_detail::__traits<ChromaSetup, std::__ndk1::basic_string<char, std::__ndk1::char_traits<char>, std::__ndk1::allocator<char> > >)1, std::__ndk1::__variant_detail::__traits, std::__ndk1::allocator<char> >&)
FUNC 7fd04 14 0 std::__ndk1::__variant_detail::__visitation::__base::__dispatcher<(unsigned long)1>::__dispatch[abi:ne190000]<std::__ndk1::__variant_detail::__dtor<std::__ndk1::__variant_detail::__traits<ChromaSetup, std::__ndk1::basic_string<char, std::__ndk1::char_traits<char>, std::__ndk1::allocator<char> > >, (std::__ndk1::__variant_detail::_Trait)1>::__destroy[abi:ne190000]()::{lambda(auto:1&)#1}, std::__ndk1::__variant_detail::__base<(std::__ndk1::__variant_detail::__traits<ChromaSetup, std::__ndk1::basic_string<char, std::__ndk1::char_traits<char>, std::__ndk1::allocator<char> > >)1, std::__ndk1::__variant_detail::__traits, std::__ndk1::allocator<char> >&>(std::__ndk1::__variant_detail::__dtor<std::__ndk1::__variant_detail::__traits<ChromaSetup, std::__ndk1::basic_string<char, std::__ndk1::char_traits<char>, std::__ndk1::allocator<char> > >, (std::__ndk1::__variant_detail::_Trait)1>, std::__ndk1::__variant_detail::__base<(std::__ndk1::__variant_detail::__traits<ChromaSetup, std::__ndk1::basic_string<char, std::__ndk1::char_traits<char>, std::__ndk1::allocator<char> > >)1, std::__ndk1::__variant_detail::__traits, std::__ndk1::allocator<char> >&)
FUNC 7fd18 300 0 matjson::Serialize<ChromaSetup>::toJson(ChromaSetup const&)
FUNC 80018 1b4 0 matjson::makeObject(std::initializer_list<std::__ndk1::pair<std::__ndk1::basic_string<char, std::__ndk1::char_traits<char>, std::__ndk1::allocator<char> >, matjson::Value> >)
FUNC 801cc d8 0 _ZNSt6__ndk14pairINS_12basic_stringIcNS_11char_traitsIcEENS_9allocatorIcEEEEN7matjson5ValueEEC2B8ne190000IRA5_KcRKiTnNS_9enable_ifIXclsr10_CheckArgsE23__is_pair_constructibleIT_T0_EEEiE4typeELi0EEEOSH_OSI_
FUNC 802a4 d8 0 _ZNSt6__ndk14pairINS_12basic_stringIcNS_11char_traitsIcEENS_9allocatorIcEEEEN7matjson5ValueEEC2B8ne190000IRA11_KcRKiTnNS_9enable_ifIXclsr10_CheckArgsE23__is_pair_constructibleIT_T0_EEEiE4typeELi0EEEOSH_OSI_
FUNC 8037c d8 0 _ZNSt6__ndk14pairINS_12basic_stringIcNS_11char_traitsIcEENS_9allocatorIcEEEEN7matjson5ValueEEC2B8ne190000IRA5_KcRKbTnNS_9enable_ifIXclsr10_CheckArgsE23__is_pair_constructibleIT_T0_EEEiE4typeELi0EEEOSH_OSI_
FUNC 80454 160 0 _ZNSt6__ndk14pairINS_12basic_stringIcNS_11char_traitsIcEENS_9allocatorIcEEEEN7matjson5ValueEEC2B8ne190000IRA6_KcS6_TnNS_9enable_ifIXclsr10_CheckArgsE23__is_pair_constructibleIT_T0_EEEiE4typeELi0EEEOSF_OSG_
FUNC 805b4 d8 0 _ZNSt6__ndk14pairINS_12basic_stringIcNS_11char_traitsIcEENS_9allocatorIcEEEEN7matjson5ValueEEC2B8ne190000IRA9_KcS8_TnNS_9enable_ifIXclsr10_CheckArgsE23__is_pair_constructibleIT_T0_EEEiE4typeELi0EEEOSF_OSG_
FUNC 8068c 3c 0 std::__ndk1::pair<std::__ndk1::basic_string<char, std::__ndk1::char_traits<char>, std::__ndk1::allocator<char> >, matjson::Value>::~pair()
FUNC 806c8 68 0 std::__ndk1::vector<matjson::Value, std::__ndk1::allocator<matjson::Value> >::~vector[abi:ne190000]()
FUNC 80730 1d0 0 std::__ndk1::vector<matjson::Value, std::__ndk1::allocator<matjson::Value> >::__emplace_back_slow_path<matjson::Value const&>(matjson::Value const&)
FUNC 80900 54 0 std::__ndk1::__split_buffer<matjson::Value, std::__ndk1::allocator<matjson::Value>&>::~__split_buffer()
FUNC 80954 14 0 std::__ndk1::vector<matjson::Value, std::__ndk1::allocator<matjson::Value> >::__throw_length_error[abi:ne190000]() const
FUNC 80968 4 0 CCBlurLayer::~CCBlurLayer()
FUNC 8096c 8 0 {virtual override thunk({offset(-320)}, CCBlurLayer::~CCBlurLayer())}
FUNC 80974 24 0 CCBlurLayer::~CCBlurLayer()
FUNC 80998 28 0 {virtual override thunk({offset(-320)}, CCBlurLayer::~CCBlurLayer())}
FUNC 809c0 44 0 CCBlurLayer::init()
FUNC 80a04 dc 0 CCBlurLayer::create()
FUNC 80ae0 64 0 CCBlurLayer::visit()
FUNC 80b44 218 0 CCBlurLayer::draw()
FUNC 80d5c 128 0 Shader::compile(std::__ndk1::__fs::filesystem::path const&, std::__ndk1::__fs::filesystem::path const&)::$_0::operator()(unsigned int) const
FUNC 80e84 1bc 0 RenderTexture::setup(int, int)
FUNC 81040 11c4 0 setupPostProcess()
FUNC 82204 160 0 cleanupPostProcess()
FUNC 82364 d8 0 geodeExecFunction389<(anonymous namespace)::ExecFuncUnique389>(geode::ModStateEvent*)
FUNC 8243c 3f0 0 __cxx_global_var_init.20
FUNC 8282c 3f0 0 __cxx_global_var_init.21
FUNC 82c1c 118 0 _GLOBAL__sub_I_CCBlurLayer.cpp
FUNC 82d34 1c 0 geode::modifier::ModifyBase<geode::modifier::ModifyDerive<hook371<(anonymous namespace)::hook371Parent>, cocos2d::CCEGLViewProtocol> >::~ModifyBase()
FUNC 82d50 1c 0 geode::modifier::ModifyBase<geode::modifier::ModifyDerive<hook381<(anonymous namespace)::hook381Parent>, GameManager> >::~ModifyBase()
FUNC 82d6c 168 0 _ZN5geode15UnwrapExceptionC2IRNSt6__ndk112basic_stringIcNS2_11char_traitsIcEENS2_9allocatorIcEEEEQsr4implE18IsStringStreamableIT_EEENS_4impl5OkTagEOSA_
FUNC 82ed4 128 0 std::__ndk1::basic_stringstream<char, std::__ndk1::char_traits<char>, std::__ndk1::allocator<char> >::basic_stringstream[abi:ne190000]()
FUNC 82ffc 80 0 std::__ndk1::basic_stringstream<char, std::__ndk1::char_traits<char>, std::__ndk1::allocator<char> >::~basic_stringstream()
FUNC 8307c 24 0 geode::UnwrapException::~UnwrapException()
FUNC 830a0 198 0 std::__ndk1::__put_character_sequence[abi:ne190000]<char, std::__ndk1::char_traits<char> >(std::__ndk1::basic_ostream<char, std::__ndk1::char_traits<char> >, std::__ndk1::basic_ostream const*, unsigned long)
FUNC 83238 1c4 0 std::__ndk1::__pad_and_output[abi:ne190000]<char, std::__ndk1::char_traits<char> >(std::__ndk1::char_traits<char>, std::__ndk1::ostreambuf_iterator const*, std::__ndk1::ostreambuf_iterator const, std::__ndk1::ostreambuf_iterator const, std::__ndk1::ios_base&, std::__ndk1::ostreambuf_iterator)
FUNC 833fc 15c 0 std::__ndk1::basic_stringbuf<char, std::__ndk1::char_traits<char>, std::__ndk1::allocator<char> >::str[abi:ne190000]() &&
FUNC 83558 148 0 std::__ndk1::basic_stringbuf<char, std::__ndk1::char_traits<char>, std::__ndk1::allocator<char> >::__init_buf_ptrs[abi:ne190000]()
FUNC 836a0 88 0 std::__ndk1::basic_string<char, std::__ndk1::char_traits<char>, std::__ndk1::allocator<char> >::__erase_external_with_move(unsigned long, unsigned long)
FUNC 83728 168 0 _ZN5geode15UnwrapExceptionC2IRNSt6__ndk112basic_stringIcNS2_11char_traitsIcEENS2_9allocatorIcEEEEQsr4implE18IsStringStreamableIT_EEENS_4impl6ErrTagEOSA_
FUNC 83890 388 0 _ZNSt6__ndk112basic_stringIcNS_11char_traitsIcEENS_9allocatorIcEEE6appendB8ne190000IPKcTnNS_9enable_ifIXsr31__has_forward_iterator_categoryIT_EE5valueEiE4typeELi0EEERS5_SA_SA_
FUNC 83c18 d0 0 std::__ndk1::__variant_detail::__visitation::__base::__dispatcher<(unsigned long)0, (unsigned long)0>::__dispatch[abi:ne190000]<std::__ndk1::__variant_detail::__assignment<std::__ndk1::__variant_detail::__traits<std::__ndk1::basic_string<char, std::__ndk1::char_traits<char>, std::__ndk1::allocator<char> >, std::__ndk1::allocator<char> > >::__generic_assign[abi:ne190000]<std::__ndk1::__variant_detail::__move_assignment<std::__ndk1::basic_string<char, std::__ndk1::char_traits<char>, std::__ndk1::allocator<char> >, (std::__ndk1::__variant_detail::_Trait)1> >(std::__ndk1::__variant_detail::__move_assignment<std::__ndk1::basic_string<char, std::__ndk1::char_traits<char>, std::__ndk1::allocator<char> >, (std::__ndk1::__variant_detail::_Trait)1>&&)::{lambda(std::__ndk1::__variant_detail::_Trait&, auto:2&&)#1}, std::__ndk1::__variant_detail::__base<(std::__ndk1::__variant_detail::__assignment<std::__ndk1::__variant_detail::__traits<std::__ndk1::basic_string<char, std::__ndk1::char_traits<char>, std::__ndk1::allocator<char> >, std::__ndk1::allocator<char> > >::__generic_assign[abi:ne190000])1, std::__ndk1::allocator<char>, std::__ndk1::allocator<char> >&, std::__ndk1::__variant_detail::__assignment<std::__ndk1::__variant_detail::__traits<std::__ndk1::basic_string<char, std::__ndk1::char_traits<char>, std::__ndk1::allocator<char> >, std::__ndk1::allocator<char> > >::__generic_assign[abi:ne190000]<std::__ndk1::__variant_detail::__move_assignment<std::__ndk1::basic_string<char, std::__ndk1::char_traits<char>, std::__ndk1::allocator<char> >, (std::__ndk1::__variant_detail::_Trait)1> >(std::__ndk1::__variant_detail::__move_assignment<std::__ndk1::basic_string<char, std::__ndk1::char_traits<char>, std::__ndk1::allocator<char> >, (std::__ndk1::__variant_detail::_Trait)1>&&)::{lambda(std::__ndk1::__variant_detail::_Trait&, auto:2&&)#1}>(std::__ndk1::__variant_detail::_Trait, std::__ndk1::__variant_detail::__base<(std::__ndk1::__variant_detail::__assignment<std::__ndk1::__variant_detail::__traits<std::__ndk1::basic_string<char, std::__ndk1::char_traits<char>, std::__ndk1::allocator<char> >, std::__ndk1::allocator<char> > >::__generic_assign[abi:ne190000])1, std::__ndk1::allocator<char>, std::__ndk1::allocator<char> >&, std::__ndk1::__variant_detail::__assignment<std::__ndk1::__variant_detail::__traits<std::__ndk1::basic_string<char, std::__ndk1::char_traits<char>, std::__ndk1::allocator<char> >, std::__ndk1::allocator<char> > >::__generic_assign[abi:ne190000]<std::__ndk1::__variant_detail::__move_assignment<std::__ndk1::basic_string<char, std::__ndk1::char_traits<char>, std::__ndk1::allocator<char> >, (std::__ndk1::__variant_detail::_Trait)1> >(std::__ndk1::__variant_detail::__move_assignment<std::__ndk1::basic_string<char, std::__ndk1::char_traits<char>, std::__ndk1::allocator<char> >, (std::__ndk1::__variant_detail::_Trait)1>&&)::{lambda(std::__ndk1::__variant_detail::_Trait&, auto:2&&)#1})
FUNC 83ce8 d8 0 std::__ndk1::__variant_detail::__visitation::__base::__dispatcher<(unsigned long)1, (unsigned long)1>::__dispatch[abi:ne190000]<std::__ndk1::__variant_detail::__assignment<std::__ndk1::__variant_detail::__traits<std::__ndk1::basic_string<char, std::__ndk1::char_traits<char>, std::__ndk1::allocator<char> >, std::__ndk1::allocator<char> > >::__generic_assign[abi:ne190000]<std::__ndk1::__variant_detail::__move_assignment<std::__ndk1::basic_string<char, std::__ndk1::char_traits<char>, std::__ndk1::allocator<char> >, (std::__ndk1::__variant_detail::_Trait)1> >(std::__ndk1::__variant_detail::__move_assignment<std::__ndk1::basic_string<char, std::__ndk1::char_traits<char>, std::__ndk1::allocator<char> >, (std::__ndk1::__variant_detail::_Trait)1>&&)::{lambda(std::__ndk1::__variant_detail::_Trait&, auto:2&&)#1}, std::__ndk1::__variant_detail::__base<(std::__ndk1::__variant_detail::__assignment<std::__ndk1::__variant_detail::__traits<std::__ndk1::basic_string<char, std::__ndk1::char_traits<char>, std::__ndk1::allocator<char> >, std::__ndk1::allocator<char> > >::__generic_assign[abi:ne190000])1, std::__ndk1::allocator<char>, std::__ndk1::allocator<char> >&, std::__ndk1::__variant_detail::__assignment<std::__ndk1::__variant_detail::__traits<std::__ndk1::basic_string<char, std::__ndk1::char_traits<char>, std::__ndk1::allocator<char> >, std::__ndk1::allocator<char> > >::__generic_assign[abi:ne190000]<std::__ndk1::__variant_detail::__move_assignment<std::__ndk1::basic_string<char, std::__ndk1::char_traits<char>, std::__ndk1::allocator<char> >, (std::__ndk1::__variant_detail::_Trait)1> >(std::__ndk1::__variant_detail::__move_assignment<std::__ndk1::basic_string<char, std::__ndk1::char_traits<char>, std::__ndk1::allocator<char> >, (std::__ndk1::__variant_detail::_Trait)1>&&)::{lambda(std::__ndk1::__variant_detail::_Trait&, auto:2&&)#1}>(std::__ndk1::__variant_detail::_Trait, std::__ndk1::__variant_detail::__base<(std::__ndk1::__variant_detail::__assignment<std::__ndk1::__variant_detail::__traits<std::__ndk1::basic_string<char, std::__ndk1::char_traits<char>, std::__ndk1::allocator<char> >, std::__ndk1::allocator<char> > >::__generic_assign[abi:ne190000])1, std::__ndk1::allocator<char>, std::__ndk1::allocator<char> >&, std::__ndk1::__variant_detail::__assignment<std::__ndk1::__variant_detail::__traits<std::__ndk1::basic_string<char, std::__ndk1::char_traits<char>, std::__ndk1::allocator<char> >, std::__ndk1::allocator<char> > >::__generic_assign[abi:ne190000]<std::__ndk1::__variant_detail::__move_assignment<std::__ndk1::basic_string<char, std::__ndk1::char_traits<char>, std::__ndk1::allocator<char> >, (std::__ndk1::__variant_detail::_Trait)1> >(std::__ndk1::__variant_detail::__move_assignment<std::__ndk1::basic_string<char, std::__ndk1::char_traits<char>, std::__ndk1::allocator<char> >, (std::__ndk1::__variant_detail::_Trait)1>&&)::{lambda(std::__ndk1::__variant_detail::_Trait&, auto:2&&)#1})
FUNC 83dc0 404 0 geode::modifier::ModifyDerive<hook371<(anonymous namespace)::hook371Parent>, cocos2d::CCEGLViewProtocol>::apply()
FUNC 841c4 50 0 std::__ndk1::shared_ptr<geode::Hook>::~shared_ptr[abi:ne190000]()
FUNC 84214 74 0 geode::impl::ResultData<geode::Hook*, std::__ndk1::basic_string<char, std::__ndk1::char_traits<char>, std::__ndk1::allocator<char> > >::~ResultData()
FUNC 84288 4 0 geode::modifier::ModifyBase<geode::modifier::ModifyDerive<hook371<(anonymous namespace)::hook371Parent>, cocos2d::CCEGLViewProtocol> >::apply()
FUNC 8428c 154 0 _ZN5geode15UnwrapExceptionC2IRPNS_4HookEQsr4implE18IsStringStreamableIT_EEENS_4impl5OkTagEOS5_
FUNC 843e0 4 0 std::__ndk1::__variant_detail::__visitation::__base::__dispatcher<(unsigned long)0>::__dispatch[abi:ne190000]<std::__ndk1::__variant_detail::__dtor<std::__ndk1::__variant_detail::__traits<geode::Hook*, std::__ndk1::basic_string<char, std::__ndk1::char_traits<char>, std::__ndk1::allocator<char> > >, (std::__ndk1::__variant_detail::_Trait)1>::__destroy[abi:ne190000]()::{lambda(auto:1&)#1}, std::__ndk1::__variant_detail::__base<(std::__ndk1::__variant_detail::__traits<geode::Hook*, std::__ndk1::basic_string<char, std::__ndk1::char_traits<char>, std::__ndk1::allocator<char> > >)1, geode::Hook, std::__ndk1::allocator<char> >&>(std::__ndk1::__variant_detail::__dtor<std::__ndk1::__variant_detail::__traits<geode::Hook*, std::__ndk1::basic_string<char, std::__ndk1::char_traits<char>, std::__ndk1::allocator<char> > >, (std::__ndk1::__variant_detail::_Trait)1>, std::__ndk1::__variant_detail::__base<(std::__ndk1::__variant_detail::__traits<geode::Hook*, std::__ndk1::basic_string<char, std::__ndk1::char_traits<char>, std::__ndk1::allocator<char> > >)1, geode::Hook, std::__ndk1::allocator<char> >&)
FUNC 843e4 14 0 std::__ndk1::__variant_detail::__visitation::__base::__dispatcher<(unsigned long)1>::__dispatch[abi:ne190000]<std::__ndk1::__variant_detail::__dtor<std::__ndk1::__variant_detail::__traits<geode::Hook*, std::__ndk1::basic_string<char, std::__ndk1::char_traits<char>, std::__ndk1::allocator<char> > >, (std::__ndk1::__variant_detail::_Trait)1>::__destroy[abi:ne190000]()::{lambda(auto:1&)#1}, std::__ndk1::__variant_detail::__base<(std::__ndk1::__variant_detail::__traits<geode::Hook*, std::__ndk1::basic_string<char, std::__ndk1::char_traits<char>, std::__ndk1::allocator<char> > >)1, geode::Hook, std::__ndk1::allocator<char> >&>(std::__ndk1::__variant_detail::__dtor<std::__ndk1::__variant_detail::__traits<geode::Hook*, std::__ndk1::basic_string<char, std::__ndk1::char_traits<char>, std::__ndk1::allocator<char> > >, (std::__ndk1::__variant_detail::_Trait)1>, std::__ndk1::__variant_detail::__base<(std::__ndk1::__variant_detail::__traits<geode::Hook*, std::__ndk1::basic_string<char, std::__ndk1::char_traits<char>, std::__ndk1::allocator<char> > >)1, geode::Hook, std::__ndk1::allocator<char> >&)
FUNC 843f8 104 0 std::__ndk1::__tree<std::__ndk1::__value_type<std::__ndk1::basic_string<char, std::__ndk1::char_traits<char>, std::__ndk1::allocator<char> >, std::__ndk1::shared_ptr<geode::Hook> >, std::__ndk1::__map_value_compare<std::__ndk1::basic_string<char, std::__ndk1::char_traits<char>, std::__ndk1::allocator<char> >, std::__ndk1::__value_type<std::__ndk1::basic_string<char, std::__ndk1::char_traits<char>, std::__ndk1::allocator<char> >, std::__ndk1::shared_ptr<geode::Hook> >, std::__ndk1::less<std::__ndk1::basic_string<char, std::__ndk1::char_traits<char>, std::__ndk1::allocator<char> > >, true>, std::__ndk1::allocator<std::__ndk1::__value_type<std::__ndk1::basic_string<char, std::__ndk1::char_traits<char>, std::__ndk1::allocator<char> >, std::__ndk1::shared_ptr<geode::Hook> > > >::find<std::__ndk1::basic_string<char, std::__ndk1::char_traits<char>, std::__ndk1::allocator<char> > >(std::__ndk1::basic_string<char, std::__ndk1::char_traits<char>, std::__ndk1::allocator<char> > const&)
FUNC 844fc d4 0 std::__ndk1::__tree<std::__ndk1::__value_type<std::__ndk1::basic_string<char, std::__ndk1::char_traits<char>, std::__ndk1::allocator<char> >, std::__ndk1::shared_ptr<geode::Hook> >, std::__ndk1::__map_value_compare<std::__ndk1::basic_string<char, std::__ndk1::char_traits<char>, std::__ndk1::allocator<char> >, std::__ndk1::__value_type<std::__ndk1::basic_string<char, std::__ndk1::char_traits<char>, std::__ndk1::allocator<char> >, std::__ndk1::shared_ptr<geode::Hook> >, std::__ndk1::less<std::__ndk1::basic_string<char, std::__ndk1::char_traits<char>, std::__ndk1::allocator<char> > >, true>, std::__ndk1::allocator<std::__ndk1::__value_type<std::__ndk1::basic_string<char, std::__ndk1::char_traits<char>, std::__ndk1::allocator<char> >, std::__ndk1::shared_ptr<geode::Hook> > > >::erase(std::__ndk1::__tree_const_iterator<std::__ndk1::__value_type<std::__ndk1::basic_string<char, std::__ndk1::char_traits<char>, std::__ndk1::allocator<char> >, std::__ndk1::shared_ptr<geode::Hook> >, std::__ndk1::__tree_node<std::__ndk1::__value_type<std::__ndk1::basic_string<char, std::__ndk1::char_traits<char>, std::__ndk1::allocator<char> >, std::__ndk1::shared_ptr<geode::Hook> >, void*>*, long>)
FUNC 845d0 388 0 std::__ndk1::__tree_remove[abi:ne190000]<std::__ndk1::__tree_node_base<void*>*>(std::__ndk1::__tree_node_base<void*>*, std::__ndk1::__tree_node_base<void*>*)
FUNC 84958 8c 0 std::__ndk1::__tree<std::__ndk1::__value_type<std::__ndk1::basic_string<char, std::__ndk1::char_traits<char>, std::__ndk1::allocator<char> >, std::__ndk1::shared_ptr<geode::Hook> >, std::__ndk1::__map_value_compare<std::__ndk1::basic_string<char, std::__ndk1::char_traits<char>, std::__ndk1::allocator<char> >, std::__ndk1::__value_type<std::__ndk1::basic_string<char, std::__ndk1::char_traits<char>, std::__ndk1::allocator<char> >, std::__ndk1::shared_ptr<geode::Hook> >, std::__ndk1::less<std::__ndk1::basic_string<char, std::__ndk1::char_traits<char>, std::__ndk1::allocator<char> > >, true>, std::__ndk1::allocator<std::__ndk1::__value_type<std::__ndk1::basic_string<char, std::__ndk1::char_traits<char>, std::__ndk1::allocator<char> >, std::__ndk1::shared_ptr<geode::Hook> > > >::destroy(std::__ndk1::__tree_node<std::__ndk1::__value_type<std::__ndk1::basic_string<char, std::__ndk1::char_traits<char>, std::__ndk1::allocator<char> >, std::__ndk1::shared_ptr<geode::Hook> >, void*>*)
FUNC 849e4 2c 0 geode::modifier::AsStaticFunction_setFrameSize<hook371<(anonymous namespace)::hook371Parent>, void (hook371<(anonymous namespace)::hook371Parent>::*)(float, float)>::Impl<void (hook371<(anonymous namespace)::hook371Parent>::*)(float, float)>::function(hook371<(anonymous namespace)::hook371Parent>*, float, float)
FUNC 84a10 b4 0 geode::addresser::Addresser::addressOfVirtual<void, cocos2d::CCEGLViewProtocol, float, float>(void (cocos2d::CCEGLViewProtocol::*)(float, float))
FUNC 84ac4 50 0 std::__ndk1::shared_ptr<tulip::hook::CallingConvention>::~shared_ptr[abi:ne190000]()
FUNC 84b14 64 0 tulip::hook::HandlerMetadata::~HandlerMetadata()
FUNC 84b78 104 0 std::__ndk1::__tree<std::__ndk1::__value_type<std::__ndk1::basic_string<char, std::__ndk1::char_traits<char>, std::__ndk1::allocator<char> >, std::__ndk1::shared_ptr<geode::Hook> >, std::__ndk1::__map_value_compare<std::__ndk1::basic_string<char, std::__ndk1::char_traits<char>, std::__ndk1::allocator<char> >, std::__ndk1::__value_type<std::__ndk1::basic_string<char, std::__ndk1::char_traits<char>, std::__ndk1::allocator<char> >, std::__ndk1::shared_ptr<geode::Hook> >, std::__ndk1::less<std::__ndk1::basic_string<char, std::__ndk1::char_traits<char>, std::__ndk1::allocator<char> > >, true>, std::__ndk1::allocator<std::__ndk1::__value_type<std::__ndk1::basic_string<char, std::__ndk1::char_traits<char>, std::__ndk1::allocator<char> >, std::__ndk1::shared_ptr<geode::Hook> > > >::__find_equal<std::__ndk1::basic_string<char, std::__ndk1::char_traits<char>, std::__ndk1::allocator<char> > >(std::__ndk1::__tree_end_node<std::__ndk1::__tree_node_base<void*>*>*&, std::__ndk1::basic_string<char, std::__ndk1::char_traits<char>, std::__ndk1::allocator<char> > const&)
FUNC 84c7c 380 0 geode::modifier::ModifyDerive<hook381<(anonymous namespace)::hook381Parent>, GameManager>::apply()
FUNC 84ffc 4 0 geode::modifier::ModifyBase<geode::modifier::ModifyDerive<hook381<(anonymous namespace)::hook381Parent>, GameManager> >::apply()
FUNC 85000 18 0 geode::modifier::AsStaticFunction_reloadAllStep5<hook381<(anonymous namespace)::hook381Parent>, void (hook381<(anonymous namespace)::hook381Parent>::*)()>::Impl<void (hook381<(anonymous namespace)::hook381Parent>::*)()>::function(hook381<(anonymous namespace)::hook381Parent>*)
FUNC 85018 4 0 std::__ndk1::__function::__base<void ()>::~__base()
FUNC 8501c 4 0 std::__ndk1::__function::__func<geodeExecFunction389<(anonymous namespace)::ExecFuncUnique389>(geode::ModStateEvent*)::{lambda()#1}, std::__ndk1::allocator<geodeExecFunction389<(anonymous namespace)::ExecFuncUnique389>(geode::ModStateEvent*)::{lambda()#1}>, void ()>::~__func()
FUNC 85020 24 0 std::__ndk1::__function::__func<geodeExecFunction389<(anonymous namespace)::ExecFuncUnique389>(geode::ModStateEvent*)::{lambda()#1}, std::__ndk1::allocator<geodeExecFunction389<(anonymous namespace)::ExecFuncUnique389>(geode::ModStateEvent*)::{lambda()#1}>, void ()>::__clone() const
FUNC 85044 10 0 std::__ndk1::__function::__func<geodeExecFunction389<(anonymous namespace)::ExecFuncUnique389>(geode::ModStateEvent*)::{lambda()#1}, std::__ndk1::allocator<geodeExecFunction389<(anonymous namespace)::ExecFuncUnique389>(geode::ModStateEvent*)::{lambda()#1}>, void ()>::__clone(std::__ndk1::__function::__base<void ()>*) const
FUNC 85054 4 0 std::__ndk1::__function::__func<geodeExecFunction389<(anonymous namespace)::ExecFuncUnique389>(geode::ModStateEvent*)::{lambda()#1}, std::__ndk1::allocator<geodeExecFunction389<(anonymous namespace)::ExecFuncUnique389>(geode::ModStateEvent*)::{lambda()#1}>, void ()>::destroy()
FUNC 85058 4 0 std::__ndk1::__function::__func<geodeExecFunction389<(anonymous namespace)::ExecFuncUnique389>(geode::ModStateEvent*)::{lambda()#1}, std::__ndk1::allocator<geodeExecFunction389<(anonymous namespace)::ExecFuncUnique389>(geode::ModStateEvent*)::{lambda()#1}>, void ()>::destroy_deallocate()
FUNC 8505c 14 0 std::__ndk1::__function::__func<geodeExecFunction389<(anonymous namespace)::ExecFuncUnique389>(geode::ModStateEvent*)::{lambda()#1}, std::__ndk1::allocator<geodeExecFunction389<(anonymous namespace)::ExecFuncUnique389>(geode::ModStateEvent*)::{lambda()#1}>, void ()>::operator()()
FUNC 85070 1c 0 std::__ndk1::__function::__func<geodeExecFunction389<(anonymous namespace)::ExecFuncUnique389>(geode::ModStateEvent*)::{lambda()#1}, std::__ndk1::allocator<geodeExecFunction389<(anonymous namespace)::ExecFuncUnique389>(geode::ModStateEvent*)::{lambda()#1}>, void ()>::target(std::type_info const&) const
FUNC 8508c c 0 std::__ndk1::__function::__func<geodeExecFunction389<(anonymous namespace)::ExecFuncUnique389>(geode::ModStateEvent*)::{lambda()#1}, std::__ndk1::allocator<geodeExecFunction389<(anonymous namespace)::ExecFuncUnique389>(geode::ModStateEvent*)::{lambda()#1}>, void ()>::target_type() const
FUNC 85098 4 0 geode::EventListener<geode::ModStateFilter>::getPool() const
FUNC 8509c 174 0 geode::EventListener<geode::ModStateFilter>::handle(geode::Event*)
FUNC 85210 5c 0 geode::EventListener<geode::ModStateFilter>::~EventListener()
FUNC 8526c 64 0 geode::EventListener<geode::ModStateFilter>::~EventListener()
FUNC 852d0 4 0 std::__ndk1::__function::__base<void (geode::ModStateEvent*)>::~__base()
FUNC 852d4 4 0 std::__ndk1::__function::__func<void (*)(geode::ModStateEvent*), std::__ndk1::allocator<void (*)(geode::ModStateEvent*)>, void (geode::ModStateEvent*)>::~__func()
FUNC 852d8 34 0 std::__ndk1::__function::__func<void (*)(geode::ModStateEvent*), std::__ndk1::allocator<void (*)(geode::ModStateEvent*)>, void (geode::ModStateEvent*)>::__clone() const
FUNC 8530c 14 0 std::__ndk1::__function::__func<void (*)(geode::ModStateEvent*), std::__ndk1::allocator<void (*)(geode::ModStateEvent*)>, void (geode::ModStateEvent*)>::__clone(std::__ndk1::__function::__base<void (geode::ModStateEvent*)>*) const
FUNC 85320 4 0 std::__ndk1::__function::__func<void (*)(geode::ModStateEvent*), std::__ndk1::allocator<void (*)(geode::ModStateEvent*)>, void (geode::ModStateEvent*)>::destroy()
FUNC 85324 4 0 std::__ndk1::__function::__func<void (*)(geode::ModStateEvent*), std::__ndk1::allocator<void (*)(geode::ModStateEvent*)>, void (geode::ModStateEvent*)>::destroy_deallocate()
FUNC 85328 10 0 std::__ndk1::__function::__func<void (*)(geode::ModStateEvent*), std::__ndk1::allocator<void (*)(geode::ModStateEvent*)>, void (geode::ModStateEvent*)>::operator()(geode::ModStateEvent*&&)
FUNC 85338 1c 0 std::__ndk1::__function::__func<void (*)(geode::ModStateEvent*), std::__ndk1::allocator<void (*)(geode::ModStateEvent*)>, void (geode::ModStateEvent*)>::target(std::type_info const&) const
FUNC 85354 c 0 std::__ndk1::__function::__func<void (*)(geode::ModStateEvent*), std::__ndk1::allocator<void (*)(geode::ModStateEvent*)>, void (geode::ModStateEvent*)>::target_type() const
FUNC 85360 104 0 __cxx_global_array_dtor
FUNC 85464 104 0 __cxx_global_array_dtor.3
FUNC 85568 5c 0 __cxx_global_array_dtor.29
FUNC 855c4 64 0 _GLOBAL__sub_I_cells.cpp
FUNC 85628 28c 0 BaseCell::setup(cocos2d::CCPoint, cocos2d::CCSize, int, std::__ndk1::basic_string<char, std::__ndk1::char_traits<char>, std::__ndk1::allocator<char> >)
FUNC 858b4 240 0 BaseCell::tint(float, int, int, int)
FUNC 85af4 580 0 WarnCell::init()
FUNC 86074 d8 0 WarnCell::onClick(cocos2d::CCObject*)
FUNC 8614c 238 0 OptionTitleCell::init(char const*, float, int, std::__ndk1::basic_string<char, std::__ndk1::char_traits<char>, std::__ndk1::allocator<char> >)
FUNC 86384 560 0 OptionTogglerCell::init(char const*, float, int, std::__ndk1::basic_string<char, std::__ndk1::char_traits<char>, std::__ndk1::allocator<char> >, char const*)
FUNC 868e4 2e0 0 OptionTogglerCell::onOption(cocos2d::CCObject*)
FUNC 86bc4 40 0 SignalEvent<bool>::~SignalEvent()
FUNC 86c04 208 0 OptionTogglerCell::Fade(bool)
FUNC 86e0c 84c 0 ItemCell::init(int)
FUNC 87658 d0 0 ItemCell::onPickItem(cocos2d::CCObject*)
FUNC 87728 138 0 ItemCell::Fade(bool)
FUNC 87860 37c 0 SetupItemCell::init(int, float, int)
FUNC 87bdc c4 0 SetupItemCell::onPickItem(cocos2d::CCObject*)
FUNC 87ca0 5e8 0 SetupOptionCell::init()
FUNC 88288 7c 0 std::__ndk1::vector<std::__ndk1::vector<int, std::__ndk1::allocator<int> >, std::__ndk1::allocator<std::__ndk1::vector<int, std::__ndk1::allocator<int> > > >::~vector[abi:ne190000]()
FUNC 88304 630 0 SetupOptionCell::refreshUI(ChromaSetup, bool)
FUNC 88934 1a8 0 SetupOptionCell::Fade(bool, int)
FUNC 88adc 5b0 0 ColorValueCell::init(int)
FUNC 8908c 1a4 0 ColorValueCell::onSlider(cocos2d::CCObject*)
FUNC 89230 1fc 0 ColorValueCell::textChanged(CCTextInputNode*)
FUNC 8942c 40 0 SignalEvent<int>::~SignalEvent()
FUNC 8946c 8 0 {virtual override thunk({offset(-448)}, ColorValueCell::textChanged(CCTextInputNode*))}
FUNC 89474 25c 0 ColorValueCell::textInputClosed(CCTextInputNode*)
FUNC 896d0 8 0 {virtual override thunk({offset(-448)}, ColorValueCell::textInputClosed(CCTextInputNode*))}
FUNC 896d8 13c 0 ColorValueCell::sliderBegan(Slider*)
FUNC 89814 8 0 {virtual override thunk({offset(-456)}, ColorValueCell::sliderBegan(Slider*))}
FUNC 8981c 2e0 0 ColorValueCell::sliderEnded(Slider*)
FUNC 89afc 8 0 {virtual override thunk({offset(-456)}, ColorValueCell::sliderEnded(Slider*))}
FUNC 89b04 3b8 0 ColorValueCell::Fade(bool)
FUNC 89ebc 154 0 cocos2d::CCNode::getChildByType<CCTextInputNode>(int)
FUNC 8a010 3fc 0 ColorHexCell::init()
FUNC 8a40c 1d0 0 ColorHexCell::textChanged(CCTextInputNode*)
FUNC 8a5dc 40 0 SignalEvent<cocos2d::_ccColor3B>::~SignalEvent()
FUNC 8a61c 8 0 {virtual override thunk({offset(-448)}, ColorHexCell::textChanged(CCTextInputNode*))}
FUNC 8a624 1bc 0 ColorHexCell::Fade(bool)
FUNC 8a7e0 24 0 WarnCell::~WarnCell()
FUNC 8a804 10c 0 WarnCell::Fade(bool)
FUNC 8a910 8 0 {virtual override thunk({offset(-320)}, WarnCell::~WarnCell())}
FUNC 8a918 28 0 {virtual override thunk({offset(-320)}, WarnCell::~WarnCell())}
FUNC 8a940 24 0 OptionTogglerCell::~OptionTogglerCell()
FUNC 8a964 8 0 {virtual override thunk({offset(-320)}, OptionTogglerCell::~OptionTogglerCell())}
FUNC 8a96c 28 0 {virtual override thunk({offset(-320)}, OptionTogglerCell::~OptionTogglerCell())}
FUNC 8a994 68 0 ItemCell::~ItemCell()
FUNC 8a9fc 6c 0 ItemCell::~ItemCell()
FUNC 8aa68 68 0 {virtual override thunk({offset(-320)}, ItemCell::~ItemCell())}
FUNC 8aad0 70 0 {virtual override thunk({offset(-320)}, ItemCell::~ItemCell())}
FUNC 8ab40 7c 0 SetupOptionCell::~SetupOptionCell()
FUNC 8abbc 84 0 SetupOptionCell::~SetupOptionCell()
FUNC 8ac40 80 0 {virtual override thunk({offset(-320)}, SetupOptionCell::~SetupOptionCell())}
FUNC 8acc0 88 0 {virtual override thunk({offset(-320)}, SetupOptionCell::~SetupOptionCell())}
FUNC 8ad48 24 0 ColorValueCell::~ColorValueCell()
FUNC 8ad6c 2c 0 ColorValueCell::Val2Slider(int)
FUNC 8ad98 14 0 ColorValueCell::Slider2Val(float)
FUNC 8adac 8 0 {virtual override thunk({offset(-320)}, ColorValueCell::~ColorValueCell())}
FUNC 8adb4 28 0 {virtual override thunk({offset(-320)}, ColorValueCell::~ColorValueCell())}
FUNC 8addc 70 0 ColorHexCell::~ColorHexCell()
FUNC 8ae4c 74 0 ColorHexCell::~ColorHexCell()
FUNC 8aec0 6c 0 {virtual override thunk({offset(-320)}, ColorHexCell::~ColorHexCell())}
FUNC 8af2c 74 0 {virtual override thunk({offset(-320)}, ColorHexCell::~ColorHexCell())}
FUNC 8afa0 44 0 SignalEvent<bool>::~SignalEvent()
FUNC 8afe4 24 0 geode::cocos::CallFuncExtImpl<OptionTogglerCell::Fade(bool)::$_0>::~CallFuncExtImpl()
FUNC 8b008 14 0 geode::cocos::CallFuncExtImpl<OptionTogglerCell::Fade(bool)::$_0>::update(float)
FUNC 8b01c 24 0 PickItemButton::~PickItemButton()
FUNC 8b040 4 0 cocos2d::CCNodeRGBA::setOpacityModifyRGB(bool)
FUNC 8b044 8 0 cocos2d::CCNodeRGBA::isOpacityModifyRGB()
FUNC 8b04c 4 0 {virtual override thunk({offset(-320)}, cocos2d::CCNodeRGBA::setOpacityModifyRGB(bool))}
FUNC 8b050 8 0 {virtual override thunk({offset(-320)}, cocos2d::CCNodeRGBA::isOpacityModifyRGB())}
FUNC 8b058 14 0 std::__ndk1::vector<PickItemButton*, std::__ndk1::allocator<PickItemButton*> >::__throw_length_error[abi:ne190000]() const
FUNC 8b06c 8c 0 std::__ndk1::__exception_guard_exceptions<std::__ndk1::vector<std::__ndk1::vector<int, std::__ndk1::allocator<int> >, std::__ndk1::allocator<std::__ndk1::vector<int, std::__ndk1::allocator<int> > > >::__destroy_vector>::~__exception_guard_exceptions[abi:ne190000]()
FUNC 8b0f8 60 0 std::__ndk1::__exception_guard_exceptions<std::__ndk1::_AllocatorDestroyRangeReverse<std::__ndk1::allocator<std::__ndk1::vector<int, std::__ndk1::allocator<int> > >, std::__ndk1::vector<int, std::__ndk1::allocator<int> >*> >::~__exception_guard_exceptions[abi:ne190000]()
FUNC 8b158 14 0 std::__ndk1::vector<std::__ndk1::vector<int, std::__ndk1::allocator<int> >, std::__ndk1::allocator<std::__ndk1::vector<int, std::__ndk1::allocator<int> > > >::__throw_out_of_range[abi:ne190000]() const
FUNC 8b16c 50 0 std::__ndk1::__throw_out_of_range[abi:ne190000](char const*)
FUNC 8b1bc 30 0 std::out_of_range::out_of_range[abi:ne190000](char const*)
FUNC 8b1ec d0 0 SliderBundleBase::~SliderBundleBase()
FUNC 8b2bc d8 0 SetupOptionLine::~SetupOptionLine()
FUNC 8b394 fc 0 SliderBundleBase::textChanged(CCTextInputNode*)
FUNC 8b490 134 0 SliderBundleBase::textInputClosed(CCTextInputNode*)
FUNC 8b5c4 d4 0 SliderBundleBase::sliderBegan(Slider*)
FUNC 8b698 12c 0 SliderBundleBase::sliderEnded(Slider*)
FUNC 8b7c4 24c 0 SliderBundleBase::postEvent()
FUNC 8ba10 d4 0 {virtual override thunk({offset(-320)}, SetupOptionLine::~SetupOptionLine())}
FUNC 8bae4 dc 0 {virtual override thunk({offset(-320)}, SetupOptionLine::~SetupOptionLine())}
FUNC 8bbc0 8 0 {virtual override thunk({offset(-440)}, SliderBundleBase::textChanged(CCTextInputNode*))}
FUNC 8bbc8 8 0 {virtual override thunk({offset(-440)}, SliderBundleBase::textInputClosed(CCTextInputNode*))}
FUNC 8bbd0 d4 0 {virtual override thunk({offset(-448)}, SliderBundleBase::sliderBegan(Slider*))}
FUNC 8bca4 8 0 {virtual override thunk({offset(-448)}, SliderBundleBase::sliderEnded(Slider*))}
FUNC 8bcac d8 0 SliderBundleBase::~SliderBundleBase()
FUNC 8bd84 d4 0 {virtual override thunk({offset(-320)}, SliderBundleBase::~SliderBundleBase())}
FUNC 8be58 dc 0 {virtual override thunk({offset(-320)}, SliderBundleBase::~SliderBundleBase())}
FUNC 8bf34 144 0 std::__ndk1::basic_string<char, std::__ndk1::char_traits<char>, std::__ndk1::allocator<char> >::__assign_external(char const*, unsigned long)
FUNC 8c078 40 0 SignalEvent<float>::~SignalEvent()
FUNC 8c0b8 44 0 SignalEvent<float>::~SignalEvent()
FUNC 8c0fc 24 0 geode::cocos::CallFuncExtImpl<SetupOptionCell::refreshUI(ChromaSetup, bool)::$_0>::~CallFuncExtImpl()
FUNC 8c120 20 0 geode::cocos::CallFuncExtImpl<SetupOptionCell::refreshUI(ChromaSetup, bool)::$_0>::update(float)
FUNC 8c140 24 0 geode::cocos::CallFuncExtImpl<SetupOptionCell::refreshUI(ChromaSetup, bool)::$_1>::~CallFuncExtImpl()
FUNC 8c164 18 0 geode::cocos::CallFuncExtImpl<SetupOptionCell::refreshUI(ChromaSetup, bool)::$_1>::update(float)
FUNC 8c17c 44 0 SignalEvent<int>::~SignalEvent()
FUNC 8c1c0 44 0 SignalEvent<cocos2d::_ccColor3B>::~SignalEvent()
FUNC 8c204 50 0 std::__ndk1::unique_ptr<std::__ndk1::__tree_node<std::__ndk1::__value_type<std::__ndk1::basic_string<char, std::__ndk1::char_traits<char>, std::__ndk1::allocator<char> >, bool>, void*>, std::__ndk1::__tree_node_destructor<std::__ndk1::allocator<std::__ndk1::__tree_node<std::__ndk1::__value_type<std::__ndk1::basic_string<char, std::__ndk1::char_traits<char>, std::__ndk1::allocator<char> >, bool>, void*> > > >::~unique_ptr[abi:ne190000]()
FUNC 8c254 12c 0 std::__ndk1::__tree<std::__ndk1::__value_type<std::__ndk1::basic_string<char, std::__ndk1::char_traits<char>, std::__ndk1::allocator<char> >, bool>, std::__ndk1::__map_value_compare<std::__ndk1::basic_string<char, std::__ndk1::char_traits<char>, std::__ndk1::allocator<char> >, std::__ndk1::__value_type<std::__ndk1::basic_string<char, std::__ndk1::char_traits<char>, std::__ndk1::allocator<char> >, bool>, std::__ndk1::less<std::__ndk1::basic_string<char, std::__ndk1::char_traits<char>, std::__ndk1::allocator<char> > >, true>, std::__ndk1::allocator<std::__ndk1::__value_type<std::__ndk1::basic_string<char, std::__ndk1::char_traits<char>, std::__ndk1::allocator<char> >, bool> > >::__emplace_unique_key_args<std::__ndk1::basic_string<char, std::__ndk1::char_traits<char>, std::__ndk1::allocator<char> >, std::__ndk1::piecewise_construct_t const&, std::__ndk1::tuple<std::__ndk1::basic_string<char, std::__ndk1::char_traits<char>, std::__ndk1::allocator<char> > const&>, std::__ndk1::tuple<> >(std::__ndk1::basic_string<char, std::__ndk1::char_traits<char>, std::__ndk1::allocator<char> > const&, std::__ndk1::piecewise_construct_t const&, std::__ndk1::tuple<std::__ndk1::basic_string<char, std::__ndk1::char_traits<char>, std::__ndk1::allocator<char> > const&>, std::__ndk1::tuple<>)
FUNC 8c380 390 0 PickItemButton::init(int, bool, cocos2d::CCObject*, void (cocos2d::CCObject::*)(cocos2d::CCObject*))
FUNC 8c710 59c 0 PickItemButton::setPlayerStatus()
FUNC 8ccac 88 0 garageIconIndex(int)
FUNC 8cd34 20 0 geode::cocos::CCArrayExt<cocos2d::CCObject*>::~CCArrayExt()
FUNC 8cd54 154 0 cocos2d::CCNode::getChildByType<CCPartAnimSprite>(int)
FUNC 8cea8 178 0 geode::Mod::getSavedValue<long>(std::__ndk1::basic_string_view<char, std::__ndk1::char_traits<char> >)
FUNC 8d020 1dc 0 geode::Mod::getSavedValue<std::__ndk1::basic_string<char, std::__ndk1::char_traits<char>, std::__ndk1::allocator<char> > >(std::__ndk1::basic_string_view<char, std::__ndk1::char_traits<char> >)
FUNC 8d1fc 4c 0 geode::DispatchEvent<SimplePlayer*, std::__ndk1::basic_string<char, std::__ndk1::char_traits<char>, std::__ndk1::allocator<char> >, IconType>::~DispatchEvent()
FUNC 8d248 138 0 PickItemButton::delayFade(int, bool)
FUNC 8d380 830 0 PickItemButton::runChroma(float const&, float const&, int const&)
FUNC 8dbb0 244 0 PickItemButton::toggleChroma()
FUNC 8ddf4 50c 0 PickItemButton::toggleChroma(bool)
FUNC 8e300 730 0 SliderBundleBase::init(std::__ndk1::basic_string<char, std::__ndk1::char_traits<char>, std::__ndk1::allocator<char> >, char const*, float, float, float, bool, bool, float, float, float, float, float, float, float, float, float, std::__ndk1::function<float (float)>, std::__ndk1::function<float (float)>)
FUNC 8ea30 88 0 SliderBundleBase::onSlider(cocos2d::CCObject*)
FUNC 8eab8 108 0 SliderBundleBase::onArrow(cocos2d::CCObject*)
FUNC 8ebc0 3cc 0 SliderBundleBase::setVal(float, short)
FUNC 8ef8c 7c 0 std::__ndk1::basic_ostringstream<char, std::__ndk1::char_traits<char>, std::__ndk1::allocator<char> >::~basic_ostringstream()
FUNC 8f008 36c 0 SliderBundleBase::helpFade(bool)
FUNC 8f374 318 0 SpeedSliderBundle::init()
FUNC 8f68c e0 0 SpeedSliderBundle::Fade(bool)
FUNC 8f76c b40 0 SetupOptionLine::init(OptionLineType, int, int)
FUNC 902ac 134 0 SetupOptionLine::onToggle(cocos2d::CCObject*)
FUNC 903e0 d8 0 SetupOptionLine::onPickColor(cocos2d::CCObject*)
FUNC 904b8 b0 0 MyContentLayer::getSomething(float, float)
FUNC 90568 928 0 ScrollLayerPlus::Transition(bool, int)
FUNC 90e90 d8 0 SpeedSliderBundle::~SpeedSliderBundle()
FUNC 90f68 d4 0 {virtual override thunk({offset(-320)}, SpeedSliderBundle::~SpeedSliderBundle())}
FUNC 9103c dc 0 {virtual override thunk({offset(-320)}, SpeedSliderBundle::~SpeedSliderBundle())}
FUNC 91118 1d4 0 geode::DispatchEvent<SimplePlayer*, std::__ndk1::basic_string<char, std::__ndk1::char_traits<char>, std::__ndk1::allocator<char> >, IconType>::getPool() const
FUNC 912ec 54 0 geode::DispatchEvent<SimplePlayer*, std::__ndk1::basic_string<char, std::__ndk1::char_traits<char>, std::__ndk1::allocator<char> >, IconType>::~DispatchEvent()
FUNC 91340 444 0 std::__ndk1::__murmur2_or_cityhash<unsigned long, (unsigned long)64>::operator()[abi:ne190000](void const*, unsigned long) const
FUNC 91784 518 0 std::__ndk1::__hash_table<std::__ndk1::__hash_value_type<std::__ndk1::basic_string<char, std::__ndk1::char_traits<char>, std::__ndk1::allocator<char> >, geode::EventListenerPool*>, std::__ndk1::__unordered_map_hasher<std::__ndk1::basic_string<char, std::__ndk1::char_traits<char>, std::__ndk1::allocator<char> >, std::__ndk1::__hash_value_type<std::__ndk1::basic_string<char, std::__ndk1::char_traits<char>, std::__ndk1::allocator<char> >, geode::EventListenerPool*>, std::__ndk1::hash<std::__ndk1::basic_string<char, std::__ndk1::char_traits<char>, std::__ndk1::allocator<char> > >, std::__ndk1::equal_to<std::__ndk1::basic_string<char, std::__ndk1::char_traits<char>, std::__ndk1::allocator<char> > >, true>, std::__ndk1::__unordered_map_equal<std::__ndk1::basic_string<char, std::__ndk1::char_traits<char>, std::__ndk1::allocator<char> >, std::__ndk1::__hash_value_type<std::__ndk1::basic_string<char, std::__ndk1::char_traits<char>, std::__ndk1::allocator<char> >, geode::EventListenerPool*>, std::__ndk1::equal_to<std::__ndk1::basic_string<char, std::__ndk1::char_traits<char>, std::__ndk1::allocator<char> > >, std::__ndk1::hash<std::__ndk1::basic_string<char, std::__ndk1::char_traits<char>, std::__ndk1::allocator<char> > >, true>, std::__ndk1::allocator<std::__ndk1::__hash_value_type<std::__ndk1::basic_string<char, std::__ndk1::char_traits<char>, std::__ndk1::allocator<char> >, geode::EventListenerPool*> > >::__emplace_unique_key_args<std::__ndk1::basic_string<char, std::__ndk1::char_traits<char>, std::__ndk1::allocator<char> >, std::__ndk1::piecewise_construct_t const&, std::__ndk1::tuple<std::__ndk1::basic_string<char, std::__ndk1::char_traits<char>, std::__ndk1::allocator<char> > const&>, std::__ndk1::tuple<> >(std::__ndk1::basic_string<char, std::__ndk1::char_traits<char>, std::__ndk1::allocator<char> > const&, std::__ndk1::piecewise_construct_t const&, std::__ndk1::tuple<std::__ndk1::basic_string<char, std::__ndk1::char_traits<char>, std::__ndk1::allocator<char> > const&>, std::__ndk1::tuple<>)
FUNC 91c9c 50 0 std::__ndk1::unique_ptr<std::__ndk1::__hash_node<std::__ndk1::__hash_value_type<std::__ndk1::basic_string<char, std::__ndk1::char_traits<char>, std::__ndk1::allocator<char> >, geode::EventListenerPool*>, void*>, std::__ndk1::__hash_node_destructor<std::__ndk1::allocator<std::__ndk1::__hash_node<std::__ndk1::__hash_value_type<std::__ndk1::basic_string<char, std::__ndk1::char_traits<char>, std::__ndk1::allocator<char> >, geode::EventListenerPool*>, void*> > > >::~unique_ptr[abi:ne190000]()
FUNC 91cec 24 0 geode::cocos::CallFuncExtImpl<PickItemButton::delayFade(int, bool)::$_0>::~CallFuncExtImpl()
FUNC 91d10 a4 0 geode::cocos::CallFuncExtImpl<PickItemButton::delayFade(int, bool)::$_0>::update(float)
FUNC 91db4 14 0 std::__ndk1::vector<float, std::__ndk1::allocator<float> >::__throw_out_of_range[abi:ne190000]() const
FUNC 91dc8 24 0 geode::cocos::CallFuncExtImpl<ScrollLayerPlus::Transition(bool, int)::$_0>::~CallFuncExtImpl()
FUNC 91dec 50 0 geode::cocos::CallFuncExtImpl<ScrollLayerPlus::Transition(bool, int)::$_0>::update(float)
FUNC 91e3c 14 0 std::__ndk1::vector<cocos2d::CCAction*, std::__ndk1::allocator<cocos2d::CCAction*> >::__throw_out_of_range[abi:ne190000]() const
FUNC 91e50 24 0 geode::cocos::CallFuncExtImpl<ScrollLayerPlus::Transition(bool, int)::$_1>::~CallFuncExtImpl()
FUNC 91e74 40 0 geode::cocos::CallFuncExtImpl<ScrollLayerPlus::Transition(bool, int)::$_1>::update(float)
FUNC 91eb4 24 0 geode::cocos::CallFuncExtImpl<ScrollLayerPlus::Transition(bool, int)::$_2>::~CallFuncExtImpl()
FUNC 91ed8 14 0 geode::cocos::CallFuncExtImpl<ScrollLayerPlus::Transition(bool, int)::$_2>::update(float)
FUNC 91eec 104 0 matjson::Value::as<long>() const
FUNC 91ff0 168 0 std::__ndk1::__function::__value_func<float (float)>::swap[abi:ne190000](std::__ndk1::__function::__value_func<float (float)>&)
FUNC 92158 4 0 std::__ndk1::__function::__func<SpeedSliderBundle::init()::$_0, std::__ndk1::allocator<SpeedSliderBundle::init()::$_0>, float (float)>::~__func()
FUNC 9215c 24 0 std::__ndk1::__function::__func<SpeedSliderBundle::init()::$_0, std::__ndk1::allocator<SpeedSliderBundle::init()::$_0>, float (float)>::__clone() const
FUNC 92180 10 0 std::__ndk1::__function::__func<SpeedSliderBundle::init()::$_0, std::__ndk1::allocator<SpeedSliderBundle::init()::$_0>, float (float)>::__clone(std::__ndk1::__function::__base<float (float)>*) const
FUNC 92190 4 0 std::__ndk1::__function::__func<SpeedSliderBundle::init()::$_0, std::__ndk1::allocator<SpeedSliderBundle::init()::$_0>, float (float)>::destroy()
FUNC 92194 4 0 std::__ndk1::__function::__func<SpeedSliderBundle::init()::$_0, std::__ndk1::allocator<SpeedSliderBundle::init()::$_0>, float (float)>::destroy_deallocate()
FUNC 92198 20 0 std::__ndk1::__function::__func<SpeedSliderBundle::init()::$_0, std::__ndk1::allocator<SpeedSliderBundle::init()::$_0>, float (float)>::operator()(float&&)
FUNC 921b8 1c 0 std::__ndk1::__function::__func<SpeedSliderBundle::init()::$_0, std::__ndk1::allocator<SpeedSliderBundle::init()::$_0>, float (float)>::target(std::type_info const&) const
FUNC 921d4 c 0 std::__ndk1::__function::__func<SpeedSliderBundle::init()::$_0, std::__ndk1::allocator<SpeedSliderBundle::init()::$_0>, float (float)>::target_type() const
FUNC 921e0 4 0 std::__ndk1::__function::__func<SpeedSliderBundle::init()::$_1, std::__ndk1::allocator<SpeedSliderBundle::init()::$_1>, float (float)>::~__func()
FUNC 921e4 24 0 std::__ndk1::__function::__func<SpeedSliderBundle::init()::$_1, std::__ndk1::allocator<SpeedSliderBundle::init()::$_1>, float (float)>::__clone() const
FUNC 92208 10 0 std::__ndk1::__function::__func<SpeedSliderBundle::init()::$_1, std::__ndk1::allocator<SpeedSliderBundle::init()::$_1>, float (float)>::__clone(std::__ndk1::__function::__base<float (float)>*) const
FUNC 92218 4 0 std::__ndk1::__function::__func<SpeedSliderBundle::init()::$_1, std::__ndk1::allocator<SpeedSliderBundle::init()::$_1>, float (float)>::destroy()
FUNC 9221c 4 0 std::__ndk1::__function::__func<SpeedSliderBundle::init()::$_1, std::__ndk1::allocator<SpeedSliderBundle::init()::$_1>, float (float)>::destroy_deallocate()
FUNC 92220 14 0 std::__ndk1::__function::__func<SpeedSliderBundle::init()::$_1, std::__ndk1::allocator<SpeedSliderBundle::init()::$_1>, float (float)>::operator()(float&&)
FUNC 92234 1c 0 std::__ndk1::__function::__func<SpeedSliderBundle::init()::$_1, std::__ndk1::allocator<SpeedSliderBundle::init()::$_1>, float (float)>::target(std::type_info const&) const
FUNC 92250 c 0 std::__ndk1::__function::__func<SpeedSliderBundle::init()::$_1, std::__ndk1::allocator<SpeedSliderBundle::init()::$_1>, float (float)>::target_type() const
FUNC 9225c 4 0 std::__ndk1::__function::__func<SetupOptionLine::init(OptionLineType, int, int)::$_0, std::__ndk1::allocator<SetupOptionLine::init(OptionLineType, int, int)::$_0>, float (float)>::~__func()
FUNC 92260 24 0 std::__ndk1::__function::__func<SetupOptionLine::init(OptionLineType, int, int)::$_0, std::__ndk1::allocator<SetupOptionLine::init(OptionLineType, int, int)::$_0>, float (float)>::__clone() const
FUNC 92284 10 0 std::__ndk1::__function::__func<SetupOptionLine::init(OptionLineType, int, int)::$_0, std::__ndk1::allocator<SetupOptionLine::init(OptionLineType, int, int)::$_0>, float (float)>::__clone(std::__ndk1::__function::__base<float (float)>*) const
FUNC 92294 4 0 std::__ndk1::__function::__func<SetupOptionLine::init(OptionLineType, int, int)::$_0, std::__ndk1::allocator<SetupOptionLine::init(OptionLineType, int, int)::$_0>, float (float)>::destroy()
FUNC 92298 4 0 std::__ndk1::__function::__func<SetupOptionLine::init(OptionLineType, int, int)::$_0, std::__ndk1::allocator<SetupOptionLine::init(OptionLineType, int, int)::$_0>, float (float)>::destroy_deallocate()
FUNC 9229c 14 0 std::__ndk1::__function::__func<SetupOptionLine::init(OptionLineType, int, int)::$_0, std::__ndk1::allocator<SetupOptionLine::init(OptionLineType, int, int)::$_0>, float (float)>::operator()(float&&)
FUNC 922b0 1c 0 std::__ndk1::__function::__func<SetupOptionLine::init(OptionLineType, int, int)::$_0, std::__ndk1::allocator<SetupOptionLine::init(OptionLineType, int, int)::$_0>, float (float)>::target(std::type_info const&) const
FUNC 922cc c 0 std::__ndk1::__function::__func<SetupOptionLine::init(OptionLineType, int, int)::$_0, std::__ndk1::allocator<SetupOptionLine::init(OptionLineType, int, int)::$_0>, float (float)>::target_type() const
FUNC 922d8 4 0 std::__ndk1::__function::__func<SetupOptionLine::init(OptionLineType, int, int)::$_1, std::__ndk1::allocator<SetupOptionLine::init(OptionLineType, int, int)::$_1>, float (float)>::~__func()
FUNC 922dc 24 0 std::__ndk1::__function::__func<SetupOptionLine::init(OptionLineType, int, int)::$_1, std::__ndk1::allocator<SetupOptionLine::init(OptionLineType, int, int)::$_1>, float (float)>::__clone() const
FUNC 92300 10 0 std::__ndk1::__function::__func<SetupOptionLine::init(OptionLineType, int, int)::$_1, std::__ndk1::allocator<SetupOptionLine::init(OptionLineType, int, int)::$_1>, float (float)>::__clone(std::__ndk1::__function::__base<float (float)>*) const
FUNC 92310 4 0 std::__ndk1::__function::__func<SetupOptionLine::init(OptionLineType, int, int)::$_1, std::__ndk1::allocator<SetupOptionLine::init(OptionLineType, int, int)::$_1>, float (float)>::destroy()
FUNC 92314 4 0 std::__ndk1::__function::__func<SetupOptionLine::init(OptionLineType, int, int)::$_1, std::__ndk1::allocator<SetupOptionLine::init(OptionLineType, int, int)::$_1>, float (float)>::destroy_deallocate()
FUNC 92318 14 0 std::__ndk1::__function::__func<SetupOptionLine::init(OptionLineType, int, int)::$_1, std::__ndk1::allocator<SetupOptionLine::init(OptionLineType, int, int)::$_1>, float (float)>::operator()(float&&)
FUNC 9232c 1c 0 std::__ndk1::__function::__func<SetupOptionLine::init(OptionLineType, int, int)::$_1, std::__ndk1::allocator<SetupOptionLine::init(OptionLineType, int, int)::$_1>, float (float)>::target(std::type_info const&) const
FUNC 92348 c 0 std::__ndk1::__function::__func<SetupOptionLine::init(OptionLineType, int, int)::$_1, std::__ndk1::allocator<SetupOptionLine::init(OptionLineType, int, int)::$_1>, float (float)>::target_type() const
FUNC 92354 4 0 std::__ndk1::__function::__func<SetupOptionLine::init(OptionLineType, int, int)::$_2, std::__ndk1::allocator<SetupOptionLine::init(OptionLineType, int, int)::$_2>, float (float)>::~__func()
FUNC 92358 24 0 std::__ndk1::__function::__func<SetupOptionLine::init(OptionLineType, int, int)::$_2, std::__ndk1::allocator<SetupOptionLine::init(OptionLineType, int, int)::$_2>, float (float)>::__clone() const
FUNC 9237c 10 0 std::__ndk1::__function::__func<SetupOptionLine::init(OptionLineType, int, int)::$_2, std::__ndk1::allocator<SetupOptionLine::init(OptionLineType, int, int)::$_2>, float (float)>::__clone(std::__ndk1::__function::__base<float (float)>*) const
FUNC 9238c 4 0 std::__ndk1::__function::__func<SetupOptionLine::init(OptionLineType, int, int)::$_2, std::__ndk1::allocator<SetupOptionLine::init(OptionLineType, int, int)::$_2>, float (float)>::destroy()
FUNC 92390 4 0 std::__ndk1::__function::__func<SetupOptionLine::init(OptionLineType, int, int)::$_2, std::__ndk1::allocator<SetupOptionLine::init(OptionLineType, int, int)::$_2>, float (float)>::destroy_deallocate()
FUNC 92394 14 0 std::__ndk1::__function::__func<SetupOptionLine::init(OptionLineType, int, int)::$_2, std::__ndk1::allocator<SetupOptionLine::init(OptionLineType, int, int)::$_2>, float (float)>::operator()(float&&)
FUNC 923a8 1c 0 std::__ndk1::__function::__func<SetupOptionLine::init(OptionLineType, int, int)::$_2, std::__ndk1::allocator<SetupOptionLine::init(OptionLineType, int, int)::$_2>, float (float)>::target(std::type_info const&) const
FUNC 923c4 c 0 std::__ndk1::__function::__func<SetupOptionLine::init(OptionLineType, int, int)::$_2, std::__ndk1::allocator<SetupOptionLine::init(OptionLineType, int, int)::$_2>, float (float)>::target_type() const
FUNC 923d0 4 0 std::__ndk1::__function::__base<float (float)>::~__base()
FUNC 923d4 4 0 std::__ndk1::__function::__func<SetupOptionLine::init(OptionLineType, int, int)::$_3, std::__ndk1::allocator<SetupOptionLine::init(OptionLineType, int, int)::$_3>, float (float)>::~__func()
FUNC 923d8 24 0 std::__ndk1::__function::__func<SetupOptionLine::init(OptionLineType, int, int)::$_3, std::__ndk1::allocator<SetupOptionLine::init(OptionLineType, int, int)::$_3>, float (float)>::__clone() const
FUNC 923fc 10 0 std::__ndk1::__function::__func<SetupOptionLine::init(OptionLineType, int, int)::$_3, std::__ndk1::allocator<SetupOptionLine::init(OptionLineType, int, int)::$_3>, float (float)>::__clone(std::__ndk1::__function::__base<float (float)>*) const
FUNC 9240c 4 0 std::__ndk1::__function::__func<SetupOptionLine::init(OptionLineType, int, int)::$_3, std::__ndk1::allocator<SetupOptionLine::init(OptionLineType, int, int)::$_3>, float (float)>::destroy()
FUNC 92410 4 0 std::__ndk1::__function::__func<SetupOptionLine::init(OptionLineType, int, int)::$_3, std::__ndk1::allocator<SetupOptionLine::init(OptionLineType, int, int)::$_3>, float (float)>::destroy_deallocate()
FUNC 92414 14 0 std::__ndk1::__function::__func<SetupOptionLine::init(OptionLineType, int, int)::$_3, std::__ndk1::allocator<SetupOptionLine::init(OptionLineType, int, int)::$_3>, float (float)>::operator()(float&&)
FUNC 92428 1c 0 std::__ndk1::__function::__func<SetupOptionLine::init(OptionLineType, int, int)::$_3, std::__ndk1::allocator<SetupOptionLine::init(OptionLineType, int, int)::$_3>, float (float)>::target(std::type_info const&) const
FUNC 92444 c 0 std::__ndk1::__function::__func<SetupOptionLine::init(OptionLineType, int, int)::$_3, std::__ndk1::allocator<SetupOptionLine::init(OptionLineType, int, int)::$_3>, float (float)>::target_type() const
FUNC 92450 1c 0 _GLOBAL__sub_I_mynode.cpp
FUNC 9246c 8 0 std::__ndk1::map<std::__ndk1::basic_string<char, std::__ndk1::char_traits<char>, std::__ndk1::allocator<char> >, bool, std::__ndk1::less<std::__ndk1::basic_string<char, std::__ndk1::char_traits<char>, std::__ndk1::allocator<char> > >, std::__ndk1::allocator<std::__ndk1::pair<std::__ndk1::basic_string<char, std::__ndk1::char_traits<char>, std::__ndk1::allocator<char> > const, bool> > >::~map[abi:ne190000]()
FUNC 92474 8 0 std::__ndk1::map<short, ChromaSetup, std::__ndk1::less<short>, std::__ndk1::allocator<std::__ndk1::pair<short const, ChromaSetup> > >::~map[abi:ne190000]()
FUNC 9247c 1e8 0 fade(cocos2d::CCNode*, bool, float, float, float, int)
FUNC 92664 1e8 0 fade(cocos2d::CCMenuItem*, bool, float, float, float, int)
FUNC 9284c 610 0 MapfromJson(matjson::Value const&, int, int)
FUNC 92e5c 11c 0 std::__ndk1::map<int, cocos2d::_ccColor3B, std::__ndk1::less<int>, std::__ndk1::allocator<std::__ndk1::pair<int const, cocos2d::_ccColor3B> > >::map[abi:ne190000](std::initializer_list<std::__ndk1::pair<int const, cocos2d::_ccColor3B> >, std::__ndk1::less<int> const&)
FUNC 92f78 198 0 MaptoJson(std::__ndk1::map<int, cocos2d::_ccColor3B, std::__ndk1::less<int>, std::__ndk1::allocator<std::__ndk1::pair<int const, cocos2d::_ccColor3B> > > const&)
FUNC 93110 210 0 GJItemEffect::createEffectItem(int)
FUNC 93320 728 0 getChroma(ChromaSetup const&, cocos2d::_ccColor3B const&, float, float, int)
FUNC 93a48 24 0 geode::cocos::CallFuncExtImpl<fade(cocos2d::CCNode*, bool, float, float, float, int)::$_0>::~CallFuncExtImpl()
FUNC 93a6c 18 0 geode::cocos::CallFuncExtImpl<fade(cocos2d::CCNode*, bool, float, float, float, int)::$_0>::update(float)
FUNC 93a84 24 0 geode::cocos::CallFuncExtImpl<fade(cocos2d::CCMenuItem*, bool, float, float, float, int)::$_0>::~CallFuncExtImpl()
FUNC 93aa8 14 0 geode::cocos::CallFuncExtImpl<fade(cocos2d::CCMenuItem*, bool, float, float, float, int)::$_0>::update(float)
FUNC 93abc 24 0 GJItemEffect::~GJItemEffect()
FUNC 93ae0 c 0 cocos2d::CCSprite::setBlendFunc(cocos2d::_ccBlendFunc)
FUNC 93aec c 0 cocos2d::CCSprite::getBlendFunc()
FUNC 93af8 8 0 cocos2d::CCSprite::isDirty()
FUNC 93b00 8 0 cocos2d::CCSprite::setDirty(bool)
FUNC 93b08 8 0 {virtual override thunk({offset(-344)}, cocos2d::CCSprite::setBlendFunc(cocos2d::_ccBlendFunc))}
FUNC 93b10 8 0 {virtual override thunk({offset(-344)}, cocos2d::CCSprite::getBlendFunc())}
FUNC 93b18 50 0 std::__ndk1::__tree<std::__ndk1::__value_type<std::__ndk1::basic_string<char, std::__ndk1::char_traits<char>, std::__ndk1::allocator<char> >, bool>, std::__ndk1::__map_value_compare<std::__ndk1::basic_string<char, std::__ndk1::char_traits<char>, std::__ndk1::allocator<char> >, std::__ndk1::__value_type<std::__ndk1::basic_string<char, std::__ndk1::char_traits<char>, std::__ndk1::allocator<char> >, bool>, std::__ndk1::less<std::__ndk1::basic_string<char, std::__ndk1::char_traits<char>, std::__ndk1::allocator<char> > >, true>, std::__ndk1::allocator<std::__ndk1::__value_type<std::__ndk1::basic_string<char, std::__ndk1::char_traits<char>, std::__ndk1::allocator<char> >, bool> > >::destroy(std::__ndk1::__tree_node<std::__ndk1::__value_type<std::__ndk1::basic_string<char, std::__ndk1::char_traits<char>, std::__ndk1::allocator<char> >, bool>, void*>*)
FUNC 93b68 54 0 std::__ndk1::__tree<std::__ndk1::__value_type<short, ChromaSetup>, std::__ndk1::__map_value_compare<short, std::__ndk1::__value_type<short, ChromaSetup>, std::__ndk1::less<short>, true>, std::__ndk1::allocator<std::__ndk1::__value_type<short, ChromaSetup> > >::destroy(std::__ndk1::__tree_node<std::__ndk1::__value_type<short, ChromaSetup>, void*>*)
FUNC 93bbc 78 0 _GLOBAL__sub_I_utility.cpp
FUNC 93c34 104 0 __cxx_global_array_dtor
FUNC 93d38 104 0 __cxx_global_array_dtor.3
FUNC 93e3c 154 0 _GLOBAL__sub_I_main.cpp
FUNC 93f90 1934 0 geodeExecFunction656<(anonymous namespace)::ExecFuncUnique656>(geode::ModStateEvent*)
FUNC 958c4 434 0 __cxx_global_var_init.5
FUNC 95cf8 1c 0 geode::modifier::ModifyBase<geode::modifier::ModifyDerive<IconLayer, GJGarageLayer> >::~ModifyBase()
FUNC 95d14 434 0 __cxx_global_var_init.6
FUNC 96148 1c 0 geode::modifier::ModifyBase<geode::modifier::ModifyDerive<PoseLayer, PauseLayer> >::~ModifyBase()
FUNC 96164 434 0 __cxx_global_var_init.7
FUNC 96598 1c 0 geode::modifier::ModifyBase<geode::modifier::ModifyDerive<EditorMenu, EditorUI> >::~ModifyBase()
FUNC 965b4 434 0 __cxx_global_var_init.8
FUNC 969e8 1c 0 geode::modifier::ModifyBase<geode::modifier::ModifyDerive<MyBaseGameLayer, GJBaseGameLayer> >::~ModifyBase()
FUNC 96a04 434 0 __cxx_global_var_init.9
FUNC 96e38 1c 0 geode::modifier::ModifyBase<geode::modifier::ModifyDerive<GameLayer, PlayLayer> >::~ModifyBase()
FUNC 96e54 434 0 __cxx_global_var_init.10
FUNC 97288 1c 0 geode::modifier::ModifyBase<geode::modifier::ModifyDerive<NivelEditorLayer, LevelEditorLayer> >::~ModifyBase()
FUNC 972a4 434 0 __cxx_global_var_init.11
FUNC 976d8 1c 0 geode::modifier::ModifyBase<geode::modifier::ModifyDerive<MainGameLayer, MenuGameLayer> >::~ModifyBase()
FUNC 976f4 434 0 __cxx_global_var_init.12
FUNC 97b28 1c 0 geode::modifier::ModifyBase<geode::modifier::ModifyDerive<OptionalGhostTrail, GhostTrailEffect> >::~ModifyBase()
FUNC 97b44 434 0 __cxx_global_var_init.13
FUNC 97f78 1c 0 geode::modifier::ModifyBase<geode::modifier::ModifyDerive<ChromaPlayer, PlayerObject> >::~ModifyBase()
FUNC 97f94 35c 0 geode::modifier::ModifyDerive<IconLayer, GJGarageLayer>::apply()
FUNC 982f0 4 0 geode::modifier::ModifyBase<geode::modifier::ModifyDerive<IconLayer, GJGarageLayer> >::apply()
FUNC 982f4 a8 0 geode::addresser::getVirtual<bool (GJGarageLayer::*)()>(bool (GJGarageLayer::*)())
FUNC 9839c 1f4 0 geode::modifier::AsStaticFunction_init<IconLayer, bool (IconLayer::*)()>::Impl<bool (IconLayer::*)()>::function(IconLayer*)
FUNC 98590 b4 0 GJGarageLayer::GJGarageLayer(geode::ZeroConstructorType)
FUNC 98644 250 0 geode::stl::_rb_insert_rebalance(bool, geode::stl::_rb_tree_base*, geode::stl::_rb_tree_base*, geode::stl::_rb_tree_base&)
FUNC 98894 14 0 std::__ndk1::vector<tulip::hook::AbstractType, std::__ndk1::allocator<tulip::hook::AbstractType> >::__throw_length_error[abi:ne190000]() const
FUNC 988a8 1c 0 IconLayer::onChromaMenu(cocos2d::CCObject*)
FUNC 988c4 85c 0 ChromaLayer::create()
FUNC 99120 30 0 std::__ndk1::pair<bool, ChromaSetup>::~pair()
FUNC 99150 4 0 std::__ndk1::__function::__base<geode::ListenerResult(SignalEvent<bool>*)>::~__base()
FUNC 99154 4 0 std::__ndk1::__function::__func<ChromaLayer::listenerBool::{lambda(SignalEvent<bool>*)#1}, std::__ndk1::allocator<ChromaLayer::listenerBool::{lambda(SignalEvent<bool>*)#1}>, geode::ListenerResult(SignalEvent<bool>*)>::~__func()
FUNC 99158 34 0 std::__ndk1::__function::__func<ChromaLayer::listenerBool::{lambda(SignalEvent<bool>*)#1}, std::__ndk1::allocator<ChromaLayer::listenerBool::{lambda(SignalEvent<bool>*)#1}>, geode::ListenerResult(SignalEvent<bool>*)>::__clone() const
FUNC 9918c 14 0 std::__ndk1::__function::__func<ChromaLayer::listenerBool::{lambda(SignalEvent<bool>*)#1}, std::__ndk1::allocator<ChromaLayer::listenerBool::{lambda(SignalEvent<bool>*)#1}>, geode::ListenerResult(SignalEvent<bool>*)>::__clone(std::__ndk1::__function::__base<geode::ListenerResult(SignalEvent<bool>*)>*) const
FUNC 991a0 4 0 std::__ndk1::__function::__func<ChromaLayer::listenerBool::{lambda(SignalEvent<bool>*)#1}, std::__ndk1::allocator<ChromaLayer::listenerBool::{lambda(SignalEvent<bool>*)#1}>, geode::ListenerResult(SignalEvent<bool>*)>::destroy()
FUNC 991a4 4 0 std::__ndk1::__function::__func<ChromaLayer::listenerBool::{lambda(SignalEvent<bool>*)#1}, std::__ndk1::allocator<ChromaLayer::listenerBool::{lambda(SignalEvent<bool>*)#1}>, geode::ListenerResult(SignalEvent<bool>*)>::destroy_deallocate()
FUNC 991a8 c 0 std::__ndk1::__function::__func<ChromaLayer::listenerBool::{lambda(SignalEvent<bool>*)#1}, std::__ndk1::allocator<ChromaLayer::listenerBool::{lambda(SignalEvent<bool>*)#1}>, geode::ListenerResult(SignalEvent<bool>*)>::operator()(SignalEvent<bool>*&&)
FUNC 991b4 1c 0 std::__ndk1::__function::__func<ChromaLayer::listenerBool::{lambda(SignalEvent<bool>*)#1}, std::__ndk1::allocator<ChromaLayer::listenerBool::{lambda(SignalEvent<bool>*)#1}>, geode::ListenerResult(SignalEvent<bool>*)>::target(std::type_info const&) const
FUNC 991d0 c 0 std::__ndk1::__function::__func<ChromaLayer::listenerBool::{lambda(SignalEvent<bool>*)#1}, std::__ndk1::allocator<ChromaLayer::listenerBool::{lambda(SignalEvent<bool>*)#1}>, geode::ListenerResult(SignalEvent<bool>*)>::target_type() const
FUNC 991dc 4 0 std::__ndk1::__function::__base<geode::ListenerResult(SignalEvent<int>*)>::~__base()
FUNC 991e0 4 0 std::__ndk1::__function::__func<ChromaLayer::listenerInt::{lambda(SignalEvent<int>*)#1}, std::__ndk1::allocator<ChromaLayer::listenerInt::{lambda(SignalEvent<int>*)#1}>, geode::ListenerResult(SignalEvent<int>*)>::~__func()
FUNC 991e4 34 0 std::__ndk1::__function::__func<ChromaLayer::listenerInt::{lambda(SignalEvent<int>*)#1}, std::__ndk1::allocator<ChromaLayer::listenerInt::{lambda(SignalEvent<int>*)#1}>, geode::ListenerResult(SignalEvent<int>*)>::__clone() const
FUNC 99218 14 0 std::__ndk1::__function::__func<ChromaLayer::listenerInt::{lambda(SignalEvent<int>*)#1}, std::__ndk1::allocator<ChromaLayer::listenerInt::{lambda(SignalEvent<int>*)#1}>, geode::ListenerResult(SignalEvent<int>*)>::__clone(std::__ndk1::__function::__base<geode::ListenerResult(SignalEvent<int>*)>*) const
FUNC 9922c 4 0 std::__ndk1::__function::__func<ChromaLayer::listenerInt::{lambda(SignalEvent<int>*)#1}, std::__ndk1::allocator<ChromaLayer::listenerInt::{lambda(SignalEvent<int>*)#1}>, geode::ListenerResult(SignalEvent<int>*)>::destroy()
FUNC 99230 4 0 std::__ndk1::__function::__func<ChromaLayer::listenerInt::{lambda(SignalEvent<int>*)#1}, std::__ndk1::allocator<ChromaLayer::listenerInt::{lambda(SignalEvent<int>*)#1}>, geode::ListenerResult(SignalEvent<int>*)>::destroy_deallocate()
FUNC 99234 c 0 std::__ndk1::__function::__func<ChromaLayer::listenerInt::{lambda(SignalEvent<int>*)#1}, std::__ndk1::allocator<ChromaLayer::listenerInt::{lambda(SignalEvent<int>*)#1}>, geode::ListenerResult(SignalEvent<int>*)>::operator()(SignalEvent<int>*&&)
FUNC 99240 1c 0 std::__ndk1::__function::__func<ChromaLayer::listenerInt::{lambda(SignalEvent<int>*)#1}, std::__ndk1::allocator<ChromaLayer::listenerInt::{lambda(SignalEvent<int>*)#1}>, geode::ListenerResult(SignalEvent<int>*)>::target(std::type_info const&) const
FUNC 9925c c 0 std::__ndk1::__function::__func<ChromaLayer::listenerInt::{lambda(SignalEvent<int>*)#1}, std::__ndk1::allocator<ChromaLayer::listenerInt::{lambda(SignalEvent<int>*)#1}>, geode::ListenerResult(SignalEvent<int>*)>::target_type() const
FUNC 99268 4 0 std::__ndk1::__function::__base<geode::ListenerResult(SignalEvent<float>*)>::~__base()
FUNC 9926c 4 0 std::__ndk1::__function::__func<ChromaLayer::listenerFloat::{lambda(SignalEvent<float>*)#1}, std::__ndk1::allocator<ChromaLayer::listenerFloat::{lambda(SignalEvent<float>*)#1}>, geode::ListenerResult(SignalEvent<float>*)>::~__func()
FUNC 99270 34 0 std::__ndk1::__function::__func<ChromaLayer::listenerFloat::{lambda(SignalEvent<float>*)#1}, std::__ndk1::allocator<ChromaLayer::listenerFloat::{lambda(SignalEvent<float>*)#1}>, geode::ListenerResult(SignalEvent<float>*)>::__clone() const
FUNC 992a4 14 0 std::__ndk1::__function::__func<ChromaLayer::listenerFloat::{lambda(SignalEvent<float>*)#1}, std::__ndk1::allocator<ChromaLayer::listenerFloat::{lambda(SignalEvent<float>*)#1}>, geode::ListenerResult(SignalEvent<float>*)>::__clone(std::__ndk1::__function::__base<geode::ListenerResult(SignalEvent<float>*)>*) const
FUNC 992b8 4 0 std::__ndk1::__function::__func<ChromaLayer::listenerFloat::{lambda(SignalEvent<float>*)#1}, std::__ndk1::allocator<ChromaLayer::listenerFloat::{lambda(SignalEvent<float>*)#1}>, geode::ListenerResult(SignalEvent<float>*)>::destroy()
FUNC 992bc 4 0 std::__ndk1::__function::__func<ChromaLayer::listenerFloat::{lambda(SignalEvent<float>*)#1}, std::__ndk1::allocator<ChromaLayer::listenerFloat::{lambda(SignalEvent<float>*)#1}>, geode::ListenerResult(SignalEvent<float>*)>::destroy_deallocate()
FUNC 992c0 c 0 std::__ndk1::__function::__func<ChromaLayer::listenerFloat::{lambda(SignalEvent<float>*)#1}, std::__ndk1::allocator<ChromaLayer::listenerFloat::{lambda(SignalEvent<float>*)#1}>, geode::ListenerResult(SignalEvent<float>*)>::operator()(SignalEvent<float>*&&)
FUNC 992cc 1c 0 std::__ndk1::__function::__func<ChromaLayer::listenerFloat::{lambda(SignalEvent<float>*)#1}, std::__ndk1::allocator<ChromaLayer::listenerFloat::{lambda(SignalEvent<float>*)#1}>, geode::ListenerResult(SignalEvent<float>*)>::target(std::type_info const&) const
FUNC 992e8 c 0 std::__ndk1::__function::__func<ChromaLayer::listenerFloat::{lambda(SignalEvent<float>*)#1}, std::__ndk1::allocator<ChromaLayer::listenerFloat::{lambda(SignalEvent<float>*)#1}>, geode::ListenerResult(SignalEvent<float>*)>::target_type() const
FUNC 992f4 4 0 std::__ndk1::__function::__base<geode::ListenerResult(SignalEvent<cocos2d::_ccColor3B>*)>::~__base()
FUNC 992f8 4 0 std::__ndk1::__function::__func<ChromaLayer::listenerColor::{lambda(SignalEvent<cocos2d::_ccColor3B>*)#1}, std::__ndk1::allocator<ChromaLayer::listenerColor::{lambda(SignalEvent<cocos2d::_ccColor3B>*)#1}>, geode::ListenerResult(SignalEvent<cocos2d::_ccColor3B>*)>::~__func()
FUNC 992fc 34 0 std::__ndk1::__function::__func<ChromaLayer::listenerColor::{lambda(SignalEvent<cocos2d::_ccColor3B>*)#1}, std::__ndk1::allocator<ChromaLayer::listenerColor::{lambda(SignalEvent<cocos2d::_ccColor3B>*)#1}>, geode::ListenerResult(SignalEvent<cocos2d::_ccColor3B>*)>::__clone() const
FUNC 99330 14 0 std::__ndk1::__function::__func<ChromaLayer::listenerColor::{lambda(SignalEvent<cocos2d::_ccColor3B>*)#1}, std::__ndk1::allocator<ChromaLayer::listenerColor::{lambda(SignalEvent<cocos2d::_ccColor3B>*)#1}>, geode::ListenerResult(SignalEvent<cocos2d::_ccColor3B>*)>::__clone(std::__ndk1::__function::__base<geode::ListenerResult(SignalEvent<cocos2d::_ccColor3B>*)>*) const
FUNC 99344 4 0 std::__ndk1::__function::__func<ChromaLayer::listenerColor::{lambda(SignalEvent<cocos2d::_ccColor3B>*)#1}, std::__ndk1::allocator<ChromaLayer::listenerColor::{lambda(SignalEvent<cocos2d::_ccColor3B>*)#1}>, geode::ListenerResult(SignalEvent<cocos2d::_ccColor3B>*)>::destroy()
FUNC 99348 4 0 std::__ndk1::__function::__func<ChromaLayer::listenerColor::{lambda(SignalEvent<cocos2d::_ccColor3B>*)#1}, std::__ndk1::allocator<ChromaLayer::listenerColor::{lambda(SignalEvent<cocos2d::_ccColor3B>*)#1}>, geode::ListenerResult(SignalEvent<cocos2d::_ccColor3B>*)>::destroy_deallocate()
FUNC 9934c c 0 std::__ndk1::__function::__func<ChromaLayer::listenerColor::{lambda(SignalEvent<cocos2d::_ccColor3B>*)#1}, std::__ndk1::allocator<ChromaLayer::listenerColor::{lambda(SignalEvent<cocos2d::_ccColor3B>*)#1}>, geode::ListenerResult(SignalEvent<cocos2d::_ccColor3B>*)>::operator()(SignalEvent<cocos2d::_ccColor3B>*&&)
FUNC 99358 1c 0 std::__ndk1::__function::__func<ChromaLayer::listenerColor::{lambda(SignalEvent<cocos2d::_ccColor3B>*)#1}, std::__ndk1::allocator<ChromaLayer::listenerColor::{lambda(SignalEvent<cocos2d::_ccColor3B>*)#1}>, geode::ListenerResult(SignalEvent<cocos2d::_ccColor3B>*)>::target(std::type_info const&) const
FUNC 99374 c 0 std::__ndk1::__function::__func<ChromaLayer::listenerColor::{lambda(SignalEvent<cocos2d::_ccColor3B>*)#1}, std::__ndk1::allocator<ChromaLayer::listenerColor::{lambda(SignalEvent<cocos2d::_ccColor3B>*)#1}>, geode::ListenerResult(SignalEvent<cocos2d::_ccColor3B>*)>::target_type() const
FUNC 99380 370 0 geode::modifier::ModifyDerive<PoseLayer, PauseLayer>::apply()
FUNC 996f0 4 0 geode::modifier::ModifyBase<geode::modifier::ModifyDerive<PoseLayer, PauseLayer> >::apply()
FUNC 996f4 a8 0 geode::addresser::getVirtual<void (PauseLayer::*)()>(void (PauseLayer::*)())
FUNC 9979c 154 0 geode::modifier::AsStaticFunction_customSetup<PoseLayer, void (PoseLayer::*)()>::Impl<void (PoseLayer::*)()>::function(PoseLayer*)
FUNC 998f0 8c 0 PauseLayer::PauseLayer(geode::ZeroConstructorType)
FUNC 9997c 1c 0 PoseLayer::onChromaMenu(cocos2d::CCObject*)
FUNC 99998 678 0 geode::modifier::ModifyDerive<EditorMenu, EditorUI>::apply()
FUNC 9a010 4 0 geode::modifier::ModifyBase<geode::modifier::ModifyDerive<EditorMenu, EditorUI> >::apply()
FUNC 9a014 274 0 geode::modifier::AsStaticFunction_init<EditorMenu, bool (EditorMenu::*)(LevelEditorLayer*)>::Impl<bool (EditorMenu::*)(LevelEditorLayer*)>::function(EditorMenu*, LevelEditorLayer*)
FUNC 9a288 58 0 geode::modifier::AsStaticFunction_showUI<EditorMenu, void (EditorMenu::*)(bool)>::Impl<void (EditorMenu::*)(bool)>::function(EditorMenu*, bool)
FUNC 9a2e0 1c 0 EditorMenu::onChromaMenu(cocos2d::CCObject*)
FUNC 9a2fc 188 0 geode::modifier::FieldIntermediate<EditorMenu, EditorUI>::self()
FUNC 9a484 3a8 0 geode::modifier::FieldContainer::getField(unsigned long)
FUNC 9a82c 10c 0 geode::modifier::FieldContainer::setField(unsigned long, unsigned long, std::__ndk1::function<void (void*)>)
FUNC 9a938 4 0 geode::modifier::FieldIntermediate<EditorMenu, EditorUI>::fieldDestructor(void*)
FUNC 9a93c 14 0 std::__ndk1::vector<void*, std::__ndk1::allocator<void*> >::__throw_length_error[abi:ne190000]() const
FUNC 9a950 14 0 std::__ndk1::vector<std::__ndk1::function<void (void*)>, std::__ndk1::allocator<std::__ndk1::function<void (void*)> > >::__throw_length_error[abi:ne190000]() const
FUNC 9a964 14 0 std::__ndk1::vector<void*, std::__ndk1::allocator<void*> >::__throw_out_of_range[abi:ne190000]() const
FUNC 9a978 14 0 std::__ndk1::vector<std::__ndk1::function<void (void*)>, std::__ndk1::allocator<std::__ndk1::function<void (void*)> > >::__throw_out_of_range[abi:ne190000]() const
FUNC 9a98c 4 0 std::__ndk1::__function::__base<void (void*)>::~__base()
FUNC 9a990 4 0 std::__ndk1::__function::__func<void (*)(void*), std::__ndk1::allocator<void (*)(void*)>, void (void*)>::~__func()
FUNC 9a994 38 0 std::__ndk1::__function::__func<void (*)(void*), std::__ndk1::allocator<void (*)(void*)>, void (void*)>::__clone() const
FUNC 9a9cc 18 0 std::__ndk1::__function::__func<void (*)(void*), std::__ndk1::allocator<void (*)(void*)>, void (void*)>::__clone(std::__ndk1::__function::__base<void (void*)>*) const
FUNC 9a9e4 4 0 std::__ndk1::__function::__func<void (*)(void*), std::__ndk1::allocator<void (*)(void*)>, void (void*)>::destroy()
FUNC 9a9e8 4 0 std::__ndk1::__function::__func<void (*)(void*), std::__ndk1::allocator<void (*)(void*)>, void (void*)>::destroy_deallocate()
FUNC 9a9ec 10 0 std::__ndk1::__function::__func<void (*)(void*), std::__ndk1::allocator<void (*)(void*)>, void (void*)>::operator()(void*&&)
FUNC 9a9fc 1c 0 std::__ndk1::__function::__func<void (*)(void*), std::__ndk1::allocator<void (*)(void*)>, void (void*)>::target(std::type_info const&) const
FUNC 9aa18 c 0 std::__ndk1::__function::__func<void (*)(void*), std::__ndk1::allocator<void (*)(void*)>, void (void*)>::target_type() const
FUNC 9aa24 6ec 0 geode::modifier::ModifyDerive<MyBaseGameLayer, GJBaseGameLayer>::apply()
FUNC 9b110 4 0 geode::modifier::ModifyBase<geode::modifier::ModifyDerive<MyBaseGameLayer, GJBaseGameLayer> >::apply()
FUNC 9b114 b8 0 geode::addresser::getVirtual<void (GJBaseGameLayer::*)(GameObject*, float)>(void (GJBaseGameLayer::*)(GameObject*, float))
FUNC 9b1cc 28 0 geode::modifier::AsStaticFunction_updateTimeWarp<MyBaseGameLayer, void (MyBaseGameLayer::*)(GameObject*, float)>::Impl<void (MyBaseGameLayer::*)(GameObject*, float)>::function(MyBaseGameLayer*, GameObject*, float)
FUNC 9b1f4 20 0 geode::modifier::AsStaticFunction_resetPlayer<MyBaseGameLayer, void (MyBaseGameLayer::*)()>::Impl<void (MyBaseGameLayer::*)()>::function(MyBaseGameLayer*)
FUNC 9b214 6f8 0 GJBaseGameLayer::GJBaseGameLayer(geode::ZeroConstructorType)
FUNC 9b90c 53c 0 GJGameState::GJGameState()
FUNC 9be48 78 0 geode::stl::unordered_map<int, int, geode::stl::hash<int>, geode::stl::equal_to<int>, std::__ndk1::allocator<std::__ndk1::pair<int const, int> > >::~unordered_map()
FUNC 9bec0 78 0 geode::stl::unordered_set<int, geode::stl::hash<int>, geode::stl::equal_to<int>, std::__ndk1::allocator<int> >::~unordered_set()
FUNC 9bf38 84 0 geode::stl::unordered_map<int, gd::string, geode::stl::hash<int>, geode::stl::equal_to<int>, std::__ndk1::allocator<std::__ndk1::pair<int const, gd::string> > >::~unordered_map()
FUNC 9bfbc 1c 0 gd::map<std::__ndk1::pair<int, int>, int>::~map()
FUNC 9bfd8 8c 0 geode::stl::unordered_map<int, gd::vector<LabelGameObject*>, geode::stl::hash<int>, geode::stl::equal_to<int>, std::__ndk1::allocator<std::__ndk1::pair<int const, gd::vector<LabelGameObject*> > > >::~unordered_map()
FUNC 9c064 78 0 geode::stl::unordered_map<int, std::__ndk1::pair<int, int>, geode::stl::hash<int>, geode::stl::equal_to<int>, std::__ndk1::allocator<std::__ndk1::pair<int const, std::__ndk1::pair<int, int> > > >::~unordered_map()
FUNC 9c0dc 8c 0 geode::stl::unordered_map<int, gd::vector<GameObject*>, geode::stl::hash<int>, geode::stl::equal_to<int>, std::__ndk1::allocator<std::__ndk1::pair<int const, gd::vector<GameObject*> > > >::~unordered_map()
FUNC 9c168 78 0 geode::stl::unordered_map<int, cocos2d::CCPoint, geode::stl::hash<int>, geode::stl::equal_to<int>, std::__ndk1::allocator<std::__ndk1::pair<int const, cocos2d::CCPoint> > >::~unordered_map()
FUNC 9c1e0 104 0 gd::vector<geode::stl::unordered_map<int, int, geode::stl::hash<int>, geode::stl::equal_to<int>, std::__ndk1::allocator<std::__ndk1::pair<int const, int> > > >::~vector()
FUNC 9c2e4 440 0 GJGameState::~GJGameState()
FUNC 9c724 78 0 geode::stl::unordered_map<int, SongChannelState, geode::stl::hash<int>, geode::stl::equal_to<int>, std::__ndk1::allocator<std::__ndk1::pair<int const, SongChannelState> > >::~unordered_map()
FUNC 9c79c 1c 0 gd::map<std::__ndk1::pair<int, int>, SFXTriggerInstance>::~map()
FUNC 9c7b8 90 0 geode::stl::unordered_map<int, std::__ndk1::vector<int, std::__ndk1::allocator<int> >, geode::stl::hash<int>, geode::stl::equal_to<int>, std::__ndk1::allocator<std::__ndk1::pair<int const, std::__ndk1::vector<int, std::__ndk1::allocator<int> > > > >::~unordered_map()
FUNC 9c848 98 0 gd::vector<EnterEffectInstance>::~vector()
FUNC 9c8e0 60 0 geode::stl::unordered_map<int, std::__ndk1::vector<EnterEffectInstance, std::__ndk1::allocator<EnterEffectInstance> >, geode::stl::hash<int>, geode::stl::equal_to<int>, std::__ndk1::allocator<std::__ndk1::pair<int const, std::__ndk1::vector<EnterEffectInstance, std::__ndk1::allocator<EnterEffectInstance> > > > >::~unordered_map()
FUNC 9c940 1c 0 gd::map<std::__ndk1::pair<GJGameEvent, int>, int>::~map()
FUNC 9c95c 1c 0 gd::map<std::__ndk1::pair<GJGameEvent, int>, gd::vector<EventTriggerInstance> >::~map()
FUNC 9c978 78 0 geode::stl::unordered_map<int, EnhancedGameObject*, geode::stl::hash<int>, geode::stl::equal_to<int>, std::__ndk1::allocator<std::__ndk1::pair<int const, EnhancedGameObject*> > >::~unordered_map()
FUNC 9c9f0 78 0 geode::stl::unordered_map<int, GameObjectPhysics, geode::stl::hash<int>, geode::stl::equal_to<int>, std::__ndk1::allocator<std::__ndk1::pair<int const, GameObjectPhysics> > >::~unordered_map()
FUNC 9ca68 78 0 geode::stl::unordered_map<int, GJValueTween, geode::stl::hash<int>, geode::stl::equal_to<int>, std::__ndk1::allocator<std::__ndk1::pair<int const, GJValueTween> > >::~unordered_map()
FUNC 9cae0 78 0 geode::stl::unordered_map<int, bool, geode::stl::hash<int>, geode::stl::equal_to<int>, std::__ndk1::allocator<std::__ndk1::pair<int const, bool> > >::~unordered_map()
FUNC 9cb58 1cc 0 gd::map<std::__ndk1::pair<GJGameEvent, int>, gd::vector<EventTriggerInstance> >::map(std::__ndk1::map<std::__ndk1::pair<GJGameEvent, int>, gd::vector<EventTriggerInstance>, std::__ndk1::less<std::__ndk1::pair<GJGameEvent, int> >, std::__ndk1::allocator<std::__ndk1::pair<std::__ndk1::pair<GJGameEvent, int> const, gd::vector<EventTriggerInstance> > > >)
FUNC 9cd24 250 0 gd::map<std::__ndk1::pair<GJGameEvent, int>, gd::vector<EventTriggerInstance> >::insert_pair(std::__ndk1::pair<std::__ndk1::pair<GJGameEvent, int>, gd::vector<EventTriggerInstance> > const&)
FUNC 9cf74 80 0 std::__ndk1::pair<std::__ndk1::pair<GJGameEvent, int>, gd::vector<EventTriggerInstance> >::~pair()
FUNC 9cff4 80 0 std::__ndk1::pair<std::__ndk1::pair<GJGameEvent, int> const, gd::vector<EventTriggerInstance> >::~pair()
FUNC 9d074 194 0 gd::vector<EventTriggerInstance>::vector(gd::vector<EventTriggerInstance> const&)
FUNC 9d208 1c8 0 gd::vector<EventTriggerInstance>::operator=(gd::vector<EventTriggerInstance> const&)
FUNC 9d3d0 80 0 gd::vector<EventTriggerInstance>::~vector()
FUNC 9d450 98 0 std::__ndk1::__tree<std::__ndk1::__value_type<std::__ndk1::pair<GJGameEvent, int>, gd::vector<EventTriggerInstance> >, std::__ndk1::__map_value_compare<std::__ndk1::pair<GJGameEvent, int>, std::__ndk1::__value_type<std::__ndk1::pair<GJGameEvent, int>, gd::vector<EventTriggerInstance> >, std::__ndk1::less<std::__ndk1::pair<GJGameEvent, int> >, true>, std::__ndk1::allocator<std::__ndk1::__value_type<std::__ndk1::pair<GJGameEvent, int>, gd::vector<EventTriggerInstance> > > >::destroy(std::__ndk1::__tree_node<std::__ndk1::__value_type<std::__ndk1::pair<GJGameEvent, int>, gd::vector<EventTriggerInstance> >, void*>*)
FUNC 9d4e8 4c 0 gd::map<std::__ndk1::pair<int, int>, SFXTriggerInstance>::erase(geode::stl::_rb_tree_node<std::__ndk1::pair<std::__ndk1::pair<int, int>, SFXTriggerInstance> >*)
FUNC 9d534 4c 0 gd::map<int, EnterEffectAnimValue>::erase(geode::stl::_rb_tree_node<std::__ndk1::pair<int, EnterEffectAnimValue> >*)
FUNC 9d580 88 0 geode::stl::__detail::_Hashtable_alloc<std::__ndk1::allocator<geode::stl::__detail::_Hash_node<std::__ndk1::pair<int const, std::__ndk1::vector<EnterEffectInstance, std::__ndk1::allocator<EnterEffectInstance> > >, false> > >::_M_deallocate_nodes(geode::stl::__detail::_Hash_node<std::__ndk1::pair<int const, std::__ndk1::vector<EnterEffectInstance, std::__ndk1::allocator<EnterEffectInstance> > >, false>*)
FUNC 9d608 4c 0 gd::map<std::__ndk1::pair<GJGameEvent, int>, int>::erase(geode::stl::_rb_tree_node<std::__ndk1::pair<std::__ndk1::pair<GJGameEvent, int>, int> >*)
FUNC 9d654 a8 0 gd::map<std::__ndk1::pair<GJGameEvent, int>, gd::vector<EventTriggerInstance> >::erase(geode::stl::_rb_tree_node<std::__ndk1::pair<std::__ndk1::pair<GJGameEvent, int>, gd::vector<EventTriggerInstance> > >*)
FUNC 9d6fc 4c 0 gd::map<std::__ndk1::pair<int, int>, int>::erase(geode::stl::_rb_tree_node<std::__ndk1::pair<std::__ndk1::pair<int, int>, int> >*)
FUNC 9d748 6d0 0 geode::modifier::ModifyDerive<GameLayer, PlayLayer>::apply()
FUNC 9de18 4 0 geode::modifier::ModifyBase<geode::modifier::ModifyDerive<GameLayer, PlayLayer> >::apply()
FUNC 9de1c b8 0 geode::addresser::getVirtual<void (PlayLayer::*)(float)>(void (PlayLayer::*)(float))
FUNC 9ded4 5d4 0 geode::modifier::AsStaticFunction_postUpdate<GameLayer, void (GameLayer::*)(float)>::Impl<void (GameLayer::*)(float)>::function(GameLayer*, float)
FUNC 9e4a8 178 0 geode::modifier::AsStaticFunction_init<GameLayer, bool (GameLayer::*)(GJGameLevel*, bool, bool)>::Impl<bool (GameLayer::*)(GJGameLevel*, bool, bool)>::function(GameLayer*, GJGameLevel*, bool, bool)
FUNC 9e620 a4 0 PlayLayer::PlayLayer(geode::ZeroConstructorType)
FUNC 9e6c4 6f8 0 GJBaseGameLayer::GJBaseGameLayer(geode::ZeroConstructorType, unsigned long)
FUNC 9edbc 188 0 geode::modifier::FieldIntermediate<GameLayer, PlayLayer>::self()
FUNC 9ef44 4 0 geode::modifier::FieldIntermediate<GameLayer, PlayLayer>::fieldDestructor(void*)
FUNC 9ef48 704 0 geode::modifier::ModifyDerive<NivelEditorLayer, LevelEditorLayer>::apply()
FUNC 9f64c 4 0 geode::modifier::ModifyBase<geode::modifier::ModifyDerive<NivelEditorLayer, LevelEditorLayer> >::apply()
FUNC 9f650 b8 0 geode::addresser::getVirtual<void (LevelEditorLayer::*)(float)>(void (LevelEditorLayer::*)(float))
FUNC 9f708 268 0 geode::modifier::AsStaticFunction_postUpdate<NivelEditorLayer, void (NivelEditorLayer::*)(float)>::Impl<void (NivelEditorLayer::*)(float)>::function(NivelEditorLayer*, float)
FUNC 9f970 a4 0 geode::modifier::AsStaticFunction_init<NivelEditorLayer, bool (NivelEditorLayer::*)(GJGameLevel*, bool)>::Impl<bool (NivelEditorLayer::*)(GJGameLevel*, bool)>::function(NivelEditorLayer*, GJGameLevel*, bool)
FUNC 9fa14 78 0 LevelEditorLayer::LevelEditorLayer(geode::ZeroConstructorType)
FUNC 9fa8c 914 0 geode::modifier::ModifyDerive<MainGameLayer, MenuGameLayer>::apply()
FUNC a03a0 4 0 geode::modifier::ModifyBase<geode::modifier::ModifyDerive<MainGameLayer, MenuGameLayer> >::apply()
FUNC a03a4 a8 0 geode::addresser::getVirtual<void (MenuGameLayer::*)(float)>(void (MenuGameLayer::*)(float))
FUNC a044c 25c 0 geode::modifier::AsStaticFunction_update<MainGameLayer, void (MainGameLayer::*)(float)>::Impl<void (MainGameLayer::*)(float)>::function(MainGameLayer*, float)
FUNC a06a8 a8 0 geode::addresser::getVirtual<bool (MenuGameLayer::*)()>(bool (MenuGameLayer::*)())
FUNC a0750 60 0 geode::modifier::AsStaticFunction_init<MainGameLayer, bool (MainGameLayer::*)()>::Impl<bool (MainGameLayer::*)()>::function(MainGameLayer*)
FUNC a07b0 16c 0 geode::modifier::AsStaticFunction_resetPlayer<MainGameLayer, void (MainGameLayer::*)()>::Impl<void (MainGameLayer::*)()>::function(MainGameLayer*)
FUNC a091c 98 0 MenuGameLayer::MenuGameLayer(geode::ZeroConstructorType)
FUNC a09b4 3c8 0 geode::modifier::ModifyDerive<OptionalGhostTrail, GhostTrailEffect>::apply()
FUNC a0d7c 4 0 geode::modifier::ModifyBase<geode::modifier::ModifyDerive<OptionalGhostTrail, GhostTrailEffect> >::apply()
FUNC a0d80 260 0 geode::modifier::AsStaticFunction_trailSnapshot<OptionalGhostTrail, void (OptionalGhostTrail::*)(float)>::Impl<void (OptionalGhostTrail::*)(float)>::function(OptionalGhostTrail*, float)
FUNC a0fe0 d94 0 geode::modifier::ModifyDerive<ChromaPlayer, PlayerObject>::apply()
FUNC a1d74 4 0 geode::modifier::ModifyBase<geode::modifier::ModifyDerive<ChromaPlayer, PlayerObject> >::apply()
FUNC a1d78 48 0 geode::addresser::getVirtual<void (PlayerObject::*)(float)>(void (PlayerObject::*)(float))
FUNC a1dc0 c58 0 geode::modifier::AsStaticFunction_update<ChromaPlayer, void (ChromaPlayer::*)(float)>::Impl<void (ChromaPlayer::*)(float)>::function(ChromaPlayer*, float)
FUNC a2a18 48 0 geode::addresser::getVirtual<void (PlayerObject::*)(cocos2d::CCPoint const&)>(void (PlayerObject::*)(cocos2d::CCPoint const&))
FUNC a2a60 144 0 geode::modifier::AsStaticFunction_setPosition<ChromaPlayer, void (ChromaPlayer::*)(cocos2d::CCPoint const&)>::Impl<void (ChromaPlayer::*)(cocos2d::CCPoint const&)>::function(ChromaPlayer*, cocos2d::CCPoint const&)
FUNC a2ba4 1410 0 geode::modifier::AsStaticFunction_init<ChromaPlayer, bool (ChromaPlayer::*)(int, int, GJBaseGameLayer*, cocos2d::CCLayer*, bool)>::Impl<bool (ChromaPlayer::*)(int, int, GJBaseGameLayer*, cocos2d::CCLayer*, bool)>::function(ChromaPlayer*, int, int, GJBaseGameLayer*, cocos2d::CCLayer*, bool)
FUNC a3fb4 828 0 geode::modifier::AsStaticFunction_playSpiderDashEffect<ChromaPlayer, void (ChromaPlayer::*)(cocos2d::CCPoint, cocos2d::CCPoint)>::Impl<void (ChromaPlayer::*)(cocos2d::CCPoint, cocos2d::CCPoint)>::function(ChromaPlayer*, cocos2d::CCPoint, cocos2d::CCPoint)
FUNC a47dc 8c 0 _ZN5geode9addresser9Addresser14cachedInstanceI12PlayerObjectEEPT_vQ18HasZeroConstructorIS4_E
FUNC a4868 2a4 0 PlayerObject::PlayerObject(geode::ZeroConstructorType)
FUNC a4b0c 1c 0 gd::map<int, bool>::~map()
FUNC a4b28 78 0 geode::stl::unordered_map<int, GameObject*, geode::stl::hash<int>, geode::stl::equal_to<int>, std::__ndk1::allocator<std::__ndk1::pair<int const, GameObject*> > >::~unordered_map()
FUNC a4ba0 78 0 geode::stl::unordered_map<int, GJPointDouble, geode::stl::hash<int>, geode::stl::equal_to<int>, std::__ndk1::allocator<std::__ndk1::pair<int const, GJPointDouble> > >::~unordered_map()
FUNC a4c18 44 0 GameObject::~GameObject()
FUNC a4c5c 4c 0 gd::map<int, bool>::erase(geode::stl::_rb_tree_node<std::__ndk1::pair<int, bool> >*)
FUNC a4ca8 19f8 0 ChromaPlayer::processChroma()
FUNC a66a0 1a0 0 geode::modifier::FieldIntermediate<ChromaPlayer, PlayerObject>::self()
FUNC a6840 ac 0 geode::modifier::FieldIntermediate<ChromaPlayer, PlayerObject>::fieldDestructor(void*)
FUNC a68ec f0 0 std::__ndk1::map<short, ChromaSetup, std::__ndk1::less<short>, std::__ndk1::allocator<std::__ndk1::pair<short const, ChromaSetup> > >::operator[](short&&)
FUNC a69dc 1cc 0 ChromaPlayer::getStatusID()
FUNC a6ba8 24 0 geode::cocos::CallFuncExtImpl<ChromaPlayer::generateChromaGhostTrail()::{lambda()#1}>::~CallFuncExtImpl()
FUNC a6bcc 14 0 geode::cocos::CallFuncExtImpl<ChromaPlayer::generateChromaGhostTrail()::{lambda()#1}>::update(float)
FUNC a6be0 20 0 geode::cocos::CCArrayExt<cocos2d::CCSprite*>::~CCArrayExt()
FUNC a6c00 30c 0 geode::Mod::getSavedValue<ChromaSetup>(std::__ndk1::basic_string_view<char, std::__ndk1::char_traits<char> >, ChromaSetup const&)
FUNC a6f0c 35c 0 std::__ndk1::__tree<std::__ndk1::__value_type<std::__ndk1::basic_string<char, std::__ndk1::char_traits<char>, std::__ndk1::allocator<char> >, bool>, std::__ndk1::__map_value_compare<std::__ndk1::basic_string<char, std::__ndk1::char_traits<char>, std::__ndk1::allocator<char> >, std::__ndk1::__value_type<std::__ndk1::basic_string<char, std::__ndk1::char_traits<char>, std::__ndk1::allocator<char> >, bool>, std::__ndk1::less<std::__ndk1::basic_string<char, std::__ndk1::char_traits<char>, std::__ndk1::allocator<char> > >, true>, std::__ndk1::allocator<std::__ndk1::__value_type<std::__ndk1::basic_string<char, std::__ndk1::char_traits<char>, std::__ndk1::allocator<char> >, bool> > >::__emplace_hint_unique_key_args<std::__ndk1::basic_string<char, std::__ndk1::char_traits<char>, std::__ndk1::allocator<char> >, std::__ndk1::pair<std::__ndk1::basic_string<char, std::__ndk1::char_traits<char>, std::__ndk1::allocator<char> > const, bool> const&>(std::__ndk1::__tree_const_iterator<std::__ndk1::__value_type<std::__ndk1::basic_string<char, std::__ndk1::char_traits<char>, std::__ndk1::allocator<char> >, bool>, std::__ndk1::__tree_node<std::__ndk1::__value_type<std::__ndk1::basic_string<char, std::__ndk1::char_traits<char>, std::__ndk1::allocator<char> >, bool>, void*>*, long>, std::__ndk1::basic_string<char, std::__ndk1::char_traits<char>, std::__ndk1::allocator<char> > const&, std::__ndk1::pair<std::__ndk1::basic_string<char, std::__ndk1::char_traits<char>, std::__ndk1::allocator<char> > const, bool> const&)
FUNC a7268 30 0 geode::getMod()
FUNC a7298 30 0 geodeImplicitEntry
FUNC a72c8 4c 0 std::__ndk1::unordered_map<void*, bool, std::__ndk1::hash<void*>, std::__ndk1::equal_to<void*>, std::__ndk1::allocator<std::__ndk1::pair<void* const, bool> > >::~unordered_map[abi:ne190000]()
FUNC a7314 134 0 wrapFunction(unsigned long, tulip::hook::WrapperMetadata const&)
FUNC a7448 78 0 geode::impl::ResultData<void*, std::__ndk1::basic_string<char, std::__ndk1::char_traits<char>, std::__ndk1::allocator<char> > >::unwrapErr() &
FUNC a74c0 74 0 geode::impl::ResultData<void*, std::__ndk1::basic_string<char, std::__ndk1::char_traits<char>, std::__ndk1::allocator<char> > >::~ResultData()
FUNC a7534 64 0 tulip::hook::WrapperMetadata::~WrapperMetadata()
FUNC a7598 24c 0 cocos2d::CCEGLViewProtocol::~CCEGLViewProtocol()
FUNC a77e4 24 0 cocos2d::CCEGLViewProtocol::~CCEGLViewProtocol()
FUNC a7808 24 0 cocos2d::CCObject::~CCObject()
FUNC a782c 24 0 cocos2d::CCNode::~CCNode()
FUNC a7850 26c 0 cocos2d::CCNodeRGBA::CCNodeRGBA()
FUNC a7abc 24 0 cocos2d::CCNodeRGBA::~CCNodeRGBA()
FUNC a7ae0 24 0 cocos2d::CCAction::~CCAction()
FUNC a7b04 22c 0 cocos2d::CCActionInstant::CCActionInstant()
FUNC a7d30 270 0 cocos2d::CCAction::~CCAction()
FUNC a7fa0 8 0 {virtual override thunk({offset(-320)}, cocos2d::CCLayer::~CCLayer())}
FUNC a7fa8 24 0 cocos2d::CCLayer::~CCLayer()
FUNC a7fcc 28 0 {virtual override thunk({offset(-320)}, cocos2d::CCLayer::~CCLayer())}
FUNC a7ff4 294 0 cocos2d::CCLayerRGBA::CCLayerRGBA()
FUNC a8288 308 0 cocos2d::CCLayerRGBA::~CCLayerRGBA()
FUNC a8590 8 0 {virtual override thunk({offset(-320)}, cocos2d::CCLayerRGBA::~CCLayerRGBA())}
FUNC a8598 24 0 cocos2d::CCLayerRGBA::~CCLayerRGBA()
FUNC a85bc 28 0 {virtual override thunk({offset(-320)}, cocos2d::CCLayerRGBA::~CCLayerRGBA())}
FUNC a85e4 26c 0 cocos2d::CCLayerColor::CCLayerColor()
FUNC a8850 8 0 {virtual override thunk({offset(-320)}, cocos2d::CCLayerColor::~CCLayerColor())}
FUNC a8858 24 0 cocos2d::CCLayerColor::~CCLayerColor()
FUNC a887c 28 0 {virtual override thunk({offset(-320)}, cocos2d::CCLayerColor::~CCLayerColor())}
FUNC a88a4 268 0 cocos2d::CCSprite::CCSprite()
FUNC a8b0c 24 0 cocos2d::CCSprite::~CCSprite()
FUNC a8b30 24 0 cocos2d::CCMenuItem::~CCMenuItem()
FUNC a8b54 9c 0 FLAlertLayer::FLAlertLayer()
FUNC a8bf0 8 0 {virtual override thunk({offset(-320)}, FLAlertLayer::~FLAlertLayer())}
FUNC a8bf8 24 0 FLAlertLayer::~FLAlertLayer()
FUNC a8c1c 28 0 {virtual override thunk({offset(-320)}, FLAlertLayer::~FLAlertLayer())}
FUNC a8c44 4 0 TextInputDelegate::textInputOpened(CCTextInputNode*)
FUNC a8c48 4 0 TextInputDelegate::textInputClosed(CCTextInputNode*)
FUNC a8c4c 4 0 TextInputDelegate::textInputShouldOffset(CCTextInputNode*, float)
FUNC a8c50 4 0 TextInputDelegate::textInputReturn(CCTextInputNode*)
FUNC a8c54 8 0 TextInputDelegate::allowTextInput(CCTextInputNode*)
FUNC a8c5c 4 0 TextInputDelegate::enterPressed(CCTextInputNode*)
FUNC a8c60 2c0 0 cocos2d::CCNodeRGBA::~CCNodeRGBA()
FUNC a8f20 4 0 GameObject::update(float)
FUNC a8f24 4 0 GameObject::firstSetup()
FUNC a8f28 174 0 GameObject::setupCustomSprites(gd::string)
FUNC a909c a0 0 tulip::hook::AbstractFunction::from<void, GameObject*, gd::string>(void (*)(GameObject*, gd::string))
FUNC a913c 4 0 GameObject::triggerObject(GJBaseGameLayer*, int, gd::vector<int> const*)
FUNC a9140 4 0 GameObject::customObjectSetup(gd::vector<gd::string>&, gd::vector<void*>&)
FUNC a9144 4 0 GameObject::particleWasActivated()
FUNC a9148 4 0 GameObject::triggerActivated(float)
FUNC a914c 4 0 GameObject::animationTriggered()
FUNC a9150 4 0 GameObject::activatedByPlayer(PlayerObject*)
FUNC a9154 8 0 GameObject::hasBeenActivatedByPlayer(PlayerObject*)
FUNC a915c 8 0 GameObject::hasBeenActivated()
FUNC a9164 8 0 GameObject::canAllowMultiActivate()
FUNC a916c 4 0 GameObject::blendModeChanged()
FUNC a9170 4 0 GameObject::updateMainParticleOpacity(unsigned char)
FUNC a9174 4 0 GameObject::updateSecondaryParticleOpacity(unsigned char)
FUNC a9178 8 0 GameObject::canReverse()
FUNC a9180 8 0 GameObject::isSpecialSpawnObject()
FUNC a9188 8 0 GameObject::canBeOrdered()
FUNC a9190 8 0 GameObject::getObjectLabel()
FUNC a9198 4 0 GameObject::setObjectLabel(cocos2d::CCLabelBMFont*)
FUNC a919c 8 0 GameObject::shouldDrawEditorHitbox()
FUNC a91a4 8 0 GameObject::getHasSyncedAnimation()
FUNC a91ac 8 0 GameObject::getHasRotateAction()
FUNC a91b4 8 0 GameObject::canMultiActivate(bool)
FUNC a91bc 4 0 GameObject::updateTextKerning(int)
FUNC a91c0 8 0 GameObject::getTextKerning()
FUNC a91c8 2ec 0 CCContentLayer::~CCContentLayer()
FUNC a94b4 8 0 {virtual override thunk({offset(-320)}, CCContentLayer::~CCContentLayer())}
FUNC a94bc 24 0 CCContentLayer::~CCContentLayer()
FUNC a94e0 28 0 {virtual override thunk({offset(-320)}, CCContentLayer::~CCContentLayer())}
FUNC a9508 ac 0 CCMenuItemSpriteExtra::CCMenuItemSpriteExtra()
FUNC a95b4 2c8 0 cocos2d::CCMenuItem::~CCMenuItem()
FUNC a987c 44 0 CCMenuItemSpriteExtra::~CCMenuItemSpriteExtra()
FUNC a98c0 4c 0 CCMenuItemSpriteExtra::~CCMenuItemSpriteExtra()
FUNC a990c 14 0 CCMenuItemSpriteExtra::create(cocos2d::CCNode*, cocos2d::CCObject*, void (cocos2d::CCObject::*)(cocos2d::CCObject*))
FUNC a9920 1f8 0 CCMenuItemToggler::createWithStandardSprites(cocos2d::CCObject*, void (cocos2d::CCObject::*)(cocos2d::CCObject*), float)
FUNC a9b18 8 0 CCMenuItemToggler::isToggled()
FUNC a9b20 a0 0 tulip::hook::AbstractFunction::from<void, CCTextInputNode*, gd::string>(void (*)(CCTextInputNode*, gd::string))
FUNC a9bc0 178 0 CCTextInputNode::setString(gd::string)
FUNC a9d38 2c8 0 cocos2d::CCSprite::~CCSprite()
FUNC aa000 18 0 GameManager::getPlayerBall()
FUNC aa018 18 0 GameManager::getPlayerBird()
FUNC aa030 18 0 GameManager::getPlayerColor()
FUNC aa048 18 0 GameManager::getPlayerColor2()
FUNC aa060 18 0 GameManager::getPlayerDart()
FUNC aa078 18 0 GameManager::getPlayerFrame()
FUNC aa090 18 0 GameManager::getPlayerGlowColor()
FUNC aa0a8 18 0 GameManager::getPlayerJetpack()
FUNC aa0c0 18 0 GameManager::getPlayerRobot()
FUNC aa0d8 18 0 GameManager::getPlayerShip()
FUNC aa0f0 18 0 GameManager::getPlayerSpider()
FUNC aa108 18 0 GameManager::getPlayerSwing()
FUNC aa120 844 0 GJBaseGameLayer::~GJBaseGameLayer()
FUNC aa964 6f8 0 GJBaseGameLayer::GJBaseGameLayer(geode::CutoffConstructorType, unsigned long)
FUNC ab05c 8 0 {virtual override thunk({offset(-320)}, GJBaseGameLayer::~GJBaseGameLayer())}
FUNC ab064 24 0 GJBaseGameLayer::~GJBaseGameLayer()
FUNC ab088 28 0 {virtual override thunk({offset(-320)}, GJBaseGameLayer::~GJBaseGameLayer())}
FUNC ab0b0 17c 0 GJBaseGameLayer::toggleGroupTriggered(int, bool, gd::vector<int> const&, int, int)
FUNC ab22c 3c4 0 tulip::hook::AbstractFunction::from<void, GJBaseGameLayer*, int, bool, gd::vector<int> const&, int, int>(void (*)(GJBaseGameLayer*, int, bool, gd::vector<int> const&, int, int))
FUNC ab5f0 8 0 {virtual override thunk({offset(-408)}, GJBaseGameLayer::toggleGroupTriggered(int, bool, gd::vector<int> const&, int, int))}
FUNC ab5f8 18c 0 GJBaseGameLayer::spawnGroup(int, bool, double, gd::vector<int> const&, int, int)
FUNC ab784 484 0 tulip::hook::AbstractFunction::from<void, GJBaseGameLayer*, int, bool, double, gd::vector<int> const&, int, int>(void (*)(GJBaseGameLayer*, int, bool, double, gd::vector<int> const&, int, int))
FUNC abc08 8 0 {virtual override thunk({offset(-408)}, GJBaseGameLayer::spawnGroup(int, bool, double, gd::vector<int> const&, int, int))}
FUNC abc10 16c 0 GJBaseGameLayer::spawnObject(GameObject*, double, gd::vector<int> const&)
FUNC abd7c 1d0 0 tulip::hook::AbstractFunction::from<void, GJBaseGameLayer*, GameObject*, double, gd::vector<int> const&>(void (*)(GJBaseGameLayer*, GameObject*, double, gd::vector<int> const&))
FUNC abf4c 8 0 {virtual override thunk({offset(-408)}, GJBaseGameLayer::spawnObject(GameObject*, double, gd::vector<int> const&))}
FUNC abf54 15c 0 GJBaseGameLayer::activatePlatformerEndTrigger(EndTriggerGameObject*, gd::vector<int> const&)
FUNC ac0b0 f0 0 tulip::hook::AbstractFunction::from<void, GJBaseGameLayer*, EndTriggerGameObject*, gd::vector<int> const&>(void (*)(GJBaseGameLayer*, EndTriggerGameObject*, gd::vector<int> const&))
FUNC ac1a0 4 0 GJBaseGameLayer::toggleGlitter(bool)
FUNC ac1a4 8 0 GJBaseGameLayer::timeForPos(cocos2d::CCPoint, int, int, bool, int)
FUNC ac1ac 8 0 GJBaseGameLayer::posForTime(float)
FUNC ac1b4 4 0 GJBaseGameLayer::resetSPTriggered()
FUNC ac1b8 174 0 GJBaseGameLayer::createCustomParticle(gd::string const&, cocos2d::ParticleStruct const&, int, bool)
FUNC ac32c 314 0 tulip::hook::AbstractFunction::from<TodoReturnPlaceholder, GJBaseGameLayer*, gd::string const&, cocos2d::ParticleStruct const&, int, bool>(TodoReturnPlaceholder (*)(GJBaseGameLayer*, gd::string const&, cocos2d::ParticleStruct const&, int, bool))
FUNC ac640 18c 0 GJBaseGameLayer::claimCustomParticle(gd::string const&, cocos2d::ParticleStruct const&, int, int, int, bool)
FUNC ac7cc 494 0 tulip::hook::AbstractFunction::from<TodoReturnPlaceholder, GJBaseGameLayer*, gd::string const&, cocos2d::ParticleStruct const&, int, int, int, bool>(TodoReturnPlaceholder (*)(GJBaseGameLayer*, gd::string const&, cocos2d::ParticleStruct const&, int, int, int, bool))
FUNC acc60 15c 0 GJBaseGameLayer::unclaimCustomParticle(gd::string const&, cocos2d::CCParticleSystemQuad*)
FUNC acdbc f0 0 tulip::hook::AbstractFunction::from<TodoReturnPlaceholder, GJBaseGameLayer*, gd::string const&, cocos2d::CCParticleSystemQuad*>(TodoReturnPlaceholder (*)(GJBaseGameLayer*, gd::string const&, cocos2d::CCParticleSystemQuad*))
FUNC aceac 384 0 PlayLayer::~PlayLayer()
FUNC ad230 8 0 {virtual override thunk({offset(-320)}, PlayLayer::~PlayLayer())}
FUNC ad238 24 0 PlayLayer::~PlayLayer()
FUNC ad25c 28 0 {virtual override thunk({offset(-320)}, PlayLayer::~PlayLayer())}
FUNC ad284 18 0 PlayLayer::get()
FUNC ad29c 15c 0 PlayLayer::activatePlatformerEndTrigger(EndTriggerGameObject*, gd::vector<int> const&)
FUNC ad3f8 f0 0 tulip::hook::AbstractFunction::from<void, PlayLayer*, EndTriggerGameObject*, gd::vector<int> const&>(void (*)(PlayLayer*, EndTriggerGameObject*, gd::vector<int> const&))
FUNC ad4e8 20 0 SimplePlayer::enableCustomGlowColor(cocos2d::_ccColor3B const&)
FUNC ad508 30 0 SimplePlayer::setSecondColor(cocos2d::_ccColor3B const&)
FUNC ad538 24 0 Slider::create(cocos2d::CCNode*, void (cocos2d::CCObject::*)(cocos2d::CCObject*), float)
FUNC ad55c c 0 Slider::getThumb()
FUNC ad568 c 0 Slider::getValue()
FUNC ad574 4 0 cocos2d::CCObject::update(float)
FUNC ad578 4 0 cocos2d::CCEGLViewProtocol::end()
FUNC ad57c 8 0 cocos2d::CCEGLViewProtocol::isOpenGLReady()
FUNC ad584 4 0 cocos2d::CCEGLViewProtocol::swapBuffers()
FUNC ad588 4 0 cocos2d::CCEGLViewProtocol::setIMEKeyboardState(bool)
FUNC ad58c 4c 0 GameObject::~GameObject()
FUNC ad5d8 2ec 0 cocos2d::CCLayerColor::~CCLayerColor()
FUNC ad8c4 2f8 0 cocos2d::CCLayer::~CCLayer()
FUNC adbbc 2a8 0 cocos2d::CCNode::~CCNode()
FUNC ade64 2ec 0 FLAlertLayer::~FLAlertLayer()
FUNC ae150 4c4 0 cocos2d::CCObject::~CCObject()
FUNC ae614 154 0 _ZN5geode15UnwrapExceptionC2IRPvQsr4implE18IsStringStreamableIT_EEENS_4impl5OkTagEOS4_
FUNC ae768 4 0 std::__ndk1::__variant_detail::__visitation::__base::__dispatcher<(unsigned long)0>::__dispatch[abi:ne190000]<std::__ndk1::__variant_detail::__dtor<std::__ndk1::__variant_detail::__traits<void*, std::__ndk1::basic_string<char, std::__ndk1::char_traits<char>, std::__ndk1::allocator<char> > >, (std::__ndk1::__variant_detail::_Trait)1>::__destroy[abi:ne190000]()::{lambda(auto:1&)#1}, std::__ndk1::__variant_detail::__base<(std::__ndk1::__variant_detail::__traits<void*, std::__ndk1::basic_string<char, std::__ndk1::char_traits<char>, std::__ndk1::allocator<char> > >)1, std::__ndk1::__variant_detail::__traits, std::__ndk1::allocator<char> >&>(std::__ndk1::__variant_detail::__dtor<std::__ndk1::__variant_detail::__traits<void*, std::__ndk1::basic_string<char, std::__ndk1::char_traits<char>, std::__ndk1::allocator<char> > >, (std::__ndk1::__variant_detail::_Trait)1>, std::__ndk1::__variant_detail::__base<(std::__ndk1::__variant_detail::__traits<void*, std::__ndk1::basic_string<char, std::__ndk1::char_traits<char>, std::__ndk1::allocator<char> > >)1, std::__ndk1::__variant_detail::__traits, std::__ndk1::allocator<char> >&)
FUNC ae76c 14 0 std::__ndk1::__variant_detail::__visitation::__base::__dispatcher<(unsigned long)1>::__dispatch[abi:ne190000]<std::__ndk1::__variant_detail::__dtor<std::__ndk1::__variant_detail::__traits<void*, std::__ndk1::basic_string<char, std::__ndk1::char_traits<char>, std::__ndk1::allocator<char> > >, (std::__ndk1::__variant_detail::_Trait)1>::__destroy[abi:ne190000]()::{lambda(auto:1&)#1}, std::__ndk1::__variant_detail::__base<(std::__ndk1::__variant_detail::__traits<void*, std::__ndk1::basic_string<char, std::__ndk1::char_traits<char>, std::__ndk1::allocator<char> > >)1, std::__ndk1::__variant_detail::__traits, std::__ndk1::allocator<char> >&>(std::__ndk1::__variant_detail::__dtor<std::__ndk1::__variant_detail::__traits<void*, std::__ndk1::basic_string<char, std::__ndk1::char_traits<char>, std::__ndk1::allocator<char> > >, (std::__ndk1::__variant_detail::_Trait)1>, std::__ndk1::__variant_detail::__base<(std::__ndk1::__variant_detail::__traits<void*, std::__ndk1::basic_string<char, std::__ndk1::char_traits<char>, std::__ndk1::allocator<char> > >)1, std::__ndk1::__variant_detail::__traits, std::__ndk1::allocator<char> >&)
FUNC ae780 43c 0 std::__ndk1::__hash_table<std::__ndk1::__hash_value_type<void*, bool>, std::__ndk1::__unordered_map_hasher<void*, std::__ndk1::__hash_value_type<void*, bool>, std::__ndk1::hash<void*>, std::__ndk1::equal_to<void*>, true>, std::__ndk1::__unordered_map_equal<void*, std::__ndk1::__hash_value_type<void*, bool>, std::__ndk1::equal_to<void*>, std::__ndk1::hash<void*>, true>, std::__ndk1::allocator<std::__ndk1::__hash_value_type<void*, bool> > >::__emplace_unique_key_args<void*, std::__ndk1::piecewise_construct_t const&, std::__ndk1::tuple<void* const&>, std::__ndk1::tuple<> >(void* const&, std::__ndk1::piecewise_construct_t const&, std::__ndk1::tuple<void* const&>, std::__ndk1::tuple<>)
PUBLIC aebbc 0 __udivti3
PUBLIC aebc8 0 __udivmodti4
PUBLIC m aee14 0 __eqtf2
PUBLIC aeeb4 0 __unordtf2
FUNC aeeec 294 0 fmt::v11::detail::write_loc(fmt::v11::basic_appender<char>, fmt::v11::loc_value, fmt::v11::format_specs const&, fmt::v11::detail::locale_ref)
FUNC af180 70 0 fmt::v11::format_facet<std::__ndk1::locale>::~format_facet()
FUNC af1f0 50 0 fmt::v11::report_error(char const*)
FUNC af240 2c 0 fmt::v11::format_error::runtime_error(char const*)
FUNC af26c 750 0 fmt::v11::format_facet<std::__ndk1::locale>::do_put(fmt::v11::basic_appender<char>, fmt::v11::loc_value, fmt::v11::format_specs const&) const
FUNC af9bc 64 0 fmt::v11::detail::loc_writer<char>::~loc_writer()
FUNC afa20 13c 0 fmt::v11::vformat(fmt::v11::basic_string_view<char>, fmt::v11::basic_format_args<fmt::v11::context>)
FUNC afb5c 3c8 0 fmt::v11::detail::vformat_to<char>(fmt::v11::detail::buffer<char>&, fmt::v11::basic_string_view<char>, fmt::v11::detail::vformat_args<char>::type, fmt::v11::detail::locale_ref)
FUNC aff24 228 0 fmt::v11::detail::is_printable(unsigned int)
FUNC b014c 2b4 0 fmt::v11::detail::dragonbox::to_decimal<float>(float)
FUNC b0400 530 0 fmt::v11::detail::dragonbox::to_decimal<double>(double)
FUNC b0930 78 0 fmt::v11::basic_memory_buffer<char, (unsigned long)500, std::__ndk1::allocator<char> >::grow(fmt::v11::detail::buffer<char>&, unsigned long)
FUNC b09a8 78 0 fmt::v11::format_facet<std::__ndk1::locale>::~format_facet()
FUNC b0a20 24 0 fmt::v11::format_error::~format_error()
FUNC b0a44 150 0 fmt::v11::detail::copy_noinline<char, char const*, fmt::v11::basic_appender<char> >(char const*, char const*, fmt::v11::basic_appender<char>)
FUNC b0b94 6c 0 fmt::v11::detail::default_arg_formatter<char>::operator()<bool>(bool)
FUNC b0c00 74 0 fmt::v11::detail::default_arg_formatter<char>::operator()<char>(char)
FUNC b0c74 f0 0 fmt::v11::detail::default_arg_formatter<char>::operator()<float>(float)
FUNC b0d64 f0 0 fmt::v11::detail::default_arg_formatter<char>::operator()<double>(double)
FUNC b0e54 48 0 fmt::v11::detail::default_arg_formatter<char>::operator()<char const*>(char const*)
FUNC b0e9c 9c 0 fmt::v11::detail::default_arg_formatter<char>::operator()<void const*>(void const*)
FUNC b0f38 220 0 _ZN3fmt3v116detail5writeIcNS0_14basic_appenderIcEEiTnNSt6__ndk19enable_ifIXaaaasr11is_integralIT1_EE5valuentsr3std7is_sameIS7_bEE5valuentsr3std7is_sameIS7_T_EE5valueEiE4typeELi0EEET0_SB_S7_
FUNC b1158 150 0 fmt::v11::detail::copy_noinline<char, char*, fmt::v11::basic_appender<char> >(char*, char*, fmt::v11::basic_appender<char>)
FUNC b12a8 1c4 0 _ZN3fmt3v116detail5writeIcNS0_14basic_appenderIcEEjTnNSt6__ndk19enable_ifIXaaaasr11is_integralIT1_EE5valuentsr3std7is_sameIS7_bEE5valuentsr3std7is_sameIS7_T_EE5valueEiE4typeELi0EEET0_SB_S7_
FUNC b146c 244 0 _ZN3fmt3v116detail5writeIcNS0_14basic_appenderIcEExTnNSt6__ndk19enable_ifIXaaaasr11is_integralIT1_EE5valuentsr3std7is_sameIS7_bEE5valuentsr3std7is_sameIS7_T_EE5valueEiE4typeELi0EEET0_SB_S7_
FUNC b16b0 1ec 0 _ZN3fmt3v116detail5writeIcNS0_14basic_appenderIcEEyTnNSt6__ndk19enable_ifIXaaaasr11is_integralIT1_EE5valuentsr3std7is_sameIS7_bEE5valuentsr3std7is_sameIS7_T_EE5valueEiE4typeELi0EEET0_SB_S7_
FUNC b189c 304 0 _ZN3fmt3v116detail5writeIcNS0_14basic_appenderIcEEnTnNSt6__ndk19enable_ifIXaaaasr11is_integralIT1_EE5valuentsr3std7is_sameIS7_bEE5valuentsr3std7is_sameIS7_T_EE5valueEiE4typeELi0EEET0_SB_S7_
FUNC b1ba0 2a4 0 _ZN3fmt3v116detail5writeIcNS0_14basic_appenderIcEEoTnNSt6__ndk19enable_ifIXaaaasr11is_integralIT1_EE5valuentsr3std7is_sameIS7_bEE5valuentsr3std7is_sameIS7_T_EE5valueEiE4typeELi0EEET0_SB_S7_
FUNC b1e44 290 0 _ZN3fmt3v116detail5writeIcNS0_14basic_appenderIcEEbTnNSt6__ndk19enable_ifIXsr3std7is_sameIT1_bEE5valueEiE4typeELi0EEET0_SA_S7_RKNS0_12format_specsENS1_10locale_refE
FUNC b20d4 dac 0 fmt::v11::detail::write_int_noinline<char, fmt::v11::basic_appender<char>, unsigned int>(fmt::v11::basic_appender<char>, fmt::v11::detail::write_int_arg<unsigned int>, fmt::v11::format_specs const&, fmt::v11::detail::locale_ref)
FUNC b2e80 1d0 0 fmt::v11::detail::fill<char, fmt::v11::basic_appender<char> >(fmt::v11::basic_appender<char>, unsigned long, fmt::v11::detail::fill_t const&)
FUNC b3050 22c 0 fmt::v11::detail::write_padded<char, (fmt::v11::align::type)1, fmt::v11::basic_appender<char>, fmt::v11::detail::write_char<char, fmt::v11::basic_appender<char> >(fmt::v11::basic_appender<char>, char, fmt::v11::format_specs const&)::{lambda(fmt::v11::basic_appender<char>&)#1}>(fmt::v11::basic_appender<char>, fmt::v11::format_specs const&, unsigned long, unsigned long, fmt::v11::detail::write_char<char, fmt::v11::basic_appender<char> >(fmt::v11::basic_appender<char>, char, fmt::v11::format_specs const&)::{lambda(fmt::v11::basic_appender<char>&)#1})
FUNC b327c 30c 0 fmt::v11::detail::write_escaped_cp<fmt::v11::basic_appender<char>, char>(fmt::v11::basic_appender<char>, fmt::v11::detail::find_escape_result<char> const&)
FUNC b3588 178 0 fmt::v11::detail::write_codepoint<(unsigned long)2, char, fmt::v11::basic_appender<char> >(fmt::v11::basic_appender<char>, char, unsigned int)
FUNC b3700 178 0 fmt::v11::detail::write_codepoint<(unsigned long)8, char, fmt::v11::basic_appender<char> >(fmt::v11::basic_appender<char>, char, unsigned int)
FUNC b3878 240 0 fmt::v11::detail::write_padded<char, (fmt::v11::align::type)1, fmt::v11::basic_appender<char>, fmt::v11::detail::write_nonfinite<char, fmt::v11::basic_appender<char> >(fmt::v11::basic_appender<char>, bool, fmt::v11::format_specs, fmt::v11::sign::type)::{lambda(fmt::v11::basic_appender<char>&)#1}>(fmt::v11::basic_appender<char>, fmt::v11::format_specs const&, unsigned long, unsigned long, fmt::v11::detail::write_nonfinite<char, fmt::v11::basic_appender<char> >(fmt::v11::basic_appender<char>, bool, fmt::v11::format_specs, fmt::v11::sign::type)::{lambda(fmt::v11::basic_appender<char>&)#1})
FUNC b3ab8 c2c 0 fmt::v11::detail::do_write_float<char, fmt::v11::basic_appender<char>, fmt::v11::detail::dragonbox::decimal_fp<float>, fmt::v11::detail::digit_grouping<char> >(fmt::v11::basic_appender<char>, fmt::v11::detail::dragonbox::decimal_fp<float> const&, fmt::v11::format_specs const&, fmt::v11::detail::float_specs, fmt::v11::detail::locale_ref)
FUNC b46e4 154 0 fmt::v11::detail::do_write_float<char, fmt::v11::basic_appender<char>, fmt::v11::detail::dragonbox::decimal_fp<float>, fmt::v11::detail::digit_grouping<char> >(fmt::v11::basic_appender<char>, fmt::v11::detail::dragonbox::decimal_fp<float> const&, fmt::v11::format_specs const&, fmt::v11::detail::float_specs, fmt::v11::detail::locale_ref)::{lambda(fmt::v11::basic_appender<char>(fmt::v11::basic_appender<char>))#1}::operator() const
FUNC b4838 234 0 fmt::v11::detail::digit_grouping<char>::digit_grouping(fmt::v11::detail::locale_ref, bool)
FUNC b4a6c 44 0 fmt::v11::detail::digit_grouping<char>::~digit_grouping()
FUNC b4ab0 1a4 0 fmt::v11::detail::write_exponent<char, fmt::v11::basic_appender<char> >(int, fmt::v11::basic_appender<char>)
FUNC b4c54 17c 0 _ZN3fmt3v116detail17write_significandIcjTnNSt6__ndk19enable_ifIXsr3std11is_integralIT0_EE5valueEiE4typeELi0EEEPT_S9_S5_iiS8_
FUNC b4dd0 3a4 0 fmt::v11::detail::digit_grouping<char>::apply<fmt::v11::basic_appender<char>, char>(fmt::v11::basic_appender<char>, fmt::v11::basic_string_view<char>) const
FUNC b5174 a0 0 fmt::v11::basic_memory_buffer<int, (unsigned long)500, std::__ndk1::allocator<int> >::grow(fmt::v11::detail::buffer<int>&, unsigned long)
FUNC b5214 c68 0 fmt::v11::detail::do_write_float<char, fmt::v11::basic_appender<char>, fmt::v11::detail::dragonbox::decimal_fp<double>, fmt::v11::detail::digit_grouping<char> >(fmt::v11::basic_appender<char>, fmt::v11::detail::dragonbox::decimal_fp<double> const&, fmt::v11::format_specs const&, fmt::v11::detail::float_specs, fmt::v11::detail::locale_ref)
FUNC b5e7c 158 0 fmt::v11::detail::do_write_float<char, fmt::v11::basic_appender<char>, fmt::v11::detail::dragonbox::decimal_fp<double>, fmt::v11::detail::digit_grouping<char> >(fmt::v11::basic_appender<char>, fmt::v11::detail::dragonbox::decimal_fp<double> const&, fmt::v11::format_specs const&, fmt::v11::detail::float_specs, fmt::v11::detail::locale_ref)::{lambda(fmt::v11::basic_appender<char>(fmt::v11::basic_appender<char>))#1}::operator() const
FUNC b5fd4 190 0 _ZN3fmt3v116detail17write_significandIcmTnNSt6__ndk19enable_ifIXsr3std11is_integralIT0_EE5valueEiE4typeELi0EEEPT_S9_S5_iiS8_
FUNC b6164 ab8 0 fmt::v11::detail::write_float<char, fmt::v11::basic_appender<char>, long double>(fmt::v11::basic_appender<char>, long double, fmt::v11::format_specs, fmt::v11::detail::locale_ref)
FUNC b6c1c 1dc 0 fmt::v11::detail::write_padded<char, (fmt::v11::align::type)2, fmt::v11::basic_appender<char>, fmt::v11::detail::write_bytes<char, (fmt::v11::align::type)2, fmt::v11::basic_appender<char> >(fmt::v11::basic_appender<char>, fmt::v11::basic_string_view<char>, fmt::v11::format_specs const&)::{lambda(fmt::v11::basic_appender<char>&)#1}>(fmt::v11::basic_appender<char>, fmt::v11::format_specs const&, unsigned long, unsigned long, fmt::v11::detail::write_bytes<char, (fmt::v11::align::type)2, fmt::v11::basic_appender<char> >(fmt::v11::basic_appender<char>, fmt::v11::basic_string_view<char>, fmt::v11::format_specs const&)::{lambda(fmt::v11::basic_appender<char>&)#1})
FUNC b6df8 133c 0 fmt::v11::detail::format_dragon(fmt::v11::detail::basic_fp<unsigned __int128>, unsigned int, int, fmt::v11::detail::buffer<char>&, int&)
FUNC b8134 124 0 fmt::v11::detail::bigint::operator<<=(int)
FUNC b8258 744 0 fmt::v11::detail::bigint::assign_pow10(int)
FUNC b899c 2f8 0 fmt::v11::detail::bigint::divmod_assign(fmt::v11::detail::bigint const&)
FUNC b8c94 a0 0 fmt::v11::basic_memory_buffer<unsigned int, (unsigned long)32, std::__ndk1::allocator<unsigned int> >::grow(fmt::v11::detail::buffer<unsigned int>&, unsigned long)
FUNC b8d34 e80 0 fmt::v11::detail::do_write_float<char, fmt::v11::basic_appender<char>, fmt::v11::detail::big_decimal_fp, fmt::v11::detail::digit_grouping<char> >(fmt::v11::basic_appender<char>, fmt::v11::detail::big_decimal_fp const&, fmt::v11::format_specs const&, fmt::v11::detail::float_specs, fmt::v11::detail::locale_ref)
FUNC b9bb4 160 0 fmt::v11::detail::do_write_float<char, fmt::v11::basic_appender<char>, fmt::v11::detail::big_decimal_fp, fmt::v11::detail::digit_grouping<char> >(fmt::v11::basic_appender<char>, fmt::v11::detail::big_decimal_fp const&, fmt::v11::format_specs const&, fmt::v11::detail::float_specs, fmt::v11::detail::locale_ref)::{lambda(fmt::v11::basic_appender<char>(fmt::v11::basic_appender<char>))#1}::operator() const
FUNC b9d14 214 0 fmt::v11::detail::write_padded<char, (fmt::v11::align::type)2, fmt::v11::basic_appender<char>, fmt::v11::detail::write_ptr<char, fmt::v11::basic_appender<char>, unsigned long>(fmt::v11::basic_appender<char>, unsigned long, fmt::v11::format_specs const*)::{lambda(fmt::v11::basic_appender<char>&)#1}>(fmt::v11::basic_appender<char>, fmt::v11::format_specs const&, unsigned long, unsigned long, fmt::v11::detail::write_ptr<char, fmt::v11::basic_appender<char>, unsigned long>(fmt::v11::basic_appender<char>, unsigned long, fmt::v11::format_specs const*)::{lambda(fmt::v11::basic_appender<char>&)#1})
FUNC b9f28 1c20 0 fmt::v11::detail::parse_replacement_field<char, fmt::v11::detail::vformat_to<char>(fmt::v11::detail::buffer<char>&, fmt::v11::basic_string_view<char>, fmt::v11::detail::vformat_args<char>::type, fmt::v11::detail::locale_ref)::format_handler&>(char const*, char const*, fmt::v11::detail::vformat_to<char>(fmt::v11::detail::buffer<char>&, fmt::v11::basic_string_view<char>, fmt::v11::detail::vformat_args<char>::type, fmt::v11::detail::locale_ref)::format_handler&)
FUNC bbb48 288 0 fmt::v11::detail::parse_dynamic_spec<char>(char const*, char const*, int&, fmt::v11::detail::arg_ref<char>&, fmt::v11::basic_format_parse_context<char>&)
FUNC bbdd0 134 0 fmt::v11::basic_format_args<fmt::v11::context>::get<char>(fmt::v11::basic_string_view<char>) const
FUNC bbf04 e1c 0 fmt::v11::detail::write_int_noinline<char, fmt::v11::basic_appender<char>, unsigned long>(fmt::v11::basic_appender<char>, fmt::v11::detail::write_int_arg<unsigned long>, fmt::v11::format_specs const&, fmt::v11::detail::locale_ref)
FUNC bcd20 fc8 0 fmt::v11::detail::write_int_noinline<char, fmt::v11::basic_appender<char>, unsigned __int128>(fmt::v11::basic_appender<char>, fmt::v11::detail::write_int_arg<unsigned __int128>, fmt::v11::format_specs const&, fmt::v11::detail::locale_ref)
FUNC bdce8 510 0 _ZN3fmt3v116detail15format_hexfloatIdTnNSt6__ndk19enable_ifIXntsr16is_double_doubleIT_EE5valueEiE4typeELi0EEEvS5_NS0_12format_specsERNS1_6bufferIcEE
FUNC be1f8 a14 0 fmt::v11::detail::format_float<double>(double, int, fmt::v11::detail::float_specs, fmt::v11::detail::buffer<char>&)
FUNC bec0c cb0 0 fmt::v11::detail::write<char, fmt::v11::basic_appender<char> >(fmt::v11::basic_appender<char>, fmt::v11::basic_string_view<char>, fmt::v11::format_specs const&)
FUNC bf8bc 18c 0 fmt::v11::detail::for_each_codepoint<fmt::v11::detail::find_escape(char const*, char const*)::{lambda(unsigned int, fmt::v11::basic_string_view<char>)#1}>(fmt::v11::basic_string_view<char>, fmt::v11::detail::find_escape(char const*, char const*)::{lambda(unsigned int, fmt::v11::basic_string_view<char>)#1})::{lambda(char const*, char const*)#1}::operator()(char const*, char const*) const
FUNC bfa48 1b8 0 fmt::v11::detail::for_each_codepoint<fmt::v11::detail::compute_width(fmt::v11::basic_string_view<char>)::count_code_points>(fmt::v11::basic_string_view<char>, fmt::v11::detail::compute_width(fmt::v11::basic_string_view<char>)::count_code_points)::{lambda(char const*, char const*)#1}::operator()(char const*, char const*) const
FUNC bfc00 570 0 fmt::v11::detail::write_int<fmt::v11::basic_appender<char>, unsigned long, char>(fmt::v11::basic_appender<char>, unsigned long, unsigned int, fmt::v11::format_specs const&, fmt::v11::detail::digit_grouping<char> const&)
FUNC c0170 664 0 fmt::v11::detail::write_int<fmt::v11::basic_appender<char>, unsigned __int128, char>(fmt::v11::basic_appender<char>, unsigned __int128, unsigned int, fmt::v11::format_specs const&, fmt::v11::detail::digit_grouping<char> const&)
PUBLIC c07e0 0 <.plt ELF section in naxrin.chroma_icons.android64.so>
STACK CFI INIT 5a580 10 .cfa: sp 0 +
STACK CFI INIT 5a590 8 .cfa: sp 0 +
STACK CFI INIT 5a598 8 .cfa: sp 0 +
STACK CFI INIT 5a5a0 14 .cfa: sp 0 +
STACK CFI INIT 5a5b4 1c .cfa: sp 0 +
STACK CFI INIT 5a5d0 10 .cfa: sp 0 +
STACK CFI INIT 5a5e0 134 .cfa: sp 0 +
STACK CFI INIT 5a714 84 .cfa: sp 0 +
STACK CFI INIT 5a798 f4 .cfa: sp 0 +
STACK CFI INIT 5a88c a8 .cfa: sp 0 +
STACK CFI INIT 5a934 7c .cfa: sp 0 +
STACK CFI INIT 5a9b0 14 .cfa: sp 0 +
STACK CFI INIT 5a9c4 40 .cfa: sp 0 +
STACK CFI INIT 5aa04 28 .cfa: sp 0 +
STACK CFI INIT 5aa2c 190 .cfa: sp 0 +
STACK CFI INIT 5abbc 2c8 .cfa: sp 0 +
STACK CFI INIT 5ae84 8 .cfa: sp 0 +
STACK CFI INIT 5ae8c 8 .cfa: sp 0 +
STACK CFI INIT 5ae94 44 .cfa: sp 0 +
STACK CFI INIT 5aed8 e8 .cfa: sp 0 +
STACK CFI INIT 5afc0 e8 .cfa: sp 0 +
STACK CFI INIT 5b0a8 14 .cfa: sp 0 +
STACK CFI INIT 5b0bc 10 .cfa: sp 0 +
STACK CFI INIT 5b0cc 10 .cfa: sp 0 +
STACK CFI INIT 5b0dc f0 .cfa: sp 0 +
STACK CFI INIT 5b1cc 44 .cfa: sp 0 +
STACK CFI INIT 5b210 c .cfa: sp 0 +
STACK CFI INIT 5b21c c .cfa: sp 0 +
STACK CFI INIT 5b228 2c .cfa: sp 0 +
STACK CFI INIT 5b254 23c .cfa: sp 0 +
STACK CFI INIT 5b490 c .cfa: sp 0 +
STACK CFI INIT 5b49c 120 .cfa: sp 0 +
STACK CFI INIT 5b5bc 494 .cfa: sp 0 +
STACK CFI INIT 5ba50 b78 .cfa: sp 0 +
STACK CFI INIT 5c5c8 134 .cfa: sp 0 +
STACK CFI INIT 5c6fc 210 .cfa: sp 0 +
STACK CFI INIT 5c90c 38c .cfa: sp 0 +
STACK CFI INIT 5cc98 1c8 .cfa: sp 0 +
STACK CFI INIT 5ce60 9c4 .cfa: sp 0 +
STACK CFI INIT 5d824 2d4 .cfa: sp 0 +
STACK CFI INIT 5daf8 130 .cfa: sp 0 +
STACK CFI INIT 5dc28 120 .cfa: sp 0 +
STACK CFI INIT 5dd48 1c8 .cfa: sp 0 +
STACK CFI INIT 5df10 168 .cfa: sp 0 +
STACK CFI INIT 5e078 fc .cfa: sp 0 +
STACK CFI INIT 5e174 30 .cfa: sp 0 +
STACK CFI INIT 5e2d0 30 .cfa: sp 0 +
STACK CFI INIT 5e300 98 .cfa: sp 0 +
STACK CFI INIT 5e398 2ac .cfa: sp 0 +
STACK CFI INIT 5e644 8c .cfa: sp 0 +
STACK CFI INIT 5e6d0 104 .cfa: sp 0 +
STACK CFI 5e6d4 .cfa: sp 16 +
STACK CFI 5e6d8 .cfa: x29 16 + .ra: .cfa -8 + ^ x29: .cfa -16 + ^
STACK CFI 5e7bc .cfa: sp 16 +
STACK CFI 5e7c0 .cfa: sp 0 +
STACK CFI 5e7c4 .cfa: x29 16 +
STACK CFI 5e7cc .cfa: sp 16 +
STACK CFI 5e7d0 .cfa: sp 0 +
STACK CFI INIT 5e7d4 104 .cfa: sp 0 +
STACK CFI 5e7d8 .cfa: sp 16 +
STACK CFI 5e7dc .cfa: x29 16 + .ra: .cfa -8 + ^ x29: .cfa -16 + ^
STACK CFI 5e8c0 .cfa: sp 16 +
STACK CFI 5e8c4 .cfa: sp 0 +
STACK CFI 5e8c8 .cfa: x29 16 +
STACK CFI 5e8d0 .cfa: sp 16 +
STACK CFI 5e8d4 .cfa: sp 0 +
STACK CFI INIT 5e950 8 .cfa: sp 0 +
STACK CFI INIT 5f050 e0 .cfa: sp 0 +
STACK CFI 5f054 .cfa: sp 64 +
STACK CFI 5f064 .cfa: x29 48 + x19: .cfa -8 + ^ x20: .cfa -16 + ^ x21: .cfa -24 + ^ x22: .cfa -32 + ^ .ra: .cfa -40 + ^ x29: .cfa -48 + ^
STACK CFI 5f118 .cfa: sp 64 +
STACK CFI 5f128 .cfa: sp 0 +
STACK CFI 5f12c .cfa: x29 48 +
STACK CFI INIT 5f130 30 .cfa: sp 0 +
STACK CFI 5f134 .cfa: sp 32 +
STACK CFI 5f13c .cfa: x29 32 + x19: .cfa -16 + ^ .ra: .cfa -24 + ^ x29: .cfa -32 + ^
STACK CFI 5f154 .cfa: sp 32 +
STACK CFI 5f15c .cfa: sp 0 +
STACK CFI INIT 60078 30 .cfa: sp 0 +
STACK CFI 6007c .cfa: sp 32 +
STACK CFI 60084 .cfa: x29 32 + x19: .cfa -16 + ^ .ra: .cfa -24 + ^ x29: .cfa -32 + ^
STACK CFI 6009c .cfa: sp 32 +
STACK CFI 600a4 .cfa: sp 0 +
STACK CFI INIT 600a8 98 .cfa: sp 0 +
STACK CFI 600ac .cfa: sp 304 +
STACK CFI 600b8 .cfa: x29 32 + x19: .cfa -8 + ^ x28: .cfa -16 + ^ .ra: .cfa -24 + ^ x29: .cfa -32 + ^
STACK CFI 6012c .cfa: sp 304 +
STACK CFI 60138 .cfa: sp 0 +
STACK CFI 6013c .cfa: x29 32 +
STACK CFI INIT 602d0 b8 .cfa: sp 0 +
STACK CFI 60328 .cfa: sp 32 +
STACK CFI 60330 .cfa: x29 32 + x19: .cfa -8 + ^ x20: .cfa -16 + ^ .ra: .cfa -24 + ^ x29: .cfa -32 + ^
STACK CFI 60378 .cfa: sp 32 +
STACK CFI 60380 .cfa: sp 0 +
STACK CFI INIT 60468 8c .cfa: sp 0 +
STACK CFI 604c8 .cfa: sp 16 +
STACK CFI 604cc .cfa: x29 16 + .ra: .cfa -8 + ^ x29: .cfa -16 + ^
STACK CFI 604e8 .cfa: sp 16 +
STACK CFI 604ec .cfa: sp 0 +
STACK CFI INIT 630f0 50 .cfa: sp 0 +
STACK CFI 630f4 .cfa: sp 32 +
STACK CFI 630fc .cfa: x29 32 + x19: .cfa -16 + ^ .ra: .cfa -24 + ^ x29: .cfa -32 + ^
STACK CFI 63114 .cfa: sp 32 +
STACK CFI 6311c .cfa: sp 0 +
STACK CFI 63120 .cfa: x29 32 +
STACK CFI 63134 .cfa: sp 32 +
STACK CFI 6313c .cfa: sp 0 +
STACK CFI INIT 63140 70 .cfa: sp 0 +
STACK CFI 63144 .cfa: sp 32 +
STACK CFI 6314c .cfa: x29 32 + x19: .cfa -8 + ^ x20: .cfa -16 + ^ .ra: .cfa -24 + ^ x29: .cfa -32 + ^
STACK CFI 63188 .cfa: sp 32 +
STACK CFI 63190 .cfa: sp 0 +
STACK CFI 63194 .cfa: x29 32 +
STACK CFI 631a4 .cfa: sp 32 +
STACK CFI 631ac .cfa: sp 0 +
STACK CFI INIT 631b0 e8 .cfa: sp 0 +
STACK CFI 631b4 .cfa: sp 32 +
STACK CFI 631bc .cfa: x29 32 + x19: .cfa -16 + ^ .ra: .cfa -24 + ^ x29: .cfa -32 + ^
STACK CFI 63210 .cfa: sp 32 +
STACK CFI 63214 .cfa: x29 32 +
STACK CFI 63240 .cfa: sp 32 +
STACK CFI 63248 .cfa: sp 0 +
STACK CFI 6324c .cfa: x29 32 +
STACK CFI 63280 .cfa: sp 32 +
STACK CFI 63288 .cfa: sp 0 +
STACK CFI 6328c .cfa: sp 32 +
STACK CFI 63294 .cfa: sp 0 +
STACK CFI INIT 634c8 44 .cfa: sp 0 +
STACK CFI 634cc .cfa: sp 32 +
STACK CFI 634d4 .cfa: x29 32 + x19: .cfa -16 + ^ .ra: .cfa -24 + ^ x29: .cfa -32 + ^
STACK CFI 63500 .cfa: sp 32 +
STACK CFI 63508 .cfa: sp 0 +
STACK CFI INIT 6350c 14c .cfa: sp 0 +
STACK CFI 63510 .cfa: sp 32 +
STACK CFI 63518 .cfa: x29 32 + x19: .cfa -8 + ^ x20: .cfa -16 + ^ .ra: .cfa -24 + ^ x29: .cfa -32 + ^
STACK CFI 63630 .cfa: sp 32 +
STACK CFI 63638 .cfa: sp 0 +
STACK CFI 6363c .cfa: x29 32 +
STACK CFI 6364c .cfa: sp 32 +
STACK CFI 63654 .cfa: sp 0 +
STACK CFI INIT 63e74 10 .cfa: sp 0 +
STACK CFI 63e78 .cfa: sp 16 +
STACK CFI 63e7c .cfa: x29 16 + .ra: .cfa -8 + ^ x29: .cfa -16 + ^
STACK CFI INIT 63e84 14 .cfa: sp 0 +
STACK CFI 63e88 .cfa: sp 16 +
STACK CFI 63e8c .cfa: x29 16 + .ra: .cfa -8 + ^ x29: .cfa -16 + ^
STACK CFI INIT 63ee8 30 .cfa: sp 0 +
STACK CFI 63eec .cfa: sp 32 +
STACK CFI 63ef4 .cfa: x29 32 + x19: .cfa -16 + ^ .ra: .cfa -24 + ^ x29: .cfa -32 + ^
STACK CFI 63f0c .cfa: sp 32 +
STACK CFI 63f14 .cfa: sp 0 +
STACK CFI INIT 63f18 34 .cfa: sp 0 +
STACK CFI 63f1c .cfa: sp 32 +
STACK CFI 63f24 .cfa: x29 32 + x19: .cfa -16 + ^ .ra: .cfa -24 + ^ x29: .cfa -32 + ^
STACK CFI INIT 63f4c 124 .cfa: sp 0 +
STACK CFI 63f50 .cfa: sp 96 +
STACK CFI 63f64 .cfa: x29 64 + x19: .cfa -8 + ^ x20: .cfa -16 + ^ x21: .cfa -24 + ^ x22: .cfa -32 + ^ x23: .cfa -48 + ^ .ra: .cfa -56 + ^ x29: .cfa -64 + ^
STACK CFI 64054 .cfa: sp 96 +
STACK CFI 64068 .cfa: sp 0 +
STACK CFI 6406c .cfa: x29 64 +
STACK CFI INIT 64070 1a8 .cfa: sp 0 +
STACK CFI INIT 64218 194 .cfa: sp 0 +
STACK CFI INIT 643ac 44 .cfa: sp 0 +
STACK CFI 643b4 .cfa: sp 32 +
STACK CFI 643bc .cfa: x29 32 + x19: .cfa -8 + ^ x20: .cfa -16 + ^ .ra: .cfa -24 + ^ x29: .cfa -32 + ^
STACK CFI 643e0 .cfa: sp 32 +
STACK CFI 643e8 .cfa: sp 0 +
STACK CFI INIT 643f0 14 .cfa: sp 0 +
STACK CFI 643f4 .cfa: sp 16 +
STACK CFI 643f8 .cfa: x29 16 + .ra: .cfa -8 + ^ x29: .cfa -16 + ^
STACK CFI INIT 64404 24 .cfa: sp 0 +
STACK CFI 64408 .cfa: sp 32 +
STACK CFI 64410 .cfa: x29 32 + x19: .cfa -16 + ^ .ra: .cfa -24 + ^ x29: .cfa -32 + ^
STACK CFI 6441c .cfa: sp 32 +
STACK CFI 64424 .cfa: sp 0 +
STACK CFI INIT 64428 1c4 .cfa: sp 0 +
STACK CFI 6442c .cfa: sp 80 +
STACK CFI 64440 .cfa: x29 64 + x19: .cfa -8 + ^ x20: .cfa -16 + ^ x21: .cfa -24 + ^ x22: .cfa -32 + ^ x23: .cfa -40 + ^ x24: .cfa -48 + ^ .ra: .cfa -56 + ^ x29: .cfa -64 + ^
STACK CFI 645d0 .cfa: sp 80 +
STACK CFI 645e4 .cfa: sp 0 +
STACK CFI 645e8 .cfa: x29 64 +
STACK CFI INIT 645ec 8 .cfa: sp 0 +
STACK CFI INIT 645f4 24 .cfa: sp 0 +
STACK CFI 645f8 .cfa: sp 32 +
STACK CFI 64600 .cfa: x29 32 + x19: .cfa -16 + ^ .ra: .cfa -24 + ^ x29: .cfa -32 + ^
STACK CFI 6460c .cfa: sp 32 +
STACK CFI 64614 .cfa: sp 0 +
STACK CFI INIT 64744 24 .cfa: sp 0 +
STACK CFI 64748 .cfa: sp 32 +
STACK CFI 64750 .cfa: x29 32 + x19: .cfa -16 + ^ .ra: .cfa -24 + ^ x29: .cfa -32 + ^
STACK CFI 6475c .cfa: sp 32 +
STACK CFI 64764 .cfa: sp 0 +
STACK CFI INIT 64768 14 .cfa: sp 0 +
STACK CFI INIT 6477c 24 .cfa: sp 0 +
STACK CFI 64780 .cfa: sp 32 +
STACK CFI 64788 .cfa: x29 32 + x19: .cfa -16 + ^ .ra: .cfa -24 + ^ x29: .cfa -32 + ^
STACK CFI 64794 .cfa: sp 32 +
STACK CFI 6479c .cfa: sp 0 +
STACK CFI INIT 647a0 1c4 .cfa: sp 0 +
STACK CFI 647a4 .cfa: sp 80 +
STACK CFI 647b8 .cfa: x29 64 + x19: .cfa -8 + ^ x20: .cfa -16 + ^ x21: .cfa -24 + ^ x22: .cfa -32 + ^ x23: .cfa -40 + ^ x24: .cfa -48 + ^ .ra: .cfa -56 + ^ x29: .cfa -64 + ^
STACK CFI 64948 .cfa: sp 80 +
STACK CFI 6495c .cfa: sp 0 +
STACK CFI 64960 .cfa: x29 64 +
STACK CFI INIT 64964 30c .cfa: sp 0 +
STACK CFI 64968 .cfa: sp 80 +
STACK CFI 6497c .cfa: x29 80 + x19: .cfa -8 + ^ x20: .cfa -16 + ^ x21: .cfa -24 + ^ x22: .cfa -32 + ^ x23: .cfa -40 + ^ x24: .cfa -48 + ^ x25: .cfa -64 + ^ .ra: .cfa -72 + ^ x29: .cfa -80 + ^
STACK CFI 64c58 .cfa: sp 80 +
STACK CFI 64c6c .cfa: sp 0 +
STACK CFI INIT 64c70 24 .cfa: sp 0 +
STACK CFI 64c74 .cfa: sp 32 +
STACK CFI 64c7c .cfa: x29 32 + x19: .cfa -16 + ^ .ra: .cfa -24 + ^ x29: .cfa -32 + ^
STACK CFI 64c88 .cfa: sp 32 +
STACK CFI 64c90 .cfa: sp 0 +
STACK CFI INIT 64dc0 24 .cfa: sp 0 +
STACK CFI 64dc4 .cfa: sp 32 +
STACK CFI 64dcc .cfa: x29 32 + x19: .cfa -16 + ^ .ra: .cfa -24 + ^ x29: .cfa -32 + ^
STACK CFI 64dd8 .cfa: sp 32 +
STACK CFI 64de0 .cfa: sp 0 +
STACK CFI INIT 64de4 14 .cfa: sp 0 +
STACK CFI INIT 64df8 24 .cfa: sp 0 +
STACK CFI 64dfc .cfa: sp 32 +
STACK CFI 64e04 .cfa: x29 32 + x19: .cfa -16 + ^ .ra: .cfa -24 + ^ x29: .cfa -32 + ^
STACK CFI 64e10 .cfa: sp 32 +
STACK CFI 64e18 .cfa: sp 0 +
STACK CFI INIT 64e1c 1c4 .cfa: sp 0 +
STACK CFI 64e20 .cfa: sp 80 +
STACK CFI 64e34 .cfa: x29 64 + x19: .cfa -8 + ^ x20: .cfa -16 + ^ x21: .cfa -24 + ^ x22: .cfa -32 + ^ x23: .cfa -40 + ^ x24: .cfa -48 + ^ .ra: .cfa -56 + ^ x29: .cfa -64 + ^
STACK CFI 64fc4 .cfa: sp 80 +
STACK CFI 64fd8 .cfa: sp 0 +
STACK CFI 64fdc .cfa: x29 64 +
STACK CFI INIT 64fe0 24 .cfa: sp 0 +
STACK CFI 64fe4 .cfa: sp 32 +
STACK CFI 64fec .cfa: x29 32 + x19: .cfa -16 + ^ .ra: .cfa -24 + ^ x29: .cfa -32 + ^
STACK CFI 64ff8 .cfa: sp 32 +
STACK CFI 65000 .cfa: sp 0 +
STACK CFI INIT 65004 14 .cfa: sp 0 +
STACK CFI INIT 65018 24 .cfa: sp 0 +
STACK CFI 6501c .cfa: sp 32 +
STACK CFI 65024 .cfa: x29 32 + x19: .cfa -16 + ^ .ra: .cfa -24 + ^ x29: .cfa -32 + ^
STACK CFI 65030 .cfa: sp 32 +
STACK CFI 65038 .cfa: sp 0 +
STACK CFI INIT 6503c 18 .cfa: sp 0 +
STACK CFI INIT 65054 24 .cfa: sp 0 +
STACK CFI 65058 .cfa: sp 32 +
STACK CFI 65060 .cfa: x29 32 + x19: .cfa -16 + ^ .ra: .cfa -24 + ^ x29: .cfa -32 + ^
STACK CFI 6506c .cfa: sp 32 +
STACK CFI 65074 .cfa: sp 0 +
STACK CFI INIT 651b0 24 .cfa: sp 0 +
STACK CFI 651b4 .cfa: sp 32 +
STACK CFI 651bc .cfa: x29 32 + x19: .cfa -16 + ^ .ra: .cfa -24 + ^ x29: .cfa -32 + ^
STACK CFI 651c8 .cfa: sp 32 +
STACK CFI 651d0 .cfa: sp 0 +
STACK CFI INIT 651d4 1c4 .cfa: sp 0 +
STACK CFI 651d8 .cfa: sp 80 +
STACK CFI 651ec .cfa: x29 64 + x19: .cfa -8 + ^ x20: .cfa -16 + ^ x21: .cfa -24 + ^ x22: .cfa -32 + ^ x23: .cfa -40 + ^ x24: .cfa -48 + ^ .ra: .cfa -56 + ^ x29: .cfa -64 + ^
STACK CFI 6537c .cfa: sp 80 +
STACK CFI 65390 .cfa: sp 0 +
STACK CFI 65394 .cfa: x29 64 +
STACK CFI INIT 65398 24 .cfa: sp 0 +
STACK CFI 6539c .cfa: sp 32 +
STACK CFI 653a4 .cfa: x29 32 + x19: .cfa -16 + ^ .ra: .cfa -24 + ^ x29: .cfa -32 + ^
STACK CFI 653b0 .cfa: sp 32 +
STACK CFI 653b8 .cfa: sp 0 +
STACK CFI INIT 653bc 1c4 .cfa: sp 0 +
STACK CFI 653c0 .cfa: sp 80 +
STACK CFI 653d4 .cfa: x29 64 + x19: .cfa -8 + ^ x20: .cfa -16 + ^ x21: .cfa -24 + ^ x22: .cfa -32 + ^ x23: .cfa -40 + ^ x24: .cfa -48 + ^ .ra: .cfa -56 + ^ x29: .cfa -64 + ^
STACK CFI 65564 .cfa: sp 80 +
STACK CFI 65578 .cfa: sp 0 +
STACK CFI 6557c .cfa: x29 64 +
STACK CFI INIT 65580 24 .cfa: sp 0 +
STACK CFI 65584 .cfa: sp 32 +
STACK CFI 6558c .cfa: x29 32 + x19: .cfa -16 + ^ .ra: .cfa -24 + ^ x29: .cfa -32 + ^
STACK CFI 65598 .cfa: sp 32 +
STACK CFI 655a0 .cfa: sp 0 +
STACK CFI INIT 656d0 24 .cfa: sp 0 +
STACK CFI 656d4 .cfa: sp 32 +
STACK CFI 656dc .cfa: x29 32 + x19: .cfa -16 + ^ .ra: .cfa -24 + ^ x29: .cfa -32 + ^
STACK CFI 656e8 .cfa: sp 32 +
STACK CFI 656f0 .cfa: sp 0 +
STACK CFI INIT 656f4 14 .cfa: sp 0 +
STACK CFI INIT 65708 24 .cfa: sp 0 +
STACK CFI 6570c .cfa: sp 32 +
STACK CFI 65714 .cfa: x29 32 + x19: .cfa -16 + ^ .ra: .cfa -24 + ^ x29: .cfa -32 + ^
STACK CFI 65720 .cfa: sp 32 +
STACK CFI 65728 .cfa: sp 0 +
STACK CFI INIT 6572c c .cfa: sp 0 +
STACK CFI INIT 6586c 50 .cfa: sp 0 +
STACK CFI 65870 .cfa: sp 32 +
STACK CFI 65878 .cfa: x29 32 + x19: .cfa -8 + ^ x20: .cfa -16 + ^ .ra: .cfa -24 + ^ x29: .cfa -32 + ^
STACK CFI 658b0 .cfa: sp 32 +
STACK CFI 658b8 .cfa: sp 0 +
STACK CFI INIT 658bc 58 .cfa: sp 0 +
STACK CFI 658c0 .cfa: sp 32 +
STACK CFI 658c8 .cfa: x29 32 + x19: .cfa -8 + ^ x20: .cfa -16 + ^ .ra: .cfa -24 + ^ x29: .cfa -32 + ^
STACK CFI 65908 .cfa: sp 32 +
STACK CFI 65910 .cfa: sp 0 +
STACK CFI INIT 65914 10 .cfa: sp 0 +
STACK CFI INIT 65924 30 .cfa: sp 0 +
STACK CFI 65928 .cfa: sp 32 +
STACK CFI 65930 .cfa: x29 32 + x19: .cfa -16 + ^ .ra: .cfa -24 + ^ x29: .cfa -32 + ^
STACK CFI 65948 .cfa: sp 32 +
STACK CFI 65950 .cfa: sp 0 +
STACK CFI INIT 65954 4 .cfa: sp 0 +
STACK CFI INIT 65958 4 .cfa: sp 0 +
STACK CFI INIT 6595c 24 .cfa: sp 0 +
STACK CFI 65960 .cfa: sp 32 +
STACK CFI 65968 .cfa: x29 32 + x19: .cfa -16 + ^ .ra: .cfa -24 + ^ x29: .cfa -32 + ^
STACK CFI 65974 .cfa: sp 32 +
STACK CFI 6597c .cfa: sp 0 +
STACK CFI INIT 65980 c .cfa: sp 0 +
STACK CFI INIT 6598c 24 .cfa: sp 0 +
STACK CFI 65990 .cfa: sp 32 +
STACK CFI 65998 .cfa: x29 32 + x19: .cfa -16 + ^ .ra: .cfa -24 + ^ x29: .cfa -32 + ^
STACK CFI 659a4 .cfa: sp 32 +
STACK CFI 659ac .cfa: sp 0 +
STACK CFI INIT 659b0 1c4 .cfa: sp 0 +
STACK CFI 659b4 .cfa: sp 80 +
STACK CFI 659c8 .cfa: x29 64 + x19: .cfa -8 + ^ x20: .cfa -16 + ^ x21: .cfa -24 + ^ x22: .cfa -32 + ^ x23: .cfa -40 + ^ x24: .cfa -48 + ^ .ra: .cfa -56 + ^ x29: .cfa -64 + ^
STACK CFI 65b58 .cfa: sp 80 +
STACK CFI 65b6c .cfa: sp 0 +
STACK CFI 65b70 .cfa: x29 64 +
STACK CFI INIT 65cf0 34 .cfa: sp 0 +
STACK CFI 65cf4 .cfa: sp 16 +
STACK CFI 65cf8 .cfa: x29 16 + .ra: .cfa -8 + ^ x29: .cfa -16 + ^
STACK CFI INIT 65d24 84 .cfa: sp 0 +
STACK CFI 65d28 .cfa: sp 48 +
STACK CFI 65d34 .cfa: x29 48 + x19: .cfa -8 + ^ x20: .cfa -16 + ^ x21: .cfa -24 + ^ x22: .cfa -32 + ^ .ra: .cfa -40 + ^ x29: .cfa -48 + ^
STACK CFI 65d90 .cfa: sp 48 +
STACK CFI 65d9c .cfa: sp 0 +
STACK CFI 65da0 .cfa: x29 48 +
STACK CFI INIT 65da8 4 .cfa: sp 0 +
STACK CFI INIT 65dac 14 .cfa: sp 0 +
STACK CFI INIT 65dc0 4 .cfa: sp 0 +
STACK CFI INIT 65dc4 14 .cfa: sp 0 +
STACK CFI INIT 65dd8 4 .cfa: sp 0 +
STACK CFI INIT 65ddc 14 .cfa: sp 0 +
STACK CFI INIT 65df0 44 .cfa: sp 0 +
STACK CFI 65df8 .cfa: sp 32 +
STACK CFI 65e00 .cfa: x29 32 + x19: .cfa -8 + ^ x20: .cfa -16 + ^ .ra: .cfa -24 + ^ x29: .cfa -32 + ^
STACK CFI 65e24 .cfa: sp 32 +
STACK CFI 65e2c .cfa: sp 0 +
STACK CFI INIT 65e34 104 .cfa: sp 0 +
STACK CFI 65e38 .cfa: sp 80 +
STACK CFI 65e4c .cfa: x29 80 + x19: .cfa -8 + ^ x20: .cfa -16 + ^ x21: .cfa -24 + ^ x22: .cfa -32 + ^ x23: .cfa -40 + ^ x24: .cfa -48 + ^ x25: .cfa -56 + ^ x26: .cfa -64 + ^ .ra: .cfa -72 + ^ x29: .cfa -80 + ^
STACK CFI 65f20 .cfa: sp 80 +
STACK CFI 65f34 .cfa: sp 0 +
STACK CFI INIT 660b4 4 .cfa: sp 0 +
STACK CFI INIT 660b8 14 .cfa: sp 0 +
STACK CFI INIT 5e8d8 78 .cfa: sp 0 +
STACK CFI 5e8dc .cfa: sp 32 +
STACK CFI 5e8e4 .cfa: x29 32 + x19: .cfa -16 + ^ .ra: .cfa -24 + ^ x29: .cfa -32 + ^
STACK CFI 5e944 .cfa: sp 32 +
STACK CFI 5e94c .cfa: sp 0 +
STACK CFI INIT 6bf10 8 .cfa: sp 0 +
STACK CFI INIT 6c138 24 .cfa: sp 0 +
STACK CFI 6c13c .cfa: sp 32 +
STACK CFI 6c144 .cfa: x29 32 + x19: .cfa -16 + ^ .ra: .cfa -24 + ^ x29: .cfa -32 + ^
STACK CFI 6c150 .cfa: sp 32 +
STACK CFI 6c158 .cfa: sp 0 +
STACK CFI INIT 6c15c 2c .cfa: sp 0 +
STACK CFI 6c160 .cfa: sp 32 +
STACK CFI 6c168 .cfa: x29 32 + x19: .cfa -16 + ^ .ra: .cfa -24 + ^ x29: .cfa -32 + ^
STACK CFI 6c17c .cfa: sp 32 +
STACK CFI 6c184 .cfa: sp 0 +
STACK CFI INIT 6c188 10 .cfa: sp 0 +
STACK CFI INIT 6c198 28 .cfa: sp 0 +
STACK CFI INIT 6c1c0 4 .cfa: sp 0 +
STACK CFI INIT 6c1c4 8 .cfa: sp 0 +
STACK CFI INIT 6c1cc 8 .cfa: sp 0 +
STACK CFI INIT 6c1d4 28 .cfa: sp 0 +
STACK CFI 6c1d8 .cfa: sp 32 +
STACK CFI 6c1e0 .cfa: x29 32 + x19: .cfa -16 + ^ .ra: .cfa -24 + ^ x29: .cfa -32 + ^
STACK CFI 6c1f0 .cfa: sp 32 +
STACK CFI 6c1f8 .cfa: sp 0 +
STACK CFI INIT 6c1fc 14 .cfa: sp 0 +
STACK CFI INIT 6c210 2c .cfa: sp 0 +
STACK CFI INIT 6c23c 4 .cfa: sp 0 +
STACK CFI INIT 6c240 4 .cfa: sp 0 +
STACK CFI INIT 6c244 4 .cfa: sp 0 +
STACK CFI INIT 6c248 4 .cfa: sp 0 +
STACK CFI INIT 6c24c 4 .cfa: sp 0 +
STACK CFI INIT 6c250 8 .cfa: sp 0 +
STACK CFI INIT 6c258 4 .cfa: sp 0 +
STACK CFI INIT 6c25c 8 .cfa: sp 0 +
STACK CFI INIT 6c264 8 .cfa: sp 0 +
STACK CFI INIT 6c26c 8 .cfa: sp 0 +
STACK CFI INIT 6c274 a4 .cfa: sp 0 +
STACK CFI 6c278 .cfa: sp 64 +
STACK CFI 6c288 .cfa: x29 48 + x19: .cfa -8 + ^ x20: .cfa -16 + ^ x21: .cfa -24 + ^ x22: .cfa -32 + ^ .ra: .cfa -40 + ^ x29: .cfa -48 + ^
STACK CFI 6c300 .cfa: sp 64 +
STACK CFI 6c310 .cfa: sp 0 +
STACK CFI 6c314 .cfa: x29 48 +
STACK CFI INIT 6c318 4 .cfa: sp 0 +
STACK CFI INIT 6c31c 8 .cfa: sp 0 +
STACK CFI INIT 6c324 34 .cfa: sp 0 +
STACK CFI 6c328 .cfa: sp 16 +
STACK CFI 6c32c .cfa: x29 16 + .ra: .cfa -8 + ^ x29: .cfa -16 + ^
STACK CFI INIT 6c358 24 .cfa: sp 0 +
STACK CFI 6c35c .cfa: sp 32 +
STACK CFI 6c364 .cfa: x29 32 + x19: .cfa -16 + ^ .ra: .cfa -24 + ^ x29: .cfa -32 + ^
STACK CFI 6c370 .cfa: sp 32 +
STACK CFI 6c378 .cfa: sp 0 +
STACK CFI INIT 6c5b8 24 .cfa: sp 0 +
STACK CFI 6c5bc .cfa: sp 32 +
STACK CFI 6c5c4 .cfa: x29 32 + x19: .cfa -16 + ^ .ra: .cfa -24 + ^ x29: .cfa -32 + ^
STACK CFI 6c5d0 .cfa: sp 32 +
STACK CFI 6c5d8 .cfa: sp 0 +
STACK CFI INIT 6c5dc 8 .cfa: sp 0 +
STACK CFI INIT 6c5e4 28 .cfa: sp 0 +
STACK CFI 6c5e8 .cfa: sp 32 +
STACK CFI 6c5f0 .cfa: x29 32 + x19: .cfa -16 + ^ .ra: .cfa -24 + ^ x29: .cfa -32 + ^
STACK CFI 6c600 .cfa: sp 32 +
STACK CFI 6c608 .cfa: sp 0 +
STACK CFI INIT 6c60c 7c .cfa: sp 0 +
STACK CFI 6c610 .cfa: sp 32 +
STACK CFI 6c618 .cfa: x29 32 + x19: .cfa -16 + ^ .ra: .cfa -24 + ^ x29: .cfa -32 + ^
STACK CFI 6c67c .cfa: sp 32 +
STACK CFI 6c684 .cfa: sp 0 +
STACK CFI INIT 6c688 84 .cfa: sp 0 +
STACK CFI 6c68c .cfa: sp 32 +
STACK CFI 6c694 .cfa: x29 32 + x19: .cfa -16 + ^ .ra: .cfa -24 + ^ x29: .cfa -32 + ^
STACK CFI 6c700 .cfa: sp 32 +
STACK CFI 6c708 .cfa: sp 0 +
STACK CFI INIT 6c86c 1b8 .cfa: sp 0 +
STACK CFI 6c870 .cfa: sp 80 +
STACK CFI 6c888 .cfa: x29 72 + x19: .cfa -8 + ^ x20: .cfa -16 + ^ x21: .cfa -24 + ^ x22: .cfa -32 + ^ x23: .cfa -40 + ^ x24: .cfa -48 + ^ x25: .cfa -56 + ^ .ra: .cfa -64 + ^ x29: .cfa -72 + ^ v8: .cfa -80 + ^
STACK CFI 6c9fc .cfa: sp 80 +
STACK CFI 6ca14 .cfa: sp 0 +
STACK CFI 6ca18 .cfa: x29 72 +
STACK CFI INIT 6ca24 80 .cfa: sp 0 +
STACK CFI 6ca28 .cfa: sp 32 +
STACK CFI 6ca30 .cfa: x29 32 + x19: .cfa -8 + ^ x20: .cfa -16 + ^ .ra: .cfa -24 + ^ x29: .cfa -32 + ^
STACK CFI 6ca98 .cfa: sp 32 +
STACK CFI 6caa0 .cfa: sp 0 +
STACK CFI INIT 6caa4 88 .cfa: sp 0 +
STACK CFI 6caa8 .cfa: sp 32 +
STACK CFI 6cab0 .cfa: x29 32 + x19: .cfa -8 + ^ x20: .cfa -16 + ^ .ra: .cfa -24 + ^ x29: .cfa -32 + ^
STACK CFI 6cb20 .cfa: sp 32 +
STACK CFI 6cb28 .cfa: sp 0 +
STACK CFI INIT 6cb4c 14 .cfa: sp 0 +
STACK CFI 6cb50 .cfa: sp 16 +
STACK CFI 6cb54 .cfa: x29 16 + .ra: .cfa -8 + ^ x29: .cfa -16 + ^
STACK CFI INIT 6cb60 14 .cfa: sp 0 +
STACK CFI 6cb64 .cfa: sp 16 +
STACK CFI 6cb68 .cfa: x29 16 + .ra: .cfa -8 + ^ x29: .cfa -16 + ^
STACK CFI INIT 6cb74 24 .cfa: sp 0 +
STACK CFI 6cb78 .cfa: sp 32 +
STACK CFI 6cb80 .cfa: x29 32 + x19: .cfa -16 + ^ .ra: .cfa -24 + ^ x29: .cfa -32 + ^
STACK CFI 6cb8c .cfa: sp 32 +
STACK CFI 6cb94 .cfa: sp 0 +
STACK CFI INIT 6cb98 8 .cfa: sp 0 +
STACK CFI INIT 6cba0 28 .cfa: sp 0 +
STACK CFI 6cba4 .cfa: sp 32 +
STACK CFI 6cbac .cfa: x29 32 + x19: .cfa -16 + ^ .ra: .cfa -24 + ^ x29: .cfa -32 + ^
STACK CFI 6cbbc .cfa: sp 32 +
STACK CFI 6cbc4 .cfa: sp 0 +
STACK CFI INIT 6cbc8 24 .cfa: sp 0 +
STACK CFI 6cbcc .cfa: sp 32 +
STACK CFI 6cbd4 .cfa: x29 32 + x19: .cfa -16 + ^ .ra: .cfa -24 + ^ x29: .cfa -32 + ^
STACK CFI 6cbe0 .cfa: sp 32 +
STACK CFI 6cbe8 .cfa: sp 0 +
STACK CFI INIT 6cbec 8 .cfa: sp 0 +
STACK CFI INIT 6cbf4 28 .cfa: sp 0 +
STACK CFI 6cbf8 .cfa: sp 32 +
STACK CFI 6cc00 .cfa: x29 32 + x19: .cfa -16 + ^ .ra: .cfa -24 + ^ x29: .cfa -32 + ^
STACK CFI 6cc10 .cfa: sp 32 +
STACK CFI 6cc18 .cfa: sp 0 +
STACK CFI INIT 6cc1c 5c .cfa: sp 0 +
STACK CFI 6cc20 .cfa: sp 32 +
STACK CFI 6cc28 .cfa: x29 32 + x19: .cfa -16 + ^ .ra: .cfa -24 + ^ x29: .cfa -32 + ^
STACK CFI 6cc6c .cfa: sp 32 +
STACK CFI 6cc74 .cfa: sp 0 +
STACK CFI INIT 6cc78 5c .cfa: sp 0 +
STACK CFI 6cc7c .cfa: sp 32 +
STACK CFI 6cc84 .cfa: x29 32 + x19: .cfa -16 + ^ .ra: .cfa -24 + ^ x29: .cfa -32 + ^
STACK CFI 6ccc8 .cfa: sp 32 +
STACK CFI 6ccd0 .cfa: sp 0 +
STACK CFI INIT 6ccd4 5c .cfa: sp 0 +
STACK CFI 6ccd8 .cfa: sp 32 +
STACK CFI 6cce0 .cfa: x29 32 + x19: .cfa -16 + ^ .ra: .cfa -24 + ^ x29: .cfa -32 + ^
STACK CFI 6cd24 .cfa: sp 32 +
STACK CFI 6cd2c .cfa: sp 0 +
STACK CFI INIT 6cd30 5c .cfa: sp 0 +
STACK CFI 6cd34 .cfa: sp 32 +
STACK CFI 6cd3c .cfa: x29 32 + x19: .cfa -16 + ^ .ra: .cfa -24 + ^ x29: .cfa -32 + ^
STACK CFI 6cd80 .cfa: sp 32 +
STACK CFI 6cd88 .cfa: sp 0 +
STACK CFI INIT 6cd8c 4 .cfa: sp 0 +
STACK CFI INIT 6cf30 64 .cfa: sp 0 +
STACK CFI 6cf34 .cfa: sp 32 +
STACK CFI 6cf3c .cfa: x29 32 + x19: .cfa -16 + ^ .ra: .cfa -24 + ^ x29: .cfa -32 + ^
STACK CFI 6cf88 .cfa: sp 32 +
STACK CFI 6cf90 .cfa: sp 0 +
STACK CFI INIT 6cf94 e4 .cfa: sp 0 +
STACK CFI 6cf98 .cfa: sp 64 +
STACK CFI 6cfa8 .cfa: x29 64 + x19: .cfa -8 + ^ x20: .cfa -16 + ^ x21: .cfa -24 + ^ x22: .cfa -32 + ^ x23: .cfa -48 + ^ .ra: .cfa -56 + ^ x29: .cfa -64 + ^
STACK CFI 6d020 .cfa: sp 64 +
STACK CFI 6d030 .cfa: sp 0 +
STACK CFI 6d034 .cfa: x29 64 +
STACK CFI INIT 6d078 4 .cfa: sp 0 +
STACK CFI INIT 6d21c 64 .cfa: sp 0 +
STACK CFI 6d220 .cfa: sp 32 +
STACK CFI 6d228 .cfa: x29 32 + x19: .cfa -16 + ^ .ra: .cfa -24 + ^ x29: .cfa -32 + ^
STACK CFI 6d274 .cfa: sp 32 +
STACK CFI 6d27c .cfa: sp 0 +
STACK CFI INIT 6d280 4 .cfa: sp 0 +
STACK CFI INIT 6d424 64 .cfa: sp 0 +
STACK CFI 6d428 .cfa: sp 32 +
STACK CFI 6d430 .cfa: x29 32 + x19: .cfa -16 + ^ .ra: .cfa -24 + ^ x29: .cfa -32 + ^
STACK CFI 6d47c .cfa: sp 32 +
STACK CFI 6d484 .cfa: sp 0 +
STACK CFI INIT 6d488 4 .cfa: sp 0 +
STACK CFI INIT 6d62c 64 .cfa: sp 0 +
STACK CFI 6d630 .cfa: sp 32 +
STACK CFI 6d638 .cfa: x29 32 + x19: .cfa -16 + ^ .ra: .cfa -24 + ^ x29: .cfa -32 + ^
STACK CFI 6d684 .cfa: sp 32 +
STACK CFI 6d68c .cfa: sp 0 +
STACK CFI INIT 6d6fc 4 .cfa: sp 0 +
STACK CFI INIT 6d76c 4 .cfa: sp 0 +
STACK CFI INIT 6d770 1c .cfa: sp 0 +
STACK CFI 6d774 .cfa: sp 16 +
STACK CFI 6d778 .cfa: x29 16 + .ra: .cfa -8 + ^ x29: .cfa -16 + ^
STACK CFI 6d784 .cfa: sp 16 +
STACK CFI 6d788 .cfa: sp 0 +
STACK CFI INIT 6d790 30 .cfa: sp 0 +
STACK CFI INIT 6d7c0 104 .cfa: sp 0 +
STACK CFI 6d7c4 .cfa: sp 16 +
STACK CFI 6d7c8 .cfa: x29 16 + .ra: .cfa -8 + ^ x29: .cfa -16 + ^
STACK CFI 6d8ac .cfa: sp 16 +
STACK CFI 6d8b0 .cfa: sp 0 +
STACK CFI 6d8b4 .cfa: x29 16 +
STACK CFI 6d8bc .cfa: sp 16 +
STACK CFI 6d8c0 .cfa: sp 0 +
STACK CFI INIT 6d8c4 104 .cfa: sp 0 +
STACK CFI 6d8c8 .cfa: sp 16 +
STACK CFI 6d8cc .cfa: x29 16 + .ra: .cfa -8 + ^ x29: .cfa -16 + ^
STACK CFI 6d9b0 .cfa: sp 16 +
STACK CFI 6d9b4 .cfa: sp 0 +
STACK CFI 6d9b8 .cfa: x29 16 +
STACK CFI 6d9c0 .cfa: sp 16 +
STACK CFI 6d9c4 .cfa: sp 0 +
STACK CFI INIT 6ebe8 170 .cfa: sp 0 +
STACK CFI 6ebec .cfa: sp 96 +
STACK CFI 6ec04 .cfa: x29 56 + x19: .cfa -8 + ^ x20: .cfa -16 + ^ x21: .cfa -24 + ^ x22: .cfa -32 + ^ x23: .cfa -40 + ^ .ra: .cfa -48 + ^ x29: .cfa -56 + ^ v8: .cfa -64 + ^
STACK CFI 6ed38 .cfa: sp 96 +
STACK CFI 6ed50 .cfa: sp 0 +
STACK CFI 6ed54 .cfa: x29 56 +
STACK CFI INIT 6f674 50 .cfa: sp 0 +
STACK CFI 6f678 .cfa: sp 32 +
STACK CFI 6f680 .cfa: x29 32 + x19: .cfa -8 + ^ x20: .cfa -16 + ^ .ra: .cfa -24 + ^ x29: .cfa -32 + ^
STACK CFI 6f6b8 .cfa: sp 32 +
STACK CFI 6f6c0 .cfa: sp 0 +
STACK CFI INIT 6f838 284 .cfa: sp 0 +
STACK CFI 6f83c .cfa: sp 128 +
STACK CFI 6f858 .cfa: x29 80 + x19: .cfa -8 + ^ x20: .cfa -16 + ^ x21: .cfa -24 + ^ x22: .cfa -32 + ^ x23: .cfa -40 + ^ x24: .cfa -48 + ^ x25: .cfa -56 + ^ x26: .cfa -64 + ^ .ra: .cfa -72 + ^ x29: .cfa -80 + ^ v8: .cfa -96 + ^
STACK CFI 6fa98 .cfa: sp 128 +
STACK CFI 6fab4 .cfa: sp 0 +
STACK CFI 6fab8 .cfa: x29 80 +
STACK CFI INIT 6fabc 140 .cfa: sp 0 +
STACK CFI 6fac0 .cfa: sp 96 +
STACK CFI 6fad8 .cfa: x29 80 + x19: .cfa -8 + ^ x20: .cfa -16 + ^ x21: .cfa -24 + ^ x22: .cfa -32 + ^ x23: .cfa -40 + ^ x24: .cfa -48 + ^ x25: .cfa -64 + ^ .ra: .cfa -72 + ^ x29: .cfa -80 + ^
STACK CFI 6fbdc .cfa: sp 96 +
STACK CFI 6fbf4 .cfa: sp 0 +
STACK CFI 6fbf8 .cfa: x29 80 +
STACK CFI INIT 70c54 44c .cfa: sp 0 +
STACK CFI 70c58 .cfa: sp 112 +
STACK CFI 70c74 .cfa: x29 96 + x19: .cfa -8 + ^ x20: .cfa -16 + ^ x21: .cfa -24 + ^ x22: .cfa -32 + ^ x23: .cfa -40 + ^ x24: .cfa -48 + ^ x25: .cfa -56 + ^ x26: .cfa -64 + ^ x27: .cfa -72 + ^ x28: .cfa -80 + ^ .ra: .cfa -88 + ^ x29: .cfa -96 + ^
STACK CFI 7107c .cfa: sp 112 +
STACK CFI 71098 .cfa: sp 0 +
STACK CFI 7109c .cfa: x29 96 +
STACK CFI INIT 710a0 154 .cfa: sp 0 +
STACK CFI 710a4 .cfa: sp 64 +
STACK CFI 710b4 .cfa: x29 64 + x19: .cfa -8 + ^ x20: .cfa -16 + ^ x21: .cfa -24 + ^ x22: .cfa -32 + ^ x23: .cfa -48 + ^ .ra: .cfa -56 + ^ x29: .cfa -64 + ^
STACK CFI 711e0 .cfa: sp 64 +
STACK CFI 711f0 .cfa: sp 0 +
STACK CFI INIT 711f4 1c .cfa: sp 0 +
STACK CFI INIT 71ae8 24 .cfa: sp 0 +
STACK CFI 71aec .cfa: sp 32 +
STACK CFI 71af4 .cfa: x29 32 + x19: .cfa -16 + ^ .ra: .cfa -24 + ^ x29: .cfa -32 + ^
STACK CFI 71b00 .cfa: sp 32 +
STACK CFI 71b08 .cfa: sp 0 +
STACK CFI INIT 71dd4 50 .cfa: sp 0 +
STACK CFI 71dd8 .cfa: sp 32 +
STACK CFI 71de0 .cfa: x29 32 + x19: .cfa -16 + ^ .ra: .cfa -24 + ^ x29: .cfa -32 + ^
STACK CFI 71df8 .cfa: sp 32 +
STACK CFI 71e00 .cfa: sp 0 +
STACK CFI 71e04 .cfa: x29 32 +
STACK CFI 71e18 .cfa: sp 32 +
STACK CFI 71e20 .cfa: sp 0 +
STACK CFI INIT 71f64 24 .cfa: sp 0 +
STACK CFI 71f68 .cfa: sp 32 +
STACK CFI 71f70 .cfa: x29 32 + x19: .cfa -16 + ^ .ra: .cfa -24 + ^ x29: .cfa -32 + ^
STACK CFI 71f7c .cfa: sp 32 +
STACK CFI 71f84 .cfa: sp 0 +
STACK CFI INIT 71f88 18 .cfa: sp 0 +
STACK CFI INIT 71fa0 24 .cfa: sp 0 +
STACK CFI 71fa4 .cfa: sp 32 +
STACK CFI 71fac .cfa: x29 32 + x19: .cfa -16 + ^ .ra: .cfa -24 + ^ x29: .cfa -32 + ^
STACK CFI 71fb8 .cfa: sp 32 +
STACK CFI 71fc0 .cfa: sp 0 +
STACK CFI INIT 71fc4 14 .cfa: sp 0 +
STACK CFI INIT 72458 270 .cfa: sp 0 +
STACK CFI 7245c .cfa: sp 112 +
STACK CFI 72478 .cfa: x29 96 + x19: .cfa -8 + ^ x20: .cfa -16 + ^ x21: .cfa -24 + ^ x22: .cfa -32 + ^ x23: .cfa -40 + ^ x24: .cfa -48 + ^ x25: .cfa -56 + ^ x26: .cfa -64 + ^ x27: .cfa -72 + ^ x28: .cfa -80 + ^ .ra: .cfa -88 + ^ x29: .cfa -96 + ^
STACK CFI 726a8 .cfa: sp 112 +
STACK CFI 726c4 .cfa: sp 0 +
STACK CFI INIT 726c8 180 .cfa: sp 0 +
STACK CFI 726cc .cfa: sp 64 +
STACK CFI 726dc .cfa: x29 64 + x19: .cfa -8 + ^ x20: .cfa -16 + ^ x21: .cfa -24 + ^ x22: .cfa -32 + ^ x23: .cfa -48 + ^ .ra: .cfa -56 + ^ x29: .cfa -64 + ^
STACK CFI 72830 .cfa: sp 64 +
STACK CFI 72840 .cfa: sp 0 +
STACK CFI 72844 .cfa: x29 64 +
STACK CFI INIT 72848 174 .cfa: sp 0 +
STACK CFI 7284c .cfa: sp 96 +
STACK CFI 72864 .cfa: x29 96 + x19: .cfa -8 + ^ x20: .cfa -16 + ^ x21: .cfa -24 + ^ x22: .cfa -32 + ^ x23: .cfa -40 + ^ x24: .cfa -48 + ^ x25: .cfa -56 + ^ x26: .cfa -64 + ^ x27: .cfa -80 + ^ .ra: .cfa -88 + ^ x29: .cfa -96 + ^
STACK CFI 7299c .cfa: sp 96 +
STACK CFI 729b4 .cfa: sp 0 +
STACK CFI 729b8 .cfa: x29 96 +
STACK CFI INIT 729bc 1b4 .cfa: sp 0 +
STACK CFI 729c0 .cfa: sp 96 +
STACK CFI 729d8 .cfa: x29 96 + x19: .cfa -8 + ^ x20: .cfa -16 + ^ x21: .cfa -24 + ^ x22: .cfa -32 + ^ x23: .cfa -40 + ^ x24: .cfa -48 + ^ x25: .cfa -56 + ^ x26: .cfa -64 + ^ x27: .cfa -72 + ^ x28: .cfa -80 + ^ .ra: .cfa -88 + ^ x29: .cfa -96 + ^
STACK CFI 72b54 .cfa: sp 96 +
STACK CFI 72b6c .cfa: sp 0 +
STACK CFI INIT 72b70 1b4 .cfa: sp 0 +
STACK CFI 72b74 .cfa: sp 96 +
STACK CFI 72b8c .cfa: x29 96 + x19: .cfa -8 + ^ x20: .cfa -16 + ^ x21: .cfa -24 + ^ x22: .cfa -32 + ^ x23: .cfa -40 + ^ x24: .cfa -48 + ^ x25: .cfa -56 + ^ x26: .cfa -64 + ^ x27: .cfa -72 + ^ x28: .cfa -80 + ^ .ra: .cfa -88 + ^ x29: .cfa -96 + ^
STACK CFI 72d08 .cfa: sp 96 +
STACK CFI 72d20 .cfa: sp 0 +
STACK CFI INIT 72d70 4 .cfa: sp 0 +
STACK CFI INIT 72d74 c .cfa: sp 0 +
STACK CFI INIT 72d80 4 .cfa: sp 0 +
STACK CFI INIT 72d84 4 .cfa: sp 0 +
STACK CFI INIT 72d88 24 .cfa: sp 0 +
STACK CFI 72d8c .cfa: sp 32 +
STACK CFI 72d94 .cfa: x29 32 + x19: .cfa -16 + ^ .ra: .cfa -24 + ^ x29: .cfa -32 + ^
STACK CFI 72da0 .cfa: sp 32 +
STACK CFI 72da8 .cfa: sp 0 +
STACK CFI INIT 72dac 18 .cfa: sp 0 +
STACK CFI INIT 72dc4 1c .cfa: sp 0 +
STACK CFI INIT 72de0 4 .cfa: sp 0 +
STACK CFI INIT 72de4 48 .cfa: sp 0 +
STACK CFI 72e00 .cfa: sp 32 +
STACK CFI 72e08 .cfa: x29 32 + x19: .cfa -16 + ^ .ra: .cfa -24 + ^ x29: .cfa -32 + ^
STACK CFI 72e20 .cfa: sp 32 +
STACK CFI 72e28 .cfa: sp 0 +
STACK CFI INIT 72e2c 14 .cfa: sp 0 +
STACK CFI INIT 72e40 48 .cfa: sp 0 +
STACK CFI 72e5c .cfa: sp 32 +
STACK CFI 72e64 .cfa: x29 32 + x19: .cfa -16 + ^ .ra: .cfa -24 + ^ x29: .cfa -32 + ^
STACK CFI 72e7c .cfa: sp 32 +
STACK CFI 72e84 .cfa: sp 0 +
STACK CFI INIT 731ec 2b8 .cfa: sp 0 +
STACK CFI 731f0 .cfa: sp 64 +
STACK CFI 73200 .cfa: x29 64 + x19: .cfa -8 + ^ x20: .cfa -16 + ^ x21: .cfa -24 + ^ x22: .cfa -32 + ^ x23: .cfa -48 + ^ .ra: .cfa -56 + ^ x29: .cfa -64 + ^
STACK CFI 7327c .cfa: sp 64 +
STACK CFI 7328c .cfa: sp 0 +
STACK CFI 73290 .cfa: x29 64 +
STACK CFI 733d0 .cfa: sp 64 +
STACK CFI 733e0 .cfa: sp 0 +
STACK CFI 733e4 .cfa: x29 64 +
STACK CFI 73470 .cfa: sp 64 +
STACK CFI 73480 .cfa: sp 0 +
STACK CFI 73484 .cfa: x29 64 +
STACK CFI INIT 734a4 360 .cfa: sp 0 +
STACK CFI 734a8 .cfa: sp 32 +
STACK CFI 734b0 .cfa: x29 32 + x19: .cfa -16 + ^ .ra: .cfa -24 + ^ x29: .cfa -32 + ^
STACK CFI 737f0 .cfa: sp 32 +
STACK CFI 737f8 .cfa: sp 0 +
STACK CFI 737fc .cfa: x29 32 +
STACK CFI INIT 73870 b4 .cfa: sp 0 +
STACK CFI 73874 .cfa: sp 64 +
STACK CFI 73884 .cfa: x29 64 + x19: .cfa -8 + ^ x20: .cfa -16 + ^ x21: .cfa -24 + ^ x22: .cfa -32 + ^ x23: .cfa -48 + ^ .ra: .cfa -56 + ^ x29: .cfa -64 + ^
STACK CFI 73910 .cfa: sp 64 +
STACK CFI 73920 .cfa: sp 0 +
STACK CFI INIT 73970 48 .cfa: sp 0 +
STACK CFI 7398c .cfa: sp 32 +
STACK CFI 73994 .cfa: x29 32 + x19: .cfa -16 + ^ .ra: .cfa -24 + ^ x29: .cfa -32 + ^
STACK CFI 739ac .cfa: sp 32 +
STACK CFI 739b4 .cfa: sp 0 +
STACK CFI INIT 739b8 60 .cfa: sp 0 +
STACK CFI INIT 73a18 48 .cfa: sp 0 +
STACK CFI 73a34 .cfa: sp 32 +
STACK CFI 73a3c .cfa: x29 32 + x19: .cfa -16 + ^ .ra: .cfa -24 + ^ x29: .cfa -32 + ^
STACK CFI 73a54 .cfa: sp 32 +
STACK CFI 73a5c .cfa: sp 0 +
STACK CFI INIT 73a60 50 .cfa: sp 0 +
STACK CFI INIT 73ab0 5c .cfa: sp 0 +
STACK CFI 73ab4 .cfa: sp 32 +
STACK CFI 73abc .cfa: x29 32 + x19: .cfa -16 + ^ .ra: .cfa -24 + ^ x29: .cfa -32 + ^
STACK CFI 73af4 .cfa: sp 32 +
STACK CFI 73afc .cfa: sp 0 +
STACK CFI 73b00 .cfa: sp 32 +
STACK CFI 73b08 .cfa: sp 0 +
STACK CFI INIT 73b0c 58 .cfa: sp 0 +
STACK CFI 73b10 .cfa: sp 32 +
STACK CFI 73b18 .cfa: x29 32 + x19: .cfa -16 + ^ .ra: .cfa -24 + ^ x29: .cfa -32 + ^
STACK CFI 73b58 .cfa: sp 32 +
STACK CFI 73b60 .cfa: sp 0 +
STACK CFI INIT 73b64 110 .cfa: sp 0 +
STACK CFI INIT 73c74 90 .cfa: sp 0 +
STACK CFI 73c78 .cfa: sp 32 +
STACK CFI 73c80 .cfa: x29 32 + x19: .cfa -8 + ^ x20: .cfa -16 + ^ .ra: .cfa -24 + ^ x29: .cfa -32 + ^
STACK CFI 73cec .cfa: sp 32 +
STACK CFI 73cf4 .cfa: sp 0 +
STACK CFI 73cf8 .cfa: sp 32 +
STACK CFI 73d00 .cfa: sp 0 +
STACK CFI INIT 73d04 8c .cfa: sp 0 +
STACK CFI 73d08 .cfa: sp 32 +
STACK CFI 73d10 .cfa: x29 32 + x19: .cfa -8 + ^ x20: .cfa -16 + ^ .ra: .cfa -24 + ^ x29: .cfa -32 + ^
STACK CFI 73d84 .cfa: sp 32 +
STACK CFI 73d8c .cfa: sp 0 +
STACK CFI INIT 743bc 1c8 .cfa: sp 0 +
STACK CFI 743c0 .cfa: sp 48 +
STACK CFI 743cc .cfa: x29 48 + x19: .cfa -8 + ^ x20: .cfa -16 + ^ x21: .cfa -24 + ^ x22: .cfa -32 + ^ .ra: .cfa -40 + ^ x29: .cfa -48 + ^
STACK CFI 7456c .cfa: sp 48 +
STACK CFI 74578 .cfa: sp 0 +
STACK CFI 7457c .cfa: x29 48 +
STACK CFI INIT 74584 14 .cfa: sp 0 +
STACK CFI 74588 .cfa: sp 16 +
STACK CFI 7458c .cfa: x29 16 + .ra: .cfa -8 + ^ x29: .cfa -16 + ^
STACK CFI INIT 74598 44 .cfa: sp 0 +
STACK CFI 7459c .cfa: sp 32 +
STACK CFI 745a4 .cfa: x29 32 + x19: .cfa -16 + ^ .ra: .cfa -24 + ^ x29: .cfa -32 + ^
STACK CFI 745c4 .cfa: sp 32 +
STACK CFI 745cc .cfa: sp 0 +
STACK CFI 745d0 .cfa: sp 32 +
STACK CFI 745d8 .cfa: sp 0 +
STACK CFI INIT 747ec 88 .cfa: sp 0 +
STACK CFI 747f0 .cfa: sp 48 +
STACK CFI 747fc .cfa: x29 48 + x19: .cfa -8 + ^ x20: .cfa -16 + ^ x21: .cfa -32 + ^ .ra: .cfa -40 + ^ x29: .cfa -48 + ^
STACK CFI 74854 .cfa: sp 48 +
STACK CFI 74860 .cfa: sp 0 +
STACK CFI 74864 .cfa: sp 48 +
STACK CFI 74870 .cfa: sp 0 +
STACK CFI INIT 74a58 124 .cfa: sp 0 +
STACK CFI 74a5c .cfa: sp 64 +
STACK CFI 74a6c .cfa: x29 64 + x19: .cfa -8 + ^ x20: .cfa -16 + ^ x21: .cfa -24 + ^ x22: .cfa -32 + ^ x23: .cfa -48 + ^ .ra: .cfa -56 + ^ x29: .cfa -64 + ^
STACK CFI 74b68 .cfa: sp 64 +
STACK CFI 74b78 .cfa: sp 0 +
STACK CFI INIT 74b7c 7c .cfa: sp 0 +
STACK CFI 74b80 .cfa: sp 48 +
STACK CFI 74b8c .cfa: x29 48 + x19: .cfa -8 + ^ x20: .cfa -16 + ^ x21: .cfa -32 + ^ .ra: .cfa -40 + ^ x29: .cfa -48 + ^
STACK CFI 74bd8 .cfa: sp 48 +
STACK CFI 74be4 .cfa: sp 0 +
STACK CFI 74be8 .cfa: sp 48 +
STACK CFI 74bf4 .cfa: sp 0 +
STACK CFI INIT 74bf8 14 .cfa: sp 0 +
STACK CFI 74bfc .cfa: sp 16 +
STACK CFI 74c00 .cfa: x29 16 + .ra: .cfa -8 + ^ x29: .cfa -16 + ^
STACK CFI INIT 74c0c 18c .cfa: sp 0 +
STACK CFI 74c10 .cfa: sp 64 +
STACK CFI 74c20 .cfa: x29 64 + x19: .cfa -8 + ^ x20: .cfa -16 + ^ x21: .cfa -24 + ^ x22: .cfa -32 + ^ x23: .cfa -40 + ^ x24: .cfa -48 + ^ .ra: .cfa -56 + ^ x29: .cfa -64 + ^
STACK CFI 74d64 .cfa: sp 64 +
STACK CFI 74d74 .cfa: sp 0 +
STACK CFI 74d78 .cfa: sp 64 +
STACK CFI 74d88 .cfa: sp 0 +
STACK CFI 74d8c .cfa: x29 64 +
STACK CFI INIT 74d98 12c .cfa: sp 0 +
STACK CFI 74d9c .cfa: sp 80 +
STACK CFI 74db0 .cfa: x29 80 + x19: .cfa -8 + ^ x20: .cfa -16 + ^ x21: .cfa -24 + ^ x22: .cfa -32 + ^ x23: .cfa -40 + ^ x24: .cfa -48 + ^ x25: .cfa -64 + ^ .ra: .cfa -72 + ^ x29: .cfa -80 + ^
STACK CFI 74e88 .cfa: sp 80 +
STACK CFI 74e9c .cfa: sp 0 +
STACK CFI 74ea0 .cfa: sp 80 +
STACK CFI 74eb4 .cfa: sp 0 +
STACK CFI 74eb8 .cfa: x29 80 +
STACK CFI INIT 74ec4 14 .cfa: sp 0 +
STACK CFI 74ec8 .cfa: sp 16 +
STACK CFI 74ecc .cfa: x29 16 + .ra: .cfa -8 + ^ x29: .cfa -16 + ^
STACK CFI INIT 75078 68 .cfa: sp 0 +
STACK CFI 7507c .cfa: sp 32 +
STACK CFI 75084 .cfa: x29 32 + x19: .cfa -16 + ^ .ra: .cfa -24 + ^ x29: .cfa -32 + ^
STACK CFI 750d4 .cfa: sp 32 +
STACK CFI 750dc .cfa: sp 0 +
STACK CFI INIT 750e0 48 .cfa: sp 0 +
STACK CFI 750fc .cfa: sp 32 +
STACK CFI 75104 .cfa: x29 32 + x19: .cfa -16 + ^ .ra: .cfa -24 + ^ x29: .cfa -32 + ^
STACK CFI 7511c .cfa: sp 32 +
STACK CFI 75124 .cfa: sp 0 +
STACK CFI INIT 75174 c8 .cfa: sp 0 +
STACK CFI 75178 .cfa: sp 32 +
STACK CFI 75180 .cfa: x29 32 + x19: .cfa -16 + ^ .ra: .cfa -24 + ^ x29: .cfa -32 + ^
STACK CFI 7522c .cfa: sp 32 +
STACK CFI 75234 .cfa: sp 0 +
STACK CFI 75238 .cfa: x29 32 +
STACK CFI INIT 75440 468 .cfa: sp 0 +
STACK CFI 75444 .cfa: sp 32 +
STACK CFI 7544c .cfa: x29 32 + x19: .cfa -16 + ^ .ra: .cfa -24 + ^ x29: .cfa -32 + ^
STACK CFI 75880 .cfa: sp 32 +
STACK CFI 75888 .cfa: sp 0 +
STACK CFI 7588c .cfa: x29 32 +
STACK CFI INIT 75a34 c8 .cfa: sp 0 +
STACK CFI 75a38 .cfa: sp 48 +
STACK CFI 75a44 .cfa: x29 48 + x19: .cfa -8 + ^ x20: .cfa -16 + ^ x21: .cfa -32 + ^ .ra: .cfa -40 + ^ x29: .cfa -48 + ^
STACK CFI 75aec .cfa: sp 48 +
STACK CFI 75af8 .cfa: sp 0 +
STACK CFI INIT 75afc 5c .cfa: sp 0 +
STACK CFI 75b00 .cfa: sp 32 +
STACK CFI 75b08 .cfa: x29 32 + x19: .cfa -16 + ^ .ra: .cfa -24 + ^ x29: .cfa -32 + ^
STACK CFI 75b40 .cfa: sp 32 +
STACK CFI 75b48 .cfa: sp 0 +
STACK CFI 75b4c .cfa: sp 32 +
STACK CFI 75b54 .cfa: sp 0 +
STACK CFI INIT 75b58 58 .cfa: sp 0 +
STACK CFI 75b5c .cfa: sp 32 +
STACK CFI 75b64 .cfa: x29 32 + x19: .cfa -16 + ^ .ra: .cfa -24 + ^ x29: .cfa -32 + ^
STACK CFI 75ba4 .cfa: sp 32 +
STACK CFI 75bac .cfa: sp 0 +
STACK CFI INIT 75bb0 78 .cfa: sp 0 +
STACK CFI 75bb4 .cfa: sp 32 +
STACK CFI 75bbc .cfa: x29 32 + x19: .cfa -8 + ^ x20: .cfa -16 + ^ .ra: .cfa -24 + ^ x29: .cfa -32 + ^
STACK CFI 75c1c .cfa: sp 32 +
STACK CFI 75c24 .cfa: sp 0 +
STACK CFI INIT 75c28 5c .cfa: sp 0 +
STACK CFI 75c2c .cfa: sp 32 +
STACK CFI 75c34 .cfa: x29 32 + x19: .cfa -16 + ^ .ra: .cfa -24 + ^ x29: .cfa -32 + ^
STACK CFI 75c6c .cfa: sp 32 +
STACK CFI 75c74 .cfa: sp 0 +
STACK CFI 75c78 .cfa: sp 32 +
STACK CFI 75c80 .cfa: sp 0 +
STACK CFI INIT 75c84 58 .cfa: sp 0 +
STACK CFI 75c88 .cfa: sp 32 +
STACK CFI 75c90 .cfa: x29 32 + x19: .cfa -16 + ^ .ra: .cfa -24 + ^ x29: .cfa -32 + ^
STACK CFI 75cd0 .cfa: sp 32 +
STACK CFI 75cd8 .cfa: sp 0 +
STACK CFI INIT 75cdc 48 .cfa: sp 0 +
STACK CFI INIT 75d24 48 .cfa: sp 0 +
STACK CFI 75d40 .cfa: sp 32 +
STACK CFI 75d48 .cfa: x29 32 + x19: .cfa -16 + ^ .ra: .cfa -24 + ^ x29: .cfa -32 + ^
STACK CFI 75d60 .cfa: sp 32 +
STACK CFI 75d68 .cfa: sp 0 +
STACK CFI INIT 75d6c 48 .cfa: sp 0 +
STACK CFI INIT 75db4 5c .cfa: sp 0 +
STACK CFI 75db8 .cfa: sp 32 +
STACK CFI 75dc0 .cfa: x29 32 + x19: .cfa -16 + ^ .ra: .cfa -24 + ^ x29: .cfa -32 + ^
STACK CFI 75df8 .cfa: sp 32 +
STACK CFI 75e00 .cfa: sp 0 +
STACK CFI 75e04 .cfa: sp 32 +
STACK CFI 75e0c .cfa: sp 0 +
STACK CFI INIT 75e10 58 .cfa: sp 0 +
STACK CFI 75e14 .cfa: sp 32 +
STACK CFI 75e1c .cfa: x29 32 + x19: .cfa -16 + ^ .ra: .cfa -24 + ^ x29: .cfa -32 + ^
STACK CFI 75e5c .cfa: sp 32 +
STACK CFI 75e64 .cfa: sp 0 +
STACK CFI INIT 75e68 e8 .cfa: sp 0 +
STACK CFI 75e6c .cfa: sp 64 +
STACK CFI 75e7c .cfa: x29 64 + x19: .cfa -8 + ^ x20: .cfa -16 + ^ x21: .cfa -24 + ^ x22: .cfa -32 + ^ x23: .cfa -40 + ^ x24: .cfa -48 + ^ .ra: .cfa -56 + ^ x29: .cfa -64 + ^
STACK CFI 75f3c .cfa: sp 64 +
STACK CFI 75f4c .cfa: sp 0 +
STACK CFI INIT 75f50 5c .cfa: sp 0 +
STACK CFI 75f54 .cfa: sp 32 +
STACK CFI 75f5c .cfa: x29 32 + x19: .cfa -16 + ^ .ra: .cfa -24 + ^ x29: .cfa -32 + ^
STACK CFI 75f94 .cfa: sp 32 +
STACK CFI 75f9c .cfa: sp 0 +
STACK CFI 75fa0 .cfa: sp 32 +
STACK CFI 75fa8 .cfa: sp 0 +
STACK CFI INIT 75fac 58 .cfa: sp 0 +
STACK CFI 75fb0 .cfa: sp 32 +
STACK CFI 75fb8 .cfa: x29 32 + x19: .cfa -16 + ^ .ra: .cfa -24 + ^ x29: .cfa -32 + ^
STACK CFI 75ff8 .cfa: sp 32 +
STACK CFI 76000 .cfa: sp 0 +
STACK CFI INIT 76004 88 .cfa: sp 0 +
STACK CFI INIT 7608c 48 .cfa: sp 0 +
STACK CFI 760a8 .cfa: sp 32 +
STACK CFI 760b0 .cfa: x29 32 + x19: .cfa -16 + ^ .ra: .cfa -24 + ^ x29: .cfa -32 + ^
STACK CFI 760c8 .cfa: sp 32 +
STACK CFI 760d0 .cfa: sp 0 +
STACK CFI INIT 760d4 c0 .cfa: sp 0 +
STACK CFI 760d8 .cfa: sp 48 +
STACK CFI 760e4 .cfa: x29 48 + x19: .cfa -8 + ^ x20: .cfa -16 + ^ x21: .cfa -24 + ^ x22: .cfa -32 + ^ .ra: .cfa -40 + ^ x29: .cfa -48 + ^
STACK CFI 76164 .cfa: sp 48 +
STACK CFI 76170 .cfa: sp 0 +
STACK CFI 76174 .cfa: x29 48 +
STACK CFI INIT 76194 15c .cfa: sp 0 +
STACK CFI 76198 .cfa: sp 64 +
STACK CFI 761a8 .cfa: x29 64 + x19: .cfa -8 + ^ x20: .cfa -16 + ^ x21: .cfa -24 + ^ x22: .cfa -32 + ^ x23: .cfa -40 + ^ x24: .cfa -48 + ^ .ra: .cfa -56 + ^ x29: .cfa -64 + ^
STACK CFI 762d4 .cfa: sp 64 +
STACK CFI 762e4 .cfa: sp 0 +
STACK CFI 762e8 .cfa: x29 64 +
STACK CFI INIT 764ac 7c .cfa: sp 0 +
STACK CFI 764b0 .cfa: sp 48 +
STACK CFI 764bc .cfa: x29 48 + x19: .cfa -8 + ^ x20: .cfa -16 + ^ x21: .cfa -32 + ^ .ra: .cfa -40 + ^ x29: .cfa -48 + ^
STACK CFI 76508 .cfa: sp 48 +
STACK CFI 76514 .cfa: sp 0 +
STACK CFI 76518 .cfa: sp 48 +
STACK CFI 76524 .cfa: sp 0 +
STACK CFI INIT 76528 8c .cfa: sp 0 +
STACK CFI 7652c .cfa: sp 48 +
STACK CFI 76538 .cfa: x29 48 + x19: .cfa -8 + ^ x20: .cfa -16 + ^ x21: .cfa -24 + ^ x22: .cfa -32 + ^ .ra: .cfa -40 + ^ x29: .cfa -48 + ^
STACK CFI 76594 .cfa: sp 48 +
STACK CFI 765a0 .cfa: sp 0 +
STACK CFI 765a4 .cfa: sp 48 +
STACK CFI 765b0 .cfa: sp 0 +
STACK CFI INIT 765b4 144 .cfa: sp 0 +
STACK CFI 765b8 .cfa: sp 48 +
STACK CFI 765c4 .cfa: x29 48 + x19: .cfa -8 + ^ x20: .cfa -16 + ^ x21: .cfa -24 + ^ x22: .cfa -32 + ^ .ra: .cfa -40 + ^ x29: .cfa -48 + ^
STACK CFI 766d8 .cfa: sp 48 +
STACK CFI 766e4 .cfa: sp 0 +
STACK CFI 766e8 .cfa: sp 48 +
STACK CFI 766f4 .cfa: sp 0 +
STACK CFI INIT 766f8 24 .cfa: sp 0 +
STACK CFI 766fc .cfa: sp 32 +
STACK CFI 76704 .cfa: x29 32 + x19: .cfa -16 + ^ .ra: .cfa -24 + ^ x29: .cfa -32 + ^
STACK CFI 76710 .cfa: sp 32 +
STACK CFI 76718 .cfa: sp 0 +
STACK CFI INIT 77130 44 .cfa: sp 0 +
STACK CFI 77134 .cfa: sp 32 +
STACK CFI 7713c .cfa: x29 32 + x19: .cfa -16 + ^ .ra: .cfa -24 + ^ x29: .cfa -32 + ^
STACK CFI 77158 .cfa: sp 32 +
STACK CFI 77160 .cfa: sp 0 +
STACK CFI 77164 .cfa: x29 32 +
STACK CFI 77168 .cfa: sp 32 +
STACK CFI 77170 .cfa: sp 0 +
STACK CFI INIT 77424 ac .cfa: sp 0 +
STACK CFI 77428 .cfa: sp 64 +
STACK CFI 77438 .cfa: x29 64 + x19: .cfa -8 + ^ x20: .cfa -16 + ^ x21: .cfa -24 + ^ x22: .cfa -32 + ^ x23: .cfa -48 + ^ .ra: .cfa -56 + ^ x29: .cfa -64 + ^
STACK CFI 774b4 .cfa: sp 64 +
STACK CFI 774c4 .cfa: sp 0 +
STACK CFI 774c8 .cfa: x29 64 +
STACK CFI INIT 774d0 11c .cfa: sp 0 +
STACK CFI 774d4 .cfa: sp 64 +
STACK CFI 774e4 .cfa: x29 64 + x19: .cfa -8 + ^ x20: .cfa -16 + ^ x21: .cfa -24 + ^ x22: .cfa -32 + ^ x23: .cfa -40 + ^ x24: .cfa -48 + ^ .ra: .cfa -56 + ^ x29: .cfa -64 + ^
STACK CFI 775d0 .cfa: sp 64 +
STACK CFI 775e0 .cfa: sp 0 +
STACK CFI 775e4 .cfa: x29 64 +
STACK CFI INIT 777c0 14 .cfa: sp 0 +
STACK CFI 777c4 .cfa: sp 16 +
STACK CFI 777c8 .cfa: x29 16 + .ra: .cfa -8 + ^ x29: .cfa -16 + ^
STACK CFI INIT 77f84 11c .cfa: sp 0 +
STACK CFI 77f88 .cfa: sp 80 +
STACK CFI 77f98 .cfa: x29 48 + x19: .cfa -8 + ^ x20: .cfa -16 + ^ x21: .cfa -24 + ^ x22: .cfa -32 + ^ .ra: .cfa -40 + ^ x29: .cfa -48 + ^
STACK CFI 78060 .cfa: sp 80 +
STACK CFI 78070 .cfa: sp 0 +
STACK CFI 78074 .cfa: x29 48 +
STACK CFI INIT 780a0 16c .cfa: sp 0 +
STACK CFI 780a4 .cfa: sp 32 +
STACK CFI 780ac .cfa: x29 32 + x19: .cfa -16 + ^ .ra: .cfa -24 + ^ x29: .cfa -32 + ^
STACK CFI 781c0 .cfa: sp 32 +
STACK CFI 781c8 .cfa: sp 0 +
STACK CFI 781cc .cfa: x29 32 +
STACK CFI 781fc .cfa: sp 32 +
STACK CFI 78204 .cfa: sp 0 +
STACK CFI 78208 .cfa: x29 32 +
STACK CFI INIT 7820c 348 .cfa: sp 0 +
STACK CFI 78210 .cfa: sp 32 +
STACK CFI 78218 .cfa: x29 32 + x19: .cfa -16 + ^ .ra: .cfa -24 + ^ x29: .cfa -32 + ^
STACK CFI 78510 .cfa: sp 32 +
STACK CFI 78518 .cfa: sp 0 +
STACK CFI 7851c .cfa: x29 32 +
STACK CFI INIT 789c4 20c .cfa: sp 0 +
STACK CFI 789c8 .cfa: sp 80 +
STACK CFI 789dc .cfa: x29 80 + x19: .cfa -8 + ^ x20: .cfa -16 + ^ x21: .cfa -24 + ^ x22: .cfa -32 + ^ x23: .cfa -40 + ^ x24: .cfa -48 + ^ x25: .cfa -64 + ^ .ra: .cfa -72 + ^ x29: .cfa -80 + ^
STACK CFI 78bac .cfa: sp 80 +
STACK CFI 78bc0 .cfa: sp 0 +
STACK CFI 78bc4 .cfa: x29 80 +
STACK CFI INIT 792a4 68 .cfa: sp 0 +
STACK CFI 792a8 .cfa: sp 32 +
STACK CFI 792b0 .cfa: x29 32 + x19: .cfa -8 + ^ x20: .cfa -16 + ^ .ra: .cfa -24 + ^ x29: .cfa -32 + ^
STACK CFI 792c8 .cfa: sp 32 +
STACK CFI 792d0 .cfa: sp 0 +
STACK CFI 792d4 .cfa: x29 32 +
STACK CFI 79300 .cfa: sp 32 +
STACK CFI 79308 .cfa: sp 0 +
STACK CFI INIT 7930c 14 .cfa: sp 0 +
STACK CFI 79310 .cfa: sp 16 +
STACK CFI 79314 .cfa: x29 16 + .ra: .cfa -8 + ^ x29: .cfa -16 + ^
STACK CFI INIT 79500 15c .cfa: sp 0 +
STACK CFI 79504 .cfa: sp 64 +
STACK CFI 79514 .cfa: x29 64 + x19: .cfa -8 + ^ x20: .cfa -16 + ^ x21: .cfa -24 + ^ x22: .cfa -32 + ^ x23: .cfa -40 + ^ x24: .cfa -48 + ^ .ra: .cfa -56 + ^ x29: .cfa -64 + ^
STACK CFI 79640 .cfa: sp 64 +
STACK CFI 79650 .cfa: sp 0 +
STACK CFI 79654 .cfa: x29 64 +
STACK CFI INIT 7986c 1a0 .cfa: sp 0 +
STACK CFI 79870 .cfa: sp 64 +
STACK CFI 79880 .cfa: x29 64 + x19: .cfa -8 + ^ x20: .cfa -16 + ^ x21: .cfa -24 + ^ x22: .cfa -32 + ^ x23: .cfa -40 + ^ x24: .cfa -48 + ^ .ra: .cfa -56 + ^ x29: .cfa -64 + ^
STACK CFI 799ec .cfa: sp 64 +
STACK CFI 799fc .cfa: sp 0 +
STACK CFI 79a00 .cfa: x29 64 +
STACK CFI INIT 79a0c 14 .cfa: sp 0 +
STACK CFI 79a10 .cfa: sp 16 +
STACK CFI 79a14 .cfa: x29 16 + .ra: .cfa -8 + ^ x29: .cfa -16 + ^
STACK CFI INIT 79a20 14 .cfa: sp 0 +
STACK CFI 79a24 .cfa: sp 16 +
STACK CFI 79a28 .cfa: x29 16 + .ra: .cfa -8 + ^ x29: .cfa -16 + ^
STACK CFI INIT 79a34 48 .cfa: sp 0 +
STACK CFI 79a50 .cfa: sp 32 +
STACK CFI 79a58 .cfa: x29 32 + x19: .cfa -16 + ^ .ra: .cfa -24 + ^ x29: .cfa -32 + ^
STACK CFI 79a70 .cfa: sp 32 +
STACK CFI 79a78 .cfa: sp 0 +
STACK CFI INIT 79a7c 30 .cfa: sp 0 +
STACK CFI INIT 79aac 48 .cfa: sp 0 +
STACK CFI 79ac8 .cfa: sp 32 +
STACK CFI 79ad0 .cfa: x29 32 + x19: .cfa -16 + ^ .ra: .cfa -24 + ^ x29: .cfa -32 + ^
STACK CFI 79ae8 .cfa: sp 32 +
STACK CFI 79af0 .cfa: sp 0 +
STACK CFI INIT 79af4 38 .cfa: sp 0 +
STACK CFI INIT 79d04 68 .cfa: sp 0 +
STACK CFI 79d08 .cfa: sp 32 +
STACK CFI 79d10 .cfa: x29 32 + x19: .cfa -16 + ^ .ra: .cfa -24 + ^ x29: .cfa -32 + ^
STACK CFI 79d60 .cfa: sp 32 +
STACK CFI 79d68 .cfa: sp 0 +
STACK CFI INIT 79d6c 1c4 .cfa: sp 0 +
STACK CFI INIT 79f30 c4 .cfa: sp 0 +
STACK CFI INIT 79ff4 68 .cfa: sp 0 +
STACK CFI 79ff8 .cfa: sp 32 +
STACK CFI 7a000 .cfa: x29 32 + x19: .cfa -16 + ^ .ra: .cfa -24 + ^ x29: .cfa -32 + ^
STACK CFI 7a050 .cfa: sp 32 +
STACK CFI 7a058 .cfa: sp 0 +
STACK CFI INIT 7a05c 4 .cfa: sp 0 +
STACK CFI INIT 7a060 14 .cfa: sp 0 +
STACK CFI INIT 7a074 6c .cfa: sp 0 +
STACK CFI 7a078 .cfa: sp 32 +
STACK CFI 7a080 .cfa: x29 32 + x19: .cfa -16 + ^ .ra: .cfa -24 + ^ x29: .cfa -32 + ^
STACK CFI 7a0c8 .cfa: sp 32 +
STACK CFI 7a0d0 .cfa: sp 0 +
STACK CFI 7a0d4 .cfa: sp 32 +
STACK CFI 7a0dc .cfa: sp 0 +
STACK CFI INIT 7a0e0 68 .cfa: sp 0 +
STACK CFI 7a0e4 .cfa: sp 32 +
STACK CFI 7a0ec .cfa: x29 32 + x19: .cfa -16 + ^ .ra: .cfa -24 + ^ x29: .cfa -32 + ^
STACK CFI 7a13c .cfa: sp 32 +
STACK CFI 7a144 .cfa: sp 0 +
STACK CFI INIT 7a148 c .cfa: sp 0 +
STACK CFI INIT 7a154 24 .cfa: sp 0 +
STACK CFI INIT 7a178 4 .cfa: sp 0 +
STACK CFI INIT 7a17c 4 .cfa: sp 0 +
STACK CFI INIT 7a180 14 .cfa: sp 0 +
STACK CFI INIT 7a1e0 1f4 .cfa: sp 0 +
STACK CFI 7a1e4 .cfa: sp 64 +
STACK CFI 7a1f4 .cfa: x29 64 + x19: .cfa -8 + ^ x20: .cfa -16 + ^ x21: .cfa -24 + ^ x22: .cfa -32 + ^ x23: .cfa -40 + ^ x24: .cfa -48 + ^ .ra: .cfa -56 + ^ x29: .cfa -64 + ^
STACK CFI 7a2e4 .cfa: sp 64 +
STACK CFI 7a2f4 .cfa: sp 0 +
STACK CFI 7a2f8 .cfa: x29 64 +
STACK CFI INIT 7a3d4 23c .cfa: sp 0 +
STACK CFI 7a3d8 .cfa: sp 32 +
STACK CFI 7a3e0 .cfa: x29 32 + x19: .cfa -16 + ^ .ra: .cfa -24 + ^ x29: .cfa -32 + ^
STACK CFI 7a418 .cfa: sp 32 +
STACK CFI 7a420 .cfa: sp 0 +
STACK CFI 7a424 .cfa: x29 32 +
STACK CFI INIT 7a610 104 .cfa: sp 0 +
STACK CFI 7a614 .cfa: sp 32 +
STACK CFI 7a61c .cfa: x29 32 + x19: .cfa -8 + ^ x20: .cfa -16 + ^ .ra: .cfa -24 + ^ x29: .cfa -32 + ^
STACK CFI 7a63c .cfa: sp 32 +
STACK CFI 7a644 .cfa: sp 0 +
STACK CFI 7a648 .cfa: x29 32 +
STACK CFI 7a708 .cfa: sp 32 +
STACK CFI 7a710 .cfa: sp 0 +
STACK CFI INIT 7a714 2c .cfa: sp 0 +
STACK CFI INIT 7a740 48 .cfa: sp 0 +
STACK CFI 7a75c .cfa: sp 32 +
STACK CFI 7a764 .cfa: x29 32 + x19: .cfa -16 + ^ .ra: .cfa -24 + ^ x29: .cfa -32 + ^
STACK CFI 7a77c .cfa: sp 32 +
STACK CFI 7a784 .cfa: sp 0 +
STACK CFI INIT 7a788 40 .cfa: sp 0 +
STACK CFI INIT 7a7c8 60 .cfa: sp 0 +
STACK CFI 7a7cc .cfa: sp 16 +
STACK CFI 7a7d0 .cfa: x29 16 + .ra: .cfa -8 + ^ x29: .cfa -16 + ^
STACK CFI 7a810 .cfa: sp 16 +
STACK CFI 7a814 .cfa: sp 0 +
STACK CFI 7a818 .cfa: x29 16 +
STACK CFI 7a81c .cfa: sp 16 +
STACK CFI 7a820 .cfa: sp 0 +
STACK CFI 7a824 .cfa: x29 16 +
STACK CFI INIT 7a828 1fc .cfa: sp 0 +
STACK CFI 7a82c .cfa: sp 80 +
STACK CFI 7a840 .cfa: x29 80 + x19: .cfa -8 + ^ x20: .cfa -16 + ^ x21: .cfa -24 + ^ x22: .cfa -32 + ^ x23: .cfa -40 + ^ x24: .cfa -48 + ^ x25: .cfa -64 + ^ .ra: .cfa -72 + ^ x29: .cfa -80 + ^
STACK CFI 7a9ec .cfa: sp 80 +
STACK CFI 7aa00 .cfa: sp 0 +
STACK CFI 7aa04 .cfa: x29 80 +
STACK CFI 7aa08 .cfa: sp 80 +
STACK CFI 7aa1c .cfa: sp 0 +
STACK CFI 7aa20 .cfa: x29 80 +
STACK CFI INIT 7aa24 120 .cfa: sp 0 +
STACK CFI 7aa28 .cfa: sp 48 +
STACK CFI 7aa34 .cfa: x29 48 + x19: .cfa -8 + ^ x20: .cfa -16 + ^ x21: .cfa -32 + ^ .ra: .cfa -40 + ^ x29: .cfa -48 + ^
STACK CFI 7aaf8 .cfa: sp 48 +
STACK CFI 7ab04 .cfa: sp 0 +
STACK CFI 7ab08 .cfa: x29 48 +
STACK CFI 7ab34 .cfa: sp 48 +
STACK CFI 7ab40 .cfa: sp 0 +
STACK CFI INIT 7ab44 d0 .cfa: sp 0 +
STACK CFI 7ab48 .cfa: sp 32 +
STACK CFI 7ab50 .cfa: x29 32 + x19: .cfa -16 + ^ .ra: .cfa -24 + ^ x29: .cfa -32 + ^
STACK CFI 7abc0 .cfa: sp 32 +
STACK CFI 7abc8 .cfa: sp 0 +
STACK CFI 7abcc .cfa: x29 32 +
STACK CFI 7abe4 .cfa: sp 32 +
STACK CFI 7abec .cfa: sp 0 +
STACK CFI 7abf0 .cfa: x29 32 +
STACK CFI INIT 7ac14 2f4 .cfa: sp 0 +
STACK CFI 7ac18 .cfa: sp 80 +
STACK CFI 7ac2c .cfa: x29 80 + x19: .cfa -8 + ^ x20: .cfa -16 + ^ x21: .cfa -24 + ^ x22: .cfa -32 + ^ x23: .cfa -40 + ^ x24: .cfa -48 + ^ x25: .cfa -64 + ^ .ra: .cfa -72 + ^ x29: .cfa -80 + ^
STACK CFI 7aecc .cfa: sp 80 +
STACK CFI 7aee0 .cfa: sp 0 +
STACK CFI 7aee4 .cfa: x29 80 +
STACK CFI INIT 7af08 1bc .cfa: sp 0 +
STACK CFI 7af0c .cfa: sp 64 +
STACK CFI 7af1c .cfa: x29 64 + x19: .cfa -8 + ^ x20: .cfa -16 + ^ x21: .cfa -24 + ^ x22: .cfa -32 + ^ x23: .cfa -40 + ^ x24: .cfa -48 + ^ .ra: .cfa -56 + ^ x29: .cfa -64 + ^
STACK CFI 7b0b0 .cfa: sp 64 +
STACK CFI 7b0c0 .cfa: sp 0 +
STACK CFI INIT 7bfa4 154 .cfa: sp 0 +
STACK CFI 7bfa8 .cfa: sp 64 +
STACK CFI 7bfb8 .cfa: x29 64 + x19: .cfa -8 + ^ x20: .cfa -16 + ^ x21: .cfa -24 + ^ x22: .cfa -32 + ^ x23: .cfa -48 + ^ .ra: .cfa -56 + ^ x29: .cfa -64 + ^
STACK CFI 7c0e4 .cfa: sp 64 +
STACK CFI 7c0f4 .cfa: sp 0 +
STACK CFI INIT 7c0f8 7c .cfa: sp 0 +
STACK CFI 7c0fc .cfa: sp 48 +
STACK CFI 7c108 .cfa: x29 48 + x19: .cfa -8 + ^ x20: .cfa -16 + ^ x21: .cfa -32 + ^ .ra: .cfa -40 + ^ x29: .cfa -48 + ^
STACK CFI 7c154 .cfa: sp 48 +
STACK CFI 7c160 .cfa: sp 0 +
STACK CFI 7c164 .cfa: sp 48 +
STACK CFI 7c170 .cfa: sp 0 +
STACK CFI INIT 7c630 188 .cfa: sp 0 +
STACK CFI 7c634 .cfa: sp 80 +
STACK CFI 7c648 .cfa: x29 80 + x19: .cfa -8 + ^ x20: .cfa -16 + ^ x21: .cfa -24 + ^ x22: .cfa -32 + ^ x23: .cfa -40 + ^ x24: .cfa -48 + ^ x25: .cfa -64 + ^ .ra: .cfa -72 + ^ x29: .cfa -80 + ^
STACK CFI 7c79c .cfa: sp 80 +
STACK CFI 7c7b0 .cfa: sp 0 +
STACK CFI 7c7b4 .cfa: x29 80 +
STACK CFI INIT 7c7b8 18c .cfa: sp 0 +
STACK CFI 7c7bc .cfa: sp 64 +
STACK CFI 7c7cc .cfa: x29 64 + x19: .cfa -8 + ^ x20: .cfa -16 + ^ x21: .cfa -24 + ^ x22: .cfa -32 + ^ x23: .cfa -40 + ^ x24: .cfa -48 + ^ .ra: .cfa -56 + ^ x29: .cfa -64 + ^
STACK CFI 7c92c .cfa: sp 64 +
STACK CFI 7c93c .cfa: sp 0 +
STACK CFI 7c940 .cfa: x29 64 +
STACK CFI INIT 7c944 18c .cfa: sp 0 +
STACK CFI 7c948 .cfa: sp 64 +
STACK CFI 7c958 .cfa: x29 64 + x19: .cfa -8 + ^ x20: .cfa -16 + ^ x21: .cfa -24 + ^ x22: .cfa -32 + ^ x23: .cfa -40 + ^ x24: .cfa -48 + ^ .ra: .cfa -56 + ^ x29: .cfa -64 + ^
STACK CFI 7cab8 .cfa: sp 64 +
STACK CFI 7cac8 .cfa: sp 0 +
STACK CFI 7cacc .cfa: x29 64 +
STACK CFI INIT 7ceb4 18c .cfa: sp 0 +
STACK CFI 7ceb8 .cfa: sp 64 +
STACK CFI 7cec8 .cfa: x29 64 + x19: .cfa -8 + ^ x20: .cfa -16 + ^ x21: .cfa -24 + ^ x22: .cfa -32 + ^ x23: .cfa -40 + ^ x24: .cfa -48 + ^ .ra: .cfa -56 + ^ x29: .cfa -64 + ^
STACK CFI 7d028 .cfa: sp 64 +
STACK CFI 7d038 .cfa: sp 0 +
STACK CFI 7d03c .cfa: x29 64 +
STACK CFI INIT 7d040 1ec .cfa: sp 0 +
STACK CFI 7d044 .cfa: sp 64 +
STACK CFI 7d054 .cfa: x29 64 + x19: .cfa -8 + ^ x20: .cfa -16 + ^ x21: .cfa -24 + ^ x22: .cfa -32 + ^ x23: .cfa -48 + ^ .ra: .cfa -56 + ^ x29: .cfa -64 + ^
STACK CFI 7d210 .cfa: sp 64 +
STACK CFI 7d220 .cfa: sp 0 +
STACK CFI 7d224 .cfa: x29 64 +
STACK CFI INIT 7d22c 2dc .cfa: sp 0 +
STACK CFI 7d230 .cfa: sp 64 +
STACK CFI 7d240 .cfa: x29 64 + x19: .cfa -8 + ^ x20: .cfa -16 + ^ x21: .cfa -24 + ^ x22: .cfa -32 + ^ x23: .cfa -48 + ^ .ra: .cfa -56 + ^ x29: .cfa -64 + ^
STACK CFI 7d3a0 .cfa: sp 64 +
STACK CFI 7d3b0 .cfa: sp 0 +
STACK CFI 7d3b4 .cfa: x29 64 +
STACK CFI INIT 7d508 17c .cfa: sp 0 +
STACK CFI 7d50c .cfa: sp 64 +
STACK CFI 7d51c .cfa: x29 64 + x19: .cfa -8 + ^ x20: .cfa -16 + ^ x21: .cfa -24 + ^ x22: .cfa -32 + ^ x23: .cfa -48 + ^ .ra: .cfa -56 + ^ x29: .cfa -64 + ^
STACK CFI 7d650 .cfa: sp 64 +
STACK CFI 7d660 .cfa: sp 0 +
STACK CFI 7d664 .cfa: sp 64 +
STACK CFI 7d674 .cfa: sp 0 +
STACK CFI 7d678 .cfa: x29 64 +
STACK CFI INIT 7d684 14 .cfa: sp 0 +
STACK CFI 7d688 .cfa: sp 16 +
STACK CFI 7d68c .cfa: x29 16 + .ra: .cfa -8 + ^ x29: .cfa -16 + ^
STACK CFI INIT 6d9c8 50 .cfa: sp 0 +
STACK CFI 6d9cc .cfa: sp 32 +
STACK CFI 6d9d4 .cfa: x29 32 + x19: .cfa -16 + ^ .ra: .cfa -24 + ^ x29: .cfa -32 + ^
STACK CFI 6da0c .cfa: sp 32 +
STACK CFI 6da14 .cfa: sp 0 +
STACK CFI INIT 7d698 104 .cfa: sp 0 +
STACK CFI 7d69c .cfa: sp 16 +
STACK CFI 7d6a0 .cfa: x29 16 + .ra: .cfa -8 + ^ x29: .cfa -16 + ^
STACK CFI 7d784 .cfa: sp 16 +
STACK CFI 7d788 .cfa: sp 0 +
STACK CFI 7d78c .cfa: x29 16 +
STACK CFI 7d794 .cfa: sp 16 +
STACK CFI 7d798 .cfa: sp 0 +
STACK CFI INIT 7d79c 104 .cfa: sp 0 +
STACK CFI 7d7a0 .cfa: sp 16 +
STACK CFI 7d7a4 .cfa: x29 16 + .ra: .cfa -8 + ^ x29: .cfa -16 + ^
STACK CFI 7d888 .cfa: sp 16 +
STACK CFI 7d88c .cfa: sp 0 +
STACK CFI 7d890 .cfa: x29 16 +
STACK CFI 7d898 .cfa: sp 16 +
STACK CFI 7d89c .cfa: sp 0 +
STACK CFI INIT 7d8f0 528 .cfa: sp 0 +
STACK CFI 7d8f4 .cfa: sp 128 +
STACK CFI 7d90c .cfa: x29 80 + x19: .cfa -8 + ^ x20: .cfa -16 + ^ x21: .cfa -24 + ^ x22: .cfa -32 + ^ x23: .cfa -40 + ^ x24: .cfa -48 + ^ x25: .cfa -56 + ^ x26: .cfa -64 + ^ .ra: .cfa -72 + ^ x29: .cfa -80 + ^
STACK CFI 7dd2c .cfa: sp 128 +
STACK CFI 7dd44 .cfa: sp 0 +
STACK CFI 7dd48 .cfa: x29 80 +
STACK CFI INIT 7e188 128 .cfa: sp 0 +
STACK CFI 7e18c .cfa: sp 32 +
STACK CFI 7e194 .cfa: x29 32 + x19: .cfa -16 + ^ .ra: .cfa -24 + ^ x29: .cfa -32 + ^
STACK CFI 7e2a4 .cfa: sp 32 +
STACK CFI 7e2ac .cfa: sp 0 +
STACK CFI INIT 7ee78 194 .cfa: sp 0 +
STACK CFI 7ee7c .cfa: sp 80 +
STACK CFI 7ee90 .cfa: x29 64 + x19: .cfa -8 + ^ x20: .cfa -16 + ^ x21: .cfa -24 + ^ x22: .cfa -32 + ^ x23: .cfa -48 + ^ .ra: .cfa -56 + ^ x29: .cfa -64 + ^
STACK CFI 7eff0 .cfa: sp 80 +
STACK CFI 7f004 .cfa: sp 0 +
STACK CFI 7f008 .cfa: x29 64 +
STACK CFI INIT 7f49c 1c .cfa: sp 0 +
STACK CFI INIT 7f4b8 20 .cfa: sp 0 +
STACK CFI INIT 7fc7c 4 .cfa: sp 0 +
STACK CFI INIT 7fc80 14 .cfa: sp 0 +
STACK CFI INIT 7fc94 14 .cfa: sp 0 +
STACK CFI INIT 7fca8 14 .cfa: sp 0 +
STACK CFI INIT 7fcbc 4 .cfa: sp 0 +
STACK CFI INIT 7fcc0 14 .cfa: sp 0 +
STACK CFI INIT 7fcd4 30 .cfa: sp 0 +
STACK CFI 7fcd8 .cfa: sp 32 +
STACK CFI 7fce0 .cfa: x29 32 + x19: .cfa -16 + ^ .ra: .cfa -24 + ^ x29: .cfa -32 + ^
STACK CFI 7fcf8 .cfa: sp 32 +
STACK CFI 7fd00 .cfa: sp 0 +
STACK CFI INIT 7fd04 14 .cfa: sp 0 +
STACK CFI INIT 8068c 3c .cfa: sp 0 +
STACK CFI 80690 .cfa: sp 32 +
STACK CFI 80698 .cfa: x29 32 + x19: .cfa -16 + ^ .ra: .cfa -24 + ^ x29: .cfa -32 + ^
STACK CFI 806ac .cfa: sp 32 +
STACK CFI 806b4 .cfa: sp 0 +
STACK CFI 806b8 .cfa: x29 32 +
STACK CFI 806bc .cfa: sp 32 +
STACK CFI 806c4 .cfa: sp 0 +
STACK CFI INIT 806c8 68 .cfa: sp 0 +
STACK CFI 806cc .cfa: sp 48 +
STACK CFI 806d8 .cfa: x29 48 + x19: .cfa -8 + ^ x20: .cfa -16 + ^ x21: .cfa -32 + ^ .ra: .cfa -40 + ^ x29: .cfa -48 + ^
STACK CFI 80710 .cfa: sp 48 +
STACK CFI 8071c .cfa: sp 0 +
STACK CFI 80720 .cfa: sp 48 +
STACK CFI 8072c .cfa: sp 0 +
STACK CFI INIT 80900 54 .cfa: sp 0 +
STACK CFI 80904 .cfa: sp 32 +
STACK CFI 8090c .cfa: x29 32 + x19: .cfa -8 + ^ x20: .cfa -16 + ^ .ra: .cfa -24 + ^ x29: .cfa -32 + ^
STACK CFI 8093c .cfa: sp 32 +
STACK CFI 80944 .cfa: sp 0 +
STACK CFI 80948 .cfa: sp 32 +
STACK CFI 80950 .cfa: sp 0 +
STACK CFI INIT 80954 14 .cfa: sp 0 +
STACK CFI 80958 .cfa: sp 16 +
STACK CFI 8095c .cfa: x29 16 + .ra: .cfa -8 + ^ x29: .cfa -16 + ^
STACK CFI INIT 7d8a0 50 .cfa: sp 0 +
STACK CFI 7d8a4 .cfa: sp 32 +
STACK CFI 7d8ac .cfa: x29 32 + x19: .cfa -16 + ^ .ra: .cfa -24 + ^ x29: .cfa -32 + ^
STACK CFI 7d8e4 .cfa: sp 32 +
STACK CFI 7d8ec .cfa: sp 0 +
STACK CFI INIT 80968 4 .cfa: sp 0 +
STACK CFI INIT 8096c 8 .cfa: sp 0 +
STACK CFI INIT 80974 24 .cfa: sp 0 +
STACK CFI 80978 .cfa: sp 32 +
STACK CFI 80980 .cfa: x29 32 + x19: .cfa -16 + ^ .ra: .cfa -24 + ^ x29: .cfa -32 + ^
STACK CFI 8098c .cfa: sp 32 +
STACK CFI 80994 .cfa: sp 0 +
STACK CFI INIT 80998 28 .cfa: sp 0 +
STACK CFI 8099c .cfa: sp 32 +
STACK CFI 809a4 .cfa: x29 32 + x19: .cfa -16 + ^ .ra: .cfa -24 + ^ x29: .cfa -32 + ^
STACK CFI 809b4 .cfa: sp 32 +
STACK CFI 809bc .cfa: sp 0 +
STACK CFI INIT 809c0 44 .cfa: sp 0 +
STACK CFI 809c4 .cfa: sp 32 +
STACK CFI 809cc .cfa: x29 32 + x19: .cfa -8 + ^ x20: .cfa -16 + ^ .ra: .cfa -24 + ^ x29: .cfa -32 + ^
STACK CFI 809f8 .cfa: sp 32 +
STACK CFI 80a00 .cfa: sp 0 +
STACK CFI INIT 80ae0 64 .cfa: sp 0 +
STACK CFI 80ae4 .cfa: sp 32 +
STACK CFI 80aec .cfa: x29 32 + x19: .cfa -16 + ^ .ra: .cfa -24 + ^ x29: .cfa -32 + ^
STACK CFI 80b38 .cfa: sp 32 +
STACK CFI 80b40 .cfa: sp 0 +
STACK CFI INIT 80b44 218 .cfa: sp 0 +
STACK CFI 80b48 .cfa: sp 64 +
STACK CFI 80b58 .cfa: x29 48 + x19: .cfa -8 + ^ x20: .cfa -16 + ^ x21: .cfa -24 + ^ x22: .cfa -32 + ^ .ra: .cfa -40 + ^ x29: .cfa -48 + ^
STACK CFI 80b88 .cfa: sp 64 +
STACK CFI 80b98 .cfa: sp 0 +
STACK CFI 80b9c .cfa: x29 48 +
STACK CFI 80d44 .cfa: sp 64 +
STACK CFI 80d54 .cfa: sp 0 +
STACK CFI 80d58 .cfa: x29 48 +
STACK CFI INIT 80d5c 128 .cfa: sp 0 +
STACK CFI 80d60 .cfa: sp 80 +
STACK CFI 80d74 .cfa: x29 64 + x19: .cfa -8 + ^ x20: .cfa -16 + ^ x21: .cfa -24 + ^ x22: .cfa -32 + ^ x23: .cfa -48 + ^ .ra: .cfa -56 + ^ x29: .cfa -64 + ^
STACK CFI 80e50 .cfa: sp 80 +
STACK CFI 80e64 .cfa: sp 0 +
STACK CFI 80e68 .cfa: x29 64 +
STACK CFI INIT 80e84 1bc .cfa: sp 0 +
STACK CFI 80e88 .cfa: sp 96 +
STACK CFI 80e98 .cfa: x29 48 + x19: .cfa -8 + ^ x20: .cfa -16 + ^ x21: .cfa -24 + ^ x22: .cfa -32 + ^ .ra: .cfa -40 + ^ x29: .cfa -48 + ^
STACK CFI 81028 .cfa: sp 96 +
STACK CFI 81038 .cfa: sp 0 +
STACK CFI 8103c .cfa: x29 48 +
STACK CFI INIT 82204 160 .cfa: sp 0 +
STACK CFI 82208 .cfa: sp 48 +
STACK CFI 82214 .cfa: x29 48 + x19: .cfa -8 + ^ x20: .cfa -16 + ^ x21: .cfa -32 + ^ .ra: .cfa -40 + ^ x29: .cfa -48 + ^
STACK CFI 82354 .cfa: sp 48 +
STACK CFI 82360 .cfa: sp 0 +
STACK CFI INIT 82d34 1c .cfa: sp 0 +
STACK CFI INIT 82d50 1c .cfa: sp 0 +
STACK CFI INIT 82ffc 80 .cfa: sp 0 +
STACK CFI 83000 .cfa: sp 48 +
STACK CFI 8300c .cfa: x29 48 + x19: .cfa -8 + ^ x20: .cfa -16 + ^ x21: .cfa -32 + ^ .ra: .cfa -40 + ^ x29: .cfa -48 + ^
STACK CFI 8306c .cfa: sp 48 +
STACK CFI 83078 .cfa: sp 0 +
STACK CFI INIT 8307c 24 .cfa: sp 0 +
STACK CFI 83080 .cfa: sp 32 +
STACK CFI 83088 .cfa: x29 32 + x19: .cfa -16 + ^ .ra: .cfa -24 + ^ x29: .cfa -32 + ^
STACK CFI 83094 .cfa: sp 32 +
STACK CFI 8309c .cfa: sp 0 +
STACK CFI INIT 83558 148 .cfa: sp 0 +
STACK CFI 8355c .cfa: sp 48 +
STACK CFI 83568 .cfa: x29 48 + x19: .cfa -8 + ^ x20: .cfa -16 + ^ x21: .cfa -32 + ^ .ra: .cfa -40 + ^ x29: .cfa -48 + ^
STACK CFI 83690 .cfa: sp 48 +
STACK CFI 8369c .cfa: sp 0 +
STACK CFI INIT 836a0 88 .cfa: sp 0 +
STACK CFI 836a8 .cfa: sp 48 +
STACK CFI 836b4 .cfa: x29 48 + x19: .cfa -8 + ^ x20: .cfa -16 + ^ x21: .cfa -24 + ^ x22: .cfa -32 + ^ .ra: .cfa -40 + ^ x29: .cfa -48 + ^
STACK CFI 83718 .cfa: sp 48 +
STACK CFI 83724 .cfa: sp 0 +
STACK CFI INIT 841c4 50 .cfa: sp 0 +
STACK CFI 841c8 .cfa: sp 32 +
STACK CFI 841d0 .cfa: x29 32 + x19: .cfa -16 + ^ .ra: .cfa -24 + ^ x29: .cfa -32 + ^
STACK CFI 841e8 .cfa: sp 32 +
STACK CFI 841f0 .cfa: sp 0 +
STACK CFI 841f4 .cfa: x29 32 +
STACK CFI 84208 .cfa: sp 32 +
STACK CFI 84210 .cfa: sp 0 +
STACK CFI INIT 84288 4 .cfa: sp 0 +
STACK CFI INIT 843e0 4 .cfa: sp 0 +
STACK CFI INIT 843e4 14 .cfa: sp 0 +
STACK CFI INIT 843f8 104 .cfa: sp 0 +
STACK CFI 843fc .cfa: sp 80 +
STACK CFI 84410 .cfa: x29 80 + x19: .cfa -8 + ^ x20: .cfa -16 + ^ x21: .cfa -24 + ^ x22: .cfa -32 + ^ x23: .cfa -40 + ^ x24: .cfa -48 + ^ x25: .cfa -64 + ^ .ra: .cfa -72 + ^ x29: .cfa -80 + ^
STACK CFI 844e4 .cfa: sp 80 +
STACK CFI 844f8 .cfa: sp 0 +
STACK CFI INIT 844fc d4 .cfa: sp 0 +
STACK CFI 84500 .cfa: sp 48 +
STACK CFI 8450c .cfa: x29 48 + x19: .cfa -8 + ^ x20: .cfa -16 + ^ x21: .cfa -32 + ^ .ra: .cfa -40 + ^ x29: .cfa -48 + ^
STACK CFI 8459c .cfa: sp 48 +
STACK CFI 845a8 .cfa: sp 0 +
STACK CFI 845ac .cfa: x29 48 +
STACK CFI INIT 845d0 388 .cfa: sp 0 +
STACK CFI INIT 84958 8c .cfa: sp 0 +
STACK CFI 84960 .cfa: sp 32 +
STACK CFI 84968 .cfa: x29 32 + x19: .cfa -8 + ^ x20: .cfa -16 + ^ .ra: .cfa -24 + ^ x29: .cfa -32 + ^
STACK CFI 849b0 .cfa: sp 32 +
STACK CFI 849b8 .cfa: sp 0 +
STACK CFI 849c0 .cfa: x29 32 +
STACK CFI INIT 849e4 2c .cfa: sp 0 +
STACK CFI 849e8 .cfa: sp 16 +
STACK CFI 849ec .cfa: x29 16 + .ra: .cfa -8 + ^ x29: .cfa -16 + ^
STACK CFI 84a00 .cfa: sp 16 +
STACK CFI 84a04 .cfa: sp 0 +
STACK CFI 84a08 .cfa: sp 16 +
STACK CFI 84a0c .cfa: sp 0 +
STACK CFI INIT 84ac4 50 .cfa: sp 0 +
STACK CFI 84ac8 .cfa: sp 32 +
STACK CFI 84ad0 .cfa: x29 32 + x19: .cfa -16 + ^ .ra: .cfa -24 + ^ x29: .cfa -32 + ^
STACK CFI 84ae8 .cfa: sp 32 +
STACK CFI 84af0 .cfa: sp 0 +
STACK CFI 84af4 .cfa: x29 32 +
STACK CFI 84b08 .cfa: sp 32 +
STACK CFI 84b10 .cfa: sp 0 +
STACK CFI INIT 84b14 64 .cfa: sp 0 +
STACK CFI 84b18 .cfa: sp 32 +
STACK CFI 84b20 .cfa: x29 32 + x19: .cfa -16 + ^ .ra: .cfa -24 + ^ x29: .cfa -32 + ^
STACK CFI 84b4c .cfa: sp 32 +
STACK CFI 84b54 .cfa: sp 0 +
STACK CFI 84b58 .cfa: x29 32 +
STACK CFI 84b6c .cfa: sp 32 +
STACK CFI 84b74 .cfa: sp 0 +
STACK CFI INIT 84b78 104 .cfa: sp 0 +
STACK CFI 84b7c .cfa: sp 80 +
STACK CFI 84b90 .cfa: x29 80 + x19: .cfa -8 + ^ x20: .cfa -16 + ^ x21: .cfa -24 + ^ x22: .cfa -32 + ^ x23: .cfa -40 + ^ x24: .cfa -48 + ^ x25: .cfa -56 + ^ x26: .cfa -64 + ^ .ra: .cfa -72 + ^ x29: .cfa -80 + ^
STACK CFI 84c64 .cfa: sp 80 +
STACK CFI 84c78 .cfa: sp 0 +
STACK CFI INIT 84ffc 4 .cfa: sp 0 +
STACK CFI INIT 85000 18 .cfa: sp 0 +
STACK CFI 85004 .cfa: sp 16 +
STACK CFI 85008 .cfa: x29 16 + .ra: .cfa -8 + ^ x29: .cfa -16 + ^
STACK CFI 85010 .cfa: sp 16 +
STACK CFI 85014 .cfa: sp 0 +
STACK CFI INIT 85018 4 .cfa: sp 0 +
STACK CFI INIT 8501c 4 .cfa: sp 0 +
STACK CFI INIT 85020 24 .cfa: sp 0 +
STACK CFI 85024 .cfa: sp 16 +
STACK CFI 85028 .cfa: x29 16 + .ra: .cfa -8 + ^ x29: .cfa -16 + ^
STACK CFI 8503c .cfa: sp 16 +
STACK CFI 85040 .cfa: sp 0 +
STACK CFI INIT 85044 10 .cfa: sp 0 +
STACK CFI INIT 85054 4 .cfa: sp 0 +
STACK CFI INIT 85058 4 .cfa: sp 0 +
STACK CFI INIT 8505c 14 .cfa: sp 0 +
STACK CFI 85060 .cfa: sp 16 +
STACK CFI 85064 .cfa: x29 16 + .ra: .cfa -8 + ^ x29: .cfa -16 + ^
STACK CFI 85068 .cfa: sp 16 +
STACK CFI 8506c .cfa: sp 0 +
STACK CFI INIT 85070 1c .cfa: sp 0 +
STACK CFI INIT 8508c c .cfa: sp 0 +
STACK CFI INIT 85098 4 .cfa: sp 0 +
STACK CFI INIT 85210 5c .cfa: sp 0 +
STACK CFI 85214 .cfa: sp 32 +
STACK CFI 8521c .cfa: x29 32 + x19: .cfa -16 + ^ .ra: .cfa -24 + ^ x29: .cfa -32 + ^
STACK CFI 85260 .cfa: sp 32 +
STACK CFI 85268 .cfa: sp 0 +
STACK CFI INIT 8526c 64 .cfa: sp 0 +
STACK CFI 85270 .cfa: sp 32 +
STACK CFI 85278 .cfa: x29 32 + x19: .cfa -16 + ^ .ra: .cfa -24 + ^ x29: .cfa -32 + ^
STACK CFI 852c4 .cfa: sp 32 +
STACK CFI 852cc .cfa: sp 0 +
STACK CFI INIT 852d0 4 .cfa: sp 0 +
STACK CFI INIT 852d4 4 .cfa: sp 0 +
STACK CFI INIT 852d8 34 .cfa: sp 0 +
STACK CFI 852dc .cfa: sp 32 +
STACK CFI 852e4 .cfa: x29 32 + x19: .cfa -16 + ^ .ra: .cfa -24 + ^ x29: .cfa -32 + ^
STACK CFI 85300 .cfa: sp 32 +
STACK CFI 85308 .cfa: sp 0 +
STACK CFI INIT 8530c 14 .cfa: sp 0 +
STACK CFI INIT 85320 4 .cfa: sp 0 +
STACK CFI INIT 85324 4 .cfa: sp 0 +
STACK CFI INIT 85328 10 .cfa: sp 0 +
STACK CFI INIT 85338 1c .cfa: sp 0 +
STACK CFI INIT 85354 c .cfa: sp 0 +
STACK CFI INIT 85360 104 .cfa: sp 0 +
STACK CFI 85364 .cfa: sp 16 +
STACK CFI 85368 .cfa: x29 16 + .ra: .cfa -8 + ^ x29: .cfa -16 + ^
STACK CFI 8544c .cfa: sp 16 +
STACK CFI 85450 .cfa: sp 0 +
STACK CFI 85454 .cfa: x29 16 +
STACK CFI 8545c .cfa: sp 16 +
STACK CFI 85460 .cfa: sp 0 +
STACK CFI INIT 85464 104 .cfa: sp 0 +
STACK CFI 85468 .cfa: sp 16 +
STACK CFI 8546c .cfa: x29 16 + .ra: .cfa -8 + ^ x29: .cfa -16 + ^
STACK CFI 85550 .cfa: sp 16 +
STACK CFI 85554 .cfa: sp 0 +
STACK CFI 85558 .cfa: x29 16 +
STACK CFI 85560 .cfa: sp 16 +
STACK CFI 85564 .cfa: sp 0 +
STACK CFI INIT 86bc4 40 .cfa: sp 0 +
STACK CFI 86bdc .cfa: sp 32 +
STACK CFI 86be4 .cfa: x29 32 + x19: .cfa -16 + ^ .ra: .cfa -24 + ^ x29: .cfa -32 + ^
STACK CFI 86bf8 .cfa: sp 32 +
STACK CFI 86c00 .cfa: sp 0 +
STACK CFI INIT 87728 138 .cfa: sp 0 +
STACK CFI 8772c .cfa: sp 80 +
STACK CFI 87740 .cfa: x29 64 + x19: .cfa -8 + ^ x20: .cfa -16 + ^ x21: .cfa -24 + ^ x22: .cfa -32 + ^ x23: .cfa -40 + ^ x24: .cfa -48 + ^ .ra: .cfa -56 + ^ x29: .cfa -64 + ^
STACK CFI 87844 .cfa: sp 80 +
STACK CFI 87858 .cfa: sp 0 +
STACK CFI 8785c .cfa: x29 64 +
STACK CFI INIT 88288 7c .cfa: sp 0 +
STACK CFI 8828c .cfa: sp 48 +
STACK CFI 88298 .cfa: x29 48 + x19: .cfa -8 + ^ x20: .cfa -16 + ^ x21: .cfa -32 + ^ .ra: .cfa -40 + ^ x29: .cfa -48 + ^
STACK CFI 882e4 .cfa: sp 48 +
STACK CFI 882f0 .cfa: sp 0 +
STACK CFI 882f4 .cfa: sp 48 +
STACK CFI 88300 .cfa: sp 0 +
STACK CFI INIT 88934 1a8 .cfa: sp 0 +
STACK CFI 88938 .cfa: sp 96 +
STACK CFI 88950 .cfa: x29 56 + x19: .cfa -8 + ^ x20: .cfa -16 + ^ x21: .cfa -24 + ^ x22: .cfa -32 + ^ x23: .cfa -40 + ^ .ra: .cfa -48 + ^ x29: .cfa -56 + ^ v8: .cfa -64 + ^
STACK CFI 88abc .cfa: sp 96 +
STACK CFI 88ad4 .cfa: sp 0 +
STACK CFI 88ad8 .cfa: x29 56 +
STACK CFI INIT 85568 5c .cfa: sp 0 +
STACK CFI 8556c .cfa: sp 16 +
STACK CFI 85570 .cfa: x29 16 + .ra: .cfa -8 + ^ x29: .cfa -16 + ^
STACK CFI 855ac .cfa: sp 16 +
STACK CFI 855b0 .cfa: sp 0 +
STACK CFI 855b4 .cfa: x29 16 +
STACK CFI 855bc .cfa: sp 16 +
STACK CFI 855c0 .cfa: sp 0 +
STACK CFI INIT 8942c 40 .cfa: sp 0 +
STACK CFI 89444 .cfa: sp 32 +
STACK CFI 8944c .cfa: x29 32 + x19: .cfa -16 + ^ .ra: .cfa -24 + ^ x29: .cfa -32 + ^
STACK CFI 89460 .cfa: sp 32 +
STACK CFI 89468 .cfa: sp 0 +
STACK CFI INIT 8946c 8 .cfa: sp 0 +
STACK CFI INIT 896d0 8 .cfa: sp 0 +
STACK CFI INIT 89814 8 .cfa: sp 0 +
STACK CFI INIT 89afc 8 .cfa: sp 0 +
STACK CFI INIT 89b04 3b8 .cfa: sp 0 +
STACK CFI 89b08 .cfa: sp 96 +
STACK CFI 89b20 .cfa: x29 80 + x19: .cfa -8 + ^ x20: .cfa -16 + ^ x21: .cfa -24 + ^ x22: .cfa -32 + ^ x23: .cfa -40 + ^ x24: .cfa -48 + ^ x25: .cfa -64 + ^ .ra: .cfa -72 + ^ x29: .cfa -80 + ^
STACK CFI 89e9c .cfa: sp 96 +
STACK CFI 89eb4 .cfa: sp 0 +
STACK CFI 89eb8 .cfa: x29 80 +
STACK CFI INIT 89ebc 154 .cfa: sp 0 +
STACK CFI 89ec0 .cfa: sp 64 +
STACK CFI 89ed0 .cfa: x29 64 + x19: .cfa -8 + ^ x20: .cfa -16 + ^ x21: .cfa -24 + ^ x22: .cfa -32 + ^ x23: .cfa -48 + ^ .ra: .cfa -56 + ^ x29: .cfa -64 + ^
STACK CFI 89ffc .cfa: sp 64 +
STACK CFI 8a00c .cfa: sp 0 +
STACK CFI INIT 8a5dc 40 .cfa: sp 0 +
STACK CFI 8a5f4 .cfa: sp 32 +
STACK CFI 8a5fc .cfa: x29 32 + x19: .cfa -16 + ^ .ra: .cfa -24 + ^ x29: .cfa -32 + ^
STACK CFI 8a610 .cfa: sp 32 +
STACK CFI 8a618 .cfa: sp 0 +
STACK CFI INIT 8a61c 8 .cfa: sp 0 +
STACK CFI INIT 8a624 1bc .cfa: sp 0 +
STACK CFI 8a628 .cfa: sp 80 +
STACK CFI 8a63c .cfa: x29 64 + x19: .cfa -8 + ^ x20: .cfa -16 + ^ x21: .cfa -24 + ^ x22: .cfa -32 + ^ x23: .cfa -40 + ^ x24: .cfa -48 + ^ .ra: .cfa -56 + ^ x29: .cfa -64 + ^
STACK CFI 8a7c4 .cfa: sp 80 +
STACK CFI 8a7d8 .cfa: sp 0 +
STACK CFI 8a7dc .cfa: x29 64 +
STACK CFI INIT 8a7e0 24 .cfa: sp 0 +
STACK CFI 8a7e4 .cfa: sp 32 +
STACK CFI 8a7ec .cfa: x29 32 + x19: .cfa -16 + ^ .ra: .cfa -24 + ^ x29: .cfa -32 + ^
STACK CFI 8a7f8 .cfa: sp 32 +
STACK CFI 8a800 .cfa: sp 0 +
STACK CFI INIT 8a804 10c .cfa: sp 0 +
STACK CFI 8a808 .cfa: sp 80 +
STACK CFI 8a81c .cfa: x29 64 + x19: .cfa -8 + ^ x20: .cfa -16 + ^ x21: .cfa -24 + ^ x22: .cfa -32 + ^ x23: .cfa -48 + ^ .ra: .cfa -56 + ^ x29: .cfa -64 + ^
STACK CFI 8a8f4 .cfa: sp 80 +
STACK CFI 8a908 .cfa: sp 0 +
STACK CFI 8a90c .cfa: x29 64 +
STACK CFI INIT 8a910 8 .cfa: sp 0 +
STACK CFI INIT 8a918 28 .cfa: sp 0 +
STACK CFI 8a91c .cfa: sp 32 +
STACK CFI 8a924 .cfa: x29 32 + x19: .cfa -16 + ^ .ra: .cfa -24 + ^ x29: .cfa -32 + ^
STACK CFI 8a934 .cfa: sp 32 +
STACK CFI 8a93c .cfa: sp 0 +
STACK CFI INIT 8a940 24 .cfa: sp 0 +
STACK CFI 8a944 .cfa: sp 32 +
STACK CFI 8a94c .cfa: x29 32 + x19: .cfa -16 + ^ .ra: .cfa -24 + ^ x29: .cfa -32 + ^
STACK CFI 8a958 .cfa: sp 32 +
STACK CFI 8a960 .cfa: sp 0 +
STACK CFI INIT 8a964 8 .cfa: sp 0 +
STACK CFI INIT 8a96c 28 .cfa: sp 0 +
STACK CFI 8a970 .cfa: sp 32 +
STACK CFI 8a978 .cfa: x29 32 + x19: .cfa -16 + ^ .ra: .cfa -24 + ^ x29: .cfa -32 + ^
STACK CFI 8a988 .cfa: sp 32 +
STACK CFI 8a990 .cfa: sp 0 +
STACK CFI INIT 8a994 68 .cfa: sp 0 +
STACK CFI 8a9d4 .cfa: sp 32 +
STACK CFI 8a9dc .cfa: x29 32 + x19: .cfa -16 + ^ .ra: .cfa -24 + ^ x29: .cfa -32 + ^
STACK CFI 8a9f0 .cfa: sp 32 +
STACK CFI 8a9f8 .cfa: sp 0 +
STACK CFI INIT 8a9fc 6c .cfa: sp 0 +
STACK CFI 8aa00 .cfa: sp 32 +
STACK CFI 8aa08 .cfa: x29 32 + x19: .cfa -16 + ^ .ra: .cfa -24 + ^ x29: .cfa -32 + ^
STACK CFI 8aa5c .cfa: sp 32 +
STACK CFI 8aa64 .cfa: sp 0 +
STACK CFI INIT 8aa68 68 .cfa: sp 0 +
STACK CFI 8aa6c .cfa: sp 32 +
STACK CFI 8aa74 .cfa: x29 32 + x19: .cfa -16 + ^ .ra: .cfa -24 + ^ x29: .cfa -32 + ^
STACK CFI 8aac4 .cfa: sp 32 +
STACK CFI 8aacc .cfa: sp 0 +
STACK CFI INIT 8aad0 70 .cfa: sp 0 +
STACK CFI 8aad4 .cfa: sp 32 +
STACK CFI 8aadc .cfa: x29 32 + x19: .cfa -16 + ^ .ra: .cfa -24 + ^ x29: .cfa -32 + ^
STACK CFI 8ab34 .cfa: sp 32 +
STACK CFI 8ab3c .cfa: sp 0 +
STACK CFI INIT 8ad48 24 .cfa: sp 0 +
STACK CFI 8ad4c .cfa: sp 32 +
STACK CFI 8ad54 .cfa: x29 32 + x19: .cfa -16 + ^ .ra: .cfa -24 + ^ x29: .cfa -32 + ^
STACK CFI 8ad60 .cfa: sp 32 +
STACK CFI 8ad68 .cfa: sp 0 +
STACK CFI INIT 8ad6c 2c .cfa: sp 0 +
STACK CFI INIT 8ad98 14 .cfa: sp 0 +
STACK CFI INIT 8adac 8 .cfa: sp 0 +
STACK CFI INIT 8adb4 28 .cfa: sp 0 +
STACK CFI 8adb8 .cfa: sp 32 +
STACK CFI 8adc0 .cfa: x29 32 + x19: .cfa -16 + ^ .ra: .cfa -24 + ^ x29: .cfa -32 + ^
STACK CFI 8add0 .cfa: sp 32 +
STACK CFI 8add8 .cfa: sp 0 +
STACK CFI INIT 8addc 70 .cfa: sp 0 +
STACK CFI 8ae24 .cfa: sp 32 +
STACK CFI 8ae2c .cfa: x29 32 + x19: .cfa -16 + ^ .ra: .cfa -24 + ^ x29: .cfa -32 + ^
STACK CFI 8ae40 .cfa: sp 32 +
STACK CFI 8ae48 .cfa: sp 0 +
STACK CFI INIT 8ae4c 74 .cfa: sp 0 +
STACK CFI 8ae50 .cfa: sp 32 +
STACK CFI 8ae58 .cfa: x29 32 + x19: .cfa -16 + ^ .ra: .cfa -24 + ^ x29: .cfa -32 + ^
STACK CFI 8aeb4 .cfa: sp 32 +
STACK CFI 8aebc .cfa: sp 0 +
STACK CFI INIT 8aec0 6c .cfa: sp 0 +
STACK CFI 8aec4 .cfa: sp 32 +
STACK CFI 8aecc .cfa: x29 32 + x19: .cfa -16 + ^ .ra: .cfa -24 + ^ x29: .cfa -32 + ^
STACK CFI 8af20 .cfa: sp 32 +
STACK CFI 8af28 .cfa: sp 0 +
STACK CFI INIT 8af2c 74 .cfa: sp 0 +
STACK CFI 8af30 .cfa: sp 32 +
STACK CFI 8af38 .cfa: x29 32 + x19: .cfa -16 + ^ .ra: .cfa -24 + ^ x29: .cfa -32 + ^
STACK CFI 8af94 .cfa: sp 32 +
STACK CFI 8af9c .cfa: sp 0 +
STACK CFI INIT 8afa0 44 .cfa: sp 0 +
STACK CFI 8afa4 .cfa: sp 32 +
STACK CFI 8afac .cfa: x29 32 + x19: .cfa -16 + ^ .ra: .cfa -24 + ^ x29: .cfa -32 + ^
STACK CFI 8afd8 .cfa: sp 32 +
STACK CFI 8afe0 .cfa: sp 0 +
STACK CFI INIT 8afe4 24 .cfa: sp 0 +
STACK CFI 8afe8 .cfa: sp 32 +
STACK CFI 8aff0 .cfa: x29 32 + x19: .cfa -16 + ^ .ra: .cfa -24 + ^ x29: .cfa -32 + ^
STACK CFI 8affc .cfa: sp 32 +
STACK CFI 8b004 .cfa: sp 0 +
STACK CFI INIT 8b008 14 .cfa: sp 0 +
STACK CFI INIT 8b01c 24 .cfa: sp 0 +
STACK CFI 8b020 .cfa: sp 32 +
STACK CFI 8b028 .cfa: x29 32 + x19: .cfa -16 + ^ .ra: .cfa -24 + ^ x29: .cfa -32 + ^
STACK CFI 8b034 .cfa: sp 32 +
STACK CFI 8b03c .cfa: sp 0 +
STACK CFI INIT 8b040 4 .cfa: sp 0 +
STACK CFI INIT 8b044 8 .cfa: sp 0 +
STACK CFI INIT 8b04c 4 .cfa: sp 0 +
STACK CFI INIT 8b050 8 .cfa: sp 0 +
STACK CFI INIT 8b058 14 .cfa: sp 0 +
STACK CFI 8b05c .cfa: sp 16 +
STACK CFI 8b060 .cfa: x29 16 + .ra: .cfa -8 + ^ x29: .cfa -16 + ^
STACK CFI INIT 8b06c 8c .cfa: sp 0 +
STACK CFI 8b070 .cfa: sp 48 +
STACK CFI 8b07c .cfa: x29 48 + x19: .cfa -8 + ^ x20: .cfa -16 + ^ x21: .cfa -24 + ^ x22: .cfa -32 + ^ .ra: .cfa -40 + ^ x29: .cfa -48 + ^
STACK CFI 8b084 .cfa: sp 48 +
STACK CFI 8b090 .cfa: sp 0 +
STACK CFI 8b094 .cfa: x29 48 +
STACK CFI 8b0e8 .cfa: sp 48 +
STACK CFI 8b0f4 .cfa: sp 0 +
STACK CFI INIT 8b0f8 60 .cfa: sp 0 +
STACK CFI 8b108 .cfa: sp 32 +
STACK CFI 8b110 .cfa: x29 32 + x19: .cfa -8 + ^ x20: .cfa -16 + ^ .ra: .cfa -24 + ^ x29: .cfa -32 + ^
STACK CFI 8b14c .cfa: sp 32 +
STACK CFI 8b154 .cfa: sp 0 +
STACK CFI INIT 8b158 14 .cfa: sp 0 +
STACK CFI 8b15c .cfa: sp 16 +
STACK CFI 8b160 .cfa: x29 16 + .ra: .cfa -8 + ^ x29: .cfa -16 + ^
STACK CFI INIT 8b1bc 30 .cfa: sp 0 +
STACK CFI 8b1c0 .cfa: sp 32 +
STACK CFI 8b1c8 .cfa: x29 32 + x19: .cfa -16 + ^ .ra: .cfa -24 + ^ x29: .cfa -32 + ^
STACK CFI 8b1e0 .cfa: sp 32 +
STACK CFI 8b1e8 .cfa: sp 0 +
STACK CFI INIT 8b1ec d0 .cfa: sp 0 +
STACK CFI 8b1f0 .cfa: sp 32 +
STACK CFI 8b1f8 .cfa: x29 32 + x19: .cfa -16 + ^ .ra: .cfa -24 + ^ x29: .cfa -32 + ^
STACK CFI 8b2b0 .cfa: sp 32 +
STACK CFI 8b2b8 .cfa: sp 0 +
STACK CFI INIT 8b2bc d8 .cfa: sp 0 +
STACK CFI 8b2c0 .cfa: sp 32 +
STACK CFI 8b2c8 .cfa: x29 32 + x19: .cfa -16 + ^ .ra: .cfa -24 + ^ x29: .cfa -32 + ^
STACK CFI 8b388 .cfa: sp 32 +
STACK CFI 8b390 .cfa: sp 0 +
STACK CFI INIT 8ba10 d4 .cfa: sp 0 +
STACK CFI 8ba14 .cfa: sp 32 +
STACK CFI 8ba1c .cfa: x29 32 + x19: .cfa -8 + ^ x20: .cfa -16 + ^ .ra: .cfa -24 + ^ x29: .cfa -32 + ^
STACK CFI 8bad8 .cfa: sp 32 +
STACK CFI 8bae0 .cfa: sp 0 +
STACK CFI INIT 8bae4 dc .cfa: sp 0 +
STACK CFI 8bae8 .cfa: sp 32 +
STACK CFI 8baf0 .cfa: x29 32 + x19: .cfa -8 + ^ x20: .cfa -16 + ^ .ra: .cfa -24 + ^ x29: .cfa -32 + ^
STACK CFI 8bbb4 .cfa: sp 32 +
STACK CFI 8bbbc .cfa: sp 0 +
STACK CFI INIT 8bbc0 8 .cfa: sp 0 +
STACK CFI INIT 8bbc8 8 .cfa: sp 0 +
STACK CFI INIT 8bca4 8 .cfa: sp 0 +
STACK CFI INIT 8bcac d8 .cfa: sp 0 +
STACK CFI 8bcb0 .cfa: sp 32 +
STACK CFI 8bcb8 .cfa: x29 32 + x19: .cfa -16 + ^ .ra: .cfa -24 + ^ x29: .cfa -32 + ^
STACK CFI 8bd78 .cfa: sp 32 +
STACK CFI 8bd80 .cfa: sp 0 +
STACK CFI INIT 8bd84 d4 .cfa: sp 0 +
STACK CFI 8bd88 .cfa: sp 32 +
STACK CFI 8bd90 .cfa: x29 32 + x19: .cfa -8 + ^ x20: .cfa -16 + ^ .ra: .cfa -24 + ^ x29: .cfa -32 + ^
STACK CFI 8be4c .cfa: sp 32 +
STACK CFI 8be54 .cfa: sp 0 +
STACK CFI INIT 8be58 dc .cfa: sp 0 +
STACK CFI 8be5c .cfa: sp 32 +
STACK CFI 8be64 .cfa: x29 32 + x19: .cfa -8 + ^ x20: .cfa -16 + ^ .ra: .cfa -24 + ^ x29: .cfa -32 + ^
STACK CFI 8bf28 .cfa: sp 32 +
STACK CFI 8bf30 .cfa: sp 0 +
STACK CFI INIT 8bf34 144 .cfa: sp 0 +
STACK CFI 8bf38 .cfa: sp 80 +
STACK CFI 8bf4c .cfa: x29 80 + x19: .cfa -8 + ^ x20: .cfa -16 + ^ x21: .cfa -24 + ^ x22: .cfa -32 + ^ x23: .cfa -40 + ^ x24: .cfa -48 + ^ x25: .cfa -64 + ^ .ra: .cfa -72 + ^ x29: .cfa -80 + ^
STACK CFI 8c058 .cfa: sp 80 +
STACK CFI 8c06c .cfa: sp 0 +
STACK CFI 8c070 .cfa: x29 80 +
STACK CFI INIT 8c078 40 .cfa: sp 0 +
STACK CFI 8c090 .cfa: sp 32 +
STACK CFI 8c098 .cfa: x29 32 + x19: .cfa -16 + ^ .ra: .cfa -24 + ^ x29: .cfa -32 + ^
STACK CFI 8c0ac .cfa: sp 32 +
STACK CFI 8c0b4 .cfa: sp 0 +
STACK CFI INIT 8c0b8 44 .cfa: sp 0 +
STACK CFI 8c0bc .cfa: sp 32 +
STACK CFI 8c0c4 .cfa: x29 32 + x19: .cfa -16 + ^ .ra: .cfa -24 + ^ x29: .cfa -32 + ^
STACK CFI 8c0f0 .cfa: sp 32 +
STACK CFI 8c0f8 .cfa: sp 0 +
STACK CFI INIT 8c0fc 24 .cfa: sp 0 +
STACK CFI 8c100 .cfa: sp 32 +
STACK CFI 8c108 .cfa: x29 32 + x19: .cfa -16 + ^ .ra: .cfa -24 + ^ x29: .cfa -32 + ^
STACK CFI 8c114 .cfa: sp 32 +
STACK CFI 8c11c .cfa: sp 0 +
STACK CFI INIT 8c120 20 .cfa: sp 0 +
STACK CFI INIT 8c140 24 .cfa: sp 0 +
STACK CFI 8c144 .cfa: sp 32 +
STACK CFI 8c14c .cfa: x29 32 + x19: .cfa -16 + ^ .ra: .cfa -24 + ^ x29: .cfa -32 + ^
STACK CFI 8c158 .cfa: sp 32 +
STACK CFI 8c160 .cfa: sp 0 +
STACK CFI INIT 8c164 18 .cfa: sp 0 +
STACK CFI INIT 8c17c 44 .cfa: sp 0 +
STACK CFI 8c180 .cfa: sp 32 +
STACK CFI 8c188 .cfa: x29 32 + x19: .cfa -16 + ^ .ra: .cfa -24 + ^ x29: .cfa -32 + ^
STACK CFI 8c1b4 .cfa: sp 32 +
STACK CFI 8c1bc .cfa: sp 0 +
STACK CFI INIT 8c1c0 44 .cfa: sp 0 +
STACK CFI 8c1c4 .cfa: sp 32 +
STACK CFI 8c1cc .cfa: x29 32 + x19: .cfa -16 + ^ .ra: .cfa -24 + ^ x29: .cfa -32 + ^
STACK CFI 8c1f8 .cfa: sp 32 +
STACK CFI 8c200 .cfa: sp 0 +
STACK CFI INIT 8c204 50 .cfa: sp 0 +
STACK CFI 8c228 .cfa: sp 32 +
STACK CFI 8c230 .cfa: x29 32 + x19: .cfa -16 + ^ .ra: .cfa -24 + ^ x29: .cfa -32 + ^
STACK CFI 8c244 .cfa: sp 32 +
STACK CFI 8c24c .cfa: sp 0 +
STACK CFI INIT 855c4 64 .cfa: sp 0 +
STACK CFI 855c8 .cfa: sp 32 +
STACK CFI 855d0 .cfa: x29 32 + x19: .cfa -16 + ^ .ra: .cfa -24 + ^ x29: .cfa -32 + ^
STACK CFI 8561c .cfa: sp 32 +
STACK CFI 85624 .cfa: sp 0 +
STACK CFI INIT 8ccac 88 .cfa: sp 0 +
STACK CFI INIT 8cd54 154 .cfa: sp 0 +
STACK CFI 8cd58 .cfa: sp 64 +
STACK CFI 8cd68 .cfa: x29 64 + x19: .cfa -8 + ^ x20: .cfa -16 + ^ x21: .cfa -24 + ^ x22: .cfa -32 + ^ x23: .cfa -48 + ^ .ra: .cfa -56 + ^ x29: .cfa -64 + ^
STACK CFI 8ce94 .cfa: sp 64 +
STACK CFI 8cea4 .cfa: sp 0 +
STACK CFI INIT 8d1fc 4c .cfa: sp 0 +
STACK CFI 8d200 .cfa: sp 32 +
STACK CFI 8d208 .cfa: x29 32 + x19: .cfa -16 + ^ .ra: .cfa -24 + ^ x29: .cfa -32 + ^
STACK CFI 8d23c .cfa: sp 32 +
STACK CFI 8d244 .cfa: sp 0 +
STACK CFI INIT 8ea30 88 .cfa: sp 0 +
STACK CFI 8ea34 .cfa: sp 48 +
STACK CFI 8ea40 .cfa: x29 32 + x19: .cfa -8 + ^ x20: .cfa -16 + ^ .ra: .cfa -24 + ^ x29: .cfa -32 + ^
STACK CFI 8ea90 .cfa: sp 48 +
STACK CFI 8ea9c .cfa: sp 0 +
STACK CFI 8eaa0 .cfa: x29 32 +
STACK CFI INIT 8eab8 108 .cfa: sp 0 +
STACK CFI 8eabc .cfa: sp 64 +
STACK CFI 8eacc .cfa: x29 32 + x19: .cfa -8 + ^ x20: .cfa -16 + ^ .ra: .cfa -24 + ^ x29: .cfa -32 + ^ v8: .cfa -48 + ^
STACK CFI 8eb94 .cfa: sp 64 +
STACK CFI 8eba4 .cfa: sp 0 +
STACK CFI 8eba8 .cfa: x29 32 +
STACK CFI INIT 8ef8c 7c .cfa: sp 0 +
STACK CFI 8ef90 .cfa: sp 48 +
STACK CFI 8ef9c .cfa: x29 48 + x19: .cfa -8 + ^ x20: .cfa -16 + ^ x21: .cfa -32 + ^ .ra: .cfa -40 + ^ x29: .cfa -48 + ^
STACK CFI 8eff8 .cfa: sp 48 +
STACK CFI 8f004 .cfa: sp 0 +
STACK CFI INIT 8f008 36c .cfa: sp 0 +
STACK CFI 8f00c .cfa: sp 96 +
STACK CFI 8f024 .cfa: x29 80 + x19: .cfa -8 + ^ x20: .cfa -16 + ^ x21: .cfa -24 + ^ x22: .cfa -32 + ^ x23: .cfa -40 + ^ x24: .cfa -48 + ^ x25: .cfa -64 + ^ .ra: .cfa -72 + ^ x29: .cfa -80 + ^
STACK CFI 8f354 .cfa: sp 96 +
STACK CFI 8f36c .cfa: sp 0 +
STACK CFI 8f370 .cfa: x29 80 +
STACK CFI INIT 8f68c e0 .cfa: sp 0 +
STACK CFI 8f690 .cfa: sp 64 +
STACK CFI 8f6a0 .cfa: x29 48 + x19: .cfa -8 + ^ x20: .cfa -16 + ^ x21: .cfa -24 + ^ x22: .cfa -32 + ^ .ra: .cfa -40 + ^ x29: .cfa -48 + ^
STACK CFI 8f754 .cfa: sp 64 +
STACK CFI 8f764 .cfa: sp 0 +
STACK CFI 8f768 .cfa: x29 48 +
STACK CFI INIT 904b8 b0 .cfa: sp 0 +
STACK CFI 904bc .cfa: sp 48 +
STACK CFI 904c8 .cfa: x29 32 + x19: .cfa -16 + ^ .ra: .cfa -24 + ^ x29: .cfa -32 + ^ v8: .cfa -40 + ^ v9: .cfa -48 + ^
STACK CFI 90558 .cfa: sp 48 +
STACK CFI 90564 .cfa: sp 0 +
STACK CFI INIT 90e90 d8 .cfa: sp 0 +
STACK CFI 90e94 .cfa: sp 32 +
STACK CFI 90e9c .cfa: x29 32 + x19: .cfa -16 + ^ .ra: .cfa -24 + ^ x29: .cfa -32 + ^
STACK CFI 90f5c .cfa: sp 32 +
STACK CFI 90f64 .cfa: sp 0 +
STACK CFI INIT 90f68 d4 .cfa: sp 0 +
STACK CFI 90f6c .cfa: sp 32 +
STACK CFI 90f74 .cfa: x29 32 + x19: .cfa -8 + ^ x20: .cfa -16 + ^ .ra: .cfa -24 + ^ x29: .cfa -32 + ^
STACK CFI 91030 .cfa: sp 32 +
STACK CFI 91038 .cfa: sp 0 +
STACK CFI INIT 9103c dc .cfa: sp 0 +
STACK CFI 91040 .cfa: sp 32 +
STACK CFI 91048 .cfa: x29 32 + x19: .cfa -8 + ^ x20: .cfa -16 + ^ .ra: .cfa -24 + ^ x29: .cfa -32 + ^
STACK CFI 9110c .cfa: sp 32 +
STACK CFI 91114 .cfa: sp 0 +
STACK CFI INIT 91118 1d4 .cfa: sp 0 +
STACK CFI 9111c .cfa: sp 112 +
STACK CFI 91138 .cfa: x29 96 + x19: .cfa -8 + ^ x20: .cfa -16 + ^ x21: .cfa -24 + ^ x22: .cfa -32 + ^ x23: .cfa -40 + ^ x24: .cfa -48 + ^ x25: .cfa -56 + ^ x26: .cfa -64 + ^ x27: .cfa -72 + ^ x28: .cfa -80 + ^ .ra: .cfa -88 + ^ x29: .cfa -96 + ^
STACK CFI 912c8 .cfa: sp 112 +
STACK CFI 912e4 .cfa: sp 0 +
STACK CFI 912e8 .cfa: x29 96 +
STACK CFI INIT 912ec 54 .cfa: sp 0 +
STACK CFI 912f0 .cfa: sp 32 +
STACK CFI 912f8 .cfa: x29 32 + x19: .cfa -16 + ^ .ra: .cfa -24 + ^ x29: .cfa -32 + ^
STACK CFI 91334 .cfa: sp 32 +
STACK CFI 9133c .cfa: sp 0 +
STACK CFI INIT 91340 444 .cfa: sp 0 +
STACK CFI INIT 91c9c 50 .cfa: sp 0 +
STACK CFI 91cc0 .cfa: sp 32 +
STACK CFI 91cc8 .cfa: x29 32 + x19: .cfa -16 + ^ .ra: .cfa -24 + ^ x29: .cfa -32 + ^
STACK CFI 91cdc .cfa: sp 32 +
STACK CFI 91ce4 .cfa: sp 0 +
STACK CFI INIT 91cec 24 .cfa: sp 0 +
STACK CFI 91cf0 .cfa: sp 32 +
STACK CFI 91cf8 .cfa: x29 32 + x19: .cfa -16 + ^ .ra: .cfa -24 + ^ x29: .cfa -32 + ^
STACK CFI 91d04 .cfa: sp 32 +
STACK CFI 91d0c .cfa: sp 0 +
STACK CFI INIT 91d10 a4 .cfa: sp 0 +
STACK CFI 91d14 .cfa: sp 64 +
STACK CFI 91d24 .cfa: x29 48 + x19: .cfa -8 + ^ x20: .cfa -16 + ^ x21: .cfa -24 + ^ x22: .cfa -32 + ^ .ra: .cfa -40 + ^ x29: .cfa -48 + ^
STACK CFI 91d9c .cfa: sp 64 +
STACK CFI 91dac .cfa: sp 0 +
STACK CFI 91db0 .cfa: x29 48 +
STACK CFI INIT 91db4 14 .cfa: sp 0 +
STACK CFI 91db8 .cfa: sp 16 +
STACK CFI 91dbc .cfa: x29 16 + .ra: .cfa -8 + ^ x29: .cfa -16 + ^
STACK CFI INIT 91dc8 24 .cfa: sp 0 +
STACK CFI 91dcc .cfa: sp 32 +
STACK CFI 91dd4 .cfa: x29 32 + x19: .cfa -16 + ^ .ra: .cfa -24 + ^ x29: .cfa -32 + ^
STACK CFI 91de0 .cfa: sp 32 +
STACK CFI 91de8 .cfa: sp 0 +
STACK CFI INIT 91dec 50 .cfa: sp 0 +
STACK CFI 91df0 .cfa: sp 32 +
STACK CFI 91df8 .cfa: x29 32 + x19: .cfa -16 + ^ .ra: .cfa -24 + ^ x29: .cfa -32 + ^
STACK CFI 91e30 .cfa: sp 32 +
STACK CFI 91e38 .cfa: sp 0 +
STACK CFI INIT 91e3c 14 .cfa: sp 0 +
STACK CFI 91e40 .cfa: sp 16 +
STACK CFI 91e44 .cfa: x29 16 + .ra: .cfa -8 + ^ x29: .cfa -16 + ^
STACK CFI INIT 91e50 24 .cfa: sp 0 +
STACK CFI 91e54 .cfa: sp 32 +
STACK CFI 91e5c .cfa: x29 32 + x19: .cfa -16 + ^ .ra: .cfa -24 + ^ x29: .cfa -32 + ^
STACK CFI 91e68 .cfa: sp 32 +
STACK CFI 91e70 .cfa: sp 0 +
STACK CFI INIT 91e74 40 .cfa: sp 0 +
STACK CFI 91e78 .cfa: sp 32 +
STACK CFI 91e80 .cfa: x29 32 + x19: .cfa -16 + ^ .ra: .cfa -24 + ^ x29: .cfa -32 + ^
STACK CFI 91ea8 .cfa: sp 32 +
STACK CFI 91eb0 .cfa: sp 0 +
STACK CFI INIT 91eb4 24 .cfa: sp 0 +
STACK CFI 91eb8 .cfa: sp 32 +
STACK CFI 91ec0 .cfa: x29 32 + x19: .cfa -16 + ^ .ra: .cfa -24 + ^ x29: .cfa -32 + ^
STACK CFI 91ecc .cfa: sp 32 +
STACK CFI 91ed4 .cfa: sp 0 +
STACK CFI INIT 91ed8 14 .cfa: sp 0 +
STACK CFI INIT 92158 4 .cfa: sp 0 +
STACK CFI INIT 9215c 24 .cfa: sp 0 +
STACK CFI 92160 .cfa: sp 16 +
STACK CFI 92164 .cfa: x29 16 + .ra: .cfa -8 + ^ x29: .cfa -16 + ^
STACK CFI 92178 .cfa: sp 16 +
STACK CFI 9217c .cfa: sp 0 +
STACK CFI INIT 92180 10 .cfa: sp 0 +
STACK CFI INIT 92190 4 .cfa: sp 0 +
STACK CFI INIT 92194 4 .cfa: sp 0 +
STACK CFI INIT 92198 20 .cfa: sp 0 +
STACK CFI INIT 921b8 1c .cfa: sp 0 +
STACK CFI INIT 921d4 c .cfa: sp 0 +
STACK CFI INIT 921e0 4 .cfa: sp 0 +
STACK CFI INIT 921e4 24 .cfa: sp 0 +
STACK CFI 921e8 .cfa: sp 16 +
STACK CFI 921ec .cfa: x29 16 + .ra: .cfa -8 + ^ x29: .cfa -16 + ^
STACK CFI 92200 .cfa: sp 16 +
STACK CFI 92204 .cfa: sp 0 +
STACK CFI INIT 92208 10 .cfa: sp 0 +
STACK CFI INIT 92218 4 .cfa: sp 0 +
STACK CFI INIT 9221c 4 .cfa: sp 0 +
STACK CFI INIT 92220 14 .cfa: sp 0 +
STACK CFI INIT 92234 1c .cfa: sp 0 +
STACK CFI INIT 92250 c .cfa: sp 0 +
STACK CFI INIT 9225c 4 .cfa: sp 0 +
STACK CFI INIT 92260 24 .cfa: sp 0 +
STACK CFI 92264 .cfa: sp 16 +
STACK CFI 92268 .cfa: x29 16 + .ra: .cfa -8 + ^ x29: .cfa -16 + ^
STACK CFI 9227c .cfa: sp 16 +
STACK CFI 92280 .cfa: sp 0 +
STACK CFI INIT 92284 10 .cfa: sp 0 +
STACK CFI INIT 92294 4 .cfa: sp 0 +
STACK CFI INIT 92298 4 .cfa: sp 0 +
STACK CFI INIT 9229c 14 .cfa: sp 0 +
STACK CFI INIT 922b0 1c .cfa: sp 0 +
STACK CFI INIT 922cc c .cfa: sp 0 +
STACK CFI INIT 922d8 4 .cfa: sp 0 +
STACK CFI INIT 922dc 24 .cfa: sp 0 +
STACK CFI 922e0 .cfa: sp 16 +
STACK CFI 922e4 .cfa: x29 16 + .ra: .cfa -8 + ^ x29: .cfa -16 + ^
STACK CFI 922f8 .cfa: sp 16 +
STACK CFI 922fc .cfa: sp 0 +
STACK CFI INIT 92300 10 .cfa: sp 0 +
STACK CFI INIT 92310 4 .cfa: sp 0 +
STACK CFI INIT 92314 4 .cfa: sp 0 +
STACK CFI INIT 92318 14 .cfa: sp 0 +
STACK CFI INIT 9232c 1c .cfa: sp 0 +
STACK CFI INIT 92348 c .cfa: sp 0 +
STACK CFI INIT 92354 4 .cfa: sp 0 +
STACK CFI INIT 92358 24 .cfa: sp 0 +
STACK CFI 9235c .cfa: sp 16 +
STACK CFI 92360 .cfa: x29 16 + .ra: .cfa -8 + ^ x29: .cfa -16 + ^
STACK CFI 92374 .cfa: sp 16 +
STACK CFI 92378 .cfa: sp 0 +
STACK CFI INIT 9237c 10 .cfa: sp 0 +
STACK CFI INIT 9238c 4 .cfa: sp 0 +
STACK CFI INIT 92390 4 .cfa: sp 0 +
STACK CFI INIT 92394 14 .cfa: sp 0 +
STACK CFI INIT 923a8 1c .cfa: sp 0 +
STACK CFI INIT 923c4 c .cfa: sp 0 +
STACK CFI INIT 923d0 4 .cfa: sp 0 +
STACK CFI INIT 923d4 4 .cfa: sp 0 +
STACK CFI INIT 923d8 24 .cfa: sp 0 +
STACK CFI 923dc .cfa: sp 16 +
STACK CFI 923e0 .cfa: x29 16 + .ra: .cfa -8 + ^ x29: .cfa -16 + ^
STACK CFI 923f4 .cfa: sp 16 +
STACK CFI 923f8 .cfa: sp 0 +
STACK CFI INIT 923fc 10 .cfa: sp 0 +
STACK CFI INIT 9240c 4 .cfa: sp 0 +
STACK CFI INIT 92410 4 .cfa: sp 0 +
STACK CFI INIT 92414 14 .cfa: sp 0 +
STACK CFI INIT 92428 1c .cfa: sp 0 +
STACK CFI INIT 92444 c .cfa: sp 0 +
STACK CFI INIT 92450 1c .cfa: sp 0 +
STACK CFI 92454 .cfa: sp 16 +
STACK CFI 92458 .cfa: x29 16 + .ra: .cfa -8 + ^ x29: .cfa -16 + ^
STACK CFI 92464 .cfa: sp 16 +
STACK CFI 92468 .cfa: sp 0 +
STACK CFI INIT 9246c 8 .cfa: sp 0 +
STACK CFI INIT 92474 8 .cfa: sp 0 +
STACK CFI INIT 93a48 24 .cfa: sp 0 +
STACK CFI 93a4c .cfa: sp 32 +
STACK CFI 93a54 .cfa: x29 32 + x19: .cfa -16 + ^ .ra: .cfa -24 + ^ x29: .cfa -32 + ^
STACK CFI 93a60 .cfa: sp 32 +
STACK CFI 93a68 .cfa: sp 0 +
STACK CFI INIT 93a6c 18 .cfa: sp 0 +
STACK CFI INIT 93a84 24 .cfa: sp 0 +
STACK CFI 93a88 .cfa: sp 32 +
STACK CFI 93a90 .cfa: x29 32 + x19: .cfa -16 + ^ .ra: .cfa -24 + ^ x29: .cfa -32 + ^
STACK CFI 93a9c .cfa: sp 32 +
STACK CFI 93aa4 .cfa: sp 0 +
STACK CFI INIT 93aa8 14 .cfa: sp 0 +
STACK CFI INIT 93abc 24 .cfa: sp 0 +
STACK CFI 93ac0 .cfa: sp 32 +
STACK CFI 93ac8 .cfa: x29 32 + x19: .cfa -16 + ^ .ra: .cfa -24 + ^ x29: .cfa -32 + ^
STACK CFI 93ad4 .cfa: sp 32 +
STACK CFI 93adc .cfa: sp 0 +
STACK CFI INIT 93ae0 c .cfa: sp 0 +
STACK CFI INIT 93aec c .cfa: sp 0 +
STACK CFI INIT 93af8 8 .cfa: sp 0 +
STACK CFI INIT 93b00 8 .cfa: sp 0 +
STACK CFI INIT 93b08 8 .cfa: sp 0 +
STACK CFI INIT 93b10 8 .cfa: sp 0 +
STACK CFI INIT 93b18 50 .cfa: sp 0 +
STACK CFI 93b20 .cfa: sp 32 +
STACK CFI 93b28 .cfa: x29 32 + x19: .cfa -8 + ^ x20: .cfa -16 + ^ .ra: .cfa -24 + ^ x29: .cfa -32 + ^
STACK CFI 93b58 .cfa: sp 32 +
STACK CFI 93b60 .cfa: sp 0 +
STACK CFI INIT 93b68 54 .cfa: sp 0 +
STACK CFI 93b70 .cfa: sp 32 +
STACK CFI 93b78 .cfa: x29 32 + x19: .cfa -16 + ^ .ra: .cfa -24 + ^ x29: .cfa -32 + ^
STACK CFI 93bac .cfa: sp 32 +
STACK CFI 93bb4 .cfa: sp 0 +
STACK CFI INIT 93bbc 78 .cfa: sp 0 +
STACK CFI 93bc0 .cfa: sp 32 +
STACK CFI 93bc8 .cfa: x29 32 + x19: .cfa -16 + ^ .ra: .cfa -24 + ^ x29: .cfa -32 + ^
STACK CFI 93c28 .cfa: sp 32 +
STACK CFI 93c30 .cfa: sp 0 +
STACK CFI INIT 93c34 104 .cfa: sp 0 +
STACK CFI 93c38 .cfa: sp 16 +
STACK CFI 93c3c .cfa: x29 16 + .ra: .cfa -8 + ^ x29: .cfa -16 + ^
STACK CFI 93d20 .cfa: sp 16 +
STACK CFI 93d24 .cfa: sp 0 +
STACK CFI 93d28 .cfa: x29 16 +
STACK CFI 93d30 .cfa: sp 16 +
STACK CFI 93d34 .cfa: sp 0 +
STACK CFI INIT 93d38 104 .cfa: sp 0 +
STACK CFI 93d3c .cfa: sp 16 +
STACK CFI 93d40 .cfa: x29 16 + .ra: .cfa -8 + ^ x29: .cfa -16 + ^
STACK CFI 93e24 .cfa: sp 16 +
STACK CFI 93e28 .cfa: sp 0 +
STACK CFI 93e2c .cfa: x29 16 +
STACK CFI 93e34 .cfa: sp 16 +
STACK CFI 93e38 .cfa: sp 0 +
STACK CFI INIT 95cf8 1c .cfa: sp 0 +
STACK CFI INIT 96148 1c .cfa: sp 0 +
STACK CFI INIT 96598 1c .cfa: sp 0 +
STACK CFI INIT 969e8 1c .cfa: sp 0 +
STACK CFI INIT 96e38 1c .cfa: sp 0 +
STACK CFI INIT 97288 1c .cfa: sp 0 +
STACK CFI INIT 976d8 1c .cfa: sp 0 +
STACK CFI INIT 97b28 1c .cfa: sp 0 +
STACK CFI INIT 97f78 1c .cfa: sp 0 +
STACK CFI INIT 982f0 4 .cfa: sp 0 +
STACK CFI INIT 98590 b4 .cfa: sp 0 +
STACK CFI 98594 .cfa: sp 32 +
STACK CFI 9859c .cfa: x29 32 + x19: .cfa -16 + ^ .ra: .cfa -24 + ^ x29: .cfa -32 + ^
STACK CFI 98638 .cfa: sp 32 +
STACK CFI 98640 .cfa: sp 0 +
STACK CFI INIT 98644 250 .cfa: sp 0 +
STACK CFI INIT 98894 14 .cfa: sp 0 +
STACK CFI 98898 .cfa: sp 16 +
STACK CFI 9889c .cfa: x29 16 + .ra: .cfa -8 + ^ x29: .cfa -16 + ^
STACK CFI INIT 988a8 1c .cfa: sp 0 +
STACK CFI 988ac .cfa: sp 16 +
STACK CFI 988b0 .cfa: x29 16 + .ra: .cfa -8 + ^ x29: .cfa -16 + ^
STACK CFI 988bc .cfa: sp 16 +
STACK CFI 988c0 .cfa: sp 0 +
STACK CFI INIT 99120 30 .cfa: sp 0 +
STACK CFI 99124 .cfa: sp 32 +
STACK CFI 9912c .cfa: x29 32 + x19: .cfa -16 + ^ .ra: .cfa -24 + ^ x29: .cfa -32 + ^
STACK CFI 99144 .cfa: sp 32 +
STACK CFI 9914c .cfa: sp 0 +
STACK CFI INIT 99150 4 .cfa: sp 0 +
STACK CFI INIT 99154 4 .cfa: sp 0 +
STACK CFI INIT 99158 34 .cfa: sp 0 +
STACK CFI 9915c .cfa: sp 32 +
STACK CFI 99164 .cfa: x29 32 + x19: .cfa -16 + ^ .ra: .cfa -24 + ^ x29: .cfa -32 + ^
STACK CFI 99180 .cfa: sp 32 +
STACK CFI 99188 .cfa: sp 0 +
STACK CFI INIT 9918c 14 .cfa: sp 0 +
STACK CFI INIT 991a0 4 .cfa: sp 0 +
STACK CFI INIT 991a4 4 .cfa: sp 0 +
STACK CFI INIT 991a8 c .cfa: sp 0 +
STACK CFI INIT 991b4 1c .cfa: sp 0 +
STACK CFI INIT 991d0 c .cfa: sp 0 +
STACK CFI INIT 991dc 4 .cfa: sp 0 +
STACK CFI INIT 991e0 4 .cfa: sp 0 +
STACK CFI INIT 991e4 34 .cfa: sp 0 +
STACK CFI 991e8 .cfa: sp 32 +
STACK CFI 991f0 .cfa: x29 32 + x19: .cfa -16 + ^ .ra: .cfa -24 + ^ x29: .cfa -32 + ^
STACK CFI 9920c .cfa: sp 32 +
STACK CFI 99214 .cfa: sp 0 +
STACK CFI INIT 99218 14 .cfa: sp 0 +
STACK CFI INIT 9922c 4 .cfa: sp 0 +
STACK CFI INIT 99230 4 .cfa: sp 0 +
STACK CFI INIT 99234 c .cfa: sp 0 +
STACK CFI INIT 99240 1c .cfa: sp 0 +
STACK CFI INIT 9925c c .cfa: sp 0 +
STACK CFI INIT 99268 4 .cfa: sp 0 +
STACK CFI INIT 9926c 4 .cfa: sp 0 +
STACK CFI INIT 99270 34 .cfa: sp 0 +
STACK CFI 99274 .cfa: sp 32 +
STACK CFI 9927c .cfa: x29 32 + x19: .cfa -16 + ^ .ra: .cfa -24 + ^ x29: .cfa -32 + ^
STACK CFI 99298 .cfa: sp 32 +
STACK CFI 992a0 .cfa: sp 0 +
STACK CFI INIT 992a4 14 .cfa: sp 0 +
STACK CFI INIT 992b8 4 .cfa: sp 0 +
STACK CFI INIT 992bc 4 .cfa: sp 0 +
STACK CFI INIT 992c0 c .cfa: sp 0 +
STACK CFI INIT 992cc 1c .cfa: sp 0 +
STACK CFI INIT 992e8 c .cfa: sp 0 +
STACK CFI INIT 992f4 4 .cfa: sp 0 +
STACK CFI INIT 992f8 4 .cfa: sp 0 +
STACK CFI INIT 992fc 34 .cfa: sp 0 +
STACK CFI 99300 .cfa: sp 32 +
STACK CFI 99308 .cfa: x29 32 + x19: .cfa -16 + ^ .ra: .cfa -24 + ^ x29: .cfa -32 + ^
STACK CFI 99324 .cfa: sp 32 +
STACK CFI 9932c .cfa: sp 0 +
STACK CFI INIT 99330 14 .cfa: sp 0 +
STACK CFI INIT 99344 4 .cfa: sp 0 +
STACK CFI INIT 99348 4 .cfa: sp 0 +
STACK CFI INIT 9934c c .cfa: sp 0 +
STACK CFI INIT 99358 1c .cfa: sp 0 +
STACK CFI INIT 99374 c .cfa: sp 0 +
STACK CFI INIT 996f0 4 .cfa: sp 0 +
STACK CFI INIT 998f0 8c .cfa: sp 0 +
STACK CFI 998f4 .cfa: sp 32 +
STACK CFI 998fc .cfa: x29 32 + x19: .cfa -16 + ^ .ra: .cfa -24 + ^ x29: .cfa -32 + ^
STACK CFI 99970 .cfa: sp 32 +
STACK CFI 99978 .cfa: sp 0 +
STACK CFI INIT 9997c 1c .cfa: sp 0 +
STACK CFI 99980 .cfa: sp 16 +
STACK CFI 99984 .cfa: x29 16 + .ra: .cfa -8 + ^ x29: .cfa -16 + ^
STACK CFI 99990 .cfa: sp 16 +
STACK CFI 99994 .cfa: sp 0 +
STACK CFI INIT 9a010 4 .cfa: sp 0 +
STACK CFI INIT 9a288 58 .cfa: sp 0 +
STACK CFI 9a28c .cfa: sp 32 +
STACK CFI 9a294 .cfa: x29 32 + x19: .cfa -8 + ^ x20: .cfa -16 + ^ .ra: .cfa -24 + ^ x29: .cfa -32 + ^
STACK CFI 9a2c8 .cfa: sp 32 +
STACK CFI 9a2d0 .cfa: sp 0 +
STACK CFI 9a2d4 .cfa: sp 32 +
STACK CFI 9a2dc .cfa: sp 0 +
STACK CFI INIT 9a2e0 1c .cfa: sp 0 +
STACK CFI 9a2e4 .cfa: sp 16 +
STACK CFI 9a2e8 .cfa: x29 16 + .ra: .cfa -8 + ^ x29: .cfa -16 + ^
STACK CFI 9a2f4 .cfa: sp 16 +
STACK CFI 9a2f8 .cfa: sp 0 +
STACK CFI INIT 9a938 4 .cfa: sp 0 +
STACK CFI INIT 9a93c 14 .cfa: sp 0 +
STACK CFI 9a940 .cfa: sp 16 +
STACK CFI 9a944 .cfa: x29 16 + .ra: .cfa -8 + ^ x29: .cfa -16 + ^
STACK CFI INIT 9a950 14 .cfa: sp 0 +
STACK CFI 9a954 .cfa: sp 16 +
STACK CFI 9a958 .cfa: x29 16 + .ra: .cfa -8 + ^ x29: .cfa -16 + ^
STACK CFI INIT 9a964 14 .cfa: sp 0 +
STACK CFI 9a968 .cfa: sp 16 +
STACK CFI 9a96c .cfa: x29 16 + .ra: .cfa -8 + ^ x29: .cfa -16 + ^
STACK CFI INIT 9a978 14 .cfa: sp 0 +
STACK CFI 9a97c .cfa: sp 16 +
STACK CFI 9a980 .cfa: x29 16 + .ra: .cfa -8 + ^ x29: .cfa -16 + ^
STACK CFI INIT 9a98c 4 .cfa: sp 0 +
STACK CFI INIT 9a990 4 .cfa: sp 0 +
STACK CFI INIT 9a994 38 .cfa: sp 0 +
STACK CFI 9a998 .cfa: sp 32 +
STACK CFI 9a9a0 .cfa: x29 32 + x19: .cfa -16 + ^ .ra: .cfa -24 + ^ x29: .cfa -32 + ^
STACK CFI 9a9c0 .cfa: sp 32 +
STACK CFI 9a9c8 .cfa: sp 0 +
STACK CFI INIT 9a9cc 18 .cfa: sp 0 +
STACK CFI INIT 9a9e4 4 .cfa: sp 0 +
STACK CFI INIT 9a9e8 4 .cfa: sp 0 +
STACK CFI INIT 9a9ec 10 .cfa: sp 0 +
STACK CFI INIT 9a9fc 1c .cfa: sp 0 +
STACK CFI INIT 9aa18 c .cfa: sp 0 +
STACK CFI INIT 9b110 4 .cfa: sp 0 +
STACK CFI INIT 9b1cc 28 .cfa: sp 0 +
STACK CFI 9b1d0 .cfa: sp 32 +
STACK CFI 9b1d8 .cfa: x29 16 + .ra: .cfa -8 + ^ x29: .cfa -16 + ^ v8: .cfa -32 + ^
STACK CFI 9b1e8 .cfa: sp 32 +
STACK CFI 9b1f0 .cfa: sp 0 +
STACK CFI INIT 9b1f4 20 .cfa: sp 0 +
STACK CFI 9b1f8 .cfa: sp 16 +
STACK CFI 9b1fc .cfa: x29 16 + .ra: .cfa -8 + ^ x29: .cfa -16 + ^
STACK CFI 9b20c .cfa: sp 16 +
STACK CFI 9b210 .cfa: sp 0 +
STACK CFI INIT 9be48 78 .cfa: sp 0 +
STACK CFI 9be4c .cfa: sp 48 +
STACK CFI 9be58 .cfa: x29 48 + x19: .cfa -8 + ^ x20: .cfa -16 + ^ x21: .cfa -32 + ^ .ra: .cfa -40 + ^ x29: .cfa -48 + ^
STACK CFI 9bea0 .cfa: sp 48 +
STACK CFI 9beac .cfa: sp 0 +
STACK CFI 9beb0 .cfa: sp 48 +
STACK CFI 9bebc .cfa: sp 0 +
STACK CFI INIT 9bec0 78 .cfa: sp 0 +
STACK CFI 9bec4 .cfa: sp 48 +
STACK CFI 9bed0 .cfa: x29 48 + x19: .cfa -8 + ^ x20: .cfa -16 + ^ x21: .cfa -32 + ^ .ra: .cfa -40 + ^ x29: .cfa -48 + ^
STACK CFI 9bf18 .cfa: sp 48 +
STACK CFI 9bf24 .cfa: sp 0 +
STACK CFI 9bf28 .cfa: sp 48 +
STACK CFI 9bf34 .cfa: sp 0 +
STACK CFI INIT 9bf38 84 .cfa: sp 0 +
STACK CFI 9bf3c .cfa: sp 48 +
STACK CFI 9bf48 .cfa: x29 48 + x19: .cfa -8 + ^ x20: .cfa -16 + ^ x21: .cfa -24 + ^ x22: .cfa -32 + ^ .ra: .cfa -40 + ^ x29: .cfa -48 + ^
STACK CFI 9bf9c .cfa: sp 48 +
STACK CFI 9bfa8 .cfa: sp 0 +
STACK CFI 9bfac .cfa: sp 48 +
STACK CFI 9bfb8 .cfa: sp 0 +
STACK CFI INIT 9bfd8 8c .cfa: sp 0 +
STACK CFI 9bfdc .cfa: sp 48 +
STACK CFI 9bfe8 .cfa: x29 48 + x19: .cfa -8 + ^ x20: .cfa -16 + ^ x21: .cfa -24 + ^ x22: .cfa -32 + ^ .ra: .cfa -40 + ^ x29: .cfa -48 + ^
STACK CFI 9c020 .cfa: sp 48 +
STACK CFI 9c02c .cfa: sp 0 +
STACK CFI 9c030 .cfa: x29 48 +
STACK CFI 9c054 .cfa: sp 48 +
STACK CFI 9c060 .cfa: sp 0 +
STACK CFI INIT 9c064 78 .cfa: sp 0 +
STACK CFI 9c068 .cfa: sp 48 +
STACK CFI 9c074 .cfa: x29 48 + x19: .cfa -8 + ^ x20: .cfa -16 + ^ x21: .cfa -32 + ^ .ra: .cfa -40 + ^ x29: .cfa -48 + ^
STACK CFI 9c0bc .cfa: sp 48 +
STACK CFI 9c0c8 .cfa: sp 0 +
STACK CFI 9c0cc .cfa: sp 48 +
STACK CFI 9c0d8 .cfa: sp 0 +
STACK CFI INIT 9c0dc 8c .cfa: sp 0 +
STACK CFI 9c0e0 .cfa: sp 48 +
STACK CFI 9c0ec .cfa: x29 48 + x19: .cfa -8 + ^ x20: .cfa -16 + ^ x21: .cfa -24 + ^ x22: .cfa -32 + ^ .ra: .cfa -40 + ^ x29: .cfa -48 + ^
STACK CFI 9c124 .cfa: sp 48 +
STACK CFI 9c130 .cfa: sp 0 +
STACK CFI 9c134 .cfa: x29 48 +
STACK CFI 9c158 .cfa: sp 48 +
STACK CFI 9c164 .cfa: sp 0 +
STACK CFI INIT 9c168 78 .cfa: sp 0 +
STACK CFI 9c16c .cfa: sp 48 +
STACK CFI 9c178 .cfa: x29 48 + x19: .cfa -8 + ^ x20: .cfa -16 + ^ x21: .cfa -32 + ^ .ra: .cfa -40 + ^ x29: .cfa -48 + ^
STACK CFI 9c1c0 .cfa: sp 48 +
STACK CFI 9c1cc .cfa: sp 0 +
STACK CFI 9c1d0 .cfa: sp 48 +
STACK CFI 9c1dc .cfa: sp 0 +
STACK CFI INIT 9c1e0 104 .cfa: sp 0 +
STACK CFI 9c1e4 .cfa: sp 64 +
STACK CFI 9c1f4 .cfa: x29 64 + x19: .cfa -8 + ^ x20: .cfa -16 + ^ x21: .cfa -24 + ^ x22: .cfa -32 + ^ x23: .cfa -48 + ^ .ra: .cfa -56 + ^ x29: .cfa -64 + ^
STACK CFI 9c2bc .cfa: sp 64 +
STACK CFI 9c2cc .cfa: sp 0 +
STACK CFI 9c2d0 .cfa: sp 64 +
STACK CFI 9c2e0 .cfa: sp 0 +
STACK CFI INIT 9c724 78 .cfa: sp 0 +
STACK CFI 9c728 .cfa: sp 48 +
STACK CFI 9c734 .cfa: x29 48 + x19: .cfa -8 + ^ x20: .cfa -16 + ^ x21: .cfa -32 + ^ .ra: .cfa -40 + ^ x29: .cfa -48 + ^
STACK CFI 9c77c .cfa: sp 48 +
STACK CFI 9c788 .cfa: sp 0 +
STACK CFI 9c78c .cfa: sp 48 +
STACK CFI 9c798 .cfa: sp 0 +
STACK CFI INIT 9c7b8 90 .cfa: sp 0 +
STACK CFI 9c7bc .cfa: sp 48 +
STACK CFI 9c7c8 .cfa: x29 48 + x19: .cfa -8 + ^ x20: .cfa -16 + ^ x21: .cfa -24 + ^ x22: .cfa -32 + ^ .ra: .cfa -40 + ^ x29: .cfa -48 + ^
STACK CFI 9c800 .cfa: sp 48 +
STACK CFI 9c80c .cfa: sp 0 +
STACK CFI 9c810 .cfa: x29 48 +
STACK CFI 9c838 .cfa: sp 48 +
STACK CFI 9c844 .cfa: sp 0 +
STACK CFI INIT 9c978 78 .cfa: sp 0 +
STACK CFI 9c97c .cfa: sp 48 +
STACK CFI 9c988 .cfa: x29 48 + x19: .cfa -8 + ^ x20: .cfa -16 + ^ x21: .cfa -32 + ^ .ra: .cfa -40 + ^ x29: .cfa -48 + ^
STACK CFI 9c9d0 .cfa: sp 48 +
STACK CFI 9c9dc .cfa: sp 0 +
STACK CFI 9c9e0 .cfa: sp 48 +
STACK CFI 9c9ec .cfa: sp 0 +
STACK CFI INIT 9c9f0 78 .cfa: sp 0 +
STACK CFI 9c9f4 .cfa: sp 48 +
STACK CFI 9ca00 .cfa: x29 48 + x19: .cfa -8 + ^ x20: .cfa -16 + ^ x21: .cfa -32 + ^ .ra: .cfa -40 + ^ x29: .cfa -48 + ^
STACK CFI 9ca48 .cfa: sp 48 +
STACK CFI 9ca54 .cfa: sp 0 +
STACK CFI 9ca58 .cfa: sp 48 +
STACK CFI 9ca64 .cfa: sp 0 +
STACK CFI INIT 9ca68 78 .cfa: sp 0 +
STACK CFI 9ca6c .cfa: sp 48 +
STACK CFI 9ca78 .cfa: x29 48 + x19: .cfa -8 + ^ x20: .cfa -16 + ^ x21: .cfa -32 + ^ .ra: .cfa -40 + ^ x29: .cfa -48 + ^
STACK CFI 9cac0 .cfa: sp 48 +
STACK CFI 9cacc .cfa: sp 0 +
STACK CFI 9cad0 .cfa: sp 48 +
STACK CFI 9cadc .cfa: sp 0 +
STACK CFI INIT 9cae0 78 .cfa: sp 0 +
STACK CFI 9cae4 .cfa: sp 48 +
STACK CFI 9caf0 .cfa: x29 48 + x19: .cfa -8 + ^ x20: .cfa -16 + ^ x21: .cfa -32 + ^ .ra: .cfa -40 + ^ x29: .cfa -48 + ^
STACK CFI 9cb38 .cfa: sp 48 +
STACK CFI 9cb44 .cfa: sp 0 +
STACK CFI 9cb48 .cfa: sp 48 +
STACK CFI 9cb54 .cfa: sp 0 +
STACK CFI INIT 9cd24 250 .cfa: sp 0 +
STACK CFI 9cd28 .cfa: sp 80 +
STACK CFI 9cd3c .cfa: x29 80 + x19: .cfa -8 + ^ x20: .cfa -16 + ^ x21: .cfa -24 + ^ x22: .cfa -32 + ^ x23: .cfa -40 + ^ x24: .cfa -48 + ^ x25: .cfa -64 + ^ .ra: .cfa -72 + ^ x29: .cfa -80 + ^
STACK CFI 9cf54 .cfa: sp 80 +
STACK CFI 9cf68 .cfa: sp 0 +
STACK CFI 9cf6c .cfa: x29 80 +
STACK CFI INIT 9cf74 80 .cfa: sp 0 +
STACK CFI 9cf78 .cfa: sp 48 +
STACK CFI 9cf84 .cfa: x29 48 + x19: .cfa -8 + ^ x20: .cfa -16 + ^ x21: .cfa -32 + ^ .ra: .cfa -40 + ^ x29: .cfa -48 + ^
STACK CFI 9cfd4 .cfa: sp 48 +
STACK CFI 9cfe0 .cfa: sp 0 +
STACK CFI 9cfe4 .cfa: sp 48 +
STACK CFI 9cff0 .cfa: sp 0 +
STACK CFI INIT 9cff4 80 .cfa: sp 0 +
STACK CFI 9cff8 .cfa: sp 48 +
STACK CFI 9d004 .cfa: x29 48 + x19: .cfa -8 + ^ x20: .cfa -16 + ^ x21: .cfa -32 + ^ .ra: .cfa -40 + ^ x29: .cfa -48 + ^
STACK CFI 9d054 .cfa: sp 48 +
STACK CFI 9d060 .cfa: sp 0 +
STACK CFI 9d064 .cfa: sp 48 +
STACK CFI 9d070 .cfa: sp 0 +
STACK CFI INIT 9d208 1c8 .cfa: sp 0 +
STACK CFI 9d20c .cfa: sp 64 +
STACK CFI 9d21c .cfa: x29 64 + x19: .cfa -8 + ^ x20: .cfa -16 + ^ x21: .cfa -24 + ^ x22: .cfa -32 + ^ x23: .cfa -48 + ^ .ra: .cfa -56 + ^ x29: .cfa -64 + ^
STACK CFI 9d310 .cfa: sp 64 +
STACK CFI 9d320 .cfa: sp 0 +
STACK CFI 9d324 .cfa: x29 64 +
STACK CFI INIT 9d3d0 80 .cfa: sp 0 +
STACK CFI 9d3d4 .cfa: sp 48 +
STACK CFI 9d3e0 .cfa: x29 48 + x19: .cfa -8 + ^ x20: .cfa -16 + ^ x21: .cfa -32 + ^ .ra: .cfa -40 + ^ x29: .cfa -48 + ^
STACK CFI 9d430 .cfa: sp 48 +
STACK CFI 9d43c .cfa: sp 0 +
STACK CFI 9d440 .cfa: sp 48 +
STACK CFI 9d44c .cfa: sp 0 +
STACK CFI INIT 9d450 98 .cfa: sp 0 +
STACK CFI 9d458 .cfa: sp 48 +
STACK CFI 9d464 .cfa: x29 48 + x19: .cfa -8 + ^ x20: .cfa -16 + ^ x21: .cfa -32 + ^ .ra: .cfa -40 + ^ x29: .cfa -48 + ^
STACK CFI 9d4b4 .cfa: sp 0 + x19: x19 x20: x20 x21: x21 .ra: x30 x29: x29
STACK CFI 9d4b8 .cfa: x29 48 + x19: .cfa -8 + ^ x20: .cfa -16 + ^ x21: .cfa -32 + ^ .ra: .cfa -40 + ^ x29: .cfa -48 + ^
STACK CFI 9d4d8 .cfa: sp 48 +
STACK CFI 9d4e4 .cfa: sp 0 +
STACK CFI INIT 9d4e8 4c .cfa: sp 0 +
STACK CFI 9d4f0 .cfa: sp 32 +
STACK CFI 9d4f8 .cfa: x29 32 + x19: .cfa -8 + ^ x20: .cfa -16 + ^ .ra: .cfa -24 + ^ x29: .cfa -32 + ^
STACK CFI 9d528 .cfa: sp 32 +
STACK CFI 9d530 .cfa: sp 0 +
STACK CFI INIT 9d534 4c .cfa: sp 0 +
STACK CFI 9d53c .cfa: sp 32 +
STACK CFI 9d544 .cfa: x29 32 + x19: .cfa -8 + ^ x20: .cfa -16 + ^ .ra: .cfa -24 + ^ x29: .cfa -32 + ^
STACK CFI 9d574 .cfa: sp 32 +
STACK CFI 9d57c .cfa: sp 0 +
STACK CFI INIT 9d608 4c .cfa: sp 0 +
STACK CFI 9d610 .cfa: sp 32 +
STACK CFI 9d618 .cfa: x29 32 + x19: .cfa -8 + ^ x20: .cfa -16 + ^ .ra: .cfa -24 + ^ x29: .cfa -32 + ^
STACK CFI 9d648 .cfa: sp 32 +
STACK CFI 9d650 .cfa: sp 0 +
STACK CFI INIT 9d654 a8 .cfa: sp 0 +
STACK CFI 9d65c .cfa: sp 48 +
STACK CFI 9d668 .cfa: x29 48 + x19: .cfa -8 + ^ x20: .cfa -16 + ^ x21: .cfa -24 + ^ x22: .cfa -32 + ^ .ra: .cfa -40 + ^ x29: .cfa -48 + ^
STACK CFI 9d6ec .cfa: sp 48 +
STACK CFI 9d6f8 .cfa: sp 0 +
STACK CFI INIT 9d6fc 4c .cfa: sp 0 +
STACK CFI 9d704 .cfa: sp 32 +
STACK CFI 9d70c .cfa: x29 32 + x19: .cfa -8 + ^ x20: .cfa -16 + ^ .ra: .cfa -24 + ^ x29: .cfa -32 + ^
STACK CFI 9d73c .cfa: sp 32 +
STACK CFI 9d744 .cfa: sp 0 +
STACK CFI INIT 9de18 4 .cfa: sp 0 +
STACK CFI INIT 9e620 a4 .cfa: sp 0 +
STACK CFI 9e624 .cfa: sp 32 +
STACK CFI 9e62c .cfa: x29 32 + x19: .cfa -16 + ^ .ra: .cfa -24 + ^ x29: .cfa -32 + ^
STACK CFI 9e6b8 .cfa: sp 32 +
STACK CFI 9e6c0 .cfa: sp 0 +
STACK CFI INIT 9ef44 4 .cfa: sp 0 +
STACK CFI INIT 9f64c 4 .cfa: sp 0 +
STACK CFI INIT 9f970 a4 .cfa: sp 0 +
STACK CFI 9f974 .cfa: sp 64 +
STACK CFI 9f984 .cfa: x29 64 + x19: .cfa -8 + ^ x20: .cfa -16 + ^ x21: .cfa -24 + ^ x22: .cfa -32 + ^ x23: .cfa -48 + ^ .ra: .cfa -56 + ^ x29: .cfa -64 + ^
STACK CFI 9fa00 .cfa: sp 64 +
STACK CFI 9fa10 .cfa: sp 0 +
STACK CFI INIT 9fa14 78 .cfa: sp 0 +
STACK CFI 9fa18 .cfa: sp 32 +
STACK CFI 9fa20 .cfa: x29 32 + x19: .cfa -16 + ^ .ra: .cfa -24 + ^ x29: .cfa -32 + ^
STACK CFI 9fa80 .cfa: sp 32 +
STACK CFI 9fa88 .cfa: sp 0 +
STACK CFI INIT a03a0 4 .cfa: sp 0 +
STACK CFI INIT a0750 60 .cfa: sp 0 +
STACK CFI a0754 .cfa: sp 48 +
STACK CFI a0760 .cfa: x29 48 + x19: .cfa -8 + ^ x20: .cfa -16 + ^ x21: .cfa -32 + ^ .ra: .cfa -40 + ^ x29: .cfa -48 + ^
STACK CFI a07a0 .cfa: sp 48 +
STACK CFI a07ac .cfa: sp 0 +
STACK CFI INIT a091c 98 .cfa: sp 0 +
STACK CFI INIT a0d7c 4 .cfa: sp 0 +
STACK CFI INIT a1d74 4 .cfa: sp 0 +
STACK CFI INIT a1d78 48 .cfa: sp 0 +
STACK CFI a1d7c .cfa: sp 32 +
STACK CFI a1d84 .cfa: x29 32 + x19: .cfa -16 + ^ .ra: .cfa -24 + ^ x29: .cfa -32 + ^
STACK CFI a1da8 .cfa: sp 32 +
STACK CFI a1db0 .cfa: sp 0 +
STACK CFI a1db4 .cfa: sp 32 +
STACK CFI a1dbc .cfa: sp 0 +
STACK CFI INIT a2a18 48 .cfa: sp 0 +
STACK CFI a2a1c .cfa: sp 32 +
STACK CFI a2a24 .cfa: x29 32 + x19: .cfa -16 + ^ .ra: .cfa -24 + ^ x29: .cfa -32 + ^
STACK CFI a2a48 .cfa: sp 32 +
STACK CFI a2a50 .cfa: sp 0 +
STACK CFI a2a54 .cfa: sp 32 +
STACK CFI a2a5c .cfa: sp 0 +
STACK CFI INIT a4b28 78 .cfa: sp 0 +
STACK CFI a4b2c .cfa: sp 48 +
STACK CFI a4b38 .cfa: x29 48 + x19: .cfa -8 + ^ x20: .cfa -16 + ^ x21: .cfa -32 + ^ .ra: .cfa -40 + ^ x29: .cfa -48 + ^
STACK CFI a4b80 .cfa: sp 48 +
STACK CFI a4b8c .cfa: sp 0 +
STACK CFI a4b90 .cfa: sp 48 +
STACK CFI a4b9c .cfa: sp 0 +
STACK CFI INIT a4ba0 78 .cfa: sp 0 +
STACK CFI a4ba4 .cfa: sp 48 +
STACK CFI a4bb0 .cfa: x29 48 + x19: .cfa -8 + ^ x20: .cfa -16 + ^ x21: .cfa -32 + ^ .ra: .cfa -40 + ^ x29: .cfa -48 + ^
STACK CFI a4bf8 .cfa: sp 48 +
STACK CFI a4c04 .cfa: sp 0 +
STACK CFI a4c08 .cfa: sp 48 +
STACK CFI a4c14 .cfa: sp 0 +
STACK CFI INIT a4c18 44 .cfa: sp 0 +
STACK CFI a4c1c .cfa: sp 32 +
STACK CFI a4c24 .cfa: x29 32 + x19: .cfa -16 + ^ .ra: .cfa -24 + ^ x29: .cfa -32 + ^
STACK CFI a4c50 .cfa: sp 32 +
STACK CFI a4c58 .cfa: sp 0 +
STACK CFI INIT a4c5c 4c .cfa: sp 0 +
STACK CFI a4c64 .cfa: sp 32 +
STACK CFI a4c6c .cfa: x29 32 + x19: .cfa -8 + ^ x20: .cfa -16 + ^ .ra: .cfa -24 + ^ x29: .cfa -32 + ^
STACK CFI a4c9c .cfa: sp 32 +
STACK CFI a4ca4 .cfa: sp 0 +
STACK CFI INIT a6840 ac .cfa: sp 0 +
STACK CFI a6844 .cfa: sp 32 +
STACK CFI a684c .cfa: x29 32 + x19: .cfa -16 + ^ .ra: .cfa -24 + ^ x29: .cfa -32 + ^
STACK CFI a6880 .cfa: sp 32 +
STACK CFI a6888 .cfa: sp 0 +
STACK CFI a688c .cfa: x29 32 +
STACK CFI a68e0 .cfa: sp 32 +
STACK CFI a68e8 .cfa: sp 0 +
STACK CFI INIT a68ec f0 .cfa: sp 0 +
STACK CFI a68f0 .cfa: sp 64 +
STACK CFI a6900 .cfa: x29 64 + x19: .cfa -8 + ^ x20: .cfa -16 + ^ x21: .cfa -24 + ^ x22: .cfa -32 + ^ x23: .cfa -48 + ^ .ra: .cfa -56 + ^ x29: .cfa -64 + ^
STACK CFI a69c8 .cfa: sp 64 +
STACK CFI a69d8 .cfa: sp 0 +
STACK CFI INIT a6ba8 24 .cfa: sp 0 +
STACK CFI a6bac .cfa: sp 32 +
STACK CFI a6bb4 .cfa: x29 32 + x19: .cfa -16 + ^ .ra: .cfa -24 + ^ x29: .cfa -32 + ^
STACK CFI a6bc0 .cfa: sp 32 +
STACK CFI a6bc8 .cfa: sp 0 +
STACK CFI INIT a6bcc 14 .cfa: sp 0 +
STACK CFI INIT a7268 30 .cfa: sp 0 +
STACK CFI a726c .cfa: sp 32 +
STACK CFI a7274 .cfa: x29 32 + x19: .cfa -16 + ^ .ra: .cfa -24 + ^ x29: .cfa -32 + ^
STACK CFI a728c .cfa: sp 32 +
STACK CFI a7294 .cfa: sp 0 +
STACK CFI INIT a7298 30 .cfa: sp 0 +
STACK CFI a729c .cfa: sp 32 +
STACK CFI a72a4 .cfa: x29 32 + x19: .cfa -16 + ^ .ra: .cfa -24 + ^ x29: .cfa -32 + ^
STACK CFI a72bc .cfa: sp 32 +
STACK CFI a72c4 .cfa: sp 0 +
STACK CFI INIT a72c8 4c .cfa: sp 0 +
STACK CFI a72cc .cfa: sp 32 +
STACK CFI a72d4 .cfa: x29 32 + x19: .cfa -8 + ^ x20: .cfa -16 + ^ .ra: .cfa -24 + ^ x29: .cfa -32 + ^
STACK CFI a72fc .cfa: sp 32 +
STACK CFI a7304 .cfa: sp 0 +
STACK CFI a7308 .cfa: sp 32 +
STACK CFI a7310 .cfa: sp 0 +
STACK CFI INIT a7534 64 .cfa: sp 0 +
STACK CFI a7538 .cfa: sp 32 +
STACK CFI a7540 .cfa: x29 32 + x19: .cfa -16 + ^ .ra: .cfa -24 + ^ x29: .cfa -32 + ^
STACK CFI a756c .cfa: sp 32 +
STACK CFI a7574 .cfa: sp 0 +
STACK CFI a7578 .cfa: x29 32 +
STACK CFI a758c .cfa: sp 32 +
STACK CFI a7594 .cfa: sp 0 +
STACK CFI INIT a77e4 24 .cfa: sp 0 +
STACK CFI a77e8 .cfa: sp 32 +
STACK CFI a77f0 .cfa: x29 32 + x19: .cfa -16 + ^ .ra: .cfa -24 + ^ x29: .cfa -32 + ^
STACK CFI a77fc .cfa: sp 32 +
STACK CFI a7804 .cfa: sp 0 +
STACK CFI INIT a7808 24 .cfa: sp 0 +
STACK CFI a780c .cfa: sp 32 +
STACK CFI a7814 .cfa: x29 32 + x19: .cfa -16 + ^ .ra: .cfa -24 + ^ x29: .cfa -32 + ^
STACK CFI a7820 .cfa: sp 32 +
STACK CFI a7828 .cfa: sp 0 +
STACK CFI INIT a782c 24 .cfa: sp 0 +
STACK CFI a7830 .cfa: sp 32 +
STACK CFI a7838 .cfa: x29 32 + x19: .cfa -16 + ^ .ra: .cfa -24 + ^ x29: .cfa -32 + ^
STACK CFI a7844 .cfa: sp 32 +
STACK CFI a784c .cfa: sp 0 +
STACK CFI INIT a7abc 24 .cfa: sp 0 +
STACK CFI a7ac0 .cfa: sp 32 +
STACK CFI a7ac8 .cfa: x29 32 + x19: .cfa -16 + ^ .ra: .cfa -24 + ^ x29: .cfa -32 + ^
STACK CFI a7ad4 .cfa: sp 32 +
STACK CFI a7adc .cfa: sp 0 +
STACK CFI INIT a7ae0 24 .cfa: sp 0 +
STACK CFI a7ae4 .cfa: sp 32 +
STACK CFI a7aec .cfa: x29 32 + x19: .cfa -16 + ^ .ra: .cfa -24 + ^ x29: .cfa -32 + ^
STACK CFI a7af8 .cfa: sp 32 +
STACK CFI a7b00 .cfa: sp 0 +
STACK CFI INIT a7fa0 8 .cfa: sp 0 +
STACK CFI INIT a7fa8 24 .cfa: sp 0 +
STACK CFI a7fac .cfa: sp 32 +
STACK CFI a7fb4 .cfa: x29 32 + x19: .cfa -16 + ^ .ra: .cfa -24 + ^ x29: .cfa -32 + ^
STACK CFI a7fc0 .cfa: sp 32 +
STACK CFI a7fc8 .cfa: sp 0 +
STACK CFI INIT a7fcc 28 .cfa: sp 0 +
STACK CFI a7fd0 .cfa: sp 32 +
STACK CFI a7fd8 .cfa: x29 32 + x19: .cfa -16 + ^ .ra: .cfa -24 + ^ x29: .cfa -32 + ^
STACK CFI a7fe8 .cfa: sp 32 +
STACK CFI a7ff0 .cfa: sp 0 +
STACK CFI INIT a8590 8 .cfa: sp 0 +
STACK CFI INIT a8598 24 .cfa: sp 0 +
STACK CFI a859c .cfa: sp 32 +
STACK CFI a85a4 .cfa: x29 32 + x19: .cfa -16 + ^ .ra: .cfa -24 + ^ x29: .cfa -32 + ^
STACK CFI a85b0 .cfa: sp 32 +
STACK CFI a85b8 .cfa: sp 0 +
STACK CFI INIT a85bc 28 .cfa: sp 0 +
STACK CFI a85c0 .cfa: sp 32 +
STACK CFI a85c8 .cfa: x29 32 + x19: .cfa -16 + ^ .ra: .cfa -24 + ^ x29: .cfa -32 + ^
STACK CFI a85d8 .cfa: sp 32 +
STACK CFI a85e0 .cfa: sp 0 +
STACK CFI INIT a8850 8 .cfa: sp 0 +
STACK CFI INIT a8858 24 .cfa: sp 0 +
STACK CFI a885c .cfa: sp 32 +
STACK CFI a8864 .cfa: x29 32 + x19: .cfa -16 + ^ .ra: .cfa -24 + ^ x29: .cfa -32 + ^
STACK CFI a8870 .cfa: sp 32 +
STACK CFI a8878 .cfa: sp 0 +
STACK CFI INIT a887c 28 .cfa: sp 0 +
STACK CFI a8880 .cfa: sp 32 +
STACK CFI a8888 .cfa: x29 32 + x19: .cfa -16 + ^ .ra: .cfa -24 + ^ x29: .cfa -32 + ^
STACK CFI a8898 .cfa: sp 32 +
STACK CFI a88a0 .cfa: sp 0 +
STACK CFI INIT a8b0c 24 .cfa: sp 0 +
STACK CFI a8b10 .cfa: sp 32 +
STACK CFI a8b18 .cfa: x29 32 + x19: .cfa -16 + ^ .ra: .cfa -24 + ^ x29: .cfa -32 + ^
STACK CFI a8b24 .cfa: sp 32 +
STACK CFI a8b2c .cfa: sp 0 +
STACK CFI INIT a8b30 24 .cfa: sp 0 +
STACK CFI a8b34 .cfa: sp 32 +
STACK CFI a8b3c .cfa: x29 32 + x19: .cfa -16 + ^ .ra: .cfa -24 + ^ x29: .cfa -32 + ^
STACK CFI a8b48 .cfa: sp 32 +
STACK CFI a8b50 .cfa: sp 0 +
STACK CFI INIT a8b54 9c .cfa: sp 0 +
STACK CFI a8b58 .cfa: sp 32 +
STACK CFI a8b60 .cfa: x29 32 + x19: .cfa -16 + ^ .ra: .cfa -24 + ^ x29: .cfa -32 + ^
STACK CFI a8be4 .cfa: sp 32 +
STACK CFI a8bec .cfa: sp 0 +
STACK CFI INIT a8bf0 8 .cfa: sp 0 +
STACK CFI INIT a8bf8 24 .cfa: sp 0 +
STACK CFI a8bfc .cfa: sp 32 +
STACK CFI a8c04 .cfa: x29 32 + x19: .cfa -16 + ^ .ra: .cfa -24 + ^ x29: .cfa -32 + ^
STACK CFI a8c10 .cfa: sp 32 +
STACK CFI a8c18 .cfa: sp 0 +
STACK CFI INIT a8c1c 28 .cfa: sp 0 +
STACK CFI a8c20 .cfa: sp 32 +
STACK CFI a8c28 .cfa: x29 32 + x19: .cfa -16 + ^ .ra: .cfa -24 + ^ x29: .cfa -32 + ^
STACK CFI a8c38 .cfa: sp 32 +
STACK CFI a8c40 .cfa: sp 0 +
STACK CFI INIT a8c44 4 .cfa: sp 0 +
STACK CFI INIT a8c48 4 .cfa: sp 0 +
STACK CFI INIT a8c4c 4 .cfa: sp 0 +
STACK CFI INIT a8c50 4 .cfa: sp 0 +
STACK CFI INIT a8c54 8 .cfa: sp 0 +
STACK CFI INIT a8c5c 4 .cfa: sp 0 +
STACK CFI INIT a8f20 4 .cfa: sp 0 +
STACK CFI INIT a8f24 4 .cfa: sp 0 +
STACK CFI INIT a913c 4 .cfa: sp 0 +
STACK CFI INIT a9140 4 .cfa: sp 0 +
STACK CFI INIT a9144 4 .cfa: sp 0 +
STACK CFI INIT a9148 4 .cfa: sp 0 +
STACK CFI INIT a914c 4 .cfa: sp 0 +
STACK CFI INIT a9150 4 .cfa: sp 0 +
STACK CFI INIT a9154 8 .cfa: sp 0 +
STACK CFI INIT a915c 8 .cfa: sp 0 +
STACK CFI INIT a9164 8 .cfa: sp 0 +
STACK CFI INIT a916c 4 .cfa: sp 0 +
STACK CFI INIT a9170 4 .cfa: sp 0 +
STACK CFI INIT a9174 4 .cfa: sp 0 +
STACK CFI INIT a9178 8 .cfa: sp 0 +
STACK CFI INIT a9180 8 .cfa: sp 0 +
STACK CFI INIT a9188 8 .cfa: sp 0 +
STACK CFI INIT a9190 8 .cfa: sp 0 +
STACK CFI INIT a9198 4 .cfa: sp 0 +
STACK CFI INIT a919c 8 .cfa: sp 0 +
STACK CFI INIT a91a4 8 .cfa: sp 0 +
STACK CFI INIT a91ac 8 .cfa: sp 0 +
STACK CFI INIT a91b4 8 .cfa: sp 0 +
STACK CFI INIT a91bc 4 .cfa: sp 0 +
STACK CFI INIT a91c0 8 .cfa: sp 0 +
STACK CFI INIT a94b4 8 .cfa: sp 0 +
STACK CFI INIT a94bc 24 .cfa: sp 0 +
STACK CFI a94c0 .cfa: sp 32 +
STACK CFI a94c8 .cfa: x29 32 + x19: .cfa -16 + ^ .ra: .cfa -24 + ^ x29: .cfa -32 + ^
STACK CFI a94d4 .cfa: sp 32 +
STACK CFI a94dc .cfa: sp 0 +
STACK CFI INIT a94e0 28 .cfa: sp 0 +
STACK CFI a94e4 .cfa: sp 32 +
STACK CFI a94ec .cfa: x29 32 + x19: .cfa -16 + ^ .ra: .cfa -24 + ^ x29: .cfa -32 + ^
STACK CFI a94fc .cfa: sp 32 +
STACK CFI a9504 .cfa: sp 0 +
STACK CFI INIT a987c 44 .cfa: sp 0 +
STACK CFI a9880 .cfa: sp 32 +
STACK CFI a9888 .cfa: x29 32 + x19: .cfa -16 + ^ .ra: .cfa -24 + ^ x29: .cfa -32 + ^
STACK CFI a98b4 .cfa: sp 32 +
STACK CFI a98bc .cfa: sp 0 +
STACK CFI INIT a98c0 4c .cfa: sp 0 +
STACK CFI a98c4 .cfa: sp 32 +
STACK CFI a98cc .cfa: x29 32 + x19: .cfa -16 + ^ .ra: .cfa -24 + ^ x29: .cfa -32 + ^
STACK CFI a9900 .cfa: sp 32 +
STACK CFI a9908 .cfa: sp 0 +
STACK CFI INIT a990c 14 .cfa: sp 0 +
STACK CFI INIT a9920 1f8 .cfa: sp 0 +
STACK CFI a9924 .cfa: sp 112 +
STACK CFI a9944 .cfa: x29 72 + x19: .cfa -8 + ^ x20: .cfa -16 + ^ x21: .cfa -24 + ^ x22: .cfa -32 + ^ x23: .cfa -40 + ^ x24: .cfa -48 + ^ x25: .cfa -56 + ^ .ra: .cfa -64 + ^ x29: .cfa -72 + ^ v8: .cfa -80 + ^ v9: .cfa -88 + ^ v10: .cfa -96 + ^
STACK CFI a9af0 .cfa: sp 112 +
STACK CFI a9b10 .cfa: sp 0 +
STACK CFI a9b14 .cfa: x29 72 +
STACK CFI INIT a9b18 8 .cfa: sp 0 +
STACK CFI INIT aa000 18 .cfa: sp 0 +
STACK CFI INIT aa018 18 .cfa: sp 0 +
STACK CFI INIT aa030 18 .cfa: sp 0 +
STACK CFI INIT aa048 18 .cfa: sp 0 +
STACK CFI INIT aa060 18 .cfa: sp 0 +
STACK CFI INIT aa078 18 .cfa: sp 0 +
STACK CFI INIT aa090 18 .cfa: sp 0 +
STACK CFI INIT aa0a8 18 .cfa: sp 0 +
STACK CFI INIT aa0c0 18 .cfa: sp 0 +
STACK CFI INIT aa0d8 18 .cfa: sp 0 +
STACK CFI INIT aa0f0 18 .cfa: sp 0 +
STACK CFI INIT aa108 18 .cfa: sp 0 +
STACK CFI INIT ab05c 8 .cfa: sp 0 +
STACK CFI INIT ab064 24 .cfa: sp 0 +
STACK CFI ab068 .cfa: sp 32 +
STACK CFI ab070 .cfa: x29 32 + x19: .cfa -16 + ^ .ra: .cfa -24 + ^ x29: .cfa -32 + ^
STACK CFI ab07c .cfa: sp 32 +
STACK CFI ab084 .cfa: sp 0 +
STACK CFI INIT ab088 28 .cfa: sp 0 +
STACK CFI ab08c .cfa: sp 32 +
STACK CFI ab094 .cfa: x29 32 + x19: .cfa -16 + ^ .ra: .cfa -24 + ^ x29: .cfa -32 + ^
STACK CFI ab0a4 .cfa: sp 32 +
STACK CFI ab0ac .cfa: sp 0 +
STACK CFI INIT ab5f0 8 .cfa: sp 0 +
STACK CFI INIT abc08 8 .cfa: sp 0 +
STACK CFI INIT abf4c 8 .cfa: sp 0 +
STACK CFI INIT ac1a0 4 .cfa: sp 0 +
STACK CFI INIT ac1a4 8 .cfa: sp 0 +
STACK CFI INIT ac1ac 8 .cfa: sp 0 +
STACK CFI INIT ac1b4 4 .cfa: sp 0 +
STACK CFI INIT ad230 8 .cfa: sp 0 +
STACK CFI INIT ad238 24 .cfa: sp 0 +
STACK CFI ad23c .cfa: sp 32 +
STACK CFI ad244 .cfa: x29 32 + x19: .cfa -16 + ^ .ra: .cfa -24 + ^ x29: .cfa -32 + ^
STACK CFI ad250 .cfa: sp 32 +
STACK CFI ad258 .cfa: sp 0 +
STACK CFI INIT ad25c 28 .cfa: sp 0 +
STACK CFI ad260 .cfa: sp 32 +
STACK CFI ad268 .cfa: x29 32 + x19: .cfa -16 + ^ .ra: .cfa -24 + ^ x29: .cfa -32 + ^
STACK CFI ad278 .cfa: sp 32 +
STACK CFI ad280 .cfa: sp 0 +
STACK CFI INIT ad284 18 .cfa: sp 0 +
STACK CFI ad288 .cfa: sp 16 +
STACK CFI ad28c .cfa: x29 16 + .ra: .cfa -8 + ^ x29: .cfa -16 + ^
STACK CFI ad294 .cfa: sp 16 +
STACK CFI ad298 .cfa: sp 0 +
STACK CFI INIT ad4e8 20 .cfa: sp 0 +
STACK CFI INIT ad508 30 .cfa: sp 0 +
STACK CFI ad50c .cfa: sp 32 +
STACK CFI ad514 .cfa: x29 32 + x19: .cfa -16 + ^ .ra: .cfa -24 + ^ x29: .cfa -32 + ^
STACK CFI ad52c .cfa: sp 32 +
STACK CFI ad534 .cfa: sp 0 +
STACK CFI INIT ad538 24 .cfa: sp 0 +
STACK CFI INIT ad55c c .cfa: sp 0 +
STACK CFI INIT ad568 c .cfa: sp 0 +
STACK CFI INIT ad574 4 .cfa: sp 0 +
STACK CFI INIT ad578 4 .cfa: sp 0 +
STACK CFI INIT ad57c 8 .cfa: sp 0 +
STACK CFI INIT ad584 4 .cfa: sp 0 +
STACK CFI INIT ad588 4 .cfa: sp 0 +
STACK CFI INIT ad58c 4c .cfa: sp 0 +
STACK CFI ad590 .cfa: sp 32 +
STACK CFI ad598 .cfa: x29 32 + x19: .cfa -16 + ^ .ra: .cfa -24 + ^ x29: .cfa -32 + ^
STACK CFI ad5cc .cfa: sp 32 +
STACK CFI ad5d4 .cfa: sp 0 +
STACK CFI INIT ae768 4 .cfa: sp 0 +
STACK CFI INIT ae76c 14 .cfa: sp 0 +
STACK CFI INIT aebbc c .cfa: sp 0 +
STACK CFI INIT aebc8 24c .cfa: sp 0 +
STACK CFI INIT aee14 a0 .cfa: sp 0 +
STACK CFI aee20 .cfa: sp 32 +
STACK CFI aee78 .cfa: sp 0 +
STACK CFI aee7c .cfa: sp 32 +
STACK CFI aee84 .cfa: sp 0 +
STACK CFI aee88 .cfa: sp 32 +
STACK CFI aee9c .cfa: sp 0 +
STACK CFI aeea0 .cfa: sp 32 +
STACK CFI aeeb0 .cfa: sp 0 +
STACK CFI INIT aeeb4 38 .cfa: sp 0 +
STACK CFI aeec0 .cfa: sp 32 +
STACK CFI aeee8 .cfa: sp 0 +
STACK CFI INIT af180 70 .cfa: sp 0 +
STACK CFI af184 .cfa: sp 32 +
STACK CFI af18c .cfa: x29 32 + x19: .cfa -16 + ^ .ra: .cfa -24 + ^ x29: .cfa -32 + ^
STACK CFI af1c0 .cfa: sp 32 +
STACK CFI af1c8 .cfa: sp 0 +
STACK CFI af1cc .cfa: x29 32 +
STACK CFI INIT af240 2c .cfa: sp 0 +
STACK CFI af244 .cfa: sp 32 +
STACK CFI af24c .cfa: x29 32 + x19: .cfa -16 + ^ .ra: .cfa -24 + ^ x29: .cfa -32 + ^
STACK CFI af260 .cfa: sp 32 +
STACK CFI af268 .cfa: sp 0 +
STACK CFI INIT af9bc 64 .cfa: sp 0 +
STACK CFI af9c0 .cfa: sp 32 +
STACK CFI af9c8 .cfa: x29 32 + x19: .cfa -16 + ^ .ra: .cfa -24 + ^ x29: .cfa -32 + ^
STACK CFI af9e4 .cfa: sp 32 +
STACK CFI af9ec .cfa: sp 0 +
STACK CFI af9f0 .cfa: x29 32 +
STACK CFI afa14 .cfa: sp 32 +
STACK CFI afa1c .cfa: sp 0 +
STACK CFI INIT afb5c 3c8 .cfa: sp 0 +
STACK CFI afb60 .cfa: sp 208 +
STACK CFI afb74 .cfa: x29 64 + x19: .cfa -8 + ^ x20: .cfa -16 + ^ x21: .cfa -24 + ^ x22: .cfa -32 + ^ x23: .cfa -40 + ^ x24: .cfa -48 + ^ .ra: .cfa -56 + ^ x29: .cfa -64 + ^
STACK CFI afd8c .cfa: sp 208 +
STACK CFI afda0 .cfa: sp 0 +
STACK CFI afda4 .cfa: x29 64 +
STACK CFI INIT aff24 228 .cfa: sp 0 +
STACK CFI INIT b014c 2b4 .cfa: sp 0 +
STACK CFI INIT b0400 530 .cfa: sp 0 +
STACK CFI INIT b0930 78 .cfa: sp 0 +
STACK CFI b0934 .cfa: sp 48 +
STACK CFI b0940 .cfa: x29 48 + x19: .cfa -8 + ^ x20: .cfa -16 + ^ x21: .cfa -24 + ^ x22: .cfa -32 + ^ .ra: .cfa -40 + ^ x29: .cfa -48 + ^
STACK CFI b0988 .cfa: sp 48 +
STACK CFI b0994 .cfa: sp 0 +
STACK CFI b0998 .cfa: sp 48 +
STACK CFI b09a4 .cfa: sp 0 +
STACK CFI INIT b09a8 78 .cfa: sp 0 +
STACK CFI b09ac .cfa: sp 32 +
STACK CFI b09b4 .cfa: x29 32 + x19: .cfa -16 + ^ .ra: .cfa -24 + ^ x29: .cfa -32 + ^
STACK CFI b09f0 .cfa: sp 32 +
STACK CFI b09f8 .cfa: sp 0 +
STACK CFI b09fc .cfa: x29 32 +
STACK CFI INIT b0a20 24 .cfa: sp 0 +
STACK CFI b0a24 .cfa: sp 32 +
STACK CFI b0a2c .cfa: x29 32 + x19: .cfa -16 + ^ .ra: .cfa -24 + ^ x29: .cfa -32 + ^
STACK CFI b0a38 .cfa: sp 32 +
STACK CFI b0a40 .cfa: sp 0 +
STACK CFI INIT b0a44 150 .cfa: sp 0 +
STACK CFI b0a48 .cfa: sp 48 +
STACK CFI b0a54 .cfa: x29 48 + x19: .cfa -8 + ^ x20: .cfa -16 + ^ x21: .cfa -24 + ^ x22: .cfa -32 + ^ .ra: .cfa -40 + ^ x29: .cfa -48 + ^
STACK CFI b0b84 .cfa: sp 48 +
STACK CFI b0b90 .cfa: sp 0 +
STACK CFI INIT b0b94 6c .cfa: sp 0 +
STACK CFI b0b98 .cfa: sp 64 +
STACK CFI b0ba4 .cfa: x29 32 + x19: .cfa -16 + ^ .ra: .cfa -24 + ^ x29: .cfa -32 + ^
STACK CFI b0bec .cfa: sp 64 +
STACK CFI b0bf8 .cfa: sp 0 +
STACK CFI b0bfc .cfa: x29 32 +
STACK CFI INIT b0c00 74 .cfa: sp 0 +
STACK CFI b0c04 .cfa: sp 32 +
STACK CFI b0c0c .cfa: x29 32 + x19: .cfa -8 + ^ x20: .cfa -16 + ^ .ra: .cfa -24 + ^ x29: .cfa -32 + ^
STACK CFI b0c68 .cfa: sp 32 +
STACK CFI b0c70 .cfa: sp 0 +
STACK CFI INIT b0c74 f0 .cfa: sp 0 +
STACK CFI b0c78 .cfa: sp 112 +
STACK CFI b0c88 .cfa: x29 48 + x19: .cfa -8 + ^ x20: .cfa -16 + ^ x21: .cfa -32 + ^ .ra: .cfa -40 + ^ x29: .cfa -48 + ^
STACK CFI b0d4c .cfa: sp 112 +
STACK CFI b0d5c .cfa: sp 0 +
STACK CFI b0d60 .cfa: x29 48 +
STACK CFI INIT b0d64 f0 .cfa: sp 0 +
STACK CFI b0d68 .cfa: sp 112 +
STACK CFI b0d78 .cfa: x29 48 + x19: .cfa -8 + ^ x20: .cfa -16 + ^ x21: .cfa -32 + ^ .ra: .cfa -40 + ^ x29: .cfa -48 + ^
STACK CFI b0e3c .cfa: sp 112 +
STACK CFI b0e4c .cfa: sp 0 +
STACK CFI b0e50 .cfa: x29 48 +
STACK CFI INIT b0e54 48 .cfa: sp 0 +
STACK CFI b0e58 .cfa: sp 32 +
STACK CFI b0e60 .cfa: x29 32 + x19: .cfa -8 + ^ x20: .cfa -16 + ^ .ra: .cfa -24 + ^ x29: .cfa -32 + ^
STACK CFI b0e84 .cfa: sp 32 +
STACK CFI b0e8c .cfa: sp 0 +
STACK CFI b0e90 .cfa: x29 32 +
STACK CFI INIT b0e9c 9c .cfa: sp 0 +
STACK CFI b0ea0 .cfa: sp 80 +
STACK CFI b0eac .cfa: x29 32 + x19: .cfa -16 + ^ .ra: .cfa -24 + ^ x29: .cfa -32 + ^
STACK CFI b0f24 .cfa: sp 80 +
STACK CFI b0f30 .cfa: sp 0 +
STACK CFI b0f34 .cfa: x29 32 +
STACK CFI INIT b0f38 220 .cfa: sp 0 +
STACK CFI b0f3c .cfa: sp 112 +
STACK CFI b0f54 .cfa: x29 80 + x19: .cfa -8 + ^ x20: .cfa -16 + ^ x21: .cfa -24 + ^ x22: .cfa -32 + ^ x23: .cfa -40 + ^ x24: .cfa -48 + ^ x25: .cfa -64 + ^ .ra: .cfa -72 + ^ x29: .cfa -80 + ^
STACK CFI b1118 .cfa: sp 112 +
STACK CFI b1130 .cfa: sp 0 +
STACK CFI b1134 .cfa: x29 80 +
STACK CFI INIT b1158 150 .cfa: sp 0 +
STACK CFI b115c .cfa: sp 48 +
STACK CFI b1168 .cfa: x29 48 + x19: .cfa -8 + ^ x20: .cfa -16 + ^ x21: .cfa -24 + ^ x22: .cfa -32 + ^ .ra: .cfa -40 + ^ x29: .cfa -48 + ^
STACK CFI b1298 .cfa: sp 48 +
STACK CFI b12a4 .cfa: sp 0 +
STACK CFI INIT b12a8 1c4 .cfa: sp 0 +
STACK CFI b12ac .cfa: sp 96 +
STACK CFI b12c0 .cfa: x29 64 + x19: .cfa -8 + ^ x20: .cfa -16 + ^ x21: .cfa -24 + ^ x22: .cfa -32 + ^ x23: .cfa -40 + ^ x24: .cfa -48 + ^ .ra: .cfa -56 + ^ x29: .cfa -64 + ^
STACK CFI b1430 .cfa: sp 96 +
STACK CFI b1444 .cfa: sp 0 +
STACK CFI b1448 .cfa: x29 64 +
STACK CFI INIT b146c 244 .cfa: sp 0 +
STACK CFI b1470 .cfa: sp 112 +
STACK CFI b1488 .cfa: x29 80 + x19: .cfa -8 + ^ x20: .cfa -16 + ^ x21: .cfa -24 + ^ x22: .cfa -32 + ^ x23: .cfa -40 + ^ x24: .cfa -48 + ^ x25: .cfa -64 + ^ .ra: .cfa -72 + ^ x29: .cfa -80 + ^
STACK CFI b1670 .cfa: sp 112 +
STACK CFI b1688 .cfa: sp 0 +
STACK CFI b168c .cfa: x29 80 +
STACK CFI INIT b16b0 1ec .cfa: sp 0 +
STACK CFI b16b4 .cfa: sp 96 +
STACK CFI b16c8 .cfa: x29 64 + x19: .cfa -8 + ^ x20: .cfa -16 + ^ x21: .cfa -24 + ^ x22: .cfa -32 + ^ x23: .cfa -40 + ^ x24: .cfa -48 + ^ .ra: .cfa -56 + ^ x29: .cfa -64 + ^
STACK CFI b1860 .cfa: sp 96 +
STACK CFI b1874 .cfa: sp 0 +
STACK CFI b1878 .cfa: x29 64 +
STACK CFI INIT b189c 304 .cfa: sp 0 +
STACK CFI b18a0 .cfa: sp 160 +
STACK CFI b18bc .cfa: x29 96 + x19: .cfa -8 + ^ x20: .cfa -16 + ^ x21: .cfa -24 + ^ x22: .cfa -32 + ^ x23: .cfa -40 + ^ x24: .cfa -48 + ^ x25: .cfa -56 + ^ x26: .cfa -64 + ^ x27: .cfa -72 + ^ x28: .cfa -80 + ^ .ra: .cfa -88 + ^ x29: .cfa -96 + ^
STACK CFI b1b44 .cfa: sp 160 +
STACK CFI b1b60 .cfa: sp 0 +
STACK CFI b1b64 .cfa: x29 96 +
STACK CFI INIT b1ba0 2a4 .cfa: sp 0 +
STACK CFI b1ba4 .cfa: sp 144 +
STACK CFI b1bc0 .cfa: x29 96 + x19: .cfa -8 + ^ x20: .cfa -16 + ^ x21: .cfa -24 + ^ x22: .cfa -32 + ^ x23: .cfa -40 + ^ x24: .cfa -48 + ^ x25: .cfa -56 + ^ x26: .cfa -64 + ^ x27: .cfa -72 + ^ x28: .cfa -80 + ^ .ra: .cfa -88 + ^ x29: .cfa -96 + ^
STACK CFI b1de8 .cfa: sp 144 +
STACK CFI b1e04 .cfa: sp 0 +
STACK CFI b1e08 .cfa: x29 96 +
STACK CFI INIT b1e44 290 .cfa: sp 0 +
STACK CFI b1e48 .cfa: sp 128 +
STACK CFI b1e60 .cfa: x29 80 + x19: .cfa -8 + ^ x20: .cfa -16 + ^ x21: .cfa -24 + ^ x22: .cfa -32 + ^ x23: .cfa -40 + ^ x24: .cfa -48 + ^ x25: .cfa -56 + ^ x26: .cfa -64 + ^ .ra: .cfa -72 + ^ x29: .cfa -80 + ^
STACK CFI b20b4 .cfa: sp 128 +
STACK CFI b20cc .cfa: sp 0 +
STACK CFI b20d0 .cfa: x29 80 +
STACK CFI INIT b20d4 dac .cfa: sp 0 +
STACK CFI b20d8 .cfa: sp 144 +
STACK CFI b20f4 .cfa: x29 96 + x19: .cfa -8 + ^ x20: .cfa -16 + ^ x21: .cfa -24 + ^ x22: .cfa -32 + ^ x23: .cfa -40 + ^ x24: .cfa -48 + ^ x25: .cfa -56 + ^ x26: .cfa -64 + ^ x27: .cfa -72 + ^ x28: .cfa -80 + ^ .ra: .cfa -88 + ^ x29: .cfa -96 + ^
STACK CFI b2e5c .cfa: sp 144 +
STACK CFI b2e78 .cfa: sp 0 +
STACK CFI b2e7c .cfa: x29 96 +
STACK CFI INIT b2e80 1d0 .cfa: sp 0 +
STACK CFI b2e84 .cfa: sp 80 +
STACK CFI b2e98 .cfa: x29 80 + x19: .cfa -8 + ^ x20: .cfa -16 + ^ x21: .cfa -24 + ^ x22: .cfa -32 + ^ x23: .cfa -40 + ^ x24: .cfa -48 + ^ x25: .cfa -56 + ^ x26: .cfa -64 + ^ .ra: .cfa -72 + ^ x29: .cfa -80 + ^
STACK CFI b3038 .cfa: sp 80 +
STACK CFI b304c .cfa: sp 0 +
STACK CFI INIT b3050 22c .cfa: sp 0 +
STACK CFI b3054 .cfa: sp 112 +
STACK CFI b3068 .cfa: x29 64 + x19: .cfa -8 + ^ x20: .cfa -16 + ^ x21: .cfa -24 + ^ x22: .cfa -32 + ^ x23: .cfa -40 + ^ x24: .cfa -48 + ^ .ra: .cfa -56 + ^ x29: .cfa -64 + ^
STACK CFI b3234 .cfa: sp 112 +
STACK CFI b3248 .cfa: sp 0 +
STACK CFI b324c .cfa: x29 64 +
STACK CFI INIT b327c 30c .cfa: sp 0 +
STACK CFI b3280 .cfa: sp 80 +
STACK CFI b3294 .cfa: x29 64 + x19: .cfa -8 + ^ x20: .cfa -16 + ^ x21: .cfa -24 + ^ x22: .cfa -32 + ^ x23: .cfa -40 + ^ x24: .cfa -48 + ^ .ra: .cfa -56 + ^ x29: .cfa -64 + ^
STACK CFI b3410 .cfa: sp 80 +
STACK CFI b3424 .cfa: sp 0 +
STACK CFI b3428 .cfa: x29 64 +
STACK CFI INIT b3588 178 .cfa: sp 0 +
STACK CFI b358c .cfa: sp 80 +
STACK CFI b35a0 .cfa: x29 64 + x19: .cfa -8 + ^ x20: .cfa -16 + ^ x21: .cfa -24 + ^ x22: .cfa -32 + ^ x23: .cfa -40 + ^ x24: .cfa -48 + ^ .ra: .cfa -56 + ^ x29: .cfa -64 + ^
STACK CFI b36e4 .cfa: sp 80 +
STACK CFI b36f8 .cfa: sp 0 +
STACK CFI b36fc .cfa: x29 64 +
STACK CFI INIT b3700 178 .cfa: sp 0 +
STACK CFI b3704 .cfa: sp 80 +
STACK CFI b3718 .cfa: x29 64 + x19: .cfa -8 + ^ x20: .cfa -16 + ^ x21: .cfa -24 + ^ x22: .cfa -32 + ^ x23: .cfa -40 + ^ x24: .cfa -48 + ^ .ra: .cfa -56 + ^ x29: .cfa -64 + ^
STACK CFI b385c .cfa: sp 80 +
STACK CFI b3870 .cfa: sp 0 +
STACK CFI b3874 .cfa: x29 64 +
STACK CFI INIT b3878 240 .cfa: sp 0 +
STACK CFI b387c .cfa: sp 96 +
STACK CFI b3894 .cfa: x29 96 + x19: .cfa -8 + ^ x20: .cfa -16 + ^ x21: .cfa -24 + ^ x22: .cfa -32 + ^ x23: .cfa -40 + ^ x24: .cfa -48 + ^ x25: .cfa -56 + ^ x26: .cfa -64 + ^ x27: .cfa -72 + ^ x28: .cfa -80 + ^ .ra: .cfa -88 + ^ x29: .cfa -96 + ^
STACK CFI b3a9c .cfa: sp 96 +
STACK CFI b3ab4 .cfa: sp 0 +
STACK CFI INIT b46e4 154 .cfa: sp 0 +
STACK CFI b46e8 .cfa: sp 96 +
STACK CFI b46fc .cfa: x29 64 + x19: .cfa -8 + ^ x20: .cfa -16 + ^ x21: .cfa -24 + ^ x22: .cfa -32 + ^ x23: .cfa -48 + ^ .ra: .cfa -56 + ^ x29: .cfa -64 + ^
STACK CFI b47dc .cfa: sp 96 +
STACK CFI b47f0 .cfa: sp 0 +
STACK CFI b47f4 .cfa: x29 64 +
STACK CFI INIT b4a6c 44 .cfa: sp 0 +
STACK CFI b4a70 .cfa: sp 32 +
STACK CFI b4a78 .cfa: x29 32 + x19: .cfa -16 + ^ .ra: .cfa -24 + ^ x29: .cfa -32 + ^
STACK CFI b4a94 .cfa: sp 32 +
STACK CFI b4a9c .cfa: sp 0 +
STACK CFI b4aa0 .cfa: x29 32 +
STACK CFI b4aa4 .cfa: sp 32 +
STACK CFI b4aac .cfa: sp 0 +
STACK CFI INIT b4ab0 1a4 .cfa: sp 0 +
STACK CFI b4ab4 .cfa: sp 64 +
STACK CFI b4ac4 .cfa: x29 64 + x19: .cfa -8 + ^ x20: .cfa -16 + ^ x21: .cfa -24 + ^ x22: .cfa -32 + ^ x23: .cfa -40 + ^ x24: .cfa -48 + ^ .ra: .cfa -56 + ^ x29: .cfa -64 + ^
STACK CFI b4c40 .cfa: sp 64 +
STACK CFI b4c50 .cfa: sp 0 +
STACK CFI INIT b4c54 17c .cfa: sp 0 +
STACK CFI INIT b5174 a0 .cfa: sp 0 +
STACK CFI b5178 .cfa: sp 48 +
STACK CFI b5184 .cfa: x29 48 + x19: .cfa -8 + ^ x20: .cfa -16 + ^ x21: .cfa -24 + ^ x22: .cfa -32 + ^ .ra: .cfa -40 + ^ x29: .cfa -48 + ^
STACK CFI b51f0 .cfa: sp 48 +
STACK CFI b51fc .cfa: sp 0 +
STACK CFI b5200 .cfa: sp 48 +
STACK CFI b520c .cfa: sp 0 +
STACK CFI b5210 .cfa: x29 48 +
STACK CFI INIT b5e7c 158 .cfa: sp 0 +
STACK CFI b5e80 .cfa: sp 96 +
STACK CFI b5e94 .cfa: x29 64 + x19: .cfa -8 + ^ x20: .cfa -16 + ^ x21: .cfa -24 + ^ x22: .cfa -32 + ^ x23: .cfa -48 + ^ .ra: .cfa -56 + ^ x29: .cfa -64 + ^
STACK CFI b5f78 .cfa: sp 96 +
STACK CFI b5f8c .cfa: sp 0 +
STACK CFI b5f90 .cfa: x29 64 +
STACK CFI INIT b5fd4 190 .cfa: sp 0 +
STACK CFI INIT b6c1c 1dc .cfa: sp 0 +
STACK CFI b6c20 .cfa: sp 80 +
STACK CFI b6c34 .cfa: x29 80 + x19: .cfa -8 + ^ x20: .cfa -16 + ^ x21: .cfa -24 + ^ x22: .cfa -32 + ^ x23: .cfa -40 + ^ x24: .cfa -48 + ^ x25: .cfa -64 + ^ .ra: .cfa -72 + ^ x29: .cfa -80 + ^
STACK CFI b6de0 .cfa: sp 80 +
STACK CFI b6df4 .cfa: sp 0 +
STACK CFI INIT b8134 124 .cfa: sp 0 +
STACK CFI b8164 .cfa: sp 32 +
STACK CFI b816c .cfa: x29 32 + x19: .cfa -8 + ^ x20: .cfa -16 + ^ .ra: .cfa -24 + ^ x29: .cfa -32 + ^
STACK CFI b824c .cfa: sp 32 +
STACK CFI b8254 .cfa: sp 0 +
STACK CFI INIT b899c 2f8 .cfa: sp 0 +
STACK CFI b89a0 .cfa: sp 64 +
STACK CFI b89b0 .cfa: x29 64 + x19: .cfa -8 + ^ x20: .cfa -16 + ^ x21: .cfa -24 + ^ x22: .cfa -32 + ^ x23: .cfa -40 + ^ x24: .cfa -48 + ^ .ra: .cfa -56 + ^ x29: .cfa -64 + ^
STACK CFI b8c10 .cfa: sp 64 +
STACK CFI b8c20 .cfa: sp 0 +
STACK CFI b8c24 .cfa: x29 64 +
STACK CFI INIT b8c94 a0 .cfa: sp 0 +
STACK CFI b8c98 .cfa: sp 48 +
STACK CFI b8ca4 .cfa: x29 48 + x19: .cfa -8 + ^ x20: .cfa -16 + ^ x21: .cfa -24 + ^ x22: .cfa -32 + ^ .ra: .cfa -40 + ^ x29: .cfa -48 + ^
STACK CFI b8d10 .cfa: sp 48 +
STACK CFI b8d1c .cfa: sp 0 +
STACK CFI b8d20 .cfa: sp 48 +
STACK CFI b8d2c .cfa: sp 0 +
STACK CFI b8d30 .cfa: x29 48 +
STACK CFI INIT b9bb4 160 .cfa: sp 0 +
STACK CFI b9bb8 .cfa: sp 64 +
STACK CFI b9bc8 .cfa: x29 64 + x19: .cfa -8 + ^ x20: .cfa -16 + ^ x21: .cfa -24 + ^ x22: .cfa -32 + ^ x23: .cfa -48 + ^ .ra: .cfa -56 + ^ x29: .cfa -64 + ^
STACK CFI b9cc0 .cfa: sp 64 +
STACK CFI b9cd0 .cfa: sp 0 +
STACK CFI b9cd4 .cfa: x29 64 +
STACK CFI INIT b9d14 214 .cfa: sp 0 +
STACK CFI b9d18 .cfa: sp 128 +
STACK CFI b9d34 .cfa: x29 96 + x19: .cfa -8 + ^ x20: .cfa -16 + ^ x21: .cfa -24 + ^ x22: .cfa -32 + ^ x23: .cfa -40 + ^ x24: .cfa -48 + ^ x25: .cfa -56 + ^ x26: .cfa -64 + ^ x27: .cfa -80 + ^ .ra: .cfa -88 + ^ x29: .cfa -96 + ^
STACK CFI b9eb0 .cfa: sp 128 +
STACK CFI b9ecc .cfa: sp 0 +
STACK CFI b9ed0 .cfa: x29 96 +
STACK CFI INIT bbb48 288 .cfa: sp 0 +
STACK CFI bbb4c .cfa: sp 16 +
STACK CFI bbb50 .cfa: x29 16 + .ra: .cfa -8 + ^ x29: .cfa -16 + ^
STACK CFI bbd98 .cfa: sp 16 +
STACK CFI bbd9c .cfa: sp 0 +
STACK CFI bbda0 .cfa: x29 16 +
STACK CFI INIT bbdd0 134 .cfa: sp 0 +
STACK CFI bbdd4 .cfa: sp 96 +
STACK CFI bbdec .cfa: x29 96 + x19: .cfa -8 + ^ x20: .cfa -16 + ^ x21: .cfa -24 + ^ x22: .cfa -32 + ^ x23: .cfa -40 + ^ x24: .cfa -48 + ^ x25: .cfa -56 + ^ x26: .cfa -64 + ^ x27: .cfa -72 + ^ x28: .cfa -80 + ^ .ra: .cfa -88 + ^ x29: .cfa -96 + ^
STACK CFI bbebc .cfa: sp 96 +
STACK CFI bbec0 .cfa: x29 96 +
STACK CFI bbec4 .cfa: sp 96 +
STACK CFI bbedc .cfa: sp 0 +
STACK CFI bbee0 .cfa: x29 96 +
STACK CFI bbf00 .cfa: sp 96 +
STACK CFI INIT bbf04 e1c .cfa: sp 0 +
STACK CFI bbf08 .cfa: sp 192 +
STACK CFI bbf24 .cfa: x29 96 + x19: .cfa -8 + ^ x20: .cfa -16 + ^ x21: .cfa -24 + ^ x22: .cfa -32 + ^ x23: .cfa -40 + ^ x24: .cfa -48 + ^ x25: .cfa -56 + ^ x26: .cfa -64 + ^ x27: .cfa -72 + ^ x28: .cfa -80 + ^ .ra: .cfa -88 + ^ x29: .cfa -96 + ^
STACK CFI bccfc .cfa: sp 192 +
STACK CFI bcd18 .cfa: sp 0 +
STACK CFI bcd1c .cfa: x29 96 +
STACK CFI INIT bcd20 fc8 .cfa: sp 0 +
STACK CFI bcd24 .cfa: sp 288 +
STACK CFI bcd40 .cfa: x29 96 + x19: .cfa -8 + ^ x20: .cfa -16 + ^ x21: .cfa -24 + ^ x22: .cfa -32 + ^ x23: .cfa -40 + ^ x24: .cfa -48 + ^ x25: .cfa -56 + ^ x26: .cfa -64 + ^ x27: .cfa -72 + ^ x28: .cfa -80 + ^ .ra: .cfa -88 + ^ x29: .cfa -96 + ^
STACK CFI bdcc4 .cfa: sp 288 +
STACK CFI bdce0 .cfa: sp 0 +
STACK CFI bdce4 .cfa: x29 96 +
STACK CFI INIT bdce8 510 .cfa: sp 0 +
STACK CFI bdcec .cfa: sp 144 +
STACK CFI bdd08 .cfa: x29 96 + x19: .cfa -8 + ^ x20: .cfa -16 + ^ x21: .cfa -24 + ^ x22: .cfa -32 + ^ x23: .cfa -40 + ^ x24: .cfa -48 + ^ x25: .cfa -56 + ^ x26: .cfa -64 + ^ x27: .cfa -72 + ^ x28: .cfa -80 + ^ .ra: .cfa -88 + ^ x29: .cfa -96 + ^
STACK CFI be1d4 .cfa: sp 144 +
STACK CFI be1f0 .cfa: sp 0 +
STACK CFI be1f4 .cfa: x29 96 +
STACK CFI INIT bec0c cb0 .cfa: sp 0 +
STACK CFI bec10 .cfa: sp 192 +
STACK CFI bec2c .cfa: x29 96 + x19: .cfa -8 + ^ x20: .cfa -16 + ^ x21: .cfa -24 + ^ x22: .cfa -32 + ^ x23: .cfa -40 + ^ x24: .cfa -48 + ^ x25: .cfa -56 + ^ x26: .cfa -64 + ^ x27: .cfa -72 + ^ x28: .cfa -80 + ^ .ra: .cfa -88 + ^ x29: .cfa -96 + ^
STACK CFI bf898 .cfa: sp 192 +
STACK CFI bf8b4 .cfa: sp 0 +
STACK CFI bf8b8 .cfa: x29 96 +
STACK CFI INIT bf8bc 18c .cfa: sp 0 +
STACK CFI bf8c0 .cfa: sp 96 +
STACK CFI bf8d8 .cfa: x29 96 + x19: .cfa -8 + ^ x20: .cfa -16 + ^ x21: .cfa -24 + ^ x22: .cfa -32 + ^ x23: .cfa -40 + ^ x24: .cfa -48 + ^ x25: .cfa -56 + ^ x26: .cfa -64 + ^ x27: .cfa -80 + ^ .ra: .cfa -88 + ^ x29: .cfa -96 + ^
STACK CFI bf9d8 .cfa: sp 96 +
STACK CFI bf9f0 .cfa: sp 0 +
STACK CFI bf9f4 .cfa: x29 96 +
STACK CFI INIT bfa48 1b8 .cfa: sp 0 +
STACK CFI INIT 5e958 6d8 .cfa: sp 0 +
STACK CFI 5e95c .cfa: sp 144 +
STACK CFI 5e978 .cfa: x29 96 + x19: .cfa -8 + ^ x20: .cfa -16 + ^ x21: .cfa -24 + ^ x22: .cfa -32 + ^ x23: .cfa -40 + ^ x24: .cfa -48 + ^ x25: .cfa -56 + ^ x26: .cfa -64 + ^ x27: .cfa -72 + ^ x28: .cfa -80 + ^ .ra: .cfa -88 + ^ x29: .cfa -96 + ^
STACK CFI 5efbc .cfa: sp 144 +
STACK CFI 5efd8 .cfa: sp 0 +
STACK CFI 5efdc .cfa: x29 96 +
STACK CFI INIT 5f030 20 .cfa: sp 0 +
STACK CFI 5f034 .cfa: sp 16 +
STACK CFI 5f038 .cfa: x29 16 + .ra: .cfa -8 + ^ x29: .cfa -16 + ^
STACK CFI 5f044 .cfa: sp 16 +
STACK CFI 5f048 .cfa: sp 0 +
STACK CFI 5f04c .cfa: x29 16 +
STACK CFI INIT 5f160 1d4 .cfa: sp 0 +
STACK CFI 5f164 .cfa: sp 208 +
STACK CFI 5f17c .cfa: x29 64 + x19: .cfa -8 + ^ x20: .cfa -16 + ^ x21: .cfa -24 + ^ x22: .cfa -32 + ^ x23: .cfa -40 + ^ x24: .cfa -48 + ^ .ra: .cfa -56 + ^ x29: .cfa -64 + ^ v8: .cfa -80 + ^
STACK CFI 5f2c0 .cfa: sp 208 +
STACK CFI 5f2d8 .cfa: sp 0 +
STACK CFI 5f2dc .cfa: x29 64 +
STACK CFI INIT 5f334 d44 .cfa: sp 0 +
STACK CFI 5f338 .cfa: sp 272 +
STACK CFI 5f354 .cfa: x29 96 + x19: .cfa -8 + ^ x20: .cfa -16 + ^ x21: .cfa -24 + ^ x22: .cfa -32 + ^ x23: .cfa -40 + ^ x24: .cfa -48 + ^ x25: .cfa -56 + ^ x26: .cfa -64 + ^ x27: .cfa -72 + ^ x28: .cfa -80 + ^ .ra: .cfa -88 + ^ x29: .cfa -96 + ^
STACK CFI 5fbcc .cfa: sp 272 +
STACK CFI 5fbe8 .cfa: sp 0 +
STACK CFI 5fbec .cfa: x29 96 +
STACK CFI INIT 60140 60 .cfa: sp 0 +
STACK CFI 60144 .cfa: sp 32 +
STACK CFI 6014c .cfa: x29 32 + x19: .cfa -8 + ^ x20: .cfa -16 + ^ .ra: .cfa -24 + ^ x29: .cfa -32 + ^
STACK CFI 60180 .cfa: sp 32 +
STACK CFI 60188 .cfa: sp 0 +
STACK CFI 6018c .cfa: x29 32 +
STACK CFI INIT 601a0 60 .cfa: sp 0 +
STACK CFI 601a4 .cfa: sp 32 +
STACK CFI 601ac .cfa: x29 32 + x19: .cfa -8 + ^ x20: .cfa -16 + ^ .ra: .cfa -24 + ^ x29: .cfa -32 + ^
STACK CFI 601e0 .cfa: sp 32 +
STACK CFI 601e8 .cfa: sp 0 +
STACK CFI 601ec .cfa: x29 32 +
STACK CFI INIT 60200 d0 .cfa: sp 0 +
STACK CFI 60204 .cfa: sp 80 +
STACK CFI 60218 .cfa: x29 64 + x19: .cfa -8 + ^ x20: .cfa -16 + ^ x21: .cfa -24 + ^ x22: .cfa -32 + ^ x23: .cfa -40 + ^ x24: .cfa -48 + ^ .ra: .cfa -56 + ^ x29: .cfa -64 + ^
STACK CFI 60290 .cfa: sp 80 +
STACK CFI 602a4 .cfa: sp 0 +
STACK CFI 602a8 .cfa: x29 64 +
STACK CFI INIT 60388 e0 .cfa: sp 0 +
STACK CFI 6038c .cfa: sp 96 +
STACK CFI 603a4 .cfa: x29 64 + x19: .cfa -8 + ^ x20: .cfa -16 + ^ x21: .cfa -24 + ^ x22: .cfa -32 + ^ x23: .cfa -40 + ^ x24: .cfa -48 + ^ .ra: .cfa -56 + ^ x29: .cfa -64 + ^ v8: .cfa -80 + ^
STACK CFI 60424 .cfa: sp 96 +
STACK CFI 6043c .cfa: sp 0 +
STACK CFI 60440 .cfa: x29 64 +
STACK CFI INIT 604f4 544 .cfa: sp 0 +
STACK CFI 604f8 .cfa: sp 160 +
STACK CFI 60510 .cfa: x29 80 + x19: .cfa -8 + ^ x20: .cfa -16 + ^ x21: .cfa -24 + ^ x22: .cfa -32 + ^ x23: .cfa -40 + ^ x24: .cfa -48 + ^ x25: .cfa -64 + ^ .ra: .cfa -72 + ^ x29: .cfa -80 + ^
STACK CFI 60988 .cfa: sp 160 +
STACK CFI 609a0 .cfa: sp 0 +
STACK CFI 609a4 .cfa: x29 80 +
STACK CFI INIT 60a38 580 .cfa: sp 0 +
STACK CFI 60a3c .cfa: sp 256 +
STACK CFI 60a58 .cfa: x29 96 + x19: .cfa -8 + ^ x20: .cfa -16 + ^ x21: .cfa -24 + ^ x22: .cfa -32 + ^ x23: .cfa -40 + ^ x24: .cfa -48 + ^ x25: .cfa -56 + ^ x26: .cfa -64 + ^ x27: .cfa -80 + ^ .ra: .cfa -88 + ^ x29: .cfa -96 + ^
STACK CFI 60db8 .cfa: sp 256 +
STACK CFI 60dd4 .cfa: sp 0 +
STACK CFI 60dd8 .cfa: x29 96 +
STACK CFI INIT 60fb8 1080 .cfa: sp 0 +
STACK CFI 60fbc .cfa: sp 208 +
STACK CFI 60fdc .cfa: x29 96 + x19: .cfa -8 + ^ x20: .cfa -16 + ^ x21: .cfa -24 + ^ x22: .cfa -32 + ^ x23: .cfa -40 + ^ x24: .cfa -48 + ^ x25: .cfa -56 + ^ x26: .cfa -64 + ^ x27: .cfa -80 + ^ .ra: .cfa -88 + ^ x29: .cfa -96 + ^ v8: .cfa -104 + ^ v9: .cfa -112 + ^
STACK CFI 61ec4 .cfa: sp 208 +
STACK CFI 61ee4 .cfa: sp 0 +
STACK CFI 61ee8 .cfa: x29 96 +
STACK CFI INIT 62038 878 .cfa: sp 0 +
STACK CFI 6203c .cfa: sp 160 +
STACK CFI 6205c .cfa: x29 80 + x19: .cfa -8 + ^ x20: .cfa -16 + ^ x21: .cfa -24 + ^ x22: .cfa -32 + ^ x23: .cfa -40 + ^ x24: .cfa -48 + ^ x25: .cfa -56 + ^ x26: .cfa -64 + ^ .ra: .cfa -72 + ^ x29: .cfa -80 + ^ v8: .cfa -88 + ^ v9: .cfa -96 + ^ v10: .cfa -112 + ^
STACK CFI 626b0 .cfa: sp 160 +
STACK CFI 626d0 .cfa: sp 0 +
STACK CFI 626d4 .cfa: x29 80 +
STACK CFI INIT 628b0 33c .cfa: sp 0 +
STACK CFI 628b4 .cfa: sp 96 +
STACK CFI 628cc .cfa: x29 80 + x19: .cfa -8 + ^ x20: .cfa -16 + ^ x21: .cfa -24 + ^ x22: .cfa -32 + ^ x23: .cfa -40 + ^ x24: .cfa -48 + ^ x25: .cfa -56 + ^ x26: .cfa -64 + ^ .ra: .cfa -72 + ^ x29: .cfa -80 + ^
STACK CFI 62b80 .cfa: sp 96 +
STACK CFI 62b98 .cfa: sp 0 +
STACK CFI 62b9c .cfa: x29 80 +
STACK CFI INIT 62bec 384 .cfa: sp 0 +
STACK CFI 62bf0 .cfa: sp 96 +
STACK CFI 62c08 .cfa: x29 80 + x19: .cfa -8 + ^ x20: .cfa -16 + ^ x21: .cfa -24 + ^ x22: .cfa -32 + ^ x23: .cfa -40 + ^ x24: .cfa -48 + ^ x25: .cfa -56 + ^ x26: .cfa -64 + ^ .ra: .cfa -72 + ^ x29: .cfa -80 + ^
STACK CFI 62ee4 .cfa: sp 96 +
STACK CFI 62efc .cfa: sp 0 +
STACK CFI 62f00 .cfa: x29 80 +
STACK CFI INIT 62f70 180 .cfa: sp 0 +
STACK CFI 62f74 .cfa: sp 112 +
STACK CFI 62f80 .cfa: x29 32 + x19: .cfa -8 + ^ x20: .cfa -16 + ^ .ra: .cfa -24 + ^ x29: .cfa -32 + ^
STACK CFI 6309c .cfa: sp 112 +
STACK CFI 630a8 .cfa: sp 0 +
STACK CFI 630ac .cfa: x29 32 +
STACK CFI INIT 63298 230 .cfa: sp 0 +
STACK CFI 6329c .cfa: sp 80 +
STACK CFI 632b0 .cfa: x29 64 + x19: .cfa -8 + ^ x20: .cfa -16 + ^ x21: .cfa -24 + ^ x22: .cfa -32 + ^ x23: .cfa -40 + ^ x24: .cfa -48 + ^ .ra: .cfa -56 + ^ x29: .cfa -64 + ^
STACK CFI 63454 .cfa: sp 80 +
STACK CFI 63468 .cfa: sp 0 +
STACK CFI 6346c .cfa: x29 64 +
STACK CFI 6347c .cfa: sp 80 +
STACK CFI 63490 .cfa: sp 0 +
STACK CFI 63494 .cfa: x29 64 +
STACK CFI INIT 63658 81c .cfa: sp 0 +
STACK CFI 6365c .cfa: sp 96 +
STACK CFI 63674 .cfa: x29 80 + x19: .cfa -8 + ^ x20: .cfa -16 + ^ x21: .cfa -24 + ^ x22: .cfa -32 + ^ x23: .cfa -40 + ^ x24: .cfa -48 + ^ x25: .cfa -64 + ^ .ra: .cfa -72 + ^ x29: .cfa -80 + ^
STACK CFI 63c24 .cfa: sp 96 +
STACK CFI 63c3c .cfa: sp 0 +
STACK CFI 63c40 .cfa: x29 80 +
STACK CFI INIT 63e98 50 .cfa: sp 0 +
STACK CFI 63e9c .cfa: sp 32 +
STACK CFI 63ea4 .cfa: x29 32 + x19: .cfa -8 + ^ x20: .cfa -16 + ^ .ra: .cfa -24 + ^ x29: .cfa -32 + ^
STACK CFI INIT 64618 12c .cfa: sp 0 +
STACK CFI 6461c .cfa: sp 128 +
STACK CFI 6462c .cfa: x29 48 + x19: .cfa -8 + ^ x20: .cfa -16 + ^ x21: .cfa -24 + ^ x22: .cfa -32 + ^ .ra: .cfa -40 + ^ x29: .cfa -48 + ^
STACK CFI 646e0 .cfa: sp 128 +
STACK CFI 646f0 .cfa: sp 0 +
STACK CFI 646f4 .cfa: x29 48 +
STACK CFI INIT 64c94 12c .cfa: sp 0 +
STACK CFI 64c98 .cfa: sp 128 +
STACK CFI 64ca8 .cfa: x29 48 + x19: .cfa -8 + ^ x20: .cfa -16 + ^ x21: .cfa -24 + ^ x22: .cfa -32 + ^ .ra: .cfa -40 + ^ x29: .cfa -48 + ^
STACK CFI 64d5c .cfa: sp 128 +
STACK CFI 64d6c .cfa: sp 0 +
STACK CFI 64d70 .cfa: x29 48 +
STACK CFI INIT 65078 138 .cfa: sp 0 +
STACK CFI 6507c .cfa: sp 144 +
STACK CFI 65090 .cfa: x29 64 + x19: .cfa -8 + ^ x20: .cfa -16 + ^ x21: .cfa -24 + ^ x22: .cfa -32 + ^ x23: .cfa -48 + ^ .ra: .cfa -56 + ^ x29: .cfa -64 + ^
STACK CFI 65148 .cfa: sp 144 +
STACK CFI 6515c .cfa: sp 0 +
STACK CFI 65160 .cfa: x29 64 +
STACK CFI INIT 655a4 12c .cfa: sp 0 +
STACK CFI 655a8 .cfa: sp 128 +
STACK CFI 655b8 .cfa: x29 48 + x19: .cfa -8 + ^ x20: .cfa -16 + ^ x21: .cfa -24 + ^ x22: .cfa -32 + ^ .ra: .cfa -40 + ^ x29: .cfa -48 + ^
STACK CFI 6566c .cfa: sp 128 +
STACK CFI 6567c .cfa: sp 0 +
STACK CFI 65680 .cfa: x29 48 +
STACK CFI INIT 65738 134 .cfa: sp 0 +
STACK CFI 6573c .cfa: sp 96 +
STACK CFI 6574c .cfa: x29 48 + x19: .cfa -8 + ^ x20: .cfa -16 + ^ x21: .cfa -32 + ^ .ra: .cfa -40 + ^ x29: .cfa -48 + ^
STACK CFI 65820 .cfa: sp 96 +
STACK CFI 65830 .cfa: sp 0 +
STACK CFI 65834 .cfa: x29 48 +
STACK CFI INIT 65b74 74 .cfa: sp 0 +
STACK CFI 65b78 .cfa: sp 48 +
STACK CFI 65b84 .cfa: x29 32 + x19: .cfa -8 + ^ x20: .cfa -16 + ^ .ra: .cfa -24 + ^ x29: .cfa -32 + ^
STACK CFI 65bd0 .cfa: sp 48 +
STACK CFI 65bdc .cfa: sp 0 +
STACK CFI 65be0 .cfa: x29 32 +
STACK CFI INIT 65be8 108 .cfa: sp 0 +
STACK CFI 65bec .cfa: sp 112 +
STACK CFI 65bf8 .cfa: x29 32 + x19: .cfa -8 + ^ x20: .cfa -16 + ^ .ra: .cfa -24 + ^ x29: .cfa -32 + ^
STACK CFI 65cc0 .cfa: sp 112 +
STACK CFI 65ccc .cfa: sp 0 +
STACK CFI 65cd0 .cfa: x29 32 +
STACK CFI INIT 65f38 17c .cfa: sp 0 +
STACK CFI 65f3c .cfa: sp 160 +
STACK CFI 65f4c .cfa: x29 48 + x19: .cfa -8 + ^ x20: .cfa -16 + ^ x21: .cfa -32 + ^ .ra: .cfa -40 + ^ x29: .cfa -48 + ^
STACK CFI 66058 .cfa: sp 160 +
STACK CFI 66068 .cfa: sp 0 +
STACK CFI 6606c .cfa: x29 48 +
STACK CFI INIT 660cc 184 .cfa: sp 0 +
STACK CFI 660d0 .cfa: sp 160 +
STACK CFI 660e4 .cfa: x29 40 + x19: .cfa -8 + ^ x20: .cfa -16 + ^ x21: .cfa -24 + ^ .ra: .cfa -32 + ^ x29: .cfa -40 + ^ v8: .cfa -48 + ^
STACK CFI 661f0 .cfa: sp 160 +
STACK CFI 66204 .cfa: sp 0 +
STACK CFI 66208 .cfa: x29 40 +
STACK CFI INIT 66250 e14 .cfa: sp 0 +
STACK CFI 66254 .cfa: sp 160 +
STACK CFI 66270 .cfa: x29 96 + x19: .cfa -8 + ^ x20: .cfa -16 + ^ x21: .cfa -24 + ^ x22: .cfa -32 + ^ x23: .cfa -40 + ^ x24: .cfa -48 + ^ x25: .cfa -56 + ^ x26: .cfa -64 + ^ x27: .cfa -72 + ^ x28: .cfa -80 + ^ .ra: .cfa -88 + ^ x29: .cfa -96 + ^
STACK CFI 66fe8 .cfa: sp 160 +
STACK CFI 67004 .cfa: sp 0 +
STACK CFI 67008 .cfa: x29 96 +
STACK CFI INIT 67064 1d0 .cfa: sp 0 +
STACK CFI 67068 .cfa: sp 208 +
STACK CFI 67080 .cfa: x29 80 + x19: .cfa -8 + ^ x20: .cfa -16 + ^ x21: .cfa -24 + ^ x22: .cfa -32 + ^ x23: .cfa -40 + ^ x24: .cfa -48 + ^ x25: .cfa -64 + ^ .ra: .cfa -72 + ^ x29: .cfa -80 + ^
STACK CFI 671c0 .cfa: sp 208 +
STACK CFI 671d8 .cfa: sp 0 +
STACK CFI 671dc .cfa: x29 80 +
STACK CFI INIT 67234 adc .cfa: sp 0 +
STACK CFI 67238 .cfa: sp 144 +
STACK CFI 67254 .cfa: x29 80 + x19: .cfa -8 + ^ x20: .cfa -16 + ^ x21: .cfa -24 + ^ x22: .cfa -32 + ^ x23: .cfa -40 + ^ x24: .cfa -48 + ^ x25: .cfa -56 + ^ x26: .cfa -64 + ^ .ra: .cfa -72 + ^ x29: .cfa -80 + ^ v8: .cfa -88 + ^ v9: .cfa -96 + ^
STACK CFI 67cb0 .cfa: sp 144 +
STACK CFI 67ccc .cfa: sp 0 +
STACK CFI 67cd0 .cfa: x29 80 +
STACK CFI INIT 67d10 f8 .cfa: sp 0 +
STACK CFI 67d14 .cfa: sp 32 +
STACK CFI 67d1c .cfa: x29 32 + x19: .cfa -8 + ^ x20: .cfa -16 + ^ .ra: .cfa -24 + ^ x29: .cfa -32 + ^
STACK CFI 67de8 .cfa: sp 32 +
STACK CFI 67df0 .cfa: sp 0 +
STACK CFI 67df4 .cfa: x29 32 +
STACK CFI INIT 67e08 13ec .cfa: sp 0 +
STACK CFI 67e0c .cfa: sp 144 +
STACK CFI 67e28 .cfa: x29 80 + x19: .cfa -8 + ^ x20: .cfa -16 + ^ x21: .cfa -24 + ^ x22: .cfa -32 + ^ x23: .cfa -40 + ^ x24: .cfa -48 + ^ x25: .cfa -56 + ^ x26: .cfa -64 + ^ .ra: .cfa -72 + ^ x29: .cfa -80 + ^ v8: .cfa -88 + ^ v9: .cfa -96 + ^
STACK CFI 6912c .cfa: sp 144 +
STACK CFI 69148 .cfa: sp 0 +
STACK CFI 6914c .cfa: x29 80 +
STACK CFI INIT 691f4 114 .cfa: sp 0 +
STACK CFI 691f8 .cfa: sp 48 +
STACK CFI 69208 .cfa: x29 40 + x19: .cfa -8 + ^ x20: .cfa -16 + ^ x21: .cfa -24 + ^ .ra: .cfa -32 + ^ x29: .cfa -40 + ^ v8: .cfa -48 + ^
STACK CFI 692e0 .cfa: sp 48 +
STACK CFI 692f0 .cfa: sp 0 +
STACK CFI 692f4 .cfa: x29 40 +
STACK CFI INIT 69308 f8 .cfa: sp 0 +
STACK CFI 6930c .cfa: sp 32 +
STACK CFI 69314 .cfa: x29 32 + x19: .cfa -8 + ^ x20: .cfa -16 + ^ .ra: .cfa -24 + ^ x29: .cfa -32 + ^
STACK CFI 693c8 .cfa: sp 32 +
STACK CFI 693d0 .cfa: sp 0 +
STACK CFI 693d4 .cfa: x29 32 +
STACK CFI INIT 69400 e94 .cfa: sp 0 +
STACK CFI 69404 .cfa: sp 160 +
STACK CFI 69424 .cfa: x29 96 + x19: .cfa -8 + ^ x20: .cfa -16 + ^ x21: .cfa -24 + ^ x22: .cfa -32 + ^ x23: .cfa -40 + ^ x24: .cfa -48 + ^ x25: .cfa -56 + ^ x26: .cfa -64 + ^ x27: .cfa -80 + ^ .ra: .cfa -88 + ^ x29: .cfa -96 + ^ v8: .cfa -104 + ^ v9: .cfa -112 + ^
STACK CFI 6a220 .cfa: sp 160 +
STACK CFI 6a240 .cfa: sp 0 +
STACK CFI 6a244 .cfa: x29 96 +
STACK CFI INIT 6a294 104 .cfa: sp 0 +
STACK CFI 6a298 .cfa: sp 32 +
STACK CFI 6a2a0 .cfa: x29 32 + x19: .cfa -8 + ^ x20: .cfa -16 + ^ .ra: .cfa -24 + ^ x29: .cfa -32 + ^
STACK CFI 6a378 .cfa: sp 32 +
STACK CFI 6a380 .cfa: sp 0 +
STACK CFI 6a384 .cfa: x29 32 +
STACK CFI INIT 6a398 a9c .cfa: sp 0 +
STACK CFI 6a39c .cfa: sp 128 +
STACK CFI 6a3bc .cfa: x29 96 + x19: .cfa -8 + ^ x20: .cfa -16 + ^ x21: .cfa -24 + ^ x22: .cfa -32 + ^ x23: .cfa -40 + ^ x24: .cfa -48 + ^ x25: .cfa -56 + ^ x26: .cfa -64 + ^ x27: .cfa -72 + ^ x28: .cfa -80 + ^ .ra: .cfa -88 + ^ x29: .cfa -96 + ^ v8: .cfa -104 + ^ v9: .cfa -112 + ^ v10: .cfa -128 + ^
STACK CFI 6add0 .cfa: sp 128 +
STACK CFI 6adf0 .cfa: sp 0 +
STACK CFI 6adf4 .cfa: x29 96 +
STACK CFI INIT 6ae34 1ac .cfa: sp 0 +
STACK CFI 6ae38 .cfa: sp 112 +
STACK CFI 6ae50 .cfa: x29 64 + x19: .cfa -8 + ^ x20: .cfa -16 + ^ x21: .cfa -24 + ^ x22: .cfa -32 + ^ x23: .cfa -40 + ^ x24: .cfa -48 + ^ .ra: .cfa -56 + ^ x29: .cfa -64 + ^ v8: .cfa -80 + ^
STACK CFI 6af88 .cfa: sp 112 +
STACK CFI 6afa0 .cfa: sp 0 +
STACK CFI 6afa4 .cfa: x29 64 +
STACK CFI INIT 6afe0 1a4 .cfa: sp 0 +
STACK CFI 6afe4 .cfa: sp 96 +
STACK CFI 6affc .cfa: x29 56 + x19: .cfa -8 + ^ x20: .cfa -16 + ^ x21: .cfa -24 + ^ x22: .cfa -32 + ^ x23: .cfa -40 + ^ .ra: .cfa -48 + ^ x29: .cfa -56 + ^ v8: .cfa -64 + ^
STACK CFI 6b12c .cfa: sp 96 +
STACK CFI 6b144 .cfa: sp 0 +
STACK CFI 6b148 .cfa: x29 56 +
STACK CFI INIT 6b184 d8c .cfa: sp 0 +
STACK CFI 6b188 .cfa: sp 272 +
STACK CFI 6b1a8 .cfa: x29 96 + x19: .cfa -8 + ^ x20: .cfa -16 + ^ x21: .cfa -24 + ^ x22: .cfa -32 + ^ x23: .cfa -40 + ^ x24: .cfa -48 + ^ x25: .cfa -56 + ^ x26: .cfa -64 + ^ x27: .cfa -72 + ^ x28: .cfa -80 + ^ .ra: .cfa -88 + ^ x29: .cfa -96 + ^ v8: .cfa -112 + ^
STACK CFI 6bdc4 .cfa: sp 272 +
STACK CFI 6bde4 .cfa: sp 0 +
STACK CFI 6bde8 .cfa: x29 96 +
STACK CFI INIT 6bf18 220 .cfa: sp 0 +
STACK CFI 6bf1c .cfa: sp 32 +
STACK CFI 6bf24 .cfa: x29 32 + x19: .cfa -16 + ^ .ra: .cfa -24 + ^ x29: .cfa -32 + ^
STACK CFI 6c124 .cfa: sp 32 +
STACK CFI 6c12c .cfa: sp 0 +
STACK CFI 6c130 .cfa: x29 32 +
STACK CFI INIT 6c37c 23c .cfa: sp 0 +
STACK CFI 6c380 .cfa: sp 96 +
STACK CFI 6c394 .cfa: x29 48 + x19: .cfa -8 + ^ x20: .cfa -16 + ^ x21: .cfa -24 + ^ x22: .cfa -32 + ^ .ra: .cfa -40 + ^ x29: .cfa -48 + ^ v8: .cfa -56 + ^ v9: .cfa -64 + ^
STACK CFI 6c54c .cfa: sp 96 +
STACK CFI 6c560 .cfa: sp 0 +
STACK CFI 6c564 .cfa: x29 48 +
STACK CFI INIT 6c70c 160 .cfa: sp 0 +
STACK CFI 6c710 .cfa: sp 112 +
STACK CFI 6c72c .cfa: x29 80 + x19: .cfa -8 + ^ x20: .cfa -16 + ^ x21: .cfa -24 + ^ x22: .cfa -32 + ^ x23: .cfa -40 + ^ x24: .cfa -48 + ^ x25: .cfa -64 + ^ .ra: .cfa -72 + ^ x29: .cfa -80 + ^ v8: .cfa -88 + ^ v9: .cfa -96 + ^
STACK CFI 6c81c .cfa: sp 112 +
STACK CFI 6c838 .cfa: sp 0 +
STACK CFI 6c83c .cfa: x29 80 +
STACK CFI INIT 6cb2c 20 .cfa: sp 0 +
STACK CFI 6cb30 .cfa: sp 16 +
STACK CFI 6cb34 .cfa: x29 16 + .ra: .cfa -8 + ^ x29: .cfa -16 + ^
STACK CFI 6cb40 .cfa: sp 16 +
STACK CFI 6cb44 .cfa: sp 0 +
STACK CFI 6cb48 .cfa: x29 16 +
STACK CFI INIT 6cd90 1a0 .cfa: sp 0 +
STACK CFI 6cd94 .cfa: sp 128 +
STACK CFI 6cda4 .cfa: x29 48 + x19: .cfa -8 + ^ x20: .cfa -16 + ^ x21: .cfa -32 + ^ .ra: .cfa -40 + ^ x29: .cfa -48 + ^
STACK CFI 6ceac .cfa: sp 128 +
STACK CFI 6cebc .cfa: sp 0 +
STACK CFI 6cec0 .cfa: x29 48 +
STACK CFI INIT 6d07c 1a0 .cfa: sp 0 +
STACK CFI 6d080 .cfa: sp 128 +
STACK CFI 6d090 .cfa: x29 48 + x19: .cfa -8 + ^ x20: .cfa -16 + ^ x21: .cfa -32 + ^ .ra: .cfa -40 + ^ x29: .cfa -48 + ^
STACK CFI 6d198 .cfa: sp 128 +
STACK CFI 6d1a8 .cfa: sp 0 +
STACK CFI 6d1ac .cfa: x29 48 +
STACK CFI INIT 6d284 1a0 .cfa: sp 0 +
STACK CFI 6d288 .cfa: sp 128 +
STACK CFI 6d298 .cfa: x29 48 + x19: .cfa -8 + ^ x20: .cfa -16 + ^ x21: .cfa -32 + ^ .ra: .cfa -40 + ^ x29: .cfa -48 + ^
STACK CFI 6d3a0 .cfa: sp 128 +
STACK CFI 6d3b0 .cfa: sp 0 +
STACK CFI 6d3b4 .cfa: x29 48 +
STACK CFI INIT 6d48c 1a0 .cfa: sp 0 +
STACK CFI 6d490 .cfa: sp 128 +
STACK CFI 6d4a0 .cfa: x29 48 + x19: .cfa -8 + ^ x20: .cfa -16 + ^ x21: .cfa -32 + ^ .ra: .cfa -40 + ^ x29: .cfa -48 + ^
STACK CFI 6d5a8 .cfa: sp 128 +
STACK CFI 6d5b8 .cfa: sp 0 +
STACK CFI 6d5bc .cfa: x29 48 +
STACK CFI INIT 6d690 6c .cfa: sp 0 +
STACK CFI 6d694 .cfa: sp 32 +
STACK CFI 6d69c .cfa: x29 32 + x19: .cfa -16 + ^ .ra: .cfa -24 + ^ x29: .cfa -32 + ^
STACK CFI 6d6ec .cfa: sp 32 +
STACK CFI 6d6f4 .cfa: sp 0 +
STACK CFI 6d6f8 .cfa: x29 32 +
STACK CFI INIT 6d700 6c .cfa: sp 0 +
STACK CFI 6d704 .cfa: sp 32 +
STACK CFI 6d70c .cfa: x29 32 + x19: .cfa -16 + ^ .ra: .cfa -24 + ^ x29: .cfa -32 + ^
STACK CFI 6d75c .cfa: sp 32 +
STACK CFI 6d764 .cfa: sp 0 +
STACK CFI 6d768 .cfa: x29 32 +
STACK CFI INIT 6da18 11d0 .cfa: sp 0 +
STACK CFI 6da1c .cfa: sp 160 +
STACK CFI 6da3c .cfa: x29 96 + x19: .cfa -8 + ^ x20: .cfa -16 + ^ x21: .cfa -24 + ^ x22: .cfa -32 + ^ x23: .cfa -40 + ^ x24: .cfa -48 + ^ x25: .cfa -56 + ^ x26: .cfa -64 + ^ x27: .cfa -72 + ^ x28: .cfa -80 + ^ .ra: .cfa -88 + ^ x29: .cfa -96 + ^ v8: .cfa -104 + ^ v9: .cfa -112 + ^
STACK CFI 6eb44 .cfa: sp 160 +
STACK CFI 6eb64 .cfa: sp 0 +
STACK CFI 6eb68 .cfa: x29 96 +
STACK CFI INIT 6ed58 20 .cfa: sp 0 +
STACK CFI 6ed5c .cfa: sp 16 +
STACK CFI 6ed60 .cfa: x29 16 + .ra: .cfa -8 + ^ x29: .cfa -16 + ^
STACK CFI 6ed6c .cfa: sp 16 +
STACK CFI 6ed70 .cfa: sp 0 +
STACK CFI 6ed74 .cfa: x29 16 +
STACK CFI INIT 6ed78 20 .cfa: sp 0 +
STACK CFI 6ed7c .cfa: sp 16 +
STACK CFI 6ed80 .cfa: x29 16 + .ra: .cfa -8 + ^ x29: .cfa -16 + ^
STACK CFI 6ed8c .cfa: sp 16 +
STACK CFI 6ed90 .cfa: sp 0 +
STACK CFI 6ed94 .cfa: x29 16 +
STACK CFI INIT 6ed98 824 .cfa: sp 0 +
STACK CFI 6ed9c .cfa: sp 96 +
STACK CFI 6edb4 .cfa: x29 96 + x19: .cfa -8 + ^ x20: .cfa -16 + ^ x21: .cfa -24 + ^ x22: .cfa -32 + ^ x23: .cfa -40 + ^ x24: .cfa -48 + ^ x25: .cfa -56 + ^ x26: .cfa -64 + ^ x27: .cfa -72 + ^ x28: .cfa -80 + ^ .ra: .cfa -88 + ^ x29: .cfa -96 + ^
STACK CFI 6f4ec .cfa: sp 96 +
STACK CFI 6f504 .cfa: sp 0 +
STACK CFI 6f508 .cfa: x29 96 +
STACK CFI INIT 6f5bc b8 .cfa: sp 0 +
STACK CFI 6f5c0 .cfa: sp 48 +
STACK CFI 6f5cc .cfa: x29 48 + x19: .cfa -8 + ^ x20: .cfa -16 + ^ x21: .cfa -32 + ^ .ra: .cfa -40 + ^ x29: .cfa -48 + ^
STACK CFI 6f63c .cfa: sp 48 +
STACK CFI 6f648 .cfa: sp 0 +
STACK CFI 6f64c .cfa: x29 48 +
STACK CFI INIT 6f6c4 174 .cfa: sp 0 +
STACK CFI 6f6c8 .cfa: sp 112 +
STACK CFI 6f6e0 .cfa: x29 80 + x19: .cfa -8 + ^ x20: .cfa -16 + ^ x21: .cfa -24 + ^ x22: .cfa -32 + ^ x23: .cfa -40 + ^ x24: .cfa -48 + ^ x25: .cfa -56 + ^ x26: .cfa -64 + ^ .ra: .cfa -72 + ^ x29: .cfa -80 + ^
STACK CFI 6f7d4 .cfa: sp 112 +
STACK CFI 6f7ec .cfa: sp 0 +
STACK CFI 6f7f0 .cfa: x29 80 +
STACK CFI INIT 6fbfc 27c .cfa: sp 0 +
STACK CFI 6fc00 .cfa: sp 80 +
STACK CFI 6fc10 .cfa: x29 48 + x19: .cfa -8 + ^ x20: .cfa -16 + ^ x21: .cfa -24 + ^ x22: .cfa -32 + ^ .ra: .cfa -40 + ^ x29: .cfa -48 + ^
STACK CFI 6fe0c .cfa: sp 80 +
STACK CFI 6fe1c .cfa: sp 0 +
STACK CFI 6fe20 .cfa: x29 48 +
STACK CFI INIT 6fe78 8f0 .cfa: sp 0 +
STACK CFI 6fe7c .cfa: sp 160 +
STACK CFI 6fe98 .cfa: x29 80 + x19: .cfa -8 + ^ x20: .cfa -16 + ^ x21: .cfa -24 + ^ x22: .cfa -32 + ^ x23: .cfa -40 + ^ x24: .cfa -48 + ^ x25: .cfa -56 + ^ x26: .cfa -64 + ^ .ra: .cfa -72 + ^ x29: .cfa -80 + ^ v8: .cfa -96 + ^
STACK CFI 706dc .cfa: sp 160 +
STACK CFI 706f8 .cfa: sp 0 +
STACK CFI 706fc .cfa: x29 80 +
STACK CFI INIT 70768 4ec .cfa: sp 0 +
STACK CFI 7076c .cfa: sp 128 +
STACK CFI 70784 .cfa: x29 80 + x19: .cfa -8 + ^ x20: .cfa -16 + ^ x21: .cfa -24 + ^ x22: .cfa -32 + ^ x23: .cfa -40 + ^ x24: .cfa -48 + ^ x25: .cfa -56 + ^ x26: .cfa -64 + ^ .ra: .cfa -72 + ^ x29: .cfa -80 + ^
STACK CFI 70c04 .cfa: sp 128 +
STACK CFI 70c1c .cfa: sp 0 +
STACK CFI 70c20 .cfa: x29 80 +
STACK CFI INIT 71210 338 .cfa: sp 0 +
STACK CFI 71214 .cfa: sp 192 +
STACK CFI 71234 .cfa: x29 96 + x19: .cfa -8 + ^ x20: .cfa -16 + ^ x21: .cfa -24 + ^ x22: .cfa -32 + ^ x23: .cfa -40 + ^ x24: .cfa -48 + ^ x25: .cfa -56 + ^ x26: .cfa -64 + ^ x27: .cfa -72 + ^ x28: .cfa -80 + ^ .ra: .cfa -88 + ^ x29: .cfa -96 + ^ v8: .cfa -104 + ^ v9: .cfa -112 + ^
STACK CFI 714b8 .cfa: sp 192 +
STACK CFI 714d8 .cfa: sp 0 +
STACK CFI 714dc .cfa: x29 96 +
STACK CFI INIT 71548 20 .cfa: sp 0 +
STACK CFI 7154c .cfa: sp 16 +
STACK CFI 71550 .cfa: x29 16 + .ra: .cfa -8 + ^ x29: .cfa -16 + ^
STACK CFI 7155c .cfa: sp 16 +
STACK CFI 71560 .cfa: sp 0 +
STACK CFI 71564 .cfa: x29 16 +
STACK CFI INIT 71568 580 .cfa: sp 0 +
STACK CFI 7156c .cfa: sp 144 +
STACK CFI 7158c .cfa: x29 96 + x19: .cfa -8 + ^ x20: .cfa -16 + ^ x21: .cfa -24 + ^ x22: .cfa -32 + ^ x23: .cfa -40 + ^ x24: .cfa -48 + ^ x25: .cfa -56 + ^ x26: .cfa -64 + ^ x27: .cfa -72 + ^ x28: .cfa -80 + ^ .ra: .cfa -88 + ^ x29: .cfa -96 + ^ v8: .cfa -104 + ^ v9: .cfa -112 + ^
STACK CFI 71a80 .cfa: sp 144 +
STACK CFI 71aa0 .cfa: sp 0 +
STACK CFI 71aa4 .cfa: x29 96 +
STACK CFI INIT 71b0c 2c8 .cfa: sp 0 +
STACK CFI 71b10 .cfa: sp 144 +
STACK CFI 71b28 .cfa: x29 56 + x19: .cfa -8 + ^ x20: .cfa -16 + ^ x21: .cfa -24 + ^ x22: .cfa -32 + ^ x23: .cfa -40 + ^ .ra: .cfa -48 + ^ x29: .cfa -56 + ^ v8: .cfa -64 + ^
STACK CFI 71d40 .cfa: sp 144 +
STACK CFI 71d58 .cfa: sp 0 +
STACK CFI 71d5c .cfa: x29 56 +
STACK CFI 71d70 .cfa: sp 144 +
STACK CFI 71d88 .cfa: sp 0 +
STACK CFI 71d8c .cfa: x29 56 +
STACK CFI INIT 71e24 140 .cfa: sp 0 +
STACK CFI 71e28 .cfa: sp 336 +
STACK CFI 71e3c .cfa: x29 64 + x19: .cfa -8 + ^ x20: .cfa -16 + ^ x21: .cfa -24 + ^ x22: .cfa -32 + ^ x28: .cfa -48 + ^ .ra: .cfa -56 + ^ x29: .cfa -64 + ^
STACK CFI 71f24 .cfa: sp 336 +
STACK CFI 71f38 .cfa: sp 0 +
STACK CFI 71f3c .cfa: x29 64 +
STACK CFI INIT 71fd8 434 .cfa: sp 0 +
STACK CFI 71fdc .cfa: sp 112 +
STACK CFI 71ff8 .cfa: x29 96 + x19: .cfa -8 + ^ x20: .cfa -16 + ^ x21: .cfa -24 + ^ x22: .cfa -32 + ^ x23: .cfa -40 + ^ x24: .cfa -48 + ^ x25: .cfa -56 + ^ x26: .cfa -64 + ^ x27: .cfa -72 + ^ x28: .cfa -80 + ^ .ra: .cfa -88 + ^ x29: .cfa -96 + ^
STACK CFI 720e0 .cfa: sp 112 +
STACK CFI 720fc .cfa: sp 0 +
STACK CFI 72100 .cfa: x29 96 +
STACK CFI 7210c .cfa: sp 112 +
STACK CFI 72128 .cfa: sp 0 +
STACK CFI 7212c .cfa: x29 96 +
STACK CFI 72138 .cfa: sp 112 +
STACK CFI 72154 .cfa: sp 0 +
STACK CFI 72158 .cfa: x29 96 +
STACK CFI 72164 .cfa: sp 112 +
STACK CFI 72180 .cfa: sp 0 +
STACK CFI 72184 .cfa: x29 96 +
STACK CFI 723a4 .cfa: sp 112 +
STACK CFI 723c0 .cfa: sp 0 +
STACK CFI 723c4 .cfa: x29 96 +
STACK CFI INIT 7240c 4c .cfa: sp 0 +
STACK CFI 72410 .cfa: sp 32 +
STACK CFI 72418 .cfa: x29 32 + x19: .cfa -8 + ^ x20: .cfa -16 + ^ .ra: .cfa -24 + ^ x29: .cfa -32 + ^
STACK CFI INIT 72d24 4c .cfa: sp 0 +
STACK CFI 72d28 .cfa: sp 32 +
STACK CFI 72d30 .cfa: x29 32 + x19: .cfa -8 + ^ x20: .cfa -16 + ^ .ra: .cfa -24 + ^ x29: .cfa -32 + ^
STACK CFI INIT 72e88 364 .cfa: sp 0 +
STACK CFI 72e8c .cfa: sp 144 +
STACK CFI 72ea0 .cfa: x29 64 + x19: .cfa -8 + ^ x20: .cfa -16 + ^ x21: .cfa -24 + ^ x22: .cfa -32 + ^ x23: .cfa -48 + ^ .ra: .cfa -56 + ^ x29: .cfa -64 + ^
STACK CFI 73034 .cfa: sp 144 +
STACK CFI 73048 .cfa: sp 0 +
STACK CFI 7304c .cfa: x29 64 +
STACK CFI INIT 73804 6c .cfa: sp 0 +
STACK CFI 73808 .cfa: sp 32 +
STACK CFI 73810 .cfa: x29 32 + x19: .cfa -8 + ^ x20: .cfa -16 + ^ .ra: .cfa -24 + ^ x29: .cfa -32 + ^
STACK CFI 73850 .cfa: sp 32 +
STACK CFI 73858 .cfa: sp 0 +
STACK CFI 7385c .cfa: x29 32 +
STACK CFI INIT 73924 4c .cfa: sp 0 +
STACK CFI 73928 .cfa: sp 32 +
STACK CFI 73930 .cfa: x29 32 + x19: .cfa -8 + ^ x20: .cfa -16 + ^ .ra: .cfa -24 + ^ x29: .cfa -32 + ^
STACK CFI INIT 73d90 1b8 .cfa: sp 0 +
STACK CFI 73d94 .cfa: sp 176 +
STACK CFI 73da4 .cfa: x29 48 + x19: .cfa -8 + ^ x20: .cfa -16 + ^ x21: .cfa -24 + ^ x22: .cfa -32 + ^ .ra: .cfa -40 + ^ x29: .cfa -48 + ^
STACK CFI 73f00 .cfa: sp 176 +
STACK CFI 73f10 .cfa: sp 0 +
STACK CFI 73f14 .cfa: x29 48 +
STACK CFI INIT 73f48 474 .cfa: sp 0 +
STACK CFI 73f4c .cfa: sp 256 +
STACK CFI 73f68 .cfa: x29 96 + x19: .cfa -8 + ^ x20: .cfa -16 + ^ x21: .cfa -24 + ^ x22: .cfa -32 + ^ x23: .cfa -40 + ^ x24: .cfa -48 + ^ x25: .cfa -56 + ^ x26: .cfa -64 + ^ x27: .cfa -72 + ^ x28: .cfa -80 + ^ .ra: .cfa -88 + ^ x29: .cfa -96 + ^
STACK CFI 742c0 .cfa: sp 256 +
STACK CFI 742dc .cfa: sp 0 +
STACK CFI 742e0 .cfa: x29 96 +
STACK CFI INIT 745dc 4c .cfa: sp 0 +
STACK CFI 745e0 .cfa: sp 32 +
STACK CFI 745e8 .cfa: x29 32 + x19: .cfa -8 + ^ x20: .cfa -16 + ^ .ra: .cfa -24 + ^ x29: .cfa -32 + ^
STACK CFI INIT 74628 178 .cfa: sp 0 +
STACK CFI 7462c .cfa: sp 80 +
STACK CFI 74640 .cfa: x29 80 + x19: .cfa -8 + ^ x20: .cfa -16 + ^ x21: .cfa -24 + ^ x22: .cfa -32 + ^ x23: .cfa -40 + ^ x24: .cfa -48 + ^ x25: .cfa -64 + ^ .ra: .cfa -72 + ^ x29: .cfa -80 + ^
STACK CFI 74734 .cfa: sp 80 +
STACK CFI 74748 .cfa: sp 0 +
STACK CFI 7474c .cfa: x29 80 +
STACK CFI INIT 747a0 4c .cfa: sp 0 +
STACK CFI 747a4 .cfa: sp 32 +
STACK CFI 747ac .cfa: x29 32 + x19: .cfa -8 + ^ x20: .cfa -16 + ^ .ra: .cfa -24 + ^ x29: .cfa -32 + ^
STACK CFI INIT 74874 1e4 .cfa: sp 0 +
STACK CFI 74878 .cfa: sp 112 +
STACK CFI 7488c .cfa: x29 64 + x19: .cfa -8 + ^ x20: .cfa -16 + ^ x21: .cfa -24 + ^ x22: .cfa -32 + ^ x23: .cfa -48 + ^ .ra: .cfa -56 + ^ x29: .cfa -64 + ^
STACK CFI 749ec .cfa: sp 112 +
STACK CFI 74a00 .cfa: sp 0 +
STACK CFI 74a04 .cfa: x29 64 +
STACK CFI INIT 74ed8 154 .cfa: sp 0 +
STACK CFI 74edc .cfa: sp 64 +
STACK CFI 74eec .cfa: x29 64 + x19: .cfa -8 + ^ x20: .cfa -16 + ^ x21: .cfa -24 + ^ x22: .cfa -32 + ^ x23: .cfa -48 + ^ .ra: .cfa -56 + ^ x29: .cfa -64 + ^
STACK CFI 75000 .cfa: sp 64 +
STACK CFI 75010 .cfa: sp 0 +
STACK CFI 75014 .cfa: x29 64 +
STACK CFI INIT 7502c 4c .cfa: sp 0 +
STACK CFI 75030 .cfa: sp 32 +
STACK CFI 75038 .cfa: x29 32 + x19: .cfa -8 + ^ x20: .cfa -16 + ^ .ra: .cfa -24 + ^ x29: .cfa -32 + ^
STACK CFI INIT 75128 4c .cfa: sp 0 +
STACK CFI 7512c .cfa: sp 32 +
STACK CFI 75134 .cfa: x29 32 + x19: .cfa -8 + ^ x20: .cfa -16 + ^ .ra: .cfa -24 + ^ x29: .cfa -32 + ^
STACK CFI INIT 7523c 204 .cfa: sp 0 +
STACK CFI 75240 .cfa: sp 48 +
STACK CFI 7524c .cfa: x29 48 + x19: .cfa -8 + ^ x20: .cfa -16 + ^ x21: .cfa -32 + ^ .ra: .cfa -40 + ^ x29: .cfa -48 + ^
STACK CFI 75408 .cfa: sp 48 +
STACK CFI 75414 .cfa: sp 0 +
STACK CFI 75418 .cfa: x29 48 +
STACK CFI INIT 758a8 140 .cfa: sp 0 +
STACK CFI 758ac .cfa: sp 48 +
STACK CFI 758b8 .cfa: x29 48 + x19: .cfa -8 + ^ x20: .cfa -16 + ^ x21: .cfa -32 + ^ .ra: .cfa -40 + ^ x29: .cfa -48 + ^
STACK CFI 75998 .cfa: sp 48 +
STACK CFI 759a4 .cfa: sp 0 +
STACK CFI 759a8 .cfa: x29 48 +
STACK CFI INIT 759e8 4c .cfa: sp 0 +
STACK CFI 759ec .cfa: sp 32 +
STACK CFI 759f4 .cfa: x29 32 + x19: .cfa -8 + ^ x20: .cfa -16 + ^ .ra: .cfa -24 + ^ x29: .cfa -32 + ^
STACK CFI INIT 762f0 1bc .cfa: sp 0 +
STACK CFI 762f4 .cfa: sp 128 +
STACK CFI 7630c .cfa: x29 80 + x19: .cfa -8 + ^ x20: .cfa -16 + ^ x21: .cfa -24 + ^ x22: .cfa -32 + ^ x23: .cfa -40 + ^ x24: .cfa -48 + ^ x25: .cfa -64 + ^ .ra: .cfa -72 + ^ x29: .cfa -80 + ^
STACK CFI 763fc .cfa: sp 128 +
STACK CFI 76414 .cfa: sp 0 +
STACK CFI 76418 .cfa: x29 80 +
STACK CFI INIT 7671c a14 .cfa: sp 0 +
STACK CFI 76720 .cfa: sp 224 +
STACK CFI 7673c .cfa: x29 96 + x19: .cfa -8 + ^ x20: .cfa -16 + ^ x21: .cfa -24 + ^ x22: .cfa -32 + ^ x23: .cfa -40 + ^ x24: .cfa -48 + ^ x25: .cfa -56 + ^ x26: .cfa -64 + ^ x27: .cfa -72 + ^ x28: .cfa -80 + ^ .ra: .cfa -88 + ^ x29: .cfa -96 + ^
STACK CFI 77040 .cfa: sp 224 +
STACK CFI 7705c .cfa: sp 0 +
STACK CFI 77060 .cfa: x29 96 +
STACK CFI INIT 77174 2b0 .cfa: sp 0 +
STACK CFI 77178 .cfa: sp 144 +
STACK CFI 77190 .cfa: x29 80 + x19: .cfa -8 + ^ x20: .cfa -16 + ^ x21: .cfa -24 + ^ x22: .cfa -32 + ^ x23: .cfa -40 + ^ x24: .cfa -48 + ^ x25: .cfa -64 + ^ .ra: .cfa -72 + ^ x29: .cfa -80 + ^
STACK CFI 773a8 .cfa: sp 144 +
STACK CFI 773c0 .cfa: sp 0 +
STACK CFI 773c4 .cfa: x29 80 +
STACK CFI INIT 775ec 1d4 .cfa: sp 0 +
STACK CFI 775f0 .cfa: sp 112 +
STACK CFI 77608 .cfa: x29 80 + x19: .cfa -8 + ^ x20: .cfa -16 + ^ x21: .cfa -24 + ^ x22: .cfa -32 + ^ x23: .cfa -40 + ^ x24: .cfa -48 + ^ x25: .cfa -64 + ^ .ra: .cfa -72 + ^ x29: .cfa -80 + ^
STACK CFI 77744 .cfa: sp 112 +
STACK CFI 7775c .cfa: sp 0 +
STACK CFI 77760 .cfa: x29 80 +
STACK CFI INIT 777d4 4c .cfa: sp 0 +
STACK CFI 777d8 .cfa: sp 32 +
STACK CFI 777e0 .cfa: x29 32 + x19: .cfa -8 + ^ x20: .cfa -16 + ^ .ra: .cfa -24 + ^ x29: .cfa -32 + ^
STACK CFI INIT 77820 4d8 .cfa: sp 0 +
STACK CFI 77824 .cfa: sp 176 +
STACK CFI 77838 .cfa: x29 64 + x19: .cfa -8 + ^ x20: .cfa -16 + ^ x21: .cfa -24 + ^ x22: .cfa -32 + ^ x23: .cfa -40 + ^ x24: .cfa -48 + ^ .ra: .cfa -56 + ^ x29: .cfa -64 + ^
STACK CFI 77a70 .cfa: sp 176 +
STACK CFI 77a84 .cfa: sp 0 +
STACK CFI 77a88 .cfa: x29 64 +
STACK CFI INIT 77cf8 28c .cfa: sp 0 +
STACK CFI 77cfc .cfa: sp 128 +
STACK CFI 77d10 .cfa: x29 64 + x19: .cfa -8 + ^ x20: .cfa -16 + ^ x21: .cfa -24 + ^ x22: .cfa -32 + ^ x23: .cfa -40 + ^ x24: .cfa -48 + ^ .ra: .cfa -56 + ^ x29: .cfa -64 + ^
STACK CFI 77eb4 .cfa: sp 128 +
STACK CFI 77ec8 .cfa: sp 0 +
STACK CFI 77ecc .cfa: x29 64 +
STACK CFI INIT 78554 470 .cfa: sp 0 +
STACK CFI 78558 .cfa: sp 176 +
STACK CFI 7856c .cfa: x29 64 + x19: .cfa -8 + ^ x20: .cfa -16 + ^ x21: .cfa -24 + ^ x22: .cfa -32 + ^ x23: .cfa -40 + ^ x24: .cfa -48 + ^ .ra: .cfa -56 + ^ x29: .cfa -64 + ^
STACK CFI 78938 .cfa: sp 176 +
STACK CFI 7894c .cfa: sp 0 +
STACK CFI 78950 .cfa: x29 64 +
STACK CFI INIT 78bd0 4c .cfa: sp 0 +
STACK CFI 78bd4 .cfa: sp 32 +
STACK CFI 78bdc .cfa: x29 32 + x19: .cfa -8 + ^ x20: .cfa -16 + ^ .ra: .cfa -24 + ^ x29: .cfa -32 + ^
STACK CFI INIT 78c1c 2b0 .cfa: sp 0 +
STACK CFI 78c20 .cfa: sp 144 +
STACK CFI 78c38 .cfa: x29 80 + x19: .cfa -8 + ^ x20: .cfa -16 + ^ x21: .cfa -24 + ^ x22: .cfa -32 + ^ x23: .cfa -40 + ^ x24: .cfa -48 + ^ x25: .cfa -64 + ^ .ra: .cfa -72 + ^ x29: .cfa -80 + ^
STACK CFI 78e50 .cfa: sp 144 +
STACK CFI 78e68 .cfa: sp 0 +
STACK CFI 78e6c .cfa: x29 80 +
STACK CFI INIT 78ecc 228 .cfa: sp 0 +
STACK CFI 78ed0 .cfa: sp 112 +
STACK CFI 78ee8 .cfa: x29 80 + x19: .cfa -8 + ^ x20: .cfa -16 + ^ x21: .cfa -24 + ^ x22: .cfa -32 + ^ x23: .cfa -40 + ^ x24: .cfa -48 + ^ x25: .cfa -64 + ^ .ra: .cfa -72 + ^ x29: .cfa -80 + ^
STACK CFI 79078 .cfa: sp 112 +
STACK CFI 79090 .cfa: sp 0 +
STACK CFI 79094 .cfa: x29 80 +
STACK CFI INIT 790f4 1b0 .cfa: sp 0 +
STACK CFI 790f8 .cfa: sp 128 +
STACK CFI 79110 .cfa: x29 80 + x19: .cfa -8 + ^ x20: .cfa -16 + ^ x21: .cfa -24 + ^ x22: .cfa -32 + ^ x23: .cfa -40 + ^ x24: .cfa -48 + ^ x25: .cfa -64 + ^ .ra: .cfa -72 + ^ x29: .cfa -80 + ^
STACK CFI 79234 .cfa: sp 128 +
STACK CFI 7924c .cfa: sp 0 +
STACK CFI 79250 .cfa: x29 80 +
STACK CFI INIT 79320 4c .cfa: sp 0 +
STACK CFI 79324 .cfa: sp 32 +
STACK CFI 7932c .cfa: x29 32 + x19: .cfa -8 + ^ x20: .cfa -16 + ^ .ra: .cfa -24 + ^ x29: .cfa -32 + ^
STACK CFI INIT 7936c 194 .cfa: sp 0 +
STACK CFI 79370 .cfa: sp 112 +
STACK CFI 79388 .cfa: x29 80 + x19: .cfa -8 + ^ x20: .cfa -16 + ^ x21: .cfa -24 + ^ x22: .cfa -32 + ^ x23: .cfa -40 + ^ x24: .cfa -48 + ^ x25: .cfa -64 + ^ .ra: .cfa -72 + ^ x29: .cfa -80 + ^
STACK CFI 7949c .cfa: sp 112 +
STACK CFI 794b4 .cfa: sp 0 +
STACK CFI 794b8 .cfa: x29 80 +
STACK CFI INIT 7965c 1c4 .cfa: sp 0 +
STACK CFI 79660 .cfa: sp 112 +
STACK CFI 79678 .cfa: x29 80 + x19: .cfa -8 + ^ x20: .cfa -16 + ^ x21: .cfa -24 + ^ x22: .cfa -32 + ^ x23: .cfa -40 + ^ x24: .cfa -48 + ^ x25: .cfa -64 + ^ .ra: .cfa -72 + ^ x29: .cfa -80 + ^
STACK CFI 797bc .cfa: sp 112 +
STACK CFI 797d4 .cfa: sp 0 +
STACK CFI 797d8 .cfa: x29 80 +
STACK CFI INIT 79820 4c .cfa: sp 0 +
STACK CFI 79824 .cfa: sp 32 +
STACK CFI 7982c .cfa: x29 32 + x19: .cfa -8 + ^ x20: .cfa -16 + ^ .ra: .cfa -24 + ^ x29: .cfa -32 + ^
STACK CFI INIT 79b2c 140 .cfa: sp 0 +
STACK CFI 79b30 .cfa: sp 96 +
STACK CFI 79b48 .cfa: x29 96 + x19: .cfa -8 + ^ x20: .cfa -16 + ^ x21: .cfa -24 + ^ x22: .cfa -32 + ^ x23: .cfa -40 + ^ x24: .cfa -48 + ^ x25: .cfa -56 + ^ x26: .cfa -64 + ^ x27: .cfa -72 + ^ x28: .cfa -80 + ^ .ra: .cfa -88 + ^ x29: .cfa -96 + ^
STACK CFI 79c04 .cfa: sp 96 +
STACK CFI 79c1c .cfa: sp 0 +
STACK CFI 79c20 .cfa: x29 96 +
STACK CFI INIT 79c6c 4c .cfa: sp 0 +
STACK CFI 79c70 .cfa: sp 32 +
STACK CFI 79c78 .cfa: x29 32 + x19: .cfa -8 + ^ x20: .cfa -16 + ^ .ra: .cfa -24 + ^ x29: .cfa -32 + ^
STACK CFI INIT 79cb8 4c .cfa: sp 0 +
STACK CFI 79cbc .cfa: sp 32 +
STACK CFI 79cc4 .cfa: x29 32 + x19: .cfa -8 + ^ x20: .cfa -16 + ^ .ra: .cfa -24 + ^ x29: .cfa -32 + ^
STACK CFI INIT 7a194 4c .cfa: sp 0 +
STACK CFI 7a198 .cfa: sp 32 +
STACK CFI 7a1a0 .cfa: x29 32 + x19: .cfa -8 + ^ x20: .cfa -16 + ^ .ra: .cfa -24 + ^ x29: .cfa -32 + ^
STACK CFI INIT 7b0c4 8e0 .cfa: sp 0 +
STACK CFI 7b0c8 .cfa: sp 336 +
STACK CFI 7b0e4 .cfa: x29 96 + x19: .cfa -8 + ^ x20: .cfa -16 + ^ x21: .cfa -24 + ^ x22: .cfa -32 + ^ x23: .cfa -40 + ^ x24: .cfa -48 + ^ x25: .cfa -56 + ^ x26: .cfa -64 + ^ x27: .cfa -72 + ^ x28: .cfa -80 + ^ .ra: .cfa -88 + ^ x29: .cfa -96 + ^
STACK CFI 7b904 .cfa: sp 336 +
STACK CFI 7b920 .cfa: sp 0 +
STACK CFI 7b924 .cfa: x29 96 +
STACK CFI INIT 7b9a4 600 .cfa: sp 0 +
STACK CFI 7b9a8 .cfa: sp 400 +
STACK CFI 7b9c4 .cfa: x29 96 + x19: .cfa -8 + ^ x20: .cfa -16 + ^ x21: .cfa -24 + ^ x22: .cfa -32 + ^ x23: .cfa -40 + ^ x24: .cfa -48 + ^ x25: .cfa -56 + ^ x26: .cfa -64 + ^ x27: .cfa -72 + ^ x28: .cfa -80 + ^ .ra: .cfa -88 + ^ x29: .cfa -96 + ^
STACK CFI 7befc .cfa: sp 400 +
STACK CFI 7bf18 .cfa: sp 0 +
STACK CFI 7bf1c .cfa: x29 96 +
STACK CFI INIT 7c174 4bc .cfa: sp 0 +
STACK CFI 7c178 .cfa: sp 144 +
STACK CFI 7c194 .cfa: x29 96 + x19: .cfa -8 + ^ x20: .cfa -16 + ^ x21: .cfa -24 + ^ x22: .cfa -32 + ^ x23: .cfa -40 + ^ x24: .cfa -48 + ^ x25: .cfa -56 + ^ x26: .cfa -64 + ^ x27: .cfa -80 + ^ .ra: .cfa -88 + ^ x29: .cfa -96 + ^
STACK CFI 7c510 .cfa: sp 144 +
STACK CFI 7c52c .cfa: sp 0 +
STACK CFI 7c530 .cfa: x29 96 +
STACK CFI INIT 7cad0 3e4 .cfa: sp 0 +
STACK CFI 7cad4 .cfa: sp 112 +
STACK CFI 7caf0 .cfa: x29 96 + x19: .cfa -8 + ^ x20: .cfa -16 + ^ x21: .cfa -24 + ^ x22: .cfa -32 + ^ x23: .cfa -40 + ^ x24: .cfa -48 + ^ x25: .cfa -56 + ^ x26: .cfa -64 + ^ x27: .cfa -72 + ^ x28: .cfa -80 + ^ .ra: .cfa -88 + ^ x29: .cfa -96 + ^
STACK CFI 7cc94 .cfa: sp 112 +
STACK CFI 7ccb0 .cfa: sp 0 +
STACK CFI 7ccb4 .cfa: x29 96 +
STACK CFI 7ce1c .cfa: sp 112 +
STACK CFI 7ce38 .cfa: sp 0 +
STACK CFI 7ce3c .cfa: x29 96 +
STACK CFI INIT 7de18 370 .cfa: sp 0 +
STACK CFI 7de1c .cfa: sp 128 +
STACK CFI 7de34 .cfa: x29 56 + x19: .cfa -8 + ^ x20: .cfa -16 + ^ x21: .cfa -24 + ^ x22: .cfa -32 + ^ x23: .cfa -40 + ^ .ra: .cfa -48 + ^ x29: .cfa -56 + ^ v8: .cfa -64 + ^
STACK CFI 7e124 .cfa: sp 128 +
STACK CFI 7e13c .cfa: sp 0 +
STACK CFI 7e140 .cfa: x29 56 +
STACK CFI INIT 7e2b0 4f4 .cfa: sp 0 +
STACK CFI 7e2b4 .cfa: sp 352 +
STACK CFI 7e2d0 .cfa: x29 96 + x19: .cfa -8 + ^ x20: .cfa -16 + ^ x21: .cfa -24 + ^ x22: .cfa -32 + ^ x23: .cfa -40 + ^ x24: .cfa -48 + ^ x25: .cfa -56 + ^ x26: .cfa -64 + ^ x28: .cfa -80 + ^ .ra: .cfa -88 + ^ x29: .cfa -96 + ^
STACK CFI 7e6c4 .cfa: sp 352 +
STACK CFI 7e6e0 .cfa: sp 0 +
STACK CFI 7e6e4 .cfa: x29 96 +
STACK CFI INIT 7e7a4 6d4 .cfa: sp 0 +
STACK CFI 7e7a8 .cfa: sp 160 +
STACK CFI 7e7cc .cfa: x29 88 + x19: .cfa -8 + ^ x20: .cfa -16 + ^ x21: .cfa -24 + ^ x22: .cfa -32 + ^ x23: .cfa -40 + ^ x24: .cfa -48 + ^ x25: .cfa -56 + ^ x26: .cfa -64 + ^ x27: .cfa -72 + ^ .ra: .cfa -80 + ^ x29: .cfa -88 + ^ v8: .cfa -96 + ^ v9: .cfa -104 + ^ v10: .cfa -112 + ^
STACK CFI 7edfc .cfa: sp 160 +
STACK CFI 7ee20 .cfa: sp 0 +
STACK CFI 7ee24 .cfa: x29 88 +
STACK CFI INIT 7f00c 490 .cfa: sp 0 +
STACK CFI 7f010 .cfa: sp 128 +
STACK CFI 7f028 .cfa: x29 64 + x19: .cfa -8 + ^ x20: .cfa -16 + ^ x21: .cfa -24 + ^ x22: .cfa -32 + ^ x23: .cfa -40 + ^ x24: .cfa -48 + ^ .ra: .cfa -56 + ^ x29: .cfa -64 + ^ v8: .cfa -80 + ^
STACK CFI 7f448 .cfa: sp 128 +
STACK CFI 7f460 .cfa: sp 0 +
STACK CFI 7f464 .cfa: x29 64 +
STACK CFI INIT 7f4d8 74 .cfa: sp 0 +
STACK CFI 7f4dc .cfa: sp 48 +
STACK CFI 7f4e8 .cfa: x29 32 + x19: .cfa -8 + ^ x20: .cfa -16 + ^ .ra: .cfa -24 + ^ x29: .cfa -32 + ^
STACK CFI 7f534 .cfa: sp 48 +
STACK CFI 7f540 .cfa: sp 0 +
STACK CFI 7f544 .cfa: x29 32 +
STACK CFI INIT 7f54c 74 .cfa: sp 0 +
STACK CFI 7f550 .cfa: sp 48 +
STACK CFI 7f55c .cfa: x29 32 + x19: .cfa -8 + ^ x20: .cfa -16 + ^ .ra: .cfa -24 + ^ x29: .cfa -32 + ^
STACK CFI 7f5a8 .cfa: sp 48 +
STACK CFI 7f5b4 .cfa: sp 0 +
STACK CFI 7f5b8 .cfa: x29 32 +
STACK CFI INIT 7f5c0 438 .cfa: sp 0 +
STACK CFI 7f5c4 .cfa: sp 400 +
STACK CFI 7f5dc .cfa: x29 80 + x19: .cfa -8 + ^ x20: .cfa -16 + ^ x21: .cfa -24 + ^ x22: .cfa -32 + ^ x23: .cfa -40 + ^ x24: .cfa -48 + ^ x28: .cfa -64 + ^ .ra: .cfa -72 + ^ x29: .cfa -80 + ^
STACK CFI 7f94c .cfa: sp 400 +
STACK CFI 7f964 .cfa: sp 0 +
STACK CFI 7f968 .cfa: x29 80 +
STACK CFI INIT 7f9f8 128 .cfa: sp 0 +
STACK CFI 7f9fc .cfa: sp 112 +
STACK CFI 7fa08 .cfa: x29 32 + x19: .cfa -8 + ^ x20: .cfa -16 + ^ .ra: .cfa -24 + ^ x29: .cfa -32 + ^
STACK CFI 7fac8 .cfa: sp 112 +
STACK CFI 7fad4 .cfa: sp 0 +
STACK CFI 7fad8 .cfa: x29 32 +
STACK CFI INIT 7fb20 74 .cfa: sp 0 +
STACK CFI 7fb24 .cfa: sp 48 +
STACK CFI 7fb30 .cfa: x29 32 + x19: .cfa -8 + ^ x20: .cfa -16 + ^ .ra: .cfa -24 + ^ x29: .cfa -32 + ^
STACK CFI 7fb7c .cfa: sp 48 +
STACK CFI 7fb88 .cfa: sp 0 +
STACK CFI 7fb8c .cfa: x29 32 +
STACK CFI INIT 7fb94 74 .cfa: sp 0 +
STACK CFI 7fb98 .cfa: sp 48 +
STACK CFI 7fba4 .cfa: x29 32 + x19: .cfa -8 + ^ x20: .cfa -16 + ^ .ra: .cfa -24 + ^ x29: .cfa -32 + ^
STACK CFI 7fbf0 .cfa: sp 48 +
STACK CFI 7fbfc .cfa: sp 0 +
STACK CFI 7fc00 .cfa: x29 32 +
STACK CFI INIT 7fc08 74 .cfa: sp 0 +
STACK CFI 7fc0c .cfa: sp 48 +
STACK CFI 7fc18 .cfa: x29 32 + x19: .cfa -8 + ^ x20: .cfa -16 + ^ .ra: .cfa -24 + ^ x29: .cfa -32 + ^
STACK CFI 7fc64 .cfa: sp 48 +
STACK CFI 7fc70 .cfa: sp 0 +
STACK CFI 7fc74 .cfa: x29 32 +
STACK CFI INIT 7fd18 300 .cfa: sp 0 +
STACK CFI 7fd1c .cfa: sp 336 +
STACK CFI 7fd38 .cfa: x29 96 + x19: .cfa -8 + ^ x20: .cfa -16 + ^ x21: .cfa -24 + ^ x22: .cfa -32 + ^ x23: .cfa -40 + ^ x24: .cfa -48 + ^ x25: .cfa -56 + ^ x26: .cfa -64 + ^ x28: .cfa -80 + ^ .ra: .cfa -88 + ^ x29: .cfa -96 + ^
STACK CFI 7fef0 .cfa: sp 336 +
STACK CFI 7ff0c .cfa: sp 0 +
STACK CFI 7ff10 .cfa: x29 96 +
STACK CFI INIT 80018 1b4 .cfa: sp 0 +
STACK CFI 8001c .cfa: sp 128 +
STACK CFI 80030 .cfa: x29 64 + x19: .cfa -8 + ^ x20: .cfa -16 + ^ x21: .cfa -24 + ^ x22: .cfa -32 + ^ x23: .cfa -48 + ^ .ra: .cfa -56 + ^ x29: .cfa -64 + ^
STACK CFI 80170 .cfa: sp 128 +
STACK CFI 80184 .cfa: sp 0 +
STACK CFI 80188 .cfa: x29 64 +
STACK CFI INIT 801cc d8 .cfa: sp 0 +
STACK CFI 801d0 .cfa: sp 64 +
STACK CFI 801e0 .cfa: x29 64 + x19: .cfa -8 + ^ x20: .cfa -16 + ^ x21: .cfa -24 + ^ x22: .cfa -32 + ^ x23: .cfa -40 + ^ x24: .cfa -48 + ^ .ra: .cfa -56 + ^ x29: .cfa -64 + ^
STACK CFI 8026c .cfa: sp 64 +
STACK CFI 8027c .cfa: sp 0 +
STACK CFI 80280 .cfa: x29 64 +
STACK CFI INIT 802a4 d8 .cfa: sp 0 +
STACK CFI 802a8 .cfa: sp 64 +
STACK CFI 802b8 .cfa: x29 64 + x19: .cfa -8 + ^ x20: .cfa -16 + ^ x21: .cfa -24 + ^ x22: .cfa -32 + ^ x23: .cfa -40 + ^ x24: .cfa -48 + ^ .ra: .cfa -56 + ^ x29: .cfa -64 + ^
STACK CFI 80344 .cfa: sp 64 +
STACK CFI 80354 .cfa: sp 0 +
STACK CFI 80358 .cfa: x29 64 +
STACK CFI INIT 8037c d8 .cfa: sp 0 +
STACK CFI 80380 .cfa: sp 64 +
STACK CFI 80390 .cfa: x29 64 + x19: .cfa -8 + ^ x20: .cfa -16 + ^ x21: .cfa -24 + ^ x22: .cfa -32 + ^ x23: .cfa -40 + ^ x24: .cfa -48 + ^ .ra: .cfa -56 + ^ x29: .cfa -64 + ^
STACK CFI 8041c .cfa: sp 64 +
STACK CFI 8042c .cfa: sp 0 +
STACK CFI 80430 .cfa: x29 64 +
STACK CFI INIT 80454 160 .cfa: sp 0 +
STACK CFI 80458 .cfa: sp 112 +
STACK CFI 80470 .cfa: x29 80 + x19: .cfa -8 + ^ x20: .cfa -16 + ^ x21: .cfa -24 + ^ x22: .cfa -32 + ^ x23: .cfa -40 + ^ x24: .cfa -48 + ^ x25: .cfa -64 + ^ .ra: .cfa -72 + ^ x29: .cfa -80 + ^
STACK CFI 80540 .cfa: sp 112 +
STACK CFI 80558 .cfa: sp 0 +
STACK CFI 8055c .cfa: x29 80 +
STACK CFI INIT 805b4 d8 .cfa: sp 0 +
STACK CFI 805b8 .cfa: sp 64 +
STACK CFI 805c8 .cfa: x29 64 + x19: .cfa -8 + ^ x20: .cfa -16 + ^ x21: .cfa -24 + ^ x22: .cfa -32 + ^ x23: .cfa -40 + ^ x24: .cfa -48 + ^ .ra: .cfa -56 + ^ x29: .cfa -64 + ^
STACK CFI 80654 .cfa: sp 64 +
STACK CFI 80664 .cfa: sp 0 +
STACK CFI 80668 .cfa: x29 64 +
STACK CFI INIT 80730 1d0 .cfa: sp 0 +
STACK CFI 80734 .cfa: sp 144 +
STACK CFI 80750 .cfa: x29 96 + x19: .cfa -8 + ^ x20: .cfa -16 + ^ x21: .cfa -24 + ^ x22: .cfa -32 + ^ x23: .cfa -40 + ^ x24: .cfa -48 + ^ x25: .cfa -56 + ^ x26: .cfa -64 + ^ x27: .cfa -80 + ^ .ra: .cfa -88 + ^ x29: .cfa -96 + ^
STACK CFI 80868 .cfa: sp 144 +
STACK CFI 80884 .cfa: sp 0 +
STACK CFI 80888 .cfa: x29 96 +
STACK CFI INIT 80a04 dc .cfa: sp 0 +
STACK CFI 80a08 .cfa: sp 32 +
STACK CFI 80a10 .cfa: x29 32 + x19: .cfa -8 + ^ x20: .cfa -16 + ^ .ra: .cfa -24 + ^ x29: .cfa -32 + ^
STACK CFI 80ac0 .cfa: sp 32 +
STACK CFI 80ac8 .cfa: sp 0 +
STACK CFI 80acc .cfa: x29 32 +
STACK CFI INIT 81040 11c4 .cfa: sp 0 +
STACK CFI 81044 .cfa: sp 112 +
STACK CFI 81060 .cfa: x29 96 + x19: .cfa -8 + ^ x20: .cfa -16 + ^ x21: .cfa -24 + ^ x22: .cfa -32 + ^ x23: .cfa -40 + ^ x24: .cfa -48 + ^ x25: .cfa -56 + ^ x26: .cfa -64 + ^ x27: .cfa -72 + ^ x28: .cfa -80 + ^ .ra: .cfa -88 + ^ x29: .cfa -96 + ^ v8: .cfa -104 + ^ v9: .cfa -112 + ^
STACK CFI 81cd8 .cfa: sp 112 +
STACK CFI 81cf4 .cfa: sp 0 +
STACK CFI 81cf8 .cfa: x29 96 +
STACK CFI INIT 82364 d8 .cfa: sp 0 +
STACK CFI 82368 .cfa: sp 96 +
STACK CFI 82374 .cfa: x29 32 + x19: .cfa -8 + ^ x20: .cfa -16 + ^ .ra: .cfa -24 + ^ x29: .cfa -32 + ^
STACK CFI 823dc .cfa: sp 96 +
STACK CFI 823e8 .cfa: sp 0 +
STACK CFI 823ec .cfa: x29 32 +
STACK CFI INIT 8243c 3f0 .cfa: sp 0 +
STACK CFI 82440 .cfa: sp 224 +
STACK CFI 8245c .cfa: x29 96 + x19: .cfa -8 + ^ x20: .cfa -16 + ^ x21: .cfa -24 + ^ x22: .cfa -32 + ^ x23: .cfa -40 + ^ x24: .cfa -48 + ^ x25: .cfa -56 + ^ x26: .cfa -64 + ^ x27: .cfa -72 + ^ x28: .cfa -80 + ^ .ra: .cfa -88 + ^ x29: .cfa -96 + ^
STACK CFI 82724 .cfa: sp 224 +
STACK CFI 82740 .cfa: sp 0 +
STACK CFI 82744 .cfa: x29 96 +
STACK CFI INIT 8282c 3f0 .cfa: sp 0 +
STACK CFI 82830 .cfa: sp 224 +
STACK CFI 8284c .cfa: x29 96 + x19: .cfa -8 + ^ x20: .cfa -16 + ^ x21: .cfa -24 + ^ x22: .cfa -32 + ^ x23: .cfa -40 + ^ x24: .cfa -48 + ^ x25: .cfa -56 + ^ x26: .cfa -64 + ^ x27: .cfa -72 + ^ x28: .cfa -80 + ^ .ra: .cfa -88 + ^ x29: .cfa -96 + ^
STACK CFI 82b14 .cfa: sp 224 +
STACK CFI 82b30 .cfa: sp 0 +
STACK CFI 82b34 .cfa: x29 96 +
STACK CFI INIT 82d6c 168 .cfa: sp 0 +
STACK CFI 82d70 .cfa: sp 384 +
STACK CFI 82d84 .cfa: x29 64 + x19: .cfa -8 + ^ x20: .cfa -16 + ^ x21: .cfa -24 + ^ x22: .cfa -32 + ^ x23: .cfa -40 + ^ x28: .cfa -48 + ^ .ra: .cfa -56 + ^ x29: .cfa -64 + ^
STACK CFI 82e7c .cfa: sp 384 +
STACK CFI 82e90 .cfa: sp 0 +
STACK CFI 82e94 .cfa: x29 64 +
STACK CFI INIT 82ed4 128 .cfa: sp 0 +
STACK CFI 82ed8 .cfa: sp 80 +
STACK CFI 82eec .cfa: x29 80 + x19: .cfa -8 + ^ x20: .cfa -16 + ^ x21: .cfa -24 + ^ x22: .cfa -32 + ^ x23: .cfa -40 + ^ x24: .cfa -48 + ^ x25: .cfa -56 + ^ x26: .cfa -64 + ^ .ra: .cfa -72 + ^ x29: .cfa -80 + ^
STACK CFI 82fbc .cfa: sp 80 +
STACK CFI 82fd0 .cfa: sp 0 +
STACK CFI 82fd4 .cfa: x29 80 +
STACK CFI INIT 830a0 198 .cfa: sp 0 +
STACK CFI 830a4 .cfa: sp 112 +
STACK CFI 830bc .cfa: x29 80 + x19: .cfa -8 + ^ x20: .cfa -16 + ^ x21: .cfa -24 + ^ x22: .cfa -32 + ^ x23: .cfa -40 + ^ x24: .cfa -48 + ^ x25: .cfa -56 + ^ x26: .cfa -64 + ^ .ra: .cfa -72 + ^ x29: .cfa -80 + ^
STACK CFI 831ac .cfa: sp 112 +
STACK CFI 831c4 .cfa: sp 0 +
STACK CFI 831c8 .cfa: x29 80 +
STACK CFI INIT 83238 1c4 .cfa: sp 0 +
STACK CFI 8323c .cfa: sp 128 +
STACK CFI 83258 .cfa: x29 96 + x19: .cfa -8 + ^ x20: .cfa -16 + ^ x21: .cfa -24 + ^ x22: .cfa -32 + ^ x23: .cfa -40 + ^ x24: .cfa -48 + ^ x25: .cfa -56 + ^ x26: .cfa -64 + ^ x27: .cfa -80 + ^ .ra: .cfa -88 + ^ x29: .cfa -96 + ^
STACK CFI 833ac .cfa: sp 128 +
STACK CFI 833c8 .cfa: sp 0 +
STACK CFI 833cc .cfa: x29 96 +
STACK CFI INIT 833fc 15c .cfa: sp 0 +
STACK CFI 83400 .cfa: sp 48 +
STACK CFI 8340c .cfa: x29 48 + x19: .cfa -8 + ^ x20: .cfa -16 + ^ x21: .cfa -32 + ^ .ra: .cfa -40 + ^ x29: .cfa -48 + ^
STACK CFI 8352c .cfa: sp 48 +
STACK CFI 83538 .cfa: sp 0 +
STACK CFI 8353c .cfa: x29 48 +
STACK CFI INIT 83728 168 .cfa: sp 0 +
STACK CFI 8372c .cfa: sp 384 +
STACK CFI 83740 .cfa: x29 64 + x19: .cfa -8 + ^ x20: .cfa -16 + ^ x21: .cfa -24 + ^ x22: .cfa -32 + ^ x23: .cfa -40 + ^ x28: .cfa -48 + ^ .ra: .cfa -56 + ^ x29: .cfa -64 + ^
STACK CFI 83838 .cfa: sp 384 +
STACK CFI 8384c .cfa: sp 0 +
STACK CFI 83850 .cfa: x29 64 +
STACK CFI INIT 83890 388 .cfa: sp 0 +
STACK CFI 83894 .cfa: sp 128 +
STACK CFI 838b0 .cfa: x29 96 + x19: .cfa -8 + ^ x20: .cfa -16 + ^ x21: .cfa -24 + ^ x22: .cfa -32 + ^ x23: .cfa -40 + ^ x24: .cfa -48 + ^ x25: .cfa -56 + ^ x26: .cfa -64 + ^ x27: .cfa -72 + ^ x28: .cfa -80 + ^ .ra: .cfa -88 + ^ x29: .cfa -96 + ^
STACK CFI 83b98 .cfa: sp 128 +
STACK CFI 83bb4 .cfa: sp 0 +
STACK CFI 83bb8 .cfa: x29 96 +
STACK CFI INIT 83c18 d0 .cfa: sp 0 +
STACK CFI 83c1c .cfa: sp 64 +
STACK CFI 83c2c .cfa: x29 48 + x19: .cfa -8 + ^ x20: .cfa -16 + ^ x21: .cfa -32 + ^ .ra: .cfa -40 + ^ x29: .cfa -48 + ^
STACK CFI 83ccc .cfa: sp 64 +
STACK CFI 83cdc .cfa: sp 0 +
STACK CFI 83ce0 .cfa: x29 48 +
STACK CFI INIT 83ce8 d8 .cfa: sp 0 +
STACK CFI 83cec .cfa: sp 64 +
STACK CFI 83cfc .cfa: x29 48 + x19: .cfa -8 + ^ x20: .cfa -16 + ^ x21: .cfa -32 + ^ .ra: .cfa -40 + ^ x29: .cfa -48 + ^
STACK CFI 83da4 .cfa: sp 64 +
STACK CFI 83db4 .cfa: sp 0 +
STACK CFI 83db8 .cfa: x29 48 +
STACK CFI INIT 83dc0 404 .cfa: sp 0 +
STACK CFI 83dc4 .cfa: sp 256 +
STACK CFI 83dd8 .cfa: x29 64 + x19: .cfa -8 + ^ x20: .cfa -16 + ^ x21: .cfa -24 + ^ x22: .cfa -32 + ^ x23: .cfa -40 + ^ x24: .cfa -48 + ^ .ra: .cfa -56 + ^ x29: .cfa -64 + ^
STACK CFI 84098 .cfa: sp 256 +
STACK CFI 840ac .cfa: sp 0 +
STACK CFI 840b0 .cfa: x29 64 +
STACK CFI INIT 84214 74 .cfa: sp 0 +
STACK CFI 84218 .cfa: sp 48 +
STACK CFI 84224 .cfa: x29 32 + x19: .cfa -8 + ^ x20: .cfa -16 + ^ .ra: .cfa -24 + ^ x29: .cfa -32 + ^
STACK CFI 84270 .cfa: sp 48 +
STACK CFI 8427c .cfa: sp 0 +
STACK CFI 84280 .cfa: x29 32 +
STACK CFI INIT 8428c 154 .cfa: sp 0 +
STACK CFI 84290 .cfa: sp 384 +
STACK CFI 842a4 .cfa: x29 64 + x19: .cfa -8 + ^ x20: .cfa -16 + ^ x21: .cfa -24 + ^ x22: .cfa -32 + ^ x23: .cfa -40 + ^ x28: .cfa -48 + ^ .ra: .cfa -56 + ^ x29: .cfa -64 + ^
STACK CFI 84388 .cfa: sp 384 +
STACK CFI 8439c .cfa: sp 0 +
STACK CFI 843a0 .cfa: x29 64 +
STACK CFI INIT 84a10 b4 .cfa: sp 0 +
STACK CFI 84a14 .cfa: sp 32 +
STACK CFI 84a1c .cfa: x29 32 + x19: .cfa -16 + ^ .ra: .cfa -24 + ^ x29: .cfa -32 + ^
STACK CFI 84a50 .cfa: sp 32 +
STACK CFI 84a58 .cfa: sp 0 +
STACK CFI 84a5c .cfa: x29 32 +
STACK CFI 84a60 .cfa: sp 32 +
STACK CFI 84a68 .cfa: sp 0 +
STACK CFI 84a6c .cfa: x29 32 +
STACK CFI INIT 84c7c 380 .cfa: sp 0 +
STACK CFI 84c80 .cfa: sp 240 +
STACK CFI 84c94 .cfa: x29 64 + x19: .cfa -8 + ^ x20: .cfa -16 + ^ x21: .cfa -24 + ^ x22: .cfa -32 + ^ x23: .cfa -48 + ^ .ra: .cfa -56 + ^ x29: .cfa -64 + ^
STACK CFI 84ee8 .cfa: sp 240 +
STACK CFI 84efc .cfa: sp 0 +
STACK CFI 84f00 .cfa: x29 64 +
STACK CFI INIT 8509c 174 .cfa: sp 0 +
STACK CFI 850a0 .cfa: sp 112 +
STACK CFI 850b0 .cfa: x29 48 + x19: .cfa -8 + ^ x20: .cfa -16 + ^ x21: .cfa -32 + ^ .ra: .cfa -40 + ^ x29: .cfa -48 + ^
STACK CFI 851ac .cfa: sp 112 +
STACK CFI 851bc .cfa: sp 0 +
STACK CFI 851c0 .cfa: x29 48 +
STACK CFI INIT 82c1c 118 .cfa: sp 0 +
STACK CFI 82c20 .cfa: sp 80 +
STACK CFI 82c30 .cfa: x29 48 + x19: .cfa -8 + ^ x20: .cfa -16 + ^ x21: .cfa -32 + ^ .ra: .cfa -40 + ^ x29: .cfa -48 + ^
STACK CFI 82cb4 .cfa: sp 80 +
STACK CFI 82cc4 .cfa: sp 0 +
STACK CFI 82cc8 .cfa: x29 48 +
STACK CFI INIT 85628 28c .cfa: sp 0 +
STACK CFI 8562c .cfa: sp 128 +
STACK CFI 85644 .cfa: x29 64 + x19: .cfa -8 + ^ x20: .cfa -16 + ^ x21: .cfa -24 + ^ x22: .cfa -32 + ^ x23: .cfa -40 + ^ x24: .cfa -48 + ^ .ra: .cfa -56 + ^ x29: .cfa -64 + ^ v8: .cfa -80 + ^
STACK CFI 85868 .cfa: sp 128 +
STACK CFI 85880 .cfa: sp 0 +
STACK CFI 85884 .cfa: x29 64 +
STACK CFI INIT 858b4 240 .cfa: sp 0 +
STACK CFI 858b8 .cfa: sp 128 +
STACK CFI 858d0 .cfa: x29 80 + x19: .cfa -8 + ^ x20: .cfa -16 + ^ x21: .cfa -24 + ^ x22: .cfa -32 + ^ x23: .cfa -40 + ^ x24: .cfa -48 + ^ x25: .cfa -64 + ^ .ra: .cfa -72 + ^ x29: .cfa -80 + ^
STACK CFI 85aa8 .cfa: sp 128 +
STACK CFI 85ac0 .cfa: sp 0 +
STACK CFI 85ac4 .cfa: x29 80 +
STACK CFI INIT 85af4 580 .cfa: sp 0 +
STACK CFI 85af8 .cfa: sp 176 +
STACK CFI 85b18 .cfa: x29 80 + x19: .cfa -8 + ^ x20: .cfa -16 + ^ x21: .cfa -24 + ^ x22: .cfa -32 + ^ x23: .cfa -40 + ^ x24: .cfa -48 + ^ x25: .cfa -56 + ^ x26: .cfa -64 + ^ .ra: .cfa -72 + ^ x29: .cfa -80 + ^ v8: .cfa -88 + ^ v9: .cfa -96 + ^ v10: .cfa -104 + ^ v11: .cfa -112 + ^
STACK CFI 86020 .cfa: sp 176 +
STACK CFI 86040 .cfa: sp 0 +
STACK CFI 86044 .cfa: x29 80 +
STACK CFI INIT 86074 d8 .cfa: sp 0 +
STACK CFI 86078 .cfa: sp 96 +
STACK CFI 86084 .cfa: x29 32 + x19: .cfa -8 + ^ x20: .cfa -16 + ^ .ra: .cfa -24 + ^ x29: .cfa -32 + ^
STACK CFI 86110 .cfa: sp 96 +
STACK CFI 8611c .cfa: sp 0 +
STACK CFI 86120 .cfa: x29 32 +
STACK CFI INIT 8614c 238 .cfa: sp 0 +
STACK CFI 86150 .cfa: sp 160 +
STACK CFI 86168 .cfa: x29 64 + x19: .cfa -8 + ^ x20: .cfa -16 + ^ x21: .cfa -24 + ^ x22: .cfa -32 + ^ x23: .cfa -40 + ^ x24: .cfa -48 + ^ .ra: .cfa -56 + ^ x29: .cfa -64 + ^ v8: .cfa -72 + ^ v9: .cfa -80 + ^
STACK CFI 86324 .cfa: sp 160 +
STACK CFI 8633c .cfa: sp 0 +
STACK CFI 86340 .cfa: x29 64 +
STACK CFI INIT 86384 560 .cfa: sp 0 +
STACK CFI 86388 .cfa: sp 192 +
STACK CFI 863a8 .cfa: x29 80 + x19: .cfa -8 + ^ x20: .cfa -16 + ^ x21: .cfa -24 + ^ x22: .cfa -32 + ^ x23: .cfa -40 + ^ x24: .cfa -48 + ^ x25: .cfa -56 + ^ x26: .cfa -64 + ^ .ra: .cfa -72 + ^ x29: .cfa -80 + ^ v8: .cfa -88 + ^ v9: .cfa -96 + ^ v10: .cfa -112 + ^
STACK CFI 86874 .cfa: sp 192 +
STACK CFI 86894 .cfa: sp 0 +
STACK CFI 86898 .cfa: x29 80 +
STACK CFI INIT 868e4 2e0 .cfa: sp 0 +
STACK CFI 868e8 .cfa: sp 160 +
STACK CFI 868fc .cfa: x29 64 + x19: .cfa -8 + ^ x20: .cfa -16 + ^ x21: .cfa -24 + ^ x22: .cfa -32 + ^ x23: .cfa -48 + ^ .ra: .cfa -56 + ^ x29: .cfa -64 + ^
STACK CFI 86b54 .cfa: sp 160 +
STACK CFI 86b68 .cfa: sp 0 +
STACK CFI 86b6c .cfa: x29 64 +
STACK CFI INIT 86c04 208 .cfa: sp 0 +
STACK CFI 86c08 .cfa: sp 80 +
STACK CFI 86c1c .cfa: x29 64 + x19: .cfa -8 + ^ x20: .cfa -16 + ^ x21: .cfa -24 + ^ x22: .cfa -32 + ^ x23: .cfa -40 + ^ x24: .cfa -48 + ^ .ra: .cfa -56 + ^ x29: .cfa -64 + ^
STACK CFI 86dcc .cfa: sp 80 +
STACK CFI 86de0 .cfa: sp 0 +
STACK CFI 86de4 .cfa: x29 64 +
STACK CFI INIT 86e0c 84c .cfa: sp 0 +
STACK CFI 86e10 .cfa: sp 272 +
STACK CFI 86e30 .cfa: x29 96 + x19: .cfa -8 + ^ x20: .cfa -16 + ^ x21: .cfa -24 + ^ x22: .cfa -32 + ^ x23: .cfa -40 + ^ x24: .cfa -48 + ^ x25: .cfa -56 + ^ x26: .cfa -64 + ^ x27: .cfa -72 + ^ x28: .cfa -80 + ^ .ra: .cfa -88 + ^ x29: .cfa -96 + ^ v8: .cfa -112 + ^
STACK CFI 8757c .cfa: sp 272 +
STACK CFI 8759c .cfa: sp 0 +
STACK CFI 875a0 .cfa: x29 96 +
STACK CFI INIT 87658 d0 .cfa: sp 0 +
STACK CFI 8765c .cfa: sp 96 +
STACK CFI 87668 .cfa: x29 32 + x19: .cfa -8 + ^ x20: .cfa -16 + ^ .ra: .cfa -24 + ^ x29: .cfa -32 + ^
STACK CFI 876ec .cfa: sp 96 +
STACK CFI 876f8 .cfa: sp 0 +
STACK CFI 876fc .cfa: x29 32 +
STACK CFI INIT 87860 37c .cfa: sp 0 +
STACK CFI 87864 .cfa: sp 144 +
STACK CFI 8787c .cfa: x29 56 + x19: .cfa -8 + ^ x20: .cfa -16 + ^ x21: .cfa -24 + ^ x22: .cfa -32 + ^ x23: .cfa -40 + ^ .ra: .cfa -48 + ^ x29: .cfa -56 + ^ v8: .cfa -64 + ^
STACK CFI 87b60 .cfa: sp 144 +
STACK CFI 87b78 .cfa: sp 0 +
STACK CFI 87b7c .cfa: x29 56 +
STACK CFI INIT 87bdc c4 .cfa: sp 0 +
STACK CFI 87be0 .cfa: sp 96 +
STACK CFI 87bec .cfa: x29 32 + x19: .cfa -8 + ^ x20: .cfa -16 + ^ .ra: .cfa -24 + ^ x29: .cfa -32 + ^
STACK CFI 87c64 .cfa: sp 96 +
STACK CFI 87c70 .cfa: sp 0 +
STACK CFI 87c74 .cfa: x29 32 +
STACK CFI INIT 87ca0 5e8 .cfa: sp 0 +
STACK CFI 87ca4 .cfa: sp 384 +
STACK CFI 87cc4 .cfa: x29 96 + x19: .cfa -8 + ^ x20: .cfa -16 + ^ x21: .cfa -24 + ^ x22: .cfa -32 + ^ x23: .cfa -40 + ^ x24: .cfa -48 + ^ x25: .cfa -56 + ^ x26: .cfa -64 + ^ x27: .cfa -72 + ^ x28: .cfa -80 + ^ .ra: .cfa -88 + ^ x29: .cfa -96 + ^ v8: .cfa -112 + ^
STACK CFI 88164 .cfa: sp 384 +
STACK CFI 88184 .cfa: sp 0 +
STACK CFI 88188 .cfa: x29 96 +
STACK CFI INIT 88304 630 .cfa: sp 0 +
STACK CFI 88308 .cfa: sp 240 +
STACK CFI 88330 .cfa: x29 96 + x19: .cfa -8 + ^ x20: .cfa -16 + ^ x21: .cfa -24 + ^ x22: .cfa -32 + ^ x23: .cfa -40 + ^ x24: .cfa -48 + ^ x25: .cfa -56 + ^ x26: .cfa -64 + ^ x27: .cfa -72 + ^ x28: .cfa -80 + ^ .ra: .cfa -88 + ^ x29: .cfa -96 + ^ v8: .cfa -104 + ^ v9: .cfa -112 + ^ v10: .cfa -120 + ^ v11: .cfa -128 + ^ v12: .cfa -144 + ^
STACK CFI 888d8 .cfa: sp 240 +
STACK CFI 88900 .cfa: sp 0 +
STACK CFI 88904 .cfa: x29 96 +
STACK CFI INIT 88adc 5b0 .cfa: sp 0 +
STACK CFI 88ae0 .cfa: sp 208 +
STACK CFI 88afc .cfa: x29 96 + x19: .cfa -8 + ^ x20: .cfa -16 + ^ x21: .cfa -24 + ^ x22: .cfa -32 + ^ x23: .cfa -40 + ^ x24: .cfa -48 + ^ x25: .cfa -56 + ^ x26: .cfa -64 + ^ x27: .cfa -72 + ^ x28: .cfa -80 + ^ .ra: .cfa -88 + ^ x29: .cfa -96 + ^
STACK CFI 88fe0 .cfa: sp 208 +
STACK CFI 88ffc .cfa: sp 0 +
STACK CFI 89000 .cfa: x29 96 +
STACK CFI INIT 8908c 1a4 .cfa: sp 0 +
STACK CFI 89090 .cfa: sp 128 +
STACK CFI 890a0 .cfa: x29 48 + x19: .cfa -8 + ^ x20: .cfa -16 + ^ x21: .cfa -32 + ^ .ra: .cfa -40 + ^ x29: .cfa -48 + ^
STACK CFI 891b0 .cfa: sp 128 +
STACK CFI 891c0 .cfa: sp 0 +
STACK CFI 891c4 .cfa: x29 48 +
STACK CFI INIT 89230 1fc .cfa: sp 0 +
STACK CFI 89234 .cfa: sp 160 +
STACK CFI 89244 .cfa: x29 48 + x19: .cfa -8 + ^ x20: .cfa -16 + ^ x21: .cfa -32 + ^ .ra: .cfa -40 + ^ x29: .cfa -48 + ^
STACK CFI 89394 .cfa: sp 160 +
STACK CFI 893a4 .cfa: sp 0 +
STACK CFI 893a8 .cfa: x29 48 +
STACK CFI INIT 89474 25c .cfa: sp 0 +
STACK CFI 89478 .cfa: sp 160 +
STACK CFI 89488 .cfa: x29 48 + x19: .cfa -8 + ^ x20: .cfa -16 + ^ x21: .cfa -32 + ^ .ra: .cfa -40 + ^ x29: .cfa -48 + ^
STACK CFI 89614 .cfa: sp 160 +
STACK CFI 89624 .cfa: sp 0 +
STACK CFI 89628 .cfa: x29 48 +
STACK CFI INIT 896d8 13c .cfa: sp 0 +
STACK CFI 896dc .cfa: sp 112 +
STACK CFI 896ec .cfa: x29 48 + x19: .cfa -8 + ^ x20: .cfa -16 + ^ x21: .cfa -32 + ^ .ra: .cfa -40 + ^ x29: .cfa -48 + ^
STACK CFI 897d8 .cfa: sp 112 +
STACK CFI 897e8 .cfa: sp 0 +
STACK CFI 897ec .cfa: x29 48 +
STACK CFI INIT 8981c 2e0 .cfa: sp 0 +
STACK CFI 89820 .cfa: sp 176 +
STACK CFI 89838 .cfa: x29 64 + x19: .cfa -8 + ^ x20: .cfa -16 + ^ x21: .cfa -24 + ^ x22: .cfa -32 + ^ x23: .cfa -40 + ^ x24: .cfa -48 + ^ .ra: .cfa -56 + ^ x29: .cfa -64 + ^ v8: .cfa -72 + ^ v9: .cfa -80 + ^
STACK CFI 89a78 .cfa: sp 176 +
STACK CFI 89a90 .cfa: sp 0 +
STACK CFI 89a94 .cfa: x29 64 +
STACK CFI INIT 8a010 3fc .cfa: sp 0 +
STACK CFI 8a014 .cfa: sp 176 +
STACK CFI 8a028 .cfa: x29 64 + x19: .cfa -8 + ^ x20: .cfa -16 + ^ x21: .cfa -24 + ^ x22: .cfa -32 + ^ x23: .cfa -40 + ^ x24: .cfa -48 + ^ .ra: .cfa -56 + ^ x29: .cfa -64 + ^
STACK CFI 8a384 .cfa: sp 176 +
STACK CFI 8a398 .cfa: sp 0 +
STACK CFI 8a39c .cfa: x29 64 +
STACK CFI INIT 8a40c 1d0 .cfa: sp 0 +
STACK CFI 8a410 .cfa: sp 144 +
STACK CFI 8a420 .cfa: x29 48 + x19: .cfa -8 + ^ x20: .cfa -16 + ^ x21: .cfa -32 + ^ .ra: .cfa -40 + ^ x29: .cfa -48 + ^
STACK CFI 8a560 .cfa: sp 144 +
STACK CFI 8a570 .cfa: sp 0 +
STACK CFI 8a574 .cfa: x29 48 +
STACK CFI INIT 8ab40 7c .cfa: sp 0 +
STACK CFI 8ab44 .cfa: sp 32 +
STACK CFI 8ab4c .cfa: x29 32 + x19: .cfa -16 + ^ .ra: .cfa -24 + ^ x29: .cfa -32 + ^
STACK CFI 8abac .cfa: sp 32 +
STACK CFI 8abb4 .cfa: sp 0 +
STACK CFI 8abb8 .cfa: x29 32 +
STACK CFI INIT 8abbc 84 .cfa: sp 0 +
STACK CFI 8abc0 .cfa: sp 32 +
STACK CFI 8abc8 .cfa: x29 32 + x19: .cfa -16 + ^ .ra: .cfa -24 + ^ x29: .cfa -32 + ^
STACK CFI 8ac30 .cfa: sp 32 +
STACK CFI 8ac38 .cfa: sp 0 +
STACK CFI 8ac3c .cfa: x29 32 +
STACK CFI INIT 8ac40 80 .cfa: sp 0 +
STACK CFI 8ac44 .cfa: sp 32 +
STACK CFI 8ac4c .cfa: x29 32 + x19: .cfa -8 + ^ x20: .cfa -16 + ^ .ra: .cfa -24 + ^ x29: .cfa -32 + ^
STACK CFI 8acb0 .cfa: sp 32 +
STACK CFI 8acb8 .cfa: sp 0 +
STACK CFI 8acbc .cfa: x29 32 +
STACK CFI INIT 8acc0 88 .cfa: sp 0 +
STACK CFI 8acc4 .cfa: sp 32 +
STACK CFI 8accc .cfa: x29 32 + x19: .cfa -8 + ^ x20: .cfa -16 + ^ .ra: .cfa -24 + ^ x29: .cfa -32 + ^
STACK CFI 8ad38 .cfa: sp 32 +
STACK CFI 8ad40 .cfa: sp 0 +
STACK CFI 8ad44 .cfa: x29 32 +
STACK CFI INIT 8b16c 50 .cfa: sp 0 +
STACK CFI 8b170 .cfa: sp 32 +
STACK CFI 8b178 .cfa: x29 32 + x19: .cfa -8 + ^ x20: .cfa -16 + ^ .ra: .cfa -24 + ^ x29: .cfa -32 + ^
STACK CFI INIT 8b394 fc .cfa: sp 0 +
STACK CFI 8b398 .cfa: sp 80 +
STACK CFI 8b3a4 .cfa: x29 32 + x19: .cfa -8 + ^ x20: .cfa -16 + ^ .ra: .cfa -24 + ^ x29: .cfa -32 + ^
STACK CFI 8b440 .cfa: sp 80 +
STACK CFI 8b44c .cfa: sp 0 +
STACK CFI 8b450 .cfa: x29 32 +
STACK CFI INIT 8b490 134 .cfa: sp 0 +
STACK CFI 8b494 .cfa: sp 80 +
STACK CFI 8b4a0 .cfa: x29 32 + x19: .cfa -8 + ^ x20: .cfa -16 + ^ .ra: .cfa -24 + ^ x29: .cfa -32 + ^
STACK CFI 8b574 .cfa: sp 80 +
STACK CFI 8b580 .cfa: sp 0 +
STACK CFI 8b584 .cfa: x29 32 +
STACK CFI INIT 8b5c4 d4 .cfa: sp 0 +
STACK CFI 8b5c8 .cfa: sp 96 +
STACK CFI 8b5d4 .cfa: x29 32 + x19: .cfa -8 + ^ x20: .cfa -16 + ^ .ra: .cfa -24 + ^ x29: .cfa -32 + ^
STACK CFI 8b65c .cfa: sp 96 +
STACK CFI 8b668 .cfa: sp 0 +
STACK CFI 8b66c .cfa: x29 32 +
STACK CFI INIT 8b698 12c .cfa: sp 0 +
STACK CFI 8b69c .cfa: sp 112 +
STACK CFI 8b6ac .cfa: x29 48 + x19: .cfa -8 + ^ x20: .cfa -16 + ^ x21: .cfa -32 + ^ .ra: .cfa -40 + ^ x29: .cfa -48 + ^
STACK CFI 8b774 .cfa: sp 112 +
STACK CFI 8b784 .cfa: sp 0 +
STACK CFI 8b788 .cfa: x29 48 +
STACK CFI INIT 8b7c4 24c .cfa: sp 0 +
STACK CFI 8b7c8 .cfa: sp 160 +
STACK CFI 8b7dc .cfa: x29 40 + x19: .cfa -8 + ^ x20: .cfa -16 + ^ x21: .cfa -24 + ^ .ra: .cfa -32 + ^ x29: .cfa -40 + ^ v8: .cfa -48 + ^
STACK CFI 8b964 .cfa: sp 160 +
STACK CFI 8b978 .cfa: sp 0 +
STACK CFI 8b97c .cfa: x29 40 +
STACK CFI INIT 8bbd0 d4 .cfa: sp 0 +
STACK CFI 8bbd4 .cfa: sp 96 +
STACK CFI 8bbe0 .cfa: x29 32 + x19: .cfa -8 + ^ x20: .cfa -16 + ^ .ra: .cfa -24 + ^ x29: .cfa -32 + ^
STACK CFI 8bc68 .cfa: sp 96 +
STACK CFI 8bc74 .cfa: sp 0 +
STACK CFI 8bc78 .cfa: x29 32 +
STACK CFI INIT 8c254 12c .cfa: sp 0 +
STACK CFI 8c258 .cfa: sp 112 +
STACK CFI 8c26c .cfa: x29 64 + x19: .cfa -8 + ^ x20: .cfa -16 + ^ x21: .cfa -24 + ^ x22: .cfa -32 + ^ x23: .cfa -40 + ^ x24: .cfa -48 + ^ .ra: .cfa -56 + ^ x29: .cfa -64 + ^
STACK CFI 8c340 .cfa: sp 112 +
STACK CFI 8c354 .cfa: sp 0 +
STACK CFI 8c358 .cfa: x29 64 +
STACK CFI INIT 8c380 390 .cfa: sp 0 +
STACK CFI 8c384 .cfa: sp 112 +
STACK CFI 8c3a0 .cfa: x29 96 + x19: .cfa -8 + ^ x20: .cfa -16 + ^ x21: .cfa -24 + ^ x22: .cfa -32 + ^ x23: .cfa -40 + ^ x24: .cfa -48 + ^ x25: .cfa -56 + ^ x26: .cfa -64 + ^ x27: .cfa -80 + ^ .ra: .cfa -88 + ^ x29: .cfa -96 + ^
STACK CFI 8c6b4 .cfa: sp 112 +
STACK CFI 8c6d0 .cfa: sp 0 +
STACK CFI 8c6d4 .cfa: x29 96 +
STACK CFI INIT 8c710 59c .cfa: sp 0 +
STACK CFI 8c714 .cfa: sp 256 +
STACK CFI 8c730 .cfa: x29 96 + x19: .cfa -8 + ^ x20: .cfa -16 + ^ x21: .cfa -24 + ^ x22: .cfa -32 + ^ x23: .cfa -40 + ^ x24: .cfa -48 + ^ x25: .cfa -56 + ^ x26: .cfa -64 + ^ x27: .cfa -72 + ^ x28: .cfa -80 + ^ .ra: .cfa -88 + ^ x29: .cfa -96 + ^
STACK CFI 8cbe0 .cfa: sp 256 +
STACK CFI 8cbfc .cfa: sp 0 +
STACK CFI 8cc00 .cfa: x29 96 +
STACK CFI INIT 8cd34 20 .cfa: sp 0 +
STACK CFI 8cd38 .cfa: sp 16 +
STACK CFI 8cd3c .cfa: x29 16 + .ra: .cfa -8 + ^ x29: .cfa -16 + ^
STACK CFI 8cd48 .cfa: sp 16 +
STACK CFI 8cd4c .cfa: sp 0 +
STACK CFI 8cd50 .cfa: x29 16 +
STACK CFI INIT 8cea8 178 .cfa: sp 0 +
STACK CFI 8ceac .cfa: sp 160 +
STACK CFI 8cebc .cfa: x29 48 + x19: .cfa -8 + ^ x20: .cfa -16 + ^ x21: .cfa -32 + ^ .ra: .cfa -40 + ^ x29: .cfa -48 + ^
STACK CFI 8cfc4 .cfa: sp 160 +
STACK CFI 8cfd4 .cfa: sp 0 +
STACK CFI 8cfd8 .cfa: x29 48 +
STACK CFI INIT 8d020 1dc .cfa: sp 0 +
STACK CFI 8d024 .cfa: sp 160 +
STACK CFI 8d034 .cfa: x29 48 + x19: .cfa -8 + ^ x20: .cfa -16 + ^ x21: .cfa -24 + ^ x22: .cfa -32 + ^ .ra: .cfa -40 + ^ x29: .cfa -48 + ^
STACK CFI 8d18c .cfa: sp 160 +
STACK CFI 8d19c .cfa: sp 0 +
STACK CFI 8d1a0 .cfa: x29 48 +
STACK CFI INIT 8d248 138 .cfa: sp 0 +
STACK CFI 8d24c .cfa: sp 80 +
STACK CFI 8d260 .cfa: x29 64 + x19: .cfa -8 + ^ x20: .cfa -16 + ^ x21: .cfa -24 + ^ x22: .cfa -32 + ^ x23: .cfa -48 + ^ .ra: .cfa -56 + ^ x29: .cfa -64 + ^
STACK CFI 8d340 .cfa: sp 80 +
STACK CFI 8d354 .cfa: sp 0 +
STACK CFI 8d358 .cfa: x29 64 +
STACK CFI INIT 8d380 830 .cfa: sp 0 +
STACK CFI 8d384 .cfa: sp 176 +
STACK CFI 8d3a4 .cfa: x29 96 + x19: .cfa -8 + ^ x20: .cfa -16 + ^ x21: .cfa -24 + ^ x22: .cfa -32 + ^ x23: .cfa -40 + ^ x24: .cfa -48 + ^ x25: .cfa -56 + ^ x26: .cfa -64 + ^ x27: .cfa -72 + ^ x28: .cfa -80 + ^ .ra: .cfa -88 + ^ x29: .cfa -96 + ^ v8: .cfa -112 + ^
STACK CFI 8db58 .cfa: sp 176 +
STACK CFI 8db78 .cfa: sp 0 +
STACK CFI 8db7c .cfa: x29 96 +
STACK CFI INIT 8dbb0 244 .cfa: sp 0 +
STACK CFI 8dbb4 .cfa: sp 128 +
STACK CFI 8dbc8 .cfa: x29 64 + x19: .cfa -8 + ^ x20: .cfa -16 + ^ x21: .cfa -24 + ^ x22: .cfa -32 + ^ x23: .cfa -48 + ^ .ra: .cfa -56 + ^ x29: .cfa -64 + ^
STACK CFI 8dd88 .cfa: sp 128 +
STACK CFI 8dd9c .cfa: sp 0 +
STACK CFI 8dda0 .cfa: x29 64 +
STACK CFI INIT 8ddf4 50c .cfa: sp 0 +
STACK CFI 8ddf8 .cfa: sp 112 +
STACK CFI 8de0c .cfa: x29 64 + x19: .cfa -8 + ^ x20: .cfa -16 + ^ x21: .cfa -24 + ^ x22: .cfa -32 + ^ x23: .cfa -40 + ^ x24: .cfa -48 + ^ .ra: .cfa -56 + ^ x29: .cfa -64 + ^
STACK CFI 8e2ac .cfa: sp 112 +
STACK CFI 8e2c0 .cfa: sp 0 +
STACK CFI 8e2c4 .cfa: x29 64 +
STACK CFI INIT 8e300 730 .cfa: sp 0 +
STACK CFI 8e304 .cfa: sp 240 +
STACK CFI 8e32c .cfa: x29 80 + x19: .cfa -8 + ^ x20: .cfa -16 + ^ x21: .cfa -24 + ^ x22: .cfa -32 + ^ x23: .cfa -40 + ^ x24: .cfa -48 + ^ x25: .cfa -64 + ^ .ra: .cfa -72 + ^ x29: .cfa -80 + ^ v8: .cfa -88 + ^ v9: .cfa -96 + ^ v10: .cfa -104 + ^ v11: .cfa -112 + ^ v12: .cfa -120 + ^ v13: .cfa -128 + ^ v14: .cfa -136 + ^ v15: .cfa -144 + ^
STACK CFI 8e980 .cfa: sp 240 +
STACK CFI 8e9a8 .cfa: sp 0 +
STACK CFI 8e9ac .cfa: x29 80 +
STACK CFI INIT 8ebc0 3cc .cfa: sp 0 +
STACK CFI 8ebc4 .cfa: sp 416 +
STACK CFI 8ebe4 .cfa: x29 96 + x19: .cfa -8 + ^ x20: .cfa -16 + ^ x21: .cfa -24 + ^ x22: .cfa -32 + ^ x23: .cfa -40 + ^ x24: .cfa -48 + ^ x25: .cfa -56 + ^ x26: .cfa -64 + ^ x27: .cfa -72 + ^ x28: .cfa -80 + ^ .ra: .cfa -88 + ^ x29: .cfa -96 + ^ v8: .cfa -112 + ^
STACK CFI 8ecb4 .cfa: sp 416 +
STACK CFI 8ecd4 .cfa: sp 0 +
STACK CFI 8ecd8 .cfa: x29 96 +
STACK CFI INIT 8f374 318 .cfa: sp 0 +
STACK CFI 8f378 .cfa: sp 224 +
STACK CFI 8f388 .cfa: x29 48 + x19: .cfa -8 + ^ x20: .cfa -16 + ^ x21: .cfa -24 + ^ x22: .cfa -32 + ^ .ra: .cfa -40 + ^ x29: .cfa -48 + ^
STACK CFI 8f5cc .cfa: sp 224 +
STACK CFI 8f5dc .cfa: sp 0 +
STACK CFI 8f5e0 .cfa: x29 48 +
STACK CFI INIT 8f76c b40 .cfa: sp 0 +
STACK CFI 8f770 .cfa: sp 416 +
STACK CFI 8f790 .cfa: x29 96 + x19: .cfa -8 + ^ x20: .cfa -16 + ^ x21: .cfa -24 + ^ x22: .cfa -32 + ^ x23: .cfa -40 + ^ x24: .cfa -48 + ^ x25: .cfa -56 + ^ x26: .cfa -64 + ^ x27: .cfa -72 + ^ x28: .cfa -80 + ^ .ra: .cfa -88 + ^ x29: .cfa -96 + ^ v8: .cfa -104 + ^ v9: .cfa -112 + ^
STACK CFI 8feec .cfa: sp 416 +
STACK CFI 8ff0c .cfa: sp 0 +
STACK CFI 8ff10 .cfa: x29 96 +
STACK CFI INIT 902ac 134 .cfa: sp 0 +
STACK CFI 902b0 .cfa: sp 96 +
STACK CFI 902bc .cfa: x29 32 + x19: .cfa -8 + ^ x20: .cfa -16 + ^ .ra: .cfa -24 + ^ x29: .cfa -32 + ^
STACK CFI 90398 .cfa: sp 96 +
STACK CFI 903a4 .cfa: sp 0 +
STACK CFI 903a8 .cfa: x29 32 +
STACK CFI INIT 903e0 d8 .cfa: sp 0 +
STACK CFI 903e4 .cfa: sp 96 +
STACK CFI 903f0 .cfa: x29 32 + x19: .cfa -8 + ^ x20: .cfa -16 + ^ .ra: .cfa -24 + ^ x29: .cfa -32 + ^
STACK CFI 9047c .cfa: sp 96 +
STACK CFI 90488 .cfa: sp 0 +
STACK CFI 9048c .cfa: x29 32 +
STACK CFI INIT 90568 928 .cfa: sp 0 +
STACK CFI 9056c .cfa: sp 240 +
STACK CFI 90598 .cfa: x29 96 + x19: .cfa -8 + ^ x20: .cfa -16 + ^ x21: .cfa -24 + ^ x22: .cfa -32 + ^ x23: .cfa -40 + ^ x24: .cfa -48 + ^ x25: .cfa -56 + ^ x26: .cfa -64 + ^ x27: .cfa -72 + ^ x28: .cfa -80 + ^ .ra: .cfa -88 + ^ x29: .cfa -96 + ^ v8: .cfa -104 + ^ v9: .cfa -112 + ^ v10: .cfa -120 + ^ v11: .cfa -128 + ^ v12: .cfa -136 + ^ v13: .cfa -144 + ^ v14: .cfa -152 + ^ v15: .cfa -160 + ^
STACK CFI 90df8 .cfa: sp 240 +
STACK CFI 90e24 .cfa: sp 0 +
STACK CFI 90e28 .cfa: x29 96 +
STACK CFI INIT 91784 518 .cfa: sp 0 +
STACK CFI 91788 .cfa: sp 144 +
STACK CFI 917a4 .cfa: x29 96 + x19: .cfa -8 + ^ x20: .cfa -16 + ^ x21: .cfa -24 + ^ x22: .cfa -32 + ^ x23: .cfa -40 + ^ x24: .cfa -48 + ^ x25: .cfa -56 + ^ x26: .cfa -64 + ^ x27: .cfa -72 + ^ x28: .cfa -80 + ^ .ra: .cfa -88 + ^ x29: .cfa -96 + ^
STACK CFI 91c00 .cfa: sp 144 +
STACK CFI 91c1c .cfa: sp 0 +
STACK CFI 91c20 .cfa: x29 96 +
STACK CFI INIT 91eec 104 .cfa: sp 0 +
STACK CFI 91ef0 .cfa: sp 112 +
STACK CFI 91efc .cfa: x29 32 + x19: .cfa -8 + ^ x20: .cfa -16 + ^ .ra: .cfa -24 + ^ x29: .cfa -32 + ^
STACK CFI 91fc0 .cfa: sp 112 +
STACK CFI 91fcc .cfa: sp 0 +
STACK CFI 91fd0 .cfa: x29 32 +
STACK CFI INIT 91ff0 168 .cfa: sp 0 +
STACK CFI 91ff4 .cfa: sp 96 +
STACK CFI 92004 .cfa: x29 48 + x19: .cfa -8 + ^ x20: .cfa -16 + ^ x21: .cfa -32 + ^ .ra: .cfa -40 + ^ x29: .cfa -48 + ^
STACK CFI 9213c .cfa: sp 96 +
STACK CFI 9214c .cfa: sp 0 +
STACK CFI 92150 .cfa: x29 48 +
STACK CFI INIT 9247c 1e8 .cfa: sp 0 +
STACK CFI 92480 .cfa: sp 96 +
STACK CFI 92498 .cfa: x29 64 + x19: .cfa -8 + ^ x20: .cfa -16 + ^ x21: .cfa -24 + ^ x22: .cfa -32 + ^ x23: .cfa -40 + ^ x24: .cfa -48 + ^ .ra: .cfa -56 + ^ x29: .cfa -64 + ^ v8: .cfa -72 + ^ v9: .cfa -80 + ^
STACK CFI 92620 .cfa: sp 96 +
STACK CFI 92638 .cfa: sp 0 +
STACK CFI 9263c .cfa: x29 64 +
STACK CFI INIT 92664 1e8 .cfa: sp 0 +
STACK CFI 92668 .cfa: sp 96 +
STACK CFI 92680 .cfa: x29 64 + x19: .cfa -8 + ^ x20: .cfa -16 + ^ x21: .cfa -24 + ^ x22: .cfa -32 + ^ x23: .cfa -40 + ^ x24: .cfa -48 + ^ .ra: .cfa -56 + ^ x29: .cfa -64 + ^ v8: .cfa -72 + ^ v9: .cfa -80 + ^
STACK CFI 92808 .cfa: sp 96 +
STACK CFI 92820 .cfa: sp 0 +
STACK CFI 92824 .cfa: x29 64 +
STACK CFI INIT 9284c 610 .cfa: sp 0 +
STACK CFI 92850 .cfa: sp 96 +
STACK CFI 92868 .cfa: x29 96 + x19: .cfa -8 + ^ x20: .cfa -16 + ^ x21: .cfa -24 + ^ x22: .cfa -32 + ^ x23: .cfa -40 + ^ x24: .cfa -48 + ^ x25: .cfa -56 + ^ x26: .cfa -64 + ^ x27: .cfa -72 + ^ x28: .cfa -80 + ^ .ra: .cfa -88 + ^ x29: .cfa -96 + ^
STACK CFI 928e8 .cfa: sp 96 +
STACK CFI 92900 .cfa: sp 0 +
STACK CFI 92904 .cfa: x29 96 +
STACK CFI INIT 92e5c 11c .cfa: sp 0 +
STACK CFI 92e60 .cfa: sp 96 +
STACK CFI 92e74 .cfa: x29 64 + x19: .cfa -8 + ^ x20: .cfa -16 + ^ x21: .cfa -24 + ^ x22: .cfa -32 + ^ x23: .cfa -40 + ^ x24: .cfa -48 + ^ .ra: .cfa -56 + ^ x29: .cfa -64 + ^
STACK CFI 92f34 .cfa: sp 96 +
STACK CFI 92f48 .cfa: sp 0 +
STACK CFI 92f4c .cfa: x29 64 +
STACK CFI INIT 92f78 198 .cfa: sp 0 +
STACK CFI 92f7c .cfa: sp 144 +
STACK CFI 92f90 .cfa: x29 64 + x19: .cfa -8 + ^ x20: .cfa -16 + ^ x21: .cfa -24 + ^ x22: .cfa -32 + ^ x23: .cfa -40 + ^ x24: .cfa -48 + ^ .ra: .cfa -56 + ^ x29: .cfa -64 + ^
STACK CFI 93090 .cfa: sp 144 +
STACK CFI 930a4 .cfa: sp 0 +
STACK CFI 930a8 .cfa: x29 64 +
STACK CFI INIT 93110 210 .cfa: sp 0 +
STACK CFI 93114 .cfa: sp 128 +
STACK CFI 93124 .cfa: x29 48 + x19: .cfa -8 + ^ x20: .cfa -16 + ^ x21: .cfa -32 + ^ .ra: .cfa -40 + ^ x29: .cfa -48 + ^
STACK CFI 932b0 .cfa: sp 128 +
STACK CFI 932c0 .cfa: sp 0 +
STACK CFI 932c4 .cfa: x29 48 +
STACK CFI INIT 93320 728 .cfa: sp 0 +
STACK CFI 93324 .cfa: sp 144 +
STACK CFI 93340 .cfa: x29 64 + x19: .cfa -8 + ^ x20: .cfa -16 + ^ x21: .cfa -24 + ^ x22: .cfa -32 + ^ x23: .cfa -40 + ^ x24: .cfa -48 + ^ .ra: .cfa -56 + ^ x29: .cfa -64 + ^ v8: .cfa -72 + ^ v9: .cfa -80 + ^ v10: .cfa -96 + ^
STACK CFI 9374c .cfa: sp 144 +
STACK CFI 93768 .cfa: sp 0 +
STACK CFI 9376c .cfa: x29 64 +
STACK CFI INIT 93f90 1934 .cfa: sp 0 +
STACK CFI 93f94 .cfa: sp 112 +
STACK CFI 93fb0 .cfa: x29 96 + x19: .cfa -8 + ^ x20: .cfa -16 + ^ x21: .cfa -24 + ^ x22: .cfa -32 + ^ x23: .cfa -40 + ^ x24: .cfa -48 + ^ x25: .cfa -56 + ^ x26: .cfa -64 + ^ x27: .cfa -72 + ^ x28: .cfa -80 + ^ .ra: .cfa -88 + ^ x29: .cfa -96 + ^ v8: .cfa -112 + ^
STACK CFI 954c4 .cfa: sp 112 +
STACK CFI 954e0 .cfa: sp 0 +
STACK CFI 954e4 .cfa: x29 96 +
STACK CFI INIT 958c4 434 .cfa: sp 0 +
STACK CFI 958c8 .cfa: sp 224 +
STACK CFI 958e4 .cfa: x29 96 + x19: .cfa -8 + ^ x20: .cfa -16 + ^ x21: .cfa -24 + ^ x22: .cfa -32 + ^ x23: .cfa -40 + ^ x24: .cfa -48 + ^ x25: .cfa -56 + ^ x26: .cfa -64 + ^ x27: .cfa -80 + ^ .ra: .cfa -88 + ^ x29: .cfa -96 + ^
STACK CFI 95b04 .cfa: sp 224 +
STACK CFI 95b20 .cfa: sp 0 +
STACK CFI 95b24 .cfa: x29 96 +
STACK CFI 95bf0 .cfa: sp 224 +
STACK CFI 95c0c .cfa: sp 0 +
STACK CFI 95c10 .cfa: x29 96 +
STACK CFI INIT 95d14 434 .cfa: sp 0 +
STACK CFI 95d18 .cfa: sp 224 +
STACK CFI 95d34 .cfa: x29 96 + x19: .cfa -8 + ^ x20: .cfa -16 + ^ x21: .cfa -24 + ^ x22: .cfa -32 + ^ x23: .cfa -40 + ^ x24: .cfa -48 + ^ x25: .cfa -56 + ^ x26: .cfa -64 + ^ x27: .cfa -80 + ^ .ra: .cfa -88 + ^ x29: .cfa -96 + ^
STACK CFI 95f54 .cfa: sp 224 +
STACK CFI 95f70 .cfa: sp 0 +
STACK CFI 95f74 .cfa: x29 96 +
STACK CFI 96040 .cfa: sp 224 +
STACK CFI 9605c .cfa: sp 0 +
STACK CFI 96060 .cfa: x29 96 +
STACK CFI INIT 96164 434 .cfa: sp 0 +
STACK CFI 96168 .cfa: sp 224 +
STACK CFI 96184 .cfa: x29 96 + x19: .cfa -8 + ^ x20: .cfa -16 + ^ x21: .cfa -24 + ^ x22: .cfa -32 + ^ x23: .cfa -40 + ^ x24: .cfa -48 + ^ x25: .cfa -56 + ^ x26: .cfa -64 + ^ x27: .cfa -80 + ^ .ra: .cfa -88 + ^ x29: .cfa -96 + ^
STACK CFI 963a4 .cfa: sp 224 +
STACK CFI 963c0 .cfa: sp 0 +
STACK CFI 963c4 .cfa: x29 96 +
STACK CFI 96490 .cfa: sp 224 +
STACK CFI 964ac .cfa: sp 0 +
STACK CFI 964b0 .cfa: x29 96 +
STACK CFI INIT 965b4 434 .cfa: sp 0 +
STACK CFI 965b8 .cfa: sp 224 +
STACK CFI 965d4 .cfa: x29 96 + x19: .cfa -8 + ^ x20: .cfa -16 + ^ x21: .cfa -24 + ^ x22: .cfa -32 + ^ x23: .cfa -40 + ^ x24: .cfa -48 + ^ x25: .cfa -56 + ^ x26: .cfa -64 + ^ x27: .cfa -80 + ^ .ra: .cfa -88 + ^ x29: .cfa -96 + ^
STACK CFI 967f4 .cfa: sp 224 +
STACK CFI 96810 .cfa: sp 0 +
STACK CFI 96814 .cfa: x29 96 +
STACK CFI 968e0 .cfa: sp 224 +
STACK CFI 968fc .cfa: sp 0 +
STACK CFI 96900 .cfa: x29 96 +
STACK CFI INIT 96a04 434 .cfa: sp 0 +
STACK CFI 96a08 .cfa: sp 224 +
STACK CFI 96a24 .cfa: x29 96 + x19: .cfa -8 + ^ x20: .cfa -16 + ^ x21: .cfa -24 + ^ x22: .cfa -32 + ^ x23: .cfa -40 + ^ x24: .cfa -48 + ^ x25: .cfa -56 + ^ x26: .cfa -64 + ^ x27: .cfa -80 + ^ .ra: .cfa -88 + ^ x29: .cfa -96 + ^
STACK CFI 96c44 .cfa: sp 224 +
STACK CFI 96c60 .cfa: sp 0 +
STACK CFI 96c64 .cfa: x29 96 +
STACK CFI 96d30 .cfa: sp 224 +
STACK CFI 96d4c .cfa: sp 0 +
STACK CFI 96d50 .cfa: x29 96 +
STACK CFI INIT 96e54 434 .cfa: sp 0 +
STACK CFI 96e58 .cfa: sp 224 +
STACK CFI 96e74 .cfa: x29 96 + x19: .cfa -8 + ^ x20: .cfa -16 + ^ x21: .cfa -24 + ^ x22: .cfa -32 + ^ x23: .cfa -40 + ^ x24: .cfa -48 + ^ x25: .cfa -56 + ^ x26: .cfa -64 + ^ x27: .cfa -80 + ^ .ra: .cfa -88 + ^ x29: .cfa -96 + ^
STACK CFI 97094 .cfa: sp 224 +
STACK CFI 970b0 .cfa: sp 0 +
STACK CFI 970b4 .cfa: x29 96 +
STACK CFI 97180 .cfa: sp 224 +
STACK CFI 9719c .cfa: sp 0 +
STACK CFI 971a0 .cfa: x29 96 +
STACK CFI INIT 972a4 434 .cfa: sp 0 +
STACK CFI 972a8 .cfa: sp 224 +
STACK CFI 972c4 .cfa: x29 96 + x19: .cfa -8 + ^ x20: .cfa -16 + ^ x21: .cfa -24 + ^ x22: .cfa -32 + ^ x23: .cfa -40 + ^ x24: .cfa -48 + ^ x25: .cfa -56 + ^ x26: .cfa -64 + ^ x27: .cfa -80 + ^ .ra: .cfa -88 + ^ x29: .cfa -96 + ^
STACK CFI 974e4 .cfa: sp 224 +
STACK CFI 97500 .cfa: sp 0 +
STACK CFI 97504 .cfa: x29 96 +
STACK CFI 975d0 .cfa: sp 224 +
STACK CFI 975ec .cfa: sp 0 +
STACK CFI 975f0 .cfa: x29 96 +
STACK CFI INIT 976f4 434 .cfa: sp 0 +
STACK CFI 976f8 .cfa: sp 224 +
STACK CFI 97714 .cfa: x29 96 + x19: .cfa -8 + ^ x20: .cfa -16 + ^ x21: .cfa -24 + ^ x22: .cfa -32 + ^ x23: .cfa -40 + ^ x24: .cfa -48 + ^ x25: .cfa -56 + ^ x26: .cfa -64 + ^ x27: .cfa -80 + ^ .ra: .cfa -88 + ^ x29: .cfa -96 + ^
STACK CFI 97934 .cfa: sp 224 +
STACK CFI 97950 .cfa: sp 0 +
STACK CFI 97954 .cfa: x29 96 +
STACK CFI 97a20 .cfa: sp 224 +
STACK CFI 97a3c .cfa: sp 0 +
STACK CFI 97a40 .cfa: x29 96 +
STACK CFI INIT 97b44 434 .cfa: sp 0 +
STACK CFI 97b48 .cfa: sp 224 +
STACK CFI 97b64 .cfa: x29 96 + x19: .cfa -8 + ^ x20: .cfa -16 + ^ x21: .cfa -24 + ^ x22: .cfa -32 + ^ x23: .cfa -40 + ^ x24: .cfa -48 + ^ x25: .cfa -56 + ^ x26: .cfa -64 + ^ x27: .cfa -80 + ^ .ra: .cfa -88 + ^ x29: .cfa -96 + ^
STACK CFI 97d84 .cfa: sp 224 +
STACK CFI 97da0 .cfa: sp 0 +
STACK CFI 97da4 .cfa: x29 96 +
STACK CFI 97e70 .cfa: sp 224 +
STACK CFI 97e8c .cfa: sp 0 +
STACK CFI 97e90 .cfa: x29 96 +
STACK CFI INIT 97f94 35c .cfa: sp 0 +
STACK CFI 97f98 .cfa: sp 192 +
STACK CFI 97fac .cfa: x29 64 + x19: .cfa -8 + ^ x20: .cfa -16 + ^ x21: .cfa -24 + ^ x22: .cfa -32 + ^ x23: .cfa -48 + ^ .ra: .cfa -56 + ^ x29: .cfa -64 + ^
STACK CFI 981ec .cfa: sp 192 +
STACK CFI 98200 .cfa: sp 0 +
STACK CFI 98204 .cfa: x29 64 +
STACK CFI INIT 982f4 a8 .cfa: sp 0 +
STACK CFI 982f8 .cfa: sp 32 +
STACK CFI 98300 .cfa: x29 32 + x19: .cfa -8 + ^ x20: .cfa -16 + ^ .ra: .cfa -24 + ^ x29: .cfa -32 + ^
STACK CFI 98334 .cfa: sp 32 +
STACK CFI 9833c .cfa: sp 0 +
STACK CFI 98340 .cfa: x29 32 +
STACK CFI 98344 .cfa: sp 32 +
STACK CFI 9834c .cfa: sp 0 +
STACK CFI 98350 .cfa: x29 32 +
STACK CFI INIT 9839c 1f4 .cfa: sp 0 +
STACK CFI 983a0 .cfa: sp 112 +
STACK CFI 983b4 .cfa: x29 64 + x19: .cfa -8 + ^ x20: .cfa -16 + ^ x21: .cfa -24 + ^ x22: .cfa -32 + ^ x23: .cfa -48 + ^ .ra: .cfa -56 + ^ x29: .cfa -64 + ^
STACK CFI 98548 .cfa: sp 112 +
STACK CFI 9855c .cfa: sp 0 +
STACK CFI 98560 .cfa: x29 64 +
STACK CFI INIT 988c4 85c .cfa: sp 0 +
STACK CFI 988c8 .cfa: sp 304 +
STACK CFI 988e4 .cfa: x29 96 + x19: .cfa -8 + ^ x20: .cfa -16 + ^ x21: .cfa -24 + ^ x22: .cfa -32 + ^ x23: .cfa -40 + ^ x24: .cfa -48 + ^ x25: .cfa -56 + ^ x26: .cfa -64 + ^ x27: .cfa -72 + ^ x28: .cfa -80 + ^ .ra: .cfa -88 + ^ x29: .cfa -96 + ^
STACK CFI 98e9c .cfa: sp 304 +
STACK CFI 98eb8 .cfa: sp 0 +
STACK CFI 98ebc .cfa: x29 96 +
STACK CFI INIT 99380 370 .cfa: sp 0 +
STACK CFI 99384 .cfa: sp 224 +
STACK CFI 99398 .cfa: x29 64 + x19: .cfa -8 + ^ x20: .cfa -16 + ^ x21: .cfa -24 + ^ x22: .cfa -32 + ^ x23: .cfa -48 + ^ .ra: .cfa -56 + ^ x29: .cfa -64 + ^
STACK CFI 995e4 .cfa: sp 224 +
STACK CFI 995f8 .cfa: sp 0 +
STACK CFI 995fc .cfa: x29 64 +
STACK CFI INIT 996f4 a8 .cfa: sp 0 +
STACK CFI 996f8 .cfa: sp 32 +
STACK CFI 99700 .cfa: x29 32 + x19: .cfa -8 + ^ x20: .cfa -16 + ^ .ra: .cfa -24 + ^ x29: .cfa -32 + ^
STACK CFI 99734 .cfa: sp 32 +
STACK CFI 9973c .cfa: sp 0 +
STACK CFI 99740 .cfa: x29 32 +
STACK CFI 99744 .cfa: sp 32 +
STACK CFI 9974c .cfa: sp 0 +
STACK CFI 99750 .cfa: x29 32 +
STACK CFI INIT 9979c 154 .cfa: sp 0 +
STACK CFI 997a0 .cfa: sp 96 +
STACK CFI 997b0 .cfa: x29 48 + x19: .cfa -8 + ^ x20: .cfa -16 + ^ x21: .cfa -32 + ^ .ra: .cfa -40 + ^ x29: .cfa -48 + ^
STACK CFI 998ac .cfa: sp 96 +
STACK CFI 998bc .cfa: sp 0 +
STACK CFI 998c0 .cfa: x29 48 +
STACK CFI INIT 99998 678 .cfa: sp 0 +
STACK CFI 9999c .cfa: sp 240 +
STACK CFI 999b8 .cfa: x29 96 + x19: .cfa -8 + ^ x20: .cfa -16 + ^ x21: .cfa -24 + ^ x22: .cfa -32 + ^ x23: .cfa -40 + ^ x24: .cfa -48 + ^ x25: .cfa -56 + ^ x26: .cfa -64 + ^ x27: .cfa -80 + ^ .ra: .cfa -88 + ^ x29: .cfa -96 + ^
STACK CFI 99e4c .cfa: sp 240 +
STACK CFI 99e68 .cfa: sp 0 +
STACK CFI 99e6c .cfa: x29 96 +
STACK CFI INIT 9a014 274 .cfa: sp 0 +
STACK CFI 9a018 .cfa: sp 112 +
STACK CFI 9a02c .cfa: x29 64 + x19: .cfa -8 + ^ x20: .cfa -16 + ^ x21: .cfa -24 + ^ x22: .cfa -32 + ^ x23: .cfa -40 + ^ x24: .cfa -48 + ^ .ra: .cfa -56 + ^ x29: .cfa -64 + ^
STACK CFI 9a23c .cfa: sp 112 +
STACK CFI 9a250 .cfa: sp 0 +
STACK CFI 9a254 .cfa: x29 64 +
STACK CFI INIT 9a2fc 188 .cfa: sp 0 +
STACK CFI 9a300 .cfa: sp 112 +
STACK CFI 9a310 .cfa: x29 48 + x19: .cfa -8 + ^ x20: .cfa -16 + ^ x21: .cfa -24 + ^ x22: .cfa -32 + ^ .ra: .cfa -40 + ^ x29: .cfa -48 + ^
STACK CFI 9a3e0 .cfa: sp 112 +
STACK CFI 9a3f0 .cfa: sp 0 +
STACK CFI 9a3f4 .cfa: x29 48 +
STACK CFI INIT 9a484 3a8 .cfa: sp 0 +
STACK CFI 9a488 .cfa: sp 176 +
STACK CFI 9a4a4 .cfa: x29 96 + x19: .cfa -8 + ^ x20: .cfa -16 + ^ x21: .cfa -24 + ^ x22: .cfa -32 + ^ x23: .cfa -40 + ^ x24: .cfa -48 + ^ x25: .cfa -56 + ^ x26: .cfa -64 + ^ x27: .cfa -72 + ^ x28: .cfa -80 + ^ .ra: .cfa -88 + ^ x29: .cfa -96 + ^
STACK CFI 9a4e4 .cfa: sp 176 +
STACK CFI 9a500 .cfa: sp 0 +
STACK CFI 9a504 .cfa: x29 96 +
STACK CFI INIT 9a82c 10c .cfa: sp 0 +
STACK CFI 9a830 .cfa: sp 64 +
STACK CFI 9a840 .cfa: x29 64 + x19: .cfa -8 + ^ x20: .cfa -16 + ^ x21: .cfa -24 + ^ x22: .cfa -32 + ^ x23: .cfa -48 + ^ .ra: .cfa -56 + ^ x29: .cfa -64 + ^
STACK CFI 9a918 .cfa: sp 64 +
STACK CFI 9a928 .cfa: sp 0 +
STACK CFI 9a92c .cfa: x29 64 +
STACK CFI INIT 9aa24 6ec .cfa: sp 0 +
STACK CFI 9aa28 .cfa: sp 288 +
STACK CFI 9aa44 .cfa: x29 96 + x19: .cfa -8 + ^ x20: .cfa -16 + ^ x21: .cfa -24 + ^ x22: .cfa -32 + ^ x23: .cfa -40 + ^ x24: .cfa -48 + ^ x25: .cfa -56 + ^ x26: .cfa -64 + ^ x28: .cfa -80 + ^ .ra: .cfa -88 + ^ x29: .cfa -96 + ^
STACK CFI 9af3c .cfa: sp 288 +
STACK CFI 9af58 .cfa: sp 0 +
STACK CFI 9af5c .cfa: x29 96 +
STACK CFI INIT 9b114 b8 .cfa: sp 0 +
STACK CFI 9b118 .cfa: sp 32 +
STACK CFI 9b120 .cfa: x29 32 + x19: .cfa -8 + ^ x20: .cfa -16 + ^ .ra: .cfa -24 + ^ x29: .cfa -32 + ^
STACK CFI 9b154 .cfa: sp 32 +
STACK CFI 9b15c .cfa: sp 0 +
STACK CFI 9b160 .cfa: x29 32 +
STACK CFI 9b164 .cfa: sp 32 +
STACK CFI 9b16c .cfa: sp 0 +
STACK CFI 9b170 .cfa: x29 32 +
STACK CFI INIT 9b214 6f8 .cfa: sp 0 +
STACK CFI 9b218 .cfa: sp 80 +
STACK CFI 9b22c .cfa: x29 80 + x19: .cfa -8 + ^ x20: .cfa -16 + ^ x21: .cfa -24 + ^ x22: .cfa -32 + ^ x23: .cfa -40 + ^ x24: .cfa -48 + ^ x25: .cfa -56 + ^ x26: .cfa -64 + ^ .ra: .cfa -72 + ^ x29: .cfa -80 + ^
STACK CFI 9b624 .cfa: sp 80 +
STACK CFI 9b638 .cfa: sp 0 +
STACK CFI 9b63c .cfa: x29 80 +
STACK CFI INIT 9b90c 53c .cfa: sp 0 +
STACK CFI 9b910 .cfa: sp 80 +
STACK CFI 9b920 .cfa: x29 48 + x19: .cfa -8 + ^ x20: .cfa -16 + ^ x21: .cfa -24 + ^ x22: .cfa -32 + ^ .ra: .cfa -40 + ^ x29: .cfa -48 + ^
STACK CFI 9bcb4 .cfa: sp 80 +
STACK CFI 9bcc4 .cfa: sp 0 +
STACK CFI 9bcc8 .cfa: x29 48 +
STACK CFI INIT 9bfbc 1c .cfa: sp 0 +
STACK CFI 9bfc0 .cfa: sp 16 +
STACK CFI 9bfc4 .cfa: x29 16 + .ra: .cfa -8 + ^ x29: .cfa -16 + ^
STACK CFI 9bfcc .cfa: sp 16 +
STACK CFI 9bfd0 .cfa: sp 0 +
STACK CFI 9bfd4 .cfa: x29 16 +
STACK CFI INIT 9c2e4 440 .cfa: sp 0 +
STACK CFI 9c2e8 .cfa: sp 48 +
STACK CFI 9c2f4 .cfa: x29 48 + x19: .cfa -8 + ^ x20: .cfa -16 + ^ x21: .cfa -24 + ^ x22: .cfa -32 + ^ .ra: .cfa -40 + ^ x29: .cfa -48 + ^
STACK CFI 9c69c .cfa: sp 48 +
STACK CFI 9c6a8 .cfa: sp 0 +
STACK CFI 9c6ac .cfa: x29 48 +
STACK CFI 9c6fc .cfa: sp 48 +
STACK CFI 9c708 .cfa: sp 0 +
STACK CFI 9c70c .cfa: x29 48 +
STACK CFI INIT 9c79c 1c .cfa: sp 0 +
STACK CFI 9c7a0 .cfa: sp 16 +
STACK CFI 9c7a4 .cfa: x29 16 + .ra: .cfa -8 + ^ x29: .cfa -16 + ^
STACK CFI 9c7ac .cfa: sp 16 +
STACK CFI 9c7b0 .cfa: sp 0 +
STACK CFI 9c7b4 .cfa: x29 16 +
STACK CFI INIT 9c848 98 .cfa: sp 0 +
STACK CFI 9c84c .cfa: sp 48 +
STACK CFI 9c858 .cfa: x29 48 + x19: .cfa -8 + ^ x20: .cfa -16 + ^ x21: .cfa -32 + ^ .ra: .cfa -40 + ^ x29: .cfa -48 + ^
STACK CFI 9c8b8 .cfa: sp 48 +
STACK CFI 9c8c4 .cfa: sp 0 +
STACK CFI 9c8c8 .cfa: sp 48 +
STACK CFI 9c8d4 .cfa: sp 0 +
STACK CFI 9c8d8 .cfa: x29 48 +
STACK CFI INIT 9c8e0 60 .cfa: sp 0 +
STACK CFI 9c8e4 .cfa: sp 32 +
STACK CFI 9c8ec .cfa: x29 32 + x19: .cfa -8 + ^ x20: .cfa -16 + ^ .ra: .cfa -24 + ^ x29: .cfa -32 + ^
STACK CFI 9c924 .cfa: sp 32 +
STACK CFI 9c92c .cfa: sp 0 +
STACK CFI 9c930 .cfa: sp 32 +
STACK CFI 9c938 .cfa: sp 0 +
STACK CFI 9c93c .cfa: x29 32 +
STACK CFI INIT 9c940 1c .cfa: sp 0 +
STACK CFI 9c944 .cfa: sp 16 +
STACK CFI 9c948 .cfa: x29 16 + .ra: .cfa -8 + ^ x29: .cfa -16 + ^
STACK CFI 9c950 .cfa: sp 16 +
STACK CFI 9c954 .cfa: sp 0 +
STACK CFI 9c958 .cfa: x29 16 +
STACK CFI INIT 9c95c 1c .cfa: sp 0 +
STACK CFI 9c960 .cfa: sp 16 +
STACK CFI 9c964 .cfa: x29 16 + .ra: .cfa -8 + ^ x29: .cfa -16 + ^
STACK CFI 9c96c .cfa: sp 16 +
STACK CFI 9c970 .cfa: sp 0 +
STACK CFI 9c974 .cfa: x29 16 +
STACK CFI INIT 9cb58 1cc .cfa: sp 0 +
STACK CFI 9cb5c .cfa: sp 160 +
STACK CFI 9cb74 .cfa: x29 80 + x19: .cfa -8 + ^ x20: .cfa -16 + ^ x21: .cfa -24 + ^ x22: .cfa -32 + ^ x23: .cfa -40 + ^ x24: .cfa -48 + ^ x25: .cfa -56 + ^ x26: .cfa -64 + ^ .ra: .cfa -72 + ^ x29: .cfa -80 + ^
STACK CFI 9ccd0 .cfa: sp 160 +
STACK CFI 9cce8 .cfa: sp 0 +
STACK CFI 9ccec .cfa: x29 80 +
STACK CFI INIT 9d074 194 .cfa: sp 0 +
STACK CFI 9d078 .cfa: sp 64 +
STACK CFI 9d088 .cfa: x29 64 + x19: .cfa -8 + ^ x20: .cfa -16 + ^ x21: .cfa -24 + ^ x22: .cfa -32 + ^ x23: .cfa -48 + ^ .ra: .cfa -56 + ^ x29: .cfa -64 + ^
STACK CFI 9d138 .cfa: sp 64 +
STACK CFI 9d148 .cfa: sp 0 +
STACK CFI 9d14c .cfa: x29 64 +
STACK CFI INIT 9d580 88 .cfa: sp 0 +
STACK CFI 9d584 .cfa: sp 48 +
STACK CFI 9d590 .cfa: x29 48 + x19: .cfa -8 + ^ x20: .cfa -16 + ^ x21: .cfa -24 + ^ x22: .cfa -32 + ^ .ra: .cfa -40 + ^ x29: .cfa -48 + ^
STACK CFI 9d5f4 .cfa: sp 48 +
STACK CFI 9d600 .cfa: sp 0 +
STACK CFI 9d604 .cfa: x29 48 +
STACK CFI INIT 9d748 6d0 .cfa: sp 0 +
STACK CFI 9d74c .cfa: sp 224 +
STACK CFI 9d764 .cfa: x29 80 + x19: .cfa -8 + ^ x20: .cfa -16 + ^ x21: .cfa -24 + ^ x22: .cfa -32 + ^ x23: .cfa -40 + ^ x24: .cfa -48 + ^ x25: .cfa -56 + ^ x26: .cfa -64 + ^ .ra: .cfa -72 + ^ x29: .cfa -80 + ^
STACK CFI 9dc44 .cfa: sp 224 +
STACK CFI 9dc5c .cfa: sp 0 +
STACK CFI 9dc60 .cfa: x29 80 +
STACK CFI INIT 9de1c b8 .cfa: sp 0 +
STACK CFI 9de20 .cfa: sp 32 +
STACK CFI 9de28 .cfa: x29 32 + x19: .cfa -8 + ^ x20: .cfa -16 + ^ .ra: .cfa -24 + ^ x29: .cfa -32 + ^
STACK CFI 9de5c .cfa: sp 32 +
STACK CFI 9de64 .cfa: sp 0 +
STACK CFI 9de68 .cfa: x29 32 +
STACK CFI 9de6c .cfa: sp 32 +
STACK CFI 9de74 .cfa: sp 0 +
STACK CFI 9de78 .cfa: x29 32 +
STACK CFI INIT 9ded4 5d4 .cfa: sp 0 +
STACK CFI 9ded8 .cfa: sp 128 +
STACK CFI 9def4 .cfa: x29 56 + x19: .cfa -8 + ^ x20: .cfa -16 + ^ x21: .cfa -24 + ^ x22: .cfa -32 + ^ x23: .cfa -40 + ^ .ra: .cfa -48 + ^ x29: .cfa -56 + ^ v8: .cfa -64 + ^ v9: .cfa -72 + ^ v10: .cfa -80 + ^
STACK CFI 9e44c .cfa: sp 128 +
STACK CFI 9e468 .cfa: sp 0 +
STACK CFI 9e46c .cfa: x29 56 +
STACK CFI INIT 9e4a8 178 .cfa: sp 0 +
STACK CFI 9e4ac .cfa: sp 112 +
STACK CFI 9e4c8 .cfa: x29 72 + x19: .cfa -8 + ^ x20: .cfa -16 + ^ x21: .cfa -24 + ^ x22: .cfa -32 + ^ x23: .cfa -40 + ^ x24: .cfa -48 + ^ x25: .cfa -56 + ^ .ra: .cfa -64 + ^ x29: .cfa -72 + ^ v8: .cfa -80 + ^
STACK CFI 9e5d0 .cfa: sp 112 +
STACK CFI 9e5ec .cfa: sp 0 +
STACK CFI 9e5f0 .cfa: x29 72 +
STACK CFI INIT 9e6c4 6f8 .cfa: sp 0 +
STACK CFI 9e6c8 .cfa: sp 80 +
STACK CFI 9e6dc .cfa: x29 80 + x19: .cfa -8 + ^ x20: .cfa -16 + ^ x21: .cfa -24 + ^ x22: .cfa -32 + ^ x23: .cfa -40 + ^ x24: .cfa -48 + ^ x25: .cfa -56 + ^ x26: .cfa -64 + ^ .ra: .cfa -72 + ^ x29: .cfa -80 + ^
STACK CFI 9ead4 .cfa: sp 80 +
STACK CFI 9eae8 .cfa: sp 0 +
STACK CFI 9eaec .cfa: x29 80 +
STACK CFI INIT 9edbc 188 .cfa: sp 0 +
STACK CFI 9edc0 .cfa: sp 112 +
STACK CFI 9edd0 .cfa: x29 48 + x19: .cfa -8 + ^ x20: .cfa -16 + ^ x21: .cfa -32 + ^ .ra: .cfa -40 + ^ x29: .cfa -48 + ^
STACK CFI 9ee9c .cfa: sp 112 +
STACK CFI 9eeac .cfa: sp 0 +
STACK CFI 9eeb0 .cfa: x29 48 +
STACK CFI INIT 9ef48 704 .cfa: sp 0 +
STACK CFI 9ef4c .cfa: sp 256 +
STACK CFI 9ef64 .cfa: x29 80 + x19: .cfa -8 + ^ x20: .cfa -16 + ^ x21: .cfa -24 + ^ x22: .cfa -32 + ^ x23: .cfa -40 + ^ x24: .cfa -48 + ^ x25: .cfa -56 + ^ x26: .cfa -64 + ^ .ra: .cfa -72 + ^ x29: .cfa -80 + ^
STACK CFI 9f470 .cfa: sp 256 +
STACK CFI 9f488 .cfa: sp 0 +
STACK CFI 9f48c .cfa: x29 80 +
STACK CFI INIT 9f650 b8 .cfa: sp 0 +
STACK CFI 9f654 .cfa: sp 32 +
STACK CFI 9f65c .cfa: x29 32 + x19: .cfa -8 + ^ x20: .cfa -16 + ^ .ra: .cfa -24 + ^ x29: .cfa -32 + ^
STACK CFI 9f690 .cfa: sp 32 +
STACK CFI 9f698 .cfa: sp 0 +
STACK CFI 9f69c .cfa: x29 32 +
STACK CFI 9f6a0 .cfa: sp 32 +
STACK CFI 9f6a8 .cfa: sp 0 +
STACK CFI 9f6ac .cfa: x29 32 +
STACK CFI INIT 9f708 268 .cfa: sp 0 +
STACK CFI 9f70c .cfa: sp 128 +
STACK CFI 9f728 .cfa: x29 56 + x19: .cfa -8 + ^ x20: .cfa -16 + ^ x21: .cfa -24 + ^ x22: .cfa -32 + ^ x23: .cfa -40 + ^ .ra: .cfa -48 + ^ x29: .cfa -56 + ^ v8: .cfa -64 + ^ v9: .cfa -72 + ^ v10: .cfa -80 + ^
STACK CFI 9f91c .cfa: sp 128 +
STACK CFI 9f938 .cfa: sp 0 +
STACK CFI 9f93c .cfa: x29 56 +
STACK CFI INIT 9fa8c 914 .cfa: sp 0 +
STACK CFI 9fa90 .cfa: sp 256 +
STACK CFI 9faa8 .cfa: x29 80 + x19: .cfa -8 + ^ x20: .cfa -16 + ^ x21: .cfa -24 + ^ x22: .cfa -32 + ^ x23: .cfa -40 + ^ x24: .cfa -48 + ^ x25: .cfa -56 + ^ x26: .cfa -64 + ^ .ra: .cfa -72 + ^ x29: .cfa -80 + ^
STACK CFI a0154 .cfa: sp 256 +
STACK CFI a016c .cfa: sp 0 +
STACK CFI a0170 .cfa: x29 80 +
STACK CFI INIT a03a4 a8 .cfa: sp 0 +
STACK CFI a03a8 .cfa: sp 32 +
STACK CFI a03b0 .cfa: x29 32 + x19: .cfa -8 + ^ x20: .cfa -16 + ^ .ra: .cfa -24 + ^ x29: .cfa -32 + ^
STACK CFI a03e4 .cfa: sp 32 +
STACK CFI a03ec .cfa: sp 0 +
STACK CFI a03f0 .cfa: x29 32 +
STACK CFI a03f4 .cfa: sp 32 +
STACK CFI a03fc .cfa: sp 0 +
STACK CFI a0400 .cfa: x29 32 +
STACK CFI INIT a044c 25c .cfa: sp 0 +
STACK CFI a0450 .cfa: sp 128 +
STACK CFI a046c .cfa: x29 56 + x19: .cfa -8 + ^ x20: .cfa -16 + ^ x21: .cfa -24 + ^ x22: .cfa -32 + ^ x23: .cfa -40 + ^ .ra: .cfa -48 + ^ x29: .cfa -56 + ^ v8: .cfa -64 + ^ v9: .cfa -72 + ^ v10: .cfa -80 + ^
STACK CFI a0654 .cfa: sp 128 +
STACK CFI a0670 .cfa: sp 0 +
STACK CFI a0674 .cfa: x29 56 +
STACK CFI INIT a06a8 a8 .cfa: sp 0 +
STACK CFI a06ac .cfa: sp 32 +
STACK CFI a06b4 .cfa: x29 32 + x19: .cfa -8 + ^ x20: .cfa -16 + ^ .ra: .cfa -24 + ^ x29: .cfa -32 + ^
STACK CFI a06e8 .cfa: sp 32 +
STACK CFI a06f0 .cfa: sp 0 +
STACK CFI a06f4 .cfa: x29 32 +
STACK CFI a06f8 .cfa: sp 32 +
STACK CFI a0700 .cfa: sp 0 +
STACK CFI a0704 .cfa: x29 32 +
STACK CFI INIT a07b0 16c .cfa: sp 0 +
STACK CFI a07b4 .cfa: sp 96 +
STACK CFI a07c4 .cfa: x29 48 + x19: .cfa -8 + ^ x20: .cfa -16 + ^ x21: .cfa -24 + ^ x22: .cfa -32 + ^ .ra: .cfa -40 + ^ x29: .cfa -48 + ^
STACK CFI a08d8 .cfa: sp 96 +
STACK CFI a08e8 .cfa: sp 0 +
STACK CFI a08ec .cfa: x29 48 +
STACK CFI INIT a09b4 3c8 .cfa: sp 0 +
STACK CFI a09b8 .cfa: sp 240 +
STACK CFI a09cc .cfa: x29 64 + x19: .cfa -8 + ^ x20: .cfa -16 + ^ x21: .cfa -24 + ^ x22: .cfa -32 + ^ x23: .cfa -48 + ^ .ra: .cfa -56 + ^ x29: .cfa -64 + ^
STACK CFI a0c54 .cfa: sp 240 +
STACK CFI a0c68 .cfa: sp 0 +
STACK CFI a0c6c .cfa: x29 64 +
STACK CFI INIT a0d80 260 .cfa: sp 0 +
STACK CFI a0d84 .cfa: sp 128 +
STACK CFI a0d98 .cfa: x29 48 + x19: .cfa -8 + ^ x20: .cfa -16 + ^ x21: .cfa -24 + ^ x22: .cfa -32 + ^ .ra: .cfa -40 + ^ x29: .cfa -48 + ^ v8: .cfa -64 + ^
STACK CFI a0ed8 .cfa: sp 128 +
STACK CFI a0eec .cfa: sp 0 +
STACK CFI a0ef0 .cfa: x29 48 +
STACK CFI INIT a0fe0 d94 .cfa: sp 0 +
STACK CFI a0fe4 .cfa: sp 288 +
STACK CFI a1000 .cfa: x29 96 + x19: .cfa -8 + ^ x20: .cfa -16 + ^ x21: .cfa -24 + ^ x22: .cfa -32 + ^ x23: .cfa -40 + ^ x24: .cfa -48 + ^ x25: .cfa -56 + ^ x26: .cfa -64 + ^ x28: .cfa -80 + ^ .ra: .cfa -88 + ^ x29: .cfa -96 + ^
STACK CFI a1a4c .cfa: sp 288 +
STACK CFI a1a68 .cfa: sp 0 +
STACK CFI a1a6c .cfa: x29 96 +
STACK CFI INIT a1dc0 c58 .cfa: sp 0 +
STACK CFI a1dc4 .cfa: sp 240 +
STACK CFI a1dec .cfa: x29 88 + x19: .cfa -8 + ^ x20: .cfa -16 + ^ x21: .cfa -24 + ^ x22: .cfa -32 + ^ x23: .cfa -40 + ^ x24: .cfa -48 + ^ x25: .cfa -56 + ^ x26: .cfa -64 + ^ x27: .cfa -72 + ^ .ra: .cfa -80 + ^ x29: .cfa -88 + ^ v8: .cfa -96 + ^ v9: .cfa -104 + ^ v10: .cfa -112 + ^ v11: .cfa -120 + ^ v12: .cfa -128 + ^
STACK CFI a28cc .cfa: sp 240 +
STACK CFI a28f4 .cfa: sp 0 +
STACK CFI a28f8 .cfa: x29 88 +
STACK CFI INIT a2a60 144 .cfa: sp 0 +
STACK CFI a2a64 .cfa: sp 96 +
STACK CFI a2a74 .cfa: x29 48 + x19: .cfa -8 + ^ x20: .cfa -16 + ^ x21: .cfa -24 + ^ x22: .cfa -32 + ^ .ra: .cfa -40 + ^ x29: .cfa -48 + ^
STACK CFI a2b60 .cfa: sp 96 +
STACK CFI a2b70 .cfa: sp 0 +
STACK CFI a2b74 .cfa: x29 48 +
STACK CFI INIT a2ba4 1410 .cfa: sp 0 +
STACK CFI a2ba8 .cfa: sp 240 +
STACK CFI a2bc4 .cfa: x29 96 + x19: .cfa -8 + ^ x20: .cfa -16 + ^ x21: .cfa -24 + ^ x22: .cfa -32 + ^ x23: .cfa -40 + ^ x24: .cfa -48 + ^ x25: .cfa -56 + ^ x26: .cfa -64 + ^ x27: .cfa -72 + ^ x28: .cfa -80 + ^ .ra: .cfa -88 + ^ x29: .cfa -96 + ^
STACK CFI a3d90 .cfa: sp 240 +
STACK CFI a3dac .cfa: sp 0 +
STACK CFI a3db0 .cfa: x29 96 +
STACK CFI INIT a3fb4 828 .cfa: sp 0 +
STACK CFI a3fb8 .cfa: sp 304 +
STACK CFI a3fe4 .cfa: x29 96 + x19: .cfa -8 + ^ x20: .cfa -16 + ^ x21: .cfa -24 + ^ x22: .cfa -32 + ^ x23: .cfa -40 + ^ x24: .cfa -48 + ^ x25: .cfa -56 + ^ x26: .cfa -64 + ^ x27: .cfa -72 + ^ x28: .cfa -80 + ^ .ra: .cfa -88 + ^ x29: .cfa -96 + ^ v8: .cfa -104 + ^ v9: .cfa -112 + ^ v10: .cfa -120 + ^ v11: .cfa -128 + ^ v12: .cfa -136 + ^ v13: .cfa -144 + ^ v14: .cfa -152 + ^ v15: .cfa -160 + ^
STACK CFI a4700 .cfa: sp 304 +
STACK CFI a472c .cfa: sp 0 +
STACK CFI a4730 .cfa: x29 96 +
STACK CFI INIT a47dc 8c .cfa: sp 0 +
STACK CFI a47e0 .cfa: sp 32 +
STACK CFI a47e8 .cfa: x29 32 + x19: .cfa -8 + ^ x20: .cfa -16 + ^ .ra: .cfa -24 + ^ x29: .cfa -32 + ^
STACK CFI a4800 .cfa: sp 32 +
STACK CFI a4808 .cfa: sp 0 +
STACK CFI a480c .cfa: x29 32 +
STACK CFI INIT a4868 2a4 .cfa: sp 0 +
STACK CFI a486c .cfa: sp 48 +
STACK CFI a4878 .cfa: x29 32 + x19: .cfa -8 + ^ x20: .cfa -16 + ^ .ra: .cfa -24 + ^ x29: .cfa -32 + ^ v8: .cfa -48 + ^
STACK CFI a4a78 .cfa: sp 48 +
STACK CFI a4a84 .cfa: sp 0 +
STACK CFI a4a88 .cfa: x29 32 +
STACK CFI INIT a4b0c 1c .cfa: sp 0 +
STACK CFI a4b10 .cfa: sp 16 +
STACK CFI a4b14 .cfa: x29 16 + .ra: .cfa -8 + ^ x29: .cfa -16 + ^
STACK CFI a4b1c .cfa: sp 16 +
STACK CFI a4b20 .cfa: sp 0 +
STACK CFI a4b24 .cfa: x29 16 +
STACK CFI INIT a4ca8 19f8 .cfa: sp 0 +
STACK CFI a4cac .cfa: sp 224 +
STACK CFI a4cd0 .cfa: x29 96 + x19: .cfa -8 + ^ x20: .cfa -16 + ^ x21: .cfa -24 + ^ x22: .cfa -32 + ^ x23: .cfa -40 + ^ x24: .cfa -48 + ^ x25: .cfa -56 + ^ x26: .cfa -64 + ^ x27: .cfa -72 + ^ x28: .cfa -80 + ^ .ra: .cfa -88 + ^ x29: .cfa -96 + ^ v8: .cfa -104 + ^ v9: .cfa -112 + ^ v10: .cfa -128 + ^
STACK CFI a6604 .cfa: sp 224 +
STACK CFI a6628 .cfa: sp 0 +
STACK CFI a662c .cfa: x29 96 +
STACK CFI INIT a66a0 1a0 .cfa: sp 0 +
STACK CFI a66a4 .cfa: sp 112 +
STACK CFI a66b4 .cfa: x29 48 + x19: .cfa -8 + ^ x20: .cfa -16 + ^ x21: .cfa -24 + ^ x22: .cfa -32 + ^ .ra: .cfa -40 + ^ x29: .cfa -48 + ^
STACK CFI a679c .cfa: sp 112 +
STACK CFI a67ac .cfa: sp 0 +
STACK CFI a67b0 .cfa: x29 48 +
STACK CFI INIT a69dc 1cc .cfa: sp 0 +
STACK CFI a69e0 .cfa: sp 96 +
STACK CFI a69f0 .cfa: x29 48 + x19: .cfa -8 + ^ x20: .cfa -16 + ^ x21: .cfa -24 + ^ x22: .cfa -32 + ^ .ra: .cfa -40 + ^ x29: .cfa -48 + ^
STACK CFI a6ad4 .cfa: sp 96 +
STACK CFI a6ae4 .cfa: sp 0 +
STACK CFI a6ae8 .cfa: x29 48 +
STACK CFI INIT a6be0 20 .cfa: sp 0 +
STACK CFI a6be4 .cfa: sp 16 +
STACK CFI a6be8 .cfa: x29 16 + .ra: .cfa -8 + ^ x29: .cfa -16 + ^
STACK CFI a6bf4 .cfa: sp 16 +
STACK CFI a6bf8 .cfa: sp 0 +
STACK CFI a6bfc .cfa: x29 16 +
STACK CFI INIT a6c00 30c .cfa: sp 0 +
STACK CFI a6c04 .cfa: sp 240 +
STACK CFI a6c18 .cfa: x29 64 + x19: .cfa -8 + ^ x20: .cfa -16 + ^ x21: .cfa -24 + ^ x22: .cfa -32 + ^ x23: .cfa -40 + ^ x24: .cfa -48 + ^ .ra: .cfa -56 + ^ x29: .cfa -64 + ^
STACK CFI a6e34 .cfa: sp 240 +
STACK CFI a6e48 .cfa: sp 0 +
STACK CFI a6e4c .cfa: x29 64 +
STACK CFI INIT a6f0c 35c .cfa: sp 0 +
STACK CFI a6f10 .cfa: sp 160 +
STACK CFI a6f2c .cfa: x29 96 + x19: .cfa -8 + ^ x20: .cfa -16 + ^ x21: .cfa -24 + ^ x22: .cfa -32 + ^ x23: .cfa -40 + ^ x24: .cfa -48 + ^ x25: .cfa -56 + ^ x26: .cfa -64 + ^ x27: .cfa -72 + ^ x28: .cfa -80 + ^ .ra: .cfa -88 + ^ x29: .cfa -96 + ^
STACK CFI a720c .cfa: sp 160 +
STACK CFI a7228 .cfa: sp 0 +
STACK CFI a722c .cfa: x29 96 +
STACK CFI INIT 93e3c 154 .cfa: sp 0 +
STACK CFI 93e40 .cfa: sp 80 +
STACK CFI 93e50 .cfa: x29 48 + x19: .cfa -8 + ^ x20: .cfa -16 + ^ x21: .cfa -32 + ^ .ra: .cfa -40 + ^ x29: .cfa -48 + ^
STACK CFI 93f10 .cfa: sp 80 +
STACK CFI 93f20 .cfa: sp 0 +
STACK CFI 93f24 .cfa: x29 48 +
STACK CFI INIT a7314 134 .cfa: sp 0 +
STACK CFI a7318 .cfa: sp 80 +
STACK CFI a7324 .cfa: x29 32 + x19: .cfa -8 + ^ x20: .cfa -16 + ^ .ra: .cfa -24 + ^ x29: .cfa -32 + ^
STACK CFI a7354 .cfa: sp 80 +
STACK CFI a7360 .cfa: sp 0 +
STACK CFI a7364 .cfa: x29 32 +
STACK CFI INIT a7448 78 .cfa: sp 0 +
STACK CFI a744c .cfa: sp 32 +
STACK CFI a7454 .cfa: x29 32 + x19: .cfa -8 + ^ x20: .cfa -16 + ^ .ra: .cfa -24 + ^ x29: .cfa -32 + ^
STACK CFI a7460 .cfa: sp 32 +
STACK CFI a7468 .cfa: sp 0 +
STACK CFI a746c .cfa: x29 32 +
STACK CFI INIT a74c0 74 .cfa: sp 0 +
STACK CFI a74c4 .cfa: sp 48 +
STACK CFI a74d0 .cfa: x29 32 + x19: .cfa -8 + ^ x20: .cfa -16 + ^ .ra: .cfa -24 + ^ x29: .cfa -32 + ^
STACK CFI a751c .cfa: sp 48 +
STACK CFI a7528 .cfa: sp 0 +
STACK CFI a752c .cfa: x29 32 +
STACK CFI INIT a7598 24c .cfa: sp 0 +
STACK CFI a759c .cfa: sp 128 +
STACK CFI a75ac .cfa: x29 48 + x19: .cfa -8 + ^ x20: .cfa -16 + ^ x21: .cfa -24 + ^ x22: .cfa -32 + ^ .ra: .cfa -40 + ^ x29: .cfa -48 + ^
STACK CFI a768c .cfa: sp 128 +
STACK CFI a769c .cfa: sp 0 +
STACK CFI a76a0 .cfa: x29 48 +
STACK CFI INIT a7850 26c .cfa: sp 0 +
STACK CFI a7854 .cfa: sp 128 +
STACK CFI a7864 .cfa: x29 48 + x19: .cfa -8 + ^ x20: .cfa -16 + ^ x21: .cfa -32 + ^ .ra: .cfa -40 + ^ x29: .cfa -48 + ^
STACK CFI a795c .cfa: sp 128 +
STACK CFI a796c .cfa: sp 0 +
STACK CFI a7970 .cfa: x29 48 +
STACK CFI INIT a7b04 22c .cfa: sp 0 +
STACK CFI a7b08 .cfa: sp 128 +
STACK CFI a7b18 .cfa: x29 48 + x19: .cfa -8 + ^ x20: .cfa -16 + ^ x21: .cfa -32 + ^ .ra: .cfa -40 + ^ x29: .cfa -48 + ^
STACK CFI a7bd0 .cfa: sp 128 +
STACK CFI a7be0 .cfa: sp 0 +
STACK CFI a7be4 .cfa: x29 48 +
STACK CFI INIT a7d30 270 .cfa: sp 0 +
STACK CFI a7d34 .cfa: sp 144 +
STACK CFI a7d48 .cfa: x29 64 + x19: .cfa -8 + ^ x20: .cfa -16 + ^ x21: .cfa -24 + ^ x22: .cfa -32 + ^ x23: .cfa -48 + ^ .ra: .cfa -56 + ^ x29: .cfa -64 + ^
STACK CFI a7e44 .cfa: sp 144 +
STACK CFI a7e58 .cfa: sp 0 +
STACK CFI a7e5c .cfa: x29 64 +
STACK CFI INIT a7ff4 294 .cfa: sp 0 +
STACK CFI a7ff8 .cfa: sp 128 +
STACK CFI a8008 .cfa: x29 48 + x19: .cfa -8 + ^ x20: .cfa -16 + ^ x21: .cfa -32 + ^ .ra: .cfa -40 + ^ x29: .cfa -48 + ^
STACK CFI a8128 .cfa: sp 128 +
STACK CFI a8138 .cfa: sp 0 +
STACK CFI a813c .cfa: x29 48 +
STACK CFI INIT a8288 308 .cfa: sp 0 +
STACK CFI a828c .cfa: sp 144 +
STACK CFI a82a0 .cfa: x29 64 + x19: .cfa -8 + ^ x20: .cfa -16 + ^ x21: .cfa -24 + ^ x22: .cfa -32 + ^ x23: .cfa -48 + ^ .ra: .cfa -56 + ^ x29: .cfa -64 + ^
STACK CFI a8434 .cfa: sp 144 +
STACK CFI a8448 .cfa: sp 0 +
STACK CFI a844c .cfa: x29 64 +
STACK CFI INIT a85e4 26c .cfa: sp 0 +
STACK CFI a85e8 .cfa: sp 128 +
STACK CFI a85f8 .cfa: x29 48 + x19: .cfa -8 + ^ x20: .cfa -16 + ^ x21: .cfa -32 + ^ .ra: .cfa -40 + ^ x29: .cfa -48 + ^
STACK CFI a86f0 .cfa: sp 128 +
STACK CFI a8700 .cfa: sp 0 +
STACK CFI a8704 .cfa: x29 48 +
STACK CFI INIT a88a4 268 .cfa: sp 0 +
STACK CFI a88a8 .cfa: sp 128 +
STACK CFI a88b8 .cfa: x29 48 + x19: .cfa -8 + ^ x20: .cfa -16 + ^ x21: .cfa -32 + ^ .ra: .cfa -40 + ^ x29: .cfa -48 + ^
STACK CFI a89ac .cfa: sp 128 +
STACK CFI a89bc .cfa: sp 0 +
STACK CFI a89c0 .cfa: x29 48 +
STACK CFI INIT a8c60 2c0 .cfa: sp 0 +
STACK CFI a8c64 .cfa: sp 144 +
STACK CFI a8c78 .cfa: x29 64 + x19: .cfa -8 + ^ x20: .cfa -16 + ^ x21: .cfa -24 + ^ x22: .cfa -32 + ^ x23: .cfa -48 + ^ .ra: .cfa -56 + ^ x29: .cfa -64 + ^
STACK CFI a8dc4 .cfa: sp 144 +
STACK CFI a8dd8 .cfa: sp 0 +
STACK CFI a8ddc .cfa: x29 64 +
STACK CFI INIT a8f28 174 .cfa: sp 0 +
STACK CFI a8f2c .cfa: sp 128 +
STACK CFI a8f3c .cfa: x29 48 + x19: .cfa -8 + ^ x20: .cfa -16 + ^ x21: .cfa -24 + ^ x22: .cfa -32 + ^ .ra: .cfa -40 + ^ x29: .cfa -48 + ^
STACK CFI a8f98 .cfa: sp 128 +
STACK CFI a8fa8 .cfa: sp 0 +
STACK CFI a8fac .cfa: x29 48 +
STACK CFI INIT a909c a0 .cfa: sp 0 +
STACK CFI a90a0 .cfa: sp 48 +
STACK CFI a90ac .cfa: x29 48 + x19: .cfa -8 + ^ x20: .cfa -16 + ^ x21: .cfa -32 + ^ .ra: .cfa -40 + ^ x29: .cfa -48 + ^
STACK CFI a9114 .cfa: sp 48 +
STACK CFI a9120 .cfa: sp 0 +
STACK CFI a9124 .cfa: x29 48 +
STACK CFI INIT a91c8 2ec .cfa: sp 0 +
STACK CFI a91cc .cfa: sp 144 +
STACK CFI a91e0 .cfa: x29 64 + x19: .cfa -8 + ^ x20: .cfa -16 + ^ x21: .cfa -24 + ^ x22: .cfa -32 + ^ x23: .cfa -48 + ^ .ra: .cfa -56 + ^ x29: .cfa -64 + ^
STACK CFI a9358 .cfa: sp 144 +
STACK CFI a936c .cfa: sp 0 +
STACK CFI a9370 .cfa: x29 64 +
STACK CFI INIT a9508 ac .cfa: sp 0 +
STACK CFI a950c .cfa: sp 32 +
STACK CFI a9514 .cfa: x29 32 + x19: .cfa -8 + ^ x20: .cfa -16 + ^ .ra: .cfa -24 + ^ x29: .cfa -32 + ^
STACK CFI a9584 .cfa: sp 32 +
STACK CFI a958c .cfa: sp 0 +
STACK CFI a9590 .cfa: x29 32 +
STACK CFI INIT a95b4 2c8 .cfa: sp 0 +
STACK CFI a95b8 .cfa: sp 144 +
STACK CFI a95cc .cfa: x29 64 + x19: .cfa -8 + ^ x20: .cfa -16 + ^ x21: .cfa -24 + ^ x22: .cfa -32 + ^ x23: .cfa -48 + ^ .ra: .cfa -56 + ^ x29: .cfa -64 + ^
STACK CFI a9720 .cfa: sp 144 +
STACK CFI a9734 .cfa: sp 0 +
STACK CFI a9738 .cfa: x29 64 +
STACK CFI INIT a9b20 a0 .cfa: sp 0 +
STACK CFI a9b24 .cfa: sp 48 +
STACK CFI a9b30 .cfa: x29 48 + x19: .cfa -8 + ^ x20: .cfa -16 + ^ x21: .cfa -32 + ^ .ra: .cfa -40 + ^ x29: .cfa -48 + ^
STACK CFI a9b98 .cfa: sp 48 +
STACK CFI a9ba4 .cfa: sp 0 +
STACK CFI a9ba8 .cfa: x29 48 +
STACK CFI INIT a9bc0 178 .cfa: sp 0 +
STACK CFI a9bc4 .cfa: sp 128 +
STACK CFI a9bd4 .cfa: x29 48 + x19: .cfa -8 + ^ x20: .cfa -16 + ^ x21: .cfa -24 + ^ x22: .cfa -32 + ^ .ra: .cfa -40 + ^ x29: .cfa -48 + ^
STACK CFI a9c30 .cfa: sp 128 +
STACK CFI a9c40 .cfa: sp 0 +
STACK CFI a9c44 .cfa: x29 48 +
STACK CFI INIT a9d38 2c8 .cfa: sp 0 +
STACK CFI a9d3c .cfa: sp 144 +
STACK CFI a9d50 .cfa: x29 64 + x19: .cfa -8 + ^ x20: .cfa -16 + ^ x21: .cfa -24 + ^ x22: .cfa -32 + ^ x23: .cfa -48 + ^ .ra: .cfa -56 + ^ x29: .cfa -64 + ^
STACK CFI a9ea4 .cfa: sp 144 +
STACK CFI a9eb8 .cfa: sp 0 +
STACK CFI a9ebc .cfa: x29 64 +
STACK CFI INIT aa120 844 .cfa: sp 0 +
STACK CFI aa124 .cfa: sp 144 +
STACK CFI aa138 .cfa: x29 64 + x19: .cfa -8 + ^ x20: .cfa -16 + ^ x21: .cfa -24 + ^ x22: .cfa -32 + ^ x23: .cfa -48 + ^ .ra: .cfa -56 + ^ x29: .cfa -64 + ^
STACK CFI aa794 .cfa: sp 144 +
STACK CFI aa7a8 .cfa: sp 0 +
STACK CFI aa7ac .cfa: x29 64 +
STACK CFI INIT aa964 6f8 .cfa: sp 0 +
STACK CFI aa968 .cfa: sp 80 +
STACK CFI aa97c .cfa: x29 80 + x19: .cfa -8 + ^ x20: .cfa -16 + ^ x21: .cfa -24 + ^ x22: .cfa -32 + ^ x23: .cfa -40 + ^ x24: .cfa -48 + ^ x25: .cfa -56 + ^ x26: .cfa -64 + ^ .ra: .cfa -72 + ^ x29: .cfa -80 + ^
STACK CFI aad74 .cfa: sp 80 +
STACK CFI aad88 .cfa: sp 0 +
STACK CFI aad8c .cfa: x29 80 +
STACK CFI INIT ab0b0 17c .cfa: sp 0 +
STACK CFI ab0b4 .cfa: sp 160 +
STACK CFI ab0cc .cfa: x29 80 + x19: .cfa -8 + ^ x20: .cfa -16 + ^ x21: .cfa -24 + ^ x22: .cfa -32 + ^ x23: .cfa -40 + ^ x24: .cfa -48 + ^ x25: .cfa -56 + ^ x26: .cfa -64 + ^ .ra: .cfa -72 + ^ x29: .cfa -80 + ^
STACK CFI ab134 .cfa: sp 160 +
STACK CFI ab14c .cfa: sp 0 +
STACK CFI ab150 .cfa: x29 80 +
STACK CFI INIT ab22c 3c4 .cfa: sp 0 +
STACK CFI ab230 .cfa: sp 128 +
STACK CFI ab248 .cfa: x29 80 + x19: .cfa -8 + ^ x20: .cfa -16 + ^ x21: .cfa -24 + ^ x22: .cfa -32 + ^ x23: .cfa -40 + ^ x24: .cfa -48 + ^ x25: .cfa -64 + ^ .ra: .cfa -72 + ^ x29: .cfa -80 + ^
STACK CFI ab56c .cfa: sp 128 +
STACK CFI ab584 .cfa: sp 0 +
STACK CFI ab588 .cfa: x29 80 +
STACK CFI INIT ab5f8 18c .cfa: sp 0 +
STACK CFI ab5fc .cfa: sp 176 +
STACK CFI ab618 .cfa: x29 80 + x19: .cfa -8 + ^ x20: .cfa -16 + ^ x21: .cfa -24 + ^ x22: .cfa -32 + ^ x23: .cfa -40 + ^ x24: .cfa -48 + ^ x25: .cfa -56 + ^ x26: .cfa -64 + ^ .ra: .cfa -72 + ^ x29: .cfa -80 + ^ v8: .cfa -96 + ^
STACK CFI ab688 .cfa: sp 176 +
STACK CFI ab6a4 .cfa: sp 0 +
STACK CFI ab6a8 .cfa: x29 80 +
STACK CFI INIT ab784 484 .cfa: sp 0 +
STACK CFI ab788 .cfa: sp 128 +
STACK CFI ab7a0 .cfa: x29 80 + x19: .cfa -8 + ^ x20: .cfa -16 + ^ x21: .cfa -24 + ^ x22: .cfa -32 + ^ x23: .cfa -40 + ^ x24: .cfa -48 + ^ x25: .cfa -64 + ^ .ra: .cfa -72 + ^ x29: .cfa -80 + ^
STACK CFI abb74 .cfa: sp 128 +
STACK CFI abb8c .cfa: sp 0 +
STACK CFI abb90 .cfa: x29 80 +
STACK CFI INIT abc10 16c .cfa: sp 0 +
STACK CFI abc14 .cfa: sp 144 +
STACK CFI abc2c .cfa: x29 56 + x19: .cfa -8 + ^ x20: .cfa -16 + ^ x21: .cfa -24 + ^ x22: .cfa -32 + ^ x23: .cfa -40 + ^ .ra: .cfa -48 + ^ x29: .cfa -56 + ^ v8: .cfa -64 + ^
STACK CFI abc84 .cfa: sp 144 +
STACK CFI abc9c .cfa: sp 0 +
STACK CFI abca0 .cfa: x29 56 +
STACK CFI INIT abd7c 1d0 .cfa: sp 0 +
STACK CFI abd80 .cfa: sp 96 +
STACK CFI abd98 .cfa: x29 80 + x19: .cfa -8 + ^ x20: .cfa -16 + ^ x21: .cfa -24 + ^ x22: .cfa -32 + ^ x23: .cfa -40 + ^ x24: .cfa -48 + ^ x25: .cfa -64 + ^ .ra: .cfa -72 + ^ x29: .cfa -80 + ^
STACK CFI abef0 .cfa: sp 96 +
STACK CFI abf08 .cfa: sp 0 +
STACK CFI abf0c .cfa: x29 80 +
STACK CFI INIT abf54 15c .cfa: sp 0 +
STACK CFI abf58 .cfa: sp 144 +
STACK CFI abf6c .cfa: x29 64 + x19: .cfa -8 + ^ x20: .cfa -16 + ^ x21: .cfa -24 + ^ x22: .cfa -32 + ^ x23: .cfa -48 + ^ .ra: .cfa -56 + ^ x29: .cfa -64 + ^
STACK CFI abfbc .cfa: sp 144 +
STACK CFI abfd0 .cfa: sp 0 +
STACK CFI abfd4 .cfa: x29 64 +
STACK CFI INIT ac0b0 f0 .cfa: sp 0 +
STACK CFI ac0b4 .cfa: sp 64 +
STACK CFI ac0c4 .cfa: x29 48 + x19: .cfa -8 + ^ x20: .cfa -16 + ^ x21: .cfa -24 + ^ x22: .cfa -32 + ^ .ra: .cfa -40 + ^ x29: .cfa -48 + ^
STACK CFI ac168 .cfa: sp 64 +
STACK CFI ac178 .cfa: sp 0 +
STACK CFI ac17c .cfa: x29 48 +
STACK CFI INIT ac1b8 174 .cfa: sp 0 +
STACK CFI ac1bc .cfa: sp 160 +
STACK CFI ac1d4 .cfa: x29 80 + x19: .cfa -8 + ^ x20: .cfa -16 + ^ x21: .cfa -24 + ^ x22: .cfa -32 + ^ x23: .cfa -40 + ^ x24: .cfa -48 + ^ x25: .cfa -64 + ^ .ra: .cfa -72 + ^ x29: .cfa -80 + ^
STACK CFI ac234 .cfa: sp 160 +
STACK CFI ac24c .cfa: sp 0 +
STACK CFI ac250 .cfa: x29 80 +
STACK CFI INIT ac32c 314 .cfa: sp 0 +
STACK CFI ac330 .cfa: sp 96 +
STACK CFI ac348 .cfa: x29 80 + x19: .cfa -8 + ^ x20: .cfa -16 + ^ x21: .cfa -24 + ^ x22: .cfa -32 + ^ x23: .cfa -40 + ^ x24: .cfa -48 + ^ x25: .cfa -64 + ^ .ra: .cfa -72 + ^ x29: .cfa -80 + ^
STACK CFI ac5cc .cfa: sp 96 +
STACK CFI ac5e4 .cfa: sp 0 +
STACK CFI ac5e8 .cfa: x29 80 +
STACK CFI INIT ac640 18c .cfa: sp 0 +
STACK CFI ac644 .cfa: sp 176 +
STACK CFI ac660 .cfa: x29 96 + x19: .cfa -8 + ^ x20: .cfa -16 + ^ x21: .cfa -24 + ^ x22: .cfa -32 + ^ x23: .cfa -40 + ^ x24: .cfa -48 + ^ x25: .cfa -56 + ^ x26: .cfa -64 + ^ x27: .cfa -80 + ^ .ra: .cfa -88 + ^ x29: .cfa -96 + ^
STACK CFI ac6d0 .cfa: sp 176 +
STACK CFI ac6ec .cfa: sp 0 +
STACK CFI ac6f0 .cfa: x29 96 +
STACK CFI INIT ac7cc 494 .cfa: sp 0 +
STACK CFI ac7d0 .cfa: sp 96 +
STACK CFI ac7e8 .cfa: x29 80 + x19: .cfa -8 + ^ x20: .cfa -16 + ^ x21: .cfa -24 + ^ x22: .cfa -32 + ^ x23: .cfa -40 + ^ x24: .cfa -48 + ^ x25: .cfa -64 + ^ .ra: .cfa -72 + ^ x29: .cfa -80 + ^
STACK CFI acbcc .cfa: sp 96 +
STACK CFI acbe4 .cfa: sp 0 +
STACK CFI acbe8 .cfa: x29 80 +
STACK CFI INIT acc60 15c .cfa: sp 0 +
STACK CFI acc64 .cfa: sp 144 +
STACK CFI acc78 .cfa: x29 64 + x19: .cfa -8 + ^ x20: .cfa -16 + ^ x21: .cfa -24 + ^ x22: .cfa -32 + ^ x23: .cfa -48 + ^ .ra: .cfa -56 + ^ x29: .cfa -64 + ^
STACK CFI accc8 .cfa: sp 144 +
STACK CFI accdc .cfa: sp 0 +
STACK CFI acce0 .cfa: x29 64 +
STACK CFI INIT acdbc f0 .cfa: sp 0 +
STACK CFI acdc0 .cfa: sp 64 +
STACK CFI acdd0 .cfa: x29 48 + x19: .cfa -8 + ^ x20: .cfa -16 + ^ x21: .cfa -24 + ^ x22: .cfa -32 + ^ .ra: .cfa -40 + ^ x29: .cfa -48 + ^
STACK CFI ace74 .cfa: sp 64 +
STACK CFI ace84 .cfa: sp 0 +
STACK CFI ace88 .cfa: x29 48 +
STACK CFI INIT aceac 384 .cfa: sp 0 +
STACK CFI aceb0 .cfa: sp 144 +
STACK CFI acec4 .cfa: x29 64 + x19: .cfa -8 + ^ x20: .cfa -16 + ^ x21: .cfa -24 + ^ x22: .cfa -32 + ^ x23: .cfa -48 + ^ .ra: .cfa -56 + ^ x29: .cfa -64 + ^
STACK CFI ad0d4 .cfa: sp 144 +
STACK CFI ad0e8 .cfa: sp 0 +
STACK CFI ad0ec .cfa: x29 64 +
STACK CFI INIT ad29c 15c .cfa: sp 0 +
STACK CFI ad2a0 .cfa: sp 144 +
STACK CFI ad2b4 .cfa: x29 64 + x19: .cfa -8 + ^ x20: .cfa -16 + ^ x21: .cfa -24 + ^ x22: .cfa -32 + ^ x23: .cfa -48 + ^ .ra: .cfa -56 + ^ x29: .cfa -64 + ^
STACK CFI ad304 .cfa: sp 144 +
STACK CFI ad318 .cfa: sp 0 +
STACK CFI ad31c .cfa: x29 64 +
STACK CFI INIT ad3f8 f0 .cfa: sp 0 +
STACK CFI ad3fc .cfa: sp 64 +
STACK CFI ad40c .cfa: x29 48 + x19: .cfa -8 + ^ x20: .cfa -16 + ^ x21: .cfa -24 + ^ x22: .cfa -32 + ^ .ra: .cfa -40 + ^ x29: .cfa -48 + ^
STACK CFI ad4b0 .cfa: sp 64 +
STACK CFI ad4c0 .cfa: sp 0 +
STACK CFI ad4c4 .cfa: x29 48 +
STACK CFI INIT ad5d8 2ec .cfa: sp 0 +
STACK CFI ad5dc .cfa: sp 144 +
STACK CFI ad5f0 .cfa: x29 64 + x19: .cfa -8 + ^ x20: .cfa -16 + ^ x21: .cfa -24 + ^ x22: .cfa -32 + ^ x23: .cfa -48 + ^ .ra: .cfa -56 + ^ x29: .cfa -64 + ^
STACK CFI ad768 .cfa: sp 144 +
STACK CFI ad77c .cfa: sp 0 +
STACK CFI ad780 .cfa: x29 64 +
STACK CFI INIT ad8c4 2f8 .cfa: sp 0 +
STACK CFI ad8c8 .cfa: sp 144 +
STACK CFI ad8dc .cfa: x29 64 + x19: .cfa -8 + ^ x20: .cfa -16 + ^ x21: .cfa -24 + ^ x22: .cfa -32 + ^ x23: .cfa -48 + ^ .ra: .cfa -56 + ^ x29: .cfa -64 + ^
STACK CFI ada60 .cfa: sp 144 +
STACK CFI ada74 .cfa: sp 0 +
STACK CFI ada78 .cfa: x29 64 +
STACK CFI INIT adbbc 2a8 .cfa: sp 0 +
STACK CFI adbc0 .cfa: sp 144 +
STACK CFI adbd4 .cfa: x29 64 + x19: .cfa -8 + ^ x20: .cfa -16 + ^ x21: .cfa -24 + ^ x22: .cfa -32 + ^ x23: .cfa -48 + ^ .ra: .cfa -56 + ^ x29: .cfa -64 + ^
STACK CFI add08 .cfa: sp 144 +
STACK CFI add1c .cfa: sp 0 +
STACK CFI add20 .cfa: x29 64 +
STACK CFI INIT ade64 2ec .cfa: sp 0 +
STACK CFI ade68 .cfa: sp 144 +
STACK CFI ade7c .cfa: x29 64 + x19: .cfa -8 + ^ x20: .cfa -16 + ^ x21: .cfa -24 + ^ x22: .cfa -32 + ^ x23: .cfa -48 + ^ .ra: .cfa -56 + ^ x29: .cfa -64 + ^
STACK CFI adff4 .cfa: sp 144 +
STACK CFI ae008 .cfa: sp 0 +
STACK CFI ae00c .cfa: x29 64 +
STACK CFI INIT ae150 4c4 .cfa: sp 0 +
STACK CFI ae154 .cfa: sp 144 +
STACK CFI ae168 .cfa: x29 64 + x19: .cfa -8 + ^ x20: .cfa -16 + ^ x21: .cfa -24 + ^ x22: .cfa -32 + ^ x23: .cfa -48 + ^ .ra: .cfa -56 + ^ x29: .cfa -64 + ^
STACK CFI ae464 .cfa: sp 144 +
STACK CFI ae478 .cfa: sp 0 +
STACK CFI ae47c .cfa: x29 64 +
STACK CFI INIT ae614 154 .cfa: sp 0 +
STACK CFI ae618 .cfa: sp 384 +
STACK CFI ae62c .cfa: x29 64 + x19: .cfa -8 + ^ x20: .cfa -16 + ^ x21: .cfa -24 + ^ x22: .cfa -32 + ^ x23: .cfa -40 + ^ x28: .cfa -48 + ^ .ra: .cfa -56 + ^ x29: .cfa -64 + ^
STACK CFI ae710 .cfa: sp 384 +
STACK CFI ae724 .cfa: sp 0 +
STACK CFI ae728 .cfa: x29 64 +
STACK CFI INIT ae780 43c .cfa: sp 0 +
STACK CFI ae784 .cfa: sp 64 +
STACK CFI ae794 .cfa: x29 64 + x19: .cfa -8 + ^ x20: .cfa -16 + ^ x21: .cfa -24 + ^ x22: .cfa -32 + ^ x23: .cfa -40 + ^ x24: .cfa -48 + ^ .ra: .cfa -56 + ^ x29: .cfa -64 + ^
STACK CFI aeb4c .cfa: sp 64 +
STACK CFI aeb5c .cfa: sp 0 +
STACK CFI aeb60 .cfa: x29 64 +
STACK CFI INIT aeeec 294 .cfa: sp 0 +
STACK CFI aeef0 .cfa: sp 240 +
STACK CFI aef08 .cfa: x29 80 + x19: .cfa -8 + ^ x20: .cfa -16 + ^ x21: .cfa -24 + ^ x22: .cfa -32 + ^ x23: .cfa -40 + ^ x24: .cfa -48 + ^ x25: .cfa -64 + ^ .ra: .cfa -72 + ^ x29: .cfa -80 + ^
STACK CFI af0a8 .cfa: sp 240 +
STACK CFI af0c0 .cfa: sp 0 +
STACK CFI af0c4 .cfa: x29 80 +
STACK CFI INIT af1f0 50 .cfa: sp 0 +
STACK CFI af1f4 .cfa: sp 32 +
STACK CFI af1fc .cfa: x29 32 + x19: .cfa -8 + ^ x20: .cfa -16 + ^ .ra: .cfa -24 + ^ x29: .cfa -32 + ^
STACK CFI INIT af26c 750 .cfa: sp 0 +
STACK CFI af270 .cfa: sp 320 +
STACK CFI af28c .cfa: x29 96 + x19: .cfa -8 + ^ x20: .cfa -16 + ^ x21: .cfa -24 + ^ x22: .cfa -32 + ^ x23: .cfa -40 + ^ x24: .cfa -48 + ^ x25: .cfa -56 + ^ x26: .cfa -64 + ^ x27: .cfa -72 + ^ x28: .cfa -80 + ^ .ra: .cfa -88 + ^ x29: .cfa -96 + ^
STACK CFI af878 .cfa: sp 320 +
STACK CFI af894 .cfa: sp 0 +
STACK CFI af898 .cfa: x29 96 +
STACK CFI INIT afa20 13c .cfa: sp 0 +
STACK CFI afa24 .cfa: sp 80 +
STACK CFI afa38 .cfa: x29 80 + x19: .cfa -8 + ^ x20: .cfa -16 + ^ x21: .cfa -24 + ^ x22: .cfa -32 + ^ x23: .cfa -40 + ^ x24: .cfa -48 + ^ x28: .cfa -64 + ^ .ra: .cfa -72 + ^ x29: .cfa -80 + ^
STACK CFI afb10 .cfa: sp 80 +
STACK CFI afb24 .cfa: sp 0 +
STACK CFI afb28 .cfa: x29 80 +
STACK CFI INIT b3ab8 c2c .cfa: sp 0 +
STACK CFI b3abc .cfa: sp 96 +
STACK CFI b3ad4 .cfa: x29 96 + x19: .cfa -8 + ^ x20: .cfa -16 + ^ x21: .cfa -24 + ^ x22: .cfa -32 + ^ x23: .cfa -40 + ^ x24: .cfa -48 + ^ x25: .cfa -56 + ^ x26: .cfa -64 + ^ x27: .cfa -72 + ^ x28: .cfa -80 + ^ .ra: .cfa -88 + ^ x29: .cfa -96 + ^
STACK CFI b45a4 .cfa: sp 96 +
STACK CFI b45bc .cfa: sp 0 +
STACK CFI b45c0 .cfa: x29 96 +
STACK CFI INIT b4838 234 .cfa: sp 0 +
STACK CFI b483c .cfa: sp 128 +
STACK CFI b484c .cfa: x29 48 + x19: .cfa -8 + ^ x20: .cfa -16 + ^ x21: .cfa -24 + ^ x22: .cfa -32 + ^ .ra: .cfa -40 + ^ x29: .cfa -48 + ^
STACK CFI b49d0 .cfa: sp 128 +
STACK CFI b49e0 .cfa: sp 0 +
STACK CFI b49e4 .cfa: x29 48 +
STACK CFI INIT b4dd0 3a4 .cfa: sp 0 +
STACK CFI b4dd4 .cfa: sp 96 +
STACK CFI b4dec .cfa: x29 96 + x19: .cfa -8 + ^ x20: .cfa -16 + ^ x21: .cfa -24 + ^ x22: .cfa -32 + ^ x23: .cfa -40 + ^ x24: .cfa -48 + ^ x25: .cfa -56 + ^ x26: .cfa -64 + ^ x27: .cfa -72 + ^ x28: .cfa -80 + ^ .ra: .cfa -88 + ^ x29: .cfa -96 + ^
STACK CFI b5114 .cfa: sp 96 +
STACK CFI b512c .cfa: sp 0 +
STACK CFI b5130 .cfa: x29 96 +
STACK CFI INIT b5214 c68 .cfa: sp 0 +
STACK CFI b5218 .cfa: sp 96 +
STACK CFI b5230 .cfa: x29 96 + x19: .cfa -8 + ^ x20: .cfa -16 + ^ x21: .cfa -24 + ^ x22: .cfa -32 + ^ x23: .cfa -40 + ^ x24: .cfa -48 + ^ x25: .cfa -56 + ^ x26: .cfa -64 + ^ x27: .cfa -72 + ^ x28: .cfa -80 + ^ .ra: .cfa -88 + ^ x29: .cfa -96 + ^
STACK CFI b5d30 .cfa: sp 96 +
STACK CFI b5d48 .cfa: sp 0 +
STACK CFI b5d4c .cfa: x29 96 +
STACK CFI INIT b6164 ab8 .cfa: sp 0 +
STACK CFI b6168 .cfa: sp 96 +
STACK CFI b6180 .cfa: x29 96 + x19: .cfa -8 + ^ x20: .cfa -16 + ^ x21: .cfa -24 + ^ x22: .cfa -32 + ^ x23: .cfa -40 + ^ x24: .cfa -48 + ^ x25: .cfa -56 + ^ x26: .cfa -64 + ^ x27: .cfa -72 + ^ x28: .cfa -80 + ^ .ra: .cfa -88 + ^ x29: .cfa -96 + ^
STACK CFI b6b90 .cfa: sp 96 +
STACK CFI b6ba8 .cfa: sp 0 +
STACK CFI b6bac .cfa: x29 96 +
STACK CFI INIT b6df8 133c .cfa: sp 0 +
STACK CFI b6dfc .cfa: sp 96 +
STACK CFI b6e14 .cfa: x29 96 + x19: .cfa -8 + ^ x20: .cfa -16 + ^ x21: .cfa -24 + ^ x22: .cfa -32 + ^ x23: .cfa -40 + ^ x24: .cfa -48 + ^ x25: .cfa -56 + ^ x26: .cfa -64 + ^ x27: .cfa -72 + ^ x28: .cfa -80 + ^ .ra: .cfa -88 + ^ x29: .cfa -96 + ^
STACK CFI b8008 .cfa: sp 96 +
STACK CFI b8020 .cfa: sp 0 +
STACK CFI b8024 .cfa: x29 96 +
STACK CFI INIT b8258 744 .cfa: sp 0 +
STACK CFI b825c .cfa: sp 368 +
STACK CFI b8278 .cfa: x29 96 + x19: .cfa -8 + ^ x20: .cfa -16 + ^ x21: .cfa -24 + ^ x22: .cfa -32 + ^ x23: .cfa -40 + ^ x24: .cfa -48 + ^ x25: .cfa -56 + ^ x26: .cfa -64 + ^ x27: .cfa -72 + ^ x28: .cfa -80 + ^ .ra: .cfa -88 + ^ x29: .cfa -96 + ^
STACK CFI b8314 .cfa: sp 368 +
STACK CFI b8330 .cfa: sp 0 +
STACK CFI b8334 .cfa: x29 96 +
STACK CFI b8388 .cfa: sp 368 +
STACK CFI b83a4 .cfa: sp 0 +
STACK CFI b83a8 .cfa: x29 96 +
STACK CFI INIT b8d34 e80 .cfa: sp 0 +
STACK CFI b8d38 .cfa: sp 96 +
STACK CFI b8d50 .cfa: x29 96 + x19: .cfa -8 + ^ x20: .cfa -16 + ^ x21: .cfa -24 + ^ x22: .cfa -32 + ^ x23: .cfa -40 + ^ x24: .cfa -48 + ^ x25: .cfa -56 + ^ x26: .cfa -64 + ^ x27: .cfa -72 + ^ x28: .cfa -80 + ^ .ra: .cfa -88 + ^ x29: .cfa -96 + ^
STACK CFI b99c8 .cfa: sp 96 +
STACK CFI b99e0 .cfa: sp 0 +
STACK CFI b99e4 .cfa: x29 96 +
STACK CFI INIT b9f28 1c20 .cfa: sp 0 +
STACK CFI b9f2c .cfa: sp 112 +
STACK CFI b9f48 .cfa: x29 96 + x19: .cfa -8 + ^ x20: .cfa -16 + ^ x21: .cfa -24 + ^ x22: .cfa -32 + ^ x23: .cfa -40 + ^ x24: .cfa -48 + ^ x25: .cfa -56 + ^ x26: .cfa -64 + ^ x27: .cfa -72 + ^ x28: .cfa -80 + ^ .ra: .cfa -88 + ^ x29: .cfa -96 + ^ v8: .cfa -112 + ^
STACK CFI ba340 .cfa: sp 112 +
STACK CFI ba35c .cfa: sp 0 +
STACK CFI ba360 .cfa: x29 96 +
STACK CFI INIT be1f8 a14 .cfa: sp 0 +
STACK CFI be1fc .cfa: sp 144 +
STACK CFI be214 .cfa: x29 80 + x19: .cfa -8 + ^ x20: .cfa -16 + ^ x21: .cfa -24 + ^ x22: .cfa -32 + ^ x23: .cfa -40 + ^ x24: .cfa -48 + ^ x25: .cfa -64 + ^ .ra: .cfa -72 + ^ x29: .cfa -80 + ^
STACK CFI beb74 .cfa: sp 144 +
STACK CFI beb8c .cfa: sp 0 +
STACK CFI beb90 .cfa: x29 80 +
STACK CFI INIT bfc00 570 .cfa: sp 0 +
STACK CFI bfc04 .cfa: sp 96 +
STACK CFI bfc1c .cfa: x29 96 + x19: .cfa -8 + ^ x20: .cfa -16 + ^ x21: .cfa -24 + ^ x22: .cfa -32 + ^ x23: .cfa -40 + ^ x24: .cfa -48 + ^ x25: .cfa -56 + ^ x26: .cfa -64 + ^ x27: .cfa -72 + ^ x28: .cfa -80 + ^ .ra: .cfa -88 + ^ x29: .cfa -96 + ^
STACK CFI c00d4 .cfa: sp 96 +
STACK CFI c00ec .cfa: sp 0 +
STACK CFI c00f0 .cfa: x29 96 +
STACK CFI INIT c0170 664 .cfa: sp 0 +
STACK CFI c0174 .cfa: sp 96 +
STACK CFI c018c .cfa: x29 96 + x19: .cfa -8 + ^ x20: .cfa -16 + ^ x21: .cfa -24 + ^ x22: .cfa -32 + ^ x23: .cfa -40 + ^ x24: .cfa -48 + ^ x25: .cfa -56 + ^ x26: .cfa -64 + ^ x27: .cfa -72 + ^ x28: .cfa -80 + ^ .ra: .cfa -88 + ^ x29: .cfa -96 + ^
STACK CFI c0738 .cfa: sp 96 +
STACK CFI c0750 .cfa: sp 0 +
STACK CFI c0754 .cfa: x29 96 +
