MODULE Linux arm64 0EAAF7553682FE97F1B61EFEAB634D5E0 adyagd.godlikefaces.android64.so
INFO CODE_ID 55F7AA0E823697FEF1B61EFEAB634D5E9069340C
INFO GENERATOR mozilla/dump_syms 2.3.4
PUBLIC 67a0 0 __on_dlclose
PUBLIC 67b0 0 __emutls_unregister_key
PUBLIC 67b8 0 __on_dlclose_late
PUBLIC 67c0 0 __atexit_handler_wrapper
PUBLIC 67d4 0 atexit
PUBLIC 67f0 0 pthread_atfork
PUBLIC 6800 0 __aarch64_ldadd8_relax
PUBLIC 6830 0 init_have_lse_atomics
PUBLIC 68c8 0 __init_cpu_features_constructor
PUBLIC 6e64 0 __init_cpu_features
PUBLIC 6ef0 0 __aarch64_ldadd8_acq_rel
PUBLIC 6f20 0 __cxx_global_var_init
PUBLIC 7af4 0 geode::modifier::ModifyBase<geode::modifier::ModifyDerive<GFDifficultySprite, GJDifficultySprite> >::~ModifyBase()
PUBLIC 7b0c 0 geode::modifier::ModifyDerive<GFDifficultySprite, GJDifficultySprite>::apply()
PUBLIC 844c 0 std::__ndk1::shared_ptr<geode::Hook>::~shared_ptr[abi:ne180000]()
PUBLIC 849c 0 geode::impl::ResultData<geode::Hook*, std::__ndk1::basic_string<char, std::__ndk1::char_traits<char>, std::__ndk1::allocator<char> > >::~ResultData()
PUBLIC 8510 0 std::__ndk1::vector<std::__ndk1::basic_string<char, std::__ndk1::char_traits<char>, std::__ndk1::allocator<char> >, std::__ndk1::allocator<std::__ndk1::basic_string<char, std::__ndk1::char_traits<char>, std::__ndk1::allocator<char> > > >::~vector[abi:ne180000]()
PUBLIC 858c 0 geode::modifier::ModifyBase<geode::modifier::ModifyDerive<GFDifficultySprite, GJDifficultySprite> >::apply()
PUBLIC 8590 0 __clang_call_terminate
PUBLIC 85a0 0 _ZN5geode15UnwrapExceptionC2IRPNS_4HookEQsr4implE18IsStringStreamableIT_EEENS_4impl5OkTagEOS5_
PUBLIC 8c9c 0 std::__ndk1::__throw_bad_variant_access[abi:ne180000]()
PUBLIC m 8cd0 0 std::__ndk1::basic_stringstream<char, std::__ndk1::char_traits<char>, std::__ndk1::allocator<char> >::~basic_stringstream()
PUBLIC 8d50 0 geode::UnwrapException::~UnwrapException()
PUBLIC 8d74 0 std::__ndk1::basic_string<char, std::__ndk1::char_traits<char>, std::__ndk1::allocator<char> >::__throw_length_error[abi:ne180000]() const
PUBLIC 8d88 0 std::__ndk1::__throw_length_error[abi:ne180000](char const*)
PUBLIC 8dd8 0 std::length_error::length_error[abi:ne180000](char const*)
PUBLIC 8e08 0 std::__throw_bad_array_new_length([abi:ne180000], void)
PUBLIC 8e3c 0 std::__ndk1::basic_string<char, std::__ndk1::char_traits<char>, std::__ndk1::allocator<char> >::__init_copy_ctor_external(char const*, unsigned long)
PUBLIC 8ebc 0 std::__ndk1::__split_buffer<std::__ndk1::basic_string<char, std::__ndk1::char_traits<char>, std::__ndk1::allocator<char> >, std::__ndk1::allocator<std::__ndk1::basic_string<char, std::__ndk1::char_traits<char>, std::__ndk1::allocator<char> > >&>::~__split_buffer()
PUBLIC 8f24 0 std::__ndk1::vector<std::__ndk1::basic_string<char, std::__ndk1::char_traits<char>, std::__ndk1::allocator<char> >, std::__ndk1::allocator<std::__ndk1::basic_string<char, std::__ndk1::char_traits<char>, std::__ndk1::allocator<char> > > >::__throw_length_error[abi:ne180000]() const
PUBLIC 8f38 0 std::__ndk1::__variant_detail::__visitation::__base::__dispatcher<(unsigned long)0>::__dispatch[abi:ne180000]<std::__ndk1::__variant_detail::__dtor<std::__ndk1::__variant_detail::__traits<geode::Hook*, std::__ndk1::basic_string<char, std::__ndk1::char_traits<char>, std::__ndk1::allocator<char> > >, (std::__ndk1::__variant_detail::_Trait)1>::__destroy[abi:ne180000]()::{lambda(auto:1&)#1}, std::__ndk1::__variant_detail::__base<(std::__ndk1::__variant_detail::__traits<geode::Hook*, std::__ndk1::basic_string<char, std::__ndk1::char_traits<char>, std::__ndk1::allocator<char> > >)1, geode::Hook, std::__ndk1::allocator<char> >&>(std::__ndk1::__variant_detail::__dtor<std::__ndk1::__variant_detail::__traits<geode::Hook*, std::__ndk1::basic_string<char, std::__ndk1::char_traits<char>, std::__ndk1::allocator<char> > >, (std::__ndk1::__variant_detail::_Trait)1>, std::__ndk1::__variant_detail::__base<(std::__ndk1::__variant_detail::__traits<geode::Hook*, std::__ndk1::basic_string<char, std::__ndk1::char_traits<char>, std::__ndk1::allocator<char> > >)1, geode::Hook, std::__ndk1::allocator<char> >&)
PUBLIC 8f3c 0 std::__ndk1::__variant_detail::__visitation::__base::__dispatcher<(unsigned long)1>::__dispatch[abi:ne180000]<std::__ndk1::__variant_detail::__dtor<std::__ndk1::__variant_detail::__traits<geode::Hook*, std::__ndk1::basic_string<char, std::__ndk1::char_traits<char>, std::__ndk1::allocator<char> > >, (std::__ndk1::__variant_detail::_Trait)1>::__destroy[abi:ne180000]()::{lambda(auto:1&)#1}, std::__ndk1::__variant_detail::__base<(std::__ndk1::__variant_detail::__traits<geode::Hook*, std::__ndk1::basic_string<char, std::__ndk1::char_traits<char>, std::__ndk1::allocator<char> > >)1, geode::Hook, std::__ndk1::allocator<char> >&>(std::__ndk1::__variant_detail::__dtor<std::__ndk1::__variant_detail::__traits<geode::Hook*, std::__ndk1::basic_string<char, std::__ndk1::char_traits<char>, std::__ndk1::allocator<char> > >, (std::__ndk1::__variant_detail::_Trait)1>, std::__ndk1::__variant_detail::__base<(std::__ndk1::__variant_detail::__traits<geode::Hook*, std::__ndk1::basic_string<char, std::__ndk1::char_traits<char>, std::__ndk1::allocator<char> > >)1, geode::Hook, std::__ndk1::allocator<char> >&)
PUBLIC 8f50 0 std::__ndk1::__tree<std::__ndk1::__value_type<std::__ndk1::basic_string<char, std::__ndk1::char_traits<char>, std::__ndk1::allocator<char> >, std::__ndk1::shared_ptr<geode::Hook> >, std::__ndk1::__map_value_compare<std::__ndk1::basic_string<char, std::__ndk1::char_traits<char>, std::__ndk1::allocator<char> >, std::__ndk1::__value_type<std::__ndk1::basic_string<char, std::__ndk1::char_traits<char>, std::__ndk1::allocator<char> >, std::__ndk1::shared_ptr<geode::Hook> >, std::__ndk1::less<std::__ndk1::basic_string<char, std::__ndk1::char_traits<char>, std::__ndk1::allocator<char> > >, true>, std::__ndk1::allocator<std::__ndk1::__value_type<std::__ndk1::basic_string<char, std::__ndk1::char_traits<char>, std::__ndk1::allocator<char> >, std::__ndk1::shared_ptr<geode::Hook> > > >::destroy(std::__ndk1::__tree_node<std::__ndk1::__value_type<std::__ndk1::basic_string<char, std::__ndk1::char_traits<char>, std::__ndk1::allocator<char> >, std::__ndk1::shared_ptr<geode::Hook> >, void*>*)
PUBLIC 8fd4 0 geode::modifier::AsStaticFunction_create<GFDifficultySprite, GJDifficultySprite* (*)(int, GJDifficultyName)>::Impl<GJDifficultySprite* (*)(int, GJDifficultyName)>::function(int, GJDifficultyName)
PUBLIC 902c 0 geode::modifier::AsStaticFunction_updateDifficultyFrame<GFDifficultySprite, void (GFDifficultySprite::*)(int, GJDifficultyName)>::Impl<void (GFDifficultySprite::*)(int, GJDifficultyName)>::function(GFDifficultySprite*, int, GJDifficultyName)
PUBLIC 9084 0 geode::modifier::AsStaticFunction_updateFeatureState<GFDifficultySprite, void (GFDifficultySprite::*)(GJFeatureState)>::Impl<void (GFDifficultySprite::*)(GJFeatureState)>::function(GFDifficultySprite*, GJFeatureState)
PUBLIC 90a8 0 std::__ndk1::shared_ptr<tulip::hook::CallingConvention>::~shared_ptr[abi:ne180000]()
PUBLIC 90f8 0 tulip::hook::HandlerMetadata::~HandlerMetadata()
PUBLIC 915c 0 geode::modifier::FieldIntermediate<GFDifficultySprite, GJDifficultySprite>::self()
PUBLIC 9798 0 geode::modifier::FieldIntermediate<GFDifficultySprite, GJDifficultySprite>::fieldDestructor(void*)
PUBLIC 979c 0 std::__ndk1::vector<void*, std::__ndk1::allocator<void*> >::__throw_length_error[abi:ne180000]() const
PUBLIC 97b0 0 std::__ndk1::vector<std::__ndk1::function<void (void*)>, std::__ndk1::allocator<std::__ndk1::function<void (void*)> > >::__throw_length_error[abi:ne180000]() const
PUBLIC 97c4 0 std::__ndk1::vector<void*, std::__ndk1::allocator<void*> >::__throw_out_of_range[abi:ne180000]() const
PUBLIC 97d0 0 std::__ndk1::__throw_out_of_range[abi:ne180000](char const*)
PUBLIC 9818 0 std::out_of_range::out_of_range[abi:ne180000](char const*)
PUBLIC 9850 0 std::__ndk1::vector<std::__ndk1::function<void (void*)>, std::__ndk1::allocator<std::__ndk1::function<void (void*)> > >::__throw_out_of_range[abi:ne180000]() const
PUBLIC 985c 0 std::__ndk1::__function::__base<void (void*)>::~__base()
PUBLIC 9860 0 std::__ndk1::__function::__func<void (*)(void*), std::__ndk1::allocator<void (*)(void*)>, void (void*)>::~__func()
PUBLIC 9864 0 std::__ndk1::__function::__func<void (*)(void*), std::__ndk1::allocator<void (*)(void*)>, void (void*)>::__clone() const
PUBLIC 989c 0 std::__ndk1::__function::__func<void (*)(void*), std::__ndk1::allocator<void (*)(void*)>, void (void*)>::__clone(std::__ndk1::__function::__base<void (void*)>*) const
PUBLIC 98b4 0 std::__ndk1::__function::__func<void (*)(void*), std::__ndk1::allocator<void (*)(void*)>, void (void*)>::destroy()
PUBLIC 98b8 0 std::__ndk1::__function::__func<void (*)(void*), std::__ndk1::allocator<void (*)(void*)>, void (void*)>::destroy_deallocate()
PUBLIC 98bc 0 std::__ndk1::__function::__func<void (*)(void*), std::__ndk1::allocator<void (*)(void*)>, void (void*)>::operator()(void*&&)
PUBLIC 98cc 0 std::__ndk1::__function::__func<void (*)(void*), std::__ndk1::allocator<void (*)(void*)>, void (void*)>::target(std::type_info const&) const
PUBLIC 98e8 0 std::__ndk1::__function::__func<void (*)(void*), std::__ndk1::allocator<void (*)(void*)>, void (void*)>::target_type() const
PUBLIC 98f4 0 std::__ndk1::__tree<std::__ndk1::__value_type<std::__ndk1::basic_string<char, std::__ndk1::char_traits<char>, std::__ndk1::allocator<char> >, std::__ndk1::shared_ptr<geode::Hook> >, std::__ndk1::__map_value_compare<std::__ndk1::basic_string<char, std::__ndk1::char_traits<char>, std::__ndk1::allocator<char> >, std::__ndk1::__value_type<std::__ndk1::basic_string<char, std::__ndk1::char_traits<char>, std::__ndk1::allocator<char> >, std::__ndk1::shared_ptr<geode::Hook> >, std::__ndk1::less<std::__ndk1::basic_string<char, std::__ndk1::char_traits<char>, std::__ndk1::allocator<char> > >, true>, std::__ndk1::allocator<std::__ndk1::__value_type<std::__ndk1::basic_string<char, std::__ndk1::char_traits<char>, std::__ndk1::allocator<char> >, std::__ndk1::shared_ptr<geode::Hook> > > >::__emplace_unique_key_args<std::__ndk1::basic_string<char, std::__ndk1::char_traits<char>, std::__ndk1::allocator<char> >, std::__ndk1::piecewise_construct_t const&, std::__ndk1::tuple<std::__ndk1::basic_string<char, std::__ndk1::char_traits<char>, std::__ndk1::allocator<char> >&&>, std::__ndk1::tuple<> >(std::__ndk1::basic_string<char, std::__ndk1::char_traits<char>, std::__ndk1::allocator<char> > const&, std::__ndk1::piecewise_construct_t const&, std::__ndk1::tuple<std::__ndk1::basic_string<char, std::__ndk1::char_traits<char>, std::__ndk1::allocator<char> >&&>, std::__ndk1::tuple<>)
PUBLIC 9c08 0 GFDifficultySprite::specialTexturesCheck()
PUBLIC m 9e64 0 geodeImplicitEntry
PUBLIC 9ea0 0 __udivti3
PUBLIC 9eac 0 __udivmodti4
PUBLIC m a0f8 0 __eqtf2
PUBLIC a198 0 __unordtf2
PUBLIC a1d0 0 fmt::v11::detail::write_loc(fmt::v11::basic_appender<char>, fmt::v11::loc_value, fmt::v11::format_specs const&, fmt::v11::detail::locale_ref)
PUBLIC a464 0 fmt::v11::format_facet<std::__ndk1::locale>::~format_facet()
PUBLIC a4e0 0 fmt::v11::report_error(char const*)
PUBLIC a530 0 fmt::v11::format_error::runtime_error(char const*)
PUBLIC a55c 0 fmt::v11::format_facet<std::__ndk1::locale>::do_put(fmt::v11::basic_appender<char>, fmt::v11::loc_value, fmt::v11::format_specs const&) const
PUBLIC ad1c 0 fmt::v11::detail::loc_writer<char>::~loc_writer()
PUBLIC ad80 0 fmt::v11::detail::vformat_to<char>(fmt::v11::detail::buffer<char>&, fmt::v11::basic_string_view<char>, fmt::v11::detail::vformat_args<char>::type, fmt::v11::detail::locale_ref)
PUBLIC b2f0 0 fmt::v11::detail::is_printable(unsigned int)
PUBLIC b518 0 fmt::v11::detail::dragonbox::to_decimal<float>(float)
PUBLIC b7f4 0 fmt::v11::detail::dragonbox::to_decimal<double>(double)
PUBLIC bd30 0 fmt::v11::basic_memory_buffer<char, (unsigned long)500, std::__ndk1::allocator<char> >::grow(fmt::v11::detail::buffer<char>&, unsigned long)
PUBLIC bda8 0 fmt::v11::format_facet<std::__ndk1::locale>::~format_facet()
PUBLIC be34 0 fmt::v11::format_error::~format_error()
PUBLIC be58 0 fmt::v11::detail::copy_noinline<char, char const*, fmt::v11::basic_appender<char> >(char const*, char const*, fmt::v11::basic_appender<char>)
PUBLIC bfa8 0 fmt::v11::detail::default_arg_formatter<char>::operator()<bool>(bool)
PUBLIC c010 0 fmt::v11::detail::default_arg_formatter<char>::operator()<char>(char)
PUBLIC c0a0 0 fmt::v11::detail::default_arg_formatter<char>::operator()<float>(float)
PUBLIC c18c 0 fmt::v11::detail::default_arg_formatter<char>::operator()<double>(double)
PUBLIC c278 0 fmt::v11::detail::default_arg_formatter<char>::operator()<char const*>(char const*)
PUBLIC c2c0 0 fmt::v11::detail::default_arg_formatter<char>::operator()<void const*>(void const*)
PUBLIC c358 0 _ZN3fmt3v116detail5writeIcNS0_14basic_appenderIcEEiTnNSt6__ndk19enable_ifIXaaaasr11is_integralIT1_EE5valuentsr3std7is_sameIS7_bEE5valuentsr3std7is_sameIS7_T_EE5valueEiE4typeELi0EEET0_SB_S7_
PUBLIC c5b8 0 fmt::v11::detail::copy_noinline<char, char*, fmt::v11::basic_appender<char> >(char*, char*, fmt::v11::basic_appender<char>)
PUBLIC c708 0 _ZN3fmt3v116detail5writeIcNS0_14basic_appenderIcEEjTnNSt6__ndk19enable_ifIXaaaasr11is_integralIT1_EE5valuentsr3std7is_sameIS7_bEE5valuentsr3std7is_sameIS7_T_EE5valueEiE4typeELi0EEET0_SB_S7_
PUBLIC c8e8 0 _ZN3fmt3v116detail5writeIcNS0_14basic_appenderIcEExTnNSt6__ndk19enable_ifIXaaaasr11is_integralIT1_EE5valuentsr3std7is_sameIS7_bEE5valuentsr3std7is_sameIS7_T_EE5valueEiE4typeELi0EEET0_SB_S7_
PUBLIC cb6c 0 _ZN3fmt3v116detail5writeIcNS0_14basic_appenderIcEEyTnNSt6__ndk19enable_ifIXaaaasr11is_integralIT1_EE5valuentsr3std7is_sameIS7_bEE5valuentsr3std7is_sameIS7_T_EE5valueEiE4typeELi0EEET0_SB_S7_
PUBLIC cd74 0 _ZN3fmt3v116detail5writeIcNS0_14basic_appenderIcEEnTnNSt6__ndk19enable_ifIXaaaasr11is_integralIT1_EE5valuentsr3std7is_sameIS7_bEE5valuentsr3std7is_sameIS7_T_EE5valueEiE4typeELi0EEET0_SB_S7_
PUBLIC d0d4 0 _ZN3fmt3v116detail5writeIcNS0_14basic_appenderIcEEoTnNSt6__ndk19enable_ifIXaaaasr11is_integralIT1_EE5valuentsr3std7is_sameIS7_bEE5valuentsr3std7is_sameIS7_T_EE5valueEiE4typeELi0EEET0_SB_S7_
PUBLIC d3e8 0 _ZN3fmt3v116detail5writeIcNS0_14basic_appenderIcEEbTnNSt6__ndk19enable_ifIXsr3std7is_sameIT1_bEE5valueEiE4typeELi0EEET0_SA_S7_RKNS0_12format_specsENS1_10locale_refE
PUBLIC d678 0 fmt::v11::detail::write_int_noinline<char, fmt::v11::basic_appender<char>, unsigned int>(fmt::v11::basic_appender<char>, fmt::v11::detail::write_int_arg<unsigned int>, fmt::v11::format_specs const&, fmt::v11::detail::locale_ref)
PUBLIC e454 0 fmt::v11::detail::fill<char, fmt::v11::basic_appender<char> >(fmt::v11::basic_appender<char>, unsigned long, fmt::v11::detail::fill_t const&)
PUBLIC e624 0 fmt::v11::detail::write_padded<char, (fmt::v11::align::type)1, fmt::v11::basic_appender<char>, fmt::v11::detail::write_char<char, fmt::v11::basic_appender<char> >(fmt::v11::basic_appender<char>, char, fmt::v11::format_specs const&)::{lambda(fmt::v11::basic_appender<char>&)#1}>(fmt::v11::basic_appender<char>, fmt::v11::format_specs const&, unsigned long, unsigned long, fmt::v11::detail::write_char<char, fmt::v11::basic_appender<char> >(fmt::v11::basic_appender<char>, char, fmt::v11::format_specs const&)::{lambda(fmt::v11::basic_appender<char>&)#1})
PUBLIC e860 0 fmt::v11::detail::write_escaped_cp<fmt::v11::basic_appender<char>, char>(fmt::v11::basic_appender<char>, fmt::v11::detail::find_escape_result<char> const&)
PUBLIC eb6c 0 fmt::v11::detail::write_codepoint<(unsigned long)2, char, fmt::v11::basic_appender<char> >(fmt::v11::basic_appender<char>, char, unsigned int)
PUBLIC ece4 0 fmt::v11::detail::write_codepoint<(unsigned long)8, char, fmt::v11::basic_appender<char> >(fmt::v11::basic_appender<char>, char, unsigned int)
PUBLIC ee5c 0 fmt::v11::detail::write_padded<char, (fmt::v11::align::type)1, fmt::v11::basic_appender<char>, fmt::v11::detail::write_nonfinite<char, fmt::v11::basic_appender<char> >(fmt::v11::basic_appender<char>, bool, fmt::v11::format_specs, fmt::v11::sign::type)::{lambda(fmt::v11::basic_appender<char>&)#1}>(fmt::v11::basic_appender<char>, fmt::v11::format_specs const&, unsigned long, unsigned long, fmt::v11::detail::write_nonfinite<char, fmt::v11::basic_appender<char> >(fmt::v11::basic_appender<char>, bool, fmt::v11::format_specs, fmt::v11::sign::type)::{lambda(fmt::v11::basic_appender<char>&)#1})
PUBLIC f09c 0 fmt::v11::detail::do_write_float<char, fmt::v11::basic_appender<char>, fmt::v11::detail::dragonbox::decimal_fp<float>, fmt::v11::detail::digit_grouping<char> >(fmt::v11::basic_appender<char>, fmt::v11::detail::dragonbox::decimal_fp<float> const&, fmt::v11::format_specs const&, fmt::v11::detail::float_specs, fmt::v11::detail::locale_ref)
PUBLIC fd10 0 fmt::v11::detail::do_write_float<char, fmt::v11::basic_appender<char>, fmt::v11::detail::dragonbox::decimal_fp<float>, fmt::v11::detail::digit_grouping<char> >(fmt::v11::basic_appender<char>, fmt::v11::detail::dragonbox::decimal_fp<float> const&, fmt::v11::format_specs const&, fmt::v11::detail::float_specs, fmt::v11::detail::locale_ref)::{lambda(fmt::v11::basic_appender<char>(fmt::v11::basic_appender<char>))#1}::operator() const
PUBLIC fe64 0 fmt::v11::detail::digit_grouping<char>::digit_grouping(fmt::v11::detail::locale_ref, bool)
PUBLIC 100d0 0 fmt::v11::detail::digit_grouping<char>::~digit_grouping()
PUBLIC 10114 0 fmt::v11::detail::write_exponent<char, fmt::v11::basic_appender<char> >(int, fmt::v11::basic_appender<char>)
PUBLIC 102e4 0 _ZN3fmt3v116detail17write_significandIcjTnNSt6__ndk19enable_ifIXsr3std11is_integralIT0_EE5valueEiE4typeELi0EEEPT_S9_S5_iiS8_
PUBLIC 10460 0 std::__ndk1::basic_string<char, std::__ndk1::char_traits<char>, std::__ndk1::allocator<char> >::__assign_no_alias<true>(char const*, unsigned long)
PUBLIC 1050c 0 std::__ndk1::basic_string<char, std::__ndk1::char_traits<char>, std::__ndk1::allocator<char> >::__assign_no_alias<false>(char const*, unsigned long)
PUBLIC 1061c 0 fmt::v11::detail::digit_grouping<char>::apply<fmt::v11::basic_appender<char>, char>(fmt::v11::basic_appender<char>, fmt::v11::basic_string_view<char>) const
PUBLIC 109d4 0 fmt::v11::basic_memory_buffer<int, (unsigned long)500, std::__ndk1::allocator<int> >::grow(fmt::v11::detail::buffer<int>&, unsigned long)
PUBLIC 10a74 0 fmt::v11::detail::do_write_float<char, fmt::v11::basic_appender<char>, fmt::v11::detail::dragonbox::decimal_fp<double>, fmt::v11::detail::digit_grouping<char> >(fmt::v11::basic_appender<char>, fmt::v11::detail::dragonbox::decimal_fp<double> const&, fmt::v11::format_specs const&, fmt::v11::detail::float_specs, fmt::v11::detail::locale_ref)
PUBLIC 11728 0 fmt::v11::detail::do_write_float<char, fmt::v11::basic_appender<char>, fmt::v11::detail::dragonbox::decimal_fp<double>, fmt::v11::detail::digit_grouping<char> >(fmt::v11::basic_appender<char>, fmt::v11::detail::dragonbox::decimal_fp<double> const&, fmt::v11::format_specs const&, fmt::v11::detail::float_specs, fmt::v11::detail::locale_ref)::{lambda(fmt::v11::basic_appender<char>(fmt::v11::basic_appender<char>))#1}::operator() const
PUBLIC 11880 0 _ZN3fmt3v116detail17write_significandIcmTnNSt6__ndk19enable_ifIXsr3std11is_integralIT0_EE5valueEiE4typeELi0EEEPT_S9_S5_iiS8_
PUBLIC 11a10 0 fmt::v11::detail::write_float<char, fmt::v11::basic_appender<char>, long double>(fmt::v11::basic_appender<char>, long double, fmt::v11::format_specs, fmt::v11::detail::locale_ref)
PUBLIC 1250c 0 fmt::v11::detail::write_padded<char, (fmt::v11::align::type)2, fmt::v11::basic_appender<char>, fmt::v11::detail::write_bytes<char, (fmt::v11::align::type)2, fmt::v11::basic_appender<char> >(fmt::v11::basic_appender<char>, fmt::v11::basic_string_view<char>, fmt::v11::format_specs const&)::{lambda(fmt::v11::basic_appender<char>&)#1}>(fmt::v11::basic_appender<char>, fmt::v11::format_specs const&, unsigned long, unsigned long, fmt::v11::detail::write_bytes<char, (fmt::v11::align::type)2, fmt::v11::basic_appender<char> >(fmt::v11::basic_appender<char>, fmt::v11::basic_string_view<char>, fmt::v11::format_specs const&)::{lambda(fmt::v11::basic_appender<char>&)#1})
PUBLIC 126e8 0 fmt::v11::detail::format_dragon(fmt::v11::detail::basic_fp<unsigned __int128>, unsigned int, int, fmt::v11::detail::buffer<char>&, int&)
PUBLIC 13b18 0 fmt::v11::detail::bigint::operator<<=(int)
PUBLIC 13c3c 0 fmt::v11::detail::bigint::assign_pow10(int)
PUBLIC 14398 0 fmt::v11::detail::bigint::divmod_assign(fmt::v11::detail::bigint const&)
PUBLIC 146b8 0 fmt::v11::basic_memory_buffer<unsigned int, (unsigned long)32, std::__ndk1::allocator<unsigned int> >::grow(fmt::v11::detail::buffer<unsigned int>&, unsigned long)
PUBLIC 14758 0 fmt::v11::detail::do_write_float<char, fmt::v11::basic_appender<char>, fmt::v11::detail::big_decimal_fp, fmt::v11::detail::digit_grouping<char> >(fmt::v11::basic_appender<char>, fmt::v11::detail::big_decimal_fp const&, fmt::v11::format_specs const&, fmt::v11::detail::float_specs, fmt::v11::detail::locale_ref)
PUBLIC 15608 0 fmt::v11::detail::do_write_float<char, fmt::v11::basic_appender<char>, fmt::v11::detail::big_decimal_fp, fmt::v11::detail::digit_grouping<char> >(fmt::v11::basic_appender<char>, fmt::v11::detail::big_decimal_fp const&, fmt::v11::format_specs const&, fmt::v11::detail::float_specs, fmt::v11::detail::locale_ref)::{lambda(fmt::v11::basic_appender<char>(fmt::v11::basic_appender<char>))#1}::operator() const
PUBLIC 15768 0 fmt::v11::detail::write_padded<char, (fmt::v11::align::type)2, fmt::v11::basic_appender<char>, fmt::v11::detail::write_ptr<char, fmt::v11::basic_appender<char>, unsigned long>(fmt::v11::basic_appender<char>, unsigned long, fmt::v11::format_specs const*)::{lambda(fmt::v11::basic_appender<char>&)#1}>(fmt::v11::basic_appender<char>, fmt::v11::format_specs const&, unsigned long, unsigned long, fmt::v11::detail::write_ptr<char, fmt::v11::basic_appender<char>, unsigned long>(fmt::v11::basic_appender<char>, unsigned long, fmt::v11::format_specs const*)::{lambda(fmt::v11::basic_appender<char>&)#1})
PUBLIC 1597c 0 fmt::v11::detail::parse_replacement_field<char, fmt::v11::detail::vformat_to<char>(fmt::v11::detail::buffer<char>&, fmt::v11::basic_string_view<char>, fmt::v11::detail::vformat_args<char>::type, fmt::v11::detail::locale_ref)::format_handler&>(char const*, char const*, fmt::v11::detail::vformat_to<char>(fmt::v11::detail::buffer<char>&, fmt::v11::basic_string_view<char>, fmt::v11::detail::vformat_args<char>::type, fmt::v11::detail::locale_ref)::format_handler&)
PUBLIC 17618 0 fmt::v11::detail::parse_dynamic_spec<char>(char const*, char const*, int&, fmt::v11::detail::arg_ref<char>&, fmt::v11::basic_format_parse_context<char>&)
PUBLIC 178a8 0 fmt::v11::basic_format_args<fmt::v11::context>::get<char>(fmt::v11::basic_string_view<char>) const
PUBLIC 17a00 0 fmt::v11::detail::write_int_noinline<char, fmt::v11::basic_appender<char>, unsigned long>(fmt::v11::basic_appender<char>, fmt::v11::detail::write_int_arg<unsigned long>, fmt::v11::format_specs const&, fmt::v11::detail::locale_ref)
PUBLIC 18854 0 fmt::v11::detail::write_int_noinline<char, fmt::v11::basic_appender<char>, unsigned __int128>(fmt::v11::basic_appender<char>, fmt::v11::detail::write_int_arg<unsigned __int128>, fmt::v11::format_specs const&, fmt::v11::detail::locale_ref)
PUBLIC 198bc 0 _ZN3fmt3v116detail15format_hexfloatIdTnNSt6__ndk19enable_ifIXntsr16is_double_doubleIT_EE5valueEiE4typeELi0EEEvS5_NS0_12format_specsERNS1_6bufferIcEE
PUBLIC 19ddc 0 fmt::v11::detail::format_float<double>(double, int, fmt::v11::detail::float_specs, fmt::v11::detail::buffer<char>&)
PUBLIC 1a77c 0 fmt::v11::detail::write<char, fmt::v11::basic_appender<char> >(fmt::v11::basic_appender<char>, fmt::v11::basic_string_view<char>, fmt::v11::format_specs const&)
PUBLIC 1bae8 0 fmt::v11::detail::for_each_codepoint<fmt::v11::detail::compute_width(fmt::v11::basic_string_view<char>)::count_code_points>(fmt::v11::basic_string_view<char>, fmt::v11::detail::compute_width(fmt::v11::basic_string_view<char>)::count_code_points)::{lambda(char const*, char const*)#1}::operator()(char const*, char const*) const
PUBLIC 1bca0 0 fmt::v11::detail::write_int<fmt::v11::basic_appender<char>, unsigned long, char>(fmt::v11::basic_appender<char>, unsigned long, unsigned int, fmt::v11::format_specs const&, fmt::v11::detail::digit_grouping<char> const&)
PUBLIC 1c21c 0 fmt::v11::detail::write_int<fmt::v11::basic_appender<char>, unsigned __int128, char>(fmt::v11::basic_appender<char>, unsigned __int128, unsigned int, fmt::v11::format_specs const&, fmt::v11::detail::digit_grouping<char> const&)
PUBLIC 1c8a0 0 <.plt ELF section in adyagd.godlikefaces.android64.so>
STACK CFI INIT 67a0 10 .cfa: sp 0 +
STACK CFI INIT 67b0 8 .cfa: sp 0 +
STACK CFI INIT 67b8 8 .cfa: sp 0 +
STACK CFI INIT 67c0 14 .cfa: sp 0 +
STACK CFI INIT 67d4 1c .cfa: sp 0 +
STACK CFI INIT 67f0 10 .cfa: sp 0 +
STACK CFI INIT 6800 30 .cfa: sp 0 +
STACK CFI INIT 6830 98 .cfa: sp 0 +
STACK CFI INIT 68c8 59c .cfa: sp 0 +
STACK CFI INIT 6e64 8c .cfa: sp 0 +
STACK CFI INIT 6ef0 30 .cfa: sp 0 +
STACK CFI INIT 7af4 18 .cfa: sp 0 +
STACK CFI INIT 844c 50 .cfa: sp 0 +
STACK CFI 8450 .cfa: sp 32 +
STACK CFI 8458 .cfa: x29 32 + x19: .cfa -16 + ^ .ra: .cfa -24 + ^ x29: .cfa -32 + ^
STACK CFI 8470 .cfa: sp 32 +
STACK CFI 8478 .cfa: sp 0 +
STACK CFI 847c .cfa: x29 32 +
STACK CFI 8490 .cfa: sp 32 +
STACK CFI 8498 .cfa: sp 0 +
STACK CFI INIT 8510 7c .cfa: sp 0 +
STACK CFI 8514 .cfa: sp 48 +
STACK CFI 8520 .cfa: x29 48 + x19: .cfa -8 + ^ x20: .cfa -16 + ^ x21: .cfa -32 + ^ .ra: .cfa -40 + ^ x29: .cfa -48 + ^
STACK CFI 856c .cfa: sp 48 +
STACK CFI 8578 .cfa: sp 0 +
STACK CFI 857c .cfa: sp 48 +
STACK CFI 8588 .cfa: sp 0 +
STACK CFI INIT 858c 4 .cfa: sp 0 +
STACK CFI INIT 8590 10 .cfa: sp 0 +
STACK CFI 8594 .cfa: sp 16 +
STACK CFI 8598 .cfa: x29 16 + .ra: .cfa -8 + ^ x29: .cfa -16 + ^
STACK CFI INIT 8c9c 34 .cfa: sp 0 +
STACK CFI 8ca0 .cfa: sp 16 +
STACK CFI 8ca4 .cfa: x29 16 + .ra: .cfa -8 + ^ x29: .cfa -16 + ^
STACK CFI INIT 8cd0 80 .cfa: sp 0 +
STACK CFI 8cd4 .cfa: sp 48 +
STACK CFI 8ce0 .cfa: x29 48 + x19: .cfa -8 + ^ x20: .cfa -16 + ^ x21: .cfa -32 + ^ .ra: .cfa -40 + ^ x29: .cfa -48 + ^
STACK CFI 8d40 .cfa: sp 48 +
STACK CFI 8d4c .cfa: sp 0 +
STACK CFI INIT 8d50 24 .cfa: sp 0 +
STACK CFI 8d54 .cfa: sp 32 +
STACK CFI 8d5c .cfa: x29 32 + x19: .cfa -16 + ^ .ra: .cfa -24 + ^ x29: .cfa -32 + ^
STACK CFI 8d68 .cfa: sp 32 +
STACK CFI 8d70 .cfa: sp 0 +
STACK CFI INIT 8d74 14 .cfa: sp 0 +
STACK CFI 8d78 .cfa: sp 16 +
STACK CFI 8d7c .cfa: x29 16 + .ra: .cfa -8 + ^ x29: .cfa -16 + ^
STACK CFI INIT 8dd8 30 .cfa: sp 0 +
STACK CFI 8ddc .cfa: sp 32 +
STACK CFI 8de4 .cfa: x29 32 + x19: .cfa -16 + ^ .ra: .cfa -24 + ^ x29: .cfa -32 + ^
STACK CFI 8dfc .cfa: sp 32 +
STACK CFI 8e04 .cfa: sp 0 +
STACK CFI INIT 8e08 34 .cfa: sp 0 +
STACK CFI 8e0c .cfa: sp 32 +
STACK CFI 8e14 .cfa: x29 32 + x19: .cfa -16 + ^ .ra: .cfa -24 + ^ x29: .cfa -32 + ^
STACK CFI INIT 8e3c 80 .cfa: sp 0 +
STACK CFI 8e40 .cfa: sp 48 +
STACK CFI 8e4c .cfa: x29 48 + x19: .cfa -8 + ^ x20: .cfa -16 + ^ x21: .cfa -24 + ^ x22: .cfa -32 + ^ .ra: .cfa -40 + ^ x29: .cfa -48 + ^
STACK CFI 8e64 .cfa: sp 48 +
STACK CFI 8e70 .cfa: sp 0 +
STACK CFI 8e74 .cfa: x29 48 +
STACK CFI 8ea4 .cfa: sp 48 +
STACK CFI 8eb0 .cfa: sp 0 +
STACK CFI 8eb4 .cfa: x29 48 +
STACK CFI INIT 8ebc 68 .cfa: sp 0 +
STACK CFI 8ec0 .cfa: sp 32 +
STACK CFI 8ec8 .cfa: x29 32 + x19: .cfa -8 + ^ x20: .cfa -16 + ^ .ra: .cfa -24 + ^ x29: .cfa -32 + ^
STACK CFI 8ee0 .cfa: sp 32 +
STACK CFI 8ee8 .cfa: sp 0 +
STACK CFI 8eec .cfa: x29 32 +
STACK CFI 8f18 .cfa: sp 32 +
STACK CFI 8f20 .cfa: sp 0 +
STACK CFI INIT 8f24 14 .cfa: sp 0 +
STACK CFI 8f28 .cfa: sp 16 +
STACK CFI 8f2c .cfa: x29 16 + .ra: .cfa -8 + ^ x29: .cfa -16 + ^
STACK CFI INIT 8f38 4 .cfa: sp 0 +
STACK CFI INIT 8f3c 14 .cfa: sp 0 +
STACK CFI INIT 8f50 84 .cfa: sp 0 +
STACK CFI 8f58 .cfa: sp 32 +
STACK CFI 8f60 .cfa: x29 32 + x19: .cfa -8 + ^ x20: .cfa -16 + ^ .ra: .cfa -24 + ^ x29: .cfa -32 + ^
STACK CFI 8fa0 .cfa: sp 32 +
STACK CFI 8fa8 .cfa: sp 0 +
STACK CFI 8fb0 .cfa: x29 32 +
STACK CFI INIT 8fd4 58 .cfa: sp 0 +
STACK CFI 8fd8 .cfa: sp 48 +
STACK CFI 8fe4 .cfa: x29 48 + x19: .cfa -8 + ^ x20: .cfa -16 + ^ x21: .cfa -32 + ^ .ra: .cfa -40 + ^ x29: .cfa -48 + ^
STACK CFI 901c .cfa: sp 48 +
STACK CFI 9028 .cfa: sp 0 +
STACK CFI INIT 902c 58 .cfa: sp 0 +
STACK CFI 9030 .cfa: sp 48 +
STACK CFI 903c .cfa: x29 48 + x19: .cfa -8 + ^ x20: .cfa -16 + ^ x21: .cfa -32 + ^ .ra: .cfa -40 + ^ x29: .cfa -48 + ^
STACK CFI 9074 .cfa: sp 48 +
STACK CFI 9080 .cfa: sp 0 +
STACK CFI INIT 9084 24 .cfa: sp 0 +
STACK CFI 9088 .cfa: sp 32 +
STACK CFI 9090 .cfa: x29 32 + x19: .cfa -16 + ^ .ra: .cfa -24 + ^ x29: .cfa -32 + ^
STACK CFI 909c .cfa: sp 32 +
STACK CFI 90a4 .cfa: sp 0 +
STACK CFI INIT 90a8 50 .cfa: sp 0 +
STACK CFI 90ac .cfa: sp 32 +
STACK CFI 90b4 .cfa: x29 32 + x19: .cfa -16 + ^ .ra: .cfa -24 + ^ x29: .cfa -32 + ^
STACK CFI 90cc .cfa: sp 32 +
STACK CFI 90d4 .cfa: sp 0 +
STACK CFI 90d8 .cfa: x29 32 +
STACK CFI 90ec .cfa: sp 32 +
STACK CFI 90f4 .cfa: sp 0 +
STACK CFI INIT 90f8 64 .cfa: sp 0 +
STACK CFI 90fc .cfa: sp 32 +
STACK CFI 9104 .cfa: x29 32 + x19: .cfa -16 + ^ .ra: .cfa -24 + ^ x29: .cfa -32 + ^
STACK CFI 9130 .cfa: sp 32 +
STACK CFI 9138 .cfa: sp 0 +
STACK CFI 913c .cfa: x29 32 +
STACK CFI 9150 .cfa: sp 32 +
STACK CFI 9158 .cfa: sp 0 +
STACK CFI INIT 9798 4 .cfa: sp 0 +
STACK CFI INIT 979c 14 .cfa: sp 0 +
STACK CFI 97a0 .cfa: sp 16 +
STACK CFI 97a4 .cfa: x29 16 + .ra: .cfa -8 + ^ x29: .cfa -16 + ^
STACK CFI INIT 97b0 14 .cfa: sp 0 +
STACK CFI 97b4 .cfa: sp 16 +
STACK CFI 97b8 .cfa: x29 16 + .ra: .cfa -8 + ^ x29: .cfa -16 + ^
STACK CFI INIT 97c4 c .cfa: sp 0 +
STACK CFI 97c8 .cfa: sp 16 +
STACK CFI 97cc .cfa: x29 16 + .ra: .cfa -8 + ^ x29: .cfa -16 + ^
STACK CFI INIT 9818 38 .cfa: sp 0 +
STACK CFI 981c .cfa: sp 32 +
STACK CFI 9824 .cfa: x29 32 + x19: .cfa -16 + ^ .ra: .cfa -24 + ^ x29: .cfa -32 + ^
STACK CFI 9844 .cfa: sp 32 +
STACK CFI 984c .cfa: sp 0 +
STACK CFI INIT 9850 c .cfa: sp 0 +
STACK CFI 9854 .cfa: sp 16 +
STACK CFI 9858 .cfa: x29 16 + .ra: .cfa -8 + ^ x29: .cfa -16 + ^
STACK CFI INIT 985c 4 .cfa: sp 0 +
STACK CFI INIT 9860 4 .cfa: sp 0 +
STACK CFI INIT 9864 38 .cfa: sp 0 +
STACK CFI 9868 .cfa: sp 32 +
STACK CFI 9870 .cfa: x29 32 + x19: .cfa -16 + ^ .ra: .cfa -24 + ^ x29: .cfa -32 + ^
STACK CFI 9890 .cfa: sp 32 +
STACK CFI 9898 .cfa: sp 0 +
STACK CFI INIT 989c 18 .cfa: sp 0 +
STACK CFI INIT 98b4 4 .cfa: sp 0 +
STACK CFI INIT 98b8 4 .cfa: sp 0 +
STACK CFI INIT 98bc 10 .cfa: sp 0 +
STACK CFI INIT 98cc 1c .cfa: sp 0 +
STACK CFI INIT 98e8 c .cfa: sp 0 +
STACK CFI INIT 98f4 314 .cfa: sp 0 +
STACK CFI 98f8 .cfa: sp 96 +
STACK CFI 9910 .cfa: x29 96 + x19: .cfa -8 + ^ x20: .cfa -16 + ^ x21: .cfa -24 + ^ x22: .cfa -32 + ^ x23: .cfa -40 + ^ x24: .cfa -48 + ^ x25: .cfa -56 + ^ x26: .cfa -64 + ^ x27: .cfa -80 + ^ .ra: .cfa -88 + ^ x29: .cfa -96 + ^
STACK CFI 9bcc .cfa: sp 96 +
STACK CFI 9be4 .cfa: sp 0 +
STACK CFI 9be8 .cfa: x29 96 +
STACK CFI INIT 9e64 3c .cfa: sp 0 +
STACK CFI 9e68 .cfa: sp 32 +
STACK CFI 9e70 .cfa: x29 32 + x19: .cfa -16 + ^ .ra: .cfa -24 + ^ x29: .cfa -32 + ^
STACK CFI 9e7c .cfa: sp 32 +
STACK CFI 9e84 .cfa: sp 0 +
STACK CFI 9e88 .cfa: x29 32 +
STACK CFI 9e94 .cfa: sp 32 +
STACK CFI 9e9c .cfa: sp 0 +
STACK CFI INIT 9ea0 c .cfa: sp 0 +
STACK CFI INIT 9eac 24c .cfa: sp 0 +
STACK CFI INIT a0f8 a0 .cfa: sp 0 +
STACK CFI a104 .cfa: sp 32 +
STACK CFI a15c .cfa: sp 0 +
STACK CFI a160 .cfa: sp 32 +
STACK CFI a168 .cfa: sp 0 +
STACK CFI a16c .cfa: sp 32 +
STACK CFI a180 .cfa: sp 0 +
STACK CFI a184 .cfa: sp 32 +
STACK CFI a194 .cfa: sp 0 +
STACK CFI INIT a198 38 .cfa: sp 0 +
STACK CFI a1a4 .cfa: sp 32 +
STACK CFI a1cc .cfa: sp 0 +
STACK CFI INIT a464 7c .cfa: sp 0 +
STACK CFI a468 .cfa: sp 32 +
STACK CFI a470 .cfa: x29 32 + x19: .cfa -16 + ^ .ra: .cfa -24 + ^ x29: .cfa -32 + ^
STACK CFI a49c .cfa: sp 32 +
STACK CFI a4a4 .cfa: sp 0 +
STACK CFI a4a8 .cfa: x29 32 +
STACK CFI a4d4 .cfa: sp 32 +
STACK CFI a4dc .cfa: sp 0 +
STACK CFI INIT a530 2c .cfa: sp 0 +
STACK CFI a534 .cfa: sp 32 +
STACK CFI a53c .cfa: x29 32 + x19: .cfa -16 + ^ .ra: .cfa -24 + ^ x29: .cfa -32 + ^
STACK CFI a550 .cfa: sp 32 +
STACK CFI a558 .cfa: sp 0 +
STACK CFI INIT ad1c 64 .cfa: sp 0 +
STACK CFI ad20 .cfa: sp 32 +
STACK CFI ad28 .cfa: x29 32 + x19: .cfa -16 + ^ .ra: .cfa -24 + ^ x29: .cfa -32 + ^
STACK CFI ad44 .cfa: sp 32 +
STACK CFI ad4c .cfa: sp 0 +
STACK CFI ad50 .cfa: x29 32 +
STACK CFI ad74 .cfa: sp 32 +
STACK CFI ad7c .cfa: sp 0 +
STACK CFI INIT ad80 570 .cfa: sp 0 +
STACK CFI ad84 .cfa: sp 176 +
STACK CFI ad98 .cfa: x29 64 + x19: .cfa -8 + ^ x20: .cfa -16 + ^ x21: .cfa -24 + ^ x22: .cfa -32 + ^ x23: .cfa -40 + ^ x24: .cfa -48 + ^ .ra: .cfa -56 + ^ x29: .cfa -64 + ^
STACK CFI afc8 .cfa: sp 176 +
STACK CFI afdc .cfa: sp 0 +
STACK CFI afe0 .cfa: x29 64 +
STACK CFI b02c .cfa: sp 176 +
STACK CFI b040 .cfa: sp 0 +
STACK CFI b044 .cfa: x29 64 +
STACK CFI b07c .cfa: sp 176 +
STACK CFI b090 .cfa: sp 0 +
STACK CFI b094 .cfa: x29 64 +
STACK CFI b0ac .cfa: sp 176 +
STACK CFI b0c0 .cfa: sp 0 +
STACK CFI b0c4 .cfa: x29 64 +
STACK CFI b0e4 .cfa: sp 176 +
STACK CFI b0f8 .cfa: sp 0 +
STACK CFI b0fc .cfa: x29 64 +
STACK CFI b114 .cfa: sp 176 +
STACK CFI b128 .cfa: sp 0 +
STACK CFI b12c .cfa: x29 64 +
STACK CFI b140 .cfa: sp 176 +
STACK CFI b154 .cfa: sp 0 +
STACK CFI b158 .cfa: x29 64 +
STACK CFI b16c .cfa: sp 176 +
STACK CFI b180 .cfa: sp 0 +
STACK CFI b184 .cfa: x29 64 +
STACK CFI b194 .cfa: sp 176 +
STACK CFI b1a8 .cfa: sp 0 +
STACK CFI b1ac .cfa: x29 64 +
STACK CFI b1bc .cfa: sp 176 +
STACK CFI b1d0 .cfa: sp 0 +
STACK CFI b1d4 .cfa: x29 64 +
STACK CFI b1ec .cfa: sp 176 +
STACK CFI b200 .cfa: sp 0 +
STACK CFI b204 .cfa: x29 64 +
STACK CFI b218 .cfa: sp 176 +
STACK CFI b22c .cfa: sp 0 +
STACK CFI b230 .cfa: x29 64 +
STACK CFI b248 .cfa: sp 176 +
STACK CFI b25c .cfa: sp 0 +
STACK CFI b260 .cfa: x29 64 +
STACK CFI b28c .cfa: sp 176 +
STACK CFI b2a0 .cfa: sp 0 +
STACK CFI b2a4 .cfa: x29 64 +
STACK CFI b2b8 .cfa: sp 176 +
STACK CFI b2cc .cfa: sp 0 +
STACK CFI b2d0 .cfa: x29 64 +
STACK CFI INIT b2f0 228 .cfa: sp 0 +
STACK CFI INIT b518 2dc .cfa: sp 0 +
STACK CFI INIT b7f4 53c .cfa: sp 0 +
STACK CFI INIT bd30 78 .cfa: sp 0 +
STACK CFI bd34 .cfa: sp 48 +
STACK CFI bd40 .cfa: x29 48 + x19: .cfa -8 + ^ x20: .cfa -16 + ^ x21: .cfa -24 + ^ x22: .cfa -32 + ^ .ra: .cfa -40 + ^ x29: .cfa -48 + ^
STACK CFI bd88 .cfa: sp 48 +
STACK CFI bd94 .cfa: sp 0 +
STACK CFI bd98 .cfa: sp 48 +
STACK CFI bda4 .cfa: sp 0 +
STACK CFI INIT bda8 8c .cfa: sp 0 +
STACK CFI bdac .cfa: sp 32 +
STACK CFI bdb4 .cfa: x29 32 + x19: .cfa -16 + ^ .ra: .cfa -24 + ^ x29: .cfa -32 + ^
STACK CFI bde8 .cfa: sp 32 +
STACK CFI bdf0 .cfa: sp 0 +
STACK CFI bdf4 .cfa: x29 32 +
STACK CFI be28 .cfa: sp 32 +
STACK CFI be30 .cfa: sp 0 +
STACK CFI INIT be34 24 .cfa: sp 0 +
STACK CFI be38 .cfa: sp 32 +
STACK CFI be40 .cfa: x29 32 + x19: .cfa -16 + ^ .ra: .cfa -24 + ^ x29: .cfa -32 + ^
STACK CFI be4c .cfa: sp 32 +
STACK CFI be54 .cfa: sp 0 +
STACK CFI INIT be58 150 .cfa: sp 0 +
STACK CFI be5c .cfa: sp 48 +
STACK CFI be68 .cfa: x29 48 + x19: .cfa -8 + ^ x20: .cfa -16 + ^ x21: .cfa -24 + ^ x22: .cfa -32 + ^ .ra: .cfa -40 + ^ x29: .cfa -48 + ^
STACK CFI bf98 .cfa: sp 48 +
STACK CFI bfa4 .cfa: sp 0 +
STACK CFI INIT bfa8 68 .cfa: sp 0 +
STACK CFI bfac .cfa: sp 64 +
STACK CFI bfb8 .cfa: x29 32 + x19: .cfa -16 + ^ .ra: .cfa -24 + ^ x29: .cfa -32 + ^
STACK CFI bffc .cfa: sp 64 +
STACK CFI c008 .cfa: sp 0 +
STACK CFI c00c .cfa: x29 32 +
STACK CFI INIT c010 90 .cfa: sp 0 +
STACK CFI c014 .cfa: sp 32 +
STACK CFI c01c .cfa: x29 32 + x19: .cfa -8 + ^ x20: .cfa -16 + ^ .ra: .cfa -24 + ^ x29: .cfa -32 + ^
STACK CFI c048 .cfa: sp 32 +
STACK CFI c050 .cfa: sp 0 +
STACK CFI c054 .cfa: x29 32 +
STACK CFI c094 .cfa: sp 32 +
STACK CFI c09c .cfa: sp 0 +
STACK CFI INIT c0a0 ec .cfa: sp 0 +
STACK CFI c0a4 .cfa: sp 112 +
STACK CFI c0b4 .cfa: x29 48 + x19: .cfa -8 + ^ x20: .cfa -16 + ^ x21: .cfa -32 + ^ .ra: .cfa -40 + ^ x29: .cfa -48 + ^
STACK CFI c174 .cfa: sp 112 +
STACK CFI c184 .cfa: sp 0 +
STACK CFI c188 .cfa: x29 48 +
STACK CFI INIT c18c ec .cfa: sp 0 +
STACK CFI c190 .cfa: sp 112 +
STACK CFI c1a0 .cfa: x29 48 + x19: .cfa -8 + ^ x20: .cfa -16 + ^ x21: .cfa -32 + ^ .ra: .cfa -40 + ^ x29: .cfa -48 + ^
STACK CFI c260 .cfa: sp 112 +
STACK CFI c270 .cfa: sp 0 +
STACK CFI c274 .cfa: x29 48 +
STACK CFI INIT c278 48 .cfa: sp 0 +
STACK CFI c27c .cfa: sp 32 +
STACK CFI c284 .cfa: x29 32 + x19: .cfa -8 + ^ x20: .cfa -16 + ^ .ra: .cfa -24 + ^ x29: .cfa -32 + ^
STACK CFI c2a8 .cfa: sp 32 +
STACK CFI c2b0 .cfa: sp 0 +
STACK CFI c2b4 .cfa: x29 32 +
STACK CFI INIT c2c0 98 .cfa: sp 0 +
STACK CFI c2c4 .cfa: sp 80 +
STACK CFI c2d0 .cfa: x29 32 + x19: .cfa -16 + ^ .ra: .cfa -24 + ^ x29: .cfa -32 + ^
STACK CFI c344 .cfa: sp 80 +
STACK CFI c350 .cfa: sp 0 +
STACK CFI c354 .cfa: x29 32 +
STACK CFI INIT c358 260 .cfa: sp 0 +
STACK CFI c35c .cfa: sp 112 +
STACK CFI c374 .cfa: x29 80 + x19: .cfa -8 + ^ x20: .cfa -16 + ^ x21: .cfa -24 + ^ x22: .cfa -32 + ^ x23: .cfa -40 + ^ x24: .cfa -48 + ^ x25: .cfa -64 + ^ .ra: .cfa -72 + ^ x29: .cfa -80 + ^
STACK CFI c558 .cfa: sp 112 +
STACK CFI c570 .cfa: sp 0 +
STACK CFI c574 .cfa: x29 80 +
STACK CFI INIT c5b8 150 .cfa: sp 0 +
STACK CFI c5bc .cfa: sp 48 +
STACK CFI c5c8 .cfa: x29 48 + x19: .cfa -8 + ^ x20: .cfa -16 + ^ x21: .cfa -24 + ^ x22: .cfa -32 + ^ .ra: .cfa -40 + ^ x29: .cfa -48 + ^
STACK CFI c6f8 .cfa: sp 48 +
STACK CFI c704 .cfa: sp 0 +
STACK CFI INIT c708 1e0 .cfa: sp 0 +
STACK CFI c70c .cfa: sp 96 +
STACK CFI c720 .cfa: x29 64 + x19: .cfa -8 + ^ x20: .cfa -16 + ^ x21: .cfa -24 + ^ x22: .cfa -32 + ^ x23: .cfa -40 + ^ x24: .cfa -48 + ^ .ra: .cfa -56 + ^ x29: .cfa -64 + ^
STACK CFI c8a0 .cfa: sp 96 +
STACK CFI c8b4 .cfa: sp 0 +
STACK CFI c8b8 .cfa: x29 64 +
STACK CFI INIT c8e8 284 .cfa: sp 0 +
STACK CFI c8ec .cfa: sp 112 +
STACK CFI c904 .cfa: x29 80 + x19: .cfa -8 + ^ x20: .cfa -16 + ^ x21: .cfa -24 + ^ x22: .cfa -32 + ^ x23: .cfa -40 + ^ x24: .cfa -48 + ^ x25: .cfa -64 + ^ .ra: .cfa -72 + ^ x29: .cfa -80 + ^
STACK CFI cb0c .cfa: sp 112 +
STACK CFI cb24 .cfa: sp 0 +
STACK CFI cb28 .cfa: x29 80 +
STACK CFI INIT cb6c 208 .cfa: sp 0 +
STACK CFI cb70 .cfa: sp 96 +
STACK CFI cb84 .cfa: x29 64 + x19: .cfa -8 + ^ x20: .cfa -16 + ^ x21: .cfa -24 + ^ x22: .cfa -32 + ^ x23: .cfa -40 + ^ x24: .cfa -48 + ^ .ra: .cfa -56 + ^ x29: .cfa -64 + ^
STACK CFI cd2c .cfa: sp 96 +
STACK CFI cd40 .cfa: sp 0 +
STACK CFI cd44 .cfa: x29 64 +
STACK CFI INIT cd74 360 .cfa: sp 0 +
STACK CFI cd78 .cfa: sp 160 +
STACK CFI cd94 .cfa: x29 96 + x19: .cfa -8 + ^ x20: .cfa -16 + ^ x21: .cfa -24 + ^ x22: .cfa -32 + ^ x23: .cfa -40 + ^ x24: .cfa -48 + ^ x25: .cfa -56 + ^ x26: .cfa -64 + ^ x27: .cfa -72 + ^ x28: .cfa -80 + ^ .ra: .cfa -88 + ^ x29: .cfa -96 + ^
STACK CFI d060 .cfa: sp 160 +
STACK CFI d07c .cfa: sp 0 +
STACK CFI d080 .cfa: x29 96 +
STACK CFI INIT d0d4 314 .cfa: sp 0 +
STACK CFI d0d8 .cfa: sp 144 +
STACK CFI d0f4 .cfa: x29 96 + x19: .cfa -8 + ^ x20: .cfa -16 + ^ x21: .cfa -24 + ^ x22: .cfa -32 + ^ x23: .cfa -40 + ^ x24: .cfa -48 + ^ x25: .cfa -56 + ^ x26: .cfa -64 + ^ x27: .cfa -72 + ^ x28: .cfa -80 + ^ .ra: .cfa -88 + ^ x29: .cfa -96 + ^
STACK CFI d370 .cfa: sp 144 +
STACK CFI d38c .cfa: sp 0 +
STACK CFI d390 .cfa: x29 96 +
STACK CFI INIT d3e8 290 .cfa: sp 0 +
STACK CFI d3ec .cfa: sp 128 +
STACK CFI d404 .cfa: x29 80 + x19: .cfa -8 + ^ x20: .cfa -16 + ^ x21: .cfa -24 + ^ x22: .cfa -32 + ^ x23: .cfa -40 + ^ x24: .cfa -48 + ^ x25: .cfa -56 + ^ x26: .cfa -64 + ^ .ra: .cfa -72 + ^ x29: .cfa -80 + ^
STACK CFI d658 .cfa: sp 128 +
STACK CFI d670 .cfa: sp 0 +
STACK CFI d674 .cfa: x29 80 +
STACK CFI INIT d678 ddc .cfa: sp 0 +
STACK CFI d67c .cfa: sp 144 +
STACK CFI d698 .cfa: x29 96 + x19: .cfa -8 + ^ x20: .cfa -16 + ^ x21: .cfa -24 + ^ x22: .cfa -32 + ^ x23: .cfa -40 + ^ x24: .cfa -48 + ^ x25: .cfa -56 + ^ x26: .cfa -64 + ^ x27: .cfa -72 + ^ x28: .cfa -80 + ^ .ra: .cfa -88 + ^ x29: .cfa -96 + ^
STACK CFI e32c .cfa: sp 144 +
STACK CFI e348 .cfa: sp 0 +
STACK CFI e34c .cfa: x29 96 +
STACK CFI INIT e454 1d0 .cfa: sp 0 +
STACK CFI e458 .cfa: sp 80 +
STACK CFI e46c .cfa: x29 80 + x19: .cfa -8 + ^ x20: .cfa -16 + ^ x21: .cfa -24 + ^ x22: .cfa -32 + ^ x23: .cfa -40 + ^ x24: .cfa -48 + ^ x25: .cfa -64 + ^ .ra: .cfa -72 + ^ x29: .cfa -80 + ^
STACK CFI e60c .cfa: sp 80 +
STACK CFI e620 .cfa: sp 0 +
STACK CFI INIT e624 23c .cfa: sp 0 +
STACK CFI e628 .cfa: sp 112 +
STACK CFI e63c .cfa: x29 64 + x19: .cfa -8 + ^ x20: .cfa -16 + ^ x21: .cfa -24 + ^ x22: .cfa -32 + ^ x23: .cfa -40 + ^ x24: .cfa -48 + ^ .ra: .cfa -56 + ^ x29: .cfa -64 + ^
STACK CFI e818 .cfa: sp 112 +
STACK CFI e82c .cfa: sp 0 +
STACK CFI e830 .cfa: x29 64 +
STACK CFI INIT e860 30c .cfa: sp 0 +
STACK CFI e864 .cfa: sp 80 +
STACK CFI e878 .cfa: x29 64 + x19: .cfa -8 + ^ x20: .cfa -16 + ^ x21: .cfa -24 + ^ x22: .cfa -32 + ^ x23: .cfa -40 + ^ x24: .cfa -48 + ^ .ra: .cfa -56 + ^ x29: .cfa -64 + ^
STACK CFI e9f4 .cfa: sp 80 +
STACK CFI ea08 .cfa: sp 0 +
STACK CFI ea0c .cfa: x29 64 +
STACK CFI INIT eb6c 178 .cfa: sp 0 +
STACK CFI eb70 .cfa: sp 80 +
STACK CFI eb84 .cfa: x29 64 + x19: .cfa -8 + ^ x20: .cfa -16 + ^ x21: .cfa -24 + ^ x22: .cfa -32 + ^ x23: .cfa -40 + ^ x24: .cfa -48 + ^ .ra: .cfa -56 + ^ x29: .cfa -64 + ^
STACK CFI ecc8 .cfa: sp 80 +
STACK CFI ecdc .cfa: sp 0 +
STACK CFI ece0 .cfa: x29 64 +
STACK CFI INIT ece4 178 .cfa: sp 0 +
STACK CFI ece8 .cfa: sp 80 +
STACK CFI ecfc .cfa: x29 64 + x19: .cfa -8 + ^ x20: .cfa -16 + ^ x21: .cfa -24 + ^ x22: .cfa -32 + ^ x23: .cfa -40 + ^ x24: .cfa -48 + ^ .ra: .cfa -56 + ^ x29: .cfa -64 + ^
STACK CFI ee40 .cfa: sp 80 +
STACK CFI ee54 .cfa: sp 0 +
STACK CFI ee58 .cfa: x29 64 +
STACK CFI INIT ee5c 240 .cfa: sp 0 +
STACK CFI ee60 .cfa: sp 96 +
STACK CFI ee78 .cfa: x29 96 + x19: .cfa -8 + ^ x20: .cfa -16 + ^ x21: .cfa -24 + ^ x22: .cfa -32 + ^ x23: .cfa -40 + ^ x24: .cfa -48 + ^ x25: .cfa -56 + ^ x26: .cfa -64 + ^ x27: .cfa -72 + ^ x28: .cfa -80 + ^ .ra: .cfa -88 + ^ x29: .cfa -96 + ^
STACK CFI f080 .cfa: sp 96 +
STACK CFI f098 .cfa: sp 0 +
STACK CFI INIT fd10 154 .cfa: sp 0 +
STACK CFI fd14 .cfa: sp 96 +
STACK CFI fd28 .cfa: x29 64 + x19: .cfa -8 + ^ x20: .cfa -16 + ^ x21: .cfa -24 + ^ x22: .cfa -32 + ^ x23: .cfa -48 + ^ .ra: .cfa -56 + ^ x29: .cfa -64 + ^
STACK CFI fe08 .cfa: sp 96 +
STACK CFI fe1c .cfa: sp 0 +
STACK CFI fe20 .cfa: x29 64 +
STACK CFI INIT 100d0 44 .cfa: sp 0 +
STACK CFI 100d4 .cfa: sp 32 +
STACK CFI 100dc .cfa: x29 32 + x19: .cfa -16 + ^ .ra: .cfa -24 + ^ x29: .cfa -32 + ^
STACK CFI 100f8 .cfa: sp 32 +
STACK CFI 10100 .cfa: sp 0 +
STACK CFI 10104 .cfa: x29 32 +
STACK CFI 10108 .cfa: sp 32 +
STACK CFI 10110 .cfa: sp 0 +
STACK CFI INIT 10114 1d0 .cfa: sp 0 +
STACK CFI 10118 .cfa: sp 64 +
STACK CFI 10128 .cfa: x29 64 + x19: .cfa -8 + ^ x20: .cfa -16 + ^ x21: .cfa -24 + ^ x22: .cfa -32 + ^ x23: .cfa -40 + ^ x24: .cfa -48 + ^ .ra: .cfa -56 + ^ x29: .cfa -64 + ^
STACK CFI 101e8 .cfa: sp 64 +
STACK CFI 101f8 .cfa: sp 0 +
STACK CFI 101fc .cfa: x29 64 +
STACK CFI INIT 102e4 17c .cfa: sp 0 +
STACK CFI INIT 10460 ac .cfa: sp 0 +
STACK CFI 10464 .cfa: sp 64 +
STACK CFI 10474 .cfa: x29 64 + x19: .cfa -8 + ^ x20: .cfa -16 + ^ x21: .cfa -24 + ^ x22: .cfa -32 + ^ x23: .cfa -48 + ^ .ra: .cfa -56 + ^ x29: .cfa -64 + ^
STACK CFI 104f0 .cfa: sp 64 +
STACK CFI 10500 .cfa: sp 0 +
STACK CFI 10504 .cfa: x29 64 +
STACK CFI INIT 1050c 110 .cfa: sp 0 +
STACK CFI 10510 .cfa: sp 64 +
STACK CFI 10520 .cfa: x29 64 + x19: .cfa -8 + ^ x20: .cfa -16 + ^ x21: .cfa -24 + ^ x22: .cfa -32 + ^ x23: .cfa -40 + ^ x24: .cfa -48 + ^ .ra: .cfa -56 + ^ x29: .cfa -64 + ^
STACK CFI 10600 .cfa: sp 64 +
STACK CFI 10610 .cfa: sp 0 +
STACK CFI 10614 .cfa: x29 64 +
STACK CFI INIT 109d4 a0 .cfa: sp 0 +
STACK CFI 109d8 .cfa: sp 48 +
STACK CFI 109e4 .cfa: x29 48 + x19: .cfa -8 + ^ x20: .cfa -16 + ^ x21: .cfa -24 + ^ x22: .cfa -32 + ^ .ra: .cfa -40 + ^ x29: .cfa -48 + ^
STACK CFI 10a50 .cfa: sp 48 +
STACK CFI 10a5c .cfa: sp 0 +
STACK CFI 10a60 .cfa: sp 48 +
STACK CFI 10a6c .cfa: sp 0 +
STACK CFI 10a70 .cfa: x29 48 +
STACK CFI INIT 11728 158 .cfa: sp 0 +
STACK CFI 1172c .cfa: sp 96 +
STACK CFI 11740 .cfa: x29 64 + x19: .cfa -8 + ^ x20: .cfa -16 + ^ x21: .cfa -24 + ^ x22: .cfa -32 + ^ x23: .cfa -48 + ^ .ra: .cfa -56 + ^ x29: .cfa -64 + ^
STACK CFI 11824 .cfa: sp 96 +
STACK CFI 11838 .cfa: sp 0 +
STACK CFI 1183c .cfa: x29 64 +
STACK CFI INIT 11880 190 .cfa: sp 0 +
STACK CFI INIT 1250c 1dc .cfa: sp 0 +
STACK CFI 12510 .cfa: sp 80 +
STACK CFI 12524 .cfa: x29 80 + x19: .cfa -8 + ^ x20: .cfa -16 + ^ x21: .cfa -24 + ^ x22: .cfa -32 + ^ x23: .cfa -40 + ^ x24: .cfa -48 + ^ x25: .cfa -64 + ^ .ra: .cfa -72 + ^ x29: .cfa -80 + ^
STACK CFI 126d0 .cfa: sp 80 +
STACK CFI 126e4 .cfa: sp 0 +
STACK CFI INIT 13b18 124 .cfa: sp 0 +
STACK CFI 13b48 .cfa: sp 32 +
STACK CFI 13b50 .cfa: x29 32 + x19: .cfa -8 + ^ x20: .cfa -16 + ^ .ra: .cfa -24 + ^ x29: .cfa -32 + ^
STACK CFI 13c30 .cfa: sp 32 +
STACK CFI 13c38 .cfa: sp 0 +
STACK CFI INIT 14398 320 .cfa: sp 0 +
STACK CFI 1439c .cfa: sp 64 +
STACK CFI 143ac .cfa: x29 64 + x19: .cfa -8 + ^ x20: .cfa -16 + ^ x21: .cfa -24 + ^ x22: .cfa -32 + ^ x23: .cfa -40 + ^ x24: .cfa -48 + ^ .ra: .cfa -56 + ^ x29: .cfa -64 + ^
STACK CFI 14428 .cfa: sp 64 +
STACK CFI 14438 .cfa: sp 0 +
STACK CFI 1443c .cfa: x29 64 +
STACK CFI 14610 .cfa: sp 64 +
STACK CFI 14620 .cfa: sp 0 +
STACK CFI 14624 .cfa: x29 64 +
STACK CFI 14634 .cfa: sp 64 +
STACK CFI 14644 .cfa: sp 0 +
STACK CFI 14648 .cfa: x29 64 +
STACK CFI INIT 146b8 a0 .cfa: sp 0 +
STACK CFI 146bc .cfa: sp 48 +
STACK CFI 146c8 .cfa: x29 48 + x19: .cfa -8 + ^ x20: .cfa -16 + ^ x21: .cfa -24 + ^ x22: .cfa -32 + ^ .ra: .cfa -40 + ^ x29: .cfa -48 + ^
STACK CFI 14734 .cfa: sp 48 +
STACK CFI 14740 .cfa: sp 0 +
STACK CFI 14744 .cfa: sp 48 +
STACK CFI 14750 .cfa: sp 0 +
STACK CFI 14754 .cfa: x29 48 +
STACK CFI INIT 15608 160 .cfa: sp 0 +
STACK CFI 1560c .cfa: sp 64 +
STACK CFI 1561c .cfa: x29 64 + x19: .cfa -8 + ^ x20: .cfa -16 + ^ x21: .cfa -24 + ^ x22: .cfa -32 + ^ x23: .cfa -48 + ^ .ra: .cfa -56 + ^ x29: .cfa -64 + ^
STACK CFI 15714 .cfa: sp 64 +
STACK CFI 15724 .cfa: sp 0 +
STACK CFI 15728 .cfa: x29 64 +
STACK CFI INIT 15768 214 .cfa: sp 0 +
STACK CFI 1576c .cfa: sp 128 +
STACK CFI 15788 .cfa: x29 96 + x19: .cfa -8 + ^ x20: .cfa -16 + ^ x21: .cfa -24 + ^ x22: .cfa -32 + ^ x23: .cfa -40 + ^ x24: .cfa -48 + ^ x25: .cfa -56 + ^ x26: .cfa -64 + ^ x27: .cfa -80 + ^ .ra: .cfa -88 + ^ x29: .cfa -96 + ^
STACK CFI 15904 .cfa: sp 128 +
STACK CFI 15920 .cfa: sp 0 +
STACK CFI 15924 .cfa: x29 96 +
STACK CFI INIT 17618 290 .cfa: sp 0 +
STACK CFI 1761c .cfa: sp 16 +
STACK CFI 17620 .cfa: x29 16 + .ra: .cfa -8 + ^ x29: .cfa -16 + ^
STACK CFI 176ac .cfa: sp 16 +
STACK CFI 176b0 .cfa: sp 0 +
STACK CFI 176b4 .cfa: x29 16 +
STACK CFI 17704 .cfa: sp 16 +
STACK CFI 17708 .cfa: sp 0 +
STACK CFI 1770c .cfa: x29 16 +
STACK CFI 17870 .cfa: sp 16 +
STACK CFI 17874 .cfa: sp 0 +
STACK CFI 17878 .cfa: x29 16 +
STACK CFI INIT 178a8 158 .cfa: sp 0 +
STACK CFI 178ac .cfa: sp 112 +
STACK CFI 178c8 .cfa: x29 96 + x19: .cfa -8 + ^ x20: .cfa -16 + ^ x21: .cfa -24 + ^ x22: .cfa -32 + ^ x23: .cfa -40 + ^ x24: .cfa -48 + ^ x25: .cfa -56 + ^ x26: .cfa -64 + ^ x27: .cfa -72 + ^ x28: .cfa -80 + ^ .ra: .cfa -88 + ^ x29: .cfa -96 + ^
STACK CFI 179b0 .cfa: sp 112 +
STACK CFI 179b4 .cfa: x29 96 +
STACK CFI 179bc .cfa: sp 112 +
STACK CFI 179d8 .cfa: sp 0 +
STACK CFI 179dc .cfa: x29 96 +
STACK CFI 179fc .cfa: sp 112 +
STACK CFI INIT 17a00 e54 .cfa: sp 0 +
STACK CFI 17a04 .cfa: sp 192 +
STACK CFI 17a20 .cfa: x29 96 + x19: .cfa -8 + ^ x20: .cfa -16 + ^ x21: .cfa -24 + ^ x22: .cfa -32 + ^ x23: .cfa -40 + ^ x24: .cfa -48 + ^ x25: .cfa -56 + ^ x26: .cfa -64 + ^ x27: .cfa -72 + ^ x28: .cfa -80 + ^ .ra: .cfa -88 + ^ x29: .cfa -96 + ^
STACK CFI 1873c .cfa: sp 192 +
STACK CFI 18758 .cfa: sp 0 +
STACK CFI 1875c .cfa: x29 96 +
STACK CFI INIT 18854 1068 .cfa: sp 0 +
STACK CFI 18858 .cfa: sp 288 +
STACK CFI 18874 .cfa: x29 96 + x19: .cfa -8 + ^ x20: .cfa -16 + ^ x21: .cfa -24 + ^ x22: .cfa -32 + ^ x23: .cfa -40 + ^ x24: .cfa -48 + ^ x25: .cfa -56 + ^ x26: .cfa -64 + ^ x27: .cfa -72 + ^ x28: .cfa -80 + ^ .ra: .cfa -88 + ^ x29: .cfa -96 + ^
STACK CFI 19604 .cfa: sp 288 +
STACK CFI 19620 .cfa: sp 0 +
STACK CFI 19624 .cfa: x29 96 +
STACK CFI INIT 198bc 520 .cfa: sp 0 +
STACK CFI 198c0 .cfa: sp 144 +
STACK CFI 198dc .cfa: x29 96 + x19: .cfa -8 + ^ x20: .cfa -16 + ^ x21: .cfa -24 + ^ x22: .cfa -32 + ^ x23: .cfa -40 + ^ x24: .cfa -48 + ^ x25: .cfa -56 + ^ x26: .cfa -64 + ^ x27: .cfa -72 + ^ x28: .cfa -80 + ^ .ra: .cfa -88 + ^ x29: .cfa -96 + ^
STACK CFI 19db8 .cfa: sp 144 +
STACK CFI 19dd4 .cfa: sp 0 +
STACK CFI 19dd8 .cfa: x29 96 +
STACK CFI INIT 1a77c 136c .cfa: sp 0 +
STACK CFI 1a780 .cfa: sp 224 +
STACK CFI 1a79c .cfa: x29 96 + x19: .cfa -8 + ^ x20: .cfa -16 + ^ x21: .cfa -24 + ^ x22: .cfa -32 + ^ x23: .cfa -40 + ^ x24: .cfa -48 + ^ x25: .cfa -56 + ^ x26: .cfa -64 + ^ x27: .cfa -72 + ^ x28: .cfa -80 + ^ .ra: .cfa -88 + ^ x29: .cfa -96 + ^
STACK CFI 1bac4 .cfa: sp 224 +
STACK CFI 1bae0 .cfa: sp 0 +
STACK CFI 1bae4 .cfa: x29 96 +
STACK CFI INIT 1bae8 1b8 .cfa: sp 0 +
STACK CFI INIT 6f20 bd4 .cfa: sp 0 +
STACK CFI 6f24 .cfa: sp 240 +
STACK CFI 6f40 .cfa: x29 96 + x19: .cfa -8 + ^ x20: .cfa -16 + ^ x21: .cfa -24 + ^ x22: .cfa -32 + ^ x23: .cfa -40 + ^ x24: .cfa -48 + ^ x25: .cfa -56 + ^ x26: .cfa -64 + ^ x27: .cfa -72 + ^ x28: .cfa -80 + ^ .ra: .cfa -88 + ^ x29: .cfa -96 + ^
STACK CFI 731c .cfa: sp 240 +
STACK CFI 7338 .cfa: sp 0 +
STACK CFI 733c .cfa: x29 96 +
STACK CFI 799c .cfa: sp 240 +
STACK CFI 79b8 .cfa: sp 0 +
STACK CFI 79bc .cfa: x29 96 +
STACK CFI INIT 7b0c 940 .cfa: sp 0 +
STACK CFI 7b10 .cfa: sp 304 +
STACK CFI 7b2c .cfa: x29 96 + x19: .cfa -8 + ^ x20: .cfa -16 + ^ x21: .cfa -24 + ^ x22: .cfa -32 + ^ x23: .cfa -40 + ^ x24: .cfa -48 + ^ x25: .cfa -56 + ^ x26: .cfa -64 + ^ x27: .cfa -72 + ^ x28: .cfa -80 + ^ .ra: .cfa -88 + ^ x29: .cfa -96 + ^
STACK CFI 81b4 .cfa: sp 304 +
STACK CFI 81d0 .cfa: sp 0 +
STACK CFI 81d4 .cfa: x29 96 +
STACK CFI INIT 849c 74 .cfa: sp 0 +
STACK CFI 84a0 .cfa: sp 48 +
STACK CFI 84ac .cfa: x29 32 + x19: .cfa -8 + ^ x20: .cfa -16 + ^ .ra: .cfa -24 + ^ x29: .cfa -32 + ^
STACK CFI 84f8 .cfa: sp 48 +
STACK CFI 8504 .cfa: sp 0 +
STACK CFI 8508 .cfa: x29 32 +
STACK CFI INIT 85a0 6fc .cfa: sp 0 +
STACK CFI 85a4 .cfa: sp 496 +
STACK CFI 85c0 .cfa: x29 96 + x19: .cfa -8 + ^ x20: .cfa -16 + ^ x21: .cfa -24 + ^ x22: .cfa -32 + ^ x23: .cfa -40 + ^ x24: .cfa -48 + ^ x25: .cfa -56 + ^ x26: .cfa -64 + ^ x27: .cfa -72 + ^ x28: .cfa -80 + ^ .ra: .cfa -88 + ^ x29: .cfa -96 + ^
STACK CFI 8b70 .cfa: sp 496 +
STACK CFI 8b8c .cfa: sp 0 +
STACK CFI 8b90 .cfa: x29 96 +
STACK CFI INIT 8d88 50 .cfa: sp 0 +
STACK CFI 8d8c .cfa: sp 32 +
STACK CFI 8d94 .cfa: x29 32 + x19: .cfa -8 + ^ x20: .cfa -16 + ^ .ra: .cfa -24 + ^ x29: .cfa -32 + ^
STACK CFI INIT 915c 63c .cfa: sp 0 +
STACK CFI 9160 .cfa: sp 224 +
STACK CFI 917c .cfa: x29 96 + x19: .cfa -8 + ^ x20: .cfa -16 + ^ x21: .cfa -24 + ^ x22: .cfa -32 + ^ x23: .cfa -40 + ^ x24: .cfa -48 + ^ x25: .cfa -56 + ^ x26: .cfa -64 + ^ x27: .cfa -72 + ^ x28: .cfa -80 + ^ .ra: .cfa -88 + ^ x29: .cfa -96 + ^
STACK CFI 9624 .cfa: sp 224 +
STACK CFI 9640 .cfa: sp 0 +
STACK CFI 9644 .cfa: x29 96 +
STACK CFI INIT 97d0 48 .cfa: sp 0 +
STACK CFI 97d4 .cfa: sp 32 +
STACK CFI 97dc .cfa: x29 32 + x19: .cfa -8 + ^ x20: .cfa -16 + ^ .ra: .cfa -24 + ^ x29: .cfa -32 + ^
STACK CFI INIT 9c08 25c .cfa: sp 0 +
STACK CFI 9c0c .cfa: sp 96 +
STACK CFI 9c24 .cfa: x29 96 + x19: .cfa -8 + ^ x20: .cfa -16 + ^ x21: .cfa -24 + ^ x22: .cfa -32 + ^ x23: .cfa -40 + ^ x24: .cfa -48 + ^ x25: .cfa -56 + ^ x26: .cfa -64 + ^ x27: .cfa -72 + ^ x28: .cfa -80 + ^ .ra: .cfa -88 + ^ x29: .cfa -96 + ^
STACK CFI 9da0 .cfa: sp 96 +
STACK CFI 9db8 .cfa: sp 0 +
STACK CFI 9dbc .cfa: x29 96 +
STACK CFI INIT a1d0 294 .cfa: sp 0 +
STACK CFI a1d4 .cfa: sp 240 +
STACK CFI a1ec .cfa: x29 80 + x19: .cfa -8 + ^ x20: .cfa -16 + ^ x21: .cfa -24 + ^ x22: .cfa -32 + ^ x23: .cfa -40 + ^ x24: .cfa -48 + ^ x25: .cfa -64 + ^ .ra: .cfa -72 + ^ x29: .cfa -80 + ^
STACK CFI a38c .cfa: sp 240 +
STACK CFI a3a4 .cfa: sp 0 +
STACK CFI a3a8 .cfa: x29 80 +
STACK CFI INIT a4e0 50 .cfa: sp 0 +
STACK CFI a4e4 .cfa: sp 32 +
STACK CFI a4ec .cfa: x29 32 + x19: .cfa -8 + ^ x20: .cfa -16 + ^ .ra: .cfa -24 + ^ x29: .cfa -32 + ^
STACK CFI INIT a55c 7c0 .cfa: sp 0 +
STACK CFI a560 .cfa: sp 320 +
STACK CFI a57c .cfa: x29 96 + x19: .cfa -8 + ^ x20: .cfa -16 + ^ x21: .cfa -24 + ^ x22: .cfa -32 + ^ x23: .cfa -40 + ^ x24: .cfa -48 + ^ x25: .cfa -56 + ^ x26: .cfa -64 + ^ x27: .cfa -72 + ^ x28: .cfa -80 + ^ .ra: .cfa -88 + ^ x29: .cfa -96 + ^
STACK CFI abcc .cfa: sp 320 +
STACK CFI abe8 .cfa: sp 0 +
STACK CFI abec .cfa: x29 96 +
STACK CFI INIT f09c c74 .cfa: sp 0 +
STACK CFI f0a0 .cfa: sp 96 +
STACK CFI f0b8 .cfa: x29 96 + x19: .cfa -8 + ^ x20: .cfa -16 + ^ x21: .cfa -24 + ^ x22: .cfa -32 + ^ x23: .cfa -40 + ^ x24: .cfa -48 + ^ x25: .cfa -56 + ^ x26: .cfa -64 + ^ x27: .cfa -72 + ^ x28: .cfa -80 + ^ .ra: .cfa -88 + ^ x29: .cfa -96 + ^
STACK CFI fb30 .cfa: sp 96 +
STACK CFI fb48 .cfa: sp 0 +
STACK CFI fb4c .cfa: x29 96 +
STACK CFI INIT fe64 26c .cfa: sp 0 +
STACK CFI fe68 .cfa: sp 128 +
STACK CFI fe78 .cfa: x29 48 + x19: .cfa -8 + ^ x20: .cfa -16 + ^ x21: .cfa -24 + ^ x22: .cfa -32 + ^ .ra: .cfa -40 + ^ x29: .cfa -48 + ^
STACK CFI 1001c .cfa: sp 128 +
STACK CFI 1002c .cfa: sp 0 +
STACK CFI 10030 .cfa: x29 48 +
STACK CFI INIT 1061c 3b8 .cfa: sp 0 +
STACK CFI 10620 .cfa: sp 96 +
STACK CFI 10638 .cfa: x29 96 + x19: .cfa -8 + ^ x20: .cfa -16 + ^ x21: .cfa -24 + ^ x22: .cfa -32 + ^ x23: .cfa -40 + ^ x24: .cfa -48 + ^ x25: .cfa -56 + ^ x26: .cfa -64 + ^ x27: .cfa -72 + ^ x28: .cfa -80 + ^ .ra: .cfa -88 + ^ x29: .cfa -96 + ^
STACK CFI 10974 .cfa: sp 96 +
STACK CFI 1098c .cfa: sp 0 +
STACK CFI 10990 .cfa: x29 96 +
STACK CFI INIT 10a74 cb4 .cfa: sp 0 +
STACK CFI 10a78 .cfa: sp 96 +
STACK CFI 10a90 .cfa: x29 96 + x19: .cfa -8 + ^ x20: .cfa -16 + ^ x21: .cfa -24 + ^ x22: .cfa -32 + ^ x23: .cfa -40 + ^ x24: .cfa -48 + ^ x25: .cfa -56 + ^ x26: .cfa -64 + ^ x27: .cfa -72 + ^ x28: .cfa -80 + ^ .ra: .cfa -88 + ^ x29: .cfa -96 + ^
STACK CFI 11538 .cfa: sp 96 +
STACK CFI 11550 .cfa: sp 0 +
STACK CFI 11554 .cfa: x29 96 +
STACK CFI INIT 11a10 afc .cfa: sp 0 +
STACK CFI 11a14 .cfa: sp 96 +
STACK CFI 11a2c .cfa: x29 96 + x19: .cfa -8 + ^ x20: .cfa -16 + ^ x21: .cfa -24 + ^ x22: .cfa -32 + ^ x23: .cfa -40 + ^ x24: .cfa -48 + ^ x25: .cfa -56 + ^ x26: .cfa -64 + ^ x27: .cfa -72 + ^ x28: .cfa -80 + ^ .ra: .cfa -88 + ^ x29: .cfa -96 + ^
STACK CFI 12480 .cfa: sp 96 +
STACK CFI 12498 .cfa: sp 0 +
STACK CFI 1249c .cfa: x29 96 +
STACK CFI INIT 126e8 1430 .cfa: sp 0 +
STACK CFI 126ec .cfa: sp 96 +
STACK CFI 12704 .cfa: x29 96 + x19: .cfa -8 + ^ x20: .cfa -16 + ^ x21: .cfa -24 + ^ x22: .cfa -32 + ^ x23: .cfa -40 + ^ x24: .cfa -48 + ^ x25: .cfa -56 + ^ x26: .cfa -64 + ^ x27: .cfa -72 + ^ x28: .cfa -80 + ^ .ra: .cfa -88 + ^ x29: .cfa -96 + ^
STACK CFI 139a0 .cfa: sp 96 +
STACK CFI 139b8 .cfa: sp 0 +
STACK CFI 139bc .cfa: x29 96 +
STACK CFI INIT 13c3c 75c .cfa: sp 0 +
STACK CFI 13c40 .cfa: sp 368 +
STACK CFI 13c5c .cfa: x29 96 + x19: .cfa -8 + ^ x20: .cfa -16 + ^ x21: .cfa -24 + ^ x22: .cfa -32 + ^ x23: .cfa -40 + ^ x24: .cfa -48 + ^ x25: .cfa -56 + ^ x26: .cfa -64 + ^ x27: .cfa -72 + ^ x28: .cfa -80 + ^ .ra: .cfa -88 + ^ x29: .cfa -96 + ^
STACK CFI 13d10 .cfa: sp 368 +
STACK CFI 13d2c .cfa: sp 0 +
STACK CFI 13d30 .cfa: x29 96 +
STACK CFI 13d84 .cfa: sp 368 +
STACK CFI 13da0 .cfa: sp 0 +
STACK CFI 13da4 .cfa: x29 96 +
STACK CFI INIT 14758 eb0 .cfa: sp 0 +
STACK CFI 1475c .cfa: sp 96 +
STACK CFI 14774 .cfa: x29 96 + x19: .cfa -8 + ^ x20: .cfa -16 + ^ x21: .cfa -24 + ^ x22: .cfa -32 + ^ x23: .cfa -40 + ^ x24: .cfa -48 + ^ x25: .cfa -56 + ^ x26: .cfa -64 + ^ x27: .cfa -72 + ^ x28: .cfa -80 + ^ .ra: .cfa -88 + ^ x29: .cfa -96 + ^
STACK CFI 1541c .cfa: sp 96 +
STACK CFI 15434 .cfa: sp 0 +
STACK CFI 15438 .cfa: x29 96 +
STACK CFI INIT 1597c 1c9c .cfa: sp 0 +
STACK CFI 15980 .cfa: sp 112 +
STACK CFI 1599c .cfa: x29 96 + x19: .cfa -8 + ^ x20: .cfa -16 + ^ x21: .cfa -24 + ^ x22: .cfa -32 + ^ x23: .cfa -40 + ^ x24: .cfa -48 + ^ x25: .cfa -56 + ^ x26: .cfa -64 + ^ x27: .cfa -72 + ^ x28: .cfa -80 + ^ .ra: .cfa -88 + ^ x29: .cfa -96 + ^ v8: .cfa -112 + ^
STACK CFI 15d84 .cfa: sp 112 +
STACK CFI 15da0 .cfa: sp 0 +
STACK CFI 15da4 .cfa: x29 96 +
STACK CFI INIT 19ddc 9a0 .cfa: sp 0 +
STACK CFI 19de0 .cfa: sp 144 +
STACK CFI 19df8 .cfa: x29 80 + x19: .cfa -8 + ^ x20: .cfa -16 + ^ x21: .cfa -24 + ^ x22: .cfa -32 + ^ x23: .cfa -40 + ^ x24: .cfa -48 + ^ x25: .cfa -64 + ^ .ra: .cfa -72 + ^ x29: .cfa -80 + ^
STACK CFI 1a6f8 .cfa: sp 144 +
STACK CFI 1a710 .cfa: sp 0 +
STACK CFI 1a714 .cfa: x29 80 +
STACK CFI INIT 1bca0 57c .cfa: sp 0 +
STACK CFI 1bca4 .cfa: sp 96 +
STACK CFI 1bcbc .cfa: x29 96 + x19: .cfa -8 + ^ x20: .cfa -16 + ^ x21: .cfa -24 + ^ x22: .cfa -32 + ^ x23: .cfa -40 + ^ x24: .cfa -48 + ^ x25: .cfa -56 + ^ x26: .cfa -64 + ^ x27: .cfa -72 + ^ x28: .cfa -80 + ^ .ra: .cfa -88 + ^ x29: .cfa -96 + ^
STACK CFI 1c180 .cfa: sp 96 +
STACK CFI 1c198 .cfa: sp 0 +
STACK CFI 1c19c .cfa: x29 96 +
STACK CFI INIT 1c21c 67c .cfa: sp 0 +
STACK CFI 1c220 .cfa: sp 96 +
STACK CFI 1c238 .cfa: x29 96 + x19: .cfa -8 + ^ x20: .cfa -16 + ^ x21: .cfa -24 + ^ x22: .cfa -32 + ^ x23: .cfa -40 + ^ x24: .cfa -48 + ^ x25: .cfa -56 + ^ x26: .cfa -64 + ^ x27: .cfa -72 + ^ x28: .cfa -80 + ^ .ra: .cfa -88 + ^ x29: .cfa -96 + ^
STACK CFI 1c7fc .cfa: sp 96 +
STACK CFI 1c814 .cfa: sp 0 +
STACK CFI 1c818 .cfa: x29 96 +
