MODULE Linux arm64 A6C5D28A30F434DE17EAC312468EB9E20 uproxide.animated_fire.android64.so
INFO CODE_ID 8AD2C5A6F430DE3417EAC312468EB9E2E2B3019B
INFO GENERATOR mozilla/dump_syms 2.3.4
PUBLIC a000 0 __on_dlclose
PUBLIC a010 0 __emutls_unregister_key
PUBLIC a018 0 __on_dlclose_late
PUBLIC a020 0 __atexit_handler_wrapper
PUBLIC a034 0 atexit
PUBLIC a050 0 pthread_atfork
PUBLIC a060 0 unwind_phase2
PUBLIC a194 0 _Unwind_Resume
PUBLIC a218 0 unwind_phase2_forced
PUBLIC m a30c 0 __unw_init_local
PUBLIC m a3b4 0 __unw_get_reg
PUBLIC a430 0 __unw_step_stage2
PUBLIC m a444 0 __unw_get_proc_info
PUBLIC m a484 0 __unw_resume
PUBLIC a4ac 0 libunwind::CFI_Parser<libunwind::LocalAddressSpace>::decodeFDE(libunwind::LocalAddressSpace&, unsigned long, libunwind::CFI_Parser<libunwind::LocalAddressSpace>::FDE_Info*, libunwind::CFI_Parser<libunwind::LocalAddressSpace>::CIE_Info*, bool)
PUBLIC a63c 0 libunwind::CFI_Parser<libunwind::LocalAddressSpace>::parseCIE(libunwind::LocalAddressSpace&, unsigned long, libunwind::CFI_Parser<libunwind::LocalAddressSpace>::CIE_Info*)
PUBLIC a904 0 libunwind::AbstractUnwindCursor::~AbstractUnwindCursor()
PUBLIC a90c 0 libunwind::UnwindCursor<libunwind::LocalAddressSpace, libunwind::Registers_arm64>::~UnwindCursor()
PUBLIC a914 0 libunwind::UnwindCursor<libunwind::LocalAddressSpace, libunwind::Registers_arm64>::validReg(int)
PUBLIC a958 0 libunwind::UnwindCursor<libunwind::LocalAddressSpace, libunwind::Registers_arm64>::getReg(int)
PUBLIC aa40 0 libunwind::UnwindCursor<libunwind::LocalAddressSpace, libunwind::Registers_arm64>::setReg(int, unsigned long)
PUBLIC ab28 0 libunwind::UnwindCursor<libunwind::LocalAddressSpace, libunwind::Registers_arm64>::validFloatReg(int)
PUBLIC ab3c 0 libunwind::UnwindCursor<libunwind::LocalAddressSpace, libunwind::Registers_arm64>::getFloatReg(int)
PUBLIC ab4c 0 libunwind::UnwindCursor<libunwind::LocalAddressSpace, libunwind::Registers_arm64>::setFloatReg(int, double)
PUBLIC ab5c 0 libunwind::UnwindCursor<libunwind::LocalAddressSpace, libunwind::Registers_arm64>::step(bool)
PUBLIC ac4c 0 libunwind::UnwindCursor<libunwind::LocalAddressSpace, libunwind::Registers_arm64>::getInfo(unw_proc_info_t*)
PUBLIC ac90 0 libunwind::UnwindCursor<libunwind::LocalAddressSpace, libunwind::Registers_arm64>::jumpto()
PUBLIC ac9c 0 libunwind::UnwindCursor<libunwind::LocalAddressSpace, libunwind::Registers_arm64>::isSignalFrame()
PUBLIC aca8 0 libunwind::UnwindCursor<libunwind::LocalAddressSpace, libunwind::Registers_arm64>::getFunctionName(char*, unsigned long, unsigned long*)
PUBLIC acd4 0 libunwind::UnwindCursor<libunwind::LocalAddressSpace, libunwind::Registers_arm64>::setInfoBasedOnIPRegister(bool)
PUBLIC af54 0 libunwind::UnwindCursor<libunwind::LocalAddressSpace, libunwind::Registers_arm64>::getRegisterName(int)
PUBLIC af60 0 libunwind::UnwindCursor<libunwind::LocalAddressSpace, libunwind::Registers_arm64>::stepThroughSigReturn(libunwind::Registers_arm64&)
PUBLIC b080 0 libunwind::DwarfInstructions<libunwind::LocalAddressSpace, libunwind::Registers_arm64>::stepWithDwarf(libunwind::LocalAddressSpace&, unsigned long, unsigned long, libunwind::Registers_arm64&, bool&, bool)
PUBLIC b508 0 libunwind::CFI_Parser<libunwind::LocalAddressSpace>::parseFDEInstructions(libunwind::LocalAddressSpace&, libunwind::CFI_Parser<libunwind::LocalAddressSpace>::FDE_Info const&, libunwind::CFI_Parser<libunwind::LocalAddressSpace>::CIE_Info const&, unsigned long, int, libunwind::CFI_Parser<libunwind::LocalAddressSpace>::PrologInfo*)
PUBLIC c150 0 libunwind::DwarfInstructions<libunwind::LocalAddressSpace, libunwind::Registers_arm64>::getCFA(libunwind::LocalAddressSpace&, libunwind::CFI_Parser<libunwind::LocalAddressSpace>::PrologInfo const&, libunwind::Registers_arm64 const&)
PUBLIC c284 0 libunwind::DwarfInstructions<libunwind::LocalAddressSpace, libunwind::Registers_arm64>::getSavedRegister(libunwind::LocalAddressSpace&, libunwind::Registers_arm64 const&, unsigned long, libunwind::CFI_Parser<libunwind::LocalAddressSpace>::RegisterLocation const&)
PUBLIC c494 0 libunwind::LocalAddressSpace::getEncodedP(unsigned long&, unsigned long, unsigned char, unsigned long)
PUBLIC c820 0 libunwind::LocalAddressSpace::getULEB128(unsigned long&, unsigned long)
PUBLIC c9e8 0 libunwind::DwarfInstructions<libunwind::LocalAddressSpace, libunwind::Registers_arm64>::evaluateExpression(unsigned long, libunwind::LocalAddressSpace&, libunwind::Registers_arm64 const&, unsigned long)
PUBLIC d3a4 0 libunwind::UnwindCursor<libunwind::LocalAddressSpace, libunwind::Registers_arm64>::getInfoFromDwarfSection(unsigned long, libunwind::UnwindInfoSections const&, unsigned int)
PUBLIC d678 0 libunwind::findUnwindSectionsByPhdr(dl_phdr_info*, unsigned long, void*)
PUBLIC d7ac 0 libunwind::EHHeaderParser<libunwind::LocalAddressSpace>::decodeEHHdr(libunwind::LocalAddressSpace&, unsigned long, unsigned long, libunwind::EHHeaderParser<libunwind::LocalAddressSpace>::EHHeaderInfo&)
PUBLIC d8cc 0 libunwind::CFI_Parser<libunwind::LocalAddressSpace>::findFDE(libunwind::LocalAddressSpace&, unsigned long, unsigned long, unsigned long, unsigned long, libunwind::CFI_Parser<libunwind::LocalAddressSpace>::FDE_Info*, libunwind::CFI_Parser<libunwind::LocalAddressSpace>::CIE_Info*)
PUBLIC da94 0 libunwind::EHHeaderParser<libunwind::LocalAddressSpace>::findFDE(libunwind::LocalAddressSpace&, unsigned long, unsigned long, unsigned int, libunwind::CFI_Parser<libunwind::LocalAddressSpace>::FDE_Info*, libunwind::CFI_Parser<libunwind::LocalAddressSpace>::CIE_Info*)
PUBLIC dbfc 0 libunwind::EHHeaderParser<libunwind::LocalAddressSpace>::getTableEntrySize(unsigned char)
PUBLIC dcf8 0 libunwind::Registers_arm64::getRegisterName(int)
PUBLIC dd28 0 __libunwind_Registers_arm64_jumpto
PUBLIC m ddb8 0 __unw_getcontext
PUBLIC de60 0 __aarch64_ldadd8_relax
PUBLIC de90 0 init_have_lse_atomics
PUBLIC df28 0 __init_cpu_features_constructor
PUBLIC e4c4 0 __init_cpu_features
PUBLIC e550 0 __aarch64_ldadd8_acq_rel
PUBLIC e580 0 __cxx_global_var_init
PUBLIC e9bc 0 geode::modifier::ModifyBase<geode::modifier::ModifyDerive<hook7<(anonymous namespace)::hook7Parent>, GJDifficultySprite> >::~ModifyBase()
PUBLIC e9d8 0 geode::modifier::ModifyDerive<hook7<(anonymous namespace)::hook7Parent>, GJDifficultySprite>::apply()
PUBLIC f08c 0 std::__ndk1::shared_ptr<geode::Hook>::~shared_ptr[abi:ne180000]()
PUBLIC f0dc 0 geode::impl::ResultData<geode::Hook*, std::__ndk1::basic_string<char, std::__ndk1::char_traits<char>, std::__ndk1::allocator<char> > >::~ResultData()
PUBLIC f150 0 std::__ndk1::vector<std::__ndk1::basic_string<char, std::__ndk1::char_traits<char>, std::__ndk1::allocator<char> >, std::__ndk1::allocator<std::__ndk1::basic_string<char, std::__ndk1::char_traits<char>, std::__ndk1::allocator<char> > > >::~vector[abi:ne180000]()
PUBLIC f1cc 0 geode::modifier::ModifyBase<geode::modifier::ModifyDerive<hook7<(anonymous namespace)::hook7Parent>, GJDifficultySprite> >::apply()
PUBLIC f1d0 0 __clang_call_terminate
PUBLIC f1e0 0 _ZN5geode15UnwrapExceptionC2IRPNS_4HookEQsr4implE18IsStringStreamableIT_EEENS_4impl5OkTagEOS5_
PUBLIC f334 0 std::__ndk1::__throw_bad_variant_access[abi:ne180000]()
PUBLIC f368 0 std::__ndk1::basic_stringstream<char, std::__ndk1::char_traits<char>, std::__ndk1::allocator<char> >::basic_stringstream[abi:ne180000]()
PUBLIC m f494 0 std::__ndk1::basic_stringstream<char, std::__ndk1::char_traits<char>, std::__ndk1::allocator<char> >::~basic_stringstream()
PUBLIC f514 0 geode::UnwrapException::~UnwrapException()
PUBLIC f538 0 std::__ndk1::__put_character_sequence[abi:ne180000]<char, std::__ndk1::char_traits<char> >(std::__ndk1::basic_ostream<char, std::__ndk1::char_traits<char> >, std::__ndk1::basic_ostream const*, unsigned long)
PUBLIC f6dc 0 std::__ndk1::__pad_and_output[abi:ne180000]<char, std::__ndk1::char_traits<char> >(std::__ndk1::char_traits<char>, std::__ndk1::ostreambuf_iterator const*, std::__ndk1::ostreambuf_iterator const, std::__ndk1::ostreambuf_iterator const, std::__ndk1::ios_base&, std::__ndk1::ostreambuf_iterator)
PUBLIC f8b8 0 std::__ndk1::basic_string<char, std::__ndk1::char_traits<char>, std::__ndk1::allocator<char> >::__throw_length_error[abi:ne180000]() const
PUBLIC f8cc 0 std::__ndk1::__throw_length_error[abi:ne180000](char const*)
PUBLIC f91c 0 std::length_error::length_error[abi:ne180000](char const*)
PUBLIC f94c 0 std::__throw_bad_array_new_length([abi:ne180000], void)
PUBLIC f980 0 std::__ndk1::basic_stringbuf<char, std::__ndk1::char_traits<char>, std::__ndk1::allocator<char> >::str[abi:ne180000]() &&
PUBLIC faf8 0 std::__ndk1::basic_stringbuf<char, std::__ndk1::char_traits<char>, std::__ndk1::allocator<char> >::__init_buf_ptrs[abi:ne180000]()
PUBLIC fc40 0 std::__ndk1::vector<std::__ndk1::basic_string<char, std::__ndk1::char_traits<char>, std::__ndk1::allocator<char> >, std::__ndk1::allocator<std::__ndk1::basic_string<char, std::__ndk1::char_traits<char>, std::__ndk1::allocator<char> > > >::__push_back_slow_path<std::__ndk1::basic_string<char, std::__ndk1::char_traits<char>, std::__ndk1::allocator<char> > const&>(std::__ndk1::basic_string<char, std::__ndk1::char_traits<char>, std::__ndk1::allocator<char> > const&)
PUBLIC fe68 0 std::__ndk1::basic_string<char, std::__ndk1::char_traits<char>, std::__ndk1::allocator<char> >::__init_copy_ctor_external(char const*, unsigned long)
PUBLIC fee8 0 std::__ndk1::__split_buffer<std::__ndk1::basic_string<char, std::__ndk1::char_traits<char>, std::__ndk1::allocator<char> >, std::__ndk1::allocator<std::__ndk1::basic_string<char, std::__ndk1::char_traits<char>, std::__ndk1::allocator<char> > >&>::~__split_buffer()
PUBLIC ff50 0 std::__ndk1::vector<std::__ndk1::basic_string<char, std::__ndk1::char_traits<char>, std::__ndk1::allocator<char> >, std::__ndk1::allocator<std::__ndk1::basic_string<char, std::__ndk1::char_traits<char>, std::__ndk1::allocator<char> > > >::__throw_length_error[abi:ne180000]() const
PUBLIC ff64 0 std::__ndk1::__variant_detail::__visitation::__base::__dispatcher<(unsigned long)0>::__dispatch[abi:ne180000]<std::__ndk1::__variant_detail::__dtor<std::__ndk1::__variant_detail::__traits<geode::Hook*, std::__ndk1::basic_string<char, std::__ndk1::char_traits<char>, std::__ndk1::allocator<char> > >, (std::__ndk1::__variant_detail::_Trait)1>::__destroy[abi:ne180000]()::{lambda(auto:1&)#1}, std::__ndk1::__variant_detail::__base<(std::__ndk1::__variant_detail::__traits<geode::Hook*, std::__ndk1::basic_string<char, std::__ndk1::char_traits<char>, std::__ndk1::allocator<char> > >)1, geode::Hook, std::__ndk1::allocator<char> >&>(std::__ndk1::__variant_detail::__dtor<std::__ndk1::__variant_detail::__traits<geode::Hook*, std::__ndk1::basic_string<char, std::__ndk1::char_traits<char>, std::__ndk1::allocator<char> > >, (std::__ndk1::__variant_detail::_Trait)1>, std::__ndk1::__variant_detail::__base<(std::__ndk1::__variant_detail::__traits<geode::Hook*, std::__ndk1::basic_string<char, std::__ndk1::char_traits<char>, std::__ndk1::allocator<char> > >)1, geode::Hook, std::__ndk1::allocator<char> >&)
PUBLIC ff68 0 std::__ndk1::__variant_detail::__visitation::__base::__dispatcher<(unsigned long)1>::__dispatch[abi:ne180000]<std::__ndk1::__variant_detail::__dtor<std::__ndk1::__variant_detail::__traits<geode::Hook*, std::__ndk1::basic_string<char, std::__ndk1::char_traits<char>, std::__ndk1::allocator<char> > >, (std::__ndk1::__variant_detail::_Trait)1>::__destroy[abi:ne180000]()::{lambda(auto:1&)#1}, std::__ndk1::__variant_detail::__base<(std::__ndk1::__variant_detail::__traits<geode::Hook*, std::__ndk1::basic_string<char, std::__ndk1::char_traits<char>, std::__ndk1::allocator<char> > >)1, geode::Hook, std::__ndk1::allocator<char> >&>(std::__ndk1::__variant_detail::__dtor<std::__ndk1::__variant_detail::__traits<geode::Hook*, std::__ndk1::basic_string<char, std::__ndk1::char_traits<char>, std::__ndk1::allocator<char> > >, (std::__ndk1::__variant_detail::_Trait)1>, std::__ndk1::__variant_detail::__base<(std::__ndk1::__variant_detail::__traits<geode::Hook*, std::__ndk1::basic_string<char, std::__ndk1::char_traits<char>, std::__ndk1::allocator<char> > >)1, geode::Hook, std::__ndk1::allocator<char> >&)
PUBLIC ff7c 0 std::__ndk1::__tree<std::__ndk1::__value_type<std::__ndk1::basic_string<char, std::__ndk1::char_traits<char>, std::__ndk1::allocator<char> >, std::__ndk1::shared_ptr<geode::Hook> >, std::__ndk1::__map_value_compare<std::__ndk1::basic_string<char, std::__ndk1::char_traits<char>, std::__ndk1::allocator<char> >, std::__ndk1::__value_type<std::__ndk1::basic_string<char, std::__ndk1::char_traits<char>, std::__ndk1::allocator<char> >, std::__ndk1::shared_ptr<geode::Hook> >, std::__ndk1::less<std::__ndk1::basic_string<char, std::__ndk1::char_traits<char>, std::__ndk1::allocator<char> > >, true>, std::__ndk1::allocator<std::__ndk1::__value_type<std::__ndk1::basic_string<char, std::__ndk1::char_traits<char>, std::__ndk1::allocator<char> >, std::__ndk1::shared_ptr<geode::Hook> > > >::find<std::__ndk1::basic_string<char, std::__ndk1::char_traits<char>, std::__ndk1::allocator<char> > >(std::__ndk1::basic_string<char, std::__ndk1::char_traits<char>, std::__ndk1::allocator<char> > const&)
PUBLIC 1009c 0 std::__ndk1::__tree<std::__ndk1::__value_type<std::__ndk1::basic_string<char, std::__ndk1::char_traits<char>, std::__ndk1::allocator<char> >, std::__ndk1::shared_ptr<geode::Hook> >, std::__ndk1::__map_value_compare<std::__ndk1::basic_string<char, std::__ndk1::char_traits<char>, std::__ndk1::allocator<char> >, std::__ndk1::__value_type<std::__ndk1::basic_string<char, std::__ndk1::char_traits<char>, std::__ndk1::allocator<char> >, std::__ndk1::shared_ptr<geode::Hook> >, std::__ndk1::less<std::__ndk1::basic_string<char, std::__ndk1::char_traits<char>, std::__ndk1::allocator<char> > >, true>, std::__ndk1::allocator<std::__ndk1::__value_type<std::__ndk1::basic_string<char, std::__ndk1::char_traits<char>, std::__ndk1::allocator<char> >, std::__ndk1::shared_ptr<geode::Hook> > > >::erase(std::__ndk1::__tree_const_iterator<std::__ndk1::__value_type<std::__ndk1::basic_string<char, std::__ndk1::char_traits<char>, std::__ndk1::allocator<char> >, std::__ndk1::shared_ptr<geode::Hook> >, std::__ndk1::__tree_node<std::__ndk1::__value_type<std::__ndk1::basic_string<char, std::__ndk1::char_traits<char>, std::__ndk1::allocator<char> >, std::__ndk1::shared_ptr<geode::Hook> >, void*>*, long>)
PUBLIC 10170 0 std::__ndk1::__tree_remove[abi:ne180000]<std::__ndk1::__tree_node_base<void*>*>(std::__ndk1::__tree_node_base<void*>*, std::__ndk1::__tree_node_base<void*>*)
PUBLIC 10538 0 std::__ndk1::__tree<std::__ndk1::__value_type<std::__ndk1::basic_string<char, std::__ndk1::char_traits<char>, std::__ndk1::allocator<char> >, std::__ndk1::shared_ptr<geode::Hook> >, std::__ndk1::__map_value_compare<std::__ndk1::basic_string<char, std::__ndk1::char_traits<char>, std::__ndk1::allocator<char> >, std::__ndk1::__value_type<std::__ndk1::basic_string<char, std::__ndk1::char_traits<char>, std::__ndk1::allocator<char> >, std::__ndk1::shared_ptr<geode::Hook> >, std::__ndk1::less<std::__ndk1::basic_string<char, std::__ndk1::char_traits<char>, std::__ndk1::allocator<char> > >, true>, std::__ndk1::allocator<std::__ndk1::__value_type<std::__ndk1::basic_string<char, std::__ndk1::char_traits<char>, std::__ndk1::allocator<char> >, std::__ndk1::shared_ptr<geode::Hook> > > >::destroy(std::__ndk1::__tree_node<std::__ndk1::__value_type<std::__ndk1::basic_string<char, std::__ndk1::char_traits<char>, std::__ndk1::allocator<char> >, std::__ndk1::shared_ptr<geode::Hook> >, void*>*)
PUBLIC 105c4 0 geode::modifier::AsStaticFunction_updateDifficultyFrame<hook7<(anonymous namespace)::hook7Parent>, void (hook7<(anonymous namespace)::hook7Parent>::*)(int, GJDifficultyName)>::Impl<void (hook7<(anonymous namespace)::hook7Parent>::*)(int, GJDifficultyName)>::function(hook7<(anonymous namespace)::hook7Parent>*, int, GJDifficultyName)
PUBLIC 1064c 0 geode::modifier::AsStaticFunction_updateFeatureState<hook7<(anonymous namespace)::hook7Parent>, void (hook7<(anonymous namespace)::hook7Parent>::*)(GJFeatureState)>::Impl<void (hook7<(anonymous namespace)::hook7Parent>::*)(GJFeatureState)>::function(hook7<(anonymous namespace)::hook7Parent>*, GJFeatureState)
PUBLIC 10bdc 0 std::__ndk1::shared_ptr<tulip::hook::CallingConvention>::~shared_ptr[abi:ne180000]()
PUBLIC 10c2c 0 tulip::hook::HandlerMetadata::~HandlerMetadata()
PUBLIC 10c90 0 geode::modifier::FieldIntermediate<hook7<(anonymous namespace)::hook7Parent>, GJDifficultySprite>::self()
PUBLIC 112cc 0 geode::modifier::FieldIntermediate<hook7<(anonymous namespace)::hook7Parent>, GJDifficultySprite>::fieldDestructor(void*)
PUBLIC 112d0 0 std::__ndk1::vector<void*, std::__ndk1::allocator<void*> >::__throw_length_error[abi:ne180000]() const
PUBLIC 112e4 0 std::__ndk1::vector<std::__ndk1::function<void (void*)>, std::__ndk1::allocator<std::__ndk1::function<void (void*)> > >::__throw_length_error[abi:ne180000]() const
PUBLIC 112f8 0 std::__ndk1::vector<void*, std::__ndk1::allocator<void*> >::__throw_out_of_range[abi:ne180000]() const
PUBLIC 11304 0 std::__ndk1::__throw_out_of_range[abi:ne180000](char const*)
PUBLIC 1134c 0 std::out_of_range::out_of_range[abi:ne180000](char const*)
PUBLIC 11384 0 std::__ndk1::vector<std::__ndk1::function<void (void*)>, std::__ndk1::allocator<std::__ndk1::function<void (void*)> > >::__throw_out_of_range[abi:ne180000]() const
PUBLIC 11390 0 std::__ndk1::__function::__base<void (void*)>::~__base()
PUBLIC 11394 0 std::__ndk1::__function::__func<void (*)(void*), std::__ndk1::allocator<void (*)(void*)>, void (void*)>::~__func()
PUBLIC 11398 0 std::__ndk1::__function::__func<void (*)(void*), std::__ndk1::allocator<void (*)(void*)>, void (void*)>::__clone() const
PUBLIC 113d0 0 std::__ndk1::__function::__func<void (*)(void*), std::__ndk1::allocator<void (*)(void*)>, void (void*)>::__clone(std::__ndk1::__function::__base<void (void*)>*) const
PUBLIC 113e8 0 std::__ndk1::__function::__func<void (*)(void*), std::__ndk1::allocator<void (*)(void*)>, void (void*)>::destroy()
PUBLIC 113ec 0 std::__ndk1::__function::__func<void (*)(void*), std::__ndk1::allocator<void (*)(void*)>, void (void*)>::destroy_deallocate()
PUBLIC 113f0 0 std::__ndk1::__function::__func<void (*)(void*), std::__ndk1::allocator<void (*)(void*)>, void (void*)>::operator()(void*&&)
PUBLIC 11400 0 std::__ndk1::__function::__func<void (*)(void*), std::__ndk1::allocator<void (*)(void*)>, void (void*)>::target(std::type_info const&) const
PUBLIC 1141c 0 std::__ndk1::__function::__func<void (*)(void*), std::__ndk1::allocator<void (*)(void*)>, void (void*)>::target_type() const
PUBLIC 11428 0 std::__ndk1::__tree<std::__ndk1::__value_type<std::__ndk1::basic_string<char, std::__ndk1::char_traits<char>, std::__ndk1::allocator<char> >, std::__ndk1::shared_ptr<geode::Hook> >, std::__ndk1::__map_value_compare<std::__ndk1::basic_string<char, std::__ndk1::char_traits<char>, std::__ndk1::allocator<char> >, std::__ndk1::__value_type<std::__ndk1::basic_string<char, std::__ndk1::char_traits<char>, std::__ndk1::allocator<char> >, std::__ndk1::shared_ptr<geode::Hook> >, std::__ndk1::less<std::__ndk1::basic_string<char, std::__ndk1::char_traits<char>, std::__ndk1::allocator<char> > >, true>, std::__ndk1::allocator<std::__ndk1::__value_type<std::__ndk1::basic_string<char, std::__ndk1::char_traits<char>, std::__ndk1::allocator<char> >, std::__ndk1::shared_ptr<geode::Hook> > > >::__emplace_unique_key_args<std::__ndk1::basic_string<char, std::__ndk1::char_traits<char>, std::__ndk1::allocator<char> >, std::__ndk1::piecewise_construct_t const&, std::__ndk1::tuple<std::__ndk1::basic_string<char, std::__ndk1::char_traits<char>, std::__ndk1::allocator<char> >&&>, std::__ndk1::tuple<> >(std::__ndk1::basic_string<char, std::__ndk1::char_traits<char>, std::__ndk1::allocator<char> > const&, std::__ndk1::piecewise_construct_t const&, std::__ndk1::tuple<std::__ndk1::basic_string<char, std::__ndk1::char_traits<char>, std::__ndk1::allocator<char> >&&>, std::__ndk1::tuple<>)
PUBLIC 115a0 0 std::__ndk1::__tree_balance_after_insert[abi:ne180000]<std::__ndk1::__tree_node_base<void*>*>(std::__ndk1::__tree_node_base<void*>*, std::__ndk1::__tree_node_base<void*>*)
PUBLIC 11750 0 std::__ndk1::__independent_bits_engine<std::__ndk1::mersenne_twister_engine<unsigned long, (unsigned long)32, (unsigned long)624, (unsigned long)397, (unsigned long)31, (unsigned long)2567483615, (unsigned long)11, (unsigned long)4294967295, (unsigned long)7, (unsigned long)2636928640, (unsigned long)15, (unsigned long)4022730752, (unsigned long)18, (unsigned long)1812433253>, unsigned int>::__eval(std::__ndk1::integral_constant<bool, true>)
PUBLIC 11950 0 __cxx_global_var_init
PUBLIC 11dd0 0 geode::modifier::ModifyBase<geode::modifier::ModifyDerive<MyLevelCell, LevelCell> >::~ModifyBase()
PUBLIC 11dec 0 geode::modifier::ModifyDerive<MyLevelCell, LevelCell>::apply()
PUBLIC 1216c 0 geode::modifier::ModifyBase<geode::modifier::ModifyDerive<MyLevelCell, LevelCell> >::apply()
PUBLIC 12170 0 geode::modifier::AsStaticFunction_loadFromLevel<MyLevelCell, void (MyLevelCell::*)(GJGameLevel*)>::Impl<void (MyLevelCell::*)(GJGameLevel*)>::function(MyLevelCell*, GJGameLevel*)
PUBLIC 12398 0 std::__ndk1::__function::__base<void ()>::~__base()
PUBLIC 1239c 0 std::__ndk1::__function::__func<MyLevelCell::loadFromLevel(GJGameLevel*)::{lambda()#1}, std::__ndk1::allocator<MyLevelCell::loadFromLevel(GJGameLevel*)::{lambda()#1}>, void ()>::~__func()
PUBLIC 123a0 0 std::__ndk1::__function::__func<MyLevelCell::loadFromLevel(GJGameLevel*)::{lambda()#1}, std::__ndk1::allocator<MyLevelCell::loadFromLevel(GJGameLevel*)::{lambda()#1}>, void ()>::__clone() const
PUBLIC 123e0 0 std::__ndk1::__function::__func<MyLevelCell::loadFromLevel(GJGameLevel*)::{lambda()#1}, std::__ndk1::allocator<MyLevelCell::loadFromLevel(GJGameLevel*)::{lambda()#1}>, void ()>::__clone(std::__ndk1::__function::__base<void ()>*) const
PUBLIC 12400 0 std::__ndk1::__function::__func<MyLevelCell::loadFromLevel(GJGameLevel*)::{lambda()#1}, std::__ndk1::allocator<MyLevelCell::loadFromLevel(GJGameLevel*)::{lambda()#1}>, void ()>::destroy()
PUBLIC 12404 0 std::__ndk1::__function::__func<MyLevelCell::loadFromLevel(GJGameLevel*)::{lambda()#1}, std::__ndk1::allocator<MyLevelCell::loadFromLevel(GJGameLevel*)::{lambda()#1}>, void ()>::destroy_deallocate()
PUBLIC 12408 0 std::__ndk1::__function::__func<MyLevelCell::loadFromLevel(GJGameLevel*)::{lambda()#1}, std::__ndk1::allocator<MyLevelCell::loadFromLevel(GJGameLevel*)::{lambda()#1}>, void ()>::operator()()
PUBLIC 1277c 0 std::__ndk1::__function::__func<MyLevelCell::loadFromLevel(GJGameLevel*)::{lambda()#1}, std::__ndk1::allocator<MyLevelCell::loadFromLevel(GJGameLevel*)::{lambda()#1}>, void ()>::target(std::type_info const&) const
PUBLIC 12798 0 std::__ndk1::__function::__func<MyLevelCell::loadFromLevel(GJGameLevel*)::{lambda()#1}, std::__ndk1::allocator<MyLevelCell::loadFromLevel(GJGameLevel*)::{lambda()#1}>, void ()>::target_type() const
PUBLIC 127a4 0 geode::cast::traverseTypeinfoFor(void*, geode::cast::ClassTypeinfoType const*, char const*)
PUBLIC 1289c 0 __cxx_global_var_init
PUBLIC 12cd8 0 geode::modifier::ModifyBase<geode::modifier::ModifyDerive<hook6<(anonymous namespace)::hook6Parent>, LevelInfoLayer> >::~ModifyBase()
PUBLIC 12cf4 0 geode::modifier::ModifyDerive<hook6<(anonymous namespace)::hook6Parent>, LevelInfoLayer>::apply()
PUBLIC 136b4 0 geode::modifier::ModifyBase<geode::modifier::ModifyDerive<hook6<(anonymous namespace)::hook6Parent>, LevelInfoLayer> >::apply()
PUBLIC 136b8 0 geode::modifier::AsStaticFunction_levelDownloadFinished<hook6<(anonymous namespace)::hook6Parent>, void (hook6<(anonymous namespace)::hook6Parent>::*)(GJGameLevel*)>::Impl<void (hook6<(anonymous namespace)::hook6Parent>::*)(GJGameLevel*)>::function(hook6<(anonymous namespace)::hook6Parent>*, GJGameLevel*)
PUBLIC 1374c 0 geode::modifier::AsStaticFunction_likedItem<hook6<(anonymous namespace)::hook6Parent>, void (hook6<(anonymous namespace)::hook6Parent>::*)(LikeItemType, int, bool)>::Impl<void (hook6<(anonymous namespace)::hook6Parent>::*)(LikeItemType, int, bool)>::function(hook6<(anonymous namespace)::hook6Parent>*, LikeItemType, int, bool)
PUBLIC 137e0 0 geode::modifier::AsStaticFunction_init<hook6<(anonymous namespace)::hook6Parent>, bool (hook6<(anonymous namespace)::hook6Parent>::*)(GJGameLevel*, bool)>::Impl<bool (hook6<(anonymous namespace)::hook6Parent>::*)(GJGameLevel*, bool)>::function(hook6<(anonymous namespace)::hook6Parent>*, GJGameLevel*, bool)
PUBLIC 13880 0 geode::addresser::Addresser::addressOfVirtual<void, LevelInfoLayer, GJGameLevel*>(void (LevelInfoLayer::*)(GJGameLevel*))
PUBLIC 13928 0 LevelInfoLayer::LevelInfoLayer(geode::ZeroConstructorType)
PUBLIC 139d4 0 geode::addresser::Addresser::addressOfVirtual<void, LevelInfoLayer, LikeItemType, int, bool>(void (LevelInfoLayer::*)(LikeItemType, int, bool))
PUBLIC m 13a7c 0 geodeImplicitEntry
PUBLIC 13ab8 0 __udivti3
PUBLIC 13ac4 0 __udivmodti4
PUBLIC m 13d10 0 __eqtf2
PUBLIC 13db0 0 __unordtf2
PUBLIC 13de8 0 fmt::v11::detail::write_loc(fmt::v11::basic_appender<char>, fmt::v11::loc_value, fmt::v11::format_specs const&, fmt::v11::detail::locale_ref)
PUBLIC 1407c 0 fmt::v11::format_facet<std::__ndk1::locale>::~format_facet()
PUBLIC 140f8 0 fmt::v11::report_error(char const*)
PUBLIC 14148 0 fmt::v11::format_error::runtime_error(char const*)
PUBLIC 14174 0 fmt::v11::format_facet<std::__ndk1::locale>::do_put(fmt::v11::basic_appender<char>, fmt::v11::loc_value, fmt::v11::format_specs const&) const
PUBLIC 14934 0 fmt::v11::detail::loc_writer<char>::~loc_writer()
PUBLIC 14998 0 fmt::v11::detail::vformat_to<char>(fmt::v11::detail::buffer<char>&, fmt::v11::basic_string_view<char>, fmt::v11::detail::vformat_args<char>::type, fmt::v11::detail::locale_ref)
PUBLIC 14f08 0 fmt::v11::detail::is_printable(unsigned int)
PUBLIC 15130 0 fmt::v11::detail::dragonbox::to_decimal<float>(float)
PUBLIC 1540c 0 fmt::v11::detail::dragonbox::to_decimal<double>(double)
PUBLIC 15948 0 fmt::v11::basic_memory_buffer<char, (unsigned long)500, std::__ndk1::allocator<char> >::grow(fmt::v11::detail::buffer<char>&, unsigned long)
PUBLIC 159c0 0 fmt::v11::format_facet<std::__ndk1::locale>::~format_facet()
PUBLIC 15a4c 0 fmt::v11::format_error::~format_error()
PUBLIC 15a70 0 fmt::v11::detail::copy_noinline<char, char const*, fmt::v11::basic_appender<char> >(char const*, char const*, fmt::v11::basic_appender<char>)
PUBLIC 15bc0 0 fmt::v11::detail::default_arg_formatter<char>::operator()<bool>(bool)
PUBLIC 15c28 0 fmt::v11::detail::default_arg_formatter<char>::operator()<char>(char)
PUBLIC 15cb8 0 fmt::v11::detail::default_arg_formatter<char>::operator()<float>(float)
PUBLIC 15da4 0 fmt::v11::detail::default_arg_formatter<char>::operator()<double>(double)
PUBLIC 15e90 0 fmt::v11::detail::default_arg_formatter<char>::operator()<char const*>(char const*)
PUBLIC 15ed8 0 fmt::v11::detail::default_arg_formatter<char>::operator()<void const*>(void const*)
PUBLIC 15f70 0 _ZN3fmt3v116detail5writeIcNS0_14basic_appenderIcEEiTnNSt6__ndk19enable_ifIXaaaasr11is_integralIT1_EE5valuentsr3std7is_sameIS7_bEE5valuentsr3std7is_sameIS7_T_EE5valueEiE4typeELi0EEET0_SB_S7_
PUBLIC 161d0 0 fmt::v11::detail::copy_noinline<char, char*, fmt::v11::basic_appender<char> >(char*, char*, fmt::v11::basic_appender<char>)
PUBLIC 16320 0 _ZN3fmt3v116detail5writeIcNS0_14basic_appenderIcEEjTnNSt6__ndk19enable_ifIXaaaasr11is_integralIT1_EE5valuentsr3std7is_sameIS7_bEE5valuentsr3std7is_sameIS7_T_EE5valueEiE4typeELi0EEET0_SB_S7_
PUBLIC 16500 0 _ZN3fmt3v116detail5writeIcNS0_14basic_appenderIcEExTnNSt6__ndk19enable_ifIXaaaasr11is_integralIT1_EE5valuentsr3std7is_sameIS7_bEE5valuentsr3std7is_sameIS7_T_EE5valueEiE4typeELi0EEET0_SB_S7_
PUBLIC 16784 0 _ZN3fmt3v116detail5writeIcNS0_14basic_appenderIcEEyTnNSt6__ndk19enable_ifIXaaaasr11is_integralIT1_EE5valuentsr3std7is_sameIS7_bEE5valuentsr3std7is_sameIS7_T_EE5valueEiE4typeELi0EEET0_SB_S7_
PUBLIC 1698c 0 _ZN3fmt3v116detail5writeIcNS0_14basic_appenderIcEEnTnNSt6__ndk19enable_ifIXaaaasr11is_integralIT1_EE5valuentsr3std7is_sameIS7_bEE5valuentsr3std7is_sameIS7_T_EE5valueEiE4typeELi0EEET0_SB_S7_
PUBLIC 16cec 0 _ZN3fmt3v116detail5writeIcNS0_14basic_appenderIcEEoTnNSt6__ndk19enable_ifIXaaaasr11is_integralIT1_EE5valuentsr3std7is_sameIS7_bEE5valuentsr3std7is_sameIS7_T_EE5valueEiE4typeELi0EEET0_SB_S7_
PUBLIC 17000 0 _ZN3fmt3v116detail5writeIcNS0_14basic_appenderIcEEbTnNSt6__ndk19enable_ifIXsr3std7is_sameIT1_bEE5valueEiE4typeELi0EEET0_SA_S7_RKNS0_12format_specsENS1_10locale_refE
PUBLIC 17290 0 fmt::v11::detail::write_int_noinline<char, fmt::v11::basic_appender<char>, unsigned int>(fmt::v11::basic_appender<char>, fmt::v11::detail::write_int_arg<unsigned int>, fmt::v11::format_specs const&, fmt::v11::detail::locale_ref)
PUBLIC 1806c 0 fmt::v11::detail::fill<char, fmt::v11::basic_appender<char> >(fmt::v11::basic_appender<char>, unsigned long, fmt::v11::detail::fill_t const&)
PUBLIC 1823c 0 fmt::v11::detail::write_padded<char, (fmt::v11::align::type)1, fmt::v11::basic_appender<char>, fmt::v11::detail::write_char<char, fmt::v11::basic_appender<char> >(fmt::v11::basic_appender<char>, char, fmt::v11::format_specs const&)::{lambda(fmt::v11::basic_appender<char>&)#1}>(fmt::v11::basic_appender<char>, fmt::v11::format_specs const&, unsigned long, unsigned long, fmt::v11::detail::write_char<char, fmt::v11::basic_appender<char> >(fmt::v11::basic_appender<char>, char, fmt::v11::format_specs const&)::{lambda(fmt::v11::basic_appender<char>&)#1})
PUBLIC 18478 0 fmt::v11::detail::write_escaped_cp<fmt::v11::basic_appender<char>, char>(fmt::v11::basic_appender<char>, fmt::v11::detail::find_escape_result<char> const&)
PUBLIC 18784 0 fmt::v11::detail::write_codepoint<(unsigned long)2, char, fmt::v11::basic_appender<char> >(fmt::v11::basic_appender<char>, char, unsigned int)
PUBLIC 188fc 0 fmt::v11::detail::write_codepoint<(unsigned long)8, char, fmt::v11::basic_appender<char> >(fmt::v11::basic_appender<char>, char, unsigned int)
PUBLIC 18a74 0 fmt::v11::detail::write_padded<char, (fmt::v11::align::type)1, fmt::v11::basic_appender<char>, fmt::v11::detail::write_nonfinite<char, fmt::v11::basic_appender<char> >(fmt::v11::basic_appender<char>, bool, fmt::v11::format_specs, fmt::v11::sign::type)::{lambda(fmt::v11::basic_appender<char>&)#1}>(fmt::v11::basic_appender<char>, fmt::v11::format_specs const&, unsigned long, unsigned long, fmt::v11::detail::write_nonfinite<char, fmt::v11::basic_appender<char> >(fmt::v11::basic_appender<char>, bool, fmt::v11::format_specs, fmt::v11::sign::type)::{lambda(fmt::v11::basic_appender<char>&)#1})
PUBLIC 18cb4 0 fmt::v11::detail::do_write_float<char, fmt::v11::basic_appender<char>, fmt::v11::detail::dragonbox::decimal_fp<float>, fmt::v11::detail::digit_grouping<char> >(fmt::v11::basic_appender<char>, fmt::v11::detail::dragonbox::decimal_fp<float> const&, fmt::v11::format_specs const&, fmt::v11::detail::float_specs, fmt::v11::detail::locale_ref)
PUBLIC 19928 0 fmt::v11::detail::do_write_float<char, fmt::v11::basic_appender<char>, fmt::v11::detail::dragonbox::decimal_fp<float>, fmt::v11::detail::digit_grouping<char> >(fmt::v11::basic_appender<char>, fmt::v11::detail::dragonbox::decimal_fp<float> const&, fmt::v11::format_specs const&, fmt::v11::detail::float_specs, fmt::v11::detail::locale_ref)::{lambda(fmt::v11::basic_appender<char>(fmt::v11::basic_appender<char>))#1}::operator() const
PUBLIC 19a7c 0 fmt::v11::detail::digit_grouping<char>::digit_grouping(fmt::v11::detail::locale_ref, bool)
PUBLIC 19ce8 0 fmt::v11::detail::digit_grouping<char>::~digit_grouping()
PUBLIC 19d2c 0 fmt::v11::detail::write_exponent<char, fmt::v11::basic_appender<char> >(int, fmt::v11::basic_appender<char>)
PUBLIC 19efc 0 _ZN3fmt3v116detail17write_significandIcjTnNSt6__ndk19enable_ifIXsr3std11is_integralIT0_EE5valueEiE4typeELi0EEEPT_S9_S5_iiS8_
PUBLIC 1a078 0 std::__ndk1::basic_string<char, std::__ndk1::char_traits<char>, std::__ndk1::allocator<char> >::__assign_no_alias<true>(char const*, unsigned long)
PUBLIC 1a124 0 std::__ndk1::basic_string<char, std::__ndk1::char_traits<char>, std::__ndk1::allocator<char> >::__assign_no_alias<false>(char const*, unsigned long)
PUBLIC 1a234 0 fmt::v11::detail::digit_grouping<char>::apply<fmt::v11::basic_appender<char>, char>(fmt::v11::basic_appender<char>, fmt::v11::basic_string_view<char>) const
PUBLIC 1a5ec 0 fmt::v11::basic_memory_buffer<int, (unsigned long)500, std::__ndk1::allocator<int> >::grow(fmt::v11::detail::buffer<int>&, unsigned long)
PUBLIC 1a68c 0 fmt::v11::detail::do_write_float<char, fmt::v11::basic_appender<char>, fmt::v11::detail::dragonbox::decimal_fp<double>, fmt::v11::detail::digit_grouping<char> >(fmt::v11::basic_appender<char>, fmt::v11::detail::dragonbox::decimal_fp<double> const&, fmt::v11::format_specs const&, fmt::v11::detail::float_specs, fmt::v11::detail::locale_ref)
PUBLIC 1b340 0 fmt::v11::detail::do_write_float<char, fmt::v11::basic_appender<char>, fmt::v11::detail::dragonbox::decimal_fp<double>, fmt::v11::detail::digit_grouping<char> >(fmt::v11::basic_appender<char>, fmt::v11::detail::dragonbox::decimal_fp<double> const&, fmt::v11::format_specs const&, fmt::v11::detail::float_specs, fmt::v11::detail::locale_ref)::{lambda(fmt::v11::basic_appender<char>(fmt::v11::basic_appender<char>))#1}::operator() const
PUBLIC 1b498 0 _ZN3fmt3v116detail17write_significandIcmTnNSt6__ndk19enable_ifIXsr3std11is_integralIT0_EE5valueEiE4typeELi0EEEPT_S9_S5_iiS8_
PUBLIC 1b628 0 fmt::v11::detail::write_float<char, fmt::v11::basic_appender<char>, long double>(fmt::v11::basic_appender<char>, long double, fmt::v11::format_specs, fmt::v11::detail::locale_ref)
PUBLIC 1c124 0 fmt::v11::detail::write_padded<char, (fmt::v11::align::type)2, fmt::v11::basic_appender<char>, fmt::v11::detail::write_bytes<char, (fmt::v11::align::type)2, fmt::v11::basic_appender<char> >(fmt::v11::basic_appender<char>, fmt::v11::basic_string_view<char>, fmt::v11::format_specs const&)::{lambda(fmt::v11::basic_appender<char>&)#1}>(fmt::v11::basic_appender<char>, fmt::v11::format_specs const&, unsigned long, unsigned long, fmt::v11::detail::write_bytes<char, (fmt::v11::align::type)2, fmt::v11::basic_appender<char> >(fmt::v11::basic_appender<char>, fmt::v11::basic_string_view<char>, fmt::v11::format_specs const&)::{lambda(fmt::v11::basic_appender<char>&)#1})
PUBLIC 1c300 0 fmt::v11::detail::format_dragon(fmt::v11::detail::basic_fp<unsigned __int128>, unsigned int, int, fmt::v11::detail::buffer<char>&, int&)
PUBLIC 1d730 0 fmt::v11::detail::bigint::operator<<=(int)
PUBLIC 1d854 0 fmt::v11::detail::bigint::assign_pow10(int)
PUBLIC 1dfb0 0 fmt::v11::detail::bigint::divmod_assign(fmt::v11::detail::bigint const&)
PUBLIC 1e2d0 0 fmt::v11::basic_memory_buffer<unsigned int, (unsigned long)32, std::__ndk1::allocator<unsigned int> >::grow(fmt::v11::detail::buffer<unsigned int>&, unsigned long)
PUBLIC 1e370 0 fmt::v11::detail::do_write_float<char, fmt::v11::basic_appender<char>, fmt::v11::detail::big_decimal_fp, fmt::v11::detail::digit_grouping<char> >(fmt::v11::basic_appender<char>, fmt::v11::detail::big_decimal_fp const&, fmt::v11::format_specs const&, fmt::v11::detail::float_specs, fmt::v11::detail::locale_ref)
PUBLIC 1f220 0 fmt::v11::detail::do_write_float<char, fmt::v11::basic_appender<char>, fmt::v11::detail::big_decimal_fp, fmt::v11::detail::digit_grouping<char> >(fmt::v11::basic_appender<char>, fmt::v11::detail::big_decimal_fp const&, fmt::v11::format_specs const&, fmt::v11::detail::float_specs, fmt::v11::detail::locale_ref)::{lambda(fmt::v11::basic_appender<char>(fmt::v11::basic_appender<char>))#1}::operator() const
PUBLIC 1f380 0 fmt::v11::detail::write_padded<char, (fmt::v11::align::type)2, fmt::v11::basic_appender<char>, fmt::v11::detail::write_ptr<char, fmt::v11::basic_appender<char>, unsigned long>(fmt::v11::basic_appender<char>, unsigned long, fmt::v11::format_specs const*)::{lambda(fmt::v11::basic_appender<char>&)#1}>(fmt::v11::basic_appender<char>, fmt::v11::format_specs const&, unsigned long, unsigned long, fmt::v11::detail::write_ptr<char, fmt::v11::basic_appender<char>, unsigned long>(fmt::v11::basic_appender<char>, unsigned long, fmt::v11::format_specs const*)::{lambda(fmt::v11::basic_appender<char>&)#1})
PUBLIC 1f594 0 fmt::v11::detail::parse_replacement_field<char, fmt::v11::detail::vformat_to<char>(fmt::v11::detail::buffer<char>&, fmt::v11::basic_string_view<char>, fmt::v11::detail::vformat_args<char>::type, fmt::v11::detail::locale_ref)::format_handler&>(char const*, char const*, fmt::v11::detail::vformat_to<char>(fmt::v11::detail::buffer<char>&, fmt::v11::basic_string_view<char>, fmt::v11::detail::vformat_args<char>::type, fmt::v11::detail::locale_ref)::format_handler&)
PUBLIC 21230 0 fmt::v11::detail::parse_dynamic_spec<char>(char const*, char const*, int&, fmt::v11::detail::arg_ref<char>&, fmt::v11::basic_format_parse_context<char>&)
PUBLIC 214c0 0 fmt::v11::basic_format_args<fmt::v11::context>::get<char>(fmt::v11::basic_string_view<char>) const
PUBLIC 21618 0 fmt::v11::detail::write_int_noinline<char, fmt::v11::basic_appender<char>, unsigned long>(fmt::v11::basic_appender<char>, fmt::v11::detail::write_int_arg<unsigned long>, fmt::v11::format_specs const&, fmt::v11::detail::locale_ref)
PUBLIC 2246c 0 fmt::v11::detail::write_int_noinline<char, fmt::v11::basic_appender<char>, unsigned __int128>(fmt::v11::basic_appender<char>, fmt::v11::detail::write_int_arg<unsigned __int128>, fmt::v11::format_specs const&, fmt::v11::detail::locale_ref)
PUBLIC 234d4 0 _ZN3fmt3v116detail15format_hexfloatIdTnNSt6__ndk19enable_ifIXntsr16is_double_doubleIT_EE5valueEiE4typeELi0EEEvS5_NS0_12format_specsERNS1_6bufferIcEE
PUBLIC 239f4 0 fmt::v11::detail::format_float<double>(double, int, fmt::v11::detail::float_specs, fmt::v11::detail::buffer<char>&)
PUBLIC 24394 0 fmt::v11::detail::write<char, fmt::v11::basic_appender<char> >(fmt::v11::basic_appender<char>, fmt::v11::basic_string_view<char>, fmt::v11::format_specs const&)
PUBLIC 25700 0 fmt::v11::detail::for_each_codepoint<fmt::v11::detail::compute_width(fmt::v11::basic_string_view<char>)::count_code_points>(fmt::v11::basic_string_view<char>, fmt::v11::detail::compute_width(fmt::v11::basic_string_view<char>)::count_code_points)::{lambda(char const*, char const*)#1}::operator()(char const*, char const*) const
PUBLIC 258b8 0 fmt::v11::detail::write_int<fmt::v11::basic_appender<char>, unsigned long, char>(fmt::v11::basic_appender<char>, unsigned long, unsigned int, fmt::v11::format_specs const&, fmt::v11::detail::digit_grouping<char> const&)
PUBLIC 25e34 0 fmt::v11::detail::write_int<fmt::v11::basic_appender<char>, unsigned __int128, char>(fmt::v11::basic_appender<char>, unsigned __int128, unsigned int, fmt::v11::format_specs const&, fmt::v11::detail::digit_grouping<char> const&)
PUBLIC 264b0 0 <.plt ELF section in uproxide.animated_fire.android64.so>
STACK CFI INIT a000 10 .cfa: sp 0 +
STACK CFI INIT a010 8 .cfa: sp 0 +
STACK CFI INIT a018 8 .cfa: sp 0 +
STACK CFI INIT a020 14 .cfa: sp 0 +
STACK CFI INIT a034 1c .cfa: sp 0 +
STACK CFI INIT a050 10 .cfa: sp 0 +
STACK CFI INIT a060 134 .cfa: sp 0 +
STACK CFI INIT a194 84 .cfa: sp 0 +
STACK CFI INIT a218 f4 .cfa: sp 0 +
STACK CFI INIT a30c a8 .cfa: sp 0 +
STACK CFI INIT a3b4 7c .cfa: sp 0 +
STACK CFI INIT a430 14 .cfa: sp 0 +
STACK CFI INIT a444 40 .cfa: sp 0 +
STACK CFI INIT a484 28 .cfa: sp 0 +
STACK CFI INIT a4ac 190 .cfa: sp 0 +
STACK CFI INIT a63c 2c8 .cfa: sp 0 +
STACK CFI INIT a904 8 .cfa: sp 0 +
STACK CFI INIT a90c 8 .cfa: sp 0 +
STACK CFI INIT a914 44 .cfa: sp 0 +
STACK CFI INIT a958 e8 .cfa: sp 0 +
STACK CFI INIT aa40 e8 .cfa: sp 0 +
STACK CFI INIT ab28 14 .cfa: sp 0 +
STACK CFI INIT ab3c 10 .cfa: sp 0 +
STACK CFI INIT ab4c 10 .cfa: sp 0 +
STACK CFI INIT ab5c f0 .cfa: sp 0 +
STACK CFI INIT ac4c 44 .cfa: sp 0 +
STACK CFI INIT ac90 c .cfa: sp 0 +
STACK CFI INIT ac9c c .cfa: sp 0 +
STACK CFI INIT aca8 2c .cfa: sp 0 +
STACK CFI INIT acd4 280 .cfa: sp 0 +
STACK CFI INIT af54 c .cfa: sp 0 +
STACK CFI INIT af60 120 .cfa: sp 0 +
STACK CFI INIT b080 488 .cfa: sp 0 +
STACK CFI INIT b508 c48 .cfa: sp 0 +
STACK CFI INIT c150 134 .cfa: sp 0 +
STACK CFI INIT c284 210 .cfa: sp 0 +
STACK CFI INIT c494 38c .cfa: sp 0 +
STACK CFI INIT c820 1c8 .cfa: sp 0 +
STACK CFI INIT c9e8 9bc .cfa: sp 0 +
STACK CFI INIT d3a4 2d4 .cfa: sp 0 +
STACK CFI INIT d678 134 .cfa: sp 0 +
STACK CFI INIT d7ac 120 .cfa: sp 0 +
STACK CFI INIT d8cc 1c8 .cfa: sp 0 +
STACK CFI INIT da94 168 .cfa: sp 0 +
STACK CFI INIT dbfc fc .cfa: sp 0 +
STACK CFI INIT dcf8 30 .cfa: sp 0 +
STACK CFI INIT de60 30 .cfa: sp 0 +
STACK CFI INIT de90 98 .cfa: sp 0 +
STACK CFI INIT df28 59c .cfa: sp 0 +
STACK CFI INIT e4c4 8c .cfa: sp 0 +
STACK CFI INIT e550 30 .cfa: sp 0 +
STACK CFI INIT e9bc 1c .cfa: sp 0 +
STACK CFI INIT f08c 50 .cfa: sp 0 +
STACK CFI f090 .cfa: sp 32 +
STACK CFI f098 .cfa: x29 32 + x19: .cfa -16 + ^ .ra: .cfa -24 + ^ x29: .cfa -32 + ^
STACK CFI f0b0 .cfa: sp 32 +
STACK CFI f0b8 .cfa: sp 0 +
STACK CFI f0bc .cfa: x29 32 +
STACK CFI f0d0 .cfa: sp 32 +
STACK CFI f0d8 .cfa: sp 0 +
STACK CFI INIT f150 7c .cfa: sp 0 +
STACK CFI f154 .cfa: sp 48 +
STACK CFI f160 .cfa: x29 48 + x19: .cfa -8 + ^ x20: .cfa -16 + ^ x21: .cfa -32 + ^ .ra: .cfa -40 + ^ x29: .cfa -48 + ^
STACK CFI f1ac .cfa: sp 48 +
STACK CFI f1b8 .cfa: sp 0 +
STACK CFI f1bc .cfa: sp 48 +
STACK CFI f1c8 .cfa: sp 0 +
STACK CFI INIT f1cc 4 .cfa: sp 0 +
STACK CFI INIT f1d0 10 .cfa: sp 0 +
STACK CFI f1d4 .cfa: sp 16 +
STACK CFI f1d8 .cfa: x29 16 + .ra: .cfa -8 + ^ x29: .cfa -16 + ^
STACK CFI INIT f334 34 .cfa: sp 0 +
STACK CFI f338 .cfa: sp 16 +
STACK CFI f33c .cfa: x29 16 + .ra: .cfa -8 + ^ x29: .cfa -16 + ^
STACK CFI INIT f494 80 .cfa: sp 0 +
STACK CFI f498 .cfa: sp 48 +
STACK CFI f4a4 .cfa: x29 48 + x19: .cfa -8 + ^ x20: .cfa -16 + ^ x21: .cfa -32 + ^ .ra: .cfa -40 + ^ x29: .cfa -48 + ^
STACK CFI f504 .cfa: sp 48 +
STACK CFI f510 .cfa: sp 0 +
STACK CFI INIT f514 24 .cfa: sp 0 +
STACK CFI f518 .cfa: sp 32 +
STACK CFI f520 .cfa: x29 32 + x19: .cfa -16 + ^ .ra: .cfa -24 + ^ x29: .cfa -32 + ^
STACK CFI f52c .cfa: sp 32 +
STACK CFI f534 .cfa: sp 0 +
STACK CFI INIT f8b8 14 .cfa: sp 0 +
STACK CFI f8bc .cfa: sp 16 +
STACK CFI f8c0 .cfa: x29 16 + .ra: .cfa -8 + ^ x29: .cfa -16 + ^
STACK CFI INIT f91c 30 .cfa: sp 0 +
STACK CFI f920 .cfa: sp 32 +
STACK CFI f928 .cfa: x29 32 + x19: .cfa -16 + ^ .ra: .cfa -24 + ^ x29: .cfa -32 + ^
STACK CFI f940 .cfa: sp 32 +
STACK CFI f948 .cfa: sp 0 +
STACK CFI INIT f94c 34 .cfa: sp 0 +
STACK CFI f950 .cfa: sp 32 +
STACK CFI f958 .cfa: x29 32 + x19: .cfa -16 + ^ .ra: .cfa -24 + ^ x29: .cfa -32 + ^
STACK CFI INIT faf8 148 .cfa: sp 0 +
STACK CFI fafc .cfa: sp 48 +
STACK CFI fb08 .cfa: x29 48 + x19: .cfa -8 + ^ x20: .cfa -16 + ^ x21: .cfa -32 + ^ .ra: .cfa -40 + ^ x29: .cfa -48 + ^
STACK CFI fc30 .cfa: sp 48 +
STACK CFI fc3c .cfa: sp 0 +
STACK CFI INIT fe68 80 .cfa: sp 0 +
STACK CFI fe6c .cfa: sp 48 +
STACK CFI fe78 .cfa: x29 48 + x19: .cfa -8 + ^ x20: .cfa -16 + ^ x21: .cfa -24 + ^ x22: .cfa -32 + ^ .ra: .cfa -40 + ^ x29: .cfa -48 + ^
STACK CFI fe90 .cfa: sp 48 +
STACK CFI fe9c .cfa: sp 0 +
STACK CFI fea0 .cfa: x29 48 +
STACK CFI fed0 .cfa: sp 48 +
STACK CFI fedc .cfa: sp 0 +
STACK CFI fee0 .cfa: x29 48 +
STACK CFI INIT fee8 68 .cfa: sp 0 +
STACK CFI feec .cfa: sp 32 +
STACK CFI fef4 .cfa: x29 32 + x19: .cfa -8 + ^ x20: .cfa -16 + ^ .ra: .cfa -24 + ^ x29: .cfa -32 + ^
STACK CFI ff0c .cfa: sp 32 +
STACK CFI ff14 .cfa: sp 0 +
STACK CFI ff18 .cfa: x29 32 +
STACK CFI ff44 .cfa: sp 32 +
STACK CFI ff4c .cfa: sp 0 +
STACK CFI INIT ff50 14 .cfa: sp 0 +
STACK CFI ff54 .cfa: sp 16 +
STACK CFI ff58 .cfa: x29 16 + .ra: .cfa -8 + ^ x29: .cfa -16 + ^
STACK CFI INIT ff64 4 .cfa: sp 0 +
STACK CFI INIT ff68 14 .cfa: sp 0 +
STACK CFI INIT ff7c 120 .cfa: sp 0 +
STACK CFI ff80 .cfa: sp 64 +
STACK CFI ff90 .cfa: x29 64 + x19: .cfa -8 + ^ x20: .cfa -16 + ^ x21: .cfa -24 + ^ x22: .cfa -32 + ^ x23: .cfa -40 + ^ x24: .cfa -48 + ^ .ra: .cfa -56 + ^ x29: .cfa -64 + ^
STACK CFI 10088 .cfa: sp 64 +
STACK CFI 10098 .cfa: sp 0 +
STACK CFI INIT 1009c d4 .cfa: sp 0 +
STACK CFI 100a0 .cfa: sp 48 +
STACK CFI 100ac .cfa: x29 48 + x19: .cfa -8 + ^ x20: .cfa -16 + ^ x21: .cfa -32 + ^ .ra: .cfa -40 + ^ x29: .cfa -48 + ^
STACK CFI 1013c .cfa: sp 48 +
STACK CFI 10148 .cfa: sp 0 +
STACK CFI 1014c .cfa: x29 48 +
STACK CFI INIT 10170 3c8 .cfa: sp 0 +
STACK CFI INIT 10538 8c .cfa: sp 0 +
STACK CFI 10540 .cfa: sp 32 +
STACK CFI 10548 .cfa: x29 32 + x19: .cfa -8 + ^ x20: .cfa -16 + ^ .ra: .cfa -24 + ^ x29: .cfa -32 + ^
STACK CFI 10590 .cfa: sp 32 +
STACK CFI 10598 .cfa: sp 0 +
STACK CFI 105a0 .cfa: x29 32 +
STACK CFI INIT 105c4 88 .cfa: sp 0 +
STACK CFI 105c8 .cfa: sp 32 +
STACK CFI 105d0 .cfa: x29 32 + x19: .cfa -8 + ^ x20: .cfa -16 + ^ .ra: .cfa -24 + ^ x29: .cfa -32 + ^
STACK CFI 10634 .cfa: sp 32 +
STACK CFI 1063c .cfa: sp 0 +
STACK CFI 10640 .cfa: sp 32 +
STACK CFI 10648 .cfa: sp 0 +
STACK CFI INIT 10bdc 50 .cfa: sp 0 +
STACK CFI 10be0 .cfa: sp 32 +
STACK CFI 10be8 .cfa: x29 32 + x19: .cfa -16 + ^ .ra: .cfa -24 + ^ x29: .cfa -32 + ^
STACK CFI 10c00 .cfa: sp 32 +
STACK CFI 10c08 .cfa: sp 0 +
STACK CFI 10c0c .cfa: x29 32 +
STACK CFI 10c20 .cfa: sp 32 +
STACK CFI 10c28 .cfa: sp 0 +
STACK CFI INIT 10c2c 64 .cfa: sp 0 +
STACK CFI 10c30 .cfa: sp 32 +
STACK CFI 10c38 .cfa: x29 32 + x19: .cfa -16 + ^ .ra: .cfa -24 + ^ x29: .cfa -32 + ^
STACK CFI 10c64 .cfa: sp 32 +
STACK CFI 10c6c .cfa: sp 0 +
STACK CFI 10c70 .cfa: x29 32 +
STACK CFI 10c84 .cfa: sp 32 +
STACK CFI 10c8c .cfa: sp 0 +
STACK CFI INIT 112cc 4 .cfa: sp 0 +
STACK CFI INIT 112d0 14 .cfa: sp 0 +
STACK CFI 112d4 .cfa: sp 16 +
STACK CFI 112d8 .cfa: x29 16 + .ra: .cfa -8 + ^ x29: .cfa -16 + ^
STACK CFI INIT 112e4 14 .cfa: sp 0 +
STACK CFI 112e8 .cfa: sp 16 +
STACK CFI 112ec .cfa: x29 16 + .ra: .cfa -8 + ^ x29: .cfa -16 + ^
STACK CFI INIT 112f8 c .cfa: sp 0 +
STACK CFI 112fc .cfa: sp 16 +
STACK CFI 11300 .cfa: x29 16 + .ra: .cfa -8 + ^ x29: .cfa -16 + ^
STACK CFI INIT 1134c 38 .cfa: sp 0 +
STACK CFI 11350 .cfa: sp 32 +
STACK CFI 11358 .cfa: x29 32 + x19: .cfa -16 + ^ .ra: .cfa -24 + ^ x29: .cfa -32 + ^
STACK CFI 11378 .cfa: sp 32 +
STACK CFI 11380 .cfa: sp 0 +
STACK CFI INIT 11384 c .cfa: sp 0 +
STACK CFI 11388 .cfa: sp 16 +
STACK CFI 1138c .cfa: x29 16 + .ra: .cfa -8 + ^ x29: .cfa -16 + ^
STACK CFI INIT 11390 4 .cfa: sp 0 +
STACK CFI INIT 11394 4 .cfa: sp 0 +
STACK CFI INIT 11398 38 .cfa: sp 0 +
STACK CFI 1139c .cfa: sp 32 +
STACK CFI 113a4 .cfa: x29 32 + x19: .cfa -16 + ^ .ra: .cfa -24 + ^ x29: .cfa -32 + ^
STACK CFI 113c4 .cfa: sp 32 +
STACK CFI 113cc .cfa: sp 0 +
STACK CFI INIT 113d0 18 .cfa: sp 0 +
STACK CFI INIT 113e8 4 .cfa: sp 0 +
STACK CFI INIT 113ec 4 .cfa: sp 0 +
STACK CFI INIT 113f0 10 .cfa: sp 0 +
STACK CFI INIT 11400 1c .cfa: sp 0 +
STACK CFI INIT 1141c c .cfa: sp 0 +
STACK CFI INIT 11428 178 .cfa: sp 0 +
STACK CFI 1142c .cfa: sp 80 +
STACK CFI 11440 .cfa: x29 80 + x19: .cfa -8 + ^ x20: .cfa -16 + ^ x21: .cfa -24 + ^ x22: .cfa -32 + ^ x23: .cfa -40 + ^ x24: .cfa -48 + ^ x25: .cfa -56 + ^ x26: .cfa -64 + ^ .ra: .cfa -72 + ^ x29: .cfa -80 + ^
STACK CFI 11588 .cfa: sp 80 +
STACK CFI 1159c .cfa: sp 0 +
STACK CFI INIT 115a0 1b0 .cfa: sp 0 +
STACK CFI INIT 11750 200 .cfa: sp 0 +
STACK CFI INIT 11dd0 1c .cfa: sp 0 +
STACK CFI INIT 1216c 4 .cfa: sp 0 +
STACK CFI INIT 12398 4 .cfa: sp 0 +
STACK CFI INIT 1239c 4 .cfa: sp 0 +
STACK CFI INIT 123a0 40 .cfa: sp 0 +
STACK CFI 123a4 .cfa: sp 32 +
STACK CFI 123ac .cfa: x29 32 + x19: .cfa -16 + ^ .ra: .cfa -24 + ^ x29: .cfa -32 + ^
STACK CFI 123d4 .cfa: sp 32 +
STACK CFI 123dc .cfa: sp 0 +
STACK CFI INIT 123e0 20 .cfa: sp 0 +
STACK CFI INIT 12400 4 .cfa: sp 0 +
STACK CFI INIT 12404 4 .cfa: sp 0 +
STACK CFI INIT 1277c 1c .cfa: sp 0 +
STACK CFI INIT 12798 c .cfa: sp 0 +
STACK CFI INIT 127a4 f8 .cfa: sp 0 +
STACK CFI 127a8 .cfa: sp 64 +
STACK CFI 127b8 .cfa: x29 64 + x19: .cfa -8 + ^ x20: .cfa -16 + ^ x21: .cfa -24 + ^ x22: .cfa -32 + ^ x23: .cfa -48 + ^ .ra: .cfa -56 + ^ x29: .cfa -64 + ^
STACK CFI 12814 .cfa: sp 64 +
STACK CFI 12824 .cfa: sp 0 +
STACK CFI 12828 .cfa: x29 64 +
STACK CFI 12844 .cfa: sp 64 +
STACK CFI 12854 .cfa: sp 0 +
STACK CFI 12858 .cfa: x29 64 +
STACK CFI 12888 .cfa: sp 64 +
STACK CFI 12898 .cfa: sp 0 +
STACK CFI INIT 12cd8 1c .cfa: sp 0 +
STACK CFI INIT 136b4 4 .cfa: sp 0 +
STACK CFI INIT 136b8 94 .cfa: sp 0 +
STACK CFI 136bc .cfa: sp 32 +
STACK CFI 136c4 .cfa: x29 32 + x19: .cfa -8 + ^ x20: .cfa -16 + ^ .ra: .cfa -24 + ^ x29: .cfa -32 + ^
STACK CFI 13734 .cfa: sp 32 +
STACK CFI 1373c .cfa: sp 0 +
STACK CFI 13740 .cfa: sp 32 +
STACK CFI 13748 .cfa: sp 0 +
STACK CFI INIT 1374c 94 .cfa: sp 0 +
STACK CFI 13750 .cfa: sp 32 +
STACK CFI 13758 .cfa: x29 32 + x19: .cfa -8 + ^ x20: .cfa -16 + ^ .ra: .cfa -24 + ^ x29: .cfa -32 + ^
STACK CFI 137c8 .cfa: sp 32 +
STACK CFI 137d0 .cfa: sp 0 +
STACK CFI 137d4 .cfa: sp 32 +
STACK CFI 137dc .cfa: sp 0 +
STACK CFI INIT 137e0 a0 .cfa: sp 0 +
STACK CFI 137e4 .cfa: sp 48 +
STACK CFI 137f0 .cfa: x29 48 + x19: .cfa -8 + ^ x20: .cfa -16 + ^ x21: .cfa -32 + ^ .ra: .cfa -40 + ^ x29: .cfa -48 + ^
STACK CFI 13870 .cfa: sp 48 +
STACK CFI 1387c .cfa: sp 0 +
STACK CFI INIT 13928 ac .cfa: sp 0 +
STACK CFI 1392c .cfa: sp 32 +
STACK CFI 13934 .cfa: x29 32 + x19: .cfa -16 + ^ .ra: .cfa -24 + ^ x29: .cfa -32 + ^
STACK CFI 139c8 .cfa: sp 32 +
STACK CFI 139d0 .cfa: sp 0 +
STACK CFI INIT 13a7c 3c .cfa: sp 0 +
STACK CFI 13a80 .cfa: sp 32 +
STACK CFI 13a88 .cfa: x29 32 + x19: .cfa -16 + ^ .ra: .cfa -24 + ^ x29: .cfa -32 + ^
STACK CFI 13a94 .cfa: sp 32 +
STACK CFI 13a9c .cfa: sp 0 +
STACK CFI 13aa0 .cfa: x29 32 +
STACK CFI 13aac .cfa: sp 32 +
STACK CFI 13ab4 .cfa: sp 0 +
STACK CFI INIT 13ab8 c .cfa: sp 0 +
STACK CFI INIT 13ac4 24c .cfa: sp 0 +
STACK CFI INIT 13d10 a0 .cfa: sp 0 +
STACK CFI 13d1c .cfa: sp 32 +
STACK CFI 13d74 .cfa: sp 0 +
STACK CFI 13d78 .cfa: sp 32 +
STACK CFI 13d80 .cfa: sp 0 +
STACK CFI 13d84 .cfa: sp 32 +
STACK CFI 13d98 .cfa: sp 0 +
STACK CFI 13d9c .cfa: sp 32 +
STACK CFI 13dac .cfa: sp 0 +
STACK CFI INIT 13db0 38 .cfa: sp 0 +
STACK CFI 13dbc .cfa: sp 32 +
STACK CFI 13de4 .cfa: sp 0 +
STACK CFI INIT 1407c 7c .cfa: sp 0 +
STACK CFI 14080 .cfa: sp 32 +
STACK CFI 14088 .cfa: x29 32 + x19: .cfa -16 + ^ .ra: .cfa -24 + ^ x29: .cfa -32 + ^
STACK CFI 140b4 .cfa: sp 32 +
STACK CFI 140bc .cfa: sp 0 +
STACK CFI 140c0 .cfa: x29 32 +
STACK CFI 140ec .cfa: sp 32 +
STACK CFI 140f4 .cfa: sp 0 +
STACK CFI INIT 14148 2c .cfa: sp 0 +
STACK CFI 1414c .cfa: sp 32 +
STACK CFI 14154 .cfa: x29 32 + x19: .cfa -16 + ^ .ra: .cfa -24 + ^ x29: .cfa -32 + ^
STACK CFI 14168 .cfa: sp 32 +
STACK CFI 14170 .cfa: sp 0 +
STACK CFI INIT 14934 64 .cfa: sp 0 +
STACK CFI 14938 .cfa: sp 32 +
STACK CFI 14940 .cfa: x29 32 + x19: .cfa -16 + ^ .ra: .cfa -24 + ^ x29: .cfa -32 + ^
STACK CFI 1495c .cfa: sp 32 +
STACK CFI 14964 .cfa: sp 0 +
STACK CFI 14968 .cfa: x29 32 +
STACK CFI 1498c .cfa: sp 32 +
STACK CFI 14994 .cfa: sp 0 +
STACK CFI INIT 14998 570 .cfa: sp 0 +
STACK CFI 1499c .cfa: sp 176 +
STACK CFI 149b0 .cfa: x29 64 + x19: .cfa -8 + ^ x20: .cfa -16 + ^ x21: .cfa -24 + ^ x22: .cfa -32 + ^ x23: .cfa -40 + ^ x24: .cfa -48 + ^ .ra: .cfa -56 + ^ x29: .cfa -64 + ^
STACK CFI 14be0 .cfa: sp 176 +
STACK CFI 14bf4 .cfa: sp 0 +
STACK CFI 14bf8 .cfa: x29 64 +
STACK CFI 14c44 .cfa: sp 176 +
STACK CFI 14c58 .cfa: sp 0 +
STACK CFI 14c5c .cfa: x29 64 +
STACK CFI 14c94 .cfa: sp 176 +
STACK CFI 14ca8 .cfa: sp 0 +
STACK CFI 14cac .cfa: x29 64 +
STACK CFI 14cc4 .cfa: sp 176 +
STACK CFI 14cd8 .cfa: sp 0 +
STACK CFI 14cdc .cfa: x29 64 +
STACK CFI 14cfc .cfa: sp 176 +
STACK CFI 14d10 .cfa: sp 0 +
STACK CFI 14d14 .cfa: x29 64 +
STACK CFI 14d2c .cfa: sp 176 +
STACK CFI 14d40 .cfa: sp 0 +
STACK CFI 14d44 .cfa: x29 64 +
STACK CFI 14d58 .cfa: sp 176 +
STACK CFI 14d6c .cfa: sp 0 +
STACK CFI 14d70 .cfa: x29 64 +
STACK CFI 14d84 .cfa: sp 176 +
STACK CFI 14d98 .cfa: sp 0 +
STACK CFI 14d9c .cfa: x29 64 +
STACK CFI 14dac .cfa: sp 176 +
STACK CFI 14dc0 .cfa: sp 0 +
STACK CFI 14dc4 .cfa: x29 64 +
STACK CFI 14dd4 .cfa: sp 176 +
STACK CFI 14de8 .cfa: sp 0 +
STACK CFI 14dec .cfa: x29 64 +
STACK CFI 14e04 .cfa: sp 176 +
STACK CFI 14e18 .cfa: sp 0 +
STACK CFI 14e1c .cfa: x29 64 +
STACK CFI 14e30 .cfa: sp 176 +
STACK CFI 14e44 .cfa: sp 0 +
STACK CFI 14e48 .cfa: x29 64 +
STACK CFI 14e60 .cfa: sp 176 +
STACK CFI 14e74 .cfa: sp 0 +
STACK CFI 14e78 .cfa: x29 64 +
STACK CFI 14ea4 .cfa: sp 176 +
STACK CFI 14eb8 .cfa: sp 0 +
STACK CFI 14ebc .cfa: x29 64 +
STACK CFI 14ed0 .cfa: sp 176 +
STACK CFI 14ee4 .cfa: sp 0 +
STACK CFI 14ee8 .cfa: x29 64 +
STACK CFI INIT 14f08 228 .cfa: sp 0 +
STACK CFI INIT 15130 2dc .cfa: sp 0 +
STACK CFI INIT 1540c 53c .cfa: sp 0 +
STACK CFI INIT 15948 78 .cfa: sp 0 +
STACK CFI 1594c .cfa: sp 48 +
STACK CFI 15958 .cfa: x29 48 + x19: .cfa -8 + ^ x20: .cfa -16 + ^ x21: .cfa -24 + ^ x22: .cfa -32 + ^ .ra: .cfa -40 + ^ x29: .cfa -48 + ^
STACK CFI 159a0 .cfa: sp 48 +
STACK CFI 159ac .cfa: sp 0 +
STACK CFI 159b0 .cfa: sp 48 +
STACK CFI 159bc .cfa: sp 0 +
STACK CFI INIT 159c0 8c .cfa: sp 0 +
STACK CFI 159c4 .cfa: sp 32 +
STACK CFI 159cc .cfa: x29 32 + x19: .cfa -16 + ^ .ra: .cfa -24 + ^ x29: .cfa -32 + ^
STACK CFI 15a00 .cfa: sp 32 +
STACK CFI 15a08 .cfa: sp 0 +
STACK CFI 15a0c .cfa: x29 32 +
STACK CFI 15a40 .cfa: sp 32 +
STACK CFI 15a48 .cfa: sp 0 +
STACK CFI INIT 15a4c 24 .cfa: sp 0 +
STACK CFI 15a50 .cfa: sp 32 +
STACK CFI 15a58 .cfa: x29 32 + x19: .cfa -16 + ^ .ra: .cfa -24 + ^ x29: .cfa -32 + ^
STACK CFI 15a64 .cfa: sp 32 +
STACK CFI 15a6c .cfa: sp 0 +
STACK CFI INIT 15a70 150 .cfa: sp 0 +
STACK CFI 15a74 .cfa: sp 48 +
STACK CFI 15a80 .cfa: x29 48 + x19: .cfa -8 + ^ x20: .cfa -16 + ^ x21: .cfa -24 + ^ x22: .cfa -32 + ^ .ra: .cfa -40 + ^ x29: .cfa -48 + ^
STACK CFI 15bb0 .cfa: sp 48 +
STACK CFI 15bbc .cfa: sp 0 +
STACK CFI INIT 15bc0 68 .cfa: sp 0 +
STACK CFI 15bc4 .cfa: sp 64 +
STACK CFI 15bd0 .cfa: x29 32 + x19: .cfa -16 + ^ .ra: .cfa -24 + ^ x29: .cfa -32 + ^
STACK CFI 15c14 .cfa: sp 64 +
STACK CFI 15c20 .cfa: sp 0 +
STACK CFI 15c24 .cfa: x29 32 +
STACK CFI INIT 15c28 90 .cfa: sp 0 +
STACK CFI 15c2c .cfa: sp 32 +
STACK CFI 15c34 .cfa: x29 32 + x19: .cfa -8 + ^ x20: .cfa -16 + ^ .ra: .cfa -24 + ^ x29: .cfa -32 + ^
STACK CFI 15c60 .cfa: sp 32 +
STACK CFI 15c68 .cfa: sp 0 +
STACK CFI 15c6c .cfa: x29 32 +
STACK CFI 15cac .cfa: sp 32 +
STACK CFI 15cb4 .cfa: sp 0 +
STACK CFI INIT 15cb8 ec .cfa: sp 0 +
STACK CFI 15cbc .cfa: sp 112 +
STACK CFI 15ccc .cfa: x29 48 + x19: .cfa -8 + ^ x20: .cfa -16 + ^ x21: .cfa -32 + ^ .ra: .cfa -40 + ^ x29: .cfa -48 + ^
STACK CFI 15d8c .cfa: sp 112 +
STACK CFI 15d9c .cfa: sp 0 +
STACK CFI 15da0 .cfa: x29 48 +
STACK CFI INIT 15da4 ec .cfa: sp 0 +
STACK CFI 15da8 .cfa: sp 112 +
STACK CFI 15db8 .cfa: x29 48 + x19: .cfa -8 + ^ x20: .cfa -16 + ^ x21: .cfa -32 + ^ .ra: .cfa -40 + ^ x29: .cfa -48 + ^
STACK CFI 15e78 .cfa: sp 112 +
STACK CFI 15e88 .cfa: sp 0 +
STACK CFI 15e8c .cfa: x29 48 +
STACK CFI INIT 15e90 48 .cfa: sp 0 +
STACK CFI 15e94 .cfa: sp 32 +
STACK CFI 15e9c .cfa: x29 32 + x19: .cfa -8 + ^ x20: .cfa -16 + ^ .ra: .cfa -24 + ^ x29: .cfa -32 + ^
STACK CFI 15ec0 .cfa: sp 32 +
STACK CFI 15ec8 .cfa: sp 0 +
STACK CFI 15ecc .cfa: x29 32 +
STACK CFI INIT 15ed8 98 .cfa: sp 0 +
STACK CFI 15edc .cfa: sp 80 +
STACK CFI 15ee8 .cfa: x29 32 + x19: .cfa -16 + ^ .ra: .cfa -24 + ^ x29: .cfa -32 + ^
STACK CFI 15f5c .cfa: sp 80 +
STACK CFI 15f68 .cfa: sp 0 +
STACK CFI 15f6c .cfa: x29 32 +
STACK CFI INIT 15f70 260 .cfa: sp 0 +
STACK CFI 15f74 .cfa: sp 112 +
STACK CFI 15f8c .cfa: x29 80 + x19: .cfa -8 + ^ x20: .cfa -16 + ^ x21: .cfa -24 + ^ x22: .cfa -32 + ^ x23: .cfa -40 + ^ x24: .cfa -48 + ^ x25: .cfa -64 + ^ .ra: .cfa -72 + ^ x29: .cfa -80 + ^
STACK CFI 16170 .cfa: sp 112 +
STACK CFI 16188 .cfa: sp 0 +
STACK CFI 1618c .cfa: x29 80 +
STACK CFI INIT 161d0 150 .cfa: sp 0 +
STACK CFI 161d4 .cfa: sp 48 +
STACK CFI 161e0 .cfa: x29 48 + x19: .cfa -8 + ^ x20: .cfa -16 + ^ x21: .cfa -24 + ^ x22: .cfa -32 + ^ .ra: .cfa -40 + ^ x29: .cfa -48 + ^
STACK CFI 16310 .cfa: sp 48 +
STACK CFI 1631c .cfa: sp 0 +
STACK CFI INIT 16320 1e0 .cfa: sp 0 +
STACK CFI 16324 .cfa: sp 96 +
STACK CFI 16338 .cfa: x29 64 + x19: .cfa -8 + ^ x20: .cfa -16 + ^ x21: .cfa -24 + ^ x22: .cfa -32 + ^ x23: .cfa -40 + ^ x24: .cfa -48 + ^ .ra: .cfa -56 + ^ x29: .cfa -64 + ^
STACK CFI 164b8 .cfa: sp 96 +
STACK CFI 164cc .cfa: sp 0 +
STACK CFI 164d0 .cfa: x29 64 +
STACK CFI INIT 16500 284 .cfa: sp 0 +
STACK CFI 16504 .cfa: sp 112 +
STACK CFI 1651c .cfa: x29 80 + x19: .cfa -8 + ^ x20: .cfa -16 + ^ x21: .cfa -24 + ^ x22: .cfa -32 + ^ x23: .cfa -40 + ^ x24: .cfa -48 + ^ x25: .cfa -64 + ^ .ra: .cfa -72 + ^ x29: .cfa -80 + ^
STACK CFI 16724 .cfa: sp 112 +
STACK CFI 1673c .cfa: sp 0 +
STACK CFI 16740 .cfa: x29 80 +
STACK CFI INIT 16784 208 .cfa: sp 0 +
STACK CFI 16788 .cfa: sp 96 +
STACK CFI 1679c .cfa: x29 64 + x19: .cfa -8 + ^ x20: .cfa -16 + ^ x21: .cfa -24 + ^ x22: .cfa -32 + ^ x23: .cfa -40 + ^ x24: .cfa -48 + ^ .ra: .cfa -56 + ^ x29: .cfa -64 + ^
STACK CFI 16944 .cfa: sp 96 +
STACK CFI 16958 .cfa: sp 0 +
STACK CFI 1695c .cfa: x29 64 +
STACK CFI INIT 1698c 360 .cfa: sp 0 +
STACK CFI 16990 .cfa: sp 160 +
STACK CFI 169ac .cfa: x29 96 + x19: .cfa -8 + ^ x20: .cfa -16 + ^ x21: .cfa -24 + ^ x22: .cfa -32 + ^ x23: .cfa -40 + ^ x24: .cfa -48 + ^ x25: .cfa -56 + ^ x26: .cfa -64 + ^ x27: .cfa -72 + ^ x28: .cfa -80 + ^ .ra: .cfa -88 + ^ x29: .cfa -96 + ^
STACK CFI 16c78 .cfa: sp 160 +
STACK CFI 16c94 .cfa: sp 0 +
STACK CFI 16c98 .cfa: x29 96 +
STACK CFI INIT 16cec 314 .cfa: sp 0 +
STACK CFI 16cf0 .cfa: sp 144 +
STACK CFI 16d0c .cfa: x29 96 + x19: .cfa -8 + ^ x20: .cfa -16 + ^ x21: .cfa -24 + ^ x22: .cfa -32 + ^ x23: .cfa -40 + ^ x24: .cfa -48 + ^ x25: .cfa -56 + ^ x26: .cfa -64 + ^ x27: .cfa -72 + ^ x28: .cfa -80 + ^ .ra: .cfa -88 + ^ x29: .cfa -96 + ^
STACK CFI 16f88 .cfa: sp 144 +
STACK CFI 16fa4 .cfa: sp 0 +
STACK CFI 16fa8 .cfa: x29 96 +
STACK CFI INIT 17000 290 .cfa: sp 0 +
STACK CFI 17004 .cfa: sp 128 +
STACK CFI 1701c .cfa: x29 80 + x19: .cfa -8 + ^ x20: .cfa -16 + ^ x21: .cfa -24 + ^ x22: .cfa -32 + ^ x23: .cfa -40 + ^ x24: .cfa -48 + ^ x25: .cfa -56 + ^ x26: .cfa -64 + ^ .ra: .cfa -72 + ^ x29: .cfa -80 + ^
STACK CFI 17270 .cfa: sp 128 +
STACK CFI 17288 .cfa: sp 0 +
STACK CFI 1728c .cfa: x29 80 +
STACK CFI INIT 17290 ddc .cfa: sp 0 +
STACK CFI 17294 .cfa: sp 144 +
STACK CFI 172b0 .cfa: x29 96 + x19: .cfa -8 + ^ x20: .cfa -16 + ^ x21: .cfa -24 + ^ x22: .cfa -32 + ^ x23: .cfa -40 + ^ x24: .cfa -48 + ^ x25: .cfa -56 + ^ x26: .cfa -64 + ^ x27: .cfa -72 + ^ x28: .cfa -80 + ^ .ra: .cfa -88 + ^ x29: .cfa -96 + ^
STACK CFI 17f44 .cfa: sp 144 +
STACK CFI 17f60 .cfa: sp 0 +
STACK CFI 17f64 .cfa: x29 96 +
STACK CFI INIT 1806c 1d0 .cfa: sp 0 +
STACK CFI 18070 .cfa: sp 80 +
STACK CFI 18084 .cfa: x29 80 + x19: .cfa -8 + ^ x20: .cfa -16 + ^ x21: .cfa -24 + ^ x22: .cfa -32 + ^ x23: .cfa -40 + ^ x24: .cfa -48 + ^ x25: .cfa -64 + ^ .ra: .cfa -72 + ^ x29: .cfa -80 + ^
STACK CFI 18224 .cfa: sp 80 +
STACK CFI 18238 .cfa: sp 0 +
STACK CFI INIT 1823c 23c .cfa: sp 0 +
STACK CFI 18240 .cfa: sp 112 +
STACK CFI 18254 .cfa: x29 64 + x19: .cfa -8 + ^ x20: .cfa -16 + ^ x21: .cfa -24 + ^ x22: .cfa -32 + ^ x23: .cfa -40 + ^ x24: .cfa -48 + ^ .ra: .cfa -56 + ^ x29: .cfa -64 + ^
STACK CFI 18430 .cfa: sp 112 +
STACK CFI 18444 .cfa: sp 0 +
STACK CFI 18448 .cfa: x29 64 +
STACK CFI INIT 18478 30c .cfa: sp 0 +
STACK CFI 1847c .cfa: sp 80 +
STACK CFI 18490 .cfa: x29 64 + x19: .cfa -8 + ^ x20: .cfa -16 + ^ x21: .cfa -24 + ^ x22: .cfa -32 + ^ x23: .cfa -40 + ^ x24: .cfa -48 + ^ .ra: .cfa -56 + ^ x29: .cfa -64 + ^
STACK CFI 1860c .cfa: sp 80 +
STACK CFI 18620 .cfa: sp 0 +
STACK CFI 18624 .cfa: x29 64 +
STACK CFI INIT 18784 178 .cfa: sp 0 +
STACK CFI 18788 .cfa: sp 80 +
STACK CFI 1879c .cfa: x29 64 + x19: .cfa -8 + ^ x20: .cfa -16 + ^ x21: .cfa -24 + ^ x22: .cfa -32 + ^ x23: .cfa -40 + ^ x24: .cfa -48 + ^ .ra: .cfa -56 + ^ x29: .cfa -64 + ^
STACK CFI 188e0 .cfa: sp 80 +
STACK CFI 188f4 .cfa: sp 0 +
STACK CFI 188f8 .cfa: x29 64 +
STACK CFI INIT 188fc 178 .cfa: sp 0 +
STACK CFI 18900 .cfa: sp 80 +
STACK CFI 18914 .cfa: x29 64 + x19: .cfa -8 + ^ x20: .cfa -16 + ^ x21: .cfa -24 + ^ x22: .cfa -32 + ^ x23: .cfa -40 + ^ x24: .cfa -48 + ^ .ra: .cfa -56 + ^ x29: .cfa -64 + ^
STACK CFI 18a58 .cfa: sp 80 +
STACK CFI 18a6c .cfa: sp 0 +
STACK CFI 18a70 .cfa: x29 64 +
STACK CFI INIT 18a74 240 .cfa: sp 0 +
STACK CFI 18a78 .cfa: sp 96 +
STACK CFI 18a90 .cfa: x29 96 + x19: .cfa -8 + ^ x20: .cfa -16 + ^ x21: .cfa -24 + ^ x22: .cfa -32 + ^ x23: .cfa -40 + ^ x24: .cfa -48 + ^ x25: .cfa -56 + ^ x26: .cfa -64 + ^ x27: .cfa -72 + ^ x28: .cfa -80 + ^ .ra: .cfa -88 + ^ x29: .cfa -96 + ^
STACK CFI 18c98 .cfa: sp 96 +
STACK CFI 18cb0 .cfa: sp 0 +
STACK CFI INIT 19928 154 .cfa: sp 0 +
STACK CFI 1992c .cfa: sp 96 +
STACK CFI 19940 .cfa: x29 64 + x19: .cfa -8 + ^ x20: .cfa -16 + ^ x21: .cfa -24 + ^ x22: .cfa -32 + ^ x23: .cfa -48 + ^ .ra: .cfa -56 + ^ x29: .cfa -64 + ^
STACK CFI 19a20 .cfa: sp 96 +
STACK CFI 19a34 .cfa: sp 0 +
STACK CFI 19a38 .cfa: x29 64 +
STACK CFI INIT 19ce8 44 .cfa: sp 0 +
STACK CFI 19cec .cfa: sp 32 +
STACK CFI 19cf4 .cfa: x29 32 + x19: .cfa -16 + ^ .ra: .cfa -24 + ^ x29: .cfa -32 + ^
STACK CFI 19d10 .cfa: sp 32 +
STACK CFI 19d18 .cfa: sp 0 +
STACK CFI 19d1c .cfa: x29 32 +
STACK CFI 19d20 .cfa: sp 32 +
STACK CFI 19d28 .cfa: sp 0 +
STACK CFI INIT 19d2c 1d0 .cfa: sp 0 +
STACK CFI 19d30 .cfa: sp 64 +
STACK CFI 19d40 .cfa: x29 64 + x19: .cfa -8 + ^ x20: .cfa -16 + ^ x21: .cfa -24 + ^ x22: .cfa -32 + ^ x23: .cfa -40 + ^ x24: .cfa -48 + ^ .ra: .cfa -56 + ^ x29: .cfa -64 + ^
STACK CFI 19e00 .cfa: sp 64 +
STACK CFI 19e10 .cfa: sp 0 +
STACK CFI 19e14 .cfa: x29 64 +
STACK CFI INIT 19efc 17c .cfa: sp 0 +
STACK CFI INIT 1a078 ac .cfa: sp 0 +
STACK CFI 1a07c .cfa: sp 64 +
STACK CFI 1a08c .cfa: x29 64 + x19: .cfa -8 + ^ x20: .cfa -16 + ^ x21: .cfa -24 + ^ x22: .cfa -32 + ^ x23: .cfa -48 + ^ .ra: .cfa -56 + ^ x29: .cfa -64 + ^
STACK CFI 1a108 .cfa: sp 64 +
STACK CFI 1a118 .cfa: sp 0 +
STACK CFI 1a11c .cfa: x29 64 +
STACK CFI INIT 1a124 110 .cfa: sp 0 +
STACK CFI 1a128 .cfa: sp 64 +
STACK CFI 1a138 .cfa: x29 64 + x19: .cfa -8 + ^ x20: .cfa -16 + ^ x21: .cfa -24 + ^ x22: .cfa -32 + ^ x23: .cfa -40 + ^ x24: .cfa -48 + ^ .ra: .cfa -56 + ^ x29: .cfa -64 + ^
STACK CFI 1a218 .cfa: sp 64 +
STACK CFI 1a228 .cfa: sp 0 +
STACK CFI 1a22c .cfa: x29 64 +
STACK CFI INIT 1a5ec a0 .cfa: sp 0 +
STACK CFI 1a5f0 .cfa: sp 48 +
STACK CFI 1a5fc .cfa: x29 48 + x19: .cfa -8 + ^ x20: .cfa -16 + ^ x21: .cfa -24 + ^ x22: .cfa -32 + ^ .ra: .cfa -40 + ^ x29: .cfa -48 + ^
STACK CFI 1a668 .cfa: sp 48 +
STACK CFI 1a674 .cfa: sp 0 +
STACK CFI 1a678 .cfa: sp 48 +
STACK CFI 1a684 .cfa: sp 0 +
STACK CFI 1a688 .cfa: x29 48 +
STACK CFI INIT 1b340 158 .cfa: sp 0 +
STACK CFI 1b344 .cfa: sp 96 +
STACK CFI 1b358 .cfa: x29 64 + x19: .cfa -8 + ^ x20: .cfa -16 + ^ x21: .cfa -24 + ^ x22: .cfa -32 + ^ x23: .cfa -48 + ^ .ra: .cfa -56 + ^ x29: .cfa -64 + ^
STACK CFI 1b43c .cfa: sp 96 +
STACK CFI 1b450 .cfa: sp 0 +
STACK CFI 1b454 .cfa: x29 64 +
STACK CFI INIT 1b498 190 .cfa: sp 0 +
STACK CFI INIT 1c124 1dc .cfa: sp 0 +
STACK CFI 1c128 .cfa: sp 80 +
STACK CFI 1c13c .cfa: x29 80 + x19: .cfa -8 + ^ x20: .cfa -16 + ^ x21: .cfa -24 + ^ x22: .cfa -32 + ^ x23: .cfa -40 + ^ x24: .cfa -48 + ^ x25: .cfa -64 + ^ .ra: .cfa -72 + ^ x29: .cfa -80 + ^
STACK CFI 1c2e8 .cfa: sp 80 +
STACK CFI 1c2fc .cfa: sp 0 +
STACK CFI INIT 1d730 124 .cfa: sp 0 +
STACK CFI 1d760 .cfa: sp 32 +
STACK CFI 1d768 .cfa: x29 32 + x19: .cfa -8 + ^ x20: .cfa -16 + ^ .ra: .cfa -24 + ^ x29: .cfa -32 + ^
STACK CFI 1d848 .cfa: sp 32 +
STACK CFI 1d850 .cfa: sp 0 +
STACK CFI INIT 1dfb0 320 .cfa: sp 0 +
STACK CFI 1dfb4 .cfa: sp 64 +
STACK CFI 1dfc4 .cfa: x29 64 + x19: .cfa -8 + ^ x20: .cfa -16 + ^ x21: .cfa -24 + ^ x22: .cfa -32 + ^ x23: .cfa -40 + ^ x24: .cfa -48 + ^ .ra: .cfa -56 + ^ x29: .cfa -64 + ^
STACK CFI 1e040 .cfa: sp 64 +
STACK CFI 1e050 .cfa: sp 0 +
STACK CFI 1e054 .cfa: x29 64 +
STACK CFI 1e228 .cfa: sp 64 +
STACK CFI 1e238 .cfa: sp 0 +
STACK CFI 1e23c .cfa: x29 64 +
STACK CFI 1e24c .cfa: sp 64 +
STACK CFI 1e25c .cfa: sp 0 +
STACK CFI 1e260 .cfa: x29 64 +
STACK CFI INIT 1e2d0 a0 .cfa: sp 0 +
STACK CFI 1e2d4 .cfa: sp 48 +
STACK CFI 1e2e0 .cfa: x29 48 + x19: .cfa -8 + ^ x20: .cfa -16 + ^ x21: .cfa -24 + ^ x22: .cfa -32 + ^ .ra: .cfa -40 + ^ x29: .cfa -48 + ^
STACK CFI 1e34c .cfa: sp 48 +
STACK CFI 1e358 .cfa: sp 0 +
STACK CFI 1e35c .cfa: sp 48 +
STACK CFI 1e368 .cfa: sp 0 +
STACK CFI 1e36c .cfa: x29 48 +
STACK CFI INIT 1f220 160 .cfa: sp 0 +
STACK CFI 1f224 .cfa: sp 64 +
STACK CFI 1f234 .cfa: x29 64 + x19: .cfa -8 + ^ x20: .cfa -16 + ^ x21: .cfa -24 + ^ x22: .cfa -32 + ^ x23: .cfa -48 + ^ .ra: .cfa -56 + ^ x29: .cfa -64 + ^
STACK CFI 1f32c .cfa: sp 64 +
STACK CFI 1f33c .cfa: sp 0 +
STACK CFI 1f340 .cfa: x29 64 +
STACK CFI INIT 1f380 214 .cfa: sp 0 +
STACK CFI 1f384 .cfa: sp 128 +
STACK CFI 1f3a0 .cfa: x29 96 + x19: .cfa -8 + ^ x20: .cfa -16 + ^ x21: .cfa -24 + ^ x22: .cfa -32 + ^ x23: .cfa -40 + ^ x24: .cfa -48 + ^ x25: .cfa -56 + ^ x26: .cfa -64 + ^ x27: .cfa -80 + ^ .ra: .cfa -88 + ^ x29: .cfa -96 + ^
STACK CFI 1f51c .cfa: sp 128 +
STACK CFI 1f538 .cfa: sp 0 +
STACK CFI 1f53c .cfa: x29 96 +
STACK CFI INIT 21230 290 .cfa: sp 0 +
STACK CFI 21234 .cfa: sp 16 +
STACK CFI 21238 .cfa: x29 16 + .ra: .cfa -8 + ^ x29: .cfa -16 + ^
STACK CFI 212c4 .cfa: sp 16 +
STACK CFI 212c8 .cfa: sp 0 +
STACK CFI 212cc .cfa: x29 16 +
STACK CFI 2131c .cfa: sp 16 +
STACK CFI 21320 .cfa: sp 0 +
STACK CFI 21324 .cfa: x29 16 +
STACK CFI 21488 .cfa: sp 16 +
STACK CFI 2148c .cfa: sp 0 +
STACK CFI 21490 .cfa: x29 16 +
STACK CFI INIT 214c0 158 .cfa: sp 0 +
STACK CFI 214c4 .cfa: sp 112 +
STACK CFI 214e0 .cfa: x29 96 + x19: .cfa -8 + ^ x20: .cfa -16 + ^ x21: .cfa -24 + ^ x22: .cfa -32 + ^ x23: .cfa -40 + ^ x24: .cfa -48 + ^ x25: .cfa -56 + ^ x26: .cfa -64 + ^ x27: .cfa -72 + ^ x28: .cfa -80 + ^ .ra: .cfa -88 + ^ x29: .cfa -96 + ^
STACK CFI 215c8 .cfa: sp 112 +
STACK CFI 215cc .cfa: x29 96 +
STACK CFI 215d4 .cfa: sp 112 +
STACK CFI 215f0 .cfa: sp 0 +
STACK CFI 215f4 .cfa: x29 96 +
STACK CFI 21614 .cfa: sp 112 +
STACK CFI INIT 21618 e54 .cfa: sp 0 +
STACK CFI 2161c .cfa: sp 192 +
STACK CFI 21638 .cfa: x29 96 + x19: .cfa -8 + ^ x20: .cfa -16 + ^ x21: .cfa -24 + ^ x22: .cfa -32 + ^ x23: .cfa -40 + ^ x24: .cfa -48 + ^ x25: .cfa -56 + ^ x26: .cfa -64 + ^ x27: .cfa -72 + ^ x28: .cfa -80 + ^ .ra: .cfa -88 + ^ x29: .cfa -96 + ^
STACK CFI 22354 .cfa: sp 192 +
STACK CFI 22370 .cfa: sp 0 +
STACK CFI 22374 .cfa: x29 96 +
STACK CFI INIT 2246c 1068 .cfa: sp 0 +
STACK CFI 22470 .cfa: sp 288 +
STACK CFI 2248c .cfa: x29 96 + x19: .cfa -8 + ^ x20: .cfa -16 + ^ x21: .cfa -24 + ^ x22: .cfa -32 + ^ x23: .cfa -40 + ^ x24: .cfa -48 + ^ x25: .cfa -56 + ^ x26: .cfa -64 + ^ x27: .cfa -72 + ^ x28: .cfa -80 + ^ .ra: .cfa -88 + ^ x29: .cfa -96 + ^
STACK CFI 2321c .cfa: sp 288 +
STACK CFI 23238 .cfa: sp 0 +
STACK CFI 2323c .cfa: x29 96 +
STACK CFI INIT 234d4 520 .cfa: sp 0 +
STACK CFI 234d8 .cfa: sp 144 +
STACK CFI 234f4 .cfa: x29 96 + x19: .cfa -8 + ^ x20: .cfa -16 + ^ x21: .cfa -24 + ^ x22: .cfa -32 + ^ x23: .cfa -40 + ^ x24: .cfa -48 + ^ x25: .cfa -56 + ^ x26: .cfa -64 + ^ x27: .cfa -72 + ^ x28: .cfa -80 + ^ .ra: .cfa -88 + ^ x29: .cfa -96 + ^
STACK CFI 239d0 .cfa: sp 144 +
STACK CFI 239ec .cfa: sp 0 +
STACK CFI 239f0 .cfa: x29 96 +
STACK CFI INIT 24394 136c .cfa: sp 0 +
STACK CFI 24398 .cfa: sp 224 +
STACK CFI 243b4 .cfa: x29 96 + x19: .cfa -8 + ^ x20: .cfa -16 + ^ x21: .cfa -24 + ^ x22: .cfa -32 + ^ x23: .cfa -40 + ^ x24: .cfa -48 + ^ x25: .cfa -56 + ^ x26: .cfa -64 + ^ x27: .cfa -72 + ^ x28: .cfa -80 + ^ .ra: .cfa -88 + ^ x29: .cfa -96 + ^
STACK CFI 256dc .cfa: sp 224 +
STACK CFI 256f8 .cfa: sp 0 +
STACK CFI 256fc .cfa: x29 96 +
STACK CFI INIT 25700 1b8 .cfa: sp 0 +
STACK CFI INIT e580 43c .cfa: sp 0 +
STACK CFI e584 .cfa: sp 224 +
STACK CFI e5a0 .cfa: x29 96 + x19: .cfa -8 + ^ x20: .cfa -16 + ^ x21: .cfa -24 + ^ x22: .cfa -32 + ^ x23: .cfa -40 + ^ x24: .cfa -48 + ^ x25: .cfa -56 + ^ x26: .cfa -64 + ^ x27: .cfa -72 + ^ x28: .cfa -80 + ^ .ra: .cfa -88 + ^ x29: .cfa -96 + ^
STACK CFI e8b4 .cfa: sp 224 +
STACK CFI e8d0 .cfa: sp 0 +
STACK CFI e8d4 .cfa: x29 96 +
STACK CFI INIT e9d8 6b4 .cfa: sp 0 +
STACK CFI e9dc .cfa: sp 304 +
STACK CFI e9f8 .cfa: x29 96 + x19: .cfa -8 + ^ x20: .cfa -16 + ^ x21: .cfa -24 + ^ x22: .cfa -32 + ^ x23: .cfa -40 + ^ x24: .cfa -48 + ^ x25: .cfa -56 + ^ x26: .cfa -64 + ^ x27: .cfa -72 + ^ x28: .cfa -80 + ^ .ra: .cfa -88 + ^ x29: .cfa -96 + ^
STACK CFI ee98 .cfa: sp 304 +
STACK CFI eeb4 .cfa: sp 0 +
STACK CFI eeb8 .cfa: x29 96 +
STACK CFI INIT f0dc 74 .cfa: sp 0 +
STACK CFI f0e0 .cfa: sp 48 +
STACK CFI f0ec .cfa: x29 32 + x19: .cfa -8 + ^ x20: .cfa -16 + ^ .ra: .cfa -24 + ^ x29: .cfa -32 + ^
STACK CFI f138 .cfa: sp 48 +
STACK CFI f144 .cfa: sp 0 +
STACK CFI f148 .cfa: x29 32 +
STACK CFI INIT f1e0 154 .cfa: sp 0 +
STACK CFI f1e4 .cfa: sp 384 +
STACK CFI f1f8 .cfa: x29 64 + x19: .cfa -8 + ^ x20: .cfa -16 + ^ x21: .cfa -24 + ^ x22: .cfa -32 + ^ x23: .cfa -40 + ^ x28: .cfa -48 + ^ .ra: .cfa -56 + ^ x29: .cfa -64 + ^
STACK CFI f2dc .cfa: sp 384 +
STACK CFI f2f0 .cfa: sp 0 +
STACK CFI f2f4 .cfa: x29 64 +
STACK CFI INIT f368 12c .cfa: sp 0 +
STACK CFI f36c .cfa: sp 80 +
STACK CFI f380 .cfa: x29 80 + x19: .cfa -8 + ^ x20: .cfa -16 + ^ x21: .cfa -24 + ^ x22: .cfa -32 + ^ x23: .cfa -40 + ^ x24: .cfa -48 + ^ x25: .cfa -56 + ^ x26: .cfa -64 + ^ .ra: .cfa -72 + ^ x29: .cfa -80 + ^
STACK CFI f448 .cfa: sp 80 +
STACK CFI f45c .cfa: sp 0 +
STACK CFI f460 .cfa: x29 80 +
STACK CFI INIT f538 1a4 .cfa: sp 0 +
STACK CFI f53c .cfa: sp 112 +
STACK CFI f554 .cfa: x29 80 + x19: .cfa -8 + ^ x20: .cfa -16 + ^ x21: .cfa -24 + ^ x22: .cfa -32 + ^ x23: .cfa -40 + ^ x24: .cfa -48 + ^ x25: .cfa -56 + ^ x26: .cfa -64 + ^ .ra: .cfa -72 + ^ x29: .cfa -80 + ^
STACK CFI f644 .cfa: sp 112 +
STACK CFI f65c .cfa: sp 0 +
STACK CFI f660 .cfa: x29 80 +
STACK CFI INIT f6dc 1dc .cfa: sp 0 +
STACK CFI f6e0 .cfa: sp 128 +
STACK CFI f6fc .cfa: x29 96 + x19: .cfa -8 + ^ x20: .cfa -16 + ^ x21: .cfa -24 + ^ x22: .cfa -32 + ^ x23: .cfa -40 + ^ x24: .cfa -48 + ^ x25: .cfa -56 + ^ x26: .cfa -64 + ^ x27: .cfa -80 + ^ .ra: .cfa -88 + ^ x29: .cfa -96 + ^
STACK CFI f868 .cfa: sp 128 +
STACK CFI f884 .cfa: sp 0 +
STACK CFI f888 .cfa: x29 96 +
STACK CFI INIT f8cc 50 .cfa: sp 0 +
STACK CFI f8d0 .cfa: sp 32 +
STACK CFI f8d8 .cfa: x29 32 + x19: .cfa -8 + ^ x20: .cfa -16 + ^ .ra: .cfa -24 + ^ x29: .cfa -32 + ^
STACK CFI INIT f980 178 .cfa: sp 0 +
STACK CFI f984 .cfa: sp 80 +
STACK CFI f998 .cfa: x29 80 + x19: .cfa -8 + ^ x20: .cfa -16 + ^ x21: .cfa -24 + ^ x22: .cfa -32 + ^ x23: .cfa -40 + ^ x24: .cfa -48 + ^ x25: .cfa -64 + ^ .ra: .cfa -72 + ^ x29: .cfa -80 + ^
STACK CFI fac4 .cfa: sp 80 +
STACK CFI fad8 .cfa: sp 0 +
STACK CFI fadc .cfa: x29 80 +
STACK CFI INIT fc40 228 .cfa: sp 0 +
STACK CFI fc44 .cfa: sp 128 +
STACK CFI fc5c .cfa: x29 80 + x19: .cfa -8 + ^ x20: .cfa -16 + ^ x21: .cfa -24 + ^ x22: .cfa -32 + ^ x23: .cfa -40 + ^ x24: .cfa -48 + ^ x25: .cfa -64 + ^ .ra: .cfa -72 + ^ x29: .cfa -80 + ^
STACK CFI fdf8 .cfa: sp 128 +
STACK CFI fe10 .cfa: sp 0 +
STACK CFI fe14 .cfa: x29 80 +
STACK CFI INIT 1064c 590 .cfa: sp 0 +
STACK CFI 10650 .cfa: sp 96 +
STACK CFI 10668 .cfa: x29 96 + x19: .cfa -8 + ^ x20: .cfa -16 + ^ x21: .cfa -24 + ^ x22: .cfa -32 + ^ x23: .cfa -40 + ^ x24: .cfa -48 + ^ x25: .cfa -56 + ^ x26: .cfa -64 + ^ x27: .cfa -72 + ^ x28: .cfa -80 + ^ .ra: .cfa -88 + ^ x29: .cfa -96 + ^
STACK CFI 106b0 .cfa: sp 96 +
STACK CFI 106c8 .cfa: sp 0 +
STACK CFI 106cc .cfa: x29 96 +
STACK CFI 10b08 .cfa: sp 96 +
STACK CFI 10b20 .cfa: sp 0 +
STACK CFI 10b24 .cfa: x29 96 +
STACK CFI INIT 10c90 63c .cfa: sp 0 +
STACK CFI 10c94 .cfa: sp 224 +
STACK CFI 10cb0 .cfa: x29 96 + x19: .cfa -8 + ^ x20: .cfa -16 + ^ x21: .cfa -24 + ^ x22: .cfa -32 + ^ x23: .cfa -40 + ^ x24: .cfa -48 + ^ x25: .cfa -56 + ^ x26: .cfa -64 + ^ x27: .cfa -72 + ^ x28: .cfa -80 + ^ .ra: .cfa -88 + ^ x29: .cfa -96 + ^
STACK CFI 11158 .cfa: sp 224 +
STACK CFI 11174 .cfa: sp 0 +
STACK CFI 11178 .cfa: x29 96 +
STACK CFI INIT 11304 48 .cfa: sp 0 +
STACK CFI 11308 .cfa: sp 32 +
STACK CFI 11310 .cfa: x29 32 + x19: .cfa -8 + ^ x20: .cfa -16 + ^ .ra: .cfa -24 + ^ x29: .cfa -32 + ^
STACK CFI INIT 11950 480 .cfa: sp 0 +
STACK CFI 11954 .cfa: sp 224 +
STACK CFI 11970 .cfa: x29 96 + x19: .cfa -8 + ^ x20: .cfa -16 + ^ x21: .cfa -24 + ^ x22: .cfa -32 + ^ x23: .cfa -40 + ^ x24: .cfa -48 + ^ x25: .cfa -56 + ^ x26: .cfa -64 + ^ x27: .cfa -80 + ^ .ra: .cfa -88 + ^ x29: .cfa -96 + ^
STACK CFI 11bdc .cfa: sp 224 +
STACK CFI 11bf8 .cfa: sp 0 +
STACK CFI 11bfc .cfa: x29 96 +
STACK CFI 11cc8 .cfa: sp 224 +
STACK CFI 11ce4 .cfa: sp 0 +
STACK CFI 11ce8 .cfa: x29 96 +
STACK CFI INIT 11dec 380 .cfa: sp 0 +
STACK CFI 11df0 .cfa: sp 240 +
STACK CFI 11e04 .cfa: x29 64 + x19: .cfa -8 + ^ x20: .cfa -16 + ^ x21: .cfa -24 + ^ x22: .cfa -32 + ^ x23: .cfa -40 + ^ x24: .cfa -48 + ^ .ra: .cfa -56 + ^ x29: .cfa -64 + ^
STACK CFI 12040 .cfa: sp 240 +
STACK CFI 12054 .cfa: sp 0 +
STACK CFI 12058 .cfa: x29 64 +
STACK CFI INIT 12170 228 .cfa: sp 0 +
STACK CFI 12174 .cfa: sp 128 +
STACK CFI 12188 .cfa: x29 64 + x19: .cfa -8 + ^ x20: .cfa -16 + ^ x21: .cfa -24 + ^ x22: .cfa -32 + ^ x23: .cfa -40 + ^ x24: .cfa -48 + ^ .ra: .cfa -56 + ^ x29: .cfa -64 + ^
STACK CFI 12314 .cfa: sp 128 +
STACK CFI 12328 .cfa: sp 0 +
STACK CFI 1232c .cfa: x29 64 +
STACK CFI INIT 12408 374 .cfa: sp 0 +
STACK CFI 1240c .cfa: sp 112 +
STACK CFI 12424 .cfa: x29 64 + x19: .cfa -8 + ^ x20: .cfa -16 + ^ x21: .cfa -24 + ^ x22: .cfa -32 + ^ x23: .cfa -40 + ^ x24: .cfa -48 + ^ .ra: .cfa -56 + ^ x29: .cfa -64 + ^ v8: .cfa -72 + ^ v9: .cfa -80 + ^
STACK CFI 12730 .cfa: sp 112 +
STACK CFI 12748 .cfa: sp 0 +
STACK CFI 1274c .cfa: x29 64 +
STACK CFI INIT 1289c 43c .cfa: sp 0 +
STACK CFI 128a0 .cfa: sp 224 +
STACK CFI 128bc .cfa: x29 96 + x19: .cfa -8 + ^ x20: .cfa -16 + ^ x21: .cfa -24 + ^ x22: .cfa -32 + ^ x23: .cfa -40 + ^ x24: .cfa -48 + ^ x25: .cfa -56 + ^ x26: .cfa -64 + ^ x27: .cfa -72 + ^ x28: .cfa -80 + ^ .ra: .cfa -88 + ^ x29: .cfa -96 + ^
STACK CFI 12bd0 .cfa: sp 224 +
STACK CFI 12bec .cfa: sp 0 +
STACK CFI 12bf0 .cfa: x29 96 +
STACK CFI INIT 12cf4 9c0 .cfa: sp 0 +
STACK CFI 12cf8 .cfa: sp 304 +
STACK CFI 12d14 .cfa: x29 96 + x19: .cfa -8 + ^ x20: .cfa -16 + ^ x21: .cfa -24 + ^ x22: .cfa -32 + ^ x23: .cfa -40 + ^ x24: .cfa -48 + ^ x25: .cfa -56 + ^ x26: .cfa -64 + ^ x28: .cfa -80 + ^ .ra: .cfa -88 + ^ x29: .cfa -96 + ^
STACK CFI 13408 .cfa: sp 304 +
STACK CFI 13424 .cfa: sp 0 +
STACK CFI 13428 .cfa: x29 96 +
STACK CFI INIT 13880 a8 .cfa: sp 0 +
STACK CFI 13884 .cfa: sp 32 +
STACK CFI 1388c .cfa: x29 32 + x19: .cfa -16 + ^ .ra: .cfa -24 + ^ x29: .cfa -32 + ^
STACK CFI 138c0 .cfa: sp 32 +
STACK CFI 138c8 .cfa: sp 0 +
STACK CFI 138cc .cfa: x29 32 +
STACK CFI 138d0 .cfa: sp 32 +
STACK CFI 138d8 .cfa: sp 0 +
STACK CFI 138dc .cfa: x29 32 +
STACK CFI INIT 139d4 a8 .cfa: sp 0 +
STACK CFI 139d8 .cfa: sp 32 +
STACK CFI 139e0 .cfa: x29 32 + x19: .cfa -16 + ^ .ra: .cfa -24 + ^ x29: .cfa -32 + ^
STACK CFI 13a14 .cfa: sp 32 +
STACK CFI 13a1c .cfa: sp 0 +
STACK CFI 13a20 .cfa: x29 32 +
STACK CFI 13a24 .cfa: sp 32 +
STACK CFI 13a2c .cfa: sp 0 +
STACK CFI 13a30 .cfa: x29 32 +
STACK CFI INIT 13de8 294 .cfa: sp 0 +
STACK CFI 13dec .cfa: sp 240 +
STACK CFI 13e04 .cfa: x29 80 + x19: .cfa -8 + ^ x20: .cfa -16 + ^ x21: .cfa -24 + ^ x22: .cfa -32 + ^ x23: .cfa -40 + ^ x24: .cfa -48 + ^ x25: .cfa -64 + ^ .ra: .cfa -72 + ^ x29: .cfa -80 + ^
STACK CFI 13fa4 .cfa: sp 240 +
STACK CFI 13fbc .cfa: sp 0 +
STACK CFI 13fc0 .cfa: x29 80 +
STACK CFI INIT 140f8 50 .cfa: sp 0 +
STACK CFI 140fc .cfa: sp 32 +
STACK CFI 14104 .cfa: x29 32 + x19: .cfa -8 + ^ x20: .cfa -16 + ^ .ra: .cfa -24 + ^ x29: .cfa -32 + ^
STACK CFI INIT 14174 7c0 .cfa: sp 0 +
STACK CFI 14178 .cfa: sp 320 +
STACK CFI 14194 .cfa: x29 96 + x19: .cfa -8 + ^ x20: .cfa -16 + ^ x21: .cfa -24 + ^ x22: .cfa -32 + ^ x23: .cfa -40 + ^ x24: .cfa -48 + ^ x25: .cfa -56 + ^ x26: .cfa -64 + ^ x27: .cfa -72 + ^ x28: .cfa -80 + ^ .ra: .cfa -88 + ^ x29: .cfa -96 + ^
STACK CFI 147e4 .cfa: sp 320 +
STACK CFI 14800 .cfa: sp 0 +
STACK CFI 14804 .cfa: x29 96 +
STACK CFI INIT 18cb4 c74 .cfa: sp 0 +
STACK CFI 18cb8 .cfa: sp 96 +
STACK CFI 18cd0 .cfa: x29 96 + x19: .cfa -8 + ^ x20: .cfa -16 + ^ x21: .cfa -24 + ^ x22: .cfa -32 + ^ x23: .cfa -40 + ^ x24: .cfa -48 + ^ x25: .cfa -56 + ^ x26: .cfa -64 + ^ x27: .cfa -72 + ^ x28: .cfa -80 + ^ .ra: .cfa -88 + ^ x29: .cfa -96 + ^
STACK CFI 19748 .cfa: sp 96 +
STACK CFI 19760 .cfa: sp 0 +
STACK CFI 19764 .cfa: x29 96 +
STACK CFI INIT 19a7c 26c .cfa: sp 0 +
STACK CFI 19a80 .cfa: sp 128 +
STACK CFI 19a90 .cfa: x29 48 + x19: .cfa -8 + ^ x20: .cfa -16 + ^ x21: .cfa -24 + ^ x22: .cfa -32 + ^ .ra: .cfa -40 + ^ x29: .cfa -48 + ^
STACK CFI 19c34 .cfa: sp 128 +
STACK CFI 19c44 .cfa: sp 0 +
STACK CFI 19c48 .cfa: x29 48 +
STACK CFI INIT 1a234 3b8 .cfa: sp 0 +
STACK CFI 1a238 .cfa: sp 96 +
STACK CFI 1a250 .cfa: x29 96 + x19: .cfa -8 + ^ x20: .cfa -16 + ^ x21: .cfa -24 + ^ x22: .cfa -32 + ^ x23: .cfa -40 + ^ x24: .cfa -48 + ^ x25: .cfa -56 + ^ x26: .cfa -64 + ^ x27: .cfa -72 + ^ x28: .cfa -80 + ^ .ra: .cfa -88 + ^ x29: .cfa -96 + ^
STACK CFI 1a58c .cfa: sp 96 +
STACK CFI 1a5a4 .cfa: sp 0 +
STACK CFI 1a5a8 .cfa: x29 96 +
STACK CFI INIT 1a68c cb4 .cfa: sp 0 +
STACK CFI 1a690 .cfa: sp 96 +
STACK CFI 1a6a8 .cfa: x29 96 + x19: .cfa -8 + ^ x20: .cfa -16 + ^ x21: .cfa -24 + ^ x22: .cfa -32 + ^ x23: .cfa -40 + ^ x24: .cfa -48 + ^ x25: .cfa -56 + ^ x26: .cfa -64 + ^ x27: .cfa -72 + ^ x28: .cfa -80 + ^ .ra: .cfa -88 + ^ x29: .cfa -96 + ^
STACK CFI 1b150 .cfa: sp 96 +
STACK CFI 1b168 .cfa: sp 0 +
STACK CFI 1b16c .cfa: x29 96 +
STACK CFI INIT 1b628 afc .cfa: sp 0 +
STACK CFI 1b62c .cfa: sp 96 +
STACK CFI 1b644 .cfa: x29 96 + x19: .cfa -8 + ^ x20: .cfa -16 + ^ x21: .cfa -24 + ^ x22: .cfa -32 + ^ x23: .cfa -40 + ^ x24: .cfa -48 + ^ x25: .cfa -56 + ^ x26: .cfa -64 + ^ x27: .cfa -72 + ^ x28: .cfa -80 + ^ .ra: .cfa -88 + ^ x29: .cfa -96 + ^
STACK CFI 1c098 .cfa: sp 96 +
STACK CFI 1c0b0 .cfa: sp 0 +
STACK CFI 1c0b4 .cfa: x29 96 +
STACK CFI INIT 1c300 1430 .cfa: sp 0 +
STACK CFI 1c304 .cfa: sp 96 +
STACK CFI 1c31c .cfa: x29 96 + x19: .cfa -8 + ^ x20: .cfa -16 + ^ x21: .cfa -24 + ^ x22: .cfa -32 + ^ x23: .cfa -40 + ^ x24: .cfa -48 + ^ x25: .cfa -56 + ^ x26: .cfa -64 + ^ x27: .cfa -72 + ^ x28: .cfa -80 + ^ .ra: .cfa -88 + ^ x29: .cfa -96 + ^
STACK CFI 1d5b8 .cfa: sp 96 +
STACK CFI 1d5d0 .cfa: sp 0 +
STACK CFI 1d5d4 .cfa: x29 96 +
STACK CFI INIT 1d854 75c .cfa: sp 0 +
STACK CFI 1d858 .cfa: sp 368 +
STACK CFI 1d874 .cfa: x29 96 + x19: .cfa -8 + ^ x20: .cfa -16 + ^ x21: .cfa -24 + ^ x22: .cfa -32 + ^ x23: .cfa -40 + ^ x24: .cfa -48 + ^ x25: .cfa -56 + ^ x26: .cfa -64 + ^ x27: .cfa -72 + ^ x28: .cfa -80 + ^ .ra: .cfa -88 + ^ x29: .cfa -96 + ^
STACK CFI 1d928 .cfa: sp 368 +
STACK CFI 1d944 .cfa: sp 0 +
STACK CFI 1d948 .cfa: x29 96 +
STACK CFI 1d99c .cfa: sp 368 +
STACK CFI 1d9b8 .cfa: sp 0 +
STACK CFI 1d9bc .cfa: x29 96 +
STACK CFI INIT 1e370 eb0 .cfa: sp 0 +
STACK CFI 1e374 .cfa: sp 96 +
STACK CFI 1e38c .cfa: x29 96 + x19: .cfa -8 + ^ x20: .cfa -16 + ^ x21: .cfa -24 + ^ x22: .cfa -32 + ^ x23: .cfa -40 + ^ x24: .cfa -48 + ^ x25: .cfa -56 + ^ x26: .cfa -64 + ^ x27: .cfa -72 + ^ x28: .cfa -80 + ^ .ra: .cfa -88 + ^ x29: .cfa -96 + ^
STACK CFI 1f034 .cfa: sp 96 +
STACK CFI 1f04c .cfa: sp 0 +
STACK CFI 1f050 .cfa: x29 96 +
STACK CFI INIT 1f594 1c9c .cfa: sp 0 +
STACK CFI 1f598 .cfa: sp 112 +
STACK CFI 1f5b4 .cfa: x29 96 + x19: .cfa -8 + ^ x20: .cfa -16 + ^ x21: .cfa -24 + ^ x22: .cfa -32 + ^ x23: .cfa -40 + ^ x24: .cfa -48 + ^ x25: .cfa -56 + ^ x26: .cfa -64 + ^ x27: .cfa -72 + ^ x28: .cfa -80 + ^ .ra: .cfa -88 + ^ x29: .cfa -96 + ^ v8: .cfa -112 + ^
STACK CFI 1f99c .cfa: sp 112 +
STACK CFI 1f9b8 .cfa: sp 0 +
STACK CFI 1f9bc .cfa: x29 96 +
STACK CFI INIT 239f4 9a0 .cfa: sp 0 +
STACK CFI 239f8 .cfa: sp 144 +
STACK CFI 23a10 .cfa: x29 80 + x19: .cfa -8 + ^ x20: .cfa -16 + ^ x21: .cfa -24 + ^ x22: .cfa -32 + ^ x23: .cfa -40 + ^ x24: .cfa -48 + ^ x25: .cfa -64 + ^ .ra: .cfa -72 + ^ x29: .cfa -80 + ^
STACK CFI 24310 .cfa: sp 144 +
STACK CFI 24328 .cfa: sp 0 +
STACK CFI 2432c .cfa: x29 80 +
STACK CFI INIT 258b8 57c .cfa: sp 0 +
STACK CFI 258bc .cfa: sp 96 +
STACK CFI 258d4 .cfa: x29 96 + x19: .cfa -8 + ^ x20: .cfa -16 + ^ x21: .cfa -24 + ^ x22: .cfa -32 + ^ x23: .cfa -40 + ^ x24: .cfa -48 + ^ x25: .cfa -56 + ^ x26: .cfa -64 + ^ x27: .cfa -72 + ^ x28: .cfa -80 + ^ .ra: .cfa -88 + ^ x29: .cfa -96 + ^
STACK CFI 25d98 .cfa: sp 96 +
STACK CFI 25db0 .cfa: sp 0 +
STACK CFI 25db4 .cfa: x29 96 +
STACK CFI INIT 25e34 67c .cfa: sp 0 +
STACK CFI 25e38 .cfa: sp 96 +
STACK CFI 25e50 .cfa: x29 96 + x19: .cfa -8 + ^ x20: .cfa -16 + ^ x21: .cfa -24 + ^ x22: .cfa -32 + ^ x23: .cfa -40 + ^ x24: .cfa -48 + ^ x25: .cfa -56 + ^ x26: .cfa -64 + ^ x27: .cfa -72 + ^ x28: .cfa -80 + ^ .ra: .cfa -88 + ^ x29: .cfa -96 + ^
STACK CFI 26414 .cfa: sp 96 +
STACK CFI 2642c .cfa: sp 0 +
STACK CFI 26430 .cfa: x29 96 +
