MODULE Linux arm64 7630F7D88A1196E5720AA3F089A41CD30 blueblock6.cleanstartpos.android64.so
INFO CODE_ID D8F73076118AE596720AA3F089A41CD344468945
INFO GENERATOR mozilla/dump_syms 2.3.4
PUBLIC 14e80 0 __on_dlclose
PUBLIC 14e90 0 __emutls_unregister_key
PUBLIC 14e98 0 __on_dlclose_late
PUBLIC 14ea0 0 __atexit_handler_wrapper
PUBLIC 14eb4 0 atexit
PUBLIC 14ed0 0 pthread_atfork
PUBLIC 14ee0 0 __aarch64_ldadd8_relax
PUBLIC 14f10 0 init_have_lse_atomics
PUBLIC 14fa8 0 __init_cpu_features_constructor
PUBLIC 15544 0 __init_cpu_features
PUBLIC 155d0 0 __aarch64_ldadd8_acq_rel
PUBLIC 15600 0 std::__ndk1::unordered_map<short, std::__ndk1::pair<StartPosObject*, GameObject*>, std::__ndk1::hash<short>, std::__ndk1::equal_to<short>, std::__ndk1::allocator<std::__ndk1::pair<short const, std::__ndk1::pair<StartPosObject*, GameObject*> > > >::~unordered_map[abi:ne180000]()
PUBLIC 1564c 0 loadFakeStartpos(GameObject*, StartPosObject*)
PUBLIC 157dc 0 __cxx_global_var_init.1
PUBLIC 15c60 0 geode::modifier::ModifyBase<geode::modifier::ModifyDerive<CleanStartpos, LevelSettingsLayer> >::~ModifyBase()
PUBLIC 15c78 0 __cxx_global_var_init.2
PUBLIC 160d4 0 __cxx_global_var_init.4
PUBLIC 16530 0 __cxx_global_var_init.5
PUBLIC 1698c 0 __cxx_global_var_init.6
PUBLIC 16de8 0 _GLOBAL__sub_I_main.cpp
PUBLIC 16e14 0 geode::modifier::ModifyBase<geode::modifier::ModifyDerive<hook340<(anonymous namespace)::hook340Parent>, GJBaseGameLayer> >::~ModifyBase()
PUBLIC 16e2c 0 __cxx_global_var_init.3
PUBLIC 172b0 0 geode::modifier::ModifyBase<geode::modifier::ModifyDerive<CPlayLayer, PlayLayer> >::~ModifyBase()
PUBLIC 172c8 0 geode::modifier::ModifyBase<geode::modifier::ModifyDerive<hook462<(anonymous namespace)::hook462Parent>, EditorUI> >::~ModifyBase()
PUBLIC 172e0 0 geode::modifier::ModifyBase<geode::modifier::ModifyDerive<hook482<(anonymous namespace)::hook482Parent>, DrawGridLayer> >::~ModifyBase()
PUBLIC 172f8 0 geode::modifier::ModifyBase<geode::modifier::ModifyDerive<hook494<(anonymous namespace)::hook494Parent>, LevelEditorLayer> >::~ModifyBase()
PUBLIC 17310 0 cocos2d::CCCopying::copyWithZone(cocos2d::CCZone*)
PUBLIC 17318 0 __clang_call_terminate
PUBLIC 17328 0 std::__ndk1::__hash_table<std::__ndk1::__hash_value_type<short, std::__ndk1::pair<StartPosObject*, GameObject*> >, std::__ndk1::__unordered_map_hasher<short, std::__ndk1::__hash_value_type<short, std::__ndk1::pair<StartPosObject*, GameObject*> >, std::__ndk1::hash<short>, std::__ndk1::equal_to<short>, true>, std::__ndk1::__unordered_map_equal<short, std::__ndk1::__hash_value_type<short, std::__ndk1::pair<StartPosObject*, GameObject*> >, std::__ndk1::equal_to<short>, std::__ndk1::hash<short>, true>, std::__ndk1::allocator<std::__ndk1::__hash_value_type<short, std::__ndk1::pair<StartPosObject*, GameObject*> > > >::~__hash_table()
PUBLIC 17374 0 geode::modifier::ModifyDerive<CleanStartpos, LevelSettingsLayer>::apply()
PUBLIC 179f4 0 std::__ndk1::shared_ptr<geode::Hook>::~shared_ptr[abi:ne180000]()
PUBLIC 17a44 0 geode::impl::ResultData<geode::Hook*, std::__ndk1::basic_string<char, std::__ndk1::char_traits<char>, std::__ndk1::allocator<char> > >::~ResultData()
PUBLIC 17ab8 0 std::__ndk1::vector<std::__ndk1::basic_string<char, std::__ndk1::char_traits<char>, std::__ndk1::allocator<char> >, std::__ndk1::allocator<std::__ndk1::basic_string<char, std::__ndk1::char_traits<char>, std::__ndk1::allocator<char> > > >::~vector[abi:ne180000]()
PUBLIC 17b34 0 geode::modifier::ModifyBase<geode::modifier::ModifyDerive<CleanStartpos, LevelSettingsLayer> >::apply()
PUBLIC 17b38 0 _ZN5geode15UnwrapExceptionC2IRPNS_4HookEQsr4implE18IsStringStreamableIT_EEENS_4impl5OkTagEOS5_
PUBLIC 17c8c 0 std::__ndk1::__throw_bad_variant_access[abi:ne180000]()
PUBLIC 17cc0 0 std::__ndk1::basic_stringstream<char, std::__ndk1::char_traits<char>, std::__ndk1::allocator<char> >::basic_stringstream[abi:ne180000]()
PUBLIC m 17dec 0 std::__ndk1::basic_stringstream<char, std::__ndk1::char_traits<char>, std::__ndk1::allocator<char> >::~basic_stringstream()
PUBLIC 17e6c 0 geode::UnwrapException::~UnwrapException()
PUBLIC 17e90 0 std::__ndk1::__put_character_sequence[abi:ne180000]<char, std::__ndk1::char_traits<char> >(std::__ndk1::basic_ostream<char, std::__ndk1::char_traits<char> >, std::__ndk1::basic_ostream const*, unsigned long)
PUBLIC 18034 0 std::__ndk1::__pad_and_output[abi:ne180000]<char, std::__ndk1::char_traits<char> >(std::__ndk1::char_traits<char>, std::__ndk1::ostreambuf_iterator const*, std::__ndk1::ostreambuf_iterator const, std::__ndk1::ostreambuf_iterator const, std::__ndk1::ios_base&, std::__ndk1::ostreambuf_iterator)
PUBLIC 18210 0 std::__ndk1::basic_string<char, std::__ndk1::char_traits<char>, std::__ndk1::allocator<char> >::__throw_length_error[abi:ne180000]() const
PUBLIC 18224 0 std::__ndk1::__throw_length_error[abi:ne180000](char const*)
PUBLIC 18274 0 std::length_error::length_error[abi:ne180000](char const*)
PUBLIC 182a4 0 std::__throw_bad_array_new_length([abi:ne180000], void)
PUBLIC 182d8 0 std::__ndk1::basic_stringbuf<char, std::__ndk1::char_traits<char>, std::__ndk1::allocator<char> >::str[abi:ne180000]() &&
PUBLIC 18450 0 std::__ndk1::basic_stringbuf<char, std::__ndk1::char_traits<char>, std::__ndk1::allocator<char> >::__init_buf_ptrs[abi:ne180000]()
PUBLIC 18598 0 std::__ndk1::vector<std::__ndk1::basic_string<char, std::__ndk1::char_traits<char>, std::__ndk1::allocator<char> >, std::__ndk1::allocator<std::__ndk1::basic_string<char, std::__ndk1::char_traits<char>, std::__ndk1::allocator<char> > > >::__push_back_slow_path<std::__ndk1::basic_string<char, std::__ndk1::char_traits<char>, std::__ndk1::allocator<char> > const&>(std::__ndk1::basic_string<char, std::__ndk1::char_traits<char>, std::__ndk1::allocator<char> > const&)
PUBLIC 187bc 0 std::__ndk1::basic_string<char, std::__ndk1::char_traits<char>, std::__ndk1::allocator<char> >::__init_copy_ctor_external(char const*, unsigned long)
PUBLIC 1883c 0 std::__ndk1::__split_buffer<std::__ndk1::basic_string<char, std::__ndk1::char_traits<char>, std::__ndk1::allocator<char> >, std::__ndk1::allocator<std::__ndk1::basic_string<char, std::__ndk1::char_traits<char>, std::__ndk1::allocator<char> > >&>::~__split_buffer()
PUBLIC 188a4 0 std::__ndk1::vector<std::__ndk1::basic_string<char, std::__ndk1::char_traits<char>, std::__ndk1::allocator<char> >, std::__ndk1::allocator<std::__ndk1::basic_string<char, std::__ndk1::char_traits<char>, std::__ndk1::allocator<char> > > >::__throw_length_error[abi:ne180000]() const
PUBLIC 188b8 0 std::__ndk1::__variant_detail::__visitation::__base::__dispatcher<(unsigned long)0>::__dispatch[abi:ne180000]<std::__ndk1::__variant_detail::__dtor<std::__ndk1::__variant_detail::__traits<geode::Hook*, std::__ndk1::basic_string<char, std::__ndk1::char_traits<char>, std::__ndk1::allocator<char> > >, (std::__ndk1::__variant_detail::_Trait)1>::__destroy[abi:ne180000]()::{lambda(auto:1&)#1}, std::__ndk1::__variant_detail::__base<(std::__ndk1::__variant_detail::__traits<geode::Hook*, std::__ndk1::basic_string<char, std::__ndk1::char_traits<char>, std::__ndk1::allocator<char> > >)1, geode::Hook, std::__ndk1::allocator<char> >&>(std::__ndk1::__variant_detail::__dtor<std::__ndk1::__variant_detail::__traits<geode::Hook*, std::__ndk1::basic_string<char, std::__ndk1::char_traits<char>, std::__ndk1::allocator<char> > >, (std::__ndk1::__variant_detail::_Trait)1>, std::__ndk1::__variant_detail::__base<(std::__ndk1::__variant_detail::__traits<geode::Hook*, std::__ndk1::basic_string<char, std::__ndk1::char_traits<char>, std::__ndk1::allocator<char> > >)1, geode::Hook, std::__ndk1::allocator<char> >&)
PUBLIC 188bc 0 std::__ndk1::__variant_detail::__visitation::__base::__dispatcher<(unsigned long)1>::__dispatch[abi:ne180000]<std::__ndk1::__variant_detail::__dtor<std::__ndk1::__variant_detail::__traits<geode::Hook*, std::__ndk1::basic_string<char, std::__ndk1::char_traits<char>, std::__ndk1::allocator<char> > >, (std::__ndk1::__variant_detail::_Trait)1>::__destroy[abi:ne180000]()::{lambda(auto:1&)#1}, std::__ndk1::__variant_detail::__base<(std::__ndk1::__variant_detail::__traits<geode::Hook*, std::__ndk1::basic_string<char, std::__ndk1::char_traits<char>, std::__ndk1::allocator<char> > >)1, geode::Hook, std::__ndk1::allocator<char> >&>(std::__ndk1::__variant_detail::__dtor<std::__ndk1::__variant_detail::__traits<geode::Hook*, std::__ndk1::basic_string<char, std::__ndk1::char_traits<char>, std::__ndk1::allocator<char> > >, (std::__ndk1::__variant_detail::_Trait)1>, std::__ndk1::__variant_detail::__base<(std::__ndk1::__variant_detail::__traits<geode::Hook*, std::__ndk1::basic_string<char, std::__ndk1::char_traits<char>, std::__ndk1::allocator<char> > >)1, geode::Hook, std::__ndk1::allocator<char> >&)
PUBLIC 188d0 0 std::__ndk1::__tree<std::__ndk1::__value_type<std::__ndk1::basic_string<char, std::__ndk1::char_traits<char>, std::__ndk1::allocator<char> >, std::__ndk1::shared_ptr<geode::Hook> >, std::__ndk1::__map_value_compare<std::__ndk1::basic_string<char, std::__ndk1::char_traits<char>, std::__ndk1::allocator<char> >, std::__ndk1::__value_type<std::__ndk1::basic_string<char, std::__ndk1::char_traits<char>, std::__ndk1::allocator<char> >, std::__ndk1::shared_ptr<geode::Hook> >, std::__ndk1::less<std::__ndk1::basic_string<char, std::__ndk1::char_traits<char>, std::__ndk1::allocator<char> > >, true>, std::__ndk1::allocator<std::__ndk1::__value_type<std::__ndk1::basic_string<char, std::__ndk1::char_traits<char>, std::__ndk1::allocator<char> >, std::__ndk1::shared_ptr<geode::Hook> > > >::find<std::__ndk1::basic_string<char, std::__ndk1::char_traits<char>, std::__ndk1::allocator<char> > >(std::__ndk1::basic_string<char, std::__ndk1::char_traits<char>, std::__ndk1::allocator<char> > const&)
PUBLIC 189f0 0 std::__ndk1::__tree<std::__ndk1::__value_type<std::__ndk1::basic_string<char, std::__ndk1::char_traits<char>, std::__ndk1::allocator<char> >, std::__ndk1::shared_ptr<geode::Hook> >, std::__ndk1::__map_value_compare<std::__ndk1::basic_string<char, std::__ndk1::char_traits<char>, std::__ndk1::allocator<char> >, std::__ndk1::__value_type<std::__ndk1::basic_string<char, std::__ndk1::char_traits<char>, std::__ndk1::allocator<char> >, std::__ndk1::shared_ptr<geode::Hook> >, std::__ndk1::less<std::__ndk1::basic_string<char, std::__ndk1::char_traits<char>, std::__ndk1::allocator<char> > >, true>, std::__ndk1::allocator<std::__ndk1::__value_type<std::__ndk1::basic_string<char, std::__ndk1::char_traits<char>, std::__ndk1::allocator<char> >, std::__ndk1::shared_ptr<geode::Hook> > > >::erase(std::__ndk1::__tree_const_iterator<std::__ndk1::__value_type<std::__ndk1::basic_string<char, std::__ndk1::char_traits<char>, std::__ndk1::allocator<char> >, std::__ndk1::shared_ptr<geode::Hook> >, std::__ndk1::__tree_node<std::__ndk1::__value_type<std::__ndk1::basic_string<char, std::__ndk1::char_traits<char>, std::__ndk1::allocator<char> >, std::__ndk1::shared_ptr<geode::Hook> >, void*>*, long>)
PUBLIC 18e94 0 std::__ndk1::__tree<std::__ndk1::__value_type<std::__ndk1::basic_string<char, std::__ndk1::char_traits<char>, std::__ndk1::allocator<char> >, std::__ndk1::shared_ptr<geode::Hook> >, std::__ndk1::__map_value_compare<std::__ndk1::basic_string<char, std::__ndk1::char_traits<char>, std::__ndk1::allocator<char> >, std::__ndk1::__value_type<std::__ndk1::basic_string<char, std::__ndk1::char_traits<char>, std::__ndk1::allocator<char> >, std::__ndk1::shared_ptr<geode::Hook> >, std::__ndk1::less<std::__ndk1::basic_string<char, std::__ndk1::char_traits<char>, std::__ndk1::allocator<char> > >, true>, std::__ndk1::allocator<std::__ndk1::__value_type<std::__ndk1::basic_string<char, std::__ndk1::char_traits<char>, std::__ndk1::allocator<char> >, std::__ndk1::shared_ptr<geode::Hook> > > >::destroy(std::__ndk1::__tree_node<std::__ndk1::__value_type<std::__ndk1::basic_string<char, std::__ndk1::char_traits<char>, std::__ndk1::allocator<char> >, std::__ndk1::shared_ptr<geode::Hook> >, void*>*)
PUBLIC 18f18 0 geode::modifier::AsStaticFunction_init<CleanStartpos, bool (CleanStartpos::*)(LevelSettingsObject*, LevelEditorLayer*)>::Impl<bool (CleanStartpos::*)(LevelSettingsObject*, LevelEditorLayer*)>::function(CleanStartpos*, LevelSettingsObject*, LevelEditorLayer*)
PUBLIC 18f1c 0 geode::modifier::AsStaticFunction_onClose<CleanStartpos, void (CleanStartpos::*)(cocos2d::CCObject*)>::Impl<void (CleanStartpos::*)(cocos2d::CCObject*)>::function(CleanStartpos*, cocos2d::CCObject*)
PUBLIC 18f20 0 std::__ndk1::shared_ptr<tulip::hook::CallingConvention>::~shared_ptr[abi:ne180000]()
PUBLIC 18f70 0 tulip::hook::HandlerMetadata::~HandlerMetadata()
PUBLIC 18fd4 0 std::__ndk1::vector<tulip::hook::AbstractType, std::__ndk1::allocator<tulip::hook::AbstractType> >::__throw_length_error[abi:ne180000]() const
PUBLIC 18fe8 0 CleanStartpos::init(LevelSettingsObject*, LevelEditorLayer*)
PUBLIC 1c364 0 CleanStartpos::onCMode(cocos2d::CCObject*)
PUBLIC 1c434 0 CleanStartpos::onCSpeed(cocos2d::CCObject*)
PUBLIC 1c504 0 CleanStartpos::toggleProperty(cocos2d::CCObject*)
PUBLIC 1c6b4 0 geode::cocos::CCMenuItemExt::createSpriteExtraWithFrameName(std::__ndk1::basic_string_view<char, std::__ndk1::char_traits<char> >, float, std::__ndk1::function<void (CCMenuItemSpriteExtra*)>)
PUBLIC 1cb60 0 geode::modifier::FieldIntermediate<CleanStartpos, LevelSettingsLayer>::self()
PUBLIC 1ccf0 0 geode::modifier::FieldContainer::getField(unsigned long)
PUBLIC 1d134 0 geode::modifier::FieldContainer::setField(unsigned long, unsigned long, std::__ndk1::function<void (void*)>)
PUBLIC 1d240 0 geode::modifier::FieldIntermediate<CleanStartpos, LevelSettingsLayer>::fieldDestructor(void*)
PUBLIC 1d244 0 std::__ndk1::vector<void*, std::__ndk1::allocator<void*> >::__throw_length_error[abi:ne180000]() const
PUBLIC 1d258 0 std::__ndk1::vector<std::__ndk1::function<void (void*)>, std::__ndk1::allocator<std::__ndk1::function<void (void*)> > >::__throw_length_error[abi:ne180000]() const
PUBLIC 1d26c 0 std::__ndk1::vector<void*, std::__ndk1::allocator<void*> >::__throw_out_of_range[abi:ne180000]() const
PUBLIC 1d278 0 std::__ndk1::__throw_out_of_range[abi:ne180000](char const*)
PUBLIC 1d2c8 0 std::out_of_range::out_of_range[abi:ne180000](char const*)
PUBLIC 1d2f8 0 std::__ndk1::vector<std::__ndk1::function<void (void*)>, std::__ndk1::allocator<std::__ndk1::function<void (void*)> > >::__throw_out_of_range[abi:ne180000]() const
PUBLIC 1d304 0 std::__ndk1::__function::__base<void (void*)>::~__base()
PUBLIC 1d308 0 std::__ndk1::__function::__func<void (*)(void*), std::__ndk1::allocator<void (*)(void*)>, void (void*)>::~__func()
PUBLIC 1d30c 0 std::__ndk1::__function::__func<void (*)(void*), std::__ndk1::allocator<void (*)(void*)>, void (void*)>::__clone() const
PUBLIC 1d344 0 std::__ndk1::__function::__func<void (*)(void*), std::__ndk1::allocator<void (*)(void*)>, void (void*)>::__clone(std::__ndk1::__function::__base<void (void*)>*) const
PUBLIC 1d35c 0 std::__ndk1::__function::__func<void (*)(void*), std::__ndk1::allocator<void (*)(void*)>, void (void*)>::destroy()
PUBLIC 1d360 0 std::__ndk1::__function::__func<void (*)(void*), std::__ndk1::allocator<void (*)(void*)>, void (void*)>::destroy_deallocate()
PUBLIC 1d364 0 std::__ndk1::__function::__func<void (*)(void*), std::__ndk1::allocator<void (*)(void*)>, void (void*)>::operator()(void*&&)
PUBLIC 1d374 0 std::__ndk1::__function::__func<void (*)(void*), std::__ndk1::allocator<void (*)(void*)>, void (void*)>::target(std::type_info const&) const
PUBLIC 1d390 0 std::__ndk1::__function::__func<void (*)(void*), std::__ndk1::allocator<void (*)(void*)>, void (void*)>::target_type() const
PUBLIC 1d39c 0 geode::cast::traverseTypeinfoFor(void*, geode::cast::ClassTypeinfoType const*, char const*)
PUBLIC 1d494 0 geode::cocos::CCMenuItemExt::LambdaCallback<CCMenuItemSpriteExtra>::execute(cocos2d::CCNode*)
PUBLIC 1d504 0 geode::cocos::CCMenuItemExt::LambdaCallback<CCMenuItemSpriteExtra>::~LambdaCallback()
PUBLIC 1d560 0 geode::cocos::CCMenuItemExt::LambdaCallback<CCMenuItemSpriteExtra>::~LambdaCallback()
PUBLIC 1d5c4 0 cocos2d::CCObject::update(float)
PUBLIC 1d5c8 0 std::__ndk1::__throw_bad_function_call[abi:ne180000]()
PUBLIC 1d5fc 0 std::__ndk1::bad_function_call::~bad_function_call()
PUBLIC 1d620 0 std::__ndk1::__function::__func<CleanStartpos::init(LevelSettingsObject*, LevelEditorLayer*)::{lambda(auto:1)#1}, std::__ndk1::allocator<CleanStartpos::init(LevelSettingsObject*, LevelEditorLayer*)::{lambda(auto:1)#1}>, void (CCMenuItemSpriteExtra*)>::~__func()
PUBLIC 1d624 0 std::__ndk1::__function::__func<CleanStartpos::init(LevelSettingsObject*, LevelEditorLayer*)::{lambda(auto:1)#1}, std::__ndk1::allocator<CleanStartpos::init(LevelSettingsObject*, LevelEditorLayer*)::{lambda(auto:1)#1}>, void (CCMenuItemSpriteExtra*)>::__clone() const
PUBLIC 1d658 0 std::__ndk1::__function::__func<CleanStartpos::init(LevelSettingsObject*, LevelEditorLayer*)::{lambda(auto:1)#1}, std::__ndk1::allocator<CleanStartpos::init(LevelSettingsObject*, LevelEditorLayer*)::{lambda(auto:1)#1}>, void (CCMenuItemSpriteExtra*)>::__clone(std::__ndk1::__function::__base<void (CCMenuItemSpriteExtra*)>*) const
PUBLIC 1d66c 0 std::__ndk1::__function::__func<CleanStartpos::init(LevelSettingsObject*, LevelEditorLayer*)::{lambda(auto:1)#1}, std::__ndk1::allocator<CleanStartpos::init(LevelSettingsObject*, LevelEditorLayer*)::{lambda(auto:1)#1}>, void (CCMenuItemSpriteExtra*)>::destroy()
PUBLIC 1d670 0 std::__ndk1::__function::__func<CleanStartpos::init(LevelSettingsObject*, LevelEditorLayer*)::{lambda(auto:1)#1}, std::__ndk1::allocator<CleanStartpos::init(LevelSettingsObject*, LevelEditorLayer*)::{lambda(auto:1)#1}>, void (CCMenuItemSpriteExtra*)>::destroy_deallocate()
PUBLIC 1d674 0 std::__ndk1::__function::__func<CleanStartpos::init(LevelSettingsObject*, LevelEditorLayer*)::{lambda(auto:1)#1}, std::__ndk1::allocator<CleanStartpos::init(LevelSettingsObject*, LevelEditorLayer*)::{lambda(auto:1)#1}>, void (CCMenuItemSpriteExtra*)>::operator()(CCMenuItemSpriteExtra*&&)
PUBLIC 1db30 0 std::__ndk1::__function::__func<CleanStartpos::init(LevelSettingsObject*, LevelEditorLayer*)::{lambda(auto:1)#1}, std::__ndk1::allocator<CleanStartpos::init(LevelSettingsObject*, LevelEditorLayer*)::{lambda(auto:1)#1}>, void (CCMenuItemSpriteExtra*)>::target(std::type_info const&) const
PUBLIC 1db4c 0 std::__ndk1::__function::__func<CleanStartpos::init(LevelSettingsObject*, LevelEditorLayer*)::{lambda(auto:1)#1}, std::__ndk1::allocator<CleanStartpos::init(LevelSettingsObject*, LevelEditorLayer*)::{lambda(auto:1)#1}>, void (CCMenuItemSpriteExtra*)>::target_type() const
PUBLIC 1db58 0 CleanStartpos::onClose(cocos2d::CCObject*)
PUBLIC 1dcd4 0 _ZNSt6__ndk117__from_chars_atoiB8ne180000IiTnNS_9enable_ifIXsr9is_signedIT_EE5valueEiE4typeELi0EEENS_17from_chars_resultEPKcS7_RS2_
PUBLIC 1df3c 0 std::__ndk1::__hash_table<std::__ndk1::__hash_value_type<short, std::__ndk1::pair<StartPosObject*, GameObject*> >, std::__ndk1::__unordered_map_hasher<short, std::__ndk1::__hash_value_type<short, std::__ndk1::pair<StartPosObject*, GameObject*> >, std::__ndk1::hash<short>, std::__ndk1::equal_to<short>, true>, std::__ndk1::__unordered_map_equal<short, std::__ndk1::__hash_value_type<short, std::__ndk1::pair<StartPosObject*, GameObject*> >, std::__ndk1::equal_to<short>, std::__ndk1::hash<short>, true>, std::__ndk1::allocator<std::__ndk1::__hash_value_type<short, std::__ndk1::pair<StartPosObject*, GameObject*> > > >::__emplace_unique_key_args<short, std::__ndk1::piecewise_construct_t const&, std::__ndk1::tuple<short&&>, std::__ndk1::tuple<> >(short const&, std::__ndk1::piecewise_construct_t const&, std::__ndk1::tuple<short&&>, std::__ndk1::tuple<>)
PUBLIC 1e250 0 std::__ndk1::__hash_table<std::__ndk1::__hash_value_type<short, std::__ndk1::pair<StartPosObject*, GameObject*> >, std::__ndk1::__unordered_map_hasher<short, std::__ndk1::__hash_value_type<short, std::__ndk1::pair<StartPosObject*, GameObject*> >, std::__ndk1::hash<short>, std::__ndk1::equal_to<short>, true>, std::__ndk1::__unordered_map_equal<short, std::__ndk1::__hash_value_type<short, std::__ndk1::pair<StartPosObject*, GameObject*> >, std::__ndk1::equal_to<short>, std::__ndk1::hash<short>, true>, std::__ndk1::allocator<std::__ndk1::__hash_value_type<short, std::__ndk1::pair<StartPosObject*, GameObject*> > > >::__do_rehash<true>(unsigned long)
PUBLIC 1e3fc 0 std::__ndk1::__function::__func<CleanStartpos::init(LevelSettingsObject*, LevelEditorLayer*)::{lambda(auto:1)#2}, std::__ndk1::allocator<CleanStartpos::init(LevelSettingsObject*, LevelEditorLayer*)::{lambda(auto:1)#2}>, void (CCMenuItemSpriteExtra*)>::~__func()
PUBLIC 1e400 0 std::__ndk1::__function::__func<CleanStartpos::init(LevelSettingsObject*, LevelEditorLayer*)::{lambda(auto:1)#2}, std::__ndk1::allocator<CleanStartpos::init(LevelSettingsObject*, LevelEditorLayer*)::{lambda(auto:1)#2}>, void (CCMenuItemSpriteExtra*)>::__clone() const
PUBLIC 1e438 0 std::__ndk1::__function::__func<CleanStartpos::init(LevelSettingsObject*, LevelEditorLayer*)::{lambda(auto:1)#2}, std::__ndk1::allocator<CleanStartpos::init(LevelSettingsObject*, LevelEditorLayer*)::{lambda(auto:1)#2}>, void (CCMenuItemSpriteExtra*)>::__clone(std::__ndk1::__function::__base<void (CCMenuItemSpriteExtra*)>*) const
PUBLIC 1e450 0 std::__ndk1::__function::__func<CleanStartpos::init(LevelSettingsObject*, LevelEditorLayer*)::{lambda(auto:1)#2}, std::__ndk1::allocator<CleanStartpos::init(LevelSettingsObject*, LevelEditorLayer*)::{lambda(auto:1)#2}>, void (CCMenuItemSpriteExtra*)>::destroy()
PUBLIC 1e454 0 std::__ndk1::__function::__func<CleanStartpos::init(LevelSettingsObject*, LevelEditorLayer*)::{lambda(auto:1)#2}, std::__ndk1::allocator<CleanStartpos::init(LevelSettingsObject*, LevelEditorLayer*)::{lambda(auto:1)#2}>, void (CCMenuItemSpriteExtra*)>::destroy_deallocate()
PUBLIC 1e458 0 std::__ndk1::__function::__func<CleanStartpos::init(LevelSettingsObject*, LevelEditorLayer*)::{lambda(auto:1)#2}, std::__ndk1::allocator<CleanStartpos::init(LevelSettingsObject*, LevelEditorLayer*)::{lambda(auto:1)#2}>, void (CCMenuItemSpriteExtra*)>::operator()(CCMenuItemSpriteExtra*&&)
PUBLIC 1e5cc 0 std::__ndk1::__function::__func<CleanStartpos::init(LevelSettingsObject*, LevelEditorLayer*)::{lambda(auto:1)#2}, std::__ndk1::allocator<CleanStartpos::init(LevelSettingsObject*, LevelEditorLayer*)::{lambda(auto:1)#2}>, void (CCMenuItemSpriteExtra*)>::target(std::type_info const&) const
PUBLIC 1e5e8 0 std::__ndk1::__function::__func<CleanStartpos::init(LevelSettingsObject*, LevelEditorLayer*)::{lambda(auto:1)#2}, std::__ndk1::allocator<CleanStartpos::init(LevelSettingsObject*, LevelEditorLayer*)::{lambda(auto:1)#2}>, void (CCMenuItemSpriteExtra*)>::target_type() const
PUBLIC 1e5f4 0 std::__ndk1::__hash_table<std::__ndk1::__hash_value_type<short, std::__ndk1::pair<StartPosObject*, GameObject*> >, std::__ndk1::__unordered_map_hasher<short, std::__ndk1::__hash_value_type<short, std::__ndk1::pair<StartPosObject*, GameObject*> >, std::__ndk1::hash<short>, std::__ndk1::equal_to<short>, true>, std::__ndk1::__unordered_map_equal<short, std::__ndk1::__hash_value_type<short, std::__ndk1::pair<StartPosObject*, GameObject*> >, std::__ndk1::equal_to<short>, std::__ndk1::hash<short>, true>, std::__ndk1::allocator<std::__ndk1::__hash_value_type<short, std::__ndk1::pair<StartPosObject*, GameObject*> > > >::__erase_unique<short>(short const&)
PUBLIC 1e7d8 0 std::__ndk1::__function::__func<CleanStartpos::init(LevelSettingsObject*, LevelEditorLayer*)::{lambda(auto:1)#3}, std::__ndk1::allocator<CleanStartpos::init(LevelSettingsObject*, LevelEditorLayer*)::{lambda(auto:1)#3}>, void (CCMenuItemSpriteExtra*)>::~__func()
PUBLIC 1e7dc 0 std::__ndk1::__function::__func<CleanStartpos::init(LevelSettingsObject*, LevelEditorLayer*)::{lambda(auto:1)#3}, std::__ndk1::allocator<CleanStartpos::init(LevelSettingsObject*, LevelEditorLayer*)::{lambda(auto:1)#3}>, void (CCMenuItemSpriteExtra*)>::__clone() const
PUBLIC 1e810 0 std::__ndk1::__function::__func<CleanStartpos::init(LevelSettingsObject*, LevelEditorLayer*)::{lambda(auto:1)#3}, std::__ndk1::allocator<CleanStartpos::init(LevelSettingsObject*, LevelEditorLayer*)::{lambda(auto:1)#3}>, void (CCMenuItemSpriteExtra*)>::__clone(std::__ndk1::__function::__base<void (CCMenuItemSpriteExtra*)>*) const
PUBLIC 1e824 0 std::__ndk1::__function::__func<CleanStartpos::init(LevelSettingsObject*, LevelEditorLayer*)::{lambda(auto:1)#3}, std::__ndk1::allocator<CleanStartpos::init(LevelSettingsObject*, LevelEditorLayer*)::{lambda(auto:1)#3}>, void (CCMenuItemSpriteExtra*)>::destroy()
PUBLIC 1e828 0 std::__ndk1::__function::__func<CleanStartpos::init(LevelSettingsObject*, LevelEditorLayer*)::{lambda(auto:1)#3}, std::__ndk1::allocator<CleanStartpos::init(LevelSettingsObject*, LevelEditorLayer*)::{lambda(auto:1)#3}>, void (CCMenuItemSpriteExtra*)>::destroy_deallocate()
PUBLIC 1e82c 0 std::__ndk1::__function::__func<CleanStartpos::init(LevelSettingsObject*, LevelEditorLayer*)::{lambda(auto:1)#3}, std::__ndk1::allocator<CleanStartpos::init(LevelSettingsObject*, LevelEditorLayer*)::{lambda(auto:1)#3}>, void (CCMenuItemSpriteExtra*)>::operator()(CCMenuItemSpriteExtra*&&)
PUBLIC 1e998 0 std::__ndk1::__function::__func<CleanStartpos::init(LevelSettingsObject*, LevelEditorLayer*)::{lambda(auto:1)#3}, std::__ndk1::allocator<CleanStartpos::init(LevelSettingsObject*, LevelEditorLayer*)::{lambda(auto:1)#3}>, void (CCMenuItemSpriteExtra*)>::target(std::type_info const&) const
PUBLIC 1e9b4 0 std::__ndk1::__function::__func<CleanStartpos::init(LevelSettingsObject*, LevelEditorLayer*)::{lambda(auto:1)#3}, std::__ndk1::allocator<CleanStartpos::init(LevelSettingsObject*, LevelEditorLayer*)::{lambda(auto:1)#3}>, void (CCMenuItemSpriteExtra*)>::target_type() const
PUBLIC 1e9c0 0 std::__ndk1::__function::__base<void (CCMenuItemSpriteExtra*)>::~__base()
PUBLIC 1e9c4 0 std::__ndk1::__function::__func<CleanStartpos::init(LevelSettingsObject*, LevelEditorLayer*)::{lambda(auto:1)#4}, std::__ndk1::allocator<CleanStartpos::init(LevelSettingsObject*, LevelEditorLayer*)::{lambda(auto:1)#4}>, void (CCMenuItemSpriteExtra*)>::~__func()
PUBLIC 1e9c8 0 std::__ndk1::__function::__func<CleanStartpos::init(LevelSettingsObject*, LevelEditorLayer*)::{lambda(auto:1)#4}, std::__ndk1::allocator<CleanStartpos::init(LevelSettingsObject*, LevelEditorLayer*)::{lambda(auto:1)#4}>, void (CCMenuItemSpriteExtra*)>::__clone() const
PUBLIC 1e9fc 0 std::__ndk1::__function::__func<CleanStartpos::init(LevelSettingsObject*, LevelEditorLayer*)::{lambda(auto:1)#4}, std::__ndk1::allocator<CleanStartpos::init(LevelSettingsObject*, LevelEditorLayer*)::{lambda(auto:1)#4}>, void (CCMenuItemSpriteExtra*)>::__clone(std::__ndk1::__function::__base<void (CCMenuItemSpriteExtra*)>*) const
PUBLIC 1ea10 0 std::__ndk1::__function::__func<CleanStartpos::init(LevelSettingsObject*, LevelEditorLayer*)::{lambda(auto:1)#4}, std::__ndk1::allocator<CleanStartpos::init(LevelSettingsObject*, LevelEditorLayer*)::{lambda(auto:1)#4}>, void (CCMenuItemSpriteExtra*)>::destroy()
PUBLIC 1ea14 0 std::__ndk1::__function::__func<CleanStartpos::init(LevelSettingsObject*, LevelEditorLayer*)::{lambda(auto:1)#4}, std::__ndk1::allocator<CleanStartpos::init(LevelSettingsObject*, LevelEditorLayer*)::{lambda(auto:1)#4}>, void (CCMenuItemSpriteExtra*)>::destroy_deallocate()
PUBLIC 1ea18 0 std::__ndk1::__function::__func<CleanStartpos::init(LevelSettingsObject*, LevelEditorLayer*)::{lambda(auto:1)#4}, std::__ndk1::allocator<CleanStartpos::init(LevelSettingsObject*, LevelEditorLayer*)::{lambda(auto:1)#4}>, void (CCMenuItemSpriteExtra*)>::operator()(CCMenuItemSpriteExtra*&&)
PUBLIC 1eb84 0 std::__ndk1::__function::__func<CleanStartpos::init(LevelSettingsObject*, LevelEditorLayer*)::{lambda(auto:1)#4}, std::__ndk1::allocator<CleanStartpos::init(LevelSettingsObject*, LevelEditorLayer*)::{lambda(auto:1)#4}>, void (CCMenuItemSpriteExtra*)>::target(std::type_info const&) const
PUBLIC 1eba0 0 std::__ndk1::__function::__func<CleanStartpos::init(LevelSettingsObject*, LevelEditorLayer*)::{lambda(auto:1)#4}, std::__ndk1::allocator<CleanStartpos::init(LevelSettingsObject*, LevelEditorLayer*)::{lambda(auto:1)#4}>, void (CCMenuItemSpriteExtra*)>::target_type() const
PUBLIC 1ebac 0 std::__ndk1::__hash_table<std::__ndk1::__hash_value_type<short, std::__ndk1::pair<StartPosObject*, GameObject*> >, std::__ndk1::__unordered_map_hasher<short, std::__ndk1::__hash_value_type<short, std::__ndk1::pair<StartPosObject*, GameObject*> >, std::__ndk1::hash<short>, std::__ndk1::equal_to<short>, true>, std::__ndk1::__unordered_map_equal<short, std::__ndk1::__hash_value_type<short, std::__ndk1::pair<StartPosObject*, GameObject*> >, std::__ndk1::equal_to<short>, std::__ndk1::hash<short>, true>, std::__ndk1::allocator<std::__ndk1::__hash_value_type<short, std::__ndk1::pair<StartPosObject*, GameObject*> > > >::__emplace_unique_key_args<short, std::__ndk1::piecewise_construct_t const&, std::__ndk1::tuple<short const&>, std::__ndk1::tuple<> >(short const&, std::__ndk1::piecewise_construct_t const&, std::__ndk1::tuple<short const&>, std::__ndk1::tuple<>)
PUBLIC 1eec0 0 std::__ndk1::__tree<std::__ndk1::__value_type<std::__ndk1::basic_string<char, std::__ndk1::char_traits<char>, std::__ndk1::allocator<char> >, std::__ndk1::shared_ptr<geode::Hook> >, std::__ndk1::__map_value_compare<std::__ndk1::basic_string<char, std::__ndk1::char_traits<char>, std::__ndk1::allocator<char> >, std::__ndk1::__value_type<std::__ndk1::basic_string<char, std::__ndk1::char_traits<char>, std::__ndk1::allocator<char> >, std::__ndk1::shared_ptr<geode::Hook> >, std::__ndk1::less<std::__ndk1::basic_string<char, std::__ndk1::char_traits<char>, std::__ndk1::allocator<char> > >, true>, std::__ndk1::allocator<std::__ndk1::__value_type<std::__ndk1::basic_string<char, std::__ndk1::char_traits<char>, std::__ndk1::allocator<char> >, std::__ndk1::shared_ptr<geode::Hook> > > >::__emplace_unique_key_args<std::__ndk1::basic_string<char, std::__ndk1::char_traits<char>, std::__ndk1::allocator<char> >, std::__ndk1::piecewise_construct_t const&, std::__ndk1::tuple<std::__ndk1::basic_string<char, std::__ndk1::char_traits<char>, std::__ndk1::allocator<char> >&&>, std::__ndk1::tuple<> >(std::__ndk1::basic_string<char, std::__ndk1::char_traits<char>, std::__ndk1::allocator<char> > const&, std::__ndk1::piecewise_construct_t const&, std::__ndk1::tuple<std::__ndk1::basic_string<char, std::__ndk1::char_traits<char>, std::__ndk1::allocator<char> >&&>, std::__ndk1::tuple<>)
PUBLIC 1f028 0 std::__ndk1::__tree_balance_after_insert[abi:ne180000]<std::__ndk1::__tree_node_base<void*>*>(std::__ndk1::__tree_node_base<void*>*, std::__ndk1::__tree_node_base<void*>*)
PUBLIC 1f1d8 0 geode::modifier::ModifyDerive<hook340<(anonymous namespace)::hook340Parent>, GJBaseGameLayer>::apply()
PUBLIC 1fb64 0 geode::modifier::ModifyBase<geode::modifier::ModifyDerive<hook340<(anonymous namespace)::hook340Parent>, GJBaseGameLayer> >::apply()
PUBLIC 1fb68 0 geode::modifier::AsStaticFunction_init<hook340<(anonymous namespace)::hook340Parent>, bool (hook340<(anonymous namespace)::hook340Parent>::*)()>::Impl<bool (hook340<(anonymous namespace)::hook340Parent>::*)()>::function(hook340<(anonymous namespace)::hook340Parent>*)
PUBLIC 1fbf0 0 geode::Hook::create<void (*)(hook340<(anonymous namespace)::hook340Parent>*, GameObject*)>(void*, void (*)(hook340<(anonymous namespace)::hook340Parent>*, GameObject*), std::__ndk1::basic_string<char, std::__ndk1::char_traits<char>, std::__ndk1::allocator<char> > const&, tulip::hook::TulipConvention, tulip::hook::HookMetadata const&)
PUBLIC 1fd74 0 geode::modifier::AsStaticFunction_addToSection<hook340<(anonymous namespace)::hook340Parent>, void (hook340<(anonymous namespace)::hook340Parent>::*)(GameObject*)>::Impl<void (hook340<(anonymous namespace)::hook340Parent>::*)(GameObject*)>::function(hook340<(anonymous namespace)::hook340Parent>*, GameObject*)
PUBLIC 20008 0 geode::modifier::AsStaticFunction_loadStartPosObject<hook340<(anonymous namespace)::hook340Parent>, void (hook340<(anonymous namespace)::hook340Parent>::*)()>::Impl<void (hook340<(anonymous namespace)::hook340Parent>::*)()>::function(hook340<(anonymous namespace)::hook340Parent>*)
PUBLIC 203dc 0 geode::modifier::AsStaticFunction_removeObjectFromSection<hook340<(anonymous namespace)::hook340Parent>, void (hook340<(anonymous namespace)::hook340Parent>::*)(GameObject*)>::Impl<void (hook340<(anonymous namespace)::hook340Parent>::*)(GameObject*)>::function(hook340<(anonymous namespace)::hook340Parent>*, GameObject*)
PUBLIC 20600 0 geode::addresser::Addresser::addressOfVirtual<bool, GJBaseGameLayer, >(bool (GJBaseGameLayer::*)())
PUBLIC 206c8 0 GJBaseGameLayer::GJBaseGameLayer(geode::ZeroConstructorType)
PUBLIC 20e78 0 GJGameState::GJGameState()
PUBLIC 213f0 0 geode::stl::unordered_map<int, int, geode::stl::hash<int>, geode::stl::equal_to<int>, std::__ndk1::allocator<std::__ndk1::pair<int const, int> > >::~unordered_map()
PUBLIC 21468 0 geode::stl::unordered_set<int, geode::stl::hash<int>, geode::stl::equal_to<int>, std::__ndk1::allocator<int> >::~unordered_set()
PUBLIC 214e0 0 geode::stl::unordered_map<int, gd::string, geode::stl::hash<int>, geode::stl::equal_to<int>, std::__ndk1::allocator<std::__ndk1::pair<int const, gd::string> > >::~unordered_map()
PUBLIC 21564 0 gd::map<std::__ndk1::pair<int, int>, int>::~map()
PUBLIC 21580 0 geode::stl::unordered_map<int, gd::vector<LabelGameObject*>, geode::stl::hash<int>, geode::stl::equal_to<int>, std::__ndk1::allocator<std::__ndk1::pair<int const, gd::vector<LabelGameObject*> > > >::~unordered_map()
PUBLIC 2160c 0 geode::stl::unordered_map<int, std::__ndk1::pair<int, int>, geode::stl::hash<int>, geode::stl::equal_to<int>, std::__ndk1::allocator<std::__ndk1::pair<int const, std::__ndk1::pair<int, int> > > >::~unordered_map()
PUBLIC 21684 0 geode::stl::unordered_map<int, gd::vector<GameObject*>, geode::stl::hash<int>, geode::stl::equal_to<int>, std::__ndk1::allocator<std::__ndk1::pair<int const, gd::vector<GameObject*> > > >::~unordered_map()
PUBLIC 21710 0 geode::stl::unordered_map<int, cocos2d::CCPoint, geode::stl::hash<int>, geode::stl::equal_to<int>, std::__ndk1::allocator<std::__ndk1::pair<int const, cocos2d::CCPoint> > >::~unordered_map()
PUBLIC 21788 0 gd::vector<geode::stl::unordered_map<int, int, geode::stl::hash<int>, geode::stl::equal_to<int>, std::__ndk1::allocator<std::__ndk1::pair<int const, int> > > >::~vector()
PUBLIC 2188c 0 GJGameState::~GJGameState()
PUBLIC 21c84 0 geode::stl::unordered_map<int, SongChannelState, geode::stl::hash<int>, geode::stl::equal_to<int>, std::__ndk1::allocator<std::__ndk1::pair<int const, SongChannelState> > >::~unordered_map()
PUBLIC 21cfc 0 gd::map<std::__ndk1::pair<int, int>, SFXTriggerInstance>::~map()
PUBLIC 21d18 0 geode::stl::unordered_map<int, std::__ndk1::vector<int, std::__ndk1::allocator<int> >, geode::stl::hash<int>, geode::stl::equal_to<int>, std::__ndk1::allocator<std::__ndk1::pair<int const, std::__ndk1::vector<int, std::__ndk1::allocator<int> > > > >::~unordered_map()
PUBLIC 21da8 0 gd::vector<EnterEffectInstance>::~vector()
PUBLIC 21e40 0 geode::stl::unordered_map<int, std::__ndk1::vector<EnterEffectInstance, std::__ndk1::allocator<EnterEffectInstance> >, geode::stl::hash<int>, geode::stl::equal_to<int>, std::__ndk1::allocator<std::__ndk1::pair<int const, std::__ndk1::vector<EnterEffectInstance, std::__ndk1::allocator<EnterEffectInstance> > > > >::~unordered_map()
PUBLIC 21e7c 0 gd::map<std::__ndk1::pair<GJGameEvent, int>, int>::~map()
PUBLIC 21e98 0 gd::map<std::__ndk1::pair<GJGameEvent, int>, gd::vector<EventTriggerInstance> >::~map()
PUBLIC 21eb4 0 geode::stl::unordered_map<int, EnhancedGameObject*, geode::stl::hash<int>, geode::stl::equal_to<int>, std::__ndk1::allocator<std::__ndk1::pair<int const, EnhancedGameObject*> > >::~unordered_map()
PUBLIC 21f2c 0 geode::stl::unordered_map<int, GameObjectPhysics, geode::stl::hash<int>, geode::stl::equal_to<int>, std::__ndk1::allocator<std::__ndk1::pair<int const, GameObjectPhysics> > >::~unordered_map()
PUBLIC 21fa4 0 geode::stl::unordered_map<int, GJValueTween, geode::stl::hash<int>, geode::stl::equal_to<int>, std::__ndk1::allocator<std::__ndk1::pair<int const, GJValueTween> > >::~unordered_map()
PUBLIC 2201c 0 geode::stl::unordered_map<int, bool, geode::stl::hash<int>, geode::stl::equal_to<int>, std::__ndk1::allocator<std::__ndk1::pair<int const, bool> > >::~unordered_map()
PUBLIC 22094 0 gd::map<std::__ndk1::pair<GJGameEvent, int>, gd::vector<EventTriggerInstance> >::map(std::__ndk1::map<std::__ndk1::pair<GJGameEvent, int>, gd::vector<EventTriggerInstance>, std::__ndk1::less<std::__ndk1::pair<GJGameEvent, int> >, std::__ndk1::allocator<std::__ndk1::pair<std::__ndk1::pair<GJGameEvent, int> const, gd::vector<EventTriggerInstance> > > >)
PUBLIC 22260 0 gd::map<std::__ndk1::pair<GJGameEvent, int>, gd::vector<EventTriggerInstance> >::insert_pair(std::__ndk1::pair<std::__ndk1::pair<GJGameEvent, int>, gd::vector<EventTriggerInstance> > const&)
PUBLIC 22518 0 std::__ndk1::pair<std::__ndk1::pair<GJGameEvent, int>, gd::vector<EventTriggerInstance> >::~pair()
PUBLIC 22598 0 std::__ndk1::pair<std::__ndk1::pair<GJGameEvent, int> const, gd::vector<EventTriggerInstance> >::~pair()
PUBLIC 22618 0 gd::vector<EventTriggerInstance>::vector(gd::vector<EventTriggerInstance> const&)
PUBLIC 227b8 0 geode::stl::_rb_insert_rebalance(bool, geode::stl::_rb_tree_base*, geode::stl::_rb_tree_base*, geode::stl::_rb_tree_base&)
PUBLIC 22a70 0 gd::vector<EventTriggerInstance>::operator=(gd::vector<EventTriggerInstance> const&)
PUBLIC 22c2c 0 gd::vector<EventTriggerInstance>::~vector()
PUBLIC 22cac 0 std::__ndk1::__tree<std::__ndk1::__value_type<std::__ndk1::pair<GJGameEvent, int>, gd::vector<EventTriggerInstance> >, std::__ndk1::__map_value_compare<std::__ndk1::pair<GJGameEvent, int>, std::__ndk1::__value_type<std::__ndk1::pair<GJGameEvent, int>, gd::vector<EventTriggerInstance> >, std::__ndk1::less<std::__ndk1::pair<GJGameEvent, int> >, true>, std::__ndk1::allocator<std::__ndk1::__value_type<std::__ndk1::pair<GJGameEvent, int>, gd::vector<EventTriggerInstance> > > >::destroy(std::__ndk1::__tree_node<std::__ndk1::__value_type<std::__ndk1::pair<GJGameEvent, int>, gd::vector<EventTriggerInstance> >, void*>*)
PUBLIC 22d44 0 gd::map<std::__ndk1::pair<int, int>, SFXTriggerInstance>::erase(geode::stl::_rb_tree_node<std::__ndk1::pair<std::__ndk1::pair<int, int>, SFXTriggerInstance> >*)
PUBLIC 22d98 0 gd::map<int, EnterEffectAnimValue>::erase(geode::stl::_rb_tree_node<std::__ndk1::pair<int, EnterEffectAnimValue> >*)
PUBLIC 22dec 0 geode::stl::_Hashtable<int, std::__ndk1::pair<int const, std::__ndk1::vector<EnterEffectInstance, std::__ndk1::allocator<EnterEffectInstance> > >, std::__ndk1::allocator<std::__ndk1::pair<int const, std::__ndk1::vector<EnterEffectInstance, std::__ndk1::allocator<EnterEffectInstance> > > >, geode::stl::__detail::_Select1st, geode::stl::equal_to<int>, geode::stl::hash<int>, geode::stl::__detail::_Mod_range_hashing, geode::stl::__detail::_Default_ranged_hash, geode::stl::__detail::_Prime_rehash_policy, geode::stl::__detail::_Hashtable_traits<false, false, true> >::clear()
PUBLIC 22e94 0 gd::map<std::__ndk1::pair<GJGameEvent, int>, int>::erase(geode::stl::_rb_tree_node<std::__ndk1::pair<std::__ndk1::pair<GJGameEvent, int>, int> >*)
PUBLIC 22ee8 0 gd::map<std::__ndk1::pair<GJGameEvent, int>, gd::vector<EventTriggerInstance> >::erase(geode::stl::_rb_tree_node<std::__ndk1::pair<std::__ndk1::pair<GJGameEvent, int>, gd::vector<EventTriggerInstance> > >*)
PUBLIC 22f90 0 gd::map<std::__ndk1::pair<int, int>, int>::erase(geode::stl::_rb_tree_node<std::__ndk1::pair<std::__ndk1::pair<int, int>, int> >*)
PUBLIC 22fe4 0 geode::addresser::Addresser::addressOfVirtual<void, GJBaseGameLayer, GameObject*>(void (GJBaseGameLayer::*)(GameObject*))
PUBLIC 230ac 0 geode::modifier::ModifyDerive<CPlayLayer, PlayLayer>::apply()
PUBLIC 234d8 0 geode::modifier::ModifyBase<geode::modifier::ModifyDerive<CPlayLayer, PlayLayer> >::apply()
PUBLIC 234dc 0 geode::Hook::create<void (*)(CPlayLayer*)>(void*, void (*)(CPlayLayer*), std::__ndk1::basic_string<char, std::__ndk1::char_traits<char>, std::__ndk1::allocator<char> > const&, tulip::hook::TulipConvention, tulip::hook::HookMetadata const&)
PUBLIC 23610 0 geode::modifier::AsStaticFunction_resetLevel<CPlayLayer, void (CPlayLayer::*)()>::Impl<void (CPlayLayer::*)()>::function(CPlayLayer*)
PUBLIC 236ec 0 geode::modifier::AsStaticFunction_startGame<CPlayLayer, void (CPlayLayer::*)()>::Impl<void (CPlayLayer::*)()>::function(CPlayLayer*)
PUBLIC 2373c 0 CPlayLayer::wait(float)
PUBLIC 23754 0 geode::modifier::FieldIntermediate<CPlayLayer, PlayLayer>::self()
PUBLIC 238e0 0 geode::modifier::FieldIntermediate<CPlayLayer, PlayLayer>::fieldDestructor(void*)
PUBLIC 238e4 0 geode::modifier::ModifyDerive<hook462<(anonymous namespace)::hook462Parent>, EditorUI>::apply()
PUBLIC 23f2c 0 geode::modifier::ModifyBase<geode::modifier::ModifyDerive<hook462<(anonymous namespace)::hook462Parent>, EditorUI> >::apply()
PUBLIC 23f30 0 geode::modifier::AsStaticFunction_editObject<hook462<(anonymous namespace)::hook462Parent>, void (hook462<(anonymous namespace)::hook462Parent>::*)(cocos2d::CCObject*)>::Impl<void (hook462<(anonymous namespace)::hook462Parent>::*)(cocos2d::CCObject*)>::function(hook462<(anonymous namespace)::hook462Parent>*, cocos2d::CCObject*)
PUBLIC 23fbc 0 geode::modifier::AsStaticFunction_selectObject<hook462<(anonymous namespace)::hook462Parent>, void (hook462<(anonymous namespace)::hook462Parent>::*)(GameObject*, bool)>::Impl<void (hook462<(anonymous namespace)::hook462Parent>::*)(GameObject*, bool)>::function(hook462<(anonymous namespace)::hook462Parent>*, GameObject*, bool)
PUBLIC 23ff4 0 geode::modifier::ModifyDerive<hook482<(anonymous namespace)::hook482Parent>, DrawGridLayer>::apply()
PUBLIC 242fc 0 geode::modifier::ModifyBase<geode::modifier::ModifyDerive<hook482<(anonymous namespace)::hook482Parent>, DrawGridLayer> >::apply()
PUBLIC 24300 0 geode::modifier::AsStaticFunction_draw<hook482<(anonymous namespace)::hook482Parent>, void (hook482<(anonymous namespace)::hook482Parent>::*)()>::Impl<void (hook482<(anonymous namespace)::hook482Parent>::*)()>::function(hook482<(anonymous namespace)::hook482Parent>*)
PUBLIC 243f8 0 geode::addresser::Addresser::addressOfVirtual<void, DrawGridLayer, >(void (DrawGridLayer::*)())
PUBLIC 244c0 0 DrawGridLayer::DrawGridLayer(geode::ZeroConstructorType)
PUBLIC 245a4 0 geode::stl::unordered_map<int, AudioLineGuideGameObject*, geode::stl::hash<int>, geode::stl::equal_to<int>, std::__ndk1::allocator<std::__ndk1::pair<int const, AudioLineGuideGameObject*> > >::~unordered_map()
PUBLIC 2461c 0 geode::modifier::ModifyDerive<hook494<(anonymous namespace)::hook494Parent>, LevelEditorLayer>::apply()
PUBLIC 249f8 0 geode::modifier::ModifyBase<geode::modifier::ModifyDerive<hook494<(anonymous namespace)::hook494Parent>, LevelEditorLayer> >::apply()
PUBLIC 249fc 0 geode::modifier::AsStaticFunction_createObjectsFromString<hook494<(anonymous namespace)::hook494Parent>, cocos2d::CCArray* (hook494<(anonymous namespace)::hook494Parent>::*)(gd::string const&, bool, bool)>::Impl<cocos2d::CCArray* (hook494<(anonymous namespace)::hook494Parent>::*)(gd::string const&, bool, bool)>::function(hook494<(anonymous namespace)::hook494Parent>*, gd::string const&, bool, bool)
PUBLIC 25b60 0 geode::cocos::CCArrayExt<GameObject*, GameObject>::~CCArrayExt()
PUBLIC 25b7c 0 std::__ndk1::unordered_map<unsigned long, StartPosObject*, std::__ndk1::hash<unsigned long>, std::__ndk1::equal_to<unsigned long>, std::__ndk1::allocator<std::__ndk1::pair<unsigned long const, StartPosObject*> > >::~unordered_map[abi:ne180000]()
PUBLIC 25bc8 0 std::__ndk1::unordered_map<short, short, std::__ndk1::hash<short>, std::__ndk1::equal_to<short>, std::__ndk1::allocator<std::__ndk1::pair<short const, short> > >::~unordered_map[abi:ne180000]()
PUBLIC 25c14 0 std::__ndk1::__hash_table<std::__ndk1::__hash_value_type<unsigned long, StartPosObject*>, std::__ndk1::__unordered_map_hasher<unsigned long, std::__ndk1::__hash_value_type<unsigned long, StartPosObject*>, std::__ndk1::hash<unsigned long>, std::__ndk1::equal_to<unsigned long>, true>, std::__ndk1::__unordered_map_equal<unsigned long, std::__ndk1::__hash_value_type<unsigned long, StartPosObject*>, std::__ndk1::equal_to<unsigned long>, std::__ndk1::hash<unsigned long>, true>, std::__ndk1::allocator<std::__ndk1::__hash_value_type<unsigned long, StartPosObject*> > >::__emplace_unique_key_args<unsigned long, std::__ndk1::piecewise_construct_t const&, std::__ndk1::tuple<unsigned long const&>, std::__ndk1::tuple<> >(unsigned long const&, std::__ndk1::piecewise_construct_t const&, std::__ndk1::tuple<unsigned long const&>, std::__ndk1::tuple<>)
PUBLIC 260a8 0 std::__ndk1::__hash_table<std::__ndk1::__hash_value_type<short, short>, std::__ndk1::__unordered_map_hasher<short, std::__ndk1::__hash_value_type<short, short>, std::__ndk1::hash<short>, std::__ndk1::equal_to<short>, true>, std::__ndk1::__unordered_map_equal<short, std::__ndk1::__hash_value_type<short, short>, std::__ndk1::equal_to<short>, std::__ndk1::hash<short>, true>, std::__ndk1::allocator<std::__ndk1::__hash_value_type<short, short> > >::__emplace_unique_key_args<short, std::__ndk1::piecewise_construct_t const&, std::__ndk1::tuple<short const&>, std::__ndk1::tuple<> >(short const&, std::__ndk1::piecewise_construct_t const&, std::__ndk1::tuple<short const&>, std::__ndk1::tuple<>)
PUBLIC 26550 0 std::__ndk1::vector<GameObject*, std::__ndk1::allocator<GameObject*> >::__throw_length_error[abi:ne180000]() const
PUBLIC 26564 0 std::__ndk1::__hash_table<std::__ndk1::__hash_value_type<short, std::__ndk1::pair<StartPosObject*, GameObject*> >, std::__ndk1::__unordered_map_hasher<short, std::__ndk1::__hash_value_type<short, std::__ndk1::pair<StartPosObject*, GameObject*> >, std::__ndk1::hash<short>, std::__ndk1::equal_to<short>, true>, std::__ndk1::__unordered_map_equal<short, std::__ndk1::__hash_value_type<short, std::__ndk1::pair<StartPosObject*, GameObject*> >, std::__ndk1::equal_to<short>, std::__ndk1::hash<short>, true>, std::__ndk1::allocator<std::__ndk1::__hash_value_type<short, std::__ndk1::pair<StartPosObject*, GameObject*> > > >::__node_insert_multi(std::__ndk1::__hash_node<std::__ndk1::__hash_value_type<short, std::__ndk1::pair<StartPosObject*, GameObject*> >, void*>*)
PUBLIC m 26af4 0 geodeImplicitEntry
PUBLIC 26b30 0 std::__ndk1::unordered_map<void*, bool, std::__ndk1::hash<void*>, std::__ndk1::equal_to<void*>, std::__ndk1::allocator<std::__ndk1::pair<void* const, bool> > >::~unordered_map[abi:ne180000]()
PUBLIC 26b7c 0 wrapFunction(unsigned long, tulip::hook::WrapperMetadata const&)
PUBLIC 26cb0 0 geode::impl::ResultData<void*, std::__ndk1::basic_string<char, std::__ndk1::char_traits<char>, std::__ndk1::allocator<char> > >::unwrapErr() &
PUBLIC 26d28 0 geode::impl::ResultData<void*, std::__ndk1::basic_string<char, std::__ndk1::char_traits<char>, std::__ndk1::allocator<char> > >::~ResultData()
PUBLIC 26d9c 0 tulip::hook::WrapperMetadata::~WrapperMetadata()
PUBLIC 26e00 0 cocos2d::CCObject::CCObject()
PUBLIC 27024 0 cocos2d::CCObject::~CCObject()
PUBLIC 27048 0 cocos2d::CCNode::~CCNode()
PUBLIC 2706c 0 {virtual override thunk({offset(-320)}, cocos2d::CCLayer::~CCLayer())}
PUBLIC 27074 0 cocos2d::CCLayer::~CCLayer()
PUBLIC 27098 0 {virtual override thunk({offset(-320)}, cocos2d::CCLayer::~CCLayer())}
PUBLIC 270c0 0 CCMenuItemToggler::createWithStandardSprites(cocos2d::CCObject*, void (cocos2d::CCObject::*)(cocos2d::CCObject*), float)
PUBLIC 272b8 0 CCSpriteGrayscale::createWithSpriteFrameName(gd::string const&)
PUBLIC 2741c 0 GJBaseGameLayer::~GJBaseGameLayer()
PUBLIC 283d8 0 {virtual override thunk({offset(-320)}, GJBaseGameLayer::~GJBaseGameLayer())}
PUBLIC 283e0 0 GJBaseGameLayer::~GJBaseGameLayer()
PUBLIC 28404 0 {virtual override thunk({offset(-320)}, GJBaseGameLayer::~GJBaseGameLayer())}
PUBLIC 2842c 0 GJBaseGameLayer::toggleGroupTriggered(int, bool, gd::vector<int> const&, int, int)
PUBLIC 28598 0 tulip::hook::AbstractFunction::from<void, GJBaseGameLayer*, int, bool, gd::vector<int> const&, int, int>(void (*)(GJBaseGameLayer*, int, bool, gd::vector<int> const&, int, int))
PUBLIC 28a44 0 {virtual override thunk({offset(-408)}, GJBaseGameLayer::toggleGroupTriggered(int, bool, gd::vector<int> const&, int, int))}
PUBLIC 28a4c 0 GJBaseGameLayer::spawnGroup(int, bool, double, gd::vector<int> const&, int, int)
PUBLIC 28bc8 0 tulip::hook::AbstractFunction::from<void, GJBaseGameLayer*, int, bool, double, gd::vector<int> const&, int, int>(void (*)(GJBaseGameLayer*, int, bool, double, gd::vector<int> const&, int, int))
PUBLIC 29174 0 {virtual override thunk({offset(-408)}, GJBaseGameLayer::spawnGroup(int, bool, double, gd::vector<int> const&, int, int))}
PUBLIC 2917c 0 GJBaseGameLayer::spawnObject(GameObject*, double, gd::vector<int> const&)
PUBLIC 292d8 0 tulip::hook::AbstractFunction::from<void, GJBaseGameLayer*, GameObject*, double, gd::vector<int> const&>(void (*)(GJBaseGameLayer*, GameObject*, double, gd::vector<int> const&))
PUBLIC 295ac 0 {virtual override thunk({offset(-408)}, GJBaseGameLayer::spawnObject(GameObject*, double, gd::vector<int> const&))}
PUBLIC 295b4 0 GJBaseGameLayer::activatePlatformerEndTrigger(EndTriggerGameObject*, gd::vector<int> const&)
PUBLIC 29700 0 tulip::hook::AbstractFunction::from<void, GJBaseGameLayer*, EndTriggerGameObject*, gd::vector<int> const&>(void (*)(GJBaseGameLayer*, EndTriggerGameObject*, gd::vector<int> const&))
PUBLIC 29808 0 GJBaseGameLayer::toggleGlitter(bool)
PUBLIC 2980c 0 GJBaseGameLayer::timeForPos(cocos2d::CCPoint, int, int, bool, int)
PUBLIC 29814 0 GJBaseGameLayer::posForTime(float)
PUBLIC 2981c 0 GJBaseGameLayer::resetSPTriggered()
PUBLIC 29820 0 GJBaseGameLayer::createCustomParticle(gd::string const&, cocos2d::ParticleStruct const&, int, bool)
PUBLIC 29984 0 tulip::hook::AbstractFunction::from<TodoReturnPlaceholder, GJBaseGameLayer*, gd::string const&, cocos2d::ParticleStruct const&, int, bool>(TodoReturnPlaceholder (*)(GJBaseGameLayer*, gd::string const&, cocos2d::ParticleStruct const&, int, bool))
PUBLIC 29d58 0 GJBaseGameLayer::claimCustomParticle(gd::string const&, cocos2d::ParticleStruct const&, int, int, int, bool)
PUBLIC 29ed4 0 tulip::hook::AbstractFunction::from<TodoReturnPlaceholder, GJBaseGameLayer*, gd::string const&, cocos2d::ParticleStruct const&, int, int, int, bool>(TodoReturnPlaceholder (*)(GJBaseGameLayer*, gd::string const&, cocos2d::ParticleStruct const&, int, int, int, bool))
PUBLIC 2a4a8 0 GJBaseGameLayer::unclaimCustomParticle(gd::string const&, cocos2d::CCParticleSystemQuad*)
PUBLIC 2a5f4 0 tulip::hook::AbstractFunction::from<TodoReturnPlaceholder, GJBaseGameLayer*, gd::string const&, cocos2d::CCParticleSystemQuad*>(TodoReturnPlaceholder (*)(GJBaseGameLayer*, gd::string const&, cocos2d::CCParticleSystemQuad*))
PUBLIC 2a6fc 0 LevelEditorLayer::createObjectsFromString(gd::string const&, bool, bool)
PUBLIC 2a864 0 tulip::hook::AbstractFunction::from<cocos2d::CCArray*, LevelEditorLayer*, gd::string const&, bool, bool>(cocos2d::CCArray* (*)(LevelEditorLayer*, gd::string const&, bool, bool))
PUBLIC 2ab20 0 StartPosObject::loadSettingsFromString(gd::string)
PUBLIC 2ac98 0 tulip::hook::AbstractFunction::from<void, StartPosObject*, gd::string>(void (*)(StartPosObject*, gd::string))
PUBLIC 2ad3c 0 cocos2d::CCKeyboardDelegate::keyUp(cocos2d::enumKeyCodes)
PUBLIC 2ad40 0 cocos2d::CCMouseDelegate::rightKeyDown()
PUBLIC 2ad44 0 cocos2d::CCMouseDelegate::rightKeyUp()
PUBLIC 2ad48 0 cocos2d::CCMouseDelegate::scrollWheel(float, float)
PUBLIC 2ad4c 0 cocos2d::CCNode::~CCNode()
PUBLIC 2afec 0 cocos2d::CCLayer::~CCLayer()
PUBLIC 2b2dc 0 cocos2d::CCObject::~CCObject()
PUBLIC 2b7d0 0 _ZN5geode15UnwrapExceptionC2IRPvQsr4implE18IsStringStreamableIT_EEENS_4impl5OkTagEOS4_
PUBLIC 2b924 0 _ZN5geode15UnwrapExceptionC2IRNSt6__ndk112basic_stringIcNS2_11char_traitsIcEENS2_9allocatorIcEEEEQsr4implE18IsStringStreamableIT_EEENS_4impl6ErrTagEOSA_
PUBLIC 2ba8c 0 std::__ndk1::__variant_detail::__visitation::__base::__dispatcher<(unsigned long)0>::__dispatch[abi:ne180000]<std::__ndk1::__variant_detail::__dtor<std::__ndk1::__variant_detail::__traits<void*, std::__ndk1::basic_string<char, std::__ndk1::char_traits<char>, std::__ndk1::allocator<char> > >, (std::__ndk1::__variant_detail::_Trait)1>::__destroy[abi:ne180000]()::{lambda(auto:1&)#1}, std::__ndk1::__variant_detail::__base<(std::__ndk1::__variant_detail::__traits<void*, std::__ndk1::basic_string<char, std::__ndk1::char_traits<char>, std::__ndk1::allocator<char> > >)1, std::__ndk1::__variant_detail::__traits, std::__ndk1::allocator<char> >&>(std::__ndk1::__variant_detail::__dtor<std::__ndk1::__variant_detail::__traits<void*, std::__ndk1::basic_string<char, std::__ndk1::char_traits<char>, std::__ndk1::allocator<char> > >, (std::__ndk1::__variant_detail::_Trait)1>, std::__ndk1::__variant_detail::__base<(std::__ndk1::__variant_detail::__traits<void*, std::__ndk1::basic_string<char, std::__ndk1::char_traits<char>, std::__ndk1::allocator<char> > >)1, std::__ndk1::__variant_detail::__traits, std::__ndk1::allocator<char> >&)
PUBLIC 2ba90 0 std::__ndk1::__variant_detail::__visitation::__base::__dispatcher<(unsigned long)1>::__dispatch[abi:ne180000]<std::__ndk1::__variant_detail::__dtor<std::__ndk1::__variant_detail::__traits<void*, std::__ndk1::basic_string<char, std::__ndk1::char_traits<char>, std::__ndk1::allocator<char> > >, (std::__ndk1::__variant_detail::_Trait)1>::__destroy[abi:ne180000]()::{lambda(auto:1&)#1}, std::__ndk1::__variant_detail::__base<(std::__ndk1::__variant_detail::__traits<void*, std::__ndk1::basic_string<char, std::__ndk1::char_traits<char>, std::__ndk1::allocator<char> > >)1, std::__ndk1::__variant_detail::__traits, std::__ndk1::allocator<char> >&>(std::__ndk1::__variant_detail::__dtor<std::__ndk1::__variant_detail::__traits<void*, std::__ndk1::basic_string<char, std::__ndk1::char_traits<char>, std::__ndk1::allocator<char> > >, (std::__ndk1::__variant_detail::_Trait)1>, std::__ndk1::__variant_detail::__base<(std::__ndk1::__variant_detail::__traits<void*, std::__ndk1::basic_string<char, std::__ndk1::char_traits<char>, std::__ndk1::allocator<char> > >)1, std::__ndk1::__variant_detail::__traits, std::__ndk1::allocator<char> >&)
PUBLIC 2baa4 0 std::__ndk1::__hash_table<std::__ndk1::__hash_value_type<void*, bool>, std::__ndk1::__unordered_map_hasher<void*, std::__ndk1::__hash_value_type<void*, bool>, std::__ndk1::hash<void*>, std::__ndk1::equal_to<void*>, true>, std::__ndk1::__unordered_map_equal<void*, std::__ndk1::__hash_value_type<void*, bool>, std::__ndk1::equal_to<void*>, std::__ndk1::hash<void*>, true>, std::__ndk1::allocator<std::__ndk1::__hash_value_type<void*, bool> > >::__emplace_unique_key_args<void*, std::__ndk1::piecewise_construct_t const&, std::__ndk1::tuple<void* const&>, std::__ndk1::tuple<> >(void* const&, std::__ndk1::piecewise_construct_t const&, std::__ndk1::tuple<void* const&>, std::__ndk1::tuple<>)
PUBLIC 2bfb0 0 __udivti3
PUBLIC 2bfbc 0 __udivmodti4
PUBLIC m 2c208 0 __eqtf2
PUBLIC 2c2a8 0 __unordtf2
PUBLIC 2c2e0 0 fmt::v11::detail::write_loc(fmt::v11::basic_appender<char>, fmt::v11::loc_value, fmt::v11::format_specs const&, fmt::v11::detail::locale_ref)
PUBLIC 2c574 0 fmt::v11::format_facet<std::__ndk1::locale>::~format_facet()
PUBLIC 2c5f0 0 fmt::v11::report_error(char const*)
PUBLIC 2c640 0 fmt::v11::format_error::runtime_error(char const*)
PUBLIC 2c66c 0 fmt::v11::format_facet<std::__ndk1::locale>::do_put(fmt::v11::basic_appender<char>, fmt::v11::loc_value, fmt::v11::format_specs const&) const
PUBLIC 2ce2c 0 fmt::v11::detail::loc_writer<char>::~loc_writer()
PUBLIC 2ce90 0 fmt::v11::detail::vformat_to<char>(fmt::v11::detail::buffer<char>&, fmt::v11::basic_string_view<char>, fmt::v11::detail::vformat_args<char>::type, fmt::v11::detail::locale_ref)
PUBLIC 2d400 0 fmt::v11::detail::is_printable(unsigned int)
PUBLIC 2d628 0 fmt::v11::detail::dragonbox::to_decimal<float>(float)
PUBLIC 2d904 0 fmt::v11::detail::dragonbox::to_decimal<double>(double)
PUBLIC 2de40 0 fmt::v11::basic_memory_buffer<char, (unsigned long)500, std::__ndk1::allocator<char> >::grow(fmt::v11::detail::buffer<char>&, unsigned long)
PUBLIC 2deb8 0 fmt::v11::format_facet<std::__ndk1::locale>::~format_facet()
PUBLIC 2df44 0 fmt::v11::format_error::~format_error()
PUBLIC 2df68 0 fmt::v11::detail::copy_noinline<char, char const*, fmt::v11::basic_appender<char> >(char const*, char const*, fmt::v11::basic_appender<char>)
PUBLIC 2e0b8 0 fmt::v11::detail::default_arg_formatter<char>::operator()<bool>(bool)
PUBLIC 2e120 0 fmt::v11::detail::default_arg_formatter<char>::operator()<char>(char)
PUBLIC 2e1b0 0 fmt::v11::detail::default_arg_formatter<char>::operator()<float>(float)
PUBLIC 2e29c 0 fmt::v11::detail::default_arg_formatter<char>::operator()<double>(double)
PUBLIC 2e388 0 fmt::v11::detail::default_arg_formatter<char>::operator()<char const*>(char const*)
PUBLIC 2e3d0 0 fmt::v11::detail::default_arg_formatter<char>::operator()<void const*>(void const*)
PUBLIC 2e468 0 _ZN3fmt3v116detail5writeIcNS0_14basic_appenderIcEEiTnNSt6__ndk19enable_ifIXaaaasr11is_integralIT1_EE5valuentsr3std7is_sameIS7_bEE5valuentsr3std7is_sameIS7_T_EE5valueEiE4typeELi0EEET0_SB_S7_
PUBLIC 2e6c8 0 fmt::v11::detail::copy_noinline<char, char*, fmt::v11::basic_appender<char> >(char*, char*, fmt::v11::basic_appender<char>)
PUBLIC 2e818 0 _ZN3fmt3v116detail5writeIcNS0_14basic_appenderIcEEjTnNSt6__ndk19enable_ifIXaaaasr11is_integralIT1_EE5valuentsr3std7is_sameIS7_bEE5valuentsr3std7is_sameIS7_T_EE5valueEiE4typeELi0EEET0_SB_S7_
PUBLIC 2e9f8 0 _ZN3fmt3v116detail5writeIcNS0_14basic_appenderIcEExTnNSt6__ndk19enable_ifIXaaaasr11is_integralIT1_EE5valuentsr3std7is_sameIS7_bEE5valuentsr3std7is_sameIS7_T_EE5valueEiE4typeELi0EEET0_SB_S7_
PUBLIC 2ec7c 0 _ZN3fmt3v116detail5writeIcNS0_14basic_appenderIcEEyTnNSt6__ndk19enable_ifIXaaaasr11is_integralIT1_EE5valuentsr3std7is_sameIS7_bEE5valuentsr3std7is_sameIS7_T_EE5valueEiE4typeELi0EEET0_SB_S7_
PUBLIC 2ee84 0 _ZN3fmt3v116detail5writeIcNS0_14basic_appenderIcEEnTnNSt6__ndk19enable_ifIXaaaasr11is_integralIT1_EE5valuentsr3std7is_sameIS7_bEE5valuentsr3std7is_sameIS7_T_EE5valueEiE4typeELi0EEET0_SB_S7_
PUBLIC 2f1e4 0 _ZN3fmt3v116detail5writeIcNS0_14basic_appenderIcEEoTnNSt6__ndk19enable_ifIXaaaasr11is_integralIT1_EE5valuentsr3std7is_sameIS7_bEE5valuentsr3std7is_sameIS7_T_EE5valueEiE4typeELi0EEET0_SB_S7_
PUBLIC 2f4f8 0 _ZN3fmt3v116detail5writeIcNS0_14basic_appenderIcEEbTnNSt6__ndk19enable_ifIXsr3std7is_sameIT1_bEE5valueEiE4typeELi0EEET0_SA_S7_RKNS0_12format_specsENS1_10locale_refE
PUBLIC 2f788 0 fmt::v11::detail::write_int_noinline<char, fmt::v11::basic_appender<char>, unsigned int>(fmt::v11::basic_appender<char>, fmt::v11::detail::write_int_arg<unsigned int>, fmt::v11::format_specs const&, fmt::v11::detail::locale_ref)
PUBLIC 30564 0 fmt::v11::detail::fill<char, fmt::v11::basic_appender<char> >(fmt::v11::basic_appender<char>, unsigned long, fmt::v11::detail::fill_t const&)
PUBLIC 30734 0 fmt::v11::detail::write_padded<char, (fmt::v11::align::type)1, fmt::v11::basic_appender<char>, fmt::v11::detail::write_char<char, fmt::v11::basic_appender<char> >(fmt::v11::basic_appender<char>, char, fmt::v11::format_specs const&)::{lambda(fmt::v11::basic_appender<char>&)#1}>(fmt::v11::basic_appender<char>, fmt::v11::format_specs const&, unsigned long, unsigned long, fmt::v11::detail::write_char<char, fmt::v11::basic_appender<char> >(fmt::v11::basic_appender<char>, char, fmt::v11::format_specs const&)::{lambda(fmt::v11::basic_appender<char>&)#1})
PUBLIC 30970 0 fmt::v11::detail::write_escaped_cp<fmt::v11::basic_appender<char>, char>(fmt::v11::basic_appender<char>, fmt::v11::detail::find_escape_result<char> const&)
PUBLIC 30c7c 0 fmt::v11::detail::write_codepoint<(unsigned long)2, char, fmt::v11::basic_appender<char> >(fmt::v11::basic_appender<char>, char, unsigned int)
PUBLIC 30df4 0 fmt::v11::detail::write_codepoint<(unsigned long)8, char, fmt::v11::basic_appender<char> >(fmt::v11::basic_appender<char>, char, unsigned int)
PUBLIC 30f6c 0 fmt::v11::detail::write_padded<char, (fmt::v11::align::type)1, fmt::v11::basic_appender<char>, fmt::v11::detail::write_nonfinite<char, fmt::v11::basic_appender<char> >(fmt::v11::basic_appender<char>, bool, fmt::v11::format_specs, fmt::v11::sign::type)::{lambda(fmt::v11::basic_appender<char>&)#1}>(fmt::v11::basic_appender<char>, fmt::v11::format_specs const&, unsigned long, unsigned long, fmt::v11::detail::write_nonfinite<char, fmt::v11::basic_appender<char> >(fmt::v11::basic_appender<char>, bool, fmt::v11::format_specs, fmt::v11::sign::type)::{lambda(fmt::v11::basic_appender<char>&)#1})
PUBLIC 311ac 0 fmt::v11::detail::do_write_float<char, fmt::v11::basic_appender<char>, fmt::v11::detail::dragonbox::decimal_fp<float>, fmt::v11::detail::digit_grouping<char> >(fmt::v11::basic_appender<char>, fmt::v11::detail::dragonbox::decimal_fp<float> const&, fmt::v11::format_specs const&, fmt::v11::detail::float_specs, fmt::v11::detail::locale_ref)
PUBLIC 31e20 0 fmt::v11::detail::do_write_float<char, fmt::v11::basic_appender<char>, fmt::v11::detail::dragonbox::decimal_fp<float>, fmt::v11::detail::digit_grouping<char> >(fmt::v11::basic_appender<char>, fmt::v11::detail::dragonbox::decimal_fp<float> const&, fmt::v11::format_specs const&, fmt::v11::detail::float_specs, fmt::v11::detail::locale_ref)::{lambda(fmt::v11::basic_appender<char>(fmt::v11::basic_appender<char>))#1}::operator() const
PUBLIC 31f74 0 fmt::v11::detail::digit_grouping<char>::digit_grouping(fmt::v11::detail::locale_ref, bool)
PUBLIC 321e0 0 fmt::v11::detail::digit_grouping<char>::~digit_grouping()
PUBLIC 32224 0 fmt::v11::detail::write_exponent<char, fmt::v11::basic_appender<char> >(int, fmt::v11::basic_appender<char>)
PUBLIC 323f4 0 _ZN3fmt3v116detail17write_significandIcjTnNSt6__ndk19enable_ifIXsr3std11is_integralIT0_EE5valueEiE4typeELi0EEEPT_S9_S5_iiS8_
PUBLIC 32570 0 std::__ndk1::basic_string<char, std::__ndk1::char_traits<char>, std::__ndk1::allocator<char> >::__assign_no_alias<true>(char const*, unsigned long)
PUBLIC 3261c 0 std::__ndk1::basic_string<char, std::__ndk1::char_traits<char>, std::__ndk1::allocator<char> >::__assign_no_alias<false>(char const*, unsigned long)
PUBLIC 3272c 0 fmt::v11::detail::digit_grouping<char>::apply<fmt::v11::basic_appender<char>, char>(fmt::v11::basic_appender<char>, fmt::v11::basic_string_view<char>) const
PUBLIC 32ae4 0 fmt::v11::basic_memory_buffer<int, (unsigned long)500, std::__ndk1::allocator<int> >::grow(fmt::v11::detail::buffer<int>&, unsigned long)
PUBLIC 32b84 0 fmt::v11::detail::do_write_float<char, fmt::v11::basic_appender<char>, fmt::v11::detail::dragonbox::decimal_fp<double>, fmt::v11::detail::digit_grouping<char> >(fmt::v11::basic_appender<char>, fmt::v11::detail::dragonbox::decimal_fp<double> const&, fmt::v11::format_specs const&, fmt::v11::detail::float_specs, fmt::v11::detail::locale_ref)
PUBLIC 33838 0 fmt::v11::detail::do_write_float<char, fmt::v11::basic_appender<char>, fmt::v11::detail::dragonbox::decimal_fp<double>, fmt::v11::detail::digit_grouping<char> >(fmt::v11::basic_appender<char>, fmt::v11::detail::dragonbox::decimal_fp<double> const&, fmt::v11::format_specs const&, fmt::v11::detail::float_specs, fmt::v11::detail::locale_ref)::{lambda(fmt::v11::basic_appender<char>(fmt::v11::basic_appender<char>))#1}::operator() const
PUBLIC 33990 0 _ZN3fmt3v116detail17write_significandIcmTnNSt6__ndk19enable_ifIXsr3std11is_integralIT0_EE5valueEiE4typeELi0EEEPT_S9_S5_iiS8_
PUBLIC 33b20 0 fmt::v11::detail::write_float<char, fmt::v11::basic_appender<char>, long double>(fmt::v11::basic_appender<char>, long double, fmt::v11::format_specs, fmt::v11::detail::locale_ref)
PUBLIC 3461c 0 fmt::v11::detail::write_padded<char, (fmt::v11::align::type)2, fmt::v11::basic_appender<char>, fmt::v11::detail::write_bytes<char, (fmt::v11::align::type)2, fmt::v11::basic_appender<char> >(fmt::v11::basic_appender<char>, fmt::v11::basic_string_view<char>, fmt::v11::format_specs const&)::{lambda(fmt::v11::basic_appender<char>&)#1}>(fmt::v11::basic_appender<char>, fmt::v11::format_specs const&, unsigned long, unsigned long, fmt::v11::detail::write_bytes<char, (fmt::v11::align::type)2, fmt::v11::basic_appender<char> >(fmt::v11::basic_appender<char>, fmt::v11::basic_string_view<char>, fmt::v11::format_specs const&)::{lambda(fmt::v11::basic_appender<char>&)#1})
PUBLIC 347f8 0 fmt::v11::detail::format_dragon(fmt::v11::detail::basic_fp<unsigned __int128>, unsigned int, int, fmt::v11::detail::buffer<char>&, int&)
PUBLIC 35c28 0 fmt::v11::detail::bigint::operator<<=(int)
PUBLIC 35d4c 0 fmt::v11::detail::bigint::assign_pow10(int)
PUBLIC 364a8 0 fmt::v11::detail::bigint::divmod_assign(fmt::v11::detail::bigint const&)
PUBLIC 367c8 0 fmt::v11::basic_memory_buffer<unsigned int, (unsigned long)32, std::__ndk1::allocator<unsigned int> >::grow(fmt::v11::detail::buffer<unsigned int>&, unsigned long)
PUBLIC 36868 0 fmt::v11::detail::do_write_float<char, fmt::v11::basic_appender<char>, fmt::v11::detail::big_decimal_fp, fmt::v11::detail::digit_grouping<char> >(fmt::v11::basic_appender<char>, fmt::v11::detail::big_decimal_fp const&, fmt::v11::format_specs const&, fmt::v11::detail::float_specs, fmt::v11::detail::locale_ref)
PUBLIC 37718 0 fmt::v11::detail::do_write_float<char, fmt::v11::basic_appender<char>, fmt::v11::detail::big_decimal_fp, fmt::v11::detail::digit_grouping<char> >(fmt::v11::basic_appender<char>, fmt::v11::detail::big_decimal_fp const&, fmt::v11::format_specs const&, fmt::v11::detail::float_specs, fmt::v11::detail::locale_ref)::{lambda(fmt::v11::basic_appender<char>(fmt::v11::basic_appender<char>))#1}::operator() const
PUBLIC 37878 0 fmt::v11::detail::write_padded<char, (fmt::v11::align::type)2, fmt::v11::basic_appender<char>, fmt::v11::detail::write_ptr<char, fmt::v11::basic_appender<char>, unsigned long>(fmt::v11::basic_appender<char>, unsigned long, fmt::v11::format_specs const*)::{lambda(fmt::v11::basic_appender<char>&)#1}>(fmt::v11::basic_appender<char>, fmt::v11::format_specs const&, unsigned long, unsigned long, fmt::v11::detail::write_ptr<char, fmt::v11::basic_appender<char>, unsigned long>(fmt::v11::basic_appender<char>, unsigned long, fmt::v11::format_specs const*)::{lambda(fmt::v11::basic_appender<char>&)#1})
PUBLIC 37a8c 0 fmt::v11::detail::parse_replacement_field<char, fmt::v11::detail::vformat_to<char>(fmt::v11::detail::buffer<char>&, fmt::v11::basic_string_view<char>, fmt::v11::detail::vformat_args<char>::type, fmt::v11::detail::locale_ref)::format_handler&>(char const*, char const*, fmt::v11::detail::vformat_to<char>(fmt::v11::detail::buffer<char>&, fmt::v11::basic_string_view<char>, fmt::v11::detail::vformat_args<char>::type, fmt::v11::detail::locale_ref)::format_handler&)
PUBLIC 39728 0 fmt::v11::detail::parse_dynamic_spec<char>(char const*, char const*, int&, fmt::v11::detail::arg_ref<char>&, fmt::v11::basic_format_parse_context<char>&)
PUBLIC 399b8 0 fmt::v11::basic_format_args<fmt::v11::context>::get<char>(fmt::v11::basic_string_view<char>) const
PUBLIC 39b10 0 fmt::v11::detail::write_int_noinline<char, fmt::v11::basic_appender<char>, unsigned long>(fmt::v11::basic_appender<char>, fmt::v11::detail::write_int_arg<unsigned long>, fmt::v11::format_specs const&, fmt::v11::detail::locale_ref)
PUBLIC 3a964 0 fmt::v11::detail::write_int_noinline<char, fmt::v11::basic_appender<char>, unsigned __int128>(fmt::v11::basic_appender<char>, fmt::v11::detail::write_int_arg<unsigned __int128>, fmt::v11::format_specs const&, fmt::v11::detail::locale_ref)
PUBLIC 3b9cc 0 _ZN3fmt3v116detail15format_hexfloatIdTnNSt6__ndk19enable_ifIXntsr16is_double_doubleIT_EE5valueEiE4typeELi0EEEvS5_NS0_12format_specsERNS1_6bufferIcEE
PUBLIC 3beec 0 fmt::v11::detail::format_float<double>(double, int, fmt::v11::detail::float_specs, fmt::v11::detail::buffer<char>&)
PUBLIC 3c88c 0 fmt::v11::detail::write<char, fmt::v11::basic_appender<char> >(fmt::v11::basic_appender<char>, fmt::v11::basic_string_view<char>, fmt::v11::format_specs const&)
PUBLIC 3dbf8 0 fmt::v11::detail::for_each_codepoint<fmt::v11::detail::compute_width(fmt::v11::basic_string_view<char>)::count_code_points>(fmt::v11::basic_string_view<char>, fmt::v11::detail::compute_width(fmt::v11::basic_string_view<char>)::count_code_points)::{lambda(char const*, char const*)#1}::operator()(char const*, char const*) const
PUBLIC 3ddb0 0 fmt::v11::detail::write_int<fmt::v11::basic_appender<char>, unsigned long, char>(fmt::v11::basic_appender<char>, unsigned long, unsigned int, fmt::v11::format_specs const&, fmt::v11::detail::digit_grouping<char> const&)
PUBLIC 3e32c 0 fmt::v11::detail::write_int<fmt::v11::basic_appender<char>, unsigned __int128, char>(fmt::v11::basic_appender<char>, unsigned __int128, unsigned int, fmt::v11::format_specs const&, fmt::v11::detail::digit_grouping<char> const&)
PUBLIC 3e9b0 0 <.plt ELF section in blueblock6.cleanstartpos.android64.so>
STACK CFI INIT 14e80 10 .cfa: sp 0 +
STACK CFI INIT 14e90 8 .cfa: sp 0 +
STACK CFI INIT 14e98 8 .cfa: sp 0 +
STACK CFI INIT 14ea0 14 .cfa: sp 0 +
STACK CFI INIT 14eb4 1c .cfa: sp 0 +
STACK CFI INIT 14ed0 10 .cfa: sp 0 +
STACK CFI INIT 14ee0 30 .cfa: sp 0 +
STACK CFI INIT 14f10 98 .cfa: sp 0 +
STACK CFI INIT 14fa8 59c .cfa: sp 0 +
STACK CFI INIT 15544 8c .cfa: sp 0 +
STACK CFI INIT 155d0 30 .cfa: sp 0 +
STACK CFI INIT 15600 4c .cfa: sp 0 +
STACK CFI 15604 .cfa: sp 32 +
STACK CFI 1560c .cfa: x29 32 + x19: .cfa -8 + ^ x20: .cfa -16 + ^ .ra: .cfa -24 + ^ x29: .cfa -32 + ^
STACK CFI 15634 .cfa: sp 32 +
STACK CFI 1563c .cfa: sp 0 +
STACK CFI 15640 .cfa: sp 32 +
STACK CFI 15648 .cfa: sp 0 +
STACK CFI INIT 15c60 18 .cfa: sp 0 +
STACK CFI INIT 16e14 18 .cfa: sp 0 +
STACK CFI INIT 172b0 18 .cfa: sp 0 +
STACK CFI INIT 172c8 18 .cfa: sp 0 +
STACK CFI INIT 172e0 18 .cfa: sp 0 +
STACK CFI INIT 172f8 18 .cfa: sp 0 +
STACK CFI INIT 17310 8 .cfa: sp 0 +
STACK CFI INIT 17318 10 .cfa: sp 0 +
STACK CFI 1731c .cfa: sp 16 +
STACK CFI 17320 .cfa: x29 16 + .ra: .cfa -8 + ^ x29: .cfa -16 + ^
STACK CFI INIT 17328 4c .cfa: sp 0 +
STACK CFI 1732c .cfa: sp 32 +
STACK CFI 17334 .cfa: x29 32 + x19: .cfa -8 + ^ x20: .cfa -16 + ^ .ra: .cfa -24 + ^ x29: .cfa -32 + ^
STACK CFI 1735c .cfa: sp 32 +
STACK CFI 17364 .cfa: sp 0 +
STACK CFI 17368 .cfa: sp 32 +
STACK CFI 17370 .cfa: sp 0 +
STACK CFI INIT 179f4 50 .cfa: sp 0 +
STACK CFI 179f8 .cfa: sp 32 +
STACK CFI 17a00 .cfa: x29 32 + x19: .cfa -16 + ^ .ra: .cfa -24 + ^ x29: .cfa -32 + ^
STACK CFI 17a18 .cfa: sp 32 +
STACK CFI 17a20 .cfa: sp 0 +
STACK CFI 17a24 .cfa: x29 32 +
STACK CFI 17a38 .cfa: sp 32 +
STACK CFI 17a40 .cfa: sp 0 +
STACK CFI INIT 17ab8 7c .cfa: sp 0 +
STACK CFI 17abc .cfa: sp 48 +
STACK CFI 17ac8 .cfa: x29 48 + x19: .cfa -8 + ^ x20: .cfa -16 + ^ x21: .cfa -32 + ^ .ra: .cfa -40 + ^ x29: .cfa -48 + ^
STACK CFI 17b14 .cfa: sp 48 +
STACK CFI 17b20 .cfa: sp 0 +
STACK CFI 17b24 .cfa: sp 48 +
STACK CFI 17b30 .cfa: sp 0 +
STACK CFI INIT 17b34 4 .cfa: sp 0 +
STACK CFI INIT 17c8c 34 .cfa: sp 0 +
STACK CFI 17c90 .cfa: sp 16 +
STACK CFI 17c94 .cfa: x29 16 + .ra: .cfa -8 + ^ x29: .cfa -16 + ^
STACK CFI INIT 17dec 80 .cfa: sp 0 +
STACK CFI 17df0 .cfa: sp 48 +
STACK CFI 17dfc .cfa: x29 48 + x19: .cfa -8 + ^ x20: .cfa -16 + ^ x21: .cfa -32 + ^ .ra: .cfa -40 + ^ x29: .cfa -48 + ^
STACK CFI 17e5c .cfa: sp 48 +
STACK CFI 17e68 .cfa: sp 0 +
STACK CFI INIT 17e6c 24 .cfa: sp 0 +
STACK CFI 17e70 .cfa: sp 32 +
STACK CFI 17e78 .cfa: x29 32 + x19: .cfa -16 + ^ .ra: .cfa -24 + ^ x29: .cfa -32 + ^
STACK CFI 17e84 .cfa: sp 32 +
STACK CFI 17e8c .cfa: sp 0 +
STACK CFI INIT 18210 14 .cfa: sp 0 +
STACK CFI 18214 .cfa: sp 16 +
STACK CFI 18218 .cfa: x29 16 + .ra: .cfa -8 + ^ x29: .cfa -16 + ^
STACK CFI INIT 18274 30 .cfa: sp 0 +
STACK CFI 18278 .cfa: sp 32 +
STACK CFI 18280 .cfa: x29 32 + x19: .cfa -16 + ^ .ra: .cfa -24 + ^ x29: .cfa -32 + ^
STACK CFI 18298 .cfa: sp 32 +
STACK CFI 182a0 .cfa: sp 0 +
STACK CFI INIT 182a4 34 .cfa: sp 0 +
STACK CFI 182a8 .cfa: sp 32 +
STACK CFI 182b0 .cfa: x29 32 + x19: .cfa -16 + ^ .ra: .cfa -24 + ^ x29: .cfa -32 + ^
STACK CFI INIT 18450 148 .cfa: sp 0 +
STACK CFI 18454 .cfa: sp 48 +
STACK CFI 18460 .cfa: x29 48 + x19: .cfa -8 + ^ x20: .cfa -16 + ^ x21: .cfa -32 + ^ .ra: .cfa -40 + ^ x29: .cfa -48 + ^
STACK CFI 18588 .cfa: sp 48 +
STACK CFI 18594 .cfa: sp 0 +
STACK CFI INIT 187bc 80 .cfa: sp 0 +
STACK CFI 187c0 .cfa: sp 48 +
STACK CFI 187cc .cfa: x29 48 + x19: .cfa -8 + ^ x20: .cfa -16 + ^ x21: .cfa -24 + ^ x22: .cfa -32 + ^ .ra: .cfa -40 + ^ x29: .cfa -48 + ^
STACK CFI 187e4 .cfa: sp 48 +
STACK CFI 187f0 .cfa: sp 0 +
STACK CFI 187f4 .cfa: x29 48 +
STACK CFI 18824 .cfa: sp 48 +
STACK CFI 18830 .cfa: sp 0 +
STACK CFI 18834 .cfa: x29 48 +
STACK CFI INIT 1883c 68 .cfa: sp 0 +
STACK CFI 18840 .cfa: sp 32 +
STACK CFI 18848 .cfa: x29 32 + x19: .cfa -8 + ^ x20: .cfa -16 + ^ .ra: .cfa -24 + ^ x29: .cfa -32 + ^
STACK CFI 18860 .cfa: sp 32 +
STACK CFI 18868 .cfa: sp 0 +
STACK CFI 1886c .cfa: x29 32 +
STACK CFI 18898 .cfa: sp 32 +
STACK CFI 188a0 .cfa: sp 0 +
STACK CFI INIT 188a4 14 .cfa: sp 0 +
STACK CFI 188a8 .cfa: sp 16 +
STACK CFI 188ac .cfa: x29 16 + .ra: .cfa -8 + ^ x29: .cfa -16 + ^
STACK CFI INIT 188b8 4 .cfa: sp 0 +
STACK CFI INIT 188bc 14 .cfa: sp 0 +
STACK CFI INIT 188d0 120 .cfa: sp 0 +
STACK CFI 188d4 .cfa: sp 64 +
STACK CFI 188e4 .cfa: x29 64 + x19: .cfa -8 + ^ x20: .cfa -16 + ^ x21: .cfa -24 + ^ x22: .cfa -32 + ^ x23: .cfa -40 + ^ x24: .cfa -48 + ^ .ra: .cfa -56 + ^ x29: .cfa -64 + ^
STACK CFI 189dc .cfa: sp 64 +
STACK CFI 189ec .cfa: sp 0 +
STACK CFI INIT 189f0 4a4 .cfa: sp 0 +
STACK CFI 189f4 .cfa: sp 32 +
STACK CFI 189fc .cfa: x29 32 + x19: .cfa -8 + ^ x20: .cfa -16 + ^ .ra: .cfa -24 + ^ x29: .cfa -32 + ^
STACK CFI 18ddc .cfa: sp 32 +
STACK CFI 18de4 .cfa: sp 0 +
STACK CFI 18de8 .cfa: x29 32 +
STACK CFI INIT 18e94 84 .cfa: sp 0 +
STACK CFI 18e9c .cfa: sp 32 +
STACK CFI 18ea4 .cfa: x29 32 + x19: .cfa -8 + ^ x20: .cfa -16 + ^ .ra: .cfa -24 + ^ x29: .cfa -32 + ^
STACK CFI 18ee4 .cfa: sp 32 +
STACK CFI 18eec .cfa: sp 0 +
STACK CFI 18ef4 .cfa: x29 32 +
STACK CFI INIT 18f18 4 .cfa: sp 0 +
STACK CFI INIT 18f1c 4 .cfa: sp 0 +
STACK CFI INIT 18f20 50 .cfa: sp 0 +
STACK CFI 18f24 .cfa: sp 32 +
STACK CFI 18f2c .cfa: x29 32 + x19: .cfa -16 + ^ .ra: .cfa -24 + ^ x29: .cfa -32 + ^
STACK CFI 18f44 .cfa: sp 32 +
STACK CFI 18f4c .cfa: sp 0 +
STACK CFI 18f50 .cfa: x29 32 +
STACK CFI 18f64 .cfa: sp 32 +
STACK CFI 18f6c .cfa: sp 0 +
STACK CFI INIT 18f70 64 .cfa: sp 0 +
STACK CFI 18f74 .cfa: sp 32 +
STACK CFI 18f7c .cfa: x29 32 + x19: .cfa -16 + ^ .ra: .cfa -24 + ^ x29: .cfa -32 + ^
STACK CFI 18fa8 .cfa: sp 32 +
STACK CFI 18fb0 .cfa: sp 0 +
STACK CFI 18fb4 .cfa: x29 32 +
STACK CFI 18fc8 .cfa: sp 32 +
STACK CFI 18fd0 .cfa: sp 0 +
STACK CFI INIT 18fd4 14 .cfa: sp 0 +
STACK CFI 18fd8 .cfa: sp 16 +
STACK CFI 18fdc .cfa: x29 16 + .ra: .cfa -8 + ^ x29: .cfa -16 + ^
STACK CFI INIT 1c364 d0 .cfa: sp 0 +
STACK CFI 1c368 .cfa: sp 64 +
STACK CFI 1c378 .cfa: x29 48 + x19: .cfa -8 + ^ x20: .cfa -16 + ^ x21: .cfa -32 + ^ .ra: .cfa -40 + ^ x29: .cfa -48 + ^
STACK CFI 1c41c .cfa: sp 64 +
STACK CFI 1c42c .cfa: sp 0 +
STACK CFI 1c430 .cfa: x29 48 +
STACK CFI INIT 1c434 d0 .cfa: sp 0 +
STACK CFI 1c438 .cfa: sp 64 +
STACK CFI 1c448 .cfa: x29 48 + x19: .cfa -8 + ^ x20: .cfa -16 + ^ x21: .cfa -32 + ^ .ra: .cfa -40 + ^ x29: .cfa -48 + ^
STACK CFI 1c4ec .cfa: sp 64 +
STACK CFI 1c4fc .cfa: sp 0 +
STACK CFI 1c500 .cfa: x29 48 +
STACK CFI INIT 1c504 1b0 .cfa: sp 0 +
STACK CFI 1c508 .cfa: sp 48 +
STACK CFI 1c514 .cfa: x29 48 + x19: .cfa -8 + ^ x20: .cfa -16 + ^ x21: .cfa -32 + ^ .ra: .cfa -40 + ^ x29: .cfa -48 + ^
STACK CFI 1c564 .cfa: sp 48 +
STACK CFI 1c570 .cfa: sp 0 +
STACK CFI 1c574 .cfa: x29 48 +
STACK CFI 1c594 .cfa: sp 48 +
STACK CFI 1c5a0 .cfa: sp 0 +
STACK CFI 1c5a4 .cfa: x29 48 +
STACK CFI 1c5bc .cfa: sp 48 +
STACK CFI 1c5c8 .cfa: sp 0 +
STACK CFI 1c5cc .cfa: x29 48 +
STACK CFI 1c5e4 .cfa: sp 48 +
STACK CFI 1c5f0 .cfa: sp 0 +
STACK CFI 1c5f4 .cfa: x29 48 +
STACK CFI 1c5fc .cfa: sp 48 +
STACK CFI 1c608 .cfa: sp 0 +
STACK CFI 1c60c .cfa: x29 48 +
STACK CFI 1c644 .cfa: sp 48 +
STACK CFI 1c650 .cfa: sp 0 +
STACK CFI 1c654 .cfa: x29 48 +
STACK CFI 1c65c .cfa: sp 48 +
STACK CFI 1c668 .cfa: sp 0 +
STACK CFI 1c66c .cfa: x29 48 +
STACK CFI 1c674 .cfa: sp 48 +
STACK CFI 1c680 .cfa: sp 0 +
STACK CFI 1c684 .cfa: x29 48 +
STACK CFI 1c6a4 .cfa: sp 48 +
STACK CFI 1c6b0 .cfa: sp 0 +
STACK CFI INIT 1d240 4 .cfa: sp 0 +
STACK CFI INIT 1d244 14 .cfa: sp 0 +
STACK CFI 1d248 .cfa: sp 16 +
STACK CFI 1d24c .cfa: x29 16 + .ra: .cfa -8 + ^ x29: .cfa -16 + ^
STACK CFI INIT 1d258 14 .cfa: sp 0 +
STACK CFI 1d25c .cfa: sp 16 +
STACK CFI 1d260 .cfa: x29 16 + .ra: .cfa -8 + ^ x29: .cfa -16 + ^
STACK CFI INIT 1d26c c .cfa: sp 0 +
STACK CFI 1d270 .cfa: sp 16 +
STACK CFI 1d274 .cfa: x29 16 + .ra: .cfa -8 + ^ x29: .cfa -16 + ^
STACK CFI INIT 1d2c8 30 .cfa: sp 0 +
STACK CFI 1d2cc .cfa: sp 32 +
STACK CFI 1d2d4 .cfa: x29 32 + x19: .cfa -16 + ^ .ra: .cfa -24 + ^ x29: .cfa -32 + ^
STACK CFI 1d2ec .cfa: sp 32 +
STACK CFI 1d2f4 .cfa: sp 0 +
STACK CFI INIT 1d2f8 c .cfa: sp 0 +
STACK CFI 1d2fc .cfa: sp 16 +
STACK CFI 1d300 .cfa: x29 16 + .ra: .cfa -8 + ^ x29: .cfa -16 + ^
STACK CFI INIT 1d304 4 .cfa: sp 0 +
STACK CFI INIT 1d308 4 .cfa: sp 0 +
STACK CFI INIT 1d30c 38 .cfa: sp 0 +
STACK CFI 1d310 .cfa: sp 32 +
STACK CFI 1d318 .cfa: x29 32 + x19: .cfa -16 + ^ .ra: .cfa -24 + ^ x29: .cfa -32 + ^
STACK CFI 1d338 .cfa: sp 32 +
STACK CFI 1d340 .cfa: sp 0 +
STACK CFI INIT 1d344 18 .cfa: sp 0 +
STACK CFI INIT 1d35c 4 .cfa: sp 0 +
STACK CFI INIT 1d360 4 .cfa: sp 0 +
STACK CFI INIT 1d364 10 .cfa: sp 0 +
STACK CFI INIT 1d374 1c .cfa: sp 0 +
STACK CFI INIT 1d390 c .cfa: sp 0 +
STACK CFI INIT 1d39c f8 .cfa: sp 0 +
STACK CFI 1d3a0 .cfa: sp 64 +
STACK CFI 1d3b0 .cfa: x29 64 + x19: .cfa -8 + ^ x20: .cfa -16 + ^ x21: .cfa -24 + ^ x22: .cfa -32 + ^ x23: .cfa -48 + ^ .ra: .cfa -56 + ^ x29: .cfa -64 + ^
STACK CFI 1d40c .cfa: sp 64 +
STACK CFI 1d41c .cfa: sp 0 +
STACK CFI 1d420 .cfa: x29 64 +
STACK CFI 1d43c .cfa: sp 64 +
STACK CFI 1d44c .cfa: sp 0 +
STACK CFI 1d450 .cfa: x29 64 +
STACK CFI 1d480 .cfa: sp 64 +
STACK CFI 1d490 .cfa: sp 0 +
STACK CFI INIT 1d494 70 .cfa: sp 0 +
STACK CFI 1d498 .cfa: sp 48 +
STACK CFI 1d4a4 .cfa: x29 32 + x19: .cfa -16 + ^ .ra: .cfa -24 + ^ x29: .cfa -32 + ^
STACK CFI 1d4dc .cfa: sp 48 +
STACK CFI 1d4e8 .cfa: sp 0 +
STACK CFI 1d4ec .cfa: x29 32 +
STACK CFI INIT 1d504 5c .cfa: sp 0 +
STACK CFI 1d508 .cfa: sp 32 +
STACK CFI 1d510 .cfa: x29 32 + x19: .cfa -16 + ^ .ra: .cfa -24 + ^ x29: .cfa -32 + ^
STACK CFI 1d554 .cfa: sp 32 +
STACK CFI 1d55c .cfa: sp 0 +
STACK CFI INIT 1d560 64 .cfa: sp 0 +
STACK CFI 1d564 .cfa: sp 32 +
STACK CFI 1d56c .cfa: x29 32 + x19: .cfa -16 + ^ .ra: .cfa -24 + ^ x29: .cfa -32 + ^
STACK CFI 1d5b8 .cfa: sp 32 +
STACK CFI 1d5c0 .cfa: sp 0 +
STACK CFI INIT 1d5c4 4 .cfa: sp 0 +
STACK CFI INIT 1d5c8 34 .cfa: sp 0 +
STACK CFI 1d5cc .cfa: sp 16 +
STACK CFI 1d5d0 .cfa: x29 16 + .ra: .cfa -8 + ^ x29: .cfa -16 + ^
STACK CFI INIT 1d5fc 24 .cfa: sp 0 +
STACK CFI 1d600 .cfa: sp 32 +
STACK CFI 1d608 .cfa: x29 32 + x19: .cfa -16 + ^ .ra: .cfa -24 + ^ x29: .cfa -32 + ^
STACK CFI 1d614 .cfa: sp 32 +
STACK CFI 1d61c .cfa: sp 0 +
STACK CFI INIT 1d620 4 .cfa: sp 0 +
STACK CFI INIT 1d624 34 .cfa: sp 0 +
STACK CFI 1d628 .cfa: sp 32 +
STACK CFI 1d630 .cfa: x29 32 + x19: .cfa -16 + ^ .ra: .cfa -24 + ^ x29: .cfa -32 + ^
STACK CFI 1d64c .cfa: sp 32 +
STACK CFI 1d654 .cfa: sp 0 +
STACK CFI INIT 1d658 14 .cfa: sp 0 +
STACK CFI INIT 1d66c 4 .cfa: sp 0 +
STACK CFI INIT 1d670 4 .cfa: sp 0 +
STACK CFI INIT 1db30 1c .cfa: sp 0 +
STACK CFI INIT 1db4c c .cfa: sp 0 +
STACK CFI INIT 1db58 17c .cfa: sp 0 +
STACK CFI 1db5c .cfa: sp 96 +
STACK CFI 1db6c .cfa: x29 48 + x19: .cfa -8 + ^ x20: .cfa -16 + ^ x21: .cfa -24 + ^ x22: .cfa -32 + ^ .ra: .cfa -40 + ^ x29: .cfa -48 + ^
STACK CFI 1dcbc .cfa: sp 96 +
STACK CFI 1dccc .cfa: sp 0 +
STACK CFI 1dcd0 .cfa: x29 48 +
STACK CFI INIT 1dcd4 268 .cfa: sp 0 +
STACK CFI 1dcd8 .cfa: sp 64 +
STACK CFI 1dce0 .cfa: x29 16 + .ra: .cfa -8 + ^ x29: .cfa -16 + ^
STACK CFI 1de10 .cfa: sp 64 +
STACK CFI 1de18 .cfa: sp 0 +
STACK CFI 1de1c .cfa: x29 16 +
STACK CFI INIT 1e250 1ac .cfa: sp 0 +
STACK CFI 1e254 .cfa: sp 32 +
STACK CFI 1e25c .cfa: x29 32 + x19: .cfa -8 + ^ x20: .cfa -16 + ^ .ra: .cfa -24 + ^ x29: .cfa -32 + ^
STACK CFI 1e34c .cfa: sp 32 +
STACK CFI 1e354 .cfa: sp 0 +
STACK CFI 1e358 .cfa: x29 32 +
STACK CFI INIT 1e3fc 4 .cfa: sp 0 +
STACK CFI INIT 1e400 38 .cfa: sp 0 +
STACK CFI 1e404 .cfa: sp 32 +
STACK CFI 1e40c .cfa: x29 32 + x19: .cfa -16 + ^ .ra: .cfa -24 + ^ x29: .cfa -32 + ^
STACK CFI 1e42c .cfa: sp 32 +
STACK CFI 1e434 .cfa: sp 0 +
STACK CFI INIT 1e438 18 .cfa: sp 0 +
STACK CFI INIT 1e450 4 .cfa: sp 0 +
STACK CFI INIT 1e454 4 .cfa: sp 0 +
STACK CFI INIT 1e458 174 .cfa: sp 0 +
STACK CFI 1e45c .cfa: sp 80 +
STACK CFI 1e470 .cfa: x29 64 + x19: .cfa -8 + ^ x20: .cfa -16 + ^ x21: .cfa -24 + ^ x22: .cfa -32 + ^ x23: .cfa -40 + ^ x24: .cfa -48 + ^ .ra: .cfa -56 + ^ x29: .cfa -64 + ^
STACK CFI 1e510 .cfa: sp 80 +
STACK CFI 1e524 .cfa: sp 0 +
STACK CFI 1e528 .cfa: x29 64 +
STACK CFI 1e5b0 .cfa: sp 80 +
STACK CFI 1e5c4 .cfa: sp 0 +
STACK CFI 1e5c8 .cfa: x29 64 +
STACK CFI INIT 1e5cc 1c .cfa: sp 0 +
STACK CFI INIT 1e5e8 c .cfa: sp 0 +
STACK CFI INIT 1e5f4 1e4 .cfa: sp 0 +
STACK CFI INIT 1e7d8 4 .cfa: sp 0 +
STACK CFI INIT 1e7dc 34 .cfa: sp 0 +
STACK CFI 1e7e0 .cfa: sp 32 +
STACK CFI 1e7e8 .cfa: x29 32 + x19: .cfa -16 + ^ .ra: .cfa -24 + ^ x29: .cfa -32 + ^
STACK CFI 1e804 .cfa: sp 32 +
STACK CFI 1e80c .cfa: sp 0 +
STACK CFI INIT 1e810 14 .cfa: sp 0 +
STACK CFI INIT 1e824 4 .cfa: sp 0 +
STACK CFI INIT 1e828 4 .cfa: sp 0 +
STACK CFI INIT 1e998 1c .cfa: sp 0 +
STACK CFI INIT 1e9b4 c .cfa: sp 0 +
STACK CFI INIT 1e9c0 4 .cfa: sp 0 +
STACK CFI INIT 1e9c4 4 .cfa: sp 0 +
STACK CFI INIT 1e9c8 34 .cfa: sp 0 +
STACK CFI 1e9cc .cfa: sp 32 +
STACK CFI 1e9d4 .cfa: x29 32 + x19: .cfa -16 + ^ .ra: .cfa -24 + ^ x29: .cfa -32 + ^
STACK CFI 1e9f0 .cfa: sp 32 +
STACK CFI 1e9f8 .cfa: sp 0 +
STACK CFI INIT 1e9fc 14 .cfa: sp 0 +
STACK CFI INIT 1ea10 4 .cfa: sp 0 +
STACK CFI INIT 1ea14 4 .cfa: sp 0 +
STACK CFI INIT 1eb84 1c .cfa: sp 0 +
STACK CFI INIT 1eba0 c .cfa: sp 0 +
STACK CFI INIT 1eec0 168 .cfa: sp 0 +
STACK CFI 1eec4 .cfa: sp 80 +
STACK CFI 1eed8 .cfa: x29 80 + x19: .cfa -8 + ^ x20: .cfa -16 + ^ x21: .cfa -24 + ^ x22: .cfa -32 + ^ x23: .cfa -40 + ^ x24: .cfa -48 + ^ x25: .cfa -56 + ^ x26: .cfa -64 + ^ .ra: .cfa -72 + ^ x29: .cfa -80 + ^
STACK CFI 1f010 .cfa: sp 80 +
STACK CFI 1f024 .cfa: sp 0 +
STACK CFI INIT 1f028 1b0 .cfa: sp 0 +
STACK CFI INIT 1fb64 4 .cfa: sp 0 +
STACK CFI INIT 1fb68 88 .cfa: sp 0 +
STACK CFI 1fb80 .cfa: sp 32 +
STACK CFI 1fb88 .cfa: x29 32 + x19: .cfa -8 + ^ x20: .cfa -16 + ^ .ra: .cfa -24 + ^ x29: .cfa -32 + ^
STACK CFI 1fbe4 .cfa: sp 32 +
STACK CFI 1fbec .cfa: sp 0 +
STACK CFI INIT 1fd74 294 .cfa: sp 0 +
STACK CFI 1fd78 .cfa: sp 32 +
STACK CFI 1fd80 .cfa: x29 32 + x19: .cfa -8 + ^ x20: .cfa -16 + ^ .ra: .cfa -24 + ^ x29: .cfa -32 + ^
STACK CFI 1ffd4 .cfa: sp 32 +
STACK CFI 1ffdc .cfa: sp 0 +
STACK CFI 1ffe0 .cfa: x29 32 +
STACK CFI INIT 20008 3d4 .cfa: sp 0 +
STACK CFI 2000c .cfa: sp 48 +
STACK CFI 20018 .cfa: x29 48 + x19: .cfa -8 + ^ x20: .cfa -16 + ^ x21: .cfa -24 + ^ x22: .cfa -32 + ^ .ra: .cfa -40 + ^ x29: .cfa -48 + ^
STACK CFI 201fc .cfa: sp 48 +
STACK CFI 20208 .cfa: sp 0 +
STACK CFI 2020c .cfa: x29 48 +
STACK CFI 20278 .cfa: sp 48 +
STACK CFI 20284 .cfa: sp 0 +
STACK CFI 20288 .cfa: x29 48 +
STACK CFI INIT 203dc 224 .cfa: sp 0 +
STACK CFI 203e0 .cfa: sp 32 +
STACK CFI 203e8 .cfa: x29 32 + x19: .cfa -8 + ^ x20: .cfa -16 + ^ .ra: .cfa -24 + ^ x29: .cfa -32 + ^
STACK CFI 205f4 .cfa: sp 32 +
STACK CFI 205fc .cfa: sp 0 +
STACK CFI INIT 213f0 78 .cfa: sp 0 +
STACK CFI 213f4 .cfa: sp 48 +
STACK CFI 21400 .cfa: x29 48 + x19: .cfa -8 + ^ x20: .cfa -16 + ^ x21: .cfa -32 + ^ .ra: .cfa -40 + ^ x29: .cfa -48 + ^
STACK CFI 21448 .cfa: sp 48 +
STACK CFI 21454 .cfa: sp 0 +
STACK CFI 21458 .cfa: sp 48 +
STACK CFI 21464 .cfa: sp 0 +
STACK CFI INIT 21468 78 .cfa: sp 0 +
STACK CFI 2146c .cfa: sp 48 +
STACK CFI 21478 .cfa: x29 48 + x19: .cfa -8 + ^ x20: .cfa -16 + ^ x21: .cfa -32 + ^ .ra: .cfa -40 + ^ x29: .cfa -48 + ^
STACK CFI 214c0 .cfa: sp 48 +
STACK CFI 214cc .cfa: sp 0 +
STACK CFI 214d0 .cfa: sp 48 +
STACK CFI 214dc .cfa: sp 0 +
STACK CFI INIT 214e0 84 .cfa: sp 0 +
STACK CFI 214e4 .cfa: sp 48 +
STACK CFI 214f0 .cfa: x29 48 + x19: .cfa -8 + ^ x20: .cfa -16 + ^ x21: .cfa -24 + ^ x22: .cfa -32 + ^ .ra: .cfa -40 + ^ x29: .cfa -48 + ^
STACK CFI 21544 .cfa: sp 48 +
STACK CFI 21550 .cfa: sp 0 +
STACK CFI 21554 .cfa: sp 48 +
STACK CFI 21560 .cfa: sp 0 +
STACK CFI INIT 21580 8c .cfa: sp 0 +
STACK CFI 21584 .cfa: sp 48 +
STACK CFI 21590 .cfa: x29 48 + x19: .cfa -8 + ^ x20: .cfa -16 + ^ x21: .cfa -24 + ^ x22: .cfa -32 + ^ .ra: .cfa -40 + ^ x29: .cfa -48 + ^
STACK CFI 215c8 .cfa: sp 48 +
STACK CFI 215d4 .cfa: sp 0 +
STACK CFI 215d8 .cfa: x29 48 +
STACK CFI 215fc .cfa: sp 48 +
STACK CFI 21608 .cfa: sp 0 +
STACK CFI INIT 2160c 78 .cfa: sp 0 +
STACK CFI 21610 .cfa: sp 48 +
STACK CFI 2161c .cfa: x29 48 + x19: .cfa -8 + ^ x20: .cfa -16 + ^ x21: .cfa -32 + ^ .ra: .cfa -40 + ^ x29: .cfa -48 + ^
STACK CFI 21664 .cfa: sp 48 +
STACK CFI 21670 .cfa: sp 0 +
STACK CFI 21674 .cfa: sp 48 +
STACK CFI 21680 .cfa: sp 0 +
STACK CFI INIT 21684 8c .cfa: sp 0 +
STACK CFI 21688 .cfa: sp 48 +
STACK CFI 21694 .cfa: x29 48 + x19: .cfa -8 + ^ x20: .cfa -16 + ^ x21: .cfa -24 + ^ x22: .cfa -32 + ^ .ra: .cfa -40 + ^ x29: .cfa -48 + ^
STACK CFI 216cc .cfa: sp 48 +
STACK CFI 216d8 .cfa: sp 0 +
STACK CFI 216dc .cfa: x29 48 +
STACK CFI 21700 .cfa: sp 48 +
STACK CFI 2170c .cfa: sp 0 +
STACK CFI INIT 21710 78 .cfa: sp 0 +
STACK CFI 21714 .cfa: sp 48 +
STACK CFI 21720 .cfa: x29 48 + x19: .cfa -8 + ^ x20: .cfa -16 + ^ x21: .cfa -32 + ^ .ra: .cfa -40 + ^ x29: .cfa -48 + ^
STACK CFI 21768 .cfa: sp 48 +
STACK CFI 21774 .cfa: sp 0 +
STACK CFI 21778 .cfa: sp 48 +
STACK CFI 21784 .cfa: sp 0 +
STACK CFI INIT 21788 104 .cfa: sp 0 +
STACK CFI 2178c .cfa: sp 64 +
STACK CFI 2179c .cfa: x29 64 + x19: .cfa -8 + ^ x20: .cfa -16 + ^ x21: .cfa -24 + ^ x22: .cfa -32 + ^ x23: .cfa -48 + ^ .ra: .cfa -56 + ^ x29: .cfa -64 + ^
STACK CFI 21864 .cfa: sp 64 +
STACK CFI 21874 .cfa: sp 0 +
STACK CFI 21878 .cfa: sp 64 +
STACK CFI 21888 .cfa: sp 0 +
STACK CFI INIT 21c84 78 .cfa: sp 0 +
STACK CFI 21c88 .cfa: sp 48 +
STACK CFI 21c94 .cfa: x29 48 + x19: .cfa -8 + ^ x20: .cfa -16 + ^ x21: .cfa -32 + ^ .ra: .cfa -40 + ^ x29: .cfa -48 + ^
STACK CFI 21cdc .cfa: sp 48 +
STACK CFI 21ce8 .cfa: sp 0 +
STACK CFI 21cec .cfa: sp 48 +
STACK CFI 21cf8 .cfa: sp 0 +
STACK CFI INIT 21d18 90 .cfa: sp 0 +
STACK CFI 21d1c .cfa: sp 48 +
STACK CFI 21d28 .cfa: x29 48 + x19: .cfa -8 + ^ x20: .cfa -16 + ^ x21: .cfa -24 + ^ x22: .cfa -32 + ^ .ra: .cfa -40 + ^ x29: .cfa -48 + ^
STACK CFI 21d60 .cfa: sp 48 +
STACK CFI 21d6c .cfa: sp 0 +
STACK CFI 21d70 .cfa: x29 48 +
STACK CFI 21d98 .cfa: sp 48 +
STACK CFI 21da4 .cfa: sp 0 +
STACK CFI INIT 21e40 3c .cfa: sp 0 +
STACK CFI 21e44 .cfa: sp 32 +
STACK CFI 21e4c .cfa: x29 32 + x19: .cfa -16 + ^ .ra: .cfa -24 + ^ x29: .cfa -32 + ^
STACK CFI 21e64 .cfa: sp 32 +
STACK CFI 21e6c .cfa: sp 0 +
STACK CFI 21e70 .cfa: sp 32 +
STACK CFI 21e78 .cfa: sp 0 +
STACK CFI INIT 21eb4 78 .cfa: sp 0 +
STACK CFI 21eb8 .cfa: sp 48 +
STACK CFI 21ec4 .cfa: x29 48 + x19: .cfa -8 + ^ x20: .cfa -16 + ^ x21: .cfa -32 + ^ .ra: .cfa -40 + ^ x29: .cfa -48 + ^
STACK CFI 21f0c .cfa: sp 48 +
STACK CFI 21f18 .cfa: sp 0 +
STACK CFI 21f1c .cfa: sp 48 +
STACK CFI 21f28 .cfa: sp 0 +
STACK CFI INIT 21f2c 78 .cfa: sp 0 +
STACK CFI 21f30 .cfa: sp 48 +
STACK CFI 21f3c .cfa: x29 48 + x19: .cfa -8 + ^ x20: .cfa -16 + ^ x21: .cfa -32 + ^ .ra: .cfa -40 + ^ x29: .cfa -48 + ^
STACK CFI 21f84 .cfa: sp 48 +
STACK CFI 21f90 .cfa: sp 0 +
STACK CFI 21f94 .cfa: sp 48 +
STACK CFI 21fa0 .cfa: sp 0 +
STACK CFI INIT 21fa4 78 .cfa: sp 0 +
STACK CFI 21fa8 .cfa: sp 48 +
STACK CFI 21fb4 .cfa: x29 48 + x19: .cfa -8 + ^ x20: .cfa -16 + ^ x21: .cfa -32 + ^ .ra: .cfa -40 + ^ x29: .cfa -48 + ^
STACK CFI 21ffc .cfa: sp 48 +
STACK CFI 22008 .cfa: sp 0 +
STACK CFI 2200c .cfa: sp 48 +
STACK CFI 22018 .cfa: sp 0 +
STACK CFI INIT 2201c 78 .cfa: sp 0 +
STACK CFI 22020 .cfa: sp 48 +
STACK CFI 2202c .cfa: x29 48 + x19: .cfa -8 + ^ x20: .cfa -16 + ^ x21: .cfa -32 + ^ .ra: .cfa -40 + ^ x29: .cfa -48 + ^
STACK CFI 22074 .cfa: sp 48 +
STACK CFI 22080 .cfa: sp 0 +
STACK CFI 22084 .cfa: sp 48 +
STACK CFI 22090 .cfa: sp 0 +
STACK CFI INIT 22260 2b8 .cfa: sp 0 +
STACK CFI 22264 .cfa: sp 80 +
STACK CFI 22278 .cfa: x29 80 + x19: .cfa -8 + ^ x20: .cfa -16 + ^ x21: .cfa -24 + ^ x22: .cfa -32 + ^ x23: .cfa -40 + ^ x24: .cfa -48 + ^ x25: .cfa -64 + ^ .ra: .cfa -72 + ^ x29: .cfa -80 + ^
STACK CFI 22424 .cfa: sp 80 +
STACK CFI 22438 .cfa: sp 0 +
STACK CFI 2243c .cfa: x29 80 +
STACK CFI 22500 .cfa: sp 80 +
STACK CFI 22514 .cfa: sp 0 +
STACK CFI INIT 22518 80 .cfa: sp 0 +
STACK CFI 2251c .cfa: sp 48 +
STACK CFI 22528 .cfa: x29 48 + x19: .cfa -8 + ^ x20: .cfa -16 + ^ x21: .cfa -32 + ^ .ra: .cfa -40 + ^ x29: .cfa -48 + ^
STACK CFI 22578 .cfa: sp 48 +
STACK CFI 22584 .cfa: sp 0 +
STACK CFI 22588 .cfa: sp 48 +
STACK CFI 22594 .cfa: sp 0 +
STACK CFI INIT 22598 80 .cfa: sp 0 +
STACK CFI 2259c .cfa: sp 48 +
STACK CFI 225a8 .cfa: x29 48 + x19: .cfa -8 + ^ x20: .cfa -16 + ^ x21: .cfa -32 + ^ .ra: .cfa -40 + ^ x29: .cfa -48 + ^
STACK CFI 225f8 .cfa: sp 48 +
STACK CFI 22604 .cfa: sp 0 +
STACK CFI 22608 .cfa: sp 48 +
STACK CFI 22614 .cfa: sp 0 +
STACK CFI INIT 227b8 2b8 .cfa: sp 0 +
STACK CFI INIT 22a70 1bc .cfa: sp 0 +
STACK CFI 22a74 .cfa: sp 64 +
STACK CFI 22a84 .cfa: x29 64 + x19: .cfa -8 + ^ x20: .cfa -16 + ^ x21: .cfa -24 + ^ x22: .cfa -32 + ^ x23: .cfa -48 + ^ .ra: .cfa -56 + ^ x29: .cfa -64 + ^
STACK CFI 22b88 .cfa: sp 64 +
STACK CFI 22b98 .cfa: sp 0 +
STACK CFI 22b9c .cfa: x29 64 +
STACK CFI INIT 22c2c 80 .cfa: sp 0 +
STACK CFI 22c30 .cfa: sp 48 +
STACK CFI 22c3c .cfa: x29 48 + x19: .cfa -8 + ^ x20: .cfa -16 + ^ x21: .cfa -32 + ^ .ra: .cfa -40 + ^ x29: .cfa -48 + ^
STACK CFI 22c8c .cfa: sp 48 +
STACK CFI 22c98 .cfa: sp 0 +
STACK CFI 22c9c .cfa: sp 48 +
STACK CFI 22ca8 .cfa: sp 0 +
STACK CFI INIT 22cac 98 .cfa: sp 0 +
STACK CFI 22cb4 .cfa: sp 48 +
STACK CFI 22cc0 .cfa: x29 48 + x19: .cfa -8 + ^ x20: .cfa -16 + ^ x21: .cfa -32 + ^ .ra: .cfa -40 + ^ x29: .cfa -48 + ^
STACK CFI 22d10 .cfa: sp 0 + x19: x19 x20: x20 x21: x21 .ra: x30 x29: x29
STACK CFI 22d14 .cfa: x29 48 + x19: .cfa -8 + ^ x20: .cfa -16 + ^ x21: .cfa -32 + ^ .ra: .cfa -40 + ^ x29: .cfa -48 + ^
STACK CFI 22d34 .cfa: sp 48 +
STACK CFI 22d40 .cfa: sp 0 +
STACK CFI INIT 22d44 54 .cfa: sp 0 +
STACK CFI 22d4c .cfa: sp 32 +
STACK CFI 22d54 .cfa: x29 32 + x19: .cfa -8 + ^ x20: .cfa -16 + ^ .ra: .cfa -24 + ^ x29: .cfa -32 + ^
STACK CFI 22d8c .cfa: sp 32 +
STACK CFI 22d94 .cfa: sp 0 +
STACK CFI INIT 22d98 54 .cfa: sp 0 +
STACK CFI 22da0 .cfa: sp 32 +
STACK CFI 22da8 .cfa: x29 32 + x19: .cfa -8 + ^ x20: .cfa -16 + ^ .ra: .cfa -24 + ^ x29: .cfa -32 + ^
STACK CFI 22de0 .cfa: sp 32 +
STACK CFI 22de8 .cfa: sp 0 +
STACK CFI INIT 22e94 54 .cfa: sp 0 +
STACK CFI 22e9c .cfa: sp 32 +
STACK CFI 22ea4 .cfa: x29 32 + x19: .cfa -8 + ^ x20: .cfa -16 + ^ .ra: .cfa -24 + ^ x29: .cfa -32 + ^
STACK CFI 22edc .cfa: sp 32 +
STACK CFI 22ee4 .cfa: sp 0 +
STACK CFI INIT 22ee8 a8 .cfa: sp 0 +
STACK CFI 22ef0 .cfa: sp 48 +
STACK CFI 22efc .cfa: x29 48 + x19: .cfa -8 + ^ x20: .cfa -16 + ^ x21: .cfa -24 + ^ x22: .cfa -32 + ^ .ra: .cfa -40 + ^ x29: .cfa -48 + ^
STACK CFI 22f80 .cfa: sp 48 +
STACK CFI 22f8c .cfa: sp 0 +
STACK CFI INIT 22f90 54 .cfa: sp 0 +
STACK CFI 22f98 .cfa: sp 32 +
STACK CFI 22fa0 .cfa: x29 32 + x19: .cfa -8 + ^ x20: .cfa -16 + ^ .ra: .cfa -24 + ^ x29: .cfa -32 + ^
STACK CFI 22fd8 .cfa: sp 32 +
STACK CFI 22fe0 .cfa: sp 0 +
STACK CFI INIT 234d8 4 .cfa: sp 0 +
STACK CFI INIT 23610 dc .cfa: sp 0 +
STACK CFI 23614 .cfa: sp 48 +
STACK CFI 23620 .cfa: x29 48 + x19: .cfa -8 + ^ x20: .cfa -16 + ^ x21: .cfa -32 + ^ .ra: .cfa -40 + ^ x29: .cfa -48 + ^
STACK CFI 23678 .cfa: sp 48 +
STACK CFI 23684 .cfa: sp 0 +
STACK CFI 23688 .cfa: x29 48 +
STACK CFI 236dc .cfa: sp 48 +
STACK CFI 236e8 .cfa: sp 0 +
STACK CFI INIT 236ec 50 .cfa: sp 0 +
STACK CFI 236f0 .cfa: sp 32 +
STACK CFI 236f8 .cfa: x29 32 + x19: .cfa -16 + ^ .ra: .cfa -24 + ^ x29: .cfa -32 + ^
STACK CFI 23724 .cfa: sp 32 +
STACK CFI 2372c .cfa: sp 0 +
STACK CFI 23730 .cfa: sp 32 +
STACK CFI 23738 .cfa: sp 0 +
STACK CFI INIT 2373c 18 .cfa: sp 0 +
STACK CFI 23740 .cfa: sp 16 +
STACK CFI 23744 .cfa: x29 16 + .ra: .cfa -8 + ^ x29: .cfa -16 + ^
STACK CFI 2374c .cfa: sp 16 +
STACK CFI 23750 .cfa: sp 0 +
STACK CFI INIT 238e0 4 .cfa: sp 0 +
STACK CFI INIT 23f2c 4 .cfa: sp 0 +
STACK CFI INIT 23f30 8c .cfa: sp 0 +
STACK CFI 23f34 .cfa: sp 32 +
STACK CFI 23f3c .cfa: x29 32 + x19: .cfa -8 + ^ x20: .cfa -16 + ^ .ra: .cfa -24 + ^ x29: .cfa -32 + ^
STACK CFI 23f98 .cfa: sp 32 +
STACK CFI 23fa0 .cfa: sp 0 +
STACK CFI 23fa4 .cfa: sp 32 +
STACK CFI 23fac .cfa: sp 0 +
STACK CFI 23fb0 .cfa: sp 32 +
STACK CFI 23fb8 .cfa: sp 0 +
STACK CFI INIT 23fbc 38 .cfa: sp 0 +
STACK CFI INIT 242fc 4 .cfa: sp 0 +
STACK CFI INIT 24300 f8 .cfa: sp 0 +
STACK CFI 24304 .cfa: sp 80 +
STACK CFI 24318 .cfa: x29 64 + x19: .cfa -8 + ^ x20: .cfa -16 + ^ x21: .cfa -24 + ^ x22: .cfa -32 + ^ x23: .cfa -40 + ^ x24: .cfa -48 + ^ .ra: .cfa -56 + ^ x29: .cfa -64 + ^
STACK CFI 243dc .cfa: sp 80 +
STACK CFI 243f0 .cfa: sp 0 +
STACK CFI 243f4 .cfa: x29 64 +
STACK CFI INIT 245a4 78 .cfa: sp 0 +
STACK CFI 245a8 .cfa: sp 48 +
STACK CFI 245b4 .cfa: x29 48 + x19: .cfa -8 + ^ x20: .cfa -16 + ^ x21: .cfa -32 + ^ .ra: .cfa -40 + ^ x29: .cfa -48 + ^
STACK CFI 245fc .cfa: sp 48 +
STACK CFI 24608 .cfa: sp 0 +
STACK CFI 2460c .cfa: sp 48 +
STACK CFI 24618 .cfa: sp 0 +
STACK CFI INIT 249f8 4 .cfa: sp 0 +
STACK CFI INIT 25b7c 4c .cfa: sp 0 +
STACK CFI 25b80 .cfa: sp 32 +
STACK CFI 25b88 .cfa: x29 32 + x19: .cfa -8 + ^ x20: .cfa -16 + ^ .ra: .cfa -24 + ^ x29: .cfa -32 + ^
STACK CFI 25bb0 .cfa: sp 32 +
STACK CFI 25bb8 .cfa: sp 0 +
STACK CFI 25bbc .cfa: sp 32 +
STACK CFI 25bc4 .cfa: sp 0 +
STACK CFI INIT 25bc8 4c .cfa: sp 0 +
STACK CFI 25bcc .cfa: sp 32 +
STACK CFI 25bd4 .cfa: x29 32 + x19: .cfa -8 + ^ x20: .cfa -16 + ^ .ra: .cfa -24 + ^ x29: .cfa -32 + ^
STACK CFI 25bfc .cfa: sp 32 +
STACK CFI 25c04 .cfa: sp 0 +
STACK CFI 25c08 .cfa: sp 32 +
STACK CFI 25c10 .cfa: sp 0 +
STACK CFI INIT 26550 14 .cfa: sp 0 +
STACK CFI 26554 .cfa: sp 16 +
STACK CFI 26558 .cfa: x29 16 + .ra: .cfa -8 + ^ x29: .cfa -16 + ^
STACK CFI INIT 26564 590 .cfa: sp 0 +
STACK CFI 26568 .cfa: sp 48 +
STACK CFI 26574 .cfa: x29 48 + x19: .cfa -8 + ^ x20: .cfa -16 + ^ x21: .cfa -24 + ^ x22: .cfa -32 + ^ .ra: .cfa -40 + ^ x29: .cfa -48 + ^
STACK CFI 26ae0 .cfa: sp 48 +
STACK CFI 26aec .cfa: sp 0 +
STACK CFI 26af0 .cfa: x29 48 +
STACK CFI INIT 16de8 2c .cfa: sp 0 +
STACK CFI INIT 26af4 3c .cfa: sp 0 +
STACK CFI 26af8 .cfa: sp 32 +
STACK CFI 26b00 .cfa: x29 32 + x19: .cfa -16 + ^ .ra: .cfa -24 + ^ x29: .cfa -32 + ^
STACK CFI 26b0c .cfa: sp 32 +
STACK CFI 26b14 .cfa: sp 0 +
STACK CFI 26b18 .cfa: x29 32 +
STACK CFI 26b24 .cfa: sp 32 +
STACK CFI 26b2c .cfa: sp 0 +
STACK CFI INIT 26b30 4c .cfa: sp 0 +
STACK CFI 26b34 .cfa: sp 32 +
STACK CFI 26b3c .cfa: x29 32 + x19: .cfa -8 + ^ x20: .cfa -16 + ^ .ra: .cfa -24 + ^ x29: .cfa -32 + ^
STACK CFI 26b64 .cfa: sp 32 +
STACK CFI 26b6c .cfa: sp 0 +
STACK CFI 26b70 .cfa: sp 32 +
STACK CFI 26b78 .cfa: sp 0 +
STACK CFI INIT 26d9c 64 .cfa: sp 0 +
STACK CFI 26da0 .cfa: sp 32 +
STACK CFI 26da8 .cfa: x29 32 + x19: .cfa -16 + ^ .ra: .cfa -24 + ^ x29: .cfa -32 + ^
STACK CFI 26dd4 .cfa: sp 32 +
STACK CFI 26ddc .cfa: sp 0 +
STACK CFI 26de0 .cfa: x29 32 +
STACK CFI 26df4 .cfa: sp 32 +
STACK CFI 26dfc .cfa: sp 0 +
STACK CFI INIT 27024 24 .cfa: sp 0 +
STACK CFI 27028 .cfa: sp 32 +
STACK CFI 27030 .cfa: x29 32 + x19: .cfa -16 + ^ .ra: .cfa -24 + ^ x29: .cfa -32 + ^
STACK CFI 2703c .cfa: sp 32 +
STACK CFI 27044 .cfa: sp 0 +
STACK CFI INIT 27048 24 .cfa: sp 0 +
STACK CFI 2704c .cfa: sp 32 +
STACK CFI 27054 .cfa: x29 32 + x19: .cfa -16 + ^ .ra: .cfa -24 + ^ x29: .cfa -32 + ^
STACK CFI 27060 .cfa: sp 32 +
STACK CFI 27068 .cfa: sp 0 +
STACK CFI INIT 2706c 8 .cfa: sp 0 +
STACK CFI INIT 27074 24 .cfa: sp 0 +
STACK CFI 27078 .cfa: sp 32 +
STACK CFI 27080 .cfa: x29 32 + x19: .cfa -16 + ^ .ra: .cfa -24 + ^ x29: .cfa -32 + ^
STACK CFI 2708c .cfa: sp 32 +
STACK CFI 27094 .cfa: sp 0 +
STACK CFI INIT 27098 28 .cfa: sp 0 +
STACK CFI 2709c .cfa: sp 32 +
STACK CFI 270a4 .cfa: x29 32 + x19: .cfa -16 + ^ .ra: .cfa -24 + ^ x29: .cfa -32 + ^
STACK CFI 270b4 .cfa: sp 32 +
STACK CFI 270bc .cfa: sp 0 +
STACK CFI INIT 270c0 1f8 .cfa: sp 0 +
STACK CFI 270c4 .cfa: sp 112 +
STACK CFI 270e4 .cfa: x29 72 + x19: .cfa -8 + ^ x20: .cfa -16 + ^ x21: .cfa -24 + ^ x22: .cfa -32 + ^ x23: .cfa -40 + ^ x24: .cfa -48 + ^ x25: .cfa -56 + ^ .ra: .cfa -64 + ^ x29: .cfa -72 + ^ v8: .cfa -80 + ^ v9: .cfa -88 + ^ v10: .cfa -96 + ^
STACK CFI 27290 .cfa: sp 112 +
STACK CFI 272b0 .cfa: sp 0 +
STACK CFI 272b4 .cfa: x29 72 +
STACK CFI INIT 283d8 8 .cfa: sp 0 +
STACK CFI INIT 283e0 24 .cfa: sp 0 +
STACK CFI 283e4 .cfa: sp 32 +
STACK CFI 283ec .cfa: x29 32 + x19: .cfa -16 + ^ .ra: .cfa -24 + ^ x29: .cfa -32 + ^
STACK CFI 283f8 .cfa: sp 32 +
STACK CFI 28400 .cfa: sp 0 +
STACK CFI INIT 28404 28 .cfa: sp 0 +
STACK CFI 28408 .cfa: sp 32 +
STACK CFI 28410 .cfa: x29 32 + x19: .cfa -16 + ^ .ra: .cfa -24 + ^ x29: .cfa -32 + ^
STACK CFI 28420 .cfa: sp 32 +
STACK CFI 28428 .cfa: sp 0 +
STACK CFI INIT 28a44 8 .cfa: sp 0 +
STACK CFI INIT 29174 8 .cfa: sp 0 +
STACK CFI INIT 295ac 8 .cfa: sp 0 +
STACK CFI INIT 29808 4 .cfa: sp 0 +
STACK CFI INIT 2980c 8 .cfa: sp 0 +
STACK CFI INIT 29814 8 .cfa: sp 0 +
STACK CFI INIT 2981c 4 .cfa: sp 0 +
STACK CFI INIT 2ad3c 4 .cfa: sp 0 +
STACK CFI INIT 2ad40 4 .cfa: sp 0 +
STACK CFI INIT 2ad44 4 .cfa: sp 0 +
STACK CFI INIT 2ad48 4 .cfa: sp 0 +
STACK CFI INIT 2ba8c 4 .cfa: sp 0 +
STACK CFI INIT 2ba90 14 .cfa: sp 0 +
STACK CFI INIT 2bfb0 c .cfa: sp 0 +
STACK CFI INIT 2bfbc 24c .cfa: sp 0 +
STACK CFI INIT 2c208 a0 .cfa: sp 0 +
STACK CFI 2c214 .cfa: sp 32 +
STACK CFI 2c26c .cfa: sp 0 +
STACK CFI 2c270 .cfa: sp 32 +
STACK CFI 2c278 .cfa: sp 0 +
STACK CFI 2c27c .cfa: sp 32 +
STACK CFI 2c290 .cfa: sp 0 +
STACK CFI 2c294 .cfa: sp 32 +
STACK CFI 2c2a4 .cfa: sp 0 +
STACK CFI INIT 2c2a8 38 .cfa: sp 0 +
STACK CFI 2c2b4 .cfa: sp 32 +
STACK CFI 2c2dc .cfa: sp 0 +
STACK CFI INIT 2c574 7c .cfa: sp 0 +
STACK CFI 2c578 .cfa: sp 32 +
STACK CFI 2c580 .cfa: x29 32 + x19: .cfa -16 + ^ .ra: .cfa -24 + ^ x29: .cfa -32 + ^
STACK CFI 2c5ac .cfa: sp 32 +
STACK CFI 2c5b4 .cfa: sp 0 +
STACK CFI 2c5b8 .cfa: x29 32 +
STACK CFI 2c5e4 .cfa: sp 32 +
STACK CFI 2c5ec .cfa: sp 0 +
STACK CFI INIT 2c640 2c .cfa: sp 0 +
STACK CFI 2c644 .cfa: sp 32 +
STACK CFI 2c64c .cfa: x29 32 + x19: .cfa -16 + ^ .ra: .cfa -24 + ^ x29: .cfa -32 + ^
STACK CFI 2c660 .cfa: sp 32 +
STACK CFI 2c668 .cfa: sp 0 +
STACK CFI INIT 2ce2c 64 .cfa: sp 0 +
STACK CFI 2ce30 .cfa: sp 32 +
STACK CFI 2ce38 .cfa: x29 32 + x19: .cfa -16 + ^ .ra: .cfa -24 + ^ x29: .cfa -32 + ^
STACK CFI 2ce54 .cfa: sp 32 +
STACK CFI 2ce5c .cfa: sp 0 +
STACK CFI 2ce60 .cfa: x29 32 +
STACK CFI 2ce84 .cfa: sp 32 +
STACK CFI 2ce8c .cfa: sp 0 +
STACK CFI INIT 2ce90 570 .cfa: sp 0 +
STACK CFI 2ce94 .cfa: sp 176 +
STACK CFI 2cea8 .cfa: x29 64 + x19: .cfa -8 + ^ x20: .cfa -16 + ^ x21: .cfa -24 + ^ x22: .cfa -32 + ^ x23: .cfa -40 + ^ x24: .cfa -48 + ^ .ra: .cfa -56 + ^ x29: .cfa -64 + ^
STACK CFI 2d0d8 .cfa: sp 176 +
STACK CFI 2d0ec .cfa: sp 0 +
STACK CFI 2d0f0 .cfa: x29 64 +
STACK CFI 2d13c .cfa: sp 176 +
STACK CFI 2d150 .cfa: sp 0 +
STACK CFI 2d154 .cfa: x29 64 +
STACK CFI 2d18c .cfa: sp 176 +
STACK CFI 2d1a0 .cfa: sp 0 +
STACK CFI 2d1a4 .cfa: x29 64 +
STACK CFI 2d1bc .cfa: sp 176 +
STACK CFI 2d1d0 .cfa: sp 0 +
STACK CFI 2d1d4 .cfa: x29 64 +
STACK CFI 2d1f4 .cfa: sp 176 +
STACK CFI 2d208 .cfa: sp 0 +
STACK CFI 2d20c .cfa: x29 64 +
STACK CFI 2d224 .cfa: sp 176 +
STACK CFI 2d238 .cfa: sp 0 +
STACK CFI 2d23c .cfa: x29 64 +
STACK CFI 2d250 .cfa: sp 176 +
STACK CFI 2d264 .cfa: sp 0 +
STACK CFI 2d268 .cfa: x29 64 +
STACK CFI 2d27c .cfa: sp 176 +
STACK CFI 2d290 .cfa: sp 0 +
STACK CFI 2d294 .cfa: x29 64 +
STACK CFI 2d2a4 .cfa: sp 176 +
STACK CFI 2d2b8 .cfa: sp 0 +
STACK CFI 2d2bc .cfa: x29 64 +
STACK CFI 2d2cc .cfa: sp 176 +
STACK CFI 2d2e0 .cfa: sp 0 +
STACK CFI 2d2e4 .cfa: x29 64 +
STACK CFI 2d2fc .cfa: sp 176 +
STACK CFI 2d310 .cfa: sp 0 +
STACK CFI 2d314 .cfa: x29 64 +
STACK CFI 2d328 .cfa: sp 176 +
STACK CFI 2d33c .cfa: sp 0 +
STACK CFI 2d340 .cfa: x29 64 +
STACK CFI 2d358 .cfa: sp 176 +
STACK CFI 2d36c .cfa: sp 0 +
STACK CFI 2d370 .cfa: x29 64 +
STACK CFI 2d39c .cfa: sp 176 +
STACK CFI 2d3b0 .cfa: sp 0 +
STACK CFI 2d3b4 .cfa: x29 64 +
STACK CFI 2d3c8 .cfa: sp 176 +
STACK CFI 2d3dc .cfa: sp 0 +
STACK CFI 2d3e0 .cfa: x29 64 +
STACK CFI INIT 2d400 228 .cfa: sp 0 +
STACK CFI INIT 2d628 2dc .cfa: sp 0 +
STACK CFI INIT 2d904 53c .cfa: sp 0 +
STACK CFI INIT 2de40 78 .cfa: sp 0 +
STACK CFI 2de44 .cfa: sp 48 +
STACK CFI 2de50 .cfa: x29 48 + x19: .cfa -8 + ^ x20: .cfa -16 + ^ x21: .cfa -24 + ^ x22: .cfa -32 + ^ .ra: .cfa -40 + ^ x29: .cfa -48 + ^
STACK CFI 2de98 .cfa: sp 48 +
STACK CFI 2dea4 .cfa: sp 0 +
STACK CFI 2dea8 .cfa: sp 48 +
STACK CFI 2deb4 .cfa: sp 0 +
STACK CFI INIT 2deb8 8c .cfa: sp 0 +
STACK CFI 2debc .cfa: sp 32 +
STACK CFI 2dec4 .cfa: x29 32 + x19: .cfa -16 + ^ .ra: .cfa -24 + ^ x29: .cfa -32 + ^
STACK CFI 2def8 .cfa: sp 32 +
STACK CFI 2df00 .cfa: sp 0 +
STACK CFI 2df04 .cfa: x29 32 +
STACK CFI 2df38 .cfa: sp 32 +
STACK CFI 2df40 .cfa: sp 0 +
STACK CFI INIT 2df44 24 .cfa: sp 0 +
STACK CFI 2df48 .cfa: sp 32 +
STACK CFI 2df50 .cfa: x29 32 + x19: .cfa -16 + ^ .ra: .cfa -24 + ^ x29: .cfa -32 + ^
STACK CFI 2df5c .cfa: sp 32 +
STACK CFI 2df64 .cfa: sp 0 +
STACK CFI INIT 2df68 150 .cfa: sp 0 +
STACK CFI 2df6c .cfa: sp 48 +
STACK CFI 2df78 .cfa: x29 48 + x19: .cfa -8 + ^ x20: .cfa -16 + ^ x21: .cfa -24 + ^ x22: .cfa -32 + ^ .ra: .cfa -40 + ^ x29: .cfa -48 + ^
STACK CFI 2e0a8 .cfa: sp 48 +
STACK CFI 2e0b4 .cfa: sp 0 +
STACK CFI INIT 2e0b8 68 .cfa: sp 0 +
STACK CFI 2e0bc .cfa: sp 64 +
STACK CFI 2e0c8 .cfa: x29 32 + x19: .cfa -16 + ^ .ra: .cfa -24 + ^ x29: .cfa -32 + ^
STACK CFI 2e10c .cfa: sp 64 +
STACK CFI 2e118 .cfa: sp 0 +
STACK CFI 2e11c .cfa: x29 32 +
STACK CFI INIT 2e120 90 .cfa: sp 0 +
STACK CFI 2e124 .cfa: sp 32 +
STACK CFI 2e12c .cfa: x29 32 + x19: .cfa -8 + ^ x20: .cfa -16 + ^ .ra: .cfa -24 + ^ x29: .cfa -32 + ^
STACK CFI 2e158 .cfa: sp 32 +
STACK CFI 2e160 .cfa: sp 0 +
STACK CFI 2e164 .cfa: x29 32 +
STACK CFI 2e1a4 .cfa: sp 32 +
STACK CFI 2e1ac .cfa: sp 0 +
STACK CFI INIT 2e1b0 ec .cfa: sp 0 +
STACK CFI 2e1b4 .cfa: sp 112 +
STACK CFI 2e1c4 .cfa: x29 48 + x19: .cfa -8 + ^ x20: .cfa -16 + ^ x21: .cfa -32 + ^ .ra: .cfa -40 + ^ x29: .cfa -48 + ^
STACK CFI 2e284 .cfa: sp 112 +
STACK CFI 2e294 .cfa: sp 0 +
STACK CFI 2e298 .cfa: x29 48 +
STACK CFI INIT 2e29c ec .cfa: sp 0 +
STACK CFI 2e2a0 .cfa: sp 112 +
STACK CFI 2e2b0 .cfa: x29 48 + x19: .cfa -8 + ^ x20: .cfa -16 + ^ x21: .cfa -32 + ^ .ra: .cfa -40 + ^ x29: .cfa -48 + ^
STACK CFI 2e370 .cfa: sp 112 +
STACK CFI 2e380 .cfa: sp 0 +
STACK CFI 2e384 .cfa: x29 48 +
STACK CFI INIT 2e388 48 .cfa: sp 0 +
STACK CFI 2e38c .cfa: sp 32 +
STACK CFI 2e394 .cfa: x29 32 + x19: .cfa -8 + ^ x20: .cfa -16 + ^ .ra: .cfa -24 + ^ x29: .cfa -32 + ^
STACK CFI 2e3b8 .cfa: sp 32 +
STACK CFI 2e3c0 .cfa: sp 0 +
STACK CFI 2e3c4 .cfa: x29 32 +
STACK CFI INIT 2e3d0 98 .cfa: sp 0 +
STACK CFI 2e3d4 .cfa: sp 80 +
STACK CFI 2e3e0 .cfa: x29 32 + x19: .cfa -16 + ^ .ra: .cfa -24 + ^ x29: .cfa -32 + ^
STACK CFI 2e454 .cfa: sp 80 +
STACK CFI 2e460 .cfa: sp 0 +
STACK CFI 2e464 .cfa: x29 32 +
STACK CFI INIT 2e468 260 .cfa: sp 0 +
STACK CFI 2e46c .cfa: sp 112 +
STACK CFI 2e484 .cfa: x29 80 + x19: .cfa -8 + ^ x20: .cfa -16 + ^ x21: .cfa -24 + ^ x22: .cfa -32 + ^ x23: .cfa -40 + ^ x24: .cfa -48 + ^ x25: .cfa -64 + ^ .ra: .cfa -72 + ^ x29: .cfa -80 + ^
STACK CFI 2e668 .cfa: sp 112 +
STACK CFI 2e680 .cfa: sp 0 +
STACK CFI 2e684 .cfa: x29 80 +
STACK CFI INIT 2e6c8 150 .cfa: sp 0 +
STACK CFI 2e6cc .cfa: sp 48 +
STACK CFI 2e6d8 .cfa: x29 48 + x19: .cfa -8 + ^ x20: .cfa -16 + ^ x21: .cfa -24 + ^ x22: .cfa -32 + ^ .ra: .cfa -40 + ^ x29: .cfa -48 + ^
STACK CFI 2e808 .cfa: sp 48 +
STACK CFI 2e814 .cfa: sp 0 +
STACK CFI INIT 2e818 1e0 .cfa: sp 0 +
STACK CFI 2e81c .cfa: sp 96 +
STACK CFI 2e830 .cfa: x29 64 + x19: .cfa -8 + ^ x20: .cfa -16 + ^ x21: .cfa -24 + ^ x22: .cfa -32 + ^ x23: .cfa -40 + ^ x24: .cfa -48 + ^ .ra: .cfa -56 + ^ x29: .cfa -64 + ^
STACK CFI 2e9b0 .cfa: sp 96 +
STACK CFI 2e9c4 .cfa: sp 0 +
STACK CFI 2e9c8 .cfa: x29 64 +
STACK CFI INIT 2e9f8 284 .cfa: sp 0 +
STACK CFI 2e9fc .cfa: sp 112 +
STACK CFI 2ea14 .cfa: x29 80 + x19: .cfa -8 + ^ x20: .cfa -16 + ^ x21: .cfa -24 + ^ x22: .cfa -32 + ^ x23: .cfa -40 + ^ x24: .cfa -48 + ^ x25: .cfa -64 + ^ .ra: .cfa -72 + ^ x29: .cfa -80 + ^
STACK CFI 2ec1c .cfa: sp 112 +
STACK CFI 2ec34 .cfa: sp 0 +
STACK CFI 2ec38 .cfa: x29 80 +
STACK CFI INIT 2ec7c 208 .cfa: sp 0 +
STACK CFI 2ec80 .cfa: sp 96 +
STACK CFI 2ec94 .cfa: x29 64 + x19: .cfa -8 + ^ x20: .cfa -16 + ^ x21: .cfa -24 + ^ x22: .cfa -32 + ^ x23: .cfa -40 + ^ x24: .cfa -48 + ^ .ra: .cfa -56 + ^ x29: .cfa -64 + ^
STACK CFI 2ee3c .cfa: sp 96 +
STACK CFI 2ee50 .cfa: sp 0 +
STACK CFI 2ee54 .cfa: x29 64 +
STACK CFI INIT 2ee84 360 .cfa: sp 0 +
STACK CFI 2ee88 .cfa: sp 160 +
STACK CFI 2eea4 .cfa: x29 96 + x19: .cfa -8 + ^ x20: .cfa -16 + ^ x21: .cfa -24 + ^ x22: .cfa -32 + ^ x23: .cfa -40 + ^ x24: .cfa -48 + ^ x25: .cfa -56 + ^ x26: .cfa -64 + ^ x27: .cfa -72 + ^ x28: .cfa -80 + ^ .ra: .cfa -88 + ^ x29: .cfa -96 + ^
STACK CFI 2f170 .cfa: sp 160 +
STACK CFI 2f18c .cfa: sp 0 +
STACK CFI 2f190 .cfa: x29 96 +
STACK CFI INIT 2f1e4 314 .cfa: sp 0 +
STACK CFI 2f1e8 .cfa: sp 144 +
STACK CFI 2f204 .cfa: x29 96 + x19: .cfa -8 + ^ x20: .cfa -16 + ^ x21: .cfa -24 + ^ x22: .cfa -32 + ^ x23: .cfa -40 + ^ x24: .cfa -48 + ^ x25: .cfa -56 + ^ x26: .cfa -64 + ^ x27: .cfa -72 + ^ x28: .cfa -80 + ^ .ra: .cfa -88 + ^ x29: .cfa -96 + ^
STACK CFI 2f480 .cfa: sp 144 +
STACK CFI 2f49c .cfa: sp 0 +
STACK CFI 2f4a0 .cfa: x29 96 +
STACK CFI INIT 2f4f8 290 .cfa: sp 0 +
STACK CFI 2f4fc .cfa: sp 128 +
STACK CFI 2f514 .cfa: x29 80 + x19: .cfa -8 + ^ x20: .cfa -16 + ^ x21: .cfa -24 + ^ x22: .cfa -32 + ^ x23: .cfa -40 + ^ x24: .cfa -48 + ^ x25: .cfa -56 + ^ x26: .cfa -64 + ^ .ra: .cfa -72 + ^ x29: .cfa -80 + ^
STACK CFI 2f768 .cfa: sp 128 +
STACK CFI 2f780 .cfa: sp 0 +
STACK CFI 2f784 .cfa: x29 80 +
STACK CFI INIT 2f788 ddc .cfa: sp 0 +
STACK CFI 2f78c .cfa: sp 144 +
STACK CFI 2f7a8 .cfa: x29 96 + x19: .cfa -8 + ^ x20: .cfa -16 + ^ x21: .cfa -24 + ^ x22: .cfa -32 + ^ x23: .cfa -40 + ^ x24: .cfa -48 + ^ x25: .cfa -56 + ^ x26: .cfa -64 + ^ x27: .cfa -72 + ^ x28: .cfa -80 + ^ .ra: .cfa -88 + ^ x29: .cfa -96 + ^
STACK CFI 3043c .cfa: sp 144 +
STACK CFI 30458 .cfa: sp 0 +
STACK CFI 3045c .cfa: x29 96 +
STACK CFI INIT 30564 1d0 .cfa: sp 0 +
STACK CFI 30568 .cfa: sp 80 +
STACK CFI 3057c .cfa: x29 80 + x19: .cfa -8 + ^ x20: .cfa -16 + ^ x21: .cfa -24 + ^ x22: .cfa -32 + ^ x23: .cfa -40 + ^ x24: .cfa -48 + ^ x25: .cfa -64 + ^ .ra: .cfa -72 + ^ x29: .cfa -80 + ^
STACK CFI 3071c .cfa: sp 80 +
STACK CFI 30730 .cfa: sp 0 +
STACK CFI INIT 30734 23c .cfa: sp 0 +
STACK CFI 30738 .cfa: sp 112 +
STACK CFI 3074c .cfa: x29 64 + x19: .cfa -8 + ^ x20: .cfa -16 + ^ x21: .cfa -24 + ^ x22: .cfa -32 + ^ x23: .cfa -40 + ^ x24: .cfa -48 + ^ .ra: .cfa -56 + ^ x29: .cfa -64 + ^
STACK CFI 30928 .cfa: sp 112 +
STACK CFI 3093c .cfa: sp 0 +
STACK CFI 30940 .cfa: x29 64 +
STACK CFI INIT 30970 30c .cfa: sp 0 +
STACK CFI 30974 .cfa: sp 80 +
STACK CFI 30988 .cfa: x29 64 + x19: .cfa -8 + ^ x20: .cfa -16 + ^ x21: .cfa -24 + ^ x22: .cfa -32 + ^ x23: .cfa -40 + ^ x24: .cfa -48 + ^ .ra: .cfa -56 + ^ x29: .cfa -64 + ^
STACK CFI 30b04 .cfa: sp 80 +
STACK CFI 30b18 .cfa: sp 0 +
STACK CFI 30b1c .cfa: x29 64 +
STACK CFI INIT 30c7c 178 .cfa: sp 0 +
STACK CFI 30c80 .cfa: sp 80 +
STACK CFI 30c94 .cfa: x29 64 + x19: .cfa -8 + ^ x20: .cfa -16 + ^ x21: .cfa -24 + ^ x22: .cfa -32 + ^ x23: .cfa -40 + ^ x24: .cfa -48 + ^ .ra: .cfa -56 + ^ x29: .cfa -64 + ^
STACK CFI 30dd8 .cfa: sp 80 +
STACK CFI 30dec .cfa: sp 0 +
STACK CFI 30df0 .cfa: x29 64 +
STACK CFI INIT 30df4 178 .cfa: sp 0 +
STACK CFI 30df8 .cfa: sp 80 +
STACK CFI 30e0c .cfa: x29 64 + x19: .cfa -8 + ^ x20: .cfa -16 + ^ x21: .cfa -24 + ^ x22: .cfa -32 + ^ x23: .cfa -40 + ^ x24: .cfa -48 + ^ .ra: .cfa -56 + ^ x29: .cfa -64 + ^
STACK CFI 30f50 .cfa: sp 80 +
STACK CFI 30f64 .cfa: sp 0 +
STACK CFI 30f68 .cfa: x29 64 +
STACK CFI INIT 30f6c 240 .cfa: sp 0 +
STACK CFI 30f70 .cfa: sp 96 +
STACK CFI 30f88 .cfa: x29 96 + x19: .cfa -8 + ^ x20: .cfa -16 + ^ x21: .cfa -24 + ^ x22: .cfa -32 + ^ x23: .cfa -40 + ^ x24: .cfa -48 + ^ x25: .cfa -56 + ^ x26: .cfa -64 + ^ x27: .cfa -72 + ^ x28: .cfa -80 + ^ .ra: .cfa -88 + ^ x29: .cfa -96 + ^
STACK CFI 31190 .cfa: sp 96 +
STACK CFI 311a8 .cfa: sp 0 +
STACK CFI INIT 31e20 154 .cfa: sp 0 +
STACK CFI 31e24 .cfa: sp 96 +
STACK CFI 31e38 .cfa: x29 64 + x19: .cfa -8 + ^ x20: .cfa -16 + ^ x21: .cfa -24 + ^ x22: .cfa -32 + ^ x23: .cfa -48 + ^ .ra: .cfa -56 + ^ x29: .cfa -64 + ^
STACK CFI 31f18 .cfa: sp 96 +
STACK CFI 31f2c .cfa: sp 0 +
STACK CFI 31f30 .cfa: x29 64 +
STACK CFI INIT 321e0 44 .cfa: sp 0 +
STACK CFI 321e4 .cfa: sp 32 +
STACK CFI 321ec .cfa: x29 32 + x19: .cfa -16 + ^ .ra: .cfa -24 + ^ x29: .cfa -32 + ^
STACK CFI 32208 .cfa: sp 32 +
STACK CFI 32210 .cfa: sp 0 +
STACK CFI 32214 .cfa: x29 32 +
STACK CFI 32218 .cfa: sp 32 +
STACK CFI 32220 .cfa: sp 0 +
STACK CFI INIT 32224 1d0 .cfa: sp 0 +
STACK CFI 32228 .cfa: sp 64 +
STACK CFI 32238 .cfa: x29 64 + x19: .cfa -8 + ^ x20: .cfa -16 + ^ x21: .cfa -24 + ^ x22: .cfa -32 + ^ x23: .cfa -40 + ^ x24: .cfa -48 + ^ .ra: .cfa -56 + ^ x29: .cfa -64 + ^
STACK CFI 322f8 .cfa: sp 64 +
STACK CFI 32308 .cfa: sp 0 +
STACK CFI 3230c .cfa: x29 64 +
STACK CFI INIT 323f4 17c .cfa: sp 0 +
STACK CFI INIT 32570 ac .cfa: sp 0 +
STACK CFI 32574 .cfa: sp 64 +
STACK CFI 32584 .cfa: x29 64 + x19: .cfa -8 + ^ x20: .cfa -16 + ^ x21: .cfa -24 + ^ x22: .cfa -32 + ^ x23: .cfa -48 + ^ .ra: .cfa -56 + ^ x29: .cfa -64 + ^
STACK CFI 32600 .cfa: sp 64 +
STACK CFI 32610 .cfa: sp 0 +
STACK CFI 32614 .cfa: x29 64 +
STACK CFI INIT 3261c 110 .cfa: sp 0 +
STACK CFI 32620 .cfa: sp 64 +
STACK CFI 32630 .cfa: x29 64 + x19: .cfa -8 + ^ x20: .cfa -16 + ^ x21: .cfa -24 + ^ x22: .cfa -32 + ^ x23: .cfa -40 + ^ x24: .cfa -48 + ^ .ra: .cfa -56 + ^ x29: .cfa -64 + ^
STACK CFI 32710 .cfa: sp 64 +
STACK CFI 32720 .cfa: sp 0 +
STACK CFI 32724 .cfa: x29 64 +
STACK CFI INIT 32ae4 a0 .cfa: sp 0 +
STACK CFI 32ae8 .cfa: sp 48 +
STACK CFI 32af4 .cfa: x29 48 + x19: .cfa -8 + ^ x20: .cfa -16 + ^ x21: .cfa -24 + ^ x22: .cfa -32 + ^ .ra: .cfa -40 + ^ x29: .cfa -48 + ^
STACK CFI 32b60 .cfa: sp 48 +
STACK CFI 32b6c .cfa: sp 0 +
STACK CFI 32b70 .cfa: sp 48 +
STACK CFI 32b7c .cfa: sp 0 +
STACK CFI 32b80 .cfa: x29 48 +
STACK CFI INIT 33838 158 .cfa: sp 0 +
STACK CFI 3383c .cfa: sp 96 +
STACK CFI 33850 .cfa: x29 64 + x19: .cfa -8 + ^ x20: .cfa -16 + ^ x21: .cfa -24 + ^ x22: .cfa -32 + ^ x23: .cfa -48 + ^ .ra: .cfa -56 + ^ x29: .cfa -64 + ^
STACK CFI 33934 .cfa: sp 96 +
STACK CFI 33948 .cfa: sp 0 +
STACK CFI 3394c .cfa: x29 64 +
STACK CFI INIT 33990 190 .cfa: sp 0 +
STACK CFI INIT 3461c 1dc .cfa: sp 0 +
STACK CFI 34620 .cfa: sp 80 +
STACK CFI 34634 .cfa: x29 80 + x19: .cfa -8 + ^ x20: .cfa -16 + ^ x21: .cfa -24 + ^ x22: .cfa -32 + ^ x23: .cfa -40 + ^ x24: .cfa -48 + ^ x25: .cfa -64 + ^ .ra: .cfa -72 + ^ x29: .cfa -80 + ^
STACK CFI 347e0 .cfa: sp 80 +
STACK CFI 347f4 .cfa: sp 0 +
STACK CFI INIT 35c28 124 .cfa: sp 0 +
STACK CFI 35c58 .cfa: sp 32 +
STACK CFI 35c60 .cfa: x29 32 + x19: .cfa -8 + ^ x20: .cfa -16 + ^ .ra: .cfa -24 + ^ x29: .cfa -32 + ^
STACK CFI 35d40 .cfa: sp 32 +
STACK CFI 35d48 .cfa: sp 0 +
STACK CFI INIT 364a8 320 .cfa: sp 0 +
STACK CFI 364ac .cfa: sp 64 +
STACK CFI 364bc .cfa: x29 64 + x19: .cfa -8 + ^ x20: .cfa -16 + ^ x21: .cfa -24 + ^ x22: .cfa -32 + ^ x23: .cfa -40 + ^ x24: .cfa -48 + ^ .ra: .cfa -56 + ^ x29: .cfa -64 + ^
STACK CFI 36538 .cfa: sp 64 +
STACK CFI 36548 .cfa: sp 0 +
STACK CFI 3654c .cfa: x29 64 +
STACK CFI 36720 .cfa: sp 64 +
STACK CFI 36730 .cfa: sp 0 +
STACK CFI 36734 .cfa: x29 64 +
STACK CFI 36744 .cfa: sp 64 +
STACK CFI 36754 .cfa: sp 0 +
STACK CFI 36758 .cfa: x29 64 +
STACK CFI INIT 367c8 a0 .cfa: sp 0 +
STACK CFI 367cc .cfa: sp 48 +
STACK CFI 367d8 .cfa: x29 48 + x19: .cfa -8 + ^ x20: .cfa -16 + ^ x21: .cfa -24 + ^ x22: .cfa -32 + ^ .ra: .cfa -40 + ^ x29: .cfa -48 + ^
STACK CFI 36844 .cfa: sp 48 +
STACK CFI 36850 .cfa: sp 0 +
STACK CFI 36854 .cfa: sp 48 +
STACK CFI 36860 .cfa: sp 0 +
STACK CFI 36864 .cfa: x29 48 +
STACK CFI INIT 37718 160 .cfa: sp 0 +
STACK CFI 3771c .cfa: sp 64 +
STACK CFI 3772c .cfa: x29 64 + x19: .cfa -8 + ^ x20: .cfa -16 + ^ x21: .cfa -24 + ^ x22: .cfa -32 + ^ x23: .cfa -48 + ^ .ra: .cfa -56 + ^ x29: .cfa -64 + ^
STACK CFI 37824 .cfa: sp 64 +
STACK CFI 37834 .cfa: sp 0 +
STACK CFI 37838 .cfa: x29 64 +
STACK CFI INIT 37878 214 .cfa: sp 0 +
STACK CFI 3787c .cfa: sp 128 +
STACK CFI 37898 .cfa: x29 96 + x19: .cfa -8 + ^ x20: .cfa -16 + ^ x21: .cfa -24 + ^ x22: .cfa -32 + ^ x23: .cfa -40 + ^ x24: .cfa -48 + ^ x25: .cfa -56 + ^ x26: .cfa -64 + ^ x27: .cfa -80 + ^ .ra: .cfa -88 + ^ x29: .cfa -96 + ^
STACK CFI 37a14 .cfa: sp 128 +
STACK CFI 37a30 .cfa: sp 0 +
STACK CFI 37a34 .cfa: x29 96 +
STACK CFI INIT 39728 290 .cfa: sp 0 +
STACK CFI 3972c .cfa: sp 16 +
STACK CFI 39730 .cfa: x29 16 + .ra: .cfa -8 + ^ x29: .cfa -16 + ^
STACK CFI 397bc .cfa: sp 16 +
STACK CFI 397c0 .cfa: sp 0 +
STACK CFI 397c4 .cfa: x29 16 +
STACK CFI 39814 .cfa: sp 16 +
STACK CFI 39818 .cfa: sp 0 +
STACK CFI 3981c .cfa: x29 16 +
STACK CFI 39980 .cfa: sp 16 +
STACK CFI 39984 .cfa: sp 0 +
STACK CFI 39988 .cfa: x29 16 +
STACK CFI INIT 399b8 158 .cfa: sp 0 +
STACK CFI 399bc .cfa: sp 112 +
STACK CFI 399d8 .cfa: x29 96 + x19: .cfa -8 + ^ x20: .cfa -16 + ^ x21: .cfa -24 + ^ x22: .cfa -32 + ^ x23: .cfa -40 + ^ x24: .cfa -48 + ^ x25: .cfa -56 + ^ x26: .cfa -64 + ^ x27: .cfa -72 + ^ x28: .cfa -80 + ^ .ra: .cfa -88 + ^ x29: .cfa -96 + ^
STACK CFI 39ac0 .cfa: sp 112 +
STACK CFI 39ac4 .cfa: x29 96 +
STACK CFI 39acc .cfa: sp 112 +
STACK CFI 39ae8 .cfa: sp 0 +
STACK CFI 39aec .cfa: x29 96 +
STACK CFI 39b0c .cfa: sp 112 +
STACK CFI INIT 39b10 e54 .cfa: sp 0 +
STACK CFI 39b14 .cfa: sp 192 +
STACK CFI 39b30 .cfa: x29 96 + x19: .cfa -8 + ^ x20: .cfa -16 + ^ x21: .cfa -24 + ^ x22: .cfa -32 + ^ x23: .cfa -40 + ^ x24: .cfa -48 + ^ x25: .cfa -56 + ^ x26: .cfa -64 + ^ x27: .cfa -72 + ^ x28: .cfa -80 + ^ .ra: .cfa -88 + ^ x29: .cfa -96 + ^
STACK CFI 3a84c .cfa: sp 192 +
STACK CFI 3a868 .cfa: sp 0 +
STACK CFI 3a86c .cfa: x29 96 +
STACK CFI INIT 3a964 1068 .cfa: sp 0 +
STACK CFI 3a968 .cfa: sp 288 +
STACK CFI 3a984 .cfa: x29 96 + x19: .cfa -8 + ^ x20: .cfa -16 + ^ x21: .cfa -24 + ^ x22: .cfa -32 + ^ x23: .cfa -40 + ^ x24: .cfa -48 + ^ x25: .cfa -56 + ^ x26: .cfa -64 + ^ x27: .cfa -72 + ^ x28: .cfa -80 + ^ .ra: .cfa -88 + ^ x29: .cfa -96 + ^
STACK CFI 3b714 .cfa: sp 288 +
STACK CFI 3b730 .cfa: sp 0 +
STACK CFI 3b734 .cfa: x29 96 +
STACK CFI INIT 3b9cc 520 .cfa: sp 0 +
STACK CFI 3b9d0 .cfa: sp 144 +
STACK CFI 3b9ec .cfa: x29 96 + x19: .cfa -8 + ^ x20: .cfa -16 + ^ x21: .cfa -24 + ^ x22: .cfa -32 + ^ x23: .cfa -40 + ^ x24: .cfa -48 + ^ x25: .cfa -56 + ^ x26: .cfa -64 + ^ x27: .cfa -72 + ^ x28: .cfa -80 + ^ .ra: .cfa -88 + ^ x29: .cfa -96 + ^
STACK CFI 3bec8 .cfa: sp 144 +
STACK CFI 3bee4 .cfa: sp 0 +
STACK CFI 3bee8 .cfa: x29 96 +
STACK CFI INIT 3c88c 136c .cfa: sp 0 +
STACK CFI 3c890 .cfa: sp 224 +
STACK CFI 3c8ac .cfa: x29 96 + x19: .cfa -8 + ^ x20: .cfa -16 + ^ x21: .cfa -24 + ^ x22: .cfa -32 + ^ x23: .cfa -40 + ^ x24: .cfa -48 + ^ x25: .cfa -56 + ^ x26: .cfa -64 + ^ x27: .cfa -72 + ^ x28: .cfa -80 + ^ .ra: .cfa -88 + ^ x29: .cfa -96 + ^
STACK CFI 3dbd4 .cfa: sp 224 +
STACK CFI 3dbf0 .cfa: sp 0 +
STACK CFI 3dbf4 .cfa: x29 96 +
STACK CFI INIT 3dbf8 1b8 .cfa: sp 0 +
STACK CFI INIT 1564c 190 .cfa: sp 0 +
STACK CFI 15650 .cfa: sp 48 +
STACK CFI 1565c .cfa: x29 48 + x19: .cfa -8 + ^ x20: .cfa -16 + ^ x21: .cfa -32 + ^ .ra: .cfa -40 + ^ x29: .cfa -48 + ^
STACK CFI 157b0 .cfa: sp 48 +
STACK CFI 157bc .cfa: sp 0 +
STACK CFI 157c0 .cfa: x29 48 +
STACK CFI INIT 157dc 484 .cfa: sp 0 +
STACK CFI 157e0 .cfa: sp 224 +
STACK CFI 157fc .cfa: x29 96 + x19: .cfa -8 + ^ x20: .cfa -16 + ^ x21: .cfa -24 + ^ x22: .cfa -32 + ^ x23: .cfa -40 + ^ x24: .cfa -48 + ^ x25: .cfa -56 + ^ x26: .cfa -64 + ^ x27: .cfa -72 + ^ x28: .cfa -80 + ^ .ra: .cfa -88 + ^ x29: .cfa -96 + ^
STACK CFI 15a6c .cfa: sp 224 +
STACK CFI 15a88 .cfa: sp 0 +
STACK CFI 15a8c .cfa: x29 96 +
STACK CFI 15b58 .cfa: sp 224 +
STACK CFI 15b74 .cfa: sp 0 +
STACK CFI 15b78 .cfa: x29 96 +
STACK CFI INIT 15c78 45c .cfa: sp 0 +
STACK CFI 15c7c .cfa: sp 224 +
STACK CFI 15c98 .cfa: x29 96 + x19: .cfa -8 + ^ x20: .cfa -16 + ^ x21: .cfa -24 + ^ x22: .cfa -32 + ^ x23: .cfa -40 + ^ x24: .cfa -48 + ^ x25: .cfa -56 + ^ x26: .cfa -64 + ^ x27: .cfa -72 + ^ x28: .cfa -80 + ^ .ra: .cfa -88 + ^ x29: .cfa -96 + ^
STACK CFI 15fbc .cfa: sp 224 +
STACK CFI 15fd8 .cfa: sp 0 +
STACK CFI 15fdc .cfa: x29 96 +
STACK CFI INIT 16e2c 484 .cfa: sp 0 +
STACK CFI 16e30 .cfa: sp 224 +
STACK CFI 16e4c .cfa: x29 96 + x19: .cfa -8 + ^ x20: .cfa -16 + ^ x21: .cfa -24 + ^ x22: .cfa -32 + ^ x23: .cfa -40 + ^ x24: .cfa -48 + ^ x25: .cfa -56 + ^ x26: .cfa -64 + ^ x27: .cfa -72 + ^ x28: .cfa -80 + ^ .ra: .cfa -88 + ^ x29: .cfa -96 + ^
STACK CFI 170bc .cfa: sp 224 +
STACK CFI 170d8 .cfa: sp 0 +
STACK CFI 170dc .cfa: x29 96 +
STACK CFI 171a8 .cfa: sp 224 +
STACK CFI 171c4 .cfa: sp 0 +
STACK CFI 171c8 .cfa: x29 96 +
STACK CFI INIT 160d4 45c .cfa: sp 0 +
STACK CFI 160d8 .cfa: sp 224 +
STACK CFI 160f4 .cfa: x29 96 + x19: .cfa -8 + ^ x20: .cfa -16 + ^ x21: .cfa -24 + ^ x22: .cfa -32 + ^ x23: .cfa -40 + ^ x24: .cfa -48 + ^ x25: .cfa -56 + ^ x26: .cfa -64 + ^ x27: .cfa -72 + ^ x28: .cfa -80 + ^ .ra: .cfa -88 + ^ x29: .cfa -96 + ^
STACK CFI 16418 .cfa: sp 224 +
STACK CFI 16434 .cfa: sp 0 +
STACK CFI 16438 .cfa: x29 96 +
STACK CFI INIT 16530 45c .cfa: sp 0 +
STACK CFI 16534 .cfa: sp 224 +
STACK CFI 16550 .cfa: x29 96 + x19: .cfa -8 + ^ x20: .cfa -16 + ^ x21: .cfa -24 + ^ x22: .cfa -32 + ^ x23: .cfa -40 + ^ x24: .cfa -48 + ^ x25: .cfa -56 + ^ x26: .cfa -64 + ^ x27: .cfa -72 + ^ x28: .cfa -80 + ^ .ra: .cfa -88 + ^ x29: .cfa -96 + ^
STACK CFI 16874 .cfa: sp 224 +
STACK CFI 16890 .cfa: sp 0 +
STACK CFI 16894 .cfa: x29 96 +
STACK CFI INIT 1698c 45c .cfa: sp 0 +
STACK CFI 16990 .cfa: sp 224 +
STACK CFI 169ac .cfa: x29 96 + x19: .cfa -8 + ^ x20: .cfa -16 + ^ x21: .cfa -24 + ^ x22: .cfa -32 + ^ x23: .cfa -40 + ^ x24: .cfa -48 + ^ x25: .cfa -56 + ^ x26: .cfa -64 + ^ x27: .cfa -72 + ^ x28: .cfa -80 + ^ .ra: .cfa -88 + ^ x29: .cfa -96 + ^
STACK CFI 16cd0 .cfa: sp 224 +
STACK CFI 16cec .cfa: sp 0 +
STACK CFI 16cf0 .cfa: x29 96 +
STACK CFI INIT 17374 680 .cfa: sp 0 +
STACK CFI 17378 .cfa: sp 288 +
STACK CFI 17394 .cfa: x29 96 + x19: .cfa -8 + ^ x20: .cfa -16 + ^ x21: .cfa -24 + ^ x22: .cfa -32 + ^ x23: .cfa -40 + ^ x24: .cfa -48 + ^ x25: .cfa -56 + ^ x26: .cfa -64 + ^ x28: .cfa -80 + ^ .ra: .cfa -88 + ^ x29: .cfa -96 + ^
STACK CFI 17800 .cfa: sp 288 +
STACK CFI 1781c .cfa: sp 0 +
STACK CFI 17820 .cfa: x29 96 +
STACK CFI INIT 17a44 74 .cfa: sp 0 +
STACK CFI 17a48 .cfa: sp 48 +
STACK CFI 17a54 .cfa: x29 32 + x19: .cfa -8 + ^ x20: .cfa -16 + ^ .ra: .cfa -24 + ^ x29: .cfa -32 + ^
STACK CFI 17aa0 .cfa: sp 48 +
STACK CFI 17aac .cfa: sp 0 +
STACK CFI 17ab0 .cfa: x29 32 +
STACK CFI INIT 17b38 154 .cfa: sp 0 +
STACK CFI 17b3c .cfa: sp 384 +
STACK CFI 17b50 .cfa: x29 64 + x19: .cfa -8 + ^ x20: .cfa -16 + ^ x21: .cfa -24 + ^ x22: .cfa -32 + ^ x23: .cfa -40 + ^ x28: .cfa -48 + ^ .ra: .cfa -56 + ^ x29: .cfa -64 + ^
STACK CFI 17c34 .cfa: sp 384 +
STACK CFI 17c48 .cfa: sp 0 +
STACK CFI 17c4c .cfa: x29 64 +
STACK CFI INIT 17cc0 12c .cfa: sp 0 +
STACK CFI 17cc4 .cfa: sp 80 +
STACK CFI 17cd8 .cfa: x29 80 + x19: .cfa -8 + ^ x20: .cfa -16 + ^ x21: .cfa -24 + ^ x22: .cfa -32 + ^ x23: .cfa -40 + ^ x24: .cfa -48 + ^ x25: .cfa -56 + ^ x26: .cfa -64 + ^ .ra: .cfa -72 + ^ x29: .cfa -80 + ^
STACK CFI 17da0 .cfa: sp 80 +
STACK CFI 17db4 .cfa: sp 0 +
STACK CFI 17db8 .cfa: x29 80 +
STACK CFI INIT 17e90 1a4 .cfa: sp 0 +
STACK CFI 17e94 .cfa: sp 112 +
STACK CFI 17eac .cfa: x29 80 + x19: .cfa -8 + ^ x20: .cfa -16 + ^ x21: .cfa -24 + ^ x22: .cfa -32 + ^ x23: .cfa -40 + ^ x24: .cfa -48 + ^ x25: .cfa -56 + ^ x26: .cfa -64 + ^ .ra: .cfa -72 + ^ x29: .cfa -80 + ^
STACK CFI 17f9c .cfa: sp 112 +
STACK CFI 17fb4 .cfa: sp 0 +
STACK CFI 17fb8 .cfa: x29 80 +
STACK CFI INIT 18034 1dc .cfa: sp 0 +
STACK CFI 18038 .cfa: sp 128 +
STACK CFI 18054 .cfa: x29 96 + x19: .cfa -8 + ^ x20: .cfa -16 + ^ x21: .cfa -24 + ^ x22: .cfa -32 + ^ x23: .cfa -40 + ^ x24: .cfa -48 + ^ x25: .cfa -56 + ^ x26: .cfa -64 + ^ x27: .cfa -80 + ^ .ra: .cfa -88 + ^ x29: .cfa -96 + ^
STACK CFI 181c0 .cfa: sp 128 +
STACK CFI 181dc .cfa: sp 0 +
STACK CFI 181e0 .cfa: x29 96 +
STACK CFI INIT 18224 50 .cfa: sp 0 +
STACK CFI 18228 .cfa: sp 32 +
STACK CFI 18230 .cfa: x29 32 + x19: .cfa -8 + ^ x20: .cfa -16 + ^ .ra: .cfa -24 + ^ x29: .cfa -32 + ^
STACK CFI INIT 182d8 178 .cfa: sp 0 +
STACK CFI 182dc .cfa: sp 80 +
STACK CFI 182f0 .cfa: x29 80 + x19: .cfa -8 + ^ x20: .cfa -16 + ^ x21: .cfa -24 + ^ x22: .cfa -32 + ^ x23: .cfa -40 + ^ x24: .cfa -48 + ^ x25: .cfa -64 + ^ .ra: .cfa -72 + ^ x29: .cfa -80 + ^
STACK CFI 1841c .cfa: sp 80 +
STACK CFI 18430 .cfa: sp 0 +
STACK CFI 18434 .cfa: x29 80 +
STACK CFI INIT 18598 224 .cfa: sp 0 +
STACK CFI 1859c .cfa: sp 128 +
STACK CFI 185b4 .cfa: x29 80 + x19: .cfa -8 + ^ x20: .cfa -16 + ^ x21: .cfa -24 + ^ x22: .cfa -32 + ^ x23: .cfa -40 + ^ x24: .cfa -48 + ^ x25: .cfa -64 + ^ .ra: .cfa -72 + ^ x29: .cfa -80 + ^
STACK CFI 18750 .cfa: sp 128 +
STACK CFI 18768 .cfa: sp 0 +
STACK CFI 1876c .cfa: x29 80 +
STACK CFI INIT 18fe8 337c .cfa: sp 0 +
STACK CFI 18fec .cfa: sp 144 +
STACK CFI 19010 .cfa: x29 96 + x19: .cfa -8 + ^ x20: .cfa -16 + ^ x21: .cfa -24 + ^ x22: .cfa -32 + ^ x23: .cfa -40 + ^ x24: .cfa -48 + ^ x25: .cfa -56 + ^ x26: .cfa -64 + ^ x27: .cfa -72 + ^ x28: .cfa -80 + ^ .ra: .cfa -88 + ^ x29: .cfa -96 + ^ v8: .cfa -104 + ^ v9: .cfa -112 + ^ v10: .cfa -120 + ^ v11: .cfa -128 + ^ v12: .cfa -144 + ^
STACK CFI 1c18c .cfa: sp 144 +
STACK CFI 1c1b0 .cfa: sp 0 +
STACK CFI 1c1b4 .cfa: x29 96 +
STACK CFI INIT 1c6b4 4ac .cfa: sp 0 +
STACK CFI 1c6b8 .cfa: sp 288 +
STACK CFI 1c6d0 .cfa: x29 64 + x19: .cfa -8 + ^ x20: .cfa -16 + ^ x21: .cfa -24 + ^ x22: .cfa -32 + ^ x23: .cfa -40 + ^ x28: .cfa -48 + ^ .ra: .cfa -56 + ^ x29: .cfa -64 + ^ v8: .cfa -80 + ^
STACK CFI 1ca2c .cfa: sp 288 +
STACK CFI 1ca44 .cfa: sp 0 +
STACK CFI 1ca48 .cfa: x29 64 +
STACK CFI INIT 1cb60 190 .cfa: sp 0 +
STACK CFI 1cb64 .cfa: sp 112 +
STACK CFI 1cb74 .cfa: x29 48 + x19: .cfa -8 + ^ x20: .cfa -16 + ^ x21: .cfa -32 + ^ .ra: .cfa -40 + ^ x29: .cfa -48 + ^
STACK CFI 1cc48 .cfa: sp 112 +
STACK CFI 1cc58 .cfa: sp 0 +
STACK CFI 1cc5c .cfa: x29 48 +
STACK CFI INIT 1ccf0 444 .cfa: sp 0 +
STACK CFI 1ccf4 .cfa: sp 176 +
STACK CFI 1cd10 .cfa: x29 96 + x19: .cfa -8 + ^ x20: .cfa -16 + ^ x21: .cfa -24 + ^ x22: .cfa -32 + ^ x23: .cfa -40 + ^ x24: .cfa -48 + ^ x25: .cfa -56 + ^ x26: .cfa -64 + ^ x27: .cfa -72 + ^ x28: .cfa -80 + ^ .ra: .cfa -88 + ^ x29: .cfa -96 + ^
STACK CFI 1cd50 .cfa: sp 176 +
STACK CFI 1cd6c .cfa: sp 0 +
STACK CFI 1cd70 .cfa: x29 96 +
STACK CFI INIT 1d134 10c .cfa: sp 0 +
STACK CFI 1d138 .cfa: sp 64 +
STACK CFI 1d148 .cfa: x29 64 + x19: .cfa -8 + ^ x20: .cfa -16 + ^ x21: .cfa -24 + ^ x22: .cfa -32 + ^ x23: .cfa -48 + ^ .ra: .cfa -56 + ^ x29: .cfa -64 + ^
STACK CFI 1d220 .cfa: sp 64 +
STACK CFI 1d230 .cfa: sp 0 +
STACK CFI 1d234 .cfa: x29 64 +
STACK CFI INIT 1d278 50 .cfa: sp 0 +
STACK CFI 1d27c .cfa: sp 32 +
STACK CFI 1d284 .cfa: x29 32 + x19: .cfa -8 + ^ x20: .cfa -16 + ^ .ra: .cfa -24 + ^ x29: .cfa -32 + ^
STACK CFI INIT 1d674 4bc .cfa: sp 0 +
STACK CFI 1d678 .cfa: sp 96 +
STACK CFI 1d690 .cfa: x29 96 + x19: .cfa -8 + ^ x20: .cfa -16 + ^ x21: .cfa -24 + ^ x22: .cfa -32 + ^ x23: .cfa -40 + ^ x24: .cfa -48 + ^ x25: .cfa -56 + ^ x26: .cfa -64 + ^ x27: .cfa -72 + ^ x28: .cfa -80 + ^ .ra: .cfa -88 + ^ x29: .cfa -96 + ^
STACK CFI 1d790 .cfa: sp 96 +
STACK CFI 1d7a8 .cfa: sp 0 +
STACK CFI 1d7ac .cfa: x29 96 +
STACK CFI 1da58 .cfa: sp 96 +
STACK CFI 1da70 .cfa: sp 0 +
STACK CFI 1da74 .cfa: x29 96 +
STACK CFI INIT 1df3c 314 .cfa: sp 0 +
STACK CFI 1df40 .cfa: sp 80 +
STACK CFI 1df54 .cfa: x29 80 + x19: .cfa -8 + ^ x20: .cfa -16 + ^ x21: .cfa -24 + ^ x22: .cfa -32 + ^ x23: .cfa -40 + ^ x24: .cfa -48 + ^ x25: .cfa -56 + ^ x26: .cfa -64 + ^ .ra: .cfa -72 + ^ x29: .cfa -80 + ^
STACK CFI 1e224 .cfa: sp 80 +
STACK CFI 1e238 .cfa: sp 0 +
STACK CFI 1e23c .cfa: x29 80 +
STACK CFI INIT 1e82c 16c .cfa: sp 0 +
STACK CFI 1e830 .cfa: sp 112 +
STACK CFI 1e840 .cfa: x29 48 + x19: .cfa -8 + ^ x20: .cfa -16 + ^ x21: .cfa -32 + ^ .ra: .cfa -40 + ^ x29: .cfa -48 + ^
STACK CFI 1e90c .cfa: sp 112 +
STACK CFI 1e91c .cfa: sp 0 +
STACK CFI 1e920 .cfa: x29 48 +
STACK CFI INIT 1ea18 16c .cfa: sp 0 +
STACK CFI 1ea1c .cfa: sp 112 +
STACK CFI 1ea2c .cfa: x29 48 + x19: .cfa -8 + ^ x20: .cfa -16 + ^ x21: .cfa -32 + ^ .ra: .cfa -40 + ^ x29: .cfa -48 + ^
STACK CFI 1eaf8 .cfa: sp 112 +
STACK CFI 1eb08 .cfa: sp 0 +
STACK CFI 1eb0c .cfa: x29 48 +
STACK CFI INIT 1ebac 314 .cfa: sp 0 +
STACK CFI 1ebb0 .cfa: sp 80 +
STACK CFI 1ebc4 .cfa: x29 80 + x19: .cfa -8 + ^ x20: .cfa -16 + ^ x21: .cfa -24 + ^ x22: .cfa -32 + ^ x23: .cfa -40 + ^ x24: .cfa -48 + ^ x25: .cfa -56 + ^ x26: .cfa -64 + ^ .ra: .cfa -72 + ^ x29: .cfa -80 + ^
STACK CFI 1ee94 .cfa: sp 80 +
STACK CFI 1eea8 .cfa: sp 0 +
STACK CFI 1eeac .cfa: x29 80 +
STACK CFI INIT 1f1d8 98c .cfa: sp 0 +
STACK CFI 1f1dc .cfa: sp 256 +
STACK CFI 1f1f4 .cfa: x29 80 + x19: .cfa -8 + ^ x20: .cfa -16 + ^ x21: .cfa -24 + ^ x22: .cfa -32 + ^ x23: .cfa -40 + ^ x24: .cfa -48 + ^ x25: .cfa -56 + ^ x26: .cfa -64 + ^ .ra: .cfa -72 + ^ x29: .cfa -80 + ^
STACK CFI 1f8a0 .cfa: sp 256 +
STACK CFI 1f8b8 .cfa: sp 0 +
STACK CFI 1f8bc .cfa: x29 80 +
STACK CFI INIT 1fbf0 184 .cfa: sp 0 +
STACK CFI 1fbf4 .cfa: sp 160 +
STACK CFI 1fc0c .cfa: x29 80 + x19: .cfa -8 + ^ x20: .cfa -16 + ^ x21: .cfa -24 + ^ x22: .cfa -32 + ^ x23: .cfa -40 + ^ x24: .cfa -48 + ^ x25: .cfa -56 + ^ x26: .cfa -64 + ^ .ra: .cfa -72 + ^ x29: .cfa -80 + ^
STACK CFI 1fd0c .cfa: sp 160 +
STACK CFI 1fd24 .cfa: sp 0 +
STACK CFI 1fd28 .cfa: x29 80 +
STACK CFI INIT 20600 c8 .cfa: sp 0 +
STACK CFI 20604 .cfa: sp 32 +
STACK CFI 2060c .cfa: x29 32 + x19: .cfa -8 + ^ x20: .cfa -16 + ^ .ra: .cfa -24 + ^ x29: .cfa -32 + ^
STACK CFI 20640 .cfa: sp 32 +
STACK CFI 20648 .cfa: sp 0 +
STACK CFI 2064c .cfa: x29 32 +
STACK CFI 20650 .cfa: sp 32 +
STACK CFI 20658 .cfa: sp 0 +
STACK CFI 2065c .cfa: x29 32 +
STACK CFI INIT 206c8 7b0 .cfa: sp 0 +
STACK CFI 206cc .cfa: sp 80 +
STACK CFI 206e0 .cfa: x29 80 + x19: .cfa -8 + ^ x20: .cfa -16 + ^ x21: .cfa -24 + ^ x22: .cfa -32 + ^ x23: .cfa -40 + ^ x24: .cfa -48 + ^ x25: .cfa -56 + ^ x26: .cfa -64 + ^ .ra: .cfa -72 + ^ x29: .cfa -80 + ^
STACK CFI 20afc .cfa: sp 80 +
STACK CFI 20b10 .cfa: sp 0 +
STACK CFI 20b14 .cfa: x29 80 +
STACK CFI INIT 20e78 578 .cfa: sp 0 +
STACK CFI 20e7c .cfa: sp 96 +
STACK CFI 20e90 .cfa: x29 64 + x19: .cfa -8 + ^ x20: .cfa -16 + ^ x21: .cfa -24 + ^ x22: .cfa -32 + ^ x23: .cfa -48 + ^ .ra: .cfa -56 + ^ x29: .cfa -64 + ^
STACK CFI 21230 .cfa: sp 96 +
STACK CFI 21244 .cfa: sp 0 +
STACK CFI 21248 .cfa: x29 64 +
STACK CFI INIT 21564 1c .cfa: sp 0 +
STACK CFI 21568 .cfa: sp 16 +
STACK CFI 2156c .cfa: x29 16 + .ra: .cfa -8 + ^ x29: .cfa -16 + ^
STACK CFI 21574 .cfa: sp 16 +
STACK CFI 21578 .cfa: sp 0 +
STACK CFI 2157c .cfa: x29 16 +
STACK CFI INIT 2188c 3f8 .cfa: sp 0 +
STACK CFI 21890 .cfa: sp 48 +
STACK CFI 2189c .cfa: x29 48 + x19: .cfa -8 + ^ x20: .cfa -16 + ^ x21: .cfa -24 + ^ x22: .cfa -32 + ^ .ra: .cfa -40 + ^ x29: .cfa -48 + ^
STACK CFI 21c04 .cfa: sp 48 +
STACK CFI 21c10 .cfa: sp 0 +
STACK CFI 21c14 .cfa: x29 48 +
STACK CFI 21c64 .cfa: sp 48 +
STACK CFI 21c70 .cfa: sp 0 +
STACK CFI 21c74 .cfa: x29 48 +
STACK CFI INIT 21cfc 1c .cfa: sp 0 +
STACK CFI 21d00 .cfa: sp 16 +
STACK CFI 21d04 .cfa: x29 16 + .ra: .cfa -8 + ^ x29: .cfa -16 + ^
STACK CFI 21d0c .cfa: sp 16 +
STACK CFI 21d10 .cfa: sp 0 +
STACK CFI 21d14 .cfa: x29 16 +
STACK CFI INIT 21da8 98 .cfa: sp 0 +
STACK CFI 21dac .cfa: sp 48 +
STACK CFI 21db8 .cfa: x29 48 + x19: .cfa -8 + ^ x20: .cfa -16 + ^ x21: .cfa -32 + ^ .ra: .cfa -40 + ^ x29: .cfa -48 + ^
STACK CFI 21e18 .cfa: sp 48 +
STACK CFI 21e24 .cfa: sp 0 +
STACK CFI 21e28 .cfa: sp 48 +
STACK CFI 21e34 .cfa: sp 0 +
STACK CFI 21e38 .cfa: x29 48 +
STACK CFI INIT 21e7c 1c .cfa: sp 0 +
STACK CFI 21e80 .cfa: sp 16 +
STACK CFI 21e84 .cfa: x29 16 + .ra: .cfa -8 + ^ x29: .cfa -16 + ^
STACK CFI 21e8c .cfa: sp 16 +
STACK CFI 21e90 .cfa: sp 0 +
STACK CFI 21e94 .cfa: x29 16 +
STACK CFI INIT 21e98 1c .cfa: sp 0 +
STACK CFI 21e9c .cfa: sp 16 +
STACK CFI 21ea0 .cfa: x29 16 + .ra: .cfa -8 + ^ x29: .cfa -16 + ^
STACK CFI 21ea8 .cfa: sp 16 +
STACK CFI 21eac .cfa: sp 0 +
STACK CFI 21eb0 .cfa: x29 16 +
STACK CFI INIT 22094 1cc .cfa: sp 0 +
STACK CFI 22098 .cfa: sp 160 +
STACK CFI 220b0 .cfa: x29 80 + x19: .cfa -8 + ^ x20: .cfa -16 + ^ x21: .cfa -24 + ^ x22: .cfa -32 + ^ x23: .cfa -40 + ^ x24: .cfa -48 + ^ x25: .cfa -56 + ^ x26: .cfa -64 + ^ .ra: .cfa -72 + ^ x29: .cfa -80 + ^
STACK CFI 2220c .cfa: sp 160 +
STACK CFI 22224 .cfa: sp 0 +
STACK CFI 22228 .cfa: x29 80 +
STACK CFI INIT 22618 1a0 .cfa: sp 0 +
STACK CFI 2261c .cfa: sp 64 +
STACK CFI 2262c .cfa: x29 64 + x19: .cfa -8 + ^ x20: .cfa -16 + ^ x21: .cfa -24 + ^ x22: .cfa -32 + ^ x23: .cfa -48 + ^ .ra: .cfa -56 + ^ x29: .cfa -64 + ^
STACK CFI 226f0 .cfa: sp 64 +
STACK CFI 22700 .cfa: sp 0 +
STACK CFI 22704 .cfa: x29 64 +
STACK CFI INIT 22dec a8 .cfa: sp 0 +
STACK CFI 22df0 .cfa: sp 64 +
STACK CFI 22e00 .cfa: x29 64 + x19: .cfa -8 + ^ x20: .cfa -16 + ^ x21: .cfa -24 + ^ x22: .cfa -32 + ^ x23: .cfa -40 + ^ x24: .cfa -48 + ^ .ra: .cfa -56 + ^ x29: .cfa -64 + ^
STACK CFI 22e24 .cfa: sp 64 +
STACK CFI 22e34 .cfa: sp 0 +
STACK CFI 22e38 .cfa: x29 64 +
STACK CFI INIT 22fe4 c8 .cfa: sp 0 +
STACK CFI 22fe8 .cfa: sp 32 +
STACK CFI 22ff0 .cfa: x29 32 + x19: .cfa -8 + ^ x20: .cfa -16 + ^ .ra: .cfa -24 + ^ x29: .cfa -32 + ^
STACK CFI 23024 .cfa: sp 32 +
STACK CFI 2302c .cfa: sp 0 +
STACK CFI 23030 .cfa: x29 32 +
STACK CFI 23034 .cfa: sp 32 +
STACK CFI 2303c .cfa: sp 0 +
STACK CFI 23040 .cfa: x29 32 +
STACK CFI INIT 230ac 42c .cfa: sp 0 +
STACK CFI 230b0 .cfa: sp 144 +
STACK CFI 230c4 .cfa: x29 64 + x19: .cfa -8 + ^ x20: .cfa -16 + ^ x21: .cfa -24 + ^ x22: .cfa -32 + ^ x23: .cfa -40 + ^ x24: .cfa -48 + ^ .ra: .cfa -56 + ^ x29: .cfa -64 + ^
STACK CFI 23390 .cfa: sp 144 +
STACK CFI 233a4 .cfa: sp 0 +
STACK CFI 233a8 .cfa: x29 64 +
STACK CFI INIT 234dc 134 .cfa: sp 0 +
STACK CFI 234e0 .cfa: sp 128 +
STACK CFI 234f4 .cfa: x29 64 + x19: .cfa -8 + ^ x20: .cfa -16 + ^ x21: .cfa -24 + ^ x22: .cfa -32 + ^ x23: .cfa -40 + ^ x24: .cfa -48 + ^ .ra: .cfa -56 + ^ x29: .cfa -64 + ^
STACK CFI 235c0 .cfa: sp 128 +
STACK CFI 235d4 .cfa: sp 0 +
STACK CFI 235d8 .cfa: x29 64 +
STACK CFI INIT 23754 18c .cfa: sp 0 +
STACK CFI 23758 .cfa: sp 112 +
STACK CFI 23768 .cfa: x29 48 + x19: .cfa -8 + ^ x20: .cfa -16 + ^ x21: .cfa -32 + ^ .ra: .cfa -40 + ^ x29: .cfa -48 + ^
STACK CFI 23834 .cfa: sp 112 +
STACK CFI 23844 .cfa: sp 0 +
STACK CFI 23848 .cfa: x29 48 +
STACK CFI INIT 238e4 648 .cfa: sp 0 +
STACK CFI 238e8 .cfa: sp 240 +
STACK CFI 23900 .cfa: x29 80 + x19: .cfa -8 + ^ x20: .cfa -16 + ^ x21: .cfa -24 + ^ x22: .cfa -32 + ^ x23: .cfa -40 + ^ x24: .cfa -48 + ^ x25: .cfa -56 + ^ x26: .cfa -64 + ^ .ra: .cfa -72 + ^ x29: .cfa -80 + ^
STACK CFI 23d3c .cfa: sp 240 +
STACK CFI 23d54 .cfa: sp 0 +
STACK CFI 23d58 .cfa: x29 80 +
STACK CFI INIT 23ff4 308 .cfa: sp 0 +
STACK CFI 23ff8 .cfa: sp 192 +
STACK CFI 2400c .cfa: x29 64 + x19: .cfa -8 + ^ x20: .cfa -16 + ^ x21: .cfa -24 + ^ x22: .cfa -32 + ^ x23: .cfa -48 + ^ .ra: .cfa -56 + ^ x29: .cfa -64 + ^
STACK CFI 241f4 .cfa: sp 192 +
STACK CFI 24208 .cfa: sp 0 +
STACK CFI 2420c .cfa: x29 64 +
STACK CFI INIT 243f8 c8 .cfa: sp 0 +
STACK CFI 243fc .cfa: sp 32 +
STACK CFI 24404 .cfa: x29 32 + x19: .cfa -8 + ^ x20: .cfa -16 + ^ .ra: .cfa -24 + ^ x29: .cfa -32 + ^
STACK CFI 24438 .cfa: sp 32 +
STACK CFI 24440 .cfa: sp 0 +
STACK CFI 24444 .cfa: x29 32 +
STACK CFI 24448 .cfa: sp 32 +
STACK CFI 24450 .cfa: sp 0 +
STACK CFI 24454 .cfa: x29 32 +
STACK CFI INIT 244c0 e4 .cfa: sp 0 +
STACK CFI 244c4 .cfa: sp 32 +
STACK CFI 244cc .cfa: x29 32 + x19: .cfa -8 + ^ x20: .cfa -16 + ^ .ra: .cfa -24 + ^ x29: .cfa -32 + ^
STACK CFI 24568 .cfa: sp 32 +
STACK CFI 24570 .cfa: sp 0 +
STACK CFI 24574 .cfa: x29 32 +
STACK CFI INIT 2461c 3dc .cfa: sp 0 +
STACK CFI 24620 .cfa: sp 288 +
STACK CFI 24638 .cfa: x29 80 + x19: .cfa -8 + ^ x20: .cfa -16 + ^ x21: .cfa -24 + ^ x22: .cfa -32 + ^ x23: .cfa -40 + ^ x24: .cfa -48 + ^ x28: .cfa -64 + ^ .ra: .cfa -72 + ^ x29: .cfa -80 + ^
STACK CFI 248ac .cfa: sp 288 +
STACK CFI 248c4 .cfa: sp 0 +
STACK CFI 248c8 .cfa: x29 80 +
STACK CFI INIT 249fc 1164 .cfa: sp 0 +
STACK CFI 24a00 .cfa: sp 96 +
STACK CFI 24a18 .cfa: x29 96 + x19: .cfa -8 + ^ x20: .cfa -16 + ^ x21: .cfa -24 + ^ x22: .cfa -32 + ^ x23: .cfa -40 + ^ x24: .cfa -48 + ^ x25: .cfa -56 + ^ x26: .cfa -64 + ^ x27: .cfa -72 + ^ x28: .cfa -80 + ^ .ra: .cfa -88 + ^ x29: .cfa -96 + ^
STACK CFI 258c4 .cfa: sp 96 +
STACK CFI 258dc .cfa: sp 0 +
STACK CFI 258e0 .cfa: x29 96 +
STACK CFI INIT 25b60 1c .cfa: sp 0 +
STACK CFI 25b64 .cfa: sp 16 +
STACK CFI 25b68 .cfa: x29 16 + .ra: .cfa -8 + ^ x29: .cfa -16 + ^
STACK CFI 25b70 .cfa: sp 16 +
STACK CFI 25b74 .cfa: sp 0 +
STACK CFI 25b78 .cfa: x29 16 +
STACK CFI INIT 25c14 494 .cfa: sp 0 +
STACK CFI 25c18 .cfa: sp 64 +
STACK CFI 25c28 .cfa: x29 64 + x19: .cfa -8 + ^ x20: .cfa -16 + ^ x21: .cfa -24 + ^ x22: .cfa -32 + ^ x23: .cfa -40 + ^ x24: .cfa -48 + ^ .ra: .cfa -56 + ^ x29: .cfa -64 + ^
STACK CFI 2607c .cfa: sp 64 +
STACK CFI 2608c .cfa: sp 0 +
STACK CFI 26090 .cfa: x29 64 +
STACK CFI INIT 260a8 4a8 .cfa: sp 0 +
STACK CFI 260ac .cfa: sp 64 +
STACK CFI 260bc .cfa: x29 64 + x19: .cfa -8 + ^ x20: .cfa -16 + ^ x21: .cfa -24 + ^ x22: .cfa -32 + ^ x23: .cfa -40 + ^ x24: .cfa -48 + ^ .ra: .cfa -56 + ^ x29: .cfa -64 + ^
STACK CFI 26524 .cfa: sp 64 +
STACK CFI 26534 .cfa: sp 0 +
STACK CFI 26538 .cfa: x29 64 +
STACK CFI INIT 26b7c 134 .cfa: sp 0 +
STACK CFI 26b80 .cfa: sp 80 +
STACK CFI 26b8c .cfa: x29 32 + x19: .cfa -8 + ^ x20: .cfa -16 + ^ .ra: .cfa -24 + ^ x29: .cfa -32 + ^
STACK CFI 26bbc .cfa: sp 80 +
STACK CFI 26bc8 .cfa: sp 0 +
STACK CFI 26bcc .cfa: x29 32 +
STACK CFI INIT 26cb0 78 .cfa: sp 0 +
STACK CFI 26cb4 .cfa: sp 32 +
STACK CFI 26cbc .cfa: x29 32 + x19: .cfa -8 + ^ x20: .cfa -16 + ^ .ra: .cfa -24 + ^ x29: .cfa -32 + ^
STACK CFI 26cc8 .cfa: sp 32 +
STACK CFI 26cd0 .cfa: sp 0 +
STACK CFI 26cd4 .cfa: x29 32 +
STACK CFI INIT 26d28 74 .cfa: sp 0 +
STACK CFI 26d2c .cfa: sp 48 +
STACK CFI 26d38 .cfa: x29 32 + x19: .cfa -8 + ^ x20: .cfa -16 + ^ .ra: .cfa -24 + ^ x29: .cfa -32 + ^
STACK CFI 26d84 .cfa: sp 48 +
STACK CFI 26d90 .cfa: sp 0 +
STACK CFI 26d94 .cfa: x29 32 +
STACK CFI INIT 26e00 224 .cfa: sp 0 +
STACK CFI 26e04 .cfa: sp 128 +
STACK CFI 26e14 .cfa: x29 48 + x19: .cfa -8 + ^ x20: .cfa -16 + ^ x21: .cfa -32 + ^ .ra: .cfa -40 + ^ x29: .cfa -48 + ^
STACK CFI 26ec4 .cfa: sp 128 +
STACK CFI 26ed4 .cfa: sp 0 +
STACK CFI 26ed8 .cfa: x29 48 +
STACK CFI INIT 272b8 164 .cfa: sp 0 +
STACK CFI 272bc .cfa: sp 128 +
STACK CFI 272c8 .cfa: x29 32 + x19: .cfa -8 + ^ x20: .cfa -16 + ^ .ra: .cfa -24 + ^ x29: .cfa -32 + ^
STACK CFI 27308 .cfa: sp 128 +
STACK CFI 27314 .cfa: sp 0 +
STACK CFI 27318 .cfa: x29 32 +
STACK CFI INIT 2741c fbc .cfa: sp 0 +
STACK CFI 27420 .cfa: sp 176 +
STACK CFI 2743c .cfa: x29 96 + x19: .cfa -8 + ^ x20: .cfa -16 + ^ x21: .cfa -24 + ^ x22: .cfa -32 + ^ x23: .cfa -40 + ^ x24: .cfa -48 + ^ x25: .cfa -56 + ^ x26: .cfa -64 + ^ x27: .cfa -72 + ^ x28: .cfa -80 + ^ .ra: .cfa -88 + ^ x29: .cfa -96 + ^
STACK CFI 27ea8 .cfa: sp 176 +
STACK CFI 27ec4 .cfa: sp 0 +
STACK CFI 27ec8 .cfa: x29 96 +
STACK CFI INIT 2842c 16c .cfa: sp 0 +
STACK CFI 28430 .cfa: sp 160 +
STACK CFI 28448 .cfa: x29 80 + x19: .cfa -8 + ^ x20: .cfa -16 + ^ x21: .cfa -24 + ^ x22: .cfa -32 + ^ x23: .cfa -40 + ^ x24: .cfa -48 + ^ x25: .cfa -56 + ^ x26: .cfa -64 + ^ .ra: .cfa -72 + ^ x29: .cfa -80 + ^
STACK CFI 284b0 .cfa: sp 160 +
STACK CFI 284c8 .cfa: sp 0 +
STACK CFI 284cc .cfa: x29 80 +
STACK CFI INIT 28598 4ac .cfa: sp 0 +
STACK CFI 2859c .cfa: sp 128 +
STACK CFI 285b4 .cfa: x29 80 + x19: .cfa -8 + ^ x20: .cfa -16 + ^ x21: .cfa -24 + ^ x22: .cfa -32 + ^ x23: .cfa -40 + ^ x24: .cfa -48 + ^ x25: .cfa -64 + ^ .ra: .cfa -72 + ^ x29: .cfa -80 + ^
STACK CFI 289c0 .cfa: sp 128 +
STACK CFI 289d8 .cfa: sp 0 +
STACK CFI 289dc .cfa: x29 80 +
STACK CFI INIT 28a4c 17c .cfa: sp 0 +
STACK CFI 28a50 .cfa: sp 176 +
STACK CFI 28a6c .cfa: x29 80 + x19: .cfa -8 + ^ x20: .cfa -16 + ^ x21: .cfa -24 + ^ x22: .cfa -32 + ^ x23: .cfa -40 + ^ x24: .cfa -48 + ^ x25: .cfa -56 + ^ x26: .cfa -64 + ^ .ra: .cfa -72 + ^ x29: .cfa -80 + ^ v8: .cfa -96 + ^
STACK CFI 28adc .cfa: sp 176 +
STACK CFI 28af8 .cfa: sp 0 +
STACK CFI 28afc .cfa: x29 80 +
STACK CFI INIT 28bc8 5ac .cfa: sp 0 +
STACK CFI 28bcc .cfa: sp 128 +
STACK CFI 28be4 .cfa: x29 80 + x19: .cfa -8 + ^ x20: .cfa -16 + ^ x21: .cfa -24 + ^ x22: .cfa -32 + ^ x23: .cfa -40 + ^ x24: .cfa -48 + ^ x25: .cfa -64 + ^ .ra: .cfa -72 + ^ x29: .cfa -80 + ^
STACK CFI 290e0 .cfa: sp 128 +
STACK CFI 290f8 .cfa: sp 0 +
STACK CFI 290fc .cfa: x29 80 +
STACK CFI INIT 2917c 15c .cfa: sp 0 +
STACK CFI 29180 .cfa: sp 144 +
STACK CFI 29198 .cfa: x29 56 + x19: .cfa -8 + ^ x20: .cfa -16 + ^ x21: .cfa -24 + ^ x22: .cfa -32 + ^ x23: .cfa -40 + ^ .ra: .cfa -48 + ^ x29: .cfa -56 + ^ v8: .cfa -64 + ^
STACK CFI 291f0 .cfa: sp 144 +
STACK CFI 29208 .cfa: sp 0 +
STACK CFI 2920c .cfa: x29 56 +
STACK CFI INIT 292d8 2d4 .cfa: sp 0 +
STACK CFI 292dc .cfa: sp 96 +
STACK CFI 292f4 .cfa: x29 80 + x19: .cfa -8 + ^ x20: .cfa -16 + ^ x21: .cfa -24 + ^ x22: .cfa -32 + ^ x23: .cfa -40 + ^ x24: .cfa -48 + ^ x25: .cfa -64 + ^ .ra: .cfa -72 + ^ x29: .cfa -80 + ^
STACK CFI 29548 .cfa: sp 96 +
STACK CFI 29560 .cfa: sp 0 +
STACK CFI 29564 .cfa: x29 80 +
STACK CFI INIT 295b4 14c .cfa: sp 0 +
STACK CFI 295b8 .cfa: sp 144 +
STACK CFI 295cc .cfa: x29 64 + x19: .cfa -8 + ^ x20: .cfa -16 + ^ x21: .cfa -24 + ^ x22: .cfa -32 + ^ x23: .cfa -48 + ^ .ra: .cfa -56 + ^ x29: .cfa -64 + ^
STACK CFI 2961c .cfa: sp 144 +
STACK CFI 29630 .cfa: sp 0 +
STACK CFI 29634 .cfa: x29 64 +
STACK CFI INIT 29700 108 .cfa: sp 0 +
STACK CFI 29704 .cfa: sp 64 +
STACK CFI 29714 .cfa: x29 48 + x19: .cfa -8 + ^ x20: .cfa -16 + ^ x21: .cfa -24 + ^ x22: .cfa -32 + ^ .ra: .cfa -40 + ^ x29: .cfa -48 + ^
STACK CFI 297c0 .cfa: sp 64 +
STACK CFI 297d0 .cfa: sp 0 +
STACK CFI 297d4 .cfa: x29 48 +
STACK CFI INIT 29820 164 .cfa: sp 0 +
STACK CFI 29824 .cfa: sp 160 +
STACK CFI 2983c .cfa: x29 80 + x19: .cfa -8 + ^ x20: .cfa -16 + ^ x21: .cfa -24 + ^ x22: .cfa -32 + ^ x23: .cfa -40 + ^ x24: .cfa -48 + ^ x25: .cfa -64 + ^ .ra: .cfa -72 + ^ x29: .cfa -80 + ^
STACK CFI 2989c .cfa: sp 160 +
STACK CFI 298b4 .cfa: sp 0 +
STACK CFI 298b8 .cfa: x29 80 +
STACK CFI INIT 29984 3d4 .cfa: sp 0 +
STACK CFI 29988 .cfa: sp 96 +
STACK CFI 299a0 .cfa: x29 80 + x19: .cfa -8 + ^ x20: .cfa -16 + ^ x21: .cfa -24 + ^ x22: .cfa -32 + ^ x23: .cfa -40 + ^ x24: .cfa -48 + ^ x25: .cfa -64 + ^ .ra: .cfa -72 + ^ x29: .cfa -80 + ^
STACK CFI 29ce4 .cfa: sp 96 +
STACK CFI 29cfc .cfa: sp 0 +
STACK CFI 29d00 .cfa: x29 80 +
STACK CFI INIT 29d58 17c .cfa: sp 0 +
STACK CFI 29d5c .cfa: sp 176 +
STACK CFI 29d78 .cfa: x29 96 + x19: .cfa -8 + ^ x20: .cfa -16 + ^ x21: .cfa -24 + ^ x22: .cfa -32 + ^ x23: .cfa -40 + ^ x24: .cfa -48 + ^ x25: .cfa -56 + ^ x26: .cfa -64 + ^ x27: .cfa -80 + ^ .ra: .cfa -88 + ^ x29: .cfa -96 + ^
STACK CFI 29de8 .cfa: sp 176 +
STACK CFI 29e04 .cfa: sp 0 +
STACK CFI 29e08 .cfa: x29 96 +
STACK CFI INIT 29ed4 5d4 .cfa: sp 0 +
STACK CFI 29ed8 .cfa: sp 96 +
STACK CFI 29ef0 .cfa: x29 80 + x19: .cfa -8 + ^ x20: .cfa -16 + ^ x21: .cfa -24 + ^ x22: .cfa -32 + ^ x23: .cfa -40 + ^ x24: .cfa -48 + ^ x25: .cfa -64 + ^ .ra: .cfa -72 + ^ x29: .cfa -80 + ^
STACK CFI 2a414 .cfa: sp 96 +
STACK CFI 2a42c .cfa: sp 0 +
STACK CFI 2a430 .cfa: x29 80 +
STACK CFI INIT 2a4a8 14c .cfa: sp 0 +
STACK CFI 2a4ac .cfa: sp 144 +
STACK CFI 2a4c0 .cfa: x29 64 + x19: .cfa -8 + ^ x20: .cfa -16 + ^ x21: .cfa -24 + ^ x22: .cfa -32 + ^ x23: .cfa -48 + ^ .ra: .cfa -56 + ^ x29: .cfa -64 + ^
STACK CFI 2a510 .cfa: sp 144 +
STACK CFI 2a524 .cfa: sp 0 +
STACK CFI 2a528 .cfa: x29 64 +
STACK CFI INIT 2a5f4 108 .cfa: sp 0 +
STACK CFI 2a5f8 .cfa: sp 64 +
STACK CFI 2a608 .cfa: x29 48 + x19: .cfa -8 + ^ x20: .cfa -16 + ^ x21: .cfa -24 + ^ x22: .cfa -32 + ^ .ra: .cfa -40 + ^ x29: .cfa -48 + ^
STACK CFI 2a6b4 .cfa: sp 64 +
STACK CFI 2a6c4 .cfa: sp 0 +
STACK CFI 2a6c8 .cfa: x29 48 +
STACK CFI INIT 2a6fc 168 .cfa: sp 0 +
STACK CFI 2a700 .cfa: sp 144 +
STACK CFI 2a714 .cfa: x29 64 + x19: .cfa -8 + ^ x20: .cfa -16 + ^ x21: .cfa -24 + ^ x22: .cfa -32 + ^ x23: .cfa -40 + ^ x24: .cfa -48 + ^ .ra: .cfa -56 + ^ x29: .cfa -64 + ^
STACK CFI 2a76c .cfa: sp 144 +
STACK CFI 2a780 .cfa: sp 0 +
STACK CFI 2a784 .cfa: x29 64 +
STACK CFI INIT 2a864 2bc .cfa: sp 0 +
STACK CFI 2a868 .cfa: sp 96 +
STACK CFI 2a880 .cfa: x29 80 + x19: .cfa -8 + ^ x20: .cfa -16 + ^ x21: .cfa -24 + ^ x22: .cfa -32 + ^ x23: .cfa -40 + ^ x24: .cfa -48 + ^ x25: .cfa -64 + ^ .ra: .cfa -72 + ^ x29: .cfa -80 + ^
STACK CFI 2aabc .cfa: sp 96 +
STACK CFI 2aad4 .cfa: sp 0 +
STACK CFI 2aad8 .cfa: x29 80 +
STACK CFI INIT 2ab20 178 .cfa: sp 0 +
STACK CFI 2ab24 .cfa: sp 128 +
STACK CFI 2ab34 .cfa: x29 48 + x19: .cfa -8 + ^ x20: .cfa -16 + ^ x21: .cfa -24 + ^ x22: .cfa -32 + ^ .ra: .cfa -40 + ^ x29: .cfa -48 + ^
STACK CFI 2ab90 .cfa: sp 128 +
STACK CFI 2aba0 .cfa: sp 0 +
STACK CFI 2aba4 .cfa: x29 48 +
STACK CFI INIT 2ac98 a4 .cfa: sp 0 +
STACK CFI 2ac9c .cfa: sp 48 +
STACK CFI 2aca8 .cfa: x29 48 + x19: .cfa -8 + ^ x20: .cfa -16 + ^ x21: .cfa -32 + ^ .ra: .cfa -40 + ^ x29: .cfa -48 + ^
STACK CFI 2ad14 .cfa: sp 48 +
STACK CFI 2ad20 .cfa: sp 0 +
STACK CFI 2ad24 .cfa: x29 48 +
STACK CFI INIT 2ad4c 2a0 .cfa: sp 0 +
STACK CFI 2ad50 .cfa: sp 144 +
STACK CFI 2ad64 .cfa: x29 64 + x19: .cfa -8 + ^ x20: .cfa -16 + ^ x21: .cfa -24 + ^ x22: .cfa -32 + ^ x23: .cfa -48 + ^ .ra: .cfa -56 + ^ x29: .cfa -64 + ^
STACK CFI 2ae98 .cfa: sp 144 +
STACK CFI 2aeac .cfa: sp 0 +
STACK CFI 2aeb0 .cfa: x29 64 +
STACK CFI INIT 2afec 2f0 .cfa: sp 0 +
STACK CFI 2aff0 .cfa: sp 144 +
STACK CFI 2b004 .cfa: x29 64 + x19: .cfa -8 + ^ x20: .cfa -16 + ^ x21: .cfa -24 + ^ x22: .cfa -32 + ^ x23: .cfa -48 + ^ .ra: .cfa -56 + ^ x29: .cfa -64 + ^
STACK CFI 2b188 .cfa: sp 144 +
STACK CFI 2b19c .cfa: sp 0 +
STACK CFI 2b1a0 .cfa: x29 64 +
STACK CFI INIT 2b2dc 4f4 .cfa: sp 0 +
STACK CFI 2b2e0 .cfa: sp 144 +
STACK CFI 2b2f4 .cfa: x29 64 + x19: .cfa -8 + ^ x20: .cfa -16 + ^ x21: .cfa -24 + ^ x22: .cfa -32 + ^ x23: .cfa -48 + ^ .ra: .cfa -56 + ^ x29: .cfa -64 + ^
STACK CFI 2b628 .cfa: sp 144 +
STACK CFI 2b63c .cfa: sp 0 +
STACK CFI 2b640 .cfa: x29 64 +
STACK CFI INIT 2b7d0 154 .cfa: sp 0 +
STACK CFI 2b7d4 .cfa: sp 384 +
STACK CFI 2b7e8 .cfa: x29 64 + x19: .cfa -8 + ^ x20: .cfa -16 + ^ x21: .cfa -24 + ^ x22: .cfa -32 + ^ x23: .cfa -40 + ^ x28: .cfa -48 + ^ .ra: .cfa -56 + ^ x29: .cfa -64 + ^
STACK CFI 2b8cc .cfa: sp 384 +
STACK CFI 2b8e0 .cfa: sp 0 +
STACK CFI 2b8e4 .cfa: x29 64 +
STACK CFI INIT 2b924 168 .cfa: sp 0 +
STACK CFI 2b928 .cfa: sp 384 +
STACK CFI 2b93c .cfa: x29 64 + x19: .cfa -8 + ^ x20: .cfa -16 + ^ x21: .cfa -24 + ^ x22: .cfa -32 + ^ x23: .cfa -40 + ^ x28: .cfa -48 + ^ .ra: .cfa -56 + ^ x29: .cfa -64 + ^
STACK CFI 2ba34 .cfa: sp 384 +
STACK CFI 2ba48 .cfa: sp 0 +
STACK CFI 2ba4c .cfa: x29 64 +
STACK CFI INIT 2baa4 50c .cfa: sp 0 +
STACK CFI 2baa8 .cfa: sp 64 +
STACK CFI 2bab8 .cfa: x29 64 + x19: .cfa -8 + ^ x20: .cfa -16 + ^ x21: .cfa -24 + ^ x22: .cfa -32 + ^ x23: .cfa -40 + ^ x24: .cfa -48 + ^ .ra: .cfa -56 + ^ x29: .cfa -64 + ^
STACK CFI 2bbd8 .cfa: sp 64 +
STACK CFI 2bbe8 .cfa: sp 0 +
STACK CFI 2bbec .cfa: x29 64 +
STACK CFI 2bf84 .cfa: sp 64 +
STACK CFI 2bf94 .cfa: sp 0 +
STACK CFI 2bf98 .cfa: x29 64 +
STACK CFI INIT 2c2e0 294 .cfa: sp 0 +
STACK CFI 2c2e4 .cfa: sp 240 +
STACK CFI 2c2fc .cfa: x29 80 + x19: .cfa -8 + ^ x20: .cfa -16 + ^ x21: .cfa -24 + ^ x22: .cfa -32 + ^ x23: .cfa -40 + ^ x24: .cfa -48 + ^ x25: .cfa -64 + ^ .ra: .cfa -72 + ^ x29: .cfa -80 + ^
STACK CFI 2c49c .cfa: sp 240 +
STACK CFI 2c4b4 .cfa: sp 0 +
STACK CFI 2c4b8 .cfa: x29 80 +
STACK CFI INIT 2c5f0 50 .cfa: sp 0 +
STACK CFI 2c5f4 .cfa: sp 32 +
STACK CFI 2c5fc .cfa: x29 32 + x19: .cfa -8 + ^ x20: .cfa -16 + ^ .ra: .cfa -24 + ^ x29: .cfa -32 + ^
STACK CFI INIT 2c66c 7c0 .cfa: sp 0 +
STACK CFI 2c670 .cfa: sp 320 +
STACK CFI 2c68c .cfa: x29 96 + x19: .cfa -8 + ^ x20: .cfa -16 + ^ x21: .cfa -24 + ^ x22: .cfa -32 + ^ x23: .cfa -40 + ^ x24: .cfa -48 + ^ x25: .cfa -56 + ^ x26: .cfa -64 + ^ x27: .cfa -72 + ^ x28: .cfa -80 + ^ .ra: .cfa -88 + ^ x29: .cfa -96 + ^
STACK CFI 2ccdc .cfa: sp 320 +
STACK CFI 2ccf8 .cfa: sp 0 +
STACK CFI 2ccfc .cfa: x29 96 +
STACK CFI INIT 311ac c74 .cfa: sp 0 +
STACK CFI 311b0 .cfa: sp 96 +
STACK CFI 311c8 .cfa: x29 96 + x19: .cfa -8 + ^ x20: .cfa -16 + ^ x21: .cfa -24 + ^ x22: .cfa -32 + ^ x23: .cfa -40 + ^ x24: .cfa -48 + ^ x25: .cfa -56 + ^ x26: .cfa -64 + ^ x27: .cfa -72 + ^ x28: .cfa -80 + ^ .ra: .cfa -88 + ^ x29: .cfa -96 + ^
STACK CFI 31c40 .cfa: sp 96 +
STACK CFI 31c58 .cfa: sp 0 +
STACK CFI 31c5c .cfa: x29 96 +
STACK CFI INIT 31f74 26c .cfa: sp 0 +
STACK CFI 31f78 .cfa: sp 128 +
STACK CFI 31f88 .cfa: x29 48 + x19: .cfa -8 + ^ x20: .cfa -16 + ^ x21: .cfa -24 + ^ x22: .cfa -32 + ^ .ra: .cfa -40 + ^ x29: .cfa -48 + ^
STACK CFI 3212c .cfa: sp 128 +
STACK CFI 3213c .cfa: sp 0 +
STACK CFI 32140 .cfa: x29 48 +
STACK CFI INIT 3272c 3b8 .cfa: sp 0 +
STACK CFI 32730 .cfa: sp 96 +
STACK CFI 32748 .cfa: x29 96 + x19: .cfa -8 + ^ x20: .cfa -16 + ^ x21: .cfa -24 + ^ x22: .cfa -32 + ^ x23: .cfa -40 + ^ x24: .cfa -48 + ^ x25: .cfa -56 + ^ x26: .cfa -64 + ^ x27: .cfa -72 + ^ x28: .cfa -80 + ^ .ra: .cfa -88 + ^ x29: .cfa -96 + ^
STACK CFI 32a84 .cfa: sp 96 +
STACK CFI 32a9c .cfa: sp 0 +
STACK CFI 32aa0 .cfa: x29 96 +
STACK CFI INIT 32b84 cb4 .cfa: sp 0 +
STACK CFI 32b88 .cfa: sp 96 +
STACK CFI 32ba0 .cfa: x29 96 + x19: .cfa -8 + ^ x20: .cfa -16 + ^ x21: .cfa -24 + ^ x22: .cfa -32 + ^ x23: .cfa -40 + ^ x24: .cfa -48 + ^ x25: .cfa -56 + ^ x26: .cfa -64 + ^ x27: .cfa -72 + ^ x28: .cfa -80 + ^ .ra: .cfa -88 + ^ x29: .cfa -96 + ^
STACK CFI 33648 .cfa: sp 96 +
STACK CFI 33660 .cfa: sp 0 +
STACK CFI 33664 .cfa: x29 96 +
STACK CFI INIT 33b20 afc .cfa: sp 0 +
STACK CFI 33b24 .cfa: sp 96 +
STACK CFI 33b3c .cfa: x29 96 + x19: .cfa -8 + ^ x20: .cfa -16 + ^ x21: .cfa -24 + ^ x22: .cfa -32 + ^ x23: .cfa -40 + ^ x24: .cfa -48 + ^ x25: .cfa -56 + ^ x26: .cfa -64 + ^ x27: .cfa -72 + ^ x28: .cfa -80 + ^ .ra: .cfa -88 + ^ x29: .cfa -96 + ^
STACK CFI 34590 .cfa: sp 96 +
STACK CFI 345a8 .cfa: sp 0 +
STACK CFI 345ac .cfa: x29 96 +
STACK CFI INIT 347f8 1430 .cfa: sp 0 +
STACK CFI 347fc .cfa: sp 96 +
STACK CFI 34814 .cfa: x29 96 + x19: .cfa -8 + ^ x20: .cfa -16 + ^ x21: .cfa -24 + ^ x22: .cfa -32 + ^ x23: .cfa -40 + ^ x24: .cfa -48 + ^ x25: .cfa -56 + ^ x26: .cfa -64 + ^ x27: .cfa -72 + ^ x28: .cfa -80 + ^ .ra: .cfa -88 + ^ x29: .cfa -96 + ^
STACK CFI 35ab0 .cfa: sp 96 +
STACK CFI 35ac8 .cfa: sp 0 +
STACK CFI 35acc .cfa: x29 96 +
STACK CFI INIT 35d4c 75c .cfa: sp 0 +
STACK CFI 35d50 .cfa: sp 368 +
STACK CFI 35d6c .cfa: x29 96 + x19: .cfa -8 + ^ x20: .cfa -16 + ^ x21: .cfa -24 + ^ x22: .cfa -32 + ^ x23: .cfa -40 + ^ x24: .cfa -48 + ^ x25: .cfa -56 + ^ x26: .cfa -64 + ^ x27: .cfa -72 + ^ x28: .cfa -80 + ^ .ra: .cfa -88 + ^ x29: .cfa -96 + ^
STACK CFI 35e20 .cfa: sp 368 +
STACK CFI 35e3c .cfa: sp 0 +
STACK CFI 35e40 .cfa: x29 96 +
STACK CFI 35e94 .cfa: sp 368 +
STACK CFI 35eb0 .cfa: sp 0 +
STACK CFI 35eb4 .cfa: x29 96 +
STACK CFI INIT 36868 eb0 .cfa: sp 0 +
STACK CFI 3686c .cfa: sp 96 +
STACK CFI 36884 .cfa: x29 96 + x19: .cfa -8 + ^ x20: .cfa -16 + ^ x21: .cfa -24 + ^ x22: .cfa -32 + ^ x23: .cfa -40 + ^ x24: .cfa -48 + ^ x25: .cfa -56 + ^ x26: .cfa -64 + ^ x27: .cfa -72 + ^ x28: .cfa -80 + ^ .ra: .cfa -88 + ^ x29: .cfa -96 + ^
STACK CFI 3752c .cfa: sp 96 +
STACK CFI 37544 .cfa: sp 0 +
STACK CFI 37548 .cfa: x29 96 +
STACK CFI INIT 37a8c 1c9c .cfa: sp 0 +
STACK CFI 37a90 .cfa: sp 112 +
STACK CFI 37aac .cfa: x29 96 + x19: .cfa -8 + ^ x20: .cfa -16 + ^ x21: .cfa -24 + ^ x22: .cfa -32 + ^ x23: .cfa -40 + ^ x24: .cfa -48 + ^ x25: .cfa -56 + ^ x26: .cfa -64 + ^ x27: .cfa -72 + ^ x28: .cfa -80 + ^ .ra: .cfa -88 + ^ x29: .cfa -96 + ^ v8: .cfa -112 + ^
STACK CFI 37e94 .cfa: sp 112 +
STACK CFI 37eb0 .cfa: sp 0 +
STACK CFI 37eb4 .cfa: x29 96 +
STACK CFI INIT 3beec 9a0 .cfa: sp 0 +
STACK CFI 3bef0 .cfa: sp 144 +
STACK CFI 3bf08 .cfa: x29 80 + x19: .cfa -8 + ^ x20: .cfa -16 + ^ x21: .cfa -24 + ^ x22: .cfa -32 + ^ x23: .cfa -40 + ^ x24: .cfa -48 + ^ x25: .cfa -64 + ^ .ra: .cfa -72 + ^ x29: .cfa -80 + ^
STACK CFI 3c808 .cfa: sp 144 +
STACK CFI 3c820 .cfa: sp 0 +
STACK CFI 3c824 .cfa: x29 80 +
STACK CFI INIT 3ddb0 57c .cfa: sp 0 +
STACK CFI 3ddb4 .cfa: sp 96 +
STACK CFI 3ddcc .cfa: x29 96 + x19: .cfa -8 + ^ x20: .cfa -16 + ^ x21: .cfa -24 + ^ x22: .cfa -32 + ^ x23: .cfa -40 + ^ x24: .cfa -48 + ^ x25: .cfa -56 + ^ x26: .cfa -64 + ^ x27: .cfa -72 + ^ x28: .cfa -80 + ^ .ra: .cfa -88 + ^ x29: .cfa -96 + ^
STACK CFI 3e290 .cfa: sp 96 +
STACK CFI 3e2a8 .cfa: sp 0 +
STACK CFI 3e2ac .cfa: x29 96 +
STACK CFI INIT 3e32c 67c .cfa: sp 0 +
STACK CFI 3e330 .cfa: sp 96 +
STACK CFI 3e348 .cfa: x29 96 + x19: .cfa -8 + ^ x20: .cfa -16 + ^ x21: .cfa -24 + ^ x22: .cfa -32 + ^ x23: .cfa -40 + ^ x24: .cfa -48 + ^ x25: .cfa -56 + ^ x26: .cfa -64 + ^ x27: .cfa -72 + ^ x28: .cfa -80 + ^ .ra: .cfa -88 + ^ x29: .cfa -96 + ^
STACK CFI 3e90c .cfa: sp 96 +
STACK CFI 3e924 .cfa: sp 0 +
STACK CFI 3e928 .cfa: x29 96 +
