MODULE Linux arm64 30EB95C67908183CD5A32BADF26FF6880 hiimjustin000.developer_badges.android64.so
INFO CODE_ID C695EB3008793C18D5A32BADF26FF688C7226C7D
INFO GENERATOR mozilla/dump_syms 2.3.4
PUBLIC e060 0 __on_dlclose
PUBLIC e070 0 __emutls_unregister_key
PUBLIC e078 0 __on_dlclose_late
PUBLIC e080 0 __atexit_handler_wrapper
PUBLIC e094 0 atexit
PUBLIC e0b0 0 pthread_atfork
PUBLIC e0c0 0 unwind_phase2
PUBLIC e1f4 0 _Unwind_Resume
PUBLIC e278 0 unwind_phase2_forced
PUBLIC m e36c 0 __unw_init_local
PUBLIC m e414 0 __unw_get_reg
PUBLIC e490 0 __unw_step_stage2
PUBLIC m e4a4 0 __unw_get_proc_info
PUBLIC m e4e4 0 __unw_resume
PUBLIC e50c 0 libunwind::CFI_Parser<libunwind::LocalAddressSpace>::decodeFDE(libunwind::LocalAddressSpace&, unsigned long, libunwind::CFI_Parser<libunwind::LocalAddressSpace>::FDE_Info*, libunwind::CFI_Parser<libunwind::LocalAddressSpace>::CIE_Info*, bool)
PUBLIC e69c 0 libunwind::CFI_Parser<libunwind::LocalAddressSpace>::parseCIE(libunwind::LocalAddressSpace&, unsigned long, libunwind::CFI_Parser<libunwind::LocalAddressSpace>::CIE_Info*)
PUBLIC e964 0 libunwind::AbstractUnwindCursor::~AbstractUnwindCursor()
PUBLIC e96c 0 libunwind::UnwindCursor<libunwind::LocalAddressSpace, libunwind::Registers_arm64>::~UnwindCursor()
PUBLIC e974 0 libunwind::UnwindCursor<libunwind::LocalAddressSpace, libunwind::Registers_arm64>::validReg(int)
PUBLIC e9b8 0 libunwind::UnwindCursor<libunwind::LocalAddressSpace, libunwind::Registers_arm64>::getReg(int)
PUBLIC eaa0 0 libunwind::UnwindCursor<libunwind::LocalAddressSpace, libunwind::Registers_arm64>::setReg(int, unsigned long)
PUBLIC eb88 0 libunwind::UnwindCursor<libunwind::LocalAddressSpace, libunwind::Registers_arm64>::validFloatReg(int)
PUBLIC eb9c 0 libunwind::UnwindCursor<libunwind::LocalAddressSpace, libunwind::Registers_arm64>::getFloatReg(int)
PUBLIC ebac 0 libunwind::UnwindCursor<libunwind::LocalAddressSpace, libunwind::Registers_arm64>::setFloatReg(int, double)
PUBLIC ebbc 0 libunwind::UnwindCursor<libunwind::LocalAddressSpace, libunwind::Registers_arm64>::step(bool)
PUBLIC ecac 0 libunwind::UnwindCursor<libunwind::LocalAddressSpace, libunwind::Registers_arm64>::getInfo(unw_proc_info_t*)
PUBLIC ecf0 0 libunwind::UnwindCursor<libunwind::LocalAddressSpace, libunwind::Registers_arm64>::jumpto()
PUBLIC ecfc 0 libunwind::UnwindCursor<libunwind::LocalAddressSpace, libunwind::Registers_arm64>::isSignalFrame()
PUBLIC ed08 0 libunwind::UnwindCursor<libunwind::LocalAddressSpace, libunwind::Registers_arm64>::getFunctionName(char*, unsigned long, unsigned long*)
PUBLIC ed34 0 libunwind::UnwindCursor<libunwind::LocalAddressSpace, libunwind::Registers_arm64>::setInfoBasedOnIPRegister(bool)
PUBLIC efb4 0 libunwind::UnwindCursor<libunwind::LocalAddressSpace, libunwind::Registers_arm64>::getRegisterName(int)
PUBLIC efc0 0 libunwind::UnwindCursor<libunwind::LocalAddressSpace, libunwind::Registers_arm64>::stepThroughSigReturn(libunwind::Registers_arm64&)
PUBLIC f0e0 0 libunwind::DwarfInstructions<libunwind::LocalAddressSpace, libunwind::Registers_arm64>::stepWithDwarf(libunwind::LocalAddressSpace&, unsigned long, unsigned long, libunwind::Registers_arm64&, bool&, bool)
PUBLIC f568 0 libunwind::CFI_Parser<libunwind::LocalAddressSpace>::parseFDEInstructions(libunwind::LocalAddressSpace&, libunwind::CFI_Parser<libunwind::LocalAddressSpace>::FDE_Info const&, libunwind::CFI_Parser<libunwind::LocalAddressSpace>::CIE_Info const&, unsigned long, int, libunwind::CFI_Parser<libunwind::LocalAddressSpace>::PrologInfo*)
PUBLIC 101b0 0 libunwind::DwarfInstructions<libunwind::LocalAddressSpace, libunwind::Registers_arm64>::getCFA(libunwind::LocalAddressSpace&, libunwind::CFI_Parser<libunwind::LocalAddressSpace>::PrologInfo const&, libunwind::Registers_arm64 const&)
PUBLIC 102e4 0 libunwind::DwarfInstructions<libunwind::LocalAddressSpace, libunwind::Registers_arm64>::getSavedRegister(libunwind::LocalAddressSpace&, libunwind::Registers_arm64 const&, unsigned long, libunwind::CFI_Parser<libunwind::LocalAddressSpace>::RegisterLocation const&)
PUBLIC 104f4 0 libunwind::LocalAddressSpace::getEncodedP(unsigned long&, unsigned long, unsigned char, unsigned long)
PUBLIC 10880 0 libunwind::LocalAddressSpace::getULEB128(unsigned long&, unsigned long)
PUBLIC 10a48 0 libunwind::DwarfInstructions<libunwind::LocalAddressSpace, libunwind::Registers_arm64>::evaluateExpression(unsigned long, libunwind::LocalAddressSpace&, libunwind::Registers_arm64 const&, unsigned long)
PUBLIC 11404 0 libunwind::UnwindCursor<libunwind::LocalAddressSpace, libunwind::Registers_arm64>::getInfoFromDwarfSection(unsigned long, libunwind::UnwindInfoSections const&, unsigned int)
PUBLIC 116d8 0 libunwind::findUnwindSectionsByPhdr(dl_phdr_info*, unsigned long, void*)
PUBLIC 1180c 0 libunwind::EHHeaderParser<libunwind::LocalAddressSpace>::decodeEHHdr(libunwind::LocalAddressSpace&, unsigned long, unsigned long, libunwind::EHHeaderParser<libunwind::LocalAddressSpace>::EHHeaderInfo&)
PUBLIC 1192c 0 libunwind::CFI_Parser<libunwind::LocalAddressSpace>::findFDE(libunwind::LocalAddressSpace&, unsigned long, unsigned long, unsigned long, unsigned long, libunwind::CFI_Parser<libunwind::LocalAddressSpace>::FDE_Info*, libunwind::CFI_Parser<libunwind::LocalAddressSpace>::CIE_Info*)
PUBLIC 11af4 0 libunwind::EHHeaderParser<libunwind::LocalAddressSpace>::findFDE(libunwind::LocalAddressSpace&, unsigned long, unsigned long, unsigned int, libunwind::CFI_Parser<libunwind::LocalAddressSpace>::FDE_Info*, libunwind::CFI_Parser<libunwind::LocalAddressSpace>::CIE_Info*)
PUBLIC 11c5c 0 libunwind::EHHeaderParser<libunwind::LocalAddressSpace>::getTableEntrySize(unsigned char)
PUBLIC 11d58 0 libunwind::Registers_arm64::getRegisterName(int)
PUBLIC 11d88 0 __libunwind_Registers_arm64_jumpto
PUBLIC m 11e18 0 __unw_getcontext
PUBLIC 11ec0 0 __aarch64_ldadd8_relax
PUBLIC 11ef0 0 init_have_lse_atomics
PUBLIC 11f88 0 __init_cpu_features_constructor
PUBLIC 12524 0 __init_cpu_features
PUBLIC 125b0 0 __aarch64_ldadd8_acq_rel
PUBLIC 125e0 0 __cxx_global_var_init
PUBLIC 1263c 0 std::__ndk1::vector<DeveloperBadge, std::__ndk1::allocator<DeveloperBadge> >::~vector[abi:ne180000]()
PUBLIC 126c4 0 __cxx_global_var_init.1
PUBLIC 12730 0 std::__ndk1::set<int, std::__ndk1::less<int>, std::__ndk1::allocator<int> >::~set[abi:ne180000]()
PUBLIC 12738 0 __cxx_global_var_init.2
PUBLIC 12bb8 0 geode::modifier::ModifyBase<geode::modifier::ModifyDerive<DBCommentCell, CommentCell> >::~ModifyBase()
PUBLIC 12bd4 0 __clang_call_terminate
PUBLIC 12be4 0 std::__ndk1::__tree<int, std::__ndk1::less<int>, std::__ndk1::allocator<int> >::destroy(std::__ndk1::__tree_node<int, void*>*)
PUBLIC 12c28 0 geode::modifier::ModifyDerive<DBCommentCell, CommentCell>::apply()
PUBLIC 12fb0 0 geode::Mod::get<void>()
PUBLIC 12fec 0 std::__ndk1::shared_ptr<geode::Hook>::~shared_ptr[abi:ne180000]()
PUBLIC 1303c 0 geode::impl::ResultData<geode::Hook*, std::__ndk1::basic_string<char, std::__ndk1::char_traits<char>, std::__ndk1::allocator<char> > >::~ResultData()
PUBLIC 130b0 0 std::__ndk1::vector<std::__ndk1::basic_string<char, std::__ndk1::char_traits<char>, std::__ndk1::allocator<char> >, std::__ndk1::allocator<std::__ndk1::basic_string<char, std::__ndk1::char_traits<char>, std::__ndk1::allocator<char> > > >::~vector[abi:ne180000]()
PUBLIC 1312c 0 geode::modifier::ModifyBase<geode::modifier::ModifyDerive<DBCommentCell, CommentCell> >::apply()
PUBLIC 13130 0 _ZN5geode15UnwrapExceptionC2IRPNS_4HookEQsr4implE18IsStringStreamableIT_EEENS_4impl5OkTagEOS5_
PUBLIC 13284 0 std::__ndk1::__throw_bad_variant_access[abi:ne180000]()
PUBLIC 132b8 0 std::__ndk1::basic_stringstream<char, std::__ndk1::char_traits<char>, std::__ndk1::allocator<char> >::basic_stringstream[abi:ne180000]()
PUBLIC m 133e4 0 std::__ndk1::basic_stringstream<char, std::__ndk1::char_traits<char>, std::__ndk1::allocator<char> >::~basic_stringstream()
PUBLIC 13464 0 geode::UnwrapException::~UnwrapException()
PUBLIC 13488 0 std::__ndk1::__put_character_sequence[abi:ne180000]<char, std::__ndk1::char_traits<char> >(std::__ndk1::basic_ostream<char, std::__ndk1::char_traits<char> >, std::__ndk1::basic_ostream const*, unsigned long)
PUBLIC 1362c 0 std::__ndk1::__pad_and_output[abi:ne180000]<char, std::__ndk1::char_traits<char> >(std::__ndk1::char_traits<char>, std::__ndk1::ostreambuf_iterator const*, std::__ndk1::ostreambuf_iterator const, std::__ndk1::ostreambuf_iterator const, std::__ndk1::ios_base&, std::__ndk1::ostreambuf_iterator)
PUBLIC 13808 0 std::__ndk1::basic_string<char, std::__ndk1::char_traits<char>, std::__ndk1::allocator<char> >::__throw_length_error[abi:ne180000]() const
PUBLIC 1381c 0 std::__ndk1::__throw_length_error[abi:ne180000](char const*)
PUBLIC 1386c 0 std::length_error::length_error[abi:ne180000](char const*)
PUBLIC 1389c 0 std::__throw_bad_array_new_length([abi:ne180000], void)
PUBLIC 138d0 0 std::__ndk1::basic_stringbuf<char, std::__ndk1::char_traits<char>, std::__ndk1::allocator<char> >::str[abi:ne180000]() &&
PUBLIC 13a48 0 std::__ndk1::basic_stringbuf<char, std::__ndk1::char_traits<char>, std::__ndk1::allocator<char> >::__init_buf_ptrs[abi:ne180000]()
PUBLIC 13b90 0 std::__ndk1::vector<std::__ndk1::basic_string<char, std::__ndk1::char_traits<char>, std::__ndk1::allocator<char> >, std::__ndk1::allocator<std::__ndk1::basic_string<char, std::__ndk1::char_traits<char>, std::__ndk1::allocator<char> > > >::__push_back_slow_path<std::__ndk1::basic_string<char, std::__ndk1::char_traits<char>, std::__ndk1::allocator<char> > const&>(std::__ndk1::basic_string<char, std::__ndk1::char_traits<char>, std::__ndk1::allocator<char> > const&)
PUBLIC 13db8 0 std::__ndk1::basic_string<char, std::__ndk1::char_traits<char>, std::__ndk1::allocator<char> >::__init_copy_ctor_external(char const*, unsigned long)
PUBLIC 13e38 0 std::__ndk1::__split_buffer<std::__ndk1::basic_string<char, std::__ndk1::char_traits<char>, std::__ndk1::allocator<char> >, std::__ndk1::allocator<std::__ndk1::basic_string<char, std::__ndk1::char_traits<char>, std::__ndk1::allocator<char> > >&>::~__split_buffer()
PUBLIC 13ea0 0 std::__ndk1::vector<std::__ndk1::basic_string<char, std::__ndk1::char_traits<char>, std::__ndk1::allocator<char> >, std::__ndk1::allocator<std::__ndk1::basic_string<char, std::__ndk1::char_traits<char>, std::__ndk1::allocator<char> > > >::__throw_length_error[abi:ne180000]() const
PUBLIC 13eb4 0 std::__ndk1::__variant_detail::__visitation::__base::__dispatcher<(unsigned long)0>::__dispatch[abi:ne180000]<std::__ndk1::__variant_detail::__dtor<std::__ndk1::__variant_detail::__traits<geode::Hook*, std::__ndk1::basic_string<char, std::__ndk1::char_traits<char>, std::__ndk1::allocator<char> > >, (std::__ndk1::__variant_detail::_Trait)1>::__destroy[abi:ne180000]()::{lambda(auto:1&)#1}, std::__ndk1::__variant_detail::__base<(std::__ndk1::__variant_detail::__traits<geode::Hook*, std::__ndk1::basic_string<char, std::__ndk1::char_traits<char>, std::__ndk1::allocator<char> > >)1, geode::Hook, std::__ndk1::allocator<char> >&>(std::__ndk1::__variant_detail::__dtor<std::__ndk1::__variant_detail::__traits<geode::Hook*, std::__ndk1::basic_string<char, std::__ndk1::char_traits<char>, std::__ndk1::allocator<char> > >, (std::__ndk1::__variant_detail::_Trait)1>, std::__ndk1::__variant_detail::__base<(std::__ndk1::__variant_detail::__traits<geode::Hook*, std::__ndk1::basic_string<char, std::__ndk1::char_traits<char>, std::__ndk1::allocator<char> > >)1, geode::Hook, std::__ndk1::allocator<char> >&)
PUBLIC 13eb8 0 std::__ndk1::__variant_detail::__visitation::__base::__dispatcher<(unsigned long)1>::__dispatch[abi:ne180000]<std::__ndk1::__variant_detail::__dtor<std::__ndk1::__variant_detail::__traits<geode::Hook*, std::__ndk1::basic_string<char, std::__ndk1::char_traits<char>, std::__ndk1::allocator<char> > >, (std::__ndk1::__variant_detail::_Trait)1>::__destroy[abi:ne180000]()::{lambda(auto:1&)#1}, std::__ndk1::__variant_detail::__base<(std::__ndk1::__variant_detail::__traits<geode::Hook*, std::__ndk1::basic_string<char, std::__ndk1::char_traits<char>, std::__ndk1::allocator<char> > >)1, geode::Hook, std::__ndk1::allocator<char> >&>(std::__ndk1::__variant_detail::__dtor<std::__ndk1::__variant_detail::__traits<geode::Hook*, std::__ndk1::basic_string<char, std::__ndk1::char_traits<char>, std::__ndk1::allocator<char> > >, (std::__ndk1::__variant_detail::_Trait)1>, std::__ndk1::__variant_detail::__base<(std::__ndk1::__variant_detail::__traits<geode::Hook*, std::__ndk1::basic_string<char, std::__ndk1::char_traits<char>, std::__ndk1::allocator<char> > >)1, geode::Hook, std::__ndk1::allocator<char> >&)
PUBLIC 13ecc 0 std::__ndk1::__tree<std::__ndk1::__value_type<std::__ndk1::basic_string<char, std::__ndk1::char_traits<char>, std::__ndk1::allocator<char> >, std::__ndk1::shared_ptr<geode::Hook> >, std::__ndk1::__map_value_compare<std::__ndk1::basic_string<char, std::__ndk1::char_traits<char>, std::__ndk1::allocator<char> >, std::__ndk1::__value_type<std::__ndk1::basic_string<char, std::__ndk1::char_traits<char>, std::__ndk1::allocator<char> >, std::__ndk1::shared_ptr<geode::Hook> >, std::__ndk1::less<std::__ndk1::basic_string<char, std::__ndk1::char_traits<char>, std::__ndk1::allocator<char> > >, true>, std::__ndk1::allocator<std::__ndk1::__value_type<std::__ndk1::basic_string<char, std::__ndk1::char_traits<char>, std::__ndk1::allocator<char> >, std::__ndk1::shared_ptr<geode::Hook> > > >::find<std::__ndk1::basic_string<char, std::__ndk1::char_traits<char>, std::__ndk1::allocator<char> > >(std::__ndk1::basic_string<char, std::__ndk1::char_traits<char>, std::__ndk1::allocator<char> > const&)
PUBLIC 13fec 0 std::__ndk1::__tree<std::__ndk1::__value_type<std::__ndk1::basic_string<char, std::__ndk1::char_traits<char>, std::__ndk1::allocator<char> >, std::__ndk1::shared_ptr<geode::Hook> >, std::__ndk1::__map_value_compare<std::__ndk1::basic_string<char, std::__ndk1::char_traits<char>, std::__ndk1::allocator<char> >, std::__ndk1::__value_type<std::__ndk1::basic_string<char, std::__ndk1::char_traits<char>, std::__ndk1::allocator<char> >, std::__ndk1::shared_ptr<geode::Hook> >, std::__ndk1::less<std::__ndk1::basic_string<char, std::__ndk1::char_traits<char>, std::__ndk1::allocator<char> > >, true>, std::__ndk1::allocator<std::__ndk1::__value_type<std::__ndk1::basic_string<char, std::__ndk1::char_traits<char>, std::__ndk1::allocator<char> >, std::__ndk1::shared_ptr<geode::Hook> > > >::erase(std::__ndk1::__tree_const_iterator<std::__ndk1::__value_type<std::__ndk1::basic_string<char, std::__ndk1::char_traits<char>, std::__ndk1::allocator<char> >, std::__ndk1::shared_ptr<geode::Hook> >, std::__ndk1::__tree_node<std::__ndk1::__value_type<std::__ndk1::basic_string<char, std::__ndk1::char_traits<char>, std::__ndk1::allocator<char> >, std::__ndk1::shared_ptr<geode::Hook> >, void*>*, long>)
PUBLIC 140c0 0 std::__ndk1::__tree_remove[abi:ne180000]<std::__ndk1::__tree_node_base<void*>*>(std::__ndk1::__tree_node_base<void*>*, std::__ndk1::__tree_node_base<void*>*)
PUBLIC 14488 0 std::__ndk1::__tree<std::__ndk1::__value_type<std::__ndk1::basic_string<char, std::__ndk1::char_traits<char>, std::__ndk1::allocator<char> >, std::__ndk1::shared_ptr<geode::Hook> >, std::__ndk1::__map_value_compare<std::__ndk1::basic_string<char, std::__ndk1::char_traits<char>, std::__ndk1::allocator<char> >, std::__ndk1::__value_type<std::__ndk1::basic_string<char, std::__ndk1::char_traits<char>, std::__ndk1::allocator<char> >, std::__ndk1::shared_ptr<geode::Hook> >, std::__ndk1::less<std::__ndk1::basic_string<char, std::__ndk1::char_traits<char>, std::__ndk1::allocator<char> > >, true>, std::__ndk1::allocator<std::__ndk1::__value_type<std::__ndk1::basic_string<char, std::__ndk1::char_traits<char>, std::__ndk1::allocator<char> >, std::__ndk1::shared_ptr<geode::Hook> > > >::destroy(std::__ndk1::__tree_node<std::__ndk1::__value_type<std::__ndk1::basic_string<char, std::__ndk1::char_traits<char>, std::__ndk1::allocator<char> >, std::__ndk1::shared_ptr<geode::Hook> >, void*>*)
PUBLIC 14514 0 geode::modifier::AsStaticFunction_loadFromComment<DBCommentCell, void (DBCommentCell::*)(GJComment*)>::Impl<void (DBCommentCell::*)(GJComment*)>::function(DBCommentCell*, GJComment*)
PUBLIC 14b18 0 std::__ndk1::shared_ptr<tulip::hook::CallingConvention>::~shared_ptr[abi:ne180000]()
PUBLIC 14b68 0 tulip::hook::HandlerMetadata::~HandlerMetadata()
PUBLIC 14bcc 0 DBCommentCell::onBadge(cocos2d::CCObject*)
PUBLIC 14d38 0 geode::Mod::getSettingValue<bool>(std::__ndk1::basic_string_view<char, std::__ndk1::char_traits<char> >) const
PUBLIC 14e6c 0 geode::cast::traverseTypeinfoFor(void*, geode::cast::ClassTypeinfoType const*, char const*)
PUBLIC 14f70 0 std::__ndk1::__tree<std::__ndk1::__value_type<std::__ndk1::basic_string<char, std::__ndk1::char_traits<char>, std::__ndk1::allocator<char> >, std::__ndk1::shared_ptr<geode::Hook> >, std::__ndk1::__map_value_compare<std::__ndk1::basic_string<char, std::__ndk1::char_traits<char>, std::__ndk1::allocator<char> >, std::__ndk1::__value_type<std::__ndk1::basic_string<char, std::__ndk1::char_traits<char>, std::__ndk1::allocator<char> >, std::__ndk1::shared_ptr<geode::Hook> >, std::__ndk1::less<std::__ndk1::basic_string<char, std::__ndk1::char_traits<char>, std::__ndk1::allocator<char> > >, true>, std::__ndk1::allocator<std::__ndk1::__value_type<std::__ndk1::basic_string<char, std::__ndk1::char_traits<char>, std::__ndk1::allocator<char> >, std::__ndk1::shared_ptr<geode::Hook> > > >::__emplace_unique_key_args<std::__ndk1::basic_string<char, std::__ndk1::char_traits<char>, std::__ndk1::allocator<char> >, std::__ndk1::piecewise_construct_t const&, std::__ndk1::tuple<std::__ndk1::basic_string<char, std::__ndk1::char_traits<char>, std::__ndk1::allocator<char> >&&>, std::__ndk1::tuple<> >(std::__ndk1::basic_string<char, std::__ndk1::char_traits<char>, std::__ndk1::allocator<char> > const&, std::__ndk1::piecewise_construct_t const&, std::__ndk1::tuple<std::__ndk1::basic_string<char, std::__ndk1::char_traits<char>, std::__ndk1::allocator<char> >&&>, std::__ndk1::tuple<>)
PUBLIC 150e8 0 std::__ndk1::__tree_balance_after_insert[abi:ne180000]<std::__ndk1::__tree_node_base<void*>*>(std::__ndk1::__tree_node_base<void*>*, std::__ndk1::__tree_node_base<void*>*)
PUBLIC 15298 0 __cxx_global_var_init.2
PUBLIC 15718 0 geode::modifier::ModifyBase<geode::modifier::ModifyDerive<DBMenuLayer, MenuLayer> >::~ModifyBase()
PUBLIC 15734 0 geode::modifier::ModifyDerive<DBMenuLayer, MenuLayer>::apply()
PUBLIC 15a3c 0 geode::modifier::ModifyBase<geode::modifier::ModifyDerive<DBMenuLayer, MenuLayer> >::apply()
PUBLIC 15a40 0 geode::modifier::AsStaticFunction_init<DBMenuLayer, bool (DBMenuLayer::*)()>::Impl<bool (DBMenuLayer::*)()>::function(DBMenuLayer*)
PUBLIC 16450 0 geode::addresser::Addresser::addressOfVirtual<bool, MenuLayer, >(bool (MenuLayer::*)())
PUBLIC 164f8 0 MenuLayer::MenuLayer(geode::ZeroConstructorType)
PUBLIC 16594 0 std::__ndk1::__optional_destruct_base<geode::Task<geode::utils::web::WebResponse, geode::utils::web::WebProgress>, false>::~__optional_destruct_base[abi:ne180000]()
PUBLIC 165ec 0 geode::Task<geode::utils::web::WebResponse, geode::utils::web::WebProgress>::~Task()
PUBLIC 1663c 0 std::__ndk1::shared_ptr<geode::Task<geode::utils::web::WebResponse, geode::utils::web::WebProgress>::Handle>::~shared_ptr[abi:ne180000]()
PUBLIC 1668c 0 geode::Task<geode::utils::web::WebResponse, geode::utils::web::WebProgress>::cancel(std::__ndk1::shared_ptr<geode::Task<geode::utils::web::WebResponse, geode::utils::web::WebProgress>::Handle>, bool)
PUBLIC 167f0 0 geode::Task<geode::utils::web::WebResponse, geode::utils::web::WebProgress>::finish(std::__ndk1::shared_ptr<geode::Task<geode::utils::web::WebResponse, geode::utils::web::WebProgress>::Handle>, geode::utils::web::WebResponse&&)
PUBLIC 16994 0 DBMenuLayer::init()::{lambda(geode::utils::web::WebResponse*)#1}::operator()(geode::utils::web::WebResponse*) const
PUBLIC 17710 0 geode::utils::web::WebResponse::~WebResponse()
PUBLIC 17760 0 std::__ndk1::__shared_ptr_emplace<geode::Task<geode::utils::web::WebResponse, geode::utils::web::WebProgress>::Handle, std::__ndk1::allocator<geode::Task<geode::utils::web::WebResponse, geode::utils::web::WebProgress>::Handle> >::~__shared_ptr_emplace()
PUBLIC 17770 0 std::__ndk1::__shared_ptr_emplace<geode::Task<geode::utils::web::WebResponse, geode::utils::web::WebProgress>::Handle, std::__ndk1::allocator<geode::Task<geode::utils::web::WebResponse, geode::utils::web::WebProgress>::Handle> >::~__shared_ptr_emplace()
PUBLIC 177a0 0 std::__ndk1::__shared_ptr_emplace<geode::Task<geode::utils::web::WebResponse, geode::utils::web::WebProgress>::Handle, std::__ndk1::allocator<geode::Task<geode::utils::web::WebResponse, geode::utils::web::WebProgress>::Handle> >::__on_zero_shared()
PUBLIC 17884 0 std::__ndk1::__shared_ptr_emplace<geode::Task<geode::utils::web::WebResponse, geode::utils::web::WebProgress>::Handle, std::__ndk1::allocator<geode::Task<geode::utils::web::WebResponse, geode::utils::web::WebProgress>::Handle> >::__on_zero_shared_weak()
PUBLIC 17888 0 std::__ndk1::__optional_destruct_base<geode::utils::web::WebResponse, false>::~__optional_destruct_base[abi:ne180000]()
PUBLIC 178e0 0 geode::Task<geode::utils::web::WebResponse, geode::utils::web::WebProgress>::cancel(std::__ndk1::shared_ptr<geode::Task<geode::utils::web::WebResponse, geode::utils::web::WebProgress>::Handle>, bool)::{lambda()#1}::~{lambda()#1}()
PUBLIC 17930 0 std::__ndk1::__function::__func<geode::Task<geode::utils::web::WebResponse, geode::utils::web::WebProgress>::cancel(std::__ndk1::shared_ptr<geode::Task<geode::utils::web::WebResponse, geode::utils::web::WebProgress>::Handle>, bool)::{lambda()#1}, std::__ndk1::allocator<geode::Task<geode::utils::web::WebResponse, geode::utils::web::WebProgress>::cancel(std::__ndk1::shared_ptr<geode::Task<geode::utils::web::WebResponse, geode::utils::web::WebProgress>::Handle>, bool)::{lambda()#1}>, void ()>::~__func()
PUBLIC 1798c 0 std::__ndk1::__function::__func<geode::Task<geode::utils::web::WebResponse, geode::utils::web::WebProgress>::cancel(std::__ndk1::shared_ptr<geode::Task<geode::utils::web::WebResponse, geode::utils::web::WebProgress>::Handle>, bool)::{lambda()#1}, std::__ndk1::allocator<geode::Task<geode::utils::web::WebResponse, geode::utils::web::WebProgress>::cancel(std::__ndk1::shared_ptr<geode::Task<geode::utils::web::WebResponse, geode::utils::web::WebProgress>::Handle>, bool)::{lambda()#1}>, void ()>::~__func()
PUBLIC 179f8 0 std::__ndk1::__function::__func<geode::Task<geode::utils::web::WebResponse, geode::utils::web::WebProgress>::cancel(std::__ndk1::shared_ptr<geode::Task<geode::utils::web::WebResponse, geode::utils::web::WebProgress>::Handle>, bool)::{lambda()#1}, std::__ndk1::allocator<geode::Task<geode::utils::web::WebResponse, geode::utils::web::WebProgress>::cancel(std::__ndk1::shared_ptr<geode::Task<geode::utils::web::WebResponse, geode::utils::web::WebProgress>::Handle>, bool)::{lambda()#1}>, void ()>::__clone() const
PUBLIC 17a48 0 std::__ndk1::__function::__func<geode::Task<geode::utils::web::WebResponse, geode::utils::web::WebProgress>::cancel(std::__ndk1::shared_ptr<geode::Task<geode::utils::web::WebResponse, geode::utils::web::WebProgress>::Handle>, bool)::{lambda()#1}, std::__ndk1::allocator<geode::Task<geode::utils::web::WebResponse, geode::utils::web::WebProgress>::cancel(std::__ndk1::shared_ptr<geode::Task<geode::utils::web::WebResponse, geode::utils::web::WebProgress>::Handle>, bool)::{lambda()#1}>, void ()>::__clone(std::__ndk1::__function::__base<void ()>*) const
PUBLIC 17a7c 0 std::__ndk1::__function::__func<geode::Task<geode::utils::web::WebResponse, geode::utils::web::WebProgress>::cancel(std::__ndk1::shared_ptr<geode::Task<geode::utils::web::WebResponse, geode::utils::web::WebProgress>::Handle>, bool)::{lambda()#1}, std::__ndk1::allocator<geode::Task<geode::utils::web::WebResponse, geode::utils::web::WebProgress>::cancel(std::__ndk1::shared_ptr<geode::Task<geode::utils::web::WebResponse, geode::utils::web::WebProgress>::Handle>, bool)::{lambda()#1}>, void ()>::destroy()
PUBLIC 17acc 0 std::__ndk1::__function::__func<geode::Task<geode::utils::web::WebResponse, geode::utils::web::WebProgress>::cancel(std::__ndk1::shared_ptr<geode::Task<geode::utils::web::WebResponse, geode::utils::web::WebProgress>::Handle>, bool)::{lambda()#1}, std::__ndk1::allocator<geode::Task<geode::utils::web::WebResponse, geode::utils::web::WebProgress>::cancel(std::__ndk1::shared_ptr<geode::Task<geode::utils::web::WebResponse, geode::utils::web::WebProgress>::Handle>, bool)::{lambda()#1}>, void ()>::destroy_deallocate()
PUBLIC 17b2c 0 std::__ndk1::__function::__func<geode::Task<geode::utils::web::WebResponse, geode::utils::web::WebProgress>::cancel(std::__ndk1::shared_ptr<geode::Task<geode::utils::web::WebResponse, geode::utils::web::WebProgress>::Handle>, bool)::{lambda()#1}, std::__ndk1::allocator<geode::Task<geode::utils::web::WebResponse, geode::utils::web::WebProgress>::cancel(std::__ndk1::shared_ptr<geode::Task<geode::utils::web::WebResponse, geode::utils::web::WebProgress>::Handle>, bool)::{lambda()#1}>, void ()>::operator()()
PUBLIC 17ce8 0 std::__ndk1::__function::__func<geode::Task<geode::utils::web::WebResponse, geode::utils::web::WebProgress>::cancel(std::__ndk1::shared_ptr<geode::Task<geode::utils::web::WebResponse, geode::utils::web::WebProgress>::Handle>, bool)::{lambda()#1}, std::__ndk1::allocator<geode::Task<geode::utils::web::WebResponse, geode::utils::web::WebProgress>::cancel(std::__ndk1::shared_ptr<geode::Task<geode::utils::web::WebResponse, geode::utils::web::WebProgress>::Handle>, bool)::{lambda()#1}>, void ()>::target(std::type_info const&) const
PUBLIC 17d04 0 std::__ndk1::__function::__func<geode::Task<geode::utils::web::WebResponse, geode::utils::web::WebProgress>::cancel(std::__ndk1::shared_ptr<geode::Task<geode::utils::web::WebResponse, geode::utils::web::WebProgress>::Handle>, bool)::{lambda()#1}, std::__ndk1::allocator<geode::Task<geode::utils::web::WebResponse, geode::utils::web::WebProgress>::cancel(std::__ndk1::shared_ptr<geode::Task<geode::utils::web::WebResponse, geode::utils::web::WebProgress>::Handle>, bool)::{lambda()#1}>, void ()>::target_type() const
PUBLIC 17d10 0 geode::Task<geode::utils::web::WebResponse, geode::utils::web::WebProgress>::Event::~Event()
PUBLIC 17d70 0 geode::Task<geode::utils::web::WebResponse, geode::utils::web::WebProgress>::Event::~Event()
PUBLIC 17de0 0 geode::Task<geode::utils::web::WebResponse, geode::utils::web::WebProgress>::finish(std::__ndk1::shared_ptr<geode::Task<geode::utils::web::WebResponse, geode::utils::web::WebProgress>::Handle>, geode::utils::web::WebResponse&&)::{lambda()#1}::~{lambda()#1}()
PUBLIC 17e30 0 std::__ndk1::__function::__func<geode::Task<geode::utils::web::WebResponse, geode::utils::web::WebProgress>::finish(std::__ndk1::shared_ptr<geode::Task<geode::utils::web::WebResponse, geode::utils::web::WebProgress>::Handle>, geode::utils::web::WebResponse&&)::{lambda()#1}, std::__ndk1::allocator<geode::Task<geode::utils::web::WebResponse, geode::utils::web::WebProgress>::finish(std::__ndk1::shared_ptr<geode::Task<geode::utils::web::WebResponse, geode::utils::web::WebProgress>::Handle>, geode::utils::web::WebResponse&&)::{lambda()#1}>, void ()>::~__func()
PUBLIC 17e8c 0 std::__ndk1::__function::__func<geode::Task<geode::utils::web::WebResponse, geode::utils::web::WebProgress>::finish(std::__ndk1::shared_ptr<geode::Task<geode::utils::web::WebResponse, geode::utils::web::WebProgress>::Handle>, geode::utils::web::WebResponse&&)::{lambda()#1}, std::__ndk1::allocator<geode::Task<geode::utils::web::WebResponse, geode::utils::web::WebProgress>::finish(std::__ndk1::shared_ptr<geode::Task<geode::utils::web::WebResponse, geode::utils::web::WebProgress>::Handle>, geode::utils::web::WebResponse&&)::{lambda()#1}>, void ()>::~__func()
PUBLIC 17ef8 0 std::__ndk1::__function::__func<geode::Task<geode::utils::web::WebResponse, geode::utils::web::WebProgress>::finish(std::__ndk1::shared_ptr<geode::Task<geode::utils::web::WebResponse, geode::utils::web::WebProgress>::Handle>, geode::utils::web::WebResponse&&)::{lambda()#1}, std::__ndk1::allocator<geode::Task<geode::utils::web::WebResponse, geode::utils::web::WebProgress>::finish(std::__ndk1::shared_ptr<geode::Task<geode::utils::web::WebResponse, geode::utils::web::WebProgress>::Handle>, geode::utils::web::WebResponse&&)::{lambda()#1}>, void ()>::__clone() const
PUBLIC 17f50 0 std::__ndk1::__function::__func<geode::Task<geode::utils::web::WebResponse, geode::utils::web::WebProgress>::finish(std::__ndk1::shared_ptr<geode::Task<geode::utils::web::WebResponse, geode::utils::web::WebProgress>::Handle>, geode::utils::web::WebResponse&&)::{lambda()#1}, std::__ndk1::allocator<geode::Task<geode::utils::web::WebResponse, geode::utils::web::WebProgress>::finish(std::__ndk1::shared_ptr<geode::Task<geode::utils::web::WebResponse, geode::utils::web::WebProgress>::Handle>, geode::utils::web::WebResponse&&)::{lambda()#1}>, void ()>::__clone(std::__ndk1::__function::__base<void ()>*) const
PUBLIC 17f9c 0 std::__ndk1::__function::__func<geode::Task<geode::utils::web::WebResponse, geode::utils::web::WebProgress>::finish(std::__ndk1::shared_ptr<geode::Task<geode::utils::web::WebResponse, geode::utils::web::WebProgress>::Handle>, geode::utils::web::WebResponse&&)::{lambda()#1}, std::__ndk1::allocator<geode::Task<geode::utils::web::WebResponse, geode::utils::web::WebProgress>::finish(std::__ndk1::shared_ptr<geode::Task<geode::utils::web::WebResponse, geode::utils::web::WebProgress>::Handle>, geode::utils::web::WebResponse&&)::{lambda()#1}>, void ()>::destroy()
PUBLIC 17fec 0 std::__ndk1::__function::__func<geode::Task<geode::utils::web::WebResponse, geode::utils::web::WebProgress>::finish(std::__ndk1::shared_ptr<geode::Task<geode::utils::web::WebResponse, geode::utils::web::WebProgress>::Handle>, geode::utils::web::WebResponse&&)::{lambda()#1}, std::__ndk1::allocator<geode::Task<geode::utils::web::WebResponse, geode::utils::web::WebProgress>::finish(std::__ndk1::shared_ptr<geode::Task<geode::utils::web::WebResponse, geode::utils::web::WebProgress>::Handle>, geode::utils::web::WebResponse&&)::{lambda()#1}>, void ()>::destroy_deallocate()
PUBLIC 1804c 0 std::__ndk1::__function::__func<geode::Task<geode::utils::web::WebResponse, geode::utils::web::WebProgress>::finish(std::__ndk1::shared_ptr<geode::Task<geode::utils::web::WebResponse, geode::utils::web::WebProgress>::Handle>, geode::utils::web::WebResponse&&)::{lambda()#1}, std::__ndk1::allocator<geode::Task<geode::utils::web::WebResponse, geode::utils::web::WebProgress>::finish(std::__ndk1::shared_ptr<geode::Task<geode::utils::web::WebResponse, geode::utils::web::WebProgress>::Handle>, geode::utils::web::WebResponse&&)::{lambda()#1}>, void ()>::operator()()
PUBLIC 18218 0 std::__ndk1::__function::__func<geode::Task<geode::utils::web::WebResponse, geode::utils::web::WebProgress>::finish(std::__ndk1::shared_ptr<geode::Task<geode::utils::web::WebResponse, geode::utils::web::WebProgress>::Handle>, geode::utils::web::WebResponse&&)::{lambda()#1}, std::__ndk1::allocator<geode::Task<geode::utils::web::WebResponse, geode::utils::web::WebProgress>::finish(std::__ndk1::shared_ptr<geode::Task<geode::utils::web::WebResponse, geode::utils::web::WebProgress>::Handle>, geode::utils::web::WebResponse&&)::{lambda()#1}>, void ()>::target(std::type_info const&) const
PUBLIC 18234 0 std::__ndk1::__function::__func<geode::Task<geode::utils::web::WebResponse, geode::utils::web::WebProgress>::finish(std::__ndk1::shared_ptr<geode::Task<geode::utils::web::WebResponse, geode::utils::web::WebProgress>::Handle>, geode::utils::web::WebResponse&&)::{lambda()#1}, std::__ndk1::allocator<geode::Task<geode::utils::web::WebResponse, geode::utils::web::WebProgress>::finish(std::__ndk1::shared_ptr<geode::Task<geode::utils::web::WebResponse, geode::utils::web::WebProgress>::Handle>, geode::utils::web::WebResponse&&)::{lambda()#1}>, void ()>::target_type() const
PUBLIC 18240 0 std::__ndk1::vector<matjson::Value, std::__ndk1::allocator<matjson::Value> >::~vector[abi:ne180000]()
PUBLIC 182a8 0 geode::impl::ResultData<std::__ndk1::vector<matjson::Value, std::__ndk1::allocator<matjson::Value> >&, std::__ndk1::basic_string<char, std::__ndk1::char_traits<char>, std::__ndk1::allocator<char> > >::~ResultData()
PUBLIC 1831c 0 std::__ndk1::__variant_detail::__visitation::__base::__dispatcher<(unsigned long)0>::__dispatch[abi:ne180000]<std::__ndk1::__variant_detail::__dtor<std::__ndk1::__variant_detail::__traits<matjson::Value, std::__ndk1::basic_string<char, std::__ndk1::char_traits<char>, std::__ndk1::allocator<char> > >, (std::__ndk1::__variant_detail::_Trait)1>::__destroy[abi:ne180000]()::{lambda(auto:1&)#1}, std::__ndk1::__variant_detail::__base<(std::__ndk1::__variant_detail::__traits<matjson::Value, std::__ndk1::basic_string<char, std::__ndk1::char_traits<char>, std::__ndk1::allocator<char> > >)1, matjson, std::__ndk1::allocator<char> >&>(std::__ndk1::__variant_detail::__dtor<std::__ndk1::__variant_detail::__traits<matjson::Value, std::__ndk1::basic_string<char, std::__ndk1::char_traits<char>, std::__ndk1::allocator<char> > >, (std::__ndk1::__variant_detail::_Trait)1>, std::__ndk1::__variant_detail::__base<(std::__ndk1::__variant_detail::__traits<matjson::Value, std::__ndk1::basic_string<char, std::__ndk1::char_traits<char>, std::__ndk1::allocator<char> > >)1, matjson, std::__ndk1::allocator<char> >&)
PUBLIC 18324 0 std::__ndk1::__variant_detail::__visitation::__base::__dispatcher<(unsigned long)1>::__dispatch[abi:ne180000]<std::__ndk1::__variant_detail::__dtor<std::__ndk1::__variant_detail::__traits<matjson::Value, std::__ndk1::basic_string<char, std::__ndk1::char_traits<char>, std::__ndk1::allocator<char> > >, (std::__ndk1::__variant_detail::_Trait)1>::__destroy[abi:ne180000]()::{lambda(auto:1&)#1}, std::__ndk1::__variant_detail::__base<(std::__ndk1::__variant_detail::__traits<matjson::Value, std::__ndk1::basic_string<char, std::__ndk1::char_traits<char>, std::__ndk1::allocator<char> > >)1, matjson, std::__ndk1::allocator<char> >&>(std::__ndk1::__variant_detail::__dtor<std::__ndk1::__variant_detail::__traits<matjson::Value, std::__ndk1::basic_string<char, std::__ndk1::char_traits<char>, std::__ndk1::allocator<char> > >, (std::__ndk1::__variant_detail::_Trait)1>, std::__ndk1::__variant_detail::__base<(std::__ndk1::__variant_detail::__traits<matjson::Value, std::__ndk1::basic_string<char, std::__ndk1::char_traits<char>, std::__ndk1::allocator<char> > >)1, matjson, std::__ndk1::allocator<char> >&)
PUBLIC 18338 0 geode::impl::ResultData<long, std::__ndk1::basic_string<char, std::__ndk1::char_traits<char>, std::__ndk1::allocator<char> > >::unwrap() &&
PUBLIC 183b0 0 geode::impl::ResultData<long, std::__ndk1::basic_string<char, std::__ndk1::char_traits<char>, std::__ndk1::allocator<char> > >::~ResultData()
PUBLIC 18424 0 geode::impl::ResultData<std::__ndk1::basic_string<char, std::__ndk1::char_traits<char>, std::__ndk1::allocator<char> >, std::__ndk1::basic_string<char, std::__ndk1::char_traits<char>, std::__ndk1::allocator<char> > >::~ResultData()
PUBLIC 18498 0 _ZN5geode15UnwrapExceptionC2IRNSt6__ndk112basic_stringIcNS2_11char_traitsIcEENS2_9allocatorIcEEEEQsr4implE18IsStringStreamableIT_EEENS_4impl6ErrTagEOSA_
PUBLIC 18600 0 std::__ndk1::__variant_detail::__visitation::__base::__dispatcher<(unsigned long)0>::__dispatch[abi:ne180000]<std::__ndk1::__variant_detail::__dtor<std::__ndk1::__variant_detail::__traits<long, std::__ndk1::basic_string<char, std::__ndk1::char_traits<char>, std::__ndk1::allocator<char> > >, (std::__ndk1::__variant_detail::_Trait)1>::__destroy[abi:ne180000]()::{lambda(auto:1&)#1}, std::__ndk1::__variant_detail::__base<(std::__ndk1::__variant_detail::__traits<long, std::__ndk1::basic_string<char, std::__ndk1::char_traits<char>, std::__ndk1::allocator<char> > >)1, long, std::__ndk1::allocator<char> >&>(std::__ndk1::__variant_detail::__dtor<std::__ndk1::__variant_detail::__traits<long, std::__ndk1::basic_string<char, std::__ndk1::char_traits<char>, std::__ndk1::allocator<char> > >, (std::__ndk1::__variant_detail::_Trait)1>, std::__ndk1::__variant_detail::__base<(std::__ndk1::__variant_detail::__traits<long, std::__ndk1::basic_string<char, std::__ndk1::char_traits<char>, std::__ndk1::allocator<char> > >)1, long, std::__ndk1::allocator<char> >&)
PUBLIC 18604 0 std::__ndk1::__variant_detail::__visitation::__base::__dispatcher<(unsigned long)1>::__dispatch[abi:ne180000]<std::__ndk1::__variant_detail::__dtor<std::__ndk1::__variant_detail::__traits<long, std::__ndk1::basic_string<char, std::__ndk1::char_traits<char>, std::__ndk1::allocator<char> > >, (std::__ndk1::__variant_detail::_Trait)1>::__destroy[abi:ne180000]()::{lambda(auto:1&)#1}, std::__ndk1::__variant_detail::__base<(std::__ndk1::__variant_detail::__traits<long, std::__ndk1::basic_string<char, std::__ndk1::char_traits<char>, std::__ndk1::allocator<char> > >)1, long, std::__ndk1::allocator<char> >&>(std::__ndk1::__variant_detail::__dtor<std::__ndk1::__variant_detail::__traits<long, std::__ndk1::basic_string<char, std::__ndk1::char_traits<char>, std::__ndk1::allocator<char> > >, (std::__ndk1::__variant_detail::_Trait)1>, std::__ndk1::__variant_detail::__base<(std::__ndk1::__variant_detail::__traits<long, std::__ndk1::basic_string<char, std::__ndk1::char_traits<char>, std::__ndk1::allocator<char> > >)1, long, std::__ndk1::allocator<char> >&)
PUBLIC 18618 0 std::__ndk1::__variant_detail::__visitation::__base::__dispatcher<(unsigned long)0>::__dispatch[abi:ne180000]<std::__ndk1::__variant_detail::__dtor<std::__ndk1::__variant_detail::__traits<std::__ndk1::basic_string<char, std::__ndk1::char_traits<char>, std::__ndk1::allocator<char> >, std::__ndk1::allocator<char> >, (std::__ndk1::__variant_detail::_Trait)1>::__destroy[abi:ne180000]()::{lambda(auto:1&)#1}, std::__ndk1::__variant_detail::__base<(std::__ndk1::__variant_detail::__traits<std::__ndk1::basic_string<char, std::__ndk1::char_traits<char>, std::__ndk1::allocator<char> >, std::__ndk1::allocator<char> >)1, std::__ndk1::allocator<char>, std::__ndk1::allocator<char> >&>(std::__ndk1::__variant_detail::__dtor<std::__ndk1::__variant_detail::__traits<std::__ndk1::basic_string<char, std::__ndk1::char_traits<char>, std::__ndk1::allocator<char> >, std::__ndk1::allocator<char> >, (std::__ndk1::__variant_detail::_Trait)1>, std::__ndk1::__variant_detail::__base<(std::__ndk1::__variant_detail::__traits<std::__ndk1::basic_string<char, std::__ndk1::char_traits<char>, std::__ndk1::allocator<char> >, std::__ndk1::allocator<char> >)1, std::__ndk1::allocator<char>, std::__ndk1::allocator<char> >&)
PUBLIC 1862c 0 std::__ndk1::__variant_detail::__visitation::__base::__dispatcher<(unsigned long)1>::__dispatch[abi:ne180000]<std::__ndk1::__variant_detail::__dtor<std::__ndk1::__variant_detail::__traits<std::__ndk1::basic_string<char, std::__ndk1::char_traits<char>, std::__ndk1::allocator<char> >, std::__ndk1::allocator<char> >, (std::__ndk1::__variant_detail::_Trait)1>::__destroy[abi:ne180000]()::{lambda(auto:1&)#1}, std::__ndk1::__variant_detail::__base<(std::__ndk1::__variant_detail::__traits<std::__ndk1::basic_string<char, std::__ndk1::char_traits<char>, std::__ndk1::allocator<char> >, std::__ndk1::allocator<char> >)1, std::__ndk1::allocator<char>, std::__ndk1::allocator<char> >&>(std::__ndk1::__variant_detail::__dtor<std::__ndk1::__variant_detail::__traits<std::__ndk1::basic_string<char, std::__ndk1::char_traits<char>, std::__ndk1::allocator<char> >, std::__ndk1::allocator<char> >, (std::__ndk1::__variant_detail::_Trait)1>, std::__ndk1::__variant_detail::__base<(std::__ndk1::__variant_detail::__traits<std::__ndk1::basic_string<char, std::__ndk1::char_traits<char>, std::__ndk1::allocator<char> >, std::__ndk1::allocator<char> >)1, std::__ndk1::allocator<char>, std::__ndk1::allocator<char> >&)
PUBLIC 18640 0 std::__ndk1::vector<DeveloperBadge, std::__ndk1::allocator<DeveloperBadge> >::__throw_length_error[abi:ne180000]() const
PUBLIC 18654 0 std::__ndk1::__split_buffer<matjson::Value, std::__ndk1::allocator<matjson::Value>&>::~__split_buffer()
PUBLIC 186a8 0 std::__ndk1::vector<matjson::Value, std::__ndk1::allocator<matjson::Value> >::__throw_length_error[abi:ne180000]() const
PUBLIC 186bc 0 std::__ndk1::__variant_detail::__visitation::__base::__dispatcher<(unsigned long)0>::__dispatch[abi:ne180000]<std::__ndk1::__variant_detail::__dtor<std::__ndk1::__variant_detail::__traits<std::__ndk1::reference_wrapper<std::__ndk1::vector<matjson::Value, std::__ndk1::allocator<matjson> > >, std::__ndk1::basic_string<char, std::__ndk1::char_traits<char>, matjson::Value<char> > >, (std::__ndk1::__variant_detail::_Trait)1>::__destroy[abi:ne180000]()::{lambda(auto:1&)#1}, std::__ndk1::__variant_detail::__base<(std::__ndk1::__variant_detail::__traits<std::__ndk1::reference_wrapper<std::__ndk1::vector<matjson::Value, std::__ndk1::allocator<matjson> > >, std::__ndk1::basic_string<char, std::__ndk1::char_traits<char>, matjson::Value<char> > >)1, std::__ndk1::vector<matjson::Value, std::__ndk1::allocator<matjson> >, matjson::Value<char> >&>(std::__ndk1::__variant_detail::__dtor<std::__ndk1::__variant_detail::__traits<std::__ndk1::reference_wrapper<std::__ndk1::vector<matjson::Value, std::__ndk1::allocator<matjson> > >, std::__ndk1::basic_string<char, std::__ndk1::char_traits<char>, matjson::Value<char> > >, (std::__ndk1::__variant_detail::_Trait)1>, std::__ndk1::__variant_detail::__base<(std::__ndk1::__variant_detail::__traits<std::__ndk1::reference_wrapper<std::__ndk1::vector<matjson::Value, std::__ndk1::allocator<matjson> > >, std::__ndk1::basic_string<char, std::__ndk1::char_traits<char>, matjson::Value<char> > >)1, std::__ndk1::vector<matjson::Value, std::__ndk1::allocator<matjson> >, matjson::Value<char> >&)
PUBLIC 186c0 0 std::__ndk1::__variant_detail::__visitation::__base::__dispatcher<(unsigned long)1>::__dispatch[abi:ne180000]<std::__ndk1::__variant_detail::__dtor<std::__ndk1::__variant_detail::__traits<std::__ndk1::reference_wrapper<std::__ndk1::vector<matjson::Value, std::__ndk1::allocator<matjson> > >, std::__ndk1::basic_string<char, std::__ndk1::char_traits<char>, matjson::Value<char> > >, (std::__ndk1::__variant_detail::_Trait)1>::__destroy[abi:ne180000]()::{lambda(auto:1&)#1}, std::__ndk1::__variant_detail::__base<(std::__ndk1::__variant_detail::__traits<std::__ndk1::reference_wrapper<std::__ndk1::vector<matjson::Value, std::__ndk1::allocator<matjson> > >, std::__ndk1::basic_string<char, std::__ndk1::char_traits<char>, matjson::Value<char> > >)1, std::__ndk1::vector<matjson::Value, std::__ndk1::allocator<matjson> >, matjson::Value<char> >&>(std::__ndk1::__variant_detail::__dtor<std::__ndk1::__variant_detail::__traits<std::__ndk1::reference_wrapper<std::__ndk1::vector<matjson::Value, std::__ndk1::allocator<matjson> > >, std::__ndk1::basic_string<char, std::__ndk1::char_traits<char>, matjson::Value<char> > >, (std::__ndk1::__variant_detail::_Trait)1>, std::__ndk1::__variant_detail::__base<(std::__ndk1::__variant_detail::__traits<std::__ndk1::reference_wrapper<std::__ndk1::vector<matjson::Value, std::__ndk1::allocator<matjson> > >, std::__ndk1::basic_string<char, std::__ndk1::char_traits<char>, matjson::Value<char> > >)1, std::__ndk1::vector<matjson::Value, std::__ndk1::allocator<matjson> >, matjson::Value<char> >&)
PUBLIC 186d4 0 std::__ndk1::__function::__func<geode::Task<geode::utils::web::WebResponse, geode::utils::web::WebProgress>::map<DBMenuLayer::init()::{lambda(geode::utils::web::WebResponse*)#1}, geode::utils::web::WebProgress (*)(geode::utils::web::WebProgress*), void (*)()>(DBMenuLayer::init()::{lambda(geode::utils::web::WebResponse*)#1}&&, geode::utils::web::WebProgress (*&&)(geode::utils::web::WebProgress*), void (*&&)(), std::__ndk1::basic_string_view<char, std::__ndk1::char_traits<char> >) const::{lambda(geode::Task<geode::utils::web::WebResponse, geode::utils::web::WebProgress>::Event*)#1}, std::__ndk1::allocator<geode::Task<geode::utils::web::WebResponse, geode::utils::web::WebProgress>::map<DBMenuLayer::init()::{lambda(geode::utils::web::WebResponse*)#1}, geode::utils::web::WebProgress (*)(geode::utils::web::WebProgress*), void (*)()>(DBMenuLayer::init()::{lambda(geode::utils::web::WebResponse*)#1}&&, geode::utils::web::WebProgress (*&&)(geode::utils::web::WebProgress*), void (*&&)(), std::__ndk1::basic_string_view<char, std::__ndk1::char_traits<char> >) const::{lambda(geode::Task<geode::utils::web::WebResponse, geode::utils::web::WebProgress>::Event*)#1}>, void (geode::Task<geode::utils::web::WebResponse, geode::utils::web::WebProgress>::Event*)>::~__func()
PUBLIC 186f4 0 std::__ndk1::__function::__func<geode::Task<geode::utils::web::WebResponse, geode::utils::web::WebProgress>::map<DBMenuLayer::init()::{lambda(geode::utils::web::WebResponse*)#1}, geode::utils::web::WebProgress (*)(geode::utils::web::WebProgress*), void (*)()>(DBMenuLayer::init()::{lambda(geode::utils::web::WebResponse*)#1}&&, geode::utils::web::WebProgress (*&&)(geode::utils::web::WebProgress*), void (*&&)(), std::__ndk1::basic_string_view<char, std::__ndk1::char_traits<char> >) const::{lambda(geode::Task<geode::utils::web::WebResponse, geode::utils::web::WebProgress>::Event*)#1}, std::__ndk1::allocator<geode::Task<geode::utils::web::WebResponse, geode::utils::web::WebProgress>::map<DBMenuLayer::init()::{lambda(geode::utils::web::WebResponse*)#1}, geode::utils::web::WebProgress (*)(geode::utils::web::WebProgress*), void (*)()>(DBMenuLayer::init()::{lambda(geode::utils::web::WebResponse*)#1}&&, geode::utils::web::WebProgress (*&&)(geode::utils::web::WebProgress*), void (*&&)(), std::__ndk1::basic_string_view<char, std::__ndk1::char_traits<char> >) const::{lambda(geode::Task<geode::utils::web::WebResponse, geode::utils::web::WebProgress>::Event*)#1}>, void (geode::Task<geode::utils::web::WebResponse, geode::utils::web::WebProgress>::Event*)>::~__func()
PUBLIC 18730 0 std::__ndk1::__function::__func<geode::Task<geode::utils::web::WebResponse, geode::utils::web::WebProgress>::map<DBMenuLayer::init()::{lambda(geode::utils::web::WebResponse*)#1}, geode::utils::web::WebProgress (*)(geode::utils::web::WebProgress*), void (*)()>(DBMenuLayer::init()::{lambda(geode::utils::web::WebResponse*)#1}&&, geode::utils::web::WebProgress (*&&)(geode::utils::web::WebProgress*), void (*&&)(), std::__ndk1::basic_string_view<char, std::__ndk1::char_traits<char> >) const::{lambda(geode::Task<geode::utils::web::WebResponse, geode::utils::web::WebProgress>::Event*)#1}, std::__ndk1::allocator<geode::Task<geode::utils::web::WebResponse, geode::utils::web::WebProgress>::map<DBMenuLayer::init()::{lambda(geode::utils::web::WebResponse*)#1}, geode::utils::web::WebProgress (*)(geode::utils::web::WebProgress*), void (*)()>(DBMenuLayer::init()::{lambda(geode::utils::web::WebResponse*)#1}&&, geode::utils::web::WebProgress (*&&)(geode::utils::web::WebProgress*), void (*&&)(), std::__ndk1::basic_string_view<char, std::__ndk1::char_traits<char> >) const::{lambda(geode::Task<geode::utils::web::WebResponse, geode::utils::web::WebProgress>::Event*)#1}>, void (geode::Task<geode::utils::web::WebResponse, geode::utils::web::WebProgress>::Event*)>::__clone() const
PUBLIC 18790 0 std::__ndk1::__function::__func<geode::Task<geode::utils::web::WebResponse, geode::utils::web::WebProgress>::map<DBMenuLayer::init()::{lambda(geode::utils::web::WebResponse*)#1}, geode::utils::web::WebProgress (*)(geode::utils::web::WebProgress*), void (*)()>(DBMenuLayer::init()::{lambda(geode::utils::web::WebResponse*)#1}&&, geode::utils::web::WebProgress (*&&)(geode::utils::web::WebProgress*), void (*&&)(), std::__ndk1::basic_string_view<char, std::__ndk1::char_traits<char> >) const::{lambda(geode::Task<geode::utils::web::WebResponse, geode::utils::web::WebProgress>::Event*)#1}, std::__ndk1::allocator<geode::Task<geode::utils::web::WebResponse, geode::utils::web::WebProgress>::map<DBMenuLayer::init()::{lambda(geode::utils::web::WebResponse*)#1}, geode::utils::web::WebProgress (*)(geode::utils::web::WebProgress*), void (*)()>(DBMenuLayer::init()::{lambda(geode::utils::web::WebResponse*)#1}&&, geode::utils::web::WebProgress (*&&)(geode::utils::web::WebProgress*), void (*&&)(), std::__ndk1::basic_string_view<char, std::__ndk1::char_traits<char> >) const::{lambda(geode::Task<geode::utils::web::WebResponse, geode::utils::web::WebProgress>::Event*)#1}>, void (geode::Task<geode::utils::web::WebResponse, geode::utils::web::WebProgress>::Event*)>::__clone(std::__ndk1::__function::__base<void (geode::Task<geode::utils::web::WebResponse, geode::utils::web::WebProgress>::Event*)>*) const
PUBLIC 187e4 0 std::__ndk1::__function::__func<geode::Task<geode::utils::web::WebResponse, geode::utils::web::WebProgress>::map<DBMenuLayer::init()::{lambda(geode::utils::web::WebResponse*)#1}, geode::utils::web::WebProgress (*)(geode::utils::web::WebProgress*), void (*)()>(DBMenuLayer::init()::{lambda(geode::utils::web::WebResponse*)#1}&&, geode::utils::web::WebProgress (*&&)(geode::utils::web::WebProgress*), void (*&&)(), std::__ndk1::basic_string_view<char, std::__ndk1::char_traits<char> >) const::{lambda(geode::Task<geode::utils::web::WebResponse, geode::utils::web::WebProgress>::Event*)#1}, std::__ndk1::allocator<geode::Task<geode::utils::web::WebResponse, geode::utils::web::WebProgress>::map<DBMenuLayer::init()::{lambda(geode::utils::web::WebResponse*)#1}, geode::utils::web::WebProgress (*)(geode::utils::web::WebProgress*), void (*)()>(DBMenuLayer::init()::{lambda(geode::utils::web::WebResponse*)#1}&&, geode::utils::web::WebProgress (*&&)(geode::utils::web::WebProgress*), void (*&&)(), std::__ndk1::basic_string_view<char, std::__ndk1::char_traits<char> >) const::{lambda(geode::Task<geode::utils::web::WebResponse, geode::utils::web::WebProgress>::Event*)#1}>, void (geode::Task<geode::utils::web::WebResponse, geode::utils::web::WebProgress>::Event*)>::destroy()
PUBLIC 187f4 0 std::__ndk1::__function::__func<geode::Task<geode::utils::web::WebResponse, geode::utils::web::WebProgress>::map<DBMenuLayer::init()::{lambda(geode::utils::web::WebResponse*)#1}, geode::utils::web::WebProgress (*)(geode::utils::web::WebProgress*), void (*)()>(DBMenuLayer::init()::{lambda(geode::utils::web::WebResponse*)#1}&&, geode::utils::web::WebProgress (*&&)(geode::utils::web::WebProgress*), void (*&&)(), std::__ndk1::basic_string_view<char, std::__ndk1::char_traits<char> >) const::{lambda(geode::Task<geode::utils::web::WebResponse, geode::utils::web::WebProgress>::Event*)#1}, std::__ndk1::allocator<geode::Task<geode::utils::web::WebResponse, geode::utils::web::WebProgress>::map<DBMenuLayer::init()::{lambda(geode::utils::web::WebResponse*)#1}, geode::utils::web::WebProgress (*)(geode::utils::web::WebProgress*), void (*)()>(DBMenuLayer::init()::{lambda(geode::utils::web::WebResponse*)#1}&&, geode::utils::web::WebProgress (*&&)(geode::utils::web::WebProgress*), void (*&&)(), std::__ndk1::basic_string_view<char, std::__ndk1::char_traits<char> >) const::{lambda(geode::Task<geode::utils::web::WebResponse, geode::utils::web::WebProgress>::Event*)#1}>, void (geode::Task<geode::utils::web::WebResponse, geode::utils::web::WebProgress>::Event*)>::destroy_deallocate()
PUBLIC 18824 0 std::__ndk1::__function::__func<geode::Task<geode::utils::web::WebResponse, geode::utils::web::WebProgress>::map<DBMenuLayer::init()::{lambda(geode::utils::web::WebResponse*)#1}, geode::utils::web::WebProgress (*)(geode::utils::web::WebProgress*), void (*)()>(DBMenuLayer::init()::{lambda(geode::utils::web::WebResponse*)#1}&&, geode::utils::web::WebProgress (*&&)(geode::utils::web::WebProgress*), void (*&&)(), std::__ndk1::basic_string_view<char, std::__ndk1::char_traits<char> >) const::{lambda(geode::Task<geode::utils::web::WebResponse, geode::utils::web::WebProgress>::Event*)#1}, std::__ndk1::allocator<geode::Task<geode::utils::web::WebResponse, geode::utils::web::WebProgress>::map<DBMenuLayer::init()::{lambda(geode::utils::web::WebResponse*)#1}, geode::utils::web::WebProgress (*)(geode::utils::web::WebProgress*), void (*)()>(DBMenuLayer::init()::{lambda(geode::utils::web::WebResponse*)#1}&&, geode::utils::web::WebProgress (*&&)(geode::utils::web::WebProgress*), void (*&&)(), std::__ndk1::basic_string_view<char, std::__ndk1::char_traits<char> >) const::{lambda(geode::Task<geode::utils::web::WebResponse, geode::utils::web::WebProgress>::Event*)#1}>, void (geode::Task<geode::utils::web::WebResponse, geode::utils::web::WebProgress>::Event*)>::operator()(geode::Task<geode::utils::web::WebResponse, geode::utils::web::WebProgress>::Event*&&)
PUBLIC 18b40 0 std::__ndk1::__function::__func<geode::Task<geode::utils::web::WebResponse, geode::utils::web::WebProgress>::map<DBMenuLayer::init()::{lambda(geode::utils::web::WebResponse*)#1}, geode::utils::web::WebProgress (*)(geode::utils::web::WebProgress*), void (*)()>(DBMenuLayer::init()::{lambda(geode::utils::web::WebResponse*)#1}&&, geode::utils::web::WebProgress (*&&)(geode::utils::web::WebProgress*), void (*&&)(), std::__ndk1::basic_string_view<char, std::__ndk1::char_traits<char> >) const::{lambda(geode::Task<geode::utils::web::WebResponse, geode::utils::web::WebProgress>::Event*)#1}, std::__ndk1::allocator<geode::Task<geode::utils::web::WebResponse, geode::utils::web::WebProgress>::map<DBMenuLayer::init()::{lambda(geode::utils::web::WebResponse*)#1}, geode::utils::web::WebProgress (*)(geode::utils::web::WebProgress*), void (*)()>(DBMenuLayer::init()::{lambda(geode::utils::web::WebResponse*)#1}&&, geode::utils::web::WebProgress (*&&)(geode::utils::web::WebProgress*), void (*&&)(), std::__ndk1::basic_string_view<char, std::__ndk1::char_traits<char> >) const::{lambda(geode::Task<geode::utils::web::WebResponse, geode::utils::web::WebProgress>::Event*)#1}>, void (geode::Task<geode::utils::web::WebResponse, geode::utils::web::WebProgress>::Event*)>::target(std::type_info const&) const
PUBLIC 18b5c 0 std::__ndk1::__function::__func<geode::Task<geode::utils::web::WebResponse, geode::utils::web::WebProgress>::map<DBMenuLayer::init()::{lambda(geode::utils::web::WebResponse*)#1}, geode::utils::web::WebProgress (*)(geode::utils::web::WebProgress*), void (*)()>(DBMenuLayer::init()::{lambda(geode::utils::web::WebResponse*)#1}&&, geode::utils::web::WebProgress (*&&)(geode::utils::web::WebProgress*), void (*&&)(), std::__ndk1::basic_string_view<char, std::__ndk1::char_traits<char> >) const::{lambda(geode::Task<geode::utils::web::WebResponse, geode::utils::web::WebProgress>::Event*)#1}, std::__ndk1::allocator<geode::Task<geode::utils::web::WebResponse, geode::utils::web::WebProgress>::map<DBMenuLayer::init()::{lambda(geode::utils::web::WebResponse*)#1}, geode::utils::web::WebProgress (*)(geode::utils::web::WebProgress*), void (*)()>(DBMenuLayer::init()::{lambda(geode::utils::web::WebResponse*)#1}&&, geode::utils::web::WebProgress (*&&)(geode::utils::web::WebProgress*), void (*&&)(), std::__ndk1::basic_string_view<char, std::__ndk1::char_traits<char> >) const::{lambda(geode::Task<geode::utils::web::WebResponse, geode::utils::web::WebProgress>::Event*)#1}>, void (geode::Task<geode::utils::web::WebResponse, geode::utils::web::WebProgress>::Event*)>::target_type() const
PUBLIC 18b68 0 geode::utils::web::WebProgress::~WebProgress()
PUBLIC 18bb8 0 geode::Task<geode::utils::web::WebResponse, geode::utils::web::WebProgress>::progress(std::__ndk1::shared_ptr<geode::Task<geode::utils::web::WebResponse, geode::utils::web::WebProgress>::Handle>, geode::utils::web::WebProgress&&)::{lambda()#1}::~{lambda()#1}()
PUBLIC 18c48 0 std::__ndk1::__function::__func<geode::Task<geode::utils::web::WebResponse, geode::utils::web::WebProgress>::progress(std::__ndk1::shared_ptr<geode::Task<geode::utils::web::WebResponse, geode::utils::web::WebProgress>::Handle>, geode::utils::web::WebProgress&&)::{lambda()#1}, std::__ndk1::allocator<geode::Task<geode::utils::web::WebResponse, geode::utils::web::WebProgress>::progress(std::__ndk1::shared_ptr<geode::Task<geode::utils::web::WebResponse, geode::utils::web::WebProgress>::Handle>, geode::utils::web::WebProgress&&)::{lambda()#1}>, void ()>::~__func()
PUBLIC 18ce4 0 std::__ndk1::__function::__func<geode::Task<geode::utils::web::WebResponse, geode::utils::web::WebProgress>::progress(std::__ndk1::shared_ptr<geode::Task<geode::utils::web::WebResponse, geode::utils::web::WebProgress>::Handle>, geode::utils::web::WebProgress&&)::{lambda()#1}, std::__ndk1::allocator<geode::Task<geode::utils::web::WebResponse, geode::utils::web::WebProgress>::progress(std::__ndk1::shared_ptr<geode::Task<geode::utils::web::WebResponse, geode::utils::web::WebProgress>::Handle>, geode::utils::web::WebProgress&&)::{lambda()#1}>, void ()>::~__func()
PUBLIC 18d80 0 std::__ndk1::__function::__func<geode::Task<geode::utils::web::WebResponse, geode::utils::web::WebProgress>::progress(std::__ndk1::shared_ptr<geode::Task<geode::utils::web::WebResponse, geode::utils::web::WebProgress>::Handle>, geode::utils::web::WebProgress&&)::{lambda()#1}, std::__ndk1::allocator<geode::Task<geode::utils::web::WebResponse, geode::utils::web::WebProgress>::progress(std::__ndk1::shared_ptr<geode::Task<geode::utils::web::WebResponse, geode::utils::web::WebProgress>::Handle>, geode::utils::web::WebProgress&&)::{lambda()#1}>, void ()>::__clone() const
PUBLIC 18de8 0 std::__ndk1::__function::__func<geode::Task<geode::utils::web::WebResponse, geode::utils::web::WebProgress>::progress(std::__ndk1::shared_ptr<geode::Task<geode::utils::web::WebResponse, geode::utils::web::WebProgress>::Handle>, geode::utils::web::WebProgress&&)::{lambda()#1}, std::__ndk1::allocator<geode::Task<geode::utils::web::WebResponse, geode::utils::web::WebProgress>::progress(std::__ndk1::shared_ptr<geode::Task<geode::utils::web::WebResponse, geode::utils::web::WebProgress>::Handle>, geode::utils::web::WebProgress&&)::{lambda()#1}>, void ()>::__clone(std::__ndk1::__function::__base<void ()>*) const
PUBLIC 18e44 0 std::__ndk1::__function::__func<geode::Task<geode::utils::web::WebResponse, geode::utils::web::WebProgress>::progress(std::__ndk1::shared_ptr<geode::Task<geode::utils::web::WebResponse, geode::utils::web::WebProgress>::Handle>, geode::utils::web::WebProgress&&)::{lambda()#1}, std::__ndk1::allocator<geode::Task<geode::utils::web::WebResponse, geode::utils::web::WebProgress>::progress(std::__ndk1::shared_ptr<geode::Task<geode::utils::web::WebResponse, geode::utils::web::WebProgress>::Handle>, geode::utils::web::WebProgress&&)::{lambda()#1}>, void ()>::destroy()
PUBLIC 18ed4 0 std::__ndk1::__function::__func<geode::Task<geode::utils::web::WebResponse, geode::utils::web::WebProgress>::progress(std::__ndk1::shared_ptr<geode::Task<geode::utils::web::WebResponse, geode::utils::web::WebProgress>::Handle>, geode::utils::web::WebProgress&&)::{lambda()#1}, std::__ndk1::allocator<geode::Task<geode::utils::web::WebResponse, geode::utils::web::WebProgress>::progress(std::__ndk1::shared_ptr<geode::Task<geode::utils::web::WebResponse, geode::utils::web::WebProgress>::Handle>, geode::utils::web::WebProgress&&)::{lambda()#1}>, void ()>::destroy_deallocate()
PUBLIC 18f64 0 std::__ndk1::__function::__func<geode::Task<geode::utils::web::WebResponse, geode::utils::web::WebProgress>::progress(std::__ndk1::shared_ptr<geode::Task<geode::utils::web::WebResponse, geode::utils::web::WebProgress>::Handle>, geode::utils::web::WebProgress&&)::{lambda()#1}, std::__ndk1::allocator<geode::Task<geode::utils::web::WebResponse, geode::utils::web::WebProgress>::progress(std::__ndk1::shared_ptr<geode::Task<geode::utils::web::WebResponse, geode::utils::web::WebProgress>::Handle>, geode::utils::web::WebProgress&&)::{lambda()#1}>, void ()>::operator()()
PUBLIC 19118 0 std::__ndk1::__function::__func<geode::Task<geode::utils::web::WebResponse, geode::utils::web::WebProgress>::progress(std::__ndk1::shared_ptr<geode::Task<geode::utils::web::WebResponse, geode::utils::web::WebProgress>::Handle>, geode::utils::web::WebProgress&&)::{lambda()#1}, std::__ndk1::allocator<geode::Task<geode::utils::web::WebResponse, geode::utils::web::WebProgress>::progress(std::__ndk1::shared_ptr<geode::Task<geode::utils::web::WebResponse, geode::utils::web::WebProgress>::Handle>, geode::utils::web::WebProgress&&)::{lambda()#1}>, void ()>::target(std::type_info const&) const
PUBLIC 19134 0 std::__ndk1::__function::__func<geode::Task<geode::utils::web::WebResponse, geode::utils::web::WebProgress>::progress(std::__ndk1::shared_ptr<geode::Task<geode::utils::web::WebResponse, geode::utils::web::WebProgress>::Handle>, geode::utils::web::WebProgress&&)::{lambda()#1}, std::__ndk1::allocator<geode::Task<geode::utils::web::WebResponse, geode::utils::web::WebProgress>::progress(std::__ndk1::shared_ptr<geode::Task<geode::utils::web::WebResponse, geode::utils::web::WebProgress>::Handle>, geode::utils::web::WebProgress&&)::{lambda()#1}>, void ()>::target_type() const
PUBLIC 19140 0 geode::EventListener<geode::Task<geode::utils::web::WebResponse, geode::utils::web::WebProgress> >::getPool() const
PUBLIC 19144 0 geode::EventListener<geode::Task<geode::utils::web::WebResponse, geode::utils::web::WebProgress> >::handle(geode::Event*)
PUBLIC 19310 0 geode::EventListener<geode::Task<geode::utils::web::WebResponse, geode::utils::web::WebProgress> >::~EventListener()
PUBLIC 193ac 0 geode::EventListener<geode::Task<geode::utils::web::WebResponse, geode::utils::web::WebProgress> >::~EventListener()
PUBLIC 19450 0 geode::Task<geode::utils::web::WebResponse, geode::utils::web::WebProgress>::setListener(geode::EventListenerProtocol*)::{lambda()#1}::~{lambda()#1}()
PUBLIC 194a0 0 std::__ndk1::__function::__func<geode::Task<geode::utils::web::WebResponse, geode::utils::web::WebProgress>::setListener(geode::EventListenerProtocol*)::{lambda()#1}, std::__ndk1::allocator<geode::Task<geode::utils::web::WebResponse, geode::utils::web::WebProgress>::setListener(geode::EventListenerProtocol*)::{lambda()#1}>, void ()>::~__func()
PUBLIC 194fc 0 std::__ndk1::__function::__func<geode::Task<geode::utils::web::WebResponse, geode::utils::web::WebProgress>::setListener(geode::EventListenerProtocol*)::{lambda()#1}, std::__ndk1::allocator<geode::Task<geode::utils::web::WebResponse, geode::utils::web::WebProgress>::setListener(geode::EventListenerProtocol*)::{lambda()#1}>, void ()>::~__func()
PUBLIC 19568 0 std::__ndk1::__function::__func<geode::Task<geode::utils::web::WebResponse, geode::utils::web::WebProgress>::setListener(geode::EventListenerProtocol*)::{lambda()#1}, std::__ndk1::allocator<geode::Task<geode::utils::web::WebResponse, geode::utils::web::WebProgress>::setListener(geode::EventListenerProtocol*)::{lambda()#1}>, void ()>::__clone() const
PUBLIC 195c0 0 std::__ndk1::__function::__func<geode::Task<geode::utils::web::WebResponse, geode::utils::web::WebProgress>::setListener(geode::EventListenerProtocol*)::{lambda()#1}, std::__ndk1::allocator<geode::Task<geode::utils::web::WebResponse, geode::utils::web::WebProgress>::setListener(geode::EventListenerProtocol*)::{lambda()#1}>, void ()>::__clone(std::__ndk1::__function::__base<void ()>*) const
PUBLIC 1960c 0 std::__ndk1::__function::__func<geode::Task<geode::utils::web::WebResponse, geode::utils::web::WebProgress>::setListener(geode::EventListenerProtocol*)::{lambda()#1}, std::__ndk1::allocator<geode::Task<geode::utils::web::WebResponse, geode::utils::web::WebProgress>::setListener(geode::EventListenerProtocol*)::{lambda()#1}>, void ()>::destroy()
PUBLIC 1965c 0 std::__ndk1::__function::__func<geode::Task<geode::utils::web::WebResponse, geode::utils::web::WebProgress>::setListener(geode::EventListenerProtocol*)::{lambda()#1}, std::__ndk1::allocator<geode::Task<geode::utils::web::WebResponse, geode::utils::web::WebProgress>::setListener(geode::EventListenerProtocol*)::{lambda()#1}>, void ()>::destroy_deallocate()
PUBLIC 196bc 0 std::__ndk1::__function::__func<geode::Task<geode::utils::web::WebResponse, geode::utils::web::WebProgress>::setListener(geode::EventListenerProtocol*)::{lambda()#1}, std::__ndk1::allocator<geode::Task<geode::utils::web::WebResponse, geode::utils::web::WebProgress>::setListener(geode::EventListenerProtocol*)::{lambda()#1}>, void ()>::operator()()
PUBLIC 1988c 0 std::__ndk1::__function::__func<geode::Task<geode::utils::web::WebResponse, geode::utils::web::WebProgress>::setListener(geode::EventListenerProtocol*)::{lambda()#1}, std::__ndk1::allocator<geode::Task<geode::utils::web::WebResponse, geode::utils::web::WebProgress>::setListener(geode::EventListenerProtocol*)::{lambda()#1}>, void ()>::target(std::type_info const&) const
PUBLIC 198a8 0 std::__ndk1::__function::__func<geode::Task<geode::utils::web::WebResponse, geode::utils::web::WebProgress>::setListener(geode::EventListenerProtocol*)::{lambda()#1}, std::__ndk1::allocator<geode::Task<geode::utils::web::WebResponse, geode::utils::web::WebProgress>::setListener(geode::EventListenerProtocol*)::{lambda()#1}>, void ()>::target_type() const
PUBLIC 198b4 0 std::__ndk1::__function::__func<geode::Task<geode::utils::web::WebResponse, geode::utils::web::WebProgress>::setListener(geode::EventListenerProtocol*)::{lambda()#2}, std::__ndk1::allocator<geode::Task<geode::utils::web::WebResponse, geode::utils::web::WebProgress>::setListener(geode::EventListenerProtocol*)::{lambda()#2}>, void ()>::~__func()
PUBLIC 19910 0 std::__ndk1::__function::__func<geode::Task<geode::utils::web::WebResponse, geode::utils::web::WebProgress>::setListener(geode::EventListenerProtocol*)::{lambda()#2}, std::__ndk1::allocator<geode::Task<geode::utils::web::WebResponse, geode::utils::web::WebProgress>::setListener(geode::EventListenerProtocol*)::{lambda()#2}>, void ()>::~__func()
PUBLIC 1997c 0 std::__ndk1::__function::__func<geode::Task<geode::utils::web::WebResponse, geode::utils::web::WebProgress>::setListener(geode::EventListenerProtocol*)::{lambda()#2}, std::__ndk1::allocator<geode::Task<geode::utils::web::WebResponse, geode::utils::web::WebProgress>::setListener(geode::EventListenerProtocol*)::{lambda()#2}>, void ()>::__clone() const
PUBLIC 199d4 0 std::__ndk1::__function::__func<geode::Task<geode::utils::web::WebResponse, geode::utils::web::WebProgress>::setListener(geode::EventListenerProtocol*)::{lambda()#2}, std::__ndk1::allocator<geode::Task<geode::utils::web::WebResponse, geode::utils::web::WebProgress>::setListener(geode::EventListenerProtocol*)::{lambda()#2}>, void ()>::__clone(std::__ndk1::__function::__base<void ()>*) const
PUBLIC 19a20 0 std::__ndk1::__function::__func<geode::Task<geode::utils::web::WebResponse, geode::utils::web::WebProgress>::setListener(geode::EventListenerProtocol*)::{lambda()#2}, std::__ndk1::allocator<geode::Task<geode::utils::web::WebResponse, geode::utils::web::WebProgress>::setListener(geode::EventListenerProtocol*)::{lambda()#2}>, void ()>::destroy()
PUBLIC 19a70 0 std::__ndk1::__function::__func<geode::Task<geode::utils::web::WebResponse, geode::utils::web::WebProgress>::setListener(geode::EventListenerProtocol*)::{lambda()#2}, std::__ndk1::allocator<geode::Task<geode::utils::web::WebResponse, geode::utils::web::WebProgress>::setListener(geode::EventListenerProtocol*)::{lambda()#2}>, void ()>::destroy_deallocate()
PUBLIC 19ad0 0 std::__ndk1::__function::__func<geode::Task<geode::utils::web::WebResponse, geode::utils::web::WebProgress>::setListener(geode::EventListenerProtocol*)::{lambda()#2}, std::__ndk1::allocator<geode::Task<geode::utils::web::WebResponse, geode::utils::web::WebProgress>::setListener(geode::EventListenerProtocol*)::{lambda()#2}>, void ()>::operator()()
PUBLIC 19c94 0 std::__ndk1::__function::__func<geode::Task<geode::utils::web::WebResponse, geode::utils::web::WebProgress>::setListener(geode::EventListenerProtocol*)::{lambda()#2}, std::__ndk1::allocator<geode::Task<geode::utils::web::WebResponse, geode::utils::web::WebProgress>::setListener(geode::EventListenerProtocol*)::{lambda()#2}>, void ()>::target(std::type_info const&) const
PUBLIC 19cb0 0 std::__ndk1::__function::__func<geode::Task<geode::utils::web::WebResponse, geode::utils::web::WebProgress>::setListener(geode::EventListenerProtocol*)::{lambda()#2}, std::__ndk1::allocator<geode::Task<geode::utils::web::WebResponse, geode::utils::web::WebProgress>::setListener(geode::EventListenerProtocol*)::{lambda()#2}>, void ()>::target_type() const
PUBLIC 19cbc 0 std::__ndk1::__throw_bad_function_call[abi:ne180000]()
PUBLIC 19cf0 0 std::__ndk1::bad_function_call::~bad_function_call()
PUBLIC 19d14 0 geode::Task<geode::utils::web::WebResponse, geode::utils::web::WebProgress>::map<DBMenuLayer::init()::{lambda(geode::utils::web::WebResponse*)#1}, geode::utils::web::WebProgress (*)(geode::utils::web::WebProgress*), void (*)()>(DBMenuLayer::init()::{lambda(geode::utils::web::WebResponse*)#1}&&, geode::utils::web::WebProgress (*&&)(geode::utils::web::WebProgress*), void (*&&)(), std::__ndk1::basic_string_view<char, std::__ndk1::char_traits<char> >) const::{lambda(void*)#1}::__invoke(void*)
PUBLIC 19d28 0 geode::Task<geode::utils::web::WebResponse, geode::utils::web::WebProgress>::map<DBMenuLayer::init()::{lambda(geode::utils::web::WebResponse*)#1}, geode::utils::web::WebProgress (*)(geode::utils::web::WebProgress*), void (*)()>(DBMenuLayer::init()::{lambda(geode::utils::web::WebResponse*)#1}&&, geode::utils::web::WebProgress (*&&)(geode::utils::web::WebProgress*), void (*&&)(), std::__ndk1::basic_string_view<char, std::__ndk1::char_traits<char> >) const::{lambda(void*)#2}::__invoke(void*)
PUBLIC 19df4 0 geode::Task<geode::utils::web::WebResponse, geode::utils::web::WebProgress>::map<DBMenuLayer::init()::{lambda(geode::utils::web::WebResponse*)#1}, geode::utils::web::WebProgress (*)(geode::utils::web::WebProgress*)>(DBMenuLayer::init()::{lambda(geode::utils::web::WebResponse*)#1}&&, geode::utils::web::WebProgress (*&&)(geode::utils::web::WebProgress*), std::__ndk1::basic_string_view<char, std::__ndk1::char_traits<char> >) const::{lambda()#1}::__invoke()
PUBLIC 19df8 0 _ZZNK5geode4TaskINS_5utils3web11WebResponseENS2_11WebProgressEE3mapIZN11DBMenuLayer4initEvEUlPS3_E_Qsr3stdE18copy_constructibleIT0_EEEDaOT_NSt6__ndk117basic_string_viewIcNSD_11char_traitsIcEEEEENUlPS4_E_8__invokeESI_
PUBLIC 19e20 0 __cxx_global_var_init.2
PUBLIC 1a2a0 0 geode::modifier::ModifyBase<geode::modifier::ModifyDerive<DBProfilePage, ProfilePage> >::~ModifyBase()
PUBLIC 1a2bc 0 geode::modifier::ModifyDerive<DBProfilePage, ProfilePage>::apply()
PUBLIC 1a640 0 geode::modifier::ModifyBase<geode::modifier::ModifyDerive<DBProfilePage, ProfilePage> >::apply()
PUBLIC 1a644 0 geode::modifier::AsStaticFunction_loadPageFromUserInfo<DBProfilePage, void (DBProfilePage::*)(GJUserScore*)>::Impl<void (DBProfilePage::*)(GJUserScore*)>::function(DBProfilePage*, GJUserScore*)
PUBLIC 1af8c 0 DBProfilePage::onBadge(cocos2d::CCObject*)
PUBLIC 1b0f4 0 geode::modifier::FieldIntermediate<DBProfilePage, ProfilePage>::fieldDestructor(void*)
PUBLIC 1b0f8 0 std::__ndk1::vector<void*, std::__ndk1::allocator<void*> >::__throw_length_error[abi:ne180000]() const
PUBLIC 1b10c 0 std::__ndk1::vector<std::__ndk1::function<void (void*)>, std::__ndk1::allocator<std::__ndk1::function<void (void*)> > >::__throw_length_error[abi:ne180000]() const
PUBLIC 1b120 0 std::__ndk1::vector<void*, std::__ndk1::allocator<void*> >::__throw_out_of_range[abi:ne180000]() const
PUBLIC 1b12c 0 std::__ndk1::__throw_out_of_range[abi:ne180000](char const*)
PUBLIC 1b17c 0 std::out_of_range::out_of_range[abi:ne180000](char const*)
PUBLIC 1b1ac 0 std::__ndk1::vector<std::__ndk1::function<void (void*)>, std::__ndk1::allocator<std::__ndk1::function<void (void*)> > >::__throw_out_of_range[abi:ne180000]() const
PUBLIC 1b1b8 0 std::__ndk1::__function::__base<void (void*)>::~__base()
PUBLIC 1b1bc 0 std::__ndk1::__function::__func<void (*)(void*), std::__ndk1::allocator<void (*)(void*)>, void (void*)>::~__func()
PUBLIC 1b1c0 0 std::__ndk1::__function::__func<void (*)(void*), std::__ndk1::allocator<void (*)(void*)>, void (void*)>::__clone() const
PUBLIC 1b1f8 0 std::__ndk1::__function::__func<void (*)(void*), std::__ndk1::allocator<void (*)(void*)>, void (void*)>::__clone(std::__ndk1::__function::__base<void (void*)>*) const
PUBLIC 1b210 0 std::__ndk1::__function::__func<void (*)(void*), std::__ndk1::allocator<void (*)(void*)>, void (void*)>::destroy()
PUBLIC 1b214 0 std::__ndk1::__function::__func<void (*)(void*), std::__ndk1::allocator<void (*)(void*)>, void (void*)>::destroy_deallocate()
PUBLIC 1b218 0 std::__ndk1::__function::__func<void (*)(void*), std::__ndk1::allocator<void (*)(void*)>, void (void*)>::operator()(void*&&)
PUBLIC 1b228 0 std::__ndk1::__function::__func<void (*)(void*), std::__ndk1::allocator<void (*)(void*)>, void (void*)>::target(std::type_info const&) const
PUBLIC 1b244 0 std::__ndk1::__function::__func<void (*)(void*), std::__ndk1::allocator<void (*)(void*)>, void (void*)>::target_type() const
PUBLIC 1b250 0 DeveloperBadges::badgeForUser(int)
PUBLIC 1b3bc 0 DeveloperBadges::getCommentColor(BadgeType)
PUBLIC 1b4d0 0 geode::Mod::getSettingValue<cocos2d::_ccColor3B>(std::__ndk1::basic_string_view<char, std::__ndk1::char_traits<char> >) const
PUBLIC 1b5f0 0 DeveloperBadges::showBadgeInfo(std::__ndk1::basic_string<char, std::__ndk1::char_traits<char>, std::__ndk1::allocator<char> >, BadgeType)
PUBLIC m 1b830 0 geodeImplicitEntry
PUBLIC 1b86c 0 wrapFunction(unsigned long, tulip::hook::WrapperMetadata const&)
PUBLIC 1b9a0 0 geode::impl::ResultData<void*, std::__ndk1::basic_string<char, std::__ndk1::char_traits<char>, std::__ndk1::allocator<char> > >::unwrapErr() &
PUBLIC 1ba18 0 geode::impl::ResultData<void*, std::__ndk1::basic_string<char, std::__ndk1::char_traits<char>, std::__ndk1::allocator<char> > >::~ResultData()
PUBLIC 1ba8c 0 tulip::hook::WrapperMetadata::~WrapperMetadata()
PUBLIC 1baf0 0 FLAlertLayer::create(FLAlertLayerProtocol*, char const*, gd::string, char const*, char const*, float)
PUBLIC 1bca8 0 tulip::hook::AbstractFunction::from<FLAlertLayer*, FLAlertLayerProtocol*, char const*, gd::string, char const*, char const*, float>(FLAlertLayer* (*)(FLAlertLayerProtocol*, char const*, gd::string, char const*, char const*, float))
PUBLIC 1be14 0 _ZN5geode15UnwrapExceptionC2IRPvQsr4implE18IsStringStreamableIT_EEENS_4impl5OkTagEOS4_
PUBLIC 1bf68 0 std::__ndk1::__variant_detail::__visitation::__base::__dispatcher<(unsigned long)0>::__dispatch[abi:ne180000]<std::__ndk1::__variant_detail::__dtor<std::__ndk1::__variant_detail::__traits<void*, std::__ndk1::basic_string<char, std::__ndk1::char_traits<char>, std::__ndk1::allocator<char> > >, (std::__ndk1::__variant_detail::_Trait)1>::__destroy[abi:ne180000]()::{lambda(auto:1&)#1}, std::__ndk1::__variant_detail::__base<(std::__ndk1::__variant_detail::__traits<void*, std::__ndk1::basic_string<char, std::__ndk1::char_traits<char>, std::__ndk1::allocator<char> > >)1, std::__ndk1::__variant_detail::__traits, std::__ndk1::allocator<char> >&>(std::__ndk1::__variant_detail::__dtor<std::__ndk1::__variant_detail::__traits<void*, std::__ndk1::basic_string<char, std::__ndk1::char_traits<char>, std::__ndk1::allocator<char> > >, (std::__ndk1::__variant_detail::_Trait)1>, std::__ndk1::__variant_detail::__base<(std::__ndk1::__variant_detail::__traits<void*, std::__ndk1::basic_string<char, std::__ndk1::char_traits<char>, std::__ndk1::allocator<char> > >)1, std::__ndk1::__variant_detail::__traits, std::__ndk1::allocator<char> >&)
PUBLIC 1bf6c 0 std::__ndk1::__variant_detail::__visitation::__base::__dispatcher<(unsigned long)1>::__dispatch[abi:ne180000]<std::__ndk1::__variant_detail::__dtor<std::__ndk1::__variant_detail::__traits<void*, std::__ndk1::basic_string<char, std::__ndk1::char_traits<char>, std::__ndk1::allocator<char> > >, (std::__ndk1::__variant_detail::_Trait)1>::__destroy[abi:ne180000]()::{lambda(auto:1&)#1}, std::__ndk1::__variant_detail::__base<(std::__ndk1::__variant_detail::__traits<void*, std::__ndk1::basic_string<char, std::__ndk1::char_traits<char>, std::__ndk1::allocator<char> > >)1, std::__ndk1::__variant_detail::__traits, std::__ndk1::allocator<char> >&>(std::__ndk1::__variant_detail::__dtor<std::__ndk1::__variant_detail::__traits<void*, std::__ndk1::basic_string<char, std::__ndk1::char_traits<char>, std::__ndk1::allocator<char> > >, (std::__ndk1::__variant_detail::_Trait)1>, std::__ndk1::__variant_detail::__base<(std::__ndk1::__variant_detail::__traits<void*, std::__ndk1::basic_string<char, std::__ndk1::char_traits<char>, std::__ndk1::allocator<char> > >)1, std::__ndk1::__variant_detail::__traits, std::__ndk1::allocator<char> >&)
PUBLIC 1bf80 0 __udivti3
PUBLIC 1bf8c 0 __udivmodti4
PUBLIC m 1c1d8 0 __eqtf2
PUBLIC 1c278 0 __unordtf2
PUBLIC 1c2b0 0 fmt::v11::detail::write_loc(fmt::v11::basic_appender<char>, fmt::v11::loc_value, fmt::v11::format_specs const&, fmt::v11::detail::locale_ref)
PUBLIC 1c544 0 fmt::v11::format_facet<std::__ndk1::locale>::~format_facet()
PUBLIC 1c5c0 0 fmt::v11::report_error(char const*)
PUBLIC 1c610 0 fmt::v11::format_error::runtime_error(char const*)
PUBLIC 1c63c 0 fmt::v11::format_facet<std::__ndk1::locale>::do_put(fmt::v11::basic_appender<char>, fmt::v11::loc_value, fmt::v11::format_specs const&) const
PUBLIC 1cdfc 0 fmt::v11::detail::loc_writer<char>::~loc_writer()
PUBLIC 1ce60 0 fmt::v11::detail::vformat_to<char>(fmt::v11::detail::buffer<char>&, fmt::v11::basic_string_view<char>, fmt::v11::detail::vformat_args<char>::type, fmt::v11::detail::locale_ref)
PUBLIC 1d3d0 0 fmt::v11::detail::is_printable(unsigned int)
PUBLIC 1d5f8 0 fmt::v11::detail::dragonbox::to_decimal<float>(float)
PUBLIC 1d8d4 0 fmt::v11::detail::dragonbox::to_decimal<double>(double)
PUBLIC 1de10 0 fmt::v11::basic_memory_buffer<char, (unsigned long)500, std::__ndk1::allocator<char> >::grow(fmt::v11::detail::buffer<char>&, unsigned long)
PUBLIC 1de88 0 fmt::v11::format_facet<std::__ndk1::locale>::~format_facet()
PUBLIC 1df14 0 fmt::v11::format_error::~format_error()
PUBLIC 1df38 0 fmt::v11::detail::copy_noinline<char, char const*, fmt::v11::basic_appender<char> >(char const*, char const*, fmt::v11::basic_appender<char>)
PUBLIC 1e088 0 fmt::v11::detail::default_arg_formatter<char>::operator()<bool>(bool)
PUBLIC 1e0f0 0 fmt::v11::detail::default_arg_formatter<char>::operator()<char>(char)
PUBLIC 1e180 0 fmt::v11::detail::default_arg_formatter<char>::operator()<float>(float)
PUBLIC 1e26c 0 fmt::v11::detail::default_arg_formatter<char>::operator()<double>(double)
PUBLIC 1e358 0 fmt::v11::detail::default_arg_formatter<char>::operator()<char const*>(char const*)
PUBLIC 1e3a0 0 fmt::v11::detail::default_arg_formatter<char>::operator()<void const*>(void const*)
PUBLIC 1e438 0 _ZN3fmt3v116detail5writeIcNS0_14basic_appenderIcEEiTnNSt6__ndk19enable_ifIXaaaasr11is_integralIT1_EE5valuentsr3std7is_sameIS7_bEE5valuentsr3std7is_sameIS7_T_EE5valueEiE4typeELi0EEET0_SB_S7_
PUBLIC 1e698 0 fmt::v11::detail::copy_noinline<char, char*, fmt::v11::basic_appender<char> >(char*, char*, fmt::v11::basic_appender<char>)
PUBLIC 1e7e8 0 _ZN3fmt3v116detail5writeIcNS0_14basic_appenderIcEEjTnNSt6__ndk19enable_ifIXaaaasr11is_integralIT1_EE5valuentsr3std7is_sameIS7_bEE5valuentsr3std7is_sameIS7_T_EE5valueEiE4typeELi0EEET0_SB_S7_
PUBLIC 1e9c8 0 _ZN3fmt3v116detail5writeIcNS0_14basic_appenderIcEExTnNSt6__ndk19enable_ifIXaaaasr11is_integralIT1_EE5valuentsr3std7is_sameIS7_bEE5valuentsr3std7is_sameIS7_T_EE5valueEiE4typeELi0EEET0_SB_S7_
PUBLIC 1ec4c 0 _ZN3fmt3v116detail5writeIcNS0_14basic_appenderIcEEyTnNSt6__ndk19enable_ifIXaaaasr11is_integralIT1_EE5valuentsr3std7is_sameIS7_bEE5valuentsr3std7is_sameIS7_T_EE5valueEiE4typeELi0EEET0_SB_S7_
PUBLIC 1ee54 0 _ZN3fmt3v116detail5writeIcNS0_14basic_appenderIcEEnTnNSt6__ndk19enable_ifIXaaaasr11is_integralIT1_EE5valuentsr3std7is_sameIS7_bEE5valuentsr3std7is_sameIS7_T_EE5valueEiE4typeELi0EEET0_SB_S7_
PUBLIC 1f1b4 0 _ZN3fmt3v116detail5writeIcNS0_14basic_appenderIcEEoTnNSt6__ndk19enable_ifIXaaaasr11is_integralIT1_EE5valuentsr3std7is_sameIS7_bEE5valuentsr3std7is_sameIS7_T_EE5valueEiE4typeELi0EEET0_SB_S7_
PUBLIC 1f4c8 0 _ZN3fmt3v116detail5writeIcNS0_14basic_appenderIcEEbTnNSt6__ndk19enable_ifIXsr3std7is_sameIT1_bEE5valueEiE4typeELi0EEET0_SA_S7_RKNS0_12format_specsENS1_10locale_refE
PUBLIC 1f758 0 fmt::v11::detail::write_int_noinline<char, fmt::v11::basic_appender<char>, unsigned int>(fmt::v11::basic_appender<char>, fmt::v11::detail::write_int_arg<unsigned int>, fmt::v11::format_specs const&, fmt::v11::detail::locale_ref)
PUBLIC 20534 0 fmt::v11::detail::fill<char, fmt::v11::basic_appender<char> >(fmt::v11::basic_appender<char>, unsigned long, fmt::v11::detail::fill_t const&)
PUBLIC 20704 0 fmt::v11::detail::write_padded<char, (fmt::v11::align::type)1, fmt::v11::basic_appender<char>, fmt::v11::detail::write_char<char, fmt::v11::basic_appender<char> >(fmt::v11::basic_appender<char>, char, fmt::v11::format_specs const&)::{lambda(fmt::v11::basic_appender<char>&)#1}>(fmt::v11::basic_appender<char>, fmt::v11::format_specs const&, unsigned long, unsigned long, fmt::v11::detail::write_char<char, fmt::v11::basic_appender<char> >(fmt::v11::basic_appender<char>, char, fmt::v11::format_specs const&)::{lambda(fmt::v11::basic_appender<char>&)#1})
PUBLIC 20940 0 fmt::v11::detail::write_escaped_cp<fmt::v11::basic_appender<char>, char>(fmt::v11::basic_appender<char>, fmt::v11::detail::find_escape_result<char> const&)
PUBLIC 20c4c 0 fmt::v11::detail::write_codepoint<(unsigned long)2, char, fmt::v11::basic_appender<char> >(fmt::v11::basic_appender<char>, char, unsigned int)
PUBLIC 20dc4 0 fmt::v11::detail::write_codepoint<(unsigned long)8, char, fmt::v11::basic_appender<char> >(fmt::v11::basic_appender<char>, char, unsigned int)
PUBLIC 20f3c 0 fmt::v11::detail::write_padded<char, (fmt::v11::align::type)1, fmt::v11::basic_appender<char>, fmt::v11::detail::write_nonfinite<char, fmt::v11::basic_appender<char> >(fmt::v11::basic_appender<char>, bool, fmt::v11::format_specs, fmt::v11::sign::type)::{lambda(fmt::v11::basic_appender<char>&)#1}>(fmt::v11::basic_appender<char>, fmt::v11::format_specs const&, unsigned long, unsigned long, fmt::v11::detail::write_nonfinite<char, fmt::v11::basic_appender<char> >(fmt::v11::basic_appender<char>, bool, fmt::v11::format_specs, fmt::v11::sign::type)::{lambda(fmt::v11::basic_appender<char>&)#1})
PUBLIC 2117c 0 fmt::v11::detail::do_write_float<char, fmt::v11::basic_appender<char>, fmt::v11::detail::dragonbox::decimal_fp<float>, fmt::v11::detail::digit_grouping<char> >(fmt::v11::basic_appender<char>, fmt::v11::detail::dragonbox::decimal_fp<float> const&, fmt::v11::format_specs const&, fmt::v11::detail::float_specs, fmt::v11::detail::locale_ref)
PUBLIC 21df0 0 fmt::v11::detail::do_write_float<char, fmt::v11::basic_appender<char>, fmt::v11::detail::dragonbox::decimal_fp<float>, fmt::v11::detail::digit_grouping<char> >(fmt::v11::basic_appender<char>, fmt::v11::detail::dragonbox::decimal_fp<float> const&, fmt::v11::format_specs const&, fmt::v11::detail::float_specs, fmt::v11::detail::locale_ref)::{lambda(fmt::v11::basic_appender<char>(fmt::v11::basic_appender<char>))#1}::operator() const
PUBLIC 21f44 0 fmt::v11::detail::digit_grouping<char>::digit_grouping(fmt::v11::detail::locale_ref, bool)
PUBLIC 221b0 0 fmt::v11::detail::digit_grouping<char>::~digit_grouping()
PUBLIC 221f4 0 fmt::v11::detail::write_exponent<char, fmt::v11::basic_appender<char> >(int, fmt::v11::basic_appender<char>)
PUBLIC 223c4 0 _ZN3fmt3v116detail17write_significandIcjTnNSt6__ndk19enable_ifIXsr3std11is_integralIT0_EE5valueEiE4typeELi0EEEPT_S9_S5_iiS8_
PUBLIC 22540 0 std::__ndk1::basic_string<char, std::__ndk1::char_traits<char>, std::__ndk1::allocator<char> >::__assign_no_alias<true>(char const*, unsigned long)
PUBLIC 225ec 0 std::__ndk1::basic_string<char, std::__ndk1::char_traits<char>, std::__ndk1::allocator<char> >::__assign_no_alias<false>(char const*, unsigned long)
PUBLIC 226fc 0 fmt::v11::detail::digit_grouping<char>::apply<fmt::v11::basic_appender<char>, char>(fmt::v11::basic_appender<char>, fmt::v11::basic_string_view<char>) const
PUBLIC 22ab4 0 fmt::v11::basic_memory_buffer<int, (unsigned long)500, std::__ndk1::allocator<int> >::grow(fmt::v11::detail::buffer<int>&, unsigned long)
PUBLIC 22b54 0 fmt::v11::detail::do_write_float<char, fmt::v11::basic_appender<char>, fmt::v11::detail::dragonbox::decimal_fp<double>, fmt::v11::detail::digit_grouping<char> >(fmt::v11::basic_appender<char>, fmt::v11::detail::dragonbox::decimal_fp<double> const&, fmt::v11::format_specs const&, fmt::v11::detail::float_specs, fmt::v11::detail::locale_ref)
PUBLIC 23808 0 fmt::v11::detail::do_write_float<char, fmt::v11::basic_appender<char>, fmt::v11::detail::dragonbox::decimal_fp<double>, fmt::v11::detail::digit_grouping<char> >(fmt::v11::basic_appender<char>, fmt::v11::detail::dragonbox::decimal_fp<double> const&, fmt::v11::format_specs const&, fmt::v11::detail::float_specs, fmt::v11::detail::locale_ref)::{lambda(fmt::v11::basic_appender<char>(fmt::v11::basic_appender<char>))#1}::operator() const
PUBLIC 23960 0 _ZN3fmt3v116detail17write_significandIcmTnNSt6__ndk19enable_ifIXsr3std11is_integralIT0_EE5valueEiE4typeELi0EEEPT_S9_S5_iiS8_
PUBLIC 23af0 0 fmt::v11::detail::write_float<char, fmt::v11::basic_appender<char>, long double>(fmt::v11::basic_appender<char>, long double, fmt::v11::format_specs, fmt::v11::detail::locale_ref)
PUBLIC 245ec 0 fmt::v11::detail::write_padded<char, (fmt::v11::align::type)2, fmt::v11::basic_appender<char>, fmt::v11::detail::write_bytes<char, (fmt::v11::align::type)2, fmt::v11::basic_appender<char> >(fmt::v11::basic_appender<char>, fmt::v11::basic_string_view<char>, fmt::v11::format_specs const&)::{lambda(fmt::v11::basic_appender<char>&)#1}>(fmt::v11::basic_appender<char>, fmt::v11::format_specs const&, unsigned long, unsigned long, fmt::v11::detail::write_bytes<char, (fmt::v11::align::type)2, fmt::v11::basic_appender<char> >(fmt::v11::basic_appender<char>, fmt::v11::basic_string_view<char>, fmt::v11::format_specs const&)::{lambda(fmt::v11::basic_appender<char>&)#1})
PUBLIC 247c8 0 fmt::v11::detail::format_dragon(fmt::v11::detail::basic_fp<unsigned __int128>, unsigned int, int, fmt::v11::detail::buffer<char>&, int&)
PUBLIC 25bf8 0 fmt::v11::detail::bigint::operator<<=(int)
PUBLIC 25d1c 0 fmt::v11::detail::bigint::assign_pow10(int)
PUBLIC 26478 0 fmt::v11::detail::bigint::divmod_assign(fmt::v11::detail::bigint const&)
PUBLIC 26798 0 fmt::v11::basic_memory_buffer<unsigned int, (unsigned long)32, std::__ndk1::allocator<unsigned int> >::grow(fmt::v11::detail::buffer<unsigned int>&, unsigned long)
PUBLIC 26838 0 fmt::v11::detail::do_write_float<char, fmt::v11::basic_appender<char>, fmt::v11::detail::big_decimal_fp, fmt::v11::detail::digit_grouping<char> >(fmt::v11::basic_appender<char>, fmt::v11::detail::big_decimal_fp const&, fmt::v11::format_specs const&, fmt::v11::detail::float_specs, fmt::v11::detail::locale_ref)
PUBLIC 276e8 0 fmt::v11::detail::do_write_float<char, fmt::v11::basic_appender<char>, fmt::v11::detail::big_decimal_fp, fmt::v11::detail::digit_grouping<char> >(fmt::v11::basic_appender<char>, fmt::v11::detail::big_decimal_fp const&, fmt::v11::format_specs const&, fmt::v11::detail::float_specs, fmt::v11::detail::locale_ref)::{lambda(fmt::v11::basic_appender<char>(fmt::v11::basic_appender<char>))#1}::operator() const
PUBLIC 27848 0 fmt::v11::detail::write_padded<char, (fmt::v11::align::type)2, fmt::v11::basic_appender<char>, fmt::v11::detail::write_ptr<char, fmt::v11::basic_appender<char>, unsigned long>(fmt::v11::basic_appender<char>, unsigned long, fmt::v11::format_specs const*)::{lambda(fmt::v11::basic_appender<char>&)#1}>(fmt::v11::basic_appender<char>, fmt::v11::format_specs const&, unsigned long, unsigned long, fmt::v11::detail::write_ptr<char, fmt::v11::basic_appender<char>, unsigned long>(fmt::v11::basic_appender<char>, unsigned long, fmt::v11::format_specs const*)::{lambda(fmt::v11::basic_appender<char>&)#1})
PUBLIC 27a5c 0 fmt::v11::detail::parse_replacement_field<char, fmt::v11::detail::vformat_to<char>(fmt::v11::detail::buffer<char>&, fmt::v11::basic_string_view<char>, fmt::v11::detail::vformat_args<char>::type, fmt::v11::detail::locale_ref)::format_handler&>(char const*, char const*, fmt::v11::detail::vformat_to<char>(fmt::v11::detail::buffer<char>&, fmt::v11::basic_string_view<char>, fmt::v11::detail::vformat_args<char>::type, fmt::v11::detail::locale_ref)::format_handler&)
PUBLIC 296f8 0 fmt::v11::detail::parse_dynamic_spec<char>(char const*, char const*, int&, fmt::v11::detail::arg_ref<char>&, fmt::v11::basic_format_parse_context<char>&)
PUBLIC 29988 0 fmt::v11::basic_format_args<fmt::v11::context>::get<char>(fmt::v11::basic_string_view<char>) const
PUBLIC 29ae0 0 fmt::v11::detail::write_int_noinline<char, fmt::v11::basic_appender<char>, unsigned long>(fmt::v11::basic_appender<char>, fmt::v11::detail::write_int_arg<unsigned long>, fmt::v11::format_specs const&, fmt::v11::detail::locale_ref)
PUBLIC 2a934 0 fmt::v11::detail::write_int_noinline<char, fmt::v11::basic_appender<char>, unsigned __int128>(fmt::v11::basic_appender<char>, fmt::v11::detail::write_int_arg<unsigned __int128>, fmt::v11::format_specs const&, fmt::v11::detail::locale_ref)
PUBLIC 2b99c 0 _ZN3fmt3v116detail15format_hexfloatIdTnNSt6__ndk19enable_ifIXntsr16is_double_doubleIT_EE5valueEiE4typeELi0EEEvS5_NS0_12format_specsERNS1_6bufferIcEE
PUBLIC 2bebc 0 fmt::v11::detail::format_float<double>(double, int, fmt::v11::detail::float_specs, fmt::v11::detail::buffer<char>&)
PUBLIC 2c85c 0 fmt::v11::detail::write<char, fmt::v11::basic_appender<char> >(fmt::v11::basic_appender<char>, fmt::v11::basic_string_view<char>, fmt::v11::format_specs const&)
PUBLIC 2dbc8 0 fmt::v11::detail::for_each_codepoint<fmt::v11::detail::compute_width(fmt::v11::basic_string_view<char>)::count_code_points>(fmt::v11::basic_string_view<char>, fmt::v11::detail::compute_width(fmt::v11::basic_string_view<char>)::count_code_points)::{lambda(char const*, char const*)#1}::operator()(char const*, char const*) const
PUBLIC 2dd80 0 fmt::v11::detail::write_int<fmt::v11::basic_appender<char>, unsigned long, char>(fmt::v11::basic_appender<char>, unsigned long, unsigned int, fmt::v11::format_specs const&, fmt::v11::detail::digit_grouping<char> const&)
PUBLIC 2e2fc 0 fmt::v11::detail::write_int<fmt::v11::basic_appender<char>, unsigned __int128, char>(fmt::v11::basic_appender<char>, unsigned __int128, unsigned int, fmt::v11::format_specs const&, fmt::v11::detail::digit_grouping<char> const&)
PUBLIC 2e980 0 <.plt ELF section in hiimjustin000.developer_badges.android64.so>
STACK CFI INIT e060 10 .cfa: sp 0 +
STACK CFI INIT e070 8 .cfa: sp 0 +
STACK CFI INIT e078 8 .cfa: sp 0 +
STACK CFI INIT e080 14 .cfa: sp 0 +
STACK CFI INIT e094 1c .cfa: sp 0 +
STACK CFI INIT e0b0 10 .cfa: sp 0 +
STACK CFI INIT e0c0 134 .cfa: sp 0 +
STACK CFI INIT e1f4 84 .cfa: sp 0 +
STACK CFI INIT e278 f4 .cfa: sp 0 +
STACK CFI INIT e36c a8 .cfa: sp 0 +
STACK CFI INIT e414 7c .cfa: sp 0 +
STACK CFI INIT e490 14 .cfa: sp 0 +
STACK CFI INIT e4a4 40 .cfa: sp 0 +
STACK CFI INIT e4e4 28 .cfa: sp 0 +
STACK CFI INIT e50c 190 .cfa: sp 0 +
STACK CFI INIT e69c 2c8 .cfa: sp 0 +
STACK CFI INIT e964 8 .cfa: sp 0 +
STACK CFI INIT e96c 8 .cfa: sp 0 +
STACK CFI INIT e974 44 .cfa: sp 0 +
STACK CFI INIT e9b8 e8 .cfa: sp 0 +
STACK CFI INIT eaa0 e8 .cfa: sp 0 +
STACK CFI INIT eb88 14 .cfa: sp 0 +
STACK CFI INIT eb9c 10 .cfa: sp 0 +
STACK CFI INIT ebac 10 .cfa: sp 0 +
STACK CFI INIT ebbc f0 .cfa: sp 0 +
STACK CFI INIT ecac 44 .cfa: sp 0 +
STACK CFI INIT ecf0 c .cfa: sp 0 +
STACK CFI INIT ecfc c .cfa: sp 0 +
STACK CFI INIT ed08 2c .cfa: sp 0 +
STACK CFI INIT ed34 280 .cfa: sp 0 +
STACK CFI INIT efb4 c .cfa: sp 0 +
STACK CFI INIT efc0 120 .cfa: sp 0 +
STACK CFI INIT f0e0 488 .cfa: sp 0 +
STACK CFI INIT f568 c48 .cfa: sp 0 +
STACK CFI INIT 101b0 134 .cfa: sp 0 +
STACK CFI INIT 102e4 210 .cfa: sp 0 +
STACK CFI INIT 104f4 38c .cfa: sp 0 +
STACK CFI INIT 10880 1c8 .cfa: sp 0 +
STACK CFI INIT 10a48 9bc .cfa: sp 0 +
STACK CFI INIT 11404 2d4 .cfa: sp 0 +
STACK CFI INIT 116d8 134 .cfa: sp 0 +
STACK CFI INIT 1180c 120 .cfa: sp 0 +
STACK CFI INIT 1192c 1c8 .cfa: sp 0 +
STACK CFI INIT 11af4 168 .cfa: sp 0 +
STACK CFI INIT 11c5c fc .cfa: sp 0 +
STACK CFI INIT 11d58 30 .cfa: sp 0 +
STACK CFI INIT 11ec0 30 .cfa: sp 0 +
STACK CFI INIT 11ef0 98 .cfa: sp 0 +
STACK CFI INIT 11f88 59c .cfa: sp 0 +
STACK CFI INIT 12524 8c .cfa: sp 0 +
STACK CFI INIT 125b0 30 .cfa: sp 0 +
STACK CFI INIT 125e0 5c .cfa: sp 0 +
STACK CFI 125e4 .cfa: sp 16 +
STACK CFI 125e8 .cfa: x29 16 + .ra: .cfa -8 + ^ x29: .cfa -16 + ^
STACK CFI 1262c .cfa: sp 16 +
STACK CFI 12630 .cfa: sp 0 +
STACK CFI 12634 .cfa: sp 16 +
STACK CFI 12638 .cfa: sp 0 +
STACK CFI INIT 1263c 88 .cfa: sp 0 +
STACK CFI 12640 .cfa: sp 48 +
STACK CFI 1264c .cfa: x29 48 + x19: .cfa -8 + ^ x20: .cfa -16 + ^ x21: .cfa -32 + ^ .ra: .cfa -40 + ^ x29: .cfa -48 + ^
STACK CFI 1266c .cfa: sp 48 +
STACK CFI 12678 .cfa: sp 0 +
STACK CFI 1267c .cfa: x29 48 +
STACK CFI 126a4 .cfa: sp 48 +
STACK CFI 126b0 .cfa: sp 0 +
STACK CFI 126b4 .cfa: sp 48 +
STACK CFI 126c0 .cfa: sp 0 +
STACK CFI INIT 126c4 6c .cfa: sp 0 +
STACK CFI 126c8 .cfa: sp 16 +
STACK CFI 126cc .cfa: x29 16 + .ra: .cfa -8 + ^ x29: .cfa -16 + ^
STACK CFI 12720 .cfa: sp 16 +
STACK CFI 12724 .cfa: sp 0 +
STACK CFI 12728 .cfa: sp 16 +
STACK CFI 1272c .cfa: sp 0 +
STACK CFI INIT 12730 8 .cfa: sp 0 +
STACK CFI INIT 12bb8 1c .cfa: sp 0 +
STACK CFI INIT 12bd4 10 .cfa: sp 0 +
STACK CFI 12bd8 .cfa: sp 16 +
STACK CFI 12bdc .cfa: x29 16 + .ra: .cfa -8 + ^ x29: .cfa -16 + ^
STACK CFI INIT 12be4 44 .cfa: sp 0 +
STACK CFI 12bec .cfa: sp 32 +
STACK CFI 12bf4 .cfa: x29 32 + x19: .cfa -8 + ^ x20: .cfa -16 + ^ .ra: .cfa -24 + ^ x29: .cfa -32 + ^
STACK CFI 12c18 .cfa: sp 32 +
STACK CFI 12c20 .cfa: sp 0 +
STACK CFI INIT 12fb0 3c .cfa: sp 0 +
STACK CFI 12fb4 .cfa: sp 32 +
STACK CFI 12fbc .cfa: x29 32 + x19: .cfa -16 + ^ .ra: .cfa -24 + ^ x29: .cfa -32 + ^
STACK CFI 12fc8 .cfa: sp 32 +
STACK CFI 12fd0 .cfa: sp 0 +
STACK CFI 12fd4 .cfa: x29 32 +
STACK CFI 12fe0 .cfa: sp 32 +
STACK CFI 12fe8 .cfa: sp 0 +
STACK CFI INIT 12fec 50 .cfa: sp 0 +
STACK CFI 12ff0 .cfa: sp 32 +
STACK CFI 12ff8 .cfa: x29 32 + x19: .cfa -16 + ^ .ra: .cfa -24 + ^ x29: .cfa -32 + ^
STACK CFI 13010 .cfa: sp 32 +
STACK CFI 13018 .cfa: sp 0 +
STACK CFI 1301c .cfa: x29 32 +
STACK CFI 13030 .cfa: sp 32 +
STACK CFI 13038 .cfa: sp 0 +
STACK CFI INIT 130b0 7c .cfa: sp 0 +
STACK CFI 130b4 .cfa: sp 48 +
STACK CFI 130c0 .cfa: x29 48 + x19: .cfa -8 + ^ x20: .cfa -16 + ^ x21: .cfa -32 + ^ .ra: .cfa -40 + ^ x29: .cfa -48 + ^
STACK CFI 1310c .cfa: sp 48 +
STACK CFI 13118 .cfa: sp 0 +
STACK CFI 1311c .cfa: sp 48 +
STACK CFI 13128 .cfa: sp 0 +
STACK CFI INIT 1312c 4 .cfa: sp 0 +
STACK CFI INIT 13284 34 .cfa: sp 0 +
STACK CFI 13288 .cfa: sp 16 +
STACK CFI 1328c .cfa: x29 16 + .ra: .cfa -8 + ^ x29: .cfa -16 + ^
STACK CFI INIT 133e4 80 .cfa: sp 0 +
STACK CFI 133e8 .cfa: sp 48 +
STACK CFI 133f4 .cfa: x29 48 + x19: .cfa -8 + ^ x20: .cfa -16 + ^ x21: .cfa -32 + ^ .ra: .cfa -40 + ^ x29: .cfa -48 + ^
STACK CFI 13454 .cfa: sp 48 +
STACK CFI 13460 .cfa: sp 0 +
STACK CFI INIT 13464 24 .cfa: sp 0 +
STACK CFI 13468 .cfa: sp 32 +
STACK CFI 13470 .cfa: x29 32 + x19: .cfa -16 + ^ .ra: .cfa -24 + ^ x29: .cfa -32 + ^
STACK CFI 1347c .cfa: sp 32 +
STACK CFI 13484 .cfa: sp 0 +
STACK CFI INIT 13808 14 .cfa: sp 0 +
STACK CFI 1380c .cfa: sp 16 +
STACK CFI 13810 .cfa: x29 16 + .ra: .cfa -8 + ^ x29: .cfa -16 + ^
STACK CFI INIT 1386c 30 .cfa: sp 0 +
STACK CFI 13870 .cfa: sp 32 +
STACK CFI 13878 .cfa: x29 32 + x19: .cfa -16 + ^ .ra: .cfa -24 + ^ x29: .cfa -32 + ^
STACK CFI 13890 .cfa: sp 32 +
STACK CFI 13898 .cfa: sp 0 +
STACK CFI INIT 1389c 34 .cfa: sp 0 +
STACK CFI 138a0 .cfa: sp 32 +
STACK CFI 138a8 .cfa: x29 32 + x19: .cfa -16 + ^ .ra: .cfa -24 + ^ x29: .cfa -32 + ^
STACK CFI INIT 13a48 148 .cfa: sp 0 +
STACK CFI 13a4c .cfa: sp 48 +
STACK CFI 13a58 .cfa: x29 48 + x19: .cfa -8 + ^ x20: .cfa -16 + ^ x21: .cfa -32 + ^ .ra: .cfa -40 + ^ x29: .cfa -48 + ^
STACK CFI 13b80 .cfa: sp 48 +
STACK CFI 13b8c .cfa: sp 0 +
STACK CFI INIT 13db8 80 .cfa: sp 0 +
STACK CFI 13dbc .cfa: sp 48 +
STACK CFI 13dc8 .cfa: x29 48 + x19: .cfa -8 + ^ x20: .cfa -16 + ^ x21: .cfa -24 + ^ x22: .cfa -32 + ^ .ra: .cfa -40 + ^ x29: .cfa -48 + ^
STACK CFI 13de0 .cfa: sp 48 +
STACK CFI 13dec .cfa: sp 0 +
STACK CFI 13df0 .cfa: x29 48 +
STACK CFI 13e20 .cfa: sp 48 +
STACK CFI 13e2c .cfa: sp 0 +
STACK CFI 13e30 .cfa: x29 48 +
STACK CFI INIT 13e38 68 .cfa: sp 0 +
STACK CFI 13e3c .cfa: sp 32 +
STACK CFI 13e44 .cfa: x29 32 + x19: .cfa -8 + ^ x20: .cfa -16 + ^ .ra: .cfa -24 + ^ x29: .cfa -32 + ^
STACK CFI 13e5c .cfa: sp 32 +
STACK CFI 13e64 .cfa: sp 0 +
STACK CFI 13e68 .cfa: x29 32 +
STACK CFI 13e94 .cfa: sp 32 +
STACK CFI 13e9c .cfa: sp 0 +
STACK CFI INIT 13ea0 14 .cfa: sp 0 +
STACK CFI 13ea4 .cfa: sp 16 +
STACK CFI 13ea8 .cfa: x29 16 + .ra: .cfa -8 + ^ x29: .cfa -16 + ^
STACK CFI INIT 13eb4 4 .cfa: sp 0 +
STACK CFI INIT 13eb8 14 .cfa: sp 0 +
STACK CFI INIT 13ecc 120 .cfa: sp 0 +
STACK CFI 13ed0 .cfa: sp 64 +
STACK CFI 13ee0 .cfa: x29 64 + x19: .cfa -8 + ^ x20: .cfa -16 + ^ x21: .cfa -24 + ^ x22: .cfa -32 + ^ x23: .cfa -40 + ^ x24: .cfa -48 + ^ .ra: .cfa -56 + ^ x29: .cfa -64 + ^
STACK CFI 13fd8 .cfa: sp 64 +
STACK CFI 13fe8 .cfa: sp 0 +
STACK CFI INIT 13fec d4 .cfa: sp 0 +
STACK CFI 13ff0 .cfa: sp 48 +
STACK CFI 13ffc .cfa: x29 48 + x19: .cfa -8 + ^ x20: .cfa -16 + ^ x21: .cfa -32 + ^ .ra: .cfa -40 + ^ x29: .cfa -48 + ^
STACK CFI 1408c .cfa: sp 48 +
STACK CFI 14098 .cfa: sp 0 +
STACK CFI 1409c .cfa: x29 48 +
STACK CFI INIT 140c0 3c8 .cfa: sp 0 +
STACK CFI INIT 14488 8c .cfa: sp 0 +
STACK CFI 14490 .cfa: sp 32 +
STACK CFI 14498 .cfa: x29 32 + x19: .cfa -8 + ^ x20: .cfa -16 + ^ .ra: .cfa -24 + ^ x29: .cfa -32 + ^
STACK CFI 144e0 .cfa: sp 32 +
STACK CFI 144e8 .cfa: sp 0 +
STACK CFI 144f0 .cfa: x29 32 +
STACK CFI INIT 14b18 50 .cfa: sp 0 +
STACK CFI 14b1c .cfa: sp 32 +
STACK CFI 14b24 .cfa: x29 32 + x19: .cfa -16 + ^ .ra: .cfa -24 + ^ x29: .cfa -32 + ^
STACK CFI 14b3c .cfa: sp 32 +
STACK CFI 14b44 .cfa: sp 0 +
STACK CFI 14b48 .cfa: x29 32 +
STACK CFI 14b5c .cfa: sp 32 +
STACK CFI 14b64 .cfa: sp 0 +
STACK CFI INIT 14b68 64 .cfa: sp 0 +
STACK CFI 14b6c .cfa: sp 32 +
STACK CFI 14b74 .cfa: x29 32 + x19: .cfa -16 + ^ .ra: .cfa -24 + ^ x29: .cfa -32 + ^
STACK CFI 14ba0 .cfa: sp 32 +
STACK CFI 14ba8 .cfa: sp 0 +
STACK CFI 14bac .cfa: x29 32 +
STACK CFI 14bc0 .cfa: sp 32 +
STACK CFI 14bc8 .cfa: sp 0 +
STACK CFI INIT 14e6c 104 .cfa: sp 0 +
STACK CFI 14e70 .cfa: sp 64 +
STACK CFI 14e80 .cfa: x29 64 + x19: .cfa -8 + ^ x20: .cfa -16 + ^ x21: .cfa -24 + ^ x22: .cfa -32 + ^ x23: .cfa -48 + ^ .ra: .cfa -56 + ^ x29: .cfa -64 + ^
STACK CFI 14edc .cfa: sp 64 +
STACK CFI 14eec .cfa: sp 0 +
STACK CFI 14ef0 .cfa: x29 64 +
STACK CFI 14f0c .cfa: sp 64 +
STACK CFI 14f1c .cfa: sp 0 +
STACK CFI 14f20 .cfa: x29 64 +
STACK CFI 14f5c .cfa: sp 64 +
STACK CFI 14f6c .cfa: sp 0 +
STACK CFI INIT 14f70 178 .cfa: sp 0 +
STACK CFI 14f74 .cfa: sp 80 +
STACK CFI 14f88 .cfa: x29 80 + x19: .cfa -8 + ^ x20: .cfa -16 + ^ x21: .cfa -24 + ^ x22: .cfa -32 + ^ x23: .cfa -40 + ^ x24: .cfa -48 + ^ x25: .cfa -56 + ^ x26: .cfa -64 + ^ .ra: .cfa -72 + ^ x29: .cfa -80 + ^
STACK CFI 150d0 .cfa: sp 80 +
STACK CFI 150e4 .cfa: sp 0 +
STACK CFI INIT 150e8 1b0 .cfa: sp 0 +
STACK CFI INIT 15718 1c .cfa: sp 0 +
STACK CFI INIT 15a3c 4 .cfa: sp 0 +
STACK CFI INIT 164f8 9c .cfa: sp 0 +
STACK CFI INIT 16594 58 .cfa: sp 0 +
STACK CFI 16598 .cfa: sp 32 +
STACK CFI 165a0 .cfa: x29 32 + x19: .cfa -16 + ^ .ra: .cfa -24 + ^ x29: .cfa -32 + ^
STACK CFI 165c0 .cfa: sp 32 +
STACK CFI 165c8 .cfa: sp 0 +
STACK CFI 165cc .cfa: x29 32 +
STACK CFI 165e0 .cfa: sp 32 +
STACK CFI 165e8 .cfa: sp 0 +
STACK CFI INIT 165ec 50 .cfa: sp 0 +
STACK CFI 165f0 .cfa: sp 32 +
STACK CFI 165f8 .cfa: x29 32 + x19: .cfa -16 + ^ .ra: .cfa -24 + ^ x29: .cfa -32 + ^
STACK CFI 16610 .cfa: sp 32 +
STACK CFI 16618 .cfa: sp 0 +
STACK CFI 1661c .cfa: x29 32 +
STACK CFI 16630 .cfa: sp 32 +
STACK CFI 16638 .cfa: sp 0 +
STACK CFI INIT 1663c 50 .cfa: sp 0 +
STACK CFI 16640 .cfa: sp 32 +
STACK CFI 16648 .cfa: x29 32 + x19: .cfa -16 + ^ .ra: .cfa -24 + ^ x29: .cfa -32 + ^
STACK CFI 16660 .cfa: sp 32 +
STACK CFI 16668 .cfa: sp 0 +
STACK CFI 1666c .cfa: x29 32 +
STACK CFI 16680 .cfa: sp 32 +
STACK CFI 16688 .cfa: sp 0 +
STACK CFI INIT 17710 50 .cfa: sp 0 +
STACK CFI 17714 .cfa: sp 32 +
STACK CFI 1771c .cfa: x29 32 + x19: .cfa -16 + ^ .ra: .cfa -24 + ^ x29: .cfa -32 + ^
STACK CFI 17734 .cfa: sp 32 +
STACK CFI 1773c .cfa: sp 0 +
STACK CFI 17740 .cfa: x29 32 +
STACK CFI 17754 .cfa: sp 32 +
STACK CFI 1775c .cfa: sp 0 +
STACK CFI INIT 17760 10 .cfa: sp 0 +
STACK CFI INIT 17770 30 .cfa: sp 0 +
STACK CFI 17774 .cfa: sp 32 +
STACK CFI 1777c .cfa: x29 32 + x19: .cfa -16 + ^ .ra: .cfa -24 + ^ x29: .cfa -32 + ^
STACK CFI 17794 .cfa: sp 32 +
STACK CFI 1779c .cfa: sp 0 +
STACK CFI INIT 17884 4 .cfa: sp 0 +
STACK CFI INIT 17888 58 .cfa: sp 0 +
STACK CFI 1788c .cfa: sp 32 +
STACK CFI 17894 .cfa: x29 32 + x19: .cfa -16 + ^ .ra: .cfa -24 + ^ x29: .cfa -32 + ^
STACK CFI 178b4 .cfa: sp 32 +
STACK CFI 178bc .cfa: sp 0 +
STACK CFI 178c0 .cfa: x29 32 +
STACK CFI 178d4 .cfa: sp 32 +
STACK CFI 178dc .cfa: sp 0 +
STACK CFI INIT 178e0 50 .cfa: sp 0 +
STACK CFI 178e4 .cfa: sp 32 +
STACK CFI 178ec .cfa: x29 32 + x19: .cfa -16 + ^ .ra: .cfa -24 + ^ x29: .cfa -32 + ^
STACK CFI 17904 .cfa: sp 32 +
STACK CFI 1790c .cfa: sp 0 +
STACK CFI 17910 .cfa: x29 32 +
STACK CFI 17924 .cfa: sp 32 +
STACK CFI 1792c .cfa: sp 0 +
STACK CFI INIT 17930 5c .cfa: sp 0 +
STACK CFI 17934 .cfa: sp 32 +
STACK CFI 1793c .cfa: x29 32 + x19: .cfa -16 + ^ .ra: .cfa -24 + ^ x29: .cfa -32 + ^
STACK CFI 17960 .cfa: sp 32 +
STACK CFI 17968 .cfa: sp 0 +
STACK CFI 1796c .cfa: x29 32 +
STACK CFI 17980 .cfa: sp 32 +
STACK CFI 17988 .cfa: sp 0 +
STACK CFI INIT 1798c 6c .cfa: sp 0 +
STACK CFI 17990 .cfa: sp 32 +
STACK CFI 17998 .cfa: x29 32 + x19: .cfa -8 + ^ x20: .cfa -16 + ^ .ra: .cfa -24 + ^ x29: .cfa -32 + ^
STACK CFI 179c4 .cfa: sp 32 +
STACK CFI 179cc .cfa: sp 0 +
STACK CFI 179d0 .cfa: x29 32 +
STACK CFI 179ec .cfa: sp 32 +
STACK CFI 179f4 .cfa: sp 0 +
STACK CFI INIT 179f8 50 .cfa: sp 0 +
STACK CFI 179fc .cfa: sp 32 +
STACK CFI 17a04 .cfa: x29 32 + x19: .cfa -16 + ^ .ra: .cfa -24 + ^ x29: .cfa -32 + ^
STACK CFI 17a3c .cfa: sp 32 +
STACK CFI 17a44 .cfa: sp 0 +
STACK CFI INIT 17a48 34 .cfa: sp 0 +
STACK CFI 17a64 .cfa: sp 16 +
STACK CFI 17a68 .cfa: x29 16 + .ra: .cfa -8 + ^ x29: .cfa -16 + ^
STACK CFI 17a74 .cfa: sp 16 +
STACK CFI 17a78 .cfa: sp 0 +
STACK CFI INIT 17a7c 50 .cfa: sp 0 +
STACK CFI 17a80 .cfa: sp 32 +
STACK CFI 17a88 .cfa: x29 32 + x19: .cfa -16 + ^ .ra: .cfa -24 + ^ x29: .cfa -32 + ^
STACK CFI 17aa0 .cfa: sp 32 +
STACK CFI 17aa8 .cfa: sp 0 +
STACK CFI 17aac .cfa: x29 32 +
STACK CFI 17ac0 .cfa: sp 32 +
STACK CFI 17ac8 .cfa: sp 0 +
STACK CFI INIT 17acc 60 .cfa: sp 0 +
STACK CFI 17ad0 .cfa: sp 32 +
STACK CFI 17ad8 .cfa: x29 32 + x19: .cfa -8 + ^ x20: .cfa -16 + ^ .ra: .cfa -24 + ^ x29: .cfa -32 + ^
STACK CFI 17af8 .cfa: sp 32 +
STACK CFI 17b00 .cfa: sp 0 +
STACK CFI 17b04 .cfa: x29 32 +
STACK CFI 17b20 .cfa: sp 32 +
STACK CFI 17b28 .cfa: sp 0 +
STACK CFI INIT 17ce8 1c .cfa: sp 0 +
STACK CFI INIT 17d04 c .cfa: sp 0 +
STACK CFI INIT 17d10 60 .cfa: sp 0 +
STACK CFI 17d14 .cfa: sp 32 +
STACK CFI 17d1c .cfa: x29 32 + x19: .cfa -8 + ^ x20: .cfa -16 + ^ .ra: .cfa -24 + ^ x29: .cfa -32 + ^
STACK CFI 17d3c .cfa: sp 32 +
STACK CFI 17d44 .cfa: sp 0 +
STACK CFI 17d48 .cfa: x29 32 +
STACK CFI 17d64 .cfa: sp 32 +
STACK CFI 17d6c .cfa: sp 0 +
STACK CFI INIT 17d70 70 .cfa: sp 0 +
STACK CFI 17d74 .cfa: sp 32 +
STACK CFI 17d7c .cfa: x29 32 + x19: .cfa -8 + ^ x20: .cfa -16 + ^ .ra: .cfa -24 + ^ x29: .cfa -32 + ^
STACK CFI 17da4 .cfa: sp 32 +
STACK CFI 17dac .cfa: sp 0 +
STACK CFI 17db0 .cfa: x29 32 +
STACK CFI 17dd4 .cfa: sp 32 +
STACK CFI 17ddc .cfa: sp 0 +
STACK CFI INIT 17de0 50 .cfa: sp 0 +
STACK CFI 17de4 .cfa: sp 32 +
STACK CFI 17dec .cfa: x29 32 + x19: .cfa -16 + ^ .ra: .cfa -24 + ^ x29: .cfa -32 + ^
STACK CFI 17e04 .cfa: sp 32 +
STACK CFI 17e0c .cfa: sp 0 +
STACK CFI 17e10 .cfa: x29 32 +
STACK CFI 17e24 .cfa: sp 32 +
STACK CFI 17e2c .cfa: sp 0 +
STACK CFI INIT 17e30 5c .cfa: sp 0 +
STACK CFI 17e34 .cfa: sp 32 +
STACK CFI 17e3c .cfa: x29 32 + x19: .cfa -16 + ^ .ra: .cfa -24 + ^ x29: .cfa -32 + ^
STACK CFI 17e60 .cfa: sp 32 +
STACK CFI 17e68 .cfa: sp 0 +
STACK CFI 17e6c .cfa: x29 32 +
STACK CFI 17e80 .cfa: sp 32 +
STACK CFI 17e88 .cfa: sp 0 +
STACK CFI INIT 17e8c 6c .cfa: sp 0 +
STACK CFI 17e90 .cfa: sp 32 +
STACK CFI 17e98 .cfa: x29 32 + x19: .cfa -8 + ^ x20: .cfa -16 + ^ .ra: .cfa -24 + ^ x29: .cfa -32 + ^
STACK CFI 17ec4 .cfa: sp 32 +
STACK CFI 17ecc .cfa: sp 0 +
STACK CFI 17ed0 .cfa: x29 32 +
STACK CFI 17eec .cfa: sp 32 +
STACK CFI 17ef4 .cfa: sp 0 +
STACK CFI INIT 17ef8 58 .cfa: sp 0 +
STACK CFI 17efc .cfa: sp 32 +
STACK CFI 17f04 .cfa: x29 32 + x19: .cfa -8 + ^ x20: .cfa -16 + ^ .ra: .cfa -24 + ^ x29: .cfa -32 + ^
STACK CFI 17f44 .cfa: sp 32 +
STACK CFI 17f4c .cfa: sp 0 +
STACK CFI INIT 17f50 4c .cfa: sp 0 +
STACK CFI 17f54 .cfa: sp 32 +
STACK CFI 17f5c .cfa: x29 32 + x19: .cfa -8 + ^ x20: .cfa -16 + ^ .ra: .cfa -24 + ^ x29: .cfa -32 + ^
STACK CFI 17f90 .cfa: sp 32 +
STACK CFI 17f98 .cfa: sp 0 +
STACK CFI INIT 17f9c 50 .cfa: sp 0 +
STACK CFI 17fa0 .cfa: sp 32 +
STACK CFI 17fa8 .cfa: x29 32 + x19: .cfa -16 + ^ .ra: .cfa -24 + ^ x29: .cfa -32 + ^
STACK CFI 17fc0 .cfa: sp 32 +
STACK CFI 17fc8 .cfa: sp 0 +
STACK CFI 17fcc .cfa: x29 32 +
STACK CFI 17fe0 .cfa: sp 32 +
STACK CFI 17fe8 .cfa: sp 0 +
STACK CFI INIT 17fec 60 .cfa: sp 0 +
STACK CFI 17ff0 .cfa: sp 32 +
STACK CFI 17ff8 .cfa: x29 32 + x19: .cfa -8 + ^ x20: .cfa -16 + ^ .ra: .cfa -24 + ^ x29: .cfa -32 + ^
STACK CFI 18018 .cfa: sp 32 +
STACK CFI 18020 .cfa: sp 0 +
STACK CFI 18024 .cfa: x29 32 +
STACK CFI 18040 .cfa: sp 32 +
STACK CFI 18048 .cfa: sp 0 +
STACK CFI INIT 18218 1c .cfa: sp 0 +
STACK CFI INIT 18234 c .cfa: sp 0 +
STACK CFI INIT 18240 68 .cfa: sp 0 +
STACK CFI 18244 .cfa: sp 48 +
STACK CFI 18250 .cfa: x29 48 + x19: .cfa -8 + ^ x20: .cfa -16 + ^ x21: .cfa -32 + ^ .ra: .cfa -40 + ^ x29: .cfa -48 + ^
STACK CFI 18288 .cfa: sp 48 +
STACK CFI 18294 .cfa: sp 0 +
STACK CFI 18298 .cfa: sp 48 +
STACK CFI 182a4 .cfa: sp 0 +
STACK CFI INIT 1831c 8 .cfa: sp 0 +
STACK CFI INIT 18324 14 .cfa: sp 0 +
STACK CFI INIT 18600 4 .cfa: sp 0 +
STACK CFI INIT 18604 14 .cfa: sp 0 +
STACK CFI INIT 18618 14 .cfa: sp 0 +
STACK CFI INIT 1862c 14 .cfa: sp 0 +
STACK CFI INIT 18640 14 .cfa: sp 0 +
STACK CFI 18644 .cfa: sp 16 +
STACK CFI 18648 .cfa: x29 16 + .ra: .cfa -8 + ^ x29: .cfa -16 + ^
STACK CFI INIT 18654 54 .cfa: sp 0 +
STACK CFI 18658 .cfa: sp 32 +
STACK CFI 18660 .cfa: x29 32 + x19: .cfa -8 + ^ x20: .cfa -16 + ^ .ra: .cfa -24 + ^ x29: .cfa -32 + ^
STACK CFI 18690 .cfa: sp 32 +
STACK CFI 18698 .cfa: sp 0 +
STACK CFI 1869c .cfa: sp 32 +
STACK CFI 186a4 .cfa: sp 0 +
STACK CFI INIT 186a8 14 .cfa: sp 0 +
STACK CFI 186ac .cfa: sp 16 +
STACK CFI 186b0 .cfa: x29 16 + .ra: .cfa -8 + ^ x29: .cfa -16 + ^
STACK CFI INIT 186bc 4 .cfa: sp 0 +
STACK CFI INIT 186c0 14 .cfa: sp 0 +
STACK CFI INIT 186d4 20 .cfa: sp 0 +
STACK CFI INIT 186f4 3c .cfa: sp 0 +
STACK CFI 1870c .cfa: sp 32 +
STACK CFI 18714 .cfa: x29 32 + x19: .cfa -16 + ^ .ra: .cfa -24 + ^ x29: .cfa -32 + ^
STACK CFI 18724 .cfa: sp 32 +
STACK CFI 1872c .cfa: sp 0 +
STACK CFI INIT 18730 60 .cfa: sp 0 +
STACK CFI 18734 .cfa: sp 32 +
STACK CFI 1873c .cfa: x29 32 + x19: .cfa -8 + ^ x20: .cfa -16 + ^ .ra: .cfa -24 + ^ x29: .cfa -32 + ^
STACK CFI 18784 .cfa: sp 32 +
STACK CFI 1878c .cfa: sp 0 +
STACK CFI INIT 18790 54 .cfa: sp 0 +
STACK CFI 18794 .cfa: sp 32 +
STACK CFI 1879c .cfa: x29 32 + x19: .cfa -8 + ^ x20: .cfa -16 + ^ .ra: .cfa -24 + ^ x29: .cfa -32 + ^
STACK CFI 187d8 .cfa: sp 32 +
STACK CFI 187e0 .cfa: sp 0 +
STACK CFI INIT 187e4 10 .cfa: sp 0 +
STACK CFI INIT 187f4 30 .cfa: sp 0 +
STACK CFI 18800 .cfa: sp 32 +
STACK CFI 18808 .cfa: x29 32 + x19: .cfa -16 + ^ .ra: .cfa -24 + ^ x29: .cfa -32 + ^
STACK CFI 18818 .cfa: sp 32 +
STACK CFI 18820 .cfa: sp 0 +
STACK CFI INIT 18b40 1c .cfa: sp 0 +
STACK CFI INIT 18b5c c .cfa: sp 0 +
STACK CFI INIT 18b68 50 .cfa: sp 0 +
STACK CFI 18b6c .cfa: sp 32 +
STACK CFI 18b74 .cfa: x29 32 + x19: .cfa -16 + ^ .ra: .cfa -24 + ^ x29: .cfa -32 + ^
STACK CFI 18b8c .cfa: sp 32 +
STACK CFI 18b94 .cfa: sp 0 +
STACK CFI 18b98 .cfa: x29 32 +
STACK CFI 18bac .cfa: sp 32 +
STACK CFI 18bb4 .cfa: sp 0 +
STACK CFI INIT 18bb8 90 .cfa: sp 0 +
STACK CFI 18bbc .cfa: sp 32 +
STACK CFI 18bc4 .cfa: x29 32 + x19: .cfa -8 + ^ x20: .cfa -16 + ^ .ra: .cfa -24 + ^ x29: .cfa -32 + ^
STACK CFI 18bf8 .cfa: sp 32 +
STACK CFI 18c00 .cfa: sp 0 +
STACK CFI 18c04 .cfa: x29 32 +
STACK CFI 18c3c .cfa: sp 32 +
STACK CFI 18c44 .cfa: sp 0 +
STACK CFI INIT 18c48 9c .cfa: sp 0 +
STACK CFI 18c4c .cfa: sp 32 +
STACK CFI 18c54 .cfa: x29 32 + x19: .cfa -8 + ^ x20: .cfa -16 + ^ .ra: .cfa -24 + ^ x29: .cfa -32 + ^
STACK CFI 18c94 .cfa: sp 32 +
STACK CFI 18c9c .cfa: sp 0 +
STACK CFI 18ca0 .cfa: x29 32 +
STACK CFI 18cd8 .cfa: sp 32 +
STACK CFI 18ce0 .cfa: sp 0 +
STACK CFI INIT 18ce4 9c .cfa: sp 0 +
STACK CFI 18ce8 .cfa: sp 32 +
STACK CFI 18cf0 .cfa: x29 32 + x19: .cfa -8 + ^ x20: .cfa -16 + ^ .ra: .cfa -24 + ^ x29: .cfa -32 + ^
STACK CFI 18d4c .cfa: sp 32 +
STACK CFI 18d54 .cfa: sp 0 +
STACK CFI 18d58 .cfa: x29 32 +
STACK CFI 18d74 .cfa: sp 32 +
STACK CFI 18d7c .cfa: sp 0 +
STACK CFI INIT 18d80 68 .cfa: sp 0 +
STACK CFI 18d84 .cfa: sp 32 +
STACK CFI 18d8c .cfa: x29 32 + x19: .cfa -8 + ^ x20: .cfa -16 + ^ .ra: .cfa -24 + ^ x29: .cfa -32 + ^
STACK CFI 18ddc .cfa: sp 32 +
STACK CFI 18de4 .cfa: sp 0 +
STACK CFI INIT 18de8 5c .cfa: sp 0 +
STACK CFI 18dec .cfa: sp 32 +
STACK CFI 18df4 .cfa: x29 32 + x19: .cfa -8 + ^ x20: .cfa -16 + ^ .ra: .cfa -24 + ^ x29: .cfa -32 + ^
STACK CFI 18e38 .cfa: sp 32 +
STACK CFI 18e40 .cfa: sp 0 +
STACK CFI INIT 18e44 90 .cfa: sp 0 +
STACK CFI 18e48 .cfa: sp 32 +
STACK CFI 18e50 .cfa: x29 32 + x19: .cfa -8 + ^ x20: .cfa -16 + ^ .ra: .cfa -24 + ^ x29: .cfa -32 + ^
STACK CFI 18e84 .cfa: sp 32 +
STACK CFI 18e8c .cfa: sp 0 +
STACK CFI 18e90 .cfa: x29 32 +
STACK CFI 18ec8 .cfa: sp 32 +
STACK CFI 18ed0 .cfa: sp 0 +
STACK CFI INIT 18ed4 90 .cfa: sp 0 +
STACK CFI 18ed8 .cfa: sp 32 +
STACK CFI 18ee0 .cfa: x29 32 + x19: .cfa -8 + ^ x20: .cfa -16 + ^ .ra: .cfa -24 + ^ x29: .cfa -32 + ^
STACK CFI 18f30 .cfa: sp 32 +
STACK CFI 18f38 .cfa: sp 0 +
STACK CFI 18f3c .cfa: x29 32 +
STACK CFI 18f58 .cfa: sp 32 +
STACK CFI 18f60 .cfa: sp 0 +
STACK CFI INIT 19118 1c .cfa: sp 0 +
STACK CFI INIT 19134 c .cfa: sp 0 +
STACK CFI INIT 19140 4 .cfa: sp 0 +
STACK CFI INIT 19310 9c .cfa: sp 0 +
STACK CFI 19314 .cfa: sp 32 +
STACK CFI 1931c .cfa: x29 32 + x19: .cfa -8 + ^ x20: .cfa -16 + ^ .ra: .cfa -24 + ^ x29: .cfa -32 + ^
STACK CFI 193a0 .cfa: sp 32 +
STACK CFI 193a8 .cfa: sp 0 +
STACK CFI INIT 193ac a4 .cfa: sp 0 +
STACK CFI 193b0 .cfa: sp 32 +
STACK CFI 193b8 .cfa: x29 32 + x19: .cfa -8 + ^ x20: .cfa -16 + ^ .ra: .cfa -24 + ^ x29: .cfa -32 + ^
STACK CFI 19444 .cfa: sp 32 +
STACK CFI 1944c .cfa: sp 0 +
STACK CFI INIT 19450 50 .cfa: sp 0 +
STACK CFI 19454 .cfa: sp 32 +
STACK CFI 1945c .cfa: x29 32 + x19: .cfa -16 + ^ .ra: .cfa -24 + ^ x29: .cfa -32 + ^
STACK CFI 19474 .cfa: sp 32 +
STACK CFI 1947c .cfa: sp 0 +
STACK CFI 19480 .cfa: x29 32 +
STACK CFI 19494 .cfa: sp 32 +
STACK CFI 1949c .cfa: sp 0 +
STACK CFI INIT 194a0 5c .cfa: sp 0 +
STACK CFI 194a4 .cfa: sp 32 +
STACK CFI 194ac .cfa: x29 32 + x19: .cfa -16 + ^ .ra: .cfa -24 + ^ x29: .cfa -32 + ^
STACK CFI 194d0 .cfa: sp 32 +
STACK CFI 194d8 .cfa: sp 0 +
STACK CFI 194dc .cfa: x29 32 +
STACK CFI 194f0 .cfa: sp 32 +
STACK CFI 194f8 .cfa: sp 0 +
STACK CFI INIT 194fc 6c .cfa: sp 0 +
STACK CFI 19500 .cfa: sp 32 +
STACK CFI 19508 .cfa: x29 32 + x19: .cfa -8 + ^ x20: .cfa -16 + ^ .ra: .cfa -24 + ^ x29: .cfa -32 + ^
STACK CFI 19534 .cfa: sp 32 +
STACK CFI 1953c .cfa: sp 0 +
STACK CFI 19540 .cfa: x29 32 +
STACK CFI 1955c .cfa: sp 32 +
STACK CFI 19564 .cfa: sp 0 +
STACK CFI INIT 19568 58 .cfa: sp 0 +
STACK CFI 1956c .cfa: sp 32 +
STACK CFI 19574 .cfa: x29 32 + x19: .cfa -8 + ^ x20: .cfa -16 + ^ .ra: .cfa -24 + ^ x29: .cfa -32 + ^
STACK CFI 195b4 .cfa: sp 32 +
STACK CFI 195bc .cfa: sp 0 +
STACK CFI INIT 195c0 4c .cfa: sp 0 +
STACK CFI 195c4 .cfa: sp 32 +
STACK CFI 195cc .cfa: x29 32 + x19: .cfa -8 + ^ x20: .cfa -16 + ^ .ra: .cfa -24 + ^ x29: .cfa -32 + ^
STACK CFI 19600 .cfa: sp 32 +
STACK CFI 19608 .cfa: sp 0 +
STACK CFI INIT 1960c 50 .cfa: sp 0 +
STACK CFI 19610 .cfa: sp 32 +
STACK CFI 19618 .cfa: x29 32 + x19: .cfa -16 + ^ .ra: .cfa -24 + ^ x29: .cfa -32 + ^
STACK CFI 19630 .cfa: sp 32 +
STACK CFI 19638 .cfa: sp 0 +
STACK CFI 1963c .cfa: x29 32 +
STACK CFI 19650 .cfa: sp 32 +
STACK CFI 19658 .cfa: sp 0 +
STACK CFI INIT 1965c 60 .cfa: sp 0 +
STACK CFI 19660 .cfa: sp 32 +
STACK CFI 19668 .cfa: x29 32 + x19: .cfa -8 + ^ x20: .cfa -16 + ^ .ra: .cfa -24 + ^ x29: .cfa -32 + ^
STACK CFI 19688 .cfa: sp 32 +
STACK CFI 19690 .cfa: sp 0 +
STACK CFI 19694 .cfa: x29 32 +
STACK CFI 196b0 .cfa: sp 32 +
STACK CFI 196b8 .cfa: sp 0 +
STACK CFI INIT 1988c 1c .cfa: sp 0 +
STACK CFI INIT 198a8 c .cfa: sp 0 +
STACK CFI INIT 198b4 5c .cfa: sp 0 +
STACK CFI 198b8 .cfa: sp 32 +
STACK CFI 198c0 .cfa: x29 32 + x19: .cfa -16 + ^ .ra: .cfa -24 + ^ x29: .cfa -32 + ^
STACK CFI 198e4 .cfa: sp 32 +
STACK CFI 198ec .cfa: sp 0 +
STACK CFI 198f0 .cfa: x29 32 +
STACK CFI 19904 .cfa: sp 32 +
STACK CFI 1990c .cfa: sp 0 +
STACK CFI INIT 19910 6c .cfa: sp 0 +
STACK CFI 19914 .cfa: sp 32 +
STACK CFI 1991c .cfa: x29 32 + x19: .cfa -8 + ^ x20: .cfa -16 + ^ .ra: .cfa -24 + ^ x29: .cfa -32 + ^
STACK CFI 19948 .cfa: sp 32 +
STACK CFI 19950 .cfa: sp 0 +
STACK CFI 19954 .cfa: x29 32 +
STACK CFI 19970 .cfa: sp 32 +
STACK CFI 19978 .cfa: sp 0 +
STACK CFI INIT 1997c 58 .cfa: sp 0 +
STACK CFI 19980 .cfa: sp 32 +
STACK CFI 19988 .cfa: x29 32 + x19: .cfa -8 + ^ x20: .cfa -16 + ^ .ra: .cfa -24 + ^ x29: .cfa -32 + ^
STACK CFI 199c8 .cfa: sp 32 +
STACK CFI 199d0 .cfa: sp 0 +
STACK CFI INIT 199d4 4c .cfa: sp 0 +
STACK CFI 199d8 .cfa: sp 32 +
STACK CFI 199e0 .cfa: x29 32 + x19: .cfa -8 + ^ x20: .cfa -16 + ^ .ra: .cfa -24 + ^ x29: .cfa -32 + ^
STACK CFI 19a14 .cfa: sp 32 +
STACK CFI 19a1c .cfa: sp 0 +
STACK CFI INIT 19a20 50 .cfa: sp 0 +
STACK CFI 19a24 .cfa: sp 32 +
STACK CFI 19a2c .cfa: x29 32 + x19: .cfa -16 + ^ .ra: .cfa -24 + ^ x29: .cfa -32 + ^
STACK CFI 19a44 .cfa: sp 32 +
STACK CFI 19a4c .cfa: sp 0 +
STACK CFI 19a50 .cfa: x29 32 +
STACK CFI 19a64 .cfa: sp 32 +
STACK CFI 19a6c .cfa: sp 0 +
STACK CFI INIT 19a70 60 .cfa: sp 0 +
STACK CFI 19a74 .cfa: sp 32 +
STACK CFI 19a7c .cfa: x29 32 + x19: .cfa -8 + ^ x20: .cfa -16 + ^ .ra: .cfa -24 + ^ x29: .cfa -32 + ^
STACK CFI 19a9c .cfa: sp 32 +
STACK CFI 19aa4 .cfa: sp 0 +
STACK CFI 19aa8 .cfa: x29 32 +
STACK CFI 19ac4 .cfa: sp 32 +
STACK CFI 19acc .cfa: sp 0 +
STACK CFI INIT 19c94 1c .cfa: sp 0 +
STACK CFI INIT 19cb0 c .cfa: sp 0 +
STACK CFI INIT 19cbc 34 .cfa: sp 0 +
STACK CFI 19cc0 .cfa: sp 16 +
STACK CFI 19cc4 .cfa: x29 16 + .ra: .cfa -8 + ^ x29: .cfa -16 + ^
STACK CFI INIT 19cf0 24 .cfa: sp 0 +
STACK CFI 19cf4 .cfa: sp 32 +
STACK CFI 19cfc .cfa: x29 32 + x19: .cfa -16 + ^ .ra: .cfa -24 + ^ x29: .cfa -32 + ^
STACK CFI 19d08 .cfa: sp 32 +
STACK CFI 19d10 .cfa: sp 0 +
STACK CFI INIT 19d14 14 .cfa: sp 0 +
STACK CFI INIT 19df4 4 .cfa: sp 0 +
STACK CFI INIT 19df8 28 .cfa: sp 0 +
STACK CFI 19e08 .cfa: sp 16 +
STACK CFI 19e0c .cfa: x29 16 + .ra: .cfa -8 + ^ x29: .cfa -16 + ^
STACK CFI 19e18 .cfa: sp 16 +
STACK CFI 19e1c .cfa: sp 0 +
STACK CFI INIT 1a2a0 1c .cfa: sp 0 +
STACK CFI INIT 1a640 4 .cfa: sp 0 +
STACK CFI INIT 1b0f4 4 .cfa: sp 0 +
STACK CFI INIT 1b0f8 14 .cfa: sp 0 +
STACK CFI 1b0fc .cfa: sp 16 +
STACK CFI 1b100 .cfa: x29 16 + .ra: .cfa -8 + ^ x29: .cfa -16 + ^
STACK CFI INIT 1b10c 14 .cfa: sp 0 +
STACK CFI 1b110 .cfa: sp 16 +
STACK CFI 1b114 .cfa: x29 16 + .ra: .cfa -8 + ^ x29: .cfa -16 + ^
STACK CFI INIT 1b120 c .cfa: sp 0 +
STACK CFI 1b124 .cfa: sp 16 +
STACK CFI 1b128 .cfa: x29 16 + .ra: .cfa -8 + ^ x29: .cfa -16 + ^
STACK CFI INIT 1b17c 30 .cfa: sp 0 +
STACK CFI 1b180 .cfa: sp 32 +
STACK CFI 1b188 .cfa: x29 32 + x19: .cfa -16 + ^ .ra: .cfa -24 + ^ x29: .cfa -32 + ^
STACK CFI 1b1a0 .cfa: sp 32 +
STACK CFI 1b1a8 .cfa: sp 0 +
STACK CFI INIT 1b1ac c .cfa: sp 0 +
STACK CFI 1b1b0 .cfa: sp 16 +
STACK CFI 1b1b4 .cfa: x29 16 + .ra: .cfa -8 + ^ x29: .cfa -16 + ^
STACK CFI INIT 1b1b8 4 .cfa: sp 0 +
STACK CFI INIT 1b1bc 4 .cfa: sp 0 +
STACK CFI INIT 1b1c0 38 .cfa: sp 0 +
STACK CFI 1b1c4 .cfa: sp 32 +
STACK CFI 1b1cc .cfa: x29 32 + x19: .cfa -16 + ^ .ra: .cfa -24 + ^ x29: .cfa -32 + ^
STACK CFI 1b1ec .cfa: sp 32 +
STACK CFI 1b1f4 .cfa: sp 0 +
STACK CFI INIT 1b1f8 18 .cfa: sp 0 +
STACK CFI INIT 1b210 4 .cfa: sp 0 +
STACK CFI INIT 1b214 4 .cfa: sp 0 +
STACK CFI INIT 1b218 10 .cfa: sp 0 +
STACK CFI INIT 1b228 1c .cfa: sp 0 +
STACK CFI INIT 1b244 c .cfa: sp 0 +
STACK CFI INIT 1b3bc 114 .cfa: sp 0 +
STACK CFI 1b3c0 .cfa: sp 32 +
STACK CFI 1b3c8 .cfa: x29 32 + x19: .cfa -16 + ^ .ra: .cfa -24 + ^ x29: .cfa -32 + ^
STACK CFI 1b4c4 .cfa: sp 32 +
STACK CFI 1b4cc .cfa: sp 0 +
STACK CFI INIT 1b830 3c .cfa: sp 0 +
STACK CFI 1b834 .cfa: sp 32 +
STACK CFI 1b83c .cfa: x29 32 + x19: .cfa -16 + ^ .ra: .cfa -24 + ^ x29: .cfa -32 + ^
STACK CFI 1b848 .cfa: sp 32 +
STACK CFI 1b850 .cfa: sp 0 +
STACK CFI 1b854 .cfa: x29 32 +
STACK CFI 1b860 .cfa: sp 32 +
STACK CFI 1b868 .cfa: sp 0 +
STACK CFI INIT 1ba8c 64 .cfa: sp 0 +
STACK CFI 1ba90 .cfa: sp 32 +
STACK CFI 1ba98 .cfa: x29 32 + x19: .cfa -16 + ^ .ra: .cfa -24 + ^ x29: .cfa -32 + ^
STACK CFI 1bac4 .cfa: sp 32 +
STACK CFI 1bacc .cfa: sp 0 +
STACK CFI 1bad0 .cfa: x29 32 +
STACK CFI 1bae4 .cfa: sp 32 +
STACK CFI 1baec .cfa: sp 0 +
STACK CFI INIT 1bf68 4 .cfa: sp 0 +
STACK CFI INIT 1bf6c 14 .cfa: sp 0 +
STACK CFI INIT 1bf80 c .cfa: sp 0 +
STACK CFI INIT 1bf8c 24c .cfa: sp 0 +
STACK CFI INIT 1c1d8 a0 .cfa: sp 0 +
STACK CFI 1c1e4 .cfa: sp 32 +
STACK CFI 1c23c .cfa: sp 0 +
STACK CFI 1c240 .cfa: sp 32 +
STACK CFI 1c248 .cfa: sp 0 +
STACK CFI 1c24c .cfa: sp 32 +
STACK CFI 1c260 .cfa: sp 0 +
STACK CFI 1c264 .cfa: sp 32 +
STACK CFI 1c274 .cfa: sp 0 +
STACK CFI INIT 1c278 38 .cfa: sp 0 +
STACK CFI 1c284 .cfa: sp 32 +
STACK CFI 1c2ac .cfa: sp 0 +
STACK CFI INIT 1c544 7c .cfa: sp 0 +
STACK CFI 1c548 .cfa: sp 32 +
STACK CFI 1c550 .cfa: x29 32 + x19: .cfa -16 + ^ .ra: .cfa -24 + ^ x29: .cfa -32 + ^
STACK CFI 1c57c .cfa: sp 32 +
STACK CFI 1c584 .cfa: sp 0 +
STACK CFI 1c588 .cfa: x29 32 +
STACK CFI 1c5b4 .cfa: sp 32 +
STACK CFI 1c5bc .cfa: sp 0 +
STACK CFI INIT 1c610 2c .cfa: sp 0 +
STACK CFI 1c614 .cfa: sp 32 +
STACK CFI 1c61c .cfa: x29 32 + x19: .cfa -16 + ^ .ra: .cfa -24 + ^ x29: .cfa -32 + ^
STACK CFI 1c630 .cfa: sp 32 +
STACK CFI 1c638 .cfa: sp 0 +
STACK CFI INIT 1cdfc 64 .cfa: sp 0 +
STACK CFI 1ce00 .cfa: sp 32 +
STACK CFI 1ce08 .cfa: x29 32 + x19: .cfa -16 + ^ .ra: .cfa -24 + ^ x29: .cfa -32 + ^
STACK CFI 1ce24 .cfa: sp 32 +
STACK CFI 1ce2c .cfa: sp 0 +
STACK CFI 1ce30 .cfa: x29 32 +
STACK CFI 1ce54 .cfa: sp 32 +
STACK CFI 1ce5c .cfa: sp 0 +
STACK CFI INIT 1ce60 570 .cfa: sp 0 +
STACK CFI 1ce64 .cfa: sp 176 +
STACK CFI 1ce78 .cfa: x29 64 + x19: .cfa -8 + ^ x20: .cfa -16 + ^ x21: .cfa -24 + ^ x22: .cfa -32 + ^ x23: .cfa -40 + ^ x24: .cfa -48 + ^ .ra: .cfa -56 + ^ x29: .cfa -64 + ^
STACK CFI 1d0a8 .cfa: sp 176 +
STACK CFI 1d0bc .cfa: sp 0 +
STACK CFI 1d0c0 .cfa: x29 64 +
STACK CFI 1d10c .cfa: sp 176 +
STACK CFI 1d120 .cfa: sp 0 +
STACK CFI 1d124 .cfa: x29 64 +
STACK CFI 1d15c .cfa: sp 176 +
STACK CFI 1d170 .cfa: sp 0 +
STACK CFI 1d174 .cfa: x29 64 +
STACK CFI 1d18c .cfa: sp 176 +
STACK CFI 1d1a0 .cfa: sp 0 +
STACK CFI 1d1a4 .cfa: x29 64 +
STACK CFI 1d1c4 .cfa: sp 176 +
STACK CFI 1d1d8 .cfa: sp 0 +
STACK CFI 1d1dc .cfa: x29 64 +
STACK CFI 1d1f4 .cfa: sp 176 +
STACK CFI 1d208 .cfa: sp 0 +
STACK CFI 1d20c .cfa: x29 64 +
STACK CFI 1d220 .cfa: sp 176 +
STACK CFI 1d234 .cfa: sp 0 +
STACK CFI 1d238 .cfa: x29 64 +
STACK CFI 1d24c .cfa: sp 176 +
STACK CFI 1d260 .cfa: sp 0 +
STACK CFI 1d264 .cfa: x29 64 +
STACK CFI 1d274 .cfa: sp 176 +
STACK CFI 1d288 .cfa: sp 0 +
STACK CFI 1d28c .cfa: x29 64 +
STACK CFI 1d29c .cfa: sp 176 +
STACK CFI 1d2b0 .cfa: sp 0 +
STACK CFI 1d2b4 .cfa: x29 64 +
STACK CFI 1d2cc .cfa: sp 176 +
STACK CFI 1d2e0 .cfa: sp 0 +
STACK CFI 1d2e4 .cfa: x29 64 +
STACK CFI 1d2f8 .cfa: sp 176 +
STACK CFI 1d30c .cfa: sp 0 +
STACK CFI 1d310 .cfa: x29 64 +
STACK CFI 1d328 .cfa: sp 176 +
STACK CFI 1d33c .cfa: sp 0 +
STACK CFI 1d340 .cfa: x29 64 +
STACK CFI 1d36c .cfa: sp 176 +
STACK CFI 1d380 .cfa: sp 0 +
STACK CFI 1d384 .cfa: x29 64 +
STACK CFI 1d398 .cfa: sp 176 +
STACK CFI 1d3ac .cfa: sp 0 +
STACK CFI 1d3b0 .cfa: x29 64 +
STACK CFI INIT 1d3d0 228 .cfa: sp 0 +
STACK CFI INIT 1d5f8 2dc .cfa: sp 0 +
STACK CFI INIT 1d8d4 53c .cfa: sp 0 +
STACK CFI INIT 1de10 78 .cfa: sp 0 +
STACK CFI 1de14 .cfa: sp 48 +
STACK CFI 1de20 .cfa: x29 48 + x19: .cfa -8 + ^ x20: .cfa -16 + ^ x21: .cfa -24 + ^ x22: .cfa -32 + ^ .ra: .cfa -40 + ^ x29: .cfa -48 + ^
STACK CFI 1de68 .cfa: sp 48 +
STACK CFI 1de74 .cfa: sp 0 +
STACK CFI 1de78 .cfa: sp 48 +
STACK CFI 1de84 .cfa: sp 0 +
STACK CFI INIT 1de88 8c .cfa: sp 0 +
STACK CFI 1de8c .cfa: sp 32 +
STACK CFI 1de94 .cfa: x29 32 + x19: .cfa -16 + ^ .ra: .cfa -24 + ^ x29: .cfa -32 + ^
STACK CFI 1dec8 .cfa: sp 32 +
STACK CFI 1ded0 .cfa: sp 0 +
STACK CFI 1ded4 .cfa: x29 32 +
STACK CFI 1df08 .cfa: sp 32 +
STACK CFI 1df10 .cfa: sp 0 +
STACK CFI INIT 1df14 24 .cfa: sp 0 +
STACK CFI 1df18 .cfa: sp 32 +
STACK CFI 1df20 .cfa: x29 32 + x19: .cfa -16 + ^ .ra: .cfa -24 + ^ x29: .cfa -32 + ^
STACK CFI 1df2c .cfa: sp 32 +
STACK CFI 1df34 .cfa: sp 0 +
STACK CFI INIT 1df38 150 .cfa: sp 0 +
STACK CFI 1df3c .cfa: sp 48 +
STACK CFI 1df48 .cfa: x29 48 + x19: .cfa -8 + ^ x20: .cfa -16 + ^ x21: .cfa -24 + ^ x22: .cfa -32 + ^ .ra: .cfa -40 + ^ x29: .cfa -48 + ^
STACK CFI 1e078 .cfa: sp 48 +
STACK CFI 1e084 .cfa: sp 0 +
STACK CFI INIT 1e088 68 .cfa: sp 0 +
STACK CFI 1e08c .cfa: sp 64 +
STACK CFI 1e098 .cfa: x29 32 + x19: .cfa -16 + ^ .ra: .cfa -24 + ^ x29: .cfa -32 + ^
STACK CFI 1e0dc .cfa: sp 64 +
STACK CFI 1e0e8 .cfa: sp 0 +
STACK CFI 1e0ec .cfa: x29 32 +
STACK CFI INIT 1e0f0 90 .cfa: sp 0 +
STACK CFI 1e0f4 .cfa: sp 32 +
STACK CFI 1e0fc .cfa: x29 32 + x19: .cfa -8 + ^ x20: .cfa -16 + ^ .ra: .cfa -24 + ^ x29: .cfa -32 + ^
STACK CFI 1e128 .cfa: sp 32 +
STACK CFI 1e130 .cfa: sp 0 +
STACK CFI 1e134 .cfa: x29 32 +
STACK CFI 1e174 .cfa: sp 32 +
STACK CFI 1e17c .cfa: sp 0 +
STACK CFI INIT 1e180 ec .cfa: sp 0 +
STACK CFI 1e184 .cfa: sp 112 +
STACK CFI 1e194 .cfa: x29 48 + x19: .cfa -8 + ^ x20: .cfa -16 + ^ x21: .cfa -32 + ^ .ra: .cfa -40 + ^ x29: .cfa -48 + ^
STACK CFI 1e254 .cfa: sp 112 +
STACK CFI 1e264 .cfa: sp 0 +
STACK CFI 1e268 .cfa: x29 48 +
STACK CFI INIT 1e26c ec .cfa: sp 0 +
STACK CFI 1e270 .cfa: sp 112 +
STACK CFI 1e280 .cfa: x29 48 + x19: .cfa -8 + ^ x20: .cfa -16 + ^ x21: .cfa -32 + ^ .ra: .cfa -40 + ^ x29: .cfa -48 + ^
STACK CFI 1e340 .cfa: sp 112 +
STACK CFI 1e350 .cfa: sp 0 +
STACK CFI 1e354 .cfa: x29 48 +
STACK CFI INIT 1e358 48 .cfa: sp 0 +
STACK CFI 1e35c .cfa: sp 32 +
STACK CFI 1e364 .cfa: x29 32 + x19: .cfa -8 + ^ x20: .cfa -16 + ^ .ra: .cfa -24 + ^ x29: .cfa -32 + ^
STACK CFI 1e388 .cfa: sp 32 +
STACK CFI 1e390 .cfa: sp 0 +
STACK CFI 1e394 .cfa: x29 32 +
STACK CFI INIT 1e3a0 98 .cfa: sp 0 +
STACK CFI 1e3a4 .cfa: sp 80 +
STACK CFI 1e3b0 .cfa: x29 32 + x19: .cfa -16 + ^ .ra: .cfa -24 + ^ x29: .cfa -32 + ^
STACK CFI 1e424 .cfa: sp 80 +
STACK CFI 1e430 .cfa: sp 0 +
STACK CFI 1e434 .cfa: x29 32 +
STACK CFI INIT 1e438 260 .cfa: sp 0 +
STACK CFI 1e43c .cfa: sp 112 +
STACK CFI 1e454 .cfa: x29 80 + x19: .cfa -8 + ^ x20: .cfa -16 + ^ x21: .cfa -24 + ^ x22: .cfa -32 + ^ x23: .cfa -40 + ^ x24: .cfa -48 + ^ x25: .cfa -64 + ^ .ra: .cfa -72 + ^ x29: .cfa -80 + ^
STACK CFI 1e638 .cfa: sp 112 +
STACK CFI 1e650 .cfa: sp 0 +
STACK CFI 1e654 .cfa: x29 80 +
STACK CFI INIT 1e698 150 .cfa: sp 0 +
STACK CFI 1e69c .cfa: sp 48 +
STACK CFI 1e6a8 .cfa: x29 48 + x19: .cfa -8 + ^ x20: .cfa -16 + ^ x21: .cfa -24 + ^ x22: .cfa -32 + ^ .ra: .cfa -40 + ^ x29: .cfa -48 + ^
STACK CFI 1e7d8 .cfa: sp 48 +
STACK CFI 1e7e4 .cfa: sp 0 +
STACK CFI INIT 1e7e8 1e0 .cfa: sp 0 +
STACK CFI 1e7ec .cfa: sp 96 +
STACK CFI 1e800 .cfa: x29 64 + x19: .cfa -8 + ^ x20: .cfa -16 + ^ x21: .cfa -24 + ^ x22: .cfa -32 + ^ x23: .cfa -40 + ^ x24: .cfa -48 + ^ .ra: .cfa -56 + ^ x29: .cfa -64 + ^
STACK CFI 1e980 .cfa: sp 96 +
STACK CFI 1e994 .cfa: sp 0 +
STACK CFI 1e998 .cfa: x29 64 +
STACK CFI INIT 1e9c8 284 .cfa: sp 0 +
STACK CFI 1e9cc .cfa: sp 112 +
STACK CFI 1e9e4 .cfa: x29 80 + x19: .cfa -8 + ^ x20: .cfa -16 + ^ x21: .cfa -24 + ^ x22: .cfa -32 + ^ x23: .cfa -40 + ^ x24: .cfa -48 + ^ x25: .cfa -64 + ^ .ra: .cfa -72 + ^ x29: .cfa -80 + ^
STACK CFI 1ebec .cfa: sp 112 +
STACK CFI 1ec04 .cfa: sp 0 +
STACK CFI 1ec08 .cfa: x29 80 +
STACK CFI INIT 1ec4c 208 .cfa: sp 0 +
STACK CFI 1ec50 .cfa: sp 96 +
STACK CFI 1ec64 .cfa: x29 64 + x19: .cfa -8 + ^ x20: .cfa -16 + ^ x21: .cfa -24 + ^ x22: .cfa -32 + ^ x23: .cfa -40 + ^ x24: .cfa -48 + ^ .ra: .cfa -56 + ^ x29: .cfa -64 + ^
STACK CFI 1ee0c .cfa: sp 96 +
STACK CFI 1ee20 .cfa: sp 0 +
STACK CFI 1ee24 .cfa: x29 64 +
STACK CFI INIT 1ee54 360 .cfa: sp 0 +
STACK CFI 1ee58 .cfa: sp 160 +
STACK CFI 1ee74 .cfa: x29 96 + x19: .cfa -8 + ^ x20: .cfa -16 + ^ x21: .cfa -24 + ^ x22: .cfa -32 + ^ x23: .cfa -40 + ^ x24: .cfa -48 + ^ x25: .cfa -56 + ^ x26: .cfa -64 + ^ x27: .cfa -72 + ^ x28: .cfa -80 + ^ .ra: .cfa -88 + ^ x29: .cfa -96 + ^
STACK CFI 1f140 .cfa: sp 160 +
STACK CFI 1f15c .cfa: sp 0 +
STACK CFI 1f160 .cfa: x29 96 +
STACK CFI INIT 1f1b4 314 .cfa: sp 0 +
STACK CFI 1f1b8 .cfa: sp 144 +
STACK CFI 1f1d4 .cfa: x29 96 + x19: .cfa -8 + ^ x20: .cfa -16 + ^ x21: .cfa -24 + ^ x22: .cfa -32 + ^ x23: .cfa -40 + ^ x24: .cfa -48 + ^ x25: .cfa -56 + ^ x26: .cfa -64 + ^ x27: .cfa -72 + ^ x28: .cfa -80 + ^ .ra: .cfa -88 + ^ x29: .cfa -96 + ^
STACK CFI 1f450 .cfa: sp 144 +
STACK CFI 1f46c .cfa: sp 0 +
STACK CFI 1f470 .cfa: x29 96 +
STACK CFI INIT 1f4c8 290 .cfa: sp 0 +
STACK CFI 1f4cc .cfa: sp 128 +
STACK CFI 1f4e4 .cfa: x29 80 + x19: .cfa -8 + ^ x20: .cfa -16 + ^ x21: .cfa -24 + ^ x22: .cfa -32 + ^ x23: .cfa -40 + ^ x24: .cfa -48 + ^ x25: .cfa -56 + ^ x26: .cfa -64 + ^ .ra: .cfa -72 + ^ x29: .cfa -80 + ^
STACK CFI 1f738 .cfa: sp 128 +
STACK CFI 1f750 .cfa: sp 0 +
STACK CFI 1f754 .cfa: x29 80 +
STACK CFI INIT 1f758 ddc .cfa: sp 0 +
STACK CFI 1f75c .cfa: sp 144 +
STACK CFI 1f778 .cfa: x29 96 + x19: .cfa -8 + ^ x20: .cfa -16 + ^ x21: .cfa -24 + ^ x22: .cfa -32 + ^ x23: .cfa -40 + ^ x24: .cfa -48 + ^ x25: .cfa -56 + ^ x26: .cfa -64 + ^ x27: .cfa -72 + ^ x28: .cfa -80 + ^ .ra: .cfa -88 + ^ x29: .cfa -96 + ^
STACK CFI 2040c .cfa: sp 144 +
STACK CFI 20428 .cfa: sp 0 +
STACK CFI 2042c .cfa: x29 96 +
STACK CFI INIT 20534 1d0 .cfa: sp 0 +
STACK CFI 20538 .cfa: sp 80 +
STACK CFI 2054c .cfa: x29 80 + x19: .cfa -8 + ^ x20: .cfa -16 + ^ x21: .cfa -24 + ^ x22: .cfa -32 + ^ x23: .cfa -40 + ^ x24: .cfa -48 + ^ x25: .cfa -64 + ^ .ra: .cfa -72 + ^ x29: .cfa -80 + ^
STACK CFI 206ec .cfa: sp 80 +
STACK CFI 20700 .cfa: sp 0 +
STACK CFI INIT 20704 23c .cfa: sp 0 +
STACK CFI 20708 .cfa: sp 112 +
STACK CFI 2071c .cfa: x29 64 + x19: .cfa -8 + ^ x20: .cfa -16 + ^ x21: .cfa -24 + ^ x22: .cfa -32 + ^ x23: .cfa -40 + ^ x24: .cfa -48 + ^ .ra: .cfa -56 + ^ x29: .cfa -64 + ^
STACK CFI 208f8 .cfa: sp 112 +
STACK CFI 2090c .cfa: sp 0 +
STACK CFI 20910 .cfa: x29 64 +
STACK CFI INIT 20940 30c .cfa: sp 0 +
STACK CFI 20944 .cfa: sp 80 +
STACK CFI 20958 .cfa: x29 64 + x19: .cfa -8 + ^ x20: .cfa -16 + ^ x21: .cfa -24 + ^ x22: .cfa -32 + ^ x23: .cfa -40 + ^ x24: .cfa -48 + ^ .ra: .cfa -56 + ^ x29: .cfa -64 + ^
STACK CFI 20ad4 .cfa: sp 80 +
STACK CFI 20ae8 .cfa: sp 0 +
STACK CFI 20aec .cfa: x29 64 +
STACK CFI INIT 20c4c 178 .cfa: sp 0 +
STACK CFI 20c50 .cfa: sp 80 +
STACK CFI 20c64 .cfa: x29 64 + x19: .cfa -8 + ^ x20: .cfa -16 + ^ x21: .cfa -24 + ^ x22: .cfa -32 + ^ x23: .cfa -40 + ^ x24: .cfa -48 + ^ .ra: .cfa -56 + ^ x29: .cfa -64 + ^
STACK CFI 20da8 .cfa: sp 80 +
STACK CFI 20dbc .cfa: sp 0 +
STACK CFI 20dc0 .cfa: x29 64 +
STACK CFI INIT 20dc4 178 .cfa: sp 0 +
STACK CFI 20dc8 .cfa: sp 80 +
STACK CFI 20ddc .cfa: x29 64 + x19: .cfa -8 + ^ x20: .cfa -16 + ^ x21: .cfa -24 + ^ x22: .cfa -32 + ^ x23: .cfa -40 + ^ x24: .cfa -48 + ^ .ra: .cfa -56 + ^ x29: .cfa -64 + ^
STACK CFI 20f20 .cfa: sp 80 +
STACK CFI 20f34 .cfa: sp 0 +
STACK CFI 20f38 .cfa: x29 64 +
STACK CFI INIT 20f3c 240 .cfa: sp 0 +
STACK CFI 20f40 .cfa: sp 96 +
STACK CFI 20f58 .cfa: x29 96 + x19: .cfa -8 + ^ x20: .cfa -16 + ^ x21: .cfa -24 + ^ x22: .cfa -32 + ^ x23: .cfa -40 + ^ x24: .cfa -48 + ^ x25: .cfa -56 + ^ x26: .cfa -64 + ^ x27: .cfa -72 + ^ x28: .cfa -80 + ^ .ra: .cfa -88 + ^ x29: .cfa -96 + ^
STACK CFI 21160 .cfa: sp 96 +
STACK CFI 21178 .cfa: sp 0 +
STACK CFI INIT 21df0 154 .cfa: sp 0 +
STACK CFI 21df4 .cfa: sp 96 +
STACK CFI 21e08 .cfa: x29 64 + x19: .cfa -8 + ^ x20: .cfa -16 + ^ x21: .cfa -24 + ^ x22: .cfa -32 + ^ x23: .cfa -48 + ^ .ra: .cfa -56 + ^ x29: .cfa -64 + ^
STACK CFI 21ee8 .cfa: sp 96 +
STACK CFI 21efc .cfa: sp 0 +
STACK CFI 21f00 .cfa: x29 64 +
STACK CFI INIT 221b0 44 .cfa: sp 0 +
STACK CFI 221b4 .cfa: sp 32 +
STACK CFI 221bc .cfa: x29 32 + x19: .cfa -16 + ^ .ra: .cfa -24 + ^ x29: .cfa -32 + ^
STACK CFI 221d8 .cfa: sp 32 +
STACK CFI 221e0 .cfa: sp 0 +
STACK CFI 221e4 .cfa: x29 32 +
STACK CFI 221e8 .cfa: sp 32 +
STACK CFI 221f0 .cfa: sp 0 +
STACK CFI INIT 221f4 1d0 .cfa: sp 0 +
STACK CFI 221f8 .cfa: sp 64 +
STACK CFI 22208 .cfa: x29 64 + x19: .cfa -8 + ^ x20: .cfa -16 + ^ x21: .cfa -24 + ^ x22: .cfa -32 + ^ x23: .cfa -40 + ^ x24: .cfa -48 + ^ .ra: .cfa -56 + ^ x29: .cfa -64 + ^
STACK CFI 222c8 .cfa: sp 64 +
STACK CFI 222d8 .cfa: sp 0 +
STACK CFI 222dc .cfa: x29 64 +
STACK CFI INIT 223c4 17c .cfa: sp 0 +
STACK CFI INIT 22540 ac .cfa: sp 0 +
STACK CFI 22544 .cfa: sp 64 +
STACK CFI 22554 .cfa: x29 64 + x19: .cfa -8 + ^ x20: .cfa -16 + ^ x21: .cfa -24 + ^ x22: .cfa -32 + ^ x23: .cfa -48 + ^ .ra: .cfa -56 + ^ x29: .cfa -64 + ^
STACK CFI 225d0 .cfa: sp 64 +
STACK CFI 225e0 .cfa: sp 0 +
STACK CFI 225e4 .cfa: x29 64 +
STACK CFI INIT 225ec 110 .cfa: sp 0 +
STACK CFI 225f0 .cfa: sp 64 +
STACK CFI 22600 .cfa: x29 64 + x19: .cfa -8 + ^ x20: .cfa -16 + ^ x21: .cfa -24 + ^ x22: .cfa -32 + ^ x23: .cfa -40 + ^ x24: .cfa -48 + ^ .ra: .cfa -56 + ^ x29: .cfa -64 + ^
STACK CFI 226e0 .cfa: sp 64 +
STACK CFI 226f0 .cfa: sp 0 +
STACK CFI 226f4 .cfa: x29 64 +
STACK CFI INIT 22ab4 a0 .cfa: sp 0 +
STACK CFI 22ab8 .cfa: sp 48 +
STACK CFI 22ac4 .cfa: x29 48 + x19: .cfa -8 + ^ x20: .cfa -16 + ^ x21: .cfa -24 + ^ x22: .cfa -32 + ^ .ra: .cfa -40 + ^ x29: .cfa -48 + ^
STACK CFI 22b30 .cfa: sp 48 +
STACK CFI 22b3c .cfa: sp 0 +
STACK CFI 22b40 .cfa: sp 48 +
STACK CFI 22b4c .cfa: sp 0 +
STACK CFI 22b50 .cfa: x29 48 +
STACK CFI INIT 23808 158 .cfa: sp 0 +
STACK CFI 2380c .cfa: sp 96 +
STACK CFI 23820 .cfa: x29 64 + x19: .cfa -8 + ^ x20: .cfa -16 + ^ x21: .cfa -24 + ^ x22: .cfa -32 + ^ x23: .cfa -48 + ^ .ra: .cfa -56 + ^ x29: .cfa -64 + ^
STACK CFI 23904 .cfa: sp 96 +
STACK CFI 23918 .cfa: sp 0 +
STACK CFI 2391c .cfa: x29 64 +
STACK CFI INIT 23960 190 .cfa: sp 0 +
STACK CFI INIT 245ec 1dc .cfa: sp 0 +
STACK CFI 245f0 .cfa: sp 80 +
STACK CFI 24604 .cfa: x29 80 + x19: .cfa -8 + ^ x20: .cfa -16 + ^ x21: .cfa -24 + ^ x22: .cfa -32 + ^ x23: .cfa -40 + ^ x24: .cfa -48 + ^ x25: .cfa -64 + ^ .ra: .cfa -72 + ^ x29: .cfa -80 + ^
STACK CFI 247b0 .cfa: sp 80 +
STACK CFI 247c4 .cfa: sp 0 +
STACK CFI INIT 25bf8 124 .cfa: sp 0 +
STACK CFI 25c28 .cfa: sp 32 +
STACK CFI 25c30 .cfa: x29 32 + x19: .cfa -8 + ^ x20: .cfa -16 + ^ .ra: .cfa -24 + ^ x29: .cfa -32 + ^
STACK CFI 25d10 .cfa: sp 32 +
STACK CFI 25d18 .cfa: sp 0 +
STACK CFI INIT 26478 320 .cfa: sp 0 +
STACK CFI 2647c .cfa: sp 64 +
STACK CFI 2648c .cfa: x29 64 + x19: .cfa -8 + ^ x20: .cfa -16 + ^ x21: .cfa -24 + ^ x22: .cfa -32 + ^ x23: .cfa -40 + ^ x24: .cfa -48 + ^ .ra: .cfa -56 + ^ x29: .cfa -64 + ^
STACK CFI 26508 .cfa: sp 64 +
STACK CFI 26518 .cfa: sp 0 +
STACK CFI 2651c .cfa: x29 64 +
STACK CFI 266f0 .cfa: sp 64 +
STACK CFI 26700 .cfa: sp 0 +
STACK CFI 26704 .cfa: x29 64 +
STACK CFI 26714 .cfa: sp 64 +
STACK CFI 26724 .cfa: sp 0 +
STACK CFI 26728 .cfa: x29 64 +
STACK CFI INIT 26798 a0 .cfa: sp 0 +
STACK CFI 2679c .cfa: sp 48 +
STACK CFI 267a8 .cfa: x29 48 + x19: .cfa -8 + ^ x20: .cfa -16 + ^ x21: .cfa -24 + ^ x22: .cfa -32 + ^ .ra: .cfa -40 + ^ x29: .cfa -48 + ^
STACK CFI 26814 .cfa: sp 48 +
STACK CFI 26820 .cfa: sp 0 +
STACK CFI 26824 .cfa: sp 48 +
STACK CFI 26830 .cfa: sp 0 +
STACK CFI 26834 .cfa: x29 48 +
STACK CFI INIT 276e8 160 .cfa: sp 0 +
STACK CFI 276ec .cfa: sp 64 +
STACK CFI 276fc .cfa: x29 64 + x19: .cfa -8 + ^ x20: .cfa -16 + ^ x21: .cfa -24 + ^ x22: .cfa -32 + ^ x23: .cfa -48 + ^ .ra: .cfa -56 + ^ x29: .cfa -64 + ^
STACK CFI 277f4 .cfa: sp 64 +
STACK CFI 27804 .cfa: sp 0 +
STACK CFI 27808 .cfa: x29 64 +
STACK CFI INIT 27848 214 .cfa: sp 0 +
STACK CFI 2784c .cfa: sp 128 +
STACK CFI 27868 .cfa: x29 96 + x19: .cfa -8 + ^ x20: .cfa -16 + ^ x21: .cfa -24 + ^ x22: .cfa -32 + ^ x23: .cfa -40 + ^ x24: .cfa -48 + ^ x25: .cfa -56 + ^ x26: .cfa -64 + ^ x27: .cfa -80 + ^ .ra: .cfa -88 + ^ x29: .cfa -96 + ^
STACK CFI 279e4 .cfa: sp 128 +
STACK CFI 27a00 .cfa: sp 0 +
STACK CFI 27a04 .cfa: x29 96 +
STACK CFI INIT 296f8 290 .cfa: sp 0 +
STACK CFI 296fc .cfa: sp 16 +
STACK CFI 29700 .cfa: x29 16 + .ra: .cfa -8 + ^ x29: .cfa -16 + ^
STACK CFI 2978c .cfa: sp 16 +
STACK CFI 29790 .cfa: sp 0 +
STACK CFI 29794 .cfa: x29 16 +
STACK CFI 297e4 .cfa: sp 16 +
STACK CFI 297e8 .cfa: sp 0 +
STACK CFI 297ec .cfa: x29 16 +
STACK CFI 29950 .cfa: sp 16 +
STACK CFI 29954 .cfa: sp 0 +
STACK CFI 29958 .cfa: x29 16 +
STACK CFI INIT 29988 158 .cfa: sp 0 +
STACK CFI 2998c .cfa: sp 112 +
STACK CFI 299a8 .cfa: x29 96 + x19: .cfa -8 + ^ x20: .cfa -16 + ^ x21: .cfa -24 + ^ x22: .cfa -32 + ^ x23: .cfa -40 + ^ x24: .cfa -48 + ^ x25: .cfa -56 + ^ x26: .cfa -64 + ^ x27: .cfa -72 + ^ x28: .cfa -80 + ^ .ra: .cfa -88 + ^ x29: .cfa -96 + ^
STACK CFI 29a90 .cfa: sp 112 +
STACK CFI 29a94 .cfa: x29 96 +
STACK CFI 29a9c .cfa: sp 112 +
STACK CFI 29ab8 .cfa: sp 0 +
STACK CFI 29abc .cfa: x29 96 +
STACK CFI 29adc .cfa: sp 112 +
STACK CFI INIT 29ae0 e54 .cfa: sp 0 +
STACK CFI 29ae4 .cfa: sp 192 +
STACK CFI 29b00 .cfa: x29 96 + x19: .cfa -8 + ^ x20: .cfa -16 + ^ x21: .cfa -24 + ^ x22: .cfa -32 + ^ x23: .cfa -40 + ^ x24: .cfa -48 + ^ x25: .cfa -56 + ^ x26: .cfa -64 + ^ x27: .cfa -72 + ^ x28: .cfa -80 + ^ .ra: .cfa -88 + ^ x29: .cfa -96 + ^
STACK CFI 2a81c .cfa: sp 192 +
STACK CFI 2a838 .cfa: sp 0 +
STACK CFI 2a83c .cfa: x29 96 +
STACK CFI INIT 2a934 1068 .cfa: sp 0 +
STACK CFI 2a938 .cfa: sp 288 +
STACK CFI 2a954 .cfa: x29 96 + x19: .cfa -8 + ^ x20: .cfa -16 + ^ x21: .cfa -24 + ^ x22: .cfa -32 + ^ x23: .cfa -40 + ^ x24: .cfa -48 + ^ x25: .cfa -56 + ^ x26: .cfa -64 + ^ x27: .cfa -72 + ^ x28: .cfa -80 + ^ .ra: .cfa -88 + ^ x29: .cfa -96 + ^
STACK CFI 2b6e4 .cfa: sp 288 +
STACK CFI 2b700 .cfa: sp 0 +
STACK CFI 2b704 .cfa: x29 96 +
STACK CFI INIT 2b99c 520 .cfa: sp 0 +
STACK CFI 2b9a0 .cfa: sp 144 +
STACK CFI 2b9bc .cfa: x29 96 + x19: .cfa -8 + ^ x20: .cfa -16 + ^ x21: .cfa -24 + ^ x22: .cfa -32 + ^ x23: .cfa -40 + ^ x24: .cfa -48 + ^ x25: .cfa -56 + ^ x26: .cfa -64 + ^ x27: .cfa -72 + ^ x28: .cfa -80 + ^ .ra: .cfa -88 + ^ x29: .cfa -96 + ^
STACK CFI 2be98 .cfa: sp 144 +
STACK CFI 2beb4 .cfa: sp 0 +
STACK CFI 2beb8 .cfa: x29 96 +
STACK CFI INIT 2c85c 136c .cfa: sp 0 +
STACK CFI 2c860 .cfa: sp 224 +
STACK CFI 2c87c .cfa: x29 96 + x19: .cfa -8 + ^ x20: .cfa -16 + ^ x21: .cfa -24 + ^ x22: .cfa -32 + ^ x23: .cfa -40 + ^ x24: .cfa -48 + ^ x25: .cfa -56 + ^ x26: .cfa -64 + ^ x27: .cfa -72 + ^ x28: .cfa -80 + ^ .ra: .cfa -88 + ^ x29: .cfa -96 + ^
STACK CFI 2dba4 .cfa: sp 224 +
STACK CFI 2dbc0 .cfa: sp 0 +
STACK CFI 2dbc4 .cfa: x29 96 +
STACK CFI INIT 2dbc8 1b8 .cfa: sp 0 +
STACK CFI INIT 12738 480 .cfa: sp 0 +
STACK CFI 1273c .cfa: sp 224 +
STACK CFI 12758 .cfa: x29 96 + x19: .cfa -8 + ^ x20: .cfa -16 + ^ x21: .cfa -24 + ^ x22: .cfa -32 + ^ x23: .cfa -40 + ^ x24: .cfa -48 + ^ x25: .cfa -56 + ^ x26: .cfa -64 + ^ x27: .cfa -80 + ^ .ra: .cfa -88 + ^ x29: .cfa -96 + ^
STACK CFI 129c4 .cfa: sp 224 +
STACK CFI 129e0 .cfa: sp 0 +
STACK CFI 129e4 .cfa: x29 96 +
STACK CFI 12ab0 .cfa: sp 224 +
STACK CFI 12acc .cfa: sp 0 +
STACK CFI 12ad0 .cfa: x29 96 +
STACK CFI INIT 12c28 388 .cfa: sp 0 +
STACK CFI 12c2c .cfa: sp 256 +
STACK CFI 12c40 .cfa: x29 64 + x19: .cfa -8 + ^ x20: .cfa -16 + ^ x21: .cfa -24 + ^ x22: .cfa -32 + ^ x23: .cfa -48 + ^ .ra: .cfa -56 + ^ x29: .cfa -64 + ^
STACK CFI 12e84 .cfa: sp 256 +
STACK CFI 12e98 .cfa: sp 0 +
STACK CFI 12e9c .cfa: x29 64 +
STACK CFI INIT 1303c 74 .cfa: sp 0 +
STACK CFI 13040 .cfa: sp 48 +
STACK CFI 1304c .cfa: x29 32 + x19: .cfa -8 + ^ x20: .cfa -16 + ^ .ra: .cfa -24 + ^ x29: .cfa -32 + ^
STACK CFI 13098 .cfa: sp 48 +
STACK CFI 130a4 .cfa: sp 0 +
STACK CFI 130a8 .cfa: x29 32 +
STACK CFI INIT 13130 154 .cfa: sp 0 +
STACK CFI 13134 .cfa: sp 384 +
STACK CFI 13148 .cfa: x29 64 + x19: .cfa -8 + ^ x20: .cfa -16 + ^ x21: .cfa -24 + ^ x22: .cfa -32 + ^ x23: .cfa -40 + ^ x28: .cfa -48 + ^ .ra: .cfa -56 + ^ x29: .cfa -64 + ^
STACK CFI 1322c .cfa: sp 384 +
STACK CFI 13240 .cfa: sp 0 +
STACK CFI 13244 .cfa: x29 64 +
STACK CFI INIT 132b8 12c .cfa: sp 0 +
STACK CFI 132bc .cfa: sp 80 +
STACK CFI 132d0 .cfa: x29 80 + x19: .cfa -8 + ^ x20: .cfa -16 + ^ x21: .cfa -24 + ^ x22: .cfa -32 + ^ x23: .cfa -40 + ^ x24: .cfa -48 + ^ x25: .cfa -56 + ^ x26: .cfa -64 + ^ .ra: .cfa -72 + ^ x29: .cfa -80 + ^
STACK CFI 13398 .cfa: sp 80 +
STACK CFI 133ac .cfa: sp 0 +
STACK CFI 133b0 .cfa: x29 80 +
STACK CFI INIT 13488 1a4 .cfa: sp 0 +
STACK CFI 1348c .cfa: sp 112 +
STACK CFI 134a4 .cfa: x29 80 + x19: .cfa -8 + ^ x20: .cfa -16 + ^ x21: .cfa -24 + ^ x22: .cfa -32 + ^ x23: .cfa -40 + ^ x24: .cfa -48 + ^ x25: .cfa -56 + ^ x26: .cfa -64 + ^ .ra: .cfa -72 + ^ x29: .cfa -80 + ^
STACK CFI 13594 .cfa: sp 112 +
STACK CFI 135ac .cfa: sp 0 +
STACK CFI 135b0 .cfa: x29 80 +
STACK CFI INIT 1362c 1dc .cfa: sp 0 +
STACK CFI 13630 .cfa: sp 128 +
STACK CFI 1364c .cfa: x29 96 + x19: .cfa -8 + ^ x20: .cfa -16 + ^ x21: .cfa -24 + ^ x22: .cfa -32 + ^ x23: .cfa -40 + ^ x24: .cfa -48 + ^ x25: .cfa -56 + ^ x26: .cfa -64 + ^ x27: .cfa -80 + ^ .ra: .cfa -88 + ^ x29: .cfa -96 + ^
STACK CFI 137b8 .cfa: sp 128 +
STACK CFI 137d4 .cfa: sp 0 +
STACK CFI 137d8 .cfa: x29 96 +
STACK CFI INIT 1381c 50 .cfa: sp 0 +
STACK CFI 13820 .cfa: sp 32 +
STACK CFI 13828 .cfa: x29 32 + x19: .cfa -8 + ^ x20: .cfa -16 + ^ .ra: .cfa -24 + ^ x29: .cfa -32 + ^
STACK CFI INIT 138d0 178 .cfa: sp 0 +
STACK CFI 138d4 .cfa: sp 80 +
STACK CFI 138e8 .cfa: x29 80 + x19: .cfa -8 + ^ x20: .cfa -16 + ^ x21: .cfa -24 + ^ x22: .cfa -32 + ^ x23: .cfa -40 + ^ x24: .cfa -48 + ^ x25: .cfa -64 + ^ .ra: .cfa -72 + ^ x29: .cfa -80 + ^
STACK CFI 13a14 .cfa: sp 80 +
STACK CFI 13a28 .cfa: sp 0 +
STACK CFI 13a2c .cfa: x29 80 +
STACK CFI INIT 13b90 228 .cfa: sp 0 +
STACK CFI 13b94 .cfa: sp 128 +
STACK CFI 13bac .cfa: x29 80 + x19: .cfa -8 + ^ x20: .cfa -16 + ^ x21: .cfa -24 + ^ x22: .cfa -32 + ^ x23: .cfa -40 + ^ x24: .cfa -48 + ^ x25: .cfa -64 + ^ .ra: .cfa -72 + ^ x29: .cfa -80 + ^
STACK CFI 13d48 .cfa: sp 128 +
STACK CFI 13d60 .cfa: sp 0 +
STACK CFI 13d64 .cfa: x29 80 +
STACK CFI INIT 14514 604 .cfa: sp 0 +
STACK CFI 14518 .cfa: sp 96 +
STACK CFI 14530 .cfa: x29 96 + x19: .cfa -8 + ^ x20: .cfa -16 + ^ x21: .cfa -24 + ^ x22: .cfa -32 + ^ x23: .cfa -40 + ^ x24: .cfa -48 + ^ x25: .cfa -56 + ^ x26: .cfa -64 + ^ x28: .cfa -80 + ^ .ra: .cfa -88 + ^ x29: .cfa -96 + ^
STACK CFI 147c4 .cfa: sp 96 +
STACK CFI 147dc .cfa: sp 0 +
STACK CFI 147e0 .cfa: x29 96 +
STACK CFI INIT 14bcc 16c .cfa: sp 0 +
STACK CFI 14bd0 .cfa: sp 112 +
STACK CFI 14be0 .cfa: x29 48 + x19: .cfa -8 + ^ x20: .cfa -16 + ^ x21: .cfa -24 + ^ x22: .cfa -32 + ^ .ra: .cfa -40 + ^ x29: .cfa -48 + ^
STACK CFI 14ccc .cfa: sp 112 +
STACK CFI 14cdc .cfa: sp 0 +
STACK CFI 14ce0 .cfa: x29 48 +
STACK CFI INIT 14d38 134 .cfa: sp 0 +
STACK CFI 14d3c .cfa: sp 80 +
STACK CFI 14d4c .cfa: x29 48 + x19: .cfa -8 + ^ x20: .cfa -16 + ^ x21: .cfa -24 + ^ x22: .cfa -32 + ^ .ra: .cfa -40 + ^ x29: .cfa -48 + ^
STACK CFI 14e50 .cfa: sp 80 +
STACK CFI 14e60 .cfa: sp 0 +
STACK CFI 14e64 .cfa: x29 48 +
STACK CFI INIT 15298 480 .cfa: sp 0 +
STACK CFI 1529c .cfa: sp 224 +
STACK CFI 152b8 .cfa: x29 96 + x19: .cfa -8 + ^ x20: .cfa -16 + ^ x21: .cfa -24 + ^ x22: .cfa -32 + ^ x23: .cfa -40 + ^ x24: .cfa -48 + ^ x25: .cfa -56 + ^ x26: .cfa -64 + ^ x27: .cfa -80 + ^ .ra: .cfa -88 + ^ x29: .cfa -96 + ^
STACK CFI 15524 .cfa: sp 224 +
STACK CFI 15540 .cfa: sp 0 +
STACK CFI 15544 .cfa: x29 96 +
STACK CFI 15610 .cfa: sp 224 +
STACK CFI 1562c .cfa: sp 0 +
STACK CFI 15630 .cfa: x29 96 +
STACK CFI INIT 15734 308 .cfa: sp 0 +
STACK CFI 15738 .cfa: sp 176 +
STACK CFI 1574c .cfa: x29 64 + x19: .cfa -8 + ^ x20: .cfa -16 + ^ x21: .cfa -24 + ^ x22: .cfa -32 + ^ x23: .cfa -48 + ^ .ra: .cfa -56 + ^ x29: .cfa -64 + ^
STACK CFI 15934 .cfa: sp 176 +
STACK CFI 15948 .cfa: sp 0 +
STACK CFI 1594c .cfa: x29 64 +
STACK CFI INIT 15a40 a10 .cfa: sp 0 +
STACK CFI 15a44 .cfa: sp 96 +
STACK CFI 15a5c .cfa: x29 96 + x19: .cfa -8 + ^ x20: .cfa -16 + ^ x21: .cfa -24 + ^ x22: .cfa -32 + ^ x23: .cfa -40 + ^ x24: .cfa -48 + ^ x25: .cfa -56 + ^ x26: .cfa -64 + ^ x27: .cfa -72 + ^ x28: .cfa -80 + ^ .ra: .cfa -88 + ^ x29: .cfa -96 + ^
STACK CFI 16144 .cfa: sp 96 +
STACK CFI 1615c .cfa: sp 0 +
STACK CFI 16160 .cfa: x29 96 +
STACK CFI INIT 16450 a8 .cfa: sp 0 +
STACK CFI 16454 .cfa: sp 32 +
STACK CFI 1645c .cfa: x29 32 + x19: .cfa -16 + ^ .ra: .cfa -24 + ^ x29: .cfa -32 + ^
STACK CFI 16490 .cfa: sp 32 +
STACK CFI 16498 .cfa: sp 0 +
STACK CFI 1649c .cfa: x29 32 +
STACK CFI 164a0 .cfa: sp 32 +
STACK CFI 164a8 .cfa: sp 0 +
STACK CFI 164ac .cfa: x29 32 +
STACK CFI INIT 1668c 164 .cfa: sp 0 +
STACK CFI 16690 .cfa: sp 128 +
STACK CFI 166a4 .cfa: x29 64 + x19: .cfa -8 + ^ x20: .cfa -16 + ^ x21: .cfa -24 + ^ x22: .cfa -32 + ^ x23: .cfa -48 + ^ .ra: .cfa -56 + ^ x29: .cfa -64 + ^
STACK CFI 16770 .cfa: sp 128 +
STACK CFI 16784 .cfa: sp 0 +
STACK CFI 16788 .cfa: x29 64 +
STACK CFI INIT 167f0 1a4 .cfa: sp 0 +
STACK CFI 167f4 .cfa: sp 144 +
STACK CFI 1680c .cfa: x29 80 + x19: .cfa -8 + ^ x20: .cfa -16 + ^ x21: .cfa -24 + ^ x22: .cfa -32 + ^ x23: .cfa -40 + ^ x24: .cfa -48 + ^ x25: .cfa -64 + ^ .ra: .cfa -72 + ^ x29: .cfa -80 + ^
STACK CFI 16918 .cfa: sp 144 +
STACK CFI 16930 .cfa: sp 0 +
STACK CFI 16934 .cfa: x29 80 +
STACK CFI INIT 16994 d7c .cfa: sp 0 +
STACK CFI 16998 .cfa: sp 384 +
STACK CFI 169b4 .cfa: x29 96 + x19: .cfa -8 + ^ x20: .cfa -16 + ^ x21: .cfa -24 + ^ x22: .cfa -32 + ^ x23: .cfa -40 + ^ x24: .cfa -48 + ^ x25: .cfa -56 + ^ x26: .cfa -64 + ^ x27: .cfa -72 + ^ x28: .cfa -80 + ^ .ra: .cfa -88 + ^ x29: .cfa -96 + ^
STACK CFI 16a74 .cfa: sp 384 +
STACK CFI 16a90 .cfa: sp 0 +
STACK CFI 16a94 .cfa: x29 96 +
STACK CFI INIT 177a0 e4 .cfa: sp 0 +
STACK CFI 177a4 .cfa: sp 32 +
STACK CFI 177ac .cfa: x29 32 + x19: .cfa -8 + ^ x20: .cfa -16 + ^ .ra: .cfa -24 + ^ x29: .cfa -32 + ^
STACK CFI 17808 .cfa: sp 32 +
STACK CFI 17810 .cfa: sp 0 +
STACK CFI 17814 .cfa: x29 32 +
STACK CFI 17870 .cfa: sp 32 +
STACK CFI 17878 .cfa: sp 0 +
STACK CFI 1787c .cfa: x29 32 +
STACK CFI INIT 17b2c 1bc .cfa: sp 0 +
STACK CFI 17b30 .cfa: sp 112 +
STACK CFI 17b40 .cfa: x29 48 + x19: .cfa -8 + ^ x20: .cfa -16 + ^ x21: .cfa -24 + ^ x22: .cfa -32 + ^ .ra: .cfa -40 + ^ x29: .cfa -48 + ^
STACK CFI 17ca4 .cfa: sp 112 +
STACK CFI 17cb4 .cfa: sp 0 +
STACK CFI 17cb8 .cfa: x29 48 +
STACK CFI INIT 1804c 1cc .cfa: sp 0 +
STACK CFI 18050 .cfa: sp 128 +
STACK CFI 18064 .cfa: x29 64 + x19: .cfa -8 + ^ x20: .cfa -16 + ^ x21: .cfa -24 + ^ x22: .cfa -32 + ^ x23: .cfa -48 + ^ .ra: .cfa -56 + ^ x29: .cfa -64 + ^
STACK CFI 181d0 .cfa: sp 128 +
STACK CFI 181e4 .cfa: sp 0 +
STACK CFI 181e8 .cfa: x29 64 +
STACK CFI INIT 182a8 74 .cfa: sp 0 +
STACK CFI 182ac .cfa: sp 48 +
STACK CFI 182b8 .cfa: x29 32 + x19: .cfa -8 + ^ x20: .cfa -16 + ^ .ra: .cfa -24 + ^ x29: .cfa -32 + ^
STACK CFI 18304 .cfa: sp 48 +
STACK CFI 18310 .cfa: sp 0 +
STACK CFI 18314 .cfa: x29 32 +
STACK CFI INIT 18338 78 .cfa: sp 0 +
STACK CFI 1833c .cfa: sp 32 +
STACK CFI 18344 .cfa: x29 32 + x19: .cfa -8 + ^ x20: .cfa -16 + ^ .ra: .cfa -24 + ^ x29: .cfa -32 + ^
STACK CFI 1834c .cfa: sp 32 +
STACK CFI 18354 .cfa: sp 0 +
STACK CFI 18358 .cfa: x29 32 +
STACK CFI INIT 183b0 74 .cfa: sp 0 +
STACK CFI 183b4 .cfa: sp 48 +
STACK CFI 183c0 .cfa: x29 32 + x19: .cfa -8 + ^ x20: .cfa -16 + ^ .ra: .cfa -24 + ^ x29: .cfa -32 + ^
STACK CFI 1840c .cfa: sp 48 +
STACK CFI 18418 .cfa: sp 0 +
STACK CFI 1841c .cfa: x29 32 +
STACK CFI INIT 18424 74 .cfa: sp 0 +
STACK CFI 18428 .cfa: sp 48 +
STACK CFI 18434 .cfa: x29 32 + x19: .cfa -8 + ^ x20: .cfa -16 + ^ .ra: .cfa -24 + ^ x29: .cfa -32 + ^
STACK CFI 18480 .cfa: sp 48 +
STACK CFI 1848c .cfa: sp 0 +
STACK CFI 18490 .cfa: x29 32 +
STACK CFI INIT 18498 168 .cfa: sp 0 +
STACK CFI 1849c .cfa: sp 384 +
STACK CFI 184b0 .cfa: x29 64 + x19: .cfa -8 + ^ x20: .cfa -16 + ^ x21: .cfa -24 + ^ x22: .cfa -32 + ^ x23: .cfa -40 + ^ x28: .cfa -48 + ^ .ra: .cfa -56 + ^ x29: .cfa -64 + ^
STACK CFI 185a8 .cfa: sp 384 +
STACK CFI 185bc .cfa: sp 0 +
STACK CFI 185c0 .cfa: x29 64 +
STACK CFI INIT 18824 31c .cfa: sp 0 +
STACK CFI 18828 .cfa: sp 176 +
STACK CFI 1883c .cfa: x29 64 + x19: .cfa -8 + ^ x20: .cfa -16 + ^ x21: .cfa -24 + ^ x22: .cfa -32 + ^ x23: .cfa -48 + ^ .ra: .cfa -56 + ^ x29: .cfa -64 + ^
STACK CFI 18a80 .cfa: sp 176 +
STACK CFI 18a94 .cfa: sp 0 +
STACK CFI 18a98 .cfa: x29 64 +
STACK CFI INIT 18f64 1b4 .cfa: sp 0 +
STACK CFI 18f68 .cfa: sp 128 +
STACK CFI 18f7c .cfa: x29 64 + x19: .cfa -8 + ^ x20: .cfa -16 + ^ x21: .cfa -24 + ^ x22: .cfa -32 + ^ x23: .cfa -48 + ^ .ra: .cfa -56 + ^ x29: .cfa -64 + ^
STACK CFI 190d0 .cfa: sp 128 +
STACK CFI 190e4 .cfa: sp 0 +
STACK CFI 190e8 .cfa: x29 64 +
STACK CFI INIT 19144 1cc .cfa: sp 0 +
STACK CFI 19148 .cfa: sp 128 +
STACK CFI 19158 .cfa: x29 48 + x19: .cfa -8 + ^ x20: .cfa -16 + ^ x21: .cfa -32 + ^ .ra: .cfa -40 + ^ x29: .cfa -48 + ^
STACK CFI 19294 .cfa: sp 128 +
STACK CFI 192a4 .cfa: sp 0 +
STACK CFI 192a8 .cfa: x29 48 +
STACK CFI INIT 196bc 1d0 .cfa: sp 0 +
STACK CFI 196c0 .cfa: sp 128 +
STACK CFI 196d4 .cfa: x29 64 + x19: .cfa -8 + ^ x20: .cfa -16 + ^ x21: .cfa -24 + ^ x22: .cfa -32 + ^ x23: .cfa -48 + ^ .ra: .cfa -56 + ^ x29: .cfa -64 + ^
STACK CFI 1984c .cfa: sp 128 +
STACK CFI 19860 .cfa: sp 0 +
STACK CFI 19864 .cfa: x29 64 +
STACK CFI INIT 19ad0 1c4 .cfa: sp 0 +
STACK CFI 19ad4 .cfa: sp 112 +
STACK CFI 19ae4 .cfa: x29 48 + x19: .cfa -8 + ^ x20: .cfa -16 + ^ x21: .cfa -24 + ^ x22: .cfa -32 + ^ .ra: .cfa -40 + ^ x29: .cfa -48 + ^
STACK CFI 19c58 .cfa: sp 112 +
STACK CFI 19c68 .cfa: sp 0 +
STACK CFI 19c6c .cfa: x29 48 +
STACK CFI INIT 19d28 cc .cfa: sp 0 +
STACK CFI 19d2c .cfa: sp 64 +
STACK CFI 19d38 .cfa: x29 32 + x19: .cfa -8 + ^ x20: .cfa -16 + ^ .ra: .cfa -24 + ^ x29: .cfa -32 + ^
STACK CFI 19d88 .cfa: sp 64 +
STACK CFI 19d94 .cfa: sp 0 +
STACK CFI 19d98 .cfa: x29 32 +
STACK CFI 19dbc .cfa: sp 64 +
STACK CFI 19dc8 .cfa: sp 0 +
STACK CFI 19dcc .cfa: x29 32 +
STACK CFI INIT 19e20 480 .cfa: sp 0 +
STACK CFI 19e24 .cfa: sp 224 +
STACK CFI 19e40 .cfa: x29 96 + x19: .cfa -8 + ^ x20: .cfa -16 + ^ x21: .cfa -24 + ^ x22: .cfa -32 + ^ x23: .cfa -40 + ^ x24: .cfa -48 + ^ x25: .cfa -56 + ^ x26: .cfa -64 + ^ x27: .cfa -80 + ^ .ra: .cfa -88 + ^ x29: .cfa -96 + ^
STACK CFI 1a0ac .cfa: sp 224 +
STACK CFI 1a0c8 .cfa: sp 0 +
STACK CFI 1a0cc .cfa: x29 96 +
STACK CFI 1a198 .cfa: sp 224 +
STACK CFI 1a1b4 .cfa: sp 0 +
STACK CFI 1a1b8 .cfa: x29 96 +
STACK CFI INIT 1a2bc 384 .cfa: sp 0 +
STACK CFI 1a2c0 .cfa: sp 256 +
STACK CFI 1a2d4 .cfa: x29 64 + x19: .cfa -8 + ^ x20: .cfa -16 + ^ x21: .cfa -24 + ^ x22: .cfa -32 + ^ x23: .cfa -48 + ^ .ra: .cfa -56 + ^ x29: .cfa -64 + ^
STACK CFI 1a514 .cfa: sp 256 +
STACK CFI 1a528 .cfa: sp 0 +
STACK CFI 1a52c .cfa: x29 64 +
STACK CFI INIT 1a644 948 .cfa: sp 0 +
STACK CFI 1a648 .cfa: sp 96 +
STACK CFI 1a660 .cfa: x29 96 + x19: .cfa -8 + ^ x20: .cfa -16 + ^ x21: .cfa -24 + ^ x22: .cfa -32 + ^ x23: .cfa -40 + ^ x24: .cfa -48 + ^ x25: .cfa -56 + ^ x26: .cfa -64 + ^ x27: .cfa -72 + ^ x28: .cfa -80 + ^ .ra: .cfa -88 + ^ x29: .cfa -96 + ^
STACK CFI 1ad90 .cfa: sp 96 +
STACK CFI 1ada8 .cfa: sp 0 +
STACK CFI 1adac .cfa: x29 96 +
STACK CFI INIT 1af8c 168 .cfa: sp 0 +
STACK CFI 1af90 .cfa: sp 112 +
STACK CFI 1afa0 .cfa: x29 48 + x19: .cfa -8 + ^ x20: .cfa -16 + ^ x21: .cfa -24 + ^ x22: .cfa -32 + ^ .ra: .cfa -40 + ^ x29: .cfa -48 + ^
STACK CFI 1b088 .cfa: sp 112 +
STACK CFI 1b098 .cfa: sp 0 +
STACK CFI 1b09c .cfa: x29 48 +
STACK CFI INIT 1b12c 50 .cfa: sp 0 +
STACK CFI 1b130 .cfa: sp 32 +
STACK CFI 1b138 .cfa: x29 32 + x19: .cfa -8 + ^ x20: .cfa -16 + ^ .ra: .cfa -24 + ^ x29: .cfa -32 + ^
STACK CFI INIT 1b250 16c .cfa: sp 0 +
STACK CFI 1b254 .cfa: sp 112 +
STACK CFI 1b264 .cfa: x29 48 + x19: .cfa -8 + ^ x20: .cfa -16 + ^ x21: .cfa -24 + ^ x22: .cfa -32 + ^ .ra: .cfa -40 + ^ x29: .cfa -48 + ^
STACK CFI 1b370 .cfa: sp 112 +
STACK CFI 1b380 .cfa: sp 0 +
STACK CFI 1b384 .cfa: x29 48 +
STACK CFI INIT 1b4d0 120 .cfa: sp 0 +
STACK CFI 1b4d4 .cfa: sp 80 +
STACK CFI 1b4e4 .cfa: x29 48 + x19: .cfa -8 + ^ x20: .cfa -16 + ^ x21: .cfa -24 + ^ x22: .cfa -32 + ^ .ra: .cfa -40 + ^ x29: .cfa -48 + ^
STACK CFI 1b5d4 .cfa: sp 80 +
STACK CFI 1b5e4 .cfa: sp 0 +
STACK CFI 1b5e8 .cfa: x29 48 +
STACK CFI INIT 1b5f0 240 .cfa: sp 0 +
STACK CFI 1b5f4 .cfa: sp 80 +
STACK CFI 1b608 .cfa: x29 80 + x19: .cfa -8 + ^ x20: .cfa -16 + ^ x21: .cfa -24 + ^ x22: .cfa -32 + ^ x23: .cfa -40 + ^ x24: .cfa -48 + ^ x25: .cfa -56 + ^ x28: .cfa -64 + ^ .ra: .cfa -72 + ^ x29: .cfa -80 + ^
STACK CFI 1b76c .cfa: sp 80 +
STACK CFI 1b780 .cfa: sp 0 +
STACK CFI 1b784 .cfa: x29 80 +
STACK CFI INIT 1b86c 134 .cfa: sp 0 +
STACK CFI 1b870 .cfa: sp 80 +
STACK CFI 1b87c .cfa: x29 32 + x19: .cfa -8 + ^ x20: .cfa -16 + ^ .ra: .cfa -24 + ^ x29: .cfa -32 + ^
STACK CFI 1b8ac .cfa: sp 80 +
STACK CFI 1b8b8 .cfa: sp 0 +
STACK CFI 1b8bc .cfa: x29 32 +
STACK CFI INIT 1b9a0 78 .cfa: sp 0 +
STACK CFI 1b9a4 .cfa: sp 32 +
STACK CFI 1b9ac .cfa: x29 32 + x19: .cfa -8 + ^ x20: .cfa -16 + ^ .ra: .cfa -24 + ^ x29: .cfa -32 + ^
STACK CFI 1b9b8 .cfa: sp 32 +
STACK CFI 1b9c0 .cfa: sp 0 +
STACK CFI 1b9c4 .cfa: x29 32 +
STACK CFI INIT 1ba18 74 .cfa: sp 0 +
STACK CFI 1ba1c .cfa: sp 48 +
STACK CFI 1ba28 .cfa: x29 32 + x19: .cfa -8 + ^ x20: .cfa -16 + ^ .ra: .cfa -24 + ^ x29: .cfa -32 + ^
STACK CFI 1ba74 .cfa: sp 48 +
STACK CFI 1ba80 .cfa: sp 0 +
STACK CFI 1ba84 .cfa: x29 32 +
STACK CFI INIT 1baf0 1b8 .cfa: sp 0 +
STACK CFI 1baf4 .cfa: sp 160 +
STACK CFI 1bb10 .cfa: x29 72 + x19: .cfa -8 + ^ x20: .cfa -16 + ^ x21: .cfa -24 + ^ x22: .cfa -32 + ^ x23: .cfa -40 + ^ x24: .cfa -48 + ^ x25: .cfa -56 + ^ .ra: .cfa -64 + ^ x29: .cfa -72 + ^ v8: .cfa -80 + ^
STACK CFI 1bb94 .cfa: sp 160 +
STACK CFI 1bbb0 .cfa: sp 0 +
STACK CFI 1bbb4 .cfa: x29 72 +
STACK CFI INIT 1bca8 16c .cfa: sp 0 +
STACK CFI 1bcac .cfa: sp 64 +
STACK CFI 1bcbc .cfa: x29 48 + x19: .cfa -8 + ^ x20: .cfa -16 + ^ x21: .cfa -24 + ^ x22: .cfa -32 + ^ .ra: .cfa -40 + ^ x29: .cfa -48 + ^
STACK CFI 1bdb4 .cfa: sp 64 +
STACK CFI 1bdc4 .cfa: sp 0 +
STACK CFI 1bdc8 .cfa: x29 48 +
STACK CFI INIT 1be14 154 .cfa: sp 0 +
STACK CFI 1be18 .cfa: sp 384 +
STACK CFI 1be2c .cfa: x29 64 + x19: .cfa -8 + ^ x20: .cfa -16 + ^ x21: .cfa -24 + ^ x22: .cfa -32 + ^ x23: .cfa -40 + ^ x28: .cfa -48 + ^ .ra: .cfa -56 + ^ x29: .cfa -64 + ^
STACK CFI 1bf10 .cfa: sp 384 +
STACK CFI 1bf24 .cfa: sp 0 +
STACK CFI 1bf28 .cfa: x29 64 +
STACK CFI INIT 1c2b0 294 .cfa: sp 0 +
STACK CFI 1c2b4 .cfa: sp 240 +
STACK CFI 1c2cc .cfa: x29 80 + x19: .cfa -8 + ^ x20: .cfa -16 + ^ x21: .cfa -24 + ^ x22: .cfa -32 + ^ x23: .cfa -40 + ^ x24: .cfa -48 + ^ x25: .cfa -64 + ^ .ra: .cfa -72 + ^ x29: .cfa -80 + ^
STACK CFI 1c46c .cfa: sp 240 +
STACK CFI 1c484 .cfa: sp 0 +
STACK CFI 1c488 .cfa: x29 80 +
STACK CFI INIT 1c5c0 50 .cfa: sp 0 +
STACK CFI 1c5c4 .cfa: sp 32 +
STACK CFI 1c5cc .cfa: x29 32 + x19: .cfa -8 + ^ x20: .cfa -16 + ^ .ra: .cfa -24 + ^ x29: .cfa -32 + ^
STACK CFI INIT 1c63c 7c0 .cfa: sp 0 +
STACK CFI 1c640 .cfa: sp 320 +
STACK CFI 1c65c .cfa: x29 96 + x19: .cfa -8 + ^ x20: .cfa -16 + ^ x21: .cfa -24 + ^ x22: .cfa -32 + ^ x23: .cfa -40 + ^ x24: .cfa -48 + ^ x25: .cfa -56 + ^ x26: .cfa -64 + ^ x27: .cfa -72 + ^ x28: .cfa -80 + ^ .ra: .cfa -88 + ^ x29: .cfa -96 + ^
STACK CFI 1ccac .cfa: sp 320 +
STACK CFI 1ccc8 .cfa: sp 0 +
STACK CFI 1cccc .cfa: x29 96 +
STACK CFI INIT 2117c c74 .cfa: sp 0 +
STACK CFI 21180 .cfa: sp 96 +
STACK CFI 21198 .cfa: x29 96 + x19: .cfa -8 + ^ x20: .cfa -16 + ^ x21: .cfa -24 + ^ x22: .cfa -32 + ^ x23: .cfa -40 + ^ x24: .cfa -48 + ^ x25: .cfa -56 + ^ x26: .cfa -64 + ^ x27: .cfa -72 + ^ x28: .cfa -80 + ^ .ra: .cfa -88 + ^ x29: .cfa -96 + ^
STACK CFI 21c10 .cfa: sp 96 +
STACK CFI 21c28 .cfa: sp 0 +
STACK CFI 21c2c .cfa: x29 96 +
STACK CFI INIT 21f44 26c .cfa: sp 0 +
STACK CFI 21f48 .cfa: sp 128 +
STACK CFI 21f58 .cfa: x29 48 + x19: .cfa -8 + ^ x20: .cfa -16 + ^ x21: .cfa -24 + ^ x22: .cfa -32 + ^ .ra: .cfa -40 + ^ x29: .cfa -48 + ^
STACK CFI 220fc .cfa: sp 128 +
STACK CFI 2210c .cfa: sp 0 +
STACK CFI 22110 .cfa: x29 48 +
STACK CFI INIT 226fc 3b8 .cfa: sp 0 +
STACK CFI 22700 .cfa: sp 96 +
STACK CFI 22718 .cfa: x29 96 + x19: .cfa -8 + ^ x20: .cfa -16 + ^ x21: .cfa -24 + ^ x22: .cfa -32 + ^ x23: .cfa -40 + ^ x24: .cfa -48 + ^ x25: .cfa -56 + ^ x26: .cfa -64 + ^ x27: .cfa -72 + ^ x28: .cfa -80 + ^ .ra: .cfa -88 + ^ x29: .cfa -96 + ^
STACK CFI 22a54 .cfa: sp 96 +
STACK CFI 22a6c .cfa: sp 0 +
STACK CFI 22a70 .cfa: x29 96 +
STACK CFI INIT 22b54 cb4 .cfa: sp 0 +
STACK CFI 22b58 .cfa: sp 96 +
STACK CFI 22b70 .cfa: x29 96 + x19: .cfa -8 + ^ x20: .cfa -16 + ^ x21: .cfa -24 + ^ x22: .cfa -32 + ^ x23: .cfa -40 + ^ x24: .cfa -48 + ^ x25: .cfa -56 + ^ x26: .cfa -64 + ^ x27: .cfa -72 + ^ x28: .cfa -80 + ^ .ra: .cfa -88 + ^ x29: .cfa -96 + ^
STACK CFI 23618 .cfa: sp 96 +
STACK CFI 23630 .cfa: sp 0 +
STACK CFI 23634 .cfa: x29 96 +
STACK CFI INIT 23af0 afc .cfa: sp 0 +
STACK CFI 23af4 .cfa: sp 96 +
STACK CFI 23b0c .cfa: x29 96 + x19: .cfa -8 + ^ x20: .cfa -16 + ^ x21: .cfa -24 + ^ x22: .cfa -32 + ^ x23: .cfa -40 + ^ x24: .cfa -48 + ^ x25: .cfa -56 + ^ x26: .cfa -64 + ^ x27: .cfa -72 + ^ x28: .cfa -80 + ^ .ra: .cfa -88 + ^ x29: .cfa -96 + ^
STACK CFI 24560 .cfa: sp 96 +
STACK CFI 24578 .cfa: sp 0 +
STACK CFI 2457c .cfa: x29 96 +
STACK CFI INIT 247c8 1430 .cfa: sp 0 +
STACK CFI 247cc .cfa: sp 96 +
STACK CFI 247e4 .cfa: x29 96 + x19: .cfa -8 + ^ x20: .cfa -16 + ^ x21: .cfa -24 + ^ x22: .cfa -32 + ^ x23: .cfa -40 + ^ x24: .cfa -48 + ^ x25: .cfa -56 + ^ x26: .cfa -64 + ^ x27: .cfa -72 + ^ x28: .cfa -80 + ^ .ra: .cfa -88 + ^ x29: .cfa -96 + ^
STACK CFI 25a80 .cfa: sp 96 +
STACK CFI 25a98 .cfa: sp 0 +
STACK CFI 25a9c .cfa: x29 96 +
STACK CFI INIT 25d1c 75c .cfa: sp 0 +
STACK CFI 25d20 .cfa: sp 368 +
STACK CFI 25d3c .cfa: x29 96 + x19: .cfa -8 + ^ x20: .cfa -16 + ^ x21: .cfa -24 + ^ x22: .cfa -32 + ^ x23: .cfa -40 + ^ x24: .cfa -48 + ^ x25: .cfa -56 + ^ x26: .cfa -64 + ^ x27: .cfa -72 + ^ x28: .cfa -80 + ^ .ra: .cfa -88 + ^ x29: .cfa -96 + ^
STACK CFI 25df0 .cfa: sp 368 +
STACK CFI 25e0c .cfa: sp 0 +
STACK CFI 25e10 .cfa: x29 96 +
STACK CFI 25e64 .cfa: sp 368 +
STACK CFI 25e80 .cfa: sp 0 +
STACK CFI 25e84 .cfa: x29 96 +
STACK CFI INIT 26838 eb0 .cfa: sp 0 +
STACK CFI 2683c .cfa: sp 96 +
STACK CFI 26854 .cfa: x29 96 + x19: .cfa -8 + ^ x20: .cfa -16 + ^ x21: .cfa -24 + ^ x22: .cfa -32 + ^ x23: .cfa -40 + ^ x24: .cfa -48 + ^ x25: .cfa -56 + ^ x26: .cfa -64 + ^ x27: .cfa -72 + ^ x28: .cfa -80 + ^ .ra: .cfa -88 + ^ x29: .cfa -96 + ^
STACK CFI 274fc .cfa: sp 96 +
STACK CFI 27514 .cfa: sp 0 +
STACK CFI 27518 .cfa: x29 96 +
STACK CFI INIT 27a5c 1c9c .cfa: sp 0 +
STACK CFI 27a60 .cfa: sp 112 +
STACK CFI 27a7c .cfa: x29 96 + x19: .cfa -8 + ^ x20: .cfa -16 + ^ x21: .cfa -24 + ^ x22: .cfa -32 + ^ x23: .cfa -40 + ^ x24: .cfa -48 + ^ x25: .cfa -56 + ^ x26: .cfa -64 + ^ x27: .cfa -72 + ^ x28: .cfa -80 + ^ .ra: .cfa -88 + ^ x29: .cfa -96 + ^ v8: .cfa -112 + ^
STACK CFI 27e64 .cfa: sp 112 +
STACK CFI 27e80 .cfa: sp 0 +
STACK CFI 27e84 .cfa: x29 96 +
STACK CFI INIT 2bebc 9a0 .cfa: sp 0 +
STACK CFI 2bec0 .cfa: sp 144 +
STACK CFI 2bed8 .cfa: x29 80 + x19: .cfa -8 + ^ x20: .cfa -16 + ^ x21: .cfa -24 + ^ x22: .cfa -32 + ^ x23: .cfa -40 + ^ x24: .cfa -48 + ^ x25: .cfa -64 + ^ .ra: .cfa -72 + ^ x29: .cfa -80 + ^
STACK CFI 2c7d8 .cfa: sp 144 +
STACK CFI 2c7f0 .cfa: sp 0 +
STACK CFI 2c7f4 .cfa: x29 80 +
STACK CFI INIT 2dd80 57c .cfa: sp 0 +
STACK CFI 2dd84 .cfa: sp 96 +
STACK CFI 2dd9c .cfa: x29 96 + x19: .cfa -8 + ^ x20: .cfa -16 + ^ x21: .cfa -24 + ^ x22: .cfa -32 + ^ x23: .cfa -40 + ^ x24: .cfa -48 + ^ x25: .cfa -56 + ^ x26: .cfa -64 + ^ x27: .cfa -72 + ^ x28: .cfa -80 + ^ .ra: .cfa -88 + ^ x29: .cfa -96 + ^
STACK CFI 2e260 .cfa: sp 96 +
STACK CFI 2e278 .cfa: sp 0 +
STACK CFI 2e27c .cfa: x29 96 +
STACK CFI INIT 2e2fc 67c .cfa: sp 0 +
STACK CFI 2e300 .cfa: sp 96 +
STACK CFI 2e318 .cfa: x29 96 + x19: .cfa -8 + ^ x20: .cfa -16 + ^ x21: .cfa -24 + ^ x22: .cfa -32 + ^ x23: .cfa -40 + ^ x24: .cfa -48 + ^ x25: .cfa -56 + ^ x26: .cfa -64 + ^ x27: .cfa -72 + ^ x28: .cfa -80 + ^ .ra: .cfa -88 + ^ x29: .cfa -96 + ^
STACK CFI 2e8dc .cfa: sp 96 +
STACK CFI 2e8f4 .cfa: sp 0 +
STACK CFI 2e8f8 .cfa: x29 96 +
