MODULE Linux arm A22D3D607F5EC56ADE9673B275A7B0810 firee.object-workshop.android32.so
INFO CODE_ID 603D2DA25E7F6AC5DE9673B275A7B08178261765
INFO GENERATOR mozilla/dump_syms 2.3.4
PUBLIC 38a00 0 __on_dlclose
PUBLIC 38a10 0 __emutls_unregister_key
PUBLIC 38a14 0 __on_dlclose_late
PUBLIC 38a18 0 __atexit_handler_wrapper
PUBLIC 38a24 0 atexit
PUBLIC 38a44 0 pthread_atfork
FUNC 38a54 420 0 authentication::AuthenticationManager::getAuthenticationToken(std::__ndk1::function<void (std::__ndk1::basic_string<char, std::__ndk1::char_traits<char>, std::__ndk1::allocator<char> >)>, std::__ndk1::function<void (std::__ndk1::basic_string<char, std::__ndk1::char_traits<char>, std::__ndk1::allocator<char> >)>)
FUNC 38e74 40 0 authentication::AuthenticationManager::getAuthenticationToken(std::__ndk1::function<void (std::__ndk1::basic_string<char, std::__ndk1::char_traits<char>, std::__ndk1::allocator<char> >)>, std::__ndk1::function<void (std::__ndk1::basic_string<char, std::__ndk1::char_traits<char>, std::__ndk1::allocator<char> >)>)::$_0::~$_0()
FUNC 38eb4 3a 0 geode::Task<geode::utils::web::WebResponse, geode::utils::web::WebProgress>::~Task()
PUBLIC 38eef 0 __clang_call_terminate
FUNC 38efa 46 0 std::__ndk1::basic_string<char, std::__ndk1::char_traits<char>, std::__ndk1::allocator<char> >::__init_copy_ctor_external(char const*, unsigned int)
FUNC 38f40 10 0 std::__ndk1::basic_string<char, std::__ndk1::char_traits<char>, std::__ndk1::allocator<char> >::__throw_length_error[abi:ne180000]() const
FUNC 38f50 38 0 std::__ndk1::__throw_length_error[abi:ne180000](char const*)
FUNC 38f88 18 0 std::length_error::length_error[abi:ne180000](char const*)
FUNC 38fa0 34 0 std::__ndk1::__throw_bad_function_call[abi:ne180000]()
FUNC 38fd4 10 0 std::__ndk1::bad_function_call::~bad_function_call()
FUNC 38fe4 a0 0 fmt::v11::detail::value<fmt::v11::context>::format_custom_arg<gd::string, fmt::v11::formatter<gd::string, char, void> >(void*, fmt::v11::basic_format_parse_context<char>&, fmt::v11::context&)
FUNC 39084 e8 0 fmt::v11::formatter<gd::string, char, void>::format<fmt::v11::context>(gd::string const&, fmt::v11::context&) const
FUNC 3916c 468 0 fmt::v11::detail::parse_format_specs<char>(char const*, char const*, fmt::v11::detail::dynamic_format_specs<char>&, fmt::v11::basic_format_parse_context<char>&, fmt::v11::detail::type)
FUNC 395d4 10c 0 fmt::v11::detail::parse_dynamic_spec<char>(char const*, char const*, int&, fmt::v11::detail::arg_ref<char>&, fmt::v11::basic_format_parse_context<char>&)
FUNC 396e0 114 0 fmt::v11::detail::do_parse_arg_id<char, fmt::v11::detail::dynamic_spec_id_handler<char>&>(char const*, char const*, fmt::v11::detail::dynamic_spec_id_handler<char>&)
FUNC 397f4 bc 0 fmt::v11::detail::handle_dynamic_spec<fmt::v11::detail::width_checker, fmt::v11::context>(int&, fmt::v11::detail::arg_ref<fmt::v11::context::char_type>, fmt::v11::context&)
FUNC 398b0 bc 0 fmt::v11::detail::handle_dynamic_spec<fmt::v11::detail::precision_checker, fmt::v11::context>(int&, fmt::v11::detail::arg_ref<fmt::v11::context::char_type>, fmt::v11::context&)
FUNC 3996c 16c 0 fmt::v11::detail::write<char, fmt::v11::basic_appender<char> >(fmt::v11::basic_appender<char>, fmt::v11::basic_string_view<char>, fmt::v11::format_specs const&)
FUNC 39ad8 118 0 fmt::v11::detail::write_escaped_string<char, fmt::v11::detail::counting_iterator>(fmt::v11::detail::counting_iterator, fmt::v11::basic_string_view<char>)
FUNC 39bf0 120 0 fmt::v11::detail::write_padded<char, (fmt::v11::align::type)1, fmt::v11::basic_appender<char>, fmt::v11::detail::write<char, fmt::v11::basic_appender<char> >(fmt::v11::basic_appender<char>, fmt::v11::basic_string_view<char>, fmt::v11::format_specs const&)::{lambda(fmt::v11::basic_appender<char>)#1}>(fmt::v11::basic_appender<char>, fmt::v11::format_specs const&, unsigned int, unsigned int, fmt::v11::detail::write<char, fmt::v11::basic_appender<char> >(fmt::v11::basic_appender<char>, fmt::v11::basic_string_view<char>, fmt::v11::format_specs const&)::{lambda(fmt::v11::basic_appender<char>&&)#1})
FUNC 39d10 2c4 0 fmt::v11::detail::for_each_codepoint<fmt::v11::detail::code_point_index(fmt::v11::basic_string_view<char>, unsigned int)::{lambda(unsigned int, fmt::v11::basic_string_view<char>)#1}>(fmt::v11::basic_string_view<char>, fmt::v11::detail::code_point_index(fmt::v11::basic_string_view<char>, unsigned int)::{lambda(unsigned int, fmt::v11::basic_string_view<char>)#1})
FUNC 39fd4 10c 0 fmt::v11::detail::write_escaped_cp<fmt::v11::detail::counting_iterator, char>(fmt::v11::detail::counting_iterator, fmt::v11::detail::find_escape_result<char> const&)
FUNC 3a0e0 124 0 fmt::v11::detail::for_each_codepoint<fmt::v11::detail::find_escape(char const*, char const*)::{lambda(unsigned int, fmt::v11::basic_string_view<char>)#1}>(fmt::v11::basic_string_view<char>, fmt::v11::detail::find_escape(char const*, char const*)::{lambda(unsigned int, fmt::v11::basic_string_view<char>)#1})::{lambda(char const*, char const*)#1}::operator()(char const*, char const*) const
FUNC 3a210 1e4 0 fmt::v11::detail::for_each_codepoint<fmt::v11::detail::compute_width(fmt::v11::basic_string_view<char>)::count_code_points>(fmt::v11::basic_string_view<char>, fmt::v11::detail::compute_width(fmt::v11::basic_string_view<char>)::count_code_points)::{lambda(char const*, char const*)#1}::operator()(char const*, char const*) const
FUNC 3a3f4 fa 0 fmt::v11::detail::fill<char, fmt::v11::basic_appender<char> >(fmt::v11::basic_appender<char>, unsigned int, fmt::v11::detail::fill_t const&)
FUNC 3a4f0 1e4 0 fmt::v11::detail::write_escaped_string<char, fmt::v11::basic_appender<char> >(fmt::v11::basic_appender<char>, fmt::v11::basic_string_view<char>)
FUNC 3a6d4 118 0 fmt::v11::detail::write_escaped_cp<fmt::v11::basic_appender<char>, char>(fmt::v11::basic_appender<char>, fmt::v11::detail::find_escape_result<char> const&)
FUNC 3a7ec e0 0 fmt::v11::detail::write_codepoint<(unsigned int)2, char, fmt::v11::basic_appender<char> >(fmt::v11::basic_appender<char>, char, unsigned int)
FUNC 3a8cc dc 0 fmt::v11::detail::write_codepoint<(unsigned int)4, char, fmt::v11::basic_appender<char> >(fmt::v11::basic_appender<char>, char, unsigned int)
FUNC 3a9a8 e0 0 fmt::v11::detail::write_codepoint<(unsigned int)8, char, fmt::v11::basic_appender<char> >(fmt::v11::basic_appender<char>, char, unsigned int)
FUNC 3aa88 60 0 fmt::v11::detail::get_dynamic_spec<fmt::v11::detail::width_checker, fmt::v11::basic_format_arg<fmt::v11::context> >(fmt::v11::basic_format_arg<fmt::v11::context>)
FUNC 3aae8 106 0 fmt::v11::basic_format_args<fmt::v11::context>::get<char>(fmt::v11::basic_string_view<char>) const
FUNC 3abf0 60 0 fmt::v11::detail::get_dynamic_spec<fmt::v11::detail::precision_checker, fmt::v11::basic_format_arg<fmt::v11::context> >(fmt::v11::basic_format_arg<fmt::v11::context>)
FUNC 3ac50 cc 0 std::__ndk1::__function::__value_func<void (geode::Task<geode::utils::web::WebResponse, geode::utils::web::WebProgress>::Event*)>::swap[abi:ne180000](std::__ndk1::__function::__value_func<void (geode::Task<geode::utils::web::WebResponse, geode::utils::web::WebProgress>::Event*)>&)
FUNC 3ad1c 50 0 std::__ndk1::__function::__func<authentication::AuthenticationManager::getAuthenticationToken(std::__ndk1::function<void (std::__ndk1::basic_string<char, std::__ndk1::char_traits<char>, std::__ndk1::allocator<char> >)>, std::__ndk1::function<void (std::__ndk1::basic_string<char, std::__ndk1::char_traits<char>, std::__ndk1::allocator<char> >)>)::$_0, std::__ndk1::allocator<authentication::AuthenticationManager::getAuthenticationToken(std::__ndk1::function<void (std::__ndk1::basic_string<char, std::__ndk1::char_traits<char>, std::__ndk1::allocator<char> >)>, std::__ndk1::function<void (std::__ndk1::basic_string<char, std::__ndk1::char_traits<char>, std::__ndk1::allocator<char> >)>)::$_0>, void (geode::Task<geode::utils::web::WebResponse, geode::utils::web::WebProgress>::Event*)>::~__func()
FUNC 3ad6c 54 0 std::__ndk1::__function::__func<authentication::AuthenticationManager::getAuthenticationToken(std::__ndk1::function<void (std::__ndk1::basic_string<char, std::__ndk1::char_traits<char>, std::__ndk1::allocator<char> >)>, std::__ndk1::function<void (std::__ndk1::basic_string<char, std::__ndk1::char_traits<char>, std::__ndk1::allocator<char> >)>)::$_0, std::__ndk1::allocator<authentication::AuthenticationManager::getAuthenticationToken(std::__ndk1::function<void (std::__ndk1::basic_string<char, std::__ndk1::char_traits<char>, std::__ndk1::allocator<char> >)>, std::__ndk1::function<void (std::__ndk1::basic_string<char, std::__ndk1::char_traits<char>, std::__ndk1::allocator<char> >)>)::$_0>, void (geode::Task<geode::utils::web::WebResponse, geode::utils::web::WebProgress>::Event*)>::~__func()
FUNC 3adc0 a4 0 std::__ndk1::__function::__func<authentication::AuthenticationManager::getAuthenticationToken(std::__ndk1::function<void (std::__ndk1::basic_string<char, std::__ndk1::char_traits<char>, std::__ndk1::allocator<char> >)>, std::__ndk1::function<void (std::__ndk1::basic_string<char, std::__ndk1::char_traits<char>, std::__ndk1::allocator<char> >)>)::$_0, std::__ndk1::allocator<authentication::AuthenticationManager::getAuthenticationToken(std::__ndk1::function<void (std::__ndk1::basic_string<char, std::__ndk1::char_traits<char>, std::__ndk1::allocator<char> >)>, std::__ndk1::function<void (std::__ndk1::basic_string<char, std::__ndk1::char_traits<char>, std::__ndk1::allocator<char> >)>)::$_0>, void (geode::Task<geode::utils::web::WebResponse, geode::utils::web::WebProgress>::Event*)>::__clone() const
FUNC 3ae64 98 0 std::__ndk1::__function::__func<authentication::AuthenticationManager::getAuthenticationToken(std::__ndk1::function<void (std::__ndk1::basic_string<char, std::__ndk1::char_traits<char>, std::__ndk1::allocator<char> >)>, std::__ndk1::function<void (std::__ndk1::basic_string<char, std::__ndk1::char_traits<char>, std::__ndk1::allocator<char> >)>)::$_0, std::__ndk1::allocator<authentication::AuthenticationManager::getAuthenticationToken(std::__ndk1::function<void (std::__ndk1::basic_string<char, std::__ndk1::char_traits<char>, std::__ndk1::allocator<char> >)>, std::__ndk1::function<void (std::__ndk1::basic_string<char, std::__ndk1::char_traits<char>, std::__ndk1::allocator<char> >)>)::$_0>, void (geode::Task<geode::utils::web::WebResponse, geode::utils::web::WebProgress>::Event*)>::__clone(std::__ndk1::__function::__base<void (geode::Task<geode::utils::web::WebResponse, geode::utils::web::WebProgress>::Event*)>*) const
FUNC 3aefc 42 0 std::__ndk1::__function::__func<authentication::AuthenticationManager::getAuthenticationToken(std::__ndk1::function<void (std::__ndk1::basic_string<char, std::__ndk1::char_traits<char>, std::__ndk1::allocator<char> >)>, std::__ndk1::function<void (std::__ndk1::basic_string<char, std::__ndk1::char_traits<char>, std::__ndk1::allocator<char> >)>)::$_0, std::__ndk1::allocator<authentication::AuthenticationManager::getAuthenticationToken(std::__ndk1::function<void (std::__ndk1::basic_string<char, std::__ndk1::char_traits<char>, std::__ndk1::allocator<char> >)>, std::__ndk1::function<void (std::__ndk1::basic_string<char, std::__ndk1::char_traits<char>, std::__ndk1::allocator<char> >)>)::$_0>, void (geode::Task<geode::utils::web::WebResponse, geode::utils::web::WebProgress>::Event*)>::destroy()
FUNC 3af3e 46 0 std::__ndk1::__function::__func<authentication::AuthenticationManager::getAuthenticationToken(std::__ndk1::function<void (std::__ndk1::basic_string<char, std::__ndk1::char_traits<char>, std::__ndk1::allocator<char> >)>, std::__ndk1::function<void (std::__ndk1::basic_string<char, std::__ndk1::char_traits<char>, std::__ndk1::allocator<char> >)>)::$_0, std::__ndk1::allocator<authentication::AuthenticationManager::getAuthenticationToken(std::__ndk1::function<void (std::__ndk1::basic_string<char, std::__ndk1::char_traits<char>, std::__ndk1::allocator<char> >)>, std::__ndk1::function<void (std::__ndk1::basic_string<char, std::__ndk1::char_traits<char>, std::__ndk1::allocator<char> >)>)::$_0>, void (geode::Task<geode::utils::web::WebResponse, geode::utils::web::WebProgress>::Event*)>::destroy_deallocate()
FUNC 3af84 3d0 0 std::__ndk1::__function::__func<authentication::AuthenticationManager::getAuthenticationToken(std::__ndk1::function<void (std::__ndk1::basic_string<char, std::__ndk1::char_traits<char>, std::__ndk1::allocator<char> >)>, std::__ndk1::function<void (std::__ndk1::basic_string<char, std::__ndk1::char_traits<char>, std::__ndk1::allocator<char> >)>)::$_0, std::__ndk1::allocator<authentication::AuthenticationManager::getAuthenticationToken(std::__ndk1::function<void (std::__ndk1::basic_string<char, std::__ndk1::char_traits<char>, std::__ndk1::allocator<char> >)>, std::__ndk1::function<void (std::__ndk1::basic_string<char, std::__ndk1::char_traits<char>, std::__ndk1::allocator<char> >)>)::$_0>, void (geode::Task<geode::utils::web::WebResponse, geode::utils::web::WebProgress>::Event*)>::operator()(geode::Task<geode::utils::web::WebResponse, geode::utils::web::WebProgress>::Event*&&)
FUNC 3b354 18 0 std::__ndk1::__function::__func<authentication::AuthenticationManager::getAuthenticationToken(std::__ndk1::function<void (std::__ndk1::basic_string<char, std::__ndk1::char_traits<char>, std::__ndk1::allocator<char> >)>, std::__ndk1::function<void (std::__ndk1::basic_string<char, std::__ndk1::char_traits<char>, std::__ndk1::allocator<char> >)>)::$_0, std::__ndk1::allocator<authentication::AuthenticationManager::getAuthenticationToken(std::__ndk1::function<void (std::__ndk1::basic_string<char, std::__ndk1::char_traits<char>, std::__ndk1::allocator<char> >)>, std::__ndk1::function<void (std::__ndk1::basic_string<char, std::__ndk1::char_traits<char>, std::__ndk1::allocator<char> >)>)::$_0>, void (geode::Task<geode::utils::web::WebResponse, geode::utils::web::WebProgress>::Event*)>::target(std::type_info const&) const
FUNC 3b36c c 0 std::__ndk1::__function::__func<authentication::AuthenticationManager::getAuthenticationToken(std::__ndk1::function<void (std::__ndk1::basic_string<char, std::__ndk1::char_traits<char>, std::__ndk1::allocator<char> >)>, std::__ndk1::function<void (std::__ndk1::basic_string<char, std::__ndk1::char_traits<char>, std::__ndk1::allocator<char> >)>)::$_0, std::__ndk1::allocator<authentication::AuthenticationManager::getAuthenticationToken(std::__ndk1::function<void (std::__ndk1::basic_string<char, std::__ndk1::char_traits<char>, std::__ndk1::allocator<char> >)>, std::__ndk1::function<void (std::__ndk1::basic_string<char, std::__ndk1::char_traits<char>, std::__ndk1::allocator<char> >)>)::$_0>, void (geode::Task<geode::utils::web::WebResponse, geode::utils::web::WebProgress>::Event*)>::target_type() const
FUNC 3b378 60 0 geode::impl::ResultData<matjson::Value, std::__ndk1::basic_string<char, std::__ndk1::char_traits<char>, std::__ndk1::allocator<char> > >::~ResultData()
FUNC 3b3d8 60 0 geode::impl::ResultData<std::__ndk1::basic_string<char, std::__ndk1::char_traits<char>, std::__ndk1::allocator<char> >, std::__ndk1::basic_string<char, std::__ndk1::char_traits<char>, std::__ndk1::allocator<char> > >::~ResultData()
FUNC 3b438 34 0 std::__ndk1::__throw_bad_variant_access[abi:ne180000]()
FUNC 3b46c 6 0 std::__ndk1::__variant_detail::__visitation::__base::__dispatcher<(unsigned int)0>::__dispatch[abi:ne180000]<std::__ndk1::__variant_detail::__dtor<std::__ndk1::__variant_detail::__traits<matjson::Value, std::__ndk1::basic_string<char, std::__ndk1::char_traits<char>, std::__ndk1::allocator<char> > >, (std::__ndk1::__variant_detail::_Trait)1>::__destroy[abi:ne180000]()::{lambda(auto:1&)#1}, std::__ndk1::__variant_detail::__base<(std::__ndk1::__variant_detail::__traits<matjson::Value, std::__ndk1::basic_string<char, std::__ndk1::char_traits<char>, std::__ndk1::allocator<char> > >)1, matjson, std::__ndk1::allocator<char> >&>(std::__ndk1::__variant_detail::__dtor<std::__ndk1::__variant_detail::__traits<matjson::Value, std::__ndk1::basic_string<char, std::__ndk1::char_traits<char>, std::__ndk1::allocator<char> > >, (std::__ndk1::__variant_detail::_Trait)1>, std::__ndk1::__variant_detail::__base<(std::__ndk1::__variant_detail::__traits<matjson::Value, std::__ndk1::basic_string<char, std::__ndk1::char_traits<char>, std::__ndk1::allocator<char> > >)1, matjson, std::__ndk1::allocator<char> >&)
FUNC 3b472 e 0 std::__ndk1::__variant_detail::__visitation::__base::__dispatcher<(unsigned int)1>::__dispatch[abi:ne180000]<std::__ndk1::__variant_detail::__dtor<std::__ndk1::__variant_detail::__traits<matjson::Value, std::__ndk1::basic_string<char, std::__ndk1::char_traits<char>, std::__ndk1::allocator<char> > >, (std::__ndk1::__variant_detail::_Trait)1>::__destroy[abi:ne180000]()::{lambda(auto:1&)#1}, std::__ndk1::__variant_detail::__base<(std::__ndk1::__variant_detail::__traits<matjson::Value, std::__ndk1::basic_string<char, std::__ndk1::char_traits<char>, std::__ndk1::allocator<char> > >)1, matjson, std::__ndk1::allocator<char> >&>(std::__ndk1::__variant_detail::__dtor<std::__ndk1::__variant_detail::__traits<matjson::Value, std::__ndk1::basic_string<char, std::__ndk1::char_traits<char>, std::__ndk1::allocator<char> > >, (std::__ndk1::__variant_detail::_Trait)1>, std::__ndk1::__variant_detail::__base<(std::__ndk1::__variant_detail::__traits<matjson::Value, std::__ndk1::basic_string<char, std::__ndk1::char_traits<char>, std::__ndk1::allocator<char> > >)1, matjson, std::__ndk1::allocator<char> >&)
FUNC 3b480 e 0 std::__ndk1::__variant_detail::__visitation::__base::__dispatcher<(unsigned int)0>::__dispatch[abi:ne180000]<std::__ndk1::__variant_detail::__dtor<std::__ndk1::__variant_detail::__traits<std::__ndk1::basic_string<char, std::__ndk1::char_traits<char>, std::__ndk1::allocator<char> >, std::__ndk1::allocator<char> >, (std::__ndk1::__variant_detail::_Trait)1>::__destroy[abi:ne180000]()::{lambda(auto:1&)#1}, std::__ndk1::__variant_detail::__base<(std::__ndk1::__variant_detail::__traits<std::__ndk1::basic_string<char, std::__ndk1::char_traits<char>, std::__ndk1::allocator<char> >, std::__ndk1::allocator<char> >)1, std::__ndk1::allocator<char>, std::__ndk1::allocator<char> >&>(std::__ndk1::__variant_detail::__dtor<std::__ndk1::__variant_detail::__traits<std::__ndk1::basic_string<char, std::__ndk1::char_traits<char>, std::__ndk1::allocator<char> >, std::__ndk1::allocator<char> >, (std::__ndk1::__variant_detail::_Trait)1>, std::__ndk1::__variant_detail::__base<(std::__ndk1::__variant_detail::__traits<std::__ndk1::basic_string<char, std::__ndk1::char_traits<char>, std::__ndk1::allocator<char> >, std::__ndk1::allocator<char> >)1, std::__ndk1::allocator<char>, std::__ndk1::allocator<char> >&)
FUNC 3b48e e 0 std::__ndk1::__variant_detail::__visitation::__base::__dispatcher<(unsigned int)1>::__dispatch[abi:ne180000]<std::__ndk1::__variant_detail::__dtor<std::__ndk1::__variant_detail::__traits<std::__ndk1::basic_string<char, std::__ndk1::char_traits<char>, std::__ndk1::allocator<char> >, std::__ndk1::allocator<char> >, (std::__ndk1::__variant_detail::_Trait)1>::__destroy[abi:ne180000]()::{lambda(auto:1&)#1}, std::__ndk1::__variant_detail::__base<(std::__ndk1::__variant_detail::__traits<std::__ndk1::basic_string<char, std::__ndk1::char_traits<char>, std::__ndk1::allocator<char> >, std::__ndk1::allocator<char> >)1, std::__ndk1::allocator<char>, std::__ndk1::allocator<char> >&>(std::__ndk1::__variant_detail::__dtor<std::__ndk1::__variant_detail::__traits<std::__ndk1::basic_string<char, std::__ndk1::char_traits<char>, std::__ndk1::allocator<char> >, std::__ndk1::allocator<char> >, (std::__ndk1::__variant_detail::_Trait)1>, std::__ndk1::__variant_detail::__base<(std::__ndk1::__variant_detail::__traits<std::__ndk1::basic_string<char, std::__ndk1::char_traits<char>, std::__ndk1::allocator<char> >, std::__ndk1::allocator<char> >)1, std::__ndk1::allocator<char>, std::__ndk1::allocator<char> >&)
FUNC 3b49c 104 0 _ZN5geode15UnwrapExceptionC2IRNSt6__ndk112basic_stringIcNS2_11char_traitsIcEENS2_9allocatorIcEEEEQsr4implE18IsStringStreamableIT_EEENS_4impl6ErrTagEOSA_
FUNC 3b5a0 d8 0 std::__ndk1::basic_stringstream<char, std::__ndk1::char_traits<char>, std::__ndk1::allocator<char> >::basic_stringstream[abi:ne180000]()
FUNC 3b678 68 0 std::__ndk1::basic_stringstream<char, std::__ndk1::char_traits<char>, std::__ndk1::allocator<char> >::~basic_stringstream()
FUNC 3b6e0 10 0 geode::UnwrapException::~UnwrapException()
FUNC 3b6f0 108 0 std::__ndk1::__put_character_sequence[abi:ne180000]<char, std::__ndk1::char_traits<char> >(std::__ndk1::basic_ostream<char, std::__ndk1::char_traits<char> >, std::__ndk1::basic_ostream const*, unsigned int)
FUNC 3b7f8 110 0 std::__ndk1::__pad_and_output[abi:ne180000]<char, std::__ndk1::char_traits<char> >(std::__ndk1::char_traits<char>, std::__ndk1::ostreambuf_iterator const*, std::__ndk1::ostreambuf_iterator const, std::__ndk1::ostreambuf_iterator const, std::__ndk1::ios_base&, std::__ndk1::ostreambuf_iterator)
FUNC 3b908 ce 0 std::__ndk1::basic_stringbuf<char, std::__ndk1::char_traits<char>, std::__ndk1::allocator<char> >::str[abi:ne180000]() &&
FUNC 3b9d6 e0 0 std::__ndk1::basic_stringbuf<char, std::__ndk1::char_traits<char>, std::__ndk1::allocator<char> >::__init_buf_ptrs[abi:ne180000]()
FUNC 3bab8 60 0 geode::impl::ResultData<matjson::Value&, std::__ndk1::basic_string<char, std::__ndk1::char_traits<char>, std::__ndk1::allocator<char> > >::~ResultData()
FUNC 3bb18 2 0 std::__ndk1::__variant_detail::__visitation::__base::__dispatcher<(unsigned int)0>::__dispatch[abi:ne180000]<std::__ndk1::__variant_detail::__dtor<std::__ndk1::__variant_detail::__traits<std::__ndk1::reference_wrapper<matjson::Value>, std::__ndk1::basic_string<char, std::__ndk1::char_traits<char>, std::__ndk1::allocator<char> > >, (std::__ndk1::__variant_detail::_Trait)1>::__destroy[abi:ne180000]()::{lambda(auto:1&)#1}, std::__ndk1::__variant_detail::__base<(std::__ndk1::__variant_detail::__traits<std::__ndk1::reference_wrapper<matjson::Value>, std::__ndk1::basic_string<char, std::__ndk1::char_traits<char>, std::__ndk1::allocator<char> > >)1, matjson::Value, std::__ndk1::allocator<char> >&>(std::__ndk1::__variant_detail::__dtor<std::__ndk1::__variant_detail::__traits<std::__ndk1::reference_wrapper<matjson::Value>, std::__ndk1::basic_string<char, std::__ndk1::char_traits<char>, std::__ndk1::allocator<char> > >, (std::__ndk1::__variant_detail::_Trait)1>, std::__ndk1::__variant_detail::__base<(std::__ndk1::__variant_detail::__traits<std::__ndk1::reference_wrapper<matjson::Value>, std::__ndk1::basic_string<char, std::__ndk1::char_traits<char>, std::__ndk1::allocator<char> > >)1, matjson::Value, std::__ndk1::allocator<char> >&)
FUNC 3bb1a e 0 std::__ndk1::__variant_detail::__visitation::__base::__dispatcher<(unsigned int)1>::__dispatch[abi:ne180000]<std::__ndk1::__variant_detail::__dtor<std::__ndk1::__variant_detail::__traits<std::__ndk1::reference_wrapper<matjson::Value>, std::__ndk1::basic_string<char, std::__ndk1::char_traits<char>, std::__ndk1::allocator<char> > >, (std::__ndk1::__variant_detail::_Trait)1>::__destroy[abi:ne180000]()::{lambda(auto:1&)#1}, std::__ndk1::__variant_detail::__base<(std::__ndk1::__variant_detail::__traits<std::__ndk1::reference_wrapper<matjson::Value>, std::__ndk1::basic_string<char, std::__ndk1::char_traits<char>, std::__ndk1::allocator<char> > >)1, matjson::Value, std::__ndk1::allocator<char> >&>(std::__ndk1::__variant_detail::__dtor<std::__ndk1::__variant_detail::__traits<std::__ndk1::reference_wrapper<matjson::Value>, std::__ndk1::basic_string<char, std::__ndk1::char_traits<char>, std::__ndk1::allocator<char> > >, (std::__ndk1::__variant_detail::_Trait)1>, std::__ndk1::__variant_detail::__base<(std::__ndk1::__variant_detail::__traits<std::__ndk1::reference_wrapper<matjson::Value>, std::__ndk1::basic_string<char, std::__ndk1::char_traits<char>, std::__ndk1::allocator<char> > >)1, matjson::Value, std::__ndk1::allocator<char> >&)
FUNC 3bb28 168 0 geode::Task<geode::utils::web::WebResponse, geode::utils::web::WebProgress>::setListener(geode::EventListenerProtocol*)
FUNC 3bc90 3a 0 geode::Task<geode::utils::web::WebResponse, geode::utils::web::WebProgress>::setListener(geode::EventListenerProtocol*)::{lambda()#1}::~{lambda()#1}()
FUNC 3bcca 3a 0 geode::Task<geode::utils::web::WebResponse, geode::utils::web::WebProgress>::setListener(geode::EventListenerProtocol*)::{lambda()#2}::~{lambda()#2}()
FUNC 3bd04 48 0 std::__ndk1::__function::__func<geode::Task<geode::utils::web::WebResponse, geode::utils::web::WebProgress>::setListener(geode::EventListenerProtocol*)::{lambda()#1}, std::__ndk1::allocator<geode::Task<geode::utils::web::WebResponse, geode::utils::web::WebProgress>::setListener(geode::EventListenerProtocol*)::{lambda()#1}>, void ()>::~__func()
FUNC 3bd4c 54 0 std::__ndk1::__function::__func<geode::Task<geode::utils::web::WebResponse, geode::utils::web::WebProgress>::setListener(geode::EventListenerProtocol*)::{lambda()#1}, std::__ndk1::allocator<geode::Task<geode::utils::web::WebResponse, geode::utils::web::WebProgress>::setListener(geode::EventListenerProtocol*)::{lambda()#1}>, void ()>::~__func()
FUNC 3bda0 40 0 std::__ndk1::__function::__func<geode::Task<geode::utils::web::WebResponse, geode::utils::web::WebProgress>::setListener(geode::EventListenerProtocol*)::{lambda()#1}, std::__ndk1::allocator<geode::Task<geode::utils::web::WebResponse, geode::utils::web::WebProgress>::setListener(geode::EventListenerProtocol*)::{lambda()#1}>, void ()>::__clone() const
FUNC 3bde0 34 0 std::__ndk1::__function::__func<geode::Task<geode::utils::web::WebResponse, geode::utils::web::WebProgress>::setListener(geode::EventListenerProtocol*)::{lambda()#1}, std::__ndk1::allocator<geode::Task<geode::utils::web::WebResponse, geode::utils::web::WebProgress>::setListener(geode::EventListenerProtocol*)::{lambda()#1}>, void ()>::__clone(std::__ndk1::__function::__base<void ()>*) const
FUNC 3be14 3a 0 std::__ndk1::__function::__func<geode::Task<geode::utils::web::WebResponse, geode::utils::web::WebProgress>::setListener(geode::EventListenerProtocol*)::{lambda()#1}, std::__ndk1::allocator<geode::Task<geode::utils::web::WebResponse, geode::utils::web::WebProgress>::setListener(geode::EventListenerProtocol*)::{lambda()#1}>, void ()>::destroy()
FUNC 3be4e 44 0 std::__ndk1::__function::__func<geode::Task<geode::utils::web::WebResponse, geode::utils::web::WebProgress>::setListener(geode::EventListenerProtocol*)::{lambda()#1}, std::__ndk1::allocator<geode::Task<geode::utils::web::WebResponse, geode::utils::web::WebProgress>::setListener(geode::EventListenerProtocol*)::{lambda()#1}>, void ()>::destroy_deallocate()
FUNC 3be92 6 0 std::__ndk1::__function::__func<geode::Task<geode::utils::web::WebResponse, geode::utils::web::WebProgress>::setListener(geode::EventListenerProtocol*)::{lambda()#1}, std::__ndk1::allocator<geode::Task<geode::utils::web::WebResponse, geode::utils::web::WebProgress>::setListener(geode::EventListenerProtocol*)::{lambda()#1}>, void ()>::operator()()
FUNC 3be98 18 0 std::__ndk1::__function::__func<geode::Task<geode::utils::web::WebResponse, geode::utils::web::WebProgress>::setListener(geode::EventListenerProtocol*)::{lambda()#1}, std::__ndk1::allocator<geode::Task<geode::utils::web::WebResponse, geode::utils::web::WebProgress>::setListener(geode::EventListenerProtocol*)::{lambda()#1}>, void ()>::target(std::type_info const&) const
FUNC 3beb0 c 0 std::__ndk1::__function::__func<geode::Task<geode::utils::web::WebResponse, geode::utils::web::WebProgress>::setListener(geode::EventListenerProtocol*)::{lambda()#1}, std::__ndk1::allocator<geode::Task<geode::utils::web::WebResponse, geode::utils::web::WebProgress>::setListener(geode::EventListenerProtocol*)::{lambda()#1}>, void ()>::target_type() const
FUNC 3bebc 150 0 geode::Task<geode::utils::web::WebResponse, geode::utils::web::WebProgress>::setListener(geode::EventListenerProtocol*)::{lambda()#1}::operator()() const
FUNC 3c00c 44 0 geode::Task<geode::utils::web::WebResponse, geode::utils::web::WebProgress>::Event::~Event()
FUNC 3c050 40 0 geode::Task<geode::utils::web::WebResponse, geode::utils::web::WebProgress>::Event::~Event()
FUNC 3c090 48 0 std::__ndk1::__function::__func<geode::Task<geode::utils::web::WebResponse, geode::utils::web::WebProgress>::setListener(geode::EventListenerProtocol*)::{lambda()#2}, std::__ndk1::allocator<geode::Task<geode::utils::web::WebResponse, geode::utils::web::WebProgress>::setListener(geode::EventListenerProtocol*)::{lambda()#2}>, void ()>::~__func()
FUNC 3c0d8 54 0 std::__ndk1::__function::__func<geode::Task<geode::utils::web::WebResponse, geode::utils::web::WebProgress>::setListener(geode::EventListenerProtocol*)::{lambda()#2}, std::__ndk1::allocator<geode::Task<geode::utils::web::WebResponse, geode::utils::web::WebProgress>::setListener(geode::EventListenerProtocol*)::{lambda()#2}>, void ()>::~__func()
FUNC 3c12c 3c 0 std::__ndk1::__function::__func<geode::Task<geode::utils::web::WebResponse, geode::utils::web::WebProgress>::setListener(geode::EventListenerProtocol*)::{lambda()#2}, std::__ndk1::allocator<geode::Task<geode::utils::web::WebResponse, geode::utils::web::WebProgress>::setListener(geode::EventListenerProtocol*)::{lambda()#2}>, void ()>::__clone() const
FUNC 3c168 30 0 std::__ndk1::__function::__func<geode::Task<geode::utils::web::WebResponse, geode::utils::web::WebProgress>::setListener(geode::EventListenerProtocol*)::{lambda()#2}, std::__ndk1::allocator<geode::Task<geode::utils::web::WebResponse, geode::utils::web::WebProgress>::setListener(geode::EventListenerProtocol*)::{lambda()#2}>, void ()>::__clone(std::__ndk1::__function::__base<void ()>*) const
FUNC 3c198 3a 0 std::__ndk1::__function::__func<geode::Task<geode::utils::web::WebResponse, geode::utils::web::WebProgress>::setListener(geode::EventListenerProtocol*)::{lambda()#2}, std::__ndk1::allocator<geode::Task<geode::utils::web::WebResponse, geode::utils::web::WebProgress>::setListener(geode::EventListenerProtocol*)::{lambda()#2}>, void ()>::destroy()
FUNC 3c1d2 44 0 std::__ndk1::__function::__func<geode::Task<geode::utils::web::WebResponse, geode::utils::web::WebProgress>::setListener(geode::EventListenerProtocol*)::{lambda()#2}, std::__ndk1::allocator<geode::Task<geode::utils::web::WebResponse, geode::utils::web::WebProgress>::setListener(geode::EventListenerProtocol*)::{lambda()#2}>, void ()>::destroy_deallocate()
FUNC 3c216 6 0 std::__ndk1::__function::__func<geode::Task<geode::utils::web::WebResponse, geode::utils::web::WebProgress>::setListener(geode::EventListenerProtocol*)::{lambda()#2}, std::__ndk1::allocator<geode::Task<geode::utils::web::WebResponse, geode::utils::web::WebProgress>::setListener(geode::EventListenerProtocol*)::{lambda()#2}>, void ()>::operator()()
FUNC 3c21c 18 0 std::__ndk1::__function::__func<geode::Task<geode::utils::web::WebResponse, geode::utils::web::WebProgress>::setListener(geode::EventListenerProtocol*)::{lambda()#2}, std::__ndk1::allocator<geode::Task<geode::utils::web::WebResponse, geode::utils::web::WebProgress>::setListener(geode::EventListenerProtocol*)::{lambda()#2}>, void ()>::target(std::type_info const&) const
FUNC 3c234 c 0 std::__ndk1::__function::__func<geode::Task<geode::utils::web::WebResponse, geode::utils::web::WebProgress>::setListener(geode::EventListenerProtocol*)::{lambda()#2}, std::__ndk1::allocator<geode::Task<geode::utils::web::WebResponse, geode::utils::web::WebProgress>::setListener(geode::EventListenerProtocol*)::{lambda()#2}>, void ()>::target_type() const
FUNC 3c240 150 0 geode::Task<geode::utils::web::WebResponse, geode::utils::web::WebProgress>::setListener(geode::EventListenerProtocol*)::{lambda()#2}::operator()() const
FUNC 3c390 4fc 0 CustomObjects::onWorkshop(cocos2d::CCObject*)
FUNC 3c88c f8 0 geode::Mod::getSettingValue<long long>(std::__ndk1::basic_string_view<char, std::__ndk1::char_traits<char> >) const
FUNC 3c984 118 0 geode::Mod::getSettingValue<std::__ndk1::basic_string<char, std::__ndk1::char_traits<char>, std::__ndk1::allocator<char> > >(std::__ndk1::basic_string_view<char, std::__ndk1::char_traits<char> >) const
FUNC 3ca9c 124 0 CustomObjects::init(LevelEditorLayer*)
FUNC 3cbc0 5e 0 std::__ndk1::basic_string<char, std::__ndk1::char_traits<char>, std::__ndk1::allocator<char> >::basic_string[abi:ne180000]<0>()
FUNC 3cc20 4c 0 __cxx_global_var_init
FUNC 3cc6c 20 0 geode::modifier::ModifyBase<geode::modifier::ModifyDerive<CustomObjects, EditorUI> >::~ModifyBase()
FUNC 3cc8c 2f4 0 __cxx_global_var_init.2
FUNC 3cf80 20 0 geode::modifier::ModifyBase<geode::modifier::ModifyDerive<ObjectBypass, EditorUI> >::~ModifyBase()
FUNC 3cfa0 2d0 0 __cxx_global_var_init.3
FUNC 3d270 2d0 0 __cxx_global_var_init.4
FUNC 3d540 20 0 geode::modifier::ModifyBase<geode::modifier::ModifyDerive<hook274<(anonymous namespace)::hook274Parent>, ProfilePage> >::~ModifyBase()
FUNC 3d560 20 0 geode::modifier::ModifyBase<geode::modifier::ModifyDerive<hook409<(anonymous namespace)::hook409Parent>, EditorUI> >::~ModifyBase()
FUNC 3d580 28 0 std::__throw_bad_array_new_length([abi:ne180000], void)
FUNC 3d5a8 4 0 cocos2d::CCCopying::copyWithZone(cocos2d::CCZone*)
FUNC 3d5ac 2 0 cocos2d::CCLayerRGBA::setOpacityModifyRGB(bool)
FUNC 3d5ae 4 0 cocos2d::CCLayerRGBA::isOpacityModifyRGB()
FUNC 3d5b2 2 0 cocos2d::CCKeyboardDelegate::keyUp(cocos2d::enumKeyCodes)
FUNC 3d5b4 2 0 cocos2d::CCMouseDelegate::rightKeyDown()
FUNC 3d5b6 2 0 cocos2d::CCMouseDelegate::rightKeyUp()
FUNC 3d5b8 2 0 cocos2d::CCMouseDelegate::scrollWheel(float, float)
FUNC 3d5ba 2 0 {virtual override thunk({offset(-316)}, cocos2d::CCLayerRGBA::setOpacityModifyRGB(bool))}
FUNC 3d5bc 4 0 {virtual override thunk({offset(-316)}, cocos2d::CCLayerRGBA::isOpacityModifyRGB())}
FUNC 3d5c0 29c 0 geode::modifier::ModifyBase<geode::modifier::ModifyDerive<CustomObjects, EditorUI> >::ModifyBase()
FUNC 3d85c 260 0 geode::modifier::ModifyDerive<CustomObjects, EditorUI>::apply()
FUNC 3dabc 3a 0 std::__ndk1::shared_ptr<geode::Hook>::~shared_ptr[abi:ne180000]()
FUNC 3daf8 60 0 geode::impl::ResultData<geode::Hook*, std::__ndk1::basic_string<char, std::__ndk1::char_traits<char>, std::__ndk1::allocator<char> > >::~ResultData()
FUNC 3db58 3e 0 std::__ndk1::vector<std::__ndk1::basic_string<char, std::__ndk1::char_traits<char>, std::__ndk1::allocator<char> >, std::__ndk1::allocator<std::__ndk1::basic_string<char, std::__ndk1::char_traits<char>, std::__ndk1::allocator<char> > > >::~vector[abi:ne180000]()
FUNC 3db96 2 0 geode::modifier::ModifyBase<geode::modifier::ModifyDerive<CustomObjects, EditorUI> >::apply()
FUNC 3db98 f8 0 _ZN5geode15UnwrapExceptionC2IRPNS_4HookEQsr4implE18IsStringStreamableIT_EEENS_4impl5OkTagEOS5_
FUNC 3dc90 164 0 std::__ndk1::vector<std::__ndk1::basic_string<char, std::__ndk1::char_traits<char>, std::__ndk1::allocator<char> >, std::__ndk1::allocator<std::__ndk1::basic_string<char, std::__ndk1::char_traits<char>, std::__ndk1::allocator<char> > > >::__push_back_slow_path<std::__ndk1::basic_string<char, std::__ndk1::char_traits<char>, std::__ndk1::allocator<char> > const&>(std::__ndk1::basic_string<char, std::__ndk1::char_traits<char>, std::__ndk1::allocator<char> > const&)
FUNC 3ddf4 3c 0 std::__ndk1::__split_buffer<std::__ndk1::basic_string<char, std::__ndk1::char_traits<char>, std::__ndk1::allocator<char> >, std::__ndk1::allocator<std::__ndk1::basic_string<char, std::__ndk1::char_traits<char>, std::__ndk1::allocator<char> > >&>::~__split_buffer()
FUNC 3de30 10 0 std::__ndk1::vector<std::__ndk1::basic_string<char, std::__ndk1::char_traits<char>, std::__ndk1::allocator<char> >, std::__ndk1::allocator<std::__ndk1::basic_string<char, std::__ndk1::char_traits<char>, std::__ndk1::allocator<char> > > >::__throw_length_error[abi:ne180000]() const
FUNC 3de40 2 0 std::__ndk1::__variant_detail::__visitation::__base::__dispatcher<(unsigned int)0>::__dispatch[abi:ne180000]<std::__ndk1::__variant_detail::__dtor<std::__ndk1::__variant_detail::__traits<geode::Hook*, std::__ndk1::basic_string<char, std::__ndk1::char_traits<char>, std::__ndk1::allocator<char> > >, (std::__ndk1::__variant_detail::_Trait)1>::__destroy[abi:ne180000]()::{lambda(auto:1&)#1}, std::__ndk1::__variant_detail::__base<(std::__ndk1::__variant_detail::__traits<geode::Hook*, std::__ndk1::basic_string<char, std::__ndk1::char_traits<char>, std::__ndk1::allocator<char> > >)1, geode::Hook, std::__ndk1::allocator<char> >&>(std::__ndk1::__variant_detail::__dtor<std::__ndk1::__variant_detail::__traits<geode::Hook*, std::__ndk1::basic_string<char, std::__ndk1::char_traits<char>, std::__ndk1::allocator<char> > >, (std::__ndk1::__variant_detail::_Trait)1>, std::__ndk1::__variant_detail::__base<(std::__ndk1::__variant_detail::__traits<geode::Hook*, std::__ndk1::basic_string<char, std::__ndk1::char_traits<char>, std::__ndk1::allocator<char> > >)1, geode::Hook, std::__ndk1::allocator<char> >&)
FUNC 3de42 e 0 std::__ndk1::__variant_detail::__visitation::__base::__dispatcher<(unsigned int)1>::__dispatch[abi:ne180000]<std::__ndk1::__variant_detail::__dtor<std::__ndk1::__variant_detail::__traits<geode::Hook*, std::__ndk1::basic_string<char, std::__ndk1::char_traits<char>, std::__ndk1::allocator<char> > >, (std::__ndk1::__variant_detail::_Trait)1>::__destroy[abi:ne180000]()::{lambda(auto:1&)#1}, std::__ndk1::__variant_detail::__base<(std::__ndk1::__variant_detail::__traits<geode::Hook*, std::__ndk1::basic_string<char, std::__ndk1::char_traits<char>, std::__ndk1::allocator<char> > >)1, geode::Hook, std::__ndk1::allocator<char> >&>(std::__ndk1::__variant_detail::__dtor<std::__ndk1::__variant_detail::__traits<geode::Hook*, std::__ndk1::basic_string<char, std::__ndk1::char_traits<char>, std::__ndk1::allocator<char> > >, (std::__ndk1::__variant_detail::_Trait)1>, std::__ndk1::__variant_detail::__base<(std::__ndk1::__variant_detail::__traits<geode::Hook*, std::__ndk1::basic_string<char, std::__ndk1::char_traits<char>, std::__ndk1::allocator<char> > >)1, geode::Hook, std::__ndk1::allocator<char> >&)
FUNC 3de50 c0 0 std::__ndk1::__tree<std::__ndk1::__value_type<std::__ndk1::basic_string<char, std::__ndk1::char_traits<char>, std::__ndk1::allocator<char> >, std::__ndk1::shared_ptr<geode::Hook> >, std::__ndk1::__map_value_compare<std::__ndk1::basic_string<char, std::__ndk1::char_traits<char>, std::__ndk1::allocator<char> >, std::__ndk1::__value_type<std::__ndk1::basic_string<char, std::__ndk1::char_traits<char>, std::__ndk1::allocator<char> >, std::__ndk1::shared_ptr<geode::Hook> >, std::__ndk1::less<std::__ndk1::basic_string<char, std::__ndk1::char_traits<char>, std::__ndk1::allocator<char> > >, true>, std::__ndk1::allocator<std::__ndk1::__value_type<std::__ndk1::basic_string<char, std::__ndk1::char_traits<char>, std::__ndk1::allocator<char> >, std::__ndk1::shared_ptr<geode::Hook> > > >::find<std::__ndk1::basic_string<char, std::__ndk1::char_traits<char>, std::__ndk1::allocator<char> > >(std::__ndk1::basic_string<char, std::__ndk1::char_traits<char>, std::__ndk1::allocator<char> > const&)
FUNC 3df10 82 0 std::__ndk1::__tree<std::__ndk1::__value_type<std::__ndk1::basic_string<char, std::__ndk1::char_traits<char>, std::__ndk1::allocator<char> >, std::__ndk1::shared_ptr<geode::Hook> >, std::__ndk1::__map_value_compare<std::__ndk1::basic_string<char, std::__ndk1::char_traits<char>, std::__ndk1::allocator<char> >, std::__ndk1::__value_type<std::__ndk1::basic_string<char, std::__ndk1::char_traits<char>, std::__ndk1::allocator<char> >, std::__ndk1::shared_ptr<geode::Hook> >, std::__ndk1::less<std::__ndk1::basic_string<char, std::__ndk1::char_traits<char>, std::__ndk1::allocator<char> > >, true>, std::__ndk1::allocator<std::__ndk1::__value_type<std::__ndk1::basic_string<char, std::__ndk1::char_traits<char>, std::__ndk1::allocator<char> >, std::__ndk1::shared_ptr<geode::Hook> > > >::erase(std::__ndk1::__tree_const_iterator<std::__ndk1::__value_type<std::__ndk1::basic_string<char, std::__ndk1::char_traits<char>, std::__ndk1::allocator<char> >, std::__ndk1::shared_ptr<geode::Hook> >, std::__ndk1::__tree_node<std::__ndk1::__value_type<std::__ndk1::basic_string<char, std::__ndk1::char_traits<char>, std::__ndk1::allocator<char> >, std::__ndk1::shared_ptr<geode::Hook> >, void*>*, int>)
FUNC 3df92 274 0 std::__ndk1::__tree_remove[abi:ne180000]<std::__ndk1::__tree_node_base<void*>*>(std::__ndk1::__tree_node_base<void*>*, std::__ndk1::__tree_node_base<void*>*)
FUNC 3e206 5e 0 std::__ndk1::__tree<std::__ndk1::__value_type<std::__ndk1::basic_string<char, std::__ndk1::char_traits<char>, std::__ndk1::allocator<char> >, std::__ndk1::shared_ptr<geode::Hook> >, std::__ndk1::__map_value_compare<std::__ndk1::basic_string<char, std::__ndk1::char_traits<char>, std::__ndk1::allocator<char> >, std::__ndk1::__value_type<std::__ndk1::basic_string<char, std::__ndk1::char_traits<char>, std::__ndk1::allocator<char> >, std::__ndk1::shared_ptr<geode::Hook> >, std::__ndk1::less<std::__ndk1::basic_string<char, std::__ndk1::char_traits<char>, std::__ndk1::allocator<char> > >, true>, std::__ndk1::allocator<std::__ndk1::__value_type<std::__ndk1::basic_string<char, std::__ndk1::char_traits<char>, std::__ndk1::allocator<char> >, std::__ndk1::shared_ptr<geode::Hook> > > >::destroy(std::__ndk1::__tree_node<std::__ndk1::__value_type<std::__ndk1::basic_string<char, std::__ndk1::char_traits<char>, std::__ndk1::allocator<char> >, std::__ndk1::shared_ptr<geode::Hook> >, void*>*)
FUNC 3e270 108 0 geode::Hook::create<bool (*)(CustomObjects*, LevelEditorLayer*)>(void*, bool (*)(CustomObjects*, LevelEditorLayer*), std::__ndk1::basic_string<char, std::__ndk1::char_traits<char>, std::__ndk1::allocator<char> > const&, tulip::hook::TulipConvention, tulip::hook::HookMetadata const&)
FUNC 3e378 4 0 geode::modifier::AsStaticFunction_init<CustomObjects, bool (CustomObjects::*)(LevelEditorLayer*)>::Impl<bool (CustomObjects::*)(LevelEditorLayer*)>::function(CustomObjects*, LevelEditorLayer*)
FUNC 3e37c 3a 0 std::__ndk1::shared_ptr<tulip::hook::CallingConvention>::~shared_ptr[abi:ne180000]()
FUNC 3e3b6 46 0 tulip::hook::HandlerMetadata::~HandlerMetadata()
FUNC 3e3fc ba 0 std::__ndk1::__tree<std::__ndk1::__value_type<std::__ndk1::basic_string<char, std::__ndk1::char_traits<char>, std::__ndk1::allocator<char> >, std::__ndk1::shared_ptr<geode::Hook> >, std::__ndk1::__map_value_compare<std::__ndk1::basic_string<char, std::__ndk1::char_traits<char>, std::__ndk1::allocator<char> >, std::__ndk1::__value_type<std::__ndk1::basic_string<char, std::__ndk1::char_traits<char>, std::__ndk1::allocator<char> >, std::__ndk1::shared_ptr<geode::Hook> >, std::__ndk1::less<std::__ndk1::basic_string<char, std::__ndk1::char_traits<char>, std::__ndk1::allocator<char> > >, true>, std::__ndk1::allocator<std::__ndk1::__value_type<std::__ndk1::basic_string<char, std::__ndk1::char_traits<char>, std::__ndk1::allocator<char> >, std::__ndk1::shared_ptr<geode::Hook> > > >::__find_equal<std::__ndk1::basic_string<char, std::__ndk1::char_traits<char>, std::__ndk1::allocator<char> > >(std::__ndk1::__tree_end_node<std::__ndk1::__tree_node_base<void*>*>*&, std::__ndk1::basic_string<char, std::__ndk1::char_traits<char>, std::__ndk1::allocator<char> > const&)
FUNC 3e4b6 14a 0 std::__ndk1::__tree_balance_after_insert[abi:ne180000]<std::__ndk1::__tree_node_base<void*>*>(std::__ndk1::__tree_node_base<void*>*, std::__ndk1::__tree_node_base<void*>*)
FUNC 3e600 8c 0 geode::cast::traverseTypeinfoFor(void*, geode::cast::ClassTypeinfoType const*, char const*)
FUNC 3e68c 3a 0 std::__ndk1::shared_ptr<geode::StringSettingV3>::~shared_ptr[abi:ne180000]()
FUNC 3e6c8 2c 0 std::__ndk1::__function::__func<CustomObjects::onWorkshop(cocos2d::CCObject*)::$_0, std::__ndk1::allocator<CustomObjects::onWorkshop(cocos2d::CCObject*)::$_0>, void (int)>::~__func()
FUNC 3e6f4 30 0 std::__ndk1::__function::__func<CustomObjects::onWorkshop(cocos2d::CCObject*)::$_0, std::__ndk1::allocator<CustomObjects::onWorkshop(cocos2d::CCObject*)::$_0>, void (int)>::~__func()
FUNC 3e724 5c 0 std::__ndk1::__function::__func<CustomObjects::onWorkshop(cocos2d::CCObject*)::$_0, std::__ndk1::allocator<CustomObjects::onWorkshop(cocos2d::CCObject*)::$_0>, void (int)>::__clone() const
FUNC 3e780 3c 0 std::__ndk1::__function::__func<CustomObjects::onWorkshop(cocos2d::CCObject*)::$_0, std::__ndk1::allocator<CustomObjects::onWorkshop(cocos2d::CCObject*)::$_0>, void (int)>::__clone(std::__ndk1::__function::__base<void (int)>*) const
FUNC 3e7bc e 0 std::__ndk1::__function::__func<CustomObjects::onWorkshop(cocos2d::CCObject*)::$_0, std::__ndk1::allocator<CustomObjects::onWorkshop(cocos2d::CCObject*)::$_0>, void (int)>::destroy()
FUNC 3e7ca 22 0 std::__ndk1::__function::__func<CustomObjects::onWorkshop(cocos2d::CCObject*)::$_0, std::__ndk1::allocator<CustomObjects::onWorkshop(cocos2d::CCObject*)::$_0>, void (int)>::destroy_deallocate()
FUNC 3e7ec 3ac 0 std::__ndk1::__function::__func<CustomObjects::onWorkshop(cocos2d::CCObject*)::$_0, std::__ndk1::allocator<CustomObjects::onWorkshop(cocos2d::CCObject*)::$_0>, void (int)>::operator()(int&&)
FUNC 3eb98 18 0 std::__ndk1::__function::__func<CustomObjects::onWorkshop(cocos2d::CCObject*)::$_0, std::__ndk1::allocator<CustomObjects::onWorkshop(cocos2d::CCObject*)::$_0>, void (int)>::target(std::type_info const&) const
FUNC 3ebb0 c 0 std::__ndk1::__function::__func<CustomObjects::onWorkshop(cocos2d::CCObject*)::$_0, std::__ndk1::allocator<CustomObjects::onWorkshop(cocos2d::CCObject*)::$_0>, void (int)>::target_type() const
FUNC 3ebc0 ac 0 ObjectWorkshop::create(bool)
FUNC 3ec6c cc 0 dashauth::DashAuthRequest::getToken(geode::Mod*, std::__ndk1::basic_string<char, std::__ndk1::char_traits<char>, std::__ndk1::allocator<char> > const&)
FUNC 3ed38 144 0 dashauth::SentDashAuthRequest::then(std::__ndk1::function<void (std::__ndk1::basic_string<char, std::__ndk1::char_traits<char>, std::__ndk1::allocator<char> > const&)>)
FUNC 3ee7c 68 0 authentication::AuthenticationManager::get()
FUNC 3eee4 484 0 ObjectWorkshop::ObjectWorkshop()
FUNC 3f368 3e 0 std::__ndk1::unordered_set<std::__ndk1::basic_string<char, std::__ndk1::char_traits<char>, std::__ndk1::allocator<char> >, std::__ndk1::hash<std::__ndk1::basic_string<char, std::__ndk1::char_traits<char>, std::__ndk1::allocator<char> > >, std::__ndk1::equal_to<std::__ndk1::basic_string<char, std::__ndk1::char_traits<char>, std::__ndk1::allocator<char> > >, std::__ndk1::allocator<std::__ndk1::basic_string<char, std::__ndk1::char_traits<char>, std::__ndk1::allocator<char> > > >::~unordered_set[abi:ne180000]()
FUNC 3f3a6 c0 0 ObjectData::~ObjectData()
FUNC 3f466 56 0 UserData::~UserData()
FUNC 3f4bc 68 0 geode::EventListener<geode::Task<geode::utils::web::WebResponse, geode::utils::web::WebProgress> >::~EventListener()
FUNC 3f524 5c 0 geode::Popup<bool>::~Popup()
FUNC 3f580 2 0 geode::Popup<bool>::~Popup()
FUNC 3f582 20 0 geode::Popup<bool>::registerWithTouchDispatcher()
FUNC 3f5a2 18 0 geode::Popup<bool>::keyDown(cocos2d::enumKeyCodes)
FUNC 3f5bc e4 0 geode::Popup<bool>::onClose(cocos2d::CCObject*)
FUNC 3f6a0 60 0 {virtual override thunk({offset(-264)}, geode::Popup<bool>::~Popup())}
FUNC 3f700 2 0 {virtual override thunk({offset(-264)}, geode::Popup<bool>::~Popup())}
FUNC 3f702 1c 0 {virtual override thunk({offset(-276)}, geode::Popup<bool>::keyDown(cocos2d::enumKeyCodes))}
FUNC 3f71e 44 0 geode::Popup<bool>::CloseEvent::~CloseEvent()
FUNC 3f762 40 0 geode::Popup<bool>::CloseEvent::~CloseEvent()
FUNC 3f7a4 10 0 std::__ndk1::__shared_ptr_emplace<geode::Popup<bool>::CloseEvent::Impl, std::__ndk1::allocator<geode::Popup<bool>::CloseEvent::Impl> >::~__shared_ptr_emplace()
FUNC 3f7b4 1c 0 std::__ndk1::__shared_ptr_emplace<geode::Popup<bool>::CloseEvent::Impl, std::__ndk1::allocator<geode::Popup<bool>::CloseEvent::Impl> >::~__shared_ptr_emplace()
FUNC 3f7d0 2 0 std::__ndk1::__shared_ptr_emplace<geode::Popup<bool>::CloseEvent::Impl, std::__ndk1::allocator<geode::Popup<bool>::CloseEvent::Impl> >::__on_zero_shared()
FUNC 3f7d2 4 0 std::__ndk1::__shared_ptr_emplace<geode::Popup<bool>::CloseEvent::Impl, std::__ndk1::allocator<geode::Popup<bool>::CloseEvent::Impl> >::__on_zero_shared_weak()
FUNC 3f7d6 4 0 geode::EventListener<geode::Task<geode::utils::web::WebResponse, geode::utils::web::WebProgress> >::getPool() const
FUNC 3f7dc e8 0 geode::EventListener<geode::Task<geode::utils::web::WebResponse, geode::utils::web::WebProgress> >::handle(geode::Event*)
FUNC 3f8c4 6c 0 geode::EventListener<geode::Task<geode::utils::web::WebResponse, geode::utils::web::WebProgress> >::~EventListener()
FUNC 3f930 3a 0 std::__ndk1::shared_ptr<geode::Task<geode::utils::web::WebResponse, geode::utils::web::WebProgress>::Handle>::~shared_ptr[abi:ne180000]()
FUNC 3f96c 248 0 geode::Popup<bool>::initBase(float, float, bool, char const*, cocos2d::CCRect, bool)
FUNC 3fbb4 12c 0 dashauth::SentDashAuthRequest::SentDashAuthRequest()
FUNC 3fce0 66 0 std::__ndk1::basic_string<char, std::__ndk1::char_traits<char>, std::__ndk1::allocator<char> >::__assign_no_alias<true>(char const*, unsigned int)
FUNC 3fd46 a6 0 std::__ndk1::basic_string<char, std::__ndk1::char_traits<char>, std::__ndk1::allocator<char> >::__assign_no_alias<false>(char const*, unsigned int)
FUNC 3fdec cc 0 std::__ndk1::__function::__value_func<void (std::__ndk1::basic_string<char, std::__ndk1::char_traits<char>, std::__ndk1::allocator<char> > const&)>::swap[abi:ne180000](std::__ndk1::__function::__value_func<void (std::__ndk1::basic_string<char, std::__ndk1::char_traits<char>, std::__ndk1::allocator<char> > const&)>&)
FUNC 3feb8 4 0 std::__ndk1::__function::__func<CustomObjects::onWorkshop(cocos2d::CCObject*)::$_0::operator()(int) const::{lambda(std::__ndk1::basic_string<char, std::__ndk1::char_traits<char>, std::__ndk1::allocator<char> >)#1}, std::__ndk1::allocator<CustomObjects::onWorkshop(cocos2d::CCObject*)::$_0::operator()(int) const::{lambda(std::__ndk1::basic_string<char, std::__ndk1::char_traits<char>, std::__ndk1::allocator<char> >)#1}>, void (std::__ndk1::basic_string<char, std::__ndk1::char_traits<char>, std::__ndk1::allocator<char> > const&)>::~__func()
FUNC 3febc 20 0 std::__ndk1::__function::__func<CustomObjects::onWorkshop(cocos2d::CCObject*)::$_0::operator()(int) const::{lambda(std::__ndk1::basic_string<char, std::__ndk1::char_traits<char>, std::__ndk1::allocator<char> >)#1}, std::__ndk1::allocator<CustomObjects::onWorkshop(cocos2d::CCObject*)::$_0::operator()(int) const::{lambda(std::__ndk1::basic_string<char, std::__ndk1::char_traits<char>, std::__ndk1::allocator<char> >)#1}>, void (std::__ndk1::basic_string<char, std::__ndk1::char_traits<char>, std::__ndk1::allocator<char> > const&)>::__clone() const
FUNC 3fedc 14 0 std::__ndk1::__function::__func<CustomObjects::onWorkshop(cocos2d::CCObject*)::$_0::operator()(int) const::{lambda(std::__ndk1::basic_string<char, std::__ndk1::char_traits<char>, std::__ndk1::allocator<char> >)#1}, std::__ndk1::allocator<CustomObjects::onWorkshop(cocos2d::CCObject*)::$_0::operator()(int) const::{lambda(std::__ndk1::basic_string<char, std::__ndk1::char_traits<char>, std::__ndk1::allocator<char> >)#1}>, void (std::__ndk1::basic_string<char, std::__ndk1::char_traits<char>, std::__ndk1::allocator<char> > const&)>::__clone(std::__ndk1::__function::__base<void (std::__ndk1::basic_string<char, std::__ndk1::char_traits<char>, std::__ndk1::allocator<char> > const&)>*) const
FUNC 3fef0 2 0 std::__ndk1::__function::__func<CustomObjects::onWorkshop(cocos2d::CCObject*)::$_0::operator()(int) const::{lambda(std::__ndk1::basic_string<char, std::__ndk1::char_traits<char>, std::__ndk1::allocator<char> >)#1}, std::__ndk1::allocator<CustomObjects::onWorkshop(cocos2d::CCObject*)::$_0::operator()(int) const::{lambda(std::__ndk1::basic_string<char, std::__ndk1::char_traits<char>, std::__ndk1::allocator<char> >)#1}>, void (std::__ndk1::basic_string<char, std::__ndk1::char_traits<char>, std::__ndk1::allocator<char> > const&)>::destroy()
FUNC 3fef2 4 0 std::__ndk1::__function::__func<CustomObjects::onWorkshop(cocos2d::CCObject*)::$_0::operator()(int) const::{lambda(std::__ndk1::basic_string<char, std::__ndk1::char_traits<char>, std::__ndk1::allocator<char> >)#1}, std::__ndk1::allocator<CustomObjects::onWorkshop(cocos2d::CCObject*)::$_0::operator()(int) const::{lambda(std::__ndk1::basic_string<char, std::__ndk1::char_traits<char>, std::__ndk1::allocator<char> >)#1}>, void (std::__ndk1::basic_string<char, std::__ndk1::char_traits<char>, std::__ndk1::allocator<char> > const&)>::destroy_deallocate()
FUNC 3fef8 134 0 std::__ndk1::__function::__func<CustomObjects::onWorkshop(cocos2d::CCObject*)::$_0::operator()(int) const::{lambda(std::__ndk1::basic_string<char, std::__ndk1::char_traits<char>, std::__ndk1::allocator<char> >)#1}, std::__ndk1::allocator<CustomObjects::onWorkshop(cocos2d::CCObject*)::$_0::operator()(int) const::{lambda(std::__ndk1::basic_string<char, std::__ndk1::char_traits<char>, std::__ndk1::allocator<char> >)#1}>, void (std::__ndk1::basic_string<char, std::__ndk1::char_traits<char>, std::__ndk1::allocator<char> > const&)>::operator()(std::__ndk1::basic_string<char, std::__ndk1::char_traits<char>, std::__ndk1::allocator<char> > const&)
FUNC 4002c 18 0 std::__ndk1::__function::__func<CustomObjects::onWorkshop(cocos2d::CCObject*)::$_0::operator()(int) const::{lambda(std::__ndk1::basic_string<char, std::__ndk1::char_traits<char>, std::__ndk1::allocator<char> >)#1}, std::__ndk1::allocator<CustomObjects::onWorkshop(cocos2d::CCObject*)::$_0::operator()(int) const::{lambda(std::__ndk1::basic_string<char, std::__ndk1::char_traits<char>, std::__ndk1::allocator<char> >)#1}>, void (std::__ndk1::basic_string<char, std::__ndk1::char_traits<char>, std::__ndk1::allocator<char> > const&)>::target(std::type_info const&) const
FUNC 40044 c 0 std::__ndk1::__function::__func<CustomObjects::onWorkshop(cocos2d::CCObject*)::$_0::operator()(int) const::{lambda(std::__ndk1::basic_string<char, std::__ndk1::char_traits<char>, std::__ndk1::allocator<char> >)#1}, std::__ndk1::allocator<CustomObjects::onWorkshop(cocos2d::CCObject*)::$_0::operator()(int) const::{lambda(std::__ndk1::basic_string<char, std::__ndk1::char_traits<char>, std::__ndk1::allocator<char> >)#1}>, void (std::__ndk1::basic_string<char, std::__ndk1::char_traits<char>, std::__ndk1::allocator<char> > const&)>::target_type() const
FUNC 40050 9c 0 std::__ndk1::thread::thread<dashauth::SentDashAuthRequest::then(std::__ndk1::function<void (std::__ndk1::basic_string<char, std::__ndk1::char_traits<char>, std::__ndk1::allocator<char> > const&)>)::{lambda()#1}, , void>(&&)
FUNC 400ec 6c 0 std::__ndk1::__thread_proxy[abi:ne180000]<std::__ndk1::tuple<std::__ndk1::unique_ptr<std::__ndk1::__thread_struct, std::__ndk1::default_delete<std::__ndk1::unique_ptr> >, dashauth::SentDashAuthRequest::then(std::__ndk1::function<void (std::__ndk1::basic_string<char, std::__ndk1::char_traits<char>, std::__ndk1::allocator<char> > const&)>)::{lambda()#1}> >(std::__ndk1::tuple<std::__ndk1::unique_ptr<std::__ndk1::__thread_struct, std::__ndk1::default_delete<std::__ndk1::unique_ptr> >, dashauth::SentDashAuthRequest::then(std::__ndk1::function<void (std::__ndk1::basic_string<char, std::__ndk1::char_traits<char>, std::__ndk1::allocator<char> > const&)>)::{lambda()#1}>)
FUNC 40158 26 0 std::__ndk1::unique_ptr<std::__ndk1::tuple<std::__ndk1::unique_ptr<std::__ndk1::__thread_struct, std::__ndk1::default_delete<std::__ndk1::__thread_struct> >, dashauth::SentDashAuthRequest::then(std::__ndk1::function<void (std::__ndk1::basic_string<char, std::__ndk1::char_traits<char>, std::__ndk1::allocator<char> > const&)>)::{lambda()#1}>, std::__ndk1::default_delete<std::__ndk1::tuple<std::__ndk1::unique_ptr<std::__ndk1::__thread_struct, std::__ndk1::default_delete<std::__ndk1::__thread_struct> >, dashauth::SentDashAuthRequest::then(std::__ndk1::function<void (std::__ndk1::basic_string<char, std::__ndk1::char_traits<char>, std::__ndk1::allocator<char> > const&)>)::{lambda()#1}> > >::~unique_ptr[abi:ne180000]()
FUNC 4017e 22 0 std::__ndk1::unique_ptr<std::__ndk1::__thread_struct, std::__ndk1::default_delete<std::__ndk1::__thread_struct> >::~unique_ptr[abi:ne180000]()
FUNC 401a0 1dc 0 dashauth::SentDashAuthRequest::then(std::__ndk1::function<void (std::__ndk1::basic_string<char, std::__ndk1::char_traits<char>, std::__ndk1::allocator<char> > const&)>)::{lambda()#1}::operator()() const
FUNC 4037c 5a 0 geode::EventListener<geode::Task<geode::utils::web::WebResponse, geode::utils::web::WebProgress> >::setFilter(geode::Task<geode::utils::web::WebResponse, geode::utils::web::WebProgress>)
FUNC 403d6 4 0 std::__ndk1::__function::__func<dashauth::SentDashAuthRequest::then(std::__ndk1::function<void (std::__ndk1::basic_string<char, std::__ndk1::char_traits<char>, std::__ndk1::allocator<char> > const&)>)::{lambda()#1}::operator()() const::{lambda(geode::Task<geode::utils::web::WebResponse, geode::utils::web::WebProgress>::Event*)#1}, std::__ndk1::allocator<dashauth::SentDashAuthRequest::then(std::__ndk1::function<void (std::__ndk1::basic_string<char, std::__ndk1::char_traits<char>, std::__ndk1::allocator<char> > const&)>)::{lambda()#1}::operator()() const::{lambda(geode::Task<geode::utils::web::WebResponse, geode::utils::web::WebProgress>::Event*)#1}>, void (geode::Task<geode::utils::web::WebResponse, geode::utils::web::WebProgress>::Event*)>::~__func()
FUNC 403dc 20 0 std::__ndk1::__function::__func<dashauth::SentDashAuthRequest::then(std::__ndk1::function<void (std::__ndk1::basic_string<char, std::__ndk1::char_traits<char>, std::__ndk1::allocator<char> > const&)>)::{lambda()#1}::operator()() const::{lambda(geode::Task<geode::utils::web::WebResponse, geode::utils::web::WebProgress>::Event*)#1}, std::__ndk1::allocator<dashauth::SentDashAuthRequest::then(std::__ndk1::function<void (std::__ndk1::basic_string<char, std::__ndk1::char_traits<char>, std::__ndk1::allocator<char> > const&)>)::{lambda()#1}::operator()() const::{lambda(geode::Task<geode::utils::web::WebResponse, geode::utils::web::WebProgress>::Event*)#1}>, void (geode::Task<geode::utils::web::WebResponse, geode::utils::web::WebProgress>::Event*)>::__clone() const
FUNC 403fc 18 0 std::__ndk1::__function::__func<dashauth::SentDashAuthRequest::then(std::__ndk1::function<void (std::__ndk1::basic_string<char, std::__ndk1::char_traits<char>, std::__ndk1::allocator<char> > const&)>)::{lambda()#1}::operator()() const::{lambda(geode::Task<geode::utils::web::WebResponse, geode::utils::web::WebProgress>::Event*)#1}, std::__ndk1::allocator<dashauth::SentDashAuthRequest::then(std::__ndk1::function<void (std::__ndk1::basic_string<char, std::__ndk1::char_traits<char>, std::__ndk1::allocator<char> > const&)>)::{lambda()#1}::operator()() const::{lambda(geode::Task<geode::utils::web::WebResponse, geode::utils::web::WebProgress>::Event*)#1}>, void (geode::Task<geode::utils::web::WebResponse, geode::utils::web::WebProgress>::Event*)>::__clone(std::__ndk1::__function::__base<void (geode::Task<geode::utils::web::WebResponse, geode::utils::web::WebProgress>::Event*)>*) const
FUNC 40414 2 0 std::__ndk1::__function::__func<dashauth::SentDashAuthRequest::then(std::__ndk1::function<void (std::__ndk1::basic_string<char, std::__ndk1::char_traits<char>, std::__ndk1::allocator<char> > const&)>)::{lambda()#1}::operator()() const::{lambda(geode::Task<geode::utils::web::WebResponse, geode::utils::web::WebProgress>::Event*)#1}, std::__ndk1::allocator<dashauth::SentDashAuthRequest::then(std::__ndk1::function<void (std::__ndk1::basic_string<char, std::__ndk1::char_traits<char>, std::__ndk1::allocator<char> > const&)>)::{lambda()#1}::operator()() const::{lambda(geode::Task<geode::utils::web::WebResponse, geode::utils::web::WebProgress>::Event*)#1}>, void (geode::Task<geode::utils::web::WebResponse, geode::utils::web::WebProgress>::Event*)>::destroy()
FUNC 40416 4 0 std::__ndk1::__function::__func<dashauth::SentDashAuthRequest::then(std::__ndk1::function<void (std::__ndk1::basic_string<char, std::__ndk1::char_traits<char>, std::__ndk1::allocator<char> > const&)>)::{lambda()#1}::operator()() const::{lambda(geode::Task<geode::utils::web::WebResponse, geode::utils::web::WebProgress>::Event*)#1}, std::__ndk1::allocator<dashauth::SentDashAuthRequest::then(std::__ndk1::function<void (std::__ndk1::basic_string<char, std::__ndk1::char_traits<char>, std::__ndk1::allocator<char> > const&)>)::{lambda()#1}::operator()() const::{lambda(geode::Task<geode::utils::web::WebResponse, geode::utils::web::WebProgress>::Event*)#1}>, void (geode::Task<geode::utils::web::WebResponse, geode::utils::web::WebProgress>::Event*)>::destroy_deallocate()
FUNC 4041a 8 0 std::__ndk1::__function::__func<dashauth::SentDashAuthRequest::then(std::__ndk1::function<void (std::__ndk1::basic_string<char, std::__ndk1::char_traits<char>, std::__ndk1::allocator<char> > const&)>)::{lambda()#1}::operator()() const::{lambda(geode::Task<geode::utils::web::WebResponse, geode::utils::web::WebProgress>::Event*)#1}, std::__ndk1::allocator<dashauth::SentDashAuthRequest::then(std::__ndk1::function<void (std::__ndk1::basic_string<char, std::__ndk1::char_traits<char>, std::__ndk1::allocator<char> > const&)>)::{lambda()#1}::operator()() const::{lambda(geode::Task<geode::utils::web::WebResponse, geode::utils::web::WebProgress>::Event*)#1}>, void (geode::Task<geode::utils::web::WebResponse, geode::utils::web::WebProgress>::Event*)>::operator()(geode::Task<geode::utils::web::WebResponse, geode::utils::web::WebProgress>::Event*&&)
FUNC 40424 18 0 std::__ndk1::__function::__func<dashauth::SentDashAuthRequest::then(std::__ndk1::function<void (std::__ndk1::basic_string<char, std::__ndk1::char_traits<char>, std::__ndk1::allocator<char> > const&)>)::{lambda()#1}::operator()() const::{lambda(geode::Task<geode::utils::web::WebResponse, geode::utils::web::WebProgress>::Event*)#1}, std::__ndk1::allocator<dashauth::SentDashAuthRequest::then(std::__ndk1::function<void (std::__ndk1::basic_string<char, std::__ndk1::char_traits<char>, std::__ndk1::allocator<char> > const&)>)::{lambda()#1}::operator()() const::{lambda(geode::Task<geode::utils::web::WebResponse, geode::utils::web::WebProgress>::Event*)#1}>, void (geode::Task<geode::utils::web::WebResponse, geode::utils::web::WebProgress>::Event*)>::target(std::type_info const&) const
FUNC 4043c c 0 std::__ndk1::__function::__func<dashauth::SentDashAuthRequest::then(std::__ndk1::function<void (std::__ndk1::basic_string<char, std::__ndk1::char_traits<char>, std::__ndk1::allocator<char> > const&)>)::{lambda()#1}::operator()() const::{lambda(geode::Task<geode::utils::web::WebResponse, geode::utils::web::WebProgress>::Event*)#1}, std::__ndk1::allocator<dashauth::SentDashAuthRequest::then(std::__ndk1::function<void (std::__ndk1::basic_string<char, std::__ndk1::char_traits<char>, std::__ndk1::allocator<char> > const&)>)::{lambda()#1}::operator()() const::{lambda(geode::Task<geode::utils::web::WebResponse, geode::utils::web::WebProgress>::Event*)#1}>, void (geode::Task<geode::utils::web::WebResponse, geode::utils::web::WebProgress>::Event*)>::target_type() const
FUNC 40448 1c54 0 dashauth::SentDashAuthRequest::then(std::__ndk1::function<void (std::__ndk1::basic_string<char, std::__ndk1::char_traits<char>, std::__ndk1::allocator<char> > const&)>)::{lambda()#1}::operator()() const::{lambda(geode::Task<geode::utils::web::WebResponse, geode::utils::web::WebProgress>::Event*)#1}::operator()(geode::Task<geode::utils::web::WebResponse, geode::utils::web::WebProgress>::Event*) const
FUNC 4209c 84 0 geode::log::info<std::__ndk1::basic_string<char, std::__ndk1::char_traits<char>, std::__ndk1::allocator<char> >&>(fmt::v11::basic_format_string<char, fmt::v11::type_identity<std::__ndk1::conditional<IsWrappedCocos<std::__ndk1::basic_string<char, std::__ndk1::char_traits<char>, std::__ndk1::allocator<char> >&>, decltype ((wrapCocosObj<std::__ndk1::basic_string<char, std::__ndk1::char_traits<char>, std::__ndk1::allocator<char> >&>)((std::declval<std::__ndk1::basic_string<char, std::__ndk1::char_traits<char>, std::__ndk1::allocator<char> >&>)())), std::__ndk1::basic_string<char, std::__ndk1::char_traits<char>, std::__ndk1::allocator<char> >&>::type>::type>, std::__ndk1::basic_string<char, std::__ndk1::char_traits<char>, std::__ndk1::allocator<char> >&)
FUNC 42120 c0 0 std::__ndk1::basic_stringstream<char, std::__ndk1::char_traits<char>, std::__ndk1::allocator<char> >::basic_stringstream[abi:ne180000](std::__ndk1::basic_string<char, std::__ndk1::char_traits<char>, std::__ndk1::allocator<char> > const&, unsigned int)
FUNC 421e0 108 0 std::__ndk1::getline[abi:ne180000]<char, std::__ndk1::char_traits<char>, std::__ndk1::allocator<char> >(std::__ndk1::basic_istream<char, std::__ndk1::char_traits<char> >, std::__ndk1::basic_string<std::__ndk1::basic_istream, char, std::__ndk1::allocator<char> >&, std::__ndk1::basic_istream)
FUNC 422e8 68 0 geode::log::info<>(fmt::v11::basic_format_string<char, fmt::v11::type_identity<std::__ndk1::conditional<IsWrappedCocos<>, decltype ((wrapCocosObj<>)((std::declval<>)())), >::type>::type>, &&)
FUNC 42350 a4 0 fmt::v11::detail::value<fmt::v11::context>::format_custom_arg<std::__ndk1::optional<std::__ndk1::basic_string<char, std::__ndk1::char_traits<char>, std::__ndk1::allocator<char> > >, fmt::v11::formatter<std::__ndk1::optional<std::__ndk1::basic_string<char, std::__ndk1::char_traits<char>, std::__ndk1::allocator<char> > >, char, void> >(void*, fmt::v11::basic_format_parse_context<char>&, fmt::v11::context&)
FUNC 423f4 114 0 fmt::v11::formatter<std::__ndk1::optional<std::__ndk1::basic_string<char, std::__ndk1::char_traits<char>, std::__ndk1::allocator<char> > >, char, void>::format<fmt::v11::context>(std::__ndk1::optional<std::__ndk1::basic_string<char, std::__ndk1::char_traits<char>, std::__ndk1::allocator<char> > > const&, fmt::v11::context&) const
FUNC 42508 9a 0 fmt::v11::detail::copy_noinline<char, char const*, fmt::v11::basic_appender<char> >(char const*, char const*, fmt::v11::basic_appender<char>)
FUNC 425a2 2 0 std::__ndk1::__variant_detail::__visitation::__base::__dispatcher<(unsigned int)0>::__dispatch[abi:ne180000]<std::__ndk1::__variant_detail::__dtor<std::__ndk1::__variant_detail::__traits<bool, std::__ndk1::basic_string<char, std::__ndk1::char_traits<char>, std::__ndk1::allocator<char> > >, (std::__ndk1::__variant_detail::_Trait)1>::__destroy[abi:ne180000]()::{lambda(auto:1&)#1}, std::__ndk1::__variant_detail::__base<(std::__ndk1::__variant_detail::__traits<bool, std::__ndk1::basic_string<char, std::__ndk1::char_traits<char>, std::__ndk1::allocator<char> > >)1, bool, std::__ndk1::allocator<char> >&>(std::__ndk1::__variant_detail::__dtor<std::__ndk1::__variant_detail::__traits<bool, std::__ndk1::basic_string<char, std::__ndk1::char_traits<char>, std::__ndk1::allocator<char> > >, (std::__ndk1::__variant_detail::_Trait)1>, std::__ndk1::__variant_detail::__base<(std::__ndk1::__variant_detail::__traits<bool, std::__ndk1::basic_string<char, std::__ndk1::char_traits<char>, std::__ndk1::allocator<char> > >)1, bool, std::__ndk1::allocator<char> >&)
FUNC 425a4 e 0 std::__ndk1::__variant_detail::__visitation::__base::__dispatcher<(unsigned int)1>::__dispatch[abi:ne180000]<std::__ndk1::__variant_detail::__dtor<std::__ndk1::__variant_detail::__traits<bool, std::__ndk1::basic_string<char, std::__ndk1::char_traits<char>, std::__ndk1::allocator<char> > >, (std::__ndk1::__variant_detail::_Trait)1>::__destroy[abi:ne180000]()::{lambda(auto:1&)#1}, std::__ndk1::__variant_detail::__base<(std::__ndk1::__variant_detail::__traits<bool, std::__ndk1::basic_string<char, std::__ndk1::char_traits<char>, std::__ndk1::allocator<char> > >)1, bool, std::__ndk1::allocator<char> >&>(std::__ndk1::__variant_detail::__dtor<std::__ndk1::__variant_detail::__traits<bool, std::__ndk1::basic_string<char, std::__ndk1::char_traits<char>, std::__ndk1::allocator<char> > >, (std::__ndk1::__variant_detail::_Trait)1>, std::__ndk1::__variant_detail::__base<(std::__ndk1::__variant_detail::__traits<bool, std::__ndk1::basic_string<char, std::__ndk1::char_traits<char>, std::__ndk1::allocator<char> > >)1, bool, std::__ndk1::allocator<char> >&)
FUNC 425b2 2 0 std::__ndk1::__variant_detail::__visitation::__base::__dispatcher<(unsigned int)0>::__dispatch[abi:ne180000]<std::__ndk1::__variant_detail::__dtor<std::__ndk1::__variant_detail::__traits<long long, std::__ndk1::basic_string<char, std::__ndk1::char_traits<char>, std::__ndk1::allocator<char> > >, (std::__ndk1::__variant_detail::_Trait)1>::__destroy[abi:ne180000]()::{lambda(auto:1&)#1}, std::__ndk1::__variant_detail::__base<(std::__ndk1::__variant_detail::__traits<long long, std::__ndk1::basic_string<char, std::__ndk1::char_traits<char>, std::__ndk1::allocator<char> > >)1, long long, std::__ndk1::allocator<char> >&>(std::__ndk1::__variant_detail::__dtor<std::__ndk1::__variant_detail::__traits<long long, std::__ndk1::basic_string<char, std::__ndk1::char_traits<char>, std::__ndk1::allocator<char> > >, (std::__ndk1::__variant_detail::_Trait)1>, std::__ndk1::__variant_detail::__base<(std::__ndk1::__variant_detail::__traits<long long, std::__ndk1::basic_string<char, std::__ndk1::char_traits<char>, std::__ndk1::allocator<char> > >)1, long long, std::__ndk1::allocator<char> >&)
FUNC 425b4 e 0 std::__ndk1::__variant_detail::__visitation::__base::__dispatcher<(unsigned int)1>::__dispatch[abi:ne180000]<std::__ndk1::__variant_detail::__dtor<std::__ndk1::__variant_detail::__traits<long long, std::__ndk1::basic_string<char, std::__ndk1::char_traits<char>, std::__ndk1::allocator<char> > >, (std::__ndk1::__variant_detail::_Trait)1>::__destroy[abi:ne180000]()::{lambda(auto:1&)#1}, std::__ndk1::__variant_detail::__base<(std::__ndk1::__variant_detail::__traits<long long, std::__ndk1::basic_string<char, std::__ndk1::char_traits<char>, std::__ndk1::allocator<char> > >)1, long long, std::__ndk1::allocator<char> >&>(std::__ndk1::__variant_detail::__dtor<std::__ndk1::__variant_detail::__traits<long long, std::__ndk1::basic_string<char, std::__ndk1::char_traits<char>, std::__ndk1::allocator<char> > >, (std::__ndk1::__variant_detail::_Trait)1>, std::__ndk1::__variant_detail::__base<(std::__ndk1::__variant_detail::__traits<long long, std::__ndk1::basic_string<char, std::__ndk1::char_traits<char>, std::__ndk1::allocator<char> > >)1, long long, std::__ndk1::allocator<char> >&)
FUNC 425c4 78 0 std::__ndk1::basic_stringbuf<char, std::__ndk1::char_traits<char>, std::__ndk1::allocator<char> >::basic_stringbuf[abi:ne180000](std::__ndk1::basic_string<char, std::__ndk1::char_traits<char>, std::__ndk1::allocator<char> > const&, unsigned int)
FUNC 4263c c8 0 std::__ndk1::__tree<std::__ndk1::__value_type<std::__ndk1::basic_string<char, std::__ndk1::char_traits<char>, std::__ndk1::allocator<char> >, std::__ndk1::basic_string<char, std::__ndk1::char_traits<char>, std::__ndk1::allocator<char> > >, std::__ndk1::__map_value_compare<std::__ndk1::basic_string<char, std::__ndk1::char_traits<char>, std::__ndk1::allocator<char> >, std::__ndk1::__value_type<std::__ndk1::basic_string<char, std::__ndk1::char_traits<char>, std::__ndk1::allocator<char> >, std::__ndk1::basic_string<char, std::__ndk1::char_traits<char>, std::__ndk1::allocator<char> > >, std::__ndk1::less<std::__ndk1::basic_string<char, std::__ndk1::char_traits<char>, std::__ndk1::allocator<char> > >, true>, std::__ndk1::allocator<std::__ndk1::__value_type<std::__ndk1::basic_string<char, std::__ndk1::char_traits<char>, std::__ndk1::allocator<char> >, std::__ndk1::basic_string<char, std::__ndk1::char_traits<char>, std::__ndk1::allocator<char> > > > >::__emplace_unique_key_args<std::__ndk1::basic_string<char, std::__ndk1::char_traits<char>, std::__ndk1::allocator<char> >, std::__ndk1::piecewise_construct_t const&, std::__ndk1::tuple<std::__ndk1::basic_string<char, std::__ndk1::char_traits<char>, std::__ndk1::allocator<char> > const&>, std::__ndk1::tuple<> >(std::__ndk1::basic_string<char, std::__ndk1::char_traits<char>, std::__ndk1::allocator<char> > const&, std::__ndk1::piecewise_construct_t const&, std::__ndk1::tuple<std::__ndk1::basic_string<char, std::__ndk1::char_traits<char>, std::__ndk1::allocator<char> > const&>, std::__ndk1::tuple<>)
FUNC 42704 ba 0 std::__ndk1::__tree<std::__ndk1::__value_type<std::__ndk1::basic_string<char, std::__ndk1::char_traits<char>, std::__ndk1::allocator<char> >, std::__ndk1::basic_string<char, std::__ndk1::char_traits<char>, std::__ndk1::allocator<char> > >, std::__ndk1::__map_value_compare<std::__ndk1::basic_string<char, std::__ndk1::char_traits<char>, std::__ndk1::allocator<char> >, std::__ndk1::__value_type<std::__ndk1::basic_string<char, std::__ndk1::char_traits<char>, std::__ndk1::allocator<char> >, std::__ndk1::basic_string<char, std::__ndk1::char_traits<char>, std::__ndk1::allocator<char> > >, std::__ndk1::less<std::__ndk1::basic_string<char, std::__ndk1::char_traits<char>, std::__ndk1::allocator<char> > >, true>, std::__ndk1::allocator<std::__ndk1::__value_type<std::__ndk1::basic_string<char, std::__ndk1::char_traits<char>, std::__ndk1::allocator<char> >, std::__ndk1::basic_string<char, std::__ndk1::char_traits<char>, std::__ndk1::allocator<char> > > > >::__find_equal<std::__ndk1::basic_string<char, std::__ndk1::char_traits<char>, std::__ndk1::allocator<char> > >(std::__ndk1::__tree_end_node<std::__ndk1::__tree_node_base<void*>*>*&, std::__ndk1::basic_string<char, std::__ndk1::char_traits<char>, std::__ndk1::allocator<char> > const&)
FUNC 427be 34 0 std::__ndk1::unique_ptr<std::__ndk1::__tree_node<std::__ndk1::__value_type<std::__ndk1::basic_string<char, std::__ndk1::char_traits<char>, std::__ndk1::allocator<char> >, std::__ndk1::basic_string<char, std::__ndk1::char_traits<char>, std::__ndk1::allocator<char> > >, void*>, std::__ndk1::__tree_node_destructor<std::__ndk1::allocator<std::__ndk1::__tree_node<std::__ndk1::__value_type<std::__ndk1::basic_string<char, std::__ndk1::char_traits<char>, std::__ndk1::allocator<char> >, std::__ndk1::basic_string<char, std::__ndk1::char_traits<char>, std::__ndk1::allocator<char> > >, void*> > > >::~unique_ptr[abi:ne180000]()
FUNC 427f4 10 0 std::__ndk1::vector<std::__ndk1::basic_string<char, std::__ndk1::char_traits<char>, std::__ndk1::allocator<char> >, std::__ndk1::allocator<std::__ndk1::basic_string<char, std::__ndk1::char_traits<char>, std::__ndk1::allocator<char> > > >::__throw_out_of_range[abi:ne180000]() const
FUNC 42804 38 0 std::__ndk1::__throw_out_of_range[abi:ne180000](char const*)
FUNC 4283c 18 0 std::out_of_range::out_of_range[abi:ne180000](char const*)
FUNC 42854 3e 0 std::__ndk1::__tree<std::__ndk1::__value_type<std::__ndk1::basic_string<char, std::__ndk1::char_traits<char>, std::__ndk1::allocator<char> >, std::__ndk1::basic_string<char, std::__ndk1::char_traits<char>, std::__ndk1::allocator<char> > >, std::__ndk1::__map_value_compare<std::__ndk1::basic_string<char, std::__ndk1::char_traits<char>, std::__ndk1::allocator<char> >, std::__ndk1::__value_type<std::__ndk1::basic_string<char, std::__ndk1::char_traits<char>, std::__ndk1::allocator<char> >, std::__ndk1::basic_string<char, std::__ndk1::char_traits<char>, std::__ndk1::allocator<char> > >, std::__ndk1::less<std::__ndk1::basic_string<char, std::__ndk1::char_traits<char>, std::__ndk1::allocator<char> > >, true>, std::__ndk1::allocator<std::__ndk1::__value_type<std::__ndk1::basic_string<char, std::__ndk1::char_traits<char>, std::__ndk1::allocator<char> >, std::__ndk1::basic_string<char, std::__ndk1::char_traits<char>, std::__ndk1::allocator<char> > > > >::destroy(std::__ndk1::__tree_node<std::__ndk1::__value_type<std::__ndk1::basic_string<char, std::__ndk1::char_traits<char>, std::__ndk1::allocator<char> >, std::__ndk1::basic_string<char, std::__ndk1::char_traits<char>, std::__ndk1::allocator<char> > >, void*>*)
FUNC 42892 4 0 std::__ndk1::__function::__func<CustomObjects::onWorkshop(cocos2d::CCObject*)::$_0::operator()(int) const::{lambda(std::__ndk1::basic_string<char, std::__ndk1::char_traits<char>, std::__ndk1::allocator<char> > const&)#1}, std::__ndk1::allocator<CustomObjects::onWorkshop(cocos2d::CCObject*)::$_0::operator()(int) const::{lambda(std::__ndk1::basic_string<char, std::__ndk1::char_traits<char>, std::__ndk1::allocator<char> > const&)#1}>, void (std::__ndk1::basic_string<char, std::__ndk1::char_traits<char>, std::__ndk1::allocator<char> > const&)>::~__func()
FUNC 42898 20 0 std::__ndk1::__function::__func<CustomObjects::onWorkshop(cocos2d::CCObject*)::$_0::operator()(int) const::{lambda(std::__ndk1::basic_string<char, std::__ndk1::char_traits<char>, std::__ndk1::allocator<char> > const&)#1}, std::__ndk1::allocator<CustomObjects::onWorkshop(cocos2d::CCObject*)::$_0::operator()(int) const::{lambda(std::__ndk1::basic_string<char, std::__ndk1::char_traits<char>, std::__ndk1::allocator<char> > const&)#1}>, void (std::__ndk1::basic_string<char, std::__ndk1::char_traits<char>, std::__ndk1::allocator<char> > const&)>::__clone() const
FUNC 428b8 14 0 std::__ndk1::__function::__func<CustomObjects::onWorkshop(cocos2d::CCObject*)::$_0::operator()(int) const::{lambda(std::__ndk1::basic_string<char, std::__ndk1::char_traits<char>, std::__ndk1::allocator<char> > const&)#1}, std::__ndk1::allocator<CustomObjects::onWorkshop(cocos2d::CCObject*)::$_0::operator()(int) const::{lambda(std::__ndk1::basic_string<char, std::__ndk1::char_traits<char>, std::__ndk1::allocator<char> > const&)#1}>, void (std::__ndk1::basic_string<char, std::__ndk1::char_traits<char>, std::__ndk1::allocator<char> > const&)>::__clone(std::__ndk1::__function::__base<void (std::__ndk1::basic_string<char, std::__ndk1::char_traits<char>, std::__ndk1::allocator<char> > const&)>*) const
FUNC 428cc 2 0 std::__ndk1::__function::__func<CustomObjects::onWorkshop(cocos2d::CCObject*)::$_0::operator()(int) const::{lambda(std::__ndk1::basic_string<char, std::__ndk1::char_traits<char>, std::__ndk1::allocator<char> > const&)#1}, std::__ndk1::allocator<CustomObjects::onWorkshop(cocos2d::CCObject*)::$_0::operator()(int) const::{lambda(std::__ndk1::basic_string<char, std::__ndk1::char_traits<char>, std::__ndk1::allocator<char> > const&)#1}>, void (std::__ndk1::basic_string<char, std::__ndk1::char_traits<char>, std::__ndk1::allocator<char> > const&)>::destroy()
FUNC 428ce 4 0 std::__ndk1::__function::__func<CustomObjects::onWorkshop(cocos2d::CCObject*)::$_0::operator()(int) const::{lambda(std::__ndk1::basic_string<char, std::__ndk1::char_traits<char>, std::__ndk1::allocator<char> > const&)#1}, std::__ndk1::allocator<CustomObjects::onWorkshop(cocos2d::CCObject*)::$_0::operator()(int) const::{lambda(std::__ndk1::basic_string<char, std::__ndk1::char_traits<char>, std::__ndk1::allocator<char> > const&)#1}>, void (std::__ndk1::basic_string<char, std::__ndk1::char_traits<char>, std::__ndk1::allocator<char> > const&)>::destroy_deallocate()
FUNC 428d4 c4 0 std::__ndk1::__function::__func<CustomObjects::onWorkshop(cocos2d::CCObject*)::$_0::operator()(int) const::{lambda(std::__ndk1::basic_string<char, std::__ndk1::char_traits<char>, std::__ndk1::allocator<char> > const&)#1}, std::__ndk1::allocator<CustomObjects::onWorkshop(cocos2d::CCObject*)::$_0::operator()(int) const::{lambda(std::__ndk1::basic_string<char, std::__ndk1::char_traits<char>, std::__ndk1::allocator<char> > const&)#1}>, void (std::__ndk1::basic_string<char, std::__ndk1::char_traits<char>, std::__ndk1::allocator<char> > const&)>::operator()(std::__ndk1::basic_string<char, std::__ndk1::char_traits<char>, std::__ndk1::allocator<char> > const&)
FUNC 42998 18 0 std::__ndk1::__function::__func<CustomObjects::onWorkshop(cocos2d::CCObject*)::$_0::operator()(int) const::{lambda(std::__ndk1::basic_string<char, std::__ndk1::char_traits<char>, std::__ndk1::allocator<char> > const&)#1}, std::__ndk1::allocator<CustomObjects::onWorkshop(cocos2d::CCObject*)::$_0::operator()(int) const::{lambda(std::__ndk1::basic_string<char, std::__ndk1::char_traits<char>, std::__ndk1::allocator<char> > const&)#1}>, void (std::__ndk1::basic_string<char, std::__ndk1::char_traits<char>, std::__ndk1::allocator<char> > const&)>::target(std::type_info const&) const
FUNC 429b0 c 0 std::__ndk1::__function::__func<CustomObjects::onWorkshop(cocos2d::CCObject*)::$_0::operator()(int) const::{lambda(std::__ndk1::basic_string<char, std::__ndk1::char_traits<char>, std::__ndk1::allocator<char> > const&)#1}, std::__ndk1::allocator<CustomObjects::onWorkshop(cocos2d::CCObject*)::$_0::operator()(int) const::{lambda(std::__ndk1::basic_string<char, std::__ndk1::char_traits<char>, std::__ndk1::allocator<char> > const&)#1}>, void (std::__ndk1::basic_string<char, std::__ndk1::char_traits<char>, std::__ndk1::allocator<char> > const&)>::target_type() const
FUNC 429bc 4 0 std::__ndk1::__function::__func<CustomObjects::onWorkshop(cocos2d::CCObject*)::$_0::operator()(int) const::{lambda(std::__ndk1::basic_string<char, std::__ndk1::char_traits<char>, std::__ndk1::allocator<char> > const&)#1}::operator()(std::__ndk1::basic_string<char, std::__ndk1::char_traits<char>, std::__ndk1::allocator<char> > const&) const::{lambda(int)#1}, std::__ndk1::allocator<CustomObjects::onWorkshop(cocos2d::CCObject*)::$_0::operator()(int) const::{lambda(std::__ndk1::basic_string<char, std::__ndk1::char_traits<char>, std::__ndk1::allocator<char> > const&)#1}::operator()(std::__ndk1::basic_string<char, std::__ndk1::char_traits<char>, std::__ndk1::allocator<char> > const&) const::{lambda(int)#1}>, void (int)>::~__func()
FUNC 429c0 20 0 std::__ndk1::__function::__func<CustomObjects::onWorkshop(cocos2d::CCObject*)::$_0::operator()(int) const::{lambda(std::__ndk1::basic_string<char, std::__ndk1::char_traits<char>, std::__ndk1::allocator<char> > const&)#1}::operator()(std::__ndk1::basic_string<char, std::__ndk1::char_traits<char>, std::__ndk1::allocator<char> > const&) const::{lambda(int)#1}, std::__ndk1::allocator<CustomObjects::onWorkshop(cocos2d::CCObject*)::$_0::operator()(int) const::{lambda(std::__ndk1::basic_string<char, std::__ndk1::char_traits<char>, std::__ndk1::allocator<char> > const&)#1}::operator()(std::__ndk1::basic_string<char, std::__ndk1::char_traits<char>, std::__ndk1::allocator<char> > const&) const::{lambda(int)#1}>, void (int)>::__clone() const
FUNC 429e0 14 0 std::__ndk1::__function::__func<CustomObjects::onWorkshop(cocos2d::CCObject*)::$_0::operator()(int) const::{lambda(std::__ndk1::basic_string<char, std::__ndk1::char_traits<char>, std::__ndk1::allocator<char> > const&)#1}::operator()(std::__ndk1::basic_string<char, std::__ndk1::char_traits<char>, std::__ndk1::allocator<char> > const&) const::{lambda(int)#1}, std::__ndk1::allocator<CustomObjects::onWorkshop(cocos2d::CCObject*)::$_0::operator()(int) const::{lambda(std::__ndk1::basic_string<char, std::__ndk1::char_traits<char>, std::__ndk1::allocator<char> > const&)#1}::operator()(std::__ndk1::basic_string<char, std::__ndk1::char_traits<char>, std::__ndk1::allocator<char> > const&) const::{lambda(int)#1}>, void (int)>::__clone(std::__ndk1::__function::__base<void (int)>*) const
FUNC 429f4 2 0 std::__ndk1::__function::__func<CustomObjects::onWorkshop(cocos2d::CCObject*)::$_0::operator()(int) const::{lambda(std::__ndk1::basic_string<char, std::__ndk1::char_traits<char>, std::__ndk1::allocator<char> > const&)#1}::operator()(std::__ndk1::basic_string<char, std::__ndk1::char_traits<char>, std::__ndk1::allocator<char> > const&) const::{lambda(int)#1}, std::__ndk1::allocator<CustomObjects::onWorkshop(cocos2d::CCObject*)::$_0::operator()(int) const::{lambda(std::__ndk1::basic_string<char, std::__ndk1::char_traits<char>, std::__ndk1::allocator<char> > const&)#1}::operator()(std::__ndk1::basic_string<char, std::__ndk1::char_traits<char>, std::__ndk1::allocator<char> > const&) const::{lambda(int)#1}>, void (int)>::destroy()
FUNC 429f6 4 0 std::__ndk1::__function::__func<CustomObjects::onWorkshop(cocos2d::CCObject*)::$_0::operator()(int) const::{lambda(std::__ndk1::basic_string<char, std::__ndk1::char_traits<char>, std::__ndk1::allocator<char> > const&)#1}::operator()(std::__ndk1::basic_string<char, std::__ndk1::char_traits<char>, std::__ndk1::allocator<char> > const&) const::{lambda(int)#1}, std::__ndk1::allocator<CustomObjects::onWorkshop(cocos2d::CCObject*)::$_0::operator()(int) const::{lambda(std::__ndk1::basic_string<char, std::__ndk1::char_traits<char>, std::__ndk1::allocator<char> > const&)#1}::operator()(std::__ndk1::basic_string<char, std::__ndk1::char_traits<char>, std::__ndk1::allocator<char> > const&) const::{lambda(int)#1}>, void (int)>::destroy_deallocate()
FUNC 429fc 124 0 std::__ndk1::__function::__func<CustomObjects::onWorkshop(cocos2d::CCObject*)::$_0::operator()(int) const::{lambda(std::__ndk1::basic_string<char, std::__ndk1::char_traits<char>, std::__ndk1::allocator<char> > const&)#1}::operator()(std::__ndk1::basic_string<char, std::__ndk1::char_traits<char>, std::__ndk1::allocator<char> > const&) const::{lambda(int)#1}, std::__ndk1::allocator<CustomObjects::onWorkshop(cocos2d::CCObject*)::$_0::operator()(int) const::{lambda(std::__ndk1::basic_string<char, std::__ndk1::char_traits<char>, std::__ndk1::allocator<char> > const&)#1}::operator()(std::__ndk1::basic_string<char, std::__ndk1::char_traits<char>, std::__ndk1::allocator<char> > const&) const::{lambda(int)#1}>, void (int)>::operator()(int&&)
FUNC 42b20 18 0 std::__ndk1::__function::__func<CustomObjects::onWorkshop(cocos2d::CCObject*)::$_0::operator()(int) const::{lambda(std::__ndk1::basic_string<char, std::__ndk1::char_traits<char>, std::__ndk1::allocator<char> > const&)#1}::operator()(std::__ndk1::basic_string<char, std::__ndk1::char_traits<char>, std::__ndk1::allocator<char> > const&) const::{lambda(int)#1}, std::__ndk1::allocator<CustomObjects::onWorkshop(cocos2d::CCObject*)::$_0::operator()(int) const::{lambda(std::__ndk1::basic_string<char, std::__ndk1::char_traits<char>, std::__ndk1::allocator<char> > const&)#1}::operator()(std::__ndk1::basic_string<char, std::__ndk1::char_traits<char>, std::__ndk1::allocator<char> > const&) const::{lambda(int)#1}>, void (int)>::target(std::type_info const&) const
FUNC 42b38 c 0 std::__ndk1::__function::__func<CustomObjects::onWorkshop(cocos2d::CCObject*)::$_0::operator()(int) const::{lambda(std::__ndk1::basic_string<char, std::__ndk1::char_traits<char>, std::__ndk1::allocator<char> > const&)#1}::operator()(std::__ndk1::basic_string<char, std::__ndk1::char_traits<char>, std::__ndk1::allocator<char> > const&) const::{lambda(int)#1}, std::__ndk1::allocator<CustomObjects::onWorkshop(cocos2d::CCObject*)::$_0::operator()(int) const::{lambda(std::__ndk1::basic_string<char, std::__ndk1::char_traits<char>, std::__ndk1::allocator<char> > const&)#1}::operator()(std::__ndk1::basic_string<char, std::__ndk1::char_traits<char>, std::__ndk1::allocator<char> > const&) const::{lambda(int)#1}>, void (int)>::target_type() const
FUNC 42b44 c0 0 authentication::AuthenticationManager::AuthenticationManager()
FUNC 42c04 4 0 std::__ndk1::__function::__func<CustomObjects::onWorkshop(cocos2d::CCObject*)::$_0::operator()(int) const::{lambda(std::__ndk1::basic_string<char, std::__ndk1::char_traits<char>, std::__ndk1::allocator<char> >)#2}, std::__ndk1::allocator<CustomObjects::onWorkshop(cocos2d::CCObject*)::$_0::operator()(int) const::{lambda(std::__ndk1::basic_string<char, std::__ndk1::char_traits<char>, std::__ndk1::allocator<char> >)#2}>, void (std::__ndk1::basic_string<char, std::__ndk1::char_traits<char>, std::__ndk1::allocator<char> >)>::~__func()
FUNC 42c08 20 0 std::__ndk1::__function::__func<CustomObjects::onWorkshop(cocos2d::CCObject*)::$_0::operator()(int) const::{lambda(std::__ndk1::basic_string<char, std::__ndk1::char_traits<char>, std::__ndk1::allocator<char> >)#2}, std::__ndk1::allocator<CustomObjects::onWorkshop(cocos2d::CCObject*)::$_0::operator()(int) const::{lambda(std::__ndk1::basic_string<char, std::__ndk1::char_traits<char>, std::__ndk1::allocator<char> >)#2}>, void (std::__ndk1::basic_string<char, std::__ndk1::char_traits<char>, std::__ndk1::allocator<char> >)>::__clone() const
FUNC 42c28 14 0 std::__ndk1::__function::__func<CustomObjects::onWorkshop(cocos2d::CCObject*)::$_0::operator()(int) const::{lambda(std::__ndk1::basic_string<char, std::__ndk1::char_traits<char>, std::__ndk1::allocator<char> >)#2}, std::__ndk1::allocator<CustomObjects::onWorkshop(cocos2d::CCObject*)::$_0::operator()(int) const::{lambda(std::__ndk1::basic_string<char, std::__ndk1::char_traits<char>, std::__ndk1::allocator<char> >)#2}>, void (std::__ndk1::basic_string<char, std::__ndk1::char_traits<char>, std::__ndk1::allocator<char> >)>::__clone(std::__ndk1::__function::__base<void (std::__ndk1::basic_string<char, std::__ndk1::char_traits<char>, std::__ndk1::allocator<char> >)>*) const
FUNC 42c3c 2 0 std::__ndk1::__function::__func<CustomObjects::onWorkshop(cocos2d::CCObject*)::$_0::operator()(int) const::{lambda(std::__ndk1::basic_string<char, std::__ndk1::char_traits<char>, std::__ndk1::allocator<char> >)#2}, std::__ndk1::allocator<CustomObjects::onWorkshop(cocos2d::CCObject*)::$_0::operator()(int) const::{lambda(std::__ndk1::basic_string<char, std::__ndk1::char_traits<char>, std::__ndk1::allocator<char> >)#2}>, void (std::__ndk1::basic_string<char, std::__ndk1::char_traits<char>, std::__ndk1::allocator<char> >)>::destroy()
FUNC 42c3e 4 0 std::__ndk1::__function::__func<CustomObjects::onWorkshop(cocos2d::CCObject*)::$_0::operator()(int) const::{lambda(std::__ndk1::basic_string<char, std::__ndk1::char_traits<char>, std::__ndk1::allocator<char> >)#2}, std::__ndk1::allocator<CustomObjects::onWorkshop(cocos2d::CCObject*)::$_0::operator()(int) const::{lambda(std::__ndk1::basic_string<char, std::__ndk1::char_traits<char>, std::__ndk1::allocator<char> >)#2}>, void (std::__ndk1::basic_string<char, std::__ndk1::char_traits<char>, std::__ndk1::allocator<char> >)>::destroy_deallocate()
FUNC 42c44 104 0 std::__ndk1::__function::__func<CustomObjects::onWorkshop(cocos2d::CCObject*)::$_0::operator()(int) const::{lambda(std::__ndk1::basic_string<char, std::__ndk1::char_traits<char>, std::__ndk1::allocator<char> >)#2}, std::__ndk1::allocator<CustomObjects::onWorkshop(cocos2d::CCObject*)::$_0::operator()(int) const::{lambda(std::__ndk1::basic_string<char, std::__ndk1::char_traits<char>, std::__ndk1::allocator<char> >)#2}>, void (std::__ndk1::basic_string<char, std::__ndk1::char_traits<char>, std::__ndk1::allocator<char> >)>::operator()(std::__ndk1::basic_string<char, std::__ndk1::char_traits<char>, std::__ndk1::allocator<char> >&&)
FUNC 42d48 18 0 std::__ndk1::__function::__func<CustomObjects::onWorkshop(cocos2d::CCObject*)::$_0::operator()(int) const::{lambda(std::__ndk1::basic_string<char, std::__ndk1::char_traits<char>, std::__ndk1::allocator<char> >)#2}, std::__ndk1::allocator<CustomObjects::onWorkshop(cocos2d::CCObject*)::$_0::operator()(int) const::{lambda(std::__ndk1::basic_string<char, std::__ndk1::char_traits<char>, std::__ndk1::allocator<char> >)#2}>, void (std::__ndk1::basic_string<char, std::__ndk1::char_traits<char>, std::__ndk1::allocator<char> >)>::target(std::type_info const&) const
FUNC 42d60 c 0 std::__ndk1::__function::__func<CustomObjects::onWorkshop(cocos2d::CCObject*)::$_0::operator()(int) const::{lambda(std::__ndk1::basic_string<char, std::__ndk1::char_traits<char>, std::__ndk1::allocator<char> >)#2}, std::__ndk1::allocator<CustomObjects::onWorkshop(cocos2d::CCObject*)::$_0::operator()(int) const::{lambda(std::__ndk1::basic_string<char, std::__ndk1::char_traits<char>, std::__ndk1::allocator<char> >)#2}>, void (std::__ndk1::basic_string<char, std::__ndk1::char_traits<char>, std::__ndk1::allocator<char> >)>::target_type() const
FUNC 42d6c 4 0 std::__ndk1::__function::__func<CustomObjects::onWorkshop(cocos2d::CCObject*)::$_0::operator()(int) const::{lambda(std::__ndk1::basic_string<char, std::__ndk1::char_traits<char>, std::__ndk1::allocator<char> >(std::__ndk1::basic_string<char, std::__ndk1::char_traits<char>, std::__ndk1::allocator<char> >))#2}::operator() const::{lambda(int)#1}, std::__ndk1::allocator<CustomObjects::onWorkshop(cocos2d::CCObject*)::$_0::operator()(int) const::{lambda(std::__ndk1::basic_string<char, std::__ndk1::char_traits<char>, std::__ndk1::allocator<char> >(std::__ndk1::basic_string<char, std::__ndk1::char_traits<char>, std::__ndk1::allocator<char> >))#2}::operator() const::{lambda(int)#1}>, void (int)>::~__func()
FUNC 42d70 20 0 std::__ndk1::__function::__func<CustomObjects::onWorkshop(cocos2d::CCObject*)::$_0::operator()(int) const::{lambda(std::__ndk1::basic_string<char, std::__ndk1::char_traits<char>, std::__ndk1::allocator<char> >(std::__ndk1::basic_string<char, std::__ndk1::char_traits<char>, std::__ndk1::allocator<char> >))#2}::operator() const::{lambda(int)#1}, std::__ndk1::allocator<CustomObjects::onWorkshop(cocos2d::CCObject*)::$_0::operator()(int) const::{lambda(std::__ndk1::basic_string<char, std::__ndk1::char_traits<char>, std::__ndk1::allocator<char> >(std::__ndk1::basic_string<char, std::__ndk1::char_traits<char>, std::__ndk1::allocator<char> >))#2}::operator() const::{lambda(int)#1}>, void (int)>::__clone() const
FUNC 42d90 14 0 std::__ndk1::__function::__func<CustomObjects::onWorkshop(cocos2d::CCObject*)::$_0::operator()(int) const::{lambda(std::__ndk1::basic_string<char, std::__ndk1::char_traits<char>, std::__ndk1::allocator<char> >(std::__ndk1::basic_string<char, std::__ndk1::char_traits<char>, std::__ndk1::allocator<char> >))#2}::operator() const::{lambda(int)#1}, std::__ndk1::allocator<CustomObjects::onWorkshop(cocos2d::CCObject*)::$_0::operator()(int) const::{lambda(std::__ndk1::basic_string<char, std::__ndk1::char_traits<char>, std::__ndk1::allocator<char> >(std::__ndk1::basic_string<char, std::__ndk1::char_traits<char>, std::__ndk1::allocator<char> >))#2}::operator() const::{lambda(int)#1}>, void (int)>::__clone(std::__ndk1::__function::__base<void (int)>*) const
FUNC 42da4 2 0 std::__ndk1::__function::__func<CustomObjects::onWorkshop(cocos2d::CCObject*)::$_0::operator()(int) const::{lambda(std::__ndk1::basic_string<char, std::__ndk1::char_traits<char>, std::__ndk1::allocator<char> >(std::__ndk1::basic_string<char, std::__ndk1::char_traits<char>, std::__ndk1::allocator<char> >))#2}::operator() const::{lambda(int)#1}, std::__ndk1::allocator<CustomObjects::onWorkshop(cocos2d::CCObject*)::$_0::operator()(int) const::{lambda(std::__ndk1::basic_string<char, std::__ndk1::char_traits<char>, std::__ndk1::allocator<char> >(std::__ndk1::basic_string<char, std::__ndk1::char_traits<char>, std::__ndk1::allocator<char> >))#2}::operator() const::{lambda(int)#1}>, void (int)>::destroy()
FUNC 42da6 4 0 std::__ndk1::__function::__func<CustomObjects::onWorkshop(cocos2d::CCObject*)::$_0::operator()(int) const::{lambda(std::__ndk1::basic_string<char, std::__ndk1::char_traits<char>, std::__ndk1::allocator<char> >(std::__ndk1::basic_string<char, std::__ndk1::char_traits<char>, std::__ndk1::allocator<char> >))#2}::operator() const::{lambda(int)#1}, std::__ndk1::allocator<CustomObjects::onWorkshop(cocos2d::CCObject*)::$_0::operator()(int) const::{lambda(std::__ndk1::basic_string<char, std::__ndk1::char_traits<char>, std::__ndk1::allocator<char> >(std::__ndk1::basic_string<char, std::__ndk1::char_traits<char>, std::__ndk1::allocator<char> >))#2}::operator() const::{lambda(int)#1}>, void (int)>::destroy_deallocate()
FUNC 42dac 124 0 std::__ndk1::__function::__func<CustomObjects::onWorkshop(cocos2d::CCObject*)::$_0::operator()(int) const::{lambda(std::__ndk1::basic_string<char, std::__ndk1::char_traits<char>, std::__ndk1::allocator<char> >(std::__ndk1::basic_string<char, std::__ndk1::char_traits<char>, std::__ndk1::allocator<char> >))#2}::operator() const::{lambda(int)#1}, std::__ndk1::allocator<CustomObjects::onWorkshop(cocos2d::CCObject*)::$_0::operator()(int) const::{lambda(std::__ndk1::basic_string<char, std::__ndk1::char_traits<char>, std::__ndk1::allocator<char> >(std::__ndk1::basic_string<char, std::__ndk1::char_traits<char>, std::__ndk1::allocator<char> >))#2}::operator() const::{lambda(int)#1}>, void (int)>::operator()(int&&)
FUNC 42ed0 18 0 std::__ndk1::__function::__func<CustomObjects::onWorkshop(cocos2d::CCObject*)::$_0::operator()(int) const::{lambda(std::__ndk1::basic_string<char, std::__ndk1::char_traits<char>, std::__ndk1::allocator<char> >(std::__ndk1::basic_string<char, std::__ndk1::char_traits<char>, std::__ndk1::allocator<char> >))#2}::operator() const::{lambda(int)#1}, std::__ndk1::allocator<CustomObjects::onWorkshop(cocos2d::CCObject*)::$_0::operator()(int) const::{lambda(std::__ndk1::basic_string<char, std::__ndk1::char_traits<char>, std::__ndk1::allocator<char> >(std::__ndk1::basic_string<char, std::__ndk1::char_traits<char>, std::__ndk1::allocator<char> >))#2}::operator() const::{lambda(int)#1}>, void (int)>::target(std::type_info const&) const
FUNC 42ee8 c 0 std::__ndk1::__function::__func<CustomObjects::onWorkshop(cocos2d::CCObject*)::$_0::operator()(int) const::{lambda(std::__ndk1::basic_string<char, std::__ndk1::char_traits<char>, std::__ndk1::allocator<char> >(std::__ndk1::basic_string<char, std::__ndk1::char_traits<char>, std::__ndk1::allocator<char> >))#2}::operator() const::{lambda(int)#1}, std::__ndk1::allocator<CustomObjects::onWorkshop(cocos2d::CCObject*)::$_0::operator()(int) const::{lambda(std::__ndk1::basic_string<char, std::__ndk1::char_traits<char>, std::__ndk1::allocator<char> >(std::__ndk1::basic_string<char, std::__ndk1::char_traits<char>, std::__ndk1::allocator<char> >))#2}::operator() const::{lambda(int)#1}>, void (int)>::target_type() const
FUNC 42ef4 4 0 std::__ndk1::__function::__func<authentication::AuthenticationManager::getAuthenticationToken(std::__ndk1::function<void (std::__ndk1::basic_string<char, std::__ndk1::char_traits<char>, std::__ndk1::allocator<char> >)>, std::__ndk1::function<void (std::__ndk1::basic_string<char, std::__ndk1::char_traits<char>, std::__ndk1::allocator<char> >)>), std::__ndk1::allocator<authentication::AuthenticationManager::getAuthenticationToken(std::__ndk1::function<void (std::__ndk1::basic_string<char, std::__ndk1::char_traits<char>, std::__ndk1::allocator<char> >)>, std::__ndk1::function<void (std::__ndk1::basic_string<char, std::__ndk1::char_traits<char>, std::__ndk1::allocator<char> >)>)>, void (std::__ndk1::basic_string<char, std::__ndk1::char_traits<char>, std::__ndk1::allocator<char> >)>::~__func()
FUNC 42ef8 18 0 std::__ndk1::__function::__func<authentication::AuthenticationManager::getAuthenticationToken(std::__ndk1::function<void (std::__ndk1::basic_string<char, std::__ndk1::char_traits<char>, std::__ndk1::allocator<char> >)>, std::__ndk1::function<void (std::__ndk1::basic_string<char, std::__ndk1::char_traits<char>, std::__ndk1::allocator<char> >)>), std::__ndk1::allocator<authentication::AuthenticationManager::getAuthenticationToken(std::__ndk1::function<void (std::__ndk1::basic_string<char, std::__ndk1::char_traits<char>, std::__ndk1::allocator<char> >)>, std::__ndk1::function<void (std::__ndk1::basic_string<char, std::__ndk1::char_traits<char>, std::__ndk1::allocator<char> >)>)>, void (std::__ndk1::basic_string<char, std::__ndk1::char_traits<char>, std::__ndk1::allocator<char> >)>::__clone() const
FUNC 42f10 10 0 std::__ndk1::__function::__func<authentication::AuthenticationManager::getAuthenticationToken(std::__ndk1::function<void (std::__ndk1::basic_string<char, std::__ndk1::char_traits<char>, std::__ndk1::allocator<char> >)>, std::__ndk1::function<void (std::__ndk1::basic_string<char, std::__ndk1::char_traits<char>, std::__ndk1::allocator<char> >)>), std::__ndk1::allocator<authentication::AuthenticationManager::getAuthenticationToken(std::__ndk1::function<void (std::__ndk1::basic_string<char, std::__ndk1::char_traits<char>, std::__ndk1::allocator<char> >)>, std::__ndk1::function<void (std::__ndk1::basic_string<char, std::__ndk1::char_traits<char>, std::__ndk1::allocator<char> >)>)>, void (std::__ndk1::basic_string<char, std::__ndk1::char_traits<char>, std::__ndk1::allocator<char> >)>::__clone(std::__ndk1::__function::__base<void (std::__ndk1::basic_string<char, std::__ndk1::char_traits<char>, std::__ndk1::allocator<char> >)>*) const
FUNC 42f20 2 0 std::__ndk1::__function::__func<authentication::AuthenticationManager::getAuthenticationToken(std::__ndk1::function<void (std::__ndk1::basic_string<char, std::__ndk1::char_traits<char>, std::__ndk1::allocator<char> >)>, std::__ndk1::function<void (std::__ndk1::basic_string<char, std::__ndk1::char_traits<char>, std::__ndk1::allocator<char> >)>), std::__ndk1::allocator<authentication::AuthenticationManager::getAuthenticationToken(std::__ndk1::function<void (std::__ndk1::basic_string<char, std::__ndk1::char_traits<char>, std::__ndk1::allocator<char> >)>, std::__ndk1::function<void (std::__ndk1::basic_string<char, std::__ndk1::char_traits<char>, std::__ndk1::allocator<char> >)>)>, void (std::__ndk1::basic_string<char, std::__ndk1::char_traits<char>, std::__ndk1::allocator<char> >)>::destroy()
FUNC 42f22 4 0 std::__ndk1::__function::__func<authentication::AuthenticationManager::getAuthenticationToken(std::__ndk1::function<void (std::__ndk1::basic_string<char, std::__ndk1::char_traits<char>, std::__ndk1::allocator<char> >)>, std::__ndk1::function<void (std::__ndk1::basic_string<char, std::__ndk1::char_traits<char>, std::__ndk1::allocator<char> >)>), std::__ndk1::allocator<authentication::AuthenticationManager::getAuthenticationToken(std::__ndk1::function<void (std::__ndk1::basic_string<char, std::__ndk1::char_traits<char>, std::__ndk1::allocator<char> >)>, std::__ndk1::function<void (std::__ndk1::basic_string<char, std::__ndk1::char_traits<char>, std::__ndk1::allocator<char> >)>)>, void (std::__ndk1::basic_string<char, std::__ndk1::char_traits<char>, std::__ndk1::allocator<char> >)>::destroy_deallocate()
FUNC 42f26 16 0 std::__ndk1::__function::__func<authentication::AuthenticationManager::getAuthenticationToken(std::__ndk1::function<void (std::__ndk1::basic_string<char, std::__ndk1::char_traits<char>, std::__ndk1::allocator<char> >)>, std::__ndk1::function<void (std::__ndk1::basic_string<char, std::__ndk1::char_traits<char>, std::__ndk1::allocator<char> >)>), std::__ndk1::allocator<authentication::AuthenticationManager::getAuthenticationToken(std::__ndk1::function<void (std::__ndk1::basic_string<char, std::__ndk1::char_traits<char>, std::__ndk1::allocator<char> >)>, std::__ndk1::function<void (std::__ndk1::basic_string<char, std::__ndk1::char_traits<char>, std::__ndk1::allocator<char> >)>)>, void (std::__ndk1::basic_string<char, std::__ndk1::char_traits<char>, std::__ndk1::allocator<char> >)>::operator()(std::__ndk1::basic_string<char, std::__ndk1::char_traits<char>, std::__ndk1::allocator<char> >&&)
FUNC 42f3c 18 0 std::__ndk1::__function::__func<authentication::AuthenticationManager::getAuthenticationToken(std::__ndk1::function<void (std::__ndk1::basic_string<char, std::__ndk1::char_traits<char>, std::__ndk1::allocator<char> >)>, std::__ndk1::function<void (std::__ndk1::basic_string<char, std::__ndk1::char_traits<char>, std::__ndk1::allocator<char> >)>), std::__ndk1::allocator<authentication::AuthenticationManager::getAuthenticationToken(std::__ndk1::function<void (std::__ndk1::basic_string<char, std::__ndk1::char_traits<char>, std::__ndk1::allocator<char> >)>, std::__ndk1::function<void (std::__ndk1::basic_string<char, std::__ndk1::char_traits<char>, std::__ndk1::allocator<char> >)>)>, void (std::__ndk1::basic_string<char, std::__ndk1::char_traits<char>, std::__ndk1::allocator<char> >)>::target(std::type_info const&) const
FUNC 42f54 c 0 std::__ndk1::__function::__func<authentication::AuthenticationManager::getAuthenticationToken(std::__ndk1::function<void (std::__ndk1::basic_string<char, std::__ndk1::char_traits<char>, std::__ndk1::allocator<char> >)>, std::__ndk1::function<void (std::__ndk1::basic_string<char, std::__ndk1::char_traits<char>, std::__ndk1::allocator<char> >)>), std::__ndk1::allocator<authentication::AuthenticationManager::getAuthenticationToken(std::__ndk1::function<void (std::__ndk1::basic_string<char, std::__ndk1::char_traits<char>, std::__ndk1::allocator<char> >)>, std::__ndk1::function<void (std::__ndk1::basic_string<char, std::__ndk1::char_traits<char>, std::__ndk1::allocator<char> >)>)>, void (std::__ndk1::basic_string<char, std::__ndk1::char_traits<char>, std::__ndk1::allocator<char> >)>::target_type() const
FUNC 42f60 2 0 std::__ndk1::__function::__base<cocos2d::CCNode* (EditorUI*, CCMenuItemToggler*)>::~__base()
FUNC 42f62 4 0 std::__ndk1::__function::__func<CustomObjects::init(LevelEditorLayer*)::$_0, std::__ndk1::allocator<CustomObjects::init(LevelEditorLayer*)::$_0>, cocos2d::CCNode* (EditorUI*, CCMenuItemToggler*)>::~__func()
FUNC 42f68 20 0 std::__ndk1::__function::__func<CustomObjects::init(LevelEditorLayer*)::$_0, std::__ndk1::allocator<CustomObjects::init(LevelEditorLayer*)::$_0>, cocos2d::CCNode* (EditorUI*, CCMenuItemToggler*)>::__clone() const
FUNC 42f88 14 0 std::__ndk1::__function::__func<CustomObjects::init(LevelEditorLayer*)::$_0, std::__ndk1::allocator<CustomObjects::init(LevelEditorLayer*)::$_0>, cocos2d::CCNode* (EditorUI*, CCMenuItemToggler*)>::__clone(std::__ndk1::__function::__base<cocos2d::CCNode* (EditorUI*, CCMenuItemToggler*)>*) const
FUNC 42f9c 2 0 std::__ndk1::__function::__func<CustomObjects::init(LevelEditorLayer*)::$_0, std::__ndk1::allocator<CustomObjects::init(LevelEditorLayer*)::$_0>, cocos2d::CCNode* (EditorUI*, CCMenuItemToggler*)>::destroy()
FUNC 42f9e 4 0 std::__ndk1::__function::__func<CustomObjects::init(LevelEditorLayer*)::$_0, std::__ndk1::allocator<CustomObjects::init(LevelEditorLayer*)::$_0>, cocos2d::CCNode* (EditorUI*, CCMenuItemToggler*)>::destroy_deallocate()
FUNC 42fb0 7d0 0 std::__ndk1::__function::__func<CustomObjects::init(LevelEditorLayer*)::$_0, std::__ndk1::allocator<CustomObjects::init(LevelEditorLayer*)::$_0>, cocos2d::CCNode* (EditorUI*, CCMenuItemToggler*)>::operator()(EditorUI*&&, CCMenuItemToggler*&&)
FUNC 43780 18 0 std::__ndk1::__function::__func<CustomObjects::init(LevelEditorLayer*)::$_0, std::__ndk1::allocator<CustomObjects::init(LevelEditorLayer*)::$_0>, cocos2d::CCNode* (EditorUI*, CCMenuItemToggler*)>::target(std::type_info const&) const
FUNC 43798 c 0 std::__ndk1::__function::__func<CustomObjects::init(LevelEditorLayer*)::$_0, std::__ndk1::allocator<CustomObjects::init(LevelEditorLayer*)::$_0>, cocos2d::CCNode* (EditorUI*, CCMenuItemToggler*)>::target_type() const
FUNC 437a4 1b8 0 geode::modifier::FieldIntermediate<CustomObjects, EditorUI>::self()
FUNC 4395c 33c 0 geode::modifier::FieldContainer::getField(unsigned int)
FUNC 43c98 a8 0 geode::modifier::FieldContainer::setField(unsigned int, unsigned int, std::__ndk1::function<void (void*)>)
FUNC 43d40 84 0 geode::modifier::FieldIntermediate<CustomObjects, EditorUI>::fieldDestructor(void*)
FUNC 43dc4 10 0 std::__ndk1::vector<void*, std::__ndk1::allocator<void*> >::__throw_length_error[abi:ne180000]() const
FUNC 43dd4 10 0 std::__ndk1::vector<std::__ndk1::function<void (void*)>, std::__ndk1::allocator<std::__ndk1::function<void (void*)> > >::__throw_length_error[abi:ne180000]() const
FUNC 43de4 10 0 std::__ndk1::vector<void*, std::__ndk1::allocator<void*> >::__throw_out_of_range[abi:ne180000]() const
FUNC 43df4 10 0 std::__ndk1::vector<std::__ndk1::function<void (void*)>, std::__ndk1::allocator<std::__ndk1::function<void (void*)> > >::__throw_out_of_range[abi:ne180000]() const
FUNC 43e04 2 0 std::__ndk1::__function::__base<void (void*)>::~__base()
FUNC 43e06 4 0 std::__ndk1::__function::__func<void (*)(void*), std::__ndk1::allocator<void (*)(void*)>, void (void*)>::~__func()
FUNC 43e0c 20 0 std::__ndk1::__function::__func<void (*)(void*), std::__ndk1::allocator<void (*)(void*)>, void (void*)>::__clone() const
FUNC 43e2c 14 0 std::__ndk1::__function::__func<void (*)(void*), std::__ndk1::allocator<void (*)(void*)>, void (void*)>::__clone(std::__ndk1::__function::__base<void (void*)>*) const
FUNC 43e40 2 0 std::__ndk1::__function::__func<void (*)(void*), std::__ndk1::allocator<void (*)(void*)>, void (void*)>::destroy()
FUNC 43e42 4 0 std::__ndk1::__function::__func<void (*)(void*), std::__ndk1::allocator<void (*)(void*)>, void (void*)>::destroy_deallocate()
FUNC 43e46 8 0 std::__ndk1::__function::__func<void (*)(void*), std::__ndk1::allocator<void (*)(void*)>, void (void*)>::operator()(void*&&)
FUNC 43e50 18 0 std::__ndk1::__function::__func<void (*)(void*), std::__ndk1::allocator<void (*)(void*)>, void (void*)>::target(std::type_info const&) const
FUNC 43e68 c 0 std::__ndk1::__function::__func<void (*)(void*), std::__ndk1::allocator<void (*)(void*)>, void (void*)>::target_type() const
FUNC 43e74 4 0 std::__ndk1::__function::__func<CustomObjects::init(LevelEditorLayer*)::$_0::operator()(EditorUI*, CCMenuItemToggler*) const::{lambda(geode::Task<geode::utils::web::WebResponse, geode::utils::web::WebProgress>::Event*)#1}, std::__ndk1::allocator<CustomObjects::init(LevelEditorLayer*)::$_0::operator()(EditorUI*, CCMenuItemToggler*) const::{lambda(geode::Task<geode::utils::web::WebResponse, geode::utils::web::WebProgress>::Event*)#1}>, void (geode::Task<geode::utils::web::WebResponse, geode::utils::web::WebProgress>::Event*)>::~__func()
FUNC 43e78 20 0 std::__ndk1::__function::__func<CustomObjects::init(LevelEditorLayer*)::$_0::operator()(EditorUI*, CCMenuItemToggler*) const::{lambda(geode::Task<geode::utils::web::WebResponse, geode::utils::web::WebProgress>::Event*)#1}, std::__ndk1::allocator<CustomObjects::init(LevelEditorLayer*)::$_0::operator()(EditorUI*, CCMenuItemToggler*) const::{lambda(geode::Task<geode::utils::web::WebResponse, geode::utils::web::WebProgress>::Event*)#1}>, void (geode::Task<geode::utils::web::WebResponse, geode::utils::web::WebProgress>::Event*)>::__clone() const
FUNC 43e98 18 0 std::__ndk1::__function::__func<CustomObjects::init(LevelEditorLayer*)::$_0::operator()(EditorUI*, CCMenuItemToggler*) const::{lambda(geode::Task<geode::utils::web::WebResponse, geode::utils::web::WebProgress>::Event*)#1}, std::__ndk1::allocator<CustomObjects::init(LevelEditorLayer*)::$_0::operator()(EditorUI*, CCMenuItemToggler*) const::{lambda(geode::Task<geode::utils::web::WebResponse, geode::utils::web::WebProgress>::Event*)#1}>, void (geode::Task<geode::utils::web::WebResponse, geode::utils::web::WebProgress>::Event*)>::__clone(std::__ndk1::__function::__base<void (geode::Task<geode::utils::web::WebResponse, geode::utils::web::WebProgress>::Event*)>*) const
FUNC 43eb0 2 0 std::__ndk1::__function::__func<CustomObjects::init(LevelEditorLayer*)::$_0::operator()(EditorUI*, CCMenuItemToggler*) const::{lambda(geode::Task<geode::utils::web::WebResponse, geode::utils::web::WebProgress>::Event*)#1}, std::__ndk1::allocator<CustomObjects::init(LevelEditorLayer*)::$_0::operator()(EditorUI*, CCMenuItemToggler*) const::{lambda(geode::Task<geode::utils::web::WebResponse, geode::utils::web::WebProgress>::Event*)#1}>, void (geode::Task<geode::utils::web::WebResponse, geode::utils::web::WebProgress>::Event*)>::destroy()
FUNC 43eb2 4 0 std::__ndk1::__function::__func<CustomObjects::init(LevelEditorLayer*)::$_0::operator()(EditorUI*, CCMenuItemToggler*) const::{lambda(geode::Task<geode::utils::web::WebResponse, geode::utils::web::WebProgress>::Event*)#1}, std::__ndk1::allocator<CustomObjects::init(LevelEditorLayer*)::$_0::operator()(EditorUI*, CCMenuItemToggler*) const::{lambda(geode::Task<geode::utils::web::WebResponse, geode::utils::web::WebProgress>::Event*)#1}>, void (geode::Task<geode::utils::web::WebResponse, geode::utils::web::WebProgress>::Event*)>::destroy_deallocate()
FUNC 43eb8 3c8 0 std::__ndk1::__function::__func<CustomObjects::init(LevelEditorLayer*)::$_0::operator()(EditorUI*, CCMenuItemToggler*) const::{lambda(geode::Task<geode::utils::web::WebResponse, geode::utils::web::WebProgress>::Event*)#1}, std::__ndk1::allocator<CustomObjects::init(LevelEditorLayer*)::$_0::operator()(EditorUI*, CCMenuItemToggler*) const::{lambda(geode::Task<geode::utils::web::WebResponse, geode::utils::web::WebProgress>::Event*)#1}>, void (geode::Task<geode::utils::web::WebResponse, geode::utils::web::WebProgress>::Event*)>::operator()(geode::Task<geode::utils::web::WebResponse, geode::utils::web::WebProgress>::Event*&&)
FUNC 44280 18 0 std::__ndk1::__function::__func<CustomObjects::init(LevelEditorLayer*)::$_0::operator()(EditorUI*, CCMenuItemToggler*) const::{lambda(geode::Task<geode::utils::web::WebResponse, geode::utils::web::WebProgress>::Event*)#1}, std::__ndk1::allocator<CustomObjects::init(LevelEditorLayer*)::$_0::operator()(EditorUI*, CCMenuItemToggler*) const::{lambda(geode::Task<geode::utils::web::WebResponse, geode::utils::web::WebProgress>::Event*)#1}>, void (geode::Task<geode::utils::web::WebResponse, geode::utils::web::WebProgress>::Event*)>::target(std::type_info const&) const
FUNC 44298 c 0 std::__ndk1::__function::__func<CustomObjects::init(LevelEditorLayer*)::$_0::operator()(EditorUI*, CCMenuItemToggler*) const::{lambda(geode::Task<geode::utils::web::WebResponse, geode::utils::web::WebProgress>::Event*)#1}, std::__ndk1::allocator<CustomObjects::init(LevelEditorLayer*)::$_0::operator()(EditorUI*, CCMenuItemToggler*) const::{lambda(geode::Task<geode::utils::web::WebResponse, geode::utils::web::WebProgress>::Event*)#1}>, void (geode::Task<geode::utils::web::WebResponse, geode::utils::web::WebProgress>::Event*)>::target_type() const
FUNC 442b0 320 0 geode::modifier::ModifyDerive<ObjectBypass, EditorUI>::apply()
FUNC 445d0 2 0 geode::modifier::ModifyBase<geode::modifier::ModifyDerive<ObjectBypass, EditorUI> >::apply()
FUNC 445d4 1e4 0 geode::modifier::AsStaticFunction_onNewCustomItem<ObjectBypass, void (ObjectBypass::*)(cocos2d::CCObject*)>::Impl<void (ObjectBypass::*)(cocos2d::CCObject*)>::function(ObjectBypass*, cocos2d::CCObject*)
FUNC 447c0 598 0 geode::modifier::ModifyDerive<hook274<(anonymous namespace)::hook274Parent>, ProfilePage>::apply()
FUNC 44d58 2 0 geode::modifier::ModifyBase<geode::modifier::ModifyDerive<hook274<(anonymous namespace)::hook274Parent>, ProfilePage> >::apply()
FUNC 44d5c 264 0 geode::modifier::AsStaticFunction_loadPageFromUserInfo<hook274<(anonymous namespace)::hook274Parent>, void (hook274<(anonymous namespace)::hook274Parent>::*)(GJUserScore*)>::Impl<void (hook274<(anonymous namespace)::hook274Parent>::*)(GJUserScore*)>::function(hook274<(anonymous namespace)::hook274Parent>*, GJUserScore*)
FUNC 44fc0 a4 0 geode::modifier::AsStaticFunction_onClose<hook274<(anonymous namespace)::hook274Parent>, void (hook274<(anonymous namespace)::hook274Parent>::*)(cocos2d::CCObject*)>::Impl<void (hook274<(anonymous namespace)::hook274Parent>::*)(cocos2d::CCObject*)>::function(hook274<(anonymous namespace)::hook274Parent>*, cocos2d::CCObject*)
FUNC 45064 198 0 geode::modifier::FieldIntermediate<hook274<(anonymous namespace)::hook274Parent>, ProfilePage>::operator->()
FUNC 451fc 70 0 geode::modifier::FieldIntermediate<hook274<(anonymous namespace)::hook274Parent>, ProfilePage>::fieldDestructor(void*)
FUNC 4526c 2 0 std::__ndk1::__function::__base<void (geode::Task<geode::utils::web::WebResponse, geode::utils::web::WebProgress>::Event*)>::~__base()
FUNC 4526e 4 0 std::__ndk1::__function::__func<hook274<(anonymous namespace)::hook274Parent>::loadPageFromUserInfo(GJUserScore*)::{lambda(geode::Task<geode::utils::web::WebResponse, geode::utils::web::WebProgress>::Event*)#1}, std::__ndk1::allocator<hook274<(anonymous namespace)::hook274Parent>::loadPageFromUserInfo(GJUserScore*)::{lambda(geode::Task<geode::utils::web::WebResponse, geode::utils::web::WebProgress>::Event*)#1}>, void (geode::Task<geode::utils::web::WebResponse, geode::utils::web::WebProgress>::Event*)>::~__func()
FUNC 45274 20 0 std::__ndk1::__function::__func<hook274<(anonymous namespace)::hook274Parent>::loadPageFromUserInfo(GJUserScore*)::{lambda(geode::Task<geode::utils::web::WebResponse, geode::utils::web::WebProgress>::Event*)#1}, std::__ndk1::allocator<hook274<(anonymous namespace)::hook274Parent>::loadPageFromUserInfo(GJUserScore*)::{lambda(geode::Task<geode::utils::web::WebResponse, geode::utils::web::WebProgress>::Event*)#1}>, void (geode::Task<geode::utils::web::WebResponse, geode::utils::web::WebProgress>::Event*)>::__clone() const
FUNC 45294 14 0 std::__ndk1::__function::__func<hook274<(anonymous namespace)::hook274Parent>::loadPageFromUserInfo(GJUserScore*)::{lambda(geode::Task<geode::utils::web::WebResponse, geode::utils::web::WebProgress>::Event*)#1}, std::__ndk1::allocator<hook274<(anonymous namespace)::hook274Parent>::loadPageFromUserInfo(GJUserScore*)::{lambda(geode::Task<geode::utils::web::WebResponse, geode::utils::web::WebProgress>::Event*)#1}>, void (geode::Task<geode::utils::web::WebResponse, geode::utils::web::WebProgress>::Event*)>::__clone(std::__ndk1::__function::__base<void (geode::Task<geode::utils::web::WebResponse, geode::utils::web::WebProgress>::Event*)>*) const
FUNC 452a8 2 0 std::__ndk1::__function::__func<hook274<(anonymous namespace)::hook274Parent>::loadPageFromUserInfo(GJUserScore*)::{lambda(geode::Task<geode::utils::web::WebResponse, geode::utils::web::WebProgress>::Event*)#1}, std::__ndk1::allocator<hook274<(anonymous namespace)::hook274Parent>::loadPageFromUserInfo(GJUserScore*)::{lambda(geode::Task<geode::utils::web::WebResponse, geode::utils::web::WebProgress>::Event*)#1}>, void (geode::Task<geode::utils::web::WebResponse, geode::utils::web::WebProgress>::Event*)>::destroy()
FUNC 452aa 4 0 std::__ndk1::__function::__func<hook274<(anonymous namespace)::hook274Parent>::loadPageFromUserInfo(GJUserScore*)::{lambda(geode::Task<geode::utils::web::WebResponse, geode::utils::web::WebProgress>::Event*)#1}, std::__ndk1::allocator<hook274<(anonymous namespace)::hook274Parent>::loadPageFromUserInfo(GJUserScore*)::{lambda(geode::Task<geode::utils::web::WebResponse, geode::utils::web::WebProgress>::Event*)#1}>, void (geode::Task<geode::utils::web::WebResponse, geode::utils::web::WebProgress>::Event*)>::destroy_deallocate()
FUNC 452b0 404 0 std::__ndk1::__function::__func<hook274<(anonymous namespace)::hook274Parent>::loadPageFromUserInfo(GJUserScore*)::{lambda(geode::Task<geode::utils::web::WebResponse, geode::utils::web::WebProgress>::Event*)#1}, std::__ndk1::allocator<hook274<(anonymous namespace)::hook274Parent>::loadPageFromUserInfo(GJUserScore*)::{lambda(geode::Task<geode::utils::web::WebResponse, geode::utils::web::WebProgress>::Event*)#1}>, void (geode::Task<geode::utils::web::WebResponse, geode::utils::web::WebProgress>::Event*)>::operator()(geode::Task<geode::utils::web::WebResponse, geode::utils::web::WebProgress>::Event*&&)
FUNC 456b4 18 0 std::__ndk1::__function::__func<hook274<(anonymous namespace)::hook274Parent>::loadPageFromUserInfo(GJUserScore*)::{lambda(geode::Task<geode::utils::web::WebResponse, geode::utils::web::WebProgress>::Event*)#1}, std::__ndk1::allocator<hook274<(anonymous namespace)::hook274Parent>::loadPageFromUserInfo(GJUserScore*)::{lambda(geode::Task<geode::utils::web::WebResponse, geode::utils::web::WebProgress>::Event*)#1}>, void (geode::Task<geode::utils::web::WebResponse, geode::utils::web::WebProgress>::Event*)>::target(std::type_info const&) const
FUNC 456cc c 0 std::__ndk1::__function::__func<hook274<(anonymous namespace)::hook274Parent>::loadPageFromUserInfo(GJUserScore*)::{lambda(geode::Task<geode::utils::web::WebResponse, geode::utils::web::WebProgress>::Event*)#1}, std::__ndk1::allocator<hook274<(anonymous namespace)::hook274Parent>::loadPageFromUserInfo(GJUserScore*)::{lambda(geode::Task<geode::utils::web::WebResponse, geode::utils::web::WebProgress>::Event*)#1}>, void (geode::Task<geode::utils::web::WebResponse, geode::utils::web::WebProgress>::Event*)>::target_type() const
FUNC 456d8 bc 0 geode::cocos::CCMenuItemExt::createSpriteExtraWithFilename(std::__ndk1::basic_string_view<char, std::__ndk1::char_traits<char> >, float, std::__ndk1::function<void (CCMenuItemSpriteExtra*)>)
FUNC 45794 ac 0 geode::cocos::CCMenuItemExt::createSpriteExtra(cocos2d::CCNode*, std::__ndk1::function<void (CCMenuItemSpriteExtra*)>)
FUNC 45840 118 0 geode::cocos::CCMenuItemExt::assignCallback<CCMenuItemSpriteExtra>(cocos2d::CCMenuItem*, std::__ndk1::function<void (CCMenuItemSpriteExtra*)>)
FUNC 45958 134 0 geode::cocos::CCMenuItemExt::LambdaCallback<CCMenuItemSpriteExtra>::create(std::__ndk1::function<void (CCMenuItemSpriteExtra*)>)
FUNC 45a8c 40 0 geode::cocos::CCMenuItemExt::LambdaCallback<CCMenuItemSpriteExtra>::execute(cocos2d::CCNode*)
FUNC 45acc 38 0 geode::cocos::CCMenuItemExt::LambdaCallback<CCMenuItemSpriteExtra>::~LambdaCallback()
FUNC 45b04 3c 0 geode::cocos::CCMenuItemExt::LambdaCallback<CCMenuItemSpriteExtra>::~LambdaCallback()
FUNC 45b40 2 0 cocos2d::CCObject::update(float)
FUNC 45b42 2 0 std::__ndk1::__function::__base<void (CCMenuItemSpriteExtra*)>::~__base()
FUNC 45b44 4 0 std::__ndk1::__function::__func<hook274<(anonymous namespace)::hook274Parent>::loadPageFromUserInfo(GJUserScore*)::{lambda(geode::Task<geode::utils::web::WebResponse, geode::utils::web::WebProgress>::Event*)#1}::operator()(geode::Task<geode::utils::web::WebResponse, geode::utils::web::WebProgress>::Event*) const::{lambda(cocos2d::CCObject*)#1}, std::__ndk1::allocator<hook274<(anonymous namespace)::hook274Parent>::loadPageFromUserInfo(GJUserScore*)::{lambda(geode::Task<geode::utils::web::WebResponse, geode::utils::web::WebProgress>::Event*)#1}::operator()(geode::Task<geode::utils::web::WebResponse, geode::utils::web::WebProgress>::Event*) const::{lambda(cocos2d::CCObject*)#1}>, void (CCMenuItemSpriteExtra*)>::~__func()
FUNC 45b48 20 0 std::__ndk1::__function::__func<hook274<(anonymous namespace)::hook274Parent>::loadPageFromUserInfo(GJUserScore*)::{lambda(geode::Task<geode::utils::web::WebResponse, geode::utils::web::WebProgress>::Event*)#1}::operator()(geode::Task<geode::utils::web::WebResponse, geode::utils::web::WebProgress>::Event*) const::{lambda(cocos2d::CCObject*)#1}, std::__ndk1::allocator<hook274<(anonymous namespace)::hook274Parent>::loadPageFromUserInfo(GJUserScore*)::{lambda(geode::Task<geode::utils::web::WebResponse, geode::utils::web::WebProgress>::Event*)#1}::operator()(geode::Task<geode::utils::web::WebResponse, geode::utils::web::WebProgress>::Event*) const::{lambda(cocos2d::CCObject*)#1}>, void (CCMenuItemSpriteExtra*)>::__clone() const
FUNC 45b68 14 0 std::__ndk1::__function::__func<hook274<(anonymous namespace)::hook274Parent>::loadPageFromUserInfo(GJUserScore*)::{lambda(geode::Task<geode::utils::web::WebResponse, geode::utils::web::WebProgress>::Event*)#1}::operator()(geode::Task<geode::utils::web::WebResponse, geode::utils::web::WebProgress>::Event*) const::{lambda(cocos2d::CCObject*)#1}, std::__ndk1::allocator<hook274<(anonymous namespace)::hook274Parent>::loadPageFromUserInfo(GJUserScore*)::{lambda(geode::Task<geode::utils::web::WebResponse, geode::utils::web::WebProgress>::Event*)#1}::operator()(geode::Task<geode::utils::web::WebResponse, geode::utils::web::WebProgress>::Event*) const::{lambda(cocos2d::CCObject*)#1}>, void (CCMenuItemSpriteExtra*)>::__clone(std::__ndk1::__function::__base<void (CCMenuItemSpriteExtra*)>*) const
FUNC 45b7c 2 0 std::__ndk1::__function::__func<hook274<(anonymous namespace)::hook274Parent>::loadPageFromUserInfo(GJUserScore*)::{lambda(geode::Task<geode::utils::web::WebResponse, geode::utils::web::WebProgress>::Event*)#1}::operator()(geode::Task<geode::utils::web::WebResponse, geode::utils::web::WebProgress>::Event*) const::{lambda(cocos2d::CCObject*)#1}, std::__ndk1::allocator<hook274<(anonymous namespace)::hook274Parent>::loadPageFromUserInfo(GJUserScore*)::{lambda(geode::Task<geode::utils::web::WebResponse, geode::utils::web::WebProgress>::Event*)#1}::operator()(geode::Task<geode::utils::web::WebResponse, geode::utils::web::WebProgress>::Event*) const::{lambda(cocos2d::CCObject*)#1}>, void (CCMenuItemSpriteExtra*)>::destroy()
FUNC 45b7e 4 0 std::__ndk1::__function::__func<hook274<(anonymous namespace)::hook274Parent>::loadPageFromUserInfo(GJUserScore*)::{lambda(geode::Task<geode::utils::web::WebResponse, geode::utils::web::WebProgress>::Event*)#1}::operator()(geode::Task<geode::utils::web::WebResponse, geode::utils::web::WebProgress>::Event*) const::{lambda(cocos2d::CCObject*)#1}, std::__ndk1::allocator<hook274<(anonymous namespace)::hook274Parent>::loadPageFromUserInfo(GJUserScore*)::{lambda(geode::Task<geode::utils::web::WebResponse, geode::utils::web::WebProgress>::Event*)#1}::operator()(geode::Task<geode::utils::web::WebResponse, geode::utils::web::WebProgress>::Event*) const::{lambda(cocos2d::CCObject*)#1}>, void (CCMenuItemSpriteExtra*)>::destroy_deallocate()
FUNC 45b84 288 0 std::__ndk1::__function::__func<hook274<(anonymous namespace)::hook274Parent>::loadPageFromUserInfo(GJUserScore*)::{lambda(geode::Task<geode::utils::web::WebResponse, geode::utils::web::WebProgress>::Event*)#1}::operator()(geode::Task<geode::utils::web::WebResponse, geode::utils::web::WebProgress>::Event*) const::{lambda(cocos2d::CCObject*)#1}, std::__ndk1::allocator<hook274<(anonymous namespace)::hook274Parent>::loadPageFromUserInfo(GJUserScore*)::{lambda(geode::Task<geode::utils::web::WebResponse, geode::utils::web::WebProgress>::Event*)#1}::operator()(geode::Task<geode::utils::web::WebResponse, geode::utils::web::WebProgress>::Event*) const::{lambda(cocos2d::CCObject*)#1}>, void (CCMenuItemSpriteExtra*)>::operator()(CCMenuItemSpriteExtra*&&)
FUNC 45e0c 18 0 std::__ndk1::__function::__func<hook274<(anonymous namespace)::hook274Parent>::loadPageFromUserInfo(GJUserScore*)::{lambda(geode::Task<geode::utils::web::WebResponse, geode::utils::web::WebProgress>::Event*)#1}::operator()(geode::Task<geode::utils::web::WebResponse, geode::utils::web::WebProgress>::Event*) const::{lambda(cocos2d::CCObject*)#1}, std::__ndk1::allocator<hook274<(anonymous namespace)::hook274Parent>::loadPageFromUserInfo(GJUserScore*)::{lambda(geode::Task<geode::utils::web::WebResponse, geode::utils::web::WebProgress>::Event*)#1}::operator()(geode::Task<geode::utils::web::WebResponse, geode::utils::web::WebProgress>::Event*) const::{lambda(cocos2d::CCObject*)#1}>, void (CCMenuItemSpriteExtra*)>::target(std::type_info const&) const
FUNC 45e24 c 0 std::__ndk1::__function::__func<hook274<(anonymous namespace)::hook274Parent>::loadPageFromUserInfo(GJUserScore*)::{lambda(geode::Task<geode::utils::web::WebResponse, geode::utils::web::WebProgress>::Event*)#1}::operator()(geode::Task<geode::utils::web::WebResponse, geode::utils::web::WebProgress>::Event*) const::{lambda(cocos2d::CCObject*)#1}, std::__ndk1::allocator<hook274<(anonymous namespace)::hook274Parent>::loadPageFromUserInfo(GJUserScore*)::{lambda(geode::Task<geode::utils::web::WebResponse, geode::utils::web::WebProgress>::Event*)#1}::operator()(geode::Task<geode::utils::web::WebResponse, geode::utils::web::WebProgress>::Event*) const::{lambda(cocos2d::CCObject*)#1}>, void (CCMenuItemSpriteExtra*)>::target_type() const
FUNC 45e30 bc 0 ObjectWorkshop::createToUser(bool, int)
FUNC 45eec 2c 0 std::__ndk1::__function::__func<hook274<(anonymous namespace)::hook274Parent>::loadPageFromUserInfo(GJUserScore*)::{lambda(geode::Task<geode::utils::web::WebResponse, geode::utils::web::WebProgress>::Event*)#1}::operator()(geode::Task<geode::utils::web::WebResponse, geode::utils::web::WebProgress>::Event*) const::{lambda(cocos2d::CCObject*)#1}::operator()(cocos2d::CCObject*) const::{lambda(int)#1}, std::__ndk1::allocator<hook274<(anonymous namespace)::hook274Parent>::loadPageFromUserInfo(GJUserScore*)::{lambda(geode::Task<geode::utils::web::WebResponse, geode::utils::web::WebProgress>::Event*)#1}::operator()(geode::Task<geode::utils::web::WebResponse, geode::utils::web::WebProgress>::Event*) const::{lambda(cocos2d::CCObject*)#1}::operator()(cocos2d::CCObject*) const::{lambda(int)#1}>, void (int)>::~__func()
FUNC 45f18 30 0 std::__ndk1::__function::__func<hook274<(anonymous namespace)::hook274Parent>::loadPageFromUserInfo(GJUserScore*)::{lambda(geode::Task<geode::utils::web::WebResponse, geode::utils::web::WebProgress>::Event*)#1}::operator()(geode::Task<geode::utils::web::WebResponse, geode::utils::web::WebProgress>::Event*) const::{lambda(cocos2d::CCObject*)#1}::operator()(cocos2d::CCObject*) const::{lambda(int)#1}, std::__ndk1::allocator<hook274<(anonymous namespace)::hook274Parent>::loadPageFromUserInfo(GJUserScore*)::{lambda(geode::Task<geode::utils::web::WebResponse, geode::utils::web::WebProgress>::Event*)#1}::operator()(geode::Task<geode::utils::web::WebResponse, geode::utils::web::WebProgress>::Event*) const::{lambda(cocos2d::CCObject*)#1}::operator()(cocos2d::CCObject*) const::{lambda(int)#1}>, void (int)>::~__func()
FUNC 45f48 5c 0 std::__ndk1::__function::__func<hook274<(anonymous namespace)::hook274Parent>::loadPageFromUserInfo(GJUserScore*)::{lambda(geode::Task<geode::utils::web::WebResponse, geode::utils::web::WebProgress>::Event*)#1}::operator()(geode::Task<geode::utils::web::WebResponse, geode::utils::web::WebProgress>::Event*) const::{lambda(cocos2d::CCObject*)#1}::operator()(cocos2d::CCObject*) const::{lambda(int)#1}, std::__ndk1::allocator<hook274<(anonymous namespace)::hook274Parent>::loadPageFromUserInfo(GJUserScore*)::{lambda(geode::Task<geode::utils::web::WebResponse, geode::utils::web::WebProgress>::Event*)#1}::operator()(geode::Task<geode::utils::web::WebResponse, geode::utils::web::WebProgress>::Event*) const::{lambda(cocos2d::CCObject*)#1}::operator()(cocos2d::CCObject*) const::{lambda(int)#1}>, void (int)>::__clone() const
FUNC 45fa4 40 0 std::__ndk1::__function::__func<hook274<(anonymous namespace)::hook274Parent>::loadPageFromUserInfo(GJUserScore*)::{lambda(geode::Task<geode::utils::web::WebResponse, geode::utils::web::WebProgress>::Event*)#1}::operator()(geode::Task<geode::utils::web::WebResponse, geode::utils::web::WebProgress>::Event*) const::{lambda(cocos2d::CCObject*)#1}::operator()(cocos2d::CCObject*) const::{lambda(int)#1}, std::__ndk1::allocator<hook274<(anonymous namespace)::hook274Parent>::loadPageFromUserInfo(GJUserScore*)::{lambda(geode::Task<geode::utils::web::WebResponse, geode::utils::web::WebProgress>::Event*)#1}::operator()(geode::Task<geode::utils::web::WebResponse, geode::utils::web::WebProgress>::Event*) const::{lambda(cocos2d::CCObject*)#1}::operator()(cocos2d::CCObject*) const::{lambda(int)#1}>, void (int)>::__clone(std::__ndk1::__function::__base<void (int)>*) const
FUNC 45fe4 e 0 std::__ndk1::__function::__func<hook274<(anonymous namespace)::hook274Parent>::loadPageFromUserInfo(GJUserScore*)::{lambda(geode::Task<geode::utils::web::WebResponse, geode::utils::web::WebProgress>::Event*)#1}::operator()(geode::Task<geode::utils::web::WebResponse, geode::utils::web::WebProgress>::Event*) const::{lambda(cocos2d::CCObject*)#1}::operator()(cocos2d::CCObject*) const::{lambda(int)#1}, std::__ndk1::allocator<hook274<(anonymous namespace)::hook274Parent>::loadPageFromUserInfo(GJUserScore*)::{lambda(geode::Task<geode::utils::web::WebResponse, geode::utils::web::WebProgress>::Event*)#1}::operator()(geode::Task<geode::utils::web::WebResponse, geode::utils::web::WebProgress>::Event*) const::{lambda(cocos2d::CCObject*)#1}::operator()(cocos2d::CCObject*) const::{lambda(int)#1}>, void (int)>::destroy()
FUNC 45ff2 22 0 std::__ndk1::__function::__func<hook274<(anonymous namespace)::hook274Parent>::loadPageFromUserInfo(GJUserScore*)::{lambda(geode::Task<geode::utils::web::WebResponse, geode::utils::web::WebProgress>::Event*)#1}::operator()(geode::Task<geode::utils::web::WebResponse, geode::utils::web::WebProgress>::Event*) const::{lambda(cocos2d::CCObject*)#1}::operator()(cocos2d::CCObject*) const::{lambda(int)#1}, std::__ndk1::allocator<hook274<(anonymous namespace)::hook274Parent>::loadPageFromUserInfo(GJUserScore*)::{lambda(geode::Task<geode::utils::web::WebResponse, geode::utils::web::WebProgress>::Event*)#1}::operator()(geode::Task<geode::utils::web::WebResponse, geode::utils::web::WebProgress>::Event*) const::{lambda(cocos2d::CCObject*)#1}::operator()(cocos2d::CCObject*) const::{lambda(int)#1}>, void (int)>::destroy_deallocate()
FUNC 46014 3c8 0 std::__ndk1::__function::__func<hook274<(anonymous namespace)::hook274Parent>::loadPageFromUserInfo(GJUserScore*)::{lambda(geode::Task<geode::utils::web::WebResponse, geode::utils::web::WebProgress>::Event*)#1}::operator()(geode::Task<geode::utils::web::WebResponse, geode::utils::web::WebProgress>::Event*) const::{lambda(cocos2d::CCObject*)#1}::operator()(cocos2d::CCObject*) const::{lambda(int)#1}, std::__ndk1::allocator<hook274<(anonymous namespace)::hook274Parent>::loadPageFromUserInfo(GJUserScore*)::{lambda(geode::Task<geode::utils::web::WebResponse, geode::utils::web::WebProgress>::Event*)#1}::operator()(geode::Task<geode::utils::web::WebResponse, geode::utils::web::WebProgress>::Event*) const::{lambda(cocos2d::CCObject*)#1}::operator()(cocos2d::CCObject*) const::{lambda(int)#1}>, void (int)>::operator()(int&&)
FUNC 463dc 18 0 std::__ndk1::__function::__func<hook274<(anonymous namespace)::hook274Parent>::loadPageFromUserInfo(GJUserScore*)::{lambda(geode::Task<geode::utils::web::WebResponse, geode::utils::web::WebProgress>::Event*)#1}::operator()(geode::Task<geode::utils::web::WebResponse, geode::utils::web::WebProgress>::Event*) const::{lambda(cocos2d::CCObject*)#1}::operator()(cocos2d::CCObject*) const::{lambda(int)#1}, std::__ndk1::allocator<hook274<(anonymous namespace)::hook274Parent>::loadPageFromUserInfo(GJUserScore*)::{lambda(geode::Task<geode::utils::web::WebResponse, geode::utils::web::WebProgress>::Event*)#1}::operator()(geode::Task<geode::utils::web::WebResponse, geode::utils::web::WebProgress>::Event*) const::{lambda(cocos2d::CCObject*)#1}::operator()(cocos2d::CCObject*) const::{lambda(int)#1}>, void (int)>::target(std::type_info const&) const
FUNC 463f4 c 0 std::__ndk1::__function::__func<hook274<(anonymous namespace)::hook274Parent>::loadPageFromUserInfo(GJUserScore*)::{lambda(geode::Task<geode::utils::web::WebResponse, geode::utils::web::WebProgress>::Event*)#1}::operator()(geode::Task<geode::utils::web::WebResponse, geode::utils::web::WebProgress>::Event*) const::{lambda(cocos2d::CCObject*)#1}::operator()(cocos2d::CCObject*) const::{lambda(int)#1}, std::__ndk1::allocator<hook274<(anonymous namespace)::hook274Parent>::loadPageFromUserInfo(GJUserScore*)::{lambda(geode::Task<geode::utils::web::WebResponse, geode::utils::web::WebProgress>::Event*)#1}::operator()(geode::Task<geode::utils::web::WebResponse, geode::utils::web::WebProgress>::Event*) const::{lambda(cocos2d::CCObject*)#1}::operator()(cocos2d::CCObject*) const::{lambda(int)#1}>, void (int)>::target_type() const
FUNC 46400 4 0 std::__ndk1::__function::__func<hook274<(anonymous namespace)::hook274Parent>::loadPageFromUserInfo(GJUserScore*)::{lambda(geode::Task<geode::utils::web::WebResponse, geode::utils::web::WebProgress>::Event*)#1}::operator()(geode::Task<geode::utils::web::WebResponse, geode::utils::web::WebProgress>::Event*) const::{lambda(cocos2d::CCObject*)#1}::operator()(cocos2d::CCObject*) const::{lambda(int)#1}::operator()(int) const::{lambda(std::__ndk1::basic_string<char, std::__ndk1::char_traits<char>, std::__ndk1::allocator<char> >)#1}, std::__ndk1::allocator<hook274<(anonymous namespace)::hook274Parent>::loadPageFromUserInfo(GJUserScore*)::{lambda(geode::Task<geode::utils::web::WebResponse, geode::utils::web::WebProgress>::Event*)#1}::operator()(geode::Task<geode::utils::web::WebResponse, geode::utils::web::WebProgress>::Event*) const::{lambda(cocos2d::CCObject*)#1}::operator()(cocos2d::CCObject*) const::{lambda(int)#1}::operator()(int) const::{lambda(std::__ndk1::basic_string<char, std::__ndk1::char_traits<char>, std::__ndk1::allocator<char> >)#1}>, void (std::__ndk1::basic_string<char, std::__ndk1::char_traits<char>, std::__ndk1::allocator<char> > const&)>::~__func()
FUNC 46404 20 0 std::__ndk1::__function::__func<hook274<(anonymous namespace)::hook274Parent>::loadPageFromUserInfo(GJUserScore*)::{lambda(geode::Task<geode::utils::web::WebResponse, geode::utils::web::WebProgress>::Event*)#1}::operator()(geode::Task<geode::utils::web::WebResponse, geode::utils::web::WebProgress>::Event*) const::{lambda(cocos2d::CCObject*)#1}::operator()(cocos2d::CCObject*) const::{lambda(int)#1}::operator()(int) const::{lambda(std::__ndk1::basic_string<char, std::__ndk1::char_traits<char>, std::__ndk1::allocator<char> >)#1}, std::__ndk1::allocator<hook274<(anonymous namespace)::hook274Parent>::loadPageFromUserInfo(GJUserScore*)::{lambda(geode::Task<geode::utils::web::WebResponse, geode::utils::web::WebProgress>::Event*)#1}::operator()(geode::Task<geode::utils::web::WebResponse, geode::utils::web::WebProgress>::Event*) const::{lambda(cocos2d::CCObject*)#1}::operator()(cocos2d::CCObject*) const::{lambda(int)#1}::operator()(int) const::{lambda(std::__ndk1::basic_string<char, std::__ndk1::char_traits<char>, std::__ndk1::allocator<char> >)#1}>, void (std::__ndk1::basic_string<char, std::__ndk1::char_traits<char>, std::__ndk1::allocator<char> > const&)>::__clone() const
FUNC 46424 14 0 std::__ndk1::__function::__func<hook274<(anonymous namespace)::hook274Parent>::loadPageFromUserInfo(GJUserScore*)::{lambda(geode::Task<geode::utils::web::WebResponse, geode::utils::web::WebProgress>::Event*)#1}::operator()(geode::Task<geode::utils::web::WebResponse, geode::utils::web::WebProgress>::Event*) const::{lambda(cocos2d::CCObject*)#1}::operator()(cocos2d::CCObject*) const::{lambda(int)#1}::operator()(int) const::{lambda(std::__ndk1::basic_string<char, std::__ndk1::char_traits<char>, std::__ndk1::allocator<char> >)#1}, std::__ndk1::allocator<hook274<(anonymous namespace)::hook274Parent>::loadPageFromUserInfo(GJUserScore*)::{lambda(geode::Task<geode::utils::web::WebResponse, geode::utils::web::WebProgress>::Event*)#1}::operator()(geode::Task<geode::utils::web::WebResponse, geode::utils::web::WebProgress>::Event*) const::{lambda(cocos2d::CCObject*)#1}::operator()(cocos2d::CCObject*) const::{lambda(int)#1}::operator()(int) const::{lambda(std::__ndk1::basic_string<char, std::__ndk1::char_traits<char>, std::__ndk1::allocator<char> >)#1}>, void (std::__ndk1::basic_string<char, std::__ndk1::char_traits<char>, std::__ndk1::allocator<char> > const&)>::__clone(std::__ndk1::__function::__base<void (std::__ndk1::basic_string<char, std::__ndk1::char_traits<char>, std::__ndk1::allocator<char> > const&)>*) const
FUNC 46438 2 0 std::__ndk1::__function::__func<hook274<(anonymous namespace)::hook274Parent>::loadPageFromUserInfo(GJUserScore*)::{lambda(geode::Task<geode::utils::web::WebResponse, geode::utils::web::WebProgress>::Event*)#1}::operator()(geode::Task<geode::utils::web::WebResponse, geode::utils::web::WebProgress>::Event*) const::{lambda(cocos2d::CCObject*)#1}::operator()(cocos2d::CCObject*) const::{lambda(int)#1}::operator()(int) const::{lambda(std::__ndk1::basic_string<char, std::__ndk1::char_traits<char>, std::__ndk1::allocator<char> >)#1}, std::__ndk1::allocator<hook274<(anonymous namespace)::hook274Parent>::loadPageFromUserInfo(GJUserScore*)::{lambda(geode::Task<geode::utils::web::WebResponse, geode::utils::web::WebProgress>::Event*)#1}::operator()(geode::Task<geode::utils::web::WebResponse, geode::utils::web::WebProgress>::Event*) const::{lambda(cocos2d::CCObject*)#1}::operator()(cocos2d::CCObject*) const::{lambda(int)#1}::operator()(int) const::{lambda(std::__ndk1::basic_string<char, std::__ndk1::char_traits<char>, std::__ndk1::allocator<char> >)#1}>, void (std::__ndk1::basic_string<char, std::__ndk1::char_traits<char>, std::__ndk1::allocator<char> > const&)>::destroy()
FUNC 4643a 4 0 std::__ndk1::__function::__func<hook274<(anonymous namespace)::hook274Parent>::loadPageFromUserInfo(GJUserScore*)::{lambda(geode::Task<geode::utils::web::WebResponse, geode::utils::web::WebProgress>::Event*)#1}::operator()(geode::Task<geode::utils::web::WebResponse, geode::utils::web::WebProgress>::Event*) const::{lambda(cocos2d::CCObject*)#1}::operator()(cocos2d::CCObject*) const::{lambda(int)#1}::operator()(int) const::{lambda(std::__ndk1::basic_string<char, std::__ndk1::char_traits<char>, std::__ndk1::allocator<char> >)#1}, std::__ndk1::allocator<hook274<(anonymous namespace)::hook274Parent>::loadPageFromUserInfo(GJUserScore*)::{lambda(geode::Task<geode::utils::web::WebResponse, geode::utils::web::WebProgress>::Event*)#1}::operator()(geode::Task<geode::utils::web::WebResponse, geode::utils::web::WebProgress>::Event*) const::{lambda(cocos2d::CCObject*)#1}::operator()(cocos2d::CCObject*) const::{lambda(int)#1}::operator()(int) const::{lambda(std::__ndk1::basic_string<char, std::__ndk1::char_traits<char>, std::__ndk1::allocator<char> >)#1}>, void (std::__ndk1::basic_string<char, std::__ndk1::char_traits<char>, std::__ndk1::allocator<char> > const&)>::destroy_deallocate()
FUNC 46440 134 0 std::__ndk1::__function::__func<hook274<(anonymous namespace)::hook274Parent>::loadPageFromUserInfo(GJUserScore*)::{lambda(geode::Task<geode::utils::web::WebResponse, geode::utils::web::WebProgress>::Event*)#1}::operator()(geode::Task<geode::utils::web::WebResponse, geode::utils::web::WebProgress>::Event*) const::{lambda(cocos2d::CCObject*)#1}::operator()(cocos2d::CCObject*) const::{lambda(int)#1}::operator()(int) const::{lambda(std::__ndk1::basic_string<char, std::__ndk1::char_traits<char>, std::__ndk1::allocator<char> >)#1}, std::__ndk1::allocator<hook274<(anonymous namespace)::hook274Parent>::loadPageFromUserInfo(GJUserScore*)::{lambda(geode::Task<geode::utils::web::WebResponse, geode::utils::web::WebProgress>::Event*)#1}::operator()(geode::Task<geode::utils::web::WebResponse, geode::utils::web::WebProgress>::Event*) const::{lambda(cocos2d::CCObject*)#1}::operator()(cocos2d::CCObject*) const::{lambda(int)#1}::operator()(int) const::{lambda(std::__ndk1::basic_string<char, std::__ndk1::char_traits<char>, std::__ndk1::allocator<char> >)#1}>, void (std::__ndk1::basic_string<char, std::__ndk1::char_traits<char>, std::__ndk1::allocator<char> > const&)>::operator()(std::__ndk1::basic_string<char, std::__ndk1::char_traits<char>, std::__ndk1::allocator<char> > const&)
FUNC 46574 18 0 std::__ndk1::__function::__func<hook274<(anonymous namespace)::hook274Parent>::loadPageFromUserInfo(GJUserScore*)::{lambda(geode::Task<geode::utils::web::WebResponse, geode::utils::web::WebProgress>::Event*)#1}::operator()(geode::Task<geode::utils::web::WebResponse, geode::utils::web::WebProgress>::Event*) const::{lambda(cocos2d::CCObject*)#1}::operator()(cocos2d::CCObject*) const::{lambda(int)#1}::operator()(int) const::{lambda(std::__ndk1::basic_string<char, std::__ndk1::char_traits<char>, std::__ndk1::allocator<char> >)#1}, std::__ndk1::allocator<hook274<(anonymous namespace)::hook274Parent>::loadPageFromUserInfo(GJUserScore*)::{lambda(geode::Task<geode::utils::web::WebResponse, geode::utils::web::WebProgress>::Event*)#1}::operator()(geode::Task<geode::utils::web::WebResponse, geode::utils::web::WebProgress>::Event*) const::{lambda(cocos2d::CCObject*)#1}::operator()(cocos2d::CCObject*) const::{lambda(int)#1}::operator()(int) const::{lambda(std::__ndk1::basic_string<char, std::__ndk1::char_traits<char>, std::__ndk1::allocator<char> >)#1}>, void (std::__ndk1::basic_string<char, std::__ndk1::char_traits<char>, std::__ndk1::allocator<char> > const&)>::target(std::type_info const&) const
FUNC 4658c c 0 std::__ndk1::__function::__func<hook274<(anonymous namespace)::hook274Parent>::loadPageFromUserInfo(GJUserScore*)::{lambda(geode::Task<geode::utils::web::WebResponse, geode::utils::web::WebProgress>::Event*)#1}::operator()(geode::Task<geode::utils::web::WebResponse, geode::utils::web::WebProgress>::Event*) const::{lambda(cocos2d::CCObject*)#1}::operator()(cocos2d::CCObject*) const::{lambda(int)#1}::operator()(int) const::{lambda(std::__ndk1::basic_string<char, std::__ndk1::char_traits<char>, std::__ndk1::allocator<char> >)#1}, std::__ndk1::allocator<hook274<(anonymous namespace)::hook274Parent>::loadPageFromUserInfo(GJUserScore*)::{lambda(geode::Task<geode::utils::web::WebResponse, geode::utils::web::WebProgress>::Event*)#1}::operator()(geode::Task<geode::utils::web::WebResponse, geode::utils::web::WebProgress>::Event*) const::{lambda(cocos2d::CCObject*)#1}::operator()(cocos2d::CCObject*) const::{lambda(int)#1}::operator()(int) const::{lambda(std::__ndk1::basic_string<char, std::__ndk1::char_traits<char>, std::__ndk1::allocator<char> >)#1}>, void (std::__ndk1::basic_string<char, std::__ndk1::char_traits<char>, std::__ndk1::allocator<char> > const&)>::target_type() const
FUNC 46598 2 0 std::__ndk1::__function::__base<void (std::__ndk1::basic_string<char, std::__ndk1::char_traits<char>, std::__ndk1::allocator<char> > const&)>::~__base()
FUNC 4659a 4 0 std::__ndk1::__function::__func<hook274<(anonymous namespace)::hook274Parent>::loadPageFromUserInfo(GJUserScore*)::{lambda(geode::Task<geode::utils::web::WebResponse, geode::utils::web::WebProgress>::Event*)#1}::operator()(geode::Task<geode::utils::web::WebResponse, geode::utils::web::WebProgress>::Event*) const::{lambda(cocos2d::CCObject*)#1}::operator()(cocos2d::CCObject*) const::{lambda(int)#1}::operator()(int) const::{lambda(std::__ndk1::basic_string<char, std::__ndk1::char_traits<char>, std::__ndk1::allocator<char> > const&)#1}, std::__ndk1::allocator<hook274<(anonymous namespace)::hook274Parent>::loadPageFromUserInfo(GJUserScore*)::{lambda(geode::Task<geode::utils::web::WebResponse, geode::utils::web::WebProgress>::Event*)#1}::operator()(geode::Task<geode::utils::web::WebResponse, geode::utils::web::WebProgress>::Event*) const::{lambda(cocos2d::CCObject*)#1}::operator()(cocos2d::CCObject*) const::{lambda(int)#1}::operator()(int) const::{lambda(std::__ndk1::basic_string<char, std::__ndk1::char_traits<char>, std::__ndk1::allocator<char> > const&)#1}>, void (std::__ndk1::basic_string<char, std::__ndk1::char_traits<char>, std::__ndk1::allocator<char> > const&)>::~__func()
FUNC 465a0 20 0 std::__ndk1::__function::__func<hook274<(anonymous namespace)::hook274Parent>::loadPageFromUserInfo(GJUserScore*)::{lambda(geode::Task<geode::utils::web::WebResponse, geode::utils::web::WebProgress>::Event*)#1}::operator()(geode::Task<geode::utils::web::WebResponse, geode::utils::web::WebProgress>::Event*) const::{lambda(cocos2d::CCObject*)#1}::operator()(cocos2d::CCObject*) const::{lambda(int)#1}::operator()(int) const::{lambda(std::__ndk1::basic_string<char, std::__ndk1::char_traits<char>, std::__ndk1::allocator<char> > const&)#1}, std::__ndk1::allocator<hook274<(anonymous namespace)::hook274Parent>::loadPageFromUserInfo(GJUserScore*)::{lambda(geode::Task<geode::utils::web::WebResponse, geode::utils::web::WebProgress>::Event*)#1}::operator()(geode::Task<geode::utils::web::WebResponse, geode::utils::web::WebProgress>::Event*) const::{lambda(cocos2d::CCObject*)#1}::operator()(cocos2d::CCObject*) const::{lambda(int)#1}::operator()(int) const::{lambda(std::__ndk1::basic_string<char, std::__ndk1::char_traits<char>, std::__ndk1::allocator<char> > const&)#1}>, void (std::__ndk1::basic_string<char, std::__ndk1::char_traits<char>, std::__ndk1::allocator<char> > const&)>::__clone() const
FUNC 465c0 18 0 std::__ndk1::__function::__func<hook274<(anonymous namespace)::hook274Parent>::loadPageFromUserInfo(GJUserScore*)::{lambda(geode::Task<geode::utils::web::WebResponse, geode::utils::web::WebProgress>::Event*)#1}::operator()(geode::Task<geode::utils::web::WebResponse, geode::utils::web::WebProgress>::Event*) const::{lambda(cocos2d::CCObject*)#1}::operator()(cocos2d::CCObject*) const::{lambda(int)#1}::operator()(int) const::{lambda(std::__ndk1::basic_string<char, std::__ndk1::char_traits<char>, std::__ndk1::allocator<char> > const&)#1}, std::__ndk1::allocator<hook274<(anonymous namespace)::hook274Parent>::loadPageFromUserInfo(GJUserScore*)::{lambda(geode::Task<geode::utils::web::WebResponse, geode::utils::web::WebProgress>::Event*)#1}::operator()(geode::Task<geode::utils::web::WebResponse, geode::utils::web::WebProgress>::Event*) const::{lambda(cocos2d::CCObject*)#1}::operator()(cocos2d::CCObject*) const::{lambda(int)#1}::operator()(int) const::{lambda(std::__ndk1::basic_string<char, std::__ndk1::char_traits<char>, std::__ndk1::allocator<char> > const&)#1}>, void (std::__ndk1::basic_string<char, std::__ndk1::char_traits<char>, std::__ndk1::allocator<char> > const&)>::__clone(std::__ndk1::__function::__base<void (std::__ndk1::basic_string<char, std::__ndk1::char_traits<char>, std::__ndk1::allocator<char> > const&)>*) const
FUNC 465d8 2 0 std::__ndk1::__function::__func<hook274<(anonymous namespace)::hook274Parent>::loadPageFromUserInfo(GJUserScore*)::{lambda(geode::Task<geode::utils::web::WebResponse, geode::utils::web::WebProgress>::Event*)#1}::operator()(geode::Task<geode::utils::web::WebResponse, geode::utils::web::WebProgress>::Event*) const::{lambda(cocos2d::CCObject*)#1}::operator()(cocos2d::CCObject*) const::{lambda(int)#1}::operator()(int) const::{lambda(std::__ndk1::basic_string<char, std::__ndk1::char_traits<char>, std::__ndk1::allocator<char> > const&)#1}, std::__ndk1::allocator<hook274<(anonymous namespace)::hook274Parent>::loadPageFromUserInfo(GJUserScore*)::{lambda(geode::Task<geode::utils::web::WebResponse, geode::utils::web::WebProgress>::Event*)#1}::operator()(geode::Task<geode::utils::web::WebResponse, geode::utils::web::WebProgress>::Event*) const::{lambda(cocos2d::CCObject*)#1}::operator()(cocos2d::CCObject*) const::{lambda(int)#1}::operator()(int) const::{lambda(std::__ndk1::basic_string<char, std::__ndk1::char_traits<char>, std::__ndk1::allocator<char> > const&)#1}>, void (std::__ndk1::basic_string<char, std::__ndk1::char_traits<char>, std::__ndk1::allocator<char> > const&)>::destroy()
FUNC 465da 4 0 std::__ndk1::__function::__func<hook274<(anonymous namespace)::hook274Parent>::loadPageFromUserInfo(GJUserScore*)::{lambda(geode::Task<geode::utils::web::WebResponse, geode::utils::web::WebProgress>::Event*)#1}::operator()(geode::Task<geode::utils::web::WebResponse, geode::utils::web::WebProgress>::Event*) const::{lambda(cocos2d::CCObject*)#1}::operator()(cocos2d::CCObject*) const::{lambda(int)#1}::operator()(int) const::{lambda(std::__ndk1::basic_string<char, std::__ndk1::char_traits<char>, std::__ndk1::allocator<char> > const&)#1}, std::__ndk1::allocator<hook274<(anonymous namespace)::hook274Parent>::loadPageFromUserInfo(GJUserScore*)::{lambda(geode::Task<geode::utils::web::WebResponse, geode::utils::web::WebProgress>::Event*)#1}::operator()(geode::Task<geode::utils::web::WebResponse, geode::utils::web::WebProgress>::Event*) const::{lambda(cocos2d::CCObject*)#1}::operator()(cocos2d::CCObject*) const::{lambda(int)#1}::operator()(int) const::{lambda(std::__ndk1::basic_string<char, std::__ndk1::char_traits<char>, std::__ndk1::allocator<char> > const&)#1}>, void (std::__ndk1::basic_string<char, std::__ndk1::char_traits<char>, std::__ndk1::allocator<char> > const&)>::destroy_deallocate()
FUNC 465e0 d0 0 std::__ndk1::__function::__func<hook274<(anonymous namespace)::hook274Parent>::loadPageFromUserInfo(GJUserScore*)::{lambda(geode::Task<geode::utils::web::WebResponse, geode::utils::web::WebProgress>::Event*)#1}::operator()(geode::Task<geode::utils::web::WebResponse, geode::utils::web::WebProgress>::Event*) const::{lambda(cocos2d::CCObject*)#1}::operator()(cocos2d::CCObject*) const::{lambda(int)#1}::operator()(int) const::{lambda(std::__ndk1::basic_string<char, std::__ndk1::char_traits<char>, std::__ndk1::allocator<char> > const&)#1}, std::__ndk1::allocator<hook274<(anonymous namespace)::hook274Parent>::loadPageFromUserInfo(GJUserScore*)::{lambda(geode::Task<geode::utils::web::WebResponse, geode::utils::web::WebProgress>::Event*)#1}::operator()(geode::Task<geode::utils::web::WebResponse, geode::utils::web::WebProgress>::Event*) const::{lambda(cocos2d::CCObject*)#1}::operator()(cocos2d::CCObject*) const::{lambda(int)#1}::operator()(int) const::{lambda(std::__ndk1::basic_string<char, std::__ndk1::char_traits<char>, std::__ndk1::allocator<char> > const&)#1}>, void (std::__ndk1::basic_string<char, std::__ndk1::char_traits<char>, std::__ndk1::allocator<char> > const&)>::operator()(std::__ndk1::basic_string<char, std::__ndk1::char_traits<char>, std::__ndk1::allocator<char> > const&)
FUNC 466b0 18 0 std::__ndk1::__function::__func<hook274<(anonymous namespace)::hook274Parent>::loadPageFromUserInfo(GJUserScore*)::{lambda(geode::Task<geode::utils::web::WebResponse, geode::utils::web::WebProgress>::Event*)#1}::operator()(geode::Task<geode::utils::web::WebResponse, geode::utils::web::WebProgress>::Event*) const::{lambda(cocos2d::CCObject*)#1}::operator()(cocos2d::CCObject*) const::{lambda(int)#1}::operator()(int) const::{lambda(std::__ndk1::basic_string<char, std::__ndk1::char_traits<char>, std::__ndk1::allocator<char> > const&)#1}, std::__ndk1::allocator<hook274<(anonymous namespace)::hook274Parent>::loadPageFromUserInfo(GJUserScore*)::{lambda(geode::Task<geode::utils::web::WebResponse, geode::utils::web::WebProgress>::Event*)#1}::operator()(geode::Task<geode::utils::web::WebResponse, geode::utils::web::WebProgress>::Event*) const::{lambda(cocos2d::CCObject*)#1}::operator()(cocos2d::CCObject*) const::{lambda(int)#1}::operator()(int) const::{lambda(std::__ndk1::basic_string<char, std::__ndk1::char_traits<char>, std::__ndk1::allocator<char> > const&)#1}>, void (std::__ndk1::basic_string<char, std::__ndk1::char_traits<char>, std::__ndk1::allocator<char> > const&)>::target(std::type_info const&) const
FUNC 466c8 c 0 std::__ndk1::__function::__func<hook274<(anonymous namespace)::hook274Parent>::loadPageFromUserInfo(GJUserScore*)::{lambda(geode::Task<geode::utils::web::WebResponse, geode::utils::web::WebProgress>::Event*)#1}::operator()(geode::Task<geode::utils::web::WebResponse, geode::utils::web::WebProgress>::Event*) const::{lambda(cocos2d::CCObject*)#1}::operator()(cocos2d::CCObject*) const::{lambda(int)#1}::operator()(int) const::{lambda(std::__ndk1::basic_string<char, std::__ndk1::char_traits<char>, std::__ndk1::allocator<char> > const&)#1}, std::__ndk1::allocator<hook274<(anonymous namespace)::hook274Parent>::loadPageFromUserInfo(GJUserScore*)::{lambda(geode::Task<geode::utils::web::WebResponse, geode::utils::web::WebProgress>::Event*)#1}::operator()(geode::Task<geode::utils::web::WebResponse, geode::utils::web::WebProgress>::Event*) const::{lambda(cocos2d::CCObject*)#1}::operator()(cocos2d::CCObject*) const::{lambda(int)#1}::operator()(int) const::{lambda(std::__ndk1::basic_string<char, std::__ndk1::char_traits<char>, std::__ndk1::allocator<char> > const&)#1}>, void (std::__ndk1::basic_string<char, std::__ndk1::char_traits<char>, std::__ndk1::allocator<char> > const&)>::target_type() const
FUNC 466d4 4 0 std::__ndk1::__function::__func<hook274<(anonymous namespace)::hook274Parent>::loadPageFromUserInfo(GJUserScore*)::{lambda(geode::Task<geode::utils::web::WebResponse, geode::utils::web::WebProgress>::Event*)#1}::operator()(geode::Task<geode::utils::web::WebResponse, geode::utils::web::WebProgress>::Event*) const::{lambda(cocos2d::CCObject*)#1}::operator()(cocos2d::CCObject*) const::{lambda(int)#1}::operator()(int) const::{lambda(std::__ndk1::basic_string<char, std::__ndk1::char_traits<char>, std::__ndk1::allocator<char> > const&)#1}::operator()(std::__ndk1::basic_string<char, std::__ndk1::char_traits<char>, std::__ndk1::allocator<char> > const&) const::{lambda(int)#1}, std::__ndk1::allocator<hook274<(anonymous namespace)::hook274Parent>::loadPageFromUserInfo(GJUserScore*)::{lambda(geode::Task<geode::utils::web::WebResponse, geode::utils::web::WebProgress>::Event*)#1}::operator()(geode::Task<geode::utils::web::WebResponse, geode::utils::web::WebProgress>::Event*) const::{lambda(cocos2d::CCObject*)#1}::operator()(cocos2d::CCObject*) const::{lambda(int)#1}::operator()(int) const::{lambda(std::__ndk1::basic_string<char, std::__ndk1::char_traits<char>, std::__ndk1::allocator<char> > const&)#1}::operator()(std::__ndk1::basic_string<char, std::__ndk1::char_traits<char>, std::__ndk1::allocator<char> > const&) const::{lambda(int)#1}>, void (int)>::~__func()
FUNC 466d8 20 0 std::__ndk1::__function::__func<hook274<(anonymous namespace)::hook274Parent>::loadPageFromUserInfo(GJUserScore*)::{lambda(geode::Task<geode::utils::web::WebResponse, geode::utils::web::WebProgress>::Event*)#1}::operator()(geode::Task<geode::utils::web::WebResponse, geode::utils::web::WebProgress>::Event*) const::{lambda(cocos2d::CCObject*)#1}::operator()(cocos2d::CCObject*) const::{lambda(int)#1}::operator()(int) const::{lambda(std::__ndk1::basic_string<char, std::__ndk1::char_traits<char>, std::__ndk1::allocator<char> > const&)#1}::operator()(std::__ndk1::basic_string<char, std::__ndk1::char_traits<char>, std::__ndk1::allocator<char> > const&) const::{lambda(int)#1}, std::__ndk1::allocator<hook274<(anonymous namespace)::hook274Parent>::loadPageFromUserInfo(GJUserScore*)::{lambda(geode::Task<geode::utils::web::WebResponse, geode::utils::web::WebProgress>::Event*)#1}::operator()(geode::Task<geode::utils::web::WebResponse, geode::utils::web::WebProgress>::Event*) const::{lambda(cocos2d::CCObject*)#1}::operator()(cocos2d::CCObject*) const::{lambda(int)#1}::operator()(int) const::{lambda(std::__ndk1::basic_string<char, std::__ndk1::char_traits<char>, std::__ndk1::allocator<char> > const&)#1}::operator()(std::__ndk1::basic_string<char, std::__ndk1::char_traits<char>, std::__ndk1::allocator<char> > const&) const::{lambda(int)#1}>, void (int)>::__clone() const
FUNC 466f8 18 0 std::__ndk1::__function::__func<hook274<(anonymous namespace)::hook274Parent>::loadPageFromUserInfo(GJUserScore*)::{lambda(geode::Task<geode::utils::web::WebResponse, geode::utils::web::WebProgress>::Event*)#1}::operator()(geode::Task<geode::utils::web::WebResponse, geode::utils::web::WebProgress>::Event*) const::{lambda(cocos2d::CCObject*)#1}::operator()(cocos2d::CCObject*) const::{lambda(int)#1}::operator()(int) const::{lambda(std::__ndk1::basic_string<char, std::__ndk1::char_traits<char>, std::__ndk1::allocator<char> > const&)#1}::operator()(std::__ndk1::basic_string<char, std::__ndk1::char_traits<char>, std::__ndk1::allocator<char> > const&) const::{lambda(int)#1}, std::__ndk1::allocator<hook274<(anonymous namespace)::hook274Parent>::loadPageFromUserInfo(GJUserScore*)::{lambda(geode::Task<geode::utils::web::WebResponse, geode::utils::web::WebProgress>::Event*)#1}::operator()(geode::Task<geode::utils::web::WebResponse, geode::utils::web::WebProgress>::Event*) const::{lambda(cocos2d::CCObject*)#1}::operator()(cocos2d::CCObject*) const::{lambda(int)#1}::operator()(int) const::{lambda(std::__ndk1::basic_string<char, std::__ndk1::char_traits<char>, std::__ndk1::allocator<char> > const&)#1}::operator()(std::__ndk1::basic_string<char, std::__ndk1::char_traits<char>, std::__ndk1::allocator<char> > const&) const::{lambda(int)#1}>, void (int)>::__clone(std::__ndk1::__function::__base<void (int)>*) const
FUNC 46710 2 0 std::__ndk1::__function::__func<hook274<(anonymous namespace)::hook274Parent>::loadPageFromUserInfo(GJUserScore*)::{lambda(geode::Task<geode::utils::web::WebResponse, geode::utils::web::WebProgress>::Event*)#1}::operator()(geode::Task<geode::utils::web::WebResponse, geode::utils::web::WebProgress>::Event*) const::{lambda(cocos2d::CCObject*)#1}::operator()(cocos2d::CCObject*) const::{lambda(int)#1}::operator()(int) const::{lambda(std::__ndk1::basic_string<char, std::__ndk1::char_traits<char>, std::__ndk1::allocator<char> > const&)#1}::operator()(std::__ndk1::basic_string<char, std::__ndk1::char_traits<char>, std::__ndk1::allocator<char> > const&) const::{lambda(int)#1}, std::__ndk1::allocator<hook274<(anonymous namespace)::hook274Parent>::loadPageFromUserInfo(GJUserScore*)::{lambda(geode::Task<geode::utils::web::WebResponse, geode::utils::web::WebProgress>::Event*)#1}::operator()(geode::Task<geode::utils::web::WebResponse, geode::utils::web::WebProgress>::Event*) const::{lambda(cocos2d::CCObject*)#1}::operator()(cocos2d::CCObject*) const::{lambda(int)#1}::operator()(int) const::{lambda(std::__ndk1::basic_string<char, std::__ndk1::char_traits<char>, std::__ndk1::allocator<char> > const&)#1}::operator()(std::__ndk1::basic_string<char, std::__ndk1::char_traits<char>, std::__ndk1::allocator<char> > const&) const::{lambda(int)#1}>, void (int)>::destroy()
FUNC 46712 4 0 std::__ndk1::__function::__func<hook274<(anonymous namespace)::hook274Parent>::loadPageFromUserInfo(GJUserScore*)::{lambda(geode::Task<geode::utils::web::WebResponse, geode::utils::web::WebProgress>::Event*)#1}::operator()(geode::Task<geode::utils::web::WebResponse, geode::utils::web::WebProgress>::Event*) const::{lambda(cocos2d::CCObject*)#1}::operator()(cocos2d::CCObject*) const::{lambda(int)#1}::operator()(int) const::{lambda(std::__ndk1::basic_string<char, std::__ndk1::char_traits<char>, std::__ndk1::allocator<char> > const&)#1}::operator()(std::__ndk1::basic_string<char, std::__ndk1::char_traits<char>, std::__ndk1::allocator<char> > const&) const::{lambda(int)#1}, std::__ndk1::allocator<hook274<(anonymous namespace)::hook274Parent>::loadPageFromUserInfo(GJUserScore*)::{lambda(geode::Task<geode::utils::web::WebResponse, geode::utils::web::WebProgress>::Event*)#1}::operator()(geode::Task<geode::utils::web::WebResponse, geode::utils::web::WebProgress>::Event*) const::{lambda(cocos2d::CCObject*)#1}::operator()(cocos2d::CCObject*) const::{lambda(int)#1}::operator()(int) const::{lambda(std::__ndk1::basic_string<char, std::__ndk1::char_traits<char>, std::__ndk1::allocator<char> > const&)#1}::operator()(std::__ndk1::basic_string<char, std::__ndk1::char_traits<char>, std::__ndk1::allocator<char> > const&) const::{lambda(int)#1}>, void (int)>::destroy_deallocate()
FUNC 46718 12c 0 std::__ndk1::__function::__func<hook274<(anonymous namespace)::hook274Parent>::loadPageFromUserInfo(GJUserScore*)::{lambda(geode::Task<geode::utils::web::WebResponse, geode::utils::web::WebProgress>::Event*)#1}::operator()(geode::Task<geode::utils::web::WebResponse, geode::utils::web::WebProgress>::Event*) const::{lambda(cocos2d::CCObject*)#1}::operator()(cocos2d::CCObject*) const::{lambda(int)#1}::operator()(int) const::{lambda(std::__ndk1::basic_string<char, std::__ndk1::char_traits<char>, std::__ndk1::allocator<char> > const&)#1}::operator()(std::__ndk1::basic_string<char, std::__ndk1::char_traits<char>, std::__ndk1::allocator<char> > const&) const::{lambda(int)#1}, std::__ndk1::allocator<hook274<(anonymous namespace)::hook274Parent>::loadPageFromUserInfo(GJUserScore*)::{lambda(geode::Task<geode::utils::web::WebResponse, geode::utils::web::WebProgress>::Event*)#1}::operator()(geode::Task<geode::utils::web::WebResponse, geode::utils::web::WebProgress>::Event*) const::{lambda(cocos2d::CCObject*)#1}::operator()(cocos2d::CCObject*) const::{lambda(int)#1}::operator()(int) const::{lambda(std::__ndk1::basic_string<char, std::__ndk1::char_traits<char>, std::__ndk1::allocator<char> > const&)#1}::operator()(std::__ndk1::basic_string<char, std::__ndk1::char_traits<char>, std::__ndk1::allocator<char> > const&) const::{lambda(int)#1}>, void (int)>::operator()(int&&)
FUNC 46844 18 0 std::__ndk1::__function::__func<hook274<(anonymous namespace)::hook274Parent>::loadPageFromUserInfo(GJUserScore*)::{lambda(geode::Task<geode::utils::web::WebResponse, geode::utils::web::WebProgress>::Event*)#1}::operator()(geode::Task<geode::utils::web::WebResponse, geode::utils::web::WebProgress>::Event*) const::{lambda(cocos2d::CCObject*)#1}::operator()(cocos2d::CCObject*) const::{lambda(int)#1}::operator()(int) const::{lambda(std::__ndk1::basic_string<char, std::__ndk1::char_traits<char>, std::__ndk1::allocator<char> > const&)#1}::operator()(std::__ndk1::basic_string<char, std::__ndk1::char_traits<char>, std::__ndk1::allocator<char> > const&) const::{lambda(int)#1}, std::__ndk1::allocator<hook274<(anonymous namespace)::hook274Parent>::loadPageFromUserInfo(GJUserScore*)::{lambda(geode::Task<geode::utils::web::WebResponse, geode::utils::web::WebProgress>::Event*)#1}::operator()(geode::Task<geode::utils::web::WebResponse, geode::utils::web::WebProgress>::Event*) const::{lambda(cocos2d::CCObject*)#1}::operator()(cocos2d::CCObject*) const::{lambda(int)#1}::operator()(int) const::{lambda(std::__ndk1::basic_string<char, std::__ndk1::char_traits<char>, std::__ndk1::allocator<char> > const&)#1}::operator()(std::__ndk1::basic_string<char, std::__ndk1::char_traits<char>, std::__ndk1::allocator<char> > const&) const::{lambda(int)#1}>, void (int)>::target(std::type_info const&) const
FUNC 4685c c 0 std::__ndk1::__function::__func<hook274<(anonymous namespace)::hook274Parent>::loadPageFromUserInfo(GJUserScore*)::{lambda(geode::Task<geode::utils::web::WebResponse, geode::utils::web::WebProgress>::Event*)#1}::operator()(geode::Task<geode::utils::web::WebResponse, geode::utils::web::WebProgress>::Event*) const::{lambda(cocos2d::CCObject*)#1}::operator()(cocos2d::CCObject*) const::{lambda(int)#1}::operator()(int) const::{lambda(std::__ndk1::basic_string<char, std::__ndk1::char_traits<char>, std::__ndk1::allocator<char> > const&)#1}::operator()(std::__ndk1::basic_string<char, std::__ndk1::char_traits<char>, std::__ndk1::allocator<char> > const&) const::{lambda(int)#1}, std::__ndk1::allocator<hook274<(anonymous namespace)::hook274Parent>::loadPageFromUserInfo(GJUserScore*)::{lambda(geode::Task<geode::utils::web::WebResponse, geode::utils::web::WebProgress>::Event*)#1}::operator()(geode::Task<geode::utils::web::WebResponse, geode::utils::web::WebProgress>::Event*) const::{lambda(cocos2d::CCObject*)#1}::operator()(cocos2d::CCObject*) const::{lambda(int)#1}::operator()(int) const::{lambda(std::__ndk1::basic_string<char, std::__ndk1::char_traits<char>, std::__ndk1::allocator<char> > const&)#1}::operator()(std::__ndk1::basic_string<char, std::__ndk1::char_traits<char>, std::__ndk1::allocator<char> > const&) const::{lambda(int)#1}>, void (int)>::target_type() const
FUNC 46868 2 0 std::__ndk1::__function::__base<void (std::__ndk1::basic_string<char, std::__ndk1::char_traits<char>, std::__ndk1::allocator<char> >)>::~__base()
FUNC 4686a 4 0 std::__ndk1::__function::__func<hook274<(anonymous namespace)::hook274Parent>::loadPageFromUserInfo(GJUserScore*)::{lambda(geode::Task<geode::utils::web::WebResponse, geode::utils::web::WebProgress>::Event*)#1}::operator()(geode::Task<geode::utils::web::WebResponse, geode::utils::web::WebProgress>::Event*) const::{lambda(cocos2d::CCObject*)#1}::operator()(cocos2d::CCObject*) const::{lambda(int)#1}::operator()(int) const::{lambda(std::__ndk1::basic_string<char, std::__ndk1::char_traits<char>, std::__ndk1::allocator<char> >)#2}, std::__ndk1::allocator<hook274<(anonymous namespace)::hook274Parent>::loadPageFromUserInfo(GJUserScore*)::{lambda(geode::Task<geode::utils::web::WebResponse, geode::utils::web::WebProgress>::Event*)#1}::operator()(geode::Task<geode::utils::web::WebResponse, geode::utils::web::WebProgress>::Event*) const::{lambda(cocos2d::CCObject*)#1}::operator()(cocos2d::CCObject*) const::{lambda(int)#1}::operator()(int) const::{lambda(std::__ndk1::basic_string<char, std::__ndk1::char_traits<char>, std::__ndk1::allocator<char> >)#2}>, void (std::__ndk1::basic_string<char, std::__ndk1::char_traits<char>, std::__ndk1::allocator<char> >)>::~__func()
FUNC 46870 20 0 std::__ndk1::__function::__func<hook274<(anonymous namespace)::hook274Parent>::loadPageFromUserInfo(GJUserScore*)::{lambda(geode::Task<geode::utils::web::WebResponse, geode::utils::web::WebProgress>::Event*)#1}::operator()(geode::Task<geode::utils::web::WebResponse, geode::utils::web::WebProgress>::Event*) const::{lambda(cocos2d::CCObject*)#1}::operator()(cocos2d::CCObject*) const::{lambda(int)#1}::operator()(int) const::{lambda(std::__ndk1::basic_string<char, std::__ndk1::char_traits<char>, std::__ndk1::allocator<char> >)#2}, std::__ndk1::allocator<hook274<(anonymous namespace)::hook274Parent>::loadPageFromUserInfo(GJUserScore*)::{lambda(geode::Task<geode::utils::web::WebResponse, geode::utils::web::WebProgress>::Event*)#1}::operator()(geode::Task<geode::utils::web::WebResponse, geode::utils::web::WebProgress>::Event*) const::{lambda(cocos2d::CCObject*)#1}::operator()(cocos2d::CCObject*) const::{lambda(int)#1}::operator()(int) const::{lambda(std::__ndk1::basic_string<char, std::__ndk1::char_traits<char>, std::__ndk1::allocator<char> >)#2}>, void (std::__ndk1::basic_string<char, std::__ndk1::char_traits<char>, std::__ndk1::allocator<char> >)>::__clone() const
FUNC 46890 18 0 std::__ndk1::__function::__func<hook274<(anonymous namespace)::hook274Parent>::loadPageFromUserInfo(GJUserScore*)::{lambda(geode::Task<geode::utils::web::WebResponse, geode::utils::web::WebProgress>::Event*)#1}::operator()(geode::Task<geode::utils::web::WebResponse, geode::utils::web::WebProgress>::Event*) const::{lambda(cocos2d::CCObject*)#1}::operator()(cocos2d::CCObject*) const::{lambda(int)#1}::operator()(int) const::{lambda(std::__ndk1::basic_string<char, std::__ndk1::char_traits<char>, std::__ndk1::allocator<char> >)#2}, std::__ndk1::allocator<hook274<(anonymous namespace)::hook274Parent>::loadPageFromUserInfo(GJUserScore*)::{lambda(geode::Task<geode::utils::web::WebResponse, geode::utils::web::WebProgress>::Event*)#1}::operator()(geode::Task<geode::utils::web::WebResponse, geode::utils::web::WebProgress>::Event*) const::{lambda(cocos2d::CCObject*)#1}::operator()(cocos2d::CCObject*) const::{lambda(int)#1}::operator()(int) const::{lambda(std::__ndk1::basic_string<char, std::__ndk1::char_traits<char>, std::__ndk1::allocator<char> >)#2}>, void (std::__ndk1::basic_string<char, std::__ndk1::char_traits<char>, std::__ndk1::allocator<char> >)>::__clone(std::__ndk1::__function::__base<void (std::__ndk1::basic_string<char, std::__ndk1::char_traits<char>, std::__ndk1::allocator<char> >)>*) const
FUNC 468a8 2 0 std::__ndk1::__function::__func<hook274<(anonymous namespace)::hook274Parent>::loadPageFromUserInfo(GJUserScore*)::{lambda(geode::Task<geode::utils::web::WebResponse, geode::utils::web::WebProgress>::Event*)#1}::operator()(geode::Task<geode::utils::web::WebResponse, geode::utils::web::WebProgress>::Event*) const::{lambda(cocos2d::CCObject*)#1}::operator()(cocos2d::CCObject*) const::{lambda(int)#1}::operator()(int) const::{lambda(std::__ndk1::basic_string<char, std::__ndk1::char_traits<char>, std::__ndk1::allocator<char> >)#2}, std::__ndk1::allocator<hook274<(anonymous namespace)::hook274Parent>::loadPageFromUserInfo(GJUserScore*)::{lambda(geode::Task<geode::utils::web::WebResponse, geode::utils::web::WebProgress>::Event*)#1}::operator()(geode::Task<geode::utils::web::WebResponse, geode::utils::web::WebProgress>::Event*) const::{lambda(cocos2d::CCObject*)#1}::operator()(cocos2d::CCObject*) const::{lambda(int)#1}::operator()(int) const::{lambda(std::__ndk1::basic_string<char, std::__ndk1::char_traits<char>, std::__ndk1::allocator<char> >)#2}>, void (std::__ndk1::basic_string<char, std::__ndk1::char_traits<char>, std::__ndk1::allocator<char> >)>::destroy()
FUNC 468aa 4 0 std::__ndk1::__function::__func<hook274<(anonymous namespace)::hook274Parent>::loadPageFromUserInfo(GJUserScore*)::{lambda(geode::Task<geode::utils::web::WebResponse, geode::utils::web::WebProgress>::Event*)#1}::operator()(geode::Task<geode::utils::web::WebResponse, geode::utils::web::WebProgress>::Event*) const::{lambda(cocos2d::CCObject*)#1}::operator()(cocos2d::CCObject*) const::{lambda(int)#1}::operator()(int) const::{lambda(std::__ndk1::basic_string<char, std::__ndk1::char_traits<char>, std::__ndk1::allocator<char> >)#2}, std::__ndk1::allocator<hook274<(anonymous namespace)::hook274Parent>::loadPageFromUserInfo(GJUserScore*)::{lambda(geode::Task<geode::utils::web::WebResponse, geode::utils::web::WebProgress>::Event*)#1}::operator()(geode::Task<geode::utils::web::WebResponse, geode::utils::web::WebProgress>::Event*) const::{lambda(cocos2d::CCObject*)#1}::operator()(cocos2d::CCObject*) const::{lambda(int)#1}::operator()(int) const::{lambda(std::__ndk1::basic_string<char, std::__ndk1::char_traits<char>, std::__ndk1::allocator<char> >)#2}>, void (std::__ndk1::basic_string<char, std::__ndk1::char_traits<char>, std::__ndk1::allocator<char> >)>::destroy_deallocate()
FUNC 468b0 110 0 std::__ndk1::__function::__func<hook274<(anonymous namespace)::hook274Parent>::loadPageFromUserInfo(GJUserScore*)::{lambda(geode::Task<geode::utils::web::WebResponse, geode::utils::web::WebProgress>::Event*)#1}::operator()(geode::Task<geode::utils::web::WebResponse, geode::utils::web::WebProgress>::Event*) const::{lambda(cocos2d::CCObject*)#1}::operator()(cocos2d::CCObject*) const::{lambda(int)#1}::operator()(int) const::{lambda(std::__ndk1::basic_string<char, std::__ndk1::char_traits<char>, std::__ndk1::allocator<char> >)#2}, std::__ndk1::allocator<hook274<(anonymous namespace)::hook274Parent>::loadPageFromUserInfo(GJUserScore*)::{lambda(geode::Task<geode::utils::web::WebResponse, geode::utils::web::WebProgress>::Event*)#1}::operator()(geode::Task<geode::utils::web::WebResponse, geode::utils::web::WebProgress>::Event*) const::{lambda(cocos2d::CCObject*)#1}::operator()(cocos2d::CCObject*) const::{lambda(int)#1}::operator()(int) const::{lambda(std::__ndk1::basic_string<char, std::__ndk1::char_traits<char>, std::__ndk1::allocator<char> >)#2}>, void (std::__ndk1::basic_string<char, std::__ndk1::char_traits<char>, std::__ndk1::allocator<char> >)>::operator()(std::__ndk1::basic_string<char, std::__ndk1::char_traits<char>, std::__ndk1::allocator<char> >&&)
FUNC 469c0 18 0 std::__ndk1::__function::__func<hook274<(anonymous namespace)::hook274Parent>::loadPageFromUserInfo(GJUserScore*)::{lambda(geode::Task<geode::utils::web::WebResponse, geode::utils::web::WebProgress>::Event*)#1}::operator()(geode::Task<geode::utils::web::WebResponse, geode::utils::web::WebProgress>::Event*) const::{lambda(cocos2d::CCObject*)#1}::operator()(cocos2d::CCObject*) const::{lambda(int)#1}::operator()(int) const::{lambda(std::__ndk1::basic_string<char, std::__ndk1::char_traits<char>, std::__ndk1::allocator<char> >)#2}, std::__ndk1::allocator<hook274<(anonymous namespace)::hook274Parent>::loadPageFromUserInfo(GJUserScore*)::{lambda(geode::Task<geode::utils::web::WebResponse, geode::utils::web::WebProgress>::Event*)#1}::operator()(geode::Task<geode::utils::web::WebResponse, geode::utils::web::WebProgress>::Event*) const::{lambda(cocos2d::CCObject*)#1}::operator()(cocos2d::CCObject*) const::{lambda(int)#1}::operator()(int) const::{lambda(std::__ndk1::basic_string<char, std::__ndk1::char_traits<char>, std::__ndk1::allocator<char> >)#2}>, void (std::__ndk1::basic_string<char, std::__ndk1::char_traits<char>, std::__ndk1::allocator<char> >)>::target(std::type_info const&) const
FUNC 469d8 c 0 std::__ndk1::__function::__func<hook274<(anonymous namespace)::hook274Parent>::loadPageFromUserInfo(GJUserScore*)::{lambda(geode::Task<geode::utils::web::WebResponse, geode::utils::web::WebProgress>::Event*)#1}::operator()(geode::Task<geode::utils::web::WebResponse, geode::utils::web::WebProgress>::Event*) const::{lambda(cocos2d::CCObject*)#1}::operator()(cocos2d::CCObject*) const::{lambda(int)#1}::operator()(int) const::{lambda(std::__ndk1::basic_string<char, std::__ndk1::char_traits<char>, std::__ndk1::allocator<char> >)#2}, std::__ndk1::allocator<hook274<(anonymous namespace)::hook274Parent>::loadPageFromUserInfo(GJUserScore*)::{lambda(geode::Task<geode::utils::web::WebResponse, geode::utils::web::WebProgress>::Event*)#1}::operator()(geode::Task<geode::utils::web::WebResponse, geode::utils::web::WebProgress>::Event*) const::{lambda(cocos2d::CCObject*)#1}::operator()(cocos2d::CCObject*) const::{lambda(int)#1}::operator()(int) const::{lambda(std::__ndk1::basic_string<char, std::__ndk1::char_traits<char>, std::__ndk1::allocator<char> >)#2}>, void (std::__ndk1::basic_string<char, std::__ndk1::char_traits<char>, std::__ndk1::allocator<char> >)>::target_type() const
FUNC 469e4 2 0 std::__ndk1::__function::__base<void (int)>::~__base()
FUNC 469e6 4 0 std::__ndk1::__function::__func<hook274<(anonymous namespace)::hook274Parent>::loadPageFromUserInfo(GJUserScore*)::{lambda(geode::Task<geode::utils::web::WebResponse, geode::utils::web::WebProgress>::Event*)#1}::operator()(geode::Task<geode::utils::web::WebResponse, geode::utils::web::WebProgress>::Event*) const::{lambda(cocos2d::CCObject*)#1}::operator()(cocos2d::CCObject*) const::{lambda(int)#1}::operator()(int) const::{lambda(std::__ndk1::basic_string<char, std::__ndk1::char_traits<char>, std::__ndk1::allocator<char> >(std::__ndk1::basic_string<char, std::__ndk1::char_traits<char>, std::__ndk1::allocator<char> >))#2}::operator() const::{lambda(int)#1}, std::__ndk1::allocator<hook274<(anonymous namespace)::hook274Parent>::loadPageFromUserInfo(GJUserScore*)::{lambda(geode::Task<geode::utils::web::WebResponse, geode::utils::web::WebProgress>::Event*)#1}::operator()(geode::Task<geode::utils::web::WebResponse, geode::utils::web::WebProgress>::Event*) const::{lambda(cocos2d::CCObject*)#1}::operator()(cocos2d::CCObject*) const::{lambda(int)#1}::operator()(int) const::{lambda(std::__ndk1::basic_string<char, std::__ndk1::char_traits<char>, std::__ndk1::allocator<char> >(std::__ndk1::basic_string<char, std::__ndk1::char_traits<char>, std::__ndk1::allocator<char> >))#2}::operator() const::{lambda(int)#1}>, void (int)>::~__func()
FUNC 469ec 20 0 std::__ndk1::__function::__func<hook274<(anonymous namespace)::hook274Parent>::loadPageFromUserInfo(GJUserScore*)::{lambda(geode::Task<geode::utils::web::WebResponse, geode::utils::web::WebProgress>::Event*)#1}::operator()(geode::Task<geode::utils::web::WebResponse, geode::utils::web::WebProgress>::Event*) const::{lambda(cocos2d::CCObject*)#1}::operator()(cocos2d::CCObject*) const::{lambda(int)#1}::operator()(int) const::{lambda(std::__ndk1::basic_string<char, std::__ndk1::char_traits<char>, std::__ndk1::allocator<char> >(std::__ndk1::basic_string<char, std::__ndk1::char_traits<char>, std::__ndk1::allocator<char> >))#2}::operator() const::{lambda(int)#1}, std::__ndk1::allocator<hook274<(anonymous namespace)::hook274Parent>::loadPageFromUserInfo(GJUserScore*)::{lambda(geode::Task<geode::utils::web::WebResponse, geode::utils::web::WebProgress>::Event*)#1}::operator()(geode::Task<geode::utils::web::WebResponse, geode::utils::web::WebProgress>::Event*) const::{lambda(cocos2d::CCObject*)#1}::operator()(cocos2d::CCObject*) const::{lambda(int)#1}::operator()(int) const::{lambda(std::__ndk1::basic_string<char, std::__ndk1::char_traits<char>, std::__ndk1::allocator<char> >(std::__ndk1::basic_string<char, std::__ndk1::char_traits<char>, std::__ndk1::allocator<char> >))#2}::operator() const::{lambda(int)#1}>, void (int)>::__clone() const
FUNC 46a0c 18 0 std::__ndk1::__function::__func<hook274<(anonymous namespace)::hook274Parent>::loadPageFromUserInfo(GJUserScore*)::{lambda(geode::Task<geode::utils::web::WebResponse, geode::utils::web::WebProgress>::Event*)#1}::operator()(geode::Task<geode::utils::web::WebResponse, geode::utils::web::WebProgress>::Event*) const::{lambda(cocos2d::CCObject*)#1}::operator()(cocos2d::CCObject*) const::{lambda(int)#1}::operator()(int) const::{lambda(std::__ndk1::basic_string<char, std::__ndk1::char_traits<char>, std::__ndk1::allocator<char> >(std::__ndk1::basic_string<char, std::__ndk1::char_traits<char>, std::__ndk1::allocator<char> >))#2}::operator() const::{lambda(int)#1}, std::__ndk1::allocator<hook274<(anonymous namespace)::hook274Parent>::loadPageFromUserInfo(GJUserScore*)::{lambda(geode::Task<geode::utils::web::WebResponse, geode::utils::web::WebProgress>::Event*)#1}::operator()(geode::Task<geode::utils::web::WebResponse, geode::utils::web::WebProgress>::Event*) const::{lambda(cocos2d::CCObject*)#1}::operator()(cocos2d::CCObject*) const::{lambda(int)#1}::operator()(int) const::{lambda(std::__ndk1::basic_string<char, std::__ndk1::char_traits<char>, std::__ndk1::allocator<char> >(std::__ndk1::basic_string<char, std::__ndk1::char_traits<char>, std::__ndk1::allocator<char> >))#2}::operator() const::{lambda(int)#1}>, void (int)>::__clone(std::__ndk1::__function::__base<void (int)>*) const
FUNC 46a24 2 0 std::__ndk1::__function::__func<hook274<(anonymous namespace)::hook274Parent>::loadPageFromUserInfo(GJUserScore*)::{lambda(geode::Task<geode::utils::web::WebResponse, geode::utils::web::WebProgress>::Event*)#1}::operator()(geode::Task<geode::utils::web::WebResponse, geode::utils::web::WebProgress>::Event*) const::{lambda(cocos2d::CCObject*)#1}::operator()(cocos2d::CCObject*) const::{lambda(int)#1}::operator()(int) const::{lambda(std::__ndk1::basic_string<char, std::__ndk1::char_traits<char>, std::__ndk1::allocator<char> >(std::__ndk1::basic_string<char, std::__ndk1::char_traits<char>, std::__ndk1::allocator<char> >))#2}::operator() const::{lambda(int)#1}, std::__ndk1::allocator<hook274<(anonymous namespace)::hook274Parent>::loadPageFromUserInfo(GJUserScore*)::{lambda(geode::Task<geode::utils::web::WebResponse, geode::utils::web::WebProgress>::Event*)#1}::operator()(geode::Task<geode::utils::web::WebResponse, geode::utils::web::WebProgress>::Event*) const::{lambda(cocos2d::CCObject*)#1}::operator()(cocos2d::CCObject*) const::{lambda(int)#1}::operator()(int) const::{lambda(std::__ndk1::basic_string<char, std::__ndk1::char_traits<char>, std::__ndk1::allocator<char> >(std::__ndk1::basic_string<char, std::__ndk1::char_traits<char>, std::__ndk1::allocator<char> >))#2}::operator() const::{lambda(int)#1}>, void (int)>::destroy()
FUNC 46a26 4 0 std::__ndk1::__function::__func<hook274<(anonymous namespace)::hook274Parent>::loadPageFromUserInfo(GJUserScore*)::{lambda(geode::Task<geode::utils::web::WebResponse, geode::utils::web::WebProgress>::Event*)#1}::operator()(geode::Task<geode::utils::web::WebResponse, geode::utils::web::WebProgress>::Event*) const::{lambda(cocos2d::CCObject*)#1}::operator()(cocos2d::CCObject*) const::{lambda(int)#1}::operator()(int) const::{lambda(std::__ndk1::basic_string<char, std::__ndk1::char_traits<char>, std::__ndk1::allocator<char> >(std::__ndk1::basic_string<char, std::__ndk1::char_traits<char>, std::__ndk1::allocator<char> >))#2}::operator() const::{lambda(int)#1}, std::__ndk1::allocator<hook274<(anonymous namespace)::hook274Parent>::loadPageFromUserInfo(GJUserScore*)::{lambda(geode::Task<geode::utils::web::WebResponse, geode::utils::web::WebProgress>::Event*)#1}::operator()(geode::Task<geode::utils::web::WebResponse, geode::utils::web::WebProgress>::Event*) const::{lambda(cocos2d::CCObject*)#1}::operator()(cocos2d::CCObject*) const::{lambda(int)#1}::operator()(int) const::{lambda(std::__ndk1::basic_string<char, std::__ndk1::char_traits<char>, std::__ndk1::allocator<char> >(std::__ndk1::basic_string<char, std::__ndk1::char_traits<char>, std::__ndk1::allocator<char> >))#2}::operator() const::{lambda(int)#1}>, void (int)>::destroy_deallocate()
FUNC 46a2c 12c 0 std::__ndk1::__function::__func<hook274<(anonymous namespace)::hook274Parent>::loadPageFromUserInfo(GJUserScore*)::{lambda(geode::Task<geode::utils::web::WebResponse, geode::utils::web::WebProgress>::Event*)#1}::operator()(geode::Task<geode::utils::web::WebResponse, geode::utils::web::WebProgress>::Event*) const::{lambda(cocos2d::CCObject*)#1}::operator()(cocos2d::CCObject*) const::{lambda(int)#1}::operator()(int) const::{lambda(std::__ndk1::basic_string<char, std::__ndk1::char_traits<char>, std::__ndk1::allocator<char> >(std::__ndk1::basic_string<char, std::__ndk1::char_traits<char>, std::__ndk1::allocator<char> >))#2}::operator() const::{lambda(int)#1}, std::__ndk1::allocator<hook274<(anonymous namespace)::hook274Parent>::loadPageFromUserInfo(GJUserScore*)::{lambda(geode::Task<geode::utils::web::WebResponse, geode::utils::web::WebProgress>::Event*)#1}::operator()(geode::Task<geode::utils::web::WebResponse, geode::utils::web::WebProgress>::Event*) const::{lambda(cocos2d::CCObject*)#1}::operator()(cocos2d::CCObject*) const::{lambda(int)#1}::operator()(int) const::{lambda(std::__ndk1::basic_string<char, std::__ndk1::char_traits<char>, std::__ndk1::allocator<char> >(std::__ndk1::basic_string<char, std::__ndk1::char_traits<char>, std::__ndk1::allocator<char> >))#2}::operator() const::{lambda(int)#1}>, void (int)>::operator()(int&&)
FUNC 46b58 18 0 std::__ndk1::__function::__func<hook274<(anonymous namespace)::hook274Parent>::loadPageFromUserInfo(GJUserScore*)::{lambda(geode::Task<geode::utils::web::WebResponse, geode::utils::web::WebProgress>::Event*)#1}::operator()(geode::Task<geode::utils::web::WebResponse, geode::utils::web::WebProgress>::Event*) const::{lambda(cocos2d::CCObject*)#1}::operator()(cocos2d::CCObject*) const::{lambda(int)#1}::operator()(int) const::{lambda(std::__ndk1::basic_string<char, std::__ndk1::char_traits<char>, std::__ndk1::allocator<char> >(std::__ndk1::basic_string<char, std::__ndk1::char_traits<char>, std::__ndk1::allocator<char> >))#2}::operator() const::{lambda(int)#1}, std::__ndk1::allocator<hook274<(anonymous namespace)::hook274Parent>::loadPageFromUserInfo(GJUserScore*)::{lambda(geode::Task<geode::utils::web::WebResponse, geode::utils::web::WebProgress>::Event*)#1}::operator()(geode::Task<geode::utils::web::WebResponse, geode::utils::web::WebProgress>::Event*) const::{lambda(cocos2d::CCObject*)#1}::operator()(cocos2d::CCObject*) const::{lambda(int)#1}::operator()(int) const::{lambda(std::__ndk1::basic_string<char, std::__ndk1::char_traits<char>, std::__ndk1::allocator<char> >(std::__ndk1::basic_string<char, std::__ndk1::char_traits<char>, std::__ndk1::allocator<char> >))#2}::operator() const::{lambda(int)#1}>, void (int)>::target(std::type_info const&) const
FUNC 46b70 c 0 std::__ndk1::__function::__func<hook274<(anonymous namespace)::hook274Parent>::loadPageFromUserInfo(GJUserScore*)::{lambda(geode::Task<geode::utils::web::WebResponse, geode::utils::web::WebProgress>::Event*)#1}::operator()(geode::Task<geode::utils::web::WebResponse, geode::utils::web::WebProgress>::Event*) const::{lambda(cocos2d::CCObject*)#1}::operator()(cocos2d::CCObject*) const::{lambda(int)#1}::operator()(int) const::{lambda(std::__ndk1::basic_string<char, std::__ndk1::char_traits<char>, std::__ndk1::allocator<char> >(std::__ndk1::basic_string<char, std::__ndk1::char_traits<char>, std::__ndk1::allocator<char> >))#2}::operator() const::{lambda(int)#1}, std::__ndk1::allocator<hook274<(anonymous namespace)::hook274Parent>::loadPageFromUserInfo(GJUserScore*)::{lambda(geode::Task<geode::utils::web::WebResponse, geode::utils::web::WebProgress>::Event*)#1}::operator()(geode::Task<geode::utils::web::WebResponse, geode::utils::web::WebProgress>::Event*) const::{lambda(cocos2d::CCObject*)#1}::operator()(cocos2d::CCObject*) const::{lambda(int)#1}::operator()(int) const::{lambda(std::__ndk1::basic_string<char, std::__ndk1::char_traits<char>, std::__ndk1::allocator<char> >(std::__ndk1::basic_string<char, std::__ndk1::char_traits<char>, std::__ndk1::allocator<char> >))#2}::operator() const::{lambda(int)#1}>, void (int)>::target_type() const
FUNC 46b7c e4 0 geode::Task<geode::utils::web::WebResponse, geode::utils::web::WebProgress>::cancel(std::__ndk1::shared_ptr<geode::Task<geode::utils::web::WebResponse, geode::utils::web::WebProgress>::Handle>, bool)
FUNC 46c60 3a 0 geode::Task<geode::utils::web::WebResponse, geode::utils::web::WebProgress>::cancel(std::__ndk1::shared_ptr<geode::Task<geode::utils::web::WebResponse, geode::utils::web::WebProgress>::Handle>, bool)::{lambda()#1}::~{lambda()#1}()
FUNC 46c9c 48 0 std::__ndk1::__function::__func<geode::Task<geode::utils::web::WebResponse, geode::utils::web::WebProgress>::cancel(std::__ndk1::shared_ptr<geode::Task<geode::utils::web::WebResponse, geode::utils::web::WebProgress>::Handle>, bool)::{lambda()#1}, std::__ndk1::allocator<geode::Task<geode::utils::web::WebResponse, geode::utils::web::WebProgress>::cancel(std::__ndk1::shared_ptr<geode::Task<geode::utils::web::WebResponse, geode::utils::web::WebProgress>::Handle>, bool)::{lambda()#1}>, void ()>::~__func()
FUNC 46ce4 54 0 std::__ndk1::__function::__func<geode::Task<geode::utils::web::WebResponse, geode::utils::web::WebProgress>::cancel(std::__ndk1::shared_ptr<geode::Task<geode::utils::web::WebResponse, geode::utils::web::WebProgress>::Handle>, bool)::{lambda()#1}, std::__ndk1::allocator<geode::Task<geode::utils::web::WebResponse, geode::utils::web::WebProgress>::cancel(std::__ndk1::shared_ptr<geode::Task<geode::utils::web::WebResponse, geode::utils::web::WebProgress>::Handle>, bool)::{lambda()#1}>, void ()>::~__func()
FUNC 46d38 38 0 std::__ndk1::__function::__func<geode::Task<geode::utils::web::WebResponse, geode::utils::web::WebProgress>::cancel(std::__ndk1::shared_ptr<geode::Task<geode::utils::web::WebResponse, geode::utils::web::WebProgress>::Handle>, bool)::{lambda()#1}, std::__ndk1::allocator<geode::Task<geode::utils::web::WebResponse, geode::utils::web::WebProgress>::cancel(std::__ndk1::shared_ptr<geode::Task<geode::utils::web::WebResponse, geode::utils::web::WebProgress>::Handle>, bool)::{lambda()#1}>, void ()>::__clone() const
FUNC 46d70 30 0 std::__ndk1::__function::__func<geode::Task<geode::utils::web::WebResponse, geode::utils::web::WebProgress>::cancel(std::__ndk1::shared_ptr<geode::Task<geode::utils::web::WebResponse, geode::utils::web::WebProgress>::Handle>, bool)::{lambda()#1}, std::__ndk1::allocator<geode::Task<geode::utils::web::WebResponse, geode::utils::web::WebProgress>::cancel(std::__ndk1::shared_ptr<geode::Task<geode::utils::web::WebResponse, geode::utils::web::WebProgress>::Handle>, bool)::{lambda()#1}>, void ()>::__clone(std::__ndk1::__function::__base<void ()>*) const
FUNC 46da0 3a 0 std::__ndk1::__function::__func<geode::Task<geode::utils::web::WebResponse, geode::utils::web::WebProgress>::cancel(std::__ndk1::shared_ptr<geode::Task<geode::utils::web::WebResponse, geode::utils::web::WebProgress>::Handle>, bool)::{lambda()#1}, std::__ndk1::allocator<geode::Task<geode::utils::web::WebResponse, geode::utils::web::WebProgress>::cancel(std::__ndk1::shared_ptr<geode::Task<geode::utils::web::WebResponse, geode::utils::web::WebProgress>::Handle>, bool)::{lambda()#1}>, void ()>::destroy()
FUNC 46dda 44 0 std::__ndk1::__function::__func<geode::Task<geode::utils::web::WebResponse, geode::utils::web::WebProgress>::cancel(std::__ndk1::shared_ptr<geode::Task<geode::utils::web::WebResponse, geode::utils::web::WebProgress>::Handle>, bool)::{lambda()#1}, std::__ndk1::allocator<geode::Task<geode::utils::web::WebResponse, geode::utils::web::WebProgress>::cancel(std::__ndk1::shared_ptr<geode::Task<geode::utils::web::WebResponse, geode::utils::web::WebProgress>::Handle>, bool)::{lambda()#1}>, void ()>::destroy_deallocate()
FUNC 46e1e 6 0 std::__ndk1::__function::__func<geode::Task<geode::utils::web::WebResponse, geode::utils::web::WebProgress>::cancel(std::__ndk1::shared_ptr<geode::Task<geode::utils::web::WebResponse, geode::utils::web::WebProgress>::Handle>, bool)::{lambda()#1}, std::__ndk1::allocator<geode::Task<geode::utils::web::WebResponse, geode::utils::web::WebProgress>::cancel(std::__ndk1::shared_ptr<geode::Task<geode::utils::web::WebResponse, geode::utils::web::WebProgress>::Handle>, bool)::{lambda()#1}>, void ()>::operator()()
FUNC 46e24 18 0 std::__ndk1::__function::__func<geode::Task<geode::utils::web::WebResponse, geode::utils::web::WebProgress>::cancel(std::__ndk1::shared_ptr<geode::Task<geode::utils::web::WebResponse, geode::utils::web::WebProgress>::Handle>, bool)::{lambda()#1}, std::__ndk1::allocator<geode::Task<geode::utils::web::WebResponse, geode::utils::web::WebProgress>::cancel(std::__ndk1::shared_ptr<geode::Task<geode::utils::web::WebResponse, geode::utils::web::WebProgress>::Handle>, bool)::{lambda()#1}>, void ()>::target(std::type_info const&) const
FUNC 46e3c c 0 std::__ndk1::__function::__func<geode::Task<geode::utils::web::WebResponse, geode::utils::web::WebProgress>::cancel(std::__ndk1::shared_ptr<geode::Task<geode::utils::web::WebResponse, geode::utils::web::WebProgress>::Handle>, bool)::{lambda()#1}, std::__ndk1::allocator<geode::Task<geode::utils::web::WebResponse, geode::utils::web::WebProgress>::cancel(std::__ndk1::shared_ptr<geode::Task<geode::utils::web::WebResponse, geode::utils::web::WebProgress>::Handle>, bool)::{lambda()#1}>, void ()>::target_type() const
FUNC 46e48 164 0 geode::Task<geode::utils::web::WebResponse, geode::utils::web::WebProgress>::cancel(std::__ndk1::shared_ptr<geode::Task<geode::utils::web::WebResponse, geode::utils::web::WebProgress>::Handle>, bool)::{lambda()#1}::operator()()
FUNC 46fb0 2fc 0 geode::modifier::ModifyDerive<hook409<(anonymous namespace)::hook409Parent>, EditorUI>::apply()
FUNC 472ac 2 0 geode::modifier::ModifyBase<geode::modifier::ModifyDerive<hook409<(anonymous namespace)::hook409Parent>, EditorUI> >::apply()
FUNC 472b0 84 0 geode::addresser::getVirtual<void (EditorUI::*)(cocos2d::enumKeyCodes)>(void (EditorUI::*)(cocos2d::enumKeyCodes))
FUNC 47334 4c 0 geode::modifier::AsStaticFunction_keyDown<hook409<(anonymous namespace)::hook409Parent>, void (hook409<(anonymous namespace)::hook409Parent>::*)(cocos2d::enumKeyCodes)>::Impl<void (hook409<(anonymous namespace)::hook409Parent>::*)(cocos2d::enumKeyCodes)>::function(hook409<(anonymous namespace)::hook409Parent>*, cocos2d::enumKeyCodes)
FUNC 47380 f8 0 EditorUI::EditorUI(geode::ZeroConstructorType)
FUNC 47478 510 0 CaseCell::init(UserData, CaseData, std::__ndk1::function<void ()>)
FUNC 47988 174 0 CaseData::operator=(CaseData const&)
FUNC 47afc 26c 0 CaseCell::create(UserData, CaseData, std::__ndk1::function<void ()>)
FUNC 47d68 a8 0 UserData::UserData(UserData const&)
FUNC 47e10 132 0 CaseData::CaseData(CaseData const&)
FUNC 47f42 4c 0 CaseData::~CaseData()
FUNC 47f90 160 0 CaseCell::~CaseCell()
FUNC 480f0 10 0 CaseCell::~CaseCell()
FUNC 48100 1c8 0 std::__ndk1::vector<matjson::Value, std::__ndk1::allocator<matjson::Value> >::__assign_with_size[abi:ne180000]<matjson::Value*, std::__ndk1::vector<matjson::Value, std::__ndk1::allocator<matjson::Value> >::__assign_with_size[abi:ne180000]>(matjson::Value*, std::__ndk1::vector<matjson::Value, std::__ndk1::allocator<matjson::Value> >::__assign_with_size[abi:ne180000], int)
FUNC 482c8 10 0 std::__ndk1::vector<matjson::Value, std::__ndk1::allocator<matjson::Value> >::__throw_length_error[abi:ne180000]() const
FUNC 482d8 2a 0 std::__ndk1::vector<matjson::Value, std::__ndk1::allocator<matjson::Value> >::~vector[abi:ne180000]()
FUNC 48304 a8 0 std::__ndk1::vector<matjson::Value, std::__ndk1::allocator<matjson::Value> >::__init_with_size[abi:ne180000]<matjson::Value*, std::__ndk1::vector<matjson::Value, std::__ndk1::allocator<matjson::Value> >::__init_with_size[abi:ne180000]>(matjson::Value*, std::__ndk1::vector<matjson::Value, std::__ndk1::allocator<matjson::Value> >::__init_with_size[abi:ne180000], unsigned int)
FUNC 483ac 42 0 std::__ndk1::__exception_guard_exceptions<std::__ndk1::vector<matjson::Value, std::__ndk1::allocator<matjson::Value> >::__destroy_vector>::~__exception_guard_exceptions[abi:ne180000]()
FUNC 483f0 cc 0 std::__ndk1::__function::__value_func<void ()>::swap[abi:ne180000](std::__ndk1::__function::__value_func<void ()>&)
FUNC 484bc 268 0 CategoryButton::init(char const*)
FUNC 48724 10 0 CategoryButton::~CategoryButton()
FUNC 48734 b0c 0 OWCommentCell::init(CommentData, ObjectData, UserData, std::__ndk1::function<void ()>)
FUNC 49240 12c 0 OWCommentCell::onVote(cocos2d::CCObject*)
FUNC 4936c ec 0 OWCommentCell::onDelete(cocos2d::CCObject*)
FUNC 49458 ec 0 OWCommentCell::onPin(cocos2d::CCObject*)
FUNC 49550 1e0 0 VotePopup::create(std::__ndk1::basic_string<char, std::__ndk1::char_traits<char>, std::__ndk1::allocator<char> >, std::__ndk1::function<void (bool)>)
FUNC 49730 258 0 OWCommentCell::create(CommentData, ObjectData, UserData, std::__ndk1::function<void ()>)
FUNC 49988 ca 0 CommentData::CommentData(CommentData const&)
FUNC 49a52 1da 0 ObjectData::ObjectData(ObjectData const&)
FUNC 49c2c 30 0 CommentData::~CommentData()
FUNC 49c5c 144 0 OWCommentCell::~OWCommentCell()
FUNC 49da0 10 0 OWCommentCell::~OWCommentCell()
FUNC 49db0 104 0 geode::Popup<std::__ndk1::basic_string<char, std::__ndk1::char_traits<char>, std::__ndk1::allocator<char> >, std::__ndk1::function<void (bool)> >::initAnchored(float, float, std::__ndk1::basic_string<char, std::__ndk1::char_traits<char>, std::__ndk1::allocator<char> >, std::__ndk1::function<void (bool)>, char const*, cocos2d::CCRect)
FUNC 49eb4 2e8 0 geode::Popup<std::__ndk1::basic_string<char, std::__ndk1::char_traits<char>, std::__ndk1::allocator<char> >, std::__ndk1::function<void (bool)> >::initBase(float, float, std::__ndk1::basic_string<char, std::__ndk1::char_traits<char>, std::__ndk1::allocator<char> >, std::__ndk1::function<void (bool)>, char const*, cocos2d::CCRect, bool)
FUNC 4a19c 124 0 std::__ndk1::unordered_set<std::__ndk1::basic_string<char, std::__ndk1::char_traits<char>, std::__ndk1::allocator<char> >, std::__ndk1::hash<std::__ndk1::basic_string<char, std::__ndk1::char_traits<char>, std::__ndk1::allocator<char> > >, std::__ndk1::equal_to<std::__ndk1::basic_string<char, std::__ndk1::char_traits<char>, std::__ndk1::allocator<char> > >, std::__ndk1::allocator<std::__ndk1::basic_string<char, std::__ndk1::char_traits<char>, std::__ndk1::allocator<char> > > >::unordered_set(std::__ndk1::unordered_set<std::__ndk1::basic_string<char, std::__ndk1::char_traits<char>, std::__ndk1::allocator<char> >, std::__ndk1::hash<std::__ndk1::basic_string<char, std::__ndk1::char_traits<char>, std::__ndk1::allocator<char> > >, std::__ndk1::equal_to<std::__ndk1::basic_string<char, std::__ndk1::char_traits<char>, std::__ndk1::allocator<char> > >, std::__ndk1::allocator<std::__ndk1::basic_string<char, std::__ndk1::char_traits<char>, std::__ndk1::allocator<char> > > > const&)
FUNC 4a2c0 3e 0 std::__ndk1::__hash_table<std::__ndk1::basic_string<char, std::__ndk1::char_traits<char>, std::__ndk1::allocator<char> >, std::__ndk1::hash<std::__ndk1::basic_string<char, std::__ndk1::char_traits<char>, std::__ndk1::allocator<char> > >, std::__ndk1::equal_to<std::__ndk1::basic_string<char, std::__ndk1::char_traits<char>, std::__ndk1::allocator<char> > >, std::__ndk1::allocator<std::__ndk1::basic_string<char, std::__ndk1::char_traits<char>, std::__ndk1::allocator<char> > > >::~__hash_table()
FUNC 4a2fe 10c 0 std::__ndk1::__hash_table<std::__ndk1::basic_string<char, std::__ndk1::char_traits<char>, std::__ndk1::allocator<char> >, std::__ndk1::hash<std::__ndk1::basic_string<char, std::__ndk1::char_traits<char>, std::__ndk1::allocator<char> > >, std::__ndk1::equal_to<std::__ndk1::basic_string<char, std::__ndk1::char_traits<char>, std::__ndk1::allocator<char> > >, std::__ndk1::allocator<std::__ndk1::basic_string<char, std::__ndk1::char_traits<char>, std::__ndk1::allocator<char> > > >::__do_rehash<true>(unsigned int)
FUNC 4a40c 39c 0 std::__ndk1::__hash_table<std::__ndk1::basic_string<char, std::__ndk1::char_traits<char>, std::__ndk1::allocator<char> >, std::__ndk1::hash<std::__ndk1::basic_string<char, std::__ndk1::char_traits<char>, std::__ndk1::allocator<char> > >, std::__ndk1::equal_to<std::__ndk1::basic_string<char, std::__ndk1::char_traits<char>, std::__ndk1::allocator<char> > >, std::__ndk1::allocator<std::__ndk1::basic_string<char, std::__ndk1::char_traits<char>, std::__ndk1::allocator<char> > > >::__emplace_unique_key_args<std::__ndk1::basic_string<char, std::__ndk1::char_traits<char>, std::__ndk1::allocator<char> >, std::__ndk1::basic_string<char, std::__ndk1::char_traits<char>, std::__ndk1::allocator<char> > const&>(std::__ndk1::basic_string<char, std::__ndk1::char_traits<char>, std::__ndk1::allocator<char> > const&, std::__ndk1::basic_string<char, std::__ndk1::char_traits<char>, std::__ndk1::allocator<char> > const&)
FUNC 4a7a8 3a 0 std::__ndk1::unique_ptr<std::__ndk1::__hash_node<std::__ndk1::basic_string<char, std::__ndk1::char_traits<char>, std::__ndk1::allocator<char> >, void*>, std::__ndk1::__hash_node_destructor<std::__ndk1::allocator<std::__ndk1::__hash_node<std::__ndk1::basic_string<char, std::__ndk1::char_traits<char>, std::__ndk1::allocator<char> >, void*> > > >::~unique_ptr[abi:ne180000]()
FUNC 4a7e4 dc 0 std::__ndk1::vector<ReportData, std::__ndk1::allocator<ReportData> >::__init_with_size[abi:ne180000]<ReportData*, std::__ndk1::vector<ReportData, std::__ndk1::allocator<ReportData> >::__init_with_size[abi:ne180000]>(ReportData*, std::__ndk1::vector<ReportData, std::__ndk1::allocator<ReportData> >::__init_with_size[abi:ne180000], unsigned int)
FUNC 4a8c0 4c 0 std::__ndk1::__exception_guard_exceptions<std::__ndk1::vector<ReportData, std::__ndk1::allocator<ReportData> >::__destroy_vector>::~__exception_guard_exceptions[abi:ne180000]()
FUNC 4a90c 10 0 std::__ndk1::vector<ReportData, std::__ndk1::allocator<ReportData> >::__throw_length_error[abi:ne180000]() const
FUNC 4a91c 3a 0 std::__ndk1::__exception_guard_exceptions<std::__ndk1::_AllocatorDestroyRangeReverse<std::__ndk1::allocator<ReportData>, ReportData*> >::~__exception_guard_exceptions[abi:ne180000]()
FUNC 4a956 4 0 std::__ndk1::__function::__func<OWCommentCell::init(CommentData, ObjectData, UserData, std::__ndk1::function<void ()>)::$_0, std::__ndk1::allocator<OWCommentCell::init(CommentData, ObjectData, UserData, std::__ndk1::function<void ()>)::$_0>, void (CCMenuItemSpriteExtra*)>::~__func()
FUNC 4a95c 20 0 std::__ndk1::__function::__func<OWCommentCell::init(CommentData, ObjectData, UserData, std::__ndk1::function<void ()>)::$_0, std::__ndk1::allocator<OWCommentCell::init(CommentData, ObjectData, UserData, std::__ndk1::function<void ()>)::$_0>, void (CCMenuItemSpriteExtra*)>::__clone() const
FUNC 4a97c 14 0 std::__ndk1::__function::__func<OWCommentCell::init(CommentData, ObjectData, UserData, std::__ndk1::function<void ()>)::$_0, std::__ndk1::allocator<OWCommentCell::init(CommentData, ObjectData, UserData, std::__ndk1::function<void ()>)::$_0>, void (CCMenuItemSpriteExtra*)>::__clone(std::__ndk1::__function::__base<void (CCMenuItemSpriteExtra*)>*) const
FUNC 4a990 2 0 std::__ndk1::__function::__func<OWCommentCell::init(CommentData, ObjectData, UserData, std::__ndk1::function<void ()>)::$_0, std::__ndk1::allocator<OWCommentCell::init(CommentData, ObjectData, UserData, std::__ndk1::function<void ()>)::$_0>, void (CCMenuItemSpriteExtra*)>::destroy()
FUNC 4a992 4 0 std::__ndk1::__function::__func<OWCommentCell::init(CommentData, ObjectData, UserData, std::__ndk1::function<void ()>)::$_0, std::__ndk1::allocator<OWCommentCell::init(CommentData, ObjectData, UserData, std::__ndk1::function<void ()>)::$_0>, void (CCMenuItemSpriteExtra*)>::destroy_deallocate()
FUNC 4a998 c4 0 std::__ndk1::__function::__func<OWCommentCell::init(CommentData, ObjectData, UserData, std::__ndk1::function<void ()>)::$_0, std::__ndk1::allocator<OWCommentCell::init(CommentData, ObjectData, UserData, std::__ndk1::function<void ()>)::$_0>, void (CCMenuItemSpriteExtra*)>::operator()(CCMenuItemSpriteExtra*&&)
FUNC 4aa5c 18 0 std::__ndk1::__function::__func<OWCommentCell::init(CommentData, ObjectData, UserData, std::__ndk1::function<void ()>)::$_0, std::__ndk1::allocator<OWCommentCell::init(CommentData, ObjectData, UserData, std::__ndk1::function<void ()>)::$_0>, void (CCMenuItemSpriteExtra*)>::target(std::type_info const&) const
FUNC 4aa74 c 0 std::__ndk1::__function::__func<OWCommentCell::init(CommentData, ObjectData, UserData, std::__ndk1::function<void ()>)::$_0, std::__ndk1::allocator<OWCommentCell::init(CommentData, ObjectData, UserData, std::__ndk1::function<void ()>)::$_0>, void (CCMenuItemSpriteExtra*)>::target_type() const
FUNC 4aa80 2 0 std::__ndk1::__function::__base<void (bool)>::~__base()
FUNC 4aa82 4 0 std::__ndk1::__function::__func<OWCommentCell::onVote(cocos2d::CCObject*)::$_0, std::__ndk1::allocator<OWCommentCell::onVote(cocos2d::CCObject*)::$_0>, void (bool)>::~__func()
FUNC 4aa88 20 0 std::__ndk1::__function::__func<OWCommentCell::onVote(cocos2d::CCObject*)::$_0, std::__ndk1::allocator<OWCommentCell::onVote(cocos2d::CCObject*)::$_0>, void (bool)>::__clone() const
FUNC 4aaa8 14 0 std::__ndk1::__function::__func<OWCommentCell::onVote(cocos2d::CCObject*)::$_0, std::__ndk1::allocator<OWCommentCell::onVote(cocos2d::CCObject*)::$_0>, void (bool)>::__clone(std::__ndk1::__function::__base<void (bool)>*) const
FUNC 4aabc 2 0 std::__ndk1::__function::__func<OWCommentCell::onVote(cocos2d::CCObject*)::$_0, std::__ndk1::allocator<OWCommentCell::onVote(cocos2d::CCObject*)::$_0>, void (bool)>::destroy()
FUNC 4aabe 4 0 std::__ndk1::__function::__func<OWCommentCell::onVote(cocos2d::CCObject*)::$_0, std::__ndk1::allocator<OWCommentCell::onVote(cocos2d::CCObject*)::$_0>, void (bool)>::destroy_deallocate()
FUNC 4aac4 3e4 0 std::__ndk1::__function::__func<OWCommentCell::onVote(cocos2d::CCObject*)::$_0, std::__ndk1::allocator<OWCommentCell::onVote(cocos2d::CCObject*)::$_0>, void (bool)>::operator()(bool&&)
FUNC 4aea8 18 0 std::__ndk1::__function::__func<OWCommentCell::onVote(cocos2d::CCObject*)::$_0, std::__ndk1::allocator<OWCommentCell::onVote(cocos2d::CCObject*)::$_0>, void (bool)>::target(std::type_info const&) const
FUNC 4aec0 c 0 std::__ndk1::__function::__func<OWCommentCell::onVote(cocos2d::CCObject*)::$_0, std::__ndk1::allocator<OWCommentCell::onVote(cocos2d::CCObject*)::$_0>, void (bool)>::target_type() const
FUNC 4aecc 2c 0 std::__ndk1::__function::__func<OWCommentCell::onVote(cocos2d::CCObject*)::$_0::operator()(bool) const::{lambda(geode::Task<geode::utils::web::WebResponse, geode::utils::web::WebProgress>::Event*)#1}, std::__ndk1::allocator<OWCommentCell::onVote(cocos2d::CCObject*)::$_0::operator()(bool) const::{lambda(geode::Task<geode::utils::web::WebResponse, geode::utils::web::WebProgress>::Event*)#1}>, void (geode::Task<geode::utils::web::WebResponse, geode::utils::web::WebProgress>::Event*)>::~__func()
FUNC 4aef8 30 0 std::__ndk1::__function::__func<OWCommentCell::onVote(cocos2d::CCObject*)::$_0::operator()(bool) const::{lambda(geode::Task<geode::utils::web::WebResponse, geode::utils::web::WebProgress>::Event*)#1}, std::__ndk1::allocator<OWCommentCell::onVote(cocos2d::CCObject*)::$_0::operator()(bool) const::{lambda(geode::Task<geode::utils::web::WebResponse, geode::utils::web::WebProgress>::Event*)#1}>, void (geode::Task<geode::utils::web::WebResponse, geode::utils::web::WebProgress>::Event*)>::~__func()
FUNC 4af28 54 0 std::__ndk1::__function::__func<OWCommentCell::onVote(cocos2d::CCObject*)::$_0::operator()(bool) const::{lambda(geode::Task<geode::utils::web::WebResponse, geode::utils::web::WebProgress>::Event*)#1}, std::__ndk1::allocator<OWCommentCell::onVote(cocos2d::CCObject*)::$_0::operator()(bool) const::{lambda(geode::Task<geode::utils::web::WebResponse, geode::utils::web::WebProgress>::Event*)#1}>, void (geode::Task<geode::utils::web::WebResponse, geode::utils::web::WebProgress>::Event*)>::__clone() const
FUNC 4af7c 38 0 std::__ndk1::__function::__func<OWCommentCell::onVote(cocos2d::CCObject*)::$_0::operator()(bool) const::{lambda(geode::Task<geode::utils::web::WebResponse, geode::utils::web::WebProgress>::Event*)#1}, std::__ndk1::allocator<OWCommentCell::onVote(cocos2d::CCObject*)::$_0::operator()(bool) const::{lambda(geode::Task<geode::utils::web::WebResponse, geode::utils::web::WebProgress>::Event*)#1}>, void (geode::Task<geode::utils::web::WebResponse, geode::utils::web::WebProgress>::Event*)>::__clone(std::__ndk1::__function::__base<void (geode::Task<geode::utils::web::WebResponse, geode::utils::web::WebProgress>::Event*)>*) const
FUNC 4afb4 e 0 std::__ndk1::__function::__func<OWCommentCell::onVote(cocos2d::CCObject*)::$_0::operator()(bool) const::{lambda(geode::Task<geode::utils::web::WebResponse, geode::utils::web::WebProgress>::Event*)#1}, std::__ndk1::allocator<OWCommentCell::onVote(cocos2d::CCObject*)::$_0::operator()(bool) const::{lambda(geode::Task<geode::utils::web::WebResponse, geode::utils::web::WebProgress>::Event*)#1}>, void (geode::Task<geode::utils::web::WebResponse, geode::utils::web::WebProgress>::Event*)>::destroy()
FUNC 4afc2 22 0 std::__ndk1::__function::__func<OWCommentCell::onVote(cocos2d::CCObject*)::$_0::operator()(bool) const::{lambda(geode::Task<geode::utils::web::WebResponse, geode::utils::web::WebProgress>::Event*)#1}, std::__ndk1::allocator<OWCommentCell::onVote(cocos2d::CCObject*)::$_0::operator()(bool) const::{lambda(geode::Task<geode::utils::web::WebResponse, geode::utils::web::WebProgress>::Event*)#1}>, void (geode::Task<geode::utils::web::WebResponse, geode::utils::web::WebProgress>::Event*)>::destroy_deallocate()
FUNC 4afe4 174 0 std::__ndk1::__function::__func<OWCommentCell::onVote(cocos2d::CCObject*)::$_0::operator()(bool) const::{lambda(geode::Task<geode::utils::web::WebResponse, geode::utils::web::WebProgress>::Event*)#1}, std::__ndk1::allocator<OWCommentCell::onVote(cocos2d::CCObject*)::$_0::operator()(bool) const::{lambda(geode::Task<geode::utils::web::WebResponse, geode::utils::web::WebProgress>::Event*)#1}>, void (geode::Task<geode::utils::web::WebResponse, geode::utils::web::WebProgress>::Event*)>::operator()(geode::Task<geode::utils::web::WebResponse, geode::utils::web::WebProgress>::Event*&&)
FUNC 4b158 18 0 std::__ndk1::__function::__func<OWCommentCell::onVote(cocos2d::CCObject*)::$_0::operator()(bool) const::{lambda(geode::Task<geode::utils::web::WebResponse, geode::utils::web::WebProgress>::Event*)#1}, std::__ndk1::allocator<OWCommentCell::onVote(cocos2d::CCObject*)::$_0::operator()(bool) const::{lambda(geode::Task<geode::utils::web::WebResponse, geode::utils::web::WebProgress>::Event*)#1}>, void (geode::Task<geode::utils::web::WebResponse, geode::utils::web::WebProgress>::Event*)>::target(std::type_info const&) const
FUNC 4b170 c 0 std::__ndk1::__function::__func<OWCommentCell::onVote(cocos2d::CCObject*)::$_0::operator()(bool) const::{lambda(geode::Task<geode::utils::web::WebResponse, geode::utils::web::WebProgress>::Event*)#1}, std::__ndk1::allocator<OWCommentCell::onVote(cocos2d::CCObject*)::$_0::operator()(bool) const::{lambda(geode::Task<geode::utils::web::WebResponse, geode::utils::web::WebProgress>::Event*)#1}>, void (geode::Task<geode::utils::web::WebResponse, geode::utils::web::WebProgress>::Event*)>::target_type() const
FUNC 4b17c 254 0 Utils::notifMessage(matjson::Value const&, std::__ndk1::function<void ()>)
FUNC 4b3d0 148 0 Utils::notifError(matjson::Value const&)
FUNC 4b518 60 0 geode::impl::ResultData<matjson::Value const&, std::__ndk1::basic_string<char, std::__ndk1::char_traits<char>, std::__ndk1::allocator<char> > >::~ResultData()
FUNC 4b578 2 0 std::__ndk1::__variant_detail::__visitation::__base::__dispatcher<(unsigned int)0>::__dispatch[abi:ne180000]<std::__ndk1::__variant_detail::__dtor<std::__ndk1::__variant_detail::__traits<std::__ndk1::reference_wrapper<matjson::Value const>, std::__ndk1::basic_string<char, std::__ndk1::char_traits<char>, std::__ndk1::allocator<char> > >, (std::__ndk1::__variant_detail::_Trait)1>::__destroy[abi:ne180000]()::{lambda(auto:1&)#1}, std::__ndk1::__variant_detail::__base<(std::__ndk1::__variant_detail::__traits<std::__ndk1::reference_wrapper<matjson::Value const>, std::__ndk1::basic_string<char, std::__ndk1::char_traits<char>, std::__ndk1::allocator<char> > >)1, matjson::Value const, std::__ndk1::allocator<char> >&>(std::__ndk1::__variant_detail::__dtor<std::__ndk1::__variant_detail::__traits<std::__ndk1::reference_wrapper<matjson::Value const>, std::__ndk1::basic_string<char, std::__ndk1::char_traits<char>, std::__ndk1::allocator<char> > >, (std::__ndk1::__variant_detail::_Trait)1>, std::__ndk1::__variant_detail::__base<(std::__ndk1::__variant_detail::__traits<std::__ndk1::reference_wrapper<matjson::Value const>, std::__ndk1::basic_string<char, std::__ndk1::char_traits<char>, std::__ndk1::allocator<char> > >)1, matjson::Value const, std::__ndk1::allocator<char> >&)
FUNC 4b57a e 0 std::__ndk1::__variant_detail::__visitation::__base::__dispatcher<(unsigned int)1>::__dispatch[abi:ne180000]<std::__ndk1::__variant_detail::__dtor<std::__ndk1::__variant_detail::__traits<std::__ndk1::reference_wrapper<matjson::Value const>, std::__ndk1::basic_string<char, std::__ndk1::char_traits<char>, std::__ndk1::allocator<char> > >, (std::__ndk1::__variant_detail::_Trait)1>::__destroy[abi:ne180000]()::{lambda(auto:1&)#1}, std::__ndk1::__variant_detail::__base<(std::__ndk1::__variant_detail::__traits<std::__ndk1::reference_wrapper<matjson::Value const>, std::__ndk1::basic_string<char, std::__ndk1::char_traits<char>, std::__ndk1::allocator<char> > >)1, matjson::Value const, std::__ndk1::allocator<char> >&>(std::__ndk1::__variant_detail::__dtor<std::__ndk1::__variant_detail::__traits<std::__ndk1::reference_wrapper<matjson::Value const>, std::__ndk1::basic_string<char, std::__ndk1::char_traits<char>, std::__ndk1::allocator<char> > >, (std::__ndk1::__variant_detail::_Trait)1>, std::__ndk1::__variant_detail::__base<(std::__ndk1::__variant_detail::__traits<std::__ndk1::reference_wrapper<matjson::Value const>, std::__ndk1::basic_string<char, std::__ndk1::char_traits<char>, std::__ndk1::allocator<char> > >)1, matjson::Value const, std::__ndk1::allocator<char> >&)
FUNC 4b588 4 0 std::__ndk1::__function::__func<OWCommentCell::onPin(cocos2d::CCObject*)::$_0, std::__ndk1::allocator<OWCommentCell::onPin(cocos2d::CCObject*)::$_0>, void (FLAlertLayer*, bool)>::~__func()
FUNC 4b58c 20 0 std::__ndk1::__function::__func<OWCommentCell::onPin(cocos2d::CCObject*)::$_0, std::__ndk1::allocator<OWCommentCell::onPin(cocos2d::CCObject*)::$_0>, void (FLAlertLayer*, bool)>::__clone() const
FUNC 4b5ac 14 0 std::__ndk1::__function::__func<OWCommentCell::onPin(cocos2d::CCObject*)::$_0, std::__ndk1::allocator<OWCommentCell::onPin(cocos2d::CCObject*)::$_0>, void (FLAlertLayer*, bool)>::__clone(std::__ndk1::__function::__base<void (FLAlertLayer*, bool)>*) const
FUNC 4b5c0 2 0 std::__ndk1::__function::__func<OWCommentCell::onPin(cocos2d::CCObject*)::$_0, std::__ndk1::allocator<OWCommentCell::onPin(cocos2d::CCObject*)::$_0>, void (FLAlertLayer*, bool)>::destroy()
FUNC 4b5c2 4 0 std::__ndk1::__function::__func<OWCommentCell::onPin(cocos2d::CCObject*)::$_0, std::__ndk1::allocator<OWCommentCell::onPin(cocos2d::CCObject*)::$_0>, void (FLAlertLayer*, bool)>::destroy_deallocate()
FUNC 4b5c8 2f8 0 std::__ndk1::__function::__func<OWCommentCell::onPin(cocos2d::CCObject*)::$_0, std::__ndk1::allocator<OWCommentCell::onPin(cocos2d::CCObject*)::$_0>, void (FLAlertLayer*, bool)>::operator()(FLAlertLayer*&&, bool&&)
FUNC 4b8c0 18 0 std::__ndk1::__function::__func<OWCommentCell::onPin(cocos2d::CCObject*)::$_0, std::__ndk1::allocator<OWCommentCell::onPin(cocos2d::CCObject*)::$_0>, void (FLAlertLayer*, bool)>::target(std::type_info const&) const
FUNC 4b8d8 c 0 std::__ndk1::__function::__func<OWCommentCell::onPin(cocos2d::CCObject*)::$_0, std::__ndk1::allocator<OWCommentCell::onPin(cocos2d::CCObject*)::$_0>, void (FLAlertLayer*, bool)>::target_type() const
FUNC 4b8e4 4 0 std::__ndk1::__function::__func<OWCommentCell::onPin(cocos2d::CCObject*)::$_0::operator()<FLAlertLayer*>(FLAlertLayer*, bool) const::{lambda(geode::Task<geode::utils::web::WebResponse, geode::utils::web::WebProgress>::Event*)#1}, std::__ndk1::allocator<OWCommentCell::onPin(cocos2d::CCObject*)::$_0::operator()<FLAlertLayer*>(FLAlertLayer*, bool) const::{lambda(geode::Task<geode::utils::web::WebResponse, geode::utils::web::WebProgress>::Event*)#1}>, void (geode::Task<geode::utils::web::WebResponse, geode::utils::web::WebProgress>::Event*)>::~__func()
FUNC 4b8e8 20 0 std::__ndk1::__function::__func<OWCommentCell::onPin(cocos2d::CCObject*)::$_0::operator()<FLAlertLayer*>(FLAlertLayer*, bool) const::{lambda(geode::Task<geode::utils::web::WebResponse, geode::utils::web::WebProgress>::Event*)#1}, std::__ndk1::allocator<OWCommentCell::onPin(cocos2d::CCObject*)::$_0::operator()<FLAlertLayer*>(FLAlertLayer*, bool) const::{lambda(geode::Task<geode::utils::web::WebResponse, geode::utils::web::WebProgress>::Event*)#1}>, void (geode::Task<geode::utils::web::WebResponse, geode::utils::web::WebProgress>::Event*)>::__clone() const
FUNC 4b908 14 0 std::__ndk1::__function::__func<OWCommentCell::onPin(cocos2d::CCObject*)::$_0::operator()<FLAlertLayer*>(FLAlertLayer*, bool) const::{lambda(geode::Task<geode::utils::web::WebResponse, geode::utils::web::WebProgress>::Event*)#1}, std::__ndk1::allocator<OWCommentCell::onPin(cocos2d::CCObject*)::$_0::operator()<FLAlertLayer*>(FLAlertLayer*, bool) const::{lambda(geode::Task<geode::utils::web::WebResponse, geode::utils::web::WebProgress>::Event*)#1}>, void (geode::Task<geode::utils::web::WebResponse, geode::utils::web::WebProgress>::Event*)>::__clone(std::__ndk1::__function::__base<void (geode::Task<geode::utils::web::WebResponse, geode::utils::web::WebProgress>::Event*)>*) const
FUNC 4b91c 2 0 std::__ndk1::__function::__func<OWCommentCell::onPin(cocos2d::CCObject*)::$_0::operator()<FLAlertLayer*>(FLAlertLayer*, bool) const::{lambda(geode::Task<geode::utils::web::WebResponse, geode::utils::web::WebProgress>::Event*)#1}, std::__ndk1::allocator<OWCommentCell::onPin(cocos2d::CCObject*)::$_0::operator()<FLAlertLayer*>(FLAlertLayer*, bool) const::{lambda(geode::Task<geode::utils::web::WebResponse, geode::utils::web::WebProgress>::Event*)#1}>, void (geode::Task<geode::utils::web::WebResponse, geode::utils::web::WebProgress>::Event*)>::destroy()
FUNC 4b91e 4 0 std::__ndk1::__function::__func<OWCommentCell::onPin(cocos2d::CCObject*)::$_0::operator()<FLAlertLayer*>(FLAlertLayer*, bool) const::{lambda(geode::Task<geode::utils::web::WebResponse, geode::utils::web::WebProgress>::Event*)#1}, std::__ndk1::allocator<OWCommentCell::onPin(cocos2d::CCObject*)::$_0::operator()<FLAlertLayer*>(FLAlertLayer*, bool) const::{lambda(geode::Task<geode::utils::web::WebResponse, geode::utils::web::WebProgress>::Event*)#1}>, void (geode::Task<geode::utils::web::WebResponse, geode::utils::web::WebProgress>::Event*)>::destroy_deallocate()
FUNC 4b924 174 0 std::__ndk1::__function::__func<OWCommentCell::onPin(cocos2d::CCObject*)::$_0::operator()<FLAlertLayer*>(FLAlertLayer*, bool) const::{lambda(geode::Task<geode::utils::web::WebResponse, geode::utils::web::WebProgress>::Event*)#1}, std::__ndk1::allocator<OWCommentCell::onPin(cocos2d::CCObject*)::$_0::operator()<FLAlertLayer*>(FLAlertLayer*, bool) const::{lambda(geode::Task<geode::utils::web::WebResponse, geode::utils::web::WebProgress>::Event*)#1}>, void (geode::Task<geode::utils::web::WebResponse, geode::utils::web::WebProgress>::Event*)>::operator()(geode::Task<geode::utils::web::WebResponse, geode::utils::web::WebProgress>::Event*&&)
FUNC 4ba98 18 0 std::__ndk1::__function::__func<OWCommentCell::onPin(cocos2d::CCObject*)::$_0::operator()<FLAlertLayer*>(FLAlertLayer*, bool) const::{lambda(geode::Task<geode::utils::web::WebResponse, geode::utils::web::WebProgress>::Event*)#1}, std::__ndk1::allocator<OWCommentCell::onPin(cocos2d::CCObject*)::$_0::operator()<FLAlertLayer*>(FLAlertLayer*, bool) const::{lambda(geode::Task<geode::utils::web::WebResponse, geode::utils::web::WebProgress>::Event*)#1}>, void (geode::Task<geode::utils::web::WebResponse, geode::utils::web::WebProgress>::Event*)>::target(std::type_info const&) const
FUNC 4bab0 c 0 std::__ndk1::__function::__func<OWCommentCell::onPin(cocos2d::CCObject*)::$_0::operator()<FLAlertLayer*>(FLAlertLayer*, bool) const::{lambda(geode::Task<geode::utils::web::WebResponse, geode::utils::web::WebProgress>::Event*)#1}, std::__ndk1::allocator<OWCommentCell::onPin(cocos2d::CCObject*)::$_0::operator()<FLAlertLayer*>(FLAlertLayer*, bool) const::{lambda(geode::Task<geode::utils::web::WebResponse, geode::utils::web::WebProgress>::Event*)#1}>, void (geode::Task<geode::utils::web::WebResponse, geode::utils::web::WebProgress>::Event*)>::target_type() const
FUNC 4babc 2 0 std::__ndk1::__function::__base<void (FLAlertLayer*, bool)>::~__base()
FUNC 4babe 4 0 std::__ndk1::__function::__func<OWCommentCell::onDelete(cocos2d::CCObject*)::$_0, std::__ndk1::allocator<OWCommentCell::onDelete(cocos2d::CCObject*)::$_0>, void (FLAlertLayer*, bool)>::~__func()
FUNC 4bac4 20 0 std::__ndk1::__function::__func<OWCommentCell::onDelete(cocos2d::CCObject*)::$_0, std::__ndk1::allocator<OWCommentCell::onDelete(cocos2d::CCObject*)::$_0>, void (FLAlertLayer*, bool)>::__clone() const
FUNC 4bae4 14 0 std::__ndk1::__function::__func<OWCommentCell::onDelete(cocos2d::CCObject*)::$_0, std::__ndk1::allocator<OWCommentCell::onDelete(cocos2d::CCObject*)::$_0>, void (FLAlertLayer*, bool)>::__clone(std::__ndk1::__function::__base<void (FLAlertLayer*, bool)>*) const
FUNC 4baf8 2 0 std::__ndk1::__function::__func<OWCommentCell::onDelete(cocos2d::CCObject*)::$_0, std::__ndk1::allocator<OWCommentCell::onDelete(cocos2d::CCObject*)::$_0>, void (FLAlertLayer*, bool)>::destroy()
FUNC 4bafa 4 0 std::__ndk1::__function::__func<OWCommentCell::onDelete(cocos2d::CCObject*)::$_0, std::__ndk1::allocator<OWCommentCell::onDelete(cocos2d::CCObject*)::$_0>, void (FLAlertLayer*, bool)>::destroy_deallocate()
FUNC 4bb00 2f8 0 std::__ndk1::__function::__func<OWCommentCell::onDelete(cocos2d::CCObject*)::$_0, std::__ndk1::allocator<OWCommentCell::onDelete(cocos2d::CCObject*)::$_0>, void (FLAlertLayer*, bool)>::operator()(FLAlertLayer*&&, bool&&)
FUNC 4bdf8 18 0 std::__ndk1::__function::__func<OWCommentCell::onDelete(cocos2d::CCObject*)::$_0, std::__ndk1::allocator<OWCommentCell::onDelete(cocos2d::CCObject*)::$_0>, void (FLAlertLayer*, bool)>::target(std::type_info const&) const
FUNC 4be10 c 0 std::__ndk1::__function::__func<OWCommentCell::onDelete(cocos2d::CCObject*)::$_0, std::__ndk1::allocator<OWCommentCell::onDelete(cocos2d::CCObject*)::$_0>, void (FLAlertLayer*, bool)>::target_type() const
FUNC 4be1c 4 0 std::__ndk1::__function::__func<OWCommentCell::onDelete(cocos2d::CCObject*)::$_0::operator()<FLAlertLayer*>(FLAlertLayer*, bool) const::{lambda(geode::Task<geode::utils::web::WebResponse, geode::utils::web::WebProgress>::Event*)#1}, std::__ndk1::allocator<OWCommentCell::onDelete(cocos2d::CCObject*)::$_0::operator()<FLAlertLayer*>(FLAlertLayer*, bool) const::{lambda(geode::Task<geode::utils::web::WebResponse, geode::utils::web::WebProgress>::Event*)#1}>, void (geode::Task<geode::utils::web::WebResponse, geode::utils::web::WebProgress>::Event*)>::~__func()
FUNC 4be20 20 0 std::__ndk1::__function::__func<OWCommentCell::onDelete(cocos2d::CCObject*)::$_0::operator()<FLAlertLayer*>(FLAlertLayer*, bool) const::{lambda(geode::Task<geode::utils::web::WebResponse, geode::utils::web::WebProgress>::Event*)#1}, std::__ndk1::allocator<OWCommentCell::onDelete(cocos2d::CCObject*)::$_0::operator()<FLAlertLayer*>(FLAlertLayer*, bool) const::{lambda(geode::Task<geode::utils::web::WebResponse, geode::utils::web::WebProgress>::Event*)#1}>, void (geode::Task<geode::utils::web::WebResponse, geode::utils::web::WebProgress>::Event*)>::__clone() const
FUNC 4be40 14 0 std::__ndk1::__function::__func<OWCommentCell::onDelete(cocos2d::CCObject*)::$_0::operator()<FLAlertLayer*>(FLAlertLayer*, bool) const::{lambda(geode::Task<geode::utils::web::WebResponse, geode::utils::web::WebProgress>::Event*)#1}, std::__ndk1::allocator<OWCommentCell::onDelete(cocos2d::CCObject*)::$_0::operator()<FLAlertLayer*>(FLAlertLayer*, bool) const::{lambda(geode::Task<geode::utils::web::WebResponse, geode::utils::web::WebProgress>::Event*)#1}>, void (geode::Task<geode::utils::web::WebResponse, geode::utils::web::WebProgress>::Event*)>::__clone(std::__ndk1::__function::__base<void (geode::Task<geode::utils::web::WebResponse, geode::utils::web::WebProgress>::Event*)>*) const
FUNC 4be54 2 0 std::__ndk1::__function::__func<OWCommentCell::onDelete(cocos2d::CCObject*)::$_0::operator()<FLAlertLayer*>(FLAlertLayer*, bool) const::{lambda(geode::Task<geode::utils::web::WebResponse, geode::utils::web::WebProgress>::Event*)#1}, std::__ndk1::allocator<OWCommentCell::onDelete(cocos2d::CCObject*)::$_0::operator()<FLAlertLayer*>(FLAlertLayer*, bool) const::{lambda(geode::Task<geode::utils::web::WebResponse, geode::utils::web::WebProgress>::Event*)#1}>, void (geode::Task<geode::utils::web::WebResponse, geode::utils::web::WebProgress>::Event*)>::destroy()
FUNC 4be56 4 0 std::__ndk1::__function::__func<OWCommentCell::onDelete(cocos2d::CCObject*)::$_0::operator()<FLAlertLayer*>(FLAlertLayer*, bool) const::{lambda(geode::Task<geode::utils::web::WebResponse, geode::utils::web::WebProgress>::Event*)#1}, std::__ndk1::allocator<OWCommentCell::onDelete(cocos2d::CCObject*)::$_0::operator()<FLAlertLayer*>(FLAlertLayer*, bool) const::{lambda(geode::Task<geode::utils::web::WebResponse, geode::utils::web::WebProgress>::Event*)#1}>, void (geode::Task<geode::utils::web::WebResponse, geode::utils::web::WebProgress>::Event*)>::destroy_deallocate()
FUNC 4be5c 174 0 std::__ndk1::__function::__func<OWCommentCell::onDelete(cocos2d::CCObject*)::$_0::operator()<FLAlertLayer*>(FLAlertLayer*, bool) const::{lambda(geode::Task<geode::utils::web::WebResponse, geode::utils::web::WebProgress>::Event*)#1}, std::__ndk1::allocator<OWCommentCell::onDelete(cocos2d::CCObject*)::$_0::operator()<FLAlertLayer*>(FLAlertLayer*, bool) const::{lambda(geode::Task<geode::utils::web::WebResponse, geode::utils::web::WebProgress>::Event*)#1}>, void (geode::Task<geode::utils::web::WebResponse, geode::utils::web::WebProgress>::Event*)>::operator()(geode::Task<geode::utils::web::WebResponse, geode::utils::web::WebProgress>::Event*&&)
FUNC 4bfd0 18 0 std::__ndk1::__function::__func<OWCommentCell::onDelete(cocos2d::CCObject*)::$_0::operator()<FLAlertLayer*>(FLAlertLayer*, bool) const::{lambda(geode::Task<geode::utils::web::WebResponse, geode::utils::web::WebProgress>::Event*)#1}, std::__ndk1::allocator<OWCommentCell::onDelete(cocos2d::CCObject*)::$_0::operator()<FLAlertLayer*>(FLAlertLayer*, bool) const::{lambda(geode::Task<geode::utils::web::WebResponse, geode::utils::web::WebProgress>::Event*)#1}>, void (geode::Task<geode::utils::web::WebResponse, geode::utils::web::WebProgress>::Event*)>::target(std::type_info const&) const
FUNC 4bfe8 c 0 std::__ndk1::__function::__func<OWCommentCell::onDelete(cocos2d::CCObject*)::$_0::operator()<FLAlertLayer*>(FLAlertLayer*, bool) const::{lambda(geode::Task<geode::utils::web::WebResponse, geode::utils::web::WebProgress>::Event*)#1}, std::__ndk1::allocator<OWCommentCell::onDelete(cocos2d::CCObject*)::$_0::operator()<FLAlertLayer*>(FLAlertLayer*, bool) const::{lambda(geode::Task<geode::utils::web::WebResponse, geode::utils::web::WebProgress>::Event*)#1}>, void (geode::Task<geode::utils::web::WebResponse, geode::utils::web::WebProgress>::Event*)>::target_type() const
FUNC 4bff4 2cc 0 ExtPreviewBG::init(LevelEditorLayer*, std::__ndk1::basic_string<char, std::__ndk1::char_traits<char>, std::__ndk1::allocator<char> >, cocos2d::CCSize)
FUNC 4c2c0 104 0 ExtPreviewBG::ccTouchBegan(cocos2d::CCTouch*, cocos2d::CCEvent*)
FUNC 4c3c4 8 0 {virtual override thunk({offset(-264)}, ExtPreviewBG::ccTouchBegan(cocos2d::CCTouch*, cocos2d::CCEvent*))}
FUNC 4c3cc d0 0 ExtPreviewBG::ccTouchMoved(cocos2d::CCTouch*, cocos2d::CCEvent*)
FUNC 4c49c 8 0 {virtual override thunk({offset(-264)}, ExtPreviewBG::ccTouchMoved(cocos2d::CCTouch*, cocos2d::CCEvent*))}
FUNC 4c4a4 10c 0 ExtPreviewBG::create(LevelEditorLayer*, std::__ndk1::basic_string<char, std::__ndk1::char_traits<char>, std::__ndk1::allocator<char> >, cocos2d::CCSize)
FUNC 4c5b0 10 0 ExtPreviewBG::~ExtPreviewBG()
FUNC 4c5c0 8 0 {virtual override thunk({offset(-264)}, ExtPreviewBG::~ExtPreviewBG())}
FUNC 4c5c8 14 0 {virtual override thunk({offset(-264)}, ExtPreviewBG::~ExtPreviewBG())}
FUNC 4c5dc 27c 0 ObjectItem::createStars(double)
FUNC 4c858 f0 0 ObjectItem::starColor(double)
FUNC 4c948 2c8 0 ObjectItem::createClickableStars(cocos2d::CCObject*, void (cocos2d::CCObject::*)(cocos2d::CCObject*))
FUNC 4cc10 760 0 ObjectItem::init(LevelEditorLayer*, ObjectData)
FUNC 4d370 1f0 0 ObjectData::operator=(ObjectData const&)
FUNC 4d560 104 0 ObjectItem::create(LevelEditorLayer*, ObjectData)
FUNC 4d664 2c 0 ObjectItem::~ObjectItem()
FUNC 4d690 30 0 ObjectItem::~ObjectItem()
FUNC 4d6c0 120 0 std::__ndk1::__hash_table<std::__ndk1::basic_string<char, std::__ndk1::char_traits<char>, std::__ndk1::allocator<char> >, std::__ndk1::hash<std::__ndk1::basic_string<char, std::__ndk1::char_traits<char>, std::__ndk1::allocator<char> > >, std::__ndk1::equal_to<std::__ndk1::basic_string<char, std::__ndk1::char_traits<char>, std::__ndk1::allocator<char> > >, std::__ndk1::allocator<std::__ndk1::basic_string<char, std::__ndk1::char_traits<char>, std::__ndk1::allocator<char> > > >::__assign_multi<std::__ndk1::__hash_const_iterator<std::__ndk1::__hash_node<std::__ndk1::basic_string<char, std::__ndk1::char_traits<char>, std::__ndk1::allocator<char> >, void*>*> >(std::__ndk1::__hash_const_iterator<std::__ndk1::__hash_node<std::__ndk1::basic_string<char, std::__ndk1::char_traits<char>, std::__ndk1::allocator<char> >, void*>*>, std::__ndk1::__hash_const_iterator<std::__ndk1::__hash_node<std::__ndk1::basic_string<char, std::__ndk1::char_traits<char>, std::__ndk1::allocator<char> >, void*>*>)
FUNC 4d7e0 140 0 std::__ndk1::__hash_table<std::__ndk1::basic_string<char, std::__ndk1::char_traits<char>, std::__ndk1::allocator<char> >, std::__ndk1::hash<std::__ndk1::basic_string<char, std::__ndk1::char_traits<char>, std::__ndk1::allocator<char> > >, std::__ndk1::equal_to<std::__ndk1::basic_string<char, std::__ndk1::char_traits<char>, std::__ndk1::allocator<char> > >, std::__ndk1::allocator<std::__ndk1::basic_string<char, std::__ndk1::char_traits<char>, std::__ndk1::allocator<char> > > >::__node_insert_multi(std::__ndk1::__hash_node<std::__ndk1::basic_string<char, std::__ndk1::char_traits<char>, std::__ndk1::allocator<char> >, void*>*)
FUNC 4d920 2c 0 std::__ndk1::__hash_table<std::__ndk1::basic_string<char, std::__ndk1::char_traits<char>, std::__ndk1::allocator<char> >, std::__ndk1::hash<std::__ndk1::basic_string<char, std::__ndk1::char_traits<char>, std::__ndk1::allocator<char> > >, std::__ndk1::equal_to<std::__ndk1::basic_string<char, std::__ndk1::char_traits<char>, std::__ndk1::allocator<char> > >, std::__ndk1::allocator<std::__ndk1::basic_string<char, std::__ndk1::char_traits<char>, std::__ndk1::allocator<char> > > >::__deallocate_node(std::__ndk1::__hash_node_base<std::__ndk1::__hash_node<std::__ndk1::basic_string<char, std::__ndk1::char_traits<char>, std::__ndk1::allocator<char> >, void*>*>*)
FUNC 4d94c 284 0 std::__ndk1::__hash_table<std::__ndk1::basic_string<char, std::__ndk1::char_traits<char>, std::__ndk1::allocator<char> >, std::__ndk1::hash<std::__ndk1::basic_string<char, std::__ndk1::char_traits<char>, std::__ndk1::allocator<char> > >, std::__ndk1::equal_to<std::__ndk1::basic_string<char, std::__ndk1::char_traits<char>, std::__ndk1::allocator<char> > >, std::__ndk1::allocator<std::__ndk1::basic_string<char, std::__ndk1::char_traits<char>, std::__ndk1::allocator<char> > > >::__node_insert_multi_prepare(unsigned int, std::__ndk1::basic_string<char, std::__ndk1::char_traits<char>, std::__ndk1::allocator<char> >&)
FUNC 4dbd0 1d0 0 std::__ndk1::__hash_table<std::__ndk1::basic_string<char, std::__ndk1::char_traits<char>, std::__ndk1::allocator<char> >, std::__ndk1::hash<std::__ndk1::basic_string<char, std::__ndk1::char_traits<char>, std::__ndk1::allocator<char> > >, std::__ndk1::equal_to<std::__ndk1::basic_string<char, std::__ndk1::char_traits<char>, std::__ndk1::allocator<char> > >, std::__ndk1::allocator<std::__ndk1::basic_string<char, std::__ndk1::char_traits<char>, std::__ndk1::allocator<char> > > >::__do_rehash<false>(unsigned int)
FUNC 4dda0 c2 0 std::__ndk1::__hash_table<std::__ndk1::basic_string<char, std::__ndk1::char_traits<char>, std::__ndk1::allocator<char> >, std::__ndk1::hash<std::__ndk1::basic_string<char, std::__ndk1::char_traits<char>, std::__ndk1::allocator<char> > >, std::__ndk1::equal_to<std::__ndk1::basic_string<char, std::__ndk1::char_traits<char>, std::__ndk1::allocator<char> > >, std::__ndk1::allocator<std::__ndk1::basic_string<char, std::__ndk1::char_traits<char>, std::__ndk1::allocator<char> > > >::__construct_node<std::__ndk1::basic_string<char, std::__ndk1::char_traits<char>, std::__ndk1::allocator<char> > const&>(std::__ndk1::basic_string<char, std::__ndk1::char_traits<char>, std::__ndk1::allocator<char> > const&)
FUNC 4de64 2b0 0 std::__ndk1::vector<ReportData, std::__ndk1::allocator<ReportData> >::__assign_with_size[abi:ne180000]<ReportData*, std::__ndk1::vector<ReportData, std::__ndk1::allocator<ReportData> >::__assign_with_size[abi:ne180000]>(ReportData*, std::__ndk1::vector<ReportData, std::__ndk1::allocator<ReportData> >::__assign_with_size[abi:ne180000], int)
FUNC 4e114 14 0 ScrollLayerExt::scrollWheel(float, float)
FUNC 4e128 18 0 {virtual override thunk({offset(-280)}, ScrollLayerExt::scrollWheel(float, float))}
FUNC 4e140 a0 0 ScrollLayerExt::ccTouchBegan(cocos2d::CCTouch*, cocos2d::CCEvent*)
FUNC 4e1e0 8 0 {virtual override thunk({offset(-264)}, ScrollLayerExt::ccTouchBegan(cocos2d::CCTouch*, cocos2d::CCEvent*))}
FUNC 4e1e8 90 0 ScrollLayerExt::ccTouchCancelled(cocos2d::CCTouch*, cocos2d::CCEvent*)
FUNC 4e278 8 0 {virtual override thunk({offset(-264)}, ScrollLayerExt::ccTouchCancelled(cocos2d::CCTouch*, cocos2d::CCEvent*))}
FUNC 4e280 84 0 ScrollLayerExt::ccTouchEnded(cocos2d::CCTouch*, cocos2d::CCEvent*)
FUNC 4e304 88 0 {virtual override thunk({offset(-264)}, ScrollLayerExt::ccTouchEnded(cocos2d::CCTouch*, cocos2d::CCEvent*))}
FUNC 4e38c 12c 0 ScrollLayerExt::ccTouchMoved(cocos2d::CCTouch*, cocos2d::CCEvent*)
FUNC 4e4b8 8 0 {virtual override thunk({offset(-264)}, ScrollLayerExt::ccTouchMoved(cocos2d::CCTouch*, cocos2d::CCEvent*))}
FUNC 4e4c0 204 0 ScrollLayerExt::ScrollLayerExt(cocos2d::CCRect const&, bool, bool)
FUNC 4e6c4 e4 0 ScrollLayerExt::visit()
FUNC 4e7a8 c8 0 ScrollLayerExt::fixTouchPrio()
FUNC 4e870 84 0 ScrollLayerExt::~ScrollLayerExt()
FUNC 4e8f4 88 0 ScrollLayerExt::~ScrollLayerExt()
FUNC 4e97c 88 0 {virtual override thunk({offset(-264)}, ScrollLayerExt::~ScrollLayerExt())}
FUNC 4ea04 8c 0 {virtual override thunk({offset(-264)}, ScrollLayerExt::~ScrollLayerExt())}
FUNC 4ea90 2 0 std::__ndk1::__function::__base<void ()>::~__base()
FUNC 4ea92 4 0 std::__ndk1::__function::__func<ScrollLayerExt::fixTouchPrio()::$_0, std::__ndk1::allocator<ScrollLayerExt::fixTouchPrio()::$_0>, void ()>::~__func()
FUNC 4ea98 28 0 std::__ndk1::__function::__func<ScrollLayerExt::fixTouchPrio()::$_0, std::__ndk1::allocator<ScrollLayerExt::fixTouchPrio()::$_0>, void ()>::__clone() const
FUNC 4eac0 1c 0 std::__ndk1::__function::__func<ScrollLayerExt::fixTouchPrio()::$_0, std::__ndk1::allocator<ScrollLayerExt::fixTouchPrio()::$_0>, void ()>::__clone(std::__ndk1::__function::__base<void ()>*) const
FUNC 4eadc 2 0 std::__ndk1::__function::__func<ScrollLayerExt::fixTouchPrio()::$_0, std::__ndk1::allocator<ScrollLayerExt::fixTouchPrio()::$_0>, void ()>::destroy()
FUNC 4eade 4 0 std::__ndk1::__function::__func<ScrollLayerExt::fixTouchPrio()::$_0, std::__ndk1::allocator<ScrollLayerExt::fixTouchPrio()::$_0>, void ()>::destroy_deallocate()
FUNC 4eae2 30 0 std::__ndk1::__function::__func<ScrollLayerExt::fixTouchPrio()::$_0, std::__ndk1::allocator<ScrollLayerExt::fixTouchPrio()::$_0>, void ()>::operator()()
FUNC 4eb14 18 0 std::__ndk1::__function::__func<ScrollLayerExt::fixTouchPrio()::$_0, std::__ndk1::allocator<ScrollLayerExt::fixTouchPrio()::$_0>, void ()>::target(std::type_info const&) const
FUNC 4eb2c c 0 std::__ndk1::__function::__func<ScrollLayerExt::fixTouchPrio()::$_0, std::__ndk1::allocator<ScrollLayerExt::fixTouchPrio()::$_0>, void ()>::target_type() const
FUNC 4eb38 23c 0 TextInputNode::init(std::__ndk1::basic_string<char, std::__ndk1::char_traits<char>, std::__ndk1::allocator<char> >, unsigned int, cocos2d::CCSize, float, float)
FUNC 4ed74 8c 0 TextInputNode::textChanged(CCTextInputNode*)
FUNC 4ee00 e8 0 TextInputNode::updateDescText(std::__ndk1::basic_string<char, std::__ndk1::char_traits<char>, std::__ndk1::allocator<char> >)
FUNC 4eee8 8 0 {virtual override thunk({offset(-264)}, TextInputNode::textChanged(CCTextInputNode*))}
FUNC 4eef0 bc 0 TextInputNode::textInputClosed(CCTextInputNode*)
FUNC 4efac 8 0 {virtual override thunk({offset(-264)}, TextInputNode::textInputClosed(CCTextInputNode*))}
FUNC 4efb4 90 0 TextInputNode::~TextInputNode()
FUNC 4f044 94 0 TextInputNode::~TextInputNode()
FUNC 4f0d8 2 0 TextInputNode::textInputOpened(CCTextInputNode*)
FUNC 4f0da 2 0 {virtual override thunk({offset(-264)}, TextInputNode::textInputOpened(CCTextInputNode*))}
FUNC 4f0dc c8 0 std::__ndk1::basic_string<char, std::__ndk1::char_traits<char>, std::__ndk1::allocator<char> >::__assign_external(char const*, unsigned int)
FUNC 4f1b0 11a4 0 ObjectWorkshop::setup(bool)
FUNC 50354 88 0 geode::Task<geode::utils::web::WebResponse, geode::utils::web::WebProgress>::cancel()
FUNC 503dc 7c 0 geode::EventListener<geode::Task<geode::utils::web::WebResponse, geode::utils::web::WebProgress> >::bind(std::__ndk1::function<void (geode::Task<geode::utils::web::WebResponse, geode::utils::web::WebProgress>*::Event)>)
FUNC 50458 c0 0 ObjectWorkshop::onBackBtn(cocos2d::CCObject*)
FUNC 50518 bc 0 ObjectWorkshop::onProfileSelf(cocos2d::CCObject*)
FUNC 505d4 1a4 0 ObjectWorkshop::createCategoryBtn(char const*, int, bool)
FUNC 50778 164 0 ObjectWorkshop::createCategoryBtn(char const*, int)
FUNC 508dc 16c 0 ObjectWorkshop::onSearchBtn(cocos2d::CCObject*)
FUNC 50a48 108 0 ObjectWorkshop::onFilterBtn(cocos2d::CCObject*)
FUNC 50b50 14 0 ObjectWorkshop::onReloadBtn(cocos2d::CCObject*)
FUNC 50b64 fc 0 ObjectWorkshop::onLeftPage(cocos2d::CCObject*)
FUNC 50c60 fc 0 ObjectWorkshop::onRightPage(cocos2d::CCObject*)
FUNC 50d5c e8 0 ObjectWorkshop::RegenCategory()
FUNC 50e44 3b4 0 ObjectWorkshop::onSideButton(cocos2d::CCObject*)
FUNC 511f8 58 0 ObjectWorkshop::textInputOpened(CCTextInputNode*)
FUNC 51250 58 0 {virtual override thunk({offset(-520)}, ObjectWorkshop::textInputOpened(CCTextInputNode*))}
FUNC 512a8 290 0 ObjectWorkshop::textInputClosed(CCTextInputNode*)
FUNC 51538 8 0 {virtual override thunk({offset(-520)}, ObjectWorkshop::textInputClosed(CCTextInputNode*))}
FUNC 51540 4 0 ObjectWorkshop::onRetryBtn(cocos2d::CCObject*)
FUNC 51544 288 0 Utils::url_encode(std::__ndk1::basic_string<char, std::__ndk1::char_traits<char>, std::__ndk1::allocator<char> > const&)
FUNC 517cc 294 0 ObjectWorkshop::onClickUser(int)
FUNC 51a60 3e4 0 ObjectWorkshop::onAdminBtn(cocos2d::CCObject*)
FUNC 51e50 368 0 ObjectWorkshop::onClickObject(cocos2d::CCObject*)
FUNC 521c0 9a0 0 ObjectWorkshop::onUploadBtn(cocos2d::CCObject*)
FUNC 52b60 4a 0 std::__ndk1::unordered_set<std::__ndk1::basic_string<char, std::__ndk1::char_traits<char>, std::__ndk1::allocator<char> >, std::__ndk1::hash<std::__ndk1::basic_string<char, std::__ndk1::char_traits<char>, std::__ndk1::allocator<char> > >, std::__ndk1::equal_to<std::__ndk1::basic_string<char, std::__ndk1::char_traits<char>, std::__ndk1::allocator<char> > >, std::__ndk1::allocator<std::__ndk1::basic_string<char, std::__ndk1::char_traits<char>, std::__ndk1::allocator<char> > > >::clear[abi:ne180000]()
FUNC 52bac 800 0 ObjectWorkshop::onUpload(cocos2d::CCObject*)
FUNC 533ac 7c 0 ObjectWorkshop::onRulesBtn(cocos2d::CCObject*)
FUNC 53428 108 0 ObjectWorkshop::onUploadFilterBtn(cocos2d::CCObject*)
FUNC 53530 16 0 geode::cocos::CCArrayExt<CreateMenuItem*, CreateMenuItem>::~CCArrayExt()
FUNC 53550 220 0 FiltersPopup::create(std::__ndk1::unordered_set<std::__ndk1::basic_string<char, std::__ndk1::char_traits<char>, std::__ndk1::allocator<char> >, std::__ndk1::hash<std::__ndk1::basic_string<char, std::__ndk1::char_traits<char>, std::__ndk1::allocator<char> > >, std::__ndk1::equal_to<std::__ndk1::basic_string<char, std::__ndk1::char_traits<char>, std::__ndk1::allocator<char> > >, std::__ndk1::allocator<std::__ndk1::basic_string<char, std::__ndk1::char_traits<char>, std::__ndk1::allocator<char> > > >, std::__ndk1::unordered_set<std::__ndk1::basic_string<char, std::__ndk1::char_traits<char>, std::__ndk1::allocator<char> >, std::__ndk1::hash<std::__ndk1::basic_string<char, std::__ndk1::char_traits<char>, std::__ndk1::allocator<char> > >, std::__ndk1::equal_to<std::__ndk1::basic_string<char, std::__ndk1::char_traits<char>, std::__ndk1::allocator<char> > >, std::__ndk1::allocator<std::__ndk1::basic_string<char, std::__ndk1::char_traits<char>, std::__ndk1::allocator<char> > > >, bool, std::__ndk1::function<void (std::__ndk1::unordered_set<std::__ndk1::basic_string<char, std::__ndk1::char_traits<char>, std::__ndk1::allocator<char> >, std::__ndk1::hash<std::__ndk1::basic_string<char, std::__ndk1::char_traits<char>, std::__ndk1::allocator<char> > >, std::__ndk1::equal_to<std::__ndk1::basic_string<char, std::__ndk1::char_traits<char>, std::__ndk1::allocator<char> > >, std::__ndk1::allocator<std::__ndk1::basic_string<char, std::__ndk1::char_traits<char>, std::__ndk1::allocator<char> > > >)>)
FUNC 53770 40 0 _ZNSt6__ndk112basic_stringIcNS_11char_traitsIcEENS_9allocatorIcEEEaSIN2gd6stringETnNS_9enable_ifIXaasr33__can_be_converted_to_string_viewIcS2_T_EE5valuentsr17__is_same_uncvrefISA_S5_EE5valueEiE4typeELi0EEERS5_RKSA_
FUNC 537b0 da 0 Utils::replaceAll(std::__ndk1::basic_string<char, std::__ndk1::char_traits<char>, std::__ndk1::allocator<char> >, std::__ndk1::basic_string<char, std::__ndk1::char_traits<char>, std::__ndk1::allocator<char> > const&, std::__ndk1::basic_string<char, std::__ndk1::char_traits<char>, std::__ndk1::allocator<char> > const&)
FUNC 5388c 48 0 _ZN7matjson5ValueC2ITkNS_12CanSerializeERNSt6__ndk113unordered_setINS2_12basic_stringIcNS2_11char_traitsIcEENS2_9allocatorIcEEEENS2_4hashIS9_EENS2_8equal_toIS9_EENS7_IS9_EEEEEEOT_
FUNC 538d4 2cc 0 ObjectWorkshop::onClose(cocos2d::CCObject*)
FUNC 53ba0 34 0 ObjectWorkshop::keyDown(cocos2d::enumKeyCodes)
FUNC 53bd4 36 0 {virtual override thunk({offset(-276)}, ObjectWorkshop::keyDown(cocos2d::enumKeyCodes))}
FUNC 53c0a 2e 0 ObjectWorkshop::keyBackClicked()
FUNC 53c38 30 0 {virtual override thunk({offset(-272)}, ObjectWorkshop::keyBackClicked())}
FUNC 53c68 45c 0 ObjectWorkshop::~ObjectWorkshop()
FUNC 540c4 10 0 ObjectWorkshop::~ObjectWorkshop()
FUNC 540d4 8 0 {virtual override thunk({offset(-264)}, ObjectWorkshop::~ObjectWorkshop())}
FUNC 540dc 14 0 {virtual override thunk({offset(-264)}, ObjectWorkshop::~ObjectWorkshop())}
FUNC 540f0 10 0 std::__ndk1::basic_string<char, std::__ndk1::char_traits<char>, std::__ndk1::allocator<char> >::__throw_out_of_range[abi:ne180000]() const
FUNC 54100 a4 0 std::__ndk1::basic_ostringstream<char, std::__ndk1::char_traits<char>, std::__ndk1::allocator<char> >::basic_ostringstream[abi:ne180000]()
FUNC 541a4 7c 0 std::__ndk1::basic_ostringstream<char, std::__ndk1::char_traits<char>, std::__ndk1::allocator<char> >::str[abi:ne180000]() const &
FUNC 54220 60 0 std::__ndk1::basic_ostringstream<char, std::__ndk1::char_traits<char>, std::__ndk1::allocator<char> >::~basic_ostringstream()
FUNC 54280 1d4 0 geode::Popup<UserData, UserData>::initAnchored(float, float, UserData, UserData, char const*, cocos2d::CCRect)
FUNC 54454 5c 0 geode::Popup<UserData, UserData>::~Popup()
FUNC 544b0 2 0 geode::Popup<UserData, UserData>::~Popup()
FUNC 544b2 20 0 geode::Popup<UserData, UserData>::registerWithTouchDispatcher()
FUNC 544d2 18 0 geode::Popup<UserData, UserData>::keyDown(cocos2d::enumKeyCodes)
FUNC 544ec e4 0 geode::Popup<UserData, UserData>::onClose(cocos2d::CCObject*)
FUNC 545d0 60 0 {virtual override thunk({offset(-264)}, geode::Popup<UserData, UserData>::~Popup())}
FUNC 54630 2 0 {virtual override thunk({offset(-264)}, geode::Popup<UserData, UserData>::~Popup())}
FUNC 54632 1c 0 {virtual override thunk({offset(-276)}, geode::Popup<UserData, UserData>::keyDown(cocos2d::enumKeyCodes))}
FUNC 5464e 44 0 geode::Popup<UserData, UserData>::CloseEvent::~CloseEvent()
FUNC 54692 40 0 geode::Popup<UserData, UserData>::CloseEvent::~CloseEvent()
FUNC 546d4 10 0 std::__ndk1::__shared_ptr_emplace<geode::Popup<UserData, UserData>::CloseEvent::Impl, std::__ndk1::allocator<geode::Popup<UserData, UserData>::CloseEvent::Impl> >::~__shared_ptr_emplace()
FUNC 546e4 1c 0 std::__ndk1::__shared_ptr_emplace<geode::Popup<UserData, UserData>::CloseEvent::Impl, std::__ndk1::allocator<geode::Popup<UserData, UserData>::CloseEvent::Impl> >::~__shared_ptr_emplace()
FUNC 54700 2 0 std::__ndk1::__shared_ptr_emplace<geode::Popup<UserData, UserData>::CloseEvent::Impl, std::__ndk1::allocator<geode::Popup<UserData, UserData>::CloseEvent::Impl> >::__on_zero_shared()
FUNC 54702 4 0 std::__ndk1::__shared_ptr_emplace<geode::Popup<UserData, UserData>::CloseEvent::Impl, std::__ndk1::allocator<geode::Popup<UserData, UserData>::CloseEvent::Impl> >::__on_zero_shared_weak()
FUNC 54708 3c4 0 geode::Popup<UserData, UserData>::initBase(float, float, UserData, UserData, char const*, cocos2d::CCRect, bool)
FUNC 54acc 26 0 std::__ndk1::vector<matjson::Value, std::__ndk1::allocator<matjson::Value> >::vector(std::__ndk1::vector<matjson::Value, std::__ndk1::allocator<matjson::Value> > const&)
FUNC 54af4 264 0 geode::Popup<ObjectData, UserData>::initAnchored(float, float, ObjectData, UserData, char const*, cocos2d::CCRect)
FUNC 54d58 5c 0 geode::Popup<ObjectData, UserData>::~Popup()
FUNC 54db4 2 0 geode::Popup<ObjectData, UserData>::~Popup()
FUNC 54db6 20 0 geode::Popup<ObjectData, UserData>::registerWithTouchDispatcher()
FUNC 54dd6 18 0 geode::Popup<ObjectData, UserData>::keyDown(cocos2d::enumKeyCodes)
FUNC 54df0 e4 0 geode::Popup<ObjectData, UserData>::onClose(cocos2d::CCObject*)
FUNC 54ed4 60 0 {virtual override thunk({offset(-264)}, geode::Popup<ObjectData, UserData>::~Popup())}
FUNC 54f34 2 0 {virtual override thunk({offset(-264)}, geode::Popup<ObjectData, UserData>::~Popup())}
FUNC 54f36 1c 0 {virtual override thunk({offset(-276)}, geode::Popup<ObjectData, UserData>::keyDown(cocos2d::enumKeyCodes))}
FUNC 54f52 44 0 geode::Popup<ObjectData, UserData>::CloseEvent::~CloseEvent()
FUNC 54f96 40 0 geode::Popup<ObjectData, UserData>::CloseEvent::~CloseEvent()
FUNC 54fd8 10 0 std::__ndk1::__shared_ptr_emplace<geode::Popup<ObjectData, UserData>::CloseEvent::Impl, std::__ndk1::allocator<geode::Popup<ObjectData, UserData>::CloseEvent::Impl> >::~__shared_ptr_emplace()
FUNC 54fe8 1c 0 std::__ndk1::__shared_ptr_emplace<geode::Popup<ObjectData, UserData>::CloseEvent::Impl, std::__ndk1::allocator<geode::Popup<ObjectData, UserData>::CloseEvent::Impl> >::~__shared_ptr_emplace()
FUNC 55004 2 0 std::__ndk1::__shared_ptr_emplace<geode::Popup<ObjectData, UserData>::CloseEvent::Impl, std::__ndk1::allocator<geode::Popup<ObjectData, UserData>::CloseEvent::Impl> >::__on_zero_shared()
FUNC 55006 4 0 std::__ndk1::__shared_ptr_emplace<geode::Popup<ObjectData, UserData>::CloseEvent::Impl, std::__ndk1::allocator<geode::Popup<ObjectData, UserData>::CloseEvent::Impl> >::__on_zero_shared_weak()
FUNC 5500c 41c 0 geode::Popup<ObjectData, UserData>::initBase(float, float, ObjectData, UserData, char const*, cocos2d::CCRect, bool)
FUNC 55428 1f4 0 geode::Popup<std::__ndk1::unordered_set<std::__ndk1::basic_string<char, std::__ndk1::char_traits<char>, std::__ndk1::allocator<char> >, std::__ndk1::hash<std::__ndk1::basic_string<char, std::__ndk1::char_traits<char>, std::__ndk1::allocator<char> > >, std::__ndk1::equal_to<std::__ndk1::basic_string<char, std::__ndk1::char_traits<char>, std::__ndk1::allocator<char> > >, std::__ndk1::allocator<std::__ndk1::basic_string<char, std::__ndk1::char_traits<char>, std::__ndk1::allocator<char> > > >, std::__ndk1::unordered_set<std::__ndk1::basic_string<char, std::__ndk1::char_traits<char>, std::__ndk1::allocator<char> >, std::__ndk1::hash<std::__ndk1::basic_string<char, std::__ndk1::char_traits<char>, std::__ndk1::allocator<char> > >, std::__ndk1::equal_to<std::__ndk1::basic_string<char, std::__ndk1::char_traits<char>, std::__ndk1::allocator<char> > >, std::__ndk1::allocator<std::__ndk1::basic_string<char, std::__ndk1::char_traits<char>, std::__ndk1::allocator<char> > > >, bool, std::__ndk1::function<void (std::__ndk1::unordered_set<std::__ndk1::basic_string<char, std::__ndk1::char_traits<char>, std::__ndk1::allocator<char> >, std::__ndk1::hash<std::__ndk1::basic_string<char, std::__ndk1::char_traits<char>, std::__ndk1::allocator<char> > >, std::__ndk1::equal_to<std::__ndk1::basic_string<char, std::__ndk1::char_traits<char>, std::__ndk1::allocator<char> > >, std::__ndk1::allocator<std::__ndk1::basic_string<char, std::__ndk1::char_traits<char>, std::__ndk1::allocator<char> > > >)> >::initAnchored(float, float, std::__ndk1::unordered_set<std::__ndk1::basic_string<char, std::__ndk1::char_traits<char>, std::__ndk1::allocator<char> >, std::__ndk1::hash<std::__ndk1::basic_string<char, std::__ndk1::char_traits<char>, std::__ndk1::allocator<char> > >, std::__ndk1::equal_to<std::__ndk1::basic_string<char, std::__ndk1::char_traits<char>, std::__ndk1::allocator<char> > >, std::__ndk1::allocator<std::__ndk1::basic_string<char, std::__ndk1::char_traits<char>, std::__ndk1::allocator<char> > > >, std::__ndk1::unordered_set<std::__ndk1::basic_string<char, std::__ndk1::char_traits<char>, std::__ndk1::allocator<char> >, std::__ndk1::hash<std::__ndk1::basic_string<char, std::__ndk1::char_traits<char>, std::__ndk1::allocator<char> > >, std::__ndk1::equal_to<std::__ndk1::basic_string<char, std::__ndk1::char_traits<char>, std::__ndk1::allocator<char> > >, std::__ndk1::allocator<std::__ndk1::basic_string<char, std::__ndk1::char_traits<char>, std::__ndk1::allocator<char> > > >, bool, std::__ndk1::function<void (std::__ndk1::unordered_set<std::__ndk1::basic_string<char, std::__ndk1::char_traits<char>, std::__ndk1::allocator<char> >, std::__ndk1::hash<std::__ndk1::basic_string<char, std::__ndk1::char_traits<char>, std::__ndk1::allocator<char> > >, std::__ndk1::equal_to<std::__ndk1::basic_string<char, std::__ndk1::char_traits<char>, std::__ndk1::allocator<char> > >, std::__ndk1::allocator<std::__ndk1::basic_string<char, std::__ndk1::char_traits<char>, std::__ndk1::allocator<char> > > >)>, char const*, cocos2d::CCRect)
FUNC 5561c 3ac 0 geode::Popup<std::__ndk1::unordered_set<std::__ndk1::basic_string<char, std::__ndk1::char_traits<char>, std::__ndk1::allocator<char> >, std::__ndk1::hash<std::__ndk1::basic_string<char, std::__ndk1::char_traits<char>, std::__ndk1::allocator<char> > >, std::__ndk1::equal_to<std::__ndk1::basic_string<char, std::__ndk1::char_traits<char>, std::__ndk1::allocator<char> > >, std::__ndk1::allocator<std::__ndk1::basic_string<char, std::__ndk1::char_traits<char>, std::__ndk1::allocator<char> > > >, std::__ndk1::unordered_set<std::__ndk1::basic_string<char, std::__ndk1::char_traits<char>, std::__ndk1::allocator<char> >, std::__ndk1::hash<std::__ndk1::basic_string<char, std::__ndk1::char_traits<char>, std::__ndk1::allocator<char> > >, std::__ndk1::equal_to<std::__ndk1::basic_string<char, std::__ndk1::char_traits<char>, std::__ndk1::allocator<char> > >, std::__ndk1::allocator<std::__ndk1::basic_string<char, std::__ndk1::char_traits<char>, std::__ndk1::allocator<char> > > >, bool, std::__ndk1::function<void (std::__ndk1::unordered_set<std::__ndk1::basic_string<char, std::__ndk1::char_traits<char>, std::__ndk1::allocator<char> >, std::__ndk1::hash<std::__ndk1::basic_string<char, std::__ndk1::char_traits<char>, std::__ndk1::allocator<char> > >, std::__ndk1::equal_to<std::__ndk1::basic_string<char, std::__ndk1::char_traits<char>, std::__ndk1::allocator<char> > >, std::__ndk1::allocator<std::__ndk1::basic_string<char, std::__ndk1::char_traits<char>, std::__ndk1::allocator<char> > > >)> >::initBase(float, float, std::__ndk1::unordered_set<std::__ndk1::basic_string<char, std::__ndk1::char_traits<char>, std::__ndk1::allocator<char> >, std::__ndk1::hash<std::__ndk1::basic_string<char, std::__ndk1::char_traits<char>, std::__ndk1::allocator<char> > >, std::__ndk1::equal_to<std::__ndk1::basic_string<char, std::__ndk1::char_traits<char>, std::__ndk1::allocator<char> > >, std::__ndk1::allocator<std::__ndk1::basic_string<char, std::__ndk1::char_traits<char>, std::__ndk1::allocator<char> > > >, std::__ndk1::unordered_set<std::__ndk1::basic_string<char, std::__ndk1::char_traits<char>, std::__ndk1::allocator<char> >, std::__ndk1::hash<std::__ndk1::basic_string<char, std::__ndk1::char_traits<char>, std::__ndk1::allocator<char> > >, std::__ndk1::equal_to<std::__ndk1::basic_string<char, std::__ndk1::char_traits<char>, std::__ndk1::allocator<char> > >, std::__ndk1::allocator<std::__ndk1::basic_string<char, std::__ndk1::char_traits<char>, std::__ndk1::allocator<char> > > >, bool, std::__ndk1::function<void (std::__ndk1::unordered_set<std::__ndk1::basic_string<char, std::__ndk1::char_traits<char>, std::__ndk1::allocator<char> >, std::__ndk1::hash<std::__ndk1::basic_string<char, std::__ndk1::char_traits<char>, std::__ndk1::allocator<char> > >, std::__ndk1::equal_to<std::__ndk1::basic_string<char, std::__ndk1::char_traits<char>, std::__ndk1::allocator<char> > >, std::__ndk1::allocator<std::__ndk1::basic_string<char, std::__ndk1::char_traits<char>, std::__ndk1::allocator<char> > > >)>, char const*, cocos2d::CCRect, bool)
FUNC 559c8 4 0 std::__ndk1::__function::__func<ObjectWorkshop::setup(bool)::$_0, std::__ndk1::allocator<ObjectWorkshop::setup(bool)::$_0>, void (geode::Task<geode::utils::web::WebResponse, geode::utils::web::WebProgress>::Event*)>::~__func()
FUNC 559cc 20 0 std::__ndk1::__function::__func<ObjectWorkshop::setup(bool)::$_0, std::__ndk1::allocator<ObjectWorkshop::setup(bool)::$_0>, void (geode::Task<geode::utils::web::WebResponse, geode::utils::web::WebProgress>::Event*)>::__clone() const
FUNC 559ec 14 0 std::__ndk1::__function::__func<ObjectWorkshop::setup(bool)::$_0, std::__ndk1::allocator<ObjectWorkshop::setup(bool)::$_0>, void (geode::Task<geode::utils::web::WebResponse, geode::utils::web::WebProgress>::Event*)>::__clone(std::__ndk1::__function::__base<void (geode::Task<geode::utils::web::WebResponse, geode::utils::web::WebProgress>::Event*)>*) const
FUNC 55a00 2 0 std::__ndk1::__function::__func<ObjectWorkshop::setup(bool)::$_0, std::__ndk1::allocator<ObjectWorkshop::setup(bool)::$_0>, void (geode::Task<geode::utils::web::WebResponse, geode::utils::web::WebProgress>::Event*)>::destroy()
FUNC 55a02 4 0 std::__ndk1::__function::__func<ObjectWorkshop::setup(bool)::$_0, std::__ndk1::allocator<ObjectWorkshop::setup(bool)::$_0>, void (geode::Task<geode::utils::web::WebResponse, geode::utils::web::WebProgress>::Event*)>::destroy_deallocate()
FUNC 55a08 51c 0 std::__ndk1::__function::__func<ObjectWorkshop::setup(bool)::$_0, std::__ndk1::allocator<ObjectWorkshop::setup(bool)::$_0>, void (geode::Task<geode::utils::web::WebResponse, geode::utils::web::WebProgress>::Event*)>::operator()(geode::Task<geode::utils::web::WebResponse, geode::utils::web::WebProgress>::Event*&&)
FUNC 55f24 18 0 std::__ndk1::__function::__func<ObjectWorkshop::setup(bool)::$_0, std::__ndk1::allocator<ObjectWorkshop::setup(bool)::$_0>, void (geode::Task<geode::utils::web::WebResponse, geode::utils::web::WebProgress>::Event*)>::target(std::type_info const&) const
FUNC 55f3c c 0 std::__ndk1::__function::__func<ObjectWorkshop::setup(bool)::$_0, std::__ndk1::allocator<ObjectWorkshop::setup(bool)::$_0>, void (geode::Task<geode::utils::web::WebResponse, geode::utils::web::WebProgress>::Event*)>::target_type() const
FUNC 55f48 4c 0 geode::impl::ResultData<matjson::Value&, std::__ndk1::basic_string<char, std::__ndk1::char_traits<char>, std::__ndk1::allocator<char> > >::unwrap() &
FUNC 55f94 60 0 geode::impl::ResultData<std::__ndk1::vector<matjson::Value, std::__ndk1::allocator<matjson::Value> >&, std::__ndk1::basic_string<char, std::__ndk1::char_traits<char>, std::__ndk1::allocator<char> > >::~ResultData()
FUNC 55ff4 104 0 Utils::arrayToUnorderedSet<std::__ndk1::basic_string<char, std::__ndk1::char_traits<char>, std::__ndk1::allocator<char> > >(std::__ndk1::vector<matjson::Value, std::__ndk1::allocator<matjson::Value> > const&)
FUNC 560f8 2 0 std::__ndk1::__variant_detail::__visitation::__base::__dispatcher<(unsigned int)0>::__dispatch[abi:ne180000]<std::__ndk1::__variant_detail::__dtor<std::__ndk1::__variant_detail::__traits<std::__ndk1::reference_wrapper<std::__ndk1::vector<matjson::Value, std::__ndk1::allocator<matjson> > >, std::__ndk1::basic_string<char, std::__ndk1::char_traits<char>, matjson::Value<char> > >, (std::__ndk1::__variant_detail::_Trait)1>::__destroy[abi:ne180000]()::{lambda(auto:1&)#1}, std::__ndk1::__variant_detail::__base<(std::__ndk1::__variant_detail::__traits<std::__ndk1::reference_wrapper<std::__ndk1::vector<matjson::Value, std::__ndk1::allocator<matjson> > >, std::__ndk1::basic_string<char, std::__ndk1::char_traits<char>, matjson::Value<char> > >)1, std::__ndk1::vector<matjson::Value, std::__ndk1::allocator<matjson> >, matjson::Value<char> >&>(std::__ndk1::__variant_detail::__dtor<std::__ndk1::__variant_detail::__traits<std::__ndk1::reference_wrapper<std::__ndk1::vector<matjson::Value, std::__ndk1::allocator<matjson> > >, std::__ndk1::basic_string<char, std::__ndk1::char_traits<char>, matjson::Value<char> > >, (std::__ndk1::__variant_detail::_Trait)1>, std::__ndk1::__variant_detail::__base<(std::__ndk1::__variant_detail::__traits<std::__ndk1::reference_wrapper<std::__ndk1::vector<matjson::Value, std::__ndk1::allocator<matjson> > >, std::__ndk1::basic_string<char, std::__ndk1::char_traits<char>, matjson::Value<char> > >)1, std::__ndk1::vector<matjson::Value, std::__ndk1::allocator<matjson> >, matjson::Value<char> >&)
FUNC 560fa e 0 std::__ndk1::__variant_detail::__visitation::__base::__dispatcher<(unsigned int)1>::__dispatch[abi:ne180000]<std::__ndk1::__variant_detail::__dtor<std::__ndk1::__variant_detail::__traits<std::__ndk1::reference_wrapper<std::__ndk1::vector<matjson::Value, std::__ndk1::allocator<matjson> > >, std::__ndk1::basic_string<char, std::__ndk1::char_traits<char>, matjson::Value<char> > >, (std::__ndk1::__variant_detail::_Trait)1>::__destroy[abi:ne180000]()::{lambda(auto:1&)#1}, std::__ndk1::__variant_detail::__base<(std::__ndk1::__variant_detail::__traits<std::__ndk1::reference_wrapper<std::__ndk1::vector<matjson::Value, std::__ndk1::allocator<matjson> > >, std::__ndk1::basic_string<char, std::__ndk1::char_traits<char>, matjson::Value<char> > >)1, std::__ndk1::vector<matjson::Value, std::__ndk1::allocator<matjson> >, matjson::Value<char> >&>(std::__ndk1::__variant_detail::__dtor<std::__ndk1::__variant_detail::__traits<std::__ndk1::reference_wrapper<std::__ndk1::vector<matjson::Value, std::__ndk1::allocator<matjson> > >, std::__ndk1::basic_string<char, std::__ndk1::char_traits<char>, matjson::Value<char> > >, (std::__ndk1::__variant_detail::_Trait)1>, std::__ndk1::__variant_detail::__base<(std::__ndk1::__variant_detail::__traits<std::__ndk1::reference_wrapper<std::__ndk1::vector<matjson::Value, std::__ndk1::allocator<matjson> > >, std::__ndk1::basic_string<char, std::__ndk1::char_traits<char>, matjson::Value<char> > >)1, std::__ndk1::vector<matjson::Value, std::__ndk1::allocator<matjson> >, matjson::Value<char> >&)
FUNC 56108 364 0 std::__ndk1::__hash_table<std::__ndk1::basic_string<char, std::__ndk1::char_traits<char>, std::__ndk1::allocator<char> >, std::__ndk1::hash<std::__ndk1::basic_string<char, std::__ndk1::char_traits<char>, std::__ndk1::allocator<char> > >, std::__ndk1::equal_to<std::__ndk1::basic_string<char, std::__ndk1::char_traits<char>, std::__ndk1::allocator<char> > >, std::__ndk1::allocator<std::__ndk1::basic_string<char, std::__ndk1::char_traits<char>, std::__ndk1::allocator<char> > > >::__emplace_unique_key_args<std::__ndk1::basic_string<char, std::__ndk1::char_traits<char>, std::__ndk1::allocator<char> >, std::__ndk1::basic_string<char, std::__ndk1::char_traits<char>, std::__ndk1::allocator<char> > >(std::__ndk1::basic_string<char, std::__ndk1::char_traits<char>, std::__ndk1::allocator<char> > const&, std::__ndk1::basic_string<char, std::__ndk1::char_traits<char>, std::__ndk1::allocator<char> >&&)
FUNC 5646c a8 0 std::__ndk1::__hash_table<std::__ndk1::basic_string<char, std::__ndk1::char_traits<char>, std::__ndk1::allocator<char> >, std::__ndk1::hash<std::__ndk1::basic_string<char, std::__ndk1::char_traits<char>, std::__ndk1::allocator<char> > >, std::__ndk1::equal_to<std::__ndk1::basic_string<char, std::__ndk1::char_traits<char>, std::__ndk1::allocator<char> > >, std::__ndk1::allocator<std::__ndk1::basic_string<char, std::__ndk1::char_traits<char>, std::__ndk1::allocator<char> > > >::__move_assign(std::__ndk1::__hash_table<std::__ndk1::basic_string<char, std::__ndk1::char_traits<char>, std::__ndk1::allocator<char> >, std::__ndk1::hash<std::__ndk1::basic_string<char, std::__ndk1::char_traits<char>, std::__ndk1::allocator<char> > >, std::__ndk1::equal_to<std::__ndk1::basic_string<char, std::__ndk1::char_traits<char>, std::__ndk1::allocator<char> > >, std::__ndk1::allocator<std::__ndk1::basic_string<char, std::__ndk1::char_traits<char>, std::__ndk1::allocator<char> > > >&, std::__ndk1::integral_constant<bool, true>)
FUNC 56514 3a4 0 fmt::v11::detail::value<fmt::v11::context>::format_custom_arg<std::__ndk1::unordered_set<std::__ndk1::basic_string<char, std::__ndk1::char_traits<char>, std::__ndk1::allocator<char> >, std::__ndk1::hash<std::__ndk1::basic_string<char, std::__ndk1::char_traits<char>, std::__ndk1::allocator<char> > >, std::__ndk1::equal_to<std::__ndk1::basic_string<char, std::__ndk1::char_traits<char>, std::__ndk1::allocator<char> > >, std::__ndk1::allocator<std::__ndk1::basic_string<char, std::__ndk1::char_traits<char>, std::__ndk1::allocator<char> > > >, fmt::v11::formatter<std::__ndk1::unordered_set<std::__ndk1::basic_string<char, std::__ndk1::char_traits<char>, std::__ndk1::allocator<char> >, std::__ndk1::hash<std::__ndk1::basic_string<char, std::__ndk1::char_traits<char>, std::__ndk1::allocator<char> > >, std::__ndk1::equal_to<std::__ndk1::basic_string<char, std::__ndk1::char_traits<char>, std::__ndk1::allocator<char> > >, std::__ndk1::allocator<std::__ndk1::basic_string<char, std::__ndk1::char_traits<char>, std::__ndk1::allocator<char> > > >, char, void> >(void*, fmt::v11::basic_format_parse_context<char>&, fmt::v11::context&)
FUNC 568b8 4 0 std::__ndk1::__function::__func<ObjectWorkshop::setup(bool)::$_1, std::__ndk1::allocator<ObjectWorkshop::setup(bool)::$_1>, void (geode::Task<geode::utils::web::WebResponse, geode::utils::web::WebProgress>::Event*)>::~__func()
FUNC 568bc 20 0 std::__ndk1::__function::__func<ObjectWorkshop::setup(bool)::$_1, std::__ndk1::allocator<ObjectWorkshop::setup(bool)::$_1>, void (geode::Task<geode::utils::web::WebResponse, geode::utils::web::WebProgress>::Event*)>::__clone() const
FUNC 568dc 18 0 std::__ndk1::__function::__func<ObjectWorkshop::setup(bool)::$_1, std::__ndk1::allocator<ObjectWorkshop::setup(bool)::$_1>, void (geode::Task<geode::utils::web::WebResponse, geode::utils::web::WebProgress>::Event*)>::__clone(std::__ndk1::__function::__base<void (geode::Task<geode::utils::web::WebResponse, geode::utils::web::WebProgress>::Event*)>*) const
FUNC 568f4 2 0 std::__ndk1::__function::__func<ObjectWorkshop::setup(bool)::$_1, std::__ndk1::allocator<ObjectWorkshop::setup(bool)::$_1>, void (geode::Task<geode::utils::web::WebResponse, geode::utils::web::WebProgress>::Event*)>::destroy()
FUNC 568f6 4 0 std::__ndk1::__function::__func<ObjectWorkshop::setup(bool)::$_1, std::__ndk1::allocator<ObjectWorkshop::setup(bool)::$_1>, void (geode::Task<geode::utils::web::WebResponse, geode::utils::web::WebProgress>::Event*)>::destroy_deallocate()
FUNC 568fc a14 0 std::__ndk1::__function::__func<ObjectWorkshop::setup(bool)::$_1, std::__ndk1::allocator<ObjectWorkshop::setup(bool)::$_1>, void (geode::Task<geode::utils::web::WebResponse, geode::utils::web::WebProgress>::Event*)>::operator()(geode::Task<geode::utils::web::WebResponse, geode::utils::web::WebProgress>::Event*&&)
FUNC 57310 18 0 std::__ndk1::__function::__func<ObjectWorkshop::setup(bool)::$_1, std::__ndk1::allocator<ObjectWorkshop::setup(bool)::$_1>, void (geode::Task<geode::utils::web::WebResponse, geode::utils::web::WebProgress>::Event*)>::target(std::type_info const&) const
FUNC 57328 c 0 std::__ndk1::__function::__func<ObjectWorkshop::setup(bool)::$_1, std::__ndk1::allocator<ObjectWorkshop::setup(bool)::$_1>, void (geode::Task<geode::utils::web::WebResponse, geode::utils::web::WebProgress>::Event*)>::target_type() const
FUNC 57334 8b4 0 matjson::Serialize<UserData>::fromJson(matjson::Value const&)
FUNC 57be8 4c 0 geode::impl::ResultData<UserData, std::__ndk1::basic_string<char, std::__ndk1::char_traits<char>, std::__ndk1::allocator<char> > >::unwrap() &
FUNC 57c34 90 0 UserData::operator=(UserData const&)
FUNC 57cc4 4c 0 geode::impl::ResultData<matjson::Value&, std::__ndk1::basic_string<char, std::__ndk1::char_traits<char>, std::__ndk1::allocator<char> > >::unwrap() &&
FUNC 57d10 60 0 geode::impl::ResultData<long long, std::__ndk1::basic_string<char, std::__ndk1::char_traits<char>, std::__ndk1::allocator<char> > >::~ResultData()
FUNC 57d70 6bc 0 WarningPopup::create(CaseData, std::__ndk1::function<void ()>)
FUNC 5842c 60 0 geode::impl::ResultData<UserData, std::__ndk1::basic_string<char, std::__ndk1::char_traits<char>, std::__ndk1::allocator<char> > >::~ResultData()
FUNC 5848c 48 0 geode::impl::ResultData<long long, std::__ndk1::basic_string<char, std::__ndk1::char_traits<char>, std::__ndk1::allocator<char> > >::unwrapErr() &&
FUNC 584d4 4c 0 geode::impl::ResultData<long long, std::__ndk1::basic_string<char, std::__ndk1::char_traits<char>, std::__ndk1::allocator<char> > >::unwrap() &&
FUNC 58520 48 0 geode::impl::ResultData<std::__ndk1::basic_string<char, std::__ndk1::char_traits<char>, std::__ndk1::allocator<char> >, std::__ndk1::basic_string<char, std::__ndk1::char_traits<char>, std::__ndk1::allocator<char> > >::unwrapErr() &&
FUNC 58568 4c 0 geode::impl::ResultData<std::__ndk1::basic_string<char, std::__ndk1::char_traits<char>, std::__ndk1::allocator<char> >, std::__ndk1::basic_string<char, std::__ndk1::char_traits<char>, std::__ndk1::allocator<char> > >::unwrap() &&
FUNC 585b4 60 0 geode::impl::ResultData<std::__ndk1::vector<matjson::Value, std::__ndk1::allocator<matjson::Value> > const&, std::__ndk1::basic_string<char, std::__ndk1::char_traits<char>, std::__ndk1::allocator<char> > >::~ResultData()
FUNC 58614 48 0 geode::impl::ResultData<std::__ndk1::vector<matjson::Value, std::__ndk1::allocator<matjson::Value> > const&, std::__ndk1::basic_string<char, std::__ndk1::char_traits<char>, std::__ndk1::allocator<char> > >::unwrapErr() &&
FUNC 5865c 4c 0 geode::impl::ResultData<std::__ndk1::vector<matjson::Value, std::__ndk1::allocator<matjson::Value> > const&, std::__ndk1::basic_string<char, std::__ndk1::char_traits<char>, std::__ndk1::allocator<char> > >::unwrap() &&
FUNC 586a8 f8 0 _ZN5geode15UnwrapExceptionC2IRxQsr4implE18IsStringStreamableIT_EEENS_4impl5OkTagEOS3_
FUNC 587a0 104 0 _ZN5geode15UnwrapExceptionC2IRNSt6__ndk112basic_stringIcNS2_11char_traitsIcEENS2_9allocatorIcEEEEQsr4implE18IsStringStreamableIT_EEENS_4impl5OkTagEOSA_
FUNC 588a4 2 0 std::__ndk1::__variant_detail::__visitation::__base::__dispatcher<(unsigned int)0>::__dispatch[abi:ne180000]<std::__ndk1::__variant_detail::__dtor<std::__ndk1::__variant_detail::__traits<std::__ndk1::reference_wrapper<std::__ndk1::vector<matjson::Value, std::__ndk1::allocator<matjson> > const>, std::__ndk1::basic_string<char, std::__ndk1::char_traits<char>, matjson::Value<char> > >, (std::__ndk1::__variant_detail::_Trait)1>::__destroy[abi:ne180000]()::{lambda(auto:1&)#1}, std::__ndk1::__variant_detail::__base<(std::__ndk1::__variant_detail::__traits<std::__ndk1::reference_wrapper<std::__ndk1::vector<matjson::Value, std::__ndk1::allocator<matjson> > const>, std::__ndk1::basic_string<char, std::__ndk1::char_traits<char>, matjson::Value<char> > >)1, std::__ndk1::vector<matjson::Value, std::__ndk1::allocator<matjson> > const, matjson::Value<char> >&>(std::__ndk1::__variant_detail::__dtor<std::__ndk1::__variant_detail::__traits<std::__ndk1::reference_wrapper<std::__ndk1::vector<matjson::Value, std::__ndk1::allocator<matjson> > const>, std::__ndk1::basic_string<char, std::__ndk1::char_traits<char>, matjson::Value<char> > >, (std::__ndk1::__variant_detail::_Trait)1>, std::__ndk1::__variant_detail::__base<(std::__ndk1::__variant_detail::__traits<std::__ndk1::reference_wrapper<std::__ndk1::vector<matjson::Value, std::__ndk1::allocator<matjson> > const>, std::__ndk1::basic_string<char, std::__ndk1::char_traits<char>, matjson::Value<char> > >)1, std::__ndk1::vector<matjson::Value, std::__ndk1::allocator<matjson> > const, matjson::Value<char> >&)
FUNC 588a6 e 0 std::__ndk1::__variant_detail::__visitation::__base::__dispatcher<(unsigned int)1>::__dispatch[abi:ne180000]<std::__ndk1::__variant_detail::__dtor<std::__ndk1::__variant_detail::__traits<std::__ndk1::reference_wrapper<std::__ndk1::vector<matjson::Value, std::__ndk1::allocator<matjson> > const>, std::__ndk1::basic_string<char, std::__ndk1::char_traits<char>, matjson::Value<char> > >, (std::__ndk1::__variant_detail::_Trait)1>::__destroy[abi:ne180000]()::{lambda(auto:1&)#1}, std::__ndk1::__variant_detail::__base<(std::__ndk1::__variant_detail::__traits<std::__ndk1::reference_wrapper<std::__ndk1::vector<matjson::Value, std::__ndk1::allocator<matjson> > const>, std::__ndk1::basic_string<char, std::__ndk1::char_traits<char>, matjson::Value<char> > >)1, std::__ndk1::vector<matjson::Value, std::__ndk1::allocator<matjson> > const, matjson::Value<char> >&>(std::__ndk1::__variant_detail::__dtor<std::__ndk1::__variant_detail::__traits<std::__ndk1::reference_wrapper<std::__ndk1::vector<matjson::Value, std::__ndk1::allocator<matjson> > const>, std::__ndk1::basic_string<char, std::__ndk1::char_traits<char>, matjson::Value<char> > >, (std::__ndk1::__variant_detail::_Trait)1>, std::__ndk1::__variant_detail::__base<(std::__ndk1::__variant_detail::__traits<std::__ndk1::reference_wrapper<std::__ndk1::vector<matjson::Value, std::__ndk1::allocator<matjson> > const>, std::__ndk1::basic_string<char, std::__ndk1::char_traits<char>, matjson::Value<char> > >)1, std::__ndk1::vector<matjson::Value, std::__ndk1::allocator<matjson> > const, matjson::Value<char> >&)
FUNC 588b4 20 0 _ZN5geode15UnwrapExceptionC2IRNSt6__ndk117reference_wrapperIKNS2_6vectorIN7matjson5ValueENS2_9allocatorIS6_EEEEEEQntsr4implE18IsStringStreamableIT_EEENS_4impl5OkTagEOSD_
FUNC 588d4 5c 0 geode::Popup<CaseData, std::__ndk1::function<void ()> >::~Popup()
FUNC 58930 2 0 geode::Popup<CaseData, std::__ndk1::function<void ()> >::~Popup()
FUNC 58932 20 0 geode::Popup<CaseData, std::__ndk1::function<void ()> >::registerWithTouchDispatcher()
FUNC 58952 18 0 geode::Popup<CaseData, std::__ndk1::function<void ()> >::keyDown(cocos2d::enumKeyCodes)
FUNC 5896c e4 0 geode::Popup<CaseData, std::__ndk1::function<void ()> >::onClose(cocos2d::CCObject*)
FUNC 58a50 60 0 {virtual override thunk({offset(-264)}, geode::Popup<CaseData, std::__ndk1::function<void ()> >::~Popup())}
FUNC 58ab0 2 0 {virtual override thunk({offset(-264)}, geode::Popup<CaseData, std::__ndk1::function<void ()> >::~Popup())}
FUNC 58ab2 1c 0 {virtual override thunk({offset(-276)}, geode::Popup<CaseData, std::__ndk1::function<void ()> >::keyDown(cocos2d::enumKeyCodes))}
FUNC 58ace 44 0 geode::Popup<CaseData, std::__ndk1::function<void ()> >::CloseEvent::~CloseEvent()
FUNC 58b12 40 0 geode::Popup<CaseData, std::__ndk1::function<void ()> >::CloseEvent::~CloseEvent()
FUNC 58b54 10 0 std::__ndk1::__shared_ptr_emplace<geode::Popup<CaseData, std::__ndk1::function<void ()> >::CloseEvent::Impl, std::__ndk1::allocator<geode::Popup<CaseData, std::__ndk1::function<void ()> >::CloseEvent::Impl> >::~__shared_ptr_emplace()
FUNC 58b64 1c 0 std::__ndk1::__shared_ptr_emplace<geode::Popup<CaseData, std::__ndk1::function<void ()> >::CloseEvent::Impl, std::__ndk1::allocator<geode::Popup<CaseData, std::__ndk1::function<void ()> >::CloseEvent::Impl> >::~__shared_ptr_emplace()
FUNC 58b80 2 0 std::__ndk1::__shared_ptr_emplace<geode::Popup<CaseData, std::__ndk1::function<void ()> >::CloseEvent::Impl, std::__ndk1::allocator<geode::Popup<CaseData, std::__ndk1::function<void ()> >::CloseEvent::Impl> >::__on_zero_shared()
FUNC 58b82 4 0 std::__ndk1::__shared_ptr_emplace<geode::Popup<CaseData, std::__ndk1::function<void ()> >::CloseEvent::Impl, std::__ndk1::allocator<geode::Popup<CaseData, std::__ndk1::function<void ()> >::CloseEvent::Impl> >::__on_zero_shared_weak()
FUNC 58b86 4 0 std::__ndk1::__function::__func<ObjectWorkshop::setup(bool)::$_1::operator()(geode::Task<geode::utils::web::WebResponse, geode::utils::web::WebProgress>::Event*) const::{lambda()#1}, std::__ndk1::allocator<ObjectWorkshop::setup(bool)::$_1::operator()(geode::Task<geode::utils::web::WebResponse, geode::utils::web::WebProgress>::Event*) const::{lambda()#1}>, void ()>::~__func()
FUNC 58b8c 20 0 std::__ndk1::__function::__func<ObjectWorkshop::setup(bool)::$_1::operator()(geode::Task<geode::utils::web::WebResponse, geode::utils::web::WebProgress>::Event*) const::{lambda()#1}, std::__ndk1::allocator<ObjectWorkshop::setup(bool)::$_1::operator()(geode::Task<geode::utils::web::WebResponse, geode::utils::web::WebProgress>::Event*) const::{lambda()#1}>, void ()>::__clone() const
FUNC 58bac 14 0 std::__ndk1::__function::__func<ObjectWorkshop::setup(bool)::$_1::operator()(geode::Task<geode::utils::web::WebResponse, geode::utils::web::WebProgress>::Event*) const::{lambda()#1}, std::__ndk1::allocator<ObjectWorkshop::setup(bool)::$_1::operator()(geode::Task<geode::utils::web::WebResponse, geode::utils::web::WebProgress>::Event*) const::{lambda()#1}>, void ()>::__clone(std::__ndk1::__function::__base<void ()>*) const
FUNC 58bc0 2 0 std::__ndk1::__function::__func<ObjectWorkshop::setup(bool)::$_1::operator()(geode::Task<geode::utils::web::WebResponse, geode::utils::web::WebProgress>::Event*) const::{lambda()#1}, std::__ndk1::allocator<ObjectWorkshop::setup(bool)::$_1::operator()(geode::Task<geode::utils::web::WebResponse, geode::utils::web::WebProgress>::Event*) const::{lambda()#1}>, void ()>::destroy()
FUNC 58bc2 4 0 std::__ndk1::__function::__func<ObjectWorkshop::setup(bool)::$_1::operator()(geode::Task<geode::utils::web::WebResponse, geode::utils::web::WebProgress>::Event*) const::{lambda()#1}, std::__ndk1::allocator<ObjectWorkshop::setup(bool)::$_1::operator()(geode::Task<geode::utils::web::WebResponse, geode::utils::web::WebProgress>::Event*) const::{lambda()#1}>, void ()>::destroy_deallocate()
FUNC 58bc6 a 0 std::__ndk1::__function::__func<ObjectWorkshop::setup(bool)::$_1::operator()(geode::Task<geode::utils::web::WebResponse, geode::utils::web::WebProgress>::Event*) const::{lambda()#1}, std::__ndk1::allocator<ObjectWorkshop::setup(bool)::$_1::operator()(geode::Task<geode::utils::web::WebResponse, geode::utils::web::WebProgress>::Event*) const::{lambda()#1}>, void ()>::operator()()
FUNC 58bd0 18 0 std::__ndk1::__function::__func<ObjectWorkshop::setup(bool)::$_1::operator()(geode::Task<geode::utils::web::WebResponse, geode::utils::web::WebProgress>::Event*) const::{lambda()#1}, std::__ndk1::allocator<ObjectWorkshop::setup(bool)::$_1::operator()(geode::Task<geode::utils::web::WebResponse, geode::utils::web::WebProgress>::Event*) const::{lambda()#1}>, void ()>::target(std::type_info const&) const
FUNC 58be8 c 0 std::__ndk1::__function::__func<ObjectWorkshop::setup(bool)::$_1::operator()(geode::Task<geode::utils::web::WebResponse, geode::utils::web::WebProgress>::Event*) const::{lambda()#1}, std::__ndk1::allocator<ObjectWorkshop::setup(bool)::$_1::operator()(geode::Task<geode::utils::web::WebResponse, geode::utils::web::WebProgress>::Event*) const::{lambda()#1}>, void ()>::target_type() const
FUNC 58bf4 58 0 std::__ndk1::__variant_detail::__visitation::__base::__dispatcher<(unsigned int)0>::__dispatch[abi:ne180000]<std::__ndk1::__variant_detail::__dtor<std::__ndk1::__variant_detail::__traits<UserData, std::__ndk1::basic_string<char, std::__ndk1::char_traits<char>, std::__ndk1::allocator<char> > >, (std::__ndk1::__variant_detail::_Trait)1>::__destroy[abi:ne180000]()::{lambda(auto:1&)#1}, std::__ndk1::__variant_detail::__base<(std::__ndk1::__variant_detail::__traits<UserData, std::__ndk1::basic_string<char, std::__ndk1::char_traits<char>, std::__ndk1::allocator<char> > >)1, std::__ndk1::__variant_detail::__traits, std::__ndk1::allocator<char> >&>(std::__ndk1::__variant_detail::__dtor<std::__ndk1::__variant_detail::__traits<UserData, std::__ndk1::basic_string<char, std::__ndk1::char_traits<char>, std::__ndk1::allocator<char> > >, (std::__ndk1::__variant_detail::_Trait)1>, std::__ndk1::__variant_detail::__base<(std::__ndk1::__variant_detail::__traits<UserData, std::__ndk1::basic_string<char, std::__ndk1::char_traits<char>, std::__ndk1::allocator<char> > >)1, std::__ndk1::__variant_detail::__traits, std::__ndk1::allocator<char> >&)
FUNC 58c4c e 0 std::__ndk1::__variant_detail::__visitation::__base::__dispatcher<(unsigned int)1>::__dispatch[abi:ne180000]<std::__ndk1::__variant_detail::__dtor<std::__ndk1::__variant_detail::__traits<UserData, std::__ndk1::basic_string<char, std::__ndk1::char_traits<char>, std::__ndk1::allocator<char> > >, (std::__ndk1::__variant_detail::_Trait)1>::__destroy[abi:ne180000]()::{lambda(auto:1&)#1}, std::__ndk1::__variant_detail::__base<(std::__ndk1::__variant_detail::__traits<UserData, std::__ndk1::basic_string<char, std::__ndk1::char_traits<char>, std::__ndk1::allocator<char> > >)1, std::__ndk1::__variant_detail::__traits, std::__ndk1::allocator<char> >&>(std::__ndk1::__variant_detail::__dtor<std::__ndk1::__variant_detail::__traits<UserData, std::__ndk1::basic_string<char, std::__ndk1::char_traits<char>, std::__ndk1::allocator<char> > >, (std::__ndk1::__variant_detail::_Trait)1>, std::__ndk1::__variant_detail::__base<(std::__ndk1::__variant_detail::__traits<UserData, std::__ndk1::basic_string<char, std::__ndk1::char_traits<char>, std::__ndk1::allocator<char> > >)1, std::__ndk1::__variant_detail::__traits, std::__ndk1::allocator<char> >&)
FUNC 58c5a 4 0 std::__ndk1::__function::__func<ObjectWorkshop::RegenCategory()::$_0, std::__ndk1::allocator<ObjectWorkshop::RegenCategory()::$_0>, void ()>::~__func()
FUNC 58c60 20 0 std::__ndk1::__function::__func<ObjectWorkshop::RegenCategory()::$_0, std::__ndk1::allocator<ObjectWorkshop::RegenCategory()::$_0>, void ()>::__clone() const
FUNC 58c80 14 0 std::__ndk1::__function::__func<ObjectWorkshop::RegenCategory()::$_0, std::__ndk1::allocator<ObjectWorkshop::RegenCategory()::$_0>, void ()>::__clone(std::__ndk1::__function::__base<void ()>*) const
FUNC 58c94 2 0 std::__ndk1::__function::__func<ObjectWorkshop::RegenCategory()::$_0, std::__ndk1::allocator<ObjectWorkshop::RegenCategory()::$_0>, void ()>::destroy()
FUNC 58c96 4 0 std::__ndk1::__function::__func<ObjectWorkshop::RegenCategory()::$_0, std::__ndk1::allocator<ObjectWorkshop::RegenCategory()::$_0>, void ()>::destroy_deallocate()
FUNC 58c9c e0 0 std::__ndk1::__function::__func<ObjectWorkshop::RegenCategory()::$_0, std::__ndk1::allocator<ObjectWorkshop::RegenCategory()::$_0>, void ()>::operator()()
FUNC 58d7c 18 0 std::__ndk1::__function::__func<ObjectWorkshop::RegenCategory()::$_0, std::__ndk1::allocator<ObjectWorkshop::RegenCategory()::$_0>, void ()>::target(std::type_info const&) const
FUNC 58d94 c 0 std::__ndk1::__function::__func<ObjectWorkshop::RegenCategory()::$_0, std::__ndk1::allocator<ObjectWorkshop::RegenCategory()::$_0>, void ()>::target_type() const
FUNC 58da0 4 0 std::__ndk1::__function::__func<ObjectWorkshop::RegenCategory()::$_0::operator()() const::{lambda()#1}, std::__ndk1::allocator<ObjectWorkshop::RegenCategory()::$_0::operator()() const::{lambda()#1}>, void ()>::~__func()
FUNC 58da4 20 0 std::__ndk1::__function::__func<ObjectWorkshop::RegenCategory()::$_0::operator()() const::{lambda()#1}, std::__ndk1::allocator<ObjectWorkshop::RegenCategory()::$_0::operator()() const::{lambda()#1}>, void ()>::__clone() const
FUNC 58dc4 14 0 std::__ndk1::__function::__func<ObjectWorkshop::RegenCategory()::$_0::operator()() const::{lambda()#1}, std::__ndk1::allocator<ObjectWorkshop::RegenCategory()::$_0::operator()() const::{lambda()#1}>, void ()>::__clone(std::__ndk1::__function::__base<void ()>*) const
FUNC 58dd8 2 0 std::__ndk1::__function::__func<ObjectWorkshop::RegenCategory()::$_0::operator()() const::{lambda()#1}, std::__ndk1::allocator<ObjectWorkshop::RegenCategory()::$_0::operator()() const::{lambda()#1}>, void ()>::destroy()
FUNC 58dda 4 0 std::__ndk1::__function::__func<ObjectWorkshop::RegenCategory()::$_0::operator()() const::{lambda()#1}, std::__ndk1::allocator<ObjectWorkshop::RegenCategory()::$_0::operator()() const::{lambda()#1}>, void ()>::destroy_deallocate()
FUNC 58dde c 0 std::__ndk1::__function::__func<ObjectWorkshop::RegenCategory()::$_0::operator()() const::{lambda()#1}, std::__ndk1::allocator<ObjectWorkshop::RegenCategory()::$_0::operator()() const::{lambda()#1}>, void ()>::operator()()
FUNC 58dec 18 0 std::__ndk1::__function::__func<ObjectWorkshop::RegenCategory()::$_0::operator()() const::{lambda()#1}, std::__ndk1::allocator<ObjectWorkshop::RegenCategory()::$_0::operator()() const::{lambda()#1}>, void ()>::target(std::type_info const&) const
FUNC 58e04 c 0 std::__ndk1::__function::__func<ObjectWorkshop::RegenCategory()::$_0::operator()() const::{lambda()#1}, std::__ndk1::allocator<ObjectWorkshop::RegenCategory()::$_0::operator()() const::{lambda()#1}>, void ()>::target_type() const
FUNC 58e10 4 0 std::__ndk1::__function::__func<ObjectWorkshop::RegenCategory()::$_1, std::__ndk1::allocator<ObjectWorkshop::RegenCategory()::$_1>, void ()>::~__func()
FUNC 58e14 20 0 std::__ndk1::__function::__func<ObjectWorkshop::RegenCategory()::$_1, std::__ndk1::allocator<ObjectWorkshop::RegenCategory()::$_1>, void ()>::__clone() const
FUNC 58e34 14 0 std::__ndk1::__function::__func<ObjectWorkshop::RegenCategory()::$_1, std::__ndk1::allocator<ObjectWorkshop::RegenCategory()::$_1>, void ()>::__clone(std::__ndk1::__function::__base<void ()>*) const
FUNC 58e48 2 0 std::__ndk1::__function::__func<ObjectWorkshop::RegenCategory()::$_1, std::__ndk1::allocator<ObjectWorkshop::RegenCategory()::$_1>, void ()>::destroy()
FUNC 58e4a 4 0 std::__ndk1::__function::__func<ObjectWorkshop::RegenCategory()::$_1, std::__ndk1::allocator<ObjectWorkshop::RegenCategory()::$_1>, void ()>::destroy_deallocate()
FUNC 58e50 1614 0 std::__ndk1::__function::__func<ObjectWorkshop::RegenCategory()::$_1, std::__ndk1::allocator<ObjectWorkshop::RegenCategory()::$_1>, void ()>::operator()()
FUNC 5a464 18 0 std::__ndk1::__function::__func<ObjectWorkshop::RegenCategory()::$_1, std::__ndk1::allocator<ObjectWorkshop::RegenCategory()::$_1>, void ()>::target(std::type_info const&) const
FUNC 5a47c c 0 std::__ndk1::__function::__func<ObjectWorkshop::RegenCategory()::$_1, std::__ndk1::allocator<ObjectWorkshop::RegenCategory()::$_1>, void ()>::target_type() const
FUNC 5a488 10 0 BreakLine::~BreakLine()
FUNC 5a498 7c 0 BreakLine::draw()
FUNC 5a514 4 0 std::__ndk1::__function::__func<ObjectWorkshop::load()::$_0, std::__ndk1::allocator<ObjectWorkshop::load()::$_0>, void (geode::Task<geode::utils::web::WebResponse, geode::utils::web::WebProgress>::Event*)>::~__func()
FUNC 5a518 20 0 std::__ndk1::__function::__func<ObjectWorkshop::load()::$_0, std::__ndk1::allocator<ObjectWorkshop::load()::$_0>, void (geode::Task<geode::utils::web::WebResponse, geode::utils::web::WebProgress>::Event*)>::__clone() const
FUNC 5a538 14 0 std::__ndk1::__function::__func<ObjectWorkshop::load()::$_0, std::__ndk1::allocator<ObjectWorkshop::load()::$_0>, void (geode::Task<geode::utils::web::WebResponse, geode::utils::web::WebProgress>::Event*)>::__clone(std::__ndk1::__function::__base<void (geode::Task<geode::utils::web::WebResponse, geode::utils::web::WebProgress>::Event*)>*) const
FUNC 5a54c 2 0 std::__ndk1::__function::__func<ObjectWorkshop::load()::$_0, std::__ndk1::allocator<ObjectWorkshop::load()::$_0>, void (geode::Task<geode::utils::web::WebResponse, geode::utils::web::WebProgress>::Event*)>::destroy()
FUNC 5a54e 4 0 std::__ndk1::__function::__func<ObjectWorkshop::load()::$_0, std::__ndk1::allocator<ObjectWorkshop::load()::$_0>, void (geode::Task<geode::utils::web::WebResponse, geode::utils::web::WebProgress>::Event*)>::destroy_deallocate()
FUNC 5a552 8 0 std::__ndk1::__function::__func<ObjectWorkshop::load()::$_0, std::__ndk1::allocator<ObjectWorkshop::load()::$_0>, void (geode::Task<geode::utils::web::WebResponse, geode::utils::web::WebProgress>::Event*)>::operator()(geode::Task<geode::utils::web::WebResponse, geode::utils::web::WebProgress>::Event*&&)
FUNC 5a55c 18 0 std::__ndk1::__function::__func<ObjectWorkshop::load()::$_0, std::__ndk1::allocator<ObjectWorkshop::load()::$_0>, void (geode::Task<geode::utils::web::WebResponse, geode::utils::web::WebProgress>::Event*)>::target(std::type_info const&) const
FUNC 5a574 c 0 std::__ndk1::__function::__func<ObjectWorkshop::load()::$_0, std::__ndk1::allocator<ObjectWorkshop::load()::$_0>, void (geode::Task<geode::utils::web::WebResponse, geode::utils::web::WebProgress>::Event*)>::target_type() const
FUNC 5a580 2218 0 ObjectWorkshop::load()::$_0::operator()(geode::Task<geode::utils::web::WebResponse, geode::utils::web::WebProgress>::Event*) const
FUNC 5c798 a5c 0 matjson::Serialize<ObjectData>::fromJson(matjson::Value const&)
FUNC 5d1f4 60 0 geode::impl::ResultData<ReportData, std::__ndk1::basic_string<char, std::__ndk1::char_traits<char>, std::__ndk1::allocator<char> > >::~ResultData()
FUNC 5d254 64 0 geode::impl::ResultData<ObjectData, std::__ndk1::basic_string<char, std::__ndk1::char_traits<char>, std::__ndk1::allocator<char> > >::~ResultData()
FUNC 5d2b8 94 0 ObjectWorkshop::onReviewerInfoBtn(cocos2d::CCObject*)
FUNC 5d34c 94 0 ObjectWorkshop::onAdminInfoBtn(cocos2d::CCObject*)
FUNC 5d3e0 60 0 geode::impl::ResultData<double, std::__ndk1::basic_string<char, std::__ndk1::char_traits<char>, std::__ndk1::allocator<char> > >::~ResultData()
FUNC 5d440 1a 0 ObjectWorkshop::onGoProfileBtn(cocos2d::CCObject*)
FUNC 5d45a 3c 0 std::__ndk1::__split_buffer<ReportData, std::__ndk1::allocator<ReportData>&>::~__split_buffer()
FUNC 5d496 e 0 std::__ndk1::__variant_detail::__visitation::__base::__dispatcher<(unsigned int)0>::__dispatch[abi:ne180000]<std::__ndk1::__variant_detail::__dtor<std::__ndk1::__variant_detail::__traits<ReportData, std::__ndk1::basic_string<char, std::__ndk1::char_traits<char>, std::__ndk1::allocator<char> > >, (std::__ndk1::__variant_detail::_Trait)1>::__destroy[abi:ne180000]()::{lambda(auto:1&)#1}, std::__ndk1::__variant_detail::__base<(std::__ndk1::__variant_detail::__traits<ReportData, std::__ndk1::basic_string<char, std::__ndk1::char_traits<char>, std::__ndk1::allocator<char> > >)1, std::__ndk1::__variant_detail::__traits, std::__ndk1::allocator<char> >&>(std::__ndk1::__variant_detail::__dtor<std::__ndk1::__variant_detail::__traits<ReportData, std::__ndk1::basic_string<char, std::__ndk1::char_traits<char>, std::__ndk1::allocator<char> > >, (std::__ndk1::__variant_detail::_Trait)1>, std::__ndk1::__variant_detail::__base<(std::__ndk1::__variant_detail::__traits<ReportData, std::__ndk1::basic_string<char, std::__ndk1::char_traits<char>, std::__ndk1::allocator<char> > >)1, std::__ndk1::__variant_detail::__traits, std::__ndk1::allocator<char> >&)
FUNC 5d4a4 e 0 std::__ndk1::__variant_detail::__visitation::__base::__dispatcher<(unsigned int)1>::__dispatch[abi:ne180000]<std::__ndk1::__variant_detail::__dtor<std::__ndk1::__variant_detail::__traits<ReportData, std::__ndk1::basic_string<char, std::__ndk1::char_traits<char>, std::__ndk1::allocator<char> > >, (std::__ndk1::__variant_detail::_Trait)1>::__destroy[abi:ne180000]()::{lambda(auto:1&)#1}, std::__ndk1::__variant_detail::__base<(std::__ndk1::__variant_detail::__traits<ReportData, std::__ndk1::basic_string<char, std::__ndk1::char_traits<char>, std::__ndk1::allocator<char> > >)1, std::__ndk1::__variant_detail::__traits, std::__ndk1::allocator<char> >&>(std::__ndk1::__variant_detail::__dtor<std::__ndk1::__variant_detail::__traits<ReportData, std::__ndk1::basic_string<char, std::__ndk1::char_traits<char>, std::__ndk1::allocator<char> > >, (std::__ndk1::__variant_detail::_Trait)1>, std::__ndk1::__variant_detail::__base<(std::__ndk1::__variant_detail::__traits<ReportData, std::__ndk1::basic_string<char, std::__ndk1::char_traits<char>, std::__ndk1::allocator<char> > >)1, std::__ndk1::__variant_detail::__traits, std::__ndk1::allocator<char> >&)
FUNC 5d4b2 6 0 std::__ndk1::__variant_detail::__visitation::__base::__dispatcher<(unsigned int)0>::__dispatch[abi:ne180000]<std::__ndk1::__variant_detail::__dtor<std::__ndk1::__variant_detail::__traits<ObjectData, std::__ndk1::basic_string<char, std::__ndk1::char_traits<char>, std::__ndk1::allocator<char> > >, (std::__ndk1::__variant_detail::_Trait)1>::__destroy[abi:ne180000]()::{lambda(auto:1&)#1}, std::__ndk1::__variant_detail::__base<(std::__ndk1::__variant_detail::__traits<ObjectData, std::__ndk1::basic_string<char, std::__ndk1::char_traits<char>, std::__ndk1::allocator<char> > >)1, std::__ndk1::__variant_detail::__traits, std::__ndk1::allocator<char> >&>(std::__ndk1::__variant_detail::__dtor<std::__ndk1::__variant_detail::__traits<ObjectData, std::__ndk1::basic_string<char, std::__ndk1::char_traits<char>, std::__ndk1::allocator<char> > >, (std::__ndk1::__variant_detail::_Trait)1>, std::__ndk1::__variant_detail::__base<(std::__ndk1::__variant_detail::__traits<ObjectData, std::__ndk1::basic_string<char, std::__ndk1::char_traits<char>, std::__ndk1::allocator<char> > >)1, std::__ndk1::__variant_detail::__traits, std::__ndk1::allocator<char> >&)
FUNC 5d4b8 e 0 std::__ndk1::__variant_detail::__visitation::__base::__dispatcher<(unsigned int)1>::__dispatch[abi:ne180000]<std::__ndk1::__variant_detail::__dtor<std::__ndk1::__variant_detail::__traits<ObjectData, std::__ndk1::basic_string<char, std::__ndk1::char_traits<char>, std::__ndk1::allocator<char> > >, (std::__ndk1::__variant_detail::_Trait)1>::__destroy[abi:ne180000]()::{lambda(auto:1&)#1}, std::__ndk1::__variant_detail::__base<(std::__ndk1::__variant_detail::__traits<ObjectData, std::__ndk1::basic_string<char, std::__ndk1::char_traits<char>, std::__ndk1::allocator<char> > >)1, std::__ndk1::__variant_detail::__traits, std::__ndk1::allocator<char> >&>(std::__ndk1::__variant_detail::__dtor<std::__ndk1::__variant_detail::__traits<ObjectData, std::__ndk1::basic_string<char, std::__ndk1::char_traits<char>, std::__ndk1::allocator<char> > >, (std::__ndk1::__variant_detail::_Trait)1>, std::__ndk1::__variant_detail::__base<(std::__ndk1::__variant_detail::__traits<ObjectData, std::__ndk1::basic_string<char, std::__ndk1::char_traits<char>, std::__ndk1::allocator<char> > >)1, std::__ndk1::__variant_detail::__traits, std::__ndk1::allocator<char> >&)
FUNC 5d4c6 2 0 std::__ndk1::__variant_detail::__visitation::__base::__dispatcher<(unsigned int)0>::__dispatch[abi:ne180000]<std::__ndk1::__variant_detail::__dtor<std::__ndk1::__variant_detail::__traits<double, std::__ndk1::basic_string<char, std::__ndk1::char_traits<char>, std::__ndk1::allocator<char> > >, (std::__ndk1::__variant_detail::_Trait)1>::__destroy[abi:ne180000]()::{lambda(auto:1&)#1}, std::__ndk1::__variant_detail::__base<(std::__ndk1::__variant_detail::__traits<double, std::__ndk1::basic_string<char, std::__ndk1::char_traits<char>, std::__ndk1::allocator<char> > >)1, double, std::__ndk1::allocator<char> >&>(std::__ndk1::__variant_detail::__dtor<std::__ndk1::__variant_detail::__traits<double, std::__ndk1::basic_string<char, std::__ndk1::char_traits<char>, std::__ndk1::allocator<char> > >, (std::__ndk1::__variant_detail::_Trait)1>, std::__ndk1::__variant_detail::__base<(std::__ndk1::__variant_detail::__traits<double, std::__ndk1::basic_string<char, std::__ndk1::char_traits<char>, std::__ndk1::allocator<char> > >)1, double, std::__ndk1::allocator<char> >&)
FUNC 5d4c8 e 0 std::__ndk1::__variant_detail::__visitation::__base::__dispatcher<(unsigned int)1>::__dispatch[abi:ne180000]<std::__ndk1::__variant_detail::__dtor<std::__ndk1::__variant_detail::__traits<double, std::__ndk1::basic_string<char, std::__ndk1::char_traits<char>, std::__ndk1::allocator<char> > >, (std::__ndk1::__variant_detail::_Trait)1>::__destroy[abi:ne180000]()::{lambda(auto:1&)#1}, std::__ndk1::__variant_detail::__base<(std::__ndk1::__variant_detail::__traits<double, std::__ndk1::basic_string<char, std::__ndk1::char_traits<char>, std::__ndk1::allocator<char> > >)1, double, std::__ndk1::allocator<char> >&>(std::__ndk1::__variant_detail::__dtor<std::__ndk1::__variant_detail::__traits<double, std::__ndk1::basic_string<char, std::__ndk1::char_traits<char>, std::__ndk1::allocator<char> > >, (std::__ndk1::__variant_detail::_Trait)1>, std::__ndk1::__variant_detail::__base<(std::__ndk1::__variant_detail::__traits<double, std::__ndk1::basic_string<char, std::__ndk1::char_traits<char>, std::__ndk1::allocator<char> > >)1, double, std::__ndk1::allocator<char> >&)
FUNC 5d4d6 4 0 std::__ndk1::__function::__func<ObjectWorkshop::load()::$_1, std::__ndk1::allocator<ObjectWorkshop::load()::$_1>, void (geode::Task<geode::utils::web::WebResponse, geode::utils::web::WebProgress>::Event*)>::~__func()
FUNC 5d4dc 20 0 std::__ndk1::__function::__func<ObjectWorkshop::load()::$_1, std::__ndk1::allocator<ObjectWorkshop::load()::$_1>, void (geode::Task<geode::utils::web::WebResponse, geode::utils::web::WebProgress>::Event*)>::__clone() const
FUNC 5d4fc 14 0 std::__ndk1::__function::__func<ObjectWorkshop::load()::$_1, std::__ndk1::allocator<ObjectWorkshop::load()::$_1>, void (geode::Task<geode::utils::web::WebResponse, geode::utils::web::WebProgress>::Event*)>::__clone(std::__ndk1::__function::__base<void (geode::Task<geode::utils::web::WebResponse, geode::utils::web::WebProgress>::Event*)>*) const
FUNC 5d510 2 0 std::__ndk1::__function::__func<ObjectWorkshop::load()::$_1, std::__ndk1::allocator<ObjectWorkshop::load()::$_1>, void (geode::Task<geode::utils::web::WebResponse, geode::utils::web::WebProgress>::Event*)>::destroy()
FUNC 5d512 4 0 std::__ndk1::__function::__func<ObjectWorkshop::load()::$_1, std::__ndk1::allocator<ObjectWorkshop::load()::$_1>, void (geode::Task<geode::utils::web::WebResponse, geode::utils::web::WebProgress>::Event*)>::destroy_deallocate()
FUNC 5d518 964 0 std::__ndk1::__function::__func<ObjectWorkshop::load()::$_1, std::__ndk1::allocator<ObjectWorkshop::load()::$_1>, void (geode::Task<geode::utils::web::WebResponse, geode::utils::web::WebProgress>::Event*)>::operator()(geode::Task<geode::utils::web::WebResponse, geode::utils::web::WebProgress>::Event*&&)
FUNC 5de7c 18 0 std::__ndk1::__function::__func<ObjectWorkshop::load()::$_1, std::__ndk1::allocator<ObjectWorkshop::load()::$_1>, void (geode::Task<geode::utils::web::WebResponse, geode::utils::web::WebProgress>::Event*)>::target(std::type_info const&) const
FUNC 5de94 c 0 std::__ndk1::__function::__func<ObjectWorkshop::load()::$_1, std::__ndk1::allocator<ObjectWorkshop::load()::$_1>, void (geode::Task<geode::utils::web::WebResponse, geode::utils::web::WebProgress>::Event*)>::target_type() const
FUNC 5dea0 a0 0 fmt::v11::detail::value<fmt::v11::context>::format_custom_arg<fmt::v11::join_view<std::__ndk1::__hash_const_iterator<std::__ndk1::__hash_node<std::__ndk1::basic_string<char, std::__ndk1::char_traits<char>, std::__ndk1::allocator<char> >, void*>*>, std::__ndk1::__hash_const_iterator<std::__ndk1::__hash_node<std::__ndk1::basic_string<char, std::__ndk1::char_traits<char>, std::__ndk1::allocator<char> >, void*>*>, char>, fmt::v11::formatter<fmt::v11::join_view<std::__ndk1::__hash_const_iterator<std::__ndk1::__hash_node<std::__ndk1::basic_string<char, std::__ndk1::char_traits<char>, std::__ndk1::allocator<char> >, void*>*>, std::__ndk1::__hash_const_iterator<std::__ndk1::__hash_node<std::__ndk1::basic_string<char, std::__ndk1::char_traits<char>, std::__ndk1::allocator<char> >, void*>*>, char>, char, void> >(void*, fmt::v11::basic_format_parse_context<char>&, fmt::v11::context&)
FUNC 5df40 1f8 0 fmt::v11::formatter<fmt::v11::join_view<std::__ndk1::__hash_const_iterator<std::__ndk1::__hash_node<std::__ndk1::basic_string<char, std::__ndk1::char_traits<char>, std::__ndk1::allocator<char> >, void*>*>, std::__ndk1::__hash_const_iterator<std::__ndk1::__hash_node<std::__ndk1::basic_string<char, std::__ndk1::char_traits<char>, std::__ndk1::allocator<char> >, void*>*>, char>, char, void>::format<fmt::v11::context>(fmt::v11::join_view<std::__ndk1::__hash_const_iterator<std::__ndk1::__hash_node<std::__ndk1::basic_string<char, std::__ndk1::char_traits<char>, std::__ndk1::allocator<char> >, void*>*>, std::__ndk1::__hash_const_iterator<std::__ndk1::__hash_node<std::__ndk1::basic_string<char, std::__ndk1::char_traits<char>, std::__ndk1::allocator<char> >, void*>*>, char> const&, fmt::v11::context&) const
FUNC 5e138 4 0 std::__ndk1::__function::__func<ObjectWorkshop::onUploadBtn(cocos2d::CCObject*)::$_0, std::__ndk1::allocator<ObjectWorkshop::onUploadBtn(cocos2d::CCObject*)::$_0>, void ()>::~__func()
FUNC 5e13c 20 0 std::__ndk1::__function::__func<ObjectWorkshop::onUploadBtn(cocos2d::CCObject*)::$_0, std::__ndk1::allocator<ObjectWorkshop::onUploadBtn(cocos2d::CCObject*)::$_0>, void ()>::__clone() const
FUNC 5e15c 18 0 std::__ndk1::__function::__func<ObjectWorkshop::onUploadBtn(cocos2d::CCObject*)::$_0, std::__ndk1::allocator<ObjectWorkshop::onUploadBtn(cocos2d::CCObject*)::$_0>, void ()>::__clone(std::__ndk1::__function::__base<void ()>*) const
FUNC 5e174 2 0 std::__ndk1::__function::__func<ObjectWorkshop::onUploadBtn(cocos2d::CCObject*)::$_0, std::__ndk1::allocator<ObjectWorkshop::onUploadBtn(cocos2d::CCObject*)::$_0>, void ()>::destroy()
FUNC 5e176 4 0 std::__ndk1::__function::__func<ObjectWorkshop::onUploadBtn(cocos2d::CCObject*)::$_0, std::__ndk1::allocator<ObjectWorkshop::onUploadBtn(cocos2d::CCObject*)::$_0>, void ()>::destroy_deallocate()
FUNC 5e17c f4 0 std::__ndk1::__function::__func<ObjectWorkshop::onUploadBtn(cocos2d::CCObject*)::$_0, std::__ndk1::allocator<ObjectWorkshop::onUploadBtn(cocos2d::CCObject*)::$_0>, void ()>::operator()()
FUNC 5e270 18 0 std::__ndk1::__function::__func<ObjectWorkshop::onUploadBtn(cocos2d::CCObject*)::$_0, std::__ndk1::allocator<ObjectWorkshop::onUploadBtn(cocos2d::CCObject*)::$_0>, void ()>::target(std::type_info const&) const
FUNC 5e288 c 0 std::__ndk1::__function::__func<ObjectWorkshop::onUploadBtn(cocos2d::CCObject*)::$_0, std::__ndk1::allocator<ObjectWorkshop::onUploadBtn(cocos2d::CCObject*)::$_0>, void ()>::target_type() const
FUNC 5e294 4 0 std::__ndk1::__function::__func<ObjectWorkshop::onUploadBtn(cocos2d::CCObject*)::$_1, std::__ndk1::allocator<ObjectWorkshop::onUploadBtn(cocos2d::CCObject*)::$_1>, void ()>::~__func()
FUNC 5e298 28 0 std::__ndk1::__function::__func<ObjectWorkshop::onUploadBtn(cocos2d::CCObject*)::$_1, std::__ndk1::allocator<ObjectWorkshop::onUploadBtn(cocos2d::CCObject*)::$_1>, void ()>::__clone() const
FUNC 5e2c0 1c 0 std::__ndk1::__function::__func<ObjectWorkshop::onUploadBtn(cocos2d::CCObject*)::$_1, std::__ndk1::allocator<ObjectWorkshop::onUploadBtn(cocos2d::CCObject*)::$_1>, void ()>::__clone(std::__ndk1::__function::__base<void ()>*) const
FUNC 5e2dc 2 0 std::__ndk1::__function::__func<ObjectWorkshop::onUploadBtn(cocos2d::CCObject*)::$_1, std::__ndk1::allocator<ObjectWorkshop::onUploadBtn(cocos2d::CCObject*)::$_1>, void ()>::destroy()
FUNC 5e2de 4 0 std::__ndk1::__function::__func<ObjectWorkshop::onUploadBtn(cocos2d::CCObject*)::$_1, std::__ndk1::allocator<ObjectWorkshop::onUploadBtn(cocos2d::CCObject*)::$_1>, void ()>::destroy_deallocate()
FUNC 5e2e4 1fc 0 std::__ndk1::__function::__func<ObjectWorkshop::onUploadBtn(cocos2d::CCObject*)::$_1, std::__ndk1::allocator<ObjectWorkshop::onUploadBtn(cocos2d::CCObject*)::$_1>, void ()>::operator()()
FUNC 5e4e0 18 0 std::__ndk1::__function::__func<ObjectWorkshop::onUploadBtn(cocos2d::CCObject*)::$_1, std::__ndk1::allocator<ObjectWorkshop::onUploadBtn(cocos2d::CCObject*)::$_1>, void ()>::target(std::type_info const&) const
FUNC 5e4f8 c 0 std::__ndk1::__function::__func<ObjectWorkshop::onUploadBtn(cocos2d::CCObject*)::$_1, std::__ndk1::allocator<ObjectWorkshop::onUploadBtn(cocos2d::CCObject*)::$_1>, void ()>::target_type() const
FUNC 5e504 4 0 std::__ndk1::__function::__func<ObjectWorkshop::onFilterBtn(cocos2d::CCObject*)::$_0, std::__ndk1::allocator<ObjectWorkshop::onFilterBtn(cocos2d::CCObject*)::$_0>, void (std::__ndk1::unordered_set<std::__ndk1::basic_string<char, std::__ndk1::char_traits<char>, std::__ndk1::allocator<char> >, std::__ndk1::hash<std::__ndk1::basic_string<char, std::__ndk1::char_traits<char>, std::__ndk1::allocator<char> > >, std::__ndk1::equal_to<std::__ndk1::basic_string<char, std::__ndk1::char_traits<char>, std::__ndk1::allocator<char> > >, std::__ndk1::allocator<std::__ndk1::basic_string<char, std::__ndk1::char_traits<char>, std::__ndk1::allocator<char> > > >)>::~__func()
FUNC 5e508 20 0 std::__ndk1::__function::__func<ObjectWorkshop::onFilterBtn(cocos2d::CCObject*)::$_0, std::__ndk1::allocator<ObjectWorkshop::onFilterBtn(cocos2d::CCObject*)::$_0>, void (std::__ndk1::unordered_set<std::__ndk1::basic_string<char, std::__ndk1::char_traits<char>, std::__ndk1::allocator<char> >, std::__ndk1::hash<std::__ndk1::basic_string<char, std::__ndk1::char_traits<char>, std::__ndk1::allocator<char> > >, std::__ndk1::equal_to<std::__ndk1::basic_string<char, std::__ndk1::char_traits<char>, std::__ndk1::allocator<char> > >, std::__ndk1::allocator<std::__ndk1::basic_string<char, std::__ndk1::char_traits<char>, std::__ndk1::allocator<char> > > >)>::__clone() const
FUNC 5e528 14 0 std::__ndk1::__function::__func<ObjectWorkshop::onFilterBtn(cocos2d::CCObject*)::$_0, std::__ndk1::allocator<ObjectWorkshop::onFilterBtn(cocos2d::CCObject*)::$_0>, void (std::__ndk1::unordered_set<std::__ndk1::basic_string<char, std::__ndk1::char_traits<char>, std::__ndk1::allocator<char> >, std::__ndk1::hash<std::__ndk1::basic_string<char, std::__ndk1::char_traits<char>, std::__ndk1::allocator<char> > >, std::__ndk1::equal_to<std::__ndk1::basic_string<char, std::__ndk1::char_traits<char>, std::__ndk1::allocator<char> > >, std::__ndk1::allocator<std::__ndk1::basic_string<char, std::__ndk1::char_traits<char>, std::__ndk1::allocator<char> > > >)>::__clone(std::__ndk1::__function::__base<void (std::__ndk1::unordered_set<std::__ndk1::basic_string<char, std::__ndk1::char_traits<char>, std::__ndk1::allocator<char> >, std::__ndk1::hash<std::__ndk1::basic_string<char, std::__ndk1::char_traits<char>, std::__ndk1::allocator<char> > >, std::__ndk1::equal_to<std::__ndk1::basic_string<char, std::__ndk1::char_traits<char>, std::__ndk1::allocator<char> > >, std::__ndk1::allocator<std::__ndk1::basic_string<char, std::__ndk1::char_traits<char>, std::__ndk1::allocator<char> > > >)>*) const
FUNC 5e53c 2 0 std::__ndk1::__function::__func<ObjectWorkshop::onFilterBtn(cocos2d::CCObject*)::$_0, std::__ndk1::allocator<ObjectWorkshop::onFilterBtn(cocos2d::CCObject*)::$_0>, void (std::__ndk1::unordered_set<std::__ndk1::basic_string<char, std::__ndk1::char_traits<char>, std::__ndk1::allocator<char> >, std::__ndk1::hash<std::__ndk1::basic_string<char, std::__ndk1::char_traits<char>, std::__ndk1::allocator<char> > >, std::__ndk1::equal_to<std::__ndk1::basic_string<char, std::__ndk1::char_traits<char>, std::__ndk1::allocator<char> > >, std::__ndk1::allocator<std::__ndk1::basic_string<char, std::__ndk1::char_traits<char>, std::__ndk1::allocator<char> > > >)>::destroy()
FUNC 5e53e 4 0 std::__ndk1::__function::__func<ObjectWorkshop::onFilterBtn(cocos2d::CCObject*)::$_0, std::__ndk1::allocator<ObjectWorkshop::onFilterBtn(cocos2d::CCObject*)::$_0>, void (std::__ndk1::unordered_set<std::__ndk1::basic_string<char, std::__ndk1::char_traits<char>, std::__ndk1::allocator<char> >, std::__ndk1::hash<std::__ndk1::basic_string<char, std::__ndk1::char_traits<char>, std::__ndk1::allocator<char> > >, std::__ndk1::equal_to<std::__ndk1::basic_string<char, std::__ndk1::char_traits<char>, std::__ndk1::allocator<char> > >, std::__ndk1::allocator<std::__ndk1::basic_string<char, std::__ndk1::char_traits<char>, std::__ndk1::allocator<char> > > >)>::destroy_deallocate()
FUNC 5e544 198 0 std::__ndk1::__function::__func<ObjectWorkshop::onFilterBtn(cocos2d::CCObject*)::$_0, std::__ndk1::allocator<ObjectWorkshop::onFilterBtn(cocos2d::CCObject*)::$_0>, void (std::__ndk1::unordered_set<std::__ndk1::basic_string<char, std::__ndk1::char_traits<char>, std::__ndk1::allocator<char> >, std::__ndk1::hash<std::__ndk1::basic_string<char, std::__ndk1::char_traits<char>, std::__ndk1::allocator<char> > >, std::__ndk1::equal_to<std::__ndk1::basic_string<char, std::__ndk1::char_traits<char>, std::__ndk1::allocator<char> > >, std::__ndk1::allocator<std::__ndk1::basic_string<char, std::__ndk1::char_traits<char>, std::__ndk1::allocator<char> > > >)>::operator()(std::__ndk1::unordered_set<std::__ndk1::basic_string<char, std::__ndk1::char_traits<char>, std::__ndk1::allocator<char> >, std::__ndk1::hash<std::__ndk1::basic_string<char, std::__ndk1::char_traits<char>, std::__ndk1::allocator<char> > >, std::__ndk1::equal_to<std::__ndk1::basic_string<char, std::__ndk1::char_traits<char>, std::__ndk1::allocator<char> > >, std::__ndk1::allocator<std::__ndk1::basic_string<char, std::__ndk1::char_traits<char>, std::__ndk1::allocator<char> > > >&&)
FUNC 5e6dc 18 0 std::__ndk1::__function::__func<ObjectWorkshop::onFilterBtn(cocos2d::CCObject*)::$_0, std::__ndk1::allocator<ObjectWorkshop::onFilterBtn(cocos2d::CCObject*)::$_0>, void (std::__ndk1::unordered_set<std::__ndk1::basic_string<char, std::__ndk1::char_traits<char>, std::__ndk1::allocator<char> >, std::__ndk1::hash<std::__ndk1::basic_string<char, std::__ndk1::char_traits<char>, std::__ndk1::allocator<char> > >, std::__ndk1::equal_to<std::__ndk1::basic_string<char, std::__ndk1::char_traits<char>, std::__ndk1::allocator<char> > >, std::__ndk1::allocator<std::__ndk1::basic_string<char, std::__ndk1::char_traits<char>, std::__ndk1::allocator<char> > > >)>::target(std::type_info const&) const
FUNC 5e6f4 c 0 std::__ndk1::__function::__func<ObjectWorkshop::onFilterBtn(cocos2d::CCObject*)::$_0, std::__ndk1::allocator<ObjectWorkshop::onFilterBtn(cocos2d::CCObject*)::$_0>, void (std::__ndk1::unordered_set<std::__ndk1::basic_string<char, std::__ndk1::char_traits<char>, std::__ndk1::allocator<char> >, std::__ndk1::hash<std::__ndk1::basic_string<char, std::__ndk1::char_traits<char>, std::__ndk1::allocator<char> > >, std::__ndk1::equal_to<std::__ndk1::basic_string<char, std::__ndk1::char_traits<char>, std::__ndk1::allocator<char> > >, std::__ndk1::allocator<std::__ndk1::basic_string<char, std::__ndk1::char_traits<char>, std::__ndk1::allocator<char> > > >)>::target_type() const
FUNC 5e700 156 0 std::__ndk1::__hash_table<std::__ndk1::basic_string<char, std::__ndk1::char_traits<char>, std::__ndk1::allocator<char> >, std::__ndk1::hash<std::__ndk1::basic_string<char, std::__ndk1::char_traits<char>, std::__ndk1::allocator<char> > >, std::__ndk1::equal_to<std::__ndk1::basic_string<char, std::__ndk1::char_traits<char>, std::__ndk1::allocator<char> > >, std::__ndk1::allocator<std::__ndk1::basic_string<char, std::__ndk1::char_traits<char>, std::__ndk1::allocator<char> > > >::find<std::__ndk1::basic_string<char, std::__ndk1::char_traits<char>, std::__ndk1::allocator<char> > >(std::__ndk1::basic_string<char, std::__ndk1::char_traits<char>, std::__ndk1::allocator<char> > const&) const
FUNC 5e856 2 0 std::__ndk1::__function::__base<void (std::__ndk1::unordered_set<std::__ndk1::basic_string<char, std::__ndk1::char_traits<char>, std::__ndk1::allocator<char> >, std::__ndk1::hash<std::__ndk1::basic_string<char, std::__ndk1::char_traits<char>, std::__ndk1::allocator<char> > >, std::__ndk1::equal_to<std::__ndk1::basic_string<char, std::__ndk1::char_traits<char>, std::__ndk1::allocator<char> > >, std::__ndk1::allocator<std::__ndk1::basic_string<char, std::__ndk1::char_traits<char>, std::__ndk1::allocator<char> > > >)>::~__base()
FUNC 5e858 4 0 std::__ndk1::__function::__func<ObjectWorkshop::onUploadFilterBtn(cocos2d::CCObject*)::$_0, std::__ndk1::allocator<ObjectWorkshop::onUploadFilterBtn(cocos2d::CCObject*)::$_0>, void (std::__ndk1::unordered_set<std::__ndk1::basic_string<char, std::__ndk1::char_traits<char>, std::__ndk1::allocator<char> >, std::__ndk1::hash<std::__ndk1::basic_string<char, std::__ndk1::char_traits<char>, std::__ndk1::allocator<char> > >, std::__ndk1::equal_to<std::__ndk1::basic_string<char, std::__ndk1::char_traits<char>, std::__ndk1::allocator<char> > >, std::__ndk1::allocator<std::__ndk1::basic_string<char, std::__ndk1::char_traits<char>, std::__ndk1::allocator<char> > > >)>::~__func()
FUNC 5e85c 20 0 std::__ndk1::__function::__func<ObjectWorkshop::onUploadFilterBtn(cocos2d::CCObject*)::$_0, std::__ndk1::allocator<ObjectWorkshop::onUploadFilterBtn(cocos2d::CCObject*)::$_0>, void (std::__ndk1::unordered_set<std::__ndk1::basic_string<char, std::__ndk1::char_traits<char>, std::__ndk1::allocator<char> >, std::__ndk1::hash<std::__ndk1::basic_string<char, std::__ndk1::char_traits<char>, std::__ndk1::allocator<char> > >, std::__ndk1::equal_to<std::__ndk1::basic_string<char, std::__ndk1::char_traits<char>, std::__ndk1::allocator<char> > >, std::__ndk1::allocator<std::__ndk1::basic_string<char, std::__ndk1::char_traits<char>, std::__ndk1::allocator<char> > > >)>::__clone() const
FUNC 5e87c 14 0 std::__ndk1::__function::__func<ObjectWorkshop::onUploadFilterBtn(cocos2d::CCObject*)::$_0, std::__ndk1::allocator<ObjectWorkshop::onUploadFilterBtn(cocos2d::CCObject*)::$_0>, void (std::__ndk1::unordered_set<std::__ndk1::basic_string<char, std::__ndk1::char_traits<char>, std::__ndk1::allocator<char> >, std::__ndk1::hash<std::__ndk1::basic_string<char, std::__ndk1::char_traits<char>, std::__ndk1::allocator<char> > >, std::__ndk1::equal_to<std::__ndk1::basic_string<char, std::__ndk1::char_traits<char>, std::__ndk1::allocator<char> > >, std::__ndk1::allocator<std::__ndk1::basic_string<char, std::__ndk1::char_traits<char>, std::__ndk1::allocator<char> > > >)>::__clone(std::__ndk1::__function::__base<void (std::__ndk1::unordered_set<std::__ndk1::basic_string<char, std::__ndk1::char_traits<char>, std::__ndk1::allocator<char> >, std::__ndk1::hash<std::__ndk1::basic_string<char, std::__ndk1::char_traits<char>, std::__ndk1::allocator<char> > >, std::__ndk1::equal_to<std::__ndk1::basic_string<char, std::__ndk1::char_traits<char>, std::__ndk1::allocator<char> > >, std::__ndk1::allocator<std::__ndk1::basic_string<char, std::__ndk1::char_traits<char>, std::__ndk1::allocator<char> > > >)>*) const
FUNC 5e890 2 0 std::__ndk1::__function::__func<ObjectWorkshop::onUploadFilterBtn(cocos2d::CCObject*)::$_0, std::__ndk1::allocator<ObjectWorkshop::onUploadFilterBtn(cocos2d::CCObject*)::$_0>, void (std::__ndk1::unordered_set<std::__ndk1::basic_string<char, std::__ndk1::char_traits<char>, std::__ndk1::allocator<char> >, std::__ndk1::hash<std::__ndk1::basic_string<char, std::__ndk1::char_traits<char>, std::__ndk1::allocator<char> > >, std::__ndk1::equal_to<std::__ndk1::basic_string<char, std::__ndk1::char_traits<char>, std::__ndk1::allocator<char> > >, std::__ndk1::allocator<std::__ndk1::basic_string<char, std::__ndk1::char_traits<char>, std::__ndk1::allocator<char> > > >)>::destroy()
FUNC 5e892 4 0 std::__ndk1::__function::__func<ObjectWorkshop::onUploadFilterBtn(cocos2d::CCObject*)::$_0, std::__ndk1::allocator<ObjectWorkshop::onUploadFilterBtn(cocos2d::CCObject*)::$_0>, void (std::__ndk1::unordered_set<std::__ndk1::basic_string<char, std::__ndk1::char_traits<char>, std::__ndk1::allocator<char> >, std::__ndk1::hash<std::__ndk1::basic_string<char, std::__ndk1::char_traits<char>, std::__ndk1::allocator<char> > >, std::__ndk1::equal_to<std::__ndk1::basic_string<char, std::__ndk1::char_traits<char>, std::__ndk1::allocator<char> > >, std::__ndk1::allocator<std::__ndk1::basic_string<char, std::__ndk1::char_traits<char>, std::__ndk1::allocator<char> > > >)>::destroy_deallocate()
FUNC 5e898 d8 0 std::__ndk1::__function::__func<ObjectWorkshop::onUploadFilterBtn(cocos2d::CCObject*)::$_0, std::__ndk1::allocator<ObjectWorkshop::onUploadFilterBtn(cocos2d::CCObject*)::$_0>, void (std::__ndk1::unordered_set<std::__ndk1::basic_string<char, std::__ndk1::char_traits<char>, std::__ndk1::allocator<char> >, std::__ndk1::hash<std::__ndk1::basic_string<char, std::__ndk1::char_traits<char>, std::__ndk1::allocator<char> > >, std::__ndk1::equal_to<std::__ndk1::basic_string<char, std::__ndk1::char_traits<char>, std::__ndk1::allocator<char> > >, std::__ndk1::allocator<std::__ndk1::basic_string<char, std::__ndk1::char_traits<char>, std::__ndk1::allocator<char> > > >)>::operator()(std::__ndk1::unordered_set<std::__ndk1::basic_string<char, std::__ndk1::char_traits<char>, std::__ndk1::allocator<char> >, std::__ndk1::hash<std::__ndk1::basic_string<char, std::__ndk1::char_traits<char>, std::__ndk1::allocator<char> > >, std::__ndk1::equal_to<std::__ndk1::basic_string<char, std::__ndk1::char_traits<char>, std::__ndk1::allocator<char> > >, std::__ndk1::allocator<std::__ndk1::basic_string<char, std::__ndk1::char_traits<char>, std::__ndk1::allocator<char> > > >&&)
FUNC 5e970 18 0 std::__ndk1::__function::__func<ObjectWorkshop::onUploadFilterBtn(cocos2d::CCObject*)::$_0, std::__ndk1::allocator<ObjectWorkshop::onUploadFilterBtn(cocos2d::CCObject*)::$_0>, void (std::__ndk1::unordered_set<std::__ndk1::basic_string<char, std::__ndk1::char_traits<char>, std::__ndk1::allocator<char> >, std::__ndk1::hash<std::__ndk1::basic_string<char, std::__ndk1::char_traits<char>, std::__ndk1::allocator<char> > >, std::__ndk1::equal_to<std::__ndk1::basic_string<char, std::__ndk1::char_traits<char>, std::__ndk1::allocator<char> > >, std::__ndk1::allocator<std::__ndk1::basic_string<char, std::__ndk1::char_traits<char>, std::__ndk1::allocator<char> > > >)>::target(std::type_info const&) const
FUNC 5e988 c 0 std::__ndk1::__function::__func<ObjectWorkshop::onUploadFilterBtn(cocos2d::CCObject*)::$_0, std::__ndk1::allocator<ObjectWorkshop::onUploadFilterBtn(cocos2d::CCObject*)::$_0>, void (std::__ndk1::unordered_set<std::__ndk1::basic_string<char, std::__ndk1::char_traits<char>, std::__ndk1::allocator<char> >, std::__ndk1::hash<std::__ndk1::basic_string<char, std::__ndk1::char_traits<char>, std::__ndk1::allocator<char> > >, std::__ndk1::equal_to<std::__ndk1::basic_string<char, std::__ndk1::char_traits<char>, std::__ndk1::allocator<char> > >, std::__ndk1::allocator<std::__ndk1::basic_string<char, std::__ndk1::char_traits<char>, std::__ndk1::allocator<char> > > >)>::target_type() const
FUNC 5e994 4 0 std::__ndk1::__function::__func<ObjectWorkshop::onUpload(cocos2d::CCObject*)::$_0, std::__ndk1::allocator<ObjectWorkshop::onUpload(cocos2d::CCObject*)::$_0>, void (geode::Task<geode::utils::web::WebResponse, geode::utils::web::WebProgress>::Event*)>::~__func()
FUNC 5e998 20 0 std::__ndk1::__function::__func<ObjectWorkshop::onUpload(cocos2d::CCObject*)::$_0, std::__ndk1::allocator<ObjectWorkshop::onUpload(cocos2d::CCObject*)::$_0>, void (geode::Task<geode::utils::web::WebResponse, geode::utils::web::WebProgress>::Event*)>::__clone() const
FUNC 5e9b8 14 0 std::__ndk1::__function::__func<ObjectWorkshop::onUpload(cocos2d::CCObject*)::$_0, std::__ndk1::allocator<ObjectWorkshop::onUpload(cocos2d::CCObject*)::$_0>, void (geode::Task<geode::utils::web::WebResponse, geode::utils::web::WebProgress>::Event*)>::__clone(std::__ndk1::__function::__base<void (geode::Task<geode::utils::web::WebResponse, geode::utils::web::WebProgress>::Event*)>*) const
FUNC 5e9cc 2 0 std::__ndk1::__function::__func<ObjectWorkshop::onUpload(cocos2d::CCObject*)::$_0, std::__ndk1::allocator<ObjectWorkshop::onUpload(cocos2d::CCObject*)::$_0>, void (geode::Task<geode::utils::web::WebResponse, geode::utils::web::WebProgress>::Event*)>::destroy()
FUNC 5e9ce 4 0 std::__ndk1::__function::__func<ObjectWorkshop::onUpload(cocos2d::CCObject*)::$_0, std::__ndk1::allocator<ObjectWorkshop::onUpload(cocos2d::CCObject*)::$_0>, void (geode::Task<geode::utils::web::WebResponse, geode::utils::web::WebProgress>::Event*)>::destroy_deallocate()
FUNC 5e9d4 1c4 0 std::__ndk1::__function::__func<ObjectWorkshop::onUpload(cocos2d::CCObject*)::$_0, std::__ndk1::allocator<ObjectWorkshop::onUpload(cocos2d::CCObject*)::$_0>, void (geode::Task<geode::utils::web::WebResponse, geode::utils::web::WebProgress>::Event*)>::operator()(geode::Task<geode::utils::web::WebResponse, geode::utils::web::WebProgress>::Event*&&)
FUNC 5eb98 18 0 std::__ndk1::__function::__func<ObjectWorkshop::onUpload(cocos2d::CCObject*)::$_0, std::__ndk1::allocator<ObjectWorkshop::onUpload(cocos2d::CCObject*)::$_0>, void (geode::Task<geode::utils::web::WebResponse, geode::utils::web::WebProgress>::Event*)>::target(std::type_info const&) const
FUNC 5ebb0 c 0 std::__ndk1::__function::__func<ObjectWorkshop::onUpload(cocos2d::CCObject*)::$_0, std::__ndk1::allocator<ObjectWorkshop::onUpload(cocos2d::CCObject*)::$_0>, void (geode::Task<geode::utils::web::WebResponse, geode::utils::web::WebProgress>::Event*)>::target_type() const
FUNC 5ebbc b4 0 _ZN7matjson9SerializeINSt6__ndk113unordered_setINS1_12basic_stringIcNS1_11char_traitsIcEENS1_9allocatorIcEEEENS1_4hashIS8_EENS1_8equal_toIS8_EENS6_IS8_EEEEE6toJsonERKSE_QrQRKT__XcvNS_5ValueEfp_E
FUNC 5ec70 86 0 std::__ndk1::vector<matjson::Value, std::__ndk1::allocator<matjson::Value> >::reserve(unsigned int)
FUNC 5ecf8 c8 0 _ZNSt6__ndk19transformB8ne180000INS_21__hash_const_iteratorIPNS_11__hash_nodeINS_12basic_stringIcNS_11char_traitsIcEENS_9allocatorIcEEEEPvEEEENS_20back_insert_iteratorINS_6vectorIN7matjson5ValueENS6_ISG_EEEEEEZNSF_9SerializeINS_13unordered_setIS8_NS_4hashIS8_EENS_8equal_toIS8_EENS6_IS8_EEEEE6toJsonERKSR_QrQRKT__XcvSG_fL0p_EEUlRKS8_E_EET0_SV_SV_S11_T1_
FUNC 5edc0 b6 0 std::__ndk1::vector<matjson::Value, std::__ndk1::allocator<matjson::Value> >::__push_back_slow_path<matjson::Value>(matjson::Value&&)
FUNC 5ee78 368 0 AdminPopup::setup(UserData, UserData)
FUNC 5f1e0 1c8 0 AdminPopup::~AdminPopup()
FUNC 5f3a8 10 0 AdminPopup::~AdminPopup()
FUNC 5f3b8 8 0 {virtual override thunk({offset(-264)}, AdminPopup::~AdminPopup())}
FUNC 5f3c0 14 0 {virtual override thunk({offset(-264)}, AdminPopup::~AdminPopup())}
FUNC 5f3d4 4 0 std::__ndk1::__function::__func<AdminPopup::setup(UserData, UserData)::$_0, std::__ndk1::allocator<AdminPopup::setup(UserData, UserData)::$_0>, void (CCMenuItemSpriteExtra*)>::~__func()
FUNC 5f3d8 20 0 std::__ndk1::__function::__func<AdminPopup::setup(UserData, UserData)::$_0, std::__ndk1::allocator<AdminPopup::setup(UserData, UserData)::$_0>, void (CCMenuItemSpriteExtra*)>::__clone() const
FUNC 5f3f8 14 0 std::__ndk1::__function::__func<AdminPopup::setup(UserData, UserData)::$_0, std::__ndk1::allocator<AdminPopup::setup(UserData, UserData)::$_0>, void (CCMenuItemSpriteExtra*)>::__clone(std::__ndk1::__function::__base<void (CCMenuItemSpriteExtra*)>*) const
FUNC 5f40c 2 0 std::__ndk1::__function::__func<AdminPopup::setup(UserData, UserData)::$_0, std::__ndk1::allocator<AdminPopup::setup(UserData, UserData)::$_0>, void (CCMenuItemSpriteExtra*)>::destroy()
FUNC 5f40e 4 0 std::__ndk1::__function::__func<AdminPopup::setup(UserData, UserData)::$_0, std::__ndk1::allocator<AdminPopup::setup(UserData, UserData)::$_0>, void (CCMenuItemSpriteExtra*)>::destroy_deallocate()
FUNC 5f420 7b8 0 std::__ndk1::__function::__func<AdminPopup::setup(UserData, UserData)::$_0, std::__ndk1::allocator<AdminPopup::setup(UserData, UserData)::$_0>, void (CCMenuItemSpriteExtra*)>::operator()(CCMenuItemSpriteExtra*&&)
FUNC 5fbd8 18 0 std::__ndk1::__function::__func<AdminPopup::setup(UserData, UserData)::$_0, std::__ndk1::allocator<AdminPopup::setup(UserData, UserData)::$_0>, void (CCMenuItemSpriteExtra*)>::target(std::type_info const&) const
FUNC 5fbf0 c 0 std::__ndk1::__function::__func<AdminPopup::setup(UserData, UserData)::$_0, std::__ndk1::allocator<AdminPopup::setup(UserData, UserData)::$_0>, void (CCMenuItemSpriteExtra*)>::target_type() const
FUNC 5fbfc 4 0 std::__ndk1::__function::__func<AdminPopup::setup(UserData, UserData)::$_0::operator()(cocos2d::CCObject*) const::{lambda(int)#1}, std::__ndk1::allocator<AdminPopup::setup(UserData, UserData)::$_0::operator()(cocos2d::CCObject*) const::{lambda(int)#1}>, void (int)>::~__func()
FUNC 5fc00 20 0 std::__ndk1::__function::__func<AdminPopup::setup(UserData, UserData)::$_0::operator()(cocos2d::CCObject*) const::{lambda(int)#1}, std::__ndk1::allocator<AdminPopup::setup(UserData, UserData)::$_0::operator()(cocos2d::CCObject*) const::{lambda(int)#1}>, void (int)>::__clone() const
FUNC 5fc20 18 0 std::__ndk1::__function::__func<AdminPopup::setup(UserData, UserData)::$_0::operator()(cocos2d::CCObject*) const::{lambda(int)#1}, std::__ndk1::allocator<AdminPopup::setup(UserData, UserData)::$_0::operator()(cocos2d::CCObject*) const::{lambda(int)#1}>, void (int)>::__clone(std::__ndk1::__function::__base<void (int)>*) const
FUNC 5fc38 2 0 std::__ndk1::__function::__func<AdminPopup::setup(UserData, UserData)::$_0::operator()(cocos2d::CCObject*) const::{lambda(int)#1}, std::__ndk1::allocator<AdminPopup::setup(UserData, UserData)::$_0::operator()(cocos2d::CCObject*) const::{lambda(int)#1}>, void (int)>::destroy()
FUNC 5fc3a 4 0 std::__ndk1::__function::__func<AdminPopup::setup(UserData, UserData)::$_0::operator()(cocos2d::CCObject*) const::{lambda(int)#1}, std::__ndk1::allocator<AdminPopup::setup(UserData, UserData)::$_0::operator()(cocos2d::CCObject*) const::{lambda(int)#1}>, void (int)>::destroy_deallocate()
FUNC 5fc40 124 0 std::__ndk1::__function::__func<AdminPopup::setup(UserData, UserData)::$_0::operator()(cocos2d::CCObject*) const::{lambda(int)#1}, std::__ndk1::allocator<AdminPopup::setup(UserData, UserData)::$_0::operator()(cocos2d::CCObject*) const::{lambda(int)#1}>, void (int)>::operator()(int&&)
FUNC 5fd64 18 0 std::__ndk1::__function::__func<AdminPopup::setup(UserData, UserData)::$_0::operator()(cocos2d::CCObject*) const::{lambda(int)#1}, std::__ndk1::allocator<AdminPopup::setup(UserData, UserData)::$_0::operator()(cocos2d::CCObject*) const::{lambda(int)#1}>, void (int)>::target(std::type_info const&) const
FUNC 5fd7c c 0 std::__ndk1::__function::__func<AdminPopup::setup(UserData, UserData)::$_0::operator()(cocos2d::CCObject*) const::{lambda(int)#1}, std::__ndk1::allocator<AdminPopup::setup(UserData, UserData)::$_0::operator()(cocos2d::CCObject*) const::{lambda(int)#1}>, void (int)>::target_type() const
FUNC 5fd88 4 0 std::__ndk1::__function::__func<AdminPopup::setup(UserData, UserData)::$_1, std::__ndk1::allocator<AdminPopup::setup(UserData, UserData)::$_1>, void (CCMenuItemSpriteExtra*)>::~__func()
FUNC 5fd8c 20 0 std::__ndk1::__function::__func<AdminPopup::setup(UserData, UserData)::$_1, std::__ndk1::allocator<AdminPopup::setup(UserData, UserData)::$_1>, void (CCMenuItemSpriteExtra*)>::__clone() const
FUNC 5fdac 14 0 std::__ndk1::__function::__func<AdminPopup::setup(UserData, UserData)::$_1, std::__ndk1::allocator<AdminPopup::setup(UserData, UserData)::$_1>, void (CCMenuItemSpriteExtra*)>::__clone(std::__ndk1::__function::__base<void (CCMenuItemSpriteExtra*)>*) const
FUNC 5fdc0 2 0 std::__ndk1::__function::__func<AdminPopup::setup(UserData, UserData)::$_1, std::__ndk1::allocator<AdminPopup::setup(UserData, UserData)::$_1>, void (CCMenuItemSpriteExtra*)>::destroy()
FUNC 5fdc2 4 0 std::__ndk1::__function::__func<AdminPopup::setup(UserData, UserData)::$_1, std::__ndk1::allocator<AdminPopup::setup(UserData, UserData)::$_1>, void (CCMenuItemSpriteExtra*)>::destroy_deallocate()
FUNC 5fdd0 3d4 0 std::__ndk1::__function::__func<AdminPopup::setup(UserData, UserData)::$_1, std::__ndk1::allocator<AdminPopup::setup(UserData, UserData)::$_1>, void (CCMenuItemSpriteExtra*)>::operator()(CCMenuItemSpriteExtra*&&)
FUNC 601a4 18 0 std::__ndk1::__function::__func<AdminPopup::setup(UserData, UserData)::$_1, std::__ndk1::allocator<AdminPopup::setup(UserData, UserData)::$_1>, void (CCMenuItemSpriteExtra*)>::target(std::type_info const&) const
FUNC 601bc c 0 std::__ndk1::__function::__func<AdminPopup::setup(UserData, UserData)::$_1, std::__ndk1::allocator<AdminPopup::setup(UserData, UserData)::$_1>, void (CCMenuItemSpriteExtra*)>::target_type() const
FUNC 601c8 4 0 std::__ndk1::__function::__func<AdminPopup::setup(UserData, UserData)::$_2, std::__ndk1::allocator<AdminPopup::setup(UserData, UserData)::$_2>, void (CCMenuItemSpriteExtra*)>::~__func()
FUNC 601cc 20 0 std::__ndk1::__function::__func<AdminPopup::setup(UserData, UserData)::$_2, std::__ndk1::allocator<AdminPopup::setup(UserData, UserData)::$_2>, void (CCMenuItemSpriteExtra*)>::__clone() const
FUNC 601ec 14 0 std::__ndk1::__function::__func<AdminPopup::setup(UserData, UserData)::$_2, std::__ndk1::allocator<AdminPopup::setup(UserData, UserData)::$_2>, void (CCMenuItemSpriteExtra*)>::__clone(std::__ndk1::__function::__base<void (CCMenuItemSpriteExtra*)>*) const
FUNC 60200 2 0 std::__ndk1::__function::__func<AdminPopup::setup(UserData, UserData)::$_2, std::__ndk1::allocator<AdminPopup::setup(UserData, UserData)::$_2>, void (CCMenuItemSpriteExtra*)>::destroy()
FUNC 60202 4 0 std::__ndk1::__function::__func<AdminPopup::setup(UserData, UserData)::$_2, std::__ndk1::allocator<AdminPopup::setup(UserData, UserData)::$_2>, void (CCMenuItemSpriteExtra*)>::destroy_deallocate()
FUNC 60208 9c 0 std::__ndk1::__function::__func<AdminPopup::setup(UserData, UserData)::$_2, std::__ndk1::allocator<AdminPopup::setup(UserData, UserData)::$_2>, void (CCMenuItemSpriteExtra*)>::operator()(CCMenuItemSpriteExtra*&&)
FUNC 602a4 18 0 std::__ndk1::__function::__func<AdminPopup::setup(UserData, UserData)::$_2, std::__ndk1::allocator<AdminPopup::setup(UserData, UserData)::$_2>, void (CCMenuItemSpriteExtra*)>::target(std::type_info const&) const
FUNC 602bc c 0 std::__ndk1::__function::__func<AdminPopup::setup(UserData, UserData)::$_2, std::__ndk1::allocator<AdminPopup::setup(UserData, UserData)::$_2>, void (CCMenuItemSpriteExtra*)>::target_type() const
FUNC 602c8 31c 0 CasePopup::setup(UserData, UserData)
FUNC 605e4 110 0 geode::Popup<UserData, UserData>::setTitle(std::__ndk1::basic_string<char, std::__ndk1::char_traits<char>, std::__ndk1::allocator<char> > const&, char const*, float, float)
FUNC 606f4 3d8 0 CasePopup::onLoadCases(cocos2d::CCObject*)
FUNC 60acc bc 0 geode::cocos::CCMenuItemExt::createSpriteExtraWithFrameName(std::__ndk1::basic_string_view<char, std::__ndk1::char_traits<char> >, float, std::__ndk1::function<void (CCMenuItemSpriteExtra*)>)
FUNC 60b88 9c 0 CasePopup::onClose(cocos2d::CCObject*)
FUNC 60c24 1c8 0 CasePopup::~CasePopup()
FUNC 60dec 10 0 CasePopup::~CasePopup()
FUNC 60dfc 8 0 {virtual override thunk({offset(-264)}, CasePopup::~CasePopup())}
FUNC 60e04 14 0 {virtual override thunk({offset(-264)}, CasePopup::~CasePopup())}
FUNC 60e18 4 0 std::__ndk1::__function::__func<CasePopup::setup(UserData, UserData)::$_0, std::__ndk1::allocator<CasePopup::setup(UserData, UserData)::$_0>, void (CCMenuItemSpriteExtra*)>::~__func()
FUNC 60e1c 20 0 std::__ndk1::__function::__func<CasePopup::setup(UserData, UserData)::$_0, std::__ndk1::allocator<CasePopup::setup(UserData, UserData)::$_0>, void (CCMenuItemSpriteExtra*)>::__clone() const
FUNC 60e3c 14 0 std::__ndk1::__function::__func<CasePopup::setup(UserData, UserData)::$_0, std::__ndk1::allocator<CasePopup::setup(UserData, UserData)::$_0>, void (CCMenuItemSpriteExtra*)>::__clone(std::__ndk1::__function::__base<void (CCMenuItemSpriteExtra*)>*) const
FUNC 60e50 2 0 std::__ndk1::__function::__func<CasePopup::setup(UserData, UserData)::$_0, std::__ndk1::allocator<CasePopup::setup(UserData, UserData)::$_0>, void (CCMenuItemSpriteExtra*)>::destroy()
FUNC 60e52 4 0 std::__ndk1::__function::__func<CasePopup::setup(UserData, UserData)::$_0, std::__ndk1::allocator<CasePopup::setup(UserData, UserData)::$_0>, void (CCMenuItemSpriteExtra*)>::destroy_deallocate()
FUNC 60e60 b88 0 std::__ndk1::__function::__func<CasePopup::setup(UserData, UserData)::$_0, std::__ndk1::allocator<CasePopup::setup(UserData, UserData)::$_0>, void (CCMenuItemSpriteExtra*)>::operator()(CCMenuItemSpriteExtra*&&)
FUNC 619e8 18 0 std::__ndk1::__function::__func<CasePopup::setup(UserData, UserData)::$_0, std::__ndk1::allocator<CasePopup::setup(UserData, UserData)::$_0>, void (CCMenuItemSpriteExtra*)>::target(std::type_info const&) const
FUNC 61a00 c 0 std::__ndk1::__function::__func<CasePopup::setup(UserData, UserData)::$_0, std::__ndk1::allocator<CasePopup::setup(UserData, UserData)::$_0>, void (CCMenuItemSpriteExtra*)>::target_type() const
FUNC 61a0c 5c 0 geode::Popup<UserData, std::__ndk1::function<void ()> >::~Popup()
FUNC 61a68 2 0 geode::Popup<UserData, std::__ndk1::function<void ()> >::~Popup()
FUNC 61a6a 20 0 geode::Popup<UserData, std::__ndk1::function<void ()> >::registerWithTouchDispatcher()
FUNC 61a8a 18 0 geode::Popup<UserData, std::__ndk1::function<void ()> >::keyDown(cocos2d::enumKeyCodes)
FUNC 61aa4 e4 0 geode::Popup<UserData, std::__ndk1::function<void ()> >::onClose(cocos2d::CCObject*)
FUNC 61b88 60 0 {virtual override thunk({offset(-264)}, geode::Popup<UserData, std::__ndk1::function<void ()> >::~Popup())}
FUNC 61be8 2 0 {virtual override thunk({offset(-264)}, geode::Popup<UserData, std::__ndk1::function<void ()> >::~Popup())}
FUNC 61bea 1c 0 {virtual override thunk({offset(-276)}, geode::Popup<UserData, std::__ndk1::function<void ()> >::keyDown(cocos2d::enumKeyCodes))}
FUNC 61c06 44 0 geode::Popup<UserData, std::__ndk1::function<void ()> >::CloseEvent::~CloseEvent()
FUNC 61c4a 40 0 geode::Popup<UserData, std::__ndk1::function<void ()> >::CloseEvent::~CloseEvent()
FUNC 61c8c 10 0 std::__ndk1::__shared_ptr_emplace<geode::Popup<UserData, std::__ndk1::function<void ()> >::CloseEvent::Impl, std::__ndk1::allocator<geode::Popup<UserData, std::__ndk1::function<void ()> >::CloseEvent::Impl> >::~__shared_ptr_emplace()
FUNC 61c9c 1c 0 std::__ndk1::__shared_ptr_emplace<geode::Popup<UserData, std::__ndk1::function<void ()> >::CloseEvent::Impl, std::__ndk1::allocator<geode::Popup<UserData, std::__ndk1::function<void ()> >::CloseEvent::Impl> >::~__shared_ptr_emplace()
FUNC 61cb8 2 0 std::__ndk1::__shared_ptr_emplace<geode::Popup<UserData, std::__ndk1::function<void ()> >::CloseEvent::Impl, std::__ndk1::allocator<geode::Popup<UserData, std::__ndk1::function<void ()> >::CloseEvent::Impl> >::__on_zero_shared()
FUNC 61cba 4 0 std::__ndk1::__shared_ptr_emplace<geode::Popup<UserData, std::__ndk1::function<void ()> >::CloseEvent::Impl, std::__ndk1::allocator<geode::Popup<UserData, std::__ndk1::function<void ()> >::CloseEvent::Impl> >::__on_zero_shared_weak()
FUNC 61cbe 4e 0 std::__ndk1::__exception_guard_exceptions<std::__ndk1::vector<std::__ndk1::basic_string<char, std::__ndk1::char_traits<char>, std::__ndk1::allocator<char> >, std::__ndk1::allocator<std::__ndk1::basic_string<char, std::__ndk1::char_traits<char>, std::__ndk1::allocator<char> > > >::__destroy_vector>::~__exception_guard_exceptions[abi:ne180000]()
FUNC 61d0c 3a 0 std::__ndk1::__exception_guard_exceptions<std::__ndk1::_AllocatorDestroyRangeReverse<std::__ndk1::allocator<std::__ndk1::basic_string<char, std::__ndk1::char_traits<char>, std::__ndk1::allocator<char> > >, std::__ndk1::basic_string<char, std::__ndk1::char_traits<char>, std::__ndk1::allocator<char> >*> >::~__exception_guard_exceptions[abi:ne180000]()
FUNC 61d46 4 0 std::__ndk1::__function::__func<CasePopup::setup(UserData, UserData)::$_0::operator()(cocos2d::CCObject*) const::{lambda()#1}, std::__ndk1::allocator<CasePopup::setup(UserData, UserData)::$_0::operator()(cocos2d::CCObject*) const::{lambda()#1}>, void ()>::~__func()
FUNC 61d4c 20 0 std::__ndk1::__function::__func<CasePopup::setup(UserData, UserData)::$_0::operator()(cocos2d::CCObject*) const::{lambda()#1}, std::__ndk1::allocator<CasePopup::setup(UserData, UserData)::$_0::operator()(cocos2d::CCObject*) const::{lambda()#1}>, void ()>::__clone() const
FUNC 61d6c 14 0 std::__ndk1::__function::__func<CasePopup::setup(UserData, UserData)::$_0::operator()(cocos2d::CCObject*) const::{lambda()#1}, std::__ndk1::allocator<CasePopup::setup(UserData, UserData)::$_0::operator()(cocos2d::CCObject*) const::{lambda()#1}>, void ()>::__clone(std::__ndk1::__function::__base<void ()>*) const
FUNC 61d80 2 0 std::__ndk1::__function::__func<CasePopup::setup(UserData, UserData)::$_0::operator()(cocos2d::CCObject*) const::{lambda()#1}, std::__ndk1::allocator<CasePopup::setup(UserData, UserData)::$_0::operator()(cocos2d::CCObject*) const::{lambda()#1}>, void ()>::destroy()
FUNC 61d82 4 0 std::__ndk1::__function::__func<CasePopup::setup(UserData, UserData)::$_0::operator()(cocos2d::CCObject*) const::{lambda()#1}, std::__ndk1::allocator<CasePopup::setup(UserData, UserData)::$_0::operator()(cocos2d::CCObject*) const::{lambda()#1}>, void ()>::destroy_deallocate()
FUNC 61d86 6 0 std::__ndk1::__function::__func<CasePopup::setup(UserData, UserData)::$_0::operator()(cocos2d::CCObject*) const::{lambda()#1}, std::__ndk1::allocator<CasePopup::setup(UserData, UserData)::$_0::operator()(cocos2d::CCObject*) const::{lambda()#1}>, void ()>::operator()()
FUNC 61d8c 18 0 std::__ndk1::__function::__func<CasePopup::setup(UserData, UserData)::$_0::operator()(cocos2d::CCObject*) const::{lambda()#1}, std::__ndk1::allocator<CasePopup::setup(UserData, UserData)::$_0::operator()(cocos2d::CCObject*) const::{lambda()#1}>, void ()>::target(std::type_info const&) const
FUNC 61da4 c 0 std::__ndk1::__function::__func<CasePopup::setup(UserData, UserData)::$_0::operator()(cocos2d::CCObject*) const::{lambda()#1}, std::__ndk1::allocator<CasePopup::setup(UserData, UserData)::$_0::operator()(cocos2d::CCObject*) const::{lambda()#1}>, void ()>::target_type() const
FUNC 61db0 4 0 std::__ndk1::__function::__func<CasePopup::onLoadCases(cocos2d::CCObject*)::$_0, std::__ndk1::allocator<CasePopup::onLoadCases(cocos2d::CCObject*)::$_0>, void (geode::Task<geode::utils::web::WebResponse, geode::utils::web::WebProgress>::Event*)>::~__func()
FUNC 61db4 20 0 std::__ndk1::__function::__func<CasePopup::onLoadCases(cocos2d::CCObject*)::$_0, std::__ndk1::allocator<CasePopup::onLoadCases(cocos2d::CCObject*)::$_0>, void (geode::Task<geode::utils::web::WebResponse, geode::utils::web::WebProgress>::Event*)>::__clone() const
FUNC 61dd4 18 0 std::__ndk1::__function::__func<CasePopup::onLoadCases(cocos2d::CCObject*)::$_0, std::__ndk1::allocator<CasePopup::onLoadCases(cocos2d::CCObject*)::$_0>, void (geode::Task<geode::utils::web::WebResponse, geode::utils::web::WebProgress>::Event*)>::__clone(std::__ndk1::__function::__base<void (geode::Task<geode::utils::web::WebResponse, geode::utils::web::WebProgress>::Event*)>*) const
FUNC 61dec 2 0 std::__ndk1::__function::__func<CasePopup::onLoadCases(cocos2d::CCObject*)::$_0, std::__ndk1::allocator<CasePopup::onLoadCases(cocos2d::CCObject*)::$_0>, void (geode::Task<geode::utils::web::WebResponse, geode::utils::web::WebProgress>::Event*)>::destroy()
FUNC 61dee 4 0 std::__ndk1::__function::__func<CasePopup::onLoadCases(cocos2d::CCObject*)::$_0, std::__ndk1::allocator<CasePopup::onLoadCases(cocos2d::CCObject*)::$_0>, void (geode::Task<geode::utils::web::WebResponse, geode::utils::web::WebProgress>::Event*)>::destroy_deallocate()
FUNC 61e00 1144 0 std::__ndk1::__function::__func<CasePopup::onLoadCases(cocos2d::CCObject*)::$_0, std::__ndk1::allocator<CasePopup::onLoadCases(cocos2d::CCObject*)::$_0>, void (geode::Task<geode::utils::web::WebResponse, geode::utils::web::WebProgress>::Event*)>::operator()(geode::Task<geode::utils::web::WebResponse, geode::utils::web::WebProgress>::Event*&&)
FUNC 62f44 18 0 std::__ndk1::__function::__func<CasePopup::onLoadCases(cocos2d::CCObject*)::$_0, std::__ndk1::allocator<CasePopup::onLoadCases(cocos2d::CCObject*)::$_0>, void (geode::Task<geode::utils::web::WebResponse, geode::utils::web::WebProgress>::Event*)>::target(std::type_info const&) const
FUNC 62f5c c 0 std::__ndk1::__function::__func<CasePopup::onLoadCases(cocos2d::CCObject*)::$_0, std::__ndk1::allocator<CasePopup::onLoadCases(cocos2d::CCObject*)::$_0>, void (geode::Task<geode::utils::web::WebResponse, geode::utils::web::WebProgress>::Event*)>::target_type() const
FUNC 62f68 60 0 geode::impl::ResultData<CaseData, std::__ndk1::basic_string<char, std::__ndk1::char_traits<char>, std::__ndk1::allocator<char> > >::~ResultData()
FUNC 62fc8 48 0 geode::impl::ResultData<bool, std::__ndk1::basic_string<char, std::__ndk1::char_traits<char>, std::__ndk1::allocator<char> > >::unwrapErr() &&
FUNC 63010 4c 0 geode::impl::ResultData<bool, std::__ndk1::basic_string<char, std::__ndk1::char_traits<char>, std::__ndk1::allocator<char> > >::unwrap() &&
FUNC 6305c 60 0 geode::impl::ResultData<bool, std::__ndk1::basic_string<char, std::__ndk1::char_traits<char>, std::__ndk1::allocator<char> > >::~ResultData()
FUNC 630bc f8 0 _ZN5geode15UnwrapExceptionC2IRbQsr4implE18IsStringStreamableIT_EEENS_4impl5OkTagEOS3_
FUNC 631b4 4 0 std::__ndk1::__function::__func<CasePopup::onLoadCases(cocos2d::CCObject*)::$_0::operator()(geode::Task<geode::utils::web::WebResponse, geode::utils::web::WebProgress>::Event*) const::{lambda()#1}, std::__ndk1::allocator<CasePopup::onLoadCases(cocos2d::CCObject*)::$_0::operator()(geode::Task<geode::utils::web::WebResponse, geode::utils::web::WebProgress>::Event*) const::{lambda()#1}>, void ()>::~__func()
FUNC 631b8 20 0 std::__ndk1::__function::__func<CasePopup::onLoadCases(cocos2d::CCObject*)::$_0::operator()(geode::Task<geode::utils::web::WebResponse, geode::utils::web::WebProgress>::Event*) const::{lambda()#1}, std::__ndk1::allocator<CasePopup::onLoadCases(cocos2d::CCObject*)::$_0::operator()(geode::Task<geode::utils::web::WebResponse, geode::utils::web::WebProgress>::Event*) const::{lambda()#1}>, void ()>::__clone() const
FUNC 631d8 14 0 std::__ndk1::__function::__func<CasePopup::onLoadCases(cocos2d::CCObject*)::$_0::operator()(geode::Task<geode::utils::web::WebResponse, geode::utils::web::WebProgress>::Event*) const::{lambda()#1}, std::__ndk1::allocator<CasePopup::onLoadCases(cocos2d::CCObject*)::$_0::operator()(geode::Task<geode::utils::web::WebResponse, geode::utils::web::WebProgress>::Event*) const::{lambda()#1}>, void ()>::__clone(std::__ndk1::__function::__base<void ()>*) const
FUNC 631ec 2 0 std::__ndk1::__function::__func<CasePopup::onLoadCases(cocos2d::CCObject*)::$_0::operator()(geode::Task<geode::utils::web::WebResponse, geode::utils::web::WebProgress>::Event*) const::{lambda()#1}, std::__ndk1::allocator<CasePopup::onLoadCases(cocos2d::CCObject*)::$_0::operator()(geode::Task<geode::utils::web::WebResponse, geode::utils::web::WebProgress>::Event*) const::{lambda()#1}>, void ()>::destroy()
FUNC 631ee 4 0 std::__ndk1::__function::__func<CasePopup::onLoadCases(cocos2d::CCObject*)::$_0::operator()(geode::Task<geode::utils::web::WebResponse, geode::utils::web::WebProgress>::Event*) const::{lambda()#1}, std::__ndk1::allocator<CasePopup::onLoadCases(cocos2d::CCObject*)::$_0::operator()(geode::Task<geode::utils::web::WebResponse, geode::utils::web::WebProgress>::Event*) const::{lambda()#1}>, void ()>::destroy_deallocate()
FUNC 631f2 6 0 std::__ndk1::__function::__func<CasePopup::onLoadCases(cocos2d::CCObject*)::$_0::operator()(geode::Task<geode::utils::web::WebResponse, geode::utils::web::WebProgress>::Event*) const::{lambda()#1}, std::__ndk1::allocator<CasePopup::onLoadCases(cocos2d::CCObject*)::$_0::operator()(geode::Task<geode::utils::web::WebResponse, geode::utils::web::WebProgress>::Event*) const::{lambda()#1}>, void ()>::operator()()
FUNC 631f8 18 0 std::__ndk1::__function::__func<CasePopup::onLoadCases(cocos2d::CCObject*)::$_0::operator()(geode::Task<geode::utils::web::WebResponse, geode::utils::web::WebProgress>::Event*) const::{lambda()#1}, std::__ndk1::allocator<CasePopup::onLoadCases(cocos2d::CCObject*)::$_0::operator()(geode::Task<geode::utils::web::WebResponse, geode::utils::web::WebProgress>::Event*) const::{lambda()#1}>, void ()>::target(std::type_info const&) const
FUNC 63210 c 0 std::__ndk1::__function::__func<CasePopup::onLoadCases(cocos2d::CCObject*)::$_0::operator()(geode::Task<geode::utils::web::WebResponse, geode::utils::web::WebProgress>::Event*) const::{lambda()#1}, std::__ndk1::allocator<CasePopup::onLoadCases(cocos2d::CCObject*)::$_0::operator()(geode::Task<geode::utils::web::WebResponse, geode::utils::web::WebProgress>::Event*) const::{lambda()#1}>, void ()>::target_type() const
FUNC 6321c 4e 0 std::__ndk1::__variant_detail::__visitation::__base::__dispatcher<(unsigned int)0>::__dispatch[abi:ne180000]<std::__ndk1::__variant_detail::__dtor<std::__ndk1::__variant_detail::__traits<CaseData, std::__ndk1::basic_string<char, std::__ndk1::char_traits<char>, std::__ndk1::allocator<char> > >, (std::__ndk1::__variant_detail::_Trait)1>::__destroy[abi:ne180000]()::{lambda(auto:1&)#1}, std::__ndk1::__variant_detail::__base<(std::__ndk1::__variant_detail::__traits<CaseData, std::__ndk1::basic_string<char, std::__ndk1::char_traits<char>, std::__ndk1::allocator<char> > >)1, std::__ndk1::__variant_detail::__traits, std::__ndk1::allocator<char> >&>(std::__ndk1::__variant_detail::__dtor<std::__ndk1::__variant_detail::__traits<CaseData, std::__ndk1::basic_string<char, std::__ndk1::char_traits<char>, std::__ndk1::allocator<char> > >, (std::__ndk1::__variant_detail::_Trait)1>, std::__ndk1::__variant_detail::__base<(std::__ndk1::__variant_detail::__traits<CaseData, std::__ndk1::basic_string<char, std::__ndk1::char_traits<char>, std::__ndk1::allocator<char> > >)1, std::__ndk1::__variant_detail::__traits, std::__ndk1::allocator<char> >&)
FUNC 6326a e 0 std::__ndk1::__variant_detail::__visitation::__base::__dispatcher<(unsigned int)1>::__dispatch[abi:ne180000]<std::__ndk1::__variant_detail::__dtor<std::__ndk1::__variant_detail::__traits<CaseData, std::__ndk1::basic_string<char, std::__ndk1::char_traits<char>, std::__ndk1::allocator<char> > >, (std::__ndk1::__variant_detail::_Trait)1>::__destroy[abi:ne180000]()::{lambda(auto:1&)#1}, std::__ndk1::__variant_detail::__base<(std::__ndk1::__variant_detail::__traits<CaseData, std::__ndk1::basic_string<char, std::__ndk1::char_traits<char>, std::__ndk1::allocator<char> > >)1, std::__ndk1::__variant_detail::__traits, std::__ndk1::allocator<char> >&>(std::__ndk1::__variant_detail::__dtor<std::__ndk1::__variant_detail::__traits<CaseData, std::__ndk1::basic_string<char, std::__ndk1::char_traits<char>, std::__ndk1::allocator<char> > >, (std::__ndk1::__variant_detail::_Trait)1>, std::__ndk1::__variant_detail::__base<(std::__ndk1::__variant_detail::__traits<CaseData, std::__ndk1::basic_string<char, std::__ndk1::char_traits<char>, std::__ndk1::allocator<char> > >)1, std::__ndk1::__variant_detail::__traits, std::__ndk1::allocator<char> >&)
FUNC 63278 92c 0 NewCasePopup::setup(UserData, std::__ndk1::function<void ()>)
FUNC 63ba4 56 0 NewCasePopup::setup(UserData, std::__ndk1::function<void ()>)::$_3::~$_3()
FUNC 63bfc 9c 0 NewCasePopup::onClose(cocos2d::CCObject*)
FUNC 63c98 13c 0 NewCasePopup::~NewCasePopup()
FUNC 63dd4 10 0 NewCasePopup::~NewCasePopup()
FUNC 63de4 8 0 {virtual override thunk({offset(-264)}, NewCasePopup::~NewCasePopup())}
FUNC 63dec 14 0 {virtual override thunk({offset(-264)}, NewCasePopup::~NewCasePopup())}
FUNC 63e00 34 0 std::__ndk1::__function::__func<NewCasePopup::setup(UserData, std::__ndk1::function<void ()>)::$_0, std::__ndk1::allocator<NewCasePopup::setup(UserData, std::__ndk1::function<void ()>)::$_0>, void (geode::Task<geode::utils::web::WebResponse, geode::utils::web::WebProgress>::Event*)>::~__func()
FUNC 63e34 38 0 std::__ndk1::__function::__func<NewCasePopup::setup(UserData, std::__ndk1::function<void ()>)::$_0, std::__ndk1::allocator<NewCasePopup::setup(UserData, std::__ndk1::function<void ()>)::$_0>, void (geode::Task<geode::utils::web::WebResponse, geode::utils::web::WebProgress>::Event*)>::~__func()
FUNC 63e6c 58 0 std::__ndk1::__function::__func<NewCasePopup::setup(UserData, std::__ndk1::function<void ()>)::$_0, std::__ndk1::allocator<NewCasePopup::setup(UserData, std::__ndk1::function<void ()>)::$_0>, void (geode::Task<geode::utils::web::WebResponse, geode::utils::web::WebProgress>::Event*)>::__clone() const
FUNC 63ec4 48 0 std::__ndk1::__function::__func<NewCasePopup::setup(UserData, std::__ndk1::function<void ()>)::$_0, std::__ndk1::allocator<NewCasePopup::setup(UserData, std::__ndk1::function<void ()>)::$_0>, void (geode::Task<geode::utils::web::WebResponse, geode::utils::web::WebProgress>::Event*)>::__clone(std::__ndk1::__function::__base<void (geode::Task<geode::utils::web::WebResponse, geode::utils::web::WebProgress>::Event*)>*) const
FUNC 63f0c 1e 0 std::__ndk1::__function::__func<NewCasePopup::setup(UserData, std::__ndk1::function<void ()>)::$_0, std::__ndk1::allocator<NewCasePopup::setup(UserData, std::__ndk1::function<void ()>)::$_0>, void (geode::Task<geode::utils::web::WebResponse, geode::utils::web::WebProgress>::Event*)>::destroy()
FUNC 63f2a 2a 0 std::__ndk1::__function::__func<NewCasePopup::setup(UserData, std::__ndk1::function<void ()>)::$_0, std::__ndk1::allocator<NewCasePopup::setup(UserData, std::__ndk1::function<void ()>)::$_0>, void (geode::Task<geode::utils::web::WebResponse, geode::utils::web::WebProgress>::Event*)>::destroy_deallocate()
FUNC 63f54 2dc 0 std::__ndk1::__function::__func<NewCasePopup::setup(UserData, std::__ndk1::function<void ()>)::$_0, std::__ndk1::allocator<NewCasePopup::setup(UserData, std::__ndk1::function<void ()>)::$_0>, void (geode::Task<geode::utils::web::WebResponse, geode::utils::web::WebProgress>::Event*)>::operator()(geode::Task<geode::utils::web::WebResponse, geode::utils::web::WebProgress>::Event*&&)
FUNC 64230 18 0 std::__ndk1::__function::__func<NewCasePopup::setup(UserData, std::__ndk1::function<void ()>)::$_0, std::__ndk1::allocator<NewCasePopup::setup(UserData, std::__ndk1::function<void ()>)::$_0>, void (geode::Task<geode::utils::web::WebResponse, geode::utils::web::WebProgress>::Event*)>::target(std::type_info const&) const
FUNC 64248 c 0 std::__ndk1::__function::__func<NewCasePopup::setup(UserData, std::__ndk1::function<void ()>)::$_0, std::__ndk1::allocator<NewCasePopup::setup(UserData, std::__ndk1::function<void ()>)::$_0>, void (geode::Task<geode::utils::web::WebResponse, geode::utils::web::WebProgress>::Event*)>::target_type() const
FUNC 64254 4 0 std::__ndk1::__function::__func<NewCasePopup::setup(UserData, std::__ndk1::function<void ()>)::$_1, std::__ndk1::allocator<NewCasePopup::setup(UserData, std::__ndk1::function<void ()>)::$_1>, void (CCMenuItemSpriteExtra*)>::~__func()
FUNC 64258 28 0 std::__ndk1::__function::__func<NewCasePopup::setup(UserData, std::__ndk1::function<void ()>)::$_1, std::__ndk1::allocator<NewCasePopup::setup(UserData, std::__ndk1::function<void ()>)::$_1>, void (CCMenuItemSpriteExtra*)>::__clone() const
FUNC 64280 1c 0 std::__ndk1::__function::__func<NewCasePopup::setup(UserData, std::__ndk1::function<void ()>)::$_1, std::__ndk1::allocator<NewCasePopup::setup(UserData, std::__ndk1::function<void ()>)::$_1>, void (CCMenuItemSpriteExtra*)>::__clone(std::__ndk1::__function::__base<void (CCMenuItemSpriteExtra*)>*) const
FUNC 6429c 2 0 std::__ndk1::__function::__func<NewCasePopup::setup(UserData, std::__ndk1::function<void ()>)::$_1, std::__ndk1::allocator<NewCasePopup::setup(UserData, std::__ndk1::function<void ()>)::$_1>, void (CCMenuItemSpriteExtra*)>::destroy()
FUNC 6429e 4 0 std::__ndk1::__function::__func<NewCasePopup::setup(UserData, std::__ndk1::function<void ()>)::$_1, std::__ndk1::allocator<NewCasePopup::setup(UserData, std::__ndk1::function<void ()>)::$_1>, void (CCMenuItemSpriteExtra*)>::destroy_deallocate()
FUNC 642a2 76 0 std::__ndk1::__function::__func<NewCasePopup::setup(UserData, std::__ndk1::function<void ()>)::$_1, std::__ndk1::allocator<NewCasePopup::setup(UserData, std::__ndk1::function<void ()>)::$_1>, void (CCMenuItemSpriteExtra*)>::operator()(CCMenuItemSpriteExtra*&&)
FUNC 64318 18 0 std::__ndk1::__function::__func<NewCasePopup::setup(UserData, std::__ndk1::function<void ()>)::$_1, std::__ndk1::allocator<NewCasePopup::setup(UserData, std::__ndk1::function<void ()>)::$_1>, void (CCMenuItemSpriteExtra*)>::target(std::type_info const&) const
FUNC 64330 c 0 std::__ndk1::__function::__func<NewCasePopup::setup(UserData, std::__ndk1::function<void ()>)::$_1, std::__ndk1::allocator<NewCasePopup::setup(UserData, std::__ndk1::function<void ()>)::$_1>, void (CCMenuItemSpriteExtra*)>::target_type() const
FUNC 6433c 4 0 std::__ndk1::__function::__func<NewCasePopup::setup(UserData, std::__ndk1::function<void ()>)::$_2, std::__ndk1::allocator<NewCasePopup::setup(UserData, std::__ndk1::function<void ()>)::$_2>, void (CCMenuItemSpriteExtra*)>::~__func()
FUNC 64340 28 0 std::__ndk1::__function::__func<NewCasePopup::setup(UserData, std::__ndk1::function<void ()>)::$_2, std::__ndk1::allocator<NewCasePopup::setup(UserData, std::__ndk1::function<void ()>)::$_2>, void (CCMenuItemSpriteExtra*)>::__clone() const
FUNC 64368 1c 0 std::__ndk1::__function::__func<NewCasePopup::setup(UserData, std::__ndk1::function<void ()>)::$_2, std::__ndk1::allocator<NewCasePopup::setup(UserData, std::__ndk1::function<void ()>)::$_2>, void (CCMenuItemSpriteExtra*)>::__clone(std::__ndk1::__function::__base<void (CCMenuItemSpriteExtra*)>*) const
FUNC 64384 2 0 std::__ndk1::__function::__func<NewCasePopup::setup(UserData, std::__ndk1::function<void ()>)::$_2, std::__ndk1::allocator<NewCasePopup::setup(UserData, std::__ndk1::function<void ()>)::$_2>, void (CCMenuItemSpriteExtra*)>::destroy()
FUNC 64386 4 0 std::__ndk1::__function::__func<NewCasePopup::setup(UserData, std::__ndk1::function<void ()>)::$_2, std::__ndk1::allocator<NewCasePopup::setup(UserData, std::__ndk1::function<void ()>)::$_2>, void (CCMenuItemSpriteExtra*)>::destroy_deallocate()
FUNC 6438a 70 0 std::__ndk1::__function::__func<NewCasePopup::setup(UserData, std::__ndk1::function<void ()>)::$_2, std::__ndk1::allocator<NewCasePopup::setup(UserData, std::__ndk1::function<void ()>)::$_2>, void (CCMenuItemSpriteExtra*)>::operator()(CCMenuItemSpriteExtra*&&)
FUNC 643fc 18 0 std::__ndk1::__function::__func<NewCasePopup::setup(UserData, std::__ndk1::function<void ()>)::$_2, std::__ndk1::allocator<NewCasePopup::setup(UserData, std::__ndk1::function<void ()>)::$_2>, void (CCMenuItemSpriteExtra*)>::target(std::type_info const&) const
FUNC 64414 c 0 std::__ndk1::__function::__func<NewCasePopup::setup(UserData, std::__ndk1::function<void ()>)::$_2, std::__ndk1::allocator<NewCasePopup::setup(UserData, std::__ndk1::function<void ()>)::$_2>, void (CCMenuItemSpriteExtra*)>::target_type() const
FUNC 64420 64 0 std::__ndk1::__function::__func<NewCasePopup::setup(UserData, std::__ndk1::function<void ()>)::$_3, std::__ndk1::allocator<NewCasePopup::setup(UserData, std::__ndk1::function<void ()>)::$_3>, void (CCMenuItemSpriteExtra*)>::~__func()
FUNC 64484 6c 0 std::__ndk1::__function::__func<NewCasePopup::setup(UserData, std::__ndk1::function<void ()>)::$_3, std::__ndk1::allocator<NewCasePopup::setup(UserData, std::__ndk1::function<void ()>)::$_3>, void (CCMenuItemSpriteExtra*)>::~__func()
FUNC 644f0 40 0 std::__ndk1::__function::__func<NewCasePopup::setup(UserData, std::__ndk1::function<void ()>)::$_3, std::__ndk1::allocator<NewCasePopup::setup(UserData, std::__ndk1::function<void ()>)::$_3>, void (CCMenuItemSpriteExtra*)>::__clone() const
FUNC 64530 30 0 std::__ndk1::__function::__func<NewCasePopup::setup(UserData, std::__ndk1::function<void ()>)::$_3, std::__ndk1::allocator<NewCasePopup::setup(UserData, std::__ndk1::function<void ()>)::$_3>, void (CCMenuItemSpriteExtra*)>::__clone(std::__ndk1::__function::__base<void (CCMenuItemSpriteExtra*)>*) const
FUNC 64560 6 0 std::__ndk1::__function::__func<NewCasePopup::setup(UserData, std::__ndk1::function<void ()>)::$_3, std::__ndk1::allocator<NewCasePopup::setup(UserData, std::__ndk1::function<void ()>)::$_3>, void (CCMenuItemSpriteExtra*)>::destroy()
FUNC 64566 16 0 std::__ndk1::__function::__func<NewCasePopup::setup(UserData, std::__ndk1::function<void ()>)::$_3, std::__ndk1::allocator<NewCasePopup::setup(UserData, std::__ndk1::function<void ()>)::$_3>, void (CCMenuItemSpriteExtra*)>::destroy_deallocate()
FUNC 6457c 414 0 std::__ndk1::__function::__func<NewCasePopup::setup(UserData, std::__ndk1::function<void ()>)::$_3, std::__ndk1::allocator<NewCasePopup::setup(UserData, std::__ndk1::function<void ()>)::$_3>, void (CCMenuItemSpriteExtra*)>::operator()(CCMenuItemSpriteExtra*&&)
FUNC 64990 18 0 std::__ndk1::__function::__func<NewCasePopup::setup(UserData, std::__ndk1::function<void ()>)::$_3, std::__ndk1::allocator<NewCasePopup::setup(UserData, std::__ndk1::function<void ()>)::$_3>, void (CCMenuItemSpriteExtra*)>::target(std::type_info const&) const
FUNC 649a8 c 0 std::__ndk1::__function::__func<NewCasePopup::setup(UserData, std::__ndk1::function<void ()>)::$_3, std::__ndk1::allocator<NewCasePopup::setup(UserData, std::__ndk1::function<void ()>)::$_3>, void (CCMenuItemSpriteExtra*)>::target_type() const
FUNC 649b4 58 0 std::__ndk1::__function::__alloc_func<NewCasePopup::setup(UserData, std::__ndk1::function<void ()>)::$_3, std::__ndk1::allocator<NewCasePopup::setup(UserData, std::__ndk1::function<void ()>)::$_3>, void (CCMenuItemSpriteExtra*)>::destroy[abi:ne180000]()
FUNC 64a0c 538 0 RolePopup::setup(UserData, std::__ndk1::function<void (int)>)
FUNC 64f44 50 0 RolePopup::onClose(cocos2d::CCObject*)
FUNC 64f94 e4 0 geode::Popup<UserData, std::__ndk1::function<void (int)> >::onClose(cocos2d::CCObject*)
FUNC 65078 12c 0 RolePopup::~RolePopup()
FUNC 651a4 10 0 RolePopup::~RolePopup()
FUNC 651b4 20 0 geode::Popup<UserData, std::__ndk1::function<void (int)> >::registerWithTouchDispatcher()
FUNC 651d4 18 0 geode::Popup<UserData, std::__ndk1::function<void (int)> >::keyDown(cocos2d::enumKeyCodes)
FUNC 651ec 8 0 {virtual override thunk({offset(-264)}, RolePopup::~RolePopup())}
FUNC 651f4 14 0 {virtual override thunk({offset(-264)}, RolePopup::~RolePopup())}
FUNC 65208 1c 0 {virtual override thunk({offset(-276)}, geode::Popup<UserData, std::__ndk1::function<void (int)> >::keyDown(cocos2d::enumKeyCodes))}
FUNC 65224 10 0 std::__ndk1::vector<CCMenuItemSpriteExtra*, std::__ndk1::allocator<CCMenuItemSpriteExtra*> >::__throw_length_error[abi:ne180000]() const
FUNC 65234 5c 0 geode::Popup<UserData, std::__ndk1::function<void (int)> >::~Popup()
FUNC 65290 2 0 geode::Popup<UserData, std::__ndk1::function<void (int)> >::~Popup()
FUNC 65294 60 0 {virtual override thunk({offset(-264)}, geode::Popup<UserData, std::__ndk1::function<void (int)> >::~Popup())}
FUNC 652f4 2 0 {virtual override thunk({offset(-264)}, geode::Popup<UserData, std::__ndk1::function<void (int)> >::~Popup())}
FUNC 652f6 4 0 std::__ndk1::__function::__func<RolePopup::setup(UserData, std::__ndk1::function<void (int)>)::$_0, std::__ndk1::allocator<RolePopup::setup(UserData, std::__ndk1::function<void (int)>)::$_0>, void (CCMenuItemSpriteExtra*)>::~__func()
FUNC 652fc 20 0 std::__ndk1::__function::__func<RolePopup::setup(UserData, std::__ndk1::function<void (int)>)::$_0, std::__ndk1::allocator<RolePopup::setup(UserData, std::__ndk1::function<void (int)>)::$_0>, void (CCMenuItemSpriteExtra*)>::__clone() const
FUNC 6531c 14 0 std::__ndk1::__function::__func<RolePopup::setup(UserData, std::__ndk1::function<void (int)>)::$_0, std::__ndk1::allocator<RolePopup::setup(UserData, std::__ndk1::function<void (int)>)::$_0>, void (CCMenuItemSpriteExtra*)>::__clone(std::__ndk1::__function::__base<void (CCMenuItemSpriteExtra*)>*) const
FUNC 65330 2 0 std::__ndk1::__function::__func<RolePopup::setup(UserData, std::__ndk1::function<void (int)>)::$_0, std::__ndk1::allocator<RolePopup::setup(UserData, std::__ndk1::function<void (int)>)::$_0>, void (CCMenuItemSpriteExtra*)>::destroy()
FUNC 65332 4 0 std::__ndk1::__function::__func<RolePopup::setup(UserData, std::__ndk1::function<void (int)>)::$_0, std::__ndk1::allocator<RolePopup::setup(UserData, std::__ndk1::function<void (int)>)::$_0>, void (CCMenuItemSpriteExtra*)>::destroy_deallocate()
FUNC 65338 6c 0 std::__ndk1::__function::__func<RolePopup::setup(UserData, std::__ndk1::function<void (int)>)::$_0, std::__ndk1::allocator<RolePopup::setup(UserData, std::__ndk1::function<void (int)>)::$_0>, void (CCMenuItemSpriteExtra*)>::operator()(CCMenuItemSpriteExtra*&&)
FUNC 653a4 18 0 std::__ndk1::__function::__func<RolePopup::setup(UserData, std::__ndk1::function<void (int)>)::$_0, std::__ndk1::allocator<RolePopup::setup(UserData, std::__ndk1::function<void (int)>)::$_0>, void (CCMenuItemSpriteExtra*)>::target(std::type_info const&) const
FUNC 653bc c 0 std::__ndk1::__function::__func<RolePopup::setup(UserData, std::__ndk1::function<void (int)>)::$_0, std::__ndk1::allocator<RolePopup::setup(UserData, std::__ndk1::function<void (int)>)::$_0>, void (CCMenuItemSpriteExtra*)>::target_type() const
FUNC 653c8 44 0 geode::Popup<UserData, std::__ndk1::function<void (int)> >::CloseEvent::~CloseEvent()
FUNC 6540c 40 0 geode::Popup<UserData, std::__ndk1::function<void (int)> >::CloseEvent::~CloseEvent()
FUNC 6544c 10 0 std::__ndk1::__shared_ptr_emplace<geode::Popup<UserData, std::__ndk1::function<void (int)> >::CloseEvent::Impl, std::__ndk1::allocator<geode::Popup<UserData, std::__ndk1::function<void (int)> >::CloseEvent::Impl> >::~__shared_ptr_emplace()
FUNC 6545c 1c 0 std::__ndk1::__shared_ptr_emplace<geode::Popup<UserData, std::__ndk1::function<void (int)> >::CloseEvent::Impl, std::__ndk1::allocator<geode::Popup<UserData, std::__ndk1::function<void (int)> >::CloseEvent::Impl> >::~__shared_ptr_emplace()
FUNC 65478 2 0 std::__ndk1::__shared_ptr_emplace<geode::Popup<UserData, std::__ndk1::function<void (int)> >::CloseEvent::Impl, std::__ndk1::allocator<geode::Popup<UserData, std::__ndk1::function<void (int)> >::CloseEvent::Impl> >::__on_zero_shared()
FUNC 6547a 4 0 std::__ndk1::__shared_ptr_emplace<geode::Popup<UserData, std::__ndk1::function<void (int)> >::CloseEvent::Impl, std::__ndk1::allocator<geode::Popup<UserData, std::__ndk1::function<void (int)> >::CloseEvent::Impl> >::__on_zero_shared_weak()
FUNC 65480 ac 0 AuthLoadLayer::init()
FUNC 6552c 10 0 AuthLoadLayer::~AuthLoadLayer()
FUNC 6553c 8 0 {virtual override thunk({offset(-264)}, AuthLoadLayer::~AuthLoadLayer())}
FUNC 65544 14 0 {virtual override thunk({offset(-264)}, AuthLoadLayer::~AuthLoadLayer())}
FUNC 65558 2a4 0 AuthMenu::setup()
FUNC 657fc 16c 0 AuthMenu::onDashAuth(cocos2d::CCObject*)
FUNC 65968 16c 0 AuthMenu::onGDAuth(cocos2d::CCObject*)
FUNC 65ad4 8c 0 AuthMenu::onDoLater(cocos2d::CCObject*)
FUNC 65b60 90 0 AuthMenu::onInfoBtn(cocos2d::CCObject*)
FUNC 65bf0 3fc 0 AuthMenu::testAuth(std::__ndk1::basic_string<char, std::__ndk1::char_traits<char>, std::__ndk1::allocator<char> >, std::__ndk1::function<void (int)>)
FUNC 65fec 2e 0 AuthMenu::testAuth(std::__ndk1::basic_string<char, std::__ndk1::char_traits<char>, std::__ndk1::allocator<char> >, std::__ndk1::function<void (int)>)::$_1::~$_1()
FUNC 6601c 494 0 AuthMenu::genAuthToken(AuthMethod, std::__ndk1::basic_string<char, std::__ndk1::char_traits<char>, std::__ndk1::allocator<char> >, bool, std::__ndk1::function<void (int)>)
FUNC 664b0 60 0 AuthMenu::~AuthMenu()
FUNC 66510 20 0 geode::Popup<>::registerWithTouchDispatcher()
FUNC 66530 18 0 geode::Popup<>::keyDown(cocos2d::enumKeyCodes)
FUNC 66548 e4 0 geode::Popup<>::onClose(cocos2d::CCObject*)
FUNC 6662c 60 0 {virtual override thunk({offset(-264)}, AuthMenu::~AuthMenu())}
FUNC 6668c 64 0 {virtual override thunk({offset(-264)}, AuthMenu::~AuthMenu())}
FUNC 666f0 1c 0 {virtual override thunk({offset(-276)}, geode::Popup<>::keyDown(cocos2d::enumKeyCodes))}
FUNC 6670c 5c 0 geode::Popup<>::~Popup()
FUNC 66768 2 0 geode::Popup<>::~Popup()
FUNC 6676c 60 0 {virtual override thunk({offset(-264)}, geode::Popup<>::~Popup())}
FUNC 667cc 2 0 {virtual override thunk({offset(-264)}, geode::Popup<>::~Popup())}
FUNC 667ce 44 0 geode::Popup<>::CloseEvent::~CloseEvent()
FUNC 66812 40 0 geode::Popup<>::CloseEvent::~CloseEvent()
FUNC 66854 10 0 std::__ndk1::__shared_ptr_emplace<geode::Popup<>::CloseEvent::Impl, std::__ndk1::allocator<geode::Popup<>::CloseEvent::Impl> >::~__shared_ptr_emplace()
FUNC 66864 1c 0 std::__ndk1::__shared_ptr_emplace<geode::Popup<>::CloseEvent::Impl, std::__ndk1::allocator<geode::Popup<>::CloseEvent::Impl> >::~__shared_ptr_emplace()
FUNC 66880 2 0 std::__ndk1::__shared_ptr_emplace<geode::Popup<>::CloseEvent::Impl, std::__ndk1::allocator<geode::Popup<>::CloseEvent::Impl> >::__on_zero_shared()
FUNC 66882 4 0 std::__ndk1::__shared_ptr_emplace<geode::Popup<>::CloseEvent::Impl, std::__ndk1::allocator<geode::Popup<>::CloseEvent::Impl> >::__on_zero_shared_weak()
FUNC 66886 4 0 std::__ndk1::__function::__func<AuthMenu::onDashAuth(cocos2d::CCObject*)::$_0, std::__ndk1::allocator<AuthMenu::onDashAuth(cocos2d::CCObject*)::$_0>, void (FLAlertLayer*, bool)>::~__func()
FUNC 6688c 20 0 std::__ndk1::__function::__func<AuthMenu::onDashAuth(cocos2d::CCObject*)::$_0, std::__ndk1::allocator<AuthMenu::onDashAuth(cocos2d::CCObject*)::$_0>, void (FLAlertLayer*, bool)>::__clone() const
FUNC 668ac 14 0 std::__ndk1::__function::__func<AuthMenu::onDashAuth(cocos2d::CCObject*)::$_0, std::__ndk1::allocator<AuthMenu::onDashAuth(cocos2d::CCObject*)::$_0>, void (FLAlertLayer*, bool)>::__clone(std::__ndk1::__function::__base<void (FLAlertLayer*, bool)>*) const
FUNC 668c0 2 0 std::__ndk1::__function::__func<AuthMenu::onDashAuth(cocos2d::CCObject*)::$_0, std::__ndk1::allocator<AuthMenu::onDashAuth(cocos2d::CCObject*)::$_0>, void (FLAlertLayer*, bool)>::destroy()
FUNC 668c2 4 0 std::__ndk1::__function::__func<AuthMenu::onDashAuth(cocos2d::CCObject*)::$_0, std::__ndk1::allocator<AuthMenu::onDashAuth(cocos2d::CCObject*)::$_0>, void (FLAlertLayer*, bool)>::destroy_deallocate()
FUNC 668c8 1a4 0 std::__ndk1::__function::__func<AuthMenu::onDashAuth(cocos2d::CCObject*)::$_0, std::__ndk1::allocator<AuthMenu::onDashAuth(cocos2d::CCObject*)::$_0>, void (FLAlertLayer*, bool)>::operator()(FLAlertLayer*&&, bool&&)
FUNC 66a6c 18 0 std::__ndk1::__function::__func<AuthMenu::onDashAuth(cocos2d::CCObject*)::$_0, std::__ndk1::allocator<AuthMenu::onDashAuth(cocos2d::CCObject*)::$_0>, void (FLAlertLayer*, bool)>::target(std::type_info const&) const
FUNC 66a84 c 0 std::__ndk1::__function::__func<AuthMenu::onDashAuth(cocos2d::CCObject*)::$_0, std::__ndk1::allocator<AuthMenu::onDashAuth(cocos2d::CCObject*)::$_0>, void (FLAlertLayer*, bool)>::target_type() const
FUNC 66a90 4 0 std::__ndk1::__function::__func<AuthMenu::onDashAuth(cocos2d::CCObject*)::$_0::operator()<FLAlertLayer*>(FLAlertLayer*, bool) const::{lambda(std::__ndk1::basic_string<char, std::__ndk1::char_traits<char>, std::__ndk1::allocator<char> >)#1}, std::__ndk1::allocator<AuthMenu::onDashAuth(cocos2d::CCObject*)::$_0::operator()<FLAlertLayer*>(FLAlertLayer*, bool) const::{lambda(std::__ndk1::basic_string<char, std::__ndk1::char_traits<char>, std::__ndk1::allocator<char> >)#1}>, void (std::__ndk1::basic_string<char, std::__ndk1::char_traits<char>, std::__ndk1::allocator<char> > const&)>::~__func()
FUNC 66a94 18 0 std::__ndk1::__function::__func<AuthMenu::onDashAuth(cocos2d::CCObject*)::$_0::operator()<FLAlertLayer*>(FLAlertLayer*, bool) const::{lambda(std::__ndk1::basic_string<char, std::__ndk1::char_traits<char>, std::__ndk1::allocator<char> >)#1}, std::__ndk1::allocator<AuthMenu::onDashAuth(cocos2d::CCObject*)::$_0::operator()<FLAlertLayer*>(FLAlertLayer*, bool) const::{lambda(std::__ndk1::basic_string<char, std::__ndk1::char_traits<char>, std::__ndk1::allocator<char> >)#1}>, void (std::__ndk1::basic_string<char, std::__ndk1::char_traits<char>, std::__ndk1::allocator<char> > const&)>::__clone() const
FUNC 66aac 10 0 std::__ndk1::__function::__func<AuthMenu::onDashAuth(cocos2d::CCObject*)::$_0::operator()<FLAlertLayer*>(FLAlertLayer*, bool) const::{lambda(std::__ndk1::basic_string<char, std::__ndk1::char_traits<char>, std::__ndk1::allocator<char> >)#1}, std::__ndk1::allocator<AuthMenu::onDashAuth(cocos2d::CCObject*)::$_0::operator()<FLAlertLayer*>(FLAlertLayer*, bool) const::{lambda(std::__ndk1::basic_string<char, std::__ndk1::char_traits<char>, std::__ndk1::allocator<char> >)#1}>, void (std::__ndk1::basic_string<char, std::__ndk1::char_traits<char>, std::__ndk1::allocator<char> > const&)>::__clone(std::__ndk1::__function::__base<void (std::__ndk1::basic_string<char, std::__ndk1::char_traits<char>, std::__ndk1::allocator<char> > const&)>*) const
FUNC 66abc 2 0 std::__ndk1::__function::__func<AuthMenu::onDashAuth(cocos2d::CCObject*)::$_0::operator()<FLAlertLayer*>(FLAlertLayer*, bool) const::{lambda(std::__ndk1::basic_string<char, std::__ndk1::char_traits<char>, std::__ndk1::allocator<char> >)#1}, std::__ndk1::allocator<AuthMenu::onDashAuth(cocos2d::CCObject*)::$_0::operator()<FLAlertLayer*>(FLAlertLayer*, bool) const::{lambda(std::__ndk1::basic_string<char, std::__ndk1::char_traits<char>, std::__ndk1::allocator<char> >)#1}>, void (std::__ndk1::basic_string<char, std::__ndk1::char_traits<char>, std::__ndk1::allocator<char> > const&)>::destroy()
FUNC 66abe 4 0 std::__ndk1::__function::__func<AuthMenu::onDashAuth(cocos2d::CCObject*)::$_0::operator()<FLAlertLayer*>(FLAlertLayer*, bool) const::{lambda(std::__ndk1::basic_string<char, std::__ndk1::char_traits<char>, std::__ndk1::allocator<char> >)#1}, std::__ndk1::allocator<AuthMenu::onDashAuth(cocos2d::CCObject*)::$_0::operator()<FLAlertLayer*>(FLAlertLayer*, bool) const::{lambda(std::__ndk1::basic_string<char, std::__ndk1::char_traits<char>, std::__ndk1::allocator<char> >)#1}>, void (std::__ndk1::basic_string<char, std::__ndk1::char_traits<char>, std::__ndk1::allocator<char> > const&)>::destroy_deallocate()
FUNC 66ac4 120 0 std::__ndk1::__function::__func<AuthMenu::onDashAuth(cocos2d::CCObject*)::$_0::operator()<FLAlertLayer*>(FLAlertLayer*, bool) const::{lambda(std::__ndk1::basic_string<char, std::__ndk1::char_traits<char>, std::__ndk1::allocator<char> >)#1}, std::__ndk1::allocator<AuthMenu::onDashAuth(cocos2d::CCObject*)::$_0::operator()<FLAlertLayer*>(FLAlertLayer*, bool) const::{lambda(std::__ndk1::basic_string<char, std::__ndk1::char_traits<char>, std::__ndk1::allocator<char> >)#1}>, void (std::__ndk1::basic_string<char, std::__ndk1::char_traits<char>, std::__ndk1::allocator<char> > const&)>::operator()(std::__ndk1::basic_string<char, std::__ndk1::char_traits<char>, std::__ndk1::allocator<char> > const&)
FUNC 66be4 18 0 std::__ndk1::__function::__func<AuthMenu::onDashAuth(cocos2d::CCObject*)::$_0::operator()<FLAlertLayer*>(FLAlertLayer*, bool) const::{lambda(std::__ndk1::basic_string<char, std::__ndk1::char_traits<char>, std::__ndk1::allocator<char> >)#1}, std::__ndk1::allocator<AuthMenu::onDashAuth(cocos2d::CCObject*)::$_0::operator()<FLAlertLayer*>(FLAlertLayer*, bool) const::{lambda(std::__ndk1::basic_string<char, std::__ndk1::char_traits<char>, std::__ndk1::allocator<char> >)#1}>, void (std::__ndk1::basic_string<char, std::__ndk1::char_traits<char>, std::__ndk1::allocator<char> > const&)>::target(std::type_info const&) const
FUNC 66bfc c 0 std::__ndk1::__function::__func<AuthMenu::onDashAuth(cocos2d::CCObject*)::$_0::operator()<FLAlertLayer*>(FLAlertLayer*, bool) const::{lambda(std::__ndk1::basic_string<char, std::__ndk1::char_traits<char>, std::__ndk1::allocator<char> >)#1}, std::__ndk1::allocator<AuthMenu::onDashAuth(cocos2d::CCObject*)::$_0::operator()<FLAlertLayer*>(FLAlertLayer*, bool) const::{lambda(std::__ndk1::basic_string<char, std::__ndk1::char_traits<char>, std::__ndk1::allocator<char> >)#1}>, void (std::__ndk1::basic_string<char, std::__ndk1::char_traits<char>, std::__ndk1::allocator<char> > const&)>::target_type() const
FUNC 66c08 4 0 std::__ndk1::__function::__func<AuthMenu::onDashAuth(cocos2d::CCObject*)::$_0::operator()<FLAlertLayer*>(FLAlertLayer*, bool) const::{lambda(std::__ndk1::basic_string<char, std::__ndk1::char_traits<char>, std::__ndk1::allocator<char> > const&)#1}, std::__ndk1::allocator<AuthMenu::onDashAuth(cocos2d::CCObject*)::$_0::operator()<FLAlertLayer*>(FLAlertLayer*, bool) const::{lambda(std::__ndk1::basic_string<char, std::__ndk1::char_traits<char>, std::__ndk1::allocator<char> > const&)#1}>, void (std::__ndk1::basic_string<char, std::__ndk1::char_traits<char>, std::__ndk1::allocator<char> > const&)>::~__func()
FUNC 66c0c 18 0 std::__ndk1::__function::__func<AuthMenu::onDashAuth(cocos2d::CCObject*)::$_0::operator()<FLAlertLayer*>(FLAlertLayer*, bool) const::{lambda(std::__ndk1::basic_string<char, std::__ndk1::char_traits<char>, std::__ndk1::allocator<char> > const&)#1}, std::__ndk1::allocator<AuthMenu::onDashAuth(cocos2d::CCObject*)::$_0::operator()<FLAlertLayer*>(FLAlertLayer*, bool) const::{lambda(std::__ndk1::basic_string<char, std::__ndk1::char_traits<char>, std::__ndk1::allocator<char> > const&)#1}>, void (std::__ndk1::basic_string<char, std::__ndk1::char_traits<char>, std::__ndk1::allocator<char> > const&)>::__clone() const
FUNC 66c24 10 0 std::__ndk1::__function::__func<AuthMenu::onDashAuth(cocos2d::CCObject*)::$_0::operator()<FLAlertLayer*>(FLAlertLayer*, bool) const::{lambda(std::__ndk1::basic_string<char, std::__ndk1::char_traits<char>, std::__ndk1::allocator<char> > const&)#1}, std::__ndk1::allocator<AuthMenu::onDashAuth(cocos2d::CCObject*)::$_0::operator()<FLAlertLayer*>(FLAlertLayer*, bool) const::{lambda(std::__ndk1::basic_string<char, std::__ndk1::char_traits<char>, std::__ndk1::allocator<char> > const&)#1}>, void (std::__ndk1::basic_string<char, std::__ndk1::char_traits<char>, std::__ndk1::allocator<char> > const&)>::__clone(std::__ndk1::__function::__base<void (std::__ndk1::basic_string<char, std::__ndk1::char_traits<char>, std::__ndk1::allocator<char> > const&)>*) const
FUNC 66c34 2 0 std::__ndk1::__function::__func<AuthMenu::onDashAuth(cocos2d::CCObject*)::$_0::operator()<FLAlertLayer*>(FLAlertLayer*, bool) const::{lambda(std::__ndk1::basic_string<char, std::__ndk1::char_traits<char>, std::__ndk1::allocator<char> > const&)#1}, std::__ndk1::allocator<AuthMenu::onDashAuth(cocos2d::CCObject*)::$_0::operator()<FLAlertLayer*>(FLAlertLayer*, bool) const::{lambda(std::__ndk1::basic_string<char, std::__ndk1::char_traits<char>, std::__ndk1::allocator<char> > const&)#1}>, void (std::__ndk1::basic_string<char, std::__ndk1::char_traits<char>, std::__ndk1::allocator<char> > const&)>::destroy()
FUNC 66c36 4 0 std::__ndk1::__function::__func<AuthMenu::onDashAuth(cocos2d::CCObject*)::$_0::operator()<FLAlertLayer*>(FLAlertLayer*, bool) const::{lambda(std::__ndk1::basic_string<char, std::__ndk1::char_traits<char>, std::__ndk1::allocator<char> > const&)#1}, std::__ndk1::allocator<AuthMenu::onDashAuth(cocos2d::CCObject*)::$_0::operator()<FLAlertLayer*>(FLAlertLayer*, bool) const::{lambda(std::__ndk1::basic_string<char, std::__ndk1::char_traits<char>, std::__ndk1::allocator<char> > const&)#1}>, void (std::__ndk1::basic_string<char, std::__ndk1::char_traits<char>, std::__ndk1::allocator<char> > const&)>::destroy_deallocate()
FUNC 66c3c 110 0 std::__ndk1::__function::__func<AuthMenu::onDashAuth(cocos2d::CCObject*)::$_0::operator()<FLAlertLayer*>(FLAlertLayer*, bool) const::{lambda(std::__ndk1::basic_string<char, std::__ndk1::char_traits<char>, std::__ndk1::allocator<char> > const&)#1}, std::__ndk1::allocator<AuthMenu::onDashAuth(cocos2d::CCObject*)::$_0::operator()<FLAlertLayer*>(FLAlertLayer*, bool) const::{lambda(std::__ndk1::basic_string<char, std::__ndk1::char_traits<char>, std::__ndk1::allocator<char> > const&)#1}>, void (std::__ndk1::basic_string<char, std::__ndk1::char_traits<char>, std::__ndk1::allocator<char> > const&)>::operator()(std::__ndk1::basic_string<char, std::__ndk1::char_traits<char>, std::__ndk1::allocator<char> > const&)
FUNC 66d4c 18 0 std::__ndk1::__function::__func<AuthMenu::onDashAuth(cocos2d::CCObject*)::$_0::operator()<FLAlertLayer*>(FLAlertLayer*, bool) const::{lambda(std::__ndk1::basic_string<char, std::__ndk1::char_traits<char>, std::__ndk1::allocator<char> > const&)#1}, std::__ndk1::allocator<AuthMenu::onDashAuth(cocos2d::CCObject*)::$_0::operator()<FLAlertLayer*>(FLAlertLayer*, bool) const::{lambda(std::__ndk1::basic_string<char, std::__ndk1::char_traits<char>, std::__ndk1::allocator<char> > const&)#1}>, void (std::__ndk1::basic_string<char, std::__ndk1::char_traits<char>, std::__ndk1::allocator<char> > const&)>::target(std::type_info const&) const
FUNC 66d64 c 0 std::__ndk1::__function::__func<AuthMenu::onDashAuth(cocos2d::CCObject*)::$_0::operator()<FLAlertLayer*>(FLAlertLayer*, bool) const::{lambda(std::__ndk1::basic_string<char, std::__ndk1::char_traits<char>, std::__ndk1::allocator<char> > const&)#1}, std::__ndk1::allocator<AuthMenu::onDashAuth(cocos2d::CCObject*)::$_0::operator()<FLAlertLayer*>(FLAlertLayer*, bool) const::{lambda(std::__ndk1::basic_string<char, std::__ndk1::char_traits<char>, std::__ndk1::allocator<char> > const&)#1}>, void (std::__ndk1::basic_string<char, std::__ndk1::char_traits<char>, std::__ndk1::allocator<char> > const&)>::target_type() const
FUNC 66d70 4 0 std::__ndk1::__function::__func<AuthMenu::onDashAuth(cocos2d::CCObject*)::$_0::operator()<FLAlertLayer*>(FLAlertLayer*, bool) const::{lambda(std::__ndk1::basic_string<char, std::__ndk1::char_traits<char>, std::__ndk1::allocator<char> > const&)#1}::operator()(std::__ndk1::basic_string<char, std::__ndk1::char_traits<char>, std::__ndk1::allocator<char> > const&) const::{lambda(bool)#1}, std::__ndk1::allocator<AuthMenu::onDashAuth(cocos2d::CCObject*)::$_0::operator()<FLAlertLayer*>(FLAlertLayer*, bool) const::{lambda(std::__ndk1::basic_string<char, std::__ndk1::char_traits<char>, std::__ndk1::allocator<char> > const&)#1}::operator()(std::__ndk1::basic_string<char, std::__ndk1::char_traits<char>, std::__ndk1::allocator<char> > const&) const::{lambda(bool)#1}>, void (int)>::~__func()
FUNC 66d74 18 0 std::__ndk1::__function::__func<AuthMenu::onDashAuth(cocos2d::CCObject*)::$_0::operator()<FLAlertLayer*>(FLAlertLayer*, bool) const::{lambda(std::__ndk1::basic_string<char, std::__ndk1::char_traits<char>, std::__ndk1::allocator<char> > const&)#1}::operator()(std::__ndk1::basic_string<char, std::__ndk1::char_traits<char>, std::__ndk1::allocator<char> > const&) const::{lambda(bool)#1}, std::__ndk1::allocator<AuthMenu::onDashAuth(cocos2d::CCObject*)::$_0::operator()<FLAlertLayer*>(FLAlertLayer*, bool) const::{lambda(std::__ndk1::basic_string<char, std::__ndk1::char_traits<char>, std::__ndk1::allocator<char> > const&)#1}::operator()(std::__ndk1::basic_string<char, std::__ndk1::char_traits<char>, std::__ndk1::allocator<char> > const&) const::{lambda(bool)#1}>, void (int)>::__clone() const
FUNC 66d8c 10 0 std::__ndk1::__function::__func<AuthMenu::onDashAuth(cocos2d::CCObject*)::$_0::operator()<FLAlertLayer*>(FLAlertLayer*, bool) const::{lambda(std::__ndk1::basic_string<char, std::__ndk1::char_traits<char>, std::__ndk1::allocator<char> > const&)#1}::operator()(std::__ndk1::basic_string<char, std::__ndk1::char_traits<char>, std::__ndk1::allocator<char> > const&) const::{lambda(bool)#1}, std::__ndk1::allocator<AuthMenu::onDashAuth(cocos2d::CCObject*)::$_0::operator()<FLAlertLayer*>(FLAlertLayer*, bool) const::{lambda(std::__ndk1::basic_string<char, std::__ndk1::char_traits<char>, std::__ndk1::allocator<char> > const&)#1}::operator()(std::__ndk1::basic_string<char, std::__ndk1::char_traits<char>, std::__ndk1::allocator<char> > const&) const::{lambda(bool)#1}>, void (int)>::__clone(std::__ndk1::__function::__base<void (int)>*) const
FUNC 66d9c 2 0 std::__ndk1::__function::__func<AuthMenu::onDashAuth(cocos2d::CCObject*)::$_0::operator()<FLAlertLayer*>(FLAlertLayer*, bool) const::{lambda(std::__ndk1::basic_string<char, std::__ndk1::char_traits<char>, std::__ndk1::allocator<char> > const&)#1}::operator()(std::__ndk1::basic_string<char, std::__ndk1::char_traits<char>, std::__ndk1::allocator<char> > const&) const::{lambda(bool)#1}, std::__ndk1::allocator<AuthMenu::onDashAuth(cocos2d::CCObject*)::$_0::operator()<FLAlertLayer*>(FLAlertLayer*, bool) const::{lambda(std::__ndk1::basic_string<char, std::__ndk1::char_traits<char>, std::__ndk1::allocator<char> > const&)#1}::operator()(std::__ndk1::basic_string<char, std::__ndk1::char_traits<char>, std::__ndk1::allocator<char> > const&) const::{lambda(bool)#1}>, void (int)>::destroy()
FUNC 66d9e 4 0 std::__ndk1::__function::__func<AuthMenu::onDashAuth(cocos2d::CCObject*)::$_0::operator()<FLAlertLayer*>(FLAlertLayer*, bool) const::{lambda(std::__ndk1::basic_string<char, std::__ndk1::char_traits<char>, std::__ndk1::allocator<char> > const&)#1}::operator()(std::__ndk1::basic_string<char, std::__ndk1::char_traits<char>, std::__ndk1::allocator<char> > const&) const::{lambda(bool)#1}, std::__ndk1::allocator<AuthMenu::onDashAuth(cocos2d::CCObject*)::$_0::operator()<FLAlertLayer*>(FLAlertLayer*, bool) const::{lambda(std::__ndk1::basic_string<char, std::__ndk1::char_traits<char>, std::__ndk1::allocator<char> > const&)#1}::operator()(std::__ndk1::basic_string<char, std::__ndk1::char_traits<char>, std::__ndk1::allocator<char> > const&) const::{lambda(bool)#1}>, void (int)>::destroy_deallocate()
FUNC 66da2 1e 0 std::__ndk1::__function::__func<AuthMenu::onDashAuth(cocos2d::CCObject*)::$_0::operator()<FLAlertLayer*>(FLAlertLayer*, bool) const::{lambda(std::__ndk1::basic_string<char, std::__ndk1::char_traits<char>, std::__ndk1::allocator<char> > const&)#1}::operator()(std::__ndk1::basic_string<char, std::__ndk1::char_traits<char>, std::__ndk1::allocator<char> > const&) const::{lambda(bool)#1}, std::__ndk1::allocator<AuthMenu::onDashAuth(cocos2d::CCObject*)::$_0::operator()<FLAlertLayer*>(FLAlertLayer*, bool) const::{lambda(std::__ndk1::basic_string<char, std::__ndk1::char_traits<char>, std::__ndk1::allocator<char> > const&)#1}::operator()(std::__ndk1::basic_string<char, std::__ndk1::char_traits<char>, std::__ndk1::allocator<char> > const&) const::{lambda(bool)#1}>, void (int)>::operator()(int&&)
FUNC 66dc0 18 0 std::__ndk1::__function::__func<AuthMenu::onDashAuth(cocos2d::CCObject*)::$_0::operator()<FLAlertLayer*>(FLAlertLayer*, bool) const::{lambda(std::__ndk1::basic_string<char, std::__ndk1::char_traits<char>, std::__ndk1::allocator<char> > const&)#1}::operator()(std::__ndk1::basic_string<char, std::__ndk1::char_traits<char>, std::__ndk1::allocator<char> > const&) const::{lambda(bool)#1}, std::__ndk1::allocator<AuthMenu::onDashAuth(cocos2d::CCObject*)::$_0::operator()<FLAlertLayer*>(FLAlertLayer*, bool) const::{lambda(std::__ndk1::basic_string<char, std::__ndk1::char_traits<char>, std::__ndk1::allocator<char> > const&)#1}::operator()(std::__ndk1::basic_string<char, std::__ndk1::char_traits<char>, std::__ndk1::allocator<char> > const&) const::{lambda(bool)#1}>, void (int)>::target(std::type_info const&) const
FUNC 66dd8 c 0 std::__ndk1::__function::__func<AuthMenu::onDashAuth(cocos2d::CCObject*)::$_0::operator()<FLAlertLayer*>(FLAlertLayer*, bool) const::{lambda(std::__ndk1::basic_string<char, std::__ndk1::char_traits<char>, std::__ndk1::allocator<char> > const&)#1}::operator()(std::__ndk1::basic_string<char, std::__ndk1::char_traits<char>, std::__ndk1::allocator<char> > const&) const::{lambda(bool)#1}, std::__ndk1::allocator<AuthMenu::onDashAuth(cocos2d::CCObject*)::$_0::operator()<FLAlertLayer*>(FLAlertLayer*, bool) const::{lambda(std::__ndk1::basic_string<char, std::__ndk1::char_traits<char>, std::__ndk1::allocator<char> > const&)#1}::operator()(std::__ndk1::basic_string<char, std::__ndk1::char_traits<char>, std::__ndk1::allocator<char> > const&) const::{lambda(bool)#1}>, void (int)>::target_type() const
FUNC 66de4 4 0 std::__ndk1::__function::__func<AuthMenu::testAuth(std::__ndk1::basic_string<char, std::__ndk1::char_traits<char>, std::__ndk1::allocator<char> >, std::__ndk1::function<void (int)>)::$_0, std::__ndk1::allocator<AuthMenu::testAuth(std::__ndk1::basic_string<char, std::__ndk1::char_traits<char>, std::__ndk1::allocator<char> >, std::__ndk1::function<void (int)>)::$_0>, void (geode::Task<geode::utils::web::WebResponse, geode::utils::web::WebProgress>::Event*)>::~__func()
FUNC 66de8 18 0 std::__ndk1::__function::__func<AuthMenu::testAuth(std::__ndk1::basic_string<char, std::__ndk1::char_traits<char>, std::__ndk1::allocator<char> >, std::__ndk1::function<void (int)>)::$_0, std::__ndk1::allocator<AuthMenu::testAuth(std::__ndk1::basic_string<char, std::__ndk1::char_traits<char>, std::__ndk1::allocator<char> >, std::__ndk1::function<void (int)>)::$_0>, void (geode::Task<geode::utils::web::WebResponse, geode::utils::web::WebProgress>::Event*)>::__clone() const
FUNC 66e00 10 0 std::__ndk1::__function::__func<AuthMenu::testAuth(std::__ndk1::basic_string<char, std::__ndk1::char_traits<char>, std::__ndk1::allocator<char> >, std::__ndk1::function<void (int)>)::$_0, std::__ndk1::allocator<AuthMenu::testAuth(std::__ndk1::basic_string<char, std::__ndk1::char_traits<char>, std::__ndk1::allocator<char> >, std::__ndk1::function<void (int)>)::$_0>, void (geode::Task<geode::utils::web::WebResponse, geode::utils::web::WebProgress>::Event*)>::__clone(std::__ndk1::__function::__base<void (geode::Task<geode::utils::web::WebResponse, geode::utils::web::WebProgress>::Event*)>*) const
FUNC 66e10 2 0 std::__ndk1::__function::__func<AuthMenu::testAuth(std::__ndk1::basic_string<char, std::__ndk1::char_traits<char>, std::__ndk1::allocator<char> >, std::__ndk1::function<void (int)>)::$_0, std::__ndk1::allocator<AuthMenu::testAuth(std::__ndk1::basic_string<char, std::__ndk1::char_traits<char>, std::__ndk1::allocator<char> >, std::__ndk1::function<void (int)>)::$_0>, void (geode::Task<geode::utils::web::WebResponse, geode::utils::web::WebProgress>::Event*)>::destroy()
FUNC 66e12 4 0 std::__ndk1::__function::__func<AuthMenu::testAuth(std::__ndk1::basic_string<char, std::__ndk1::char_traits<char>, std::__ndk1::allocator<char> >, std::__ndk1::function<void (int)>)::$_0, std::__ndk1::allocator<AuthMenu::testAuth(std::__ndk1::basic_string<char, std::__ndk1::char_traits<char>, std::__ndk1::allocator<char> >, std::__ndk1::function<void (int)>)::$_0>, void (geode::Task<geode::utils::web::WebResponse, geode::utils::web::WebProgress>::Event*)>::destroy_deallocate()
FUNC 66e18 78 0 std::__ndk1::__function::__func<AuthMenu::testAuth(std::__ndk1::basic_string<char, std::__ndk1::char_traits<char>, std::__ndk1::allocator<char> >, std::__ndk1::function<void (int)>)::$_0, std::__ndk1::allocator<AuthMenu::testAuth(std::__ndk1::basic_string<char, std::__ndk1::char_traits<char>, std::__ndk1::allocator<char> >, std::__ndk1::function<void (int)>)::$_0>, void (geode::Task<geode::utils::web::WebResponse, geode::utils::web::WebProgress>::Event*)>::operator()(geode::Task<geode::utils::web::WebResponse, geode::utils::web::WebProgress>::Event*&&)
FUNC 66e90 18 0 std::__ndk1::__function::__func<AuthMenu::testAuth(std::__ndk1::basic_string<char, std::__ndk1::char_traits<char>, std::__ndk1::allocator<char> >, std::__ndk1::function<void (int)>)::$_0, std::__ndk1::allocator<AuthMenu::testAuth(std::__ndk1::basic_string<char, std::__ndk1::char_traits<char>, std::__ndk1::allocator<char> >, std::__ndk1::function<void (int)>)::$_0>, void (geode::Task<geode::utils::web::WebResponse, geode::utils::web::WebProgress>::Event*)>::target(std::type_info const&) const
FUNC 66ea8 c 0 std::__ndk1::__function::__func<AuthMenu::testAuth(std::__ndk1::basic_string<char, std::__ndk1::char_traits<char>, std::__ndk1::allocator<char> >, std::__ndk1::function<void (int)>)::$_0, std::__ndk1::allocator<AuthMenu::testAuth(std::__ndk1::basic_string<char, std::__ndk1::char_traits<char>, std::__ndk1::allocator<char> >, std::__ndk1::function<void (int)>)::$_0>, void (geode::Task<geode::utils::web::WebResponse, geode::utils::web::WebProgress>::Event*)>::target_type() const
FUNC 66eb4 44 0 std::__ndk1::__function::__func<AuthMenu::testAuth(std::__ndk1::basic_string<char, std::__ndk1::char_traits<char>, std::__ndk1::allocator<char> >, std::__ndk1::function<void (int)>)::$_1, std::__ndk1::allocator<AuthMenu::testAuth(std::__ndk1::basic_string<char, std::__ndk1::char_traits<char>, std::__ndk1::allocator<char> >, std::__ndk1::function<void (int)>)::$_1>, void (geode::Task<geode::utils::web::WebResponse, geode::utils::web::WebProgress>::Event*)>::~__func()
FUNC 66ef8 48 0 std::__ndk1::__function::__func<AuthMenu::testAuth(std::__ndk1::basic_string<char, std::__ndk1::char_traits<char>, std::__ndk1::allocator<char> >, std::__ndk1::function<void (int)>)::$_1, std::__ndk1::allocator<AuthMenu::testAuth(std::__ndk1::basic_string<char, std::__ndk1::char_traits<char>, std::__ndk1::allocator<char> >, std::__ndk1::function<void (int)>)::$_1>, void (geode::Task<geode::utils::web::WebResponse, geode::utils::web::WebProgress>::Event*)>::~__func()
FUNC 66f40 98 0 std::__ndk1::__function::__func<AuthMenu::testAuth(std::__ndk1::basic_string<char, std::__ndk1::char_traits<char>, std::__ndk1::allocator<char> >, std::__ndk1::function<void (int)>)::$_1, std::__ndk1::allocator<AuthMenu::testAuth(std::__ndk1::basic_string<char, std::__ndk1::char_traits<char>, std::__ndk1::allocator<char> >, std::__ndk1::function<void (int)>)::$_1>, void (geode::Task<geode::utils::web::WebResponse, geode::utils::web::WebProgress>::Event*)>::__clone() const
FUNC 66fd8 90 0 std::__ndk1::__function::__func<AuthMenu::testAuth(std::__ndk1::basic_string<char, std::__ndk1::char_traits<char>, std::__ndk1::allocator<char> >, std::__ndk1::function<void (int)>)::$_1, std::__ndk1::allocator<AuthMenu::testAuth(std::__ndk1::basic_string<char, std::__ndk1::char_traits<char>, std::__ndk1::allocator<char> >, std::__ndk1::function<void (int)>)::$_1>, void (geode::Task<geode::utils::web::WebResponse, geode::utils::web::WebProgress>::Event*)>::__clone(std::__ndk1::__function::__base<void (geode::Task<geode::utils::web::WebResponse, geode::utils::web::WebProgress>::Event*)>*) const
FUNC 67068 38 0 std::__ndk1::__function::__func<AuthMenu::testAuth(std::__ndk1::basic_string<char, std::__ndk1::char_traits<char>, std::__ndk1::allocator<char> >, std::__ndk1::function<void (int)>)::$_1, std::__ndk1::allocator<AuthMenu::testAuth(std::__ndk1::basic_string<char, std::__ndk1::char_traits<char>, std::__ndk1::allocator<char> >, std::__ndk1::function<void (int)>)::$_1>, void (geode::Task<geode::utils::web::WebResponse, geode::utils::web::WebProgress>::Event*)>::destroy()
FUNC 670a0 3c 0 std::__ndk1::__function::__func<AuthMenu::testAuth(std::__ndk1::basic_string<char, std::__ndk1::char_traits<char>, std::__ndk1::allocator<char> >, std::__ndk1::function<void (int)>)::$_1, std::__ndk1::allocator<AuthMenu::testAuth(std::__ndk1::basic_string<char, std::__ndk1::char_traits<char>, std::__ndk1::allocator<char> >, std::__ndk1::function<void (int)>)::$_1>, void (geode::Task<geode::utils::web::WebResponse, geode::utils::web::WebProgress>::Event*)>::destroy_deallocate()
FUNC 670dc 81c 0 std::__ndk1::__function::__func<AuthMenu::testAuth(std::__ndk1::basic_string<char, std::__ndk1::char_traits<char>, std::__ndk1::allocator<char> >, std::__ndk1::function<void (int)>)::$_1, std::__ndk1::allocator<AuthMenu::testAuth(std::__ndk1::basic_string<char, std::__ndk1::char_traits<char>, std::__ndk1::allocator<char> >, std::__ndk1::function<void (int)>)::$_1>, void (geode::Task<geode::utils::web::WebResponse, geode::utils::web::WebProgress>::Event*)>::operator()(geode::Task<geode::utils::web::WebResponse, geode::utils::web::WebProgress>::Event*&&)
FUNC 678f8 18 0 std::__ndk1::__function::__func<AuthMenu::testAuth(std::__ndk1::basic_string<char, std::__ndk1::char_traits<char>, std::__ndk1::allocator<char> >, std::__ndk1::function<void (int)>)::$_1, std::__ndk1::allocator<AuthMenu::testAuth(std::__ndk1::basic_string<char, std::__ndk1::char_traits<char>, std::__ndk1::allocator<char> >, std::__ndk1::function<void (int)>)::$_1>, void (geode::Task<geode::utils::web::WebResponse, geode::utils::web::WebProgress>::Event*)>::target(std::type_info const&) const
FUNC 67910 c 0 std::__ndk1::__function::__func<AuthMenu::testAuth(std::__ndk1::basic_string<char, std::__ndk1::char_traits<char>, std::__ndk1::allocator<char> >, std::__ndk1::function<void (int)>)::$_1, std::__ndk1::allocator<AuthMenu::testAuth(std::__ndk1::basic_string<char, std::__ndk1::char_traits<char>, std::__ndk1::allocator<char> >, std::__ndk1::function<void (int)>)::$_1>, void (geode::Task<geode::utils::web::WebResponse, geode::utils::web::WebProgress>::Event*)>::target_type() const
FUNC 6791c 34 0 std::__ndk1::__function::__func<AuthMenu::genAuthToken(AuthMethod, std::__ndk1::basic_string<char, std::__ndk1::char_traits<char>, std::__ndk1::allocator<char> >, bool, std::__ndk1::function<void (int)>)::$_0, std::__ndk1::allocator<AuthMenu::genAuthToken(AuthMethod, std::__ndk1::basic_string<char, std::__ndk1::char_traits<char>, std::__ndk1::allocator<char> >, bool, std::__ndk1::function<void (int)>)::$_0>, void (geode::Task<geode::utils::web::WebResponse, geode::utils::web::WebProgress>::Event*)>::~__func()
FUNC 67950 38 0 std::__ndk1::__function::__func<AuthMenu::genAuthToken(AuthMethod, std::__ndk1::basic_string<char, std::__ndk1::char_traits<char>, std::__ndk1::allocator<char> >, bool, std::__ndk1::function<void (int)>)::$_0, std::__ndk1::allocator<AuthMenu::genAuthToken(AuthMethod, std::__ndk1::basic_string<char, std::__ndk1::char_traits<char>, std::__ndk1::allocator<char> >, bool, std::__ndk1::function<void (int)>)::$_0>, void (geode::Task<geode::utils::web::WebResponse, geode::utils::web::WebProgress>::Event*)>::~__func()
FUNC 67988 5c 0 std::__ndk1::__function::__func<AuthMenu::genAuthToken(AuthMethod, std::__ndk1::basic_string<char, std::__ndk1::char_traits<char>, std::__ndk1::allocator<char> >, bool, std::__ndk1::function<void (int)>)::$_0, std::__ndk1::allocator<AuthMenu::genAuthToken(AuthMethod, std::__ndk1::basic_string<char, std::__ndk1::char_traits<char>, std::__ndk1::allocator<char> >, bool, std::__ndk1::function<void (int)>)::$_0>, void (geode::Task<geode::utils::web::WebResponse, geode::utils::web::WebProgress>::Event*)>::__clone() const
FUNC 679e4 4c 0 std::__ndk1::__function::__func<AuthMenu::genAuthToken(AuthMethod, std::__ndk1::basic_string<char, std::__ndk1::char_traits<char>, std::__ndk1::allocator<char> >, bool, std::__ndk1::function<void (int)>)::$_0, std::__ndk1::allocator<AuthMenu::genAuthToken(AuthMethod, std::__ndk1::basic_string<char, std::__ndk1::char_traits<char>, std::__ndk1::allocator<char> >, bool, std::__ndk1::function<void (int)>)::$_0>, void (geode::Task<geode::utils::web::WebResponse, geode::utils::web::WebProgress>::Event*)>::__clone(std::__ndk1::__function::__base<void (geode::Task<geode::utils::web::WebResponse, geode::utils::web::WebProgress>::Event*)>*) const
FUNC 67a30 1e 0 std::__ndk1::__function::__func<AuthMenu::genAuthToken(AuthMethod, std::__ndk1::basic_string<char, std::__ndk1::char_traits<char>, std::__ndk1::allocator<char> >, bool, std::__ndk1::function<void (int)>)::$_0, std::__ndk1::allocator<AuthMenu::genAuthToken(AuthMethod, std::__ndk1::basic_string<char, std::__ndk1::char_traits<char>, std::__ndk1::allocator<char> >, bool, std::__ndk1::function<void (int)>)::$_0>, void (geode::Task<geode::utils::web::WebResponse, geode::utils::web::WebProgress>::Event*)>::destroy()
FUNC 67a4e 2a 0 std::__ndk1::__function::__func<AuthMenu::genAuthToken(AuthMethod, std::__ndk1::basic_string<char, std::__ndk1::char_traits<char>, std::__ndk1::allocator<char> >, bool, std::__ndk1::function<void (int)>)::$_0, std::__ndk1::allocator<AuthMenu::genAuthToken(AuthMethod, std::__ndk1::basic_string<char, std::__ndk1::char_traits<char>, std::__ndk1::allocator<char> >, bool, std::__ndk1::function<void (int)>)::$_0>, void (geode::Task<geode::utils::web::WebResponse, geode::utils::web::WebProgress>::Event*)>::destroy_deallocate()
FUNC 67a78 9b0 0 std::__ndk1::__function::__func<AuthMenu::genAuthToken(AuthMethod, std::__ndk1::basic_string<char, std::__ndk1::char_traits<char>, std::__ndk1::allocator<char> >, bool, std::__ndk1::function<void (int)>)::$_0, std::__ndk1::allocator<AuthMenu::genAuthToken(AuthMethod, std::__ndk1::basic_string<char, std::__ndk1::char_traits<char>, std::__ndk1::allocator<char> >, bool, std::__ndk1::function<void (int)>)::$_0>, void (geode::Task<geode::utils::web::WebResponse, geode::utils::web::WebProgress>::Event*)>::operator()(geode::Task<geode::utils::web::WebResponse, geode::utils::web::WebProgress>::Event*&&)
FUNC 68428 18 0 std::__ndk1::__function::__func<AuthMenu::genAuthToken(AuthMethod, std::__ndk1::basic_string<char, std::__ndk1::char_traits<char>, std::__ndk1::allocator<char> >, bool, std::__ndk1::function<void (int)>)::$_0, std::__ndk1::allocator<AuthMenu::genAuthToken(AuthMethod, std::__ndk1::basic_string<char, std::__ndk1::char_traits<char>, std::__ndk1::allocator<char> >, bool, std::__ndk1::function<void (int)>)::$_0>, void (geode::Task<geode::utils::web::WebResponse, geode::utils::web::WebProgress>::Event*)>::target(std::type_info const&) const
FUNC 68440 c 0 std::__ndk1::__function::__func<AuthMenu::genAuthToken(AuthMethod, std::__ndk1::basic_string<char, std::__ndk1::char_traits<char>, std::__ndk1::allocator<char> >, bool, std::__ndk1::function<void (int)>)::$_0, std::__ndk1::allocator<AuthMenu::genAuthToken(AuthMethod, std::__ndk1::basic_string<char, std::__ndk1::char_traits<char>, std::__ndk1::allocator<char> >, bool, std::__ndk1::function<void (int)>)::$_0>, void (geode::Task<geode::utils::web::WebResponse, geode::utils::web::WebProgress>::Event*)>::target_type() const
FUNC 6844c 60 0 geode::impl::ResultData<void, std::__ndk1::basic_string<char, std::__ndk1::char_traits<char>, std::__ndk1::allocator<char> > >::~ResultData()
FUNC 684ac 2 0 std::__ndk1::__variant_detail::__visitation::__base::__dispatcher<(unsigned int)0>::__dispatch[abi:ne180000]<std::__ndk1::__variant_detail::__dtor<std::__ndk1::__variant_detail::__traits<std::__ndk1::monostate, std::__ndk1::basic_string<char, std::__ndk1::char_traits<char>, std::__ndk1::allocator<char> > >, (std::__ndk1::__variant_detail::_Trait)1>::__destroy[abi:ne180000]()::{lambda(auto:1&)#1}, std::__ndk1::__variant_detail::__base<(std::__ndk1::__variant_detail::__traits<std::__ndk1::monostate, std::__ndk1::basic_string<char, std::__ndk1::char_traits<char>, std::__ndk1::allocator<char> > >)1, std::__ndk1::__variant_detail::__traits, std::__ndk1::allocator<char> >&>(std::__ndk1::__variant_detail::__dtor<std::__ndk1::__variant_detail::__traits<std::__ndk1::monostate, std::__ndk1::basic_string<char, std::__ndk1::char_traits<char>, std::__ndk1::allocator<char> > >, (std::__ndk1::__variant_detail::_Trait)1>, std::__ndk1::__variant_detail::__base<(std::__ndk1::__variant_detail::__traits<std::__ndk1::monostate, std::__ndk1::basic_string<char, std::__ndk1::char_traits<char>, std::__ndk1::allocator<char> > >)1, std::__ndk1::__variant_detail::__traits, std::__ndk1::allocator<char> >&)
FUNC 684ae e 0 std::__ndk1::__variant_detail::__visitation::__base::__dispatcher<(unsigned int)1>::__dispatch[abi:ne180000]<std::__ndk1::__variant_detail::__dtor<std::__ndk1::__variant_detail::__traits<std::__ndk1::monostate, std::__ndk1::basic_string<char, std::__ndk1::char_traits<char>, std::__ndk1::allocator<char> > >, (std::__ndk1::__variant_detail::_Trait)1>::__destroy[abi:ne180000]()::{lambda(auto:1&)#1}, std::__ndk1::__variant_detail::__base<(std::__ndk1::__variant_detail::__traits<std::__ndk1::monostate, std::__ndk1::basic_string<char, std::__ndk1::char_traits<char>, std::__ndk1::allocator<char> > >)1, std::__ndk1::__variant_detail::__traits, std::__ndk1::allocator<char> >&>(std::__ndk1::__variant_detail::__dtor<std::__ndk1::__variant_detail::__traits<std::__ndk1::monostate, std::__ndk1::basic_string<char, std::__ndk1::char_traits<char>, std::__ndk1::allocator<char> > >, (std::__ndk1::__variant_detail::_Trait)1>, std::__ndk1::__variant_detail::__base<(std::__ndk1::__variant_detail::__traits<std::__ndk1::monostate, std::__ndk1::basic_string<char, std::__ndk1::char_traits<char>, std::__ndk1::allocator<char> > >)1, std::__ndk1::__variant_detail::__traits, std::__ndk1::allocator<char> >&)
FUNC 684bc 3a 0 std::__ndk1::shared_ptr<geode::IntSettingV3>::~shared_ptr[abi:ne180000]()
FUNC 684f6 4 0 std::__ndk1::__function::__func<AuthMenu::onGDAuth(cocos2d::CCObject*)::$_0, std::__ndk1::allocator<AuthMenu::onGDAuth(cocos2d::CCObject*)::$_0>, void (FLAlertLayer*, bool)>::~__func()
FUNC 684fc 20 0 std::__ndk1::__function::__func<AuthMenu::onGDAuth(cocos2d::CCObject*)::$_0, std::__ndk1::allocator<AuthMenu::onGDAuth(cocos2d::CCObject*)::$_0>, void (FLAlertLayer*, bool)>::__clone() const
FUNC 6851c 14 0 std::__ndk1::__function::__func<AuthMenu::onGDAuth(cocos2d::CCObject*)::$_0, std::__ndk1::allocator<AuthMenu::onGDAuth(cocos2d::CCObject*)::$_0>, void (FLAlertLayer*, bool)>::__clone(std::__ndk1::__function::__base<void (FLAlertLayer*, bool)>*) const
FUNC 68530 2 0 std::__ndk1::__function::__func<AuthMenu::onGDAuth(cocos2d::CCObject*)::$_0, std::__ndk1::allocator<AuthMenu::onGDAuth(cocos2d::CCObject*)::$_0>, void (FLAlertLayer*, bool)>::destroy()
FUNC 68532 4 0 std::__ndk1::__function::__func<AuthMenu::onGDAuth(cocos2d::CCObject*)::$_0, std::__ndk1::allocator<AuthMenu::onGDAuth(cocos2d::CCObject*)::$_0>, void (FLAlertLayer*, bool)>::destroy_deallocate()
FUNC 68538 118 0 std::__ndk1::__function::__func<AuthMenu::onGDAuth(cocos2d::CCObject*)::$_0, std::__ndk1::allocator<AuthMenu::onGDAuth(cocos2d::CCObject*)::$_0>, void (FLAlertLayer*, bool)>::operator()(FLAlertLayer*&&, bool&&)
FUNC 68650 18 0 std::__ndk1::__function::__func<AuthMenu::onGDAuth(cocos2d::CCObject*)::$_0, std::__ndk1::allocator<AuthMenu::onGDAuth(cocos2d::CCObject*)::$_0>, void (FLAlertLayer*, bool)>::target(std::type_info const&) const
FUNC 68668 c 0 std::__ndk1::__function::__func<AuthMenu::onGDAuth(cocos2d::CCObject*)::$_0, std::__ndk1::allocator<AuthMenu::onGDAuth(cocos2d::CCObject*)::$_0>, void (FLAlertLayer*, bool)>::target_type() const
FUNC 68674 4 0 std::__ndk1::__function::__func<AuthMenu::onGDAuth(cocos2d::CCObject*)::$_0::operator()<FLAlertLayer*>(FLAlertLayer*, bool) const::{lambda(std::__ndk1::basic_string<char, std::__ndk1::char_traits<char>, std::__ndk1::allocator<char> >)#1}, std::__ndk1::allocator<AuthMenu::onGDAuth(cocos2d::CCObject*)::$_0::operator()<FLAlertLayer*>(FLAlertLayer*, bool) const::{lambda(std::__ndk1::basic_string<char, std::__ndk1::char_traits<char>, std::__ndk1::allocator<char> >)#1}>, void (std::__ndk1::basic_string<char, std::__ndk1::char_traits<char>, std::__ndk1::allocator<char> >)>::~__func()
FUNC 68678 20 0 std::__ndk1::__function::__func<AuthMenu::onGDAuth(cocos2d::CCObject*)::$_0::operator()<FLAlertLayer*>(FLAlertLayer*, bool) const::{lambda(std::__ndk1::basic_string<char, std::__ndk1::char_traits<char>, std::__ndk1::allocator<char> >)#1}, std::__ndk1::allocator<AuthMenu::onGDAuth(cocos2d::CCObject*)::$_0::operator()<FLAlertLayer*>(FLAlertLayer*, bool) const::{lambda(std::__ndk1::basic_string<char, std::__ndk1::char_traits<char>, std::__ndk1::allocator<char> >)#1}>, void (std::__ndk1::basic_string<char, std::__ndk1::char_traits<char>, std::__ndk1::allocator<char> >)>::__clone() const
FUNC 68698 14 0 std::__ndk1::__function::__func<AuthMenu::onGDAuth(cocos2d::CCObject*)::$_0::operator()<FLAlertLayer*>(FLAlertLayer*, bool) const::{lambda(std::__ndk1::basic_string<char, std::__ndk1::char_traits<char>, std::__ndk1::allocator<char> >)#1}, std::__ndk1::allocator<AuthMenu::onGDAuth(cocos2d::CCObject*)::$_0::operator()<FLAlertLayer*>(FLAlertLayer*, bool) const::{lambda(std::__ndk1::basic_string<char, std::__ndk1::char_traits<char>, std::__ndk1::allocator<char> >)#1}>, void (std::__ndk1::basic_string<char, std::__ndk1::char_traits<char>, std::__ndk1::allocator<char> >)>::__clone(std::__ndk1::__function::__base<void (std::__ndk1::basic_string<char, std::__ndk1::char_traits<char>, std::__ndk1::allocator<char> >)>*) const
FUNC 686ac 2 0 std::__ndk1::__function::__func<AuthMenu::onGDAuth(cocos2d::CCObject*)::$_0::operator()<FLAlertLayer*>(FLAlertLayer*, bool) const::{lambda(std::__ndk1::basic_string<char, std::__ndk1::char_traits<char>, std::__ndk1::allocator<char> >)#1}, std::__ndk1::allocator<AuthMenu::onGDAuth(cocos2d::CCObject*)::$_0::operator()<FLAlertLayer*>(FLAlertLayer*, bool) const::{lambda(std::__ndk1::basic_string<char, std::__ndk1::char_traits<char>, std::__ndk1::allocator<char> >)#1}>, void (std::__ndk1::basic_string<char, std::__ndk1::char_traits<char>, std::__ndk1::allocator<char> >)>::destroy()
FUNC 686ae 4 0 std::__ndk1::__function::__func<AuthMenu::onGDAuth(cocos2d::CCObject*)::$_0::operator()<FLAlertLayer*>(FLAlertLayer*, bool) const::{lambda(std::__ndk1::basic_string<char, std::__ndk1::char_traits<char>, std::__ndk1::allocator<char> >)#1}, std::__ndk1::allocator<AuthMenu::onGDAuth(cocos2d::CCObject*)::$_0::operator()<FLAlertLayer*>(FLAlertLayer*, bool) const::{lambda(std::__ndk1::basic_string<char, std::__ndk1::char_traits<char>, std::__ndk1::allocator<char> >)#1}>, void (std::__ndk1::basic_string<char, std::__ndk1::char_traits<char>, std::__ndk1::allocator<char> >)>::destroy_deallocate()
FUNC 686b4 fc 0 std::__ndk1::__function::__func<AuthMenu::onGDAuth(cocos2d::CCObject*)::$_0::operator()<FLAlertLayer*>(FLAlertLayer*, bool) const::{lambda(std::__ndk1::basic_string<char, std::__ndk1::char_traits<char>, std::__ndk1::allocator<char> >)#1}, std::__ndk1::allocator<AuthMenu::onGDAuth(cocos2d::CCObject*)::$_0::operator()<FLAlertLayer*>(FLAlertLayer*, bool) const::{lambda(std::__ndk1::basic_string<char, std::__ndk1::char_traits<char>, std::__ndk1::allocator<char> >)#1}>, void (std::__ndk1::basic_string<char, std::__ndk1::char_traits<char>, std::__ndk1::allocator<char> >)>::operator()(std::__ndk1::basic_string<char, std::__ndk1::char_traits<char>, std::__ndk1::allocator<char> >&&)
FUNC 687b0 18 0 std::__ndk1::__function::__func<AuthMenu::onGDAuth(cocos2d::CCObject*)::$_0::operator()<FLAlertLayer*>(FLAlertLayer*, bool) const::{lambda(std::__ndk1::basic_string<char, std::__ndk1::char_traits<char>, std::__ndk1::allocator<char> >)#1}, std::__ndk1::allocator<AuthMenu::onGDAuth(cocos2d::CCObject*)::$_0::operator()<FLAlertLayer*>(FLAlertLayer*, bool) const::{lambda(std::__ndk1::basic_string<char, std::__ndk1::char_traits<char>, std::__ndk1::allocator<char> >)#1}>, void (std::__ndk1::basic_string<char, std::__ndk1::char_traits<char>, std::__ndk1::allocator<char> >)>::target(std::type_info const&) const
FUNC 687c8 c 0 std::__ndk1::__function::__func<AuthMenu::onGDAuth(cocos2d::CCObject*)::$_0::operator()<FLAlertLayer*>(FLAlertLayer*, bool) const::{lambda(std::__ndk1::basic_string<char, std::__ndk1::char_traits<char>, std::__ndk1::allocator<char> >)#1}, std::__ndk1::allocator<AuthMenu::onGDAuth(cocos2d::CCObject*)::$_0::operator()<FLAlertLayer*>(FLAlertLayer*, bool) const::{lambda(std::__ndk1::basic_string<char, std::__ndk1::char_traits<char>, std::__ndk1::allocator<char> >)#1}>, void (std::__ndk1::basic_string<char, std::__ndk1::char_traits<char>, std::__ndk1::allocator<char> >)>::target_type() const
FUNC 687d4 4 0 std::__ndk1::__function::__func<AuthMenu::onGDAuth(cocos2d::CCObject*)::$_0::operator()<FLAlertLayer*>(FLAlertLayer*, bool) const::{lambda(std::__ndk1::basic_string<char, std::__ndk1::char_traits<char>, std::__ndk1::allocator<char> >(std::__ndk1::basic_string<char, std::__ndk1::char_traits<char>, std::__ndk1::allocator<char> >))#1}::operator() const::{lambda(bool)#1}, std::__ndk1::allocator<AuthMenu::onGDAuth(cocos2d::CCObject*)::$_0::operator()<FLAlertLayer*>(FLAlertLayer*, bool) const::{lambda(std::__ndk1::basic_string<char, std::__ndk1::char_traits<char>, std::__ndk1::allocator<char> >(std::__ndk1::basic_string<char, std::__ndk1::char_traits<char>, std::__ndk1::allocator<char> >))#1}::operator() const::{lambda(bool)#1}>, void (int)>::~__func()
FUNC 687d8 18 0 std::__ndk1::__function::__func<AuthMenu::onGDAuth(cocos2d::CCObject*)::$_0::operator()<FLAlertLayer*>(FLAlertLayer*, bool) const::{lambda(std::__ndk1::basic_string<char, std::__ndk1::char_traits<char>, std::__ndk1::allocator<char> >(std::__ndk1::basic_string<char, std::__ndk1::char_traits<char>, std::__ndk1::allocator<char> >))#1}::operator() const::{lambda(bool)#1}, std::__ndk1::allocator<AuthMenu::onGDAuth(cocos2d::CCObject*)::$_0::operator()<FLAlertLayer*>(FLAlertLayer*, bool) const::{lambda(std::__ndk1::basic_string<char, std::__ndk1::char_traits<char>, std::__ndk1::allocator<char> >(std::__ndk1::basic_string<char, std::__ndk1::char_traits<char>, std::__ndk1::allocator<char> >))#1}::operator() const::{lambda(bool)#1}>, void (int)>::__clone() const
FUNC 687f0 10 0 std::__ndk1::__function::__func<AuthMenu::onGDAuth(cocos2d::CCObject*)::$_0::operator()<FLAlertLayer*>(FLAlertLayer*, bool) const::{lambda(std::__ndk1::basic_string<char, std::__ndk1::char_traits<char>, std::__ndk1::allocator<char> >(std::__ndk1::basic_string<char, std::__ndk1::char_traits<char>, std::__ndk1::allocator<char> >))#1}::operator() const::{lambda(bool)#1}, std::__ndk1::allocator<AuthMenu::onGDAuth(cocos2d::CCObject*)::$_0::operator()<FLAlertLayer*>(FLAlertLayer*, bool) const::{lambda(std::__ndk1::basic_string<char, std::__ndk1::char_traits<char>, std::__ndk1::allocator<char> >(std::__ndk1::basic_string<char, std::__ndk1::char_traits<char>, std::__ndk1::allocator<char> >))#1}::operator() const::{lambda(bool)#1}>, void (int)>::__clone(std::__ndk1::__function::__base<void (int)>*) const
FUNC 68800 2 0 std::__ndk1::__function::__func<AuthMenu::onGDAuth(cocos2d::CCObject*)::$_0::operator()<FLAlertLayer*>(FLAlertLayer*, bool) const::{lambda(std::__ndk1::basic_string<char, std::__ndk1::char_traits<char>, std::__ndk1::allocator<char> >(std::__ndk1::basic_string<char, std::__ndk1::char_traits<char>, std::__ndk1::allocator<char> >))#1}::operator() const::{lambda(bool)#1}, std::__ndk1::allocator<AuthMenu::onGDAuth(cocos2d::CCObject*)::$_0::operator()<FLAlertLayer*>(FLAlertLayer*, bool) const::{lambda(std::__ndk1::basic_string<char, std::__ndk1::char_traits<char>, std::__ndk1::allocator<char> >(std::__ndk1::basic_string<char, std::__ndk1::char_traits<char>, std::__ndk1::allocator<char> >))#1}::operator() const::{lambda(bool)#1}>, void (int)>::destroy()
FUNC 68802 4 0 std::__ndk1::__function::__func<AuthMenu::onGDAuth(cocos2d::CCObject*)::$_0::operator()<FLAlertLayer*>(FLAlertLayer*, bool) const::{lambda(std::__ndk1::basic_string<char, std::__ndk1::char_traits<char>, std::__ndk1::allocator<char> >(std::__ndk1::basic_string<char, std::__ndk1::char_traits<char>, std::__ndk1::allocator<char> >))#1}::operator() const::{lambda(bool)#1}, std::__ndk1::allocator<AuthMenu::onGDAuth(cocos2d::CCObject*)::$_0::operator()<FLAlertLayer*>(FLAlertLayer*, bool) const::{lambda(std::__ndk1::basic_string<char, std::__ndk1::char_traits<char>, std::__ndk1::allocator<char> >(std::__ndk1::basic_string<char, std::__ndk1::char_traits<char>, std::__ndk1::allocator<char> >))#1}::operator() const::{lambda(bool)#1}>, void (int)>::destroy_deallocate()
FUNC 68806 1e 0 std::__ndk1::__function::__func<AuthMenu::onGDAuth(cocos2d::CCObject*)::$_0::operator()<FLAlertLayer*>(FLAlertLayer*, bool) const::{lambda(std::__ndk1::basic_string<char, std::__ndk1::char_traits<char>, std::__ndk1::allocator<char> >(std::__ndk1::basic_string<char, std::__ndk1::char_traits<char>, std::__ndk1::allocator<char> >))#1}::operator() const::{lambda(bool)#1}, std::__ndk1::allocator<AuthMenu::onGDAuth(cocos2d::CCObject*)::$_0::operator()<FLAlertLayer*>(FLAlertLayer*, bool) const::{lambda(std::__ndk1::basic_string<char, std::__ndk1::char_traits<char>, std::__ndk1::allocator<char> >(std::__ndk1::basic_string<char, std::__ndk1::char_traits<char>, std::__ndk1::allocator<char> >))#1}::operator() const::{lambda(bool)#1}>, void (int)>::operator()(int&&)
FUNC 68824 18 0 std::__ndk1::__function::__func<AuthMenu::onGDAuth(cocos2d::CCObject*)::$_0::operator()<FLAlertLayer*>(FLAlertLayer*, bool) const::{lambda(std::__ndk1::basic_string<char, std::__ndk1::char_traits<char>, std::__ndk1::allocator<char> >(std::__ndk1::basic_string<char, std::__ndk1::char_traits<char>, std::__ndk1::allocator<char> >))#1}::operator() const::{lambda(bool)#1}, std::__ndk1::allocator<AuthMenu::onGDAuth(cocos2d::CCObject*)::$_0::operator()<FLAlertLayer*>(FLAlertLayer*, bool) const::{lambda(std::__ndk1::basic_string<char, std::__ndk1::char_traits<char>, std::__ndk1::allocator<char> >(std::__ndk1::basic_string<char, std::__ndk1::char_traits<char>, std::__ndk1::allocator<char> >))#1}::operator() const::{lambda(bool)#1}>, void (int)>::target(std::type_info const&) const
FUNC 6883c c 0 std::__ndk1::__function::__func<AuthMenu::onGDAuth(cocos2d::CCObject*)::$_0::operator()<FLAlertLayer*>(FLAlertLayer*, bool) const::{lambda(std::__ndk1::basic_string<char, std::__ndk1::char_traits<char>, std::__ndk1::allocator<char> >(std::__ndk1::basic_string<char, std::__ndk1::char_traits<char>, std::__ndk1::allocator<char> >))#1}::operator() const::{lambda(bool)#1}, std::__ndk1::allocator<AuthMenu::onGDAuth(cocos2d::CCObject*)::$_0::operator()<FLAlertLayer*>(FLAlertLayer*, bool) const::{lambda(std::__ndk1::basic_string<char, std::__ndk1::char_traits<char>, std::__ndk1::allocator<char> >(std::__ndk1::basic_string<char, std::__ndk1::char_traits<char>, std::__ndk1::allocator<char> >))#1}::operator() const::{lambda(bool)#1}>, void (int)>::target_type() const
FUNC 68848 4 0 std::__ndk1::__function::__func<AuthMenu::onDoLater(cocos2d::CCObject*)::$_0, std::__ndk1::allocator<AuthMenu::onDoLater(cocos2d::CCObject*)::$_0>, void ()>::~__func()
FUNC 6884c 18 0 std::__ndk1::__function::__func<AuthMenu::onDoLater(cocos2d::CCObject*)::$_0, std::__ndk1::allocator<AuthMenu::onDoLater(cocos2d::CCObject*)::$_0>, void ()>::__clone() const
FUNC 68864 10 0 std::__ndk1::__function::__func<AuthMenu::onDoLater(cocos2d::CCObject*)::$_0, std::__ndk1::allocator<AuthMenu::onDoLater(cocos2d::CCObject*)::$_0>, void ()>::__clone(std::__ndk1::__function::__base<void ()>*) const
FUNC 68874 2 0 std::__ndk1::__function::__func<AuthMenu::onDoLater(cocos2d::CCObject*)::$_0, std::__ndk1::allocator<AuthMenu::onDoLater(cocos2d::CCObject*)::$_0>, void ()>::destroy()
FUNC 68876 4 0 std::__ndk1::__function::__func<AuthMenu::onDoLater(cocos2d::CCObject*)::$_0, std::__ndk1::allocator<AuthMenu::onDoLater(cocos2d::CCObject*)::$_0>, void ()>::destroy_deallocate()
FUNC 6887a 16 0 std::__ndk1::__function::__func<AuthMenu::onDoLater(cocos2d::CCObject*)::$_0, std::__ndk1::allocator<AuthMenu::onDoLater(cocos2d::CCObject*)::$_0>, void ()>::operator()()
FUNC 68890 18 0 std::__ndk1::__function::__func<AuthMenu::onDoLater(cocos2d::CCObject*)::$_0, std::__ndk1::allocator<AuthMenu::onDoLater(cocos2d::CCObject*)::$_0>, void ()>::target(std::type_info const&) const
FUNC 688a8 c 0 std::__ndk1::__function::__func<AuthMenu::onDoLater(cocos2d::CCObject*)::$_0, std::__ndk1::allocator<AuthMenu::onDoLater(cocos2d::CCObject*)::$_0>, void ()>::target_type() const
FUNC 688b4 134 0 _GLOBAL__sub_I_AuthMenu.cpp
FUNC 689e8 55c 0 CommentPopup::setup(ObjectData, std::__ndk1::function<void ()>)
FUNC 68f44 4ac 0 CommentPopup::onSubmit(cocos2d::CCObject*)
FUNC 693f0 12 0 CommentPopup::onClose(cocos2d::CCObject*)
FUNC 69404 e4 0 geode::Popup<ObjectData, std::__ndk1::function<void ()> >::onClose(cocos2d::CCObject*)
FUNC 694e8 13c 0 CommentPopup::~CommentPopup()
FUNC 69624 10 0 CommentPopup::~CommentPopup()
FUNC 69634 20 0 geode::Popup<ObjectData, std::__ndk1::function<void ()> >::registerWithTouchDispatcher()
FUNC 69654 18 0 geode::Popup<ObjectData, std::__ndk1::function<void ()> >::keyDown(cocos2d::enumKeyCodes)
FUNC 6966c 8 0 {virtual override thunk({offset(-264)}, CommentPopup::~CommentPopup())}
FUNC 69674 14 0 {virtual override thunk({offset(-264)}, CommentPopup::~CommentPopup())}
FUNC 69688 1c 0 {virtual override thunk({offset(-276)}, geode::Popup<ObjectData, std::__ndk1::function<void ()> >::keyDown(cocos2d::enumKeyCodes))}
FUNC 696a4 158 0 TextInputNode::create(std::__ndk1::basic_string<char, std::__ndk1::char_traits<char>, std::__ndk1::allocator<char> >, unsigned int, cocos2d::CCSize, float, float)
FUNC 697fc 4 0 std::__ndk1::__function::__func<TextInputNode::m_textInputChanged::{lambda()#1}, std::__ndk1::allocator<TextInputNode::m_textInputChanged::{lambda()#1}>, void ()>::~__func()
FUNC 69800 18 0 std::__ndk1::__function::__func<TextInputNode::m_textInputChanged::{lambda()#1}, std::__ndk1::allocator<TextInputNode::m_textInputChanged::{lambda()#1}>, void ()>::__clone() const
FUNC 69818 10 0 std::__ndk1::__function::__func<TextInputNode::m_textInputChanged::{lambda()#1}, std::__ndk1::allocator<TextInputNode::m_textInputChanged::{lambda()#1}>, void ()>::__clone(std::__ndk1::__function::__base<void ()>*) const
FUNC 69828 2 0 std::__ndk1::__function::__func<TextInputNode::m_textInputChanged::{lambda()#1}, std::__ndk1::allocator<TextInputNode::m_textInputChanged::{lambda()#1}>, void ()>::destroy()
FUNC 6982a 4 0 std::__ndk1::__function::__func<TextInputNode::m_textInputChanged::{lambda()#1}, std::__ndk1::allocator<TextInputNode::m_textInputChanged::{lambda()#1}>, void ()>::destroy_deallocate()
FUNC 6982e 2 0 std::__ndk1::__function::__func<TextInputNode::m_textInputChanged::{lambda()#1}, std::__ndk1::allocator<TextInputNode::m_textInputChanged::{lambda()#1}>, void ()>::operator()()
FUNC 69830 18 0 std::__ndk1::__function::__func<TextInputNode::m_textInputChanged::{lambda()#1}, std::__ndk1::allocator<TextInputNode::m_textInputChanged::{lambda()#1}>, void ()>::target(std::type_info const&) const
FUNC 69848 c 0 std::__ndk1::__function::__func<TextInputNode::m_textInputChanged::{lambda()#1}, std::__ndk1::allocator<TextInputNode::m_textInputChanged::{lambda()#1}>, void ()>::target_type() const
FUNC 69854 4 0 std::__ndk1::__function::__func<TextInputNode::m_textInputClosed::{lambda()#1}, std::__ndk1::allocator<TextInputNode::m_textInputClosed::{lambda()#1}>, void ()>::~__func()
FUNC 69858 18 0 std::__ndk1::__function::__func<TextInputNode::m_textInputClosed::{lambda()#1}, std::__ndk1::allocator<TextInputNode::m_textInputClosed::{lambda()#1}>, void ()>::__clone() const
FUNC 69870 10 0 std::__ndk1::__function::__func<TextInputNode::m_textInputClosed::{lambda()#1}, std::__ndk1::allocator<TextInputNode::m_textInputClosed::{lambda()#1}>, void ()>::__clone(std::__ndk1::__function::__base<void ()>*) const
FUNC 69880 2 0 std::__ndk1::__function::__func<TextInputNode::m_textInputClosed::{lambda()#1}, std::__ndk1::allocator<TextInputNode::m_textInputClosed::{lambda()#1}>, void ()>::destroy()
FUNC 69882 4 0 std::__ndk1::__function::__func<TextInputNode::m_textInputClosed::{lambda()#1}, std::__ndk1::allocator<TextInputNode::m_textInputClosed::{lambda()#1}>, void ()>::destroy_deallocate()
FUNC 69886 2 0 std::__ndk1::__function::__func<TextInputNode::m_textInputClosed::{lambda()#1}, std::__ndk1::allocator<TextInputNode::m_textInputClosed::{lambda()#1}>, void ()>::operator()()
FUNC 69888 18 0 std::__ndk1::__function::__func<TextInputNode::m_textInputClosed::{lambda()#1}, std::__ndk1::allocator<TextInputNode::m_textInputClosed::{lambda()#1}>, void ()>::target(std::type_info const&) const
FUNC 698a0 c 0 std::__ndk1::__function::__func<TextInputNode::m_textInputClosed::{lambda()#1}, std::__ndk1::allocator<TextInputNode::m_textInputClosed::{lambda()#1}>, void ()>::target_type() const
FUNC 698ac 4 0 std::__ndk1::__function::__func<TextInputNode::m_updateText::{lambda(std::__ndk1::basic_string<char, std::__ndk1::char_traits<char>, std::__ndk1::allocator<char> >)#1}, std::__ndk1::allocator<TextInputNode::m_updateText::{lambda(std::__ndk1::basic_string<char, std::__ndk1::char_traits<char>, std::__ndk1::allocator<char> >)#1}>, void (std::__ndk1::basic_string<char, std::__ndk1::char_traits<char>, std::__ndk1::allocator<char> >)>::~__func()
FUNC 698b0 18 0 std::__ndk1::__function::__func<TextInputNode::m_updateText::{lambda(std::__ndk1::basic_string<char, std::__ndk1::char_traits<char>, std::__ndk1::allocator<char> >)#1}, std::__ndk1::allocator<TextInputNode::m_updateText::{lambda(std::__ndk1::basic_string<char, std::__ndk1::char_traits<char>, std::__ndk1::allocator<char> >)#1}>, void (std::__ndk1::basic_string<char, std::__ndk1::char_traits<char>, std::__ndk1::allocator<char> >)>::__clone() const
FUNC 698c8 10 0 std::__ndk1::__function::__func<TextInputNode::m_updateText::{lambda(std::__ndk1::basic_string<char, std::__ndk1::char_traits<char>, std::__ndk1::allocator<char> >)#1}, std::__ndk1::allocator<TextInputNode::m_updateText::{lambda(std::__ndk1::basic_string<char, std::__ndk1::char_traits<char>, std::__ndk1::allocator<char> >)#1}>, void (std::__ndk1::basic_string<char, std::__ndk1::char_traits<char>, std::__ndk1::allocator<char> >)>::__clone(std::__ndk1::__function::__base<void (std::__ndk1::basic_string<char, std::__ndk1::char_traits<char>, std::__ndk1::allocator<char> >)>*) const
FUNC 698d8 2 0 std::__ndk1::__function::__func<TextInputNode::m_updateText::{lambda(std::__ndk1::basic_string<char, std::__ndk1::char_traits<char>, std::__ndk1::allocator<char> >)#1}, std::__ndk1::allocator<TextInputNode::m_updateText::{lambda(std::__ndk1::basic_string<char, std::__ndk1::char_traits<char>, std::__ndk1::allocator<char> >)#1}>, void (std::__ndk1::basic_string<char, std::__ndk1::char_traits<char>, std::__ndk1::allocator<char> >)>::destroy()
FUNC 698da 4 0 std::__ndk1::__function::__func<TextInputNode::m_updateText::{lambda(std::__ndk1::basic_string<char, std::__ndk1::char_traits<char>, std::__ndk1::allocator<char> >)#1}, std::__ndk1::allocator<TextInputNode::m_updateText::{lambda(std::__ndk1::basic_string<char, std::__ndk1::char_traits<char>, std::__ndk1::allocator<char> >)#1}>, void (std::__ndk1::basic_string<char, std::__ndk1::char_traits<char>, std::__ndk1::allocator<char> >)>::destroy_deallocate()
FUNC 698de 16 0 std::__ndk1::__function::__func<TextInputNode::m_updateText::{lambda(std::__ndk1::basic_string<char, std::__ndk1::char_traits<char>, std::__ndk1::allocator<char> >)#1}, std::__ndk1::allocator<TextInputNode::m_updateText::{lambda(std::__ndk1::basic_string<char, std::__ndk1::char_traits<char>, std::__ndk1::allocator<char> >)#1}>, void (std::__ndk1::basic_string<char, std::__ndk1::char_traits<char>, std::__ndk1::allocator<char> >)>::operator()(std::__ndk1::basic_string<char, std::__ndk1::char_traits<char>, std::__ndk1::allocator<char> >&&)
FUNC 698f4 18 0 std::__ndk1::__function::__func<TextInputNode::m_updateText::{lambda(std::__ndk1::basic_string<char, std::__ndk1::char_traits<char>, std::__ndk1::allocator<char> >)#1}, std::__ndk1::allocator<TextInputNode::m_updateText::{lambda(std::__ndk1::basic_string<char, std::__ndk1::char_traits<char>, std::__ndk1::allocator<char> >)#1}>, void (std::__ndk1::basic_string<char, std::__ndk1::char_traits<char>, std::__ndk1::allocator<char> >)>::target(std::type_info const&) const
FUNC 6990c c 0 std::__ndk1::__function::__func<TextInputNode::m_updateText::{lambda(std::__ndk1::basic_string<char, std::__ndk1::char_traits<char>, std::__ndk1::allocator<char> >)#1}, std::__ndk1::allocator<TextInputNode::m_updateText::{lambda(std::__ndk1::basic_string<char, std::__ndk1::char_traits<char>, std::__ndk1::allocator<char> >)#1}>, void (std::__ndk1::basic_string<char, std::__ndk1::char_traits<char>, std::__ndk1::allocator<char> >)>::target_type() const
FUNC 69918 cc 0 std::__ndk1::__function::__value_func<void (std::__ndk1::basic_string<char, std::__ndk1::char_traits<char>, std::__ndk1::allocator<char> >)>::swap[abi:ne180000](std::__ndk1::__function::__value_func<void (std::__ndk1::basic_string<char, std::__ndk1::char_traits<char>, std::__ndk1::allocator<char> >)>&)
FUNC 699e4 5c 0 geode::Popup<ObjectData, std::__ndk1::function<void ()> >::~Popup()
FUNC 69a40 2 0 geode::Popup<ObjectData, std::__ndk1::function<void ()> >::~Popup()
FUNC 69a44 60 0 {virtual override thunk({offset(-264)}, geode::Popup<ObjectData, std::__ndk1::function<void ()> >::~Popup())}
FUNC 69aa4 2 0 {virtual override thunk({offset(-264)}, geode::Popup<ObjectData, std::__ndk1::function<void ()> >::~Popup())}
FUNC 69aa6 4 0 std::__ndk1::__function::__func<CommentPopup::setup(ObjectData, std::__ndk1::function<void ()>)::$_0, std::__ndk1::allocator<CommentPopup::setup(ObjectData, std::__ndk1::function<void ()>)::$_0>, void (std::__ndk1::basic_string<char, std::__ndk1::char_traits<char>, std::__ndk1::allocator<char> >)>::~__func()
FUNC 69aac 20 0 std::__ndk1::__function::__func<CommentPopup::setup(ObjectData, std::__ndk1::function<void ()>)::$_0, std::__ndk1::allocator<CommentPopup::setup(ObjectData, std::__ndk1::function<void ()>)::$_0>, void (std::__ndk1::basic_string<char, std::__ndk1::char_traits<char>, std::__ndk1::allocator<char> >)>::__clone() const
FUNC 69acc 14 0 std::__ndk1::__function::__func<CommentPopup::setup(ObjectData, std::__ndk1::function<void ()>)::$_0, std::__ndk1::allocator<CommentPopup::setup(ObjectData, std::__ndk1::function<void ()>)::$_0>, void (std::__ndk1::basic_string<char, std::__ndk1::char_traits<char>, std::__ndk1::allocator<char> >)>::__clone(std::__ndk1::__function::__base<void (std::__ndk1::basic_string<char, std::__ndk1::char_traits<char>, std::__ndk1::allocator<char> >)>*) const
FUNC 69ae0 2 0 std::__ndk1::__function::__func<CommentPopup::setup(ObjectData, std::__ndk1::function<void ()>)::$_0, std::__ndk1::allocator<CommentPopup::setup(ObjectData, std::__ndk1::function<void ()>)::$_0>, void (std::__ndk1::basic_string<char, std::__ndk1::char_traits<char>, std::__ndk1::allocator<char> >)>::destroy()
FUNC 69ae2 4 0 std::__ndk1::__function::__func<CommentPopup::setup(ObjectData, std::__ndk1::function<void ()>)::$_0, std::__ndk1::allocator<CommentPopup::setup(ObjectData, std::__ndk1::function<void ()>)::$_0>, void (std::__ndk1::basic_string<char, std::__ndk1::char_traits<char>, std::__ndk1::allocator<char> >)>::destroy_deallocate()
FUNC 69ae8 168 0 std::__ndk1::__function::__func<CommentPopup::setup(ObjectData, std::__ndk1::function<void ()>)::$_0, std::__ndk1::allocator<CommentPopup::setup(ObjectData, std::__ndk1::function<void ()>)::$_0>, void (std::__ndk1::basic_string<char, std::__ndk1::char_traits<char>, std::__ndk1::allocator<char> >)>::operator()(std::__ndk1::basic_string<char, std::__ndk1::char_traits<char>, std::__ndk1::allocator<char> >&&)
FUNC 69c50 18 0 std::__ndk1::__function::__func<CommentPopup::setup(ObjectData, std::__ndk1::function<void ()>)::$_0, std::__ndk1::allocator<CommentPopup::setup(ObjectData, std::__ndk1::function<void ()>)::$_0>, void (std::__ndk1::basic_string<char, std::__ndk1::char_traits<char>, std::__ndk1::allocator<char> >)>::target(std::type_info const&) const
FUNC 69c68 c 0 std::__ndk1::__function::__func<CommentPopup::setup(ObjectData, std::__ndk1::function<void ()>)::$_0, std::__ndk1::allocator<CommentPopup::setup(ObjectData, std::__ndk1::function<void ()>)::$_0>, void (std::__ndk1::basic_string<char, std::__ndk1::char_traits<char>, std::__ndk1::allocator<char> >)>::target_type() const
FUNC 69c74 44 0 geode::Popup<ObjectData, std::__ndk1::function<void ()> >::CloseEvent::~CloseEvent()
FUNC 69cb8 40 0 geode::Popup<ObjectData, std::__ndk1::function<void ()> >::CloseEvent::~CloseEvent()
FUNC 69cf8 10 0 std::__ndk1::__shared_ptr_emplace<geode::Popup<ObjectData, std::__ndk1::function<void ()> >::CloseEvent::Impl, std::__ndk1::allocator<geode::Popup<ObjectData, std::__ndk1::function<void ()> >::CloseEvent::Impl> >::~__shared_ptr_emplace()
FUNC 69d08 1c 0 std::__ndk1::__shared_ptr_emplace<geode::Popup<ObjectData, std::__ndk1::function<void ()> >::CloseEvent::Impl, std::__ndk1::allocator<geode::Popup<ObjectData, std::__ndk1::function<void ()> >::CloseEvent::Impl> >::~__shared_ptr_emplace()
FUNC 69d24 2 0 std::__ndk1::__shared_ptr_emplace<geode::Popup<ObjectData, std::__ndk1::function<void ()> >::CloseEvent::Impl, std::__ndk1::allocator<geode::Popup<ObjectData, std::__ndk1::function<void ()> >::CloseEvent::Impl> >::__on_zero_shared()
FUNC 69d26 4 0 std::__ndk1::__shared_ptr_emplace<geode::Popup<ObjectData, std::__ndk1::function<void ()> >::CloseEvent::Impl, std::__ndk1::allocator<geode::Popup<ObjectData, std::__ndk1::function<void ()> >::CloseEvent::Impl> >::__on_zero_shared_weak()
FUNC 69d2a 4 0 std::__ndk1::__function::__func<CommentPopup::onSubmit(cocos2d::CCObject*)::$_0, std::__ndk1::allocator<CommentPopup::onSubmit(cocos2d::CCObject*)::$_0>, void (geode::Task<geode::utils::web::WebResponse, geode::utils::web::WebProgress>::Event*)>::~__func()
FUNC 69d30 20 0 std::__ndk1::__function::__func<CommentPopup::onSubmit(cocos2d::CCObject*)::$_0, std::__ndk1::allocator<CommentPopup::onSubmit(cocos2d::CCObject*)::$_0>, void (geode::Task<geode::utils::web::WebResponse, geode::utils::web::WebProgress>::Event*)>::__clone() const
FUNC 69d50 14 0 std::__ndk1::__function::__func<CommentPopup::onSubmit(cocos2d::CCObject*)::$_0, std::__ndk1::allocator<CommentPopup::onSubmit(cocos2d::CCObject*)::$_0>, void (geode::Task<geode::utils::web::WebResponse, geode::utils::web::WebProgress>::Event*)>::__clone(std::__ndk1::__function::__base<void (geode::Task<geode::utils::web::WebResponse, geode::utils::web::WebProgress>::Event*)>*) const
FUNC 69d64 2 0 std::__ndk1::__function::__func<CommentPopup::onSubmit(cocos2d::CCObject*)::$_0, std::__ndk1::allocator<CommentPopup::onSubmit(cocos2d::CCObject*)::$_0>, void (geode::Task<geode::utils::web::WebResponse, geode::utils::web::WebProgress>::Event*)>::destroy()
FUNC 69d66 4 0 std::__ndk1::__function::__func<CommentPopup::onSubmit(cocos2d::CCObject*)::$_0, std::__ndk1::allocator<CommentPopup::onSubmit(cocos2d::CCObject*)::$_0>, void (geode::Task<geode::utils::web::WebResponse, geode::utils::web::WebProgress>::Event*)>::destroy_deallocate()
FUNC 69d6c 2dc 0 std::__ndk1::__function::__func<CommentPopup::onSubmit(cocos2d::CCObject*)::$_0, std::__ndk1::allocator<CommentPopup::onSubmit(cocos2d::CCObject*)::$_0>, void (geode::Task<geode::utils::web::WebResponse, geode::utils::web::WebProgress>::Event*)>::operator()(geode::Task<geode::utils::web::WebResponse, geode::utils::web::WebProgress>::Event*&&)
FUNC 6a048 18 0 std::__ndk1::__function::__func<CommentPopup::onSubmit(cocos2d::CCObject*)::$_0, std::__ndk1::allocator<CommentPopup::onSubmit(cocos2d::CCObject*)::$_0>, void (geode::Task<geode::utils::web::WebResponse, geode::utils::web::WebProgress>::Event*)>::target(std::type_info const&) const
FUNC 6a060 c 0 std::__ndk1::__function::__func<CommentPopup::onSubmit(cocos2d::CCObject*)::$_0, std::__ndk1::allocator<CommentPopup::onSubmit(cocos2d::CCObject*)::$_0>, void (geode::Task<geode::utils::web::WebResponse, geode::utils::web::WebProgress>::Event*)>::target_type() const
FUNC 6a06c 530 0 CommentsPopup::setup(ObjectData, UserData)
FUNC 6a59c 110 0 geode::Popup<ObjectData, UserData>::setTitle(std::__ndk1::basic_string<char, std::__ndk1::char_traits<char>, std::__ndk1::allocator<char> > const&, char const*, float, float)
FUNC 6a6ac 308 0 CommentsPopup::onLoadComments(cocos2d::CCObject*)
FUNC 6a9b4 28 0 CommentsPopup::onCategoryButton(cocos2d::CCObject*)
FUNC 6a9dc cc 0 CommentsPopup::updateCategoryBG()
FUNC 6aaa8 9c 0 CommentsPopup::onClose(cocos2d::CCObject*)
FUNC 6ab44 170 0 CommentsPopup::~CommentsPopup()
FUNC 6acb4 10 0 CommentsPopup::~CommentsPopup()
FUNC 6acc4 8 0 {virtual override thunk({offset(-264)}, CommentsPopup::~CommentsPopup())}
FUNC 6accc 14 0 {virtual override thunk({offset(-264)}, CommentsPopup::~CommentsPopup())}
FUNC 6ace0 4 0 std::__ndk1::__function::__func<CommentsPopup::setup(ObjectData, UserData)::$_0, std::__ndk1::allocator<CommentsPopup::setup(ObjectData, UserData)::$_0>, void (CCMenuItemSpriteExtra*)>::~__func()
FUNC 6ace4 20 0 std::__ndk1::__function::__func<CommentsPopup::setup(ObjectData, UserData)::$_0, std::__ndk1::allocator<CommentsPopup::setup(ObjectData, UserData)::$_0>, void (CCMenuItemSpriteExtra*)>::__clone() const
FUNC 6ad04 14 0 std::__ndk1::__function::__func<CommentsPopup::setup(ObjectData, UserData)::$_0, std::__ndk1::allocator<CommentsPopup::setup(ObjectData, UserData)::$_0>, void (CCMenuItemSpriteExtra*)>::__clone(std::__ndk1::__function::__base<void (CCMenuItemSpriteExtra*)>*) const
FUNC 6ad18 2 0 std::__ndk1::__function::__func<CommentsPopup::setup(ObjectData, UserData)::$_0, std::__ndk1::allocator<CommentsPopup::setup(ObjectData, UserData)::$_0>, void (CCMenuItemSpriteExtra*)>::destroy()
FUNC 6ad1a 4 0 std::__ndk1::__function::__func<CommentsPopup::setup(ObjectData, UserData)::$_0, std::__ndk1::allocator<CommentsPopup::setup(ObjectData, UserData)::$_0>, void (CCMenuItemSpriteExtra*)>::destroy_deallocate()
FUNC 6ad1e 16 0 std::__ndk1::__function::__func<CommentsPopup::setup(ObjectData, UserData)::$_0, std::__ndk1::allocator<CommentsPopup::setup(ObjectData, UserData)::$_0>, void (CCMenuItemSpriteExtra*)>::operator()(CCMenuItemSpriteExtra*&&)
FUNC 6ad34 18 0 std::__ndk1::__function::__func<CommentsPopup::setup(ObjectData, UserData)::$_0, std::__ndk1::allocator<CommentsPopup::setup(ObjectData, UserData)::$_0>, void (CCMenuItemSpriteExtra*)>::target(std::type_info const&) const
FUNC 6ad4c c 0 std::__ndk1::__function::__func<CommentsPopup::setup(ObjectData, UserData)::$_0, std::__ndk1::allocator<CommentsPopup::setup(ObjectData, UserData)::$_0>, void (CCMenuItemSpriteExtra*)>::target_type() const
FUNC 6ad58 4 0 std::__ndk1::__function::__func<CommentsPopup::setup(ObjectData, UserData)::$_1, std::__ndk1::allocator<CommentsPopup::setup(ObjectData, UserData)::$_1>, void (CCMenuItemSpriteExtra*)>::~__func()
FUNC 6ad5c 20 0 std::__ndk1::__function::__func<CommentsPopup::setup(ObjectData, UserData)::$_1, std::__ndk1::allocator<CommentsPopup::setup(ObjectData, UserData)::$_1>, void (CCMenuItemSpriteExtra*)>::__clone() const
FUNC 6ad7c 14 0 std::__ndk1::__function::__func<CommentsPopup::setup(ObjectData, UserData)::$_1, std::__ndk1::allocator<CommentsPopup::setup(ObjectData, UserData)::$_1>, void (CCMenuItemSpriteExtra*)>::__clone(std::__ndk1::__function::__base<void (CCMenuItemSpriteExtra*)>*) const
FUNC 6ad90 2 0 std::__ndk1::__function::__func<CommentsPopup::setup(ObjectData, UserData)::$_1, std::__ndk1::allocator<CommentsPopup::setup(ObjectData, UserData)::$_1>, void (CCMenuItemSpriteExtra*)>::destroy()
FUNC 6ad92 4 0 std::__ndk1::__function::__func<CommentsPopup::setup(ObjectData, UserData)::$_1, std::__ndk1::allocator<CommentsPopup::setup(ObjectData, UserData)::$_1>, void (CCMenuItemSpriteExtra*)>::destroy_deallocate()
FUNC 6ad96 16 0 std::__ndk1::__function::__func<CommentsPopup::setup(ObjectData, UserData)::$_1, std::__ndk1::allocator<CommentsPopup::setup(ObjectData, UserData)::$_1>, void (CCMenuItemSpriteExtra*)>::operator()(CCMenuItemSpriteExtra*&&)
FUNC 6adac 18 0 std::__ndk1::__function::__func<CommentsPopup::setup(ObjectData, UserData)::$_1, std::__ndk1::allocator<CommentsPopup::setup(ObjectData, UserData)::$_1>, void (CCMenuItemSpriteExtra*)>::target(std::type_info const&) const
FUNC 6adc4 c 0 std::__ndk1::__function::__func<CommentsPopup::setup(ObjectData, UserData)::$_1, std::__ndk1::allocator<CommentsPopup::setup(ObjectData, UserData)::$_1>, void (CCMenuItemSpriteExtra*)>::target_type() const
FUNC 6add0 4 0 std::__ndk1::__function::__func<CommentsPopup::setup(ObjectData, UserData)::$_2, std::__ndk1::allocator<CommentsPopup::setup(ObjectData, UserData)::$_2>, void (CCMenuItemSpriteExtra*)>::~__func()
FUNC 6add4 20 0 std::__ndk1::__function::__func<CommentsPopup::setup(ObjectData, UserData)::$_2, std::__ndk1::allocator<CommentsPopup::setup(ObjectData, UserData)::$_2>, void (CCMenuItemSpriteExtra*)>::__clone() const
FUNC 6adf4 14 0 std::__ndk1::__function::__func<CommentsPopup::setup(ObjectData, UserData)::$_2, std::__ndk1::allocator<CommentsPopup::setup(ObjectData, UserData)::$_2>, void (CCMenuItemSpriteExtra*)>::__clone(std::__ndk1::__function::__base<void (CCMenuItemSpriteExtra*)>*) const
FUNC 6ae08 2 0 std::__ndk1::__function::__func<CommentsPopup::setup(ObjectData, UserData)::$_2, std::__ndk1::allocator<CommentsPopup::setup(ObjectData, UserData)::$_2>, void (CCMenuItemSpriteExtra*)>::destroy()
FUNC 6ae0a 4 0 std::__ndk1::__function::__func<CommentsPopup::setup(ObjectData, UserData)::$_2, std::__ndk1::allocator<CommentsPopup::setup(ObjectData, UserData)::$_2>, void (CCMenuItemSpriteExtra*)>::destroy_deallocate()
FUNC 6ae10 838 0 std::__ndk1::__function::__func<CommentsPopup::setup(ObjectData, UserData)::$_2, std::__ndk1::allocator<CommentsPopup::setup(ObjectData, UserData)::$_2>, void (CCMenuItemSpriteExtra*)>::operator()(CCMenuItemSpriteExtra*&&)
FUNC 6b648 18 0 std::__ndk1::__function::__func<CommentsPopup::setup(ObjectData, UserData)::$_2, std::__ndk1::allocator<CommentsPopup::setup(ObjectData, UserData)::$_2>, void (CCMenuItemSpriteExtra*)>::target(std::type_info const&) const
FUNC 6b660 c 0 std::__ndk1::__function::__func<CommentsPopup::setup(ObjectData, UserData)::$_2, std::__ndk1::allocator<CommentsPopup::setup(ObjectData, UserData)::$_2>, void (CCMenuItemSpriteExtra*)>::target_type() const
FUNC 6b66c 4 0 std::__ndk1::__function::__func<CommentsPopup::setup(ObjectData, UserData)::$_2::operator()(cocos2d::CCObject*) const::{lambda()#1}, std::__ndk1::allocator<CommentsPopup::setup(ObjectData, UserData)::$_2::operator()(cocos2d::CCObject*) const::{lambda()#1}>, void ()>::~__func()
FUNC 6b670 20 0 std::__ndk1::__function::__func<CommentsPopup::setup(ObjectData, UserData)::$_2::operator()(cocos2d::CCObject*) const::{lambda()#1}, std::__ndk1::allocator<CommentsPopup::setup(ObjectData, UserData)::$_2::operator()(cocos2d::CCObject*) const::{lambda()#1}>, void ()>::__clone() const
FUNC 6b690 14 0 std::__ndk1::__function::__func<CommentsPopup::setup(ObjectData, UserData)::$_2::operator()(cocos2d::CCObject*) const::{lambda()#1}, std::__ndk1::allocator<CommentsPopup::setup(ObjectData, UserData)::$_2::operator()(cocos2d::CCObject*) const::{lambda()#1}>, void ()>::__clone(std::__ndk1::__function::__base<void ()>*) const
FUNC 6b6a4 2 0 std::__ndk1::__function::__func<CommentsPopup::setup(ObjectData, UserData)::$_2::operator()(cocos2d::CCObject*) const::{lambda()#1}, std::__ndk1::allocator<CommentsPopup::setup(ObjectData, UserData)::$_2::operator()(cocos2d::CCObject*) const::{lambda()#1}>, void ()>::destroy()
FUNC 6b6a6 4 0 std::__ndk1::__function::__func<CommentsPopup::setup(ObjectData, UserData)::$_2::operator()(cocos2d::CCObject*) const::{lambda()#1}, std::__ndk1::allocator<CommentsPopup::setup(ObjectData, UserData)::$_2::operator()(cocos2d::CCObject*) const::{lambda()#1}>, void ()>::destroy_deallocate()
FUNC 6b6aa 6 0 std::__ndk1::__function::__func<CommentsPopup::setup(ObjectData, UserData)::$_2::operator()(cocos2d::CCObject*) const::{lambda()#1}, std::__ndk1::allocator<CommentsPopup::setup(ObjectData, UserData)::$_2::operator()(cocos2d::CCObject*) const::{lambda()#1}>, void ()>::operator()()
FUNC 6b6b0 18 0 std::__ndk1::__function::__func<CommentsPopup::setup(ObjectData, UserData)::$_2::operator()(cocos2d::CCObject*) const::{lambda()#1}, std::__ndk1::allocator<CommentsPopup::setup(ObjectData, UserData)::$_2::operator()(cocos2d::CCObject*) const::{lambda()#1}>, void ()>::target(std::type_info const&) const
FUNC 6b6c8 c 0 std::__ndk1::__function::__func<CommentsPopup::setup(ObjectData, UserData)::$_2::operator()(cocos2d::CCObject*) const::{lambda()#1}, std::__ndk1::allocator<CommentsPopup::setup(ObjectData, UserData)::$_2::operator()(cocos2d::CCObject*) const::{lambda()#1}>, void ()>::target_type() const
FUNC 6b6d4 4 0 std::__ndk1::__function::__func<CommentsPopup::onLoadComments(cocos2d::CCObject*)::$_0, std::__ndk1::allocator<CommentsPopup::onLoadComments(cocos2d::CCObject*)::$_0>, void (geode::Task<geode::utils::web::WebResponse, geode::utils::web::WebProgress>::Event*)>::~__func()
FUNC 6b6d8 20 0 std::__ndk1::__function::__func<CommentsPopup::onLoadComments(cocos2d::CCObject*)::$_0, std::__ndk1::allocator<CommentsPopup::onLoadComments(cocos2d::CCObject*)::$_0>, void (geode::Task<geode::utils::web::WebResponse, geode::utils::web::WebProgress>::Event*)>::__clone() const
FUNC 6b6f8 18 0 std::__ndk1::__function::__func<CommentsPopup::onLoadComments(cocos2d::CCObject*)::$_0, std::__ndk1::allocator<CommentsPopup::onLoadComments(cocos2d::CCObject*)::$_0>, void (geode::Task<geode::utils::web::WebResponse, geode::utils::web::WebProgress>::Event*)>::__clone(std::__ndk1::__function::__base<void (geode::Task<geode::utils::web::WebResponse, geode::utils::web::WebProgress>::Event*)>*) const
FUNC 6b710 2 0 std::__ndk1::__function::__func<CommentsPopup::onLoadComments(cocos2d::CCObject*)::$_0, std::__ndk1::allocator<CommentsPopup::onLoadComments(cocos2d::CCObject*)::$_0>, void (geode::Task<geode::utils::web::WebResponse, geode::utils::web::WebProgress>::Event*)>::destroy()
FUNC 6b712 4 0 std::__ndk1::__function::__func<CommentsPopup::onLoadComments(cocos2d::CCObject*)::$_0, std::__ndk1::allocator<CommentsPopup::onLoadComments(cocos2d::CCObject*)::$_0>, void (geode::Task<geode::utils::web::WebResponse, geode::utils::web::WebProgress>::Event*)>::destroy_deallocate()
FUNC 6b720 1364 0 std::__ndk1::__function::__func<CommentsPopup::onLoadComments(cocos2d::CCObject*)::$_0, std::__ndk1::allocator<CommentsPopup::onLoadComments(cocos2d::CCObject*)::$_0>, void (geode::Task<geode::utils::web::WebResponse, geode::utils::web::WebProgress>::Event*)>::operator()(geode::Task<geode::utils::web::WebResponse, geode::utils::web::WebProgress>::Event*&&)
FUNC 6ca84 18 0 std::__ndk1::__function::__func<CommentsPopup::onLoadComments(cocos2d::CCObject*)::$_0, std::__ndk1::allocator<CommentsPopup::onLoadComments(cocos2d::CCObject*)::$_0>, void (geode::Task<geode::utils::web::WebResponse, geode::utils::web::WebProgress>::Event*)>::target(std::type_info const&) const
FUNC 6ca9c c 0 std::__ndk1::__function::__func<CommentsPopup::onLoadComments(cocos2d::CCObject*)::$_0, std::__ndk1::allocator<CommentsPopup::onLoadComments(cocos2d::CCObject*)::$_0>, void (geode::Task<geode::utils::web::WebResponse, geode::utils::web::WebProgress>::Event*)>::target_type() const
FUNC 6caa8 60 0 geode::impl::ResultData<CommentData, std::__ndk1::basic_string<char, std::__ndk1::char_traits<char>, std::__ndk1::allocator<char> > >::~ResultData()
FUNC 6cb08 4c 0 geode::impl::ResultData<matjson::Value const&, std::__ndk1::basic_string<char, std::__ndk1::char_traits<char>, std::__ndk1::allocator<char> > >::unwrap() &
FUNC 6cb54 b0 0 std::__ndk1::vector<matjson::Value, std::__ndk1::allocator<matjson::Value> >::vector[abi:ne180000](std::initializer_list<matjson::Value>)
FUNC 6cc04 4 0 std::__ndk1::__function::__func<CommentsPopup::onLoadComments(cocos2d::CCObject*)::$_0::operator()(geode::Task<geode::utils::web::WebResponse, geode::utils::web::WebProgress>::Event*) const::{lambda()#1}, std::__ndk1::allocator<CommentsPopup::onLoadComments(cocos2d::CCObject*)::$_0::operator()(geode::Task<geode::utils::web::WebResponse, geode::utils::web::WebProgress>::Event*) const::{lambda()#1}>, void ()>::~__func()
FUNC 6cc08 20 0 std::__ndk1::__function::__func<CommentsPopup::onLoadComments(cocos2d::CCObject*)::$_0::operator()(geode::Task<geode::utils::web::WebResponse, geode::utils::web::WebProgress>::Event*) const::{lambda()#1}, std::__ndk1::allocator<CommentsPopup::onLoadComments(cocos2d::CCObject*)::$_0::operator()(geode::Task<geode::utils::web::WebResponse, geode::utils::web::WebProgress>::Event*) const::{lambda()#1}>, void ()>::__clone() const
FUNC 6cc28 14 0 std::__ndk1::__function::__func<CommentsPopup::onLoadComments(cocos2d::CCObject*)::$_0::operator()(geode::Task<geode::utils::web::WebResponse, geode::utils::web::WebProgress>::Event*) const::{lambda()#1}, std::__ndk1::allocator<CommentsPopup::onLoadComments(cocos2d::CCObject*)::$_0::operator()(geode::Task<geode::utils::web::WebResponse, geode::utils::web::WebProgress>::Event*) const::{lambda()#1}>, void ()>::__clone(std::__ndk1::__function::__base<void ()>*) const
FUNC 6cc3c 2 0 std::__ndk1::__function::__func<CommentsPopup::onLoadComments(cocos2d::CCObject*)::$_0::operator()(geode::Task<geode::utils::web::WebResponse, geode::utils::web::WebProgress>::Event*) const::{lambda()#1}, std::__ndk1::allocator<CommentsPopup::onLoadComments(cocos2d::CCObject*)::$_0::operator()(geode::Task<geode::utils::web::WebResponse, geode::utils::web::WebProgress>::Event*) const::{lambda()#1}>, void ()>::destroy()
FUNC 6cc3e 4 0 std::__ndk1::__function::__func<CommentsPopup::onLoadComments(cocos2d::CCObject*)::$_0::operator()(geode::Task<geode::utils::web::WebResponse, geode::utils::web::WebProgress>::Event*) const::{lambda()#1}, std::__ndk1::allocator<CommentsPopup::onLoadComments(cocos2d::CCObject*)::$_0::operator()(geode::Task<geode::utils::web::WebResponse, geode::utils::web::WebProgress>::Event*) const::{lambda()#1}>, void ()>::destroy_deallocate()
FUNC 6cc42 6 0 std::__ndk1::__function::__func<CommentsPopup::onLoadComments(cocos2d::CCObject*)::$_0::operator()(geode::Task<geode::utils::web::WebResponse, geode::utils::web::WebProgress>::Event*) const::{lambda()#1}, std::__ndk1::allocator<CommentsPopup::onLoadComments(cocos2d::CCObject*)::$_0::operator()(geode::Task<geode::utils::web::WebResponse, geode::utils::web::WebProgress>::Event*) const::{lambda()#1}>, void ()>::operator()()
FUNC 6cc48 18 0 std::__ndk1::__function::__func<CommentsPopup::onLoadComments(cocos2d::CCObject*)::$_0::operator()(geode::Task<geode::utils::web::WebResponse, geode::utils::web::WebProgress>::Event*) const::{lambda()#1}, std::__ndk1::allocator<CommentsPopup::onLoadComments(cocos2d::CCObject*)::$_0::operator()(geode::Task<geode::utils::web::WebResponse, geode::utils::web::WebProgress>::Event*) const::{lambda()#1}>, void ()>::target(std::type_info const&) const
FUNC 6cc60 c 0 std::__ndk1::__function::__func<CommentsPopup::onLoadComments(cocos2d::CCObject*)::$_0::operator()(geode::Task<geode::utils::web::WebResponse, geode::utils::web::WebProgress>::Event*) const::{lambda()#1}, std::__ndk1::allocator<CommentsPopup::onLoadComments(cocos2d::CCObject*)::$_0::operator()(geode::Task<geode::utils::web::WebResponse, geode::utils::web::WebProgress>::Event*) const::{lambda()#1}>, void ()>::target_type() const
FUNC 6cc6c 32 0 std::__ndk1::__variant_detail::__visitation::__base::__dispatcher<(unsigned int)0>::__dispatch[abi:ne180000]<std::__ndk1::__variant_detail::__dtor<std::__ndk1::__variant_detail::__traits<CommentData, std::__ndk1::basic_string<char, std::__ndk1::char_traits<char>, std::__ndk1::allocator<char> > >, (std::__ndk1::__variant_detail::_Trait)1>::__destroy[abi:ne180000]()::{lambda(auto:1&)#1}, std::__ndk1::__variant_detail::__base<(std::__ndk1::__variant_detail::__traits<CommentData, std::__ndk1::basic_string<char, std::__ndk1::char_traits<char>, std::__ndk1::allocator<char> > >)1, std::__ndk1::__variant_detail::__traits, std::__ndk1::allocator<char> >&>(std::__ndk1::__variant_detail::__dtor<std::__ndk1::__variant_detail::__traits<CommentData, std::__ndk1::basic_string<char, std::__ndk1::char_traits<char>, std::__ndk1::allocator<char> > >, (std::__ndk1::__variant_detail::_Trait)1>, std::__ndk1::__variant_detail::__base<(std::__ndk1::__variant_detail::__traits<CommentData, std::__ndk1::basic_string<char, std::__ndk1::char_traits<char>, std::__ndk1::allocator<char> > >)1, std::__ndk1::__variant_detail::__traits, std::__ndk1::allocator<char> >&)
FUNC 6cc9e e 0 std::__ndk1::__variant_detail::__visitation::__base::__dispatcher<(unsigned int)1>::__dispatch[abi:ne180000]<std::__ndk1::__variant_detail::__dtor<std::__ndk1::__variant_detail::__traits<CommentData, std::__ndk1::basic_string<char, std::__ndk1::char_traits<char>, std::__ndk1::allocator<char> > >, (std::__ndk1::__variant_detail::_Trait)1>::__destroy[abi:ne180000]()::{lambda(auto:1&)#1}, std::__ndk1::__variant_detail::__base<(std::__ndk1::__variant_detail::__traits<CommentData, std::__ndk1::basic_string<char, std::__ndk1::char_traits<char>, std::__ndk1::allocator<char> > >)1, std::__ndk1::__variant_detail::__traits, std::__ndk1::allocator<char> >&>(std::__ndk1::__variant_detail::__dtor<std::__ndk1::__variant_detail::__traits<CommentData, std::__ndk1::basic_string<char, std::__ndk1::char_traits<char>, std::__ndk1::allocator<char> > >, (std::__ndk1::__variant_detail::_Trait)1>, std::__ndk1::__variant_detail::__base<(std::__ndk1::__variant_detail::__traits<CommentData, std::__ndk1::basic_string<char, std::__ndk1::char_traits<char>, std::__ndk1::allocator<char> > >)1, std::__ndk1::__variant_detail::__traits, std::__ndk1::allocator<char> >&)
FUNC 6ccb0 ce0 0 EditPopup::setup(ObjectData, std::__ndk1::unordered_set<std::__ndk1::basic_string<char, std::__ndk1::char_traits<char>, std::__ndk1::allocator<char> >, std::__ndk1::hash<std::__ndk1::basic_string<char, std::__ndk1::char_traits<char>, std::__ndk1::allocator<char> > >, std::__ndk1::equal_to<std::__ndk1::basic_string<char, std::__ndk1::char_traits<char>, std::__ndk1::allocator<char> > >, std::__ndk1::allocator<std::__ndk1::basic_string<char, std::__ndk1::char_traits<char>, std::__ndk1::allocator<char> > > >, UserData)
FUNC 6d990 16c 0 EditPopup::updateDescObj(std::__ndk1::basic_string<char, std::__ndk1::char_traits<char>, std::__ndk1::allocator<char> >)
FUNC 6dafc 70c 0 EditPopup::onUpdateBtn(cocos2d::CCObject*)
FUNC 6e208 f4 0 EditPopup::onOverwriteBtn(cocos2d::CCObject*)
FUNC 6e2fc 1fc 0 EditPopup::~EditPopup()
FUNC 6e4f8 10 0 EditPopup::~EditPopup()
FUNC 6e508 20 0 geode::Popup<ObjectData, std::__ndk1::unordered_set<std::__ndk1::basic_string<char, std::__ndk1::char_traits<char>, std::__ndk1::allocator<char> >, std::__ndk1::hash<std::__ndk1::basic_string<char, std::__ndk1::char_traits<char>, std::__ndk1::allocator<char> > >, std::__ndk1::equal_to<std::__ndk1::basic_string<char, std::__ndk1::char_traits<char>, std::__ndk1::allocator<char> > >, std::__ndk1::allocator<std::__ndk1::basic_string<char, std::__ndk1::char_traits<char>, std::__ndk1::allocator<char> > > >, UserData>::registerWithTouchDispatcher()
FUNC 6e528 18 0 geode::Popup<ObjectData, std::__ndk1::unordered_set<std::__ndk1::basic_string<char, std::__ndk1::char_traits<char>, std::__ndk1::allocator<char> >, std::__ndk1::hash<std::__ndk1::basic_string<char, std::__ndk1::char_traits<char>, std::__ndk1::allocator<char> > >, std::__ndk1::equal_to<std::__ndk1::basic_string<char, std::__ndk1::char_traits<char>, std::__ndk1::allocator<char> > >, std::__ndk1::allocator<std::__ndk1::basic_string<char, std::__ndk1::char_traits<char>, std::__ndk1::allocator<char> > > >, UserData>::keyDown(cocos2d::enumKeyCodes)
FUNC 6e540 e 0 EditPopup::onClose(cocos2d::CCObject*)
FUNC 6e54e 8 0 {virtual override thunk({offset(-264)}, EditPopup::~EditPopup())}
FUNC 6e556 14 0 {virtual override thunk({offset(-264)}, EditPopup::~EditPopup())}
FUNC 6e56a 1c 0 {virtual override thunk({offset(-276)}, geode::Popup<ObjectData, std::__ndk1::unordered_set<std::__ndk1::basic_string<char, std::__ndk1::char_traits<char>, std::__ndk1::allocator<char> >, std::__ndk1::hash<std::__ndk1::basic_string<char, std::__ndk1::char_traits<char>, std::__ndk1::allocator<char> > >, std::__ndk1::equal_to<std::__ndk1::basic_string<char, std::__ndk1::char_traits<char>, std::__ndk1::allocator<char> > >, std::__ndk1::allocator<std::__ndk1::basic_string<char, std::__ndk1::char_traits<char>, std::__ndk1::allocator<char> > > >, UserData>::keyDown(cocos2d::enumKeyCodes))}
FUNC 6e588 5c 0 geode::Popup<ObjectData, std::__ndk1::unordered_set<std::__ndk1::basic_string<char, std::__ndk1::char_traits<char>, std::__ndk1::allocator<char> >, std::__ndk1::hash<std::__ndk1::basic_string<char, std::__ndk1::char_traits<char>, std::__ndk1::allocator<char> > >, std::__ndk1::equal_to<std::__ndk1::basic_string<char, std::__ndk1::char_traits<char>, std::__ndk1::allocator<char> > >, std::__ndk1::allocator<std::__ndk1::basic_string<char, std::__ndk1::char_traits<char>, std::__ndk1::allocator<char> > > >, UserData>::~Popup()
FUNC 6e5e4 2 0 geode::Popup<ObjectData, std::__ndk1::unordered_set<std::__ndk1::basic_string<char, std::__ndk1::char_traits<char>, std::__ndk1::allocator<char> >, std::__ndk1::hash<std::__ndk1::basic_string<char, std::__ndk1::char_traits<char>, std::__ndk1::allocator<char> > >, std::__ndk1::equal_to<std::__ndk1::basic_string<char, std::__ndk1::char_traits<char>, std::__ndk1::allocator<char> > >, std::__ndk1::allocator<std::__ndk1::basic_string<char, std::__ndk1::char_traits<char>, std::__ndk1::allocator<char> > > >, UserData>::~Popup()
FUNC 6e5e8 e4 0 geode::Popup<ObjectData, std::__ndk1::unordered_set<std::__ndk1::basic_string<char, std::__ndk1::char_traits<char>, std::__ndk1::allocator<char> >, std::__ndk1::hash<std::__ndk1::basic_string<char, std::__ndk1::char_traits<char>, std::__ndk1::allocator<char> > >, std::__ndk1::equal_to<std::__ndk1::basic_string<char, std::__ndk1::char_traits<char>, std::__ndk1::allocator<char> > >, std::__ndk1::allocator<std::__ndk1::basic_string<char, std::__ndk1::char_traits<char>, std::__ndk1::allocator<char> > > >, UserData>::onClose(cocos2d::CCObject*)
FUNC 6e6cc 60 0 {virtual override thunk({offset(-264)}, geode::Popup<ObjectData, std::__ndk1::unordered_set<std::__ndk1::basic_string<char, std::__ndk1::char_traits<char>, std::__ndk1::allocator<char> >, std::__ndk1::hash<std::__ndk1::basic_string<char, std::__ndk1::char_traits<char>, std::__ndk1::allocator<char> > >, std::__ndk1::equal_to<std::__ndk1::basic_string<char, std::__ndk1::char_traits<char>, std::__ndk1::allocator<char> > >, std::__ndk1::allocator<std::__ndk1::basic_string<char, std::__ndk1::char_traits<char>, std::__ndk1::allocator<char> > > >, UserData>::~Popup())}
FUNC 6e72c 2 0 {virtual override thunk({offset(-264)}, geode::Popup<ObjectData, std::__ndk1::unordered_set<std::__ndk1::basic_string<char, std::__ndk1::char_traits<char>, std::__ndk1::allocator<char> >, std::__ndk1::hash<std::__ndk1::basic_string<char, std::__ndk1::char_traits<char>, std::__ndk1::allocator<char> > >, std::__ndk1::equal_to<std::__ndk1::basic_string<char, std::__ndk1::char_traits<char>, std::__ndk1::allocator<char> > >, std::__ndk1::allocator<std::__ndk1::basic_string<char, std::__ndk1::char_traits<char>, std::__ndk1::allocator<char> > > >, UserData>::~Popup())}
FUNC 6e72e 44 0 geode::Popup<ObjectData, std::__ndk1::unordered_set<std::__ndk1::basic_string<char, std::__ndk1::char_traits<char>, std::__ndk1::allocator<char> >, std::__ndk1::hash<std::__ndk1::basic_string<char, std::__ndk1::char_traits<char>, std::__ndk1::allocator<char> > >, std::__ndk1::equal_to<std::__ndk1::basic_string<char, std::__ndk1::char_traits<char>, std::__ndk1::allocator<char> > >, std::__ndk1::allocator<std::__ndk1::basic_string<char, std::__ndk1::char_traits<char>, std::__ndk1::allocator<char> > > >, UserData>::CloseEvent::~CloseEvent()
FUNC 6e772 40 0 geode::Popup<ObjectData, std::__ndk1::unordered_set<std::__ndk1::basic_string<char, std::__ndk1::char_traits<char>, std::__ndk1::allocator<char> >, std::__ndk1::hash<std::__ndk1::basic_string<char, std::__ndk1::char_traits<char>, std::__ndk1::allocator<char> > >, std::__ndk1::equal_to<std::__ndk1::basic_string<char, std::__ndk1::char_traits<char>, std::__ndk1::allocator<char> > >, std::__ndk1::allocator<std::__ndk1::basic_string<char, std::__ndk1::char_traits<char>, std::__ndk1::allocator<char> > > >, UserData>::CloseEvent::~CloseEvent()
FUNC 6e7b4 10 0 std::__ndk1::__shared_ptr_emplace<geode::Popup<ObjectData, std::__ndk1::unordered_set<std::__ndk1::basic_string<char, std::__ndk1::char_traits<char>, std::__ndk1::allocator<char> >, std::__ndk1::hash<std::__ndk1::basic_string<char, std::__ndk1::char_traits<char>, std::__ndk1::allocator<char> > >, std::__ndk1::equal_to<std::__ndk1::basic_string<char, std::__ndk1::char_traits<char>, std::__ndk1::allocator<char> > >, std::__ndk1::allocator<std::__ndk1::basic_string<char, std::__ndk1::char_traits<char>, std::__ndk1::allocator<char> > > >, UserData>::CloseEvent::Impl, std::__ndk1::allocator<geode::Popup<ObjectData, std::__ndk1::unordered_set<std::__ndk1::basic_string<char, std::__ndk1::char_traits<char>, std::__ndk1::allocator<char> >, std::__ndk1::hash<std::__ndk1::basic_string<char, std::__ndk1::char_traits<char>, std::__ndk1::allocator<char> > >, std::__ndk1::equal_to<std::__ndk1::basic_string<char, std::__ndk1::char_traits<char>, std::__ndk1::allocator<char> > >, std::__ndk1::allocator<std::__ndk1::basic_string<char, std::__ndk1::char_traits<char>, std::__ndk1::allocator<char> > > >, UserData>::CloseEvent::Impl> >::~__shared_ptr_emplace()
FUNC 6e7c4 1c 0 std::__ndk1::__shared_ptr_emplace<geode::Popup<ObjectData, std::__ndk1::unordered_set<std::__ndk1::basic_string<char, std::__ndk1::char_traits<char>, std::__ndk1::allocator<char> >, std::__ndk1::hash<std::__ndk1::basic_string<char, std::__ndk1::char_traits<char>, std::__ndk1::allocator<char> > >, std::__ndk1::equal_to<std::__ndk1::basic_string<char, std::__ndk1::char_traits<char>, std::__ndk1::allocator<char> > >, std::__ndk1::allocator<std::__ndk1::basic_string<char, std::__ndk1::char_traits<char>, std::__ndk1::allocator<char> > > >, UserData>::CloseEvent::Impl, std::__ndk1::allocator<geode::Popup<ObjectData, std::__ndk1::unordered_set<std::__ndk1::basic_string<char, std::__ndk1::char_traits<char>, std::__ndk1::allocator<char> >, std::__ndk1::hash<std::__ndk1::basic_string<char, std::__ndk1::char_traits<char>, std::__ndk1::allocator<char> > >, std::__ndk1::equal_to<std::__ndk1::basic_string<char, std::__ndk1::char_traits<char>, std::__ndk1::allocator<char> > >, std::__ndk1::allocator<std::__ndk1::basic_string<char, std::__ndk1::char_traits<char>, std::__ndk1::allocator<char> > > >, UserData>::CloseEvent::Impl> >::~__shared_ptr_emplace()
FUNC 6e7e0 2 0 std::__ndk1::__shared_ptr_emplace<geode::Popup<ObjectData, std::__ndk1::unordered_set<std::__ndk1::basic_string<char, std::__ndk1::char_traits<char>, std::__ndk1::allocator<char> >, std::__ndk1::hash<std::__ndk1::basic_string<char, std::__ndk1::char_traits<char>, std::__ndk1::allocator<char> > >, std::__ndk1::equal_to<std::__ndk1::basic_string<char, std::__ndk1::char_traits<char>, std::__ndk1::allocator<char> > >, std::__ndk1::allocator<std::__ndk1::basic_string<char, std::__ndk1::char_traits<char>, std::__ndk1::allocator<char> > > >, UserData>::CloseEvent::Impl, std::__ndk1::allocator<geode::Popup<ObjectData, std::__ndk1::unordered_set<std::__ndk1::basic_string<char, std::__ndk1::char_traits<char>, std::__ndk1::allocator<char> >, std::__ndk1::hash<std::__ndk1::basic_string<char, std::__ndk1::char_traits<char>, std::__ndk1::allocator<char> > >, std::__ndk1::equal_to<std::__ndk1::basic_string<char, std::__ndk1::char_traits<char>, std::__ndk1::allocator<char> > >, std::__ndk1::allocator<std::__ndk1::basic_string<char, std::__ndk1::char_traits<char>, std::__ndk1::allocator<char> > > >, UserData>::CloseEvent::Impl> >::__on_zero_shared()
FUNC 6e7e2 4 0 std::__ndk1::__shared_ptr_emplace<geode::Popup<ObjectData, std::__ndk1::unordered_set<std::__ndk1::basic_string<char, std::__ndk1::char_traits<char>, std::__ndk1::allocator<char> >, std::__ndk1::hash<std::__ndk1::basic_string<char, std::__ndk1::char_traits<char>, std::__ndk1::allocator<char> > >, std::__ndk1::equal_to<std::__ndk1::basic_string<char, std::__ndk1::char_traits<char>, std::__ndk1::allocator<char> > >, std::__ndk1::allocator<std::__ndk1::basic_string<char, std::__ndk1::char_traits<char>, std::__ndk1::allocator<char> > > >, UserData>::CloseEvent::Impl, std::__ndk1::allocator<geode::Popup<ObjectData, std::__ndk1::unordered_set<std::__ndk1::basic_string<char, std::__ndk1::char_traits<char>, std::__ndk1::allocator<char> >, std::__ndk1::hash<std::__ndk1::basic_string<char, std::__ndk1::char_traits<char>, std::__ndk1::allocator<char> > >, std::__ndk1::equal_to<std::__ndk1::basic_string<char, std::__ndk1::char_traits<char>, std::__ndk1::allocator<char> > >, std::__ndk1::allocator<std::__ndk1::basic_string<char, std::__ndk1::char_traits<char>, std::__ndk1::allocator<char> > > >, UserData>::CloseEvent::Impl> >::__on_zero_shared_weak()
FUNC 6e7e6 4 0 std::__ndk1::__function::__func<EditPopup::setup(ObjectData, std::__ndk1::unordered_set<std::__ndk1::basic_string<char, std::__ndk1::char_traits<char>, std::__ndk1::allocator<char> >, std::__ndk1::hash<std::__ndk1::basic_string<char, std::__ndk1::char_traits<char>, std::__ndk1::allocator<char> > >, std::__ndk1::equal_to<std::__ndk1::basic_string<char, std::__ndk1::char_traits<char>, std::__ndk1::allocator<char> > >, std::__ndk1::allocator<std::__ndk1::basic_string<char, std::__ndk1::char_traits<char>, std::__ndk1::allocator<char> > > >, UserData)::$_0, std::__ndk1::allocator<EditPopup::setup(ObjectData, std::__ndk1::unordered_set<std::__ndk1::basic_string<char, std::__ndk1::char_traits<char>, std::__ndk1::allocator<char> >, std::__ndk1::hash<std::__ndk1::basic_string<char, std::__ndk1::char_traits<char>, std::__ndk1::allocator<char> > >, std::__ndk1::equal_to<std::__ndk1::basic_string<char, std::__ndk1::char_traits<char>, std::__ndk1::allocator<char> > >, std::__ndk1::allocator<std::__ndk1::basic_string<char, std::__ndk1::char_traits<char>, std::__ndk1::allocator<char> > > >, UserData)::$_0>, void (std::__ndk1::basic_string<char, std::__ndk1::char_traits<char>, std::__ndk1::allocator<char> >)>::~__func()
FUNC 6e7ec 20 0 std::__ndk1::__function::__func<EditPopup::setup(ObjectData, std::__ndk1::unordered_set<std::__ndk1::basic_string<char, std::__ndk1::char_traits<char>, std::__ndk1::allocator<char> >, std::__ndk1::hash<std::__ndk1::basic_string<char, std::__ndk1::char_traits<char>, std::__ndk1::allocator<char> > >, std::__ndk1::equal_to<std::__ndk1::basic_string<char, std::__ndk1::char_traits<char>, std::__ndk1::allocator<char> > >, std::__ndk1::allocator<std::__ndk1::basic_string<char, std::__ndk1::char_traits<char>, std::__ndk1::allocator<char> > > >, UserData)::$_0, std::__ndk1::allocator<EditPopup::setup(ObjectData, std::__ndk1::unordered_set<std::__ndk1::basic_string<char, std::__ndk1::char_traits<char>, std::__ndk1::allocator<char> >, std::__ndk1::hash<std::__ndk1::basic_string<char, std::__ndk1::char_traits<char>, std::__ndk1::allocator<char> > >, std::__ndk1::equal_to<std::__ndk1::basic_string<char, std::__ndk1::char_traits<char>, std::__ndk1::allocator<char> > >, std::__ndk1::allocator<std::__ndk1::basic_string<char, std::__ndk1::char_traits<char>, std::__ndk1::allocator<char> > > >, UserData)::$_0>, void (std::__ndk1::basic_string<char, std::__ndk1::char_traits<char>, std::__ndk1::allocator<char> >)>::__clone() const
FUNC 6e80c 14 0 std::__ndk1::__function::__func<EditPopup::setup(ObjectData, std::__ndk1::unordered_set<std::__ndk1::basic_string<char, std::__ndk1::char_traits<char>, std::__ndk1::allocator<char> >, std::__ndk1::hash<std::__ndk1::basic_string<char, std::__ndk1::char_traits<char>, std::__ndk1::allocator<char> > >, std::__ndk1::equal_to<std::__ndk1::basic_string<char, std::__ndk1::char_traits<char>, std::__ndk1::allocator<char> > >, std::__ndk1::allocator<std::__ndk1::basic_string<char, std::__ndk1::char_traits<char>, std::__ndk1::allocator<char> > > >, UserData)::$_0, std::__ndk1::allocator<EditPopup::setup(ObjectData, std::__ndk1::unordered_set<std::__ndk1::basic_string<char, std::__ndk1::char_traits<char>, std::__ndk1::allocator<char> >, std::__ndk1::hash<std::__ndk1::basic_string<char, std::__ndk1::char_traits<char>, std::__ndk1::allocator<char> > >, std::__ndk1::equal_to<std::__ndk1::basic_string<char, std::__ndk1::char_traits<char>, std::__ndk1::allocator<char> > >, std::__ndk1::allocator<std::__ndk1::basic_string<char, std::__ndk1::char_traits<char>, std::__ndk1::allocator<char> > > >, UserData)::$_0>, void (std::__ndk1::basic_string<char, std::__ndk1::char_traits<char>, std::__ndk1::allocator<char> >)>::__clone(std::__ndk1::__function::__base<void (std::__ndk1::basic_string<char, std::__ndk1::char_traits<char>, std::__ndk1::allocator<char> >)>*) const
FUNC 6e820 2 0 std::__ndk1::__function::__func<EditPopup::setup(ObjectData, std::__ndk1::unordered_set<std::__ndk1::basic_string<char, std::__ndk1::char_traits<char>, std::__ndk1::allocator<char> >, std::__ndk1::hash<std::__ndk1::basic_string<char, std::__ndk1::char_traits<char>, std::__ndk1::allocator<char> > >, std::__ndk1::equal_to<std::__ndk1::basic_string<char, std::__ndk1::char_traits<char>, std::__ndk1::allocator<char> > >, std::__ndk1::allocator<std::__ndk1::basic_string<char, std::__ndk1::char_traits<char>, std::__ndk1::allocator<char> > > >, UserData)::$_0, std::__ndk1::allocator<EditPopup::setup(ObjectData, std::__ndk1::unordered_set<std::__ndk1::basic_string<char, std::__ndk1::char_traits<char>, std::__ndk1::allocator<char> >, std::__ndk1::hash<std::__ndk1::basic_string<char, std::__ndk1::char_traits<char>, std::__ndk1::allocator<char> > >, std::__ndk1::equal_to<std::__ndk1::basic_string<char, std::__ndk1::char_traits<char>, std::__ndk1::allocator<char> > >, std::__ndk1::allocator<std::__ndk1::basic_string<char, std::__ndk1::char_traits<char>, std::__ndk1::allocator<char> > > >, UserData)::$_0>, void (std::__ndk1::basic_string<char, std::__ndk1::char_traits<char>, std::__ndk1::allocator<char> >)>::destroy()
FUNC 6e822 4 0 std::__ndk1::__function::__func<EditPopup::setup(ObjectData, std::__ndk1::unordered_set<std::__ndk1::basic_string<char, std::__ndk1::char_traits<char>, std::__ndk1::allocator<char> >, std::__ndk1::hash<std::__ndk1::basic_string<char, std::__ndk1::char_traits<char>, std::__ndk1::allocator<char> > >, std::__ndk1::equal_to<std::__ndk1::basic_string<char, std::__ndk1::char_traits<char>, std::__ndk1::allocator<char> > >, std::__ndk1::allocator<std::__ndk1::basic_string<char, std::__ndk1::char_traits<char>, std::__ndk1::allocator<char> > > >, UserData)::$_0, std::__ndk1::allocator<EditPopup::setup(ObjectData, std::__ndk1::unordered_set<std::__ndk1::basic_string<char, std::__ndk1::char_traits<char>, std::__ndk1::allocator<char> >, std::__ndk1::hash<std::__ndk1::basic_string<char, std::__ndk1::char_traits<char>, std::__ndk1::allocator<char> > >, std::__ndk1::equal_to<std::__ndk1::basic_string<char, std::__ndk1::char_traits<char>, std::__ndk1::allocator<char> > >, std::__ndk1::allocator<std::__ndk1::basic_string<char, std::__ndk1::char_traits<char>, std::__ndk1::allocator<char> > > >, UserData)::$_0>, void (std::__ndk1::basic_string<char, std::__ndk1::char_traits<char>, std::__ndk1::allocator<char> >)>::destroy_deallocate()
FUNC 6e828 b8 0 std::__ndk1::__function::__func<EditPopup::setup(ObjectData, std::__ndk1::unordered_set<std::__ndk1::basic_string<char, std::__ndk1::char_traits<char>, std::__ndk1::allocator<char> >, std::__ndk1::hash<std::__ndk1::basic_string<char, std::__ndk1::char_traits<char>, std::__ndk1::allocator<char> > >, std::__ndk1::equal_to<std::__ndk1::basic_string<char, std::__ndk1::char_traits<char>, std::__ndk1::allocator<char> > >, std::__ndk1::allocator<std::__ndk1::basic_string<char, std::__ndk1::char_traits<char>, std::__ndk1::allocator<char> > > >, UserData)::$_0, std::__ndk1::allocator<EditPopup::setup(ObjectData, std::__ndk1::unordered_set<std::__ndk1::basic_string<char, std::__ndk1::char_traits<char>, std::__ndk1::allocator<char> >, std::__ndk1::hash<std::__ndk1::basic_string<char, std::__ndk1::char_traits<char>, std::__ndk1::allocator<char> > >, std::__ndk1::equal_to<std::__ndk1::basic_string<char, std::__ndk1::char_traits<char>, std::__ndk1::allocator<char> > >, std::__ndk1::allocator<std::__ndk1::basic_string<char, std::__ndk1::char_traits<char>, std::__ndk1::allocator<char> > > >, UserData)::$_0>, void (std::__ndk1::basic_string<char, std::__ndk1::char_traits<char>, std::__ndk1::allocator<char> >)>::operator()(std::__ndk1::basic_string<char, std::__ndk1::char_traits<char>, std::__ndk1::allocator<char> >&&)
FUNC 6e8e0 18 0 std::__ndk1::__function::__func<EditPopup::setup(ObjectData, std::__ndk1::unordered_set<std::__ndk1::basic_string<char, std::__ndk1::char_traits<char>, std::__ndk1::allocator<char> >, std::__ndk1::hash<std::__ndk1::basic_string<char, std::__ndk1::char_traits<char>, std::__ndk1::allocator<char> > >, std::__ndk1::equal_to<std::__ndk1::basic_string<char, std::__ndk1::char_traits<char>, std::__ndk1::allocator<char> > >, std::__ndk1::allocator<std::__ndk1::basic_string<char, std::__ndk1::char_traits<char>, std::__ndk1::allocator<char> > > >, UserData)::$_0, std::__ndk1::allocator<EditPopup::setup(ObjectData, std::__ndk1::unordered_set<std::__ndk1::basic_string<char, std::__ndk1::char_traits<char>, std::__ndk1::allocator<char> >, std::__ndk1::hash<std::__ndk1::basic_string<char, std::__ndk1::char_traits<char>, std::__ndk1::allocator<char> > >, std::__ndk1::equal_to<std::__ndk1::basic_string<char, std::__ndk1::char_traits<char>, std::__ndk1::allocator<char> > >, std::__ndk1::allocator<std::__ndk1::basic_string<char, std::__ndk1::char_traits<char>, std::__ndk1::allocator<char> > > >, UserData)::$_0>, void (std::__ndk1::basic_string<char, std::__ndk1::char_traits<char>, std::__ndk1::allocator<char> >)>::target(std::type_info const&) const
FUNC 6e8f8 c 0 std::__ndk1::__function::__func<EditPopup::setup(ObjectData, std::__ndk1::unordered_set<std::__ndk1::basic_string<char, std::__ndk1::char_traits<char>, std::__ndk1::allocator<char> >, std::__ndk1::hash<std::__ndk1::basic_string<char, std::__ndk1::char_traits<char>, std::__ndk1::allocator<char> > >, std::__ndk1::equal_to<std::__ndk1::basic_string<char, std::__ndk1::char_traits<char>, std::__ndk1::allocator<char> > >, std::__ndk1::allocator<std::__ndk1::basic_string<char, std::__ndk1::char_traits<char>, std::__ndk1::allocator<char> > > >, UserData)::$_0, std::__ndk1::allocator<EditPopup::setup(ObjectData, std::__ndk1::unordered_set<std::__ndk1::basic_string<char, std::__ndk1::char_traits<char>, std::__ndk1::allocator<char> >, std::__ndk1::hash<std::__ndk1::basic_string<char, std::__ndk1::char_traits<char>, std::__ndk1::allocator<char> > >, std::__ndk1::equal_to<std::__ndk1::basic_string<char, std::__ndk1::char_traits<char>, std::__ndk1::allocator<char> > >, std::__ndk1::allocator<std::__ndk1::basic_string<char, std::__ndk1::char_traits<char>, std::__ndk1::allocator<char> > > >, UserData)::$_0>, void (std::__ndk1::basic_string<char, std::__ndk1::char_traits<char>, std::__ndk1::allocator<char> >)>::target_type() const
FUNC 6e904 4 0 std::__ndk1::__function::__func<EditPopup::setup(ObjectData, std::__ndk1::unordered_set<std::__ndk1::basic_string<char, std::__ndk1::char_traits<char>, std::__ndk1::allocator<char> >, std::__ndk1::hash<std::__ndk1::basic_string<char, std::__ndk1::char_traits<char>, std::__ndk1::allocator<char> > >, std::__ndk1::equal_to<std::__ndk1::basic_string<char, std::__ndk1::char_traits<char>, std::__ndk1::allocator<char> > >, std::__ndk1::allocator<std::__ndk1::basic_string<char, std::__ndk1::char_traits<char>, std::__ndk1::allocator<char> > > >, UserData)::$_1, std::__ndk1::allocator<EditPopup::setup(ObjectData, std::__ndk1::unordered_set<std::__ndk1::basic_string<char, std::__ndk1::char_traits<char>, std::__ndk1::allocator<char> >, std::__ndk1::hash<std::__ndk1::basic_string<char, std::__ndk1::char_traits<char>, std::__ndk1::allocator<char> > >, std::__ndk1::equal_to<std::__ndk1::basic_string<char, std::__ndk1::char_traits<char>, std::__ndk1::allocator<char> > >, std::__ndk1::allocator<std::__ndk1::basic_string<char, std::__ndk1::char_traits<char>, std::__ndk1::allocator<char> > > >, UserData)::$_1>, void (CCMenuItemSpriteExtra*)>::~__func()
FUNC 6e908 20 0 std::__ndk1::__function::__func<EditPopup::setup(ObjectData, std::__ndk1::unordered_set<std::__ndk1::basic_string<char, std::__ndk1::char_traits<char>, std::__ndk1::allocator<char> >, std::__ndk1::hash<std::__ndk1::basic_string<char, std::__ndk1::char_traits<char>, std::__ndk1::allocator<char> > >, std::__ndk1::equal_to<std::__ndk1::basic_string<char, std::__ndk1::char_traits<char>, std::__ndk1::allocator<char> > >, std::__ndk1::allocator<std::__ndk1::basic_string<char, std::__ndk1::char_traits<char>, std::__ndk1::allocator<char> > > >, UserData)::$_1, std::__ndk1::allocator<EditPopup::setup(ObjectData, std::__ndk1::unordered_set<std::__ndk1::basic_string<char, std::__ndk1::char_traits<char>, std::__ndk1::allocator<char> >, std::__ndk1::hash<std::__ndk1::basic_string<char, std::__ndk1::char_traits<char>, std::__ndk1::allocator<char> > >, std::__ndk1::equal_to<std::__ndk1::basic_string<char, std::__ndk1::char_traits<char>, std::__ndk1::allocator<char> > >, std::__ndk1::allocator<std::__ndk1::basic_string<char, std::__ndk1::char_traits<char>, std::__ndk1::allocator<char> > > >, UserData)::$_1>, void (CCMenuItemSpriteExtra*)>::__clone() const
FUNC 6e928 14 0 std::__ndk1::__function::__func<EditPopup::setup(ObjectData, std::__ndk1::unordered_set<std::__ndk1::basic_string<char, std::__ndk1::char_traits<char>, std::__ndk1::allocator<char> >, std::__ndk1::hash<std::__ndk1::basic_string<char, std::__ndk1::char_traits<char>, std::__ndk1::allocator<char> > >, std::__ndk1::equal_to<std::__ndk1::basic_string<char, std::__ndk1::char_traits<char>, std::__ndk1::allocator<char> > >, std::__ndk1::allocator<std::__ndk1::basic_string<char, std::__ndk1::char_traits<char>, std::__ndk1::allocator<char> > > >, UserData)::$_1, std::__ndk1::allocator<EditPopup::setup(ObjectData, std::__ndk1::unordered_set<std::__ndk1::basic_string<char, std::__ndk1::char_traits<char>, std::__ndk1::allocator<char> >, std::__ndk1::hash<std::__ndk1::basic_string<char, std::__ndk1::char_traits<char>, std::__ndk1::allocator<char> > >, std::__ndk1::equal_to<std::__ndk1::basic_string<char, std::__ndk1::char_traits<char>, std::__ndk1::allocator<char> > >, std::__ndk1::allocator<std::__ndk1::basic_string<char, std::__ndk1::char_traits<char>, std::__ndk1::allocator<char> > > >, UserData)::$_1>, void (CCMenuItemSpriteExtra*)>::__clone(std::__ndk1::__function::__base<void (CCMenuItemSpriteExtra*)>*) const
FUNC 6e93c 2 0 std::__ndk1::__function::__func<EditPopup::setup(ObjectData, std::__ndk1::unordered_set<std::__ndk1::basic_string<char, std::__ndk1::char_traits<char>, std::__ndk1::allocator<char> >, std::__ndk1::hash<std::__ndk1::basic_string<char, std::__ndk1::char_traits<char>, std::__ndk1::allocator<char> > >, std::__ndk1::equal_to<std::__ndk1::basic_string<char, std::__ndk1::char_traits<char>, std::__ndk1::allocator<char> > >, std::__ndk1::allocator<std::__ndk1::basic_string<char, std::__ndk1::char_traits<char>, std::__ndk1::allocator<char> > > >, UserData)::$_1, std::__ndk1::allocator<EditPopup::setup(ObjectData, std::__ndk1::unordered_set<std::__ndk1::basic_string<char, std::__ndk1::char_traits<char>, std::__ndk1::allocator<char> >, std::__ndk1::hash<std::__ndk1::basic_string<char, std::__ndk1::char_traits<char>, std::__ndk1::allocator<char> > >, std::__ndk1::equal_to<std::__ndk1::basic_string<char, std::__ndk1::char_traits<char>, std::__ndk1::allocator<char> > >, std::__ndk1::allocator<std::__ndk1::basic_string<char, std::__ndk1::char_traits<char>, std::__ndk1::allocator<char> > > >, UserData)::$_1>, void (CCMenuItemSpriteExtra*)>::destroy()
FUNC 6e93e 4 0 std::__ndk1::__function::__func<EditPopup::setup(ObjectData, std::__ndk1::unordered_set<std::__ndk1::basic_string<char, std::__ndk1::char_traits<char>, std::__ndk1::allocator<char> >, std::__ndk1::hash<std::__ndk1::basic_string<char, std::__ndk1::char_traits<char>, std::__ndk1::allocator<char> > >, std::__ndk1::equal_to<std::__ndk1::basic_string<char, std::__ndk1::char_traits<char>, std::__ndk1::allocator<char> > >, std::__ndk1::allocator<std::__ndk1::basic_string<char, std::__ndk1::char_traits<char>, std::__ndk1::allocator<char> > > >, UserData)::$_1, std::__ndk1::allocator<EditPopup::setup(ObjectData, std::__ndk1::unordered_set<std::__ndk1::basic_string<char, std::__ndk1::char_traits<char>, std::__ndk1::allocator<char> >, std::__ndk1::hash<std::__ndk1::basic_string<char, std::__ndk1::char_traits<char>, std::__ndk1::allocator<char> > >, std::__ndk1::equal_to<std::__ndk1::basic_string<char, std::__ndk1::char_traits<char>, std::__ndk1::allocator<char> > >, std::__ndk1::allocator<std::__ndk1::basic_string<char, std::__ndk1::char_traits<char>, std::__ndk1::allocator<char> > > >, UserData)::$_1>, void (CCMenuItemSpriteExtra*)>::destroy_deallocate()
FUNC 6e944 108 0 std::__ndk1::__function::__func<EditPopup::setup(ObjectData, std::__ndk1::unordered_set<std::__ndk1::basic_string<char, std::__ndk1::char_traits<char>, std::__ndk1::allocator<char> >, std::__ndk1::hash<std::__ndk1::basic_string<char, std::__ndk1::char_traits<char>, std::__ndk1::allocator<char> > >, std::__ndk1::equal_to<std::__ndk1::basic_string<char, std::__ndk1::char_traits<char>, std::__ndk1::allocator<char> > >, std::__ndk1::allocator<std::__ndk1::basic_string<char, std::__ndk1::char_traits<char>, std::__ndk1::allocator<char> > > >, UserData)::$_1, std::__ndk1::allocator<EditPopup::setup(ObjectData, std::__ndk1::unordered_set<std::__ndk1::basic_string<char, std::__ndk1::char_traits<char>, std::__ndk1::allocator<char> >, std::__ndk1::hash<std::__ndk1::basic_string<char, std::__ndk1::char_traits<char>, std::__ndk1::allocator<char> > >, std::__ndk1::equal_to<std::__ndk1::basic_string<char, std::__ndk1::char_traits<char>, std::__ndk1::allocator<char> > >, std::__ndk1::allocator<std::__ndk1::basic_string<char, std::__ndk1::char_traits<char>, std::__ndk1::allocator<char> > > >, UserData)::$_1>, void (CCMenuItemSpriteExtra*)>::operator()(CCMenuItemSpriteExtra*&&)
FUNC 6ea4c 18 0 std::__ndk1::__function::__func<EditPopup::setup(ObjectData, std::__ndk1::unordered_set<std::__ndk1::basic_string<char, std::__ndk1::char_traits<char>, std::__ndk1::allocator<char> >, std::__ndk1::hash<std::__ndk1::basic_string<char, std::__ndk1::char_traits<char>, std::__ndk1::allocator<char> > >, std::__ndk1::equal_to<std::__ndk1::basic_string<char, std::__ndk1::char_traits<char>, std::__ndk1::allocator<char> > >, std::__ndk1::allocator<std::__ndk1::basic_string<char, std::__ndk1::char_traits<char>, std::__ndk1::allocator<char> > > >, UserData)::$_1, std::__ndk1::allocator<EditPopup::setup(ObjectData, std::__ndk1::unordered_set<std::__ndk1::basic_string<char, std::__ndk1::char_traits<char>, std::__ndk1::allocator<char> >, std::__ndk1::hash<std::__ndk1::basic_string<char, std::__ndk1::char_traits<char>, std::__ndk1::allocator<char> > >, std::__ndk1::equal_to<std::__ndk1::basic_string<char, std::__ndk1::char_traits<char>, std::__ndk1::allocator<char> > >, std::__ndk1::allocator<std::__ndk1::basic_string<char, std::__ndk1::char_traits<char>, std::__ndk1::allocator<char> > > >, UserData)::$_1>, void (CCMenuItemSpriteExtra*)>::target(std::type_info const&) const
FUNC 6ea64 c 0 std::__ndk1::__function::__func<EditPopup::setup(ObjectData, std::__ndk1::unordered_set<std::__ndk1::basic_string<char, std::__ndk1::char_traits<char>, std::__ndk1::allocator<char> >, std::__ndk1::hash<std::__ndk1::basic_string<char, std::__ndk1::char_traits<char>, std::__ndk1::allocator<char> > >, std::__ndk1::equal_to<std::__ndk1::basic_string<char, std::__ndk1::char_traits<char>, std::__ndk1::allocator<char> > >, std::__ndk1::allocator<std::__ndk1::basic_string<char, std::__ndk1::char_traits<char>, std::__ndk1::allocator<char> > > >, UserData)::$_1, std::__ndk1::allocator<EditPopup::setup(ObjectData, std::__ndk1::unordered_set<std::__ndk1::basic_string<char, std::__ndk1::char_traits<char>, std::__ndk1::allocator<char> >, std::__ndk1::hash<std::__ndk1::basic_string<char, std::__ndk1::char_traits<char>, std::__ndk1::allocator<char> > >, std::__ndk1::equal_to<std::__ndk1::basic_string<char, std::__ndk1::char_traits<char>, std::__ndk1::allocator<char> > >, std::__ndk1::allocator<std::__ndk1::basic_string<char, std::__ndk1::char_traits<char>, std::__ndk1::allocator<char> > > >, UserData)::$_1>, void (CCMenuItemSpriteExtra*)>::target_type() const
FUNC 6ea70 4 0 std::__ndk1::__function::__func<EditPopup::setup(ObjectData, std::__ndk1::unordered_set<std::__ndk1::basic_string<char, std::__ndk1::char_traits<char>, std::__ndk1::allocator<char> >, std::__ndk1::hash<std::__ndk1::basic_string<char, std::__ndk1::char_traits<char>, std::__ndk1::allocator<char> > >, std::__ndk1::equal_to<std::__ndk1::basic_string<char, std::__ndk1::char_traits<char>, std::__ndk1::allocator<char> > >, std::__ndk1::allocator<std::__ndk1::basic_string<char, std::__ndk1::char_traits<char>, std::__ndk1::allocator<char> > > >, UserData)::$_1::operator()(cocos2d::CCObject*) const::{lambda(std::__ndk1::unordered_set<std::__ndk1::basic_string<char, std::__ndk1::char_traits<char>, std::__ndk1::allocator<char> >, std::__ndk1::hash<std::__ndk1::basic_string<char, std::__ndk1::char_traits<char>, std::__ndk1::allocator<char> > >, std::__ndk1::equal_to<std::__ndk1::basic_string<char, std::__ndk1::char_traits<char>, std::__ndk1::allocator<char> > >, std::__ndk1::allocator<std::__ndk1::basic_string<char, std::__ndk1::char_traits<char>, std::__ndk1::allocator<char> > > >)#1}, std::__ndk1::allocator<EditPopup::setup(ObjectData, std::__ndk1::unordered_set<std::__ndk1::basic_string<char, std::__ndk1::char_traits<char>, std::__ndk1::allocator<char> >, std::__ndk1::hash<std::__ndk1::basic_string<char, std::__ndk1::char_traits<char>, std::__ndk1::allocator<char> > >, std::__ndk1::equal_to<std::__ndk1::basic_string<char, std::__ndk1::char_traits<char>, std::__ndk1::allocator<char> > >, std::__ndk1::allocator<std::__ndk1::basic_string<char, std::__ndk1::char_traits<char>, std::__ndk1::allocator<char> > > >, UserData)::$_1::operator()(cocos2d::CCObject*) const::{lambda(std::__ndk1::unordered_set<std::__ndk1::basic_string<char, std::__ndk1::char_traits<char>, std::__ndk1::allocator<char> >, std::__ndk1::hash<std::__ndk1::basic_string<char, std::__ndk1::char_traits<char>, std::__ndk1::allocator<char> > >, std::__ndk1::equal_to<std::__ndk1::basic_string<char, std::__ndk1::char_traits<char>, std::__ndk1::allocator<char> > >, std::__ndk1::allocator<std::__ndk1::basic_string<char, std::__ndk1::char_traits<char>, std::__ndk1::allocator<char> > > >)#1}>, void (std::__ndk1::unordered_set<std::__ndk1::basic_string<char, std::__ndk1::char_traits<char>, std::__ndk1::allocator<char> >, std::__ndk1::hash<std::__ndk1::basic_string<char, std::__ndk1::char_traits<char>, std::__ndk1::allocator<char> > >, std::__ndk1::equal_to<std::__ndk1::basic_string<char, std::__ndk1::char_traits<char>, std::__ndk1::allocator<char> > >, std::__ndk1::allocator<std::__ndk1::basic_string<char, std::__ndk1::char_traits<char>, std::__ndk1::allocator<char> > > >)>::~__func()
FUNC 6ea74 20 0 std::__ndk1::__function::__func<EditPopup::setup(ObjectData, std::__ndk1::unordered_set<std::__ndk1::basic_string<char, std::__ndk1::char_traits<char>, std::__ndk1::allocator<char> >, std::__ndk1::hash<std::__ndk1::basic_string<char, std::__ndk1::char_traits<char>, std::__ndk1::allocator<char> > >, std::__ndk1::equal_to<std::__ndk1::basic_string<char, std::__ndk1::char_traits<char>, std::__ndk1::allocator<char> > >, std::__ndk1::allocator<std::__ndk1::basic_string<char, std::__ndk1::char_traits<char>, std::__ndk1::allocator<char> > > >, UserData)::$_1::operator()(cocos2d::CCObject*) const::{lambda(std::__ndk1::unordered_set<std::__ndk1::basic_string<char, std::__ndk1::char_traits<char>, std::__ndk1::allocator<char> >, std::__ndk1::hash<std::__ndk1::basic_string<char, std::__ndk1::char_traits<char>, std::__ndk1::allocator<char> > >, std::__ndk1::equal_to<std::__ndk1::basic_string<char, std::__ndk1::char_traits<char>, std::__ndk1::allocator<char> > >, std::__ndk1::allocator<std::__ndk1::basic_string<char, std::__ndk1::char_traits<char>, std::__ndk1::allocator<char> > > >)#1}, std::__ndk1::allocator<EditPopup::setup(ObjectData, std::__ndk1::unordered_set<std::__ndk1::basic_string<char, std::__ndk1::char_traits<char>, std::__ndk1::allocator<char> >, std::__ndk1::hash<std::__ndk1::basic_string<char, std::__ndk1::char_traits<char>, std::__ndk1::allocator<char> > >, std::__ndk1::equal_to<std::__ndk1::basic_string<char, std::__ndk1::char_traits<char>, std::__ndk1::allocator<char> > >, std::__ndk1::allocator<std::__ndk1::basic_string<char, std::__ndk1::char_traits<char>, std::__ndk1::allocator<char> > > >, UserData)::$_1::operator()(cocos2d::CCObject*) const::{lambda(std::__ndk1::unordered_set<std::__ndk1::basic_string<char, std::__ndk1::char_traits<char>, std::__ndk1::allocator<char> >, std::__ndk1::hash<std::__ndk1::basic_string<char, std::__ndk1::char_traits<char>, std::__ndk1::allocator<char> > >, std::__ndk1::equal_to<std::__ndk1::basic_string<char, std::__ndk1::char_traits<char>, std::__ndk1::allocator<char> > >, std::__ndk1::allocator<std::__ndk1::basic_string<char, std::__ndk1::char_traits<char>, std::__ndk1::allocator<char> > > >)#1}>, void (std::__ndk1::unordered_set<std::__ndk1::basic_string<char, std::__ndk1::char_traits<char>, std::__ndk1::allocator<char> >, std::__ndk1::hash<std::__ndk1::basic_string<char, std::__ndk1::char_traits<char>, std::__ndk1::allocator<char> > >, std::__ndk1::equal_to<std::__ndk1::basic_string<char, std::__ndk1::char_traits<char>, std::__ndk1::allocator<char> > >, std::__ndk1::allocator<std::__ndk1::basic_string<char, std::__ndk1::char_traits<char>, std::__ndk1::allocator<char> > > >)>::__clone() const
FUNC 6ea94 14 0 std::__ndk1::__function::__func<EditPopup::setup(ObjectData, std::__ndk1::unordered_set<std::__ndk1::basic_string<char, std::__ndk1::char_traits<char>, std::__ndk1::allocator<char> >, std::__ndk1::hash<std::__ndk1::basic_string<char, std::__ndk1::char_traits<char>, std::__ndk1::allocator<char> > >, std::__ndk1::equal_to<std::__ndk1::basic_string<char, std::__ndk1::char_traits<char>, std::__ndk1::allocator<char> > >, std::__ndk1::allocator<std::__ndk1::basic_string<char, std::__ndk1::char_traits<char>, std::__ndk1::allocator<char> > > >, UserData)::$_1::operator()(cocos2d::CCObject*) const::{lambda(std::__ndk1::unordered_set<std::__ndk1::basic_string<char, std::__ndk1::char_traits<char>, std::__ndk1::allocator<char> >, std::__ndk1::hash<std::__ndk1::basic_string<char, std::__ndk1::char_traits<char>, std::__ndk1::allocator<char> > >, std::__ndk1::equal_to<std::__ndk1::basic_string<char, std::__ndk1::char_traits<char>, std::__ndk1::allocator<char> > >, std::__ndk1::allocator<std::__ndk1::basic_string<char, std::__ndk1::char_traits<char>, std::__ndk1::allocator<char> > > >)#1}, std::__ndk1::allocator<EditPopup::setup(ObjectData, std::__ndk1::unordered_set<std::__ndk1::basic_string<char, std::__ndk1::char_traits<char>, std::__ndk1::allocator<char> >, std::__ndk1::hash<std::__ndk1::basic_string<char, std::__ndk1::char_traits<char>, std::__ndk1::allocator<char> > >, std::__ndk1::equal_to<std::__ndk1::basic_string<char, std::__ndk1::char_traits<char>, std::__ndk1::allocator<char> > >, std::__ndk1::allocator<std::__ndk1::basic_string<char, std::__ndk1::char_traits<char>, std::__ndk1::allocator<char> > > >, UserData)::$_1::operator()(cocos2d::CCObject*) const::{lambda(std::__ndk1::unordered_set<std::__ndk1::basic_string<char, std::__ndk1::char_traits<char>, std::__ndk1::allocator<char> >, std::__ndk1::hash<std::__ndk1::basic_string<char, std::__ndk1::char_traits<char>, std::__ndk1::allocator<char> > >, std::__ndk1::equal_to<std::__ndk1::basic_string<char, std::__ndk1::char_traits<char>, std::__ndk1::allocator<char> > >, std::__ndk1::allocator<std::__ndk1::basic_string<char, std::__ndk1::char_traits<char>, std::__ndk1::allocator<char> > > >)#1}>, void (std::__ndk1::unordered_set<std::__ndk1::basic_string<char, std::__ndk1::char_traits<char>, std::__ndk1::allocator<char> >, std::__ndk1::hash<std::__ndk1::basic_string<char, std::__ndk1::char_traits<char>, std::__ndk1::allocator<char> > >, std::__ndk1::equal_to<std::__ndk1::basic_string<char, std::__ndk1::char_traits<char>, std::__ndk1::allocator<char> > >, std::__ndk1::allocator<std::__ndk1::basic_string<char, std::__ndk1::char_traits<char>, std::__ndk1::allocator<char> > > >)>::__clone(std::__ndk1::__function::__base<void (std::__ndk1::unordered_set<std::__ndk1::basic_string<char, std::__ndk1::char_traits<char>, std::__ndk1::allocator<char> >, std::__ndk1::hash<std::__ndk1::basic_string<char, std::__ndk1::char_traits<char>, std::__ndk1::allocator<char> > >, std::__ndk1::equal_to<std::__ndk1::basic_string<char, std::__ndk1::char_traits<char>, std::__ndk1::allocator<char> > >, std::__ndk1::allocator<std::__ndk1::basic_string<char, std::__ndk1::char_traits<char>, std::__ndk1::allocator<char> > > >)>*) const
FUNC 6eaa8 2 0 std::__ndk1::__function::__func<EditPopup::setup(ObjectData, std::__ndk1::unordered_set<std::__ndk1::basic_string<char, std::__ndk1::char_traits<char>, std::__ndk1::allocator<char> >, std::__ndk1::hash<std::__ndk1::basic_string<char, std::__ndk1::char_traits<char>, std::__ndk1::allocator<char> > >, std::__ndk1::equal_to<std::__ndk1::basic_string<char, std::__ndk1::char_traits<char>, std::__ndk1::allocator<char> > >, std::__ndk1::allocator<std::__ndk1::basic_string<char, std::__ndk1::char_traits<char>, std::__ndk1::allocator<char> > > >, UserData)::$_1::operator()(cocos2d::CCObject*) const::{lambda(std::__ndk1::unordered_set<std::__ndk1::basic_string<char, std::__ndk1::char_traits<char>, std::__ndk1::allocator<char> >, std::__ndk1::hash<std::__ndk1::basic_string<char, std::__ndk1::char_traits<char>, std::__ndk1::allocator<char> > >, std::__ndk1::equal_to<std::__ndk1::basic_string<char, std::__ndk1::char_traits<char>, std::__ndk1::allocator<char> > >, std::__ndk1::allocator<std::__ndk1::basic_string<char, std::__ndk1::char_traits<char>, std::__ndk1::allocator<char> > > >)#1}, std::__ndk1::allocator<EditPopup::setup(ObjectData, std::__ndk1::unordered_set<std::__ndk1::basic_string<char, std::__ndk1::char_traits<char>, std::__ndk1::allocator<char> >, std::__ndk1::hash<std::__ndk1::basic_string<char, std::__ndk1::char_traits<char>, std::__ndk1::allocator<char> > >, std::__ndk1::equal_to<std::__ndk1::basic_string<char, std::__ndk1::char_traits<char>, std::__ndk1::allocator<char> > >, std::__ndk1::allocator<std::__ndk1::basic_string<char, std::__ndk1::char_traits<char>, std::__ndk1::allocator<char> > > >, UserData)::$_1::operator()(cocos2d::CCObject*) const::{lambda(std::__ndk1::unordered_set<std::__ndk1::basic_string<char, std::__ndk1::char_traits<char>, std::__ndk1::allocator<char> >, std::__ndk1::hash<std::__ndk1::basic_string<char, std::__ndk1::char_traits<char>, std::__ndk1::allocator<char> > >, std::__ndk1::equal_to<std::__ndk1::basic_string<char, std::__ndk1::char_traits<char>, std::__ndk1::allocator<char> > >, std::__ndk1::allocator<std::__ndk1::basic_string<char, std::__ndk1::char_traits<char>, std::__ndk1::allocator<char> > > >)#1}>, void (std::__ndk1::unordered_set<std::__ndk1::basic_string<char, std::__ndk1::char_traits<char>, std::__ndk1::allocator<char> >, std::__ndk1::hash<std::__ndk1::basic_string<char, std::__ndk1::char_traits<char>, std::__ndk1::allocator<char> > >, std::__ndk1::equal_to<std::__ndk1::basic_string<char, std::__ndk1::char_traits<char>, std::__ndk1::allocator<char> > >, std::__ndk1::allocator<std::__ndk1::basic_string<char, std::__ndk1::char_traits<char>, std::__ndk1::allocator<char> > > >)>::destroy()
FUNC 6eaaa 4 0 std::__ndk1::__function::__func<EditPopup::setup(ObjectData, std::__ndk1::unordered_set<std::__ndk1::basic_string<char, std::__ndk1::char_traits<char>, std::__ndk1::allocator<char> >, std::__ndk1::hash<std::__ndk1::basic_string<char, std::__ndk1::char_traits<char>, std::__ndk1::allocator<char> > >, std::__ndk1::equal_to<std::__ndk1::basic_string<char, std::__ndk1::char_traits<char>, std::__ndk1::allocator<char> > >, std::__ndk1::allocator<std::__ndk1::basic_string<char, std::__ndk1::char_traits<char>, std::__ndk1::allocator<char> > > >, UserData)::$_1::operator()(cocos2d::CCObject*) const::{lambda(std::__ndk1::unordered_set<std::__ndk1::basic_string<char, std::__ndk1::char_traits<char>, std::__ndk1::allocator<char> >, std::__ndk1::hash<std::__ndk1::basic_string<char, std::__ndk1::char_traits<char>, std::__ndk1::allocator<char> > >, std::__ndk1::equal_to<std::__ndk1::basic_string<char, std::__ndk1::char_traits<char>, std::__ndk1::allocator<char> > >, std::__ndk1::allocator<std::__ndk1::basic_string<char, std::__ndk1::char_traits<char>, std::__ndk1::allocator<char> > > >)#1}, std::__ndk1::allocator<EditPopup::setup(ObjectData, std::__ndk1::unordered_set<std::__ndk1::basic_string<char, std::__ndk1::char_traits<char>, std::__ndk1::allocator<char> >, std::__ndk1::hash<std::__ndk1::basic_string<char, std::__ndk1::char_traits<char>, std::__ndk1::allocator<char> > >, std::__ndk1::equal_to<std::__ndk1::basic_string<char, std::__ndk1::char_traits<char>, std::__ndk1::allocator<char> > >, std::__ndk1::allocator<std::__ndk1::basic_string<char, std::__ndk1::char_traits<char>, std::__ndk1::allocator<char> > > >, UserData)::$_1::operator()(cocos2d::CCObject*) const::{lambda(std::__ndk1::unordered_set<std::__ndk1::basic_string<char, std::__ndk1::char_traits<char>, std::__ndk1::allocator<char> >, std::__ndk1::hash<std::__ndk1::basic_string<char, std::__ndk1::char_traits<char>, std::__ndk1::allocator<char> > >, std::__ndk1::equal_to<std::__ndk1::basic_string<char, std::__ndk1::char_traits<char>, std::__ndk1::allocator<char> > >, std::__ndk1::allocator<std::__ndk1::basic_string<char, std::__ndk1::char_traits<char>, std::__ndk1::allocator<char> > > >)#1}>, void (std::__ndk1::unordered_set<std::__ndk1::basic_string<char, std::__ndk1::char_traits<char>, std::__ndk1::allocator<char> >, std::__ndk1::hash<std::__ndk1::basic_string<char, std::__ndk1::char_traits<char>, std::__ndk1::allocator<char> > >, std::__ndk1::equal_to<std::__ndk1::basic_string<char, std::__ndk1::char_traits<char>, std::__ndk1::allocator<char> > >, std::__ndk1::allocator<std::__ndk1::basic_string<char, std::__ndk1::char_traits<char>, std::__ndk1::allocator<char> > > >)>::destroy_deallocate()
FUNC 6eab0 d8 0 std::__ndk1::__function::__func<EditPopup::setup(ObjectData, std::__ndk1::unordered_set<std::__ndk1::basic_string<char, std::__ndk1::char_traits<char>, std::__ndk1::allocator<char> >, std::__ndk1::hash<std::__ndk1::basic_string<char, std::__ndk1::char_traits<char>, std::__ndk1::allocator<char> > >, std::__ndk1::equal_to<std::__ndk1::basic_string<char, std::__ndk1::char_traits<char>, std::__ndk1::allocator<char> > >, std::__ndk1::allocator<std::__ndk1::basic_string<char, std::__ndk1::char_traits<char>, std::__ndk1::allocator<char> > > >, UserData)::$_1::operator()(cocos2d::CCObject*) const::{lambda(std::__ndk1::unordered_set<std::__ndk1::basic_string<char, std::__ndk1::char_traits<char>, std::__ndk1::allocator<char> >, std::__ndk1::hash<std::__ndk1::basic_string<char, std::__ndk1::char_traits<char>, std::__ndk1::allocator<char> > >, std::__ndk1::equal_to<std::__ndk1::basic_string<char, std::__ndk1::char_traits<char>, std::__ndk1::allocator<char> > >, std::__ndk1::allocator<std::__ndk1::basic_string<char, std::__ndk1::char_traits<char>, std::__ndk1::allocator<char> > > >)#1}, std::__ndk1::allocator<EditPopup::setup(ObjectData, std::__ndk1::unordered_set<std::__ndk1::basic_string<char, std::__ndk1::char_traits<char>, std::__ndk1::allocator<char> >, std::__ndk1::hash<std::__ndk1::basic_string<char, std::__ndk1::char_traits<char>, std::__ndk1::allocator<char> > >, std::__ndk1::equal_to<std::__ndk1::basic_string<char, std::__ndk1::char_traits<char>, std::__ndk1::allocator<char> > >, std::__ndk1::allocator<std::__ndk1::basic_string<char, std::__ndk1::char_traits<char>, std::__ndk1::allocator<char> > > >, UserData)::$_1::operator()(cocos2d::CCObject*) const::{lambda(std::__ndk1::unordered_set<std::__ndk1::basic_string<char, std::__ndk1::char_traits<char>, std::__ndk1::allocator<char> >, std::__ndk1::hash<std::__ndk1::basic_string<char, std::__ndk1::char_traits<char>, std::__ndk1::allocator<char> > >, std::__ndk1::equal_to<std::__ndk1::basic_string<char, std::__ndk1::char_traits<char>, std::__ndk1::allocator<char> > >, std::__ndk1::allocator<std::__ndk1::basic_string<char, std::__ndk1::char_traits<char>, std::__ndk1::allocator<char> > > >)#1}>, void (std::__ndk1::unordered_set<std::__ndk1::basic_string<char, std::__ndk1::char_traits<char>, std::__ndk1::allocator<char> >, std::__ndk1::hash<std::__ndk1::basic_string<char, std::__ndk1::char_traits<char>, std::__ndk1::allocator<char> > >, std::__ndk1::equal_to<std::__ndk1::basic_string<char, std::__ndk1::char_traits<char>, std::__ndk1::allocator<char> > >, std::__ndk1::allocator<std::__ndk1::basic_string<char, std::__ndk1::char_traits<char>, std::__ndk1::allocator<char> > > >)>::operator()(std::__ndk1::unordered_set<std::__ndk1::basic_string<char, std::__ndk1::char_traits<char>, std::__ndk1::allocator<char> >, std::__ndk1::hash<std::__ndk1::basic_string<char, std::__ndk1::char_traits<char>, std::__ndk1::allocator<char> > >, std::__ndk1::equal_to<std::__ndk1::basic_string<char, std::__ndk1::char_traits<char>, std::__ndk1::allocator<char> > >, std::__ndk1::allocator<std::__ndk1::basic_string<char, std::__ndk1::char_traits<char>, std::__ndk1::allocator<char> > > >&&)
FUNC 6eb88 18 0 std::__ndk1::__function::__func<EditPopup::setup(ObjectData, std::__ndk1::unordered_set<std::__ndk1::basic_string<char, std::__ndk1::char_traits<char>, std::__ndk1::allocator<char> >, std::__ndk1::hash<std::__ndk1::basic_string<char, std::__ndk1::char_traits<char>, std::__ndk1::allocator<char> > >, std::__ndk1::equal_to<std::__ndk1::basic_string<char, std::__ndk1::char_traits<char>, std::__ndk1::allocator<char> > >, std::__ndk1::allocator<std::__ndk1::basic_string<char, std::__ndk1::char_traits<char>, std::__ndk1::allocator<char> > > >, UserData)::$_1::operator()(cocos2d::CCObject*) const::{lambda(std::__ndk1::unordered_set<std::__ndk1::basic_string<char, std::__ndk1::char_traits<char>, std::__ndk1::allocator<char> >, std::__ndk1::hash<std::__ndk1::basic_string<char, std::__ndk1::char_traits<char>, std::__ndk1::allocator<char> > >, std::__ndk1::equal_to<std::__ndk1::basic_string<char, std::__ndk1::char_traits<char>, std::__ndk1::allocator<char> > >, std::__ndk1::allocator<std::__ndk1::basic_string<char, std::__ndk1::char_traits<char>, std::__ndk1::allocator<char> > > >)#1}, std::__ndk1::allocator<EditPopup::setup(ObjectData, std::__ndk1::unordered_set<std::__ndk1::basic_string<char, std::__ndk1::char_traits<char>, std::__ndk1::allocator<char> >, std::__ndk1::hash<std::__ndk1::basic_string<char, std::__ndk1::char_traits<char>, std::__ndk1::allocator<char> > >, std::__ndk1::equal_to<std::__ndk1::basic_string<char, std::__ndk1::char_traits<char>, std::__ndk1::allocator<char> > >, std::__ndk1::allocator<std::__ndk1::basic_string<char, std::__ndk1::char_traits<char>, std::__ndk1::allocator<char> > > >, UserData)::$_1::operator()(cocos2d::CCObject*) const::{lambda(std::__ndk1::unordered_set<std::__ndk1::basic_string<char, std::__ndk1::char_traits<char>, std::__ndk1::allocator<char> >, std::__ndk1::hash<std::__ndk1::basic_string<char, std::__ndk1::char_traits<char>, std::__ndk1::allocator<char> > >, std::__ndk1::equal_to<std::__ndk1::basic_string<char, std::__ndk1::char_traits<char>, std::__ndk1::allocator<char> > >, std::__ndk1::allocator<std::__ndk1::basic_string<char, std::__ndk1::char_traits<char>, std::__ndk1::allocator<char> > > >)#1}>, void (std::__ndk1::unordered_set<std::__ndk1::basic_string<char, std::__ndk1::char_traits<char>, std::__ndk1::allocator<char> >, std::__ndk1::hash<std::__ndk1::basic_string<char, std::__ndk1::char_traits<char>, std::__ndk1::allocator<char> > >, std::__ndk1::equal_to<std::__ndk1::basic_string<char, std::__ndk1::char_traits<char>, std::__ndk1::allocator<char> > >, std::__ndk1::allocator<std::__ndk1::basic_string<char, std::__ndk1::char_traits<char>, std::__ndk1::allocator<char> > > >)>::target(std::type_info const&) const
FUNC 6eba0 c 0 std::__ndk1::__function::__func<EditPopup::setup(ObjectData, std::__ndk1::unordered_set<std::__ndk1::basic_string<char, std::__ndk1::char_traits<char>, std::__ndk1::allocator<char> >, std::__ndk1::hash<std::__ndk1::basic_string<char, std::__ndk1::char_traits<char>, std::__ndk1::allocator<char> > >, std::__ndk1::equal_to<std::__ndk1::basic_string<char, std::__ndk1::char_traits<char>, std::__ndk1::allocator<char> > >, std::__ndk1::allocator<std::__ndk1::basic_string<char, std::__ndk1::char_traits<char>, std::__ndk1::allocator<char> > > >, UserData)::$_1::operator()(cocos2d::CCObject*) const::{lambda(std::__ndk1::unordered_set<std::__ndk1::basic_string<char, std::__ndk1::char_traits<char>, std::__ndk1::allocator<char> >, std::__ndk1::hash<std::__ndk1::basic_string<char, std::__ndk1::char_traits<char>, std::__ndk1::allocator<char> > >, std::__ndk1::equal_to<std::__ndk1::basic_string<char, std::__ndk1::char_traits<char>, std::__ndk1::allocator<char> > >, std::__ndk1::allocator<std::__ndk1::basic_string<char, std::__ndk1::char_traits<char>, std::__ndk1::allocator<char> > > >)#1}, std::__ndk1::allocator<EditPopup::setup(ObjectData, std::__ndk1::unordered_set<std::__ndk1::basic_string<char, std::__ndk1::char_traits<char>, std::__ndk1::allocator<char> >, std::__ndk1::hash<std::__ndk1::basic_string<char, std::__ndk1::char_traits<char>, std::__ndk1::allocator<char> > >, std::__ndk1::equal_to<std::__ndk1::basic_string<char, std::__ndk1::char_traits<char>, std::__ndk1::allocator<char> > >, std::__ndk1::allocator<std::__ndk1::basic_string<char, std::__ndk1::char_traits<char>, std::__ndk1::allocator<char> > > >, UserData)::$_1::operator()(cocos2d::CCObject*) const::{lambda(std::__ndk1::unordered_set<std::__ndk1::basic_string<char, std::__ndk1::char_traits<char>, std::__ndk1::allocator<char> >, std::__ndk1::hash<std::__ndk1::basic_string<char, std::__ndk1::char_traits<char>, std::__ndk1::allocator<char> > >, std::__ndk1::equal_to<std::__ndk1::basic_string<char, std::__ndk1::char_traits<char>, std::__ndk1::allocator<char> > >, std::__ndk1::allocator<std::__ndk1::basic_string<char, std::__ndk1::char_traits<char>, std::__ndk1::allocator<char> > > >)#1}>, void (std::__ndk1::unordered_set<std::__ndk1::basic_string<char, std::__ndk1::char_traits<char>, std::__ndk1::allocator<char> >, std::__ndk1::hash<std::__ndk1::basic_string<char, std::__ndk1::char_traits<char>, std::__ndk1::allocator<char> > >, std::__ndk1::equal_to<std::__ndk1::basic_string<char, std::__ndk1::char_traits<char>, std::__ndk1::allocator<char> > >, std::__ndk1::allocator<std::__ndk1::basic_string<char, std::__ndk1::char_traits<char>, std::__ndk1::allocator<char> > > >)>::target_type() const
FUNC 6ebac 4 0 std::__ndk1::__function::__func<EditPopup::setup(ObjectData, std::__ndk1::unordered_set<std::__ndk1::basic_string<char, std::__ndk1::char_traits<char>, std::__ndk1::allocator<char> >, std::__ndk1::hash<std::__ndk1::basic_string<char, std::__ndk1::char_traits<char>, std::__ndk1::allocator<char> > >, std::__ndk1::equal_to<std::__ndk1::basic_string<char, std::__ndk1::char_traits<char>, std::__ndk1::allocator<char> > >, std::__ndk1::allocator<std::__ndk1::basic_string<char, std::__ndk1::char_traits<char>, std::__ndk1::allocator<char> > > >, UserData)::$_2, std::__ndk1::allocator<EditPopup::setup(ObjectData, std::__ndk1::unordered_set<std::__ndk1::basic_string<char, std::__ndk1::char_traits<char>, std::__ndk1::allocator<char> >, std::__ndk1::hash<std::__ndk1::basic_string<char, std::__ndk1::char_traits<char>, std::__ndk1::allocator<char> > >, std::__ndk1::equal_to<std::__ndk1::basic_string<char, std::__ndk1::char_traits<char>, std::__ndk1::allocator<char> > >, std::__ndk1::allocator<std::__ndk1::basic_string<char, std::__ndk1::char_traits<char>, std::__ndk1::allocator<char> > > >, UserData)::$_2>, void ()>::~__func()
FUNC 6ebb0 20 0 std::__ndk1::__function::__func<EditPopup::setup(ObjectData, std::__ndk1::unordered_set<std::__ndk1::basic_string<char, std::__ndk1::char_traits<char>, std::__ndk1::allocator<char> >, std::__ndk1::hash<std::__ndk1::basic_string<char, std::__ndk1::char_traits<char>, std::__ndk1::allocator<char> > >, std::__ndk1::equal_to<std::__ndk1::basic_string<char, std::__ndk1::char_traits<char>, std::__ndk1::allocator<char> > >, std::__ndk1::allocator<std::__ndk1::basic_string<char, std::__ndk1::char_traits<char>, std::__ndk1::allocator<char> > > >, UserData)::$_2, std::__ndk1::allocator<EditPopup::setup(ObjectData, std::__ndk1::unordered_set<std::__ndk1::basic_string<char, std::__ndk1::char_traits<char>, std::__ndk1::allocator<char> >, std::__ndk1::hash<std::__ndk1::basic_string<char, std::__ndk1::char_traits<char>, std::__ndk1::allocator<char> > >, std::__ndk1::equal_to<std::__ndk1::basic_string<char, std::__ndk1::char_traits<char>, std::__ndk1::allocator<char> > >, std::__ndk1::allocator<std::__ndk1::basic_string<char, std::__ndk1::char_traits<char>, std::__ndk1::allocator<char> > > >, UserData)::$_2>, void ()>::__clone() const
