MODULE Linux arm64 9C30F3D6E2A4B49EF28698B218B8B5C10 razoom.recent_objects.android64.so
INFO CODE_ID D6F3309CA4E29EB4F28698B218B8B5C1E063CB74
INFO GENERATOR mozilla/dump_syms 2.3.4
PUBLIC 7700 0 __on_dlclose
PUBLIC 7710 0 __emutls_unregister_key
PUBLIC 7718 0 __on_dlclose_late
PUBLIC 7720 0 __atexit_handler_wrapper
PUBLIC 7734 0 atexit
PUBLIC 7750 0 pthread_atfork
PUBLIC 7760 0 unwind_phase2
PUBLIC 7894 0 _Unwind_Resume
PUBLIC 7918 0 unwind_phase2_forced
PUBLIC m 7a0c 0 __unw_init_local
PUBLIC m 7ab4 0 __unw_get_reg
PUBLIC 7b30 0 __unw_step_stage2
PUBLIC m 7b44 0 __unw_get_proc_info
PUBLIC m 7b84 0 __unw_resume
PUBLIC 7bac 0 libunwind::CFI_Parser<libunwind::LocalAddressSpace>::decodeFDE(libunwind::LocalAddressSpace&, unsigned long, libunwind::CFI_Parser<libunwind::LocalAddressSpace>::FDE_Info*, libunwind::CFI_Parser<libunwind::LocalAddressSpace>::CIE_Info*, bool)
PUBLIC 7d3c 0 libunwind::CFI_Parser<libunwind::LocalAddressSpace>::parseCIE(libunwind::LocalAddressSpace&, unsigned long, libunwind::CFI_Parser<libunwind::LocalAddressSpace>::CIE_Info*)
PUBLIC 8004 0 libunwind::AbstractUnwindCursor::~AbstractUnwindCursor()
PUBLIC 800c 0 libunwind::UnwindCursor<libunwind::LocalAddressSpace, libunwind::Registers_arm64>::~UnwindCursor()
PUBLIC 8014 0 libunwind::UnwindCursor<libunwind::LocalAddressSpace, libunwind::Registers_arm64>::validReg(int)
PUBLIC 8058 0 libunwind::UnwindCursor<libunwind::LocalAddressSpace, libunwind::Registers_arm64>::getReg(int)
PUBLIC 8140 0 libunwind::UnwindCursor<libunwind::LocalAddressSpace, libunwind::Registers_arm64>::setReg(int, unsigned long)
PUBLIC 8228 0 libunwind::UnwindCursor<libunwind::LocalAddressSpace, libunwind::Registers_arm64>::validFloatReg(int)
PUBLIC 823c 0 libunwind::UnwindCursor<libunwind::LocalAddressSpace, libunwind::Registers_arm64>::getFloatReg(int)
PUBLIC 824c 0 libunwind::UnwindCursor<libunwind::LocalAddressSpace, libunwind::Registers_arm64>::setFloatReg(int, double)
PUBLIC 825c 0 libunwind::UnwindCursor<libunwind::LocalAddressSpace, libunwind::Registers_arm64>::step(bool)
PUBLIC 834c 0 libunwind::UnwindCursor<libunwind::LocalAddressSpace, libunwind::Registers_arm64>::getInfo(unw_proc_info_t*)
PUBLIC 8390 0 libunwind::UnwindCursor<libunwind::LocalAddressSpace, libunwind::Registers_arm64>::jumpto()
PUBLIC 839c 0 libunwind::UnwindCursor<libunwind::LocalAddressSpace, libunwind::Registers_arm64>::isSignalFrame()
PUBLIC 83a8 0 libunwind::UnwindCursor<libunwind::LocalAddressSpace, libunwind::Registers_arm64>::getFunctionName(char*, unsigned long, unsigned long*)
PUBLIC 83d4 0 libunwind::UnwindCursor<libunwind::LocalAddressSpace, libunwind::Registers_arm64>::setInfoBasedOnIPRegister(bool)
PUBLIC 8654 0 libunwind::UnwindCursor<libunwind::LocalAddressSpace, libunwind::Registers_arm64>::getRegisterName(int)
PUBLIC 8660 0 libunwind::UnwindCursor<libunwind::LocalAddressSpace, libunwind::Registers_arm64>::stepThroughSigReturn(libunwind::Registers_arm64&)
PUBLIC 8780 0 libunwind::DwarfInstructions<libunwind::LocalAddressSpace, libunwind::Registers_arm64>::stepWithDwarf(libunwind::LocalAddressSpace&, unsigned long, unsigned long, libunwind::Registers_arm64&, bool&, bool)
PUBLIC 8c08 0 libunwind::CFI_Parser<libunwind::LocalAddressSpace>::parseFDEInstructions(libunwind::LocalAddressSpace&, libunwind::CFI_Parser<libunwind::LocalAddressSpace>::FDE_Info const&, libunwind::CFI_Parser<libunwind::LocalAddressSpace>::CIE_Info const&, unsigned long, int, libunwind::CFI_Parser<libunwind::LocalAddressSpace>::PrologInfo*)
PUBLIC 9850 0 libunwind::DwarfInstructions<libunwind::LocalAddressSpace, libunwind::Registers_arm64>::getCFA(libunwind::LocalAddressSpace&, libunwind::CFI_Parser<libunwind::LocalAddressSpace>::PrologInfo const&, libunwind::Registers_arm64 const&)
PUBLIC 9984 0 libunwind::DwarfInstructions<libunwind::LocalAddressSpace, libunwind::Registers_arm64>::getSavedRegister(libunwind::LocalAddressSpace&, libunwind::Registers_arm64 const&, unsigned long, libunwind::CFI_Parser<libunwind::LocalAddressSpace>::RegisterLocation const&)
PUBLIC 9b94 0 libunwind::LocalAddressSpace::getEncodedP(unsigned long&, unsigned long, unsigned char, unsigned long)
PUBLIC 9f20 0 libunwind::LocalAddressSpace::getULEB128(unsigned long&, unsigned long)
PUBLIC a0e8 0 libunwind::DwarfInstructions<libunwind::LocalAddressSpace, libunwind::Registers_arm64>::evaluateExpression(unsigned long, libunwind::LocalAddressSpace&, libunwind::Registers_arm64 const&, unsigned long)
PUBLIC aaa4 0 libunwind::UnwindCursor<libunwind::LocalAddressSpace, libunwind::Registers_arm64>::getInfoFromDwarfSection(unsigned long, libunwind::UnwindInfoSections const&, unsigned int)
PUBLIC ad78 0 libunwind::findUnwindSectionsByPhdr(dl_phdr_info*, unsigned long, void*)
PUBLIC aeac 0 libunwind::EHHeaderParser<libunwind::LocalAddressSpace>::decodeEHHdr(libunwind::LocalAddressSpace&, unsigned long, unsigned long, libunwind::EHHeaderParser<libunwind::LocalAddressSpace>::EHHeaderInfo&)
PUBLIC afcc 0 libunwind::CFI_Parser<libunwind::LocalAddressSpace>::findFDE(libunwind::LocalAddressSpace&, unsigned long, unsigned long, unsigned long, unsigned long, libunwind::CFI_Parser<libunwind::LocalAddressSpace>::FDE_Info*, libunwind::CFI_Parser<libunwind::LocalAddressSpace>::CIE_Info*)
PUBLIC b194 0 libunwind::EHHeaderParser<libunwind::LocalAddressSpace>::findFDE(libunwind::LocalAddressSpace&, unsigned long, unsigned long, unsigned int, libunwind::CFI_Parser<libunwind::LocalAddressSpace>::FDE_Info*, libunwind::CFI_Parser<libunwind::LocalAddressSpace>::CIE_Info*)
PUBLIC b2fc 0 libunwind::EHHeaderParser<libunwind::LocalAddressSpace>::getTableEntrySize(unsigned char)
PUBLIC b3f8 0 libunwind::Registers_arm64::getRegisterName(int)
PUBLIC b428 0 __libunwind_Registers_arm64_jumpto
PUBLIC m b4b8 0 __unw_getcontext
PUBLIC b560 0 __aarch64_ldadd8_relax
PUBLIC b590 0 init_have_lse_atomics
PUBLIC b628 0 __init_cpu_features_constructor
PUBLIC bbc4 0 __init_cpu_features
PUBLIC bc50 0 __aarch64_ldadd8_acq_rel
PUBLIC bc80 0 std::__ndk1::set<short, std::__ndk1::less<short>, std::__ndk1::allocator<short> >::~set[abi:ne180000]()
PUBLIC bc88 0 __cxx_global_var_init.1
PUBLIC c47c 0 geode::modifier::ModifyBase<geode::modifier::ModifyDerive<MyEditorUI, EditorUI> >::~ModifyBase()
PUBLIC c494 0 __clang_call_terminate
PUBLIC c4a4 0 std::__throw_bad_array_new_length([abi:ne180000], void)
PUBLIC c4d8 0 std::__ndk1::__tree_balance_after_insert[abi:ne180000]<std::__ndk1::__tree_node_base<void*>*>(std::__ndk1::__tree_node_base<void*>*, std::__ndk1::__tree_node_base<void*>*)
PUBLIC c688 0 std::__ndk1::__tree<short, std::__ndk1::less<short>, std::__ndk1::allocator<short> >::destroy(std::__ndk1::__tree_node<short, void*>*)
PUBLIC c6c4 0 geode::modifier::ModifyDerive<MyEditorUI, EditorUI>::apply()
PUBLIC cc7c 0 std::__ndk1::shared_ptr<geode::Hook>::~shared_ptr[abi:ne180000]()
PUBLIC cccc 0 geode::impl::ResultData<geode::Hook*, std::__ndk1::basic_string<char, std::__ndk1::char_traits<char>, std::__ndk1::allocator<char> > >::~ResultData()
PUBLIC cd40 0 std::__ndk1::vector<std::__ndk1::basic_string<char, std::__ndk1::char_traits<char>, std::__ndk1::allocator<char> >, std::__ndk1::allocator<std::__ndk1::basic_string<char, std::__ndk1::char_traits<char>, std::__ndk1::allocator<char> > > >::~vector[abi:ne180000]()
PUBLIC cdbc 0 geode::modifier::ModifyBase<geode::modifier::ModifyDerive<MyEditorUI, EditorUI> >::apply()
PUBLIC cdc0 0 _ZN5geode15UnwrapExceptionC2IRPNS_4HookEQsr4implE18IsStringStreamableIT_EEENS_4impl5OkTagEOS5_
PUBLIC d390 0 std::__ndk1::__throw_bad_variant_access[abi:ne180000]()
PUBLIC m d3c4 0 std::__ndk1::basic_stringstream<char, std::__ndk1::char_traits<char>, std::__ndk1::allocator<char> >::~basic_stringstream()
PUBLIC d444 0 geode::UnwrapException::~UnwrapException()
PUBLIC d468 0 std::__ndk1::basic_string<char, std::__ndk1::char_traits<char>, std::__ndk1::allocator<char> >::__throw_length_error[abi:ne180000]() const
PUBLIC d47c 0 std::__ndk1::__throw_length_error[abi:ne180000](char const*)
PUBLIC d4cc 0 std::length_error::length_error[abi:ne180000](char const*)
PUBLIC d4fc 0 std::__ndk1::basic_stringbuf<char, std::__ndk1::char_traits<char>, std::__ndk1::allocator<char> >::__init_buf_ptrs[abi:ne180000]()
PUBLIC d644 0 std::__ndk1::basic_string<char, std::__ndk1::char_traits<char>, std::__ndk1::allocator<char> >::__init_copy_ctor_external(char const*, unsigned long)
PUBLIC d6c0 0 std::__ndk1::__split_buffer<std::__ndk1::basic_string<char, std::__ndk1::char_traits<char>, std::__ndk1::allocator<char> >, std::__ndk1::allocator<std::__ndk1::basic_string<char, std::__ndk1::char_traits<char>, std::__ndk1::allocator<char> > >&>::~__split_buffer()
PUBLIC d728 0 std::__ndk1::vector<std::__ndk1::basic_string<char, std::__ndk1::char_traits<char>, std::__ndk1::allocator<char> >, std::__ndk1::allocator<std::__ndk1::basic_string<char, std::__ndk1::char_traits<char>, std::__ndk1::allocator<char> > > >::__throw_length_error[abi:ne180000]() const
PUBLIC d73c 0 std::__ndk1::__variant_detail::__visitation::__base::__dispatcher<(unsigned long)0>::__dispatch[abi:ne180000]<std::__ndk1::__variant_detail::__dtor<std::__ndk1::__variant_detail::__traits<geode::Hook*, std::__ndk1::basic_string<char, std::__ndk1::char_traits<char>, std::__ndk1::allocator<char> > >, (std::__ndk1::__variant_detail::_Trait)1>::__destroy[abi:ne180000]()::{lambda(auto:1&)#1}, std::__ndk1::__variant_detail::__base<(std::__ndk1::__variant_detail::__traits<geode::Hook*, std::__ndk1::basic_string<char, std::__ndk1::char_traits<char>, std::__ndk1::allocator<char> > >)1, geode::Hook, std::__ndk1::allocator<char> >&>(std::__ndk1::__variant_detail::__dtor<std::__ndk1::__variant_detail::__traits<geode::Hook*, std::__ndk1::basic_string<char, std::__ndk1::char_traits<char>, std::__ndk1::allocator<char> > >, (std::__ndk1::__variant_detail::_Trait)1>, std::__ndk1::__variant_detail::__base<(std::__ndk1::__variant_detail::__traits<geode::Hook*, std::__ndk1::basic_string<char, std::__ndk1::char_traits<char>, std::__ndk1::allocator<char> > >)1, geode::Hook, std::__ndk1::allocator<char> >&)
PUBLIC d740 0 std::__ndk1::__variant_detail::__visitation::__base::__dispatcher<(unsigned long)1>::__dispatch[abi:ne180000]<std::__ndk1::__variant_detail::__dtor<std::__ndk1::__variant_detail::__traits<geode::Hook*, std::__ndk1::basic_string<char, std::__ndk1::char_traits<char>, std::__ndk1::allocator<char> > >, (std::__ndk1::__variant_detail::_Trait)1>::__destroy[abi:ne180000]()::{lambda(auto:1&)#1}, std::__ndk1::__variant_detail::__base<(std::__ndk1::__variant_detail::__traits<geode::Hook*, std::__ndk1::basic_string<char, std::__ndk1::char_traits<char>, std::__ndk1::allocator<char> > >)1, geode::Hook, std::__ndk1::allocator<char> >&>(std::__ndk1::__variant_detail::__dtor<std::__ndk1::__variant_detail::__traits<geode::Hook*, std::__ndk1::basic_string<char, std::__ndk1::char_traits<char>, std::__ndk1::allocator<char> > >, (std::__ndk1::__variant_detail::_Trait)1>, std::__ndk1::__variant_detail::__base<(std::__ndk1::__variant_detail::__traits<geode::Hook*, std::__ndk1::basic_string<char, std::__ndk1::char_traits<char>, std::__ndk1::allocator<char> > >)1, geode::Hook, std::__ndk1::allocator<char> >&)
PUBLIC d754 0 std::__ndk1::__tree_remove[abi:ne180000]<std::__ndk1::__tree_node_base<void*>*>(std::__ndk1::__tree_node_base<void*>*, std::__ndk1::__tree_node_base<void*>*)
PUBLIC db1c 0 std::__ndk1::__tree<std::__ndk1::__value_type<std::__ndk1::basic_string<char, std::__ndk1::char_traits<char>, std::__ndk1::allocator<char> >, std::__ndk1::shared_ptr<geode::Hook> >, std::__ndk1::__map_value_compare<std::__ndk1::basic_string<char, std::__ndk1::char_traits<char>, std::__ndk1::allocator<char> >, std::__ndk1::__value_type<std::__ndk1::basic_string<char, std::__ndk1::char_traits<char>, std::__ndk1::allocator<char> >, std::__ndk1::shared_ptr<geode::Hook> >, std::__ndk1::less<std::__ndk1::basic_string<char, std::__ndk1::char_traits<char>, std::__ndk1::allocator<char> > >, true>, std::__ndk1::allocator<std::__ndk1::__value_type<std::__ndk1::basic_string<char, std::__ndk1::char_traits<char>, std::__ndk1::allocator<char> >, std::__ndk1::shared_ptr<geode::Hook> > > >::destroy(std::__ndk1::__tree_node<std::__ndk1::__value_type<std::__ndk1::basic_string<char, std::__ndk1::char_traits<char>, std::__ndk1::allocator<char> >, std::__ndk1::shared_ptr<geode::Hook> >, void*>*)
PUBLIC dba0 0 geode::modifier::AsStaticFunction_init<MyEditorUI, bool (MyEditorUI::*)(LevelEditorLayer*)>::Impl<bool (MyEditorUI::*)(LevelEditorLayer*)>::function(MyEditorUI*, LevelEditorLayer*)
PUBLIC df6c 0 geode::modifier::AsStaticFunction_onCreate<MyEditorUI, bool (MyEditorUI::*)()>::Impl<bool (MyEditorUI::*)()>::function(MyEditorUI*)
PUBLIC dfc0 0 std::__ndk1::shared_ptr<tulip::hook::CallingConvention>::~shared_ptr[abi:ne180000]()
PUBLIC e010 0 tulip::hook::HandlerMetadata::~HandlerMetadata()
PUBLIC e074 0 MyEditorUI::loadMyTab(EditorUI*, CCMenuItemToggler*)
PUBLIC e25c 0 MyEditorUI::toggleMyTab(EditorUI*, bool, cocos2d::CCNode*)
PUBLIC eb30 0 geode::modifier::FieldIntermediate<MyEditorUI, EditorUI>::self()
PUBLIC efd0 0 geode::modifier::FieldIntermediate<MyEditorUI, EditorUI>::fieldDestructor(void*)
PUBLIC f2c8 0 std::__ndk1::vector<void*, std::__ndk1::allocator<void*> >::__throw_length_error[abi:ne180000]() const
PUBLIC f2dc 0 std::__ndk1::vector<std::__ndk1::function<void (void*)>, std::__ndk1::allocator<std::__ndk1::function<void (void*)> > >::__push_back_slow_path<std::__ndk1::function<void (void*)> >(std::__ndk1::function<void (void*)>&&)
PUBLIC f504 0 std::__ndk1::vector<std::__ndk1::function<void (void*)>, std::__ndk1::allocator<std::__ndk1::function<void (void*)> > >::__throw_length_error[abi:ne180000]() const
PUBLIC f518 0 std::__ndk1::vector<void*, std::__ndk1::allocator<void*> >::__throw_out_of_range[abi:ne180000]() const
PUBLIC f524 0 std::__ndk1::__throw_out_of_range[abi:ne180000](char const*)
PUBLIC f56c 0 std::out_of_range::out_of_range[abi:ne180000](char const*)
PUBLIC f5a4 0 std::__ndk1::vector<std::__ndk1::function<void (void*)>, std::__ndk1::allocator<std::__ndk1::function<void (void*)> > >::__throw_out_of_range[abi:ne180000]() const
PUBLIC f5b0 0 std::__ndk1::__list_imp<short, std::__ndk1::allocator<short> >::~__list_imp()
PUBLIC f60c 0 geode::Ref<CreateMenuItem>::~Ref()
PUBLIC f628 0 geode::Ref<EditButtonBar>::~Ref()
PUBLIC f644 0 geode::Mod::getSavedValue<std::__ndk1::basic_string<char, std::__ndk1::char_traits<char>, std::__ndk1::allocator<char> > >(std::__ndk1::basic_string_view<char, std::__ndk1::char_traits<char> >)
PUBLIC f824 0 geode::impl::ResultData<matjson::Value&, std::__ndk1::basic_string<char, std::__ndk1::char_traits<char>, std::__ndk1::allocator<char> > >::~ResultData()
PUBLIC f898 0 geode::impl::ResultData<std::__ndk1::basic_string<char, std::__ndk1::char_traits<char>, std::__ndk1::allocator<char> >, std::__ndk1::basic_string<char, std::__ndk1::char_traits<char>, std::__ndk1::allocator<char> > >::~ResultData()
PUBLIC f90c 0 std::__ndk1::__variant_detail::__visitation::__base::__dispatcher<(unsigned long)0>::__dispatch[abi:ne180000]<std::__ndk1::__variant_detail::__dtor<std::__ndk1::__variant_detail::__traits<std::__ndk1::reference_wrapper<matjson::Value>, std::__ndk1::basic_string<char, std::__ndk1::char_traits<char>, std::__ndk1::allocator<char> > >, (std::__ndk1::__variant_detail::_Trait)1>::__destroy[abi:ne180000]()::{lambda(auto:1&)#1}, std::__ndk1::__variant_detail::__base<(std::__ndk1::__variant_detail::__traits<std::__ndk1::reference_wrapper<matjson::Value>, std::__ndk1::basic_string<char, std::__ndk1::char_traits<char>, std::__ndk1::allocator<char> > >)1, matjson::Value, std::__ndk1::allocator<char> >&>(std::__ndk1::__variant_detail::__dtor<std::__ndk1::__variant_detail::__traits<std::__ndk1::reference_wrapper<matjson::Value>, std::__ndk1::basic_string<char, std::__ndk1::char_traits<char>, std::__ndk1::allocator<char> > >, (std::__ndk1::__variant_detail::_Trait)1>, std::__ndk1::__variant_detail::__base<(std::__ndk1::__variant_detail::__traits<std::__ndk1::reference_wrapper<matjson::Value>, std::__ndk1::basic_string<char, std::__ndk1::char_traits<char>, std::__ndk1::allocator<char> > >)1, matjson::Value, std::__ndk1::allocator<char> >&)
PUBLIC f910 0 std::__ndk1::__variant_detail::__visitation::__base::__dispatcher<(unsigned long)1>::__dispatch[abi:ne180000]<std::__ndk1::__variant_detail::__dtor<std::__ndk1::__variant_detail::__traits<std::__ndk1::reference_wrapper<matjson::Value>, std::__ndk1::basic_string<char, std::__ndk1::char_traits<char>, std::__ndk1::allocator<char> > >, (std::__ndk1::__variant_detail::_Trait)1>::__destroy[abi:ne180000]()::{lambda(auto:1&)#1}, std::__ndk1::__variant_detail::__base<(std::__ndk1::__variant_detail::__traits<std::__ndk1::reference_wrapper<matjson::Value>, std::__ndk1::basic_string<char, std::__ndk1::char_traits<char>, std::__ndk1::allocator<char> > >)1, matjson::Value, std::__ndk1::allocator<char> >&>(std::__ndk1::__variant_detail::__dtor<std::__ndk1::__variant_detail::__traits<std::__ndk1::reference_wrapper<matjson::Value>, std::__ndk1::basic_string<char, std::__ndk1::char_traits<char>, std::__ndk1::allocator<char> > >, (std::__ndk1::__variant_detail::_Trait)1>, std::__ndk1::__variant_detail::__base<(std::__ndk1::__variant_detail::__traits<std::__ndk1::reference_wrapper<matjson::Value>, std::__ndk1::basic_string<char, std::__ndk1::char_traits<char>, std::__ndk1::allocator<char> > >)1, matjson::Value, std::__ndk1::allocator<char> >&)
PUBLIC f924 0 std::__ndk1::__variant_detail::__visitation::__base::__dispatcher<(unsigned long)0>::__dispatch[abi:ne180000]<std::__ndk1::__variant_detail::__dtor<std::__ndk1::__variant_detail::__traits<std::__ndk1::basic_string<char, std::__ndk1::char_traits<char>, std::__ndk1::allocator<char> >, std::__ndk1::allocator<char> >, (std::__ndk1::__variant_detail::_Trait)1>::__destroy[abi:ne180000]()::{lambda(auto:1&)#1}, std::__ndk1::__variant_detail::__base<(std::__ndk1::__variant_detail::__traits<std::__ndk1::basic_string<char, std::__ndk1::char_traits<char>, std::__ndk1::allocator<char> >, std::__ndk1::allocator<char> >)1, std::__ndk1::allocator<char>, std::__ndk1::allocator<char> >&>(std::__ndk1::__variant_detail::__dtor<std::__ndk1::__variant_detail::__traits<std::__ndk1::basic_string<char, std::__ndk1::char_traits<char>, std::__ndk1::allocator<char> >, std::__ndk1::allocator<char> >, (std::__ndk1::__variant_detail::_Trait)1>, std::__ndk1::__variant_detail::__base<(std::__ndk1::__variant_detail::__traits<std::__ndk1::basic_string<char, std::__ndk1::char_traits<char>, std::__ndk1::allocator<char> >, std::__ndk1::allocator<char> >)1, std::__ndk1::allocator<char>, std::__ndk1::allocator<char> >&)
PUBLIC f938 0 std::__ndk1::__variant_detail::__visitation::__base::__dispatcher<(unsigned long)1>::__dispatch[abi:ne180000]<std::__ndk1::__variant_detail::__dtor<std::__ndk1::__variant_detail::__traits<std::__ndk1::basic_string<char, std::__ndk1::char_traits<char>, std::__ndk1::allocator<char> >, std::__ndk1::allocator<char> >, (std::__ndk1::__variant_detail::_Trait)1>::__destroy[abi:ne180000]()::{lambda(auto:1&)#1}, std::__ndk1::__variant_detail::__base<(std::__ndk1::__variant_detail::__traits<std::__ndk1::basic_string<char, std::__ndk1::char_traits<char>, std::__ndk1::allocator<char> >, std::__ndk1::allocator<char> >)1, std::__ndk1::allocator<char>, std::__ndk1::allocator<char> >&>(std::__ndk1::__variant_detail::__dtor<std::__ndk1::__variant_detail::__traits<std::__ndk1::basic_string<char, std::__ndk1::char_traits<char>, std::__ndk1::allocator<char> >, std::__ndk1::allocator<char> >, (std::__ndk1::__variant_detail::_Trait)1>, std::__ndk1::__variant_detail::__base<(std::__ndk1::__variant_detail::__traits<std::__ndk1::basic_string<char, std::__ndk1::char_traits<char>, std::__ndk1::allocator<char> >, std::__ndk1::allocator<char> >)1, std::__ndk1::allocator<char>, std::__ndk1::allocator<char> >&)
PUBLIC f94c 0 std::__ndk1::__function::__base<void (void*)>::~__base()
PUBLIC f950 0 std::__ndk1::__function::__func<void (*)(void*), std::__ndk1::allocator<void (*)(void*)>, void (void*)>::~__func()
PUBLIC f954 0 std::__ndk1::__function::__func<void (*)(void*), std::__ndk1::allocator<void (*)(void*)>, void (void*)>::__clone() const
PUBLIC f98c 0 std::__ndk1::__function::__func<void (*)(void*), std::__ndk1::allocator<void (*)(void*)>, void (void*)>::__clone(std::__ndk1::__function::__base<void (void*)>*) const
PUBLIC f9a4 0 std::__ndk1::__function::__func<void (*)(void*), std::__ndk1::allocator<void (*)(void*)>, void (void*)>::destroy()
PUBLIC f9a8 0 std::__ndk1::__function::__func<void (*)(void*), std::__ndk1::allocator<void (*)(void*)>, void (void*)>::destroy_deallocate()
PUBLIC f9ac 0 std::__ndk1::__function::__func<void (*)(void*), std::__ndk1::allocator<void (*)(void*)>, void (void*)>::operator()(void*&&)
PUBLIC f9bc 0 std::__ndk1::__function::__func<void (*)(void*), std::__ndk1::allocator<void (*)(void*)>, void (void*)>::target(std::type_info const&) const
PUBLIC f9d8 0 std::__ndk1::__function::__func<void (*)(void*), std::__ndk1::allocator<void (*)(void*)>, void (void*)>::target_type() const
PUBLIC f9e4 0 MyEditorUI::Fields::Fields()
PUBLIC 101d8 0 std::__ndk1::basic_istringstream<char, std::__ndk1::char_traits<char>, std::__ndk1::allocator<char> >::~basic_istringstream()
PUBLIC 10254 0 geode::cast::traverseTypeinfoFor(void*, geode::cast::ClassTypeinfoType const*, char const*)
PUBLIC 1034c 0 std::__ndk1::basic_string<char, std::__ndk1::char_traits<char>, std::__ndk1::allocator<char> >::__assign_no_alias<true>(char const*, unsigned long)
PUBLIC 103f4 0 MyEditorUI::onDeleteClick(cocos2d::CCObject*)
PUBLIC 1053c 0 MyEditorUI::handleNewObject(short, bool)
PUBLIC 10914 0 MyEditorUI::onItemClick(cocos2d::CCObject*)
PUBLIC 10a64 0 cocos2d::CCCopying::copyWithZone(cocos2d::CCZone*)
PUBLIC 10a6c 0 SelInfo::~SelInfo()
PUBLIC 10a90 0 cocos2d::CCObject::update(float)
PUBLIC 10a94 0 MyEditorUI::recursiveSetChildrenColor(float, cocos2d::CCArray*)
PUBLIC 10d0c 0 std::__ndk1::__function::__base<cocos2d::CCNode* (EditorUI*, CCMenuItemToggler*)>::~__base()
PUBLIC 10d10 0 std::__ndk1::__function::__func<std::__ndk1::__bind<cocos2d::CCNode* (MyEditorUI::*)(EditorUI*, CCMenuItemToggler*), MyEditorUI*, std::__ndk1::placeholders::__ph<1> const&, std::__ndk1::placeholders::__ph<2> const&>, std::__ndk1::allocator<std::__ndk1::__bind<cocos2d::CCNode* (MyEditorUI::*)(EditorUI*, CCMenuItemToggler*), MyEditorUI*, std::__ndk1::placeholders::__ph<1> const&, std::__ndk1::placeholders::__ph<2> const&> >, cocos2d::CCNode* (EditorUI*, CCMenuItemToggler*)>::~__func()
PUBLIC 10d14 0 std::__ndk1::__function::__func<std::__ndk1::__bind<cocos2d::CCNode* (MyEditorUI::*)(EditorUI*, CCMenuItemToggler*), MyEditorUI*, std::__ndk1::placeholders::__ph<1> const&, std::__ndk1::placeholders::__ph<2> const&>, std::__ndk1::allocator<std::__ndk1::__bind<cocos2d::CCNode* (MyEditorUI::*)(EditorUI*, CCMenuItemToggler*), MyEditorUI*, std::__ndk1::placeholders::__ph<1> const&, std::__ndk1::placeholders::__ph<2> const&> >, cocos2d::CCNode* (EditorUI*, CCMenuItemToggler*)>::__clone() const
PUBLIC 10d54 0 std::__ndk1::__function::__func<std::__ndk1::__bind<cocos2d::CCNode* (MyEditorUI::*)(EditorUI*, CCMenuItemToggler*), MyEditorUI*, std::__ndk1::placeholders::__ph<1> const&, std::__ndk1::placeholders::__ph<2> const&>, std::__ndk1::allocator<std::__ndk1::__bind<cocos2d::CCNode* (MyEditorUI::*)(EditorUI*, CCMenuItemToggler*), MyEditorUI*, std::__ndk1::placeholders::__ph<1> const&, std::__ndk1::placeholders::__ph<2> const&> >, cocos2d::CCNode* (EditorUI*, CCMenuItemToggler*)>::__clone(std::__ndk1::__function::__base<cocos2d::CCNode* (EditorUI*, CCMenuItemToggler*)>*) const
PUBLIC 10d74 0 std::__ndk1::__function::__func<std::__ndk1::__bind<cocos2d::CCNode* (MyEditorUI::*)(EditorUI*, CCMenuItemToggler*), MyEditorUI*, std::__ndk1::placeholders::__ph<1> const&, std::__ndk1::placeholders::__ph<2> const&>, std::__ndk1::allocator<std::__ndk1::__bind<cocos2d::CCNode* (MyEditorUI::*)(EditorUI*, CCMenuItemToggler*), MyEditorUI*, std::__ndk1::placeholders::__ph<1> const&, std::__ndk1::placeholders::__ph<2> const&> >, cocos2d::CCNode* (EditorUI*, CCMenuItemToggler*)>::destroy()
PUBLIC 10d78 0 std::__ndk1::__function::__func<std::__ndk1::__bind<cocos2d::CCNode* (MyEditorUI::*)(EditorUI*, CCMenuItemToggler*), MyEditorUI*, std::__ndk1::placeholders::__ph<1> const&, std::__ndk1::placeholders::__ph<2> const&>, std::__ndk1::allocator<std::__ndk1::__bind<cocos2d::CCNode* (MyEditorUI::*)(EditorUI*, CCMenuItemToggler*), MyEditorUI*, std::__ndk1::placeholders::__ph<1> const&, std::__ndk1::placeholders::__ph<2> const&> >, cocos2d::CCNode* (EditorUI*, CCMenuItemToggler*)>::destroy_deallocate()
PUBLIC 10d7c 0 std::__ndk1::__function::__func<std::__ndk1::__bind<cocos2d::CCNode* (MyEditorUI::*)(EditorUI*, CCMenuItemToggler*), MyEditorUI*, std::__ndk1::placeholders::__ph<1> const&, std::__ndk1::placeholders::__ph<2> const&>, std::__ndk1::allocator<std::__ndk1::__bind<cocos2d::CCNode* (MyEditorUI::*)(EditorUI*, CCMenuItemToggler*), MyEditorUI*, std::__ndk1::placeholders::__ph<1> const&, std::__ndk1::placeholders::__ph<2> const&> >, cocos2d::CCNode* (EditorUI*, CCMenuItemToggler*)>::operator()(EditorUI*&&, CCMenuItemToggler*&&)
PUBLIC 10da0 0 std::__ndk1::__function::__func<std::__ndk1::__bind<cocos2d::CCNode* (MyEditorUI::*)(EditorUI*, CCMenuItemToggler*), MyEditorUI*, std::__ndk1::placeholders::__ph<1> const&, std::__ndk1::placeholders::__ph<2> const&>, std::__ndk1::allocator<std::__ndk1::__bind<cocos2d::CCNode* (MyEditorUI::*)(EditorUI*, CCMenuItemToggler*), MyEditorUI*, std::__ndk1::placeholders::__ph<1> const&, std::__ndk1::placeholders::__ph<2> const&> >, cocos2d::CCNode* (EditorUI*, CCMenuItemToggler*)>::target(std::type_info const&) const
PUBLIC 10dbc 0 std::__ndk1::__function::__func<std::__ndk1::__bind<cocos2d::CCNode* (MyEditorUI::*)(EditorUI*, CCMenuItemToggler*), MyEditorUI*, std::__ndk1::placeholders::__ph<1> const&, std::__ndk1::placeholders::__ph<2> const&>, std::__ndk1::allocator<std::__ndk1::__bind<cocos2d::CCNode* (MyEditorUI::*)(EditorUI*, CCMenuItemToggler*), MyEditorUI*, std::__ndk1::placeholders::__ph<1> const&, std::__ndk1::placeholders::__ph<2> const&> >, cocos2d::CCNode* (EditorUI*, CCMenuItemToggler*)>::target_type() const
PUBLIC 10dc8 0 std::__ndk1::__function::__base<void (EditorUI*, bool, cocos2d::CCNode*)>::~__base()
PUBLIC 10dcc 0 std::__ndk1::__function::__func<std::__ndk1::__bind<void (MyEditorUI::*)(EditorUI*, bool, cocos2d::CCNode*), MyEditorUI*, std::__ndk1::placeholders::__ph<1> const&, std::__ndk1::placeholders::__ph<2> const&, std::__ndk1::placeholders::__ph<3> const&>, std::__ndk1::allocator<std::__ndk1::__bind<void (MyEditorUI::*)(EditorUI*, bool, cocos2d::CCNode*), MyEditorUI*, std::__ndk1::placeholders::__ph<1> const&, std::__ndk1::placeholders::__ph<2> const&, std::__ndk1::placeholders::__ph<3> const&> >, void (EditorUI*, bool, cocos2d::CCNode*)>::~__func()
PUBLIC 10dd0 0 std::__ndk1::__function::__func<std::__ndk1::__bind<void (MyEditorUI::*)(EditorUI*, bool, cocos2d::CCNode*), MyEditorUI*, std::__ndk1::placeholders::__ph<1> const&, std::__ndk1::placeholders::__ph<2> const&, std::__ndk1::placeholders::__ph<3> const&>, std::__ndk1::allocator<std::__ndk1::__bind<void (MyEditorUI::*)(EditorUI*, bool, cocos2d::CCNode*), MyEditorUI*, std::__ndk1::placeholders::__ph<1> const&, std::__ndk1::placeholders::__ph<2> const&, std::__ndk1::placeholders::__ph<3> const&> >, void (EditorUI*, bool, cocos2d::CCNode*)>::__clone() const
PUBLIC 10e10 0 std::__ndk1::__function::__func<std::__ndk1::__bind<void (MyEditorUI::*)(EditorUI*, bool, cocos2d::CCNode*), MyEditorUI*, std::__ndk1::placeholders::__ph<1> const&, std::__ndk1::placeholders::__ph<2> const&, std::__ndk1::placeholders::__ph<3> const&>, std::__ndk1::allocator<std::__ndk1::__bind<void (MyEditorUI::*)(EditorUI*, bool, cocos2d::CCNode*), MyEditorUI*, std::__ndk1::placeholders::__ph<1> const&, std::__ndk1::placeholders::__ph<2> const&, std::__ndk1::placeholders::__ph<3> const&> >, void (EditorUI*, bool, cocos2d::CCNode*)>::__clone(std::__ndk1::__function::__base<void (EditorUI*, bool, cocos2d::CCNode*)>*) const
PUBLIC 10e30 0 std::__ndk1::__function::__func<std::__ndk1::__bind<void (MyEditorUI::*)(EditorUI*, bool, cocos2d::CCNode*), MyEditorUI*, std::__ndk1::placeholders::__ph<1> const&, std::__ndk1::placeholders::__ph<2> const&, std::__ndk1::placeholders::__ph<3> const&>, std::__ndk1::allocator<std::__ndk1::__bind<void (MyEditorUI::*)(EditorUI*, bool, cocos2d::CCNode*), MyEditorUI*, std::__ndk1::placeholders::__ph<1> const&, std::__ndk1::placeholders::__ph<2> const&, std::__ndk1::placeholders::__ph<3> const&> >, void (EditorUI*, bool, cocos2d::CCNode*)>::destroy()
PUBLIC 10e34 0 std::__ndk1::__function::__func<std::__ndk1::__bind<void (MyEditorUI::*)(EditorUI*, bool, cocos2d::CCNode*), MyEditorUI*, std::__ndk1::placeholders::__ph<1> const&, std::__ndk1::placeholders::__ph<2> const&, std::__ndk1::placeholders::__ph<3> const&>, std::__ndk1::allocator<std::__ndk1::__bind<void (MyEditorUI::*)(EditorUI*, bool, cocos2d::CCNode*), MyEditorUI*, std::__ndk1::placeholders::__ph<1> const&, std::__ndk1::placeholders::__ph<2> const&, std::__ndk1::placeholders::__ph<3> const&> >, void (EditorUI*, bool, cocos2d::CCNode*)>::destroy_deallocate()
PUBLIC 10e38 0 std::__ndk1::__function::__func<std::__ndk1::__bind<void (MyEditorUI::*)(EditorUI*, bool, cocos2d::CCNode*), MyEditorUI*, std::__ndk1::placeholders::__ph<1> const&, std::__ndk1::placeholders::__ph<2> const&, std::__ndk1::placeholders::__ph<3> const&>, std::__ndk1::allocator<std::__ndk1::__bind<void (MyEditorUI::*)(EditorUI*, bool, cocos2d::CCNode*), MyEditorUI*, std::__ndk1::placeholders::__ph<1> const&, std::__ndk1::placeholders::__ph<2> const&, std::__ndk1::placeholders::__ph<3> const&> >, void (EditorUI*, bool, cocos2d::CCNode*)>::operator()(EditorUI*&&, bool&&, cocos2d::CCNode*&&)
PUBLIC 10e60 0 std::__ndk1::__function::__func<std::__ndk1::__bind<void (MyEditorUI::*)(EditorUI*, bool, cocos2d::CCNode*), MyEditorUI*, std::__ndk1::placeholders::__ph<1> const&, std::__ndk1::placeholders::__ph<2> const&, std::__ndk1::placeholders::__ph<3> const&>, std::__ndk1::allocator<std::__ndk1::__bind<void (MyEditorUI::*)(EditorUI*, bool, cocos2d::CCNode*), MyEditorUI*, std::__ndk1::placeholders::__ph<1> const&, std::__ndk1::placeholders::__ph<2> const&, std::__ndk1::placeholders::__ph<3> const&> >, void (EditorUI*, bool, cocos2d::CCNode*)>::target(std::type_info const&) const
PUBLIC 10e7c 0 std::__ndk1::__function::__func<std::__ndk1::__bind<void (MyEditorUI::*)(EditorUI*, bool, cocos2d::CCNode*), MyEditorUI*, std::__ndk1::placeholders::__ph<1> const&, std::__ndk1::placeholders::__ph<2> const&, std::__ndk1::placeholders::__ph<3> const&>, std::__ndk1::allocator<std::__ndk1::__bind<void (MyEditorUI::*)(EditorUI*, bool, cocos2d::CCNode*), MyEditorUI*, std::__ndk1::placeholders::__ph<1> const&, std::__ndk1::placeholders::__ph<2> const&, std::__ndk1::placeholders::__ph<3> const&> >, void (EditorUI*, bool, cocos2d::CCNode*)>::target_type() const
PUBLIC 10e88 0 std::__ndk1::__tree<std::__ndk1::__value_type<std::__ndk1::basic_string<char, std::__ndk1::char_traits<char>, std::__ndk1::allocator<char> >, std::__ndk1::shared_ptr<geode::Hook> >, std::__ndk1::__map_value_compare<std::__ndk1::basic_string<char, std::__ndk1::char_traits<char>, std::__ndk1::allocator<char> >, std::__ndk1::__value_type<std::__ndk1::basic_string<char, std::__ndk1::char_traits<char>, std::__ndk1::allocator<char> >, std::__ndk1::shared_ptr<geode::Hook> >, std::__ndk1::less<std::__ndk1::basic_string<char, std::__ndk1::char_traits<char>, std::__ndk1::allocator<char> > >, true>, std::__ndk1::allocator<std::__ndk1::__value_type<std::__ndk1::basic_string<char, std::__ndk1::char_traits<char>, std::__ndk1::allocator<char> >, std::__ndk1::shared_ptr<geode::Hook> > > >::__emplace_unique_key_args<std::__ndk1::basic_string<char, std::__ndk1::char_traits<char>, std::__ndk1::allocator<char> >, std::__ndk1::piecewise_construct_t const&, std::__ndk1::tuple<std::__ndk1::basic_string<char, std::__ndk1::char_traits<char>, std::__ndk1::allocator<char> >&&>, std::__ndk1::tuple<> >(std::__ndk1::basic_string<char, std::__ndk1::char_traits<char>, std::__ndk1::allocator<char> > const&, std::__ndk1::piecewise_construct_t const&, std::__ndk1::tuple<std::__ndk1::basic_string<char, std::__ndk1::char_traits<char>, std::__ndk1::allocator<char> >&&>, std::__ndk1::tuple<>)
PUBLIC 10ff0 0 _GLOBAL__sub_I_main.cpp
PUBLIC m 11194 0 geodeImplicitEntry
PUBLIC 111d0 0 <.plt ELF section in razoom.recent_objects.android64.so>
STACK CFI INIT 7700 10 .cfa: sp 0 +
STACK CFI INIT 7710 8 .cfa: sp 0 +
STACK CFI INIT 7718 8 .cfa: sp 0 +
STACK CFI INIT 7720 14 .cfa: sp 0 +
STACK CFI INIT 7734 1c .cfa: sp 0 +
STACK CFI INIT 7750 10 .cfa: sp 0 +
STACK CFI INIT 7760 134 .cfa: sp 0 +
STACK CFI INIT 7894 84 .cfa: sp 0 +
STACK CFI INIT 7918 f4 .cfa: sp 0 +
STACK CFI INIT 7a0c a8 .cfa: sp 0 +
STACK CFI INIT 7ab4 7c .cfa: sp 0 +
STACK CFI INIT 7b30 14 .cfa: sp 0 +
STACK CFI INIT 7b44 40 .cfa: sp 0 +
STACK CFI INIT 7b84 28 .cfa: sp 0 +
STACK CFI INIT 7bac 190 .cfa: sp 0 +
STACK CFI INIT 7d3c 2c8 .cfa: sp 0 +
STACK CFI INIT 8004 8 .cfa: sp 0 +
STACK CFI INIT 800c 8 .cfa: sp 0 +
STACK CFI INIT 8014 44 .cfa: sp 0 +
STACK CFI INIT 8058 e8 .cfa: sp 0 +
STACK CFI INIT 8140 e8 .cfa: sp 0 +
STACK CFI INIT 8228 14 .cfa: sp 0 +
STACK CFI INIT 823c 10 .cfa: sp 0 +
STACK CFI INIT 824c 10 .cfa: sp 0 +
STACK CFI INIT 825c f0 .cfa: sp 0 +
STACK CFI INIT 834c 44 .cfa: sp 0 +
STACK CFI INIT 8390 c .cfa: sp 0 +
STACK CFI INIT 839c c .cfa: sp 0 +
STACK CFI INIT 83a8 2c .cfa: sp 0 +
STACK CFI INIT 83d4 280 .cfa: sp 0 +
STACK CFI INIT 8654 c .cfa: sp 0 +
STACK CFI INIT 8660 120 .cfa: sp 0 +
STACK CFI INIT 8780 488 .cfa: sp 0 +
STACK CFI INIT 8c08 c48 .cfa: sp 0 +
STACK CFI INIT 9850 134 .cfa: sp 0 +
STACK CFI INIT 9984 210 .cfa: sp 0 +
STACK CFI INIT 9b94 38c .cfa: sp 0 +
STACK CFI INIT 9f20 1c8 .cfa: sp 0 +
STACK CFI INIT a0e8 9bc .cfa: sp 0 +
STACK CFI INIT aaa4 2d4 .cfa: sp 0 +
STACK CFI INIT ad78 134 .cfa: sp 0 +
STACK CFI INIT aeac 120 .cfa: sp 0 +
STACK CFI INIT afcc 1c8 .cfa: sp 0 +
STACK CFI INIT b194 168 .cfa: sp 0 +
STACK CFI INIT b2fc fc .cfa: sp 0 +
STACK CFI INIT b3f8 30 .cfa: sp 0 +
STACK CFI INIT b560 30 .cfa: sp 0 +
STACK CFI INIT b590 98 .cfa: sp 0 +
STACK CFI INIT b628 59c .cfa: sp 0 +
STACK CFI INIT bbc4 8c .cfa: sp 0 +
STACK CFI INIT bc50 30 .cfa: sp 0 +
STACK CFI INIT bc80 8 .cfa: sp 0 +
STACK CFI INIT c47c 18 .cfa: sp 0 +
STACK CFI INIT c494 10 .cfa: sp 0 +
STACK CFI c498 .cfa: sp 16 +
STACK CFI c49c .cfa: x29 16 + .ra: .cfa -8 + ^ x29: .cfa -16 + ^
STACK CFI INIT c4a4 34 .cfa: sp 0 +
STACK CFI c4a8 .cfa: sp 32 +
STACK CFI c4b0 .cfa: x29 32 + x19: .cfa -16 + ^ .ra: .cfa -24 + ^ x29: .cfa -32 + ^
STACK CFI INIT c4d8 1b0 .cfa: sp 0 +
STACK CFI INIT c688 3c .cfa: sp 0 +
STACK CFI c690 .cfa: sp 32 +
STACK CFI c698 .cfa: x29 32 + x19: .cfa -16 + ^ .ra: .cfa -24 + ^ x29: .cfa -32 + ^
STACK CFI c6b4 .cfa: sp 32 +
STACK CFI c6bc .cfa: sp 0 +
STACK CFI INIT cc7c 50 .cfa: sp 0 +
STACK CFI cc80 .cfa: sp 32 +
STACK CFI cc88 .cfa: x29 32 + x19: .cfa -16 + ^ .ra: .cfa -24 + ^ x29: .cfa -32 + ^
STACK CFI cca0 .cfa: sp 32 +
STACK CFI cca8 .cfa: sp 0 +
STACK CFI ccac .cfa: x29 32 +
STACK CFI ccc0 .cfa: sp 32 +
STACK CFI ccc8 .cfa: sp 0 +
STACK CFI INIT cd40 7c .cfa: sp 0 +
STACK CFI cd44 .cfa: sp 48 +
STACK CFI cd50 .cfa: x29 48 + x19: .cfa -8 + ^ x20: .cfa -16 + ^ x21: .cfa -32 + ^ .ra: .cfa -40 + ^ x29: .cfa -48 + ^
STACK CFI cd9c .cfa: sp 48 +
STACK CFI cda8 .cfa: sp 0 +
STACK CFI cdac .cfa: sp 48 +
STACK CFI cdb8 .cfa: sp 0 +
STACK CFI INIT cdbc 4 .cfa: sp 0 +
STACK CFI INIT d390 34 .cfa: sp 0 +
STACK CFI d394 .cfa: sp 16 +
STACK CFI d398 .cfa: x29 16 + .ra: .cfa -8 + ^ x29: .cfa -16 + ^
STACK CFI INIT d3c4 80 .cfa: sp 0 +
STACK CFI d3c8 .cfa: sp 48 +
STACK CFI d3d4 .cfa: x29 48 + x19: .cfa -8 + ^ x20: .cfa -16 + ^ x21: .cfa -32 + ^ .ra: .cfa -40 + ^ x29: .cfa -48 + ^
STACK CFI d434 .cfa: sp 48 +
STACK CFI d440 .cfa: sp 0 +
STACK CFI INIT d444 24 .cfa: sp 0 +
STACK CFI d448 .cfa: sp 32 +
STACK CFI d450 .cfa: x29 32 + x19: .cfa -16 + ^ .ra: .cfa -24 + ^ x29: .cfa -32 + ^
STACK CFI d45c .cfa: sp 32 +
STACK CFI d464 .cfa: sp 0 +
STACK CFI INIT d468 14 .cfa: sp 0 +
STACK CFI d46c .cfa: sp 16 +
STACK CFI d470 .cfa: x29 16 + .ra: .cfa -8 + ^ x29: .cfa -16 + ^
STACK CFI INIT d4cc 30 .cfa: sp 0 +
STACK CFI d4d0 .cfa: sp 32 +
STACK CFI d4d8 .cfa: x29 32 + x19: .cfa -16 + ^ .ra: .cfa -24 + ^ x29: .cfa -32 + ^
STACK CFI d4f0 .cfa: sp 32 +
STACK CFI d4f8 .cfa: sp 0 +
STACK CFI INIT d4fc 148 .cfa: sp 0 +
STACK CFI d500 .cfa: sp 48 +
STACK CFI d50c .cfa: x29 48 + x19: .cfa -8 + ^ x20: .cfa -16 + ^ x21: .cfa -32 + ^ .ra: .cfa -40 + ^ x29: .cfa -48 + ^
STACK CFI d634 .cfa: sp 48 +
STACK CFI d640 .cfa: sp 0 +
STACK CFI INIT d644 7c .cfa: sp 0 +
STACK CFI d648 .cfa: sp 48 +
STACK CFI d654 .cfa: x29 48 + x19: .cfa -8 + ^ x20: .cfa -16 + ^ x21: .cfa -24 + ^ x22: .cfa -32 + ^ .ra: .cfa -40 + ^ x29: .cfa -48 + ^
STACK CFI d66c .cfa: sp 48 +
STACK CFI d678 .cfa: sp 0 +
STACK CFI d67c .cfa: x29 48 +
STACK CFI d6ac .cfa: sp 48 +
STACK CFI d6b8 .cfa: sp 0 +
STACK CFI d6bc .cfa: x29 48 +
STACK CFI INIT d6c0 68 .cfa: sp 0 +
STACK CFI d6c4 .cfa: sp 32 +
STACK CFI d6cc .cfa: x29 32 + x19: .cfa -8 + ^ x20: .cfa -16 + ^ .ra: .cfa -24 + ^ x29: .cfa -32 + ^
STACK CFI d6e4 .cfa: sp 32 +
STACK CFI d6ec .cfa: sp 0 +
STACK CFI d6f0 .cfa: x29 32 +
STACK CFI d71c .cfa: sp 32 +
STACK CFI d724 .cfa: sp 0 +
STACK CFI INIT d728 14 .cfa: sp 0 +
STACK CFI d72c .cfa: sp 16 +
STACK CFI d730 .cfa: x29 16 + .ra: .cfa -8 + ^ x29: .cfa -16 + ^
STACK CFI INIT d73c 4 .cfa: sp 0 +
STACK CFI INIT d740 14 .cfa: sp 0 +
STACK CFI INIT d754 3c8 .cfa: sp 0 +
STACK CFI INIT db1c 84 .cfa: sp 0 +
STACK CFI db24 .cfa: sp 32 +
STACK CFI db2c .cfa: x29 32 + x19: .cfa -8 + ^ x20: .cfa -16 + ^ .ra: .cfa -24 + ^ x29: .cfa -32 + ^
STACK CFI db6c .cfa: sp 32 +
STACK CFI db74 .cfa: sp 0 +
STACK CFI db7c .cfa: x29 32 +
STACK CFI INIT df6c 54 .cfa: sp 0 +
STACK CFI df70 .cfa: sp 32 +
STACK CFI df78 .cfa: x29 32 + x19: .cfa -8 + ^ x20: .cfa -16 + ^ .ra: .cfa -24 + ^ x29: .cfa -32 + ^
STACK CFI dfb4 .cfa: sp 32 +
STACK CFI dfbc .cfa: sp 0 +
STACK CFI INIT dfc0 50 .cfa: sp 0 +
STACK CFI dfc4 .cfa: sp 32 +
STACK CFI dfcc .cfa: x29 32 + x19: .cfa -16 + ^ .ra: .cfa -24 + ^ x29: .cfa -32 + ^
STACK CFI dfe4 .cfa: sp 32 +
STACK CFI dfec .cfa: sp 0 +
STACK CFI dff0 .cfa: x29 32 +
STACK CFI e004 .cfa: sp 32 +
STACK CFI e00c .cfa: sp 0 +
STACK CFI INIT e010 64 .cfa: sp 0 +
STACK CFI e014 .cfa: sp 32 +
STACK CFI e01c .cfa: x29 32 + x19: .cfa -16 + ^ .ra: .cfa -24 + ^ x29: .cfa -32 + ^
STACK CFI e048 .cfa: sp 32 +
STACK CFI e050 .cfa: sp 0 +
STACK CFI e054 .cfa: x29 32 +
STACK CFI e068 .cfa: sp 32 +
STACK CFI e070 .cfa: sp 0 +
STACK CFI INIT e074 1e8 .cfa: sp 0 +
STACK CFI e078 .cfa: sp 96 +
STACK CFI e090 .cfa: x29 56 + x19: .cfa -8 + ^ x20: .cfa -16 + ^ x21: .cfa -24 + ^ x22: .cfa -32 + ^ x23: .cfa -40 + ^ .ra: .cfa -48 + ^ x29: .cfa -56 + ^ v8: .cfa -64 + ^
STACK CFI e23c .cfa: sp 96 +
STACK CFI e254 .cfa: sp 0 +
STACK CFI e258 .cfa: x29 56 +
STACK CFI INIT f2c8 14 .cfa: sp 0 +
STACK CFI f2cc .cfa: sp 16 +
STACK CFI f2d0 .cfa: x29 16 + .ra: .cfa -8 + ^ x29: .cfa -16 + ^
STACK CFI INIT f504 14 .cfa: sp 0 +
STACK CFI f508 .cfa: sp 16 +
STACK CFI f50c .cfa: x29 16 + .ra: .cfa -8 + ^ x29: .cfa -16 + ^
STACK CFI INIT f518 c .cfa: sp 0 +
STACK CFI f51c .cfa: sp 16 +
STACK CFI f520 .cfa: x29 16 + .ra: .cfa -8 + ^ x29: .cfa -16 + ^
STACK CFI INIT f56c 38 .cfa: sp 0 +
STACK CFI f570 .cfa: sp 32 +
STACK CFI f578 .cfa: x29 32 + x19: .cfa -16 + ^ .ra: .cfa -24 + ^ x29: .cfa -32 + ^
STACK CFI f598 .cfa: sp 32 +
STACK CFI f5a0 .cfa: sp 0 +
STACK CFI INIT f5a4 c .cfa: sp 0 +
STACK CFI f5a8 .cfa: sp 16 +
STACK CFI f5ac .cfa: x29 16 + .ra: .cfa -8 + ^ x29: .cfa -16 + ^
STACK CFI INIT f5b0 5c .cfa: sp 0 +
STACK CFI f5bc .cfa: sp 32 +
STACK CFI f5c4 .cfa: x29 32 + x19: .cfa -8 + ^ x20: .cfa -16 + ^ .ra: .cfa -24 + ^ x29: .cfa -32 + ^
STACK CFI f600 .cfa: sp 32 +
STACK CFI f608 .cfa: sp 0 +
STACK CFI INIT f90c 4 .cfa: sp 0 +
STACK CFI INIT f910 14 .cfa: sp 0 +
STACK CFI INIT f924 14 .cfa: sp 0 +
STACK CFI INIT f938 14 .cfa: sp 0 +
STACK CFI INIT f94c 4 .cfa: sp 0 +
STACK CFI INIT f950 4 .cfa: sp 0 +
STACK CFI INIT f954 38 .cfa: sp 0 +
STACK CFI f958 .cfa: sp 32 +
STACK CFI f960 .cfa: x29 32 + x19: .cfa -16 + ^ .ra: .cfa -24 + ^ x29: .cfa -32 + ^
STACK CFI f980 .cfa: sp 32 +
STACK CFI f988 .cfa: sp 0 +
STACK CFI INIT f98c 18 .cfa: sp 0 +
STACK CFI INIT f9a4 4 .cfa: sp 0 +
STACK CFI INIT f9a8 4 .cfa: sp 0 +
STACK CFI INIT f9ac 10 .cfa: sp 0 +
STACK CFI INIT f9bc 1c .cfa: sp 0 +
STACK CFI INIT f9d8 c .cfa: sp 0 +
STACK CFI INIT 101d8 7c .cfa: sp 0 +
STACK CFI 101dc .cfa: sp 48 +
STACK CFI 101e8 .cfa: x29 48 + x19: .cfa -8 + ^ x20: .cfa -16 + ^ x21: .cfa -32 + ^ .ra: .cfa -40 + ^ x29: .cfa -48 + ^
STACK CFI 10244 .cfa: sp 48 +
STACK CFI 10250 .cfa: sp 0 +
STACK CFI INIT 10254 f8 .cfa: sp 0 +
STACK CFI 10258 .cfa: sp 64 +
STACK CFI 10268 .cfa: x29 64 + x19: .cfa -8 + ^ x20: .cfa -16 + ^ x21: .cfa -24 + ^ x22: .cfa -32 + ^ x23: .cfa -48 + ^ .ra: .cfa -56 + ^ x29: .cfa -64 + ^
STACK CFI 102c4 .cfa: sp 64 +
STACK CFI 102d4 .cfa: sp 0 +
STACK CFI 102d8 .cfa: x29 64 +
STACK CFI 102f4 .cfa: sp 64 +
STACK CFI 10304 .cfa: sp 0 +
STACK CFI 10308 .cfa: x29 64 +
STACK CFI 10338 .cfa: sp 64 +
STACK CFI 10348 .cfa: sp 0 +
STACK CFI INIT 1034c a8 .cfa: sp 0 +
STACK CFI 10350 .cfa: sp 64 +
STACK CFI 10360 .cfa: x29 64 + x19: .cfa -8 + ^ x20: .cfa -16 + ^ x21: .cfa -24 + ^ x22: .cfa -32 + ^ x23: .cfa -48 + ^ .ra: .cfa -56 + ^ x29: .cfa -64 + ^
STACK CFI 103dc .cfa: sp 64 +
STACK CFI 103ec .cfa: sp 0 +
STACK CFI 103f0 .cfa: x29 64 +
STACK CFI INIT 103f4 148 .cfa: sp 0 +
STACK CFI 103f8 .cfa: sp 48 +
STACK CFI 10404 .cfa: x29 48 + x19: .cfa -8 + ^ x20: .cfa -16 + ^ x21: .cfa -24 + ^ x22: .cfa -32 + ^ .ra: .cfa -40 + ^ x29: .cfa -48 + ^
STACK CFI 1052c .cfa: sp 48 +
STACK CFI 10538 .cfa: sp 0 +
STACK CFI INIT 1053c 3d8 .cfa: sp 0 +
STACK CFI 10540 .cfa: sp 64 +
STACK CFI 10550 .cfa: x29 64 + x19: .cfa -8 + ^ x20: .cfa -16 + ^ x21: .cfa -24 + ^ x22: .cfa -32 + ^ x23: .cfa -48 + ^ .ra: .cfa -56 + ^ x29: .cfa -64 + ^
STACK CFI 1078c .cfa: sp 64 +
STACK CFI 1079c .cfa: sp 0 +
STACK CFI 107a0 .cfa: x29 64 +
STACK CFI 108c4 .cfa: sp 64 +
STACK CFI 108d4 .cfa: sp 0 +
STACK CFI 108d8 .cfa: x29 64 +
STACK CFI 10900 .cfa: sp 64 +
STACK CFI 10910 .cfa: sp 0 +
STACK CFI INIT 10914 150 .cfa: sp 0 +
STACK CFI 10918 .cfa: sp 48 +
STACK CFI 10924 .cfa: x29 48 + x19: .cfa -8 + ^ x20: .cfa -16 + ^ x21: .cfa -24 + ^ x22: .cfa -32 + ^ .ra: .cfa -40 + ^ x29: .cfa -48 + ^
STACK CFI 109e4 .cfa: sp 48 +
STACK CFI 109f0 .cfa: sp 0 +
STACK CFI 109f4 .cfa: x29 48 +
STACK CFI 10a54 .cfa: sp 48 +
STACK CFI 10a60 .cfa: sp 0 +
STACK CFI INIT 10a64 8 .cfa: sp 0 +
STACK CFI INIT 10a6c 24 .cfa: sp 0 +
STACK CFI 10a70 .cfa: sp 32 +
STACK CFI 10a78 .cfa: x29 32 + x19: .cfa -16 + ^ .ra: .cfa -24 + ^ x29: .cfa -32 + ^
STACK CFI 10a84 .cfa: sp 32 +
STACK CFI 10a8c .cfa: sp 0 +
STACK CFI INIT 10a90 4 .cfa: sp 0 +
STACK CFI INIT 10a94 278 .cfa: sp 0 +
STACK CFI 10a98 .cfa: sp 96 +
STACK CFI 10ab0 .cfa: x29 64 + x19: .cfa -8 + ^ x20: .cfa -16 + ^ x21: .cfa -24 + ^ x22: .cfa -32 + ^ x23: .cfa -48 + ^ .ra: .cfa -56 + ^ x29: .cfa -64 + ^ v8: .cfa -72 + ^ v9: .cfa -80 + ^
STACK CFI 10cec .cfa: sp 96 +
STACK CFI 10d04 .cfa: sp 0 +
STACK CFI 10d08 .cfa: x29 64 +
STACK CFI INIT 10d0c 4 .cfa: sp 0 +
STACK CFI INIT 10d10 4 .cfa: sp 0 +
STACK CFI INIT 10d14 40 .cfa: sp 0 +
STACK CFI 10d18 .cfa: sp 32 +
STACK CFI 10d20 .cfa: x29 32 + x19: .cfa -16 + ^ .ra: .cfa -24 + ^ x29: .cfa -32 + ^
STACK CFI 10d48 .cfa: sp 32 +
STACK CFI 10d50 .cfa: sp 0 +
STACK CFI INIT 10d54 20 .cfa: sp 0 +
STACK CFI INIT 10d74 4 .cfa: sp 0 +
STACK CFI INIT 10d78 4 .cfa: sp 0 +
STACK CFI INIT 10d7c 24 .cfa: sp 0 +
STACK CFI INIT 10da0 1c .cfa: sp 0 +
STACK CFI INIT 10dbc c .cfa: sp 0 +
STACK CFI INIT 10dc8 4 .cfa: sp 0 +
STACK CFI INIT 10dcc 4 .cfa: sp 0 +
STACK CFI INIT 10dd0 40 .cfa: sp 0 +
STACK CFI 10dd4 .cfa: sp 32 +
STACK CFI 10ddc .cfa: x29 32 + x19: .cfa -16 + ^ .ra: .cfa -24 + ^ x29: .cfa -32 + ^
STACK CFI 10e04 .cfa: sp 32 +
STACK CFI 10e0c .cfa: sp 0 +
STACK CFI INIT 10e10 20 .cfa: sp 0 +
STACK CFI INIT 10e30 4 .cfa: sp 0 +
STACK CFI INIT 10e34 4 .cfa: sp 0 +
STACK CFI INIT 10e38 28 .cfa: sp 0 +
STACK CFI INIT 10e60 1c .cfa: sp 0 +
STACK CFI INIT 10e7c c .cfa: sp 0 +
STACK CFI INIT 10e88 168 .cfa: sp 0 +
STACK CFI 10e8c .cfa: sp 80 +
STACK CFI 10ea0 .cfa: x29 80 + x19: .cfa -8 + ^ x20: .cfa -16 + ^ x21: .cfa -24 + ^ x22: .cfa -32 + ^ x23: .cfa -40 + ^ x24: .cfa -48 + ^ x25: .cfa -56 + ^ x26: .cfa -64 + ^ .ra: .cfa -72 + ^ x29: .cfa -80 + ^
STACK CFI 10fd8 .cfa: sp 80 +
STACK CFI 10fec .cfa: sp 0 +
STACK CFI INIT 11194 3c .cfa: sp 0 +
STACK CFI 11198 .cfa: sp 32 +
STACK CFI 111a0 .cfa: x29 32 + x19: .cfa -16 + ^ .ra: .cfa -24 + ^ x29: .cfa -32 + ^
STACK CFI 111ac .cfa: sp 32 +
STACK CFI 111b4 .cfa: sp 0 +
STACK CFI 111b8 .cfa: x29 32 +
STACK CFI 111c4 .cfa: sp 32 +
STACK CFI 111cc .cfa: sp 0 +
STACK CFI INIT bc88 7f4 .cfa: sp 0 +
STACK CFI bc8c .cfa: sp 240 +
STACK CFI bca8 .cfa: x29 96 + x19: .cfa -8 + ^ x20: .cfa -16 + ^ x21: .cfa -24 + ^ x22: .cfa -32 + ^ x23: .cfa -40 + ^ x24: .cfa -48 + ^ x25: .cfa -56 + ^ x26: .cfa -64 + ^ x27: .cfa -72 + ^ x28: .cfa -80 + ^ .ra: .cfa -88 + ^ x29: .cfa -96 + ^
STACK CFI c08c .cfa: sp 240 +
STACK CFI c0a8 .cfa: sp 0 +
STACK CFI c0ac .cfa: x29 96 +
STACK CFI c324 .cfa: sp 240 +
STACK CFI c340 .cfa: sp 0 +
STACK CFI c344 .cfa: x29 96 +
STACK CFI INIT c6c4 5b8 .cfa: sp 0 +
STACK CFI c6c8 .cfa: sp 224 +
STACK CFI c6e4 .cfa: x29 96 + x19: .cfa -8 + ^ x20: .cfa -16 + ^ x21: .cfa -24 + ^ x22: .cfa -32 + ^ x23: .cfa -40 + ^ x24: .cfa -48 + ^ x25: .cfa -56 + ^ x26: .cfa -64 + ^ x27: .cfa -80 + ^ .ra: .cfa -88 + ^ x29: .cfa -96 + ^
STACK CFI caa4 .cfa: sp 224 +
STACK CFI cac0 .cfa: sp 0 +
STACK CFI cac4 .cfa: x29 96 +
STACK CFI INIT cccc 74 .cfa: sp 0 +
STACK CFI ccd0 .cfa: sp 48 +
STACK CFI ccdc .cfa: x29 32 + x19: .cfa -8 + ^ x20: .cfa -16 + ^ .ra: .cfa -24 + ^ x29: .cfa -32 + ^
STACK CFI cd28 .cfa: sp 48 +
STACK CFI cd34 .cfa: sp 0 +
STACK CFI cd38 .cfa: x29 32 +
STACK CFI INIT cdc0 5d0 .cfa: sp 0 +
STACK CFI cdc4 .cfa: sp 496 +
STACK CFI cde0 .cfa: x29 96 + x19: .cfa -8 + ^ x20: .cfa -16 + ^ x21: .cfa -24 + ^ x22: .cfa -32 + ^ x23: .cfa -40 + ^ x24: .cfa -48 + ^ x25: .cfa -56 + ^ x26: .cfa -64 + ^ x27: .cfa -72 + ^ x28: .cfa -80 + ^ .ra: .cfa -88 + ^ x29: .cfa -96 + ^
STACK CFI d26c .cfa: sp 496 +
STACK CFI d288 .cfa: sp 0 +
STACK CFI d28c .cfa: x29 96 +
STACK CFI INIT d47c 50 .cfa: sp 0 +
STACK CFI d480 .cfa: sp 32 +
STACK CFI d488 .cfa: x29 32 + x19: .cfa -8 + ^ x20: .cfa -16 + ^ .ra: .cfa -24 + ^ x29: .cfa -32 + ^
STACK CFI INIT dba0 3cc .cfa: sp 0 +
STACK CFI dba4 .cfa: sp 224 +
STACK CFI dbbc .cfa: x29 80 + x19: .cfa -8 + ^ x20: .cfa -16 + ^ x21: .cfa -24 + ^ x22: .cfa -32 + ^ x23: .cfa -40 + ^ x24: .cfa -48 + ^ x25: .cfa -56 + ^ x26: .cfa -64 + ^ .ra: .cfa -72 + ^ x29: .cfa -80 + ^
STACK CFI dea8 .cfa: sp 224 +
STACK CFI dec0 .cfa: sp 0 +
STACK CFI dec4 .cfa: x29 80 +
STACK CFI INIT e25c 8d4 .cfa: sp 0 +
STACK CFI e260 .cfa: sp 256 +
STACK CFI e27c .cfa: x29 96 + x19: .cfa -8 + ^ x20: .cfa -16 + ^ x21: .cfa -24 + ^ x22: .cfa -32 + ^ x23: .cfa -40 + ^ x24: .cfa -48 + ^ x25: .cfa -56 + ^ x26: .cfa -64 + ^ x27: .cfa -72 + ^ x28: .cfa -80 + ^ .ra: .cfa -88 + ^ x29: .cfa -96 + ^
STACK CFI e700 .cfa: sp 256 +
STACK CFI e71c .cfa: sp 0 +
STACK CFI e720 .cfa: x29 96 +
STACK CFI e9e4 .cfa: sp 256 +
STACK CFI ea00 .cfa: sp 0 +
STACK CFI ea04 .cfa: x29 96 +
STACK CFI INIT eb30 4a0 .cfa: sp 0 +
STACK CFI eb34 .cfa: sp 208 +
STACK CFI eb50 .cfa: x29 96 + x19: .cfa -8 + ^ x20: .cfa -16 + ^ x21: .cfa -24 + ^ x22: .cfa -32 + ^ x23: .cfa -40 + ^ x24: .cfa -48 + ^ x25: .cfa -56 + ^ x26: .cfa -64 + ^ x27: .cfa -72 + ^ x28: .cfa -80 + ^ .ra: .cfa -88 + ^ x29: .cfa -96 + ^
STACK CFI eea8 .cfa: sp 208 +
STACK CFI eec4 .cfa: sp 0 +
STACK CFI eec8 .cfa: x29 96 +
STACK CFI INIT efd0 2f8 .cfa: sp 0 +
STACK CFI efd4 .cfa: sp 160 +
STACK CFI efe8 .cfa: x29 64 + x19: .cfa -8 + ^ x20: .cfa -16 + ^ x21: .cfa -24 + ^ x22: .cfa -32 + ^ x23: .cfa -40 + ^ x24: .cfa -48 + ^ .ra: .cfa -56 + ^ x29: .cfa -64 + ^
STACK CFI f248 .cfa: sp 160 +
STACK CFI f25c .cfa: sp 0 +
STACK CFI f260 .cfa: x29 64 +
STACK CFI INIT f2dc 228 .cfa: sp 0 +
STACK CFI f2e0 .cfa: sp 96 +
STACK CFI f2f8 .cfa: x29 96 + x19: .cfa -8 + ^ x20: .cfa -16 + ^ x21: .cfa -24 + ^ x22: .cfa -32 + ^ x23: .cfa -40 + ^ x24: .cfa -48 + ^ x25: .cfa -56 + ^ x26: .cfa -64 + ^ x27: .cfa -80 + ^ .ra: .cfa -88 + ^ x29: .cfa -96 + ^
STACK CFI f49c .cfa: sp 96 +
STACK CFI f4b4 .cfa: sp 0 +
STACK CFI f4b8 .cfa: x29 96 +
STACK CFI INIT f524 48 .cfa: sp 0 +
STACK CFI f528 .cfa: sp 32 +
STACK CFI f530 .cfa: x29 32 + x19: .cfa -8 + ^ x20: .cfa -16 + ^ .ra: .cfa -24 + ^ x29: .cfa -32 + ^
STACK CFI INIT f60c 1c .cfa: sp 0 +
STACK CFI f610 .cfa: sp 16 +
STACK CFI f614 .cfa: x29 16 + .ra: .cfa -8 + ^ x29: .cfa -16 + ^
STACK CFI f61c .cfa: sp 16 +
STACK CFI f620 .cfa: sp 0 +
STACK CFI f624 .cfa: x29 16 +
STACK CFI INIT f628 1c .cfa: sp 0 +
STACK CFI f62c .cfa: sp 16 +
STACK CFI f630 .cfa: x29 16 + .ra: .cfa -8 + ^ x29: .cfa -16 + ^
STACK CFI f638 .cfa: sp 16 +
STACK CFI f63c .cfa: sp 0 +
STACK CFI f640 .cfa: x29 16 +
STACK CFI INIT f644 1e0 .cfa: sp 0 +
STACK CFI f648 .cfa: sp 144 +
STACK CFI f654 .cfa: x29 32 + x19: .cfa -8 + ^ x20: .cfa -16 + ^ .ra: .cfa -24 + ^ x29: .cfa -32 + ^
STACK CFI f7b8 .cfa: sp 144 +
STACK CFI f7c4 .cfa: sp 0 +
STACK CFI f7c8 .cfa: x29 32 +
STACK CFI INIT f824 74 .cfa: sp 0 +
STACK CFI f828 .cfa: sp 48 +
STACK CFI f834 .cfa: x29 32 + x19: .cfa -8 + ^ x20: .cfa -16 + ^ .ra: .cfa -24 + ^ x29: .cfa -32 + ^
STACK CFI f880 .cfa: sp 48 +
STACK CFI f88c .cfa: sp 0 +
STACK CFI f890 .cfa: x29 32 +
STACK CFI INIT f898 74 .cfa: sp 0 +
STACK CFI f89c .cfa: sp 48 +
STACK CFI f8a8 .cfa: x29 32 + x19: .cfa -8 + ^ x20: .cfa -16 + ^ .ra: .cfa -24 + ^ x29: .cfa -32 + ^
STACK CFI f8f4 .cfa: sp 48 +
STACK CFI f900 .cfa: sp 0 +
STACK CFI f904 .cfa: x29 32 +
STACK CFI INIT f9e4 7f4 .cfa: sp 0 +
STACK CFI f9e8 .cfa: sp 96 +
STACK CFI fa00 .cfa: x29 96 + x19: .cfa -8 + ^ x20: .cfa -16 + ^ x21: .cfa -24 + ^ x22: .cfa -32 + ^ x23: .cfa -40 + ^ x24: .cfa -48 + ^ x25: .cfa -56 + ^ x26: .cfa -64 + ^ x27: .cfa -72 + ^ x28: .cfa -80 + ^ .ra: .cfa -88 + ^ x29: .cfa -96 + ^
STACK CFI 100a4 .cfa: sp 96 +
STACK CFI 100bc .cfa: sp 0 +
STACK CFI 100c0 .cfa: x29 96 +
STACK CFI INIT 10ff0 1a4 .cfa: sp 0 +
STACK CFI 10ff4 .cfa: sp 96 +
STACK CFI 1100c .cfa: x29 96 + x19: .cfa -8 + ^ x20: .cfa -16 + ^ x21: .cfa -24 + ^ x22: .cfa -32 + ^ x23: .cfa -40 + ^ x24: .cfa -48 + ^ x25: .cfa -56 + ^ x26: .cfa -64 + ^ x27: .cfa -80 + ^ .ra: .cfa -88 + ^ x29: .cfa -96 + ^
STACK CFI 11164 .cfa: sp 96 +
STACK CFI 1117c .cfa: sp 0 +
STACK CFI 11180 .cfa: x29 96 +
