MODULE Linux arm64 07124C339BAEB372381F18003ADEBE260 capeling.startpos_switcher.android64.so
INFO CODE_ID 334C1207AE9B72B3381F18003ADEBE2670B84622
INFO GENERATOR mozilla/dump_syms 2.3.4
PUBLIC f390 0 __on_dlclose
PUBLIC f3a0 0 __emutls_unregister_key
PUBLIC f3a8 0 __on_dlclose_late
PUBLIC f3b0 0 __atexit_handler_wrapper
PUBLIC f3c4 0 atexit
PUBLIC f3e0 0 pthread_atfork
PUBLIC f3f0 0 unwind_phase2
PUBLIC f524 0 _Unwind_Resume
PUBLIC f5a8 0 unwind_phase2_forced
PUBLIC m f69c 0 __unw_init_local
PUBLIC m f744 0 __unw_get_reg
PUBLIC f7c0 0 __unw_step_stage2
PUBLIC m f7d4 0 __unw_get_proc_info
PUBLIC m f814 0 __unw_resume
PUBLIC f83c 0 libunwind::CFI_Parser<libunwind::LocalAddressSpace>::decodeFDE(libunwind::LocalAddressSpace&, unsigned long, libunwind::CFI_Parser<libunwind::LocalAddressSpace>::FDE_Info*, libunwind::CFI_Parser<libunwind::LocalAddressSpace>::CIE_Info*, bool)
PUBLIC f9cc 0 libunwind::CFI_Parser<libunwind::LocalAddressSpace>::parseCIE(libunwind::LocalAddressSpace&, unsigned long, libunwind::CFI_Parser<libunwind::LocalAddressSpace>::CIE_Info*)
PUBLIC fc94 0 libunwind::AbstractUnwindCursor::~AbstractUnwindCursor()
PUBLIC fc9c 0 libunwind::UnwindCursor<libunwind::LocalAddressSpace, libunwind::Registers_arm64>::~UnwindCursor()
PUBLIC fca4 0 libunwind::UnwindCursor<libunwind::LocalAddressSpace, libunwind::Registers_arm64>::validReg(int)
PUBLIC fce8 0 libunwind::UnwindCursor<libunwind::LocalAddressSpace, libunwind::Registers_arm64>::getReg(int)
PUBLIC fdd0 0 libunwind::UnwindCursor<libunwind::LocalAddressSpace, libunwind::Registers_arm64>::setReg(int, unsigned long)
PUBLIC feb8 0 libunwind::UnwindCursor<libunwind::LocalAddressSpace, libunwind::Registers_arm64>::validFloatReg(int)
PUBLIC fecc 0 libunwind::UnwindCursor<libunwind::LocalAddressSpace, libunwind::Registers_arm64>::getFloatReg(int)
PUBLIC fedc 0 libunwind::UnwindCursor<libunwind::LocalAddressSpace, libunwind::Registers_arm64>::setFloatReg(int, double)
PUBLIC feec 0 libunwind::UnwindCursor<libunwind::LocalAddressSpace, libunwind::Registers_arm64>::step(bool)
PUBLIC ffdc 0 libunwind::UnwindCursor<libunwind::LocalAddressSpace, libunwind::Registers_arm64>::getInfo(unw_proc_info_t*)
PUBLIC 10020 0 libunwind::UnwindCursor<libunwind::LocalAddressSpace, libunwind::Registers_arm64>::jumpto()
PUBLIC 1002c 0 libunwind::UnwindCursor<libunwind::LocalAddressSpace, libunwind::Registers_arm64>::isSignalFrame()
PUBLIC 10038 0 libunwind::UnwindCursor<libunwind::LocalAddressSpace, libunwind::Registers_arm64>::getFunctionName(char*, unsigned long, unsigned long*)
PUBLIC 10064 0 libunwind::UnwindCursor<libunwind::LocalAddressSpace, libunwind::Registers_arm64>::setInfoBasedOnIPRegister(bool)
PUBLIC 102e4 0 libunwind::UnwindCursor<libunwind::LocalAddressSpace, libunwind::Registers_arm64>::getRegisterName(int)
PUBLIC 102f0 0 libunwind::UnwindCursor<libunwind::LocalAddressSpace, libunwind::Registers_arm64>::stepThroughSigReturn(libunwind::Registers_arm64&)
PUBLIC 10410 0 libunwind::DwarfInstructions<libunwind::LocalAddressSpace, libunwind::Registers_arm64>::stepWithDwarf(libunwind::LocalAddressSpace&, unsigned long, unsigned long, libunwind::Registers_arm64&, bool&, bool)
PUBLIC 10898 0 libunwind::CFI_Parser<libunwind::LocalAddressSpace>::parseFDEInstructions(libunwind::LocalAddressSpace&, libunwind::CFI_Parser<libunwind::LocalAddressSpace>::FDE_Info const&, libunwind::CFI_Parser<libunwind::LocalAddressSpace>::CIE_Info const&, unsigned long, int, libunwind::CFI_Parser<libunwind::LocalAddressSpace>::PrologInfo*)
PUBLIC 114e0 0 libunwind::DwarfInstructions<libunwind::LocalAddressSpace, libunwind::Registers_arm64>::getCFA(libunwind::LocalAddressSpace&, libunwind::CFI_Parser<libunwind::LocalAddressSpace>::PrologInfo const&, libunwind::Registers_arm64 const&)
PUBLIC 11614 0 libunwind::DwarfInstructions<libunwind::LocalAddressSpace, libunwind::Registers_arm64>::getSavedRegister(libunwind::LocalAddressSpace&, libunwind::Registers_arm64 const&, unsigned long, libunwind::CFI_Parser<libunwind::LocalAddressSpace>::RegisterLocation const&)
PUBLIC 11824 0 libunwind::LocalAddressSpace::getEncodedP(unsigned long&, unsigned long, unsigned char, unsigned long)
PUBLIC 11bb0 0 libunwind::LocalAddressSpace::getULEB128(unsigned long&, unsigned long)
PUBLIC 11d78 0 libunwind::DwarfInstructions<libunwind::LocalAddressSpace, libunwind::Registers_arm64>::evaluateExpression(unsigned long, libunwind::LocalAddressSpace&, libunwind::Registers_arm64 const&, unsigned long)
PUBLIC 12734 0 libunwind::UnwindCursor<libunwind::LocalAddressSpace, libunwind::Registers_arm64>::getInfoFromDwarfSection(unsigned long, libunwind::UnwindInfoSections const&, unsigned int)
PUBLIC 12a08 0 libunwind::findUnwindSectionsByPhdr(dl_phdr_info*, unsigned long, void*)
PUBLIC 12b3c 0 libunwind::EHHeaderParser<libunwind::LocalAddressSpace>::decodeEHHdr(libunwind::LocalAddressSpace&, unsigned long, unsigned long, libunwind::EHHeaderParser<libunwind::LocalAddressSpace>::EHHeaderInfo&)
PUBLIC 12c5c 0 libunwind::CFI_Parser<libunwind::LocalAddressSpace>::findFDE(libunwind::LocalAddressSpace&, unsigned long, unsigned long, unsigned long, unsigned long, libunwind::CFI_Parser<libunwind::LocalAddressSpace>::FDE_Info*, libunwind::CFI_Parser<libunwind::LocalAddressSpace>::CIE_Info*)
PUBLIC 12e24 0 libunwind::EHHeaderParser<libunwind::LocalAddressSpace>::findFDE(libunwind::LocalAddressSpace&, unsigned long, unsigned long, unsigned int, libunwind::CFI_Parser<libunwind::LocalAddressSpace>::FDE_Info*, libunwind::CFI_Parser<libunwind::LocalAddressSpace>::CIE_Info*)
PUBLIC 12f8c 0 libunwind::EHHeaderParser<libunwind::LocalAddressSpace>::getTableEntrySize(unsigned char)
PUBLIC 13088 0 libunwind::Registers_arm64::getRegisterName(int)
PUBLIC 130b8 0 __libunwind_Registers_arm64_jumpto
PUBLIC m 13148 0 __unw_getcontext
PUBLIC 131f0 0 __aarch64_ldadd8_relax
PUBLIC 13220 0 init_have_lse_atomics
PUBLIC 132b8 0 __init_cpu_features_constructor
PUBLIC 13854 0 __init_cpu_features
PUBLIC 138e0 0 __aarch64_ldadd8_acq_rel
PUBLIC 13910 0 HookPlayLayer::addObject(GameObject*)
PUBLIC 13b1c 0 HookPlayLayer::updateStartPos(int)
PUBLIC 13c1c 0 geode::modifier::FieldIntermediate<HookPlayLayer, PlayLayer>::self()
PUBLIC 13db0 0 HookPlayLayer::createObjectsFromSetupFinished()
PUBLIC 13e54 0 __cxx_global_var_init
PUBLIC 13eb4 0 geode::modifier::ModifyBase<geode::modifier::ModifyDerive<HookPlayLayer, PlayLayer> >::~ModifyBase()
PUBLIC 13ed0 0 __cxx_global_var_init.1
PUBLIC 13f30 0 geode::modifier::ModifyBase<geode::modifier::ModifyDerive<HookUILayer, UILayer> >::~ModifyBase()
PUBLIC 13f4c 0 std::__ndk1::vector<GameObject*, std::__ndk1::allocator<GameObject*> >::__throw_length_error[abi:ne180000]() const
PUBLIC 13f60 0 __clang_call_terminate
PUBLIC 13f70 0 std::__ndk1::__throw_length_error[abi:ne180000](char const*)
PUBLIC 13fc0 0 std::length_error::length_error[abi:ne180000](char const*)
PUBLIC 13ff0 0 std::__throw_bad_array_new_length([abi:ne180000], void)
PUBLIC 14024 0 geode::modifier::FieldContainer::getField(unsigned long)
PUBLIC 142dc 0 geode::modifier::FieldContainer::setField(unsigned long, unsigned long, std::__ndk1::function<void (void*)>)
PUBLIC 143f0 0 geode::modifier::FieldIntermediate<HookPlayLayer, PlayLayer>::fieldDestructor(void*)
PUBLIC 14408 0 std::__ndk1::vector<void*, std::__ndk1::allocator<void*> >::__throw_length_error[abi:ne180000]() const
PUBLIC 1441c 0 std::__ndk1::vector<std::__ndk1::function<void (void*)>, std::__ndk1::allocator<std::__ndk1::function<void (void*)> > >::__push_back_slow_path<std::__ndk1::function<void (void*)> >(std::__ndk1::function<void (void*)>&&)
PUBLIC 14648 0 std::__ndk1::vector<std::__ndk1::function<void (void*)>, std::__ndk1::allocator<std::__ndk1::function<void (void*)> > >::__throw_length_error[abi:ne180000]() const
PUBLIC 1465c 0 std::__ndk1::vector<void*, std::__ndk1::allocator<void*> >::__throw_out_of_range[abi:ne180000]() const
PUBLIC 14670 0 std::__ndk1::__throw_out_of_range[abi:ne180000](char const*)
PUBLIC 146c0 0 std::out_of_range::out_of_range[abi:ne180000](char const*)
PUBLIC 146f0 0 std::__ndk1::vector<std::__ndk1::function<void (void*)>, std::__ndk1::allocator<std::__ndk1::function<void (void*)> > >::__throw_out_of_range[abi:ne180000]() const
PUBLIC 14704 0 std::__ndk1::__function::__base<void (void*)>::~__base()
PUBLIC 14708 0 std::__ndk1::__function::__func<void (*)(void*), std::__ndk1::allocator<void (*)(void*)>, void (void*)>::~__func()
PUBLIC 1470c 0 std::__ndk1::__function::__func<void (*)(void*), std::__ndk1::allocator<void (*)(void*)>, void (void*)>::__clone() const
PUBLIC 14744 0 std::__ndk1::__function::__func<void (*)(void*), std::__ndk1::allocator<void (*)(void*)>, void (void*)>::__clone(std::__ndk1::__function::__base<void (void*)>*) const
PUBLIC 1475c 0 std::__ndk1::__function::__func<void (*)(void*), std::__ndk1::allocator<void (*)(void*)>, void (void*)>::destroy()
PUBLIC 14760 0 std::__ndk1::__function::__func<void (*)(void*), std::__ndk1::allocator<void (*)(void*)>, void (void*)>::destroy_deallocate()
PUBLIC 14764 0 std::__ndk1::__function::__func<void (*)(void*), std::__ndk1::allocator<void (*)(void*)>, void (void*)>::operator()(void*&&)
PUBLIC 14774 0 std::__ndk1::__function::__func<void (*)(void*), std::__ndk1::allocator<void (*)(void*)>, void (void*)>::target(std::type_info const&) const
PUBLIC 14790 0 std::__ndk1::__function::__func<void (*)(void*), std::__ndk1::allocator<void (*)(void*)>, void (void*)>::target_type() const
PUBLIC 1479c 0 std::__ndk1::__introsort<std::__ndk1::_ClassicAlgPolicy, HookPlayLayer::createObjectsFromSetupFinished()::$_0&, GameObject**, false>(GameObject**, GameObject**, HookPlayLayer::createObjectsFromSetupFinished()::$_0&, std::__ndk1::iterator_traits<GameObject**>::difference_type, bool)
PUBLIC 151fc 0 _ZNSt6__ndk124__sort5_maybe_branchlessB8ne180000INS_17_ClassicAlgPolicyERZN13HookPlayLayer30createObjectsFromSetupFinishedEvE3$_0PP10GameObjectTnNS_9enable_ifIXntsr21__use_branchless_sortIT0_T1_EE5valueEiE4typeELi0EEEvSA_SA_SA_SA_SA_S9_
PUBLIC 15404 0 std::__ndk1::__sort3[abi:ne180000]<std::__ndk1::_ClassicAlgPolicy, HookPlayLayer::createObjectsFromSetupFinished()::$_0&, GameObject**>(GameObject**, GameObject**, GameObject**, HookPlayLayer::createObjectsFromSetupFinished()::$_0&)
PUBLIC 15584 0 std::__ndk1::__insertion_sort_incomplete[abi:ne180000]<std::__ndk1::_ClassicAlgPolicy, HookPlayLayer::createObjectsFromSetupFinished()::$_0&, GameObject**>(GameObject**, GameObject**, HookPlayLayer::createObjectsFromSetupFinished()::$_0&)
PUBLIC 15830 0 geode::modifier::ModifyBase<geode::modifier::ModifyDerive<HookPlayLayer, PlayLayer> >::ModifyBase()
PUBLIC 15c2c 0 geode::modifier::ModifyDerive<HookPlayLayer, PlayLayer>::apply()
PUBLIC 160b0 0 std::__ndk1::shared_ptr<geode::Hook>::~shared_ptr[abi:ne180000]()
PUBLIC 16100 0 geode::impl::ResultData<geode::Hook*, std::__ndk1::basic_string<char, std::__ndk1::char_traits<char>, std::__ndk1::allocator<char> > >::~ResultData()
PUBLIC 16174 0 std::__ndk1::vector<std::__ndk1::basic_string<char, std::__ndk1::char_traits<char>, std::__ndk1::allocator<char> >, std::__ndk1::allocator<std::__ndk1::basic_string<char, std::__ndk1::char_traits<char>, std::__ndk1::allocator<char> > > >::~vector[abi:ne180000]()
PUBLIC 161f0 0 geode::modifier::ModifyBase<geode::modifier::ModifyDerive<HookPlayLayer, PlayLayer> >::apply()
PUBLIC 161f4 0 _ZN5geode15UnwrapExceptionC2IRPNS_4HookEQsr4implE18IsStringStreamableIT_EEENS_4impl5OkTagEOS5_
PUBLIC 16348 0 std::__ndk1::__throw_bad_variant_access[abi:ne180000]()
PUBLIC 1637c 0 std::__ndk1::basic_stringstream<char, std::__ndk1::char_traits<char>, std::__ndk1::allocator<char> >::basic_stringstream[abi:ne180000]()
PUBLIC m 164a8 0 std::__ndk1::basic_stringstream<char, std::__ndk1::char_traits<char>, std::__ndk1::allocator<char> >::~basic_stringstream()
PUBLIC 16528 0 geode::UnwrapException::~UnwrapException()
PUBLIC 1654c 0 std::__ndk1::__put_character_sequence[abi:ne180000]<char, std::__ndk1::char_traits<char> >(std::__ndk1::basic_ostream<char, std::__ndk1::char_traits<char> >, std::__ndk1::basic_ostream const*, unsigned long)
PUBLIC 166f0 0 std::__ndk1::__pad_and_output[abi:ne180000]<char, std::__ndk1::char_traits<char> >(std::__ndk1::char_traits<char>, std::__ndk1::ostreambuf_iterator const*, std::__ndk1::ostreambuf_iterator const, std::__ndk1::ostreambuf_iterator const, std::__ndk1::ios_base&, std::__ndk1::ostreambuf_iterator)
PUBLIC 168cc 0 std::__ndk1::basic_string<char, std::__ndk1::char_traits<char>, std::__ndk1::allocator<char> >::__throw_length_error[abi:ne180000]() const
PUBLIC 168e0 0 std::__ndk1::basic_stringbuf<char, std::__ndk1::char_traits<char>, std::__ndk1::allocator<char> >::str[abi:ne180000]() &&
PUBLIC 16a58 0 std::__ndk1::basic_stringbuf<char, std::__ndk1::char_traits<char>, std::__ndk1::allocator<char> >::__init_buf_ptrs[abi:ne180000]()
PUBLIC 16ba0 0 std::__ndk1::vector<std::__ndk1::basic_string<char, std::__ndk1::char_traits<char>, std::__ndk1::allocator<char> >, std::__ndk1::allocator<std::__ndk1::basic_string<char, std::__ndk1::char_traits<char>, std::__ndk1::allocator<char> > > >::__push_back_slow_path<std::__ndk1::basic_string<char, std::__ndk1::char_traits<char>, std::__ndk1::allocator<char> > const&>(std::__ndk1::basic_string<char, std::__ndk1::char_traits<char>, std::__ndk1::allocator<char> > const&)
PUBLIC 16dc8 0 std::__ndk1::basic_string<char, std::__ndk1::char_traits<char>, std::__ndk1::allocator<char> >::__init_copy_ctor_external(char const*, unsigned long)
PUBLIC 16e48 0 std::__ndk1::__split_buffer<std::__ndk1::basic_string<char, std::__ndk1::char_traits<char>, std::__ndk1::allocator<char> >, std::__ndk1::allocator<std::__ndk1::basic_string<char, std::__ndk1::char_traits<char>, std::__ndk1::allocator<char> > >&>::~__split_buffer()
PUBLIC 16eb0 0 std::__ndk1::vector<std::__ndk1::basic_string<char, std::__ndk1::char_traits<char>, std::__ndk1::allocator<char> >, std::__ndk1::allocator<std::__ndk1::basic_string<char, std::__ndk1::char_traits<char>, std::__ndk1::allocator<char> > > >::__throw_length_error[abi:ne180000]() const
PUBLIC 16ec4 0 std::__ndk1::__variant_detail::__visitation::__base::__dispatcher<(unsigned long)0>::__dispatch[abi:ne180000]<std::__ndk1::__variant_detail::__dtor<std::__ndk1::__variant_detail::__traits<geode::Hook*, std::__ndk1::basic_string<char, std::__ndk1::char_traits<char>, std::__ndk1::allocator<char> > >, (std::__ndk1::__variant_detail::_Trait)1>::__destroy[abi:ne180000]()::{lambda(auto:1&)#1}, std::__ndk1::__variant_detail::__base<(std::__ndk1::__variant_detail::__traits<geode::Hook*, std::__ndk1::basic_string<char, std::__ndk1::char_traits<char>, std::__ndk1::allocator<char> > >)1, geode::Hook, std::__ndk1::allocator<char> >&>(std::__ndk1::__variant_detail::__dtor<std::__ndk1::__variant_detail::__traits<geode::Hook*, std::__ndk1::basic_string<char, std::__ndk1::char_traits<char>, std::__ndk1::allocator<char> > >, (std::__ndk1::__variant_detail::_Trait)1>, std::__ndk1::__variant_detail::__base<(std::__ndk1::__variant_detail::__traits<geode::Hook*, std::__ndk1::basic_string<char, std::__ndk1::char_traits<char>, std::__ndk1::allocator<char> > >)1, geode::Hook, std::__ndk1::allocator<char> >&)
PUBLIC 16ec8 0 std::__ndk1::__variant_detail::__visitation::__base::__dispatcher<(unsigned long)1>::__dispatch[abi:ne180000]<std::__ndk1::__variant_detail::__dtor<std::__ndk1::__variant_detail::__traits<geode::Hook*, std::__ndk1::basic_string<char, std::__ndk1::char_traits<char>, std::__ndk1::allocator<char> > >, (std::__ndk1::__variant_detail::_Trait)1>::__destroy[abi:ne180000]()::{lambda(auto:1&)#1}, std::__ndk1::__variant_detail::__base<(std::__ndk1::__variant_detail::__traits<geode::Hook*, std::__ndk1::basic_string<char, std::__ndk1::char_traits<char>, std::__ndk1::allocator<char> > >)1, geode::Hook, std::__ndk1::allocator<char> >&>(std::__ndk1::__variant_detail::__dtor<std::__ndk1::__variant_detail::__traits<geode::Hook*, std::__ndk1::basic_string<char, std::__ndk1::char_traits<char>, std::__ndk1::allocator<char> > >, (std::__ndk1::__variant_detail::_Trait)1>, std::__ndk1::__variant_detail::__base<(std::__ndk1::__variant_detail::__traits<geode::Hook*, std::__ndk1::basic_string<char, std::__ndk1::char_traits<char>, std::__ndk1::allocator<char> > >)1, geode::Hook, std::__ndk1::allocator<char> >&)
PUBLIC 16edc 0 std::__ndk1::__tree<std::__ndk1::__value_type<std::__ndk1::basic_string<char, std::__ndk1::char_traits<char>, std::__ndk1::allocator<char> >, std::__ndk1::shared_ptr<geode::Hook> >, std::__ndk1::__map_value_compare<std::__ndk1::basic_string<char, std::__ndk1::char_traits<char>, std::__ndk1::allocator<char> >, std::__ndk1::__value_type<std::__ndk1::basic_string<char, std::__ndk1::char_traits<char>, std::__ndk1::allocator<char> >, std::__ndk1::shared_ptr<geode::Hook> >, std::__ndk1::less<std::__ndk1::basic_string<char, std::__ndk1::char_traits<char>, std::__ndk1::allocator<char> > >, true>, std::__ndk1::allocator<std::__ndk1::__value_type<std::__ndk1::basic_string<char, std::__ndk1::char_traits<char>, std::__ndk1::allocator<char> >, std::__ndk1::shared_ptr<geode::Hook> > > >::find<std::__ndk1::basic_string<char, std::__ndk1::char_traits<char>, std::__ndk1::allocator<char> > >(std::__ndk1::basic_string<char, std::__ndk1::char_traits<char>, std::__ndk1::allocator<char> > const&)
PUBLIC 16ffc 0 std::__ndk1::__tree<std::__ndk1::__value_type<std::__ndk1::basic_string<char, std::__ndk1::char_traits<char>, std::__ndk1::allocator<char> >, std::__ndk1::shared_ptr<geode::Hook> >, std::__ndk1::__map_value_compare<std::__ndk1::basic_string<char, std::__ndk1::char_traits<char>, std::__ndk1::allocator<char> >, std::__ndk1::__value_type<std::__ndk1::basic_string<char, std::__ndk1::char_traits<char>, std::__ndk1::allocator<char> >, std::__ndk1::shared_ptr<geode::Hook> >, std::__ndk1::less<std::__ndk1::basic_string<char, std::__ndk1::char_traits<char>, std::__ndk1::allocator<char> > >, true>, std::__ndk1::allocator<std::__ndk1::__value_type<std::__ndk1::basic_string<char, std::__ndk1::char_traits<char>, std::__ndk1::allocator<char> >, std::__ndk1::shared_ptr<geode::Hook> > > >::erase(std::__ndk1::__tree_const_iterator<std::__ndk1::__value_type<std::__ndk1::basic_string<char, std::__ndk1::char_traits<char>, std::__ndk1::allocator<char> >, std::__ndk1::shared_ptr<geode::Hook> >, std::__ndk1::__tree_node<std::__ndk1::__value_type<std::__ndk1::basic_string<char, std::__ndk1::char_traits<char>, std::__ndk1::allocator<char> >, std::__ndk1::shared_ptr<geode::Hook> >, void*>*, long>)
PUBLIC 170d0 0 std::__ndk1::__tree_remove[abi:ne180000]<std::__ndk1::__tree_node_base<void*>*>(std::__ndk1::__tree_node_base<void*>*, std::__ndk1::__tree_node_base<void*>*)
PUBLIC 17498 0 std::__ndk1::__tree<std::__ndk1::__value_type<std::__ndk1::basic_string<char, std::__ndk1::char_traits<char>, std::__ndk1::allocator<char> >, std::__ndk1::shared_ptr<geode::Hook> >, std::__ndk1::__map_value_compare<std::__ndk1::basic_string<char, std::__ndk1::char_traits<char>, std::__ndk1::allocator<char> >, std::__ndk1::__value_type<std::__ndk1::basic_string<char, std::__ndk1::char_traits<char>, std::__ndk1::allocator<char> >, std::__ndk1::shared_ptr<geode::Hook> >, std::__ndk1::less<std::__ndk1::basic_string<char, std::__ndk1::char_traits<char>, std::__ndk1::allocator<char> > >, true>, std::__ndk1::allocator<std::__ndk1::__value_type<std::__ndk1::basic_string<char, std::__ndk1::char_traits<char>, std::__ndk1::allocator<char> >, std::__ndk1::shared_ptr<geode::Hook> > > >::destroy(std::__ndk1::__tree_node<std::__ndk1::__value_type<std::__ndk1::basic_string<char, std::__ndk1::char_traits<char>, std::__ndk1::allocator<char> >, std::__ndk1::shared_ptr<geode::Hook> >, void*>*)
PUBLIC 17524 0 geode::Hook::create<void (*)(HookPlayLayer*, GameObject*)>(void*, void (*)(HookPlayLayer*, GameObject*), std::__ndk1::basic_string<char, std::__ndk1::char_traits<char>, std::__ndk1::allocator<char> > const&, tulip::hook::TulipConvention, tulip::hook::HookMetadata const&)
PUBLIC 176a8 0 geode::modifier::AsStaticFunction_addObject<HookPlayLayer, void (HookPlayLayer::*)(GameObject*)>::Impl<void (HookPlayLayer::*)(GameObject*)>::function(HookPlayLayer*, GameObject*)
PUBLIC 176ac 0 geode::Hook::create<void (*)(HookPlayLayer*)>(void*, void (*)(HookPlayLayer*), std::__ndk1::basic_string<char, std::__ndk1::char_traits<char>, std::__ndk1::allocator<char> > const&, tulip::hook::TulipConvention, tulip::hook::HookMetadata const&)
PUBLIC 177e0 0 geode::modifier::AsStaticFunction_createObjectsFromSetupFinished<HookPlayLayer, void (HookPlayLayer::*)()>::Impl<void (HookPlayLayer::*)()>::function(HookPlayLayer*)
PUBLIC 177e4 0 std::__ndk1::shared_ptr<tulip::hook::CallingConvention>::~shared_ptr[abi:ne180000]()
PUBLIC 17834 0 tulip::hook::HandlerMetadata::~HandlerMetadata()
PUBLIC 17898 0 std::__ndk1::__tree<std::__ndk1::__value_type<std::__ndk1::basic_string<char, std::__ndk1::char_traits<char>, std::__ndk1::allocator<char> >, std::__ndk1::shared_ptr<geode::Hook> >, std::__ndk1::__map_value_compare<std::__ndk1::basic_string<char, std::__ndk1::char_traits<char>, std::__ndk1::allocator<char> >, std::__ndk1::__value_type<std::__ndk1::basic_string<char, std::__ndk1::char_traits<char>, std::__ndk1::allocator<char> >, std::__ndk1::shared_ptr<geode::Hook> >, std::__ndk1::less<std::__ndk1::basic_string<char, std::__ndk1::char_traits<char>, std::__ndk1::allocator<char> > >, true>, std::__ndk1::allocator<std::__ndk1::__value_type<std::__ndk1::basic_string<char, std::__ndk1::char_traits<char>, std::__ndk1::allocator<char> >, std::__ndk1::shared_ptr<geode::Hook> > > >::__emplace_unique_key_args<std::__ndk1::basic_string<char, std::__ndk1::char_traits<char>, std::__ndk1::allocator<char> >, std::__ndk1::piecewise_construct_t const&, std::__ndk1::tuple<std::__ndk1::basic_string<char, std::__ndk1::char_traits<char>, std::__ndk1::allocator<char> >&&>, std::__ndk1::tuple<> >(std::__ndk1::basic_string<char, std::__ndk1::char_traits<char>, std::__ndk1::allocator<char> > const&, std::__ndk1::piecewise_construct_t const&, std::__ndk1::tuple<std::__ndk1::basic_string<char, std::__ndk1::char_traits<char>, std::__ndk1::allocator<char> >&&>, std::__ndk1::tuple<>)
PUBLIC 17a10 0 std::__ndk1::__tree_balance_after_insert[abi:ne180000]<std::__ndk1::__tree_node_base<void*>*>(std::__ndk1::__tree_node_base<void*>*, std::__ndk1::__tree_node_base<void*>*)
PUBLIC 17bc0 0 geode::modifier::ModifyBase<geode::modifier::ModifyDerive<HookUILayer, UILayer> >::ModifyBase()
PUBLIC 17fbc 0 geode::modifier::ModifyDerive<HookUILayer, UILayer>::apply()
PUBLIC 18228 0 geode::modifier::ModifyBase<geode::modifier::ModifyDerive<HookUILayer, UILayer> >::apply()
PUBLIC 1822c 0 geode::Hook::create<bool (*)(HookUILayer*, GJBaseGameLayer*)>(void*, bool (*)(HookUILayer*, GJBaseGameLayer*), std::__ndk1::basic_string<char, std::__ndk1::char_traits<char>, std::__ndk1::allocator<char> > const&, tulip::hook::TulipConvention, tulip::hook::HookMetadata const&)
PUBLIC 183b0 0 geode::modifier::AsStaticFunction_init<HookUILayer, bool (HookUILayer::*)(GJBaseGameLayer*)>::Impl<bool (HookUILayer::*)(GJBaseGameLayer*)>::function(HookUILayer*, GJBaseGameLayer*)
PUBLIC 183b4 0 HookUILayer::init(GJBaseGameLayer*)
PUBLIC 18930 0 geode::modifier::FieldIntermediate<HookUILayer, UILayer>::self()
PUBLIC 18ac8 0 geode::cocos::CCMenuItemExt::createSpriteExtra(cocos2d::CCNode*, std::__ndk1::function<void (CCMenuItemSpriteExtra*)>)
PUBLIC 18e94 0 HookUILayer::updateUI()
PUBLIC 1920c 0 cocos2d::CCSequence::create(cocos2d::CCFiniteTimeAction*, ...)
PUBLIC 192a4 0 HookUILayer::defineKeybind(char const*, std::__ndk1::function<geode::ListenerResult(bool)>)
PUBLIC 1989c 0 geode::modifier::FieldIntermediate<HookUILayer, UILayer>::fieldDestructor(void*)
PUBLIC 198a0 0 geode::cocos::CCMenuItemExt::LambdaCallback<CCMenuItemSpriteExtra>::execute(cocos2d::CCNode*)
PUBLIC 19910 0 cocos2d::CCCopying::copyWithZone(cocos2d::CCZone*)
PUBLIC 19918 0 geode::cocos::CCMenuItemExt::LambdaCallback<CCMenuItemSpriteExtra>::~LambdaCallback()
PUBLIC 19974 0 geode::cocos::CCMenuItemExt::LambdaCallback<CCMenuItemSpriteExtra>::~LambdaCallback()
PUBLIC 199d8 0 cocos2d::CCObject::update(float)
PUBLIC 199dc 0 std::__ndk1::__throw_bad_function_call[abi:ne180000]()
PUBLIC 19a10 0 std::__ndk1::bad_function_call::~bad_function_call()
PUBLIC 19a34 0 geode::cast::traverseTypeinfoFor(void*, geode::cast::ClassTypeinfoType const*, char const*)
PUBLIC 19b38 0 std::__ndk1::__function::__func<HookUILayer::init(GJBaseGameLayer*)::$_0, std::__ndk1::allocator<HookUILayer::init(GJBaseGameLayer*)::$_0>, void (CCMenuItemSpriteExtra*)>::~__func()
PUBLIC 19b3c 0 std::__ndk1::__function::__func<HookUILayer::init(GJBaseGameLayer*)::$_0, std::__ndk1::allocator<HookUILayer::init(GJBaseGameLayer*)::$_0>, void (CCMenuItemSpriteExtra*)>::__clone() const
PUBLIC 19b70 0 std::__ndk1::__function::__func<HookUILayer::init(GJBaseGameLayer*)::$_0, std::__ndk1::allocator<HookUILayer::init(GJBaseGameLayer*)::$_0>, void (CCMenuItemSpriteExtra*)>::__clone(std::__ndk1::__function::__base<void (CCMenuItemSpriteExtra*)>*) const
PUBLIC 19b84 0 std::__ndk1::__function::__func<HookUILayer::init(GJBaseGameLayer*)::$_0, std::__ndk1::allocator<HookUILayer::init(GJBaseGameLayer*)::$_0>, void (CCMenuItemSpriteExtra*)>::destroy()
PUBLIC 19b88 0 std::__ndk1::__function::__func<HookUILayer::init(GJBaseGameLayer*)::$_0, std::__ndk1::allocator<HookUILayer::init(GJBaseGameLayer*)::$_0>, void (CCMenuItemSpriteExtra*)>::destroy_deallocate()
PUBLIC 19b8c 0 std::__ndk1::__function::__func<HookUILayer::init(GJBaseGameLayer*)::$_0, std::__ndk1::allocator<HookUILayer::init(GJBaseGameLayer*)::$_0>, void (CCMenuItemSpriteExtra*)>::operator()(CCMenuItemSpriteExtra*&&)
PUBLIC 19bc8 0 std::__ndk1::__function::__func<HookUILayer::init(GJBaseGameLayer*)::$_0, std::__ndk1::allocator<HookUILayer::init(GJBaseGameLayer*)::$_0>, void (CCMenuItemSpriteExtra*)>::target(std::type_info const&) const
PUBLIC 19be4 0 std::__ndk1::__function::__func<HookUILayer::init(GJBaseGameLayer*)::$_0, std::__ndk1::allocator<HookUILayer::init(GJBaseGameLayer*)::$_0>, void (CCMenuItemSpriteExtra*)>::target_type() const
PUBLIC 19bf0 0 std::__ndk1::__function::__base<void (CCMenuItemSpriteExtra*)>::~__base()
PUBLIC 19bf4 0 std::__ndk1::__function::__func<HookUILayer::init(GJBaseGameLayer*)::$_1, std::__ndk1::allocator<HookUILayer::init(GJBaseGameLayer*)::$_1>, void (CCMenuItemSpriteExtra*)>::~__func()
PUBLIC 19bf8 0 std::__ndk1::__function::__func<HookUILayer::init(GJBaseGameLayer*)::$_1, std::__ndk1::allocator<HookUILayer::init(GJBaseGameLayer*)::$_1>, void (CCMenuItemSpriteExtra*)>::__clone() const
PUBLIC 19c2c 0 std::__ndk1::__function::__func<HookUILayer::init(GJBaseGameLayer*)::$_1, std::__ndk1::allocator<HookUILayer::init(GJBaseGameLayer*)::$_1>, void (CCMenuItemSpriteExtra*)>::__clone(std::__ndk1::__function::__base<void (CCMenuItemSpriteExtra*)>*) const
PUBLIC 19c40 0 std::__ndk1::__function::__func<HookUILayer::init(GJBaseGameLayer*)::$_1, std::__ndk1::allocator<HookUILayer::init(GJBaseGameLayer*)::$_1>, void (CCMenuItemSpriteExtra*)>::destroy()
PUBLIC 19c44 0 std::__ndk1::__function::__func<HookUILayer::init(GJBaseGameLayer*)::$_1, std::__ndk1::allocator<HookUILayer::init(GJBaseGameLayer*)::$_1>, void (CCMenuItemSpriteExtra*)>::destroy_deallocate()
PUBLIC 19c48 0 std::__ndk1::__function::__func<HookUILayer::init(GJBaseGameLayer*)::$_1, std::__ndk1::allocator<HookUILayer::init(GJBaseGameLayer*)::$_1>, void (CCMenuItemSpriteExtra*)>::operator()(CCMenuItemSpriteExtra*&&)
PUBLIC 19c84 0 std::__ndk1::__function::__func<HookUILayer::init(GJBaseGameLayer*)::$_1, std::__ndk1::allocator<HookUILayer::init(GJBaseGameLayer*)::$_1>, void (CCMenuItemSpriteExtra*)>::target(std::type_info const&) const
PUBLIC 19ca0 0 std::__ndk1::__function::__func<HookUILayer::init(GJBaseGameLayer*)::$_1, std::__ndk1::allocator<HookUILayer::init(GJBaseGameLayer*)::$_1>, void (CCMenuItemSpriteExtra*)>::target_type() const
PUBLIC 19cac 0 std::__ndk1::__function::__base<void ()>::~__base()
PUBLIC 19cb0 0 std::__ndk1::__function::__func<HookUILayer::init(GJBaseGameLayer*)::$_2, std::__ndk1::allocator<HookUILayer::init(GJBaseGameLayer*)::$_2>, void ()>::~__func()
PUBLIC 19cb4 0 std::__ndk1::__function::__func<HookUILayer::init(GJBaseGameLayer*)::$_2, std::__ndk1::allocator<HookUILayer::init(GJBaseGameLayer*)::$_2>, void ()>::__clone() const
PUBLIC 19ce8 0 std::__ndk1::__function::__func<HookUILayer::init(GJBaseGameLayer*)::$_2, std::__ndk1::allocator<HookUILayer::init(GJBaseGameLayer*)::$_2>, void ()>::__clone(std::__ndk1::__function::__base<void ()>*) const
PUBLIC 19cfc 0 std::__ndk1::__function::__func<HookUILayer::init(GJBaseGameLayer*)::$_2, std::__ndk1::allocator<HookUILayer::init(GJBaseGameLayer*)::$_2>, void ()>::destroy()
PUBLIC 19d00 0 std::__ndk1::__function::__func<HookUILayer::init(GJBaseGameLayer*)::$_2, std::__ndk1::allocator<HookUILayer::init(GJBaseGameLayer*)::$_2>, void ()>::destroy_deallocate()
PUBLIC 19d04 0 std::__ndk1::__function::__func<HookUILayer::init(GJBaseGameLayer*)::$_2, std::__ndk1::allocator<HookUILayer::init(GJBaseGameLayer*)::$_2>, void ()>::operator()()
PUBLIC 19e6c 0 std::__ndk1::__function::__func<HookUILayer::init(GJBaseGameLayer*)::$_2, std::__ndk1::allocator<HookUILayer::init(GJBaseGameLayer*)::$_2>, void ()>::target(std::type_info const&) const
PUBLIC 19e88 0 std::__ndk1::__function::__func<HookUILayer::init(GJBaseGameLayer*)::$_2, std::__ndk1::allocator<HookUILayer::init(GJBaseGameLayer*)::$_2>, void ()>::target_type() const
PUBLIC 19e94 0 std::__ndk1::__function::__func<HookUILayer::init(GJBaseGameLayer*)::$_2::operator()() const::{lambda(bool)#1}, std::__ndk1::allocator<HookUILayer::init(GJBaseGameLayer*)::$_2::operator()() const::{lambda(bool)#1}>, geode::ListenerResult(bool)>::~__func()
PUBLIC 19e98 0 std::__ndk1::__function::__func<HookUILayer::init(GJBaseGameLayer*)::$_2::operator()() const::{lambda(bool)#1}, std::__ndk1::allocator<HookUILayer::init(GJBaseGameLayer*)::$_2::operator()() const::{lambda(bool)#1}>, geode::ListenerResult(bool)>::__clone() const
PUBLIC 19ecc 0 std::__ndk1::__function::__func<HookUILayer::init(GJBaseGameLayer*)::$_2::operator()() const::{lambda(bool)#1}, std::__ndk1::allocator<HookUILayer::init(GJBaseGameLayer*)::$_2::operator()() const::{lambda(bool)#1}>, geode::ListenerResult(bool)>::__clone(std::__ndk1::__function::__base<geode::ListenerResult(bool)>*) const
PUBLIC 19ee0 0 std::__ndk1::__function::__func<HookUILayer::init(GJBaseGameLayer*)::$_2::operator()() const::{lambda(bool)#1}, std::__ndk1::allocator<HookUILayer::init(GJBaseGameLayer*)::$_2::operator()() const::{lambda(bool)#1}>, geode::ListenerResult(bool)>::destroy()
PUBLIC 19ee4 0 std::__ndk1::__function::__func<HookUILayer::init(GJBaseGameLayer*)::$_2::operator()() const::{lambda(bool)#1}, std::__ndk1::allocator<HookUILayer::init(GJBaseGameLayer*)::$_2::operator()() const::{lambda(bool)#1}>, geode::ListenerResult(bool)>::destroy_deallocate()
PUBLIC 19ee8 0 std::__ndk1::__function::__func<HookUILayer::init(GJBaseGameLayer*)::$_2::operator()() const::{lambda(bool)#1}, std::__ndk1::allocator<HookUILayer::init(GJBaseGameLayer*)::$_2::operator()() const::{lambda(bool)#1}>, geode::ListenerResult(bool)>::operator()(bool&&)
PUBLIC 19f50 0 std::__ndk1::__function::__func<HookUILayer::init(GJBaseGameLayer*)::$_2::operator()() const::{lambda(bool)#1}, std::__ndk1::allocator<HookUILayer::init(GJBaseGameLayer*)::$_2::operator()() const::{lambda(bool)#1}>, geode::ListenerResult(bool)>::target(std::type_info const&) const
PUBLIC 19f6c 0 std::__ndk1::__function::__func<HookUILayer::init(GJBaseGameLayer*)::$_2::operator()() const::{lambda(bool)#1}, std::__ndk1::allocator<HookUILayer::init(GJBaseGameLayer*)::$_2::operator()() const::{lambda(bool)#1}>, geode::ListenerResult(bool)>::target_type() const
PUBLIC 19f78 0 std::__ndk1::__function::__base<geode::ListenerResult(bool)>::~__base()
PUBLIC 19f7c 0 std::__ndk1::__function::__func<HookUILayer::init(GJBaseGameLayer*)::$_2::operator()() const::{lambda(bool)#2}, std::__ndk1::allocator<HookUILayer::init(GJBaseGameLayer*)::$_2::operator()() const::{lambda(bool)#2}>, geode::ListenerResult(bool)>::~__func()
PUBLIC 19f80 0 std::__ndk1::__function::__func<HookUILayer::init(GJBaseGameLayer*)::$_2::operator()() const::{lambda(bool)#2}, std::__ndk1::allocator<HookUILayer::init(GJBaseGameLayer*)::$_2::operator()() const::{lambda(bool)#2}>, geode::ListenerResult(bool)>::__clone() const
PUBLIC 19fb4 0 std::__ndk1::__function::__func<HookUILayer::init(GJBaseGameLayer*)::$_2::operator()() const::{lambda(bool)#2}, std::__ndk1::allocator<HookUILayer::init(GJBaseGameLayer*)::$_2::operator()() const::{lambda(bool)#2}>, geode::ListenerResult(bool)>::__clone(std::__ndk1::__function::__base<geode::ListenerResult(bool)>*) const
PUBLIC 19fc8 0 std::__ndk1::__function::__func<HookUILayer::init(GJBaseGameLayer*)::$_2::operator()() const::{lambda(bool)#2}, std::__ndk1::allocator<HookUILayer::init(GJBaseGameLayer*)::$_2::operator()() const::{lambda(bool)#2}>, geode::ListenerResult(bool)>::destroy()
PUBLIC 19fcc 0 std::__ndk1::__function::__func<HookUILayer::init(GJBaseGameLayer*)::$_2::operator()() const::{lambda(bool)#2}, std::__ndk1::allocator<HookUILayer::init(GJBaseGameLayer*)::$_2::operator()() const::{lambda(bool)#2}>, geode::ListenerResult(bool)>::destroy_deallocate()
PUBLIC 19fd0 0 std::__ndk1::__function::__func<HookUILayer::init(GJBaseGameLayer*)::$_2::operator()() const::{lambda(bool)#2}, std::__ndk1::allocator<HookUILayer::init(GJBaseGameLayer*)::$_2::operator()() const::{lambda(bool)#2}>, geode::ListenerResult(bool)>::operator()(bool&&)
PUBLIC 1a038 0 std::__ndk1::__function::__func<HookUILayer::init(GJBaseGameLayer*)::$_2::operator()() const::{lambda(bool)#2}, std::__ndk1::allocator<HookUILayer::init(GJBaseGameLayer*)::$_2::operator()() const::{lambda(bool)#2}>, geode::ListenerResult(bool)>::target(std::type_info const&) const
PUBLIC 1a054 0 std::__ndk1::__function::__func<HookUILayer::init(GJBaseGameLayer*)::$_2::operator()() const::{lambda(bool)#2}, std::__ndk1::allocator<HookUILayer::init(GJBaseGameLayer*)::$_2::operator()() const::{lambda(bool)#2}>, geode::ListenerResult(bool)>::target_type() const
PUBLIC 1a060 0 geode::EventListener<keybinds::InvokeBindFilter>::getPool() const
PUBLIC 1a064 0 geode::EventListener<keybinds::InvokeBindFilter>::handle(geode::Event*)
PUBLIC 1a1d8 0 geode::EventListener<keybinds::InvokeBindFilter>::~EventListener()
PUBLIC 1a244 0 geode::EventListener<keybinds::InvokeBindFilter>::~EventListener()
PUBLIC 1a2b8 0 std::__ndk1::__function::__func<HookUILayer::defineKeybind(char const*, std::__ndk1::function<geode::ListenerResult(bool)>)::$_0, std::__ndk1::allocator<HookUILayer::defineKeybind(char const*, std::__ndk1::function<geode::ListenerResult(bool)>)::$_0>, geode::ListenerResult(keybinds::InvokeBindEvent*)>::~__func()
PUBLIC 1a304 0 std::__ndk1::__function::__func<HookUILayer::defineKeybind(char const*, std::__ndk1::function<geode::ListenerResult(bool)>)::$_0, std::__ndk1::allocator<HookUILayer::defineKeybind(char const*, std::__ndk1::function<geode::ListenerResult(bool)>)::$_0>, geode::ListenerResult(keybinds::InvokeBindEvent*)>::~__func()
PUBLIC 1a360 0 std::__ndk1::__function::__func<HookUILayer::defineKeybind(char const*, std::__ndk1::function<geode::ListenerResult(bool)>)::$_0, std::__ndk1::allocator<HookUILayer::defineKeybind(char const*, std::__ndk1::function<geode::ListenerResult(bool)>)::$_0>, geode::ListenerResult(keybinds::InvokeBindEvent*)>::__clone() const
PUBLIC 1a3fc 0 std::__ndk1::__function::__func<HookUILayer::defineKeybind(char const*, std::__ndk1::function<geode::ListenerResult(bool)>)::$_0, std::__ndk1::allocator<HookUILayer::defineKeybind(char const*, std::__ndk1::function<geode::ListenerResult(bool)>)::$_0>, geode::ListenerResult(keybinds::InvokeBindEvent*)>::__clone(std::__ndk1::__function::__base<geode::ListenerResult(keybinds::InvokeBindEvent*)>*) const
PUBLIC 1a484 0 std::__ndk1::__function::__func<HookUILayer::defineKeybind(char const*, std::__ndk1::function<geode::ListenerResult(bool)>)::$_0, std::__ndk1::allocator<HookUILayer::defineKeybind(char const*, std::__ndk1::function<geode::ListenerResult(bool)>)::$_0>, geode::ListenerResult(keybinds::InvokeBindEvent*)>::destroy()
PUBLIC 1a4c4 0 std::__ndk1::__function::__func<HookUILayer::defineKeybind(char const*, std::__ndk1::function<geode::ListenerResult(bool)>)::$_0, std::__ndk1::allocator<HookUILayer::defineKeybind(char const*, std::__ndk1::function<geode::ListenerResult(bool)>)::$_0>, geode::ListenerResult(keybinds::InvokeBindEvent*)>::destroy_deallocate()
PUBLIC 1a514 0 std::__ndk1::__function::__func<HookUILayer::defineKeybind(char const*, std::__ndk1::function<geode::ListenerResult(bool)>)::$_0, std::__ndk1::allocator<HookUILayer::defineKeybind(char const*, std::__ndk1::function<geode::ListenerResult(bool)>)::$_0>, geode::ListenerResult(keybinds::InvokeBindEvent*)>::operator()(keybinds::InvokeBindEvent*&&)
PUBLIC 1a59c 0 std::__ndk1::__function::__func<HookUILayer::defineKeybind(char const*, std::__ndk1::function<geode::ListenerResult(bool)>)::$_0, std::__ndk1::allocator<HookUILayer::defineKeybind(char const*, std::__ndk1::function<geode::ListenerResult(bool)>)::$_0>, geode::ListenerResult(keybinds::InvokeBindEvent*)>::target(std::type_info const&) const
PUBLIC 1a5b8 0 std::__ndk1::__function::__func<HookUILayer::defineKeybind(char const*, std::__ndk1::function<geode::ListenerResult(bool)>)::$_0, std::__ndk1::allocator<HookUILayer::defineKeybind(char const*, std::__ndk1::function<geode::ListenerResult(bool)>)::$_0>, geode::ListenerResult(keybinds::InvokeBindEvent*)>::target_type() const
PUBLIC 1a5c4 0 geode::Ref<keybinds::Bind>::~Ref()
PUBLIC 1a5e0 0 keybinds::BindableAction::~BindableAction()
PUBLIC 1a6a4 0 std::__ndk1::vector<geode::Ref<keybinds::Bind>, std::__ndk1::allocator<geode::Ref<keybinds::Bind> > >::~vector[abi:ne180000]()
PUBLIC 1a728 0 std::__ndk1::__exception_guard_exceptions<std::__ndk1::vector<geode::Ref<keybinds::Bind>, std::__ndk1::allocator<geode::Ref<keybinds::Bind> > >::__destroy_vector>::~__exception_guard_exceptions[abi:ne180000]()
PUBLIC 1a7bc 0 std::__ndk1::__exception_guard_exceptions<std::__ndk1::_AllocatorDestroyRangeReverse<std::__ndk1::allocator<geode::Ref<keybinds::Bind> >, geode::Ref<keybinds::Bind>*> >::~__exception_guard_exceptions[abi:ne180000]()
PUBLIC 1a804 0 _GLOBAL__sub_I_KeybindHandler.cpp
PUBLIC 1b034 0 ModManager::ModManager()
PUBLIC 1b134 0 geode::Mod::getSettingValue<bool>(std::__ndk1::basic_string_view<char, std::__ndk1::char_traits<char> >) const
PUBLIC 1b268 0 geode::Mod::getSettingValue<double>(std::__ndk1::basic_string_view<char, std::__ndk1::char_traits<char> >) const
PUBLIC 1b398 0 geodeExecFunction17<(anonymous namespace)::ExecFuncUnique17>(geode::ModStateEvent*)
PUBLIC 1b8fc 0 geode::EventListener<geode::SettingChangedFilterV3>::EventListener(std::__ndk1::function<void (std::__ndk1::shared_ptr<geode::SettingV3>)>, geode::SettingChangedFilterV3)
PUBLIC 1b9f4 0 geode::SettingChangedFilterV3::~SettingChangedFilterV3()
PUBLIC 1ba44 0 std::__ndk1::__function::__func<geode::listenForSettingChangesV3<bool, geodeExecFunction17<(anonymous namespace)::ExecFuncUnique17>(geode::ModStateEvent*)::{lambda(bool)#1}>(std::__ndk1::basic_string_view<char, std::__ndk1::char_traits<char> >, geodeExecFunction17<(anonymous namespace)::ExecFuncUnique17>(geode::ModStateEvent*)::{lambda(bool)#1}&&, geode::Mod*)::{lambda(std::__ndk1::shared_ptr<geode::SettingV3>)#1}, std::__ndk1::allocator<geode::listenForSettingChangesV3<bool, geodeExecFunction17<(anonymous namespace)::ExecFuncUnique17>(geode::ModStateEvent*)::{lambda(bool)#1}>(std::__ndk1::basic_string_view<char, std::__ndk1::char_traits<char> >, geodeExecFunction17<(anonymous namespace)::ExecFuncUnique17>(geode::ModStateEvent*)::{lambda(bool)#1}&&, geode::Mod*)::{lambda(std::__ndk1::shared_ptr<geode::SettingV3>)#1}>, void (std::__ndk1::shared_ptr<geode::SettingV3>)>::~__func()
PUBLIC 1ba48 0 std::__ndk1::__function::__func<geode::listenForSettingChangesV3<bool, geodeExecFunction17<(anonymous namespace)::ExecFuncUnique17>(geode::ModStateEvent*)::{lambda(bool)#1}>(std::__ndk1::basic_string_view<char, std::__ndk1::char_traits<char> >, geodeExecFunction17<(anonymous namespace)::ExecFuncUnique17>(geode::ModStateEvent*)::{lambda(bool)#1}&&, geode::Mod*)::{lambda(std::__ndk1::shared_ptr<geode::SettingV3>)#1}, std::__ndk1::allocator<geode::listenForSettingChangesV3<bool, geodeExecFunction17<(anonymous namespace)::ExecFuncUnique17>(geode::ModStateEvent*)::{lambda(bool)#1}>(std::__ndk1::basic_string_view<char, std::__ndk1::char_traits<char> >, geodeExecFunction17<(anonymous namespace)::ExecFuncUnique17>(geode::ModStateEvent*)::{lambda(bool)#1}&&, geode::Mod*)::{lambda(std::__ndk1::shared_ptr<geode::SettingV3>)#1}>, void (std::__ndk1::shared_ptr<geode::SettingV3>)>::__clone() const
PUBLIC 1ba7c 0 std::__ndk1::__function::__func<geode::listenForSettingChangesV3<bool, geodeExecFunction17<(anonymous namespace)::ExecFuncUnique17>(geode::ModStateEvent*)::{lambda(bool)#1}>(std::__ndk1::basic_string_view<char, std::__ndk1::char_traits<char> >, geodeExecFunction17<(anonymous namespace)::ExecFuncUnique17>(geode::ModStateEvent*)::{lambda(bool)#1}&&, geode::Mod*)::{lambda(std::__ndk1::shared_ptr<geode::SettingV3>)#1}, std::__ndk1::allocator<geode::listenForSettingChangesV3<bool, geodeExecFunction17<(anonymous namespace)::ExecFuncUnique17>(geode::ModStateEvent*)::{lambda(bool)#1}>(std::__ndk1::basic_string_view<char, std::__ndk1::char_traits<char> >, geodeExecFunction17<(anonymous namespace)::ExecFuncUnique17>(geode::ModStateEvent*)::{lambda(bool)#1}&&, geode::Mod*)::{lambda(std::__ndk1::shared_ptr<geode::SettingV3>)#1}>, void (std::__ndk1::shared_ptr<geode::SettingV3>)>::__clone(std::__ndk1::__function::__base<void (std::__ndk1::shared_ptr<geode::SettingV3>)>*) const
PUBLIC 1ba90 0 std::__ndk1::__function::__func<geode::listenForSettingChangesV3<bool, geodeExecFunction17<(anonymous namespace)::ExecFuncUnique17>(geode::ModStateEvent*)::{lambda(bool)#1}>(std::__ndk1::basic_string_view<char, std::__ndk1::char_traits<char> >, geodeExecFunction17<(anonymous namespace)::ExecFuncUnique17>(geode::ModStateEvent*)::{lambda(bool)#1}&&, geode::Mod*)::{lambda(std::__ndk1::shared_ptr<geode::SettingV3>)#1}, std::__ndk1::allocator<geode::listenForSettingChangesV3<bool, geodeExecFunction17<(anonymous namespace)::ExecFuncUnique17>(geode::ModStateEvent*)::{lambda(bool)#1}>(std::__ndk1::basic_string_view<char, std::__ndk1::char_traits<char> >, geodeExecFunction17<(anonymous namespace)::ExecFuncUnique17>(geode::ModStateEvent*)::{lambda(bool)#1}&&, geode::Mod*)::{lambda(std::__ndk1::shared_ptr<geode::SettingV3>)#1}>, void (std::__ndk1::shared_ptr<geode::SettingV3>)>::destroy()
PUBLIC 1ba94 0 std::__ndk1::__function::__func<geode::listenForSettingChangesV3<bool, geodeExecFunction17<(anonymous namespace)::ExecFuncUnique17>(geode::ModStateEvent*)::{lambda(bool)#1}>(std::__ndk1::basic_string_view<char, std::__ndk1::char_traits<char> >, geodeExecFunction17<(anonymous namespace)::ExecFuncUnique17>(geode::ModStateEvent*)::{lambda(bool)#1}&&, geode::Mod*)::{lambda(std::__ndk1::shared_ptr<geode::SettingV3>)#1}, std::__ndk1::allocator<geode::listenForSettingChangesV3<bool, geodeExecFunction17<(anonymous namespace)::ExecFuncUnique17>(geode::ModStateEvent*)::{lambda(bool)#1}>(std::__ndk1::basic_string_view<char, std::__ndk1::char_traits<char> >, geodeExecFunction17<(anonymous namespace)::ExecFuncUnique17>(geode::ModStateEvent*)::{lambda(bool)#1}&&, geode::Mod*)::{lambda(std::__ndk1::shared_ptr<geode::SettingV3>)#1}>, void (std::__ndk1::shared_ptr<geode::SettingV3>)>::destroy_deallocate()
PUBLIC 1ba98 0 std::__ndk1::__function::__func<geode::listenForSettingChangesV3<bool, geodeExecFunction17<(anonymous namespace)::ExecFuncUnique17>(geode::ModStateEvent*)::{lambda(bool)#1}>(std::__ndk1::basic_string_view<char, std::__ndk1::char_traits<char> >, geodeExecFunction17<(anonymous namespace)::ExecFuncUnique17>(geode::ModStateEvent*)::{lambda(bool)#1}&&, geode::Mod*)::{lambda(std::__ndk1::shared_ptr<geode::SettingV3>)#1}, std::__ndk1::allocator<geode::listenForSettingChangesV3<bool, geodeExecFunction17<(anonymous namespace)::ExecFuncUnique17>(geode::ModStateEvent*)::{lambda(bool)#1}>(std::__ndk1::basic_string_view<char, std::__ndk1::char_traits<char> >, geodeExecFunction17<(anonymous namespace)::ExecFuncUnique17>(geode::ModStateEvent*)::{lambda(bool)#1}&&, geode::Mod*)::{lambda(std::__ndk1::shared_ptr<geode::SettingV3>)#1}>, void (std::__ndk1::shared_ptr<geode::SettingV3>)>::operator()(std::__ndk1::shared_ptr<geode::SettingV3>&&)
PUBLIC 1bb98 0 std::__ndk1::__function::__func<geode::listenForSettingChangesV3<bool, geodeExecFunction17<(anonymous namespace)::ExecFuncUnique17>(geode::ModStateEvent*)::{lambda(bool)#1}>(std::__ndk1::basic_string_view<char, std::__ndk1::char_traits<char> >, geodeExecFunction17<(anonymous namespace)::ExecFuncUnique17>(geode::ModStateEvent*)::{lambda(bool)#1}&&, geode::Mod*)::{lambda(std::__ndk1::shared_ptr<geode::SettingV3>)#1}, std::__ndk1::allocator<geode::listenForSettingChangesV3<bool, geodeExecFunction17<(anonymous namespace)::ExecFuncUnique17>(geode::ModStateEvent*)::{lambda(bool)#1}>(std::__ndk1::basic_string_view<char, std::__ndk1::char_traits<char> >, geodeExecFunction17<(anonymous namespace)::ExecFuncUnique17>(geode::ModStateEvent*)::{lambda(bool)#1}&&, geode::Mod*)::{lambda(std::__ndk1::shared_ptr<geode::SettingV3>)#1}>, void (std::__ndk1::shared_ptr<geode::SettingV3>)>::target(std::type_info const&) const
PUBLIC 1bbb4 0 std::__ndk1::__function::__func<geode::listenForSettingChangesV3<bool, geodeExecFunction17<(anonymous namespace)::ExecFuncUnique17>(geode::ModStateEvent*)::{lambda(bool)#1}>(std::__ndk1::basic_string_view<char, std::__ndk1::char_traits<char> >, geodeExecFunction17<(anonymous namespace)::ExecFuncUnique17>(geode::ModStateEvent*)::{lambda(bool)#1}&&, geode::Mod*)::{lambda(std::__ndk1::shared_ptr<geode::SettingV3>)#1}, std::__ndk1::allocator<geode::listenForSettingChangesV3<bool, geodeExecFunction17<(anonymous namespace)::ExecFuncUnique17>(geode::ModStateEvent*)::{lambda(bool)#1}>(std::__ndk1::basic_string_view<char, std::__ndk1::char_traits<char> >, geodeExecFunction17<(anonymous namespace)::ExecFuncUnique17>(geode::ModStateEvent*)::{lambda(bool)#1}&&, geode::Mod*)::{lambda(std::__ndk1::shared_ptr<geode::SettingV3>)#1}>, void (std::__ndk1::shared_ptr<geode::SettingV3>)>::target_type() const
PUBLIC 1bbc0 0 geode::EventListener<geode::SettingChangedFilterV3>::getPool() const
PUBLIC 1bbc4 0 geode::EventListener<geode::SettingChangedFilterV3>::handle(geode::Event*)
PUBLIC 1bd38 0 geode::EventListener<geode::SettingChangedFilterV3>::~EventListener()
PUBLIC 1bdd4 0 geode::EventListener<geode::SettingChangedFilterV3>::~EventListener()
PUBLIC 1be78 0 std::__ndk1::__function::__func<geode::listenForSettingChangesV3<bool, geodeExecFunction17<(anonymous namespace)::ExecFuncUnique17>(geode::ModStateEvent*)::{lambda(bool)#2}>(std::__ndk1::basic_string_view<char, std::__ndk1::char_traits<char> >, geodeExecFunction17<(anonymous namespace)::ExecFuncUnique17>(geode::ModStateEvent*)::{lambda(bool)#2}&&, geode::Mod*)::{lambda(std::__ndk1::shared_ptr<geode::SettingV3>)#1}, std::__ndk1::allocator<geode::listenForSettingChangesV3<bool, geodeExecFunction17<(anonymous namespace)::ExecFuncUnique17>(geode::ModStateEvent*)::{lambda(bool)#2}>(std::__ndk1::basic_string_view<char, std::__ndk1::char_traits<char> >, geodeExecFunction17<(anonymous namespace)::ExecFuncUnique17>(geode::ModStateEvent*)::{lambda(bool)#2}&&, geode::Mod*)::{lambda(std::__ndk1::shared_ptr<geode::SettingV3>)#1}>, void (std::__ndk1::shared_ptr<geode::SettingV3>)>::~__func()
PUBLIC 1be7c 0 std::__ndk1::__function::__func<geode::listenForSettingChangesV3<bool, geodeExecFunction17<(anonymous namespace)::ExecFuncUnique17>(geode::ModStateEvent*)::{lambda(bool)#2}>(std::__ndk1::basic_string_view<char, std::__ndk1::char_traits<char> >, geodeExecFunction17<(anonymous namespace)::ExecFuncUnique17>(geode::ModStateEvent*)::{lambda(bool)#2}&&, geode::Mod*)::{lambda(std::__ndk1::shared_ptr<geode::SettingV3>)#1}, std::__ndk1::allocator<geode::listenForSettingChangesV3<bool, geodeExecFunction17<(anonymous namespace)::ExecFuncUnique17>(geode::ModStateEvent*)::{lambda(bool)#2}>(std::__ndk1::basic_string_view<char, std::__ndk1::char_traits<char> >, geodeExecFunction17<(anonymous namespace)::ExecFuncUnique17>(geode::ModStateEvent*)::{lambda(bool)#2}&&, geode::Mod*)::{lambda(std::__ndk1::shared_ptr<geode::SettingV3>)#1}>, void (std::__ndk1::shared_ptr<geode::SettingV3>)>::__clone() const
PUBLIC 1beb0 0 std::__ndk1::__function::__func<geode::listenForSettingChangesV3<bool, geodeExecFunction17<(anonymous namespace)::ExecFuncUnique17>(geode::ModStateEvent*)::{lambda(bool)#2}>(std::__ndk1::basic_string_view<char, std::__ndk1::char_traits<char> >, geodeExecFunction17<(anonymous namespace)::ExecFuncUnique17>(geode::ModStateEvent*)::{lambda(bool)#2}&&, geode::Mod*)::{lambda(std::__ndk1::shared_ptr<geode::SettingV3>)#1}, std::__ndk1::allocator<geode::listenForSettingChangesV3<bool, geodeExecFunction17<(anonymous namespace)::ExecFuncUnique17>(geode::ModStateEvent*)::{lambda(bool)#2}>(std::__ndk1::basic_string_view<char, std::__ndk1::char_traits<char> >, geodeExecFunction17<(anonymous namespace)::ExecFuncUnique17>(geode::ModStateEvent*)::{lambda(bool)#2}&&, geode::Mod*)::{lambda(std::__ndk1::shared_ptr<geode::SettingV3>)#1}>, void (std::__ndk1::shared_ptr<geode::SettingV3>)>::__clone(std::__ndk1::__function::__base<void (std::__ndk1::shared_ptr<geode::SettingV3>)>*) const
PUBLIC 1bec4 0 std::__ndk1::__function::__func<geode::listenForSettingChangesV3<bool, geodeExecFunction17<(anonymous namespace)::ExecFuncUnique17>(geode::ModStateEvent*)::{lambda(bool)#2}>(std::__ndk1::basic_string_view<char, std::__ndk1::char_traits<char> >, geodeExecFunction17<(anonymous namespace)::ExecFuncUnique17>(geode::ModStateEvent*)::{lambda(bool)#2}&&, geode::Mod*)::{lambda(std::__ndk1::shared_ptr<geode::SettingV3>)#1}, std::__ndk1::allocator<geode::listenForSettingChangesV3<bool, geodeExecFunction17<(anonymous namespace)::ExecFuncUnique17>(geode::ModStateEvent*)::{lambda(bool)#2}>(std::__ndk1::basic_string_view<char, std::__ndk1::char_traits<char> >, geodeExecFunction17<(anonymous namespace)::ExecFuncUnique17>(geode::ModStateEvent*)::{lambda(bool)#2}&&, geode::Mod*)::{lambda(std::__ndk1::shared_ptr<geode::SettingV3>)#1}>, void (std::__ndk1::shared_ptr<geode::SettingV3>)>::destroy()
PUBLIC 1bec8 0 std::__ndk1::__function::__func<geode::listenForSettingChangesV3<bool, geodeExecFunction17<(anonymous namespace)::ExecFuncUnique17>(geode::ModStateEvent*)::{lambda(bool)#2}>(std::__ndk1::basic_string_view<char, std::__ndk1::char_traits<char> >, geodeExecFunction17<(anonymous namespace)::ExecFuncUnique17>(geode::ModStateEvent*)::{lambda(bool)#2}&&, geode::Mod*)::{lambda(std::__ndk1::shared_ptr<geode::SettingV3>)#1}, std::__ndk1::allocator<geode::listenForSettingChangesV3<bool, geodeExecFunction17<(anonymous namespace)::ExecFuncUnique17>(geode::ModStateEvent*)::{lambda(bool)#2}>(std::__ndk1::basic_string_view<char, std::__ndk1::char_traits<char> >, geodeExecFunction17<(anonymous namespace)::ExecFuncUnique17>(geode::ModStateEvent*)::{lambda(bool)#2}&&, geode::Mod*)::{lambda(std::__ndk1::shared_ptr<geode::SettingV3>)#1}>, void (std::__ndk1::shared_ptr<geode::SettingV3>)>::destroy_deallocate()
PUBLIC 1becc 0 std::__ndk1::__function::__func<geode::listenForSettingChangesV3<bool, geodeExecFunction17<(anonymous namespace)::ExecFuncUnique17>(geode::ModStateEvent*)::{lambda(bool)#2}>(std::__ndk1::basic_string_view<char, std::__ndk1::char_traits<char> >, geodeExecFunction17<(anonymous namespace)::ExecFuncUnique17>(geode::ModStateEvent*)::{lambda(bool)#2}&&, geode::Mod*)::{lambda(std::__ndk1::shared_ptr<geode::SettingV3>)#1}, std::__ndk1::allocator<geode::listenForSettingChangesV3<bool, geodeExecFunction17<(anonymous namespace)::ExecFuncUnique17>(geode::ModStateEvent*)::{lambda(bool)#2}>(std::__ndk1::basic_string_view<char, std::__ndk1::char_traits<char> >, geodeExecFunction17<(anonymous namespace)::ExecFuncUnique17>(geode::ModStateEvent*)::{lambda(bool)#2}&&, geode::Mod*)::{lambda(std::__ndk1::shared_ptr<geode::SettingV3>)#1}>, void (std::__ndk1::shared_ptr<geode::SettingV3>)>::operator()(std::__ndk1::shared_ptr<geode::SettingV3>&&)
PUBLIC 1bfcc 0 std::__ndk1::__function::__func<geode::listenForSettingChangesV3<bool, geodeExecFunction17<(anonymous namespace)::ExecFuncUnique17>(geode::ModStateEvent*)::{lambda(bool)#2}>(std::__ndk1::basic_string_view<char, std::__ndk1::char_traits<char> >, geodeExecFunction17<(anonymous namespace)::ExecFuncUnique17>(geode::ModStateEvent*)::{lambda(bool)#2}&&, geode::Mod*)::{lambda(std::__ndk1::shared_ptr<geode::SettingV3>)#1}, std::__ndk1::allocator<geode::listenForSettingChangesV3<bool, geodeExecFunction17<(anonymous namespace)::ExecFuncUnique17>(geode::ModStateEvent*)::{lambda(bool)#2}>(std::__ndk1::basic_string_view<char, std::__ndk1::char_traits<char> >, geodeExecFunction17<(anonymous namespace)::ExecFuncUnique17>(geode::ModStateEvent*)::{lambda(bool)#2}&&, geode::Mod*)::{lambda(std::__ndk1::shared_ptr<geode::SettingV3>)#1}>, void (std::__ndk1::shared_ptr<geode::SettingV3>)>::target(std::type_info const&) const
PUBLIC 1bfe8 0 std::__ndk1::__function::__func<geode::listenForSettingChangesV3<bool, geodeExecFunction17<(anonymous namespace)::ExecFuncUnique17>(geode::ModStateEvent*)::{lambda(bool)#2}>(std::__ndk1::basic_string_view<char, std::__ndk1::char_traits<char> >, geodeExecFunction17<(anonymous namespace)::ExecFuncUnique17>(geode::ModStateEvent*)::{lambda(bool)#2}&&, geode::Mod*)::{lambda(std::__ndk1::shared_ptr<geode::SettingV3>)#1}, std::__ndk1::allocator<geode::listenForSettingChangesV3<bool, geodeExecFunction17<(anonymous namespace)::ExecFuncUnique17>(geode::ModStateEvent*)::{lambda(bool)#2}>(std::__ndk1::basic_string_view<char, std::__ndk1::char_traits<char> >, geodeExecFunction17<(anonymous namespace)::ExecFuncUnique17>(geode::ModStateEvent*)::{lambda(bool)#2}&&, geode::Mod*)::{lambda(std::__ndk1::shared_ptr<geode::SettingV3>)#1}>, void (std::__ndk1::shared_ptr<geode::SettingV3>)>::target_type() const
PUBLIC 1bff4 0 std::__ndk1::__function::__func<geode::listenForSettingChangesV3<bool, geodeExecFunction17<(anonymous namespace)::ExecFuncUnique17>(geode::ModStateEvent*)::{lambda(bool)#3}>(std::__ndk1::basic_string_view<char, std::__ndk1::char_traits<char> >, geodeExecFunction17<(anonymous namespace)::ExecFuncUnique17>(geode::ModStateEvent*)::{lambda(bool)#3}&&, geode::Mod*)::{lambda(std::__ndk1::shared_ptr<geode::SettingV3>)#1}, std::__ndk1::allocator<geode::listenForSettingChangesV3<bool, geodeExecFunction17<(anonymous namespace)::ExecFuncUnique17>(geode::ModStateEvent*)::{lambda(bool)#3}>(std::__ndk1::basic_string_view<char, std::__ndk1::char_traits<char> >, geodeExecFunction17<(anonymous namespace)::ExecFuncUnique17>(geode::ModStateEvent*)::{lambda(bool)#3}&&, geode::Mod*)::{lambda(std::__ndk1::shared_ptr<geode::SettingV3>)#1}>, void (std::__ndk1::shared_ptr<geode::SettingV3>)>::~__func()
PUBLIC 1bff8 0 std::__ndk1::__function::__func<geode::listenForSettingChangesV3<bool, geodeExecFunction17<(anonymous namespace)::ExecFuncUnique17>(geode::ModStateEvent*)::{lambda(bool)#3}>(std::__ndk1::basic_string_view<char, std::__ndk1::char_traits<char> >, geodeExecFunction17<(anonymous namespace)::ExecFuncUnique17>(geode::ModStateEvent*)::{lambda(bool)#3}&&, geode::Mod*)::{lambda(std::__ndk1::shared_ptr<geode::SettingV3>)#1}, std::__ndk1::allocator<geode::listenForSettingChangesV3<bool, geodeExecFunction17<(anonymous namespace)::ExecFuncUnique17>(geode::ModStateEvent*)::{lambda(bool)#3}>(std::__ndk1::basic_string_view<char, std::__ndk1::char_traits<char> >, geodeExecFunction17<(anonymous namespace)::ExecFuncUnique17>(geode::ModStateEvent*)::{lambda(bool)#3}&&, geode::Mod*)::{lambda(std::__ndk1::shared_ptr<geode::SettingV3>)#1}>, void (std::__ndk1::shared_ptr<geode::SettingV3>)>::__clone() const
PUBLIC 1c02c 0 std::__ndk1::__function::__func<geode::listenForSettingChangesV3<bool, geodeExecFunction17<(anonymous namespace)::ExecFuncUnique17>(geode::ModStateEvent*)::{lambda(bool)#3}>(std::__ndk1::basic_string_view<char, std::__ndk1::char_traits<char> >, geodeExecFunction17<(anonymous namespace)::ExecFuncUnique17>(geode::ModStateEvent*)::{lambda(bool)#3}&&, geode::Mod*)::{lambda(std::__ndk1::shared_ptr<geode::SettingV3>)#1}, std::__ndk1::allocator<geode::listenForSettingChangesV3<bool, geodeExecFunction17<(anonymous namespace)::ExecFuncUnique17>(geode::ModStateEvent*)::{lambda(bool)#3}>(std::__ndk1::basic_string_view<char, std::__ndk1::char_traits<char> >, geodeExecFunction17<(anonymous namespace)::ExecFuncUnique17>(geode::ModStateEvent*)::{lambda(bool)#3}&&, geode::Mod*)::{lambda(std::__ndk1::shared_ptr<geode::SettingV3>)#1}>, void (std::__ndk1::shared_ptr<geode::SettingV3>)>::__clone(std::__ndk1::__function::__base<void (std::__ndk1::shared_ptr<geode::SettingV3>)>*) const
PUBLIC 1c040 0 std::__ndk1::__function::__func<geode::listenForSettingChangesV3<bool, geodeExecFunction17<(anonymous namespace)::ExecFuncUnique17>(geode::ModStateEvent*)::{lambda(bool)#3}>(std::__ndk1::basic_string_view<char, std::__ndk1::char_traits<char> >, geodeExecFunction17<(anonymous namespace)::ExecFuncUnique17>(geode::ModStateEvent*)::{lambda(bool)#3}&&, geode::Mod*)::{lambda(std::__ndk1::shared_ptr<geode::SettingV3>)#1}, std::__ndk1::allocator<geode::listenForSettingChangesV3<bool, geodeExecFunction17<(anonymous namespace)::ExecFuncUnique17>(geode::ModStateEvent*)::{lambda(bool)#3}>(std::__ndk1::basic_string_view<char, std::__ndk1::char_traits<char> >, geodeExecFunction17<(anonymous namespace)::ExecFuncUnique17>(geode::ModStateEvent*)::{lambda(bool)#3}&&, geode::Mod*)::{lambda(std::__ndk1::shared_ptr<geode::SettingV3>)#1}>, void (std::__ndk1::shared_ptr<geode::SettingV3>)>::destroy()
PUBLIC 1c044 0 std::__ndk1::__function::__func<geode::listenForSettingChangesV3<bool, geodeExecFunction17<(anonymous namespace)::ExecFuncUnique17>(geode::ModStateEvent*)::{lambda(bool)#3}>(std::__ndk1::basic_string_view<char, std::__ndk1::char_traits<char> >, geodeExecFunction17<(anonymous namespace)::ExecFuncUnique17>(geode::ModStateEvent*)::{lambda(bool)#3}&&, geode::Mod*)::{lambda(std::__ndk1::shared_ptr<geode::SettingV3>)#1}, std::__ndk1::allocator<geode::listenForSettingChangesV3<bool, geodeExecFunction17<(anonymous namespace)::ExecFuncUnique17>(geode::ModStateEvent*)::{lambda(bool)#3}>(std::__ndk1::basic_string_view<char, std::__ndk1::char_traits<char> >, geodeExecFunction17<(anonymous namespace)::ExecFuncUnique17>(geode::ModStateEvent*)::{lambda(bool)#3}&&, geode::Mod*)::{lambda(std::__ndk1::shared_ptr<geode::SettingV3>)#1}>, void (std::__ndk1::shared_ptr<geode::SettingV3>)>::destroy_deallocate()
PUBLIC 1c048 0 std::__ndk1::__function::__func<geode::listenForSettingChangesV3<bool, geodeExecFunction17<(anonymous namespace)::ExecFuncUnique17>(geode::ModStateEvent*)::{lambda(bool)#3}>(std::__ndk1::basic_string_view<char, std::__ndk1::char_traits<char> >, geodeExecFunction17<(anonymous namespace)::ExecFuncUnique17>(geode::ModStateEvent*)::{lambda(bool)#3}&&, geode::Mod*)::{lambda(std::__ndk1::shared_ptr<geode::SettingV3>)#1}, std::__ndk1::allocator<geode::listenForSettingChangesV3<bool, geodeExecFunction17<(anonymous namespace)::ExecFuncUnique17>(geode::ModStateEvent*)::{lambda(bool)#3}>(std::__ndk1::basic_string_view<char, std::__ndk1::char_traits<char> >, geodeExecFunction17<(anonymous namespace)::ExecFuncUnique17>(geode::ModStateEvent*)::{lambda(bool)#3}&&, geode::Mod*)::{lambda(std::__ndk1::shared_ptr<geode::SettingV3>)#1}>, void (std::__ndk1::shared_ptr<geode::SettingV3>)>::operator()(std::__ndk1::shared_ptr<geode::SettingV3>&&)
PUBLIC 1c148 0 std::__ndk1::__function::__func<geode::listenForSettingChangesV3<bool, geodeExecFunction17<(anonymous namespace)::ExecFuncUnique17>(geode::ModStateEvent*)::{lambda(bool)#3}>(std::__ndk1::basic_string_view<char, std::__ndk1::char_traits<char> >, geodeExecFunction17<(anonymous namespace)::ExecFuncUnique17>(geode::ModStateEvent*)::{lambda(bool)#3}&&, geode::Mod*)::{lambda(std::__ndk1::shared_ptr<geode::SettingV3>)#1}, std::__ndk1::allocator<geode::listenForSettingChangesV3<bool, geodeExecFunction17<(anonymous namespace)::ExecFuncUnique17>(geode::ModStateEvent*)::{lambda(bool)#3}>(std::__ndk1::basic_string_view<char, std::__ndk1::char_traits<char> >, geodeExecFunction17<(anonymous namespace)::ExecFuncUnique17>(geode::ModStateEvent*)::{lambda(bool)#3}&&, geode::Mod*)::{lambda(std::__ndk1::shared_ptr<geode::SettingV3>)#1}>, void (std::__ndk1::shared_ptr<geode::SettingV3>)>::target(std::type_info const&) const
PUBLIC 1c164 0 std::__ndk1::__function::__func<geode::listenForSettingChangesV3<bool, geodeExecFunction17<(anonymous namespace)::ExecFuncUnique17>(geode::ModStateEvent*)::{lambda(bool)#3}>(std::__ndk1::basic_string_view<char, std::__ndk1::char_traits<char> >, geodeExecFunction17<(anonymous namespace)::ExecFuncUnique17>(geode::ModStateEvent*)::{lambda(bool)#3}&&, geode::Mod*)::{lambda(std::__ndk1::shared_ptr<geode::SettingV3>)#1}, std::__ndk1::allocator<geode::listenForSettingChangesV3<bool, geodeExecFunction17<(anonymous namespace)::ExecFuncUnique17>(geode::ModStateEvent*)::{lambda(bool)#3}>(std::__ndk1::basic_string_view<char, std::__ndk1::char_traits<char> >, geodeExecFunction17<(anonymous namespace)::ExecFuncUnique17>(geode::ModStateEvent*)::{lambda(bool)#3}&&, geode::Mod*)::{lambda(std::__ndk1::shared_ptr<geode::SettingV3>)#1}>, void (std::__ndk1::shared_ptr<geode::SettingV3>)>::target_type() const
PUBLIC 1c170 0 std::__ndk1::__function::__base<void (std::__ndk1::shared_ptr<geode::SettingV3>)>::~__base()
PUBLIC 1c174 0 std::__ndk1::__function::__func<geode::listenForSettingChangesV3<double, geodeExecFunction17<(anonymous namespace)::ExecFuncUnique17>(geode::ModStateEvent*)::{lambda(double)#1}>(std::__ndk1::basic_string_view<char, std::__ndk1::char_traits<char> >, geodeExecFunction17<(anonymous namespace)::ExecFuncUnique17>(geode::ModStateEvent*)::{lambda(double)#1}&&, geode::Mod*)::{lambda(std::__ndk1::shared_ptr<geode::SettingV3>)#1}, std::__ndk1::allocator<geode::listenForSettingChangesV3<double, geodeExecFunction17<(anonymous namespace)::ExecFuncUnique17>(geode::ModStateEvent*)::{lambda(double)#1}>(std::__ndk1::basic_string_view<char, std::__ndk1::char_traits<char> >, geodeExecFunction17<(anonymous namespace)::ExecFuncUnique17>(geode::ModStateEvent*)::{lambda(double)#1}&&, geode::Mod*)::{lambda(std::__ndk1::shared_ptr<geode::SettingV3>)#1}>, void (std::__ndk1::shared_ptr<geode::SettingV3>)>::~__func()
PUBLIC 1c178 0 std::__ndk1::__function::__func<geode::listenForSettingChangesV3<double, geodeExecFunction17<(anonymous namespace)::ExecFuncUnique17>(geode::ModStateEvent*)::{lambda(double)#1}>(std::__ndk1::basic_string_view<char, std::__ndk1::char_traits<char> >, geodeExecFunction17<(anonymous namespace)::ExecFuncUnique17>(geode::ModStateEvent*)::{lambda(double)#1}&&, geode::Mod*)::{lambda(std::__ndk1::shared_ptr<geode::SettingV3>)#1}, std::__ndk1::allocator<geode::listenForSettingChangesV3<double, geodeExecFunction17<(anonymous namespace)::ExecFuncUnique17>(geode::ModStateEvent*)::{lambda(double)#1}>(std::__ndk1::basic_string_view<char, std::__ndk1::char_traits<char> >, geodeExecFunction17<(anonymous namespace)::ExecFuncUnique17>(geode::ModStateEvent*)::{lambda(double)#1}&&, geode::Mod*)::{lambda(std::__ndk1::shared_ptr<geode::SettingV3>)#1}>, void (std::__ndk1::shared_ptr<geode::SettingV3>)>::__clone() const
PUBLIC 1c1ac 0 std::__ndk1::__function::__func<geode::listenForSettingChangesV3<double, geodeExecFunction17<(anonymous namespace)::ExecFuncUnique17>(geode::ModStateEvent*)::{lambda(double)#1}>(std::__ndk1::basic_string_view<char, std::__ndk1::char_traits<char> >, geodeExecFunction17<(anonymous namespace)::ExecFuncUnique17>(geode::ModStateEvent*)::{lambda(double)#1}&&, geode::Mod*)::{lambda(std::__ndk1::shared_ptr<geode::SettingV3>)#1}, std::__ndk1::allocator<geode::listenForSettingChangesV3<double, geodeExecFunction17<(anonymous namespace)::ExecFuncUnique17>(geode::ModStateEvent*)::{lambda(double)#1}>(std::__ndk1::basic_string_view<char, std::__ndk1::char_traits<char> >, geodeExecFunction17<(anonymous namespace)::ExecFuncUnique17>(geode::ModStateEvent*)::{lambda(double)#1}&&, geode::Mod*)::{lambda(std::__ndk1::shared_ptr<geode::SettingV3>)#1}>, void (std::__ndk1::shared_ptr<geode::SettingV3>)>::__clone(std::__ndk1::__function::__base<void (std::__ndk1::shared_ptr<geode::SettingV3>)>*) const
PUBLIC 1c1c0 0 std::__ndk1::__function::__func<geode::listenForSettingChangesV3<double, geodeExecFunction17<(anonymous namespace)::ExecFuncUnique17>(geode::ModStateEvent*)::{lambda(double)#1}>(std::__ndk1::basic_string_view<char, std::__ndk1::char_traits<char> >, geodeExecFunction17<(anonymous namespace)::ExecFuncUnique17>(geode::ModStateEvent*)::{lambda(double)#1}&&, geode::Mod*)::{lambda(std::__ndk1::shared_ptr<geode::SettingV3>)#1}, std::__ndk1::allocator<geode::listenForSettingChangesV3<double, geodeExecFunction17<(anonymous namespace)::ExecFuncUnique17>(geode::ModStateEvent*)::{lambda(double)#1}>(std::__ndk1::basic_string_view<char, std::__ndk1::char_traits<char> >, geodeExecFunction17<(anonymous namespace)::ExecFuncUnique17>(geode::ModStateEvent*)::{lambda(double)#1}&&, geode::Mod*)::{lambda(std::__ndk1::shared_ptr<geode::SettingV3>)#1}>, void (std::__ndk1::shared_ptr<geode::SettingV3>)>::destroy()
PUBLIC 1c1c4 0 std::__ndk1::__function::__func<geode::listenForSettingChangesV3<double, geodeExecFunction17<(anonymous namespace)::ExecFuncUnique17>(geode::ModStateEvent*)::{lambda(double)#1}>(std::__ndk1::basic_string_view<char, std::__ndk1::char_traits<char> >, geodeExecFunction17<(anonymous namespace)::ExecFuncUnique17>(geode::ModStateEvent*)::{lambda(double)#1}&&, geode::Mod*)::{lambda(std::__ndk1::shared_ptr<geode::SettingV3>)#1}, std::__ndk1::allocator<geode::listenForSettingChangesV3<double, geodeExecFunction17<(anonymous namespace)::ExecFuncUnique17>(geode::ModStateEvent*)::{lambda(double)#1}>(std::__ndk1::basic_string_view<char, std::__ndk1::char_traits<char> >, geodeExecFunction17<(anonymous namespace)::ExecFuncUnique17>(geode::ModStateEvent*)::{lambda(double)#1}&&, geode::Mod*)::{lambda(std::__ndk1::shared_ptr<geode::SettingV3>)#1}>, void (std::__ndk1::shared_ptr<geode::SettingV3>)>::destroy_deallocate()
PUBLIC 1c1c8 0 std::__ndk1::__function::__func<geode::listenForSettingChangesV3<double, geodeExecFunction17<(anonymous namespace)::ExecFuncUnique17>(geode::ModStateEvent*)::{lambda(double)#1}>(std::__ndk1::basic_string_view<char, std::__ndk1::char_traits<char> >, geodeExecFunction17<(anonymous namespace)::ExecFuncUnique17>(geode::ModStateEvent*)::{lambda(double)#1}&&, geode::Mod*)::{lambda(std::__ndk1::shared_ptr<geode::SettingV3>)#1}, std::__ndk1::allocator<geode::listenForSettingChangesV3<double, geodeExecFunction17<(anonymous namespace)::ExecFuncUnique17>(geode::ModStateEvent*)::{lambda(double)#1}>(std::__ndk1::basic_string_view<char, std::__ndk1::char_traits<char> >, geodeExecFunction17<(anonymous namespace)::ExecFuncUnique17>(geode::ModStateEvent*)::{lambda(double)#1}&&, geode::Mod*)::{lambda(std::__ndk1::shared_ptr<geode::SettingV3>)#1}>, void (std::__ndk1::shared_ptr<geode::SettingV3>)>::operator()(std::__ndk1::shared_ptr<geode::SettingV3>&&)
PUBLIC 1c2e4 0 std::__ndk1::__function::__func<geode::listenForSettingChangesV3<double, geodeExecFunction17<(anonymous namespace)::ExecFuncUnique17>(geode::ModStateEvent*)::{lambda(double)#1}>(std::__ndk1::basic_string_view<char, std::__ndk1::char_traits<char> >, geodeExecFunction17<(anonymous namespace)::ExecFuncUnique17>(geode::ModStateEvent*)::{lambda(double)#1}&&, geode::Mod*)::{lambda(std::__ndk1::shared_ptr<geode::SettingV3>)#1}, std::__ndk1::allocator<geode::listenForSettingChangesV3<double, geodeExecFunction17<(anonymous namespace)::ExecFuncUnique17>(geode::ModStateEvent*)::{lambda(double)#1}>(std::__ndk1::basic_string_view<char, std::__ndk1::char_traits<char> >, geodeExecFunction17<(anonymous namespace)::ExecFuncUnique17>(geode::ModStateEvent*)::{lambda(double)#1}&&, geode::Mod*)::{lambda(std::__ndk1::shared_ptr<geode::SettingV3>)#1}>, void (std::__ndk1::shared_ptr<geode::SettingV3>)>::target(std::type_info const&) const
PUBLIC 1c300 0 std::__ndk1::__function::__func<geode::listenForSettingChangesV3<double, geodeExecFunction17<(anonymous namespace)::ExecFuncUnique17>(geode::ModStateEvent*)::{lambda(double)#1}>(std::__ndk1::basic_string_view<char, std::__ndk1::char_traits<char> >, geodeExecFunction17<(anonymous namespace)::ExecFuncUnique17>(geode::ModStateEvent*)::{lambda(double)#1}&&, geode::Mod*)::{lambda(std::__ndk1::shared_ptr<geode::SettingV3>)#1}, std::__ndk1::allocator<geode::listenForSettingChangesV3<double, geodeExecFunction17<(anonymous namespace)::ExecFuncUnique17>(geode::ModStateEvent*)::{lambda(double)#1}>(std::__ndk1::basic_string_view<char, std::__ndk1::char_traits<char> >, geodeExecFunction17<(anonymous namespace)::ExecFuncUnique17>(geode::ModStateEvent*)::{lambda(double)#1}&&, geode::Mod*)::{lambda(std::__ndk1::shared_ptr<geode::SettingV3>)#1}>, void (std::__ndk1::shared_ptr<geode::SettingV3>)>::target_type() const
PUBLIC 1c30c 0 geode::EventListener<geode::ModStateFilter>::getPool() const
PUBLIC 1c310 0 geode::EventListener<geode::ModStateFilter>::handle(geode::Event*)
PUBLIC 1c484 0 geode::EventListener<geode::ModStateFilter>::~EventListener()
PUBLIC 1c4e0 0 geode::EventListener<geode::ModStateFilter>::~EventListener()
PUBLIC 1c544 0 std::__ndk1::__function::__base<void (geode::ModStateEvent*)>::~__base()
PUBLIC 1c548 0 std::__ndk1::__function::__func<void (*)(geode::ModStateEvent*), std::__ndk1::allocator<void (*)(geode::ModStateEvent*)>, void (geode::ModStateEvent*)>::~__func()
PUBLIC 1c54c 0 std::__ndk1::__function::__func<void (*)(geode::ModStateEvent*), std::__ndk1::allocator<void (*)(geode::ModStateEvent*)>, void (geode::ModStateEvent*)>::__clone() const
PUBLIC 1c580 0 std::__ndk1::__function::__func<void (*)(geode::ModStateEvent*), std::__ndk1::allocator<void (*)(geode::ModStateEvent*)>, void (geode::ModStateEvent*)>::__clone(std::__ndk1::__function::__base<void (geode::ModStateEvent*)>*) const
PUBLIC 1c594 0 std::__ndk1::__function::__func<void (*)(geode::ModStateEvent*), std::__ndk1::allocator<void (*)(geode::ModStateEvent*)>, void (geode::ModStateEvent*)>::destroy()
PUBLIC 1c598 0 std::__ndk1::__function::__func<void (*)(geode::ModStateEvent*), std::__ndk1::allocator<void (*)(geode::ModStateEvent*)>, void (geode::ModStateEvent*)>::destroy_deallocate()
PUBLIC 1c59c 0 std::__ndk1::__function::__func<void (*)(geode::ModStateEvent*), std::__ndk1::allocator<void (*)(geode::ModStateEvent*)>, void (geode::ModStateEvent*)>::operator()(geode::ModStateEvent*&&)
PUBLIC 1c5ac 0 std::__ndk1::__function::__func<void (*)(geode::ModStateEvent*), std::__ndk1::allocator<void (*)(geode::ModStateEvent*)>, void (geode::ModStateEvent*)>::target(std::type_info const&) const
PUBLIC 1c5c8 0 std::__ndk1::__function::__func<void (*)(geode::ModStateEvent*), std::__ndk1::allocator<void (*)(geode::ModStateEvent*)>, void (geode::ModStateEvent*)>::target_type() const
PUBLIC 1c5d4 0 _GLOBAL__sub_I_ModManager.cpp
PUBLIC m 1c700 0 geodeImplicitEntry
PUBLIC 1c73c 0 std::__ndk1::unordered_map<void*, bool, std::__ndk1::hash<void*>, std::__ndk1::equal_to<void*>, std::__ndk1::allocator<std::__ndk1::pair<void* const, bool> > >::~unordered_map[abi:ne180000]()
PUBLIC 1c788 0 wrapFunction(unsigned long, tulip::hook::WrapperMetadata const&)
PUBLIC 1c8bc 0 geode::impl::ResultData<void*, std::__ndk1::basic_string<char, std::__ndk1::char_traits<char>, std::__ndk1::allocator<char> > >::unwrapErr() &
PUBLIC 1c934 0 geode::impl::ResultData<void*, std::__ndk1::basic_string<char, std::__ndk1::char_traits<char>, std::__ndk1::allocator<char> > >::~ResultData()
PUBLIC 1c9a8 0 tulip::hook::WrapperMetadata::~WrapperMetadata()
PUBLIC 1ca0c 0 cocos2d::CCObject::CCObject()
PUBLIC 1cc30 0 cocos2d::CCObject::~CCObject()
PUBLIC 1cc54 0 cocos2d::CCObject::~CCObject()
PUBLIC 1d148 0 _ZN5geode15UnwrapExceptionC2IRPvQsr4implE18IsStringStreamableIT_EEENS_4impl5OkTagEOS4_
PUBLIC 1d29c 0 _ZN5geode15UnwrapExceptionC2IRNSt6__ndk112basic_stringIcNS2_11char_traitsIcEENS2_9allocatorIcEEEEQsr4implE18IsStringStreamableIT_EEENS_4impl6ErrTagEOSA_
PUBLIC 1d404 0 std::__ndk1::__variant_detail::__visitation::__base::__dispatcher<(unsigned long)0>::__dispatch[abi:ne180000]<std::__ndk1::__variant_detail::__dtor<std::__ndk1::__variant_detail::__traits<void*, std::__ndk1::basic_string<char, std::__ndk1::char_traits<char>, std::__ndk1::allocator<char> > >, (std::__ndk1::__variant_detail::_Trait)1>::__destroy[abi:ne180000]()::{lambda(auto:1&)#1}, std::__ndk1::__variant_detail::__base<(std::__ndk1::__variant_detail::__traits<void*, std::__ndk1::basic_string<char, std::__ndk1::char_traits<char>, std::__ndk1::allocator<char> > >)1, std::__ndk1::__variant_detail::__traits, std::__ndk1::allocator<char> >&>(std::__ndk1::__variant_detail::__dtor<std::__ndk1::__variant_detail::__traits<void*, std::__ndk1::basic_string<char, std::__ndk1::char_traits<char>, std::__ndk1::allocator<char> > >, (std::__ndk1::__variant_detail::_Trait)1>, std::__ndk1::__variant_detail::__base<(std::__ndk1::__variant_detail::__traits<void*, std::__ndk1::basic_string<char, std::__ndk1::char_traits<char>, std::__ndk1::allocator<char> > >)1, std::__ndk1::__variant_detail::__traits, std::__ndk1::allocator<char> >&)
PUBLIC 1d408 0 std::__ndk1::__variant_detail::__visitation::__base::__dispatcher<(unsigned long)1>::__dispatch[abi:ne180000]<std::__ndk1::__variant_detail::__dtor<std::__ndk1::__variant_detail::__traits<void*, std::__ndk1::basic_string<char, std::__ndk1::char_traits<char>, std::__ndk1::allocator<char> > >, (std::__ndk1::__variant_detail::_Trait)1>::__destroy[abi:ne180000]()::{lambda(auto:1&)#1}, std::__ndk1::__variant_detail::__base<(std::__ndk1::__variant_detail::__traits<void*, std::__ndk1::basic_string<char, std::__ndk1::char_traits<char>, std::__ndk1::allocator<char> > >)1, std::__ndk1::__variant_detail::__traits, std::__ndk1::allocator<char> >&>(std::__ndk1::__variant_detail::__dtor<std::__ndk1::__variant_detail::__traits<void*, std::__ndk1::basic_string<char, std::__ndk1::char_traits<char>, std::__ndk1::allocator<char> > >, (std::__ndk1::__variant_detail::_Trait)1>, std::__ndk1::__variant_detail::__base<(std::__ndk1::__variant_detail::__traits<void*, std::__ndk1::basic_string<char, std::__ndk1::char_traits<char>, std::__ndk1::allocator<char> > >)1, std::__ndk1::__variant_detail::__traits, std::__ndk1::allocator<char> >&)
PUBLIC 1d41c 0 std::__ndk1::__hash_table<std::__ndk1::__hash_value_type<void*, bool>, std::__ndk1::__unordered_map_hasher<void*, std::__ndk1::__hash_value_type<void*, bool>, std::__ndk1::hash<void*>, std::__ndk1::equal_to<void*>, true>, std::__ndk1::__unordered_map_equal<void*, std::__ndk1::__hash_value_type<void*, bool>, std::__ndk1::equal_to<void*>, std::__ndk1::hash<void*>, true>, std::__ndk1::allocator<std::__ndk1::__hash_value_type<void*, bool> > >::__emplace_unique_key_args<void*, std::__ndk1::piecewise_construct_t const&, std::__ndk1::tuple<void* const&>, std::__ndk1::tuple<> >(void* const&, std::__ndk1::piecewise_construct_t const&, std::__ndk1::tuple<void* const&>, std::__ndk1::tuple<>)
PUBLIC 1d928 0 __udivti3
PUBLIC 1d934 0 __udivmodti4
PUBLIC m 1db80 0 __eqtf2
PUBLIC 1dc20 0 __unordtf2
PUBLIC 1dc58 0 fmt::v11::detail::write_loc(fmt::v11::basic_appender<char>, fmt::v11::loc_value, fmt::v11::format_specs const&, fmt::v11::detail::locale_ref)
PUBLIC 1deec 0 fmt::v11::format_facet<std::__ndk1::locale>::~format_facet()
PUBLIC 1df68 0 fmt::v11::report_error(char const*)
PUBLIC 1dfb8 0 fmt::v11::format_error::runtime_error(char const*)
PUBLIC 1dfe4 0 fmt::v11::format_facet<std::__ndk1::locale>::do_put(fmt::v11::basic_appender<char>, fmt::v11::loc_value, fmt::v11::format_specs const&) const
PUBLIC 1e7a4 0 fmt::v11::detail::loc_writer<char>::~loc_writer()
PUBLIC 1e808 0 fmt::v11::detail::vformat_to<char>(fmt::v11::detail::buffer<char>&, fmt::v11::basic_string_view<char>, fmt::v11::detail::vformat_args<char>::type, fmt::v11::detail::locale_ref)
PUBLIC 1ed78 0 fmt::v11::detail::is_printable(unsigned int)
PUBLIC 1efa0 0 fmt::v11::detail::dragonbox::to_decimal<float>(float)
PUBLIC 1f27c 0 fmt::v11::detail::dragonbox::to_decimal<double>(double)
PUBLIC 1f7b8 0 fmt::v11::basic_memory_buffer<char, (unsigned long)500, std::__ndk1::allocator<char> >::grow(fmt::v11::detail::buffer<char>&, unsigned long)
PUBLIC 1f830 0 fmt::v11::format_facet<std::__ndk1::locale>::~format_facet()
PUBLIC 1f8bc 0 fmt::v11::format_error::~format_error()
PUBLIC 1f8e0 0 fmt::v11::detail::copy_noinline<char, char const*, fmt::v11::basic_appender<char> >(char const*, char const*, fmt::v11::basic_appender<char>)
PUBLIC 1fa30 0 fmt::v11::detail::default_arg_formatter<char>::operator()<bool>(bool)
PUBLIC 1fa98 0 fmt::v11::detail::default_arg_formatter<char>::operator()<char>(char)
PUBLIC 1fb28 0 fmt::v11::detail::default_arg_formatter<char>::operator()<float>(float)
PUBLIC 1fc14 0 fmt::v11::detail::default_arg_formatter<char>::operator()<double>(double)
PUBLIC 1fd00 0 fmt::v11::detail::default_arg_formatter<char>::operator()<char const*>(char const*)
PUBLIC 1fd48 0 fmt::v11::detail::default_arg_formatter<char>::operator()<void const*>(void const*)
PUBLIC 1fde0 0 _ZN3fmt3v116detail5writeIcNS0_14basic_appenderIcEEiTnNSt6__ndk19enable_ifIXaaaasr11is_integralIT1_EE5valuentsr3std7is_sameIS7_bEE5valuentsr3std7is_sameIS7_T_EE5valueEiE4typeELi0EEET0_SB_S7_
PUBLIC 20040 0 fmt::v11::detail::copy_noinline<char, char*, fmt::v11::basic_appender<char> >(char*, char*, fmt::v11::basic_appender<char>)
PUBLIC 20190 0 _ZN3fmt3v116detail5writeIcNS0_14basic_appenderIcEEjTnNSt6__ndk19enable_ifIXaaaasr11is_integralIT1_EE5valuentsr3std7is_sameIS7_bEE5valuentsr3std7is_sameIS7_T_EE5valueEiE4typeELi0EEET0_SB_S7_
PUBLIC 20370 0 _ZN3fmt3v116detail5writeIcNS0_14basic_appenderIcEExTnNSt6__ndk19enable_ifIXaaaasr11is_integralIT1_EE5valuentsr3std7is_sameIS7_bEE5valuentsr3std7is_sameIS7_T_EE5valueEiE4typeELi0EEET0_SB_S7_
PUBLIC 205f4 0 _ZN3fmt3v116detail5writeIcNS0_14basic_appenderIcEEyTnNSt6__ndk19enable_ifIXaaaasr11is_integralIT1_EE5valuentsr3std7is_sameIS7_bEE5valuentsr3std7is_sameIS7_T_EE5valueEiE4typeELi0EEET0_SB_S7_
PUBLIC 207fc 0 _ZN3fmt3v116detail5writeIcNS0_14basic_appenderIcEEnTnNSt6__ndk19enable_ifIXaaaasr11is_integralIT1_EE5valuentsr3std7is_sameIS7_bEE5valuentsr3std7is_sameIS7_T_EE5valueEiE4typeELi0EEET0_SB_S7_
PUBLIC 20b5c 0 _ZN3fmt3v116detail5writeIcNS0_14basic_appenderIcEEoTnNSt6__ndk19enable_ifIXaaaasr11is_integralIT1_EE5valuentsr3std7is_sameIS7_bEE5valuentsr3std7is_sameIS7_T_EE5valueEiE4typeELi0EEET0_SB_S7_
PUBLIC 20e70 0 _ZN3fmt3v116detail5writeIcNS0_14basic_appenderIcEEbTnNSt6__ndk19enable_ifIXsr3std7is_sameIT1_bEE5valueEiE4typeELi0EEET0_SA_S7_RKNS0_12format_specsENS1_10locale_refE
PUBLIC 21100 0 fmt::v11::detail::write_int_noinline<char, fmt::v11::basic_appender<char>, unsigned int>(fmt::v11::basic_appender<char>, fmt::v11::detail::write_int_arg<unsigned int>, fmt::v11::format_specs const&, fmt::v11::detail::locale_ref)
PUBLIC 21edc 0 fmt::v11::detail::fill<char, fmt::v11::basic_appender<char> >(fmt::v11::basic_appender<char>, unsigned long, fmt::v11::detail::fill_t const&)
PUBLIC 220ac 0 fmt::v11::detail::write_padded<char, (fmt::v11::align::type)1, fmt::v11::basic_appender<char>, fmt::v11::detail::write_char<char, fmt::v11::basic_appender<char> >(fmt::v11::basic_appender<char>, char, fmt::v11::format_specs const&)::{lambda(fmt::v11::basic_appender<char>&)#1}>(fmt::v11::basic_appender<char>, fmt::v11::format_specs const&, unsigned long, unsigned long, fmt::v11::detail::write_char<char, fmt::v11::basic_appender<char> >(fmt::v11::basic_appender<char>, char, fmt::v11::format_specs const&)::{lambda(fmt::v11::basic_appender<char>&)#1})
PUBLIC 222e8 0 fmt::v11::detail::write_escaped_cp<fmt::v11::basic_appender<char>, char>(fmt::v11::basic_appender<char>, fmt::v11::detail::find_escape_result<char> const&)
PUBLIC 225f4 0 fmt::v11::detail::write_codepoint<(unsigned long)2, char, fmt::v11::basic_appender<char> >(fmt::v11::basic_appender<char>, char, unsigned int)
PUBLIC 2276c 0 fmt::v11::detail::write_codepoint<(unsigned long)8, char, fmt::v11::basic_appender<char> >(fmt::v11::basic_appender<char>, char, unsigned int)
PUBLIC 228e4 0 fmt::v11::detail::write_padded<char, (fmt::v11::align::type)1, fmt::v11::basic_appender<char>, fmt::v11::detail::write_nonfinite<char, fmt::v11::basic_appender<char> >(fmt::v11::basic_appender<char>, bool, fmt::v11::format_specs, fmt::v11::sign::type)::{lambda(fmt::v11::basic_appender<char>&)#1}>(fmt::v11::basic_appender<char>, fmt::v11::format_specs const&, unsigned long, unsigned long, fmt::v11::detail::write_nonfinite<char, fmt::v11::basic_appender<char> >(fmt::v11::basic_appender<char>, bool, fmt::v11::format_specs, fmt::v11::sign::type)::{lambda(fmt::v11::basic_appender<char>&)#1})
PUBLIC 22b24 0 fmt::v11::detail::do_write_float<char, fmt::v11::basic_appender<char>, fmt::v11::detail::dragonbox::decimal_fp<float>, fmt::v11::detail::digit_grouping<char> >(fmt::v11::basic_appender<char>, fmt::v11::detail::dragonbox::decimal_fp<float> const&, fmt::v11::format_specs const&, fmt::v11::detail::float_specs, fmt::v11::detail::locale_ref)
PUBLIC 23798 0 fmt::v11::detail::do_write_float<char, fmt::v11::basic_appender<char>, fmt::v11::detail::dragonbox::decimal_fp<float>, fmt::v11::detail::digit_grouping<char> >(fmt::v11::basic_appender<char>, fmt::v11::detail::dragonbox::decimal_fp<float> const&, fmt::v11::format_specs const&, fmt::v11::detail::float_specs, fmt::v11::detail::locale_ref)::{lambda(fmt::v11::basic_appender<char>(fmt::v11::basic_appender<char>))#1}::operator() const
PUBLIC 238ec 0 fmt::v11::detail::digit_grouping<char>::digit_grouping(fmt::v11::detail::locale_ref, bool)
PUBLIC 23b58 0 fmt::v11::detail::digit_grouping<char>::~digit_grouping()
PUBLIC 23b9c 0 fmt::v11::detail::write_exponent<char, fmt::v11::basic_appender<char> >(int, fmt::v11::basic_appender<char>)
PUBLIC 23d6c 0 _ZN3fmt3v116detail17write_significandIcjTnNSt6__ndk19enable_ifIXsr3std11is_integralIT0_EE5valueEiE4typeELi0EEEPT_S9_S5_iiS8_
PUBLIC 23ee8 0 std::__ndk1::basic_string<char, std::__ndk1::char_traits<char>, std::__ndk1::allocator<char> >::__assign_no_alias<true>(char const*, unsigned long)
PUBLIC 23f94 0 std::__ndk1::basic_string<char, std::__ndk1::char_traits<char>, std::__ndk1::allocator<char> >::__assign_no_alias<false>(char const*, unsigned long)
PUBLIC 240a4 0 fmt::v11::detail::digit_grouping<char>::apply<fmt::v11::basic_appender<char>, char>(fmt::v11::basic_appender<char>, fmt::v11::basic_string_view<char>) const
PUBLIC 2445c 0 fmt::v11::basic_memory_buffer<int, (unsigned long)500, std::__ndk1::allocator<int> >::grow(fmt::v11::detail::buffer<int>&, unsigned long)
PUBLIC 244fc 0 fmt::v11::detail::do_write_float<char, fmt::v11::basic_appender<char>, fmt::v11::detail::dragonbox::decimal_fp<double>, fmt::v11::detail::digit_grouping<char> >(fmt::v11::basic_appender<char>, fmt::v11::detail::dragonbox::decimal_fp<double> const&, fmt::v11::format_specs const&, fmt::v11::detail::float_specs, fmt::v11::detail::locale_ref)
PUBLIC 251b0 0 fmt::v11::detail::do_write_float<char, fmt::v11::basic_appender<char>, fmt::v11::detail::dragonbox::decimal_fp<double>, fmt::v11::detail::digit_grouping<char> >(fmt::v11::basic_appender<char>, fmt::v11::detail::dragonbox::decimal_fp<double> const&, fmt::v11::format_specs const&, fmt::v11::detail::float_specs, fmt::v11::detail::locale_ref)::{lambda(fmt::v11::basic_appender<char>(fmt::v11::basic_appender<char>))#1}::operator() const
PUBLIC 25308 0 _ZN3fmt3v116detail17write_significandIcmTnNSt6__ndk19enable_ifIXsr3std11is_integralIT0_EE5valueEiE4typeELi0EEEPT_S9_S5_iiS8_
PUBLIC 25498 0 fmt::v11::detail::write_float<char, fmt::v11::basic_appender<char>, long double>(fmt::v11::basic_appender<char>, long double, fmt::v11::format_specs, fmt::v11::detail::locale_ref)
PUBLIC 25f94 0 fmt::v11::detail::write_padded<char, (fmt::v11::align::type)2, fmt::v11::basic_appender<char>, fmt::v11::detail::write_bytes<char, (fmt::v11::align::type)2, fmt::v11::basic_appender<char> >(fmt::v11::basic_appender<char>, fmt::v11::basic_string_view<char>, fmt::v11::format_specs const&)::{lambda(fmt::v11::basic_appender<char>&)#1}>(fmt::v11::basic_appender<char>, fmt::v11::format_specs const&, unsigned long, unsigned long, fmt::v11::detail::write_bytes<char, (fmt::v11::align::type)2, fmt::v11::basic_appender<char> >(fmt::v11::basic_appender<char>, fmt::v11::basic_string_view<char>, fmt::v11::format_specs const&)::{lambda(fmt::v11::basic_appender<char>&)#1})
PUBLIC 26170 0 fmt::v11::detail::format_dragon(fmt::v11::detail::basic_fp<unsigned __int128>, unsigned int, int, fmt::v11::detail::buffer<char>&, int&)
PUBLIC 275a0 0 fmt::v11::detail::bigint::operator<<=(int)
PUBLIC 276c4 0 fmt::v11::detail::bigint::assign_pow10(int)
PUBLIC 27e20 0 fmt::v11::detail::bigint::divmod_assign(fmt::v11::detail::bigint const&)
PUBLIC 28140 0 fmt::v11::basic_memory_buffer<unsigned int, (unsigned long)32, std::__ndk1::allocator<unsigned int> >::grow(fmt::v11::detail::buffer<unsigned int>&, unsigned long)
PUBLIC 281e0 0 fmt::v11::detail::do_write_float<char, fmt::v11::basic_appender<char>, fmt::v11::detail::big_decimal_fp, fmt::v11::detail::digit_grouping<char> >(fmt::v11::basic_appender<char>, fmt::v11::detail::big_decimal_fp const&, fmt::v11::format_specs const&, fmt::v11::detail::float_specs, fmt::v11::detail::locale_ref)
PUBLIC 29090 0 fmt::v11::detail::do_write_float<char, fmt::v11::basic_appender<char>, fmt::v11::detail::big_decimal_fp, fmt::v11::detail::digit_grouping<char> >(fmt::v11::basic_appender<char>, fmt::v11::detail::big_decimal_fp const&, fmt::v11::format_specs const&, fmt::v11::detail::float_specs, fmt::v11::detail::locale_ref)::{lambda(fmt::v11::basic_appender<char>(fmt::v11::basic_appender<char>))#1}::operator() const
PUBLIC 291f0 0 fmt::v11::detail::write_padded<char, (fmt::v11::align::type)2, fmt::v11::basic_appender<char>, fmt::v11::detail::write_ptr<char, fmt::v11::basic_appender<char>, unsigned long>(fmt::v11::basic_appender<char>, unsigned long, fmt::v11::format_specs const*)::{lambda(fmt::v11::basic_appender<char>&)#1}>(fmt::v11::basic_appender<char>, fmt::v11::format_specs const&, unsigned long, unsigned long, fmt::v11::detail::write_ptr<char, fmt::v11::basic_appender<char>, unsigned long>(fmt::v11::basic_appender<char>, unsigned long, fmt::v11::format_specs const*)::{lambda(fmt::v11::basic_appender<char>&)#1})
PUBLIC 29404 0 fmt::v11::detail::parse_replacement_field<char, fmt::v11::detail::vformat_to<char>(fmt::v11::detail::buffer<char>&, fmt::v11::basic_string_view<char>, fmt::v11::detail::vformat_args<char>::type, fmt::v11::detail::locale_ref)::format_handler&>(char const*, char const*, fmt::v11::detail::vformat_to<char>(fmt::v11::detail::buffer<char>&, fmt::v11::basic_string_view<char>, fmt::v11::detail::vformat_args<char>::type, fmt::v11::detail::locale_ref)::format_handler&)
PUBLIC 2b0a0 0 fmt::v11::detail::parse_dynamic_spec<char>(char const*, char const*, int&, fmt::v11::detail::arg_ref<char>&, fmt::v11::basic_format_parse_context<char>&)
PUBLIC 2b330 0 fmt::v11::basic_format_args<fmt::v11::context>::get<char>(fmt::v11::basic_string_view<char>) const
PUBLIC 2b488 0 fmt::v11::detail::write_int_noinline<char, fmt::v11::basic_appender<char>, unsigned long>(fmt::v11::basic_appender<char>, fmt::v11::detail::write_int_arg<unsigned long>, fmt::v11::format_specs const&, fmt::v11::detail::locale_ref)
PUBLIC 2c2dc 0 fmt::v11::detail::write_int_noinline<char, fmt::v11::basic_appender<char>, unsigned __int128>(fmt::v11::basic_appender<char>, fmt::v11::detail::write_int_arg<unsigned __int128>, fmt::v11::format_specs const&, fmt::v11::detail::locale_ref)
PUBLIC 2d344 0 _ZN3fmt3v116detail15format_hexfloatIdTnNSt6__ndk19enable_ifIXntsr16is_double_doubleIT_EE5valueEiE4typeELi0EEEvS5_NS0_12format_specsERNS1_6bufferIcEE
PUBLIC 2d864 0 fmt::v11::detail::format_float<double>(double, int, fmt::v11::detail::float_specs, fmt::v11::detail::buffer<char>&)
PUBLIC 2e204 0 fmt::v11::detail::write<char, fmt::v11::basic_appender<char> >(fmt::v11::basic_appender<char>, fmt::v11::basic_string_view<char>, fmt::v11::format_specs const&)
PUBLIC 2f570 0 fmt::v11::detail::for_each_codepoint<fmt::v11::detail::compute_width(fmt::v11::basic_string_view<char>)::count_code_points>(fmt::v11::basic_string_view<char>, fmt::v11::detail::compute_width(fmt::v11::basic_string_view<char>)::count_code_points)::{lambda(char const*, char const*)#1}::operator()(char const*, char const*) const
PUBLIC 2f728 0 fmt::v11::detail::write_int<fmt::v11::basic_appender<char>, unsigned long, char>(fmt::v11::basic_appender<char>, unsigned long, unsigned int, fmt::v11::format_specs const&, fmt::v11::detail::digit_grouping<char> const&)
PUBLIC 2fca4 0 fmt::v11::detail::write_int<fmt::v11::basic_appender<char>, unsigned __int128, char>(fmt::v11::basic_appender<char>, unsigned __int128, unsigned int, fmt::v11::format_specs const&, fmt::v11::detail::digit_grouping<char> const&)
PUBLIC 30320 0 <.plt ELF section in capeling.startpos_switcher.android64.so>
STACK CFI INIT f390 10 .cfa: sp 0 +
STACK CFI INIT f3a0 8 .cfa: sp 0 +
STACK CFI INIT f3a8 8 .cfa: sp 0 +
STACK CFI INIT f3b0 14 .cfa: sp 0 +
STACK CFI INIT f3c4 1c .cfa: sp 0 +
STACK CFI INIT f3e0 10 .cfa: sp 0 +
STACK CFI INIT f3f0 134 .cfa: sp 0 +
STACK CFI INIT f524 84 .cfa: sp 0 +
STACK CFI INIT f5a8 f4 .cfa: sp 0 +
STACK CFI INIT f69c a8 .cfa: sp 0 +
STACK CFI INIT f744 7c .cfa: sp 0 +
STACK CFI INIT f7c0 14 .cfa: sp 0 +
STACK CFI INIT f7d4 40 .cfa: sp 0 +
STACK CFI INIT f814 28 .cfa: sp 0 +
STACK CFI INIT f83c 190 .cfa: sp 0 +
STACK CFI INIT f9cc 2c8 .cfa: sp 0 +
STACK CFI INIT fc94 8 .cfa: sp 0 +
STACK CFI INIT fc9c 8 .cfa: sp 0 +
STACK CFI INIT fca4 44 .cfa: sp 0 +
STACK CFI INIT fce8 e8 .cfa: sp 0 +
STACK CFI INIT fdd0 e8 .cfa: sp 0 +
STACK CFI INIT feb8 14 .cfa: sp 0 +
STACK CFI INIT fecc 10 .cfa: sp 0 +
STACK CFI INIT fedc 10 .cfa: sp 0 +
STACK CFI INIT feec f0 .cfa: sp 0 +
STACK CFI INIT ffdc 44 .cfa: sp 0 +
STACK CFI INIT 10020 c .cfa: sp 0 +
STACK CFI INIT 1002c c .cfa: sp 0 +
STACK CFI INIT 10038 2c .cfa: sp 0 +
STACK CFI INIT 10064 280 .cfa: sp 0 +
STACK CFI INIT 102e4 c .cfa: sp 0 +
STACK CFI INIT 102f0 120 .cfa: sp 0 +
STACK CFI INIT 10410 488 .cfa: sp 0 +
STACK CFI INIT 10898 c48 .cfa: sp 0 +
STACK CFI INIT 114e0 134 .cfa: sp 0 +
STACK CFI INIT 11614 210 .cfa: sp 0 +
STACK CFI INIT 11824 38c .cfa: sp 0 +
STACK CFI INIT 11bb0 1c8 .cfa: sp 0 +
STACK CFI INIT 11d78 9bc .cfa: sp 0 +
STACK CFI INIT 12734 2d4 .cfa: sp 0 +
STACK CFI INIT 12a08 134 .cfa: sp 0 +
STACK CFI INIT 12b3c 120 .cfa: sp 0 +
STACK CFI INIT 12c5c 1c8 .cfa: sp 0 +
STACK CFI INIT 12e24 168 .cfa: sp 0 +
STACK CFI INIT 12f8c fc .cfa: sp 0 +
STACK CFI INIT 13088 30 .cfa: sp 0 +
STACK CFI INIT 131f0 30 .cfa: sp 0 +
STACK CFI INIT 13220 98 .cfa: sp 0 +
STACK CFI INIT 132b8 59c .cfa: sp 0 +
STACK CFI INIT 13854 8c .cfa: sp 0 +
STACK CFI INIT 138e0 30 .cfa: sp 0 +
STACK CFI INIT 13b1c 100 .cfa: sp 0 +
STACK CFI 13b20 .cfa: sp 48 +
STACK CFI 13b2c .cfa: x29 48 + x19: .cfa -8 + ^ x20: .cfa -16 + ^ x21: .cfa -24 + ^ x22: .cfa -32 + ^ .ra: .cfa -40 + ^ x29: .cfa -48 + ^
STACK CFI 13bf4 .cfa: sp 48 +
STACK CFI 13c00 .cfa: sp 0 +
STACK CFI 13c04 .cfa: x29 48 +
STACK CFI INIT 13db0 a4 .cfa: sp 0 +
STACK CFI 13db4 .cfa: sp 32 +
STACK CFI 13dbc .cfa: x29 32 + x19: .cfa -8 + ^ x20: .cfa -16 + ^ .ra: .cfa -24 + ^ x29: .cfa -32 + ^
STACK CFI 13e48 .cfa: sp 32 +
STACK CFI 13e50 .cfa: sp 0 +
STACK CFI INIT 13e54 60 .cfa: sp 0 +
STACK CFI 13e64 .cfa: sp 32 +
STACK CFI 13e6c .cfa: x29 32 + x19: .cfa -16 + ^ .ra: .cfa -24 + ^ x29: .cfa -32 + ^
STACK CFI 13ea4 .cfa: sp 32 +
STACK CFI 13eac .cfa: sp 0 +
STACK CFI INIT 13eb4 1c .cfa: sp 0 +
STACK CFI INIT 13ed0 60 .cfa: sp 0 +
STACK CFI 13ee0 .cfa: sp 32 +
STACK CFI 13ee8 .cfa: x29 32 + x19: .cfa -16 + ^ .ra: .cfa -24 + ^ x29: .cfa -32 + ^
STACK CFI 13f20 .cfa: sp 32 +
STACK CFI 13f28 .cfa: sp 0 +
STACK CFI INIT 13f30 1c .cfa: sp 0 +
STACK CFI INIT 13f4c 14 .cfa: sp 0 +
STACK CFI 13f50 .cfa: sp 16 +
STACK CFI 13f54 .cfa: x29 16 + .ra: .cfa -8 + ^ x29: .cfa -16 + ^
STACK CFI INIT 13f60 10 .cfa: sp 0 +
STACK CFI 13f64 .cfa: sp 16 +
STACK CFI 13f68 .cfa: x29 16 + .ra: .cfa -8 + ^ x29: .cfa -16 + ^
STACK CFI INIT 13fc0 30 .cfa: sp 0 +
STACK CFI 13fc4 .cfa: sp 32 +
STACK CFI 13fcc .cfa: x29 32 + x19: .cfa -16 + ^ .ra: .cfa -24 + ^ x29: .cfa -32 + ^
STACK CFI 13fe4 .cfa: sp 32 +
STACK CFI 13fec .cfa: sp 0 +
STACK CFI INIT 13ff0 34 .cfa: sp 0 +
STACK CFI 13ff4 .cfa: sp 32 +
STACK CFI 13ffc .cfa: x29 32 + x19: .cfa -16 + ^ .ra: .cfa -24 + ^ x29: .cfa -32 + ^
STACK CFI INIT 143f0 18 .cfa: sp 0 +
STACK CFI INIT 14408 14 .cfa: sp 0 +
STACK CFI 1440c .cfa: sp 16 +
STACK CFI 14410 .cfa: x29 16 + .ra: .cfa -8 + ^ x29: .cfa -16 + ^
STACK CFI INIT 14648 14 .cfa: sp 0 +
STACK CFI 1464c .cfa: sp 16 +
STACK CFI 14650 .cfa: x29 16 + .ra: .cfa -8 + ^ x29: .cfa -16 + ^
STACK CFI INIT 1465c 14 .cfa: sp 0 +
STACK CFI 14660 .cfa: sp 16 +
STACK CFI 14664 .cfa: x29 16 + .ra: .cfa -8 + ^ x29: .cfa -16 + ^
STACK CFI INIT 146c0 30 .cfa: sp 0 +
STACK CFI 146c4 .cfa: sp 32 +
STACK CFI 146cc .cfa: x29 32 + x19: .cfa -16 + ^ .ra: .cfa -24 + ^ x29: .cfa -32 + ^
STACK CFI 146e4 .cfa: sp 32 +
STACK CFI 146ec .cfa: sp 0 +
STACK CFI INIT 146f0 14 .cfa: sp 0 +
STACK CFI 146f4 .cfa: sp 16 +
STACK CFI 146f8 .cfa: x29 16 + .ra: .cfa -8 + ^ x29: .cfa -16 + ^
STACK CFI INIT 14704 4 .cfa: sp 0 +
STACK CFI INIT 14708 4 .cfa: sp 0 +
STACK CFI INIT 1470c 38 .cfa: sp 0 +
STACK CFI 14710 .cfa: sp 32 +
STACK CFI 14718 .cfa: x29 32 + x19: .cfa -16 + ^ .ra: .cfa -24 + ^ x29: .cfa -32 + ^
STACK CFI 14738 .cfa: sp 32 +
STACK CFI 14740 .cfa: sp 0 +
STACK CFI INIT 14744 18 .cfa: sp 0 +
STACK CFI INIT 1475c 4 .cfa: sp 0 +
STACK CFI INIT 14760 4 .cfa: sp 0 +
STACK CFI INIT 14764 10 .cfa: sp 0 +
STACK CFI INIT 14774 1c .cfa: sp 0 +
STACK CFI INIT 14790 c .cfa: sp 0 +
STACK CFI INIT 1479c a60 .cfa: sp 0 +
STACK CFI 147a0 .cfa: sp 128 +
STACK CFI 147c0 .cfa: x29 96 + x19: .cfa -8 + ^ x20: .cfa -16 + ^ x21: .cfa -24 + ^ x22: .cfa -32 + ^ x23: .cfa -40 + ^ x24: .cfa -48 + ^ x25: .cfa -56 + ^ x26: .cfa -64 + ^ x27: .cfa -72 + ^ x28: .cfa -80 + ^ .ra: .cfa -88 + ^ x29: .cfa -96 + ^ v8: .cfa -112 + ^
STACK CFI 14c50 .cfa: sp 128 +
STACK CFI 14c70 .cfa: sp 0 +
STACK CFI 14c74 .cfa: x29 96 +
STACK CFI 14cc8 .cfa: sp 128 +
STACK CFI 14ce8 .cfa: sp 0 +
STACK CFI 14cec .cfa: x29 96 +
STACK CFI 15148 .cfa: sp 128 +
STACK CFI 15168 .cfa: sp 0 +
STACK CFI 1516c .cfa: x29 96 +
STACK CFI INIT 151fc 208 .cfa: sp 0 +
STACK CFI 15200 .cfa: sp 80 +
STACK CFI 15214 .cfa: x29 64 + x19: .cfa -8 + ^ x20: .cfa -16 + ^ x21: .cfa -24 + ^ x22: .cfa -32 + ^ x23: .cfa -40 + ^ x24: .cfa -48 + ^ .ra: .cfa -56 + ^ x29: .cfa -64 + ^ v8: .cfa -80 + ^
STACK CFI 153ec .cfa: sp 80 +
STACK CFI 15400 .cfa: sp 0 +
STACK CFI INIT 15404 180 .cfa: sp 0 +
STACK CFI 15408 .cfa: sp 80 +
STACK CFI 1541c .cfa: x29 48 + x19: .cfa -8 + ^ x20: .cfa -16 + ^ x21: .cfa -24 + ^ x22: .cfa -32 + ^ .ra: .cfa -40 + ^ x29: .cfa -48 + ^ v8: .cfa -56 + ^ v9: .cfa -64 + ^ v10: .cfa -80 + ^
STACK CFI 1549c .cfa: sp 80 +
STACK CFI 154b0 .cfa: sp 0 +
STACK CFI 154b4 .cfa: x29 48 +
STACK CFI 1550c .cfa: sp 80 +
STACK CFI 15520 .cfa: sp 0 +
STACK CFI 15524 .cfa: x29 48 +
STACK CFI 1556c .cfa: sp 80 +
STACK CFI 15580 .cfa: sp 0 +
STACK CFI INIT 15584 2ac .cfa: sp 0 +
STACK CFI 15588 .cfa: sp 96 +
STACK CFI 155a0 .cfa: x29 80 + x19: .cfa -8 + ^ x20: .cfa -16 + ^ x21: .cfa -24 + ^ x22: .cfa -32 + ^ x23: .cfa -40 + ^ x24: .cfa -48 + ^ x25: .cfa -56 + ^ x26: .cfa -64 + ^ .ra: .cfa -72 + ^ x29: .cfa -80 + ^ v8: .cfa -96 + ^
STACK CFI 15804 .cfa: sp 96 +
STACK CFI 1581c .cfa: sp 0 +
STACK CFI 15820 .cfa: x29 80 +
STACK CFI INIT 160b0 50 .cfa: sp 0 +
STACK CFI 160b4 .cfa: sp 32 +
STACK CFI 160bc .cfa: x29 32 + x19: .cfa -16 + ^ .ra: .cfa -24 + ^ x29: .cfa -32 + ^
STACK CFI 160d4 .cfa: sp 32 +
STACK CFI 160dc .cfa: sp 0 +
STACK CFI 160e0 .cfa: x29 32 +
STACK CFI 160f4 .cfa: sp 32 +
STACK CFI 160fc .cfa: sp 0 +
STACK CFI INIT 16174 7c .cfa: sp 0 +
STACK CFI 16178 .cfa: sp 48 +
STACK CFI 16184 .cfa: x29 48 + x19: .cfa -8 + ^ x20: .cfa -16 + ^ x21: .cfa -32 + ^ .ra: .cfa -40 + ^ x29: .cfa -48 + ^
STACK CFI 161d0 .cfa: sp 48 +
STACK CFI 161dc .cfa: sp 0 +
STACK CFI 161e0 .cfa: sp 48 +
STACK CFI 161ec .cfa: sp 0 +
STACK CFI INIT 161f0 4 .cfa: sp 0 +
STACK CFI INIT 16348 34 .cfa: sp 0 +
STACK CFI 1634c .cfa: sp 16 +
STACK CFI 16350 .cfa: x29 16 + .ra: .cfa -8 + ^ x29: .cfa -16 + ^
STACK CFI INIT 164a8 80 .cfa: sp 0 +
STACK CFI 164ac .cfa: sp 48 +
STACK CFI 164b8 .cfa: x29 48 + x19: .cfa -8 + ^ x20: .cfa -16 + ^ x21: .cfa -32 + ^ .ra: .cfa -40 + ^ x29: .cfa -48 + ^
STACK CFI 16518 .cfa: sp 48 +
STACK CFI 16524 .cfa: sp 0 +
STACK CFI INIT 16528 24 .cfa: sp 0 +
STACK CFI 1652c .cfa: sp 32 +
STACK CFI 16534 .cfa: x29 32 + x19: .cfa -16 + ^ .ra: .cfa -24 + ^ x29: .cfa -32 + ^
STACK CFI 16540 .cfa: sp 32 +
STACK CFI 16548 .cfa: sp 0 +
STACK CFI INIT 168cc 14 .cfa: sp 0 +
STACK CFI 168d0 .cfa: sp 16 +
STACK CFI 168d4 .cfa: x29 16 + .ra: .cfa -8 + ^ x29: .cfa -16 + ^
STACK CFI INIT 16a58 148 .cfa: sp 0 +
STACK CFI 16a5c .cfa: sp 48 +
STACK CFI 16a68 .cfa: x29 48 + x19: .cfa -8 + ^ x20: .cfa -16 + ^ x21: .cfa -32 + ^ .ra: .cfa -40 + ^ x29: .cfa -48 + ^
STACK CFI 16b90 .cfa: sp 48 +
STACK CFI 16b9c .cfa: sp 0 +
STACK CFI INIT 16dc8 80 .cfa: sp 0 +
STACK CFI 16dcc .cfa: sp 48 +
STACK CFI 16dd8 .cfa: x29 48 + x19: .cfa -8 + ^ x20: .cfa -16 + ^ x21: .cfa -24 + ^ x22: .cfa -32 + ^ .ra: .cfa -40 + ^ x29: .cfa -48 + ^
STACK CFI 16df0 .cfa: sp 48 +
STACK CFI 16dfc .cfa: sp 0 +
STACK CFI 16e00 .cfa: x29 48 +
STACK CFI 16e30 .cfa: sp 48 +
STACK CFI 16e3c .cfa: sp 0 +
STACK CFI 16e40 .cfa: x29 48 +
STACK CFI INIT 16e48 68 .cfa: sp 0 +
STACK CFI 16e4c .cfa: sp 32 +
STACK CFI 16e54 .cfa: x29 32 + x19: .cfa -8 + ^ x20: .cfa -16 + ^ .ra: .cfa -24 + ^ x29: .cfa -32 + ^
STACK CFI 16e6c .cfa: sp 32 +
STACK CFI 16e74 .cfa: sp 0 +
STACK CFI 16e78 .cfa: x29 32 +
STACK CFI 16ea4 .cfa: sp 32 +
STACK CFI 16eac .cfa: sp 0 +
STACK CFI INIT 16eb0 14 .cfa: sp 0 +
STACK CFI 16eb4 .cfa: sp 16 +
STACK CFI 16eb8 .cfa: x29 16 + .ra: .cfa -8 + ^ x29: .cfa -16 + ^
STACK CFI INIT 16ec4 4 .cfa: sp 0 +
STACK CFI INIT 16ec8 14 .cfa: sp 0 +
STACK CFI INIT 16edc 120 .cfa: sp 0 +
STACK CFI 16ee0 .cfa: sp 64 +
STACK CFI 16ef0 .cfa: x29 64 + x19: .cfa -8 + ^ x20: .cfa -16 + ^ x21: .cfa -24 + ^ x22: .cfa -32 + ^ x23: .cfa -40 + ^ x24: .cfa -48 + ^ .ra: .cfa -56 + ^ x29: .cfa -64 + ^
STACK CFI 16fe8 .cfa: sp 64 +
STACK CFI 16ff8 .cfa: sp 0 +
STACK CFI INIT 16ffc d4 .cfa: sp 0 +
STACK CFI 17000 .cfa: sp 48 +
STACK CFI 1700c .cfa: x29 48 + x19: .cfa -8 + ^ x20: .cfa -16 + ^ x21: .cfa -32 + ^ .ra: .cfa -40 + ^ x29: .cfa -48 + ^
STACK CFI 1709c .cfa: sp 48 +
STACK CFI 170a8 .cfa: sp 0 +
STACK CFI 170ac .cfa: x29 48 +
STACK CFI INIT 170d0 3c8 .cfa: sp 0 +
STACK CFI INIT 17498 8c .cfa: sp 0 +
STACK CFI 174a0 .cfa: sp 32 +
STACK CFI 174a8 .cfa: x29 32 + x19: .cfa -8 + ^ x20: .cfa -16 + ^ .ra: .cfa -24 + ^ x29: .cfa -32 + ^
STACK CFI 174f0 .cfa: sp 32 +
STACK CFI 174f8 .cfa: sp 0 +
STACK CFI 17500 .cfa: x29 32 +
STACK CFI INIT 176a8 4 .cfa: sp 0 +
STACK CFI INIT 177e0 4 .cfa: sp 0 +
STACK CFI INIT 177e4 50 .cfa: sp 0 +
STACK CFI 177e8 .cfa: sp 32 +
STACK CFI 177f0 .cfa: x29 32 + x19: .cfa -16 + ^ .ra: .cfa -24 + ^ x29: .cfa -32 + ^
STACK CFI 17808 .cfa: sp 32 +
STACK CFI 17810 .cfa: sp 0 +
STACK CFI 17814 .cfa: x29 32 +
STACK CFI 17828 .cfa: sp 32 +
STACK CFI 17830 .cfa: sp 0 +
STACK CFI INIT 17834 64 .cfa: sp 0 +
STACK CFI 17838 .cfa: sp 32 +
STACK CFI 17840 .cfa: x29 32 + x19: .cfa -16 + ^ .ra: .cfa -24 + ^ x29: .cfa -32 + ^
STACK CFI 1786c .cfa: sp 32 +
STACK CFI 17874 .cfa: sp 0 +
STACK CFI 17878 .cfa: x29 32 +
STACK CFI 1788c .cfa: sp 32 +
STACK CFI 17894 .cfa: sp 0 +
STACK CFI INIT 17898 178 .cfa: sp 0 +
STACK CFI 1789c .cfa: sp 80 +
STACK CFI 178b0 .cfa: x29 80 + x19: .cfa -8 + ^ x20: .cfa -16 + ^ x21: .cfa -24 + ^ x22: .cfa -32 + ^ x23: .cfa -40 + ^ x24: .cfa -48 + ^ x25: .cfa -56 + ^ x26: .cfa -64 + ^ .ra: .cfa -72 + ^ x29: .cfa -80 + ^
STACK CFI 179f8 .cfa: sp 80 +
STACK CFI 17a0c .cfa: sp 0 +
STACK CFI INIT 17a10 1b0 .cfa: sp 0 +
STACK CFI INIT 18228 4 .cfa: sp 0 +
STACK CFI INIT 183b0 4 .cfa: sp 0 +
STACK CFI INIT 1920c 98 .cfa: sp 0 +
STACK CFI 19210 .cfa: sp 304 +
STACK CFI 1921c .cfa: x29 32 + x19: .cfa -8 + ^ x28: .cfa -16 + ^ .ra: .cfa -24 + ^ x29: .cfa -32 + ^
STACK CFI 19290 .cfa: sp 304 +
STACK CFI 1929c .cfa: sp 0 +
STACK CFI 192a0 .cfa: x29 32 +
STACK CFI INIT 1989c 4 .cfa: sp 0 +
STACK CFI INIT 198a0 70 .cfa: sp 0 +
STACK CFI 198a4 .cfa: sp 48 +
STACK CFI 198b0 .cfa: x29 32 + x19: .cfa -16 + ^ .ra: .cfa -24 + ^ x29: .cfa -32 + ^
STACK CFI 198e8 .cfa: sp 48 +
STACK CFI 198f4 .cfa: sp 0 +
STACK CFI 198f8 .cfa: x29 32 +
STACK CFI INIT 19910 8 .cfa: sp 0 +
STACK CFI INIT 19918 5c .cfa: sp 0 +
STACK CFI 1991c .cfa: sp 32 +
STACK CFI 19924 .cfa: x29 32 + x19: .cfa -16 + ^ .ra: .cfa -24 + ^ x29: .cfa -32 + ^
STACK CFI 19968 .cfa: sp 32 +
STACK CFI 19970 .cfa: sp 0 +
STACK CFI INIT 19974 64 .cfa: sp 0 +
STACK CFI 19978 .cfa: sp 32 +
STACK CFI 19980 .cfa: x29 32 + x19: .cfa -16 + ^ .ra: .cfa -24 + ^ x29: .cfa -32 + ^
STACK CFI 199cc .cfa: sp 32 +
STACK CFI 199d4 .cfa: sp 0 +
STACK CFI INIT 199d8 4 .cfa: sp 0 +
STACK CFI INIT 199dc 34 .cfa: sp 0 +
STACK CFI 199e0 .cfa: sp 16 +
STACK CFI 199e4 .cfa: x29 16 + .ra: .cfa -8 + ^ x29: .cfa -16 + ^
STACK CFI INIT 19a10 24 .cfa: sp 0 +
STACK CFI 19a14 .cfa: sp 32 +
STACK CFI 19a1c .cfa: x29 32 + x19: .cfa -16 + ^ .ra: .cfa -24 + ^ x29: .cfa -32 + ^
STACK CFI 19a28 .cfa: sp 32 +
STACK CFI 19a30 .cfa: sp 0 +
STACK CFI INIT 19a34 104 .cfa: sp 0 +
STACK CFI 19a38 .cfa: sp 64 +
STACK CFI 19a48 .cfa: x29 64 + x19: .cfa -8 + ^ x20: .cfa -16 + ^ x21: .cfa -24 + ^ x22: .cfa -32 + ^ x23: .cfa -48 + ^ .ra: .cfa -56 + ^ x29: .cfa -64 + ^
STACK CFI 19aa4 .cfa: sp 64 +
STACK CFI 19ab4 .cfa: sp 0 +
STACK CFI 19ab8 .cfa: x29 64 +
STACK CFI 19ad4 .cfa: sp 64 +
STACK CFI 19ae4 .cfa: sp 0 +
STACK CFI 19ae8 .cfa: x29 64 +
STACK CFI 19b24 .cfa: sp 64 +
STACK CFI 19b34 .cfa: sp 0 +
STACK CFI INIT 19b38 4 .cfa: sp 0 +
STACK CFI INIT 19b3c 34 .cfa: sp 0 +
STACK CFI 19b40 .cfa: sp 32 +
STACK CFI 19b48 .cfa: x29 32 + x19: .cfa -16 + ^ .ra: .cfa -24 + ^ x29: .cfa -32 + ^
STACK CFI 19b64 .cfa: sp 32 +
STACK CFI 19b6c .cfa: sp 0 +
STACK CFI INIT 19b70 14 .cfa: sp 0 +
STACK CFI INIT 19b84 4 .cfa: sp 0 +
STACK CFI INIT 19b88 4 .cfa: sp 0 +
STACK CFI INIT 19b8c 3c .cfa: sp 0 +
STACK CFI 19b90 .cfa: sp 32 +
STACK CFI 19b98 .cfa: x29 32 + x19: .cfa -16 + ^ .ra: .cfa -24 + ^ x29: .cfa -32 + ^
STACK CFI 19bbc .cfa: sp 32 +
STACK CFI 19bc4 .cfa: sp 0 +
STACK CFI INIT 19bc8 1c .cfa: sp 0 +
STACK CFI INIT 19be4 c .cfa: sp 0 +
STACK CFI INIT 19bf0 4 .cfa: sp 0 +
STACK CFI INIT 19bf4 4 .cfa: sp 0 +
STACK CFI INIT 19bf8 34 .cfa: sp 0 +
STACK CFI 19bfc .cfa: sp 32 +
STACK CFI 19c04 .cfa: x29 32 + x19: .cfa -16 + ^ .ra: .cfa -24 + ^ x29: .cfa -32 + ^
STACK CFI 19c20 .cfa: sp 32 +
STACK CFI 19c28 .cfa: sp 0 +
STACK CFI INIT 19c2c 14 .cfa: sp 0 +
STACK CFI INIT 19c40 4 .cfa: sp 0 +
STACK CFI INIT 19c44 4 .cfa: sp 0 +
STACK CFI INIT 19c48 3c .cfa: sp 0 +
STACK CFI 19c4c .cfa: sp 32 +
STACK CFI 19c54 .cfa: x29 32 + x19: .cfa -16 + ^ .ra: .cfa -24 + ^ x29: .cfa -32 + ^
STACK CFI 19c78 .cfa: sp 32 +
STACK CFI 19c80 .cfa: sp 0 +
STACK CFI INIT 19c84 1c .cfa: sp 0 +
STACK CFI INIT 19ca0 c .cfa: sp 0 +
STACK CFI INIT 19cac 4 .cfa: sp 0 +
STACK CFI INIT 19cb0 4 .cfa: sp 0 +
STACK CFI INIT 19cb4 34 .cfa: sp 0 +
STACK CFI 19cb8 .cfa: sp 32 +
STACK CFI 19cc0 .cfa: x29 32 + x19: .cfa -16 + ^ .ra: .cfa -24 + ^ x29: .cfa -32 + ^
STACK CFI 19cdc .cfa: sp 32 +
STACK CFI 19ce4 .cfa: sp 0 +
STACK CFI INIT 19ce8 14 .cfa: sp 0 +
STACK CFI INIT 19cfc 4 .cfa: sp 0 +
STACK CFI INIT 19d00 4 .cfa: sp 0 +
STACK CFI INIT 19e6c 1c .cfa: sp 0 +
STACK CFI INIT 19e88 c .cfa: sp 0 +
STACK CFI INIT 19e94 4 .cfa: sp 0 +
STACK CFI INIT 19e98 34 .cfa: sp 0 +
STACK CFI 19e9c .cfa: sp 32 +
STACK CFI 19ea4 .cfa: x29 32 + x19: .cfa -16 + ^ .ra: .cfa -24 + ^ x29: .cfa -32 + ^
STACK CFI 19ec0 .cfa: sp 32 +
STACK CFI 19ec8 .cfa: sp 0 +
STACK CFI INIT 19ecc 14 .cfa: sp 0 +
STACK CFI INIT 19ee0 4 .cfa: sp 0 +
STACK CFI INIT 19ee4 4 .cfa: sp 0 +
STACK CFI INIT 19ee8 68 .cfa: sp 0 +
STACK CFI 19eec .cfa: sp 32 +
STACK CFI 19ef4 .cfa: x29 32 + x19: .cfa -8 + ^ x20: .cfa -16 + ^ .ra: .cfa -24 + ^ x29: .cfa -32 + ^
STACK CFI 19f44 .cfa: sp 32 +
STACK CFI 19f4c .cfa: sp 0 +
STACK CFI INIT 19f50 1c .cfa: sp 0 +
STACK CFI INIT 19f6c c .cfa: sp 0 +
STACK CFI INIT 19f78 4 .cfa: sp 0 +
STACK CFI INIT 19f7c 4 .cfa: sp 0 +
STACK CFI INIT 19f80 34 .cfa: sp 0 +
STACK CFI 19f84 .cfa: sp 32 +
STACK CFI 19f8c .cfa: x29 32 + x19: .cfa -16 + ^ .ra: .cfa -24 + ^ x29: .cfa -32 + ^
STACK CFI 19fa8 .cfa: sp 32 +
STACK CFI 19fb0 .cfa: sp 0 +
STACK CFI INIT 19fb4 14 .cfa: sp 0 +
STACK CFI INIT 19fc8 4 .cfa: sp 0 +
STACK CFI INIT 19fcc 4 .cfa: sp 0 +
STACK CFI INIT 19fd0 68 .cfa: sp 0 +
STACK CFI 19fd4 .cfa: sp 32 +
STACK CFI 19fdc .cfa: x29 32 + x19: .cfa -8 + ^ x20: .cfa -16 + ^ .ra: .cfa -24 + ^ x29: .cfa -32 + ^
STACK CFI 1a02c .cfa: sp 32 +
STACK CFI 1a034 .cfa: sp 0 +
STACK CFI INIT 1a038 1c .cfa: sp 0 +
STACK CFI INIT 1a054 c .cfa: sp 0 +
STACK CFI INIT 1a060 4 .cfa: sp 0 +
STACK CFI INIT 1a1d8 6c .cfa: sp 0 +
STACK CFI 1a1dc .cfa: sp 32 +
STACK CFI 1a1e4 .cfa: x29 32 + x19: .cfa -16 + ^ .ra: .cfa -24 + ^ x29: .cfa -32 + ^
STACK CFI 1a238 .cfa: sp 32 +
STACK CFI 1a240 .cfa: sp 0 +
STACK CFI INIT 1a244 74 .cfa: sp 0 +
STACK CFI 1a248 .cfa: sp 32 +
STACK CFI 1a250 .cfa: x29 32 + x19: .cfa -16 + ^ .ra: .cfa -24 + ^ x29: .cfa -32 + ^
STACK CFI 1a2ac .cfa: sp 32 +
STACK CFI 1a2b4 .cfa: sp 0 +
STACK CFI INIT 1a2b8 4c .cfa: sp 0 +
STACK CFI INIT 1a304 5c .cfa: sp 0 +
STACK CFI 1a308 .cfa: sp 32 +
STACK CFI 1a310 .cfa: x29 32 + x19: .cfa -16 + ^ .ra: .cfa -24 + ^ x29: .cfa -32 + ^
STACK CFI 1a354 .cfa: sp 32 +
STACK CFI 1a35c .cfa: sp 0 +
STACK CFI INIT 1a3fc 88 .cfa: sp 0 +
STACK CFI 1a400 .cfa: sp 32 +
STACK CFI 1a408 .cfa: x29 32 + x19: .cfa -16 + ^ .ra: .cfa -24 + ^ x29: .cfa -32 + ^
STACK CFI 1a448 .cfa: sp 32 +
STACK CFI 1a450 .cfa: sp 0 +
STACK CFI 1a454 .cfa: x29 32 +
STACK CFI 1a458 .cfa: sp 32 +
STACK CFI 1a460 .cfa: sp 0 +
STACK CFI 1a464 .cfa: x29 32 +
STACK CFI 1a478 .cfa: sp 32 +
STACK CFI 1a480 .cfa: sp 0 +
STACK CFI INIT 1a484 40 .cfa: sp 0 +
STACK CFI INIT 1a4c4 50 .cfa: sp 0 +
STACK CFI 1a4c8 .cfa: sp 32 +
STACK CFI 1a4d0 .cfa: x29 32 + x19: .cfa -16 + ^ .ra: .cfa -24 + ^ x29: .cfa -32 + ^
STACK CFI 1a508 .cfa: sp 32 +
STACK CFI 1a510 .cfa: sp 0 +
STACK CFI INIT 1a514 88 .cfa: sp 0 +
STACK CFI 1a518 .cfa: sp 48 +
STACK CFI 1a524 .cfa: x29 32 + x19: .cfa -8 + ^ x20: .cfa -16 + ^ .ra: .cfa -24 + ^ x29: .cfa -32 + ^
STACK CFI 1a574 .cfa: sp 48 +
STACK CFI 1a580 .cfa: sp 0 +
STACK CFI 1a584 .cfa: x29 32 +
STACK CFI INIT 1a59c 1c .cfa: sp 0 +
STACK CFI INIT 1a5b8 c .cfa: sp 0 +
STACK CFI INIT 1b034 100 .cfa: sp 0 +
STACK CFI 1b038 .cfa: sp 32 +
STACK CFI 1b040 .cfa: x29 32 + x19: .cfa -8 + ^ x20: .cfa -16 + ^ .ra: .cfa -24 + ^ x29: .cfa -32 + ^
STACK CFI 1b128 .cfa: sp 32 +
STACK CFI 1b130 .cfa: sp 0 +
STACK CFI INIT 1b9f4 50 .cfa: sp 0 +
STACK CFI 1b9f8 .cfa: sp 32 +
STACK CFI 1ba00 .cfa: x29 32 + x19: .cfa -16 + ^ .ra: .cfa -24 + ^ x29: .cfa -32 + ^
STACK CFI 1ba18 .cfa: sp 32 +
STACK CFI 1ba20 .cfa: sp 0 +
STACK CFI 1ba24 .cfa: x29 32 +
STACK CFI 1ba38 .cfa: sp 32 +
STACK CFI 1ba40 .cfa: sp 0 +
STACK CFI INIT 1ba44 4 .cfa: sp 0 +
STACK CFI INIT 1ba48 34 .cfa: sp 0 +
STACK CFI 1ba4c .cfa: sp 32 +
STACK CFI 1ba54 .cfa: x29 32 + x19: .cfa -16 + ^ .ra: .cfa -24 + ^ x29: .cfa -32 + ^
STACK CFI 1ba70 .cfa: sp 32 +
STACK CFI 1ba78 .cfa: sp 0 +
STACK CFI INIT 1ba7c 14 .cfa: sp 0 +
STACK CFI INIT 1ba90 4 .cfa: sp 0 +
STACK CFI INIT 1ba94 4 .cfa: sp 0 +
STACK CFI INIT 1bb98 1c .cfa: sp 0 +
STACK CFI INIT 1bbb4 c .cfa: sp 0 +
STACK CFI INIT 1bbc0 4 .cfa: sp 0 +
STACK CFI INIT 1bd38 9c .cfa: sp 0 +
STACK CFI 1bd3c .cfa: sp 32 +
STACK CFI 1bd44 .cfa: x29 32 + x19: .cfa -8 + ^ x20: .cfa -16 + ^ .ra: .cfa -24 + ^ x29: .cfa -32 + ^
STACK CFI 1bdc8 .cfa: sp 32 +
STACK CFI 1bdd0 .cfa: sp 0 +
STACK CFI INIT 1bdd4 a4 .cfa: sp 0 +
STACK CFI 1bdd8 .cfa: sp 32 +
STACK CFI 1bde0 .cfa: x29 32 + x19: .cfa -8 + ^ x20: .cfa -16 + ^ .ra: .cfa -24 + ^ x29: .cfa -32 + ^
STACK CFI 1be6c .cfa: sp 32 +
STACK CFI 1be74 .cfa: sp 0 +
STACK CFI INIT 1be78 4 .cfa: sp 0 +
STACK CFI INIT 1be7c 34 .cfa: sp 0 +
STACK CFI 1be80 .cfa: sp 32 +
STACK CFI 1be88 .cfa: x29 32 + x19: .cfa -16 + ^ .ra: .cfa -24 + ^ x29: .cfa -32 + ^
STACK CFI 1bea4 .cfa: sp 32 +
STACK CFI 1beac .cfa: sp 0 +
STACK CFI INIT 1beb0 14 .cfa: sp 0 +
STACK CFI INIT 1bec4 4 .cfa: sp 0 +
STACK CFI INIT 1bec8 4 .cfa: sp 0 +
STACK CFI INIT 1bfcc 1c .cfa: sp 0 +
STACK CFI INIT 1bfe8 c .cfa: sp 0 +
STACK CFI INIT 1bff4 4 .cfa: sp 0 +
STACK CFI INIT 1bff8 34 .cfa: sp 0 +
STACK CFI 1bffc .cfa: sp 32 +
STACK CFI 1c004 .cfa: x29 32 + x19: .cfa -16 + ^ .ra: .cfa -24 + ^ x29: .cfa -32 + ^
STACK CFI 1c020 .cfa: sp 32 +
STACK CFI 1c028 .cfa: sp 0 +
STACK CFI INIT 1c02c 14 .cfa: sp 0 +
STACK CFI INIT 1c040 4 .cfa: sp 0 +
STACK CFI INIT 1c044 4 .cfa: sp 0 +
STACK CFI INIT 1c148 1c .cfa: sp 0 +
STACK CFI INIT 1c164 c .cfa: sp 0 +
STACK CFI INIT 1c170 4 .cfa: sp 0 +
STACK CFI INIT 1c174 4 .cfa: sp 0 +
STACK CFI INIT 1c178 34 .cfa: sp 0 +
STACK CFI 1c17c .cfa: sp 32 +
STACK CFI 1c184 .cfa: x29 32 + x19: .cfa -16 + ^ .ra: .cfa -24 + ^ x29: .cfa -32 + ^
STACK CFI 1c1a0 .cfa: sp 32 +
STACK CFI 1c1a8 .cfa: sp 0 +
STACK CFI INIT 1c1ac 14 .cfa: sp 0 +
STACK CFI INIT 1c1c0 4 .cfa: sp 0 +
STACK CFI INIT 1c1c4 4 .cfa: sp 0 +
STACK CFI INIT 1c2e4 1c .cfa: sp 0 +
STACK CFI INIT 1c300 c .cfa: sp 0 +
STACK CFI INIT 1c30c 4 .cfa: sp 0 +
STACK CFI INIT 1c484 5c .cfa: sp 0 +
STACK CFI 1c488 .cfa: sp 32 +
STACK CFI 1c490 .cfa: x29 32 + x19: .cfa -16 + ^ .ra: .cfa -24 + ^ x29: .cfa -32 + ^
STACK CFI 1c4d4 .cfa: sp 32 +
STACK CFI 1c4dc .cfa: sp 0 +
STACK CFI INIT 1c4e0 64 .cfa: sp 0 +
STACK CFI 1c4e4 .cfa: sp 32 +
STACK CFI 1c4ec .cfa: x29 32 + x19: .cfa -16 + ^ .ra: .cfa -24 + ^ x29: .cfa -32 + ^
STACK CFI 1c538 .cfa: sp 32 +
STACK CFI 1c540 .cfa: sp 0 +
STACK CFI INIT 1c544 4 .cfa: sp 0 +
STACK CFI INIT 1c548 4 .cfa: sp 0 +
STACK CFI INIT 1c54c 34 .cfa: sp 0 +
STACK CFI 1c550 .cfa: sp 32 +
STACK CFI 1c558 .cfa: x29 32 + x19: .cfa -16 + ^ .ra: .cfa -24 + ^ x29: .cfa -32 + ^
STACK CFI 1c574 .cfa: sp 32 +
STACK CFI 1c57c .cfa: sp 0 +
STACK CFI INIT 1c580 14 .cfa: sp 0 +
STACK CFI INIT 1c594 4 .cfa: sp 0 +
STACK CFI INIT 1c598 4 .cfa: sp 0 +
STACK CFI INIT 1c59c 10 .cfa: sp 0 +
STACK CFI INIT 1c5ac 1c .cfa: sp 0 +
STACK CFI INIT 1c5c8 c .cfa: sp 0 +
STACK CFI INIT 1c700 3c .cfa: sp 0 +
STACK CFI 1c704 .cfa: sp 32 +
STACK CFI 1c70c .cfa: x29 32 + x19: .cfa -16 + ^ .ra: .cfa -24 + ^ x29: .cfa -32 + ^
STACK CFI 1c718 .cfa: sp 32 +
STACK CFI 1c720 .cfa: sp 0 +
STACK CFI 1c724 .cfa: x29 32 +
STACK CFI 1c730 .cfa: sp 32 +
STACK CFI 1c738 .cfa: sp 0 +
STACK CFI INIT 1c73c 4c .cfa: sp 0 +
STACK CFI 1c740 .cfa: sp 32 +
STACK CFI 1c748 .cfa: x29 32 + x19: .cfa -8 + ^ x20: .cfa -16 + ^ .ra: .cfa -24 + ^ x29: .cfa -32 + ^
STACK CFI 1c770 .cfa: sp 32 +
STACK CFI 1c778 .cfa: sp 0 +
STACK CFI 1c77c .cfa: sp 32 +
STACK CFI 1c784 .cfa: sp 0 +
STACK CFI INIT 1c9a8 64 .cfa: sp 0 +
STACK CFI 1c9ac .cfa: sp 32 +
STACK CFI 1c9b4 .cfa: x29 32 + x19: .cfa -16 + ^ .ra: .cfa -24 + ^ x29: .cfa -32 + ^
STACK CFI 1c9e0 .cfa: sp 32 +
STACK CFI 1c9e8 .cfa: sp 0 +
STACK CFI 1c9ec .cfa: x29 32 +
STACK CFI 1ca00 .cfa: sp 32 +
STACK CFI 1ca08 .cfa: sp 0 +
STACK CFI INIT 1cc30 24 .cfa: sp 0 +
STACK CFI 1cc34 .cfa: sp 32 +
STACK CFI 1cc3c .cfa: x29 32 + x19: .cfa -16 + ^ .ra: .cfa -24 + ^ x29: .cfa -32 + ^
STACK CFI 1cc48 .cfa: sp 32 +
STACK CFI 1cc50 .cfa: sp 0 +
STACK CFI INIT 1d404 4 .cfa: sp 0 +
STACK CFI INIT 1d408 14 .cfa: sp 0 +
STACK CFI INIT 1d928 c .cfa: sp 0 +
STACK CFI INIT 1d934 24c .cfa: sp 0 +
STACK CFI INIT 1db80 a0 .cfa: sp 0 +
STACK CFI 1db8c .cfa: sp 32 +
STACK CFI 1dbe4 .cfa: sp 0 +
STACK CFI 1dbe8 .cfa: sp 32 +
STACK CFI 1dbf0 .cfa: sp 0 +
STACK CFI 1dbf4 .cfa: sp 32 +
STACK CFI 1dc08 .cfa: sp 0 +
STACK CFI 1dc0c .cfa: sp 32 +
STACK CFI 1dc1c .cfa: sp 0 +
STACK CFI INIT 1dc20 38 .cfa: sp 0 +
STACK CFI 1dc2c .cfa: sp 32 +
STACK CFI 1dc54 .cfa: sp 0 +
STACK CFI INIT 1deec 7c .cfa: sp 0 +
STACK CFI 1def0 .cfa: sp 32 +
STACK CFI 1def8 .cfa: x29 32 + x19: .cfa -16 + ^ .ra: .cfa -24 + ^ x29: .cfa -32 + ^
STACK CFI 1df24 .cfa: sp 32 +
STACK CFI 1df2c .cfa: sp 0 +
STACK CFI 1df30 .cfa: x29 32 +
STACK CFI 1df5c .cfa: sp 32 +
STACK CFI 1df64 .cfa: sp 0 +
STACK CFI INIT 1dfb8 2c .cfa: sp 0 +
STACK CFI 1dfbc .cfa: sp 32 +
STACK CFI 1dfc4 .cfa: x29 32 + x19: .cfa -16 + ^ .ra: .cfa -24 + ^ x29: .cfa -32 + ^
STACK CFI 1dfd8 .cfa: sp 32 +
STACK CFI 1dfe0 .cfa: sp 0 +
STACK CFI INIT 1e7a4 64 .cfa: sp 0 +
STACK CFI 1e7a8 .cfa: sp 32 +
STACK CFI 1e7b0 .cfa: x29 32 + x19: .cfa -16 + ^ .ra: .cfa -24 + ^ x29: .cfa -32 + ^
STACK CFI 1e7cc .cfa: sp 32 +
STACK CFI 1e7d4 .cfa: sp 0 +
STACK CFI 1e7d8 .cfa: x29 32 +
STACK CFI 1e7fc .cfa: sp 32 +
STACK CFI 1e804 .cfa: sp 0 +
STACK CFI INIT 1e808 570 .cfa: sp 0 +
STACK CFI 1e80c .cfa: sp 176 +
STACK CFI 1e820 .cfa: x29 64 + x19: .cfa -8 + ^ x20: .cfa -16 + ^ x21: .cfa -24 + ^ x22: .cfa -32 + ^ x23: .cfa -40 + ^ x24: .cfa -48 + ^ .ra: .cfa -56 + ^ x29: .cfa -64 + ^
STACK CFI 1ea50 .cfa: sp 176 +
STACK CFI 1ea64 .cfa: sp 0 +
STACK CFI 1ea68 .cfa: x29 64 +
STACK CFI 1eab4 .cfa: sp 176 +
STACK CFI 1eac8 .cfa: sp 0 +
STACK CFI 1eacc .cfa: x29 64 +
STACK CFI 1eb04 .cfa: sp 176 +
STACK CFI 1eb18 .cfa: sp 0 +
STACK CFI 1eb1c .cfa: x29 64 +
STACK CFI 1eb34 .cfa: sp 176 +
STACK CFI 1eb48 .cfa: sp 0 +
STACK CFI 1eb4c .cfa: x29 64 +
STACK CFI 1eb6c .cfa: sp 176 +
STACK CFI 1eb80 .cfa: sp 0 +
STACK CFI 1eb84 .cfa: x29 64 +
STACK CFI 1eb9c .cfa: sp 176 +
STACK CFI 1ebb0 .cfa: sp 0 +
STACK CFI 1ebb4 .cfa: x29 64 +
STACK CFI 1ebc8 .cfa: sp 176 +
STACK CFI 1ebdc .cfa: sp 0 +
STACK CFI 1ebe0 .cfa: x29 64 +
STACK CFI 1ebf4 .cfa: sp 176 +
STACK CFI 1ec08 .cfa: sp 0 +
STACK CFI 1ec0c .cfa: x29 64 +
STACK CFI 1ec1c .cfa: sp 176 +
STACK CFI 1ec30 .cfa: sp 0 +
STACK CFI 1ec34 .cfa: x29 64 +
STACK CFI 1ec44 .cfa: sp 176 +
STACK CFI 1ec58 .cfa: sp 0 +
STACK CFI 1ec5c .cfa: x29 64 +
STACK CFI 1ec74 .cfa: sp 176 +
STACK CFI 1ec88 .cfa: sp 0 +
STACK CFI 1ec8c .cfa: x29 64 +
STACK CFI 1eca0 .cfa: sp 176 +
STACK CFI 1ecb4 .cfa: sp 0 +
STACK CFI 1ecb8 .cfa: x29 64 +
STACK CFI 1ecd0 .cfa: sp 176 +
STACK CFI 1ece4 .cfa: sp 0 +
STACK CFI 1ece8 .cfa: x29 64 +
STACK CFI 1ed14 .cfa: sp 176 +
STACK CFI 1ed28 .cfa: sp 0 +
STACK CFI 1ed2c .cfa: x29 64 +
STACK CFI 1ed40 .cfa: sp 176 +
STACK CFI 1ed54 .cfa: sp 0 +
STACK CFI 1ed58 .cfa: x29 64 +
STACK CFI INIT 1ed78 228 .cfa: sp 0 +
STACK CFI INIT 1efa0 2dc .cfa: sp 0 +
STACK CFI INIT 1f27c 53c .cfa: sp 0 +
STACK CFI INIT 1f7b8 78 .cfa: sp 0 +
STACK CFI 1f7bc .cfa: sp 48 +
STACK CFI 1f7c8 .cfa: x29 48 + x19: .cfa -8 + ^ x20: .cfa -16 + ^ x21: .cfa -24 + ^ x22: .cfa -32 + ^ .ra: .cfa -40 + ^ x29: .cfa -48 + ^
STACK CFI 1f810 .cfa: sp 48 +
STACK CFI 1f81c .cfa: sp 0 +
STACK CFI 1f820 .cfa: sp 48 +
STACK CFI 1f82c .cfa: sp 0 +
STACK CFI INIT 1f830 8c .cfa: sp 0 +
STACK CFI 1f834 .cfa: sp 32 +
STACK CFI 1f83c .cfa: x29 32 + x19: .cfa -16 + ^ .ra: .cfa -24 + ^ x29: .cfa -32 + ^
STACK CFI 1f870 .cfa: sp 32 +
STACK CFI 1f878 .cfa: sp 0 +
STACK CFI 1f87c .cfa: x29 32 +
STACK CFI 1f8b0 .cfa: sp 32 +
STACK CFI 1f8b8 .cfa: sp 0 +
STACK CFI INIT 1f8bc 24 .cfa: sp 0 +
STACK CFI 1f8c0 .cfa: sp 32 +
STACK CFI 1f8c8 .cfa: x29 32 + x19: .cfa -16 + ^ .ra: .cfa -24 + ^ x29: .cfa -32 + ^
STACK CFI 1f8d4 .cfa: sp 32 +
STACK CFI 1f8dc .cfa: sp 0 +
STACK CFI INIT 1f8e0 150 .cfa: sp 0 +
STACK CFI 1f8e4 .cfa: sp 48 +
STACK CFI 1f8f0 .cfa: x29 48 + x19: .cfa -8 + ^ x20: .cfa -16 + ^ x21: .cfa -24 + ^ x22: .cfa -32 + ^ .ra: .cfa -40 + ^ x29: .cfa -48 + ^
STACK CFI 1fa20 .cfa: sp 48 +
STACK CFI 1fa2c .cfa: sp 0 +
STACK CFI INIT 1fa30 68 .cfa: sp 0 +
STACK CFI 1fa34 .cfa: sp 64 +
STACK CFI 1fa40 .cfa: x29 32 + x19: .cfa -16 + ^ .ra: .cfa -24 + ^ x29: .cfa -32 + ^
STACK CFI 1fa84 .cfa: sp 64 +
STACK CFI 1fa90 .cfa: sp 0 +
STACK CFI 1fa94 .cfa: x29 32 +
STACK CFI INIT 1fa98 90 .cfa: sp 0 +
STACK CFI 1fa9c .cfa: sp 32 +
STACK CFI 1faa4 .cfa: x29 32 + x19: .cfa -8 + ^ x20: .cfa -16 + ^ .ra: .cfa -24 + ^ x29: .cfa -32 + ^
STACK CFI 1fad0 .cfa: sp 32 +
STACK CFI 1fad8 .cfa: sp 0 +
STACK CFI 1fadc .cfa: x29 32 +
STACK CFI 1fb1c .cfa: sp 32 +
STACK CFI 1fb24 .cfa: sp 0 +
STACK CFI INIT 1fb28 ec .cfa: sp 0 +
STACK CFI 1fb2c .cfa: sp 112 +
STACK CFI 1fb3c .cfa: x29 48 + x19: .cfa -8 + ^ x20: .cfa -16 + ^ x21: .cfa -32 + ^ .ra: .cfa -40 + ^ x29: .cfa -48 + ^
STACK CFI 1fbfc .cfa: sp 112 +
STACK CFI 1fc0c .cfa: sp 0 +
STACK CFI 1fc10 .cfa: x29 48 +
STACK CFI INIT 1fc14 ec .cfa: sp 0 +
STACK CFI 1fc18 .cfa: sp 112 +
STACK CFI 1fc28 .cfa: x29 48 + x19: .cfa -8 + ^ x20: .cfa -16 + ^ x21: .cfa -32 + ^ .ra: .cfa -40 + ^ x29: .cfa -48 + ^
STACK CFI 1fce8 .cfa: sp 112 +
STACK CFI 1fcf8 .cfa: sp 0 +
STACK CFI 1fcfc .cfa: x29 48 +
STACK CFI INIT 1fd00 48 .cfa: sp 0 +
STACK CFI 1fd04 .cfa: sp 32 +
STACK CFI 1fd0c .cfa: x29 32 + x19: .cfa -8 + ^ x20: .cfa -16 + ^ .ra: .cfa -24 + ^ x29: .cfa -32 + ^
STACK CFI 1fd30 .cfa: sp 32 +
STACK CFI 1fd38 .cfa: sp 0 +
STACK CFI 1fd3c .cfa: x29 32 +
STACK CFI INIT 1fd48 98 .cfa: sp 0 +
STACK CFI 1fd4c .cfa: sp 80 +
STACK CFI 1fd58 .cfa: x29 32 + x19: .cfa -16 + ^ .ra: .cfa -24 + ^ x29: .cfa -32 + ^
STACK CFI 1fdcc .cfa: sp 80 +
STACK CFI 1fdd8 .cfa: sp 0 +
STACK CFI 1fddc .cfa: x29 32 +
STACK CFI INIT 1fde0 260 .cfa: sp 0 +
STACK CFI 1fde4 .cfa: sp 112 +
STACK CFI 1fdfc .cfa: x29 80 + x19: .cfa -8 + ^ x20: .cfa -16 + ^ x21: .cfa -24 + ^ x22: .cfa -32 + ^ x23: .cfa -40 + ^ x24: .cfa -48 + ^ x25: .cfa -64 + ^ .ra: .cfa -72 + ^ x29: .cfa -80 + ^
STACK CFI 1ffe0 .cfa: sp 112 +
STACK CFI 1fff8 .cfa: sp 0 +
STACK CFI 1fffc .cfa: x29 80 +
STACK CFI INIT 20040 150 .cfa: sp 0 +
STACK CFI 20044 .cfa: sp 48 +
STACK CFI 20050 .cfa: x29 48 + x19: .cfa -8 + ^ x20: .cfa -16 + ^ x21: .cfa -24 + ^ x22: .cfa -32 + ^ .ra: .cfa -40 + ^ x29: .cfa -48 + ^
STACK CFI 20180 .cfa: sp 48 +
STACK CFI 2018c .cfa: sp 0 +
STACK CFI INIT 20190 1e0 .cfa: sp 0 +
STACK CFI 20194 .cfa: sp 96 +
STACK CFI 201a8 .cfa: x29 64 + x19: .cfa -8 + ^ x20: .cfa -16 + ^ x21: .cfa -24 + ^ x22: .cfa -32 + ^ x23: .cfa -40 + ^ x24: .cfa -48 + ^ .ra: .cfa -56 + ^ x29: .cfa -64 + ^
STACK CFI 20328 .cfa: sp 96 +
STACK CFI 2033c .cfa: sp 0 +
STACK CFI 20340 .cfa: x29 64 +
STACK CFI INIT 20370 284 .cfa: sp 0 +
STACK CFI 20374 .cfa: sp 112 +
STACK CFI 2038c .cfa: x29 80 + x19: .cfa -8 + ^ x20: .cfa -16 + ^ x21: .cfa -24 + ^ x22: .cfa -32 + ^ x23: .cfa -40 + ^ x24: .cfa -48 + ^ x25: .cfa -64 + ^ .ra: .cfa -72 + ^ x29: .cfa -80 + ^
STACK CFI 20594 .cfa: sp 112 +
STACK CFI 205ac .cfa: sp 0 +
STACK CFI 205b0 .cfa: x29 80 +
STACK CFI INIT 205f4 208 .cfa: sp 0 +
STACK CFI 205f8 .cfa: sp 96 +
STACK CFI 2060c .cfa: x29 64 + x19: .cfa -8 + ^ x20: .cfa -16 + ^ x21: .cfa -24 + ^ x22: .cfa -32 + ^ x23: .cfa -40 + ^ x24: .cfa -48 + ^ .ra: .cfa -56 + ^ x29: .cfa -64 + ^
STACK CFI 207b4 .cfa: sp 96 +
STACK CFI 207c8 .cfa: sp 0 +
STACK CFI 207cc .cfa: x29 64 +
STACK CFI INIT 207fc 360 .cfa: sp 0 +
STACK CFI 20800 .cfa: sp 160 +
STACK CFI 2081c .cfa: x29 96 + x19: .cfa -8 + ^ x20: .cfa -16 + ^ x21: .cfa -24 + ^ x22: .cfa -32 + ^ x23: .cfa -40 + ^ x24: .cfa -48 + ^ x25: .cfa -56 + ^ x26: .cfa -64 + ^ x27: .cfa -72 + ^ x28: .cfa -80 + ^ .ra: .cfa -88 + ^ x29: .cfa -96 + ^
STACK CFI 20ae8 .cfa: sp 160 +
STACK CFI 20b04 .cfa: sp 0 +
STACK CFI 20b08 .cfa: x29 96 +
STACK CFI INIT 20b5c 314 .cfa: sp 0 +
STACK CFI 20b60 .cfa: sp 144 +
STACK CFI 20b7c .cfa: x29 96 + x19: .cfa -8 + ^ x20: .cfa -16 + ^ x21: .cfa -24 + ^ x22: .cfa -32 + ^ x23: .cfa -40 + ^ x24: .cfa -48 + ^ x25: .cfa -56 + ^ x26: .cfa -64 + ^ x27: .cfa -72 + ^ x28: .cfa -80 + ^ .ra: .cfa -88 + ^ x29: .cfa -96 + ^
STACK CFI 20df8 .cfa: sp 144 +
STACK CFI 20e14 .cfa: sp 0 +
STACK CFI 20e18 .cfa: x29 96 +
STACK CFI INIT 20e70 290 .cfa: sp 0 +
STACK CFI 20e74 .cfa: sp 128 +
STACK CFI 20e8c .cfa: x29 80 + x19: .cfa -8 + ^ x20: .cfa -16 + ^ x21: .cfa -24 + ^ x22: .cfa -32 + ^ x23: .cfa -40 + ^ x24: .cfa -48 + ^ x25: .cfa -56 + ^ x26: .cfa -64 + ^ .ra: .cfa -72 + ^ x29: .cfa -80 + ^
STACK CFI 210e0 .cfa: sp 128 +
STACK CFI 210f8 .cfa: sp 0 +
STACK CFI 210fc .cfa: x29 80 +
STACK CFI INIT 21100 ddc .cfa: sp 0 +
STACK CFI 21104 .cfa: sp 144 +
STACK CFI 21120 .cfa: x29 96 + x19: .cfa -8 + ^ x20: .cfa -16 + ^ x21: .cfa -24 + ^ x22: .cfa -32 + ^ x23: .cfa -40 + ^ x24: .cfa -48 + ^ x25: .cfa -56 + ^ x26: .cfa -64 + ^ x27: .cfa -72 + ^ x28: .cfa -80 + ^ .ra: .cfa -88 + ^ x29: .cfa -96 + ^
STACK CFI 21db4 .cfa: sp 144 +
STACK CFI 21dd0 .cfa: sp 0 +
STACK CFI 21dd4 .cfa: x29 96 +
STACK CFI INIT 21edc 1d0 .cfa: sp 0 +
STACK CFI 21ee0 .cfa: sp 80 +
STACK CFI 21ef4 .cfa: x29 80 + x19: .cfa -8 + ^ x20: .cfa -16 + ^ x21: .cfa -24 + ^ x22: .cfa -32 + ^ x23: .cfa -40 + ^ x24: .cfa -48 + ^ x25: .cfa -64 + ^ .ra: .cfa -72 + ^ x29: .cfa -80 + ^
STACK CFI 22094 .cfa: sp 80 +
STACK CFI 220a8 .cfa: sp 0 +
STACK CFI INIT 220ac 23c .cfa: sp 0 +
STACK CFI 220b0 .cfa: sp 112 +
STACK CFI 220c4 .cfa: x29 64 + x19: .cfa -8 + ^ x20: .cfa -16 + ^ x21: .cfa -24 + ^ x22: .cfa -32 + ^ x23: .cfa -40 + ^ x24: .cfa -48 + ^ .ra: .cfa -56 + ^ x29: .cfa -64 + ^
STACK CFI 222a0 .cfa: sp 112 +
STACK CFI 222b4 .cfa: sp 0 +
STACK CFI 222b8 .cfa: x29 64 +
STACK CFI INIT 222e8 30c .cfa: sp 0 +
STACK CFI 222ec .cfa: sp 80 +
STACK CFI 22300 .cfa: x29 64 + x19: .cfa -8 + ^ x20: .cfa -16 + ^ x21: .cfa -24 + ^ x22: .cfa -32 + ^ x23: .cfa -40 + ^ x24: .cfa -48 + ^ .ra: .cfa -56 + ^ x29: .cfa -64 + ^
STACK CFI 2247c .cfa: sp 80 +
STACK CFI 22490 .cfa: sp 0 +
STACK CFI 22494 .cfa: x29 64 +
STACK CFI INIT 225f4 178 .cfa: sp 0 +
STACK CFI 225f8 .cfa: sp 80 +
STACK CFI 2260c .cfa: x29 64 + x19: .cfa -8 + ^ x20: .cfa -16 + ^ x21: .cfa -24 + ^ x22: .cfa -32 + ^ x23: .cfa -40 + ^ x24: .cfa -48 + ^ .ra: .cfa -56 + ^ x29: .cfa -64 + ^
STACK CFI 22750 .cfa: sp 80 +
STACK CFI 22764 .cfa: sp 0 +
STACK CFI 22768 .cfa: x29 64 +
STACK CFI INIT 2276c 178 .cfa: sp 0 +
STACK CFI 22770 .cfa: sp 80 +
STACK CFI 22784 .cfa: x29 64 + x19: .cfa -8 + ^ x20: .cfa -16 + ^ x21: .cfa -24 + ^ x22: .cfa -32 + ^ x23: .cfa -40 + ^ x24: .cfa -48 + ^ .ra: .cfa -56 + ^ x29: .cfa -64 + ^
STACK CFI 228c8 .cfa: sp 80 +
STACK CFI 228dc .cfa: sp 0 +
STACK CFI 228e0 .cfa: x29 64 +
STACK CFI INIT 228e4 240 .cfa: sp 0 +
STACK CFI 228e8 .cfa: sp 96 +
STACK CFI 22900 .cfa: x29 96 + x19: .cfa -8 + ^ x20: .cfa -16 + ^ x21: .cfa -24 + ^ x22: .cfa -32 + ^ x23: .cfa -40 + ^ x24: .cfa -48 + ^ x25: .cfa -56 + ^ x26: .cfa -64 + ^ x27: .cfa -72 + ^ x28: .cfa -80 + ^ .ra: .cfa -88 + ^ x29: .cfa -96 + ^
STACK CFI 22b08 .cfa: sp 96 +
STACK CFI 22b20 .cfa: sp 0 +
STACK CFI INIT 23798 154 .cfa: sp 0 +
STACK CFI 2379c .cfa: sp 96 +
STACK CFI 237b0 .cfa: x29 64 + x19: .cfa -8 + ^ x20: .cfa -16 + ^ x21: .cfa -24 + ^ x22: .cfa -32 + ^ x23: .cfa -48 + ^ .ra: .cfa -56 + ^ x29: .cfa -64 + ^
STACK CFI 23890 .cfa: sp 96 +
STACK CFI 238a4 .cfa: sp 0 +
STACK CFI 238a8 .cfa: x29 64 +
STACK CFI INIT 23b58 44 .cfa: sp 0 +
STACK CFI 23b5c .cfa: sp 32 +
STACK CFI 23b64 .cfa: x29 32 + x19: .cfa -16 + ^ .ra: .cfa -24 + ^ x29: .cfa -32 + ^
STACK CFI 23b80 .cfa: sp 32 +
STACK CFI 23b88 .cfa: sp 0 +
STACK CFI 23b8c .cfa: x29 32 +
STACK CFI 23b90 .cfa: sp 32 +
STACK CFI 23b98 .cfa: sp 0 +
STACK CFI INIT 23b9c 1d0 .cfa: sp 0 +
STACK CFI 23ba0 .cfa: sp 64 +
STACK CFI 23bb0 .cfa: x29 64 + x19: .cfa -8 + ^ x20: .cfa -16 + ^ x21: .cfa -24 + ^ x22: .cfa -32 + ^ x23: .cfa -40 + ^ x24: .cfa -48 + ^ .ra: .cfa -56 + ^ x29: .cfa -64 + ^
STACK CFI 23c70 .cfa: sp 64 +
STACK CFI 23c80 .cfa: sp 0 +
STACK CFI 23c84 .cfa: x29 64 +
STACK CFI INIT 23d6c 17c .cfa: sp 0 +
STACK CFI INIT 23ee8 ac .cfa: sp 0 +
STACK CFI 23eec .cfa: sp 64 +
STACK CFI 23efc .cfa: x29 64 + x19: .cfa -8 + ^ x20: .cfa -16 + ^ x21: .cfa -24 + ^ x22: .cfa -32 + ^ x23: .cfa -48 + ^ .ra: .cfa -56 + ^ x29: .cfa -64 + ^
STACK CFI 23f78 .cfa: sp 64 +
STACK CFI 23f88 .cfa: sp 0 +
STACK CFI 23f8c .cfa: x29 64 +
STACK CFI INIT 23f94 110 .cfa: sp 0 +
STACK CFI 23f98 .cfa: sp 64 +
STACK CFI 23fa8 .cfa: x29 64 + x19: .cfa -8 + ^ x20: .cfa -16 + ^ x21: .cfa -24 + ^ x22: .cfa -32 + ^ x23: .cfa -40 + ^ x24: .cfa -48 + ^ .ra: .cfa -56 + ^ x29: .cfa -64 + ^
STACK CFI 24088 .cfa: sp 64 +
STACK CFI 24098 .cfa: sp 0 +
STACK CFI 2409c .cfa: x29 64 +
STACK CFI INIT 2445c a0 .cfa: sp 0 +
STACK CFI 24460 .cfa: sp 48 +
STACK CFI 2446c .cfa: x29 48 + x19: .cfa -8 + ^ x20: .cfa -16 + ^ x21: .cfa -24 + ^ x22: .cfa -32 + ^ .ra: .cfa -40 + ^ x29: .cfa -48 + ^
STACK CFI 244d8 .cfa: sp 48 +
STACK CFI 244e4 .cfa: sp 0 +
STACK CFI 244e8 .cfa: sp 48 +
STACK CFI 244f4 .cfa: sp 0 +
STACK CFI 244f8 .cfa: x29 48 +
STACK CFI INIT 251b0 158 .cfa: sp 0 +
STACK CFI 251b4 .cfa: sp 96 +
STACK CFI 251c8 .cfa: x29 64 + x19: .cfa -8 + ^ x20: .cfa -16 + ^ x21: .cfa -24 + ^ x22: .cfa -32 + ^ x23: .cfa -48 + ^ .ra: .cfa -56 + ^ x29: .cfa -64 + ^
STACK CFI 252ac .cfa: sp 96 +
STACK CFI 252c0 .cfa: sp 0 +
STACK CFI 252c4 .cfa: x29 64 +
STACK CFI INIT 25308 190 .cfa: sp 0 +
STACK CFI INIT 25f94 1dc .cfa: sp 0 +
STACK CFI 25f98 .cfa: sp 80 +
STACK CFI 25fac .cfa: x29 80 + x19: .cfa -8 + ^ x20: .cfa -16 + ^ x21: .cfa -24 + ^ x22: .cfa -32 + ^ x23: .cfa -40 + ^ x24: .cfa -48 + ^ x25: .cfa -64 + ^ .ra: .cfa -72 + ^ x29: .cfa -80 + ^
STACK CFI 26158 .cfa: sp 80 +
STACK CFI 2616c .cfa: sp 0 +
STACK CFI INIT 275a0 124 .cfa: sp 0 +
STACK CFI 275d0 .cfa: sp 32 +
STACK CFI 275d8 .cfa: x29 32 + x19: .cfa -8 + ^ x20: .cfa -16 + ^ .ra: .cfa -24 + ^ x29: .cfa -32 + ^
STACK CFI 276b8 .cfa: sp 32 +
STACK CFI 276c0 .cfa: sp 0 +
STACK CFI INIT 27e20 320 .cfa: sp 0 +
STACK CFI 27e24 .cfa: sp 64 +
STACK CFI 27e34 .cfa: x29 64 + x19: .cfa -8 + ^ x20: .cfa -16 + ^ x21: .cfa -24 + ^ x22: .cfa -32 + ^ x23: .cfa -40 + ^ x24: .cfa -48 + ^ .ra: .cfa -56 + ^ x29: .cfa -64 + ^
STACK CFI 27eb0 .cfa: sp 64 +
STACK CFI 27ec0 .cfa: sp 0 +
STACK CFI 27ec4 .cfa: x29 64 +
STACK CFI 28098 .cfa: sp 64 +
STACK CFI 280a8 .cfa: sp 0 +
STACK CFI 280ac .cfa: x29 64 +
STACK CFI 280bc .cfa: sp 64 +
STACK CFI 280cc .cfa: sp 0 +
STACK CFI 280d0 .cfa: x29 64 +
STACK CFI INIT 28140 a0 .cfa: sp 0 +
STACK CFI 28144 .cfa: sp 48 +
STACK CFI 28150 .cfa: x29 48 + x19: .cfa -8 + ^ x20: .cfa -16 + ^ x21: .cfa -24 + ^ x22: .cfa -32 + ^ .ra: .cfa -40 + ^ x29: .cfa -48 + ^
STACK CFI 281bc .cfa: sp 48 +
STACK CFI 281c8 .cfa: sp 0 +
STACK CFI 281cc .cfa: sp 48 +
STACK CFI 281d8 .cfa: sp 0 +
STACK CFI 281dc .cfa: x29 48 +
STACK CFI INIT 29090 160 .cfa: sp 0 +
STACK CFI 29094 .cfa: sp 64 +
STACK CFI 290a4 .cfa: x29 64 + x19: .cfa -8 + ^ x20: .cfa -16 + ^ x21: .cfa -24 + ^ x22: .cfa -32 + ^ x23: .cfa -48 + ^ .ra: .cfa -56 + ^ x29: .cfa -64 + ^
STACK CFI 2919c .cfa: sp 64 +
STACK CFI 291ac .cfa: sp 0 +
STACK CFI 291b0 .cfa: x29 64 +
STACK CFI INIT 291f0 214 .cfa: sp 0 +
STACK CFI 291f4 .cfa: sp 128 +
STACK CFI 29210 .cfa: x29 96 + x19: .cfa -8 + ^ x20: .cfa -16 + ^ x21: .cfa -24 + ^ x22: .cfa -32 + ^ x23: .cfa -40 + ^ x24: .cfa -48 + ^ x25: .cfa -56 + ^ x26: .cfa -64 + ^ x27: .cfa -80 + ^ .ra: .cfa -88 + ^ x29: .cfa -96 + ^
STACK CFI 2938c .cfa: sp 128 +
STACK CFI 293a8 .cfa: sp 0 +
STACK CFI 293ac .cfa: x29 96 +
STACK CFI INIT 2b0a0 290 .cfa: sp 0 +
STACK CFI 2b0a4 .cfa: sp 16 +
STACK CFI 2b0a8 .cfa: x29 16 + .ra: .cfa -8 + ^ x29: .cfa -16 + ^
STACK CFI 2b134 .cfa: sp 16 +
STACK CFI 2b138 .cfa: sp 0 +
STACK CFI 2b13c .cfa: x29 16 +
STACK CFI 2b18c .cfa: sp 16 +
STACK CFI 2b190 .cfa: sp 0 +
STACK CFI 2b194 .cfa: x29 16 +
STACK CFI 2b2f8 .cfa: sp 16 +
STACK CFI 2b2fc .cfa: sp 0 +
STACK CFI 2b300 .cfa: x29 16 +
STACK CFI INIT 2b330 158 .cfa: sp 0 +
STACK CFI 2b334 .cfa: sp 112 +
STACK CFI 2b350 .cfa: x29 96 + x19: .cfa -8 + ^ x20: .cfa -16 + ^ x21: .cfa -24 + ^ x22: .cfa -32 + ^ x23: .cfa -40 + ^ x24: .cfa -48 + ^ x25: .cfa -56 + ^ x26: .cfa -64 + ^ x27: .cfa -72 + ^ x28: .cfa -80 + ^ .ra: .cfa -88 + ^ x29: .cfa -96 + ^
STACK CFI 2b438 .cfa: sp 112 +
STACK CFI 2b43c .cfa: x29 96 +
STACK CFI 2b444 .cfa: sp 112 +
STACK CFI 2b460 .cfa: sp 0 +
STACK CFI 2b464 .cfa: x29 96 +
STACK CFI 2b484 .cfa: sp 112 +
STACK CFI INIT 2b488 e54 .cfa: sp 0 +
STACK CFI 2b48c .cfa: sp 192 +
STACK CFI 2b4a8 .cfa: x29 96 + x19: .cfa -8 + ^ x20: .cfa -16 + ^ x21: .cfa -24 + ^ x22: .cfa -32 + ^ x23: .cfa -40 + ^ x24: .cfa -48 + ^ x25: .cfa -56 + ^ x26: .cfa -64 + ^ x27: .cfa -72 + ^ x28: .cfa -80 + ^ .ra: .cfa -88 + ^ x29: .cfa -96 + ^
STACK CFI 2c1c4 .cfa: sp 192 +
STACK CFI 2c1e0 .cfa: sp 0 +
STACK CFI 2c1e4 .cfa: x29 96 +
STACK CFI INIT 2c2dc 1068 .cfa: sp 0 +
STACK CFI 2c2e0 .cfa: sp 288 +
STACK CFI 2c2fc .cfa: x29 96 + x19: .cfa -8 + ^ x20: .cfa -16 + ^ x21: .cfa -24 + ^ x22: .cfa -32 + ^ x23: .cfa -40 + ^ x24: .cfa -48 + ^ x25: .cfa -56 + ^ x26: .cfa -64 + ^ x27: .cfa -72 + ^ x28: .cfa -80 + ^ .ra: .cfa -88 + ^ x29: .cfa -96 + ^
STACK CFI 2d08c .cfa: sp 288 +
STACK CFI 2d0a8 .cfa: sp 0 +
STACK CFI 2d0ac .cfa: x29 96 +
STACK CFI INIT 2d344 520 .cfa: sp 0 +
STACK CFI 2d348 .cfa: sp 144 +
STACK CFI 2d364 .cfa: x29 96 + x19: .cfa -8 + ^ x20: .cfa -16 + ^ x21: .cfa -24 + ^ x22: .cfa -32 + ^ x23: .cfa -40 + ^ x24: .cfa -48 + ^ x25: .cfa -56 + ^ x26: .cfa -64 + ^ x27: .cfa -72 + ^ x28: .cfa -80 + ^ .ra: .cfa -88 + ^ x29: .cfa -96 + ^
STACK CFI 2d840 .cfa: sp 144 +
STACK CFI 2d85c .cfa: sp 0 +
STACK CFI 2d860 .cfa: x29 96 +
STACK CFI INIT 2e204 136c .cfa: sp 0 +
STACK CFI 2e208 .cfa: sp 224 +
STACK CFI 2e224 .cfa: x29 96 + x19: .cfa -8 + ^ x20: .cfa -16 + ^ x21: .cfa -24 + ^ x22: .cfa -32 + ^ x23: .cfa -40 + ^ x24: .cfa -48 + ^ x25: .cfa -56 + ^ x26: .cfa -64 + ^ x27: .cfa -72 + ^ x28: .cfa -80 + ^ .ra: .cfa -88 + ^ x29: .cfa -96 + ^
STACK CFI 2f54c .cfa: sp 224 +
STACK CFI 2f568 .cfa: sp 0 +
STACK CFI 2f56c .cfa: x29 96 +
STACK CFI INIT 2f570 1b8 .cfa: sp 0 +
STACK CFI INIT 13910 20c .cfa: sp 0 +
STACK CFI 13914 .cfa: sp 80 +
STACK CFI 13928 .cfa: x29 80 + x19: .cfa -8 + ^ x20: .cfa -16 + ^ x21: .cfa -24 + ^ x22: .cfa -32 + ^ x23: .cfa -40 + ^ x24: .cfa -48 + ^ x25: .cfa -56 + ^ x26: .cfa -64 + ^ .ra: .cfa -72 + ^ x29: .cfa -80 + ^
STACK CFI 13ab4 .cfa: sp 80 +
STACK CFI 13ac8 .cfa: sp 0 +
STACK CFI 13acc .cfa: x29 80 +
STACK CFI INIT 13c1c 194 .cfa: sp 0 +
STACK CFI 13c20 .cfa: sp 112 +
STACK CFI 13c30 .cfa: x29 48 + x19: .cfa -8 + ^ x20: .cfa -16 + ^ x21: .cfa -32 + ^ .ra: .cfa -40 + ^ x29: .cfa -48 + ^
STACK CFI 13d08 .cfa: sp 112 +
STACK CFI 13d18 .cfa: sp 0 +
STACK CFI 13d1c .cfa: x29 48 +
STACK CFI INIT 13f70 50 .cfa: sp 0 +
STACK CFI 13f74 .cfa: sp 32 +
STACK CFI 13f7c .cfa: x29 32 + x19: .cfa -8 + ^ x20: .cfa -16 + ^ .ra: .cfa -24 + ^ x29: .cfa -32 + ^
STACK CFI INIT 14024 2b8 .cfa: sp 0 +
STACK CFI 14028 .cfa: sp 160 +
STACK CFI 14044 .cfa: x29 96 + x19: .cfa -8 + ^ x20: .cfa -16 + ^ x21: .cfa -24 + ^ x22: .cfa -32 + ^ x23: .cfa -40 + ^ x24: .cfa -48 + ^ x25: .cfa -56 + ^ x26: .cfa -64 + ^ x27: .cfa -72 + ^ x28: .cfa -80 + ^ .ra: .cfa -88 + ^ x29: .cfa -96 + ^
STACK CFI 1407c .cfa: sp 160 +
STACK CFI 14098 .cfa: sp 0 +
STACK CFI 1409c .cfa: x29 96 +
STACK CFI INIT 142dc 114 .cfa: sp 0 +
STACK CFI 142e0 .cfa: sp 64 +
STACK CFI 142f0 .cfa: x29 64 + x19: .cfa -8 + ^ x20: .cfa -16 + ^ x21: .cfa -24 + ^ x22: .cfa -32 + ^ x23: .cfa -48 + ^ .ra: .cfa -56 + ^ x29: .cfa -64 + ^
STACK CFI 143cc .cfa: sp 64 +
STACK CFI 143dc .cfa: sp 0 +
STACK CFI 143e0 .cfa: x29 64 +
STACK CFI INIT 1441c 22c .cfa: sp 0 +
STACK CFI 14420 .cfa: sp 96 +
STACK CFI 14438 .cfa: x29 96 + x19: .cfa -8 + ^ x20: .cfa -16 + ^ x21: .cfa -24 + ^ x22: .cfa -32 + ^ x23: .cfa -40 + ^ x24: .cfa -48 + ^ x25: .cfa -56 + ^ x26: .cfa -64 + ^ x27: .cfa -80 + ^ .ra: .cfa -88 + ^ x29: .cfa -96 + ^
STACK CFI 145dc .cfa: sp 96 +
STACK CFI 145f4 .cfa: sp 0 +
STACK CFI 145f8 .cfa: x29 96 +
STACK CFI INIT 14670 50 .cfa: sp 0 +
STACK CFI 14674 .cfa: sp 32 +
STACK CFI 1467c .cfa: x29 32 + x19: .cfa -8 + ^ x20: .cfa -16 + ^ .ra: .cfa -24 + ^ x29: .cfa -32 + ^
STACK CFI INIT 15830 3fc .cfa: sp 0 +
STACK CFI 15834 .cfa: sp 224 +
STACK CFI 15850 .cfa: x29 96 + x19: .cfa -8 + ^ x20: .cfa -16 + ^ x21: .cfa -24 + ^ x22: .cfa -32 + ^ x23: .cfa -40 + ^ x24: .cfa -48 + ^ x25: .cfa -56 + ^ x26: .cfa -64 + ^ x27: .cfa -72 + ^ x28: .cfa -80 + ^ .ra: .cfa -88 + ^ x29: .cfa -96 + ^
STACK CFI 15b28 .cfa: sp 224 +
STACK CFI 15b44 .cfa: sp 0 +
STACK CFI 15b48 .cfa: x29 96 +
STACK CFI INIT 15c2c 484 .cfa: sp 0 +
STACK CFI 15c30 .cfa: sp 192 +
STACK CFI 15c44 .cfa: x29 64 + x19: .cfa -8 + ^ x20: .cfa -16 + ^ x21: .cfa -24 + ^ x22: .cfa -32 + ^ x23: .cfa -40 + ^ x24: .cfa -48 + ^ .ra: .cfa -56 + ^ x29: .cfa -64 + ^
STACK CFI 15f68 .cfa: sp 192 +
STACK CFI 15f7c .cfa: sp 0 +
STACK CFI 15f80 .cfa: x29 64 +
STACK CFI INIT 16100 74 .cfa: sp 0 +
STACK CFI 16104 .cfa: sp 48 +
STACK CFI 16110 .cfa: x29 32 + x19: .cfa -8 + ^ x20: .cfa -16 + ^ .ra: .cfa -24 + ^ x29: .cfa -32 + ^
STACK CFI 1615c .cfa: sp 48 +
STACK CFI 16168 .cfa: sp 0 +
STACK CFI 1616c .cfa: x29 32 +
STACK CFI INIT 161f4 154 .cfa: sp 0 +
STACK CFI 161f8 .cfa: sp 384 +
STACK CFI 1620c .cfa: x29 64 + x19: .cfa -8 + ^ x20: .cfa -16 + ^ x21: .cfa -24 + ^ x22: .cfa -32 + ^ x23: .cfa -40 + ^ x28: .cfa -48 + ^ .ra: .cfa -56 + ^ x29: .cfa -64 + ^
STACK CFI 162f0 .cfa: sp 384 +
STACK CFI 16304 .cfa: sp 0 +
STACK CFI 16308 .cfa: x29 64 +
STACK CFI INIT 1637c 12c .cfa: sp 0 +
STACK CFI 16380 .cfa: sp 80 +
STACK CFI 16394 .cfa: x29 80 + x19: .cfa -8 + ^ x20: .cfa -16 + ^ x21: .cfa -24 + ^ x22: .cfa -32 + ^ x23: .cfa -40 + ^ x24: .cfa -48 + ^ x25: .cfa -56 + ^ x26: .cfa -64 + ^ .ra: .cfa -72 + ^ x29: .cfa -80 + ^
STACK CFI 1645c .cfa: sp 80 +
STACK CFI 16470 .cfa: sp 0 +
STACK CFI 16474 .cfa: x29 80 +
STACK CFI INIT 1654c 1a4 .cfa: sp 0 +
STACK CFI 16550 .cfa: sp 112 +
STACK CFI 16568 .cfa: x29 80 + x19: .cfa -8 + ^ x20: .cfa -16 + ^ x21: .cfa -24 + ^ x22: .cfa -32 + ^ x23: .cfa -40 + ^ x24: .cfa -48 + ^ x25: .cfa -56 + ^ x26: .cfa -64 + ^ .ra: .cfa -72 + ^ x29: .cfa -80 + ^
STACK CFI 16658 .cfa: sp 112 +
STACK CFI 16670 .cfa: sp 0 +
STACK CFI 16674 .cfa: x29 80 +
STACK CFI INIT 166f0 1dc .cfa: sp 0 +
STACK CFI 166f4 .cfa: sp 128 +
STACK CFI 16710 .cfa: x29 96 + x19: .cfa -8 + ^ x20: .cfa -16 + ^ x21: .cfa -24 + ^ x22: .cfa -32 + ^ x23: .cfa -40 + ^ x24: .cfa -48 + ^ x25: .cfa -56 + ^ x26: .cfa -64 + ^ x27: .cfa -80 + ^ .ra: .cfa -88 + ^ x29: .cfa -96 + ^
STACK CFI 1687c .cfa: sp 128 +
STACK CFI 16898 .cfa: sp 0 +
STACK CFI 1689c .cfa: x29 96 +
STACK CFI INIT 168e0 178 .cfa: sp 0 +
STACK CFI 168e4 .cfa: sp 80 +
STACK CFI 168f8 .cfa: x29 80 + x19: .cfa -8 + ^ x20: .cfa -16 + ^ x21: .cfa -24 + ^ x22: .cfa -32 + ^ x23: .cfa -40 + ^ x24: .cfa -48 + ^ x25: .cfa -64 + ^ .ra: .cfa -72 + ^ x29: .cfa -80 + ^
STACK CFI 16a24 .cfa: sp 80 +
STACK CFI 16a38 .cfa: sp 0 +
STACK CFI 16a3c .cfa: x29 80 +
STACK CFI INIT 16ba0 228 .cfa: sp 0 +
STACK CFI 16ba4 .cfa: sp 128 +
STACK CFI 16bbc .cfa: x29 80 + x19: .cfa -8 + ^ x20: .cfa -16 + ^ x21: .cfa -24 + ^ x22: .cfa -32 + ^ x23: .cfa -40 + ^ x24: .cfa -48 + ^ x25: .cfa -64 + ^ .ra: .cfa -72 + ^ x29: .cfa -80 + ^
STACK CFI 16d58 .cfa: sp 128 +
STACK CFI 16d70 .cfa: sp 0 +
STACK CFI 16d74 .cfa: x29 80 +
STACK CFI INIT 17524 184 .cfa: sp 0 +
STACK CFI 17528 .cfa: sp 160 +
STACK CFI 17540 .cfa: x29 80 + x19: .cfa -8 + ^ x20: .cfa -16 + ^ x21: .cfa -24 + ^ x22: .cfa -32 + ^ x23: .cfa -40 + ^ x24: .cfa -48 + ^ x25: .cfa -56 + ^ x26: .cfa -64 + ^ .ra: .cfa -72 + ^ x29: .cfa -80 + ^
STACK CFI 17640 .cfa: sp 160 +
STACK CFI 17658 .cfa: sp 0 +
STACK CFI 1765c .cfa: x29 80 +
STACK CFI INIT 176ac 134 .cfa: sp 0 +
STACK CFI 176b0 .cfa: sp 128 +
STACK CFI 176c4 .cfa: x29 64 + x19: .cfa -8 + ^ x20: .cfa -16 + ^ x21: .cfa -24 + ^ x22: .cfa -32 + ^ x23: .cfa -40 + ^ x24: .cfa -48 + ^ .ra: .cfa -56 + ^ x29: .cfa -64 + ^
STACK CFI 17790 .cfa: sp 128 +
STACK CFI 177a4 .cfa: sp 0 +
STACK CFI 177a8 .cfa: x29 64 +
STACK CFI INIT 17bc0 3fc .cfa: sp 0 +
STACK CFI 17bc4 .cfa: sp 224 +
STACK CFI 17be0 .cfa: x29 96 + x19: .cfa -8 + ^ x20: .cfa -16 + ^ x21: .cfa -24 + ^ x22: .cfa -32 + ^ x23: .cfa -40 + ^ x24: .cfa -48 + ^ x25: .cfa -56 + ^ x26: .cfa -64 + ^ x27: .cfa -72 + ^ x28: .cfa -80 + ^ .ra: .cfa -88 + ^ x29: .cfa -96 + ^
STACK CFI 17eb8 .cfa: sp 224 +
STACK CFI 17ed4 .cfa: sp 0 +
STACK CFI 17ed8 .cfa: x29 96 +
STACK CFI INIT 17fbc 26c .cfa: sp 0 +
STACK CFI 17fc0 .cfa: sp 128 +
STACK CFI 17fd4 .cfa: x29 64 + x19: .cfa -8 + ^ x20: .cfa -16 + ^ x21: .cfa -24 + ^ x22: .cfa -32 + ^ x23: .cfa -48 + ^ .ra: .cfa -56 + ^ x29: .cfa -64 + ^
STACK CFI 18158 .cfa: sp 128 +
STACK CFI 1816c .cfa: sp 0 +
STACK CFI 18170 .cfa: x29 64 +
STACK CFI INIT 1822c 184 .cfa: sp 0 +
STACK CFI 18230 .cfa: sp 160 +
STACK CFI 18248 .cfa: x29 80 + x19: .cfa -8 + ^ x20: .cfa -16 + ^ x21: .cfa -24 + ^ x22: .cfa -32 + ^ x23: .cfa -40 + ^ x24: .cfa -48 + ^ x25: .cfa -56 + ^ x26: .cfa -64 + ^ .ra: .cfa -72 + ^ x29: .cfa -80 + ^
STACK CFI 18348 .cfa: sp 160 +
STACK CFI 18360 .cfa: sp 0 +
STACK CFI 18364 .cfa: x29 80 +
STACK CFI INIT 183b4 57c .cfa: sp 0 +
STACK CFI 183b8 .cfa: sp 272 +
STACK CFI 183d4 .cfa: x29 72 + x19: .cfa -8 + ^ x20: .cfa -16 + ^ x21: .cfa -24 + ^ x22: .cfa -32 + ^ x23: .cfa -40 + ^ x24: .cfa -48 + ^ x25: .cfa -56 + ^ .ra: .cfa -64 + ^ x29: .cfa -72 + ^ v8: .cfa -80 + ^
STACK CFI 18824 .cfa: sp 272 +
STACK CFI 18840 .cfa: sp 0 +
STACK CFI 18844 .cfa: x29 72 +
STACK CFI INIT 18930 198 .cfa: sp 0 +
STACK CFI 18934 .cfa: sp 112 +
STACK CFI 18944 .cfa: x29 48 + x19: .cfa -8 + ^ x20: .cfa -16 + ^ x21: .cfa -32 + ^ .ra: .cfa -40 + ^ x29: .cfa -48 + ^
STACK CFI 18a1c .cfa: sp 112 +
STACK CFI 18a2c .cfa: sp 0 +
STACK CFI 18a30 .cfa: x29 48 +
STACK CFI INIT 18ac8 3cc .cfa: sp 0 +
STACK CFI 18acc .cfa: sp 224 +
STACK CFI 18ae0 .cfa: x29 64 + x19: .cfa -8 + ^ x20: .cfa -16 + ^ x21: .cfa -24 + ^ x22: .cfa -32 + ^ x23: .cfa -48 + ^ .ra: .cfa -56 + ^ x29: .cfa -64 + ^
STACK CFI 18da0 .cfa: sp 224 +
STACK CFI 18db4 .cfa: sp 0 +
STACK CFI 18db8 .cfa: x29 64 +
STACK CFI INIT 18e94 378 .cfa: sp 0 +
STACK CFI 18e98 .cfa: sp 96 +
STACK CFI 18eb0 .cfa: x29 96 + x19: .cfa -8 + ^ x20: .cfa -16 + ^ x21: .cfa -24 + ^ x22: .cfa -32 + ^ x23: .cfa -40 + ^ x24: .cfa -48 + ^ x25: .cfa -56 + ^ x26: .cfa -64 + ^ x28: .cfa -80 + ^ .ra: .cfa -88 + ^ x29: .cfa -96 + ^
STACK CFI 19074 .cfa: sp 96 +
STACK CFI 1908c .cfa: sp 0 +
STACK CFI 19090 .cfa: x29 96 +
STACK CFI 19168 .cfa: sp 96 +
STACK CFI 19180 .cfa: sp 0 +
STACK CFI 19184 .cfa: x29 96 +
STACK CFI INIT 192a4 5f8 .cfa: sp 0 +
STACK CFI 192a8 .cfa: sp 416 +
STACK CFI 192c4 .cfa: x29 96 + x19: .cfa -8 + ^ x20: .cfa -16 + ^ x21: .cfa -24 + ^ x22: .cfa -32 + ^ x23: .cfa -40 + ^ x24: .cfa -48 + ^ x25: .cfa -56 + ^ x26: .cfa -64 + ^ x28: .cfa -80 + ^ .ra: .cfa -88 + ^ x29: .cfa -96 + ^
STACK CFI 19650 .cfa: sp 416 +
STACK CFI 1966c .cfa: sp 0 +
STACK CFI 19670 .cfa: x29 96 +
STACK CFI INIT 19d04 168 .cfa: sp 0 +
STACK CFI 19d08 .cfa: sp 160 +
STACK CFI 19d18 .cfa: x29 48 + x19: .cfa -8 + ^ x20: .cfa -16 + ^ x21: .cfa -32 + ^ .ra: .cfa -40 + ^ x29: .cfa -48 + ^
STACK CFI 19dec .cfa: sp 160 +
STACK CFI 19dfc .cfa: sp 0 +
STACK CFI 19e00 .cfa: x29 48 +
STACK CFI INIT 1a064 174 .cfa: sp 0 +
STACK CFI 1a068 .cfa: sp 112 +
STACK CFI 1a078 .cfa: x29 48 + x19: .cfa -8 + ^ x20: .cfa -16 + ^ x21: .cfa -32 + ^ .ra: .cfa -40 + ^ x29: .cfa -48 + ^
STACK CFI 1a174 .cfa: sp 112 +
STACK CFI 1a184 .cfa: sp 0 +
STACK CFI 1a188 .cfa: x29 48 +
STACK CFI INIT 1a360 9c .cfa: sp 0 +
STACK CFI 1a364 .cfa: sp 32 +
STACK CFI 1a36c .cfa: x29 32 + x19: .cfa -8 + ^ x20: .cfa -16 + ^ .ra: .cfa -24 + ^ x29: .cfa -32 + ^
STACK CFI 1a3b8 .cfa: sp 32 +
STACK CFI 1a3c0 .cfa: sp 0 +
STACK CFI 1a3c4 .cfa: x29 32 +
STACK CFI 1a3dc .cfa: sp 32 +
STACK CFI 1a3e4 .cfa: sp 0 +
STACK CFI 1a3e8 .cfa: x29 32 +
STACK CFI INIT 1a5c4 1c .cfa: sp 0 +
STACK CFI 1a5c8 .cfa: sp 16 +
STACK CFI 1a5cc .cfa: x29 16 + .ra: .cfa -8 + ^ x29: .cfa -16 + ^
STACK CFI 1a5d4 .cfa: sp 16 +
STACK CFI 1a5d8 .cfa: sp 0 +
STACK CFI 1a5dc .cfa: x29 16 +
STACK CFI INIT 1a5e0 c4 .cfa: sp 0 +
STACK CFI 1a5e4 .cfa: sp 48 +
STACK CFI 1a5f0 .cfa: x29 48 + x19: .cfa -8 + ^ x20: .cfa -16 + ^ x21: .cfa -32 + ^ .ra: .cfa -40 + ^ x29: .cfa -48 + ^
STACK CFI 1a65c .cfa: sp 48 +
STACK CFI 1a668 .cfa: sp 0 +
STACK CFI 1a66c .cfa: x29 48 +
STACK CFI 1a690 .cfa: sp 48 +
STACK CFI 1a69c .cfa: sp 0 +
STACK CFI 1a6a0 .cfa: x29 48 +
STACK CFI INIT 1a6a4 84 .cfa: sp 0 +
STACK CFI 1a6a8 .cfa: sp 48 +
STACK CFI 1a6b4 .cfa: x29 48 + x19: .cfa -8 + ^ x20: .cfa -16 + ^ x21: .cfa -32 + ^ .ra: .cfa -40 + ^ x29: .cfa -48 + ^
STACK CFI 1a6d4 .cfa: sp 48 +
STACK CFI 1a6e0 .cfa: sp 0 +
STACK CFI 1a6e4 .cfa: x29 48 +
STACK CFI 1a704 .cfa: sp 48 +
STACK CFI 1a710 .cfa: sp 0 +
STACK CFI 1a714 .cfa: sp 48 +
STACK CFI 1a720 .cfa: sp 0 +
STACK CFI 1a724 .cfa: x29 48 +
STACK CFI INIT 1a728 94 .cfa: sp 0 +
STACK CFI 1a72c .cfa: sp 48 +
STACK CFI 1a738 .cfa: x29 48 + x19: .cfa -8 + ^ x20: .cfa -16 + ^ x21: .cfa -24 + ^ x22: .cfa -32 + ^ .ra: .cfa -40 + ^ x29: .cfa -48 + ^
STACK CFI 1a740 .cfa: sp 48 +
STACK CFI 1a74c .cfa: sp 0 +
STACK CFI 1a750 .cfa: x29 48 +
STACK CFI 1a774 .cfa: sp 48 +
STACK CFI 1a780 .cfa: sp 0 +
STACK CFI 1a784 .cfa: x29 48 +
STACK CFI 1a7a8 .cfa: sp 48 +
STACK CFI 1a7b4 .cfa: sp 0 +
STACK CFI 1a7b8 .cfa: x29 48 +
STACK CFI INIT 1a7bc 48 .cfa: sp 0 +
STACK CFI 1a7c0 .cfa: sp 32 +
STACK CFI 1a7c8 .cfa: x29 32 + x19: .cfa -8 + ^ x20: .cfa -16 + ^ .ra: .cfa -24 + ^ x29: .cfa -32 + ^
STACK CFI 1a7d0 .cfa: sp 32 +
STACK CFI 1a7d8 .cfa: sp 0 +
STACK CFI 1a7dc .cfa: x29 32 +
STACK CFI INIT 1a804 830 .cfa: sp 0 +
STACK CFI 1a808 .cfa: sp 400 +
STACK CFI 1a820 .cfa: x29 80 + x19: .cfa -8 + ^ x20: .cfa -16 + ^ x21: .cfa -24 + ^ x22: .cfa -32 + ^ x23: .cfa -40 + ^ x24: .cfa -48 + ^ x25: .cfa -56 + ^ x28: .cfa -64 + ^ .ra: .cfa -72 + ^ x29: .cfa -80 + ^
STACK CFI 1aec4 .cfa: sp 400 +
STACK CFI 1aedc .cfa: sp 0 +
STACK CFI 1aee0 .cfa: x29 80 +
STACK CFI INIT 1b134 134 .cfa: sp 0 +
STACK CFI 1b138 .cfa: sp 80 +
STACK CFI 1b148 .cfa: x29 48 + x19: .cfa -8 + ^ x20: .cfa -16 + ^ x21: .cfa -24 + ^ x22: .cfa -32 + ^ .ra: .cfa -40 + ^ x29: .cfa -48 + ^
STACK CFI 1b24c .cfa: sp 80 +
STACK CFI 1b25c .cfa: sp 0 +
STACK CFI 1b260 .cfa: x29 48 +
STACK CFI INIT 1b268 130 .cfa: sp 0 +
STACK CFI 1b26c .cfa: sp 96 +
STACK CFI 1b280 .cfa: x29 48 + x19: .cfa -8 + ^ x20: .cfa -16 + ^ x21: .cfa -24 + ^ x22: .cfa -32 + ^ .ra: .cfa -40 + ^ x29: .cfa -48 + ^ v8: .cfa -64 + ^
STACK CFI 1b378 .cfa: sp 96 +
STACK CFI 1b38c .cfa: sp 0 +
STACK CFI 1b390 .cfa: x29 48 +
STACK CFI INIT 1b398 564 .cfa: sp 0 +
STACK CFI 1b39c .cfa: sp 192 +
STACK CFI 1b3b0 .cfa: x29 64 + x19: .cfa -8 + ^ x20: .cfa -16 + ^ x21: .cfa -24 + ^ x22: .cfa -32 + ^ x23: .cfa -48 + ^ .ra: .cfa -56 + ^ x29: .cfa -64 + ^
STACK CFI 1b7d8 .cfa: sp 192 +
STACK CFI 1b7ec .cfa: sp 0 +
STACK CFI 1b7f0 .cfa: x29 64 +
STACK CFI INIT 1b8fc f8 .cfa: sp 0 +
STACK CFI 1b900 .cfa: sp 48 +
STACK CFI 1b90c .cfa: x29 48 + x19: .cfa -8 + ^ x20: .cfa -16 + ^ x21: .cfa -32 + ^ .ra: .cfa -40 + ^ x29: .cfa -48 + ^
STACK CFI 1b978 .cfa: sp 48 +
STACK CFI 1b984 .cfa: sp 0 +
STACK CFI 1b988 .cfa: x29 48 +
STACK CFI INIT 1ba98 100 .cfa: sp 0 +
STACK CFI 1ba9c .cfa: sp 48 +
STACK CFI 1baa8 .cfa: x29 48 + x19: .cfa -8 + ^ x20: .cfa -16 + ^ x21: .cfa -32 + ^ .ra: .cfa -40 + ^ x29: .cfa -48 + ^
STACK CFI 1bb2c .cfa: sp 48 +
STACK CFI 1bb38 .cfa: sp 0 +
STACK CFI 1bb3c .cfa: x29 48 +
STACK CFI 1bb84 .cfa: sp 48 +
STACK CFI 1bb90 .cfa: sp 0 +
STACK CFI 1bb94 .cfa: x29 48 +
STACK CFI INIT 1bbc4 174 .cfa: sp 0 +
STACK CFI 1bbc8 .cfa: sp 112 +
STACK CFI 1bbd8 .cfa: x29 48 + x19: .cfa -8 + ^ x20: .cfa -16 + ^ x21: .cfa -32 + ^ .ra: .cfa -40 + ^ x29: .cfa -48 + ^
STACK CFI 1bcd4 .cfa: sp 112 +
STACK CFI 1bce4 .cfa: sp 0 +
STACK CFI 1bce8 .cfa: x29 48 +
STACK CFI INIT 1becc 100 .cfa: sp 0 +
STACK CFI 1bed0 .cfa: sp 48 +
STACK CFI 1bedc .cfa: x29 48 + x19: .cfa -8 + ^ x20: .cfa -16 + ^ x21: .cfa -32 + ^ .ra: .cfa -40 + ^ x29: .cfa -48 + ^
STACK CFI 1bf60 .cfa: sp 48 +
STACK CFI 1bf6c .cfa: sp 0 +
STACK CFI 1bf70 .cfa: x29 48 +
STACK CFI 1bfb8 .cfa: sp 48 +
STACK CFI 1bfc4 .cfa: sp 0 +
STACK CFI 1bfc8 .cfa: x29 48 +
STACK CFI INIT 1c048 100 .cfa: sp 0 +
STACK CFI 1c04c .cfa: sp 48 +
STACK CFI 1c058 .cfa: x29 48 + x19: .cfa -8 + ^ x20: .cfa -16 + ^ x21: .cfa -32 + ^ .ra: .cfa -40 + ^ x29: .cfa -48 + ^
STACK CFI 1c0dc .cfa: sp 48 +
STACK CFI 1c0e8 .cfa: sp 0 +
STACK CFI 1c0ec .cfa: x29 48 +
STACK CFI 1c134 .cfa: sp 48 +
STACK CFI 1c140 .cfa: sp 0 +
STACK CFI 1c144 .cfa: x29 48 +
STACK CFI INIT 1c1c8 11c .cfa: sp 0 +
STACK CFI 1c1cc .cfa: sp 48 +
STACK CFI 1c1d8 .cfa: x29 48 + x19: .cfa -8 + ^ x20: .cfa -16 + ^ x21: .cfa -32 + ^ .ra: .cfa -40 + ^ x29: .cfa -48 + ^
STACK CFI 1c278 .cfa: sp 48 +
STACK CFI 1c284 .cfa: sp 0 +
STACK CFI 1c288 .cfa: x29 48 +
STACK CFI 1c2d0 .cfa: sp 48 +
STACK CFI 1c2dc .cfa: sp 0 +
STACK CFI 1c2e0 .cfa: x29 48 +
STACK CFI INIT 1c310 174 .cfa: sp 0 +
STACK CFI 1c314 .cfa: sp 112 +
STACK CFI 1c324 .cfa: x29 48 + x19: .cfa -8 + ^ x20: .cfa -16 + ^ x21: .cfa -32 + ^ .ra: .cfa -40 + ^ x29: .cfa -48 + ^
STACK CFI 1c420 .cfa: sp 112 +
STACK CFI 1c430 .cfa: sp 0 +
STACK CFI 1c434 .cfa: x29 48 +
STACK CFI INIT 1c5d4 12c .cfa: sp 0 +
STACK CFI 1c5d8 .cfa: sp 80 +
STACK CFI 1c5e8 .cfa: x29 48 + x19: .cfa -8 + ^ x20: .cfa -16 + ^ x21: .cfa -32 + ^ .ra: .cfa -40 + ^ x29: .cfa -48 + ^
STACK CFI 1c680 .cfa: sp 80 +
STACK CFI 1c690 .cfa: sp 0 +
STACK CFI 1c694 .cfa: x29 48 +
STACK CFI INIT 1c788 134 .cfa: sp 0 +
STACK CFI 1c78c .cfa: sp 80 +
STACK CFI 1c798 .cfa: x29 32 + x19: .cfa -8 + ^ x20: .cfa -16 + ^ .ra: .cfa -24 + ^ x29: .cfa -32 + ^
STACK CFI 1c7c8 .cfa: sp 80 +
STACK CFI 1c7d4 .cfa: sp 0 +
STACK CFI 1c7d8 .cfa: x29 32 +
STACK CFI INIT 1c8bc 78 .cfa: sp 0 +
STACK CFI 1c8c0 .cfa: sp 32 +
STACK CFI 1c8c8 .cfa: x29 32 + x19: .cfa -8 + ^ x20: .cfa -16 + ^ .ra: .cfa -24 + ^ x29: .cfa -32 + ^
STACK CFI 1c8d4 .cfa: sp 32 +
STACK CFI 1c8dc .cfa: sp 0 +
STACK CFI 1c8e0 .cfa: x29 32 +
STACK CFI INIT 1c934 74 .cfa: sp 0 +
STACK CFI 1c938 .cfa: sp 48 +
STACK CFI 1c944 .cfa: x29 32 + x19: .cfa -8 + ^ x20: .cfa -16 + ^ .ra: .cfa -24 + ^ x29: .cfa -32 + ^
STACK CFI 1c990 .cfa: sp 48 +
STACK CFI 1c99c .cfa: sp 0 +
STACK CFI 1c9a0 .cfa: x29 32 +
STACK CFI INIT 1ca0c 224 .cfa: sp 0 +
STACK CFI 1ca10 .cfa: sp 128 +
STACK CFI 1ca20 .cfa: x29 48 + x19: .cfa -8 + ^ x20: .cfa -16 + ^ x21: .cfa -32 + ^ .ra: .cfa -40 + ^ x29: .cfa -48 + ^
STACK CFI 1cad0 .cfa: sp 128 +
STACK CFI 1cae0 .cfa: sp 0 +
STACK CFI 1cae4 .cfa: x29 48 +
STACK CFI INIT 1cc54 4f4 .cfa: sp 0 +
STACK CFI 1cc58 .cfa: sp 144 +
STACK CFI 1cc6c .cfa: x29 64 + x19: .cfa -8 + ^ x20: .cfa -16 + ^ x21: .cfa -24 + ^ x22: .cfa -32 + ^ x23: .cfa -48 + ^ .ra: .cfa -56 + ^ x29: .cfa -64 + ^
STACK CFI 1cfa0 .cfa: sp 144 +
STACK CFI 1cfb4 .cfa: sp 0 +
STACK CFI 1cfb8 .cfa: x29 64 +
STACK CFI INIT 1d148 154 .cfa: sp 0 +
STACK CFI 1d14c .cfa: sp 384 +
STACK CFI 1d160 .cfa: x29 64 + x19: .cfa -8 + ^ x20: .cfa -16 + ^ x21: .cfa -24 + ^ x22: .cfa -32 + ^ x23: .cfa -40 + ^ x28: .cfa -48 + ^ .ra: .cfa -56 + ^ x29: .cfa -64 + ^
STACK CFI 1d244 .cfa: sp 384 +
STACK CFI 1d258 .cfa: sp 0 +
STACK CFI 1d25c .cfa: x29 64 +
STACK CFI INIT 1d29c 168 .cfa: sp 0 +
STACK CFI 1d2a0 .cfa: sp 384 +
STACK CFI 1d2b4 .cfa: x29 64 + x19: .cfa -8 + ^ x20: .cfa -16 + ^ x21: .cfa -24 + ^ x22: .cfa -32 + ^ x23: .cfa -40 + ^ x28: .cfa -48 + ^ .ra: .cfa -56 + ^ x29: .cfa -64 + ^
STACK CFI 1d3ac .cfa: sp 384 +
STACK CFI 1d3c0 .cfa: sp 0 +
STACK CFI 1d3c4 .cfa: x29 64 +
STACK CFI INIT 1d41c 50c .cfa: sp 0 +
STACK CFI 1d420 .cfa: sp 64 +
STACK CFI 1d430 .cfa: x29 64 + x19: .cfa -8 + ^ x20: .cfa -16 + ^ x21: .cfa -24 + ^ x22: .cfa -32 + ^ x23: .cfa -40 + ^ x24: .cfa -48 + ^ .ra: .cfa -56 + ^ x29: .cfa -64 + ^
STACK CFI 1d550 .cfa: sp 64 +
STACK CFI 1d560 .cfa: sp 0 +
STACK CFI 1d564 .cfa: x29 64 +
STACK CFI 1d8fc .cfa: sp 64 +
STACK CFI 1d90c .cfa: sp 0 +
STACK CFI 1d910 .cfa: x29 64 +
STACK CFI INIT 1dc58 294 .cfa: sp 0 +
STACK CFI 1dc5c .cfa: sp 240 +
STACK CFI 1dc74 .cfa: x29 80 + x19: .cfa -8 + ^ x20: .cfa -16 + ^ x21: .cfa -24 + ^ x22: .cfa -32 + ^ x23: .cfa -40 + ^ x24: .cfa -48 + ^ x25: .cfa -64 + ^ .ra: .cfa -72 + ^ x29: .cfa -80 + ^
STACK CFI 1de14 .cfa: sp 240 +
STACK CFI 1de2c .cfa: sp 0 +
STACK CFI 1de30 .cfa: x29 80 +
STACK CFI INIT 1df68 50 .cfa: sp 0 +
STACK CFI 1df6c .cfa: sp 32 +
STACK CFI 1df74 .cfa: x29 32 + x19: .cfa -8 + ^ x20: .cfa -16 + ^ .ra: .cfa -24 + ^ x29: .cfa -32 + ^
STACK CFI INIT 1dfe4 7c0 .cfa: sp 0 +
STACK CFI 1dfe8 .cfa: sp 320 +
STACK CFI 1e004 .cfa: x29 96 + x19: .cfa -8 + ^ x20: .cfa -16 + ^ x21: .cfa -24 + ^ x22: .cfa -32 + ^ x23: .cfa -40 + ^ x24: .cfa -48 + ^ x25: .cfa -56 + ^ x26: .cfa -64 + ^ x27: .cfa -72 + ^ x28: .cfa -80 + ^ .ra: .cfa -88 + ^ x29: .cfa -96 + ^
STACK CFI 1e654 .cfa: sp 320 +
STACK CFI 1e670 .cfa: sp 0 +
STACK CFI 1e674 .cfa: x29 96 +
STACK CFI INIT 22b24 c74 .cfa: sp 0 +
STACK CFI 22b28 .cfa: sp 96 +
STACK CFI 22b40 .cfa: x29 96 + x19: .cfa -8 + ^ x20: .cfa -16 + ^ x21: .cfa -24 + ^ x22: .cfa -32 + ^ x23: .cfa -40 + ^ x24: .cfa -48 + ^ x25: .cfa -56 + ^ x26: .cfa -64 + ^ x27: .cfa -72 + ^ x28: .cfa -80 + ^ .ra: .cfa -88 + ^ x29: .cfa -96 + ^
STACK CFI 235b8 .cfa: sp 96 +
STACK CFI 235d0 .cfa: sp 0 +
STACK CFI 235d4 .cfa: x29 96 +
STACK CFI INIT 238ec 26c .cfa: sp 0 +
STACK CFI 238f0 .cfa: sp 128 +
STACK CFI 23900 .cfa: x29 48 + x19: .cfa -8 + ^ x20: .cfa -16 + ^ x21: .cfa -24 + ^ x22: .cfa -32 + ^ .ra: .cfa -40 + ^ x29: .cfa -48 + ^
STACK CFI 23aa4 .cfa: sp 128 +
STACK CFI 23ab4 .cfa: sp 0 +
STACK CFI 23ab8 .cfa: x29 48 +
STACK CFI INIT 240a4 3b8 .cfa: sp 0 +
STACK CFI 240a8 .cfa: sp 96 +
STACK CFI 240c0 .cfa: x29 96 + x19: .cfa -8 + ^ x20: .cfa -16 + ^ x21: .cfa -24 + ^ x22: .cfa -32 + ^ x23: .cfa -40 + ^ x24: .cfa -48 + ^ x25: .cfa -56 + ^ x26: .cfa -64 + ^ x27: .cfa -72 + ^ x28: .cfa -80 + ^ .ra: .cfa -88 + ^ x29: .cfa -96 + ^
STACK CFI 243fc .cfa: sp 96 +
STACK CFI 24414 .cfa: sp 0 +
STACK CFI 24418 .cfa: x29 96 +
STACK CFI INIT 244fc cb4 .cfa: sp 0 +
STACK CFI 24500 .cfa: sp 96 +
STACK CFI 24518 .cfa: x29 96 + x19: .cfa -8 + ^ x20: .cfa -16 + ^ x21: .cfa -24 + ^ x22: .cfa -32 + ^ x23: .cfa -40 + ^ x24: .cfa -48 + ^ x25: .cfa -56 + ^ x26: .cfa -64 + ^ x27: .cfa -72 + ^ x28: .cfa -80 + ^ .ra: .cfa -88 + ^ x29: .cfa -96 + ^
STACK CFI 24fc0 .cfa: sp 96 +
STACK CFI 24fd8 .cfa: sp 0 +
STACK CFI 24fdc .cfa: x29 96 +
STACK CFI INIT 25498 afc .cfa: sp 0 +
STACK CFI 2549c .cfa: sp 96 +
STACK CFI 254b4 .cfa: x29 96 + x19: .cfa -8 + ^ x20: .cfa -16 + ^ x21: .cfa -24 + ^ x22: .cfa -32 + ^ x23: .cfa -40 + ^ x24: .cfa -48 + ^ x25: .cfa -56 + ^ x26: .cfa -64 + ^ x27: .cfa -72 + ^ x28: .cfa -80 + ^ .ra: .cfa -88 + ^ x29: .cfa -96 + ^
STACK CFI 25f08 .cfa: sp 96 +
STACK CFI 25f20 .cfa: sp 0 +
STACK CFI 25f24 .cfa: x29 96 +
STACK CFI INIT 26170 1430 .cfa: sp 0 +
STACK CFI 26174 .cfa: sp 96 +
STACK CFI 2618c .cfa: x29 96 + x19: .cfa -8 + ^ x20: .cfa -16 + ^ x21: .cfa -24 + ^ x22: .cfa -32 + ^ x23: .cfa -40 + ^ x24: .cfa -48 + ^ x25: .cfa -56 + ^ x26: .cfa -64 + ^ x27: .cfa -72 + ^ x28: .cfa -80 + ^ .ra: .cfa -88 + ^ x29: .cfa -96 + ^
STACK CFI 27428 .cfa: sp 96 +
STACK CFI 27440 .cfa: sp 0 +
STACK CFI 27444 .cfa: x29 96 +
STACK CFI INIT 276c4 75c .cfa: sp 0 +
STACK CFI 276c8 .cfa: sp 368 +
STACK CFI 276e4 .cfa: x29 96 + x19: .cfa -8 + ^ x20: .cfa -16 + ^ x21: .cfa -24 + ^ x22: .cfa -32 + ^ x23: .cfa -40 + ^ x24: .cfa -48 + ^ x25: .cfa -56 + ^ x26: .cfa -64 + ^ x27: .cfa -72 + ^ x28: .cfa -80 + ^ .ra: .cfa -88 + ^ x29: .cfa -96 + ^
STACK CFI 27798 .cfa: sp 368 +
STACK CFI 277b4 .cfa: sp 0 +
STACK CFI 277b8 .cfa: x29 96 +
STACK CFI 2780c .cfa: sp 368 +
STACK CFI 27828 .cfa: sp 0 +
STACK CFI 2782c .cfa: x29 96 +
STACK CFI INIT 281e0 eb0 .cfa: sp 0 +
STACK CFI 281e4 .cfa: sp 96 +
STACK CFI 281fc .cfa: x29 96 + x19: .cfa -8 + ^ x20: .cfa -16 + ^ x21: .cfa -24 + ^ x22: .cfa -32 + ^ x23: .cfa -40 + ^ x24: .cfa -48 + ^ x25: .cfa -56 + ^ x26: .cfa -64 + ^ x27: .cfa -72 + ^ x28: .cfa -80 + ^ .ra: .cfa -88 + ^ x29: .cfa -96 + ^
STACK CFI 28ea4 .cfa: sp 96 +
STACK CFI 28ebc .cfa: sp 0 +
STACK CFI 28ec0 .cfa: x29 96 +
STACK CFI INIT 29404 1c9c .cfa: sp 0 +
STACK CFI 29408 .cfa: sp 112 +
STACK CFI 29424 .cfa: x29 96 + x19: .cfa -8 + ^ x20: .cfa -16 + ^ x21: .cfa -24 + ^ x22: .cfa -32 + ^ x23: .cfa -40 + ^ x24: .cfa -48 + ^ x25: .cfa -56 + ^ x26: .cfa -64 + ^ x27: .cfa -72 + ^ x28: .cfa -80 + ^ .ra: .cfa -88 + ^ x29: .cfa -96 + ^ v8: .cfa -112 + ^
STACK CFI 2980c .cfa: sp 112 +
STACK CFI 29828 .cfa: sp 0 +
STACK CFI 2982c .cfa: x29 96 +
STACK CFI INIT 2d864 9a0 .cfa: sp 0 +
STACK CFI 2d868 .cfa: sp 144 +
STACK CFI 2d880 .cfa: x29 80 + x19: .cfa -8 + ^ x20: .cfa -16 + ^ x21: .cfa -24 + ^ x22: .cfa -32 + ^ x23: .cfa -40 + ^ x24: .cfa -48 + ^ x25: .cfa -64 + ^ .ra: .cfa -72 + ^ x29: .cfa -80 + ^
STACK CFI 2e180 .cfa: sp 144 +
STACK CFI 2e198 .cfa: sp 0 +
STACK CFI 2e19c .cfa: x29 80 +
STACK CFI INIT 2f728 57c .cfa: sp 0 +
STACK CFI 2f72c .cfa: sp 96 +
STACK CFI 2f744 .cfa: x29 96 + x19: .cfa -8 + ^ x20: .cfa -16 + ^ x21: .cfa -24 + ^ x22: .cfa -32 + ^ x23: .cfa -40 + ^ x24: .cfa -48 + ^ x25: .cfa -56 + ^ x26: .cfa -64 + ^ x27: .cfa -72 + ^ x28: .cfa -80 + ^ .ra: .cfa -88 + ^ x29: .cfa -96 + ^
STACK CFI 2fc08 .cfa: sp 96 +
STACK CFI 2fc20 .cfa: sp 0 +
STACK CFI 2fc24 .cfa: x29 96 +
STACK CFI INIT 2fca4 67c .cfa: sp 0 +
STACK CFI 2fca8 .cfa: sp 96 +
STACK CFI 2fcc0 .cfa: x29 96 + x19: .cfa -8 + ^ x20: .cfa -16 + ^ x21: .cfa -24 + ^ x22: .cfa -32 + ^ x23: .cfa -40 + ^ x24: .cfa -48 + ^ x25: .cfa -56 + ^ x26: .cfa -64 + ^ x27: .cfa -72 + ^ x28: .cfa -80 + ^ .ra: .cfa -88 + ^ x29: .cfa -96 + ^
STACK CFI 30284 .cfa: sp 96 +
STACK CFI 3029c .cfa: sp 0 +
STACK CFI 302a0 .cfa: x29 96 +
