MODULE Linux arm64 12C66BE0D87AE35C0777807170BC8D480 n.talking-icons.android64.so
INFO CODE_ID E06BC6127AD85CE30777807170BC8D488405E764
INFO GENERATOR mozilla/dump_syms 2.3.4
PUBLIC f290 0 __on_dlclose
PUBLIC f2a0 0 __emutls_unregister_key
PUBLIC f2a8 0 __on_dlclose_late
PUBLIC f2b0 0 __atexit_handler_wrapper
PUBLIC f2c4 0 atexit
PUBLIC f2e0 0 pthread_atfork
PUBLIC f2f0 0 __aarch64_ldadd8_relax
PUBLIC f320 0 init_have_lse_atomics
PUBLIC f3b8 0 __init_cpu_features_constructor
PUBLIC f954 0 __init_cpu_features
PUBLIC f9e0 0 __aarch64_ldadd8_acq_rel
PUBLIC fa10 0 geodeExecFunction50<(anonymous namespace)::ExecFuncUnique50>(geode::ModStateEvent*)
PUBLIC fa14 0 __cxx_global_var_init.1
PUBLIC 103fc 0 _GLOBAL__sub_I_main.cpp
PUBLIC 10528 0 geode::modifier::ModifyBase<geode::modifier::ModifyDerive<hook11<(anonymous namespace)::hook11Parent>, MenuGameLayer> >::~ModifyBase()
PUBLIC 10540 0 geode::modifier::ModifyDerive<hook11<(anonymous namespace)::hook11Parent>, MenuGameLayer>::apply()
PUBLIC 10c50 0 std::__ndk1::shared_ptr<geode::Hook>::~shared_ptr[abi:ne180000]()
PUBLIC 10ca0 0 geode::impl::ResultData<geode::Hook*, std::__ndk1::basic_string<char, std::__ndk1::char_traits<char>, std::__ndk1::allocator<char> > >::~ResultData()
PUBLIC 10d14 0 std::__ndk1::vector<std::__ndk1::basic_string<char, std::__ndk1::char_traits<char>, std::__ndk1::allocator<char> >, std::__ndk1::allocator<std::__ndk1::basic_string<char, std::__ndk1::char_traits<char>, std::__ndk1::allocator<char> > > >::~vector[abi:ne180000]()
PUBLIC 10d90 0 geode::modifier::ModifyBase<geode::modifier::ModifyDerive<hook11<(anonymous namespace)::hook11Parent>, MenuGameLayer> >::apply()
PUBLIC 10d94 0 __clang_call_terminate
PUBLIC 10da4 0 _ZN5geode15UnwrapExceptionC2IRPNS_4HookEQsr4implE18IsStringStreamableIT_EEENS_4impl5OkTagEOS5_
PUBLIC 10ef8 0 std::__ndk1::__throw_bad_variant_access[abi:ne180000]()
PUBLIC 10f2c 0 std::__ndk1::basic_stringstream<char, std::__ndk1::char_traits<char>, std::__ndk1::allocator<char> >::basic_stringstream[abi:ne180000]()
PUBLIC m 11058 0 std::__ndk1::basic_stringstream<char, std::__ndk1::char_traits<char>, std::__ndk1::allocator<char> >::~basic_stringstream()
PUBLIC 110d8 0 geode::UnwrapException::~UnwrapException()
PUBLIC 110fc 0 std::__ndk1::__put_character_sequence[abi:ne180000]<char, std::__ndk1::char_traits<char> >(std::__ndk1::basic_ostream<char, std::__ndk1::char_traits<char> >, std::__ndk1::basic_ostream const*, unsigned long)
PUBLIC 112a0 0 std::__ndk1::__pad_and_output[abi:ne180000]<char, std::__ndk1::char_traits<char> >(std::__ndk1::char_traits<char>, std::__ndk1::ostreambuf_iterator const*, std::__ndk1::ostreambuf_iterator const, std::__ndk1::ostreambuf_iterator const, std::__ndk1::ios_base&, std::__ndk1::ostreambuf_iterator)
PUBLIC 1147c 0 std::__ndk1::basic_string<char, std::__ndk1::char_traits<char>, std::__ndk1::allocator<char> >::__throw_length_error[abi:ne180000]() const
PUBLIC 11490 0 std::__ndk1::__throw_length_error[abi:ne180000](char const*)
PUBLIC 114e0 0 std::length_error::length_error[abi:ne180000](char const*)
PUBLIC 11510 0 std::__throw_bad_array_new_length([abi:ne180000], void)
PUBLIC 11544 0 std::__ndk1::basic_stringbuf<char, std::__ndk1::char_traits<char>, std::__ndk1::allocator<char> >::str[abi:ne180000]() &&
PUBLIC 116bc 0 std::__ndk1::basic_stringbuf<char, std::__ndk1::char_traits<char>, std::__ndk1::allocator<char> >::__init_buf_ptrs[abi:ne180000]()
PUBLIC 11804 0 std::__ndk1::vector<std::__ndk1::basic_string<char, std::__ndk1::char_traits<char>, std::__ndk1::allocator<char> >, std::__ndk1::allocator<std::__ndk1::basic_string<char, std::__ndk1::char_traits<char>, std::__ndk1::allocator<char> > > >::__push_back_slow_path<std::__ndk1::basic_string<char, std::__ndk1::char_traits<char>, std::__ndk1::allocator<char> > const&>(std::__ndk1::basic_string<char, std::__ndk1::char_traits<char>, std::__ndk1::allocator<char> > const&)
PUBLIC 11a2c 0 std::__ndk1::basic_string<char, std::__ndk1::char_traits<char>, std::__ndk1::allocator<char> >::__init_copy_ctor_external(char const*, unsigned long)
PUBLIC 11aac 0 std::__ndk1::__split_buffer<std::__ndk1::basic_string<char, std::__ndk1::char_traits<char>, std::__ndk1::allocator<char> >, std::__ndk1::allocator<std::__ndk1::basic_string<char, std::__ndk1::char_traits<char>, std::__ndk1::allocator<char> > >&>::~__split_buffer()
PUBLIC 11b14 0 std::__ndk1::vector<std::__ndk1::basic_string<char, std::__ndk1::char_traits<char>, std::__ndk1::allocator<char> >, std::__ndk1::allocator<std::__ndk1::basic_string<char, std::__ndk1::char_traits<char>, std::__ndk1::allocator<char> > > >::__throw_length_error[abi:ne180000]() const
PUBLIC 11b28 0 std::__ndk1::__variant_detail::__visitation::__base::__dispatcher<(unsigned long)0>::__dispatch[abi:ne180000]<std::__ndk1::__variant_detail::__dtor<std::__ndk1::__variant_detail::__traits<geode::Hook*, std::__ndk1::basic_string<char, std::__ndk1::char_traits<char>, std::__ndk1::allocator<char> > >, (std::__ndk1::__variant_detail::_Trait)1>::__destroy[abi:ne180000]()::{lambda(auto:1&)#1}, std::__ndk1::__variant_detail::__base<(std::__ndk1::__variant_detail::__traits<geode::Hook*, std::__ndk1::basic_string<char, std::__ndk1::char_traits<char>, std::__ndk1::allocator<char> > >)1, geode::Hook, std::__ndk1::allocator<char> >&>(std::__ndk1::__variant_detail::__dtor<std::__ndk1::__variant_detail::__traits<geode::Hook*, std::__ndk1::basic_string<char, std::__ndk1::char_traits<char>, std::__ndk1::allocator<char> > >, (std::__ndk1::__variant_detail::_Trait)1>, std::__ndk1::__variant_detail::__base<(std::__ndk1::__variant_detail::__traits<geode::Hook*, std::__ndk1::basic_string<char, std::__ndk1::char_traits<char>, std::__ndk1::allocator<char> > >)1, geode::Hook, std::__ndk1::allocator<char> >&)
PUBLIC 11b2c 0 std::__ndk1::__variant_detail::__visitation::__base::__dispatcher<(unsigned long)1>::__dispatch[abi:ne180000]<std::__ndk1::__variant_detail::__dtor<std::__ndk1::__variant_detail::__traits<geode::Hook*, std::__ndk1::basic_string<char, std::__ndk1::char_traits<char>, std::__ndk1::allocator<char> > >, (std::__ndk1::__variant_detail::_Trait)1>::__destroy[abi:ne180000]()::{lambda(auto:1&)#1}, std::__ndk1::__variant_detail::__base<(std::__ndk1::__variant_detail::__traits<geode::Hook*, std::__ndk1::basic_string<char, std::__ndk1::char_traits<char>, std::__ndk1::allocator<char> > >)1, geode::Hook, std::__ndk1::allocator<char> >&>(std::__ndk1::__variant_detail::__dtor<std::__ndk1::__variant_detail::__traits<geode::Hook*, std::__ndk1::basic_string<char, std::__ndk1::char_traits<char>, std::__ndk1::allocator<char> > >, (std::__ndk1::__variant_detail::_Trait)1>, std::__ndk1::__variant_detail::__base<(std::__ndk1::__variant_detail::__traits<geode::Hook*, std::__ndk1::basic_string<char, std::__ndk1::char_traits<char>, std::__ndk1::allocator<char> > >)1, geode::Hook, std::__ndk1::allocator<char> >&)
PUBLIC 11b40 0 std::__ndk1::__tree<std::__ndk1::__value_type<std::__ndk1::basic_string<char, std::__ndk1::char_traits<char>, std::__ndk1::allocator<char> >, std::__ndk1::shared_ptr<geode::Hook> >, std::__ndk1::__map_value_compare<std::__ndk1::basic_string<char, std::__ndk1::char_traits<char>, std::__ndk1::allocator<char> >, std::__ndk1::__value_type<std::__ndk1::basic_string<char, std::__ndk1::char_traits<char>, std::__ndk1::allocator<char> >, std::__ndk1::shared_ptr<geode::Hook> >, std::__ndk1::less<std::__ndk1::basic_string<char, std::__ndk1::char_traits<char>, std::__ndk1::allocator<char> > >, true>, std::__ndk1::allocator<std::__ndk1::__value_type<std::__ndk1::basic_string<char, std::__ndk1::char_traits<char>, std::__ndk1::allocator<char> >, std::__ndk1::shared_ptr<geode::Hook> > > >::destroy(std::__ndk1::__tree_node<std::__ndk1::__value_type<std::__ndk1::basic_string<char, std::__ndk1::char_traits<char>, std::__ndk1::allocator<char> >, std::__ndk1::shared_ptr<geode::Hook> >, void*>*)
PUBLIC 11bc4 0 geode::modifier::AsStaticFunction_init<hook11<(anonymous namespace)::hook11Parent>, bool (hook11<(anonymous namespace)::hook11Parent>::*)()>::Impl<bool (hook11<(anonymous namespace)::hook11Parent>::*)()>::function(hook11<(anonymous namespace)::hook11Parent>*)
PUBLIC 11dc0 0 geode::Hook::create<void (*)(hook11<(anonymous namespace)::hook11Parent>*)>(void*, void (*)(hook11<(anonymous namespace)::hook11Parent>*), std::__ndk1::basic_string<char, std::__ndk1::char_traits<char>, std::__ndk1::allocator<char> > const&, tulip::hook::TulipConvention, tulip::hook::HookMetadata const&)
PUBLIC 11ef4 0 geode::modifier::AsStaticFunction_destroyPlayer<hook11<(anonymous namespace)::hook11Parent>, void (hook11<(anonymous namespace)::hook11Parent>::*)()>::Impl<void (hook11<(anonymous namespace)::hook11Parent>::*)()>::function(hook11<(anonymous namespace)::hook11Parent>*)
PUBLIC 12650 0 geode::modifier::AsStaticFunction_resetPlayer<hook11<(anonymous namespace)::hook11Parent>, void (hook11<(anonymous namespace)::hook11Parent>::*)()>::Impl<void (hook11<(anonymous namespace)::hook11Parent>::*)()>::function(hook11<(anonymous namespace)::hook11Parent>*)
PUBLIC 12690 0 geode::addresser::Addresser::addressOfVirtual<bool, MenuGameLayer, >(bool (MenuGameLayer::*)())
PUBLIC 12738 0 MenuGameLayer::MenuGameLayer(geode::ZeroConstructorType)
PUBLIC 127d0 0 cocos2d::CCCopying::copyWithZone(cocos2d::CCZone*)
PUBLIC 127d8 0 std::__ndk1::shared_ptr<tulip::hook::CallingConvention>::~shared_ptr[abi:ne180000]()
PUBLIC 12828 0 tulip::hook::HandlerMetadata::~HandlerMetadata()
PUBLIC 1288c 0 geode::modifier::FieldIntermediate<hook11<(anonymous namespace)::hook11Parent>, MenuGameLayer>::operator->()
PUBLIC 12ec0 0 IconDialogLabel::~IconDialogLabel()
PUBLIC 12f14 0 IconDialogLabel::~IconDialogLabel()
PUBLIC 12f6c 0 IconDialogLabel::update(float)
PUBLIC 13240 0 cocos2d::CCSequence::create(cocos2d::CCFiniteTimeAction*, ...)
PUBLIC 132d8 0 geode::modifier::FieldIntermediate<hook11<(anonymous namespace)::hook11Parent>, MenuGameLayer>::fieldDestructor(void*)
PUBLIC 132dc 0 std::__ndk1::vector<void*, std::__ndk1::allocator<void*> >::__throw_length_error[abi:ne180000]() const
PUBLIC 132f0 0 std::__ndk1::vector<std::__ndk1::function<void (void*)>, std::__ndk1::allocator<std::__ndk1::function<void (void*)> > >::__throw_length_error[abi:ne180000]() const
PUBLIC 13304 0 std::__ndk1::vector<void*, std::__ndk1::allocator<void*> >::__throw_out_of_range[abi:ne180000]() const
PUBLIC 13310 0 std::__ndk1::__throw_out_of_range[abi:ne180000](char const*)
PUBLIC 13360 0 std::out_of_range::out_of_range[abi:ne180000](char const*)
PUBLIC 13390 0 std::__ndk1::vector<std::__ndk1::function<void (void*)>, std::__ndk1::allocator<std::__ndk1::function<void (void*)> > >::__throw_out_of_range[abi:ne180000]() const
PUBLIC 1339c 0 std::__ndk1::__function::__base<void (void*)>::~__base()
PUBLIC 133a0 0 std::__ndk1::__function::__func<void (*)(void*), std::__ndk1::allocator<void (*)(void*)>, void (void*)>::~__func()
PUBLIC 133a4 0 std::__ndk1::__function::__func<void (*)(void*), std::__ndk1::allocator<void (*)(void*)>, void (void*)>::__clone() const
PUBLIC 133dc 0 std::__ndk1::__function::__func<void (*)(void*), std::__ndk1::allocator<void (*)(void*)>, void (void*)>::__clone(std::__ndk1::__function::__base<void (void*)>*) const
PUBLIC 133f4 0 std::__ndk1::__function::__func<void (*)(void*), std::__ndk1::allocator<void (*)(void*)>, void (void*)>::destroy()
PUBLIC 133f8 0 std::__ndk1::__function::__func<void (*)(void*), std::__ndk1::allocator<void (*)(void*)>, void (void*)>::destroy_deallocate()
PUBLIC 133fc 0 std::__ndk1::__function::__func<void (*)(void*), std::__ndk1::allocator<void (*)(void*)>, void (void*)>::operator()(void*&&)
PUBLIC 1340c 0 std::__ndk1::__function::__func<void (*)(void*), std::__ndk1::allocator<void (*)(void*)>, void (void*)>::target(std::type_info const&) const
PUBLIC 13428 0 std::__ndk1::__function::__func<void (*)(void*), std::__ndk1::allocator<void (*)(void*)>, void (void*)>::target_type() const
PUBLIC 13434 0 std::__ndk1::__tree<std::__ndk1::__value_type<std::__ndk1::basic_string<char, std::__ndk1::char_traits<char>, std::__ndk1::allocator<char> >, std::__ndk1::shared_ptr<geode::Hook> >, std::__ndk1::__map_value_compare<std::__ndk1::basic_string<char, std::__ndk1::char_traits<char>, std::__ndk1::allocator<char> >, std::__ndk1::__value_type<std::__ndk1::basic_string<char, std::__ndk1::char_traits<char>, std::__ndk1::allocator<char> >, std::__ndk1::shared_ptr<geode::Hook> >, std::__ndk1::less<std::__ndk1::basic_string<char, std::__ndk1::char_traits<char>, std::__ndk1::allocator<char> > >, true>, std::__ndk1::allocator<std::__ndk1::__value_type<std::__ndk1::basic_string<char, std::__ndk1::char_traits<char>, std::__ndk1::allocator<char> >, std::__ndk1::shared_ptr<geode::Hook> > > >::__emplace_unique_key_args<std::__ndk1::basic_string<char, std::__ndk1::char_traits<char>, std::__ndk1::allocator<char> >, std::__ndk1::piecewise_construct_t const&, std::__ndk1::tuple<std::__ndk1::basic_string<char, std::__ndk1::char_traits<char>, std::__ndk1::allocator<char> >&&>, std::__ndk1::tuple<> >(std::__ndk1::basic_string<char, std::__ndk1::char_traits<char>, std::__ndk1::allocator<char> > const&, std::__ndk1::piecewise_construct_t const&, std::__ndk1::tuple<std::__ndk1::basic_string<char, std::__ndk1::char_traits<char>, std::__ndk1::allocator<char> >&&>, std::__ndk1::tuple<>)
PUBLIC 1359c 0 std::__ndk1::__tree_balance_after_insert[abi:ne180000]<std::__ndk1::__tree_node_base<void*>*>(std::__ndk1::__tree_node_base<void*>*, std::__ndk1::__tree_node_base<void*>*)
PUBLIC 1374c 0 IconDialogPopup::~IconDialogPopup()
PUBLIC 1378c 0 IconDialogPopup::~IconDialogPopup()
PUBLIC 137d0 0 std::__ndk1::basic_string<char, std::__ndk1::char_traits<char>, std::__ndk1::allocator<char> >::__assign_external(char const*, unsigned long)
PUBLIC 138f8 0 std::__ndk1::basic_string<char, std::__ndk1::char_traits<char>, std::__ndk1::allocator<char> >::__assign_external(char const*)
PUBLIC 1392c 0 geode::EventListener<geode::ModStateFilter>::getPool() const
PUBLIC 13930 0 geode::EventListener<geode::ModStateFilter>::handle(geode::Event*)
PUBLIC 13aa4 0 geode::EventListener<geode::ModStateFilter>::~EventListener()
PUBLIC 13b00 0 geode::EventListener<geode::ModStateFilter>::~EventListener()
PUBLIC 13b64 0 std::__ndk1::__function::__base<void (geode::ModStateEvent*)>::~__base()
PUBLIC 13b68 0 std::__ndk1::__function::__func<void (*)(geode::ModStateEvent*), std::__ndk1::allocator<void (*)(geode::ModStateEvent*)>, void (geode::ModStateEvent*)>::~__func()
PUBLIC 13b6c 0 std::__ndk1::__function::__func<void (*)(geode::ModStateEvent*), std::__ndk1::allocator<void (*)(geode::ModStateEvent*)>, void (geode::ModStateEvent*)>::__clone() const
PUBLIC 13ba0 0 std::__ndk1::__function::__func<void (*)(geode::ModStateEvent*), std::__ndk1::allocator<void (*)(geode::ModStateEvent*)>, void (geode::ModStateEvent*)>::__clone(std::__ndk1::__function::__base<void (geode::ModStateEvent*)>*) const
PUBLIC 13bb4 0 std::__ndk1::__function::__func<void (*)(geode::ModStateEvent*), std::__ndk1::allocator<void (*)(geode::ModStateEvent*)>, void (geode::ModStateEvent*)>::destroy()
PUBLIC 13bb8 0 std::__ndk1::__function::__func<void (*)(geode::ModStateEvent*), std::__ndk1::allocator<void (*)(geode::ModStateEvent*)>, void (geode::ModStateEvent*)>::destroy_deallocate()
PUBLIC 13bbc 0 std::__ndk1::__function::__func<void (*)(geode::ModStateEvent*), std::__ndk1::allocator<void (*)(geode::ModStateEvent*)>, void (geode::ModStateEvent*)>::operator()(geode::ModStateEvent*&&)
PUBLIC 13bcc 0 std::__ndk1::__function::__func<void (*)(geode::ModStateEvent*), std::__ndk1::allocator<void (*)(geode::ModStateEvent*)>, void (geode::ModStateEvent*)>::target(std::type_info const&) const
PUBLIC 13be8 0 std::__ndk1::__function::__func<void (*)(geode::ModStateEvent*), std::__ndk1::allocator<void (*)(geode::ModStateEvent*)>, void (geode::ModStateEvent*)>::target_type() const
PUBLIC 13bf4 0 geode::cast::traverseTypeinfoFor(void*, geode::cast::ClassTypeinfoType const*, char const*)
PUBLIC 13cf8 0 std::__ndk1::vector<std::__ndk1::basic_string<char, std::__ndk1::char_traits<char>, std::__ndk1::allocator<char> >, std::__ndk1::allocator<std::__ndk1::basic_string<char, std::__ndk1::char_traits<char>, std::__ndk1::allocator<char> > > >::vector[abi:ne180000](std::initializer_list<std::__ndk1::basic_string<char, std::__ndk1::char_traits<char>, std::__ndk1::allocator<char> > >)
PUBLIC 13e50 0 geode::Task<geode::utils::web::WebResponse, geode::utils::web::WebProgress>::~Task()
PUBLIC 13ea0 0 geode::EventListener<geode::Task<geode::utils::web::WebResponse, geode::utils::web::WebProgress> >::~EventListener()
PUBLIC 13f3c 0 PhrasesLoader::loadPhrases()
PUBLIC 14274 0 std::__ndk1::__exception_guard_exceptions<std::__ndk1::vector<std::__ndk1::basic_string<char, std::__ndk1::char_traits<char>, std::__ndk1::allocator<char> >, std::__ndk1::allocator<std::__ndk1::basic_string<char, std::__ndk1::char_traits<char>, std::__ndk1::allocator<char> > > >::__destroy_vector>::~__exception_guard_exceptions[abi:ne180000]()
PUBLIC 14300 0 std::__ndk1::__exception_guard_exceptions<std::__ndk1::_AllocatorDestroyRangeReverse<std::__ndk1::allocator<std::__ndk1::basic_string<char, std::__ndk1::char_traits<char>, std::__ndk1::allocator<char> > >, std::__ndk1::basic_string<char, std::__ndk1::char_traits<char>, std::__ndk1::allocator<char> >*> >::~__exception_guard_exceptions[abi:ne180000]()
PUBLIC 14360 0 geode::EventListener<geode::Task<geode::utils::web::WebResponse, geode::utils::web::WebProgress> >::getPool() const
PUBLIC 14364 0 geode::EventListener<geode::Task<geode::utils::web::WebResponse, geode::utils::web::WebProgress> >::handle(geode::Event*)
PUBLIC 14530 0 geode::EventListener<geode::Task<geode::utils::web::WebResponse, geode::utils::web::WebProgress> >::~EventListener()
PUBLIC 145d4 0 std::__ndk1::__throw_bad_function_call[abi:ne180000]()
PUBLIC 14608 0 std::__ndk1::bad_function_call::~bad_function_call()
PUBLIC 1462c 0 geode::Task<geode::utils::web::WebResponse, geode::utils::web::WebProgress>::setListener(geode::EventListenerProtocol*)
PUBLIC 14830 0 geode::Task<geode::utils::web::WebResponse, geode::utils::web::WebProgress>::setListener(geode::EventListenerProtocol*)::{lambda()#1}::~{lambda()#1}()
PUBLIC 14880 0 geode::Task<geode::utils::web::WebResponse, geode::utils::web::WebProgress>::setListener(geode::EventListenerProtocol*)::{lambda()#2}::~{lambda()#2}()
PUBLIC 148d0 0 std::__ndk1::__function::__func<geode::Task<geode::utils::web::WebResponse, geode::utils::web::WebProgress>::setListener(geode::EventListenerProtocol*)::{lambda()#1}, std::__ndk1::allocator<geode::Task<geode::utils::web::WebResponse, geode::utils::web::WebProgress>::setListener(geode::EventListenerProtocol*)::{lambda()#1}>, void ()>::~__func()
PUBLIC 1492c 0 std::__ndk1::__function::__func<geode::Task<geode::utils::web::WebResponse, geode::utils::web::WebProgress>::setListener(geode::EventListenerProtocol*)::{lambda()#1}, std::__ndk1::allocator<geode::Task<geode::utils::web::WebResponse, geode::utils::web::WebProgress>::setListener(geode::EventListenerProtocol*)::{lambda()#1}>, void ()>::~__func()
PUBLIC 14998 0 std::__ndk1::__function::__func<geode::Task<geode::utils::web::WebResponse, geode::utils::web::WebProgress>::setListener(geode::EventListenerProtocol*)::{lambda()#1}, std::__ndk1::allocator<geode::Task<geode::utils::web::WebResponse, geode::utils::web::WebProgress>::setListener(geode::EventListenerProtocol*)::{lambda()#1}>, void ()>::__clone() const
PUBLIC 149f0 0 std::__ndk1::__function::__func<geode::Task<geode::utils::web::WebResponse, geode::utils::web::WebProgress>::setListener(geode::EventListenerProtocol*)::{lambda()#1}, std::__ndk1::allocator<geode::Task<geode::utils::web::WebResponse, geode::utils::web::WebProgress>::setListener(geode::EventListenerProtocol*)::{lambda()#1}>, void ()>::__clone(std::__ndk1::__function::__base<void ()>*) const
PUBLIC 14a3c 0 std::__ndk1::__function::__func<geode::Task<geode::utils::web::WebResponse, geode::utils::web::WebProgress>::setListener(geode::EventListenerProtocol*)::{lambda()#1}, std::__ndk1::allocator<geode::Task<geode::utils::web::WebResponse, geode::utils::web::WebProgress>::setListener(geode::EventListenerProtocol*)::{lambda()#1}>, void ()>::destroy()
PUBLIC 14a8c 0 std::__ndk1::__function::__func<geode::Task<geode::utils::web::WebResponse, geode::utils::web::WebProgress>::setListener(geode::EventListenerProtocol*)::{lambda()#1}, std::__ndk1::allocator<geode::Task<geode::utils::web::WebResponse, geode::utils::web::WebProgress>::setListener(geode::EventListenerProtocol*)::{lambda()#1}>, void ()>::destroy_deallocate()
PUBLIC 14aec 0 std::__ndk1::__function::__func<geode::Task<geode::utils::web::WebResponse, geode::utils::web::WebProgress>::setListener(geode::EventListenerProtocol*)::{lambda()#1}, std::__ndk1::allocator<geode::Task<geode::utils::web::WebResponse, geode::utils::web::WebProgress>::setListener(geode::EventListenerProtocol*)::{lambda()#1}>, void ()>::operator()()
PUBLIC 14cbc 0 std::__ndk1::__function::__func<geode::Task<geode::utils::web::WebResponse, geode::utils::web::WebProgress>::setListener(geode::EventListenerProtocol*)::{lambda()#1}, std::__ndk1::allocator<geode::Task<geode::utils::web::WebResponse, geode::utils::web::WebProgress>::setListener(geode::EventListenerProtocol*)::{lambda()#1}>, void ()>::target(std::type_info const&) const
PUBLIC 14cd8 0 std::__ndk1::__function::__func<geode::Task<geode::utils::web::WebResponse, geode::utils::web::WebProgress>::setListener(geode::EventListenerProtocol*)::{lambda()#1}, std::__ndk1::allocator<geode::Task<geode::utils::web::WebResponse, geode::utils::web::WebProgress>::setListener(geode::EventListenerProtocol*)::{lambda()#1}>, void ()>::target_type() const
PUBLIC 14ce4 0 geode::Task<geode::utils::web::WebResponse, geode::utils::web::WebProgress>::Event::~Event()
PUBLIC 14d44 0 geode::Task<geode::utils::web::WebResponse, geode::utils::web::WebProgress>::Event::~Event()
PUBLIC 14db4 0 std::__ndk1::__function::__func<geode::Task<geode::utils::web::WebResponse, geode::utils::web::WebProgress>::setListener(geode::EventListenerProtocol*)::{lambda()#2}, std::__ndk1::allocator<geode::Task<geode::utils::web::WebResponse, geode::utils::web::WebProgress>::setListener(geode::EventListenerProtocol*)::{lambda()#2}>, void ()>::~__func()
PUBLIC 14e10 0 std::__ndk1::__function::__func<geode::Task<geode::utils::web::WebResponse, geode::utils::web::WebProgress>::setListener(geode::EventListenerProtocol*)::{lambda()#2}, std::__ndk1::allocator<geode::Task<geode::utils::web::WebResponse, geode::utils::web::WebProgress>::setListener(geode::EventListenerProtocol*)::{lambda()#2}>, void ()>::~__func()
PUBLIC 14e7c 0 std::__ndk1::__function::__func<geode::Task<geode::utils::web::WebResponse, geode::utils::web::WebProgress>::setListener(geode::EventListenerProtocol*)::{lambda()#2}, std::__ndk1::allocator<geode::Task<geode::utils::web::WebResponse, geode::utils::web::WebProgress>::setListener(geode::EventListenerProtocol*)::{lambda()#2}>, void ()>::__clone() const
PUBLIC 14ed4 0 std::__ndk1::__function::__func<geode::Task<geode::utils::web::WebResponse, geode::utils::web::WebProgress>::setListener(geode::EventListenerProtocol*)::{lambda()#2}, std::__ndk1::allocator<geode::Task<geode::utils::web::WebResponse, geode::utils::web::WebProgress>::setListener(geode::EventListenerProtocol*)::{lambda()#2}>, void ()>::__clone(std::__ndk1::__function::__base<void ()>*) const
PUBLIC 14f20 0 std::__ndk1::__function::__func<geode::Task<geode::utils::web::WebResponse, geode::utils::web::WebProgress>::setListener(geode::EventListenerProtocol*)::{lambda()#2}, std::__ndk1::allocator<geode::Task<geode::utils::web::WebResponse, geode::utils::web::WebProgress>::setListener(geode::EventListenerProtocol*)::{lambda()#2}>, void ()>::destroy()
PUBLIC 14f70 0 std::__ndk1::__function::__func<geode::Task<geode::utils::web::WebResponse, geode::utils::web::WebProgress>::setListener(geode::EventListenerProtocol*)::{lambda()#2}, std::__ndk1::allocator<geode::Task<geode::utils::web::WebResponse, geode::utils::web::WebProgress>::setListener(geode::EventListenerProtocol*)::{lambda()#2}>, void ()>::destroy_deallocate()
PUBLIC 14fd0 0 std::__ndk1::__function::__func<geode::Task<geode::utils::web::WebResponse, geode::utils::web::WebProgress>::setListener(geode::EventListenerProtocol*)::{lambda()#2}, std::__ndk1::allocator<geode::Task<geode::utils::web::WebResponse, geode::utils::web::WebProgress>::setListener(geode::EventListenerProtocol*)::{lambda()#2}>, void ()>::operator()()
PUBLIC 15194 0 std::__ndk1::__function::__func<geode::Task<geode::utils::web::WebResponse, geode::utils::web::WebProgress>::setListener(geode::EventListenerProtocol*)::{lambda()#2}, std::__ndk1::allocator<geode::Task<geode::utils::web::WebResponse, geode::utils::web::WebProgress>::setListener(geode::EventListenerProtocol*)::{lambda()#2}>, void ()>::target(std::type_info const&) const
PUBLIC 151b0 0 std::__ndk1::__function::__func<geode::Task<geode::utils::web::WebResponse, geode::utils::web::WebProgress>::setListener(geode::EventListenerProtocol*)::{lambda()#2}, std::__ndk1::allocator<geode::Task<geode::utils::web::WebResponse, geode::utils::web::WebProgress>::setListener(geode::EventListenerProtocol*)::{lambda()#2}>, void ()>::target_type() const
PUBLIC 151bc 0 std::__ndk1::__function::__value_func<void (geode::Task<geode::utils::web::WebResponse, geode::utils::web::WebProgress>::Event*)>::swap[abi:ne180000](std::__ndk1::__function::__value_func<void (geode::Task<geode::utils::web::WebResponse, geode::utils::web::WebProgress>::Event*)>&)
PUBLIC 15354 0 std::__ndk1::__function::__func<PhrasesLoader::loadPhrases()::$_0, std::__ndk1::allocator<PhrasesLoader::loadPhrases()::$_0>, void (geode::Task<geode::utils::web::WebResponse, geode::utils::web::WebProgress>::Event*)>::~__func()
PUBLIC 15358 0 std::__ndk1::__function::__func<PhrasesLoader::loadPhrases()::$_0, std::__ndk1::allocator<PhrasesLoader::loadPhrases()::$_0>, void (geode::Task<geode::utils::web::WebResponse, geode::utils::web::WebProgress>::Event*)>::__clone() const
PUBLIC 1537c 0 std::__ndk1::__function::__func<PhrasesLoader::loadPhrases()::$_0, std::__ndk1::allocator<PhrasesLoader::loadPhrases()::$_0>, void (geode::Task<geode::utils::web::WebResponse, geode::utils::web::WebProgress>::Event*)>::__clone(std::__ndk1::__function::__base<void (geode::Task<geode::utils::web::WebResponse, geode::utils::web::WebProgress>::Event*)>*) const
PUBLIC 1538c 0 std::__ndk1::__function::__func<PhrasesLoader::loadPhrases()::$_0, std::__ndk1::allocator<PhrasesLoader::loadPhrases()::$_0>, void (geode::Task<geode::utils::web::WebResponse, geode::utils::web::WebProgress>::Event*)>::destroy()
PUBLIC 15390 0 std::__ndk1::__function::__func<PhrasesLoader::loadPhrases()::$_0, std::__ndk1::allocator<PhrasesLoader::loadPhrases()::$_0>, void (geode::Task<geode::utils::web::WebResponse, geode::utils::web::WebProgress>::Event*)>::destroy_deallocate()
PUBLIC 15394 0 std::__ndk1::__function::__func<PhrasesLoader::loadPhrases()::$_0, std::__ndk1::allocator<PhrasesLoader::loadPhrases()::$_0>, void (geode::Task<geode::utils::web::WebResponse, geode::utils::web::WebProgress>::Event*)>::operator()(geode::Task<geode::utils::web::WebResponse, geode::utils::web::WebProgress>::Event*&&)
PUBLIC 1553c 0 std::__ndk1::__function::__func<PhrasesLoader::loadPhrases()::$_0, std::__ndk1::allocator<PhrasesLoader::loadPhrases()::$_0>, void (geode::Task<geode::utils::web::WebResponse, geode::utils::web::WebProgress>::Event*)>::target(std::type_info const&) const
PUBLIC 15558 0 std::__ndk1::__function::__func<PhrasesLoader::loadPhrases()::$_0, std::__ndk1::allocator<PhrasesLoader::loadPhrases()::$_0>, void (geode::Task<geode::utils::web::WebResponse, geode::utils::web::WebProgress>::Event*)>::target_type() const
PUBLIC 15564 0 PhrasesLoader::split(std::__ndk1::basic_string<char, std::__ndk1::char_traits<char>, std::__ndk1::allocator<char> > const&, char)
PUBLIC 15ab4 0 geode::impl::ResultData<std::__ndk1::basic_string<char, std::__ndk1::char_traits<char>, std::__ndk1::allocator<char> >, std::__ndk1::basic_string<char, std::__ndk1::char_traits<char>, std::__ndk1::allocator<char> > >::~ResultData()
PUBLIC m 15b28 0 std::__ndk1::basic_istringstream<char, std::__ndk1::char_traits<char>, std::__ndk1::allocator<char> >::~basic_istringstream()
PUBLIC 15ba4 0 std::__ndk1::basic_string<char, std::__ndk1::char_traits<char>, std::__ndk1::allocator<char> >::__assign_no_alias<true>(char const*, unsigned long)
PUBLIC 15c50 0 std::__ndk1::__variant_detail::__visitation::__base::__dispatcher<(unsigned long)0>::__dispatch[abi:ne180000]<std::__ndk1::__variant_detail::__dtor<std::__ndk1::__variant_detail::__traits<std::__ndk1::basic_string<char, std::__ndk1::char_traits<char>, std::__ndk1::allocator<char> >, std::__ndk1::allocator<char> >, (std::__ndk1::__variant_detail::_Trait)1>::__destroy[abi:ne180000]()::{lambda(auto:1&)#1}, std::__ndk1::__variant_detail::__base<(std::__ndk1::__variant_detail::__traits<std::__ndk1::basic_string<char, std::__ndk1::char_traits<char>, std::__ndk1::allocator<char> >, std::__ndk1::allocator<char> >)1, std::__ndk1::allocator<char>, std::__ndk1::allocator<char> >&>(std::__ndk1::__variant_detail::__dtor<std::__ndk1::__variant_detail::__traits<std::__ndk1::basic_string<char, std::__ndk1::char_traits<char>, std::__ndk1::allocator<char> >, std::__ndk1::allocator<char> >, (std::__ndk1::__variant_detail::_Trait)1>, std::__ndk1::__variant_detail::__base<(std::__ndk1::__variant_detail::__traits<std::__ndk1::basic_string<char, std::__ndk1::char_traits<char>, std::__ndk1::allocator<char> >, std::__ndk1::allocator<char> >)1, std::__ndk1::allocator<char>, std::__ndk1::allocator<char> >&)
PUBLIC 15c64 0 std::__ndk1::__variant_detail::__visitation::__base::__dispatcher<(unsigned long)1>::__dispatch[abi:ne180000]<std::__ndk1::__variant_detail::__dtor<std::__ndk1::__variant_detail::__traits<std::__ndk1::basic_string<char, std::__ndk1::char_traits<char>, std::__ndk1::allocator<char> >, std::__ndk1::allocator<char> >, (std::__ndk1::__variant_detail::_Trait)1>::__destroy[abi:ne180000]()::{lambda(auto:1&)#1}, std::__ndk1::__variant_detail::__base<(std::__ndk1::__variant_detail::__traits<std::__ndk1::basic_string<char, std::__ndk1::char_traits<char>, std::__ndk1::allocator<char> >, std::__ndk1::allocator<char> >)1, std::__ndk1::allocator<char>, std::__ndk1::allocator<char> >&>(std::__ndk1::__variant_detail::__dtor<std::__ndk1::__variant_detail::__traits<std::__ndk1::basic_string<char, std::__ndk1::char_traits<char>, std::__ndk1::allocator<char> >, std::__ndk1::allocator<char> >, (std::__ndk1::__variant_detail::_Trait)1>, std::__ndk1::__variant_detail::__base<(std::__ndk1::__variant_detail::__traits<std::__ndk1::basic_string<char, std::__ndk1::char_traits<char>, std::__ndk1::allocator<char> >, std::__ndk1::allocator<char> >)1, std::__ndk1::allocator<char>, std::__ndk1::allocator<char> >&)
PUBLIC 15c78 0 std::__ndk1::__function::__base<void (geode::Task<geode::utils::web::WebResponse, geode::utils::web::WebProgress>::Event*)>::~__base()
PUBLIC 15c7c 0 std::__ndk1::__function::__func<PhrasesLoader::loadPhrases()::$_1, std::__ndk1::allocator<PhrasesLoader::loadPhrases()::$_1>, void (geode::Task<geode::utils::web::WebResponse, geode::utils::web::WebProgress>::Event*)>::~__func()
PUBLIC 15c80 0 std::__ndk1::__function::__func<PhrasesLoader::loadPhrases()::$_1, std::__ndk1::allocator<PhrasesLoader::loadPhrases()::$_1>, void (geode::Task<geode::utils::web::WebResponse, geode::utils::web::WebProgress>::Event*)>::__clone() const
PUBLIC 15ca4 0 std::__ndk1::__function::__func<PhrasesLoader::loadPhrases()::$_1, std::__ndk1::allocator<PhrasesLoader::loadPhrases()::$_1>, void (geode::Task<geode::utils::web::WebResponse, geode::utils::web::WebProgress>::Event*)>::__clone(std::__ndk1::__function::__base<void (geode::Task<geode::utils::web::WebResponse, geode::utils::web::WebProgress>::Event*)>*) const
PUBLIC 15cb4 0 std::__ndk1::__function::__func<PhrasesLoader::loadPhrases()::$_1, std::__ndk1::allocator<PhrasesLoader::loadPhrases()::$_1>, void (geode::Task<geode::utils::web::WebResponse, geode::utils::web::WebProgress>::Event*)>::destroy()
PUBLIC 15cb8 0 std::__ndk1::__function::__func<PhrasesLoader::loadPhrases()::$_1, std::__ndk1::allocator<PhrasesLoader::loadPhrases()::$_1>, void (geode::Task<geode::utils::web::WebResponse, geode::utils::web::WebProgress>::Event*)>::destroy_deallocate()
PUBLIC 15cbc 0 std::__ndk1::__function::__func<PhrasesLoader::loadPhrases()::$_1, std::__ndk1::allocator<PhrasesLoader::loadPhrases()::$_1>, void (geode::Task<geode::utils::web::WebResponse, geode::utils::web::WebProgress>::Event*)>::operator()(geode::Task<geode::utils::web::WebResponse, geode::utils::web::WebProgress>::Event*&&)
PUBLIC 15e64 0 std::__ndk1::__function::__func<PhrasesLoader::loadPhrases()::$_1, std::__ndk1::allocator<PhrasesLoader::loadPhrases()::$_1>, void (geode::Task<geode::utils::web::WebResponse, geode::utils::web::WebProgress>::Event*)>::target(std::type_info const&) const
PUBLIC 15e80 0 std::__ndk1::__function::__func<PhrasesLoader::loadPhrases()::$_1, std::__ndk1::allocator<PhrasesLoader::loadPhrases()::$_1>, void (geode::Task<geode::utils::web::WebResponse, geode::utils::web::WebProgress>::Event*)>::target_type() const
PUBLIC 15e8c 0 _GLOBAL__sub_I_PhrasesLoader.cpp
PUBLIC m 16608 0 geodeImplicitEntry
PUBLIC 16644 0 std::__ndk1::unordered_map<void*, bool, std::__ndk1::hash<void*>, std::__ndk1::equal_to<void*>, std::__ndk1::allocator<std::__ndk1::pair<void* const, bool> > >::~unordered_map[abi:ne180000]()
PUBLIC 16690 0 wrapFunction(unsigned long, tulip::hook::WrapperMetadata const&)
PUBLIC 167c4 0 geode::impl::ResultData<void*, std::__ndk1::basic_string<char, std::__ndk1::char_traits<char>, std::__ndk1::allocator<char> > >::unwrapErr() &
PUBLIC 1683c 0 geode::impl::ResultData<void*, std::__ndk1::basic_string<char, std::__ndk1::char_traits<char>, std::__ndk1::allocator<char> > >::~ResultData()
PUBLIC 168b0 0 tulip::hook::WrapperMetadata::~WrapperMetadata()
PUBLIC 16914 0 cocos2d::CCObject::~CCObject()
PUBLIC 16938 0 cocos2d::CCNode::CCNode()
PUBLIC 16b94 0 cocos2d::CCNode::~CCNode()
PUBLIC 16bb8 0 cocos2d::CCSpriteBatchNode::~CCSpriteBatchNode()
PUBLIC 16e70 0 cocos2d::CCSpriteBatchNode::~CCSpriteBatchNode()
PUBLIC 16e94 0 cocos2d::CCLabelBMFont::CCLabelBMFont()
PUBLIC 1714c 0 cocos2d::CCLabelBMFont::~CCLabelBMFont()
PUBLIC 17484 0 cocos2d::CCLabelBMFont::~CCLabelBMFont()
PUBLIC 174a8 0 TextArea::create(gd::string, char const*, float, float, cocos2d::CCPoint, float, bool)
PUBLIC 17670 0 tulip::hook::AbstractFunction::from<TextArea*, gd::string, char const*, float, float, cocos2d::CCPoint, float, bool>(TextArea* (*)(gd::string, char const*, float, float, cocos2d::CCPoint, float, bool))
PUBLIC 177ec 0 cocos2d::CCObject::update(float)
PUBLIC 177f0 0 cocos2d::CCNode::~CCNode()
PUBLIC 17a90 0 cocos2d::CCObject::~CCObject()
PUBLIC 17f84 0 _ZN5geode15UnwrapExceptionC2IRPvQsr4implE18IsStringStreamableIT_EEENS_4impl5OkTagEOS4_
PUBLIC 180d8 0 _ZN5geode15UnwrapExceptionC2IRNSt6__ndk112basic_stringIcNS2_11char_traitsIcEENS2_9allocatorIcEEEEQsr4implE18IsStringStreamableIT_EEENS_4impl6ErrTagEOSA_
PUBLIC 18240 0 std::__ndk1::__variant_detail::__visitation::__base::__dispatcher<(unsigned long)0>::__dispatch[abi:ne180000]<std::__ndk1::__variant_detail::__dtor<std::__ndk1::__variant_detail::__traits<void*, std::__ndk1::basic_string<char, std::__ndk1::char_traits<char>, std::__ndk1::allocator<char> > >, (std::__ndk1::__variant_detail::_Trait)1>::__destroy[abi:ne180000]()::{lambda(auto:1&)#1}, std::__ndk1::__variant_detail::__base<(std::__ndk1::__variant_detail::__traits<void*, std::__ndk1::basic_string<char, std::__ndk1::char_traits<char>, std::__ndk1::allocator<char> > >)1, std::__ndk1::__variant_detail::__traits, std::__ndk1::allocator<char> >&>(std::__ndk1::__variant_detail::__dtor<std::__ndk1::__variant_detail::__traits<void*, std::__ndk1::basic_string<char, std::__ndk1::char_traits<char>, std::__ndk1::allocator<char> > >, (std::__ndk1::__variant_detail::_Trait)1>, std::__ndk1::__variant_detail::__base<(std::__ndk1::__variant_detail::__traits<void*, std::__ndk1::basic_string<char, std::__ndk1::char_traits<char>, std::__ndk1::allocator<char> > >)1, std::__ndk1::__variant_detail::__traits, std::__ndk1::allocator<char> >&)
PUBLIC 18244 0 std::__ndk1::__variant_detail::__visitation::__base::__dispatcher<(unsigned long)1>::__dispatch[abi:ne180000]<std::__ndk1::__variant_detail::__dtor<std::__ndk1::__variant_detail::__traits<void*, std::__ndk1::basic_string<char, std::__ndk1::char_traits<char>, std::__ndk1::allocator<char> > >, (std::__ndk1::__variant_detail::_Trait)1>::__destroy[abi:ne180000]()::{lambda(auto:1&)#1}, std::__ndk1::__variant_detail::__base<(std::__ndk1::__variant_detail::__traits<void*, std::__ndk1::basic_string<char, std::__ndk1::char_traits<char>, std::__ndk1::allocator<char> > >)1, std::__ndk1::__variant_detail::__traits, std::__ndk1::allocator<char> >&>(std::__ndk1::__variant_detail::__dtor<std::__ndk1::__variant_detail::__traits<void*, std::__ndk1::basic_string<char, std::__ndk1::char_traits<char>, std::__ndk1::allocator<char> > >, (std::__ndk1::__variant_detail::_Trait)1>, std::__ndk1::__variant_detail::__base<(std::__ndk1::__variant_detail::__traits<void*, std::__ndk1::basic_string<char, std::__ndk1::char_traits<char>, std::__ndk1::allocator<char> > >)1, std::__ndk1::__variant_detail::__traits, std::__ndk1::allocator<char> >&)
PUBLIC 18258 0 std::__ndk1::__hash_table<std::__ndk1::__hash_value_type<void*, bool>, std::__ndk1::__unordered_map_hasher<void*, std::__ndk1::__hash_value_type<void*, bool>, std::__ndk1::hash<void*>, std::__ndk1::equal_to<void*>, true>, std::__ndk1::__unordered_map_equal<void*, std::__ndk1::__hash_value_type<void*, bool>, std::__ndk1::equal_to<void*>, std::__ndk1::hash<void*>, true>, std::__ndk1::allocator<std::__ndk1::__hash_value_type<void*, bool> > >::__emplace_unique_key_args<void*, std::__ndk1::piecewise_construct_t const&, std::__ndk1::tuple<void* const&>, std::__ndk1::tuple<> >(void* const&, std::__ndk1::piecewise_construct_t const&, std::__ndk1::tuple<void* const&>, std::__ndk1::tuple<>)
PUBLIC 18770 0 <.plt ELF section in n.talking-icons.android64.so>
STACK CFI INIT f290 10 .cfa: sp 0 +
STACK CFI INIT f2a0 8 .cfa: sp 0 +
STACK CFI INIT f2a8 8 .cfa: sp 0 +
STACK CFI INIT f2b0 14 .cfa: sp 0 +
STACK CFI INIT f2c4 1c .cfa: sp 0 +
STACK CFI INIT f2e0 10 .cfa: sp 0 +
STACK CFI INIT f2f0 30 .cfa: sp 0 +
STACK CFI INIT f320 98 .cfa: sp 0 +
STACK CFI INIT f3b8 59c .cfa: sp 0 +
STACK CFI INIT f954 8c .cfa: sp 0 +
STACK CFI INIT f9e0 30 .cfa: sp 0 +
STACK CFI INIT fa10 4 .cfa: sp 0 +
STACK CFI INIT 10528 18 .cfa: sp 0 +
STACK CFI INIT 10c50 50 .cfa: sp 0 +
STACK CFI 10c54 .cfa: sp 32 +
STACK CFI 10c5c .cfa: x29 32 + x19: .cfa -16 + ^ .ra: .cfa -24 + ^ x29: .cfa -32 + ^
STACK CFI 10c74 .cfa: sp 32 +
STACK CFI 10c7c .cfa: sp 0 +
STACK CFI 10c80 .cfa: x29 32 +
STACK CFI 10c94 .cfa: sp 32 +
STACK CFI 10c9c .cfa: sp 0 +
STACK CFI INIT 10d14 7c .cfa: sp 0 +
STACK CFI 10d18 .cfa: sp 48 +
STACK CFI 10d24 .cfa: x29 48 + x19: .cfa -8 + ^ x20: .cfa -16 + ^ x21: .cfa -32 + ^ .ra: .cfa -40 + ^ x29: .cfa -48 + ^
STACK CFI 10d70 .cfa: sp 48 +
STACK CFI 10d7c .cfa: sp 0 +
STACK CFI 10d80 .cfa: sp 48 +
STACK CFI 10d8c .cfa: sp 0 +
STACK CFI INIT 10d90 4 .cfa: sp 0 +
STACK CFI INIT 10d94 10 .cfa: sp 0 +
STACK CFI 10d98 .cfa: sp 16 +
STACK CFI 10d9c .cfa: x29 16 + .ra: .cfa -8 + ^ x29: .cfa -16 + ^
STACK CFI INIT 10ef8 34 .cfa: sp 0 +
STACK CFI 10efc .cfa: sp 16 +
STACK CFI 10f00 .cfa: x29 16 + .ra: .cfa -8 + ^ x29: .cfa -16 + ^
STACK CFI INIT 11058 80 .cfa: sp 0 +
STACK CFI 1105c .cfa: sp 48 +
STACK CFI 11068 .cfa: x29 48 + x19: .cfa -8 + ^ x20: .cfa -16 + ^ x21: .cfa -32 + ^ .ra: .cfa -40 + ^ x29: .cfa -48 + ^
STACK CFI 110c8 .cfa: sp 48 +
STACK CFI 110d4 .cfa: sp 0 +
STACK CFI INIT 110d8 24 .cfa: sp 0 +
STACK CFI 110dc .cfa: sp 32 +
STACK CFI 110e4 .cfa: x29 32 + x19: .cfa -16 + ^ .ra: .cfa -24 + ^ x29: .cfa -32 + ^
STACK CFI 110f0 .cfa: sp 32 +
STACK CFI 110f8 .cfa: sp 0 +
STACK CFI INIT 1147c 14 .cfa: sp 0 +
STACK CFI 11480 .cfa: sp 16 +
STACK CFI 11484 .cfa: x29 16 + .ra: .cfa -8 + ^ x29: .cfa -16 + ^
STACK CFI INIT 114e0 30 .cfa: sp 0 +
STACK CFI 114e4 .cfa: sp 32 +
STACK CFI 114ec .cfa: x29 32 + x19: .cfa -16 + ^ .ra: .cfa -24 + ^ x29: .cfa -32 + ^
STACK CFI 11504 .cfa: sp 32 +
STACK CFI 1150c .cfa: sp 0 +
STACK CFI INIT 11510 34 .cfa: sp 0 +
STACK CFI 11514 .cfa: sp 32 +
STACK CFI 1151c .cfa: x29 32 + x19: .cfa -16 + ^ .ra: .cfa -24 + ^ x29: .cfa -32 + ^
STACK CFI INIT 116bc 148 .cfa: sp 0 +
STACK CFI 116c0 .cfa: sp 48 +
STACK CFI 116cc .cfa: x29 48 + x19: .cfa -8 + ^ x20: .cfa -16 + ^ x21: .cfa -32 + ^ .ra: .cfa -40 + ^ x29: .cfa -48 + ^
STACK CFI 117f4 .cfa: sp 48 +
STACK CFI 11800 .cfa: sp 0 +
STACK CFI INIT 11a2c 80 .cfa: sp 0 +
STACK CFI 11a30 .cfa: sp 48 +
STACK CFI 11a3c .cfa: x29 48 + x19: .cfa -8 + ^ x20: .cfa -16 + ^ x21: .cfa -24 + ^ x22: .cfa -32 + ^ .ra: .cfa -40 + ^ x29: .cfa -48 + ^
STACK CFI 11a54 .cfa: sp 48 +
STACK CFI 11a60 .cfa: sp 0 +
STACK CFI 11a64 .cfa: x29 48 +
STACK CFI 11a94 .cfa: sp 48 +
STACK CFI 11aa0 .cfa: sp 0 +
STACK CFI 11aa4 .cfa: x29 48 +
STACK CFI INIT 11aac 68 .cfa: sp 0 +
STACK CFI 11ab0 .cfa: sp 32 +
STACK CFI 11ab8 .cfa: x29 32 + x19: .cfa -8 + ^ x20: .cfa -16 + ^ .ra: .cfa -24 + ^ x29: .cfa -32 + ^
STACK CFI 11ad0 .cfa: sp 32 +
STACK CFI 11ad8 .cfa: sp 0 +
STACK CFI 11adc .cfa: x29 32 +
STACK CFI 11b08 .cfa: sp 32 +
STACK CFI 11b10 .cfa: sp 0 +
STACK CFI INIT 11b14 14 .cfa: sp 0 +
STACK CFI 11b18 .cfa: sp 16 +
STACK CFI 11b1c .cfa: x29 16 + .ra: .cfa -8 + ^ x29: .cfa -16 + ^
STACK CFI INIT 11b28 4 .cfa: sp 0 +
STACK CFI INIT 11b2c 14 .cfa: sp 0 +
STACK CFI INIT 11b40 84 .cfa: sp 0 +
STACK CFI 11b48 .cfa: sp 32 +
STACK CFI 11b50 .cfa: x29 32 + x19: .cfa -8 + ^ x20: .cfa -16 + ^ .ra: .cfa -24 + ^ x29: .cfa -32 + ^
STACK CFI 11b90 .cfa: sp 32 +
STACK CFI 11b98 .cfa: sp 0 +
STACK CFI 11ba0 .cfa: x29 32 +
STACK CFI INIT 12650 40 .cfa: sp 0 +
STACK CFI 12654 .cfa: sp 32 +
STACK CFI 1265c .cfa: x29 32 + x19: .cfa -16 + ^ .ra: .cfa -24 + ^ x29: .cfa -32 + ^
STACK CFI 12684 .cfa: sp 32 +
STACK CFI 1268c .cfa: sp 0 +
STACK CFI INIT 12738 98 .cfa: sp 0 +
STACK CFI INIT 127d0 8 .cfa: sp 0 +
STACK CFI INIT 127d8 50 .cfa: sp 0 +
STACK CFI 127dc .cfa: sp 32 +
STACK CFI 127e4 .cfa: x29 32 + x19: .cfa -16 + ^ .ra: .cfa -24 + ^ x29: .cfa -32 + ^
STACK CFI 127fc .cfa: sp 32 +
STACK CFI 12804 .cfa: sp 0 +
STACK CFI 12808 .cfa: x29 32 +
STACK CFI 1281c .cfa: sp 32 +
STACK CFI 12824 .cfa: sp 0 +
STACK CFI INIT 12828 64 .cfa: sp 0 +
STACK CFI 1282c .cfa: sp 32 +
STACK CFI 12834 .cfa: x29 32 + x19: .cfa -16 + ^ .ra: .cfa -24 + ^ x29: .cfa -32 + ^
STACK CFI 12860 .cfa: sp 32 +
STACK CFI 12868 .cfa: sp 0 +
STACK CFI 1286c .cfa: x29 32 +
STACK CFI 12880 .cfa: sp 32 +
STACK CFI 12888 .cfa: sp 0 +
STACK CFI INIT 12ec0 54 .cfa: sp 0 +
STACK CFI 12eec .cfa: sp 32 +
STACK CFI 12ef4 .cfa: x29 32 + x19: .cfa -16 + ^ .ra: .cfa -24 + ^ x29: .cfa -32 + ^
STACK CFI 12f08 .cfa: sp 32 +
STACK CFI 12f10 .cfa: sp 0 +
STACK CFI INIT 12f14 58 .cfa: sp 0 +
STACK CFI 12f18 .cfa: sp 32 +
STACK CFI 12f20 .cfa: x29 32 + x19: .cfa -16 + ^ .ra: .cfa -24 + ^ x29: .cfa -32 + ^
STACK CFI 12f60 .cfa: sp 32 +
STACK CFI 12f68 .cfa: sp 0 +
STACK CFI INIT 13240 98 .cfa: sp 0 +
STACK CFI 13244 .cfa: sp 304 +
STACK CFI 13250 .cfa: x29 32 + x19: .cfa -8 + ^ x28: .cfa -16 + ^ .ra: .cfa -24 + ^ x29: .cfa -32 + ^
STACK CFI 132c4 .cfa: sp 304 +
STACK CFI 132d0 .cfa: sp 0 +
STACK CFI 132d4 .cfa: x29 32 +
STACK CFI INIT 132d8 4 .cfa: sp 0 +
STACK CFI INIT 132dc 14 .cfa: sp 0 +
STACK CFI 132e0 .cfa: sp 16 +
STACK CFI 132e4 .cfa: x29 16 + .ra: .cfa -8 + ^ x29: .cfa -16 + ^
STACK CFI INIT 132f0 14 .cfa: sp 0 +
STACK CFI 132f4 .cfa: sp 16 +
STACK CFI 132f8 .cfa: x29 16 + .ra: .cfa -8 + ^ x29: .cfa -16 + ^
STACK CFI INIT 13304 c .cfa: sp 0 +
STACK CFI 13308 .cfa: sp 16 +
STACK CFI 1330c .cfa: x29 16 + .ra: .cfa -8 + ^ x29: .cfa -16 + ^
STACK CFI INIT 13360 30 .cfa: sp 0 +
STACK CFI 13364 .cfa: sp 32 +
STACK CFI 1336c .cfa: x29 32 + x19: .cfa -16 + ^ .ra: .cfa -24 + ^ x29: .cfa -32 + ^
STACK CFI 13384 .cfa: sp 32 +
STACK CFI 1338c .cfa: sp 0 +
STACK CFI INIT 13390 c .cfa: sp 0 +
STACK CFI 13394 .cfa: sp 16 +
STACK CFI 13398 .cfa: x29 16 + .ra: .cfa -8 + ^ x29: .cfa -16 + ^
STACK CFI INIT 1339c 4 .cfa: sp 0 +
STACK CFI INIT 133a0 4 .cfa: sp 0 +
STACK CFI INIT 133a4 38 .cfa: sp 0 +
STACK CFI 133a8 .cfa: sp 32 +
STACK CFI 133b0 .cfa: x29 32 + x19: .cfa -16 + ^ .ra: .cfa -24 + ^ x29: .cfa -32 + ^
STACK CFI 133d0 .cfa: sp 32 +
STACK CFI 133d8 .cfa: sp 0 +
STACK CFI INIT 133dc 18 .cfa: sp 0 +
STACK CFI INIT 133f4 4 .cfa: sp 0 +
STACK CFI INIT 133f8 4 .cfa: sp 0 +
STACK CFI INIT 133fc 10 .cfa: sp 0 +
STACK CFI INIT 1340c 1c .cfa: sp 0 +
STACK CFI INIT 13428 c .cfa: sp 0 +
STACK CFI INIT 13434 168 .cfa: sp 0 +
STACK CFI 13438 .cfa: sp 80 +
STACK CFI 1344c .cfa: x29 80 + x19: .cfa -8 + ^ x20: .cfa -16 + ^ x21: .cfa -24 + ^ x22: .cfa -32 + ^ x23: .cfa -40 + ^ x24: .cfa -48 + ^ x25: .cfa -56 + ^ x26: .cfa -64 + ^ .ra: .cfa -72 + ^ x29: .cfa -80 + ^
STACK CFI 13584 .cfa: sp 80 +
STACK CFI 13598 .cfa: sp 0 +
STACK CFI INIT 1359c 1b0 .cfa: sp 0 +
STACK CFI INIT 1374c 40 .cfa: sp 0 +
STACK CFI 13764 .cfa: sp 32 +
STACK CFI 1376c .cfa: x29 32 + x19: .cfa -16 + ^ .ra: .cfa -24 + ^ x29: .cfa -32 + ^
STACK CFI 13780 .cfa: sp 32 +
STACK CFI 13788 .cfa: sp 0 +
STACK CFI INIT 1378c 44 .cfa: sp 0 +
STACK CFI 13790 .cfa: sp 32 +
STACK CFI 13798 .cfa: x29 32 + x19: .cfa -16 + ^ .ra: .cfa -24 + ^ x29: .cfa -32 + ^
STACK CFI 137c4 .cfa: sp 32 +
STACK CFI 137cc .cfa: sp 0 +
STACK CFI INIT 137d0 128 .cfa: sp 0 +
STACK CFI 137d4 .cfa: sp 80 +
STACK CFI 137e8 .cfa: x29 80 + x19: .cfa -8 + ^ x20: .cfa -16 + ^ x21: .cfa -24 + ^ x22: .cfa -32 + ^ x23: .cfa -40 + ^ x24: .cfa -48 + ^ x25: .cfa -64 + ^ .ra: .cfa -72 + ^ x29: .cfa -80 + ^
STACK CFI 138d8 .cfa: sp 80 +
STACK CFI 138ec .cfa: sp 0 +
STACK CFI 138f0 .cfa: x29 80 +
STACK CFI INIT 138f8 34 .cfa: sp 0 +
STACK CFI 138fc .cfa: sp 32 +
STACK CFI 13904 .cfa: x29 32 + x19: .cfa -8 + ^ x20: .cfa -16 + ^ .ra: .cfa -24 + ^ x29: .cfa -32 + ^
STACK CFI 13920 .cfa: sp 32 +
STACK CFI 13928 .cfa: sp 0 +
STACK CFI INIT 1392c 4 .cfa: sp 0 +
STACK CFI INIT 13aa4 5c .cfa: sp 0 +
STACK CFI 13aa8 .cfa: sp 32 +
STACK CFI 13ab0 .cfa: x29 32 + x19: .cfa -16 + ^ .ra: .cfa -24 + ^ x29: .cfa -32 + ^
STACK CFI 13af4 .cfa: sp 32 +
STACK CFI 13afc .cfa: sp 0 +
STACK CFI INIT 13b00 64 .cfa: sp 0 +
STACK CFI 13b04 .cfa: sp 32 +
STACK CFI 13b0c .cfa: x29 32 + x19: .cfa -16 + ^ .ra: .cfa -24 + ^ x29: .cfa -32 + ^
STACK CFI 13b58 .cfa: sp 32 +
STACK CFI 13b60 .cfa: sp 0 +
STACK CFI INIT 13b64 4 .cfa: sp 0 +
STACK CFI INIT 13b68 4 .cfa: sp 0 +
STACK CFI INIT 13b6c 34 .cfa: sp 0 +
STACK CFI 13b70 .cfa: sp 32 +
STACK CFI 13b78 .cfa: x29 32 + x19: .cfa -16 + ^ .ra: .cfa -24 + ^ x29: .cfa -32 + ^
STACK CFI 13b94 .cfa: sp 32 +
STACK CFI 13b9c .cfa: sp 0 +
STACK CFI INIT 13ba0 14 .cfa: sp 0 +
STACK CFI INIT 13bb4 4 .cfa: sp 0 +
STACK CFI INIT 13bb8 4 .cfa: sp 0 +
STACK CFI INIT 13bbc 10 .cfa: sp 0 +
STACK CFI INIT 13bcc 1c .cfa: sp 0 +
STACK CFI INIT 13be8 c .cfa: sp 0 +
STACK CFI INIT 13bf4 104 .cfa: sp 0 +
STACK CFI 13bf8 .cfa: sp 64 +
STACK CFI 13c08 .cfa: x29 64 + x19: .cfa -8 + ^ x20: .cfa -16 + ^ x21: .cfa -24 + ^ x22: .cfa -32 + ^ x23: .cfa -48 + ^ .ra: .cfa -56 + ^ x29: .cfa -64 + ^
STACK CFI 13c64 .cfa: sp 64 +
STACK CFI 13c74 .cfa: sp 0 +
STACK CFI 13c78 .cfa: x29 64 +
STACK CFI 13c94 .cfa: sp 64 +
STACK CFI 13ca4 .cfa: sp 0 +
STACK CFI 13ca8 .cfa: x29 64 +
STACK CFI 13ce4 .cfa: sp 64 +
STACK CFI 13cf4 .cfa: sp 0 +
STACK CFI INIT 13e50 50 .cfa: sp 0 +
STACK CFI 13e54 .cfa: sp 32 +
STACK CFI 13e5c .cfa: x29 32 + x19: .cfa -16 + ^ .ra: .cfa -24 + ^ x29: .cfa -32 + ^
STACK CFI 13e74 .cfa: sp 32 +
STACK CFI 13e7c .cfa: sp 0 +
STACK CFI 13e80 .cfa: x29 32 +
STACK CFI 13e94 .cfa: sp 32 +
STACK CFI 13e9c .cfa: sp 0 +
STACK CFI INIT 13ea0 9c .cfa: sp 0 +
STACK CFI 13ea4 .cfa: sp 32 +
STACK CFI 13eac .cfa: x29 32 + x19: .cfa -8 + ^ x20: .cfa -16 + ^ .ra: .cfa -24 + ^ x29: .cfa -32 + ^
STACK CFI 13f30 .cfa: sp 32 +
STACK CFI 13f38 .cfa: sp 0 +
STACK CFI INIT 14274 8c .cfa: sp 0 +
STACK CFI 14278 .cfa: sp 48 +
STACK CFI 14284 .cfa: x29 48 + x19: .cfa -8 + ^ x20: .cfa -16 + ^ x21: .cfa -24 + ^ x22: .cfa -32 + ^ .ra: .cfa -40 + ^ x29: .cfa -48 + ^
STACK CFI 1428c .cfa: sp 48 +
STACK CFI 14298 .cfa: sp 0 +
STACK CFI 1429c .cfa: x29 48 +
STACK CFI 142f0 .cfa: sp 48 +
STACK CFI 142fc .cfa: sp 0 +
STACK CFI INIT 14300 60 .cfa: sp 0 +
STACK CFI 14310 .cfa: sp 32 +
STACK CFI 14318 .cfa: x29 32 + x19: .cfa -8 + ^ x20: .cfa -16 + ^ .ra: .cfa -24 + ^ x29: .cfa -32 + ^
STACK CFI 14354 .cfa: sp 32 +
STACK CFI 1435c .cfa: sp 0 +
STACK CFI INIT 14360 4 .cfa: sp 0 +
STACK CFI INIT 14530 a4 .cfa: sp 0 +
STACK CFI 14534 .cfa: sp 32 +
STACK CFI 1453c .cfa: x29 32 + x19: .cfa -8 + ^ x20: .cfa -16 + ^ .ra: .cfa -24 + ^ x29: .cfa -32 + ^
STACK CFI 145c8 .cfa: sp 32 +
STACK CFI 145d0 .cfa: sp 0 +
STACK CFI INIT 145d4 34 .cfa: sp 0 +
STACK CFI 145d8 .cfa: sp 16 +
STACK CFI 145dc .cfa: x29 16 + .ra: .cfa -8 + ^ x29: .cfa -16 + ^
STACK CFI INIT 14608 24 .cfa: sp 0 +
STACK CFI 1460c .cfa: sp 32 +
STACK CFI 14614 .cfa: x29 32 + x19: .cfa -16 + ^ .ra: .cfa -24 + ^ x29: .cfa -32 + ^
STACK CFI 14620 .cfa: sp 32 +
STACK CFI 14628 .cfa: sp 0 +
STACK CFI INIT 14830 50 .cfa: sp 0 +
STACK CFI 14834 .cfa: sp 32 +
STACK CFI 1483c .cfa: x29 32 + x19: .cfa -16 + ^ .ra: .cfa -24 + ^ x29: .cfa -32 + ^
STACK CFI 14854 .cfa: sp 32 +
STACK CFI 1485c .cfa: sp 0 +
STACK CFI 14860 .cfa: x29 32 +
STACK CFI 14874 .cfa: sp 32 +
STACK CFI 1487c .cfa: sp 0 +
STACK CFI INIT 14880 50 .cfa: sp 0 +
STACK CFI 14884 .cfa: sp 32 +
STACK CFI 1488c .cfa: x29 32 + x19: .cfa -16 + ^ .ra: .cfa -24 + ^ x29: .cfa -32 + ^
STACK CFI 148a4 .cfa: sp 32 +
STACK CFI 148ac .cfa: sp 0 +
STACK CFI 148b0 .cfa: x29 32 +
STACK CFI 148c4 .cfa: sp 32 +
STACK CFI 148cc .cfa: sp 0 +
STACK CFI INIT 148d0 5c .cfa: sp 0 +
STACK CFI 148d4 .cfa: sp 32 +
STACK CFI 148dc .cfa: x29 32 + x19: .cfa -16 + ^ .ra: .cfa -24 + ^ x29: .cfa -32 + ^
STACK CFI 14900 .cfa: sp 32 +
STACK CFI 14908 .cfa: sp 0 +
STACK CFI 1490c .cfa: x29 32 +
STACK CFI 14920 .cfa: sp 32 +
STACK CFI 14928 .cfa: sp 0 +
STACK CFI INIT 1492c 6c .cfa: sp 0 +
STACK CFI 14930 .cfa: sp 32 +
STACK CFI 14938 .cfa: x29 32 + x19: .cfa -8 + ^ x20: .cfa -16 + ^ .ra: .cfa -24 + ^ x29: .cfa -32 + ^
STACK CFI 14964 .cfa: sp 32 +
STACK CFI 1496c .cfa: sp 0 +
STACK CFI 14970 .cfa: x29 32 +
STACK CFI 1498c .cfa: sp 32 +
STACK CFI 14994 .cfa: sp 0 +
STACK CFI INIT 14998 58 .cfa: sp 0 +
STACK CFI 1499c .cfa: sp 32 +
STACK CFI 149a4 .cfa: x29 32 + x19: .cfa -8 + ^ x20: .cfa -16 + ^ .ra: .cfa -24 + ^ x29: .cfa -32 + ^
STACK CFI 149e4 .cfa: sp 32 +
STACK CFI 149ec .cfa: sp 0 +
STACK CFI INIT 149f0 4c .cfa: sp 0 +
STACK CFI 149f4 .cfa: sp 32 +
STACK CFI 149fc .cfa: x29 32 + x19: .cfa -8 + ^ x20: .cfa -16 + ^ .ra: .cfa -24 + ^ x29: .cfa -32 + ^
STACK CFI 14a30 .cfa: sp 32 +
STACK CFI 14a38 .cfa: sp 0 +
STACK CFI INIT 14a3c 50 .cfa: sp 0 +
STACK CFI 14a40 .cfa: sp 32 +
STACK CFI 14a48 .cfa: x29 32 + x19: .cfa -16 + ^ .ra: .cfa -24 + ^ x29: .cfa -32 + ^
STACK CFI 14a60 .cfa: sp 32 +
STACK CFI 14a68 .cfa: sp 0 +
STACK CFI 14a6c .cfa: x29 32 +
STACK CFI 14a80 .cfa: sp 32 +
STACK CFI 14a88 .cfa: sp 0 +
STACK CFI INIT 14a8c 60 .cfa: sp 0 +
STACK CFI 14a90 .cfa: sp 32 +
STACK CFI 14a98 .cfa: x29 32 + x19: .cfa -8 + ^ x20: .cfa -16 + ^ .ra: .cfa -24 + ^ x29: .cfa -32 + ^
STACK CFI 14ab8 .cfa: sp 32 +
STACK CFI 14ac0 .cfa: sp 0 +
STACK CFI 14ac4 .cfa: x29 32 +
STACK CFI 14ae0 .cfa: sp 32 +
STACK CFI 14ae8 .cfa: sp 0 +
STACK CFI INIT 14cbc 1c .cfa: sp 0 +
STACK CFI INIT 14cd8 c .cfa: sp 0 +
STACK CFI INIT 14ce4 60 .cfa: sp 0 +
STACK CFI 14ce8 .cfa: sp 32 +
STACK CFI 14cf0 .cfa: x29 32 + x19: .cfa -8 + ^ x20: .cfa -16 + ^ .ra: .cfa -24 + ^ x29: .cfa -32 + ^
STACK CFI 14d10 .cfa: sp 32 +
STACK CFI 14d18 .cfa: sp 0 +
STACK CFI 14d1c .cfa: x29 32 +
STACK CFI 14d38 .cfa: sp 32 +
STACK CFI 14d40 .cfa: sp 0 +
STACK CFI INIT 14d44 70 .cfa: sp 0 +
STACK CFI 14d48 .cfa: sp 32 +
STACK CFI 14d50 .cfa: x29 32 + x19: .cfa -8 + ^ x20: .cfa -16 + ^ .ra: .cfa -24 + ^ x29: .cfa -32 + ^
STACK CFI 14d78 .cfa: sp 32 +
STACK CFI 14d80 .cfa: sp 0 +
STACK CFI 14d84 .cfa: x29 32 +
STACK CFI 14da8 .cfa: sp 32 +
STACK CFI 14db0 .cfa: sp 0 +
STACK CFI INIT 14db4 5c .cfa: sp 0 +
STACK CFI 14db8 .cfa: sp 32 +
STACK CFI 14dc0 .cfa: x29 32 + x19: .cfa -16 + ^ .ra: .cfa -24 + ^ x29: .cfa -32 + ^
STACK CFI 14de4 .cfa: sp 32 +
STACK CFI 14dec .cfa: sp 0 +
STACK CFI 14df0 .cfa: x29 32 +
STACK CFI 14e04 .cfa: sp 32 +
STACK CFI 14e0c .cfa: sp 0 +
STACK CFI INIT 14e10 6c .cfa: sp 0 +
STACK CFI 14e14 .cfa: sp 32 +
STACK CFI 14e1c .cfa: x29 32 + x19: .cfa -8 + ^ x20: .cfa -16 + ^ .ra: .cfa -24 + ^ x29: .cfa -32 + ^
STACK CFI 14e48 .cfa: sp 32 +
STACK CFI 14e50 .cfa: sp 0 +
STACK CFI 14e54 .cfa: x29 32 +
STACK CFI 14e70 .cfa: sp 32 +
STACK CFI 14e78 .cfa: sp 0 +
STACK CFI INIT 14e7c 58 .cfa: sp 0 +
STACK CFI 14e80 .cfa: sp 32 +
STACK CFI 14e88 .cfa: x29 32 + x19: .cfa -8 + ^ x20: .cfa -16 + ^ .ra: .cfa -24 + ^ x29: .cfa -32 + ^
STACK CFI 14ec8 .cfa: sp 32 +
STACK CFI 14ed0 .cfa: sp 0 +
STACK CFI INIT 14ed4 4c .cfa: sp 0 +
STACK CFI 14ed8 .cfa: sp 32 +
STACK CFI 14ee0 .cfa: x29 32 + x19: .cfa -8 + ^ x20: .cfa -16 + ^ .ra: .cfa -24 + ^ x29: .cfa -32 + ^
STACK CFI 14f14 .cfa: sp 32 +
STACK CFI 14f1c .cfa: sp 0 +
STACK CFI INIT 14f20 50 .cfa: sp 0 +
STACK CFI 14f24 .cfa: sp 32 +
STACK CFI 14f2c .cfa: x29 32 + x19: .cfa -16 + ^ .ra: .cfa -24 + ^ x29: .cfa -32 + ^
STACK CFI 14f44 .cfa: sp 32 +
STACK CFI 14f4c .cfa: sp 0 +
STACK CFI 14f50 .cfa: x29 32 +
STACK CFI 14f64 .cfa: sp 32 +
STACK CFI 14f6c .cfa: sp 0 +
STACK CFI INIT 14f70 60 .cfa: sp 0 +
STACK CFI 14f74 .cfa: sp 32 +
STACK CFI 14f7c .cfa: x29 32 + x19: .cfa -8 + ^ x20: .cfa -16 + ^ .ra: .cfa -24 + ^ x29: .cfa -32 + ^
STACK CFI 14f9c .cfa: sp 32 +
STACK CFI 14fa4 .cfa: sp 0 +
STACK CFI 14fa8 .cfa: x29 32 +
STACK CFI 14fc4 .cfa: sp 32 +
STACK CFI 14fcc .cfa: sp 0 +
STACK CFI INIT 15194 1c .cfa: sp 0 +
STACK CFI INIT 151b0 c .cfa: sp 0 +
STACK CFI INIT 15354 4 .cfa: sp 0 +
STACK CFI INIT 15358 24 .cfa: sp 0 +
STACK CFI 1535c .cfa: sp 16 +
STACK CFI 15360 .cfa: x29 16 + .ra: .cfa -8 + ^ x29: .cfa -16 + ^
STACK CFI 15374 .cfa: sp 16 +
STACK CFI 15378 .cfa: sp 0 +
STACK CFI INIT 1537c 10 .cfa: sp 0 +
STACK CFI INIT 1538c 4 .cfa: sp 0 +
STACK CFI INIT 15390 4 .cfa: sp 0 +
STACK CFI INIT 1553c 1c .cfa: sp 0 +
STACK CFI INIT 15558 c .cfa: sp 0 +
STACK CFI INIT 15b28 7c .cfa: sp 0 +
STACK CFI 15b2c .cfa: sp 48 +
STACK CFI 15b38 .cfa: x29 48 + x19: .cfa -8 + ^ x20: .cfa -16 + ^ x21: .cfa -32 + ^ .ra: .cfa -40 + ^ x29: .cfa -48 + ^
STACK CFI 15b94 .cfa: sp 48 +
STACK CFI 15ba0 .cfa: sp 0 +
STACK CFI INIT 15ba4 ac .cfa: sp 0 +
STACK CFI 15ba8 .cfa: sp 64 +
STACK CFI 15bb8 .cfa: x29 64 + x19: .cfa -8 + ^ x20: .cfa -16 + ^ x21: .cfa -24 + ^ x22: .cfa -32 + ^ x23: .cfa -48 + ^ .ra: .cfa -56 + ^ x29: .cfa -64 + ^
STACK CFI 15c34 .cfa: sp 64 +
STACK CFI 15c44 .cfa: sp 0 +
STACK CFI 15c48 .cfa: x29 64 +
STACK CFI INIT 15c50 14 .cfa: sp 0 +
STACK CFI INIT 15c64 14 .cfa: sp 0 +
STACK CFI INIT 15c78 4 .cfa: sp 0 +
STACK CFI INIT 15c7c 4 .cfa: sp 0 +
STACK CFI INIT 15c80 24 .cfa: sp 0 +
STACK CFI 15c84 .cfa: sp 16 +
STACK CFI 15c88 .cfa: x29 16 + .ra: .cfa -8 + ^ x29: .cfa -16 + ^
STACK CFI 15c9c .cfa: sp 16 +
STACK CFI 15ca0 .cfa: sp 0 +
STACK CFI INIT 15ca4 10 .cfa: sp 0 +
STACK CFI INIT 15cb4 4 .cfa: sp 0 +
STACK CFI INIT 15cb8 4 .cfa: sp 0 +
STACK CFI INIT 15e64 1c .cfa: sp 0 +
STACK CFI INIT 15e80 c .cfa: sp 0 +
STACK CFI INIT 16608 3c .cfa: sp 0 +
STACK CFI 1660c .cfa: sp 32 +
STACK CFI 16614 .cfa: x29 32 + x19: .cfa -16 + ^ .ra: .cfa -24 + ^ x29: .cfa -32 + ^
STACK CFI 16620 .cfa: sp 32 +
STACK CFI 16628 .cfa: sp 0 +
STACK CFI 1662c .cfa: x29 32 +
STACK CFI 16638 .cfa: sp 32 +
STACK CFI 16640 .cfa: sp 0 +
STACK CFI INIT 16644 4c .cfa: sp 0 +
STACK CFI 16648 .cfa: sp 32 +
STACK CFI 16650 .cfa: x29 32 + x19: .cfa -8 + ^ x20: .cfa -16 + ^ .ra: .cfa -24 + ^ x29: .cfa -32 + ^
STACK CFI 16678 .cfa: sp 32 +
STACK CFI 16680 .cfa: sp 0 +
STACK CFI 16684 .cfa: sp 32 +
STACK CFI 1668c .cfa: sp 0 +
STACK CFI INIT 168b0 64 .cfa: sp 0 +
STACK CFI 168b4 .cfa: sp 32 +
STACK CFI 168bc .cfa: x29 32 + x19: .cfa -16 + ^ .ra: .cfa -24 + ^ x29: .cfa -32 + ^
STACK CFI 168e8 .cfa: sp 32 +
STACK CFI 168f0 .cfa: sp 0 +
STACK CFI 168f4 .cfa: x29 32 +
STACK CFI 16908 .cfa: sp 32 +
STACK CFI 16910 .cfa: sp 0 +
STACK CFI INIT 16914 24 .cfa: sp 0 +
STACK CFI 16918 .cfa: sp 32 +
STACK CFI 16920 .cfa: x29 32 + x19: .cfa -16 + ^ .ra: .cfa -24 + ^ x29: .cfa -32 + ^
STACK CFI 1692c .cfa: sp 32 +
STACK CFI 16934 .cfa: sp 0 +
STACK CFI INIT 16b94 24 .cfa: sp 0 +
STACK CFI 16b98 .cfa: sp 32 +
STACK CFI 16ba0 .cfa: x29 32 + x19: .cfa -16 + ^ .ra: .cfa -24 + ^ x29: .cfa -32 + ^
STACK CFI 16bac .cfa: sp 32 +
STACK CFI 16bb4 .cfa: sp 0 +
STACK CFI INIT 16e70 24 .cfa: sp 0 +
STACK CFI 16e74 .cfa: sp 32 +
STACK CFI 16e7c .cfa: x29 32 + x19: .cfa -16 + ^ .ra: .cfa -24 + ^ x29: .cfa -32 + ^
STACK CFI 16e88 .cfa: sp 32 +
STACK CFI 16e90 .cfa: sp 0 +
STACK CFI INIT 17484 24 .cfa: sp 0 +
STACK CFI 17488 .cfa: sp 32 +
STACK CFI 17490 .cfa: x29 32 + x19: .cfa -16 + ^ .ra: .cfa -24 + ^ x29: .cfa -32 + ^
STACK CFI 1749c .cfa: sp 32 +
STACK CFI 174a4 .cfa: sp 0 +
STACK CFI INIT 177ec 4 .cfa: sp 0 +
STACK CFI INIT 18240 4 .cfa: sp 0 +
STACK CFI INIT 18244 14 .cfa: sp 0 +
STACK CFI INIT fa14 9e8 .cfa: sp 0 +
STACK CFI fa18 .cfa: sp 224 +
STACK CFI fa34 .cfa: x29 96 + x19: .cfa -8 + ^ x20: .cfa -16 + ^ x21: .cfa -24 + ^ x22: .cfa -32 + ^ x23: .cfa -40 + ^ x24: .cfa -48 + ^ x25: .cfa -56 + ^ x26: .cfa -64 + ^ x27: .cfa -72 + ^ x28: .cfa -80 + ^ .ra: .cfa -88 + ^ x29: .cfa -96 + ^
STACK CFI 102e8 .cfa: sp 224 +
STACK CFI 10304 .cfa: sp 0 +
STACK CFI 10308 .cfa: x29 96 +
STACK CFI INIT 10540 710 .cfa: sp 0 +
STACK CFI 10544 .cfa: sp 224 +
STACK CFI 10558 .cfa: x29 64 + x19: .cfa -8 + ^ x20: .cfa -16 + ^ x21: .cfa -24 + ^ x22: .cfa -32 + ^ x23: .cfa -40 + ^ x24: .cfa -48 + ^ .ra: .cfa -56 + ^ x29: .cfa -64 + ^
STACK CFI 10a28 .cfa: sp 224 +
STACK CFI 10a3c .cfa: sp 0 +
STACK CFI 10a40 .cfa: x29 64 +
STACK CFI INIT 10ca0 74 .cfa: sp 0 +
STACK CFI 10ca4 .cfa: sp 48 +
STACK CFI 10cb0 .cfa: x29 32 + x19: .cfa -8 + ^ x20: .cfa -16 + ^ .ra: .cfa -24 + ^ x29: .cfa -32 + ^
STACK CFI 10cfc .cfa: sp 48 +
STACK CFI 10d08 .cfa: sp 0 +
STACK CFI 10d0c .cfa: x29 32 +
STACK CFI INIT 10da4 154 .cfa: sp 0 +
STACK CFI 10da8 .cfa: sp 384 +
STACK CFI 10dbc .cfa: x29 64 + x19: .cfa -8 + ^ x20: .cfa -16 + ^ x21: .cfa -24 + ^ x22: .cfa -32 + ^ x23: .cfa -40 + ^ x28: .cfa -48 + ^ .ra: .cfa -56 + ^ x29: .cfa -64 + ^
STACK CFI 10ea0 .cfa: sp 384 +
STACK CFI 10eb4 .cfa: sp 0 +
STACK CFI 10eb8 .cfa: x29 64 +
STACK CFI INIT 10f2c 12c .cfa: sp 0 +
STACK CFI 10f30 .cfa: sp 80 +
STACK CFI 10f44 .cfa: x29 80 + x19: .cfa -8 + ^ x20: .cfa -16 + ^ x21: .cfa -24 + ^ x22: .cfa -32 + ^ x23: .cfa -40 + ^ x24: .cfa -48 + ^ x25: .cfa -56 + ^ x26: .cfa -64 + ^ .ra: .cfa -72 + ^ x29: .cfa -80 + ^
STACK CFI 1100c .cfa: sp 80 +
STACK CFI 11020 .cfa: sp 0 +
STACK CFI 11024 .cfa: x29 80 +
STACK CFI INIT 110fc 1a4 .cfa: sp 0 +
STACK CFI 11100 .cfa: sp 112 +
STACK CFI 11118 .cfa: x29 80 + x19: .cfa -8 + ^ x20: .cfa -16 + ^ x21: .cfa -24 + ^ x22: .cfa -32 + ^ x23: .cfa -40 + ^ x24: .cfa -48 + ^ x25: .cfa -56 + ^ x26: .cfa -64 + ^ .ra: .cfa -72 + ^ x29: .cfa -80 + ^
STACK CFI 11208 .cfa: sp 112 +
STACK CFI 11220 .cfa: sp 0 +
STACK CFI 11224 .cfa: x29 80 +
STACK CFI INIT 112a0 1dc .cfa: sp 0 +
STACK CFI 112a4 .cfa: sp 128 +
STACK CFI 112c0 .cfa: x29 96 + x19: .cfa -8 + ^ x20: .cfa -16 + ^ x21: .cfa -24 + ^ x22: .cfa -32 + ^ x23: .cfa -40 + ^ x24: .cfa -48 + ^ x25: .cfa -56 + ^ x26: .cfa -64 + ^ x27: .cfa -80 + ^ .ra: .cfa -88 + ^ x29: .cfa -96 + ^
STACK CFI 1142c .cfa: sp 128 +
STACK CFI 11448 .cfa: sp 0 +
STACK CFI 1144c .cfa: x29 96 +
STACK CFI INIT 11490 50 .cfa: sp 0 +
STACK CFI 11494 .cfa: sp 32 +
STACK CFI 1149c .cfa: x29 32 + x19: .cfa -8 + ^ x20: .cfa -16 + ^ .ra: .cfa -24 + ^ x29: .cfa -32 + ^
STACK CFI INIT 11544 178 .cfa: sp 0 +
STACK CFI 11548 .cfa: sp 80 +
STACK CFI 1155c .cfa: x29 80 + x19: .cfa -8 + ^ x20: .cfa -16 + ^ x21: .cfa -24 + ^ x22: .cfa -32 + ^ x23: .cfa -40 + ^ x24: .cfa -48 + ^ x25: .cfa -64 + ^ .ra: .cfa -72 + ^ x29: .cfa -80 + ^
STACK CFI 11688 .cfa: sp 80 +
STACK CFI 1169c .cfa: sp 0 +
STACK CFI 116a0 .cfa: x29 80 +
STACK CFI INIT 11804 228 .cfa: sp 0 +
STACK CFI 11808 .cfa: sp 128 +
STACK CFI 11820 .cfa: x29 80 + x19: .cfa -8 + ^ x20: .cfa -16 + ^ x21: .cfa -24 + ^ x22: .cfa -32 + ^ x23: .cfa -40 + ^ x24: .cfa -48 + ^ x25: .cfa -64 + ^ .ra: .cfa -72 + ^ x29: .cfa -80 + ^
STACK CFI 119bc .cfa: sp 128 +
STACK CFI 119d4 .cfa: sp 0 +
STACK CFI 119d8 .cfa: x29 80 +
STACK CFI INIT 11bc4 1fc .cfa: sp 0 +
STACK CFI 11bc8 .cfa: sp 80 +
STACK CFI 11bdc .cfa: x29 64 + x19: .cfa -8 + ^ x20: .cfa -16 + ^ x21: .cfa -24 + ^ x22: .cfa -32 + ^ x23: .cfa -48 + ^ .ra: .cfa -56 + ^ x29: .cfa -64 + ^
STACK CFI 11d70 .cfa: sp 80 +
STACK CFI 11d84 .cfa: sp 0 +
STACK CFI 11d88 .cfa: x29 64 +
STACK CFI INIT 11dc0 134 .cfa: sp 0 +
STACK CFI 11dc4 .cfa: sp 128 +
STACK CFI 11dd8 .cfa: x29 64 + x19: .cfa -8 + ^ x20: .cfa -16 + ^ x21: .cfa -24 + ^ x22: .cfa -32 + ^ x23: .cfa -40 + ^ x24: .cfa -48 + ^ .ra: .cfa -56 + ^ x29: .cfa -64 + ^
STACK CFI 11ea4 .cfa: sp 128 +
STACK CFI 11eb8 .cfa: sp 0 +
STACK CFI 11ebc .cfa: x29 64 +
STACK CFI INIT 11ef4 75c .cfa: sp 0 +
STACK CFI 11ef8 .cfa: sp 192 +
STACK CFI 11f18 .cfa: x29 96 + x19: .cfa -8 + ^ x20: .cfa -16 + ^ x21: .cfa -24 + ^ x22: .cfa -32 + ^ x23: .cfa -40 + ^ x24: .cfa -48 + ^ x25: .cfa -56 + ^ x26: .cfa -64 + ^ x27: .cfa -72 + ^ x28: .cfa -80 + ^ .ra: .cfa -88 + ^ x29: .cfa -96 + ^ v8: .cfa -104 + ^ v9: .cfa -112 + ^
STACK CFI 1259c .cfa: sp 192 +
STACK CFI 125bc .cfa: sp 0 +
STACK CFI 125c0 .cfa: x29 96 +
STACK CFI INIT 12690 a8 .cfa: sp 0 +
STACK CFI 12694 .cfa: sp 32 +
STACK CFI 1269c .cfa: x29 32 + x19: .cfa -16 + ^ .ra: .cfa -24 + ^ x29: .cfa -32 + ^
STACK CFI 126d0 .cfa: sp 32 +
STACK CFI 126d8 .cfa: sp 0 +
STACK CFI 126dc .cfa: x29 32 +
STACK CFI 126e0 .cfa: sp 32 +
STACK CFI 126e8 .cfa: sp 0 +
STACK CFI 126ec .cfa: x29 32 +
STACK CFI INIT 1288c 634 .cfa: sp 0 +
STACK CFI 12890 .cfa: sp 176 +
STACK CFI 128ac .cfa: x29 96 + x19: .cfa -8 + ^ x20: .cfa -16 + ^ x21: .cfa -24 + ^ x22: .cfa -32 + ^ x23: .cfa -40 + ^ x24: .cfa -48 + ^ x25: .cfa -56 + ^ x26: .cfa -64 + ^ x27: .cfa -72 + ^ x28: .cfa -80 + ^ .ra: .cfa -88 + ^ x29: .cfa -96 + ^
STACK CFI 12d5c .cfa: sp 176 +
STACK CFI 12d78 .cfa: sp 0 +
STACK CFI 12d7c .cfa: x29 96 +
STACK CFI INIT 12f6c 2d4 .cfa: sp 0 +
STACK CFI 12f70 .cfa: sp 128 +
STACK CFI 12f8c .cfa: x29 80 + x19: .cfa -8 + ^ x20: .cfa -16 + ^ x21: .cfa -24 + ^ x22: .cfa -32 + ^ x23: .cfa -40 + ^ x24: .cfa -48 + ^ x25: .cfa -56 + ^ x26: .cfa -64 + ^ .ra: .cfa -72 + ^ x29: .cfa -80 + ^ v8: .cfa -88 + ^ v9: .cfa -96 + ^
STACK CFI 130f4 .cfa: sp 128 +
STACK CFI 13110 .cfa: sp 0 +
STACK CFI 13114 .cfa: x29 80 +
STACK CFI INIT 13310 50 .cfa: sp 0 +
STACK CFI 13314 .cfa: sp 32 +
STACK CFI 1331c .cfa: x29 32 + x19: .cfa -8 + ^ x20: .cfa -16 + ^ .ra: .cfa -24 + ^ x29: .cfa -32 + ^
STACK CFI INIT 13930 174 .cfa: sp 0 +
STACK CFI 13934 .cfa: sp 112 +
STACK CFI 13944 .cfa: x29 48 + x19: .cfa -8 + ^ x20: .cfa -16 + ^ x21: .cfa -32 + ^ .ra: .cfa -40 + ^ x29: .cfa -48 + ^
STACK CFI 13a40 .cfa: sp 112 +
STACK CFI 13a50 .cfa: sp 0 +
STACK CFI 13a54 .cfa: x29 48 +
STACK CFI INIT 103fc 12c .cfa: sp 0 +
STACK CFI 10400 .cfa: sp 80 +
STACK CFI 10410 .cfa: x29 48 + x19: .cfa -8 + ^ x20: .cfa -16 + ^ x21: .cfa -32 + ^ .ra: .cfa -40 + ^ x29: .cfa -48 + ^
STACK CFI 104a8 .cfa: sp 80 +
STACK CFI 104b8 .cfa: sp 0 +
STACK CFI 104bc .cfa: x29 48 +
STACK CFI INIT 13cf8 158 .cfa: sp 0 +
STACK CFI 13cfc .cfa: sp 144 +
STACK CFI 13d10 .cfa: x29 64 + x19: .cfa -8 + ^ x20: .cfa -16 + ^ x21: .cfa -24 + ^ x22: .cfa -32 + ^ x23: .cfa -40 + ^ x24: .cfa -48 + ^ .ra: .cfa -56 + ^ x29: .cfa -64 + ^
STACK CFI 13de4 .cfa: sp 144 +
STACK CFI 13df8 .cfa: sp 0 +
STACK CFI 13dfc .cfa: x29 64 +
STACK CFI INIT 13f3c 338 .cfa: sp 0 +
STACK CFI 13f40 .cfa: sp 304 +
STACK CFI 13f54 .cfa: x29 64 + x19: .cfa -8 + ^ x20: .cfa -16 + ^ x21: .cfa -24 + ^ x22: .cfa -32 + ^ x28: .cfa -48 + ^ .ra: .cfa -56 + ^ x29: .cfa -64 + ^
STACK CFI 141f8 .cfa: sp 304 +
STACK CFI 1420c .cfa: sp 0 +
STACK CFI 14210 .cfa: x29 64 +
STACK CFI INIT 14364 1cc .cfa: sp 0 +
STACK CFI 14368 .cfa: sp 128 +
STACK CFI 14378 .cfa: x29 48 + x19: .cfa -8 + ^ x20: .cfa -16 + ^ x21: .cfa -32 + ^ .ra: .cfa -40 + ^ x29: .cfa -48 + ^
STACK CFI 144b4 .cfa: sp 128 +
STACK CFI 144c4 .cfa: sp 0 +
STACK CFI 144c8 .cfa: x29 48 +
STACK CFI INIT 1462c 204 .cfa: sp 0 +
STACK CFI 14630 .cfa: sp 128 +
STACK CFI 14644 .cfa: x29 64 + x19: .cfa -8 + ^ x20: .cfa -16 + ^ x21: .cfa -24 + ^ x22: .cfa -32 + ^ x23: .cfa -40 + ^ x24: .cfa -48 + ^ .ra: .cfa -56 + ^ x29: .cfa -64 + ^
STACK CFI 14768 .cfa: sp 128 +
STACK CFI 1477c .cfa: sp 0 +
STACK CFI 14780 .cfa: x29 64 +
STACK CFI INIT 14aec 1d0 .cfa: sp 0 +
STACK CFI 14af0 .cfa: sp 128 +
STACK CFI 14b04 .cfa: x29 64 + x19: .cfa -8 + ^ x20: .cfa -16 + ^ x21: .cfa -24 + ^ x22: .cfa -32 + ^ x23: .cfa -48 + ^ .ra: .cfa -56 + ^ x29: .cfa -64 + ^
STACK CFI 14c7c .cfa: sp 128 +
STACK CFI 14c90 .cfa: sp 0 +
STACK CFI 14c94 .cfa: x29 64 +
STACK CFI INIT 14fd0 1c4 .cfa: sp 0 +
STACK CFI 14fd4 .cfa: sp 112 +
STACK CFI 14fe4 .cfa: x29 48 + x19: .cfa -8 + ^ x20: .cfa -16 + ^ x21: .cfa -24 + ^ x22: .cfa -32 + ^ .ra: .cfa -40 + ^ x29: .cfa -48 + ^
STACK CFI 15158 .cfa: sp 112 +
STACK CFI 15168 .cfa: sp 0 +
STACK CFI 1516c .cfa: x29 48 +
STACK CFI INIT 151bc 198 .cfa: sp 0 +
STACK CFI 151c0 .cfa: sp 96 +
STACK CFI 151d0 .cfa: x29 48 + x19: .cfa -8 + ^ x20: .cfa -16 + ^ x21: .cfa -32 + ^ .ra: .cfa -40 + ^ x29: .cfa -48 + ^
STACK CFI 152ac .cfa: sp 96 +
STACK CFI 152bc .cfa: sp 0 +
STACK CFI 152c0 .cfa: x29 48 +
STACK CFI INIT 15394 1a8 .cfa: sp 0 +
STACK CFI 15398 .cfa: sp 176 +
STACK CFI 153ac .cfa: x29 64 + x19: .cfa -8 + ^ x20: .cfa -16 + ^ x21: .cfa -24 + ^ x22: .cfa -32 + ^ x23: .cfa -48 + ^ .ra: .cfa -56 + ^ x29: .cfa -64 + ^
STACK CFI 154e8 .cfa: sp 176 +
STACK CFI 154fc .cfa: sp 0 +
STACK CFI 15500 .cfa: x29 64 +
STACK CFI INIT 15564 550 .cfa: sp 0 +
STACK CFI 15568 .cfa: sp 448 +
STACK CFI 15584 .cfa: x29 96 + x19: .cfa -8 + ^ x20: .cfa -16 + ^ x21: .cfa -24 + ^ x22: .cfa -32 + ^ x23: .cfa -40 + ^ x24: .cfa -48 + ^ x25: .cfa -56 + ^ x26: .cfa -64 + ^ x27: .cfa -72 + ^ x28: .cfa -80 + ^ .ra: .cfa -88 + ^ x29: .cfa -96 + ^
STACK CFI 159cc .cfa: sp 448 +
STACK CFI 159e8 .cfa: sp 0 +
STACK CFI 159ec .cfa: x29 96 +
STACK CFI INIT 15ab4 74 .cfa: sp 0 +
STACK CFI 15ab8 .cfa: sp 48 +
STACK CFI 15ac4 .cfa: x29 32 + x19: .cfa -8 + ^ x20: .cfa -16 + ^ .ra: .cfa -24 + ^ x29: .cfa -32 + ^
STACK CFI 15b10 .cfa: sp 48 +
STACK CFI 15b1c .cfa: sp 0 +
STACK CFI 15b20 .cfa: x29 32 +
STACK CFI INIT 15cbc 1a8 .cfa: sp 0 +
STACK CFI 15cc0 .cfa: sp 176 +
STACK CFI 15cd4 .cfa: x29 64 + x19: .cfa -8 + ^ x20: .cfa -16 + ^ x21: .cfa -24 + ^ x22: .cfa -32 + ^ x23: .cfa -48 + ^ .ra: .cfa -56 + ^ x29: .cfa -64 + ^
STACK CFI 15e10 .cfa: sp 176 +
STACK CFI 15e24 .cfa: sp 0 +
STACK CFI 15e28 .cfa: x29 64 +
STACK CFI INIT 15e8c 77c .cfa: sp 0 +
STACK CFI 15e90 .cfa: sp 384 +
STACK CFI 15ea4 .cfa: x29 64 + x19: .cfa -8 + ^ x20: .cfa -16 + ^ x21: .cfa -24 + ^ x22: .cfa -32 + ^ x23: .cfa -40 + ^ x28: .cfa -48 + ^ .ra: .cfa -56 + ^ x29: .cfa -64 + ^
STACK CFI 16300 .cfa: sp 384 +
STACK CFI 16314 .cfa: sp 0 +
STACK CFI 16318 .cfa: x29 64 +
STACK CFI INIT 16690 134 .cfa: sp 0 +
STACK CFI 16694 .cfa: sp 80 +
STACK CFI 166a0 .cfa: x29 32 + x19: .cfa -8 + ^ x20: .cfa -16 + ^ .ra: .cfa -24 + ^ x29: .cfa -32 + ^
STACK CFI 166d0 .cfa: sp 80 +
STACK CFI 166dc .cfa: sp 0 +
STACK CFI 166e0 .cfa: x29 32 +
STACK CFI INIT 167c4 78 .cfa: sp 0 +
STACK CFI 167c8 .cfa: sp 32 +
STACK CFI 167d0 .cfa: x29 32 + x19: .cfa -8 + ^ x20: .cfa -16 + ^ .ra: .cfa -24 + ^ x29: .cfa -32 + ^
STACK CFI 167dc .cfa: sp 32 +
STACK CFI 167e4 .cfa: sp 0 +
STACK CFI 167e8 .cfa: x29 32 +
STACK CFI INIT 1683c 74 .cfa: sp 0 +
STACK CFI 16840 .cfa: sp 48 +
STACK CFI 1684c .cfa: x29 32 + x19: .cfa -8 + ^ x20: .cfa -16 + ^ .ra: .cfa -24 + ^ x29: .cfa -32 + ^
STACK CFI 16898 .cfa: sp 48 +
STACK CFI 168a4 .cfa: sp 0 +
STACK CFI 168a8 .cfa: x29 32 +
STACK CFI INIT 16938 25c .cfa: sp 0 +
STACK CFI 1693c .cfa: sp 128 +
STACK CFI 1694c .cfa: x29 48 + x19: .cfa -8 + ^ x20: .cfa -16 + ^ x21: .cfa -32 + ^ .ra: .cfa -40 + ^ x29: .cfa -48 + ^
STACK CFI 16a34 .cfa: sp 128 +
STACK CFI 16a44 .cfa: sp 0 +
STACK CFI 16a48 .cfa: x29 48 +
STACK CFI INIT 16bb8 2b8 .cfa: sp 0 +
STACK CFI 16bbc .cfa: sp 144 +
STACK CFI 16bd0 .cfa: x29 64 + x19: .cfa -8 + ^ x20: .cfa -16 + ^ x21: .cfa -24 + ^ x22: .cfa -32 + ^ x23: .cfa -48 + ^ .ra: .cfa -56 + ^ x29: .cfa -64 + ^
STACK CFI 16d1c .cfa: sp 144 +
STACK CFI 16d30 .cfa: sp 0 +
STACK CFI 16d34 .cfa: x29 64 +
STACK CFI INIT 16e94 2b8 .cfa: sp 0 +
STACK CFI 16e98 .cfa: sp 128 +
STACK CFI 16ea8 .cfa: x29 48 + x19: .cfa -8 + ^ x20: .cfa -16 + ^ x21: .cfa -32 + ^ .ra: .cfa -40 + ^ x29: .cfa -48 + ^
STACK CFI 16fd4 .cfa: sp 128 +
STACK CFI 16fe4 .cfa: sp 0 +
STACK CFI 16fe8 .cfa: x29 48 +
STACK CFI INIT 1714c 338 .cfa: sp 0 +
STACK CFI 17150 .cfa: sp 144 +
STACK CFI 17164 .cfa: x29 64 + x19: .cfa -8 + ^ x20: .cfa -16 + ^ x21: .cfa -24 + ^ x22: .cfa -32 + ^ x23: .cfa -48 + ^ .ra: .cfa -56 + ^ x29: .cfa -64 + ^
STACK CFI 17300 .cfa: sp 144 +
STACK CFI 17314 .cfa: sp 0 +
STACK CFI 17318 .cfa: x29 64 +
STACK CFI INIT 174a8 1c8 .cfa: sp 0 +
STACK CFI 174ac .cfa: sp 192 +
STACK CFI 174c8 .cfa: x29 64 + x19: .cfa -8 + ^ x20: .cfa -16 + ^ x21: .cfa -24 + ^ x22: .cfa -32 + ^ x23: .cfa -40 + ^ x24: .cfa -48 + ^ .ra: .cfa -56 + ^ x29: .cfa -64 + ^ v8: .cfa -72 + ^ v9: .cfa -80 + ^ v10: .cfa -96 + ^
STACK CFI 1755c .cfa: sp 192 +
STACK CFI 17578 .cfa: sp 0 +
STACK CFI 1757c .cfa: x29 64 +
STACK CFI INIT 17670 17c .cfa: sp 0 +
STACK CFI 17674 .cfa: sp 80 +
STACK CFI 17684 .cfa: x29 48 + x19: .cfa -8 + ^ x20: .cfa -16 + ^ x21: .cfa -24 + ^ x22: .cfa -32 + ^ .ra: .cfa -40 + ^ x29: .cfa -48 + ^
STACK CFI 1778c .cfa: sp 80 +
STACK CFI 1779c .cfa: sp 0 +
STACK CFI 177a0 .cfa: x29 48 +
STACK CFI INIT 177f0 2a0 .cfa: sp 0 +
STACK CFI 177f4 .cfa: sp 144 +
STACK CFI 17808 .cfa: x29 64 + x19: .cfa -8 + ^ x20: .cfa -16 + ^ x21: .cfa -24 + ^ x22: .cfa -32 + ^ x23: .cfa -48 + ^ .ra: .cfa -56 + ^ x29: .cfa -64 + ^
STACK CFI 1793c .cfa: sp 144 +
STACK CFI 17950 .cfa: sp 0 +
STACK CFI 17954 .cfa: x29 64 +
STACK CFI INIT 17a90 4f4 .cfa: sp 0 +
STACK CFI 17a94 .cfa: sp 144 +
STACK CFI 17aa8 .cfa: x29 64 + x19: .cfa -8 + ^ x20: .cfa -16 + ^ x21: .cfa -24 + ^ x22: .cfa -32 + ^ x23: .cfa -48 + ^ .ra: .cfa -56 + ^ x29: .cfa -64 + ^
STACK CFI 17ddc .cfa: sp 144 +
STACK CFI 17df0 .cfa: sp 0 +
STACK CFI 17df4 .cfa: x29 64 +
STACK CFI INIT 17f84 154 .cfa: sp 0 +
STACK CFI 17f88 .cfa: sp 384 +
STACK CFI 17f9c .cfa: x29 64 + x19: .cfa -8 + ^ x20: .cfa -16 + ^ x21: .cfa -24 + ^ x22: .cfa -32 + ^ x23: .cfa -40 + ^ x28: .cfa -48 + ^ .ra: .cfa -56 + ^ x29: .cfa -64 + ^
STACK CFI 18080 .cfa: sp 384 +
STACK CFI 18094 .cfa: sp 0 +
STACK CFI 18098 .cfa: x29 64 +
STACK CFI INIT 180d8 168 .cfa: sp 0 +
STACK CFI 180dc .cfa: sp 384 +
STACK CFI 180f0 .cfa: x29 64 + x19: .cfa -8 + ^ x20: .cfa -16 + ^ x21: .cfa -24 + ^ x22: .cfa -32 + ^ x23: .cfa -40 + ^ x28: .cfa -48 + ^ .ra: .cfa -56 + ^ x29: .cfa -64 + ^
STACK CFI 181e8 .cfa: sp 384 +
STACK CFI 181fc .cfa: sp 0 +
STACK CFI 18200 .cfa: x29 64 +
STACK CFI INIT 18258 50c .cfa: sp 0 +
STACK CFI 1825c .cfa: sp 64 +
STACK CFI 1826c .cfa: x29 64 + x19: .cfa -8 + ^ x20: .cfa -16 + ^ x21: .cfa -24 + ^ x22: .cfa -32 + ^ x23: .cfa -40 + ^ x24: .cfa -48 + ^ .ra: .cfa -56 + ^ x29: .cfa -64 + ^
STACK CFI 1838c .cfa: sp 64 +
STACK CFI 1839c .cfa: sp 0 +
STACK CFI 183a0 .cfa: x29 64 +
STACK CFI 18738 .cfa: sp 64 +
STACK CFI 18748 .cfa: sp 0 +
STACK CFI 1874c .cfa: x29 64 +
