MODULE Linux arm64 85D3138A7DEFE944F65FAC33A173D2310 cvolton.level-id-api.android64.so
INFO CODE_ID 8A13D385EF7D44E9F65FAC33A173D231B5D0DD0B
INFO GENERATOR mozilla/dump_syms 2.3.4
PUBLIC cc20 0 __on_dlclose
PUBLIC cc30 0 __emutls_unregister_key
PUBLIC cc38 0 __on_dlclose_late
PUBLIC cc40 0 __atexit_handler_wrapper
PUBLIC cc54 0 atexit
PUBLIC cc70 0 pthread_atfork
PUBLIC cc80 0 __aarch64_ldadd8_relax
PUBLIC ccb0 0 init_have_lse_atomics
PUBLIC cd48 0 __init_cpu_features_constructor
PUBLIC d2e4 0 __init_cpu_features
PUBLIC d370 0 __aarch64_ldadd8_acq_rel
PUBLIC d3a0 0 __cxx_global_var_init
PUBLIC d7fc 0 __cxx_global_var_init.1
PUBLIC dc58 0 __cxx_global_var_init.2
PUBLIC e0b4 0 __cxx_global_var_init.3
PUBLIC e510 0 __cxx_global_var_init.4
PUBLIC e96c 0 __cxx_global_var_init.5
PUBLIC edc8 0 __cxx_global_var_init.6
PUBLIC f224 0 geode::modifier::ModifyBase<geode::modifier::ModifyDerive<hook7<(anonymous namespace)::hook7Parent>, GJGameLevel> >::~ModifyBase()
PUBLIC f23c 0 geode::modifier::ModifyBase<geode::modifier::ModifyDerive<hook25<(anonymous namespace)::hook25Parent>, GJLevelList> >::~ModifyBase()
PUBLIC f254 0 geode::modifier::ModifyBase<geode::modifier::ModifyDerive<hook45<(anonymous namespace)::hook45Parent>, LocalLevelManager> >::~ModifyBase()
PUBLIC f26c 0 geode::modifier::ModifyBase<geode::modifier::ModifyDerive<hook64<(anonymous namespace)::hook64Parent>, GameManager> >::~ModifyBase()
PUBLIC f284 0 geode::modifier::ModifyBase<geode::modifier::ModifyDerive<hook81<(anonymous namespace)::hook81Parent>, GameLevelManager> >::~ModifyBase()
PUBLIC f29c 0 geode::modifier::ModifyBase<geode::modifier::ModifyDerive<hook96<(anonymous namespace)::hook96Parent>, LevelCell> >::~ModifyBase()
PUBLIC f2b4 0 geode::modifier::ModifyBase<geode::modifier::ModifyDerive<hook118<(anonymous namespace)::hook118Parent>, LevelListCell> >::~ModifyBase()
PUBLIC f2cc 0 geode::modifier::ModifyDerive<hook7<(anonymous namespace)::hook7Parent>, GJGameLevel>::apply()
PUBLIC f8f0 0 std::__ndk1::shared_ptr<geode::Hook>::~shared_ptr[abi:ne180000]()
PUBLIC f940 0 geode::impl::ResultData<geode::Hook*, std::__ndk1::basic_string<char, std::__ndk1::char_traits<char>, std::__ndk1::allocator<char> > >::~ResultData()
PUBLIC f9b4 0 std::__ndk1::vector<std::__ndk1::basic_string<char, std::__ndk1::char_traits<char>, std::__ndk1::allocator<char> >, std::__ndk1::allocator<std::__ndk1::basic_string<char, std::__ndk1::char_traits<char>, std::__ndk1::allocator<char> > > >::~vector[abi:ne180000]()
PUBLIC fa30 0 geode::modifier::ModifyBase<geode::modifier::ModifyDerive<hook7<(anonymous namespace)::hook7Parent>, GJGameLevel> >::apply()
PUBLIC fa34 0 __clang_call_terminate
PUBLIC fa44 0 _ZN5geode15UnwrapExceptionC2IRPNS_4HookEQsr4implE18IsStringStreamableIT_EEENS_4impl5OkTagEOS5_
PUBLIC 10140 0 std::__ndk1::__throw_bad_variant_access[abi:ne180000]()
PUBLIC m 10174 0 std::__ndk1::basic_stringstream<char, std::__ndk1::char_traits<char>, std::__ndk1::allocator<char> >::~basic_stringstream()
PUBLIC 101f4 0 geode::UnwrapException::~UnwrapException()
PUBLIC 10218 0 std::__ndk1::basic_string<char, std::__ndk1::char_traits<char>, std::__ndk1::allocator<char> >::__throw_length_error[abi:ne180000]() const
PUBLIC 1022c 0 std::__ndk1::__throw_length_error[abi:ne180000](char const*)
PUBLIC 1027c 0 std::length_error::length_error[abi:ne180000](char const*)
PUBLIC 102ac 0 std::__throw_bad_array_new_length([abi:ne180000], void)
PUBLIC 102e0 0 std::__ndk1::vector<std::__ndk1::basic_string<char, std::__ndk1::char_traits<char>, std::__ndk1::allocator<char> >, std::__ndk1::allocator<std::__ndk1::basic_string<char, std::__ndk1::char_traits<char>, std::__ndk1::allocator<char> > > >::__push_back_slow_path<std::__ndk1::basic_string<char, std::__ndk1::char_traits<char>, std::__ndk1::allocator<char> > const&>(std::__ndk1::basic_string<char, std::__ndk1::char_traits<char>, std::__ndk1::allocator<char> > const&)
PUBLIC 10504 0 std::__ndk1::basic_string<char, std::__ndk1::char_traits<char>, std::__ndk1::allocator<char> >::__init_copy_ctor_external(char const*, unsigned long)
PUBLIC 10584 0 std::__ndk1::__split_buffer<std::__ndk1::basic_string<char, std::__ndk1::char_traits<char>, std::__ndk1::allocator<char> >, std::__ndk1::allocator<std::__ndk1::basic_string<char, std::__ndk1::char_traits<char>, std::__ndk1::allocator<char> > >&>::~__split_buffer()
PUBLIC 105ec 0 std::__ndk1::vector<std::__ndk1::basic_string<char, std::__ndk1::char_traits<char>, std::__ndk1::allocator<char> >, std::__ndk1::allocator<std::__ndk1::basic_string<char, std::__ndk1::char_traits<char>, std::__ndk1::allocator<char> > > >::__throw_length_error[abi:ne180000]() const
PUBLIC 10600 0 std::__ndk1::__variant_detail::__visitation::__base::__dispatcher<(unsigned long)0>::__dispatch[abi:ne180000]<std::__ndk1::__variant_detail::__dtor<std::__ndk1::__variant_detail::__traits<geode::Hook*, std::__ndk1::basic_string<char, std::__ndk1::char_traits<char>, std::__ndk1::allocator<char> > >, (std::__ndk1::__variant_detail::_Trait)1>::__destroy[abi:ne180000]()::{lambda(auto:1&)#1}, std::__ndk1::__variant_detail::__base<(std::__ndk1::__variant_detail::__traits<geode::Hook*, std::__ndk1::basic_string<char, std::__ndk1::char_traits<char>, std::__ndk1::allocator<char> > >)1, geode::Hook, std::__ndk1::allocator<char> >&>(std::__ndk1::__variant_detail::__dtor<std::__ndk1::__variant_detail::__traits<geode::Hook*, std::__ndk1::basic_string<char, std::__ndk1::char_traits<char>, std::__ndk1::allocator<char> > >, (std::__ndk1::__variant_detail::_Trait)1>, std::__ndk1::__variant_detail::__base<(std::__ndk1::__variant_detail::__traits<geode::Hook*, std::__ndk1::basic_string<char, std::__ndk1::char_traits<char>, std::__ndk1::allocator<char> > >)1, geode::Hook, std::__ndk1::allocator<char> >&)
PUBLIC 10604 0 std::__ndk1::__variant_detail::__visitation::__base::__dispatcher<(unsigned long)1>::__dispatch[abi:ne180000]<std::__ndk1::__variant_detail::__dtor<std::__ndk1::__variant_detail::__traits<geode::Hook*, std::__ndk1::basic_string<char, std::__ndk1::char_traits<char>, std::__ndk1::allocator<char> > >, (std::__ndk1::__variant_detail::_Trait)1>::__destroy[abi:ne180000]()::{lambda(auto:1&)#1}, std::__ndk1::__variant_detail::__base<(std::__ndk1::__variant_detail::__traits<geode::Hook*, std::__ndk1::basic_string<char, std::__ndk1::char_traits<char>, std::__ndk1::allocator<char> > >)1, geode::Hook, std::__ndk1::allocator<char> >&>(std::__ndk1::__variant_detail::__dtor<std::__ndk1::__variant_detail::__traits<geode::Hook*, std::__ndk1::basic_string<char, std::__ndk1::char_traits<char>, std::__ndk1::allocator<char> > >, (std::__ndk1::__variant_detail::_Trait)1>, std::__ndk1::__variant_detail::__base<(std::__ndk1::__variant_detail::__traits<geode::Hook*, std::__ndk1::basic_string<char, std::__ndk1::char_traits<char>, std::__ndk1::allocator<char> > >)1, geode::Hook, std::__ndk1::allocator<char> >&)
PUBLIC 10618 0 std::__ndk1::__tree<std::__ndk1::__value_type<std::__ndk1::basic_string<char, std::__ndk1::char_traits<char>, std::__ndk1::allocator<char> >, std::__ndk1::shared_ptr<geode::Hook> >, std::__ndk1::__map_value_compare<std::__ndk1::basic_string<char, std::__ndk1::char_traits<char>, std::__ndk1::allocator<char> >, std::__ndk1::__value_type<std::__ndk1::basic_string<char, std::__ndk1::char_traits<char>, std::__ndk1::allocator<char> >, std::__ndk1::shared_ptr<geode::Hook> >, std::__ndk1::less<std::__ndk1::basic_string<char, std::__ndk1::char_traits<char>, std::__ndk1::allocator<char> > >, true>, std::__ndk1::allocator<std::__ndk1::__value_type<std::__ndk1::basic_string<char, std::__ndk1::char_traits<char>, std::__ndk1::allocator<char> >, std::__ndk1::shared_ptr<geode::Hook> > > >::find<std::__ndk1::basic_string<char, std::__ndk1::char_traits<char>, std::__ndk1::allocator<char> > >(std::__ndk1::basic_string<char, std::__ndk1::char_traits<char>, std::__ndk1::allocator<char> > const&)
PUBLIC 10738 0 std::__ndk1::__tree<std::__ndk1::__value_type<std::__ndk1::basic_string<char, std::__ndk1::char_traits<char>, std::__ndk1::allocator<char> >, std::__ndk1::shared_ptr<geode::Hook> >, std::__ndk1::__map_value_compare<std::__ndk1::basic_string<char, std::__ndk1::char_traits<char>, std::__ndk1::allocator<char> >, std::__ndk1::__value_type<std::__ndk1::basic_string<char, std::__ndk1::char_traits<char>, std::__ndk1::allocator<char> >, std::__ndk1::shared_ptr<geode::Hook> >, std::__ndk1::less<std::__ndk1::basic_string<char, std::__ndk1::char_traits<char>, std::__ndk1::allocator<char> > >, true>, std::__ndk1::allocator<std::__ndk1::__value_type<std::__ndk1::basic_string<char, std::__ndk1::char_traits<char>, std::__ndk1::allocator<char> >, std::__ndk1::shared_ptr<geode::Hook> > > >::erase(std::__ndk1::__tree_const_iterator<std::__ndk1::__value_type<std::__ndk1::basic_string<char, std::__ndk1::char_traits<char>, std::__ndk1::allocator<char> >, std::__ndk1::shared_ptr<geode::Hook> >, std::__ndk1::__tree_node<std::__ndk1::__value_type<std::__ndk1::basic_string<char, std::__ndk1::char_traits<char>, std::__ndk1::allocator<char> >, std::__ndk1::shared_ptr<geode::Hook> >, void*>*, long>)
PUBLIC 10bdc 0 std::__ndk1::__tree<std::__ndk1::__value_type<std::__ndk1::basic_string<char, std::__ndk1::char_traits<char>, std::__ndk1::allocator<char> >, std::__ndk1::shared_ptr<geode::Hook> >, std::__ndk1::__map_value_compare<std::__ndk1::basic_string<char, std::__ndk1::char_traits<char>, std::__ndk1::allocator<char> >, std::__ndk1::__value_type<std::__ndk1::basic_string<char, std::__ndk1::char_traits<char>, std::__ndk1::allocator<char> >, std::__ndk1::shared_ptr<geode::Hook> >, std::__ndk1::less<std::__ndk1::basic_string<char, std::__ndk1::char_traits<char>, std::__ndk1::allocator<char> > >, true>, std::__ndk1::allocator<std::__ndk1::__value_type<std::__ndk1::basic_string<char, std::__ndk1::char_traits<char>, std::__ndk1::allocator<char> >, std::__ndk1::shared_ptr<geode::Hook> > > >::destroy(std::__ndk1::__tree_node<std::__ndk1::__value_type<std::__ndk1::basic_string<char, std::__ndk1::char_traits<char>, std::__ndk1::allocator<char> >, std::__ndk1::shared_ptr<geode::Hook> >, void*>*)
PUBLIC 10c60 0 geode::modifier::AsStaticFunction_dataLoaded<hook7<(anonymous namespace)::hook7Parent>, void (hook7<(anonymous namespace)::hook7Parent>::*)(DS_Dictionary*)>::Impl<void (hook7<(anonymous namespace)::hook7Parent>::*)(DS_Dictionary*)>::function(hook7<(anonymous namespace)::hook7Parent>*, DS_Dictionary*)
PUBLIC 10c84 0 geode::modifier::AsStaticFunction_handleStatsConflict<hook7<(anonymous namespace)::hook7Parent>, void (hook7<(anonymous namespace)::hook7Parent>::*)(GJGameLevel*)>::Impl<void (hook7<(anonymous namespace)::hook7Parent>::*)(GJGameLevel*)>::function(hook7<(anonymous namespace)::hook7Parent>*, GJGameLevel*)
PUBLIC 10cc8 0 std::__ndk1::shared_ptr<tulip::hook::CallingConvention>::~shared_ptr[abi:ne180000]()
PUBLIC 10d18 0 tulip::hook::HandlerMetadata::~HandlerMetadata()
PUBLIC 10d7c 0 std::__ndk1::__tree<std::__ndk1::__value_type<std::__ndk1::basic_string<char, std::__ndk1::char_traits<char>, std::__ndk1::allocator<char> >, std::__ndk1::shared_ptr<geode::Hook> >, std::__ndk1::__map_value_compare<std::__ndk1::basic_string<char, std::__ndk1::char_traits<char>, std::__ndk1::allocator<char> >, std::__ndk1::__value_type<std::__ndk1::basic_string<char, std::__ndk1::char_traits<char>, std::__ndk1::allocator<char> >, std::__ndk1::shared_ptr<geode::Hook> >, std::__ndk1::less<std::__ndk1::basic_string<char, std::__ndk1::char_traits<char>, std::__ndk1::allocator<char> > >, true>, std::__ndk1::allocator<std::__ndk1::__value_type<std::__ndk1::basic_string<char, std::__ndk1::char_traits<char>, std::__ndk1::allocator<char> >, std::__ndk1::shared_ptr<geode::Hook> > > >::__emplace_unique_key_args<std::__ndk1::basic_string<char, std::__ndk1::char_traits<char>, std::__ndk1::allocator<char> >, std::__ndk1::piecewise_construct_t const&, std::__ndk1::tuple<std::__ndk1::basic_string<char, std::__ndk1::char_traits<char>, std::__ndk1::allocator<char> >&&>, std::__ndk1::tuple<> >(std::__ndk1::basic_string<char, std::__ndk1::char_traits<char>, std::__ndk1::allocator<char> > const&, std::__ndk1::piecewise_construct_t const&, std::__ndk1::tuple<std::__ndk1::basic_string<char, std::__ndk1::char_traits<char>, std::__ndk1::allocator<char> >&&>, std::__ndk1::tuple<>)
PUBLIC 10ee4 0 std::__ndk1::__tree_balance_after_insert[abi:ne180000]<std::__ndk1::__tree_node_base<void*>*>(std::__ndk1::__tree_node_base<void*>*, std::__ndk1::__tree_node_base<void*>*)
PUBLIC 11094 0 geode::modifier::ModifyDerive<hook25<(anonymous namespace)::hook25Parent>, GJLevelList>::apply()
PUBLIC 116c4 0 geode::modifier::ModifyBase<geode::modifier::ModifyDerive<hook25<(anonymous namespace)::hook25Parent>, GJLevelList> >::apply()
PUBLIC 116c8 0 geode::modifier::AsStaticFunction_dataLoaded<hook25<(anonymous namespace)::hook25Parent>, void (hook25<(anonymous namespace)::hook25Parent>::*)(DS_Dictionary*)>::Impl<void (hook25<(anonymous namespace)::hook25Parent>::*)(DS_Dictionary*)>::function(hook25<(anonymous namespace)::hook25Parent>*, DS_Dictionary*)
PUBLIC 116ec 0 geode::modifier::AsStaticFunction_hasMatchingLevels<hook25<(anonymous namespace)::hook25Parent>, bool (hook25<(anonymous namespace)::hook25Parent>::*)(GJLevelList*)>::Impl<bool (hook25<(anonymous namespace)::hook25Parent>::*)(GJLevelList*)>::function(hook25<(anonymous namespace)::hook25Parent>*, GJLevelList*)
PUBLIC 1173c 0 geode::modifier::ModifyDerive<hook45<(anonymous namespace)::hook45Parent>, LocalLevelManager>::apply()
PUBLIC 11d38 0 geode::modifier::ModifyBase<geode::modifier::ModifyDerive<hook45<(anonymous namespace)::hook45Parent>, LocalLevelManager> >::apply()
PUBLIC 11d3c 0 geode::modifier::AsStaticFunction_dataLoaded<hook45<(anonymous namespace)::hook45Parent>, void (hook45<(anonymous namespace)::hook45Parent>::*)(DS_Dictionary*)>::Impl<void (hook45<(anonymous namespace)::hook45Parent>::*)(DS_Dictionary*)>::function(hook45<(anonymous namespace)::hook45Parent>*, DS_Dictionary*)
PUBLIC 11e1c 0 geode::modifier::AsStaticFunction_firstLoad<hook45<(anonymous namespace)::hook45Parent>, void (hook45<(anonymous namespace)::hook45Parent>::*)()>::Impl<void (hook45<(anonymous namespace)::hook45Parent>::*)()>::function(hook45<(anonymous namespace)::hook45Parent>*)
PUBLIC 11e34 0 geode::addresser::Addresser::addressOfVirtual<void, LocalLevelManager, DS_Dictionary*>(void (LocalLevelManager::*)(DS_Dictionary*))
PUBLIC 11efc 0 LocalLevelManager::LocalLevelManager(geode::ZeroConstructorType)
PUBLIC 1200c 0 std::__ndk1::__function::__base<void ()>::~__base()
PUBLIC 12010 0 std::__ndk1::__function::__func<hook45<(anonymous namespace)::hook45Parent>::dataLoaded(DS_Dictionary*)::{lambda()#1}, std::__ndk1::allocator<hook45<(anonymous namespace)::hook45Parent>::dataLoaded(DS_Dictionary*)::{lambda()#1}>, void ()>::~__func()
PUBLIC 12014 0 std::__ndk1::__function::__func<hook45<(anonymous namespace)::hook45Parent>::dataLoaded(DS_Dictionary*)::{lambda()#1}, std::__ndk1::allocator<hook45<(anonymous namespace)::hook45Parent>::dataLoaded(DS_Dictionary*)::{lambda()#1}>, void ()>::__clone() const
PUBLIC 12048 0 std::__ndk1::__function::__func<hook45<(anonymous namespace)::hook45Parent>::dataLoaded(DS_Dictionary*)::{lambda()#1}, std::__ndk1::allocator<hook45<(anonymous namespace)::hook45Parent>::dataLoaded(DS_Dictionary*)::{lambda()#1}>, void ()>::__clone(std::__ndk1::__function::__base<void ()>*) const
PUBLIC 1205c 0 std::__ndk1::__function::__func<hook45<(anonymous namespace)::hook45Parent>::dataLoaded(DS_Dictionary*)::{lambda()#1}, std::__ndk1::allocator<hook45<(anonymous namespace)::hook45Parent>::dataLoaded(DS_Dictionary*)::{lambda()#1}>, void ()>::destroy()
PUBLIC 12060 0 std::__ndk1::__function::__func<hook45<(anonymous namespace)::hook45Parent>::dataLoaded(DS_Dictionary*)::{lambda()#1}, std::__ndk1::allocator<hook45<(anonymous namespace)::hook45Parent>::dataLoaded(DS_Dictionary*)::{lambda()#1}>, void ()>::destroy_deallocate()
PUBLIC 12064 0 std::__ndk1::__function::__func<hook45<(anonymous namespace)::hook45Parent>::dataLoaded(DS_Dictionary*)::{lambda()#1}, std::__ndk1::allocator<hook45<(anonymous namespace)::hook45Parent>::dataLoaded(DS_Dictionary*)::{lambda()#1}>, void ()>::operator()()
PUBLIC 1208c 0 std::__ndk1::__function::__func<hook45<(anonymous namespace)::hook45Parent>::dataLoaded(DS_Dictionary*)::{lambda()#1}, std::__ndk1::allocator<hook45<(anonymous namespace)::hook45Parent>::dataLoaded(DS_Dictionary*)::{lambda()#1}>, void ()>::target(std::type_info const&) const
PUBLIC 120a8 0 std::__ndk1::__function::__func<hook45<(anonymous namespace)::hook45Parent>::dataLoaded(DS_Dictionary*)::{lambda()#1}, std::__ndk1::allocator<hook45<(anonymous namespace)::hook45Parent>::dataLoaded(DS_Dictionary*)::{lambda()#1}>, void ()>::target_type() const
PUBLIC 120b4 0 geode::addresser::Addresser::addressOfVirtual<void, LocalLevelManager, >(void (LocalLevelManager::*)())
PUBLIC 1217c 0 geode::modifier::ModifyDerive<hook64<(anonymous namespace)::hook64Parent>, GameManager>::apply()
PUBLIC 125e8 0 geode::modifier::ModifyBase<geode::modifier::ModifyDerive<hook64<(anonymous namespace)::hook64Parent>, GameManager> >::apply()
PUBLIC 125ec 0 geode::Hook::create<void (*)(hook64<(anonymous namespace)::hook64Parent>*, DS_Dictionary*)>(void*, void (*)(hook64<(anonymous namespace)::hook64Parent>*, DS_Dictionary*), std::__ndk1::basic_string<char, std::__ndk1::char_traits<char>, std::__ndk1::allocator<char> > const&, tulip::hook::TulipConvention, tulip::hook::HookMetadata const&)
PUBLIC 12770 0 geode::modifier::AsStaticFunction_encodeDataTo<hook64<(anonymous namespace)::hook64Parent>, void (hook64<(anonymous namespace)::hook64Parent>::*)(DS_Dictionary*)>::Impl<void (hook64<(anonymous namespace)::hook64Parent>::*)(DS_Dictionary*)>::function(hook64<(anonymous namespace)::hook64Parent>*, DS_Dictionary*)
PUBLIC 127c4 0 geode::modifier::AsStaticFunction_dataLoaded<hook64<(anonymous namespace)::hook64Parent>, void (hook64<(anonymous namespace)::hook64Parent>::*)(DS_Dictionary*)>::Impl<void (hook64<(anonymous namespace)::hook64Parent>::*)(DS_Dictionary*)>::function(hook64<(anonymous namespace)::hook64Parent>*, DS_Dictionary*)
PUBLIC 128fc 0 geode::addresser::Addresser::addressOfVirtual<void, GameManager, DS_Dictionary*>(void (GameManager::*)(DS_Dictionary*))
PUBLIC 129e8 0 GameManager::GameManager(geode::ZeroConstructorType)
PUBLIC 12c48 0 std::__ndk1::__tree<std::__ndk1::__value_type<int, gd::map<int, int> >, std::__ndk1::__map_value_compare<int, std::__ndk1::__value_type<int, gd::map<int, int> >, std::__ndk1::less<int>, true>, std::__ndk1::allocator<std::__ndk1::__value_type<int, gd::map<int, int> > > >::destroy(std::__ndk1::__tree_node<std::__ndk1::__value_type<int, gd::map<int, int> >, void*>*)
PUBLIC 12c8c 0 std::__ndk1::__tree<std::__ndk1::__value_type<int, gd::vector<cocos2d::CCObject*> >, std::__ndk1::__map_value_compare<int, std::__ndk1::__value_type<int, gd::vector<cocos2d::CCObject*> >, std::__ndk1::less<int>, true>, std::__ndk1::allocator<std::__ndk1::__value_type<int, gd::vector<cocos2d::CCObject*> > > >::destroy(std::__ndk1::__tree_node<std::__ndk1::__value_type<int, gd::vector<cocos2d::CCObject*> >, void*>*)
PUBLIC 12cd0 0 gd::map<int, gd::vector<cocos2d::CCObject*> >::erase(geode::stl::_rb_tree_node<std::__ndk1::pair<int, gd::vector<cocos2d::CCObject*> > >*)
PUBLIC 12d24 0 gd::map<int, bool>::erase(geode::stl::_rb_tree_node<std::__ndk1::pair<int, bool> >*)
PUBLIC 12d70 0 gd::map<int, gd::map<int, int> >::erase(geode::stl::_rb_tree_node<std::__ndk1::pair<int, gd::map<int, int> > >*)
PUBLIC 12dc4 0 gd::map<int, int>::erase(geode::stl::_rb_tree_node<std::__ndk1::pair<int, int> >*)
PUBLIC 12e10 0 geode::modifier::ModifyDerive<hook81<(anonymous namespace)::hook81Parent>, GameLevelManager>::apply()
PUBLIC 13444 0 geode::modifier::ModifyBase<geode::modifier::ModifyDerive<hook81<(anonymous namespace)::hook81Parent>, GameLevelManager> >::apply()
PUBLIC 13448 0 geode::modifier::AsStaticFunction_deleteLevel<hook81<(anonymous namespace)::hook81Parent>, void (hook81<(anonymous namespace)::hook81Parent>::*)(GJGameLevel*)>::Impl<void (hook81<(anonymous namespace)::hook81Parent>::*)(GJGameLevel*)>::function(hook81<(anonymous namespace)::hook81Parent>*, GJGameLevel*)
PUBLIC 13478 0 geode::modifier::AsStaticFunction_deleteLevelList<hook81<(anonymous namespace)::hook81Parent>, void (hook81<(anonymous namespace)::hook81Parent>::*)(GJLevelList*)>::Impl<void (hook81<(anonymous namespace)::hook81Parent>::*)(GJLevelList*)>::function(hook81<(anonymous namespace)::hook81Parent>*, GJLevelList*)
PUBLIC 134a8 0 geode::modifier::ModifyDerive<hook96<(anonymous namespace)::hook96Parent>, LevelCell>::apply()
PUBLIC 137d8 0 geode::modifier::ModifyBase<geode::modifier::ModifyDerive<hook96<(anonymous namespace)::hook96Parent>, LevelCell> >::apply()
PUBLIC 137dc 0 geode::modifier::AsStaticFunction_loadLocalLevelCell<hook96<(anonymous namespace)::hook96Parent>, void (hook96<(anonymous namespace)::hook96Parent>::*)()>::Impl<void (hook96<(anonymous namespace)::hook96Parent>::*)()>::function(hook96<(anonymous namespace)::hook96Parent>*)
PUBLIC 13be0 0 geode::Mod::getSettingValue<bool>(std::__ndk1::basic_string_view<char, std::__ndk1::char_traits<char> >) const
PUBLIC 13d14 0 geode::cast::traverseTypeinfoFor(void*, geode::cast::ClassTypeinfoType const*, char const*)
PUBLIC 13e18 0 geode::modifier::ModifyDerive<hook118<(anonymous namespace)::hook118Parent>, LevelListCell>::apply()
PUBLIC 1418c 0 geode::modifier::ModifyBase<geode::modifier::ModifyDerive<hook118<(anonymous namespace)::hook118Parent>, LevelListCell> >::apply()
PUBLIC 14190 0 geode::modifier::AsStaticFunction_loadFromList<hook118<(anonymous namespace)::hook118Parent>, void (hook118<(anonymous namespace)::hook118Parent>::*)(GJLevelList*)>::Impl<void (hook118<(anonymous namespace)::hook118Parent>::*)(GJLevelList*)>::function(hook118<(anonymous namespace)::hook118Parent>*, GJLevelList*)
PUBLIC 144bc 0 std::__ndk1::queue<geode::Ref<GJGameLevel>, std::__ndk1::deque<geode::Ref<GJGameLevel>, std::__ndk1::allocator<geode::Ref<GJGameLevel> > > >::~queue()
PUBLIC 144c0 0 std::__ndk1::unordered_map<int, geode::Ref<GJGameLevel>, std::__ndk1::hash<int>, std::__ndk1::equal_to<int>, std::__ndk1::allocator<std::__ndk1::pair<int const, geode::Ref<GJGameLevel> > > >::~unordered_map[abi:ne180000]()
PUBLIC 14530 0 geodeExecFunction14<(anonymous namespace)::ExecFuncUnique14>(geode::ModStateEvent*)
PUBLIC 145ac 0 geodeExecFunction20<(anonymous namespace)::ExecFuncUnique20>(geode::ModStateEvent*)
PUBLIC 14664 0 geodeExecFunction25<(anonymous namespace)::ExecFuncUnique25>(geode::ModStateEvent*)
PUBLIC m 1473c 0 EditorIDs::getID(GJGameLevel*)
PUBLIC m 14790 0 EditorIDs::getID(GJGameLevel*, bool)
PUBLIC m 147ec 0 EditorIDs::Management::verifyIDAssignment(GJGameLevel*)
PUBLIC m 14a74 0 EditorIDs::getLevelByID(int)
PUBLIC 14bd8 0 geode::Ref<GJGameLevel>::~Ref()
PUBLIC m 14bf4 0 EditorIDs::Management::assignNewID(GJGameLevel*)
PUBLIC m 14cc4 0 EditorIDs::Management::verifyIDAssignmentDelayed(GJGameLevel*)
PUBLIC m 14e68 0 EditorIDs::Management::queueCheck()
PUBLIC m 14f58 0 EditorIDs::Management::tryTransferID(GJGameLevel*, GJGameLevel*)
PUBLIC m 15148 0 EditorIDs::Management::levelIsDeleting(GJGameLevel*)
PUBLIC m 152f8 0 EditorIDs::Management::handleLevelDupes(cocos2d::CCArray*)
PUBLIC 1564c 0 geode::cocos::CCArrayExt<GJGameLevel*>::~CCArrayExt()
PUBLIC 15668 0 std::__ndk1::unordered_set<int, std::__ndk1::hash<int>, std::__ndk1::equal_to<int>, std::__ndk1::allocator<int> >::~unordered_set[abi:ne180000]()
PUBLIC m 156b4 0 EditorIDs::Management::reset()
PUBLIC m 157a8 0 EditorIDs::Management::tryRaiseMaxID(int)
PUBLIC m 15854 0 EditorIDs::Management::getMaxID()
PUBLIC 15860 0 std::__ndk1::deque<geode::Ref<GJGameLevel>, std::__ndk1::allocator<geode::Ref<GJGameLevel> > >::~deque[abi:ne180000]()
PUBLIC 159f0 0 std::__ndk1::deque<geode::Ref<GJGameLevel>, std::__ndk1::allocator<geode::Ref<GJGameLevel> > >::__add_back_capacity()
PUBLIC 160c8 0 geode::listenForSettingChangesV3<bool, void (*)(bool)>(std::__ndk1::basic_string_view<char, std::__ndk1::char_traits<char> >, void (*&&)(bool), geode::Mod*)
PUBLIC 16318 0 geode::EventListener<geode::SettingChangedFilterV3>::EventListener(std::__ndk1::function<void (std::__ndk1::shared_ptr<geode::SettingV3>)>, geode::SettingChangedFilterV3)
PUBLIC 1640c 0 geode::SettingChangedFilterV3::~SettingChangedFilterV3()
PUBLIC 1645c 0 std::__ndk1::__function::__base<void (std::__ndk1::shared_ptr<geode::SettingV3>)>::~__base()
PUBLIC 16460 0 std::__ndk1::__function::__func<geode::listenForSettingChangesV3<bool, void (*)(bool)>(std::__ndk1::basic_string_view<char, std::__ndk1::char_traits<char> >, void (*&&)(bool), geode::Mod*)::{lambda(std::__ndk1::shared_ptr<geode::SettingV3>)#1}, std::__ndk1::allocator<geode::listenForSettingChangesV3<bool, void (*)(bool)>(std::__ndk1::basic_string_view<char, std::__ndk1::char_traits<char> >, void (*&&)(bool), geode::Mod*)::{lambda(std::__ndk1::shared_ptr<geode::SettingV3>)#1}>, void (std::__ndk1::shared_ptr<geode::SettingV3>)>::~__func()
PUBLIC 16464 0 std::__ndk1::__function::__func<geode::listenForSettingChangesV3<bool, void (*)(bool)>(std::__ndk1::basic_string_view<char, std::__ndk1::char_traits<char> >, void (*&&)(bool), geode::Mod*)::{lambda(std::__ndk1::shared_ptr<geode::SettingV3>)#1}, std::__ndk1::allocator<geode::listenForSettingChangesV3<bool, void (*)(bool)>(std::__ndk1::basic_string_view<char, std::__ndk1::char_traits<char> >, void (*&&)(bool), geode::Mod*)::{lambda(std::__ndk1::shared_ptr<geode::SettingV3>)#1}>, void (std::__ndk1::shared_ptr<geode::SettingV3>)>::__clone() const
PUBLIC 16498 0 std::__ndk1::__function::__func<geode::listenForSettingChangesV3<bool, void (*)(bool)>(std::__ndk1::basic_string_view<char, std::__ndk1::char_traits<char> >, void (*&&)(bool), geode::Mod*)::{lambda(std::__ndk1::shared_ptr<geode::SettingV3>)#1}, std::__ndk1::allocator<geode::listenForSettingChangesV3<bool, void (*)(bool)>(std::__ndk1::basic_string_view<char, std::__ndk1::char_traits<char> >, void (*&&)(bool), geode::Mod*)::{lambda(std::__ndk1::shared_ptr<geode::SettingV3>)#1}>, void (std::__ndk1::shared_ptr<geode::SettingV3>)>::__clone(std::__ndk1::__function::__base<void (std::__ndk1::shared_ptr<geode::SettingV3>)>*) const
PUBLIC 164ac 0 std::__ndk1::__function::__func<geode::listenForSettingChangesV3<bool, void (*)(bool)>(std::__ndk1::basic_string_view<char, std::__ndk1::char_traits<char> >, void (*&&)(bool), geode::Mod*)::{lambda(std::__ndk1::shared_ptr<geode::SettingV3>)#1}, std::__ndk1::allocator<geode::listenForSettingChangesV3<bool, void (*)(bool)>(std::__ndk1::basic_string_view<char, std::__ndk1::char_traits<char> >, void (*&&)(bool), geode::Mod*)::{lambda(std::__ndk1::shared_ptr<geode::SettingV3>)#1}>, void (std::__ndk1::shared_ptr<geode::SettingV3>)>::destroy()
PUBLIC 164b0 0 std::__ndk1::__function::__func<geode::listenForSettingChangesV3<bool, void (*)(bool)>(std::__ndk1::basic_string_view<char, std::__ndk1::char_traits<char> >, void (*&&)(bool), geode::Mod*)::{lambda(std::__ndk1::shared_ptr<geode::SettingV3>)#1}, std::__ndk1::allocator<geode::listenForSettingChangesV3<bool, void (*)(bool)>(std::__ndk1::basic_string_view<char, std::__ndk1::char_traits<char> >, void (*&&)(bool), geode::Mod*)::{lambda(std::__ndk1::shared_ptr<geode::SettingV3>)#1}>, void (std::__ndk1::shared_ptr<geode::SettingV3>)>::destroy_deallocate()
PUBLIC 164b4 0 std::__ndk1::__function::__func<geode::listenForSettingChangesV3<bool, void (*)(bool)>(std::__ndk1::basic_string_view<char, std::__ndk1::char_traits<char> >, void (*&&)(bool), geode::Mod*)::{lambda(std::__ndk1::shared_ptr<geode::SettingV3>)#1}, std::__ndk1::allocator<geode::listenForSettingChangesV3<bool, void (*)(bool)>(std::__ndk1::basic_string_view<char, std::__ndk1::char_traits<char> >, void (*&&)(bool), geode::Mod*)::{lambda(std::__ndk1::shared_ptr<geode::SettingV3>)#1}>, void (std::__ndk1::shared_ptr<geode::SettingV3>)>::operator()(std::__ndk1::shared_ptr<geode::SettingV3>&&)
PUBLIC 164bc 0 std::__ndk1::__function::__func<geode::listenForSettingChangesV3<bool, void (*)(bool)>(std::__ndk1::basic_string_view<char, std::__ndk1::char_traits<char> >, void (*&&)(bool), geode::Mod*)::{lambda(std::__ndk1::shared_ptr<geode::SettingV3>)#1}, std::__ndk1::allocator<geode::listenForSettingChangesV3<bool, void (*)(bool)>(std::__ndk1::basic_string_view<char, std::__ndk1::char_traits<char> >, void (*&&)(bool), geode::Mod*)::{lambda(std::__ndk1::shared_ptr<geode::SettingV3>)#1}>, void (std::__ndk1::shared_ptr<geode::SettingV3>)>::target(std::type_info const&) const
PUBLIC 164d8 0 std::__ndk1::__function::__func<geode::listenForSettingChangesV3<bool, void (*)(bool)>(std::__ndk1::basic_string_view<char, std::__ndk1::char_traits<char> >, void (*&&)(bool), geode::Mod*)::{lambda(std::__ndk1::shared_ptr<geode::SettingV3>)#1}, std::__ndk1::allocator<geode::listenForSettingChangesV3<bool, void (*)(bool)>(std::__ndk1::basic_string_view<char, std::__ndk1::char_traits<char> >, void (*&&)(bool), geode::Mod*)::{lambda(std::__ndk1::shared_ptr<geode::SettingV3>)#1}>, void (std::__ndk1::shared_ptr<geode::SettingV3>)>::target_type() const
PUBLIC 164e4 0 std::__ndk1::__invoke[abi:ne180000]<geode::listenForSettingChangesV3<bool, void (*)(bool)>(std::__ndk1::basic_string_view<char, std::__ndk1::char_traits<char> >, void (*&&)(bool), std::__ndk1::__invoke[abi:ne180000]::Mod*)::{lambda(std::__ndk1::shared_ptr<std::__ndk1::__invoke[abi:ne180000]::SettingV3>&)#1}, std::__ndk1::__invoke[abi:ne180000]::SettingV3>(geode::listenForSettingChangesV3<bool, void (*)(bool)>(std::__ndk1::basic_string_view<char, std::__ndk1::char_traits<char> >, void (*&&)(bool), std::__ndk1::__invoke[abi:ne180000]::Mod*)::{lambda(std::__ndk1::shared_ptr<std::__ndk1::__invoke[abi:ne180000]::SettingV3>&)#1}, geode::listenForSettingChangesV3<bool, void (*)(bool)>(std::__ndk1::basic_string_view<char, std::__ndk1::char_traits<char> >, void (*&&)(bool), std::__ndk1::__invoke[abi:ne180000]::Mod*)::{lambda(std::__ndk1::shared_ptr<std::__ndk1::__invoke[abi:ne180000]::SettingV3>&)#1})
PUBLIC 1665c 0 std::__ndk1::shared_ptr<geode::SettingV3>::~shared_ptr[abi:ne180000]()
PUBLIC 166ac 0 std::__ndk1::shared_ptr<geode::BoolSettingV3>::~shared_ptr[abi:ne180000]()
PUBLIC 166fc 0 geode::EventListener<geode::SettingChangedFilterV3>::getPool() const
PUBLIC 16700 0 geode::EventListener<geode::SettingChangedFilterV3>::handle(geode::Event*)
PUBLIC 16874 0 geode::EventListener<geode::SettingChangedFilterV3>::~EventListener()
PUBLIC 16910 0 geode::EventListener<geode::SettingChangedFilterV3>::~EventListener()
PUBLIC 169b4 0 geodeExecFunction14<(anonymous namespace)::ExecFuncUnique14>(geode::ModStateEvent*)::{lambda(bool)#1}::__invoke(bool)
PUBLIC 169c0 0 geode::EventListener<geode::ModStateFilter>::getPool() const
PUBLIC 169c4 0 geode::EventListener<geode::ModStateFilter>::handle(geode::Event*)
PUBLIC 16b38 0 geode::EventListener<geode::ModStateFilter>::~EventListener()
PUBLIC 16b94 0 geode::EventListener<geode::ModStateFilter>::~EventListener()
PUBLIC 16bf8 0 std::__ndk1::__function::__base<void (geode::ModStateEvent*)>::~__base()
PUBLIC 16bfc 0 std::__ndk1::__function::__func<void (*)(geode::ModStateEvent*), std::__ndk1::allocator<void (*)(geode::ModStateEvent*)>, void (geode::ModStateEvent*)>::~__func()
PUBLIC 16c00 0 std::__ndk1::__function::__func<void (*)(geode::ModStateEvent*), std::__ndk1::allocator<void (*)(geode::ModStateEvent*)>, void (geode::ModStateEvent*)>::__clone() const
PUBLIC 16c34 0 std::__ndk1::__function::__func<void (*)(geode::ModStateEvent*), std::__ndk1::allocator<void (*)(geode::ModStateEvent*)>, void (geode::ModStateEvent*)>::__clone(std::__ndk1::__function::__base<void (geode::ModStateEvent*)>*) const
PUBLIC 16c48 0 std::__ndk1::__function::__func<void (*)(geode::ModStateEvent*), std::__ndk1::allocator<void (*)(geode::ModStateEvent*)>, void (geode::ModStateEvent*)>::destroy()
PUBLIC 16c4c 0 std::__ndk1::__function::__func<void (*)(geode::ModStateEvent*), std::__ndk1::allocator<void (*)(geode::ModStateEvent*)>, void (geode::ModStateEvent*)>::destroy_deallocate()
PUBLIC 16c50 0 std::__ndk1::__function::__func<void (*)(geode::ModStateEvent*), std::__ndk1::allocator<void (*)(geode::ModStateEvent*)>, void (geode::ModStateEvent*)>::operator()(geode::ModStateEvent*&&)
PUBLIC 16c60 0 std::__ndk1::__function::__func<void (*)(geode::ModStateEvent*), std::__ndk1::allocator<void (*)(geode::ModStateEvent*)>, void (geode::ModStateEvent*)>::target(std::type_info const&) const
PUBLIC 16c7c 0 std::__ndk1::__function::__func<void (*)(geode::ModStateEvent*), std::__ndk1::allocator<void (*)(geode::ModStateEvent*)>, void (geode::ModStateEvent*)>::target_type() const
PUBLIC 16c88 0 geode::Mod::getSavedValue<int>(std::__ndk1::basic_string_view<char, std::__ndk1::char_traits<char> >, int const&)
PUBLIC 16e64 0 geode::impl::ResultData<matjson::Value&, std::__ndk1::basic_string<char, std::__ndk1::char_traits<char>, std::__ndk1::allocator<char> > >::~ResultData()
PUBLIC 16ed8 0 matjson::Value::as<int>() const
PUBLIC 16fdc 0 std::__ndk1::__variant_detail::__visitation::__base::__dispatcher<(unsigned long)0>::__dispatch[abi:ne180000]<std::__ndk1::__variant_detail::__dtor<std::__ndk1::__variant_detail::__traits<long, std::__ndk1::basic_string<char, std::__ndk1::char_traits<char>, std::__ndk1::allocator<char> > >, (std::__ndk1::__variant_detail::_Trait)1>::__destroy[abi:ne180000]()::{lambda(auto:1&)#1}, std::__ndk1::__variant_detail::__base<(std::__ndk1::__variant_detail::__traits<long, std::__ndk1::basic_string<char, std::__ndk1::char_traits<char>, std::__ndk1::allocator<char> > >)1, long, std::__ndk1::allocator<char> >&>(std::__ndk1::__variant_detail::__dtor<std::__ndk1::__variant_detail::__traits<long, std::__ndk1::basic_string<char, std::__ndk1::char_traits<char>, std::__ndk1::allocator<char> > >, (std::__ndk1::__variant_detail::_Trait)1>, std::__ndk1::__variant_detail::__base<(std::__ndk1::__variant_detail::__traits<long, std::__ndk1::basic_string<char, std::__ndk1::char_traits<char>, std::__ndk1::allocator<char> > >)1, long, std::__ndk1::allocator<char> >&)
PUBLIC 16fe0 0 std::__ndk1::__variant_detail::__visitation::__base::__dispatcher<(unsigned long)1>::__dispatch[abi:ne180000]<std::__ndk1::__variant_detail::__dtor<std::__ndk1::__variant_detail::__traits<long, std::__ndk1::basic_string<char, std::__ndk1::char_traits<char>, std::__ndk1::allocator<char> > >, (std::__ndk1::__variant_detail::_Trait)1>::__destroy[abi:ne180000]()::{lambda(auto:1&)#1}, std::__ndk1::__variant_detail::__base<(std::__ndk1::__variant_detail::__traits<long, std::__ndk1::basic_string<char, std::__ndk1::char_traits<char>, std::__ndk1::allocator<char> > >)1, long, std::__ndk1::allocator<char> >&>(std::__ndk1::__variant_detail::__dtor<std::__ndk1::__variant_detail::__traits<long, std::__ndk1::basic_string<char, std::__ndk1::char_traits<char>, std::__ndk1::allocator<char> > >, (std::__ndk1::__variant_detail::_Trait)1>, std::__ndk1::__variant_detail::__base<(std::__ndk1::__variant_detail::__traits<long, std::__ndk1::basic_string<char, std::__ndk1::char_traits<char>, std::__ndk1::allocator<char> > >)1, long, std::__ndk1::allocator<char> >&)
PUBLIC 16ff4 0 std::__ndk1::__variant_detail::__visitation::__base::__dispatcher<(unsigned long)0>::__dispatch[abi:ne180000]<std::__ndk1::__variant_detail::__dtor<std::__ndk1::__variant_detail::__traits<std::__ndk1::reference_wrapper<matjson::Value>, std::__ndk1::basic_string<char, std::__ndk1::char_traits<char>, std::__ndk1::allocator<char> > >, (std::__ndk1::__variant_detail::_Trait)1>::__destroy[abi:ne180000]()::{lambda(auto:1&)#1}, std::__ndk1::__variant_detail::__base<(std::__ndk1::__variant_detail::__traits<std::__ndk1::reference_wrapper<matjson::Value>, std::__ndk1::basic_string<char, std::__ndk1::char_traits<char>, std::__ndk1::allocator<char> > >)1, matjson::Value, std::__ndk1::allocator<char> >&>(std::__ndk1::__variant_detail::__dtor<std::__ndk1::__variant_detail::__traits<std::__ndk1::reference_wrapper<matjson::Value>, std::__ndk1::basic_string<char, std::__ndk1::char_traits<char>, std::__ndk1::allocator<char> > >, (std::__ndk1::__variant_detail::_Trait)1>, std::__ndk1::__variant_detail::__base<(std::__ndk1::__variant_detail::__traits<std::__ndk1::reference_wrapper<matjson::Value>, std::__ndk1::basic_string<char, std::__ndk1::char_traits<char>, std::__ndk1::allocator<char> > >)1, matjson::Value, std::__ndk1::allocator<char> >&)
PUBLIC 16ff8 0 std::__ndk1::__variant_detail::__visitation::__base::__dispatcher<(unsigned long)1>::__dispatch[abi:ne180000]<std::__ndk1::__variant_detail::__dtor<std::__ndk1::__variant_detail::__traits<std::__ndk1::reference_wrapper<matjson::Value>, std::__ndk1::basic_string<char, std::__ndk1::char_traits<char>, std::__ndk1::allocator<char> > >, (std::__ndk1::__variant_detail::_Trait)1>::__destroy[abi:ne180000]()::{lambda(auto:1&)#1}, std::__ndk1::__variant_detail::__base<(std::__ndk1::__variant_detail::__traits<std::__ndk1::reference_wrapper<matjson::Value>, std::__ndk1::basic_string<char, std::__ndk1::char_traits<char>, std::__ndk1::allocator<char> > >)1, matjson::Value, std::__ndk1::allocator<char> >&>(std::__ndk1::__variant_detail::__dtor<std::__ndk1::__variant_detail::__traits<std::__ndk1::reference_wrapper<matjson::Value>, std::__ndk1::basic_string<char, std::__ndk1::char_traits<char>, std::__ndk1::allocator<char> > >, (std::__ndk1::__variant_detail::_Trait)1>, std::__ndk1::__variant_detail::__base<(std::__ndk1::__variant_detail::__traits<std::__ndk1::reference_wrapper<matjson::Value>, std::__ndk1::basic_string<char, std::__ndk1::char_traits<char>, std::__ndk1::allocator<char> > >)1, matjson::Value, std::__ndk1::allocator<char> >&)
PUBLIC 1700c 0 std::__ndk1::__variant_detail::__visitation::__base::__dispatcher<(unsigned long)0>::__dispatch[abi:ne180000]<std::__ndk1::__variant_detail::__dtor<std::__ndk1::__variant_detail::__traits<int, std::__ndk1::basic_string<char, std::__ndk1::char_traits<char>, std::__ndk1::allocator<char> > >, (std::__ndk1::__variant_detail::_Trait)1>::__destroy[abi:ne180000]()::{lambda(auto:1&)#1}, std::__ndk1::__variant_detail::__base<(std::__ndk1::__variant_detail::__traits<int, std::__ndk1::basic_string<char, std::__ndk1::char_traits<char>, std::__ndk1::allocator<char> > >)1, int, std::__ndk1::allocator<char> >&>(std::__ndk1::__variant_detail::__dtor<std::__ndk1::__variant_detail::__traits<int, std::__ndk1::basic_string<char, std::__ndk1::char_traits<char>, std::__ndk1::allocator<char> > >, (std::__ndk1::__variant_detail::_Trait)1>, std::__ndk1::__variant_detail::__base<(std::__ndk1::__variant_detail::__traits<int, std::__ndk1::basic_string<char, std::__ndk1::char_traits<char>, std::__ndk1::allocator<char> > >)1, int, std::__ndk1::allocator<char> >&)
PUBLIC 17010 0 std::__ndk1::__variant_detail::__visitation::__base::__dispatcher<(unsigned long)1>::__dispatch[abi:ne180000]<std::__ndk1::__variant_detail::__dtor<std::__ndk1::__variant_detail::__traits<int, std::__ndk1::basic_string<char, std::__ndk1::char_traits<char>, std::__ndk1::allocator<char> > >, (std::__ndk1::__variant_detail::_Trait)1>::__destroy[abi:ne180000]()::{lambda(auto:1&)#1}, std::__ndk1::__variant_detail::__base<(std::__ndk1::__variant_detail::__traits<int, std::__ndk1::basic_string<char, std::__ndk1::char_traits<char>, std::__ndk1::allocator<char> > >)1, int, std::__ndk1::allocator<char> >&>(std::__ndk1::__variant_detail::__dtor<std::__ndk1::__variant_detail::__traits<int, std::__ndk1::basic_string<char, std::__ndk1::char_traits<char>, std::__ndk1::allocator<char> > >, (std::__ndk1::__variant_detail::_Trait)1>, std::__ndk1::__variant_detail::__base<(std::__ndk1::__variant_detail::__traits<int, std::__ndk1::basic_string<char, std::__ndk1::char_traits<char>, std::__ndk1::allocator<char> > >)1, int, std::__ndk1::allocator<char> >&)
PUBLIC 17024 0 geode::Mod::getSavedValue<int>(std::__ndk1::basic_string_view<char, std::__ndk1::char_traits<char> >)
PUBLIC 171a8 0 std::__ndk1::__hash_table<std::__ndk1::__hash_value_type<int, geode::Ref<GJGameLevel> >, std::__ndk1::__unordered_map_hasher<int, std::__ndk1::__hash_value_type<int, geode::Ref<GJGameLevel> >, std::__ndk1::hash<int>, std::__ndk1::equal_to<int>, true>, std::__ndk1::__unordered_map_equal<int, std::__ndk1::__hash_value_type<int, geode::Ref<GJGameLevel> >, std::__ndk1::equal_to<int>, std::__ndk1::hash<int>, true>, std::__ndk1::allocator<std::__ndk1::__hash_value_type<int, geode::Ref<GJGameLevel> > > >::__emplace_unique_key_args<int, std::__ndk1::piecewise_construct_t const&, std::__ndk1::tuple<int const&>, std::__ndk1::tuple<> >(int const&, std::__ndk1::piecewise_construct_t const&, std::__ndk1::tuple<int const&>, std::__ndk1::tuple<>)
PUBLIC 176d8 0 std::__ndk1::unique_ptr<std::__ndk1::__hash_node<std::__ndk1::__hash_value_type<int, geode::Ref<GJGameLevel> >, void*>, std::__ndk1::__hash_node_destructor<std::__ndk1::allocator<std::__ndk1::__hash_node<std::__ndk1::__hash_value_type<int, geode::Ref<GJGameLevel> >, void*> > > >::~unique_ptr[abi:ne180000]()
PUBLIC 17724 0 fmt::v11::detail::value<fmt::v11::context>::format_custom_arg<gd::string, fmt::v11::formatter<gd::string, char, void> >(void*, fmt::v11::basic_format_parse_context<char>&, fmt::v11::context&)
PUBLIC 177f4 0 fmt::v11::formatter<gd::string, char, void>::format<fmt::v11::context>(gd::string const&, fmt::v11::context&) const
PUBLIC 17954 0 fmt::v11::detail::parse_format_specs<char>(char const*, char const*, fmt::v11::detail::dynamic_format_specs<char>&, fmt::v11::basic_format_parse_context<char>&, fmt::v11::detail::type)
PUBLIC 17e08 0 fmt::v11::detail::parse_dynamic_spec<char>(char const*, char const*, int&, fmt::v11::detail::arg_ref<char>&, fmt::v11::basic_format_parse_context<char>&)
PUBLIC 17fac 0 fmt::v11::detail::do_parse_arg_id<char, fmt::v11::detail::dynamic_spec_id_handler<char>&>(char const*, char const*, fmt::v11::detail::dynamic_spec_id_handler<char>&)
PUBLIC 18140 0 fmt::v11::detail::handle_dynamic_spec<fmt::v11::detail::width_checker, fmt::v11::context>(int&, fmt::v11::detail::arg_ref<fmt::v11::context::char_type>, fmt::v11::context&)
PUBLIC 18254 0 fmt::v11::detail::handle_dynamic_spec<fmt::v11::detail::precision_checker, fmt::v11::context>(int&, fmt::v11::detail::arg_ref<fmt::v11::context::char_type>, fmt::v11::context&)
PUBLIC 18368 0 fmt::v11::detail::write<char, fmt::v11::basic_appender<char> >(fmt::v11::basic_appender<char>, fmt::v11::basic_string_view<char>, fmt::v11::format_specs const&)
PUBLIC 185e4 0 fmt::v11::detail::write_escaped_string<char, fmt::v11::detail::counting_iterator>(fmt::v11::detail::counting_iterator, fmt::v11::basic_string_view<char>)
PUBLIC 18b04 0 fmt::v11::detail::write_padded<char, (fmt::v11::align::type)1, fmt::v11::basic_appender<char>, fmt::v11::detail::write<char, fmt::v11::basic_appender<char> >(fmt::v11::basic_appender<char>, fmt::v11::basic_string_view<char>, fmt::v11::format_specs const&)::{lambda(fmt::v11::basic_appender<char>)#1}>(fmt::v11::basic_appender<char>, fmt::v11::format_specs const&, unsigned long, unsigned long, fmt::v11::detail::write<char, fmt::v11::basic_appender<char> >(fmt::v11::basic_appender<char>, fmt::v11::basic_string_view<char>, fmt::v11::format_specs const&)::{lambda(fmt::v11::basic_appender<char>&&)#1})
PUBLIC 18d10 0 fmt::v11::detail::for_each_codepoint<fmt::v11::detail::code_point_index(fmt::v11::basic_string_view<char>, unsigned long)::{lambda(unsigned int, fmt::v11::basic_string_view<char>)#1}>(fmt::v11::basic_string_view<char>, fmt::v11::detail::code_point_index(fmt::v11::basic_string_view<char>, unsigned long)::{lambda(unsigned int, fmt::v11::basic_string_view<char>)#1})
PUBLIC 19138 0 fmt::v11::detail::write_escaped_cp<fmt::v11::detail::counting_iterator, char>(fmt::v11::detail::counting_iterator, fmt::v11::detail::find_escape_result<char> const&)
PUBLIC 192cc 0 fmt::v11::detail::for_each_codepoint<fmt::v11::detail::compute_width(fmt::v11::basic_string_view<char>)::count_code_points>(fmt::v11::basic_string_view<char>, fmt::v11::detail::compute_width(fmt::v11::basic_string_view<char>)::count_code_points)::{lambda(char const*, char const*)#1}::operator()(char const*, char const*) const
PUBLIC 19484 0 fmt::v11::detail::fill<char, fmt::v11::basic_appender<char> >(fmt::v11::basic_appender<char>, unsigned long, fmt::v11::detail::fill_t const&)
PUBLIC 19654 0 fmt::v11::detail::write_escaped_string<char, fmt::v11::basic_appender<char> >(fmt::v11::basic_appender<char>, fmt::v11::basic_string_view<char>)
PUBLIC 19cd0 0 fmt::v11::detail::write_escaped_cp<fmt::v11::basic_appender<char>, char>(fmt::v11::basic_appender<char>, fmt::v11::detail::find_escape_result<char> const&)
PUBLIC 19eb4 0 fmt::v11::detail::write_codepoint<(unsigned long)2, char, fmt::v11::basic_appender<char> >(fmt::v11::basic_appender<char>, char, unsigned int)
PUBLIC 1a02c 0 fmt::v11::detail::write_codepoint<(unsigned long)4, char, fmt::v11::basic_appender<char> >(fmt::v11::basic_appender<char>, char, unsigned int)
PUBLIC 1a1a4 0 fmt::v11::detail::write_codepoint<(unsigned long)8, char, fmt::v11::basic_appender<char> >(fmt::v11::basic_appender<char>, char, unsigned int)
PUBLIC 1a31c 0 fmt::v11::detail::get_dynamic_spec<fmt::v11::detail::width_checker, fmt::v11::basic_format_arg<fmt::v11::context> >(fmt::v11::basic_format_arg<fmt::v11::context>)
PUBLIC 1a3b0 0 fmt::v11::basic_format_args<fmt::v11::context>::get<char>(fmt::v11::basic_string_view<char>) const
PUBLIC 1a508 0 fmt::v11::detail::get_dynamic_spec<fmt::v11::detail::precision_checker, fmt::v11::basic_format_arg<fmt::v11::context> >(fmt::v11::basic_format_arg<fmt::v11::context>)
PUBLIC 1a59c 0 std::__ndk1::__function::__func<EditorIDs::Management::queueCheck()::$_0, std::__ndk1::allocator<EditorIDs::Management::queueCheck()::$_0>, void ()>::~__func()
PUBLIC 1a5a0 0 std::__ndk1::__function::__func<EditorIDs::Management::queueCheck()::$_0, std::__ndk1::allocator<EditorIDs::Management::queueCheck()::$_0>, void ()>::__clone() const
PUBLIC 1a5c4 0 std::__ndk1::__function::__func<EditorIDs::Management::queueCheck()::$_0, std::__ndk1::allocator<EditorIDs::Management::queueCheck()::$_0>, void ()>::__clone(std::__ndk1::__function::__base<void ()>*) const
PUBLIC 1a5d4 0 std::__ndk1::__function::__func<EditorIDs::Management::queueCheck()::$_0, std::__ndk1::allocator<EditorIDs::Management::queueCheck()::$_0>, void ()>::destroy()
PUBLIC 1a5d8 0 std::__ndk1::__function::__func<EditorIDs::Management::queueCheck()::$_0, std::__ndk1::allocator<EditorIDs::Management::queueCheck()::$_0>, void ()>::destroy_deallocate()
PUBLIC 1a5dc 0 std::__ndk1::__function::__func<EditorIDs::Management::queueCheck()::$_0, std::__ndk1::allocator<EditorIDs::Management::queueCheck()::$_0>, void ()>::operator()()
PUBLIC 1a6fc 0 std::__ndk1::__function::__func<EditorIDs::Management::queueCheck()::$_0, std::__ndk1::allocator<EditorIDs::Management::queueCheck()::$_0>, void ()>::target(std::type_info const&) const
PUBLIC 1a718 0 std::__ndk1::__function::__func<EditorIDs::Management::queueCheck()::$_0, std::__ndk1::allocator<EditorIDs::Management::queueCheck()::$_0>, void ()>::target_type() const
PUBLIC 1a724 0 std::__ndk1::__hash_table<std::__ndk1::__hash_value_type<int, geode::Ref<GJGameLevel> >, std::__ndk1::__unordered_map_hasher<int, std::__ndk1::__hash_value_type<int, geode::Ref<GJGameLevel> >, std::__ndk1::hash<int>, std::__ndk1::equal_to<int>, true>, std::__ndk1::__unordered_map_equal<int, std::__ndk1::__hash_value_type<int, geode::Ref<GJGameLevel> >, std::__ndk1::equal_to<int>, std::__ndk1::hash<int>, true>, std::__ndk1::allocator<std::__ndk1::__hash_value_type<int, geode::Ref<GJGameLevel> > > >::__erase_unique<int>(int const&)
PUBLIC 1a934 0 std::__ndk1::__hash_table<int, std::__ndk1::hash<int>, std::__ndk1::equal_to<int>, std::__ndk1::allocator<int> >::__emplace_unique_key_args<int, int const&>(int const&, int const&)
PUBLIC 1ac58 0 std::__ndk1::__hash_table<int, std::__ndk1::hash<int>, std::__ndk1::equal_to<int>, std::__ndk1::allocator<int> >::__do_rehash<true>(unsigned long)
PUBLIC 1ae04 0 std::__ndk1::deque<geode::Ref<GJGameLevel>, std::__ndk1::allocator<geode::Ref<GJGameLevel> > >::__move_assign(std::__ndk1::deque<geode::Ref<GJGameLevel>, std::__ndk1::allocator<geode::Ref<GJGameLevel> > >&, std::__ndk1::integral_constant<bool, true>)
PUBLIC 1b044 0 std::__ndk1::__split_buffer<geode::Ref<GJGameLevel>*, std::__ndk1::allocator<geode::Ref<GJGameLevel>*> >::shrink_to_fit()
PUBLIC 1b16c 0 _GLOBAL__sub_I_EditorIDs.cpp
PUBLIC 1b3f8 0 std::__ndk1::queue<geode::Ref<GJLevelList>, std::__ndk1::deque<geode::Ref<GJLevelList>, std::__ndk1::allocator<geode::Ref<GJLevelList> > > >::~queue()
PUBLIC 1b3fc 0 std::__ndk1::unordered_map<int, geode::Ref<GJLevelList>, std::__ndk1::hash<int>, std::__ndk1::equal_to<int>, std::__ndk1::allocator<std::__ndk1::pair<int const, geode::Ref<GJLevelList> > > >::~unordered_map[abi:ne180000]()
PUBLIC 1b46c 0 geodeExecFunction14<(anonymous namespace)::ExecFuncUnique14>(geode::ModStateEvent*)
PUBLIC 1b4e8 0 geodeExecFunction20<(anonymous namespace)::ExecFuncUnique20>(geode::ModStateEvent*)
PUBLIC 1b5a0 0 geodeExecFunction25<(anonymous namespace)::ExecFuncUnique25>(geode::ModStateEvent*)
PUBLIC m 1b678 0 EditorIDs::getID(GJLevelList*)
PUBLIC m 1b6bc 0 EditorIDs::getID(GJLevelList*, bool)
PUBLIC m 1b708 0 EditorIDs::ListManagement::verifyIDAssignment(GJLevelList*)
PUBLIC m 1b990 0 EditorIDs::getListByID(int)
PUBLIC 1baf4 0 geode::Ref<GJLevelList>::~Ref()
PUBLIC m 1bb10 0 EditorIDs::ListManagement::assignNewID(GJLevelList*)
PUBLIC m 1bbe0 0 EditorIDs::ListManagement::verifyIDAssignmentDelayed(GJLevelList*)
PUBLIC m 1bd84 0 EditorIDs::ListManagement::queueCheck()
PUBLIC m 1be74 0 EditorIDs::ListManagement::tryTransferID(GJLevelList*, GJLevelList*)
PUBLIC m 1c064 0 EditorIDs::ListManagement::listIsDeleting(GJLevelList*)
PUBLIC m 1c214 0 EditorIDs::ListManagement::handleListDupes(cocos2d::CCArray*)
PUBLIC 1c55c 0 geode::cocos::CCArrayExt<GJLevelList*>::~CCArrayExt()
PUBLIC m 1c578 0 EditorIDs::ListManagement::reset()
PUBLIC m 1c66c 0 EditorIDs::ListManagement::tryRaiseMaxID(int)
PUBLIC m 1c718 0 EditorIDs::ListManagement::getMaxID()
PUBLIC 1c724 0 std::__ndk1::deque<geode::Ref<GJLevelList>, std::__ndk1::allocator<geode::Ref<GJLevelList> > >::~deque[abi:ne180000]()
PUBLIC 1c8b4 0 std::__ndk1::deque<geode::Ref<GJLevelList>, std::__ndk1::allocator<geode::Ref<GJLevelList> > >::__add_back_capacity()
PUBLIC 1cf8c 0 geodeExecFunction14<(anonymous namespace)::ExecFuncUnique14>(geode::ModStateEvent*)::{lambda(bool)#1}::__invoke(bool)
PUBLIC 1cf98 0 std::__ndk1::__hash_table<std::__ndk1::__hash_value_type<int, geode::Ref<GJLevelList> >, std::__ndk1::__unordered_map_hasher<int, std::__ndk1::__hash_value_type<int, geode::Ref<GJLevelList> >, std::__ndk1::hash<int>, std::__ndk1::equal_to<int>, true>, std::__ndk1::__unordered_map_equal<int, std::__ndk1::__hash_value_type<int, geode::Ref<GJLevelList> >, std::__ndk1::equal_to<int>, std::__ndk1::hash<int>, true>, std::__ndk1::allocator<std::__ndk1::__hash_value_type<int, geode::Ref<GJLevelList> > > >::__emplace_unique_key_args<int, std::__ndk1::piecewise_construct_t const&, std::__ndk1::tuple<int const&>, std::__ndk1::tuple<> >(int const&, std::__ndk1::piecewise_construct_t const&, std::__ndk1::tuple<int const&>, std::__ndk1::tuple<>)
PUBLIC 1d4c8 0 std::__ndk1::unique_ptr<std::__ndk1::__hash_node<std::__ndk1::__hash_value_type<int, geode::Ref<GJLevelList> >, void*>, std::__ndk1::__hash_node_destructor<std::__ndk1::allocator<std::__ndk1::__hash_node<std::__ndk1::__hash_value_type<int, geode::Ref<GJLevelList> >, void*> > > >::~unique_ptr[abi:ne180000]()
PUBLIC 1d514 0 std::__ndk1::__function::__func<EditorIDs::ListManagement::queueCheck()::$_0, std::__ndk1::allocator<EditorIDs::ListManagement::queueCheck()::$_0>, void ()>::~__func()
PUBLIC 1d518 0 std::__ndk1::__function::__func<EditorIDs::ListManagement::queueCheck()::$_0, std::__ndk1::allocator<EditorIDs::ListManagement::queueCheck()::$_0>, void ()>::__clone() const
PUBLIC 1d53c 0 std::__ndk1::__function::__func<EditorIDs::ListManagement::queueCheck()::$_0, std::__ndk1::allocator<EditorIDs::ListManagement::queueCheck()::$_0>, void ()>::__clone(std::__ndk1::__function::__base<void ()>*) const
PUBLIC 1d54c 0 std::__ndk1::__function::__func<EditorIDs::ListManagement::queueCheck()::$_0, std::__ndk1::allocator<EditorIDs::ListManagement::queueCheck()::$_0>, void ()>::destroy()
PUBLIC 1d550 0 std::__ndk1::__function::__func<EditorIDs::ListManagement::queueCheck()::$_0, std::__ndk1::allocator<EditorIDs::ListManagement::queueCheck()::$_0>, void ()>::destroy_deallocate()
PUBLIC 1d554 0 std::__ndk1::__function::__func<EditorIDs::ListManagement::queueCheck()::$_0, std::__ndk1::allocator<EditorIDs::ListManagement::queueCheck()::$_0>, void ()>::operator()()
PUBLIC 1d674 0 std::__ndk1::__function::__func<EditorIDs::ListManagement::queueCheck()::$_0, std::__ndk1::allocator<EditorIDs::ListManagement::queueCheck()::$_0>, void ()>::target(std::type_info const&) const
PUBLIC 1d690 0 std::__ndk1::__function::__func<EditorIDs::ListManagement::queueCheck()::$_0, std::__ndk1::allocator<EditorIDs::ListManagement::queueCheck()::$_0>, void ()>::target_type() const
PUBLIC 1d69c 0 std::__ndk1::__hash_table<std::__ndk1::__hash_value_type<int, geode::Ref<GJLevelList> >, std::__ndk1::__unordered_map_hasher<int, std::__ndk1::__hash_value_type<int, geode::Ref<GJLevelList> >, std::__ndk1::hash<int>, std::__ndk1::equal_to<int>, true>, std::__ndk1::__unordered_map_equal<int, std::__ndk1::__hash_value_type<int, geode::Ref<GJLevelList> >, std::__ndk1::equal_to<int>, std::__ndk1::hash<int>, true>, std::__ndk1::allocator<std::__ndk1::__hash_value_type<int, geode::Ref<GJLevelList> > > >::__erase_unique<int>(int const&)
PUBLIC 1d8ac 0 std::__ndk1::deque<geode::Ref<GJLevelList>, std::__ndk1::allocator<geode::Ref<GJLevelList> > >::__move_assign(std::__ndk1::deque<geode::Ref<GJLevelList>, std::__ndk1::allocator<geode::Ref<GJLevelList> > >&, std::__ndk1::integral_constant<bool, true>)
PUBLIC 1daec 0 std::__ndk1::__split_buffer<geode::Ref<GJLevelList>*, std::__ndk1::allocator<geode::Ref<GJLevelList>*> >::shrink_to_fit()
PUBLIC 1dc14 0 _GLOBAL__sub_I_EditorListIDs.cpp
PUBLIC 1dea0 0 geode::getMod()
PUBLIC m 1dedc 0 geodeImplicitEntry
PUBLIC 1df18 0 __udivti3
PUBLIC 1df24 0 __udivmodti4
PUBLIC m 1e170 0 __eqtf2
PUBLIC 1e210 0 __unordtf2
PUBLIC 1e248 0 fmt::v11::detail::write_loc(fmt::v11::basic_appender<char>, fmt::v11::loc_value, fmt::v11::format_specs const&, fmt::v11::detail::locale_ref)
PUBLIC 1e4dc 0 fmt::v11::format_facet<std::__ndk1::locale>::~format_facet()
PUBLIC 1e558 0 fmt::v11::report_error(char const*)
PUBLIC 1e5a8 0 fmt::v11::format_error::runtime_error(char const*)
PUBLIC 1e5d4 0 fmt::v11::format_facet<std::__ndk1::locale>::do_put(fmt::v11::basic_appender<char>, fmt::v11::loc_value, fmt::v11::format_specs const&) const
PUBLIC 1ed94 0 fmt::v11::detail::loc_writer<char>::~loc_writer()
PUBLIC 1edf8 0 fmt::v11::detail::vformat_to<char>(fmt::v11::detail::buffer<char>&, fmt::v11::basic_string_view<char>, fmt::v11::detail::vformat_args<char>::type, fmt::v11::detail::locale_ref)
PUBLIC 1f368 0 fmt::v11::detail::is_printable(unsigned int)
PUBLIC 1f590 0 fmt::v11::detail::dragonbox::to_decimal<float>(float)
PUBLIC 1f86c 0 fmt::v11::detail::dragonbox::to_decimal<double>(double)
PUBLIC 1fda8 0 fmt::v11::basic_memory_buffer<char, (unsigned long)500, std::__ndk1::allocator<char> >::grow(fmt::v11::detail::buffer<char>&, unsigned long)
PUBLIC 1fe20 0 fmt::v11::format_facet<std::__ndk1::locale>::~format_facet()
PUBLIC 1feac 0 fmt::v11::format_error::~format_error()
PUBLIC 1fed0 0 fmt::v11::detail::copy_noinline<char, char const*, fmt::v11::basic_appender<char> >(char const*, char const*, fmt::v11::basic_appender<char>)
PUBLIC 20020 0 fmt::v11::detail::default_arg_formatter<char>::operator()<bool>(bool)
PUBLIC 20088 0 fmt::v11::detail::default_arg_formatter<char>::operator()<char>(char)
PUBLIC 20118 0 fmt::v11::detail::default_arg_formatter<char>::operator()<float>(float)
PUBLIC 20204 0 fmt::v11::detail::default_arg_formatter<char>::operator()<double>(double)
PUBLIC 202f0 0 fmt::v11::detail::default_arg_formatter<char>::operator()<char const*>(char const*)
PUBLIC 20338 0 fmt::v11::detail::default_arg_formatter<char>::operator()<void const*>(void const*)
PUBLIC 203d0 0 _ZN3fmt3v116detail5writeIcNS0_14basic_appenderIcEEiTnNSt6__ndk19enable_ifIXaaaasr11is_integralIT1_EE5valuentsr3std7is_sameIS7_bEE5valuentsr3std7is_sameIS7_T_EE5valueEiE4typeELi0EEET0_SB_S7_
PUBLIC 20630 0 fmt::v11::detail::copy_noinline<char, char*, fmt::v11::basic_appender<char> >(char*, char*, fmt::v11::basic_appender<char>)
PUBLIC 20780 0 _ZN3fmt3v116detail5writeIcNS0_14basic_appenderIcEEjTnNSt6__ndk19enable_ifIXaaaasr11is_integralIT1_EE5valuentsr3std7is_sameIS7_bEE5valuentsr3std7is_sameIS7_T_EE5valueEiE4typeELi0EEET0_SB_S7_
PUBLIC 20960 0 _ZN3fmt3v116detail5writeIcNS0_14basic_appenderIcEExTnNSt6__ndk19enable_ifIXaaaasr11is_integralIT1_EE5valuentsr3std7is_sameIS7_bEE5valuentsr3std7is_sameIS7_T_EE5valueEiE4typeELi0EEET0_SB_S7_
PUBLIC 20be4 0 _ZN3fmt3v116detail5writeIcNS0_14basic_appenderIcEEyTnNSt6__ndk19enable_ifIXaaaasr11is_integralIT1_EE5valuentsr3std7is_sameIS7_bEE5valuentsr3std7is_sameIS7_T_EE5valueEiE4typeELi0EEET0_SB_S7_
PUBLIC 20dec 0 _ZN3fmt3v116detail5writeIcNS0_14basic_appenderIcEEnTnNSt6__ndk19enable_ifIXaaaasr11is_integralIT1_EE5valuentsr3std7is_sameIS7_bEE5valuentsr3std7is_sameIS7_T_EE5valueEiE4typeELi0EEET0_SB_S7_
PUBLIC 2114c 0 _ZN3fmt3v116detail5writeIcNS0_14basic_appenderIcEEoTnNSt6__ndk19enable_ifIXaaaasr11is_integralIT1_EE5valuentsr3std7is_sameIS7_bEE5valuentsr3std7is_sameIS7_T_EE5valueEiE4typeELi0EEET0_SB_S7_
PUBLIC 21460 0 _ZN3fmt3v116detail5writeIcNS0_14basic_appenderIcEEbTnNSt6__ndk19enable_ifIXsr3std7is_sameIT1_bEE5valueEiE4typeELi0EEET0_SA_S7_RKNS0_12format_specsENS1_10locale_refE
PUBLIC 21714 0 fmt::v11::detail::write_int_noinline<char, fmt::v11::basic_appender<char>, unsigned int>(fmt::v11::basic_appender<char>, fmt::v11::detail::write_int_arg<unsigned int>, fmt::v11::format_specs const&, fmt::v11::detail::locale_ref)
PUBLIC 224f4 0 fmt::v11::detail::write_padded<char, (fmt::v11::align::type)1, fmt::v11::basic_appender<char>, fmt::v11::detail::write_char<char, fmt::v11::basic_appender<char> >(fmt::v11::basic_appender<char>, char, fmt::v11::format_specs const&)::{lambda(fmt::v11::basic_appender<char>&)#1}>(fmt::v11::basic_appender<char>, fmt::v11::format_specs const&, unsigned long, unsigned long, fmt::v11::detail::write_char<char, fmt::v11::basic_appender<char> >(fmt::v11::basic_appender<char>, char, fmt::v11::format_specs const&)::{lambda(fmt::v11::basic_appender<char>&)#1})
PUBLIC 22758 0 fmt::v11::detail::write_padded<char, (fmt::v11::align::type)1, fmt::v11::basic_appender<char>, fmt::v11::detail::write_nonfinite<char, fmt::v11::basic_appender<char> >(fmt::v11::basic_appender<char>, bool, fmt::v11::format_specs, fmt::v11::sign::type)::{lambda(fmt::v11::basic_appender<char>&)#1}>(fmt::v11::basic_appender<char>, fmt::v11::format_specs const&, unsigned long, unsigned long, fmt::v11::detail::write_nonfinite<char, fmt::v11::basic_appender<char> >(fmt::v11::basic_appender<char>, bool, fmt::v11::format_specs, fmt::v11::sign::type)::{lambda(fmt::v11::basic_appender<char>&)#1})
PUBLIC 229b0 0 fmt::v11::detail::do_write_float<char, fmt::v11::basic_appender<char>, fmt::v11::detail::dragonbox::decimal_fp<float>, fmt::v11::detail::digit_grouping<char> >(fmt::v11::basic_appender<char>, fmt::v11::detail::dragonbox::decimal_fp<float> const&, fmt::v11::format_specs const&, fmt::v11::detail::float_specs, fmt::v11::detail::locale_ref)
PUBLIC 23634 0 fmt::v11::detail::do_write_float<char, fmt::v11::basic_appender<char>, fmt::v11::detail::dragonbox::decimal_fp<float>, fmt::v11::detail::digit_grouping<char> >(fmt::v11::basic_appender<char>, fmt::v11::detail::dragonbox::decimal_fp<float> const&, fmt::v11::format_specs const&, fmt::v11::detail::float_specs, fmt::v11::detail::locale_ref)::{lambda(fmt::v11::basic_appender<char>(fmt::v11::basic_appender<char>))#1}::operator() const
PUBLIC 23788 0 fmt::v11::detail::digit_grouping<char>::digit_grouping(fmt::v11::detail::locale_ref, bool)
PUBLIC 239f4 0 fmt::v11::detail::digit_grouping<char>::~digit_grouping()
PUBLIC 23a38 0 fmt::v11::detail::write_exponent<char, fmt::v11::basic_appender<char> >(int, fmt::v11::basic_appender<char>)
PUBLIC 23c08 0 _ZN3fmt3v116detail17write_significandIcjTnNSt6__ndk19enable_ifIXsr3std11is_integralIT0_EE5valueEiE4typeELi0EEEPT_S9_S5_iiS8_
PUBLIC 23d84 0 std::__ndk1::basic_string<char, std::__ndk1::char_traits<char>, std::__ndk1::allocator<char> >::__assign_no_alias<true>(char const*, unsigned long)
PUBLIC 23e30 0 std::__ndk1::basic_string<char, std::__ndk1::char_traits<char>, std::__ndk1::allocator<char> >::__assign_no_alias<false>(char const*, unsigned long)
PUBLIC 23f40 0 fmt::v11::detail::digit_grouping<char>::apply<fmt::v11::basic_appender<char>, char>(fmt::v11::basic_appender<char>, fmt::v11::basic_string_view<char>) const
PUBLIC 242f8 0 fmt::v11::basic_memory_buffer<int, (unsigned long)500, std::__ndk1::allocator<int> >::grow(fmt::v11::detail::buffer<int>&, unsigned long)
PUBLIC 24398 0 fmt::v11::detail::do_write_float<char, fmt::v11::basic_appender<char>, fmt::v11::detail::dragonbox::decimal_fp<double>, fmt::v11::detail::digit_grouping<char> >(fmt::v11::basic_appender<char>, fmt::v11::detail::dragonbox::decimal_fp<double> const&, fmt::v11::format_specs const&, fmt::v11::detail::float_specs, fmt::v11::detail::locale_ref)
PUBLIC 25058 0 fmt::v11::detail::do_write_float<char, fmt::v11::basic_appender<char>, fmt::v11::detail::dragonbox::decimal_fp<double>, fmt::v11::detail::digit_grouping<char> >(fmt::v11::basic_appender<char>, fmt::v11::detail::dragonbox::decimal_fp<double> const&, fmt::v11::format_specs const&, fmt::v11::detail::float_specs, fmt::v11::detail::locale_ref)::{lambda(fmt::v11::basic_appender<char>(fmt::v11::basic_appender<char>))#1}::operator() const
PUBLIC 251b0 0 _ZN3fmt3v116detail17write_significandIcmTnNSt6__ndk19enable_ifIXsr3std11is_integralIT0_EE5valueEiE4typeELi0EEEPT_S9_S5_iiS8_
PUBLIC 25340 0 fmt::v11::detail::write_float<char, fmt::v11::basic_appender<char>, long double>(fmt::v11::basic_appender<char>, long double, fmt::v11::format_specs, fmt::v11::detail::locale_ref)
PUBLIC 25e38 0 fmt::v11::detail::write_padded<char, (fmt::v11::align::type)2, fmt::v11::basic_appender<char>, fmt::v11::detail::write_bytes<char, (fmt::v11::align::type)2, fmt::v11::basic_appender<char> >(fmt::v11::basic_appender<char>, fmt::v11::basic_string_view<char>, fmt::v11::format_specs const&)::{lambda(fmt::v11::basic_appender<char>&)#1}>(fmt::v11::basic_appender<char>, fmt::v11::format_specs const&, unsigned long, unsigned long, fmt::v11::detail::write_bytes<char, (fmt::v11::align::type)2, fmt::v11::basic_appender<char> >(fmt::v11::basic_appender<char>, fmt::v11::basic_string_view<char>, fmt::v11::format_specs const&)::{lambda(fmt::v11::basic_appender<char>&)#1})
PUBLIC 2602c 0 fmt::v11::detail::format_dragon(fmt::v11::detail::basic_fp<unsigned __int128>, unsigned int, int, fmt::v11::detail::buffer<char>&, int&)
PUBLIC 2745c 0 fmt::v11::detail::bigint::operator<<=(int)
PUBLIC 27580 0 fmt::v11::detail::bigint::assign_pow10(int)
PUBLIC 27cdc 0 fmt::v11::detail::bigint::divmod_assign(fmt::v11::detail::bigint const&)
PUBLIC 27ffc 0 fmt::v11::basic_memory_buffer<unsigned int, (unsigned long)32, std::__ndk1::allocator<unsigned int> >::grow(fmt::v11::detail::buffer<unsigned int>&, unsigned long)
PUBLIC 2809c 0 fmt::v11::detail::do_write_float<char, fmt::v11::basic_appender<char>, fmt::v11::detail::big_decimal_fp, fmt::v11::detail::digit_grouping<char> >(fmt::v11::basic_appender<char>, fmt::v11::detail::big_decimal_fp const&, fmt::v11::format_specs const&, fmt::v11::detail::float_specs, fmt::v11::detail::locale_ref)
PUBLIC 28f7c 0 fmt::v11::detail::do_write_float<char, fmt::v11::basic_appender<char>, fmt::v11::detail::big_decimal_fp, fmt::v11::detail::digit_grouping<char> >(fmt::v11::basic_appender<char>, fmt::v11::detail::big_decimal_fp const&, fmt::v11::format_specs const&, fmt::v11::detail::float_specs, fmt::v11::detail::locale_ref)::{lambda(fmt::v11::basic_appender<char>(fmt::v11::basic_appender<char>))#1}::operator() const
PUBLIC 290dc 0 fmt::v11::detail::write_padded<char, (fmt::v11::align::type)2, fmt::v11::basic_appender<char>, fmt::v11::detail::write_ptr<char, fmt::v11::basic_appender<char>, unsigned long>(fmt::v11::basic_appender<char>, unsigned long, fmt::v11::format_specs const*)::{lambda(fmt::v11::basic_appender<char>&)#1}>(fmt::v11::basic_appender<char>, fmt::v11::format_specs const&, unsigned long, unsigned long, fmt::v11::detail::write_ptr<char, fmt::v11::basic_appender<char>, unsigned long>(fmt::v11::basic_appender<char>, unsigned long, fmt::v11::format_specs const*)::{lambda(fmt::v11::basic_appender<char>&)#1})
PUBLIC 292f0 0 fmt::v11::detail::parse_replacement_field<char, fmt::v11::detail::vformat_to<char>(fmt::v11::detail::buffer<char>&, fmt::v11::basic_string_view<char>, fmt::v11::detail::vformat_args<char>::type, fmt::v11::detail::locale_ref)::format_handler&>(char const*, char const*, fmt::v11::detail::vformat_to<char>(fmt::v11::detail::buffer<char>&, fmt::v11::basic_string_view<char>, fmt::v11::detail::vformat_args<char>::type, fmt::v11::detail::locale_ref)::format_handler&)
PUBLIC 2a7a4 0 fmt::v11::detail::write_int_noinline<char, fmt::v11::basic_appender<char>, unsigned long>(fmt::v11::basic_appender<char>, fmt::v11::detail::write_int_arg<unsigned long>, fmt::v11::format_specs const&, fmt::v11::detail::locale_ref)
PUBLIC 2b604 0 fmt::v11::detail::write_int_noinline<char, fmt::v11::basic_appender<char>, unsigned __int128>(fmt::v11::basic_appender<char>, fmt::v11::detail::write_int_arg<unsigned __int128>, fmt::v11::format_specs const&, fmt::v11::detail::locale_ref)
PUBLIC 2c694 0 _ZN3fmt3v116detail15format_hexfloatIdTnNSt6__ndk19enable_ifIXntsr16is_double_doubleIT_EE5valueEiE4typeELi0EEEvS5_NS0_12format_specsERNS1_6bufferIcEE
PUBLIC 2cbb4 0 fmt::v11::detail::format_float<double>(double, int, fmt::v11::detail::float_specs, fmt::v11::detail::buffer<char>&)
PUBLIC 2d554 0 fmt::v11::detail::write_int<fmt::v11::basic_appender<char>, unsigned long, char>(fmt::v11::basic_appender<char>, unsigned long, unsigned int, fmt::v11::format_specs const&, fmt::v11::detail::digit_grouping<char> const&)
PUBLIC 2dad0 0 fmt::v11::detail::write_int<fmt::v11::basic_appender<char>, unsigned __int128, char>(fmt::v11::basic_appender<char>, unsigned __int128, unsigned int, fmt::v11::format_specs const&, fmt::v11::detail::digit_grouping<char> const&)
PUBLIC 2e150 0 <.plt ELF section in cvolton.level-id-api.android64.so>
STACK CFI INIT cc20 10 .cfa: sp 0 +
STACK CFI INIT cc30 8 .cfa: sp 0 +
STACK CFI INIT cc38 8 .cfa: sp 0 +
STACK CFI INIT cc40 14 .cfa: sp 0 +
STACK CFI INIT cc54 1c .cfa: sp 0 +
STACK CFI INIT cc70 10 .cfa: sp 0 +
STACK CFI INIT cc80 30 .cfa: sp 0 +
STACK CFI INIT ccb0 98 .cfa: sp 0 +
STACK CFI INIT cd48 59c .cfa: sp 0 +
STACK CFI INIT d2e4 8c .cfa: sp 0 +
STACK CFI INIT d370 30 .cfa: sp 0 +
STACK CFI INIT f224 18 .cfa: sp 0 +
STACK CFI INIT f23c 18 .cfa: sp 0 +
STACK CFI INIT f254 18 .cfa: sp 0 +
STACK CFI INIT f26c 18 .cfa: sp 0 +
STACK CFI INIT f284 18 .cfa: sp 0 +
STACK CFI INIT f29c 18 .cfa: sp 0 +
STACK CFI INIT f2b4 18 .cfa: sp 0 +
STACK CFI INIT f8f0 50 .cfa: sp 0 +
STACK CFI f8f4 .cfa: sp 32 +
STACK CFI f8fc .cfa: x29 32 + x19: .cfa -16 + ^ .ra: .cfa -24 + ^ x29: .cfa -32 + ^
STACK CFI f914 .cfa: sp 32 +
STACK CFI f91c .cfa: sp 0 +
STACK CFI f920 .cfa: x29 32 +
STACK CFI f934 .cfa: sp 32 +
STACK CFI f93c .cfa: sp 0 +
STACK CFI INIT f9b4 7c .cfa: sp 0 +
STACK CFI f9b8 .cfa: sp 48 +
STACK CFI f9c4 .cfa: x29 48 + x19: .cfa -8 + ^ x20: .cfa -16 + ^ x21: .cfa -32 + ^ .ra: .cfa -40 + ^ x29: .cfa -48 + ^
STACK CFI fa10 .cfa: sp 48 +
STACK CFI fa1c .cfa: sp 0 +
STACK CFI fa20 .cfa: sp 48 +
STACK CFI fa2c .cfa: sp 0 +
STACK CFI INIT fa30 4 .cfa: sp 0 +
STACK CFI INIT fa34 10 .cfa: sp 0 +
STACK CFI fa38 .cfa: sp 16 +
STACK CFI fa3c .cfa: x29 16 + .ra: .cfa -8 + ^ x29: .cfa -16 + ^
STACK CFI INIT 10140 34 .cfa: sp 0 +
STACK CFI 10144 .cfa: sp 16 +
STACK CFI 10148 .cfa: x29 16 + .ra: .cfa -8 + ^ x29: .cfa -16 + ^
STACK CFI INIT 10174 80 .cfa: sp 0 +
STACK CFI 10178 .cfa: sp 48 +
STACK CFI 10184 .cfa: x29 48 + x19: .cfa -8 + ^ x20: .cfa -16 + ^ x21: .cfa -32 + ^ .ra: .cfa -40 + ^ x29: .cfa -48 + ^
STACK CFI 101e4 .cfa: sp 48 +
STACK CFI 101f0 .cfa: sp 0 +
STACK CFI INIT 101f4 24 .cfa: sp 0 +
STACK CFI 101f8 .cfa: sp 32 +
STACK CFI 10200 .cfa: x29 32 + x19: .cfa -16 + ^ .ra: .cfa -24 + ^ x29: .cfa -32 + ^
STACK CFI 1020c .cfa: sp 32 +
STACK CFI 10214 .cfa: sp 0 +
STACK CFI INIT 10218 14 .cfa: sp 0 +
STACK CFI 1021c .cfa: sp 16 +
STACK CFI 10220 .cfa: x29 16 + .ra: .cfa -8 + ^ x29: .cfa -16 + ^
STACK CFI INIT 1027c 30 .cfa: sp 0 +
STACK CFI 10280 .cfa: sp 32 +
STACK CFI 10288 .cfa: x29 32 + x19: .cfa -16 + ^ .ra: .cfa -24 + ^ x29: .cfa -32 + ^
STACK CFI 102a0 .cfa: sp 32 +
STACK CFI 102a8 .cfa: sp 0 +
STACK CFI INIT 102ac 34 .cfa: sp 0 +
STACK CFI 102b0 .cfa: sp 32 +
STACK CFI 102b8 .cfa: x29 32 + x19: .cfa -16 + ^ .ra: .cfa -24 + ^ x29: .cfa -32 + ^
STACK CFI INIT 10504 80 .cfa: sp 0 +
STACK CFI 10508 .cfa: sp 48 +
STACK CFI 10514 .cfa: x29 48 + x19: .cfa -8 + ^ x20: .cfa -16 + ^ x21: .cfa -24 + ^ x22: .cfa -32 + ^ .ra: .cfa -40 + ^ x29: .cfa -48 + ^
STACK CFI 1052c .cfa: sp 48 +
STACK CFI 10538 .cfa: sp 0 +
STACK CFI 1053c .cfa: x29 48 +
STACK CFI 1056c .cfa: sp 48 +
STACK CFI 10578 .cfa: sp 0 +
STACK CFI 1057c .cfa: x29 48 +
STACK CFI INIT 10584 68 .cfa: sp 0 +
STACK CFI 10588 .cfa: sp 32 +
STACK CFI 10590 .cfa: x29 32 + x19: .cfa -8 + ^ x20: .cfa -16 + ^ .ra: .cfa -24 + ^ x29: .cfa -32 + ^
STACK CFI 105a8 .cfa: sp 32 +
STACK CFI 105b0 .cfa: sp 0 +
STACK CFI 105b4 .cfa: x29 32 +
STACK CFI 105e0 .cfa: sp 32 +
STACK CFI 105e8 .cfa: sp 0 +
STACK CFI INIT 105ec 14 .cfa: sp 0 +
STACK CFI 105f0 .cfa: sp 16 +
STACK CFI 105f4 .cfa: x29 16 + .ra: .cfa -8 + ^ x29: .cfa -16 + ^
STACK CFI INIT 10600 4 .cfa: sp 0 +
STACK CFI INIT 10604 14 .cfa: sp 0 +
STACK CFI INIT 10618 120 .cfa: sp 0 +
STACK CFI 1061c .cfa: sp 64 +
STACK CFI 1062c .cfa: x29 64 + x19: .cfa -8 + ^ x20: .cfa -16 + ^ x21: .cfa -24 + ^ x22: .cfa -32 + ^ x23: .cfa -40 + ^ x24: .cfa -48 + ^ .ra: .cfa -56 + ^ x29: .cfa -64 + ^
STACK CFI 10724 .cfa: sp 64 +
STACK CFI 10734 .cfa: sp 0 +
STACK CFI INIT 10738 4a4 .cfa: sp 0 +
STACK CFI 1073c .cfa: sp 32 +
STACK CFI 10744 .cfa: x29 32 + x19: .cfa -8 + ^ x20: .cfa -16 + ^ .ra: .cfa -24 + ^ x29: .cfa -32 + ^
STACK CFI 10b24 .cfa: sp 32 +
STACK CFI 10b2c .cfa: sp 0 +
STACK CFI 10b30 .cfa: x29 32 +
STACK CFI INIT 10bdc 84 .cfa: sp 0 +
STACK CFI 10be4 .cfa: sp 32 +
STACK CFI 10bec .cfa: x29 32 + x19: .cfa -8 + ^ x20: .cfa -16 + ^ .ra: .cfa -24 + ^ x29: .cfa -32 + ^
STACK CFI 10c2c .cfa: sp 32 +
STACK CFI 10c34 .cfa: sp 0 +
STACK CFI 10c3c .cfa: x29 32 +
STACK CFI INIT 10c60 24 .cfa: sp 0 +
STACK CFI 10c64 .cfa: sp 32 +
STACK CFI 10c6c .cfa: x29 32 + x19: .cfa -16 + ^ .ra: .cfa -24 + ^ x29: .cfa -32 + ^
STACK CFI 10c78 .cfa: sp 32 +
STACK CFI 10c80 .cfa: sp 0 +
STACK CFI INIT 10c84 44 .cfa: sp 0 +
STACK CFI 10c88 .cfa: sp 32 +
STACK CFI 10c90 .cfa: x29 32 + x19: .cfa -8 + ^ x20: .cfa -16 + ^ .ra: .cfa -24 + ^ x29: .cfa -32 + ^
STACK CFI 10cb0 .cfa: sp 32 +
STACK CFI 10cb8 .cfa: sp 0 +
STACK CFI 10cbc .cfa: sp 32 +
STACK CFI 10cc4 .cfa: sp 0 +
STACK CFI INIT 10cc8 50 .cfa: sp 0 +
STACK CFI 10ccc .cfa: sp 32 +
STACK CFI 10cd4 .cfa: x29 32 + x19: .cfa -16 + ^ .ra: .cfa -24 + ^ x29: .cfa -32 + ^
STACK CFI 10cec .cfa: sp 32 +
STACK CFI 10cf4 .cfa: sp 0 +
STACK CFI 10cf8 .cfa: x29 32 +
STACK CFI 10d0c .cfa: sp 32 +
STACK CFI 10d14 .cfa: sp 0 +
STACK CFI INIT 10d18 64 .cfa: sp 0 +
STACK CFI 10d1c .cfa: sp 32 +
STACK CFI 10d24 .cfa: x29 32 + x19: .cfa -16 + ^ .ra: .cfa -24 + ^ x29: .cfa -32 + ^
STACK CFI 10d50 .cfa: sp 32 +
STACK CFI 10d58 .cfa: sp 0 +
STACK CFI 10d5c .cfa: x29 32 +
STACK CFI 10d70 .cfa: sp 32 +
STACK CFI 10d78 .cfa: sp 0 +
STACK CFI INIT 10d7c 168 .cfa: sp 0 +
STACK CFI 10d80 .cfa: sp 80 +
STACK CFI 10d94 .cfa: x29 80 + x19: .cfa -8 + ^ x20: .cfa -16 + ^ x21: .cfa -24 + ^ x22: .cfa -32 + ^ x23: .cfa -40 + ^ x24: .cfa -48 + ^ x25: .cfa -56 + ^ x26: .cfa -64 + ^ .ra: .cfa -72 + ^ x29: .cfa -80 + ^
STACK CFI 10ecc .cfa: sp 80 +
STACK CFI 10ee0 .cfa: sp 0 +
STACK CFI INIT 10ee4 1b0 .cfa: sp 0 +
STACK CFI INIT 116c4 4 .cfa: sp 0 +
STACK CFI INIT 116c8 24 .cfa: sp 0 +
STACK CFI 116cc .cfa: sp 32 +
STACK CFI 116d4 .cfa: x29 32 + x19: .cfa -16 + ^ .ra: .cfa -24 + ^ x29: .cfa -32 + ^
STACK CFI 116e0 .cfa: sp 32 +
STACK CFI 116e8 .cfa: sp 0 +
STACK CFI INIT 116ec 50 .cfa: sp 0 +
STACK CFI 116f0 .cfa: sp 48 +
STACK CFI 116fc .cfa: x29 48 + x19: .cfa -8 + ^ x20: .cfa -16 + ^ x21: .cfa -32 + ^ .ra: .cfa -40 + ^ x29: .cfa -48 + ^
STACK CFI 1172c .cfa: sp 48 +
STACK CFI 11738 .cfa: sp 0 +
STACK CFI INIT 11d38 4 .cfa: sp 0 +
STACK CFI INIT 11e1c 18 .cfa: sp 0 +
STACK CFI 11e20 .cfa: sp 16 +
STACK CFI 11e24 .cfa: x29 16 + .ra: .cfa -8 + ^ x29: .cfa -16 + ^
STACK CFI 11e2c .cfa: sp 16 +
STACK CFI 11e30 .cfa: sp 0 +
STACK CFI INIT 1200c 4 .cfa: sp 0 +
STACK CFI INIT 12010 4 .cfa: sp 0 +
STACK CFI INIT 12014 34 .cfa: sp 0 +
STACK CFI 12018 .cfa: sp 32 +
STACK CFI 12020 .cfa: x29 32 + x19: .cfa -16 + ^ .ra: .cfa -24 + ^ x29: .cfa -32 + ^
STACK CFI 1203c .cfa: sp 32 +
STACK CFI 12044 .cfa: sp 0 +
STACK CFI INIT 12048 14 .cfa: sp 0 +
STACK CFI INIT 1205c 4 .cfa: sp 0 +
STACK CFI INIT 12060 4 .cfa: sp 0 +
STACK CFI INIT 12064 28 .cfa: sp 0 +
STACK CFI 12068 .cfa: sp 32 +
STACK CFI 12070 .cfa: x29 32 + x19: .cfa -16 + ^ .ra: .cfa -24 + ^ x29: .cfa -32 + ^
STACK CFI 12080 .cfa: sp 32 +
STACK CFI 12088 .cfa: sp 0 +
STACK CFI INIT 1208c 1c .cfa: sp 0 +
STACK CFI INIT 120a8 c .cfa: sp 0 +
STACK CFI INIT 125e8 4 .cfa: sp 0 +
STACK CFI INIT 12770 54 .cfa: sp 0 +
STACK CFI 12774 .cfa: sp 32 +
STACK CFI 1277c .cfa: x29 32 + x19: .cfa -8 + ^ x20: .cfa -16 + ^ .ra: .cfa -24 + ^ x29: .cfa -32 + ^
STACK CFI 127b8 .cfa: sp 32 +
STACK CFI 127c0 .cfa: sp 0 +
STACK CFI INIT 127c4 138 .cfa: sp 0 +
STACK CFI 127c8 .cfa: sp 80 +
STACK CFI 127d8 .cfa: x29 48 + x19: .cfa -8 + ^ x20: .cfa -16 + ^ x21: .cfa -24 + ^ x22: .cfa -32 + ^ .ra: .cfa -40 + ^ x29: .cfa -48 + ^
STACK CFI 128e4 .cfa: sp 80 +
STACK CFI 128f4 .cfa: sp 0 +
STACK CFI 128f8 .cfa: x29 48 +
STACK CFI INIT 12c48 44 .cfa: sp 0 +
STACK CFI 12c50 .cfa: sp 32 +
STACK CFI 12c58 .cfa: x29 32 + x19: .cfa -16 + ^ .ra: .cfa -24 + ^ x29: .cfa -32 + ^
STACK CFI 12c7c .cfa: sp 32 +
STACK CFI 12c84 .cfa: sp 0 +
STACK CFI INIT 12c8c 44 .cfa: sp 0 +
STACK CFI 12c94 .cfa: sp 32 +
STACK CFI 12c9c .cfa: x29 32 + x19: .cfa -16 + ^ .ra: .cfa -24 + ^ x29: .cfa -32 + ^
STACK CFI 12cc0 .cfa: sp 32 +
STACK CFI 12cc8 .cfa: sp 0 +
STACK CFI INIT 12cd0 54 .cfa: sp 0 +
STACK CFI 12cd8 .cfa: sp 32 +
STACK CFI 12ce0 .cfa: x29 32 + x19: .cfa -16 + ^ .ra: .cfa -24 + ^ x29: .cfa -32 + ^
STACK CFI 12d18 .cfa: sp 32 +
STACK CFI 12d20 .cfa: sp 0 +
STACK CFI INIT 12d24 4c .cfa: sp 0 +
STACK CFI 12d2c .cfa: sp 32 +
STACK CFI 12d34 .cfa: x29 32 + x19: .cfa -16 + ^ .ra: .cfa -24 + ^ x29: .cfa -32 + ^
STACK CFI 12d64 .cfa: sp 32 +
STACK CFI 12d6c .cfa: sp 0 +
STACK CFI INIT 12d70 54 .cfa: sp 0 +
STACK CFI 12d78 .cfa: sp 32 +
STACK CFI 12d80 .cfa: x29 32 + x19: .cfa -16 + ^ .ra: .cfa -24 + ^ x29: .cfa -32 + ^
STACK CFI 12db8 .cfa: sp 32 +
STACK CFI 12dc0 .cfa: sp 0 +
STACK CFI INIT 12dc4 4c .cfa: sp 0 +
STACK CFI 12dcc .cfa: sp 32 +
STACK CFI 12dd4 .cfa: x29 32 + x19: .cfa -16 + ^ .ra: .cfa -24 + ^ x29: .cfa -32 + ^
STACK CFI 12e04 .cfa: sp 32 +
STACK CFI 12e0c .cfa: sp 0 +
STACK CFI INIT 13444 4 .cfa: sp 0 +
STACK CFI INIT 13448 30 .cfa: sp 0 +
STACK CFI 1344c .cfa: sp 32 +
STACK CFI 13454 .cfa: x29 32 + x19: .cfa -8 + ^ x20: .cfa -16 + ^ .ra: .cfa -24 + ^ x29: .cfa -32 + ^
STACK CFI 1346c .cfa: sp 32 +
STACK CFI 13474 .cfa: sp 0 +
STACK CFI INIT 13478 30 .cfa: sp 0 +
STACK CFI 1347c .cfa: sp 32 +
STACK CFI 13484 .cfa: x29 32 + x19: .cfa -8 + ^ x20: .cfa -16 + ^ .ra: .cfa -24 + ^ x29: .cfa -32 + ^
STACK CFI 1349c .cfa: sp 32 +
STACK CFI 134a4 .cfa: sp 0 +
STACK CFI INIT 137d8 4 .cfa: sp 0 +
STACK CFI INIT 13d14 104 .cfa: sp 0 +
STACK CFI 13d18 .cfa: sp 64 +
STACK CFI 13d28 .cfa: x29 64 + x19: .cfa -8 + ^ x20: .cfa -16 + ^ x21: .cfa -24 + ^ x22: .cfa -32 + ^ x23: .cfa -48 + ^ .ra: .cfa -56 + ^ x29: .cfa -64 + ^
STACK CFI 13d84 .cfa: sp 64 +
STACK CFI 13d94 .cfa: sp 0 +
STACK CFI 13d98 .cfa: x29 64 +
STACK CFI 13db4 .cfa: sp 64 +
STACK CFI 13dc4 .cfa: sp 0 +
STACK CFI 13dc8 .cfa: x29 64 +
STACK CFI 13e04 .cfa: sp 64 +
STACK CFI 13e14 .cfa: sp 0 +
STACK CFI INIT 1418c 4 .cfa: sp 0 +
STACK CFI INIT 144bc 4 .cfa: sp 0 +
STACK CFI INIT 14530 7c .cfa: sp 0 +
STACK CFI 14534 .cfa: sp 48 +
STACK CFI 14540 .cfa: x29 32 + x19: .cfa -8 + ^ x20: .cfa -16 + ^ .ra: .cfa -24 + ^ x29: .cfa -32 + ^
STACK CFI 14598 .cfa: sp 48 +
STACK CFI 145a4 .cfa: sp 0 +
STACK CFI 145a8 .cfa: x29 32 +
STACK CFI INIT 145ac b8 .cfa: sp 0 +
STACK CFI 145b0 .cfa: sp 48 +
STACK CFI 145bc .cfa: x29 32 + x19: .cfa -8 + ^ x20: .cfa -16 + ^ .ra: .cfa -24 + ^ x29: .cfa -32 + ^
STACK CFI 14650 .cfa: sp 48 +
STACK CFI 1465c .cfa: sp 0 +
STACK CFI 14660 .cfa: x29 32 +
STACK CFI INIT 1473c 54 .cfa: sp 0 +
STACK CFI 1474c .cfa: sp 32 +
STACK CFI 14754 .cfa: x29 32 + x19: .cfa -16 + ^ .ra: .cfa -24 + ^ x29: .cfa -32 + ^
STACK CFI 1476c .cfa: sp 32 +
STACK CFI 14774 .cfa: sp 0 +
STACK CFI INIT 14790 5c .cfa: sp 0 +
STACK CFI 147a4 .cfa: sp 32 +
STACK CFI 147ac .cfa: x29 32 + x19: .cfa -16 + ^ .ra: .cfa -24 + ^ x29: .cfa -32 + ^
STACK CFI 147b8 .cfa: sp 32 +
STACK CFI 147c0 .cfa: sp 0 +
STACK CFI INIT 147ec 288 .cfa: sp 0 +
STACK CFI 147f0 .cfa: sp 112 +
STACK CFI 14804 .cfa: x29 64 + x19: .cfa -8 + ^ x20: .cfa -16 + ^ x21: .cfa -24 + ^ x22: .cfa -32 + ^ x23: .cfa -48 + ^ .ra: .cfa -56 + ^ x29: .cfa -64 + ^
STACK CFI 14a58 .cfa: sp 112 +
STACK CFI 14a6c .cfa: sp 0 +
STACK CFI 14a70 .cfa: x29 64 +
STACK CFI INIT 14bf4 d0 .cfa: sp 0 +
STACK CFI 14bf8 .cfa: sp 96 +
STACK CFI 14c08 .cfa: x29 48 + x19: .cfa -8 + ^ x20: .cfa -16 + ^ x21: .cfa -24 + ^ x22: .cfa -32 + ^ .ra: .cfa -40 + ^ x29: .cfa -48 + ^
STACK CFI 14cac .cfa: sp 96 +
STACK CFI 14cbc .cfa: sp 0 +
STACK CFI 14cc0 .cfa: x29 48 +
STACK CFI INIT 14f58 1f0 .cfa: sp 0 +
STACK CFI 14f5c .cfa: sp 160 +
STACK CFI 14f74 .cfa: x29 80 + x19: .cfa -8 + ^ x20: .cfa -16 + ^ x21: .cfa -24 + ^ x22: .cfa -32 + ^ x23: .cfa -40 + ^ x24: .cfa -48 + ^ x25: .cfa -64 + ^ .ra: .cfa -72 + ^ x29: .cfa -80 + ^
STACK CFI 15128 .cfa: sp 160 +
STACK CFI 15140 .cfa: sp 0 +
STACK CFI 15144 .cfa: x29 80 +
STACK CFI INIT 15148 1b0 .cfa: sp 0 +
STACK CFI 1514c .cfa: sp 112 +
STACK CFI 1515c .cfa: x29 48 + x19: .cfa -8 + ^ x20: .cfa -16 + ^ x21: .cfa -32 + ^ .ra: .cfa -40 + ^ x29: .cfa -48 + ^
STACK CFI 152e0 .cfa: sp 112 +
STACK CFI 152f0 .cfa: sp 0 +
STACK CFI 152f4 .cfa: x29 48 +
STACK CFI INIT 15668 4c .cfa: sp 0 +
STACK CFI 1566c .cfa: sp 32 +
STACK CFI 15674 .cfa: x29 32 + x19: .cfa -8 + ^ x20: .cfa -16 + ^ .ra: .cfa -24 + ^ x29: .cfa -32 + ^
STACK CFI 1569c .cfa: sp 32 +
STACK CFI 156a4 .cfa: sp 0 +
STACK CFI 156a8 .cfa: sp 32 +
STACK CFI 156b0 .cfa: sp 0 +
STACK CFI INIT 157a8 ac .cfa: sp 0 +
STACK CFI 157ac .cfa: sp 80 +
STACK CFI 157bc .cfa: x29 48 + x19: .cfa -8 + ^ x20: .cfa -16 + ^ x21: .cfa -32 + ^ .ra: .cfa -40 + ^ x29: .cfa -48 + ^
STACK CFI 1583c .cfa: sp 80 +
STACK CFI 1584c .cfa: sp 0 +
STACK CFI 15850 .cfa: x29 48 +
STACK CFI INIT 15854 c .cfa: sp 0 +
STACK CFI INIT 1640c 50 .cfa: sp 0 +
STACK CFI 16410 .cfa: sp 32 +
STACK CFI 16418 .cfa: x29 32 + x19: .cfa -16 + ^ .ra: .cfa -24 + ^ x29: .cfa -32 + ^
STACK CFI 16430 .cfa: sp 32 +
STACK CFI 16438 .cfa: sp 0 +
STACK CFI 1643c .cfa: x29 32 +
STACK CFI 16450 .cfa: sp 32 +
STACK CFI 16458 .cfa: sp 0 +
STACK CFI INIT 1645c 4 .cfa: sp 0 +
STACK CFI INIT 16460 4 .cfa: sp 0 +
STACK CFI INIT 16464 34 .cfa: sp 0 +
STACK CFI 16468 .cfa: sp 32 +
STACK CFI 16470 .cfa: x29 32 + x19: .cfa -16 + ^ .ra: .cfa -24 + ^ x29: .cfa -32 + ^
STACK CFI 1648c .cfa: sp 32 +
STACK CFI 16494 .cfa: sp 0 +
STACK CFI INIT 16498 14 .cfa: sp 0 +
STACK CFI INIT 164ac 4 .cfa: sp 0 +
STACK CFI INIT 164b0 4 .cfa: sp 0 +
STACK CFI INIT 164b4 8 .cfa: sp 0 +
STACK CFI INIT 164bc 1c .cfa: sp 0 +
STACK CFI INIT 164d8 c .cfa: sp 0 +
STACK CFI INIT 1665c 50 .cfa: sp 0 +
STACK CFI 16660 .cfa: sp 32 +
STACK CFI 16668 .cfa: x29 32 + x19: .cfa -16 + ^ .ra: .cfa -24 + ^ x29: .cfa -32 + ^
STACK CFI 16680 .cfa: sp 32 +
STACK CFI 16688 .cfa: sp 0 +
STACK CFI 1668c .cfa: x29 32 +
STACK CFI 166a0 .cfa: sp 32 +
STACK CFI 166a8 .cfa: sp 0 +
STACK CFI INIT 166ac 50 .cfa: sp 0 +
STACK CFI 166b0 .cfa: sp 32 +
STACK CFI 166b8 .cfa: x29 32 + x19: .cfa -16 + ^ .ra: .cfa -24 + ^ x29: .cfa -32 + ^
STACK CFI 166d0 .cfa: sp 32 +
STACK CFI 166d8 .cfa: sp 0 +
STACK CFI 166dc .cfa: x29 32 +
STACK CFI 166f0 .cfa: sp 32 +
STACK CFI 166f8 .cfa: sp 0 +
STACK CFI INIT 166fc 4 .cfa: sp 0 +
STACK CFI INIT 16874 9c .cfa: sp 0 +
STACK CFI 16878 .cfa: sp 32 +
STACK CFI 16880 .cfa: x29 32 + x19: .cfa -8 + ^ x20: .cfa -16 + ^ .ra: .cfa -24 + ^ x29: .cfa -32 + ^
STACK CFI 16904 .cfa: sp 32 +
STACK CFI 1690c .cfa: sp 0 +
STACK CFI INIT 16910 a4 .cfa: sp 0 +
STACK CFI 16914 .cfa: sp 32 +
STACK CFI 1691c .cfa: x29 32 + x19: .cfa -8 + ^ x20: .cfa -16 + ^ .ra: .cfa -24 + ^ x29: .cfa -32 + ^
STACK CFI 169a8 .cfa: sp 32 +
STACK CFI 169b0 .cfa: sp 0 +
STACK CFI INIT 169b4 c .cfa: sp 0 +
STACK CFI INIT 169c0 4 .cfa: sp 0 +
STACK CFI INIT 16b38 5c .cfa: sp 0 +
STACK CFI 16b3c .cfa: sp 32 +
STACK CFI 16b44 .cfa: x29 32 + x19: .cfa -16 + ^ .ra: .cfa -24 + ^ x29: .cfa -32 + ^
STACK CFI 16b88 .cfa: sp 32 +
STACK CFI 16b90 .cfa: sp 0 +
STACK CFI INIT 16b94 64 .cfa: sp 0 +
STACK CFI 16b98 .cfa: sp 32 +
STACK CFI 16ba0 .cfa: x29 32 + x19: .cfa -16 + ^ .ra: .cfa -24 + ^ x29: .cfa -32 + ^
STACK CFI 16bec .cfa: sp 32 +
STACK CFI 16bf4 .cfa: sp 0 +
STACK CFI INIT 16bf8 4 .cfa: sp 0 +
STACK CFI INIT 16bfc 4 .cfa: sp 0 +
STACK CFI INIT 16c00 34 .cfa: sp 0 +
STACK CFI 16c04 .cfa: sp 32 +
STACK CFI 16c0c .cfa: x29 32 + x19: .cfa -16 + ^ .ra: .cfa -24 + ^ x29: .cfa -32 + ^
STACK CFI 16c28 .cfa: sp 32 +
STACK CFI 16c30 .cfa: sp 0 +
STACK CFI INIT 16c34 14 .cfa: sp 0 +
STACK CFI INIT 16c48 4 .cfa: sp 0 +
STACK CFI INIT 16c4c 4 .cfa: sp 0 +
STACK CFI INIT 16c50 10 .cfa: sp 0 +
STACK CFI INIT 16c60 1c .cfa: sp 0 +
STACK CFI INIT 16c7c c .cfa: sp 0 +
STACK CFI INIT 16fdc 4 .cfa: sp 0 +
STACK CFI INIT 16fe0 14 .cfa: sp 0 +
STACK CFI INIT 16ff4 4 .cfa: sp 0 +
STACK CFI INIT 16ff8 14 .cfa: sp 0 +
STACK CFI INIT 1700c 4 .cfa: sp 0 +
STACK CFI INIT 17010 14 .cfa: sp 0 +
STACK CFI INIT 17724 d0 .cfa: sp 0 +
STACK CFI 17728 .cfa: sp 128 +
STACK CFI 17738 .cfa: x29 48 + x19: .cfa -8 + ^ x20: .cfa -16 + ^ x21: .cfa -24 + ^ x22: .cfa -32 + ^ .ra: .cfa -40 + ^ x29: .cfa -48 + ^
STACK CFI 177dc .cfa: sp 128 +
STACK CFI 177ec .cfa: sp 0 +
STACK CFI 177f0 .cfa: x29 48 +
STACK CFI INIT 17954 4b4 .cfa: sp 0 +
STACK CFI 17958 .cfa: sp 96 +
STACK CFI 17970 .cfa: x29 96 + x19: .cfa -8 + ^ x20: .cfa -16 + ^ x21: .cfa -24 + ^ x22: .cfa -32 + ^ x23: .cfa -40 + ^ x24: .cfa -48 + ^ x25: .cfa -56 + ^ x26: .cfa -64 + ^ x27: .cfa -72 + ^ x28: .cfa -80 + ^ .ra: .cfa -88 + ^ x29: .cfa -96 + ^
STACK CFI 17db8 .cfa: sp 96 +
STACK CFI 17dd0 .cfa: sp 0 +
STACK CFI 17dd4 .cfa: x29 96 +
STACK CFI INIT 17e08 1a4 .cfa: sp 0 +
STACK CFI 17e0c .cfa: sp 64 +
STACK CFI 17e18 .cfa: x29 32 + x19: .cfa -8 + ^ x20: .cfa -16 + ^ .ra: .cfa -24 + ^ x29: .cfa -32 + ^
STACK CFI 17f44 .cfa: sp 64 +
STACK CFI 17f50 .cfa: sp 0 +
STACK CFI 17f54 .cfa: x29 32 +
STACK CFI INIT 17fac 194 .cfa: sp 0 +
STACK CFI 17fb0 .cfa: sp 16 +
STACK CFI 17fb4 .cfa: x29 16 + .ra: .cfa -8 + ^ x29: .cfa -16 + ^
STACK CFI 1804c .cfa: sp 16 +
STACK CFI 18050 .cfa: sp 0 +
STACK CFI 18054 .cfa: x29 16 +
STACK CFI 18120 .cfa: sp 16 +
STACK CFI 18124 .cfa: sp 0 +
STACK CFI 18128 .cfa: x29 16 +
STACK CFI INIT 18140 114 .cfa: sp 0 +
STACK CFI 18144 .cfa: sp 128 +
STACK CFI 18154 .cfa: x29 48 + x19: .cfa -8 + ^ x20: .cfa -16 + ^ x21: .cfa -32 + ^ .ra: .cfa -40 + ^ x29: .cfa -48 + ^
STACK CFI 18220 .cfa: sp 128 +
STACK CFI 18230 .cfa: sp 0 +
STACK CFI 18234 .cfa: x29 48 +
STACK CFI INIT 18254 114 .cfa: sp 0 +
STACK CFI 18258 .cfa: sp 128 +
STACK CFI 18268 .cfa: x29 48 + x19: .cfa -8 + ^ x20: .cfa -16 + ^ x21: .cfa -32 + ^ .ra: .cfa -40 + ^ x29: .cfa -48 + ^
STACK CFI 18334 .cfa: sp 128 +
STACK CFI 18344 .cfa: sp 0 +
STACK CFI 18348 .cfa: x29 48 +
STACK CFI INIT 18368 27c .cfa: sp 0 +
STACK CFI 1836c .cfa: sp 176 +
STACK CFI 18388 .cfa: x29 96 + x19: .cfa -8 + ^ x20: .cfa -16 + ^ x21: .cfa -24 + ^ x22: .cfa -32 + ^ x23: .cfa -40 + ^ x24: .cfa -48 + ^ x25: .cfa -56 + ^ x26: .cfa -64 + ^ x27: .cfa -72 + ^ x28: .cfa -80 + ^ .ra: .cfa -88 + ^ x29: .cfa -96 + ^
STACK CFI 185c0 .cfa: sp 176 +
STACK CFI 185dc .cfa: sp 0 +
STACK CFI 185e0 .cfa: x29 96 +
STACK CFI INIT 185e4 520 .cfa: sp 0 +
STACK CFI 185e8 .cfa: sp 176 +
STACK CFI 18604 .cfa: x29 96 + x19: .cfa -8 + ^ x20: .cfa -16 + ^ x21: .cfa -24 + ^ x22: .cfa -32 + ^ x23: .cfa -40 + ^ x24: .cfa -48 + ^ x25: .cfa -56 + ^ x26: .cfa -64 + ^ x27: .cfa -72 + ^ x28: .cfa -80 + ^ .ra: .cfa -88 + ^ x29: .cfa -96 + ^
STACK CFI 18ae0 .cfa: sp 176 +
STACK CFI 18afc .cfa: sp 0 +
STACK CFI 18b00 .cfa: x29 96 +
STACK CFI INIT 18b04 20c .cfa: sp 0 +
STACK CFI 18b08 .cfa: sp 80 +
STACK CFI 18b1c .cfa: x29 80 + x19: .cfa -8 + ^ x20: .cfa -16 + ^ x21: .cfa -24 + ^ x22: .cfa -32 + ^ x23: .cfa -40 + ^ x24: .cfa -48 + ^ x25: .cfa -64 + ^ .ra: .cfa -72 + ^ x29: .cfa -80 + ^
STACK CFI 18bac .cfa: sp 80 +
STACK CFI 18bc0 .cfa: sp 0 +
STACK CFI 18bc4 .cfa: x29 80 +
STACK CFI 18bd0 .cfa: sp 80 +
STACK CFI 18be4 .cfa: sp 0 +
STACK CFI 18be8 .cfa: x29 80 +
STACK CFI INIT 18d10 428 .cfa: sp 0 +
STACK CFI 18d14 .cfa: sp 128 +
STACK CFI 18d30 .cfa: x29 96 + x19: .cfa -8 + ^ x20: .cfa -16 + ^ x21: .cfa -24 + ^ x22: .cfa -32 + ^ x23: .cfa -40 + ^ x24: .cfa -48 + ^ x25: .cfa -56 + ^ x26: .cfa -64 + ^ x27: .cfa -72 + ^ x28: .cfa -80 + ^ .ra: .cfa -88 + ^ x29: .cfa -96 + ^
STACK CFI 19114 .cfa: sp 128 +
STACK CFI 19130 .cfa: sp 0 +
STACK CFI 19134 .cfa: x29 96 +
STACK CFI INIT 19138 194 .cfa: sp 0 +
STACK CFI 1913c .cfa: sp 32 +
STACK CFI 19144 .cfa: x29 16 + .ra: .cfa -8 + ^ x29: .cfa -16 + ^
STACK CFI 19188 .cfa: sp 32 +
STACK CFI 19190 .cfa: sp 0 +
STACK CFI 19194 .cfa: x29 16 +
STACK CFI INIT 192cc 1b8 .cfa: sp 0 +
STACK CFI INIT 19484 1d0 .cfa: sp 0 +
STACK CFI 19488 .cfa: sp 80 +
STACK CFI 1949c .cfa: x29 80 + x19: .cfa -8 + ^ x20: .cfa -16 + ^ x21: .cfa -24 + ^ x22: .cfa -32 + ^ x23: .cfa -40 + ^ x24: .cfa -48 + ^ x25: .cfa -64 + ^ .ra: .cfa -72 + ^ x29: .cfa -80 + ^
STACK CFI 1963c .cfa: sp 80 +
STACK CFI 19650 .cfa: sp 0 +
STACK CFI INIT 19654 67c .cfa: sp 0 +
STACK CFI 19658 .cfa: sp 176 +
STACK CFI 19674 .cfa: x29 96 + x19: .cfa -8 + ^ x20: .cfa -16 + ^ x21: .cfa -24 + ^ x22: .cfa -32 + ^ x23: .cfa -40 + ^ x24: .cfa -48 + ^ x25: .cfa -56 + ^ x26: .cfa -64 + ^ x27: .cfa -72 + ^ x28: .cfa -80 + ^ .ra: .cfa -88 + ^ x29: .cfa -96 + ^
STACK CFI 19cac .cfa: sp 176 +
STACK CFI 19cc8 .cfa: sp 0 +
STACK CFI 19ccc .cfa: x29 96 +
STACK CFI INIT 19cd0 1e4 .cfa: sp 0 +
STACK CFI 19cd4 .cfa: sp 32 +
STACK CFI 19cdc .cfa: x29 32 + x19: .cfa -8 + ^ x20: .cfa -16 + ^ .ra: .cfa -24 + ^ x29: .cfa -32 + ^
STACK CFI 19dcc .cfa: sp 32 +
STACK CFI 19dd4 .cfa: sp 0 +
STACK CFI 19dd8 .cfa: x29 32 +
STACK CFI 19e4c .cfa: sp 32 +
STACK CFI 19e54 .cfa: sp 0 +
STACK CFI 19e58 .cfa: x29 32 +
STACK CFI 19e68 .cfa: sp 32 +
STACK CFI 19e70 .cfa: sp 0 +
STACK CFI 19e74 .cfa: x29 32 +
STACK CFI 19e84 .cfa: sp 32 +
STACK CFI 19e8c .cfa: sp 0 +
STACK CFI 19e90 .cfa: x29 32 +
STACK CFI INIT 19eb4 178 .cfa: sp 0 +
STACK CFI 19eb8 .cfa: sp 80 +
STACK CFI 19ecc .cfa: x29 64 + x19: .cfa -8 + ^ x20: .cfa -16 + ^ x21: .cfa -24 + ^ x22: .cfa -32 + ^ x23: .cfa -40 + ^ x24: .cfa -48 + ^ .ra: .cfa -56 + ^ x29: .cfa -64 + ^
STACK CFI 1a010 .cfa: sp 80 +
STACK CFI 1a024 .cfa: sp 0 +
STACK CFI 1a028 .cfa: x29 64 +
STACK CFI INIT 1a02c 178 .cfa: sp 0 +
STACK CFI 1a030 .cfa: sp 80 +
STACK CFI 1a044 .cfa: x29 64 + x19: .cfa -8 + ^ x20: .cfa -16 + ^ x21: .cfa -24 + ^ x22: .cfa -32 + ^ x23: .cfa -40 + ^ x24: .cfa -48 + ^ .ra: .cfa -56 + ^ x29: .cfa -64 + ^
STACK CFI 1a188 .cfa: sp 80 +
STACK CFI 1a19c .cfa: sp 0 +
STACK CFI 1a1a0 .cfa: x29 64 +
STACK CFI INIT 1a1a4 178 .cfa: sp 0 +
STACK CFI 1a1a8 .cfa: sp 80 +
STACK CFI 1a1bc .cfa: x29 64 + x19: .cfa -8 + ^ x20: .cfa -16 + ^ x21: .cfa -24 + ^ x22: .cfa -32 + ^ x23: .cfa -40 + ^ x24: .cfa -48 + ^ .ra: .cfa -56 + ^ x29: .cfa -64 + ^
STACK CFI 1a300 .cfa: sp 80 +
STACK CFI 1a314 .cfa: sp 0 +
STACK CFI 1a318 .cfa: x29 64 +
STACK CFI INIT 1a31c 94 .cfa: sp 0 +
STACK CFI 1a320 .cfa: sp 16 +
STACK CFI 1a324 .cfa: x29 16 + .ra: .cfa -8 + ^ x29: .cfa -16 + ^
STACK CFI 1a378 .cfa: sp 16 +
STACK CFI 1a37c .cfa: sp 0 +
STACK CFI 1a380 .cfa: x29 16 +
STACK CFI INIT 1a3b0 158 .cfa: sp 0 +
STACK CFI 1a3b4 .cfa: sp 112 +
STACK CFI 1a3d0 .cfa: x29 96 + x19: .cfa -8 + ^ x20: .cfa -16 + ^ x21: .cfa -24 + ^ x22: .cfa -32 + ^ x23: .cfa -40 + ^ x24: .cfa -48 + ^ x25: .cfa -56 + ^ x26: .cfa -64 + ^ x27: .cfa -72 + ^ x28: .cfa -80 + ^ .ra: .cfa -88 + ^ x29: .cfa -96 + ^
STACK CFI 1a4b8 .cfa: sp 112 +
STACK CFI 1a4bc .cfa: x29 96 +
STACK CFI 1a4c4 .cfa: sp 112 +
STACK CFI 1a4e0 .cfa: sp 0 +
STACK CFI 1a4e4 .cfa: x29 96 +
STACK CFI 1a504 .cfa: sp 112 +
STACK CFI INIT 1a508 94 .cfa: sp 0 +
STACK CFI 1a50c .cfa: sp 16 +
STACK CFI 1a510 .cfa: x29 16 + .ra: .cfa -8 + ^ x29: .cfa -16 + ^
STACK CFI 1a564 .cfa: sp 16 +
STACK CFI 1a568 .cfa: sp 0 +
STACK CFI 1a56c .cfa: x29 16 +
STACK CFI INIT 1a59c 4 .cfa: sp 0 +
STACK CFI INIT 1a5a0 24 .cfa: sp 0 +
STACK CFI 1a5a4 .cfa: sp 16 +
STACK CFI 1a5a8 .cfa: x29 16 + .ra: .cfa -8 + ^ x29: .cfa -16 + ^
STACK CFI 1a5bc .cfa: sp 16 +
STACK CFI 1a5c0 .cfa: sp 0 +
STACK CFI INIT 1a5c4 10 .cfa: sp 0 +
STACK CFI INIT 1a5d4 4 .cfa: sp 0 +
STACK CFI INIT 1a5d8 4 .cfa: sp 0 +
STACK CFI INIT 1a6fc 1c .cfa: sp 0 +
STACK CFI INIT 1a718 c .cfa: sp 0 +
STACK CFI INIT 1ac58 1ac .cfa: sp 0 +
STACK CFI 1ac5c .cfa: sp 32 +
STACK CFI 1ac64 .cfa: x29 32 + x19: .cfa -8 + ^ x20: .cfa -16 + ^ .ra: .cfa -24 + ^ x29: .cfa -32 + ^
STACK CFI 1ad54 .cfa: sp 32 +
STACK CFI 1ad5c .cfa: sp 0 +
STACK CFI 1ad60 .cfa: x29 32 +
STACK CFI INIT 1b3f8 4 .cfa: sp 0 +
STACK CFI INIT 1b46c 7c .cfa: sp 0 +
STACK CFI 1b470 .cfa: sp 48 +
STACK CFI 1b47c .cfa: x29 32 + x19: .cfa -8 + ^ x20: .cfa -16 + ^ .ra: .cfa -24 + ^ x29: .cfa -32 + ^
STACK CFI 1b4d4 .cfa: sp 48 +
STACK CFI 1b4e0 .cfa: sp 0 +
STACK CFI 1b4e4 .cfa: x29 32 +
STACK CFI INIT 1b4e8 b8 .cfa: sp 0 +
STACK CFI 1b4ec .cfa: sp 48 +
STACK CFI 1b4f8 .cfa: x29 32 + x19: .cfa -8 + ^ x20: .cfa -16 + ^ .ra: .cfa -24 + ^ x29: .cfa -32 + ^
STACK CFI 1b58c .cfa: sp 48 +
STACK CFI 1b598 .cfa: sp 0 +
STACK CFI 1b59c .cfa: x29 32 +
STACK CFI INIT 1b678 44 .cfa: sp 0 +
STACK CFI 1b688 .cfa: sp 32 +
STACK CFI 1b690 .cfa: x29 32 + x19: .cfa -16 + ^ .ra: .cfa -24 + ^ x29: .cfa -32 + ^
STACK CFI 1b6a8 .cfa: sp 32 +
STACK CFI 1b6b0 .cfa: sp 0 +
STACK CFI INIT 1b6bc 4c .cfa: sp 0 +
STACK CFI 1b6d0 .cfa: sp 32 +
STACK CFI 1b6d8 .cfa: x29 32 + x19: .cfa -16 + ^ .ra: .cfa -24 + ^ x29: .cfa -32 + ^
STACK CFI 1b6e4 .cfa: sp 32 +
STACK CFI 1b6ec .cfa: sp 0 +
STACK CFI INIT 1b708 288 .cfa: sp 0 +
STACK CFI 1b70c .cfa: sp 112 +
STACK CFI 1b720 .cfa: x29 64 + x19: .cfa -8 + ^ x20: .cfa -16 + ^ x21: .cfa -24 + ^ x22: .cfa -32 + ^ x23: .cfa -48 + ^ .ra: .cfa -56 + ^ x29: .cfa -64 + ^
STACK CFI 1b974 .cfa: sp 112 +
STACK CFI 1b988 .cfa: sp 0 +
STACK CFI 1b98c .cfa: x29 64 +
STACK CFI INIT 1bb10 d0 .cfa: sp 0 +
STACK CFI 1bb14 .cfa: sp 96 +
STACK CFI 1bb24 .cfa: x29 48 + x19: .cfa -8 + ^ x20: .cfa -16 + ^ x21: .cfa -24 + ^ x22: .cfa -32 + ^ .ra: .cfa -40 + ^ x29: .cfa -48 + ^
STACK CFI 1bbc8 .cfa: sp 96 +
STACK CFI 1bbd8 .cfa: sp 0 +
STACK CFI 1bbdc .cfa: x29 48 +
STACK CFI INIT 1be74 1f0 .cfa: sp 0 +
STACK CFI 1be78 .cfa: sp 160 +
STACK CFI 1be90 .cfa: x29 80 + x19: .cfa -8 + ^ x20: .cfa -16 + ^ x21: .cfa -24 + ^ x22: .cfa -32 + ^ x23: .cfa -40 + ^ x24: .cfa -48 + ^ x25: .cfa -64 + ^ .ra: .cfa -72 + ^ x29: .cfa -80 + ^
STACK CFI 1c044 .cfa: sp 160 +
STACK CFI 1c05c .cfa: sp 0 +
STACK CFI 1c060 .cfa: x29 80 +
STACK CFI INIT 1c064 1b0 .cfa: sp 0 +
STACK CFI 1c068 .cfa: sp 112 +
STACK CFI 1c078 .cfa: x29 48 + x19: .cfa -8 + ^ x20: .cfa -16 + ^ x21: .cfa -32 + ^ .ra: .cfa -40 + ^ x29: .cfa -48 + ^
STACK CFI 1c1fc .cfa: sp 112 +
STACK CFI 1c20c .cfa: sp 0 +
STACK CFI 1c210 .cfa: x29 48 +
STACK CFI INIT 1c66c ac .cfa: sp 0 +
STACK CFI 1c670 .cfa: sp 80 +
STACK CFI 1c680 .cfa: x29 48 + x19: .cfa -8 + ^ x20: .cfa -16 + ^ x21: .cfa -32 + ^ .ra: .cfa -40 + ^ x29: .cfa -48 + ^
STACK CFI 1c700 .cfa: sp 80 +
STACK CFI 1c710 .cfa: sp 0 +
STACK CFI 1c714 .cfa: x29 48 +
STACK CFI INIT 1c718 c .cfa: sp 0 +
STACK CFI INIT 1cf8c c .cfa: sp 0 +
STACK CFI INIT 1d514 4 .cfa: sp 0 +
STACK CFI INIT 1d518 24 .cfa: sp 0 +
STACK CFI 1d51c .cfa: sp 16 +
STACK CFI 1d520 .cfa: x29 16 + .ra: .cfa -8 + ^ x29: .cfa -16 + ^
STACK CFI 1d534 .cfa: sp 16 +
STACK CFI 1d538 .cfa: sp 0 +
STACK CFI INIT 1d53c 10 .cfa: sp 0 +
STACK CFI INIT 1d54c 4 .cfa: sp 0 +
STACK CFI INIT 1d550 4 .cfa: sp 0 +
STACK CFI INIT 1d674 1c .cfa: sp 0 +
STACK CFI INIT 1d690 c .cfa: sp 0 +
STACK CFI INIT 1dea0 3c .cfa: sp 0 +
STACK CFI 1dea4 .cfa: sp 32 +
STACK CFI 1deac .cfa: x29 32 + x19: .cfa -16 + ^ .ra: .cfa -24 + ^ x29: .cfa -32 + ^
STACK CFI 1deb8 .cfa: sp 32 +
STACK CFI 1dec0 .cfa: sp 0 +
STACK CFI 1dec4 .cfa: x29 32 +
STACK CFI 1ded0 .cfa: sp 32 +
STACK CFI 1ded8 .cfa: sp 0 +
STACK CFI INIT 1dedc 3c .cfa: sp 0 +
STACK CFI 1dee0 .cfa: sp 32 +
STACK CFI 1dee8 .cfa: x29 32 + x19: .cfa -16 + ^ .ra: .cfa -24 + ^ x29: .cfa -32 + ^
STACK CFI 1def4 .cfa: sp 32 +
STACK CFI 1defc .cfa: sp 0 +
STACK CFI 1df00 .cfa: x29 32 +
STACK CFI 1df0c .cfa: sp 32 +
STACK CFI 1df14 .cfa: sp 0 +
STACK CFI INIT 1df18 c .cfa: sp 0 +
STACK CFI INIT 1df24 24c .cfa: sp 0 +
STACK CFI INIT 1e170 a0 .cfa: sp 0 +
STACK CFI 1e17c .cfa: sp 32 +
STACK CFI 1e1d4 .cfa: sp 0 +
STACK CFI 1e1d8 .cfa: sp 32 +
STACK CFI 1e1e0 .cfa: sp 0 +
STACK CFI 1e1e4 .cfa: sp 32 +
STACK CFI 1e1f8 .cfa: sp 0 +
STACK CFI 1e1fc .cfa: sp 32 +
STACK CFI 1e20c .cfa: sp 0 +
STACK CFI INIT 1e210 38 .cfa: sp 0 +
STACK CFI 1e21c .cfa: sp 32 +
STACK CFI 1e244 .cfa: sp 0 +
STACK CFI INIT 1e4dc 7c .cfa: sp 0 +
STACK CFI 1e4e0 .cfa: sp 32 +
STACK CFI 1e4e8 .cfa: x29 32 + x19: .cfa -16 + ^ .ra: .cfa -24 + ^ x29: .cfa -32 + ^
STACK CFI 1e514 .cfa: sp 32 +
STACK CFI 1e51c .cfa: sp 0 +
STACK CFI 1e520 .cfa: x29 32 +
STACK CFI 1e54c .cfa: sp 32 +
STACK CFI 1e554 .cfa: sp 0 +
STACK CFI INIT 1e5a8 2c .cfa: sp 0 +
STACK CFI 1e5ac .cfa: sp 32 +
STACK CFI 1e5b4 .cfa: x29 32 + x19: .cfa -16 + ^ .ra: .cfa -24 + ^ x29: .cfa -32 + ^
STACK CFI 1e5c8 .cfa: sp 32 +
STACK CFI 1e5d0 .cfa: sp 0 +
STACK CFI INIT 1ed94 64 .cfa: sp 0 +
STACK CFI 1ed98 .cfa: sp 32 +
STACK CFI 1eda0 .cfa: x29 32 + x19: .cfa -16 + ^ .ra: .cfa -24 + ^ x29: .cfa -32 + ^
STACK CFI 1edbc .cfa: sp 32 +
STACK CFI 1edc4 .cfa: sp 0 +
STACK CFI 1edc8 .cfa: x29 32 +
STACK CFI 1edec .cfa: sp 32 +
STACK CFI 1edf4 .cfa: sp 0 +
STACK CFI INIT 1edf8 570 .cfa: sp 0 +
STACK CFI 1edfc .cfa: sp 176 +
STACK CFI 1ee10 .cfa: x29 64 + x19: .cfa -8 + ^ x20: .cfa -16 + ^ x21: .cfa -24 + ^ x22: .cfa -32 + ^ x23: .cfa -40 + ^ x24: .cfa -48 + ^ .ra: .cfa -56 + ^ x29: .cfa -64 + ^
STACK CFI 1f040 .cfa: sp 176 +
STACK CFI 1f054 .cfa: sp 0 +
STACK CFI 1f058 .cfa: x29 64 +
STACK CFI 1f0a4 .cfa: sp 176 +
STACK CFI 1f0b8 .cfa: sp 0 +
STACK CFI 1f0bc .cfa: x29 64 +
STACK CFI 1f0f4 .cfa: sp 176 +
STACK CFI 1f108 .cfa: sp 0 +
STACK CFI 1f10c .cfa: x29 64 +
STACK CFI 1f124 .cfa: sp 176 +
STACK CFI 1f138 .cfa: sp 0 +
STACK CFI 1f13c .cfa: x29 64 +
STACK CFI 1f15c .cfa: sp 176 +
STACK CFI 1f170 .cfa: sp 0 +
STACK CFI 1f174 .cfa: x29 64 +
STACK CFI 1f18c .cfa: sp 176 +
STACK CFI 1f1a0 .cfa: sp 0 +
STACK CFI 1f1a4 .cfa: x29 64 +
STACK CFI 1f1b8 .cfa: sp 176 +
STACK CFI 1f1cc .cfa: sp 0 +
STACK CFI 1f1d0 .cfa: x29 64 +
STACK CFI 1f1e4 .cfa: sp 176 +
STACK CFI 1f1f8 .cfa: sp 0 +
STACK CFI 1f1fc .cfa: x29 64 +
STACK CFI 1f20c .cfa: sp 176 +
STACK CFI 1f220 .cfa: sp 0 +
STACK CFI 1f224 .cfa: x29 64 +
STACK CFI 1f234 .cfa: sp 176 +
STACK CFI 1f248 .cfa: sp 0 +
STACK CFI 1f24c .cfa: x29 64 +
STACK CFI 1f264 .cfa: sp 176 +
STACK CFI 1f278 .cfa: sp 0 +
STACK CFI 1f27c .cfa: x29 64 +
STACK CFI 1f290 .cfa: sp 176 +
STACK CFI 1f2a4 .cfa: sp 0 +
STACK CFI 1f2a8 .cfa: x29 64 +
STACK CFI 1f2c0 .cfa: sp 176 +
STACK CFI 1f2d4 .cfa: sp 0 +
STACK CFI 1f2d8 .cfa: x29 64 +
STACK CFI 1f304 .cfa: sp 176 +
STACK CFI 1f318 .cfa: sp 0 +
STACK CFI 1f31c .cfa: x29 64 +
STACK CFI 1f330 .cfa: sp 176 +
STACK CFI 1f344 .cfa: sp 0 +
STACK CFI 1f348 .cfa: x29 64 +
STACK CFI INIT 1f368 228 .cfa: sp 0 +
STACK CFI INIT 1f590 2dc .cfa: sp 0 +
STACK CFI INIT 1f86c 53c .cfa: sp 0 +
STACK CFI INIT 1fda8 78 .cfa: sp 0 +
STACK CFI 1fdac .cfa: sp 48 +
STACK CFI 1fdb8 .cfa: x29 48 + x19: .cfa -8 + ^ x20: .cfa -16 + ^ x21: .cfa -24 + ^ x22: .cfa -32 + ^ .ra: .cfa -40 + ^ x29: .cfa -48 + ^
STACK CFI 1fe00 .cfa: sp 48 +
STACK CFI 1fe0c .cfa: sp 0 +
STACK CFI 1fe10 .cfa: sp 48 +
STACK CFI 1fe1c .cfa: sp 0 +
STACK CFI INIT 1fe20 8c .cfa: sp 0 +
STACK CFI 1fe24 .cfa: sp 32 +
STACK CFI 1fe2c .cfa: x29 32 + x19: .cfa -16 + ^ .ra: .cfa -24 + ^ x29: .cfa -32 + ^
STACK CFI 1fe60 .cfa: sp 32 +
STACK CFI 1fe68 .cfa: sp 0 +
STACK CFI 1fe6c .cfa: x29 32 +
STACK CFI 1fea0 .cfa: sp 32 +
STACK CFI 1fea8 .cfa: sp 0 +
STACK CFI INIT 1feac 24 .cfa: sp 0 +
STACK CFI 1feb0 .cfa: sp 32 +
STACK CFI 1feb8 .cfa: x29 32 + x19: .cfa -16 + ^ .ra: .cfa -24 + ^ x29: .cfa -32 + ^
STACK CFI 1fec4 .cfa: sp 32 +
STACK CFI 1fecc .cfa: sp 0 +
STACK CFI INIT 1fed0 150 .cfa: sp 0 +
STACK CFI 1fed4 .cfa: sp 48 +
STACK CFI 1fee0 .cfa: x29 48 + x19: .cfa -8 + ^ x20: .cfa -16 + ^ x21: .cfa -24 + ^ x22: .cfa -32 + ^ .ra: .cfa -40 + ^ x29: .cfa -48 + ^
STACK CFI 20010 .cfa: sp 48 +
STACK CFI 2001c .cfa: sp 0 +
STACK CFI INIT 20020 68 .cfa: sp 0 +
STACK CFI 20024 .cfa: sp 64 +
STACK CFI 20030 .cfa: x29 32 + x19: .cfa -16 + ^ .ra: .cfa -24 + ^ x29: .cfa -32 + ^
STACK CFI 20074 .cfa: sp 64 +
STACK CFI 20080 .cfa: sp 0 +
STACK CFI 20084 .cfa: x29 32 +
STACK CFI INIT 20088 90 .cfa: sp 0 +
STACK CFI 2008c .cfa: sp 32 +
STACK CFI 20094 .cfa: x29 32 + x19: .cfa -8 + ^ x20: .cfa -16 + ^ .ra: .cfa -24 + ^ x29: .cfa -32 + ^
STACK CFI 200c0 .cfa: sp 32 +
STACK CFI 200c8 .cfa: sp 0 +
STACK CFI 200cc .cfa: x29 32 +
STACK CFI 2010c .cfa: sp 32 +
STACK CFI 20114 .cfa: sp 0 +
STACK CFI INIT 20118 ec .cfa: sp 0 +
STACK CFI 2011c .cfa: sp 112 +
STACK CFI 2012c .cfa: x29 48 + x19: .cfa -8 + ^ x20: .cfa -16 + ^ x21: .cfa -32 + ^ .ra: .cfa -40 + ^ x29: .cfa -48 + ^
STACK CFI 201ec .cfa: sp 112 +
STACK CFI 201fc .cfa: sp 0 +
STACK CFI 20200 .cfa: x29 48 +
STACK CFI INIT 20204 ec .cfa: sp 0 +
STACK CFI 20208 .cfa: sp 112 +
STACK CFI 20218 .cfa: x29 48 + x19: .cfa -8 + ^ x20: .cfa -16 + ^ x21: .cfa -32 + ^ .ra: .cfa -40 + ^ x29: .cfa -48 + ^
STACK CFI 202d8 .cfa: sp 112 +
STACK CFI 202e8 .cfa: sp 0 +
STACK CFI 202ec .cfa: x29 48 +
STACK CFI INIT 202f0 48 .cfa: sp 0 +
STACK CFI 202f4 .cfa: sp 32 +
STACK CFI 202fc .cfa: x29 32 + x19: .cfa -8 + ^ x20: .cfa -16 + ^ .ra: .cfa -24 + ^ x29: .cfa -32 + ^
STACK CFI 20320 .cfa: sp 32 +
STACK CFI 20328 .cfa: sp 0 +
STACK CFI 2032c .cfa: x29 32 +
STACK CFI INIT 20338 98 .cfa: sp 0 +
STACK CFI 2033c .cfa: sp 80 +
STACK CFI 20348 .cfa: x29 32 + x19: .cfa -16 + ^ .ra: .cfa -24 + ^ x29: .cfa -32 + ^
STACK CFI 203bc .cfa: sp 80 +
STACK CFI 203c8 .cfa: sp 0 +
STACK CFI 203cc .cfa: x29 32 +
STACK CFI INIT 203d0 260 .cfa: sp 0 +
STACK CFI 203d4 .cfa: sp 112 +
STACK CFI 203ec .cfa: x29 80 + x19: .cfa -8 + ^ x20: .cfa -16 + ^ x21: .cfa -24 + ^ x22: .cfa -32 + ^ x23: .cfa -40 + ^ x24: .cfa -48 + ^ x25: .cfa -64 + ^ .ra: .cfa -72 + ^ x29: .cfa -80 + ^
STACK CFI 205d0 .cfa: sp 112 +
STACK CFI 205e8 .cfa: sp 0 +
STACK CFI 205ec .cfa: x29 80 +
STACK CFI INIT 20630 150 .cfa: sp 0 +
STACK CFI 20634 .cfa: sp 48 +
STACK CFI 20640 .cfa: x29 48 + x19: .cfa -8 + ^ x20: .cfa -16 + ^ x21: .cfa -24 + ^ x22: .cfa -32 + ^ .ra: .cfa -40 + ^ x29: .cfa -48 + ^
STACK CFI 20770 .cfa: sp 48 +
STACK CFI 2077c .cfa: sp 0 +
STACK CFI INIT 20780 1e0 .cfa: sp 0 +
STACK CFI 20784 .cfa: sp 96 +
STACK CFI 20798 .cfa: x29 64 + x19: .cfa -8 + ^ x20: .cfa -16 + ^ x21: .cfa -24 + ^ x22: .cfa -32 + ^ x23: .cfa -40 + ^ x24: .cfa -48 + ^ .ra: .cfa -56 + ^ x29: .cfa -64 + ^
STACK CFI 20918 .cfa: sp 96 +
STACK CFI 2092c .cfa: sp 0 +
STACK CFI 20930 .cfa: x29 64 +
STACK CFI INIT 20960 284 .cfa: sp 0 +
STACK CFI 20964 .cfa: sp 112 +
STACK CFI 2097c .cfa: x29 80 + x19: .cfa -8 + ^ x20: .cfa -16 + ^ x21: .cfa -24 + ^ x22: .cfa -32 + ^ x23: .cfa -40 + ^ x24: .cfa -48 + ^ x25: .cfa -64 + ^ .ra: .cfa -72 + ^ x29: .cfa -80 + ^
STACK CFI 20b84 .cfa: sp 112 +
STACK CFI 20b9c .cfa: sp 0 +
STACK CFI 20ba0 .cfa: x29 80 +
STACK CFI INIT 20be4 208 .cfa: sp 0 +
STACK CFI 20be8 .cfa: sp 96 +
STACK CFI 20bfc .cfa: x29 64 + x19: .cfa -8 + ^ x20: .cfa -16 + ^ x21: .cfa -24 + ^ x22: .cfa -32 + ^ x23: .cfa -40 + ^ x24: .cfa -48 + ^ .ra: .cfa -56 + ^ x29: .cfa -64 + ^
STACK CFI 20da4 .cfa: sp 96 +
STACK CFI 20db8 .cfa: sp 0 +
STACK CFI 20dbc .cfa: x29 64 +
STACK CFI INIT 20dec 360 .cfa: sp 0 +
STACK CFI 20df0 .cfa: sp 160 +
STACK CFI 20e0c .cfa: x29 96 + x19: .cfa -8 + ^ x20: .cfa -16 + ^ x21: .cfa -24 + ^ x22: .cfa -32 + ^ x23: .cfa -40 + ^ x24: .cfa -48 + ^ x25: .cfa -56 + ^ x26: .cfa -64 + ^ x27: .cfa -72 + ^ x28: .cfa -80 + ^ .ra: .cfa -88 + ^ x29: .cfa -96 + ^
STACK CFI 210d8 .cfa: sp 160 +
STACK CFI 210f4 .cfa: sp 0 +
STACK CFI 210f8 .cfa: x29 96 +
STACK CFI INIT 2114c 314 .cfa: sp 0 +
STACK CFI 21150 .cfa: sp 144 +
STACK CFI 2116c .cfa: x29 96 + x19: .cfa -8 + ^ x20: .cfa -16 + ^ x21: .cfa -24 + ^ x22: .cfa -32 + ^ x23: .cfa -40 + ^ x24: .cfa -48 + ^ x25: .cfa -56 + ^ x26: .cfa -64 + ^ x27: .cfa -72 + ^ x28: .cfa -80 + ^ .ra: .cfa -88 + ^ x29: .cfa -96 + ^
STACK CFI 213e8 .cfa: sp 144 +
STACK CFI 21404 .cfa: sp 0 +
STACK CFI 21408 .cfa: x29 96 +
STACK CFI INIT 21460 2b4 .cfa: sp 0 +
STACK CFI 21464 .cfa: sp 128 +
STACK CFI 2147c .cfa: x29 80 + x19: .cfa -8 + ^ x20: .cfa -16 + ^ x21: .cfa -24 + ^ x22: .cfa -32 + ^ x23: .cfa -40 + ^ x24: .cfa -48 + ^ x25: .cfa -56 + ^ x26: .cfa -64 + ^ .ra: .cfa -72 + ^ x29: .cfa -80 + ^
STACK CFI 21670 .cfa: sp 128 +
STACK CFI 21688 .cfa: sp 0 +
STACK CFI 2168c .cfa: x29 80 +
STACK CFI 216f4 .cfa: sp 128 +
STACK CFI 2170c .cfa: sp 0 +
STACK CFI 21710 .cfa: x29 80 +
STACK CFI INIT 21714 de0 .cfa: sp 0 +
STACK CFI 21718 .cfa: sp 144 +
STACK CFI 21734 .cfa: x29 96 + x19: .cfa -8 + ^ x20: .cfa -16 + ^ x21: .cfa -24 + ^ x22: .cfa -32 + ^ x23: .cfa -40 + ^ x24: .cfa -48 + ^ x25: .cfa -56 + ^ x26: .cfa -64 + ^ x27: .cfa -72 + ^ x28: .cfa -80 + ^ .ra: .cfa -88 + ^ x29: .cfa -96 + ^
STACK CFI 223cc .cfa: sp 144 +
STACK CFI 223e8 .cfa: sp 0 +
STACK CFI 223ec .cfa: x29 96 +
STACK CFI INIT 224f4 264 .cfa: sp 0 +
STACK CFI 224f8 .cfa: sp 112 +
STACK CFI 2250c .cfa: x29 64 + x19: .cfa -8 + ^ x20: .cfa -16 + ^ x21: .cfa -24 + ^ x22: .cfa -32 + ^ x23: .cfa -40 + ^ x24: .cfa -48 + ^ .ra: .cfa -56 + ^ x29: .cfa -64 + ^
STACK CFI 22688 .cfa: sp 112 +
STACK CFI 2269c .cfa: sp 0 +
STACK CFI 226a0 .cfa: x29 64 +
STACK CFI 22710 .cfa: sp 112 +
STACK CFI 22724 .cfa: sp 0 +
STACK CFI 22728 .cfa: x29 64 +
STACK CFI INIT 22758 258 .cfa: sp 0 +
STACK CFI 2275c .cfa: sp 96 +
STACK CFI 22774 .cfa: x29 96 + x19: .cfa -8 + ^ x20: .cfa -16 + ^ x21: .cfa -24 + ^ x22: .cfa -32 + ^ x23: .cfa -40 + ^ x24: .cfa -48 + ^ x25: .cfa -56 + ^ x26: .cfa -64 + ^ x27: .cfa -72 + ^ x28: .cfa -80 + ^ .ra: .cfa -88 + ^ x29: .cfa -96 + ^
STACK CFI 2296c .cfa: sp 96 +
STACK CFI 22984 .cfa: sp 0 +
STACK CFI 22988 .cfa: x29 96 +
STACK CFI 22994 .cfa: sp 96 +
STACK CFI 229ac .cfa: sp 0 +
STACK CFI INIT 23634 154 .cfa: sp 0 +
STACK CFI 23638 .cfa: sp 96 +
STACK CFI 2364c .cfa: x29 64 + x19: .cfa -8 + ^ x20: .cfa -16 + ^ x21: .cfa -24 + ^ x22: .cfa -32 + ^ x23: .cfa -48 + ^ .ra: .cfa -56 + ^ x29: .cfa -64 + ^
STACK CFI 2372c .cfa: sp 96 +
STACK CFI 23740 .cfa: sp 0 +
STACK CFI 23744 .cfa: x29 64 +
STACK CFI INIT 239f4 44 .cfa: sp 0 +
STACK CFI 239f8 .cfa: sp 32 +
STACK CFI 23a00 .cfa: x29 32 + x19: .cfa -16 + ^ .ra: .cfa -24 + ^ x29: .cfa -32 + ^
STACK CFI 23a1c .cfa: sp 32 +
STACK CFI 23a24 .cfa: sp 0 +
STACK CFI 23a28 .cfa: x29 32 +
STACK CFI 23a2c .cfa: sp 32 +
STACK CFI 23a34 .cfa: sp 0 +
STACK CFI INIT 23a38 1d0 .cfa: sp 0 +
STACK CFI 23a3c .cfa: sp 64 +
STACK CFI 23a4c .cfa: x29 64 + x19: .cfa -8 + ^ x20: .cfa -16 + ^ x21: .cfa -24 + ^ x22: .cfa -32 + ^ x23: .cfa -40 + ^ x24: .cfa -48 + ^ .ra: .cfa -56 + ^ x29: .cfa -64 + ^
STACK CFI 23b0c .cfa: sp 64 +
STACK CFI 23b1c .cfa: sp 0 +
STACK CFI 23b20 .cfa: x29 64 +
STACK CFI INIT 23c08 17c .cfa: sp 0 +
STACK CFI INIT 23d84 ac .cfa: sp 0 +
STACK CFI 23d88 .cfa: sp 64 +
STACK CFI 23d98 .cfa: x29 64 + x19: .cfa -8 + ^ x20: .cfa -16 + ^ x21: .cfa -24 + ^ x22: .cfa -32 + ^ x23: .cfa -48 + ^ .ra: .cfa -56 + ^ x29: .cfa -64 + ^
STACK CFI 23e14 .cfa: sp 64 +
STACK CFI 23e24 .cfa: sp 0 +
STACK CFI 23e28 .cfa: x29 64 +
STACK CFI INIT 23e30 110 .cfa: sp 0 +
STACK CFI 23e34 .cfa: sp 64 +
STACK CFI 23e44 .cfa: x29 64 + x19: .cfa -8 + ^ x20: .cfa -16 + ^ x21: .cfa -24 + ^ x22: .cfa -32 + ^ x23: .cfa -40 + ^ x24: .cfa -48 + ^ .ra: .cfa -56 + ^ x29: .cfa -64 + ^
STACK CFI 23f24 .cfa: sp 64 +
STACK CFI 23f34 .cfa: sp 0 +
STACK CFI 23f38 .cfa: x29 64 +
STACK CFI INIT 242f8 a0 .cfa: sp 0 +
STACK CFI 242fc .cfa: sp 48 +
STACK CFI 24308 .cfa: x29 48 + x19: .cfa -8 + ^ x20: .cfa -16 + ^ x21: .cfa -24 + ^ x22: .cfa -32 + ^ .ra: .cfa -40 + ^ x29: .cfa -48 + ^
STACK CFI 24374 .cfa: sp 48 +
STACK CFI 24380 .cfa: sp 0 +
STACK CFI 24384 .cfa: sp 48 +
STACK CFI 24390 .cfa: sp 0 +
STACK CFI 24394 .cfa: x29 48 +
STACK CFI INIT 25058 158 .cfa: sp 0 +
STACK CFI 2505c .cfa: sp 96 +
STACK CFI 25070 .cfa: x29 64 + x19: .cfa -8 + ^ x20: .cfa -16 + ^ x21: .cfa -24 + ^ x22: .cfa -32 + ^ x23: .cfa -48 + ^ .ra: .cfa -56 + ^ x29: .cfa -64 + ^
STACK CFI 25154 .cfa: sp 96 +
STACK CFI 25168 .cfa: sp 0 +
STACK CFI 2516c .cfa: x29 64 +
STACK CFI INIT 251b0 190 .cfa: sp 0 +
STACK CFI INIT 25e38 1f4 .cfa: sp 0 +
STACK CFI 25e3c .cfa: sp 80 +
STACK CFI 25e50 .cfa: x29 80 + x19: .cfa -8 + ^ x20: .cfa -16 + ^ x21: .cfa -24 + ^ x22: .cfa -32 + ^ x23: .cfa -40 + ^ x24: .cfa -48 + ^ x25: .cfa -64 + ^ .ra: .cfa -72 + ^ x29: .cfa -80 + ^
STACK CFI 25ff0 .cfa: sp 80 +
STACK CFI 26004 .cfa: sp 0 +
STACK CFI 26008 .cfa: x29 80 +
STACK CFI 26014 .cfa: sp 80 +
STACK CFI 26028 .cfa: sp 0 +
STACK CFI INIT 2745c 124 .cfa: sp 0 +
STACK CFI 2748c .cfa: sp 32 +
STACK CFI 27494 .cfa: x29 32 + x19: .cfa -8 + ^ x20: .cfa -16 + ^ .ra: .cfa -24 + ^ x29: .cfa -32 + ^
STACK CFI 27574 .cfa: sp 32 +
STACK CFI 2757c .cfa: sp 0 +
STACK CFI INIT 27cdc 320 .cfa: sp 0 +
STACK CFI 27ce0 .cfa: sp 64 +
STACK CFI 27cf0 .cfa: x29 64 + x19: .cfa -8 + ^ x20: .cfa -16 + ^ x21: .cfa -24 + ^ x22: .cfa -32 + ^ x23: .cfa -40 + ^ x24: .cfa -48 + ^ .ra: .cfa -56 + ^ x29: .cfa -64 + ^
STACK CFI 27d6c .cfa: sp 64 +
STACK CFI 27d7c .cfa: sp 0 +
STACK CFI 27d80 .cfa: x29 64 +
STACK CFI 27f54 .cfa: sp 64 +
STACK CFI 27f64 .cfa: sp 0 +
STACK CFI 27f68 .cfa: x29 64 +
STACK CFI 27f78 .cfa: sp 64 +
STACK CFI 27f88 .cfa: sp 0 +
STACK CFI 27f8c .cfa: x29 64 +
STACK CFI INIT 27ffc a0 .cfa: sp 0 +
STACK CFI 28000 .cfa: sp 48 +
STACK CFI 2800c .cfa: x29 48 + x19: .cfa -8 + ^ x20: .cfa -16 + ^ x21: .cfa -24 + ^ x22: .cfa -32 + ^ .ra: .cfa -40 + ^ x29: .cfa -48 + ^
STACK CFI 28078 .cfa: sp 48 +
STACK CFI 28084 .cfa: sp 0 +
STACK CFI 28088 .cfa: sp 48 +
STACK CFI 28094 .cfa: sp 0 +
STACK CFI 28098 .cfa: x29 48 +
STACK CFI INIT 28f7c 160 .cfa: sp 0 +
STACK CFI 28f80 .cfa: sp 64 +
STACK CFI 28f90 .cfa: x29 64 + x19: .cfa -8 + ^ x20: .cfa -16 + ^ x21: .cfa -24 + ^ x22: .cfa -32 + ^ x23: .cfa -48 + ^ .ra: .cfa -56 + ^ x29: .cfa -64 + ^
STACK CFI 29088 .cfa: sp 64 +
STACK CFI 29098 .cfa: sp 0 +
STACK CFI 2909c .cfa: x29 64 +
STACK CFI INIT 290dc 214 .cfa: sp 0 +
STACK CFI 290e0 .cfa: sp 128 +
STACK CFI 290fc .cfa: x29 96 + x19: .cfa -8 + ^ x20: .cfa -16 + ^ x21: .cfa -24 + ^ x22: .cfa -32 + ^ x23: .cfa -40 + ^ x24: .cfa -48 + ^ x25: .cfa -56 + ^ x26: .cfa -64 + ^ x27: .cfa -80 + ^ .ra: .cfa -88 + ^ x29: .cfa -96 + ^
STACK CFI 29278 .cfa: sp 128 +
STACK CFI 29294 .cfa: sp 0 +
STACK CFI 29298 .cfa: x29 96 +
STACK CFI INIT 2a7a4 e60 .cfa: sp 0 +
STACK CFI 2a7a8 .cfa: sp 192 +
STACK CFI 2a7c4 .cfa: x29 96 + x19: .cfa -8 + ^ x20: .cfa -16 + ^ x21: .cfa -24 + ^ x22: .cfa -32 + ^ x23: .cfa -40 + ^ x24: .cfa -48 + ^ x25: .cfa -56 + ^ x26: .cfa -64 + ^ x27: .cfa -72 + ^ x28: .cfa -80 + ^ .ra: .cfa -88 + ^ x29: .cfa -96 + ^
STACK CFI 2b4ec .cfa: sp 192 +
STACK CFI 2b508 .cfa: sp 0 +
STACK CFI 2b50c .cfa: x29 96 +
STACK CFI INIT 2b604 1090 .cfa: sp 0 +
STACK CFI 2b608 .cfa: sp 288 +
STACK CFI 2b624 .cfa: x29 96 + x19: .cfa -8 + ^ x20: .cfa -16 + ^ x21: .cfa -24 + ^ x22: .cfa -32 + ^ x23: .cfa -40 + ^ x24: .cfa -48 + ^ x25: .cfa -56 + ^ x26: .cfa -64 + ^ x27: .cfa -72 + ^ x28: .cfa -80 + ^ .ra: .cfa -88 + ^ x29: .cfa -96 + ^
STACK CFI 2c3dc .cfa: sp 288 +
STACK CFI 2c3f8 .cfa: sp 0 +
STACK CFI 2c3fc .cfa: x29 96 +
STACK CFI INIT 2c694 520 .cfa: sp 0 +
STACK CFI 2c698 .cfa: sp 144 +
STACK CFI 2c6b4 .cfa: x29 96 + x19: .cfa -8 + ^ x20: .cfa -16 + ^ x21: .cfa -24 + ^ x22: .cfa -32 + ^ x23: .cfa -40 + ^ x24: .cfa -48 + ^ x25: .cfa -56 + ^ x26: .cfa -64 + ^ x27: .cfa -72 + ^ x28: .cfa -80 + ^ .ra: .cfa -88 + ^ x29: .cfa -96 + ^
STACK CFI 2cb90 .cfa: sp 144 +
STACK CFI 2cbac .cfa: sp 0 +
STACK CFI 2cbb0 .cfa: x29 96 +
STACK CFI INIT d3a0 45c .cfa: sp 0 +
STACK CFI d3a4 .cfa: sp 224 +
STACK CFI d3c0 .cfa: x29 96 + x19: .cfa -8 + ^ x20: .cfa -16 + ^ x21: .cfa -24 + ^ x22: .cfa -32 + ^ x23: .cfa -40 + ^ x24: .cfa -48 + ^ x25: .cfa -56 + ^ x26: .cfa -64 + ^ x27: .cfa -72 + ^ x28: .cfa -80 + ^ .ra: .cfa -88 + ^ x29: .cfa -96 + ^
STACK CFI d6e4 .cfa: sp 224 +
STACK CFI d700 .cfa: sp 0 +
STACK CFI d704 .cfa: x29 96 +
STACK CFI INIT d7fc 45c .cfa: sp 0 +
STACK CFI d800 .cfa: sp 224 +
STACK CFI d81c .cfa: x29 96 + x19: .cfa -8 + ^ x20: .cfa -16 + ^ x21: .cfa -24 + ^ x22: .cfa -32 + ^ x23: .cfa -40 + ^ x24: .cfa -48 + ^ x25: .cfa -56 + ^ x26: .cfa -64 + ^ x27: .cfa -72 + ^ x28: .cfa -80 + ^ .ra: .cfa -88 + ^ x29: .cfa -96 + ^
STACK CFI db40 .cfa: sp 224 +
STACK CFI db5c .cfa: sp 0 +
STACK CFI db60 .cfa: x29 96 +
STACK CFI INIT dc58 45c .cfa: sp 0 +
STACK CFI dc5c .cfa: sp 224 +
STACK CFI dc78 .cfa: x29 96 + x19: .cfa -8 + ^ x20: .cfa -16 + ^ x21: .cfa -24 + ^ x22: .cfa -32 + ^ x23: .cfa -40 + ^ x24: .cfa -48 + ^ x25: .cfa -56 + ^ x26: .cfa -64 + ^ x27: .cfa -72 + ^ x28: .cfa -80 + ^ .ra: .cfa -88 + ^ x29: .cfa -96 + ^
STACK CFI df9c .cfa: sp 224 +
STACK CFI dfb8 .cfa: sp 0 +
STACK CFI dfbc .cfa: x29 96 +
STACK CFI INIT e0b4 45c .cfa: sp 0 +
STACK CFI e0b8 .cfa: sp 224 +
STACK CFI e0d4 .cfa: x29 96 + x19: .cfa -8 + ^ x20: .cfa -16 + ^ x21: .cfa -24 + ^ x22: .cfa -32 + ^ x23: .cfa -40 + ^ x24: .cfa -48 + ^ x25: .cfa -56 + ^ x26: .cfa -64 + ^ x27: .cfa -72 + ^ x28: .cfa -80 + ^ .ra: .cfa -88 + ^ x29: .cfa -96 + ^
STACK CFI e3f8 .cfa: sp 224 +
STACK CFI e414 .cfa: sp 0 +
STACK CFI e418 .cfa: x29 96 +
STACK CFI INIT e510 45c .cfa: sp 0 +
STACK CFI e514 .cfa: sp 224 +
STACK CFI e530 .cfa: x29 96 + x19: .cfa -8 + ^ x20: .cfa -16 + ^ x21: .cfa -24 + ^ x22: .cfa -32 + ^ x23: .cfa -40 + ^ x24: .cfa -48 + ^ x25: .cfa -56 + ^ x26: .cfa -64 + ^ x27: .cfa -72 + ^ x28: .cfa -80 + ^ .ra: .cfa -88 + ^ x29: .cfa -96 + ^
STACK CFI e854 .cfa: sp 224 +
STACK CFI e870 .cfa: sp 0 +
STACK CFI e874 .cfa: x29 96 +
STACK CFI INIT e96c 45c .cfa: sp 0 +
STACK CFI e970 .cfa: sp 224 +
STACK CFI e98c .cfa: x29 96 + x19: .cfa -8 + ^ x20: .cfa -16 + ^ x21: .cfa -24 + ^ x22: .cfa -32 + ^ x23: .cfa -40 + ^ x24: .cfa -48 + ^ x25: .cfa -56 + ^ x26: .cfa -64 + ^ x27: .cfa -72 + ^ x28: .cfa -80 + ^ .ra: .cfa -88 + ^ x29: .cfa -96 + ^
STACK CFI ecb0 .cfa: sp 224 +
STACK CFI eccc .cfa: sp 0 +
STACK CFI ecd0 .cfa: x29 96 +
STACK CFI INIT edc8 45c .cfa: sp 0 +
STACK CFI edcc .cfa: sp 224 +
STACK CFI ede8 .cfa: x29 96 + x19: .cfa -8 + ^ x20: .cfa -16 + ^ x21: .cfa -24 + ^ x22: .cfa -32 + ^ x23: .cfa -40 + ^ x24: .cfa -48 + ^ x25: .cfa -56 + ^ x26: .cfa -64 + ^ x27: .cfa -72 + ^ x28: .cfa -80 + ^ .ra: .cfa -88 + ^ x29: .cfa -96 + ^
STACK CFI f10c .cfa: sp 224 +
STACK CFI f128 .cfa: sp 0 +
STACK CFI f12c .cfa: x29 96 +
STACK CFI INIT f2cc 624 .cfa: sp 0 +
STACK CFI f2d0 .cfa: sp 288 +
STACK CFI f2ec .cfa: x29 96 + x19: .cfa -8 + ^ x20: .cfa -16 + ^ x21: .cfa -24 + ^ x22: .cfa -32 + ^ x23: .cfa -40 + ^ x24: .cfa -48 + ^ x25: .cfa -56 + ^ x26: .cfa -64 + ^ x28: .cfa -80 + ^ .ra: .cfa -88 + ^ x29: .cfa -96 + ^
STACK CFI f718 .cfa: sp 288 +
STACK CFI f734 .cfa: sp 0 +
STACK CFI f738 .cfa: x29 96 +
STACK CFI INIT f940 74 .cfa: sp 0 +
STACK CFI f944 .cfa: sp 48 +
STACK CFI f950 .cfa: x29 32 + x19: .cfa -8 + ^ x20: .cfa -16 + ^ .ra: .cfa -24 + ^ x29: .cfa -32 + ^
STACK CFI f99c .cfa: sp 48 +
STACK CFI f9a8 .cfa: sp 0 +
STACK CFI f9ac .cfa: x29 32 +
STACK CFI INIT fa44 6fc .cfa: sp 0 +
STACK CFI fa48 .cfa: sp 496 +
STACK CFI fa64 .cfa: x29 96 + x19: .cfa -8 + ^ x20: .cfa -16 + ^ x21: .cfa -24 + ^ x22: .cfa -32 + ^ x23: .cfa -40 + ^ x24: .cfa -48 + ^ x25: .cfa -56 + ^ x26: .cfa -64 + ^ x27: .cfa -72 + ^ x28: .cfa -80 + ^ .ra: .cfa -88 + ^ x29: .cfa -96 + ^
STACK CFI 10014 .cfa: sp 496 +
STACK CFI 10030 .cfa: sp 0 +
STACK CFI 10034 .cfa: x29 96 +
STACK CFI INIT 1022c 50 .cfa: sp 0 +
STACK CFI 10230 .cfa: sp 32 +
STACK CFI 10238 .cfa: x29 32 + x19: .cfa -8 + ^ x20: .cfa -16 + ^ .ra: .cfa -24 + ^ x29: .cfa -32 + ^
STACK CFI INIT 102e0 224 .cfa: sp 0 +
STACK CFI 102e4 .cfa: sp 128 +
STACK CFI 102fc .cfa: x29 80 + x19: .cfa -8 + ^ x20: .cfa -16 + ^ x21: .cfa -24 + ^ x22: .cfa -32 + ^ x23: .cfa -40 + ^ x24: .cfa -48 + ^ x25: .cfa -64 + ^ .ra: .cfa -72 + ^ x29: .cfa -80 + ^
STACK CFI 10498 .cfa: sp 128 +
STACK CFI 104b0 .cfa: sp 0 +
STACK CFI 104b4 .cfa: x29 80 +
STACK CFI INIT 11094 630 .cfa: sp 0 +
STACK CFI 11098 .cfa: sp 288 +
STACK CFI 110b4 .cfa: x29 96 + x19: .cfa -8 + ^ x20: .cfa -16 + ^ x21: .cfa -24 + ^ x22: .cfa -32 + ^ x23: .cfa -40 + ^ x24: .cfa -48 + ^ x25: .cfa -56 + ^ x26: .cfa -64 + ^ x28: .cfa -80 + ^ .ra: .cfa -88 + ^ x29: .cfa -96 + ^
STACK CFI 114ec .cfa: sp 288 +
STACK CFI 11508 .cfa: sp 0 +
STACK CFI 1150c .cfa: x29 96 +
STACK CFI INIT 1173c 5fc .cfa: sp 0 +
STACK CFI 11740 .cfa: sp 288 +
STACK CFI 1175c .cfa: x29 96 + x19: .cfa -8 + ^ x20: .cfa -16 + ^ x21: .cfa -24 + ^ x22: .cfa -32 + ^ x23: .cfa -40 + ^ x24: .cfa -48 + ^ x25: .cfa -56 + ^ x26: .cfa -64 + ^ x28: .cfa -80 + ^ .ra: .cfa -88 + ^ x29: .cfa -96 + ^
STACK CFI 11b68 .cfa: sp 288 +
STACK CFI 11b84 .cfa: sp 0 +
STACK CFI 11b88 .cfa: x29 96 +
STACK CFI INIT 11d3c e0 .cfa: sp 0 +
STACK CFI 11d40 .cfa: sp 96 +
STACK CFI 11d4c .cfa: x29 32 + x19: .cfa -8 + ^ x20: .cfa -16 + ^ .ra: .cfa -24 + ^ x29: .cfa -32 + ^
STACK CFI 11dbc .cfa: sp 96 +
STACK CFI 11dc8 .cfa: sp 0 +
STACK CFI 11dcc .cfa: x29 32 +
STACK CFI INIT 11e34 c8 .cfa: sp 0 +
STACK CFI 11e38 .cfa: sp 32 +
STACK CFI 11e40 .cfa: x29 32 + x19: .cfa -8 + ^ x20: .cfa -16 + ^ .ra: .cfa -24 + ^ x29: .cfa -32 + ^
STACK CFI 11e74 .cfa: sp 32 +
STACK CFI 11e7c .cfa: sp 0 +
STACK CFI 11e80 .cfa: x29 32 +
STACK CFI 11e84 .cfa: sp 32 +
STACK CFI 11e8c .cfa: sp 0 +
STACK CFI 11e90 .cfa: x29 32 +
STACK CFI INIT 11efc 110 .cfa: sp 0 +
STACK CFI 11f00 .cfa: sp 32 +
STACK CFI 11f08 .cfa: x29 32 + x19: .cfa -8 + ^ x20: .cfa -16 + ^ .ra: .cfa -24 + ^ x29: .cfa -32 + ^
STACK CFI 11fc4 .cfa: sp 32 +
STACK CFI 11fcc .cfa: sp 0 +
STACK CFI 11fd0 .cfa: x29 32 +
STACK CFI INIT 120b4 c8 .cfa: sp 0 +
STACK CFI 120b8 .cfa: sp 32 +
STACK CFI 120c0 .cfa: x29 32 + x19: .cfa -8 + ^ x20: .cfa -16 + ^ .ra: .cfa -24 + ^ x29: .cfa -32 + ^
STACK CFI 120f4 .cfa: sp 32 +
STACK CFI 120fc .cfa: sp 0 +
STACK CFI 12100 .cfa: x29 32 +
STACK CFI 12104 .cfa: sp 32 +
STACK CFI 1210c .cfa: sp 0 +
STACK CFI 12110 .cfa: x29 32 +
STACK CFI INIT 1217c 46c .cfa: sp 0 +
STACK CFI 12180 .cfa: sp 176 +
STACK CFI 12194 .cfa: x29 64 + x19: .cfa -8 + ^ x20: .cfa -16 + ^ x21: .cfa -24 + ^ x22: .cfa -32 + ^ x23: .cfa -40 + ^ x24: .cfa -48 + ^ .ra: .cfa -56 + ^ x29: .cfa -64 + ^
STACK CFI 12494 .cfa: sp 176 +
STACK CFI 124a8 .cfa: sp 0 +
STACK CFI 124ac .cfa: x29 64 +
STACK CFI INIT 125ec 184 .cfa: sp 0 +
STACK CFI 125f0 .cfa: sp 160 +
STACK CFI 12608 .cfa: x29 80 + x19: .cfa -8 + ^ x20: .cfa -16 + ^ x21: .cfa -24 + ^ x22: .cfa -32 + ^ x23: .cfa -40 + ^ x24: .cfa -48 + ^ x25: .cfa -56 + ^ x26: .cfa -64 + ^ .ra: .cfa -72 + ^ x29: .cfa -80 + ^
STACK CFI 12708 .cfa: sp 160 +
STACK CFI 12720 .cfa: sp 0 +
STACK CFI 12724 .cfa: x29 80 +
STACK CFI INIT 128fc ec .cfa: sp 0 +
STACK CFI 12900 .cfa: sp 48 +
STACK CFI 1290c .cfa: x29 48 + x19: .cfa -8 + ^ x20: .cfa -16 + ^ x21: .cfa -24 + ^ x22: .cfa -32 + ^ .ra: .cfa -40 + ^ x29: .cfa -48 + ^
STACK CFI 12958 .cfa: sp 48 +
STACK CFI 12964 .cfa: sp 0 +
STACK CFI 12968 .cfa: x29 48 +
STACK CFI 1296c .cfa: sp 48 +
STACK CFI 12978 .cfa: sp 0 +
STACK CFI 1297c .cfa: x29 48 +
STACK CFI INIT 129e8 260 .cfa: sp 0 +
STACK CFI 129ec .cfa: sp 80 +
STACK CFI 129fc .cfa: x29 48 + x19: .cfa -8 + ^ x20: .cfa -16 + ^ x21: .cfa -24 + ^ x22: .cfa -32 + ^ .ra: .cfa -40 + ^ x29: .cfa -48 + ^
STACK CFI 12b38 .cfa: sp 80 +
STACK CFI 12b48 .cfa: sp 0 +
STACK CFI 12b4c .cfa: x29 48 +
STACK CFI INIT 12e10 634 .cfa: sp 0 +
STACK CFI 12e14 .cfa: sp 288 +
STACK CFI 12e30 .cfa: x29 96 + x19: .cfa -8 + ^ x20: .cfa -16 + ^ x21: .cfa -24 + ^ x22: .cfa -32 + ^ x23: .cfa -40 + ^ x24: .cfa -48 + ^ x25: .cfa -56 + ^ x26: .cfa -64 + ^ x28: .cfa -80 + ^ .ra: .cfa -88 + ^ x29: .cfa -96 + ^
STACK CFI 1326c .cfa: sp 288 +
STACK CFI 13288 .cfa: sp 0 +
STACK CFI 1328c .cfa: x29 96 +
STACK CFI INIT 134a8 330 .cfa: sp 0 +
STACK CFI 134ac .cfa: sp 240 +
STACK CFI 134c0 .cfa: x29 64 + x19: .cfa -8 + ^ x20: .cfa -16 + ^ x21: .cfa -24 + ^ x22: .cfa -32 + ^ x23: .cfa -48 + ^ .ra: .cfa -56 + ^ x29: .cfa -64 + ^
STACK CFI 136bc .cfa: sp 240 +
STACK CFI 136d0 .cfa: sp 0 +
STACK CFI 136d4 .cfa: x29 64 +
STACK CFI INIT 137dc 404 .cfa: sp 0 +
STACK CFI 137e0 .cfa: sp 96 +
STACK CFI 137f8 .cfa: x29 80 + x19: .cfa -8 + ^ x20: .cfa -16 + ^ x21: .cfa -24 + ^ x22: .cfa -32 + ^ x23: .cfa -40 + ^ x24: .cfa -48 + ^ x25: .cfa -56 + ^ x28: .cfa -64 + ^ .ra: .cfa -72 + ^ x29: .cfa -80 + ^ v8: .cfa -96 + ^
STACK CFI 13b20 .cfa: sp 96 +
STACK CFI 13b38 .cfa: sp 0 +
STACK CFI 13b3c .cfa: x29 80 +
STACK CFI INIT 13be0 134 .cfa: sp 0 +
STACK CFI 13be4 .cfa: sp 80 +
STACK CFI 13bf4 .cfa: x29 48 + x19: .cfa -8 + ^ x20: .cfa -16 + ^ x21: .cfa -24 + ^ x22: .cfa -32 + ^ .ra: .cfa -40 + ^ x29: .cfa -48 + ^
STACK CFI 13cf8 .cfa: sp 80 +
STACK CFI 13d08 .cfa: sp 0 +
STACK CFI 13d0c .cfa: x29 48 +
STACK CFI INIT 13e18 374 .cfa: sp 0 +
STACK CFI 13e1c .cfa: sp 256 +
STACK CFI 13e30 .cfa: x29 64 + x19: .cfa -8 + ^ x20: .cfa -16 + ^ x21: .cfa -24 + ^ x22: .cfa -32 + ^ x23: .cfa -48 + ^ .ra: .cfa -56 + ^ x29: .cfa -64 + ^
STACK CFI 14060 .cfa: sp 256 +
STACK CFI 14074 .cfa: sp 0 +
STACK CFI 14078 .cfa: x29 64 +
STACK CFI INIT 14190 32c .cfa: sp 0 +
STACK CFI 14194 .cfa: sp 80 +
STACK CFI 141a8 .cfa: x29 80 + x19: .cfa -8 + ^ x20: .cfa -16 + ^ x21: .cfa -24 + ^ x22: .cfa -32 + ^ x23: .cfa -40 + ^ x24: .cfa -48 + ^ x25: .cfa -56 + ^ x28: .cfa -64 + ^ .ra: .cfa -72 + ^ x29: .cfa -80 + ^
STACK CFI 14404 .cfa: sp 80 +
STACK CFI 14418 .cfa: sp 0 +
STACK CFI 1441c .cfa: x29 80 +
STACK CFI INIT 144c0 70 .cfa: sp 0 +
STACK CFI 144c4 .cfa: sp 48 +
STACK CFI 144d0 .cfa: x29 48 + x19: .cfa -8 + ^ x20: .cfa -16 + ^ x21: .cfa -32 + ^ .ra: .cfa -40 + ^ x29: .cfa -48 + ^
STACK CFI 144e8 .cfa: sp 48 +
STACK CFI 144f4 .cfa: sp 0 +
STACK CFI 144f8 .cfa: x29 48 +
STACK CFI 1451c .cfa: sp 48 +
STACK CFI 14528 .cfa: sp 0 +
STACK CFI 1452c .cfa: x29 48 +
STACK CFI INIT 14664 d8 .cfa: sp 0 +
STACK CFI 14668 .cfa: sp 64 +
STACK CFI 14678 .cfa: x29 48 + x19: .cfa -8 + ^ x20: .cfa -16 + ^ x21: .cfa -24 + ^ x22: .cfa -32 + ^ .ra: .cfa -40 + ^ x29: .cfa -48 + ^
STACK CFI 14700 .cfa: sp 64 +
STACK CFI 14710 .cfa: sp 0 +
STACK CFI 14714 .cfa: x29 48 +
STACK CFI INIT 14a74 164 .cfa: sp 0 +
STACK CFI 14a78 .cfa: sp 48 +
STACK CFI 14a84 .cfa: x29 32 + x19: .cfa -8 + ^ x20: .cfa -16 + ^ .ra: .cfa -24 + ^ x29: .cfa -32 + ^
STACK CFI 14bc4 .cfa: sp 48 +
STACK CFI 14bd0 .cfa: sp 0 +
STACK CFI 14bd4 .cfa: x29 32 +
STACK CFI INIT 14bd8 1c .cfa: sp 0 +
STACK CFI 14bdc .cfa: sp 16 +
STACK CFI 14be0 .cfa: x29 16 + .ra: .cfa -8 + ^ x29: .cfa -16 + ^
STACK CFI 14be8 .cfa: sp 16 +
STACK CFI 14bec .cfa: sp 0 +
STACK CFI 14bf0 .cfa: x29 16 +
STACK CFI INIT 14cc4 1a4 .cfa: sp 0 +
STACK CFI 14cc8 .cfa: sp 112 +
STACK CFI 14cd8 .cfa: x29 48 + x19: .cfa -8 + ^ x20: .cfa -16 + ^ x21: .cfa -32 + ^ .ra: .cfa -40 + ^ x29: .cfa -48 + ^
STACK CFI 14e04 .cfa: sp 112 +
STACK CFI 14e14 .cfa: sp 0 +
STACK CFI 14e18 .cfa: x29 48 +
STACK CFI INIT 14e68 f0 .cfa: sp 0 +
STACK CFI 14e6c .cfa: sp 96 +
STACK CFI 14e78 .cfa: x29 32 + x19: .cfa -8 + ^ x20: .cfa -16 + ^ .ra: .cfa -24 + ^ x29: .cfa -32 + ^
STACK CFI 14ef8 .cfa: sp 96 +
STACK CFI 14f04 .cfa: sp 0 +
STACK CFI 14f08 .cfa: x29 32 +
STACK CFI INIT 152f8 354 .cfa: sp 0 +
STACK CFI 152fc .cfa: sp 208 +
STACK CFI 15318 .cfa: x29 96 + x19: .cfa -8 + ^ x20: .cfa -16 + ^ x21: .cfa -24 + ^ x22: .cfa -32 + ^ x23: .cfa -40 + ^ x24: .cfa -48 + ^ x25: .cfa -56 + ^ x26: .cfa -64 + ^ x27: .cfa -72 + ^ x28: .cfa -80 + ^ .ra: .cfa -88 + ^ x29: .cfa -96 + ^
STACK CFI 155e8 .cfa: sp 208 +
STACK CFI 15604 .cfa: sp 0 +
STACK CFI 15608 .cfa: x29 96 +
STACK CFI INIT 1564c 1c .cfa: sp 0 +
STACK CFI 15650 .cfa: sp 16 +
STACK CFI 15654 .cfa: x29 16 + .ra: .cfa -8 + ^ x29: .cfa -16 + ^
STACK CFI 1565c .cfa: sp 16 +
STACK CFI 15660 .cfa: sp 0 +
STACK CFI 15664 .cfa: x29 16 +
STACK CFI INIT 156b4 f4 .cfa: sp 0 +
STACK CFI 156b8 .cfa: sp 112 +
STACK CFI 156c8 .cfa: x29 48 + x19: .cfa -8 + ^ x20: .cfa -16 + ^ x21: .cfa -24 + ^ x22: .cfa -32 + ^ .ra: .cfa -40 + ^ x29: .cfa -48 + ^
STACK CFI 15768 .cfa: sp 112 +
STACK CFI 15778 .cfa: sp 0 +
STACK CFI 1577c .cfa: x29 48 +
STACK CFI INIT 15860 190 .cfa: sp 0 +
STACK CFI 15864 .cfa: sp 80 +
STACK CFI 15878 .cfa: x29 80 + x19: .cfa -8 + ^ x20: .cfa -16 + ^ x21: .cfa -24 + ^ x22: .cfa -32 + ^ x23: .cfa -40 + ^ x24: .cfa -48 + ^ x25: .cfa -64 + ^ .ra: .cfa -72 + ^ x29: .cfa -80 + ^
STACK CFI 159bc .cfa: sp 80 +
STACK CFI 159d0 .cfa: sp 0 +
STACK CFI 159d4 .cfa: sp 80 +
STACK CFI 159e8 .cfa: sp 0 +
STACK CFI 159ec .cfa: x29 80 +
STACK CFI INIT 159f0 6d8 .cfa: sp 0 +
STACK CFI 159f4 .cfa: sp 80 +
STACK CFI 15a08 .cfa: x29 80 + x19: .cfa -8 + ^ x20: .cfa -16 + ^ x21: .cfa -24 + ^ x22: .cfa -32 + ^ x23: .cfa -40 + ^ x24: .cfa -48 + ^ x25: .cfa -56 + ^ x26: .cfa -64 + ^ .ra: .cfa -72 + ^ x29: .cfa -80 + ^
STACK CFI 15d6c .cfa: sp 80 +
STACK CFI 15d80 .cfa: sp 0 +
STACK CFI 15d84 .cfa: x29 80 +
STACK CFI 15f68 .cfa: sp 80 +
STACK CFI 15f7c .cfa: sp 0 +
STACK CFI 15f80 .cfa: x29 80 +
STACK CFI INIT 160c8 250 .cfa: sp 0 +
STACK CFI 160cc .cfa: sp 224 +
STACK CFI 160e4 .cfa: x29 80 + x19: .cfa -8 + ^ x20: .cfa -16 + ^ x21: .cfa -24 + ^ x22: .cfa -32 + ^ x23: .cfa -40 + ^ x24: .cfa -48 + ^ x25: .cfa -64 + ^ .ra: .cfa -72 + ^ x29: .cfa -80 + ^
STACK CFI 1625c .cfa: sp 224 +
STACK CFI 16274 .cfa: sp 0 +
STACK CFI 16278 .cfa: x29 80 +
STACK CFI INIT 16318 f4 .cfa: sp 0 +
STACK CFI 1631c .cfa: sp 48 +
STACK CFI 16328 .cfa: x29 48 + x19: .cfa -8 + ^ x20: .cfa -16 + ^ x21: .cfa -32 + ^ .ra: .cfa -40 + ^ x29: .cfa -48 + ^
STACK CFI 16394 .cfa: sp 48 +
STACK CFI 163a0 .cfa: sp 0 +
STACK CFI 163a4 .cfa: x29 48 +
STACK CFI INIT 164e4 178 .cfa: sp 0 +
STACK CFI 164e8 .cfa: sp 96 +
STACK CFI 164f8 .cfa: x29 48 + x19: .cfa -8 + ^ x20: .cfa -16 + ^ x21: .cfa -24 + ^ x22: .cfa -32 + ^ .ra: .cfa -40 + ^ x29: .cfa -48 + ^
STACK CFI 165a8 .cfa: sp 96 +
STACK CFI 165b8 .cfa: sp 0 +
STACK CFI 165bc .cfa: x29 48 +
STACK CFI 16614 .cfa: sp 96 +
STACK CFI 16624 .cfa: sp 0 +
STACK CFI 16628 .cfa: x29 48 +
STACK CFI INIT 16700 174 .cfa: sp 0 +
STACK CFI 16704 .cfa: sp 112 +
STACK CFI 16714 .cfa: x29 48 + x19: .cfa -8 + ^ x20: .cfa -16 + ^ x21: .cfa -32 + ^ .ra: .cfa -40 + ^ x29: .cfa -48 + ^
STACK CFI 16810 .cfa: sp 112 +
STACK CFI 16820 .cfa: sp 0 +
STACK CFI 16824 .cfa: x29 48 +
STACK CFI INIT 169c4 174 .cfa: sp 0 +
STACK CFI 169c8 .cfa: sp 112 +
STACK CFI 169d8 .cfa: x29 48 + x19: .cfa -8 + ^ x20: .cfa -16 + ^ x21: .cfa -32 + ^ .ra: .cfa -40 + ^ x29: .cfa -48 + ^
STACK CFI 16ad4 .cfa: sp 112 +
STACK CFI 16ae4 .cfa: sp 0 +
STACK CFI 16ae8 .cfa: x29 48 +
STACK CFI INIT 16c88 1dc .cfa: sp 0 +
STACK CFI 16c8c .cfa: sp 208 +
STACK CFI 16ca4 .cfa: x29 80 + x19: .cfa -8 + ^ x20: .cfa -16 + ^ x21: .cfa -24 + ^ x22: .cfa -32 + ^ x23: .cfa -40 + ^ x24: .cfa -48 + ^ x25: .cfa -64 + ^ .ra: .cfa -72 + ^ x29: .cfa -80 + ^
STACK CFI 16df0 .cfa: sp 208 +
STACK CFI 16e08 .cfa: sp 0 +
STACK CFI 16e0c .cfa: x29 80 +
STACK CFI INIT 16e64 74 .cfa: sp 0 +
STACK CFI 16e68 .cfa: sp 48 +
STACK CFI 16e74 .cfa: x29 32 + x19: .cfa -8 + ^ x20: .cfa -16 + ^ .ra: .cfa -24 + ^ x29: .cfa -32 + ^
STACK CFI 16ec0 .cfa: sp 48 +
STACK CFI 16ecc .cfa: sp 0 +
STACK CFI 16ed0 .cfa: x29 32 +
STACK CFI INIT 16ed8 104 .cfa: sp 0 +
STACK CFI 16edc .cfa: sp 112 +
STACK CFI 16ee8 .cfa: x29 32 + x19: .cfa -8 + ^ x20: .cfa -16 + ^ .ra: .cfa -24 + ^ x29: .cfa -32 + ^
STACK CFI 16fac .cfa: sp 112 +
STACK CFI 16fb8 .cfa: sp 0 +
STACK CFI 16fbc .cfa: x29 32 +
STACK CFI INIT 17024 184 .cfa: sp 0 +
STACK CFI 17028 .cfa: sp 160 +
STACK CFI 17038 .cfa: x29 48 + x19: .cfa -8 + ^ x20: .cfa -16 + ^ x21: .cfa -32 + ^ .ra: .cfa -40 + ^ x29: .cfa -48 + ^
STACK CFI 1714c .cfa: sp 160 +
STACK CFI 1715c .cfa: sp 0 +
STACK CFI 17160 .cfa: x29 48 +
STACK CFI INIT 171a8 530 .cfa: sp 0 +
STACK CFI 171ac .cfa: sp 128 +
STACK CFI 171c8 .cfa: x29 96 + x19: .cfa -8 + ^ x20: .cfa -16 + ^ x21: .cfa -24 + ^ x22: .cfa -32 + ^ x23: .cfa -40 + ^ x24: .cfa -48 + ^ x25: .cfa -56 + ^ x26: .cfa -64 + ^ x27: .cfa -80 + ^ .ra: .cfa -88 + ^ x29: .cfa -96 + ^
STACK CFI 1767c .cfa: sp 128 +
STACK CFI 17698 .cfa: sp 0 +
STACK CFI 1769c .cfa: x29 96 +
STACK CFI INIT 176d8 4c .cfa: sp 0 +
STACK CFI 176dc .cfa: sp 32 +
STACK CFI 176e4 .cfa: x29 32 + x19: .cfa -16 + ^ .ra: .cfa -24 + ^ x29: .cfa -32 + ^
STACK CFI 17708 .cfa: sp 32 +
STACK CFI 17710 .cfa: sp 0 +
STACK CFI 17714 .cfa: sp 32 +
STACK CFI 1771c .cfa: sp 0 +
STACK CFI 17720 .cfa: x29 32 +
STACK CFI INIT 177f4 160 .cfa: sp 0 +
STACK CFI 177f8 .cfa: sp 240 +
STACK CFI 1780c .cfa: x29 64 + x19: .cfa -8 + ^ x20: .cfa -16 + ^ x21: .cfa -24 + ^ x22: .cfa -32 + ^ x23: .cfa -40 + ^ x24: .cfa -48 + ^ .ra: .cfa -56 + ^ x29: .cfa -64 + ^
STACK CFI 1790c .cfa: sp 240 +
STACK CFI 17920 .cfa: sp 0 +
STACK CFI 17924 .cfa: x29 64 +
STACK CFI INIT 1a5dc 120 .cfa: sp 0 +
STACK CFI 1a5e0 .cfa: sp 64 +
STACK CFI 1a5f0 .cfa: x29 64 + x19: .cfa -8 + ^ x20: .cfa -16 + ^ x21: .cfa -24 + ^ x22: .cfa -32 + ^ x23: .cfa -48 + ^ .ra: .cfa -56 + ^ x29: .cfa -64 + ^
STACK CFI 1a6cc .cfa: sp 64 +
STACK CFI 1a6dc .cfa: sp 0 +
STACK CFI 1a6e0 .cfa: x29 64 +
STACK CFI INIT 1a724 210 .cfa: sp 0 +
STACK CFI 1a728 .cfa: sp 32 +
STACK CFI 1a730 .cfa: x29 32 + x19: .cfa -16 + ^ .ra: .cfa -24 + ^ x29: .cfa -32 + ^
STACK CFI 1a808 .cfa: sp 32 +
STACK CFI 1a810 .cfa: sp 0 +
STACK CFI 1a814 .cfa: x29 32 +
STACK CFI 1a924 .cfa: sp 32 +
STACK CFI 1a92c .cfa: sp 0 +
STACK CFI 1a930 .cfa: x29 32 +
STACK CFI INIT 1a934 324 .cfa: sp 0 +
STACK CFI 1a938 .cfa: sp 64 +
STACK CFI 1a948 .cfa: x29 64 + x19: .cfa -8 + ^ x20: .cfa -16 + ^ x21: .cfa -24 + ^ x22: .cfa -32 + ^ x23: .cfa -40 + ^ x24: .cfa -48 + ^ .ra: .cfa -56 + ^ x29: .cfa -64 + ^
STACK CFI 1aa30 .cfa: sp 64 +
STACK CFI 1aa40 .cfa: sp 0 +
STACK CFI 1aa44 .cfa: x29 64 +
STACK CFI 1ac30 .cfa: sp 64 +
STACK CFI 1ac40 .cfa: sp 0 +
STACK CFI 1ac44 .cfa: x29 64 +
STACK CFI INIT 1ae04 240 .cfa: sp 0 +
STACK CFI 1ae08 .cfa: sp 64 +
STACK CFI 1ae18 .cfa: x29 64 + x19: .cfa -8 + ^ x20: .cfa -16 + ^ x21: .cfa -24 + ^ x22: .cfa -32 + ^ x23: .cfa -40 + ^ x24: .cfa -48 + ^ .ra: .cfa -56 + ^ x29: .cfa -64 + ^
STACK CFI 1afec .cfa: sp 64 +
STACK CFI 1affc .cfa: sp 0 +
STACK CFI 1b000 .cfa: x29 64 +
STACK CFI INIT 1b044 128 .cfa: sp 0 +
STACK CFI 1b048 .cfa: sp 64 +
STACK CFI 1b058 .cfa: x29 64 + x19: .cfa -8 + ^ x20: .cfa -16 + ^ x21: .cfa -24 + ^ x22: .cfa -32 + ^ x23: .cfa -48 + ^ .ra: .cfa -56 + ^ x29: .cfa -64 + ^
STACK CFI 1b134 .cfa: sp 64 +
STACK CFI 1b144 .cfa: sp 0 +
STACK CFI 1b148 .cfa: x29 64 +
STACK CFI 1b154 .cfa: sp 64 +
STACK CFI 1b164 .cfa: sp 0 +
STACK CFI 1b168 .cfa: x29 64 +
STACK CFI INIT 1b16c 28c .cfa: sp 0 +
STACK CFI 1b170 .cfa: sp 96 +
STACK CFI 1b184 .cfa: x29 64 + x19: .cfa -8 + ^ x20: .cfa -16 + ^ x21: .cfa -24 + ^ x22: .cfa -32 + ^ x23: .cfa -40 + ^ x24: .cfa -48 + ^ .ra: .cfa -56 + ^ x29: .cfa -64 + ^
STACK CFI 1b340 .cfa: sp 96 +
STACK CFI 1b354 .cfa: sp 0 +
STACK CFI 1b358 .cfa: x29 64 +
STACK CFI INIT 1b3fc 70 .cfa: sp 0 +
STACK CFI 1b400 .cfa: sp 48 +
STACK CFI 1b40c .cfa: x29 48 + x19: .cfa -8 + ^ x20: .cfa -16 + ^ x21: .cfa -32 + ^ .ra: .cfa -40 + ^ x29: .cfa -48 + ^
STACK CFI 1b424 .cfa: sp 48 +
STACK CFI 1b430 .cfa: sp 0 +
STACK CFI 1b434 .cfa: x29 48 +
STACK CFI 1b458 .cfa: sp 48 +
STACK CFI 1b464 .cfa: sp 0 +
STACK CFI 1b468 .cfa: x29 48 +
STACK CFI INIT 1b5a0 d8 .cfa: sp 0 +
STACK CFI 1b5a4 .cfa: sp 64 +
STACK CFI 1b5b4 .cfa: x29 48 + x19: .cfa -8 + ^ x20: .cfa -16 + ^ x21: .cfa -24 + ^ x22: .cfa -32 + ^ .ra: .cfa -40 + ^ x29: .cfa -48 + ^
STACK CFI 1b63c .cfa: sp 64 +
STACK CFI 1b64c .cfa: sp 0 +
STACK CFI 1b650 .cfa: x29 48 +
STACK CFI INIT 1b990 164 .cfa: sp 0 +
STACK CFI 1b994 .cfa: sp 48 +
STACK CFI 1b9a0 .cfa: x29 32 + x19: .cfa -8 + ^ x20: .cfa -16 + ^ .ra: .cfa -24 + ^ x29: .cfa -32 + ^
STACK CFI 1bae0 .cfa: sp 48 +
STACK CFI 1baec .cfa: sp 0 +
STACK CFI 1baf0 .cfa: x29 32 +
STACK CFI INIT 1baf4 1c .cfa: sp 0 +
STACK CFI 1baf8 .cfa: sp 16 +
STACK CFI 1bafc .cfa: x29 16 + .ra: .cfa -8 + ^ x29: .cfa -16 + ^
STACK CFI 1bb04 .cfa: sp 16 +
STACK CFI 1bb08 .cfa: sp 0 +
STACK CFI 1bb0c .cfa: x29 16 +
STACK CFI INIT 1bbe0 1a4 .cfa: sp 0 +
STACK CFI 1bbe4 .cfa: sp 112 +
STACK CFI 1bbf4 .cfa: x29 48 + x19: .cfa -8 + ^ x20: .cfa -16 + ^ x21: .cfa -32 + ^ .ra: .cfa -40 + ^ x29: .cfa -48 + ^
STACK CFI 1bd20 .cfa: sp 112 +
STACK CFI 1bd30 .cfa: sp 0 +
STACK CFI 1bd34 .cfa: x29 48 +
STACK CFI INIT 1bd84 f0 .cfa: sp 0 +
STACK CFI 1bd88 .cfa: sp 96 +
STACK CFI 1bd94 .cfa: x29 32 + x19: .cfa -8 + ^ x20: .cfa -16 + ^ .ra: .cfa -24 + ^ x29: .cfa -32 + ^
STACK CFI 1be14 .cfa: sp 96 +
STACK CFI 1be20 .cfa: sp 0 +
STACK CFI 1be24 .cfa: x29 32 +
STACK CFI INIT 1c214 348 .cfa: sp 0 +
STACK CFI 1c218 .cfa: sp 208 +
STACK CFI 1c234 .cfa: x29 96 + x19: .cfa -8 + ^ x20: .cfa -16 + ^ x21: .cfa -24 + ^ x22: .cfa -32 + ^ x23: .cfa -40 + ^ x24: .cfa -48 + ^ x25: .cfa -56 + ^ x26: .cfa -64 + ^ x27: .cfa -72 + ^ x28: .cfa -80 + ^ .ra: .cfa -88 + ^ x29: .cfa -96 + ^
STACK CFI 1c4f8 .cfa: sp 208 +
STACK CFI 1c514 .cfa: sp 0 +
STACK CFI 1c518 .cfa: x29 96 +
STACK CFI INIT 1c55c 1c .cfa: sp 0 +
STACK CFI 1c560 .cfa: sp 16 +
STACK CFI 1c564 .cfa: x29 16 + .ra: .cfa -8 + ^ x29: .cfa -16 + ^
STACK CFI 1c56c .cfa: sp 16 +
STACK CFI 1c570 .cfa: sp 0 +
STACK CFI 1c574 .cfa: x29 16 +
STACK CFI INIT 1c578 f4 .cfa: sp 0 +
STACK CFI 1c57c .cfa: sp 112 +
STACK CFI 1c58c .cfa: x29 48 + x19: .cfa -8 + ^ x20: .cfa -16 + ^ x21: .cfa -24 + ^ x22: .cfa -32 + ^ .ra: .cfa -40 + ^ x29: .cfa -48 + ^
STACK CFI 1c62c .cfa: sp 112 +
STACK CFI 1c63c .cfa: sp 0 +
STACK CFI 1c640 .cfa: x29 48 +
STACK CFI INIT 1c724 190 .cfa: sp 0 +
STACK CFI 1c728 .cfa: sp 80 +
STACK CFI 1c73c .cfa: x29 80 + x19: .cfa -8 + ^ x20: .cfa -16 + ^ x21: .cfa -24 + ^ x22: .cfa -32 + ^ x23: .cfa -40 + ^ x24: .cfa -48 + ^ x25: .cfa -64 + ^ .ra: .cfa -72 + ^ x29: .cfa -80 + ^
STACK CFI 1c880 .cfa: sp 80 +
STACK CFI 1c894 .cfa: sp 0 +
STACK CFI 1c898 .cfa: sp 80 +
STACK CFI 1c8ac .cfa: sp 0 +
STACK CFI 1c8b0 .cfa: x29 80 +
STACK CFI INIT 1c8b4 6d8 .cfa: sp 0 +
STACK CFI 1c8b8 .cfa: sp 80 +
STACK CFI 1c8cc .cfa: x29 80 + x19: .cfa -8 + ^ x20: .cfa -16 + ^ x21: .cfa -24 + ^ x22: .cfa -32 + ^ x23: .cfa -40 + ^ x24: .cfa -48 + ^ x25: .cfa -56 + ^ x26: .cfa -64 + ^ .ra: .cfa -72 + ^ x29: .cfa -80 + ^
STACK CFI 1cc30 .cfa: sp 80 +
STACK CFI 1cc44 .cfa: sp 0 +
STACK CFI 1cc48 .cfa: x29 80 +
STACK CFI 1ce2c .cfa: sp 80 +
STACK CFI 1ce40 .cfa: sp 0 +
STACK CFI 1ce44 .cfa: x29 80 +
STACK CFI INIT 1cf98 530 .cfa: sp 0 +
STACK CFI 1cf9c .cfa: sp 128 +
STACK CFI 1cfb8 .cfa: x29 96 + x19: .cfa -8 + ^ x20: .cfa -16 + ^ x21: .cfa -24 + ^ x22: .cfa -32 + ^ x23: .cfa -40 + ^ x24: .cfa -48 + ^ x25: .cfa -56 + ^ x26: .cfa -64 + ^ x27: .cfa -80 + ^ .ra: .cfa -88 + ^ x29: .cfa -96 + ^
STACK CFI 1d46c .cfa: sp 128 +
STACK CFI 1d488 .cfa: sp 0 +
STACK CFI 1d48c .cfa: x29 96 +
STACK CFI INIT 1d4c8 4c .cfa: sp 0 +
STACK CFI 1d4cc .cfa: sp 32 +
STACK CFI 1d4d4 .cfa: x29 32 + x19: .cfa -16 + ^ .ra: .cfa -24 + ^ x29: .cfa -32 + ^
STACK CFI 1d4f8 .cfa: sp 32 +
STACK CFI 1d500 .cfa: sp 0 +
STACK CFI 1d504 .cfa: sp 32 +
STACK CFI 1d50c .cfa: sp 0 +
STACK CFI 1d510 .cfa: x29 32 +
STACK CFI INIT 1d554 120 .cfa: sp 0 +
STACK CFI 1d558 .cfa: sp 64 +
STACK CFI 1d568 .cfa: x29 64 + x19: .cfa -8 + ^ x20: .cfa -16 + ^ x21: .cfa -24 + ^ x22: .cfa -32 + ^ x23: .cfa -48 + ^ .ra: .cfa -56 + ^ x29: .cfa -64 + ^
STACK CFI 1d644 .cfa: sp 64 +
STACK CFI 1d654 .cfa: sp 0 +
STACK CFI 1d658 .cfa: x29 64 +
STACK CFI INIT 1d69c 210 .cfa: sp 0 +
STACK CFI 1d6a0 .cfa: sp 32 +
STACK CFI 1d6a8 .cfa: x29 32 + x19: .cfa -16 + ^ .ra: .cfa -24 + ^ x29: .cfa -32 + ^
STACK CFI 1d780 .cfa: sp 32 +
STACK CFI 1d788 .cfa: sp 0 +
STACK CFI 1d78c .cfa: x29 32 +
STACK CFI 1d89c .cfa: sp 32 +
STACK CFI 1d8a4 .cfa: sp 0 +
STACK CFI 1d8a8 .cfa: x29 32 +
STACK CFI INIT 1d8ac 240 .cfa: sp 0 +
STACK CFI 1d8b0 .cfa: sp 64 +
STACK CFI 1d8c0 .cfa: x29 64 + x19: .cfa -8 + ^ x20: .cfa -16 + ^ x21: .cfa -24 + ^ x22: .cfa -32 + ^ x23: .cfa -40 + ^ x24: .cfa -48 + ^ .ra: .cfa -56 + ^ x29: .cfa -64 + ^
STACK CFI 1da94 .cfa: sp 64 +
STACK CFI 1daa4 .cfa: sp 0 +
STACK CFI 1daa8 .cfa: x29 64 +
STACK CFI INIT 1daec 128 .cfa: sp 0 +
STACK CFI 1daf0 .cfa: sp 64 +
STACK CFI 1db00 .cfa: x29 64 + x19: .cfa -8 + ^ x20: .cfa -16 + ^ x21: .cfa -24 + ^ x22: .cfa -32 + ^ x23: .cfa -48 + ^ .ra: .cfa -56 + ^ x29: .cfa -64 + ^
STACK CFI 1dbdc .cfa: sp 64 +
STACK CFI 1dbec .cfa: sp 0 +
STACK CFI 1dbf0 .cfa: x29 64 +
STACK CFI 1dbfc .cfa: sp 64 +
STACK CFI 1dc0c .cfa: sp 0 +
STACK CFI 1dc10 .cfa: x29 64 +
STACK CFI INIT 1dc14 28c .cfa: sp 0 +
STACK CFI 1dc18 .cfa: sp 96 +
STACK CFI 1dc2c .cfa: x29 64 + x19: .cfa -8 + ^ x20: .cfa -16 + ^ x21: .cfa -24 + ^ x22: .cfa -32 + ^ x23: .cfa -40 + ^ x24: .cfa -48 + ^ .ra: .cfa -56 + ^ x29: .cfa -64 + ^
STACK CFI 1dde8 .cfa: sp 96 +
STACK CFI 1ddfc .cfa: sp 0 +
STACK CFI 1de00 .cfa: x29 64 +
STACK CFI INIT 1e248 294 .cfa: sp 0 +
STACK CFI 1e24c .cfa: sp 240 +
STACK CFI 1e264 .cfa: x29 80 + x19: .cfa -8 + ^ x20: .cfa -16 + ^ x21: .cfa -24 + ^ x22: .cfa -32 + ^ x23: .cfa -40 + ^ x24: .cfa -48 + ^ x25: .cfa -64 + ^ .ra: .cfa -72 + ^ x29: .cfa -80 + ^
STACK CFI 1e404 .cfa: sp 240 +
STACK CFI 1e41c .cfa: sp 0 +
STACK CFI 1e420 .cfa: x29 80 +
STACK CFI INIT 1e558 50 .cfa: sp 0 +
STACK CFI 1e55c .cfa: sp 32 +
STACK CFI 1e564 .cfa: x29 32 + x19: .cfa -8 + ^ x20: .cfa -16 + ^ .ra: .cfa -24 + ^ x29: .cfa -32 + ^
STACK CFI INIT 1e5d4 7c0 .cfa: sp 0 +
STACK CFI 1e5d8 .cfa: sp 320 +
STACK CFI 1e5f4 .cfa: x29 96 + x19: .cfa -8 + ^ x20: .cfa -16 + ^ x21: .cfa -24 + ^ x22: .cfa -32 + ^ x23: .cfa -40 + ^ x24: .cfa -48 + ^ x25: .cfa -56 + ^ x26: .cfa -64 + ^ x27: .cfa -72 + ^ x28: .cfa -80 + ^ .ra: .cfa -88 + ^ x29: .cfa -96 + ^
STACK CFI 1ec44 .cfa: sp 320 +
STACK CFI 1ec60 .cfa: sp 0 +
STACK CFI 1ec64 .cfa: x29 96 +
STACK CFI INIT 229b0 c84 .cfa: sp 0 +
STACK CFI 229b4 .cfa: sp 96 +
STACK CFI 229cc .cfa: x29 96 + x19: .cfa -8 + ^ x20: .cfa -16 + ^ x21: .cfa -24 + ^ x22: .cfa -32 + ^ x23: .cfa -40 + ^ x24: .cfa -48 + ^ x25: .cfa -56 + ^ x26: .cfa -64 + ^ x27: .cfa -72 + ^ x28: .cfa -80 + ^ .ra: .cfa -88 + ^ x29: .cfa -96 + ^
STACK CFI 23454 .cfa: sp 96 +
STACK CFI 2346c .cfa: sp 0 +
STACK CFI 23470 .cfa: x29 96 +
STACK CFI INIT 23788 26c .cfa: sp 0 +
STACK CFI 2378c .cfa: sp 128 +
STACK CFI 2379c .cfa: x29 48 + x19: .cfa -8 + ^ x20: .cfa -16 + ^ x21: .cfa -24 + ^ x22: .cfa -32 + ^ .ra: .cfa -40 + ^ x29: .cfa -48 + ^
STACK CFI 23940 .cfa: sp 128 +
STACK CFI 23950 .cfa: sp 0 +
STACK CFI 23954 .cfa: x29 48 +
STACK CFI INIT 23f40 3b8 .cfa: sp 0 +
STACK CFI 23f44 .cfa: sp 96 +
STACK CFI 23f5c .cfa: x29 96 + x19: .cfa -8 + ^ x20: .cfa -16 + ^ x21: .cfa -24 + ^ x22: .cfa -32 + ^ x23: .cfa -40 + ^ x24: .cfa -48 + ^ x25: .cfa -56 + ^ x26: .cfa -64 + ^ x27: .cfa -72 + ^ x28: .cfa -80 + ^ .ra: .cfa -88 + ^ x29: .cfa -96 + ^
STACK CFI 24298 .cfa: sp 96 +
STACK CFI 242b0 .cfa: sp 0 +
STACK CFI 242b4 .cfa: x29 96 +
STACK CFI INIT 24398 cc0 .cfa: sp 0 +
STACK CFI 2439c .cfa: sp 96 +
STACK CFI 243b4 .cfa: x29 96 + x19: .cfa -8 + ^ x20: .cfa -16 + ^ x21: .cfa -24 + ^ x22: .cfa -32 + ^ x23: .cfa -40 + ^ x24: .cfa -48 + ^ x25: .cfa -56 + ^ x26: .cfa -64 + ^ x27: .cfa -72 + ^ x28: .cfa -80 + ^ .ra: .cfa -88 + ^ x29: .cfa -96 + ^
STACK CFI 24e68 .cfa: sp 96 +
STACK CFI 24e80 .cfa: sp 0 +
STACK CFI 24e84 .cfa: x29 96 +
STACK CFI INIT 25340 af8 .cfa: sp 0 +
STACK CFI 25344 .cfa: sp 96 +
STACK CFI 2535c .cfa: x29 96 + x19: .cfa -8 + ^ x20: .cfa -16 + ^ x21: .cfa -24 + ^ x22: .cfa -32 + ^ x23: .cfa -40 + ^ x24: .cfa -48 + ^ x25: .cfa -56 + ^ x26: .cfa -64 + ^ x27: .cfa -72 + ^ x28: .cfa -80 + ^ .ra: .cfa -88 + ^ x29: .cfa -96 + ^
STACK CFI 25dac .cfa: sp 96 +
STACK CFI 25dc4 .cfa: sp 0 +
STACK CFI 25dc8 .cfa: x29 96 +
STACK CFI INIT 2602c 1430 .cfa: sp 0 +
STACK CFI 26030 .cfa: sp 96 +
STACK CFI 26048 .cfa: x29 96 + x19: .cfa -8 + ^ x20: .cfa -16 + ^ x21: .cfa -24 + ^ x22: .cfa -32 + ^ x23: .cfa -40 + ^ x24: .cfa -48 + ^ x25: .cfa -56 + ^ x26: .cfa -64 + ^ x27: .cfa -72 + ^ x28: .cfa -80 + ^ .ra: .cfa -88 + ^ x29: .cfa -96 + ^
STACK CFI 272e4 .cfa: sp 96 +
STACK CFI 272fc .cfa: sp 0 +
STACK CFI 27300 .cfa: x29 96 +
STACK CFI INIT 27580 75c .cfa: sp 0 +
STACK CFI 27584 .cfa: sp 368 +
STACK CFI 275a0 .cfa: x29 96 + x19: .cfa -8 + ^ x20: .cfa -16 + ^ x21: .cfa -24 + ^ x22: .cfa -32 + ^ x23: .cfa -40 + ^ x24: .cfa -48 + ^ x25: .cfa -56 + ^ x26: .cfa -64 + ^ x27: .cfa -72 + ^ x28: .cfa -80 + ^ .ra: .cfa -88 + ^ x29: .cfa -96 + ^
STACK CFI 27654 .cfa: sp 368 +
STACK CFI 27670 .cfa: sp 0 +
STACK CFI 27674 .cfa: x29 96 +
STACK CFI 276c8 .cfa: sp 368 +
STACK CFI 276e4 .cfa: sp 0 +
STACK CFI 276e8 .cfa: x29 96 +
STACK CFI INIT 2809c ee0 .cfa: sp 0 +
STACK CFI 280a0 .cfa: sp 96 +
STACK CFI 280b8 .cfa: x29 96 + x19: .cfa -8 + ^ x20: .cfa -16 + ^ x21: .cfa -24 + ^ x22: .cfa -32 + ^ x23: .cfa -40 + ^ x24: .cfa -48 + ^ x25: .cfa -56 + ^ x26: .cfa -64 + ^ x27: .cfa -72 + ^ x28: .cfa -80 + ^ .ra: .cfa -88 + ^ x29: .cfa -96 + ^
STACK CFI 28d74 .cfa: sp 96 +
STACK CFI 28d8c .cfa: sp 0 +
STACK CFI 28d90 .cfa: x29 96 +
STACK CFI INIT 292f0 14b4 .cfa: sp 0 +
STACK CFI 292f4 .cfa: sp 112 +
STACK CFI 29310 .cfa: x29 96 + x19: .cfa -8 + ^ x20: .cfa -16 + ^ x21: .cfa -24 + ^ x22: .cfa -32 + ^ x23: .cfa -40 + ^ x24: .cfa -48 + ^ x25: .cfa -56 + ^ x26: .cfa -64 + ^ x27: .cfa -72 + ^ x28: .cfa -80 + ^ .ra: .cfa -88 + ^ x29: .cfa -96 + ^ v8: .cfa -112 + ^
STACK CFI 296f0 .cfa: sp 112 +
STACK CFI 2970c .cfa: sp 0 +
STACK CFI 29710 .cfa: x29 96 +
STACK CFI INIT 2cbb4 9a0 .cfa: sp 0 +
STACK CFI 2cbb8 .cfa: sp 144 +
STACK CFI 2cbd0 .cfa: x29 80 + x19: .cfa -8 + ^ x20: .cfa -16 + ^ x21: .cfa -24 + ^ x22: .cfa -32 + ^ x23: .cfa -40 + ^ x24: .cfa -48 + ^ x25: .cfa -64 + ^ .ra: .cfa -72 + ^ x29: .cfa -80 + ^
STACK CFI 2d4d0 .cfa: sp 144 +
STACK CFI 2d4e8 .cfa: sp 0 +
STACK CFI 2d4ec .cfa: x29 80 +
STACK CFI INIT 2d554 57c .cfa: sp 0 +
STACK CFI 2d558 .cfa: sp 96 +
STACK CFI 2d570 .cfa: x29 96 + x19: .cfa -8 + ^ x20: .cfa -16 + ^ x21: .cfa -24 + ^ x22: .cfa -32 + ^ x23: .cfa -40 + ^ x24: .cfa -48 + ^ x25: .cfa -56 + ^ x26: .cfa -64 + ^ x27: .cfa -72 + ^ x28: .cfa -80 + ^ .ra: .cfa -88 + ^ x29: .cfa -96 + ^
STACK CFI 2da34 .cfa: sp 96 +
STACK CFI 2da4c .cfa: sp 0 +
STACK CFI 2da50 .cfa: x29 96 +
STACK CFI INIT 2dad0 67c .cfa: sp 0 +
STACK CFI 2dad4 .cfa: sp 96 +
STACK CFI 2daec .cfa: x29 96 + x19: .cfa -8 + ^ x20: .cfa -16 + ^ x21: .cfa -24 + ^ x22: .cfa -32 + ^ x23: .cfa -40 + ^ x24: .cfa -48 + ^ x25: .cfa -56 + ^ x26: .cfa -64 + ^ x27: .cfa -72 + ^ x28: .cfa -80 + ^ .ra: .cfa -88 + ^ x29: .cfa -96 + ^
STACK CFI 2e0b0 .cfa: sp 96 +
STACK CFI 2e0c8 .cfa: sp 0 +
STACK CFI 2e0cc .cfa: x29 96 +
