MODULE Linux arm 1B43C0E48B7BA05A132FEE80D639B1C50 dogotrigger.level_history.android32.so
INFO CODE_ID E4C0431B7B8B5AA0132FEE80D639B1C5F6F1A673
INFO GENERATOR mozilla/dump_syms 2.3.4
PUBLIC 14a80 0 __on_dlclose
PUBLIC 14a90 0 __emutls_unregister_key
PUBLIC 14a94 0 __on_dlclose_late
PUBLIC 14a98 0 __atexit_handler_wrapper
PUBLIC 14aa4 0 atexit
PUBLIC 14ac4 0 pthread_atfork
FUNC 14ad4 68 0 std::__ndk1::vector<std::__ndk1::shared_ptr<LevelProvider>, std::__ndk1::allocator<std::__ndk1::shared_ptr<LevelProvider> > >::~vector[abi:ne180000]()
FUNC 14b3c 570 0 __cxx_global_var_init.2
FUNC 150ac 1c 0 geode::modifier::ModifyBase<geode::modifier::ModifyDerive<LHLevelSearchLayer, LevelSearchLayer> >::~ModifyBase()
PUBLIC 150c9 0 __clang_call_terminate
FUNC 150d4 3a 0 std::__ndk1::shared_ptr<LevelProvider>::~shared_ptr[abi:ne180000]()
FUNC 15110 390 0 geode::modifier::ModifyDerive<LHLevelSearchLayer, LevelSearchLayer>::apply()
FUNC 154a0 3a 0 std::__ndk1::shared_ptr<geode::Hook>::~shared_ptr[abi:ne180000]()
FUNC 154dc 60 0 geode::impl::ResultData<geode::Hook*, std::__ndk1::basic_string<char, std::__ndk1::char_traits<char>, std::__ndk1::allocator<char> > >::~ResultData()
FUNC 1553c 3e 0 std::__ndk1::vector<std::__ndk1::basic_string<char, std::__ndk1::char_traits<char>, std::__ndk1::allocator<char> >, std::__ndk1::allocator<std::__ndk1::basic_string<char, std::__ndk1::char_traits<char>, std::__ndk1::allocator<char> > > >::~vector[abi:ne180000]()
FUNC 1557a 2 0 geode::modifier::ModifyBase<geode::modifier::ModifyDerive<LHLevelSearchLayer, LevelSearchLayer> >::apply()
FUNC 1557c f8 0 _ZN5geode15UnwrapExceptionC2IRPNS_4HookEQsr4implE18IsStringStreamableIT_EEENS_4impl5OkTagEOS5_
FUNC 15674 34 0 std::__ndk1::__throw_bad_variant_access[abi:ne180000]()
FUNC 156a8 d8 0 std::__ndk1::basic_stringstream<char, std::__ndk1::char_traits<char>, std::__ndk1::allocator<char> >::basic_stringstream[abi:ne180000]()
FUNC 15780 68 0 std::__ndk1::basic_stringstream<char, std::__ndk1::char_traits<char>, std::__ndk1::allocator<char> >::~basic_stringstream()
FUNC 157e8 10 0 geode::UnwrapException::~UnwrapException()
FUNC 157f8 108 0 std::__ndk1::__put_character_sequence[abi:ne180000]<char, std::__ndk1::char_traits<char> >(std::__ndk1::basic_ostream<char, std::__ndk1::char_traits<char> >, std::__ndk1::basic_ostream const*, unsigned int)
FUNC 15900 110 0 std::__ndk1::__pad_and_output[abi:ne180000]<char, std::__ndk1::char_traits<char> >(std::__ndk1::char_traits<char>, std::__ndk1::ostreambuf_iterator const*, std::__ndk1::ostreambuf_iterator const, std::__ndk1::ostreambuf_iterator const, std::__ndk1::ios_base&, std::__ndk1::ostreambuf_iterator)
FUNC 15a10 10 0 std::__ndk1::basic_string<char, std::__ndk1::char_traits<char>, std::__ndk1::allocator<char> >::__throw_length_error[abi:ne180000]() const
FUNC 15a20 38 0 std::__ndk1::__throw_length_error[abi:ne180000](char const*)
FUNC 15a58 18 0 std::length_error::length_error[abi:ne180000](char const*)
FUNC 15a70 28 0 std::__throw_bad_array_new_length([abi:ne180000], void)
FUNC 15a98 ce 0 std::__ndk1::basic_stringbuf<char, std::__ndk1::char_traits<char>, std::__ndk1::allocator<char> >::str[abi:ne180000]() &&
FUNC 15b66 e0 0 std::__ndk1::basic_stringbuf<char, std::__ndk1::char_traits<char>, std::__ndk1::allocator<char> >::__init_buf_ptrs[abi:ne180000]()
FUNC 15c46 46 0 std::__ndk1::basic_string<char, std::__ndk1::char_traits<char>, std::__ndk1::allocator<char> >::__init_copy_ctor_external(char const*, unsigned int)
FUNC 15c8c 3c 0 std::__ndk1::__split_buffer<std::__ndk1::basic_string<char, std::__ndk1::char_traits<char>, std::__ndk1::allocator<char> >, std::__ndk1::allocator<std::__ndk1::basic_string<char, std::__ndk1::char_traits<char>, std::__ndk1::allocator<char> > >&>::~__split_buffer()
FUNC 15cc8 10 0 std::__ndk1::vector<std::__ndk1::basic_string<char, std::__ndk1::char_traits<char>, std::__ndk1::allocator<char> >, std::__ndk1::allocator<std::__ndk1::basic_string<char, std::__ndk1::char_traits<char>, std::__ndk1::allocator<char> > > >::__throw_length_error[abi:ne180000]() const
FUNC 15cd8 2 0 std::__ndk1::__variant_detail::__visitation::__base::__dispatcher<(unsigned int)0>::__dispatch[abi:ne180000]<std::__ndk1::__variant_detail::__dtor<std::__ndk1::__variant_detail::__traits<geode::Hook*, std::__ndk1::basic_string<char, std::__ndk1::char_traits<char>, std::__ndk1::allocator<char> > >, (std::__ndk1::__variant_detail::_Trait)1>::__destroy[abi:ne180000]()::{lambda(auto:1&)#1}, std::__ndk1::__variant_detail::__base<(std::__ndk1::__variant_detail::__traits<geode::Hook*, std::__ndk1::basic_string<char, std::__ndk1::char_traits<char>, std::__ndk1::allocator<char> > >)1, geode::Hook, std::__ndk1::allocator<char> >&>(std::__ndk1::__variant_detail::__dtor<std::__ndk1::__variant_detail::__traits<geode::Hook*, std::__ndk1::basic_string<char, std::__ndk1::char_traits<char>, std::__ndk1::allocator<char> > >, (std::__ndk1::__variant_detail::_Trait)1>, std::__ndk1::__variant_detail::__base<(std::__ndk1::__variant_detail::__traits<geode::Hook*, std::__ndk1::basic_string<char, std::__ndk1::char_traits<char>, std::__ndk1::allocator<char> > >)1, geode::Hook, std::__ndk1::allocator<char> >&)
FUNC 15cda e 0 std::__ndk1::__variant_detail::__visitation::__base::__dispatcher<(unsigned int)1>::__dispatch[abi:ne180000]<std::__ndk1::__variant_detail::__dtor<std::__ndk1::__variant_detail::__traits<geode::Hook*, std::__ndk1::basic_string<char, std::__ndk1::char_traits<char>, std::__ndk1::allocator<char> > >, (std::__ndk1::__variant_detail::_Trait)1>::__destroy[abi:ne180000]()::{lambda(auto:1&)#1}, std::__ndk1::__variant_detail::__base<(std::__ndk1::__variant_detail::__traits<geode::Hook*, std::__ndk1::basic_string<char, std::__ndk1::char_traits<char>, std::__ndk1::allocator<char> > >)1, geode::Hook, std::__ndk1::allocator<char> >&>(std::__ndk1::__variant_detail::__dtor<std::__ndk1::__variant_detail::__traits<geode::Hook*, std::__ndk1::basic_string<char, std::__ndk1::char_traits<char>, std::__ndk1::allocator<char> > >, (std::__ndk1::__variant_detail::_Trait)1>, std::__ndk1::__variant_detail::__base<(std::__ndk1::__variant_detail::__traits<geode::Hook*, std::__ndk1::basic_string<char, std::__ndk1::char_traits<char>, std::__ndk1::allocator<char> > >)1, geode::Hook, std::__ndk1::allocator<char> >&)
FUNC 15ce8 274 0 std::__ndk1::__tree_remove[abi:ne180000]<std::__ndk1::__tree_node_base<void*>*>(std::__ndk1::__tree_node_base<void*>*, std::__ndk1::__tree_node_base<void*>*)
FUNC 15f5c 5a 0 std::__ndk1::__tree<std::__ndk1::__value_type<std::__ndk1::basic_string<char, std::__ndk1::char_traits<char>, std::__ndk1::allocator<char> >, std::__ndk1::shared_ptr<geode::Hook> >, std::__ndk1::__map_value_compare<std::__ndk1::basic_string<char, std::__ndk1::char_traits<char>, std::__ndk1::allocator<char> >, std::__ndk1::__value_type<std::__ndk1::basic_string<char, std::__ndk1::char_traits<char>, std::__ndk1::allocator<char> >, std::__ndk1::shared_ptr<geode::Hook> >, std::__ndk1::less<std::__ndk1::basic_string<char, std::__ndk1::char_traits<char>, std::__ndk1::allocator<char> > >, true>, std::__ndk1::allocator<std::__ndk1::__value_type<std::__ndk1::basic_string<char, std::__ndk1::char_traits<char>, std::__ndk1::allocator<char> >, std::__ndk1::shared_ptr<geode::Hook> > > >::destroy(std::__ndk1::__tree_node<std::__ndk1::__value_type<std::__ndk1::basic_string<char, std::__ndk1::char_traits<char>, std::__ndk1::allocator<char> >, std::__ndk1::shared_ptr<geode::Hook> >, void*>*)
FUNC 15fb8 158 0 geode::modifier::AsStaticFunction_init<LHLevelSearchLayer, bool (LHLevelSearchLayer::*)(int)>::Impl<bool (LHLevelSearchLayer::*)(int)>::function(LHLevelSearchLayer*, int)
FUNC 16110 3a 0 std::__ndk1::shared_ptr<tulip::hook::CallingConvention>::~shared_ptr[abi:ne180000]()
FUNC 1614a 46 0 tulip::hook::HandlerMetadata::~HandlerMetadata()
FUNC 16190 108 0 LHLevelSearchLayer::onMyButton(cocos2d::CCObject*)
FUNC 16298 74 0 std::__ndk1::__exception_guard_exceptions<std::__ndk1::vector<std::__ndk1::shared_ptr<LevelProvider>, std::__ndk1::allocator<std::__ndk1::shared_ptr<LevelProvider> > >::__destroy_vector>::~__exception_guard_exceptions[abi:ne180000]()
FUNC 1630c 10 0 std::__ndk1::vector<std::__ndk1::shared_ptr<LevelProvider>, std::__ndk1::allocator<std::__ndk1::shared_ptr<LevelProvider> > >::__throw_length_error[abi:ne180000]() const
FUNC 1631c 14a 0 std::__ndk1::__tree_balance_after_insert[abi:ne180000]<std::__ndk1::__tree_node_base<void*>*>(std::__ndk1::__tree_node_base<void*>*, std::__ndk1::__tree_node_base<void*>*)
FUNC 16466 3a 0 std::__ndk1::shared_ptr<GDHistoryProvider>::~shared_ptr[abi:ne180000]()
FUNC 164a0 10 0 std::__ndk1::__shared_ptr_emplace<GDHistoryProvider, std::__ndk1::allocator<GDHistoryProvider> >::~__shared_ptr_emplace()
FUNC 164b0 1c 0 std::__ndk1::__shared_ptr_emplace<GDHistoryProvider, std::__ndk1::allocator<GDHistoryProvider> >::~__shared_ptr_emplace()
FUNC 164cc 2c 0 std::__ndk1::__shared_ptr_emplace<GDHistoryProvider, std::__ndk1::allocator<GDHistoryProvider> >::__on_zero_shared()
FUNC 164f8 4 0 std::__ndk1::__shared_ptr_emplace<GDHistoryProvider, std::__ndk1::allocator<GDHistoryProvider> >::__on_zero_shared_weak()
FUNC 164fc e8 0 LevelProvider::~LevelProvider()
FUNC 165e4 e 0 std::__ndk1::__variant_detail::__visitation::__base::__dispatcher<(unsigned int)0>::__dispatch[abi:ne180000]<std::__ndk1::__variant_detail::__dtor<std::__ndk1::__variant_detail::__traits<std::__ndk1::basic_string<char, std::__ndk1::char_traits<char>, std::__ndk1::allocator<char> >, int>, (std::__ndk1::__variant_detail::_Trait)1>::__destroy[abi:ne180000]()::{lambda(auto:1&)#1}, std::__ndk1::__variant_detail::__base<(std::__ndk1::__variant_detail::__traits<std::__ndk1::basic_string<char, std::__ndk1::char_traits<char>, std::__ndk1::allocator<char> >, int>)1, std::__ndk1::allocator<char>, int>&>(std::__ndk1::__variant_detail::__dtor<std::__ndk1::__variant_detail::__traits<std::__ndk1::basic_string<char, std::__ndk1::char_traits<char>, std::__ndk1::allocator<char> >, int>, (std::__ndk1::__variant_detail::_Trait)1>, std::__ndk1::__variant_detail::__base<(std::__ndk1::__variant_detail::__traits<std::__ndk1::basic_string<char, std::__ndk1::char_traits<char>, std::__ndk1::allocator<char> >, int>)1, std::__ndk1::allocator<char>, int>&)
FUNC 165f2 2 0 std::__ndk1::__variant_detail::__visitation::__base::__dispatcher<(unsigned int)1>::__dispatch[abi:ne180000]<std::__ndk1::__variant_detail::__dtor<std::__ndk1::__variant_detail::__traits<std::__ndk1::basic_string<char, std::__ndk1::char_traits<char>, std::__ndk1::allocator<char> >, int>, (std::__ndk1::__variant_detail::_Trait)1>::__destroy[abi:ne180000]()::{lambda(auto:1&)#1}, std::__ndk1::__variant_detail::__base<(std::__ndk1::__variant_detail::__traits<std::__ndk1::basic_string<char, std::__ndk1::char_traits<char>, std::__ndk1::allocator<char> >, int>)1, std::__ndk1::allocator<char>, int>&>(std::__ndk1::__variant_detail::__dtor<std::__ndk1::__variant_detail::__traits<std::__ndk1::basic_string<char, std::__ndk1::char_traits<char>, std::__ndk1::allocator<char> >, int>, (std::__ndk1::__variant_detail::_Trait)1>, std::__ndk1::__variant_detail::__base<(std::__ndk1::__variant_detail::__traits<std::__ndk1::basic_string<char, std::__ndk1::char_traits<char>, std::__ndk1::allocator<char> >, int>)1, std::__ndk1::allocator<char>, int>&)
FUNC 165f4 a0 0 _ZNSt6__ndk112__destroy_atB8ne180000IN13LevelProvider6CachedETnNS_9enable_ifIXntsr8is_arrayIT_EE5valueEiE4typeELi0EEEvPS4_
FUNC 16694 324 0 _GLOBAL__sub_I_main.cpp
FUNC 169b8 1c 0 GDHistoryProvider::getName()
FUNC 169d4 5e 0 std::__ndk1::basic_string<char, std::__ndk1::char_traits<char>, std::__ndk1::allocator<char> >::basic_string[abi:ne180000]<0>()
FUNC 16a34 c20 0 GDHistoryProvider::downloadLevel(std::__ndk1::function<void (LevelProvider*, GJGameLevel*)>)
FUNC 17654 124 0 std::__ndk1::unordered_map<LevelProvider::LPFeatures, std::__ndk1::variant<std::__ndk1::basic_string<char, std::__ndk1::char_traits<char>, std::__ndk1::allocator<char> >, int>, std::__ndk1::hash<LevelProvider::LPFeatures>, std::__ndk1::equal_to<LevelProvider::LPFeatures>, std::__ndk1::allocator<std::__ndk1::pair<LevelProvider::LPFeatures const, std::__ndk1::variant<std::__ndk1::basic_string<char, std::__ndk1::char_traits<char>, std::__ndk1::allocator<char> >, int> > > >::unordered_map(std::__ndk1::unordered_map<LevelProvider::LPFeatures, std::__ndk1::variant<std::__ndk1::basic_string<char, std::__ndk1::char_traits<char>, std::__ndk1::allocator<char> >, int>, std::__ndk1::hash<LevelProvider::LPFeatures>, std::__ndk1::equal_to<LevelProvider::LPFeatures>, std::__ndk1::allocator<std::__ndk1::pair<LevelProvider::LPFeatures const, std::__ndk1::variant<std::__ndk1::basic_string<char, std::__ndk1::char_traits<char>, std::__ndk1::allocator<char> >, int> > > > const&)
FUNC 17778 b0 0 GDHistoryProvider::downloadLevel(std::__ndk1::function<void (LevelProvider*, GJGameLevel*)>)::$_1::~$_1()
FUNC 17828 b0 0 GDHistoryProvider::downloadLevel(std::__ndk1::function<void (LevelProvider*, GJGameLevel*)>)::$_3::~$_3()
FUNC 178d8 c0 0 GeodeNetwork::~GeodeNetwork()
FUNC 17998 90 0 std::__ndk1::unordered_map<LevelProvider::LPFeatures, std::__ndk1::variant<std::__ndk1::basic_string<char, std::__ndk1::char_traits<char>, std::__ndk1::allocator<char> >, int>, std::__ndk1::hash<LevelProvider::LPFeatures>, std::__ndk1::equal_to<LevelProvider::LPFeatures>, std::__ndk1::allocator<std::__ndk1::pair<LevelProvider::LPFeatures const, std::__ndk1::variant<std::__ndk1::basic_string<char, std::__ndk1::char_traits<char>, std::__ndk1::allocator<char> >, int> > > >::~unordered_map[abi:ne180000]()
FUNC 17a28 108 0 GDHistoryProvider::getFeatures()
FUNC 17b30 28 0 std::__ndk1::unordered_map<LevelProvider::LPFeatures, bool, std::__ndk1::hash<LevelProvider::LPFeatures>, std::__ndk1::equal_to<LevelProvider::LPFeatures>, std::__ndk1::allocator<std::__ndk1::pair<LevelProvider::LPFeatures const, bool> > >::~unordered_map[abi:ne180000]()
FUNC 17b58 5a 0 GDHistoryProvider::askMultipleLevels()
FUNC 17bb2 38 0 GDHistoryProvider::cleanupLevels(bool)
FUNC 17bec 89c 0 GDHistoryProvider::getLevelData(int, std::__ndk1::function<void (LevelProvider*, std::__ndk1::basic_string<char, std::__ndk1::char_traits<char>, std::__ndk1::allocator<char> >, LevelProvider::BasicLevelInformation)>)
FUNC 18488 32 0 GDHistoryProvider::getLevelData(int, std::__ndk1::function<void (LevelProvider*, std::__ndk1::basic_string<char, std::__ndk1::char_traits<char>, std::__ndk1::allocator<char> >, LevelProvider::BasicLevelInformation)>)::$_0::~$_0()
FUNC 184bc b8c 0 GDHistoryProvider::parseResult(std::__ndk1::basic_string<char, std::__ndk1::char_traits<char>, std::__ndk1::allocator<char> >&, std::__ndk1::function<void (LevelProvider*, std::__ndk1::basic_string<char, std::__ndk1::char_traits<char>, std::__ndk1::allocator<char> >, LevelProvider::BasicLevelInformation)>, GeodeNetwork*)
FUNC 19048 b0 0 GDHistoryProvider::getLevelData(int, std::__ndk1::function<void (LevelProvider*, std::__ndk1::basic_string<char, std::__ndk1::char_traits<char>, std::__ndk1::allocator<char> >, LevelProvider::BasicLevelInformation)>)::$_2::~$_2()
FUNC 190f8 8f0 0 GDHistoryProvider::getErrorCodeDescription(std::__ndk1::basic_string<char, std::__ndk1::char_traits<char>, std::__ndk1::allocator<char> >)
FUNC 199e8 22 0 std::__ndk1::pair<std::__ndk1::basic_string<char, std::__ndk1::char_traits<char>, std::__ndk1::allocator<char> > const, std::__ndk1::basic_string<char, std::__ndk1::char_traits<char>, std::__ndk1::allocator<char> > >::~pair()
FUNC 19a0a 4a 0 std::__ndk1::unordered_map<std::__ndk1::basic_string<char, std::__ndk1::char_traits<char>, std::__ndk1::allocator<char> >, std::__ndk1::basic_string<char, std::__ndk1::char_traits<char>, std::__ndk1::allocator<char> >, std::__ndk1::hash<std::__ndk1::basic_string<char, std::__ndk1::char_traits<char>, std::__ndk1::allocator<char> > >, std::__ndk1::equal_to<std::__ndk1::basic_string<char, std::__ndk1::char_traits<char>, std::__ndk1::allocator<char> > >, std::__ndk1::allocator<std::__ndk1::pair<std::__ndk1::basic_string<char, std::__ndk1::char_traits<char>, std::__ndk1::allocator<char> > const, std::__ndk1::basic_string<char, std::__ndk1::char_traits<char>, std::__ndk1::allocator<char> > > > >::~unordered_map[abi:ne180000]()
FUNC 19a54 c0 0 GDHistoryProvider::getDescription()
FUNC 19b14 168a 0 GDHistoryProvider::parseResult(std::__ndk1::basic_string<char, std::__ndk1::char_traits<char>, std::__ndk1::allocator<char> >&, std::__ndk1::function<void (LevelProvider*, GJGameLevel*)>, GeodeNetwork*)
FUNC 1b1a0 6b0 0 nlohmann::json_abi_v3_11_3::basic_json<std::__ndk1::map, std::__ndk1::vector, std::__ndk1::basic_string<char, std::__ndk1::char_traits<char>, std::__ndk1::allocator<char> >, bool, long long, unsigned long long, double, std::__ndk1::allocator, nlohmann::json_abi_v3_11_3::adl_serializer, std::__ndk1::vector<unsigned char, std::__ndk1::allocator<unsigned char> >, void>::parse<std::__ndk1::basic_string<char, std::__ndk1::char_traits<char>, std::__ndk1::allocator<char> >&>(std::__ndk1::basic_string<char, std::__ndk1::char_traits<char>, std::__ndk1::allocator<char> >&, std::__ndk1::function<bool (int, nlohmann::json_abi_v3_11_3::detail::parse_event_t, nlohmann::json_abi_v3_11_3::basic_json<std::__ndk1::map, std::__ndk1::vector, std::__ndk1::basic_string<char, std::__ndk1::char_traits<char>, std::__ndk1::allocator<char> >, bool, long long, unsigned long long, double, std::__ndk1::allocator, nlohmann::json_abi_v3_11_3::adl_serializer, std::__ndk1::vector<unsigned char, std::__ndk1::allocator<unsigned char> >, void>&)>, bool, bool)
FUNC 1b850 48 0 std::__ndk1::function<void (LevelProvider*, GJGameLevel*)>::operator()(LevelProvider*, GJGameLevel*) const
FUNC 1b898 110 0 _ZN8nlohmann16json_abi_v3_11_310basic_jsonINSt6__ndk13mapENS2_6vectorENS2_12basic_stringIcNS2_11char_traitsIcEENS2_9allocatorIcEEEEbxydS8_NS0_14adl_serializerENS4_IhNS8_IhEEEEvE2atIRA8_KcTnNS2_9enable_ifIXsr6detail32is_usable_as_basic_json_key_typeISE_T_EE5valueEiE4typeELi0EEERSE_OSK_
FUNC 1b9a8 35c 0 nlohmann::json_abi_v3_11_3::basic_json<std::__ndk1::map, std::__ndk1::vector, std::__ndk1::basic_string<char, std::__ndk1::char_traits<char>, std::__ndk1::allocator<char> >, bool, long long, unsigned long long, double, std::__ndk1::allocator, nlohmann::json_abi_v3_11_3::adl_serializer, std::__ndk1::vector<unsigned char, std::__ndk1::allocator<unsigned char> >, void>::basic_json(nlohmann::json_abi_v3_11_3::basic_json<std::__ndk1::map, std::__ndk1::vector, std::__ndk1::basic_string<char, std::__ndk1::char_traits<char>, std::__ndk1::allocator<char> >, bool, long long, unsigned long long, double, std::__ndk1::allocator, nlohmann::json_abi_v3_11_3::adl_serializer, std::__ndk1::vector<unsigned char, std::__ndk1::allocator<unsigned char> >, void> const&)
FUNC 1bd04 1dc 0 nlohmann::json_abi_v3_11_3::basic_json<std::__ndk1::map, std::__ndk1::vector, std::__ndk1::basic_string<char, std::__ndk1::char_traits<char>, std::__ndk1::allocator<char> >, bool, long long, unsigned long long, double, std::__ndk1::allocator, nlohmann::json_abi_v3_11_3::adl_serializer, std::__ndk1::vector<unsigned char, std::__ndk1::allocator<unsigned char> >, void>::operator[](unsigned int)
FUNC 1bee0 180 0 nlohmann::json_abi_v3_11_3::basic_json<std::__ndk1::map, std::__ndk1::vector, std::__ndk1::basic_string<char, std::__ndk1::char_traits<char>, std::__ndk1::allocator<char> >, bool, long long, unsigned long long, double, std::__ndk1::allocator, nlohmann::json_abi_v3_11_3::adl_serializer, std::__ndk1::vector<unsigned char, std::__ndk1::allocator<unsigned char> >, void>::operator[]<char const>(char const*)
FUNC 1c060 16 0 nlohmann::json_abi_v3_11_3::basic_json<std::__ndk1::map, std::__ndk1::vector, std::__ndk1::basic_string<char, std::__ndk1::char_traits<char>, std::__ndk1::allocator<char> >, bool, long long, unsigned long long, double, std::__ndk1::allocator, nlohmann::json_abi_v3_11_3::adl_serializer, std::__ndk1::vector<unsigned char, std::__ndk1::allocator<unsigned char> >, void>::~basic_json()
FUNC 1c078 110 0 _ZN8nlohmann16json_abi_v3_11_310basic_jsonINSt6__ndk13mapENS2_6vectorENS2_12basic_stringIcNS2_11char_traitsIcEENS2_9allocatorIcEEEEbxydS8_NS0_14adl_serializerENS4_IhNS8_IhEEEEvE2atIRA5_KcTnNS2_9enable_ifIXsr6detail32is_usable_as_basic_json_key_typeISE_T_EE5valueEiE4typeELi0EEERSE_OSK_
FUNC 1c188 22 0 LevelProvider::BasicLevelInformation::~BasicLevelInformation()
FUNC 1c1ac 60 0 geode::impl::ResultData<GJGameLevel*, std::__ndk1::basic_string<char, std::__ndk1::char_traits<char>, std::__ndk1::allocator<char> > >::~ResultData()
FUNC 1c20c 38 0 std::__ndk1::basic_ofstream<char, std::__ndk1::char_traits<char> >::~basic_ofstream()
FUNC 1c244 68 0 geode::EventListener<geode::Task<geode::utils::web::WebResponse, geode::utils::web::WebProgress> >::~EventListener()
FUNC 1c2ac 4 0 geode::EventListener<geode::Task<geode::utils::web::WebResponse, geode::utils::web::WebProgress> >::getPool() const
FUNC 1c2b0 e8 0 geode::EventListener<geode::Task<geode::utils::web::WebResponse, geode::utils::web::WebProgress> >::handle(geode::Event*)
FUNC 1c398 6c 0 geode::EventListener<geode::Task<geode::utils::web::WebResponse, geode::utils::web::WebProgress> >::~EventListener()
FUNC 1c404 8c 0 geode::cast::traverseTypeinfoFor(void*, geode::cast::ClassTypeinfoType const*, char const*)
FUNC 1c490 34 0 std::__ndk1::__throw_bad_function_call[abi:ne180000]()
FUNC 1c4c4 10 0 std::__ndk1::bad_function_call::~bad_function_call()
FUNC 1c4d4 c8 0 std::__ndk1::basic_string<char, std::__ndk1::char_traits<char>, std::__ndk1::allocator<char> >::__assign_external(char const*, unsigned int)
FUNC 1c59c a0 0 LevelProvider::Cached::~Cached()
FUNC 1c63c 10 0 std::__ndk1::vector<GJGameLevel*, std::__ndk1::allocator<GJGameLevel*> >::__throw_length_error[abi:ne180000]() const
FUNC 1c64c 66 0 std::__ndk1::basic_string<char, std::__ndk1::char_traits<char>, std::__ndk1::allocator<char> >::__assign_no_alias<true>(char const*, unsigned int)
FUNC 1c6b2 a6 0 std::__ndk1::basic_string<char, std::__ndk1::char_traits<char>, std::__ndk1::allocator<char> >::__assign_no_alias<false>(char const*, unsigned int)
FUNC 1c758 124 0 nlohmann::json_abi_v3_11_3::detail::from_json<nlohmann::json_abi_v3_11_3::basic_json<std::__ndk1::map, std::__ndk1::vector, std::__ndk1::basic_string<char, std::__ndk1::char_traits<char>, std::__ndk1::allocator<char> >, bool, long long, unsigned long long, double, std::__ndk1::allocator, nlohmann::json_abi_v3_11_3::adl_serializer, std::__ndk1::vector<unsigned char, std::__ndk1::allocator<unsigned char> >, void> >(nlohmann::json_abi_v3_11_3::basic_json<std::__ndk1::map, std::__ndk1::vector, std::__ndk1::basic_string<char, std::__ndk1::char_traits<char>, std::__ndk1::allocator<char> >, bool, long long, unsigned long long, double, std::__ndk1::allocator, nlohmann::json_abi_v3_11_3::adl_serializer, std::__ndk1::vector<unsigned char, std::__ndk1::allocator<unsigned char> >, void> const&, nlohmann::json_abi_v3_11_3::basic_json<std::__ndk1::map, std::__ndk1::vector, std::__ndk1::basic_string<char, std::__ndk1::char_traits<char>, std::__ndk1::allocator<char> >, bool, long long, unsigned long long, double, std::__ndk1::allocator, nlohmann::json_abi_v3_11_3::adl_serializer, std::__ndk1::vector<unsigned char, std::__ndk1::allocator<unsigned char> >, void>&::string_t)
FUNC 1c87c 15c 0 _ZN8nlohmann16json_abi_v3_11_36detail10type_error6createIPKNS0_10basic_jsonINSt6__ndk13mapENS5_6vectorENS5_12basic_stringIcNS5_11char_traitsIcEENS5_9allocatorIcEEEEbxydSB_NS0_14adl_serializerENS7_IhNSB_IhEEEEvEETnNS5_9enable_ifIXsr21is_basic_json_contextIT_EE5valueEiE4typeELi0EEES2_iRKSD_SL_
FUNC 1c9d8 70 0 nlohmann::json_abi_v3_11_3::detail::concat<std::__ndk1::basic_string<char, std::__ndk1::char_traits<char>, std::__ndk1::allocator<char> >, char const (&) [29], char const*>(char const (&) [29], char const*)
FUNC 1ca48 20 0 nlohmann::json_abi_v3_11_3::basic_json<std::__ndk1::map, std::__ndk1::vector, std::__ndk1::basic_string<char, std::__ndk1::char_traits<char>, std::__ndk1::allocator<char> >, bool, long long, unsigned long long, double, std::__ndk1::allocator, nlohmann::json_abi_v3_11_3::adl_serializer, std::__ndk1::vector<unsigned char, std::__ndk1::allocator<unsigned char> >, void>::type_name() const
FUNC 1ca68 b2 0 nlohmann::json_abi_v3_11_3::detail::concat<std::__ndk1::basic_string<char, std::__ndk1::char_traits<char>, std::__ndk1::allocator<char> >, std::__ndk1::basic_string<char, std::__ndk1::char_traits<char>, std::__ndk1::allocator<char> >, std::__ndk1::basic_string<char, std::__ndk1::char_traits<char>, std::__ndk1::allocator<char> >, std::__ndk1::basic_string<char, std::__ndk1::char_traits<char>, std::__ndk1::allocator<char> > const&>(std::__ndk1::basic_string<char, std::__ndk1::char_traits<char>, std::__ndk1::allocator<char> >&&, std::__ndk1::basic_string<char, std::__ndk1::char_traits<char>, std::__ndk1::allocator<char> >, std::__ndk1::basic_string<char, std::__ndk1::char_traits<char>, std::__ndk1::allocator<char> > const&)
FUNC 1cb1c e4 0 nlohmann::json_abi_v3_11_3::detail::concat<std::__ndk1::basic_string<char, std::__ndk1::char_traits<char>, std::__ndk1::allocator<char> >, char const (&) [17], std::__ndk1::basic_string<char, std::__ndk1::char_traits<char>, std::__ndk1::allocator<char> > const&, char, std::__ndk1::basic_string<char, std::__ndk1::char_traits<char>, std::__ndk1::allocator<char> >, char const (&) [3]>(char const (&) [17], std::__ndk1::basic_string<char, std::__ndk1::char_traits<char>, std::__ndk1::allocator<char> > const&, char, std::__ndk1::basic_string<char, std::__ndk1::char_traits<char>, std::__ndk1::allocator<char> >, char const (&) [3])
FUNC 1cc00 2c 0 nlohmann::json_abi_v3_11_3::detail::type_error::~type_error()
FUNC 1cc2c 6 0 nlohmann::json_abi_v3_11_3::detail::exception::what() const
FUNC 1cc34 2c 0 nlohmann::json_abi_v3_11_3::detail::exception::~exception()
FUNC 1cc60 b4 0 _ZN8nlohmann16json_abi_v3_11_36detail9from_jsonINS0_10basic_jsonINSt6__ndk13mapENS4_6vectorENS4_12basic_stringIcNS4_11char_traitsIcEENS4_9allocatorIcEEEEbxydSA_NS0_14adl_serializerENS6_IhNSA_IhEEEEvEEiTnNS4_9enable_ifIXaaaaaaaasr3std13is_arithmeticIT0_EE5valuentsr3std7is_sameISI_NT_17number_unsigned_tEEE5valuentsr3std7is_sameISI_NSJ_16number_integer_tEEE5valuentsr3std7is_sameISI_NSJ_14number_float_tEEE5valuentsr3std7is_sameISI_NSJ_9boolean_tEEE5valueEiE4typeELi0EEEvRKSJ_RSI_
FUNC 1cd14 90 0 nlohmann::json_abi_v3_11_3::detail::from_json<nlohmann::json_abi_v3_11_3::basic_json<std::__ndk1::map, std::__ndk1::vector, std::__ndk1::basic_string<char, std::__ndk1::char_traits<char>, std::__ndk1::allocator<char> >, bool, long long, unsigned long long, double, std::__ndk1::allocator, nlohmann::json_abi_v3_11_3::adl_serializer, std::__ndk1::vector<unsigned char, std::__ndk1::allocator<unsigned char> >, void> >(nlohmann::json_abi_v3_11_3::basic_json<std::__ndk1::map, std::__ndk1::vector, std::__ndk1::basic_string<char, std::__ndk1::char_traits<char>, std::__ndk1::allocator<char> >, bool, long long, unsigned long long, double, std::__ndk1::allocator, nlohmann::json_abi_v3_11_3::adl_serializer, std::__ndk1::vector<unsigned char, std::__ndk1::allocator<unsigned char> >, void> const&, nlohmann::json_abi_v3_11_3::basic_json<std::__ndk1::map, std::__ndk1::vector, std::__ndk1::basic_string<char, std::__ndk1::char_traits<char>, std::__ndk1::allocator<char> >, bool, long long, unsigned long long, double, std::__ndk1::allocator, nlohmann::json_abi_v3_11_3::adl_serializer, std::__ndk1::vector<unsigned char, std::__ndk1::allocator<unsigned char> >, void>&::boolean_t)
FUNC 1cda4 70 0 nlohmann::json_abi_v3_11_3::detail::concat<std::__ndk1::basic_string<char, std::__ndk1::char_traits<char>, std::__ndk1::allocator<char> >, char const (&) [30], char const*>(char const (&) [30], char const*)
FUNC 1ce14 10 0 std::__ndk1::vector<GJGameLevel*, std::__ndk1::allocator<GJGameLevel*> >::__throw_out_of_range[abi:ne180000]() const
FUNC 1ce24 38 0 std::__ndk1::__throw_out_of_range[abi:ne180000](char const*)
FUNC 1ce5c 18 0 std::out_of_range::out_of_range[abi:ne180000](char const*)
FUNC 1ce74 be 0 std::__ndk1::vector<GJGameLevel*, std::__ndk1::allocator<GJGameLevel*> >::__assign_with_size[abi:ne180000]<GJGameLevel**, std::__ndk1::vector<GJGameLevel*, std::__ndk1::allocator<GJGameLevel*> >::__assign_with_size[abi:ne180000]>(GJGameLevel**, std::__ndk1::vector<GJGameLevel*, std::__ndk1::allocator<GJGameLevel*> >::__assign_with_size[abi:ne180000], int)
FUNC 1cf34 f8 0 _ZN5geode15UnwrapExceptionC2IRP11GJGameLevelQsr4implE18IsStringStreamableIT_EEENS_4impl5OkTagEOS5_
FUNC 1d02c 104 0 _ZN5geode15UnwrapExceptionC2IRNSt6__ndk112basic_stringIcNS2_11char_traitsIcEENS2_9allocatorIcEEEEQsr4implE18IsStringStreamableIT_EEENS_4impl6ErrTagEOSA_
FUNC 1d130 2 0 std::__ndk1::__variant_detail::__visitation::__base::__dispatcher<(unsigned int)0>::__dispatch[abi:ne180000]<std::__ndk1::__variant_detail::__dtor<std::__ndk1::__variant_detail::__traits<GJGameLevel*, std::__ndk1::basic_string<char, std::__ndk1::char_traits<char>, std::__ndk1::allocator<char> > >, (std::__ndk1::__variant_detail::_Trait)1>::__destroy[abi:ne180000]()::{lambda(auto:1&)#1}, std::__ndk1::__variant_detail::__base<(std::__ndk1::__variant_detail::__traits<GJGameLevel*, std::__ndk1::basic_string<char, std::__ndk1::char_traits<char>, std::__ndk1::allocator<char> > >)1, GJGameLevel, std::__ndk1::allocator<char> >&>(std::__ndk1::__variant_detail::__dtor<std::__ndk1::__variant_detail::__traits<GJGameLevel*, std::__ndk1::basic_string<char, std::__ndk1::char_traits<char>, std::__ndk1::allocator<char> > >, (std::__ndk1::__variant_detail::_Trait)1>, std::__ndk1::__variant_detail::__base<(std::__ndk1::__variant_detail::__traits<GJGameLevel*, std::__ndk1::basic_string<char, std::__ndk1::char_traits<char>, std::__ndk1::allocator<char> > >)1, GJGameLevel, std::__ndk1::allocator<char> >&)
FUNC 1d132 e 0 std::__ndk1::__variant_detail::__visitation::__base::__dispatcher<(unsigned int)1>::__dispatch[abi:ne180000]<std::__ndk1::__variant_detail::__dtor<std::__ndk1::__variant_detail::__traits<GJGameLevel*, std::__ndk1::basic_string<char, std::__ndk1::char_traits<char>, std::__ndk1::allocator<char> > >, (std::__ndk1::__variant_detail::_Trait)1>::__destroy[abi:ne180000]()::{lambda(auto:1&)#1}, std::__ndk1::__variant_detail::__base<(std::__ndk1::__variant_detail::__traits<GJGameLevel*, std::__ndk1::basic_string<char, std::__ndk1::char_traits<char>, std::__ndk1::allocator<char> > >)1, GJGameLevel, std::__ndk1::allocator<char> >&>(std::__ndk1::__variant_detail::__dtor<std::__ndk1::__variant_detail::__traits<GJGameLevel*, std::__ndk1::basic_string<char, std::__ndk1::char_traits<char>, std::__ndk1::allocator<char> > >, (std::__ndk1::__variant_detail::_Trait)1>, std::__ndk1::__variant_detail::__base<(std::__ndk1::__variant_detail::__traits<GJGameLevel*, std::__ndk1::basic_string<char, std::__ndk1::char_traits<char>, std::__ndk1::allocator<char> > >)1, GJGameLevel, std::__ndk1::allocator<char> >&)
FUNC 1d140 16 0 nlohmann::json_abi_v3_11_3::basic_json<std::__ndk1::map, std::__ndk1::vector, std::__ndk1::basic_string<char, std::__ndk1::char_traits<char>, std::__ndk1::allocator<char> >, bool, long long, unsigned long long, double, std::__ndk1::allocator, nlohmann::json_abi_v3_11_3::adl_serializer, std::__ndk1::vector<unsigned char, std::__ndk1::allocator<unsigned char> >, void>::data::~data()
FUNC 1d158 334 0 nlohmann::json_abi_v3_11_3::basic_json<std::__ndk1::map, std::__ndk1::vector, std::__ndk1::basic_string<char, std::__ndk1::char_traits<char>, std::__ndk1::allocator<char> >, bool, long long, unsigned long long, double, std::__ndk1::allocator, nlohmann::json_abi_v3_11_3::adl_serializer, std::__ndk1::vector<unsigned char, std::__ndk1::allocator<unsigned char> >, void>::json_value::destroy(nlohmann::json_abi_v3_11_3::detail::value_t)
FUNC 1d48c 9a 0 std::__ndk1::vector<nlohmann::json_abi_v3_11_3::basic_json<std::__ndk1::map, std::__ndk1::vector, std::__ndk1::basic_string<char, std::__ndk1::char_traits<char>, std::__ndk1::allocator<char> >, bool, long long, unsigned long long, double, std::__ndk1::allocator, nlohmann::json_abi_v3_11_3::adl_serializer, std::__ndk1::vector<unsigned char, std::__ndk1::allocator<unsigned char> >, void>, std::__ndk1::allocator<nlohmann::json_abi_v3_11_3::basic_json<std::__ndk1::map, std::__ndk1::vector, std::__ndk1::basic_string<char, std::__ndk1::char_traits<char>, std::__ndk1::allocator<char> >, bool, long long, unsigned long long, double, std::__ndk1::allocator, nlohmann::json_abi_v3_11_3::adl_serializer, std::__ndk1::vector<unsigned char, std::__ndk1::allocator<unsigned char> >, void> > >::reserve(unsigned int)
FUNC 1d526 36 0 std::__ndk1::vector<nlohmann::json_abi_v3_11_3::basic_json<std::__ndk1::map, std::__ndk1::vector, std::__ndk1::basic_string<char, std::__ndk1::char_traits<char>, std::__ndk1::allocator<char> >, bool, long long, unsigned long long, double, std::__ndk1::allocator, nlohmann::json_abi_v3_11_3::adl_serializer, std::__ndk1::vector<unsigned char, std::__ndk1::allocator<unsigned char> >, void>, std::__ndk1::allocator<nlohmann::json_abi_v3_11_3::basic_json<std::__ndk1::map, std::__ndk1::vector, std::__ndk1::basic_string<char, std::__ndk1::char_traits<char>, std::__ndk1::allocator<char> >, bool, long long, unsigned long long, double, std::__ndk1::allocator, nlohmann::json_abi_v3_11_3::adl_serializer, std::__ndk1::vector<unsigned char, std::__ndk1::allocator<unsigned char> >, void> > >::~vector[abi:ne180000]()
FUNC 1d55c 10 0 std::__ndk1::vector<nlohmann::json_abi_v3_11_3::basic_json<std::__ndk1::map, std::__ndk1::vector, std::__ndk1::basic_string<char, std::__ndk1::char_traits<char>, std::__ndk1::allocator<char> >, bool, long long, unsigned long long, double, std::__ndk1::allocator, nlohmann::json_abi_v3_11_3::adl_serializer, std::__ndk1::vector<unsigned char, std::__ndk1::allocator<unsigned char> >, void>, std::__ndk1::allocator<nlohmann::json_abi_v3_11_3::basic_json<std::__ndk1::map, std::__ndk1::vector, std::__ndk1::basic_string<char, std::__ndk1::char_traits<char>, std::__ndk1::allocator<char> >, bool, long long, unsigned long long, double, std::__ndk1::allocator, nlohmann::json_abi_v3_11_3::adl_serializer, std::__ndk1::vector<unsigned char, std::__ndk1::allocator<unsigned char> >, void> > >::__throw_length_error[abi:ne180000]() const
FUNC 1d56c 2e 0 std::__ndk1::__split_buffer<nlohmann::json_abi_v3_11_3::basic_json<std::__ndk1::map, std::__ndk1::vector, std::__ndk1::basic_string<char, std::__ndk1::char_traits<char>, std::__ndk1::allocator<char> >, bool, long long, unsigned long long, double, std::__ndk1::allocator, nlohmann::json_abi_v3_11_3::adl_serializer, std::__ndk1::vector<unsigned char, std::__ndk1::allocator<unsigned char> >, void>, std::__ndk1::allocator<nlohmann::json_abi_v3_11_3::basic_json<std::__ndk1::map, std::__ndk1::vector, std::__ndk1::basic_string<char, std::__ndk1::char_traits<char>, std::__ndk1::allocator<char> >, bool, long long, unsigned long long, double, std::__ndk1::allocator, nlohmann::json_abi_v3_11_3::adl_serializer, std::__ndk1::vector<unsigned char, std::__ndk1::allocator<unsigned char> >, void> >&>::~__split_buffer()
FUNC 1d59a d6 0 std::__ndk1::vector<nlohmann::json_abi_v3_11_3::basic_json<std::__ndk1::map, std::__ndk1::vector, std::__ndk1::basic_string<char, std::__ndk1::char_traits<char>, std::__ndk1::allocator<char> >, bool, long long, unsigned long long, double, std::__ndk1::allocator, nlohmann::json_abi_v3_11_3::adl_serializer, std::__ndk1::vector<unsigned char, std::__ndk1::allocator<unsigned char> >, void>, std::__ndk1::allocator<nlohmann::json_abi_v3_11_3::basic_json<std::__ndk1::map, std::__ndk1::vector, std::__ndk1::basic_string<char, std::__ndk1::char_traits<char>, std::__ndk1::allocator<char> >, bool, long long, unsigned long long, double, std::__ndk1::allocator, nlohmann::json_abi_v3_11_3::adl_serializer, std::__ndk1::vector<unsigned char, std::__ndk1::allocator<unsigned char> >, void> > >::__push_back_slow_path<nlohmann::json_abi_v3_11_3::basic_json<std::__ndk1::map, std::__ndk1::vector, std::__ndk1::basic_string<char, std::__ndk1::char_traits<char>, std::__ndk1::allocator<char> >, bool, long long, unsigned long long, double, std::__ndk1::allocator, nlohmann::json_abi_v3_11_3::adl_serializer, std::__ndk1::vector<unsigned char, std::__ndk1::allocator<unsigned char> >, void> >(nlohmann::json_abi_v3_11_3::basic_json<std::__ndk1::map, std::__ndk1::vector, std::__ndk1::basic_string<char, std::__ndk1::char_traits<char>, std::__ndk1::allocator<char> >, bool, long long, unsigned long long, double, std::__ndk1::allocator, nlohmann::json_abi_v3_11_3::adl_serializer, std::__ndk1::vector<unsigned char, std::__ndk1::allocator<unsigned char> >, void>&&)
FUNC 1d670 3c 0 std::__ndk1::__tree<std::__ndk1::__value_type<std::__ndk1::basic_string<char, std::__ndk1::char_traits<char>, std::__ndk1::allocator<char> >, nlohmann::json_abi_v3_11_3::basic_json<std::__ndk1::map, std::__ndk1::vector, std::__ndk1::basic_string<char, std::__ndk1::char_traits<char>, std::__ndk1::allocator<char> >, bool, long long, unsigned long long, double, std::__ndk1::allocator, nlohmann::json_abi_v3_11_3::adl_serializer, std::__ndk1::vector<unsigned char, std::__ndk1::allocator<unsigned char> >, void> >, std::__ndk1::__map_value_compare<std::__ndk1::basic_string<char, std::__ndk1::char_traits<char>, std::__ndk1::allocator<char> >, std::__ndk1::__value_type<std::__ndk1::basic_string<char, std::__ndk1::char_traits<char>, std::__ndk1::allocator<char> >, nlohmann::json_abi_v3_11_3::basic_json<std::__ndk1::map, std::__ndk1::vector, std::__ndk1::basic_string<char, std::__ndk1::char_traits<char>, std::__ndk1::allocator<char> >, bool, long long, unsigned long long, double, std::__ndk1::allocator, nlohmann::json_abi_v3_11_3::adl_serializer, std::__ndk1::vector<unsigned char, std::__ndk1::allocator<unsigned char> >, void> >, std::__ndk1::less<void>, true>, std::__ndk1::allocator<std::__ndk1::__value_type<std::__ndk1::basic_string<char, std::__ndk1::char_traits<char>, std::__ndk1::allocator<char> >, nlohmann::json_abi_v3_11_3::basic_json<std::__ndk1::map, std::__ndk1::vector, std::__ndk1::basic_string<char, std::__ndk1::char_traits<char>, std::__ndk1::allocator<char> >, bool, long long, unsigned long long, double, std::__ndk1::allocator, nlohmann::json_abi_v3_11_3::adl_serializer, std::__ndk1::vector<unsigned char, std::__ndk1::allocator<unsigned char> >, void> > > >::destroy(std::__ndk1::__tree_node<std::__ndk1::__value_type<std::__ndk1::basic_string<char, std::__ndk1::char_traits<char>, std::__ndk1::allocator<char> >, nlohmann::json_abi_v3_11_3::basic_json<std::__ndk1::map, std::__ndk1::vector, std::__ndk1::basic_string<char, std::__ndk1::char_traits<char>, std::__ndk1::allocator<char> >, bool, long long, unsigned long long, double, std::__ndk1::allocator, nlohmann::json_abi_v3_11_3::adl_serializer, std::__ndk1::vector<unsigned char, std::__ndk1::allocator<unsigned char> >, void> >, void*>*)
FUNC 1d6ac 90 0 std::__ndk1::__hash_table<std::__ndk1::__hash_value_type<LevelProvider::LPFeatures, std::__ndk1::variant<std::__ndk1::basic_string<char, std::__ndk1::char_traits<char>, std::__ndk1::allocator<char> >, int> >, std::__ndk1::__unordered_map_hasher<LevelProvider::LPFeatures, std::__ndk1::__hash_value_type<LevelProvider::LPFeatures, std::__ndk1::variant<std::__ndk1::basic_string<char, std::__ndk1::char_traits<char>, std::__ndk1::allocator<char> >, int> >, std::__ndk1::hash<LevelProvider::LPFeatures>, std::__ndk1::equal_to<LevelProvider::LPFeatures>, true>, std::__ndk1::__unordered_map_equal<LevelProvider::LPFeatures, std::__ndk1::__hash_value_type<LevelProvider::LPFeatures, std::__ndk1::variant<std::__ndk1::basic_string<char, std::__ndk1::char_traits<char>, std::__ndk1::allocator<char> >, int> >, std::__ndk1::equal_to<LevelProvider::LPFeatures>, std::__ndk1::hash<LevelProvider::LPFeatures>, true>, std::__ndk1::allocator<std::__ndk1::__hash_value_type<LevelProvider::LPFeatures, std::__ndk1::variant<std::__ndk1::basic_string<char, std::__ndk1::char_traits<char>, std::__ndk1::allocator<char> >, int> > > >::~__hash_table()
FUNC 1d73c 10c 0 std::__ndk1::__hash_table<std::__ndk1::__hash_value_type<LevelProvider::LPFeatures, std::__ndk1::variant<std::__ndk1::basic_string<char, std::__ndk1::char_traits<char>, std::__ndk1::allocator<char> >, int> >, std::__ndk1::__unordered_map_hasher<LevelProvider::LPFeatures, std::__ndk1::__hash_value_type<LevelProvider::LPFeatures, std::__ndk1::variant<std::__ndk1::basic_string<char, std::__ndk1::char_traits<char>, std::__ndk1::allocator<char> >, int> >, std::__ndk1::hash<LevelProvider::LPFeatures>, std::__ndk1::equal_to<LevelProvider::LPFeatures>, true>, std::__ndk1::__unordered_map_equal<LevelProvider::LPFeatures, std::__ndk1::__hash_value_type<LevelProvider::LPFeatures, std::__ndk1::variant<std::__ndk1::basic_string<char, std::__ndk1::char_traits<char>, std::__ndk1::allocator<char> >, int> >, std::__ndk1::equal_to<LevelProvider::LPFeatures>, std::__ndk1::hash<LevelProvider::LPFeatures>, true>, std::__ndk1::allocator<std::__ndk1::__hash_value_type<LevelProvider::LPFeatures, std::__ndk1::variant<std::__ndk1::basic_string<char, std::__ndk1::char_traits<char>, std::__ndk1::allocator<char> >, int> > > >::__do_rehash<true>(unsigned int)
FUNC 1d848 2dc 0 std::__ndk1::__hash_table<std::__ndk1::__hash_value_type<LevelProvider::LPFeatures, std::__ndk1::variant<std::__ndk1::basic_string<char, std::__ndk1::char_traits<char>, std::__ndk1::allocator<char> >, int> >, std::__ndk1::__unordered_map_hasher<LevelProvider::LPFeatures, std::__ndk1::__hash_value_type<LevelProvider::LPFeatures, std::__ndk1::variant<std::__ndk1::basic_string<char, std::__ndk1::char_traits<char>, std::__ndk1::allocator<char> >, int> >, std::__ndk1::hash<LevelProvider::LPFeatures>, std::__ndk1::equal_to<LevelProvider::LPFeatures>, true>, std::__ndk1::__unordered_map_equal<LevelProvider::LPFeatures, std::__ndk1::__hash_value_type<LevelProvider::LPFeatures, std::__ndk1::variant<std::__ndk1::basic_string<char, std::__ndk1::char_traits<char>, std::__ndk1::allocator<char> >, int> >, std::__ndk1::equal_to<LevelProvider::LPFeatures>, std::__ndk1::hash<LevelProvider::LPFeatures>, true>, std::__ndk1::allocator<std::__ndk1::__hash_value_type<LevelProvider::LPFeatures, std::__ndk1::variant<std::__ndk1::basic_string<char, std::__ndk1::char_traits<char>, std::__ndk1::allocator<char> >, int> > > >::__emplace_unique_key_args<LevelProvider::LPFeatures, std::__ndk1::pair<LevelProvider::LPFeatures const, std::__ndk1::variant<std::__ndk1::basic_string<char, std::__ndk1::char_traits<char>, std::__ndk1::allocator<char> >, int> > const&>(LevelProvider::LPFeatures const&, std::__ndk1::pair<LevelProvider::LPFeatures const, std::__ndk1::variant<std::__ndk1::basic_string<char, std::__ndk1::char_traits<char>, std::__ndk1::allocator<char> >, int> > const&)
FUNC 1db24 74 0 std::__ndk1::unique_ptr<std::__ndk1::__hash_node<std::__ndk1::__hash_value_type<LevelProvider::LPFeatures, std::__ndk1::variant<std::__ndk1::basic_string<char, std::__ndk1::char_traits<char>, std::__ndk1::allocator<char> >, int> >, void*>, std::__ndk1::__hash_node_destructor<std::__ndk1::allocator<std::__ndk1::__hash_node<std::__ndk1::__hash_value_type<LevelProvider::LPFeatures, std::__ndk1::variant<std::__ndk1::basic_string<char, std::__ndk1::char_traits<char>, std::__ndk1::allocator<char> >, int> >, void*> > > >::~unique_ptr[abi:ne180000]()
FUNC 1db98 20 0 std::__ndk1::__variant_detail::__visitation::__base::__dispatcher<(unsigned int)0, (unsigned int)0>::__dispatch[abi:ne180000]<std::__ndk1::__variant_detail::__ctor<std::__ndk1::__variant_detail::__traits<std::__ndk1::basic_string<char, std::__ndk1::char_traits<char>, std::__ndk1::allocator<char> >, int> >::__generic_construct[abi:ne180000]<std::__ndk1::__variant_detail::__copy_constructor<std::__ndk1::basic_string<char, std::__ndk1::char_traits<char>, std::__ndk1::allocator<char> >, (std::__ndk1::__variant_detail::_Trait)1> const&>(std::__ndk1::__variant_detail::__traits<std::__ndk1::basic_string<char, std::__ndk1::char_traits<char>, std::__ndk1::allocator<char> >, int>&, std::__ndk1::__variant_detail::__copy_constructor<std::__ndk1::basic_string<char, std::__ndk1::char_traits<char>, std::__ndk1::allocator<char> >, (std::__ndk1::__variant_detail::_Trait)1> const&)::{lambda(std::__ndk1::__variant_detail::__copy_constructor<std::__ndk1::basic_string<char, std::__ndk1::char_traits<char>, std::__ndk1::allocator<char> >, (std::__ndk1::__variant_detail::_Trait)1> const&, auto:2&&)#1}, std::__ndk1::__variant_detail::__base<(std::__ndk1::__variant_detail::__ctor<std::__ndk1::__variant_detail::__traits<std::__ndk1::basic_string<char, std::__ndk1::char_traits<char>, std::__ndk1::allocator<char> >, int> >::__generic_construct[abi:ne180000])1, std::__ndk1::allocator<char>, int>&, std::__ndk1::__variant_detail::__ctor<std::__ndk1::__variant_detail::__traits<std::__ndk1::basic_string<char, std::__ndk1::char_traits<char>, std::__ndk1::allocator<char> >, int> >::__generic_construct[abi:ne180000]<std::__ndk1::__variant_detail::__copy_constructor<std::__ndk1::basic_string<char, std::__ndk1::char_traits<char>, std::__ndk1::allocator<char> >, (std::__ndk1::__variant_detail::_Trait)1> const&>(std::__ndk1::__variant_detail::__traits<std::__ndk1::basic_string<char, std::__ndk1::char_traits<char>, std::__ndk1::allocator<char> >, int>&, std::__ndk1::__variant_detail::__copy_constructor<std::__ndk1::basic_string<char, std::__ndk1::char_traits<char>, std::__ndk1::allocator<char> >, (std::__ndk1::__variant_detail::_Trait)1> const&)::{lambda(std::__ndk1::__variant_detail::__copy_constructor<std::__ndk1::basic_string<char, std::__ndk1::char_traits<char>, std::__ndk1::allocator<char> >, (std::__ndk1::__variant_detail::_Trait)1> const&, auto:2&&)#1} const&>(std::__ndk1::__variant_detail::__copy_constructor<std::__ndk1::basic_string<char, std::__ndk1::char_traits<char>, std::__ndk1::allocator<char> >, (std::__ndk1::__variant_detail::_Trait)1> const&, std::__ndk1::__variant_detail::__base<(std::__ndk1::__variant_detail::__ctor<std::__ndk1::__variant_detail::__traits<std::__ndk1::basic_string<char, std::__ndk1::char_traits<char>, std::__ndk1::allocator<char> >, int> >::__generic_construct[abi:ne180000])1, std::__ndk1::allocator<char>, int>&, std::__ndk1::__variant_detail::__ctor<std::__ndk1::__variant_detail::__traits<std::__ndk1::basic_string<char, std::__ndk1::char_traits<char>, std::__ndk1::allocator<char> >, int> >::__generic_construct[abi:ne180000]<std::__ndk1::__variant_detail::__copy_constructor<std::__ndk1::basic_string<char, std::__ndk1::char_traits<char>, std::__ndk1::allocator<char> >, (std::__ndk1::__variant_detail::_Trait)1> const&>(std::__ndk1::__variant_detail::__traits<std::__ndk1::basic_string<char, std::__ndk1::char_traits<char>, std::__ndk1::allocator<char> >, int>&, std::__ndk1::__variant_detail::__copy_constructor<std::__ndk1::basic_string<char, std::__ndk1::char_traits<char>, std::__ndk1::allocator<char> >, (std::__ndk1::__variant_detail::_Trait)1> const&)::{lambda(std::__ndk1::__variant_detail::__copy_constructor<std::__ndk1::basic_string<char, std::__ndk1::char_traits<char>, std::__ndk1::allocator<char> >, (std::__ndk1::__variant_detail::_Trait)1> const&, auto:2&&)#1} const&)
FUNC 1dbb8 6 0 std::__ndk1::__variant_detail::__visitation::__base::__dispatcher<(unsigned int)1, (unsigned int)1>::__dispatch[abi:ne180000]<std::__ndk1::__variant_detail::__ctor<std::__ndk1::__variant_detail::__traits<std::__ndk1::basic_string<char, std::__ndk1::char_traits<char>, std::__ndk1::allocator<char> >, int> >::__generic_construct[abi:ne180000]<std::__ndk1::__variant_detail::__copy_constructor<std::__ndk1::basic_string<char, std::__ndk1::char_traits<char>, std::__ndk1::allocator<char> >, (std::__ndk1::__variant_detail::_Trait)1> const&>(std::__ndk1::__variant_detail::__traits<std::__ndk1::basic_string<char, std::__ndk1::char_traits<char>, std::__ndk1::allocator<char> >, int>&, std::__ndk1::__variant_detail::__copy_constructor<std::__ndk1::basic_string<char, std::__ndk1::char_traits<char>, std::__ndk1::allocator<char> >, (std::__ndk1::__variant_detail::_Trait)1> const&)::{lambda(std::__ndk1::__variant_detail::__copy_constructor<std::__ndk1::basic_string<char, std::__ndk1::char_traits<char>, std::__ndk1::allocator<char> >, (std::__ndk1::__variant_detail::_Trait)1> const&, auto:2&&)#1}, std::__ndk1::__variant_detail::__base<(std::__ndk1::__variant_detail::__ctor<std::__ndk1::__variant_detail::__traits<std::__ndk1::basic_string<char, std::__ndk1::char_traits<char>, std::__ndk1::allocator<char> >, int> >::__generic_construct[abi:ne180000])1, std::__ndk1::allocator<char>, int>&, std::__ndk1::__variant_detail::__ctor<std::__ndk1::__variant_detail::__traits<std::__ndk1::basic_string<char, std::__ndk1::char_traits<char>, std::__ndk1::allocator<char> >, int> >::__generic_construct[abi:ne180000]<std::__ndk1::__variant_detail::__copy_constructor<std::__ndk1::basic_string<char, std::__ndk1::char_traits<char>, std::__ndk1::allocator<char> >, (std::__ndk1::__variant_detail::_Trait)1> const&>(std::__ndk1::__variant_detail::__traits<std::__ndk1::basic_string<char, std::__ndk1::char_traits<char>, std::__ndk1::allocator<char> >, int>&, std::__ndk1::__variant_detail::__copy_constructor<std::__ndk1::basic_string<char, std::__ndk1::char_traits<char>, std::__ndk1::allocator<char> >, (std::__ndk1::__variant_detail::_Trait)1> const&)::{lambda(std::__ndk1::__variant_detail::__copy_constructor<std::__ndk1::basic_string<char, std::__ndk1::char_traits<char>, std::__ndk1::allocator<char> >, (std::__ndk1::__variant_detail::_Trait)1> const&, auto:2&&)#1} const&>(std::__ndk1::__variant_detail::__copy_constructor<std::__ndk1::basic_string<char, std::__ndk1::char_traits<char>, std::__ndk1::allocator<char> >, (std::__ndk1::__variant_detail::_Trait)1> const&, std::__ndk1::__variant_detail::__base<(std::__ndk1::__variant_detail::__ctor<std::__ndk1::__variant_detail::__traits<std::__ndk1::basic_string<char, std::__ndk1::char_traits<char>, std::__ndk1::allocator<char> >, int> >::__generic_construct[abi:ne180000])1, std::__ndk1::allocator<char>, int>&, std::__ndk1::__variant_detail::__ctor<std::__ndk1::__variant_detail::__traits<std::__ndk1::basic_string<char, std::__ndk1::char_traits<char>, std::__ndk1::allocator<char> >, int> >::__generic_construct[abi:ne180000]<std::__ndk1::__variant_detail::__copy_constructor<std::__ndk1::basic_string<char, std::__ndk1::char_traits<char>, std::__ndk1::allocator<char> >, (std::__ndk1::__variant_detail::_Trait)1> const&>(std::__ndk1::__variant_detail::__traits<std::__ndk1::basic_string<char, std::__ndk1::char_traits<char>, std::__ndk1::allocator<char> >, int>&, std::__ndk1::__variant_detail::__copy_constructor<std::__ndk1::basic_string<char, std::__ndk1::char_traits<char>, std::__ndk1::allocator<char> >, (std::__ndk1::__variant_detail::_Trait)1> const&)::{lambda(std::__ndk1::__variant_detail::__copy_constructor<std::__ndk1::basic_string<char, std::__ndk1::char_traits<char>, std::__ndk1::allocator<char> >, (std::__ndk1::__variant_detail::_Trait)1> const&, auto:2&&)#1} const&)
FUNC 1dbc0 60 0 std::__ndk1::__variant_detail::__dtor<std::__ndk1::__variant_detail::__traits<std::__ndk1::basic_string<char, std::__ndk1::char_traits<char>, std::__ndk1::allocator<char> >, int>, (std::__ndk1::__variant_detail::_Trait)1>::~__dtor()
FUNC 1dc20 78 0 std::__ndk1::__hash_table<std::__ndk1::__hash_value_type<LevelProvider::LPFeatures, std::__ndk1::variant<std::__ndk1::basic_string<char, std::__ndk1::char_traits<char>, std::__ndk1::allocator<char> >, int> >, std::__ndk1::__unordered_map_hasher<LevelProvider::LPFeatures, std::__ndk1::__hash_value_type<LevelProvider::LPFeatures, std::__ndk1::variant<std::__ndk1::basic_string<char, std::__ndk1::char_traits<char>, std::__ndk1::allocator<char> >, int> >, std::__ndk1::hash<LevelProvider::LPFeatures>, std::__ndk1::equal_to<LevelProvider::LPFeatures>, true>, std::__ndk1::__unordered_map_equal<LevelProvider::LPFeatures, std::__ndk1::__hash_value_type<LevelProvider::LPFeatures, std::__ndk1::variant<std::__ndk1::basic_string<char, std::__ndk1::char_traits<char>, std::__ndk1::allocator<char> >, int> >, std::__ndk1::equal_to<LevelProvider::LPFeatures>, std::__ndk1::hash<LevelProvider::LPFeatures>, true>, std::__ndk1::allocator<std::__ndk1::__hash_value_type<LevelProvider::LPFeatures, std::__ndk1::variant<std::__ndk1::basic_string<char, std::__ndk1::char_traits<char>, std::__ndk1::allocator<char> >, int> > > >::__deallocate_node(std::__ndk1::__hash_node_base<std::__ndk1::__hash_node<std::__ndk1::__hash_value_type<LevelProvider::LPFeatures, std::__ndk1::variant<std::__ndk1::basic_string<char, std::__ndk1::char_traits<char>, std::__ndk1::allocator<char> >, int> >, void*>*>*)
FUNC 1dc98 2a4 0 std::__ndk1::__hash_table<std::__ndk1::__hash_value_type<LevelProvider::LPFeatures, std::__ndk1::variant<std::__ndk1::basic_string<char, std::__ndk1::char_traits<char>, std::__ndk1::allocator<char> >, int> >, std::__ndk1::__unordered_map_hasher<LevelProvider::LPFeatures, std::__ndk1::__hash_value_type<LevelProvider::LPFeatures, std::__ndk1::variant<std::__ndk1::basic_string<char, std::__ndk1::char_traits<char>, std::__ndk1::allocator<char> >, int> >, std::__ndk1::hash<LevelProvider::LPFeatures>, std::__ndk1::equal_to<LevelProvider::LPFeatures>, true>, std::__ndk1::__unordered_map_equal<LevelProvider::LPFeatures, std::__ndk1::__hash_value_type<LevelProvider::LPFeatures, std::__ndk1::variant<std::__ndk1::basic_string<char, std::__ndk1::char_traits<char>, std::__ndk1::allocator<char> >, int> >, std::__ndk1::equal_to<LevelProvider::LPFeatures>, std::__ndk1::hash<LevelProvider::LPFeatures>, true>, std::__ndk1::allocator<std::__ndk1::__hash_value_type<LevelProvider::LPFeatures, std::__ndk1::variant<std::__ndk1::basic_string<char, std::__ndk1::char_traits<char>, std::__ndk1::allocator<char> >, int> > > >::__emplace_unique_key_args<LevelProvider::LPFeatures, std::__ndk1::piecewise_construct_t const&, std::__ndk1::tuple<LevelProvider::LPFeatures&&>, std::__ndk1::tuple<> >(LevelProvider::LPFeatures const&, std::__ndk1::piecewise_construct_t const&, std::__ndk1::tuple<LevelProvider::LPFeatures&&>, std::__ndk1::tuple<>)
FUNC 1df3c 34 0 std::__ndk1::__function::__func<GDHistoryProvider::downloadLevel(std::__ndk1::function<void (LevelProvider*, GJGameLevel*)>)::$_0, std::__ndk1::allocator<GDHistoryProvider::downloadLevel(std::__ndk1::function<void (LevelProvider*, GJGameLevel*)>)::$_0>, void (GeodeNetwork*)>::~__func()
FUNC 1df70 38 0 std::__ndk1::__function::__func<GDHistoryProvider::downloadLevel(std::__ndk1::function<void (LevelProvider*, GJGameLevel*)>)::$_0, std::__ndk1::allocator<GDHistoryProvider::downloadLevel(std::__ndk1::function<void (LevelProvider*, GJGameLevel*)>)::$_0>, void (GeodeNetwork*)>::~__func()
FUNC 1dfa8 5c 0 std::__ndk1::__function::__func<GDHistoryProvider::downloadLevel(std::__ndk1::function<void (LevelProvider*, GJGameLevel*)>)::$_0, std::__ndk1::allocator<GDHistoryProvider::downloadLevel(std::__ndk1::function<void (LevelProvider*, GJGameLevel*)>)::$_0>, void (GeodeNetwork*)>::__clone() const
FUNC 1e004 4c 0 std::__ndk1::__function::__func<GDHistoryProvider::downloadLevel(std::__ndk1::function<void (LevelProvider*, GJGameLevel*)>)::$_0, std::__ndk1::allocator<GDHistoryProvider::downloadLevel(std::__ndk1::function<void (LevelProvider*, GJGameLevel*)>)::$_0>, void (GeodeNetwork*)>::__clone(std::__ndk1::__function::__base<void (GeodeNetwork*)>*) const
FUNC 1e050 1e 0 std::__ndk1::__function::__func<GDHistoryProvider::downloadLevel(std::__ndk1::function<void (LevelProvider*, GJGameLevel*)>)::$_0, std::__ndk1::allocator<GDHistoryProvider::downloadLevel(std::__ndk1::function<void (LevelProvider*, GJGameLevel*)>)::$_0>, void (GeodeNetwork*)>::destroy()
FUNC 1e06e 2a 0 std::__ndk1::__function::__func<GDHistoryProvider::downloadLevel(std::__ndk1::function<void (LevelProvider*, GJGameLevel*)>)::$_0, std::__ndk1::allocator<GDHistoryProvider::downloadLevel(std::__ndk1::function<void (LevelProvider*, GJGameLevel*)>)::$_0>, void (GeodeNetwork*)>::destroy_deallocate()
FUNC 1e098 168 0 std::__ndk1::__function::__func<GDHistoryProvider::downloadLevel(std::__ndk1::function<void (LevelProvider*, GJGameLevel*)>)::$_0, std::__ndk1::allocator<GDHistoryProvider::downloadLevel(std::__ndk1::function<void (LevelProvider*, GJGameLevel*)>)::$_0>, void (GeodeNetwork*)>::operator()(GeodeNetwork*&&)
FUNC 1e200 18 0 std::__ndk1::__function::__func<GDHistoryProvider::downloadLevel(std::__ndk1::function<void (LevelProvider*, GJGameLevel*)>)::$_0, std::__ndk1::allocator<GDHistoryProvider::downloadLevel(std::__ndk1::function<void (LevelProvider*, GJGameLevel*)>)::$_0>, void (GeodeNetwork*)>::target(std::type_info const&) const
FUNC 1e218 c 0 std::__ndk1::__function::__func<GDHistoryProvider::downloadLevel(std::__ndk1::function<void (LevelProvider*, GJGameLevel*)>)::$_0, std::__ndk1::allocator<GDHistoryProvider::downloadLevel(std::__ndk1::function<void (LevelProvider*, GJGameLevel*)>)::$_0>, void (GeodeNetwork*)>::target_type() const
FUNC 1e224 bc 0 std::__ndk1::__function::__func<GDHistoryProvider::downloadLevel(std::__ndk1::function<void (LevelProvider*, GJGameLevel*)>)::$_1, std::__ndk1::allocator<GDHistoryProvider::downloadLevel(std::__ndk1::function<void (LevelProvider*, GJGameLevel*)>)::$_1>, void (GeodeNetwork*)>::~__func()
FUNC 1e2e0 c0 0 std::__ndk1::__function::__func<GDHistoryProvider::downloadLevel(std::__ndk1::function<void (LevelProvider*, GJGameLevel*)>)::$_1, std::__ndk1::allocator<GDHistoryProvider::downloadLevel(std::__ndk1::function<void (LevelProvider*, GJGameLevel*)>)::$_1>, void (GeodeNetwork*)>::~__func()
FUNC 1e3a0 8c 0 std::__ndk1::__function::__func<GDHistoryProvider::downloadLevel(std::__ndk1::function<void (LevelProvider*, GJGameLevel*)>)::$_1, std::__ndk1::allocator<GDHistoryProvider::downloadLevel(std::__ndk1::function<void (LevelProvider*, GJGameLevel*)>)::$_1>, void (GeodeNetwork*)>::__clone() const
FUNC 1e42c 7c 0 std::__ndk1::__function::__func<GDHistoryProvider::downloadLevel(std::__ndk1::function<void (LevelProvider*, GJGameLevel*)>)::$_1, std::__ndk1::allocator<GDHistoryProvider::downloadLevel(std::__ndk1::function<void (LevelProvider*, GJGameLevel*)>)::$_1>, void (GeodeNetwork*)>::__clone(std::__ndk1::__function::__base<void (GeodeNetwork*)>*) const
FUNC 1e4a8 6 0 std::__ndk1::__function::__func<GDHistoryProvider::downloadLevel(std::__ndk1::function<void (LevelProvider*, GJGameLevel*)>)::$_1, std::__ndk1::allocator<GDHistoryProvider::downloadLevel(std::__ndk1::function<void (LevelProvider*, GJGameLevel*)>)::$_1>, void (GeodeNetwork*)>::destroy()
FUNC 1e4ae 16 0 std::__ndk1::__function::__func<GDHistoryProvider::downloadLevel(std::__ndk1::function<void (LevelProvider*, GJGameLevel*)>)::$_1, std::__ndk1::allocator<GDHistoryProvider::downloadLevel(std::__ndk1::function<void (LevelProvider*, GJGameLevel*)>)::$_1>, void (GeodeNetwork*)>::destroy_deallocate()
FUNC 1e4c4 2d4 0 std::__ndk1::__function::__func<GDHistoryProvider::downloadLevel(std::__ndk1::function<void (LevelProvider*, GJGameLevel*)>)::$_1, std::__ndk1::allocator<GDHistoryProvider::downloadLevel(std::__ndk1::function<void (LevelProvider*, GJGameLevel*)>)::$_1>, void (GeodeNetwork*)>::operator()(GeodeNetwork*&&)
FUNC 1e798 18 0 std::__ndk1::__function::__func<GDHistoryProvider::downloadLevel(std::__ndk1::function<void (LevelProvider*, GJGameLevel*)>)::$_1, std::__ndk1::allocator<GDHistoryProvider::downloadLevel(std::__ndk1::function<void (LevelProvider*, GJGameLevel*)>)::$_1>, void (GeodeNetwork*)>::target(std::type_info const&) const
FUNC 1e7b0 c 0 std::__ndk1::__function::__func<GDHistoryProvider::downloadLevel(std::__ndk1::function<void (LevelProvider*, GJGameLevel*)>)::$_1, std::__ndk1::allocator<GDHistoryProvider::downloadLevel(std::__ndk1::function<void (LevelProvider*, GJGameLevel*)>)::$_1>, void (GeodeNetwork*)>::target_type() const
FUNC 1e7bc ac 0 std::__ndk1::__function::__alloc_func<GDHistoryProvider::downloadLevel(std::__ndk1::function<void (LevelProvider*, GJGameLevel*)>)::$_1, std::__ndk1::allocator<GDHistoryProvider::downloadLevel(std::__ndk1::function<void (LevelProvider*, GJGameLevel*)>)::$_1>, void (GeodeNetwork*)>::destroy[abi:ne180000]()
FUNC 1e868 1c4 0 std::__ndk1::__hash_table<std::__ndk1::__hash_value_type<LevelProvider::LPFeatures, std::__ndk1::variant<std::__ndk1::basic_string<char, std::__ndk1::char_traits<char>, std::__ndk1::allocator<char> >, int> >, std::__ndk1::__unordered_map_hasher<LevelProvider::LPFeatures, std::__ndk1::__hash_value_type<LevelProvider::LPFeatures, std::__ndk1::variant<std::__ndk1::basic_string<char, std::__ndk1::char_traits<char>, std::__ndk1::allocator<char> >, int> >, std::__ndk1::hash<LevelProvider::LPFeatures>, std::__ndk1::equal_to<LevelProvider::LPFeatures>, true>, std::__ndk1::__unordered_map_equal<LevelProvider::LPFeatures, std::__ndk1::__hash_value_type<LevelProvider::LPFeatures, std::__ndk1::variant<std::__ndk1::basic_string<char, std::__ndk1::char_traits<char>, std::__ndk1::allocator<char> >, int> >, std::__ndk1::equal_to<LevelProvider::LPFeatures>, std::__ndk1::hash<LevelProvider::LPFeatures>, true>, std::__ndk1::allocator<std::__ndk1::__hash_value_type<LevelProvider::LPFeatures, std::__ndk1::variant<std::__ndk1::basic_string<char, std::__ndk1::char_traits<char>, std::__ndk1::allocator<char> >, int> > > >::__assign_multi<std::__ndk1::__hash_const_iterator<std::__ndk1::__hash_node<std::__ndk1::__hash_value_type<LevelProvider::LPFeatures, std::__ndk1::variant<std::__ndk1::basic_string<char, std::__ndk1::char_traits<char>, std::__ndk1::allocator<char> >, int> >, void*>*> >(std::__ndk1::__hash_const_iterator<std::__ndk1::__hash_node<std::__ndk1::__hash_value_type<LevelProvider::LPFeatures, std::__ndk1::variant<std::__ndk1::basic_string<char, std::__ndk1::char_traits<char>, std::__ndk1::allocator<char> >, int> >, void*>*>, std::__ndk1::__hash_const_iterator<std::__ndk1::__hash_node<std::__ndk1::__hash_value_type<LevelProvider::LPFeatures, std::__ndk1::variant<std::__ndk1::basic_string<char, std::__ndk1::char_traits<char>, std::__ndk1::allocator<char> >, int> >, void*>*>)
FUNC 1ea2c 3dc 0 std::__ndk1::__hash_table<std::__ndk1::__hash_value_type<LevelProvider::LPFeatures, std::__ndk1::variant<std::__ndk1::basic_string<char, std::__ndk1::char_traits<char>, std::__ndk1::allocator<char> >, int> >, std::__ndk1::__unordered_map_hasher<LevelProvider::LPFeatures, std::__ndk1::__hash_value_type<LevelProvider::LPFeatures, std::__ndk1::variant<std::__ndk1::basic_string<char, std::__ndk1::char_traits<char>, std::__ndk1::allocator<char> >, int> >, std::__ndk1::hash<LevelProvider::LPFeatures>, std::__ndk1::equal_to<LevelProvider::LPFeatures>, true>, std::__ndk1::__unordered_map_equal<LevelProvider::LPFeatures, std::__ndk1::__hash_value_type<LevelProvider::LPFeatures, std::__ndk1::variant<std::__ndk1::basic_string<char, std::__ndk1::char_traits<char>, std::__ndk1::allocator<char> >, int> >, std::__ndk1::equal_to<LevelProvider::LPFeatures>, std::__ndk1::hash<LevelProvider::LPFeatures>, true>, std::__ndk1::allocator<std::__ndk1::__hash_value_type<LevelProvider::LPFeatures, std::__ndk1::variant<std::__ndk1::basic_string<char, std::__ndk1::char_traits<char>, std::__ndk1::allocator<char> >, int> > > >::__node_insert_multi(std::__ndk1::__hash_node<std::__ndk1::__hash_value_type<LevelProvider::LPFeatures, std::__ndk1::variant<std::__ndk1::basic_string<char, std::__ndk1::char_traits<char>, std::__ndk1::allocator<char> >, int> >, void*>*)
FUNC 1ee08 120 0 std::__ndk1::__variant_detail::__visitation::__base::__dispatcher<(unsigned int)0, (unsigned int)0>::__dispatch[abi:ne180000]<std::__ndk1::__variant_detail::__assignment<std::__ndk1::__variant_detail::__traits<std::__ndk1::basic_string<char, std::__ndk1::char_traits<char>, std::__ndk1::allocator<char> >, int> >::__generic_assign[abi:ne180000]<std::__ndk1::__variant_detail::__copy_assignment<std::__ndk1::basic_string<char, std::__ndk1::char_traits<char>, std::__ndk1::allocator<char> >, (std::__ndk1::__variant_detail::_Trait)1> const&>(std::__ndk1::__variant_detail::__copy_assignment<std::__ndk1::basic_string<char, std::__ndk1::char_traits<char>, std::__ndk1::allocator<char> >, (std::__ndk1::__variant_detail::_Trait)1> const&)::{lambda(std::__ndk1::__variant_detail::__copy_assignment<std::__ndk1::basic_string<char, std::__ndk1::char_traits<char>, std::__ndk1::allocator<char> >, (std::__ndk1::__variant_detail::_Trait)1> const&, auto:2&&)#1}, std::__ndk1::__variant_detail::__base<(std::__ndk1::__variant_detail::__assignment<std::__ndk1::__variant_detail::__traits<std::__ndk1::basic_string<char, std::__ndk1::char_traits<char>, std::__ndk1::allocator<char> >, int> >::__generic_assign[abi:ne180000])1, std::__ndk1::allocator<char>, int>&, std::__ndk1::__variant_detail::__assignment<std::__ndk1::__variant_detail::__traits<std::__ndk1::basic_string<char, std::__ndk1::char_traits<char>, std::__ndk1::allocator<char> >, int> >::__generic_assign[abi:ne180000]<std::__ndk1::__variant_detail::__copy_assignment<std::__ndk1::basic_string<char, std::__ndk1::char_traits<char>, std::__ndk1::allocator<char> >, (std::__ndk1::__variant_detail::_Trait)1> const&>(std::__ndk1::__variant_detail::__copy_assignment<std::__ndk1::basic_string<char, std::__ndk1::char_traits<char>, std::__ndk1::allocator<char> >, (std::__ndk1::__variant_detail::_Trait)1> const&)::{lambda(std::__ndk1::__variant_detail::__copy_assignment<std::__ndk1::basic_string<char, std::__ndk1::char_traits<char>, std::__ndk1::allocator<char> >, (std::__ndk1::__variant_detail::_Trait)1> const&, auto:2&&)#1} const&>(std::__ndk1::__variant_detail::__copy_assignment<std::__ndk1::basic_string<char, std::__ndk1::char_traits<char>, std::__ndk1::allocator<char> >, (std::__ndk1::__variant_detail::_Trait)1> const, std::__ndk1::__variant_detail::__base<(std::__ndk1::__variant_detail::__assignment<std::__ndk1::__variant_detail::__traits<std::__ndk1::basic_string<char, std::__ndk1::char_traits<char>, std::__ndk1::allocator<char> >, int> >::__generic_assign[abi:ne180000])1, std::__ndk1::allocator<char>, int>&, std::__ndk1::__variant_detail::__assignment<std::__ndk1::__variant_detail::__traits<std::__ndk1::basic_string<char, std::__ndk1::char_traits<char>, std::__ndk1::allocator<char> >, int> >::__generic_assign[abi:ne180000]<std::__ndk1::__variant_detail::__copy_assignment<std::__ndk1::basic_string<char, std::__ndk1::char_traits<char>, std::__ndk1::allocator<char> >, (std::__ndk1::__variant_detail::_Trait)1> const&>(std::__ndk1::__variant_detail::__copy_assignment<std::__ndk1::basic_string<char, std::__ndk1::char_traits<char>, std::__ndk1::allocator<char> >, (std::__ndk1::__variant_detail::_Trait)1> const&)::{lambda(std::__ndk1::__variant_detail::__copy_assignment<std::__ndk1::basic_string<char, std::__ndk1::char_traits<char>, std::__ndk1::allocator<char> >, (std::__ndk1::__variant_detail::_Trait)1> const&, auto:2&&)#1} const&)
FUNC 1ef28 74 0 std::__ndk1::__variant_detail::__visitation::__base::__dispatcher<(unsigned int)1, (unsigned int)1>::__dispatch[abi:ne180000]<std::__ndk1::__variant_detail::__assignment<std::__ndk1::__variant_detail::__traits<std::__ndk1::basic_string<char, std::__ndk1::char_traits<char>, std::__ndk1::allocator<char> >, int> >::__generic_assign[abi:ne180000]<std::__ndk1::__variant_detail::__copy_assignment<std::__ndk1::basic_string<char, std::__ndk1::char_traits<char>, std::__ndk1::allocator<char> >, (std::__ndk1::__variant_detail::_Trait)1> const&>(std::__ndk1::__variant_detail::__copy_assignment<std::__ndk1::basic_string<char, std::__ndk1::char_traits<char>, std::__ndk1::allocator<char> >, (std::__ndk1::__variant_detail::_Trait)1> const&)::{lambda(std::__ndk1::__variant_detail::__copy_assignment<std::__ndk1::basic_string<char, std::__ndk1::char_traits<char>, std::__ndk1::allocator<char> >, (std::__ndk1::__variant_detail::_Trait)1> const&, auto:2&&)#1}, std::__ndk1::__variant_detail::__base<(std::__ndk1::__variant_detail::__assignment<std::__ndk1::__variant_detail::__traits<std::__ndk1::basic_string<char, std::__ndk1::char_traits<char>, std::__ndk1::allocator<char> >, int> >::__generic_assign[abi:ne180000])1, std::__ndk1::allocator<char>, int>&, std::__ndk1::__variant_detail::__assignment<std::__ndk1::__variant_detail::__traits<std::__ndk1::basic_string<char, std::__ndk1::char_traits<char>, std::__ndk1::allocator<char> >, int> >::__generic_assign[abi:ne180000]<std::__ndk1::__variant_detail::__copy_assignment<std::__ndk1::basic_string<char, std::__ndk1::char_traits<char>, std::__ndk1::allocator<char> >, (std::__ndk1::__variant_detail::_Trait)1> const&>(std::__ndk1::__variant_detail::__copy_assignment<std::__ndk1::basic_string<char, std::__ndk1::char_traits<char>, std::__ndk1::allocator<char> >, (std::__ndk1::__variant_detail::_Trait)1> const&)::{lambda(std::__ndk1::__variant_detail::__copy_assignment<std::__ndk1::basic_string<char, std::__ndk1::char_traits<char>, std::__ndk1::allocator<char> >, (std::__ndk1::__variant_detail::_Trait)1> const&, auto:2&&)#1} const&>(std::__ndk1::__variant_detail::__copy_assignment<std::__ndk1::basic_string<char, std::__ndk1::char_traits<char>, std::__ndk1::allocator<char> >, (std::__ndk1::__variant_detail::_Trait)1> const, std::__ndk1::__variant_detail::__base<(std::__ndk1::__variant_detail::__assignment<std::__ndk1::__variant_detail::__traits<std::__ndk1::basic_string<char, std::__ndk1::char_traits<char>, std::__ndk1::allocator<char> >, int> >::__generic_assign[abi:ne180000])1, std::__ndk1::allocator<char>, int>&, std::__ndk1::__variant_detail::__assignment<std::__ndk1::__variant_detail::__traits<std::__ndk1::basic_string<char, std::__ndk1::char_traits<char>, std::__ndk1::allocator<char> >, int> >::__generic_assign[abi:ne180000]<std::__ndk1::__variant_detail::__copy_assignment<std::__ndk1::basic_string<char, std::__ndk1::char_traits<char>, std::__ndk1::allocator<char> >, (std::__ndk1::__variant_detail::_Trait)1> const&>(std::__ndk1::__variant_detail::__copy_assignment<std::__ndk1::basic_string<char, std::__ndk1::char_traits<char>, std::__ndk1::allocator<char> >, (std::__ndk1::__variant_detail::_Trait)1> const&)::{lambda(std::__ndk1::__variant_detail::__copy_assignment<std::__ndk1::basic_string<char, std::__ndk1::char_traits<char>, std::__ndk1::allocator<char> >, (std::__ndk1::__variant_detail::_Trait)1> const&, auto:2&&)#1} const&)
FUNC 1ef9c 208 0 std::__ndk1::vector<LevelProvider::Cached, std::__ndk1::allocator<LevelProvider::Cached> >::__push_back_slow_path<LevelProvider::Cached const&>(LevelProvider::Cached const&)
FUNC 1f1a4 2a 0 std::__ndk1::__split_buffer<LevelProvider::Cached, std::__ndk1::allocator<LevelProvider::Cached>&>::~__split_buffer()
FUNC 1f1d0 10 0 std::__ndk1::vector<LevelProvider::Cached, std::__ndk1::allocator<LevelProvider::Cached> >::__throw_length_error[abi:ne180000]() const
FUNC 1f1e0 34 0 std::__ndk1::__function::__func<GDHistoryProvider::downloadLevel(std::__ndk1::function<void (LevelProvider*, GJGameLevel*)>)::$_2, std::__ndk1::allocator<GDHistoryProvider::downloadLevel(std::__ndk1::function<void (LevelProvider*, GJGameLevel*)>)::$_2>, void (GeodeNetwork*)>::~__func()
FUNC 1f214 38 0 std::__ndk1::__function::__func<GDHistoryProvider::downloadLevel(std::__ndk1::function<void (LevelProvider*, GJGameLevel*)>)::$_2, std::__ndk1::allocator<GDHistoryProvider::downloadLevel(std::__ndk1::function<void (LevelProvider*, GJGameLevel*)>)::$_2>, void (GeodeNetwork*)>::~__func()
FUNC 1f24c 5c 0 std::__ndk1::__function::__func<GDHistoryProvider::downloadLevel(std::__ndk1::function<void (LevelProvider*, GJGameLevel*)>)::$_2, std::__ndk1::allocator<GDHistoryProvider::downloadLevel(std::__ndk1::function<void (LevelProvider*, GJGameLevel*)>)::$_2>, void (GeodeNetwork*)>::__clone() const
FUNC 1f2a8 4c 0 std::__ndk1::__function::__func<GDHistoryProvider::downloadLevel(std::__ndk1::function<void (LevelProvider*, GJGameLevel*)>)::$_2, std::__ndk1::allocator<GDHistoryProvider::downloadLevel(std::__ndk1::function<void (LevelProvider*, GJGameLevel*)>)::$_2>, void (GeodeNetwork*)>::__clone(std::__ndk1::__function::__base<void (GeodeNetwork*)>*) const
FUNC 1f2f4 1e 0 std::__ndk1::__function::__func<GDHistoryProvider::downloadLevel(std::__ndk1::function<void (LevelProvider*, GJGameLevel*)>)::$_2, std::__ndk1::allocator<GDHistoryProvider::downloadLevel(std::__ndk1::function<void (LevelProvider*, GJGameLevel*)>)::$_2>, void (GeodeNetwork*)>::destroy()
FUNC 1f312 2a 0 std::__ndk1::__function::__func<GDHistoryProvider::downloadLevel(std::__ndk1::function<void (LevelProvider*, GJGameLevel*)>)::$_2, std::__ndk1::allocator<GDHistoryProvider::downloadLevel(std::__ndk1::function<void (LevelProvider*, GJGameLevel*)>)::$_2>, void (GeodeNetwork*)>::destroy_deallocate()
FUNC 1f33c 168 0 std::__ndk1::__function::__func<GDHistoryProvider::downloadLevel(std::__ndk1::function<void (LevelProvider*, GJGameLevel*)>)::$_2, std::__ndk1::allocator<GDHistoryProvider::downloadLevel(std::__ndk1::function<void (LevelProvider*, GJGameLevel*)>)::$_2>, void (GeodeNetwork*)>::operator()(GeodeNetwork*&&)
FUNC 1f4a4 18 0 std::__ndk1::__function::__func<GDHistoryProvider::downloadLevel(std::__ndk1::function<void (LevelProvider*, GJGameLevel*)>)::$_2, std::__ndk1::allocator<GDHistoryProvider::downloadLevel(std::__ndk1::function<void (LevelProvider*, GJGameLevel*)>)::$_2>, void (GeodeNetwork*)>::target(std::type_info const&) const
FUNC 1f4bc c 0 std::__ndk1::__function::__func<GDHistoryProvider::downloadLevel(std::__ndk1::function<void (LevelProvider*, GJGameLevel*)>)::$_2, std::__ndk1::allocator<GDHistoryProvider::downloadLevel(std::__ndk1::function<void (LevelProvider*, GJGameLevel*)>)::$_2>, void (GeodeNetwork*)>::target_type() const
FUNC 1f4c8 bc 0 std::__ndk1::__function::__func<GDHistoryProvider::downloadLevel(std::__ndk1::function<void (LevelProvider*, GJGameLevel*)>)::$_3, std::__ndk1::allocator<GDHistoryProvider::downloadLevel(std::__ndk1::function<void (LevelProvider*, GJGameLevel*)>)::$_3>, void (GeodeNetwork*)>::~__func()
FUNC 1f584 c0 0 std::__ndk1::__function::__func<GDHistoryProvider::downloadLevel(std::__ndk1::function<void (LevelProvider*, GJGameLevel*)>)::$_3, std::__ndk1::allocator<GDHistoryProvider::downloadLevel(std::__ndk1::function<void (LevelProvider*, GJGameLevel*)>)::$_3>, void (GeodeNetwork*)>::~__func()
FUNC 1f644 8c 0 std::__ndk1::__function::__func<GDHistoryProvider::downloadLevel(std::__ndk1::function<void (LevelProvider*, GJGameLevel*)>)::$_3, std::__ndk1::allocator<GDHistoryProvider::downloadLevel(std::__ndk1::function<void (LevelProvider*, GJGameLevel*)>)::$_3>, void (GeodeNetwork*)>::__clone() const
FUNC 1f6d0 7c 0 std::__ndk1::__function::__func<GDHistoryProvider::downloadLevel(std::__ndk1::function<void (LevelProvider*, GJGameLevel*)>)::$_3, std::__ndk1::allocator<GDHistoryProvider::downloadLevel(std::__ndk1::function<void (LevelProvider*, GJGameLevel*)>)::$_3>, void (GeodeNetwork*)>::__clone(std::__ndk1::__function::__base<void (GeodeNetwork*)>*) const
FUNC 1f74c 6 0 std::__ndk1::__function::__func<GDHistoryProvider::downloadLevel(std::__ndk1::function<void (LevelProvider*, GJGameLevel*)>)::$_3, std::__ndk1::allocator<GDHistoryProvider::downloadLevel(std::__ndk1::function<void (LevelProvider*, GJGameLevel*)>)::$_3>, void (GeodeNetwork*)>::destroy()
FUNC 1f752 16 0 std::__ndk1::__function::__func<GDHistoryProvider::downloadLevel(std::__ndk1::function<void (LevelProvider*, GJGameLevel*)>)::$_3, std::__ndk1::allocator<GDHistoryProvider::downloadLevel(std::__ndk1::function<void (LevelProvider*, GJGameLevel*)>)::$_3>, void (GeodeNetwork*)>::destroy_deallocate()
FUNC 1f768 2d4 0 std::__ndk1::__function::__func<GDHistoryProvider::downloadLevel(std::__ndk1::function<void (LevelProvider*, GJGameLevel*)>)::$_3, std::__ndk1::allocator<GDHistoryProvider::downloadLevel(std::__ndk1::function<void (LevelProvider*, GJGameLevel*)>)::$_3>, void (GeodeNetwork*)>::operator()(GeodeNetwork*&&)
FUNC 1fa3c 18 0 std::__ndk1::__function::__func<GDHistoryProvider::downloadLevel(std::__ndk1::function<void (LevelProvider*, GJGameLevel*)>)::$_3, std::__ndk1::allocator<GDHistoryProvider::downloadLevel(std::__ndk1::function<void (LevelProvider*, GJGameLevel*)>)::$_3>, void (GeodeNetwork*)>::target(std::type_info const&) const
FUNC 1fa54 c 0 std::__ndk1::__function::__func<GDHistoryProvider::downloadLevel(std::__ndk1::function<void (LevelProvider*, GJGameLevel*)>)::$_3, std::__ndk1::allocator<GDHistoryProvider::downloadLevel(std::__ndk1::function<void (LevelProvider*, GJGameLevel*)>)::$_3>, void (GeodeNetwork*)>::target_type() const
FUNC 1fa60 ac 0 std::__ndk1::__function::__alloc_func<GDHistoryProvider::downloadLevel(std::__ndk1::function<void (LevelProvider*, GJGameLevel*)>)::$_3, std::__ndk1::allocator<GDHistoryProvider::downloadLevel(std::__ndk1::function<void (LevelProvider*, GJGameLevel*)>)::$_3>, void (GeodeNetwork*)>::destroy[abi:ne180000]()
FUNC 1fb0c 26a 0 std::__ndk1::__hash_table<std::__ndk1::__hash_value_type<LevelProvider::LPFeatures, bool>, std::__ndk1::__unordered_map_hasher<LevelProvider::LPFeatures, std::__ndk1::__hash_value_type<LevelProvider::LPFeatures, bool>, std::__ndk1::hash<LevelProvider::LPFeatures>, std::__ndk1::equal_to<LevelProvider::LPFeatures>, true>, std::__ndk1::__unordered_map_equal<LevelProvider::LPFeatures, std::__ndk1::__hash_value_type<LevelProvider::LPFeatures, bool>, std::__ndk1::equal_to<LevelProvider::LPFeatures>, std::__ndk1::hash<LevelProvider::LPFeatures>, true>, std::__ndk1::allocator<std::__ndk1::__hash_value_type<LevelProvider::LPFeatures, bool> > >::__emplace_unique_key_args<LevelProvider::LPFeatures, std::__ndk1::piecewise_construct_t const&, std::__ndk1::tuple<LevelProvider::LPFeatures&&>, std::__ndk1::tuple<> >(LevelProvider::LPFeatures const&, std::__ndk1::piecewise_construct_t const&, std::__ndk1::tuple<LevelProvider::LPFeatures&&>, std::__ndk1::tuple<>)
FUNC 1fd76 10c 0 std::__ndk1::__hash_table<std::__ndk1::__hash_value_type<LevelProvider::LPFeatures, bool>, std::__ndk1::__unordered_map_hasher<LevelProvider::LPFeatures, std::__ndk1::__hash_value_type<LevelProvider::LPFeatures, bool>, std::__ndk1::hash<LevelProvider::LPFeatures>, std::__ndk1::equal_to<LevelProvider::LPFeatures>, true>, std::__ndk1::__unordered_map_equal<LevelProvider::LPFeatures, std::__ndk1::__hash_value_type<LevelProvider::LPFeatures, bool>, std::__ndk1::equal_to<LevelProvider::LPFeatures>, std::__ndk1::hash<LevelProvider::LPFeatures>, true>, std::__ndk1::allocator<std::__ndk1::__hash_value_type<LevelProvider::LPFeatures, bool> > >::__do_rehash<true>(unsigned int)
FUNC 1fe84 40 0 std::__ndk1::__function::__func<GDHistoryProvider::getLevelData(int, std::__ndk1::function<void (LevelProvider*, std::__ndk1::basic_string<char, std::__ndk1::char_traits<char>, std::__ndk1::allocator<char> >, LevelProvider::BasicLevelInformation)>)::$_0, std::__ndk1::allocator<GDHistoryProvider::getLevelData(int, std::__ndk1::function<void (LevelProvider*, std::__ndk1::basic_string<char, std::__ndk1::char_traits<char>, std::__ndk1::allocator<char> >, LevelProvider::BasicLevelInformation)>)::$_0>, void (LevelProvider*, GJGameLevel*)>::~__func()
FUNC 1fec4 48 0 std::__ndk1::__function::__func<GDHistoryProvider::getLevelData(int, std::__ndk1::function<void (LevelProvider*, std::__ndk1::basic_string<char, std::__ndk1::char_traits<char>, std::__ndk1::allocator<char> >, LevelProvider::BasicLevelInformation)>)::$_0, std::__ndk1::allocator<GDHistoryProvider::getLevelData(int, std::__ndk1::function<void (LevelProvider*, std::__ndk1::basic_string<char, std::__ndk1::char_traits<char>, std::__ndk1::allocator<char> >, LevelProvider::BasicLevelInformation)>)::$_0>, void (LevelProvider*, GJGameLevel*)>::~__func()
FUNC 1ff0c 38 0 std::__ndk1::__function::__func<GDHistoryProvider::getLevelData(int, std::__ndk1::function<void (LevelProvider*, std::__ndk1::basic_string<char, std::__ndk1::char_traits<char>, std::__ndk1::allocator<char> >, LevelProvider::BasicLevelInformation)>)::$_0, std::__ndk1::allocator<GDHistoryProvider::getLevelData(int, std::__ndk1::function<void (LevelProvider*, std::__ndk1::basic_string<char, std::__ndk1::char_traits<char>, std::__ndk1::allocator<char> >, LevelProvider::BasicLevelInformation)>)::$_0>, void (LevelProvider*, GJGameLevel*)>::__clone() const
FUNC 1ff44 1c 0 std::__ndk1::__function::__func<GDHistoryProvider::getLevelData(int, std::__ndk1::function<void (LevelProvider*, std::__ndk1::basic_string<char, std::__ndk1::char_traits<char>, std::__ndk1::allocator<char> >, LevelProvider::BasicLevelInformation)>)::$_0, std::__ndk1::allocator<GDHistoryProvider::getLevelData(int, std::__ndk1::function<void (LevelProvider*, std::__ndk1::basic_string<char, std::__ndk1::char_traits<char>, std::__ndk1::allocator<char> >, LevelProvider::BasicLevelInformation)>)::$_0>, void (LevelProvider*, GJGameLevel*)>::__clone(std::__ndk1::__function::__base<void (LevelProvider*, GJGameLevel*)>*) const
FUNC 1ff60 34 0 std::__ndk1::__function::__func<GDHistoryProvider::getLevelData(int, std::__ndk1::function<void (LevelProvider*, std::__ndk1::basic_string<char, std::__ndk1::char_traits<char>, std::__ndk1::allocator<char> >, LevelProvider::BasicLevelInformation)>)::$_0, std::__ndk1::allocator<GDHistoryProvider::getLevelData(int, std::__ndk1::function<void (LevelProvider*, std::__ndk1::basic_string<char, std::__ndk1::char_traits<char>, std::__ndk1::allocator<char> >, LevelProvider::BasicLevelInformation)>)::$_0>, void (LevelProvider*, GJGameLevel*)>::destroy()
FUNC 1ff94 38 0 std::__ndk1::__function::__func<GDHistoryProvider::getLevelData(int, std::__ndk1::function<void (LevelProvider*, std::__ndk1::basic_string<char, std::__ndk1::char_traits<char>, std::__ndk1::allocator<char> >, LevelProvider::BasicLevelInformation)>)::$_0, std::__ndk1::allocator<GDHistoryProvider::getLevelData(int, std::__ndk1::function<void (LevelProvider*, std::__ndk1::basic_string<char, std::__ndk1::char_traits<char>, std::__ndk1::allocator<char> >, LevelProvider::BasicLevelInformation)>)::$_0>, void (LevelProvider*, GJGameLevel*)>::destroy_deallocate()
FUNC 1ffcc 554 0 std::__ndk1::__function::__func<GDHistoryProvider::getLevelData(int, std::__ndk1::function<void (LevelProvider*, std::__ndk1::basic_string<char, std::__ndk1::char_traits<char>, std::__ndk1::allocator<char> >, LevelProvider::BasicLevelInformation)>)::$_0, std::__ndk1::allocator<GDHistoryProvider::getLevelData(int, std::__ndk1::function<void (LevelProvider*, std::__ndk1::basic_string<char, std::__ndk1::char_traits<char>, std::__ndk1::allocator<char> >, LevelProvider::BasicLevelInformation)>)::$_0>, void (LevelProvider*, GJGameLevel*)>::operator()(LevelProvider*&&, GJGameLevel*&&)
FUNC 20520 18 0 std::__ndk1::__function::__func<GDHistoryProvider::getLevelData(int, std::__ndk1::function<void (LevelProvider*, std::__ndk1::basic_string<char, std::__ndk1::char_traits<char>, std::__ndk1::allocator<char> >, LevelProvider::BasicLevelInformation)>)::$_0, std::__ndk1::allocator<GDHistoryProvider::getLevelData(int, std::__ndk1::function<void (LevelProvider*, std::__ndk1::basic_string<char, std::__ndk1::char_traits<char>, std::__ndk1::allocator<char> >, LevelProvider::BasicLevelInformation)>)::$_0>, void (LevelProvider*, GJGameLevel*)>::target(std::type_info const&) const
FUNC 20538 c 0 std::__ndk1::__function::__func<GDHistoryProvider::getLevelData(int, std::__ndk1::function<void (LevelProvider*, std::__ndk1::basic_string<char, std::__ndk1::char_traits<char>, std::__ndk1::allocator<char> >, LevelProvider::BasicLevelInformation)>)::$_0, std::__ndk1::allocator<GDHistoryProvider::getLevelData(int, std::__ndk1::function<void (LevelProvider*, std::__ndk1::basic_string<char, std::__ndk1::char_traits<char>, std::__ndk1::allocator<char> >, LevelProvider::BasicLevelInformation)>)::$_0>, void (LevelProvider*, GJGameLevel*)>::target_type() const
FUNC 20544 b2 0 std::__ndk1::__compressed_pair_elem<GDHistoryProvider::getLevelData(int, std::__ndk1::function<void (LevelProvider*, std::__ndk1::basic_string<char, std::__ndk1::char_traits<char>, std::__ndk1::allocator<char> >, LevelProvider::BasicLevelInformation)>)::$_0, 0, false>::__compressed_pair_elem[abi:ne180000]<GDHistoryProvider::getLevelData(int, std::__ndk1::function<void (LevelProvider*, std::__ndk1::basic_string<char, std::__ndk1::char_traits<char>, std::__ndk1::allocator<char> >, LevelProvider::BasicLevelInformation)>)::$_0 const&, (unsigned int)0>(std::__ndk1::tuple<GDHistoryProvider::getLevelData(int, std::__ndk1::function<void (LevelProvider*, std::__ndk1::basic_string<char, std::__ndk1::char_traits<char>, std::__ndk1::allocator<char> >, LevelProvider::BasicLevelInformation)>)::$_0 const&>, std::__ndk1::__tuple_indices<((unsigned int)0)...>)
FUNC 205f8 34 0 std::__ndk1::__function::__func<GDHistoryProvider::getLevelData(int, std::__ndk1::function<void (LevelProvider*, std::__ndk1::basic_string<char, std::__ndk1::char_traits<char>, std::__ndk1::allocator<char> >, LevelProvider::BasicLevelInformation)>)::$_1, std::__ndk1::allocator<GDHistoryProvider::getLevelData(int, std::__ndk1::function<void (LevelProvider*, std::__ndk1::basic_string<char, std::__ndk1::char_traits<char>, std::__ndk1::allocator<char> >, LevelProvider::BasicLevelInformation)>)::$_1>, void (GeodeNetwork*)>::~__func()
FUNC 2062c 38 0 std::__ndk1::__function::__func<GDHistoryProvider::getLevelData(int, std::__ndk1::function<void (LevelProvider*, std::__ndk1::basic_string<char, std::__ndk1::char_traits<char>, std::__ndk1::allocator<char> >, LevelProvider::BasicLevelInformation)>)::$_1, std::__ndk1::allocator<GDHistoryProvider::getLevelData(int, std::__ndk1::function<void (LevelProvider*, std::__ndk1::basic_string<char, std::__ndk1::char_traits<char>, std::__ndk1::allocator<char> >, LevelProvider::BasicLevelInformation)>)::$_1>, void (GeodeNetwork*)>::~__func()
FUNC 20664 58 0 std::__ndk1::__function::__func<GDHistoryProvider::getLevelData(int, std::__ndk1::function<void (LevelProvider*, std::__ndk1::basic_string<char, std::__ndk1::char_traits<char>, std::__ndk1::allocator<char> >, LevelProvider::BasicLevelInformation)>)::$_1, std::__ndk1::allocator<GDHistoryProvider::getLevelData(int, std::__ndk1::function<void (LevelProvider*, std::__ndk1::basic_string<char, std::__ndk1::char_traits<char>, std::__ndk1::allocator<char> >, LevelProvider::BasicLevelInformation)>)::$_1>, void (GeodeNetwork*)>::__clone() const
FUNC 206bc 48 0 std::__ndk1::__function::__func<GDHistoryProvider::getLevelData(int, std::__ndk1::function<void (LevelProvider*, std::__ndk1::basic_string<char, std::__ndk1::char_traits<char>, std::__ndk1::allocator<char> >, LevelProvider::BasicLevelInformation)>)::$_1, std::__ndk1::allocator<GDHistoryProvider::getLevelData(int, std::__ndk1::function<void (LevelProvider*, std::__ndk1::basic_string<char, std::__ndk1::char_traits<char>, std::__ndk1::allocator<char> >, LevelProvider::BasicLevelInformation)>)::$_1>, void (GeodeNetwork*)>::__clone(std::__ndk1::__function::__base<void (GeodeNetwork*)>*) const
FUNC 20704 1e 0 std::__ndk1::__function::__func<GDHistoryProvider::getLevelData(int, std::__ndk1::function<void (LevelProvider*, std::__ndk1::basic_string<char, std::__ndk1::char_traits<char>, std::__ndk1::allocator<char> >, LevelProvider::BasicLevelInformation)>)::$_1, std::__ndk1::allocator<GDHistoryProvider::getLevelData(int, std::__ndk1::function<void (LevelProvider*, std::__ndk1::basic_string<char, std::__ndk1::char_traits<char>, std::__ndk1::allocator<char> >, LevelProvider::BasicLevelInformation)>)::$_1>, void (GeodeNetwork*)>::destroy()
FUNC 20722 2a 0 std::__ndk1::__function::__func<GDHistoryProvider::getLevelData(int, std::__ndk1::function<void (LevelProvider*, std::__ndk1::basic_string<char, std::__ndk1::char_traits<char>, std::__ndk1::allocator<char> >, LevelProvider::BasicLevelInformation)>)::$_1, std::__ndk1::allocator<GDHistoryProvider::getLevelData(int, std::__ndk1::function<void (LevelProvider*, std::__ndk1::basic_string<char, std::__ndk1::char_traits<char>, std::__ndk1::allocator<char> >, LevelProvider::BasicLevelInformation)>)::$_1>, void (GeodeNetwork*)>::destroy_deallocate()
FUNC 2074c e4 0 std::__ndk1::__function::__func<GDHistoryProvider::getLevelData(int, std::__ndk1::function<void (LevelProvider*, std::__ndk1::basic_string<char, std::__ndk1::char_traits<char>, std::__ndk1::allocator<char> >, LevelProvider::BasicLevelInformation)>)::$_1, std::__ndk1::allocator<GDHistoryProvider::getLevelData(int, std::__ndk1::function<void (LevelProvider*, std::__ndk1::basic_string<char, std::__ndk1::char_traits<char>, std::__ndk1::allocator<char> >, LevelProvider::BasicLevelInformation)>)::$_1>, void (GeodeNetwork*)>::operator()(GeodeNetwork*&&)
FUNC 20830 18 0 std::__ndk1::__function::__func<GDHistoryProvider::getLevelData(int, std::__ndk1::function<void (LevelProvider*, std::__ndk1::basic_string<char, std::__ndk1::char_traits<char>, std::__ndk1::allocator<char> >, LevelProvider::BasicLevelInformation)>)::$_1, std::__ndk1::allocator<GDHistoryProvider::getLevelData(int, std::__ndk1::function<void (LevelProvider*, std::__ndk1::basic_string<char, std::__ndk1::char_traits<char>, std::__ndk1::allocator<char> >, LevelProvider::BasicLevelInformation)>)::$_1>, void (GeodeNetwork*)>::target(std::type_info const&) const
FUNC 20848 c 0 std::__ndk1::__function::__func<GDHistoryProvider::getLevelData(int, std::__ndk1::function<void (LevelProvider*, std::__ndk1::basic_string<char, std::__ndk1::char_traits<char>, std::__ndk1::allocator<char> >, LevelProvider::BasicLevelInformation)>)::$_1, std::__ndk1::allocator<GDHistoryProvider::getLevelData(int, std::__ndk1::function<void (LevelProvider*, std::__ndk1::basic_string<char, std::__ndk1::char_traits<char>, std::__ndk1::allocator<char> >, LevelProvider::BasicLevelInformation)>)::$_1>, void (GeodeNetwork*)>::target_type() const
FUNC 20854 bc 0 std::__ndk1::__function::__func<GDHistoryProvider::getLevelData(int, std::__ndk1::function<void (LevelProvider*, std::__ndk1::basic_string<char, std::__ndk1::char_traits<char>, std::__ndk1::allocator<char> >, LevelProvider::BasicLevelInformation)>)::$_2, std::__ndk1::allocator<GDHistoryProvider::getLevelData(int, std::__ndk1::function<void (LevelProvider*, std::__ndk1::basic_string<char, std::__ndk1::char_traits<char>, std::__ndk1::allocator<char> >, LevelProvider::BasicLevelInformation)>)::$_2>, void (GeodeNetwork*)>::~__func()
FUNC 20910 c0 0 std::__ndk1::__function::__func<GDHistoryProvider::getLevelData(int, std::__ndk1::function<void (LevelProvider*, std::__ndk1::basic_string<char, std::__ndk1::char_traits<char>, std::__ndk1::allocator<char> >, LevelProvider::BasicLevelInformation)>)::$_2, std::__ndk1::allocator<GDHistoryProvider::getLevelData(int, std::__ndk1::function<void (LevelProvider*, std::__ndk1::basic_string<char, std::__ndk1::char_traits<char>, std::__ndk1::allocator<char> >, LevelProvider::BasicLevelInformation)>)::$_2>, void (GeodeNetwork*)>::~__func()
FUNC 209d0 8c 0 std::__ndk1::__function::__func<GDHistoryProvider::getLevelData(int, std::__ndk1::function<void (LevelProvider*, std::__ndk1::basic_string<char, std::__ndk1::char_traits<char>, std::__ndk1::allocator<char> >, LevelProvider::BasicLevelInformation)>)::$_2, std::__ndk1::allocator<GDHistoryProvider::getLevelData(int, std::__ndk1::function<void (LevelProvider*, std::__ndk1::basic_string<char, std::__ndk1::char_traits<char>, std::__ndk1::allocator<char> >, LevelProvider::BasicLevelInformation)>)::$_2>, void (GeodeNetwork*)>::__clone() const
FUNC 20a5c 7c 0 std::__ndk1::__function::__func<GDHistoryProvider::getLevelData(int, std::__ndk1::function<void (LevelProvider*, std::__ndk1::basic_string<char, std::__ndk1::char_traits<char>, std::__ndk1::allocator<char> >, LevelProvider::BasicLevelInformation)>)::$_2, std::__ndk1::allocator<GDHistoryProvider::getLevelData(int, std::__ndk1::function<void (LevelProvider*, std::__ndk1::basic_string<char, std::__ndk1::char_traits<char>, std::__ndk1::allocator<char> >, LevelProvider::BasicLevelInformation)>)::$_2>, void (GeodeNetwork*)>::__clone(std::__ndk1::__function::__base<void (GeodeNetwork*)>*) const
FUNC 20ad8 6 0 std::__ndk1::__function::__func<GDHistoryProvider::getLevelData(int, std::__ndk1::function<void (LevelProvider*, std::__ndk1::basic_string<char, std::__ndk1::char_traits<char>, std::__ndk1::allocator<char> >, LevelProvider::BasicLevelInformation)>)::$_2, std::__ndk1::allocator<GDHistoryProvider::getLevelData(int, std::__ndk1::function<void (LevelProvider*, std::__ndk1::basic_string<char, std::__ndk1::char_traits<char>, std::__ndk1::allocator<char> >, LevelProvider::BasicLevelInformation)>)::$_2>, void (GeodeNetwork*)>::destroy()
FUNC 20ade 16 0 std::__ndk1::__function::__func<GDHistoryProvider::getLevelData(int, std::__ndk1::function<void (LevelProvider*, std::__ndk1::basic_string<char, std::__ndk1::char_traits<char>, std::__ndk1::allocator<char> >, LevelProvider::BasicLevelInformation)>)::$_2, std::__ndk1::allocator<GDHistoryProvider::getLevelData(int, std::__ndk1::function<void (LevelProvider*, std::__ndk1::basic_string<char, std::__ndk1::char_traits<char>, std::__ndk1::allocator<char> >, LevelProvider::BasicLevelInformation)>)::$_2>, void (GeodeNetwork*)>::destroy_deallocate()
FUNC 20af4 244 0 std::__ndk1::__function::__func<GDHistoryProvider::getLevelData(int, std::__ndk1::function<void (LevelProvider*, std::__ndk1::basic_string<char, std::__ndk1::char_traits<char>, std::__ndk1::allocator<char> >, LevelProvider::BasicLevelInformation)>)::$_2, std::__ndk1::allocator<GDHistoryProvider::getLevelData(int, std::__ndk1::function<void (LevelProvider*, std::__ndk1::basic_string<char, std::__ndk1::char_traits<char>, std::__ndk1::allocator<char> >, LevelProvider::BasicLevelInformation)>)::$_2>, void (GeodeNetwork*)>::operator()(GeodeNetwork*&&)
FUNC 20d38 18 0 std::__ndk1::__function::__func<GDHistoryProvider::getLevelData(int, std::__ndk1::function<void (LevelProvider*, std::__ndk1::basic_string<char, std::__ndk1::char_traits<char>, std::__ndk1::allocator<char> >, LevelProvider::BasicLevelInformation)>)::$_2, std::__ndk1::allocator<GDHistoryProvider::getLevelData(int, std::__ndk1::function<void (LevelProvider*, std::__ndk1::basic_string<char, std::__ndk1::char_traits<char>, std::__ndk1::allocator<char> >, LevelProvider::BasicLevelInformation)>)::$_2>, void (GeodeNetwork*)>::target(std::type_info const&) const
FUNC 20d50 c 0 std::__ndk1::__function::__func<GDHistoryProvider::getLevelData(int, std::__ndk1::function<void (LevelProvider*, std::__ndk1::basic_string<char, std::__ndk1::char_traits<char>, std::__ndk1::allocator<char> >, LevelProvider::BasicLevelInformation)>)::$_2, std::__ndk1::allocator<GDHistoryProvider::getLevelData(int, std::__ndk1::function<void (LevelProvider*, std::__ndk1::basic_string<char, std::__ndk1::char_traits<char>, std::__ndk1::allocator<char> >, LevelProvider::BasicLevelInformation)>)::$_2>, void (GeodeNetwork*)>::target_type() const
FUNC 20d5c ac 0 std::__ndk1::__function::__alloc_func<GDHistoryProvider::getLevelData(int, std::__ndk1::function<void (LevelProvider*, std::__ndk1::basic_string<char, std::__ndk1::char_traits<char>, std::__ndk1::allocator<char> >, LevelProvider::BasicLevelInformation)>)::$_2, std::__ndk1::allocator<GDHistoryProvider::getLevelData(int, std::__ndk1::function<void (LevelProvider*, std::__ndk1::basic_string<char, std::__ndk1::char_traits<char>, std::__ndk1::allocator<char> >, LevelProvider::BasicLevelInformation)>)::$_2>, void (GeodeNetwork*)>::destroy[abi:ne180000]()
FUNC 20e08 4a 0 std::__ndk1::__hash_table<std::__ndk1::__hash_value_type<std::__ndk1::basic_string<char, std::__ndk1::char_traits<char>, std::__ndk1::allocator<char> >, std::__ndk1::basic_string<char, std::__ndk1::char_traits<char>, std::__ndk1::allocator<char> > >, std::__ndk1::__unordered_map_hasher<std::__ndk1::basic_string<char, std::__ndk1::char_traits<char>, std::__ndk1::allocator<char> >, std::__ndk1::__hash_value_type<std::__ndk1::basic_string<char, std::__ndk1::char_traits<char>, std::__ndk1::allocator<char> >, std::__ndk1::basic_string<char, std::__ndk1::char_traits<char>, std::__ndk1::allocator<char> > >, std::__ndk1::hash<std::__ndk1::basic_string<char, std::__ndk1::char_traits<char>, std::__ndk1::allocator<char> > >, std::__ndk1::equal_to<std::__ndk1::basic_string<char, std::__ndk1::char_traits<char>, std::__ndk1::allocator<char> > >, true>, std::__ndk1::__unordered_map_equal<std::__ndk1::basic_string<char, std::__ndk1::char_traits<char>, std::__ndk1::allocator<char> >, std::__ndk1::__hash_value_type<std::__ndk1::basic_string<char, std::__ndk1::char_traits<char>, std::__ndk1::allocator<char> >, std::__ndk1::basic_string<char, std::__ndk1::char_traits<char>, std::__ndk1::allocator<char> > >, std::__ndk1::equal_to<std::__ndk1::basic_string<char, std::__ndk1::char_traits<char>, std::__ndk1::allocator<char> > >, std::__ndk1::hash<std::__ndk1::basic_string<char, std::__ndk1::char_traits<char>, std::__ndk1::allocator<char> > >, true>, std::__ndk1::allocator<std::__ndk1::__hash_value_type<std::__ndk1::basic_string<char, std::__ndk1::char_traits<char>, std::__ndk1::allocator<char> >, std::__ndk1::basic_string<char, std::__ndk1::char_traits<char>, std::__ndk1::allocator<char> > > > >::~__hash_table()
FUNC 20e54 3d0 0 std::__ndk1::__hash_table<std::__ndk1::__hash_value_type<std::__ndk1::basic_string<char, std::__ndk1::char_traits<char>, std::__ndk1::allocator<char> >, std::__ndk1::basic_string<char, std::__ndk1::char_traits<char>, std::__ndk1::allocator<char> > >, std::__ndk1::__unordered_map_hasher<std::__ndk1::basic_string<char, std::__ndk1::char_traits<char>, std::__ndk1::allocator<char> >, std::__ndk1::__hash_value_type<std::__ndk1::basic_string<char, std::__ndk1::char_traits<char>, std::__ndk1::allocator<char> >, std::__ndk1::basic_string<char, std::__ndk1::char_traits<char>, std::__ndk1::allocator<char> > >, std::__ndk1::hash<std::__ndk1::basic_string<char, std::__ndk1::char_traits<char>, std::__ndk1::allocator<char> > >, std::__ndk1::equal_to<std::__ndk1::basic_string<char, std::__ndk1::char_traits<char>, std::__ndk1::allocator<char> > >, true>, std::__ndk1::__unordered_map_equal<std::__ndk1::basic_string<char, std::__ndk1::char_traits<char>, std::__ndk1::allocator<char> >, std::__ndk1::__hash_value_type<std::__ndk1::basic_string<char, std::__ndk1::char_traits<char>, std::__ndk1::allocator<char> >, std::__ndk1::basic_string<char, std::__ndk1::char_traits<char>, std::__ndk1::allocator<char> > >, std::__ndk1::equal_to<std::__ndk1::basic_string<char, std::__ndk1::char_traits<char>, std::__ndk1::allocator<char> > >, std::__ndk1::hash<std::__ndk1::basic_string<char, std::__ndk1::char_traits<char>, std::__ndk1::allocator<char> > >, true>, std::__ndk1::allocator<std::__ndk1::__hash_value_type<std::__ndk1::basic_string<char, std::__ndk1::char_traits<char>, std::__ndk1::allocator<char> >, std::__ndk1::basic_string<char, std::__ndk1::char_traits<char>, std::__ndk1::allocator<char> > > > >::__emplace_unique_key_args<std::__ndk1::basic_string<char, std::__ndk1::char_traits<char>, std::__ndk1::allocator<char> >, std::__ndk1::pair<std::__ndk1::basic_string<char, std::__ndk1::char_traits<char>, std::__ndk1::allocator<char> > const, std::__ndk1::basic_string<char, std::__ndk1::char_traits<char>, std::__ndk1::allocator<char> > > const&>(std::__ndk1::basic_string<char, std::__ndk1::char_traits<char>, std::__ndk1::allocator<char> > const&, std::__ndk1::pair<std::__ndk1::basic_string<char, std::__ndk1::char_traits<char>, std::__ndk1::allocator<char> > const, std::__ndk1::basic_string<char, std::__ndk1::char_traits<char>, std::__ndk1::allocator<char> > > const&)
FUNC 21224 34 0 std::__ndk1::unique_ptr<std::__ndk1::__hash_node<std::__ndk1::__hash_value_type<std::__ndk1::basic_string<char, std::__ndk1::char_traits<char>, std::__ndk1::allocator<char> >, std::__ndk1::basic_string<char, std::__ndk1::char_traits<char>, std::__ndk1::allocator<char> > >, void*>, std::__ndk1::__hash_node_destructor<std::__ndk1::allocator<std::__ndk1::__hash_node<std::__ndk1::__hash_value_type<std::__ndk1::basic_string<char, std::__ndk1::char_traits<char>, std::__ndk1::allocator<char> >, std::__ndk1::basic_string<char, std::__ndk1::char_traits<char>, std::__ndk1::allocator<char> > >, void*> > > >::~unique_ptr[abi:ne180000]()
FUNC 21258 10c 0 std::__ndk1::__hash_table<std::__ndk1::__hash_value_type<std::__ndk1::basic_string<char, std::__ndk1::char_traits<char>, std::__ndk1::allocator<char> >, std::__ndk1::basic_string<char, std::__ndk1::char_traits<char>, std::__ndk1::allocator<char> > >, std::__ndk1::__unordered_map_hasher<std::__ndk1::basic_string<char, std::__ndk1::char_traits<char>, std::__ndk1::allocator<char> >, std::__ndk1::__hash_value_type<std::__ndk1::basic_string<char, std::__ndk1::char_traits<char>, std::__ndk1::allocator<char> >, std::__ndk1::basic_string<char, std::__ndk1::char_traits<char>, std::__ndk1::allocator<char> > >, std::__ndk1::hash<std::__ndk1::basic_string<char, std::__ndk1::char_traits<char>, std::__ndk1::allocator<char> > >, std::__ndk1::equal_to<std::__ndk1::basic_string<char, std::__ndk1::char_traits<char>, std::__ndk1::allocator<char> > >, true>, std::__ndk1::__unordered_map_equal<std::__ndk1::basic_string<char, std::__ndk1::char_traits<char>, std::__ndk1::allocator<char> >, std::__ndk1::__hash_value_type<std::__ndk1::basic_string<char, std::__ndk1::char_traits<char>, std::__ndk1::allocator<char> >, std::__ndk1::basic_string<char, std::__ndk1::char_traits<char>, std::__ndk1::allocator<char> > >, std::__ndk1::equal_to<std::__ndk1::basic_string<char, std::__ndk1::char_traits<char>, std::__ndk1::allocator<char> > >, std::__ndk1::hash<std::__ndk1::basic_string<char, std::__ndk1::char_traits<char>, std::__ndk1::allocator<char> > >, true>, std::__ndk1::allocator<std::__ndk1::__hash_value_type<std::__ndk1::basic_string<char, std::__ndk1::char_traits<char>, std::__ndk1::allocator<char> >, std::__ndk1::basic_string<char, std::__ndk1::char_traits<char>, std::__ndk1::allocator<char> > > > >::__do_rehash<true>(unsigned int)
FUNC 21364 3c 0 nlohmann::json_abi_v3_11_3::detail::parser<nlohmann::json_abi_v3_11_3::basic_json<std::__ndk1::map, std::__ndk1::vector, std::__ndk1::basic_string<char, std::__ndk1::char_traits<char>, std::__ndk1::allocator<char> >, bool, long long, unsigned long long, double, std::__ndk1::allocator, nlohmann::json_abi_v3_11_3::adl_serializer, std::__ndk1::vector<unsigned char, std::__ndk1::allocator<unsigned char> >, void>, nlohmann::json_abi_v3_11_3::detail::iterator_input_adapter<std::__ndk1::__wrap_iter<char const*> > >::~parser()
FUNC 213a0 88 0 nlohmann::json_abi_v3_11_3::basic_json<std::__ndk1::map, std::__ndk1::vector, std::__ndk1::basic_string<char, std::__ndk1::char_traits<char>, std::__ndk1::allocator<char> >, bool, long long, unsigned long long, double, std::__ndk1::allocator, nlohmann::json_abi_v3_11_3::adl_serializer, std::__ndk1::vector<unsigned char, std::__ndk1::allocator<unsigned char> >, void>::json_value::json_value(nlohmann::json_abi_v3_11_3::detail::value_t)
FUNC 21428 24 0 nlohmann::json_abi_v3_11_3::detail::lexer<nlohmann::json_abi_v3_11_3::basic_json<std::__ndk1::map, std::__ndk1::vector, std::__ndk1::basic_string<char, std::__ndk1::char_traits<char>, std::__ndk1::allocator<char> >, bool, long long, unsigned long long, double, std::__ndk1::allocator, nlohmann::json_abi_v3_11_3::adl_serializer, std::__ndk1::vector<unsigned char, std::__ndk1::allocator<unsigned char> >, void>, nlohmann::json_abi_v3_11_3::detail::iterator_input_adapter<std::__ndk1::__wrap_iter<char const*> > >::~lexer()
FUNC 2144c 1018 0 nlohmann::json_abi_v3_11_3::detail::lexer<nlohmann::json_abi_v3_11_3::basic_json<std::__ndk1::map, std::__ndk1::vector, std::__ndk1::basic_string<char, std::__ndk1::char_traits<char>, std::__ndk1::allocator<char> >, bool, long long, unsigned long long, double, std::__ndk1::allocator, nlohmann::json_abi_v3_11_3::adl_serializer, std::__ndk1::vector<unsigned char, std::__ndk1::allocator<unsigned char> >, void>, nlohmann::json_abi_v3_11_3::detail::iterator_input_adapter<std::__ndk1::__wrap_iter<char const*> > >::scan()
FUNC 22464 130 0 nlohmann::json_abi_v3_11_3::detail::lexer<nlohmann::json_abi_v3_11_3::basic_json<std::__ndk1::map, std::__ndk1::vector, std::__ndk1::basic_string<char, std::__ndk1::char_traits<char>, std::__ndk1::allocator<char> >, bool, long long, unsigned long long, double, std::__ndk1::allocator, nlohmann::json_abi_v3_11_3::adl_serializer, std::__ndk1::vector<unsigned char, std::__ndk1::allocator<unsigned char> >, void>, nlohmann::json_abi_v3_11_3::detail::iterator_input_adapter<std::__ndk1::__wrap_iter<char const*> > >::get()
FUNC 22594 10 0 std::__ndk1::vector<char, std::__ndk1::allocator<char> >::__throw_length_error[abi:ne180000]() const
FUNC 225a4 d0 0 nlohmann::json_abi_v3_11_3::detail::lexer<nlohmann::json_abi_v3_11_3::basic_json<std::__ndk1::map, std::__ndk1::vector, std::__ndk1::basic_string<char, std::__ndk1::char_traits<char>, std::__ndk1::allocator<char> >, bool, long long, unsigned long long, double, std::__ndk1::allocator, nlohmann::json_abi_v3_11_3::adl_serializer, std::__ndk1::vector<unsigned char, std::__ndk1::allocator<unsigned char> >, void>, nlohmann::json_abi_v3_11_3::detail::iterator_input_adapter<std::__ndk1::__wrap_iter<char const*> > >::get_codepoint()
FUNC 22678 12cc 0 nlohmann::json_abi_v3_11_3::detail::parser<nlohmann::json_abi_v3_11_3::basic_json<std::__ndk1::map, std::__ndk1::vector, std::__ndk1::basic_string<char, std::__ndk1::char_traits<char>, std::__ndk1::allocator<char> >, bool, long long, unsigned long long, double, std::__ndk1::allocator, nlohmann::json_abi_v3_11_3::adl_serializer, std::__ndk1::vector<unsigned char, std::__ndk1::allocator<unsigned char> >, void>, nlohmann::json_abi_v3_11_3::detail::iterator_input_adapter<std::__ndk1::__wrap_iter<char const*> > >::sax_parse_internal<nlohmann::json_abi_v3_11_3::detail::json_sax_dom_callback_parser<nlohmann::json_abi_v3_11_3::basic_json<std::__ndk1::map, std::__ndk1::vector, std::__ndk1::basic_string<char, std::__ndk1::char_traits<char>, std::__ndk1::allocator<char> >, bool, long long, unsigned long long, double, std::__ndk1::allocator, nlohmann::json_abi_v3_11_3::adl_serializer, std::__ndk1::vector<unsigned char, std::__ndk1::allocator<unsigned char> >, void> > >(nlohmann::json_abi_v3_11_3::detail::json_sax_dom_callback_parser<nlohmann::json_abi_v3_11_3::basic_json<std::__ndk1::map, std::__ndk1::vector, std::__ndk1::basic_string<char, std::__ndk1::char_traits<char>, std::__ndk1::allocator<char> >, bool, long long, unsigned long long, double, std::__ndk1::allocator, nlohmann::json_abi_v3_11_3::adl_serializer, std::__ndk1::vector<unsigned char, std::__ndk1::allocator<unsigned char> >, void> >*)
FUNC 23944 38 0 nlohmann::json_abi_v3_11_3::detail::json_sax_dom_callback_parser<nlohmann::json_abi_v3_11_3::basic_json<std::__ndk1::map, std::__ndk1::vector, std::__ndk1::basic_string<char, std::__ndk1::char_traits<char>, std::__ndk1::allocator<char> >, bool, long long, unsigned long long, double, std::__ndk1::allocator, nlohmann::json_abi_v3_11_3::adl_serializer, std::__ndk1::vector<unsigned char, std::__ndk1::allocator<unsigned char> >, void> >::parse_error<nlohmann::json_abi_v3_11_3::detail::parse_error>(unsigned int, std::__ndk1::basic_string<char, std::__ndk1::char_traits<char>, std::__ndk1::allocator<char> > const&, nlohmann::json_abi_v3_11_3::detail::parse_error const&)
FUNC 2397c 98 0 nlohmann::json_abi_v3_11_3::detail::lexer<nlohmann::json_abi_v3_11_3::basic_json<std::__ndk1::map, std::__ndk1::vector, std::__ndk1::basic_string<char, std::__ndk1::char_traits<char>, std::__ndk1::allocator<char> >, bool, long long, unsigned long long, double, std::__ndk1::allocator, nlohmann::json_abi_v3_11_3::adl_serializer, std::__ndk1::vector<unsigned char, std::__ndk1::allocator<unsigned char> >, void>, nlohmann::json_abi_v3_11_3::detail::iterator_input_adapter<std::__ndk1::__wrap_iter<char const*> > >::get_token_string() const
FUNC 23a14 36c 0 _ZN8nlohmann16json_abi_v3_11_36detail11parse_error6createIDnTnNSt6__ndk19enable_ifIXsr21is_basic_json_contextIT_EE5valueEiE4typeELi0EEES2_iRKNS1_10position_tERKNS4_12basic_stringIcNS4_11char_traitsIcEENS4_9allocatorIcEEEES6_
FUNC 23d80 328 0 nlohmann::json_abi_v3_11_3::detail::parser<nlohmann::json_abi_v3_11_3::basic_json<std::__ndk1::map, std::__ndk1::vector, std::__ndk1::basic_string<char, std::__ndk1::char_traits<char>, std::__ndk1::allocator<char> >, bool, long long, unsigned long long, double, std::__ndk1::allocator, nlohmann::json_abi_v3_11_3::adl_serializer, std::__ndk1::vector<unsigned char, std::__ndk1::allocator<unsigned char> >, void>, nlohmann::json_abi_v3_11_3::detail::iterator_input_adapter<std::__ndk1::__wrap_iter<char const*> > >::exception_message(nlohmann::json_abi_v3_11_3::detail::lexer_base<nlohmann::json_abi_v3_11_3::basic_json<std::__ndk1::map, std::__ndk1::vector, std::__ndk1::basic_string<char, std::__ndk1::char_traits<char>, std::__ndk1::allocator<char> >, bool, long long, unsigned long long, double, std::__ndk1::allocator, nlohmann::json_abi_v3_11_3::adl_serializer, std::__ndk1::vector<unsigned char, std::__ndk1::allocator<unsigned char> >, void> >::token_type, std::__ndk1::basic_string<char, std::__ndk1::char_traits<char>, std::__ndk1::allocator<char> > const&)
FUNC 240a8 28 0 nlohmann::json_abi_v3_11_3::detail::exception::~exception()
FUNC 240d0 54 0 nlohmann::json_abi_v3_11_3::detail::json_sax_dom_callback_parser<nlohmann::json_abi_v3_11_3::basic_json<std::__ndk1::map, std::__ndk1::vector, std::__ndk1::basic_string<char, std::__ndk1::char_traits<char>, std::__ndk1::allocator<char> >, bool, long long, unsigned long long, double, std::__ndk1::allocator, nlohmann::json_abi_v3_11_3::adl_serializer, std::__ndk1::vector<unsigned char, std::__ndk1::allocator<unsigned char> >, void> >::~json_sax_dom_callback_parser()
FUNC 24128 1304 0 nlohmann::json_abi_v3_11_3::detail::parser<nlohmann::json_abi_v3_11_3::basic_json<std::__ndk1::map, std::__ndk1::vector, std::__ndk1::basic_string<char, std::__ndk1::char_traits<char>, std::__ndk1::allocator<char> >, bool, long long, unsigned long long, double, std::__ndk1::allocator, nlohmann::json_abi_v3_11_3::adl_serializer, std::__ndk1::vector<unsigned char, std::__ndk1::allocator<unsigned char> >, void>, nlohmann::json_abi_v3_11_3::detail::iterator_input_adapter<std::__ndk1::__wrap_iter<char const*> > >::sax_parse_internal<nlohmann::json_abi_v3_11_3::detail::json_sax_dom_parser<nlohmann::json_abi_v3_11_3::basic_json<std::__ndk1::map, std::__ndk1::vector, std::__ndk1::basic_string<char, std::__ndk1::char_traits<char>, std::__ndk1::allocator<char> >, bool, long long, unsigned long long, double, std::__ndk1::allocator, nlohmann::json_abi_v3_11_3::adl_serializer, std::__ndk1::vector<unsigned char, std::__ndk1::allocator<unsigned char> >, void> > >(nlohmann::json_abi_v3_11_3::detail::json_sax_dom_parser<nlohmann::json_abi_v3_11_3::basic_json<std::__ndk1::map, std::__ndk1::vector, std::__ndk1::basic_string<char, std::__ndk1::char_traits<char>, std::__ndk1::allocator<char> >, bool, long long, unsigned long long, double, std::__ndk1::allocator, nlohmann::json_abi_v3_11_3::adl_serializer, std::__ndk1::vector<unsigned char, std::__ndk1::allocator<unsigned char> >, void> >*)
FUNC 2542c 34 0 nlohmann::json_abi_v3_11_3::detail::json_sax_dom_parser<nlohmann::json_abi_v3_11_3::basic_json<std::__ndk1::map, std::__ndk1::vector, std::__ndk1::basic_string<char, std::__ndk1::char_traits<char>, std::__ndk1::allocator<char> >, bool, long long, unsigned long long, double, std::__ndk1::allocator, nlohmann::json_abi_v3_11_3::adl_serializer, std::__ndk1::vector<unsigned char, std::__ndk1::allocator<unsigned char> >, void> >::parse_error<nlohmann::json_abi_v3_11_3::detail::parse_error>(unsigned int, std::__ndk1::basic_string<char, std::__ndk1::char_traits<char>, std::__ndk1::allocator<char> > const&, nlohmann::json_abi_v3_11_3::detail::parse_error const&)
FUNC 25460 ce 0 std::__ndk1::vector<bool, std::__ndk1::allocator<bool> >::reserve(unsigned int)
FUNC 25530 10 0 std::__ndk1::vector<bool, std::__ndk1::allocator<bool> >::__throw_length_error[abi:ne180000]() const
FUNC 25540 358 0 nlohmann::json_abi_v3_11_3::detail::json_sax_dom_callback_parser<nlohmann::json_abi_v3_11_3::basic_json<std::__ndk1::map, std::__ndk1::vector, std::__ndk1::basic_string<char, std::__ndk1::char_traits<char>, std::__ndk1::allocator<char> >, bool, long long, unsigned long long, double, std::__ndk1::allocator, nlohmann::json_abi_v3_11_3::adl_serializer, std::__ndk1::vector<unsigned char, std::__ndk1::allocator<unsigned char> >, void> >::end_object()
FUNC 25898 198 0 nlohmann::json_abi_v3_11_3::detail::json_sax_dom_callback_parser<nlohmann::json_abi_v3_11_3::basic_json<std::__ndk1::map, std::__ndk1::vector, std::__ndk1::basic_string<char, std::__ndk1::char_traits<char>, std::__ndk1::allocator<char> >, bool, long long, unsigned long long, double, std::__ndk1::allocator, nlohmann::json_abi_v3_11_3::adl_serializer, std::__ndk1::vector<unsigned char, std::__ndk1::allocator<unsigned char> >, void> >::key(std::__ndk1::basic_string<char, std::__ndk1::char_traits<char>, std::__ndk1::allocator<char> >&)
FUNC 25a30 fc 0 nlohmann::json_abi_v3_11_3::detail::json_sax_dom_callback_parser<nlohmann::json_abi_v3_11_3::basic_json<std::__ndk1::map, std::__ndk1::vector, std::__ndk1::basic_string<char, std::__ndk1::char_traits<char>, std::__ndk1::allocator<char> >, bool, long long, unsigned long long, double, std::__ndk1::allocator, nlohmann::json_abi_v3_11_3::adl_serializer, std::__ndk1::vector<unsigned char, std::__ndk1::allocator<unsigned char> >, void> >::end_array()
FUNC 25b2c 38 0 nlohmann::json_abi_v3_11_3::detail::json_sax_dom_callback_parser<nlohmann::json_abi_v3_11_3::basic_json<std::__ndk1::map, std::__ndk1::vector, std::__ndk1::basic_string<char, std::__ndk1::char_traits<char>, std::__ndk1::allocator<char> >, bool, long long, unsigned long long, double, std::__ndk1::allocator, nlohmann::json_abi_v3_11_3::adl_serializer, std::__ndk1::vector<unsigned char, std::__ndk1::allocator<unsigned char> >, void> >::parse_error<nlohmann::json_abi_v3_11_3::detail::out_of_range>(unsigned int, std::__ndk1::basic_string<char, std::__ndk1::char_traits<char>, std::__ndk1::allocator<char> > const&, nlohmann::json_abi_v3_11_3::detail::out_of_range const&)
FUNC 25b64 160 0 _ZN8nlohmann16json_abi_v3_11_36detail12out_of_range6createIDnTnNSt6__ndk19enable_ifIXsr21is_basic_json_contextIT_EE5valueEiE4typeELi0EEES2_iRKNS4_12basic_stringIcNS4_11char_traitsIcEENS4_9allocatorIcEEEES6_
FUNC 25cc4 7c 0 nlohmann::json_abi_v3_11_3::detail::concat<std::__ndk1::basic_string<char, std::__ndk1::char_traits<char>, std::__ndk1::allocator<char> >, char const (&) [26], std::__ndk1::basic_string<char, std::__ndk1::char_traits<char>, std::__ndk1::allocator<char> >, char>(char const (&) [26], std::__ndk1::basic_string<char, std::__ndk1::char_traits<char>, std::__ndk1::allocator<char> >, char)
FUNC 25d40 190 0 nlohmann::json_abi_v3_11_3::detail::json_sax_dom_callback_parser<nlohmann::json_abi_v3_11_3::basic_json<std::__ndk1::map, std::__ndk1::vector, std::__ndk1::basic_string<char, std::__ndk1::char_traits<char>, std::__ndk1::allocator<char> >, bool, long long, unsigned long long, double, std::__ndk1::allocator, nlohmann::json_abi_v3_11_3::adl_serializer, std::__ndk1::vector<unsigned char, std::__ndk1::allocator<unsigned char> >, void> >::handle_value<nlohmann::json_abi_v3_11_3::detail::value_t>(nlohmann::json_abi_v3_11_3::detail::value_t&&, bool)
FUNC 25ed0 160 0 _ZN8nlohmann16json_abi_v3_11_36detail12out_of_range6createIPNS0_10basic_jsonINSt6__ndk13mapENS5_6vectorENS5_12basic_stringIcNS5_11char_traitsIcEENS5_9allocatorIcEEEEbxydSB_NS0_14adl_serializerENS7_IhNSB_IhEEEEvEETnNS5_9enable_ifIXsr21is_basic_json_contextIT_EE5valueEiE4typeELi0EEES2_iRKSD_SK_
FUNC 26030 d6 0 std::__ndk1::vector<nlohmann::json_abi_v3_11_3::basic_json<std::__ndk1::map, std::__ndk1::vector, std::__ndk1::basic_string<char, std::__ndk1::char_traits<char>, std::__ndk1::allocator<char> >, bool, long long, unsigned long long, double, std::__ndk1::allocator, nlohmann::json_abi_v3_11_3::adl_serializer, std::__ndk1::vector<unsigned char, std::__ndk1::allocator<unsigned char> >, void>, std::__ndk1::allocator<nlohmann::json_abi_v3_11_3::basic_json<std::__ndk1::map, std::__ndk1::vector, std::__ndk1::basic_string<char, std::__ndk1::char_traits<char>, std::__ndk1::allocator<char> >, bool, long long, unsigned long long, double, std::__ndk1::allocator, nlohmann::json_abi_v3_11_3::adl_serializer, std::__ndk1::vector<unsigned char, std::__ndk1::allocator<unsigned char> >, void> > >::__emplace_back_slow_path<nlohmann::json_abi_v3_11_3::basic_json<std::__ndk1::map, std::__ndk1::vector, std::__ndk1::basic_string<char, std::__ndk1::char_traits<char>, std::__ndk1::allocator<char> >, bool, long long, unsigned long long, double, std::__ndk1::allocator, nlohmann::json_abi_v3_11_3::adl_serializer, std::__ndk1::vector<unsigned char, std::__ndk1::allocator<unsigned char> >, void> >(nlohmann::json_abi_v3_11_3::basic_json<std::__ndk1::map, std::__ndk1::vector, std::__ndk1::basic_string<char, std::__ndk1::char_traits<char>, std::__ndk1::allocator<char> >, bool, long long, unsigned long long, double, std::__ndk1::allocator, nlohmann::json_abi_v3_11_3::adl_serializer, std::__ndk1::vector<unsigned char, std::__ndk1::allocator<unsigned char> >, void>&&)
FUNC 26108 10 0 std::__ndk1::vector<nlohmann::json_abi_v3_11_3::basic_json<std::__ndk1::map, std::__ndk1::vector, std::__ndk1::basic_string<char, std::__ndk1::char_traits<char>, std::__ndk1::allocator<char> >, bool, long long, unsigned long long, double, std::__ndk1::allocator, nlohmann::json_abi_v3_11_3::adl_serializer, std::__ndk1::vector<unsigned char, std::__ndk1::allocator<unsigned char> >, void>*, std::__ndk1::allocator<nlohmann::json_abi_v3_11_3::basic_json<std::__ndk1::map, std::__ndk1::vector, std::__ndk1::basic_string<char, std::__ndk1::char_traits<char>, std::__ndk1::allocator<char> >, bool, long long, unsigned long long, double, std::__ndk1::allocator, nlohmann::json_abi_v3_11_3::adl_serializer, std::__ndk1::vector<unsigned char, std::__ndk1::allocator<unsigned char> >, void>*> >::__throw_length_error[abi:ne180000]() const
FUNC 26118 2c 0 nlohmann::json_abi_v3_11_3::detail::out_of_range::~out_of_range()
FUNC 26144 158 0 _ZN8nlohmann16json_abi_v3_11_36detail16invalid_iterator6createIPNS0_10basic_jsonINSt6__ndk13mapENS5_6vectorENS5_12basic_stringIcNS5_11char_traitsIcEENS5_9allocatorIcEEEEbxydSB_NS0_14adl_serializerENS7_IhNSB_IhEEEEvEETnNS5_9enable_ifIXsr21is_basic_json_contextIT_EE5valueEiE4typeELi0EEES2_iRKSD_SK_
FUNC 2629c 2c 0 nlohmann::json_abi_v3_11_3::detail::invalid_iterator::~invalid_iterator()
FUNC 262c8 15c 0 _ZN8nlohmann16json_abi_v3_11_36detail10type_error6createIPNS0_10basic_jsonINSt6__ndk13mapENS5_6vectorENS5_12basic_stringIcNS5_11char_traitsIcEENS5_9allocatorIcEEEEbxydSB_NS0_14adl_serializerENS7_IhNSB_IhEEEEvEETnNS5_9enable_ifIXsr21is_basic_json_contextIT_EE5valueEiE4typeELi0EEES2_iRKSD_SK_
FUNC 26424 70 0 nlohmann::json_abi_v3_11_3::detail::concat<std::__ndk1::basic_string<char, std::__ndk1::char_traits<char>, std::__ndk1::allocator<char> >, char const (&) [25], char const*>(char const (&) [25], char const*)
FUNC 26494 c8 0 std::__ndk1::__tree<std::__ndk1::__value_type<std::__ndk1::basic_string<char, std::__ndk1::char_traits<char>, std::__ndk1::allocator<char> >, nlohmann::json_abi_v3_11_3::basic_json<std::__ndk1::map, std::__ndk1::vector, std::__ndk1::basic_string<char, std::__ndk1::char_traits<char>, std::__ndk1::allocator<char> >, bool, long long, unsigned long long, double, std::__ndk1::allocator, nlohmann::json_abi_v3_11_3::adl_serializer, std::__ndk1::vector<unsigned char, std::__ndk1::allocator<unsigned char> >, void> >, std::__ndk1::__map_value_compare<std::__ndk1::basic_string<char, std::__ndk1::char_traits<char>, std::__ndk1::allocator<char> >, std::__ndk1::__value_type<std::__ndk1::basic_string<char, std::__ndk1::char_traits<char>, std::__ndk1::allocator<char> >, nlohmann::json_abi_v3_11_3::basic_json<std::__ndk1::map, std::__ndk1::vector, std::__ndk1::basic_string<char, std::__ndk1::char_traits<char>, std::__ndk1::allocator<char> >, bool, long long, unsigned long long, double, std::__ndk1::allocator, nlohmann::json_abi_v3_11_3::adl_serializer, std::__ndk1::vector<unsigned char, std::__ndk1::allocator<unsigned char> >, void> >, std::__ndk1::less<void>, true>, std::__ndk1::allocator<std::__ndk1::__value_type<std::__ndk1::basic_string<char, std::__ndk1::char_traits<char>, std::__ndk1::allocator<char> >, nlohmann::json_abi_v3_11_3::basic_json<std::__ndk1::map, std::__ndk1::vector, std::__ndk1::basic_string<char, std::__ndk1::char_traits<char>, std::__ndk1::allocator<char> >, bool, long long, unsigned long long, double, std::__ndk1::allocator, nlohmann::json_abi_v3_11_3::adl_serializer, std::__ndk1::vector<unsigned char, std::__ndk1::allocator<unsigned char> >, void> > > >::__emplace_unique_key_args<std::__ndk1::basic_string<char, std::__ndk1::char_traits<char>, std::__ndk1::allocator<char> >, std::__ndk1::piecewise_construct_t const&, std::__ndk1::tuple<std::__ndk1::basic_string<char, std::__ndk1::char_traits<char>, std::__ndk1::allocator<char> > const&>, std::__ndk1::tuple<> >(std::__ndk1::basic_string<char, std::__ndk1::char_traits<char>, std::__ndk1::allocator<char> > const&, std::__ndk1::piecewise_construct_t const&, std::__ndk1::tuple<std::__ndk1::basic_string<char, std::__ndk1::char_traits<char>, std::__ndk1::allocator<char> > const&>, std::__ndk1::tuple<>)
FUNC 2655c ba 0 std::__ndk1::__tree<std::__ndk1::__value_type<std::__ndk1::basic_string<char, std::__ndk1::char_traits<char>, std::__ndk1::allocator<char> >, nlohmann::json_abi_v3_11_3::basic_json<std::__ndk1::map, std::__ndk1::vector, std::__ndk1::basic_string<char, std::__ndk1::char_traits<char>, std::__ndk1::allocator<char> >, bool, long long, unsigned long long, double, std::__ndk1::allocator, nlohmann::json_abi_v3_11_3::adl_serializer, std::__ndk1::vector<unsigned char, std::__ndk1::allocator<unsigned char> >, void> >, std::__ndk1::__map_value_compare<std::__ndk1::basic_string<char, std::__ndk1::char_traits<char>, std::__ndk1::allocator<char> >, std::__ndk1::__value_type<std::__ndk1::basic_string<char, std::__ndk1::char_traits<char>, std::__ndk1::allocator<char> >, nlohmann::json_abi_v3_11_3::basic_json<std::__ndk1::map, std::__ndk1::vector, std::__ndk1::basic_string<char, std::__ndk1::char_traits<char>, std::__ndk1::allocator<char> >, bool, long long, unsigned long long, double, std::__ndk1::allocator, nlohmann::json_abi_v3_11_3::adl_serializer, std::__ndk1::vector<unsigned char, std::__ndk1::allocator<unsigned char> >, void> >, std::__ndk1::less<void>, true>, std::__ndk1::allocator<std::__ndk1::__value_type<std::__ndk1::basic_string<char, std::__ndk1::char_traits<char>, std::__ndk1::allocator<char> >, nlohmann::json_abi_v3_11_3::basic_json<std::__ndk1::map, std::__ndk1::vector, std::__ndk1::basic_string<char, std::__ndk1::char_traits<char>, std::__ndk1::allocator<char> >, bool, long long, unsigned long long, double, std::__ndk1::allocator, nlohmann::json_abi_v3_11_3::adl_serializer, std::__ndk1::vector<unsigned char, std::__ndk1::allocator<unsigned char> >, void> > > >::__find_equal<std::__ndk1::basic_string<char, std::__ndk1::char_traits<char>, std::__ndk1::allocator<char> > >(std::__ndk1::__tree_end_node<std::__ndk1::__tree_node_base<void*>*>*&, std::__ndk1::basic_string<char, std::__ndk1::char_traits<char>, std::__ndk1::allocator<char> > const&)
FUNC 26616 38 0 std::__ndk1::unique_ptr<std::__ndk1::__tree_node<std::__ndk1::__value_type<std::__ndk1::basic_string<char, std::__ndk1::char_traits<char>, std::__ndk1::allocator<char> >, nlohmann::json_abi_v3_11_3::basic_json<std::__ndk1::map, std::__ndk1::vector, std::__ndk1::basic_string<char, std::__ndk1::char_traits<char>, std::__ndk1::allocator<char> >, bool, long long, unsigned long long, double, std::__ndk1::allocator, nlohmann::json_abi_v3_11_3::adl_serializer, std::__ndk1::vector<unsigned char, std::__ndk1::allocator<unsigned char> >, void> >, void*>, std::__ndk1::__tree_node_destructor<std::__ndk1::allocator<std::__ndk1::__tree_node<std::__ndk1::__value_type<std::__ndk1::basic_string<char, std::__ndk1::char_traits<char>, std::__ndk1::allocator<char> >, nlohmann::json_abi_v3_11_3::basic_json<std::__ndk1::map, std::__ndk1::vector, std::__ndk1::basic_string<char, std::__ndk1::char_traits<char>, std::__ndk1::allocator<char> >, bool, long long, unsigned long long, double, std::__ndk1::allocator, nlohmann::json_abi_v3_11_3::adl_serializer, std::__ndk1::vector<unsigned char, std::__ndk1::allocator<unsigned char> >, void> >, void*> > > >::~unique_ptr[abi:ne180000]()
FUNC 26650 30 0 nlohmann::json_abi_v3_11_3::detail::out_of_range::out_of_range(nlohmann::json_abi_v3_11_3::detail::out_of_range const&)
FUNC 26680 1c0 0 nlohmann::json_abi_v3_11_3::detail::json_sax_dom_callback_parser<nlohmann::json_abi_v3_11_3::basic_json<std::__ndk1::map, std::__ndk1::vector, std::__ndk1::basic_string<char, std::__ndk1::char_traits<char>, std::__ndk1::allocator<char> >, bool, long long, unsigned long long, double, std::__ndk1::allocator, nlohmann::json_abi_v3_11_3::adl_serializer, std::__ndk1::vector<unsigned char, std::__ndk1::allocator<unsigned char> >, void> >::handle_value<bool&>(bool&, bool)
FUNC 26840 38 0 nlohmann::json_abi_v3_11_3::detail::parse_error::parse_error(nlohmann::json_abi_v3_11_3::detail::parse_error const&)
FUNC 26878 2c 0 nlohmann::json_abi_v3_11_3::detail::parse_error::~parse_error()
FUNC 268a4 4c 0 snprintf(char*, unsigned int pass_object_size1, char const*, ...)
FUNC 268f0 34 0 nlohmann::json_abi_v3_11_3::detail::json_sax_dom_parser<nlohmann::json_abi_v3_11_3::basic_json<std::__ndk1::map, std::__ndk1::vector, std::__ndk1::basic_string<char, std::__ndk1::char_traits<char>, std::__ndk1::allocator<char> >, bool, long long, unsigned long long, double, std::__ndk1::allocator, nlohmann::json_abi_v3_11_3::adl_serializer, std::__ndk1::vector<unsigned char, std::__ndk1::allocator<unsigned char> >, void> >::parse_error<nlohmann::json_abi_v3_11_3::detail::out_of_range>(unsigned int, std::__ndk1::basic_string<char, std::__ndk1::char_traits<char>, std::__ndk1::allocator<char> > const&, nlohmann::json_abi_v3_11_3::detail::out_of_range const&)
FUNC 26924 1ec 0 nlohmann::json_abi_v3_11_3::detail::json_sax_dom_parser<nlohmann::json_abi_v3_11_3::basic_json<std::__ndk1::map, std::__ndk1::vector, std::__ndk1::basic_string<char, std::__ndk1::char_traits<char>, std::__ndk1::allocator<char> >, bool, long long, unsigned long long, double, std::__ndk1::allocator, nlohmann::json_abi_v3_11_3::adl_serializer, std::__ndk1::vector<unsigned char, std::__ndk1::allocator<unsigned char> >, void> >::handle_value<nlohmann::json_abi_v3_11_3::detail::value_t>(nlohmann::json_abi_v3_11_3::detail::value_t&&)
FUNC 26b10 194 0 nlohmann::json_abi_v3_11_3::detail::json_sax_dom_parser<nlohmann::json_abi_v3_11_3::basic_json<std::__ndk1::map, std::__ndk1::vector, std::__ndk1::basic_string<char, std::__ndk1::char_traits<char>, std::__ndk1::allocator<char> >, bool, long long, unsigned long long, double, std::__ndk1::allocator, nlohmann::json_abi_v3_11_3::adl_serializer, std::__ndk1::vector<unsigned char, std::__ndk1::allocator<unsigned char> >, void> >::handle_value<bool&>(bool&)
FUNC 26ca4 b4 0 std::__ndk1::__tree<std::__ndk1::__value_type<std::__ndk1::basic_string<char, std::__ndk1::char_traits<char>, std::__ndk1::allocator<char> >, nlohmann::json_abi_v3_11_3::basic_json<std::__ndk1::map, std::__ndk1::vector, std::__ndk1::basic_string<char, std::__ndk1::char_traits<char>, std::__ndk1::allocator<char> >, bool, long long, unsigned long long, double, std::__ndk1::allocator, nlohmann::json_abi_v3_11_3::adl_serializer, std::__ndk1::vector<unsigned char, std::__ndk1::allocator<unsigned char> >, void> >, std::__ndk1::__map_value_compare<std::__ndk1::basic_string<char, std::__ndk1::char_traits<char>, std::__ndk1::allocator<char> >, std::__ndk1::__value_type<std::__ndk1::basic_string<char, std::__ndk1::char_traits<char>, std::__ndk1::allocator<char> >, nlohmann::json_abi_v3_11_3::basic_json<std::__ndk1::map, std::__ndk1::vector, std::__ndk1::basic_string<char, std::__ndk1::char_traits<char>, std::__ndk1::allocator<char> >, bool, long long, unsigned long long, double, std::__ndk1::allocator, nlohmann::json_abi_v3_11_3::adl_serializer, std::__ndk1::vector<unsigned char, std::__ndk1::allocator<unsigned char> >, void> >, std::__ndk1::less<void>, true>, std::__ndk1::allocator<std::__ndk1::__value_type<std::__ndk1::basic_string<char, std::__ndk1::char_traits<char>, std::__ndk1::allocator<char> >, nlohmann::json_abi_v3_11_3::basic_json<std::__ndk1::map, std::__ndk1::vector, std::__ndk1::basic_string<char, std::__ndk1::char_traits<char>, std::__ndk1::allocator<char> >, bool, long long, unsigned long long, double, std::__ndk1::allocator, nlohmann::json_abi_v3_11_3::adl_serializer, std::__ndk1::vector<unsigned char, std::__ndk1::allocator<unsigned char> >, void> > > >::find<char [8]>(char const (&) [8])
FUNC 26d58 70 0 nlohmann::json_abi_v3_11_3::detail::concat<std::__ndk1::basic_string<char, std::__ndk1::char_traits<char>, std::__ndk1::allocator<char> >, char const (&) [22], char const*>(char const (&) [22], char const*)
FUNC 26dc8 98 0 nlohmann::json_abi_v3_11_3::detail::concat<std::__ndk1::basic_string<char, std::__ndk1::char_traits<char>, std::__ndk1::allocator<char> >, char const (&) [6], std::__ndk1::basic_string<char, std::__ndk1::char_traits<char>, std::__ndk1::allocator<char> >, char const (&) [12]>(char const (&) [6], std::__ndk1::basic_string<char, std::__ndk1::char_traits<char>, std::__ndk1::allocator<char> >, char const (&) [12])
FUNC 26e60 46 0 std::__ndk1::__exception_guard_exceptions<std::__ndk1::vector<nlohmann::json_abi_v3_11_3::basic_json<std::__ndk1::map, std::__ndk1::vector, std::__ndk1::basic_string<char, std::__ndk1::char_traits<char>, std::__ndk1::allocator<char> >, bool, long long, unsigned long long, double, std::__ndk1::allocator, nlohmann::json_abi_v3_11_3::adl_serializer, std::__ndk1::vector<unsigned char, std::__ndk1::allocator<unsigned char> >, void>, std::__ndk1::allocator<nlohmann::json_abi_v3_11_3::basic_json<std::__ndk1::map, std::__ndk1::vector, std::__ndk1::basic_string<char, std::__ndk1::char_traits<char>, std::__ndk1::allocator<char> >, bool, long long, unsigned long long, double, std::__ndk1::allocator, nlohmann::json_abi_v3_11_3::adl_serializer, std::__ndk1::vector<unsigned char, std::__ndk1::allocator<unsigned char> >, void> > >::__destroy_vector>::~__exception_guard_exceptions[abi:ne180000]()
FUNC 26ea6 34 0 std::__ndk1::__exception_guard_exceptions<std::__ndk1::_AllocatorDestroyRangeReverse<std::__ndk1::allocator<nlohmann::json_abi_v3_11_3::basic_json<std::__ndk1::map, std::__ndk1::vector, std::__ndk1::basic_string<char, std::__ndk1::char_traits<char>, std::__ndk1::allocator<char> >, bool, long long, unsigned long long, double, std::__ndk1::allocator, nlohmann::json_abi_v3_11_3::adl_serializer, std::__ndk1::vector<unsigned char, std::__ndk1::allocator<unsigned char> >, void> >, nlohmann::json_abi_v3_11_3::basic_json<std::__ndk1::map, std::__ndk1::vector, std::__ndk1::basic_string<char, std::__ndk1::char_traits<char>, std::__ndk1::allocator<char> >, bool, long long, unsigned long long, double, std::__ndk1::allocator, nlohmann::json_abi_v3_11_3::adl_serializer, std::__ndk1::vector<unsigned char, std::__ndk1::allocator<unsigned char> >, void>*> >::~__exception_guard_exceptions[abi:ne180000]()
FUNC 26edc 10 0 std::__ndk1::vector<unsigned char, std::__ndk1::allocator<unsigned char> >::__throw_length_error[abi:ne180000]() const
FUNC 26eec 70 0 nlohmann::json_abi_v3_11_3::detail::concat<std::__ndk1::basic_string<char, std::__ndk1::char_traits<char>, std::__ndk1::allocator<char> >, char const (&) [52], char const*>(char const (&) [52], char const*)
FUNC 26f5c 70 0 nlohmann::json_abi_v3_11_3::detail::concat<std::__ndk1::basic_string<char, std::__ndk1::char_traits<char>, std::__ndk1::allocator<char> >, char const (&) [51], char const*>(char const (&) [51], char const*)
FUNC 26fcc b4 0 std::__ndk1::__tree<std::__ndk1::__value_type<std::__ndk1::basic_string<char, std::__ndk1::char_traits<char>, std::__ndk1::allocator<char> >, nlohmann::json_abi_v3_11_3::basic_json<std::__ndk1::map, std::__ndk1::vector, std::__ndk1::basic_string<char, std::__ndk1::char_traits<char>, std::__ndk1::allocator<char> >, bool, long long, unsigned long long, double, std::__ndk1::allocator, nlohmann::json_abi_v3_11_3::adl_serializer, std::__ndk1::vector<unsigned char, std::__ndk1::allocator<unsigned char> >, void> >, std::__ndk1::__map_value_compare<std::__ndk1::basic_string<char, std::__ndk1::char_traits<char>, std::__ndk1::allocator<char> >, std::__ndk1::__value_type<std::__ndk1::basic_string<char, std::__ndk1::char_traits<char>, std::__ndk1::allocator<char> >, nlohmann::json_abi_v3_11_3::basic_json<std::__ndk1::map, std::__ndk1::vector, std::__ndk1::basic_string<char, std::__ndk1::char_traits<char>, std::__ndk1::allocator<char> >, bool, long long, unsigned long long, double, std::__ndk1::allocator, nlohmann::json_abi_v3_11_3::adl_serializer, std::__ndk1::vector<unsigned char, std::__ndk1::allocator<unsigned char> >, void> >, std::__ndk1::less<void>, true>, std::__ndk1::allocator<std::__ndk1::__value_type<std::__ndk1::basic_string<char, std::__ndk1::char_traits<char>, std::__ndk1::allocator<char> >, nlohmann::json_abi_v3_11_3::basic_json<std::__ndk1::map, std::__ndk1::vector, std::__ndk1::basic_string<char, std::__ndk1::char_traits<char>, std::__ndk1::allocator<char> >, bool, long long, unsigned long long, double, std::__ndk1::allocator, nlohmann::json_abi_v3_11_3::adl_serializer, std::__ndk1::vector<unsigned char, std::__ndk1::allocator<unsigned char> >, void> > > >::find<char [5]>(char const (&) [5])
FUNC 27080 13c 0 fmt::v11::detail::value<fmt::v11::context>::format_custom_arg<gd::string, fmt::v11::formatter<gd::string, char, void> >(void*, fmt::v11::basic_format_parse_context<char>&, fmt::v11::context&)
FUNC 271bc 468 0 fmt::v11::detail::parse_format_specs<char>(char const*, char const*, fmt::v11::detail::dynamic_format_specs<char>&, fmt::v11::basic_format_parse_context<char>&, fmt::v11::detail::type)
FUNC 27624 10c 0 fmt::v11::detail::parse_dynamic_spec<char>(char const*, char const*, int&, fmt::v11::detail::arg_ref<char>&, fmt::v11::basic_format_parse_context<char>&)
FUNC 27730 114 0 fmt::v11::detail::do_parse_arg_id<char, fmt::v11::detail::dynamic_spec_id_handler<char>&>(char const*, char const*, fmt::v11::detail::dynamic_spec_id_handler<char>&)
FUNC 27844 bc 0 fmt::v11::detail::handle_dynamic_spec<fmt::v11::detail::width_checker, fmt::v11::context>(int&, fmt::v11::detail::arg_ref<fmt::v11::context::char_type>, fmt::v11::context&)
FUNC 27900 bc 0 fmt::v11::detail::handle_dynamic_spec<fmt::v11::detail::precision_checker, fmt::v11::context>(int&, fmt::v11::detail::arg_ref<fmt::v11::context::char_type>, fmt::v11::context&)
FUNC 279bc 16c 0 fmt::v11::detail::write<char, fmt::v11::basic_appender<char> >(fmt::v11::basic_appender<char>, fmt::v11::basic_string_view<char>, fmt::v11::format_specs const&)
FUNC 27b28 118 0 fmt::v11::detail::write_escaped_string<char, fmt::v11::detail::counting_iterator>(fmt::v11::detail::counting_iterator, fmt::v11::basic_string_view<char>)
FUNC 27c40 120 0 fmt::v11::detail::write_padded<char, (fmt::v11::align::type)1, fmt::v11::basic_appender<char>, fmt::v11::detail::write<char, fmt::v11::basic_appender<char> >(fmt::v11::basic_appender<char>, fmt::v11::basic_string_view<char>, fmt::v11::format_specs const&)::{lambda(fmt::v11::basic_appender<char>)#1}>(fmt::v11::basic_appender<char>, fmt::v11::format_specs const&, unsigned int, unsigned int, fmt::v11::detail::write<char, fmt::v11::basic_appender<char> >(fmt::v11::basic_appender<char>, fmt::v11::basic_string_view<char>, fmt::v11::format_specs const&)::{lambda(fmt::v11::basic_appender<char>&&)#1})
FUNC 27d60 2c4 0 fmt::v11::detail::for_each_codepoint<fmt::v11::detail::code_point_index(fmt::v11::basic_string_view<char>, unsigned int)::{lambda(unsigned int, fmt::v11::basic_string_view<char>)#1}>(fmt::v11::basic_string_view<char>, fmt::v11::detail::code_point_index(fmt::v11::basic_string_view<char>, unsigned int)::{lambda(unsigned int, fmt::v11::basic_string_view<char>)#1})
FUNC 28024 10c 0 fmt::v11::detail::write_escaped_cp<fmt::v11::detail::counting_iterator, char>(fmt::v11::detail::counting_iterator, fmt::v11::detail::find_escape_result<char> const&)
FUNC 28130 124 0 fmt::v11::detail::for_each_codepoint<fmt::v11::detail::find_escape(char const*, char const*)::{lambda(unsigned int, fmt::v11::basic_string_view<char>)#1}>(fmt::v11::basic_string_view<char>, fmt::v11::detail::find_escape(char const*, char const*)::{lambda(unsigned int, fmt::v11::basic_string_view<char>)#1})::{lambda(char const*, char const*)#1}::operator()(char const*, char const*) const
FUNC 28260 1e4 0 fmt::v11::detail::for_each_codepoint<fmt::v11::detail::compute_width(fmt::v11::basic_string_view<char>)::count_code_points>(fmt::v11::basic_string_view<char>, fmt::v11::detail::compute_width(fmt::v11::basic_string_view<char>)::count_code_points)::{lambda(char const*, char const*)#1}::operator()(char const*, char const*) const
FUNC 28444 fa 0 fmt::v11::detail::fill<char, fmt::v11::basic_appender<char> >(fmt::v11::basic_appender<char>, unsigned int, fmt::v11::detail::fill_t const&)
FUNC 28540 1e4 0 fmt::v11::detail::write_escaped_string<char, fmt::v11::basic_appender<char> >(fmt::v11::basic_appender<char>, fmt::v11::basic_string_view<char>)
FUNC 28724 118 0 fmt::v11::detail::write_escaped_cp<fmt::v11::basic_appender<char>, char>(fmt::v11::basic_appender<char>, fmt::v11::detail::find_escape_result<char> const&)
FUNC 2883c e0 0 fmt::v11::detail::write_codepoint<(unsigned int)2, char, fmt::v11::basic_appender<char> >(fmt::v11::basic_appender<char>, char, unsigned int)
FUNC 2891c dc 0 fmt::v11::detail::write_codepoint<(unsigned int)4, char, fmt::v11::basic_appender<char> >(fmt::v11::basic_appender<char>, char, unsigned int)
FUNC 289f8 e0 0 fmt::v11::detail::write_codepoint<(unsigned int)8, char, fmt::v11::basic_appender<char> >(fmt::v11::basic_appender<char>, char, unsigned int)
FUNC 28ad8 60 0 fmt::v11::detail::get_dynamic_spec<fmt::v11::detail::width_checker, fmt::v11::basic_format_arg<fmt::v11::context> >(fmt::v11::basic_format_arg<fmt::v11::context>)
FUNC 28b38 106 0 fmt::v11::basic_format_args<fmt::v11::context>::get<char>(fmt::v11::basic_string_view<char>) const
FUNC 28c40 60 0 fmt::v11::detail::get_dynamic_spec<fmt::v11::detail::precision_checker, fmt::v11::basic_format_arg<fmt::v11::context> >(fmt::v11::basic_format_arg<fmt::v11::context>)
FUNC 28ca0 114 0 ProviderPopup::onToggler1PressMaybe(cocos2d::CCObject*)
FUNC 28db4 688 0 ProviderPopup::setupProviderBox(cocos2d::CCLayer*, LevelProvider*)
FUNC 2943c 3c 0 ProviderPopup::onExitButton(cocos2d::CCObject*)
FUNC 29478 190 0 ProviderPopup::onProviderInfoBtn(cocos2d::CCObject*)
FUNC 29608 1a 0 ProviderPopup::update(float)
FUNC 29624 c4 0 ProviderPopup::removeThumbnailForCell(LevelCell*)
FUNC 296e8 ad4 0 ProviderPopup::create(std::__ndk1::vector<std::__ndk1::shared_ptr<LevelProvider>, std::__ndk1::allocator<std::__ndk1::shared_ptr<LevelProvider> > >)
FUNC 2a1bc 26 0 ProviderPopup::registerWithTouchDispatcher()
FUNC 2a1e4 50 0 std::__ndk1::unordered_map<LevelProvider::LPFeatures, bool, std::__ndk1::hash<LevelProvider::LPFeatures>, std::__ndk1::equal_to<LevelProvider::LPFeatures>, std::__ndk1::allocator<std::__ndk1::pair<LevelProvider::LPFeatures const, bool> > >::operator[](LevelProvider::LPFeatures&&)
FUNC 2a234 a8 0 ProviderPopup::onPrevPage(cocos2d::CCObject*)
FUNC 2a2dc ac 0 ProviderPopup::onNextPage(cocos2d::CCObject*)
FUNC 2a388 4f8 0 ProviderPopup::setupProviderBoxOnPage(cocos2d::CCLayer*)
FUNC 2a880 614 0 ProviderPopup::setupLevelIDPage(cocos2d::CCLayer*)
FUNC 2ae94 620 0 ProviderPopup::setupGenericSearchPage(cocos2d::CCLayer*)
FUNC 2b4b4 6e8 0 ProviderPopup::setupSettingsPage(cocos2d::CCLayer*)
FUNC 2bb9c 448 0 ProviderPopup::onLevelIDSearch(cocos2d::CCObject*)
FUNC 2bfe4 52c 0 ProviderPopup::createLevelCell(GJGameLevel*, cocos2d::CCLayer*)
FUNC 2c510 470 0 ProviderPopup::onLevelPage(cocos2d::CCObject*)
FUNC 2c980 f0 0 ProviderPopup::setColorToButtonSprite(ButtonSprite*, cocos2d::_ccColor3B)
FUNC 2ca70 15c 0 ProviderPopup::isPageHasFeature(ProviderPopupInfo*, int)
FUNC 2cbcc 238 0 ProviderPopup::applyBottomButtons(cocos2d::CCLayer*)
FUNC 2ce04 528 0 ProviderPopup::onGenericSearch(cocos2d::CCObject*)
FUNC 2d32c 154 0 ProviderPopup::onCopyID(cocos2d::CCObject*)
FUNC 2d480 1ec 0 ProviderPopup::onPlayLevelDownload(cocos2d::CCObject*)
FUNC 2d66c 94 0 ProviderPopup::scenePrintError(float)
FUNC 2d700 4 0 cocos2d::CCCopying::copyWithZone(cocos2d::CCZone*)
FUNC 2d704 110 0 ProviderPopup::~ProviderPopup()
FUNC 2d814 10 0 ProviderPopup::~ProviderPopup()
FUNC 2d824 2 0 cocos2d::CCLayerRGBA::setOpacityModifyRGB(bool)
FUNC 2d826 4 0 cocos2d::CCLayerRGBA::isOpacityModifyRGB()
FUNC 2d82a 8 0 {virtual override thunk({offset(-264)}, ProviderPopup::~ProviderPopup())}
FUNC 2d832 14 0 {virtual override thunk({offset(-264)}, ProviderPopup::~ProviderPopup())}
FUNC 2d846 2 0 cocos2d::CCKeyboardDelegate::keyUp(cocos2d::enumKeyCodes)
FUNC 2d848 2 0 cocos2d::CCMouseDelegate::rightKeyDown()
FUNC 2d84a 2 0 cocos2d::CCMouseDelegate::rightKeyUp()
FUNC 2d84c 2 0 cocos2d::CCMouseDelegate::scrollWheel(float, float)
FUNC 2d84e 2 0 {virtual override thunk({offset(-316)}, cocos2d::CCLayerRGBA::setOpacityModifyRGB(bool))}
FUNC 2d850 4 0 {virtual override thunk({offset(-316)}, cocos2d::CCLayerRGBA::isOpacityModifyRGB())}
FUNC 2d854 10 0 std::__ndk1::vector<cocos2d::CCNode*, std::__ndk1::allocator<cocos2d::CCNode*> >::__throw_length_error[abi:ne180000]() const
FUNC 2d864 10 0 std::__ndk1::vector<LevelCell*, std::__ndk1::allocator<LevelCell*> >::__throw_length_error[abi:ne180000]() const
FUNC 2d874 4 0 std::__ndk1::__function::__func<ProviderPopup::setupLevelIDPage(cocos2d::CCLayer*)::$_0, std::__ndk1::allocator<ProviderPopup::setupLevelIDPage(cocos2d::CCLayer*)::$_0>, void (std::__ndk1::basic_string<char, std::__ndk1::char_traits<char>, std::__ndk1::allocator<char> > const&)>::~__func()
FUNC 2d878 20 0 std::__ndk1::__function::__func<ProviderPopup::setupLevelIDPage(cocos2d::CCLayer*)::$_0, std::__ndk1::allocator<ProviderPopup::setupLevelIDPage(cocos2d::CCLayer*)::$_0>, void (std::__ndk1::basic_string<char, std::__ndk1::char_traits<char>, std::__ndk1::allocator<char> > const&)>::__clone() const
FUNC 2d898 14 0 std::__ndk1::__function::__func<ProviderPopup::setupLevelIDPage(cocos2d::CCLayer*)::$_0, std::__ndk1::allocator<ProviderPopup::setupLevelIDPage(cocos2d::CCLayer*)::$_0>, void (std::__ndk1::basic_string<char, std::__ndk1::char_traits<char>, std::__ndk1::allocator<char> > const&)>::__clone(std::__ndk1::__function::__base<void (std::__ndk1::basic_string<char, std::__ndk1::char_traits<char>, std::__ndk1::allocator<char> > const&)>*) const
FUNC 2d8ac 2 0 std::__ndk1::__function::__func<ProviderPopup::setupLevelIDPage(cocos2d::CCLayer*)::$_0, std::__ndk1::allocator<ProviderPopup::setupLevelIDPage(cocos2d::CCLayer*)::$_0>, void (std::__ndk1::basic_string<char, std::__ndk1::char_traits<char>, std::__ndk1::allocator<char> > const&)>::destroy()
FUNC 2d8ae 4 0 std::__ndk1::__function::__func<ProviderPopup::setupLevelIDPage(cocos2d::CCLayer*)::$_0, std::__ndk1::allocator<ProviderPopup::setupLevelIDPage(cocos2d::CCLayer*)::$_0>, void (std::__ndk1::basic_string<char, std::__ndk1::char_traits<char>, std::__ndk1::allocator<char> > const&)>::destroy_deallocate()
FUNC 2d8b4 7c 0 std::__ndk1::__function::__func<ProviderPopup::setupLevelIDPage(cocos2d::CCLayer*)::$_0, std::__ndk1::allocator<ProviderPopup::setupLevelIDPage(cocos2d::CCLayer*)::$_0>, void (std::__ndk1::basic_string<char, std::__ndk1::char_traits<char>, std::__ndk1::allocator<char> > const&)>::operator()(std::__ndk1::basic_string<char, std::__ndk1::char_traits<char>, std::__ndk1::allocator<char> > const&)
FUNC 2d930 18 0 std::__ndk1::__function::__func<ProviderPopup::setupLevelIDPage(cocos2d::CCLayer*)::$_0, std::__ndk1::allocator<ProviderPopup::setupLevelIDPage(cocos2d::CCLayer*)::$_0>, void (std::__ndk1::basic_string<char, std::__ndk1::char_traits<char>, std::__ndk1::allocator<char> > const&)>::target(std::type_info const&) const
FUNC 2d948 c 0 std::__ndk1::__function::__func<ProviderPopup::setupLevelIDPage(cocos2d::CCLayer*)::$_0, std::__ndk1::allocator<ProviderPopup::setupLevelIDPage(cocos2d::CCLayer*)::$_0>, void (std::__ndk1::basic_string<char, std::__ndk1::char_traits<char>, std::__ndk1::allocator<char> > const&)>::target_type() const
FUNC 2d954 4 0 std::__ndk1::__function::__func<ProviderPopup::onLevelIDSearch(cocos2d::CCObject*)::$_0, std::__ndk1::allocator<ProviderPopup::onLevelIDSearch(cocos2d::CCObject*)::$_0>, void (LevelProvider*, GJGameLevel*)>::~__func()
FUNC 2d958 28 0 std::__ndk1::__function::__func<ProviderPopup::onLevelIDSearch(cocos2d::CCObject*)::$_0, std::__ndk1::allocator<ProviderPopup::onLevelIDSearch(cocos2d::CCObject*)::$_0>, void (LevelProvider*, GJGameLevel*)>::__clone() const
FUNC 2d980 1c 0 std::__ndk1::__function::__func<ProviderPopup::onLevelIDSearch(cocos2d::CCObject*)::$_0, std::__ndk1::allocator<ProviderPopup::onLevelIDSearch(cocos2d::CCObject*)::$_0>, void (LevelProvider*, GJGameLevel*)>::__clone(std::__ndk1::__function::__base<void (LevelProvider*, GJGameLevel*)>*) const
FUNC 2d99c 2 0 std::__ndk1::__function::__func<ProviderPopup::onLevelIDSearch(cocos2d::CCObject*)::$_0, std::__ndk1::allocator<ProviderPopup::onLevelIDSearch(cocos2d::CCObject*)::$_0>, void (LevelProvider*, GJGameLevel*)>::destroy()
FUNC 2d99e 4 0 std::__ndk1::__function::__func<ProviderPopup::onLevelIDSearch(cocos2d::CCObject*)::$_0, std::__ndk1::allocator<ProviderPopup::onLevelIDSearch(cocos2d::CCObject*)::$_0>, void (LevelProvider*, GJGameLevel*)>::destroy_deallocate()
FUNC 2d9a4 83c 0 std::__ndk1::__function::__func<ProviderPopup::onLevelIDSearch(cocos2d::CCObject*)::$_0, std::__ndk1::allocator<ProviderPopup::onLevelIDSearch(cocos2d::CCObject*)::$_0>, void (LevelProvider*, GJGameLevel*)>::operator()(LevelProvider*&&, GJGameLevel*&&)
FUNC 2e1e0 18 0 std::__ndk1::__function::__func<ProviderPopup::onLevelIDSearch(cocos2d::CCObject*)::$_0, std::__ndk1::allocator<ProviderPopup::onLevelIDSearch(cocos2d::CCObject*)::$_0>, void (LevelProvider*, GJGameLevel*)>::target(std::type_info const&) const
FUNC 2e1f8 c 0 std::__ndk1::__function::__func<ProviderPopup::onLevelIDSearch(cocos2d::CCObject*)::$_0, std::__ndk1::allocator<ProviderPopup::onLevelIDSearch(cocos2d::CCObject*)::$_0>, void (LevelProvider*, GJGameLevel*)>::target_type() const
FUNC 2e204 4 0 std::__ndk1::__function::__func<ProviderPopup::setupSettingsPage(cocos2d::CCLayer*)::$_0, std::__ndk1::allocator<ProviderPopup::setupSettingsPage(cocos2d::CCLayer*)::$_0>, void (std::__ndk1::basic_string<char, std::__ndk1::char_traits<char>, std::__ndk1::allocator<char> > const&)>::~__func()
FUNC 2e208 20 0 std::__ndk1::__function::__func<ProviderPopup::setupSettingsPage(cocos2d::CCLayer*)::$_0, std::__ndk1::allocator<ProviderPopup::setupSettingsPage(cocos2d::CCLayer*)::$_0>, void (std::__ndk1::basic_string<char, std::__ndk1::char_traits<char>, std::__ndk1::allocator<char> > const&)>::__clone() const
FUNC 2e228 14 0 std::__ndk1::__function::__func<ProviderPopup::setupSettingsPage(cocos2d::CCLayer*)::$_0, std::__ndk1::allocator<ProviderPopup::setupSettingsPage(cocos2d::CCLayer*)::$_0>, void (std::__ndk1::basic_string<char, std::__ndk1::char_traits<char>, std::__ndk1::allocator<char> > const&)>::__clone(std::__ndk1::__function::__base<void (std::__ndk1::basic_string<char, std::__ndk1::char_traits<char>, std::__ndk1::allocator<char> > const&)>*) const
FUNC 2e23c 2 0 std::__ndk1::__function::__func<ProviderPopup::setupSettingsPage(cocos2d::CCLayer*)::$_0, std::__ndk1::allocator<ProviderPopup::setupSettingsPage(cocos2d::CCLayer*)::$_0>, void (std::__ndk1::basic_string<char, std::__ndk1::char_traits<char>, std::__ndk1::allocator<char> > const&)>::destroy()
FUNC 2e23e 4 0 std::__ndk1::__function::__func<ProviderPopup::setupSettingsPage(cocos2d::CCLayer*)::$_0, std::__ndk1::allocator<ProviderPopup::setupSettingsPage(cocos2d::CCLayer*)::$_0>, void (std::__ndk1::basic_string<char, std::__ndk1::char_traits<char>, std::__ndk1::allocator<char> > const&)>::destroy_deallocate()
FUNC 2e244 7c 0 std::__ndk1::__function::__func<ProviderPopup::setupSettingsPage(cocos2d::CCLayer*)::$_0, std::__ndk1::allocator<ProviderPopup::setupSettingsPage(cocos2d::CCLayer*)::$_0>, void (std::__ndk1::basic_string<char, std::__ndk1::char_traits<char>, std::__ndk1::allocator<char> > const&)>::operator()(std::__ndk1::basic_string<char, std::__ndk1::char_traits<char>, std::__ndk1::allocator<char> > const&)
FUNC 2e2c0 18 0 std::__ndk1::__function::__func<ProviderPopup::setupSettingsPage(cocos2d::CCLayer*)::$_0, std::__ndk1::allocator<ProviderPopup::setupSettingsPage(cocos2d::CCLayer*)::$_0>, void (std::__ndk1::basic_string<char, std::__ndk1::char_traits<char>, std::__ndk1::allocator<char> > const&)>::target(std::type_info const&) const
FUNC 2e2d8 c 0 std::__ndk1::__function::__func<ProviderPopup::setupSettingsPage(cocos2d::CCLayer*)::$_0, std::__ndk1::allocator<ProviderPopup::setupSettingsPage(cocos2d::CCLayer*)::$_0>, void (std::__ndk1::basic_string<char, std::__ndk1::char_traits<char>, std::__ndk1::allocator<char> > const&)>::target_type() const
FUNC 2e2e4 4 0 std::__ndk1::__function::__func<ProviderPopup::setupSettingsPage(cocos2d::CCLayer*)::$_1, std::__ndk1::allocator<ProviderPopup::setupSettingsPage(cocos2d::CCLayer*)::$_1>, void (std::__ndk1::basic_string<char, std::__ndk1::char_traits<char>, std::__ndk1::allocator<char> > const&)>::~__func()
FUNC 2e2e8 20 0 std::__ndk1::__function::__func<ProviderPopup::setupSettingsPage(cocos2d::CCLayer*)::$_1, std::__ndk1::allocator<ProviderPopup::setupSettingsPage(cocos2d::CCLayer*)::$_1>, void (std::__ndk1::basic_string<char, std::__ndk1::char_traits<char>, std::__ndk1::allocator<char> > const&)>::__clone() const
FUNC 2e308 14 0 std::__ndk1::__function::__func<ProviderPopup::setupSettingsPage(cocos2d::CCLayer*)::$_1, std::__ndk1::allocator<ProviderPopup::setupSettingsPage(cocos2d::CCLayer*)::$_1>, void (std::__ndk1::basic_string<char, std::__ndk1::char_traits<char>, std::__ndk1::allocator<char> > const&)>::__clone(std::__ndk1::__function::__base<void (std::__ndk1::basic_string<char, std::__ndk1::char_traits<char>, std::__ndk1::allocator<char> > const&)>*) const
FUNC 2e31c 2 0 std::__ndk1::__function::__func<ProviderPopup::setupSettingsPage(cocos2d::CCLayer*)::$_1, std::__ndk1::allocator<ProviderPopup::setupSettingsPage(cocos2d::CCLayer*)::$_1>, void (std::__ndk1::basic_string<char, std::__ndk1::char_traits<char>, std::__ndk1::allocator<char> > const&)>::destroy()
FUNC 2e31e 4 0 std::__ndk1::__function::__func<ProviderPopup::setupSettingsPage(cocos2d::CCLayer*)::$_1, std::__ndk1::allocator<ProviderPopup::setupSettingsPage(cocos2d::CCLayer*)::$_1>, void (std::__ndk1::basic_string<char, std::__ndk1::char_traits<char>, std::__ndk1::allocator<char> > const&)>::destroy_deallocate()
FUNC 2e324 7c 0 std::__ndk1::__function::__func<ProviderPopup::setupSettingsPage(cocos2d::CCLayer*)::$_1, std::__ndk1::allocator<ProviderPopup::setupSettingsPage(cocos2d::CCLayer*)::$_1>, void (std::__ndk1::basic_string<char, std::__ndk1::char_traits<char>, std::__ndk1::allocator<char> > const&)>::operator()(std::__ndk1::basic_string<char, std::__ndk1::char_traits<char>, std::__ndk1::allocator<char> > const&)
FUNC 2e3a0 18 0 std::__ndk1::__function::__func<ProviderPopup::setupSettingsPage(cocos2d::CCLayer*)::$_1, std::__ndk1::allocator<ProviderPopup::setupSettingsPage(cocos2d::CCLayer*)::$_1>, void (std::__ndk1::basic_string<char, std::__ndk1::char_traits<char>, std::__ndk1::allocator<char> > const&)>::target(std::type_info const&) const
FUNC 2e3b8 c 0 std::__ndk1::__function::__func<ProviderPopup::setupSettingsPage(cocos2d::CCLayer*)::$_1, std::__ndk1::allocator<ProviderPopup::setupSettingsPage(cocos2d::CCLayer*)::$_1>, void (std::__ndk1::basic_string<char, std::__ndk1::char_traits<char>, std::__ndk1::allocator<char> > const&)>::target_type() const
FUNC 2e3c4 4 0 std::__ndk1::__function::__func<ProviderPopup::setupSettingsPage(cocos2d::CCLayer*)::$_2, std::__ndk1::allocator<ProviderPopup::setupSettingsPage(cocos2d::CCLayer*)::$_2>, void (std::__ndk1::basic_string<char, std::__ndk1::char_traits<char>, std::__ndk1::allocator<char> > const&)>::~__func()
FUNC 2e3c8 20 0 std::__ndk1::__function::__func<ProviderPopup::setupSettingsPage(cocos2d::CCLayer*)::$_2, std::__ndk1::allocator<ProviderPopup::setupSettingsPage(cocos2d::CCLayer*)::$_2>, void (std::__ndk1::basic_string<char, std::__ndk1::char_traits<char>, std::__ndk1::allocator<char> > const&)>::__clone() const
FUNC 2e3e8 14 0 std::__ndk1::__function::__func<ProviderPopup::setupSettingsPage(cocos2d::CCLayer*)::$_2, std::__ndk1::allocator<ProviderPopup::setupSettingsPage(cocos2d::CCLayer*)::$_2>, void (std::__ndk1::basic_string<char, std::__ndk1::char_traits<char>, std::__ndk1::allocator<char> > const&)>::__clone(std::__ndk1::__function::__base<void (std::__ndk1::basic_string<char, std::__ndk1::char_traits<char>, std::__ndk1::allocator<char> > const&)>*) const
FUNC 2e3fc 2 0 std::__ndk1::__function::__func<ProviderPopup::setupSettingsPage(cocos2d::CCLayer*)::$_2, std::__ndk1::allocator<ProviderPopup::setupSettingsPage(cocos2d::CCLayer*)::$_2>, void (std::__ndk1::basic_string<char, std::__ndk1::char_traits<char>, std::__ndk1::allocator<char> > const&)>::destroy()
FUNC 2e3fe 4 0 std::__ndk1::__function::__func<ProviderPopup::setupSettingsPage(cocos2d::CCLayer*)::$_2, std::__ndk1::allocator<ProviderPopup::setupSettingsPage(cocos2d::CCLayer*)::$_2>, void (std::__ndk1::basic_string<char, std::__ndk1::char_traits<char>, std::__ndk1::allocator<char> > const&)>::destroy_deallocate()
FUNC 2e404 e0 0 std::__ndk1::__function::__func<ProviderPopup::setupSettingsPage(cocos2d::CCLayer*)::$_2, std::__ndk1::allocator<ProviderPopup::setupSettingsPage(cocos2d::CCLayer*)::$_2>, void (std::__ndk1::basic_string<char, std::__ndk1::char_traits<char>, std::__ndk1::allocator<char> > const&)>::operator()(std::__ndk1::basic_string<char, std::__ndk1::char_traits<char>, std::__ndk1::allocator<char> > const&)
FUNC 2e4e4 18 0 std::__ndk1::__function::__func<ProviderPopup::setupSettingsPage(cocos2d::CCLayer*)::$_2, std::__ndk1::allocator<ProviderPopup::setupSettingsPage(cocos2d::CCLayer*)::$_2>, void (std::__ndk1::basic_string<char, std::__ndk1::char_traits<char>, std::__ndk1::allocator<char> > const&)>::target(std::type_info const&) const
FUNC 2e4fc c 0 std::__ndk1::__function::__func<ProviderPopup::setupSettingsPage(cocos2d::CCLayer*)::$_2, std::__ndk1::allocator<ProviderPopup::setupSettingsPage(cocos2d::CCLayer*)::$_2>, void (std::__ndk1::basic_string<char, std::__ndk1::char_traits<char>, std::__ndk1::allocator<char> > const&)>::target_type() const
FUNC 2e508 2 0 std::__ndk1::__function::__base<void (std::__ndk1::basic_string<char, std::__ndk1::char_traits<char>, std::__ndk1::allocator<char> > const&)>::~__base()
FUNC 2e50a 4 0 std::__ndk1::__function::__func<ProviderPopup::setupGenericSearchPage(cocos2d::CCLayer*)::$_0, std::__ndk1::allocator<ProviderPopup::setupGenericSearchPage(cocos2d::CCLayer*)::$_0>, void (std::__ndk1::basic_string<char, std::__ndk1::char_traits<char>, std::__ndk1::allocator<char> > const&)>::~__func()
FUNC 2e510 20 0 std::__ndk1::__function::__func<ProviderPopup::setupGenericSearchPage(cocos2d::CCLayer*)::$_0, std::__ndk1::allocator<ProviderPopup::setupGenericSearchPage(cocos2d::CCLayer*)::$_0>, void (std::__ndk1::basic_string<char, std::__ndk1::char_traits<char>, std::__ndk1::allocator<char> > const&)>::__clone() const
FUNC 2e530 14 0 std::__ndk1::__function::__func<ProviderPopup::setupGenericSearchPage(cocos2d::CCLayer*)::$_0, std::__ndk1::allocator<ProviderPopup::setupGenericSearchPage(cocos2d::CCLayer*)::$_0>, void (std::__ndk1::basic_string<char, std::__ndk1::char_traits<char>, std::__ndk1::allocator<char> > const&)>::__clone(std::__ndk1::__function::__base<void (std::__ndk1::basic_string<char, std::__ndk1::char_traits<char>, std::__ndk1::allocator<char> > const&)>*) const
FUNC 2e544 2 0 std::__ndk1::__function::__func<ProviderPopup::setupGenericSearchPage(cocos2d::CCLayer*)::$_0, std::__ndk1::allocator<ProviderPopup::setupGenericSearchPage(cocos2d::CCLayer*)::$_0>, void (std::__ndk1::basic_string<char, std::__ndk1::char_traits<char>, std::__ndk1::allocator<char> > const&)>::destroy()
FUNC 2e546 4 0 std::__ndk1::__function::__func<ProviderPopup::setupGenericSearchPage(cocos2d::CCLayer*)::$_0, std::__ndk1::allocator<ProviderPopup::setupGenericSearchPage(cocos2d::CCLayer*)::$_0>, void (std::__ndk1::basic_string<char, std::__ndk1::char_traits<char>, std::__ndk1::allocator<char> > const&)>::destroy_deallocate()
FUNC 2e54c 7c 0 std::__ndk1::__function::__func<ProviderPopup::setupGenericSearchPage(cocos2d::CCLayer*)::$_0, std::__ndk1::allocator<ProviderPopup::setupGenericSearchPage(cocos2d::CCLayer*)::$_0>, void (std::__ndk1::basic_string<char, std::__ndk1::char_traits<char>, std::__ndk1::allocator<char> > const&)>::operator()(std::__ndk1::basic_string<char, std::__ndk1::char_traits<char>, std::__ndk1::allocator<char> > const&)
FUNC 2e5c8 18 0 std::__ndk1::__function::__func<ProviderPopup::setupGenericSearchPage(cocos2d::CCLayer*)::$_0, std::__ndk1::allocator<ProviderPopup::setupGenericSearchPage(cocos2d::CCLayer*)::$_0>, void (std::__ndk1::basic_string<char, std::__ndk1::char_traits<char>, std::__ndk1::allocator<char> > const&)>::target(std::type_info const&) const
FUNC 2e5e0 c 0 std::__ndk1::__function::__func<ProviderPopup::setupGenericSearchPage(cocos2d::CCLayer*)::$_0, std::__ndk1::allocator<ProviderPopup::setupGenericSearchPage(cocos2d::CCLayer*)::$_0>, void (std::__ndk1::basic_string<char, std::__ndk1::char_traits<char>, std::__ndk1::allocator<char> > const&)>::target_type() const
FUNC 2e5ec 2 0 std::__ndk1::__function::__base<void (LevelProvider*, GJGameLevel*)>::~__base()
FUNC 2e5ee 4 0 std::__ndk1::__function::__func<ProviderPopup::onGenericSearch(cocos2d::CCObject*)::$_0, std::__ndk1::allocator<ProviderPopup::onGenericSearch(cocos2d::CCObject*)::$_0>, void (LevelProvider*, GJGameLevel*)>::~__func()
FUNC 2e5f4 28 0 std::__ndk1::__function::__func<ProviderPopup::onGenericSearch(cocos2d::CCObject*)::$_0, std::__ndk1::allocator<ProviderPopup::onGenericSearch(cocos2d::CCObject*)::$_0>, void (LevelProvider*, GJGameLevel*)>::__clone() const
FUNC 2e61c 1c 0 std::__ndk1::__function::__func<ProviderPopup::onGenericSearch(cocos2d::CCObject*)::$_0, std::__ndk1::allocator<ProviderPopup::onGenericSearch(cocos2d::CCObject*)::$_0>, void (LevelProvider*, GJGameLevel*)>::__clone(std::__ndk1::__function::__base<void (LevelProvider*, GJGameLevel*)>*) const
FUNC 2e638 2 0 std::__ndk1::__function::__func<ProviderPopup::onGenericSearch(cocos2d::CCObject*)::$_0, std::__ndk1::allocator<ProviderPopup::onGenericSearch(cocos2d::CCObject*)::$_0>, void (LevelProvider*, GJGameLevel*)>::destroy()
FUNC 2e63a 4 0 std::__ndk1::__function::__func<ProviderPopup::onGenericSearch(cocos2d::CCObject*)::$_0, std::__ndk1::allocator<ProviderPopup::onGenericSearch(cocos2d::CCObject*)::$_0>, void (LevelProvider*, GJGameLevel*)>::destroy_deallocate()
FUNC 2e640 7ac 0 std::__ndk1::__function::__func<ProviderPopup::onGenericSearch(cocos2d::CCObject*)::$_0, std::__ndk1::allocator<ProviderPopup::onGenericSearch(cocos2d::CCObject*)::$_0>, void (LevelProvider*, GJGameLevel*)>::operator()(LevelProvider*&&, GJGameLevel*&&)
FUNC 2edec 18 0 std::__ndk1::__function::__func<ProviderPopup::onGenericSearch(cocos2d::CCObject*)::$_0, std::__ndk1::allocator<ProviderPopup::onGenericSearch(cocos2d::CCObject*)::$_0>, void (LevelProvider*, GJGameLevel*)>::target(std::type_info const&) const
FUNC 2ee04 c 0 std::__ndk1::__function::__func<ProviderPopup::onGenericSearch(cocos2d::CCObject*)::$_0, std::__ndk1::allocator<ProviderPopup::onGenericSearch(cocos2d::CCObject*)::$_0>, void (LevelProvider*, GJGameLevel*)>::target_type() const
FUNC 2ee10 2 0 std::__ndk1::__function::__base<void (LevelProvider*, std::__ndk1::basic_string<char, std::__ndk1::char_traits<char>, std::__ndk1::allocator<char> >, LevelProvider::BasicLevelInformation)>::~__base()
FUNC 2ee12 4 0 std::__ndk1::__function::__func<ProviderPopup::onPlayLevelDownload(cocos2d::CCObject*)::$_0, std::__ndk1::allocator<ProviderPopup::onPlayLevelDownload(cocos2d::CCObject*)::$_0>, void (LevelProvider*, std::__ndk1::basic_string<char, std::__ndk1::char_traits<char>, std::__ndk1::allocator<char> >, LevelProvider::BasicLevelInformation)>::~__func()
FUNC 2ee18 28 0 std::__ndk1::__function::__func<ProviderPopup::onPlayLevelDownload(cocos2d::CCObject*)::$_0, std::__ndk1::allocator<ProviderPopup::onPlayLevelDownload(cocos2d::CCObject*)::$_0>, void (LevelProvider*, std::__ndk1::basic_string<char, std::__ndk1::char_traits<char>, std::__ndk1::allocator<char> >, LevelProvider::BasicLevelInformation)>::__clone() const
FUNC 2ee40 1c 0 std::__ndk1::__function::__func<ProviderPopup::onPlayLevelDownload(cocos2d::CCObject*)::$_0, std::__ndk1::allocator<ProviderPopup::onPlayLevelDownload(cocos2d::CCObject*)::$_0>, void (LevelProvider*, std::__ndk1::basic_string<char, std::__ndk1::char_traits<char>, std::__ndk1::allocator<char> >, LevelProvider::BasicLevelInformation)>::__clone(std::__ndk1::__function::__base<void (LevelProvider*, std::__ndk1::basic_string<char, std::__ndk1::char_traits<char>, std::__ndk1::allocator<char> >, LevelProvider::BasicLevelInformation)>*) const
FUNC 2ee5c 2 0 std::__ndk1::__function::__func<ProviderPopup::onPlayLevelDownload(cocos2d::CCObject*)::$_0, std::__ndk1::allocator<ProviderPopup::onPlayLevelDownload(cocos2d::CCObject*)::$_0>, void (LevelProvider*, std::__ndk1::basic_string<char, std::__ndk1::char_traits<char>, std::__ndk1::allocator<char> >, LevelProvider::BasicLevelInformation)>::destroy()
FUNC 2ee5e 4 0 std::__ndk1::__function::__func<ProviderPopup::onPlayLevelDownload(cocos2d::CCObject*)::$_0, std::__ndk1::allocator<ProviderPopup::onPlayLevelDownload(cocos2d::CCObject*)::$_0>, void (LevelProvider*, std::__ndk1::basic_string<char, std::__ndk1::char_traits<char>, std::__ndk1::allocator<char> >, LevelProvider::BasicLevelInformation)>::destroy_deallocate()
FUNC 2ee64 34c 0 std::__ndk1::__function::__func<ProviderPopup::onPlayLevelDownload(cocos2d::CCObject*)::$_0, std::__ndk1::allocator<ProviderPopup::onPlayLevelDownload(cocos2d::CCObject*)::$_0>, void (LevelProvider*, std::__ndk1::basic_string<char, std::__ndk1::char_traits<char>, std::__ndk1::allocator<char> >, LevelProvider::BasicLevelInformation)>::operator()(LevelProvider*&&, std::__ndk1::basic_string<char, std::__ndk1::char_traits<char>, std::__ndk1::allocator<char> >&&, LevelProvider::BasicLevelInformation&&)
FUNC 2f1b0 18 0 std::__ndk1::__function::__func<ProviderPopup::onPlayLevelDownload(cocos2d::CCObject*)::$_0, std::__ndk1::allocator<ProviderPopup::onPlayLevelDownload(cocos2d::CCObject*)::$_0>, void (LevelProvider*, std::__ndk1::basic_string<char, std::__ndk1::char_traits<char>, std::__ndk1::allocator<char> >, LevelProvider::BasicLevelInformation)>::target(std::type_info const&) const
FUNC 2f1c8 c 0 std::__ndk1::__function::__func<ProviderPopup::onPlayLevelDownload(cocos2d::CCObject*)::$_0, std::__ndk1::allocator<ProviderPopup::onPlayLevelDownload(cocos2d::CCObject*)::$_0>, void (LevelProvider*, std::__ndk1::basic_string<char, std::__ndk1::char_traits<char>, std::__ndk1::allocator<char> >, LevelProvider::BasicLevelInformation)>::target_type() const
FUNC 2f1d4 20 0 _GLOBAL__sub_I_ProviderPopup.cpp
FUNC 2f1f4 84 0 LevelProvider::setParameter(LevelProvider::LPFeatures, int)
FUNC 2f278 ec 0 LevelProvider::setParameter(LevelProvider::LPFeatures, std::__ndk1::basic_string<char, std::__ndk1::char_traits<char>, std::__ndk1::allocator<char> >)
FUNC 2f364 a 0 LevelProvider::askMultipleLevels()
FUNC 2f370 2a0 0 LevelProvider::url_encode(std::__ndk1::basic_string<char, std::__ndk1::char_traits<char>, std::__ndk1::allocator<char> >)
FUNC 2f610 60 0 std::__ndk1::basic_ostringstream<char, std::__ndk1::char_traits<char>, std::__ndk1::allocator<char> >::~basic_ostringstream()
FUNC 2f670 26 0 LevelProvider::getErrorCode()
FUNC 2f698 38 0 LevelProvider::getDescription()
FUNC 2f6d0 154 0 std::__ndk1::operator==[abi:ne180000]<LevelProvider::LPFeatures, std::__ndk1::variant<std::__ndk1::basic_string<char, std::__ndk1::char_traits<char>, std::__ndk1::allocator<char> >, int>, std::__ndk1::hash<LevelProvider>, std::__ndk1::equal_to<LevelProvider>, std::__ndk1::char_traits<char><std::__ndk1::pair<LevelProvider const, std::__ndk1::basic_string<char, std::__ndk1::char_traits<char>, std::__ndk1::allocator<char> > > > >(std::__ndk1::unordered_map<LevelProvider::LPFeatures, std::__ndk1::variant<std::__ndk1::basic_string<char, std::__ndk1::char_traits<char>, std::__ndk1::allocator<char> >, int>, std::__ndk1::hash<LevelProvider>, std::__ndk1::equal_to<LevelProvider>, std::__ndk1::char_traits<char><std::__ndk1::pair<LevelProvider const, std::__ndk1::basic_string<char, std::__ndk1::char_traits<char>, std::__ndk1::allocator<char> > > > > const&, std::__ndk1::unordered_map<LevelProvider::LPFeatures, std::__ndk1::variant<std::__ndk1::basic_string<char, std::__ndk1::char_traits<char>, std::__ndk1::allocator<char> >, int>, std::__ndk1::hash<LevelProvider>, std::__ndk1::equal_to<LevelProvider>, std::__ndk1::char_traits<char><std::__ndk1::pair<LevelProvider const, std::__ndk1::basic_string<char, std::__ndk1::char_traits<char>, std::__ndk1::allocator<char> > > > > const)
FUNC 2f824 4 0 LevelProvider::getTimestampMaxDiff()
FUNC 2f828 98 0 LevelProvider::cleanupParameters()
FUNC 2f8c0 7e 0 std::__ndk1::__variant_detail::__visitation::__base::__dispatcher<(unsigned int)0, (unsigned int)0>::__dispatch[abi:ne180000]<std::__ndk1::__variant_detail::__visitation::__variant::__value_visitor<std::__ndk1::__convert_to_bool<std::__ndk1::equal_to<void> > >&&, std::__ndk1::__variant_detail::__base<(std::__ndk1::__variant_detail::_Trait)1, std::__ndk1::basic_string<char, std::__ndk1::char_traits<char>, std::__ndk1::allocator<char> >, int> const&, std::__ndk1::__variant_detail::__base<(std::__ndk1::__variant_detail::_Trait)1, std::__ndk1::basic_string<char, std::__ndk1::char_traits<char>, std::__ndk1::allocator<char> >, int> const>(std::__ndk1::__variant_detail::__visitation::__variant::__value_visitor<std::__ndk1::__convert_to_bool<std::__ndk1::equal_to<void> > >&&, std::__ndk1::__variant_detail::__base<(std::__ndk1::__variant_detail::_Trait)1, std::__ndk1::basic_string<char, std::__ndk1::char_traits<char>, std::__ndk1::allocator<char> >, int> const&, std::__ndk1::__variant_detail::__base<(std::__ndk1::__variant_detail::_Trait)1, std::__ndk1::basic_string<char, std::__ndk1::char_traits<char>, std::__ndk1::allocator<char> >, int> const)
FUNC 2f93e e 0 std::__ndk1::__variant_detail::__visitation::__base::__dispatcher<(unsigned int)1, (unsigned int)1>::__dispatch[abi:ne180000]<std::__ndk1::__variant_detail::__visitation::__variant::__value_visitor<std::__ndk1::__convert_to_bool<std::__ndk1::equal_to<void> > >&&, std::__ndk1::__variant_detail::__base<(std::__ndk1::__variant_detail::_Trait)1, std::__ndk1::basic_string<char, std::__ndk1::char_traits<char>, std::__ndk1::allocator<char> >, int> const&, std::__ndk1::__variant_detail::__base<(std::__ndk1::__variant_detail::_Trait)1, std::__ndk1::basic_string<char, std::__ndk1::char_traits<char>, std::__ndk1::allocator<char> >, int> const>(std::__ndk1::__variant_detail::__visitation::__variant::__value_visitor<std::__ndk1::__convert_to_bool<std::__ndk1::equal_to<void> > >&&, std::__ndk1::__variant_detail::__base<(std::__ndk1::__variant_detail::_Trait)1, std::__ndk1::basic_string<char, std::__ndk1::char_traits<char>, std::__ndk1::allocator<char> >, int> const&, std::__ndk1::__variant_detail::__base<(std::__ndk1::__variant_detail::_Trait)1, std::__ndk1::basic_string<char, std::__ndk1::char_traits<char>, std::__ndk1::allocator<char> >, int> const)
FUNC 2f94c 2a4 0 std::__ndk1::__hash_table<std::__ndk1::__hash_value_type<LevelProvider::LPFeatures, std::__ndk1::variant<std::__ndk1::basic_string<char, std::__ndk1::char_traits<char>, std::__ndk1::allocator<char> >, int> >, std::__ndk1::__unordered_map_hasher<LevelProvider::LPFeatures, std::__ndk1::__hash_value_type<LevelProvider::LPFeatures, std::__ndk1::variant<std::__ndk1::basic_string<char, std::__ndk1::char_traits<char>, std::__ndk1::allocator<char> >, int> >, std::__ndk1::hash<LevelProvider::LPFeatures>, std::__ndk1::equal_to<LevelProvider::LPFeatures>, true>, std::__ndk1::__unordered_map_equal<LevelProvider::LPFeatures, std::__ndk1::__hash_value_type<LevelProvider::LPFeatures, std::__ndk1::variant<std::__ndk1::basic_string<char, std::__ndk1::char_traits<char>, std::__ndk1::allocator<char> >, int> >, std::__ndk1::equal_to<LevelProvider::LPFeatures>, std::__ndk1::hash<LevelProvider::LPFeatures>, true>, std::__ndk1::allocator<std::__ndk1::__hash_value_type<LevelProvider::LPFeatures, std::__ndk1::variant<std::__ndk1::basic_string<char, std::__ndk1::char_traits<char>, std::__ndk1::allocator<char> >, int> > > >::__emplace_unique_key_args<LevelProvider::LPFeatures, std::__ndk1::piecewise_construct_t const&, std::__ndk1::tuple<LevelProvider::LPFeatures const&>, std::__ndk1::tuple<> >(LevelProvider::LPFeatures const&, std::__ndk1::piecewise_construct_t const&, std::__ndk1::tuple<LevelProvider::LPFeatures const&>, std::__ndk1::tuple<>)
FUNC 2fbf0 40 0 LoadingCircleLayer::init()
FUNC 2fc30 36 0 LoadingCircleLayer::update(float)
FUNC 2fc66 10 0 LoadingCircleLayer::~LoadingCircleLayer()
FUNC 2fc76 8 0 {virtual override thunk({offset(-264)}, LoadingCircleLayer::~LoadingCircleLayer())}
FUNC 2fc7e 14 0 {virtual override thunk({offset(-264)}, LoadingCircleLayer::~LoadingCircleLayer())}
FUNC 2fc94 1e8 0 ProviderPopupWait::init()
FUNC 2fe7c 2 0 ProviderPopupWait::cleanup()
FUNC 2fe7e 10 0 ProviderPopupWait::~ProviderPopupWait()
FUNC 2fe8e 8 0 {virtual override thunk({offset(-264)}, ProviderPopupWait::~ProviderPopupWait())}
FUNC 2fe96 14 0 {virtual override thunk({offset(-264)}, ProviderPopupWait::~ProviderPopupWait())}
FUNC 2feac 78 0 GeodeNetwork::setOkCallback(std::__ndk1::function<void (GeodeNetwork*)>)
FUNC 2ff24 7c 0 GeodeNetwork::setErrorCallback(std::__ndk1::function<void (GeodeNetwork*)>)
FUNC 2ffa0 52 0 GeodeNetwork::setURL(std::__ndk1::basic_string<char, std::__ndk1::char_traits<char>, std::__ndk1::allocator<char> >)
FUNC 2fff4 164 0 GeodeNetwork::send()
FUNC 30158 3a 0 geode::Task<geode::utils::web::WebResponse, geode::utils::web::WebProgress>::~Task()
FUNC 30194 1bc 0 GeodeNetwork::GeodeNetwork()
FUNC 30350 cc 0 std::__ndk1::__function::__value_func<void (GeodeNetwork*)>::swap[abi:ne180000](std::__ndk1::__function::__value_func<void (GeodeNetwork*)>&)
FUNC 3041c 168 0 geode::Task<geode::utils::web::WebResponse, geode::utils::web::WebProgress>::setListener(geode::EventListenerProtocol*)
FUNC 30584 3a 0 geode::Task<geode::utils::web::WebResponse, geode::utils::web::WebProgress>::setListener(geode::EventListenerProtocol*)::{lambda()#1}::~{lambda()#1}()
FUNC 305be 3a 0 geode::Task<geode::utils::web::WebResponse, geode::utils::web::WebProgress>::setListener(geode::EventListenerProtocol*)::{lambda()#2}::~{lambda()#2}()
FUNC 305f8 48 0 std::__ndk1::__function::__func<geode::Task<geode::utils::web::WebResponse, geode::utils::web::WebProgress>::setListener(geode::EventListenerProtocol*)::{lambda()#1}, std::__ndk1::allocator<geode::Task<geode::utils::web::WebResponse, geode::utils::web::WebProgress>::setListener(geode::EventListenerProtocol*)::{lambda()#1}>, void ()>::~__func()
FUNC 30640 54 0 std::__ndk1::__function::__func<geode::Task<geode::utils::web::WebResponse, geode::utils::web::WebProgress>::setListener(geode::EventListenerProtocol*)::{lambda()#1}, std::__ndk1::allocator<geode::Task<geode::utils::web::WebResponse, geode::utils::web::WebProgress>::setListener(geode::EventListenerProtocol*)::{lambda()#1}>, void ()>::~__func()
FUNC 30694 40 0 std::__ndk1::__function::__func<geode::Task<geode::utils::web::WebResponse, geode::utils::web::WebProgress>::setListener(geode::EventListenerProtocol*)::{lambda()#1}, std::__ndk1::allocator<geode::Task<geode::utils::web::WebResponse, geode::utils::web::WebProgress>::setListener(geode::EventListenerProtocol*)::{lambda()#1}>, void ()>::__clone() const
FUNC 306d4 34 0 std::__ndk1::__function::__func<geode::Task<geode::utils::web::WebResponse, geode::utils::web::WebProgress>::setListener(geode::EventListenerProtocol*)::{lambda()#1}, std::__ndk1::allocator<geode::Task<geode::utils::web::WebResponse, geode::utils::web::WebProgress>::setListener(geode::EventListenerProtocol*)::{lambda()#1}>, void ()>::__clone(std::__ndk1::__function::__base<void ()>*) const
FUNC 30708 3a 0 std::__ndk1::__function::__func<geode::Task<geode::utils::web::WebResponse, geode::utils::web::WebProgress>::setListener(geode::EventListenerProtocol*)::{lambda()#1}, std::__ndk1::allocator<geode::Task<geode::utils::web::WebResponse, geode::utils::web::WebProgress>::setListener(geode::EventListenerProtocol*)::{lambda()#1}>, void ()>::destroy()
FUNC 30742 44 0 std::__ndk1::__function::__func<geode::Task<geode::utils::web::WebResponse, geode::utils::web::WebProgress>::setListener(geode::EventListenerProtocol*)::{lambda()#1}, std::__ndk1::allocator<geode::Task<geode::utils::web::WebResponse, geode::utils::web::WebProgress>::setListener(geode::EventListenerProtocol*)::{lambda()#1}>, void ()>::destroy_deallocate()
FUNC 30788 150 0 std::__ndk1::__function::__func<geode::Task<geode::utils::web::WebResponse, geode::utils::web::WebProgress>::setListener(geode::EventListenerProtocol*)::{lambda()#1}, std::__ndk1::allocator<geode::Task<geode::utils::web::WebResponse, geode::utils::web::WebProgress>::setListener(geode::EventListenerProtocol*)::{lambda()#1}>, void ()>::operator()()
FUNC 308d8 18 0 std::__ndk1::__function::__func<geode::Task<geode::utils::web::WebResponse, geode::utils::web::WebProgress>::setListener(geode::EventListenerProtocol*)::{lambda()#1}, std::__ndk1::allocator<geode::Task<geode::utils::web::WebResponse, geode::utils::web::WebProgress>::setListener(geode::EventListenerProtocol*)::{lambda()#1}>, void ()>::target(std::type_info const&) const
FUNC 308f0 c 0 std::__ndk1::__function::__func<geode::Task<geode::utils::web::WebResponse, geode::utils::web::WebProgress>::setListener(geode::EventListenerProtocol*)::{lambda()#1}, std::__ndk1::allocator<geode::Task<geode::utils::web::WebResponse, geode::utils::web::WebProgress>::setListener(geode::EventListenerProtocol*)::{lambda()#1}>, void ()>::target_type() const
FUNC 308fc 44 0 geode::Task<geode::utils::web::WebResponse, geode::utils::web::WebProgress>::Event::~Event()
FUNC 30940 40 0 geode::Task<geode::utils::web::WebResponse, geode::utils::web::WebProgress>::Event::~Event()
FUNC 30980 48 0 std::__ndk1::__function::__func<geode::Task<geode::utils::web::WebResponse, geode::utils::web::WebProgress>::setListener(geode::EventListenerProtocol*)::{lambda()#2}, std::__ndk1::allocator<geode::Task<geode::utils::web::WebResponse, geode::utils::web::WebProgress>::setListener(geode::EventListenerProtocol*)::{lambda()#2}>, void ()>::~__func()
FUNC 309c8 54 0 std::__ndk1::__function::__func<geode::Task<geode::utils::web::WebResponse, geode::utils::web::WebProgress>::setListener(geode::EventListenerProtocol*)::{lambda()#2}, std::__ndk1::allocator<geode::Task<geode::utils::web::WebResponse, geode::utils::web::WebProgress>::setListener(geode::EventListenerProtocol*)::{lambda()#2}>, void ()>::~__func()
FUNC 30a1c 3c 0 std::__ndk1::__function::__func<geode::Task<geode::utils::web::WebResponse, geode::utils::web::WebProgress>::setListener(geode::EventListenerProtocol*)::{lambda()#2}, std::__ndk1::allocator<geode::Task<geode::utils::web::WebResponse, geode::utils::web::WebProgress>::setListener(geode::EventListenerProtocol*)::{lambda()#2}>, void ()>::__clone() const
FUNC 30a58 30 0 std::__ndk1::__function::__func<geode::Task<geode::utils::web::WebResponse, geode::utils::web::WebProgress>::setListener(geode::EventListenerProtocol*)::{lambda()#2}, std::__ndk1::allocator<geode::Task<geode::utils::web::WebResponse, geode::utils::web::WebProgress>::setListener(geode::EventListenerProtocol*)::{lambda()#2}>, void ()>::__clone(std::__ndk1::__function::__base<void ()>*) const
FUNC 30a88 3a 0 std::__ndk1::__function::__func<geode::Task<geode::utils::web::WebResponse, geode::utils::web::WebProgress>::setListener(geode::EventListenerProtocol*)::{lambda()#2}, std::__ndk1::allocator<geode::Task<geode::utils::web::WebResponse, geode::utils::web::WebProgress>::setListener(geode::EventListenerProtocol*)::{lambda()#2}>, void ()>::destroy()
FUNC 30ac2 44 0 std::__ndk1::__function::__func<geode::Task<geode::utils::web::WebResponse, geode::utils::web::WebProgress>::setListener(geode::EventListenerProtocol*)::{lambda()#2}, std::__ndk1::allocator<geode::Task<geode::utils::web::WebResponse, geode::utils::web::WebProgress>::setListener(geode::EventListenerProtocol*)::{lambda()#2}>, void ()>::destroy_deallocate()
FUNC 30b08 150 0 std::__ndk1::__function::__func<geode::Task<geode::utils::web::WebResponse, geode::utils::web::WebProgress>::setListener(geode::EventListenerProtocol*)::{lambda()#2}, std::__ndk1::allocator<geode::Task<geode::utils::web::WebResponse, geode::utils::web::WebProgress>::setListener(geode::EventListenerProtocol*)::{lambda()#2}>, void ()>::operator()()
FUNC 30c58 18 0 std::__ndk1::__function::__func<geode::Task<geode::utils::web::WebResponse, geode::utils::web::WebProgress>::setListener(geode::EventListenerProtocol*)::{lambda()#2}, std::__ndk1::allocator<geode::Task<geode::utils::web::WebResponse, geode::utils::web::WebProgress>::setListener(geode::EventListenerProtocol*)::{lambda()#2}>, void ()>::target(std::type_info const&) const
FUNC 30c70 c 0 std::__ndk1::__function::__func<geode::Task<geode::utils::web::WebResponse, geode::utils::web::WebProgress>::setListener(geode::EventListenerProtocol*)::{lambda()#2}, std::__ndk1::allocator<geode::Task<geode::utils::web::WebResponse, geode::utils::web::WebProgress>::setListener(geode::EventListenerProtocol*)::{lambda()#2}>, void ()>::target_type() const
FUNC 30c7c 2 0 std::__ndk1::__function::__base<void (geode::Task<geode::utils::web::WebResponse, geode::utils::web::WebProgress>::Event*)>::~__base()
FUNC 30c7e 4 0 std::__ndk1::__function::__func<GeodeNetwork::setupListener()::$_0, std::__ndk1::allocator<GeodeNetwork::setupListener()::$_0>, void (geode::Task<geode::utils::web::WebResponse, geode::utils::web::WebProgress>::Event*)>::~__func()
FUNC 30c84 20 0 std::__ndk1::__function::__func<GeodeNetwork::setupListener()::$_0, std::__ndk1::allocator<GeodeNetwork::setupListener()::$_0>, void (geode::Task<geode::utils::web::WebResponse, geode::utils::web::WebProgress>::Event*)>::__clone() const
FUNC 30ca4 14 0 std::__ndk1::__function::__func<GeodeNetwork::setupListener()::$_0, std::__ndk1::allocator<GeodeNetwork::setupListener()::$_0>, void (geode::Task<geode::utils::web::WebResponse, geode::utils::web::WebProgress>::Event*)>::__clone(std::__ndk1::__function::__base<void (geode::Task<geode::utils::web::WebResponse, geode::utils::web::WebProgress>::Event*)>*) const
FUNC 30cb8 2 0 std::__ndk1::__function::__func<GeodeNetwork::setupListener()::$_0, std::__ndk1::allocator<GeodeNetwork::setupListener()::$_0>, void (geode::Task<geode::utils::web::WebResponse, geode::utils::web::WebProgress>::Event*)>::destroy()
FUNC 30cba 4 0 std::__ndk1::__function::__func<GeodeNetwork::setupListener()::$_0, std::__ndk1::allocator<GeodeNetwork::setupListener()::$_0>, void (geode::Task<geode::utils::web::WebResponse, geode::utils::web::WebProgress>::Event*)>::destroy_deallocate()
FUNC 30cc0 130 0 std::__ndk1::__function::__func<GeodeNetwork::setupListener()::$_0, std::__ndk1::allocator<GeodeNetwork::setupListener()::$_0>, void (geode::Task<geode::utils::web::WebResponse, geode::utils::web::WebProgress>::Event*)>::operator()(geode::Task<geode::utils::web::WebResponse, geode::utils::web::WebProgress>::Event*&&)
FUNC 30df0 18 0 std::__ndk1::__function::__func<GeodeNetwork::setupListener()::$_0, std::__ndk1::allocator<GeodeNetwork::setupListener()::$_0>, void (geode::Task<geode::utils::web::WebResponse, geode::utils::web::WebProgress>::Event*)>::target(std::type_info const&) const
FUNC 30e08 c 0 std::__ndk1::__function::__func<GeodeNetwork::setupListener()::$_0, std::__ndk1::allocator<GeodeNetwork::setupListener()::$_0>, void (geode::Task<geode::utils::web::WebResponse, geode::utils::web::WebProgress>::Event*)>::target_type() const
FUNC 30e14 e 0 std::__ndk1::__variant_detail::__visitation::__base::__dispatcher<(unsigned int)0>::__dispatch[abi:ne180000]<std::__ndk1::__variant_detail::__dtor<std::__ndk1::__variant_detail::__traits<std::__ndk1::basic_string<char, std::__ndk1::char_traits<char>, std::__ndk1::allocator<char> >, std::__ndk1::allocator<char> >, (std::__ndk1::__variant_detail::_Trait)1>::__destroy[abi:ne180000]()::{lambda(auto:1&)#1}, std::__ndk1::__variant_detail::__base<(std::__ndk1::__variant_detail::__traits<std::__ndk1::basic_string<char, std::__ndk1::char_traits<char>, std::__ndk1::allocator<char> >, std::__ndk1::allocator<char> >)1, std::__ndk1::allocator<char>, std::__ndk1::allocator<char> >&>(std::__ndk1::__variant_detail::__dtor<std::__ndk1::__variant_detail::__traits<std::__ndk1::basic_string<char, std::__ndk1::char_traits<char>, std::__ndk1::allocator<char> >, std::__ndk1::allocator<char> >, (std::__ndk1::__variant_detail::_Trait)1>, std::__ndk1::__variant_detail::__base<(std::__ndk1::__variant_detail::__traits<std::__ndk1::basic_string<char, std::__ndk1::char_traits<char>, std::__ndk1::allocator<char> >, std::__ndk1::allocator<char> >)1, std::__ndk1::allocator<char>, std::__ndk1::allocator<char> >&)
FUNC 30e22 e 0 std::__ndk1::__variant_detail::__visitation::__base::__dispatcher<(unsigned int)1>::__dispatch[abi:ne180000]<std::__ndk1::__variant_detail::__dtor<std::__ndk1::__variant_detail::__traits<std::__ndk1::basic_string<char, std::__ndk1::char_traits<char>, std::__ndk1::allocator<char> >, std::__ndk1::allocator<char> >, (std::__ndk1::__variant_detail::_Trait)1>::__destroy[abi:ne180000]()::{lambda(auto:1&)#1}, std::__ndk1::__variant_detail::__base<(std::__ndk1::__variant_detail::__traits<std::__ndk1::basic_string<char, std::__ndk1::char_traits<char>, std::__ndk1::allocator<char> >, std::__ndk1::allocator<char> >)1, std::__ndk1::allocator<char>, std::__ndk1::allocator<char> >&>(std::__ndk1::__variant_detail::__dtor<std::__ndk1::__variant_detail::__traits<std::__ndk1::basic_string<char, std::__ndk1::char_traits<char>, std::__ndk1::allocator<char> >, std::__ndk1::allocator<char> >, (std::__ndk1::__variant_detail::_Trait)1>, std::__ndk1::__variant_detail::__base<(std::__ndk1::__variant_detail::__traits<std::__ndk1::basic_string<char, std::__ndk1::char_traits<char>, std::__ndk1::allocator<char> >, std::__ndk1::allocator<char> >)1, std::__ndk1::allocator<char>, std::__ndk1::allocator<char> >&)
FUNC 30e30 20 0 geodeImplicitEntry
FUNC 30e50 28 0 std::__ndk1::unordered_map<void*, bool, std::__ndk1::hash<void*>, std::__ndk1::equal_to<void*>, std::__ndk1::allocator<std::__ndk1::pair<void* const, bool> > >::~unordered_map[abi:ne180000]()
FUNC 30e78 cc 0 wrapFunction(unsigned int, tulip::hook::WrapperMetadata const&)
FUNC 30f44 48 0 geode::impl::ResultData<void*, std::__ndk1::basic_string<char, std::__ndk1::char_traits<char>, std::__ndk1::allocator<char> > >::unwrapErr() &
FUNC 30f8c 60 0 geode::impl::ResultData<void*, std::__ndk1::basic_string<char, std::__ndk1::char_traits<char>, std::__ndk1::allocator<char> > >::~ResultData()
FUNC 30fec 46 0 tulip::hook::WrapperMetadata::~WrapperMetadata()
FUNC 31034 1b4 0 cocos2d::CCObject::CCObject()
FUNC 311e8 10 0 cocos2d::CCObject::~CCObject()
FUNC 311f8 10 0 cocos2d::CCNode::~CCNode()
FUNC 31208 1e0 0 cocos2d::CCLayer::CCLayer()
FUNC 313e8 8 0 {virtual override thunk({offset(-264)}, cocos2d::CCLayer::~CCLayer())}
FUNC 313f0 10 0 cocos2d::CCLayer::~CCLayer()
FUNC 31400 14 0 {virtual override thunk({offset(-264)}, cocos2d::CCLayer::~CCLayer())}
FUNC 31414 27c 0 cocos2d::CCLayerRGBA::~CCLayerRGBA()
FUNC 31690 8 0 {virtual override thunk({offset(-264)}, cocos2d::CCLayerRGBA::~CCLayerRGBA())}
FUNC 31698 10 0 cocos2d::CCLayerRGBA::~CCLayerRGBA()
FUNC 316a8 14 0 {virtual override thunk({offset(-264)}, cocos2d::CCLayerRGBA::~CCLayerRGBA())}
FUNC 316bc 1f0 0 cocos2d::CCLayerColor::CCLayerColor()
FUNC 318ac 8 0 {virtual override thunk({offset(-264)}, cocos2d::CCLayerColor::~CCLayerColor())}
FUNC 318b4 10 0 cocos2d::CCLayerColor::~CCLayerColor()
FUNC 318c4 14 0 {virtual override thunk({offset(-264)}, cocos2d::CCLayerColor::~CCLayerColor())}
FUNC 318d8 8 0 {virtual override thunk({offset(-264)}, FLAlertLayer::~FLAlertLayer())}
FUNC 318e0 10 0 FLAlertLayer::~FLAlertLayer()
FUNC 318f0 14 0 {virtual override thunk({offset(-264)}, FLAlertLayer::~FLAlertLayer())}
FUNC 31904 11c 0 FLAlertLayer::create(FLAlertLayerProtocol*, char const*, gd::string, char const*, char const*, float)
FUNC 31a20 100 0 tulip::hook::AbstractFunction::from<FLAlertLayer*, FLAlertLayerProtocol*, char const*, gd::string, char const*, char const*, float>(FLAlertLayer* (*)(FLAlertLayerProtocol*, char const*, gd::string, char const*, char const*, float))
FUNC 31b20 70 0 FLAlertLayer::create(char const*, gd::string const&, char const*)
FUNC 31b90 1cc 0 LevelCell::LevelCell(char const*, float, float)
FUNC 31d5c c0 0 LevelCell::LevelCell(geode::CutoffConstructorType, unsigned int)
FUNC 31e20 b0 0 tulip::hook::AbstractFunction::from<void, LevelCell*, char const*, float, float>(void (*)(LevelCell*, char const*, float, float))
FUNC 31ed0 4c 0 TableViewCell::~TableViewCell()
FUNC 31f1c 2 0 cocos2d::CCObject::update(float)
FUNC 31f20 294 0 cocos2d::CCLayerColor::~CCLayerColor()
FUNC 321b4 294 0 FLAlertLayer::~FLAlertLayer()
FUNC 32448 10 0 CCIndexPath::~CCIndexPath()
FUNC 32458 22c 0 cocos2d::CCNode::~CCNode()
FUNC 32684 274 0 cocos2d::CCLayer::~CCLayer()
FUNC 328f8 42c 0 cocos2d::CCObject::~CCObject()
FUNC 32d24 f8 0 _ZN5geode15UnwrapExceptionC2IRPvQsr4implE18IsStringStreamableIT_EEENS_4impl5OkTagEOS4_
FUNC 32e1c 2 0 std::__ndk1::__variant_detail::__visitation::__base::__dispatcher<(unsigned int)0>::__dispatch[abi:ne180000]<std::__ndk1::__variant_detail::__dtor<std::__ndk1::__variant_detail::__traits<void*, std::__ndk1::basic_string<char, std::__ndk1::char_traits<char>, std::__ndk1::allocator<char> > >, (std::__ndk1::__variant_detail::_Trait)1>::__destroy[abi:ne180000]()::{lambda(auto:1&)#1}, std::__ndk1::__variant_detail::__base<(std::__ndk1::__variant_detail::__traits<void*, std::__ndk1::basic_string<char, std::__ndk1::char_traits<char>, std::__ndk1::allocator<char> > >)1, std::__ndk1::__variant_detail::__traits, std::__ndk1::allocator<char> >&>(std::__ndk1::__variant_detail::__dtor<std::__ndk1::__variant_detail::__traits<void*, std::__ndk1::basic_string<char, std::__ndk1::char_traits<char>, std::__ndk1::allocator<char> > >, (std::__ndk1::__variant_detail::_Trait)1>, std::__ndk1::__variant_detail::__base<(std::__ndk1::__variant_detail::__traits<void*, std::__ndk1::basic_string<char, std::__ndk1::char_traits<char>, std::__ndk1::allocator<char> > >)1, std::__ndk1::__variant_detail::__traits, std::__ndk1::allocator<char> >&)
FUNC 32e1e e 0 std::__ndk1::__variant_detail::__visitation::__base::__dispatcher<(unsigned int)1>::__dispatch[abi:ne180000]<std::__ndk1::__variant_detail::__dtor<std::__ndk1::__variant_detail::__traits<void*, std::__ndk1::basic_string<char, std::__ndk1::char_traits<char>, std::__ndk1::allocator<char> > >, (std::__ndk1::__variant_detail::_Trait)1>::__destroy[abi:ne180000]()::{lambda(auto:1&)#1}, std::__ndk1::__variant_detail::__base<(std::__ndk1::__variant_detail::__traits<void*, std::__ndk1::basic_string<char, std::__ndk1::char_traits<char>, std::__ndk1::allocator<char> > >)1, std::__ndk1::__variant_detail::__traits, std::__ndk1::allocator<char> >&>(std::__ndk1::__variant_detail::__dtor<std::__ndk1::__variant_detail::__traits<void*, std::__ndk1::basic_string<char, std::__ndk1::char_traits<char>, std::__ndk1::allocator<char> > >, (std::__ndk1::__variant_detail::_Trait)1>, std::__ndk1::__variant_detail::__base<(std::__ndk1::__variant_detail::__traits<void*, std::__ndk1::basic_string<char, std::__ndk1::char_traits<char>, std::__ndk1::allocator<char> > >)1, std::__ndk1::__variant_detail::__traits, std::__ndk1::allocator<char> >&)
FUNC 32e2c 50 0 TableViewCell::~TableViewCell()
FUNC 32e7c 54 0 {virtual override thunk({offset(-264)}, TableViewCell::~TableViewCell())}
FUNC 32ed0 58 0 {virtual override thunk({offset(-264)}, TableViewCell::~TableViewCell())}
FUNC 32f28 3ea 0 std::__ndk1::__hash_table<std::__ndk1::__hash_value_type<void*, bool>, std::__ndk1::__unordered_map_hasher<void*, std::__ndk1::__hash_value_type<void*, bool>, std::__ndk1::hash<void*>, std::__ndk1::equal_to<void*>, true>, std::__ndk1::__unordered_map_equal<void*, std::__ndk1::__hash_value_type<void*, bool>, std::__ndk1::equal_to<void*>, std::__ndk1::hash<void*>, true>, std::__ndk1::allocator<std::__ndk1::__hash_value_type<void*, bool> > >::__emplace_unique_key_args<void*, std::__ndk1::piecewise_construct_t const&, std::__ndk1::tuple<void* const&>, std::__ndk1::tuple<> >(void* const&, std::__ndk1::piecewise_construct_t const&, std::__ndk1::tuple<void* const&>, std::__ndk1::tuple<>)
FUNC 33314 1cc 0 fmt::v11::detail::write_loc(fmt::v11::basic_appender<char>, fmt::v11::loc_value, fmt::v11::format_specs const&, fmt::v11::detail::locale_ref)
FUNC 334e0 44 0 fmt::v11::format_facet<std::__ndk1::locale>::~format_facet()
FUNC 33524 38 0 fmt::v11::report_error(char const*)
FUNC 3355c 18 0 fmt::v11::format_error::runtime_error(char const*)
FUNC 33574 420 0 fmt::v11::format_facet<std::__ndk1::locale>::do_put(fmt::v11::basic_appender<char>, fmt::v11::loc_value, fmt::v11::format_specs const&) const
FUNC 33994 30 0 fmt::v11::detail::loc_writer<char>::~loc_writer()
FUNC 339c4 c0 0 fmt::v11::vformat(fmt::v11::basic_string_view<char>, fmt::v11::basic_format_args<fmt::v11::context>)
FUNC 33a84 1ac 0 fmt::v11::detail::dragonbox::cache_accessor<double>::get_cached_power(int)
FUNC 33c30 278 0 fmt::v11::detail::vformat_to<char>(fmt::v11::detail::buffer<char>&, fmt::v11::basic_string_view<char>, fmt::v11::detail::vformat_args<char>::type, fmt::v11::detail::locale_ref)
FUNC 33eb0 228 0 fmt::v11::detail::is_printable(unsigned int)
FUNC 340d8 384 0 fmt::v11::detail::dragonbox::to_decimal<float>(float)
FUNC 3445c 880 0 fmt::v11::detail::dragonbox::to_decimal<double>(double)
FUNC 34cdc 4c 0 fmt::v11::basic_memory_buffer<char, (unsigned int)500, std::__ndk1::allocator<char> >::grow(fmt::v11::detail::buffer<char>&, unsigned int)
FUNC 34d28 48 0 fmt::v11::format_facet<std::__ndk1::locale>::~format_facet()
FUNC 34d70 10 0 fmt::v11::format_error::~format_error()
FUNC 34d80 9a 0 fmt::v11::detail::copy_noinline<char, char const*, fmt::v11::basic_appender<char> >(char const*, char const*, fmt::v11::basic_appender<char>)
FUNC 34e1c 54 0 fmt::v11::detail::default_arg_formatter<char>::operator()<bool>(bool)
FUNC 34e70 34 0 fmt::v11::detail::default_arg_formatter<char>::operator()<char>(char)
FUNC 34ea4 2c 0 fmt::v11::detail::default_arg_formatter<char>::operator()<char const*>(char const*)
FUNC 34ed0 74 0 fmt::v11::detail::default_arg_formatter<char>::operator()<void const*>(void const*)
FUNC 34f44 1b0 0 _ZN3fmt3v116detail5writeIcNS0_14basic_appenderIcEEiTnNSt6__ndk19enable_ifIXaaaasr11is_integralIT1_EE5valuentsr3std7is_sameIS7_bEE5valuentsr3std7is_sameIS7_T_EE5valueEiE4typeELi0EEET0_SB_S7_
FUNC 350f4 9a 0 fmt::v11::detail::copy_noinline<char, char*, fmt::v11::basic_appender<char> >(char*, char*, fmt::v11::basic_appender<char>)
FUNC 35190 174 0 _ZN3fmt3v116detail5writeIcNS0_14basic_appenderIcEEjTnNSt6__ndk19enable_ifIXaaaasr11is_integralIT1_EE5valuentsr3std7is_sameIS7_bEE5valuentsr3std7is_sameIS7_T_EE5valueEiE4typeELi0EEET0_SB_S7_
FUNC 35304 218 0 _ZN3fmt3v116detail5writeIcNS0_14basic_appenderIcEExTnNSt6__ndk19enable_ifIXaaaasr11is_integralIT1_EE5valuentsr3std7is_sameIS7_bEE5valuentsr3std7is_sameIS7_T_EE5valueEiE4typeELi0EEET0_SB_S7_
FUNC 3551c 1dc 0 _ZN3fmt3v116detail5writeIcNS0_14basic_appenderIcEEyTnNSt6__ndk19enable_ifIXaaaasr11is_integralIT1_EE5valuentsr3std7is_sameIS7_bEE5valuentsr3std7is_sameIS7_T_EE5valueEiE4typeELi0EEET0_SB_S7_
FUNC 356f8 188 0 _ZN3fmt3v116detail5writeIcNS0_14basic_appenderIcEEbTnNSt6__ndk19enable_ifIXsr3std7is_sameIT1_bEE5valueEiE4typeELi0EEET0_SA_S7_RKNS0_12format_specsENS1_10locale_refE
FUNC 35880 9f8 0 fmt::v11::detail::write_int_noinline<char, fmt::v11::basic_appender<char>, unsigned int>(fmt::v11::basic_appender<char>, fmt::v11::detail::write_int_arg<unsigned int>, fmt::v11::format_specs const&, fmt::v11::detail::locale_ref)
FUNC 36278 184 0 fmt::v11::detail::write_padded<char, (fmt::v11::align::type)1, fmt::v11::basic_appender<char>, fmt::v11::detail::write_char<char, fmt::v11::basic_appender<char> >(fmt::v11::basic_appender<char>, char, fmt::v11::format_specs const&)::{lambda(fmt::v11::basic_appender<char>&)#1}>(fmt::v11::basic_appender<char>, fmt::v11::format_specs const&, unsigned int, unsigned int, fmt::v11::detail::write_char<char, fmt::v11::basic_appender<char> >(fmt::v11::basic_appender<char>, char, fmt::v11::format_specs const&)::{lambda(fmt::v11::basic_appender<char>&)#1})
FUNC 36400 73c 0 _ZN3fmt3v116detail5writeIcNS0_14basic_appenderIcEEfTnNSt6__ndk19enable_ifIXsr13is_fast_floatIT1_EE5valueEiE4typeELi0EEET0_SA_S7_
FUNC 36b3c 140 0 fmt::v11::detail::write_padded<char, (fmt::v11::align::type)1, fmt::v11::basic_appender<char>, fmt::v11::detail::write_nonfinite<char, fmt::v11::basic_appender<char> >(fmt::v11::basic_appender<char>, bool, fmt::v11::format_specs, fmt::v11::sign::type)::{lambda(fmt::v11::basic_appender<char>&)#1}>(fmt::v11::basic_appender<char>, fmt::v11::format_specs const&, unsigned int, unsigned int, fmt::v11::detail::write_nonfinite<char, fmt::v11::basic_appender<char> >(fmt::v11::basic_appender<char>, bool, fmt::v11::format_specs, fmt::v11::sign::type)::{lambda(fmt::v11::basic_appender<char>&)#1})
FUNC 36c7c e0 0 fmt::v11::detail::do_write_float<char, fmt::v11::basic_appender<char>, fmt::v11::detail::dragonbox::decimal_fp<float>, fmt::v11::detail::digit_grouping<char> >(fmt::v11::basic_appender<char>, fmt::v11::detail::dragonbox::decimal_fp<float> const&, fmt::v11::format_specs const&, fmt::v11::detail::float_specs, fmt::v11::detail::locale_ref)::{lambda(fmt::v11::basic_appender<char>(fmt::v11::basic_appender<char>))#1}::operator() const
FUNC 36d5c 194 0 fmt::v11::detail::digit_grouping<char>::digit_grouping(fmt::v11::detail::locale_ref, bool)
FUNC 36ef0 22 0 fmt::v11::detail::digit_grouping<char>::~digit_grouping()
FUNC 36f14 104 0 fmt::v11::detail::write_exponent<char, fmt::v11::basic_appender<char> >(int, fmt::v11::basic_appender<char>)
FUNC 37018 144 0 _ZN3fmt3v116detail17write_significandIcjTnNSt6__ndk19enable_ifIXsr3std11is_integralIT0_EE5valueEiE4typeELi0EEEPT_S9_S5_iiS8_
FUNC 3715c 21c 0 fmt::v11::detail::digit_grouping<char>::apply<fmt::v11::basic_appender<char>, char>(fmt::v11::basic_appender<char>, fmt::v11::basic_string_view<char>) const
FUNC 37378 6e 0 fmt::v11::basic_memory_buffer<int, (unsigned int)500, std::__ndk1::allocator<int> >::grow(fmt::v11::detail::buffer<int>&, unsigned int)
FUNC 373f0 e4 0 _ZN3fmt3v116detail5writeIcNS0_14basic_appenderIcEEdTnNSt6__ndk19enable_ifIXsr13is_fast_floatIT1_EE5valueEiE4typeELi0EEET0_SA_S7_
FUNC 374d4 9ac 0 fmt::v11::detail::do_write_float<char, fmt::v11::basic_appender<char>, fmt::v11::detail::dragonbox::decimal_fp<double>, fmt::v11::detail::digit_grouping<char> >(fmt::v11::basic_appender<char>, fmt::v11::detail::dragonbox::decimal_fp<double> const&, fmt::v11::format_specs const&, fmt::v11::detail::float_specs, fmt::v11::detail::locale_ref)
FUNC 37e80 e8 0 fmt::v11::detail::do_write_float<char, fmt::v11::basic_appender<char>, fmt::v11::detail::dragonbox::decimal_fp<double>, fmt::v11::detail::digit_grouping<char> >(fmt::v11::basic_appender<char>, fmt::v11::detail::dragonbox::decimal_fp<double> const&, fmt::v11::format_specs const&, fmt::v11::detail::float_specs, fmt::v11::detail::locale_ref)::{lambda(fmt::v11::basic_appender<char>(fmt::v11::basic_appender<char>))#1}::operator() const
FUNC 37f68 19c 0 _ZN3fmt3v116detail17write_significandIcyTnNSt6__ndk19enable_ifIXsr3std11is_integralIT0_EE5valueEiE4typeELi0EEEPT_S9_S5_iiS8_
FUNC 38110 e4 0 _ZN3fmt3v116detail5writeIcNS0_14basic_appenderIcEEeTnNSt6__ndk19enable_ifIXsr13is_fast_floatIT1_EE5valueEiE4typeELi0EEET0_SA_S7_
FUNC 381f4 150 0 fmt::v11::detail::write_padded<char, (fmt::v11::align::type)2, fmt::v11::basic_appender<char>, fmt::v11::detail::write_ptr<char, fmt::v11::basic_appender<char>, unsigned int>(fmt::v11::basic_appender<char>, unsigned int, fmt::v11::format_specs const*)::{lambda(fmt::v11::basic_appender<char>&)#1}>(fmt::v11::basic_appender<char>, fmt::v11::format_specs const&, unsigned int, unsigned int, fmt::v11::detail::write_ptr<char, fmt::v11::basic_appender<char>, unsigned int>(fmt::v11::basic_appender<char>, unsigned int, fmt::v11::format_specs const*)::{lambda(fmt::v11::basic_appender<char>&)#1})
FUNC 38348 1064 0 fmt::v11::detail::parse_replacement_field<char, fmt::v11::detail::vformat_to<char>(fmt::v11::detail::buffer<char>&, fmt::v11::basic_string_view<char>, fmt::v11::detail::vformat_args<char>::type, fmt::v11::detail::locale_ref)::format_handler&>(char const*, char const*, fmt::v11::detail::vformat_to<char>(fmt::v11::detail::buffer<char>&, fmt::v11::basic_string_view<char>, fmt::v11::detail::vformat_args<char>::type, fmt::v11::detail::locale_ref)::format_handler&)
FUNC 393ac b78 0 fmt::v11::detail::write_int_noinline<char, fmt::v11::basic_appender<char>, unsigned long long>(fmt::v11::basic_appender<char>, fmt::v11::detail::write_int_arg<unsigned long long>, fmt::v11::format_specs const&, fmt::v11::detail::locale_ref)
FUNC 39f24 3a4 0 _ZN3fmt3v116detail15format_hexfloatIdTnNSt6__ndk19enable_ifIXntsr16is_double_doubleIT_EE5valueEiE4typeELi0EEEvS5_NS0_12format_specsERNS1_6bufferIcEE
FUNC 3a2c8 ebc 0 fmt::v11::detail::format_float<double>(double, int, fmt::v11::detail::float_specs, fmt::v11::detail::buffer<char>&)
FUNC 3b184 10c 0 fmt::v11::detail::write_padded<char, (fmt::v11::align::type)2, fmt::v11::basic_appender<char>, fmt::v11::detail::write_bytes<char, (fmt::v11::align::type)2, fmt::v11::basic_appender<char> >(fmt::v11::basic_appender<char>, fmt::v11::basic_string_view<char>, fmt::v11::format_specs const&)::{lambda(fmt::v11::basic_appender<char>&)#1}>(fmt::v11::basic_appender<char>, fmt::v11::format_specs const&, unsigned int, unsigned int, fmt::v11::detail::write_bytes<char, (fmt::v11::align::type)2, fmt::v11::basic_appender<char> >(fmt::v11::basic_appender<char>, fmt::v11::basic_string_view<char>, fmt::v11::format_specs const&)::{lambda(fmt::v11::basic_appender<char>&)#1})
FUNC 3b290 c4 0 fmt::v11::detail::bigint::operator<<=(int)
FUNC 3b354 414 0 fmt::v11::detail::bigint::assign_pow10(int)
FUNC 3b768 276 0 fmt::v11::detail::bigint::divmod_assign(fmt::v11::detail::bigint const&)
FUNC 3b9de 6e 0 fmt::v11::basic_memory_buffer<unsigned int, (unsigned int)32, std::__ndk1::allocator<unsigned int> >::grow(fmt::v11::detail::buffer<unsigned int>&, unsigned int)
FUNC 3ba4c 994 0 fmt::v11::detail::do_write_float<char, fmt::v11::basic_appender<char>, fmt::v11::detail::big_decimal_fp, fmt::v11::detail::digit_grouping<char> >(fmt::v11::basic_appender<char>, fmt::v11::detail::big_decimal_fp const&, fmt::v11::format_specs const&, fmt::v11::detail::float_specs, fmt::v11::detail::locale_ref)
FUNC 3c3e0 e0 0 fmt::v11::detail::do_write_float<char, fmt::v11::basic_appender<char>, fmt::v11::detail::big_decimal_fp, fmt::v11::detail::digit_grouping<char> >(fmt::v11::basic_appender<char>, fmt::v11::detail::big_decimal_fp const&, fmt::v11::format_specs const&, fmt::v11::detail::float_specs, fmt::v11::detail::locale_ref)::{lambda(fmt::v11::basic_appender<char>(fmt::v11::basic_appender<char>))#1}::operator() const
FUNC 3c4c0 544 0 fmt::v11::detail::write_int<fmt::v11::basic_appender<char>, unsigned long long, char>(fmt::v11::basic_appender<char>, unsigned long long, unsigned int, fmt::v11::format_specs const&, fmt::v11::detail::digit_grouping<char> const&)
PUBLIC 3ca05 0 __ThumbV7PILongThunk___cxa_atexit
PUBLIC 3ca11 0 __ThumbV7PILongThunk__ZdlPv
PUBLIC 3ca1d 0 __ThumbV7PILongThunk__ZNSt6__ndk119__shared_weak_countD2Ev
PUBLIC 3ca29 0 __ThumbV7PILongThunk__ZNSt6__ndk119__shared_weak_count14__release_weakEv
PUBLIC 3ca35 0 __ThumbV7PILongThunk__ZN5geode21EventListenerProtocolD2Ev
PUBLIC 3ca41 0 __ThumbV7PILongThunk__ZN5geode24DefaultEventListenerPool3getEv
PUBLIC 3ca4d 0 __ThumbV7PILongThunk__ZNKSt13runtime_error4whatEv
PUBLIC 3ca59 0 __ThumbV7PILongThunk__ZNSt9exceptionD2Ev
PUBLIC 3ca65 0 __ThumbV7PILongThunk__ZN7cocos2d17CCTouchDispatcher19addTargetedDelegateEPNS_15CCTouchDelegateEib
PUBLIC 3ca71 0 __ThumbV7PILongThunk__ZN5geode5EventD2Ev
PUBLIC 3ca7d 0 __ThumbV7PILongThunk__ZNSt6__ndk16locale5facetD2Ev
PUBLIC 3ca90 0 <.plt ELF section in dogotrigger.level_history.android32.so>
STACK CFI INIT 14ad4 68 .cfa: sp 0 +
STACK CFI 14ad6 .cfa: sp 20 + .ra: .cfa -4 + ^ r7: .cfa -8 + ^ r6: .cfa -12 + ^ r5: .cfa -16 + ^ r4: .cfa -20 + ^
STACK CFI 14ad8 .cfa: r7 8 +
STACK CFI 14adc r8: .cfa -24 + ^
STACK CFI INIT 14b3c 570 .cfa: sp 0 +
STACK CFI 14b3e .cfa: sp 20 + .ra: .cfa -4 + ^ r7: .cfa -8 + ^ r6: .cfa -12 + ^ r5: .cfa -16 + ^ r4: .cfa -20 + ^
STACK CFI 14b40 .cfa: r7 8 +
STACK CFI 14b44 r11: .cfa -24 + ^ r10: .cfa -28 + ^ r9: .cfa -32 + ^ r8: .cfa -36 + ^
STACK CFI INIT 150ac 1c .cfa: sp 0 +
STACK CFI 150ae .cfa: sp 16 + .ra: .cfa -4 + ^ r7: .cfa -8 + ^ r6: .cfa -12 + ^ r4: .cfa -16 + ^
STACK CFI 150b0 .cfa: r7 8 +
STACK CFI INIT 150c8 c .cfa: sp 0 +
STACK CFI 150ca .cfa: sp 8 + .ra: .cfa -4 + ^ r7: .cfa -8 + ^
STACK CFI 150cc .cfa: r7 8 +
STACK CFI INIT 150d4 3a .cfa: sp 0 +
STACK CFI 150d6 .cfa: sp 16 + .ra: .cfa -4 + ^ r7: .cfa -8 + ^ r5: .cfa -12 + ^ r4: .cfa -16 + ^
STACK CFI 150d8 .cfa: r7 8 +
STACK CFI INIT 15110 390 .cfa: sp 0 +
STACK CFI 15112 .cfa: sp 20 + .ra: .cfa -4 + ^ r7: .cfa -8 + ^ r6: .cfa -12 + ^ r5: .cfa -16 + ^ r4: .cfa -20 + ^
STACK CFI 15114 .cfa: r7 8 +
STACK CFI 15118 r10: .cfa -24 + ^ r9: .cfa -28 + ^ r8: .cfa -32 + ^
STACK CFI INIT 154a0 3a .cfa: sp 0 +
STACK CFI 154a2 .cfa: sp 16 + .ra: .cfa -4 + ^ r7: .cfa -8 + ^ r5: .cfa -12 + ^ r4: .cfa -16 + ^
STACK CFI 154a4 .cfa: r7 8 +
STACK CFI INIT 154dc 60 .cfa: sp 0 +
STACK CFI 154de .cfa: sp 16 + .ra: .cfa -4 + ^ r7: .cfa -8 + ^ r6: .cfa -12 + ^ r4: .cfa -16 + ^
STACK CFI 154e0 .cfa: r7 8 +
STACK CFI INIT 1553c 3e .cfa: sp 0 +
STACK CFI 1553e .cfa: sp 20 + .ra: .cfa -4 + ^ r7: .cfa -8 + ^ r6: .cfa -12 + ^ r5: .cfa -16 + ^ r4: .cfa -20 + ^
STACK CFI 15540 .cfa: r7 8 +
STACK CFI 15544 r11: .cfa -24 + ^
STACK CFI INIT 1557a 2 .cfa: sp 0 +
STACK CFI INIT 1557c f8 .cfa: sp 0 +
STACK CFI 1557e .cfa: sp 20 + .ra: .cfa -4 + ^ r7: .cfa -8 + ^ r6: .cfa -12 + ^ r5: .cfa -16 + ^ r4: .cfa -20 + ^
STACK CFI 15580 .cfa: r7 8 +
STACK CFI 15584 r8: .cfa -24 + ^
STACK CFI INIT 15674 34 .cfa: sp 0 +
STACK CFI 15676 .cfa: sp 8 + .ra: .cfa -4 + ^ r7: .cfa -8 + ^
STACK CFI 15678 .cfa: r7 8 +
STACK CFI INIT 156a8 d8 .cfa: sp 0 +
STACK CFI 156aa .cfa: sp 20 + .ra: .cfa -4 + ^ r7: .cfa -8 + ^ r6: .cfa -12 + ^ r5: .cfa -16 + ^ r4: .cfa -20 + ^
STACK CFI 156ac .cfa: r7 8 +
STACK CFI 156b0 r11: .cfa -24 + ^ r10: .cfa -28 + ^ r9: .cfa -32 + ^ r8: .cfa -36 + ^
STACK CFI INIT 15780 68 .cfa: sp 0 +
STACK CFI 15782 .cfa: sp 20 + .ra: .cfa -4 + ^ r7: .cfa -8 + ^ r6: .cfa -12 + ^ r5: .cfa -16 + ^ r4: .cfa -20 + ^
STACK CFI 15784 .cfa: r7 8 +
STACK CFI 15788 r11: .cfa -24 + ^
STACK CFI INIT 157e8 10 .cfa: sp 0 +
STACK CFI 157ea .cfa: sp 8 + .ra: .cfa -4 + ^ r7: .cfa -8 + ^
STACK CFI 157ec .cfa: r7 8 +
STACK CFI INIT 157f8 108 .cfa: sp 0 +
STACK CFI 157fa .cfa: sp 20 + .ra: .cfa -4 + ^ r7: .cfa -8 + ^ r6: .cfa -12 + ^ r5: .cfa -16 + ^ r4: .cfa -20 + ^
STACK CFI 157fc .cfa: r7 8 +
STACK CFI 15800 r11: .cfa -24 + ^ r10: .cfa -28 + ^ r9: .cfa -32 + ^ r8: .cfa -36 + ^
STACK CFI INIT 15900 110 .cfa: sp 0 +
STACK CFI 15902 .cfa: sp 20 + .ra: .cfa -4 + ^ r7: .cfa -8 + ^ r6: .cfa -12 + ^ r5: .cfa -16 + ^ r4: .cfa -20 + ^
STACK CFI 15904 .cfa: r7 8 +
STACK CFI 15908 r11: .cfa -24 + ^ r10: .cfa -28 + ^ r9: .cfa -32 + ^ r8: .cfa -36 + ^
STACK CFI INIT 15a10 10 .cfa: sp 0 +
STACK CFI 15a12 .cfa: sp 8 + .ra: .cfa -4 + ^ r7: .cfa -8 + ^
STACK CFI 15a14 .cfa: r7 8 +
STACK CFI INIT 15a20 38 .cfa: sp 0 +
STACK CFI 15a22 .cfa: sp 16 + .ra: .cfa -4 + ^ r7: .cfa -8 + ^ r5: .cfa -12 + ^ r4: .cfa -16 + ^
STACK CFI 15a24 .cfa: r7 8 +
STACK CFI INIT 15a58 18 .cfa: sp 0 +
STACK CFI 15a5a .cfa: sp 8 + .ra: .cfa -4 + ^ r7: .cfa -8 + ^
STACK CFI 15a5c .cfa: r7 8 +
STACK CFI INIT 15a70 28 .cfa: sp 0 +
STACK CFI 15a72 .cfa: sp 8 + .ra: .cfa -4 + ^ r7: .cfa -8 + ^
STACK CFI 15a74 .cfa: r7 8 +
STACK CFI INIT 15a98 ce .cfa: sp 0 +
STACK CFI 15a9a .cfa: sp 20 + .ra: .cfa -4 + ^ r7: .cfa -8 + ^ r6: .cfa -12 + ^ r5: .cfa -16 + ^ r4: .cfa -20 + ^
STACK CFI 15a9c .cfa: r7 8 +
STACK CFI 15aa0 r10: .cfa -24 + ^ r9: .cfa -28 + ^ r8: .cfa -32 + ^
STACK CFI INIT 15b66 e0 .cfa: sp 0 +
STACK CFI 15b68 .cfa: sp 20 + .ra: .cfa -4 + ^ r7: .cfa -8 + ^ r6: .cfa -12 + ^ r5: .cfa -16 + ^ r4: .cfa -20 + ^
STACK CFI 15b6a .cfa: r7 8 +
STACK CFI 15b6e r11: .cfa -24 + ^ r9: .cfa -28 + ^ r8: .cfa -32 + ^
STACK CFI INIT 15c46 46 .cfa: sp 0 +
STACK CFI 15c48 .cfa: sp 20 + .ra: .cfa -4 + ^ r7: .cfa -8 + ^ r6: .cfa -12 + ^ r5: .cfa -16 + ^ r4: .cfa -20 + ^
STACK CFI 15c4a .cfa: r7 8 +
STACK CFI 15c4e r8: .cfa -24 + ^
STACK CFI INIT 15c8c 3c .cfa: sp 0 +
STACK CFI 15c8e .cfa: sp 16 + .ra: .cfa -4 + ^ r7: .cfa -8 + ^ r5: .cfa -12 + ^ r4: .cfa -16 + ^
STACK CFI 15c90 .cfa: r7 8 +
STACK CFI INIT 15cc8 10 .cfa: sp 0 +
STACK CFI 15cca .cfa: sp 8 + .ra: .cfa -4 + ^ r7: .cfa -8 + ^
STACK CFI 15ccc .cfa: r7 8 +
STACK CFI INIT 15cd8 2 .cfa: sp 0 +
STACK CFI INIT 15cda e .cfa: sp 0 +
STACK CFI INIT 15ce8 274 .cfa: sp 0 +
STACK CFI 15cea .cfa: sp 20 + .ra: .cfa -4 + ^ r7: .cfa -8 + ^ r6: .cfa -12 + ^ r5: .cfa -16 + ^ r4: .cfa -20 + ^
STACK CFI 15cec .cfa: r7 8 +
STACK CFI 15cf0 r8: .cfa -24 + ^
STACK CFI INIT 15f5c 5a .cfa: sp 0 +
STACK CFI 15f64 .cfa: sp 16 + .ra: .cfa -4 + ^ r7: .cfa -8 + ^ r5: .cfa -12 + ^ r4: .cfa -16 + ^
STACK CFI 15f66 .cfa: r7 8 +
STACK CFI INIT 15fb8 158 .cfa: sp 0 +
STACK CFI 15fba .cfa: sp 20 + .ra: .cfa -4 + ^ r7: .cfa -8 + ^ r6: .cfa -12 + ^ r5: .cfa -16 + ^ r4: .cfa -20 + ^
STACK CFI 15fbc .cfa: r7 8 +
STACK CFI 15fc0 r8: .cfa -24 + ^
STACK CFI INIT 16110 3a .cfa: sp 0 +
STACK CFI 16112 .cfa: sp 16 + .ra: .cfa -4 + ^ r7: .cfa -8 + ^ r5: .cfa -12 + ^ r4: .cfa -16 + ^
STACK CFI 16114 .cfa: r7 8 +
STACK CFI INIT 1614a 46 .cfa: sp 0 +
STACK CFI 1614c .cfa: sp 16 + .ra: .cfa -4 + ^ r7: .cfa -8 + ^ r5: .cfa -12 + ^ r4: .cfa -16 + ^
STACK CFI 1614e .cfa: r7 8 +
STACK CFI INIT 16190 108 .cfa: sp 0 +
STACK CFI 16192 .cfa: sp 20 + .ra: .cfa -4 + ^ r7: .cfa -8 + ^ r6: .cfa -12 + ^ r5: .cfa -16 + ^ r4: .cfa -20 + ^
STACK CFI 16194 .cfa: r7 8 +
STACK CFI 16198 r11: .cfa -24 + ^
STACK CFI INIT 16298 74 .cfa: sp 0 +
STACK CFI 1629a .cfa: sp 20 + .ra: .cfa -4 + ^ r7: .cfa -8 + ^ r6: .cfa -12 + ^ r5: .cfa -16 + ^ r4: .cfa -20 + ^
STACK CFI 1629c .cfa: r7 8 +
STACK CFI 162a0 r11: .cfa -24 + ^ r9: .cfa -28 + ^ r8: .cfa -32 + ^
STACK CFI INIT 1630c 10 .cfa: sp 0 +
STACK CFI 1630e .cfa: sp 8 + .ra: .cfa -4 + ^ r7: .cfa -8 + ^
STACK CFI 16310 .cfa: r7 8 +
STACK CFI INIT 1631c 14a .cfa: sp 0 +
STACK CFI 1632e .cfa: sp 16 + .ra: .cfa -4 + ^ r7: .cfa -8 + ^ r6: .cfa -12 + ^ r4: .cfa -16 + ^
STACK CFI 16330 .cfa: r7 8 +
STACK CFI INIT 16466 3a .cfa: sp 0 +
STACK CFI 16468 .cfa: sp 16 + .ra: .cfa -4 + ^ r7: .cfa -8 + ^ r5: .cfa -12 + ^ r4: .cfa -16 + ^
STACK CFI 1646a .cfa: r7 8 +
STACK CFI INIT 164a0 10 .cfa: sp 0 +
STACK CFI INIT 164b0 1c .cfa: sp 0 +
STACK CFI 164b2 .cfa: sp 8 + .ra: .cfa -4 + ^ r7: .cfa -8 + ^
STACK CFI 164b4 .cfa: r7 8 +
STACK CFI INIT 164cc 2c .cfa: sp 0 +
STACK CFI 164ce .cfa: sp 16 + .ra: .cfa -4 + ^ r7: .cfa -8 + ^ r6: .cfa -12 + ^ r4: .cfa -16 + ^
STACK CFI 164d0 .cfa: r7 8 +
STACK CFI INIT 164f8 4 .cfa: sp 0 +
STACK CFI INIT 164fc e8 .cfa: sp 0 +
STACK CFI 164fe .cfa: sp 20 + .ra: .cfa -4 + ^ r7: .cfa -8 + ^ r6: .cfa -12 + ^ r5: .cfa -16 + ^ r4: .cfa -20 + ^
STACK CFI 16500 .cfa: r7 8 +
STACK CFI 16504 r11: .cfa -24 + ^ r10: .cfa -28 + ^ r9: .cfa -32 + ^ r8: .cfa -36 + ^
STACK CFI INIT 165e4 e .cfa: sp 0 +
STACK CFI INIT 165f2 2 .cfa: sp 0 +
STACK CFI INIT 165f4 a0 .cfa: sp 0 +
STACK CFI 165f6 .cfa: sp 20 + .ra: .cfa -4 + ^ r7: .cfa -8 + ^ r6: .cfa -12 + ^ r5: .cfa -16 + ^ r4: .cfa -20 + ^
STACK CFI 165f8 .cfa: r7 8 +
STACK CFI 165fc r11: .cfa -24 + ^ r10: .cfa -28 + ^ r9: .cfa -32 + ^ r8: .cfa -36 + ^
STACK CFI INIT 16694 324 .cfa: sp 0 +
STACK CFI 16696 .cfa: sp 20 + .ra: .cfa -4 + ^ r7: .cfa -8 + ^ r6: .cfa -12 + ^ r5: .cfa -16 + ^ r4: .cfa -20 + ^
STACK CFI 16698 .cfa: r7 8 +
STACK CFI 1669c r11: .cfa -24 + ^ r10: .cfa -28 + ^ r9: .cfa -32 + ^ r8: .cfa -36 + ^
STACK CFI INIT 169b8 1c .cfa: sp 0 +
STACK CFI INIT 169d4 5e .cfa: sp 0 +
STACK CFI 169d6 .cfa: sp 20 + .ra: .cfa -4 + ^ r7: .cfa -8 + ^ r6: .cfa -12 + ^ r5: .cfa -16 + ^ r4: .cfa -20 + ^
STACK CFI 169d8 .cfa: r7 8 +
STACK CFI 169dc r11: .cfa -24 + ^ r9: .cfa -28 + ^ r8: .cfa -32 + ^
STACK CFI INIT 16a34 c20 .cfa: sp 0 +
STACK CFI 16a36 .cfa: sp 20 + .ra: .cfa -4 + ^ r7: .cfa -8 + ^ r6: .cfa -12 + ^ r5: .cfa -16 + ^ r4: .cfa -20 + ^
STACK CFI 16a38 .cfa: r7 8 +
STACK CFI 16a3c r11: .cfa -24 + ^ r10: .cfa -28 + ^ r9: .cfa -32 + ^ r8: .cfa -36 + ^
STACK CFI INIT 17654 124 .cfa: sp 0 +
STACK CFI 17656 .cfa: sp 20 + .ra: .cfa -4 + ^ r7: .cfa -8 + ^ r6: .cfa -12 + ^ r5: .cfa -16 + ^ r4: .cfa -20 + ^
STACK CFI 17658 .cfa: r7 8 +
STACK CFI 1765c r8: .cfa -24 + ^
STACK CFI INIT 17778 b0 .cfa: sp 0 +
STACK CFI 1777a .cfa: sp 20 + .ra: .cfa -4 + ^ r7: .cfa -8 + ^ r6: .cfa -12 + ^ r5: .cfa -16 + ^ r4: .cfa -20 + ^
STACK CFI 1777c .cfa: r7 8 +
STACK CFI 17780 r11: .cfa -24 + ^ r10: .cfa -28 + ^ r9: .cfa -32 + ^ r8: .cfa -36 + ^
STACK CFI INIT 17828 b0 .cfa: sp 0 +
STACK CFI 1782a .cfa: sp 20 + .ra: .cfa -4 + ^ r7: .cfa -8 + ^ r6: .cfa -12 + ^ r5: .cfa -16 + ^ r4: .cfa -20 + ^
STACK CFI 1782c .cfa: r7 8 +
STACK CFI 17830 r11: .cfa -24 + ^ r10: .cfa -28 + ^ r9: .cfa -32 + ^ r8: .cfa -36 + ^
STACK CFI INIT 178d8 c0 .cfa: sp 0 +
STACK CFI 178da .cfa: sp 20 + .ra: .cfa -4 + ^ r7: .cfa -8 + ^ r6: .cfa -12 + ^ r5: .cfa -16 + ^ r4: .cfa -20 + ^
STACK CFI 178dc .cfa: r7 8 +
STACK CFI 178e0 r11: .cfa -24 + ^
STACK CFI INIT 17998 90 .cfa: sp 0 +
STACK CFI 1799a .cfa: sp 20 + .ra: .cfa -4 + ^ r7: .cfa -8 + ^ r6: .cfa -12 + ^ r5: .cfa -16 + ^ r4: .cfa -20 + ^
STACK CFI 1799c .cfa: r7 8 +
STACK CFI 179a0 r11: .cfa -24 + ^ r10: .cfa -28 + ^ r9: .cfa -32 + ^ r8: .cfa -36 + ^
STACK CFI INIT 0 60 .cfa: sp 0 +
STACK CFI 2 .cfa: sp 16 + .ra: .cfa -4 + ^ r7: .cfa -8 + ^ r6: .cfa -12 + ^ r4: .cfa -16 + ^
STACK CFI 4 .cfa: r7 8 +
STACK CFI INIT 17a28 108 .cfa: sp 0 +
STACK CFI 17a2a .cfa: sp 20 + .ra: .cfa -4 + ^ r7: .cfa -8 + ^ r6: .cfa -12 + ^ r5: .cfa -16 + ^ r4: .cfa -20 + ^
STACK CFI 17a2c .cfa: r7 8 +
STACK CFI 17a30 r11: .cfa -24 + ^ r9: .cfa -28 + ^ r8: .cfa -32 + ^
STACK CFI INIT 17b30 28 .cfa: sp 0 +
STACK CFI 17b32 .cfa: sp 16 + .ra: .cfa -4 + ^ r7: .cfa -8 + ^ r5: .cfa -12 + ^ r4: .cfa -16 + ^
STACK CFI 17b34 .cfa: r7 8 +
STACK CFI INIT 17b58 5a .cfa: sp 0 +
STACK CFI 17b5a .cfa: sp 20 + .ra: .cfa -4 + ^ r7: .cfa -8 + ^ r6: .cfa -12 + ^ r5: .cfa -16 + ^ r4: .cfa -20 + ^
STACK CFI 17b5c .cfa: r7 8 +
STACK CFI 17b60 r8: .cfa -24 + ^
STACK CFI INIT 17bb2 38 .cfa: sp 0 +
STACK CFI 17bb4 .cfa: sp 20 + .ra: .cfa -4 + ^ r7: .cfa -8 + ^ r6: .cfa -12 + ^ r5: .cfa -16 + ^ r4: .cfa -20 + ^
STACK CFI 17bb6 .cfa: r7 8 +
STACK CFI 17bba r11: .cfa -24 + ^
STACK CFI INIT 17bec 89c .cfa: sp 0 +
STACK CFI 17bee .cfa: sp 20 + .ra: .cfa -4 + ^ r7: .cfa -8 + ^ r6: .cfa -12 + ^ r5: .cfa -16 + ^ r4: .cfa -20 + ^
STACK CFI 17bf0 .cfa: r7 8 +
STACK CFI 17bf4 r11: .cfa -24 + ^ r10: .cfa -28 + ^ r9: .cfa -32 + ^ r8: .cfa -36 + ^
STACK CFI INIT 18488 32 .cfa: sp 0 +
STACK CFI 1848a .cfa: sp 16 + .ra: .cfa -4 + ^ r7: .cfa -8 + ^ r6: .cfa -12 + ^ r4: .cfa -16 + ^
STACK CFI 1848c .cfa: r7 8 +
STACK CFI INIT 184bc b8c .cfa: sp 0 +
STACK CFI 184be .cfa: sp 20 + .ra: .cfa -4 + ^ r7: .cfa -8 + ^ r6: .cfa -12 + ^ r5: .cfa -16 + ^ r4: .cfa -20 + ^
STACK CFI 184c0 .cfa: r7 8 +
STACK CFI 184c4 r11: .cfa -24 + ^ r10: .cfa -28 + ^ r9: .cfa -32 + ^ r8: .cfa -36 + ^
STACK CFI INIT 19048 b0 .cfa: sp 0 +
STACK CFI 1904a .cfa: sp 20 + .ra: .cfa -4 + ^ r7: .cfa -8 + ^ r6: .cfa -12 + ^ r5: .cfa -16 + ^ r4: .cfa -20 + ^
STACK CFI 1904c .cfa: r7 8 +
STACK CFI 19050 r11: .cfa -24 + ^ r10: .cfa -28 + ^ r9: .cfa -32 + ^ r8: .cfa -36 + ^
STACK CFI INIT 190f8 8f0 .cfa: sp 0 +
STACK CFI 190fa .cfa: sp 20 + .ra: .cfa -4 + ^ r7: .cfa -8 + ^ r6: .cfa -12 + ^ r5: .cfa -16 + ^ r4: .cfa -20 + ^
STACK CFI 190fc .cfa: r7 8 +
STACK CFI 19100 r11: .cfa -24 + ^ r10: .cfa -28 + ^ r9: .cfa -32 + ^ r8: .cfa -36 + ^
STACK CFI INIT 199e8 22 .cfa: sp 0 +
STACK CFI 199ea .cfa: sp 16 + .ra: .cfa -4 + ^ r7: .cfa -8 + ^ r6: .cfa -12 + ^ r4: .cfa -16 + ^
STACK CFI 199ec .cfa: r7 8 +
STACK CFI INIT 19a0a 4a .cfa: sp 0 +
STACK CFI 19a0c .cfa: sp 20 + .ra: .cfa -4 + ^ r7: .cfa -8 + ^ r6: .cfa -12 + ^ r5: .cfa -16 + ^ r4: .cfa -20 + ^
STACK CFI 19a0e .cfa: r7 8 +
STACK CFI 19a12 r11: .cfa -24 + ^
STACK CFI INIT 19a54 c0 .cfa: sp 0 +
STACK CFI 19a56 .cfa: sp 20 + .ra: .cfa -4 + ^ r7: .cfa -8 + ^ r6: .cfa -12 + ^ r5: .cfa -16 + ^ r4: .cfa -20 + ^
STACK CFI 19a58 .cfa: r7 8 +
STACK CFI 19a5c r8: .cfa -24 + ^
STACK CFI INIT 19b14 168a .cfa: sp 0 +
STACK CFI 19b16 .cfa: sp 20 + .ra: .cfa -4 + ^ r7: .cfa -8 + ^ r6: .cfa -12 + ^ r5: .cfa -16 + ^ r4: .cfa -20 + ^
STACK CFI 19b18 .cfa: r7 8 +
STACK CFI 19b1c r11: .cfa -24 + ^ r10: .cfa -28 + ^ r9: .cfa -32 + ^ r8: .cfa -36 + ^
STACK CFI INIT 1b1a0 6b0 .cfa: sp 0 +
STACK CFI 1b1a2 .cfa: sp 20 + .ra: .cfa -4 + ^ r7: .cfa -8 + ^ r6: .cfa -12 + ^ r5: .cfa -16 + ^ r4: .cfa -20 + ^
STACK CFI 1b1a4 .cfa: r7 8 +
STACK CFI 1b1a8 r11: .cfa -24 + ^ r10: .cfa -28 + ^ r9: .cfa -32 + ^ r8: .cfa -36 + ^
STACK CFI INIT 1b850 48 .cfa: sp 0 +
STACK CFI 1b852 .cfa: sp 8 + .ra: .cfa -4 + ^ r7: .cfa -8 + ^
STACK CFI 1b854 .cfa: r7 8 +
STACK CFI INIT 1b898 110 .cfa: sp 0 +
STACK CFI 1b89a .cfa: sp 16 + .ra: .cfa -4 + ^ r7: .cfa -8 + ^ r5: .cfa -12 + ^ r4: .cfa -16 + ^
STACK CFI 1b89c .cfa: r7 8 +
STACK CFI INIT 1b9a8 35c .cfa: sp 0 +
STACK CFI 1b9aa .cfa: sp 20 + .ra: .cfa -4 + ^ r7: .cfa -8 + ^ r6: .cfa -12 + ^ r5: .cfa -16 + ^ r4: .cfa -20 + ^
STACK CFI 1b9ac .cfa: r7 8 +
STACK CFI 1b9b0 r11: .cfa -24 + ^ r10: .cfa -28 + ^ r9: .cfa -32 + ^ r8: .cfa -36 + ^
STACK CFI INIT 1bd04 1dc .cfa: sp 0 +
STACK CFI 1bd06 .cfa: sp 20 + .ra: .cfa -4 + ^ r7: .cfa -8 + ^ r6: .cfa -12 + ^ r5: .cfa -16 + ^ r4: .cfa -20 + ^
STACK CFI 1bd08 .cfa: r7 8 +
STACK CFI 1bd0c r11: .cfa -24 + ^ r10: .cfa -28 + ^ r9: .cfa -32 + ^ r8: .cfa -36 + ^
STACK CFI INIT 1bee0 180 .cfa: sp 0 +
STACK CFI 1bee2 .cfa: sp 20 + .ra: .cfa -4 + ^ r7: .cfa -8 + ^ r6: .cfa -12 + ^ r5: .cfa -16 + ^ r4: .cfa -20 + ^
STACK CFI 1bee4 .cfa: r7 8 +
STACK CFI 1bee8 r11: .cfa -24 + ^ r9: .cfa -28 + ^ r8: .cfa -32 + ^
STACK CFI INIT 1c060 16 .cfa: sp 0 +
STACK CFI 1c062 .cfa: sp 16 + .ra: .cfa -4 + ^ r7: .cfa -8 + ^ r6: .cfa -12 + ^ r4: .cfa -16 + ^
STACK CFI 1c064 .cfa: r7 8 +
STACK CFI INIT 1c078 110 .cfa: sp 0 +
STACK CFI 1c07a .cfa: sp 16 + .ra: .cfa -4 + ^ r7: .cfa -8 + ^ r5: .cfa -12 + ^ r4: .cfa -16 + ^
STACK CFI 1c07c .cfa: r7 8 +
STACK CFI INIT 1c188 22 .cfa: sp 0 +
STACK CFI 1c18a .cfa: sp 16 + .ra: .cfa -4 + ^ r7: .cfa -8 + ^ r6: .cfa -12 + ^ r4: .cfa -16 + ^
STACK CFI 1c18c .cfa: r7 8 +
STACK CFI INIT 1c1ac 60 .cfa: sp 0 +
STACK CFI 1c1ae .cfa: sp 16 + .ra: .cfa -4 + ^ r7: .cfa -8 + ^ r6: .cfa -12 + ^ r4: .cfa -16 + ^
STACK CFI 1c1b0 .cfa: r7 8 +
STACK CFI INIT 1c20c 38 .cfa: sp 0 +
STACK CFI 1c20e .cfa: sp 16 + .ra: .cfa -4 + ^ r7: .cfa -8 + ^ r5: .cfa -12 + ^ r4: .cfa -16 + ^
STACK CFI 1c210 .cfa: r7 8 +
STACK CFI INIT 1c244 68 .cfa: sp 0 +
STACK CFI 1c246 .cfa: sp 16 + .ra: .cfa -4 + ^ r7: .cfa -8 + ^ r5: .cfa -12 + ^ r4: .cfa -16 + ^
STACK CFI 1c248 .cfa: r7 8 +
STACK CFI INIT 1c2ac 4 .cfa: sp 0 +
STACK CFI INIT 1c2b0 e8 .cfa: sp 0 +
STACK CFI 1c2b2 .cfa: sp 16 + .ra: .cfa -4 + ^ r7: .cfa -8 + ^ r5: .cfa -12 + ^ r4: .cfa -16 + ^
STACK CFI 1c2b4 .cfa: r7 8 +
STACK CFI INIT 1c398 6c .cfa: sp 0 +
STACK CFI 1c39a .cfa: sp 16 + .ra: .cfa -4 + ^ r7: .cfa -8 + ^ r5: .cfa -12 + ^ r4: .cfa -16 + ^
STACK CFI 1c39c .cfa: r7 8 +
STACK CFI INIT 1c404 8c .cfa: sp 0 +
STACK CFI 1c406 .cfa: sp 20 + .ra: .cfa -4 + ^ r7: .cfa -8 + ^ r6: .cfa -12 + ^ r5: .cfa -16 + ^ r4: .cfa -20 + ^
STACK CFI 1c408 .cfa: r7 8 +
STACK CFI 1c40c r11: .cfa -24 + ^ r9: .cfa -28 + ^ r8: .cfa -32 + ^
STACK CFI INIT 1c490 34 .cfa: sp 0 +
STACK CFI 1c492 .cfa: sp 8 + .ra: .cfa -4 + ^ r7: .cfa -8 + ^
STACK CFI 1c494 .cfa: r7 8 +
STACK CFI INIT 1c4c4 10 .cfa: sp 0 +
STACK CFI 1c4c6 .cfa: sp 8 + .ra: .cfa -4 + ^ r7: .cfa -8 + ^
STACK CFI 1c4c8 .cfa: r7 8 +
STACK CFI INIT 1c4d4 c8 .cfa: sp 0 +
STACK CFI 1c4d6 .cfa: sp 20 + .ra: .cfa -4 + ^ r7: .cfa -8 + ^ r6: .cfa -12 + ^ r5: .cfa -16 + ^ r4: .cfa -20 + ^
STACK CFI 1c4d8 .cfa: r7 8 +
STACK CFI 1c4dc r11: .cfa -24 + ^ r10: .cfa -28 + ^ r9: .cfa -32 + ^ r8: .cfa -36 + ^
STACK CFI INIT 1c59c a0 .cfa: sp 0 +
STACK CFI 1c59e .cfa: sp 20 + .ra: .cfa -4 + ^ r7: .cfa -8 + ^ r6: .cfa -12 + ^ r5: .cfa -16 + ^ r4: .cfa -20 + ^
STACK CFI 1c5a0 .cfa: r7 8 +
STACK CFI 1c5a4 r11: .cfa -24 + ^ r10: .cfa -28 + ^ r9: .cfa -32 + ^ r8: .cfa -36 + ^
STACK CFI INIT 1c63c 10 .cfa: sp 0 +
STACK CFI 1c63e .cfa: sp 8 + .ra: .cfa -4 + ^ r7: .cfa -8 + ^
STACK CFI 1c640 .cfa: r7 8 +
STACK CFI INIT 1c64c 66 .cfa: sp 0 +
STACK CFI 1c64e .cfa: sp 20 + .ra: .cfa -4 + ^ r7: .cfa -8 + ^ r6: .cfa -12 + ^ r5: .cfa -16 + ^ r4: .cfa -20 + ^
STACK CFI 1c650 .cfa: r7 8 +
STACK CFI 1c654 r11: .cfa -24 + ^ r9: .cfa -28 + ^ r8: .cfa -32 + ^
STACK CFI INIT 1c6b2 a6 .cfa: sp 0 +
STACK CFI 1c6b4 .cfa: sp 20 + .ra: .cfa -4 + ^ r7: .cfa -8 + ^ r6: .cfa -12 + ^ r5: .cfa -16 + ^ r4: .cfa -20 + ^
STACK CFI 1c6b6 .cfa: r7 8 +
STACK CFI 1c6ba r10: .cfa -24 + ^ r9: .cfa -28 + ^ r8: .cfa -32 + ^
STACK CFI INIT 1c758 124 .cfa: sp 0 +
STACK CFI 1c75a .cfa: sp 16 + .ra: .cfa -4 + ^ r7: .cfa -8 + ^ r5: .cfa -12 + ^ r4: .cfa -16 + ^
STACK CFI 1c75c .cfa: r7 8 +
STACK CFI INIT 1c87c 15c .cfa: sp 0 +
STACK CFI 1c87e .cfa: sp 20 + .ra: .cfa -4 + ^ r7: .cfa -8 + ^ r6: .cfa -12 + ^ r5: .cfa -16 + ^ r4: .cfa -20 + ^
STACK CFI 1c880 .cfa: r7 8 +
STACK CFI 1c884 r11: .cfa -24 + ^
STACK CFI INIT 1c9d8 70 .cfa: sp 0 +
STACK CFI 1c9da .cfa: sp 20 + .ra: .cfa -4 + ^ r7: .cfa -8 + ^ r6: .cfa -12 + ^ r5: .cfa -16 + ^ r4: .cfa -20 + ^
STACK CFI 1c9dc .cfa: r7 8 +
STACK CFI 1c9e0 r8: .cfa -24 + ^
STACK CFI INIT 1ca48 20 .cfa: sp 0 +
STACK CFI INIT 1ca68 b2 .cfa: sp 0 +
STACK CFI 1ca6a .cfa: sp 20 + .ra: .cfa -4 + ^ r7: .cfa -8 + ^ r6: .cfa -12 + ^ r5: .cfa -16 + ^ r4: .cfa -20 + ^
STACK CFI 1ca6c .cfa: r7 8 +
STACK CFI 1ca70 r10: .cfa -24 + ^ r9: .cfa -28 + ^ r8: .cfa -32 + ^
STACK CFI INIT 1cb1c e4 .cfa: sp 0 +
STACK CFI 1cb1e .cfa: sp 20 + .ra: .cfa -4 + ^ r7: .cfa -8 + ^ r6: .cfa -12 + ^ r5: .cfa -16 + ^ r4: .cfa -20 + ^
STACK CFI 1cb20 .cfa: r7 8 +
STACK CFI 1cb24 r11: .cfa -24 + ^ r10: .cfa -28 + ^ r9: .cfa -32 + ^ r8: .cfa -36 + ^
STACK CFI INIT 1cc00 2c .cfa: sp 0 +
STACK CFI 1cc02 .cfa: sp 16 + .ra: .cfa -4 + ^ r7: .cfa -8 + ^ r6: .cfa -12 + ^ r4: .cfa -16 + ^
STACK CFI 1cc04 .cfa: r7 8 +
STACK CFI INIT 1cc2c 6 .cfa: sp 0 +
STACK CFI INIT 1cc34 2c .cfa: sp 0 +
STACK CFI 1cc36 .cfa: sp 16 + .ra: .cfa -4 + ^ r7: .cfa -8 + ^ r6: .cfa -12 + ^ r4: .cfa -16 + ^
STACK CFI 1cc38 .cfa: r7 8 +
STACK CFI INIT 1cc60 b4 .cfa: sp 0 +
STACK CFI 1cc62 .cfa: sp 16 + .ra: .cfa -4 + ^ r7: .cfa -8 + ^ r5: .cfa -12 + ^ r4: .cfa -16 + ^
STACK CFI 1cc64 .cfa: r7 8 +
STACK CFI INIT 1cd14 90 .cfa: sp 0 +
STACK CFI 1cd16 .cfa: sp 16 + .ra: .cfa -4 + ^ r7: .cfa -8 + ^ r5: .cfa -12 + ^ r4: .cfa -16 + ^
STACK CFI 1cd18 .cfa: r7 8 +
STACK CFI INIT 1cda4 70 .cfa: sp 0 +
STACK CFI 1cda6 .cfa: sp 20 + .ra: .cfa -4 + ^ r7: .cfa -8 + ^ r6: .cfa -12 + ^ r5: .cfa -16 + ^ r4: .cfa -20 + ^
STACK CFI 1cda8 .cfa: r7 8 +
STACK CFI 1cdac r11: .cfa -24 + ^
STACK CFI INIT 1ce14 10 .cfa: sp 0 +
STACK CFI 1ce16 .cfa: sp 8 + .ra: .cfa -4 + ^ r7: .cfa -8 + ^
STACK CFI 1ce18 .cfa: r7 8 +
STACK CFI INIT 1ce24 38 .cfa: sp 0 +
STACK CFI 1ce26 .cfa: sp 16 + .ra: .cfa -4 + ^ r7: .cfa -8 + ^ r5: .cfa -12 + ^ r4: .cfa -16 + ^
STACK CFI 1ce28 .cfa: r7 8 +
STACK CFI INIT 1ce5c 18 .cfa: sp 0 +
STACK CFI 1ce5e .cfa: sp 8 + .ra: .cfa -4 + ^ r7: .cfa -8 + ^
STACK CFI 1ce60 .cfa: r7 8 +
STACK CFI INIT 1ce74 be .cfa: sp 0 +
STACK CFI 1ce76 .cfa: sp 20 + .ra: .cfa -4 + ^ r7: .cfa -8 + ^ r6: .cfa -12 + ^ r5: .cfa -16 + ^ r4: .cfa -20 + ^
STACK CFI 1ce78 .cfa: r7 8 +
STACK CFI 1ce7c r10: .cfa -24 + ^ r9: .cfa -28 + ^ r8: .cfa -32 + ^
STACK CFI INIT 1cf34 f8 .cfa: sp 0 +
STACK CFI 1cf36 .cfa: sp 20 + .ra: .cfa -4 + ^ r7: .cfa -8 + ^ r6: .cfa -12 + ^ r5: .cfa -16 + ^ r4: .cfa -20 + ^
STACK CFI 1cf38 .cfa: r7 8 +
STACK CFI 1cf3c r8: .cfa -24 + ^
STACK CFI INIT 1d02c 104 .cfa: sp 0 +
STACK CFI 1d02e .cfa: sp 20 + .ra: .cfa -4 + ^ r7: .cfa -8 + ^ r6: .cfa -12 + ^ r5: .cfa -16 + ^ r4: .cfa -20 + ^
STACK CFI 1d030 .cfa: r7 8 +
STACK CFI 1d034 r8: .cfa -24 + ^
STACK CFI INIT 1d130 2 .cfa: sp 0 +
STACK CFI INIT 1d132 e .cfa: sp 0 +
STACK CFI INIT 1d140 16 .cfa: sp 0 +
STACK CFI 1d142 .cfa: sp 16 + .ra: .cfa -4 + ^ r7: .cfa -8 + ^ r6: .cfa -12 + ^ r4: .cfa -16 + ^
STACK CFI 1d144 .cfa: r7 8 +
STACK CFI INIT 1d158 334 .cfa: sp 0 +
STACK CFI 1d15a .cfa: sp 20 + .ra: .cfa -4 + ^ r7: .cfa -8 + ^ r6: .cfa -12 + ^ r5: .cfa -16 + ^ r4: .cfa -20 + ^
STACK CFI 1d15c .cfa: r7 8 +
STACK CFI 1d160 r11: .cfa -24 + ^ r10: .cfa -28 + ^ r9: .cfa -32 + ^ r8: .cfa -36 + ^
STACK CFI INIT 1d48c 9a .cfa: sp 0 +
STACK CFI 1d48e .cfa: sp 20 + .ra: .cfa -4 + ^ r7: .cfa -8 + ^ r6: .cfa -12 + ^ r5: .cfa -16 + ^ r4: .cfa -20 + ^
STACK CFI 1d490 .cfa: r7 8 +
STACK CFI 1d494 r10: .cfa -24 + ^ r9: .cfa -28 + ^ r8: .cfa -32 + ^
STACK CFI INIT 1d526 36 .cfa: sp 0 +
STACK CFI 1d528 .cfa: sp 20 + .ra: .cfa -4 + ^ r7: .cfa -8 + ^ r6: .cfa -12 + ^ r5: .cfa -16 + ^ r4: .cfa -20 + ^
STACK CFI 1d52a .cfa: r7 8 +
STACK CFI 1d52e r11: .cfa -24 + ^
STACK CFI INIT 1d55c 10 .cfa: sp 0 +
STACK CFI 1d55e .cfa: sp 8 + .ra: .cfa -4 + ^ r7: .cfa -8 + ^
STACK CFI 1d560 .cfa: r7 8 +
STACK CFI INIT 1d56c 2e .cfa: sp 0 +
STACK CFI 1d56e .cfa: sp 16 + .ra: .cfa -4 + ^ r7: .cfa -8 + ^ r5: .cfa -12 + ^ r4: .cfa -16 + ^
STACK CFI 1d570 .cfa: r7 8 +
STACK CFI INIT 1d59a d6 .cfa: sp 0 +
STACK CFI 1d59c .cfa: sp 20 + .ra: .cfa -4 + ^ r7: .cfa -8 + ^ r6: .cfa -12 + ^ r5: .cfa -16 + ^ r4: .cfa -20 + ^
STACK CFI 1d59e .cfa: r7 8 +
STACK CFI 1d5a2 r10: .cfa -24 + ^ r9: .cfa -28 + ^ r8: .cfa -32 + ^
STACK CFI INIT 1d670 3c .cfa: sp 0 +
STACK CFI 1d672 .cfa: sp 16 + .ra: .cfa -4 + ^ r7: .cfa -8 + ^ r6: .cfa -12 + ^ r4: .cfa -16 + ^
STACK CFI 1d674 .cfa: r7 8 +
STACK CFI INIT 1d6ac 90 .cfa: sp 0 +
STACK CFI 1d6ae .cfa: sp 20 + .ra: .cfa -4 + ^ r7: .cfa -8 + ^ r6: .cfa -12 + ^ r5: .cfa -16 + ^ r4: .cfa -20 + ^
STACK CFI 1d6b0 .cfa: r7 8 +
STACK CFI 1d6b4 r11: .cfa -24 + ^ r10: .cfa -28 + ^ r9: .cfa -32 + ^ r8: .cfa -36 + ^
STACK CFI INIT 1d73c 10c .cfa: sp 0 +
STACK CFI 1d73e .cfa: sp 20 + .ra: .cfa -4 + ^ r7: .cfa -8 + ^ r6: .cfa -12 + ^ r5: .cfa -16 + ^ r4: .cfa -20 + ^
STACK CFI 1d740 .cfa: r7 8 +
STACK CFI 1d744 r11: .cfa -24 + ^ r10: .cfa -28 + ^ r9: .cfa -32 + ^ r8: .cfa -36 + ^
STACK CFI INIT 1d848 2dc .cfa: sp 0 +
STACK CFI 1d84a .cfa: sp 20 + .ra: .cfa -4 + ^ r7: .cfa -8 + ^ r6: .cfa -12 + ^ r5: .cfa -16 + ^ r4: .cfa -20 + ^
STACK CFI 1d84c .cfa: r7 8 +
STACK CFI 1d850 r11: .cfa -24 + ^ r10: .cfa -28 + ^ r9: .cfa -32 + ^ r8: .cfa -36 + ^
STACK CFI INIT 1db24 74 .cfa: sp 0 +
STACK CFI 1db26 .cfa: sp 16 + .ra: .cfa -4 + ^ r7: .cfa -8 + ^ r5: .cfa -12 + ^ r4: .cfa -16 + ^
STACK CFI 1db28 .cfa: r7 8 +
STACK CFI INIT 1db98 20 .cfa: sp 0 +
STACK CFI INIT 1dbb8 6 .cfa: sp 0 +
STACK CFI INIT 1dbc0 60 .cfa: sp 0 +
STACK CFI 1dbc2 .cfa: sp 16 + .ra: .cfa -4 + ^ r7: .cfa -8 + ^ r6: .cfa -12 + ^ r4: .cfa -16 + ^
STACK CFI 1dbc4 .cfa: r7 8 +
STACK CFI INIT 1dc20 78 .cfa: sp 0 +
STACK CFI 1dc22 .cfa: sp 20 + .ra: .cfa -4 + ^ r7: .cfa -8 + ^ r6: .cfa -12 + ^ r5: .cfa -16 + ^ r4: .cfa -20 + ^
STACK CFI 1dc24 .cfa: r7 8 +
STACK CFI 1dc28 r10: .cfa -24 + ^ r9: .cfa -28 + ^ r8: .cfa -32 + ^
STACK CFI INIT 1dc98 2a4 .cfa: sp 0 +
STACK CFI 1dc9a .cfa: sp 20 + .ra: .cfa -4 + ^ r7: .cfa -8 + ^ r6: .cfa -12 + ^ r5: .cfa -16 + ^ r4: .cfa -20 + ^
STACK CFI 1dc9c .cfa: r7 8 +
STACK CFI 1dca0 r11: .cfa -24 + ^ r10: .cfa -28 + ^ r9: .cfa -32 + ^ r8: .cfa -36 + ^
STACK CFI INIT 1df3c 34 .cfa: sp 0 +
STACK CFI 1df3e .cfa: sp 16 + .ra: .cfa -4 + ^ r7: .cfa -8 + ^ r6: .cfa -12 + ^ r4: .cfa -16 + ^
STACK CFI 1df40 .cfa: r7 8 +
STACK CFI INIT 1df70 38 .cfa: sp 0 +
STACK CFI 1df72 .cfa: sp 16 + .ra: .cfa -4 + ^ r7: .cfa -8 + ^ r6: .cfa -12 + ^ r4: .cfa -16 + ^
STACK CFI 1df74 .cfa: r7 8 +
STACK CFI INIT 1dfa8 5c .cfa: sp 0 +
STACK CFI 1dfaa .cfa: sp 16 + .ra: .cfa -4 + ^ r7: .cfa -8 + ^ r5: .cfa -12 + ^ r4: .cfa -16 + ^
STACK CFI 1dfac .cfa: r7 8 +
STACK CFI INIT 1e004 4c .cfa: sp 0 +
STACK CFI 1e006 .cfa: sp 16 + .ra: .cfa -4 + ^ r7: .cfa -8 + ^ r6: .cfa -12 + ^ r4: .cfa -16 + ^
STACK CFI 1e008 .cfa: r7 8 +
STACK CFI INIT 1e050 1e .cfa: sp 0 +
STACK CFI INIT 1e06e 2a .cfa: sp 0 +
STACK CFI 1e070 .cfa: sp 16 + .ra: .cfa -4 + ^ r7: .cfa -8 + ^ r6: .cfa -12 + ^ r4: .cfa -16 + ^
STACK CFI 1e072 .cfa: r7 8 +
STACK CFI INIT 1e098 168 .cfa: sp 0 +
STACK CFI 1e09a .cfa: sp 20 + .ra: .cfa -4 + ^ r7: .cfa -8 + ^ r6: .cfa -12 + ^ r5: .cfa -16 + ^ r4: .cfa -20 + ^
STACK CFI 1e09c .cfa: r7 8 +
STACK CFI 1e0a0 r10: .cfa -24 + ^ r9: .cfa -28 + ^ r8: .cfa -32 + ^
STACK CFI INIT 1e200 18 .cfa: sp 0 +
STACK CFI INIT 1e218 c .cfa: sp 0 +
STACK CFI INIT 1e224 bc .cfa: sp 0 +
STACK CFI 1e226 .cfa: sp 20 + .ra: .cfa -4 + ^ r7: .cfa -8 + ^ r6: .cfa -12 + ^ r5: .cfa -16 + ^ r4: .cfa -20 + ^
STACK CFI 1e228 .cfa: r7 8 +
STACK CFI 1e22c r11: .cfa -24 + ^ r10: .cfa -28 + ^ r9: .cfa -32 + ^ r8: .cfa -36 + ^
STACK CFI INIT 1e2e0 c0 .cfa: sp 0 +
STACK CFI 1e2e2 .cfa: sp 20 + .ra: .cfa -4 + ^ r7: .cfa -8 + ^ r6: .cfa -12 + ^ r5: .cfa -16 + ^ r4: .cfa -20 + ^
STACK CFI 1e2e4 .cfa: r7 8 +
STACK CFI 1e2e8 r11: .cfa -24 + ^ r10: .cfa -28 + ^ r9: .cfa -32 + ^ r8: .cfa -36 + ^
STACK CFI INIT 1e3a0 8c .cfa: sp 0 +
STACK CFI 1e3a2 .cfa: sp 20 + .ra: .cfa -4 + ^ r7: .cfa -8 + ^ r6: .cfa -12 + ^ r5: .cfa -16 + ^ r4: .cfa -20 + ^
STACK CFI 1e3a4 .cfa: r7 8 +
STACK CFI 1e3a8 r11: .cfa -24 + ^
STACK CFI INIT 1e42c 7c .cfa: sp 0 +
STACK CFI 1e42e .cfa: sp 20 + .ra: .cfa -4 + ^ r7: .cfa -8 + ^ r6: .cfa -12 + ^ r5: .cfa -16 + ^ r4: .cfa -20 + ^
STACK CFI 1e430 .cfa: r7 8 +
STACK CFI 1e434 r11: .cfa -24 + ^
STACK CFI INIT 1e4a8 6 .cfa: sp 0 +
STACK CFI INIT 1e4ae 16 .cfa: sp 0 +
STACK CFI 1e4b0 .cfa: sp 16 + .ra: .cfa -4 + ^ r7: .cfa -8 + ^ r6: .cfa -12 + ^ r4: .cfa -16 + ^
STACK CFI 1e4b2 .cfa: r7 8 +
STACK CFI INIT 1e4c4 2d4 .cfa: sp 0 +
STACK CFI 1e4c6 .cfa: sp 20 + .ra: .cfa -4 + ^ r7: .cfa -8 + ^ r6: .cfa -12 + ^ r5: .cfa -16 + ^ r4: .cfa -20 + ^
STACK CFI 1e4c8 .cfa: r7 8 +
STACK CFI 1e4cc r10: .cfa -24 + ^ r9: .cfa -28 + ^ r8: .cfa -32 + ^
STACK CFI INIT 1e798 18 .cfa: sp 0 +
STACK CFI INIT 1e7b0 c .cfa: sp 0 +
STACK CFI INIT 1e7bc ac .cfa: sp 0 +
STACK CFI 1e7be .cfa: sp 20 + .ra: .cfa -4 + ^ r7: .cfa -8 + ^ r6: .cfa -12 + ^ r5: .cfa -16 + ^ r4: .cfa -20 + ^
STACK CFI 1e7c0 .cfa: r7 8 +
STACK CFI 1e7c4 r11: .cfa -24 + ^ r10: .cfa -28 + ^ r9: .cfa -32 + ^ r8: .cfa -36 + ^
STACK CFI INIT 1e868 1c4 .cfa: sp 0 +
STACK CFI 1e86a .cfa: sp 20 + .ra: .cfa -4 + ^ r7: .cfa -8 + ^ r6: .cfa -12 + ^ r5: .cfa -16 + ^ r4: .cfa -20 + ^
STACK CFI 1e86c .cfa: r7 8 +
STACK CFI 1e870 r11: .cfa -24 + ^ r10: .cfa -28 + ^ r9: .cfa -32 + ^ r8: .cfa -36 + ^
STACK CFI INIT 1ea2c 3dc .cfa: sp 0 +
STACK CFI 1ea2e .cfa: sp 20 + .ra: .cfa -4 + ^ r7: .cfa -8 + ^ r6: .cfa -12 + ^ r5: .cfa -16 + ^ r4: .cfa -20 + ^
STACK CFI 1ea30 .cfa: r7 8 +
STACK CFI 1ea34 r11: .cfa -24 + ^ r10: .cfa -28 + ^ r9: .cfa -32 + ^ r8: .cfa -36 + ^
STACK CFI INIT 1ee08 120 .cfa: sp 0 +
STACK CFI 1ee0a .cfa: sp 16 + .ra: .cfa -4 + ^ r7: .cfa -8 + ^ r6: .cfa -12 + ^ r4: .cfa -16 + ^
STACK CFI 1ee0c .cfa: r7 8 +
STACK CFI INIT 1ef28 74 .cfa: sp 0 +
STACK CFI 1ef2a .cfa: sp 16 + .ra: .cfa -4 + ^ r7: .cfa -8 + ^ r5: .cfa -12 + ^ r4: .cfa -16 + ^
STACK CFI 1ef2c .cfa: r7 8 +
STACK CFI INIT 1ef9c 208 .cfa: sp 0 +
STACK CFI 1ef9e .cfa: sp 20 + .ra: .cfa -4 + ^ r7: .cfa -8 + ^ r6: .cfa -12 + ^ r5: .cfa -16 + ^ r4: .cfa -20 + ^
STACK CFI 1efa0 .cfa: r7 8 +
STACK CFI 1efa4 r11: .cfa -24 + ^ r10: .cfa -28 + ^ r9: .cfa -32 + ^ r8: .cfa -36 + ^
STACK CFI INIT 1f1a4 2a .cfa: sp 0 +
STACK CFI 1f1a6 .cfa: sp 16 + .ra: .cfa -4 + ^ r7: .cfa -8 + ^ r5: .cfa -12 + ^ r4: .cfa -16 + ^
STACK CFI 1f1a8 .cfa: r7 8 +
STACK CFI INIT 1f1d0 10 .cfa: sp 0 +
STACK CFI 1f1d2 .cfa: sp 8 + .ra: .cfa -4 + ^ r7: .cfa -8 + ^
STACK CFI 1f1d4 .cfa: r7 8 +
STACK CFI INIT 1f1e0 34 .cfa: sp 0 +
STACK CFI 1f1e2 .cfa: sp 16 + .ra: .cfa -4 + ^ r7: .cfa -8 + ^ r6: .cfa -12 + ^ r4: .cfa -16 + ^
STACK CFI 1f1e4 .cfa: r7 8 +
STACK CFI INIT 1f214 38 .cfa: sp 0 +
STACK CFI 1f216 .cfa: sp 16 + .ra: .cfa -4 + ^ r7: .cfa -8 + ^ r6: .cfa -12 + ^ r4: .cfa -16 + ^
STACK CFI 1f218 .cfa: r7 8 +
STACK CFI INIT 1f24c 5c .cfa: sp 0 +
STACK CFI 1f24e .cfa: sp 16 + .ra: .cfa -4 + ^ r7: .cfa -8 + ^ r5: .cfa -12 + ^ r4: .cfa -16 + ^
STACK CFI 1f250 .cfa: r7 8 +
STACK CFI INIT 1f2a8 4c .cfa: sp 0 +
STACK CFI 1f2aa .cfa: sp 16 + .ra: .cfa -4 + ^ r7: .cfa -8 + ^ r6: .cfa -12 + ^ r4: .cfa -16 + ^
STACK CFI 1f2ac .cfa: r7 8 +
STACK CFI INIT 1f2f4 1e .cfa: sp 0 +
STACK CFI INIT 1f312 2a .cfa: sp 0 +
STACK CFI 1f314 .cfa: sp 16 + .ra: .cfa -4 + ^ r7: .cfa -8 + ^ r6: .cfa -12 + ^ r4: .cfa -16 + ^
STACK CFI 1f316 .cfa: r7 8 +
STACK CFI INIT 1f33c 168 .cfa: sp 0 +
STACK CFI 1f33e .cfa: sp 20 + .ra: .cfa -4 + ^ r7: .cfa -8 + ^ r6: .cfa -12 + ^ r5: .cfa -16 + ^ r4: .cfa -20 + ^
STACK CFI 1f340 .cfa: r7 8 +
STACK CFI 1f344 r10: .cfa -24 + ^ r9: .cfa -28 + ^ r8: .cfa -32 + ^
STACK CFI INIT 1f4a4 18 .cfa: sp 0 +
STACK CFI INIT 1f4bc c .cfa: sp 0 +
STACK CFI INIT 1f4c8 bc .cfa: sp 0 +
STACK CFI 1f4ca .cfa: sp 20 + .ra: .cfa -4 + ^ r7: .cfa -8 + ^ r6: .cfa -12 + ^ r5: .cfa -16 + ^ r4: .cfa -20 + ^
STACK CFI 1f4cc .cfa: r7 8 +
STACK CFI 1f4d0 r11: .cfa -24 + ^ r10: .cfa -28 + ^ r9: .cfa -32 + ^ r8: .cfa -36 + ^
STACK CFI INIT 1f584 c0 .cfa: sp 0 +
STACK CFI 1f586 .cfa: sp 20 + .ra: .cfa -4 + ^ r7: .cfa -8 + ^ r6: .cfa -12 + ^ r5: .cfa -16 + ^ r4: .cfa -20 + ^
STACK CFI 1f588 .cfa: r7 8 +
STACK CFI 1f58c r11: .cfa -24 + ^ r10: .cfa -28 + ^ r9: .cfa -32 + ^ r8: .cfa -36 + ^
STACK CFI INIT 1f644 8c .cfa: sp 0 +
STACK CFI 1f646 .cfa: sp 20 + .ra: .cfa -4 + ^ r7: .cfa -8 + ^ r6: .cfa -12 + ^ r5: .cfa -16 + ^ r4: .cfa -20 + ^
STACK CFI 1f648 .cfa: r7 8 +
STACK CFI 1f64c r11: .cfa -24 + ^
STACK CFI INIT 1f6d0 7c .cfa: sp 0 +
STACK CFI 1f6d2 .cfa: sp 20 + .ra: .cfa -4 + ^ r7: .cfa -8 + ^ r6: .cfa -12 + ^ r5: .cfa -16 + ^ r4: .cfa -20 + ^
STACK CFI 1f6d4 .cfa: r7 8 +
STACK CFI 1f6d8 r11: .cfa -24 + ^
STACK CFI INIT 1f74c 6 .cfa: sp 0 +
STACK CFI INIT 1f752 16 .cfa: sp 0 +
STACK CFI 1f754 .cfa: sp 16 + .ra: .cfa -4 + ^ r7: .cfa -8 + ^ r6: .cfa -12 + ^ r4: .cfa -16 + ^
STACK CFI 1f756 .cfa: r7 8 +
STACK CFI INIT 1f768 2d4 .cfa: sp 0 +
STACK CFI 1f76a .cfa: sp 20 + .ra: .cfa -4 + ^ r7: .cfa -8 + ^ r6: .cfa -12 + ^ r5: .cfa -16 + ^ r4: .cfa -20 + ^
STACK CFI 1f76c .cfa: r7 8 +
STACK CFI 1f770 r10: .cfa -24 + ^ r9: .cfa -28 + ^ r8: .cfa -32 + ^
STACK CFI INIT 1fa3c 18 .cfa: sp 0 +
STACK CFI INIT 1fa54 c .cfa: sp 0 +
STACK CFI INIT 1fa60 ac .cfa: sp 0 +
STACK CFI 1fa62 .cfa: sp 20 + .ra: .cfa -4 + ^ r7: .cfa -8 + ^ r6: .cfa -12 + ^ r5: .cfa -16 + ^ r4: .cfa -20 + ^
STACK CFI 1fa64 .cfa: r7 8 +
STACK CFI 1fa68 r11: .cfa -24 + ^ r10: .cfa -28 + ^ r9: .cfa -32 + ^ r8: .cfa -36 + ^
STACK CFI INIT 1fb0c 26a .cfa: sp 0 +
STACK CFI 1fb0e .cfa: sp 20 + .ra: .cfa -4 + ^ r7: .cfa -8 + ^ r6: .cfa -12 + ^ r5: .cfa -16 + ^ r4: .cfa -20 + ^
STACK CFI 1fb10 .cfa: r7 8 +
STACK CFI 1fb14 r11: .cfa -24 + ^ r10: .cfa -28 + ^ r9: .cfa -32 + ^ r8: .cfa -36 + ^
STACK CFI INIT 1fd76 10c .cfa: sp 0 +
STACK CFI 1fd78 .cfa: sp 20 + .ra: .cfa -4 + ^ r7: .cfa -8 + ^ r6: .cfa -12 + ^ r5: .cfa -16 + ^ r4: .cfa -20 + ^
STACK CFI 1fd7a .cfa: r7 8 +
STACK CFI 1fd7e r11: .cfa -24 + ^ r10: .cfa -28 + ^ r9: .cfa -32 + ^ r8: .cfa -36 + ^
STACK CFI INIT 1fe84 40 .cfa: sp 0 +
STACK CFI 1fe86 .cfa: sp 16 + .ra: .cfa -4 + ^ r7: .cfa -8 + ^ r6: .cfa -12 + ^ r4: .cfa -16 + ^
STACK CFI 1fe88 .cfa: r7 8 +
STACK CFI INIT 1fec4 48 .cfa: sp 0 +
STACK CFI 1fec6 .cfa: sp 16 + .ra: .cfa -4 + ^ r7: .cfa -8 + ^ r6: .cfa -12 + ^ r4: .cfa -16 + ^
STACK CFI 1fec8 .cfa: r7 8 +
STACK CFI INIT 1ff0c 38 .cfa: sp 0 +
STACK CFI 1ff0e .cfa: sp 16 + .ra: .cfa -4 + ^ r7: .cfa -8 + ^ r5: .cfa -12 + ^ r4: .cfa -16 + ^
STACK CFI 1ff10 .cfa: r7 8 +
STACK CFI INIT 1ff44 1c .cfa: sp 0 +
STACK CFI INIT 1ff60 34 .cfa: sp 0 +
STACK CFI 1ff62 .cfa: sp 16 + .ra: .cfa -4 + ^ r7: .cfa -8 + ^ r6: .cfa -12 + ^ r4: .cfa -16 + ^
STACK CFI 1ff64 .cfa: r7 8 +
STACK CFI INIT 1ff94 38 .cfa: sp 0 +
STACK CFI 1ff96 .cfa: sp 16 + .ra: .cfa -4 + ^ r7: .cfa -8 + ^ r6: .cfa -12 + ^ r4: .cfa -16 + ^
STACK CFI 1ff98 .cfa: r7 8 +
STACK CFI INIT 1ffcc 554 .cfa: sp 0 +
STACK CFI 1ffce .cfa: sp 20 + .ra: .cfa -4 + ^ r7: .cfa -8 + ^ r6: .cfa -12 + ^ r5: .cfa -16 + ^ r4: .cfa -20 + ^
STACK CFI 1ffd0 .cfa: r7 8 +
STACK CFI 1ffd4 r11: .cfa -24 + ^ r10: .cfa -28 + ^ r9: .cfa -32 + ^ r8: .cfa -36 + ^
STACK CFI INIT 20520 18 .cfa: sp 0 +
STACK CFI INIT 20538 c .cfa: sp 0 +
STACK CFI INIT 20544 b2 .cfa: sp 0 +
STACK CFI 20546 .cfa: sp 20 + .ra: .cfa -4 + ^ r7: .cfa -8 + ^ r6: .cfa -12 + ^ r5: .cfa -16 + ^ r4: .cfa -20 + ^
STACK CFI 20548 .cfa: r7 8 +
STACK CFI 2054c r11: .cfa -24 + ^ r9: .cfa -28 + ^ r8: .cfa -32 + ^
STACK CFI INIT 205f8 34 .cfa: sp 0 +
STACK CFI 205fa .cfa: sp 16 + .ra: .cfa -4 + ^ r7: .cfa -8 + ^ r6: .cfa -12 + ^ r4: .cfa -16 + ^
STACK CFI 205fc .cfa: r7 8 +
STACK CFI INIT 2062c 38 .cfa: sp 0 +
STACK CFI 2062e .cfa: sp 16 + .ra: .cfa -4 + ^ r7: .cfa -8 + ^ r6: .cfa -12 + ^ r4: .cfa -16 + ^
STACK CFI 20630 .cfa: r7 8 +
STACK CFI INIT 20664 58 .cfa: sp 0 +
STACK CFI 20666 .cfa: sp 16 + .ra: .cfa -4 + ^ r7: .cfa -8 + ^ r5: .cfa -12 + ^ r4: .cfa -16 + ^
STACK CFI 20668 .cfa: r7 8 +
STACK CFI INIT 206bc 48 .cfa: sp 0 +
STACK CFI 206be .cfa: sp 16 + .ra: .cfa -4 + ^ r7: .cfa -8 + ^ r5: .cfa -12 + ^ r4: .cfa -16 + ^
STACK CFI 206c0 .cfa: r7 8 +
STACK CFI INIT 20704 1e .cfa: sp 0 +
STACK CFI INIT 20722 2a .cfa: sp 0 +
STACK CFI 20724 .cfa: sp 16 + .ra: .cfa -4 + ^ r7: .cfa -8 + ^ r6: .cfa -12 + ^ r4: .cfa -16 + ^
STACK CFI 20726 .cfa: r7 8 +
STACK CFI INIT 2074c e4 .cfa: sp 0 +
STACK CFI 2074e .cfa: sp 20 + .ra: .cfa -4 + ^ r7: .cfa -8 + ^ r6: .cfa -12 + ^ r5: .cfa -16 + ^ r4: .cfa -20 + ^
STACK CFI 20750 .cfa: r7 8 +
STACK CFI 20754 r11: .cfa -24 + ^
STACK CFI INIT 20830 18 .cfa: sp 0 +
STACK CFI INIT 20848 c .cfa: sp 0 +
STACK CFI INIT 20854 bc .cfa: sp 0 +
STACK CFI 20856 .cfa: sp 20 + .ra: .cfa -4 + ^ r7: .cfa -8 + ^ r6: .cfa -12 + ^ r5: .cfa -16 + ^ r4: .cfa -20 + ^
STACK CFI 20858 .cfa: r7 8 +
STACK CFI 2085c r11: .cfa -24 + ^ r10: .cfa -28 + ^ r9: .cfa -32 + ^ r8: .cfa -36 + ^
STACK CFI INIT 20910 c0 .cfa: sp 0 +
STACK CFI 20912 .cfa: sp 20 + .ra: .cfa -4 + ^ r7: .cfa -8 + ^ r6: .cfa -12 + ^ r5: .cfa -16 + ^ r4: .cfa -20 + ^
STACK CFI 20914 .cfa: r7 8 +
STACK CFI 20918 r11: .cfa -24 + ^ r10: .cfa -28 + ^ r9: .cfa -32 + ^ r8: .cfa -36 + ^
STACK CFI INIT 209d0 8c .cfa: sp 0 +
STACK CFI 209d2 .cfa: sp 20 + .ra: .cfa -4 + ^ r7: .cfa -8 + ^ r6: .cfa -12 + ^ r5: .cfa -16 + ^ r4: .cfa -20 + ^
STACK CFI 209d4 .cfa: r7 8 +
STACK CFI 209d8 r11: .cfa -24 + ^
STACK CFI INIT 20a5c 7c .cfa: sp 0 +
STACK CFI 20a5e .cfa: sp 20 + .ra: .cfa -4 + ^ r7: .cfa -8 + ^ r6: .cfa -12 + ^ r5: .cfa -16 + ^ r4: .cfa -20 + ^
STACK CFI 20a60 .cfa: r7 8 +
STACK CFI 20a64 r11: .cfa -24 + ^
STACK CFI INIT 20ad8 6 .cfa: sp 0 +
STACK CFI INIT 20ade 16 .cfa: sp 0 +
STACK CFI 20ae0 .cfa: sp 16 + .ra: .cfa -4 + ^ r7: .cfa -8 + ^ r6: .cfa -12 + ^ r4: .cfa -16 + ^
STACK CFI 20ae2 .cfa: r7 8 +
STACK CFI INIT 20af4 244 .cfa: sp 0 +
STACK CFI 20af6 .cfa: sp 20 + .ra: .cfa -4 + ^ r7: .cfa -8 + ^ r6: .cfa -12 + ^ r5: .cfa -16 + ^ r4: .cfa -20 + ^
STACK CFI 20af8 .cfa: r7 8 +
STACK CFI 20afc r10: .cfa -24 + ^ r9: .cfa -28 + ^ r8: .cfa -32 + ^
STACK CFI INIT 20d38 18 .cfa: sp 0 +
STACK CFI INIT 20d50 c .cfa: sp 0 +
STACK CFI INIT 20d5c ac .cfa: sp 0 +
STACK CFI 20d5e .cfa: sp 20 + .ra: .cfa -4 + ^ r7: .cfa -8 + ^ r6: .cfa -12 + ^ r5: .cfa -16 + ^ r4: .cfa -20 + ^
STACK CFI 20d60 .cfa: r7 8 +
STACK CFI 20d64 r11: .cfa -24 + ^ r10: .cfa -28 + ^ r9: .cfa -32 + ^ r8: .cfa -36 + ^
STACK CFI INIT 20e08 4a .cfa: sp 0 +
STACK CFI 20e0a .cfa: sp 20 + .ra: .cfa -4 + ^ r7: .cfa -8 + ^ r6: .cfa -12 + ^ r5: .cfa -16 + ^ r4: .cfa -20 + ^
STACK CFI 20e0c .cfa: r7 8 +
STACK CFI 20e10 r11: .cfa -24 + ^
STACK CFI INIT 20e54 3d0 .cfa: sp 0 +
STACK CFI 20e56 .cfa: sp 20 + .ra: .cfa -4 + ^ r7: .cfa -8 + ^ r6: .cfa -12 + ^ r5: .cfa -16 + ^ r4: .cfa -20 + ^
STACK CFI 20e58 .cfa: r7 8 +
STACK CFI 20e5c r11: .cfa -24 + ^ r10: .cfa -28 + ^ r9: .cfa -32 + ^ r8: .cfa -36 + ^
STACK CFI INIT 21224 34 .cfa: sp 0 +
STACK CFI 21226 .cfa: sp 16 + .ra: .cfa -4 + ^ r7: .cfa -8 + ^ r5: .cfa -12 + ^ r4: .cfa -16 + ^
STACK CFI 21228 .cfa: r7 8 +
STACK CFI INIT 21258 10c .cfa: sp 0 +
STACK CFI 2125a .cfa: sp 20 + .ra: .cfa -4 + ^ r7: .cfa -8 + ^ r6: .cfa -12 + ^ r5: .cfa -16 + ^ r4: .cfa -20 + ^
STACK CFI 2125c .cfa: r7 8 +
STACK CFI 21260 r11: .cfa -24 + ^ r10: .cfa -28 + ^ r9: .cfa -32 + ^ r8: .cfa -36 + ^
STACK CFI INIT 21364 3c .cfa: sp 0 +
STACK CFI 21366 .cfa: sp 16 + .ra: .cfa -4 + ^ r7: .cfa -8 + ^ r6: .cfa -12 + ^ r4: .cfa -16 + ^
STACK CFI 21368 .cfa: r7 8 +
STACK CFI INIT 213a0 88 .cfa: sp 0 +
STACK CFI 213a2 .cfa: sp 16 + .ra: .cfa -4 + ^ r7: .cfa -8 + ^ r6: .cfa -12 + ^ r4: .cfa -16 + ^
STACK CFI 213a4 .cfa: r7 8 +
STACK CFI INIT 21428 24 .cfa: sp 0 +
STACK CFI 2142a .cfa: sp 16 + .ra: .cfa -4 + ^ r7: .cfa -8 + ^ r6: .cfa -12 + ^ r4: .cfa -16 + ^
STACK CFI 2142c .cfa: r7 8 +
STACK CFI INIT 2144c 1018 .cfa: sp 0 +
STACK CFI 2144e .cfa: sp 20 + .ra: .cfa -4 + ^ r7: .cfa -8 + ^ r6: .cfa -12 + ^ r5: .cfa -16 + ^ r4: .cfa -20 + ^
STACK CFI 21450 .cfa: r7 8 +
STACK CFI 21454 r11: .cfa -24 + ^ r10: .cfa -28 + ^ r9: .cfa -32 + ^ r8: .cfa -36 + ^
STACK CFI INIT 22464 130 .cfa: sp 0 +
STACK CFI 22466 .cfa: sp 20 + .ra: .cfa -4 + ^ r7: .cfa -8 + ^ r6: .cfa -12 + ^ r5: .cfa -16 + ^ r4: .cfa -20 + ^
STACK CFI 22468 .cfa: r7 8 +
STACK CFI 2246c r11: .cfa -24 + ^ r10: .cfa -28 + ^ r9: .cfa -32 + ^ r8: .cfa -36 + ^
STACK CFI INIT 22594 10 .cfa: sp 0 +
STACK CFI 22596 .cfa: sp 8 + .ra: .cfa -4 + ^ r7: .cfa -8 + ^
STACK CFI 22598 .cfa: r7 8 +
STACK CFI INIT 225a4 d0 .cfa: sp 0 +
STACK CFI 225a6 .cfa: sp 20 + .ra: .cfa -4 + ^ r7: .cfa -8 + ^ r6: .cfa -12 + ^ r5: .cfa -16 + ^ r4: .cfa -20 + ^
STACK CFI 225a8 .cfa: r7 8 +
STACK CFI 225ac r8: .cfa -24 + ^
STACK CFI INIT 22678 12cc .cfa: sp 0 +
STACK CFI 2267a .cfa: sp 20 + .ra: .cfa -4 + ^ r7: .cfa -8 + ^ r6: .cfa -12 + ^ r5: .cfa -16 + ^ r4: .cfa -20 + ^
STACK CFI 2267c .cfa: r7 8 +
STACK CFI 22680 r11: .cfa -24 + ^ r10: .cfa -28 + ^ r9: .cfa -32 + ^ r8: .cfa -36 + ^
STACK CFI INIT 23944 38 .cfa: sp 0 +
STACK CFI 23956 .cfa: sp 16 + .ra: .cfa -4 + ^ r7: .cfa -8 + ^ r6: .cfa -12 + ^ r4: .cfa -16 + ^
STACK CFI 23958 .cfa: r7 8 +
STACK CFI INIT 2397c 98 .cfa: sp 0 +
STACK CFI 2397e .cfa: sp 20 + .ra: .cfa -4 + ^ r7: .cfa -8 + ^ r6: .cfa -12 + ^ r5: .cfa -16 + ^ r4: .cfa -20 + ^
STACK CFI 23980 .cfa: r7 8 +
STACK CFI 23984 r11: .cfa -24 + ^ r9: .cfa -28 + ^ r8: .cfa -32 + ^
STACK CFI INIT 23a14 36c .cfa: sp 0 +
STACK CFI 23a16 .cfa: sp 20 + .ra: .cfa -4 + ^ r7: .cfa -8 + ^ r6: .cfa -12 + ^ r5: .cfa -16 + ^ r4: .cfa -20 + ^
STACK CFI 23a18 .cfa: r7 8 +
STACK CFI 23a1c r11: .cfa -24 + ^ r10: .cfa -28 + ^ r9: .cfa -32 + ^ r8: .cfa -36 + ^
STACK CFI INIT 23d80 328 .cfa: sp 0 +
STACK CFI 23d82 .cfa: sp 20 + .ra: .cfa -4 + ^ r7: .cfa -8 + ^ r6: .cfa -12 + ^ r5: .cfa -16 + ^ r4: .cfa -20 + ^
STACK CFI 23d84 .cfa: r7 8 +
STACK CFI 23d88 r11: .cfa -24 + ^ r9: .cfa -28 + ^ r8: .cfa -32 + ^
STACK CFI INIT 240a8 28 .cfa: sp 0 +
STACK CFI 240aa .cfa: sp 16 + .ra: .cfa -4 + ^ r7: .cfa -8 + ^ r6: .cfa -12 + ^ r4: .cfa -16 + ^
STACK CFI 240ac .cfa: r7 8 +
STACK CFI INIT 240d0 54 .cfa: sp 0 +
STACK CFI 240d2 .cfa: sp 16 + .ra: .cfa -4 + ^ r7: .cfa -8 + ^ r6: .cfa -12 + ^ r4: .cfa -16 + ^
STACK CFI 240d4 .cfa: r7 8 +
STACK CFI INIT 24128 1304 .cfa: sp 0 +
STACK CFI 2412a .cfa: sp 20 + .ra: .cfa -4 + ^ r7: .cfa -8 + ^ r6: .cfa -12 + ^ r5: .cfa -16 + ^ r4: .cfa -20 + ^
STACK CFI 2412c .cfa: r7 8 +
STACK CFI 24130 r11: .cfa -24 + ^ r10: .cfa -28 + ^ r9: .cfa -32 + ^ r8: .cfa -36 + ^
STACK CFI INIT 2542c 34 .cfa: sp 0 +
STACK CFI 2543a .cfa: sp 16 + .ra: .cfa -4 + ^ r7: .cfa -8 + ^ r6: .cfa -12 + ^ r4: .cfa -16 + ^
STACK CFI 2543c .cfa: r7 8 +
STACK CFI INIT 25460 ce .cfa: sp 0 +
STACK CFI 25462 .cfa: sp 20 + .ra: .cfa -4 + ^ r7: .cfa -8 + ^ r6: .cfa -12 + ^ r5: .cfa -16 + ^ r4: .cfa -20 + ^
STACK CFI 25464 .cfa: r7 8 +
STACK CFI 25468 r11: .cfa -24 + ^ r10: .cfa -28 + ^ r9: .cfa -32 + ^ r8: .cfa -36 + ^
STACK CFI INIT 25530 10 .cfa: sp 0 +
STACK CFI 25532 .cfa: sp 8 + .ra: .cfa -4 + ^ r7: .cfa -8 + ^
STACK CFI 25534 .cfa: r7 8 +
STACK CFI INIT 25540 358 .cfa: sp 0 +
STACK CFI 25542 .cfa: sp 20 + .ra: .cfa -4 + ^ r7: .cfa -8 + ^ r6: .cfa -12 + ^ r5: .cfa -16 + ^ r4: .cfa -20 + ^
STACK CFI 25544 .cfa: r7 8 +
STACK CFI 25548 r11: .cfa -24 + ^ r10: .cfa -28 + ^ r9: .cfa -32 + ^ r8: .cfa -36 + ^
STACK CFI INIT 25898 198 .cfa: sp 0 +
STACK CFI 2589a .cfa: sp 20 + .ra: .cfa -4 + ^ r7: .cfa -8 + ^ r6: .cfa -12 + ^ r5: .cfa -16 + ^ r4: .cfa -20 + ^
STACK CFI 2589c .cfa: r7 8 +
STACK CFI 258a0 r11: .cfa -24 + ^ r9: .cfa -28 + ^ r8: .cfa -32 + ^
STACK CFI INIT 25a30 fc .cfa: sp 0 +
STACK CFI 25a32 .cfa: sp 20 + .ra: .cfa -4 + ^ r7: .cfa -8 + ^ r6: .cfa -12 + ^ r5: .cfa -16 + ^ r4: .cfa -20 + ^
STACK CFI 25a34 .cfa: r7 8 +
STACK CFI 25a38 r11: .cfa -24 + ^
STACK CFI INIT 25b2c 38 .cfa: sp 0 +
STACK CFI 25b3e .cfa: sp 16 + .ra: .cfa -4 + ^ r7: .cfa -8 + ^ r6: .cfa -12 + ^ r4: .cfa -16 + ^
STACK CFI 25b40 .cfa: r7 8 +
STACK CFI INIT 25b64 160 .cfa: sp 0 +
STACK CFI 25b66 .cfa: sp 20 + .ra: .cfa -4 + ^ r7: .cfa -8 + ^ r6: .cfa -12 + ^ r5: .cfa -16 + ^ r4: .cfa -20 + ^
STACK CFI 25b68 .cfa: r7 8 +
STACK CFI 25b6c r11: .cfa -24 + ^
STACK CFI INIT 25cc4 7c .cfa: sp 0 +
STACK CFI 25cc6 .cfa: sp 20 + .ra: .cfa -4 + ^ r7: .cfa -8 + ^ r6: .cfa -12 + ^ r5: .cfa -16 + ^ r4: .cfa -20 + ^
STACK CFI 25cc8 .cfa: r7 8 +
STACK CFI 25ccc r11: .cfa -24 + ^
STACK CFI INIT 25d40 190 .cfa: sp 0 +
STACK CFI 25d42 .cfa: sp 20 + .ra: .cfa -4 + ^ r7: .cfa -8 + ^ r6: .cfa -12 + ^ r5: .cfa -16 + ^ r4: .cfa -20 + ^
STACK CFI 25d44 .cfa: r7 8 +
STACK CFI 25d48 r10: .cfa -24 + ^ r9: .cfa -28 + ^ r8: .cfa -32 + ^
STACK CFI INIT 25ed0 160 .cfa: sp 0 +
STACK CFI 25ed2 .cfa: sp 20 + .ra: .cfa -4 + ^ r7: .cfa -8 + ^ r6: .cfa -12 + ^ r5: .cfa -16 + ^ r4: .cfa -20 + ^
STACK CFI 25ed4 .cfa: r7 8 +
STACK CFI 25ed8 r11: .cfa -24 + ^
STACK CFI INIT 26030 d6 .cfa: sp 0 +
STACK CFI 26032 .cfa: sp 20 + .ra: .cfa -4 + ^ r7: .cfa -8 + ^ r6: .cfa -12 + ^ r5: .cfa -16 + ^ r4: .cfa -20 + ^
STACK CFI 26034 .cfa: r7 8 +
STACK CFI 26038 r10: .cfa -24 + ^ r9: .cfa -28 + ^ r8: .cfa -32 + ^
STACK CFI INIT 26108 10 .cfa: sp 0 +
STACK CFI 2610a .cfa: sp 8 + .ra: .cfa -4 + ^ r7: .cfa -8 + ^
STACK CFI 2610c .cfa: r7 8 +
STACK CFI INIT 26118 2c .cfa: sp 0 +
STACK CFI 2611a .cfa: sp 16 + .ra: .cfa -4 + ^ r7: .cfa -8 + ^ r6: .cfa -12 + ^ r4: .cfa -16 + ^
STACK CFI 2611c .cfa: r7 8 +
STACK CFI INIT 26144 158 .cfa: sp 0 +
STACK CFI 26146 .cfa: sp 20 + .ra: .cfa -4 + ^ r7: .cfa -8 + ^ r6: .cfa -12 + ^ r5: .cfa -16 + ^ r4: .cfa -20 + ^
STACK CFI 26148 .cfa: r7 8 +
STACK CFI 2614c r8: .cfa -24 + ^
STACK CFI INIT 2629c 2c .cfa: sp 0 +
STACK CFI 2629e .cfa: sp 16 + .ra: .cfa -4 + ^ r7: .cfa -8 + ^ r6: .cfa -12 + ^ r4: .cfa -16 + ^
STACK CFI 262a0 .cfa: r7 8 +
STACK CFI INIT 262c8 15c .cfa: sp 0 +
STACK CFI 262ca .cfa: sp 20 + .ra: .cfa -4 + ^ r7: .cfa -8 + ^ r6: .cfa -12 + ^ r5: .cfa -16 + ^ r4: .cfa -20 + ^
STACK CFI 262cc .cfa: r7 8 +
STACK CFI 262d0 r8: .cfa -24 + ^
STACK CFI INIT 26424 70 .cfa: sp 0 +
STACK CFI 26426 .cfa: sp 20 + .ra: .cfa -4 + ^ r7: .cfa -8 + ^ r6: .cfa -12 + ^ r5: .cfa -16 + ^ r4: .cfa -20 + ^
STACK CFI 26428 .cfa: r7 8 +
STACK CFI 2642c r11: .cfa -24 + ^
STACK CFI INIT 26494 c8 .cfa: sp 0 +
STACK CFI 26496 .cfa: sp 20 + .ra: .cfa -4 + ^ r7: .cfa -8 + ^ r6: .cfa -12 + ^ r5: .cfa -16 + ^ r4: .cfa -20 + ^
STACK CFI 26498 .cfa: r7 8 +
STACK CFI 2649c r10: .cfa -24 + ^ r9: .cfa -28 + ^ r8: .cfa -32 + ^
STACK CFI INIT 2655c ba .cfa: sp 0 +
STACK CFI 2655e .cfa: sp 20 + .ra: .cfa -4 + ^ r7: .cfa -8 + ^ r6: .cfa -12 + ^ r5: .cfa -16 + ^ r4: .cfa -20 + ^
STACK CFI 26560 .cfa: r7 8 +
STACK CFI 26564 r11: .cfa -24 + ^ r10: .cfa -28 + ^ r9: .cfa -32 + ^ r8: .cfa -36 + ^
STACK CFI INIT 26616 38 .cfa: sp 0 +
STACK CFI 26618 .cfa: sp 16 + .ra: .cfa -4 + ^ r7: .cfa -8 + ^ r5: .cfa -12 + ^ r4: .cfa -16 + ^
STACK CFI 2661a .cfa: r7 8 +
STACK CFI INIT 26650 30 .cfa: sp 0 +
STACK CFI 26652 .cfa: sp 16 + .ra: .cfa -4 + ^ r7: .cfa -8 + ^ r6: .cfa -12 + ^ r4: .cfa -16 + ^
STACK CFI 26654 .cfa: r7 8 +
STACK CFI INIT 26680 1c0 .cfa: sp 0 +
STACK CFI 26682 .cfa: sp 20 + .ra: .cfa -4 + ^ r7: .cfa -8 + ^ r6: .cfa -12 + ^ r5: .cfa -16 + ^ r4: .cfa -20 + ^
STACK CFI 26684 .cfa: r7 8 +
STACK CFI 26688 r11: .cfa -24 + ^ r9: .cfa -28 + ^ r8: .cfa -32 + ^
STACK CFI INIT 26840 38 .cfa: sp 0 +
STACK CFI 26842 .cfa: sp 16 + .ra: .cfa -4 + ^ r7: .cfa -8 + ^ r5: .cfa -12 + ^ r4: .cfa -16 + ^
STACK CFI 26844 .cfa: r7 8 +
STACK CFI INIT 26878 2c .cfa: sp 0 +
STACK CFI 2687a .cfa: sp 16 + .ra: .cfa -4 + ^ r7: .cfa -8 + ^ r6: .cfa -12 + ^ r4: .cfa -16 + ^
STACK CFI 2687c .cfa: r7 8 +
STACK CFI INIT 268a4 4c .cfa: sp 0 +
STACK CFI 268a6 .cfa: sp 8 + .ra: .cfa -4 + ^ r7: .cfa -8 + ^
STACK CFI 268a8 .cfa: r7 8 +
STACK CFI INIT 268f0 34 .cfa: sp 0 +
STACK CFI 268fe .cfa: sp 16 + .ra: .cfa -4 + ^ r7: .cfa -8 + ^ r6: .cfa -12 + ^ r4: .cfa -16 + ^
STACK CFI 26900 .cfa: r7 8 +
STACK CFI INIT 26924 1ec .cfa: sp 0 +
STACK CFI 26926 .cfa: sp 20 + .ra: .cfa -4 + ^ r7: .cfa -8 + ^ r6: .cfa -12 + ^ r5: .cfa -16 + ^ r4: .cfa -20 + ^
STACK CFI 26928 .cfa: r7 8 +
STACK CFI 2692c r10: .cfa -24 + ^ r9: .cfa -28 + ^ r8: .cfa -32 + ^
STACK CFI INIT 26b10 194 .cfa: sp 0 +
STACK CFI 26b12 .cfa: sp 20 + .ra: .cfa -4 + ^ r7: .cfa -8 + ^ r6: .cfa -12 + ^ r5: .cfa -16 + ^ r4: .cfa -20 + ^
STACK CFI 26b14 .cfa: r7 8 +
STACK CFI 26b18 r11: .cfa -24 + ^ r10: .cfa -28 + ^ r9: .cfa -32 + ^ r8: .cfa -36 + ^
STACK CFI INIT 26ca4 b4 .cfa: sp 0 +
STACK CFI 26ca6 .cfa: sp 20 + .ra: .cfa -4 + ^ r7: .cfa -8 + ^ r6: .cfa -12 + ^ r5: .cfa -16 + ^ r4: .cfa -20 + ^
STACK CFI 26ca8 .cfa: r7 8 +
STACK CFI 26cac r11: .cfa -24 + ^ r9: .cfa -28 + ^ r8: .cfa -32 + ^
STACK CFI INIT 26d58 70 .cfa: sp 0 +
STACK CFI 26d5a .cfa: sp 20 + .ra: .cfa -4 + ^ r7: .cfa -8 + ^ r6: .cfa -12 + ^ r5: .cfa -16 + ^ r4: .cfa -20 + ^
STACK CFI 26d5c .cfa: r7 8 +
STACK CFI 26d60 r11: .cfa -24 + ^
STACK CFI INIT 26dc8 98 .cfa: sp 0 +
STACK CFI 26dca .cfa: sp 20 + .ra: .cfa -4 + ^ r7: .cfa -8 + ^ r6: .cfa -12 + ^ r5: .cfa -16 + ^ r4: .cfa -20 + ^
STACK CFI 26dcc .cfa: r7 8 +
STACK CFI 26dd0 r11: .cfa -24 + ^ r9: .cfa -28 + ^ r8: .cfa -32 + ^
STACK CFI INIT 26e60 46 .cfa: sp 0 +
STACK CFI 26e62 .cfa: sp 20 + .ra: .cfa -4 + ^ r7: .cfa -8 + ^ r6: .cfa -12 + ^ r5: .cfa -16 + ^ r4: .cfa -20 + ^
STACK CFI 26e64 .cfa: r7 8 +
STACK CFI 26e68 r8: .cfa -24 + ^
STACK CFI INIT 26ea6 34 .cfa: sp 0 +
STACK CFI 26ea8 .cfa: sp 20 + .ra: .cfa -4 + ^ r7: .cfa -8 + ^ r6: .cfa -12 + ^ r5: .cfa -16 + ^ r4: .cfa -20 + ^
STACK CFI 26eaa .cfa: r7 8 +
STACK CFI 26eae r11: .cfa -24 + ^
STACK CFI INIT 26edc 10 .cfa: sp 0 +
STACK CFI 26ede .cfa: sp 8 + .ra: .cfa -4 + ^ r7: .cfa -8 + ^
STACK CFI 26ee0 .cfa: r7 8 +
STACK CFI INIT 26eec 70 .cfa: sp 0 +
STACK CFI 26eee .cfa: sp 20 + .ra: .cfa -4 + ^ r7: .cfa -8 + ^ r6: .cfa -12 + ^ r5: .cfa -16 + ^ r4: .cfa -20 + ^
STACK CFI 26ef0 .cfa: r7 8 +
STACK CFI 26ef4 r11: .cfa -24 + ^
STACK CFI INIT 26f5c 70 .cfa: sp 0 +
STACK CFI 26f5e .cfa: sp 20 + .ra: .cfa -4 + ^ r7: .cfa -8 + ^ r6: .cfa -12 + ^ r5: .cfa -16 + ^ r4: .cfa -20 + ^
STACK CFI 26f60 .cfa: r7 8 +
STACK CFI 26f64 r11: .cfa -24 + ^
STACK CFI INIT 26fcc b4 .cfa: sp 0 +
STACK CFI 26fce .cfa: sp 20 + .ra: .cfa -4 + ^ r7: .cfa -8 + ^ r6: .cfa -12 + ^ r5: .cfa -16 + ^ r4: .cfa -20 + ^
STACK CFI 26fd0 .cfa: r7 8 +
STACK CFI 26fd4 r11: .cfa -24 + ^ r9: .cfa -28 + ^ r8: .cfa -32 + ^
STACK CFI INIT 27080 13c .cfa: sp 0 +
STACK CFI 27082 .cfa: sp 20 + .ra: .cfa -4 + ^ r7: .cfa -8 + ^ r6: .cfa -12 + ^ r5: .cfa -16 + ^ r4: .cfa -20 + ^
STACK CFI 27084 .cfa: r7 8 +
STACK CFI 27088 r11: .cfa -24 + ^ r9: .cfa -28 + ^ r8: .cfa -32 + ^
STACK CFI INIT 271bc 468 .cfa: sp 0 +
STACK CFI 271be .cfa: sp 20 + .ra: .cfa -4 + ^ r7: .cfa -8 + ^ r6: .cfa -12 + ^ r5: .cfa -16 + ^ r4: .cfa -20 + ^
STACK CFI 271c0 .cfa: r7 8 +
STACK CFI 271c4 r11: .cfa -24 + ^ r10: .cfa -28 + ^ r9: .cfa -32 + ^ r8: .cfa -36 + ^
STACK CFI INIT 27624 10c .cfa: sp 0 +
STACK CFI 27626 .cfa: sp 20 + .ra: .cfa -4 + ^ r7: .cfa -8 + ^ r6: .cfa -12 + ^ r5: .cfa -16 + ^ r4: .cfa -20 + ^
STACK CFI 27628 .cfa: r7 8 +
STACK CFI 2762c r11: .cfa -24 + ^
STACK CFI INIT 27730 114 .cfa: sp 0 +
STACK CFI 27732 .cfa: sp 20 + .ra: .cfa -4 + ^ r7: .cfa -8 + ^ r6: .cfa -12 + ^ r5: .cfa -16 + ^ r4: .cfa -20 + ^
STACK CFI 27734 .cfa: r7 8 +
STACK CFI 27738 r8: .cfa -24 + ^
STACK CFI INIT 27844 bc .cfa: sp 0 +
STACK CFI 27846 .cfa: sp 20 + .ra: .cfa -4 + ^ r7: .cfa -8 + ^ r6: .cfa -12 + ^ r5: .cfa -16 + ^ r4: .cfa -20 + ^
STACK CFI 27848 .cfa: r7 8 +
STACK CFI 2784c r11: .cfa -24 + ^
STACK CFI INIT 27900 bc .cfa: sp 0 +
STACK CFI 27902 .cfa: sp 20 + .ra: .cfa -4 + ^ r7: .cfa -8 + ^ r6: .cfa -12 + ^ r5: .cfa -16 + ^ r4: .cfa -20 + ^
STACK CFI 27904 .cfa: r7 8 +
STACK CFI 27908 r11: .cfa -24 + ^
STACK CFI INIT 279bc 16c .cfa: sp 0 +
STACK CFI 279be .cfa: sp 20 + .ra: .cfa -4 + ^ r7: .cfa -8 + ^ r6: .cfa -12 + ^ r5: .cfa -16 + ^ r4: .cfa -20 + ^
STACK CFI 279c0 .cfa: r7 8 +
STACK CFI 279c4 r11: .cfa -24 + ^ r10: .cfa -28 + ^ r9: .cfa -32 + ^ r8: .cfa -36 + ^
STACK CFI INIT 27b28 118 .cfa: sp 0 +
STACK CFI 27b2a .cfa: sp 20 + .ra: .cfa -4 + ^ r7: .cfa -8 + ^ r6: .cfa -12 + ^ r5: .cfa -16 + ^ r4: .cfa -20 + ^
STACK CFI 27b2c .cfa: r7 8 +
STACK CFI 27b30 r11: .cfa -24 + ^ r10: .cfa -28 + ^ r9: .cfa -32 + ^ r8: .cfa -36 + ^
STACK CFI INIT 27c40 120 .cfa: sp 0 +
STACK CFI 27c42 .cfa: sp 20 + .ra: .cfa -4 + ^ r7: .cfa -8 + ^ r6: .cfa -12 + ^ r5: .cfa -16 + ^ r4: .cfa -20 + ^
STACK CFI 27c44 .cfa: r7 8 +
STACK CFI 27c48 r11: .cfa -24 + ^ r10: .cfa -28 + ^ r9: .cfa -32 + ^ r8: .cfa -36 + ^
STACK CFI INIT 27d60 2c4 .cfa: sp 0 +
STACK CFI 27d62 .cfa: sp 20 + .ra: .cfa -4 + ^ r7: .cfa -8 + ^ r6: .cfa -12 + ^ r5: .cfa -16 + ^ r4: .cfa -20 + ^
STACK CFI 27d64 .cfa: r7 8 +
STACK CFI 27d68 r11: .cfa -24 + ^ r10: .cfa -28 + ^ r9: .cfa -32 + ^ r8: .cfa -36 + ^
STACK CFI INIT 28024 10c .cfa: sp 0 +
STACK CFI 28026 .cfa: sp 20 + .ra: .cfa -4 + ^ r7: .cfa -8 + ^ r6: .cfa -12 + ^ r5: .cfa -16 + ^ r4: .cfa -20 + ^
STACK CFI 28028 .cfa: r7 8 +
STACK CFI 2802c r11: .cfa -24 + ^
STACK CFI INIT 28130 124 .cfa: sp 0 +
STACK CFI 28132 .cfa: sp 20 + .ra: .cfa -4 + ^ r7: .cfa -8 + ^ r6: .cfa -12 + ^ r5: .cfa -16 + ^ r4: .cfa -20 + ^
STACK CFI 28134 .cfa: r7 8 +
STACK CFI 28138 r11: .cfa -24 + ^ r10: .cfa -28 + ^ r9: .cfa -32 + ^ r8: .cfa -36 + ^
STACK CFI INIT 28260 1e4 .cfa: sp 0 +
STACK CFI 28262 .cfa: sp 20 + .ra: .cfa -4 + ^ r7: .cfa -8 + ^ r6: .cfa -12 + ^ r5: .cfa -16 + ^ r4: .cfa -20 + ^
STACK CFI 28264 .cfa: r7 8 +
STACK CFI 28268 r11: .cfa -24 + ^ r10: .cfa -28 + ^ r9: .cfa -32 + ^ r8: .cfa -36 + ^
STACK CFI INIT 28444 fa .cfa: sp 0 +
STACK CFI 28446 .cfa: sp 20 + .ra: .cfa -4 + ^ r7: .cfa -8 + ^ r6: .cfa -12 + ^ r5: .cfa -16 + ^ r4: .cfa -20 + ^
STACK CFI 28448 .cfa: r7 8 +
STACK CFI 2844c r11: .cfa -24 + ^ r10: .cfa -28 + ^ r9: .cfa -32 + ^ r8: .cfa -36 + ^
STACK CFI INIT 28540 1e4 .cfa: sp 0 +
STACK CFI 28542 .cfa: sp 20 + .ra: .cfa -4 + ^ r7: .cfa -8 + ^ r6: .cfa -12 + ^ r5: .cfa -16 + ^ r4: .cfa -20 + ^
STACK CFI 28544 .cfa: r7 8 +
STACK CFI 28548 r11: .cfa -24 + ^ r10: .cfa -28 + ^ r9: .cfa -32 + ^ r8: .cfa -36 + ^
STACK CFI INIT 28724 118 .cfa: sp 0 +
STACK CFI 28726 .cfa: sp 16 + .ra: .cfa -4 + ^ r7: .cfa -8 + ^ r5: .cfa -12 + ^ r4: .cfa -16 + ^
STACK CFI 28728 .cfa: r7 8 +
STACK CFI INIT 2883c e0 .cfa: sp 0 +
STACK CFI 2883e .cfa: sp 20 + .ra: .cfa -4 + ^ r7: .cfa -8 + ^ r6: .cfa -12 + ^ r5: .cfa -16 + ^ r4: .cfa -20 + ^
STACK CFI 28840 .cfa: r7 8 +
STACK CFI 28844 r8: .cfa -24 + ^
STACK CFI INIT 2891c dc .cfa: sp 0 +
STACK CFI 2891e .cfa: sp 20 + .ra: .cfa -4 + ^ r7: .cfa -8 + ^ r6: .cfa -12 + ^ r5: .cfa -16 + ^ r4: .cfa -20 + ^
STACK CFI 28920 .cfa: r7 8 +
STACK CFI 28924 r8: .cfa -24 + ^
STACK CFI INIT 289f8 e0 .cfa: sp 0 +
STACK CFI 289fa .cfa: sp 20 + .ra: .cfa -4 + ^ r7: .cfa -8 + ^ r6: .cfa -12 + ^ r5: .cfa -16 + ^ r4: .cfa -20 + ^
STACK CFI 289fc .cfa: r7 8 +
STACK CFI 28a00 r8: .cfa -24 + ^
STACK CFI INIT 28ad8 60 .cfa: sp 0 +
STACK CFI 28ada .cfa: sp 8 + .ra: .cfa -4 + ^ r7: .cfa -8 + ^
STACK CFI 28adc .cfa: r7 8 +
STACK CFI INIT 28b38 106 .cfa: sp 0 +
STACK CFI 28b3a .cfa: sp 20 + .ra: .cfa -4 + ^ r7: .cfa -8 + ^ r6: .cfa -12 + ^ r5: .cfa -16 + ^ r4: .cfa -20 + ^
STACK CFI 28b3c .cfa: r7 8 +
STACK CFI 28b40 r11: .cfa -24 + ^ r10: .cfa -28 + ^ r9: .cfa -32 + ^ r8: .cfa -36 + ^
STACK CFI INIT 28c40 60 .cfa: sp 0 +
STACK CFI 28c42 .cfa: sp 8 + .ra: .cfa -4 + ^ r7: .cfa -8 + ^
STACK CFI 28c44 .cfa: r7 8 +
STACK CFI INIT 28ca0 114 .cfa: sp 0 +
STACK CFI 28ca2 .cfa: sp 20 + .ra: .cfa -4 + ^ r7: .cfa -8 + ^ r6: .cfa -12 + ^ r5: .cfa -16 + ^ r4: .cfa -20 + ^
STACK CFI 28ca4 .cfa: r7 8 +
STACK CFI 28ca8 r10: .cfa -24 + ^ r9: .cfa -28 + ^ r8: .cfa -32 + ^
STACK CFI INIT 28db4 688 .cfa: sp 0 +
STACK CFI 28db6 .cfa: sp 20 + .ra: .cfa -4 + ^ r7: .cfa -8 + ^ r6: .cfa -12 + ^ r5: .cfa -16 + ^ r4: .cfa -20 + ^
STACK CFI 28db8 .cfa: r7 8 +
STACK CFI 28dbc r10: .cfa -24 + ^ r9: .cfa -28 + ^ r8: .cfa -32 + ^
STACK CFI INIT 2943c 3c .cfa: sp 0 +
STACK CFI 2943e .cfa: sp 8 + .ra: .cfa -4 + ^ r7: .cfa -8 + ^
STACK CFI 29440 .cfa: r7 8 +
STACK CFI INIT 29478 190 .cfa: sp 0 +
STACK CFI 2947a .cfa: sp 20 + .ra: .cfa -4 + ^ r7: .cfa -8 + ^ r6: .cfa -12 + ^ r5: .cfa -16 + ^ r4: .cfa -20 + ^
STACK CFI 2947c .cfa: r7 8 +
STACK CFI 29480 r11: .cfa -24 + ^
STACK CFI INIT 29608 1a .cfa: sp 0 +
STACK CFI 2960a .cfa: sp 16 + .ra: .cfa -4 + ^ r7: .cfa -8 + ^ r5: .cfa -12 + ^ r4: .cfa -16 + ^
STACK CFI 2960c .cfa: r7 8 +
STACK CFI INIT 29624 c4 .cfa: sp 0 +
STACK CFI 29626 .cfa: sp 20 + .ra: .cfa -4 + ^ r7: .cfa -8 + ^ r6: .cfa -12 + ^ r5: .cfa -16 + ^ r4: .cfa -20 + ^
STACK CFI 29628 .cfa: r7 8 +
STACK CFI 2962c r11: .cfa -24 + ^ r10: .cfa -28 + ^ r9: .cfa -32 + ^ r8: .cfa -36 + ^
STACK CFI INIT 296e8 ad4 .cfa: sp 0 +
STACK CFI 296ea .cfa: sp 20 + .ra: .cfa -4 + ^ r7: .cfa -8 + ^ r6: .cfa -12 + ^ r5: .cfa -16 + ^ r4: .cfa -20 + ^
STACK CFI 296ec .cfa: r7 8 +
STACK CFI 296f0 r11: .cfa -24 + ^ r10: .cfa -28 + ^ r9: .cfa -32 + ^ r8: .cfa -36 + ^
STACK CFI INIT 2a1bc 26 .cfa: sp 0 +
STACK CFI 2a1be .cfa: sp 16 + .ra: .cfa -4 + ^ r7: .cfa -8 + ^ r6: .cfa -12 + ^ r4: .cfa -16 + ^
STACK CFI 2a1c0 .cfa: r7 8 +
STACK CFI INIT 2a1e4 50 .cfa: sp 0 +
STACK CFI 2a1e6 .cfa: sp 8 + .ra: .cfa -4 + ^ r7: .cfa -8 + ^
STACK CFI 2a1e8 .cfa: r7 8 +
STACK CFI INIT 2a234 a8 .cfa: sp 0 +
STACK CFI 2a236 .cfa: sp 16 + .ra: .cfa -4 + ^ r7: .cfa -8 + ^ r5: .cfa -12 + ^ r4: .cfa -16 + ^
STACK CFI 2a238 .cfa: r7 8 +
STACK CFI INIT 2a2dc ac .cfa: sp 0 +
STACK CFI 2a2de .cfa: sp 16 + .ra: .cfa -4 + ^ r7: .cfa -8 + ^ r5: .cfa -12 + ^ r4: .cfa -16 + ^
STACK CFI 2a2e0 .cfa: r7 8 +
STACK CFI INIT 2a388 4f8 .cfa: sp 0 +
STACK CFI 2a38a .cfa: sp 20 + .ra: .cfa -4 + ^ r7: .cfa -8 + ^ r6: .cfa -12 + ^ r5: .cfa -16 + ^ r4: .cfa -20 + ^
STACK CFI 2a38c .cfa: r7 8 +
STACK CFI 2a390 r11: .cfa -24 + ^ r10: .cfa -28 + ^ r9: .cfa -32 + ^ r8: .cfa -36 + ^
STACK CFI INIT 2a880 614 .cfa: sp 0 +
STACK CFI 2a882 .cfa: sp 20 + .ra: .cfa -4 + ^ r7: .cfa -8 + ^ r6: .cfa -12 + ^ r5: .cfa -16 + ^ r4: .cfa -20 + ^
STACK CFI 2a884 .cfa: r7 8 +
STACK CFI 2a888 r11: .cfa -24 + ^ r10: .cfa -28 + ^ r9: .cfa -32 + ^ r8: .cfa -36 + ^
STACK CFI INIT 2ae94 620 .cfa: sp 0 +
STACK CFI 2ae96 .cfa: sp 20 + .ra: .cfa -4 + ^ r7: .cfa -8 + ^ r6: .cfa -12 + ^ r5: .cfa -16 + ^ r4: .cfa -20 + ^
STACK CFI 2ae98 .cfa: r7 8 +
STACK CFI 2ae9c r11: .cfa -24 + ^ r10: .cfa -28 + ^ r9: .cfa -32 + ^ r8: .cfa -36 + ^
STACK CFI INIT 2b4b4 6e8 .cfa: sp 0 +
STACK CFI 2b4b6 .cfa: sp 20 + .ra: .cfa -4 + ^ r7: .cfa -8 + ^ r6: .cfa -12 + ^ r5: .cfa -16 + ^ r4: .cfa -20 + ^
STACK CFI 2b4b8 .cfa: r7 8 +
STACK CFI 2b4bc r11: .cfa -24 + ^ r10: .cfa -28 + ^ r9: .cfa -32 + ^ r8: .cfa -36 + ^
STACK CFI INIT 2bb9c 448 .cfa: sp 0 +
STACK CFI 2bb9e .cfa: sp 20 + .ra: .cfa -4 + ^ r7: .cfa -8 + ^ r6: .cfa -12 + ^ r5: .cfa -16 + ^ r4: .cfa -20 + ^
STACK CFI 2bba0 .cfa: r7 8 +
STACK CFI 2bba4 r11: .cfa -24 + ^ r10: .cfa -28 + ^ r9: .cfa -32 + ^ r8: .cfa -36 + ^
STACK CFI INIT 2bfe4 52c .cfa: sp 0 +
STACK CFI 2bfe6 .cfa: sp 20 + .ra: .cfa -4 + ^ r7: .cfa -8 + ^ r6: .cfa -12 + ^ r5: .cfa -16 + ^ r4: .cfa -20 + ^
STACK CFI 2bfe8 .cfa: r7 8 +
STACK CFI 2bfec r11: .cfa -24 + ^ r10: .cfa -28 + ^ r9: .cfa -32 + ^ r8: .cfa -36 + ^
STACK CFI INIT 2c510 470 .cfa: sp 0 +
STACK CFI 2c512 .cfa: sp 20 + .ra: .cfa -4 + ^ r7: .cfa -8 + ^ r6: .cfa -12 + ^ r5: .cfa -16 + ^ r4: .cfa -20 + ^
STACK CFI 2c514 .cfa: r7 8 +
STACK CFI 2c518 r11: .cfa -24 + ^ r10: .cfa -28 + ^ r9: .cfa -32 + ^ r8: .cfa -36 + ^
STACK CFI INIT 2c980 f0 .cfa: sp 0 +
STACK CFI 2c982 .cfa: sp 20 + .ra: .cfa -4 + ^ r7: .cfa -8 + ^ r6: .cfa -12 + ^ r5: .cfa -16 + ^ r4: .cfa -20 + ^
STACK CFI 2c984 .cfa: r7 8 +
STACK CFI 2c988 r11: .cfa -24 + ^ r10: .cfa -28 + ^ r9: .cfa -32 + ^ r8: .cfa -36 + ^
STACK CFI INIT 2ca70 15c .cfa: sp 0 +
STACK CFI 2ca72 .cfa: sp 20 + .ra: .cfa -4 + ^ r7: .cfa -8 + ^ r6: .cfa -12 + ^ r5: .cfa -16 + ^ r4: .cfa -20 + ^
STACK CFI 2ca74 .cfa: r7 8 +
STACK CFI 2ca78 r10: .cfa -24 + ^ r9: .cfa -28 + ^ r8: .cfa -32 + ^
STACK CFI INIT 2cbcc 238 .cfa: sp 0 +
STACK CFI 2cbce .cfa: sp 20 + .ra: .cfa -4 + ^ r7: .cfa -8 + ^ r6: .cfa -12 + ^ r5: .cfa -16 + ^ r4: .cfa -20 + ^
STACK CFI 2cbd0 .cfa: r7 8 +
STACK CFI 2cbd4 r11: .cfa -24 + ^ r10: .cfa -28 + ^ r9: .cfa -32 + ^ r8: .cfa -36 + ^
STACK CFI INIT 2ce04 528 .cfa: sp 0 +
STACK CFI 2ce06 .cfa: sp 20 + .ra: .cfa -4 + ^ r7: .cfa -8 + ^ r6: .cfa -12 + ^ r5: .cfa -16 + ^ r4: .cfa -20 + ^
STACK CFI 2ce08 .cfa: r7 8 +
STACK CFI 2ce0c r11: .cfa -24 + ^ r10: .cfa -28 + ^ r9: .cfa -32 + ^ r8: .cfa -36 + ^
STACK CFI INIT 2d32c 154 .cfa: sp 0 +
STACK CFI 2d32e .cfa: sp 16 + .ra: .cfa -4 + ^ r7: .cfa -8 + ^ r6: .cfa -12 + ^ r4: .cfa -16 + ^
STACK CFI 2d330 .cfa: r7 8 +
STACK CFI INIT 2d480 1ec .cfa: sp 0 +
STACK CFI 2d482 .cfa: sp 20 + .ra: .cfa -4 + ^ r7: .cfa -8 + ^ r6: .cfa -12 + ^ r5: .cfa -16 + ^ r4: .cfa -20 + ^
STACK CFI 2d484 .cfa: r7 8 +
STACK CFI 2d488 r11: .cfa -24 + ^ r10: .cfa -28 + ^ r9: .cfa -32 + ^ r8: .cfa -36 + ^
STACK CFI INIT 2d66c 94 .cfa: sp 0 +
STACK CFI 2d66e .cfa: sp 16 + .ra: .cfa -4 + ^ r7: .cfa -8 + ^ r6: .cfa -12 + ^ r4: .cfa -16 + ^
STACK CFI 2d670 .cfa: r7 8 +
STACK CFI INIT 2d700 4 .cfa: sp 0 +
STACK CFI INIT 2d704 110 .cfa: sp 0 +
STACK CFI 2d706 .cfa: sp 20 + .ra: .cfa -4 + ^ r7: .cfa -8 + ^ r6: .cfa -12 + ^ r5: .cfa -16 + ^ r4: .cfa -20 + ^
STACK CFI 2d708 .cfa: r7 8 +
STACK CFI 2d70c r8: .cfa -24 + ^
STACK CFI INIT 2d814 10 .cfa: sp 0 +
STACK CFI 2d816 .cfa: sp 8 + .ra: .cfa -4 + ^ r7: .cfa -8 + ^
STACK CFI 2d818 .cfa: r7 8 +
STACK CFI INIT 2d824 2 .cfa: sp 0 +
STACK CFI INIT 2d826 4 .cfa: sp 0 +
STACK CFI INIT 2d82a 8 .cfa: sp 0 +
STACK CFI INIT 2d832 14 .cfa: sp 0 +
STACK CFI 2d834 .cfa: sp 8 + .ra: .cfa -4 + ^ r7: .cfa -8 + ^
STACK CFI 2d836 .cfa: r7 8 +
STACK CFI INIT 2d846 2 .cfa: sp 0 +
STACK CFI INIT 2d848 2 .cfa: sp 0 +
STACK CFI INIT 2d84a 2 .cfa: sp 0 +
STACK CFI INIT 2d84c 2 .cfa: sp 0 +
STACK CFI INIT 2d84e 2 .cfa: sp 0 +
STACK CFI INIT 2d850 4 .cfa: sp 0 +
STACK CFI INIT 2d854 10 .cfa: sp 0 +
STACK CFI 2d856 .cfa: sp 8 + .ra: .cfa -4 + ^ r7: .cfa -8 + ^
STACK CFI 2d858 .cfa: r7 8 +
STACK CFI INIT 2d864 10 .cfa: sp 0 +
STACK CFI 2d866 .cfa: sp 8 + .ra: .cfa -4 + ^ r7: .cfa -8 + ^
STACK CFI 2d868 .cfa: r7 8 +
STACK CFI INIT 2d874 4 .cfa: sp 0 +
STACK CFI INIT 2d878 20 .cfa: sp 0 +
STACK CFI 2d87a .cfa: sp 16 + .ra: .cfa -4 + ^ r7: .cfa -8 + ^ r6: .cfa -12 + ^ r4: .cfa -16 + ^
STACK CFI 2d87c .cfa: r7 8 +
STACK CFI INIT 2d898 14 .cfa: sp 0 +
STACK CFI INIT 2d8ac 2 .cfa: sp 0 +
STACK CFI INIT 2d8ae 4 .cfa: sp 0 +
STACK CFI INIT 2d8b4 7c .cfa: sp 0 +
STACK CFI 2d8b6 .cfa: sp 16 + .ra: .cfa -4 + ^ r7: .cfa -8 + ^ r5: .cfa -12 + ^ r4: .cfa -16 + ^
STACK CFI 2d8b8 .cfa: r7 8 +
STACK CFI INIT 2d930 18 .cfa: sp 0 +
STACK CFI INIT 2d948 c .cfa: sp 0 +
STACK CFI INIT 2d954 4 .cfa: sp 0 +
STACK CFI INIT 2d958 28 .cfa: sp 0 +
STACK CFI 2d95a .cfa: sp 16 + .ra: .cfa -4 + ^ r7: .cfa -8 + ^ r5: .cfa -12 + ^ r4: .cfa -16 + ^
STACK CFI 2d95c .cfa: r7 8 +
STACK CFI INIT 2d980 1c .cfa: sp 0 +
STACK CFI INIT 2d99c 2 .cfa: sp 0 +
STACK CFI INIT 2d99e 4 .cfa: sp 0 +
STACK CFI INIT 2d9a4 83c .cfa: sp 0 +
STACK CFI 2d9a6 .cfa: sp 20 + .ra: .cfa -4 + ^ r7: .cfa -8 + ^ r6: .cfa -12 + ^ r5: .cfa -16 + ^ r4: .cfa -20 + ^
STACK CFI 2d9a8 .cfa: r7 8 +
STACK CFI 2d9ac r11: .cfa -24 + ^ r10: .cfa -28 + ^ r9: .cfa -32 + ^ r8: .cfa -36 + ^
STACK CFI INIT 2e1e0 18 .cfa: sp 0 +
STACK CFI INIT 2e1f8 c .cfa: sp 0 +
STACK CFI INIT 2e204 4 .cfa: sp 0 +
STACK CFI INIT 2e208 20 .cfa: sp 0 +
STACK CFI 2e20a .cfa: sp 16 + .ra: .cfa -4 + ^ r7: .cfa -8 + ^ r6: .cfa -12 + ^ r4: .cfa -16 + ^
STACK CFI 2e20c .cfa: r7 8 +
STACK CFI INIT 2e228 14 .cfa: sp 0 +
STACK CFI INIT 2e23c 2 .cfa: sp 0 +
STACK CFI INIT 2e23e 4 .cfa: sp 0 +
STACK CFI INIT 2e244 7c .cfa: sp 0 +
STACK CFI 2e246 .cfa: sp 16 + .ra: .cfa -4 + ^ r7: .cfa -8 + ^ r5: .cfa -12 + ^ r4: .cfa -16 + ^
STACK CFI 2e248 .cfa: r7 8 +
STACK CFI INIT 2e2c0 18 .cfa: sp 0 +
STACK CFI INIT 2e2d8 c .cfa: sp 0 +
STACK CFI INIT 2e2e4 4 .cfa: sp 0 +
STACK CFI INIT 2e2e8 20 .cfa: sp 0 +
STACK CFI 2e2ea .cfa: sp 16 + .ra: .cfa -4 + ^ r7: .cfa -8 + ^ r6: .cfa -12 + ^ r4: .cfa -16 + ^
STACK CFI 2e2ec .cfa: r7 8 +
STACK CFI INIT 2e308 14 .cfa: sp 0 +
STACK CFI INIT 2e31c 2 .cfa: sp 0 +
STACK CFI INIT 2e31e 4 .cfa: sp 0 +
STACK CFI INIT 2e324 7c .cfa: sp 0 +
STACK CFI 2e326 .cfa: sp 16 + .ra: .cfa -4 + ^ r7: .cfa -8 + ^ r5: .cfa -12 + ^ r4: .cfa -16 + ^
STACK CFI 2e328 .cfa: r7 8 +
STACK CFI INIT 2e3a0 18 .cfa: sp 0 +
STACK CFI INIT 2e3b8 c .cfa: sp 0 +
STACK CFI INIT 2e3c4 4 .cfa: sp 0 +
STACK CFI INIT 2e3c8 20 .cfa: sp 0 +
STACK CFI 2e3ca .cfa: sp 16 + .ra: .cfa -4 + ^ r7: .cfa -8 + ^ r6: .cfa -12 + ^ r4: .cfa -16 + ^
STACK CFI 2e3cc .cfa: r7 8 +
STACK CFI INIT 2e3e8 14 .cfa: sp 0 +
STACK CFI INIT 2e3fc 2 .cfa: sp 0 +
STACK CFI INIT 2e3fe 4 .cfa: sp 0 +
STACK CFI INIT 2e404 e0 .cfa: sp 0 +
STACK CFI 2e406 .cfa: sp 16 + .ra: .cfa -4 + ^ r7: .cfa -8 + ^ r5: .cfa -12 + ^ r4: .cfa -16 + ^
STACK CFI 2e408 .cfa: r7 8 +
STACK CFI INIT 2e4e4 18 .cfa: sp 0 +
STACK CFI INIT 2e4fc c .cfa: sp 0 +
STACK CFI INIT 2e508 2 .cfa: sp 0 +
STACK CFI INIT 2e50a 4 .cfa: sp 0 +
STACK CFI INIT 2e510 20 .cfa: sp 0 +
STACK CFI 2e512 .cfa: sp 16 + .ra: .cfa -4 + ^ r7: .cfa -8 + ^ r6: .cfa -12 + ^ r4: .cfa -16 + ^
STACK CFI 2e514 .cfa: r7 8 +
STACK CFI INIT 2e530 14 .cfa: sp 0 +
STACK CFI INIT 2e544 2 .cfa: sp 0 +
STACK CFI INIT 2e546 4 .cfa: sp 0 +
STACK CFI INIT 2e54c 7c .cfa: sp 0 +
STACK CFI 2e54e .cfa: sp 16 + .ra: .cfa -4 + ^ r7: .cfa -8 + ^ r5: .cfa -12 + ^ r4: .cfa -16 + ^
STACK CFI 2e550 .cfa: r7 8 +
STACK CFI INIT 2e5c8 18 .cfa: sp 0 +
STACK CFI INIT 2e5e0 c .cfa: sp 0 +
STACK CFI INIT 2e5ec 2 .cfa: sp 0 +
STACK CFI INIT 2e5ee 4 .cfa: sp 0 +
STACK CFI INIT 2e5f4 28 .cfa: sp 0 +
STACK CFI 2e5f6 .cfa: sp 16 + .ra: .cfa -4 + ^ r7: .cfa -8 + ^ r5: .cfa -12 + ^ r4: .cfa -16 + ^
STACK CFI 2e5f8 .cfa: r7 8 +
STACK CFI INIT 2e61c 1c .cfa: sp 0 +
STACK CFI INIT 2e638 2 .cfa: sp 0 +
STACK CFI INIT 2e63a 4 .cfa: sp 0 +
STACK CFI INIT 2e640 7ac .cfa: sp 0 +
STACK CFI 2e642 .cfa: sp 20 + .ra: .cfa -4 + ^ r7: .cfa -8 + ^ r6: .cfa -12 + ^ r5: .cfa -16 + ^ r4: .cfa -20 + ^
STACK CFI 2e644 .cfa: r7 8 +
STACK CFI 2e648 r11: .cfa -24 + ^ r10: .cfa -28 + ^ r9: .cfa -32 + ^ r8: .cfa -36 + ^
STACK CFI INIT 2edec 18 .cfa: sp 0 +
STACK CFI INIT 2ee04 c .cfa: sp 0 +
STACK CFI INIT 2ee10 2 .cfa: sp 0 +
STACK CFI INIT 2ee12 4 .cfa: sp 0 +
STACK CFI INIT 2ee18 28 .cfa: sp 0 +
STACK CFI 2ee1a .cfa: sp 16 + .ra: .cfa -4 + ^ r7: .cfa -8 + ^ r6: .cfa -12 + ^ r4: .cfa -16 + ^
STACK CFI 2ee1c .cfa: r7 8 +
STACK CFI INIT 2ee40 1c .cfa: sp 0 +
STACK CFI INIT 2ee5c 2 .cfa: sp 0 +
STACK CFI INIT 2ee5e 4 .cfa: sp 0 +
STACK CFI INIT 2ee64 34c .cfa: sp 0 +
STACK CFI 2ee66 .cfa: sp 20 + .ra: .cfa -4 + ^ r7: .cfa -8 + ^ r6: .cfa -12 + ^ r5: .cfa -16 + ^ r4: .cfa -20 + ^
STACK CFI 2ee68 .cfa: r7 8 +
STACK CFI 2ee6c r11: .cfa -24 + ^ r10: .cfa -28 + ^ r9: .cfa -32 + ^ r8: .cfa -36 + ^
STACK CFI INIT 2f1b0 18 .cfa: sp 0 +
STACK CFI INIT 2f1c8 c .cfa: sp 0 +
STACK CFI INIT 2f1d4 20 .cfa: sp 0 +
STACK CFI INIT 2f1f4 84 .cfa: sp 0 +
STACK CFI 2f1f6 .cfa: sp 20 + .ra: .cfa -4 + ^ r7: .cfa -8 + ^ r6: .cfa -12 + ^ r5: .cfa -16 + ^ r4: .cfa -20 + ^
STACK CFI 2f1f8 .cfa: r7 8 +
STACK CFI 2f1fc r11: .cfa -24 + ^
STACK CFI INIT 2f278 ec .cfa: sp 0 +
STACK CFI 2f27a .cfa: sp 20 + .ra: .cfa -4 + ^ r7: .cfa -8 + ^ r6: .cfa -12 + ^ r5: .cfa -16 + ^ r4: .cfa -20 + ^
STACK CFI 2f27c .cfa: r7 8 +
STACK CFI 2f280 r8: .cfa -24 + ^
STACK CFI INIT 2f364 a .cfa: sp 0 +
STACK CFI INIT 2f370 2a0 .cfa: sp 0 +
STACK CFI 2f372 .cfa: sp 20 + .ra: .cfa -4 + ^ r7: .cfa -8 + ^ r6: .cfa -12 + ^ r5: .cfa -16 + ^ r4: .cfa -20 + ^
STACK CFI 2f374 .cfa: r7 8 +
STACK CFI 2f378 r11: .cfa -24 + ^ r10: .cfa -28 + ^ r9: .cfa -32 + ^ r8: .cfa -36 + ^
STACK CFI INIT 2f610 60 .cfa: sp 0 +
STACK CFI 2f612 .cfa: sp 20 + .ra: .cfa -4 + ^ r7: .cfa -8 + ^ r6: .cfa -12 + ^ r5: .cfa -16 + ^ r4: .cfa -20 + ^
STACK CFI 2f614 .cfa: r7 8 +
STACK CFI 2f618 r11: .cfa -24 + ^
STACK CFI INIT 2f670 26 .cfa: sp 0 +
STACK CFI 2f68a .cfa: sp 8 + .ra: .cfa -4 + ^ r7: .cfa -8 + ^
STACK CFI 2f68c .cfa: r7 8 +
STACK CFI INIT 0 12 .cfa: sp 0 +
STACK CFI INIT 2f698 38 .cfa: sp 0 +
STACK CFI 2f69a .cfa: sp 16 + .ra: .cfa -4 + ^ r7: .cfa -8 + ^ r6: .cfa -12 + ^ r4: .cfa -16 + ^
STACK CFI 2f69c .cfa: r7 8 +
STACK CFI INIT 0 68 .cfa: sp 0 +
STACK CFI 2 .cfa: sp 20 + .ra: .cfa -4 + ^ r7: .cfa -8 + ^ r6: .cfa -12 + ^ r5: .cfa -16 + ^ r4: .cfa -20 + ^
STACK CFI 4 .cfa: r7 8 +
STACK CFI 8 r11: .cfa -24 + ^ r10: .cfa -28 + ^ r9: .cfa -32 + ^ r8: .cfa -36 + ^
STACK CFI INIT 2f6d0 154 .cfa: sp 0 +
STACK CFI 2f6d2 .cfa: sp 20 + .ra: .cfa -4 + ^ r7: .cfa -8 + ^ r6: .cfa -12 + ^ r5: .cfa -16 + ^ r4: .cfa -20 + ^
STACK CFI 2f6d4 .cfa: r7 8 +
STACK CFI 2f6d8 r11: .cfa -24 + ^ r10: .cfa -28 + ^ r9: .cfa -32 + ^ r8: .cfa -36 + ^
STACK CFI INIT 2f824 4 .cfa: sp 0 +
STACK CFI INIT 2f828 98 .cfa: sp 0 +
STACK CFI 2f82a .cfa: sp 20 + .ra: .cfa -4 + ^ r7: .cfa -8 + ^ r6: .cfa -12 + ^ r5: .cfa -16 + ^ r4: .cfa -20 + ^
STACK CFI 2f82c .cfa: r7 8 +
STACK CFI 2f830 r11: .cfa -24 + ^ r10: .cfa -28 + ^ r9: .cfa -32 + ^ r8: .cfa -36 + ^
STACK CFI INIT 0 26 .cfa: sp 0 +
STACK CFI 1a .cfa: sp 8 + .ra: .cfa -4 + ^ r7: .cfa -8 + ^
STACK CFI 1c .cfa: r7 8 +
STACK CFI INIT 0 52 .cfa: sp 0 +
STACK CFI 2 .cfa: sp 8 + .ra: .cfa -4 + ^ r7: .cfa -8 + ^
STACK CFI 4 .cfa: r7 8 +
STACK CFI INIT 2f8c0 7e .cfa: sp 0 +
STACK CFI 2f8c2 .cfa: sp 16 + .ra: .cfa -4 + ^ r7: .cfa -8 + ^ r5: .cfa -12 + ^ r4: .cfa -16 + ^
STACK CFI 2f8c4 .cfa: r7 8 +
STACK CFI INIT 2f93e e .cfa: sp 0 +
STACK CFI INIT 2f94c 2a4 .cfa: sp 0 +
STACK CFI 2f94e .cfa: sp 20 + .ra: .cfa -4 + ^ r7: .cfa -8 + ^ r6: .cfa -12 + ^ r5: .cfa -16 + ^ r4: .cfa -20 + ^
STACK CFI 2f950 .cfa: r7 8 +
STACK CFI 2f954 r11: .cfa -24 + ^ r10: .cfa -28 + ^ r9: .cfa -32 + ^ r8: .cfa -36 + ^
STACK CFI INIT 2fbf0 40 .cfa: sp 0 +
STACK CFI 2fbf2 .cfa: sp 16 + .ra: .cfa -4 + ^ r7: .cfa -8 + ^ r6: .cfa -12 + ^ r4: .cfa -16 + ^
STACK CFI 2fbf4 .cfa: r7 8 +
STACK CFI INIT 2fc30 36 .cfa: sp 0 +
STACK CFI 2fc32 .cfa: sp 16 + .ra: .cfa -4 + ^ r7: .cfa -8 + ^ r6: .cfa -12 + ^ r4: .cfa -16 + ^
STACK CFI 2fc34 .cfa: r7 8 +
STACK CFI INIT 2fc66 10 .cfa: sp 0 +
STACK CFI 2fc68 .cfa: sp 8 + .ra: .cfa -4 + ^ r7: .cfa -8 + ^
STACK CFI 2fc6a .cfa: r7 8 +
STACK CFI INIT 2fc76 8 .cfa: sp 0 +
STACK CFI INIT 2fc7e 14 .cfa: sp 0 +
STACK CFI 2fc80 .cfa: sp 8 + .ra: .cfa -4 + ^ r7: .cfa -8 + ^
STACK CFI 2fc82 .cfa: r7 8 +
STACK CFI INIT 2fc94 1e8 .cfa: sp 0 +
STACK CFI 2fc96 .cfa: sp 20 + .ra: .cfa -4 + ^ r7: .cfa -8 + ^ r6: .cfa -12 + ^ r5: .cfa -16 + ^ r4: .cfa -20 + ^
STACK CFI 2fc98 .cfa: r7 8 +
STACK CFI 2fc9c r10: .cfa -24 + ^ r9: .cfa -28 + ^ r8: .cfa -32 + ^
STACK CFI INIT 2fe7c 2 .cfa: sp 0 +
STACK CFI INIT 2fe7e 10 .cfa: sp 0 +
STACK CFI 2fe80 .cfa: sp 8 + .ra: .cfa -4 + ^ r7: .cfa -8 + ^
STACK CFI 2fe82 .cfa: r7 8 +
STACK CFI INIT 2fe8e 8 .cfa: sp 0 +
STACK CFI INIT 2fe96 14 .cfa: sp 0 +
STACK CFI 2fe98 .cfa: sp 8 + .ra: .cfa -4 + ^ r7: .cfa -8 + ^
STACK CFI 2fe9a .cfa: r7 8 +
STACK CFI INIT 2feac 78 .cfa: sp 0 +
STACK CFI 2feae .cfa: sp 16 + .ra: .cfa -4 + ^ r7: .cfa -8 + ^ r5: .cfa -12 + ^ r4: .cfa -16 + ^
STACK CFI 2feb0 .cfa: r7 8 +
STACK CFI INIT 2ff24 7c .cfa: sp 0 +
STACK CFI 2ff26 .cfa: sp 16 + .ra: .cfa -4 + ^ r7: .cfa -8 + ^ r5: .cfa -12 + ^ r4: .cfa -16 + ^
STACK CFI 2ff28 .cfa: r7 8 +
STACK CFI INIT 2ffa0 52 .cfa: sp 0 +
STACK CFI 2ffa2 .cfa: sp 8 + .ra: .cfa -4 + ^ r7: .cfa -8 + ^
STACK CFI 2ffa4 .cfa: r7 8 +
STACK CFI INIT 0 4 .cfa: sp 0 +
STACK CFI INIT 2fff4 164 .cfa: sp 0 +
STACK CFI 2fff6 .cfa: sp 20 + .ra: .cfa -4 + ^ r7: .cfa -8 + ^ r6: .cfa -12 + ^ r5: .cfa -16 + ^ r4: .cfa -20 + ^
STACK CFI 2fff8 .cfa: r7 8 +
STACK CFI 2fffc r11: .cfa -24 + ^
STACK CFI INIT 30158 3a .cfa: sp 0 +
STACK CFI 3015a .cfa: sp 16 + .ra: .cfa -4 + ^ r7: .cfa -8 + ^ r5: .cfa -12 + ^ r4: .cfa -16 + ^
STACK CFI 3015c .cfa: r7 8 +
STACK CFI INIT 30194 1bc .cfa: sp 0 +
STACK CFI 30196 .cfa: sp 20 + .ra: .cfa -4 + ^ r7: .cfa -8 + ^ r6: .cfa -12 + ^ r5: .cfa -16 + ^ r4: .cfa -20 + ^
STACK CFI 30198 .cfa: r7 8 +
STACK CFI 3019c r10: .cfa -24 + ^ r9: .cfa -28 + ^ r8: .cfa -32 + ^
STACK CFI INIT 30350 cc .cfa: sp 0 +
STACK CFI 30352 .cfa: sp 20 + .ra: .cfa -4 + ^ r7: .cfa -8 + ^ r6: .cfa -12 + ^ r5: .cfa -16 + ^ r4: .cfa -20 + ^
STACK CFI 30354 .cfa: r7 8 +
STACK CFI 30358 r11: .cfa -24 + ^
STACK CFI INIT 3041c 168 .cfa: sp 0 +
STACK CFI 3041e .cfa: sp 20 + .ra: .cfa -4 + ^ r7: .cfa -8 + ^ r6: .cfa -12 + ^ r5: .cfa -16 + ^ r4: .cfa -20 + ^
STACK CFI 30420 .cfa: r7 8 +
STACK CFI 30424 r11: .cfa -24 + ^ r9: .cfa -28 + ^ r8: .cfa -32 + ^
STACK CFI INIT 30584 3a .cfa: sp 0 +
STACK CFI 30586 .cfa: sp 16 + .ra: .cfa -4 + ^ r7: .cfa -8 + ^ r5: .cfa -12 + ^ r4: .cfa -16 + ^
STACK CFI 30588 .cfa: r7 8 +
STACK CFI INIT 305be 3a .cfa: sp 0 +
STACK CFI 305c0 .cfa: sp 16 + .ra: .cfa -4 + ^ r7: .cfa -8 + ^ r5: .cfa -12 + ^ r4: .cfa -16 + ^
STACK CFI 305c2 .cfa: r7 8 +
STACK CFI INIT 305f8 48 .cfa: sp 0 +
STACK CFI 305fa .cfa: sp 16 + .ra: .cfa -4 + ^ r7: .cfa -8 + ^ r5: .cfa -12 + ^ r4: .cfa -16 + ^
STACK CFI 305fc .cfa: r7 8 +
STACK CFI INIT 30640 54 .cfa: sp 0 +
STACK CFI 30642 .cfa: sp 16 + .ra: .cfa -4 + ^ r7: .cfa -8 + ^ r5: .cfa -12 + ^ r4: .cfa -16 + ^
STACK CFI 30644 .cfa: r7 8 +
STACK CFI INIT 30694 40 .cfa: sp 0 +
STACK CFI 30696 .cfa: sp 16 + .ra: .cfa -4 + ^ r7: .cfa -8 + ^ r6: .cfa -12 + ^ r4: .cfa -16 + ^
STACK CFI 30698 .cfa: r7 8 +
STACK CFI INIT 306d4 34 .cfa: sp 0 +
STACK CFI INIT 30708 3a .cfa: sp 0 +
STACK CFI 3070a .cfa: sp 16 + .ra: .cfa -4 + ^ r7: .cfa -8 + ^ r6: .cfa -12 + ^ r4: .cfa -16 + ^
STACK CFI 3070c .cfa: r7 8 +
STACK CFI INIT 30742 44 .cfa: sp 0 +
STACK CFI 30744 .cfa: sp 16 + .ra: .cfa -4 + ^ r7: .cfa -8 + ^ r5: .cfa -12 + ^ r4: .cfa -16 + ^
STACK CFI 30746 .cfa: r7 8 +
STACK CFI INIT 30788 150 .cfa: sp 0 +
STACK CFI 3078a .cfa: sp 20 + .ra: .cfa -4 + ^ r7: .cfa -8 + ^ r6: .cfa -12 + ^ r5: .cfa -16 + ^ r4: .cfa -20 + ^
STACK CFI 3078c .cfa: r7 8 +
STACK CFI 30790 r11: .cfa -24 + ^
STACK CFI INIT 308d8 18 .cfa: sp 0 +
STACK CFI INIT 308f0 c .cfa: sp 0 +
STACK CFI INIT 308fc 44 .cfa: sp 0 +
STACK CFI 308fe .cfa: sp 16 + .ra: .cfa -4 + ^ r7: .cfa -8 + ^ r5: .cfa -12 + ^ r4: .cfa -16 + ^
STACK CFI 30900 .cfa: r7 8 +
STACK CFI INIT 30940 40 .cfa: sp 0 +
STACK CFI 30942 .cfa: sp 16 + .ra: .cfa -4 + ^ r7: .cfa -8 + ^ r5: .cfa -12 + ^ r4: .cfa -16 + ^
STACK CFI 30944 .cfa: r7 8 +
STACK CFI INIT 30980 48 .cfa: sp 0 +
STACK CFI 30982 .cfa: sp 16 + .ra: .cfa -4 + ^ r7: .cfa -8 + ^ r5: .cfa -12 + ^ r4: .cfa -16 + ^
STACK CFI 30984 .cfa: r7 8 +
STACK CFI INIT 309c8 54 .cfa: sp 0 +
STACK CFI 309ca .cfa: sp 16 + .ra: .cfa -4 + ^ r7: .cfa -8 + ^ r5: .cfa -12 + ^ r4: .cfa -16 + ^
STACK CFI 309cc .cfa: r7 8 +
STACK CFI INIT 30a1c 3c .cfa: sp 0 +
STACK CFI 30a1e .cfa: sp 16 + .ra: .cfa -4 + ^ r7: .cfa -8 + ^ r6: .cfa -12 + ^ r4: .cfa -16 + ^
STACK CFI 30a20 .cfa: r7 8 +
STACK CFI INIT 30a58 30 .cfa: sp 0 +
STACK CFI INIT 30a88 3a .cfa: sp 0 +
STACK CFI 30a8a .cfa: sp 16 + .ra: .cfa -4 + ^ r7: .cfa -8 + ^ r6: .cfa -12 + ^ r4: .cfa -16 + ^
STACK CFI 30a8c .cfa: r7 8 +
STACK CFI INIT 30ac2 44 .cfa: sp 0 +
STACK CFI 30ac4 .cfa: sp 16 + .ra: .cfa -4 + ^ r7: .cfa -8 + ^ r5: .cfa -12 + ^ r4: .cfa -16 + ^
STACK CFI 30ac6 .cfa: r7 8 +
STACK CFI INIT 30b08 150 .cfa: sp 0 +
STACK CFI 30b0a .cfa: sp 20 + .ra: .cfa -4 + ^ r7: .cfa -8 + ^ r6: .cfa -12 + ^ r5: .cfa -16 + ^ r4: .cfa -20 + ^
STACK CFI 30b0c .cfa: r7 8 +
STACK CFI 30b10 r11: .cfa -24 + ^
STACK CFI INIT 30c58 18 .cfa: sp 0 +
STACK CFI INIT 30c70 c .cfa: sp 0 +
STACK CFI INIT 30c7c 2 .cfa: sp 0 +
STACK CFI INIT 30c7e 4 .cfa: sp 0 +
STACK CFI INIT 30c84 20 .cfa: sp 0 +
STACK CFI 30c86 .cfa: sp 16 + .ra: .cfa -4 + ^ r7: .cfa -8 + ^ r6: .cfa -12 + ^ r4: .cfa -16 + ^
STACK CFI 30c88 .cfa: r7 8 +
STACK CFI INIT 30ca4 14 .cfa: sp 0 +
STACK CFI INIT 30cb8 2 .cfa: sp 0 +
STACK CFI INIT 30cba 4 .cfa: sp 0 +
STACK CFI INIT 30cc0 130 .cfa: sp 0 +
STACK CFI 30cc2 .cfa: sp 20 + .ra: .cfa -4 + ^ r7: .cfa -8 + ^ r6: .cfa -12 + ^ r5: .cfa -16 + ^ r4: .cfa -20 + ^
STACK CFI 30cc4 .cfa: r7 8 +
STACK CFI 30cc8 r11: .cfa -24 + ^ r10: .cfa -28 + ^ r9: .cfa -32 + ^ r8: .cfa -36 + ^
STACK CFI INIT 30df0 18 .cfa: sp 0 +
STACK CFI INIT 30e08 c .cfa: sp 0 +
STACK CFI INIT 30e14 e .cfa: sp 0 +
STACK CFI INIT 30e22 e .cfa: sp 0 +
STACK CFI INIT 0 20 .cfa: sp 0 +
STACK CFI 2 .cfa: sp 16 + .ra: .cfa -4 + ^ r7: .cfa -8 + ^ r6: .cfa -12 + ^ r4: .cfa -16 + ^
STACK CFI 4 .cfa: r7 8 +
STACK CFI INIT 30e30 20 .cfa: sp 0 +
STACK CFI 30e32 .cfa: sp 16 + .ra: .cfa -4 + ^ r7: .cfa -8 + ^ r6: .cfa -12 + ^ r4: .cfa -16 + ^
STACK CFI 30e34 .cfa: r7 8 +
STACK CFI INIT 30e50 28 .cfa: sp 0 +
STACK CFI 30e52 .cfa: sp 16 + .ra: .cfa -4 + ^ r7: .cfa -8 + ^ r5: .cfa -12 + ^ r4: .cfa -16 + ^
STACK CFI 30e54 .cfa: r7 8 +
STACK CFI INIT 30e78 cc .cfa: sp 0 +
STACK CFI 30e7a .cfa: sp 16 + .ra: .cfa -4 + ^ r7: .cfa -8 + ^ r6: .cfa -12 + ^ r4: .cfa -16 + ^
STACK CFI 30e7c .cfa: r7 8 +
STACK CFI INIT 30f44 48 .cfa: sp 0 +
STACK CFI 30f46 .cfa: sp 16 + .ra: .cfa -4 + ^ r7: .cfa -8 + ^ r5: .cfa -12 + ^ r4: .cfa -16 + ^
STACK CFI 30f48 .cfa: r7 8 +
STACK CFI INIT 30f8c 60 .cfa: sp 0 +
STACK CFI 30f8e .cfa: sp 16 + .ra: .cfa -4 + ^ r7: .cfa -8 + ^ r6: .cfa -12 + ^ r4: .cfa -16 + ^
STACK CFI 30f90 .cfa: r7 8 +
STACK CFI INIT 30fec 46 .cfa: sp 0 +
STACK CFI 30fee .cfa: sp 16 + .ra: .cfa -4 + ^ r7: .cfa -8 + ^ r5: .cfa -12 + ^ r4: .cfa -16 + ^
STACK CFI 30ff0 .cfa: r7 8 +
STACK CFI INIT 31034 1b4 .cfa: sp 0 +
STACK CFI 31036 .cfa: sp 20 + .ra: .cfa -4 + ^ r7: .cfa -8 + ^ r6: .cfa -12 + ^ r5: .cfa -16 + ^ r4: .cfa -20 + ^
STACK CFI 31038 .cfa: r7 8 +
STACK CFI 3103c r8: .cfa -24 + ^
STACK CFI INIT 311e8 10 .cfa: sp 0 +
STACK CFI 311ea .cfa: sp 8 + .ra: .cfa -4 + ^ r7: .cfa -8 + ^
STACK CFI 311ec .cfa: r7 8 +
STACK CFI INIT 311f8 10 .cfa: sp 0 +
STACK CFI 311fa .cfa: sp 8 + .ra: .cfa -4 + ^ r7: .cfa -8 + ^
STACK CFI 311fc .cfa: r7 8 +
STACK CFI INIT 31208 1e0 .cfa: sp 0 +
STACK CFI 3120a .cfa: sp 20 + .ra: .cfa -4 + ^ r7: .cfa -8 + ^ r6: .cfa -12 + ^ r5: .cfa -16 + ^ r4: .cfa -20 + ^
STACK CFI 3120c .cfa: r7 8 +
STACK CFI 31210 r8: .cfa -24 + ^
STACK CFI INIT 313e8 8 .cfa: sp 0 +
STACK CFI INIT 313f0 10 .cfa: sp 0 +
STACK CFI 313f2 .cfa: sp 8 + .ra: .cfa -4 + ^ r7: .cfa -8 + ^
STACK CFI 313f4 .cfa: r7 8 +
STACK CFI INIT 31400 14 .cfa: sp 0 +
STACK CFI 31402 .cfa: sp 8 + .ra: .cfa -4 + ^ r7: .cfa -8 + ^
STACK CFI 31404 .cfa: r7 8 +
STACK CFI INIT 31414 27c .cfa: sp 0 +
STACK CFI 31416 .cfa: sp 20 + .ra: .cfa -4 + ^ r7: .cfa -8 + ^ r6: .cfa -12 + ^ r5: .cfa -16 + ^ r4: .cfa -20 + ^
STACK CFI 31418 .cfa: r7 8 +
STACK CFI 3141c r11: .cfa -24 + ^ r10: .cfa -28 + ^ r9: .cfa -32 + ^ r8: .cfa -36 + ^
STACK CFI INIT 31690 8 .cfa: sp 0 +
STACK CFI INIT 31698 10 .cfa: sp 0 +
STACK CFI 3169a .cfa: sp 8 + .ra: .cfa -4 + ^ r7: .cfa -8 + ^
STACK CFI 3169c .cfa: r7 8 +
STACK CFI INIT 316a8 14 .cfa: sp 0 +
STACK CFI 316aa .cfa: sp 8 + .ra: .cfa -4 + ^ r7: .cfa -8 + ^
STACK CFI 316ac .cfa: r7 8 +
STACK CFI INIT 316bc 1f0 .cfa: sp 0 +
STACK CFI 316be .cfa: sp 20 + .ra: .cfa -4 + ^ r7: .cfa -8 + ^ r6: .cfa -12 + ^ r5: .cfa -16 + ^ r4: .cfa -20 + ^
STACK CFI 316c0 .cfa: r7 8 +
STACK CFI 316c4 r8: .cfa -24 + ^
STACK CFI INIT 318ac 8 .cfa: sp 0 +
STACK CFI INIT 318b4 10 .cfa: sp 0 +
STACK CFI 318b6 .cfa: sp 8 + .ra: .cfa -4 + ^ r7: .cfa -8 + ^
STACK CFI 318b8 .cfa: r7 8 +
STACK CFI INIT 318c4 14 .cfa: sp 0 +
STACK CFI 318c6 .cfa: sp 8 + .ra: .cfa -4 + ^ r7: .cfa -8 + ^
STACK CFI 318c8 .cfa: r7 8 +
STACK CFI INIT 0 74 .cfa: sp 0 +
STACK CFI 2 .cfa: sp 16 + .ra: .cfa -4 + ^ r7: .cfa -8 + ^ r5: .cfa -12 + ^ r4: .cfa -16 + ^
STACK CFI 4 .cfa: r7 8 +
STACK CFI INIT 318d8 8 .cfa: sp 0 +
STACK CFI INIT 318e0 10 .cfa: sp 0 +
STACK CFI 318e2 .cfa: sp 8 + .ra: .cfa -4 + ^ r7: .cfa -8 + ^
STACK CFI 318e4 .cfa: r7 8 +
STACK CFI INIT 318f0 14 .cfa: sp 0 +
STACK CFI 318f2 .cfa: sp 8 + .ra: .cfa -4 + ^ r7: .cfa -8 + ^
STACK CFI 318f4 .cfa: r7 8 +
STACK CFI INIT 31904 11c .cfa: sp 0 +
STACK CFI 31906 .cfa: sp 20 + .ra: .cfa -4 + ^ r7: .cfa -8 + ^ r6: .cfa -12 + ^ r5: .cfa -16 + ^ r4: .cfa -20 + ^
STACK CFI 31908 .cfa: r7 8 +
STACK CFI 3190c r11: .cfa -24 + ^ r10: .cfa -28 + ^ r9: .cfa -32 + ^ r8: .cfa -36 + ^
STACK CFI INIT 31a20 100 .cfa: sp 0 +
STACK CFI 31a22 .cfa: sp 20 + .ra: .cfa -4 + ^ r7: .cfa -8 + ^ r6: .cfa -12 + ^ r5: .cfa -16 + ^ r4: .cfa -20 + ^
STACK CFI 31a24 .cfa: r7 8 +
STACK CFI 31a28 r10: .cfa -24 + ^ r9: .cfa -28 + ^ r8: .cfa -32 + ^
STACK CFI INIT 31b20 70 .cfa: sp 0 +
STACK CFI 31b22 .cfa: sp 20 + .ra: .cfa -4 + ^ r7: .cfa -8 + ^ r6: .cfa -12 + ^ r5: .cfa -16 + ^ r4: .cfa -20 + ^
STACK CFI 31b24 .cfa: r7 8 +
STACK CFI 31b28 r11: .cfa -24 + ^
STACK CFI INIT 0 30 .cfa: sp 0 +
STACK CFI 2 .cfa: sp 8 + .ra: .cfa -4 + ^ r7: .cfa -8 + ^
STACK CFI 4 .cfa: r7 8 +
STACK CFI INIT 0 18 .cfa: sp 0 +
STACK CFI 2 .cfa: sp 8 + .ra: .cfa -4 + ^ r7: .cfa -8 + ^
STACK CFI 4 .cfa: r7 8 +
STACK CFI INIT 31b90 1cc .cfa: sp 0 +
STACK CFI 31b92 .cfa: sp 20 + .ra: .cfa -4 + ^ r7: .cfa -8 + ^ r6: .cfa -12 + ^ r5: .cfa -16 + ^ r4: .cfa -20 + ^
STACK CFI 31b94 .cfa: r7 8 +
STACK CFI 31b98 r11: .cfa -24 + ^ r10: .cfa -28 + ^ r9: .cfa -32 + ^ r8: .cfa -36 + ^
STACK CFI INIT 31d5c c0 .cfa: sp 0 +
STACK CFI 31d5e .cfa: sp 16 + .ra: .cfa -4 + ^ r7: .cfa -8 + ^ r5: .cfa -12 + ^ r4: .cfa -16 + ^
STACK CFI 31d60 .cfa: r7 8 +
STACK CFI INIT 31e20 b0 .cfa: sp 0 +
STACK CFI 31e22 .cfa: sp 20 + .ra: .cfa -4 + ^ r7: .cfa -8 + ^ r6: .cfa -12 + ^ r5: .cfa -16 + ^ r4: .cfa -20 + ^
STACK CFI 31e24 .cfa: r7 8 +
STACK CFI 31e28 r10: .cfa -24 + ^ r9: .cfa -28 + ^ r8: .cfa -32 + ^
STACK CFI INIT 31ed0 4c .cfa: sp 0 +
STACK CFI 31ed2 .cfa: sp 16 + .ra: .cfa -4 + ^ r7: .cfa -8 + ^ r6: .cfa -12 + ^ r4: .cfa -16 + ^
STACK CFI 31ed4 .cfa: r7 8 +
STACK CFI INIT 31f1c 2 .cfa: sp 0 +
STACK CFI INIT 31f20 294 .cfa: sp 0 +
STACK CFI 31f22 .cfa: sp 20 + .ra: .cfa -4 + ^ r7: .cfa -8 + ^ r6: .cfa -12 + ^ r5: .cfa -16 + ^ r4: .cfa -20 + ^
STACK CFI 31f24 .cfa: r7 8 +
STACK CFI 31f28 r11: .cfa -24 + ^ r10: .cfa -28 + ^ r9: .cfa -32 + ^ r8: .cfa -36 + ^
STACK CFI INIT 321b4 294 .cfa: sp 0 +
STACK CFI 321b6 .cfa: sp 20 + .ra: .cfa -4 + ^ r7: .cfa -8 + ^ r6: .cfa -12 + ^ r5: .cfa -16 + ^ r4: .cfa -20 + ^
STACK CFI 321b8 .cfa: r7 8 +
STACK CFI 321bc r11: .cfa -24 + ^ r10: .cfa -28 + ^ r9: .cfa -32 + ^ r8: .cfa -36 + ^
STACK CFI INIT 32448 10 .cfa: sp 0 +
STACK CFI 3244a .cfa: sp 8 + .ra: .cfa -4 + ^ r7: .cfa -8 + ^
STACK CFI 3244c .cfa: r7 8 +
STACK CFI INIT 32458 22c .cfa: sp 0 +
STACK CFI 3245a .cfa: sp 20 + .ra: .cfa -4 + ^ r7: .cfa -8 + ^ r6: .cfa -12 + ^ r5: .cfa -16 + ^ r4: .cfa -20 + ^
STACK CFI 3245c .cfa: r7 8 +
STACK CFI 32460 r11: .cfa -24 + ^ r10: .cfa -28 + ^ r9: .cfa -32 + ^ r8: .cfa -36 + ^
STACK CFI INIT 32684 274 .cfa: sp 0 +
STACK CFI 32686 .cfa: sp 20 + .ra: .cfa -4 + ^ r7: .cfa -8 + ^ r6: .cfa -12 + ^ r5: .cfa -16 + ^ r4: .cfa -20 + ^
STACK CFI 32688 .cfa: r7 8 +
STACK CFI 3268c r11: .cfa -24 + ^ r10: .cfa -28 + ^ r9: .cfa -32 + ^ r8: .cfa -36 + ^
STACK CFI INIT 328f8 42c .cfa: sp 0 +
STACK CFI 328fa .cfa: sp 20 + .ra: .cfa -4 + ^ r7: .cfa -8 + ^ r6: .cfa -12 + ^ r5: .cfa -16 + ^ r4: .cfa -20 + ^
STACK CFI 328fc .cfa: r7 8 +
STACK CFI 32900 r11: .cfa -24 + ^ r10: .cfa -28 + ^ r9: .cfa -32 + ^ r8: .cfa -36 + ^
STACK CFI INIT 32d24 f8 .cfa: sp 0 +
STACK CFI 32d26 .cfa: sp 20 + .ra: .cfa -4 + ^ r7: .cfa -8 + ^ r6: .cfa -12 + ^ r5: .cfa -16 + ^ r4: .cfa -20 + ^
STACK CFI 32d28 .cfa: r7 8 +
STACK CFI 32d2c r8: .cfa -24 + ^
STACK CFI INIT 32e1c 2 .cfa: sp 0 +
STACK CFI INIT 32e1e e .cfa: sp 0 +
STACK CFI INIT 32e2c 50 .cfa: sp 0 +
STACK CFI 32e2e .cfa: sp 16 + .ra: .cfa -4 + ^ r7: .cfa -8 + ^ r6: .cfa -12 + ^ r4: .cfa -16 + ^
STACK CFI 32e30 .cfa: r7 8 +
STACK CFI INIT 32e7c 54 .cfa: sp 0 +
STACK CFI 32e7e .cfa: sp 16 + .ra: .cfa -4 + ^ r7: .cfa -8 + ^ r6: .cfa -12 + ^ r4: .cfa -16 + ^
STACK CFI 32e80 .cfa: r7 8 +
STACK CFI INIT 32ed0 58 .cfa: sp 0 +
STACK CFI 32ed2 .cfa: sp 16 + .ra: .cfa -4 + ^ r7: .cfa -8 + ^ r6: .cfa -12 + ^ r4: .cfa -16 + ^
STACK CFI 32ed4 .cfa: r7 8 +
STACK CFI INIT 32f28 3ea .cfa: sp 0 +
STACK CFI 32f2a .cfa: sp 20 + .ra: .cfa -4 + ^ r7: .cfa -8 + ^ r6: .cfa -12 + ^ r5: .cfa -16 + ^ r4: .cfa -20 + ^
STACK CFI 32f2c .cfa: r7 8 +
STACK CFI 32f30 r11: .cfa -24 + ^ r10: .cfa -28 + ^ r9: .cfa -32 + ^ r8: .cfa -36 + ^
STACK CFI INIT 33314 1cc .cfa: sp 0 +
STACK CFI 33316 .cfa: sp 20 + .ra: .cfa -4 + ^ r7: .cfa -8 + ^ r6: .cfa -12 + ^ r5: .cfa -16 + ^ r4: .cfa -20 + ^
STACK CFI 33318 .cfa: r7 8 +
STACK CFI 3331c r11: .cfa -24 + ^ r10: .cfa -28 + ^ r9: .cfa -32 + ^ r8: .cfa -36 + ^
STACK CFI INIT 334e0 44 .cfa: sp 0 +
STACK CFI 334e2 .cfa: sp 16 + .ra: .cfa -4 + ^ r7: .cfa -8 + ^ r6: .cfa -12 + ^ r4: .cfa -16 + ^
STACK CFI 334e4 .cfa: r7 8 +
STACK CFI INIT 33524 38 .cfa: sp 0 +
STACK CFI 33526 .cfa: sp 16 + .ra: .cfa -4 + ^ r7: .cfa -8 + ^ r5: .cfa -12 + ^ r4: .cfa -16 + ^
STACK CFI 33528 .cfa: r7 8 +
STACK CFI INIT 3355c 18 .cfa: sp 0 +
STACK CFI 3355e .cfa: sp 8 + .ra: .cfa -4 + ^ r7: .cfa -8 + ^
STACK CFI 33560 .cfa: r7 8 +
STACK CFI INIT 33574 420 .cfa: sp 0 +
STACK CFI 33576 .cfa: sp 20 + .ra: .cfa -4 + ^ r7: .cfa -8 + ^ r6: .cfa -12 + ^ r5: .cfa -16 + ^ r4: .cfa -20 + ^
STACK CFI 33578 .cfa: r7 8 +
STACK CFI 3357c r11: .cfa -24 + ^ r10: .cfa -28 + ^ r9: .cfa -32 + ^ r8: .cfa -36 + ^
STACK CFI INIT 33994 30 .cfa: sp 0 +
STACK CFI 33996 .cfa: sp 16 + .ra: .cfa -4 + ^ r7: .cfa -8 + ^ r6: .cfa -12 + ^ r4: .cfa -16 + ^
STACK CFI 33998 .cfa: r7 8 +
STACK CFI INIT 339c4 c0 .cfa: sp 0 +
STACK CFI 339c6 .cfa: sp 20 + .ra: .cfa -4 + ^ r7: .cfa -8 + ^ r6: .cfa -12 + ^ r5: .cfa -16 + ^ r4: .cfa -20 + ^
STACK CFI 339c8 .cfa: r7 8 +
STACK CFI 339cc r11: .cfa -24 + ^ r9: .cfa -28 + ^ r8: .cfa -32 + ^
STACK CFI INIT 33a84 1ac .cfa: sp 0 +
STACK CFI 33a86 .cfa: sp 20 + .ra: .cfa -4 + ^ r7: .cfa -8 + ^ r6: .cfa -12 + ^ r5: .cfa -16 + ^ r4: .cfa -20 + ^
STACK CFI 33a88 .cfa: r7 8 +
STACK CFI 33a8c r11: .cfa -24 + ^ r10: .cfa -28 + ^ r9: .cfa -32 + ^ r8: .cfa -36 + ^
STACK CFI INIT 33c30 278 .cfa: sp 0 +
STACK CFI 33c32 .cfa: sp 20 + .ra: .cfa -4 + ^ r7: .cfa -8 + ^ r6: .cfa -12 + ^ r5: .cfa -16 + ^ r4: .cfa -20 + ^
STACK CFI 33c34 .cfa: r7 8 +
STACK CFI 33c38 r10: .cfa -24 + ^ r9: .cfa -28 + ^ r8: .cfa -32 + ^
STACK CFI INIT 33eb0 228 .cfa: sp 0 +
STACK CFI 33eb2 .cfa: sp 20 + .ra: .cfa -4 + ^ r7: .cfa -8 + ^ r6: .cfa -12 + ^ r5: .cfa -16 + ^ r4: .cfa -20 + ^
STACK CFI 33eb4 .cfa: r7 8 +
STACK CFI 33eb8 r11: .cfa -24 + ^
STACK CFI INIT 340d8 384 .cfa: sp 0 +
STACK CFI 340da .cfa: sp 20 + .ra: .cfa -4 + ^ r7: .cfa -8 + ^ r6: .cfa -12 + ^ r5: .cfa -16 + ^ r4: .cfa -20 + ^
STACK CFI 340dc .cfa: r7 8 +
STACK CFI 340e0 r11: .cfa -24 + ^ r10: .cfa -28 + ^ r9: .cfa -32 + ^ r8: .cfa -36 + ^
STACK CFI INIT 3445c 880 .cfa: sp 0 +
STACK CFI 3445e .cfa: sp 20 + .ra: .cfa -4 + ^ r7: .cfa -8 + ^ r6: .cfa -12 + ^ r5: .cfa -16 + ^ r4: .cfa -20 + ^
STACK CFI 34460 .cfa: r7 8 +
STACK CFI 34464 r11: .cfa -24 + ^ r10: .cfa -28 + ^ r9: .cfa -32 + ^ r8: .cfa -36 + ^
STACK CFI INIT 34cdc 4c .cfa: sp 0 +
STACK CFI 34cde .cfa: sp 20 + .ra: .cfa -4 + ^ r7: .cfa -8 + ^ r6: .cfa -12 + ^ r5: .cfa -16 + ^ r4: .cfa -20 + ^
STACK CFI 34ce0 .cfa: r7 8 +
STACK CFI 34ce4 r8: .cfa -24 + ^
STACK CFI INIT 34d28 48 .cfa: sp 0 +
STACK CFI 34d2a .cfa: sp 16 + .ra: .cfa -4 + ^ r7: .cfa -8 + ^ r6: .cfa -12 + ^ r4: .cfa -16 + ^
STACK CFI 34d2c .cfa: r7 8 +
STACK CFI INIT 34d70 10 .cfa: sp 0 +
STACK CFI 34d72 .cfa: sp 8 + .ra: .cfa -4 + ^ r7: .cfa -8 + ^
STACK CFI 34d74 .cfa: r7 8 +
STACK CFI INIT 34d80 9a .cfa: sp 0 +
STACK CFI 34d82 .cfa: sp 20 + .ra: .cfa -4 + ^ r7: .cfa -8 + ^ r6: .cfa -12 + ^ r5: .cfa -16 + ^ r4: .cfa -20 + ^
STACK CFI 34d84 .cfa: r7 8 +
STACK CFI 34d88 r11: .cfa -24 + ^ r9: .cfa -28 + ^ r8: .cfa -32 + ^
STACK CFI INIT 34e1c 54 .cfa: sp 0 +
STACK CFI 34e1e .cfa: sp 8 + .ra: .cfa -4 + ^ r7: .cfa -8 + ^
STACK CFI 34e20 .cfa: r7 8 +
STACK CFI INIT 34e70 34 .cfa: sp 0 +
STACK CFI 34e72 .cfa: sp 16 + .ra: .cfa -4 + ^ r7: .cfa -8 + ^ r5: .cfa -12 + ^ r4: .cfa -16 + ^
STACK CFI 34e74 .cfa: r7 8 +
STACK CFI INIT 34ea4 2c .cfa: sp 0 +
STACK CFI 34ea6 .cfa: sp 16 + .ra: .cfa -4 + ^ r7: .cfa -8 + ^ r5: .cfa -12 + ^ r4: .cfa -16 + ^
STACK CFI 34ea8 .cfa: r7 8 +
STACK CFI INIT 34ed0 74 .cfa: sp 0 +
STACK CFI 34ed2 .cfa: sp 8 + .ra: .cfa -4 + ^ r7: .cfa -8 + ^
STACK CFI 34ed4 .cfa: r7 8 +
STACK CFI INIT 34f44 1b0 .cfa: sp 0 +
STACK CFI 34f46 .cfa: sp 20 + .ra: .cfa -4 + ^ r7: .cfa -8 + ^ r6: .cfa -12 + ^ r5: .cfa -16 + ^ r4: .cfa -20 + ^
STACK CFI 34f48 .cfa: r7 8 +
STACK CFI 34f4c r10: .cfa -24 + ^ r9: .cfa -28 + ^ r8: .cfa -32 + ^
STACK CFI INIT 350f4 9a .cfa: sp 0 +
STACK CFI 350f6 .cfa: sp 20 + .ra: .cfa -4 + ^ r7: .cfa -8 + ^ r6: .cfa -12 + ^ r5: .cfa -16 + ^ r4: .cfa -20 + ^
STACK CFI 350f8 .cfa: r7 8 +
STACK CFI 350fc r11: .cfa -24 + ^ r9: .cfa -28 + ^ r8: .cfa -32 + ^
STACK CFI INIT 35190 174 .cfa: sp 0 +
STACK CFI 35192 .cfa: sp 20 + .ra: .cfa -4 + ^ r7: .cfa -8 + ^ r6: .cfa -12 + ^ r5: .cfa -16 + ^ r4: .cfa -20 + ^
STACK CFI 35194 .cfa: r7 8 +
STACK CFI 35198 r10: .cfa -24 + ^ r9: .cfa -28 + ^ r8: .cfa -32 + ^
STACK CFI INIT 35304 218 .cfa: sp 0 +
STACK CFI 35306 .cfa: sp 20 + .ra: .cfa -4 + ^ r7: .cfa -8 + ^ r6: .cfa -12 + ^ r5: .cfa -16 + ^ r4: .cfa -20 + ^
STACK CFI 35308 .cfa: r7 8 +
STACK CFI 3530c r11: .cfa -24 + ^ r10: .cfa -28 + ^ r9: .cfa -32 + ^ r8: .cfa -36 + ^
STACK CFI INIT 3551c 1dc .cfa: sp 0 +
STACK CFI 3551e .cfa: sp 20 + .ra: .cfa -4 + ^ r7: .cfa -8 + ^ r6: .cfa -12 + ^ r5: .cfa -16 + ^ r4: .cfa -20 + ^
STACK CFI 35520 .cfa: r7 8 +
STACK CFI 35524 r11: .cfa -24 + ^ r10: .cfa -28 + ^ r9: .cfa -32 + ^ r8: .cfa -36 + ^
STACK CFI INIT 356f8 188 .cfa: sp 0 +
STACK CFI 356fa .cfa: sp 20 + .ra: .cfa -4 + ^ r7: .cfa -8 + ^ r6: .cfa -12 + ^ r5: .cfa -16 + ^ r4: .cfa -20 + ^
STACK CFI 356fc .cfa: r7 8 +
STACK CFI 35700 r11: .cfa -24 + ^ r10: .cfa -28 + ^ r9: .cfa -32 + ^ r8: .cfa -36 + ^
STACK CFI INIT 35880 9f8 .cfa: sp 0 +
STACK CFI 35882 .cfa: sp 20 + .ra: .cfa -4 + ^ r7: .cfa -8 + ^ r6: .cfa -12 + ^ r5: .cfa -16 + ^ r4: .cfa -20 + ^
STACK CFI 35884 .cfa: r7 8 +
STACK CFI 35888 r11: .cfa -24 + ^ r10: .cfa -28 + ^ r9: .cfa -32 + ^ r8: .cfa -36 + ^
STACK CFI INIT 36278 184 .cfa: sp 0 +
STACK CFI 3627a .cfa: sp 20 + .ra: .cfa -4 + ^ r7: .cfa -8 + ^ r6: .cfa -12 + ^ r5: .cfa -16 + ^ r4: .cfa -20 + ^
STACK CFI 3627c .cfa: r7 8 +
STACK CFI 36280 r11: .cfa -24 + ^ r10: .cfa -28 + ^ r9: .cfa -32 + ^ r8: .cfa -36 + ^
STACK CFI INIT 36400 73c .cfa: sp 0 +
STACK CFI 36402 .cfa: sp 20 + .ra: .cfa -4 + ^ r7: .cfa -8 + ^ r6: .cfa -12 + ^ r5: .cfa -16 + ^ r4: .cfa -20 + ^
STACK CFI 36404 .cfa: r7 8 +
STACK CFI 36408 r11: .cfa -24 + ^ r10: .cfa -28 + ^ r9: .cfa -32 + ^ r8: .cfa -36 + ^
STACK CFI INIT 36b3c 140 .cfa: sp 0 +
STACK CFI 36b3e .cfa: sp 20 + .ra: .cfa -4 + ^ r7: .cfa -8 + ^ r6: .cfa -12 + ^ r5: .cfa -16 + ^ r4: .cfa -20 + ^
STACK CFI 36b40 .cfa: r7 8 +
STACK CFI 36b44 r11: .cfa -24 + ^ r10: .cfa -28 + ^ r9: .cfa -32 + ^ r8: .cfa -36 + ^
STACK CFI INIT 36c7c e0 .cfa: sp 0 +
STACK CFI 36c7e .cfa: sp 20 + .ra: .cfa -4 + ^ r7: .cfa -8 + ^ r6: .cfa -12 + ^ r5: .cfa -16 + ^ r4: .cfa -20 + ^
STACK CFI 36c80 .cfa: r7 8 +
STACK CFI 36c84 r8: .cfa -24 + ^
STACK CFI INIT 36d5c 194 .cfa: sp 0 +
STACK CFI 36d5e .cfa: sp 20 + .ra: .cfa -4 + ^ r7: .cfa -8 + ^ r6: .cfa -12 + ^ r5: .cfa -16 + ^ r4: .cfa -20 + ^
STACK CFI 36d60 .cfa: r7 8 +
STACK CFI 36d64 r8: .cfa -24 + ^
STACK CFI INIT 36ef0 22 .cfa: sp 0 +
STACK CFI 36ef2 .cfa: sp 16 + .ra: .cfa -4 + ^ r7: .cfa -8 + ^ r6: .cfa -12 + ^ r4: .cfa -16 + ^
STACK CFI 36ef4 .cfa: r7 8 +
STACK CFI INIT 36f14 104 .cfa: sp 0 +
STACK CFI 36f16 .cfa: sp 20 + .ra: .cfa -4 + ^ r7: .cfa -8 + ^ r6: .cfa -12 + ^ r5: .cfa -16 + ^ r4: .cfa -20 + ^
STACK CFI 36f18 .cfa: r7 8 +
STACK CFI 36f1c r10: .cfa -24 + ^ r9: .cfa -28 + ^ r8: .cfa -32 + ^
STACK CFI INIT 37018 144 .cfa: sp 0 +
STACK CFI 3701a .cfa: sp 20 + .ra: .cfa -4 + ^ r7: .cfa -8 + ^ r6: .cfa -12 + ^ r5: .cfa -16 + ^ r4: .cfa -20 + ^
STACK CFI 3701c .cfa: r7 8 +
STACK CFI 37020 r11: .cfa -24 + ^ r9: .cfa -28 + ^ r8: .cfa -32 + ^
STACK CFI INIT 3715c 21c .cfa: sp 0 +
STACK CFI 3715e .cfa: sp 20 + .ra: .cfa -4 + ^ r7: .cfa -8 + ^ r6: .cfa -12 + ^ r5: .cfa -16 + ^ r4: .cfa -20 + ^
STACK CFI 37160 .cfa: r7 8 +
STACK CFI 37164 r11: .cfa -24 + ^ r10: .cfa -28 + ^ r9: .cfa -32 + ^ r8: .cfa -36 + ^
STACK CFI INIT 37378 6e .cfa: sp 0 +
STACK CFI 3737a .cfa: sp 20 + .ra: .cfa -4 + ^ r7: .cfa -8 + ^ r6: .cfa -12 + ^ r5: .cfa -16 + ^ r4: .cfa -20 + ^
STACK CFI 3737c .cfa: r7 8 +
STACK CFI 37380 r8: .cfa -24 + ^
STACK CFI INIT 373f0 e4 .cfa: sp 0 +
STACK CFI 373f2 .cfa: sp 20 + .ra: .cfa -4 + ^ r7: .cfa -8 + ^ r6: .cfa -12 + ^ r5: .cfa -16 + ^ r4: .cfa -20 + ^
STACK CFI 373f4 .cfa: r7 8 +
STACK CFI 373f8 r11: .cfa -24 + ^
STACK CFI INIT 374d4 9ac .cfa: sp 0 +
STACK CFI 374d6 .cfa: sp 20 + .ra: .cfa -4 + ^ r7: .cfa -8 + ^ r6: .cfa -12 + ^ r5: .cfa -16 + ^ r4: .cfa -20 + ^
STACK CFI 374d8 .cfa: r7 8 +
STACK CFI 374dc r11: .cfa -24 + ^ r10: .cfa -28 + ^ r9: .cfa -32 + ^ r8: .cfa -36 + ^
STACK CFI INIT 37e80 e8 .cfa: sp 0 +
STACK CFI 37e82 .cfa: sp 20 + .ra: .cfa -4 + ^ r7: .cfa -8 + ^ r6: .cfa -12 + ^ r5: .cfa -16 + ^ r4: .cfa -20 + ^
STACK CFI 37e84 .cfa: r7 8 +
STACK CFI 37e88 r8: .cfa -24 + ^
STACK CFI INIT 37f68 19c .cfa: sp 0 +
STACK CFI 37f6a .cfa: sp 20 + .ra: .cfa -4 + ^ r7: .cfa -8 + ^ r6: .cfa -12 + ^ r5: .cfa -16 + ^ r4: .cfa -20 + ^
STACK CFI 37f6c .cfa: r7 8 +
STACK CFI 37f70 r11: .cfa -24 + ^ r10: .cfa -28 + ^ r9: .cfa -32 + ^ r8: .cfa -36 + ^
STACK CFI INIT 38110 e4 .cfa: sp 0 +
STACK CFI 38112 .cfa: sp 20 + .ra: .cfa -4 + ^ r7: .cfa -8 + ^ r6: .cfa -12 + ^ r5: .cfa -16 + ^ r4: .cfa -20 + ^
STACK CFI 38114 .cfa: r7 8 +
STACK CFI 38118 r11: .cfa -24 + ^
STACK CFI INIT 381f4 150 .cfa: sp 0 +
STACK CFI 381f6 .cfa: sp 20 + .ra: .cfa -4 + ^ r7: .cfa -8 + ^ r6: .cfa -12 + ^ r5: .cfa -16 + ^ r4: .cfa -20 + ^
STACK CFI 381f8 .cfa: r7 8 +
STACK CFI 381fc r11: .cfa -24 + ^ r10: .cfa -28 + ^ r9: .cfa -32 + ^ r8: .cfa -36 + ^
STACK CFI INIT 38348 1064 .cfa: sp 0 +
STACK CFI 3834a .cfa: sp 20 + .ra: .cfa -4 + ^ r7: .cfa -8 + ^ r6: .cfa -12 + ^ r5: .cfa -16 + ^ r4: .cfa -20 + ^
STACK CFI 3834c .cfa: r7 8 +
STACK CFI 38350 r11: .cfa -24 + ^ r10: .cfa -28 + ^ r9: .cfa -32 + ^ r8: .cfa -36 + ^
STACK CFI INIT 393ac b78 .cfa: sp 0 +
STACK CFI 393ae .cfa: sp 20 + .ra: .cfa -4 + ^ r7: .cfa -8 + ^ r6: .cfa -12 + ^ r5: .cfa -16 + ^ r4: .cfa -20 + ^
STACK CFI 393b0 .cfa: r7 8 +
STACK CFI 393b4 r11: .cfa -24 + ^ r10: .cfa -28 + ^ r9: .cfa -32 + ^ r8: .cfa -36 + ^
STACK CFI INIT 39f24 3a4 .cfa: sp 0 +
STACK CFI 39f26 .cfa: sp 20 + .ra: .cfa -4 + ^ r7: .cfa -8 + ^ r6: .cfa -12 + ^ r5: .cfa -16 + ^ r4: .cfa -20 + ^
STACK CFI 39f28 .cfa: r7 8 +
STACK CFI 39f2c r11: .cfa -24 + ^ r10: .cfa -28 + ^ r9: .cfa -32 + ^ r8: .cfa -36 + ^
STACK CFI INIT 3a2c8 ebc .cfa: sp 0 +
STACK CFI 3a2ca .cfa: sp 20 + .ra: .cfa -4 + ^ r7: .cfa -8 + ^ r6: .cfa -12 + ^ r5: .cfa -16 + ^ r4: .cfa -20 + ^
STACK CFI 3a2cc .cfa: r7 8 +
STACK CFI 3a2d0 r11: .cfa -24 + ^ r10: .cfa -28 + ^ r9: .cfa -32 + ^ r8: .cfa -36 + ^
STACK CFI INIT 3b184 10c .cfa: sp 0 +
STACK CFI 3b186 .cfa: sp 20 + .ra: .cfa -4 + ^ r7: .cfa -8 + ^ r6: .cfa -12 + ^ r5: .cfa -16 + ^ r4: .cfa -20 + ^
STACK CFI 3b188 .cfa: r7 8 +
STACK CFI 3b18c r11: .cfa -24 + ^ r10: .cfa -28 + ^ r9: .cfa -32 + ^ r8: .cfa -36 + ^
STACK CFI INIT 3b290 c4 .cfa: sp 0 +
STACK CFI 3b2ae .cfa: sp 20 + .ra: .cfa -4 + ^ r7: .cfa -8 + ^ r6: .cfa -12 + ^ r5: .cfa -16 + ^ r4: .cfa -20 + ^
STACK CFI 3b2b0 .cfa: r7 8 +
STACK CFI 3b2b4 r8: .cfa -24 + ^
STACK CFI INIT 3b354 414 .cfa: sp 0 +
STACK CFI 3b356 .cfa: sp 20 + .ra: .cfa -4 + ^ r7: .cfa -8 + ^ r6: .cfa -12 + ^ r5: .cfa -16 + ^ r4: .cfa -20 + ^
STACK CFI 3b358 .cfa: r7 8 +
STACK CFI 3b35c r11: .cfa -24 + ^ r10: .cfa -28 + ^ r9: .cfa -32 + ^ r8: .cfa -36 + ^
STACK CFI INIT 3b768 276 .cfa: sp 0 +
STACK CFI 3b76a .cfa: sp 20 + .ra: .cfa -4 + ^ r7: .cfa -8 + ^ r6: .cfa -12 + ^ r5: .cfa -16 + ^ r4: .cfa -20 + ^
STACK CFI 3b76c .cfa: r7 8 +
STACK CFI 3b770 r11: .cfa -24 + ^ r10: .cfa -28 + ^ r9: .cfa -32 + ^ r8: .cfa -36 + ^
STACK CFI INIT 3b9de 6e .cfa: sp 0 +
STACK CFI 3b9e0 .cfa: sp 20 + .ra: .cfa -4 + ^ r7: .cfa -8 + ^ r6: .cfa -12 + ^ r5: .cfa -16 + ^ r4: .cfa -20 + ^
STACK CFI 3b9e2 .cfa: r7 8 +
STACK CFI 3b9e6 r8: .cfa -24 + ^
STACK CFI INIT 3ba4c 994 .cfa: sp 0 +
STACK CFI 3ba4e .cfa: sp 20 + .ra: .cfa -4 + ^ r7: .cfa -8 + ^ r6: .cfa -12 + ^ r5: .cfa -16 + ^ r4: .cfa -20 + ^
STACK CFI 3ba50 .cfa: r7 8 +
STACK CFI 3ba54 r11: .cfa -24 + ^ r10: .cfa -28 + ^ r9: .cfa -32 + ^ r8: .cfa -36 + ^
STACK CFI INIT 3c3e0 e0 .cfa: sp 0 +
STACK CFI 3c3e2 .cfa: sp 20 + .ra: .cfa -4 + ^ r7: .cfa -8 + ^ r6: .cfa -12 + ^ r5: .cfa -16 + ^ r4: .cfa -20 + ^
STACK CFI 3c3e4 .cfa: r7 8 +
STACK CFI 3c3e8 r11: .cfa -24 + ^ r10: .cfa -28 + ^ r9: .cfa -32 + ^ r8: .cfa -36 + ^
STACK CFI INIT 3c4c0 544 .cfa: sp 0 +
STACK CFI 3c4c2 .cfa: sp 20 + .ra: .cfa -4 + ^ r7: .cfa -8 + ^ r6: .cfa -12 + ^ r5: .cfa -16 + ^ r4: .cfa -20 + ^
STACK CFI 3c4c4 .cfa: r7 8 +
STACK CFI 3c4c8 r11: .cfa -24 + ^ r10: .cfa -28 + ^ r9: .cfa -32 + ^ r8: .cfa -36 + ^
