MODULE Linux arm64 02C9572249F03B8EE29A64E3E636234F0 spaghettdev.named-editor-groups.android64.so
INFO CODE_ID 2257C902F0498E3BE29A64E3E636234F0EBAB357
INFO GENERATOR mozilla/dump_syms 2.3.4
PUBLIC 53f60 0 __on_dlclose
PUBLIC 53f70 0 __emutls_unregister_key
PUBLIC 53f78 0 __on_dlclose_late
PUBLIC 53f80 0 __atexit_handler_wrapper
PUBLIC 53f94 0 atexit
PUBLIC 53fb0 0 pthread_atfork
PUBLIC 53fc0 0 unwind_phase2
PUBLIC 540f4 0 _Unwind_Resume
PUBLIC 54178 0 unwind_phase2_forced
PUBLIC m 5426c 0 __unw_init_local
PUBLIC m 54314 0 __unw_get_reg
PUBLIC 54390 0 __unw_step_stage2
PUBLIC m 543a4 0 __unw_get_proc_info
PUBLIC m 543e4 0 __unw_resume
PUBLIC 5440c 0 libunwind::CFI_Parser<libunwind::LocalAddressSpace>::decodeFDE(libunwind::LocalAddressSpace&, unsigned long, libunwind::CFI_Parser<libunwind::LocalAddressSpace>::FDE_Info*, libunwind::CFI_Parser<libunwind::LocalAddressSpace>::CIE_Info*, bool)
PUBLIC 5459c 0 libunwind::CFI_Parser<libunwind::LocalAddressSpace>::parseCIE(libunwind::LocalAddressSpace&, unsigned long, libunwind::CFI_Parser<libunwind::LocalAddressSpace>::CIE_Info*)
PUBLIC 54864 0 libunwind::AbstractUnwindCursor::~AbstractUnwindCursor()
PUBLIC 5486c 0 libunwind::UnwindCursor<libunwind::LocalAddressSpace, libunwind::Registers_arm64>::~UnwindCursor()
PUBLIC 54874 0 libunwind::UnwindCursor<libunwind::LocalAddressSpace, libunwind::Registers_arm64>::validReg(int)
PUBLIC 548b8 0 libunwind::UnwindCursor<libunwind::LocalAddressSpace, libunwind::Registers_arm64>::getReg(int)
PUBLIC 549a0 0 libunwind::UnwindCursor<libunwind::LocalAddressSpace, libunwind::Registers_arm64>::setReg(int, unsigned long)
PUBLIC 54a88 0 libunwind::UnwindCursor<libunwind::LocalAddressSpace, libunwind::Registers_arm64>::validFloatReg(int)
PUBLIC 54a9c 0 libunwind::UnwindCursor<libunwind::LocalAddressSpace, libunwind::Registers_arm64>::getFloatReg(int)
PUBLIC 54aac 0 libunwind::UnwindCursor<libunwind::LocalAddressSpace, libunwind::Registers_arm64>::setFloatReg(int, double)
PUBLIC 54abc 0 libunwind::UnwindCursor<libunwind::LocalAddressSpace, libunwind::Registers_arm64>::step(bool)
PUBLIC 54bac 0 libunwind::UnwindCursor<libunwind::LocalAddressSpace, libunwind::Registers_arm64>::getInfo(unw_proc_info_t*)
PUBLIC 54bf0 0 libunwind::UnwindCursor<libunwind::LocalAddressSpace, libunwind::Registers_arm64>::jumpto()
PUBLIC 54bfc 0 libunwind::UnwindCursor<libunwind::LocalAddressSpace, libunwind::Registers_arm64>::isSignalFrame()
PUBLIC 54c08 0 libunwind::UnwindCursor<libunwind::LocalAddressSpace, libunwind::Registers_arm64>::getFunctionName(char*, unsigned long, unsigned long*)
PUBLIC 54c34 0 libunwind::UnwindCursor<libunwind::LocalAddressSpace, libunwind::Registers_arm64>::setInfoBasedOnIPRegister(bool)
PUBLIC 54e70 0 libunwind::UnwindCursor<libunwind::LocalAddressSpace, libunwind::Registers_arm64>::getRegisterName(int)
PUBLIC 54e7c 0 libunwind::UnwindCursor<libunwind::LocalAddressSpace, libunwind::Registers_arm64>::stepThroughSigReturn(libunwind::Registers_arm64&)
PUBLIC 54f9c 0 libunwind::DwarfInstructions<libunwind::LocalAddressSpace, libunwind::Registers_arm64>::stepWithDwarf(libunwind::LocalAddressSpace&, unsigned long, unsigned long, libunwind::Registers_arm64&, bool&, bool)
PUBLIC 55430 0 libunwind::CFI_Parser<libunwind::LocalAddressSpace>::parseFDEInstructions(libunwind::LocalAddressSpace&, libunwind::CFI_Parser<libunwind::LocalAddressSpace>::FDE_Info const&, libunwind::CFI_Parser<libunwind::LocalAddressSpace>::CIE_Info const&, unsigned long, int, libunwind::CFI_Parser<libunwind::LocalAddressSpace>::PrologInfo*)
PUBLIC 55fa8 0 libunwind::DwarfInstructions<libunwind::LocalAddressSpace, libunwind::Registers_arm64>::getCFA(libunwind::LocalAddressSpace&, libunwind::CFI_Parser<libunwind::LocalAddressSpace>::PrologInfo const&, libunwind::Registers_arm64 const&)
PUBLIC 560dc 0 libunwind::DwarfInstructions<libunwind::LocalAddressSpace, libunwind::Registers_arm64>::getSavedRegister(libunwind::LocalAddressSpace&, libunwind::Registers_arm64 const&, unsigned long, libunwind::CFI_Parser<libunwind::LocalAddressSpace>::RegisterLocation const&)
PUBLIC 562ec 0 libunwind::LocalAddressSpace::getEncodedP(unsigned long&, unsigned long, unsigned char, unsigned long)
PUBLIC 56678 0 libunwind::LocalAddressSpace::getULEB128(unsigned long&, unsigned long)
PUBLIC 56840 0 libunwind::DwarfInstructions<libunwind::LocalAddressSpace, libunwind::Registers_arm64>::evaluateExpression(unsigned long, libunwind::LocalAddressSpace&, libunwind::Registers_arm64 const&, unsigned long)
PUBLIC 57204 0 libunwind::UnwindCursor<libunwind::LocalAddressSpace, libunwind::Registers_arm64>::getInfoFromDwarfSection(unsigned long, libunwind::UnwindInfoSections const&, unsigned int)
PUBLIC 574d8 0 libunwind::findUnwindSectionsByPhdr(dl_phdr_info*, unsigned long, void*)
PUBLIC 57608 0 libunwind::EHHeaderParser<libunwind::LocalAddressSpace>::decodeEHHdr(libunwind::LocalAddressSpace&, unsigned long, unsigned long, libunwind::EHHeaderParser<libunwind::LocalAddressSpace>::EHHeaderInfo&)
PUBLIC 57728 0 libunwind::CFI_Parser<libunwind::LocalAddressSpace>::findFDE(libunwind::LocalAddressSpace&, unsigned long, unsigned long, unsigned long, unsigned long, libunwind::CFI_Parser<libunwind::LocalAddressSpace>::FDE_Info*, libunwind::CFI_Parser<libunwind::LocalAddressSpace>::CIE_Info*)
PUBLIC 578f0 0 libunwind::EHHeaderParser<libunwind::LocalAddressSpace>::findFDE(libunwind::LocalAddressSpace&, unsigned long, unsigned long, unsigned int, libunwind::CFI_Parser<libunwind::LocalAddressSpace>::FDE_Info*, libunwind::CFI_Parser<libunwind::LocalAddressSpace>::CIE_Info*)
PUBLIC 57a58 0 libunwind::EHHeaderParser<libunwind::LocalAddressSpace>::getTableEntrySize(unsigned char)
PUBLIC 57b54 0 libunwind::Registers_arm64::getRegisterName(int)
PUBLIC 57b84 0 __libunwind_Registers_arm64_jumpto
PUBLIC m 57c14 0 __unw_getcontext
PUBLIC 57cb0 0 geodeExecFunction14<(anonymous namespace)::ExecFuncUnique14>()::{lambda(std::__ndk1::basic_string<char, std::__ndk1::char_traits<char>, std::__ndk1::allocator<char> >*, NID, short)#1}::__invoke(std::__ndk1::basic_string<char, std::__ndk1::char_traits<char>, std::__ndk1::allocator<char> >*, NID, short)
PUBLIC 57dd8 0 geode::impl::ResultData<std::__ndk1::basic_string<char, std::__ndk1::char_traits<char>, std::__ndk1::allocator<char> >, std::__ndk1::basic_string<char, std::__ndk1::char_traits<char>, std::__ndk1::allocator<char> > >::~ResultData()
PUBLIC 57e4c 0 __clang_call_terminate
PUBLIC 57e5c 0 std::__ndk1::basic_string<char, std::__ndk1::char_traits<char>, std::__ndk1::allocator<char> >::__throw_length_error[abi:ne190000]() const
PUBLIC 57e70 0 std::__ndk1::__throw_length_error[abi:ne190000](char const*)
PUBLIC 57ec0 0 std::length_error::length_error[abi:ne190000](char const*)
PUBLIC 57ef0 0 std::__throw_bad_array_new_length([abi:ne190000], void)
PUBLIC 57f24 0 std::__ndk1::basic_string<char, std::__ndk1::char_traits<char>, std::__ndk1::allocator<char> >::__assign_no_alias<true>(char const*, unsigned long)
PUBLIC 57fd0 0 std::__ndk1::basic_string<char, std::__ndk1::char_traits<char>, std::__ndk1::allocator<char> >::__assign_no_alias<false>(char const*, unsigned long)
PUBLIC 5810c 0 std::__ndk1::__variant_detail::__visitation::__base::__dispatcher<(unsigned long)0>::__dispatch[abi:ne190000]<std::__ndk1::__variant_detail::__dtor<std::__ndk1::__variant_detail::__traits<std::__ndk1::basic_string<char, std::__ndk1::char_traits<char>, std::__ndk1::allocator<char> >, std::__ndk1::allocator<char> >, (std::__ndk1::__variant_detail::_Trait)1>::__destroy[abi:ne190000]()::{lambda(auto:1&)#1}, std::__ndk1::__variant_detail::__base<(std::__ndk1::__variant_detail::__traits<std::__ndk1::basic_string<char, std::__ndk1::char_traits<char>, std::__ndk1::allocator<char> >, std::__ndk1::allocator<char> >)1, std::__ndk1::allocator<char>, std::__ndk1::allocator<char> >&>(std::__ndk1::__variant_detail::__dtor<std::__ndk1::__variant_detail::__traits<std::__ndk1::basic_string<char, std::__ndk1::char_traits<char>, std::__ndk1::allocator<char> >, std::__ndk1::allocator<char> >, (std::__ndk1::__variant_detail::_Trait)1>, std::__ndk1::__variant_detail::__base<(std::__ndk1::__variant_detail::__traits<std::__ndk1::basic_string<char, std::__ndk1::char_traits<char>, std::__ndk1::allocator<char> >, std::__ndk1::allocator<char> >)1, std::__ndk1::allocator<char>, std::__ndk1::allocator<char> >&)
PUBLIC 58120 0 std::__ndk1::__variant_detail::__visitation::__base::__dispatcher<(unsigned long)1>::__dispatch[abi:ne190000]<std::__ndk1::__variant_detail::__dtor<std::__ndk1::__variant_detail::__traits<std::__ndk1::basic_string<char, std::__ndk1::char_traits<char>, std::__ndk1::allocator<char> >, std::__ndk1::allocator<char> >, (std::__ndk1::__variant_detail::_Trait)1>::__destroy[abi:ne190000]()::{lambda(auto:1&)#1}, std::__ndk1::__variant_detail::__base<(std::__ndk1::__variant_detail::__traits<std::__ndk1::basic_string<char, std::__ndk1::char_traits<char>, std::__ndk1::allocator<char> >, std::__ndk1::allocator<char> >)1, std::__ndk1::allocator<char>, std::__ndk1::allocator<char> >&>(std::__ndk1::__variant_detail::__dtor<std::__ndk1::__variant_detail::__traits<std::__ndk1::basic_string<char, std::__ndk1::char_traits<char>, std::__ndk1::allocator<char> >, std::__ndk1::allocator<char> >, (std::__ndk1::__variant_detail::_Trait)1>, std::__ndk1::__variant_detail::__base<(std::__ndk1::__variant_detail::__traits<std::__ndk1::basic_string<char, std::__ndk1::char_traits<char>, std::__ndk1::allocator<char> >, std::__ndk1::allocator<char> >)1, std::__ndk1::allocator<char>, std::__ndk1::allocator<char> >&)
PUBLIC 58134 0 std::__ndk1::basic_string<char, std::__ndk1::char_traits<char>, std::__ndk1::allocator<char> >::__init_copy_ctor_external(char const*, unsigned long)
PUBLIC 581c8 0 geode::EventListener<geode::DispatchFilter<std::__ndk1::basic_string<char, std::__ndk1::char_traits<char>, std::__ndk1::allocator<char> >*, NID, short> >::getPool() const
PUBLIC 58260 0 geode::EventListener<geode::DispatchFilter<std::__ndk1::basic_string<char, std::__ndk1::char_traits<char>, std::__ndk1::allocator<char> >*, NID, short> >::handle(geode::Event*)
PUBLIC 58524 0 geode::EventListener<geode::DispatchFilter<std::__ndk1::basic_string<char, std::__ndk1::char_traits<char>, std::__ndk1::allocator<char> >*, NID, short> >::~EventListener()
PUBLIC 58590 0 geode::EventListener<geode::DispatchFilter<std::__ndk1::basic_string<char, std::__ndk1::char_traits<char>, std::__ndk1::allocator<char> >*, NID, short> >::~EventListener()
PUBLIC 58604 0 std::__ndk1::__function::__base<geode::ListenerResult(std::__ndk1::basic_string<char, std::__ndk1::char_traits<char>, std::__ndk1::allocator<char> >*, NID, short)>::~__base()
PUBLIC 58608 0 std::__ndk1::__function::__func<geode::ListenerResult (*)(std::__ndk1::basic_string<char, std::__ndk1::char_traits<char>, std::__ndk1::allocator<char> >*, NID, short), std::__ndk1::allocator<geode::ListenerResult (*)(std::__ndk1::basic_string<char, std::__ndk1::char_traits<char>, std::__ndk1::allocator<char> >*, NID, short)>, geode::ListenerResult(std::__ndk1::basic_string<char, std::__ndk1::char_traits<char>, std::__ndk1::allocator<char> >*, NID, short)>::~__func()
PUBLIC 5860c 0 std::__ndk1::__function::__func<geode::ListenerResult (*)(std::__ndk1::basic_string<char, std::__ndk1::char_traits<char>, std::__ndk1::allocator<char> >*, NID, short), std::__ndk1::allocator<geode::ListenerResult (*)(std::__ndk1::basic_string<char, std::__ndk1::char_traits<char>, std::__ndk1::allocator<char> >*, NID, short)>, geode::ListenerResult(std::__ndk1::basic_string<char, std::__ndk1::char_traits<char>, std::__ndk1::allocator<char> >*, NID, short)>::__clone() const
PUBLIC 58640 0 std::__ndk1::__function::__func<geode::ListenerResult (*)(std::__ndk1::basic_string<char, std::__ndk1::char_traits<char>, std::__ndk1::allocator<char> >*, NID, short), std::__ndk1::allocator<geode::ListenerResult (*)(std::__ndk1::basic_string<char, std::__ndk1::char_traits<char>, std::__ndk1::allocator<char> >*, NID, short)>, geode::ListenerResult(std::__ndk1::basic_string<char, std::__ndk1::char_traits<char>, std::__ndk1::allocator<char> >*, NID, short)>::__clone(std::__ndk1::__function::__base<geode::ListenerResult(std::__ndk1::basic_string<char, std::__ndk1::char_traits<char>, std::__ndk1::allocator<char> >*, NID, short)>*) const
PUBLIC 58654 0 std::__ndk1::__function::__func<geode::ListenerResult (*)(std::__ndk1::basic_string<char, std::__ndk1::char_traits<char>, std::__ndk1::allocator<char> >*, NID, short), std::__ndk1::allocator<geode::ListenerResult (*)(std::__ndk1::basic_string<char, std::__ndk1::char_traits<char>, std::__ndk1::allocator<char> >*, NID, short)>, geode::ListenerResult(std::__ndk1::basic_string<char, std::__ndk1::char_traits<char>, std::__ndk1::allocator<char> >*, NID, short)>::destroy()
PUBLIC 58658 0 std::__ndk1::__function::__func<geode::ListenerResult (*)(std::__ndk1::basic_string<char, std::__ndk1::char_traits<char>, std::__ndk1::allocator<char> >*, NID, short), std::__ndk1::allocator<geode::ListenerResult (*)(std::__ndk1::basic_string<char, std::__ndk1::char_traits<char>, std::__ndk1::allocator<char> >*, NID, short)>, geode::ListenerResult(std::__ndk1::basic_string<char, std::__ndk1::char_traits<char>, std::__ndk1::allocator<char> >*, NID, short)>::destroy_deallocate()
PUBLIC 5865c 0 std::__ndk1::__function::__func<geode::ListenerResult (*)(std::__ndk1::basic_string<char, std::__ndk1::char_traits<char>, std::__ndk1::allocator<char> >*, NID, short), std::__ndk1::allocator<geode::ListenerResult (*)(std::__ndk1::basic_string<char, std::__ndk1::char_traits<char>, std::__ndk1::allocator<char> >*, NID, short)>, geode::ListenerResult(std::__ndk1::basic_string<char, std::__ndk1::char_traits<char>, std::__ndk1::allocator<char> >*, NID, short)>::operator()(std::__ndk1::basic_string<char, std::__ndk1::char_traits<char>, std::__ndk1::allocator<char> >*&&, NID&&, short&&)
PUBLIC 58674 0 std::__ndk1::__function::__func<geode::ListenerResult (*)(std::__ndk1::basic_string<char, std::__ndk1::char_traits<char>, std::__ndk1::allocator<char> >*, NID, short), std::__ndk1::allocator<geode::ListenerResult (*)(std::__ndk1::basic_string<char, std::__ndk1::char_traits<char>, std::__ndk1::allocator<char> >*, NID, short)>, geode::ListenerResult(std::__ndk1::basic_string<char, std::__ndk1::char_traits<char>, std::__ndk1::allocator<char> >*, NID, short)>::target(std::type_info const&) const
PUBLIC 58690 0 std::__ndk1::__function::__func<geode::ListenerResult (*)(std::__ndk1::basic_string<char, std::__ndk1::char_traits<char>, std::__ndk1::allocator<char> >*, NID, short), std::__ndk1::allocator<geode::ListenerResult (*)(std::__ndk1::basic_string<char, std::__ndk1::char_traits<char>, std::__ndk1::allocator<char> >*, NID, short)>, geode::ListenerResult(std::__ndk1::basic_string<char, std::__ndk1::char_traits<char>, std::__ndk1::allocator<char> >*, NID, short)>::target_type() const
PUBLIC 5869c 0 std::__ndk1::__hash_table<std::__ndk1::__hash_value_type<std::__ndk1::basic_string<char, std::__ndk1::char_traits<char>, std::__ndk1::allocator<char> >, geode::EventListenerPool*>, std::__ndk1::__unordered_map_hasher<std::__ndk1::basic_string<char, std::__ndk1::char_traits<char>, std::__ndk1::allocator<char> >, std::__ndk1::__hash_value_type<std::__ndk1::basic_string<char, std::__ndk1::char_traits<char>, std::__ndk1::allocator<char> >, geode::EventListenerPool*>, std::__ndk1::hash<std::__ndk1::basic_string<char, std::__ndk1::char_traits<char>, std::__ndk1::allocator<char> > >, std::__ndk1::equal_to<std::__ndk1::basic_string<char, std::__ndk1::char_traits<char>, std::__ndk1::allocator<char> > >, true>, std::__ndk1::__unordered_map_equal<std::__ndk1::basic_string<char, std::__ndk1::char_traits<char>, std::__ndk1::allocator<char> >, std::__ndk1::__hash_value_type<std::__ndk1::basic_string<char, std::__ndk1::char_traits<char>, std::__ndk1::allocator<char> >, geode::EventListenerPool*>, std::__ndk1::equal_to<std::__ndk1::basic_string<char, std::__ndk1::char_traits<char>, std::__ndk1::allocator<char> > >, std::__ndk1::hash<std::__ndk1::basic_string<char, std::__ndk1::char_traits<char>, std::__ndk1::allocator<char> > >, true>, std::__ndk1::allocator<std::__ndk1::__hash_value_type<std::__ndk1::basic_string<char, std::__ndk1::char_traits<char>, std::__ndk1::allocator<char> >, geode::EventListenerPool*> > >::find<std::__ndk1::basic_string<char, std::__ndk1::char_traits<char>, std::__ndk1::allocator<char> > >(std::__ndk1::basic_string<char, std::__ndk1::char_traits<char>, std::__ndk1::allocator<char> > const&) const
PUBLIC 588f0 0 std::__ndk1::__murmur2_or_cityhash<unsigned long, (unsigned long)64>::operator()[abi:ne190000](void const*, unsigned long) const
PUBLIC 58d3c 0 std::__ndk1::__hash_table<std::__ndk1::__hash_value_type<std::__ndk1::basic_string<char, std::__ndk1::char_traits<char>, std::__ndk1::allocator<char> >, geode::EventListenerPool*>, std::__ndk1::__unordered_map_hasher<std::__ndk1::basic_string<char, std::__ndk1::char_traits<char>, std::__ndk1::allocator<char> >, std::__ndk1::__hash_value_type<std::__ndk1::basic_string<char, std::__ndk1::char_traits<char>, std::__ndk1::allocator<char> >, geode::EventListenerPool*>, std::__ndk1::hash<std::__ndk1::basic_string<char, std::__ndk1::char_traits<char>, std::__ndk1::allocator<char> > >, std::__ndk1::equal_to<std::__ndk1::basic_string<char, std::__ndk1::char_traits<char>, std::__ndk1::allocator<char> > >, true>, std::__ndk1::__unordered_map_equal<std::__ndk1::basic_string<char, std::__ndk1::char_traits<char>, std::__ndk1::allocator<char> >, std::__ndk1::__hash_value_type<std::__ndk1::basic_string<char, std::__ndk1::char_traits<char>, std::__ndk1::allocator<char> >, geode::EventListenerPool*>, std::__ndk1::equal_to<std::__ndk1::basic_string<char, std::__ndk1::char_traits<char>, std::__ndk1::allocator<char> > >, std::__ndk1::hash<std::__ndk1::basic_string<char, std::__ndk1::char_traits<char>, std::__ndk1::allocator<char> > >, true>, std::__ndk1::allocator<std::__ndk1::__hash_value_type<std::__ndk1::basic_string<char, std::__ndk1::char_traits<char>, std::__ndk1::allocator<char> >, geode::EventListenerPool*> > >::__emplace_unique_key_args<std::__ndk1::basic_string<char, std::__ndk1::char_traits<char>, std::__ndk1::allocator<char> >, std::__ndk1::piecewise_construct_t const&, std::__ndk1::tuple<std::__ndk1::basic_string<char, std::__ndk1::char_traits<char>, std::__ndk1::allocator<char> > const&>, std::__ndk1::tuple<> >(std::__ndk1::basic_string<char, std::__ndk1::char_traits<char>, std::__ndk1::allocator<char> > const&, std::__ndk1::piecewise_construct_t const&, std::__ndk1::tuple<std::__ndk1::basic_string<char, std::__ndk1::char_traits<char>, std::__ndk1::allocator<char> > const&>, std::__ndk1::tuple<>)
PUBLIC 59394 0 std::__ndk1::unique_ptr<std::__ndk1::__hash_node<std::__ndk1::__hash_value_type<std::__ndk1::basic_string<char, std::__ndk1::char_traits<char>, std::__ndk1::allocator<char> >, geode::EventListenerPool*>, void*>, std::__ndk1::__hash_node_destructor<std::__ndk1::allocator<std::__ndk1::__hash_node<std::__ndk1::__hash_value_type<std::__ndk1::basic_string<char, std::__ndk1::char_traits<char>, std::__ndk1::allocator<char> >, geode::EventListenerPool*>, void*> > > >::~unique_ptr[abi:ne190000]()
PUBLIC 593e4 0 geode::cast::traverseTypeinfoFor(void*, geode::cast::ClassTypeinfoType const*, char const*)
PUBLIC 594e8 0 std::__ndk1::__throw_bad_function_call[abi:ne190000]()
PUBLIC 5951c 0 std::__ndk1::bad_function_call::~bad_function_call()
PUBLIC 59540 0 geodeExecFunction14<(anonymous namespace)::ExecFuncUnique14>()::{lambda(short*, NID, std::__ndk1::basic_string<char, std::__ndk1::char_traits<char>, std::__ndk1::allocator<char> >(short*, NID, std::__ndk1::basic_string<char, std::__ndk1::char_traits<char>, std::__ndk1::allocator<char> >))#1}::__invoke
PUBLIC 595cc 0 std::__ndk1::__variant_detail::__visitation::__base::__dispatcher<(unsigned long)0>::__dispatch[abi:ne190000]<std::__ndk1::__variant_detail::__dtor<std::__ndk1::__variant_detail::__traits<short, std::__ndk1::basic_string<char, std::__ndk1::char_traits<char>, std::__ndk1::allocator<char> > >, (std::__ndk1::__variant_detail::_Trait)1>::__destroy[abi:ne190000]()::{lambda(auto:1&)#1}, std::__ndk1::__variant_detail::__base<(std::__ndk1::__variant_detail::__traits<short, std::__ndk1::basic_string<char, std::__ndk1::char_traits<char>, std::__ndk1::allocator<char> > >)1, short, std::__ndk1::allocator<char> >&>(std::__ndk1::__variant_detail::__dtor<std::__ndk1::__variant_detail::__traits<short, std::__ndk1::basic_string<char, std::__ndk1::char_traits<char>, std::__ndk1::allocator<char> > >, (std::__ndk1::__variant_detail::_Trait)1>, std::__ndk1::__variant_detail::__base<(std::__ndk1::__variant_detail::__traits<short, std::__ndk1::basic_string<char, std::__ndk1::char_traits<char>, std::__ndk1::allocator<char> > >)1, short, std::__ndk1::allocator<char> >&)
PUBLIC 595d0 0 std::__ndk1::__variant_detail::__visitation::__base::__dispatcher<(unsigned long)1>::__dispatch[abi:ne190000]<std::__ndk1::__variant_detail::__dtor<std::__ndk1::__variant_detail::__traits<short, std::__ndk1::basic_string<char, std::__ndk1::char_traits<char>, std::__ndk1::allocator<char> > >, (std::__ndk1::__variant_detail::_Trait)1>::__destroy[abi:ne190000]()::{lambda(auto:1&)#1}, std::__ndk1::__variant_detail::__base<(std::__ndk1::__variant_detail::__traits<short, std::__ndk1::basic_string<char, std::__ndk1::char_traits<char>, std::__ndk1::allocator<char> > >)1, short, std::__ndk1::allocator<char> >&>(std::__ndk1::__variant_detail::__dtor<std::__ndk1::__variant_detail::__traits<short, std::__ndk1::basic_string<char, std::__ndk1::char_traits<char>, std::__ndk1::allocator<char> > >, (std::__ndk1::__variant_detail::_Trait)1>, std::__ndk1::__variant_detail::__base<(std::__ndk1::__variant_detail::__traits<short, std::__ndk1::basic_string<char, std::__ndk1::char_traits<char>, std::__ndk1::allocator<char> > >)1, short, std::__ndk1::allocator<char> >&)
PUBLIC 595e4 0 geode::EventListener<geode::DispatchFilter<short*, NID, std::__ndk1::basic_string<char, std::__ndk1::char_traits<char>, std::__ndk1::allocator<char> > > >::getPool() const
PUBLIC 5967c 0 geode::EventListener<geode::DispatchFilter<short*, NID, std::__ndk1::basic_string<char, std::__ndk1::char_traits<char>, std::__ndk1::allocator<char> > > >::handle(geode::Event*)
PUBLIC 59a04 0 geode::EventListener<geode::DispatchFilter<short*, NID, std::__ndk1::basic_string<char, std::__ndk1::char_traits<char>, std::__ndk1::allocator<char> > > >::~EventListener()
PUBLIC 59a70 0 geode::EventListener<geode::DispatchFilter<short*, NID, std::__ndk1::basic_string<char, std::__ndk1::char_traits<char>, std::__ndk1::allocator<char> > > >::~EventListener()
PUBLIC 59ae4 0 std::__ndk1::__function::__base<geode::ListenerResult(short*, NID, std::__ndk1::basic_string<char, std::__ndk1::char_traits<char>, std::__ndk1::allocator<char> >)>::~__base()
PUBLIC 59ae8 0 std::__ndk1::__function::__func<geode::ListenerResult (*)(short*, NID, std::__ndk1::basic_string<char, std::__ndk1::char_traits<char>, std::__ndk1::allocator<char> >), std::__ndk1::allocator<geode::ListenerResult (*)(short*, NID, std::__ndk1::basic_string<char, std::__ndk1::char_traits<char>, std::__ndk1::allocator<char> >)>, geode::ListenerResult(short*, NID, std::__ndk1::basic_string<char, std::__ndk1::char_traits<char>, std::__ndk1::allocator<char> >)>::~__func()
PUBLIC 59aec 0 std::__ndk1::__function::__func<geode::ListenerResult (*)(short*, NID, std::__ndk1::basic_string<char, std::__ndk1::char_traits<char>, std::__ndk1::allocator<char> >), std::__ndk1::allocator<geode::ListenerResult (*)(short*, NID, std::__ndk1::basic_string<char, std::__ndk1::char_traits<char>, std::__ndk1::allocator<char> >)>, geode::ListenerResult(short*, NID, std::__ndk1::basic_string<char, std::__ndk1::char_traits<char>, std::__ndk1::allocator<char> >)>::__clone() const
PUBLIC 59b20 0 std::__ndk1::__function::__func<geode::ListenerResult (*)(short*, NID, std::__ndk1::basic_string<char, std::__ndk1::char_traits<char>, std::__ndk1::allocator<char> >), std::__ndk1::allocator<geode::ListenerResult (*)(short*, NID, std::__ndk1::basic_string<char, std::__ndk1::char_traits<char>, std::__ndk1::allocator<char> >)>, geode::ListenerResult(short*, NID, std::__ndk1::basic_string<char, std::__ndk1::char_traits<char>, std::__ndk1::allocator<char> >)>::__clone(std::__ndk1::__function::__base<geode::ListenerResult(short*, NID, std::__ndk1::basic_string<char, std::__ndk1::char_traits<char>, std::__ndk1::allocator<char> >)>*) const
PUBLIC 59b34 0 std::__ndk1::__function::__func<geode::ListenerResult (*)(short*, NID, std::__ndk1::basic_string<char, std::__ndk1::char_traits<char>, std::__ndk1::allocator<char> >), std::__ndk1::allocator<geode::ListenerResult (*)(short*, NID, std::__ndk1::basic_string<char, std::__ndk1::char_traits<char>, std::__ndk1::allocator<char> >)>, geode::ListenerResult(short*, NID, std::__ndk1::basic_string<char, std::__ndk1::char_traits<char>, std::__ndk1::allocator<char> >)>::destroy()
PUBLIC 59b38 0 std::__ndk1::__function::__func<geode::ListenerResult (*)(short*, NID, std::__ndk1::basic_string<char, std::__ndk1::char_traits<char>, std::__ndk1::allocator<char> >), std::__ndk1::allocator<geode::ListenerResult (*)(short*, NID, std::__ndk1::basic_string<char, std::__ndk1::char_traits<char>, std::__ndk1::allocator<char> >)>, geode::ListenerResult(short*, NID, std::__ndk1::basic_string<char, std::__ndk1::char_traits<char>, std::__ndk1::allocator<char> >)>::destroy_deallocate()
PUBLIC 59b3c 0 std::__ndk1::__function::__func<geode::ListenerResult (*)(short*, NID, std::__ndk1::basic_string<char, std::__ndk1::char_traits<char>, std::__ndk1::allocator<char> >), std::__ndk1::allocator<geode::ListenerResult (*)(short*, NID, std::__ndk1::basic_string<char, std::__ndk1::char_traits<char>, std::__ndk1::allocator<char> >)>, geode::ListenerResult(short*, NID, std::__ndk1::basic_string<char, std::__ndk1::char_traits<char>, std::__ndk1::allocator<char> >)>::operator()(short*&&, NID&&, std::__ndk1::basic_string<char, std::__ndk1::char_traits<char>, std::__ndk1::allocator<char> >&&)
PUBLIC 59bf0 0 std::__ndk1::__function::__func<geode::ListenerResult (*)(short*, NID, std::__ndk1::basic_string<char, std::__ndk1::char_traits<char>, std::__ndk1::allocator<char> >), std::__ndk1::allocator<geode::ListenerResult (*)(short*, NID, std::__ndk1::basic_string<char, std::__ndk1::char_traits<char>, std::__ndk1::allocator<char> >)>, geode::ListenerResult(short*, NID, std::__ndk1::basic_string<char, std::__ndk1::char_traits<char>, std::__ndk1::allocator<char> >)>::target(std::type_info const&) const
PUBLIC 59c0c 0 std::__ndk1::__function::__func<geode::ListenerResult (*)(short*, NID, std::__ndk1::basic_string<char, std::__ndk1::char_traits<char>, std::__ndk1::allocator<char> >), std::__ndk1::allocator<geode::ListenerResult (*)(short*, NID, std::__ndk1::basic_string<char, std::__ndk1::char_traits<char>, std::__ndk1::allocator<char> >)>, geode::ListenerResult(short*, NID, std::__ndk1::basic_string<char, std::__ndk1::char_traits<char>, std::__ndk1::allocator<char> >)>::target_type() const
PUBLIC 59c18 0 geodeExecFunction14<(anonymous namespace)::ExecFuncUnique14>()::{lambda(std::__ndk1::unordered_map<std::__ndk1::basic_string<char, std::__ndk1::char_traits<char>, std::__ndk1::allocator<char> >, short, std::__ndk1::hash<std::__ndk1::basic_string<char, std::__ndk1::char_traits<char>, std::__ndk1::allocator<char> > >, std::__ndk1::equal_to<std::__ndk1::basic_string<char, std::__ndk1::char_traits<char>, std::__ndk1::allocator<char> > >, std::__ndk1::allocator<std::__ndk1::pair<std::__ndk1::basic_string<char, std::__ndk1::char_traits<char>, std::__ndk1::allocator<char> > const, short> > >*, NID)#1}::__invoke(std::__ndk1::unordered_map<std::__ndk1::basic_string<char, std::__ndk1::char_traits<char>, std::__ndk1::allocator<char> >, short, std::__ndk1::hash<std::__ndk1::basic_string<char, std::__ndk1::char_traits<char>, std::__ndk1::allocator<char> > >, std::__ndk1::equal_to<std::__ndk1::basic_string<char, std::__ndk1::char_traits<char>, std::__ndk1::allocator<char> > >, std::__ndk1::allocator<std::__ndk1::pair<std::__ndk1::basic_string<char, std::__ndk1::char_traits<char>, std::__ndk1::allocator<char> > const, short> > >*, NID)
PUBLIC 59e5c 0 std::__ndk1::__hash_table<std::__ndk1::__hash_value_type<std::__ndk1::basic_string<char, std::__ndk1::char_traits<char>, std::__ndk1::allocator<char> >, short>, std::__ndk1::__unordered_map_hasher<std::__ndk1::basic_string<char, std::__ndk1::char_traits<char>, std::__ndk1::allocator<char> >, std::__ndk1::__hash_value_type<std::__ndk1::basic_string<char, std::__ndk1::char_traits<char>, std::__ndk1::allocator<char> >, short>, std::__ndk1::hash<std::__ndk1::basic_string<char, std::__ndk1::char_traits<char>, std::__ndk1::allocator<char> > >, std::__ndk1::equal_to<std::__ndk1::basic_string<char, std::__ndk1::char_traits<char>, std::__ndk1::allocator<char> > >, true>, std::__ndk1::__unordered_map_equal<std::__ndk1::basic_string<char, std::__ndk1::char_traits<char>, std::__ndk1::allocator<char> >, std::__ndk1::__hash_value_type<std::__ndk1::basic_string<char, std::__ndk1::char_traits<char>, std::__ndk1::allocator<char> >, short>, std::__ndk1::equal_to<std::__ndk1::basic_string<char, std::__ndk1::char_traits<char>, std::__ndk1::allocator<char> > >, std::__ndk1::hash<std::__ndk1::basic_string<char, std::__ndk1::char_traits<char>, std::__ndk1::allocator<char> > >, true>, std::__ndk1::allocator<std::__ndk1::__hash_value_type<std::__ndk1::basic_string<char, std::__ndk1::char_traits<char>, std::__ndk1::allocator<char> >, short> > >::__node_insert_multi(std::__ndk1::__hash_node<std::__ndk1::__hash_value_type<std::__ndk1::basic_string<char, std::__ndk1::char_traits<char>, std::__ndk1::allocator<char> >, short>, void*>*)
PUBLIC 5a620 0 std::__ndk1::__hash_table<std::__ndk1::__hash_value_type<std::__ndk1::basic_string<char, std::__ndk1::char_traits<char>, std::__ndk1::allocator<char> >, short>, std::__ndk1::__unordered_map_hasher<std::__ndk1::basic_string<char, std::__ndk1::char_traits<char>, std::__ndk1::allocator<char> >, std::__ndk1::__hash_value_type<std::__ndk1::basic_string<char, std::__ndk1::char_traits<char>, std::__ndk1::allocator<char> >, short>, std::__ndk1::hash<std::__ndk1::basic_string<char, std::__ndk1::char_traits<char>, std::__ndk1::allocator<char> > >, std::__ndk1::equal_to<std::__ndk1::basic_string<char, std::__ndk1::char_traits<char>, std::__ndk1::allocator<char> > >, true>, std::__ndk1::__unordered_map_equal<std::__ndk1::basic_string<char, std::__ndk1::char_traits<char>, std::__ndk1::allocator<char> >, std::__ndk1::__hash_value_type<std::__ndk1::basic_string<char, std::__ndk1::char_traits<char>, std::__ndk1::allocator<char> >, short>, std::__ndk1::equal_to<std::__ndk1::basic_string<char, std::__ndk1::char_traits<char>, std::__ndk1::allocator<char> > >, std::__ndk1::hash<std::__ndk1::basic_string<char, std::__ndk1::char_traits<char>, std::__ndk1::allocator<char> > >, true>, std::__ndk1::allocator<std::__ndk1::__hash_value_type<std::__ndk1::basic_string<char, std::__ndk1::char_traits<char>, std::__ndk1::allocator<char> >, short> > >::__deallocate_node(std::__ndk1::__hash_node_base<std::__ndk1::__hash_node<std::__ndk1::__hash_value_type<std::__ndk1::basic_string<char, std::__ndk1::char_traits<char>, std::__ndk1::allocator<char> >, short>, void*>*>*)
PUBLIC 5a668 0 std::__ndk1::unique_ptr<std::__ndk1::__hash_node<std::__ndk1::__hash_value_type<std::__ndk1::basic_string<char, std::__ndk1::char_traits<char>, std::__ndk1::allocator<char> >, short>, void*>, std::__ndk1::__hash_node_destructor<std::__ndk1::allocator<std::__ndk1::__hash_node<std::__ndk1::__hash_value_type<std::__ndk1::basic_string<char, std::__ndk1::char_traits<char>, std::__ndk1::allocator<char> >, short>, void*> > > >::~unique_ptr[abi:ne190000]()
PUBLIC 5a6b8 0 geode::EventListener<geode::DispatchFilter<std::__ndk1::unordered_map<std::__ndk1::basic_string<char, std::__ndk1::char_traits<char>, std::__ndk1::allocator<char> >, short, std::__ndk1::hash<std::__ndk1::basic_string<char, std::__ndk1::char_traits<char>, std::__ndk1::allocator<char> > >, std::__ndk1::equal_to<std::__ndk1::basic_string<char, std::__ndk1::char_traits<char>, std::__ndk1::allocator<char> > >, std::__ndk1::allocator<std::__ndk1::pair<std::__ndk1::basic_string<char, std::__ndk1::char_traits<char>, std::__ndk1::allocator<char> > const, short> > >*, NID> >::getPool() const
PUBLIC 5a750 0 geode::EventListener<geode::DispatchFilter<std::__ndk1::unordered_map<std::__ndk1::basic_string<char, std::__ndk1::char_traits<char>, std::__ndk1::allocator<char> >, short, std::__ndk1::hash<std::__ndk1::basic_string<char, std::__ndk1::char_traits<char>, std::__ndk1::allocator<char> > >, std::__ndk1::equal_to<std::__ndk1::basic_string<char, std::__ndk1::char_traits<char>, std::__ndk1::allocator<char> > >, std::__ndk1::allocator<std::__ndk1::pair<std::__ndk1::basic_string<char, std::__ndk1::char_traits<char>, std::__ndk1::allocator<char> > const, short> > >*, NID> >::handle(geode::Event*)
PUBLIC 5aa08 0 geode::EventListener<geode::DispatchFilter<std::__ndk1::unordered_map<std::__ndk1::basic_string<char, std::__ndk1::char_traits<char>, std::__ndk1::allocator<char> >, short, std::__ndk1::hash<std::__ndk1::basic_string<char, std::__ndk1::char_traits<char>, std::__ndk1::allocator<char> > >, std::__ndk1::equal_to<std::__ndk1::basic_string<char, std::__ndk1::char_traits<char>, std::__ndk1::allocator<char> > >, std::__ndk1::allocator<std::__ndk1::pair<std::__ndk1::basic_string<char, std::__ndk1::char_traits<char>, std::__ndk1::allocator<char> > const, short> > >*, NID> >::~EventListener()
PUBLIC 5aa74 0 geode::EventListener<geode::DispatchFilter<std::__ndk1::unordered_map<std::__ndk1::basic_string<char, std::__ndk1::char_traits<char>, std::__ndk1::allocator<char> >, short, std::__ndk1::hash<std::__ndk1::basic_string<char, std::__ndk1::char_traits<char>, std::__ndk1::allocator<char> > >, std::__ndk1::equal_to<std::__ndk1::basic_string<char, std::__ndk1::char_traits<char>, std::__ndk1::allocator<char> > >, std::__ndk1::allocator<std::__ndk1::pair<std::__ndk1::basic_string<char, std::__ndk1::char_traits<char>, std::__ndk1::allocator<char> > const, short> > >*, NID> >::~EventListener()
PUBLIC 5aae8 0 std::__ndk1::__function::__base<geode::ListenerResult(std::__ndk1::unordered_map<std::__ndk1::basic_string<char, std::__ndk1::char_traits<char>, std::__ndk1::allocator<char> >, short, std::__ndk1::hash<std::__ndk1::basic_string<char, std::__ndk1::char_traits<char>, std::__ndk1::allocator<char> > >, std::__ndk1::equal_to<std::__ndk1::basic_string<char, std::__ndk1::char_traits<char>, std::__ndk1::allocator<char> > >, std::__ndk1::allocator<std::__ndk1::pair<std::__ndk1::basic_string<char, std::__ndk1::char_traits<char>, std::__ndk1::allocator<char> > const, short> > >*, NID)>::~__base()
PUBLIC 5aaec 0 std::__ndk1::__function::__func<geode::ListenerResult (*)(std::__ndk1::unordered_map<std::__ndk1::basic_string<char, std::__ndk1::char_traits<char>, std::__ndk1::allocator<char> >, short, std::__ndk1::hash<std::__ndk1::basic_string<char, std::__ndk1::char_traits<char>, std::__ndk1::allocator<char> > >, std::__ndk1::equal_to<std::__ndk1::basic_string<char, std::__ndk1::char_traits<char>, std::__ndk1::allocator<char> > >, std::__ndk1::allocator<std::__ndk1::pair<std::__ndk1::basic_string<char, std::__ndk1::char_traits<char>, std::__ndk1::allocator<char> > const, short> > >*, NID), std::__ndk1::allocator<geode::ListenerResult (*)(std::__ndk1::unordered_map<std::__ndk1::basic_string<char, std::__ndk1::char_traits<char>, std::__ndk1::allocator<char> >, short, std::__ndk1::hash<std::__ndk1::basic_string<char, std::__ndk1::char_traits<char>, std::__ndk1::allocator<char> > >, std::__ndk1::equal_to<std::__ndk1::basic_string<char, std::__ndk1::char_traits<char>, std::__ndk1::allocator<char> > >, std::__ndk1::allocator<std::__ndk1::pair<std::__ndk1::basic_string<char, std::__ndk1::char_traits<char>, std::__ndk1::allocator<char> > const, short> > >*, NID)>, geode::ListenerResult(std::__ndk1::unordered_map<std::__ndk1::basic_string<char, std::__ndk1::char_traits<char>, std::__ndk1::allocator<char> >, short, std::__ndk1::hash<std::__ndk1::basic_string<char, std::__ndk1::char_traits<char>, std::__ndk1::allocator<char> > >, std::__ndk1::equal_to<std::__ndk1::basic_string<char, std::__ndk1::char_traits<char>, std::__ndk1::allocator<char> > >, std::__ndk1::allocator<std::__ndk1::pair<std::__ndk1::basic_string<char, std::__ndk1::char_traits<char>, std::__ndk1::allocator<char> > const, short> > >*, NID)>::~__func()
PUBLIC 5aaf0 0 std::__ndk1::__function::__func<geode::ListenerResult (*)(std::__ndk1::unordered_map<std::__ndk1::basic_string<char, std::__ndk1::char_traits<char>, std::__ndk1::allocator<char> >, short, std::__ndk1::hash<std::__ndk1::basic_string<char, std::__ndk1::char_traits<char>, std::__ndk1::allocator<char> > >, std::__ndk1::equal_to<std::__ndk1::basic_string<char, std::__ndk1::char_traits<char>, std::__ndk1::allocator<char> > >, std::__ndk1::allocator<std::__ndk1::pair<std::__ndk1::basic_string<char, std::__ndk1::char_traits<char>, std::__ndk1::allocator<char> > const, short> > >*, NID), std::__ndk1::allocator<geode::ListenerResult (*)(std::__ndk1::unordered_map<std::__ndk1::basic_string<char, std::__ndk1::char_traits<char>, std::__ndk1::allocator<char> >, short, std::__ndk1::hash<std::__ndk1::basic_string<char, std::__ndk1::char_traits<char>, std::__ndk1::allocator<char> > >, std::__ndk1::equal_to<std::__ndk1::basic_string<char, std::__ndk1::char_traits<char>, std::__ndk1::allocator<char> > >, std::__ndk1::allocator<std::__ndk1::pair<std::__ndk1::basic_string<char, std::__ndk1::char_traits<char>, std::__ndk1::allocator<char> > const, short> > >*, NID)>, geode::ListenerResult(std::__ndk1::unordered_map<std::__ndk1::basic_string<char, std::__ndk1::char_traits<char>, std::__ndk1::allocator<char> >, short, std::__ndk1::hash<std::__ndk1::basic_string<char, std::__ndk1::char_traits<char>, std::__ndk1::allocator<char> > >, std::__ndk1::equal_to<std::__ndk1::basic_string<char, std::__ndk1::char_traits<char>, std::__ndk1::allocator<char> > >, std::__ndk1::allocator<std::__ndk1::pair<std::__ndk1::basic_string<char, std::__ndk1::char_traits<char>, std::__ndk1::allocator<char> > const, short> > >*, NID)>::__clone() const
PUBLIC 5ab24 0 std::__ndk1::__function::__func<geode::ListenerResult (*)(std::__ndk1::unordered_map<std::__ndk1::basic_string<char, std::__ndk1::char_traits<char>, std::__ndk1::allocator<char> >, short, std::__ndk1::hash<std::__ndk1::basic_string<char, std::__ndk1::char_traits<char>, std::__ndk1::allocator<char> > >, std::__ndk1::equal_to<std::__ndk1::basic_string<char, std::__ndk1::char_traits<char>, std::__ndk1::allocator<char> > >, std::__ndk1::allocator<std::__ndk1::pair<std::__ndk1::basic_string<char, std::__ndk1::char_traits<char>, std::__ndk1::allocator<char> > const, short> > >*, NID), std::__ndk1::allocator<geode::ListenerResult (*)(std::__ndk1::unordered_map<std::__ndk1::basic_string<char, std::__ndk1::char_traits<char>, std::__ndk1::allocator<char> >, short, std::__ndk1::hash<std::__ndk1::basic_string<char, std::__ndk1::char_traits<char>, std::__ndk1::allocator<char> > >, std::__ndk1::equal_to<std::__ndk1::basic_string<char, std::__ndk1::char_traits<char>, std::__ndk1::allocator<char> > >, std::__ndk1::allocator<std::__ndk1::pair<std::__ndk1::basic_string<char, std::__ndk1::char_traits<char>, std::__ndk1::allocator<char> > const, short> > >*, NID)>, geode::ListenerResult(std::__ndk1::unordered_map<std::__ndk1::basic_string<char, std::__ndk1::char_traits<char>, std::__ndk1::allocator<char> >, short, std::__ndk1::hash<std::__ndk1::basic_string<char, std::__ndk1::char_traits<char>, std::__ndk1::allocator<char> > >, std::__ndk1::equal_to<std::__ndk1::basic_string<char, std::__ndk1::char_traits<char>, std::__ndk1::allocator<char> > >, std::__ndk1::allocator<std::__ndk1::pair<std::__ndk1::basic_string<char, std::__ndk1::char_traits<char>, std::__ndk1::allocator<char> > const, short> > >*, NID)>::__clone(std::__ndk1::__function::__base<geode::ListenerResult(std::__ndk1::unordered_map<std::__ndk1::basic_string<char, std::__ndk1::char_traits<char>, std::__ndk1::allocator<char> >, short, std::__ndk1::hash<std::__ndk1::basic_string<char, std::__ndk1::char_traits<char>, std::__ndk1::allocator<char> > >, std::__ndk1::equal_to<std::__ndk1::basic_string<char, std::__ndk1::char_traits<char>, std::__ndk1::allocator<char> > >, std::__ndk1::allocator<std::__ndk1::pair<std::__ndk1::basic_string<char, std::__ndk1::char_traits<char>, std::__ndk1::allocator<char> > const, short> > >*, NID)>*) const
PUBLIC 5ab38 0 std::__ndk1::__function::__func<geode::ListenerResult (*)(std::__ndk1::unordered_map<std::__ndk1::basic_string<char, std::__ndk1::char_traits<char>, std::__ndk1::allocator<char> >, short, std::__ndk1::hash<std::__ndk1::basic_string<char, std::__ndk1::char_traits<char>, std::__ndk1::allocator<char> > >, std::__ndk1::equal_to<std::__ndk1::basic_string<char, std::__ndk1::char_traits<char>, std::__ndk1::allocator<char> > >, std::__ndk1::allocator<std::__ndk1::pair<std::__ndk1::basic_string<char, std::__ndk1::char_traits<char>, std::__ndk1::allocator<char> > const, short> > >*, NID), std::__ndk1::allocator<geode::ListenerResult (*)(std::__ndk1::unordered_map<std::__ndk1::basic_string<char, std::__ndk1::char_traits<char>, std::__ndk1::allocator<char> >, short, std::__ndk1::hash<std::__ndk1::basic_string<char, std::__ndk1::char_traits<char>, std::__ndk1::allocator<char> > >, std::__ndk1::equal_to<std::__ndk1::basic_string<char, std::__ndk1::char_traits<char>, std::__ndk1::allocator<char> > >, std::__ndk1::allocator<std::__ndk1::pair<std::__ndk1::basic_string<char, std::__ndk1::char_traits<char>, std::__ndk1::allocator<char> > const, short> > >*, NID)>, geode::ListenerResult(std::__ndk1::unordered_map<std::__ndk1::basic_string<char, std::__ndk1::char_traits<char>, std::__ndk1::allocator<char> >, short, std::__ndk1::hash<std::__ndk1::basic_string<char, std::__ndk1::char_traits<char>, std::__ndk1::allocator<char> > >, std::__ndk1::equal_to<std::__ndk1::basic_string<char, std::__ndk1::char_traits<char>, std::__ndk1::allocator<char> > >, std::__ndk1::allocator<std::__ndk1::pair<std::__ndk1::basic_string<char, std::__ndk1::char_traits<char>, std::__ndk1::allocator<char> > const, short> > >*, NID)>::destroy()
PUBLIC 5ab3c 0 std::__ndk1::__function::__func<geode::ListenerResult (*)(std::__ndk1::unordered_map<std::__ndk1::basic_string<char, std::__ndk1::char_traits<char>, std::__ndk1::allocator<char> >, short, std::__ndk1::hash<std::__ndk1::basic_string<char, std::__ndk1::char_traits<char>, std::__ndk1::allocator<char> > >, std::__ndk1::equal_to<std::__ndk1::basic_string<char, std::__ndk1::char_traits<char>, std::__ndk1::allocator<char> > >, std::__ndk1::allocator<std::__ndk1::pair<std::__ndk1::basic_string<char, std::__ndk1::char_traits<char>, std::__ndk1::allocator<char> > const, short> > >*, NID), std::__ndk1::allocator<geode::ListenerResult (*)(std::__ndk1::unordered_map<std::__ndk1::basic_string<char, std::__ndk1::char_traits<char>, std::__ndk1::allocator<char> >, short, std::__ndk1::hash<std::__ndk1::basic_string<char, std::__ndk1::char_traits<char>, std::__ndk1::allocator<char> > >, std::__ndk1::equal_to<std::__ndk1::basic_string<char, std::__ndk1::char_traits<char>, std::__ndk1::allocator<char> > >, std::__ndk1::allocator<std::__ndk1::pair<std::__ndk1::basic_string<char, std::__ndk1::char_traits<char>, std::__ndk1::allocator<char> > const, short> > >*, NID)>, geode::ListenerResult(std::__ndk1::unordered_map<std::__ndk1::basic_string<char, std::__ndk1::char_traits<char>, std::__ndk1::allocator<char> >, short, std::__ndk1::hash<std::__ndk1::basic_string<char, std::__ndk1::char_traits<char>, std::__ndk1::allocator<char> > >, std::__ndk1::equal_to<std::__ndk1::basic_string<char, std::__ndk1::char_traits<char>, std::__ndk1::allocator<char> > >, std::__ndk1::allocator<std::__ndk1::pair<std::__ndk1::basic_string<char, std::__ndk1::char_traits<char>, std::__ndk1::allocator<char> > const, short> > >*, NID)>::destroy_deallocate()
PUBLIC 5ab40 0 std::__ndk1::__function::__func<geode::ListenerResult (*)(std::__ndk1::unordered_map<std::__ndk1::basic_string<char, std::__ndk1::char_traits<char>, std::__ndk1::allocator<char> >, short, std::__ndk1::hash<std::__ndk1::basic_string<char, std::__ndk1::char_traits<char>, std::__ndk1::allocator<char> > >, std::__ndk1::equal_to<std::__ndk1::basic_string<char, std::__ndk1::char_traits<char>, std::__ndk1::allocator<char> > >, std::__ndk1::allocator<std::__ndk1::pair<std::__ndk1::basic_string<char, std::__ndk1::char_traits<char>, std::__ndk1::allocator<char> > const, short> > >*, NID), std::__ndk1::allocator<geode::ListenerResult (*)(std::__ndk1::unordered_map<std::__ndk1::basic_string<char, std::__ndk1::char_traits<char>, std::__ndk1::allocator<char> >, short, std::__ndk1::hash<std::__ndk1::basic_string<char, std::__ndk1::char_traits<char>, std::__ndk1::allocator<char> > >, std::__ndk1::equal_to<std::__ndk1::basic_string<char, std::__ndk1::char_traits<char>, std::__ndk1::allocator<char> > >, std::__ndk1::allocator<std::__ndk1::pair<std::__ndk1::basic_string<char, std::__ndk1::char_traits<char>, std::__ndk1::allocator<char> > const, short> > >*, NID)>, geode::ListenerResult(std::__ndk1::unordered_map<std::__ndk1::basic_string<char, std::__ndk1::char_traits<char>, std::__ndk1::allocator<char> >, short, std::__ndk1::hash<std::__ndk1::basic_string<char, std::__ndk1::char_traits<char>, std::__ndk1::allocator<char> > >, std::__ndk1::equal_to<std::__ndk1::basic_string<char, std::__ndk1::char_traits<char>, std::__ndk1::allocator<char> > >, std::__ndk1::allocator<std::__ndk1::pair<std::__ndk1::basic_string<char, std::__ndk1::char_traits<char>, std::__ndk1::allocator<char> > const, short> > >*, NID)>::operator()(std::__ndk1::unordered_map<std::__ndk1::basic_string<char, std::__ndk1::char_traits<char>, std::__ndk1::allocator<char> >, short, std::__ndk1::hash<std::__ndk1::basic_string<char, std::__ndk1::char_traits<char>, std::__ndk1::allocator<char> > >, std::__ndk1::equal_to<std::__ndk1::basic_string<char, std::__ndk1::char_traits<char>, std::__ndk1::allocator<char> > >, std::__ndk1::allocator<std::__ndk1::pair<std::__ndk1::basic_string<char, std::__ndk1::char_traits<char>, std::__ndk1::allocator<char> > const, short> > >*&&, NID&&)
PUBLIC 5ab54 0 std::__ndk1::__function::__func<geode::ListenerResult (*)(std::__ndk1::unordered_map<std::__ndk1::basic_string<char, std::__ndk1::char_traits<char>, std::__ndk1::allocator<char> >, short, std::__ndk1::hash<std::__ndk1::basic_string<char, std::__ndk1::char_traits<char>, std::__ndk1::allocator<char> > >, std::__ndk1::equal_to<std::__ndk1::basic_string<char, std::__ndk1::char_traits<char>, std::__ndk1::allocator<char> > >, std::__ndk1::allocator<std::__ndk1::pair<std::__ndk1::basic_string<char, std::__ndk1::char_traits<char>, std::__ndk1::allocator<char> > const, short> > >*, NID), std::__ndk1::allocator<geode::ListenerResult (*)(std::__ndk1::unordered_map<std::__ndk1::basic_string<char, std::__ndk1::char_traits<char>, std::__ndk1::allocator<char> >, short, std::__ndk1::hash<std::__ndk1::basic_string<char, std::__ndk1::char_traits<char>, std::__ndk1::allocator<char> > >, std::__ndk1::equal_to<std::__ndk1::basic_string<char, std::__ndk1::char_traits<char>, std::__ndk1::allocator<char> > >, std::__ndk1::allocator<std::__ndk1::pair<std::__ndk1::basic_string<char, std::__ndk1::char_traits<char>, std::__ndk1::allocator<char> > const, short> > >*, NID)>, geode::ListenerResult(std::__ndk1::unordered_map<std::__ndk1::basic_string<char, std::__ndk1::char_traits<char>, std::__ndk1::allocator<char> >, short, std::__ndk1::hash<std::__ndk1::basic_string<char, std::__ndk1::char_traits<char>, std::__ndk1::allocator<char> > >, std::__ndk1::equal_to<std::__ndk1::basic_string<char, std::__ndk1::char_traits<char>, std::__ndk1::allocator<char> > >, std::__ndk1::allocator<std::__ndk1::pair<std::__ndk1::basic_string<char, std::__ndk1::char_traits<char>, std::__ndk1::allocator<char> > const, short> > >*, NID)>::target(std::type_info const&) const
PUBLIC 5ab70 0 std::__ndk1::__function::__func<geode::ListenerResult (*)(std::__ndk1::unordered_map<std::__ndk1::basic_string<char, std::__ndk1::char_traits<char>, std::__ndk1::allocator<char> >, short, std::__ndk1::hash<std::__ndk1::basic_string<char, std::__ndk1::char_traits<char>, std::__ndk1::allocator<char> > >, std::__ndk1::equal_to<std::__ndk1::basic_string<char, std::__ndk1::char_traits<char>, std::__ndk1::allocator<char> > >, std::__ndk1::allocator<std::__ndk1::pair<std::__ndk1::basic_string<char, std::__ndk1::char_traits<char>, std::__ndk1::allocator<char> > const, short> > >*, NID), std::__ndk1::allocator<geode::ListenerResult (*)(std::__ndk1::unordered_map<std::__ndk1::basic_string<char, std::__ndk1::char_traits<char>, std::__ndk1::allocator<char> >, short, std::__ndk1::hash<std::__ndk1::basic_string<char, std::__ndk1::char_traits<char>, std::__ndk1::allocator<char> > >, std::__ndk1::equal_to<std::__ndk1::basic_string<char, std::__ndk1::char_traits<char>, std::__ndk1::allocator<char> > >, std::__ndk1::allocator<std::__ndk1::pair<std::__ndk1::basic_string<char, std::__ndk1::char_traits<char>, std::__ndk1::allocator<char> > const, short> > >*, NID)>, geode::ListenerResult(std::__ndk1::unordered_map<std::__ndk1::basic_string<char, std::__ndk1::char_traits<char>, std::__ndk1::allocator<char> >, short, std::__ndk1::hash<std::__ndk1::basic_string<char, std::__ndk1::char_traits<char>, std::__ndk1::allocator<char> > >, std::__ndk1::equal_to<std::__ndk1::basic_string<char, std::__ndk1::char_traits<char>, std::__ndk1::allocator<char> > >, std::__ndk1::allocator<std::__ndk1::pair<std::__ndk1::basic_string<char, std::__ndk1::char_traits<char>, std::__ndk1::allocator<char> > const, short> > >*, NID)>::target_type() const
PUBLIC 5ab7c 0 geodeExecFunction14<(anonymous namespace)::ExecFuncUnique14>()::{lambda(bool*, NID, std::__ndk1::basic_string<char, std::__ndk1::char_traits<char>, std::__ndk1::allocator<char> >(bool*, NID, std::__ndk1::basic_string<char, std::__ndk1::char_traits<char>, std::__ndk1::allocator<char> >, short), short)#1}::__invoke
PUBLIC 5ac0c 0 std::__ndk1::__variant_detail::__visitation::__base::__dispatcher<(unsigned long)0>::__dispatch[abi:ne190000]<std::__ndk1::__variant_detail::__dtor<std::__ndk1::__variant_detail::__traits<std::__ndk1::monostate, std::__ndk1::basic_string<char, std::__ndk1::char_traits<char>, std::__ndk1::allocator<char> > >, (std::__ndk1::__variant_detail::_Trait)1>::__destroy[abi:ne190000]()::{lambda(auto:1&)#1}, std::__ndk1::__variant_detail::__base<(std::__ndk1::__variant_detail::__traits<std::__ndk1::monostate, std::__ndk1::basic_string<char, std::__ndk1::char_traits<char>, std::__ndk1::allocator<char> > >)1, std::__ndk1::__variant_detail::__traits, std::__ndk1::allocator<char> >&>(std::__ndk1::__variant_detail::__dtor<std::__ndk1::__variant_detail::__traits<std::__ndk1::monostate, std::__ndk1::basic_string<char, std::__ndk1::char_traits<char>, std::__ndk1::allocator<char> > >, (std::__ndk1::__variant_detail::_Trait)1>, std::__ndk1::__variant_detail::__base<(std::__ndk1::__variant_detail::__traits<std::__ndk1::monostate, std::__ndk1::basic_string<char, std::__ndk1::char_traits<char>, std::__ndk1::allocator<char> > >)1, std::__ndk1::__variant_detail::__traits, std::__ndk1::allocator<char> >&)
PUBLIC 5ac10 0 std::__ndk1::__variant_detail::__visitation::__base::__dispatcher<(unsigned long)1>::__dispatch[abi:ne190000]<std::__ndk1::__variant_detail::__dtor<std::__ndk1::__variant_detail::__traits<std::__ndk1::monostate, std::__ndk1::basic_string<char, std::__ndk1::char_traits<char>, std::__ndk1::allocator<char> > >, (std::__ndk1::__variant_detail::_Trait)1>::__destroy[abi:ne190000]()::{lambda(auto:1&)#1}, std::__ndk1::__variant_detail::__base<(std::__ndk1::__variant_detail::__traits<std::__ndk1::monostate, std::__ndk1::basic_string<char, std::__ndk1::char_traits<char>, std::__ndk1::allocator<char> > >)1, std::__ndk1::__variant_detail::__traits, std::__ndk1::allocator<char> >&>(std::__ndk1::__variant_detail::__dtor<std::__ndk1::__variant_detail::__traits<std::__ndk1::monostate, std::__ndk1::basic_string<char, std::__ndk1::char_traits<char>, std::__ndk1::allocator<char> > >, (std::__ndk1::__variant_detail::_Trait)1>, std::__ndk1::__variant_detail::__base<(std::__ndk1::__variant_detail::__traits<std::__ndk1::monostate, std::__ndk1::basic_string<char, std::__ndk1::char_traits<char>, std::__ndk1::allocator<char> > >)1, std::__ndk1::__variant_detail::__traits, std::__ndk1::allocator<char> >&)
PUBLIC 5ac24 0 geode::EventListener<geode::DispatchFilter<bool*, NID, std::__ndk1::basic_string<char, std::__ndk1::char_traits<char>, std::__ndk1::allocator<char> >, short> >::getPool() const
PUBLIC 5acbc 0 geode::EventListener<geode::DispatchFilter<bool*, NID, std::__ndk1::basic_string<char, std::__ndk1::char_traits<char>, std::__ndk1::allocator<char> >, short> >::handle(geode::Event*)
PUBLIC 5b054 0 geode::EventListener<geode::DispatchFilter<bool*, NID, std::__ndk1::basic_string<char, std::__ndk1::char_traits<char>, std::__ndk1::allocator<char> >, short> >::~EventListener()
PUBLIC 5b0c0 0 geode::EventListener<geode::DispatchFilter<bool*, NID, std::__ndk1::basic_string<char, std::__ndk1::char_traits<char>, std::__ndk1::allocator<char> >, short> >::~EventListener()
PUBLIC 5b134 0 std::__ndk1::__function::__base<geode::ListenerResult(bool*, NID, std::__ndk1::basic_string<char, std::__ndk1::char_traits<char>, std::__ndk1::allocator<char> >, short)>::~__base()
PUBLIC 5b138 0 std::__ndk1::__function::__func<geode::ListenerResult (*)(bool*, NID, std::__ndk1::basic_string<char, std::__ndk1::char_traits<char>, std::__ndk1::allocator<char> >, short), std::__ndk1::allocator<geode::ListenerResult (*)(bool*, NID, std::__ndk1::basic_string<char, std::__ndk1::char_traits<char>, std::__ndk1::allocator<char> >, short)>, geode::ListenerResult(bool*, NID, std::__ndk1::basic_string<char, std::__ndk1::char_traits<char>, std::__ndk1::allocator<char> >, short)>::~__func()
PUBLIC 5b13c 0 std::__ndk1::__function::__func<geode::ListenerResult (*)(bool*, NID, std::__ndk1::basic_string<char, std::__ndk1::char_traits<char>, std::__ndk1::allocator<char> >, short), std::__ndk1::allocator<geode::ListenerResult (*)(bool*, NID, std::__ndk1::basic_string<char, std::__ndk1::char_traits<char>, std::__ndk1::allocator<char> >, short)>, geode::ListenerResult(bool*, NID, std::__ndk1::basic_string<char, std::__ndk1::char_traits<char>, std::__ndk1::allocator<char> >, short)>::__clone() const
PUBLIC 5b170 0 std::__ndk1::__function::__func<geode::ListenerResult (*)(bool*, NID, std::__ndk1::basic_string<char, std::__ndk1::char_traits<char>, std::__ndk1::allocator<char> >, short), std::__ndk1::allocator<geode::ListenerResult (*)(bool*, NID, std::__ndk1::basic_string<char, std::__ndk1::char_traits<char>, std::__ndk1::allocator<char> >, short)>, geode::ListenerResult(bool*, NID, std::__ndk1::basic_string<char, std::__ndk1::char_traits<char>, std::__ndk1::allocator<char> >, short)>::__clone(std::__ndk1::__function::__base<geode::ListenerResult(bool*, NID, std::__ndk1::basic_string<char, std::__ndk1::char_traits<char>, std::__ndk1::allocator<char> >, short)>*) const
PUBLIC 5b184 0 std::__ndk1::__function::__func<geode::ListenerResult (*)(bool*, NID, std::__ndk1::basic_string<char, std::__ndk1::char_traits<char>, std::__ndk1::allocator<char> >, short), std::__ndk1::allocator<geode::ListenerResult (*)(bool*, NID, std::__ndk1::basic_string<char, std::__ndk1::char_traits<char>, std::__ndk1::allocator<char> >, short)>, geode::ListenerResult(bool*, NID, std::__ndk1::basic_string<char, std::__ndk1::char_traits<char>, std::__ndk1::allocator<char> >, short)>::destroy()
PUBLIC 5b188 0 std::__ndk1::__function::__func<geode::ListenerResult (*)(bool*, NID, std::__ndk1::basic_string<char, std::__ndk1::char_traits<char>, std::__ndk1::allocator<char> >, short), std::__ndk1::allocator<geode::ListenerResult (*)(bool*, NID, std::__ndk1::basic_string<char, std::__ndk1::char_traits<char>, std::__ndk1::allocator<char> >, short)>, geode::ListenerResult(bool*, NID, std::__ndk1::basic_string<char, std::__ndk1::char_traits<char>, std::__ndk1::allocator<char> >, short)>::destroy_deallocate()
PUBLIC 5b18c 0 std::__ndk1::__function::__func<geode::ListenerResult (*)(bool*, NID, std::__ndk1::basic_string<char, std::__ndk1::char_traits<char>, std::__ndk1::allocator<char> >, short), std::__ndk1::allocator<geode::ListenerResult (*)(bool*, NID, std::__ndk1::basic_string<char, std::__ndk1::char_traits<char>, std::__ndk1::allocator<char> >, short)>, geode::ListenerResult(bool*, NID, std::__ndk1::basic_string<char, std::__ndk1::char_traits<char>, std::__ndk1::allocator<char> >, short)>::operator()(bool*&&, NID&&, std::__ndk1::basic_string<char, std::__ndk1::char_traits<char>, std::__ndk1::allocator<char> >&&, short&&)
PUBLIC 5b244 0 std::__ndk1::__function::__func<geode::ListenerResult (*)(bool*, NID, std::__ndk1::basic_string<char, std::__ndk1::char_traits<char>, std::__ndk1::allocator<char> >, short), std::__ndk1::allocator<geode::ListenerResult (*)(bool*, NID, std::__ndk1::basic_string<char, std::__ndk1::char_traits<char>, std::__ndk1::allocator<char> >, short)>, geode::ListenerResult(bool*, NID, std::__ndk1::basic_string<char, std::__ndk1::char_traits<char>, std::__ndk1::allocator<char> >, short)>::target(std::type_info const&) const
PUBLIC 5b260 0 std::__ndk1::__function::__func<geode::ListenerResult (*)(bool*, NID, std::__ndk1::basic_string<char, std::__ndk1::char_traits<char>, std::__ndk1::allocator<char> >, short), std::__ndk1::allocator<geode::ListenerResult (*)(bool*, NID, std::__ndk1::basic_string<char, std::__ndk1::char_traits<char>, std::__ndk1::allocator<char> >, short)>, geode::ListenerResult(bool*, NID, std::__ndk1::basic_string<char, std::__ndk1::char_traits<char>, std::__ndk1::allocator<char> >, short)>::target_type() const
PUBLIC 5b26c 0 geodeExecFunction14<(anonymous namespace)::ExecFuncUnique14>()::{lambda(bool*, NID, std::__ndk1::basic_string<char, std::__ndk1::char_traits<char>, std::__ndk1::allocator<char> >(bool*, NID, std::__ndk1::basic_string<char, std::__ndk1::char_traits<char>, std::__ndk1::allocator<char> >))#1}::__invoke
PUBLIC 5b2f8 0 geode::EventListener<geode::DispatchFilter<bool*, NID, std::__ndk1::basic_string<char, std::__ndk1::char_traits<char>, std::__ndk1::allocator<char> > > >::getPool() const
PUBLIC 5b390 0 geode::EventListener<geode::DispatchFilter<bool*, NID, std::__ndk1::basic_string<char, std::__ndk1::char_traits<char>, std::__ndk1::allocator<char> > > >::handle(geode::Event*)
PUBLIC 5b718 0 geode::EventListener<geode::DispatchFilter<bool*, NID, std::__ndk1::basic_string<char, std::__ndk1::char_traits<char>, std::__ndk1::allocator<char> > > >::~EventListener()
PUBLIC 5b784 0 geode::EventListener<geode::DispatchFilter<bool*, NID, std::__ndk1::basic_string<char, std::__ndk1::char_traits<char>, std::__ndk1::allocator<char> > > >::~EventListener()
PUBLIC 5b7f8 0 std::__ndk1::__function::__base<geode::ListenerResult(bool*, NID, std::__ndk1::basic_string<char, std::__ndk1::char_traits<char>, std::__ndk1::allocator<char> >)>::~__base()
PUBLIC 5b7fc 0 std::__ndk1::__function::__func<geode::ListenerResult (*)(bool*, NID, std::__ndk1::basic_string<char, std::__ndk1::char_traits<char>, std::__ndk1::allocator<char> >), std::__ndk1::allocator<geode::ListenerResult (*)(bool*, NID, std::__ndk1::basic_string<char, std::__ndk1::char_traits<char>, std::__ndk1::allocator<char> >)>, geode::ListenerResult(bool*, NID, std::__ndk1::basic_string<char, std::__ndk1::char_traits<char>, std::__ndk1::allocator<char> >)>::~__func()
PUBLIC 5b800 0 std::__ndk1::__function::__func<geode::ListenerResult (*)(bool*, NID, std::__ndk1::basic_string<char, std::__ndk1::char_traits<char>, std::__ndk1::allocator<char> >), std::__ndk1::allocator<geode::ListenerResult (*)(bool*, NID, std::__ndk1::basic_string<char, std::__ndk1::char_traits<char>, std::__ndk1::allocator<char> >)>, geode::ListenerResult(bool*, NID, std::__ndk1::basic_string<char, std::__ndk1::char_traits<char>, std::__ndk1::allocator<char> >)>::__clone() const
PUBLIC 5b834 0 std::__ndk1::__function::__func<geode::ListenerResult (*)(bool*, NID, std::__ndk1::basic_string<char, std::__ndk1::char_traits<char>, std::__ndk1::allocator<char> >), std::__ndk1::allocator<geode::ListenerResult (*)(bool*, NID, std::__ndk1::basic_string<char, std::__ndk1::char_traits<char>, std::__ndk1::allocator<char> >)>, geode::ListenerResult(bool*, NID, std::__ndk1::basic_string<char, std::__ndk1::char_traits<char>, std::__ndk1::allocator<char> >)>::__clone(std::__ndk1::__function::__base<geode::ListenerResult(bool*, NID, std::__ndk1::basic_string<char, std::__ndk1::char_traits<char>, std::__ndk1::allocator<char> >)>*) const
PUBLIC 5b848 0 std::__ndk1::__function::__func<geode::ListenerResult (*)(bool*, NID, std::__ndk1::basic_string<char, std::__ndk1::char_traits<char>, std::__ndk1::allocator<char> >), std::__ndk1::allocator<geode::ListenerResult (*)(bool*, NID, std::__ndk1::basic_string<char, std::__ndk1::char_traits<char>, std::__ndk1::allocator<char> >)>, geode::ListenerResult(bool*, NID, std::__ndk1::basic_string<char, std::__ndk1::char_traits<char>, std::__ndk1::allocator<char> >)>::destroy()
PUBLIC 5b84c 0 std::__ndk1::__function::__func<geode::ListenerResult (*)(bool*, NID, std::__ndk1::basic_string<char, std::__ndk1::char_traits<char>, std::__ndk1::allocator<char> >), std::__ndk1::allocator<geode::ListenerResult (*)(bool*, NID, std::__ndk1::basic_string<char, std::__ndk1::char_traits<char>, std::__ndk1::allocator<char> >)>, geode::ListenerResult(bool*, NID, std::__ndk1::basic_string<char, std::__ndk1::char_traits<char>, std::__ndk1::allocator<char> >)>::destroy_deallocate()
PUBLIC 5b850 0 std::__ndk1::__function::__func<geode::ListenerResult (*)(bool*, NID, std::__ndk1::basic_string<char, std::__ndk1::char_traits<char>, std::__ndk1::allocator<char> >), std::__ndk1::allocator<geode::ListenerResult (*)(bool*, NID, std::__ndk1::basic_string<char, std::__ndk1::char_traits<char>, std::__ndk1::allocator<char> >)>, geode::ListenerResult(bool*, NID, std::__ndk1::basic_string<char, std::__ndk1::char_traits<char>, std::__ndk1::allocator<char> >)>::operator()(bool*&&, NID&&, std::__ndk1::basic_string<char, std::__ndk1::char_traits<char>, std::__ndk1::allocator<char> >&&)
PUBLIC 5b904 0 std::__ndk1::__function::__func<geode::ListenerResult (*)(bool*, NID, std::__ndk1::basic_string<char, std::__ndk1::char_traits<char>, std::__ndk1::allocator<char> >), std::__ndk1::allocator<geode::ListenerResult (*)(bool*, NID, std::__ndk1::basic_string<char, std::__ndk1::char_traits<char>, std::__ndk1::allocator<char> >)>, geode::ListenerResult(bool*, NID, std::__ndk1::basic_string<char, std::__ndk1::char_traits<char>, std::__ndk1::allocator<char> >)>::target(std::type_info const&) const
PUBLIC 5b920 0 std::__ndk1::__function::__func<geode::ListenerResult (*)(bool*, NID, std::__ndk1::basic_string<char, std::__ndk1::char_traits<char>, std::__ndk1::allocator<char> >), std::__ndk1::allocator<geode::ListenerResult (*)(bool*, NID, std::__ndk1::basic_string<char, std::__ndk1::char_traits<char>, std::__ndk1::allocator<char> >)>, geode::ListenerResult(bool*, NID, std::__ndk1::basic_string<char, std::__ndk1::char_traits<char>, std::__ndk1::allocator<char> >)>::target_type() const
PUBLIC 5b92c 0 geodeExecFunction14<(anonymous namespace)::ExecFuncUnique14>()::{lambda(bool*, NID, short)#1}::__invoke(bool*, NID, short)
PUBLIC 5b9b8 0 geode::EventListener<geode::DispatchFilter<bool*, NID, short> >::getPool() const
PUBLIC 5ba50 0 geode::EventListener<geode::DispatchFilter<bool*, NID, short> >::handle(geode::Event*)
PUBLIC 5bd14 0 geode::EventListener<geode::DispatchFilter<bool*, NID, short> >::~EventListener()
PUBLIC 5bd80 0 geode::EventListener<geode::DispatchFilter<bool*, NID, short> >::~EventListener()
PUBLIC 5bdf4 0 std::__ndk1::__function::__base<geode::ListenerResult(bool*, NID, short)>::~__base()
PUBLIC 5bdf8 0 std::__ndk1::__function::__func<geode::ListenerResult (*)(bool*, NID, short), std::__ndk1::allocator<geode::ListenerResult (*)(bool*, NID, short)>, geode::ListenerResult(bool*, NID, short)>::~__func()
PUBLIC 5bdfc 0 std::__ndk1::__function::__func<geode::ListenerResult (*)(bool*, NID, short), std::__ndk1::allocator<geode::ListenerResult (*)(bool*, NID, short)>, geode::ListenerResult(bool*, NID, short)>::__clone() const
PUBLIC 5be30 0 std::__ndk1::__function::__func<geode::ListenerResult (*)(bool*, NID, short), std::__ndk1::allocator<geode::ListenerResult (*)(bool*, NID, short)>, geode::ListenerResult(bool*, NID, short)>::__clone(std::__ndk1::__function::__base<geode::ListenerResult(bool*, NID, short)>*) const
PUBLIC 5be44 0 std::__ndk1::__function::__func<geode::ListenerResult (*)(bool*, NID, short), std::__ndk1::allocator<geode::ListenerResult (*)(bool*, NID, short)>, geode::ListenerResult(bool*, NID, short)>::destroy()
PUBLIC 5be48 0 std::__ndk1::__function::__func<geode::ListenerResult (*)(bool*, NID, short), std::__ndk1::allocator<geode::ListenerResult (*)(bool*, NID, short)>, geode::ListenerResult(bool*, NID, short)>::destroy_deallocate()
PUBLIC 5be4c 0 std::__ndk1::__function::__func<geode::ListenerResult (*)(bool*, NID, short), std::__ndk1::allocator<geode::ListenerResult (*)(bool*, NID, short)>, geode::ListenerResult(bool*, NID, short)>::operator()(bool*&&, NID&&, short&&)
PUBLIC 5be64 0 std::__ndk1::__function::__func<geode::ListenerResult (*)(bool*, NID, short), std::__ndk1::allocator<geode::ListenerResult (*)(bool*, NID, short)>, geode::ListenerResult(bool*, NID, short)>::target(std::type_info const&) const
PUBLIC 5be80 0 std::__ndk1::__function::__func<geode::ListenerResult (*)(bool*, NID, short), std::__ndk1::allocator<geode::ListenerResult (*)(bool*, NID, short)>, geode::ListenerResult(bool*, NID, short)>::target_type() const
PUBLIC 5be8c 0 _GLOBAL__sub_I_API.cpp
PUBLIC 5c68c 0 NamedIDs::~NamedIDs()
PUBLIC m 5c6fc 0 NIDManager::getNameForID(NID, short)
PUBLIC m 5c840 0 NIDManager::getIDForName(NID, std::__ndk1::basic_string<char, std::__ndk1::char_traits<char>, std::__ndk1::allocator<char> > const&)
PUBLIC m 5c994 0 NIDManager::saveNamedID(NID, std::__ndk1::basic_string<char, std::__ndk1::char_traits<char>, std::__ndk1::allocator<char> >&&, short)
PUBLIC 5cc4c 0 NewNamedIDEvent::~NewNamedIDEvent()
PUBLIC m 5cc8c 0 NIDManager::removeNamedID(NID, std::__ndk1::basic_string<char, std::__ndk1::char_traits<char>, std::__ndk1::allocator<char> >&&)
PUBLIC 5cedc 0 RemovedNamedIDEvent::~RemovedNamedIDEvent()
PUBLIC m 5cf1c 0 NIDManager::removeNamedID(NID, short)
PUBLIC m 5d24c 0 NIDManager::getNamedIDs(NID)
PUBLIC 5d290 0 NIDManager::isDirty()
PUBLIC 5d29c 0 NIDManager::dumpNamedIDs()
PUBLIC 5d474 0 NIDManager::importNamedIDs(std::__ndk1::basic_string<char, std::__ndk1::char_traits<char>, std::__ndk1::allocator<char> > const&)
PUBLIC 5d6a4 0 NIDManager::reset()
PUBLIC 5d828 0 std::__ndk1::__throw_out_of_range[abi:ne190000](char const*)
PUBLIC 5d878 0 std::__ndk1::__hash_table<std::__ndk1::__hash_value_type<std::__ndk1::basic_string<char, std::__ndk1::char_traits<char>, std::__ndk1::allocator<char> >, short>, std::__ndk1::__unordered_map_hasher<std::__ndk1::basic_string<char, std::__ndk1::char_traits<char>, std::__ndk1::allocator<char> >, std::__ndk1::__hash_value_type<std::__ndk1::basic_string<char, std::__ndk1::char_traits<char>, std::__ndk1::allocator<char> >, short>, std::__ndk1::hash<std::__ndk1::basic_string<char, std::__ndk1::char_traits<char>, std::__ndk1::allocator<char> > >, std::__ndk1::equal_to<std::__ndk1::basic_string<char, std::__ndk1::char_traits<char>, std::__ndk1::allocator<char> > >, true>, std::__ndk1::__unordered_map_equal<std::__ndk1::basic_string<char, std::__ndk1::char_traits<char>, std::__ndk1::allocator<char> >, std::__ndk1::__hash_value_type<std::__ndk1::basic_string<char, std::__ndk1::char_traits<char>, std::__ndk1::allocator<char> >, short>, std::__ndk1::equal_to<std::__ndk1::basic_string<char, std::__ndk1::char_traits<char>, std::__ndk1::allocator<char> > >, std::__ndk1::hash<std::__ndk1::basic_string<char, std::__ndk1::char_traits<char>, std::__ndk1::allocator<char> > >, true>, std::__ndk1::allocator<std::__ndk1::__hash_value_type<std::__ndk1::basic_string<char, std::__ndk1::char_traits<char>, std::__ndk1::allocator<char> >, short> > >::find<std::__ndk1::basic_string<char, std::__ndk1::char_traits<char>, std::__ndk1::allocator<char> > >(std::__ndk1::basic_string<char, std::__ndk1::char_traits<char>, std::__ndk1::allocator<char> > const&) const
PUBLIC 5dacc 0 std::out_of_range::out_of_range[abi:ne190000](char const*)
PUBLIC 5dafc 0 _ZN5geode15UnwrapExceptionC2IRNSt6__ndk112basic_stringIcNS2_11char_traitsIcEENS2_9allocatorIcEEEEQsr4implE18IsStringStreamableIT_EEENS_4impl6ErrTagEOSA_
PUBLIC 5dc64 0 std::__ndk1::__throw_bad_variant_access[abi:ne190000]()
PUBLIC 5dc98 0 std::__ndk1::basic_stringstream<char, std::__ndk1::char_traits<char>, std::__ndk1::allocator<char> >::basic_stringstream[abi:ne190000]()
PUBLIC m 5ddcc 0 std::__ndk1::basic_stringstream<char, std::__ndk1::char_traits<char>, std::__ndk1::allocator<char> >::~basic_stringstream()
PUBLIC 5de4c 0 geode::UnwrapException::~UnwrapException()
PUBLIC 5de70 0 std::__ndk1::__put_character_sequence[abi:ne190000]<char, std::__ndk1::char_traits<char> >(std::__ndk1::basic_ostream<char, std::__ndk1::char_traits<char> >, std::__ndk1::basic_ostream const*, unsigned long)
PUBLIC 5e014 0 std::__ndk1::__pad_and_output[abi:ne190000]<char, std::__ndk1::char_traits<char> >(std::__ndk1::char_traits<char>, std::__ndk1::ostreambuf_iterator const*, std::__ndk1::ostreambuf_iterator const, std::__ndk1::ostreambuf_iterator const, std::__ndk1::ios_base&, std::__ndk1::ostreambuf_iterator)
PUBLIC 5e200 0 std::__ndk1::basic_stringbuf<char, std::__ndk1::char_traits<char>, std::__ndk1::allocator<char> >::str[abi:ne190000]() &&
PUBLIC 5e370 0 std::__ndk1::basic_stringbuf<char, std::__ndk1::char_traits<char>, std::__ndk1::allocator<char> >::__init_buf_ptrs[abi:ne190000]()
PUBLIC 5e4b8 0 std::__ndk1::basic_string<char, std::__ndk1::char_traits<char>, std::__ndk1::allocator<char> >::__erase_external_with_move(unsigned long, unsigned long)
PUBLIC 5e540 0 NewNamedIDEvent::~NewNamedIDEvent()
PUBLIC 5e584 0 std::__ndk1::__hash_table<std::__ndk1::__hash_value_type<std::__ndk1::basic_string<char, std::__ndk1::char_traits<char>, std::__ndk1::allocator<char> >, short>, std::__ndk1::__unordered_map_hasher<std::__ndk1::basic_string<char, std::__ndk1::char_traits<char>, std::__ndk1::allocator<char> >, std::__ndk1::__hash_value_type<std::__ndk1::basic_string<char, std::__ndk1::char_traits<char>, std::__ndk1::allocator<char> >, short>, std::__ndk1::hash<std::__ndk1::basic_string<char, std::__ndk1::char_traits<char>, std::__ndk1::allocator<char> > >, std::__ndk1::equal_to<std::__ndk1::basic_string<char, std::__ndk1::char_traits<char>, std::__ndk1::allocator<char> > >, true>, std::__ndk1::__unordered_map_equal<std::__ndk1::basic_string<char, std::__ndk1::char_traits<char>, std::__ndk1::allocator<char> >, std::__ndk1::__hash_value_type<std::__ndk1::basic_string<char, std::__ndk1::char_traits<char>, std::__ndk1::allocator<char> >, short>, std::__ndk1::equal_to<std::__ndk1::basic_string<char, std::__ndk1::char_traits<char>, std::__ndk1::allocator<char> > >, std::__ndk1::hash<std::__ndk1::basic_string<char, std::__ndk1::char_traits<char>, std::__ndk1::allocator<char> > >, true>, std::__ndk1::allocator<std::__ndk1::__hash_value_type<std::__ndk1::basic_string<char, std::__ndk1::char_traits<char>, std::__ndk1::allocator<char> >, short> > >::find<std::__ndk1::basic_string<char, std::__ndk1::char_traits<char>, std::__ndk1::allocator<char> > >(std::__ndk1::basic_string<char, std::__ndk1::char_traits<char>, std::__ndk1::allocator<char> > const&)
PUBLIC 5e7d8 0 RemovedNamedIDEvent::~RemovedNamedIDEvent()
PUBLIC 5e81c 0 std::__ndk1::__hash_table<std::__ndk1::__hash_value_type<std::__ndk1::basic_string<char, std::__ndk1::char_traits<char>, std::__ndk1::allocator<char> >, short>, std::__ndk1::__unordered_map_hasher<std::__ndk1::basic_string<char, std::__ndk1::char_traits<char>, std::__ndk1::allocator<char> >, std::__ndk1::__hash_value_type<std::__ndk1::basic_string<char, std::__ndk1::char_traits<char>, std::__ndk1::allocator<char> >, short>, std::__ndk1::hash<std::__ndk1::basic_string<char, std::__ndk1::char_traits<char>, std::__ndk1::allocator<char> > >, std::__ndk1::equal_to<std::__ndk1::basic_string<char, std::__ndk1::char_traits<char>, std::__ndk1::allocator<char> > >, true>, std::__ndk1::__unordered_map_equal<std::__ndk1::basic_string<char, std::__ndk1::char_traits<char>, std::__ndk1::allocator<char> >, std::__ndk1::__hash_value_type<std::__ndk1::basic_string<char, std::__ndk1::char_traits<char>, std::__ndk1::allocator<char> >, short>, std::__ndk1::equal_to<std::__ndk1::basic_string<char, std::__ndk1::char_traits<char>, std::__ndk1::allocator<char> > >, std::__ndk1::hash<std::__ndk1::basic_string<char, std::__ndk1::char_traits<char>, std::__ndk1::allocator<char> > >, true>, std::__ndk1::allocator<std::__ndk1::__hash_value_type<std::__ndk1::basic_string<char, std::__ndk1::char_traits<char>, std::__ndk1::allocator<char> >, short> > >::__move_assign(std::__ndk1::__hash_table<std::__ndk1::__hash_value_type<std::__ndk1::basic_string<char, std::__ndk1::char_traits<char>, std::__ndk1::allocator<char> >, short>, std::__ndk1::__unordered_map_hasher<std::__ndk1::basic_string<char, std::__ndk1::char_traits<char>, std::__ndk1::allocator<char> >, std::__ndk1::__hash_value_type<std::__ndk1::basic_string<char, std::__ndk1::char_traits<char>, std::__ndk1::allocator<char> >, short>, std::__ndk1::hash<std::__ndk1::basic_string<char, std::__ndk1::char_traits<char>, std::__ndk1::allocator<char> > >, std::__ndk1::equal_to<std::__ndk1::basic_string<char, std::__ndk1::char_traits<char>, std::__ndk1::allocator<char> > >, true>, std::__ndk1::__unordered_map_equal<std::__ndk1::basic_string<char, std::__ndk1::char_traits<char>, std::__ndk1::allocator<char> >, std::__ndk1::__hash_value_type<std::__ndk1::basic_string<char, std::__ndk1::char_traits<char>, std::__ndk1::allocator<char> >, short>, std::__ndk1::equal_to<std::__ndk1::basic_string<char, std::__ndk1::char_traits<char>, std::__ndk1::allocator<char> > >, std::__ndk1::hash<std::__ndk1::basic_string<char, std::__ndk1::char_traits<char>, std::__ndk1::allocator<char> > >, true>, std::__ndk1::allocator<std::__ndk1::__hash_value_type<std::__ndk1::basic_string<char, std::__ndk1::char_traits<char>, std::__ndk1::allocator<char> >, short> > >&, std::__ndk1::integral_constant<bool, true>)
PUBLIC 5e930 0 std::__ndk1::__hash_table<std::__ndk1::__hash_value_type<std::__ndk1::basic_string<char, std::__ndk1::char_traits<char>, std::__ndk1::allocator<char> >, short>, std::__ndk1::__unordered_map_hasher<std::__ndk1::basic_string<char, std::__ndk1::char_traits<char>, std::__ndk1::allocator<char> >, std::__ndk1::__hash_value_type<std::__ndk1::basic_string<char, std::__ndk1::char_traits<char>, std::__ndk1::allocator<char> >, short>, std::__ndk1::hash<std::__ndk1::basic_string<char, std::__ndk1::char_traits<char>, std::__ndk1::allocator<char> > >, std::__ndk1::equal_to<std::__ndk1::basic_string<char, std::__ndk1::char_traits<char>, std::__ndk1::allocator<char> > >, true>, std::__ndk1::__unordered_map_equal<std::__ndk1::basic_string<char, std::__ndk1::char_traits<char>, std::__ndk1::allocator<char> >, std::__ndk1::__hash_value_type<std::__ndk1::basic_string<char, std::__ndk1::char_traits<char>, std::__ndk1::allocator<char> >, short>, std::__ndk1::equal_to<std::__ndk1::basic_string<char, std::__ndk1::char_traits<char>, std::__ndk1::allocator<char> > >, std::__ndk1::hash<std::__ndk1::basic_string<char, std::__ndk1::char_traits<char>, std::__ndk1::allocator<char> > >, true>, std::__ndk1::allocator<std::__ndk1::__hash_value_type<std::__ndk1::basic_string<char, std::__ndk1::char_traits<char>, std::__ndk1::allocator<char> >, short> > >::remove(std::__ndk1::__hash_const_iterator<std::__ndk1::__hash_node<std::__ndk1::__hash_value_type<std::__ndk1::basic_string<char, std::__ndk1::char_traits<char>, std::__ndk1::allocator<char> >, short>, void*>*>)
PUBLIC 5ea64 0 std::__ndk1::__hash_table<std::__ndk1::__hash_value_type<std::__ndk1::basic_string<char, std::__ndk1::char_traits<char>, std::__ndk1::allocator<char> >, short>, std::__ndk1::__unordered_map_hasher<std::__ndk1::basic_string<char, std::__ndk1::char_traits<char>, std::__ndk1::allocator<char> >, std::__ndk1::__hash_value_type<std::__ndk1::basic_string<char, std::__ndk1::char_traits<char>, std::__ndk1::allocator<char> >, short>, std::__ndk1::hash<std::__ndk1::basic_string<char, std::__ndk1::char_traits<char>, std::__ndk1::allocator<char> > >, std::__ndk1::equal_to<std::__ndk1::basic_string<char, std::__ndk1::char_traits<char>, std::__ndk1::allocator<char> > >, true>, std::__ndk1::__unordered_map_equal<std::__ndk1::basic_string<char, std::__ndk1::char_traits<char>, std::__ndk1::allocator<char> >, std::__ndk1::__hash_value_type<std::__ndk1::basic_string<char, std::__ndk1::char_traits<char>, std::__ndk1::allocator<char> >, short>, std::__ndk1::equal_to<std::__ndk1::basic_string<char, std::__ndk1::char_traits<char>, std::__ndk1::allocator<char> > >, std::__ndk1::hash<std::__ndk1::basic_string<char, std::__ndk1::char_traits<char>, std::__ndk1::allocator<char> > >, true>, std::__ndk1::allocator<std::__ndk1::__hash_value_type<std::__ndk1::basic_string<char, std::__ndk1::char_traits<char>, std::__ndk1::allocator<char> >, short> > >::__emplace_unique_key_args<std::__ndk1::basic_string<char, std::__ndk1::char_traits<char>, std::__ndk1::allocator<char> >, std::__ndk1::piecewise_construct_t const&, std::__ndk1::tuple<std::__ndk1::basic_string<char, std::__ndk1::char_traits<char>, std::__ndk1::allocator<char> >&&>, std::__ndk1::tuple<> >(std::__ndk1::basic_string<char, std::__ndk1::char_traits<char>, std::__ndk1::allocator<char> > const&, std::__ndk1::piecewise_construct_t const&, std::__ndk1::tuple<std::__ndk1::basic_string<char, std::__ndk1::char_traits<char>, std::__ndk1::allocator<char> >&&>, std::__ndk1::tuple<>)
PUBLIC 5eecc 0 std::__ndk1::__hash_table<std::__ndk1::__hash_value_type<std::__ndk1::basic_string<char, std::__ndk1::char_traits<char>, std::__ndk1::allocator<char> >, short>, std::__ndk1::__unordered_map_hasher<std::__ndk1::basic_string<char, std::__ndk1::char_traits<char>, std::__ndk1::allocator<char> >, std::__ndk1::__hash_value_type<std::__ndk1::basic_string<char, std::__ndk1::char_traits<char>, std::__ndk1::allocator<char> >, short>, std::__ndk1::hash<std::__ndk1::basic_string<char, std::__ndk1::char_traits<char>, std::__ndk1::allocator<char> > >, std::__ndk1::equal_to<std::__ndk1::basic_string<char, std::__ndk1::char_traits<char>, std::__ndk1::allocator<char> > >, true>, std::__ndk1::__unordered_map_equal<std::__ndk1::basic_string<char, std::__ndk1::char_traits<char>, std::__ndk1::allocator<char> >, std::__ndk1::__hash_value_type<std::__ndk1::basic_string<char, std::__ndk1::char_traits<char>, std::__ndk1::allocator<char> >, short>, std::__ndk1::equal_to<std::__ndk1::basic_string<char, std::__ndk1::char_traits<char>, std::__ndk1::allocator<char> > >, std::__ndk1::hash<std::__ndk1::basic_string<char, std::__ndk1::char_traits<char>, std::__ndk1::allocator<char> > >, true>, std::__ndk1::allocator<std::__ndk1::__hash_value_type<std::__ndk1::basic_string<char, std::__ndk1::char_traits<char>, std::__ndk1::allocator<char> >, short> > >::__do_rehash<true>(unsigned long)
PUBLIC 5f078 0 _GLOBAL__sub_I_NIDManager.cpp
PUBLIC 5f108 0 geode::utils::numFromString<short>(std::__ndk1::basic_string_view<char, std::__ndk1::char_traits<char> >, int)
PUBLIC 5f3a4 0 geode::impl::ResultData<short, std::__ndk1::basic_string<char, std::__ndk1::char_traits<char>, std::__ndk1::allocator<char> > >::~ResultData()
PUBLIC 5f418 0 NamedIDs::dump() const
PUBLIC 5f4bc 0 NamedIDs::from(std::__ndk1::basic_string_view<char, std::__ndk1::char_traits<char> >)
PUBLIC 5f938 0 _ZNSt6__ndk121__from_chars_integralB8ne190000IsTnNS_9enable_ifIXsr9is_signedIT_EE5valueEiE4typeELi0EEENS_17from_chars_resultEPKcS7_RS2_i
PUBLIC 5fd30 0 _ZNSt6__ndk124__subject_seq_combinatorB8ne190000IPKctZNS_21__from_chars_integralB8ne190000ItTnNS_9enable_ifIXsr11is_unsignedIT_EE5valueEiE4typeELi0EEENS_17from_chars_resultES2_S2_RS5_iEUlS2_S2_RtiE_JiEEES8_S5_S5_RT0_T1_DpT2_
PUBLIC 5fee0 0 _ZZNSt6__ndk121__from_chars_integralB8ne190000ItTnNS_9enable_ifIXsr11is_unsignedIT_EE5valueEiE4typeELi0EEENS_17from_chars_resultEPKcS7_RS2_iENKUlS7_S7_RtiE_clES7_S7_S9_i
PUBLIC 60150 0 fmt::v11::detail::value<fmt::v11::context>::format_custom_arg<fmt::v11::join_view<std::__ndk1::ranges::transform_view[abi:llvm18_nua]<std::__ndk1::ranges::ref_view<std::__ndk1::unordered_map<std::__ndk1::basic_string<char, std::__ndk1::char_traits<char>, std::__ndk1::allocator<char> >, short, std::__ndk1::hash<std::__ndk1::allocator<char> >, std::__ndk1::equal_to<std::__ndk1::allocator<char> >, std::__ndk1::char_traits<char><std::__ndk1::pair<std::__ndk1::allocator<char> const, short> > > const>, NamedIDs::dump() const::$_0>::__iterator<false>, std::__ndk1::ranges::transform_view[abi:llvm18_nua]<std::__ndk1::ranges::ref_view<std::__ndk1::unordered_map<std::__ndk1::basic_string<char, std::__ndk1::char_traits<char>, std::__ndk1::allocator<char> >, short, std::__ndk1::hash<std::__ndk1::allocator<char> >, std::__ndk1::equal_to<std::__ndk1::allocator<char> >, std::__ndk1::char_traits<char><std::__ndk1::pair<std::__ndk1::allocator<char> const, short> > > const>, NamedIDs::dump() const::$_0>::__iterator, char>, fmt::v11::formatter<std::__ndk1::ranges::transform_view[abi:llvm18_nua]<std::__ndk1::ranges::ref_view<std::__ndk1::unordered_map<std::__ndk1::basic_string<char, std::__ndk1::char_traits<char>, std::__ndk1::allocator<char> >, short, std::__ndk1::hash<std::__ndk1::allocator<char> >, std::__ndk1::equal_to<std::__ndk1::allocator<char> >, std::__ndk1::char_traits<char><std::__ndk1::pair<std::__ndk1::allocator<char> const, short> > > const>, NamedIDs::dump() const::$_0>::__iterator<false>, char, void> >(void*, fmt::v11::basic_format_parse_context<char>&, fmt::v11::context&)
PUBLIC 605dc 0 fmt::v11::detail::parse_format_specs<char>(char const*, char const*, fmt::v11::detail::dynamic_format_specs<char>&, fmt::v11::basic_format_parse_context<char>&, fmt::v11::detail::type)
PUBLIC 60a90 0 fmt::v11::detail::parse_dynamic_spec<char>(char const*, char const*, int&, fmt::v11::detail::arg_ref<char>&, fmt::v11::basic_format_parse_context<char>&)
PUBLIC 60c34 0 fmt::v11::detail::do_parse_arg_id<char, fmt::v11::detail::dynamic_spec_id_handler<char>&>(char const*, char const*, fmt::v11::detail::dynamic_spec_id_handler<char>&)
PUBLIC 60dcc 0 fmt::v11::detail::handle_dynamic_spec<fmt::v11::detail::width_checker, fmt::v11::context>(int&, fmt::v11::detail::arg_ref<fmt::v11::context::char_type>, fmt::v11::context&)
PUBLIC 60ee0 0 fmt::v11::detail::handle_dynamic_spec<fmt::v11::detail::precision_checker, fmt::v11::context>(int&, fmt::v11::detail::arg_ref<fmt::v11::context::char_type>, fmt::v11::context&)
PUBLIC 60ff4 0 fmt::v11::detail::write<char, fmt::v11::basic_appender<char> >(fmt::v11::basic_appender<char>, fmt::v11::basic_string_view<char>, fmt::v11::format_specs const&)
PUBLIC 61270 0 fmt::v11::detail::write_escaped_string<char, fmt::v11::detail::counting_iterator>(fmt::v11::detail::counting_iterator, fmt::v11::basic_string_view<char>)
PUBLIC 61754 0 fmt::v11::detail::write_padded<char, (fmt::v11::align::type)1, fmt::v11::basic_appender<char>, fmt::v11::detail::write<char, fmt::v11::basic_appender<char> >(fmt::v11::basic_appender<char>, fmt::v11::basic_string_view<char>, fmt::v11::format_specs const&)::{lambda(fmt::v11::basic_appender<char>)#1}>(fmt::v11::basic_appender<char>, fmt::v11::format_specs const&, unsigned long, unsigned long, fmt::v11::detail::write<char, fmt::v11::basic_appender<char> >(fmt::v11::basic_appender<char>, fmt::v11::basic_string_view<char>, fmt::v11::format_specs const&)::{lambda(fmt::v11::basic_appender<char>&&)#1})
PUBLIC 61960 0 fmt::v11::detail::for_each_codepoint<fmt::v11::detail::code_point_index(fmt::v11::basic_string_view<char>, unsigned long)::{lambda(unsigned int, fmt::v11::basic_string_view<char>)#1}>(fmt::v11::basic_string_view<char>, fmt::v11::detail::code_point_index(fmt::v11::basic_string_view<char>, unsigned long)::{lambda(unsigned int, fmt::v11::basic_string_view<char>)#1})
PUBLIC 61d54 0 fmt::v11::detail::write_escaped_cp<fmt::v11::detail::counting_iterator, char>(fmt::v11::detail::counting_iterator, fmt::v11::detail::find_escape_result<char> const&)
PUBLIC 61ee8 0 fmt::v11::detail::for_each_codepoint<fmt::v11::detail::compute_width(fmt::v11::basic_string_view<char>)::count_code_points>(fmt::v11::basic_string_view<char>, fmt::v11::detail::compute_width(fmt::v11::basic_string_view<char>)::count_code_points)::{lambda(char const*, char const*)#1}::operator()(char const*, char const*) const
PUBLIC 620a0 0 fmt::v11::detail::fill<char, fmt::v11::basic_appender<char> >(fmt::v11::basic_appender<char>, unsigned long, fmt::v11::detail::fill_t const&)
PUBLIC 62270 0 fmt::v11::detail::write_escaped_string<char, fmt::v11::basic_appender<char> >(fmt::v11::basic_appender<char>, fmt::v11::basic_string_view<char>)
PUBLIC 628b8 0 fmt::v11::detail::write_escaped_cp<fmt::v11::basic_appender<char>, char>(fmt::v11::basic_appender<char>, fmt::v11::detail::find_escape_result<char> const&)
PUBLIC 62a9c 0 fmt::v11::detail::write_codepoint<(unsigned long)2, char, fmt::v11::basic_appender<char> >(fmt::v11::basic_appender<char>, char, unsigned int)
PUBLIC 62c14 0 fmt::v11::detail::write_codepoint<(unsigned long)4, char, fmt::v11::basic_appender<char> >(fmt::v11::basic_appender<char>, char, unsigned int)
PUBLIC 62d8c 0 fmt::v11::detail::write_codepoint<(unsigned long)8, char, fmt::v11::basic_appender<char> >(fmt::v11::basic_appender<char>, char, unsigned int)
PUBLIC 62f04 0 fmt::v11::detail::get_dynamic_spec<fmt::v11::detail::width_checker, fmt::v11::basic_format_arg<fmt::v11::context> >(fmt::v11::basic_format_arg<fmt::v11::context>)
PUBLIC 62f98 0 fmt::v11::basic_format_args<fmt::v11::context>::get<char>(fmt::v11::basic_string_view<char>) const
PUBLIC 630cc 0 fmt::v11::detail::get_dynamic_spec<fmt::v11::detail::precision_checker, fmt::v11::basic_format_arg<fmt::v11::context> >(fmt::v11::basic_format_arg<fmt::v11::context>)
PUBLIC 63160 0 __aarch64_ldadd8_relax
PUBLIC 63190 0 init_have_lse_atomics
PUBLIC 63228 0 __init_cpu_features_constructor
PUBLIC 634d4 0 __init_cpu_features
PUBLIC 63560 0 __aarch64_ldadd8_acq_rel
PUBLIC 63590 0 __cxx_global_var_init
PUBLIC 66480 0 _GLOBAL__sub_I_LevelEditorLayerData.cpp
PUBLIC 66484 0 std::__ndk1::pair<unsigned short const, std::__ndk1::unordered_map<unsigned short, NID, std::__ndk1::hash<unsigned short>, std::__ndk1::equal_to<unsigned short>, std::__ndk1::allocator<std::__ndk1::pair<unsigned short const, NID> > > const>::~pair()
PUBLIC 664d0 0 std::__ndk1::unordered_map<unsigned short, NID, std::__ndk1::hash<unsigned short>, std::__ndk1::equal_to<unsigned short>, std::__ndk1::allocator<std::__ndk1::pair<unsigned short const, NID> > >::~unordered_map[abi:ne190000]()
PUBLIC 6651c 0 std::__ndk1::unordered_map<unsigned short, std::__ndk1::unordered_map<unsigned short, NID, std::__ndk1::hash<unsigned short>, std::__ndk1::equal_to<unsigned short>, std::__ndk1::allocator<std::__ndk1::pair<unsigned short const, NID> > > const, std::__ndk1::hash<unsigned short>, std::__ndk1::equal_to<unsigned short>, std::__ndk1::allocator<std::__ndk1::pair<unsigned short const, std::__ndk1::unordered_map<unsigned short, NID, std::__ndk1::hash<unsigned short>, std::__ndk1::equal_to<unsigned short>, std::__ndk1::allocator<std::__ndk1::pair<unsigned short const, NID> > > const> > >::~unordered_map[abi:ne190000]()
PUBLIC 665a4 0 LevelEditorLayerData::createObjectsFromSetup(gd::string&)
PUBLIC 66800 0 LevelEditorLayerData::createSaveObject()
PUBLIC 66918 0 EditorPauseLayerSave::saveLevel()
PUBLIC 66a0c 0 __cxx_global_var_init.7
PUBLIC 66a6c 0 geode::modifier::ModifyBase<geode::modifier::ModifyDerive<LevelEditorLayerData, LevelEditorLayer> >::~ModifyBase()
PUBLIC 66a88 0 __cxx_global_var_init.8
PUBLIC 66ae8 0 geode::modifier::ModifyBase<geode::modifier::ModifyDerive<EditorPauseLayerSave, EditorPauseLayer> >::~ModifyBase()
PUBLIC 66b04 0 std::__ndk1::unordered_map<unsigned short, NID, std::__ndk1::hash<unsigned short>, std::__ndk1::equal_to<unsigned short>, std::__ndk1::allocator<std::__ndk1::pair<unsigned short const, NID> > >::unordered_map(std::__ndk1::unordered_map<unsigned short, NID, std::__ndk1::hash<unsigned short>, std::__ndk1::equal_to<unsigned short>, std::__ndk1::allocator<std::__ndk1::pair<unsigned short const, NID> > > const&)
PUBLIC 66c40 0 std::__ndk1::__hash_table<std::__ndk1::__hash_value_type<unsigned short, NID>, std::__ndk1::__unordered_map_hasher<unsigned short, std::__ndk1::__hash_value_type<unsigned short, NID>, std::__ndk1::hash<unsigned short>, std::__ndk1::equal_to<unsigned short>, true>, std::__ndk1::__unordered_map_equal<unsigned short, std::__ndk1::__hash_value_type<unsigned short, NID>, std::__ndk1::equal_to<unsigned short>, std::__ndk1::hash<unsigned short>, true>, std::__ndk1::allocator<std::__ndk1::__hash_value_type<unsigned short, NID> > >::~__hash_table()
PUBLIC 66c8c 0 std::__ndk1::__hash_table<std::__ndk1::__hash_value_type<unsigned short, NID>, std::__ndk1::__unordered_map_hasher<unsigned short, std::__ndk1::__hash_value_type<unsigned short, NID>, std::__ndk1::hash<unsigned short>, std::__ndk1::equal_to<unsigned short>, true>, std::__ndk1::__unordered_map_equal<unsigned short, std::__ndk1::__hash_value_type<unsigned short, NID>, std::__ndk1::equal_to<unsigned short>, std::__ndk1::hash<unsigned short>, true>, std::__ndk1::allocator<std::__ndk1::__hash_value_type<unsigned short, NID> > >::__do_rehash<true>(unsigned long)
PUBLIC 66e38 0 std::__ndk1::__hash_table<std::__ndk1::__hash_value_type<unsigned short, NID>, std::__ndk1::__unordered_map_hasher<unsigned short, std::__ndk1::__hash_value_type<unsigned short, NID>, std::__ndk1::hash<unsigned short>, std::__ndk1::equal_to<unsigned short>, true>, std::__ndk1::__unordered_map_equal<unsigned short, std::__ndk1::__hash_value_type<unsigned short, NID>, std::__ndk1::equal_to<unsigned short>, std::__ndk1::hash<unsigned short>, true>, std::__ndk1::allocator<std::__ndk1::__hash_value_type<unsigned short, NID> > >::__emplace_unique_key_args<unsigned short, std::__ndk1::pair<unsigned short const, NID> const&>(unsigned short const&, std::__ndk1::pair<unsigned short const, NID> const&)
PUBLIC 67140 0 geode::modifier::ModifyBase<geode::modifier::ModifyDerive<LevelEditorLayerData, LevelEditorLayer> >::ModifyBase()
PUBLIC 6752c 0 geode::modifier::ModifyDerive<LevelEditorLayerData, LevelEditorLayer>::apply()
PUBLIC 677c8 0 std::__ndk1::shared_ptr<geode::Hook>::~shared_ptr[abi:ne190000]()
PUBLIC 67818 0 geode::impl::ResultData<geode::Hook*, std::__ndk1::basic_string<char, std::__ndk1::char_traits<char>, std::__ndk1::allocator<char> > >::~ResultData()
PUBLIC 6788c 0 std::__ndk1::vector<std::__ndk1::basic_string<char, std::__ndk1::char_traits<char>, std::__ndk1::allocator<char> >, std::__ndk1::allocator<std::__ndk1::basic_string<char, std::__ndk1::char_traits<char>, std::__ndk1::allocator<char> > > >::~vector[abi:ne190000]()
PUBLIC 67908 0 geode::modifier::ModifyBase<geode::modifier::ModifyDerive<LevelEditorLayerData, LevelEditorLayer> >::apply()
PUBLIC 6790c 0 _ZN5geode15UnwrapExceptionC2IRPNS_4HookEQsr4implE18IsStringStreamableIT_EEENS_4impl5OkTagEOS5_
PUBLIC 67a60 0 std::__ndk1::vector<std::__ndk1::basic_string<char, std::__ndk1::char_traits<char>, std::__ndk1::allocator<char> >, std::__ndk1::allocator<std::__ndk1::basic_string<char, std::__ndk1::char_traits<char>, std::__ndk1::allocator<char> > > >::__push_back_slow_path<std::__ndk1::basic_string<char, std::__ndk1::char_traits<char>, std::__ndk1::allocator<char> > const&>(std::__ndk1::basic_string<char, std::__ndk1::char_traits<char>, std::__ndk1::allocator<char> > const&)
PUBLIC 67c10 0 std::__ndk1::__split_buffer<std::__ndk1::basic_string<char, std::__ndk1::char_traits<char>, std::__ndk1::allocator<char> >, std::__ndk1::allocator<std::__ndk1::basic_string<char, std::__ndk1::char_traits<char>, std::__ndk1::allocator<char> > >&>::~__split_buffer()
PUBLIC 67c78 0 std::__ndk1::vector<std::__ndk1::basic_string<char, std::__ndk1::char_traits<char>, std::__ndk1::allocator<char> >, std::__ndk1::allocator<std::__ndk1::basic_string<char, std::__ndk1::char_traits<char>, std::__ndk1::allocator<char> > > >::__throw_length_error[abi:ne190000]() const
PUBLIC 67c8c 0 std::__ndk1::__variant_detail::__visitation::__base::__dispatcher<(unsigned long)0>::__dispatch[abi:ne190000]<std::__ndk1::__variant_detail::__dtor<std::__ndk1::__variant_detail::__traits<geode::Hook*, std::__ndk1::basic_string<char, std::__ndk1::char_traits<char>, std::__ndk1::allocator<char> > >, (std::__ndk1::__variant_detail::_Trait)1>::__destroy[abi:ne190000]()::{lambda(auto:1&)#1}, std::__ndk1::__variant_detail::__base<(std::__ndk1::__variant_detail::__traits<geode::Hook*, std::__ndk1::basic_string<char, std::__ndk1::char_traits<char>, std::__ndk1::allocator<char> > >)1, geode::Hook, std::__ndk1::allocator<char> >&>(std::__ndk1::__variant_detail::__dtor<std::__ndk1::__variant_detail::__traits<geode::Hook*, std::__ndk1::basic_string<char, std::__ndk1::char_traits<char>, std::__ndk1::allocator<char> > >, (std::__ndk1::__variant_detail::_Trait)1>, std::__ndk1::__variant_detail::__base<(std::__ndk1::__variant_detail::__traits<geode::Hook*, std::__ndk1::basic_string<char, std::__ndk1::char_traits<char>, std::__ndk1::allocator<char> > >)1, geode::Hook, std::__ndk1::allocator<char> >&)
PUBLIC 67c90 0 std::__ndk1::__variant_detail::__visitation::__base::__dispatcher<(unsigned long)1>::__dispatch[abi:ne190000]<std::__ndk1::__variant_detail::__dtor<std::__ndk1::__variant_detail::__traits<geode::Hook*, std::__ndk1::basic_string<char, std::__ndk1::char_traits<char>, std::__ndk1::allocator<char> > >, (std::__ndk1::__variant_detail::_Trait)1>::__destroy[abi:ne190000]()::{lambda(auto:1&)#1}, std::__ndk1::__variant_detail::__base<(std::__ndk1::__variant_detail::__traits<geode::Hook*, std::__ndk1::basic_string<char, std::__ndk1::char_traits<char>, std::__ndk1::allocator<char> > >)1, geode::Hook, std::__ndk1::allocator<char> >&>(std::__ndk1::__variant_detail::__dtor<std::__ndk1::__variant_detail::__traits<geode::Hook*, std::__ndk1::basic_string<char, std::__ndk1::char_traits<char>, std::__ndk1::allocator<char> > >, (std::__ndk1::__variant_detail::_Trait)1>, std::__ndk1::__variant_detail::__base<(std::__ndk1::__variant_detail::__traits<geode::Hook*, std::__ndk1::basic_string<char, std::__ndk1::char_traits<char>, std::__ndk1::allocator<char> > >)1, geode::Hook, std::__ndk1::allocator<char> >&)
PUBLIC 67ca4 0 std::__ndk1::__tree<std::__ndk1::__value_type<std::__ndk1::basic_string<char, std::__ndk1::char_traits<char>, std::__ndk1::allocator<char> >, std::__ndk1::shared_ptr<geode::Hook> >, std::__ndk1::__map_value_compare<std::__ndk1::basic_string<char, std::__ndk1::char_traits<char>, std::__ndk1::allocator<char> >, std::__ndk1::__value_type<std::__ndk1::basic_string<char, std::__ndk1::char_traits<char>, std::__ndk1::allocator<char> >, std::__ndk1::shared_ptr<geode::Hook> >, std::__ndk1::less<std::__ndk1::basic_string<char, std::__ndk1::char_traits<char>, std::__ndk1::allocator<char> > >, true>, std::__ndk1::allocator<std::__ndk1::__value_type<std::__ndk1::basic_string<char, std::__ndk1::char_traits<char>, std::__ndk1::allocator<char> >, std::__ndk1::shared_ptr<geode::Hook> > > >::find<std::__ndk1::basic_string<char, std::__ndk1::char_traits<char>, std::__ndk1::allocator<char> > >(std::__ndk1::basic_string<char, std::__ndk1::char_traits<char>, std::__ndk1::allocator<char> > const&)
PUBLIC 67dcc 0 std::__ndk1::__tree<std::__ndk1::__value_type<std::__ndk1::basic_string<char, std::__ndk1::char_traits<char>, std::__ndk1::allocator<char> >, std::__ndk1::shared_ptr<geode::Hook> >, std::__ndk1::__map_value_compare<std::__ndk1::basic_string<char, std::__ndk1::char_traits<char>, std::__ndk1::allocator<char> >, std::__ndk1::__value_type<std::__ndk1::basic_string<char, std::__ndk1::char_traits<char>, std::__ndk1::allocator<char> >, std::__ndk1::shared_ptr<geode::Hook> >, std::__ndk1::less<std::__ndk1::basic_string<char, std::__ndk1::char_traits<char>, std::__ndk1::allocator<char> > >, true>, std::__ndk1::allocator<std::__ndk1::__value_type<std::__ndk1::basic_string<char, std::__ndk1::char_traits<char>, std::__ndk1::allocator<char> >, std::__ndk1::shared_ptr<geode::Hook> > > >::erase(std::__ndk1::__tree_const_iterator<std::__ndk1::__value_type<std::__ndk1::basic_string<char, std::__ndk1::char_traits<char>, std::__ndk1::allocator<char> >, std::__ndk1::shared_ptr<geode::Hook> >, std::__ndk1::__tree_node<std::__ndk1::__value_type<std::__ndk1::basic_string<char, std::__ndk1::char_traits<char>, std::__ndk1::allocator<char> >, std::__ndk1::shared_ptr<geode::Hook> >, void*>*, long>)
PUBLIC 67ea0 0 std::__ndk1::__tree_remove[abi:ne190000]<std::__ndk1::__tree_node_base<void*>*>(std::__ndk1::__tree_node_base<void*>*, std::__ndk1::__tree_node_base<void*>*)
PUBLIC 68268 0 std::__ndk1::__tree<std::__ndk1::__value_type<std::__ndk1::basic_string<char, std::__ndk1::char_traits<char>, std::__ndk1::allocator<char> >, std::__ndk1::shared_ptr<geode::Hook> >, std::__ndk1::__map_value_compare<std::__ndk1::basic_string<char, std::__ndk1::char_traits<char>, std::__ndk1::allocator<char> >, std::__ndk1::__value_type<std::__ndk1::basic_string<char, std::__ndk1::char_traits<char>, std::__ndk1::allocator<char> >, std::__ndk1::shared_ptr<geode::Hook> >, std::__ndk1::less<std::__ndk1::basic_string<char, std::__ndk1::char_traits<char>, std::__ndk1::allocator<char> > >, true>, std::__ndk1::allocator<std::__ndk1::__value_type<std::__ndk1::basic_string<char, std::__ndk1::char_traits<char>, std::__ndk1::allocator<char> >, std::__ndk1::shared_ptr<geode::Hook> > > >::destroy(std::__ndk1::__tree_node<std::__ndk1::__value_type<std::__ndk1::basic_string<char, std::__ndk1::char_traits<char>, std::__ndk1::allocator<char> >, std::__ndk1::shared_ptr<geode::Hook> >, void*>*)
PUBLIC 682f4 0 geode::Hook::create<void (*)(LevelEditorLayerData*, gd::string&)>(void*, void (*)(LevelEditorLayerData*, gd::string&), std::__ndk1::basic_string<char, std::__ndk1::char_traits<char>, std::__ndk1::allocator<char> > const&, tulip::hook::TulipConvention, tulip::hook::HookMetadata const&)
PUBLIC 68478 0 geode::modifier::AsStaticFunction_createObjectsFromSetup<LevelEditorLayerData, void (LevelEditorLayerData::*)(gd::string&)>::Impl<void (LevelEditorLayerData::*)(gd::string&)>::function(LevelEditorLayerData*, gd::string&)
PUBLIC 6847c 0 std::__ndk1::shared_ptr<tulip::hook::CallingConvention>::~shared_ptr[abi:ne190000]()
PUBLIC 684cc 0 tulip::hook::HandlerMetadata::~HandlerMetadata()
PUBLIC 68530 0 std::__ndk1::__tree<std::__ndk1::__value_type<std::__ndk1::basic_string<char, std::__ndk1::char_traits<char>, std::__ndk1::allocator<char> >, std::__ndk1::shared_ptr<geode::Hook> >, std::__ndk1::__map_value_compare<std::__ndk1::basic_string<char, std::__ndk1::char_traits<char>, std::__ndk1::allocator<char> >, std::__ndk1::__value_type<std::__ndk1::basic_string<char, std::__ndk1::char_traits<char>, std::__ndk1::allocator<char> >, std::__ndk1::shared_ptr<geode::Hook> >, std::__ndk1::less<std::__ndk1::basic_string<char, std::__ndk1::char_traits<char>, std::__ndk1::allocator<char> > >, true>, std::__ndk1::allocator<std::__ndk1::__value_type<std::__ndk1::basic_string<char, std::__ndk1::char_traits<char>, std::__ndk1::allocator<char> >, std::__ndk1::shared_ptr<geode::Hook> > > >::__emplace_unique_key_args<std::__ndk1::basic_string<char, std::__ndk1::char_traits<char>, std::__ndk1::allocator<char> >, std::__ndk1::piecewise_construct_t const&, std::__ndk1::tuple<std::__ndk1::basic_string<char, std::__ndk1::char_traits<char>, std::__ndk1::allocator<char> >&&>, std::__ndk1::tuple<> >(std::__ndk1::basic_string<char, std::__ndk1::char_traits<char>, std::__ndk1::allocator<char> > const&, std::__ndk1::piecewise_construct_t const&, std::__ndk1::tuple<std::__ndk1::basic_string<char, std::__ndk1::char_traits<char>, std::__ndk1::allocator<char> >&&>, std::__ndk1::tuple<>)
PUBLIC 686a8 0 std::__ndk1::__tree_balance_after_insert[abi:ne190000]<std::__ndk1::__tree_node_base<void*>*>(std::__ndk1::__tree_node_base<void*>*, std::__ndk1::__tree_node_base<void*>*)
PUBLIC 68850 0 geode::modifier::ModifyBase<geode::modifier::ModifyDerive<EditorPauseLayerSave, EditorPauseLayer> >::ModifyBase()
PUBLIC 68c3c 0 geode::modifier::ModifyDerive<EditorPauseLayerSave, EditorPauseLayer>::apply()
PUBLIC 690b0 0 geode::modifier::ModifyBase<geode::modifier::ModifyDerive<EditorPauseLayerSave, EditorPauseLayer> >::apply()
PUBLIC 690b4 0 geode::Hook::create<void (*)(EditorPauseLayerSave*, cocos2d::CCObject*)>(void*, void (*)(EditorPauseLayerSave*, cocos2d::CCObject*), std::__ndk1::basic_string<char, std::__ndk1::char_traits<char>, std::__ndk1::allocator<char> > const&, tulip::hook::TulipConvention, tulip::hook::HookMetadata const&)
PUBLIC 69238 0 geode::modifier::AsStaticFunction_onExitEditor<EditorPauseLayerSave, void (EditorPauseLayerSave::*)(cocos2d::CCObject*)>::Impl<void (EditorPauseLayerSave::*)(cocos2d::CCObject*)>::function(EditorPauseLayerSave*, cocos2d::CCObject*)
PUBLIC 69264 0 geode::Hook::create<void (*)(EditorPauseLayerSave*)>(void*, void (*)(EditorPauseLayerSave*), std::__ndk1::basic_string<char, std::__ndk1::char_traits<char>, std::__ndk1::allocator<char> > const&, tulip::hook::TulipConvention, tulip::hook::HookMetadata const&)
PUBLIC 69398 0 geode::modifier::AsStaticFunction_saveLevel<EditorPauseLayerSave, void (EditorPauseLayerSave::*)()>::Impl<void (EditorPauseLayerSave::*)()>::function(EditorPauseLayerSave*)
PUBLIC 6939c 0 std::__ndk1::__hash_table<std::__ndk1::__hash_value_type<unsigned short, std::__ndk1::unordered_map<unsigned short, NID, std::__ndk1::hash<unsigned short>, std::__ndk1::equal_to<unsigned short>, std::__ndk1::allocator<std::__ndk1::pair<unsigned short const, NID> > > const>, std::__ndk1::__unordered_map_hasher<unsigned short, std::__ndk1::__hash_value_type<unsigned short, std::__ndk1::unordered_map<unsigned short, NID, std::__ndk1::hash<unsigned short>, std::__ndk1::equal_to<unsigned short>, std::__ndk1::allocator<std::__ndk1::pair<unsigned short const, NID> > > const>, std::__ndk1::hash<unsigned short>, std::__ndk1::equal_to<unsigned short>, true>, std::__ndk1::__unordered_map_equal<unsigned short, std::__ndk1::__hash_value_type<unsigned short, std::__ndk1::unordered_map<unsigned short, NID, std::__ndk1::hash<unsigned short>, std::__ndk1::equal_to<unsigned short>, std::__ndk1::allocator<std::__ndk1::pair<unsigned short const, NID> > > const>, std::__ndk1::equal_to<unsigned short>, std::__ndk1::hash<unsigned short>, true>, std::__ndk1::allocator<std::__ndk1::__hash_value_type<unsigned short, std::__ndk1::unordered_map<unsigned short, NID, std::__ndk1::hash<unsigned short>, std::__ndk1::equal_to<unsigned short>, std::__ndk1::allocator<std::__ndk1::pair<unsigned short const, NID> > > const> > >::~__hash_table()
PUBLIC 69424 0 std::__ndk1::__hash_table<std::__ndk1::__hash_value_type<unsigned short, std::__ndk1::unordered_map<unsigned short, NID, std::__ndk1::hash<unsigned short>, std::__ndk1::equal_to<unsigned short>, std::__ndk1::allocator<std::__ndk1::pair<unsigned short const, NID> > > const>, std::__ndk1::__unordered_map_hasher<unsigned short, std::__ndk1::__hash_value_type<unsigned short, std::__ndk1::unordered_map<unsigned short, NID, std::__ndk1::hash<unsigned short>, std::__ndk1::equal_to<unsigned short>, std::__ndk1::allocator<std::__ndk1::pair<unsigned short const, NID> > > const>, std::__ndk1::hash<unsigned short>, std::__ndk1::equal_to<unsigned short>, true>, std::__ndk1::__unordered_map_equal<unsigned short, std::__ndk1::__hash_value_type<unsigned short, std::__ndk1::unordered_map<unsigned short, NID, std::__ndk1::hash<unsigned short>, std::__ndk1::equal_to<unsigned short>, std::__ndk1::allocator<std::__ndk1::pair<unsigned short const, NID> > > const>, std::__ndk1::equal_to<unsigned short>, std::__ndk1::hash<unsigned short>, true>, std::__ndk1::allocator<std::__ndk1::__hash_value_type<unsigned short, std::__ndk1::unordered_map<unsigned short, NID, std::__ndk1::hash<unsigned short>, std::__ndk1::equal_to<unsigned short>, std::__ndk1::allocator<std::__ndk1::pair<unsigned short const, NID> > > const> > >::__emplace_unique_key_args<unsigned short, std::__ndk1::pair<unsigned short const, std::__ndk1::unordered_map<unsigned short, NID, std::__ndk1::hash<unsigned short>, std::__ndk1::equal_to<unsigned short>, std::__ndk1::allocator<std::__ndk1::pair<unsigned short const, NID> > > const> const&>(unsigned short const&, std::__ndk1::pair<unsigned short const, std::__ndk1::unordered_map<unsigned short, NID, std::__ndk1::hash<unsigned short>, std::__ndk1::equal_to<unsigned short>, std::__ndk1::allocator<std::__ndk1::pair<unsigned short const, NID> > > const> const&)
PUBLIC 697c8 0 std::__ndk1::unique_ptr<std::__ndk1::__hash_node<std::__ndk1::__hash_value_type<unsigned short, std::__ndk1::unordered_map<unsigned short, NID, std::__ndk1::hash<unsigned short>, std::__ndk1::equal_to<unsigned short>, std::__ndk1::allocator<std::__ndk1::pair<unsigned short const, NID> > > const>, void*>, std::__ndk1::__hash_node_destructor<std::__ndk1::allocator<std::__ndk1::__hash_node<std::__ndk1::__hash_value_type<unsigned short, std::__ndk1::unordered_map<unsigned short, NID, std::__ndk1::hash<unsigned short>, std::__ndk1::equal_to<unsigned short>, std::__ndk1::allocator<std::__ndk1::pair<unsigned short const, NID> > > const>, void*> > > >::~unique_ptr[abi:ne190000]()
PUBLIC 6982c 0 std::__ndk1::__hash_table<std::__ndk1::__hash_value_type<unsigned short, std::__ndk1::unordered_map<unsigned short, NID, std::__ndk1::hash<unsigned short>, std::__ndk1::equal_to<unsigned short>, std::__ndk1::allocator<std::__ndk1::pair<unsigned short const, NID> > > const>, std::__ndk1::__unordered_map_hasher<unsigned short, std::__ndk1::__hash_value_type<unsigned short, std::__ndk1::unordered_map<unsigned short, NID, std::__ndk1::hash<unsigned short>, std::__ndk1::equal_to<unsigned short>, std::__ndk1::allocator<std::__ndk1::pair<unsigned short const, NID> > > const>, std::__ndk1::hash<unsigned short>, std::__ndk1::equal_to<unsigned short>, true>, std::__ndk1::__unordered_map_equal<unsigned short, std::__ndk1::__hash_value_type<unsigned short, std::__ndk1::unordered_map<unsigned short, NID, std::__ndk1::hash<unsigned short>, std::__ndk1::equal_to<unsigned short>, std::__ndk1::allocator<std::__ndk1::pair<unsigned short const, NID> > > const>, std::__ndk1::equal_to<unsigned short>, std::__ndk1::hash<unsigned short>, true>, std::__ndk1::allocator<std::__ndk1::__hash_value_type<unsigned short, std::__ndk1::unordered_map<unsigned short, NID, std::__ndk1::hash<unsigned short>, std::__ndk1::equal_to<unsigned short>, std::__ndk1::allocator<std::__ndk1::pair<unsigned short const, NID> > > const> > >::__do_rehash<true>(unsigned long)
PUBLIC 699d8 0 __cxx_global_var_init
PUBLIC 69e48 0 geode::modifier::ModifyBase<geode::modifier::ModifyDerive<NIDLevelSettingsLayer, LevelSettingsLayer> >::~ModifyBase()
PUBLIC 69e64 0 geode::modifier::ModifyDerive<NIDLevelSettingsLayer, LevelSettingsLayer>::apply()
PUBLIC 6a214 0 geode::modifier::ModifyBase<geode::modifier::ModifyDerive<NIDLevelSettingsLayer, LevelSettingsLayer> >::apply()
PUBLIC 6a218 0 geode::modifier::AsStaticFunction_init<NIDLevelSettingsLayer, bool (NIDLevelSettingsLayer::*)(LevelSettingsObject*, LevelEditorLayer*)>::Impl<bool (NIDLevelSettingsLayer::*)(LevelSettingsObject*, LevelEditorLayer*)>::function(NIDLevelSettingsLayer*, LevelSettingsObject*, LevelEditorLayer*)
PUBLIC 6a364 0 std::__ndk1::vector<tulip::hook::AbstractType, std::__ndk1::allocator<tulip::hook::AbstractType> >::__throw_length_error[abi:ne190000]() const
PUBLIC 6a378 0 NIDLevelSettingsLayer::onNIDSettingsButton(cocos2d::CCObject*)
PUBLIC 6a394 0 __cxx_global_var_init
PUBLIC 6d284 0 _GLOBAL__sub_I_ObjectLabels.cpp
PUBLIC 6d288 0 __cxx_global_var_init.7
PUBLIC 6d6f8 0 geode::modifier::ModifyBase<geode::modifier::ModifyDerive<NIDEffectGameObject, EffectGameObject> >::~ModifyBase()
PUBLIC 6d714 0 __cxx_global_var_init.8
PUBLIC 6db84 0 geode::modifier::ModifyBase<geode::modifier::ModifyDerive<NIDLevelEditorLayer, LevelEditorLayer> >::~ModifyBase()
PUBLIC 6dba0 0 geode::modifier::ModifyDerive<NIDEffectGameObject, EffectGameObject>::apply()
PUBLIC 6dec4 0 geode::modifier::ModifyBase<geode::modifier::ModifyDerive<NIDEffectGameObject, EffectGameObject> >::apply()
PUBLIC 6dec8 0 geode::modifier::AsStaticFunction_customSetup<NIDEffectGameObject, void (NIDEffectGameObject::*)()>::Impl<void (NIDEffectGameObject::*)()>::function(NIDEffectGameObject*)
PUBLIC 6e038 0 geode::addresser::Addresser::addressOfVirtual<void, EffectGameObject, >(void (EffectGameObject::*)())
PUBLIC 6e100 0 EffectGameObject::EffectGameObject(geode::ZeroConstructorType)
PUBLIC 6e204 0 geode::modifier::FieldIntermediate<NIDEffectGameObject, EffectGameObject>::self()
PUBLIC 6e390 0 geode::modifier::FieldContainer::getField(unsigned long)
PUBLIC 6e5c0 0 geode::modifier::FieldContainer::setField(unsigned long, unsigned long, std::__ndk1::function<void (void*)>)
PUBLIC 6e6d4 0 geode::modifier::FieldIntermediate<NIDEffectGameObject, EffectGameObject>::fieldDestructor(void*)
PUBLIC 6e6d8 0 std::__ndk1::vector<void*, std::__ndk1::allocator<void*> >::__throw_length_error[abi:ne190000]() const
PUBLIC 6e6ec 0 std::__ndk1::vector<std::__ndk1::function<void (void*)>, std::__ndk1::allocator<std::__ndk1::function<void (void*)> > >::__push_back_slow_path<std::__ndk1::function<void (void*)> >(std::__ndk1::function<void (void*)>&&)
PUBLIC 6e90c 0 std::__ndk1::vector<std::__ndk1::function<void (void*)>, std::__ndk1::allocator<std::__ndk1::function<void (void*)> > >::__throw_length_error[abi:ne190000]() const
PUBLIC 6e920 0 std::__ndk1::vector<void*, std::__ndk1::allocator<void*> >::__throw_out_of_range[abi:ne190000]() const
PUBLIC 6e934 0 std::__ndk1::vector<std::__ndk1::function<void (void*)>, std::__ndk1::allocator<std::__ndk1::function<void (void*)> > >::__throw_out_of_range[abi:ne190000]() const
PUBLIC 6e948 0 std::__ndk1::__function::__base<void (void*)>::~__base()
PUBLIC 6e94c 0 std::__ndk1::__function::__func<void (*)(void*), std::__ndk1::allocator<void (*)(void*)>, void (void*)>::~__func()
PUBLIC 6e950 0 std::__ndk1::__function::__func<void (*)(void*), std::__ndk1::allocator<void (*)(void*)>, void (void*)>::__clone() const
PUBLIC 6e988 0 std::__ndk1::__function::__func<void (*)(void*), std::__ndk1::allocator<void (*)(void*)>, void (void*)>::__clone(std::__ndk1::__function::__base<void (void*)>*) const
PUBLIC 6e9a0 0 std::__ndk1::__function::__func<void (*)(void*), std::__ndk1::allocator<void (*)(void*)>, void (void*)>::destroy()
PUBLIC 6e9a4 0 std::__ndk1::__function::__func<void (*)(void*), std::__ndk1::allocator<void (*)(void*)>, void (void*)>::destroy_deallocate()
PUBLIC 6e9a8 0 std::__ndk1::__function::__func<void (*)(void*), std::__ndk1::allocator<void (*)(void*)>, void (void*)>::operator()(void*&&)
PUBLIC 6e9b8 0 std::__ndk1::__function::__func<void (*)(void*), std::__ndk1::allocator<void (*)(void*)>, void (void*)>::target(std::type_info const&) const
PUBLIC 6e9d4 0 std::__ndk1::__function::__func<void (*)(void*), std::__ndk1::allocator<void (*)(void*)>, void (void*)>::target_type() const
PUBLIC 6e9e0 0 geode::modifier::ModifyDerive<NIDLevelEditorLayer, LevelEditorLayer>::apply()
PUBLIC 6ed18 0 geode::modifier::ModifyBase<geode::modifier::ModifyDerive<NIDLevelEditorLayer, LevelEditorLayer> >::apply()
PUBLIC 6ed1c 0 geode::modifier::AsStaticFunction_updateObjectLabel<NIDLevelEditorLayer, void (*)(GameObject*)>::Impl<void (*)(GameObject*)>::function(GameObject*)
PUBLIC 6f5f0 0 __cxx_global_var_init
PUBLIC 724e0 0 _GLOBAL__sub_I_SetGroupIDLayer.cpp
PUBLIC 724e4 0 __cxx_global_var_init.9
PUBLIC 72954 0 geode::modifier::ModifyBase<geode::modifier::ModifyDerive<NIDSetGroupIDLayer, SetGroupIDLayer> >::~ModifyBase()
PUBLIC 72970 0 geode::modifier::ModifyDerive<NIDSetGroupIDLayer, SetGroupIDLayer>::apply()
PUBLIC 73538 0 geode::modifier::ModifyBase<geode::modifier::ModifyDerive<NIDSetGroupIDLayer, SetGroupIDLayer> >::apply()
PUBLIC 7353c 0 geode::modifier::AsStaticFunction_textChanged<NIDSetGroupIDLayer, void (NIDSetGroupIDLayer::*)(CCTextInputNode*)>::Impl<void (NIDSetGroupIDLayer::*)(CCTextInputNode*)>::function(NIDSetGroupIDLayer*, CCTextInputNode*)
PUBLIC 7366c 0 geode::modifier::AsStaticFunction_init<NIDSetGroupIDLayer, bool (NIDSetGroupIDLayer::*)(GameObject*, cocos2d::CCArray*)>::Impl<bool (NIDSetGroupIDLayer::*)(GameObject*, cocos2d::CCArray*)>::function(NIDSetGroupIDLayer*, GameObject*, cocos2d::CCArray*)
PUBLIC 73c98 0 geode::modifier::AsStaticFunction_onArrow<NIDSetGroupIDLayer, void (NIDSetGroupIDLayer::*)(int, int)>::Impl<void (NIDSetGroupIDLayer::*)(int, int)>::function(NIDSetGroupIDLayer*, int, int)
PUBLIC 73dc0 0 geode::modifier::AsStaticFunction_updateGroupIDButtons<NIDSetGroupIDLayer, void (NIDSetGroupIDLayer::*)()>::Impl<void (NIDSetGroupIDLayer::*)()>::function(NIDSetGroupIDLayer*)
PUBLIC 73dc4 0 geode::addresser::Addresser::addressOfVirtual<void, SetGroupIDLayer, CCTextInputNode*>(void (SetGroupIDLayer::*)(CCTextInputNode*))
PUBLIC 73e6c 0 SetGroupIDLayer::SetGroupIDLayer(geode::ZeroConstructorType)
PUBLIC 73ef8 0 geode::modifier::FieldIntermediate<NIDSetGroupIDLayer, SetGroupIDLayer>::self()
PUBLIC 74084 0 geode::modifier::FieldIntermediate<NIDSetGroupIDLayer, SetGroupIDLayer>::fieldDestructor(void*)
PUBLIC 74088 0 NIDSetGroupIDLayer::onEditGroupNameButton(cocos2d::CCObject*)
PUBLIC 741ec 0 std::__ndk1::__function::__base<void (std::__ndk1::basic_string<char, std::__ndk1::char_traits<char>, std::__ndk1::allocator<char> > const&)>::~__base()
PUBLIC 741f0 0 std::__ndk1::__function::__func<NIDSetGroupIDLayer::init(GameObject*, cocos2d::CCArray*)::{lambda(std::__ndk1::basic_string<char, std::__ndk1::char_traits<char>, std::__ndk1::allocator<char> > const&)#1}, std::__ndk1::allocator<NIDSetGroupIDLayer::init(GameObject*, cocos2d::CCArray*)::{lambda(std::__ndk1::basic_string<char, std::__ndk1::char_traits<char>, std::__ndk1::allocator<char> > const&)#1}>, void (std::__ndk1::basic_string<char, std::__ndk1::char_traits<char>, std::__ndk1::allocator<char> > const&)>::~__func()
PUBLIC 741f4 0 std::__ndk1::__function::__func<NIDSetGroupIDLayer::init(GameObject*, cocos2d::CCArray*)::{lambda(std::__ndk1::basic_string<char, std::__ndk1::char_traits<char>, std::__ndk1::allocator<char> > const&)#1}, std::__ndk1::allocator<NIDSetGroupIDLayer::init(GameObject*, cocos2d::CCArray*)::{lambda(std::__ndk1::basic_string<char, std::__ndk1::char_traits<char>, std::__ndk1::allocator<char> > const&)#1}>, void (std::__ndk1::basic_string<char, std::__ndk1::char_traits<char>, std::__ndk1::allocator<char> > const&)>::__clone() const
PUBLIC 74228 0 std::__ndk1::__function::__func<NIDSetGroupIDLayer::init(GameObject*, cocos2d::CCArray*)::{lambda(std::__ndk1::basic_string<char, std::__ndk1::char_traits<char>, std::__ndk1::allocator<char> > const&)#1}, std::__ndk1::allocator<NIDSetGroupIDLayer::init(GameObject*, cocos2d::CCArray*)::{lambda(std::__ndk1::basic_string<char, std::__ndk1::char_traits<char>, std::__ndk1::allocator<char> > const&)#1}>, void (std::__ndk1::basic_string<char, std::__ndk1::char_traits<char>, std::__ndk1::allocator<char> > const&)>::__clone(std::__ndk1::__function::__base<void (std::__ndk1::basic_string<char, std::__ndk1::char_traits<char>, std::__ndk1::allocator<char> > const&)>*) const
PUBLIC 7423c 0 std::__ndk1::__function::__func<NIDSetGroupIDLayer::init(GameObject*, cocos2d::CCArray*)::{lambda(std::__ndk1::basic_string<char, std::__ndk1::char_traits<char>, std::__ndk1::allocator<char> > const&)#1}, std::__ndk1::allocator<NIDSetGroupIDLayer::init(GameObject*, cocos2d::CCArray*)::{lambda(std::__ndk1::basic_string<char, std::__ndk1::char_traits<char>, std::__ndk1::allocator<char> > const&)#1}>, void (std::__ndk1::basic_string<char, std::__ndk1::char_traits<char>, std::__ndk1::allocator<char> > const&)>::destroy()
PUBLIC 74240 0 std::__ndk1::__function::__func<NIDSetGroupIDLayer::init(GameObject*, cocos2d::CCArray*)::{lambda(std::__ndk1::basic_string<char, std::__ndk1::char_traits<char>, std::__ndk1::allocator<char> > const&)#1}, std::__ndk1::allocator<NIDSetGroupIDLayer::init(GameObject*, cocos2d::CCArray*)::{lambda(std::__ndk1::basic_string<char, std::__ndk1::char_traits<char>, std::__ndk1::allocator<char> > const&)#1}>, void (std::__ndk1::basic_string<char, std::__ndk1::char_traits<char>, std::__ndk1::allocator<char> > const&)>::destroy_deallocate()
PUBLIC 74244 0 std::__ndk1::__function::__func<NIDSetGroupIDLayer::init(GameObject*, cocos2d::CCArray*)::{lambda(std::__ndk1::basic_string<char, std::__ndk1::char_traits<char>, std::__ndk1::allocator<char> > const&)#1}, std::__ndk1::allocator<NIDSetGroupIDLayer::init(GameObject*, cocos2d::CCArray*)::{lambda(std::__ndk1::basic_string<char, std::__ndk1::char_traits<char>, std::__ndk1::allocator<char> > const&)#1}>, void (std::__ndk1::basic_string<char, std::__ndk1::char_traits<char>, std::__ndk1::allocator<char> > const&)>::operator()(std::__ndk1::basic_string<char, std::__ndk1::char_traits<char>, std::__ndk1::allocator<char> > const&)
PUBLIC 74374 0 std::__ndk1::__function::__func<NIDSetGroupIDLayer::init(GameObject*, cocos2d::CCArray*)::{lambda(std::__ndk1::basic_string<char, std::__ndk1::char_traits<char>, std::__ndk1::allocator<char> > const&)#1}, std::__ndk1::allocator<NIDSetGroupIDLayer::init(GameObject*, cocos2d::CCArray*)::{lambda(std::__ndk1::basic_string<char, std::__ndk1::char_traits<char>, std::__ndk1::allocator<char> > const&)#1}>, void (std::__ndk1::basic_string<char, std::__ndk1::char_traits<char>, std::__ndk1::allocator<char> > const&)>::target(std::type_info const&) const
PUBLIC 74390 0 std::__ndk1::__function::__func<NIDSetGroupIDLayer::init(GameObject*, cocos2d::CCArray*)::{lambda(std::__ndk1::basic_string<char, std::__ndk1::char_traits<char>, std::__ndk1::allocator<char> > const&)#1}, std::__ndk1::allocator<NIDSetGroupIDLayer::init(GameObject*, cocos2d::CCArray*)::{lambda(std::__ndk1::basic_string<char, std::__ndk1::char_traits<char>, std::__ndk1::allocator<char> > const&)#1}>, void (std::__ndk1::basic_string<char, std::__ndk1::char_traits<char>, std::__ndk1::allocator<char> > const&)>::target_type() const
PUBLIC 7439c 0 std::__ndk1::__function::__base<void (short)>::~__base()
PUBLIC 743a0 0 std::__ndk1::__function::__func<NIDSetGroupIDLayer::onEditGroupNameButton(cocos2d::CCObject*)::{lambda(short)#1}, std::__ndk1::allocator<NIDSetGroupIDLayer::onEditGroupNameButton(cocos2d::CCObject*)::{lambda(short)#1}>, void (short)>::~__func()
PUBLIC 743a4 0 std::__ndk1::__function::__func<NIDSetGroupIDLayer::onEditGroupNameButton(cocos2d::CCObject*)::{lambda(short)#1}, std::__ndk1::allocator<NIDSetGroupIDLayer::onEditGroupNameButton(cocos2d::CCObject*)::{lambda(short)#1}>, void (short)>::__clone() const
PUBLIC 743d8 0 std::__ndk1::__function::__func<NIDSetGroupIDLayer::onEditGroupNameButton(cocos2d::CCObject*)::{lambda(short)#1}, std::__ndk1::allocator<NIDSetGroupIDLayer::onEditGroupNameButton(cocos2d::CCObject*)::{lambda(short)#1}>, void (short)>::__clone(std::__ndk1::__function::__base<void (short)>*) const
PUBLIC 743ec 0 std::__ndk1::__function::__func<NIDSetGroupIDLayer::onEditGroupNameButton(cocos2d::CCObject*)::{lambda(short)#1}, std::__ndk1::allocator<NIDSetGroupIDLayer::onEditGroupNameButton(cocos2d::CCObject*)::{lambda(short)#1}>, void (short)>::destroy()
PUBLIC 743f0 0 std::__ndk1::__function::__func<NIDSetGroupIDLayer::onEditGroupNameButton(cocos2d::CCObject*)::{lambda(short)#1}, std::__ndk1::allocator<NIDSetGroupIDLayer::onEditGroupNameButton(cocos2d::CCObject*)::{lambda(short)#1}>, void (short)>::destroy_deallocate()
PUBLIC 743f4 0 std::__ndk1::__function::__func<NIDSetGroupIDLayer::onEditGroupNameButton(cocos2d::CCObject*)::{lambda(short)#1}, std::__ndk1::allocator<NIDSetGroupIDLayer::onEditGroupNameButton(cocos2d::CCObject*)::{lambda(short)#1}>, void (short)>::operator()(short&&)
PUBLIC 744cc 0 std::__ndk1::__function::__func<NIDSetGroupIDLayer::onEditGroupNameButton(cocos2d::CCObject*)::{lambda(short)#1}, std::__ndk1::allocator<NIDSetGroupIDLayer::onEditGroupNameButton(cocos2d::CCObject*)::{lambda(short)#1}>, void (short)>::target(std::type_info const&) const
PUBLIC 744e8 0 std::__ndk1::__function::__func<NIDSetGroupIDLayer::onEditGroupNameButton(cocos2d::CCObject*)::{lambda(short)#1}, std::__ndk1::allocator<NIDSetGroupIDLayer::onEditGroupNameButton(cocos2d::CCObject*)::{lambda(short)#1}>, void (short)>::target_type() const
PUBLIC 744f4 0 std::__ndk1::__function::__base<void ()>::~__base()
PUBLIC 744f8 0 std::__ndk1::__function::__func<NIDSetGroupIDLayer::onEditGroupNameButton(cocos2d::CCObject*)::{lambda()#1}, std::__ndk1::allocator<NIDSetGroupIDLayer::onEditGroupNameButton(cocos2d::CCObject*)::{lambda()#1}>, void ()>::~__func()
PUBLIC 744fc 0 std::__ndk1::__function::__func<NIDSetGroupIDLayer::onEditGroupNameButton(cocos2d::CCObject*)::{lambda()#1}, std::__ndk1::allocator<NIDSetGroupIDLayer::onEditGroupNameButton(cocos2d::CCObject*)::{lambda()#1}>, void ()>::__clone() const
PUBLIC 74530 0 std::__ndk1::__function::__func<NIDSetGroupIDLayer::onEditGroupNameButton(cocos2d::CCObject*)::{lambda()#1}, std::__ndk1::allocator<NIDSetGroupIDLayer::onEditGroupNameButton(cocos2d::CCObject*)::{lambda()#1}>, void ()>::__clone(std::__ndk1::__function::__base<void ()>*) const
PUBLIC 74544 0 std::__ndk1::__function::__func<NIDSetGroupIDLayer::onEditGroupNameButton(cocos2d::CCObject*)::{lambda()#1}, std::__ndk1::allocator<NIDSetGroupIDLayer::onEditGroupNameButton(cocos2d::CCObject*)::{lambda()#1}>, void ()>::destroy()
PUBLIC 74548 0 std::__ndk1::__function::__func<NIDSetGroupIDLayer::onEditGroupNameButton(cocos2d::CCObject*)::{lambda()#1}, std::__ndk1::allocator<NIDSetGroupIDLayer::onEditGroupNameButton(cocos2d::CCObject*)::{lambda()#1}>, void ()>::destroy_deallocate()
PUBLIC 7454c 0 std::__ndk1::__function::__func<NIDSetGroupIDLayer::onEditGroupNameButton(cocos2d::CCObject*)::{lambda()#1}, std::__ndk1::allocator<NIDSetGroupIDLayer::onEditGroupNameButton(cocos2d::CCObject*)::{lambda()#1}>, void ()>::operator()()
PUBLIC 74580 0 std::__ndk1::__function::__func<NIDSetGroupIDLayer::onEditGroupNameButton(cocos2d::CCObject*)::{lambda()#1}, std::__ndk1::allocator<NIDSetGroupIDLayer::onEditGroupNameButton(cocos2d::CCObject*)::{lambda()#1}>, void ()>::target(std::type_info const&) const
PUBLIC 7459c 0 std::__ndk1::__function::__func<NIDSetGroupIDLayer::onEditGroupNameButton(cocos2d::CCObject*)::{lambda()#1}, std::__ndk1::allocator<NIDSetGroupIDLayer::onEditGroupNameButton(cocos2d::CCObject*)::{lambda()#1}>, void ()>::target_type() const
PUBLIC 745a8 0 NIDSetGroupIDLayer::updateGroupIDButtons()
PUBLIC 75534 0 geode::cocos::CCArrayExt<GameObject*, GameObject>::~CCArrayExt()
PUBLIC 75554 0 geode::cocos::CCArrayExt<CCMenuItemSpriteExtra*, CCMenuItemSpriteExtra>::~CCArrayExt()
PUBLIC 75574 0 std::__ndk1::basic_string<char, std::__ndk1::char_traits<char>, std::__ndk1::allocator<char> >::__assign_external(char const*, unsigned long)
PUBLIC 756b8 0 std::__ndk1::basic_string<char, std::__ndk1::char_traits<char>, std::__ndk1::allocator<char> >::__assign_external(char const*)
PUBLIC 756ec 0 std::__ndk1::__tree<short, std::__ndk1::less<short>, std::__ndk1::allocator<short> >::destroy(std::__ndk1::__tree_node<short, void*>*)
PUBLIC 75728 0 __cxx_global_var_init
PUBLIC 78618 0 _GLOBAL__sub_I_SetupPopups.cpp
PUBLIC 7861c 0 NIDSetupTriggerPopup::createValueControlAdvanced(int, gd::string, cocos2d::CCPoint, float, bool, InputValueType, int, bool, float, float, int, int, GJInputStyle, int, bool)
PUBLIC 78d58 0 NIDSetupTriggerPopup::handleSpecialCases(int, unsigned short, cocos2d::CCArray*)
PUBLIC 78e60 0 NIDSetupTriggerPopup::commonSetup(NID, unsigned short, std::__ndk1::vector<cocos2d::CCNode*, std::__ndk1::allocator<cocos2d::CCNode*> >&&, cocos2d::CCNode*, cocos2d::CCNode*, std::__ndk1::function<void (std::__ndk1::vector<cocos2d::CCNode*, std::__ndk1::allocator<cocos2d::CCNode*> >&&)>&&)
PUBLIC 79944 0 NIDSetupTriggerPopup::triggerArrowWasClicked(int, bool)
PUBLIC 79e60 0 NIDSetupTriggerPopup::textWasChanged(CCTextInputNode*)
PUBLIC 7a2ec 0 NIDSetupTriggerPopup::onEditIDNameButton(cocos2d::CCObject*)
PUBLIC 7a73c 0 geode::cocos::CCArrayExt<cocos2d::CCNode*, cocos2d::CCNode>::~CCArrayExt()
PUBLIC 7a75c 0 cocos2d::CCCopying::copyWithZone(cocos2d::CCZone*)
PUBLIC 7a764 0 cocos2d::CCLayerRGBA::setOpacityModifyRGB(bool)
PUBLIC 7a768 0 cocos2d::CCLayerRGBA::isOpacityModifyRGB()
PUBLIC 7a770 0 cocos2d::CCKeyboardDelegate::keyUp(cocos2d::enumKeyCodes)
PUBLIC 7a774 0 cocos2d::CCMouseDelegate::rightKeyDown()
PUBLIC 7a778 0 cocos2d::CCMouseDelegate::rightKeyUp()
PUBLIC 7a77c 0 cocos2d::CCMouseDelegate::scrollWheel(float, float)
PUBLIC 7a780 0 {virtual override thunk({offset(-408)}, cocos2d::CCLayerRGBA::setOpacityModifyRGB(bool))}
PUBLIC 7a784 0 {virtual override thunk({offset(-408)}, cocos2d::CCLayerRGBA::isOpacityModifyRGB())}
PUBLIC 7a78c 0 __cxx_global_var_init.11
PUBLIC 7a7ec 0 geode::modifier::ModifyBase<geode::modifier::ModifyDerive<NIDSetupTriggerPopup, SetupTriggerPopup> >::~ModifyBase()
PUBLIC 7a808 0 geode::modifier::FieldIntermediate<NIDSetupTriggerPopup, SetupTriggerPopup>::self()
PUBLIC 7a9a0 0 geode::modifier::FieldIntermediate<NIDSetupTriggerPopup, SetupTriggerPopup>::fieldDestructor(void*)
PUBLIC 7a9ec 0 geode::modifier::ModifyBase<geode::modifier::ModifyDerive<NIDSetupTriggerPopup, SetupTriggerPopup> >::ModifyBase()
PUBLIC 7add8 0 geode::modifier::ModifyDerive<NIDSetupTriggerPopup, SetupTriggerPopup>::apply()
PUBLIC 7b648 0 geode::modifier::ModifyBase<geode::modifier::ModifyDerive<NIDSetupTriggerPopup, SetupTriggerPopup> >::apply()
PUBLIC 7b64c 0 geode::Hook::create<void (*)(NIDSetupTriggerPopup*, CCTextInputNode*)>(void*, void (*)(NIDSetupTriggerPopup*, CCTextInputNode*), std::__ndk1::basic_string<char, std::__ndk1::char_traits<char>, std::__ndk1::allocator<char> > const&, tulip::hook::TulipConvention, tulip::hook::HookMetadata const&)
PUBLIC 7b7d0 0 geode::modifier::AsStaticFunction_textChanged<NIDSetupTriggerPopup, void (NIDSetupTriggerPopup::*)(CCTextInputNode*)>::Impl<void (NIDSetupTriggerPopup::*)(CCTextInputNode*)>::function(NIDSetupTriggerPopup*, CCTextInputNode*)
PUBLIC 7b7fc 0 geode::Hook::create<cocos2d::CCArray* (*)(NIDSetupTriggerPopup*, int, gd::string, cocos2d::CCPoint, float, bool, InputValueType, int, bool, float, float, int, int, GJInputStyle, int, bool)>(void*, cocos2d::CCArray* (*)(NIDSetupTriggerPopup*, int, gd::string, cocos2d::CCPoint, float, bool, InputValueType, int, bool, float, float, int, int, GJInputStyle, int, bool), std::__ndk1::basic_string<char, std::__ndk1::char_traits<char>, std::__ndk1::allocator<char> > const&, tulip::hook::TulipConvention, tulip::hook::HookMetadata const&)
PUBLIC 7b914 0 geode::modifier::AsStaticFunction_createValueControlAdvanced<NIDSetupTriggerPopup, cocos2d::CCArray* (NIDSetupTriggerPopup::*)(int, gd::string, cocos2d::CCPoint, float, bool, InputValueType, int, bool, float, float, int, int, GJInputStyle, int, bool)>::Impl<cocos2d::CCArray* (NIDSetupTriggerPopup::*)(int, gd::string, cocos2d::CCPoint, float, bool, InputValueType, int, bool, float, float, int, int, GJInputStyle, int, bool)>::function(NIDSetupTriggerPopup*, int, gd::string, cocos2d::CCPoint, float, bool, InputValueType, int, bool, float, float, int, int, GJInputStyle, int, bool)
PUBLIC 7ba44 0 geode::Hook::create<void (*)(NIDSetupTriggerPopup*, cocos2d::CCObject*)>(void*, void (*)(NIDSetupTriggerPopup*, cocos2d::CCObject*), std::__ndk1::basic_string<char, std::__ndk1::char_traits<char>, std::__ndk1::allocator<char> > const&, tulip::hook::TulipConvention, tulip::hook::HookMetadata const&)
PUBLIC 7bbc8 0 geode::modifier::AsStaticFunction_triggerArrowLeft<NIDSetupTriggerPopup, void (NIDSetupTriggerPopup::*)(cocos2d::CCObject*)>::Impl<void (NIDSetupTriggerPopup::*)(cocos2d::CCObject*)>::function(NIDSetupTriggerPopup*, cocos2d::CCObject*)
PUBLIC 7bc08 0 geode::modifier::AsStaticFunction_triggerArrowRight<NIDSetupTriggerPopup, void (NIDSetupTriggerPopup::*)(cocos2d::CCObject*)>::Impl<void (NIDSetupTriggerPopup::*)(cocos2d::CCObject*)>::function(NIDSetupTriggerPopup*, cocos2d::CCObject*)
PUBLIC 7bc48 0 geode::addresser::Addresser::addressOfVirtual<void, SetupTriggerPopup, CCTextInputNode*>(void (SetupTriggerPopup::*)(CCTextInputNode*))
PUBLIC 7bd34 0 SetupTriggerPopup::SetupTriggerPopup(geode::ZeroConstructorType)
PUBLIC 7bde4 0 tulip::hook::AbstractFunction::from<cocos2d::CCArray*, NIDSetupTriggerPopup*, int, gd::string, cocos2d::CCPoint, float, bool, InputValueType, int, bool, float, float, int, int, GJInputStyle, int, bool>(cocos2d::CCArray* (*)(NIDSetupTriggerPopup*, int, gd::string, cocos2d::CCPoint, float, bool, InputValueType, int, bool, float, float, int, int, GJInputStyle, int, bool))
PUBLIC 7c910 0 std::__ndk1::__function::__base<void (std::__ndk1::vector<cocos2d::CCNode*, std::__ndk1::allocator<cocos2d::CCNode*> >&&)>::~__base()
PUBLIC 7c914 0 std::__ndk1::__function::__func<NIDSetupTriggerPopup::createValueControlAdvanced(int, gd::string, cocos2d::CCPoint, float, bool, InputValueType, int, bool, float, float, int, int, GJInputStyle, int, bool)::$_0, std::__ndk1::allocator<NIDSetupTriggerPopup::createValueControlAdvanced(int, gd::string, cocos2d::CCPoint, float, bool, InputValueType, int, bool, float, float, int, int, GJInputStyle, int, bool)::$_0>, void (std::__ndk1::vector<cocos2d::CCNode*, std::__ndk1::allocator<cocos2d::CCNode*> >&&)>::~__func()
PUBLIC 7c918 0 std::__ndk1::__function::__func<NIDSetupTriggerPopup::createValueControlAdvanced(int, gd::string, cocos2d::CCPoint, float, bool, InputValueType, int, bool, float, float, int, int, GJInputStyle, int, bool)::$_0, std::__ndk1::allocator<NIDSetupTriggerPopup::createValueControlAdvanced(int, gd::string, cocos2d::CCPoint, float, bool, InputValueType, int, bool, float, float, int, int, GJInputStyle, int, bool)::$_0>, void (std::__ndk1::vector<cocos2d::CCNode*, std::__ndk1::allocator<cocos2d::CCNode*> >&&)>::__clone() const
PUBLIC 7c950 0 std::__ndk1::__function::__func<NIDSetupTriggerPopup::createValueControlAdvanced(int, gd::string, cocos2d::CCPoint, float, bool, InputValueType, int, bool, float, float, int, int, GJInputStyle, int, bool)::$_0, std::__ndk1::allocator<NIDSetupTriggerPopup::createValueControlAdvanced(int, gd::string, cocos2d::CCPoint, float, bool, InputValueType, int, bool, float, float, int, int, GJInputStyle, int, bool)::$_0>, void (std::__ndk1::vector<cocos2d::CCNode*, std::__ndk1::allocator<cocos2d::CCNode*> >&&)>::__clone(std::__ndk1::__function::__base<void (std::__ndk1::vector<cocos2d::CCNode*, std::__ndk1::allocator<cocos2d::CCNode*> >&&)>*) const
PUBLIC 7c968 0 std::__ndk1::__function::__func<NIDSetupTriggerPopup::createValueControlAdvanced(int, gd::string, cocos2d::CCPoint, float, bool, InputValueType, int, bool, float, float, int, int, GJInputStyle, int, bool)::$_0, std::__ndk1::allocator<NIDSetupTriggerPopup::createValueControlAdvanced(int, gd::string, cocos2d::CCPoint, float, bool, InputValueType, int, bool, float, float, int, int, GJInputStyle, int, bool)::$_0>, void (std::__ndk1::vector<cocos2d::CCNode*, std::__ndk1::allocator<cocos2d::CCNode*> >&&)>::destroy()
PUBLIC 7c96c 0 std::__ndk1::__function::__func<NIDSetupTriggerPopup::createValueControlAdvanced(int, gd::string, cocos2d::CCPoint, float, bool, InputValueType, int, bool, float, float, int, int, GJInputStyle, int, bool)::$_0, std::__ndk1::allocator<NIDSetupTriggerPopup::createValueControlAdvanced(int, gd::string, cocos2d::CCPoint, float, bool, InputValueType, int, bool, float, float, int, int, GJInputStyle, int, bool)::$_0>, void (std::__ndk1::vector<cocos2d::CCNode*, std::__ndk1::allocator<cocos2d::CCNode*> >&&)>::destroy_deallocate()
PUBLIC 7c970 0 std::__ndk1::__function::__func<NIDSetupTriggerPopup::createValueControlAdvanced(int, gd::string, cocos2d::CCPoint, float, bool, InputValueType, int, bool, float, float, int, int, GJInputStyle, int, bool)::$_0, std::__ndk1::allocator<NIDSetupTriggerPopup::createValueControlAdvanced(int, gd::string, cocos2d::CCPoint, float, bool, InputValueType, int, bool, float, float, int, int, GJInputStyle, int, bool)::$_0>, void (std::__ndk1::vector<cocos2d::CCNode*, std::__ndk1::allocator<cocos2d::CCNode*> >&&)>::operator()(std::__ndk1::vector<cocos2d::CCNode*, std::__ndk1::allocator<cocos2d::CCNode*> >&&)
PUBLIC 7c9c8 0 std::__ndk1::__function::__func<NIDSetupTriggerPopup::createValueControlAdvanced(int, gd::string, cocos2d::CCPoint, float, bool, InputValueType, int, bool, float, float, int, int, GJInputStyle, int, bool)::$_0, std::__ndk1::allocator<NIDSetupTriggerPopup::createValueControlAdvanced(int, gd::string, cocos2d::CCPoint, float, bool, InputValueType, int, bool, float, float, int, int, GJInputStyle, int, bool)::$_0>, void (std::__ndk1::vector<cocos2d::CCNode*, std::__ndk1::allocator<cocos2d::CCNode*> >&&)>::target(std::type_info const&) const
PUBLIC 7c9e4 0 std::__ndk1::__function::__func<NIDSetupTriggerPopup::createValueControlAdvanced(int, gd::string, cocos2d::CCPoint, float, bool, InputValueType, int, bool, float, float, int, int, GJInputStyle, int, bool)::$_0, std::__ndk1::allocator<NIDSetupTriggerPopup::createValueControlAdvanced(int, gd::string, cocos2d::CCPoint, float, bool, InputValueType, int, bool, float, float, int, int, GJInputStyle, int, bool)::$_0>, void (std::__ndk1::vector<cocos2d::CCNode*, std::__ndk1::allocator<cocos2d::CCNode*> >&&)>::target_type() const
PUBLIC 7c9f0 0 std::__ndk1::__hash_table<std::__ndk1::__hash_value_type<unsigned short, NIDSetupTriggerPopup::IDInputInfo>, std::__ndk1::__unordered_map_hasher<unsigned short, std::__ndk1::__hash_value_type<unsigned short, NIDSetupTriggerPopup::IDInputInfo>, std::__ndk1::hash<unsigned short>, std::__ndk1::equal_to<unsigned short>, true>, std::__ndk1::__unordered_map_equal<unsigned short, std::__ndk1::__hash_value_type<unsigned short, NIDSetupTriggerPopup::IDInputInfo>, std::__ndk1::equal_to<unsigned short>, std::__ndk1::hash<unsigned short>, true>, std::__ndk1::allocator<std::__ndk1::__hash_value_type<unsigned short, NIDSetupTriggerPopup::IDInputInfo> > >::__emplace_unique_key_args<unsigned short, std::__ndk1::piecewise_construct_t const&, std::__ndk1::tuple<unsigned short&&>, std::__ndk1::tuple<> >(unsigned short const&, std::__ndk1::piecewise_construct_t const&, std::__ndk1::tuple<unsigned short&&>, std::__ndk1::tuple<>)
PUBLIC 7ccf8 0 std::__ndk1::__hash_table<std::__ndk1::__hash_value_type<unsigned short, NIDSetupTriggerPopup::IDInputInfo>, std::__ndk1::__unordered_map_hasher<unsigned short, std::__ndk1::__hash_value_type<unsigned short, NIDSetupTriggerPopup::IDInputInfo>, std::__ndk1::hash<unsigned short>, std::__ndk1::equal_to<unsigned short>, true>, std::__ndk1::__unordered_map_equal<unsigned short, std::__ndk1::__hash_value_type<unsigned short, NIDSetupTriggerPopup::IDInputInfo>, std::__ndk1::equal_to<unsigned short>, std::__ndk1::hash<unsigned short>, true>, std::__ndk1::allocator<std::__ndk1::__hash_value_type<unsigned short, NIDSetupTriggerPopup::IDInputInfo> > >::__do_rehash<true>(unsigned long)
PUBLIC 7cea4 0 std::__ndk1::__function::__func<NIDSetupTriggerPopup::onEditIDNameButton(cocos2d::CCObject*)::$_0, std::__ndk1::allocator<NIDSetupTriggerPopup::onEditIDNameButton(cocos2d::CCObject*)::$_0>, void (short)>::~__func()
PUBLIC 7cea8 0 std::__ndk1::__function::__func<NIDSetupTriggerPopup::onEditIDNameButton(cocos2d::CCObject*)::$_0, std::__ndk1::allocator<NIDSetupTriggerPopup::onEditIDNameButton(cocos2d::CCObject*)::$_0>, void (short)>::__clone() const
PUBLIC 7cedc 0 std::__ndk1::__function::__func<NIDSetupTriggerPopup::onEditIDNameButton(cocos2d::CCObject*)::$_0, std::__ndk1::allocator<NIDSetupTriggerPopup::onEditIDNameButton(cocos2d::CCObject*)::$_0>, void (short)>::__clone(std::__ndk1::__function::__base<void (short)>*) const
PUBLIC 7cef0 0 std::__ndk1::__function::__func<NIDSetupTriggerPopup::onEditIDNameButton(cocos2d::CCObject*)::$_0, std::__ndk1::allocator<NIDSetupTriggerPopup::onEditIDNameButton(cocos2d::CCObject*)::$_0>, void (short)>::destroy()
PUBLIC 7cef4 0 std::__ndk1::__function::__func<NIDSetupTriggerPopup::onEditIDNameButton(cocos2d::CCObject*)::$_0, std::__ndk1::allocator<NIDSetupTriggerPopup::onEditIDNameButton(cocos2d::CCObject*)::$_0>, void (short)>::destroy_deallocate()
PUBLIC 7cef8 0 std::__ndk1::__function::__func<NIDSetupTriggerPopup::onEditIDNameButton(cocos2d::CCObject*)::$_0, std::__ndk1::allocator<NIDSetupTriggerPopup::onEditIDNameButton(cocos2d::CCObject*)::$_0>, void (short)>::operator()(short&&)
PUBLIC 7cfd0 0 std::__ndk1::__function::__func<NIDSetupTriggerPopup::onEditIDNameButton(cocos2d::CCObject*)::$_0, std::__ndk1::allocator<NIDSetupTriggerPopup::onEditIDNameButton(cocos2d::CCObject*)::$_0>, void (short)>::target(std::type_info const&) const
PUBLIC 7cfec 0 std::__ndk1::__function::__func<NIDSetupTriggerPopup::onEditIDNameButton(cocos2d::CCObject*)::$_0, std::__ndk1::allocator<NIDSetupTriggerPopup::onEditIDNameButton(cocos2d::CCObject*)::$_0>, void (short)>::target_type() const
PUBLIC 7cff8 0 std::__ndk1::__function::__func<NIDSetupTriggerPopup::onEditIDNameButton(cocos2d::CCObject*)::$_1, std::__ndk1::allocator<NIDSetupTriggerPopup::onEditIDNameButton(cocos2d::CCObject*)::$_1>, void ()>::~__func()
PUBLIC 7cffc 0 std::__ndk1::__function::__func<NIDSetupTriggerPopup::onEditIDNameButton(cocos2d::CCObject*)::$_1, std::__ndk1::allocator<NIDSetupTriggerPopup::onEditIDNameButton(cocos2d::CCObject*)::$_1>, void ()>::__clone() const
PUBLIC 7d034 0 std::__ndk1::__function::__func<NIDSetupTriggerPopup::onEditIDNameButton(cocos2d::CCObject*)::$_1, std::__ndk1::allocator<NIDSetupTriggerPopup::onEditIDNameButton(cocos2d::CCObject*)::$_1>, void ()>::__clone(std::__ndk1::__function::__base<void ()>*) const
PUBLIC 7d04c 0 std::__ndk1::__function::__func<NIDSetupTriggerPopup::onEditIDNameButton(cocos2d::CCObject*)::$_1, std::__ndk1::allocator<NIDSetupTriggerPopup::onEditIDNameButton(cocos2d::CCObject*)::$_1>, void ()>::destroy()
PUBLIC 7d050 0 std::__ndk1::__function::__func<NIDSetupTriggerPopup::onEditIDNameButton(cocos2d::CCObject*)::$_1, std::__ndk1::allocator<NIDSetupTriggerPopup::onEditIDNameButton(cocos2d::CCObject*)::$_1>, void ()>::destroy_deallocate()
PUBLIC 7d054 0 std::__ndk1::__function::__func<NIDSetupTriggerPopup::onEditIDNameButton(cocos2d::CCObject*)::$_1, std::__ndk1::allocator<NIDSetupTriggerPopup::onEditIDNameButton(cocos2d::CCObject*)::$_1>, void ()>::operator()()
PUBLIC 7d06c 0 std::__ndk1::__function::__func<NIDSetupTriggerPopup::onEditIDNameButton(cocos2d::CCObject*)::$_1, std::__ndk1::allocator<NIDSetupTriggerPopup::onEditIDNameButton(cocos2d::CCObject*)::$_1>, void ()>::target(std::type_info const&) const
PUBLIC 7d088 0 std::__ndk1::__function::__func<NIDSetupTriggerPopup::onEditIDNameButton(cocos2d::CCObject*)::$_1, std::__ndk1::allocator<NIDSetupTriggerPopup::onEditIDNameButton(cocos2d::CCObject*)::$_1>, void ()>::target_type() const
PUBLIC 7d094 0 std::__ndk1::__function::__func<NIDSetupTriggerPopup::commonSetup(NID, unsigned short, std::__ndk1::vector<cocos2d::CCNode*, std::__ndk1::allocator<cocos2d::CCNode*> >&&, cocos2d::CCNode*, cocos2d::CCNode*, std::__ndk1::function<void (std::__ndk1::vector<cocos2d::CCNode*, std::__ndk1::allocator<cocos2d::CCNode*> >&&)>&&)::$_0, std::__ndk1::allocator<NIDSetupTriggerPopup::commonSetup(NID, unsigned short, std::__ndk1::vector<cocos2d::CCNode*, std::__ndk1::allocator<cocos2d::CCNode*> >&&, cocos2d::CCNode*, cocos2d::CCNode*, std::__ndk1::function<void (std::__ndk1::vector<cocos2d::CCNode*, std::__ndk1::allocator<cocos2d::CCNode*> >&&)>&&)::$_0>, void (std::__ndk1::basic_string<char, std::__ndk1::char_traits<char>, std::__ndk1::allocator<char> > const&)>::~__func()
PUBLIC 7d098 0 std::__ndk1::__function::__func<NIDSetupTriggerPopup::commonSetup(NID, unsigned short, std::__ndk1::vector<cocos2d::CCNode*, std::__ndk1::allocator<cocos2d::CCNode*> >&&, cocos2d::CCNode*, cocos2d::CCNode*, std::__ndk1::function<void (std::__ndk1::vector<cocos2d::CCNode*, std::__ndk1::allocator<cocos2d::CCNode*> >&&)>&&)::$_0, std::__ndk1::allocator<NIDSetupTriggerPopup::commonSetup(NID, unsigned short, std::__ndk1::vector<cocos2d::CCNode*, std::__ndk1::allocator<cocos2d::CCNode*> >&&, cocos2d::CCNode*, cocos2d::CCNode*, std::__ndk1::function<void (std::__ndk1::vector<cocos2d::CCNode*, std::__ndk1::allocator<cocos2d::CCNode*> >&&)>&&)::$_0>, void (std::__ndk1::basic_string<char, std::__ndk1::char_traits<char>, std::__ndk1::allocator<char> > const&)>::__clone() const
PUBLIC 7d0d0 0 std::__ndk1::__function::__func<NIDSetupTriggerPopup::commonSetup(NID, unsigned short, std::__ndk1::vector<cocos2d::CCNode*, std::__ndk1::allocator<cocos2d::CCNode*> >&&, cocos2d::CCNode*, cocos2d::CCNode*, std::__ndk1::function<void (std::__ndk1::vector<cocos2d::CCNode*, std::__ndk1::allocator<cocos2d::CCNode*> >&&)>&&)::$_0, std::__ndk1::allocator<NIDSetupTriggerPopup::commonSetup(NID, unsigned short, std::__ndk1::vector<cocos2d::CCNode*, std::__ndk1::allocator<cocos2d::CCNode*> >&&, cocos2d::CCNode*, cocos2d::CCNode*, std::__ndk1::function<void (std::__ndk1::vector<cocos2d::CCNode*, std::__ndk1::allocator<cocos2d::CCNode*> >&&)>&&)::$_0>, void (std::__ndk1::basic_string<char, std::__ndk1::char_traits<char>, std::__ndk1::allocator<char> > const&)>::__clone(std::__ndk1::__function::__base<void (std::__ndk1::basic_string<char, std::__ndk1::char_traits<char>, std::__ndk1::allocator<char> > const&)>*) const
PUBLIC 7d0e8 0 std::__ndk1::__function::__func<NIDSetupTriggerPopup::commonSetup(NID, unsigned short, std::__ndk1::vector<cocos2d::CCNode*, std::__ndk1::allocator<cocos2d::CCNode*> >&&, cocos2d::CCNode*, cocos2d::CCNode*, std::__ndk1::function<void (std::__ndk1::vector<cocos2d::CCNode*, std::__ndk1::allocator<cocos2d::CCNode*> >&&)>&&)::$_0, std::__ndk1::allocator<NIDSetupTriggerPopup::commonSetup(NID, unsigned short, std::__ndk1::vector<cocos2d::CCNode*, std::__ndk1::allocator<cocos2d::CCNode*> >&&, cocos2d::CCNode*, cocos2d::CCNode*, std::__ndk1::function<void (std::__ndk1::vector<cocos2d::CCNode*, std::__ndk1::allocator<cocos2d::CCNode*> >&&)>&&)::$_0>, void (std::__ndk1::basic_string<char, std::__ndk1::char_traits<char>, std::__ndk1::allocator<char> > const&)>::destroy()
PUBLIC 7d0ec 0 std::__ndk1::__function::__func<NIDSetupTriggerPopup::commonSetup(NID, unsigned short, std::__ndk1::vector<cocos2d::CCNode*, std::__ndk1::allocator<cocos2d::CCNode*> >&&, cocos2d::CCNode*, cocos2d::CCNode*, std::__ndk1::function<void (std::__ndk1::vector<cocos2d::CCNode*, std::__ndk1::allocator<cocos2d::CCNode*> >&&)>&&)::$_0, std::__ndk1::allocator<NIDSetupTriggerPopup::commonSetup(NID, unsigned short, std::__ndk1::vector<cocos2d::CCNode*, std::__ndk1::allocator<cocos2d::CCNode*> >&&, cocos2d::CCNode*, cocos2d::CCNode*, std::__ndk1::function<void (std::__ndk1::vector<cocos2d::CCNode*, std::__ndk1::allocator<cocos2d::CCNode*> >&&)>&&)::$_0>, void (std::__ndk1::basic_string<char, std::__ndk1::char_traits<char>, std::__ndk1::allocator<char> > const&)>::destroy_deallocate()
PUBLIC 7d0f0 0 std::__ndk1::__function::__func<NIDSetupTriggerPopup::commonSetup(NID, unsigned short, std::__ndk1::vector<cocos2d::CCNode*, std::__ndk1::allocator<cocos2d::CCNode*> >&&, cocos2d::CCNode*, cocos2d::CCNode*, std::__ndk1::function<void (std::__ndk1::vector<cocos2d::CCNode*, std::__ndk1::allocator<cocos2d::CCNode*> >&&)>&&)::$_0, std::__ndk1::allocator<NIDSetupTriggerPopup::commonSetup(NID, unsigned short, std::__ndk1::vector<cocos2d::CCNode*, std::__ndk1::allocator<cocos2d::CCNode*> >&&, cocos2d::CCNode*, cocos2d::CCNode*, std::__ndk1::function<void (std::__ndk1::vector<cocos2d::CCNode*, std::__ndk1::allocator<cocos2d::CCNode*> >&&)>&&)::$_0>, void (std::__ndk1::basic_string<char, std::__ndk1::char_traits<char>, std::__ndk1::allocator<char> > const&)>::operator()(std::__ndk1::basic_string<char, std::__ndk1::char_traits<char>, std::__ndk1::allocator<char> > const&)
PUBLIC 7d32c 0 std::__ndk1::__function::__func<NIDSetupTriggerPopup::commonSetup(NID, unsigned short, std::__ndk1::vector<cocos2d::CCNode*, std::__ndk1::allocator<cocos2d::CCNode*> >&&, cocos2d::CCNode*, cocos2d::CCNode*, std::__ndk1::function<void (std::__ndk1::vector<cocos2d::CCNode*, std::__ndk1::allocator<cocos2d::CCNode*> >&&)>&&)::$_0, std::__ndk1::allocator<NIDSetupTriggerPopup::commonSetup(NID, unsigned short, std::__ndk1::vector<cocos2d::CCNode*, std::__ndk1::allocator<cocos2d::CCNode*> >&&, cocos2d::CCNode*, cocos2d::CCNode*, std::__ndk1::function<void (std::__ndk1::vector<cocos2d::CCNode*, std::__ndk1::allocator<cocos2d::CCNode*> >&&)>&&)::$_0>, void (std::__ndk1::basic_string<char, std::__ndk1::char_traits<char>, std::__ndk1::allocator<char> > const&)>::target(std::type_info const&) const
PUBLIC 7d348 0 std::__ndk1::__function::__func<NIDSetupTriggerPopup::commonSetup(NID, unsigned short, std::__ndk1::vector<cocos2d::CCNode*, std::__ndk1::allocator<cocos2d::CCNode*> >&&, cocos2d::CCNode*, cocos2d::CCNode*, std::__ndk1::function<void (std::__ndk1::vector<cocos2d::CCNode*, std::__ndk1::allocator<cocos2d::CCNode*> >&&)>&&)::$_0, std::__ndk1::allocator<NIDSetupTriggerPopup::commonSetup(NID, unsigned short, std::__ndk1::vector<cocos2d::CCNode*, std::__ndk1::allocator<cocos2d::CCNode*> >&&, cocos2d::CCNode*, cocos2d::CCNode*, std::__ndk1::function<void (std::__ndk1::vector<cocos2d::CCNode*, std::__ndk1::allocator<cocos2d::CCNode*> >&&)>&&)::$_0>, void (std::__ndk1::basic_string<char, std::__ndk1::char_traits<char>, std::__ndk1::allocator<char> > const&)>::target_type() const
PUBLIC 7d354 0 __cxx_global_var_init.1
PUBLIC 7d7c4 0 geode::modifier::ModifyBase<geode::modifier::ModifyDerive<NIDCollisionBlockPopup, CollisionBlockPopup> >::~ModifyBase()
PUBLIC 7d7e0 0 geode::modifier::ModifyDerive<NIDCollisionBlockPopup, CollisionBlockPopup>::apply()
PUBLIC 7e110 0 geode::modifier::ModifyBase<geode::modifier::ModifyDerive<NIDCollisionBlockPopup, CollisionBlockPopup> >::apply()
PUBLIC 7e114 0 geode::modifier::AsStaticFunction_textChanged<NIDCollisionBlockPopup, void (NIDCollisionBlockPopup::*)(CCTextInputNode*)>::Impl<void (NIDCollisionBlockPopup::*)(CCTextInputNode*)>::function(NIDCollisionBlockPopup*, CCTextInputNode*)
PUBLIC 7e5a4 0 geode::modifier::AsStaticFunction_init<NIDCollisionBlockPopup, bool (NIDCollisionBlockPopup::*)(EffectGameObject*, cocos2d::CCArray*)>::Impl<bool (NIDCollisionBlockPopup::*)(EffectGameObject*, cocos2d::CCArray*)>::function(NIDCollisionBlockPopup*, EffectGameObject*, cocos2d::CCArray*)
PUBLIC 7ef0c 0 geode::modifier::AsStaticFunction_onItemIDArrow<NIDCollisionBlockPopup, void (NIDCollisionBlockPopup::*)(cocos2d::CCObject*)>::Impl<void (NIDCollisionBlockPopup::*)(cocos2d::CCObject*)>::function(NIDCollisionBlockPopup*, cocos2d::CCObject*)
PUBLIC 7f2ec 0 geode::addresser::Addresser::addressOfVirtual<void, CollisionBlockPopup, CCTextInputNode*>(void (CollisionBlockPopup::*)(CCTextInputNode*))
PUBLIC 7f394 0 CollisionBlockPopup::CollisionBlockPopup(geode::ZeroConstructorType)
PUBLIC 7f420 0 geode::modifier::FieldIntermediate<NIDCollisionBlockPopup, CollisionBlockPopup>::self()
PUBLIC 7f5bc 0 geode::modifier::FieldIntermediate<NIDCollisionBlockPopup, CollisionBlockPopup>::fieldDestructor(void*)
PUBLIC 7f608 0 NIDCollisionBlockPopup::onEditIDNameButton(cocos2d::CCObject*)
PUBLIC 7f9f0 0 std::__ndk1::vector<cocos2d::CCNode*, std::__ndk1::allocator<cocos2d::CCNode*> >::__throw_length_error[abi:ne190000]() const
PUBLIC 7fa04 0 std::__ndk1::__function::__func<NIDCollisionBlockPopup::init(EffectGameObject*, cocos2d::CCArray*)::{lambda(cocos2d::CCNode*)#1}, std::__ndk1::allocator<NIDCollisionBlockPopup::init(EffectGameObject*, cocos2d::CCArray*)::{lambda(cocos2d::CCNode*)#1}>, bool (cocos2d::CCNode*)>::~__func()
PUBLIC 7fa08 0 std::__ndk1::__function::__func<NIDCollisionBlockPopup::init(EffectGameObject*, cocos2d::CCArray*)::{lambda(cocos2d::CCNode*)#1}, std::__ndk1::allocator<NIDCollisionBlockPopup::init(EffectGameObject*, cocos2d::CCArray*)::{lambda(cocos2d::CCNode*)#1}>, bool (cocos2d::CCNode*)>::__clone() const
PUBLIC 7fa2c 0 std::__ndk1::__function::__func<NIDCollisionBlockPopup::init(EffectGameObject*, cocos2d::CCArray*)::{lambda(cocos2d::CCNode*)#1}, std::__ndk1::allocator<NIDCollisionBlockPopup::init(EffectGameObject*, cocos2d::CCArray*)::{lambda(cocos2d::CCNode*)#1}>, bool (cocos2d::CCNode*)>::__clone(std::__ndk1::__function::__base<bool (cocos2d::CCNode*)>*) const
PUBLIC 7fa3c 0 std::__ndk1::__function::__func<NIDCollisionBlockPopup::init(EffectGameObject*, cocos2d::CCArray*)::{lambda(cocos2d::CCNode*)#1}, std::__ndk1::allocator<NIDCollisionBlockPopup::init(EffectGameObject*, cocos2d::CCArray*)::{lambda(cocos2d::CCNode*)#1}>, bool (cocos2d::CCNode*)>::destroy()
PUBLIC 7fa40 0 std::__ndk1::__function::__func<NIDCollisionBlockPopup::init(EffectGameObject*, cocos2d::CCArray*)::{lambda(cocos2d::CCNode*)#1}, std::__ndk1::allocator<NIDCollisionBlockPopup::init(EffectGameObject*, cocos2d::CCArray*)::{lambda(cocos2d::CCNode*)#1}>, bool (cocos2d::CCNode*)>::destroy_deallocate()
PUBLIC 7fa44 0 std::__ndk1::__function::__func<NIDCollisionBlockPopup::init(EffectGameObject*, cocos2d::CCArray*)::{lambda(cocos2d::CCNode*)#1}, std::__ndk1::allocator<NIDCollisionBlockPopup::init(EffectGameObject*, cocos2d::CCArray*)::{lambda(cocos2d::CCNode*)#1}>, bool (cocos2d::CCNode*)>::operator()(cocos2d::CCNode*&&)
PUBLIC 7fadc 0 std::__ndk1::__function::__func<NIDCollisionBlockPopup::init(EffectGameObject*, cocos2d::CCArray*)::{lambda(cocos2d::CCNode*)#1}, std::__ndk1::allocator<NIDCollisionBlockPopup::init(EffectGameObject*, cocos2d::CCArray*)::{lambda(cocos2d::CCNode*)#1}>, bool (cocos2d::CCNode*)>::target(std::type_info const&) const
PUBLIC 7faf8 0 std::__ndk1::__function::__func<NIDCollisionBlockPopup::init(EffectGameObject*, cocos2d::CCArray*)::{lambda(cocos2d::CCNode*)#1}, std::__ndk1::allocator<NIDCollisionBlockPopup::init(EffectGameObject*, cocos2d::CCArray*)::{lambda(cocos2d::CCNode*)#1}>, bool (cocos2d::CCNode*)>::target_type() const
PUBLIC 7fb04 0 std::__ndk1::__function::__func<NIDCollisionBlockPopup::init(EffectGameObject*, cocos2d::CCArray*)::{lambda(cocos2d::CCNode*)#2}, std::__ndk1::allocator<NIDCollisionBlockPopup::init(EffectGameObject*, cocos2d::CCArray*)::{lambda(cocos2d::CCNode*)#2}>, bool (cocos2d::CCNode*)>::~__func()
PUBLIC 7fb08 0 std::__ndk1::__function::__func<NIDCollisionBlockPopup::init(EffectGameObject*, cocos2d::CCArray*)::{lambda(cocos2d::CCNode*)#2}, std::__ndk1::allocator<NIDCollisionBlockPopup::init(EffectGameObject*, cocos2d::CCArray*)::{lambda(cocos2d::CCNode*)#2}>, bool (cocos2d::CCNode*)>::__clone() const
PUBLIC 7fb40 0 std::__ndk1::__function::__func<NIDCollisionBlockPopup::init(EffectGameObject*, cocos2d::CCArray*)::{lambda(cocos2d::CCNode*)#2}, std::__ndk1::allocator<NIDCollisionBlockPopup::init(EffectGameObject*, cocos2d::CCArray*)::{lambda(cocos2d::CCNode*)#2}>, bool (cocos2d::CCNode*)>::__clone(std::__ndk1::__function::__base<bool (cocos2d::CCNode*)>*) const
PUBLIC 7fb58 0 std::__ndk1::__function::__func<NIDCollisionBlockPopup::init(EffectGameObject*, cocos2d::CCArray*)::{lambda(cocos2d::CCNode*)#2}, std::__ndk1::allocator<NIDCollisionBlockPopup::init(EffectGameObject*, cocos2d::CCArray*)::{lambda(cocos2d::CCNode*)#2}>, bool (cocos2d::CCNode*)>::destroy()
PUBLIC 7fb5c 0 std::__ndk1::__function::__func<NIDCollisionBlockPopup::init(EffectGameObject*, cocos2d::CCArray*)::{lambda(cocos2d::CCNode*)#2}, std::__ndk1::allocator<NIDCollisionBlockPopup::init(EffectGameObject*, cocos2d::CCArray*)::{lambda(cocos2d::CCNode*)#2}>, bool (cocos2d::CCNode*)>::destroy_deallocate()
PUBLIC 7fb60 0 std::__ndk1::__function::__func<NIDCollisionBlockPopup::init(EffectGameObject*, cocos2d::CCArray*)::{lambda(cocos2d::CCNode*)#2}, std::__ndk1::allocator<NIDCollisionBlockPopup::init(EffectGameObject*, cocos2d::CCArray*)::{lambda(cocos2d::CCNode*)#2}>, bool (cocos2d::CCNode*)>::operator()(cocos2d::CCNode*&&)
PUBLIC 7fbd0 0 std::__ndk1::__function::__func<NIDCollisionBlockPopup::init(EffectGameObject*, cocos2d::CCArray*)::{lambda(cocos2d::CCNode*)#2}, std::__ndk1::allocator<NIDCollisionBlockPopup::init(EffectGameObject*, cocos2d::CCArray*)::{lambda(cocos2d::CCNode*)#2}>, bool (cocos2d::CCNode*)>::target(std::type_info const&) const
PUBLIC 7fbec 0 std::__ndk1::__function::__func<NIDCollisionBlockPopup::init(EffectGameObject*, cocos2d::CCArray*)::{lambda(cocos2d::CCNode*)#2}, std::__ndk1::allocator<NIDCollisionBlockPopup::init(EffectGameObject*, cocos2d::CCArray*)::{lambda(cocos2d::CCNode*)#2}>, bool (cocos2d::CCNode*)>::target_type() const
PUBLIC 7fbf8 0 std::__ndk1::__function::__func<NIDCollisionBlockPopup::init(EffectGameObject*, cocos2d::CCArray*)::{lambda(cocos2d::CCNode*)#3}, std::__ndk1::allocator<NIDCollisionBlockPopup::init(EffectGameObject*, cocos2d::CCArray*)::{lambda(cocos2d::CCNode*)#3}>, bool (cocos2d::CCNode*)>::~__func()
PUBLIC 7fbfc 0 std::__ndk1::__function::__func<NIDCollisionBlockPopup::init(EffectGameObject*, cocos2d::CCArray*)::{lambda(cocos2d::CCNode*)#3}, std::__ndk1::allocator<NIDCollisionBlockPopup::init(EffectGameObject*, cocos2d::CCArray*)::{lambda(cocos2d::CCNode*)#3}>, bool (cocos2d::CCNode*)>::__clone() const
PUBLIC 7fc34 0 std::__ndk1::__function::__func<NIDCollisionBlockPopup::init(EffectGameObject*, cocos2d::CCArray*)::{lambda(cocos2d::CCNode*)#3}, std::__ndk1::allocator<NIDCollisionBlockPopup::init(EffectGameObject*, cocos2d::CCArray*)::{lambda(cocos2d::CCNode*)#3}>, bool (cocos2d::CCNode*)>::__clone(std::__ndk1::__function::__base<bool (cocos2d::CCNode*)>*) const
PUBLIC 7fc4c 0 std::__ndk1::__function::__func<NIDCollisionBlockPopup::init(EffectGameObject*, cocos2d::CCArray*)::{lambda(cocos2d::CCNode*)#3}, std::__ndk1::allocator<NIDCollisionBlockPopup::init(EffectGameObject*, cocos2d::CCArray*)::{lambda(cocos2d::CCNode*)#3}>, bool (cocos2d::CCNode*)>::destroy()
PUBLIC 7fc50 0 std::__ndk1::__function::__func<NIDCollisionBlockPopup::init(EffectGameObject*, cocos2d::CCArray*)::{lambda(cocos2d::CCNode*)#3}, std::__ndk1::allocator<NIDCollisionBlockPopup::init(EffectGameObject*, cocos2d::CCArray*)::{lambda(cocos2d::CCNode*)#3}>, bool (cocos2d::CCNode*)>::destroy_deallocate()
PUBLIC 7fc54 0 std::__ndk1::__function::__func<NIDCollisionBlockPopup::init(EffectGameObject*, cocos2d::CCArray*)::{lambda(cocos2d::CCNode*)#3}, std::__ndk1::allocator<NIDCollisionBlockPopup::init(EffectGameObject*, cocos2d::CCArray*)::{lambda(cocos2d::CCNode*)#3}>, bool (cocos2d::CCNode*)>::operator()(cocos2d::CCNode*&&)
PUBLIC 7fcd4 0 std::__ndk1::__function::__func<NIDCollisionBlockPopup::init(EffectGameObject*, cocos2d::CCArray*)::{lambda(cocos2d::CCNode*)#3}, std::__ndk1::allocator<NIDCollisionBlockPopup::init(EffectGameObject*, cocos2d::CCArray*)::{lambda(cocos2d::CCNode*)#3}>, bool (cocos2d::CCNode*)>::target(std::type_info const&) const
PUBLIC 7fcf0 0 std::__ndk1::__function::__func<NIDCollisionBlockPopup::init(EffectGameObject*, cocos2d::CCArray*)::{lambda(cocos2d::CCNode*)#3}, std::__ndk1::allocator<NIDCollisionBlockPopup::init(EffectGameObject*, cocos2d::CCArray*)::{lambda(cocos2d::CCNode*)#3}>, bool (cocos2d::CCNode*)>::target_type() const
PUBLIC 7fcfc 0 std::__ndk1::__function::__func<NIDCollisionBlockPopup::init(EffectGameObject*, cocos2d::CCArray*)::{lambda(cocos2d::CCNode*)#4}, std::__ndk1::allocator<NIDCollisionBlockPopup::init(EffectGameObject*, cocos2d::CCArray*)::{lambda(cocos2d::CCNode*)#4}>, bool (cocos2d::CCNode*)>::~__func()
PUBLIC 7fd00 0 std::__ndk1::__function::__func<NIDCollisionBlockPopup::init(EffectGameObject*, cocos2d::CCArray*)::{lambda(cocos2d::CCNode*)#4}, std::__ndk1::allocator<NIDCollisionBlockPopup::init(EffectGameObject*, cocos2d::CCArray*)::{lambda(cocos2d::CCNode*)#4}>, bool (cocos2d::CCNode*)>::__clone() const
PUBLIC 7fd38 0 std::__ndk1::__function::__func<NIDCollisionBlockPopup::init(EffectGameObject*, cocos2d::CCArray*)::{lambda(cocos2d::CCNode*)#4}, std::__ndk1::allocator<NIDCollisionBlockPopup::init(EffectGameObject*, cocos2d::CCArray*)::{lambda(cocos2d::CCNode*)#4}>, bool (cocos2d::CCNode*)>::__clone(std::__ndk1::__function::__base<bool (cocos2d::CCNode*)>*) const
PUBLIC 7fd50 0 std::__ndk1::__function::__func<NIDCollisionBlockPopup::init(EffectGameObject*, cocos2d::CCArray*)::{lambda(cocos2d::CCNode*)#4}, std::__ndk1::allocator<NIDCollisionBlockPopup::init(EffectGameObject*, cocos2d::CCArray*)::{lambda(cocos2d::CCNode*)#4}>, bool (cocos2d::CCNode*)>::destroy()
PUBLIC 7fd54 0 std::__ndk1::__function::__func<NIDCollisionBlockPopup::init(EffectGameObject*, cocos2d::CCArray*)::{lambda(cocos2d::CCNode*)#4}, std::__ndk1::allocator<NIDCollisionBlockPopup::init(EffectGameObject*, cocos2d::CCArray*)::{lambda(cocos2d::CCNode*)#4}>, bool (cocos2d::CCNode*)>::destroy_deallocate()
PUBLIC 7fd58 0 std::__ndk1::__function::__func<NIDCollisionBlockPopup::init(EffectGameObject*, cocos2d::CCArray*)::{lambda(cocos2d::CCNode*)#4}, std::__ndk1::allocator<NIDCollisionBlockPopup::init(EffectGameObject*, cocos2d::CCArray*)::{lambda(cocos2d::CCNode*)#4}>, bool (cocos2d::CCNode*)>::operator()(cocos2d::CCNode*&&)
PUBLIC 7fdbc 0 std::__ndk1::__function::__func<NIDCollisionBlockPopup::init(EffectGameObject*, cocos2d::CCArray*)::{lambda(cocos2d::CCNode*)#4}, std::__ndk1::allocator<NIDCollisionBlockPopup::init(EffectGameObject*, cocos2d::CCArray*)::{lambda(cocos2d::CCNode*)#4}>, bool (cocos2d::CCNode*)>::target(std::type_info const&) const
PUBLIC 7fdd8 0 std::__ndk1::__function::__func<NIDCollisionBlockPopup::init(EffectGameObject*, cocos2d::CCArray*)::{lambda(cocos2d::CCNode*)#4}, std::__ndk1::allocator<NIDCollisionBlockPopup::init(EffectGameObject*, cocos2d::CCArray*)::{lambda(cocos2d::CCNode*)#4}>, bool (cocos2d::CCNode*)>::target_type() const
PUBLIC 7fde4 0 std::__ndk1::__function::__base<bool (cocos2d::CCNode*)>::~__base()
PUBLIC 7fde8 0 std::__ndk1::__function::__func<NIDCollisionBlockPopup::init(EffectGameObject*, cocos2d::CCArray*)::{lambda(cocos2d::CCNode*)#5}, std::__ndk1::allocator<NIDCollisionBlockPopup::init(EffectGameObject*, cocos2d::CCArray*)::{lambda(cocos2d::CCNode*)#5}>, bool (cocos2d::CCNode*)>::~__func()
PUBLIC 7fdec 0 std::__ndk1::__function::__func<NIDCollisionBlockPopup::init(EffectGameObject*, cocos2d::CCArray*)::{lambda(cocos2d::CCNode*)#5}, std::__ndk1::allocator<NIDCollisionBlockPopup::init(EffectGameObject*, cocos2d::CCArray*)::{lambda(cocos2d::CCNode*)#5}>, bool (cocos2d::CCNode*)>::__clone() const
PUBLIC 7fe24 0 std::__ndk1::__function::__func<NIDCollisionBlockPopup::init(EffectGameObject*, cocos2d::CCArray*)::{lambda(cocos2d::CCNode*)#5}, std::__ndk1::allocator<NIDCollisionBlockPopup::init(EffectGameObject*, cocos2d::CCArray*)::{lambda(cocos2d::CCNode*)#5}>, bool (cocos2d::CCNode*)>::__clone(std::__ndk1::__function::__base<bool (cocos2d::CCNode*)>*) const
PUBLIC 7fe3c 0 std::__ndk1::__function::__func<NIDCollisionBlockPopup::init(EffectGameObject*, cocos2d::CCArray*)::{lambda(cocos2d::CCNode*)#5}, std::__ndk1::allocator<NIDCollisionBlockPopup::init(EffectGameObject*, cocos2d::CCArray*)::{lambda(cocos2d::CCNode*)#5}>, bool (cocos2d::CCNode*)>::destroy()
PUBLIC 7fe40 0 std::__ndk1::__function::__func<NIDCollisionBlockPopup::init(EffectGameObject*, cocos2d::CCArray*)::{lambda(cocos2d::CCNode*)#5}, std::__ndk1::allocator<NIDCollisionBlockPopup::init(EffectGameObject*, cocos2d::CCArray*)::{lambda(cocos2d::CCNode*)#5}>, bool (cocos2d::CCNode*)>::destroy_deallocate()
PUBLIC 7fe44 0 std::__ndk1::__function::__func<NIDCollisionBlockPopup::init(EffectGameObject*, cocos2d::CCArray*)::{lambda(cocos2d::CCNode*)#5}, std::__ndk1::allocator<NIDCollisionBlockPopup::init(EffectGameObject*, cocos2d::CCArray*)::{lambda(cocos2d::CCNode*)#5}>, bool (cocos2d::CCNode*)>::operator()(cocos2d::CCNode*&&)
PUBLIC 7fea8 0 std::__ndk1::__function::__func<NIDCollisionBlockPopup::init(EffectGameObject*, cocos2d::CCArray*)::{lambda(cocos2d::CCNode*)#5}, std::__ndk1::allocator<NIDCollisionBlockPopup::init(EffectGameObject*, cocos2d::CCArray*)::{lambda(cocos2d::CCNode*)#5}>, bool (cocos2d::CCNode*)>::target(std::type_info const&) const
PUBLIC 7fec4 0 std::__ndk1::__function::__func<NIDCollisionBlockPopup::init(EffectGameObject*, cocos2d::CCArray*)::{lambda(cocos2d::CCNode*)#5}, std::__ndk1::allocator<NIDCollisionBlockPopup::init(EffectGameObject*, cocos2d::CCArray*)::{lambda(cocos2d::CCNode*)#5}>, bool (cocos2d::CCNode*)>::target_type() const
PUBLIC 7fed0 0 std::__ndk1::__hash_table<std::__ndk1::__hash_value_type<unsigned short, NIDSetupTriggerPopup::IDInputInfo>, std::__ndk1::__unordered_map_hasher<unsigned short, std::__ndk1::__hash_value_type<unsigned short, NIDSetupTriggerPopup::IDInputInfo>, std::__ndk1::hash<unsigned short>, std::__ndk1::equal_to<unsigned short>, true>, std::__ndk1::__unordered_map_equal<unsigned short, std::__ndk1::__hash_value_type<unsigned short, NIDSetupTriggerPopup::IDInputInfo>, std::__ndk1::equal_to<unsigned short>, std::__ndk1::hash<unsigned short>, true>, std::__ndk1::allocator<std::__ndk1::__hash_value_type<unsigned short, NIDSetupTriggerPopup::IDInputInfo> > >::__emplace_unique_key_args<unsigned short, std::__ndk1::piecewise_construct_t const&, std::__ndk1::tuple<unsigned short const&>, std::__ndk1::tuple<> >(unsigned short const&, std::__ndk1::piecewise_construct_t const&, std::__ndk1::tuple<unsigned short const&>, std::__ndk1::tuple<>)
PUBLIC 801ec 0 std::__ndk1::__function::__func<NIDCollisionBlockPopup::init(EffectGameObject*, cocos2d::CCArray*)::{lambda(std::__ndk1::basic_string<char, std::__ndk1::char_traits<char>, std::__ndk1::allocator<char> > const&)#1}, std::__ndk1::allocator<NIDCollisionBlockPopup::init(EffectGameObject*, cocos2d::CCArray*)::{lambda(std::__ndk1::basic_string<char, std::__ndk1::char_traits<char>, std::__ndk1::allocator<char> > const&)#1}>, void (std::__ndk1::basic_string<char, std::__ndk1::char_traits<char>, std::__ndk1::allocator<char> > const&)>::~__func()
PUBLIC 801f0 0 std::__ndk1::__function::__func<NIDCollisionBlockPopup::init(EffectGameObject*, cocos2d::CCArray*)::{lambda(std::__ndk1::basic_string<char, std::__ndk1::char_traits<char>, std::__ndk1::allocator<char> > const&)#1}, std::__ndk1::allocator<NIDCollisionBlockPopup::init(EffectGameObject*, cocos2d::CCArray*)::{lambda(std::__ndk1::basic_string<char, std::__ndk1::char_traits<char>, std::__ndk1::allocator<char> > const&)#1}>, void (std::__ndk1::basic_string<char, std::__ndk1::char_traits<char>, std::__ndk1::allocator<char> > const&)>::__clone() const
PUBLIC 80224 0 std::__ndk1::__function::__func<NIDCollisionBlockPopup::init(EffectGameObject*, cocos2d::CCArray*)::{lambda(std::__ndk1::basic_string<char, std::__ndk1::char_traits<char>, std::__ndk1::allocator<char> > const&)#1}, std::__ndk1::allocator<NIDCollisionBlockPopup::init(EffectGameObject*, cocos2d::CCArray*)::{lambda(std::__ndk1::basic_string<char, std::__ndk1::char_traits<char>, std::__ndk1::allocator<char> > const&)#1}>, void (std::__ndk1::basic_string<char, std::__ndk1::char_traits<char>, std::__ndk1::allocator<char> > const&)>::__clone(std::__ndk1::__function::__base<void (std::__ndk1::basic_string<char, std::__ndk1::char_traits<char>, std::__ndk1::allocator<char> > const&)>*) const
PUBLIC 80238 0 std::__ndk1::__function::__func<NIDCollisionBlockPopup::init(EffectGameObject*, cocos2d::CCArray*)::{lambda(std::__ndk1::basic_string<char, std::__ndk1::char_traits<char>, std::__ndk1::allocator<char> > const&)#1}, std::__ndk1::allocator<NIDCollisionBlockPopup::init(EffectGameObject*, cocos2d::CCArray*)::{lambda(std::__ndk1::basic_string<char, std::__ndk1::char_traits<char>, std::__ndk1::allocator<char> > const&)#1}>, void (std::__ndk1::basic_string<char, std::__ndk1::char_traits<char>, std::__ndk1::allocator<char> > const&)>::destroy()
PUBLIC 8023c 0 std::__ndk1::__function::__func<NIDCollisionBlockPopup::init(EffectGameObject*, cocos2d::CCArray*)::{lambda(std::__ndk1::basic_string<char, std::__ndk1::char_traits<char>, std::__ndk1::allocator<char> > const&)#1}, std::__ndk1::allocator<NIDCollisionBlockPopup::init(EffectGameObject*, cocos2d::CCArray*)::{lambda(std::__ndk1::basic_string<char, std::__ndk1::char_traits<char>, std::__ndk1::allocator<char> > const&)#1}>, void (std::__ndk1::basic_string<char, std::__ndk1::char_traits<char>, std::__ndk1::allocator<char> > const&)>::destroy_deallocate()
PUBLIC 80240 0 std::__ndk1::__function::__func<NIDCollisionBlockPopup::init(EffectGameObject*, cocos2d::CCArray*)::{lambda(std::__ndk1::basic_string<char, std::__ndk1::char_traits<char>, std::__ndk1::allocator<char> > const&)#1}, std::__ndk1::allocator<NIDCollisionBlockPopup::init(EffectGameObject*, cocos2d::CCArray*)::{lambda(std::__ndk1::basic_string<char, std::__ndk1::char_traits<char>, std::__ndk1::allocator<char> > const&)#1}>, void (std::__ndk1::basic_string<char, std::__ndk1::char_traits<char>, std::__ndk1::allocator<char> > const&)>::operator()(std::__ndk1::basic_string<char, std::__ndk1::char_traits<char>, std::__ndk1::allocator<char> > const&)
PUBLIC 8042c 0 std::__ndk1::__function::__func<NIDCollisionBlockPopup::init(EffectGameObject*, cocos2d::CCArray*)::{lambda(std::__ndk1::basic_string<char, std::__ndk1::char_traits<char>, std::__ndk1::allocator<char> > const&)#1}, std::__ndk1::allocator<NIDCollisionBlockPopup::init(EffectGameObject*, cocos2d::CCArray*)::{lambda(std::__ndk1::basic_string<char, std::__ndk1::char_traits<char>, std::__ndk1::allocator<char> > const&)#1}>, void (std::__ndk1::basic_string<char, std::__ndk1::char_traits<char>, std::__ndk1::allocator<char> > const&)>::target(std::type_info const&) const
PUBLIC 80448 0 std::__ndk1::__function::__func<NIDCollisionBlockPopup::init(EffectGameObject*, cocos2d::CCArray*)::{lambda(std::__ndk1::basic_string<char, std::__ndk1::char_traits<char>, std::__ndk1::allocator<char> > const&)#1}, std::__ndk1::allocator<NIDCollisionBlockPopup::init(EffectGameObject*, cocos2d::CCArray*)::{lambda(std::__ndk1::basic_string<char, std::__ndk1::char_traits<char>, std::__ndk1::allocator<char> > const&)#1}>, void (std::__ndk1::basic_string<char, std::__ndk1::char_traits<char>, std::__ndk1::allocator<char> > const&)>::target_type() const
PUBLIC 80454 0 std::__ndk1::__function::__func<NIDCollisionBlockPopup::onEditIDNameButton(cocos2d::CCObject*)::{lambda(short)#1}, std::__ndk1::allocator<NIDCollisionBlockPopup::onEditIDNameButton(cocos2d::CCObject*)::{lambda(short)#1}>, void (short)>::~__func()
PUBLIC 80458 0 std::__ndk1::__function::__func<NIDCollisionBlockPopup::onEditIDNameButton(cocos2d::CCObject*)::{lambda(short)#1}, std::__ndk1::allocator<NIDCollisionBlockPopup::onEditIDNameButton(cocos2d::CCObject*)::{lambda(short)#1}>, void (short)>::__clone() const
PUBLIC 8048c 0 std::__ndk1::__function::__func<NIDCollisionBlockPopup::onEditIDNameButton(cocos2d::CCObject*)::{lambda(short)#1}, std::__ndk1::allocator<NIDCollisionBlockPopup::onEditIDNameButton(cocos2d::CCObject*)::{lambda(short)#1}>, void (short)>::__clone(std::__ndk1::__function::__base<void (short)>*) const
PUBLIC 804a0 0 std::__ndk1::__function::__func<NIDCollisionBlockPopup::onEditIDNameButton(cocos2d::CCObject*)::{lambda(short)#1}, std::__ndk1::allocator<NIDCollisionBlockPopup::onEditIDNameButton(cocos2d::CCObject*)::{lambda(short)#1}>, void (short)>::destroy()
PUBLIC 804a4 0 std::__ndk1::__function::__func<NIDCollisionBlockPopup::onEditIDNameButton(cocos2d::CCObject*)::{lambda(short)#1}, std::__ndk1::allocator<NIDCollisionBlockPopup::onEditIDNameButton(cocos2d::CCObject*)::{lambda(short)#1}>, void (short)>::destroy_deallocate()
PUBLIC 804a8 0 std::__ndk1::__function::__func<NIDCollisionBlockPopup::onEditIDNameButton(cocos2d::CCObject*)::{lambda(short)#1}, std::__ndk1::allocator<NIDCollisionBlockPopup::onEditIDNameButton(cocos2d::CCObject*)::{lambda(short)#1}>, void (short)>::operator()(short&&)
PUBLIC 80580 0 std::__ndk1::__function::__func<NIDCollisionBlockPopup::onEditIDNameButton(cocos2d::CCObject*)::{lambda(short)#1}, std::__ndk1::allocator<NIDCollisionBlockPopup::onEditIDNameButton(cocos2d::CCObject*)::{lambda(short)#1}>, void (short)>::target(std::type_info const&) const
PUBLIC 8059c 0 std::__ndk1::__function::__func<NIDCollisionBlockPopup::onEditIDNameButton(cocos2d::CCObject*)::{lambda(short)#1}, std::__ndk1::allocator<NIDCollisionBlockPopup::onEditIDNameButton(cocos2d::CCObject*)::{lambda(short)#1}>, void (short)>::target_type() const
PUBLIC 805a8 0 std::__ndk1::__function::__func<NIDCollisionBlockPopup::onEditIDNameButton(cocos2d::CCObject*)::{lambda()#1}, std::__ndk1::allocator<NIDCollisionBlockPopup::onEditIDNameButton(cocos2d::CCObject*)::{lambda()#1}>, void ()>::~__func()
PUBLIC 805ac 0 std::__ndk1::__function::__func<NIDCollisionBlockPopup::onEditIDNameButton(cocos2d::CCObject*)::{lambda()#1}, std::__ndk1::allocator<NIDCollisionBlockPopup::onEditIDNameButton(cocos2d::CCObject*)::{lambda()#1}>, void ()>::__clone() const
PUBLIC 805e4 0 std::__ndk1::__function::__func<NIDCollisionBlockPopup::onEditIDNameButton(cocos2d::CCObject*)::{lambda()#1}, std::__ndk1::allocator<NIDCollisionBlockPopup::onEditIDNameButton(cocos2d::CCObject*)::{lambda()#1}>, void ()>::__clone(std::__ndk1::__function::__base<void ()>*) const
PUBLIC 805fc 0 std::__ndk1::__function::__func<NIDCollisionBlockPopup::onEditIDNameButton(cocos2d::CCObject*)::{lambda()#1}, std::__ndk1::allocator<NIDCollisionBlockPopup::onEditIDNameButton(cocos2d::CCObject*)::{lambda()#1}>, void ()>::destroy()
PUBLIC 80600 0 std::__ndk1::__function::__func<NIDCollisionBlockPopup::onEditIDNameButton(cocos2d::CCObject*)::{lambda()#1}, std::__ndk1::allocator<NIDCollisionBlockPopup::onEditIDNameButton(cocos2d::CCObject*)::{lambda()#1}>, void ()>::destroy_deallocate()
PUBLIC 80604 0 std::__ndk1::__function::__func<NIDCollisionBlockPopup::onEditIDNameButton(cocos2d::CCObject*)::{lambda()#1}, std::__ndk1::allocator<NIDCollisionBlockPopup::onEditIDNameButton(cocos2d::CCObject*)::{lambda()#1}>, void ()>::operator()()
PUBLIC 8061c 0 std::__ndk1::__function::__func<NIDCollisionBlockPopup::onEditIDNameButton(cocos2d::CCObject*)::{lambda()#1}, std::__ndk1::allocator<NIDCollisionBlockPopup::onEditIDNameButton(cocos2d::CCObject*)::{lambda()#1}>, void ()>::target(std::type_info const&) const
PUBLIC 80638 0 std::__ndk1::__function::__func<NIDCollisionBlockPopup::onEditIDNameButton(cocos2d::CCObject*)::{lambda()#1}, std::__ndk1::allocator<NIDCollisionBlockPopup::onEditIDNameButton(cocos2d::CCObject*)::{lambda()#1}>, void ()>::target_type() const
PUBLIC 80644 0 __cxx_global_var_init.1
PUBLIC 80ab4 0 geode::modifier::ModifyBase<geode::modifier::ModifyDerive<NIDGJFollowCommandLayer, GJFollowCommandLayer> >::~ModifyBase()
PUBLIC 80ad0 0 geode::modifier::ModifyDerive<NIDGJFollowCommandLayer, GJFollowCommandLayer>::apply()
PUBLIC 8155c 0 geode::modifier::ModifyBase<geode::modifier::ModifyDerive<NIDGJFollowCommandLayer, GJFollowCommandLayer> >::apply()
PUBLIC 81560 0 geode::modifier::AsStaticFunction_textChanged<NIDGJFollowCommandLayer, void (NIDGJFollowCommandLayer::*)(CCTextInputNode*)>::Impl<void (NIDGJFollowCommandLayer::*)(CCTextInputNode*)>::function(NIDGJFollowCommandLayer*, CCTextInputNode*)
PUBLIC 8158c 0 geode::modifier::AsStaticFunction_init<NIDGJFollowCommandLayer, bool (NIDGJFollowCommandLayer::*)(EffectGameObject*, cocos2d::CCArray*)>::Impl<bool (NIDGJFollowCommandLayer::*)(EffectGameObject*, cocos2d::CCArray*)>::function(NIDGJFollowCommandLayer*, EffectGameObject*, cocos2d::CCArray*)
PUBLIC 825b4 0 geode::Hook::create<void (*)(NIDGJFollowCommandLayer*, cocos2d::CCObject*)>(void*, void (*)(NIDGJFollowCommandLayer*, cocos2d::CCObject*), std::__ndk1::basic_string<char, std::__ndk1::char_traits<char>, std::__ndk1::allocator<char> > const&, tulip::hook::TulipConvention, tulip::hook::HookMetadata const&)
PUBLIC 82738 0 geode::modifier::AsStaticFunction_onUpdateGroupID<NIDGJFollowCommandLayer, void (NIDGJFollowCommandLayer::*)(cocos2d::CCObject*)>::Impl<void (NIDGJFollowCommandLayer::*)(cocos2d::CCObject*)>::function(NIDGJFollowCommandLayer*, cocos2d::CCObject*)
PUBLIC 8277c 0 geode::modifier::AsStaticFunction_onUpdateGroupID2<NIDGJFollowCommandLayer, void (NIDGJFollowCommandLayer::*)(cocos2d::CCObject*)>::Impl<void (NIDGJFollowCommandLayer::*)(cocos2d::CCObject*)>::function(NIDGJFollowCommandLayer*, cocos2d::CCObject*)
PUBLIC 827c0 0 geode::addresser::Addresser::addressOfVirtual<void, GJFollowCommandLayer, CCTextInputNode*>(void (GJFollowCommandLayer::*)(CCTextInputNode*))
PUBLIC 82868 0 GJFollowCommandLayer::GJFollowCommandLayer(geode::ZeroConstructorType)
PUBLIC 82918 0 std::__ndk1::__function::__func<NIDGJFollowCommandLayer::init(EffectGameObject*, cocos2d::CCArray*)::{lambda(cocos2d::CCNode*)#1}, std::__ndk1::allocator<NIDGJFollowCommandLayer::init(EffectGameObject*, cocos2d::CCArray*)::{lambda(cocos2d::CCNode*)#1}>, bool (cocos2d::CCNode*)>::~__func()
PUBLIC 8291c 0 std::__ndk1::__function::__func<NIDGJFollowCommandLayer::init(EffectGameObject*, cocos2d::CCArray*)::{lambda(cocos2d::CCNode*)#1}, std::__ndk1::allocator<NIDGJFollowCommandLayer::init(EffectGameObject*, cocos2d::CCArray*)::{lambda(cocos2d::CCNode*)#1}>, bool (cocos2d::CCNode*)>::__clone() const
PUBLIC 82940 0 std::__ndk1::__function::__func<NIDGJFollowCommandLayer::init(EffectGameObject*, cocos2d::CCArray*)::{lambda(cocos2d::CCNode*)#1}, std::__ndk1::allocator<NIDGJFollowCommandLayer::init(EffectGameObject*, cocos2d::CCArray*)::{lambda(cocos2d::CCNode*)#1}>, bool (cocos2d::CCNode*)>::__clone(std::__ndk1::__function::__base<bool (cocos2d::CCNode*)>*) const
PUBLIC 82950 0 std::__ndk1::__function::__func<NIDGJFollowCommandLayer::init(EffectGameObject*, cocos2d::CCArray*)::{lambda(cocos2d::CCNode*)#1}, std::__ndk1::allocator<NIDGJFollowCommandLayer::init(EffectGameObject*, cocos2d::CCArray*)::{lambda(cocos2d::CCNode*)#1}>, bool (cocos2d::CCNode*)>::destroy()
PUBLIC 82954 0 std::__ndk1::__function::__func<NIDGJFollowCommandLayer::init(EffectGameObject*, cocos2d::CCArray*)::{lambda(cocos2d::CCNode*)#1}, std::__ndk1::allocator<NIDGJFollowCommandLayer::init(EffectGameObject*, cocos2d::CCArray*)::{lambda(cocos2d::CCNode*)#1}>, bool (cocos2d::CCNode*)>::destroy_deallocate()
PUBLIC 82958 0 std::__ndk1::__function::__func<NIDGJFollowCommandLayer::init(EffectGameObject*, cocos2d::CCArray*)::{lambda(cocos2d::CCNode*)#1}, std::__ndk1::allocator<NIDGJFollowCommandLayer::init(EffectGameObject*, cocos2d::CCArray*)::{lambda(cocos2d::CCNode*)#1}>, bool (cocos2d::CCNode*)>::operator()(cocos2d::CCNode*&&)
PUBLIC 82a08 0 std::__ndk1::__function::__func<NIDGJFollowCommandLayer::init(EffectGameObject*, cocos2d::CCArray*)::{lambda(cocos2d::CCNode*)#1}, std::__ndk1::allocator<NIDGJFollowCommandLayer::init(EffectGameObject*, cocos2d::CCArray*)::{lambda(cocos2d::CCNode*)#1}>, bool (cocos2d::CCNode*)>::target(std::type_info const&) const
PUBLIC 82a24 0 std::__ndk1::__function::__func<NIDGJFollowCommandLayer::init(EffectGameObject*, cocos2d::CCArray*)::{lambda(cocos2d::CCNode*)#1}, std::__ndk1::allocator<NIDGJFollowCommandLayer::init(EffectGameObject*, cocos2d::CCArray*)::{lambda(cocos2d::CCNode*)#1}>, bool (cocos2d::CCNode*)>::target_type() const
PUBLIC 82a30 0 std::__ndk1::__function::__func<NIDGJFollowCommandLayer::init(EffectGameObject*, cocos2d::CCArray*)::{lambda(cocos2d::CCNode*)#2}, std::__ndk1::allocator<NIDGJFollowCommandLayer::init(EffectGameObject*, cocos2d::CCArray*)::{lambda(cocos2d::CCNode*)#2}>, bool (cocos2d::CCNode*)>::~__func()
PUBLIC 82a34 0 std::__ndk1::__function::__func<NIDGJFollowCommandLayer::init(EffectGameObject*, cocos2d::CCArray*)::{lambda(cocos2d::CCNode*)#2}, std::__ndk1::allocator<NIDGJFollowCommandLayer::init(EffectGameObject*, cocos2d::CCArray*)::{lambda(cocos2d::CCNode*)#2}>, bool (cocos2d::CCNode*)>::__clone() const
PUBLIC 82a6c 0 std::__ndk1::__function::__func<NIDGJFollowCommandLayer::init(EffectGameObject*, cocos2d::CCArray*)::{lambda(cocos2d::CCNode*)#2}, std::__ndk1::allocator<NIDGJFollowCommandLayer::init(EffectGameObject*, cocos2d::CCArray*)::{lambda(cocos2d::CCNode*)#2}>, bool (cocos2d::CCNode*)>::__clone(std::__ndk1::__function::__base<bool (cocos2d::CCNode*)>*) const
PUBLIC 82a84 0 std::__ndk1::__function::__func<NIDGJFollowCommandLayer::init(EffectGameObject*, cocos2d::CCArray*)::{lambda(cocos2d::CCNode*)#2}, std::__ndk1::allocator<NIDGJFollowCommandLayer::init(EffectGameObject*, cocos2d::CCArray*)::{lambda(cocos2d::CCNode*)#2}>, bool (cocos2d::CCNode*)>::destroy()
PUBLIC 82a88 0 std::__ndk1::__function::__func<NIDGJFollowCommandLayer::init(EffectGameObject*, cocos2d::CCArray*)::{lambda(cocos2d::CCNode*)#2}, std::__ndk1::allocator<NIDGJFollowCommandLayer::init(EffectGameObject*, cocos2d::CCArray*)::{lambda(cocos2d::CCNode*)#2}>, bool (cocos2d::CCNode*)>::destroy_deallocate()
PUBLIC 82a8c 0 std::__ndk1::__function::__func<NIDGJFollowCommandLayer::init(EffectGameObject*, cocos2d::CCArray*)::{lambda(cocos2d::CCNode*)#2}, std::__ndk1::allocator<NIDGJFollowCommandLayer::init(EffectGameObject*, cocos2d::CCArray*)::{lambda(cocos2d::CCNode*)#2}>, bool (cocos2d::CCNode*)>::operator()(cocos2d::CCNode*&&)
PUBLIC 82b0c 0 std::__ndk1::__function::__func<NIDGJFollowCommandLayer::init(EffectGameObject*, cocos2d::CCArray*)::{lambda(cocos2d::CCNode*)#2}, std::__ndk1::allocator<NIDGJFollowCommandLayer::init(EffectGameObject*, cocos2d::CCArray*)::{lambda(cocos2d::CCNode*)#2}>, bool (cocos2d::CCNode*)>::target(std::type_info const&) const
PUBLIC 82b28 0 std::__ndk1::__function::__func<NIDGJFollowCommandLayer::init(EffectGameObject*, cocos2d::CCArray*)::{lambda(cocos2d::CCNode*)#2}, std::__ndk1::allocator<NIDGJFollowCommandLayer::init(EffectGameObject*, cocos2d::CCArray*)::{lambda(cocos2d::CCNode*)#2}>, bool (cocos2d::CCNode*)>::target_type() const
PUBLIC 82b34 0 std::__ndk1::__function::__func<NIDGJFollowCommandLayer::init(EffectGameObject*, cocos2d::CCArray*)::{lambda(cocos2d::CCNode*)#3}, std::__ndk1::allocator<NIDGJFollowCommandLayer::init(EffectGameObject*, cocos2d::CCArray*)::{lambda(cocos2d::CCNode*)#3}>, bool (cocos2d::CCNode*)>::~__func()
PUBLIC 82b38 0 std::__ndk1::__function::__func<NIDGJFollowCommandLayer::init(EffectGameObject*, cocos2d::CCArray*)::{lambda(cocos2d::CCNode*)#3}, std::__ndk1::allocator<NIDGJFollowCommandLayer::init(EffectGameObject*, cocos2d::CCArray*)::{lambda(cocos2d::CCNode*)#3}>, bool (cocos2d::CCNode*)>::__clone() const
PUBLIC 82b70 0 std::__ndk1::__function::__func<NIDGJFollowCommandLayer::init(EffectGameObject*, cocos2d::CCArray*)::{lambda(cocos2d::CCNode*)#3}, std::__ndk1::allocator<NIDGJFollowCommandLayer::init(EffectGameObject*, cocos2d::CCArray*)::{lambda(cocos2d::CCNode*)#3}>, bool (cocos2d::CCNode*)>::__clone(std::__ndk1::__function::__base<bool (cocos2d::CCNode*)>*) const
PUBLIC 82b88 0 std::__ndk1::__function::__func<NIDGJFollowCommandLayer::init(EffectGameObject*, cocos2d::CCArray*)::{lambda(cocos2d::CCNode*)#3}, std::__ndk1::allocator<NIDGJFollowCommandLayer::init(EffectGameObject*, cocos2d::CCArray*)::{lambda(cocos2d::CCNode*)#3}>, bool (cocos2d::CCNode*)>::destroy()
PUBLIC 82b8c 0 std::__ndk1::__function::__func<NIDGJFollowCommandLayer::init(EffectGameObject*, cocos2d::CCArray*)::{lambda(cocos2d::CCNode*)#3}, std::__ndk1::allocator<NIDGJFollowCommandLayer::init(EffectGameObject*, cocos2d::CCArray*)::{lambda(cocos2d::CCNode*)#3}>, bool (cocos2d::CCNode*)>::destroy_deallocate()
PUBLIC 82b90 0 std::__ndk1::__function::__func<NIDGJFollowCommandLayer::init(EffectGameObject*, cocos2d::CCArray*)::{lambda(cocos2d::CCNode*)#3}, std::__ndk1::allocator<NIDGJFollowCommandLayer::init(EffectGameObject*, cocos2d::CCArray*)::{lambda(cocos2d::CCNode*)#3}>, bool (cocos2d::CCNode*)>::operator()(cocos2d::CCNode*&&)
PUBLIC 82bf4 0 std::__ndk1::__function::__func<NIDGJFollowCommandLayer::init(EffectGameObject*, cocos2d::CCArray*)::{lambda(cocos2d::CCNode*)#3}, std::__ndk1::allocator<NIDGJFollowCommandLayer::init(EffectGameObject*, cocos2d::CCArray*)::{lambda(cocos2d::CCNode*)#3}>, bool (cocos2d::CCNode*)>::target(std::type_info const&) const
PUBLIC 82c10 0 std::__ndk1::__function::__func<NIDGJFollowCommandLayer::init(EffectGameObject*, cocos2d::CCArray*)::{lambda(cocos2d::CCNode*)#3}, std::__ndk1::allocator<NIDGJFollowCommandLayer::init(EffectGameObject*, cocos2d::CCArray*)::{lambda(cocos2d::CCNode*)#3}>, bool (cocos2d::CCNode*)>::target_type() const
PUBLIC 82c1c 0 std::__ndk1::__function::__func<NIDGJFollowCommandLayer::init(EffectGameObject*, cocos2d::CCArray*)::{lambda(cocos2d::CCNode*)#4}, std::__ndk1::allocator<NIDGJFollowCommandLayer::init(EffectGameObject*, cocos2d::CCArray*)::{lambda(cocos2d::CCNode*)#4}>, bool (cocos2d::CCNode*)>::~__func()
PUBLIC 82c20 0 std::__ndk1::__function::__func<NIDGJFollowCommandLayer::init(EffectGameObject*, cocos2d::CCArray*)::{lambda(cocos2d::CCNode*)#4}, std::__ndk1::allocator<NIDGJFollowCommandLayer::init(EffectGameObject*, cocos2d::CCArray*)::{lambda(cocos2d::CCNode*)#4}>, bool (cocos2d::CCNode*)>::__clone() const
PUBLIC 82c58 0 std::__ndk1::__function::__func<NIDGJFollowCommandLayer::init(EffectGameObject*, cocos2d::CCArray*)::{lambda(cocos2d::CCNode*)#4}, std::__ndk1::allocator<NIDGJFollowCommandLayer::init(EffectGameObject*, cocos2d::CCArray*)::{lambda(cocos2d::CCNode*)#4}>, bool (cocos2d::CCNode*)>::__clone(std::__ndk1::__function::__base<bool (cocos2d::CCNode*)>*) const
PUBLIC 82c70 0 std::__ndk1::__function::__func<NIDGJFollowCommandLayer::init(EffectGameObject*, cocos2d::CCArray*)::{lambda(cocos2d::CCNode*)#4}, std::__ndk1::allocator<NIDGJFollowCommandLayer::init(EffectGameObject*, cocos2d::CCArray*)::{lambda(cocos2d::CCNode*)#4}>, bool (cocos2d::CCNode*)>::destroy()
PUBLIC 82c74 0 std::__ndk1::__function::__func<NIDGJFollowCommandLayer::init(EffectGameObject*, cocos2d::CCArray*)::{lambda(cocos2d::CCNode*)#4}, std::__ndk1::allocator<NIDGJFollowCommandLayer::init(EffectGameObject*, cocos2d::CCArray*)::{lambda(cocos2d::CCNode*)#4}>, bool (cocos2d::CCNode*)>::destroy_deallocate()
PUBLIC 82c78 0 std::__ndk1::__function::__func<NIDGJFollowCommandLayer::init(EffectGameObject*, cocos2d::CCArray*)::{lambda(cocos2d::CCNode*)#4}, std::__ndk1::allocator<NIDGJFollowCommandLayer::init(EffectGameObject*, cocos2d::CCArray*)::{lambda(cocos2d::CCNode*)#4}>, bool (cocos2d::CCNode*)>::operator()(cocos2d::CCNode*&&)
PUBLIC 82cdc 0 std::__ndk1::__function::__func<NIDGJFollowCommandLayer::init(EffectGameObject*, cocos2d::CCArray*)::{lambda(cocos2d::CCNode*)#4}, std::__ndk1::allocator<NIDGJFollowCommandLayer::init(EffectGameObject*, cocos2d::CCArray*)::{lambda(cocos2d::CCNode*)#4}>, bool (cocos2d::CCNode*)>::target(std::type_info const&) const
PUBLIC 82cf8 0 std::__ndk1::__function::__func<NIDGJFollowCommandLayer::init(EffectGameObject*, cocos2d::CCArray*)::{lambda(cocos2d::CCNode*)#4}, std::__ndk1::allocator<NIDGJFollowCommandLayer::init(EffectGameObject*, cocos2d::CCArray*)::{lambda(cocos2d::CCNode*)#4}>, bool (cocos2d::CCNode*)>::target_type() const
PUBLIC 82d04 0 std::__ndk1::__function::__func<NIDGJFollowCommandLayer::init(EffectGameObject*, cocos2d::CCArray*)::{lambda(cocos2d::CCNode*)#5}, std::__ndk1::allocator<NIDGJFollowCommandLayer::init(EffectGameObject*, cocos2d::CCArray*)::{lambda(cocos2d::CCNode*)#5}>, bool (cocos2d::CCNode*)>::~__func()
PUBLIC 82d08 0 std::__ndk1::__function::__func<NIDGJFollowCommandLayer::init(EffectGameObject*, cocos2d::CCArray*)::{lambda(cocos2d::CCNode*)#5}, std::__ndk1::allocator<NIDGJFollowCommandLayer::init(EffectGameObject*, cocos2d::CCArray*)::{lambda(cocos2d::CCNode*)#5}>, bool (cocos2d::CCNode*)>::__clone() const
PUBLIC 82d2c 0 std::__ndk1::__function::__func<NIDGJFollowCommandLayer::init(EffectGameObject*, cocos2d::CCArray*)::{lambda(cocos2d::CCNode*)#5}, std::__ndk1::allocator<NIDGJFollowCommandLayer::init(EffectGameObject*, cocos2d::CCArray*)::{lambda(cocos2d::CCNode*)#5}>, bool (cocos2d::CCNode*)>::__clone(std::__ndk1::__function::__base<bool (cocos2d::CCNode*)>*) const
PUBLIC 82d3c 0 std::__ndk1::__function::__func<NIDGJFollowCommandLayer::init(EffectGameObject*, cocos2d::CCArray*)::{lambda(cocos2d::CCNode*)#5}, std::__ndk1::allocator<NIDGJFollowCommandLayer::init(EffectGameObject*, cocos2d::CCArray*)::{lambda(cocos2d::CCNode*)#5}>, bool (cocos2d::CCNode*)>::destroy()
PUBLIC 82d40 0 std::__ndk1::__function::__func<NIDGJFollowCommandLayer::init(EffectGameObject*, cocos2d::CCArray*)::{lambda(cocos2d::CCNode*)#5}, std::__ndk1::allocator<NIDGJFollowCommandLayer::init(EffectGameObject*, cocos2d::CCArray*)::{lambda(cocos2d::CCNode*)#5}>, bool (cocos2d::CCNode*)>::destroy_deallocate()
PUBLIC 82d44 0 std::__ndk1::__function::__func<NIDGJFollowCommandLayer::init(EffectGameObject*, cocos2d::CCArray*)::{lambda(cocos2d::CCNode*)#5}, std::__ndk1::allocator<NIDGJFollowCommandLayer::init(EffectGameObject*, cocos2d::CCArray*)::{lambda(cocos2d::CCNode*)#5}>, bool (cocos2d::CCNode*)>::operator()(cocos2d::CCNode*&&)
PUBLIC 82df4 0 std::__ndk1::__function::__func<NIDGJFollowCommandLayer::init(EffectGameObject*, cocos2d::CCArray*)::{lambda(cocos2d::CCNode*)#5}, std::__ndk1::allocator<NIDGJFollowCommandLayer::init(EffectGameObject*, cocos2d::CCArray*)::{lambda(cocos2d::CCNode*)#5}>, bool (cocos2d::CCNode*)>::target(std::type_info const&) const
PUBLIC 82e10 0 std::__ndk1::__function::__func<NIDGJFollowCommandLayer::init(EffectGameObject*, cocos2d::CCArray*)::{lambda(cocos2d::CCNode*)#5}, std::__ndk1::allocator<NIDGJFollowCommandLayer::init(EffectGameObject*, cocos2d::CCArray*)::{lambda(cocos2d::CCNode*)#5}>, bool (cocos2d::CCNode*)>::target_type() const
PUBLIC 82e1c 0 std::__ndk1::__function::__func<NIDGJFollowCommandLayer::init(EffectGameObject*, cocos2d::CCArray*)::{lambda(cocos2d::CCNode*)#6}, std::__ndk1::allocator<NIDGJFollowCommandLayer::init(EffectGameObject*, cocos2d::CCArray*)::{lambda(cocos2d::CCNode*)#6}>, bool (cocos2d::CCNode*)>::~__func()
PUBLIC 82e20 0 std::__ndk1::__function::__func<NIDGJFollowCommandLayer::init(EffectGameObject*, cocos2d::CCArray*)::{lambda(cocos2d::CCNode*)#6}, std::__ndk1::allocator<NIDGJFollowCommandLayer::init(EffectGameObject*, cocos2d::CCArray*)::{lambda(cocos2d::CCNode*)#6}>, bool (cocos2d::CCNode*)>::__clone() const
PUBLIC 82e58 0 std::__ndk1::__function::__func<NIDGJFollowCommandLayer::init(EffectGameObject*, cocos2d::CCArray*)::{lambda(cocos2d::CCNode*)#6}, std::__ndk1::allocator<NIDGJFollowCommandLayer::init(EffectGameObject*, cocos2d::CCArray*)::{lambda(cocos2d::CCNode*)#6}>, bool (cocos2d::CCNode*)>::__clone(std::__ndk1::__function::__base<bool (cocos2d::CCNode*)>*) const
PUBLIC 82e70 0 std::__ndk1::__function::__func<NIDGJFollowCommandLayer::init(EffectGameObject*, cocos2d::CCArray*)::{lambda(cocos2d::CCNode*)#6}, std::__ndk1::allocator<NIDGJFollowCommandLayer::init(EffectGameObject*, cocos2d::CCArray*)::{lambda(cocos2d::CCNode*)#6}>, bool (cocos2d::CCNode*)>::destroy()
PUBLIC 82e74 0 std::__ndk1::__function::__func<NIDGJFollowCommandLayer::init(EffectGameObject*, cocos2d::CCArray*)::{lambda(cocos2d::CCNode*)#6}, std::__ndk1::allocator<NIDGJFollowCommandLayer::init(EffectGameObject*, cocos2d::CCArray*)::{lambda(cocos2d::CCNode*)#6}>, bool (cocos2d::CCNode*)>::destroy_deallocate()
PUBLIC 82e78 0 std::__ndk1::__function::__func<NIDGJFollowCommandLayer::init(EffectGameObject*, cocos2d::CCArray*)::{lambda(cocos2d::CCNode*)#6}, std::__ndk1::allocator<NIDGJFollowCommandLayer::init(EffectGameObject*, cocos2d::CCArray*)::{lambda(cocos2d::CCNode*)#6}>, bool (cocos2d::CCNode*)>::operator()(cocos2d::CCNode*&&)
PUBLIC 82ef8 0 std::__ndk1::__function::__func<NIDGJFollowCommandLayer::init(EffectGameObject*, cocos2d::CCArray*)::{lambda(cocos2d::CCNode*)#6}, std::__ndk1::allocator<NIDGJFollowCommandLayer::init(EffectGameObject*, cocos2d::CCArray*)::{lambda(cocos2d::CCNode*)#6}>, bool (cocos2d::CCNode*)>::target(std::type_info const&) const
PUBLIC 82f14 0 std::__ndk1::__function::__func<NIDGJFollowCommandLayer::init(EffectGameObject*, cocos2d::CCArray*)::{lambda(cocos2d::CCNode*)#6}, std::__ndk1::allocator<NIDGJFollowCommandLayer::init(EffectGameObject*, cocos2d::CCArray*)::{lambda(cocos2d::CCNode*)#6}>, bool (cocos2d::CCNode*)>::target_type() const
PUBLIC 82f20 0 std::__ndk1::__function::__func<NIDGJFollowCommandLayer::init(EffectGameObject*, cocos2d::CCArray*)::{lambda(cocos2d::CCNode*)#7}, std::__ndk1::allocator<NIDGJFollowCommandLayer::init(EffectGameObject*, cocos2d::CCArray*)::{lambda(cocos2d::CCNode*)#7}>, bool (cocos2d::CCNode*)>::~__func()
PUBLIC 82f24 0 std::__ndk1::__function::__func<NIDGJFollowCommandLayer::init(EffectGameObject*, cocos2d::CCArray*)::{lambda(cocos2d::CCNode*)#7}, std::__ndk1::allocator<NIDGJFollowCommandLayer::init(EffectGameObject*, cocos2d::CCArray*)::{lambda(cocos2d::CCNode*)#7}>, bool (cocos2d::CCNode*)>::__clone() const
PUBLIC 82f58 0 std::__ndk1::__function::__func<NIDGJFollowCommandLayer::init(EffectGameObject*, cocos2d::CCArray*)::{lambda(cocos2d::CCNode*)#7}, std::__ndk1::allocator<NIDGJFollowCommandLayer::init(EffectGameObject*, cocos2d::CCArray*)::{lambda(cocos2d::CCNode*)#7}>, bool (cocos2d::CCNode*)>::__clone(std::__ndk1::__function::__base<bool (cocos2d::CCNode*)>*) const
PUBLIC 82f6c 0 std::__ndk1::__function::__func<NIDGJFollowCommandLayer::init(EffectGameObject*, cocos2d::CCArray*)::{lambda(cocos2d::CCNode*)#7}, std::__ndk1::allocator<NIDGJFollowCommandLayer::init(EffectGameObject*, cocos2d::CCArray*)::{lambda(cocos2d::CCNode*)#7}>, bool (cocos2d::CCNode*)>::destroy()
PUBLIC 82f70 0 std::__ndk1::__function::__func<NIDGJFollowCommandLayer::init(EffectGameObject*, cocos2d::CCArray*)::{lambda(cocos2d::CCNode*)#7}, std::__ndk1::allocator<NIDGJFollowCommandLayer::init(EffectGameObject*, cocos2d::CCArray*)::{lambda(cocos2d::CCNode*)#7}>, bool (cocos2d::CCNode*)>::destroy_deallocate()
PUBLIC 82f74 0 std::__ndk1::__function::__func<NIDGJFollowCommandLayer::init(EffectGameObject*, cocos2d::CCArray*)::{lambda(cocos2d::CCNode*)#7}, std::__ndk1::allocator<NIDGJFollowCommandLayer::init(EffectGameObject*, cocos2d::CCArray*)::{lambda(cocos2d::CCNode*)#7}>, bool (cocos2d::CCNode*)>::operator()(cocos2d::CCNode*&&)
PUBLIC 82fd0 0 std::__ndk1::__function::__func<NIDGJFollowCommandLayer::init(EffectGameObject*, cocos2d::CCArray*)::{lambda(cocos2d::CCNode*)#7}, std::__ndk1::allocator<NIDGJFollowCommandLayer::init(EffectGameObject*, cocos2d::CCArray*)::{lambda(cocos2d::CCNode*)#7}>, bool (cocos2d::CCNode*)>::target(std::type_info const&) const
PUBLIC 82fec 0 std::__ndk1::__function::__func<NIDGJFollowCommandLayer::init(EffectGameObject*, cocos2d::CCArray*)::{lambda(cocos2d::CCNode*)#7}, std::__ndk1::allocator<NIDGJFollowCommandLayer::init(EffectGameObject*, cocos2d::CCArray*)::{lambda(cocos2d::CCNode*)#7}>, bool (cocos2d::CCNode*)>::target_type() const
PUBLIC 82ff8 0 std::__ndk1::__function::__func<NIDGJFollowCommandLayer::init(EffectGameObject*, cocos2d::CCArray*)::{lambda(cocos2d::CCNode*)#8}, std::__ndk1::allocator<NIDGJFollowCommandLayer::init(EffectGameObject*, cocos2d::CCArray*)::{lambda(cocos2d::CCNode*)#8}>, bool (cocos2d::CCNode*)>::~__func()
PUBLIC 82ffc 0 std::__ndk1::__function::__func<NIDGJFollowCommandLayer::init(EffectGameObject*, cocos2d::CCArray*)::{lambda(cocos2d::CCNode*)#8}, std::__ndk1::allocator<NIDGJFollowCommandLayer::init(EffectGameObject*, cocos2d::CCArray*)::{lambda(cocos2d::CCNode*)#8}>, bool (cocos2d::CCNode*)>::__clone() const
PUBLIC 83030 0 std::__ndk1::__function::__func<NIDGJFollowCommandLayer::init(EffectGameObject*, cocos2d::CCArray*)::{lambda(cocos2d::CCNode*)#8}, std::__ndk1::allocator<NIDGJFollowCommandLayer::init(EffectGameObject*, cocos2d::CCArray*)::{lambda(cocos2d::CCNode*)#8}>, bool (cocos2d::CCNode*)>::__clone(std::__ndk1::__function::__base<bool (cocos2d::CCNode*)>*) const
PUBLIC 83044 0 std::__ndk1::__function::__func<NIDGJFollowCommandLayer::init(EffectGameObject*, cocos2d::CCArray*)::{lambda(cocos2d::CCNode*)#8}, std::__ndk1::allocator<NIDGJFollowCommandLayer::init(EffectGameObject*, cocos2d::CCArray*)::{lambda(cocos2d::CCNode*)#8}>, bool (cocos2d::CCNode*)>::destroy()
PUBLIC 83048 0 std::__ndk1::__function::__func<NIDGJFollowCommandLayer::init(EffectGameObject*, cocos2d::CCArray*)::{lambda(cocos2d::CCNode*)#8}, std::__ndk1::allocator<NIDGJFollowCommandLayer::init(EffectGameObject*, cocos2d::CCArray*)::{lambda(cocos2d::CCNode*)#8}>, bool (cocos2d::CCNode*)>::destroy_deallocate()
PUBLIC 8304c 0 std::__ndk1::__function::__func<NIDGJFollowCommandLayer::init(EffectGameObject*, cocos2d::CCArray*)::{lambda(cocos2d::CCNode*)#8}, std::__ndk1::allocator<NIDGJFollowCommandLayer::init(EffectGameObject*, cocos2d::CCArray*)::{lambda(cocos2d::CCNode*)#8}>, bool (cocos2d::CCNode*)>::operator()(cocos2d::CCNode*&&)
PUBLIC 830a8 0 std::__ndk1::__function::__func<NIDGJFollowCommandLayer::init(EffectGameObject*, cocos2d::CCArray*)::{lambda(cocos2d::CCNode*)#8}, std::__ndk1::allocator<NIDGJFollowCommandLayer::init(EffectGameObject*, cocos2d::CCArray*)::{lambda(cocos2d::CCNode*)#8}>, bool (cocos2d::CCNode*)>::target(std::type_info const&) const
PUBLIC 830c4 0 std::__ndk1::__function::__func<NIDGJFollowCommandLayer::init(EffectGameObject*, cocos2d::CCArray*)::{lambda(cocos2d::CCNode*)#8}, std::__ndk1::allocator<NIDGJFollowCommandLayer::init(EffectGameObject*, cocos2d::CCArray*)::{lambda(cocos2d::CCNode*)#8}>, bool (cocos2d::CCNode*)>::target_type() const
PUBLIC 830d0 0 __cxx_global_var_init.1
PUBLIC 83540 0 geode::modifier::ModifyBase<geode::modifier::ModifyDerive<NGGJPFollowCommandLayer, GJPFollowCommandLayer> >::~ModifyBase()
PUBLIC 8355c 0 geode::modifier::ModifyDerive<NGGJPFollowCommandLayer, GJPFollowCommandLayer>::apply()
PUBLIC 83e98 0 geode::modifier::ModifyBase<geode::modifier::ModifyDerive<NGGJPFollowCommandLayer, GJPFollowCommandLayer> >::apply()
PUBLIC 83e9c 0 geode::modifier::AsStaticFunction_textChanged<NGGJPFollowCommandLayer, void (NGGJPFollowCommandLayer::*)(CCTextInputNode*)>::Impl<void (NGGJPFollowCommandLayer::*)(CCTextInputNode*)>::function(NGGJPFollowCommandLayer*, CCTextInputNode*)
PUBLIC 83ec8 0 geode::modifier::AsStaticFunction_init<NGGJPFollowCommandLayer, bool (NGGJPFollowCommandLayer::*)(EffectGameObject*, cocos2d::CCArray*)>::Impl<bool (NGGJPFollowCommandLayer::*)(EffectGameObject*, cocos2d::CCArray*)>::function(NGGJPFollowCommandLayer*, EffectGameObject*, cocos2d::CCArray*)
PUBLIC 847f4 0 geode::modifier::AsStaticFunction_onUpdateGroupID<NGGJPFollowCommandLayer, void (NGGJPFollowCommandLayer::*)(cocos2d::CCObject*)>::Impl<void (NGGJPFollowCommandLayer::*)(cocos2d::CCObject*)>::function(NGGJPFollowCommandLayer*, cocos2d::CCObject*)
PUBLIC 84838 0 geode::addresser::Addresser::addressOfVirtual<void, GJPFollowCommandLayer, CCTextInputNode*>(void (GJPFollowCommandLayer::*)(CCTextInputNode*))
PUBLIC 848e0 0 GJPFollowCommandLayer::GJPFollowCommandLayer(geode::ZeroConstructorType)
PUBLIC 84990 0 std::__ndk1::__function::__func<NGGJPFollowCommandLayer::init(EffectGameObject*, cocos2d::CCArray*)::{lambda(cocos2d::CCNode*)#1}, std::__ndk1::allocator<NGGJPFollowCommandLayer::init(EffectGameObject*, cocos2d::CCArray*)::{lambda(cocos2d::CCNode*)#1}>, bool (cocos2d::CCNode*)>::~__func()
PUBLIC 84994 0 std::__ndk1::__function::__func<NGGJPFollowCommandLayer::init(EffectGameObject*, cocos2d::CCArray*)::{lambda(cocos2d::CCNode*)#1}, std::__ndk1::allocator<NGGJPFollowCommandLayer::init(EffectGameObject*, cocos2d::CCArray*)::{lambda(cocos2d::CCNode*)#1}>, bool (cocos2d::CCNode*)>::__clone() const
PUBLIC 849b8 0 std::__ndk1::__function::__func<NGGJPFollowCommandLayer::init(EffectGameObject*, cocos2d::CCArray*)::{lambda(cocos2d::CCNode*)#1}, std::__ndk1::allocator<NGGJPFollowCommandLayer::init(EffectGameObject*, cocos2d::CCArray*)::{lambda(cocos2d::CCNode*)#1}>, bool (cocos2d::CCNode*)>::__clone(std::__ndk1::__function::__base<bool (cocos2d::CCNode*)>*) const
PUBLIC 849c8 0 std::__ndk1::__function::__func<NGGJPFollowCommandLayer::init(EffectGameObject*, cocos2d::CCArray*)::{lambda(cocos2d::CCNode*)#1}, std::__ndk1::allocator<NGGJPFollowCommandLayer::init(EffectGameObject*, cocos2d::CCArray*)::{lambda(cocos2d::CCNode*)#1}>, bool (cocos2d::CCNode*)>::destroy()
PUBLIC 849cc 0 std::__ndk1::__function::__func<NGGJPFollowCommandLayer::init(EffectGameObject*, cocos2d::CCArray*)::{lambda(cocos2d::CCNode*)#1}, std::__ndk1::allocator<NGGJPFollowCommandLayer::init(EffectGameObject*, cocos2d::CCArray*)::{lambda(cocos2d::CCNode*)#1}>, bool (cocos2d::CCNode*)>::destroy_deallocate()
PUBLIC 849d0 0 std::__ndk1::__function::__func<NGGJPFollowCommandLayer::init(EffectGameObject*, cocos2d::CCArray*)::{lambda(cocos2d::CCNode*)#1}, std::__ndk1::allocator<NGGJPFollowCommandLayer::init(EffectGameObject*, cocos2d::CCArray*)::{lambda(cocos2d::CCNode*)#1}>, bool (cocos2d::CCNode*)>::operator()(cocos2d::CCNode*&&)
PUBLIC 84a80 0 std::__ndk1::__function::__func<NGGJPFollowCommandLayer::init(EffectGameObject*, cocos2d::CCArray*)::{lambda(cocos2d::CCNode*)#1}, std::__ndk1::allocator<NGGJPFollowCommandLayer::init(EffectGameObject*, cocos2d::CCArray*)::{lambda(cocos2d::CCNode*)#1}>, bool (cocos2d::CCNode*)>::target(std::type_info const&) const
PUBLIC 84a9c 0 std::__ndk1::__function::__func<NGGJPFollowCommandLayer::init(EffectGameObject*, cocos2d::CCArray*)::{lambda(cocos2d::CCNode*)#1}, std::__ndk1::allocator<NGGJPFollowCommandLayer::init(EffectGameObject*, cocos2d::CCArray*)::{lambda(cocos2d::CCNode*)#1}>, bool (cocos2d::CCNode*)>::target_type() const
PUBLIC 84aa8 0 std::__ndk1::__function::__func<NGGJPFollowCommandLayer::init(EffectGameObject*, cocos2d::CCArray*)::{lambda(cocos2d::CCNode*)#2}, std::__ndk1::allocator<NGGJPFollowCommandLayer::init(EffectGameObject*, cocos2d::CCArray*)::{lambda(cocos2d::CCNode*)#2}>, bool (cocos2d::CCNode*)>::~__func()
PUBLIC 84aac 0 std::__ndk1::__function::__func<NGGJPFollowCommandLayer::init(EffectGameObject*, cocos2d::CCArray*)::{lambda(cocos2d::CCNode*)#2}, std::__ndk1::allocator<NGGJPFollowCommandLayer::init(EffectGameObject*, cocos2d::CCArray*)::{lambda(cocos2d::CCNode*)#2}>, bool (cocos2d::CCNode*)>::__clone() const
PUBLIC 84ae4 0 std::__ndk1::__function::__func<NGGJPFollowCommandLayer::init(EffectGameObject*, cocos2d::CCArray*)::{lambda(cocos2d::CCNode*)#2}, std::__ndk1::allocator<NGGJPFollowCommandLayer::init(EffectGameObject*, cocos2d::CCArray*)::{lambda(cocos2d::CCNode*)#2}>, bool (cocos2d::CCNode*)>::__clone(std::__ndk1::__function::__base<bool (cocos2d::CCNode*)>*) const
PUBLIC 84afc 0 std::__ndk1::__function::__func<NGGJPFollowCommandLayer::init(EffectGameObject*, cocos2d::CCArray*)::{lambda(cocos2d::CCNode*)#2}, std::__ndk1::allocator<NGGJPFollowCommandLayer::init(EffectGameObject*, cocos2d::CCArray*)::{lambda(cocos2d::CCNode*)#2}>, bool (cocos2d::CCNode*)>::destroy()
PUBLIC 84b00 0 std::__ndk1::__function::__func<NGGJPFollowCommandLayer::init(EffectGameObject*, cocos2d::CCArray*)::{lambda(cocos2d::CCNode*)#2}, std::__ndk1::allocator<NGGJPFollowCommandLayer::init(EffectGameObject*, cocos2d::CCArray*)::{lambda(cocos2d::CCNode*)#2}>, bool (cocos2d::CCNode*)>::destroy_deallocate()
PUBLIC 84b04 0 std::__ndk1::__function::__func<NGGJPFollowCommandLayer::init(EffectGameObject*, cocos2d::CCArray*)::{lambda(cocos2d::CCNode*)#2}, std::__ndk1::allocator<NGGJPFollowCommandLayer::init(EffectGameObject*, cocos2d::CCArray*)::{lambda(cocos2d::CCNode*)#2}>, bool (cocos2d::CCNode*)>::operator()(cocos2d::CCNode*&&)
PUBLIC 84b84 0 std::__ndk1::__function::__func<NGGJPFollowCommandLayer::init(EffectGameObject*, cocos2d::CCArray*)::{lambda(cocos2d::CCNode*)#2}, std::__ndk1::allocator<NGGJPFollowCommandLayer::init(EffectGameObject*, cocos2d::CCArray*)::{lambda(cocos2d::CCNode*)#2}>, bool (cocos2d::CCNode*)>::target(std::type_info const&) const
PUBLIC 84ba0 0 std::__ndk1::__function::__func<NGGJPFollowCommandLayer::init(EffectGameObject*, cocos2d::CCArray*)::{lambda(cocos2d::CCNode*)#2}, std::__ndk1::allocator<NGGJPFollowCommandLayer::init(EffectGameObject*, cocos2d::CCArray*)::{lambda(cocos2d::CCNode*)#2}>, bool (cocos2d::CCNode*)>::target_type() const
PUBLIC 84bac 0 std::__ndk1::__function::__func<NGGJPFollowCommandLayer::init(EffectGameObject*, cocos2d::CCArray*)::{lambda(cocos2d::CCNode*)#3}, std::__ndk1::allocator<NGGJPFollowCommandLayer::init(EffectGameObject*, cocos2d::CCArray*)::{lambda(cocos2d::CCNode*)#3}>, bool (cocos2d::CCNode*)>::~__func()
PUBLIC 84bb0 0 std::__ndk1::__function::__func<NGGJPFollowCommandLayer::init(EffectGameObject*, cocos2d::CCArray*)::{lambda(cocos2d::CCNode*)#3}, std::__ndk1::allocator<NGGJPFollowCommandLayer::init(EffectGameObject*, cocos2d::CCArray*)::{lambda(cocos2d::CCNode*)#3}>, bool (cocos2d::CCNode*)>::__clone() const
PUBLIC 84be8 0 std::__ndk1::__function::__func<NGGJPFollowCommandLayer::init(EffectGameObject*, cocos2d::CCArray*)::{lambda(cocos2d::CCNode*)#3}, std::__ndk1::allocator<NGGJPFollowCommandLayer::init(EffectGameObject*, cocos2d::CCArray*)::{lambda(cocos2d::CCNode*)#3}>, bool (cocos2d::CCNode*)>::__clone(std::__ndk1::__function::__base<bool (cocos2d::CCNode*)>*) const
PUBLIC 84c00 0 std::__ndk1::__function::__func<NGGJPFollowCommandLayer::init(EffectGameObject*, cocos2d::CCArray*)::{lambda(cocos2d::CCNode*)#3}, std::__ndk1::allocator<NGGJPFollowCommandLayer::init(EffectGameObject*, cocos2d::CCArray*)::{lambda(cocos2d::CCNode*)#3}>, bool (cocos2d::CCNode*)>::destroy()
PUBLIC 84c04 0 std::__ndk1::__function::__func<NGGJPFollowCommandLayer::init(EffectGameObject*, cocos2d::CCArray*)::{lambda(cocos2d::CCNode*)#3}, std::__ndk1::allocator<NGGJPFollowCommandLayer::init(EffectGameObject*, cocos2d::CCArray*)::{lambda(cocos2d::CCNode*)#3}>, bool (cocos2d::CCNode*)>::destroy_deallocate()
PUBLIC 84c08 0 std::__ndk1::__function::__func<NGGJPFollowCommandLayer::init(EffectGameObject*, cocos2d::CCArray*)::{lambda(cocos2d::CCNode*)#3}, std::__ndk1::allocator<NGGJPFollowCommandLayer::init(EffectGameObject*, cocos2d::CCArray*)::{lambda(cocos2d::CCNode*)#3}>, bool (cocos2d::CCNode*)>::operator()(cocos2d::CCNode*&&)
PUBLIC 84c6c 0 std::__ndk1::__function::__func<NGGJPFollowCommandLayer::init(EffectGameObject*, cocos2d::CCArray*)::{lambda(cocos2d::CCNode*)#3}, std::__ndk1::allocator<NGGJPFollowCommandLayer::init(EffectGameObject*, cocos2d::CCArray*)::{lambda(cocos2d::CCNode*)#3}>, bool (cocos2d::CCNode*)>::target(std::type_info const&) const
PUBLIC 84c88 0 std::__ndk1::__function::__func<NGGJPFollowCommandLayer::init(EffectGameObject*, cocos2d::CCArray*)::{lambda(cocos2d::CCNode*)#3}, std::__ndk1::allocator<NGGJPFollowCommandLayer::init(EffectGameObject*, cocos2d::CCArray*)::{lambda(cocos2d::CCNode*)#3}>, bool (cocos2d::CCNode*)>::target_type() const
PUBLIC 84c94 0 std::__ndk1::__function::__func<NGGJPFollowCommandLayer::init(EffectGameObject*, cocos2d::CCArray*)::{lambda(cocos2d::CCNode*)#4}, std::__ndk1::allocator<NGGJPFollowCommandLayer::init(EffectGameObject*, cocos2d::CCArray*)::{lambda(cocos2d::CCNode*)#4}>, bool (cocos2d::CCNode*)>::~__func()
PUBLIC 84c98 0 std::__ndk1::__function::__func<NGGJPFollowCommandLayer::init(EffectGameObject*, cocos2d::CCArray*)::{lambda(cocos2d::CCNode*)#4}, std::__ndk1::allocator<NGGJPFollowCommandLayer::init(EffectGameObject*, cocos2d::CCArray*)::{lambda(cocos2d::CCNode*)#4}>, bool (cocos2d::CCNode*)>::__clone() const
PUBLIC 84cd0 0 std::__ndk1::__function::__func<NGGJPFollowCommandLayer::init(EffectGameObject*, cocos2d::CCArray*)::{lambda(cocos2d::CCNode*)#4}, std::__ndk1::allocator<NGGJPFollowCommandLayer::init(EffectGameObject*, cocos2d::CCArray*)::{lambda(cocos2d::CCNode*)#4}>, bool (cocos2d::CCNode*)>::__clone(std::__ndk1::__function::__base<bool (cocos2d::CCNode*)>*) const
PUBLIC 84ce8 0 std::__ndk1::__function::__func<NGGJPFollowCommandLayer::init(EffectGameObject*, cocos2d::CCArray*)::{lambda(cocos2d::CCNode*)#4}, std::__ndk1::allocator<NGGJPFollowCommandLayer::init(EffectGameObject*, cocos2d::CCArray*)::{lambda(cocos2d::CCNode*)#4}>, bool (cocos2d::CCNode*)>::destroy()
PUBLIC 84cec 0 std::__ndk1::__function::__func<NGGJPFollowCommandLayer::init(EffectGameObject*, cocos2d::CCArray*)::{lambda(cocos2d::CCNode*)#4}, std::__ndk1::allocator<NGGJPFollowCommandLayer::init(EffectGameObject*, cocos2d::CCArray*)::{lambda(cocos2d::CCNode*)#4}>, bool (cocos2d::CCNode*)>::destroy_deallocate()
PUBLIC 84cf0 0 std::__ndk1::__function::__func<NGGJPFollowCommandLayer::init(EffectGameObject*, cocos2d::CCArray*)::{lambda(cocos2d::CCNode*)#4}, std::__ndk1::allocator<NGGJPFollowCommandLayer::init(EffectGameObject*, cocos2d::CCArray*)::{lambda(cocos2d::CCNode*)#4}>, bool (cocos2d::CCNode*)>::operator()(cocos2d::CCNode*&&)
PUBLIC 84d54 0 std::__ndk1::__function::__func<NGGJPFollowCommandLayer::init(EffectGameObject*, cocos2d::CCArray*)::{lambda(cocos2d::CCNode*)#4}, std::__ndk1::allocator<NGGJPFollowCommandLayer::init(EffectGameObject*, cocos2d::CCArray*)::{lambda(cocos2d::CCNode*)#4}>, bool (cocos2d::CCNode*)>::target(std::type_info const&) const
PUBLIC 84d70 0 std::__ndk1::__function::__func<NGGJPFollowCommandLayer::init(EffectGameObject*, cocos2d::CCArray*)::{lambda(cocos2d::CCNode*)#4}, std::__ndk1::allocator<NGGJPFollowCommandLayer::init(EffectGameObject*, cocos2d::CCArray*)::{lambda(cocos2d::CCNode*)#4}>, bool (cocos2d::CCNode*)>::target_type() const
PUBLIC 84d7c 0 __cxx_global_var_init.1
PUBLIC 851ec 0 geode::modifier::ModifyBase<geode::modifier::ModifyDerive<NIDSetupCameraEdgePopup, SetupCameraEdgePopup> >::~ModifyBase()
PUBLIC 85208 0 geode::modifier::ModifyDerive<NIDSetupCameraEdgePopup, SetupCameraEdgePopup>::apply()
PUBLIC 85c98 0 geode::modifier::ModifyBase<geode::modifier::ModifyDerive<NIDSetupCameraEdgePopup, SetupCameraEdgePopup> >::apply()
PUBLIC 85c9c 0 geode::modifier::AsStaticFunction_textChanged<NIDSetupCameraEdgePopup, void (NIDSetupCameraEdgePopup::*)(CCTextInputNode*)>::Impl<void (NIDSetupCameraEdgePopup::*)(CCTextInputNode*)>::function(NIDSetupCameraEdgePopup*, CCTextInputNode*)
PUBLIC 85cc8 0 geode::modifier::AsStaticFunction_init<NIDSetupCameraEdgePopup, bool (NIDSetupCameraEdgePopup::*)(CameraTriggerGameObject*, cocos2d::CCArray*)>::Impl<bool (NIDSetupCameraEdgePopup::*)(CameraTriggerGameObject*, cocos2d::CCArray*)>::function(NIDSetupCameraEdgePopup*, CameraTriggerGameObject*, cocos2d::CCArray*)
PUBLIC 86618 0 geode::Hook::create<void (*)(NIDSetupCameraEdgePopup*, cocos2d::CCObject*)>(void*, void (*)(NIDSetupCameraEdgePopup*, cocos2d::CCObject*), std::__ndk1::basic_string<char, std::__ndk1::char_traits<char>, std::__ndk1::allocator<char> > const&, tulip::hook::TulipConvention, tulip::hook::HookMetadata const&)
PUBLIC 8679c 0 geode::modifier::AsStaticFunction_onTargetIDArrow<NIDSetupCameraEdgePopup, void (NIDSetupCameraEdgePopup::*)(cocos2d::CCObject*)>::Impl<void (NIDSetupCameraEdgePopup::*)(cocos2d::CCObject*)>::function(NIDSetupCameraEdgePopup*, cocos2d::CCObject*)
PUBLIC 867e0 0 geode::modifier::AsStaticFunction_onUnlockEdge<NIDSetupCameraEdgePopup, void (NIDSetupCameraEdgePopup::*)(cocos2d::CCObject*)>::Impl<void (NIDSetupCameraEdgePopup::*)(cocos2d::CCObject*)>::function(NIDSetupCameraEdgePopup*, cocos2d::CCObject*)
PUBLIC 86824 0 geode::addresser::Addresser::addressOfVirtual<void, SetupCameraEdgePopup, CCTextInputNode*>(void (SetupCameraEdgePopup::*)(CCTextInputNode*))
PUBLIC 868cc 0 SetupCameraEdgePopup::SetupCameraEdgePopup(geode::ZeroConstructorType)
PUBLIC 8697c 0 std::__ndk1::__function::__func<NIDSetupCameraEdgePopup::init(CameraTriggerGameObject*, cocos2d::CCArray*)::{lambda(cocos2d::CCNode*)#1}, std::__ndk1::allocator<NIDSetupCameraEdgePopup::init(CameraTriggerGameObject*, cocos2d::CCArray*)::{lambda(cocos2d::CCNode*)#1}>, bool (cocos2d::CCNode*)>::~__func()
PUBLIC 86980 0 std::__ndk1::__function::__func<NIDSetupCameraEdgePopup::init(CameraTriggerGameObject*, cocos2d::CCArray*)::{lambda(cocos2d::CCNode*)#1}, std::__ndk1::allocator<NIDSetupCameraEdgePopup::init(CameraTriggerGameObject*, cocos2d::CCArray*)::{lambda(cocos2d::CCNode*)#1}>, bool (cocos2d::CCNode*)>::__clone() const
PUBLIC 869a4 0 std::__ndk1::__function::__func<NIDSetupCameraEdgePopup::init(CameraTriggerGameObject*, cocos2d::CCArray*)::{lambda(cocos2d::CCNode*)#1}, std::__ndk1::allocator<NIDSetupCameraEdgePopup::init(CameraTriggerGameObject*, cocos2d::CCArray*)::{lambda(cocos2d::CCNode*)#1}>, bool (cocos2d::CCNode*)>::__clone(std::__ndk1::__function::__base<bool (cocos2d::CCNode*)>*) const
PUBLIC 869b4 0 std::__ndk1::__function::__func<NIDSetupCameraEdgePopup::init(CameraTriggerGameObject*, cocos2d::CCArray*)::{lambda(cocos2d::CCNode*)#1}, std::__ndk1::allocator<NIDSetupCameraEdgePopup::init(CameraTriggerGameObject*, cocos2d::CCArray*)::{lambda(cocos2d::CCNode*)#1}>, bool (cocos2d::CCNode*)>::destroy()
PUBLIC 869b8 0 std::__ndk1::__function::__func<NIDSetupCameraEdgePopup::init(CameraTriggerGameObject*, cocos2d::CCArray*)::{lambda(cocos2d::CCNode*)#1}, std::__ndk1::allocator<NIDSetupCameraEdgePopup::init(CameraTriggerGameObject*, cocos2d::CCArray*)::{lambda(cocos2d::CCNode*)#1}>, bool (cocos2d::CCNode*)>::destroy_deallocate()
PUBLIC 869bc 0 std::__ndk1::__function::__func<NIDSetupCameraEdgePopup::init(CameraTriggerGameObject*, cocos2d::CCArray*)::{lambda(cocos2d::CCNode*)#1}, std::__ndk1::allocator<NIDSetupCameraEdgePopup::init(CameraTriggerGameObject*, cocos2d::CCArray*)::{lambda(cocos2d::CCNode*)#1}>, bool (cocos2d::CCNode*)>::operator()(cocos2d::CCNode*&&)
PUBLIC 86a28 0 std::__ndk1::__function::__func<NIDSetupCameraEdgePopup::init(CameraTriggerGameObject*, cocos2d::CCArray*)::{lambda(cocos2d::CCNode*)#1}, std::__ndk1::allocator<NIDSetupCameraEdgePopup::init(CameraTriggerGameObject*, cocos2d::CCArray*)::{lambda(cocos2d::CCNode*)#1}>, bool (cocos2d::CCNode*)>::target(std::type_info const&) const
PUBLIC 86a44 0 std::__ndk1::__function::__func<NIDSetupCameraEdgePopup::init(CameraTriggerGameObject*, cocos2d::CCArray*)::{lambda(cocos2d::CCNode*)#1}, std::__ndk1::allocator<NIDSetupCameraEdgePopup::init(CameraTriggerGameObject*, cocos2d::CCArray*)::{lambda(cocos2d::CCNode*)#1}>, bool (cocos2d::CCNode*)>::target_type() const
PUBLIC 86a50 0 std::__ndk1::__function::__func<NIDSetupCameraEdgePopup::init(CameraTriggerGameObject*, cocos2d::CCArray*)::{lambda(cocos2d::CCNode*)#2}, std::__ndk1::allocator<NIDSetupCameraEdgePopup::init(CameraTriggerGameObject*, cocos2d::CCArray*)::{lambda(cocos2d::CCNode*)#2}>, bool (cocos2d::CCNode*)>::~__func()
PUBLIC 86a54 0 std::__ndk1::__function::__func<NIDSetupCameraEdgePopup::init(CameraTriggerGameObject*, cocos2d::CCArray*)::{lambda(cocos2d::CCNode*)#2}, std::__ndk1::allocator<NIDSetupCameraEdgePopup::init(CameraTriggerGameObject*, cocos2d::CCArray*)::{lambda(cocos2d::CCNode*)#2}>, bool (cocos2d::CCNode*)>::__clone() const
PUBLIC 86a78 0 std::__ndk1::__function::__func<NIDSetupCameraEdgePopup::init(CameraTriggerGameObject*, cocos2d::CCArray*)::{lambda(cocos2d::CCNode*)#2}, std::__ndk1::allocator<NIDSetupCameraEdgePopup::init(CameraTriggerGameObject*, cocos2d::CCArray*)::{lambda(cocos2d::CCNode*)#2}>, bool (cocos2d::CCNode*)>::__clone(std::__ndk1::__function::__base<bool (cocos2d::CCNode*)>*) const
PUBLIC 86a88 0 std::__ndk1::__function::__func<NIDSetupCameraEdgePopup::init(CameraTriggerGameObject*, cocos2d::CCArray*)::{lambda(cocos2d::CCNode*)#2}, std::__ndk1::allocator<NIDSetupCameraEdgePopup::init(CameraTriggerGameObject*, cocos2d::CCArray*)::{lambda(cocos2d::CCNode*)#2}>, bool (cocos2d::CCNode*)>::destroy()
PUBLIC 86a8c 0 std::__ndk1::__function::__func<NIDSetupCameraEdgePopup::init(CameraTriggerGameObject*, cocos2d::CCArray*)::{lambda(cocos2d::CCNode*)#2}, std::__ndk1::allocator<NIDSetupCameraEdgePopup::init(CameraTriggerGameObject*, cocos2d::CCArray*)::{lambda(cocos2d::CCNode*)#2}>, bool (cocos2d::CCNode*)>::destroy_deallocate()
PUBLIC 86a90 0 std::__ndk1::__function::__func<NIDSetupCameraEdgePopup::init(CameraTriggerGameObject*, cocos2d::CCArray*)::{lambda(cocos2d::CCNode*)#2}, std::__ndk1::allocator<NIDSetupCameraEdgePopup::init(CameraTriggerGameObject*, cocos2d::CCArray*)::{lambda(cocos2d::CCNode*)#2}>, bool (cocos2d::CCNode*)>::operator()(cocos2d::CCNode*&&)
PUBLIC 86b34 0 std::__ndk1::__function::__func<NIDSetupCameraEdgePopup::init(CameraTriggerGameObject*, cocos2d::CCArray*)::{lambda(cocos2d::CCNode*)#2}, std::__ndk1::allocator<NIDSetupCameraEdgePopup::init(CameraTriggerGameObject*, cocos2d::CCArray*)::{lambda(cocos2d::CCNode*)#2}>, bool (cocos2d::CCNode*)>::target(std::type_info const&) const
PUBLIC 86b50 0 std::__ndk1::__function::__func<NIDSetupCameraEdgePopup::init(CameraTriggerGameObject*, cocos2d::CCArray*)::{lambda(cocos2d::CCNode*)#2}, std::__ndk1::allocator<NIDSetupCameraEdgePopup::init(CameraTriggerGameObject*, cocos2d::CCArray*)::{lambda(cocos2d::CCNode*)#2}>, bool (cocos2d::CCNode*)>::target_type() const
PUBLIC 86b5c 0 std::__ndk1::__function::__func<NIDSetupCameraEdgePopup::init(CameraTriggerGameObject*, cocos2d::CCArray*)::{lambda(cocos2d::CCNode*)#3}, std::__ndk1::allocator<NIDSetupCameraEdgePopup::init(CameraTriggerGameObject*, cocos2d::CCArray*)::{lambda(cocos2d::CCNode*)#3}>, bool (cocos2d::CCNode*)>::~__func()
PUBLIC 86b60 0 std::__ndk1::__function::__func<NIDSetupCameraEdgePopup::init(CameraTriggerGameObject*, cocos2d::CCArray*)::{lambda(cocos2d::CCNode*)#3}, std::__ndk1::allocator<NIDSetupCameraEdgePopup::init(CameraTriggerGameObject*, cocos2d::CCArray*)::{lambda(cocos2d::CCNode*)#3}>, bool (cocos2d::CCNode*)>::__clone() const
PUBLIC 86b98 0 std::__ndk1::__function::__func<NIDSetupCameraEdgePopup::init(CameraTriggerGameObject*, cocos2d::CCArray*)::{lambda(cocos2d::CCNode*)#3}, std::__ndk1::allocator<NIDSetupCameraEdgePopup::init(CameraTriggerGameObject*, cocos2d::CCArray*)::{lambda(cocos2d::CCNode*)#3}>, bool (cocos2d::CCNode*)>::__clone(std::__ndk1::__function::__base<bool (cocos2d::CCNode*)>*) const
PUBLIC 86bb0 0 std::__ndk1::__function::__func<NIDSetupCameraEdgePopup::init(CameraTriggerGameObject*, cocos2d::CCArray*)::{lambda(cocos2d::CCNode*)#3}, std::__ndk1::allocator<NIDSetupCameraEdgePopup::init(CameraTriggerGameObject*, cocos2d::CCArray*)::{lambda(cocos2d::CCNode*)#3}>, bool (cocos2d::CCNode*)>::destroy()
PUBLIC 86bb4 0 std::__ndk1::__function::__func<NIDSetupCameraEdgePopup::init(CameraTriggerGameObject*, cocos2d::CCArray*)::{lambda(cocos2d::CCNode*)#3}, std::__ndk1::allocator<NIDSetupCameraEdgePopup::init(CameraTriggerGameObject*, cocos2d::CCArray*)::{lambda(cocos2d::CCNode*)#3}>, bool (cocos2d::CCNode*)>::destroy_deallocate()
PUBLIC 86bb8 0 std::__ndk1::__function::__func<NIDSetupCameraEdgePopup::init(CameraTriggerGameObject*, cocos2d::CCArray*)::{lambda(cocos2d::CCNode*)#3}, std::__ndk1::allocator<NIDSetupCameraEdgePopup::init(CameraTriggerGameObject*, cocos2d::CCArray*)::{lambda(cocos2d::CCNode*)#3}>, bool (cocos2d::CCNode*)>::operator()(cocos2d::CCNode*&&)
PUBLIC 86c28 0 std::__ndk1::__function::__func<NIDSetupCameraEdgePopup::init(CameraTriggerGameObject*, cocos2d::CCArray*)::{lambda(cocos2d::CCNode*)#3}, std::__ndk1::allocator<NIDSetupCameraEdgePopup::init(CameraTriggerGameObject*, cocos2d::CCArray*)::{lambda(cocos2d::CCNode*)#3}>, bool (cocos2d::CCNode*)>::target(std::type_info const&) const
PUBLIC 86c44 0 std::__ndk1::__function::__func<NIDSetupCameraEdgePopup::init(CameraTriggerGameObject*, cocos2d::CCArray*)::{lambda(cocos2d::CCNode*)#3}, std::__ndk1::allocator<NIDSetupCameraEdgePopup::init(CameraTriggerGameObject*, cocos2d::CCArray*)::{lambda(cocos2d::CCNode*)#3}>, bool (cocos2d::CCNode*)>::target_type() const
PUBLIC 86c50 0 std::__ndk1::__function::__func<NIDSetupCameraEdgePopup::init(CameraTriggerGameObject*, cocos2d::CCArray*)::{lambda(cocos2d::CCNode*)#4}, std::__ndk1::allocator<NIDSetupCameraEdgePopup::init(CameraTriggerGameObject*, cocos2d::CCArray*)::{lambda(cocos2d::CCNode*)#4}>, bool (cocos2d::CCNode*)>::~__func()
PUBLIC 86c54 0 std::__ndk1::__function::__func<NIDSetupCameraEdgePopup::init(CameraTriggerGameObject*, cocos2d::CCArray*)::{lambda(cocos2d::CCNode*)#4}, std::__ndk1::allocator<NIDSetupCameraEdgePopup::init(CameraTriggerGameObject*, cocos2d::CCArray*)::{lambda(cocos2d::CCNode*)#4}>, bool (cocos2d::CCNode*)>::__clone() const
PUBLIC 86c8c 0 std::__ndk1::__function::__func<NIDSetupCameraEdgePopup::init(CameraTriggerGameObject*, cocos2d::CCArray*)::{lambda(cocos2d::CCNode*)#4}, std::__ndk1::allocator<NIDSetupCameraEdgePopup::init(CameraTriggerGameObject*, cocos2d::CCArray*)::{lambda(cocos2d::CCNode*)#4}>, bool (cocos2d::CCNode*)>::__clone(std::__ndk1::__function::__base<bool (cocos2d::CCNode*)>*) const
PUBLIC 86ca4 0 std::__ndk1::__function::__func<NIDSetupCameraEdgePopup::init(CameraTriggerGameObject*, cocos2d::CCArray*)::{lambda(cocos2d::CCNode*)#4}, std::__ndk1::allocator<NIDSetupCameraEdgePopup::init(CameraTriggerGameObject*, cocos2d::CCArray*)::{lambda(cocos2d::CCNode*)#4}>, bool (cocos2d::CCNode*)>::destroy()
PUBLIC 86ca8 0 std::__ndk1::__function::__func<NIDSetupCameraEdgePopup::init(CameraTriggerGameObject*, cocos2d::CCArray*)::{lambda(cocos2d::CCNode*)#4}, std::__ndk1::allocator<NIDSetupCameraEdgePopup::init(CameraTriggerGameObject*, cocos2d::CCArray*)::{lambda(cocos2d::CCNode*)#4}>, bool (cocos2d::CCNode*)>::destroy_deallocate()
PUBLIC 86cac 0 std::__ndk1::__function::__func<NIDSetupCameraEdgePopup::init(CameraTriggerGameObject*, cocos2d::CCArray*)::{lambda(cocos2d::CCNode*)#4}, std::__ndk1::allocator<NIDSetupCameraEdgePopup::init(CameraTriggerGameObject*, cocos2d::CCArray*)::{lambda(cocos2d::CCNode*)#4}>, bool (cocos2d::CCNode*)>::operator()(cocos2d::CCNode*&&)
PUBLIC 86d2c 0 std::__ndk1::__function::__func<NIDSetupCameraEdgePopup::init(CameraTriggerGameObject*, cocos2d::CCArray*)::{lambda(cocos2d::CCNode*)#4}, std::__ndk1::allocator<NIDSetupCameraEdgePopup::init(CameraTriggerGameObject*, cocos2d::CCArray*)::{lambda(cocos2d::CCNode*)#4}>, bool (cocos2d::CCNode*)>::target(std::type_info const&) const
PUBLIC 86d48 0 std::__ndk1::__function::__func<NIDSetupCameraEdgePopup::init(CameraTriggerGameObject*, cocos2d::CCArray*)::{lambda(cocos2d::CCNode*)#4}, std::__ndk1::allocator<NIDSetupCameraEdgePopup::init(CameraTriggerGameObject*, cocos2d::CCArray*)::{lambda(cocos2d::CCNode*)#4}>, bool (cocos2d::CCNode*)>::target_type() const
PUBLIC 86d54 0 std::__ndk1::__function::__func<NIDSetupCameraEdgePopup::init(CameraTriggerGameObject*, cocos2d::CCArray*)::{lambda(cocos2d::CCNode*)#5}, std::__ndk1::allocator<NIDSetupCameraEdgePopup::init(CameraTriggerGameObject*, cocos2d::CCArray*)::{lambda(cocos2d::CCNode*)#5}>, bool (cocos2d::CCNode*)>::~__func()
PUBLIC 86d58 0 std::__ndk1::__function::__func<NIDSetupCameraEdgePopup::init(CameraTriggerGameObject*, cocos2d::CCArray*)::{lambda(cocos2d::CCNode*)#5}, std::__ndk1::allocator<NIDSetupCameraEdgePopup::init(CameraTriggerGameObject*, cocos2d::CCArray*)::{lambda(cocos2d::CCNode*)#5}>, bool (cocos2d::CCNode*)>::__clone() const
PUBLIC 86d90 0 std::__ndk1::__function::__func<NIDSetupCameraEdgePopup::init(CameraTriggerGameObject*, cocos2d::CCArray*)::{lambda(cocos2d::CCNode*)#5}, std::__ndk1::allocator<NIDSetupCameraEdgePopup::init(CameraTriggerGameObject*, cocos2d::CCArray*)::{lambda(cocos2d::CCNode*)#5}>, bool (cocos2d::CCNode*)>::__clone(std::__ndk1::__function::__base<bool (cocos2d::CCNode*)>*) const
PUBLIC 86da8 0 std::__ndk1::__function::__func<NIDSetupCameraEdgePopup::init(CameraTriggerGameObject*, cocos2d::CCArray*)::{lambda(cocos2d::CCNode*)#5}, std::__ndk1::allocator<NIDSetupCameraEdgePopup::init(CameraTriggerGameObject*, cocos2d::CCArray*)::{lambda(cocos2d::CCNode*)#5}>, bool (cocos2d::CCNode*)>::destroy()
PUBLIC 86dac 0 std::__ndk1::__function::__func<NIDSetupCameraEdgePopup::init(CameraTriggerGameObject*, cocos2d::CCArray*)::{lambda(cocos2d::CCNode*)#5}, std::__ndk1::allocator<NIDSetupCameraEdgePopup::init(CameraTriggerGameObject*, cocos2d::CCArray*)::{lambda(cocos2d::CCNode*)#5}>, bool (cocos2d::CCNode*)>::destroy_deallocate()
PUBLIC 86db0 0 std::__ndk1::__function::__func<NIDSetupCameraEdgePopup::init(CameraTriggerGameObject*, cocos2d::CCArray*)::{lambda(cocos2d::CCNode*)#5}, std::__ndk1::allocator<NIDSetupCameraEdgePopup::init(CameraTriggerGameObject*, cocos2d::CCArray*)::{lambda(cocos2d::CCNode*)#5}>, bool (cocos2d::CCNode*)>::operator()(cocos2d::CCNode*&&)
PUBLIC 86e14 0 std::__ndk1::__function::__func<NIDSetupCameraEdgePopup::init(CameraTriggerGameObject*, cocos2d::CCArray*)::{lambda(cocos2d::CCNode*)#5}, std::__ndk1::allocator<NIDSetupCameraEdgePopup::init(CameraTriggerGameObject*, cocos2d::CCArray*)::{lambda(cocos2d::CCNode*)#5}>, bool (cocos2d::CCNode*)>::target(std::type_info const&) const
PUBLIC 86e30 0 std::__ndk1::__function::__func<NIDSetupCameraEdgePopup::init(CameraTriggerGameObject*, cocos2d::CCArray*)::{lambda(cocos2d::CCNode*)#5}, std::__ndk1::allocator<NIDSetupCameraEdgePopup::init(CameraTriggerGameObject*, cocos2d::CCArray*)::{lambda(cocos2d::CCNode*)#5}>, bool (cocos2d::CCNode*)>::target_type() const
PUBLIC 86e3c 0 std::__ndk1::__function::__func<NIDSetupCameraEdgePopup::init(CameraTriggerGameObject*, cocos2d::CCArray*)::{lambda(cocos2d::CCNode*)#6}, std::__ndk1::allocator<NIDSetupCameraEdgePopup::init(CameraTriggerGameObject*, cocos2d::CCArray*)::{lambda(cocos2d::CCNode*)#6}>, bool (cocos2d::CCNode*)>::~__func()
PUBLIC 86e40 0 std::__ndk1::__function::__func<NIDSetupCameraEdgePopup::init(CameraTriggerGameObject*, cocos2d::CCArray*)::{lambda(cocos2d::CCNode*)#6}, std::__ndk1::allocator<NIDSetupCameraEdgePopup::init(CameraTriggerGameObject*, cocos2d::CCArray*)::{lambda(cocos2d::CCNode*)#6}>, bool (cocos2d::CCNode*)>::__clone() const
PUBLIC 86e78 0 std::__ndk1::__function::__func<NIDSetupCameraEdgePopup::init(CameraTriggerGameObject*, cocos2d::CCArray*)::{lambda(cocos2d::CCNode*)#6}, std::__ndk1::allocator<NIDSetupCameraEdgePopup::init(CameraTriggerGameObject*, cocos2d::CCArray*)::{lambda(cocos2d::CCNode*)#6}>, bool (cocos2d::CCNode*)>::__clone(std::__ndk1::__function::__base<bool (cocos2d::CCNode*)>*) const
PUBLIC 86e90 0 std::__ndk1::__function::__func<NIDSetupCameraEdgePopup::init(CameraTriggerGameObject*, cocos2d::CCArray*)::{lambda(cocos2d::CCNode*)#6}, std::__ndk1::allocator<NIDSetupCameraEdgePopup::init(CameraTriggerGameObject*, cocos2d::CCArray*)::{lambda(cocos2d::CCNode*)#6}>, bool (cocos2d::CCNode*)>::destroy()
PUBLIC 86e94 0 std::__ndk1::__function::__func<NIDSetupCameraEdgePopup::init(CameraTriggerGameObject*, cocos2d::CCArray*)::{lambda(cocos2d::CCNode*)#6}, std::__ndk1::allocator<NIDSetupCameraEdgePopup::init(CameraTriggerGameObject*, cocos2d::CCArray*)::{lambda(cocos2d::CCNode*)#6}>, bool (cocos2d::CCNode*)>::destroy_deallocate()
PUBLIC 86e98 0 std::__ndk1::__function::__func<NIDSetupCameraEdgePopup::init(CameraTriggerGameObject*, cocos2d::CCArray*)::{lambda(cocos2d::CCNode*)#6}, std::__ndk1::allocator<NIDSetupCameraEdgePopup::init(CameraTriggerGameObject*, cocos2d::CCArray*)::{lambda(cocos2d::CCNode*)#6}>, bool (cocos2d::CCNode*)>::operator()(cocos2d::CCNode*&&)
PUBLIC 86efc 0 std::__ndk1::__function::__func<NIDSetupCameraEdgePopup::init(CameraTriggerGameObject*, cocos2d::CCArray*)::{lambda(cocos2d::CCNode*)#6}, std::__ndk1::allocator<NIDSetupCameraEdgePopup::init(CameraTriggerGameObject*, cocos2d::CCArray*)::{lambda(cocos2d::CCNode*)#6}>, bool (cocos2d::CCNode*)>::target(std::type_info const&) const
PUBLIC 86f18 0 std::__ndk1::__function::__func<NIDSetupCameraEdgePopup::init(CameraTriggerGameObject*, cocos2d::CCArray*)::{lambda(cocos2d::CCNode*)#6}, std::__ndk1::allocator<NIDSetupCameraEdgePopup::init(CameraTriggerGameObject*, cocos2d::CCArray*)::{lambda(cocos2d::CCNode*)#6}>, bool (cocos2d::CCNode*)>::target_type() const
PUBLIC 86f24 0 __cxx_global_var_init.1
PUBLIC 87394 0 geode::modifier::ModifyBase<geode::modifier::ModifyDerive<NIDSetupCollisionTriggerPopup, SetupCollisionTriggerPopup> >::~ModifyBase()
PUBLIC 873b0 0 geode::modifier::ModifyDerive<NIDSetupCollisionTriggerPopup, SetupCollisionTriggerPopup>::apply()
PUBLIC 88030 0 geode::modifier::ModifyBase<geode::modifier::ModifyDerive<NIDSetupCollisionTriggerPopup, SetupCollisionTriggerPopup> >::apply()
PUBLIC 88034 0 geode::modifier::AsStaticFunction_textChanged<NIDSetupCollisionTriggerPopup, void (NIDSetupCollisionTriggerPopup::*)(CCTextInputNode*)>::Impl<void (NIDSetupCollisionTriggerPopup::*)(CCTextInputNode*)>::function(NIDSetupCollisionTriggerPopup*, CCTextInputNode*)
PUBLIC 88060 0 geode::modifier::AsStaticFunction_init<NIDSetupCollisionTriggerPopup, bool (NIDSetupCollisionTriggerPopup::*)(EffectGameObject*, cocos2d::CCArray*)>::Impl<bool (NIDSetupCollisionTriggerPopup::*)(EffectGameObject*, cocos2d::CCArray*)>::function(NIDSetupCollisionTriggerPopup*, EffectGameObject*, cocos2d::CCArray*)
PUBLIC 89888 0 geode::Hook::create<void (*)(NIDSetupCollisionTriggerPopup*, cocos2d::CCObject*)>(void*, void (*)(NIDSetupCollisionTriggerPopup*, cocos2d::CCObject*), std::__ndk1::basic_string<char, std::__ndk1::char_traits<char>, std::__ndk1::allocator<char> > const&, tulip::hook::TulipConvention, tulip::hook::HookMetadata const&)
PUBLIC 89a0c 0 geode::modifier::AsStaticFunction_onItemID2Arrow<NIDSetupCollisionTriggerPopup, void (NIDSetupCollisionTriggerPopup::*)(cocos2d::CCObject*)>::Impl<void (NIDSetupCollisionTriggerPopup::*)(cocos2d::CCObject*)>::function(NIDSetupCollisionTriggerPopup*, cocos2d::CCObject*)
PUBLIC 89a50 0 geode::modifier::AsStaticFunction_onItemIDArrow<NIDSetupCollisionTriggerPopup, void (NIDSetupCollisionTriggerPopup::*)(cocos2d::CCObject*)>::Impl<void (NIDSetupCollisionTriggerPopup::*)(cocos2d::CCObject*)>::function(NIDSetupCollisionTriggerPopup*, cocos2d::CCObject*)
PUBLIC 89a94 0 geode::modifier::AsStaticFunction_onTargetIDArrow<NIDSetupCollisionTriggerPopup, void (NIDSetupCollisionTriggerPopup::*)(cocos2d::CCObject*)>::Impl<void (NIDSetupCollisionTriggerPopup::*)(cocos2d::CCObject*)>::function(NIDSetupCollisionTriggerPopup*, cocos2d::CCObject*)
PUBLIC 89ad8 0 geode::addresser::Addresser::addressOfVirtual<void, SetupCollisionTriggerPopup, CCTextInputNode*>(void (SetupCollisionTriggerPopup::*)(CCTextInputNode*))
PUBLIC 89b80 0 SetupCollisionTriggerPopup::SetupCollisionTriggerPopup(geode::ZeroConstructorType)
PUBLIC 89c30 0 std::__ndk1::__function::__func<NIDSetupCollisionTriggerPopup::init(EffectGameObject*, cocos2d::CCArray*)::{lambda(cocos2d::CCNode*)#1}, std::__ndk1::allocator<NIDSetupCollisionTriggerPopup::init(EffectGameObject*, cocos2d::CCArray*)::{lambda(cocos2d::CCNode*)#1}>, bool (cocos2d::CCNode*)>::~__func()
PUBLIC 89c34 0 std::__ndk1::__function::__func<NIDSetupCollisionTriggerPopup::init(EffectGameObject*, cocos2d::CCArray*)::{lambda(cocos2d::CCNode*)#1}, std::__ndk1::allocator<NIDSetupCollisionTriggerPopup::init(EffectGameObject*, cocos2d::CCArray*)::{lambda(cocos2d::CCNode*)#1}>, bool (cocos2d::CCNode*)>::__clone() const
PUBLIC 89c58 0 std::__ndk1::__function::__func<NIDSetupCollisionTriggerPopup::init(EffectGameObject*, cocos2d::CCArray*)::{lambda(cocos2d::CCNode*)#1}, std::__ndk1::allocator<NIDSetupCollisionTriggerPopup::init(EffectGameObject*, cocos2d::CCArray*)::{lambda(cocos2d::CCNode*)#1}>, bool (cocos2d::CCNode*)>::__clone(std::__ndk1::__function::__base<bool (cocos2d::CCNode*)>*) const
PUBLIC 89c68 0 std::__ndk1::__function::__func<NIDSetupCollisionTriggerPopup::init(EffectGameObject*, cocos2d::CCArray*)::{lambda(cocos2d::CCNode*)#1}, std::__ndk1::allocator<NIDSetupCollisionTriggerPopup::init(EffectGameObject*, cocos2d::CCArray*)::{lambda(cocos2d::CCNode*)#1}>, bool (cocos2d::CCNode*)>::destroy()
PUBLIC 89c6c 0 std::__ndk1::__function::__func<NIDSetupCollisionTriggerPopup::init(EffectGameObject*, cocos2d::CCArray*)::{lambda(cocos2d::CCNode*)#1}, std::__ndk1::allocator<NIDSetupCollisionTriggerPopup::init(EffectGameObject*, cocos2d::CCArray*)::{lambda(cocos2d::CCNode*)#1}>, bool (cocos2d::CCNode*)>::destroy_deallocate()
PUBLIC 89c70 0 std::__ndk1::__function::__func<NIDSetupCollisionTriggerPopup::init(EffectGameObject*, cocos2d::CCArray*)::{lambda(cocos2d::CCNode*)#1}, std::__ndk1::allocator<NIDSetupCollisionTriggerPopup::init(EffectGameObject*, cocos2d::CCArray*)::{lambda(cocos2d::CCNode*)#1}>, bool (cocos2d::CCNode*)>::operator()(cocos2d::CCNode*&&)
PUBLIC 89cdc 0 std::__ndk1::__function::__func<NIDSetupCollisionTriggerPopup::init(EffectGameObject*, cocos2d::CCArray*)::{lambda(cocos2d::CCNode*)#1}, std::__ndk1::allocator<NIDSetupCollisionTriggerPopup::init(EffectGameObject*, cocos2d::CCArray*)::{lambda(cocos2d::CCNode*)#1}>, bool (cocos2d::CCNode*)>::target(std::type_info const&) const
PUBLIC 89cf8 0 std::__ndk1::__function::__func<NIDSetupCollisionTriggerPopup::init(EffectGameObject*, cocos2d::CCArray*)::{lambda(cocos2d::CCNode*)#1}, std::__ndk1::allocator<NIDSetupCollisionTriggerPopup::init(EffectGameObject*, cocos2d::CCArray*)::{lambda(cocos2d::CCNode*)#1}>, bool (cocos2d::CCNode*)>::target_type() const
PUBLIC 89d04 0 std::__ndk1::__function::__func<NIDSetupCollisionTriggerPopup::init(EffectGameObject*, cocos2d::CCArray*)::{lambda(cocos2d::CCNode*)#2}, std::__ndk1::allocator<NIDSetupCollisionTriggerPopup::init(EffectGameObject*, cocos2d::CCArray*)::{lambda(cocos2d::CCNode*)#2}>, bool (cocos2d::CCNode*)>::~__func()
PUBLIC 89d08 0 std::__ndk1::__function::__func<NIDSetupCollisionTriggerPopup::init(EffectGameObject*, cocos2d::CCArray*)::{lambda(cocos2d::CCNode*)#2}, std::__ndk1::allocator<NIDSetupCollisionTriggerPopup::init(EffectGameObject*, cocos2d::CCArray*)::{lambda(cocos2d::CCNode*)#2}>, bool (cocos2d::CCNode*)>::__clone() const
PUBLIC 89d2c 0 std::__ndk1::__function::__func<NIDSetupCollisionTriggerPopup::init(EffectGameObject*, cocos2d::CCArray*)::{lambda(cocos2d::CCNode*)#2}, std::__ndk1::allocator<NIDSetupCollisionTriggerPopup::init(EffectGameObject*, cocos2d::CCArray*)::{lambda(cocos2d::CCNode*)#2}>, bool (cocos2d::CCNode*)>::__clone(std::__ndk1::__function::__base<bool (cocos2d::CCNode*)>*) const
PUBLIC 89d3c 0 std::__ndk1::__function::__func<NIDSetupCollisionTriggerPopup::init(EffectGameObject*, cocos2d::CCArray*)::{lambda(cocos2d::CCNode*)#2}, std::__ndk1::allocator<NIDSetupCollisionTriggerPopup::init(EffectGameObject*, cocos2d::CCArray*)::{lambda(cocos2d::CCNode*)#2}>, bool (cocos2d::CCNode*)>::destroy()
PUBLIC 89d40 0 std::__ndk1::__function::__func<NIDSetupCollisionTriggerPopup::init(EffectGameObject*, cocos2d::CCArray*)::{lambda(cocos2d::CCNode*)#2}, std::__ndk1::allocator<NIDSetupCollisionTriggerPopup::init(EffectGameObject*, cocos2d::CCArray*)::{lambda(cocos2d::CCNode*)#2}>, bool (cocos2d::CCNode*)>::destroy_deallocate()
PUBLIC 89d44 0 std::__ndk1::__function::__func<NIDSetupCollisionTriggerPopup::init(EffectGameObject*, cocos2d::CCArray*)::{lambda(cocos2d::CCNode*)#2}, std::__ndk1::allocator<NIDSetupCollisionTriggerPopup::init(EffectGameObject*, cocos2d::CCArray*)::{lambda(cocos2d::CCNode*)#2}>, bool (cocos2d::CCNode*)>::operator()(cocos2d::CCNode*&&)
PUBLIC 89de8 0 std::__ndk1::__function::__func<NIDSetupCollisionTriggerPopup::init(EffectGameObject*, cocos2d::CCArray*)::{lambda(cocos2d::CCNode*)#2}, std::__ndk1::allocator<NIDSetupCollisionTriggerPopup::init(EffectGameObject*, cocos2d::CCArray*)::{lambda(cocos2d::CCNode*)#2}>, bool (cocos2d::CCNode*)>::target(std::type_info const&) const
PUBLIC 89e04 0 std::__ndk1::__function::__func<NIDSetupCollisionTriggerPopup::init(EffectGameObject*, cocos2d::CCArray*)::{lambda(cocos2d::CCNode*)#2}, std::__ndk1::allocator<NIDSetupCollisionTriggerPopup::init(EffectGameObject*, cocos2d::CCArray*)::{lambda(cocos2d::CCNode*)#2}>, bool (cocos2d::CCNode*)>::target_type() const
PUBLIC 89e10 0 std::__ndk1::__function::__func<NIDSetupCollisionTriggerPopup::init(EffectGameObject*, cocos2d::CCArray*)::{lambda(cocos2d::CCNode*)#3}, std::__ndk1::allocator<NIDSetupCollisionTriggerPopup::init(EffectGameObject*, cocos2d::CCArray*)::{lambda(cocos2d::CCNode*)#3}>, bool (cocos2d::CCNode*)>::~__func()
PUBLIC 89e14 0 std::__ndk1::__function::__func<NIDSetupCollisionTriggerPopup::init(EffectGameObject*, cocos2d::CCArray*)::{lambda(cocos2d::CCNode*)#3}, std::__ndk1::allocator<NIDSetupCollisionTriggerPopup::init(EffectGameObject*, cocos2d::CCArray*)::{lambda(cocos2d::CCNode*)#3}>, bool (cocos2d::CCNode*)>::__clone() const
PUBLIC 89e4c 0 std::__ndk1::__function::__func<NIDSetupCollisionTriggerPopup::init(EffectGameObject*, cocos2d::CCArray*)::{lambda(cocos2d::CCNode*)#3}, std::__ndk1::allocator<NIDSetupCollisionTriggerPopup::init(EffectGameObject*, cocos2d::CCArray*)::{lambda(cocos2d::CCNode*)#3}>, bool (cocos2d::CCNode*)>::__clone(std::__ndk1::__function::__base<bool (cocos2d::CCNode*)>*) const
PUBLIC 89e64 0 std::__ndk1::__function::__func<NIDSetupCollisionTriggerPopup::init(EffectGameObject*, cocos2d::CCArray*)::{lambda(cocos2d::CCNode*)#3}, std::__ndk1::allocator<NIDSetupCollisionTriggerPopup::init(EffectGameObject*, cocos2d::CCArray*)::{lambda(cocos2d::CCNode*)#3}>, bool (cocos2d::CCNode*)>::destroy()
PUBLIC 89e68 0 std::__ndk1::__function::__func<NIDSetupCollisionTriggerPopup::init(EffectGameObject*, cocos2d::CCArray*)::{lambda(cocos2d::CCNode*)#3}, std::__ndk1::allocator<NIDSetupCollisionTriggerPopup::init(EffectGameObject*, cocos2d::CCArray*)::{lambda(cocos2d::CCNode*)#3}>, bool (cocos2d::CCNode*)>::destroy_deallocate()
PUBLIC 89e6c 0 std::__ndk1::__function::__func<NIDSetupCollisionTriggerPopup::init(EffectGameObject*, cocos2d::CCArray*)::{lambda(cocos2d::CCNode*)#3}, std::__ndk1::allocator<NIDSetupCollisionTriggerPopup::init(EffectGameObject*, cocos2d::CCArray*)::{lambda(cocos2d::CCNode*)#3}>, bool (cocos2d::CCNode*)>::operator()(cocos2d::CCNode*&&)
PUBLIC 89eec 0 std::__ndk1::__function::__func<NIDSetupCollisionTriggerPopup::init(EffectGameObject*, cocos2d::CCArray*)::{lambda(cocos2d::CCNode*)#3}, std::__ndk1::allocator<NIDSetupCollisionTriggerPopup::init(EffectGameObject*, cocos2d::CCArray*)::{lambda(cocos2d::CCNode*)#3}>, bool (cocos2d::CCNode*)>::target(std::type_info const&) const
PUBLIC 89f08 0 std::__ndk1::__function::__func<NIDSetupCollisionTriggerPopup::init(EffectGameObject*, cocos2d::CCArray*)::{lambda(cocos2d::CCNode*)#3}, std::__ndk1::allocator<NIDSetupCollisionTriggerPopup::init(EffectGameObject*, cocos2d::CCArray*)::{lambda(cocos2d::CCNode*)#3}>, bool (cocos2d::CCNode*)>::target_type() const
PUBLIC 89f14 0 std::__ndk1::__function::__func<NIDSetupCollisionTriggerPopup::init(EffectGameObject*, cocos2d::CCArray*)::{lambda(cocos2d::CCNode*)#4}, std::__ndk1::allocator<NIDSetupCollisionTriggerPopup::init(EffectGameObject*, cocos2d::CCArray*)::{lambda(cocos2d::CCNode*)#4}>, bool (cocos2d::CCNode*)>::~__func()
PUBLIC 89f18 0 std::__ndk1::__function::__func<NIDSetupCollisionTriggerPopup::init(EffectGameObject*, cocos2d::CCArray*)::{lambda(cocos2d::CCNode*)#4}, std::__ndk1::allocator<NIDSetupCollisionTriggerPopup::init(EffectGameObject*, cocos2d::CCArray*)::{lambda(cocos2d::CCNode*)#4}>, bool (cocos2d::CCNode*)>::__clone() const
PUBLIC 89f50 0 std::__ndk1::__function::__func<NIDSetupCollisionTriggerPopup::init(EffectGameObject*, cocos2d::CCArray*)::{lambda(cocos2d::CCNode*)#4}, std::__ndk1::allocator<NIDSetupCollisionTriggerPopup::init(EffectGameObject*, cocos2d::CCArray*)::{lambda(cocos2d::CCNode*)#4}>, bool (cocos2d::CCNode*)>::__clone(std::__ndk1::__function::__base<bool (cocos2d::CCNode*)>*) const
PUBLIC 89f68 0 std::__ndk1::__function::__func<NIDSetupCollisionTriggerPopup::init(EffectGameObject*, cocos2d::CCArray*)::{lambda(cocos2d::CCNode*)#4}, std::__ndk1::allocator<NIDSetupCollisionTriggerPopup::init(EffectGameObject*, cocos2d::CCArray*)::{lambda(cocos2d::CCNode*)#4}>, bool (cocos2d::CCNode*)>::destroy()
PUBLIC 89f6c 0 std::__ndk1::__function::__func<NIDSetupCollisionTriggerPopup::init(EffectGameObject*, cocos2d::CCArray*)::{lambda(cocos2d::CCNode*)#4}, std::__ndk1::allocator<NIDSetupCollisionTriggerPopup::init(EffectGameObject*, cocos2d::CCArray*)::{lambda(cocos2d::CCNode*)#4}>, bool (cocos2d::CCNode*)>::destroy_deallocate()
PUBLIC 89f70 0 std::__ndk1::__function::__func<NIDSetupCollisionTriggerPopup::init(EffectGameObject*, cocos2d::CCArray*)::{lambda(cocos2d::CCNode*)#4}, std::__ndk1::allocator<NIDSetupCollisionTriggerPopup::init(EffectGameObject*, cocos2d::CCArray*)::{lambda(cocos2d::CCNode*)#4}>, bool (cocos2d::CCNode*)>::operator()(cocos2d::CCNode*&&)
PUBLIC 89fd4 0 std::__ndk1::__function::__func<NIDSetupCollisionTriggerPopup::init(EffectGameObject*, cocos2d::CCArray*)::{lambda(cocos2d::CCNode*)#4}, std::__ndk1::allocator<NIDSetupCollisionTriggerPopup::init(EffectGameObject*, cocos2d::CCArray*)::{lambda(cocos2d::CCNode*)#4}>, bool (cocos2d::CCNode*)>::target(std::type_info const&) const
PUBLIC 89ff0 0 std::__ndk1::__function::__func<NIDSetupCollisionTriggerPopup::init(EffectGameObject*, cocos2d::CCArray*)::{lambda(cocos2d::CCNode*)#4}, std::__ndk1::allocator<NIDSetupCollisionTriggerPopup::init(EffectGameObject*, cocos2d::CCArray*)::{lambda(cocos2d::CCNode*)#4}>, bool (cocos2d::CCNode*)>::target_type() const
PUBLIC 89ffc 0 std::__ndk1::__function::__func<NIDSetupCollisionTriggerPopup::init(EffectGameObject*, cocos2d::CCArray*)::{lambda(cocos2d::CCNode*)#5}, std::__ndk1::allocator<NIDSetupCollisionTriggerPopup::init(EffectGameObject*, cocos2d::CCArray*)::{lambda(cocos2d::CCNode*)#5}>, bool (cocos2d::CCNode*)>::~__func()
PUBLIC 8a000 0 std::__ndk1::__function::__func<NIDSetupCollisionTriggerPopup::init(EffectGameObject*, cocos2d::CCArray*)::{lambda(cocos2d::CCNode*)#5}, std::__ndk1::allocator<NIDSetupCollisionTriggerPopup::init(EffectGameObject*, cocos2d::CCArray*)::{lambda(cocos2d::CCNode*)#5}>, bool (cocos2d::CCNode*)>::__clone() const
PUBLIC 8a038 0 std::__ndk1::__function::__func<NIDSetupCollisionTriggerPopup::init(EffectGameObject*, cocos2d::CCArray*)::{lambda(cocos2d::CCNode*)#5}, std::__ndk1::allocator<NIDSetupCollisionTriggerPopup::init(EffectGameObject*, cocos2d::CCArray*)::{lambda(cocos2d::CCNode*)#5}>, bool (cocos2d::CCNode*)>::__clone(std::__ndk1::__function::__base<bool (cocos2d::CCNode*)>*) const
PUBLIC 8a050 0 std::__ndk1::__function::__func<NIDSetupCollisionTriggerPopup::init(EffectGameObject*, cocos2d::CCArray*)::{lambda(cocos2d::CCNode*)#5}, std::__ndk1::allocator<NIDSetupCollisionTriggerPopup::init(EffectGameObject*, cocos2d::CCArray*)::{lambda(cocos2d::CCNode*)#5}>, bool (cocos2d::CCNode*)>::destroy()
PUBLIC 8a054 0 std::__ndk1::__function::__func<NIDSetupCollisionTriggerPopup::init(EffectGameObject*, cocos2d::CCArray*)::{lambda(cocos2d::CCNode*)#5}, std::__ndk1::allocator<NIDSetupCollisionTriggerPopup::init(EffectGameObject*, cocos2d::CCArray*)::{lambda(cocos2d::CCNode*)#5}>, bool (cocos2d::CCNode*)>::destroy_deallocate()
PUBLIC 8a058 0 std::__ndk1::__function::__func<NIDSetupCollisionTriggerPopup::init(EffectGameObject*, cocos2d::CCArray*)::{lambda(cocos2d::CCNode*)#5}, std::__ndk1::allocator<NIDSetupCollisionTriggerPopup::init(EffectGameObject*, cocos2d::CCArray*)::{lambda(cocos2d::CCNode*)#5}>, bool (cocos2d::CCNode*)>::operator()(cocos2d::CCNode*&&)
PUBLIC 8a0bc 0 std::__ndk1::__function::__func<NIDSetupCollisionTriggerPopup::init(EffectGameObject*, cocos2d::CCArray*)::{lambda(cocos2d::CCNode*)#5}, std::__ndk1::allocator<NIDSetupCollisionTriggerPopup::init(EffectGameObject*, cocos2d::CCArray*)::{lambda(cocos2d::CCNode*)#5}>, bool (cocos2d::CCNode*)>::target(std::type_info const&) const
PUBLIC 8a0d8 0 std::__ndk1::__function::__func<NIDSetupCollisionTriggerPopup::init(EffectGameObject*, cocos2d::CCArray*)::{lambda(cocos2d::CCNode*)#5}, std::__ndk1::allocator<NIDSetupCollisionTriggerPopup::init(EffectGameObject*, cocos2d::CCArray*)::{lambda(cocos2d::CCNode*)#5}>, bool (cocos2d::CCNode*)>::target_type() const
PUBLIC 8a0e4 0 std::__ndk1::__function::__func<NIDSetupCollisionTriggerPopup::init(EffectGameObject*, cocos2d::CCArray*)::{lambda(cocos2d::CCNode*)#6}, std::__ndk1::allocator<NIDSetupCollisionTriggerPopup::init(EffectGameObject*, cocos2d::CCArray*)::{lambda(cocos2d::CCNode*)#6}>, bool (cocos2d::CCNode*)>::~__func()
PUBLIC 8a0e8 0 std::__ndk1::__function::__func<NIDSetupCollisionTriggerPopup::init(EffectGameObject*, cocos2d::CCArray*)::{lambda(cocos2d::CCNode*)#6}, std::__ndk1::allocator<NIDSetupCollisionTriggerPopup::init(EffectGameObject*, cocos2d::CCArray*)::{lambda(cocos2d::CCNode*)#6}>, bool (cocos2d::CCNode*)>::__clone() const
PUBLIC 8a10c 0 std::__ndk1::__function::__func<NIDSetupCollisionTriggerPopup::init(EffectGameObject*, cocos2d::CCArray*)::{lambda(cocos2d::CCNode*)#6}, std::__ndk1::allocator<NIDSetupCollisionTriggerPopup::init(EffectGameObject*, cocos2d::CCArray*)::{lambda(cocos2d::CCNode*)#6}>, bool (cocos2d::CCNode*)>::__clone(std::__ndk1::__function::__base<bool (cocos2d::CCNode*)>*) const
PUBLIC 8a11c 0 std::__ndk1::__function::__func<NIDSetupCollisionTriggerPopup::init(EffectGameObject*, cocos2d::CCArray*)::{lambda(cocos2d::CCNode*)#6}, std::__ndk1::allocator<NIDSetupCollisionTriggerPopup::init(EffectGameObject*, cocos2d::CCArray*)::{lambda(cocos2d::CCNode*)#6}>, bool (cocos2d::CCNode*)>::destroy()
PUBLIC 8a120 0 std::__ndk1::__function::__func<NIDSetupCollisionTriggerPopup::init(EffectGameObject*, cocos2d::CCArray*)::{lambda(cocos2d::CCNode*)#6}, std::__ndk1::allocator<NIDSetupCollisionTriggerPopup::init(EffectGameObject*, cocos2d::CCArray*)::{lambda(cocos2d::CCNode*)#6}>, bool (cocos2d::CCNode*)>::destroy_deallocate()
PUBLIC 8a124 0 std::__ndk1::__function::__func<NIDSetupCollisionTriggerPopup::init(EffectGameObject*, cocos2d::CCArray*)::{lambda(cocos2d::CCNode*)#6}, std::__ndk1::allocator<NIDSetupCollisionTriggerPopup::init(EffectGameObject*, cocos2d::CCArray*)::{lambda(cocos2d::CCNode*)#6}>, bool (cocos2d::CCNode*)>::operator()(cocos2d::CCNode*&&)
PUBLIC 8a1c8 0 std::__ndk1::__function::__func<NIDSetupCollisionTriggerPopup::init(EffectGameObject*, cocos2d::CCArray*)::{lambda(cocos2d::CCNode*)#6}, std::__ndk1::allocator<NIDSetupCollisionTriggerPopup::init(EffectGameObject*, cocos2d::CCArray*)::{lambda(cocos2d::CCNode*)#6}>, bool (cocos2d::CCNode*)>::target(std::type_info const&) const
PUBLIC 8a1e4 0 std::__ndk1::__function::__func<NIDSetupCollisionTriggerPopup::init(EffectGameObject*, cocos2d::CCArray*)::{lambda(cocos2d::CCNode*)#6}, std::__ndk1::allocator<NIDSetupCollisionTriggerPopup::init(EffectGameObject*, cocos2d::CCArray*)::{lambda(cocos2d::CCNode*)#6}>, bool (cocos2d::CCNode*)>::target_type() const
PUBLIC 8a1f0 0 std::__ndk1::__function::__func<NIDSetupCollisionTriggerPopup::init(EffectGameObject*, cocos2d::CCArray*)::{lambda(cocos2d::CCNode*)#7}, std::__ndk1::allocator<NIDSetupCollisionTriggerPopup::init(EffectGameObject*, cocos2d::CCArray*)::{lambda(cocos2d::CCNode*)#7}>, bool (cocos2d::CCNode*)>::~__func()
PUBLIC 8a1f4 0 std::__ndk1::__function::__func<NIDSetupCollisionTriggerPopup::init(EffectGameObject*, cocos2d::CCArray*)::{lambda(cocos2d::CCNode*)#7}, std::__ndk1::allocator<NIDSetupCollisionTriggerPopup::init(EffectGameObject*, cocos2d::CCArray*)::{lambda(cocos2d::CCNode*)#7}>, bool (cocos2d::CCNode*)>::__clone() const
PUBLIC 8a22c 0 std::__ndk1::__function::__func<NIDSetupCollisionTriggerPopup::init(EffectGameObject*, cocos2d::CCArray*)::{lambda(cocos2d::CCNode*)#7}, std::__ndk1::allocator<NIDSetupCollisionTriggerPopup::init(EffectGameObject*, cocos2d::CCArray*)::{lambda(cocos2d::CCNode*)#7}>, bool (cocos2d::CCNode*)>::__clone(std::__ndk1::__function::__base<bool (cocos2d::CCNode*)>*) const
PUBLIC 8a244 0 std::__ndk1::__function::__func<NIDSetupCollisionTriggerPopup::init(EffectGameObject*, cocos2d::CCArray*)::{lambda(cocos2d::CCNode*)#7}, std::__ndk1::allocator<NIDSetupCollisionTriggerPopup::init(EffectGameObject*, cocos2d::CCArray*)::{lambda(cocos2d::CCNode*)#7}>, bool (cocos2d::CCNode*)>::destroy()
PUBLIC 8a248 0 std::__ndk1::__function::__func<NIDSetupCollisionTriggerPopup::init(EffectGameObject*, cocos2d::CCArray*)::{lambda(cocos2d::CCNode*)#7}, std::__ndk1::allocator<NIDSetupCollisionTriggerPopup::init(EffectGameObject*, cocos2d::CCArray*)::{lambda(cocos2d::CCNode*)#7}>, bool (cocos2d::CCNode*)>::destroy_deallocate()
PUBLIC 8a24c 0 std::__ndk1::__function::__func<NIDSetupCollisionTriggerPopup::init(EffectGameObject*, cocos2d::CCArray*)::{lambda(cocos2d::CCNode*)#7}, std::__ndk1::allocator<NIDSetupCollisionTriggerPopup::init(EffectGameObject*, cocos2d::CCArray*)::{lambda(cocos2d::CCNode*)#7}>, bool (cocos2d::CCNode*)>::operator()(cocos2d::CCNode*&&)
PUBLIC 8a2cc 0 std::__ndk1::__function::__func<NIDSetupCollisionTriggerPopup::init(EffectGameObject*, cocos2d::CCArray*)::{lambda(cocos2d::CCNode*)#7}, std::__ndk1::allocator<NIDSetupCollisionTriggerPopup::init(EffectGameObject*, cocos2d::CCArray*)::{lambda(cocos2d::CCNode*)#7}>, bool (cocos2d::CCNode*)>::target(std::type_info const&) const
PUBLIC 8a2e8 0 std::__ndk1::__function::__func<NIDSetupCollisionTriggerPopup::init(EffectGameObject*, cocos2d::CCArray*)::{lambda(cocos2d::CCNode*)#7}, std::__ndk1::allocator<NIDSetupCollisionTriggerPopup::init(EffectGameObject*, cocos2d::CCArray*)::{lambda(cocos2d::CCNode*)#7}>, bool (cocos2d::CCNode*)>::target_type() const
PUBLIC 8a2f4 0 std::__ndk1::__function::__func<NIDSetupCollisionTriggerPopup::init(EffectGameObject*, cocos2d::CCArray*)::{lambda(cocos2d::CCNode*)#8}, std::__ndk1::allocator<NIDSetupCollisionTriggerPopup::init(EffectGameObject*, cocos2d::CCArray*)::{lambda(cocos2d::CCNode*)#8}>, bool (cocos2d::CCNode*)>::~__func()
PUBLIC 8a2f8 0 std::__ndk1::__function::__func<NIDSetupCollisionTriggerPopup::init(EffectGameObject*, cocos2d::CCArray*)::{lambda(cocos2d::CCNode*)#8}, std::__ndk1::allocator<NIDSetupCollisionTriggerPopup::init(EffectGameObject*, cocos2d::CCArray*)::{lambda(cocos2d::CCNode*)#8}>, bool (cocos2d::CCNode*)>::__clone() const
PUBLIC 8a330 0 std::__ndk1::__function::__func<NIDSetupCollisionTriggerPopup::init(EffectGameObject*, cocos2d::CCArray*)::{lambda(cocos2d::CCNode*)#8}, std::__ndk1::allocator<NIDSetupCollisionTriggerPopup::init(EffectGameObject*, cocos2d::CCArray*)::{lambda(cocos2d::CCNode*)#8}>, bool (cocos2d::CCNode*)>::__clone(std::__ndk1::__function::__base<bool (cocos2d::CCNode*)>*) const
PUBLIC 8a348 0 std::__ndk1::__function::__func<NIDSetupCollisionTriggerPopup::init(EffectGameObject*, cocos2d::CCArray*)::{lambda(cocos2d::CCNode*)#8}, std::__ndk1::allocator<NIDSetupCollisionTriggerPopup::init(EffectGameObject*, cocos2d::CCArray*)::{lambda(cocos2d::CCNode*)#8}>, bool (cocos2d::CCNode*)>::destroy()
PUBLIC 8a34c 0 std::__ndk1::__function::__func<NIDSetupCollisionTriggerPopup::init(EffectGameObject*, cocos2d::CCArray*)::{lambda(cocos2d::CCNode*)#8}, std::__ndk1::allocator<NIDSetupCollisionTriggerPopup::init(EffectGameObject*, cocos2d::CCArray*)::{lambda(cocos2d::CCNode*)#8}>, bool (cocos2d::CCNode*)>::destroy_deallocate()
PUBLIC 8a350 0 std::__ndk1::__function::__func<NIDSetupCollisionTriggerPopup::init(EffectGameObject*, cocos2d::CCArray*)::{lambda(cocos2d::CCNode*)#8}, std::__ndk1::allocator<NIDSetupCollisionTriggerPopup::init(EffectGameObject*, cocos2d::CCArray*)::{lambda(cocos2d::CCNode*)#8}>, bool (cocos2d::CCNode*)>::operator()(cocos2d::CCNode*&&)
PUBLIC 8a3c0 0 std::__ndk1::__function::__func<NIDSetupCollisionTriggerPopup::init(EffectGameObject*, cocos2d::CCArray*)::{lambda(cocos2d::CCNode*)#8}, std::__ndk1::allocator<NIDSetupCollisionTriggerPopup::init(EffectGameObject*, cocos2d::CCArray*)::{lambda(cocos2d::CCNode*)#8}>, bool (cocos2d::CCNode*)>::target(std::type_info const&) const
PUBLIC 8a3dc 0 std::__ndk1::__function::__func<NIDSetupCollisionTriggerPopup::init(EffectGameObject*, cocos2d::CCArray*)::{lambda(cocos2d::CCNode*)#8}, std::__ndk1::allocator<NIDSetupCollisionTriggerPopup::init(EffectGameObject*, cocos2d::CCArray*)::{lambda(cocos2d::CCNode*)#8}>, bool (cocos2d::CCNode*)>::target_type() const
PUBLIC 8a3e8 0 std::__ndk1::__function::__func<NIDSetupCollisionTriggerPopup::init(EffectGameObject*, cocos2d::CCArray*)::{lambda(cocos2d::CCNode*)#9}, std::__ndk1::allocator<NIDSetupCollisionTriggerPopup::init(EffectGameObject*, cocos2d::CCArray*)::{lambda(cocos2d::CCNode*)#9}>, bool (cocos2d::CCNode*)>::~__func()
PUBLIC 8a3ec 0 std::__ndk1::__function::__func<NIDSetupCollisionTriggerPopup::init(EffectGameObject*, cocos2d::CCArray*)::{lambda(cocos2d::CCNode*)#9}, std::__ndk1::allocator<NIDSetupCollisionTriggerPopup::init(EffectGameObject*, cocos2d::CCArray*)::{lambda(cocos2d::CCNode*)#9}>, bool (cocos2d::CCNode*)>::__clone() const
PUBLIC 8a424 0 std::__ndk1::__function::__func<NIDSetupCollisionTriggerPopup::init(EffectGameObject*, cocos2d::CCArray*)::{lambda(cocos2d::CCNode*)#9}, std::__ndk1::allocator<NIDSetupCollisionTriggerPopup::init(EffectGameObject*, cocos2d::CCArray*)::{lambda(cocos2d::CCNode*)#9}>, bool (cocos2d::CCNode*)>::__clone(std::__ndk1::__function::__base<bool (cocos2d::CCNode*)>*) const
PUBLIC 8a43c 0 std::__ndk1::__function::__func<NIDSetupCollisionTriggerPopup::init(EffectGameObject*, cocos2d::CCArray*)::{lambda(cocos2d::CCNode*)#9}, std::__ndk1::allocator<NIDSetupCollisionTriggerPopup::init(EffectGameObject*, cocos2d::CCArray*)::{lambda(cocos2d::CCNode*)#9}>, bool (cocos2d::CCNode*)>::destroy()
PUBLIC 8a440 0 std::__ndk1::__function::__func<NIDSetupCollisionTriggerPopup::init(EffectGameObject*, cocos2d::CCArray*)::{lambda(cocos2d::CCNode*)#9}, std::__ndk1::allocator<NIDSetupCollisionTriggerPopup::init(EffectGameObject*, cocos2d::CCArray*)::{lambda(cocos2d::CCNode*)#9}>, bool (cocos2d::CCNode*)>::destroy_deallocate()
PUBLIC 8a444 0 std::__ndk1::__function::__func<NIDSetupCollisionTriggerPopup::init(EffectGameObject*, cocos2d::CCArray*)::{lambda(cocos2d::CCNode*)#9}, std::__ndk1::allocator<NIDSetupCollisionTriggerPopup::init(EffectGameObject*, cocos2d::CCArray*)::{lambda(cocos2d::CCNode*)#9}>, bool (cocos2d::CCNode*)>::operator()(cocos2d::CCNode*&&)
PUBLIC 8a4b4 0 std::__ndk1::__function::__func<NIDSetupCollisionTriggerPopup::init(EffectGameObject*, cocos2d::CCArray*)::{lambda(cocos2d::CCNode*)#9}, std::__ndk1::allocator<NIDSetupCollisionTriggerPopup::init(EffectGameObject*, cocos2d::CCArray*)::{lambda(cocos2d::CCNode*)#9}>, bool (cocos2d::CCNode*)>::target(std::type_info const&) const
PUBLIC 8a4d0 0 std::__ndk1::__function::__func<NIDSetupCollisionTriggerPopup::init(EffectGameObject*, cocos2d::CCArray*)::{lambda(cocos2d::CCNode*)#9}, std::__ndk1::allocator<NIDSetupCollisionTriggerPopup::init(EffectGameObject*, cocos2d::CCArray*)::{lambda(cocos2d::CCNode*)#9}>, bool (cocos2d::CCNode*)>::target_type() const
PUBLIC 8a4dc 0 std::__ndk1::__function::__func<NIDSetupCollisionTriggerPopup::init(EffectGameObject*, cocos2d::CCArray*)::{lambda(cocos2d::CCNode*)#10}, std::__ndk1::allocator<NIDSetupCollisionTriggerPopup::init(EffectGameObject*, cocos2d::CCArray*)::{lambda(cocos2d::CCNode*)#10}>, bool (cocos2d::CCNode*)>::~__func()
PUBLIC 8a4e0 0 std::__ndk1::__function::__func<NIDSetupCollisionTriggerPopup::init(EffectGameObject*, cocos2d::CCArray*)::{lambda(cocos2d::CCNode*)#10}, std::__ndk1::allocator<NIDSetupCollisionTriggerPopup::init(EffectGameObject*, cocos2d::CCArray*)::{lambda(cocos2d::CCNode*)#10}>, bool (cocos2d::CCNode*)>::__clone() const
PUBLIC 8a504 0 std::__ndk1::__function::__func<NIDSetupCollisionTriggerPopup::init(EffectGameObject*, cocos2d::CCArray*)::{lambda(cocos2d::CCNode*)#10}, std::__ndk1::allocator<NIDSetupCollisionTriggerPopup::init(EffectGameObject*, cocos2d::CCArray*)::{lambda(cocos2d::CCNode*)#10}>, bool (cocos2d::CCNode*)>::__clone(std::__ndk1::__function::__base<bool (cocos2d::CCNode*)>*) const
PUBLIC 8a514 0 std::__ndk1::__function::__func<NIDSetupCollisionTriggerPopup::init(EffectGameObject*, cocos2d::CCArray*)::{lambda(cocos2d::CCNode*)#10}, std::__ndk1::allocator<NIDSetupCollisionTriggerPopup::init(EffectGameObject*, cocos2d::CCArray*)::{lambda(cocos2d::CCNode*)#10}>, bool (cocos2d::CCNode*)>::destroy()
PUBLIC 8a518 0 std::__ndk1::__function::__func<NIDSetupCollisionTriggerPopup::init(EffectGameObject*, cocos2d::CCArray*)::{lambda(cocos2d::CCNode*)#10}, std::__ndk1::allocator<NIDSetupCollisionTriggerPopup::init(EffectGameObject*, cocos2d::CCArray*)::{lambda(cocos2d::CCNode*)#10}>, bool (cocos2d::CCNode*)>::destroy_deallocate()
PUBLIC 8a51c 0 std::__ndk1::__function::__func<NIDSetupCollisionTriggerPopup::init(EffectGameObject*, cocos2d::CCArray*)::{lambda(cocos2d::CCNode*)#10}, std::__ndk1::allocator<NIDSetupCollisionTriggerPopup::init(EffectGameObject*, cocos2d::CCArray*)::{lambda(cocos2d::CCNode*)#10}>, bool (cocos2d::CCNode*)>::operator()(cocos2d::CCNode*&&)
PUBLIC 8a5c0 0 std::__ndk1::__function::__func<NIDSetupCollisionTriggerPopup::init(EffectGameObject*, cocos2d::CCArray*)::{lambda(cocos2d::CCNode*)#10}, std::__ndk1::allocator<NIDSetupCollisionTriggerPopup::init(EffectGameObject*, cocos2d::CCArray*)::{lambda(cocos2d::CCNode*)#10}>, bool (cocos2d::CCNode*)>::target(std::type_info const&) const
PUBLIC 8a5dc 0 std::__ndk1::__function::__func<NIDSetupCollisionTriggerPopup::init(EffectGameObject*, cocos2d::CCArray*)::{lambda(cocos2d::CCNode*)#10}, std::__ndk1::allocator<NIDSetupCollisionTriggerPopup::init(EffectGameObject*, cocos2d::CCArray*)::{lambda(cocos2d::CCNode*)#10}>, bool (cocos2d::CCNode*)>::target_type() const
PUBLIC 8a5e8 0 std::__ndk1::__function::__func<NIDSetupCollisionTriggerPopup::init(EffectGameObject*, cocos2d::CCArray*)::{lambda(cocos2d::CCNode*)#11}, std::__ndk1::allocator<NIDSetupCollisionTriggerPopup::init(EffectGameObject*, cocos2d::CCArray*)::{lambda(cocos2d::CCNode*)#11}>, bool (cocos2d::CCNode*)>::~__func()
PUBLIC 8a5ec 0 std::__ndk1::__function::__func<NIDSetupCollisionTriggerPopup::init(EffectGameObject*, cocos2d::CCArray*)::{lambda(cocos2d::CCNode*)#11}, std::__ndk1::allocator<NIDSetupCollisionTriggerPopup::init(EffectGameObject*, cocos2d::CCArray*)::{lambda(cocos2d::CCNode*)#11}>, bool (cocos2d::CCNode*)>::__clone() const
PUBLIC 8a624 0 std::__ndk1::__function::__func<NIDSetupCollisionTriggerPopup::init(EffectGameObject*, cocos2d::CCArray*)::{lambda(cocos2d::CCNode*)#11}, std::__ndk1::allocator<NIDSetupCollisionTriggerPopup::init(EffectGameObject*, cocos2d::CCArray*)::{lambda(cocos2d::CCNode*)#11}>, bool (cocos2d::CCNode*)>::__clone(std::__ndk1::__function::__base<bool (cocos2d::CCNode*)>*) const
PUBLIC 8a63c 0 std::__ndk1::__function::__func<NIDSetupCollisionTriggerPopup::init(EffectGameObject*, cocos2d::CCArray*)::{lambda(cocos2d::CCNode*)#11}, std::__ndk1::allocator<NIDSetupCollisionTriggerPopup::init(EffectGameObject*, cocos2d::CCArray*)::{lambda(cocos2d::CCNode*)#11}>, bool (cocos2d::CCNode*)>::destroy()
PUBLIC 8a640 0 std::__ndk1::__function::__func<NIDSetupCollisionTriggerPopup::init(EffectGameObject*, cocos2d::CCArray*)::{lambda(cocos2d::CCNode*)#11}, std::__ndk1::allocator<NIDSetupCollisionTriggerPopup::init(EffectGameObject*, cocos2d::CCArray*)::{lambda(cocos2d::CCNode*)#11}>, bool (cocos2d::CCNode*)>::destroy_deallocate()
PUBLIC 8a644 0 std::__ndk1::__function::__func<NIDSetupCollisionTriggerPopup::init(EffectGameObject*, cocos2d::CCArray*)::{lambda(cocos2d::CCNode*)#11}, std::__ndk1::allocator<NIDSetupCollisionTriggerPopup::init(EffectGameObject*, cocos2d::CCArray*)::{lambda(cocos2d::CCNode*)#11}>, bool (cocos2d::CCNode*)>::operator()(cocos2d::CCNode*&&)
PUBLIC 8a6c4 0 std::__ndk1::__function::__func<NIDSetupCollisionTriggerPopup::init(EffectGameObject*, cocos2d::CCArray*)::{lambda(cocos2d::CCNode*)#11}, std::__ndk1::allocator<NIDSetupCollisionTriggerPopup::init(EffectGameObject*, cocos2d::CCArray*)::{lambda(cocos2d::CCNode*)#11}>, bool (cocos2d::CCNode*)>::target(std::type_info const&) const
PUBLIC 8a6e0 0 std::__ndk1::__function::__func<NIDSetupCollisionTriggerPopup::init(EffectGameObject*, cocos2d::CCArray*)::{lambda(cocos2d::CCNode*)#11}, std::__ndk1::allocator<NIDSetupCollisionTriggerPopup::init(EffectGameObject*, cocos2d::CCArray*)::{lambda(cocos2d::CCNode*)#11}>, bool (cocos2d::CCNode*)>::target_type() const
PUBLIC 8a6ec 0 std::__ndk1::__function::__func<NIDSetupCollisionTriggerPopup::init(EffectGameObject*, cocos2d::CCArray*)::{lambda(cocos2d::CCNode*)#12}, std::__ndk1::allocator<NIDSetupCollisionTriggerPopup::init(EffectGameObject*, cocos2d::CCArray*)::{lambda(cocos2d::CCNode*)#12}>, bool (cocos2d::CCNode*)>::~__func()
PUBLIC 8a6f0 0 std::__ndk1::__function::__func<NIDSetupCollisionTriggerPopup::init(EffectGameObject*, cocos2d::CCArray*)::{lambda(cocos2d::CCNode*)#12}, std::__ndk1::allocator<NIDSetupCollisionTriggerPopup::init(EffectGameObject*, cocos2d::CCArray*)::{lambda(cocos2d::CCNode*)#12}>, bool (cocos2d::CCNode*)>::__clone() const
PUBLIC 8a728 0 std::__ndk1::__function::__func<NIDSetupCollisionTriggerPopup::init(EffectGameObject*, cocos2d::CCArray*)::{lambda(cocos2d::CCNode*)#12}, std::__ndk1::allocator<NIDSetupCollisionTriggerPopup::init(EffectGameObject*, cocos2d::CCArray*)::{lambda(cocos2d::CCNode*)#12}>, bool (cocos2d::CCNode*)>::__clone(std::__ndk1::__function::__base<bool (cocos2d::CCNode*)>*) const
PUBLIC 8a740 0 std::__ndk1::__function::__func<NIDSetupCollisionTriggerPopup::init(EffectGameObject*, cocos2d::CCArray*)::{lambda(cocos2d::CCNode*)#12}, std::__ndk1::allocator<NIDSetupCollisionTriggerPopup::init(EffectGameObject*, cocos2d::CCArray*)::{lambda(cocos2d::CCNode*)#12}>, bool (cocos2d::CCNode*)>::destroy()
PUBLIC 8a744 0 std::__ndk1::__function::__func<NIDSetupCollisionTriggerPopup::init(EffectGameObject*, cocos2d::CCArray*)::{lambda(cocos2d::CCNode*)#12}, std::__ndk1::allocator<NIDSetupCollisionTriggerPopup::init(EffectGameObject*, cocos2d::CCArray*)::{lambda(cocos2d::CCNode*)#12}>, bool (cocos2d::CCNode*)>::destroy_deallocate()
PUBLIC 8a748 0 std::__ndk1::__function::__func<NIDSetupCollisionTriggerPopup::init(EffectGameObject*, cocos2d::CCArray*)::{lambda(cocos2d::CCNode*)#12}, std::__ndk1::allocator<NIDSetupCollisionTriggerPopup::init(EffectGameObject*, cocos2d::CCArray*)::{lambda(cocos2d::CCNode*)#12}>, bool (cocos2d::CCNode*)>::operator()(cocos2d::CCNode*&&)
PUBLIC 8a7ac 0 std::__ndk1::__function::__func<NIDSetupCollisionTriggerPopup::init(EffectGameObject*, cocos2d::CCArray*)::{lambda(cocos2d::CCNode*)#12}, std::__ndk1::allocator<NIDSetupCollisionTriggerPopup::init(EffectGameObject*, cocos2d::CCArray*)::{lambda(cocos2d::CCNode*)#12}>, bool (cocos2d::CCNode*)>::target(std::type_info const&) const
PUBLIC 8a7c8 0 std::__ndk1::__function::__func<NIDSetupCollisionTriggerPopup::init(EffectGameObject*, cocos2d::CCArray*)::{lambda(cocos2d::CCNode*)#12}, std::__ndk1::allocator<NIDSetupCollisionTriggerPopup::init(EffectGameObject*, cocos2d::CCArray*)::{lambda(cocos2d::CCNode*)#12}>, bool (cocos2d::CCNode*)>::target_type() const
PUBLIC 8a7d4 0 std::__ndk1::__function::__func<NIDSetupCollisionTriggerPopup::init(EffectGameObject*, cocos2d::CCArray*)::{lambda(cocos2d::CCNode*)#13}, std::__ndk1::allocator<NIDSetupCollisionTriggerPopup::init(EffectGameObject*, cocos2d::CCArray*)::{lambda(cocos2d::CCNode*)#13}>, bool (cocos2d::CCNode*)>::~__func()
PUBLIC 8a7d8 0 std::__ndk1::__function::__func<NIDSetupCollisionTriggerPopup::init(EffectGameObject*, cocos2d::CCArray*)::{lambda(cocos2d::CCNode*)#13}, std::__ndk1::allocator<NIDSetupCollisionTriggerPopup::init(EffectGameObject*, cocos2d::CCArray*)::{lambda(cocos2d::CCNode*)#13}>, bool (cocos2d::CCNode*)>::__clone() const
PUBLIC 8a810 0 std::__ndk1::__function::__func<NIDSetupCollisionTriggerPopup::init(EffectGameObject*, cocos2d::CCArray*)::{lambda(cocos2d::CCNode*)#13}, std::__ndk1::allocator<NIDSetupCollisionTriggerPopup::init(EffectGameObject*, cocos2d::CCArray*)::{lambda(cocos2d::CCNode*)#13}>, bool (cocos2d::CCNode*)>::__clone(std::__ndk1::__function::__base<bool (cocos2d::CCNode*)>*) const
PUBLIC 8a828 0 std::__ndk1::__function::__func<NIDSetupCollisionTriggerPopup::init(EffectGameObject*, cocos2d::CCArray*)::{lambda(cocos2d::CCNode*)#13}, std::__ndk1::allocator<NIDSetupCollisionTriggerPopup::init(EffectGameObject*, cocos2d::CCArray*)::{lambda(cocos2d::CCNode*)#13}>, bool (cocos2d::CCNode*)>::destroy()
PUBLIC 8a82c 0 std::__ndk1::__function::__func<NIDSetupCollisionTriggerPopup::init(EffectGameObject*, cocos2d::CCArray*)::{lambda(cocos2d::CCNode*)#13}, std::__ndk1::allocator<NIDSetupCollisionTriggerPopup::init(EffectGameObject*, cocos2d::CCArray*)::{lambda(cocos2d::CCNode*)#13}>, bool (cocos2d::CCNode*)>::destroy_deallocate()
PUBLIC 8a830 0 std::__ndk1::__function::__func<NIDSetupCollisionTriggerPopup::init(EffectGameObject*, cocos2d::CCArray*)::{lambda(cocos2d::CCNode*)#13}, std::__ndk1::allocator<NIDSetupCollisionTriggerPopup::init(EffectGameObject*, cocos2d::CCArray*)::{lambda(cocos2d::CCNode*)#13}>, bool (cocos2d::CCNode*)>::operator()(cocos2d::CCNode*&&)
PUBLIC 8a894 0 std::__ndk1::__function::__func<NIDSetupCollisionTriggerPopup::init(EffectGameObject*, cocos2d::CCArray*)::{lambda(cocos2d::CCNode*)#13}, std::__ndk1::allocator<NIDSetupCollisionTriggerPopup::init(EffectGameObject*, cocos2d::CCArray*)::{lambda(cocos2d::CCNode*)#13}>, bool (cocos2d::CCNode*)>::target(std::type_info const&) const
PUBLIC 8a8b0 0 std::__ndk1::__function::__func<NIDSetupCollisionTriggerPopup::init(EffectGameObject*, cocos2d::CCArray*)::{lambda(cocos2d::CCNode*)#13}, std::__ndk1::allocator<NIDSetupCollisionTriggerPopup::init(EffectGameObject*, cocos2d::CCArray*)::{lambda(cocos2d::CCNode*)#13}>, bool (cocos2d::CCNode*)>::target_type() const
PUBLIC 8a8bc 0 __cxx_global_var_init.1
PUBLIC 8ad2c 0 geode::modifier::ModifyBase<geode::modifier::ModifyDerive<NIDSetupCountTriggerPopup, SetupCountTriggerPopup> >::~ModifyBase()
PUBLIC 8ad48 0 geode::modifier::ModifyDerive<NIDSetupCountTriggerPopup, SetupCountTriggerPopup>::apply()
PUBLIC 8b7e4 0 geode::modifier::ModifyBase<geode::modifier::ModifyDerive<NIDSetupCountTriggerPopup, SetupCountTriggerPopup> >::apply()
PUBLIC 8b7e8 0 geode::modifier::AsStaticFunction_textChanged<NIDSetupCountTriggerPopup, void (NIDSetupCountTriggerPopup::*)(CCTextInputNode*)>::Impl<void (NIDSetupCountTriggerPopup::*)(CCTextInputNode*)>::function(NIDSetupCountTriggerPopup*, CCTextInputNode*)
PUBLIC 8b814 0 geode::modifier::AsStaticFunction_init<NIDSetupCountTriggerPopup, bool (NIDSetupCountTriggerPopup::*)(EffectGameObject*, cocos2d::CCArray*)>::Impl<bool (NIDSetupCountTriggerPopup::*)(EffectGameObject*, cocos2d::CCArray*)>::function(NIDSetupCountTriggerPopup*, EffectGameObject*, cocos2d::CCArray*)
PUBLIC 8c860 0 geode::Hook::create<void (*)(NIDSetupCountTriggerPopup*, cocos2d::CCObject*)>(void*, void (*)(NIDSetupCountTriggerPopup*, cocos2d::CCObject*), std::__ndk1::basic_string<char, std::__ndk1::char_traits<char>, std::__ndk1::allocator<char> > const&, tulip::hook::TulipConvention, tulip::hook::HookMetadata const&)
PUBLIC 8c9e4 0 geode::modifier::AsStaticFunction_onItemIDArrow<NIDSetupCountTriggerPopup, void (NIDSetupCountTriggerPopup::*)(cocos2d::CCObject*)>::Impl<void (NIDSetupCountTriggerPopup::*)(cocos2d::CCObject*)>::function(NIDSetupCountTriggerPopup*, cocos2d::CCObject*)
PUBLIC 8ca28 0 geode::modifier::AsStaticFunction_onTargetIDArrow<NIDSetupCountTriggerPopup, void (NIDSetupCountTriggerPopup::*)(cocos2d::CCObject*)>::Impl<void (NIDSetupCountTriggerPopup::*)(cocos2d::CCObject*)>::function(NIDSetupCountTriggerPopup*, cocos2d::CCObject*)
PUBLIC 8ca6c 0 geode::addresser::Addresser::addressOfVirtual<void, SetupCountTriggerPopup, CCTextInputNode*>(void (SetupCountTriggerPopup::*)(CCTextInputNode*))
PUBLIC 8cb14 0 SetupCountTriggerPopup::SetupCountTriggerPopup(geode::ZeroConstructorType)
PUBLIC 8cbc4 0 std::__ndk1::__function::__func<NIDSetupCountTriggerPopup::init(EffectGameObject*, cocos2d::CCArray*)::{lambda(cocos2d::CCNode*)#1}, std::__ndk1::allocator<NIDSetupCountTriggerPopup::init(EffectGameObject*, cocos2d::CCArray*)::{lambda(cocos2d::CCNode*)#1}>, bool (cocos2d::CCNode*)>::~__func()
PUBLIC 8cbc8 0 std::__ndk1::__function::__func<NIDSetupCountTriggerPopup::init(EffectGameObject*, cocos2d::CCArray*)::{lambda(cocos2d::CCNode*)#1}, std::__ndk1::allocator<NIDSetupCountTriggerPopup::init(EffectGameObject*, cocos2d::CCArray*)::{lambda(cocos2d::CCNode*)#1}>, bool (cocos2d::CCNode*)>::__clone() const
PUBLIC 8cbec 0 std::__ndk1::__function::__func<NIDSetupCountTriggerPopup::init(EffectGameObject*, cocos2d::CCArray*)::{lambda(cocos2d::CCNode*)#1}, std::__ndk1::allocator<NIDSetupCountTriggerPopup::init(EffectGameObject*, cocos2d::CCArray*)::{lambda(cocos2d::CCNode*)#1}>, bool (cocos2d::CCNode*)>::__clone(std::__ndk1::__function::__base<bool (cocos2d::CCNode*)>*) const
PUBLIC 8cbfc 0 std::__ndk1::__function::__func<NIDSetupCountTriggerPopup::init(EffectGameObject*, cocos2d::CCArray*)::{lambda(cocos2d::CCNode*)#1}, std::__ndk1::allocator<NIDSetupCountTriggerPopup::init(EffectGameObject*, cocos2d::CCArray*)::{lambda(cocos2d::CCNode*)#1}>, bool (cocos2d::CCNode*)>::destroy()
PUBLIC 8cc00 0 std::__ndk1::__function::__func<NIDSetupCountTriggerPopup::init(EffectGameObject*, cocos2d::CCArray*)::{lambda(cocos2d::CCNode*)#1}, std::__ndk1::allocator<NIDSetupCountTriggerPopup::init(EffectGameObject*, cocos2d::CCArray*)::{lambda(cocos2d::CCNode*)#1}>, bool (cocos2d::CCNode*)>::destroy_deallocate()
PUBLIC 8cc04 0 std::__ndk1::__function::__func<NIDSetupCountTriggerPopup::init(EffectGameObject*, cocos2d::CCArray*)::{lambda(cocos2d::CCNode*)#1}, std::__ndk1::allocator<NIDSetupCountTriggerPopup::init(EffectGameObject*, cocos2d::CCArray*)::{lambda(cocos2d::CCNode*)#1}>, bool (cocos2d::CCNode*)>::operator()(cocos2d::CCNode*&&)
PUBLIC 8cc70 0 std::__ndk1::__function::__func<NIDSetupCountTriggerPopup::init(EffectGameObject*, cocos2d::CCArray*)::{lambda(cocos2d::CCNode*)#1}, std::__ndk1::allocator<NIDSetupCountTriggerPopup::init(EffectGameObject*, cocos2d::CCArray*)::{lambda(cocos2d::CCNode*)#1}>, bool (cocos2d::CCNode*)>::target(std::type_info const&) const
PUBLIC 8cc8c 0 std::__ndk1::__function::__func<NIDSetupCountTriggerPopup::init(EffectGameObject*, cocos2d::CCArray*)::{lambda(cocos2d::CCNode*)#1}, std::__ndk1::allocator<NIDSetupCountTriggerPopup::init(EffectGameObject*, cocos2d::CCArray*)::{lambda(cocos2d::CCNode*)#1}>, bool (cocos2d::CCNode*)>::target_type() const
PUBLIC 8cc98 0 std::__ndk1::__function::__func<NIDSetupCountTriggerPopup::init(EffectGameObject*, cocos2d::CCArray*)::{lambda(cocos2d::CCNode*)#2}, std::__ndk1::allocator<NIDSetupCountTriggerPopup::init(EffectGameObject*, cocos2d::CCArray*)::{lambda(cocos2d::CCNode*)#2}>, bool (cocos2d::CCNode*)>::~__func()
PUBLIC 8cc9c 0 std::__ndk1::__function::__func<NIDSetupCountTriggerPopup::init(EffectGameObject*, cocos2d::CCArray*)::{lambda(cocos2d::CCNode*)#2}, std::__ndk1::allocator<NIDSetupCountTriggerPopup::init(EffectGameObject*, cocos2d::CCArray*)::{lambda(cocos2d::CCNode*)#2}>, bool (cocos2d::CCNode*)>::__clone() const
PUBLIC 8ccc0 0 std::__ndk1::__function::__func<NIDSetupCountTriggerPopup::init(EffectGameObject*, cocos2d::CCArray*)::{lambda(cocos2d::CCNode*)#2}, std::__ndk1::allocator<NIDSetupCountTriggerPopup::init(EffectGameObject*, cocos2d::CCArray*)::{lambda(cocos2d::CCNode*)#2}>, bool (cocos2d::CCNode*)>::__clone(std::__ndk1::__function::__base<bool (cocos2d::CCNode*)>*) const
PUBLIC 8ccd0 0 std::__ndk1::__function::__func<NIDSetupCountTriggerPopup::init(EffectGameObject*, cocos2d::CCArray*)::{lambda(cocos2d::CCNode*)#2}, std::__ndk1::allocator<NIDSetupCountTriggerPopup::init(EffectGameObject*, cocos2d::CCArray*)::{lambda(cocos2d::CCNode*)#2}>, bool (cocos2d::CCNode*)>::destroy()
PUBLIC 8ccd4 0 std::__ndk1::__function::__func<NIDSetupCountTriggerPopup::init(EffectGameObject*, cocos2d::CCArray*)::{lambda(cocos2d::CCNode*)#2}, std::__ndk1::allocator<NIDSetupCountTriggerPopup::init(EffectGameObject*, cocos2d::CCArray*)::{lambda(cocos2d::CCNode*)#2}>, bool (cocos2d::CCNode*)>::destroy_deallocate()
PUBLIC 8ccd8 0 std::__ndk1::__function::__func<NIDSetupCountTriggerPopup::init(EffectGameObject*, cocos2d::CCArray*)::{lambda(cocos2d::CCNode*)#2}, std::__ndk1::allocator<NIDSetupCountTriggerPopup::init(EffectGameObject*, cocos2d::CCArray*)::{lambda(cocos2d::CCNode*)#2}>, bool (cocos2d::CCNode*)>::operator()(cocos2d::CCNode*&&)
PUBLIC 8cd78 0 std::__ndk1::__function::__func<NIDSetupCountTriggerPopup::init(EffectGameObject*, cocos2d::CCArray*)::{lambda(cocos2d::CCNode*)#2}, std::__ndk1::allocator<NIDSetupCountTriggerPopup::init(EffectGameObject*, cocos2d::CCArray*)::{lambda(cocos2d::CCNode*)#2}>, bool (cocos2d::CCNode*)>::target(std::type_info const&) const
PUBLIC 8cd94 0 std::__ndk1::__function::__func<NIDSetupCountTriggerPopup::init(EffectGameObject*, cocos2d::CCArray*)::{lambda(cocos2d::CCNode*)#2}, std::__ndk1::allocator<NIDSetupCountTriggerPopup::init(EffectGameObject*, cocos2d::CCArray*)::{lambda(cocos2d::CCNode*)#2}>, bool (cocos2d::CCNode*)>::target_type() const
PUBLIC 8cda0 0 std::__ndk1::__function::__func<NIDSetupCountTriggerPopup::init(EffectGameObject*, cocos2d::CCArray*)::{lambda(cocos2d::CCNode*)#3}, std::__ndk1::allocator<NIDSetupCountTriggerPopup::init(EffectGameObject*, cocos2d::CCArray*)::{lambda(cocos2d::CCNode*)#3}>, bool (cocos2d::CCNode*)>::~__func()
PUBLIC 8cda4 0 std::__ndk1::__function::__func<NIDSetupCountTriggerPopup::init(EffectGameObject*, cocos2d::CCArray*)::{lambda(cocos2d::CCNode*)#3}, std::__ndk1::allocator<NIDSetupCountTriggerPopup::init(EffectGameObject*, cocos2d::CCArray*)::{lambda(cocos2d::CCNode*)#3}>, bool (cocos2d::CCNode*)>::__clone() const
PUBLIC 8cddc 0 std::__ndk1::__function::__func<NIDSetupCountTriggerPopup::init(EffectGameObject*, cocos2d::CCArray*)::{lambda(cocos2d::CCNode*)#3}, std::__ndk1::allocator<NIDSetupCountTriggerPopup::init(EffectGameObject*, cocos2d::CCArray*)::{lambda(cocos2d::CCNode*)#3}>, bool (cocos2d::CCNode*)>::__clone(std::__ndk1::__function::__base<bool (cocos2d::CCNode*)>*) const
PUBLIC 8cdf4 0 std::__ndk1::__function::__func<NIDSetupCountTriggerPopup::init(EffectGameObject*, cocos2d::CCArray*)::{lambda(cocos2d::CCNode*)#3}, std::__ndk1::allocator<NIDSetupCountTriggerPopup::init(EffectGameObject*, cocos2d::CCArray*)::{lambda(cocos2d::CCNode*)#3}>, bool (cocos2d::CCNode*)>::destroy()
PUBLIC 8cdf8 0 std::__ndk1::__function::__func<NIDSetupCountTriggerPopup::init(EffectGameObject*, cocos2d::CCArray*)::{lambda(cocos2d::CCNode*)#3}, std::__ndk1::allocator<NIDSetupCountTriggerPopup::init(EffectGameObject*, cocos2d::CCArray*)::{lambda(cocos2d::CCNode*)#3}>, bool (cocos2d::CCNode*)>::destroy_deallocate()
PUBLIC 8cdfc 0 std::__ndk1::__function::__func<NIDSetupCountTriggerPopup::init(EffectGameObject*, cocos2d::CCArray*)::{lambda(cocos2d::CCNode*)#3}, std::__ndk1::allocator<NIDSetupCountTriggerPopup::init(EffectGameObject*, cocos2d::CCArray*)::{lambda(cocos2d::CCNode*)#3}>, bool (cocos2d::CCNode*)>::operator()(cocos2d::CCNode*&&)
PUBLIC 8ce7c 0 std::__ndk1::__function::__func<NIDSetupCountTriggerPopup::init(EffectGameObject*, cocos2d::CCArray*)::{lambda(cocos2d::CCNode*)#3}, std::__ndk1::allocator<NIDSetupCountTriggerPopup::init(EffectGameObject*, cocos2d::CCArray*)::{lambda(cocos2d::CCNode*)#3}>, bool (cocos2d::CCNode*)>::target(std::type_info const&) const
PUBLIC 8ce98 0 std::__ndk1::__function::__func<NIDSetupCountTriggerPopup::init(EffectGameObject*, cocos2d::CCArray*)::{lambda(cocos2d::CCNode*)#3}, std::__ndk1::allocator<NIDSetupCountTriggerPopup::init(EffectGameObject*, cocos2d::CCArray*)::{lambda(cocos2d::CCNode*)#3}>, bool (cocos2d::CCNode*)>::target_type() const
PUBLIC 8cea4 0 std::__ndk1::__function::__func<NIDSetupCountTriggerPopup::init(EffectGameObject*, cocos2d::CCArray*)::{lambda(cocos2d::CCNode*)#4}, std::__ndk1::allocator<NIDSetupCountTriggerPopup::init(EffectGameObject*, cocos2d::CCArray*)::{lambda(cocos2d::CCNode*)#4}>, bool (cocos2d::CCNode*)>::~__func()
PUBLIC 8cea8 0 std::__ndk1::__function::__func<NIDSetupCountTriggerPopup::init(EffectGameObject*, cocos2d::CCArray*)::{lambda(cocos2d::CCNode*)#4}, std::__ndk1::allocator<NIDSetupCountTriggerPopup::init(EffectGameObject*, cocos2d::CCArray*)::{lambda(cocos2d::CCNode*)#4}>, bool (cocos2d::CCNode*)>::__clone() const
PUBLIC 8cee0 0 std::__ndk1::__function::__func<NIDSetupCountTriggerPopup::init(EffectGameObject*, cocos2d::CCArray*)::{lambda(cocos2d::CCNode*)#4}, std::__ndk1::allocator<NIDSetupCountTriggerPopup::init(EffectGameObject*, cocos2d::CCArray*)::{lambda(cocos2d::CCNode*)#4}>, bool (cocos2d::CCNode*)>::__clone(std::__ndk1::__function::__base<bool (cocos2d::CCNode*)>*) const
PUBLIC 8cef8 0 std::__ndk1::__function::__func<NIDSetupCountTriggerPopup::init(EffectGameObject*, cocos2d::CCArray*)::{lambda(cocos2d::CCNode*)#4}, std::__ndk1::allocator<NIDSetupCountTriggerPopup::init(EffectGameObject*, cocos2d::CCArray*)::{lambda(cocos2d::CCNode*)#4}>, bool (cocos2d::CCNode*)>::destroy()
PUBLIC 8cefc 0 std::__ndk1::__function::__func<NIDSetupCountTriggerPopup::init(EffectGameObject*, cocos2d::CCArray*)::{lambda(cocos2d::CCNode*)#4}, std::__ndk1::allocator<NIDSetupCountTriggerPopup::init(EffectGameObject*, cocos2d::CCArray*)::{lambda(cocos2d::CCNode*)#4}>, bool (cocos2d::CCNode*)>::destroy_deallocate()
PUBLIC 8cf00 0 std::__ndk1::__function::__func<NIDSetupCountTriggerPopup::init(EffectGameObject*, cocos2d::CCArray*)::{lambda(cocos2d::CCNode*)#4}, std::__ndk1::allocator<NIDSetupCountTriggerPopup::init(EffectGameObject*, cocos2d::CCArray*)::{lambda(cocos2d::CCNode*)#4}>, bool (cocos2d::CCNode*)>::operator()(cocos2d::CCNode*&&)
PUBLIC 8cf64 0 std::__ndk1::__function::__func<NIDSetupCountTriggerPopup::init(EffectGameObject*, cocos2d::CCArray*)::{lambda(cocos2d::CCNode*)#4}, std::__ndk1::allocator<NIDSetupCountTriggerPopup::init(EffectGameObject*, cocos2d::CCArray*)::{lambda(cocos2d::CCNode*)#4}>, bool (cocos2d::CCNode*)>::target(std::type_info const&) const
PUBLIC 8cf80 0 std::__ndk1::__function::__func<NIDSetupCountTriggerPopup::init(EffectGameObject*, cocos2d::CCArray*)::{lambda(cocos2d::CCNode*)#4}, std::__ndk1::allocator<NIDSetupCountTriggerPopup::init(EffectGameObject*, cocos2d::CCArray*)::{lambda(cocos2d::CCNode*)#4}>, bool (cocos2d::CCNode*)>::target_type() const
PUBLIC 8cf8c 0 std::__ndk1::__function::__func<NIDSetupCountTriggerPopup::init(EffectGameObject*, cocos2d::CCArray*)::{lambda(cocos2d::CCNode*)#5}, std::__ndk1::allocator<NIDSetupCountTriggerPopup::init(EffectGameObject*, cocos2d::CCArray*)::{lambda(cocos2d::CCNode*)#5}>, bool (cocos2d::CCNode*)>::~__func()
PUBLIC 8cf90 0 std::__ndk1::__function::__func<NIDSetupCountTriggerPopup::init(EffectGameObject*, cocos2d::CCArray*)::{lambda(cocos2d::CCNode*)#5}, std::__ndk1::allocator<NIDSetupCountTriggerPopup::init(EffectGameObject*, cocos2d::CCArray*)::{lambda(cocos2d::CCNode*)#5}>, bool (cocos2d::CCNode*)>::__clone() const
PUBLIC 8cfc8 0 std::__ndk1::__function::__func<NIDSetupCountTriggerPopup::init(EffectGameObject*, cocos2d::CCArray*)::{lambda(cocos2d::CCNode*)#5}, std::__ndk1::allocator<NIDSetupCountTriggerPopup::init(EffectGameObject*, cocos2d::CCArray*)::{lambda(cocos2d::CCNode*)#5}>, bool (cocos2d::CCNode*)>::__clone(std::__ndk1::__function::__base<bool (cocos2d::CCNode*)>*) const
PUBLIC 8cfe0 0 std::__ndk1::__function::__func<NIDSetupCountTriggerPopup::init(EffectGameObject*, cocos2d::CCArray*)::{lambda(cocos2d::CCNode*)#5}, std::__ndk1::allocator<NIDSetupCountTriggerPopup::init(EffectGameObject*, cocos2d::CCArray*)::{lambda(cocos2d::CCNode*)#5}>, bool (cocos2d::CCNode*)>::destroy()
PUBLIC 8cfe4 0 std::__ndk1::__function::__func<NIDSetupCountTriggerPopup::init(EffectGameObject*, cocos2d::CCArray*)::{lambda(cocos2d::CCNode*)#5}, std::__ndk1::allocator<NIDSetupCountTriggerPopup::init(EffectGameObject*, cocos2d::CCArray*)::{lambda(cocos2d::CCNode*)#5}>, bool (cocos2d::CCNode*)>::destroy_deallocate()
PUBLIC 8cfe8 0 std::__ndk1::__function::__func<NIDSetupCountTriggerPopup::init(EffectGameObject*, cocos2d::CCArray*)::{lambda(cocos2d::CCNode*)#5}, std::__ndk1::allocator<NIDSetupCountTriggerPopup::init(EffectGameObject*, cocos2d::CCArray*)::{lambda(cocos2d::CCNode*)#5}>, bool (cocos2d::CCNode*)>::operator()(cocos2d::CCNode*&&)
PUBLIC 8d04c 0 std::__ndk1::__function::__func<NIDSetupCountTriggerPopup::init(EffectGameObject*, cocos2d::CCArray*)::{lambda(cocos2d::CCNode*)#5}, std::__ndk1::allocator<NIDSetupCountTriggerPopup::init(EffectGameObject*, cocos2d::CCArray*)::{lambda(cocos2d::CCNode*)#5}>, bool (cocos2d::CCNode*)>::target(std::type_info const&) const
PUBLIC 8d068 0 std::__ndk1::__function::__func<NIDSetupCountTriggerPopup::init(EffectGameObject*, cocos2d::CCArray*)::{lambda(cocos2d::CCNode*)#5}, std::__ndk1::allocator<NIDSetupCountTriggerPopup::init(EffectGameObject*, cocos2d::CCArray*)::{lambda(cocos2d::CCNode*)#5}>, bool (cocos2d::CCNode*)>::target_type() const
PUBLIC 8d074 0 std::__ndk1::__function::__func<NIDSetupCountTriggerPopup::init(EffectGameObject*, cocos2d::CCArray*)::{lambda(cocos2d::CCNode*)#6}, std::__ndk1::allocator<NIDSetupCountTriggerPopup::init(EffectGameObject*, cocos2d::CCArray*)::{lambda(cocos2d::CCNode*)#6}>, bool (cocos2d::CCNode*)>::~__func()
PUBLIC 8d078 0 std::__ndk1::__function::__func<NIDSetupCountTriggerPopup::init(EffectGameObject*, cocos2d::CCArray*)::{lambda(cocos2d::CCNode*)#6}, std::__ndk1::allocator<NIDSetupCountTriggerPopup::init(EffectGameObject*, cocos2d::CCArray*)::{lambda(cocos2d::CCNode*)#6}>, bool (cocos2d::CCNode*)>::__clone() const
PUBLIC 8d09c 0 std::__ndk1::__function::__func<NIDSetupCountTriggerPopup::init(EffectGameObject*, cocos2d::CCArray*)::{lambda(cocos2d::CCNode*)#6}, std::__ndk1::allocator<NIDSetupCountTriggerPopup::init(EffectGameObject*, cocos2d::CCArray*)::{lambda(cocos2d::CCNode*)#6}>, bool (cocos2d::CCNode*)>::__clone(std::__ndk1::__function::__base<bool (cocos2d::CCNode*)>*) const
PUBLIC 8d0ac 0 std::__ndk1::__function::__func<NIDSetupCountTriggerPopup::init(EffectGameObject*, cocos2d::CCArray*)::{lambda(cocos2d::CCNode*)#6}, std::__ndk1::allocator<NIDSetupCountTriggerPopup::init(EffectGameObject*, cocos2d::CCArray*)::{lambda(cocos2d::CCNode*)#6}>, bool (cocos2d::CCNode*)>::destroy()
PUBLIC 8d0b0 0 std::__ndk1::__function::__func<NIDSetupCountTriggerPopup::init(EffectGameObject*, cocos2d::CCArray*)::{lambda(cocos2d::CCNode*)#6}, std::__ndk1::allocator<NIDSetupCountTriggerPopup::init(EffectGameObject*, cocos2d::CCArray*)::{lambda(cocos2d::CCNode*)#6}>, bool (cocos2d::CCNode*)>::destroy_deallocate()
PUBLIC 8d0b4 0 std::__ndk1::__function::__func<NIDSetupCountTriggerPopup::init(EffectGameObject*, cocos2d::CCArray*)::{lambda(cocos2d::CCNode*)#6}, std::__ndk1::allocator<NIDSetupCountTriggerPopup::init(EffectGameObject*, cocos2d::CCArray*)::{lambda(cocos2d::CCNode*)#6}>, bool (cocos2d::CCNode*)>::operator()(cocos2d::CCNode*&&)
PUBLIC 8d158 0 std::__ndk1::__function::__func<NIDSetupCountTriggerPopup::init(EffectGameObject*, cocos2d::CCArray*)::{lambda(cocos2d::CCNode*)#6}, std::__ndk1::allocator<NIDSetupCountTriggerPopup::init(EffectGameObject*, cocos2d::CCArray*)::{lambda(cocos2d::CCNode*)#6}>, bool (cocos2d::CCNode*)>::target(std::type_info const&) const
PUBLIC 8d174 0 std::__ndk1::__function::__func<NIDSetupCountTriggerPopup::init(EffectGameObject*, cocos2d::CCArray*)::{lambda(cocos2d::CCNode*)#6}, std::__ndk1::allocator<NIDSetupCountTriggerPopup::init(EffectGameObject*, cocos2d::CCArray*)::{lambda(cocos2d::CCNode*)#6}>, bool (cocos2d::CCNode*)>::target_type() const
PUBLIC 8d180 0 std::__ndk1::__function::__func<NIDSetupCountTriggerPopup::init(EffectGameObject*, cocos2d::CCArray*)::{lambda(cocos2d::CCNode*)#7}, std::__ndk1::allocator<NIDSetupCountTriggerPopup::init(EffectGameObject*, cocos2d::CCArray*)::{lambda(cocos2d::CCNode*)#7}>, bool (cocos2d::CCNode*)>::~__func()
PUBLIC 8d184 0 std::__ndk1::__function::__func<NIDSetupCountTriggerPopup::init(EffectGameObject*, cocos2d::CCArray*)::{lambda(cocos2d::CCNode*)#7}, std::__ndk1::allocator<NIDSetupCountTriggerPopup::init(EffectGameObject*, cocos2d::CCArray*)::{lambda(cocos2d::CCNode*)#7}>, bool (cocos2d::CCNode*)>::__clone() const
PUBLIC 8d1bc 0 std::__ndk1::__function::__func<NIDSetupCountTriggerPopup::init(EffectGameObject*, cocos2d::CCArray*)::{lambda(cocos2d::CCNode*)#7}, std::__ndk1::allocator<NIDSetupCountTriggerPopup::init(EffectGameObject*, cocos2d::CCArray*)::{lambda(cocos2d::CCNode*)#7}>, bool (cocos2d::CCNode*)>::__clone(std::__ndk1::__function::__base<bool (cocos2d::CCNode*)>*) const
PUBLIC 8d1d4 0 std::__ndk1::__function::__func<NIDSetupCountTriggerPopup::init(EffectGameObject*, cocos2d::CCArray*)::{lambda(cocos2d::CCNode*)#7}, std::__ndk1::allocator<NIDSetupCountTriggerPopup::init(EffectGameObject*, cocos2d::CCArray*)::{lambda(cocos2d::CCNode*)#7}>, bool (cocos2d::CCNode*)>::destroy()
PUBLIC 8d1d8 0 std::__ndk1::__function::__func<NIDSetupCountTriggerPopup::init(EffectGameObject*, cocos2d::CCArray*)::{lambda(cocos2d::CCNode*)#7}, std::__ndk1::allocator<NIDSetupCountTriggerPopup::init(EffectGameObject*, cocos2d::CCArray*)::{lambda(cocos2d::CCNode*)#7}>, bool (cocos2d::CCNode*)>::destroy_deallocate()
PUBLIC 8d1dc 0 std::__ndk1::__function::__func<NIDSetupCountTriggerPopup::init(EffectGameObject*, cocos2d::CCArray*)::{lambda(cocos2d::CCNode*)#7}, std::__ndk1::allocator<NIDSetupCountTriggerPopup::init(EffectGameObject*, cocos2d::CCArray*)::{lambda(cocos2d::CCNode*)#7}>, bool (cocos2d::CCNode*)>::operator()(cocos2d::CCNode*&&)
PUBLIC 8d25c 0 std::__ndk1::__function::__func<NIDSetupCountTriggerPopup::init(EffectGameObject*, cocos2d::CCArray*)::{lambda(cocos2d::CCNode*)#7}, std::__ndk1::allocator<NIDSetupCountTriggerPopup::init(EffectGameObject*, cocos2d::CCArray*)::{lambda(cocos2d::CCNode*)#7}>, bool (cocos2d::CCNode*)>::target(std::type_info const&) const
PUBLIC 8d278 0 std::__ndk1::__function::__func<NIDSetupCountTriggerPopup::init(EffectGameObject*, cocos2d::CCArray*)::{lambda(cocos2d::CCNode*)#7}, std::__ndk1::allocator<NIDSetupCountTriggerPopup::init(EffectGameObject*, cocos2d::CCArray*)::{lambda(cocos2d::CCNode*)#7}>, bool (cocos2d::CCNode*)>::target_type() const
PUBLIC 8d284 0 std::__ndk1::__function::__func<NIDSetupCountTriggerPopup::init(EffectGameObject*, cocos2d::CCArray*)::{lambda(cocos2d::CCNode*)#8}, std::__ndk1::allocator<NIDSetupCountTriggerPopup::init(EffectGameObject*, cocos2d::CCArray*)::{lambda(cocos2d::CCNode*)#8}>, bool (cocos2d::CCNode*)>::~__func()
PUBLIC 8d288 0 std::__ndk1::__function::__func<NIDSetupCountTriggerPopup::init(EffectGameObject*, cocos2d::CCArray*)::{lambda(cocos2d::CCNode*)#8}, std::__ndk1::allocator<NIDSetupCountTriggerPopup::init(EffectGameObject*, cocos2d::CCArray*)::{lambda(cocos2d::CCNode*)#8}>, bool (cocos2d::CCNode*)>::__clone() const
PUBLIC 8d2c0 0 std::__ndk1::__function::__func<NIDSetupCountTriggerPopup::init(EffectGameObject*, cocos2d::CCArray*)::{lambda(cocos2d::CCNode*)#8}, std::__ndk1::allocator<NIDSetupCountTriggerPopup::init(EffectGameObject*, cocos2d::CCArray*)::{lambda(cocos2d::CCNode*)#8}>, bool (cocos2d::CCNode*)>::__clone(std::__ndk1::__function::__base<bool (cocos2d::CCNode*)>*) const
PUBLIC 8d2d8 0 std::__ndk1::__function::__func<NIDSetupCountTriggerPopup::init(EffectGameObject*, cocos2d::CCArray*)::{lambda(cocos2d::CCNode*)#8}, std::__ndk1::allocator<NIDSetupCountTriggerPopup::init(EffectGameObject*, cocos2d::CCArray*)::{lambda(cocos2d::CCNode*)#8}>, bool (cocos2d::CCNode*)>::destroy()
PUBLIC 8d2dc 0 std::__ndk1::__function::__func<NIDSetupCountTriggerPopup::init(EffectGameObject*, cocos2d::CCArray*)::{lambda(cocos2d::CCNode*)#8}, std::__ndk1::allocator<NIDSetupCountTriggerPopup::init(EffectGameObject*, cocos2d::CCArray*)::{lambda(cocos2d::CCNode*)#8}>, bool (cocos2d::CCNode*)>::destroy_deallocate()
PUBLIC 8d2e0 0 std::__ndk1::__function::__func<NIDSetupCountTriggerPopup::init(EffectGameObject*, cocos2d::CCArray*)::{lambda(cocos2d::CCNode*)#8}, std::__ndk1::allocator<NIDSetupCountTriggerPopup::init(EffectGameObject*, cocos2d::CCArray*)::{lambda(cocos2d::CCNode*)#8}>, bool (cocos2d::CCNode*)>::operator()(cocos2d::CCNode*&&)
PUBLIC 8d350 0 std::__ndk1::__function::__func<NIDSetupCountTriggerPopup::init(EffectGameObject*, cocos2d::CCArray*)::{lambda(cocos2d::CCNode*)#8}, std::__ndk1::allocator<NIDSetupCountTriggerPopup::init(EffectGameObject*, cocos2d::CCArray*)::{lambda(cocos2d::CCNode*)#8}>, bool (cocos2d::CCNode*)>::target(std::type_info const&) const
PUBLIC 8d36c 0 std::__ndk1::__function::__func<NIDSetupCountTriggerPopup::init(EffectGameObject*, cocos2d::CCArray*)::{lambda(cocos2d::CCNode*)#8}, std::__ndk1::allocator<NIDSetupCountTriggerPopup::init(EffectGameObject*, cocos2d::CCArray*)::{lambda(cocos2d::CCNode*)#8}>, bool (cocos2d::CCNode*)>::target_type() const
PUBLIC 8d378 0 std::__ndk1::__function::__func<NIDSetupCountTriggerPopup::init(EffectGameObject*, cocos2d::CCArray*)::{lambda(cocos2d::CCNode*)#9}, std::__ndk1::allocator<NIDSetupCountTriggerPopup::init(EffectGameObject*, cocos2d::CCArray*)::{lambda(cocos2d::CCNode*)#9}>, bool (cocos2d::CCNode*)>::~__func()
PUBLIC 8d37c 0 std::__ndk1::__function::__func<NIDSetupCountTriggerPopup::init(EffectGameObject*, cocos2d::CCArray*)::{lambda(cocos2d::CCNode*)#9}, std::__ndk1::allocator<NIDSetupCountTriggerPopup::init(EffectGameObject*, cocos2d::CCArray*)::{lambda(cocos2d::CCNode*)#9}>, bool (cocos2d::CCNode*)>::__clone() const
PUBLIC 8d3b4 0 std::__ndk1::__function::__func<NIDSetupCountTriggerPopup::init(EffectGameObject*, cocos2d::CCArray*)::{lambda(cocos2d::CCNode*)#9}, std::__ndk1::allocator<NIDSetupCountTriggerPopup::init(EffectGameObject*, cocos2d::CCArray*)::{lambda(cocos2d::CCNode*)#9}>, bool (cocos2d::CCNode*)>::__clone(std::__ndk1::__function::__base<bool (cocos2d::CCNode*)>*) const
PUBLIC 8d3cc 0 std::__ndk1::__function::__func<NIDSetupCountTriggerPopup::init(EffectGameObject*, cocos2d::CCArray*)::{lambda(cocos2d::CCNode*)#9}, std::__ndk1::allocator<NIDSetupCountTriggerPopup::init(EffectGameObject*, cocos2d::CCArray*)::{lambda(cocos2d::CCNode*)#9}>, bool (cocos2d::CCNode*)>::destroy()
PUBLIC 8d3d0 0 std::__ndk1::__function::__func<NIDSetupCountTriggerPopup::init(EffectGameObject*, cocos2d::CCArray*)::{lambda(cocos2d::CCNode*)#9}, std::__ndk1::allocator<NIDSetupCountTriggerPopup::init(EffectGameObject*, cocos2d::CCArray*)::{lambda(cocos2d::CCNode*)#9}>, bool (cocos2d::CCNode*)>::destroy_deallocate()
PUBLIC 8d3d4 0 std::__ndk1::__function::__func<NIDSetupCountTriggerPopup::init(EffectGameObject*, cocos2d::CCArray*)::{lambda(cocos2d::CCNode*)#9}, std::__ndk1::allocator<NIDSetupCountTriggerPopup::init(EffectGameObject*, cocos2d::CCArray*)::{lambda(cocos2d::CCNode*)#9}>, bool (cocos2d::CCNode*)>::operator()(cocos2d::CCNode*&&)
PUBLIC 8d444 0 std::__ndk1::__function::__func<NIDSetupCountTriggerPopup::init(EffectGameObject*, cocos2d::CCArray*)::{lambda(cocos2d::CCNode*)#9}, std::__ndk1::allocator<NIDSetupCountTriggerPopup::init(EffectGameObject*, cocos2d::CCArray*)::{lambda(cocos2d::CCNode*)#9}>, bool (cocos2d::CCNode*)>::target(std::type_info const&) const
PUBLIC 8d460 0 std::__ndk1::__function::__func<NIDSetupCountTriggerPopup::init(EffectGameObject*, cocos2d::CCArray*)::{lambda(cocos2d::CCNode*)#9}, std::__ndk1::allocator<NIDSetupCountTriggerPopup::init(EffectGameObject*, cocos2d::CCArray*)::{lambda(cocos2d::CCNode*)#9}>, bool (cocos2d::CCNode*)>::target_type() const
PUBLIC 8d46c 0 __cxx_global_var_init.1
PUBLIC 8d8dc 0 geode::modifier::ModifyBase<geode::modifier::ModifyDerive<NIDSetupInstantCountPopup, SetupInstantCountPopup> >::~ModifyBase()
PUBLIC 8d8f8 0 geode::modifier::ModifyDerive<NIDSetupInstantCountPopup, SetupInstantCountPopup>::apply()
PUBLIC 8e394 0 geode::modifier::ModifyBase<geode::modifier::ModifyDerive<NIDSetupInstantCountPopup, SetupInstantCountPopup> >::apply()
PUBLIC 8e398 0 geode::modifier::AsStaticFunction_textChanged<NIDSetupInstantCountPopup, void (NIDSetupInstantCountPopup::*)(CCTextInputNode*)>::Impl<void (NIDSetupInstantCountPopup::*)(CCTextInputNode*)>::function(NIDSetupInstantCountPopup*, CCTextInputNode*)
PUBLIC 8e3c4 0 geode::modifier::AsStaticFunction_init<NIDSetupInstantCountPopup, bool (NIDSetupInstantCountPopup::*)(CountTriggerGameObject*, cocos2d::CCArray*)>::Impl<bool (NIDSetupInstantCountPopup::*)(CountTriggerGameObject*, cocos2d::CCArray*)>::function(NIDSetupInstantCountPopup*, CountTriggerGameObject*, cocos2d::CCArray*)
PUBLIC 8f410 0 geode::Hook::create<void (*)(NIDSetupInstantCountPopup*, cocos2d::CCObject*)>(void*, void (*)(NIDSetupInstantCountPopup*, cocos2d::CCObject*), std::__ndk1::basic_string<char, std::__ndk1::char_traits<char>, std::__ndk1::allocator<char> > const&, tulip::hook::TulipConvention, tulip::hook::HookMetadata const&)
PUBLIC 8f594 0 geode::modifier::AsStaticFunction_onTargetID2Arrow<NIDSetupInstantCountPopup, void (NIDSetupInstantCountPopup::*)(cocos2d::CCObject*)>::Impl<void (NIDSetupInstantCountPopup::*)(cocos2d::CCObject*)>::function(NIDSetupInstantCountPopup*, cocos2d::CCObject*)
PUBLIC 8f5d8 0 geode::modifier::AsStaticFunction_onTargetIDArrow<NIDSetupInstantCountPopup, void (NIDSetupInstantCountPopup::*)(cocos2d::CCObject*)>::Impl<void (NIDSetupInstantCountPopup::*)(cocos2d::CCObject*)>::function(NIDSetupInstantCountPopup*, cocos2d::CCObject*)
PUBLIC 8f61c 0 geode::addresser::Addresser::addressOfVirtual<void, SetupInstantCountPopup, CCTextInputNode*>(void (SetupInstantCountPopup::*)(CCTextInputNode*))
PUBLIC 8f6c4 0 SetupInstantCountPopup::SetupInstantCountPopup(geode::ZeroConstructorType)
PUBLIC 8f774 0 std::__ndk1::__function::__func<NIDSetupInstantCountPopup::init(CountTriggerGameObject*, cocos2d::CCArray*)::{lambda(cocos2d::CCNode*)#1}, std::__ndk1::allocator<NIDSetupInstantCountPopup::init(CountTriggerGameObject*, cocos2d::CCArray*)::{lambda(cocos2d::CCNode*)#1}>, bool (cocos2d::CCNode*)>::~__func()
PUBLIC 8f778 0 std::__ndk1::__function::__func<NIDSetupInstantCountPopup::init(CountTriggerGameObject*, cocos2d::CCArray*)::{lambda(cocos2d::CCNode*)#1}, std::__ndk1::allocator<NIDSetupInstantCountPopup::init(CountTriggerGameObject*, cocos2d::CCArray*)::{lambda(cocos2d::CCNode*)#1}>, bool (cocos2d::CCNode*)>::__clone() const
PUBLIC 8f79c 0 std::__ndk1::__function::__func<NIDSetupInstantCountPopup::init(CountTriggerGameObject*, cocos2d::CCArray*)::{lambda(cocos2d::CCNode*)#1}, std::__ndk1::allocator<NIDSetupInstantCountPopup::init(CountTriggerGameObject*, cocos2d::CCArray*)::{lambda(cocos2d::CCNode*)#1}>, bool (cocos2d::CCNode*)>::__clone(std::__ndk1::__function::__base<bool (cocos2d::CCNode*)>*) const
PUBLIC 8f7ac 0 std::__ndk1::__function::__func<NIDSetupInstantCountPopup::init(CountTriggerGameObject*, cocos2d::CCArray*)::{lambda(cocos2d::CCNode*)#1}, std::__ndk1::allocator<NIDSetupInstantCountPopup::init(CountTriggerGameObject*, cocos2d::CCArray*)::{lambda(cocos2d::CCNode*)#1}>, bool (cocos2d::CCNode*)>::destroy()
PUBLIC 8f7b0 0 std::__ndk1::__function::__func<NIDSetupInstantCountPopup::init(CountTriggerGameObject*, cocos2d::CCArray*)::{lambda(cocos2d::CCNode*)#1}, std::__ndk1::allocator<NIDSetupInstantCountPopup::init(CountTriggerGameObject*, cocos2d::CCArray*)::{lambda(cocos2d::CCNode*)#1}>, bool (cocos2d::CCNode*)>::destroy_deallocate()
PUBLIC 8f7b4 0 std::__ndk1::__function::__func<NIDSetupInstantCountPopup::init(CountTriggerGameObject*, cocos2d::CCArray*)::{lambda(cocos2d::CCNode*)#1}, std::__ndk1::allocator<NIDSetupInstantCountPopup::init(CountTriggerGameObject*, cocos2d::CCArray*)::{lambda(cocos2d::CCNode*)#1}>, bool (cocos2d::CCNode*)>::operator()(cocos2d::CCNode*&&)
PUBLIC 8f820 0 std::__ndk1::__function::__func<NIDSetupInstantCountPopup::init(CountTriggerGameObject*, cocos2d::CCArray*)::{lambda(cocos2d::CCNode*)#1}, std::__ndk1::allocator<NIDSetupInstantCountPopup::init(CountTriggerGameObject*, cocos2d::CCArray*)::{lambda(cocos2d::CCNode*)#1}>, bool (cocos2d::CCNode*)>::target(std::type_info const&) const
PUBLIC 8f83c 0 std::__ndk1::__function::__func<NIDSetupInstantCountPopup::init(CountTriggerGameObject*, cocos2d::CCArray*)::{lambda(cocos2d::CCNode*)#1}, std::__ndk1::allocator<NIDSetupInstantCountPopup::init(CountTriggerGameObject*, cocos2d::CCArray*)::{lambda(cocos2d::CCNode*)#1}>, bool (cocos2d::CCNode*)>::target_type() const
PUBLIC 8f848 0 std::__ndk1::__function::__func<NIDSetupInstantCountPopup::init(CountTriggerGameObject*, cocos2d::CCArray*)::{lambda(cocos2d::CCNode*)#2}, std::__ndk1::allocator<NIDSetupInstantCountPopup::init(CountTriggerGameObject*, cocos2d::CCArray*)::{lambda(cocos2d::CCNode*)#2}>, bool (cocos2d::CCNode*)>::~__func()
PUBLIC 8f84c 0 std::__ndk1::__function::__func<NIDSetupInstantCountPopup::init(CountTriggerGameObject*, cocos2d::CCArray*)::{lambda(cocos2d::CCNode*)#2}, std::__ndk1::allocator<NIDSetupInstantCountPopup::init(CountTriggerGameObject*, cocos2d::CCArray*)::{lambda(cocos2d::CCNode*)#2}>, bool (cocos2d::CCNode*)>::__clone() const
PUBLIC 8f870 0 std::__ndk1::__function::__func<NIDSetupInstantCountPopup::init(CountTriggerGameObject*, cocos2d::CCArray*)::{lambda(cocos2d::CCNode*)#2}, std::__ndk1::allocator<NIDSetupInstantCountPopup::init(CountTriggerGameObject*, cocos2d::CCArray*)::{lambda(cocos2d::CCNode*)#2}>, bool (cocos2d::CCNode*)>::__clone(std::__ndk1::__function::__base<bool (cocos2d::CCNode*)>*) const
PUBLIC 8f880 0 std::__ndk1::__function::__func<NIDSetupInstantCountPopup::init(CountTriggerGameObject*, cocos2d::CCArray*)::{lambda(cocos2d::CCNode*)#2}, std::__ndk1::allocator<NIDSetupInstantCountPopup::init(CountTriggerGameObject*, cocos2d::CCArray*)::{lambda(cocos2d::CCNode*)#2}>, bool (cocos2d::CCNode*)>::destroy()
PUBLIC 8f884 0 std::__ndk1::__function::__func<NIDSetupInstantCountPopup::init(CountTriggerGameObject*, cocos2d::CCArray*)::{lambda(cocos2d::CCNode*)#2}, std::__ndk1::allocator<NIDSetupInstantCountPopup::init(CountTriggerGameObject*, cocos2d::CCArray*)::{lambda(cocos2d::CCNode*)#2}>, bool (cocos2d::CCNode*)>::destroy_deallocate()
PUBLIC 8f888 0 std::__ndk1::__function::__func<NIDSetupInstantCountPopup::init(CountTriggerGameObject*, cocos2d::CCArray*)::{lambda(cocos2d::CCNode*)#2}, std::__ndk1::allocator<NIDSetupInstantCountPopup::init(CountTriggerGameObject*, cocos2d::CCArray*)::{lambda(cocos2d::CCNode*)#2}>, bool (cocos2d::CCNode*)>::operator()(cocos2d::CCNode*&&)
PUBLIC 8f928 0 std::__ndk1::__function::__func<NIDSetupInstantCountPopup::init(CountTriggerGameObject*, cocos2d::CCArray*)::{lambda(cocos2d::CCNode*)#2}, std::__ndk1::allocator<NIDSetupInstantCountPopup::init(CountTriggerGameObject*, cocos2d::CCArray*)::{lambda(cocos2d::CCNode*)#2}>, bool (cocos2d::CCNode*)>::target(std::type_info const&) const
PUBLIC 8f944 0 std::__ndk1::__function::__func<NIDSetupInstantCountPopup::init(CountTriggerGameObject*, cocos2d::CCArray*)::{lambda(cocos2d::CCNode*)#2}, std::__ndk1::allocator<NIDSetupInstantCountPopup::init(CountTriggerGameObject*, cocos2d::CCArray*)::{lambda(cocos2d::CCNode*)#2}>, bool (cocos2d::CCNode*)>::target_type() const
PUBLIC 8f950 0 std::__ndk1::__function::__func<NIDSetupInstantCountPopup::init(CountTriggerGameObject*, cocos2d::CCArray*)::{lambda(cocos2d::CCNode*)#3}, std::__ndk1::allocator<NIDSetupInstantCountPopup::init(CountTriggerGameObject*, cocos2d::CCArray*)::{lambda(cocos2d::CCNode*)#3}>, bool (cocos2d::CCNode*)>::~__func()
PUBLIC 8f954 0 std::__ndk1::__function::__func<NIDSetupInstantCountPopup::init(CountTriggerGameObject*, cocos2d::CCArray*)::{lambda(cocos2d::CCNode*)#3}, std::__ndk1::allocator<NIDSetupInstantCountPopup::init(CountTriggerGameObject*, cocos2d::CCArray*)::{lambda(cocos2d::CCNode*)#3}>, bool (cocos2d::CCNode*)>::__clone() const
PUBLIC 8f98c 0 std::__ndk1::__function::__func<NIDSetupInstantCountPopup::init(CountTriggerGameObject*, cocos2d::CCArray*)::{lambda(cocos2d::CCNode*)#3}, std::__ndk1::allocator<NIDSetupInstantCountPopup::init(CountTriggerGameObject*, cocos2d::CCArray*)::{lambda(cocos2d::CCNode*)#3}>, bool (cocos2d::CCNode*)>::__clone(std::__ndk1::__function::__base<bool (cocos2d::CCNode*)>*) const
PUBLIC 8f9a4 0 std::__ndk1::__function::__func<NIDSetupInstantCountPopup::init(CountTriggerGameObject*, cocos2d::CCArray*)::{lambda(cocos2d::CCNode*)#3}, std::__ndk1::allocator<NIDSetupInstantCountPopup::init(CountTriggerGameObject*, cocos2d::CCArray*)::{lambda(cocos2d::CCNode*)#3}>, bool (cocos2d::CCNode*)>::destroy()
PUBLIC 8f9a8 0 std::__ndk1::__function::__func<NIDSetupInstantCountPopup::init(CountTriggerGameObject*, cocos2d::CCArray*)::{lambda(cocos2d::CCNode*)#3}, std::__ndk1::allocator<NIDSetupInstantCountPopup::init(CountTriggerGameObject*, cocos2d::CCArray*)::{lambda(cocos2d::CCNode*)#3}>, bool (cocos2d::CCNode*)>::destroy_deallocate()
PUBLIC 8f9ac 0 std::__ndk1::__function::__func<NIDSetupInstantCountPopup::init(CountTriggerGameObject*, cocos2d::CCArray*)::{lambda(cocos2d::CCNode*)#3}, std::__ndk1::allocator<NIDSetupInstantCountPopup::init(CountTriggerGameObject*, cocos2d::CCArray*)::{lambda(cocos2d::CCNode*)#3}>, bool (cocos2d::CCNode*)>::operator()(cocos2d::CCNode*&&)
PUBLIC 8fa2c 0 std::__ndk1::__function::__func<NIDSetupInstantCountPopup::init(CountTriggerGameObject*, cocos2d::CCArray*)::{lambda(cocos2d::CCNode*)#3}, std::__ndk1::allocator<NIDSetupInstantCountPopup::init(CountTriggerGameObject*, cocos2d::CCArray*)::{lambda(cocos2d::CCNode*)#3}>, bool (cocos2d::CCNode*)>::target(std::type_info const&) const
PUBLIC 8fa48 0 std::__ndk1::__function::__func<NIDSetupInstantCountPopup::init(CountTriggerGameObject*, cocos2d::CCArray*)::{lambda(cocos2d::CCNode*)#3}, std::__ndk1::allocator<NIDSetupInstantCountPopup::init(CountTriggerGameObject*, cocos2d::CCArray*)::{lambda(cocos2d::CCNode*)#3}>, bool (cocos2d::CCNode*)>::target_type() const
PUBLIC 8fa54 0 std::__ndk1::__function::__func<NIDSetupInstantCountPopup::init(CountTriggerGameObject*, cocos2d::CCArray*)::{lambda(cocos2d::CCNode*)#4}, std::__ndk1::allocator<NIDSetupInstantCountPopup::init(CountTriggerGameObject*, cocos2d::CCArray*)::{lambda(cocos2d::CCNode*)#4}>, bool (cocos2d::CCNode*)>::~__func()
PUBLIC 8fa58 0 std::__ndk1::__function::__func<NIDSetupInstantCountPopup::init(CountTriggerGameObject*, cocos2d::CCArray*)::{lambda(cocos2d::CCNode*)#4}, std::__ndk1::allocator<NIDSetupInstantCountPopup::init(CountTriggerGameObject*, cocos2d::CCArray*)::{lambda(cocos2d::CCNode*)#4}>, bool (cocos2d::CCNode*)>::__clone() const
PUBLIC 8fa90 0 std::__ndk1::__function::__func<NIDSetupInstantCountPopup::init(CountTriggerGameObject*, cocos2d::CCArray*)::{lambda(cocos2d::CCNode*)#4}, std::__ndk1::allocator<NIDSetupInstantCountPopup::init(CountTriggerGameObject*, cocos2d::CCArray*)::{lambda(cocos2d::CCNode*)#4}>, bool (cocos2d::CCNode*)>::__clone(std::__ndk1::__function::__base<bool (cocos2d::CCNode*)>*) const
PUBLIC 8faa8 0 std::__ndk1::__function::__func<NIDSetupInstantCountPopup::init(CountTriggerGameObject*, cocos2d::CCArray*)::{lambda(cocos2d::CCNode*)#4}, std::__ndk1::allocator<NIDSetupInstantCountPopup::init(CountTriggerGameObject*, cocos2d::CCArray*)::{lambda(cocos2d::CCNode*)#4}>, bool (cocos2d::CCNode*)>::destroy()
PUBLIC 8faac 0 std::__ndk1::__function::__func<NIDSetupInstantCountPopup::init(CountTriggerGameObject*, cocos2d::CCArray*)::{lambda(cocos2d::CCNode*)#4}, std::__ndk1::allocator<NIDSetupInstantCountPopup::init(CountTriggerGameObject*, cocos2d::CCArray*)::{lambda(cocos2d::CCNode*)#4}>, bool (cocos2d::CCNode*)>::destroy_deallocate()
PUBLIC 8fab0 0 std::__ndk1::__function::__func<NIDSetupInstantCountPopup::init(CountTriggerGameObject*, cocos2d::CCArray*)::{lambda(cocos2d::CCNode*)#4}, std::__ndk1::allocator<NIDSetupInstantCountPopup::init(CountTriggerGameObject*, cocos2d::CCArray*)::{lambda(cocos2d::CCNode*)#4}>, bool (cocos2d::CCNode*)>::operator()(cocos2d::CCNode*&&)
PUBLIC 8fb14 0 std::__ndk1::__function::__func<NIDSetupInstantCountPopup::init(CountTriggerGameObject*, cocos2d::CCArray*)::{lambda(cocos2d::CCNode*)#4}, std::__ndk1::allocator<NIDSetupInstantCountPopup::init(CountTriggerGameObject*, cocos2d::CCArray*)::{lambda(cocos2d::CCNode*)#4}>, bool (cocos2d::CCNode*)>::target(std::type_info const&) const
PUBLIC 8fb30 0 std::__ndk1::__function::__func<NIDSetupInstantCountPopup::init(CountTriggerGameObject*, cocos2d::CCArray*)::{lambda(cocos2d::CCNode*)#4}, std::__ndk1::allocator<NIDSetupInstantCountPopup::init(CountTriggerGameObject*, cocos2d::CCArray*)::{lambda(cocos2d::CCNode*)#4}>, bool (cocos2d::CCNode*)>::target_type() const
PUBLIC 8fb3c 0 std::__ndk1::__function::__func<NIDSetupInstantCountPopup::init(CountTriggerGameObject*, cocos2d::CCArray*)::{lambda(cocos2d::CCNode*)#5}, std::__ndk1::allocator<NIDSetupInstantCountPopup::init(CountTriggerGameObject*, cocos2d::CCArray*)::{lambda(cocos2d::CCNode*)#5}>, bool (cocos2d::CCNode*)>::~__func()
PUBLIC 8fb40 0 std::__ndk1::__function::__func<NIDSetupInstantCountPopup::init(CountTriggerGameObject*, cocos2d::CCArray*)::{lambda(cocos2d::CCNode*)#5}, std::__ndk1::allocator<NIDSetupInstantCountPopup::init(CountTriggerGameObject*, cocos2d::CCArray*)::{lambda(cocos2d::CCNode*)#5}>, bool (cocos2d::CCNode*)>::__clone() const
PUBLIC 8fb78 0 std::__ndk1::__function::__func<NIDSetupInstantCountPopup::init(CountTriggerGameObject*, cocos2d::CCArray*)::{lambda(cocos2d::CCNode*)#5}, std::__ndk1::allocator<NIDSetupInstantCountPopup::init(CountTriggerGameObject*, cocos2d::CCArray*)::{lambda(cocos2d::CCNode*)#5}>, bool (cocos2d::CCNode*)>::__clone(std::__ndk1::__function::__base<bool (cocos2d::CCNode*)>*) const
PUBLIC 8fb90 0 std::__ndk1::__function::__func<NIDSetupInstantCountPopup::init(CountTriggerGameObject*, cocos2d::CCArray*)::{lambda(cocos2d::CCNode*)#5}, std::__ndk1::allocator<NIDSetupInstantCountPopup::init(CountTriggerGameObject*, cocos2d::CCArray*)::{lambda(cocos2d::CCNode*)#5}>, bool (cocos2d::CCNode*)>::destroy()
PUBLIC 8fb94 0 std::__ndk1::__function::__func<NIDSetupInstantCountPopup::init(CountTriggerGameObject*, cocos2d::CCArray*)::{lambda(cocos2d::CCNode*)#5}, std::__ndk1::allocator<NIDSetupInstantCountPopup::init(CountTriggerGameObject*, cocos2d::CCArray*)::{lambda(cocos2d::CCNode*)#5}>, bool (cocos2d::CCNode*)>::destroy_deallocate()
PUBLIC 8fb98 0 std::__ndk1::__function::__func<NIDSetupInstantCountPopup::init(CountTriggerGameObject*, cocos2d::CCArray*)::{lambda(cocos2d::CCNode*)#5}, std::__ndk1::allocator<NIDSetupInstantCountPopup::init(CountTriggerGameObject*, cocos2d::CCArray*)::{lambda(cocos2d::CCNode*)#5}>, bool (cocos2d::CCNode*)>::operator()(cocos2d::CCNode*&&)
PUBLIC 8fbfc 0 std::__ndk1::__function::__func<NIDSetupInstantCountPopup::init(CountTriggerGameObject*, cocos2d::CCArray*)::{lambda(cocos2d::CCNode*)#5}, std::__ndk1::allocator<NIDSetupInstantCountPopup::init(CountTriggerGameObject*, cocos2d::CCArray*)::{lambda(cocos2d::CCNode*)#5}>, bool (cocos2d::CCNode*)>::target(std::type_info const&) const
PUBLIC 8fc18 0 std::__ndk1::__function::__func<NIDSetupInstantCountPopup::init(CountTriggerGameObject*, cocos2d::CCArray*)::{lambda(cocos2d::CCNode*)#5}, std::__ndk1::allocator<NIDSetupInstantCountPopup::init(CountTriggerGameObject*, cocos2d::CCArray*)::{lambda(cocos2d::CCNode*)#5}>, bool (cocos2d::CCNode*)>::target_type() const
PUBLIC 8fc24 0 std::__ndk1::__function::__func<NIDSetupInstantCountPopup::init(CountTriggerGameObject*, cocos2d::CCArray*)::{lambda(cocos2d::CCNode*)#6}, std::__ndk1::allocator<NIDSetupInstantCountPopup::init(CountTriggerGameObject*, cocos2d::CCArray*)::{lambda(cocos2d::CCNode*)#6}>, bool (cocos2d::CCNode*)>::~__func()
PUBLIC 8fc28 0 std::__ndk1::__function::__func<NIDSetupInstantCountPopup::init(CountTriggerGameObject*, cocos2d::CCArray*)::{lambda(cocos2d::CCNode*)#6}, std::__ndk1::allocator<NIDSetupInstantCountPopup::init(CountTriggerGameObject*, cocos2d::CCArray*)::{lambda(cocos2d::CCNode*)#6}>, bool (cocos2d::CCNode*)>::__clone() const
PUBLIC 8fc4c 0 std::__ndk1::__function::__func<NIDSetupInstantCountPopup::init(CountTriggerGameObject*, cocos2d::CCArray*)::{lambda(cocos2d::CCNode*)#6}, std::__ndk1::allocator<NIDSetupInstantCountPopup::init(CountTriggerGameObject*, cocos2d::CCArray*)::{lambda(cocos2d::CCNode*)#6}>, bool (cocos2d::CCNode*)>::__clone(std::__ndk1::__function::__base<bool (cocos2d::CCNode*)>*) const
PUBLIC 8fc5c 0 std::__ndk1::__function::__func<NIDSetupInstantCountPopup::init(CountTriggerGameObject*, cocos2d::CCArray*)::{lambda(cocos2d::CCNode*)#6}, std::__ndk1::allocator<NIDSetupInstantCountPopup::init(CountTriggerGameObject*, cocos2d::CCArray*)::{lambda(cocos2d::CCNode*)#6}>, bool (cocos2d::CCNode*)>::destroy()
PUBLIC 8fc60 0 std::__ndk1::__function::__func<NIDSetupInstantCountPopup::init(CountTriggerGameObject*, cocos2d::CCArray*)::{lambda(cocos2d::CCNode*)#6}, std::__ndk1::allocator<NIDSetupInstantCountPopup::init(CountTriggerGameObject*, cocos2d::CCArray*)::{lambda(cocos2d::CCNode*)#6}>, bool (cocos2d::CCNode*)>::destroy_deallocate()
PUBLIC 8fc64 0 std::__ndk1::__function::__func<NIDSetupInstantCountPopup::init(CountTriggerGameObject*, cocos2d::CCArray*)::{lambda(cocos2d::CCNode*)#6}, std::__ndk1::allocator<NIDSetupInstantCountPopup::init(CountTriggerGameObject*, cocos2d::CCArray*)::{lambda(cocos2d::CCNode*)#6}>, bool (cocos2d::CCNode*)>::operator()(cocos2d::CCNode*&&)
PUBLIC 8fd08 0 std::__ndk1::__function::__func<NIDSetupInstantCountPopup::init(CountTriggerGameObject*, cocos2d::CCArray*)::{lambda(cocos2d::CCNode*)#6}, std::__ndk1::allocator<NIDSetupInstantCountPopup::init(CountTriggerGameObject*, cocos2d::CCArray*)::{lambda(cocos2d::CCNode*)#6}>, bool (cocos2d::CCNode*)>::target(std::type_info const&) const
PUBLIC 8fd24 0 std::__ndk1::__function::__func<NIDSetupInstantCountPopup::init(CountTriggerGameObject*, cocos2d::CCArray*)::{lambda(cocos2d::CCNode*)#6}, std::__ndk1::allocator<NIDSetupInstantCountPopup::init(CountTriggerGameObject*, cocos2d::CCArray*)::{lambda(cocos2d::CCNode*)#6}>, bool (cocos2d::CCNode*)>::target_type() const
PUBLIC 8fd30 0 std::__ndk1::__function::__func<NIDSetupInstantCountPopup::init(CountTriggerGameObject*, cocos2d::CCArray*)::{lambda(cocos2d::CCNode*)#7}, std::__ndk1::allocator<NIDSetupInstantCountPopup::init(CountTriggerGameObject*, cocos2d::CCArray*)::{lambda(cocos2d::CCNode*)#7}>, bool (cocos2d::CCNode*)>::~__func()
PUBLIC 8fd34 0 std::__ndk1::__function::__func<NIDSetupInstantCountPopup::init(CountTriggerGameObject*, cocos2d::CCArray*)::{lambda(cocos2d::CCNode*)#7}, std::__ndk1::allocator<NIDSetupInstantCountPopup::init(CountTriggerGameObject*, cocos2d::CCArray*)::{lambda(cocos2d::CCNode*)#7}>, bool (cocos2d::CCNode*)>::__clone() const
PUBLIC 8fd6c 0 std::__ndk1::__function::__func<NIDSetupInstantCountPopup::init(CountTriggerGameObject*, cocos2d::CCArray*)::{lambda(cocos2d::CCNode*)#7}, std::__ndk1::allocator<NIDSetupInstantCountPopup::init(CountTriggerGameObject*, cocos2d::CCArray*)::{lambda(cocos2d::CCNode*)#7}>, bool (cocos2d::CCNode*)>::__clone(std::__ndk1::__function::__base<bool (cocos2d::CCNode*)>*) const
PUBLIC 8fd84 0 std::__ndk1::__function::__func<NIDSetupInstantCountPopup::init(CountTriggerGameObject*, cocos2d::CCArray*)::{lambda(cocos2d::CCNode*)#7}, std::__ndk1::allocator<NIDSetupInstantCountPopup::init(CountTriggerGameObject*, cocos2d::CCArray*)::{lambda(cocos2d::CCNode*)#7}>, bool (cocos2d::CCNode*)>::destroy()
PUBLIC 8fd88 0 std::__ndk1::__function::__func<NIDSetupInstantCountPopup::init(CountTriggerGameObject*, cocos2d::CCArray*)::{lambda(cocos2d::CCNode*)#7}, std::__ndk1::allocator<NIDSetupInstantCountPopup::init(CountTriggerGameObject*, cocos2d::CCArray*)::{lambda(cocos2d::CCNode*)#7}>, bool (cocos2d::CCNode*)>::destroy_deallocate()
PUBLIC 8fd8c 0 std::__ndk1::__function::__func<NIDSetupInstantCountPopup::init(CountTriggerGameObject*, cocos2d::CCArray*)::{lambda(cocos2d::CCNode*)#7}, std::__ndk1::allocator<NIDSetupInstantCountPopup::init(CountTriggerGameObject*, cocos2d::CCArray*)::{lambda(cocos2d::CCNode*)#7}>, bool (cocos2d::CCNode*)>::operator()(cocos2d::CCNode*&&)
PUBLIC 8fe0c 0 std::__ndk1::__function::__func<NIDSetupInstantCountPopup::init(CountTriggerGameObject*, cocos2d::CCArray*)::{lambda(cocos2d::CCNode*)#7}, std::__ndk1::allocator<NIDSetupInstantCountPopup::init(CountTriggerGameObject*, cocos2d::CCArray*)::{lambda(cocos2d::CCNode*)#7}>, bool (cocos2d::CCNode*)>::target(std::type_info const&) const
PUBLIC 8fe28 0 std::__ndk1::__function::__func<NIDSetupInstantCountPopup::init(CountTriggerGameObject*, cocos2d::CCArray*)::{lambda(cocos2d::CCNode*)#7}, std::__ndk1::allocator<NIDSetupInstantCountPopup::init(CountTriggerGameObject*, cocos2d::CCArray*)::{lambda(cocos2d::CCNode*)#7}>, bool (cocos2d::CCNode*)>::target_type() const
PUBLIC 8fe34 0 std::__ndk1::__function::__func<NIDSetupInstantCountPopup::init(CountTriggerGameObject*, cocos2d::CCArray*)::{lambda(cocos2d::CCNode*)#8}, std::__ndk1::allocator<NIDSetupInstantCountPopup::init(CountTriggerGameObject*, cocos2d::CCArray*)::{lambda(cocos2d::CCNode*)#8}>, bool (cocos2d::CCNode*)>::~__func()
PUBLIC 8fe38 0 std::__ndk1::__function::__func<NIDSetupInstantCountPopup::init(CountTriggerGameObject*, cocos2d::CCArray*)::{lambda(cocos2d::CCNode*)#8}, std::__ndk1::allocator<NIDSetupInstantCountPopup::init(CountTriggerGameObject*, cocos2d::CCArray*)::{lambda(cocos2d::CCNode*)#8}>, bool (cocos2d::CCNode*)>::__clone() const
PUBLIC 8fe70 0 std::__ndk1::__function::__func<NIDSetupInstantCountPopup::init(CountTriggerGameObject*, cocos2d::CCArray*)::{lambda(cocos2d::CCNode*)#8}, std::__ndk1::allocator<NIDSetupInstantCountPopup::init(CountTriggerGameObject*, cocos2d::CCArray*)::{lambda(cocos2d::CCNode*)#8}>, bool (cocos2d::CCNode*)>::__clone(std::__ndk1::__function::__base<bool (cocos2d::CCNode*)>*) const
PUBLIC 8fe88 0 std::__ndk1::__function::__func<NIDSetupInstantCountPopup::init(CountTriggerGameObject*, cocos2d::CCArray*)::{lambda(cocos2d::CCNode*)#8}, std::__ndk1::allocator<NIDSetupInstantCountPopup::init(CountTriggerGameObject*, cocos2d::CCArray*)::{lambda(cocos2d::CCNode*)#8}>, bool (cocos2d::CCNode*)>::destroy()
PUBLIC 8fe8c 0 std::__ndk1::__function::__func<NIDSetupInstantCountPopup::init(CountTriggerGameObject*, cocos2d::CCArray*)::{lambda(cocos2d::CCNode*)#8}, std::__ndk1::allocator<NIDSetupInstantCountPopup::init(CountTriggerGameObject*, cocos2d::CCArray*)::{lambda(cocos2d::CCNode*)#8}>, bool (cocos2d::CCNode*)>::destroy_deallocate()
PUBLIC 8fe90 0 std::__ndk1::__function::__func<NIDSetupInstantCountPopup::init(CountTriggerGameObject*, cocos2d::CCArray*)::{lambda(cocos2d::CCNode*)#8}, std::__ndk1::allocator<NIDSetupInstantCountPopup::init(CountTriggerGameObject*, cocos2d::CCArray*)::{lambda(cocos2d::CCNode*)#8}>, bool (cocos2d::CCNode*)>::operator()(cocos2d::CCNode*&&)
PUBLIC 8ff00 0 std::__ndk1::__function::__func<NIDSetupInstantCountPopup::init(CountTriggerGameObject*, cocos2d::CCArray*)::{lambda(cocos2d::CCNode*)#8}, std::__ndk1::allocator<NIDSetupInstantCountPopup::init(CountTriggerGameObject*, cocos2d::CCArray*)::{lambda(cocos2d::CCNode*)#8}>, bool (cocos2d::CCNode*)>::target(std::type_info const&) const
PUBLIC 8ff1c 0 std::__ndk1::__function::__func<NIDSetupInstantCountPopup::init(CountTriggerGameObject*, cocos2d::CCArray*)::{lambda(cocos2d::CCNode*)#8}, std::__ndk1::allocator<NIDSetupInstantCountPopup::init(CountTriggerGameObject*, cocos2d::CCArray*)::{lambda(cocos2d::CCNode*)#8}>, bool (cocos2d::CCNode*)>::target_type() const
PUBLIC 8ff28 0 std::__ndk1::__function::__func<NIDSetupInstantCountPopup::init(CountTriggerGameObject*, cocos2d::CCArray*)::{lambda(cocos2d::CCNode*)#9}, std::__ndk1::allocator<NIDSetupInstantCountPopup::init(CountTriggerGameObject*, cocos2d::CCArray*)::{lambda(cocos2d::CCNode*)#9}>, bool (cocos2d::CCNode*)>::~__func()
PUBLIC 8ff2c 0 std::__ndk1::__function::__func<NIDSetupInstantCountPopup::init(CountTriggerGameObject*, cocos2d::CCArray*)::{lambda(cocos2d::CCNode*)#9}, std::__ndk1::allocator<NIDSetupInstantCountPopup::init(CountTriggerGameObject*, cocos2d::CCArray*)::{lambda(cocos2d::CCNode*)#9}>, bool (cocos2d::CCNode*)>::__clone() const
PUBLIC 8ff64 0 std::__ndk1::__function::__func<NIDSetupInstantCountPopup::init(CountTriggerGameObject*, cocos2d::CCArray*)::{lambda(cocos2d::CCNode*)#9}, std::__ndk1::allocator<NIDSetupInstantCountPopup::init(CountTriggerGameObject*, cocos2d::CCArray*)::{lambda(cocos2d::CCNode*)#9}>, bool (cocos2d::CCNode*)>::__clone(std::__ndk1::__function::__base<bool (cocos2d::CCNode*)>*) const
PUBLIC 8ff7c 0 std::__ndk1::__function::__func<NIDSetupInstantCountPopup::init(CountTriggerGameObject*, cocos2d::CCArray*)::{lambda(cocos2d::CCNode*)#9}, std::__ndk1::allocator<NIDSetupInstantCountPopup::init(CountTriggerGameObject*, cocos2d::CCArray*)::{lambda(cocos2d::CCNode*)#9}>, bool (cocos2d::CCNode*)>::destroy()
PUBLIC 8ff80 0 std::__ndk1::__function::__func<NIDSetupInstantCountPopup::init(CountTriggerGameObject*, cocos2d::CCArray*)::{lambda(cocos2d::CCNode*)#9}, std::__ndk1::allocator<NIDSetupInstantCountPopup::init(CountTriggerGameObject*, cocos2d::CCArray*)::{lambda(cocos2d::CCNode*)#9}>, bool (cocos2d::CCNode*)>::destroy_deallocate()
PUBLIC 8ff84 0 std::__ndk1::__function::__func<NIDSetupInstantCountPopup::init(CountTriggerGameObject*, cocos2d::CCArray*)::{lambda(cocos2d::CCNode*)#9}, std::__ndk1::allocator<NIDSetupInstantCountPopup::init(CountTriggerGameObject*, cocos2d::CCArray*)::{lambda(cocos2d::CCNode*)#9}>, bool (cocos2d::CCNode*)>::operator()(cocos2d::CCNode*&&)
PUBLIC 8fff4 0 std::__ndk1::__function::__func<NIDSetupInstantCountPopup::init(CountTriggerGameObject*, cocos2d::CCArray*)::{lambda(cocos2d::CCNode*)#9}, std::__ndk1::allocator<NIDSetupInstantCountPopup::init(CountTriggerGameObject*, cocos2d::CCArray*)::{lambda(cocos2d::CCNode*)#9}>, bool (cocos2d::CCNode*)>::target(std::type_info const&) const
PUBLIC 90010 0 std::__ndk1::__function::__func<NIDSetupInstantCountPopup::init(CountTriggerGameObject*, cocos2d::CCArray*)::{lambda(cocos2d::CCNode*)#9}, std::__ndk1::allocator<NIDSetupInstantCountPopup::init(CountTriggerGameObject*, cocos2d::CCArray*)::{lambda(cocos2d::CCNode*)#9}>, bool (cocos2d::CCNode*)>::target_type() const
PUBLIC 9001c 0 __cxx_global_var_init.1
PUBLIC 9048c 0 geode::modifier::ModifyBase<geode::modifier::ModifyDerive<NIDSetupOpacityPopup, SetupOpacityPopup> >::~ModifyBase()
PUBLIC 904a8 0 geode::modifier::ModifyDerive<NIDSetupOpacityPopup, SetupOpacityPopup>::apply()
PUBLIC 90ddc 0 geode::modifier::ModifyBase<geode::modifier::ModifyDerive<NIDSetupOpacityPopup, SetupOpacityPopup> >::apply()
PUBLIC 90de0 0 geode::modifier::AsStaticFunction_textChanged<NIDSetupOpacityPopup, void (NIDSetupOpacityPopup::*)(CCTextInputNode*)>::Impl<void (NIDSetupOpacityPopup::*)(CCTextInputNode*)>::function(NIDSetupOpacityPopup*, CCTextInputNode*)
PUBLIC 90e0c 0 geode::modifier::AsStaticFunction_init<NIDSetupOpacityPopup, bool (NIDSetupOpacityPopup::*)(EffectGameObject*, cocos2d::CCArray*)>::Impl<bool (NIDSetupOpacityPopup::*)(EffectGameObject*, cocos2d::CCArray*)>::function(NIDSetupOpacityPopup*, EffectGameObject*, cocos2d::CCArray*)
PUBLIC 9150c 0 geode::modifier::AsStaticFunction_onTargetIDArrow<NIDSetupOpacityPopup, void (NIDSetupOpacityPopup::*)(cocos2d::CCObject*)>::Impl<void (NIDSetupOpacityPopup::*)(cocos2d::CCObject*)>::function(NIDSetupOpacityPopup*, cocos2d::CCObject*)
PUBLIC 91550 0 geode::addresser::Addresser::addressOfVirtual<void, SetupOpacityPopup, CCTextInputNode*>(void (SetupOpacityPopup::*)(CCTextInputNode*))
PUBLIC 915f8 0 SetupOpacityPopup::SetupOpacityPopup(geode::ZeroConstructorType)
PUBLIC 916a8 0 std::__ndk1::__function::__func<NIDSetupOpacityPopup::init(EffectGameObject*, cocos2d::CCArray*)::{lambda(cocos2d::CCNode*)#1}, std::__ndk1::allocator<NIDSetupOpacityPopup::init(EffectGameObject*, cocos2d::CCArray*)::{lambda(cocos2d::CCNode*)#1}>, bool (cocos2d::CCNode*)>::~__func()
PUBLIC 916ac 0 std::__ndk1::__function::__func<NIDSetupOpacityPopup::init(EffectGameObject*, cocos2d::CCArray*)::{lambda(cocos2d::CCNode*)#1}, std::__ndk1::allocator<NIDSetupOpacityPopup::init(EffectGameObject*, cocos2d::CCArray*)::{lambda(cocos2d::CCNode*)#1}>, bool (cocos2d::CCNode*)>::__clone() const
PUBLIC 916d0 0 std::__ndk1::__function::__func<NIDSetupOpacityPopup::init(EffectGameObject*, cocos2d::CCArray*)::{lambda(cocos2d::CCNode*)#1}, std::__ndk1::allocator<NIDSetupOpacityPopup::init(EffectGameObject*, cocos2d::CCArray*)::{lambda(cocos2d::CCNode*)#1}>, bool (cocos2d::CCNode*)>::__clone(std::__ndk1::__function::__base<bool (cocos2d::CCNode*)>*) const
PUBLIC 916e0 0 std::__ndk1::__function::__func<NIDSetupOpacityPopup::init(EffectGameObject*, cocos2d::CCArray*)::{lambda(cocos2d::CCNode*)#1}, std::__ndk1::allocator<NIDSetupOpacityPopup::init(EffectGameObject*, cocos2d::CCArray*)::{lambda(cocos2d::CCNode*)#1}>, bool (cocos2d::CCNode*)>::destroy()
PUBLIC 916e4 0 std::__ndk1::__function::__func<NIDSetupOpacityPopup::init(EffectGameObject*, cocos2d::CCArray*)::{lambda(cocos2d::CCNode*)#1}, std::__ndk1::allocator<NIDSetupOpacityPopup::init(EffectGameObject*, cocos2d::CCArray*)::{lambda(cocos2d::CCNode*)#1}>, bool (cocos2d::CCNode*)>::destroy_deallocate()
PUBLIC 916e8 0 std::__ndk1::__function::__func<NIDSetupOpacityPopup::init(EffectGameObject*, cocos2d::CCArray*)::{lambda(cocos2d::CCNode*)#1}, std::__ndk1::allocator<NIDSetupOpacityPopup::init(EffectGameObject*, cocos2d::CCArray*)::{lambda(cocos2d::CCNode*)#1}>, bool (cocos2d::CCNode*)>::operator()(cocos2d::CCNode*&&)
PUBLIC 91780 0 std::__ndk1::__function::__func<NIDSetupOpacityPopup::init(EffectGameObject*, cocos2d::CCArray*)::{lambda(cocos2d::CCNode*)#1}, std::__ndk1::allocator<NIDSetupOpacityPopup::init(EffectGameObject*, cocos2d::CCArray*)::{lambda(cocos2d::CCNode*)#1}>, bool (cocos2d::CCNode*)>::target(std::type_info const&) const
PUBLIC 9179c 0 std::__ndk1::__function::__func<NIDSetupOpacityPopup::init(EffectGameObject*, cocos2d::CCArray*)::{lambda(cocos2d::CCNode*)#1}, std::__ndk1::allocator<NIDSetupOpacityPopup::init(EffectGameObject*, cocos2d::CCArray*)::{lambda(cocos2d::CCNode*)#1}>, bool (cocos2d::CCNode*)>::target_type() const
PUBLIC 917a8 0 std::__ndk1::__function::__func<NIDSetupOpacityPopup::init(EffectGameObject*, cocos2d::CCArray*)::{lambda(cocos2d::CCNode*)#2}, std::__ndk1::allocator<NIDSetupOpacityPopup::init(EffectGameObject*, cocos2d::CCArray*)::{lambda(cocos2d::CCNode*)#2}>, bool (cocos2d::CCNode*)>::~__func()
PUBLIC 917ac 0 std::__ndk1::__function::__func<NIDSetupOpacityPopup::init(EffectGameObject*, cocos2d::CCArray*)::{lambda(cocos2d::CCNode*)#2}, std::__ndk1::allocator<NIDSetupOpacityPopup::init(EffectGameObject*, cocos2d::CCArray*)::{lambda(cocos2d::CCNode*)#2}>, bool (cocos2d::CCNode*)>::__clone() const
PUBLIC 917e4 0 std::__ndk1::__function::__func<NIDSetupOpacityPopup::init(EffectGameObject*, cocos2d::CCArray*)::{lambda(cocos2d::CCNode*)#2}, std::__ndk1::allocator<NIDSetupOpacityPopup::init(EffectGameObject*, cocos2d::CCArray*)::{lambda(cocos2d::CCNode*)#2}>, bool (cocos2d::CCNode*)>::__clone(std::__ndk1::__function::__base<bool (cocos2d::CCNode*)>*) const
PUBLIC 917fc 0 std::__ndk1::__function::__func<NIDSetupOpacityPopup::init(EffectGameObject*, cocos2d::CCArray*)::{lambda(cocos2d::CCNode*)#2}, std::__ndk1::allocator<NIDSetupOpacityPopup::init(EffectGameObject*, cocos2d::CCArray*)::{lambda(cocos2d::CCNode*)#2}>, bool (cocos2d::CCNode*)>::destroy()
PUBLIC 91800 0 std::__ndk1::__function::__func<NIDSetupOpacityPopup::init(EffectGameObject*, cocos2d::CCArray*)::{lambda(cocos2d::CCNode*)#2}, std::__ndk1::allocator<NIDSetupOpacityPopup::init(EffectGameObject*, cocos2d::CCArray*)::{lambda(cocos2d::CCNode*)#2}>, bool (cocos2d::CCNode*)>::destroy_deallocate()
PUBLIC 91804 0 std::__ndk1::__function::__func<NIDSetupOpacityPopup::init(EffectGameObject*, cocos2d::CCArray*)::{lambda(cocos2d::CCNode*)#2}, std::__ndk1::allocator<NIDSetupOpacityPopup::init(EffectGameObject*, cocos2d::CCArray*)::{lambda(cocos2d::CCNode*)#2}>, bool (cocos2d::CCNode*)>::operator()(cocos2d::CCNode*&&)
PUBLIC 91884 0 std::__ndk1::__function::__func<NIDSetupOpacityPopup::init(EffectGameObject*, cocos2d::CCArray*)::{lambda(cocos2d::CCNode*)#2}, std::__ndk1::allocator<NIDSetupOpacityPopup::init(EffectGameObject*, cocos2d::CCArray*)::{lambda(cocos2d::CCNode*)#2}>, bool (cocos2d::CCNode*)>::target(std::type_info const&) const
PUBLIC 918a0 0 std::__ndk1::__function::__func<NIDSetupOpacityPopup::init(EffectGameObject*, cocos2d::CCArray*)::{lambda(cocos2d::CCNode*)#2}, std::__ndk1::allocator<NIDSetupOpacityPopup::init(EffectGameObject*, cocos2d::CCArray*)::{lambda(cocos2d::CCNode*)#2}>, bool (cocos2d::CCNode*)>::target_type() const
PUBLIC 918ac 0 __cxx_global_var_init.1
PUBLIC 91d1c 0 geode::modifier::ModifyBase<geode::modifier::ModifyDerive<NIDSetupRandAdvTriggerPopup, SetupRandAdvTriggerPopup> >::~ModifyBase()
PUBLIC 91d38 0 geode::modifier::ModifyDerive<NIDSetupRandAdvTriggerPopup, SetupRandAdvTriggerPopup>::apply()
PUBLIC 92380 0 geode::modifier::ModifyBase<geode::modifier::ModifyDerive<NIDSetupRandAdvTriggerPopup, SetupRandAdvTriggerPopup> >::apply()
PUBLIC 92384 0 geode::modifier::AsStaticFunction_init<NIDSetupRandAdvTriggerPopup, bool (NIDSetupRandAdvTriggerPopup::*)(RandTriggerGameObject*, cocos2d::CCArray*)>::Impl<bool (NIDSetupRandAdvTriggerPopup::*)(RandTriggerGameObject*, cocos2d::CCArray*)>::function(NIDSetupRandAdvTriggerPopup*, RandTriggerGameObject*, cocos2d::CCArray*)
PUBLIC 92af4 0 geode::modifier::AsStaticFunction_updateGroupIDButtons<NIDSetupRandAdvTriggerPopup, void (NIDSetupRandAdvTriggerPopup::*)()>::Impl<void (NIDSetupRandAdvTriggerPopup::*)()>::function(NIDSetupRandAdvTriggerPopup*)
PUBLIC 92af8 0 NIDSetupRandAdvTriggerPopup::onEditIDNameButton(cocos2d::CCObject*)
PUBLIC 92f14 0 NIDSetupRandAdvTriggerPopup::updateGroupIDButtons()
PUBLIC 93808 0 std::__ndk1::__function::__func<NIDSetupRandAdvTriggerPopup::init(RandTriggerGameObject*, cocos2d::CCArray*)::{lambda(cocos2d::CCNode*)#1}, std::__ndk1::allocator<NIDSetupRandAdvTriggerPopup::init(RandTriggerGameObject*, cocos2d::CCArray*)::{lambda(cocos2d::CCNode*)#1}>, bool (cocos2d::CCNode*)>::~__func()
PUBLIC 9380c 0 std::__ndk1::__function::__func<NIDSetupRandAdvTriggerPopup::init(RandTriggerGameObject*, cocos2d::CCArray*)::{lambda(cocos2d::CCNode*)#1}, std::__ndk1::allocator<NIDSetupRandAdvTriggerPopup::init(RandTriggerGameObject*, cocos2d::CCArray*)::{lambda(cocos2d::CCNode*)#1}>, bool (cocos2d::CCNode*)>::__clone() const
PUBLIC 93830 0 std::__ndk1::__function::__func<NIDSetupRandAdvTriggerPopup::init(RandTriggerGameObject*, cocos2d::CCArray*)::{lambda(cocos2d::CCNode*)#1}, std::__ndk1::allocator<NIDSetupRandAdvTriggerPopup::init(RandTriggerGameObject*, cocos2d::CCArray*)::{lambda(cocos2d::CCNode*)#1}>, bool (cocos2d::CCNode*)>::__clone(std::__ndk1::__function::__base<bool (cocos2d::CCNode*)>*) const
PUBLIC 93840 0 std::__ndk1::__function::__func<NIDSetupRandAdvTriggerPopup::init(RandTriggerGameObject*, cocos2d::CCArray*)::{lambda(cocos2d::CCNode*)#1}, std::__ndk1::allocator<NIDSetupRandAdvTriggerPopup::init(RandTriggerGameObject*, cocos2d::CCArray*)::{lambda(cocos2d::CCNode*)#1}>, bool (cocos2d::CCNode*)>::destroy()
PUBLIC 93844 0 std::__ndk1::__function::__func<NIDSetupRandAdvTriggerPopup::init(RandTriggerGameObject*, cocos2d::CCArray*)::{lambda(cocos2d::CCNode*)#1}, std::__ndk1::allocator<NIDSetupRandAdvTriggerPopup::init(RandTriggerGameObject*, cocos2d::CCArray*)::{lambda(cocos2d::CCNode*)#1}>, bool (cocos2d::CCNode*)>::destroy_deallocate()
PUBLIC 93848 0 std::__ndk1::__function::__func<NIDSetupRandAdvTriggerPopup::init(RandTriggerGameObject*, cocos2d::CCArray*)::{lambda(cocos2d::CCNode*)#1}, std::__ndk1::allocator<NIDSetupRandAdvTriggerPopup::init(RandTriggerGameObject*, cocos2d::CCArray*)::{lambda(cocos2d::CCNode*)#1}>, bool (cocos2d::CCNode*)>::operator()(cocos2d::CCNode*&&)
PUBLIC 938b4 0 std::__ndk1::__function::__func<NIDSetupRandAdvTriggerPopup::init(RandTriggerGameObject*, cocos2d::CCArray*)::{lambda(cocos2d::CCNode*)#1}, std::__ndk1::allocator<NIDSetupRandAdvTriggerPopup::init(RandTriggerGameObject*, cocos2d::CCArray*)::{lambda(cocos2d::CCNode*)#1}>, bool (cocos2d::CCNode*)>::target(std::type_info const&) const
PUBLIC 938d0 0 std::__ndk1::__function::__func<NIDSetupRandAdvTriggerPopup::init(RandTriggerGameObject*, cocos2d::CCArray*)::{lambda(cocos2d::CCNode*)#1}, std::__ndk1::allocator<NIDSetupRandAdvTriggerPopup::init(RandTriggerGameObject*, cocos2d::CCArray*)::{lambda(cocos2d::CCNode*)#1}>, bool (cocos2d::CCNode*)>::target_type() const
PUBLIC 938dc 0 std::__ndk1::__function::__func<NIDSetupRandAdvTriggerPopup::init(RandTriggerGameObject*, cocos2d::CCArray*)::{lambda(cocos2d::CCNode*)#2}, std::__ndk1::allocator<NIDSetupRandAdvTriggerPopup::init(RandTriggerGameObject*, cocos2d::CCArray*)::{lambda(cocos2d::CCNode*)#2}>, bool (cocos2d::CCNode*)>::~__func()
PUBLIC 938e0 0 std::__ndk1::__function::__func<NIDSetupRandAdvTriggerPopup::init(RandTriggerGameObject*, cocos2d::CCArray*)::{lambda(cocos2d::CCNode*)#2}, std::__ndk1::allocator<NIDSetupRandAdvTriggerPopup::init(RandTriggerGameObject*, cocos2d::CCArray*)::{lambda(cocos2d::CCNode*)#2}>, bool (cocos2d::CCNode*)>::__clone() const
PUBLIC 93904 0 std::__ndk1::__function::__func<NIDSetupRandAdvTriggerPopup::init(RandTriggerGameObject*, cocos2d::CCArray*)::{lambda(cocos2d::CCNode*)#2}, std::__ndk1::allocator<NIDSetupRandAdvTriggerPopup::init(RandTriggerGameObject*, cocos2d::CCArray*)::{lambda(cocos2d::CCNode*)#2}>, bool (cocos2d::CCNode*)>::__clone(std::__ndk1::__function::__base<bool (cocos2d::CCNode*)>*) const
PUBLIC 93914 0 std::__ndk1::__function::__func<NIDSetupRandAdvTriggerPopup::init(RandTriggerGameObject*, cocos2d::CCArray*)::{lambda(cocos2d::CCNode*)#2}, std::__ndk1::allocator<NIDSetupRandAdvTriggerPopup::init(RandTriggerGameObject*, cocos2d::CCArray*)::{lambda(cocos2d::CCNode*)#2}>, bool (cocos2d::CCNode*)>::destroy()
PUBLIC 93918 0 std::__ndk1::__function::__func<NIDSetupRandAdvTriggerPopup::init(RandTriggerGameObject*, cocos2d::CCArray*)::{lambda(cocos2d::CCNode*)#2}, std::__ndk1::allocator<NIDSetupRandAdvTriggerPopup::init(RandTriggerGameObject*, cocos2d::CCArray*)::{lambda(cocos2d::CCNode*)#2}>, bool (cocos2d::CCNode*)>::destroy_deallocate()
PUBLIC 9391c 0 std::__ndk1::__function::__func<NIDSetupRandAdvTriggerPopup::init(RandTriggerGameObject*, cocos2d::CCArray*)::{lambda(cocos2d::CCNode*)#2}, std::__ndk1::allocator<NIDSetupRandAdvTriggerPopup::init(RandTriggerGameObject*, cocos2d::CCArray*)::{lambda(cocos2d::CCNode*)#2}>, bool (cocos2d::CCNode*)>::operator()(cocos2d::CCNode*&&)
PUBLIC 939bc 0 std::__ndk1::__function::__func<NIDSetupRandAdvTriggerPopup::init(RandTriggerGameObject*, cocos2d::CCArray*)::{lambda(cocos2d::CCNode*)#2}, std::__ndk1::allocator<NIDSetupRandAdvTriggerPopup::init(RandTriggerGameObject*, cocos2d::CCArray*)::{lambda(cocos2d::CCNode*)#2}>, bool (cocos2d::CCNode*)>::target(std::type_info const&) const
PUBLIC 939d8 0 std::__ndk1::__function::__func<NIDSetupRandAdvTriggerPopup::init(RandTriggerGameObject*, cocos2d::CCArray*)::{lambda(cocos2d::CCNode*)#2}, std::__ndk1::allocator<NIDSetupRandAdvTriggerPopup::init(RandTriggerGameObject*, cocos2d::CCArray*)::{lambda(cocos2d::CCNode*)#2}>, bool (cocos2d::CCNode*)>::target_type() const
PUBLIC 939e4 0 std::__ndk1::__function::__func<NIDSetupRandAdvTriggerPopup::init(RandTriggerGameObject*, cocos2d::CCArray*)::{lambda(cocos2d::CCNode*)#3}, std::__ndk1::allocator<NIDSetupRandAdvTriggerPopup::init(RandTriggerGameObject*, cocos2d::CCArray*)::{lambda(cocos2d::CCNode*)#3}>, bool (cocos2d::CCNode*)>::~__func()
PUBLIC 939e8 0 std::__ndk1::__function::__func<NIDSetupRandAdvTriggerPopup::init(RandTriggerGameObject*, cocos2d::CCArray*)::{lambda(cocos2d::CCNode*)#3}, std::__ndk1::allocator<NIDSetupRandAdvTriggerPopup::init(RandTriggerGameObject*, cocos2d::CCArray*)::{lambda(cocos2d::CCNode*)#3}>, bool (cocos2d::CCNode*)>::__clone() const
PUBLIC 93a20 0 std::__ndk1::__function::__func<NIDSetupRandAdvTriggerPopup::init(RandTriggerGameObject*, cocos2d::CCArray*)::{lambda(cocos2d::CCNode*)#3}, std::__ndk1::allocator<NIDSetupRandAdvTriggerPopup::init(RandTriggerGameObject*, cocos2d::CCArray*)::{lambda(cocos2d::CCNode*)#3}>, bool (cocos2d::CCNode*)>::__clone(std::__ndk1::__function::__base<bool (cocos2d::CCNode*)>*) const
PUBLIC 93a38 0 std::__ndk1::__function::__func<NIDSetupRandAdvTriggerPopup::init(RandTriggerGameObject*, cocos2d::CCArray*)::{lambda(cocos2d::CCNode*)#3}, std::__ndk1::allocator<NIDSetupRandAdvTriggerPopup::init(RandTriggerGameObject*, cocos2d::CCArray*)::{lambda(cocos2d::CCNode*)#3}>, bool (cocos2d::CCNode*)>::destroy()
PUBLIC 93a3c 0 std::__ndk1::__function::__func<NIDSetupRandAdvTriggerPopup::init(RandTriggerGameObject*, cocos2d::CCArray*)::{lambda(cocos2d::CCNode*)#3}, std::__ndk1::allocator<NIDSetupRandAdvTriggerPopup::init(RandTriggerGameObject*, cocos2d::CCArray*)::{lambda(cocos2d::CCNode*)#3}>, bool (cocos2d::CCNode*)>::destroy_deallocate()
PUBLIC 93a40 0 std::__ndk1::__function::__func<NIDSetupRandAdvTriggerPopup::init(RandTriggerGameObject*, cocos2d::CCArray*)::{lambda(cocos2d::CCNode*)#3}, std::__ndk1::allocator<NIDSetupRandAdvTriggerPopup::init(RandTriggerGameObject*, cocos2d::CCArray*)::{lambda(cocos2d::CCNode*)#3}>, bool (cocos2d::CCNode*)>::operator()(cocos2d::CCNode*&&)
PUBLIC 93ac0 0 std::__ndk1::__function::__func<NIDSetupRandAdvTriggerPopup::init(RandTriggerGameObject*, cocos2d::CCArray*)::{lambda(cocos2d::CCNode*)#3}, std::__ndk1::allocator<NIDSetupRandAdvTriggerPopup::init(RandTriggerGameObject*, cocos2d::CCArray*)::{lambda(cocos2d::CCNode*)#3}>, bool (cocos2d::CCNode*)>::target(std::type_info const&) const
PUBLIC 93adc 0 std::__ndk1::__function::__func<NIDSetupRandAdvTriggerPopup::init(RandTriggerGameObject*, cocos2d::CCArray*)::{lambda(cocos2d::CCNode*)#3}, std::__ndk1::allocator<NIDSetupRandAdvTriggerPopup::init(RandTriggerGameObject*, cocos2d::CCArray*)::{lambda(cocos2d::CCNode*)#3}>, bool (cocos2d::CCNode*)>::target_type() const
PUBLIC 93ae8 0 geode::modifier::FieldIntermediate<NIDSetupRandAdvTriggerPopup, SetupRandAdvTriggerPopup>::self()
PUBLIC 93c80 0 geode::modifier::FieldIntermediate<NIDSetupRandAdvTriggerPopup, SetupRandAdvTriggerPopup>::fieldDestructor(void*)
PUBLIC 93c84 0 std::__ndk1::__function::__func<NIDSetupRandAdvTriggerPopup::onEditIDNameButton(cocos2d::CCObject*)::{lambda(short)#1}, std::__ndk1::allocator<NIDSetupRandAdvTriggerPopup::onEditIDNameButton(cocos2d::CCObject*)::{lambda(short)#1}>, void (short)>::~__func()
PUBLIC 93c88 0 std::__ndk1::__function::__func<NIDSetupRandAdvTriggerPopup::onEditIDNameButton(cocos2d::CCObject*)::{lambda(short)#1}, std::__ndk1::allocator<NIDSetupRandAdvTriggerPopup::onEditIDNameButton(cocos2d::CCObject*)::{lambda(short)#1}>, void (short)>::__clone() const
PUBLIC 93cbc 0 std::__ndk1::__function::__func<NIDSetupRandAdvTriggerPopup::onEditIDNameButton(cocos2d::CCObject*)::{lambda(short)#1}, std::__ndk1::allocator<NIDSetupRandAdvTriggerPopup::onEditIDNameButton(cocos2d::CCObject*)::{lambda(short)#1}>, void (short)>::__clone(std::__ndk1::__function::__base<void (short)>*) const
PUBLIC 93cd0 0 std::__ndk1::__function::__func<NIDSetupRandAdvTriggerPopup::onEditIDNameButton(cocos2d::CCObject*)::{lambda(short)#1}, std::__ndk1::allocator<NIDSetupRandAdvTriggerPopup::onEditIDNameButton(cocos2d::CCObject*)::{lambda(short)#1}>, void (short)>::destroy()
PUBLIC 93cd4 0 std::__ndk1::__function::__func<NIDSetupRandAdvTriggerPopup::onEditIDNameButton(cocos2d::CCObject*)::{lambda(short)#1}, std::__ndk1::allocator<NIDSetupRandAdvTriggerPopup::onEditIDNameButton(cocos2d::CCObject*)::{lambda(short)#1}>, void (short)>::destroy_deallocate()
PUBLIC 93cd8 0 std::__ndk1::__function::__func<NIDSetupRandAdvTriggerPopup::onEditIDNameButton(cocos2d::CCObject*)::{lambda(short)#1}, std::__ndk1::allocator<NIDSetupRandAdvTriggerPopup::onEditIDNameButton(cocos2d::CCObject*)::{lambda(short)#1}>, void (short)>::operator()(short&&)
PUBLIC 93db0 0 std::__ndk1::__function::__func<NIDSetupRandAdvTriggerPopup::onEditIDNameButton(cocos2d::CCObject*)::{lambda(short)#1}, std::__ndk1::allocator<NIDSetupRandAdvTriggerPopup::onEditIDNameButton(cocos2d::CCObject*)::{lambda(short)#1}>, void (short)>::target(std::type_info const&) const
PUBLIC 93dcc 0 std::__ndk1::__function::__func<NIDSetupRandAdvTriggerPopup::onEditIDNameButton(cocos2d::CCObject*)::{lambda(short)#1}, std::__ndk1::allocator<NIDSetupRandAdvTriggerPopup::onEditIDNameButton(cocos2d::CCObject*)::{lambda(short)#1}>, void (short)>::target_type() const
PUBLIC 93dd8 0 std::__ndk1::__function::__func<NIDSetupRandAdvTriggerPopup::onEditIDNameButton(cocos2d::CCObject*)::{lambda()#1}, std::__ndk1::allocator<NIDSetupRandAdvTriggerPopup::onEditIDNameButton(cocos2d::CCObject*)::{lambda()#1}>, void ()>::~__func()
PUBLIC 93ddc 0 std::__ndk1::__function::__func<NIDSetupRandAdvTriggerPopup::onEditIDNameButton(cocos2d::CCObject*)::{lambda()#1}, std::__ndk1::allocator<NIDSetupRandAdvTriggerPopup::onEditIDNameButton(cocos2d::CCObject*)::{lambda()#1}>, void ()>::__clone() const
PUBLIC 93e14 0 std::__ndk1::__function::__func<NIDSetupRandAdvTriggerPopup::onEditIDNameButton(cocos2d::CCObject*)::{lambda()#1}, std::__ndk1::allocator<NIDSetupRandAdvTriggerPopup::onEditIDNameButton(cocos2d::CCObject*)::{lambda()#1}>, void ()>::__clone(std::__ndk1::__function::__base<void ()>*) const
PUBLIC 93e2c 0 std::__ndk1::__function::__func<NIDSetupRandAdvTriggerPopup::onEditIDNameButton(cocos2d::CCObject*)::{lambda()#1}, std::__ndk1::allocator<NIDSetupRandAdvTriggerPopup::onEditIDNameButton(cocos2d::CCObject*)::{lambda()#1}>, void ()>::destroy()
PUBLIC 93e30 0 std::__ndk1::__function::__func<NIDSetupRandAdvTriggerPopup::onEditIDNameButton(cocos2d::CCObject*)::{lambda()#1}, std::__ndk1::allocator<NIDSetupRandAdvTriggerPopup::onEditIDNameButton(cocos2d::CCObject*)::{lambda()#1}>, void ()>::destroy_deallocate()
PUBLIC 93e34 0 std::__ndk1::__function::__func<NIDSetupRandAdvTriggerPopup::onEditIDNameButton(cocos2d::CCObject*)::{lambda()#1}, std::__ndk1::allocator<NIDSetupRandAdvTriggerPopup::onEditIDNameButton(cocos2d::CCObject*)::{lambda()#1}>, void ()>::operator()()
PUBLIC 93e70 0 std::__ndk1::__function::__func<NIDSetupRandAdvTriggerPopup::onEditIDNameButton(cocos2d::CCObject*)::{lambda()#1}, std::__ndk1::allocator<NIDSetupRandAdvTriggerPopup::onEditIDNameButton(cocos2d::CCObject*)::{lambda()#1}>, void ()>::target(std::type_info const&) const
PUBLIC 93e8c 0 std::__ndk1::__function::__func<NIDSetupRandAdvTriggerPopup::onEditIDNameButton(cocos2d::CCObject*)::{lambda()#1}, std::__ndk1::allocator<NIDSetupRandAdvTriggerPopup::onEditIDNameButton(cocos2d::CCObject*)::{lambda()#1}>, void ()>::target_type() const
PUBLIC 93e98 0 NIDModifiedRandAdvInputDelegate::textChanged(CCTextInputNode*)
PUBLIC 94334 0 NIDModifiedRandAdvInputDelegate::textInputOpened(CCTextInputNode*)
PUBLIC 94348 0 NIDModifiedRandAdvInputDelegate::textInputClosed(CCTextInputNode*)
PUBLIC 94358 0 NIDModifiedRandAdvInputDelegate::textInputShouldOffset(CCTextInputNode*, float)
PUBLIC 94368 0 NIDModifiedRandAdvInputDelegate::textInputReturn(CCTextInputNode*)
PUBLIC 94378 0 NIDModifiedRandAdvInputDelegate::allowTextInput(CCTextInputNode*)
PUBLIC 9438c 0 NIDModifiedRandAdvInputDelegate::enterPressed(CCTextInputNode*)
PUBLIC 943a0 0 geode::utils::numFromString<unsigned short>(std::__ndk1::basic_string_view<char, std::__ndk1::char_traits<char> >, int)
PUBLIC 947d8 0 geode::impl::ResultData<unsigned short, std::__ndk1::basic_string<char, std::__ndk1::char_traits<char>, std::__ndk1::allocator<char> > >::~ResultData()
PUBLIC 9484c 0 geode::utils::numFromString<int>(std::__ndk1::basic_string_view<char, std::__ndk1::char_traits<char> >, int)
PUBLIC 94a24 0 geode::impl::ResultData<int, std::__ndk1::basic_string<char, std::__ndk1::char_traits<char>, std::__ndk1::allocator<char> > >::~ResultData()
PUBLIC 94a98 0 std::__ndk1::__variant_detail::__visitation::__base::__dispatcher<(unsigned long)0>::__dispatch[abi:ne190000]<std::__ndk1::__variant_detail::__dtor<std::__ndk1::__variant_detail::__traits<unsigned short, std::__ndk1::basic_string<char, std::__ndk1::char_traits<char>, std::__ndk1::allocator<char> > >, (std::__ndk1::__variant_detail::_Trait)1>::__destroy[abi:ne190000]()::{lambda(auto:1&)#1}, std::__ndk1::__variant_detail::__base<(std::__ndk1::__variant_detail::__traits<unsigned short, std::__ndk1::basic_string<char, std::__ndk1::char_traits<char>, std::__ndk1::allocator<char> > >)1, unsigned short, std::__ndk1::allocator<char> >&>(std::__ndk1::__variant_detail::__dtor<std::__ndk1::__variant_detail::__traits<unsigned short, std::__ndk1::basic_string<char, std::__ndk1::char_traits<char>, std::__ndk1::allocator<char> > >, (std::__ndk1::__variant_detail::_Trait)1>, std::__ndk1::__variant_detail::__base<(std::__ndk1::__variant_detail::__traits<unsigned short, std::__ndk1::basic_string<char, std::__ndk1::char_traits<char>, std::__ndk1::allocator<char> > >)1, unsigned short, std::__ndk1::allocator<char> >&)
PUBLIC 94a9c 0 std::__ndk1::__variant_detail::__visitation::__base::__dispatcher<(unsigned long)1>::__dispatch[abi:ne190000]<std::__ndk1::__variant_detail::__dtor<std::__ndk1::__variant_detail::__traits<unsigned short, std::__ndk1::basic_string<char, std::__ndk1::char_traits<char>, std::__ndk1::allocator<char> > >, (std::__ndk1::__variant_detail::_Trait)1>::__destroy[abi:ne190000]()::{lambda(auto:1&)#1}, std::__ndk1::__variant_detail::__base<(std::__ndk1::__variant_detail::__traits<unsigned short, std::__ndk1::basic_string<char, std::__ndk1::char_traits<char>, std::__ndk1::allocator<char> > >)1, unsigned short, std::__ndk1::allocator<char> >&>(std::__ndk1::__variant_detail::__dtor<std::__ndk1::__variant_detail::__traits<unsigned short, std::__ndk1::basic_string<char, std::__ndk1::char_traits<char>, std::__ndk1::allocator<char> > >, (std::__ndk1::__variant_detail::_Trait)1>, std::__ndk1::__variant_detail::__base<(std::__ndk1::__variant_detail::__traits<unsigned short, std::__ndk1::basic_string<char, std::__ndk1::char_traits<char>, std::__ndk1::allocator<char> > >)1, unsigned short, std::__ndk1::allocator<char> >&)
PUBLIC 94ab0 0 _ZNSt6__ndk121__from_chars_integralB8ne190000IjTnNS_9enable_ifIXsr11is_unsignedIT_EE5valueEiE4typeELi0EEENS_17from_chars_resultEPKcS7_RS2_i
PUBLIC 94d20 0 _ZNSt6__ndk124__subject_seq_combinatorB8ne190000IPKcjZNS_21__from_chars_integralB8ne190000IjTnNS_9enable_ifIXsr11is_unsignedIT_EE5valueEiE4typeELi0EEENS_17from_chars_resultES2_S2_RS5_iEUlS2_S2_RjiE_JiEEES8_S5_S5_RT0_T1_DpT2_
PUBLIC 94ed0 0 _ZZNSt6__ndk121__from_chars_integralB8ne190000IjTnNS_9enable_ifIXsr11is_unsignedIT_EE5valueEiE4typeELi0EEENS_17from_chars_resultEPKcS7_RS2_iENKUlS7_S7_RjiE_clES7_S7_S9_i
PUBLIC 9513c 0 std::__ndk1::__variant_detail::__visitation::__base::__dispatcher<(unsigned long)0>::__dispatch[abi:ne190000]<std::__ndk1::__variant_detail::__dtor<std::__ndk1::__variant_detail::__traits<int, std::__ndk1::basic_string<char, std::__ndk1::char_traits<char>, std::__ndk1::allocator<char> > >, (std::__ndk1::__variant_detail::_Trait)1>::__destroy[abi:ne190000]()::{lambda(auto:1&)#1}, std::__ndk1::__variant_detail::__base<(std::__ndk1::__variant_detail::__traits<int, std::__ndk1::basic_string<char, std::__ndk1::char_traits<char>, std::__ndk1::allocator<char> > >)1, int, std::__ndk1::allocator<char> >&>(std::__ndk1::__variant_detail::__dtor<std::__ndk1::__variant_detail::__traits<int, std::__ndk1::basic_string<char, std::__ndk1::char_traits<char>, std::__ndk1::allocator<char> > >, (std::__ndk1::__variant_detail::_Trait)1>, std::__ndk1::__variant_detail::__base<(std::__ndk1::__variant_detail::__traits<int, std::__ndk1::basic_string<char, std::__ndk1::char_traits<char>, std::__ndk1::allocator<char> > >)1, int, std::__ndk1::allocator<char> >&)
PUBLIC 95140 0 std::__ndk1::__variant_detail::__visitation::__base::__dispatcher<(unsigned long)1>::__dispatch[abi:ne190000]<std::__ndk1::__variant_detail::__dtor<std::__ndk1::__variant_detail::__traits<int, std::__ndk1::basic_string<char, std::__ndk1::char_traits<char>, std::__ndk1::allocator<char> > >, (std::__ndk1::__variant_detail::_Trait)1>::__destroy[abi:ne190000]()::{lambda(auto:1&)#1}, std::__ndk1::__variant_detail::__base<(std::__ndk1::__variant_detail::__traits<int, std::__ndk1::basic_string<char, std::__ndk1::char_traits<char>, std::__ndk1::allocator<char> > >)1, int, std::__ndk1::allocator<char> >&>(std::__ndk1::__variant_detail::__dtor<std::__ndk1::__variant_detail::__traits<int, std::__ndk1::basic_string<char, std::__ndk1::char_traits<char>, std::__ndk1::allocator<char> > >, (std::__ndk1::__variant_detail::_Trait)1>, std::__ndk1::__variant_detail::__base<(std::__ndk1::__variant_detail::__traits<int, std::__ndk1::basic_string<char, std::__ndk1::char_traits<char>, std::__ndk1::allocator<char> > >)1, int, std::__ndk1::allocator<char> >&)
PUBLIC 95154 0 __cxx_global_var_init.1
PUBLIC 955c4 0 geode::modifier::ModifyBase<geode::modifier::ModifyDerive<NIDSetupRandTriggerPopup, SetupRandTriggerPopup> >::~ModifyBase()
PUBLIC 955e0 0 geode::modifier::ModifyDerive<NIDSetupRandTriggerPopup, SetupRandTriggerPopup>::apply()
PUBLIC 96074 0 geode::modifier::ModifyBase<geode::modifier::ModifyDerive<NIDSetupRandTriggerPopup, SetupRandTriggerPopup> >::apply()
PUBLIC 96078 0 geode::modifier::AsStaticFunction_textChanged<NIDSetupRandTriggerPopup, void (NIDSetupRandTriggerPopup::*)(CCTextInputNode*)>::Impl<void (NIDSetupRandTriggerPopup::*)(CCTextInputNode*)>::function(NIDSetupRandTriggerPopup*, CCTextInputNode*)
PUBLIC 960a4 0 geode::modifier::AsStaticFunction_init<NIDSetupRandTriggerPopup, bool (NIDSetupRandTriggerPopup::*)(EffectGameObject*, cocos2d::CCArray*)>::Impl<bool (NIDSetupRandTriggerPopup::*)(EffectGameObject*, cocos2d::CCArray*)>::function(NIDSetupRandTriggerPopup*, EffectGameObject*, cocos2d::CCArray*)
PUBLIC 970f0 0 geode::Hook::create<void (*)(NIDSetupRandTriggerPopup*, cocos2d::CCObject*)>(void*, void (*)(NIDSetupRandTriggerPopup*, cocos2d::CCObject*), std::__ndk1::basic_string<char, std::__ndk1::char_traits<char>, std::__ndk1::allocator<char> > const&, tulip::hook::TulipConvention, tulip::hook::HookMetadata const&)
PUBLIC 97274 0 geode::modifier::AsStaticFunction_onTargetID2Arrow<NIDSetupRandTriggerPopup, void (NIDSetupRandTriggerPopup::*)(cocos2d::CCObject*)>::Impl<void (NIDSetupRandTriggerPopup::*)(cocos2d::CCObject*)>::function(NIDSetupRandTriggerPopup*, cocos2d::CCObject*)
PUBLIC 972b8 0 geode::modifier::AsStaticFunction_onTargetIDArrow<NIDSetupRandTriggerPopup, void (NIDSetupRandTriggerPopup::*)(cocos2d::CCObject*)>::Impl<void (NIDSetupRandTriggerPopup::*)(cocos2d::CCObject*)>::function(NIDSetupRandTriggerPopup*, cocos2d::CCObject*)
PUBLIC 972fc 0 geode::addresser::Addresser::addressOfVirtual<void, SetupRandTriggerPopup, CCTextInputNode*>(void (SetupRandTriggerPopup::*)(CCTextInputNode*))
PUBLIC 973a4 0 SetupRandTriggerPopup::SetupRandTriggerPopup(geode::ZeroConstructorType)
PUBLIC 97454 0 std::__ndk1::__function::__func<NIDSetupRandTriggerPopup::init(EffectGameObject*, cocos2d::CCArray*)::{lambda(cocos2d::CCNode*)#1}, std::__ndk1::allocator<NIDSetupRandTriggerPopup::init(EffectGameObject*, cocos2d::CCArray*)::{lambda(cocos2d::CCNode*)#1}>, bool (cocos2d::CCNode*)>::~__func()
PUBLIC 97458 0 std::__ndk1::__function::__func<NIDSetupRandTriggerPopup::init(EffectGameObject*, cocos2d::CCArray*)::{lambda(cocos2d::CCNode*)#1}, std::__ndk1::allocator<NIDSetupRandTriggerPopup::init(EffectGameObject*, cocos2d::CCArray*)::{lambda(cocos2d::CCNode*)#1}>, bool (cocos2d::CCNode*)>::__clone() const
PUBLIC 9747c 0 std::__ndk1::__function::__func<NIDSetupRandTriggerPopup::init(EffectGameObject*, cocos2d::CCArray*)::{lambda(cocos2d::CCNode*)#1}, std::__ndk1::allocator<NIDSetupRandTriggerPopup::init(EffectGameObject*, cocos2d::CCArray*)::{lambda(cocos2d::CCNode*)#1}>, bool (cocos2d::CCNode*)>::__clone(std::__ndk1::__function::__base<bool (cocos2d::CCNode*)>*) const
PUBLIC 9748c 0 std::__ndk1::__function::__func<NIDSetupRandTriggerPopup::init(EffectGameObject*, cocos2d::CCArray*)::{lambda(cocos2d::CCNode*)#1}, std::__ndk1::allocator<NIDSetupRandTriggerPopup::init(EffectGameObject*, cocos2d::CCArray*)::{lambda(cocos2d::CCNode*)#1}>, bool (cocos2d::CCNode*)>::destroy()
PUBLIC 97490 0 std::__ndk1::__function::__func<NIDSetupRandTriggerPopup::init(EffectGameObject*, cocos2d::CCArray*)::{lambda(cocos2d::CCNode*)#1}, std::__ndk1::allocator<NIDSetupRandTriggerPopup::init(EffectGameObject*, cocos2d::CCArray*)::{lambda(cocos2d::CCNode*)#1}>, bool (cocos2d::CCNode*)>::destroy_deallocate()
PUBLIC 97494 0 std::__ndk1::__function::__func<NIDSetupRandTriggerPopup::init(EffectGameObject*, cocos2d::CCArray*)::{lambda(cocos2d::CCNode*)#1}, std::__ndk1::allocator<NIDSetupRandTriggerPopup::init(EffectGameObject*, cocos2d::CCArray*)::{lambda(cocos2d::CCNode*)#1}>, bool (cocos2d::CCNode*)>::operator()(cocos2d::CCNode*&&)
PUBLIC 97500 0 std::__ndk1::__function::__func<NIDSetupRandTriggerPopup::init(EffectGameObject*, cocos2d::CCArray*)::{lambda(cocos2d::CCNode*)#1}, std::__ndk1::allocator<NIDSetupRandTriggerPopup::init(EffectGameObject*, cocos2d::CCArray*)::{lambda(cocos2d::CCNode*)#1}>, bool (cocos2d::CCNode*)>::target(std::type_info const&) const
PUBLIC 9751c 0 std::__ndk1::__function::__func<NIDSetupRandTriggerPopup::init(EffectGameObject*, cocos2d::CCArray*)::{lambda(cocos2d::CCNode*)#1}, std::__ndk1::allocator<NIDSetupRandTriggerPopup::init(EffectGameObject*, cocos2d::CCArray*)::{lambda(cocos2d::CCNode*)#1}>, bool (cocos2d::CCNode*)>::target_type() const
PUBLIC 97528 0 std::__ndk1::__function::__func<NIDSetupRandTriggerPopup::init(EffectGameObject*, cocos2d::CCArray*)::{lambda(cocos2d::CCNode*)#2}, std::__ndk1::allocator<NIDSetupRandTriggerPopup::init(EffectGameObject*, cocos2d::CCArray*)::{lambda(cocos2d::CCNode*)#2}>, bool (cocos2d::CCNode*)>::~__func()
PUBLIC 9752c 0 std::__ndk1::__function::__func<NIDSetupRandTriggerPopup::init(EffectGameObject*, cocos2d::CCArray*)::{lambda(cocos2d::CCNode*)#2}, std::__ndk1::allocator<NIDSetupRandTriggerPopup::init(EffectGameObject*, cocos2d::CCArray*)::{lambda(cocos2d::CCNode*)#2}>, bool (cocos2d::CCNode*)>::__clone() const
PUBLIC 97550 0 std::__ndk1::__function::__func<NIDSetupRandTriggerPopup::init(EffectGameObject*, cocos2d::CCArray*)::{lambda(cocos2d::CCNode*)#2}, std::__ndk1::allocator<NIDSetupRandTriggerPopup::init(EffectGameObject*, cocos2d::CCArray*)::{lambda(cocos2d::CCNode*)#2}>, bool (cocos2d::CCNode*)>::__clone(std::__ndk1::__function::__base<bool (cocos2d::CCNode*)>*) const
PUBLIC 97560 0 std::__ndk1::__function::__func<NIDSetupRandTriggerPopup::init(EffectGameObject*, cocos2d::CCArray*)::{lambda(cocos2d::CCNode*)#2}, std::__ndk1::allocator<NIDSetupRandTriggerPopup::init(EffectGameObject*, cocos2d::CCArray*)::{lambda(cocos2d::CCNode*)#2}>, bool (cocos2d::CCNode*)>::destroy()
PUBLIC 97564 0 std::__ndk1::__function::__func<NIDSetupRandTriggerPopup::init(EffectGameObject*, cocos2d::CCArray*)::{lambda(cocos2d::CCNode*)#2}, std::__ndk1::allocator<NIDSetupRandTriggerPopup::init(EffectGameObject*, cocos2d::CCArray*)::{lambda(cocos2d::CCNode*)#2}>, bool (cocos2d::CCNode*)>::destroy_deallocate()
PUBLIC 97568 0 std::__ndk1::__function::__func<NIDSetupRandTriggerPopup::init(EffectGameObject*, cocos2d::CCArray*)::{lambda(cocos2d::CCNode*)#2}, std::__ndk1::allocator<NIDSetupRandTriggerPopup::init(EffectGameObject*, cocos2d::CCArray*)::{lambda(cocos2d::CCNode*)#2}>, bool (cocos2d::CCNode*)>::operator()(cocos2d::CCNode*&&)
PUBLIC 9760c 0 std::__ndk1::__function::__func<NIDSetupRandTriggerPopup::init(EffectGameObject*, cocos2d::CCArray*)::{lambda(cocos2d::CCNode*)#2}, std::__ndk1::allocator<NIDSetupRandTriggerPopup::init(EffectGameObject*, cocos2d::CCArray*)::{lambda(cocos2d::CCNode*)#2}>, bool (cocos2d::CCNode*)>::target(std::type_info const&) const
PUBLIC 97628 0 std::__ndk1::__function::__func<NIDSetupRandTriggerPopup::init(EffectGameObject*, cocos2d::CCArray*)::{lambda(cocos2d::CCNode*)#2}, std::__ndk1::allocator<NIDSetupRandTriggerPopup::init(EffectGameObject*, cocos2d::CCArray*)::{lambda(cocos2d::CCNode*)#2}>, bool (cocos2d::CCNode*)>::target_type() const
PUBLIC 97634 0 std::__ndk1::__function::__func<NIDSetupRandTriggerPopup::init(EffectGameObject*, cocos2d::CCArray*)::{lambda(cocos2d::CCNode*)#3}, std::__ndk1::allocator<NIDSetupRandTriggerPopup::init(EffectGameObject*, cocos2d::CCArray*)::{lambda(cocos2d::CCNode*)#3}>, bool (cocos2d::CCNode*)>::~__func()
PUBLIC 97638 0 std::__ndk1::__function::__func<NIDSetupRandTriggerPopup::init(EffectGameObject*, cocos2d::CCArray*)::{lambda(cocos2d::CCNode*)#3}, std::__ndk1::allocator<NIDSetupRandTriggerPopup::init(EffectGameObject*, cocos2d::CCArray*)::{lambda(cocos2d::CCNode*)#3}>, bool (cocos2d::CCNode*)>::__clone() const
PUBLIC 97670 0 std::__ndk1::__function::__func<NIDSetupRandTriggerPopup::init(EffectGameObject*, cocos2d::CCArray*)::{lambda(cocos2d::CCNode*)#3}, std::__ndk1::allocator<NIDSetupRandTriggerPopup::init(EffectGameObject*, cocos2d::CCArray*)::{lambda(cocos2d::CCNode*)#3}>, bool (cocos2d::CCNode*)>::__clone(std::__ndk1::__function::__base<bool (cocos2d::CCNode*)>*) const
PUBLIC 97688 0 std::__ndk1::__function::__func<NIDSetupRandTriggerPopup::init(EffectGameObject*, cocos2d::CCArray*)::{lambda(cocos2d::CCNode*)#3}, std::__ndk1::allocator<NIDSetupRandTriggerPopup::init(EffectGameObject*, cocos2d::CCArray*)::{lambda(cocos2d::CCNode*)#3}>, bool (cocos2d::CCNode*)>::destroy()
PUBLIC 9768c 0 std::__ndk1::__function::__func<NIDSetupRandTriggerPopup::init(EffectGameObject*, cocos2d::CCArray*)::{lambda(cocos2d::CCNode*)#3}, std::__ndk1::allocator<NIDSetupRandTriggerPopup::init(EffectGameObject*, cocos2d::CCArray*)::{lambda(cocos2d::CCNode*)#3}>, bool (cocos2d::CCNode*)>::destroy_deallocate()
PUBLIC 97690 0 std::__ndk1::__function::__func<NIDSetupRandTriggerPopup::init(EffectGameObject*, cocos2d::CCArray*)::{lambda(cocos2d::CCNode*)#3}, std::__ndk1::allocator<NIDSetupRandTriggerPopup::init(EffectGameObject*, cocos2d::CCArray*)::{lambda(cocos2d::CCNode*)#3}>, bool (cocos2d::CCNode*)>::operator()(cocos2d::CCNode*&&)
PUBLIC 97710 0 std::__ndk1::__function::__func<NIDSetupRandTriggerPopup::init(EffectGameObject*, cocos2d::CCArray*)::{lambda(cocos2d::CCNode*)#3}, std::__ndk1::allocator<NIDSetupRandTriggerPopup::init(EffectGameObject*, cocos2d::CCArray*)::{lambda(cocos2d::CCNode*)#3}>, bool (cocos2d::CCNode*)>::target(std::type_info const&) const
PUBLIC 9772c 0 std::__ndk1::__function::__func<NIDSetupRandTriggerPopup::init(EffectGameObject*, cocos2d::CCArray*)::{lambda(cocos2d::CCNode*)#3}, std::__ndk1::allocator<NIDSetupRandTriggerPopup::init(EffectGameObject*, cocos2d::CCArray*)::{lambda(cocos2d::CCNode*)#3}>, bool (cocos2d::CCNode*)>::target_type() const
PUBLIC 97738 0 std::__ndk1::__function::__func<NIDSetupRandTriggerPopup::init(EffectGameObject*, cocos2d::CCArray*)::{lambda(cocos2d::CCNode*)#4}, std::__ndk1::allocator<NIDSetupRandTriggerPopup::init(EffectGameObject*, cocos2d::CCArray*)::{lambda(cocos2d::CCNode*)#4}>, bool (cocos2d::CCNode*)>::~__func()
PUBLIC 9773c 0 std::__ndk1::__function::__func<NIDSetupRandTriggerPopup::init(EffectGameObject*, cocos2d::CCArray*)::{lambda(cocos2d::CCNode*)#4}, std::__ndk1::allocator<NIDSetupRandTriggerPopup::init(EffectGameObject*, cocos2d::CCArray*)::{lambda(cocos2d::CCNode*)#4}>, bool (cocos2d::CCNode*)>::__clone() const
PUBLIC 97774 0 std::__ndk1::__function::__func<NIDSetupRandTriggerPopup::init(EffectGameObject*, cocos2d::CCArray*)::{lambda(cocos2d::CCNode*)#4}, std::__ndk1::allocator<NIDSetupRandTriggerPopup::init(EffectGameObject*, cocos2d::CCArray*)::{lambda(cocos2d::CCNode*)#4}>, bool (cocos2d::CCNode*)>::__clone(std::__ndk1::__function::__base<bool (cocos2d::CCNode*)>*) const
PUBLIC 9778c 0 std::__ndk1::__function::__func<NIDSetupRandTriggerPopup::init(EffectGameObject*, cocos2d::CCArray*)::{lambda(cocos2d::CCNode*)#4}, std::__ndk1::allocator<NIDSetupRandTriggerPopup::init(EffectGameObject*, cocos2d::CCArray*)::{lambda(cocos2d::CCNode*)#4}>, bool (cocos2d::CCNode*)>::destroy()
PUBLIC 97790 0 std::__ndk1::__function::__func<NIDSetupRandTriggerPopup::init(EffectGameObject*, cocos2d::CCArray*)::{lambda(cocos2d::CCNode*)#4}, std::__ndk1::allocator<NIDSetupRandTriggerPopup::init(EffectGameObject*, cocos2d::CCArray*)::{lambda(cocos2d::CCNode*)#4}>, bool (cocos2d::CCNode*)>::destroy_deallocate()
PUBLIC 97794 0 std::__ndk1::__function::__func<NIDSetupRandTriggerPopup::init(EffectGameObject*, cocos2d::CCArray*)::{lambda(cocos2d::CCNode*)#4}, std::__ndk1::allocator<NIDSetupRandTriggerPopup::init(EffectGameObject*, cocos2d::CCArray*)::{lambda(cocos2d::CCNode*)#4}>, bool (cocos2d::CCNode*)>::operator()(cocos2d::CCNode*&&)
PUBLIC 977f8 0 std::__ndk1::__function::__func<NIDSetupRandTriggerPopup::init(EffectGameObject*, cocos2d::CCArray*)::{lambda(cocos2d::CCNode*)#4}, std::__ndk1::allocator<NIDSetupRandTriggerPopup::init(EffectGameObject*, cocos2d::CCArray*)::{lambda(cocos2d::CCNode*)#4}>, bool (cocos2d::CCNode*)>::target(std::type_info const&) const
PUBLIC 97814 0 std::__ndk1::__function::__func<NIDSetupRandTriggerPopup::init(EffectGameObject*, cocos2d::CCArray*)::{lambda(cocos2d::CCNode*)#4}, std::__ndk1::allocator<NIDSetupRandTriggerPopup::init(EffectGameObject*, cocos2d::CCArray*)::{lambda(cocos2d::CCNode*)#4}>, bool (cocos2d::CCNode*)>::target_type() const
PUBLIC 97820 0 std::__ndk1::__function::__func<NIDSetupRandTriggerPopup::init(EffectGameObject*, cocos2d::CCArray*)::{lambda(cocos2d::CCNode*)#5}, std::__ndk1::allocator<NIDSetupRandTriggerPopup::init(EffectGameObject*, cocos2d::CCArray*)::{lambda(cocos2d::CCNode*)#5}>, bool (cocos2d::CCNode*)>::~__func()
PUBLIC 97824 0 std::__ndk1::__function::__func<NIDSetupRandTriggerPopup::init(EffectGameObject*, cocos2d::CCArray*)::{lambda(cocos2d::CCNode*)#5}, std::__ndk1::allocator<NIDSetupRandTriggerPopup::init(EffectGameObject*, cocos2d::CCArray*)::{lambda(cocos2d::CCNode*)#5}>, bool (cocos2d::CCNode*)>::__clone() const
PUBLIC 9785c 0 std::__ndk1::__function::__func<NIDSetupRandTriggerPopup::init(EffectGameObject*, cocos2d::CCArray*)::{lambda(cocos2d::CCNode*)#5}, std::__ndk1::allocator<NIDSetupRandTriggerPopup::init(EffectGameObject*, cocos2d::CCArray*)::{lambda(cocos2d::CCNode*)#5}>, bool (cocos2d::CCNode*)>::__clone(std::__ndk1::__function::__base<bool (cocos2d::CCNode*)>*) const
PUBLIC 97874 0 std::__ndk1::__function::__func<NIDSetupRandTriggerPopup::init(EffectGameObject*, cocos2d::CCArray*)::{lambda(cocos2d::CCNode*)#5}, std::__ndk1::allocator<NIDSetupRandTriggerPopup::init(EffectGameObject*, cocos2d::CCArray*)::{lambda(cocos2d::CCNode*)#5}>, bool (cocos2d::CCNode*)>::destroy()
PUBLIC 97878 0 std::__ndk1::__function::__func<NIDSetupRandTriggerPopup::init(EffectGameObject*, cocos2d::CCArray*)::{lambda(cocos2d::CCNode*)#5}, std::__ndk1::allocator<NIDSetupRandTriggerPopup::init(EffectGameObject*, cocos2d::CCArray*)::{lambda(cocos2d::CCNode*)#5}>, bool (cocos2d::CCNode*)>::destroy_deallocate()
PUBLIC 9787c 0 std::__ndk1::__function::__func<NIDSetupRandTriggerPopup::init(EffectGameObject*, cocos2d::CCArray*)::{lambda(cocos2d::CCNode*)#5}, std::__ndk1::allocator<NIDSetupRandTriggerPopup::init(EffectGameObject*, cocos2d::CCArray*)::{lambda(cocos2d::CCNode*)#5}>, bool (cocos2d::CCNode*)>::operator()(cocos2d::CCNode*&&)
PUBLIC 978e0 0 std::__ndk1::__function::__func<NIDSetupRandTriggerPopup::init(EffectGameObject*, cocos2d::CCArray*)::{lambda(cocos2d::CCNode*)#5}, std::__ndk1::allocator<NIDSetupRandTriggerPopup::init(EffectGameObject*, cocos2d::CCArray*)::{lambda(cocos2d::CCNode*)#5}>, bool (cocos2d::CCNode*)>::target(std::type_info const&) const
PUBLIC 978fc 0 std::__ndk1::__function::__func<NIDSetupRandTriggerPopup::init(EffectGameObject*, cocos2d::CCArray*)::{lambda(cocos2d::CCNode*)#5}, std::__ndk1::allocator<NIDSetupRandTriggerPopup::init(EffectGameObject*, cocos2d::CCArray*)::{lambda(cocos2d::CCNode*)#5}>, bool (cocos2d::CCNode*)>::target_type() const
PUBLIC 97908 0 std::__ndk1::__function::__func<NIDSetupRandTriggerPopup::init(EffectGameObject*, cocos2d::CCArray*)::{lambda(cocos2d::CCNode*)#6}, std::__ndk1::allocator<NIDSetupRandTriggerPopup::init(EffectGameObject*, cocos2d::CCArray*)::{lambda(cocos2d::CCNode*)#6}>, bool (cocos2d::CCNode*)>::~__func()
PUBLIC 9790c 0 std::__ndk1::__function::__func<NIDSetupRandTriggerPopup::init(EffectGameObject*, cocos2d::CCArray*)::{lambda(cocos2d::CCNode*)#6}, std::__ndk1::allocator<NIDSetupRandTriggerPopup::init(EffectGameObject*, cocos2d::CCArray*)::{lambda(cocos2d::CCNode*)#6}>, bool (cocos2d::CCNode*)>::__clone() const
PUBLIC 97930 0 std::__ndk1::__function::__func<NIDSetupRandTriggerPopup::init(EffectGameObject*, cocos2d::CCArray*)::{lambda(cocos2d::CCNode*)#6}, std::__ndk1::allocator<NIDSetupRandTriggerPopup::init(EffectGameObject*, cocos2d::CCArray*)::{lambda(cocos2d::CCNode*)#6}>, bool (cocos2d::CCNode*)>::__clone(std::__ndk1::__function::__base<bool (cocos2d::CCNode*)>*) const
PUBLIC 97940 0 std::__ndk1::__function::__func<NIDSetupRandTriggerPopup::init(EffectGameObject*, cocos2d::CCArray*)::{lambda(cocos2d::CCNode*)#6}, std::__ndk1::allocator<NIDSetupRandTriggerPopup::init(EffectGameObject*, cocos2d::CCArray*)::{lambda(cocos2d::CCNode*)#6}>, bool (cocos2d::CCNode*)>::destroy()
PUBLIC 97944 0 std::__ndk1::__function::__func<NIDSetupRandTriggerPopup::init(EffectGameObject*, cocos2d::CCArray*)::{lambda(cocos2d::CCNode*)#6}, std::__ndk1::allocator<NIDSetupRandTriggerPopup::init(EffectGameObject*, cocos2d::CCArray*)::{lambda(cocos2d::CCNode*)#6}>, bool (cocos2d::CCNode*)>::destroy_deallocate()
PUBLIC 97948 0 std::__ndk1::__function::__func<NIDSetupRandTriggerPopup::init(EffectGameObject*, cocos2d::CCArray*)::{lambda(cocos2d::CCNode*)#6}, std::__ndk1::allocator<NIDSetupRandTriggerPopup::init(EffectGameObject*, cocos2d::CCArray*)::{lambda(cocos2d::CCNode*)#6}>, bool (cocos2d::CCNode*)>::operator()(cocos2d::CCNode*&&)
PUBLIC 979ec 0 std::__ndk1::__function::__func<NIDSetupRandTriggerPopup::init(EffectGameObject*, cocos2d::CCArray*)::{lambda(cocos2d::CCNode*)#6}, std::__ndk1::allocator<NIDSetupRandTriggerPopup::init(EffectGameObject*, cocos2d::CCArray*)::{lambda(cocos2d::CCNode*)#6}>, bool (cocos2d::CCNode*)>::target(std::type_info const&) const
PUBLIC 97a08 0 std::__ndk1::__function::__func<NIDSetupRandTriggerPopup::init(EffectGameObject*, cocos2d::CCArray*)::{lambda(cocos2d::CCNode*)#6}, std::__ndk1::allocator<NIDSetupRandTriggerPopup::init(EffectGameObject*, cocos2d::CCArray*)::{lambda(cocos2d::CCNode*)#6}>, bool (cocos2d::CCNode*)>::target_type() const
PUBLIC 97a14 0 std::__ndk1::__function::__func<NIDSetupRandTriggerPopup::init(EffectGameObject*, cocos2d::CCArray*)::{lambda(cocos2d::CCNode*)#7}, std::__ndk1::allocator<NIDSetupRandTriggerPopup::init(EffectGameObject*, cocos2d::CCArray*)::{lambda(cocos2d::CCNode*)#7}>, bool (cocos2d::CCNode*)>::~__func()
PUBLIC 97a18 0 std::__ndk1::__function::__func<NIDSetupRandTriggerPopup::init(EffectGameObject*, cocos2d::CCArray*)::{lambda(cocos2d::CCNode*)#7}, std::__ndk1::allocator<NIDSetupRandTriggerPopup::init(EffectGameObject*, cocos2d::CCArray*)::{lambda(cocos2d::CCNode*)#7}>, bool (cocos2d::CCNode*)>::__clone() const
PUBLIC 97a50 0 std::__ndk1::__function::__func<NIDSetupRandTriggerPopup::init(EffectGameObject*, cocos2d::CCArray*)::{lambda(cocos2d::CCNode*)#7}, std::__ndk1::allocator<NIDSetupRandTriggerPopup::init(EffectGameObject*, cocos2d::CCArray*)::{lambda(cocos2d::CCNode*)#7}>, bool (cocos2d::CCNode*)>::__clone(std::__ndk1::__function::__base<bool (cocos2d::CCNode*)>*) const
PUBLIC 97a68 0 std::__ndk1::__function::__func<NIDSetupRandTriggerPopup::init(EffectGameObject*, cocos2d::CCArray*)::{lambda(cocos2d::CCNode*)#7}, std::__ndk1::allocator<NIDSetupRandTriggerPopup::init(EffectGameObject*, cocos2d::CCArray*)::{lambda(cocos2d::CCNode*)#7}>, bool (cocos2d::CCNode*)>::destroy()
PUBLIC 97a6c 0 std::__ndk1::__function::__func<NIDSetupRandTriggerPopup::init(EffectGameObject*, cocos2d::CCArray*)::{lambda(cocos2d::CCNode*)#7}, std::__ndk1::allocator<NIDSetupRandTriggerPopup::init(EffectGameObject*, cocos2d::CCArray*)::{lambda(cocos2d::CCNode*)#7}>, bool (cocos2d::CCNode*)>::destroy_deallocate()
PUBLIC 97a70 0 std::__ndk1::__function::__func<NIDSetupRandTriggerPopup::init(EffectGameObject*, cocos2d::CCArray*)::{lambda(cocos2d::CCNode*)#7}, std::__ndk1::allocator<NIDSetupRandTriggerPopup::init(EffectGameObject*, cocos2d::CCArray*)::{lambda(cocos2d::CCNode*)#7}>, bool (cocos2d::CCNode*)>::operator()(cocos2d::CCNode*&&)
PUBLIC 97af0 0 std::__ndk1::__function::__func<NIDSetupRandTriggerPopup::init(EffectGameObject*, cocos2d::CCArray*)::{lambda(cocos2d::CCNode*)#7}, std::__ndk1::allocator<NIDSetupRandTriggerPopup::init(EffectGameObject*, cocos2d::CCArray*)::{lambda(cocos2d::CCNode*)#7}>, bool (cocos2d::CCNode*)>::target(std::type_info const&) const
PUBLIC 97b0c 0 std::__ndk1::__function::__func<NIDSetupRandTriggerPopup::init(EffectGameObject*, cocos2d::CCArray*)::{lambda(cocos2d::CCNode*)#7}, std::__ndk1::allocator<NIDSetupRandTriggerPopup::init(EffectGameObject*, cocos2d::CCArray*)::{lambda(cocos2d::CCNode*)#7}>, bool (cocos2d::CCNode*)>::target_type() const
PUBLIC 97b18 0 std::__ndk1::__function::__func<NIDSetupRandTriggerPopup::init(EffectGameObject*, cocos2d::CCArray*)::{lambda(cocos2d::CCNode*)#8}, std::__ndk1::allocator<NIDSetupRandTriggerPopup::init(EffectGameObject*, cocos2d::CCArray*)::{lambda(cocos2d::CCNode*)#8}>, bool (cocos2d::CCNode*)>::~__func()
PUBLIC 97b1c 0 std::__ndk1::__function::__func<NIDSetupRandTriggerPopup::init(EffectGameObject*, cocos2d::CCArray*)::{lambda(cocos2d::CCNode*)#8}, std::__ndk1::allocator<NIDSetupRandTriggerPopup::init(EffectGameObject*, cocos2d::CCArray*)::{lambda(cocos2d::CCNode*)#8}>, bool (cocos2d::CCNode*)>::__clone() const
PUBLIC 97b54 0 std::__ndk1::__function::__func<NIDSetupRandTriggerPopup::init(EffectGameObject*, cocos2d::CCArray*)::{lambda(cocos2d::CCNode*)#8}, std::__ndk1::allocator<NIDSetupRandTriggerPopup::init(EffectGameObject*, cocos2d::CCArray*)::{lambda(cocos2d::CCNode*)#8}>, bool (cocos2d::CCNode*)>::__clone(std::__ndk1::__function::__base<bool (cocos2d::CCNode*)>*) const
PUBLIC 97b6c 0 std::__ndk1::__function::__func<NIDSetupRandTriggerPopup::init(EffectGameObject*, cocos2d::CCArray*)::{lambda(cocos2d::CCNode*)#8}, std::__ndk1::allocator<NIDSetupRandTriggerPopup::init(EffectGameObject*, cocos2d::CCArray*)::{lambda(cocos2d::CCNode*)#8}>, bool (cocos2d::CCNode*)>::destroy()
PUBLIC 97b70 0 std::__ndk1::__function::__func<NIDSetupRandTriggerPopup::init(EffectGameObject*, cocos2d::CCArray*)::{lambda(cocos2d::CCNode*)#8}, std::__ndk1::allocator<NIDSetupRandTriggerPopup::init(EffectGameObject*, cocos2d::CCArray*)::{lambda(cocos2d::CCNode*)#8}>, bool (cocos2d::CCNode*)>::destroy_deallocate()
PUBLIC 97b74 0 std::__ndk1::__function::__func<NIDSetupRandTriggerPopup::init(EffectGameObject*, cocos2d::CCArray*)::{lambda(cocos2d::CCNode*)#8}, std::__ndk1::allocator<NIDSetupRandTriggerPopup::init(EffectGameObject*, cocos2d::CCArray*)::{lambda(cocos2d::CCNode*)#8}>, bool (cocos2d::CCNode*)>::operator()(cocos2d::CCNode*&&)
PUBLIC 97be4 0 std::__ndk1::__function::__func<NIDSetupRandTriggerPopup::init(EffectGameObject*, cocos2d::CCArray*)::{lambda(cocos2d::CCNode*)#8}, std::__ndk1::allocator<NIDSetupRandTriggerPopup::init(EffectGameObject*, cocos2d::CCArray*)::{lambda(cocos2d::CCNode*)#8}>, bool (cocos2d::CCNode*)>::target(std::type_info const&) const
PUBLIC 97c00 0 std::__ndk1::__function::__func<NIDSetupRandTriggerPopup::init(EffectGameObject*, cocos2d::CCArray*)::{lambda(cocos2d::CCNode*)#8}, std::__ndk1::allocator<NIDSetupRandTriggerPopup::init(EffectGameObject*, cocos2d::CCArray*)::{lambda(cocos2d::CCNode*)#8}>, bool (cocos2d::CCNode*)>::target_type() const
PUBLIC 97c0c 0 std::__ndk1::__function::__func<NIDSetupRandTriggerPopup::init(EffectGameObject*, cocos2d::CCArray*)::{lambda(cocos2d::CCNode*)#9}, std::__ndk1::allocator<NIDSetupRandTriggerPopup::init(EffectGameObject*, cocos2d::CCArray*)::{lambda(cocos2d::CCNode*)#9}>, bool (cocos2d::CCNode*)>::~__func()
PUBLIC 97c10 0 std::__ndk1::__function::__func<NIDSetupRandTriggerPopup::init(EffectGameObject*, cocos2d::CCArray*)::{lambda(cocos2d::CCNode*)#9}, std::__ndk1::allocator<NIDSetupRandTriggerPopup::init(EffectGameObject*, cocos2d::CCArray*)::{lambda(cocos2d::CCNode*)#9}>, bool (cocos2d::CCNode*)>::__clone() const
PUBLIC 97c48 0 std::__ndk1::__function::__func<NIDSetupRandTriggerPopup::init(EffectGameObject*, cocos2d::CCArray*)::{lambda(cocos2d::CCNode*)#9}, std::__ndk1::allocator<NIDSetupRandTriggerPopup::init(EffectGameObject*, cocos2d::CCArray*)::{lambda(cocos2d::CCNode*)#9}>, bool (cocos2d::CCNode*)>::__clone(std::__ndk1::__function::__base<bool (cocos2d::CCNode*)>*) const
PUBLIC 97c60 0 std::__ndk1::__function::__func<NIDSetupRandTriggerPopup::init(EffectGameObject*, cocos2d::CCArray*)::{lambda(cocos2d::CCNode*)#9}, std::__ndk1::allocator<NIDSetupRandTriggerPopup::init(EffectGameObject*, cocos2d::CCArray*)::{lambda(cocos2d::CCNode*)#9}>, bool (cocos2d::CCNode*)>::destroy()
PUBLIC 97c64 0 std::__ndk1::__function::__func<NIDSetupRandTriggerPopup::init(EffectGameObject*, cocos2d::CCArray*)::{lambda(cocos2d::CCNode*)#9}, std::__ndk1::allocator<NIDSetupRandTriggerPopup::init(EffectGameObject*, cocos2d::CCArray*)::{lambda(cocos2d::CCNode*)#9}>, bool (cocos2d::CCNode*)>::destroy_deallocate()
PUBLIC 97c68 0 std::__ndk1::__function::__func<NIDSetupRandTriggerPopup::init(EffectGameObject*, cocos2d::CCArray*)::{lambda(cocos2d::CCNode*)#9}, std::__ndk1::allocator<NIDSetupRandTriggerPopup::init(EffectGameObject*, cocos2d::CCArray*)::{lambda(cocos2d::CCNode*)#9}>, bool (cocos2d::CCNode*)>::operator()(cocos2d::CCNode*&&)
PUBLIC 97cd8 0 std::__ndk1::__function::__func<NIDSetupRandTriggerPopup::init(EffectGameObject*, cocos2d::CCArray*)::{lambda(cocos2d::CCNode*)#9}, std::__ndk1::allocator<NIDSetupRandTriggerPopup::init(EffectGameObject*, cocos2d::CCArray*)::{lambda(cocos2d::CCNode*)#9}>, bool (cocos2d::CCNode*)>::target(std::type_info const&) const
PUBLIC 97cf4 0 std::__ndk1::__function::__func<NIDSetupRandTriggerPopup::init(EffectGameObject*, cocos2d::CCArray*)::{lambda(cocos2d::CCNode*)#9}, std::__ndk1::allocator<NIDSetupRandTriggerPopup::init(EffectGameObject*, cocos2d::CCArray*)::{lambda(cocos2d::CCNode*)#9}>, bool (cocos2d::CCNode*)>::target_type() const
PUBLIC 97d00 0 __cxx_global_var_init.1
PUBLIC 98170 0 geode::modifier::ModifyBase<geode::modifier::ModifyDerive<NIDSetupSequenceTriggerPopup, SetupSequenceTriggerPopup> >::~ModifyBase()
PUBLIC 9818c 0 geode::modifier::ModifyDerive<NIDSetupSequenceTriggerPopup, SetupSequenceTriggerPopup>::apply()
PUBLIC 98790 0 geode::modifier::ModifyBase<geode::modifier::ModifyDerive<NIDSetupSequenceTriggerPopup, SetupSequenceTriggerPopup> >::apply()
PUBLIC 98794 0 geode::modifier::AsStaticFunction_init<NIDSetupSequenceTriggerPopup, bool (NIDSetupSequenceTriggerPopup::*)(SequenceTriggerGameObject*)>::Impl<bool (NIDSetupSequenceTriggerPopup::*)(SequenceTriggerGameObject*)>::function(NIDSetupSequenceTriggerPopup*, SequenceTriggerGameObject*)
PUBLIC 991a0 0 geode::modifier::AsStaticFunction_updateGroupIDButtons<NIDSetupSequenceTriggerPopup, void (NIDSetupSequenceTriggerPopup::*)()>::Impl<void (NIDSetupSequenceTriggerPopup::*)()>::function(NIDSetupSequenceTriggerPopup*)
PUBLIC 991a4 0 NIDSetupSequenceTriggerPopup::onEditIDNameButton(cocos2d::CCObject*)
PUBLIC 995dc 0 NIDSetupSequenceTriggerPopup::updateGroupIDButtons()
PUBLIC 99dd0 0 std::__ndk1::__function::__func<NIDSetupSequenceTriggerPopup::init(SequenceTriggerGameObject*)::{lambda(cocos2d::CCNode*)#1}, std::__ndk1::allocator<NIDSetupSequenceTriggerPopup::init(SequenceTriggerGameObject*)::{lambda(cocos2d::CCNode*)#1}>, bool (cocos2d::CCNode*)>::~__func()
PUBLIC 99dd4 0 std::__ndk1::__function::__func<NIDSetupSequenceTriggerPopup::init(SequenceTriggerGameObject*)::{lambda(cocos2d::CCNode*)#1}, std::__ndk1::allocator<NIDSetupSequenceTriggerPopup::init(SequenceTriggerGameObject*)::{lambda(cocos2d::CCNode*)#1}>, bool (cocos2d::CCNode*)>::__clone() const
PUBLIC 99df8 0 std::__ndk1::__function::__func<NIDSetupSequenceTriggerPopup::init(SequenceTriggerGameObject*)::{lambda(cocos2d::CCNode*)#1}, std::__ndk1::allocator<NIDSetupSequenceTriggerPopup::init(SequenceTriggerGameObject*)::{lambda(cocos2d::CCNode*)#1}>, bool (cocos2d::CCNode*)>::__clone(std::__ndk1::__function::__base<bool (cocos2d::CCNode*)>*) const
PUBLIC 99e08 0 std::__ndk1::__function::__func<NIDSetupSequenceTriggerPopup::init(SequenceTriggerGameObject*)::{lambda(cocos2d::CCNode*)#1}, std::__ndk1::allocator<NIDSetupSequenceTriggerPopup::init(SequenceTriggerGameObject*)::{lambda(cocos2d::CCNode*)#1}>, bool (cocos2d::CCNode*)>::destroy()
PUBLIC 99e0c 0 std::__ndk1::__function::__func<NIDSetupSequenceTriggerPopup::init(SequenceTriggerGameObject*)::{lambda(cocos2d::CCNode*)#1}, std::__ndk1::allocator<NIDSetupSequenceTriggerPopup::init(SequenceTriggerGameObject*)::{lambda(cocos2d::CCNode*)#1}>, bool (cocos2d::CCNode*)>::destroy_deallocate()
PUBLIC 99e10 0 std::__ndk1::__function::__func<NIDSetupSequenceTriggerPopup::init(SequenceTriggerGameObject*)::{lambda(cocos2d::CCNode*)#1}, std::__ndk1::allocator<NIDSetupSequenceTriggerPopup::init(SequenceTriggerGameObject*)::{lambda(cocos2d::CCNode*)#1}>, bool (cocos2d::CCNode*)>::operator()(cocos2d::CCNode*&&)
PUBLIC 99ea8 0 std::__ndk1::__function::__func<NIDSetupSequenceTriggerPopup::init(SequenceTriggerGameObject*)::{lambda(cocos2d::CCNode*)#1}, std::__ndk1::allocator<NIDSetupSequenceTriggerPopup::init(SequenceTriggerGameObject*)::{lambda(cocos2d::CCNode*)#1}>, bool (cocos2d::CCNode*)>::target(std::type_info const&) const
PUBLIC 99ec4 0 std::__ndk1::__function::__func<NIDSetupSequenceTriggerPopup::init(SequenceTriggerGameObject*)::{lambda(cocos2d::CCNode*)#1}, std::__ndk1::allocator<NIDSetupSequenceTriggerPopup::init(SequenceTriggerGameObject*)::{lambda(cocos2d::CCNode*)#1}>, bool (cocos2d::CCNode*)>::target_type() const
PUBLIC 99ed0 0 std::__ndk1::__function::__func<NIDSetupSequenceTriggerPopup::init(SequenceTriggerGameObject*)::{lambda(cocos2d::CCNode*)#2}, std::__ndk1::allocator<NIDSetupSequenceTriggerPopup::init(SequenceTriggerGameObject*)::{lambda(cocos2d::CCNode*)#2}>, bool (cocos2d::CCNode*)>::~__func()
PUBLIC 99ed4 0 std::__ndk1::__function::__func<NIDSetupSequenceTriggerPopup::init(SequenceTriggerGameObject*)::{lambda(cocos2d::CCNode*)#2}, std::__ndk1::allocator<NIDSetupSequenceTriggerPopup::init(SequenceTriggerGameObject*)::{lambda(cocos2d::CCNode*)#2}>, bool (cocos2d::CCNode*)>::__clone() const
PUBLIC 99f0c 0 std::__ndk1::__function::__func<NIDSetupSequenceTriggerPopup::init(SequenceTriggerGameObject*)::{lambda(cocos2d::CCNode*)#2}, std::__ndk1::allocator<NIDSetupSequenceTriggerPopup::init(SequenceTriggerGameObject*)::{lambda(cocos2d::CCNode*)#2}>, bool (cocos2d::CCNode*)>::__clone(std::__ndk1::__function::__base<bool (cocos2d::CCNode*)>*) const
PUBLIC 99f24 0 std::__ndk1::__function::__func<NIDSetupSequenceTriggerPopup::init(SequenceTriggerGameObject*)::{lambda(cocos2d::CCNode*)#2}, std::__ndk1::allocator<NIDSetupSequenceTriggerPopup::init(SequenceTriggerGameObject*)::{lambda(cocos2d::CCNode*)#2}>, bool (cocos2d::CCNode*)>::destroy()
PUBLIC 99f28 0 std::__ndk1::__function::__func<NIDSetupSequenceTriggerPopup::init(SequenceTriggerGameObject*)::{lambda(cocos2d::CCNode*)#2}, std::__ndk1::allocator<NIDSetupSequenceTriggerPopup::init(SequenceTriggerGameObject*)::{lambda(cocos2d::CCNode*)#2}>, bool (cocos2d::CCNode*)>::destroy_deallocate()
PUBLIC 99f2c 0 std::__ndk1::__function::__func<NIDSetupSequenceTriggerPopup::init(SequenceTriggerGameObject*)::{lambda(cocos2d::CCNode*)#2}, std::__ndk1::allocator<NIDSetupSequenceTriggerPopup::init(SequenceTriggerGameObject*)::{lambda(cocos2d::CCNode*)#2}>, bool (cocos2d::CCNode*)>::operator()(cocos2d::CCNode*&&)
PUBLIC 99f9c 0 std::__ndk1::__function::__func<NIDSetupSequenceTriggerPopup::init(SequenceTriggerGameObject*)::{lambda(cocos2d::CCNode*)#2}, std::__ndk1::allocator<NIDSetupSequenceTriggerPopup::init(SequenceTriggerGameObject*)::{lambda(cocos2d::CCNode*)#2}>, bool (cocos2d::CCNode*)>::target(std::type_info const&) const
PUBLIC 99fb8 0 std::__ndk1::__function::__func<NIDSetupSequenceTriggerPopup::init(SequenceTriggerGameObject*)::{lambda(cocos2d::CCNode*)#2}, std::__ndk1::allocator<NIDSetupSequenceTriggerPopup::init(SequenceTriggerGameObject*)::{lambda(cocos2d::CCNode*)#2}>, bool (cocos2d::CCNode*)>::target_type() const
PUBLIC 99fc4 0 std::__ndk1::__function::__func<NIDSetupSequenceTriggerPopup::init(SequenceTriggerGameObject*)::{lambda(cocos2d::CCNode*)#3}, std::__ndk1::allocator<NIDSetupSequenceTriggerPopup::init(SequenceTriggerGameObject*)::{lambda(cocos2d::CCNode*)#3}>, bool (cocos2d::CCNode*)>::~__func()
PUBLIC 99fc8 0 std::__ndk1::__function::__func<NIDSetupSequenceTriggerPopup::init(SequenceTriggerGameObject*)::{lambda(cocos2d::CCNode*)#3}, std::__ndk1::allocator<NIDSetupSequenceTriggerPopup::init(SequenceTriggerGameObject*)::{lambda(cocos2d::CCNode*)#3}>, bool (cocos2d::CCNode*)>::__clone() const
PUBLIC 9a000 0 std::__ndk1::__function::__func<NIDSetupSequenceTriggerPopup::init(SequenceTriggerGameObject*)::{lambda(cocos2d::CCNode*)#3}, std::__ndk1::allocator<NIDSetupSequenceTriggerPopup::init(SequenceTriggerGameObject*)::{lambda(cocos2d::CCNode*)#3}>, bool (cocos2d::CCNode*)>::__clone(std::__ndk1::__function::__base<bool (cocos2d::CCNode*)>*) const
PUBLIC 9a018 0 std::__ndk1::__function::__func<NIDSetupSequenceTriggerPopup::init(SequenceTriggerGameObject*)::{lambda(cocos2d::CCNode*)#3}, std::__ndk1::allocator<NIDSetupSequenceTriggerPopup::init(SequenceTriggerGameObject*)::{lambda(cocos2d::CCNode*)#3}>, bool (cocos2d::CCNode*)>::destroy()
PUBLIC 9a01c 0 std::__ndk1::__function::__func<NIDSetupSequenceTriggerPopup::init(SequenceTriggerGameObject*)::{lambda(cocos2d::CCNode*)#3}, std::__ndk1::allocator<NIDSetupSequenceTriggerPopup::init(SequenceTriggerGameObject*)::{lambda(cocos2d::CCNode*)#3}>, bool (cocos2d::CCNode*)>::destroy_deallocate()
PUBLIC 9a020 0 std::__ndk1::__function::__func<NIDSetupSequenceTriggerPopup::init(SequenceTriggerGameObject*)::{lambda(cocos2d::CCNode*)#3}, std::__ndk1::allocator<NIDSetupSequenceTriggerPopup::init(SequenceTriggerGameObject*)::{lambda(cocos2d::CCNode*)#3}>, bool (cocos2d::CCNode*)>::operator()(cocos2d::CCNode*&&)
PUBLIC 9a0a0 0 std::__ndk1::__function::__func<NIDSetupSequenceTriggerPopup::init(SequenceTriggerGameObject*)::{lambda(cocos2d::CCNode*)#3}, std::__ndk1::allocator<NIDSetupSequenceTriggerPopup::init(SequenceTriggerGameObject*)::{lambda(cocos2d::CCNode*)#3}>, bool (cocos2d::CCNode*)>::target(std::type_info const&) const
PUBLIC 9a0bc 0 std::__ndk1::__function::__func<NIDSetupSequenceTriggerPopup::init(SequenceTriggerGameObject*)::{lambda(cocos2d::CCNode*)#3}, std::__ndk1::allocator<NIDSetupSequenceTriggerPopup::init(SequenceTriggerGameObject*)::{lambda(cocos2d::CCNode*)#3}>, bool (cocos2d::CCNode*)>::target_type() const
PUBLIC 9a0c8 0 std::__ndk1::__function::__func<NIDSetupSequenceTriggerPopup::init(SequenceTriggerGameObject*)::{lambda(cocos2d::CCNode*)#4}, std::__ndk1::allocator<NIDSetupSequenceTriggerPopup::init(SequenceTriggerGameObject*)::{lambda(cocos2d::CCNode*)#4}>, bool (cocos2d::CCNode*)>::~__func()
PUBLIC 9a0cc 0 std::__ndk1::__function::__func<NIDSetupSequenceTriggerPopup::init(SequenceTriggerGameObject*)::{lambda(cocos2d::CCNode*)#4}, std::__ndk1::allocator<NIDSetupSequenceTriggerPopup::init(SequenceTriggerGameObject*)::{lambda(cocos2d::CCNode*)#4}>, bool (cocos2d::CCNode*)>::__clone() const
PUBLIC 9a104 0 std::__ndk1::__function::__func<NIDSetupSequenceTriggerPopup::init(SequenceTriggerGameObject*)::{lambda(cocos2d::CCNode*)#4}, std::__ndk1::allocator<NIDSetupSequenceTriggerPopup::init(SequenceTriggerGameObject*)::{lambda(cocos2d::CCNode*)#4}>, bool (cocos2d::CCNode*)>::__clone(std::__ndk1::__function::__base<bool (cocos2d::CCNode*)>*) const
PUBLIC 9a11c 0 std::__ndk1::__function::__func<NIDSetupSequenceTriggerPopup::init(SequenceTriggerGameObject*)::{lambda(cocos2d::CCNode*)#4}, std::__ndk1::allocator<NIDSetupSequenceTriggerPopup::init(SequenceTriggerGameObject*)::{lambda(cocos2d::CCNode*)#4}>, bool (cocos2d::CCNode*)>::destroy()
PUBLIC 9a120 0 std::__ndk1::__function::__func<NIDSetupSequenceTriggerPopup::init(SequenceTriggerGameObject*)::{lambda(cocos2d::CCNode*)#4}, std::__ndk1::allocator<NIDSetupSequenceTriggerPopup::init(SequenceTriggerGameObject*)::{lambda(cocos2d::CCNode*)#4}>, bool (cocos2d::CCNode*)>::destroy_deallocate()
PUBLIC 9a124 0 std::__ndk1::__function::__func<NIDSetupSequenceTriggerPopup::init(SequenceTriggerGameObject*)::{lambda(cocos2d::CCNode*)#4}, std::__ndk1::allocator<NIDSetupSequenceTriggerPopup::init(SequenceTriggerGameObject*)::{lambda(cocos2d::CCNode*)#4}>, bool (cocos2d::CCNode*)>::operator()(cocos2d::CCNode*&&)
PUBLIC 9a1bc 0 std::__ndk1::__function::__func<NIDSetupSequenceTriggerPopup::init(SequenceTriggerGameObject*)::{lambda(cocos2d::CCNode*)#4}, std::__ndk1::allocator<NIDSetupSequenceTriggerPopup::init(SequenceTriggerGameObject*)::{lambda(cocos2d::CCNode*)#4}>, bool (cocos2d::CCNode*)>::target(std::type_info const&) const
PUBLIC 9a1d8 0 std::__ndk1::__function::__func<NIDSetupSequenceTriggerPopup::init(SequenceTriggerGameObject*)::{lambda(cocos2d::CCNode*)#4}, std::__ndk1::allocator<NIDSetupSequenceTriggerPopup::init(SequenceTriggerGameObject*)::{lambda(cocos2d::CCNode*)#4}>, bool (cocos2d::CCNode*)>::target_type() const
PUBLIC 9a1e4 0 std::__ndk1::__function::__func<NIDSetupSequenceTriggerPopup::init(SequenceTriggerGameObject*)::{lambda(cocos2d::CCNode*)#5}, std::__ndk1::allocator<NIDSetupSequenceTriggerPopup::init(SequenceTriggerGameObject*)::{lambda(cocos2d::CCNode*)#5}>, bool (cocos2d::CCNode*)>::~__func()
PUBLIC 9a1e8 0 std::__ndk1::__function::__func<NIDSetupSequenceTriggerPopup::init(SequenceTriggerGameObject*)::{lambda(cocos2d::CCNode*)#5}, std::__ndk1::allocator<NIDSetupSequenceTriggerPopup::init(SequenceTriggerGameObject*)::{lambda(cocos2d::CCNode*)#5}>, bool (cocos2d::CCNode*)>::__clone() const
PUBLIC 9a220 0 std::__ndk1::__function::__func<NIDSetupSequenceTriggerPopup::init(SequenceTriggerGameObject*)::{lambda(cocos2d::CCNode*)#5}, std::__ndk1::allocator<NIDSetupSequenceTriggerPopup::init(SequenceTriggerGameObject*)::{lambda(cocos2d::CCNode*)#5}>, bool (cocos2d::CCNode*)>::__clone(std::__ndk1::__function::__base<bool (cocos2d::CCNode*)>*) const
PUBLIC 9a238 0 std::__ndk1::__function::__func<NIDSetupSequenceTriggerPopup::init(SequenceTriggerGameObject*)::{lambda(cocos2d::CCNode*)#5}, std::__ndk1::allocator<NIDSetupSequenceTriggerPopup::init(SequenceTriggerGameObject*)::{lambda(cocos2d::CCNode*)#5}>, bool (cocos2d::CCNode*)>::destroy()
PUBLIC 9a23c 0 std::__ndk1::__function::__func<NIDSetupSequenceTriggerPopup::init(SequenceTriggerGameObject*)::{lambda(cocos2d::CCNode*)#5}, std::__ndk1::allocator<NIDSetupSequenceTriggerPopup::init(SequenceTriggerGameObject*)::{lambda(cocos2d::CCNode*)#5}>, bool (cocos2d::CCNode*)>::destroy_deallocate()
PUBLIC 9a240 0 std::__ndk1::__function::__func<NIDSetupSequenceTriggerPopup::init(SequenceTriggerGameObject*)::{lambda(cocos2d::CCNode*)#5}, std::__ndk1::allocator<NIDSetupSequenceTriggerPopup::init(SequenceTriggerGameObject*)::{lambda(cocos2d::CCNode*)#5}>, bool (cocos2d::CCNode*)>::operator()(cocos2d::CCNode*&&)
PUBLIC 9a2f4 0 std::__ndk1::__function::__func<NIDSetupSequenceTriggerPopup::init(SequenceTriggerGameObject*)::{lambda(cocos2d::CCNode*)#5}, std::__ndk1::allocator<NIDSetupSequenceTriggerPopup::init(SequenceTriggerGameObject*)::{lambda(cocos2d::CCNode*)#5}>, bool (cocos2d::CCNode*)>::target(std::type_info const&) const
PUBLIC 9a310 0 std::__ndk1::__function::__func<NIDSetupSequenceTriggerPopup::init(SequenceTriggerGameObject*)::{lambda(cocos2d::CCNode*)#5}, std::__ndk1::allocator<NIDSetupSequenceTriggerPopup::init(SequenceTriggerGameObject*)::{lambda(cocos2d::CCNode*)#5}>, bool (cocos2d::CCNode*)>::target_type() const
PUBLIC 9a31c 0 geode::modifier::FieldIntermediate<NIDSetupSequenceTriggerPopup, SetupSequenceTriggerPopup>::self()
PUBLIC 9a4a8 0 geode::modifier::FieldIntermediate<NIDSetupSequenceTriggerPopup, SetupSequenceTriggerPopup>::fieldDestructor(void*)
PUBLIC 9a4ac 0 std::__ndk1::__function::__func<NIDSetupSequenceTriggerPopup::onEditIDNameButton(cocos2d::CCObject*)::{lambda(short)#1}, std::__ndk1::allocator<NIDSetupSequenceTriggerPopup::onEditIDNameButton(cocos2d::CCObject*)::{lambda(short)#1}>, void (short)>::~__func()
PUBLIC 9a4b0 0 std::__ndk1::__function::__func<NIDSetupSequenceTriggerPopup::onEditIDNameButton(cocos2d::CCObject*)::{lambda(short)#1}, std::__ndk1::allocator<NIDSetupSequenceTriggerPopup::onEditIDNameButton(cocos2d::CCObject*)::{lambda(short)#1}>, void (short)>::__clone() const
PUBLIC 9a4e4 0 std::__ndk1::__function::__func<NIDSetupSequenceTriggerPopup::onEditIDNameButton(cocos2d::CCObject*)::{lambda(short)#1}, std::__ndk1::allocator<NIDSetupSequenceTriggerPopup::onEditIDNameButton(cocos2d::CCObject*)::{lambda(short)#1}>, void (short)>::__clone(std::__ndk1::__function::__base<void (short)>*) const
PUBLIC 9a4f8 0 std::__ndk1::__function::__func<NIDSetupSequenceTriggerPopup::onEditIDNameButton(cocos2d::CCObject*)::{lambda(short)#1}, std::__ndk1::allocator<NIDSetupSequenceTriggerPopup::onEditIDNameButton(cocos2d::CCObject*)::{lambda(short)#1}>, void (short)>::destroy()
PUBLIC 9a4fc 0 std::__ndk1::__function::__func<NIDSetupSequenceTriggerPopup::onEditIDNameButton(cocos2d::CCObject*)::{lambda(short)#1}, std::__ndk1::allocator<NIDSetupSequenceTriggerPopup::onEditIDNameButton(cocos2d::CCObject*)::{lambda(short)#1}>, void (short)>::destroy_deallocate()
PUBLIC 9a500 0 std::__ndk1::__function::__func<NIDSetupSequenceTriggerPopup::onEditIDNameButton(cocos2d::CCObject*)::{lambda(short)#1}, std::__ndk1::allocator<NIDSetupSequenceTriggerPopup::onEditIDNameButton(cocos2d::CCObject*)::{lambda(short)#1}>, void (short)>::operator()(short&&)
PUBLIC 9a5d8 0 std::__ndk1::__function::__func<NIDSetupSequenceTriggerPopup::onEditIDNameButton(cocos2d::CCObject*)::{lambda(short)#1}, std::__ndk1::allocator<NIDSetupSequenceTriggerPopup::onEditIDNameButton(cocos2d::CCObject*)::{lambda(short)#1}>, void (short)>::target(std::type_info const&) const
PUBLIC 9a5f4 0 std::__ndk1::__function::__func<NIDSetupSequenceTriggerPopup::onEditIDNameButton(cocos2d::CCObject*)::{lambda(short)#1}, std::__ndk1::allocator<NIDSetupSequenceTriggerPopup::onEditIDNameButton(cocos2d::CCObject*)::{lambda(short)#1}>, void (short)>::target_type() const
PUBLIC 9a600 0 std::__ndk1::__function::__func<NIDSetupSequenceTriggerPopup::onEditIDNameButton(cocos2d::CCObject*)::{lambda()#1}, std::__ndk1::allocator<NIDSetupSequenceTriggerPopup::onEditIDNameButton(cocos2d::CCObject*)::{lambda()#1}>, void ()>::~__func()
PUBLIC 9a604 0 std::__ndk1::__function::__func<NIDSetupSequenceTriggerPopup::onEditIDNameButton(cocos2d::CCObject*)::{lambda()#1}, std::__ndk1::allocator<NIDSetupSequenceTriggerPopup::onEditIDNameButton(cocos2d::CCObject*)::{lambda()#1}>, void ()>::__clone() const
PUBLIC 9a63c 0 std::__ndk1::__function::__func<NIDSetupSequenceTriggerPopup::onEditIDNameButton(cocos2d::CCObject*)::{lambda()#1}, std::__ndk1::allocator<NIDSetupSequenceTriggerPopup::onEditIDNameButton(cocos2d::CCObject*)::{lambda()#1}>, void ()>::__clone(std::__ndk1::__function::__base<void ()>*) const
PUBLIC 9a654 0 std::__ndk1::__function::__func<NIDSetupSequenceTriggerPopup::onEditIDNameButton(cocos2d::CCObject*)::{lambda()#1}, std::__ndk1::allocator<NIDSetupSequenceTriggerPopup::onEditIDNameButton(cocos2d::CCObject*)::{lambda()#1}>, void ()>::destroy()
PUBLIC 9a658 0 std::__ndk1::__function::__func<NIDSetupSequenceTriggerPopup::onEditIDNameButton(cocos2d::CCObject*)::{lambda()#1}, std::__ndk1::allocator<NIDSetupSequenceTriggerPopup::onEditIDNameButton(cocos2d::CCObject*)::{lambda()#1}>, void ()>::destroy_deallocate()
PUBLIC 9a65c 0 std::__ndk1::__function::__func<NIDSetupSequenceTriggerPopup::onEditIDNameButton(cocos2d::CCObject*)::{lambda()#1}, std::__ndk1::allocator<NIDSetupSequenceTriggerPopup::onEditIDNameButton(cocos2d::CCObject*)::{lambda()#1}>, void ()>::operator()()
PUBLIC 9a690 0 std::__ndk1::__function::__func<NIDSetupSequenceTriggerPopup::onEditIDNameButton(cocos2d::CCObject*)::{lambda()#1}, std::__ndk1::allocator<NIDSetupSequenceTriggerPopup::onEditIDNameButton(cocos2d::CCObject*)::{lambda()#1}>, void ()>::target(std::type_info const&) const
PUBLIC 9a6ac 0 std::__ndk1::__function::__func<NIDSetupSequenceTriggerPopup::onEditIDNameButton(cocos2d::CCObject*)::{lambda()#1}, std::__ndk1::allocator<NIDSetupSequenceTriggerPopup::onEditIDNameButton(cocos2d::CCObject*)::{lambda()#1}>, void ()>::target_type() const
PUBLIC 9a6b8 0 NIDSetupSequenceTriggerPopup::onSelectNewButton(cocos2d::CCObject*)
PUBLIC 9a7bc 0 __cxx_global_var_init.1
PUBLIC 9ac2c 0 geode::modifier::ModifyBase<geode::modifier::ModifyDerive<NIDSetupTouchTogglePopup, SetupTouchTogglePopup> >::~ModifyBase()
PUBLIC 9ac48 0 geode::modifier::ModifyDerive<NIDSetupTouchTogglePopup, SetupTouchTogglePopup>::apply()
PUBLIC 9b584 0 geode::modifier::ModifyBase<geode::modifier::ModifyDerive<NIDSetupTouchTogglePopup, SetupTouchTogglePopup> >::apply()
PUBLIC 9b588 0 geode::modifier::AsStaticFunction_textChanged<NIDSetupTouchTogglePopup, void (NIDSetupTouchTogglePopup::*)(CCTextInputNode*)>::Impl<void (NIDSetupTouchTogglePopup::*)(CCTextInputNode*)>::function(NIDSetupTouchTogglePopup*, CCTextInputNode*)
PUBLIC 9b5b4 0 geode::modifier::AsStaticFunction_init<NIDSetupTouchTogglePopup, bool (NIDSetupTouchTogglePopup::*)(EffectGameObject*, cocos2d::CCArray*)>::Impl<bool (NIDSetupTouchTogglePopup::*)(EffectGameObject*, cocos2d::CCArray*)>::function(NIDSetupTouchTogglePopup*, EffectGameObject*, cocos2d::CCArray*)
PUBLIC 9bd4c 0 geode::modifier::AsStaticFunction_onTargetIDArrow<NIDSetupTouchTogglePopup, void (NIDSetupTouchTogglePopup::*)(cocos2d::CCObject*)>::Impl<void (NIDSetupTouchTogglePopup::*)(cocos2d::CCObject*)>::function(NIDSetupTouchTogglePopup*, cocos2d::CCObject*)
PUBLIC 9bd90 0 geode::addresser::Addresser::addressOfVirtual<void, SetupTouchTogglePopup, CCTextInputNode*>(void (SetupTouchTogglePopup::*)(CCTextInputNode*))
PUBLIC 9be38 0 SetupTouchTogglePopup::SetupTouchTogglePopup(geode::ZeroConstructorType)
PUBLIC 9bee8 0 std::__ndk1::__function::__func<NIDSetupTouchTogglePopup::init(EffectGameObject*, cocos2d::CCArray*)::{lambda(cocos2d::CCNode*)#1}, std::__ndk1::allocator<NIDSetupTouchTogglePopup::init(EffectGameObject*, cocos2d::CCArray*)::{lambda(cocos2d::CCNode*)#1}>, bool (cocos2d::CCNode*)>::~__func()
PUBLIC 9beec 0 std::__ndk1::__function::__func<NIDSetupTouchTogglePopup::init(EffectGameObject*, cocos2d::CCArray*)::{lambda(cocos2d::CCNode*)#1}, std::__ndk1::allocator<NIDSetupTouchTogglePopup::init(EffectGameObject*, cocos2d::CCArray*)::{lambda(cocos2d::CCNode*)#1}>, bool (cocos2d::CCNode*)>::__clone() const
PUBLIC 9bf10 0 std::__ndk1::__function::__func<NIDSetupTouchTogglePopup::init(EffectGameObject*, cocos2d::CCArray*)::{lambda(cocos2d::CCNode*)#1}, std::__ndk1::allocator<NIDSetupTouchTogglePopup::init(EffectGameObject*, cocos2d::CCArray*)::{lambda(cocos2d::CCNode*)#1}>, bool (cocos2d::CCNode*)>::__clone(std::__ndk1::__function::__base<bool (cocos2d::CCNode*)>*) const
PUBLIC 9bf20 0 std::__ndk1::__function::__func<NIDSetupTouchTogglePopup::init(EffectGameObject*, cocos2d::CCArray*)::{lambda(cocos2d::CCNode*)#1}, std::__ndk1::allocator<NIDSetupTouchTogglePopup::init(EffectGameObject*, cocos2d::CCArray*)::{lambda(cocos2d::CCNode*)#1}>, bool (cocos2d::CCNode*)>::destroy()
PUBLIC 9bf24 0 std::__ndk1::__function::__func<NIDSetupTouchTogglePopup::init(EffectGameObject*, cocos2d::CCArray*)::{lambda(cocos2d::CCNode*)#1}, std::__ndk1::allocator<NIDSetupTouchTogglePopup::init(EffectGameObject*, cocos2d::CCArray*)::{lambda(cocos2d::CCNode*)#1}>, bool (cocos2d::CCNode*)>::destroy_deallocate()
PUBLIC 9bf28 0 std::__ndk1::__function::__func<NIDSetupTouchTogglePopup::init(EffectGameObject*, cocos2d::CCArray*)::{lambda(cocos2d::CCNode*)#1}, std::__ndk1::allocator<NIDSetupTouchTogglePopup::init(EffectGameObject*, cocos2d::CCArray*)::{lambda(cocos2d::CCNode*)#1}>, bool (cocos2d::CCNode*)>::operator()(cocos2d::CCNode*&&)
PUBLIC 9bfc0 0 std::__ndk1::__function::__func<NIDSetupTouchTogglePopup::init(EffectGameObject*, cocos2d::CCArray*)::{lambda(cocos2d::CCNode*)#1}, std::__ndk1::allocator<NIDSetupTouchTogglePopup::init(EffectGameObject*, cocos2d::CCArray*)::{lambda(cocos2d::CCNode*)#1}>, bool (cocos2d::CCNode*)>::target(std::type_info const&) const
PUBLIC 9bfdc 0 std::__ndk1::__function::__func<NIDSetupTouchTogglePopup::init(EffectGameObject*, cocos2d::CCArray*)::{lambda(cocos2d::CCNode*)#1}, std::__ndk1::allocator<NIDSetupTouchTogglePopup::init(EffectGameObject*, cocos2d::CCArray*)::{lambda(cocos2d::CCNode*)#1}>, bool (cocos2d::CCNode*)>::target_type() const
PUBLIC 9bfe8 0 std::__ndk1::__function::__func<NIDSetupTouchTogglePopup::init(EffectGameObject*, cocos2d::CCArray*)::{lambda(cocos2d::CCNode*)#2}, std::__ndk1::allocator<NIDSetupTouchTogglePopup::init(EffectGameObject*, cocos2d::CCArray*)::{lambda(cocos2d::CCNode*)#2}>, bool (cocos2d::CCNode*)>::~__func()
PUBLIC 9bfec 0 std::__ndk1::__function::__func<NIDSetupTouchTogglePopup::init(EffectGameObject*, cocos2d::CCArray*)::{lambda(cocos2d::CCNode*)#2}, std::__ndk1::allocator<NIDSetupTouchTogglePopup::init(EffectGameObject*, cocos2d::CCArray*)::{lambda(cocos2d::CCNode*)#2}>, bool (cocos2d::CCNode*)>::__clone() const
PUBLIC 9c024 0 std::__ndk1::__function::__func<NIDSetupTouchTogglePopup::init(EffectGameObject*, cocos2d::CCArray*)::{lambda(cocos2d::CCNode*)#2}, std::__ndk1::allocator<NIDSetupTouchTogglePopup::init(EffectGameObject*, cocos2d::CCArray*)::{lambda(cocos2d::CCNode*)#2}>, bool (cocos2d::CCNode*)>::__clone(std::__ndk1::__function::__base<bool (cocos2d::CCNode*)>*) const
PUBLIC 9c03c 0 std::__ndk1::__function::__func<NIDSetupTouchTogglePopup::init(EffectGameObject*, cocos2d::CCArray*)::{lambda(cocos2d::CCNode*)#2}, std::__ndk1::allocator<NIDSetupTouchTogglePopup::init(EffectGameObject*, cocos2d::CCArray*)::{lambda(cocos2d::CCNode*)#2}>, bool (cocos2d::CCNode*)>::destroy()
PUBLIC 9c040 0 std::__ndk1::__function::__func<NIDSetupTouchTogglePopup::init(EffectGameObject*, cocos2d::CCArray*)::{lambda(cocos2d::CCNode*)#2}, std::__ndk1::allocator<NIDSetupTouchTogglePopup::init(EffectGameObject*, cocos2d::CCArray*)::{lambda(cocos2d::CCNode*)#2}>, bool (cocos2d::CCNode*)>::destroy_deallocate()
PUBLIC 9c044 0 std::__ndk1::__function::__func<NIDSetupTouchTogglePopup::init(EffectGameObject*, cocos2d::CCArray*)::{lambda(cocos2d::CCNode*)#2}, std::__ndk1::allocator<NIDSetupTouchTogglePopup::init(EffectGameObject*, cocos2d::CCArray*)::{lambda(cocos2d::CCNode*)#2}>, bool (cocos2d::CCNode*)>::operator()(cocos2d::CCNode*&&)
PUBLIC 9c0c4 0 std::__ndk1::__function::__func<NIDSetupTouchTogglePopup::init(EffectGameObject*, cocos2d::CCArray*)::{lambda(cocos2d::CCNode*)#2}, std::__ndk1::allocator<NIDSetupTouchTogglePopup::init(EffectGameObject*, cocos2d::CCArray*)::{lambda(cocos2d::CCNode*)#2}>, bool (cocos2d::CCNode*)>::target(std::type_info const&) const
PUBLIC 9c0e0 0 std::__ndk1::__function::__func<NIDSetupTouchTogglePopup::init(EffectGameObject*, cocos2d::CCArray*)::{lambda(cocos2d::CCNode*)#2}, std::__ndk1::allocator<NIDSetupTouchTogglePopup::init(EffectGameObject*, cocos2d::CCArray*)::{lambda(cocos2d::CCNode*)#2}>, bool (cocos2d::CCNode*)>::target_type() const
PUBLIC 9c0ec 0 std::__ndk1::__function::__func<NIDSetupTouchTogglePopup::init(EffectGameObject*, cocos2d::CCArray*)::{lambda(cocos2d::CCNode*)#3}, std::__ndk1::allocator<NIDSetupTouchTogglePopup::init(EffectGameObject*, cocos2d::CCArray*)::{lambda(cocos2d::CCNode*)#3}>, bool (cocos2d::CCNode*)>::~__func()
PUBLIC 9c0f0 0 std::__ndk1::__function::__func<NIDSetupTouchTogglePopup::init(EffectGameObject*, cocos2d::CCArray*)::{lambda(cocos2d::CCNode*)#3}, std::__ndk1::allocator<NIDSetupTouchTogglePopup::init(EffectGameObject*, cocos2d::CCArray*)::{lambda(cocos2d::CCNode*)#3}>, bool (cocos2d::CCNode*)>::__clone() const
PUBLIC 9c114 0 std::__ndk1::__function::__func<NIDSetupTouchTogglePopup::init(EffectGameObject*, cocos2d::CCArray*)::{lambda(cocos2d::CCNode*)#3}, std::__ndk1::allocator<NIDSetupTouchTogglePopup::init(EffectGameObject*, cocos2d::CCArray*)::{lambda(cocos2d::CCNode*)#3}>, bool (cocos2d::CCNode*)>::__clone(std::__ndk1::__function::__base<bool (cocos2d::CCNode*)>*) const
PUBLIC 9c124 0 std::__ndk1::__function::__func<NIDSetupTouchTogglePopup::init(EffectGameObject*, cocos2d::CCArray*)::{lambda(cocos2d::CCNode*)#3}, std::__ndk1::allocator<NIDSetupTouchTogglePopup::init(EffectGameObject*, cocos2d::CCArray*)::{lambda(cocos2d::CCNode*)#3}>, bool (cocos2d::CCNode*)>::destroy()
PUBLIC 9c128 0 std::__ndk1::__function::__func<NIDSetupTouchTogglePopup::init(EffectGameObject*, cocos2d::CCArray*)::{lambda(cocos2d::CCNode*)#3}, std::__ndk1::allocator<NIDSetupTouchTogglePopup::init(EffectGameObject*, cocos2d::CCArray*)::{lambda(cocos2d::CCNode*)#3}>, bool (cocos2d::CCNode*)>::destroy_deallocate()
PUBLIC 9c12c 0 std::__ndk1::__function::__func<NIDSetupTouchTogglePopup::init(EffectGameObject*, cocos2d::CCArray*)::{lambda(cocos2d::CCNode*)#3}, std::__ndk1::allocator<NIDSetupTouchTogglePopup::init(EffectGameObject*, cocos2d::CCArray*)::{lambda(cocos2d::CCNode*)#3}>, bool (cocos2d::CCNode*)>::operator()(cocos2d::CCNode*&&)
PUBLIC 9c188 0 std::__ndk1::__function::__func<NIDSetupTouchTogglePopup::init(EffectGameObject*, cocos2d::CCArray*)::{lambda(cocos2d::CCNode*)#3}, std::__ndk1::allocator<NIDSetupTouchTogglePopup::init(EffectGameObject*, cocos2d::CCArray*)::{lambda(cocos2d::CCNode*)#3}>, bool (cocos2d::CCNode*)>::target(std::type_info const&) const
PUBLIC 9c1a4 0 std::__ndk1::__function::__func<NIDSetupTouchTogglePopup::init(EffectGameObject*, cocos2d::CCArray*)::{lambda(cocos2d::CCNode*)#3}, std::__ndk1::allocator<NIDSetupTouchTogglePopup::init(EffectGameObject*, cocos2d::CCArray*)::{lambda(cocos2d::CCNode*)#3}>, bool (cocos2d::CCNode*)>::target_type() const
PUBLIC 9c1b0 0 std::__ndk1::__function::__func<NIDSetupTouchTogglePopup::init(EffectGameObject*, cocos2d::CCArray*)::{lambda(cocos2d::CCNode*)#4}, std::__ndk1::allocator<NIDSetupTouchTogglePopup::init(EffectGameObject*, cocos2d::CCArray*)::{lambda(cocos2d::CCNode*)#4}>, bool (cocos2d::CCNode*)>::~__func()
PUBLIC 9c1b4 0 std::__ndk1::__function::__func<NIDSetupTouchTogglePopup::init(EffectGameObject*, cocos2d::CCArray*)::{lambda(cocos2d::CCNode*)#4}, std::__ndk1::allocator<NIDSetupTouchTogglePopup::init(EffectGameObject*, cocos2d::CCArray*)::{lambda(cocos2d::CCNode*)#4}>, bool (cocos2d::CCNode*)>::__clone() const
PUBLIC 9c1d8 0 std::__ndk1::__function::__func<NIDSetupTouchTogglePopup::init(EffectGameObject*, cocos2d::CCArray*)::{lambda(cocos2d::CCNode*)#4}, std::__ndk1::allocator<NIDSetupTouchTogglePopup::init(EffectGameObject*, cocos2d::CCArray*)::{lambda(cocos2d::CCNode*)#4}>, bool (cocos2d::CCNode*)>::__clone(std::__ndk1::__function::__base<bool (cocos2d::CCNode*)>*) const
PUBLIC 9c1e8 0 std::__ndk1::__function::__func<NIDSetupTouchTogglePopup::init(EffectGameObject*, cocos2d::CCArray*)::{lambda(cocos2d::CCNode*)#4}, std::__ndk1::allocator<NIDSetupTouchTogglePopup::init(EffectGameObject*, cocos2d::CCArray*)::{lambda(cocos2d::CCNode*)#4}>, bool (cocos2d::CCNode*)>::destroy()
PUBLIC 9c1ec 0 std::__ndk1::__function::__func<NIDSetupTouchTogglePopup::init(EffectGameObject*, cocos2d::CCArray*)::{lambda(cocos2d::CCNode*)#4}, std::__ndk1::allocator<NIDSetupTouchTogglePopup::init(EffectGameObject*, cocos2d::CCArray*)::{lambda(cocos2d::CCNode*)#4}>, bool (cocos2d::CCNode*)>::destroy_deallocate()
PUBLIC 9c1f0 0 std::__ndk1::__function::__func<NIDSetupTouchTogglePopup::init(EffectGameObject*, cocos2d::CCArray*)::{lambda(cocos2d::CCNode*)#4}, std::__ndk1::allocator<NIDSetupTouchTogglePopup::init(EffectGameObject*, cocos2d::CCArray*)::{lambda(cocos2d::CCNode*)#4}>, bool (cocos2d::CCNode*)>::operator()(cocos2d::CCNode*&&)
PUBLIC 9c24c 0 std::__ndk1::__function::__func<NIDSetupTouchTogglePopup::init(EffectGameObject*, cocos2d::CCArray*)::{lambda(cocos2d::CCNode*)#4}, std::__ndk1::allocator<NIDSetupTouchTogglePopup::init(EffectGameObject*, cocos2d::CCArray*)::{lambda(cocos2d::CCNode*)#4}>, bool (cocos2d::CCNode*)>::target(std::type_info const&) const
PUBLIC 9c268 0 std::__ndk1::__function::__func<NIDSetupTouchTogglePopup::init(EffectGameObject*, cocos2d::CCArray*)::{lambda(cocos2d::CCNode*)#4}, std::__ndk1::allocator<NIDSetupTouchTogglePopup::init(EffectGameObject*, cocos2d::CCArray*)::{lambda(cocos2d::CCNode*)#4}>, bool (cocos2d::CCNode*)>::target_type() const
PUBLIC 9c274 0 AddNamedIDPopup::create(NID, std::__ndk1::function<void (std::__ndk1::basic_string<char, std::__ndk1::char_traits<char>, std::__ndk1::allocator<char> > const&, short)>&&)
PUBLIC 9c4e0 0 AddNamedIDPopup::setup(short, std::__ndk1::function<void (short)>&&, std::__ndk1::function<void ()>&&)
PUBLIC 9c89c 0 geode::Popup<short, std::__ndk1::function<void (short)>&&, std::__ndk1::function<void ()>&&>::setTitle(std::__ndk1::basic_string<char, std::__ndk1::char_traits<char>, std::__ndk1::allocator<char> > const&, char const*, float, float)
PUBLIC 9c9e8 0 AddNamedIDPopup::onSaveButton(cocos2d::CCObject*)
PUBLIC 9d03c 0 geode::impl::ResultData<void, std::__ndk1::basic_string<char, std::__ndk1::char_traits<char>, std::__ndk1::allocator<char> > >::~ResultData()
PUBLIC 9d0b0 0 AddNamedIDPopup::~AddNamedIDPopup()
PUBLIC 9d224 0 AddNamedIDPopup::~AddNamedIDPopup()
PUBLIC 9d248 0 geode::Popup<short, std::__ndk1::function<void (short)>&&, std::__ndk1::function<void ()>&&>::registerWithTouchDispatcher()
PUBLIC 9d274 0 EditNamedIDPopup<(NID)0>::keyBackClicked()
PUBLIC 9d278 0 EditNamedIDPopup<(NID)0>::keyDown(cocos2d::enumKeyCodes)
PUBLIC 9d27c 0 geode::Popup<short, std::__ndk1::function<void (short)>&&, std::__ndk1::function<void ()>&&>::onClose(cocos2d::CCObject*)
PUBLIC 9d3b0 0 {virtual override thunk({offset(-320)}, AddNamedIDPopup::~AddNamedIDPopup())}
PUBLIC 9d3b8 0 {virtual override thunk({offset(-320)}, AddNamedIDPopup::~AddNamedIDPopup())}
PUBLIC 9d3e0 0 {virtual override thunk({offset(-336)}, EditNamedIDPopup<(NID)0>::keyBackClicked())}
PUBLIC 9d3e4 0 {virtual override thunk({offset(-344)}, EditNamedIDPopup<(NID)0>::keyDown(cocos2d::enumKeyCodes))}
PUBLIC 9d3e8 0 EditNamedIDPopup<(NID)0>::~EditNamedIDPopup()
PUBLIC 9d4f0 0 EditNamedIDPopup<(NID)0>::~EditNamedIDPopup()
PUBLIC 9d600 0 {virtual override thunk({offset(-320)}, EditNamedIDPopup<(NID)0>::~EditNamedIDPopup())}
PUBLIC 9d70c 0 {virtual override thunk({offset(-320)}, EditNamedIDPopup<(NID)0>::~EditNamedIDPopup())}
PUBLIC 9d820 0 geode::Popup<short, std::__ndk1::function<void (short)>&&, std::__ndk1::function<void ()>&&>::~Popup()
PUBLIC 9d88c 0 geode::Popup<short, std::__ndk1::function<void (short)>&&, std::__ndk1::function<void ()>&&>::~Popup()
PUBLIC 9d890 0 geode::Popup<short, std::__ndk1::function<void (short)>&&, std::__ndk1::function<void ()>&&>::keyDown(cocos2d::enumKeyCodes)
PUBLIC 9d8b8 0 {virtual override thunk({offset(-320)}, geode::Popup<short, std::__ndk1::function<void (short)>&&, std::__ndk1::function<void ()>&&>::~Popup())}
PUBLIC 9d924 0 {virtual override thunk({offset(-320)}, geode::Popup<short, std::__ndk1::function<void (short)>&&, std::__ndk1::function<void ()>&&>::~Popup())}
PUBLIC 9d928 0 {virtual override thunk({offset(-344)}, geode::Popup<short, std::__ndk1::function<void (short)>&&, std::__ndk1::function<void ()>&&>::keyDown(cocos2d::enumKeyCodes))}
PUBLIC 9d954 0 geode::Popup<short, std::__ndk1::function<void (short)>&&, std::__ndk1::function<void ()>&&>::initBase(float, float, short, std::__ndk1::function<void (short)>&&, std::__ndk1::function<void ()>&&, char const*, cocos2d::CCRect, bool)
PUBLIC 9dc5c 0 std::__ndk1::__function::__func<AddNamedIDPopup::setup(short, std::__ndk1::function<void (short)>&&, std::__ndk1::function<void ()>&&)::$_0, std::__ndk1::allocator<AddNamedIDPopup::setup(short, std::__ndk1::function<void (short)>&&, std::__ndk1::function<void ()>&&)::$_0>, void (std::__ndk1::basic_string<char, std::__ndk1::char_traits<char>, std::__ndk1::allocator<char> > const&)>::~__func()
PUBLIC 9dc60 0 std::__ndk1::__function::__func<AddNamedIDPopup::setup(short, std::__ndk1::function<void (short)>&&, std::__ndk1::function<void ()>&&)::$_0, std::__ndk1::allocator<AddNamedIDPopup::setup(short, std::__ndk1::function<void (short)>&&, std::__ndk1::function<void ()>&&)::$_0>, void (std::__ndk1::basic_string<char, std::__ndk1::char_traits<char>, std::__ndk1::allocator<char> > const&)>::__clone() const
PUBLIC 9dc84 0 std::__ndk1::__function::__func<AddNamedIDPopup::setup(short, std::__ndk1::function<void (short)>&&, std::__ndk1::function<void ()>&&)::$_0, std::__ndk1::allocator<AddNamedIDPopup::setup(short, std::__ndk1::function<void (short)>&&, std::__ndk1::function<void ()>&&)::$_0>, void (std::__ndk1::basic_string<char, std::__ndk1::char_traits<char>, std::__ndk1::allocator<char> > const&)>::__clone(std::__ndk1::__function::__base<void (std::__ndk1::basic_string<char, std::__ndk1::char_traits<char>, std::__ndk1::allocator<char> > const&)>*) const
PUBLIC 9dc94 0 std::__ndk1::__function::__func<AddNamedIDPopup::setup(short, std::__ndk1::function<void (short)>&&, std::__ndk1::function<void ()>&&)::$_0, std::__ndk1::allocator<AddNamedIDPopup::setup(short, std::__ndk1::function<void (short)>&&, std::__ndk1::function<void ()>&&)::$_0>, void (std::__ndk1::basic_string<char, std::__ndk1::char_traits<char>, std::__ndk1::allocator<char> > const&)>::destroy()
PUBLIC 9dc98 0 std::__ndk1::__function::__func<AddNamedIDPopup::setup(short, std::__ndk1::function<void (short)>&&, std::__ndk1::function<void ()>&&)::$_0, std::__ndk1::allocator<AddNamedIDPopup::setup(short, std::__ndk1::function<void (short)>&&, std::__ndk1::function<void ()>&&)::$_0>, void (std::__ndk1::basic_string<char, std::__ndk1::char_traits<char>, std::__ndk1::allocator<char> > const&)>::destroy_deallocate()
PUBLIC 9dc9c 0 std::__ndk1::__function::__func<AddNamedIDPopup::setup(short, std::__ndk1::function<void (short)>&&, std::__ndk1::function<void ()>&&)::$_0, std::__ndk1::allocator<AddNamedIDPopup::setup(short, std::__ndk1::function<void (short)>&&, std::__ndk1::function<void ()>&&)::$_0>, void (std::__ndk1::basic_string<char, std::__ndk1::char_traits<char>, std::__ndk1::allocator<char> > const&)>::operator()(std::__ndk1::basic_string<char, std::__ndk1::char_traits<char>, std::__ndk1::allocator<char> > const&)
PUBLIC 9dca0 0 std::__ndk1::__function::__func<AddNamedIDPopup::setup(short, std::__ndk1::function<void (short)>&&, std::__ndk1::function<void ()>&&)::$_0, std::__ndk1::allocator<AddNamedIDPopup::setup(short, std::__ndk1::function<void (short)>&&, std::__ndk1::function<void ()>&&)::$_0>, void (std::__ndk1::basic_string<char, std::__ndk1::char_traits<char>, std::__ndk1::allocator<char> > const&)>::target(std::type_info const&) const
PUBLIC 9dcbc 0 std::__ndk1::__function::__func<AddNamedIDPopup::setup(short, std::__ndk1::function<void (short)>&&, std::__ndk1::function<void ()>&&)::$_0, std::__ndk1::allocator<AddNamedIDPopup::setup(short, std::__ndk1::function<void (short)>&&, std::__ndk1::function<void ()>&&)::$_0>, void (std::__ndk1::basic_string<char, std::__ndk1::char_traits<char>, std::__ndk1::allocator<char> > const&)>::target_type() const
PUBLIC 9dcc8 0 std::__ndk1::__function::__func<AddNamedIDPopup::setup(short, std::__ndk1::function<void (short)>&&, std::__ndk1::function<void ()>&&)::$_1, std::__ndk1::allocator<AddNamedIDPopup::setup(short, std::__ndk1::function<void (short)>&&, std::__ndk1::function<void ()>&&)::$_1>, void (std::__ndk1::basic_string<char, std::__ndk1::char_traits<char>, std::__ndk1::allocator<char> > const&)>::~__func()
PUBLIC 9dccc 0 std::__ndk1::__function::__func<AddNamedIDPopup::setup(short, std::__ndk1::function<void (short)>&&, std::__ndk1::function<void ()>&&)::$_1, std::__ndk1::allocator<AddNamedIDPopup::setup(short, std::__ndk1::function<void (short)>&&, std::__ndk1::function<void ()>&&)::$_1>, void (std::__ndk1::basic_string<char, std::__ndk1::char_traits<char>, std::__ndk1::allocator<char> > const&)>::__clone() const
PUBLIC 9dcf0 0 std::__ndk1::__function::__func<AddNamedIDPopup::setup(short, std::__ndk1::function<void (short)>&&, std::__ndk1::function<void ()>&&)::$_1, std::__ndk1::allocator<AddNamedIDPopup::setup(short, std::__ndk1::function<void (short)>&&, std::__ndk1::function<void ()>&&)::$_1>, void (std::__ndk1::basic_string<char, std::__ndk1::char_traits<char>, std::__ndk1::allocator<char> > const&)>::__clone(std::__ndk1::__function::__base<void (std::__ndk1::basic_string<char, std::__ndk1::char_traits<char>, std::__ndk1::allocator<char> > const&)>*) const
PUBLIC 9dd00 0 std::__ndk1::__function::__func<AddNamedIDPopup::setup(short, std::__ndk1::function<void (short)>&&, std::__ndk1::function<void ()>&&)::$_1, std::__ndk1::allocator<AddNamedIDPopup::setup(short, std::__ndk1::function<void (short)>&&, std::__ndk1::function<void ()>&&)::$_1>, void (std::__ndk1::basic_string<char, std::__ndk1::char_traits<char>, std::__ndk1::allocator<char> > const&)>::destroy()
PUBLIC 9dd04 0 std::__ndk1::__function::__func<AddNamedIDPopup::setup(short, std::__ndk1::function<void (short)>&&, std::__ndk1::function<void ()>&&)::$_1, std::__ndk1::allocator<AddNamedIDPopup::setup(short, std::__ndk1::function<void (short)>&&, std::__ndk1::function<void ()>&&)::$_1>, void (std::__ndk1::basic_string<char, std::__ndk1::char_traits<char>, std::__ndk1::allocator<char> > const&)>::destroy_deallocate()
PUBLIC 9dd08 0 std::__ndk1::__function::__func<AddNamedIDPopup::setup(short, std::__ndk1::function<void (short)>&&, std::__ndk1::function<void ()>&&)::$_1, std::__ndk1::allocator<AddNamedIDPopup::setup(short, std::__ndk1::function<void (short)>&&, std::__ndk1::function<void ()>&&)::$_1>, void (std::__ndk1::basic_string<char, std::__ndk1::char_traits<char>, std::__ndk1::allocator<char> > const&)>::operator()(std::__ndk1::basic_string<char, std::__ndk1::char_traits<char>, std::__ndk1::allocator<char> > const&)
PUBLIC 9dd0c 0 std::__ndk1::__function::__func<AddNamedIDPopup::setup(short, std::__ndk1::function<void (short)>&&, std::__ndk1::function<void ()>&&)::$_1, std::__ndk1::allocator<AddNamedIDPopup::setup(short, std::__ndk1::function<void (short)>&&, std::__ndk1::function<void ()>&&)::$_1>, void (std::__ndk1::basic_string<char, std::__ndk1::char_traits<char>, std::__ndk1::allocator<char> > const&)>::target(std::type_info const&) const
PUBLIC 9dd28 0 std::__ndk1::__function::__func<AddNamedIDPopup::setup(short, std::__ndk1::function<void (short)>&&, std::__ndk1::function<void ()>&&)::$_1, std::__ndk1::allocator<AddNamedIDPopup::setup(short, std::__ndk1::function<void (short)>&&, std::__ndk1::function<void ()>&&)::$_1>, void (std::__ndk1::basic_string<char, std::__ndk1::char_traits<char>, std::__ndk1::allocator<char> > const&)>::target_type() const
PUBLIC 9dd34 0 geode::Popup<short, std::__ndk1::function<void (short)>&&, std::__ndk1::function<void ()>&&>::CloseEvent::~CloseEvent()
PUBLIC 9dd94 0 geode::Popup<short, std::__ndk1::function<void (short)>&&, std::__ndk1::function<void ()>&&>::CloseEvent::~CloseEvent()
PUBLIC 9de04 0 std::__ndk1::__shared_ptr_emplace<geode::Popup<short, std::__ndk1::function<void (short)>&&, std::__ndk1::function<void ()>&&>::CloseEvent::Impl, std::__ndk1::allocator<geode::Popup<short, std::__ndk1::function<void (short)>&&, std::__ndk1::function<void ()>&&>::CloseEvent::Impl> >::~__shared_ptr_emplace()
PUBLIC 9de14 0 std::__ndk1::__shared_ptr_emplace<geode::Popup<short, std::__ndk1::function<void (short)>&&, std::__ndk1::function<void ()>&&>::CloseEvent::Impl, std::__ndk1::allocator<geode::Popup<short, std::__ndk1::function<void (short)>&&, std::__ndk1::function<void ()>&&>::CloseEvent::Impl> >::~__shared_ptr_emplace()
PUBLIC 9de44 0 std::__ndk1::__shared_ptr_emplace<geode::Popup<short, std::__ndk1::function<void (short)>&&, std::__ndk1::function<void ()>&&>::CloseEvent::Impl, std::__ndk1::allocator<geode::Popup<short, std::__ndk1::function<void (short)>&&, std::__ndk1::function<void ()>&&>::CloseEvent::Impl> >::__on_zero_shared()
PUBLIC 9de48 0 std::__ndk1::__shared_ptr_emplace<geode::Popup<short, std::__ndk1::function<void (short)>&&, std::__ndk1::function<void ()>&&>::CloseEvent::Impl, std::__ndk1::allocator<geode::Popup<short, std::__ndk1::function<void (short)>&&, std::__ndk1::function<void ()>&&>::CloseEvent::Impl> >::__on_zero_shared_weak()
PUBLIC 9de4c 0 __cxx_global_var_init
PUBLIC a0d3c 0 _GLOBAL__sub_I_EditNamedIDPopup.cpp
PUBLIC a0d40 0 EditNamedIDPopup<(NID)0>::create(short, std::__ndk1::function<void (short)>&&, std::__ndk1::function<void ()>&&)
PUBLIC a0e98 0 EditNamedIDPopup<(NID)0>::setup(short, std::__ndk1::function<void (short)>&&, std::__ndk1::function<void ()>&&)
PUBLIC a174c 0 EditNamedIDPopup<(NID)0>::onInfoIcon(cocos2d::CCObject*)
PUBLIC a1848 0 EditNamedIDPopup<(NID)0>::onLeftArrow(cocos2d::CCObject*)
PUBLIC a1c0c 0 EditNamedIDPopup<(NID)0>::onRightArrow(cocos2d::CCObject*)
PUBLIC a1fec 0 EditNamedIDPopup<(NID)0>::onClearIDNameButton(cocos2d::CCObject*)
PUBLIC a207c 0 EditNamedIDPopup<(NID)0>::onSaveButton(cocos2d::CCObject*)
PUBLIC a2668 0 EditNamedIDPopup<(NID)1>::create(short, std::__ndk1::function<void (short)>&&, std::__ndk1::function<void ()>&&)
PUBLIC a27c0 0 EditNamedIDPopup<(NID)1>::setup(short, std::__ndk1::function<void (short)>&&, std::__ndk1::function<void ()>&&)
PUBLIC a3074 0 EditNamedIDPopup<(NID)1>::onInfoIcon(cocos2d::CCObject*)
PUBLIC a3170 0 EditNamedIDPopup<(NID)1>::onLeftArrow(cocos2d::CCObject*)
PUBLIC a3534 0 EditNamedIDPopup<(NID)1>::onRightArrow(cocos2d::CCObject*)
PUBLIC a3914 0 EditNamedIDPopup<(NID)1>::onClearIDNameButton(cocos2d::CCObject*)
PUBLIC a39a4 0 EditNamedIDPopup<(NID)1>::keyBackClicked()
PUBLIC a39a8 0 {virtual override thunk({offset(-336)}, EditNamedIDPopup<(NID)1>::keyBackClicked())}
PUBLIC a39ac 0 EditNamedIDPopup<(NID)1>::keyDown(cocos2d::enumKeyCodes)
PUBLIC a39b0 0 {virtual override thunk({offset(-344)}, EditNamedIDPopup<(NID)1>::keyDown(cocos2d::enumKeyCodes))}
PUBLIC a39b4 0 EditNamedIDPopup<(NID)1>::onSaveButton(cocos2d::CCObject*)
PUBLIC a3fa0 0 EditNamedIDPopup<(NID)2>::create(short, std::__ndk1::function<void (short)>&&, std::__ndk1::function<void ()>&&)
PUBLIC a40f8 0 EditNamedIDPopup<(NID)2>::setup(short, std::__ndk1::function<void (short)>&&, std::__ndk1::function<void ()>&&)
PUBLIC a49ac 0 EditNamedIDPopup<(NID)2>::onInfoIcon(cocos2d::CCObject*)
PUBLIC a4aa8 0 EditNamedIDPopup<(NID)2>::onLeftArrow(cocos2d::CCObject*)
PUBLIC a4e6c 0 EditNamedIDPopup<(NID)2>::onRightArrow(cocos2d::CCObject*)
PUBLIC a524c 0 EditNamedIDPopup<(NID)2>::onClearIDNameButton(cocos2d::CCObject*)
PUBLIC a52dc 0 EditNamedIDPopup<(NID)2>::keyBackClicked()
PUBLIC a52e0 0 {virtual override thunk({offset(-336)}, EditNamedIDPopup<(NID)2>::keyBackClicked())}
PUBLIC a52e4 0 EditNamedIDPopup<(NID)2>::keyDown(cocos2d::enumKeyCodes)
PUBLIC a52e8 0 {virtual override thunk({offset(-344)}, EditNamedIDPopup<(NID)2>::keyDown(cocos2d::enumKeyCodes))}
PUBLIC a52ec 0 EditNamedIDPopup<(NID)2>::onSaveButton(cocos2d::CCObject*)
PUBLIC a58d8 0 EditNamedIDPopup<(NID)1>::~EditNamedIDPopup()
PUBLIC a59e0 0 EditNamedIDPopup<(NID)1>::~EditNamedIDPopup()
PUBLIC a5af0 0 {virtual override thunk({offset(-320)}, EditNamedIDPopup<(NID)1>::~EditNamedIDPopup())}
PUBLIC a5bfc 0 {virtual override thunk({offset(-320)}, EditNamedIDPopup<(NID)1>::~EditNamedIDPopup())}
PUBLIC a5d10 0 EditNamedIDPopup<(NID)2>::~EditNamedIDPopup()
PUBLIC a5e18 0 EditNamedIDPopup<(NID)2>::~EditNamedIDPopup()
PUBLIC a5f28 0 {virtual override thunk({offset(-320)}, EditNamedIDPopup<(NID)2>::~EditNamedIDPopup())}
PUBLIC a6034 0 {virtual override thunk({offset(-320)}, EditNamedIDPopup<(NID)2>::~EditNamedIDPopup())}
PUBLIC a6148 0 std::__ndk1::__function::__func<EditNamedIDPopup<(NID)0>::setup(short, std::__ndk1::function<void (short)>&&, std::__ndk1::function<void ()>&&)::{lambda(std::__ndk1::basic_string<char, std::__ndk1::char_traits<char>, std::__ndk1::allocator<char> > const&)#1}, std::__ndk1::allocator<EditNamedIDPopup<(NID)0>::setup(short, std::__ndk1::function<void (short)>&&, std::__ndk1::function<void ()>&&)::{lambda(std::__ndk1::basic_string<char, std::__ndk1::char_traits<char>, std::__ndk1::allocator<char> > const&)#1}>, void (std::__ndk1::basic_string<char, std::__ndk1::char_traits<char>, std::__ndk1::allocator<char> > const&)>::~__func()
PUBLIC a614c 0 std::__ndk1::__function::__func<EditNamedIDPopup<(NID)0>::setup(short, std::__ndk1::function<void (short)>&&, std::__ndk1::function<void ()>&&)::{lambda(std::__ndk1::basic_string<char, std::__ndk1::char_traits<char>, std::__ndk1::allocator<char> > const&)#1}, std::__ndk1::allocator<EditNamedIDPopup<(NID)0>::setup(short, std::__ndk1::function<void (short)>&&, std::__ndk1::function<void ()>&&)::{lambda(std::__ndk1::basic_string<char, std::__ndk1::char_traits<char>, std::__ndk1::allocator<char> > const&)#1}>, void (std::__ndk1::basic_string<char, std::__ndk1::char_traits<char>, std::__ndk1::allocator<char> > const&)>::__clone() const
PUBLIC a6180 0 std::__ndk1::__function::__func<EditNamedIDPopup<(NID)0>::setup(short, std::__ndk1::function<void (short)>&&, std::__ndk1::function<void ()>&&)::{lambda(std::__ndk1::basic_string<char, std::__ndk1::char_traits<char>, std::__ndk1::allocator<char> > const&)#1}, std::__ndk1::allocator<EditNamedIDPopup<(NID)0>::setup(short, std::__ndk1::function<void (short)>&&, std::__ndk1::function<void ()>&&)::{lambda(std::__ndk1::basic_string<char, std::__ndk1::char_traits<char>, std::__ndk1::allocator<char> > const&)#1}>, void (std::__ndk1::basic_string<char, std::__ndk1::char_traits<char>, std::__ndk1::allocator<char> > const&)>::__clone(std::__ndk1::__function::__base<void (std::__ndk1::basic_string<char, std::__ndk1::char_traits<char>, std::__ndk1::allocator<char> > const&)>*) const
PUBLIC a6194 0 std::__ndk1::__function::__func<EditNamedIDPopup<(NID)0>::setup(short, std::__ndk1::function<void (short)>&&, std::__ndk1::function<void ()>&&)::{lambda(std::__ndk1::basic_string<char, std::__ndk1::char_traits<char>, std::__ndk1::allocator<char> > const&)#1}, std::__ndk1::allocator<EditNamedIDPopup<(NID)0>::setup(short, std::__ndk1::function<void (short)>&&, std::__ndk1::function<void ()>&&)::{lambda(std::__ndk1::basic_string<char, std::__ndk1::char_traits<char>, std::__ndk1::allocator<char> > const&)#1}>, void (std::__ndk1::basic_string<char, std::__ndk1::char_traits<char>, std::__ndk1::allocator<char> > const&)>::destroy()
PUBLIC a6198 0 std::__ndk1::__function::__func<EditNamedIDPopup<(NID)0>::setup(short, std::__ndk1::function<void (short)>&&, std::__ndk1::function<void ()>&&)::{lambda(std::__ndk1::basic_string<char, std::__ndk1::char_traits<char>, std::__ndk1::allocator<char> > const&)#1}, std::__ndk1::allocator<EditNamedIDPopup<(NID)0>::setup(short, std::__ndk1::function<void (short)>&&, std::__ndk1::function<void ()>&&)::{lambda(std::__ndk1::basic_string<char, std::__ndk1::char_traits<char>, std::__ndk1::allocator<char> > const&)#1}>, void (std::__ndk1::basic_string<char, std::__ndk1::char_traits<char>, std::__ndk1::allocator<char> > const&)>::destroy_deallocate()
PUBLIC a619c 0 std::__ndk1::__function::__func<EditNamedIDPopup<(NID)0>::setup(short, std::__ndk1::function<void (short)>&&, std::__ndk1::function<void ()>&&)::{lambda(std::__ndk1::basic_string<char, std::__ndk1::char_traits<char>, std::__ndk1::allocator<char> > const&)#1}, std::__ndk1::allocator<EditNamedIDPopup<(NID)0>::setup(short, std::__ndk1::function<void (short)>&&, std::__ndk1::function<void ()>&&)::{lambda(std::__ndk1::basic_string<char, std::__ndk1::char_traits<char>, std::__ndk1::allocator<char> > const&)#1}>, void (std::__ndk1::basic_string<char, std::__ndk1::char_traits<char>, std::__ndk1::allocator<char> > const&)>::operator()(std::__ndk1::basic_string<char, std::__ndk1::char_traits<char>, std::__ndk1::allocator<char> > const&)
PUBLIC a63d4 0 std::__ndk1::__function::__func<EditNamedIDPopup<(NID)0>::setup(short, std::__ndk1::function<void (short)>&&, std::__ndk1::function<void ()>&&)::{lambda(std::__ndk1::basic_string<char, std::__ndk1::char_traits<char>, std::__ndk1::allocator<char> > const&)#1}, std::__ndk1::allocator<EditNamedIDPopup<(NID)0>::setup(short, std::__ndk1::function<void (short)>&&, std::__ndk1::function<void ()>&&)::{lambda(std::__ndk1::basic_string<char, std::__ndk1::char_traits<char>, std::__ndk1::allocator<char> > const&)#1}>, void (std::__ndk1::basic_string<char, std::__ndk1::char_traits<char>, std::__ndk1::allocator<char> > const&)>::target(std::type_info const&) const
PUBLIC a63f0 0 std::__ndk1::__function::__func<EditNamedIDPopup<(NID)0>::setup(short, std::__ndk1::function<void (short)>&&, std::__ndk1::function<void ()>&&)::{lambda(std::__ndk1::basic_string<char, std::__ndk1::char_traits<char>, std::__ndk1::allocator<char> > const&)#1}, std::__ndk1::allocator<EditNamedIDPopup<(NID)0>::setup(short, std::__ndk1::function<void (short)>&&, std::__ndk1::function<void ()>&&)::{lambda(std::__ndk1::basic_string<char, std::__ndk1::char_traits<char>, std::__ndk1::allocator<char> > const&)#1}>, void (std::__ndk1::basic_string<char, std::__ndk1::char_traits<char>, std::__ndk1::allocator<char> > const&)>::target_type() const
PUBLIC a63fc 0 std::__ndk1::__function::__func<EditNamedIDPopup<(NID)0>::setup(short, std::__ndk1::function<void (short)>&&, std::__ndk1::function<void ()>&&)::{lambda(std::__ndk1::basic_string<char, std::__ndk1::char_traits<char>, std::__ndk1::allocator<char> > const&)#2}, std::__ndk1::allocator<EditNamedIDPopup<(NID)0>::setup(short, std::__ndk1::function<void (short)>&&, std::__ndk1::function<void ()>&&)::{lambda(std::__ndk1::basic_string<char, std::__ndk1::char_traits<char>, std::__ndk1::allocator<char> > const&)#2}>, void (std::__ndk1::basic_string<char, std::__ndk1::char_traits<char>, std::__ndk1::allocator<char> > const&)>::~__func()
PUBLIC a6400 0 std::__ndk1::__function::__func<EditNamedIDPopup<(NID)0>::setup(short, std::__ndk1::function<void (short)>&&, std::__ndk1::function<void ()>&&)::{lambda(std::__ndk1::basic_string<char, std::__ndk1::char_traits<char>, std::__ndk1::allocator<char> > const&)#2}, std::__ndk1::allocator<EditNamedIDPopup<(NID)0>::setup(short, std::__ndk1::function<void (short)>&&, std::__ndk1::function<void ()>&&)::{lambda(std::__ndk1::basic_string<char, std::__ndk1::char_traits<char>, std::__ndk1::allocator<char> > const&)#2}>, void (std::__ndk1::basic_string<char, std::__ndk1::char_traits<char>, std::__ndk1::allocator<char> > const&)>::__clone() const
PUBLIC a6434 0 std::__ndk1::__function::__func<EditNamedIDPopup<(NID)0>::setup(short, std::__ndk1::function<void (short)>&&, std::__ndk1::function<void ()>&&)::{lambda(std::__ndk1::basic_string<char, std::__ndk1::char_traits<char>, std::__ndk1::allocator<char> > const&)#2}, std::__ndk1::allocator<EditNamedIDPopup<(NID)0>::setup(short, std::__ndk1::function<void (short)>&&, std::__ndk1::function<void ()>&&)::{lambda(std::__ndk1::basic_string<char, std::__ndk1::char_traits<char>, std::__ndk1::allocator<char> > const&)#2}>, void (std::__ndk1::basic_string<char, std::__ndk1::char_traits<char>, std::__ndk1::allocator<char> > const&)>::__clone(std::__ndk1::__function::__base<void (std::__ndk1::basic_string<char, std::__ndk1::char_traits<char>, std::__ndk1::allocator<char> > const&)>*) const
PUBLIC a6448 0 std::__ndk1::__function::__func<EditNamedIDPopup<(NID)0>::setup(short, std::__ndk1::function<void (short)>&&, std::__ndk1::function<void ()>&&)::{lambda(std::__ndk1::basic_string<char, std::__ndk1::char_traits<char>, std::__ndk1::allocator<char> > const&)#2}, std::__ndk1::allocator<EditNamedIDPopup<(NID)0>::setup(short, std::__ndk1::function<void (short)>&&, std::__ndk1::function<void ()>&&)::{lambda(std::__ndk1::basic_string<char, std::__ndk1::char_traits<char>, std::__ndk1::allocator<char> > const&)#2}>, void (std::__ndk1::basic_string<char, std::__ndk1::char_traits<char>, std::__ndk1::allocator<char> > const&)>::destroy()
PUBLIC a644c 0 std::__ndk1::__function::__func<EditNamedIDPopup<(NID)0>::setup(short, std::__ndk1::function<void (short)>&&, std::__ndk1::function<void ()>&&)::{lambda(std::__ndk1::basic_string<char, std::__ndk1::char_traits<char>, std::__ndk1::allocator<char> > const&)#2}, std::__ndk1::allocator<EditNamedIDPopup<(NID)0>::setup(short, std::__ndk1::function<void (short)>&&, std::__ndk1::function<void ()>&&)::{lambda(std::__ndk1::basic_string<char, std::__ndk1::char_traits<char>, std::__ndk1::allocator<char> > const&)#2}>, void (std::__ndk1::basic_string<char, std::__ndk1::char_traits<char>, std::__ndk1::allocator<char> > const&)>::destroy_deallocate()
PUBLIC a6450 0 std::__ndk1::__function::__func<EditNamedIDPopup<(NID)0>::setup(short, std::__ndk1::function<void (short)>&&, std::__ndk1::function<void ()>&&)::{lambda(std::__ndk1::basic_string<char, std::__ndk1::char_traits<char>, std::__ndk1::allocator<char> > const&)#2}, std::__ndk1::allocator<EditNamedIDPopup<(NID)0>::setup(short, std::__ndk1::function<void (short)>&&, std::__ndk1::function<void ()>&&)::{lambda(std::__ndk1::basic_string<char, std::__ndk1::char_traits<char>, std::__ndk1::allocator<char> > const&)#2}>, void (std::__ndk1::basic_string<char, std::__ndk1::char_traits<char>, std::__ndk1::allocator<char> > const&)>::operator()(std::__ndk1::basic_string<char, std::__ndk1::char_traits<char>, std::__ndk1::allocator<char> > const&)
PUBLIC a6454 0 std::__ndk1::__function::__func<EditNamedIDPopup<(NID)0>::setup(short, std::__ndk1::function<void (short)>&&, std::__ndk1::function<void ()>&&)::{lambda(std::__ndk1::basic_string<char, std::__ndk1::char_traits<char>, std::__ndk1::allocator<char> > const&)#2}, std::__ndk1::allocator<EditNamedIDPopup<(NID)0>::setup(short, std::__ndk1::function<void (short)>&&, std::__ndk1::function<void ()>&&)::{lambda(std::__ndk1::basic_string<char, std::__ndk1::char_traits<char>, std::__ndk1::allocator<char> > const&)#2}>, void (std::__ndk1::basic_string<char, std::__ndk1::char_traits<char>, std::__ndk1::allocator<char> > const&)>::target(std::type_info const&) const
PUBLIC a6470 0 std::__ndk1::__function::__func<EditNamedIDPopup<(NID)0>::setup(short, std::__ndk1::function<void (short)>&&, std::__ndk1::function<void ()>&&)::{lambda(std::__ndk1::basic_string<char, std::__ndk1::char_traits<char>, std::__ndk1::allocator<char> > const&)#2}, std::__ndk1::allocator<EditNamedIDPopup<(NID)0>::setup(short, std::__ndk1::function<void (short)>&&, std::__ndk1::function<void ()>&&)::{lambda(std::__ndk1::basic_string<char, std::__ndk1::char_traits<char>, std::__ndk1::allocator<char> > const&)#2}>, void (std::__ndk1::basic_string<char, std::__ndk1::char_traits<char>, std::__ndk1::allocator<char> > const&)>::target_type() const
PUBLIC a647c 0 std::__ndk1::__function::__func<EditNamedIDPopup<(NID)1>::setup(short, std::__ndk1::function<void (short)>&&, std::__ndk1::function<void ()>&&)::{lambda(std::__ndk1::basic_string<char, std::__ndk1::char_traits<char>, std::__ndk1::allocator<char> > const&)#1}, std::__ndk1::allocator<EditNamedIDPopup<(NID)1>::setup(short, std::__ndk1::function<void (short)>&&, std::__ndk1::function<void ()>&&)::{lambda(std::__ndk1::basic_string<char, std::__ndk1::char_traits<char>, std::__ndk1::allocator<char> > const&)#1}>, void (std::__ndk1::basic_string<char, std::__ndk1::char_traits<char>, std::__ndk1::allocator<char> > const&)>::~__func()
PUBLIC a6480 0 std::__ndk1::__function::__func<EditNamedIDPopup<(NID)1>::setup(short, std::__ndk1::function<void (short)>&&, std::__ndk1::function<void ()>&&)::{lambda(std::__ndk1::basic_string<char, std::__ndk1::char_traits<char>, std::__ndk1::allocator<char> > const&)#1}, std::__ndk1::allocator<EditNamedIDPopup<(NID)1>::setup(short, std::__ndk1::function<void (short)>&&, std::__ndk1::function<void ()>&&)::{lambda(std::__ndk1::basic_string<char, std::__ndk1::char_traits<char>, std::__ndk1::allocator<char> > const&)#1}>, void (std::__ndk1::basic_string<char, std::__ndk1::char_traits<char>, std::__ndk1::allocator<char> > const&)>::__clone() const
PUBLIC a64b4 0 std::__ndk1::__function::__func<EditNamedIDPopup<(NID)1>::setup(short, std::__ndk1::function<void (short)>&&, std::__ndk1::function<void ()>&&)::{lambda(std::__ndk1::basic_string<char, std::__ndk1::char_traits<char>, std::__ndk1::allocator<char> > const&)#1}, std::__ndk1::allocator<EditNamedIDPopup<(NID)1>::setup(short, std::__ndk1::function<void (short)>&&, std::__ndk1::function<void ()>&&)::{lambda(std::__ndk1::basic_string<char, std::__ndk1::char_traits<char>, std::__ndk1::allocator<char> > const&)#1}>, void (std::__ndk1::basic_string<char, std::__ndk1::char_traits<char>, std::__ndk1::allocator<char> > const&)>::__clone(std::__ndk1::__function::__base<void (std::__ndk1::basic_string<char, std::__ndk1::char_traits<char>, std::__ndk1::allocator<char> > const&)>*) const
PUBLIC a64c8 0 std::__ndk1::__function::__func<EditNamedIDPopup<(NID)1>::setup(short, std::__ndk1::function<void (short)>&&, std::__ndk1::function<void ()>&&)::{lambda(std::__ndk1::basic_string<char, std::__ndk1::char_traits<char>, std::__ndk1::allocator<char> > const&)#1}, std::__ndk1::allocator<EditNamedIDPopup<(NID)1>::setup(short, std::__ndk1::function<void (short)>&&, std::__ndk1::function<void ()>&&)::{lambda(std::__ndk1::basic_string<char, std::__ndk1::char_traits<char>, std::__ndk1::allocator<char> > const&)#1}>, void (std::__ndk1::basic_string<char, std::__ndk1::char_traits<char>, std::__ndk1::allocator<char> > const&)>::destroy()
PUBLIC a64cc 0 std::__ndk1::__function::__func<EditNamedIDPopup<(NID)1>::setup(short, std::__ndk1::function<void (short)>&&, std::__ndk1::function<void ()>&&)::{lambda(std::__ndk1::basic_string<char, std::__ndk1::char_traits<char>, std::__ndk1::allocator<char> > const&)#1}, std::__ndk1::allocator<EditNamedIDPopup<(NID)1>::setup(short, std::__ndk1::function<void (short)>&&, std::__ndk1::function<void ()>&&)::{lambda(std::__ndk1::basic_string<char, std::__ndk1::char_traits<char>, std::__ndk1::allocator<char> > const&)#1}>, void (std::__ndk1::basic_string<char, std::__ndk1::char_traits<char>, std::__ndk1::allocator<char> > const&)>::destroy_deallocate()
PUBLIC a64d0 0 std::__ndk1::__function::__func<EditNamedIDPopup<(NID)1>::setup(short, std::__ndk1::function<void (short)>&&, std::__ndk1::function<void ()>&&)::{lambda(std::__ndk1::basic_string<char, std::__ndk1::char_traits<char>, std::__ndk1::allocator<char> > const&)#1}, std::__ndk1::allocator<EditNamedIDPopup<(NID)1>::setup(short, std::__ndk1::function<void (short)>&&, std::__ndk1::function<void ()>&&)::{lambda(std::__ndk1::basic_string<char, std::__ndk1::char_traits<char>, std::__ndk1::allocator<char> > const&)#1}>, void (std::__ndk1::basic_string<char, std::__ndk1::char_traits<char>, std::__ndk1::allocator<char> > const&)>::operator()(std::__ndk1::basic_string<char, std::__ndk1::char_traits<char>, std::__ndk1::allocator<char> > const&)
PUBLIC a6708 0 std::__ndk1::__function::__func<EditNamedIDPopup<(NID)1>::setup(short, std::__ndk1::function<void (short)>&&, std::__ndk1::function<void ()>&&)::{lambda(std::__ndk1::basic_string<char, std::__ndk1::char_traits<char>, std::__ndk1::allocator<char> > const&)#1}, std::__ndk1::allocator<EditNamedIDPopup<(NID)1>::setup(short, std::__ndk1::function<void (short)>&&, std::__ndk1::function<void ()>&&)::{lambda(std::__ndk1::basic_string<char, std::__ndk1::char_traits<char>, std::__ndk1::allocator<char> > const&)#1}>, void (std::__ndk1::basic_string<char, std::__ndk1::char_traits<char>, std::__ndk1::allocator<char> > const&)>::target(std::type_info const&) const
PUBLIC a6724 0 std::__ndk1::__function::__func<EditNamedIDPopup<(NID)1>::setup(short, std::__ndk1::function<void (short)>&&, std::__ndk1::function<void ()>&&)::{lambda(std::__ndk1::basic_string<char, std::__ndk1::char_traits<char>, std::__ndk1::allocator<char> > const&)#1}, std::__ndk1::allocator<EditNamedIDPopup<(NID)1>::setup(short, std::__ndk1::function<void (short)>&&, std::__ndk1::function<void ()>&&)::{lambda(std::__ndk1::basic_string<char, std::__ndk1::char_traits<char>, std::__ndk1::allocator<char> > const&)#1}>, void (std::__ndk1::basic_string<char, std::__ndk1::char_traits<char>, std::__ndk1::allocator<char> > const&)>::target_type() const
PUBLIC a6730 0 std::__ndk1::__function::__func<EditNamedIDPopup<(NID)1>::setup(short, std::__ndk1::function<void (short)>&&, std::__ndk1::function<void ()>&&)::{lambda(std::__ndk1::basic_string<char, std::__ndk1::char_traits<char>, std::__ndk1::allocator<char> > const&)#2}, std::__ndk1::allocator<EditNamedIDPopup<(NID)1>::setup(short, std::__ndk1::function<void (short)>&&, std::__ndk1::function<void ()>&&)::{lambda(std::__ndk1::basic_string<char, std::__ndk1::char_traits<char>, std::__ndk1::allocator<char> > const&)#2}>, void (std::__ndk1::basic_string<char, std::__ndk1::char_traits<char>, std::__ndk1::allocator<char> > const&)>::~__func()
PUBLIC a6734 0 std::__ndk1::__function::__func<EditNamedIDPopup<(NID)1>::setup(short, std::__ndk1::function<void (short)>&&, std::__ndk1::function<void ()>&&)::{lambda(std::__ndk1::basic_string<char, std::__ndk1::char_traits<char>, std::__ndk1::allocator<char> > const&)#2}, std::__ndk1::allocator<EditNamedIDPopup<(NID)1>::setup(short, std::__ndk1::function<void (short)>&&, std::__ndk1::function<void ()>&&)::{lambda(std::__ndk1::basic_string<char, std::__ndk1::char_traits<char>, std::__ndk1::allocator<char> > const&)#2}>, void (std::__ndk1::basic_string<char, std::__ndk1::char_traits<char>, std::__ndk1::allocator<char> > const&)>::__clone() const
PUBLIC a6768 0 std::__ndk1::__function::__func<EditNamedIDPopup<(NID)1>::setup(short, std::__ndk1::function<void (short)>&&, std::__ndk1::function<void ()>&&)::{lambda(std::__ndk1::basic_string<char, std::__ndk1::char_traits<char>, std::__ndk1::allocator<char> > const&)#2}, std::__ndk1::allocator<EditNamedIDPopup<(NID)1>::setup(short, std::__ndk1::function<void (short)>&&, std::__ndk1::function<void ()>&&)::{lambda(std::__ndk1::basic_string<char, std::__ndk1::char_traits<char>, std::__ndk1::allocator<char> > const&)#2}>, void (std::__ndk1::basic_string<char, std::__ndk1::char_traits<char>, std::__ndk1::allocator<char> > const&)>::__clone(std::__ndk1::__function::__base<void (std::__ndk1::basic_string<char, std::__ndk1::char_traits<char>, std::__ndk1::allocator<char> > const&)>*) const
PUBLIC a677c 0 std::__ndk1::__function::__func<EditNamedIDPopup<(NID)1>::setup(short, std::__ndk1::function<void (short)>&&, std::__ndk1::function<void ()>&&)::{lambda(std::__ndk1::basic_string<char, std::__ndk1::char_traits<char>, std::__ndk1::allocator<char> > const&)#2}, std::__ndk1::allocator<EditNamedIDPopup<(NID)1>::setup(short, std::__ndk1::function<void (short)>&&, std::__ndk1::function<void ()>&&)::{lambda(std::__ndk1::basic_string<char, std::__ndk1::char_traits<char>, std::__ndk1::allocator<char> > const&)#2}>, void (std::__ndk1::basic_string<char, std::__ndk1::char_traits<char>, std::__ndk1::allocator<char> > const&)>::destroy()
PUBLIC a6780 0 std::__ndk1::__function::__func<EditNamedIDPopup<(NID)1>::setup(short, std::__ndk1::function<void (short)>&&, std::__ndk1::function<void ()>&&)::{lambda(std::__ndk1::basic_string<char, std::__ndk1::char_traits<char>, std::__ndk1::allocator<char> > const&)#2}, std::__ndk1::allocator<EditNamedIDPopup<(NID)1>::setup(short, std::__ndk1::function<void (short)>&&, std::__ndk1::function<void ()>&&)::{lambda(std::__ndk1::basic_string<char, std::__ndk1::char_traits<char>, std::__ndk1::allocator<char> > const&)#2}>, void (std::__ndk1::basic_string<char, std::__ndk1::char_traits<char>, std::__ndk1::allocator<char> > const&)>::destroy_deallocate()
PUBLIC a6784 0 std::__ndk1::__function::__func<EditNamedIDPopup<(NID)1>::setup(short, std::__ndk1::function<void (short)>&&, std::__ndk1::function<void ()>&&)::{lambda(std::__ndk1::basic_string<char, std::__ndk1::char_traits<char>, std::__ndk1::allocator<char> > const&)#2}, std::__ndk1::allocator<EditNamedIDPopup<(NID)1>::setup(short, std::__ndk1::function<void (short)>&&, std::__ndk1::function<void ()>&&)::{lambda(std::__ndk1::basic_string<char, std::__ndk1::char_traits<char>, std::__ndk1::allocator<char> > const&)#2}>, void (std::__ndk1::basic_string<char, std::__ndk1::char_traits<char>, std::__ndk1::allocator<char> > const&)>::operator()(std::__ndk1::basic_string<char, std::__ndk1::char_traits<char>, std::__ndk1::allocator<char> > const&)
PUBLIC a6788 0 std::__ndk1::__function::__func<EditNamedIDPopup<(NID)1>::setup(short, std::__ndk1::function<void (short)>&&, std::__ndk1::function<void ()>&&)::{lambda(std::__ndk1::basic_string<char, std::__ndk1::char_traits<char>, std::__ndk1::allocator<char> > const&)#2}, std::__ndk1::allocator<EditNamedIDPopup<(NID)1>::setup(short, std::__ndk1::function<void (short)>&&, std::__ndk1::function<void ()>&&)::{lambda(std::__ndk1::basic_string<char, std::__ndk1::char_traits<char>, std::__ndk1::allocator<char> > const&)#2}>, void (std::__ndk1::basic_string<char, std::__ndk1::char_traits<char>, std::__ndk1::allocator<char> > const&)>::target(std::type_info const&) const
PUBLIC a67a4 0 std::__ndk1::__function::__func<EditNamedIDPopup<(NID)1>::setup(short, std::__ndk1::function<void (short)>&&, std::__ndk1::function<void ()>&&)::{lambda(std::__ndk1::basic_string<char, std::__ndk1::char_traits<char>, std::__ndk1::allocator<char> > const&)#2}, std::__ndk1::allocator<EditNamedIDPopup<(NID)1>::setup(short, std::__ndk1::function<void (short)>&&, std::__ndk1::function<void ()>&&)::{lambda(std::__ndk1::basic_string<char, std::__ndk1::char_traits<char>, std::__ndk1::allocator<char> > const&)#2}>, void (std::__ndk1::basic_string<char, std::__ndk1::char_traits<char>, std::__ndk1::allocator<char> > const&)>::target_type() const
PUBLIC a67b0 0 std::__ndk1::__function::__func<EditNamedIDPopup<(NID)2>::setup(short, std::__ndk1::function<void (short)>&&, std::__ndk1::function<void ()>&&)::{lambda(std::__ndk1::basic_string<char, std::__ndk1::char_traits<char>, std::__ndk1::allocator<char> > const&)#1}, std::__ndk1::allocator<EditNamedIDPopup<(NID)2>::setup(short, std::__ndk1::function<void (short)>&&, std::__ndk1::function<void ()>&&)::{lambda(std::__ndk1::basic_string<char, std::__ndk1::char_traits<char>, std::__ndk1::allocator<char> > const&)#1}>, void (std::__ndk1::basic_string<char, std::__ndk1::char_traits<char>, std::__ndk1::allocator<char> > const&)>::~__func()
PUBLIC a67b4 0 std::__ndk1::__function::__func<EditNamedIDPopup<(NID)2>::setup(short, std::__ndk1::function<void (short)>&&, std::__ndk1::function<void ()>&&)::{lambda(std::__ndk1::basic_string<char, std::__ndk1::char_traits<char>, std::__ndk1::allocator<char> > const&)#1}, std::__ndk1::allocator<EditNamedIDPopup<(NID)2>::setup(short, std::__ndk1::function<void (short)>&&, std::__ndk1::function<void ()>&&)::{lambda(std::__ndk1::basic_string<char, std::__ndk1::char_traits<char>, std::__ndk1::allocator<char> > const&)#1}>, void (std::__ndk1::basic_string<char, std::__ndk1::char_traits<char>, std::__ndk1::allocator<char> > const&)>::__clone() const
PUBLIC a67e8 0 std::__ndk1::__function::__func<EditNamedIDPopup<(NID)2>::setup(short, std::__ndk1::function<void (short)>&&, std::__ndk1::function<void ()>&&)::{lambda(std::__ndk1::basic_string<char, std::__ndk1::char_traits<char>, std::__ndk1::allocator<char> > const&)#1}, std::__ndk1::allocator<EditNamedIDPopup<(NID)2>::setup(short, std::__ndk1::function<void (short)>&&, std::__ndk1::function<void ()>&&)::{lambda(std::__ndk1::basic_string<char, std::__ndk1::char_traits<char>, std::__ndk1::allocator<char> > const&)#1}>, void (std::__ndk1::basic_string<char, std::__ndk1::char_traits<char>, std::__ndk1::allocator<char> > const&)>::__clone(std::__ndk1::__function::__base<void (std::__ndk1::basic_string<char, std::__ndk1::char_traits<char>, std::__ndk1::allocator<char> > const&)>*) const
PUBLIC a67fc 0 std::__ndk1::__function::__func<EditNamedIDPopup<(NID)2>::setup(short, std::__ndk1::function<void (short)>&&, std::__ndk1::function<void ()>&&)::{lambda(std::__ndk1::basic_string<char, std::__ndk1::char_traits<char>, std::__ndk1::allocator<char> > const&)#1}, std::__ndk1::allocator<EditNamedIDPopup<(NID)2>::setup(short, std::__ndk1::function<void (short)>&&, std::__ndk1::function<void ()>&&)::{lambda(std::__ndk1::basic_string<char, std::__ndk1::char_traits<char>, std::__ndk1::allocator<char> > const&)#1}>, void (std::__ndk1::basic_string<char, std::__ndk1::char_traits<char>, std::__ndk1::allocator<char> > const&)>::destroy()
PUBLIC a6800 0 std::__ndk1::__function::__func<EditNamedIDPopup<(NID)2>::setup(short, std::__ndk1::function<void (short)>&&, std::__ndk1::function<void ()>&&)::{lambda(std::__ndk1::basic_string<char, std::__ndk1::char_traits<char>, std::__ndk1::allocator<char> > const&)#1}, std::__ndk1::allocator<EditNamedIDPopup<(NID)2>::setup(short, std::__ndk1::function<void (short)>&&, std::__ndk1::function<void ()>&&)::{lambda(std::__ndk1::basic_string<char, std::__ndk1::char_traits<char>, std::__ndk1::allocator<char> > const&)#1}>, void (std::__ndk1::basic_string<char, std::__ndk1::char_traits<char>, std::__ndk1::allocator<char> > const&)>::destroy_deallocate()
PUBLIC a6804 0 std::__ndk1::__function::__func<EditNamedIDPopup<(NID)2>::setup(short, std::__ndk1::function<void (short)>&&, std::__ndk1::function<void ()>&&)::{lambda(std::__ndk1::basic_string<char, std::__ndk1::char_traits<char>, std::__ndk1::allocator<char> > const&)#1}, std::__ndk1::allocator<EditNamedIDPopup<(NID)2>::setup(short, std::__ndk1::function<void (short)>&&, std::__ndk1::function<void ()>&&)::{lambda(std::__ndk1::basic_string<char, std::__ndk1::char_traits<char>, std::__ndk1::allocator<char> > const&)#1}>, void (std::__ndk1::basic_string<char, std::__ndk1::char_traits<char>, std::__ndk1::allocator<char> > const&)>::operator()(std::__ndk1::basic_string<char, std::__ndk1::char_traits<char>, std::__ndk1::allocator<char> > const&)
PUBLIC a6a3c 0 std::__ndk1::__function::__func<EditNamedIDPopup<(NID)2>::setup(short, std::__ndk1::function<void (short)>&&, std::__ndk1::function<void ()>&&)::{lambda(std::__ndk1::basic_string<char, std::__ndk1::char_traits<char>, std::__ndk1::allocator<char> > const&)#1}, std::__ndk1::allocator<EditNamedIDPopup<(NID)2>::setup(short, std::__ndk1::function<void (short)>&&, std::__ndk1::function<void ()>&&)::{lambda(std::__ndk1::basic_string<char, std::__ndk1::char_traits<char>, std::__ndk1::allocator<char> > const&)#1}>, void (std::__ndk1::basic_string<char, std::__ndk1::char_traits<char>, std::__ndk1::allocator<char> > const&)>::target(std::type_info const&) const
PUBLIC a6a58 0 std::__ndk1::__function::__func<EditNamedIDPopup<(NID)2>::setup(short, std::__ndk1::function<void (short)>&&, std::__ndk1::function<void ()>&&)::{lambda(std::__ndk1::basic_string<char, std::__ndk1::char_traits<char>, std::__ndk1::allocator<char> > const&)#1}, std::__ndk1::allocator<EditNamedIDPopup<(NID)2>::setup(short, std::__ndk1::function<void (short)>&&, std::__ndk1::function<void ()>&&)::{lambda(std::__ndk1::basic_string<char, std::__ndk1::char_traits<char>, std::__ndk1::allocator<char> > const&)#1}>, void (std::__ndk1::basic_string<char, std::__ndk1::char_traits<char>, std::__ndk1::allocator<char> > const&)>::target_type() const
PUBLIC a6a64 0 std::__ndk1::__function::__func<EditNamedIDPopup<(NID)2>::setup(short, std::__ndk1::function<void (short)>&&, std::__ndk1::function<void ()>&&)::{lambda(std::__ndk1::basic_string<char, std::__ndk1::char_traits<char>, std::__ndk1::allocator<char> > const&)#2}, std::__ndk1::allocator<EditNamedIDPopup<(NID)2>::setup(short, std::__ndk1::function<void (short)>&&, std::__ndk1::function<void ()>&&)::{lambda(std::__ndk1::basic_string<char, std::__ndk1::char_traits<char>, std::__ndk1::allocator<char> > const&)#2}>, void (std::__ndk1::basic_string<char, std::__ndk1::char_traits<char>, std::__ndk1::allocator<char> > const&)>::~__func()
PUBLIC a6a68 0 std::__ndk1::__function::__func<EditNamedIDPopup<(NID)2>::setup(short, std::__ndk1::function<void (short)>&&, std::__ndk1::function<void ()>&&)::{lambda(std::__ndk1::basic_string<char, std::__ndk1::char_traits<char>, std::__ndk1::allocator<char> > const&)#2}, std::__ndk1::allocator<EditNamedIDPopup<(NID)2>::setup(short, std::__ndk1::function<void (short)>&&, std::__ndk1::function<void ()>&&)::{lambda(std::__ndk1::basic_string<char, std::__ndk1::char_traits<char>, std::__ndk1::allocator<char> > const&)#2}>, void (std::__ndk1::basic_string<char, std::__ndk1::char_traits<char>, std::__ndk1::allocator<char> > const&)>::__clone() const
PUBLIC a6a9c 0 std::__ndk1::__function::__func<EditNamedIDPopup<(NID)2>::setup(short, std::__ndk1::function<void (short)>&&, std::__ndk1::function<void ()>&&)::{lambda(std::__ndk1::basic_string<char, std::__ndk1::char_traits<char>, std::__ndk1::allocator<char> > const&)#2}, std::__ndk1::allocator<EditNamedIDPopup<(NID)2>::setup(short, std::__ndk1::function<void (short)>&&, std::__ndk1::function<void ()>&&)::{lambda(std::__ndk1::basic_string<char, std::__ndk1::char_traits<char>, std::__ndk1::allocator<char> > const&)#2}>, void (std::__ndk1::basic_string<char, std::__ndk1::char_traits<char>, std::__ndk1::allocator<char> > const&)>::__clone(std::__ndk1::__function::__base<void (std::__ndk1::basic_string<char, std::__ndk1::char_traits<char>, std::__ndk1::allocator<char> > const&)>*) const
PUBLIC a6ab0 0 std::__ndk1::__function::__func<EditNamedIDPopup<(NID)2>::setup(short, std::__ndk1::function<void (short)>&&, std::__ndk1::function<void ()>&&)::{lambda(std::__ndk1::basic_string<char, std::__ndk1::char_traits<char>, std::__ndk1::allocator<char> > const&)#2}, std::__ndk1::allocator<EditNamedIDPopup<(NID)2>::setup(short, std::__ndk1::function<void (short)>&&, std::__ndk1::function<void ()>&&)::{lambda(std::__ndk1::basic_string<char, std::__ndk1::char_traits<char>, std::__ndk1::allocator<char> > const&)#2}>, void (std::__ndk1::basic_string<char, std::__ndk1::char_traits<char>, std::__ndk1::allocator<char> > const&)>::destroy()
PUBLIC a6ab4 0 std::__ndk1::__function::__func<EditNamedIDPopup<(NID)2>::setup(short, std::__ndk1::function<void (short)>&&, std::__ndk1::function<void ()>&&)::{lambda(std::__ndk1::basic_string<char, std::__ndk1::char_traits<char>, std::__ndk1::allocator<char> > const&)#2}, std::__ndk1::allocator<EditNamedIDPopup<(NID)2>::setup(short, std::__ndk1::function<void (short)>&&, std::__ndk1::function<void ()>&&)::{lambda(std::__ndk1::basic_string<char, std::__ndk1::char_traits<char>, std::__ndk1::allocator<char> > const&)#2}>, void (std::__ndk1::basic_string<char, std::__ndk1::char_traits<char>, std::__ndk1::allocator<char> > const&)>::destroy_deallocate()
PUBLIC a6ab8 0 std::__ndk1::__function::__func<EditNamedIDPopup<(NID)2>::setup(short, std::__ndk1::function<void (short)>&&, std::__ndk1::function<void ()>&&)::{lambda(std::__ndk1::basic_string<char, std::__ndk1::char_traits<char>, std::__ndk1::allocator<char> > const&)#2}, std::__ndk1::allocator<EditNamedIDPopup<(NID)2>::setup(short, std::__ndk1::function<void (short)>&&, std::__ndk1::function<void ()>&&)::{lambda(std::__ndk1::basic_string<char, std::__ndk1::char_traits<char>, std::__ndk1::allocator<char> > const&)#2}>, void (std::__ndk1::basic_string<char, std::__ndk1::char_traits<char>, std::__ndk1::allocator<char> > const&)>::operator()(std::__ndk1::basic_string<char, std::__ndk1::char_traits<char>, std::__ndk1::allocator<char> > const&)
PUBLIC a6abc 0 std::__ndk1::__function::__func<EditNamedIDPopup<(NID)2>::setup(short, std::__ndk1::function<void (short)>&&, std::__ndk1::function<void ()>&&)::{lambda(std::__ndk1::basic_string<char, std::__ndk1::char_traits<char>, std::__ndk1::allocator<char> > const&)#2}, std::__ndk1::allocator<EditNamedIDPopup<(NID)2>::setup(short, std::__ndk1::function<void (short)>&&, std::__ndk1::function<void ()>&&)::{lambda(std::__ndk1::basic_string<char, std::__ndk1::char_traits<char>, std::__ndk1::allocator<char> > const&)#2}>, void (std::__ndk1::basic_string<char, std::__ndk1::char_traits<char>, std::__ndk1::allocator<char> > const&)>::target(std::type_info const&) const
PUBLIC a6ad8 0 std::__ndk1::__function::__func<EditNamedIDPopup<(NID)2>::setup(short, std::__ndk1::function<void (short)>&&, std::__ndk1::function<void ()>&&)::{lambda(std::__ndk1::basic_string<char, std::__ndk1::char_traits<char>, std::__ndk1::allocator<char> > const&)#2}, std::__ndk1::allocator<EditNamedIDPopup<(NID)2>::setup(short, std::__ndk1::function<void (short)>&&, std::__ndk1::function<void ()>&&)::{lambda(std::__ndk1::basic_string<char, std::__ndk1::char_traits<char>, std::__ndk1::allocator<char> > const&)#2}>, void (std::__ndk1::basic_string<char, std::__ndk1::char_traits<char>, std::__ndk1::allocator<char> > const&)>::target_type() const
PUBLIC a6ae4 0 NamedIDsPopup::create()
PUBLIC a6c10 0 NamedIDsPopup::setup()
PUBLIC a73b4 0 NamedIDsPopup::onFilterButton(cocos2d::CCObject*)
PUBLIC a74a0 0 NamedIDsPopup::onAddButton(cocos2d::CCObject*)
PUBLIC a758c 0 NamedIDsPopup::onClearSearchButton(cocos2d::CCObject*)
PUBLIC a7628 0 NamedIDsPopup::updateList(NID)
PUBLIC a78dc 0 NamedIDsPopup::updateState()
PUBLIC a7be4 0 std::__ndk1::vector<std::__ndk1::pair<std::__ndk1::basic_string<char, std::__ndk1::char_traits<char>, std::__ndk1::allocator<char> >, short>, std::__ndk1::allocator<std::__ndk1::pair<std::__ndk1::basic_string<char, std::__ndk1::char_traits<char>, std::__ndk1::allocator<char> >, short> > >::~vector[abi:ne190000]()
PUBLIC a7c60 0 geode::cocos::CCArrayExt<NamedIDItem*, NamedIDItem>::~CCArrayExt()
PUBLIC a7c7c 0 geode::Popup<>::~Popup()
PUBLIC a7ce8 0 NamedIDsPopup::~NamedIDsPopup()
PUBLIC a7d5c 0 geode::Popup<>::registerWithTouchDispatcher()
PUBLIC a7d88 0 geode::Popup<>::keyDown(cocos2d::enumKeyCodes)
PUBLIC a7db0 0 geode::Popup<>::onClose(cocos2d::CCObject*)
PUBLIC a7ee4 0 {virtual override thunk({offset(-320)}, NamedIDsPopup::~NamedIDsPopup())}
PUBLIC a7f50 0 {virtual override thunk({offset(-320)}, NamedIDsPopup::~NamedIDsPopup())}
PUBLIC a7fc4 0 {virtual override thunk({offset(-344)}, geode::Popup<>::keyDown(cocos2d::enumKeyCodes))}
PUBLIC a7ff0 0 geode::Popup<>::~Popup()
PUBLIC a7ff4 0 {virtual override thunk({offset(-320)}, geode::Popup<>::~Popup())}
PUBLIC a8060 0 {virtual override thunk({offset(-320)}, geode::Popup<>::~Popup())}
PUBLIC a8064 0 std::__ndk1::__exception_guard_exceptions<std::__ndk1::vector<std::__ndk1::pair<std::__ndk1::basic_string<char, std::__ndk1::char_traits<char>, std::__ndk1::allocator<char> >, short>, std::__ndk1::allocator<std::__ndk1::pair<std::__ndk1::basic_string<char, std::__ndk1::char_traits<char>, std::__ndk1::allocator<char> >, short> > >::__destroy_vector>::~__exception_guard_exceptions[abi:ne190000]()
PUBLIC a80f0 0 std::__ndk1::vector<std::__ndk1::pair<std::__ndk1::basic_string<char, std::__ndk1::char_traits<char>, std::__ndk1::allocator<char> >, short>, std::__ndk1::allocator<std::__ndk1::pair<std::__ndk1::basic_string<char, std::__ndk1::char_traits<char>, std::__ndk1::allocator<char> >, short> > >::__throw_length_error[abi:ne190000]() const
PUBLIC a8104 0 std::__ndk1::__exception_guard_exceptions<std::__ndk1::_AllocatorDestroyRangeReverse<std::__ndk1::allocator<std::__ndk1::pair<std::__ndk1::basic_string<char, std::__ndk1::char_traits<char>, std::__ndk1::allocator<char> >, short> >, std::__ndk1::pair<std::__ndk1::basic_string<char, std::__ndk1::char_traits<char>, std::__ndk1::allocator<char> >, short>*> >::~__exception_guard_exceptions[abi:ne190000]()
PUBLIC a8164 0 std::__ndk1::__introsort<std::__ndk1::_ClassicAlgPolicy, NamedIDsPopup::updateList(NID)::$_0&, std::__ndk1::pair<std::__ndk1::basic_string<char, std::__ndk1::char_traits<char>, std::__ndk1::allocator<char> >, short>*, false>(std::__ndk1::pair<std::__ndk1::basic_string<char, std::__ndk1::char_traits<char>, std::__ndk1::allocator<char> >, short>*, std::__ndk1::pair<std::__ndk1::basic_string<char, std::__ndk1::char_traits<char>, std::__ndk1::allocator<char> >, short>*, NamedIDsPopup::updateList(NID)::$_0&, std::__ndk1::iterator_traits<std::__ndk1::pair<std::__ndk1::basic_string<char, std::__ndk1::char_traits<char>, std::__ndk1::allocator<char> >, short>*>::difference_type, bool)
PUBLIC a9644 0 std::__ndk1::__insertion_sort_incomplete[abi:ne190000]<std::__ndk1::_ClassicAlgPolicy, NamedIDsPopup::updateList(NID)::$_0&, std::__ndk1::pair<std::__ndk1::basic_string<char, std::__ndk1::char_traits<char>, std::__ndk1::allocator<char> >, short>*>(std::__ndk1::pair<std::__ndk1::basic_string<char, std::__ndk1::char_traits<char>, std::__ndk1::allocator<char> >, short>*, std::__ndk1::pair<std::__ndk1::basic_string<char, std::__ndk1::char_traits<char>, std::__ndk1::allocator<char> >, short>*, NamedIDsPopup::updateList(NID)::$_0&)
PUBLIC a9be0 0 std::__ndk1::__sort4[abi:ne190000]<std::__ndk1::_ClassicAlgPolicy, NamedIDsPopup::updateList(NID)::$_0&, std::__ndk1::pair<std::__ndk1::basic_string<char, std::__ndk1::char_traits<char>, std::__ndk1::allocator<char> >, short>*>(std::__ndk1::pair<std::__ndk1::basic_string<char, std::__ndk1::char_traits<char>, std::__ndk1::allocator<char> >, short>*, std::__ndk1::pair<std::__ndk1::basic_string<char, std::__ndk1::char_traits<char>, std::__ndk1::allocator<char> >, short>*, std::__ndk1::pair<std::__ndk1::basic_string<char, std::__ndk1::char_traits<char>, std::__ndk1::allocator<char> >, short>*, std::__ndk1::pair<std::__ndk1::basic_string<char, std::__ndk1::char_traits<char>, std::__ndk1::allocator<char> >, short>*, NamedIDsPopup::updateList(NID)::$_0&)
PUBLIC a9e10 0 fts::fuzzy_internal::fuzzy_match_recursive(char const*, char const*, int&, char const*, unsigned char const*, unsigned char*, int, int, int&, int)
PUBLIC aa2cc 0 geode::Popup<>::initBase(float, float, char const*, cocos2d::CCRect, bool)
PUBLIC aa5d0 0 std::__ndk1::__function::__func<NamedIDsPopup::setup()::$_0, std::__ndk1::allocator<NamedIDsPopup::setup()::$_0>, void (std::__ndk1::basic_string<char, std::__ndk1::char_traits<char>, std::__ndk1::allocator<char> > const&)>::~__func()
PUBLIC aa5d4 0 std::__ndk1::__function::__func<NamedIDsPopup::setup()::$_0, std::__ndk1::allocator<NamedIDsPopup::setup()::$_0>, void (std::__ndk1::basic_string<char, std::__ndk1::char_traits<char>, std::__ndk1::allocator<char> > const&)>::__clone() const
PUBLIC aa608 0 std::__ndk1::__function::__func<NamedIDsPopup::setup()::$_0, std::__ndk1::allocator<NamedIDsPopup::setup()::$_0>, void (std::__ndk1::basic_string<char, std::__ndk1::char_traits<char>, std::__ndk1::allocator<char> > const&)>::__clone(std::__ndk1::__function::__base<void (std::__ndk1::basic_string<char, std::__ndk1::char_traits<char>, std::__ndk1::allocator<char> > const&)>*) const
PUBLIC aa61c 0 std::__ndk1::__function::__func<NamedIDsPopup::setup()::$_0, std::__ndk1::allocator<NamedIDsPopup::setup()::$_0>, void (std::__ndk1::basic_string<char, std::__ndk1::char_traits<char>, std::__ndk1::allocator<char> > const&)>::destroy()
PUBLIC aa620 0 std::__ndk1::__function::__func<NamedIDsPopup::setup()::$_0, std::__ndk1::allocator<NamedIDsPopup::setup()::$_0>, void (std::__ndk1::basic_string<char, std::__ndk1::char_traits<char>, std::__ndk1::allocator<char> > const&)>::destroy_deallocate()
PUBLIC aa624 0 std::__ndk1::__function::__func<NamedIDsPopup::setup()::$_0, std::__ndk1::allocator<NamedIDsPopup::setup()::$_0>, void (std::__ndk1::basic_string<char, std::__ndk1::char_traits<char>, std::__ndk1::allocator<char> > const&)>::operator()(std::__ndk1::basic_string<char, std::__ndk1::char_traits<char>, std::__ndk1::allocator<char> > const&)
PUBLIC aa64c 0 std::__ndk1::__function::__func<NamedIDsPopup::setup()::$_0, std::__ndk1::allocator<NamedIDsPopup::setup()::$_0>, void (std::__ndk1::basic_string<char, std::__ndk1::char_traits<char>, std::__ndk1::allocator<char> > const&)>::target(std::type_info const&) const
PUBLIC aa668 0 std::__ndk1::__function::__func<NamedIDsPopup::setup()::$_0, std::__ndk1::allocator<NamedIDsPopup::setup()::$_0>, void (std::__ndk1::basic_string<char, std::__ndk1::char_traits<char>, std::__ndk1::allocator<char> > const&)>::target_type() const
PUBLIC aa674 0 std::__ndk1::__function::__base<void (NID)>::~__base()
PUBLIC aa678 0 std::__ndk1::__function::__func<NamedIDsPopup::onFilterButton(cocos2d::CCObject*)::$_0, std::__ndk1::allocator<NamedIDsPopup::onFilterButton(cocos2d::CCObject*)::$_0>, void (NID)>::~__func()
PUBLIC aa67c 0 std::__ndk1::__function::__func<NamedIDsPopup::onFilterButton(cocos2d::CCObject*)::$_0, std::__ndk1::allocator<NamedIDsPopup::onFilterButton(cocos2d::CCObject*)::$_0>, void (NID)>::__clone() const
PUBLIC aa6b0 0 std::__ndk1::__function::__func<NamedIDsPopup::onFilterButton(cocos2d::CCObject*)::$_0, std::__ndk1::allocator<NamedIDsPopup::onFilterButton(cocos2d::CCObject*)::$_0>, void (NID)>::__clone(std::__ndk1::__function::__base<void (NID)>*) const
PUBLIC aa6c4 0 std::__ndk1::__function::__func<NamedIDsPopup::onFilterButton(cocos2d::CCObject*)::$_0, std::__ndk1::allocator<NamedIDsPopup::onFilterButton(cocos2d::CCObject*)::$_0>, void (NID)>::destroy()
PUBLIC aa6c8 0 std::__ndk1::__function::__func<NamedIDsPopup::onFilterButton(cocos2d::CCObject*)::$_0, std::__ndk1::allocator<NamedIDsPopup::onFilterButton(cocos2d::CCObject*)::$_0>, void (NID)>::destroy_deallocate()
PUBLIC aa6cc 0 std::__ndk1::__function::__func<NamedIDsPopup::onFilterButton(cocos2d::CCObject*)::$_0, std::__ndk1::allocator<NamedIDsPopup::onFilterButton(cocos2d::CCObject*)::$_0>, void (NID)>::operator()(NID&&)
PUBLIC aa81c 0 std::__ndk1::__function::__func<NamedIDsPopup::onFilterButton(cocos2d::CCObject*)::$_0, std::__ndk1::allocator<NamedIDsPopup::onFilterButton(cocos2d::CCObject*)::$_0>, void (NID)>::target(std::type_info const&) const
PUBLIC aa838 0 std::__ndk1::__function::__func<NamedIDsPopup::onFilterButton(cocos2d::CCObject*)::$_0, std::__ndk1::allocator<NamedIDsPopup::onFilterButton(cocos2d::CCObject*)::$_0>, void (NID)>::target_type() const
PUBLIC aa844 0 std::__ndk1::__function::__base<void (std::__ndk1::basic_string<char, std::__ndk1::char_traits<char>, std::__ndk1::allocator<char> > const&, short)>::~__base()
PUBLIC aa848 0 std::__ndk1::__function::__func<NamedIDsPopup::onAddButton(cocos2d::CCObject*)::$_0, std::__ndk1::allocator<NamedIDsPopup::onAddButton(cocos2d::CCObject*)::$_0>, void (std::__ndk1::basic_string<char, std::__ndk1::char_traits<char>, std::__ndk1::allocator<char> > const&, short)>::~__func()
PUBLIC aa84c 0 std::__ndk1::__function::__func<NamedIDsPopup::onAddButton(cocos2d::CCObject*)::$_0, std::__ndk1::allocator<NamedIDsPopup::onAddButton(cocos2d::CCObject*)::$_0>, void (std::__ndk1::basic_string<char, std::__ndk1::char_traits<char>, std::__ndk1::allocator<char> > const&, short)>::__clone() const
PUBLIC aa880 0 std::__ndk1::__function::__func<NamedIDsPopup::onAddButton(cocos2d::CCObject*)::$_0, std::__ndk1::allocator<NamedIDsPopup::onAddButton(cocos2d::CCObject*)::$_0>, void (std::__ndk1::basic_string<char, std::__ndk1::char_traits<char>, std::__ndk1::allocator<char> > const&, short)>::__clone(std::__ndk1::__function::__base<void (std::__ndk1::basic_string<char, std::__ndk1::char_traits<char>, std::__ndk1::allocator<char> > const&, short)>*) const
PUBLIC aa894 0 std::__ndk1::__function::__func<NamedIDsPopup::onAddButton(cocos2d::CCObject*)::$_0, std::__ndk1::allocator<NamedIDsPopup::onAddButton(cocos2d::CCObject*)::$_0>, void (std::__ndk1::basic_string<char, std::__ndk1::char_traits<char>, std::__ndk1::allocator<char> > const&, short)>::destroy()
PUBLIC aa898 0 std::__ndk1::__function::__func<NamedIDsPopup::onAddButton(cocos2d::CCObject*)::$_0, std::__ndk1::allocator<NamedIDsPopup::onAddButton(cocos2d::CCObject*)::$_0>, void (std::__ndk1::basic_string<char, std::__ndk1::char_traits<char>, std::__ndk1::allocator<char> > const&, short)>::destroy_deallocate()
PUBLIC aa89c 0 std::__ndk1::__function::__func<NamedIDsPopup::onAddButton(cocos2d::CCObject*)::$_0, std::__ndk1::allocator<NamedIDsPopup::onAddButton(cocos2d::CCObject*)::$_0>, void (std::__ndk1::basic_string<char, std::__ndk1::char_traits<char>, std::__ndk1::allocator<char> > const&, short)>::operator()(std::__ndk1::basic_string<char, std::__ndk1::char_traits<char>, std::__ndk1::allocator<char> > const&, short&&)
PUBLIC aa8a4 0 std::__ndk1::__function::__func<NamedIDsPopup::onAddButton(cocos2d::CCObject*)::$_0, std::__ndk1::allocator<NamedIDsPopup::onAddButton(cocos2d::CCObject*)::$_0>, void (std::__ndk1::basic_string<char, std::__ndk1::char_traits<char>, std::__ndk1::allocator<char> > const&, short)>::target(std::type_info const&) const
PUBLIC aa8c0 0 std::__ndk1::__function::__func<NamedIDsPopup::onAddButton(cocos2d::CCObject*)::$_0, std::__ndk1::allocator<NamedIDsPopup::onAddButton(cocos2d::CCObject*)::$_0>, void (std::__ndk1::basic_string<char, std::__ndk1::char_traits<char>, std::__ndk1::allocator<char> > const&, short)>::target_type() const
PUBLIC aa8cc 0 geode::Popup<>::CloseEvent::~CloseEvent()
PUBLIC aa92c 0 geode::Popup<>::CloseEvent::~CloseEvent()
PUBLIC aa99c 0 std::__ndk1::__shared_ptr_emplace<geode::Popup<>::CloseEvent::Impl, std::__ndk1::allocator<geode::Popup<>::CloseEvent::Impl> >::~__shared_ptr_emplace()
PUBLIC aa9ac 0 std::__ndk1::__shared_ptr_emplace<geode::Popup<>::CloseEvent::Impl, std::__ndk1::allocator<geode::Popup<>::CloseEvent::Impl> >::~__shared_ptr_emplace()
PUBLIC aa9dc 0 std::__ndk1::__shared_ptr_emplace<geode::Popup<>::CloseEvent::Impl, std::__ndk1::allocator<geode::Popup<>::CloseEvent::Impl> >::__on_zero_shared()
PUBLIC aa9e0 0 std::__ndk1::__shared_ptr_emplace<geode::Popup<>::CloseEvent::Impl, std::__ndk1::allocator<geode::Popup<>::CloseEvent::Impl> >::__on_zero_shared_weak()
PUBLIC aa9e4 0 SelectIDFilterPopup::create(NID, std::__ndk1::function<void (NID)>&&)
PUBLIC aab28 0 SelectIDFilterPopup::setup(NID, std::__ndk1::function<void (NID)>&&)
PUBLIC ab070 0 SelectIDFilterPopup::onToggleButton(cocos2d::CCObject*)
PUBLIC ab1d0 0 geode::cocos::CCArrayExt<cocos2d::CCMenu*, cocos2d::CCMenu>::~CCArrayExt()
PUBLIC ab1ec 0 SelectIDFilterPopup::~SelectIDFilterPopup()
PUBLIC ab2c4 0 SelectIDFilterPopup::~SelectIDFilterPopup()
PUBLIC ab3a4 0 geode::Popup<NID, std::__ndk1::function<void (NID)>&&>::registerWithTouchDispatcher()
PUBLIC ab3d0 0 geode::Popup<NID, std::__ndk1::function<void (NID)>&&>::keyDown(cocos2d::enumKeyCodes)
PUBLIC ab3f8 0 geode::Popup<NID, std::__ndk1::function<void (NID)>&&>::onClose(cocos2d::CCObject*)
PUBLIC ab52c 0 {virtual override thunk({offset(-320)}, SelectIDFilterPopup::~SelectIDFilterPopup())}
PUBLIC ab608 0 {virtual override thunk({offset(-320)}, SelectIDFilterPopup::~SelectIDFilterPopup())}
PUBLIC ab6ec 0 {virtual override thunk({offset(-344)}, geode::Popup<NID, std::__ndk1::function<void (NID)>&&>::keyDown(cocos2d::enumKeyCodes))}
PUBLIC ab718 0 geode::Popup<NID, std::__ndk1::function<void (NID)>&&>::~Popup()
PUBLIC ab784 0 geode::Popup<NID, std::__ndk1::function<void (NID)>&&>::~Popup()
PUBLIC ab788 0 {virtual override thunk({offset(-320)}, geode::Popup<NID, std::__ndk1::function<void (NID)>&&>::~Popup())}
PUBLIC ab7f4 0 {virtual override thunk({offset(-320)}, geode::Popup<NID, std::__ndk1::function<void (NID)>&&>::~Popup())}
PUBLIC ab7f8 0 geode::Popup<NID, std::__ndk1::function<void (NID)>&&>::initBase(float, float, NID, std::__ndk1::function<void (NID)>&&, char const*, cocos2d::CCRect, bool)
PUBLIC abaf8 0 geode::Popup<NID, std::__ndk1::function<void (NID)>&&>::CloseEvent::~CloseEvent()
PUBLIC abb58 0 geode::Popup<NID, std::__ndk1::function<void (NID)>&&>::CloseEvent::~CloseEvent()
PUBLIC abbc8 0 std::__ndk1::__shared_ptr_emplace<geode::Popup<NID, std::__ndk1::function<void (NID)>&&>::CloseEvent::Impl, std::__ndk1::allocator<geode::Popup<NID, std::__ndk1::function<void (NID)>&&>::CloseEvent::Impl> >::~__shared_ptr_emplace()
PUBLIC abbd8 0 std::__ndk1::__shared_ptr_emplace<geode::Popup<NID, std::__ndk1::function<void (NID)>&&>::CloseEvent::Impl, std::__ndk1::allocator<geode::Popup<NID, std::__ndk1::function<void (NID)>&&>::CloseEvent::Impl> >::~__shared_ptr_emplace()
PUBLIC abc08 0 std::__ndk1::__shared_ptr_emplace<geode::Popup<NID, std::__ndk1::function<void (NID)>&&>::CloseEvent::Impl, std::__ndk1::allocator<geode::Popup<NID, std::__ndk1::function<void (NID)>&&>::CloseEvent::Impl> >::__on_zero_shared()
PUBLIC abc0c 0 std::__ndk1::__shared_ptr_emplace<geode::Popup<NID, std::__ndk1::function<void (NID)>&&>::CloseEvent::Impl, std::__ndk1::allocator<geode::Popup<NID, std::__ndk1::function<void (NID)>&&>::CloseEvent::Impl> >::__on_zero_shared_weak()
PUBLIC abc10 0 NamedIDItem::create(NID, short, std::__ndk1::basic_string<char, std::__ndk1::char_traits<char>, std::__ndk1::allocator<char> >&&, float)
PUBLIC abd14 0 NamedIDItem::init(NID, short, std::__ndk1::basic_string<char, std::__ndk1::char_traits<char>, std::__ndk1::allocator<char> >&&, float)
PUBLIC ac3b0 0 NamedIDItem::onEditButton(cocos2d::CCObject*)
PUBLIC acb5c 0 NamedIDItem::onClearButton(cocos2d::CCObject*)
PUBLIC acbf4 0 NamedIDItem::setDefaultBGColor(cocos2d::_ccColor4B const&)
PUBLIC acc74 0 NamedIDItem::~NamedIDItem()
PUBLIC accbc 0 NamedIDItem::~NamedIDItem()
PUBLIC acd08 0 __cxx_global_var_init
PUBLIC afbf8 0 _GLOBAL__sub_I_utils.cpp
PUBLIC afbfc 0 ng::utils::sanitizeName(std::__ndk1::basic_string_view<char, std::__ndk1::char_traits<char> >)
PUBLIC afd38 0 ng::utils::cocos::createNotificationToast(cocos2d::CCLayer*, std::__ndk1::basic_string<char, std::__ndk1::char_traits<char>, std::__ndk1::allocator<char> > const&, float, float)
PUBLIC afe40 0 ng::utils::cocos::getChildByPredicate(cocos2d::CCNode*, std::__ndk1::function<bool (cocos2d::CCNode*)>&&)
PUBLIC aff74 0 ng::utils::cocos::fixTouchPriority(cocos2d::CCTouchDelegate*)
PUBLIC affa0 0 ng::utils::editor::refreshObjectLabels(bool)
PUBLIC b0208 0 geode::getMod()
PUBLIC m b0244 0 geodeImplicitEntry
PUBLIC b0280 0 std::__ndk1::unordered_map<void*, bool, std::__ndk1::hash<void*>, std::__ndk1::equal_to<void*>, std::__ndk1::allocator<std::__ndk1::pair<void* const, bool> > >::~unordered_map[abi:ne190000]()
PUBLIC b02cc 0 wrapFunction(unsigned long, tulip::hook::WrapperMetadata const&)
PUBLIC b0400 0 geode::impl::ResultData<void*, std::__ndk1::basic_string<char, std::__ndk1::char_traits<char>, std::__ndk1::allocator<char> > >::unwrapErr() &
PUBLIC b0478 0 geode::impl::ResultData<void*, std::__ndk1::basic_string<char, std::__ndk1::char_traits<char>, std::__ndk1::allocator<char> > >::~ResultData()
PUBLIC b04ec 0 tulip::hook::WrapperMetadata::~WrapperMetadata()
PUBLIC b0550 0 cocos2d::CCObject::~CCObject()
PUBLIC b0574 0 cocos2d::CCNode::CCNode()
PUBLIC b07d0 0 cocos2d::CCNode::~CCNode()
PUBLIC b07f4 0 cocos2d::CCNodeRGBA::~CCNodeRGBA()
PUBLIC b0818 0 {virtual override thunk({offset(-320)}, cocos2d::CCLayer::~CCLayer())}
PUBLIC b0820 0 cocos2d::CCLayer::~CCLayer()
PUBLIC b0844 0 {virtual override thunk({offset(-320)}, cocos2d::CCLayer::~CCLayer())}
PUBLIC b086c 0 cocos2d::CCLayerRGBA::~CCLayerRGBA()
PUBLIC b0b6c 0 {virtual override thunk({offset(-320)}, cocos2d::CCLayerRGBA::~CCLayerRGBA())}
PUBLIC b0b74 0 cocos2d::CCLayerRGBA::~CCLayerRGBA()
PUBLIC b0b98 0 {virtual override thunk({offset(-320)}, cocos2d::CCLayerRGBA::~CCLayerRGBA())}
PUBLIC b0bc0 0 cocos2d::CCLayerColor::CCLayerColor()
PUBLIC b0e24 0 {virtual override thunk({offset(-320)}, cocos2d::CCLayerColor::~CCLayerColor())}
PUBLIC b0e2c 0 cocos2d::CCLayerColor::~CCLayerColor()
PUBLIC b0e50 0 {virtual override thunk({offset(-320)}, cocos2d::CCLayerColor::~CCLayerColor())}
PUBLIC b0e78 0 cocos2d::CCSprite::~CCSprite()
PUBLIC b0e9c 0 cocos2d::ZipUtils::base64URLDecode(gd::string const&)
PUBLIC b1010 0 FLAlertLayer::FLAlertLayer()
PUBLIC b10ac 0 {virtual override thunk({offset(-320)}, FLAlertLayer::~FLAlertLayer())}
PUBLIC b10b4 0 FLAlertLayer::~FLAlertLayer()
PUBLIC b10d8 0 {virtual override thunk({offset(-320)}, FLAlertLayer::~FLAlertLayer())}
PUBLIC b1100 0 FLAlertLayer::create(FLAlertLayerProtocol*, char const*, gd::string, char const*, char const*, float)
PUBLIC b12b8 0 tulip::hook::AbstractFunction::from<FLAlertLayer*, FLAlertLayerProtocol*, char const*, gd::string, char const*, char const*, float>(FLAlertLayer* (*)(FLAlertLayerProtocol*, char const*, gd::string, char const*, char const*, float))
PUBLIC b1688 0 cocos2d::CCNodeRGBA::~CCNodeRGBA()
PUBLIC b1940 0 GameObject::update(float)
PUBLIC b1944 0 GameObject::firstSetup()
PUBLIC b1948 0 GameObject::setupCustomSprites(gd::string)
PUBLIC b1aac 0 tulip::hook::AbstractFunction::from<void, GameObject*, gd::string>(void (*)(GameObject*, gd::string))
PUBLIC b1b4c 0 GameObject::triggerObject(GJBaseGameLayer*, int, gd::vector<int> const*)
PUBLIC b1b50 0 GameObject::customObjectSetup(gd::vector<gd::string>&, gd::vector<void*>&)
PUBLIC b1b54 0 GameObject::particleWasActivated()
PUBLIC b1b58 0 GameObject::triggerActivated(float)
PUBLIC b1b5c 0 GameObject::animationTriggered()
PUBLIC b1b60 0 GameObject::activatedByPlayer(PlayerObject*)
PUBLIC b1b64 0 GameObject::hasBeenActivatedByPlayer(PlayerObject*)
PUBLIC b1b6c 0 GameObject::hasBeenActivated()
PUBLIC b1b74 0 GameObject::canAllowMultiActivate()
PUBLIC b1b7c 0 GameObject::blendModeChanged()
PUBLIC b1b80 0 GameObject::updateMainParticleOpacity(unsigned char)
PUBLIC b1b84 0 GameObject::updateSecondaryParticleOpacity(unsigned char)
PUBLIC b1b88 0 GameObject::canReverse()
PUBLIC b1b90 0 GameObject::isSpecialSpawnObject()
PUBLIC b1b98 0 GameObject::canBeOrdered()
PUBLIC b1ba0 0 GameObject::getObjectLabel()
PUBLIC b1ba8 0 GameObject::setObjectLabel(cocos2d::CCLabelBMFont*)
PUBLIC b1bac 0 GameObject::shouldDrawEditorHitbox()
PUBLIC b1bb4 0 GameObject::getHasSyncedAnimation()
PUBLIC b1bbc 0 GameObject::getHasRotateAction()
PUBLIC b1bc4 0 GameObject::canMultiActivate(bool)
PUBLIC b1bcc 0 GameObject::updateTextKerning(int)
PUBLIC b1bd0 0 GameObject::getTextKerning()
PUBLIC b1bd8 0 CCMenuItemSpriteExtra::create(cocos2d::CCNode*, cocos2d::CCObject*, void (cocos2d::CCObject::*)(cocos2d::CCObject*))
PUBLIC b1bec 0 tulip::hook::AbstractFunction::from<void, CCTextInputNode*, gd::string>(void (*)(CCTextInputNode*, gd::string))
PUBLIC b1c8c 0 CCTextInputNode::setDelegate(TextInputDelegate*)
PUBLIC b1c94 0 CCTextInputNode::setString(gd::string)
PUBLIC b1e0c 0 SetupTriggerPopup::createValueControlAdvanced(int, gd::string, cocos2d::CCPoint, float, bool, InputValueType, int, bool, float, float, int, int, GJInputStyle, int, bool)
PUBLIC b2028 0 tulip::hook::AbstractFunction::from<cocos2d::CCArray*, SetupTriggerPopup*, int, gd::string, cocos2d::CCPoint, float, bool, InputValueType, int, bool, float, float, int, int, GJInputStyle, int, bool>(cocos2d::CCArray* (*)(SetupTriggerPopup*, int, gd::string, cocos2d::CCPoint, float, bool, InputValueType, int, bool, float, float, int, int, GJInputStyle, int, bool))
PUBLIC b2b54 0 cocos2d::CCSprite::~CCSprite()
PUBLIC b2e14 0 LevelEditorLayer::get()
PUBLIC b2e2c 0 LevelEditorLayer::createObjectsFromSetup(gd::string&)
PUBLIC b2f7c 0 tulip::hook::AbstractFunction::from<void, LevelEditorLayer*, gd::string&>(void (*)(LevelEditorLayer*, gd::string&))
PUBLIC b3024 0 TextAlertPopup::create(gd::string, float, float, int, gd::string)
PUBLIC b31e8 0 tulip::hook::AbstractFunction::from<TextAlertPopup*, gd::string, float, float, int, gd::string>(TextAlertPopup* (*)(gd::string, float, float, int, gd::string))
PUBLIC b34fc 0 TextGameObject::updateTextObject(gd::string, bool)
PUBLIC b3684 0 tulip::hook::AbstractFunction::from<void, TextGameObject*, gd::string, bool>(void (*)(TextGameObject*, gd::string, bool))
PUBLIC b3788 0 cocos2d::CCObject::update(float)
PUBLIC b378c 0 cocos2d::CCNodeRGBA::setOpacityModifyRGB(bool)
PUBLIC b3790 0 cocos2d::CCNodeRGBA::isOpacityModifyRGB()
PUBLIC b3798 0 {virtual override thunk({offset(-320)}, cocos2d::CCNodeRGBA::setOpacityModifyRGB(bool))}
PUBLIC b379c 0 {virtual override thunk({offset(-320)}, cocos2d::CCNodeRGBA::isOpacityModifyRGB())}
PUBLIC b37a4 0 cocos2d::CCSprite::setBlendFunc(cocos2d::_ccBlendFunc)
PUBLIC b37b0 0 cocos2d::CCSprite::getBlendFunc()
PUBLIC b37bc 0 cocos2d::CCSprite::isDirty()
PUBLIC b37c4 0 cocos2d::CCSprite::setDirty(bool)
PUBLIC b37cc 0 {virtual override thunk({offset(-344)}, cocos2d::CCSprite::setBlendFunc(cocos2d::_ccBlendFunc))}
PUBLIC b37d4 0 {virtual override thunk({offset(-344)}, cocos2d::CCSprite::getBlendFunc())}
PUBLIC b37dc 0 GameObject::~GameObject()
PUBLIC b3828 0 GameObject::~GameObject()
PUBLIC b386c 0 cocos2d::CCLayerColor::~CCLayerColor()
PUBLIC b3b50 0 cocos2d::CCLayer::~CCLayer()
PUBLIC b3e40 0 cocos2d::CCNode::~CCNode()
PUBLIC b40e0 0 FLAlertLayer::~FLAlertLayer()
PUBLIC b43c4 0 cocos2d::CCObject::~CCObject()
PUBLIC b48b8 0 _ZN5geode15UnwrapExceptionC2IRPvQsr4implE18IsStringStreamableIT_EEENS_4impl5OkTagEOS4_
PUBLIC b4a0c 0 std::__ndk1::__variant_detail::__visitation::__base::__dispatcher<(unsigned long)0>::__dispatch[abi:ne190000]<std::__ndk1::__variant_detail::__dtor<std::__ndk1::__variant_detail::__traits<void*, std::__ndk1::basic_string<char, std::__ndk1::char_traits<char>, std::__ndk1::allocator<char> > >, (std::__ndk1::__variant_detail::_Trait)1>::__destroy[abi:ne190000]()::{lambda(auto:1&)#1}, std::__ndk1::__variant_detail::__base<(std::__ndk1::__variant_detail::__traits<void*, std::__ndk1::basic_string<char, std::__ndk1::char_traits<char>, std::__ndk1::allocator<char> > >)1, std::__ndk1::__variant_detail::__traits, std::__ndk1::allocator<char> >&>(std::__ndk1::__variant_detail::__dtor<std::__ndk1::__variant_detail::__traits<void*, std::__ndk1::basic_string<char, std::__ndk1::char_traits<char>, std::__ndk1::allocator<char> > >, (std::__ndk1::__variant_detail::_Trait)1>, std::__ndk1::__variant_detail::__base<(std::__ndk1::__variant_detail::__traits<void*, std::__ndk1::basic_string<char, std::__ndk1::char_traits<char>, std::__ndk1::allocator<char> > >)1, std::__ndk1::__variant_detail::__traits, std::__ndk1::allocator<char> >&)
PUBLIC b4a10 0 std::__ndk1::__variant_detail::__visitation::__base::__dispatcher<(unsigned long)1>::__dispatch[abi:ne190000]<std::__ndk1::__variant_detail::__dtor<std::__ndk1::__variant_detail::__traits<void*, std::__ndk1::basic_string<char, std::__ndk1::char_traits<char>, std::__ndk1::allocator<char> > >, (std::__ndk1::__variant_detail::_Trait)1>::__destroy[abi:ne190000]()::{lambda(auto:1&)#1}, std::__ndk1::__variant_detail::__base<(std::__ndk1::__variant_detail::__traits<void*, std::__ndk1::basic_string<char, std::__ndk1::char_traits<char>, std::__ndk1::allocator<char> > >)1, std::__ndk1::__variant_detail::__traits, std::__ndk1::allocator<char> >&>(std::__ndk1::__variant_detail::__dtor<std::__ndk1::__variant_detail::__traits<void*, std::__ndk1::basic_string<char, std::__ndk1::char_traits<char>, std::__ndk1::allocator<char> > >, (std::__ndk1::__variant_detail::_Trait)1>, std::__ndk1::__variant_detail::__base<(std::__ndk1::__variant_detail::__traits<void*, std::__ndk1::basic_string<char, std::__ndk1::char_traits<char>, std::__ndk1::allocator<char> > >)1, std::__ndk1::__variant_detail::__traits, std::__ndk1::allocator<char> >&)
PUBLIC b4a24 0 std::__ndk1::__hash_table<std::__ndk1::__hash_value_type<void*, bool>, std::__ndk1::__unordered_map_hasher<void*, std::__ndk1::__hash_value_type<void*, bool>, std::__ndk1::hash<void*>, std::__ndk1::equal_to<void*>, true>, std::__ndk1::__unordered_map_equal<void*, std::__ndk1::__hash_value_type<void*, bool>, std::__ndk1::equal_to<void*>, std::__ndk1::hash<void*>, true>, std::__ndk1::allocator<std::__ndk1::__hash_value_type<void*, bool> > >::__emplace_unique_key_args<void*, std::__ndk1::piecewise_construct_t const&, std::__ndk1::tuple<void* const&>, std::__ndk1::tuple<> >(void* const&, std::__ndk1::piecewise_construct_t const&, std::__ndk1::tuple<void* const&>, std::__ndk1::tuple<>)
PUBLIC b4f30 0 __udivti3
PUBLIC b4f3c 0 __udivmodti4
PUBLIC m b5188 0 __eqtf2
PUBLIC b5228 0 __unordtf2
PUBLIC b5260 0 fmt::v11::detail::write_loc(fmt::v11::basic_appender<char>, fmt::v11::loc_value, fmt::v11::format_specs const&, fmt::v11::detail::locale_ref)
PUBLIC b54f4 0 fmt::v11::format_facet<std::__ndk1::locale>::~format_facet()
PUBLIC b5570 0 fmt::v11::report_error(char const*)
PUBLIC b55c0 0 fmt::v11::format_error::runtime_error(char const*)
PUBLIC b55ec 0 fmt::v11::format_facet<std::__ndk1::locale>::do_put(fmt::v11::basic_appender<char>, fmt::v11::loc_value, fmt::v11::format_specs const&) const
PUBLIC b5dac 0 fmt::v11::detail::loc_writer<char>::~loc_writer()
PUBLIC b5e10 0 fmt::v11::vformat(fmt::v11::basic_string_view<char>, fmt::v11::basic_format_args<fmt::v11::context>)
PUBLIC b5f5c 0 fmt::v11::detail::vformat_to<char>(fmt::v11::detail::buffer<char>&, fmt::v11::basic_string_view<char>, fmt::v11::detail::vformat_args<char>::type, fmt::v11::detail::locale_ref)
PUBLIC b64cc 0 fmt::v11::detail::is_printable(unsigned int)
PUBLIC b66f4 0 fmt::v11::detail::dragonbox::to_decimal<float>(float)
PUBLIC b69d0 0 fmt::v11::detail::dragonbox::to_decimal<double>(double)
PUBLIC b6f0c 0 fmt::v11::basic_memory_buffer<char, (unsigned long)500, std::__ndk1::allocator<char> >::grow(fmt::v11::detail::buffer<char>&, unsigned long)
PUBLIC b6f84 0 fmt::v11::format_facet<std::__ndk1::locale>::~format_facet()
PUBLIC b7010 0 fmt::v11::format_error::~format_error()
PUBLIC b7034 0 fmt::v11::detail::copy_noinline<char, char const*, fmt::v11::basic_appender<char> >(char const*, char const*, fmt::v11::basic_appender<char>)
PUBLIC b7184 0 fmt::v11::detail::default_arg_formatter<char>::operator()<bool>(bool)
PUBLIC b71ec 0 fmt::v11::detail::default_arg_formatter<char>::operator()<char>(char)
PUBLIC b727c 0 fmt::v11::detail::default_arg_formatter<char>::operator()<float>(float)
PUBLIC b7368 0 fmt::v11::detail::default_arg_formatter<char>::operator()<double>(double)
PUBLIC b7454 0 fmt::v11::detail::default_arg_formatter<char>::operator()<char const*>(char const*)
PUBLIC b749c 0 fmt::v11::detail::default_arg_formatter<char>::operator()<void const*>(void const*)
PUBLIC b7534 0 _ZN3fmt3v116detail5writeIcNS0_14basic_appenderIcEEiTnNSt6__ndk19enable_ifIXaaaasr11is_integralIT1_EE5valuentsr3std7is_sameIS7_bEE5valuentsr3std7is_sameIS7_T_EE5valueEiE4typeELi0EEET0_SB_S7_
PUBLIC b7794 0 fmt::v11::detail::copy_noinline<char, char*, fmt::v11::basic_appender<char> >(char*, char*, fmt::v11::basic_appender<char>)
PUBLIC b78e4 0 _ZN3fmt3v116detail5writeIcNS0_14basic_appenderIcEEjTnNSt6__ndk19enable_ifIXaaaasr11is_integralIT1_EE5valuentsr3std7is_sameIS7_bEE5valuentsr3std7is_sameIS7_T_EE5valueEiE4typeELi0EEET0_SB_S7_
PUBLIC b7ac4 0 _ZN3fmt3v116detail5writeIcNS0_14basic_appenderIcEExTnNSt6__ndk19enable_ifIXaaaasr11is_integralIT1_EE5valuentsr3std7is_sameIS7_bEE5valuentsr3std7is_sameIS7_T_EE5valueEiE4typeELi0EEET0_SB_S7_
PUBLIC b7d48 0 _ZN3fmt3v116detail5writeIcNS0_14basic_appenderIcEEyTnNSt6__ndk19enable_ifIXaaaasr11is_integralIT1_EE5valuentsr3std7is_sameIS7_bEE5valuentsr3std7is_sameIS7_T_EE5valueEiE4typeELi0EEET0_SB_S7_
PUBLIC b7f50 0 _ZN3fmt3v116detail5writeIcNS0_14basic_appenderIcEEnTnNSt6__ndk19enable_ifIXaaaasr11is_integralIT1_EE5valuentsr3std7is_sameIS7_bEE5valuentsr3std7is_sameIS7_T_EE5valueEiE4typeELi0EEET0_SB_S7_
PUBLIC b82b0 0 _ZN3fmt3v116detail5writeIcNS0_14basic_appenderIcEEoTnNSt6__ndk19enable_ifIXaaaasr11is_integralIT1_EE5valuentsr3std7is_sameIS7_bEE5valuentsr3std7is_sameIS7_T_EE5valueEiE4typeELi0EEET0_SB_S7_
PUBLIC b85c4 0 _ZN3fmt3v116detail5writeIcNS0_14basic_appenderIcEEbTnNSt6__ndk19enable_ifIXsr3std7is_sameIT1_bEE5valueEiE4typeELi0EEET0_SA_S7_RKNS0_12format_specsENS1_10locale_refE
PUBLIC b8878 0 fmt::v11::detail::write_int_noinline<char, fmt::v11::basic_appender<char>, unsigned int>(fmt::v11::basic_appender<char>, fmt::v11::detail::write_int_arg<unsigned int>, fmt::v11::format_specs const&, fmt::v11::detail::locale_ref)
PUBLIC b9644 0 fmt::v11::detail::write_padded<char, (fmt::v11::align::type)1, fmt::v11::basic_appender<char>, fmt::v11::detail::write_char<char, fmt::v11::basic_appender<char> >(fmt::v11::basic_appender<char>, char, fmt::v11::format_specs const&)::{lambda(fmt::v11::basic_appender<char>&)#1}>(fmt::v11::basic_appender<char>, fmt::v11::format_specs const&, unsigned long, unsigned long, fmt::v11::detail::write_char<char, fmt::v11::basic_appender<char> >(fmt::v11::basic_appender<char>, char, fmt::v11::format_specs const&)::{lambda(fmt::v11::basic_appender<char>&)#1})
PUBLIC b98a8 0 fmt::v11::detail::write_padded<char, (fmt::v11::align::type)1, fmt::v11::basic_appender<char>, fmt::v11::detail::write_nonfinite<char, fmt::v11::basic_appender<char> >(fmt::v11::basic_appender<char>, bool, fmt::v11::format_specs, fmt::v11::sign::type)::{lambda(fmt::v11::basic_appender<char>&)#1}>(fmt::v11::basic_appender<char>, fmt::v11::format_specs const&, unsigned long, unsigned long, fmt::v11::detail::write_nonfinite<char, fmt::v11::basic_appender<char> >(fmt::v11::basic_appender<char>, bool, fmt::v11::format_specs, fmt::v11::sign::type)::{lambda(fmt::v11::basic_appender<char>&)#1})
PUBLIC b9b00 0 fmt::v11::detail::do_write_float<char, fmt::v11::basic_appender<char>, fmt::v11::detail::dragonbox::decimal_fp<float>, fmt::v11::detail::digit_grouping<char> >(fmt::v11::basic_appender<char>, fmt::v11::detail::dragonbox::decimal_fp<float> const&, fmt::v11::format_specs const&, fmt::v11::detail::float_specs, fmt::v11::detail::locale_ref)
PUBLIC ba784 0 fmt::v11::detail::do_write_float<char, fmt::v11::basic_appender<char>, fmt::v11::detail::dragonbox::decimal_fp<float>, fmt::v11::detail::digit_grouping<char> >(fmt::v11::basic_appender<char>, fmt::v11::detail::dragonbox::decimal_fp<float> const&, fmt::v11::format_specs const&, fmt::v11::detail::float_specs, fmt::v11::detail::locale_ref)::{lambda(fmt::v11::basic_appender<char>(fmt::v11::basic_appender<char>))#1}::operator() const
PUBLIC ba8d8 0 fmt::v11::detail::digit_grouping<char>::digit_grouping(fmt::v11::detail::locale_ref, bool)
PUBLIC bab40 0 fmt::v11::detail::digit_grouping<char>::~digit_grouping()
PUBLIC bab84 0 fmt::v11::detail::write_exponent<char, fmt::v11::basic_appender<char> >(int, fmt::v11::basic_appender<char>)
PUBLIC bad54 0 _ZN3fmt3v116detail17write_significandIcjTnNSt6__ndk19enable_ifIXsr3std11is_integralIT0_EE5valueEiE4typeELi0EEEPT_S9_S5_iiS8_
PUBLIC baed0 0 fmt::v11::detail::digit_grouping<char>::apply<fmt::v11::basic_appender<char>, char>(fmt::v11::basic_appender<char>, fmt::v11::basic_string_view<char>) const
PUBLIC bb288 0 fmt::v11::basic_memory_buffer<int, (unsigned long)500, std::__ndk1::allocator<int> >::grow(fmt::v11::detail::buffer<int>&, unsigned long)
PUBLIC bb328 0 fmt::v11::detail::do_write_float<char, fmt::v11::basic_appender<char>, fmt::v11::detail::dragonbox::decimal_fp<double>, fmt::v11::detail::digit_grouping<char> >(fmt::v11::basic_appender<char>, fmt::v11::detail::dragonbox::decimal_fp<double> const&, fmt::v11::format_specs const&, fmt::v11::detail::float_specs, fmt::v11::detail::locale_ref)
PUBLIC bbfe4 0 fmt::v11::detail::do_write_float<char, fmt::v11::basic_appender<char>, fmt::v11::detail::dragonbox::decimal_fp<double>, fmt::v11::detail::digit_grouping<char> >(fmt::v11::basic_appender<char>, fmt::v11::detail::dragonbox::decimal_fp<double> const&, fmt::v11::format_specs const&, fmt::v11::detail::float_specs, fmt::v11::detail::locale_ref)::{lambda(fmt::v11::basic_appender<char>(fmt::v11::basic_appender<char>))#1}::operator() const
PUBLIC bc13c 0 _ZN3fmt3v116detail17write_significandIcmTnNSt6__ndk19enable_ifIXsr3std11is_integralIT0_EE5valueEiE4typeELi0EEEPT_S9_S5_iiS8_
PUBLIC bc2cc 0 fmt::v11::detail::write_float<char, fmt::v11::basic_appender<char>, long double>(fmt::v11::basic_appender<char>, long double, fmt::v11::format_specs, fmt::v11::detail::locale_ref)
PUBLIC bcdac 0 fmt::v11::detail::write_padded<char, (fmt::v11::align::type)2, fmt::v11::basic_appender<char>, fmt::v11::detail::write_bytes<char, (fmt::v11::align::type)2, fmt::v11::basic_appender<char> >(fmt::v11::basic_appender<char>, fmt::v11::basic_string_view<char>, fmt::v11::format_specs const&)::{lambda(fmt::v11::basic_appender<char>&)#1}>(fmt::v11::basic_appender<char>, fmt::v11::format_specs const&, unsigned long, unsigned long, fmt::v11::detail::write_bytes<char, (fmt::v11::align::type)2, fmt::v11::basic_appender<char> >(fmt::v11::basic_appender<char>, fmt::v11::basic_string_view<char>, fmt::v11::format_specs const&)::{lambda(fmt::v11::basic_appender<char>&)#1})
PUBLIC bcfa0 0 fmt::v11::detail::format_dragon(fmt::v11::detail::basic_fp<unsigned __int128>, unsigned int, int, fmt::v11::detail::buffer<char>&, int&)
PUBLIC be3c4 0 fmt::v11::detail::bigint::operator<<=(int)
PUBLIC be4e8 0 fmt::v11::detail::bigint::assign_pow10(int)
PUBLIC bec44 0 fmt::v11::detail::bigint::divmod_assign(fmt::v11::detail::bigint const&)
PUBLIC bef68 0 fmt::v11::basic_memory_buffer<unsigned int, (unsigned long)32, std::__ndk1::allocator<unsigned int> >::grow(fmt::v11::detail::buffer<unsigned int>&, unsigned long)
PUBLIC bf008 0 fmt::v11::detail::do_write_float<char, fmt::v11::basic_appender<char>, fmt::v11::detail::big_decimal_fp, fmt::v11::detail::digit_grouping<char> >(fmt::v11::basic_appender<char>, fmt::v11::detail::big_decimal_fp const&, fmt::v11::format_specs const&, fmt::v11::detail::float_specs, fmt::v11::detail::locale_ref)
PUBLIC bfee4 0 fmt::v11::detail::do_write_float<char, fmt::v11::basic_appender<char>, fmt::v11::detail::big_decimal_fp, fmt::v11::detail::digit_grouping<char> >(fmt::v11::basic_appender<char>, fmt::v11::detail::big_decimal_fp const&, fmt::v11::format_specs const&, fmt::v11::detail::float_specs, fmt::v11::detail::locale_ref)::{lambda(fmt::v11::basic_appender<char>(fmt::v11::basic_appender<char>))#1}::operator() const
PUBLIC c0044 0 fmt::v11::detail::write_padded<char, (fmt::v11::align::type)2, fmt::v11::basic_appender<char>, fmt::v11::detail::write_ptr<char, fmt::v11::basic_appender<char>, unsigned long>(fmt::v11::basic_appender<char>, unsigned long, fmt::v11::format_specs const*)::{lambda(fmt::v11::basic_appender<char>&)#1}>(fmt::v11::basic_appender<char>, fmt::v11::format_specs const&, unsigned long, unsigned long, fmt::v11::detail::write_ptr<char, fmt::v11::basic_appender<char>, unsigned long>(fmt::v11::basic_appender<char>, unsigned long, fmt::v11::format_specs const*)::{lambda(fmt::v11::basic_appender<char>&)#1})
PUBLIC c0258 0 fmt::v11::detail::parse_replacement_field<char, fmt::v11::detail::vformat_to<char>(fmt::v11::detail::buffer<char>&, fmt::v11::basic_string_view<char>, fmt::v11::detail::vformat_args<char>::type, fmt::v11::detail::locale_ref)::format_handler&>(char const*, char const*, fmt::v11::detail::vformat_to<char>(fmt::v11::detail::buffer<char>&, fmt::v11::basic_string_view<char>, fmt::v11::detail::vformat_args<char>::type, fmt::v11::detail::locale_ref)::format_handler&)
PUBLIC c16e8 0 fmt::v11::detail::write_int_noinline<char, fmt::v11::basic_appender<char>, unsigned long>(fmt::v11::basic_appender<char>, fmt::v11::detail::write_int_arg<unsigned long>, fmt::v11::format_specs const&, fmt::v11::detail::locale_ref)
PUBLIC c2540 0 fmt::v11::detail::write_int_noinline<char, fmt::v11::basic_appender<char>, unsigned __int128>(fmt::v11::basic_appender<char>, fmt::v11::detail::write_int_arg<unsigned __int128>, fmt::v11::format_specs const&, fmt::v11::detail::locale_ref)
PUBLIC c35d0 0 _ZN3fmt3v116detail15format_hexfloatIdTnNSt6__ndk19enable_ifIXntsr16is_double_doubleIT_EE5valueEiE4typeELi0EEEvS5_NS0_12format_specsERNS1_6bufferIcEE
PUBLIC c3af0 0 fmt::v11::detail::format_float<double>(double, int, fmt::v11::detail::float_specs, fmt::v11::detail::buffer<char>&)
PUBLIC c453c 0 fmt::v11::detail::write_int<fmt::v11::basic_appender<char>, unsigned long, char>(fmt::v11::basic_appender<char>, unsigned long, unsigned int, fmt::v11::format_specs const&, fmt::v11::detail::digit_grouping<char> const&)
PUBLIC c4ab8 0 fmt::v11::detail::write_int<fmt::v11::basic_appender<char>, unsigned __int128, char>(fmt::v11::basic_appender<char>, unsigned __int128, unsigned int, fmt::v11::format_specs const&, fmt::v11::detail::digit_grouping<char> const&)
PUBLIC c5140 0 <.plt ELF section in spaghettdev.named-editor-groups.android64.so>
STACK CFI INIT 53f60 10 .cfa: sp 0 +
STACK CFI INIT 53f70 8 .cfa: sp 0 +
STACK CFI INIT 53f78 8 .cfa: sp 0 +
STACK CFI INIT 53f80 14 .cfa: sp 0 +
STACK CFI INIT 53f94 1c .cfa: sp 0 +
STACK CFI INIT 53fb0 10 .cfa: sp 0 +
STACK CFI INIT 53fc0 134 .cfa: sp 0 +
STACK CFI INIT 540f4 84 .cfa: sp 0 +
STACK CFI INIT 54178 f4 .cfa: sp 0 +
STACK CFI INIT 5426c a8 .cfa: sp 0 +
STACK CFI INIT 54314 7c .cfa: sp 0 +
STACK CFI INIT 54390 14 .cfa: sp 0 +
STACK CFI INIT 543a4 40 .cfa: sp 0 +
STACK CFI INIT 543e4 28 .cfa: sp 0 +
STACK CFI INIT 5440c 190 .cfa: sp 0 +
STACK CFI INIT 5459c 2c8 .cfa: sp 0 +
STACK CFI INIT 54864 8 .cfa: sp 0 +
STACK CFI INIT 5486c 8 .cfa: sp 0 +
STACK CFI INIT 54874 44 .cfa: sp 0 +
STACK CFI INIT 548b8 e8 .cfa: sp 0 +
STACK CFI INIT 549a0 e8 .cfa: sp 0 +
STACK CFI INIT 54a88 14 .cfa: sp 0 +
STACK CFI INIT 54a9c 10 .cfa: sp 0 +
STACK CFI INIT 54aac 10 .cfa: sp 0 +
STACK CFI INIT 54abc f0 .cfa: sp 0 +
STACK CFI INIT 54bac 44 .cfa: sp 0 +
STACK CFI INIT 54bf0 c .cfa: sp 0 +
STACK CFI INIT 54bfc c .cfa: sp 0 +
STACK CFI INIT 54c08 2c .cfa: sp 0 +
STACK CFI INIT 54c34 23c .cfa: sp 0 +
STACK CFI INIT 54e70 c .cfa: sp 0 +
STACK CFI INIT 54e7c 120 .cfa: sp 0 +
STACK CFI INIT 54f9c 494 .cfa: sp 0 +
STACK CFI INIT 55430 b78 .cfa: sp 0 +
STACK CFI INIT 55fa8 134 .cfa: sp 0 +
STACK CFI INIT 560dc 210 .cfa: sp 0 +
STACK CFI INIT 562ec 38c .cfa: sp 0 +
STACK CFI INIT 56678 1c8 .cfa: sp 0 +
STACK CFI INIT 56840 9c4 .cfa: sp 0 +
STACK CFI INIT 57204 2d4 .cfa: sp 0 +
STACK CFI INIT 574d8 130 .cfa: sp 0 +
STACK CFI INIT 57608 120 .cfa: sp 0 +
STACK CFI INIT 57728 1c8 .cfa: sp 0 +
STACK CFI INIT 578f0 168 .cfa: sp 0 +
STACK CFI INIT 57a58 fc .cfa: sp 0 +
STACK CFI INIT 57b54 30 .cfa: sp 0 +
STACK CFI INIT 57e4c 10 .cfa: sp 0 +
STACK CFI 57e50 .cfa: sp 16 +
STACK CFI 57e54 .cfa: x29 16 + .ra: .cfa -8 + ^ x29: .cfa -16 + ^
STACK CFI INIT 57e5c 14 .cfa: sp 0 +
STACK CFI 57e60 .cfa: sp 16 +
STACK CFI 57e64 .cfa: x29 16 + .ra: .cfa -8 + ^ x29: .cfa -16 + ^
STACK CFI INIT 57ec0 30 .cfa: sp 0 +
STACK CFI 57ec4 .cfa: sp 32 +
STACK CFI 57ecc .cfa: x29 32 + x19: .cfa -16 + ^ .ra: .cfa -24 + ^ x29: .cfa -32 + ^
STACK CFI 57ee4 .cfa: sp 32 +
STACK CFI 57eec .cfa: sp 0 +
STACK CFI INIT 57ef0 34 .cfa: sp 0 +
STACK CFI 57ef4 .cfa: sp 32 +
STACK CFI 57efc .cfa: x29 32 + x19: .cfa -16 + ^ .ra: .cfa -24 + ^ x29: .cfa -32 + ^
STACK CFI INIT 57f24 ac .cfa: sp 0 +
STACK CFI 57f28 .cfa: sp 64 +
STACK CFI 57f38 .cfa: x29 64 + x19: .cfa -8 + ^ x20: .cfa -16 + ^ x21: .cfa -24 + ^ x22: .cfa -32 + ^ x23: .cfa -48 + ^ .ra: .cfa -56 + ^ x29: .cfa -64 + ^
STACK CFI 57fb4 .cfa: sp 64 +
STACK CFI 57fc4 .cfa: sp 0 +
STACK CFI 57fc8 .cfa: x29 64 +
STACK CFI INIT 57fd0 13c .cfa: sp 0 +
STACK CFI 57fd4 .cfa: sp 64 +
STACK CFI 57fe4 .cfa: x29 64 + x19: .cfa -8 + ^ x20: .cfa -16 + ^ x21: .cfa -24 + ^ x22: .cfa -32 + ^ x23: .cfa -40 + ^ x24: .cfa -48 + ^ .ra: .cfa -56 + ^ x29: .cfa -64 + ^
STACK CFI 580c4 .cfa: sp 64 +
STACK CFI 580d4 .cfa: sp 0 +
STACK CFI 580d8 .cfa: x29 64 +
STACK CFI INIT 5810c 14 .cfa: sp 0 +
STACK CFI INIT 58120 14 .cfa: sp 0 +
STACK CFI INIT 58134 94 .cfa: sp 0 +
STACK CFI 58138 .cfa: sp 48 +
STACK CFI 58144 .cfa: x29 48 + x19: .cfa -8 + ^ x20: .cfa -16 + ^ x21: .cfa -24 + ^ x22: .cfa -32 + ^ .ra: .cfa -40 + ^ x29: .cfa -48 + ^
STACK CFI 5815c .cfa: sp 48 +
STACK CFI 58168 .cfa: sp 0 +
STACK CFI 5816c .cfa: x29 48 +
STACK CFI 581b0 .cfa: sp 48 +
STACK CFI 581bc .cfa: sp 0 +
STACK CFI 581c0 .cfa: x29 48 +
STACK CFI INIT 581c8 98 .cfa: sp 0 +
STACK CFI 581cc .cfa: sp 64 +
STACK CFI 581dc .cfa: x29 48 + x19: .cfa -8 + ^ x20: .cfa -16 + ^ x21: .cfa -32 + ^ .ra: .cfa -40 + ^ x29: .cfa -48 + ^
STACK CFI 58248 .cfa: sp 64 +
STACK CFI 58258 .cfa: sp 0 +
STACK CFI 5825c .cfa: x29 48 +
STACK CFI INIT 58524 6c .cfa: sp 0 +
STACK CFI 58528 .cfa: sp 32 +
STACK CFI 58530 .cfa: x29 32 + x19: .cfa -16 + ^ .ra: .cfa -24 + ^ x29: .cfa -32 + ^
STACK CFI 58584 .cfa: sp 32 +
STACK CFI 5858c .cfa: sp 0 +
STACK CFI INIT 58590 74 .cfa: sp 0 +
STACK CFI 58594 .cfa: sp 32 +
STACK CFI 5859c .cfa: x29 32 + x19: .cfa -16 + ^ .ra: .cfa -24 + ^ x29: .cfa -32 + ^
STACK CFI 585f8 .cfa: sp 32 +
STACK CFI 58600 .cfa: sp 0 +
STACK CFI INIT 58604 4 .cfa: sp 0 +
STACK CFI INIT 58608 4 .cfa: sp 0 +
STACK CFI INIT 5860c 34 .cfa: sp 0 +
STACK CFI 58610 .cfa: sp 32 +
STACK CFI 58618 .cfa: x29 32 + x19: .cfa -16 + ^ .ra: .cfa -24 + ^ x29: .cfa -32 + ^
STACK CFI 58634 .cfa: sp 32 +
STACK CFI 5863c .cfa: sp 0 +
STACK CFI INIT 58640 14 .cfa: sp 0 +
STACK CFI INIT 58654 4 .cfa: sp 0 +
STACK CFI INIT 58658 4 .cfa: sp 0 +
STACK CFI INIT 5865c 18 .cfa: sp 0 +
STACK CFI INIT 58674 1c .cfa: sp 0 +
STACK CFI INIT 58690 c .cfa: sp 0 +
STACK CFI INIT 588f0 44c .cfa: sp 0 +
STACK CFI INIT 59394 50 .cfa: sp 0 +
STACK CFI 593b8 .cfa: sp 32 +
STACK CFI 593c0 .cfa: x29 32 + x19: .cfa -16 + ^ .ra: .cfa -24 + ^ x29: .cfa -32 + ^
STACK CFI 593d4 .cfa: sp 32 +
STACK CFI 593dc .cfa: sp 0 +
STACK CFI INIT 593e4 104 .cfa: sp 0 +
STACK CFI 593e8 .cfa: sp 64 +
STACK CFI 593f8 .cfa: x29 64 + x19: .cfa -8 + ^ x20: .cfa -16 + ^ x21: .cfa -24 + ^ x22: .cfa -32 + ^ x23: .cfa -48 + ^ .ra: .cfa -56 + ^ x29: .cfa -64 + ^
STACK CFI 59454 .cfa: sp 64 +
STACK CFI 59464 .cfa: sp 0 +
STACK CFI 59468 .cfa: x29 64 +
STACK CFI 59484 .cfa: sp 64 +
STACK CFI 59494 .cfa: sp 0 +
STACK CFI 59498 .cfa: x29 64 +
STACK CFI 594d4 .cfa: sp 64 +
STACK CFI 594e4 .cfa: sp 0 +
STACK CFI INIT 594e8 34 .cfa: sp 0 +
STACK CFI 594ec .cfa: sp 16 +
STACK CFI 594f0 .cfa: x29 16 + .ra: .cfa -8 + ^ x29: .cfa -16 + ^
STACK CFI INIT 5951c 24 .cfa: sp 0 +
STACK CFI 59520 .cfa: sp 32 +
STACK CFI 59528 .cfa: x29 32 + x19: .cfa -16 + ^ .ra: .cfa -24 + ^ x29: .cfa -32 + ^
STACK CFI 59534 .cfa: sp 32 +
STACK CFI 5953c .cfa: sp 0 +
STACK CFI INIT 595cc 4 .cfa: sp 0 +
STACK CFI INIT 595d0 14 .cfa: sp 0 +
STACK CFI INIT 595e4 98 .cfa: sp 0 +
STACK CFI 595e8 .cfa: sp 64 +
STACK CFI 595f8 .cfa: x29 48 + x19: .cfa -8 + ^ x20: .cfa -16 + ^ x21: .cfa -32 + ^ .ra: .cfa -40 + ^ x29: .cfa -48 + ^
STACK CFI 59664 .cfa: sp 64 +
STACK CFI 59674 .cfa: sp 0 +
STACK CFI 59678 .cfa: x29 48 +
STACK CFI INIT 59a04 6c .cfa: sp 0 +
STACK CFI 59a08 .cfa: sp 32 +
STACK CFI 59a10 .cfa: x29 32 + x19: .cfa -16 + ^ .ra: .cfa -24 + ^ x29: .cfa -32 + ^
STACK CFI 59a64 .cfa: sp 32 +
STACK CFI 59a6c .cfa: sp 0 +
STACK CFI INIT 59a70 74 .cfa: sp 0 +
STACK CFI 59a74 .cfa: sp 32 +
STACK CFI 59a7c .cfa: x29 32 + x19: .cfa -16 + ^ .ra: .cfa -24 + ^ x29: .cfa -32 + ^
STACK CFI 59ad8 .cfa: sp 32 +
STACK CFI 59ae0 .cfa: sp 0 +
STACK CFI INIT 59ae4 4 .cfa: sp 0 +
STACK CFI INIT 59ae8 4 .cfa: sp 0 +
STACK CFI INIT 59aec 34 .cfa: sp 0 +
STACK CFI 59af0 .cfa: sp 32 +
STACK CFI 59af8 .cfa: x29 32 + x19: .cfa -16 + ^ .ra: .cfa -24 + ^ x29: .cfa -32 + ^
STACK CFI 59b14 .cfa: sp 32 +
STACK CFI 59b1c .cfa: sp 0 +
STACK CFI INIT 59b20 14 .cfa: sp 0 +
STACK CFI INIT 59b34 4 .cfa: sp 0 +
STACK CFI INIT 59b38 4 .cfa: sp 0 +
STACK CFI INIT 59bf0 1c .cfa: sp 0 +
STACK CFI INIT 59c0c c .cfa: sp 0 +
STACK CFI INIT 5a620 48 .cfa: sp 0 +
STACK CFI 5a624 .cfa: sp 32 +
STACK CFI 5a62c .cfa: x29 32 + x19: .cfa -8 + ^ x20: .cfa -16 + ^ .ra: .cfa -24 + ^ x29: .cfa -32 + ^
STACK CFI 5a65c .cfa: sp 32 +
STACK CFI 5a664 .cfa: sp 0 +
STACK CFI INIT 5a668 50 .cfa: sp 0 +
STACK CFI 5a68c .cfa: sp 32 +
STACK CFI 5a694 .cfa: x29 32 + x19: .cfa -16 + ^ .ra: .cfa -24 + ^ x29: .cfa -32 + ^
STACK CFI 5a6a8 .cfa: sp 32 +
STACK CFI 5a6b0 .cfa: sp 0 +
STACK CFI INIT 5a6b8 98 .cfa: sp 0 +
STACK CFI 5a6bc .cfa: sp 64 +
STACK CFI 5a6cc .cfa: x29 48 + x19: .cfa -8 + ^ x20: .cfa -16 + ^ x21: .cfa -32 + ^ .ra: .cfa -40 + ^ x29: .cfa -48 + ^
STACK CFI 5a738 .cfa: sp 64 +
STACK CFI 5a748 .cfa: sp 0 +
STACK CFI 5a74c .cfa: x29 48 +
STACK CFI INIT 5aa08 6c .cfa: sp 0 +
STACK CFI 5aa0c .cfa: sp 32 +
STACK CFI 5aa14 .cfa: x29 32 + x19: .cfa -16 + ^ .ra: .cfa -24 + ^ x29: .cfa -32 + ^
STACK CFI 5aa68 .cfa: sp 32 +
STACK CFI 5aa70 .cfa: sp 0 +
STACK CFI INIT 5aa74 74 .cfa: sp 0 +
STACK CFI 5aa78 .cfa: sp 32 +
STACK CFI 5aa80 .cfa: x29 32 + x19: .cfa -16 + ^ .ra: .cfa -24 + ^ x29: .cfa -32 + ^
STACK CFI 5aadc .cfa: sp 32 +
STACK CFI 5aae4 .cfa: sp 0 +
STACK CFI INIT 5aae8 4 .cfa: sp 0 +
STACK CFI INIT 5aaec 4 .cfa: sp 0 +
STACK CFI INIT 5aaf0 34 .cfa: sp 0 +
STACK CFI 5aaf4 .cfa: sp 32 +
STACK CFI 5aafc .cfa: x29 32 + x19: .cfa -16 + ^ .ra: .cfa -24 + ^ x29: .cfa -32 + ^
STACK CFI 5ab18 .cfa: sp 32 +
STACK CFI 5ab20 .cfa: sp 0 +
STACK CFI INIT 5ab24 14 .cfa: sp 0 +
STACK CFI INIT 5ab38 4 .cfa: sp 0 +
STACK CFI INIT 5ab3c 4 .cfa: sp 0 +
STACK CFI INIT 5ab40 14 .cfa: sp 0 +
STACK CFI INIT 5ab54 1c .cfa: sp 0 +
STACK CFI INIT 5ab70 c .cfa: sp 0 +
STACK CFI INIT 5ac0c 4 .cfa: sp 0 +
STACK CFI INIT 5ac10 14 .cfa: sp 0 +
STACK CFI INIT 5ac24 98 .cfa: sp 0 +
STACK CFI 5ac28 .cfa: sp 64 +
STACK CFI 5ac38 .cfa: x29 48 + x19: .cfa -8 + ^ x20: .cfa -16 + ^ x21: .cfa -32 + ^ .ra: .cfa -40 + ^ x29: .cfa -48 + ^
STACK CFI 5aca4 .cfa: sp 64 +
STACK CFI 5acb4 .cfa: sp 0 +
STACK CFI 5acb8 .cfa: x29 48 +
STACK CFI INIT 5b054 6c .cfa: sp 0 +
STACK CFI 5b058 .cfa: sp 32 +
STACK CFI 5b060 .cfa: x29 32 + x19: .cfa -16 + ^ .ra: .cfa -24 + ^ x29: .cfa -32 + ^
STACK CFI 5b0b4 .cfa: sp 32 +
STACK CFI 5b0bc .cfa: sp 0 +
STACK CFI INIT 5b0c0 74 .cfa: sp 0 +
STACK CFI 5b0c4 .cfa: sp 32 +
STACK CFI 5b0cc .cfa: x29 32 + x19: .cfa -16 + ^ .ra: .cfa -24 + ^ x29: .cfa -32 + ^
STACK CFI 5b128 .cfa: sp 32 +
STACK CFI 5b130 .cfa: sp 0 +
STACK CFI INIT 5b134 4 .cfa: sp 0 +
STACK CFI INIT 5b138 4 .cfa: sp 0 +
STACK CFI INIT 5b13c 34 .cfa: sp 0 +
STACK CFI 5b140 .cfa: sp 32 +
STACK CFI 5b148 .cfa: x29 32 + x19: .cfa -16 + ^ .ra: .cfa -24 + ^ x29: .cfa -32 + ^
STACK CFI 5b164 .cfa: sp 32 +
STACK CFI 5b16c .cfa: sp 0 +
STACK CFI INIT 5b170 14 .cfa: sp 0 +
STACK CFI INIT 5b184 4 .cfa: sp 0 +
STACK CFI INIT 5b188 4 .cfa: sp 0 +
STACK CFI INIT 5b244 1c .cfa: sp 0 +
STACK CFI INIT 5b260 c .cfa: sp 0 +
STACK CFI INIT 5b2f8 98 .cfa: sp 0 +
STACK CFI 5b2fc .cfa: sp 64 +
STACK CFI 5b30c .cfa: x29 48 + x19: .cfa -8 + ^ x20: .cfa -16 + ^ x21: .cfa -32 + ^ .ra: .cfa -40 + ^ x29: .cfa -48 + ^
STACK CFI 5b378 .cfa: sp 64 +
STACK CFI 5b388 .cfa: sp 0 +
STACK CFI 5b38c .cfa: x29 48 +
STACK CFI INIT 5b718 6c .cfa: sp 0 +
STACK CFI 5b71c .cfa: sp 32 +
STACK CFI 5b724 .cfa: x29 32 + x19: .cfa -16 + ^ .ra: .cfa -24 + ^ x29: .cfa -32 + ^
STACK CFI 5b778 .cfa: sp 32 +
STACK CFI 5b780 .cfa: sp 0 +
STACK CFI INIT 5b784 74 .cfa: sp 0 +
STACK CFI 5b788 .cfa: sp 32 +
STACK CFI 5b790 .cfa: x29 32 + x19: .cfa -16 + ^ .ra: .cfa -24 + ^ x29: .cfa -32 + ^
STACK CFI 5b7ec .cfa: sp 32 +
STACK CFI 5b7f4 .cfa: sp 0 +
STACK CFI INIT 5b7f8 4 .cfa: sp 0 +
STACK CFI INIT 5b7fc 4 .cfa: sp 0 +
STACK CFI INIT 5b800 34 .cfa: sp 0 +
STACK CFI 5b804 .cfa: sp 32 +
STACK CFI 5b80c .cfa: x29 32 + x19: .cfa -16 + ^ .ra: .cfa -24 + ^ x29: .cfa -32 + ^
STACK CFI 5b828 .cfa: sp 32 +
STACK CFI 5b830 .cfa: sp 0 +
STACK CFI INIT 5b834 14 .cfa: sp 0 +
STACK CFI INIT 5b848 4 .cfa: sp 0 +
STACK CFI INIT 5b84c 4 .cfa: sp 0 +
STACK CFI INIT 5b904 1c .cfa: sp 0 +
STACK CFI INIT 5b920 c .cfa: sp 0 +
STACK CFI INIT 5b9b8 98 .cfa: sp 0 +
STACK CFI 5b9bc .cfa: sp 64 +
STACK CFI 5b9cc .cfa: x29 48 + x19: .cfa -8 + ^ x20: .cfa -16 + ^ x21: .cfa -32 + ^ .ra: .cfa -40 + ^ x29: .cfa -48 + ^
STACK CFI 5ba38 .cfa: sp 64 +
STACK CFI 5ba48 .cfa: sp 0 +
STACK CFI 5ba4c .cfa: x29 48 +
STACK CFI INIT 5bd14 6c .cfa: sp 0 +
STACK CFI 5bd18 .cfa: sp 32 +
STACK CFI 5bd20 .cfa: x29 32 + x19: .cfa -16 + ^ .ra: .cfa -24 + ^ x29: .cfa -32 + ^
STACK CFI 5bd74 .cfa: sp 32 +
STACK CFI 5bd7c .cfa: sp 0 +
STACK CFI INIT 5bd80 74 .cfa: sp 0 +
STACK CFI 5bd84 .cfa: sp 32 +
STACK CFI 5bd8c .cfa: x29 32 + x19: .cfa -16 + ^ .ra: .cfa -24 + ^ x29: .cfa -32 + ^
STACK CFI 5bde8 .cfa: sp 32 +
STACK CFI 5bdf0 .cfa: sp 0 +
STACK CFI INIT 5bdf4 4 .cfa: sp 0 +
STACK CFI INIT 5bdf8 4 .cfa: sp 0 +
STACK CFI INIT 5bdfc 34 .cfa: sp 0 +
STACK CFI 5be00 .cfa: sp 32 +
STACK CFI 5be08 .cfa: x29 32 + x19: .cfa -16 + ^ .ra: .cfa -24 + ^ x29: .cfa -32 + ^
STACK CFI 5be24 .cfa: sp 32 +
STACK CFI 5be2c .cfa: sp 0 +
STACK CFI INIT 5be30 14 .cfa: sp 0 +
STACK CFI INIT 5be44 4 .cfa: sp 0 +
STACK CFI INIT 5be48 4 .cfa: sp 0 +
STACK CFI INIT 5be4c 18 .cfa: sp 0 +
STACK CFI INIT 5be64 1c .cfa: sp 0 +
STACK CFI INIT 5be80 c .cfa: sp 0 +
STACK CFI INIT 5c68c 70 .cfa: sp 0 +
STACK CFI 5c690 .cfa: sp 48 +
STACK CFI 5c69c .cfa: x29 48 + x19: .cfa -8 + ^ x20: .cfa -16 + ^ x21: .cfa -32 + ^ .ra: .cfa -40 + ^ x29: .cfa -48 + ^
STACK CFI 5c6b4 .cfa: sp 48 +
STACK CFI 5c6c0 .cfa: sp 0 +
STACK CFI 5c6c4 .cfa: x29 48 +
STACK CFI 5c6ec .cfa: sp 48 +
STACK CFI 5c6f8 .cfa: sp 0 +
STACK CFI INIT 5c6fc 144 .cfa: sp 0 +
STACK CFI 5c700 .cfa: sp 112 +
STACK CFI 5c710 .cfa: x29 48 + x19: .cfa -8 + ^ x20: .cfa -16 + ^ x21: .cfa -32 + ^ .ra: .cfa -40 + ^ x29: .cfa -48 + ^
STACK CFI 5c7f4 .cfa: sp 112 +
STACK CFI 5c804 .cfa: sp 0 +
STACK CFI 5c808 .cfa: x29 48 +
STACK CFI INIT 5c840 154 .cfa: sp 0 +
STACK CFI 5c844 .cfa: sp 112 +
STACK CFI 5c854 .cfa: x29 48 + x19: .cfa -8 + ^ x20: .cfa -16 + ^ x21: .cfa -24 + ^ x22: .cfa -32 + ^ .ra: .cfa -40 + ^ x29: .cfa -48 + ^
STACK CFI 5c92c .cfa: sp 112 +
STACK CFI 5c93c .cfa: sp 0 +
STACK CFI 5c940 .cfa: x29 48 +
STACK CFI INIT 5cc4c 40 .cfa: sp 0 +
STACK CFI 5cc64 .cfa: sp 32 +
STACK CFI 5cc6c .cfa: x29 32 + x19: .cfa -16 + ^ .ra: .cfa -24 + ^ x29: .cfa -32 + ^
STACK CFI 5cc80 .cfa: sp 32 +
STACK CFI 5cc88 .cfa: sp 0 +
STACK CFI INIT 5cedc 40 .cfa: sp 0 +
STACK CFI 5cef4 .cfa: sp 32 +
STACK CFI 5cefc .cfa: x29 32 + x19: .cfa -16 + ^ .ra: .cfa -24 + ^ x29: .cfa -32 + ^
STACK CFI 5cf10 .cfa: sp 32 +
STACK CFI 5cf18 .cfa: sp 0 +
STACK CFI INIT 5d24c 44 .cfa: sp 0 +
STACK CFI 5d268 .cfa: sp 16 +
STACK CFI 5d26c .cfa: x29 16 + .ra: .cfa -8 + ^ x29: .cfa -16 + ^
STACK CFI INIT 5d290 c .cfa: sp 0 +
STACK CFI INIT 5d474 230 .cfa: sp 0 +
STACK CFI 5d478 .cfa: sp 128 +
STACK CFI 5d490 .cfa: x29 80 + x19: .cfa -8 + ^ x20: .cfa -16 + ^ x21: .cfa -24 + ^ x22: .cfa -32 + ^ x23: .cfa -40 + ^ x24: .cfa -48 + ^ x25: .cfa -56 + ^ x26: .cfa -64 + ^ .ra: .cfa -72 + ^ x29: .cfa -80 + ^
STACK CFI 5d5f0 .cfa: sp 128 +
STACK CFI 5d608 .cfa: sp 0 +
STACK CFI 5d60c .cfa: x29 80 +
STACK CFI INIT 5d6a4 184 .cfa: sp 0 +
STACK CFI 5d6a8 .cfa: sp 48 +
STACK CFI 5d6b4 .cfa: x29 48 + x19: .cfa -8 + ^ x20: .cfa -16 + ^ x21: .cfa -32 + ^ .ra: .cfa -40 + ^ x29: .cfa -48 + ^
STACK CFI 5d7a0 .cfa: sp 48 +
STACK CFI 5d7ac .cfa: sp 0 +
STACK CFI 5d7b0 .cfa: x29 48 +
STACK CFI INIT 5dacc 30 .cfa: sp 0 +
STACK CFI 5dad0 .cfa: sp 32 +
STACK CFI 5dad8 .cfa: x29 32 + x19: .cfa -16 + ^ .ra: .cfa -24 + ^ x29: .cfa -32 + ^
STACK CFI 5daf0 .cfa: sp 32 +
STACK CFI 5daf8 .cfa: sp 0 +
STACK CFI INIT 5dc64 34 .cfa: sp 0 +
STACK CFI 5dc68 .cfa: sp 16 +
STACK CFI 5dc6c .cfa: x29 16 + .ra: .cfa -8 + ^ x29: .cfa -16 + ^
STACK CFI INIT 5ddcc 80 .cfa: sp 0 +
STACK CFI 5ddd0 .cfa: sp 48 +
STACK CFI 5dddc .cfa: x29 48 + x19: .cfa -8 + ^ x20: .cfa -16 + ^ x21: .cfa -32 + ^ .ra: .cfa -40 + ^ x29: .cfa -48 + ^
STACK CFI 5de3c .cfa: sp 48 +
STACK CFI 5de48 .cfa: sp 0 +
STACK CFI INIT 5de4c 24 .cfa: sp 0 +
STACK CFI 5de50 .cfa: sp 32 +
STACK CFI 5de58 .cfa: x29 32 + x19: .cfa -16 + ^ .ra: .cfa -24 + ^ x29: .cfa -32 + ^
STACK CFI 5de64 .cfa: sp 32 +
STACK CFI 5de6c .cfa: sp 0 +
STACK CFI INIT 5e370 148 .cfa: sp 0 +
STACK CFI 5e374 .cfa: sp 48 +
STACK CFI 5e380 .cfa: x29 48 + x19: .cfa -8 + ^ x20: .cfa -16 + ^ x21: .cfa -32 + ^ .ra: .cfa -40 + ^ x29: .cfa -48 + ^
STACK CFI 5e4a8 .cfa: sp 48 +
STACK CFI 5e4b4 .cfa: sp 0 +
STACK CFI INIT 5e4b8 88 .cfa: sp 0 +
STACK CFI 5e4c0 .cfa: sp 48 +
STACK CFI 5e4cc .cfa: x29 48 + x19: .cfa -8 + ^ x20: .cfa -16 + ^ x21: .cfa -24 + ^ x22: .cfa -32 + ^ .ra: .cfa -40 + ^ x29: .cfa -48 + ^
STACK CFI 5e530 .cfa: sp 48 +
STACK CFI 5e53c .cfa: sp 0 +
STACK CFI INIT 5e540 44 .cfa: sp 0 +
STACK CFI 5e544 .cfa: sp 32 +
STACK CFI 5e54c .cfa: x29 32 + x19: .cfa -16 + ^ .ra: .cfa -24 + ^ x29: .cfa -32 + ^
STACK CFI 5e578 .cfa: sp 32 +
STACK CFI 5e580 .cfa: sp 0 +
STACK CFI INIT 5e7d8 44 .cfa: sp 0 +
STACK CFI 5e7dc .cfa: sp 32 +
STACK CFI 5e7e4 .cfa: x29 32 + x19: .cfa -16 + ^ .ra: .cfa -24 + ^ x29: .cfa -32 + ^
STACK CFI 5e810 .cfa: sp 32 +
STACK CFI 5e818 .cfa: sp 0 +
STACK CFI INIT 5e81c 114 .cfa: sp 0 +
STACK CFI 5e820 .cfa: sp 48 +
STACK CFI 5e82c .cfa: x29 48 + x19: .cfa -8 + ^ x20: .cfa -16 + ^ x21: .cfa -24 + ^ x22: .cfa -32 + ^ .ra: .cfa -40 + ^ x29: .cfa -48 + ^
STACK CFI 5e8f4 .cfa: sp 48 +
STACK CFI 5e900 .cfa: sp 0 +
STACK CFI 5e904 .cfa: x29 48 +
STACK CFI 5e920 .cfa: sp 48 +
STACK CFI 5e92c .cfa: sp 0 +
STACK CFI INIT 5e930 134 .cfa: sp 0 +
STACK CFI INIT 5eecc 1ac .cfa: sp 0 +
STACK CFI 5eed0 .cfa: sp 32 +
STACK CFI 5eed8 .cfa: x29 32 + x19: .cfa -8 + ^ x20: .cfa -16 + ^ .ra: .cfa -24 + ^ x29: .cfa -32 + ^
STACK CFI 5efc8 .cfa: sp 32 +
STACK CFI 5efd0 .cfa: sp 0 +
STACK CFI 5efd4 .cfa: x29 32 +
STACK CFI INIT 5f078 90 .cfa: sp 0 +
STACK CFI 5f07c .cfa: sp 48 +
STACK CFI 5f088 .cfa: x29 48 + x19: .cfa -8 + ^ x20: .cfa -16 + ^ x21: .cfa -32 + ^ .ra: .cfa -40 + ^ x29: .cfa -48 + ^
STACK CFI 5f0f8 .cfa: sp 48 +
STACK CFI 5f104 .cfa: sp 0 +
STACK CFI INIT 5f108 29c .cfa: sp 0 +
STACK CFI 5f10c .cfa: sp 80 +
STACK CFI 5f120 .cfa: x29 64 + x19: .cfa -8 + ^ x20: .cfa -16 + ^ x21: .cfa -24 + ^ x22: .cfa -32 + ^ x23: .cfa -48 + ^ .ra: .cfa -56 + ^ x29: .cfa -64 + ^
STACK CFI 5f370 .cfa: sp 80 +
STACK CFI 5f384 .cfa: sp 0 +
STACK CFI 5f388 .cfa: x29 64 +
STACK CFI INIT 5f418 a4 .cfa: sp 0 +
STACK CFI 5f41c .cfa: sp 144 +
