MODULE Linux arm64 94B857BD59571DAF4E2E3325CC36FA4A0 alphalaneous.awesome_modifier_icons.android64.so
INFO CODE_ID BD57B8945759AF1D4E2E3325CC36FA4A8F57EFF2
INFO GENERATOR mozilla/dump_syms 2.3.4
PUBLIC 3910 0 __on_dlclose
PUBLIC 3920 0 __emutls_unregister_key
PUBLIC 3928 0 __on_dlclose_late
PUBLIC 3930 0 __atexit_handler_wrapper
PUBLIC 3944 0 atexit
PUBLIC 3960 0 pthread_atfork
PUBLIC 3970 0 __aarch64_ldadd8_relax
PUBLIC 39a0 0 init_have_lse_atomics
PUBLIC 3a38 0 __init_cpu_features_constructor
PUBLIC 3fd4 0 __init_cpu_features
PUBLIC 4060 0 __aarch64_ldadd8_acq_rel
PUBLIC 4090 0 __cxx_global_var_init
PUBLIC 4514 0 geode::modifier::ModifyBase<geode::modifier::ModifyDerive<MyEffectGameObject, EffectGameObject> >::~ModifyBase()
PUBLIC 452c 0 __cxx_global_var_init.1
PUBLIC 49b0 0 geode::modifier::ModifyBase<geode::modifier::ModifyDerive<MyEditButtonBar, EditButtonBar> >::~ModifyBase()
PUBLIC 49c8 0 geode::modifier::ModifyDerive<MyEffectGameObject, EffectGameObject>::apply()
PUBLIC 4cf0 0 std::__ndk1::shared_ptr<geode::Hook>::~shared_ptr[abi:ne180000]()
PUBLIC 4d40 0 geode::impl::ResultData<geode::Hook*, std::__ndk1::basic_string<char, std::__ndk1::char_traits<char>, std::__ndk1::allocator<char> > >::~ResultData()
PUBLIC 4db4 0 std::__ndk1::vector<std::__ndk1::basic_string<char, std::__ndk1::char_traits<char>, std::__ndk1::allocator<char> >, std::__ndk1::allocator<std::__ndk1::basic_string<char, std::__ndk1::char_traits<char>, std::__ndk1::allocator<char> > > >::~vector[abi:ne180000]()
PUBLIC 4e30 0 geode::modifier::ModifyBase<geode::modifier::ModifyDerive<MyEffectGameObject, EffectGameObject> >::apply()
PUBLIC 4e34 0 __clang_call_terminate
PUBLIC 4e44 0 _ZN5geode15UnwrapExceptionC2IRPNS_4HookEQsr4implE18IsStringStreamableIT_EEENS_4impl5OkTagEOS5_
PUBLIC 5540 0 std::__ndk1::__throw_bad_variant_access[abi:ne180000]()
PUBLIC m 5574 0 std::__ndk1::basic_stringstream<char, std::__ndk1::char_traits<char>, std::__ndk1::allocator<char> >::~basic_stringstream()
PUBLIC 55f4 0 geode::UnwrapException::~UnwrapException()
PUBLIC 5618 0 std::__ndk1::basic_string<char, std::__ndk1::char_traits<char>, std::__ndk1::allocator<char> >::__throw_length_error[abi:ne180000]() const
PUBLIC 562c 0 std::__ndk1::__throw_length_error[abi:ne180000](char const*)
PUBLIC 567c 0 std::length_error::length_error[abi:ne180000](char const*)
PUBLIC 56ac 0 std::__throw_bad_array_new_length([abi:ne180000], void)
PUBLIC 56e0 0 std::__ndk1::vector<std::__ndk1::basic_string<char, std::__ndk1::char_traits<char>, std::__ndk1::allocator<char> >, std::__ndk1::allocator<std::__ndk1::basic_string<char, std::__ndk1::char_traits<char>, std::__ndk1::allocator<char> > > >::__push_back_slow_path<std::__ndk1::basic_string<char, std::__ndk1::char_traits<char>, std::__ndk1::allocator<char> > const&>(std::__ndk1::basic_string<char, std::__ndk1::char_traits<char>, std::__ndk1::allocator<char> > const&)
PUBLIC 5904 0 std::__ndk1::basic_string<char, std::__ndk1::char_traits<char>, std::__ndk1::allocator<char> >::__init_copy_ctor_external(char const*, unsigned long)
PUBLIC 5980 0 std::__ndk1::__split_buffer<std::__ndk1::basic_string<char, std::__ndk1::char_traits<char>, std::__ndk1::allocator<char> >, std::__ndk1::allocator<std::__ndk1::basic_string<char, std::__ndk1::char_traits<char>, std::__ndk1::allocator<char> > >&>::~__split_buffer()
PUBLIC 59e8 0 std::__ndk1::vector<std::__ndk1::basic_string<char, std::__ndk1::char_traits<char>, std::__ndk1::allocator<char> >, std::__ndk1::allocator<std::__ndk1::basic_string<char, std::__ndk1::char_traits<char>, std::__ndk1::allocator<char> > > >::__throw_length_error[abi:ne180000]() const
PUBLIC 59fc 0 std::__ndk1::__variant_detail::__visitation::__base::__dispatcher<(unsigned long)0>::__dispatch[abi:ne180000]<std::__ndk1::__variant_detail::__dtor<std::__ndk1::__variant_detail::__traits<geode::Hook*, std::__ndk1::basic_string<char, std::__ndk1::char_traits<char>, std::__ndk1::allocator<char> > >, (std::__ndk1::__variant_detail::_Trait)1>::__destroy[abi:ne180000]()::{lambda(auto:1&)#1}, std::__ndk1::__variant_detail::__base<(std::__ndk1::__variant_detail::__traits<geode::Hook*, std::__ndk1::basic_string<char, std::__ndk1::char_traits<char>, std::__ndk1::allocator<char> > >)1, geode::Hook, std::__ndk1::allocator<char> >&>(std::__ndk1::__variant_detail::__dtor<std::__ndk1::__variant_detail::__traits<geode::Hook*, std::__ndk1::basic_string<char, std::__ndk1::char_traits<char>, std::__ndk1::allocator<char> > >, (std::__ndk1::__variant_detail::_Trait)1>, std::__ndk1::__variant_detail::__base<(std::__ndk1::__variant_detail::__traits<geode::Hook*, std::__ndk1::basic_string<char, std::__ndk1::char_traits<char>, std::__ndk1::allocator<char> > >)1, geode::Hook, std::__ndk1::allocator<char> >&)
PUBLIC 5a00 0 std::__ndk1::__variant_detail::__visitation::__base::__dispatcher<(unsigned long)1>::__dispatch[abi:ne180000]<std::__ndk1::__variant_detail::__dtor<std::__ndk1::__variant_detail::__traits<geode::Hook*, std::__ndk1::basic_string<char, std::__ndk1::char_traits<char>, std::__ndk1::allocator<char> > >, (std::__ndk1::__variant_detail::_Trait)1>::__destroy[abi:ne180000]()::{lambda(auto:1&)#1}, std::__ndk1::__variant_detail::__base<(std::__ndk1::__variant_detail::__traits<geode::Hook*, std::__ndk1::basic_string<char, std::__ndk1::char_traits<char>, std::__ndk1::allocator<char> > >)1, geode::Hook, std::__ndk1::allocator<char> >&>(std::__ndk1::__variant_detail::__dtor<std::__ndk1::__variant_detail::__traits<geode::Hook*, std::__ndk1::basic_string<char, std::__ndk1::char_traits<char>, std::__ndk1::allocator<char> > >, (std::__ndk1::__variant_detail::_Trait)1>, std::__ndk1::__variant_detail::__base<(std::__ndk1::__variant_detail::__traits<geode::Hook*, std::__ndk1::basic_string<char, std::__ndk1::char_traits<char>, std::__ndk1::allocator<char> > >)1, geode::Hook, std::__ndk1::allocator<char> >&)
PUBLIC 5a14 0 std::__ndk1::__tree<std::__ndk1::__value_type<std::__ndk1::basic_string<char, std::__ndk1::char_traits<char>, std::__ndk1::allocator<char> >, std::__ndk1::shared_ptr<geode::Hook> >, std::__ndk1::__map_value_compare<std::__ndk1::basic_string<char, std::__ndk1::char_traits<char>, std::__ndk1::allocator<char> >, std::__ndk1::__value_type<std::__ndk1::basic_string<char, std::__ndk1::char_traits<char>, std::__ndk1::allocator<char> >, std::__ndk1::shared_ptr<geode::Hook> >, std::__ndk1::less<std::__ndk1::basic_string<char, std::__ndk1::char_traits<char>, std::__ndk1::allocator<char> > >, true>, std::__ndk1::allocator<std::__ndk1::__value_type<std::__ndk1::basic_string<char, std::__ndk1::char_traits<char>, std::__ndk1::allocator<char> >, std::__ndk1::shared_ptr<geode::Hook> > > >::find<std::__ndk1::basic_string<char, std::__ndk1::char_traits<char>, std::__ndk1::allocator<char> > >(std::__ndk1::basic_string<char, std::__ndk1::char_traits<char>, std::__ndk1::allocator<char> > const&)
PUBLIC 5b34 0 std::__ndk1::__tree<std::__ndk1::__value_type<std::__ndk1::basic_string<char, std::__ndk1::char_traits<char>, std::__ndk1::allocator<char> >, std::__ndk1::shared_ptr<geode::Hook> >, std::__ndk1::__map_value_compare<std::__ndk1::basic_string<char, std::__ndk1::char_traits<char>, std::__ndk1::allocator<char> >, std::__ndk1::__value_type<std::__ndk1::basic_string<char, std::__ndk1::char_traits<char>, std::__ndk1::allocator<char> >, std::__ndk1::shared_ptr<geode::Hook> >, std::__ndk1::less<std::__ndk1::basic_string<char, std::__ndk1::char_traits<char>, std::__ndk1::allocator<char> > >, true>, std::__ndk1::allocator<std::__ndk1::__value_type<std::__ndk1::basic_string<char, std::__ndk1::char_traits<char>, std::__ndk1::allocator<char> >, std::__ndk1::shared_ptr<geode::Hook> > > >::erase(std::__ndk1::__tree_const_iterator<std::__ndk1::__value_type<std::__ndk1::basic_string<char, std::__ndk1::char_traits<char>, std::__ndk1::allocator<char> >, std::__ndk1::shared_ptr<geode::Hook> >, std::__ndk1::__tree_node<std::__ndk1::__value_type<std::__ndk1::basic_string<char, std::__ndk1::char_traits<char>, std::__ndk1::allocator<char> >, std::__ndk1::shared_ptr<geode::Hook> >, void*>*, long>)
PUBLIC 5fd8 0 std::__ndk1::__tree<std::__ndk1::__value_type<std::__ndk1::basic_string<char, std::__ndk1::char_traits<char>, std::__ndk1::allocator<char> >, std::__ndk1::shared_ptr<geode::Hook> >, std::__ndk1::__map_value_compare<std::__ndk1::basic_string<char, std::__ndk1::char_traits<char>, std::__ndk1::allocator<char> >, std::__ndk1::__value_type<std::__ndk1::basic_string<char, std::__ndk1::char_traits<char>, std::__ndk1::allocator<char> >, std::__ndk1::shared_ptr<geode::Hook> >, std::__ndk1::less<std::__ndk1::basic_string<char, std::__ndk1::char_traits<char>, std::__ndk1::allocator<char> > >, true>, std::__ndk1::allocator<std::__ndk1::__value_type<std::__ndk1::basic_string<char, std::__ndk1::char_traits<char>, std::__ndk1::allocator<char> >, std::__ndk1::shared_ptr<geode::Hook> > > >::destroy(std::__ndk1::__tree_node<std::__ndk1::__value_type<std::__ndk1::basic_string<char, std::__ndk1::char_traits<char>, std::__ndk1::allocator<char> >, std::__ndk1::shared_ptr<geode::Hook> >, void*>*)
PUBLIC 605c 0 geode::modifier::AsStaticFunction_customSetup<MyEffectGameObject, void (MyEffectGameObject::*)()>::Impl<void (MyEffectGameObject::*)()>::function(MyEffectGameObject*)
PUBLIC 62a4 0 geode::addresser::Addresser::addressOfVirtual<void, EffectGameObject, >(void (EffectGameObject::*)())
PUBLIC 636c 0 EffectGameObject::EffectGameObject(geode::ZeroConstructorType)
PUBLIC 6474 0 std::__ndk1::shared_ptr<tulip::hook::CallingConvention>::~shared_ptr[abi:ne180000]()
PUBLIC 64c4 0 tulip::hook::HandlerMetadata::~HandlerMetadata()
PUBLIC 6528 0 MyEffectGameObject::setIcon(std::__ndk1::basic_string<char, std::__ndk1::char_traits<char>, std::__ndk1::allocator<char> >)
PUBLIC 671c 0 geode::Mod::getSettingValue<bool>(std::__ndk1::basic_string_view<char, std::__ndk1::char_traits<char> >) const
PUBLIC 684c 0 MyEffectGameObject::getLabel(float)
PUBLIC 6a08 0 geode::cast::traverseTypeinfoFor(void*, geode::cast::ClassTypeinfoType const*, char const*)
PUBLIC 6b00 0 std::__ndk1::__tree<std::__ndk1::__value_type<std::__ndk1::basic_string<char, std::__ndk1::char_traits<char>, std::__ndk1::allocator<char> >, std::__ndk1::shared_ptr<geode::Hook> >, std::__ndk1::__map_value_compare<std::__ndk1::basic_string<char, std::__ndk1::char_traits<char>, std::__ndk1::allocator<char> >, std::__ndk1::__value_type<std::__ndk1::basic_string<char, std::__ndk1::char_traits<char>, std::__ndk1::allocator<char> >, std::__ndk1::shared_ptr<geode::Hook> >, std::__ndk1::less<std::__ndk1::basic_string<char, std::__ndk1::char_traits<char>, std::__ndk1::allocator<char> > >, true>, std::__ndk1::allocator<std::__ndk1::__value_type<std::__ndk1::basic_string<char, std::__ndk1::char_traits<char>, std::__ndk1::allocator<char> >, std::__ndk1::shared_ptr<geode::Hook> > > >::__emplace_unique_key_args<std::__ndk1::basic_string<char, std::__ndk1::char_traits<char>, std::__ndk1::allocator<char> >, std::__ndk1::piecewise_construct_t const&, std::__ndk1::tuple<std::__ndk1::basic_string<char, std::__ndk1::char_traits<char>, std::__ndk1::allocator<char> >&&>, std::__ndk1::tuple<> >(std::__ndk1::basic_string<char, std::__ndk1::char_traits<char>, std::__ndk1::allocator<char> > const&, std::__ndk1::piecewise_construct_t const&, std::__ndk1::tuple<std::__ndk1::basic_string<char, std::__ndk1::char_traits<char>, std::__ndk1::allocator<char> >&&>, std::__ndk1::tuple<>)
PUBLIC 6e14 0 geode::modifier::ModifyDerive<MyEditButtonBar, EditButtonBar>::apply()
PUBLIC 7218 0 geode::modifier::ModifyBase<geode::modifier::ModifyDerive<MyEditButtonBar, EditButtonBar> >::apply()
PUBLIC 721c 0 geode::modifier::AsStaticFunction_loadFromItems<MyEditButtonBar, void (MyEditButtonBar::*)(cocos2d::CCArray*, int, int, bool)>::Impl<void (MyEditButtonBar::*)(cocos2d::CCArray*, int, int, bool)>::function(MyEditButtonBar*, cocos2d::CCArray*, int, int, bool)
PUBLIC 748c 0 geode::Ref<cocos2d::CCObject>::~Ref()
PUBLIC m 74a8 0 geodeImplicitEntry
PUBLIC 74f0 0 <.plt ELF section in alphalaneous.awesome_modifier_icons.android64.so>
STACK CFI INIT 3910 10 .cfa: sp 0 +
STACK CFI INIT 3920 8 .cfa: sp 0 +
STACK CFI INIT 3928 8 .cfa: sp 0 +
STACK CFI INIT 3930 14 .cfa: sp 0 +
STACK CFI INIT 3944 1c .cfa: sp 0 +
STACK CFI INIT 3960 10 .cfa: sp 0 +
STACK CFI INIT 3970 30 .cfa: sp 0 +
STACK CFI INIT 39a0 98 .cfa: sp 0 +
STACK CFI INIT 3a38 59c .cfa: sp 0 +
STACK CFI INIT 3fd4 8c .cfa: sp 0 +
STACK CFI INIT 4060 30 .cfa: sp 0 +
STACK CFI INIT 4514 18 .cfa: sp 0 +
STACK CFI INIT 49b0 18 .cfa: sp 0 +
STACK CFI INIT 4cf0 50 .cfa: sp 0 +
STACK CFI 4cf4 .cfa: sp 32 +
STACK CFI 4cfc .cfa: x29 32 + x19: .cfa -16 + ^ .ra: .cfa -24 + ^ x29: .cfa -32 + ^
STACK CFI 4d14 .cfa: sp 32 +
STACK CFI 4d1c .cfa: sp 0 +
STACK CFI 4d20 .cfa: x29 32 +
STACK CFI 4d34 .cfa: sp 32 +
STACK CFI 4d3c .cfa: sp 0 +
STACK CFI INIT 4db4 7c .cfa: sp 0 +
STACK CFI 4db8 .cfa: sp 48 +
STACK CFI 4dc4 .cfa: x29 48 + x19: .cfa -8 + ^ x20: .cfa -16 + ^ x21: .cfa -32 + ^ .ra: .cfa -40 + ^ x29: .cfa -48 + ^
STACK CFI 4e10 .cfa: sp 48 +
STACK CFI 4e1c .cfa: sp 0 +
STACK CFI 4e20 .cfa: sp 48 +
STACK CFI 4e2c .cfa: sp 0 +
STACK CFI INIT 4e30 4 .cfa: sp 0 +
STACK CFI INIT 4e34 10 .cfa: sp 0 +
STACK CFI 4e38 .cfa: sp 16 +
STACK CFI 4e3c .cfa: x29 16 + .ra: .cfa -8 + ^ x29: .cfa -16 + ^
STACK CFI INIT 5540 34 .cfa: sp 0 +
STACK CFI 5544 .cfa: sp 16 +
STACK CFI 5548 .cfa: x29 16 + .ra: .cfa -8 + ^ x29: .cfa -16 + ^
STACK CFI INIT 5574 80 .cfa: sp 0 +
STACK CFI 5578 .cfa: sp 48 +
STACK CFI 5584 .cfa: x29 48 + x19: .cfa -8 + ^ x20: .cfa -16 + ^ x21: .cfa -32 + ^ .ra: .cfa -40 + ^ x29: .cfa -48 + ^
STACK CFI 55e4 .cfa: sp 48 +
STACK CFI 55f0 .cfa: sp 0 +
STACK CFI INIT 55f4 24 .cfa: sp 0 +
STACK CFI 55f8 .cfa: sp 32 +
STACK CFI 5600 .cfa: x29 32 + x19: .cfa -16 + ^ .ra: .cfa -24 + ^ x29: .cfa -32 + ^
STACK CFI 560c .cfa: sp 32 +
STACK CFI 5614 .cfa: sp 0 +
STACK CFI INIT 5618 14 .cfa: sp 0 +
STACK CFI 561c .cfa: sp 16 +
STACK CFI 5620 .cfa: x29 16 + .ra: .cfa -8 + ^ x29: .cfa -16 + ^
STACK CFI INIT 567c 30 .cfa: sp 0 +
STACK CFI 5680 .cfa: sp 32 +
STACK CFI 5688 .cfa: x29 32 + x19: .cfa -16 + ^ .ra: .cfa -24 + ^ x29: .cfa -32 + ^
STACK CFI 56a0 .cfa: sp 32 +
STACK CFI 56a8 .cfa: sp 0 +
STACK CFI INIT 56ac 34 .cfa: sp 0 +
STACK CFI 56b0 .cfa: sp 32 +
STACK CFI 56b8 .cfa: x29 32 + x19: .cfa -16 + ^ .ra: .cfa -24 + ^ x29: .cfa -32 + ^
STACK CFI INIT 5904 7c .cfa: sp 0 +
STACK CFI 5908 .cfa: sp 48 +
STACK CFI 5914 .cfa: x29 48 + x19: .cfa -8 + ^ x20: .cfa -16 + ^ x21: .cfa -24 + ^ x22: .cfa -32 + ^ .ra: .cfa -40 + ^ x29: .cfa -48 + ^
STACK CFI 592c .cfa: sp 48 +
STACK CFI 5938 .cfa: sp 0 +
STACK CFI 593c .cfa: x29 48 +
STACK CFI 596c .cfa: sp 48 +
STACK CFI 5978 .cfa: sp 0 +
STACK CFI 597c .cfa: x29 48 +
STACK CFI INIT 5980 68 .cfa: sp 0 +
STACK CFI 5984 .cfa: sp 32 +
STACK CFI 598c .cfa: x29 32 + x19: .cfa -8 + ^ x20: .cfa -16 + ^ .ra: .cfa -24 + ^ x29: .cfa -32 + ^
STACK CFI 59a4 .cfa: sp 32 +
STACK CFI 59ac .cfa: sp 0 +
STACK CFI 59b0 .cfa: x29 32 +
STACK CFI 59dc .cfa: sp 32 +
STACK CFI 59e4 .cfa: sp 0 +
STACK CFI INIT 59e8 14 .cfa: sp 0 +
STACK CFI 59ec .cfa: sp 16 +
STACK CFI 59f0 .cfa: x29 16 + .ra: .cfa -8 + ^ x29: .cfa -16 + ^
STACK CFI INIT 59fc 4 .cfa: sp 0 +
STACK CFI INIT 5a00 14 .cfa: sp 0 +
STACK CFI INIT 5a14 120 .cfa: sp 0 +
STACK CFI 5a18 .cfa: sp 64 +
STACK CFI 5a28 .cfa: x29 64 + x19: .cfa -8 + ^ x20: .cfa -16 + ^ x21: .cfa -24 + ^ x22: .cfa -32 + ^ x23: .cfa -40 + ^ x24: .cfa -48 + ^ .ra: .cfa -56 + ^ x29: .cfa -64 + ^
STACK CFI 5b20 .cfa: sp 64 +
STACK CFI 5b30 .cfa: sp 0 +
STACK CFI INIT 5b34 4a4 .cfa: sp 0 +
STACK CFI 5b38 .cfa: sp 32 +
STACK CFI 5b40 .cfa: x29 32 + x19: .cfa -8 + ^ x20: .cfa -16 + ^ .ra: .cfa -24 + ^ x29: .cfa -32 + ^
STACK CFI 5f20 .cfa: sp 32 +
STACK CFI 5f28 .cfa: sp 0 +
STACK CFI 5f2c .cfa: x29 32 +
STACK CFI INIT 5fd8 84 .cfa: sp 0 +
STACK CFI 5fe0 .cfa: sp 32 +
STACK CFI 5fe8 .cfa: x29 32 + x19: .cfa -8 + ^ x20: .cfa -16 + ^ .ra: .cfa -24 + ^ x29: .cfa -32 + ^
STACK CFI 6028 .cfa: sp 32 +
STACK CFI 6030 .cfa: sp 0 +
STACK CFI 6038 .cfa: x29 32 +
STACK CFI INIT 6474 50 .cfa: sp 0 +
STACK CFI 6478 .cfa: sp 32 +
STACK CFI 6480 .cfa: x29 32 + x19: .cfa -16 + ^ .ra: .cfa -24 + ^ x29: .cfa -32 + ^
STACK CFI 6498 .cfa: sp 32 +
STACK CFI 64a0 .cfa: sp 0 +
STACK CFI 64a4 .cfa: x29 32 +
STACK CFI 64b8 .cfa: sp 32 +
STACK CFI 64c0 .cfa: sp 0 +
STACK CFI INIT 64c4 64 .cfa: sp 0 +
STACK CFI 64c8 .cfa: sp 32 +
STACK CFI 64d0 .cfa: x29 32 + x19: .cfa -16 + ^ .ra: .cfa -24 + ^ x29: .cfa -32 + ^
STACK CFI 64fc .cfa: sp 32 +
STACK CFI 6504 .cfa: sp 0 +
STACK CFI 6508 .cfa: x29 32 +
STACK CFI 651c .cfa: sp 32 +
STACK CFI 6524 .cfa: sp 0 +
STACK CFI INIT 6528 1f4 .cfa: sp 0 +
STACK CFI 652c .cfa: sp 96 +
STACK CFI 6540 .cfa: x29 64 + x19: .cfa -8 + ^ x20: .cfa -16 + ^ x21: .cfa -24 + ^ x22: .cfa -32 + ^ x23: .cfa -48 + ^ .ra: .cfa -56 + ^ x29: .cfa -64 + ^
STACK CFI 66bc .cfa: sp 96 +
STACK CFI 66d0 .cfa: sp 0 +
STACK CFI 66d4 .cfa: x29 64 +
STACK CFI INIT 671c 130 .cfa: sp 0 +
STACK CFI 6720 .cfa: sp 80 +
STACK CFI 6730 .cfa: x29 48 + x19: .cfa -8 + ^ x20: .cfa -16 + ^ x21: .cfa -24 + ^ x22: .cfa -32 + ^ .ra: .cfa -40 + ^ x29: .cfa -48 + ^
STACK CFI 6834 .cfa: sp 80 +
STACK CFI 6844 .cfa: sp 0 +
STACK CFI 6848 .cfa: x29 48 +
STACK CFI INIT 684c 1bc .cfa: sp 0 +
STACK CFI 6850 .cfa: sp 64 +
STACK CFI 6860 .cfa: x29 48 + x19: .cfa -8 + ^ x20: .cfa -16 + ^ x21: .cfa -24 + ^ x22: .cfa -32 + ^ .ra: .cfa -40 + ^ x29: .cfa -48 + ^
STACK CFI 699c .cfa: sp 64 +
STACK CFI 69ac .cfa: sp 0 +
STACK CFI 69b0 .cfa: x29 48 +
STACK CFI 69f0 .cfa: sp 64 +
STACK CFI 6a00 .cfa: sp 0 +
STACK CFI 6a04 .cfa: x29 48 +
STACK CFI INIT 6a08 f8 .cfa: sp 0 +
STACK CFI 6a0c .cfa: sp 64 +
STACK CFI 6a1c .cfa: x29 64 + x19: .cfa -8 + ^ x20: .cfa -16 + ^ x21: .cfa -24 + ^ x22: .cfa -32 + ^ x23: .cfa -48 + ^ .ra: .cfa -56 + ^ x29: .cfa -64 + ^
STACK CFI 6a78 .cfa: sp 64 +
STACK CFI 6a88 .cfa: sp 0 +
STACK CFI 6a8c .cfa: x29 64 +
STACK CFI 6aa8 .cfa: sp 64 +
STACK CFI 6ab8 .cfa: sp 0 +
STACK CFI 6abc .cfa: x29 64 +
STACK CFI 6aec .cfa: sp 64 +
STACK CFI 6afc .cfa: sp 0 +
STACK CFI INIT 6b00 314 .cfa: sp 0 +
STACK CFI 6b04 .cfa: sp 96 +
STACK CFI 6b1c .cfa: x29 96 + x19: .cfa -8 + ^ x20: .cfa -16 + ^ x21: .cfa -24 + ^ x22: .cfa -32 + ^ x23: .cfa -40 + ^ x24: .cfa -48 + ^ x25: .cfa -56 + ^ x26: .cfa -64 + ^ x27: .cfa -80 + ^ .ra: .cfa -88 + ^ x29: .cfa -96 + ^
STACK CFI 6dd8 .cfa: sp 96 +
STACK CFI 6df0 .cfa: sp 0 +
STACK CFI 6df4 .cfa: x29 96 +
STACK CFI INIT 7218 4 .cfa: sp 0 +
STACK CFI INIT 74a8 3c .cfa: sp 0 +
STACK CFI 74ac .cfa: sp 32 +
STACK CFI 74b4 .cfa: x29 32 + x19: .cfa -16 + ^ .ra: .cfa -24 + ^ x29: .cfa -32 + ^
STACK CFI 74c0 .cfa: sp 32 +
STACK CFI 74c8 .cfa: sp 0 +
STACK CFI 74cc .cfa: x29 32 +
STACK CFI 74d8 .cfa: sp 32 +
STACK CFI 74e0 .cfa: sp 0 +
STACK CFI INIT 4090 484 .cfa: sp 0 +
STACK CFI 4094 .cfa: sp 224 +
STACK CFI 40b0 .cfa: x29 96 + x19: .cfa -8 + ^ x20: .cfa -16 + ^ x21: .cfa -24 + ^ x22: .cfa -32 + ^ x23: .cfa -40 + ^ x24: .cfa -48 + ^ x25: .cfa -56 + ^ x26: .cfa -64 + ^ x27: .cfa -72 + ^ x28: .cfa -80 + ^ .ra: .cfa -88 + ^ x29: .cfa -96 + ^
STACK CFI 4320 .cfa: sp 224 +
STACK CFI 433c .cfa: sp 0 +
STACK CFI 4340 .cfa: x29 96 +
STACK CFI 440c .cfa: sp 224 +
STACK CFI 4428 .cfa: sp 0 +
STACK CFI 442c .cfa: x29 96 +
STACK CFI INIT 452c 484 .cfa: sp 0 +
STACK CFI 4530 .cfa: sp 224 +
STACK CFI 454c .cfa: x29 96 + x19: .cfa -8 + ^ x20: .cfa -16 + ^ x21: .cfa -24 + ^ x22: .cfa -32 + ^ x23: .cfa -40 + ^ x24: .cfa -48 + ^ x25: .cfa -56 + ^ x26: .cfa -64 + ^ x27: .cfa -72 + ^ x28: .cfa -80 + ^ .ra: .cfa -88 + ^ x29: .cfa -96 + ^
STACK CFI 47bc .cfa: sp 224 +
STACK CFI 47d8 .cfa: sp 0 +
STACK CFI 47dc .cfa: x29 96 +
STACK CFI 48a8 .cfa: sp 224 +
STACK CFI 48c4 .cfa: sp 0 +
STACK CFI 48c8 .cfa: x29 96 +
STACK CFI INIT 49c8 328 .cfa: sp 0 +
STACK CFI 49cc .cfa: sp 240 +
STACK CFI 49e0 .cfa: x29 64 + x19: .cfa -8 + ^ x20: .cfa -16 + ^ x21: .cfa -24 + ^ x22: .cfa -32 + ^ x23: .cfa -48 + ^ .ra: .cfa -56 + ^ x29: .cfa -64 + ^
STACK CFI 4bdc .cfa: sp 240 +
STACK CFI 4bf0 .cfa: sp 0 +
STACK CFI 4bf4 .cfa: x29 64 +
STACK CFI INIT 4d40 74 .cfa: sp 0 +
STACK CFI 4d44 .cfa: sp 48 +
STACK CFI 4d50 .cfa: x29 32 + x19: .cfa -8 + ^ x20: .cfa -16 + ^ .ra: .cfa -24 + ^ x29: .cfa -32 + ^
STACK CFI 4d9c .cfa: sp 48 +
STACK CFI 4da8 .cfa: sp 0 +
STACK CFI 4dac .cfa: x29 32 +
STACK CFI INIT 4e44 6fc .cfa: sp 0 +
STACK CFI 4e48 .cfa: sp 496 +
STACK CFI 4e64 .cfa: x29 96 + x19: .cfa -8 + ^ x20: .cfa -16 + ^ x21: .cfa -24 + ^ x22: .cfa -32 + ^ x23: .cfa -40 + ^ x24: .cfa -48 + ^ x25: .cfa -56 + ^ x26: .cfa -64 + ^ x27: .cfa -72 + ^ x28: .cfa -80 + ^ .ra: .cfa -88 + ^ x29: .cfa -96 + ^
STACK CFI 5414 .cfa: sp 496 +
STACK CFI 5430 .cfa: sp 0 +
STACK CFI 5434 .cfa: x29 96 +
STACK CFI INIT 562c 50 .cfa: sp 0 +
STACK CFI 5630 .cfa: sp 32 +
STACK CFI 5638 .cfa: x29 32 + x19: .cfa -8 + ^ x20: .cfa -16 + ^ .ra: .cfa -24 + ^ x29: .cfa -32 + ^
STACK CFI INIT 56e0 224 .cfa: sp 0 +
STACK CFI 56e4 .cfa: sp 128 +
STACK CFI 56fc .cfa: x29 80 + x19: .cfa -8 + ^ x20: .cfa -16 + ^ x21: .cfa -24 + ^ x22: .cfa -32 + ^ x23: .cfa -40 + ^ x24: .cfa -48 + ^ x25: .cfa -64 + ^ .ra: .cfa -72 + ^ x29: .cfa -80 + ^
STACK CFI 5898 .cfa: sp 128 +
STACK CFI 58b0 .cfa: sp 0 +
STACK CFI 58b4 .cfa: x29 80 +
STACK CFI INIT 605c 248 .cfa: sp 0 +
STACK CFI 6060 .cfa: sp 80 +
STACK CFI 6070 .cfa: x29 48 + x19: .cfa -8 + ^ x20: .cfa -16 + ^ x21: .cfa -32 + ^ .ra: .cfa -40 + ^ x29: .cfa -48 + ^
STACK CFI 6250 .cfa: sp 80 +
STACK CFI 6260 .cfa: sp 0 +
STACK CFI 6264 .cfa: x29 48 +
STACK CFI INIT 62a4 c8 .cfa: sp 0 +
STACK CFI 62a8 .cfa: sp 32 +
STACK CFI 62b0 .cfa: x29 32 + x19: .cfa -8 + ^ x20: .cfa -16 + ^ .ra: .cfa -24 + ^ x29: .cfa -32 + ^
STACK CFI 62e4 .cfa: sp 32 +
STACK CFI 62ec .cfa: sp 0 +
STACK CFI 62f0 .cfa: x29 32 +
STACK CFI 62f4 .cfa: sp 32 +
STACK CFI 62fc .cfa: sp 0 +
STACK CFI 6300 .cfa: x29 32 +
STACK CFI INIT 636c 108 .cfa: sp 0 +
STACK CFI 6370 .cfa: sp 48 +
STACK CFI 637c .cfa: x29 32 + x19: .cfa -8 + ^ x20: .cfa -16 + ^ .ra: .cfa -24 + ^ x29: .cfa -32 + ^ v8: .cfa -48 + ^
STACK CFI 6450 .cfa: sp 48 +
STACK CFI 645c .cfa: sp 0 +
STACK CFI 6460 .cfa: x29 32 +
STACK CFI INIT 6e14 404 .cfa: sp 0 +
STACK CFI 6e18 .cfa: sp 272 +
STACK CFI 6e2c .cfa: x29 64 + x19: .cfa -8 + ^ x20: .cfa -16 + ^ x21: .cfa -24 + ^ x22: .cfa -32 + ^ x23: .cfa -40 + ^ x28: .cfa -48 + ^ .ra: .cfa -56 + ^ x29: .cfa -64 + ^
STACK CFI 70dc .cfa: sp 272 +
STACK CFI 70f0 .cfa: sp 0 +
STACK CFI 70f4 .cfa: x29 64 +
STACK CFI INIT 721c 270 .cfa: sp 0 +
STACK CFI 7220 .cfa: sp 128 +
STACK CFI 723c .cfa: x29 96 + x19: .cfa -8 + ^ x20: .cfa -16 + ^ x21: .cfa -24 + ^ x22: .cfa -32 + ^ x23: .cfa -40 + ^ x24: .cfa -48 + ^ x25: .cfa -56 + ^ x26: .cfa -64 + ^ x27: .cfa -72 + ^ x28: .cfa -80 + ^ .ra: .cfa -88 + ^ x29: .cfa -96 + ^
STACK CFI 7408 .cfa: sp 128 +
STACK CFI 7424 .cfa: sp 0 +
STACK CFI 7428 .cfa: x29 96 +
STACK CFI INIT 748c 1c .cfa: sp 0 +
STACK CFI 7490 .cfa: sp 16 +
STACK CFI 7494 .cfa: x29 16 + .ra: .cfa -8 + ^ x29: .cfa -16 + ^
STACK CFI 749c .cfa: sp 16 +
STACK CFI 74a0 .cfa: sp 0 +
STACK CFI 74a4 .cfa: x29 16 +
