MODULE Linux arm64 F8BD114C81AB264634CF78F9EE8A7AEB0 geode.devtools.android64.so
INFO CODE_ID 4C11BDF8AB81462634CF78F9EE8A7AEBFF7B73E6
INFO GENERATOR mozilla/dump_syms 2.3.4
PUBLIC 711e0 0 __on_dlclose
PUBLIC 711f0 0 __emutls_unregister_key
PUBLIC 711f8 0 __on_dlclose_late
PUBLIC 71200 0 __atexit_handler_wrapper
PUBLIC 71214 0 atexit
PUBLIC 71230 0 pthread_atfork
PUBLIC 71240 0 __aarch64_ldadd8_relax
PUBLIC 71270 0 init_have_lse_atomics
PUBLIC 71308 0 __init_cpu_features_constructor
PUBLIC 718a4 0 __init_cpu_features
PUBLIC 71930 0 __aarch64_ldadd8_acq_rel
PUBLIC 71960 0 geodeExecFunction47<(anonymous namespace)::ExecFuncUnique47>(geode::ModStateEvent*)
PUBLIC m 71a8c 0 DevTools::get()
PUBLIC 71b34 0 DevTools::DevTools()
PUBLIC m 71c84 0 DevTools::loadSettings()
PUBLIC 71d20 0 geode::Mod::getSavedValue<Settings>(std::__ndk1::basic_string_view<char, std::__ndk1::char_traits<char> >)
PUBLIC m 7239c 0 DevTools::saveSettings()
PUBLIC 72444 0 geode::Mod::setSavedValue<Settings>(std::__ndk1::basic_string_view<char, std::__ndk1::char_traits<char> >, Settings const&)
PUBLIC m 72960 0 DevTools::shouldPopGame() const
PUBLIC m 72978 0 DevTools::pausedGame() const
PUBLIC m 72980 0 DevTools::isSetup() const
PUBLIC m 72988 0 DevTools::shouldOrderChildren() const
PUBLIC m 72990 0 DevTools::getSelectedNode() const
PUBLIC m 72998 0 DevTools::selectNode(cocos2d::CCNode*)
PUBLIC m 729dc 0 DevTools::highlightNode(cocos2d::CCNode*, HighlightMode)
PUBLIC m 72aec 0 DevTools::drawPage(char const*, void (DevTools::*)())
PUBLIC m 72b40 0 DevTools::drawPages()
PUBLIC m 7312c 0 DevTools::draw(GLRenderCtx*)
PUBLIC m 73210 0 DevTools::shouldUseGDWindow() const
PUBLIC m 73264 0 DevTools::setupFonts()
PUBLIC m 73aa8 0 DevTools::setup()
PUBLIC m 73c00 0 DevTools::destroy()
PUBLIC m 73c10 0 DevTools::show(bool)
PUBLIC m 73c18 0 DevTools::toggle()
PUBLIC m 73c40 0 DevTools::sceneChanged()
PUBLIC m 73c6c 0 geode::Mod::getSettingValue<bool>(std::__ndk1::basic_string_view<char, std::__ndk1::char_traits<char> >) const
PUBLIC m 73da0 0 geode::Ref<cocos2d::CCNode>::~Ref()
PUBLIC 73dc0 0 std::__ndk1::basic_string<char, std::__ndk1::char_traits<char>, std::__ndk1::allocator<char> >::__throw_length_error[abi:ne180000]() const
PUBLIC 73dd4 0 std::__ndk1::__throw_length_error[abi:ne180000](char const*)
PUBLIC 73e24 0 std::length_error::length_error[abi:ne180000](char const*)
PUBLIC 73e54 0 std::__throw_bad_array_new_length([abi:ne180000], void)
PUBLIC 73e88 0 __clang_call_terminate
PUBLIC 73e98 0 std::__ndk1::vector<std::__ndk1::pair<cocos2d::CCNode*, HighlightMode>, std::__ndk1::allocator<std::__ndk1::pair<cocos2d::CCNode*, HighlightMode> > >::__throw_length_error[abi:ne180000]() const
PUBLIC m 73eac 0 geode::EventListener<geode::ModStateFilter>::getPool() const
PUBLIC m 73eb0 0 geode::EventListener<geode::ModStateFilter>::handle(geode::Event*)
PUBLIC m 74024 0 geode::EventListener<geode::ModStateFilter>::~EventListener()
PUBLIC m 74084 0 geode::EventListener<geode::ModStateFilter>::~EventListener()
PUBLIC 740ec 0 std::__ndk1::__function::__base<void (geode::ModStateEvent*)>::~__base()
PUBLIC m 740f0 0 std::__ndk1::__function::__func<void (*)(geode::ModStateEvent*), std::__ndk1::allocator<void (*)(geode::ModStateEvent*)>, void (geode::ModStateEvent*)>::~__func()
PUBLIC 740f4 0 std::__ndk1::__function::__func<void (*)(geode::ModStateEvent*), std::__ndk1::allocator<void (*)(geode::ModStateEvent*)>, void (geode::ModStateEvent*)>::__clone() const
PUBLIC 7412c 0 std::__ndk1::__function::__func<void (*)(geode::ModStateEvent*), std::__ndk1::allocator<void (*)(geode::ModStateEvent*)>, void (geode::ModStateEvent*)>::__clone(std::__ndk1::__function::__base<void (geode::ModStateEvent*)>*) const
PUBLIC 74144 0 std::__ndk1::__function::__func<void (*)(geode::ModStateEvent*), std::__ndk1::allocator<void (*)(geode::ModStateEvent*)>, void (geode::ModStateEvent*)>::destroy()
PUBLIC 74148 0 std::__ndk1::__function::__func<void (*)(geode::ModStateEvent*), std::__ndk1::allocator<void (*)(geode::ModStateEvent*)>, void (geode::ModStateEvent*)>::destroy_deallocate()
PUBLIC 7414c 0 std::__ndk1::__function::__func<void (*)(geode::ModStateEvent*), std::__ndk1::allocator<void (*)(geode::ModStateEvent*)>, void (geode::ModStateEvent*)>::operator()(geode::ModStateEvent*&&)
PUBLIC 7415c 0 std::__ndk1::__function::__func<void (*)(geode::ModStateEvent*), std::__ndk1::allocator<void (*)(geode::ModStateEvent*)>, void (geode::ModStateEvent*)>::target(std::type_info const&) const
PUBLIC 74178 0 std::__ndk1::__function::__func<void (*)(geode::ModStateEvent*), std::__ndk1::allocator<void (*)(geode::ModStateEvent*)>, void (geode::ModStateEvent*)>::target_type() const
PUBLIC m 74184 0 geode::cast::traverseTypeinfoFor(void*, geode::cast::ClassTypeinfoType const*, char const*)
PUBLIC m 74288 0 geode::impl::ResultData<matjson::Value&, std::__ndk1::basic_string<char, std::__ndk1::char_traits<char>, std::__ndk1::allocator<char> > >::~ResultData()
PUBLIC 742fc 0 geode::impl::ResultData<Settings, std::__ndk1::basic_string<char, std::__ndk1::char_traits<char>, std::__ndk1::allocator<char> > >::~ResultData()
PUBLIC m 74370 0 geode::impl::ResultData<bool, std::__ndk1::basic_string<char, std::__ndk1::char_traits<char>, std::__ndk1::allocator<char> > >::~ResultData()
PUBLIC 743e4 0 std::__ndk1::__throw_bad_variant_access[abi:ne180000]()
PUBLIC 74418 0 std::__ndk1::__variant_detail::__visitation::__base::__dispatcher<(unsigned long)0>::__dispatch[abi:ne180000]<std::__ndk1::__variant_detail::__dtor<std::__ndk1::__variant_detail::__traits<std::__ndk1::basic_string<char, std::__ndk1::char_traits<char>, std::__ndk1::allocator<char> >, std::__ndk1::allocator<char> >, (std::__ndk1::__variant_detail::_Trait)1>::__destroy[abi:ne180000]()::{lambda(auto:1&)#1}, std::__ndk1::__variant_detail::__base<(std::__ndk1::__variant_detail::__traits<std::__ndk1::basic_string<char, std::__ndk1::char_traits<char>, std::__ndk1::allocator<char> >, std::__ndk1::allocator<char> >)1, std::__ndk1::allocator<char>, std::__ndk1::allocator<char> >&>(std::__ndk1::__variant_detail::__dtor<std::__ndk1::__variant_detail::__traits<std::__ndk1::basic_string<char, std::__ndk1::char_traits<char>, std::__ndk1::allocator<char> >, std::__ndk1::allocator<char> >, (std::__ndk1::__variant_detail::_Trait)1>, std::__ndk1::__variant_detail::__base<(std::__ndk1::__variant_detail::__traits<std::__ndk1::basic_string<char, std::__ndk1::char_traits<char>, std::__ndk1::allocator<char> >, std::__ndk1::allocator<char> >)1, std::__ndk1::allocator<char>, std::__ndk1::allocator<char> >&)
PUBLIC 7442c 0 std::__ndk1::__variant_detail::__visitation::__base::__dispatcher<(unsigned long)1>::__dispatch[abi:ne180000]<std::__ndk1::__variant_detail::__dtor<std::__ndk1::__variant_detail::__traits<std::__ndk1::basic_string<char, std::__ndk1::char_traits<char>, std::__ndk1::allocator<char> >, std::__ndk1::allocator<char> >, (std::__ndk1::__variant_detail::_Trait)1>::__destroy[abi:ne180000]()::{lambda(auto:1&)#1}, std::__ndk1::__variant_detail::__base<(std::__ndk1::__variant_detail::__traits<std::__ndk1::basic_string<char, std::__ndk1::char_traits<char>, std::__ndk1::allocator<char> >, std::__ndk1::allocator<char> >)1, std::__ndk1::allocator<char>, std::__ndk1::allocator<char> >&>(std::__ndk1::__variant_detail::__dtor<std::__ndk1::__variant_detail::__traits<std::__ndk1::basic_string<char, std::__ndk1::char_traits<char>, std::__ndk1::allocator<char> >, std::__ndk1::allocator<char> >, (std::__ndk1::__variant_detail::_Trait)1>, std::__ndk1::__variant_detail::__base<(std::__ndk1::__variant_detail::__traits<std::__ndk1::basic_string<char, std::__ndk1::char_traits<char>, std::__ndk1::allocator<char> >, std::__ndk1::allocator<char> >)1, std::__ndk1::allocator<char>, std::__ndk1::allocator<char> >&)
PUBLIC 74440 0 std::__ndk1::__variant_detail::__visitation::__base::__dispatcher<(unsigned long)0>::__dispatch[abi:ne180000]<std::__ndk1::__variant_detail::__dtor<std::__ndk1::__variant_detail::__traits<bool, std::__ndk1::basic_string<char, std::__ndk1::char_traits<char>, std::__ndk1::allocator<char> > >, (std::__ndk1::__variant_detail::_Trait)1>::__destroy[abi:ne180000]()::{lambda(auto:1&)#1}, std::__ndk1::__variant_detail::__base<(std::__ndk1::__variant_detail::__traits<bool, std::__ndk1::basic_string<char, std::__ndk1::char_traits<char>, std::__ndk1::allocator<char> > >)1, bool, std::__ndk1::allocator<char> >&>(std::__ndk1::__variant_detail::__dtor<std::__ndk1::__variant_detail::__traits<bool, std::__ndk1::basic_string<char, std::__ndk1::char_traits<char>, std::__ndk1::allocator<char> > >, (std::__ndk1::__variant_detail::_Trait)1>, std::__ndk1::__variant_detail::__base<(std::__ndk1::__variant_detail::__traits<bool, std::__ndk1::basic_string<char, std::__ndk1::char_traits<char>, std::__ndk1::allocator<char> > >)1, bool, std::__ndk1::allocator<char> >&)
PUBLIC 74444 0 std::__ndk1::__variant_detail::__visitation::__base::__dispatcher<(unsigned long)1>::__dispatch[abi:ne180000]<std::__ndk1::__variant_detail::__dtor<std::__ndk1::__variant_detail::__traits<bool, std::__ndk1::basic_string<char, std::__ndk1::char_traits<char>, std::__ndk1::allocator<char> > >, (std::__ndk1::__variant_detail::_Trait)1>::__destroy[abi:ne180000]()::{lambda(auto:1&)#1}, std::__ndk1::__variant_detail::__base<(std::__ndk1::__variant_detail::__traits<bool, std::__ndk1::basic_string<char, std::__ndk1::char_traits<char>, std::__ndk1::allocator<char> > >)1, bool, std::__ndk1::allocator<char> >&>(std::__ndk1::__variant_detail::__dtor<std::__ndk1::__variant_detail::__traits<bool, std::__ndk1::basic_string<char, std::__ndk1::char_traits<char>, std::__ndk1::allocator<char> > >, (std::__ndk1::__variant_detail::_Trait)1>, std::__ndk1::__variant_detail::__base<(std::__ndk1::__variant_detail::__traits<bool, std::__ndk1::basic_string<char, std::__ndk1::char_traits<char>, std::__ndk1::allocator<char> > >)1, bool, std::__ndk1::allocator<char> >&)
PUBLIC m 74458 0 std::__ndk1::basic_string<char, std::__ndk1::char_traits<char>, std::__ndk1::allocator<char> >::__init_copy_ctor_external(char const*, unsigned long)
PUBLIC 744d8 0 std::__ndk1::__variant_detail::__visitation::__base::__dispatcher<(unsigned long)0>::__dispatch[abi:ne180000]<std::__ndk1::__variant_detail::__dtor<std::__ndk1::__variant_detail::__traits<std::__ndk1::reference_wrapper<matjson::Value>, std::__ndk1::basic_string<char, std::__ndk1::char_traits<char>, std::__ndk1::allocator<char> > >, (std::__ndk1::__variant_detail::_Trait)1>::__destroy[abi:ne180000]()::{lambda(auto:1&)#1}, std::__ndk1::__variant_detail::__base<(std::__ndk1::__variant_detail::__traits<std::__ndk1::reference_wrapper<matjson::Value>, std::__ndk1::basic_string<char, std::__ndk1::char_traits<char>, std::__ndk1::allocator<char> > >)1, matjson::Value, std::__ndk1::allocator<char> >&>(std::__ndk1::__variant_detail::__dtor<std::__ndk1::__variant_detail::__traits<std::__ndk1::reference_wrapper<matjson::Value>, std::__ndk1::basic_string<char, std::__ndk1::char_traits<char>, std::__ndk1::allocator<char> > >, (std::__ndk1::__variant_detail::_Trait)1>, std::__ndk1::__variant_detail::__base<(std::__ndk1::__variant_detail::__traits<std::__ndk1::reference_wrapper<matjson::Value>, std::__ndk1::basic_string<char, std::__ndk1::char_traits<char>, std::__ndk1::allocator<char> > >)1, matjson::Value, std::__ndk1::allocator<char> >&)
PUBLIC 744dc 0 std::__ndk1::__variant_detail::__visitation::__base::__dispatcher<(unsigned long)1>::__dispatch[abi:ne180000]<std::__ndk1::__variant_detail::__dtor<std::__ndk1::__variant_detail::__traits<std::__ndk1::reference_wrapper<matjson::Value>, std::__ndk1::basic_string<char, std::__ndk1::char_traits<char>, std::__ndk1::allocator<char> > >, (std::__ndk1::__variant_detail::_Trait)1>::__destroy[abi:ne180000]()::{lambda(auto:1&)#1}, std::__ndk1::__variant_detail::__base<(std::__ndk1::__variant_detail::__traits<std::__ndk1::reference_wrapper<matjson::Value>, std::__ndk1::basic_string<char, std::__ndk1::char_traits<char>, std::__ndk1::allocator<char> > >)1, matjson::Value, std::__ndk1::allocator<char> >&>(std::__ndk1::__variant_detail::__dtor<std::__ndk1::__variant_detail::__traits<std::__ndk1::reference_wrapper<matjson::Value>, std::__ndk1::basic_string<char, std::__ndk1::char_traits<char>, std::__ndk1::allocator<char> > >, (std::__ndk1::__variant_detail::_Trait)1>, std::__ndk1::__variant_detail::__base<(std::__ndk1::__variant_detail::__traits<std::__ndk1::reference_wrapper<matjson::Value>, std::__ndk1::basic_string<char, std::__ndk1::char_traits<char>, std::__ndk1::allocator<char> > >)1, matjson::Value, std::__ndk1::allocator<char> >&)
PUBLIC 744f0 0 std::__ndk1::__variant_detail::__visitation::__base::__dispatcher<(unsigned long)0>::__dispatch[abi:ne180000]<std::__ndk1::__variant_detail::__dtor<std::__ndk1::__variant_detail::__traits<Settings, std::__ndk1::basic_string<char, std::__ndk1::char_traits<char>, std::__ndk1::allocator<char> > >, (std::__ndk1::__variant_detail::_Trait)1>::__destroy[abi:ne180000]()::{lambda(auto:1&)#1}, std::__ndk1::__variant_detail::__base<(std::__ndk1::__variant_detail::__traits<Settings, std::__ndk1::basic_string<char, std::__ndk1::char_traits<char>, std::__ndk1::allocator<char> > >)1, std::__ndk1::__variant_detail::__traits, std::__ndk1::allocator<char> >&>(std::__ndk1::__variant_detail::__dtor<std::__ndk1::__variant_detail::__traits<Settings, std::__ndk1::basic_string<char, std::__ndk1::char_traits<char>, std::__ndk1::allocator<char> > >, (std::__ndk1::__variant_detail::_Trait)1>, std::__ndk1::__variant_detail::__base<(std::__ndk1::__variant_detail::__traits<Settings, std::__ndk1::basic_string<char, std::__ndk1::char_traits<char>, std::__ndk1::allocator<char> > >)1, std::__ndk1::__variant_detail::__traits, std::__ndk1::allocator<char> >&)
PUBLIC 74504 0 std::__ndk1::__variant_detail::__visitation::__base::__dispatcher<(unsigned long)1>::__dispatch[abi:ne180000]<std::__ndk1::__variant_detail::__dtor<std::__ndk1::__variant_detail::__traits<Settings, std::__ndk1::basic_string<char, std::__ndk1::char_traits<char>, std::__ndk1::allocator<char> > >, (std::__ndk1::__variant_detail::_Trait)1>::__destroy[abi:ne180000]()::{lambda(auto:1&)#1}, std::__ndk1::__variant_detail::__base<(std::__ndk1::__variant_detail::__traits<Settings, std::__ndk1::basic_string<char, std::__ndk1::char_traits<char>, std::__ndk1::allocator<char> > >)1, std::__ndk1::__variant_detail::__traits, std::__ndk1::allocator<char> >&>(std::__ndk1::__variant_detail::__dtor<std::__ndk1::__variant_detail::__traits<Settings, std::__ndk1::basic_string<char, std::__ndk1::char_traits<char>, std::__ndk1::allocator<char> > >, (std::__ndk1::__variant_detail::_Trait)1>, std::__ndk1::__variant_detail::__base<(std::__ndk1::__variant_detail::__traits<Settings, std::__ndk1::basic_string<char, std::__ndk1::char_traits<char>, std::__ndk1::allocator<char> > >)1, std::__ndk1::__variant_detail::__traits, std::__ndk1::allocator<char> >&)
PUBLIC m 74518 0 matjson::makeObject(std::initializer_list<std::__ndk1::pair<std::__ndk1::basic_string<char, std::__ndk1::char_traits<char>, std::__ndk1::allocator<char> >, matjson::Value> >)
PUBLIC 746cc 0 _ZNSt6__ndk14pairINS_12basic_stringIcNS_11char_traitsIcEENS_9allocatorIcEEEEN7matjson5ValueEEC2B8ne180000IRA15_KcRKbTnNS_9enable_ifIXclsr10_CheckArgsE17__enable_implicitIT_T0_EEEiE4typeELi0EEEOSH_OSI_
PUBLIC 74790 0 _ZNSt6__ndk14pairINS_12basic_stringIcNS_11char_traitsIcEENS_9allocatorIcEEEEN7matjson5ValueEEC2B8ne180000IRA19_KcRKbTnNS_9enable_ifIXclsr10_CheckArgsE17__enable_implicitIT_T0_EEEiE4typeELi0EEEOSH_OSI_
PUBLIC 74854 0 _ZNSt6__ndk14pairINS_12basic_stringIcNS_11char_traitsIcEENS_9allocatorIcEEEEN7matjson5ValueEEC2B8ne180000IRA18_KcRKbTnNS_9enable_ifIXclsr10_CheckArgsE17__enable_implicitIT_T0_EEEiE4typeELi0EEEOSH_OSI_
PUBLIC m 74918 0 std::__ndk1::pair<std::__ndk1::basic_string<char, std::__ndk1::char_traits<char>, std::__ndk1::allocator<char> >, matjson::Value>::~pair()
PUBLIC 74954 0 std::__ndk1::vector<matjson::Value, std::__ndk1::allocator<matjson::Value> >::~vector[abi:ne180000]()
PUBLIC m 749bc 0 std::__ndk1::vector<matjson::Value, std::__ndk1::allocator<matjson::Value> >::__emplace_back_slow_path<matjson::Value const&>(matjson::Value const&)
PUBLIC 74b7c 0 std::__ndk1::__split_buffer<matjson::Value, std::__ndk1::allocator<matjson::Value>&>::~__split_buffer()
PUBLIC 74bd0 0 std::__ndk1::vector<matjson::Value, std::__ndk1::allocator<matjson::Value> >::__throw_length_error[abi:ne180000]() const
PUBLIC m 74be4 0 geode::Mod::getSavedValue<bool>(std::__ndk1::basic_string_view<char, std::__ndk1::char_traits<char> >)
PUBLIC 74d74 0 _GLOBAL__sub_I_DevTools.cpp
PUBLIC m 74ea8 0 DevTools::setupPlatform()
PUBLIC 751e4 0 std::__ndk1::__fs::filesystem::operator/[abi:ne180000](std::__ndk1::__fs::filesystem::path const&, std::__ndk1::__fs::filesystem::path const)
PUBLIC 75258 0 geode::Mod::get<void>()
PUBLIC 75294 0 std::__ndk1::__fs::filesystem::path::path[abi:ne180000]<char [10], void>(std::__ndk1::__fs::filesystem::path::format)
PUBLIC 752e4 0 std::__ndk1::__fs::filesystem::path::u8string[abi:ne180000]() const
PUBLIC 753e4 0 std::__ndk1::basic_string<char8_t, std::__ndk1::char_traits<char8_t>, std::__ndk1::allocator<char8_t> >::~basic_string()
PUBLIC m 753f8 0 DevTools::newFrame()
PUBLIC m 754e0 0 DevTools::render(GLRenderCtx*)
PUBLIC m 755c8 0 DevTools::renderDrawData(ImDrawData*)
PUBLIC m 75a38 0 DevTools::hasExtension(std::__ndk1::basic_string<char, std::__ndk1::char_traits<char>, std::__ndk1::allocator<char> > const&) const
PUBLIC m 75bf0 0 std::__ndk1::basic_string<char, std::__ndk1::char_traits<char>, std::__ndk1::allocator<char> >::basic_string[abi:ne180000]<0>()
PUBLIC m 75c8c 0 DevTools::renderDrawDataFallback(ImDrawData*)
PUBLIC 7612c 0 __cxx_global_var_init
PUBLIC 76568 0 __cxx_global_var_init.4
PUBLIC 769a4 0 __cxx_global_var_init.5
PUBLIC 76de0 0 geode::modifier::ModifyBase<geode::modifier::ModifyDerive<hook233<(anonymous namespace)::hook233Parent>, cocos2d::CCMouseDispatcher> >::~ModifyBase()
PUBLIC 76dfc 0 geode::modifier::ModifyBase<geode::modifier::ModifyDerive<hook248<(anonymous namespace)::hook248Parent>, cocos2d::CCTouchDispatcher> >::~ModifyBase()
PUBLIC 76e18 0 geode::modifier::ModifyBase<geode::modifier::ModifyDerive<hook307<(anonymous namespace)::hook307Parent>, cocos2d::CCIMEDispatcher> >::~ModifyBase()
PUBLIC 76e34 0 std::__ndk1::__fs::filesystem::path::operator/=[abi:ne180000](std::__ndk1::__fs::filesystem::path const&)
PUBLIC m 76f1c 0 std::__ndk1::basic_string<char, std::__ndk1::char_traits<char>, std::__ndk1::allocator<char> >::__assign_no_alias<true>(char const*, unsigned long)
PUBLIC m 76fc8 0 std::__ndk1::basic_string<char, std::__ndk1::char_traits<char>, std::__ndk1::allocator<char> >::__assign_no_alias<false>(char const*, unsigned long)
PUBLIC 770d8 0 std::__ndk1::basic_string<char8_t, std::__ndk1::char_traits<char8_t>, std::__ndk1::allocator<char8_t> >::__throw_length_error[abi:ne180000]() const
PUBLIC m 770ec 0 _ZNSt6__ndk112basic_stringIcNS_11char_traitsIcEENS_9allocatorIcEEE6appendB8ne180000IPKcTnNS_9enable_ifIXsr31__has_forward_iterator_categoryIT_EE5valueEiE4typeELi0EEERS5_SA_SA_
PUBLIC 773f0 0 geode::modifier::ModifyDerive<hook233<(anonymous namespace)::hook233Parent>, cocos2d::CCMouseDispatcher>::apply()
PUBLIC 777c0 0 std::__ndk1::shared_ptr<geode::Hook>::~shared_ptr[abi:ne180000]()
PUBLIC m 77810 0 geode::impl::ResultData<geode::Hook*, std::__ndk1::basic_string<char, std::__ndk1::char_traits<char>, std::__ndk1::allocator<char> > >::~ResultData()
PUBLIC 77884 0 std::__ndk1::vector<std::__ndk1::basic_string<char, std::__ndk1::char_traits<char>, std::__ndk1::allocator<char> >, std::__ndk1::allocator<std::__ndk1::basic_string<char, std::__ndk1::char_traits<char>, std::__ndk1::allocator<char> > > >::~vector[abi:ne180000]()
PUBLIC 77900 0 geode::modifier::ModifyBase<geode::modifier::ModifyDerive<hook233<(anonymous namespace)::hook233Parent>, cocos2d::CCMouseDispatcher> >::apply()
PUBLIC m 77904 0 _ZN5geode15UnwrapExceptionC2IRPNS_4HookEQsr4implE18IsStringStreamableIT_EEENS_4impl5OkTagEOS5_
PUBLIC 77a58 0 std::__ndk1::basic_stringstream<char, std::__ndk1::char_traits<char>, std::__ndk1::allocator<char> >::basic_stringstream[abi:ne180000]()
PUBLIC m 77b84 0 std::__ndk1::basic_stringstream<char, std::__ndk1::char_traits<char>, std::__ndk1::allocator<char> >::~basic_stringstream()
PUBLIC 77c04 0 geode::UnwrapException::~UnwrapException()
PUBLIC 77c28 0 std::__ndk1::__put_character_sequence[abi:ne180000]<char, std::__ndk1::char_traits<char> >(std::__ndk1::basic_ostream<char, std::__ndk1::char_traits<char> >, std::__ndk1::basic_ostream const*, unsigned long)
PUBLIC 77dcc 0 std::__ndk1::__pad_and_output[abi:ne180000]<char, std::__ndk1::char_traits<char> >(std::__ndk1::char_traits<char>, std::__ndk1::ostreambuf_iterator const*, std::__ndk1::ostreambuf_iterator const, std::__ndk1::ostreambuf_iterator const, std::__ndk1::ios_base&, std::__ndk1::ostreambuf_iterator)
PUBLIC 77fa8 0 std::__ndk1::basic_stringbuf<char, std::__ndk1::char_traits<char>, std::__ndk1::allocator<char> >::str[abi:ne180000]() &&
PUBLIC 78120 0 std::__ndk1::basic_stringbuf<char, std::__ndk1::char_traits<char>, std::__ndk1::allocator<char> >::__init_buf_ptrs[abi:ne180000]()
PUBLIC m 78268 0 std::__ndk1::vector<std::__ndk1::basic_string<char, std::__ndk1::char_traits<char>, std::__ndk1::allocator<char> >, std::__ndk1::allocator<std::__ndk1::basic_string<char, std::__ndk1::char_traits<char>, std::__ndk1::allocator<char> > > >::__push_back_slow_path<std::__ndk1::basic_string<char, std::__ndk1::char_traits<char>, std::__ndk1::allocator<char> > const&>(std::__ndk1::basic_string<char, std::__ndk1::char_traits<char>, std::__ndk1::allocator<char> > const&)
PUBLIC 78490 0 std::__ndk1::__split_buffer<std::__ndk1::basic_string<char, std::__ndk1::char_traits<char>, std::__ndk1::allocator<char> >, std::__ndk1::allocator<std::__ndk1::basic_string<char, std::__ndk1::char_traits<char>, std::__ndk1::allocator<char> > >&>::~__split_buffer()
PUBLIC 784f8 0 std::__ndk1::vector<std::__ndk1::basic_string<char, std::__ndk1::char_traits<char>, std::__ndk1::allocator<char> >, std::__ndk1::allocator<std::__ndk1::basic_string<char, std::__ndk1::char_traits<char>, std::__ndk1::allocator<char> > > >::__throw_length_error[abi:ne180000]() const
PUBLIC 7850c 0 std::__ndk1::__variant_detail::__visitation::__base::__dispatcher<(unsigned long)0>::__dispatch[abi:ne180000]<std::__ndk1::__variant_detail::__dtor<std::__ndk1::__variant_detail::__traits<geode::Hook*, std::__ndk1::basic_string<char, std::__ndk1::char_traits<char>, std::__ndk1::allocator<char> > >, (std::__ndk1::__variant_detail::_Trait)1>::__destroy[abi:ne180000]()::{lambda(auto:1&)#1}, std::__ndk1::__variant_detail::__base<(std::__ndk1::__variant_detail::__traits<geode::Hook*, std::__ndk1::basic_string<char, std::__ndk1::char_traits<char>, std::__ndk1::allocator<char> > >)1, geode::Hook, std::__ndk1::allocator<char> >&>(std::__ndk1::__variant_detail::__dtor<std::__ndk1::__variant_detail::__traits<geode::Hook*, std::__ndk1::basic_string<char, std::__ndk1::char_traits<char>, std::__ndk1::allocator<char> > >, (std::__ndk1::__variant_detail::_Trait)1>, std::__ndk1::__variant_detail::__base<(std::__ndk1::__variant_detail::__traits<geode::Hook*, std::__ndk1::basic_string<char, std::__ndk1::char_traits<char>, std::__ndk1::allocator<char> > >)1, geode::Hook, std::__ndk1::allocator<char> >&)
PUBLIC 78510 0 std::__ndk1::__variant_detail::__visitation::__base::__dispatcher<(unsigned long)1>::__dispatch[abi:ne180000]<std::__ndk1::__variant_detail::__dtor<std::__ndk1::__variant_detail::__traits<geode::Hook*, std::__ndk1::basic_string<char, std::__ndk1::char_traits<char>, std::__ndk1::allocator<char> > >, (std::__ndk1::__variant_detail::_Trait)1>::__destroy[abi:ne180000]()::{lambda(auto:1&)#1}, std::__ndk1::__variant_detail::__base<(std::__ndk1::__variant_detail::__traits<geode::Hook*, std::__ndk1::basic_string<char, std::__ndk1::char_traits<char>, std::__ndk1::allocator<char> > >)1, geode::Hook, std::__ndk1::allocator<char> >&>(std::__ndk1::__variant_detail::__dtor<std::__ndk1::__variant_detail::__traits<geode::Hook*, std::__ndk1::basic_string<char, std::__ndk1::char_traits<char>, std::__ndk1::allocator<char> > >, (std::__ndk1::__variant_detail::_Trait)1>, std::__ndk1::__variant_detail::__base<(std::__ndk1::__variant_detail::__traits<geode::Hook*, std::__ndk1::basic_string<char, std::__ndk1::char_traits<char>, std::__ndk1::allocator<char> > >)1, geode::Hook, std::__ndk1::allocator<char> >&)
PUBLIC m 78524 0 std::__ndk1::__tree<std::__ndk1::__value_type<std::__ndk1::basic_string<char, std::__ndk1::char_traits<char>, std::__ndk1::allocator<char> >, std::__ndk1::shared_ptr<geode::Hook> >, std::__ndk1::__map_value_compare<std::__ndk1::basic_string<char, std::__ndk1::char_traits<char>, std::__ndk1::allocator<char> >, std::__ndk1::__value_type<std::__ndk1::basic_string<char, std::__ndk1::char_traits<char>, std::__ndk1::allocator<char> >, std::__ndk1::shared_ptr<geode::Hook> >, std::__ndk1::less<std::__ndk1::basic_string<char, std::__ndk1::char_traits<char>, std::__ndk1::allocator<char> > >, true>, std::__ndk1::allocator<std::__ndk1::__value_type<std::__ndk1::basic_string<char, std::__ndk1::char_traits<char>, std::__ndk1::allocator<char> >, std::__ndk1::shared_ptr<geode::Hook> > > >::find<std::__ndk1::basic_string<char, std::__ndk1::char_traits<char>, std::__ndk1::allocator<char> > >(std::__ndk1::basic_string<char, std::__ndk1::char_traits<char>, std::__ndk1::allocator<char> > const&)
PUBLIC 78644 0 std::__ndk1::__tree<std::__ndk1::__value_type<std::__ndk1::basic_string<char, std::__ndk1::char_traits<char>, std::__ndk1::allocator<char> >, std::__ndk1::shared_ptr<geode::Hook> >, std::__ndk1::__map_value_compare<std::__ndk1::basic_string<char, std::__ndk1::char_traits<char>, std::__ndk1::allocator<char> >, std::__ndk1::__value_type<std::__ndk1::basic_string<char, std::__ndk1::char_traits<char>, std::__ndk1::allocator<char> >, std::__ndk1::shared_ptr<geode::Hook> >, std::__ndk1::less<std::__ndk1::basic_string<char, std::__ndk1::char_traits<char>, std::__ndk1::allocator<char> > >, true>, std::__ndk1::allocator<std::__ndk1::__value_type<std::__ndk1::basic_string<char, std::__ndk1::char_traits<char>, std::__ndk1::allocator<char> >, std::__ndk1::shared_ptr<geode::Hook> > > >::erase(std::__ndk1::__tree_const_iterator<std::__ndk1::__value_type<std::__ndk1::basic_string<char, std::__ndk1::char_traits<char>, std::__ndk1::allocator<char> >, std::__ndk1::shared_ptr<geode::Hook> >, std::__ndk1::__tree_node<std::__ndk1::__value_type<std::__ndk1::basic_string<char, std::__ndk1::char_traits<char>, std::__ndk1::allocator<char> >, std::__ndk1::shared_ptr<geode::Hook> >, void*>*, long>)
PUBLIC 78718 0 std::__ndk1::__tree_remove[abi:ne180000]<std::__ndk1::__tree_node_base<void*>*>(std::__ndk1::__tree_node_base<void*>*, std::__ndk1::__tree_node_base<void*>*)
PUBLIC 78ae0 0 std::__ndk1::__tree<std::__ndk1::__value_type<std::__ndk1::basic_string<char, std::__ndk1::char_traits<char>, std::__ndk1::allocator<char> >, std::__ndk1::shared_ptr<geode::Hook> >, std::__ndk1::__map_value_compare<std::__ndk1::basic_string<char, std::__ndk1::char_traits<char>, std::__ndk1::allocator<char> >, std::__ndk1::__value_type<std::__ndk1::basic_string<char, std::__ndk1::char_traits<char>, std::__ndk1::allocator<char> >, std::__ndk1::shared_ptr<geode::Hook> >, std::__ndk1::less<std::__ndk1::basic_string<char, std::__ndk1::char_traits<char>, std::__ndk1::allocator<char> > >, true>, std::__ndk1::allocator<std::__ndk1::__value_type<std::__ndk1::basic_string<char, std::__ndk1::char_traits<char>, std::__ndk1::allocator<char> >, std::__ndk1::shared_ptr<geode::Hook> > > >::destroy(std::__ndk1::__tree_node<std::__ndk1::__value_type<std::__ndk1::basic_string<char, std::__ndk1::char_traits<char>, std::__ndk1::allocator<char> >, std::__ndk1::shared_ptr<geode::Hook> >, void*>*)
PUBLIC 78b6c 0 geode::modifier::AsStaticFunction_dispatchScrollMSG<hook233<(anonymous namespace)::hook233Parent>, bool (hook233<(anonymous namespace)::hook233Parent>::*)(float, float)>::Impl<bool (hook233<(anonymous namespace)::hook233Parent>::*)(float, float)>::function(hook233<(anonymous namespace)::hook233Parent>*, float, float)
PUBLIC 78d38 0 std::__ndk1::shared_ptr<tulip::hook::CallingConvention>::~shared_ptr[abi:ne180000]()
PUBLIC m 78d88 0 tulip::hook::HandlerMetadata::~HandlerMetadata()
PUBLIC 78dec 0 std::__ndk1::__tree<std::__ndk1::__value_type<std::__ndk1::basic_string<char, std::__ndk1::char_traits<char>, std::__ndk1::allocator<char> >, std::__ndk1::shared_ptr<geode::Hook> >, std::__ndk1::__map_value_compare<std::__ndk1::basic_string<char, std::__ndk1::char_traits<char>, std::__ndk1::allocator<char> >, std::__ndk1::__value_type<std::__ndk1::basic_string<char, std::__ndk1::char_traits<char>, std::__ndk1::allocator<char> >, std::__ndk1::shared_ptr<geode::Hook> >, std::__ndk1::less<std::__ndk1::basic_string<char, std::__ndk1::char_traits<char>, std::__ndk1::allocator<char> > >, true>, std::__ndk1::allocator<std::__ndk1::__value_type<std::__ndk1::basic_string<char, std::__ndk1::char_traits<char>, std::__ndk1::allocator<char> >, std::__ndk1::shared_ptr<geode::Hook> > > >::__emplace_unique_key_args<std::__ndk1::basic_string<char, std::__ndk1::char_traits<char>, std::__ndk1::allocator<char> >, std::__ndk1::piecewise_construct_t const&, std::__ndk1::tuple<std::__ndk1::basic_string<char, std::__ndk1::char_traits<char>, std::__ndk1::allocator<char> >&&>, std::__ndk1::tuple<> >(std::__ndk1::basic_string<char, std::__ndk1::char_traits<char>, std::__ndk1::allocator<char> > const&, std::__ndk1::piecewise_construct_t const&, std::__ndk1::tuple<std::__ndk1::basic_string<char, std::__ndk1::char_traits<char>, std::__ndk1::allocator<char> >&&>, std::__ndk1::tuple<>)
PUBLIC 78f64 0 std::__ndk1::__tree_balance_after_insert[abi:ne180000]<std::__ndk1::__tree_node_base<void*>*>(std::__ndk1::__tree_node_base<void*>*, std::__ndk1::__tree_node_base<void*>*)
PUBLIC 79114 0 geode::modifier::ModifyDerive<hook248<(anonymous namespace)::hook248Parent>, cocos2d::CCTouchDispatcher>::apply()
PUBLIC 794f4 0 geode::modifier::ModifyBase<geode::modifier::ModifyDerive<hook248<(anonymous namespace)::hook248Parent>, cocos2d::CCTouchDispatcher> >::apply()
PUBLIC 794f8 0 geode::modifier::AsStaticFunction_touches<hook248<(anonymous namespace)::hook248Parent>, void (hook248<(anonymous namespace)::hook248Parent>::*)(cocos2d::CCSet*, cocos2d::CCEvent*, unsigned int)>::Impl<void (hook248<(anonymous namespace)::hook248Parent>::*)(cocos2d::CCSet*, cocos2d::CCEvent*, unsigned int)>::function(hook248<(anonymous namespace)::hook248Parent>*, cocos2d::CCSet*, cocos2d::CCEvent*, unsigned int)
PUBLIC 79958 0 geode::modifier::ModifyDerive<hook307<(anonymous namespace)::hook307Parent>, cocos2d::CCIMEDispatcher>::apply()
PUBLIC 79fd0 0 geode::modifier::ModifyBase<geode::modifier::ModifyDerive<hook307<(anonymous namespace)::hook307Parent>, cocos2d::CCIMEDispatcher> >::apply()
PUBLIC 79fd4 0 geode::modifier::AsStaticFunction_dispatchDeleteBackward<hook307<(anonymous namespace)::hook307Parent>, void (hook307<(anonymous namespace)::hook307Parent>::*)()>::Impl<void (hook307<(anonymous namespace)::hook307Parent>::*)()>::function(hook307<(anonymous namespace)::hook307Parent>*)
PUBLIC 7a058 0 geode::modifier::AsStaticFunction_dispatchInsertText<hook307<(anonymous namespace)::hook307Parent>, void (hook307<(anonymous namespace)::hook307Parent>::*)(char const*, int, cocos2d::enumKeyCodes)>::Impl<void (hook307<(anonymous namespace)::hook307Parent>::*)(char const*, int, cocos2d::enumKeyCodes)>::function(hook307<(anonymous namespace)::hook307Parent>*, char const*, int, cocos2d::enumKeyCodes)
PUBLIC 7a1a0 0 __cxx_global_var_init
PUBLIC 7a5dc 0 __cxx_global_var_init.1
PUBLIC 7aa18 0 __cxx_global_var_init.2
PUBLIC 7ae54 0 __cxx_global_var_init.3
PUBLIC 7b290 0 __cxx_global_var_init.4
PUBLIC 7b6cc 0 geode::modifier::ModifyBase<geode::modifier::ModifyDerive<hook14<(anonymous namespace)::hook14Parent>, cocos2d::CCNode> >::~ModifyBase()
PUBLIC 7b6e8 0 geode::modifier::ModifyBase<geode::modifier::ModifyDerive<hook23<(anonymous namespace)::hook23Parent>, cocos2d::CCKeyboardDispatcher> >::~ModifyBase()
PUBLIC 7b704 0 geode::modifier::ModifyBase<geode::modifier::ModifyDerive<hook36<(anonymous namespace)::hook36Parent>, MenuLayer> >::~ModifyBase()
PUBLIC 7b720 0 geode::modifier::ModifyBase<geode::modifier::ModifyDerive<hook44<(anonymous namespace)::hook44Parent>, cocos2d::CCDirector> >::~ModifyBase()
PUBLIC 7b73c 0 geode::modifier::ModifyBase<geode::modifier::ModifyDerive<hook103<(anonymous namespace)::hook103Parent>, cocos2d::CCEGLView> >::~ModifyBase()
PUBLIC 7b758 0 geode::modifier::ModifyDerive<hook14<(anonymous namespace)::hook14Parent>, cocos2d::CCNode>::apply()
PUBLIC 7ba84 0 geode::modifier::ModifyBase<geode::modifier::ModifyDerive<hook14<(anonymous namespace)::hook14Parent>, cocos2d::CCNode> >::apply()
PUBLIC 7ba88 0 geode::modifier::AsStaticFunction_sortAllChildren<hook14<(anonymous namespace)::hook14Parent>, void (hook14<(anonymous namespace)::hook14Parent>::*)()>::Impl<void (hook14<(anonymous namespace)::hook14Parent>::*)()>::function(hook14<(anonymous namespace)::hook14Parent>*)
PUBLIC 7bb4c 0 geode::addresser::Addresser::addressOfVirtual<void, cocos2d::CCNode, >(void (cocos2d::CCNode::*)())
PUBLIC 7bc68 0 cocos2d::CCCopying::copyWithZone(cocos2d::CCZone*)
PUBLIC 7bc70 0 geode::modifier::ModifyDerive<hook23<(anonymous namespace)::hook23Parent>, cocos2d::CCKeyboardDispatcher>::apply()
PUBLIC 7c05c 0 geode::modifier::ModifyBase<geode::modifier::ModifyDerive<hook23<(anonymous namespace)::hook23Parent>, cocos2d::CCKeyboardDispatcher> >::apply()
PUBLIC 7c060 0 geode::modifier::AsStaticFunction_dispatchKeyboardMSG<hook23<(anonymous namespace)::hook23Parent>, bool (hook23<(anonymous namespace)::hook23Parent>::*)(cocos2d::enumKeyCodes, bool, bool)>::Impl<bool (hook23<(anonymous namespace)::hook23Parent>::*)(cocos2d::enumKeyCodes, bool, bool)>::function(hook23<(anonymous namespace)::hook23Parent>*, cocos2d::enumKeyCodes, bool, bool)
PUBLIC 7c150 0 geode::modifier::ModifyDerive<hook36<(anonymous namespace)::hook36Parent>, MenuLayer>::apply()
PUBLIC 7c4b0 0 geode::modifier::ModifyBase<geode::modifier::ModifyDerive<hook36<(anonymous namespace)::hook36Parent>, MenuLayer> >::apply()
PUBLIC 7c4b4 0 geode::modifier::AsStaticFunction_onMoreGames<hook36<(anonymous namespace)::hook36Parent>, void (hook36<(anonymous namespace)::hook36Parent>::*)(cocos2d::CCObject*)>::Impl<void (hook36<(anonymous namespace)::hook36Parent>::*)(cocos2d::CCObject*)>::function(hook36<(anonymous namespace)::hook36Parent>*, cocos2d::CCObject*)
PUBLIC 7c57c 0 geode::modifier::ModifyDerive<hook44<(anonymous namespace)::hook44Parent>, cocos2d::CCDirector>::apply()
PUBLIC 7cb9c 0 geode::modifier::ModifyBase<geode::modifier::ModifyDerive<hook44<(anonymous namespace)::hook44Parent>, cocos2d::CCDirector> >::apply()
PUBLIC 7cba0 0 geode::modifier::AsStaticFunction_drawScene<hook44<(anonymous namespace)::hook44Parent>, void (hook44<(anonymous namespace)::hook44Parent>::*)()>::Impl<void (hook44<(anonymous namespace)::hook44Parent>::*)()>::function(hook44<(anonymous namespace)::hook44Parent>*)
PUBLIC 7d02c 0 geode::modifier::AsStaticFunction_willSwitchToScene<hook44<(anonymous namespace)::hook44Parent>, void (hook44<(anonymous namespace)::hook44Parent>::*)(cocos2d::CCScene*)>::Impl<void (hook44<(anonymous namespace)::hook44Parent>::*)(cocos2d::CCScene*)>::function(hook44<(anonymous namespace)::hook44Parent>*, cocos2d::CCScene*)
PUBLIC 7d0dc 0 geode::modifier::ModifyDerive<hook103<(anonymous namespace)::hook103Parent>, cocos2d::CCEGLView>::apply()
PUBLIC 7d414 0 geode::modifier::ModifyBase<geode::modifier::ModifyDerive<hook103<(anonymous namespace)::hook103Parent>, cocos2d::CCEGLView> >::apply()
PUBLIC 7d418 0 geode::modifier::AsStaticFunction_swapBuffers<hook103<(anonymous namespace)::hook103Parent>, void (hook103<(anonymous namespace)::hook103Parent>::*)()>::Impl<void (hook103<(anonymous namespace)::hook103Parent>::*)()>::function(hook103<(anonymous namespace)::hook103Parent>*)
PUBLIC 7d648 0 geode::addresser::Addresser::addressOfVirtual<void, cocos2d::CCEGLView, >(void (cocos2d::CCEGLView::*)())
PUBLIC m 7d71c 0 DevTools::drawAdvancedSettings()
PUBLIC m 7d874 0 DevTools::drawModGraph()
PUBLIC m 7d988 0 DevTools::drawModGraphNode(geode::Mod*)
PUBLIC 7dc4c 0 std::__ndk1::vector<geode::ModMetadata::Dependency, std::__ndk1::allocator<geode::ModMetadata::Dependency> >::~vector[abi:ne180000]()
PUBLIC m 7dcc8 0 DevTools::inputMetadata(void*, geode::ModMetadata)
PUBLIC 7ef90 0 (anonymous namespace)::inputTextMultiline(char const*, std::__ndk1::optional<std::__ndk1::basic_string<char, std::__ndk1::char_traits<char>, std::__ndk1::allocator<char> > >)
PUBLIC 7f148 0 std::__ndk1::__optional_destruct_base<geode::ModMetadata::IssuesInfo, false>::~__optional_destruct_base[abi:ne180000]()
PUBLIC 7f19c 0 std::__ndk1::vector<geode::ModMetadata::Incompatibility, std::__ndk1::allocator<geode::ModMetadata::Incompatibility> >::~vector[abi:ne180000]()
PUBLIC m 7f218 0 geode::ModMetadata::IssuesInfo::~IssuesInfo()
PUBLIC m 7f264 0 DevTools::drawNodeAttributes(cocos2d::CCNode*)
PUBLIC 81768 0 geode::cocos::CCDictionaryExt<std::__ndk1::basic_string<char, std::__ndk1::char_traits<char>, std::__ndk1::allocator<char> >, cocos2d::CCTexture2D*>::~CCDictionaryExt()
PUBLIC 81784 0 geode::cocos::CCDictionaryExt<std::__ndk1::basic_string<char, std::__ndk1::char_traits<char>, std::__ndk1::allocator<char> >, cocos2d::CCSpriteFrame*>::~CCDictionaryExt()
PUBLIC m 817a0 0 DevTools::drawAttributes()
PUBLIC 817b8 0 std::__ndk1::__throw_bad_optional_access[abi:ne180000]()
PUBLIC m 817ec 0 fmt::v11::basic_memory_buffer<char, (unsigned long)500, std::__ndk1::allocator<char> >::grow(fmt::v11::detail::buffer<char>&, unsigned long)
PUBLIC m 81864 0 fmt::v11::detail::write_padded<char, (fmt::v11::align::type)2, fmt::v11::basic_appender<char>, fmt::v11::detail::write_ptr<char, fmt::v11::basic_appender<char>, unsigned long>(fmt::v11::basic_appender<char>, unsigned long, fmt::v11::format_specs const*)::{lambda(fmt::v11::basic_appender<char>&)#1}>(fmt::v11::basic_appender<char>, fmt::v11::format_specs const&, unsigned long, unsigned long, fmt::v11::detail::write_ptr<char, fmt::v11::basic_appender<char>, unsigned long>(fmt::v11::basic_appender<char>, unsigned long, fmt::v11::format_specs const*)::{lambda(fmt::v11::basic_appender<char>&)#1})
PUBLIC m 81a84 0 fmt::v11::detail::fill<char, fmt::v11::basic_appender<char> >(fmt::v11::basic_appender<char>, unsigned long, fmt::v11::detail::fill_t const&)
PUBLIC m 81c54 0 fmt::v11::detail::copy_noinline<char, char*, fmt::v11::basic_appender<char> >(char*, char*, fmt::v11::basic_appender<char>)
PUBLIC m 81da4 0 drawLayoutArrows(ImDrawList&, geode::AxisLayout*, ImVec2 const&, ImVec2 const&)
PUBLIC 82068 0 drawRowAxisArrow<unsigned int>(ImDrawList&, float, float, ImVec2 const&, ImVec2 const&, geode::AxisAlignment, bool, unsigned int)
PUBLIC 821c8 0 drawColAxisArrow<unsigned int>(ImDrawList&, float, float, ImVec2 const&, ImVec2 const&, geode::AxisAlignment, bool, unsigned int)
PUBLIC m 82318 0 DevTools::drawHighlight(cocos2d::CCNode*, HighlightMode)
PUBLIC m 827d0 0 DevTools::drawLayoutHighlights(cocos2d::CCNode*)
PUBLIC m 827d4 0 DevTools::drawGD(GLRenderCtx*)
PUBLIC m 82b44 0 getReadableAddresses()
PUBLIC 831f0 0 std::__ndk1::vector<std::__ndk1::pair<unsigned long, unsigned long>, std::__ndk1::allocator<std::__ndk1::pair<unsigned long, unsigned long> > >::~vector[abi:ne180000]()
PUBLIC m 83208 0 std::__ndk1::basic_ifstream<char, std::__ndk1::char_traits<char> >::~basic_ifstream()
PUBLIC m 83258 0 canReadAddr(unsigned long, unsigned long)
PUBLIC m 8336c 0 demangle(std::__ndk1::basic_string_view<char, std::__ndk1::char_traits<char> >)
PUBLIC 83bec 0 std::__ndk1::unordered_map<std::__ndk1::basic_string_view<char, std::__ndk1::char_traits<char> >, std::__ndk1::basic_string<char, std::__ndk1::char_traits<char>, std::__ndk1::allocator<char> >, std::__ndk1::hash<std::__ndk1::basic_string_view<char, std::__ndk1::char_traits<char> > >, std::__ndk1::equal_to<std::__ndk1::basic_string_view<char, std::__ndk1::char_traits<char> > >, std::__ndk1::allocator<std::__ndk1::pair<std::__ndk1::basic_string_view<char, std::__ndk1::char_traits<char> > const, std::__ndk1::basic_string<char, std::__ndk1::char_traits<char>, std::__ndk1::allocator<char> > > > >::~unordered_map[abi:ne180000]()
PUBLIC m 83c5c 0 findStdString(SafePtr)
PUBLIC m 83e3c 0 DevTools::drawMemory()
PUBLIC 85c84 0 std::__ndk1::vector<std::__ndk1::pair<unsigned long, unsigned long>, std::__ndk1::allocator<std::__ndk1::pair<unsigned long, unsigned long> > >::__throw_length_error[abi:ne180000]() const
PUBLIC m 85c98 0 std::__ndk1::basic_string<char, std::__ndk1::char_traits<char>, std::__ndk1::allocator<char> >::__assign_external(char const*, unsigned long)
PUBLIC m 85dc0 0 std::__ndk1::basic_string<char, std::__ndk1::char_traits<char>, std::__ndk1::allocator<char> >::__assign_external(char const*)
PUBLIC 85df4 0 std::__ndk1::basic_string<char, std::__ndk1::char_traits<char>, std::__ndk1::allocator<char> >::__throw_out_of_range[abi:ne180000]() const
PUBLIC 85e08 0 std::__ndk1::__throw_out_of_range[abi:ne180000](char const*)
PUBLIC 85e58 0 std::out_of_range::out_of_range[abi:ne180000](char const*)
PUBLIC m 85e88 0 fmt::v11::format_error::runtime_error(char const*)
PUBLIC m 85eb8 0 fmt::v11::format_error::~format_error()
PUBLIC 85edc 0 std::__ndk1::__variant_detail::__visitation::__base::__dispatcher<(unsigned long)0>::__dispatch[abi:ne180000]<std::__ndk1::__variant_detail::__dtor<std::__ndk1::__variant_detail::__traits<std::__ndk1::monostate, std::__ndk1::basic_string<char, std::__ndk1::char_traits<char>, std::__ndk1::allocator<char> > >, (std::__ndk1::__variant_detail::_Trait)1>::__destroy[abi:ne180000]()::{lambda(auto:1&)#1}, std::__ndk1::__variant_detail::__base<(std::__ndk1::__variant_detail::__traits<std::__ndk1::monostate, std::__ndk1::basic_string<char, std::__ndk1::char_traits<char>, std::__ndk1::allocator<char> > >)1, std::__ndk1::__variant_detail::__traits, std::__ndk1::allocator<char> >&>(std::__ndk1::__variant_detail::__dtor<std::__ndk1::__variant_detail::__traits<std::__ndk1::monostate, std::__ndk1::basic_string<char, std::__ndk1::char_traits<char>, std::__ndk1::allocator<char> > >, (std::__ndk1::__variant_detail::_Trait)1>, std::__ndk1::__variant_detail::__base<(std::__ndk1::__variant_detail::__traits<std::__ndk1::monostate, std::__ndk1::basic_string<char, std::__ndk1::char_traits<char>, std::__ndk1::allocator<char> > >)1, std::__ndk1::__variant_detail::__traits, std::__ndk1::allocator<char> >&)
PUBLIC 85ee0 0 std::__ndk1::__variant_detail::__visitation::__base::__dispatcher<(unsigned long)1>::__dispatch[abi:ne180000]<std::__ndk1::__variant_detail::__dtor<std::__ndk1::__variant_detail::__traits<std::__ndk1::monostate, std::__ndk1::basic_string<char, std::__ndk1::char_traits<char>, std::__ndk1::allocator<char> > >, (std::__ndk1::__variant_detail::_Trait)1>::__destroy[abi:ne180000]()::{lambda(auto:1&)#1}, std::__ndk1::__variant_detail::__base<(std::__ndk1::__variant_detail::__traits<std::__ndk1::monostate, std::__ndk1::basic_string<char, std::__ndk1::char_traits<char>, std::__ndk1::allocator<char> > >)1, std::__ndk1::__variant_detail::__traits, std::__ndk1::allocator<char> >&>(std::__ndk1::__variant_detail::__dtor<std::__ndk1::__variant_detail::__traits<std::__ndk1::monostate, std::__ndk1::basic_string<char, std::__ndk1::char_traits<char>, std::__ndk1::allocator<char> > >, (std::__ndk1::__variant_detail::_Trait)1>, std::__ndk1::__variant_detail::__base<(std::__ndk1::__variant_detail::__traits<std::__ndk1::monostate, std::__ndk1::basic_string<char, std::__ndk1::char_traits<char>, std::__ndk1::allocator<char> > >)1, std::__ndk1::__variant_detail::__traits, std::__ndk1::allocator<char> >&)
PUBLIC m 85ef4 0 std::__ndk1::vector<std::__ndk1::basic_string<char, std::__ndk1::char_traits<char>, std::__ndk1::allocator<char> >, std::__ndk1::allocator<std::__ndk1::basic_string<char, std::__ndk1::char_traits<char>, std::__ndk1::allocator<char> > > >::__push_back_slow_path<std::__ndk1::basic_string<char, std::__ndk1::char_traits<char>, std::__ndk1::allocator<char> > >(std::__ndk1::basic_string<char, std::__ndk1::char_traits<char>, std::__ndk1::allocator<char> >&&)
PUBLIC 8605c 0 std::__ndk1::__murmur2_or_cityhash<unsigned long, (unsigned long)64>::operator()[abi:ne180000](void const*, unsigned long) const
PUBLIC 864b4 0 std::__ndk1::unique_ptr<std::__ndk1::__hash_node<std::__ndk1::__hash_value_type<std::__ndk1::basic_string_view<char, std::__ndk1::char_traits<char> >, std::__ndk1::basic_string<char, std::__ndk1::char_traits<char>, std::__ndk1::allocator<char> > >, void*>, std::__ndk1::__hash_node_destructor<std::__ndk1::allocator<std::__ndk1::__hash_node<std::__ndk1::__hash_value_type<std::__ndk1::basic_string_view<char, std::__ndk1::char_traits<char> >, std::__ndk1::basic_string<char, std::__ndk1::char_traits<char>, std::__ndk1::allocator<char> > >, void*> > > >::~unique_ptr[abi:ne180000]()
PUBLIC m 86504 0 fmt::v11::detail::value<fmt::v11::context>::format_custom_arg<tm, fmt::v11::formatter<tm, char, void> >(void*, fmt::v11::basic_format_parse_context<char>&, fmt::v11::context&)
PUBLIC m 86628 0 fmt::v11::detail::parse_align<char>(char const*, char const*, fmt::v11::format_specs&)
PUBLIC m 86800 0 fmt::v11::detail::parse_dynamic_spec<char>(char const*, char const*, int&, fmt::v11::detail::arg_ref<char>&, fmt::v11::basic_format_parse_context<char>&)
PUBLIC m 869a4 0 fmt::v11::detail::parse_chrono_format<char, fmt::v11::detail::tm_format_checker>(char const*, char const*, fmt::v11::detail::tm_format_checker&&)
PUBLIC m 86c74 0 fmt::v11::detail::do_parse_arg_id<char, fmt::v11::detail::dynamic_spec_id_handler<char>&>(char const*, char const*, fmt::v11::detail::dynamic_spec_id_handler<char>&)
PUBLIC m 86e08 0 fmt::v11::detail::tm_format_checker::unsupported()
PUBLIC m 86e58 0 fmt::v11::formatter<tm, char, void>::do_format<fmt::v11::context, std::__ndk1::chrono::duration<long long, std::__ndk1::ratio<(long)1, (long)1> > >(tm const&, fmt::v11::context&, std::__ndk1::chrono::duration<long long, std::__ndk1::ratio<(long)1, (long)1> > const*) const
PUBLIC m 87098 0 fmt::v11::detail::handle_dynamic_spec<fmt::v11::detail::width_checker, fmt::v11::context>(int&, fmt::v11::detail::arg_ref<fmt::v11::context::char_type>, fmt::v11::context&)
PUBLIC m 871ac 0 fmt::v11::detail::parse_chrono_format<char, fmt::v11::detail::tm_writer<std::__ndk1::back_insert_iterator<fmt::v11::basic_memory_buffer<char, (unsigned long)500, std::__ndk1::allocator<char> > >, char, std::__ndk1::chrono::duration<long long, std::__ndk1::ratio<(long)1, (long)1> > >&>(char const*, char const*, fmt::v11::detail::tm_writer<std::__ndk1::back_insert_iterator<fmt::v11::basic_memory_buffer<char, (unsigned long)500, std::__ndk1::allocator<char> > >, char, std::__ndk1::chrono::duration<long long, std::__ndk1::ratio<(long)1, (long)1> > >&)
PUBLIC m 881ac 0 fmt::v11::detail::write<char, fmt::v11::basic_appender<char> >(fmt::v11::basic_appender<char>, fmt::v11::basic_string_view<char>, fmt::v11::format_specs const&)
PUBLIC m 88428 0 fmt::v11::detail::get_dynamic_spec<fmt::v11::detail::width_checker, fmt::v11::basic_format_arg<fmt::v11::context> >(fmt::v11::basic_format_arg<fmt::v11::context>)
PUBLIC m 884bc 0 fmt::v11::basic_format_args<fmt::v11::context>::get<char>(fmt::v11::basic_string_view<char>) const
PUBLIC m 88614 0 fmt::v11::detail::tm_writer<std::__ndk1::back_insert_iterator<fmt::v11::basic_memory_buffer<char, (unsigned long)500, std::__ndk1::allocator<char> > >, char, std::__ndk1::chrono::duration<long long, std::__ndk1::ratio<(long)1, (long)1> > >::on_year(fmt::v11::detail::numeric_system)
PUBLIC m 88744 0 fmt::v11::detail::tm_writer<std::__ndk1::back_insert_iterator<fmt::v11::basic_memory_buffer<char, (unsigned long)500, std::__ndk1::allocator<char> > >, char, std::__ndk1::chrono::duration<long long, std::__ndk1::ratio<(long)1, (long)1> > >::on_short_year(fmt::v11::detail::numeric_system)
PUBLIC m 88900 0 fmt::v11::detail::tm_writer<std::__ndk1::back_insert_iterator<fmt::v11::basic_memory_buffer<char, (unsigned long)500, std::__ndk1::allocator<char> > >, char, std::__ndk1::chrono::duration<long long, std::__ndk1::ratio<(long)1, (long)1> > >::on_century(fmt::v11::detail::numeric_system)
PUBLIC m 88b64 0 fmt::v11::detail::tm_writer<std::__ndk1::back_insert_iterator<fmt::v11::basic_memory_buffer<char, (unsigned long)500, std::__ndk1::allocator<char> > >, char, std::__ndk1::chrono::duration<long long, std::__ndk1::ratio<(long)1, (long)1> > >::on_iso_week_based_short_year()
PUBLIC 88d60 0 fmt::v11::detail::tm_writer<std::__ndk1::back_insert_iterator<fmt::v11::basic_memory_buffer<char, (unsigned long)500, std::__ndk1::allocator<char> > >, char, std::__ndk1::chrono::duration<long long, std::__ndk1::ratio<(long)1, (long)1> > >::on_abbr_weekday()
PUBLIC m 88ea0 0 fmt::v11::detail::tm_writer<std::__ndk1::back_insert_iterator<fmt::v11::basic_memory_buffer<char, (unsigned long)500, std::__ndk1::allocator<char> > >, char, std::__ndk1::chrono::duration<long long, std::__ndk1::ratio<(long)1, (long)1> > >::on_dec0_weekday(fmt::v11::detail::numeric_system)
PUBLIC m 88ff8 0 fmt::v11::detail::tm_writer<std::__ndk1::back_insert_iterator<fmt::v11::basic_memory_buffer<char, (unsigned long)500, std::__ndk1::allocator<char> > >, char, std::__ndk1::chrono::duration<long long, std::__ndk1::ratio<(long)1, (long)1> > >::on_dec1_weekday(fmt::v11::detail::numeric_system)
PUBLIC 8915c 0 fmt::v11::detail::tm_writer<std::__ndk1::back_insert_iterator<fmt::v11::basic_memory_buffer<char, (unsigned long)500, std::__ndk1::allocator<char> > >, char, std::__ndk1::chrono::duration<long long, std::__ndk1::ratio<(long)1, (long)1> > >::on_abbr_month()
PUBLIC m 8929c 0 fmt::v11::detail::tm_writer<std::__ndk1::back_insert_iterator<fmt::v11::basic_memory_buffer<char, (unsigned long)500, std::__ndk1::allocator<char> > >, char, std::__ndk1::chrono::duration<long long, std::__ndk1::ratio<(long)1, (long)1> > >::on_dec_month(fmt::v11::detail::numeric_system)
PUBLIC m 89440 0 fmt::v11::detail::tm_writer<std::__ndk1::back_insert_iterator<fmt::v11::basic_memory_buffer<char, (unsigned long)500, std::__ndk1::allocator<char> > >, char, std::__ndk1::chrono::duration<long long, std::__ndk1::ratio<(long)1, (long)1> > >::on_dec0_week_of_year(fmt::v11::detail::numeric_system, fmt::v11::detail::pad_type)
PUBLIC m 89590 0 fmt::v11::detail::tm_writer<std::__ndk1::back_insert_iterator<fmt::v11::basic_memory_buffer<char, (unsigned long)500, std::__ndk1::allocator<char> > >, char, std::__ndk1::chrono::duration<long long, std::__ndk1::ratio<(long)1, (long)1> > >::on_dec1_week_of_year(fmt::v11::detail::numeric_system, fmt::v11::detail::pad_type)
PUBLIC m 896f4 0 fmt::v11::detail::tm_writer<std::__ndk1::back_insert_iterator<fmt::v11::basic_memory_buffer<char, (unsigned long)500, std::__ndk1::allocator<char> > >, char, std::__ndk1::chrono::duration<long long, std::__ndk1::ratio<(long)1, (long)1> > >::on_iso_week_of_year(fmt::v11::detail::numeric_system, fmt::v11::detail::pad_type)
PUBLIC m 89a30 0 fmt::v11::detail::tm_writer<std::__ndk1::back_insert_iterator<fmt::v11::basic_memory_buffer<char, (unsigned long)500, std::__ndk1::allocator<char> > >, char, std::__ndk1::chrono::duration<long long, std::__ndk1::ratio<(long)1, (long)1> > >::on_day_of_year()
PUBLIC m 89b64 0 fmt::v11::detail::tm_writer<std::__ndk1::back_insert_iterator<fmt::v11::basic_memory_buffer<char, (unsigned long)500, std::__ndk1::allocator<char> > >, char, std::__ndk1::chrono::duration<long long, std::__ndk1::ratio<(long)1, (long)1> > >::on_day_of_month(fmt::v11::detail::numeric_system, fmt::v11::detail::pad_type)
PUBLIC m 89c90 0 fmt::v11::detail::tm_writer<std::__ndk1::back_insert_iterator<fmt::v11::basic_memory_buffer<char, (unsigned long)500, std::__ndk1::allocator<char> > >, char, std::__ndk1::chrono::duration<long long, std::__ndk1::ratio<(long)1, (long)1> > >::on_24_hour(fmt::v11::detail::numeric_system, fmt::v11::detail::pad_type)
PUBLIC m 89dbc 0 fmt::v11::detail::tm_writer<std::__ndk1::back_insert_iterator<fmt::v11::basic_memory_buffer<char, (unsigned long)500, std::__ndk1::allocator<char> > >, char, std::__ndk1::chrono::duration<long long, std::__ndk1::ratio<(long)1, (long)1> > >::on_12_hour(fmt::v11::detail::numeric_system, fmt::v11::detail::pad_type)
PUBLIC m 89efc 0 fmt::v11::detail::tm_writer<std::__ndk1::back_insert_iterator<fmt::v11::basic_memory_buffer<char, (unsigned long)500, std::__ndk1::allocator<char> > >, char, std::__ndk1::chrono::duration<long long, std::__ndk1::ratio<(long)1, (long)1> > >::on_minute(fmt::v11::detail::numeric_system, fmt::v11::detail::pad_type)
PUBLIC m 8a028 0 fmt::v11::detail::tm_writer<std::__ndk1::back_insert_iterator<fmt::v11::basic_memory_buffer<char, (unsigned long)500, std::__ndk1::allocator<char> > >, char, std::__ndk1::chrono::duration<long long, std::__ndk1::ratio<(long)1, (long)1> > >::on_second(fmt::v11::detail::numeric_system, fmt::v11::detail::pad_type)
PUBLIC m 8a154 0 fmt::v11::detail::tm_writer<std::__ndk1::back_insert_iterator<fmt::v11::basic_memory_buffer<char, (unsigned long)500, std::__ndk1::allocator<char> > >, char, std::__ndk1::chrono::duration<long long, std::__ndk1::ratio<(long)1, (long)1> > >::on_datetime(fmt::v11::detail::numeric_system)
PUBLIC m 8a3e4 0 fmt::v11::detail::tm_writer<std::__ndk1::back_insert_iterator<fmt::v11::basic_memory_buffer<char, (unsigned long)500, std::__ndk1::allocator<char> > >, char, std::__ndk1::chrono::duration<long long, std::__ndk1::ratio<(long)1, (long)1> > >::on_loc_date(fmt::v11::detail::numeric_system)
PUBLIC m 8a604 0 fmt::v11::detail::tm_writer<std::__ndk1::back_insert_iterator<fmt::v11::basic_memory_buffer<char, (unsigned long)500, std::__ndk1::allocator<char> > >, char, std::__ndk1::chrono::duration<long long, std::__ndk1::ratio<(long)1, (long)1> > >::on_loc_time(fmt::v11::detail::numeric_system)
PUBLIC m 8a780 0 fmt::v11::detail::tm_writer<std::__ndk1::back_insert_iterator<fmt::v11::basic_memory_buffer<char, (unsigned long)500, std::__ndk1::allocator<char> > >, char, std::__ndk1::chrono::duration<long long, std::__ndk1::ratio<(long)1, (long)1> > >::on_iso_date()
PUBLIC m 8a918 0 fmt::v11::detail::tm_writer<std::__ndk1::back_insert_iterator<fmt::v11::basic_memory_buffer<char, (unsigned long)500, std::__ndk1::allocator<char> > >, char, std::__ndk1::chrono::duration<long long, std::__ndk1::ratio<(long)1, (long)1> > >::on_12_hour_time()
PUBLIC m 8ab5c 0 fmt::v11::detail::tm_writer<std::__ndk1::back_insert_iterator<fmt::v11::basic_memory_buffer<char, (unsigned long)500, std::__ndk1::allocator<char> > >, char, std::__ndk1::chrono::duration<long long, std::__ndk1::ratio<(long)1, (long)1> > >::on_24_hour_time()
PUBLIC 8acf0 0 fmt::v11::detail::tm_writer<std::__ndk1::back_insert_iterator<fmt::v11::basic_memory_buffer<char, (unsigned long)500, std::__ndk1::allocator<char> > >, char, std::__ndk1::chrono::duration<long long, std::__ndk1::ratio<(long)1, (long)1> > >::on_am_pm()
PUBLIC m 8ae80 0 fmt::v11::detail::tm_writer<std::__ndk1::back_insert_iterator<fmt::v11::basic_memory_buffer<char, (unsigned long)500, std::__ndk1::allocator<char> > >, char, std::__ndk1::chrono::duration<long long, std::__ndk1::ratio<(long)1, (long)1> > >::on_offset_year()
PUBLIC m 8b048 0 fmt::v11::detail::tm_writer<std::__ndk1::back_insert_iterator<fmt::v11::basic_memory_buffer<char, (unsigned long)500, std::__ndk1::allocator<char> > >, char, std::__ndk1::chrono::duration<long long, std::__ndk1::ratio<(long)1, (long)1> > >::write_year(long long)
PUBLIC m 8b1b0 0 fmt::v11::detail::tm_writer<std::__ndk1::back_insert_iterator<fmt::v11::basic_memory_buffer<char, (unsigned long)500, std::__ndk1::allocator<char> > >, char, std::__ndk1::chrono::duration<long long, std::__ndk1::ratio<(long)1, (long)1> > >::write_year_extended(long long)
PUBLIC m 8b384 0 fmt::v11::detail::copy_noinline<char, char*, std::__ndk1::back_insert_iterator<fmt::v11::basic_memory_buffer<char, (unsigned long)500, std::__ndk1::allocator<char> > > >(char*, char*, std::__ndk1::back_insert_iterator<fmt::v11::basic_memory_buffer<char, (unsigned long)500, std::__ndk1::allocator<char> > >)
PUBLIC m 8b4d4 0 fmt::v11::detail::do_write<char>(fmt::v11::detail::buffer<char>&, tm const&, std::__ndk1::locale const&, char, char)
PUBLIC m 8b710 0 fmt::v11::detail::write_encoded_tm_str<std::__ndk1::back_insert_iterator<fmt::v11::basic_memory_buffer<char, (unsigned long)500, std::__ndk1::allocator<char> > > >(std::__ndk1::back_insert_iterator<fmt::v11::basic_memory_buffer<char, (unsigned long)500, std::__ndk1::allocator<char> > >, fmt::v11::basic_string_view<char>, std::__ndk1::locale const&)
PUBLIC m 8bbd8 0 fmt::v11::detail::formatbuf<std::__ndk1::basic_streambuf<char, std::__ndk1::char_traits<char> > >::~formatbuf()
PUBLIC m 8bbfc 0 fmt::v11::detail::formatbuf<std::__ndk1::basic_streambuf<char, std::__ndk1::char_traits<char> > >::xsputn(char const*, long)
PUBLIC m 8bd54 0 fmt::v11::detail::formatbuf<std::__ndk1::basic_streambuf<char, std::__ndk1::char_traits<char> > >::overflow(int)
PUBLIC m 8bdb0 0 fmt::v11::basic_memory_buffer<char, (unsigned long)128, std::__ndk1::allocator<char> >::grow(fmt::v11::detail::buffer<char>&, unsigned long)
PUBLIC m 8be28 0 fmt::v11::detail::to_utf8<char32_t, fmt::v11::basic_memory_buffer<char, (unsigned long)128, std::__ndk1::allocator<char> > >::convert(fmt::v11::basic_memory_buffer<char, (unsigned long)128, std::__ndk1::allocator<char> >&, fmt::v11::basic_string_view<char32_t>, fmt::v11::detail::to_utf8_error_policy)
PUBLIC m 8c060 0 _ZN3fmt3v116detail5writeIcNSt6__ndk120back_insert_iteratorINS0_19basic_memory_bufferIcLm500ENS3_9allocatorIcEEEEEExTnNS3_9enable_ifIXaaaasr11is_integralIT1_EE5valuentsr3std7is_sameISB_bEE5valuentsr3std7is_sameISB_T_EE5valueEiE4typeELi0EEET0_SF_SB_
PUBLIC m 8c1bc 0 fmt::v11::detail::copy_noinline<char, char const*, std::__ndk1::back_insert_iterator<fmt::v11::basic_memory_buffer<char, (unsigned long)500, std::__ndk1::allocator<char> > > >(char const*, char const*, std::__ndk1::back_insert_iterator<fmt::v11::basic_memory_buffer<char, (unsigned long)500, std::__ndk1::allocator<char> > >)
PUBLIC m 8c30c 0 fmt::v11::detail::tm_writer<std::__ndk1::back_insert_iterator<fmt::v11::basic_memory_buffer<char, (unsigned long)500, std::__ndk1::allocator<char> > >, char, std::__ndk1::chrono::duration<long long, std::__ndk1::ratio<(long)1, (long)1> > >::write2(int, fmt::v11::detail::pad_type)
PUBLIC m 8c464 0 fmt::v11::detail::tm_writer<std::__ndk1::back_insert_iterator<fmt::v11::basic_memory_buffer<char, (unsigned long)500, std::__ndk1::allocator<char> > >, char, std::__ndk1::chrono::duration<long long, std::__ndk1::ratio<(long)1, (long)1> > >::write_utc_offset(long, fmt::v11::detail::numeric_system)
PUBLIC m 8c690 0 fmt::v11::detail::write_escaped_string<char, fmt::v11::detail::counting_iterator>(fmt::v11::detail::counting_iterator, fmt::v11::basic_string_view<char>)
PUBLIC m 8cbb0 0 fmt::v11::detail::write_padded<char, (fmt::v11::align::type)1, fmt::v11::basic_appender<char>, fmt::v11::detail::write<char, fmt::v11::basic_appender<char> >(fmt::v11::basic_appender<char>, fmt::v11::basic_string_view<char>, fmt::v11::format_specs const&)::{lambda(fmt::v11::basic_appender<char>)#1}>(fmt::v11::basic_appender<char>, fmt::v11::format_specs const&, unsigned long, unsigned long, fmt::v11::detail::write<char, fmt::v11::basic_appender<char> >(fmt::v11::basic_appender<char>, fmt::v11::basic_string_view<char>, fmt::v11::format_specs const&)::{lambda(fmt::v11::basic_appender<char>&&)#1})
PUBLIC m 8cdbc 0 fmt::v11::detail::for_each_codepoint<fmt::v11::detail::code_point_index(fmt::v11::basic_string_view<char>, unsigned long)::{lambda(unsigned int, fmt::v11::basic_string_view<char>)#1}>(fmt::v11::basic_string_view<char>, fmt::v11::detail::code_point_index(fmt::v11::basic_string_view<char>, unsigned long)::{lambda(unsigned int, fmt::v11::basic_string_view<char>)#1})
PUBLIC m 8d1e4 0 fmt::v11::detail::write_escaped_cp<fmt::v11::detail::counting_iterator, char>(fmt::v11::detail::counting_iterator, fmt::v11::detail::find_escape_result<char> const&)
PUBLIC m 8d378 0 fmt::v11::detail::for_each_codepoint<fmt::v11::detail::compute_width(fmt::v11::basic_string_view<char>)::count_code_points>(fmt::v11::basic_string_view<char>, fmt::v11::detail::compute_width(fmt::v11::basic_string_view<char>)::count_code_points)::{lambda(char const*, char const*)#1}::operator()(char const*, char const*) const
PUBLIC m 8d530 0 fmt::v11::detail::write_escaped_string<char, fmt::v11::basic_appender<char> >(fmt::v11::basic_appender<char>, fmt::v11::basic_string_view<char>)
PUBLIC m 8dbac 0 fmt::v11::detail::write_escaped_cp<fmt::v11::basic_appender<char>, char>(fmt::v11::basic_appender<char>, fmt::v11::detail::find_escape_result<char> const&)
PUBLIC m 8dd90 0 fmt::v11::detail::write_codepoint<(unsigned long)2, char, fmt::v11::basic_appender<char> >(fmt::v11::basic_appender<char>, char, unsigned int)
PUBLIC m 8df08 0 fmt::v11::detail::write_codepoint<(unsigned long)4, char, fmt::v11::basic_appender<char> >(fmt::v11::basic_appender<char>, char, unsigned int)
PUBLIC m 8e080 0 fmt::v11::detail::write_codepoint<(unsigned long)8, char, fmt::v11::basic_appender<char> >(fmt::v11::basic_appender<char>, char, unsigned int)
PUBLIC m 8e1f8 0 fmt::v11::formatter<fmt::v11::join_view<std::__ndk1::__wrap_iter<std::__ndk1::basic_string<char, std::__ndk1::char_traits<char>, std::__ndk1::allocator<char> >*>, std::__ndk1::__wrap_iter<std::__ndk1::basic_string<char, std::__ndk1::char_traits<char>, std::__ndk1::allocator<char> >*>, char>, char, void>::format<fmt::v11::context>(fmt::v11::join_view<std::__ndk1::__wrap_iter<std::__ndk1::basic_string<char, std::__ndk1::char_traits<char>, std::__ndk1::allocator<char> >*>, std::__ndk1::__wrap_iter<std::__ndk1::basic_string<char, std::__ndk1::char_traits<char>, std::__ndk1::allocator<char> >*>, char> const&, fmt::v11::context&) const
PUBLIC m 8e53c 0 fmt::v11::detail::parse_format_specs<char>(char const*, char const*, fmt::v11::detail::dynamic_format_specs<char>&, fmt::v11::basic_format_parse_context<char>&, fmt::v11::detail::type)
PUBLIC m 8e9f0 0 fmt::v11::detail::handle_dynamic_spec<fmt::v11::detail::precision_checker, fmt::v11::context>(int&, fmt::v11::detail::arg_ref<fmt::v11::context::char_type>, fmt::v11::context&)
PUBLIC m 8eb04 0 fmt::v11::detail::get_dynamic_spec<fmt::v11::detail::precision_checker, fmt::v11::basic_format_arg<fmt::v11::context> >(fmt::v11::basic_format_arg<fmt::v11::context>)
PUBLIC m 8eb98 0 fmt::v11::detail::value<fmt::v11::context>::format_custom_arg<fmt::v11::join_view<std::__ndk1::__wrap_iter<unsigned char*>, std::__ndk1::__wrap_iter<unsigned char*>, char>, fmt::v11::formatter<fmt::v11::join_view<std::__ndk1::__wrap_iter<unsigned char*>, std::__ndk1::__wrap_iter<unsigned char*>, char>, char, void> >(void*, fmt::v11::basic_format_parse_context<char>&, fmt::v11::context&)
PUBLIC 8ede4 0 fmt::v11::formatter<unsigned char, char, void>::format<fmt::v11::context>(unsigned char, fmt::v11::context&) const
PUBLIC m 8ef64 0 fmt::v11::detail::write_int_noinline<char, fmt::v11::basic_appender<char>, unsigned int>(fmt::v11::basic_appender<char>, fmt::v11::detail::write_int_arg<unsigned int>, fmt::v11::format_specs const&, fmt::v11::detail::locale_ref)
PUBLIC m 8f908 0 fmt::v11::detail::write_int<char, fmt::v11::basic_appender<char>, fmt::v11::detail::write_int<char, fmt::v11::basic_appender<char>, unsigned int>(fmt::v11::basic_appender<char>, fmt::v11::detail::write_int_arg<unsigned int>, fmt::v11::format_specs const&, fmt::v11::detail::locale_ref)::{lambda(fmt::v11::basic_appender<char>)#1}>(fmt::v11::basic_appender<char>, int, unsigned int, fmt::v11::format_specs const&, fmt::v11::detail::write_int<char, fmt::v11::basic_appender<char>, unsigned int>(fmt::v11::basic_appender<char>, fmt::v11::detail::write_int_arg<unsigned int>, fmt::v11::format_specs const&, fmt::v11::detail::locale_ref)::{lambda(fmt::v11::basic_appender<char>)#1})::{lambda(fmt::v11::basic_appender<char>(fmt::v11::basic_appender<char>))#1}::operator() const
PUBLIC m 8fa98 0 fmt::v11::detail::write_int<char, fmt::v11::basic_appender<char>, fmt::v11::detail::write_int<char, fmt::v11::basic_appender<char>, unsigned int>(fmt::v11::basic_appender<char>, fmt::v11::detail::write_int_arg<unsigned int>, fmt::v11::format_specs const&, fmt::v11::detail::locale_ref)::{lambda(fmt::v11::basic_appender<char>)#2}>(fmt::v11::basic_appender<char>, int, unsigned int, fmt::v11::format_specs const&, fmt::v11::detail::write_int<char, fmt::v11::basic_appender<char>, unsigned int>(fmt::v11::basic_appender<char>, fmt::v11::detail::write_int_arg<unsigned int>, fmt::v11::format_specs const&, fmt::v11::detail::locale_ref)::{lambda(fmt::v11::basic_appender<char>)#2})::{lambda(fmt::v11::basic_appender<char>(fmt::v11::basic_appender<char>))#1}::operator() const
PUBLIC m 8fc7c 0 fmt::v11::detail::write_int<char, fmt::v11::basic_appender<char>, fmt::v11::detail::write_int<char, fmt::v11::basic_appender<char>, unsigned int>(fmt::v11::basic_appender<char>, fmt::v11::detail::write_int_arg<unsigned int>, fmt::v11::format_specs const&, fmt::v11::detail::locale_ref)::{lambda(fmt::v11::basic_appender<char>)#3}>(fmt::v11::basic_appender<char>, int, unsigned int, fmt::v11::format_specs const&, fmt::v11::detail::write_int<char, fmt::v11::basic_appender<char>, unsigned int>(fmt::v11::basic_appender<char>, fmt::v11::detail::write_int_arg<unsigned int>, fmt::v11::format_specs const&, fmt::v11::detail::locale_ref)::{lambda(fmt::v11::basic_appender<char>)#3})::{lambda(fmt::v11::basic_appender<char>(fmt::v11::basic_appender<char>))#1}::operator() const
PUBLIC m 8fe24 0 fmt::v11::detail::write_int<char, fmt::v11::basic_appender<char>, fmt::v11::detail::write_int<char, fmt::v11::basic_appender<char>, unsigned int>(fmt::v11::basic_appender<char>, fmt::v11::detail::write_int_arg<unsigned int>, fmt::v11::format_specs const&, fmt::v11::detail::locale_ref)::{lambda(fmt::v11::basic_appender<char>)#4}>(fmt::v11::basic_appender<char>, int, unsigned int, fmt::v11::format_specs const&, fmt::v11::detail::write_int<char, fmt::v11::basic_appender<char>, unsigned int>(fmt::v11::basic_appender<char>, fmt::v11::detail::write_int_arg<unsigned int>, fmt::v11::format_specs const&, fmt::v11::detail::locale_ref)::{lambda(fmt::v11::basic_appender<char>)#4})::{lambda(fmt::v11::basic_appender<char>(fmt::v11::basic_appender<char>))#1}::operator() const
PUBLIC m 8ffd0 0 fmt::v11::detail::write_padded<char, (fmt::v11::align::type)1, fmt::v11::basic_appender<char>, fmt::v11::detail::write_char<char, fmt::v11::basic_appender<char> >(fmt::v11::basic_appender<char>, char, fmt::v11::format_specs const&)::{lambda(fmt::v11::basic_appender<char>&)#1}>(fmt::v11::basic_appender<char>, fmt::v11::format_specs const&, unsigned long, unsigned long, fmt::v11::detail::write_char<char, fmt::v11::basic_appender<char> >(fmt::v11::basic_appender<char>, char, fmt::v11::format_specs const&)::{lambda(fmt::v11::basic_appender<char>&)#1})
PUBLIC m 900d8 0 fmt::v11::detail::write_escaped_char<char, fmt::v11::basic_appender<char> >(fmt::v11::basic_appender<char>, char)
PUBLIC m 90250 0 DevTools::drawNodePreview(cocos2d::CCNode*)
PUBLIC m 90254 0 DevTools::drawPreview()
PUBLIC m 9026c 0 DevTools::drawSettings()
PUBLIC m 916c4 0 _ZN5geode5utils6ranges4joinITkNS1_19ValidConstContainerENSt6__ndk16vectorINS3_12basic_stringIcNS3_11char_traitsIcEENS3_9allocatorIcEEEENS8_ISA_EEEEEESA_RKT_RKSA_
PUBLIC m 917a8 0 getNodeName(cocos2d::CCObject*)
PUBLIC m 91880 0 DevTools::drawTreeBranch(cocos2d::CCNode*, unsigned long)
PUBLIC m 91f0c 0 geode::cocos::CCArrayExt<cocos2d::CCNode*>::~CCArrayExt()
PUBLIC m 91f2c 0 DevTools::drawTree()
PUBLIC m 91fe4 0 formatAddressIntoOffsetImpl(unsigned long, bool)
PUBLIC m 920b0 0 getGDWindowRect()
PUBLIC m 920bc 0 shouldPassEventsToGDButTransformed()
PUBLIC m 920c8 0 shouldUpdateGDRenderBuffer()
PUBLIC m 920d4 0 GLRenderCtx::~GLRenderCtx()
PUBLIC m 92144 0 GLRenderCtx::cleanup()
PUBLIC m 921b0 0 GLRenderCtx::GLRenderCtx(ImVec2 const&)
PUBLIC m 921cc 0 GLRenderCtx::texture() const
PUBLIC m 921d4 0 GLRenderCtx::size() const
PUBLIC m 921dc 0 GLRenderCtx::begin()
PUBLIC m 92448 0 GLRenderCtx::end()
PUBLIC m 92468 0 formatAddressIntoOffset(unsigned long, bool)
PUBLIC 93028 0 std::__ndk1::unordered_map<unsigned long, std::__ndk1::pair<std::__ndk1::basic_string<char, std::__ndk1::char_traits<char>, std::__ndk1::allocator<char> >, std::__ndk1::basic_string<char, std::__ndk1::char_traits<char>, std::__ndk1::allocator<char> > >, std::__ndk1::hash<unsigned long>, std::__ndk1::equal_to<unsigned long>, std::__ndk1::allocator<std::__ndk1::pair<unsigned long const, std::__ndk1::pair<std::__ndk1::basic_string<char, std::__ndk1::char_traits<char>, std::__ndk1::allocator<char> >, std::__ndk1::basic_string<char, std::__ndk1::char_traits<char>, std::__ndk1::allocator<char> > > > > >::~unordered_map[abi:ne180000]()
PUBLIC 930b4 0 std::__ndk1::pair<unsigned long const, std::__ndk1::pair<std::__ndk1::basic_string<char, std::__ndk1::char_traits<char>, std::__ndk1::allocator<char> >, std::__ndk1::basic_string<char, std::__ndk1::char_traits<char>, std::__ndk1::allocator<char> > > >::~pair()
PUBLIC m 930f8 0 std::__ndk1::pair<std::__ndk1::basic_string<char, std::__ndk1::char_traits<char>, std::__ndk1::allocator<char> >, std::__ndk1::basic_string<char, std::__ndk1::char_traits<char>, std::__ndk1::allocator<char> > >::~pair()
PUBLIC 9313c 0 std::__ndk1::unique_ptr<std::__ndk1::__hash_node<std::__ndk1::__hash_value_type<unsigned long, std::__ndk1::pair<std::__ndk1::basic_string<char, std::__ndk1::char_traits<char>, std::__ndk1::allocator<char> >, std::__ndk1::basic_string<char, std::__ndk1::char_traits<char>, std::__ndk1::allocator<char> > > >, void*>, std::__ndk1::__hash_node_destructor<std::__ndk1::allocator<std::__ndk1::__hash_node<std::__ndk1::__hash_value_type<unsigned long, std::__ndk1::pair<std::__ndk1::basic_string<char, std::__ndk1::char_traits<char>, std::__ndk1::allocator<char> >, std::__ndk1::basic_string<char, std::__ndk1::char_traits<char>, std::__ndk1::allocator<char> > > >, void*> > > >::~unique_ptr[abi:ne180000]()
PUBLIC m 93198 0 applyCommon(ImGuiStyle&)
PUBLIC m 9319c 0 getThemeDef(std::__ndk1::basic_string<char, std::__ndk1::char_traits<char>, std::__ndk1::allocator<char> > const&)
PUBLIC m 931fc 0 geode::utils::hash(char const*, int)
PUBLIC m 93240 0 applyTheme(std::__ndk1::basic_string<char, std::__ndk1::char_traits<char>, std::__ndk1::allocator<char> > const&)
PUBLIC m 9343c 0 getThemeOptions()
PUBLIC m 9346c 0 getThemeIndex(std::__ndk1::basic_string<char, std::__ndk1::char_traits<char>, std::__ndk1::allocator<char> > const&)
PUBLIC m 9355c 0 getThemeAtIndex(unsigned long)
PUBLIC 935c8 0 std::__ndk1::__exception_guard_exceptions<std::__ndk1::vector<std::__ndk1::basic_string<char, std::__ndk1::char_traits<char>, std::__ndk1::allocator<char> >, std::__ndk1::allocator<std::__ndk1::basic_string<char, std::__ndk1::char_traits<char>, std::__ndk1::allocator<char> > > >::__destroy_vector>::~__exception_guard_exceptions[abi:ne180000]()
PUBLIC 93654 0 std::__ndk1::__exception_guard_exceptions<std::__ndk1::_AllocatorDestroyRangeReverse<std::__ndk1::allocator<std::__ndk1::basic_string<char, std::__ndk1::char_traits<char>, std::__ndk1::allocator<char> > >, std::__ndk1::basic_string<char, std::__ndk1::char_traits<char>, std::__ndk1::allocator<char> >*> >::~__exception_guard_exceptions[abi:ne180000]()
PUBLIC m 936b4 0 std::__ndk1::vector<std::__ndk1::basic_string<char, std::__ndk1::char_traits<char>, std::__ndk1::allocator<char> >, std::__ndk1::allocator<std::__ndk1::basic_string<char, std::__ndk1::char_traits<char>, std::__ndk1::allocator<char> > > >::__init_with_size[abi:ne180000]<std::__ndk1::basic_string<char, std::__ndk1::char_traits<char>, std::__ndk1::allocator<char> >*, std::__ndk1::vector<std::__ndk1::basic_string<char, std::__ndk1::char_traits<char>, std::__ndk1::allocator<char> >, std::__ndk1::allocator<std::__ndk1::basic_string<char, std::__ndk1::char_traits<char>, std::__ndk1::allocator<char> > > >::__init_with_size[abi:ne180000]>(std::__ndk1::basic_string<char, std::__ndk1::char_traits<char>, std::__ndk1::allocator<char> >*, std::__ndk1::vector<std::__ndk1::basic_string<char, std::__ndk1::char_traits<char>, std::__ndk1::allocator<char> >, std::__ndk1::allocator<std::__ndk1::basic_string<char, std::__ndk1::char_traits<char>, std::__ndk1::allocator<char> > > >::__init_with_size[abi:ne180000], unsigned long)
PUBLIC 93820 0 std::__ndk1::vector<std::__ndk1::basic_string<char, std::__ndk1::char_traits<char>, std::__ndk1::allocator<char> >, std::__ndk1::allocator<std::__ndk1::basic_string<char, std::__ndk1::char_traits<char>, std::__ndk1::allocator<char> > > >::__throw_out_of_range[abi:ne180000]() const
PUBLIC 93834 0 _GLOBAL__sub_I_themes.cpp
PUBLIC m 93944 0 ImGuiStyle::ImGuiStyle()
PUBLIC m 93a84 0 ImGuiStyle::ScaleAllSizes(float)
PUBLIC m 93bc8 0 ImGuiIO::ImGuiIO()
PUBLIC m 93d10 0 ImGuiIO::AddInputCharacter(unsigned int)
PUBLIC m 93e10 0 ImGuiIO::AddInputCharacterUTF16(unsigned short)
PUBLIC m 940bc 0 ImGuiIO::AddInputCharactersUTF8(char const*)
PUBLIC m 9421c 0 ImTextCharFromUtf8(unsigned int*, char const*, char const*)
PUBLIC m 94380 0 ImGuiIO::ClearEventsQueue()
PUBLIC m 94464 0 ImGuiIO::ClearInputKeys()
PUBLIC m 944fc 0 ImGuiIO::ClearInputMouse()
PUBLIC m 94588 0 ImGuiIO::ClearInputCharacters()
PUBLIC m 945d0 0 ImGuiIO::AddKeyAnalogEvent(ImGuiKey, bool, float)
PUBLIC m 948a4 0 ImGui::GetKeyData(ImGuiContext*, ImGuiKey)
PUBLIC m 94904 0 ImGuiIO::AddKeyEvent(ImGuiKey, bool)
PUBLIC m 94928 0 ImGuiIO::SetKeyEventNativeData(ImGuiKey, int, int, int)
PUBLIC m 94950 0 ImGuiIO::SetAppAcceptingEvents(bool)
PUBLIC m 9495c 0 ImGuiIO::AddMousePosEvent(float, float)
PUBLIC m 94b20 0 ImGuiIO::AddMouseButtonEvent(int, bool)
PUBLIC m 94eec 0 ImGui::DebugLog(char const*, ...)
PUBLIC m 94f84 0 ImGuiIO::AddMouseWheelEvent(float, float)
PUBLIC m 9505c 0 ImGuiIO::AddMouseSourceEvent(ImGuiMouseSource)
PUBLIC m 9506c 0 ImGuiIO::AddMouseViewportEvent(unsigned int)
PUBLIC m 951b4 0 ImGuiIO::AddFocusEvent(bool)
PUBLIC m 95324 0 ImBezierCubicClosestPoint(ImVec2 const&, ImVec2 const&, ImVec2 const&, ImVec2 const&, ImVec2 const&, int)
PUBLIC m 95444 0 ImLineClosestPoint(ImVec2 const&, ImVec2 const&, ImVec2 const&)
PUBLIC m 954ac 0 ImBezierCubicClosestPointCasteljau(ImVec2 const&, ImVec2 const&, ImVec2 const&, ImVec2 const&, ImVec2 const&, float)
PUBLIC 9553c 0 ImBezierCubicClosestPointCasteljauStep(ImVec2 const&, ImVec2&, ImVec2&, float&, float, float, float, float, float, float, float, float, float, int)
PUBLIC m 95754 0 ImTriangleContainsPoint(ImVec2 const&, ImVec2 const&, ImVec2 const&, ImVec2 const&)
PUBLIC m 957e8 0 ImTriangleBarycentricCoords(ImVec2 const&, ImVec2 const&, ImVec2 const&, ImVec2 const&, float&, float&, float&)
PUBLIC m 95850 0 ImTriangleClosestPoint(ImVec2 const&, ImVec2 const&, ImVec2 const&, ImVec2 const&)
PUBLIC m 959d8 0 ImStricmp(char const*, char const*)
PUBLIC m 95a58 0 ImStrnicmp(char const*, char const*, unsigned long)
PUBLIC m 95ac0 0 ImStrncpy(char*, char const*, unsigned long)
PUBLIC m 95afc 0 ImStrdup(char const*)
PUBLIC m 95be8 0 ImGui::MemAlloc(unsigned long)
PUBLIC m 95cc0 0 ImStrdupcpy(char*, unsigned long*, char const*)
PUBLIC m 95eb8 0 ImGui::MemFree(void*)
PUBLIC m 95f70 0 ImStrchrRange(char const*, char const*, char)
PUBLIC m 95f80 0 ImStrlenW(unsigned short const*)
PUBLIC m 95fac 0 ImStreolRange(char const*, char const*)
PUBLIC m 95fdc 0 ImStrbolW(unsigned short const*, unsigned short const*)
PUBLIC m 96000 0 ImStristr(char const*, char const*, char const*, char const*)
PUBLIC m 9616c 0 ImStrTrimBlanks(char*)
PUBLIC m 96224 0 ImStrSkipBlank(char const*)
PUBLIC m 96244 0 ImFormatString(char*, unsigned long, char const*, ...)
PUBLIC m 96300 0 ImFormatStringV(char*, unsigned long, char const*, std::__va_list)
PUBLIC m 9637c 0 ImFormatStringToTempBuffer(char const**, char const**, char const*, ...)
PUBLIC m 96410 0 ImFormatStringToTempBufferV(char const**, char const**, char const*, std::__va_list)
PUBLIC m 965f8 0 ImHashData(void const*, unsigned long, unsigned int)
PUBLIC m 96630 0 ImHashStr(char const*, unsigned long, unsigned int)
PUBLIC m 9670c 0 ImFileOpen(char const*, char const*)
PUBLIC m 96710 0 ImFileClose(__sFILE*)
PUBLIC m 9672c 0 ImFileGetSize(__sFILE*)
PUBLIC m 967b4 0 ImFileRead(void*, unsigned long long, unsigned long long, __sFILE*)
PUBLIC m 967b8 0 ImFileWrite(void const*, unsigned long long, unsigned long long, __sFILE*)
PUBLIC m 967bc 0 ImFileLoadToMemory(char const*, char const*, unsigned long*, int)
PUBLIC m 96a5c 0 ImTextStrFromUtf8(unsigned short*, int, char const*, char const*, char const**)
PUBLIC m 96b54 0 ImTextCountCharsFromUtf8(char const*, char const*)
PUBLIC m 96c28 0 ImTextCharToUtf8(char*, unsigned int)
PUBLIC m 96cf0 0 ImTextCountUtf8BytesFromChar(char const*, char const*)
PUBLIC m 96d40 0 ImTextStrToUtf8(char*, int, unsigned short const*, unsigned short const*)
PUBLIC m 96ed0 0 ImTextCountUtf8BytesFromStr(unsigned short const*, unsigned short const*)
PUBLIC m 96f54 0 ImTextFindPreviousUtf8Codepoint(char const*, char const*)
PUBLIC m 96f74 0 ImTextCountLines(char const*, char const*)
PUBLIC m 96ff4 0 ImAlphaBlendColors(unsigned int, unsigned int)
PUBLIC m 97080 0 ImGui::ColorConvertU32ToFloat4(unsigned int)
PUBLIC m 970d0 0 ImGui::ColorConvertFloat4ToU32(ImVec4 const&)
PUBLIC m 97164 0 ImGui::ColorConvertRGBtoHSV(float, float, float, float&, float&, float&)
PUBLIC m 971e4 0 ImGui::ColorConvertHSVtoRGB(float, float, float, float&, float&, float&)
PUBLIC m 97358 0 ImLowerBound(ImGuiStoragePair*, ImGuiStoragePair*, unsigned int)
PUBLIC m 97394 0 ImGuiStorage::BuildSortByKey()
PUBLIC 973b8 0 PairComparerByID(void const*, void const*)
PUBLIC m 973d0 0 ImGuiStorage::GetInt(unsigned int, int) const
PUBLIC m 97424 0 ImGuiStorage::GetBool(unsigned int, bool) const
PUBLIC m 97480 0 ImGuiStorage::GetFloat(unsigned int, float) const
PUBLIC m 974d0 0 ImGuiStorage::GetVoidPtr(unsigned int) const
PUBLIC m 97528 0 ImGuiStorage::GetIntRef(unsigned int, int)
PUBLIC m 97638 0 ImGuiStorage::GetBoolRef(unsigned int, bool)
PUBLIC m 97640 0 ImGuiStorage::GetFloatRef(unsigned int, float)
PUBLIC m 97750 0 ImGuiStorage::GetVoidPtrRef(unsigned int, void*)
PUBLIC m 97860 0 ImGuiStorage::SetInt(unsigned int, int)
PUBLIC m 9797c 0 ImGuiStorage::SetBool(unsigned int, bool)
PUBLIC m 97984 0 ImGuiStorage::SetFloat(unsigned int, float)
PUBLIC m 97aa0 0 ImGuiStorage::SetVoidPtr(unsigned int, void*)
PUBLIC m 97bbc 0 ImGuiStorage::SetAllInt(int)
PUBLIC m 97bf0 0 ImGuiTextFilter::ImGuiTextFilter(char const*)
PUBLIC m 97c40 0 ImGuiTextFilter::Build()
PUBLIC 97d90 0 ImVector<ImGuiTextFilter::ImGuiTextRange>::~ImVector()
PUBLIC m 97e60 0 ImGuiTextFilter::Draw(char const*, float)
PUBLIC m 97f14 0 ImGui::SetNextItemWidth(float)
PUBLIC m 97f3c 0 ImGuiTextFilter::ImGuiTextRange::split(char, ImVector<ImGuiTextFilter::ImGuiTextRange>*) const
PUBLIC m 98098 0 ImGuiTextFilter::PassFilter(char const*, char const*) const
PUBLIC m 98158 0 ImGuiTextBuffer::append(char const*, char const*)
PUBLIC 98244 0 ImVector<char>::reserve(int)
PUBLIC m 98410 0 ImGuiTextBuffer::appendf(char const*, ...)
PUBLIC m 984a4 0 ImGuiTextBuffer::appendfv(char const*, std::__va_list)
PUBLIC m 985d4 0 ImGuiTextIndex::append(char const*, int, int)
PUBLIC m 98718 0 ImGuiListClipper::ImGuiListClipper()
PUBLIC m 98728 0 ImGuiListClipper::~ImGuiListClipper()
PUBLIC m 98740 0 ImGuiListClipper::End()
PUBLIC m 988a8 0 ImGuiListClipper::Begin(int, float)
PUBLIC m 98c64 0 ImGui::GetCurrentContext()
PUBLIC 98c74 0 ImGuiListClipperData::~ImGuiListClipperData()
PUBLIC m 98d40 0 ImGuiListClipper::SeekCursorForItem(int)
PUBLIC m 98e0c 0 ImGuiListClipper::IncludeItemsByIndex(int, int)
PUBLIC 98ea8 0 ImVector<ImGuiListClipperRange>::push_back(ImGuiListClipperRange const&)
PUBLIC m 98f30 0 ImGuiListClipper::Step()
PUBLIC m 998d8 0 ImGui::GetStyle()
PUBLIC m 998f0 0 ImGui::GetColorU32(int, float)
PUBLIC m 999ac 0 ImGui::GetColorU32(ImVec4 const&)
PUBLIC m 99a5c 0 ImGui::GetStyleColorVec4(int)
PUBLIC m 99a78 0 ImGui::GetColorU32(unsigned int, float)
PUBLIC m 99ab0 0 ImGui::PushStyleColor(int, unsigned int)
PUBLIC m 99be8 0 ImGui::PushStyleColor(int, ImVec4 const&)
PUBLIC m 99cfc 0 ImGui::PopStyleColor(int)
PUBLIC m 99d64 0 ImGui::GetStyleVarInfo(int)
PUBLIC m 99d78 0 ImGui::PushStyleVar(int, float)
PUBLIC m 99e64 0 ImGui::PushStyleVar(int, ImVec2 const&)
PUBLIC m 99f60 0 ImGui::PopStyleVar(int)
PUBLIC m 9a024 0 ImGui::GetStyleColorName(int)
PUBLIC m 9a048 0 ImGui::FindRenderedTextEnd(char const*, char const*)
PUBLIC m 9a090 0 ImGui::RenderText(ImVec2, char const*, char const*, bool)
PUBLIC m 9a2e0 0 ImGui::LogRenderedText(ImVec2 const*, char const*, char const*)
PUBLIC m 9a4b8 0 ImGui::RenderTextWrapped(ImVec2, char const*, char const*, float)
PUBLIC m 9a6a0 0 ImGui::RenderTextClippedEx(ImDrawList*, ImVec2 const&, ImVec2 const&, char const*, char const*, ImVec2 const*, ImVec2 const&, ImRect const*)
PUBLIC m 9aadc 0 ImGui::CalcTextSize(char const*, char const*, bool, float)
PUBLIC m 9abb8 0 ImGui::RenderTextClipped(ImVec2 const&, ImVec2 const&, char const*, char const*, ImVec2 const*, ImVec2 const&, ImRect const*)
PUBLIC m 9ac90 0 ImGui::RenderTextEllipsis(ImDrawList*, ImVec2 const&, ImVec2 const&, float, float, char const*, char const*, ImVec2 const*)
PUBLIC m 9b0b8 0 ImGui::RenderFrame(ImVec2, ImVec2, unsigned int, bool, float)
PUBLIC m 9b31c 0 ImGui::RenderFrameBorder(ImVec2, ImVec2, float)
PUBLIC m 9b52c 0 ImGui::RenderNavHighlight(ImRect const&, unsigned int, int)
PUBLIC m 9b814 0 ImGui::RenderMouseCursor(ImVec2, float, int, unsigned int, unsigned int, unsigned int)
PUBLIC m 9bbf0 0 ImGui::GetForegroundDrawList(ImGuiViewport*)
PUBLIC m 9bc28 0 ImGui::SetCurrentContext(ImGuiContext*)
PUBLIC m 9bc38 0 ImGui::SetAllocatorFunctions(void* (*)(unsigned long, void*), void (*)(void*, void*), void*)
PUBLIC m 9bc54 0 ImGui::GetAllocatorFunctions(void* (**)(unsigned long, void*), void (**)(void*, void*), void**)
PUBLIC m 9bc7c 0 ImGui::CreateContext(ImFontAtlas*)
PUBLIC 9bd80 0 ImGuiContext::ImGuiContext(ImFontAtlas*)
PUBLIC m 9c994 0 ImGui::Initialize()
PUBLIC m 9cf50 0 ImGui::DestroyContext(ImGuiContext*)
PUBLIC m 9ece4 0 ImGui::Shutdown()
PUBLIC a0afc 0 WindowSettingsHandler_ClearAll(ImGuiContext*, ImGuiSettingsHandler*)
PUBLIC a0c54 0 WindowSettingsHandler_ReadOpen(ImGuiContext*, ImGuiSettingsHandler*, char const*)
PUBLIC a0d7c 0 WindowSettingsHandler_ReadLine(ImGuiContext*, ImGuiSettingsHandler*, void*, char const*)
PUBLIC a0f6c 0 WindowSettingsHandler_ApplyAll(ImGuiContext*, ImGuiSettingsHandler*)
PUBLIC a10d0 0 WindowSettingsHandler_WriteAll(ImGuiContext*, ImGuiSettingsHandler*, ImGuiTextBuffer*)
PUBLIC m a141c 0 ImGui::AddSettingsHandler(ImGuiSettingsHandler const*)
PUBLIC m a14cc 0 ImGui::LocalizeRegisterEntries(ImGuiLocEntry const*, int)
PUBLIC a1504 0 GetClipboardTextFn_DefaultImpl(void*)
PUBLIC a1520 0 SetClipboardTextFn_DefaultImpl(void*, char const*)
PUBLIC a1680 0 PlatformOpenInShellFn_DefaultImpl(ImGuiContext*, char const*)
PUBLIC a1738 0 PlatformSetImeDataFn_DefaultImpl(ImGuiContext*, ImGuiViewport*, ImGuiPlatformImeData*)
PUBLIC a173c 0 ImGuiViewportP::ImGuiViewportP()
PUBLIC m a17ec 0 ImGui::DockContextInitialize(ImGuiContext*)
PUBLIC m a18c0 0 ImGui::SaveIniSettingsToDisk(char const*)
PUBLIC m a1968 0 ImGui::DestroyPlatformWindows()
PUBLIC m a1a64 0 ImGui::DockContextShutdown(ImGuiContext*)
PUBLIC m a1b94 0 ImGui::CallContextHooks(ImGuiContext*, ImGuiContextHookType)
PUBLIC a1c00 0 ImGuiKeyRoutingTable::Clear()
PUBLIC a1dd0 0 ImPool<ImGuiTabBar>::Clear()
PUBLIC a1fc4 0 ImPool<ImGuiTable>::Clear()
PUBLIC a21b8 0 ImPool<ImGuiMultiSelectState>::Clear()
PUBLIC a2358 0 ImVector<ImGuiMultiSelectTempData>::clear_destruct()
PUBLIC m a2534 0 ImGui::AddContextHook(ImGuiContext*, ImGuiContextHook const*)
PUBLIC m a276c 0 ImGui::RemoveContextHook(ImGuiContext*, unsigned int)
PUBLIC m a27b0 0 ImGuiWindow::ImGuiWindow(ImGuiContext*, char const*)
PUBLIC m a2c2c 0 ImGuiWindow::GetID(char const*, char const*)
PUBLIC a2d60 0 ImDrawList::~ImDrawList()
PUBLIC a3278 0 ImVector<ImGuiOldColumns>::~ImVector()
PUBLIC a3344 0 ImGuiStorage::~ImGuiStorage()
PUBLIC a3410 0 ImGuiWindowTempData::~ImGuiWindowTempData()
PUBLIC a3654 0 ImVector<unsigned int>::~ImVector()
PUBLIC m a3724 0 ImGuiWindow::~ImGuiWindow()
PUBLIC m a3b1c 0 ImGui::GcCompactTransientMiscBuffers()
PUBLIC m a3cd0 0 ImGui::GcCompactTransientWindowBuffers(ImGuiWindow*)
PUBLIC m a3ffc 0 ImGui::GcAwakeTransientWindowBuffers(ImGuiWindow*)
PUBLIC a4048 0 ImVector<unsigned short>::reserve(int)
PUBLIC a4210 0 ImVector<ImDrawVert>::reserve(int)
PUBLIC m a43e0 0 ImGui::SetActiveID(unsigned int, ImGuiWindow*)
PUBLIC m a4528 0 ImGui::ClearActiveID()
PUBLIC m a4534 0 ImGui::SetHoveredID(unsigned int)
PUBLIC m a4568 0 ImGui::GetHoveredID()
PUBLIC m a458c 0 ImGui::MarkItemEdited(unsigned int)
PUBLIC m a45d8 0 ImGui::IsWindowContentHoverable(ImGuiWindow*, int)
PUBLIC m a4674 0 ImGui::IsWindowWithinBeginStackOf(ImGuiWindow*, ImGuiWindow*)
PUBLIC m a46a8 0 ImGui::IsItemHovered(int)
PUBLIC m a4944 0 ImGui::IsItemFocused()
PUBLIC m a499c 0 ImGuiWindow::GetIDFromRectangle(ImRect const&)
PUBLIC m a4af8 0 ImGui::ItemHoverable(ImRect const&, unsigned int, int)
PUBLIC m a4e68 0 ImGui::IsMouseHoveringRect(ImVec2 const&, ImVec2 const&, bool)
PUBLIC m a4f44 0 ImGui::SetTooltip(char const*, ...)
PUBLIC m a5034 0 ImGui::GetKeyChordName(int)
PUBLIC m a5224 0 ImGui::IsClippedEx(ImRect const&, unsigned int)
PUBLIC m a52c4 0 ImGui::SetLastItemData(unsigned int, int, int, ImRect const&)
PUBLIC m a52f4 0 ImGui::CalcWrapWidthForPos(ImVec2 const&, float)
PUBLIC m a534c 0 ImGui::DebugAllocHook(ImGuiDebugAllocInfo*, int, void*, unsigned long)
PUBLIC m a53d0 0 ImGui::GetClipboardText()
PUBLIC m a53f8 0 ImGui::SetClipboardText(char const*)
PUBLIC m a541c 0 ImGui::GetVersion()
PUBLIC m a5428 0 ImGui::GetIO()
PUBLIC m a543c 0 ImGui::GetPlatformIO()
PUBLIC m a5454 0 ImGui::GetDrawData()
PUBLIC m a5478 0 ImGui::GetTime()
PUBLIC m a548c 0 ImGui::GetFrameCount()
PUBLIC m a54a4 0 ImGui::GetBackgroundDrawList(ImGuiViewport*)
PUBLIC a54dc 0 GetViewportBgFgDrawList(ImGuiViewportP*, unsigned long, char const*)
PUBLIC m a56c4 0 ImGui::GetDrawListSharedData()
PUBLIC m a56dc 0 ImGui::StartMouseMovingWindow(ImGuiWindow*)
PUBLIC m a57c0 0 ImGui::FocusWindow(ImGuiWindow*, int)
PUBLIC m a5fa0 0 ImGui::SetActiveIdUsingAllKeyboardKeys()
PUBLIC m a5fd0 0 ImGui::StartMouseMovingWindowOrNode(ImGuiWindow*, ImGuiDockNode*, bool)
PUBLIC m a61c4 0 ImGui::IsMouseClicked(int, bool)
PUBLIC m a61d0 0 ImGui::IsMouseDragging(int, float)
PUBLIC m a6218 0 ImGui::DockContextQueueUndockNode(ImGuiContext*, ImGuiDockNode*)
PUBLIC m a630c 0 ImGui::UpdateMouseMovingWindowNewFrame()
PUBLIC m a6584 0 ImGui::KeepAliveID(unsigned int)
PUBLIC m a65cc 0 ImGui::IsMousePosValid(ImVec2 const*)
PUBLIC m a6600 0 ImGui::SetWindowPos(ImGuiWindow*, ImVec2 const&, int)
PUBLIC a66bc 0 ImGui::UpdateTryMergeWindowIntoHostViewport(ImGuiWindow*, ImGuiViewportP*)
PUBLIC m a69d8 0 ImGui::IsDragDropPayloadBeingAccepted()
PUBLIC m a6a0c 0 ImGui::UpdateMouseMovingWindowEndFrame()
PUBLIC m a6ce0 0 ImGui::IsPopupOpen(unsigned int, int)
PUBLIC m a6d94 0 ImGui::GetTopMostPopupModal()
PUBLIC m a6df8 0 ImGui::IsWindowAbove(ImGuiWindow*, ImGuiWindow*)
PUBLIC m a6e64 0 ImGui::ClosePopupsOverWindow(ImGuiWindow*, bool)
PUBLIC m a6f64 0 ImGui::UpdateHoveredWindowAndCaptureFlags()
PUBLIC m a7348 0 ImGui::FindHoveredWindowEx(ImVec2 const&, bool, ImGuiWindow**, ImGuiWindow**)
PUBLIC m a7534 0 ImGui::NewFrame()
PUBLIC m acd5c 0 ImGui::UpdateInputEvents(bool)
PUBLIC m ad6cc 0 ImGui::SetCurrentFont(ImFont*)
PUBLIC m ad768 0 ImGui::DockContextNewFrameUpdateUndocking(ImGuiContext*)
PUBLIC m ad900 0 ImGui::FocusTopMostWindowUnderOne(ImGuiWindow*, ImGuiWindow*, ImGuiViewport*, int)
PUBLIC m ad9e8 0 ImGui::DockContextNewFrameUpdateDocking(ImGuiContext*)
PUBLIC m adb08 0 ImGui::SetNextWindowSize(ImVec2 const&, int)
PUBLIC m adb40 0 ImGui::Begin(char const*, bool*, int)
PUBLIC m b34bc 0 ImGui::PushClipRect(ImVec2 const&, ImVec2 const&, bool)
PUBLIC m b3518 0 ImGui::PopClipRect()
PUBLIC m b3568 0 ImGui::FindBottomMostVisibleWindowWithinBeginStack(ImGuiWindow*)
PUBLIC m b3630 0 ImGui::FindWindowDisplayIndex(ImGuiWindow*)
PUBLIC m b3688 0 ImGui::EndFrame()
PUBLIC m b41f0 0 ImGui::FindViewportByID(unsigned int)
PUBLIC m b423c 0 ImGui::GetMainViewport()
PUBLIC m b4254 0 ImGui::End()
PUBLIC m b45c0 0 ImGui::DockContextEndFrame(ImGuiContext*)
PUBLIC m b47c4 0 ImGui::SetCurrentViewport(ImGuiWindow*, ImGuiViewportP*)
PUBLIC m b4820 0 ImGui::IsMouseDown(int)
PUBLIC m b48bc 0 ImGui::ClearDragDrop()
PUBLIC b4a18 0 ImVector<ImGuiWindow*>::reserve(int)
PUBLIC b4be0 0 AddWindowToSortBuffer(ImVector<ImGuiWindow*>*, ImGuiWindow*)
PUBLIC m b4cc4 0 ImGui::Render()
PUBLIC m b5834 0 ImGui::IsItemActive()
PUBLIC m b5868 0 ImGui::IsItemActivated()
PUBLIC m b58ac 0 ImGui::IsItemDeactivated()
PUBLIC m b5900 0 ImGui::IsItemDeactivatedAfterEdit()
PUBLIC m b598c 0 ImGui::IsItemClicked(int)
PUBLIC m b5a40 0 ImGui::IsItemToggledOpen()
PUBLIC m b5a5c 0 ImGui::IsItemToggledSelection()
PUBLIC m b5a78 0 ImGui::IsAnyItemHovered()
PUBLIC m b5aa8 0 ImGui::IsAnyItemActive()
PUBLIC m b5ac8 0 ImGui::IsAnyItemFocused()
PUBLIC m b5af8 0 ImGui::IsItemVisible()
PUBLIC m b5b14 0 ImGui::IsItemEdited()
PUBLIC m b5b30 0 ImGui::SetNextItemAllowOverlap()
PUBLIC m b5b50 0 ImGui::SetItemAllowOverlap()
PUBLIC m b5ba4 0 ImGui::NavMoveRequestCancel()
PUBLIC m b5bc4 0 ImGui::GetItemID()
PUBLIC m b5bdc 0 ImGui::GetItemRectMin()
PUBLIC m b5bf8 0 ImGui::GetItemRectMax()
PUBLIC m b5c14 0 ImGui::GetItemRectSize()
PUBLIC m b5c38 0 ImGui::BeginChild(char const*, ImVec2 const&, int, int)
PUBLIC m b5d38 0 ImGui::BeginChildEx(char const*, unsigned int, ImVec2 const&, int, int)
PUBLIC m b647c 0 ImGui::BeginChild(unsigned int, ImVec2 const&, int, int)
PUBLIC m b6498 0 ImGui::GetContentRegionAvail()
PUBLIC m b64e8 0 ImGui::CalcItemSize(ImVec2, float, float)
PUBLIC m b6570 0 ImGui::NavInitWindow(ImGuiWindow*, bool)
PUBLIC m b66dc 0 ImGui::EndChild()
PUBLIC m b68a8 0 ImGui::ItemSize(ImVec2 const&, float)
PUBLIC m b69c8 0 ImGui::ItemAdd(ImRect const&, unsigned int, ImRect const*, int)
PUBLIC m b72a4 0 ImGui::FindWindowByID(unsigned int)
PUBLIC m b730c 0 ImGui::FindWindowByName(char const*)
PUBLIC m b73f4 0 ImGui::CalcWindowNextAutoFitSize(ImGuiWindow*)
PUBLIC b750c 0 CalcWindowAutoFitSize(ImGuiWindow*, ImVec2 const&)
PUBLIC b7780 0 CalcWindowSizeAfterConstraint(ImGuiWindow*, ImVec2 const&)
PUBLIC m b793c 0 ImGui::GetWindowResizeCornerID(ImGuiWindow*, int)
PUBLIC m b7a2c 0 ImGui::GetWindowResizeBorderID(ImGuiWindow*, ImGuiDir)
PUBLIC m b7b20 0 ImGui::UpdateWindowParentAndRootLinks(ImGuiWindow*, int, ImGuiWindow*)
PUBLIC m b7bb8 0 ImGui::UpdateWindowSkipRefresh(ImGuiWindow*)
PUBLIC m b7c3c 0 ImGui::FindBlockingModal(ImGuiWindow*)
PUBLIC m b7d08 0 ImGui::SetWindowDock(ImGuiWindow*, unsigned int, int)
PUBLIC m b7e00 0 ImGui::GetWindowAlwaysWantOwnTabBar(ImGuiWindow*)
PUBLIC m b7e48 0 ImGui::BeginDocked(ImGuiWindow*, bool*)
PUBLIC m b83b8 0 ImGuiStackSizes::SetToContextState(ImGuiContext*)
PUBLIC m b8410 0 ImGui::PushFocusScope(unsigned int)
PUBLIC m b84b8 0 ImGui::SetWindowSize(ImGuiWindow*, ImVec2 const&, int)
PUBLIC m b85c0 0 ImGui::SetWindowCollapsed(ImGuiWindow*, bool, int)
PUBLIC m b85e8 0 ImGui::BeginDisabledOverrideReenable()
PUBLIC b8694 0 SetCurrentWindow(ImGuiWindow*)
PUBLIC m b8738 0 ImGui::GetKeyOwner(ImGuiKey)
PUBLIC m b87e4 0 ImGui::MarkIniSettingsDirty(ImGuiWindow*)
PUBLIC m b8818 0 ImGui::FindBestWindowPosForPopup(ImGuiWindow*)
PUBLIC b8c60 0 ImGui::AddUpdateViewport(ImGuiWindow*, unsigned int, ImVec2 const&, ImVec2 const&, int)
PUBLIC b8f98 0 ClampWindowPos(ImGuiWindow*, ImRect const&)
PUBLIC m b9000 0 ImGui::GetViewportPlatformMonitor(ImGuiViewport*)
PUBLIC b9044 0 CalcNextScrollFromScrollTargetAndClamp(ImGuiWindow*)
PUBLIC m b934c 0 ImGui::BeginDockableDragDropSource(ImGuiWindow*)
PUBLIC m b950c 0 ImGui::BeginDockableDragDropTarget(ImGuiWindow*)
PUBLIC m b995c 0 ImGui::DebugLocateItemResolveWithLastItem()
PUBLIC m b9abc 0 ImGui::PopFocusScope()
PUBLIC m b9b00 0 ImGui::EndDisabledOverrideReenable()
PUBLIC m b9b54 0 ImGui::LogFinish()
PUBLIC m b9cd8 0 ImGui::ErrorCheckUsingSetCursorPosToExtendParentBoundaries()
PUBLIC m b9d04 0 ImGuiStackSizes::CompareWithContextState(ImGuiContext*)
PUBLIC m b9d08 0 ImGui::BringWindowToFocusFront(ImGuiWindow*)
PUBLIC m b9d88 0 ImGui::BringWindowToDisplayFront(ImGuiWindow*)
PUBLIC m b9e3c 0 ImGui::BringWindowToDisplayBack(ImGuiWindow*)
PUBLIC m b9ec0 0 ImGui::BringWindowToDisplayBehind(ImGuiWindow*, ImGuiWindow*)
PUBLIC m b9fd4 0 ImGui::SetNavWindow(ImGuiWindow*)
PUBLIC m ba0a0 0 ImGui::SetNavFocusScope(unsigned int)
PUBLIC m ba288 0 ImGui::PushFont(ImFont*)
PUBLIC m ba550 0 ImGui::PopFont()
PUBLIC m ba724 0 ImGui::PushItemFlag(int, bool)
PUBLIC m ba7c4 0 ImGui::PopItemFlag()
PUBLIC m ba7f8 0 ImGui::BeginDisabled(bool)
PUBLIC m ba8c0 0 ImGui::EndDisabled()
PUBLIC m ba918 0 ImGui::PushTextWrapPos(float)
PUBLIC m ba9b4 0 ImGui::PopTextWrapPos()
PUBLIC m ba9ec 0 ImGui::IsWindowChildOf(ImGuiWindow*, ImGuiWindow*, bool, bool)
PUBLIC m baaa0 0 ImGui::IsWindowHovered(int)
PUBLIC m bacd4 0 ImGui::IsWindowFocused(int)
PUBLIC m bae24 0 ImGui::GetWindowDockID()
PUBLIC m bae3c 0 ImGui::IsWindowDocked()
PUBLIC m bae58 0 ImGui::IsWindowNavFocusable(ImGuiWindow*)
PUBLIC m bae84 0 ImGui::GetWindowWidth()
PUBLIC m bae9c 0 ImGui::GetWindowHeight()
PUBLIC m baeb4 0 ImGui::GetWindowPos()
PUBLIC m baecc 0 ImGui::SetWindowPos(ImVec2 const&, int)
PUBLIC m baeec 0 ImGui::SetWindowPos(char const*, ImVec2 const&, int)
PUBLIC m bafd4 0 ImGui::GetWindowSize()
PUBLIC m bafec 0 ImGui::SetWindowSize(ImVec2 const&, int)
PUBLIC m bb104 0 ImGui::SetWindowSize(char const*, ImVec2 const&, int)
PUBLIC m bb2b4 0 ImGui::SetWindowHitTestHole(ImGuiWindow*, ImVec2 const&, ImVec2 const&)
PUBLIC m bb2ec 0 ImGui::SetWindowHiddenAndSkipItemsForCurrentFrame(ImGuiWindow*)
PUBLIC m bb300 0 ImGui::SetWindowCollapsed(bool, int)
PUBLIC m bb338 0 ImGui::IsWindowCollapsed()
PUBLIC m bb350 0 ImGui::IsWindowAppearing()
PUBLIC m bb368 0 ImGui::SetWindowCollapsed(char const*, bool, int)
PUBLIC m bb470 0 ImGui::SetWindowFocus()
PUBLIC m bb488 0 ImGui::SetWindowFocus(char const*)
PUBLIC m bb578 0 ImGui::SetNextWindowPos(ImVec2 const&, int, ImVec2 const&)
PUBLIC m bb5c0 0 ImGui::SetNextWindowSizeConstraints(ImVec2 const&, ImVec2 const&, void (*)(ImGuiSizeCallbackData*), void*)
PUBLIC m bb5fc 0 ImGui::SetNextWindowContentSize(ImVec2 const&)
PUBLIC m bb630 0 ImGui::SetNextWindowScroll(ImVec2 const&)
PUBLIC m bb65c 0 ImGui::SetNextWindowCollapsed(bool, int)
PUBLIC m bb690 0 ImGui::SetNextWindowFocus()
PUBLIC m bb6b0 0 ImGui::SetNextWindowBgAlpha(float)
PUBLIC m bb6d8 0 ImGui::SetNextWindowViewport(unsigned int)
PUBLIC m bb700 0 ImGui::SetNextWindowDockID(unsigned int, int)
PUBLIC m bb734 0 ImGui::SetNextWindowClass(ImGuiWindowClass const*)
PUBLIC m bb768 0 ImGui::SetNextWindowRefreshPolicy(int)
PUBLIC m bb790 0 ImGui::GetWindowDrawList()
PUBLIC m bb7b0 0 ImGui::GetWindowDpiScale()
PUBLIC m bb7c4 0 ImGui::GetWindowViewport()
PUBLIC m bb7d8 0 ImGui::GetFont()
PUBLIC m bb7ec 0 ImGui::GetFontSize()
PUBLIC m bb800 0 ImGui::GetFontTexUvWhitePixel()
PUBLIC m bb818 0 ImGui::SetWindowFontScale(float)
PUBLIC m bb878 0 ImGui::FocusItem()
PUBLIC m bbaa4 0 ImGui::NavMoveRequestSubmit(ImGuiDir, ImGuiDir, int, int)
PUBLIC m bbb78 0 ImGui::NavMoveRequestResolveWithLastItem(ImGuiNavItemData*)
PUBLIC m bbbfc 0 ImGui::ActivateItemByID(unsigned int)
PUBLIC m bbc18 0 ImGui::SetKeyboardFocusHere(int)
PUBLIC m bbe98 0 ImGui::SetItemDefaultFocus()
PUBLIC bbf88 0 ImGui::NavApplyItemToResult(ImGuiNavItemData*)
PUBLIC m bbfdc 0 ImGui::ScrollToRectEx(ImGuiWindow*, ImRect const&, int)
PUBLIC m bc368 0 ImGui::SetStateStorage(ImGuiStorage*)
PUBLIC m bc38c 0 ImGui::GetStateStorage()
PUBLIC m bc3a4 0 ImGui::IsRectVisible(ImVec2 const&)
PUBLIC m bc408 0 ImGui::IsRectVisible(ImVec2 const&, ImVec2 const&)
PUBLIC m bc464 0 ImGui::DebugHookIdInfo(unsigned int, int, void const*, void const*)
PUBLIC m bc6b0 0 ImGuiWindow::GetID(void const*)
PUBLIC m bc7a0 0 ImGuiWindow::GetID(int)
PUBLIC m bc840 0 ImGui::PushID(char const*)
PUBLIC m bc964 0 ImGui::PushID(char const*, char const*)
PUBLIC m bca00 0 ImGui::PushID(void const*)
PUBLIC m bca98 0 ImGui::PushID(int)
PUBLIC m bcba4 0 ImGui::PushOverrideID(unsigned int)
PUBLIC m bcc54 0 ImGui::GetIDWithSeed(char const*, char const*, unsigned int)
PUBLIC m bcd84 0 ImGui::GetIDWithSeed(int, unsigned int)
PUBLIC m bce1c 0 ImGui::PopID()
PUBLIC m bce3c 0 ImGui::GetID(char const*)
PUBLIC m bcf04 0 ImGui::GetID(char const*, char const*)
PUBLIC m bcf24 0 ImGui::GetID(void const*)
PUBLIC m bcf40 0 ImGui::GetID(int)
PUBLIC m bcff0 0 ImGui::FixupKeyChord(int)
PUBLIC m bd050 0 ImGui::GetKeyIndex(ImGuiKey)
PUBLIC m bd0ac 0 ImGui::GetKeyName(ImGuiKey)
PUBLIC m bd154 0 ImGui::CalcTypematicRepeatAmount(float, float, float, float)
PUBLIC m bd1d4 0 ImGui::GetTypematicRepeatRate(int, float*, float*)
PUBLIC m bd268 0 ImGui::GetKeyPressedAmount(ImGuiKey, float, float)
PUBLIC m bd360 0 ImGui::GetKeyMagnitude2d(ImGuiKey, ImGuiKey, ImGuiKey, ImGuiKey)
PUBLIC m bd4d8 0 ImGui::GetShortcutRoutingData(int)
PUBLIC m bd640 0 ImGui::SetShortcutRouting(int, int, unsigned int)
PUBLIC m bda28 0 ImGui::TestShortcutRouting(int, unsigned int)
PUBLIC m bdad0 0 ImGui::IsKeyDown(ImGuiKey)
PUBLIC m bdad8 0 ImGui::IsKeyDown(ImGuiKey, unsigned int)
PUBLIC m bdc38 0 ImGui::TestKeyOwner(ImGuiKey, unsigned int)
PUBLIC m bdd38 0 ImGui::IsKeyPressed(ImGuiKey, bool)
PUBLIC m bdd44 0 ImGui::IsKeyPressed(ImGuiKey, int, unsigned int)
PUBLIC m be09c 0 ImGui::IsKeyReleased(ImGuiKey)
PUBLIC m be0a4 0 ImGui::IsKeyReleased(ImGuiKey, unsigned int)
PUBLIC m be228 0 ImGui::IsMouseDown(int, unsigned int)
PUBLIC m be338 0 ImGui::IsMouseClicked(int, int, unsigned int)
PUBLIC m be4e8 0 ImGui::IsMouseReleased(int)
PUBLIC m be588 0 ImGui::IsMouseReleased(int, unsigned int)
PUBLIC m be69c 0 ImGui::IsMouseDoubleClicked(int)
PUBLIC m be748 0 ImGui::IsMouseDoubleClicked(int, unsigned int)
PUBLIC m be860 0 ImGui::GetMouseClickedCount(int)
PUBLIC m be87c 0 ImGui::IsMouseDragPastThreshold(int, float)
PUBLIC m be8ac 0 ImGui::GetMousePos()
PUBLIC m be8c4 0 ImGui::TeleportMousePos(ImVec2 const&)
PUBLIC m be8f0 0 ImGui::GetMousePosOnOpeningCurrentPopup()
PUBLIC m be940 0 ImGui::IsAnyMouseDown()
PUBLIC m be99c 0 ImGui::GetMouseDragDelta(int, float)
PUBLIC m bea54 0 ImGui::ResetMouseDragDelta(int)
PUBLIC m bea74 0 ImGui::GetMouseCursor()
PUBLIC m bea8c 0 ImGui::SetMouseCursor(int)
PUBLIC m beaa4 0 ImGui::SetNextFrameWantCaptureKeyboard(bool)
PUBLIC m beac0 0 ImGui::SetNextFrameWantCaptureMouse(bool)
PUBLIC m beadc 0 ImGui::SetKeyOwner(ImGuiKey, unsigned int, int)
PUBLIC m beb48 0 ImGui::SetKeyOwnersForKeyChord(int, unsigned int, int)
PUBLIC m bec38 0 ImGui::SetItemKeyOwner(ImGuiKey, int)
PUBLIC m becf8 0 ImGui::SetItemKeyOwner(ImGuiKey)
PUBLIC m bed7c 0 ImGui::IsKeyChordPressed(int)
PUBLIC m bee50 0 ImGui::IsKeyChordPressed(int, int, unsigned int)
PUBLIC m bef1c 0 ImGui::SetNextItemShortcut(int, int)
PUBLIC m bef44 0 ImGui::Shortcut(int, int)
PUBLIC m bef4c 0 ImGui::Shortcut(int, int, unsigned int)
PUBLIC m bf104 0 ImGui::DebugCheckVersionAndDataLayout(char const*, unsigned long, unsigned long, unsigned long, unsigned long, unsigned long, unsigned long)
PUBLIC m bf178 0 ImGui::ErrorCheckEndFrameRecover(void (*)(void*, char const*, ...), void*)
PUBLIC m bf280 0 ImGui::ErrorCheckEndWindowRecover(void (*)(void*, char const*, ...), void*)
PUBLIC m bf848 0 ImGui::EndGroup()
PUBLIC m bfbbc 0 ImGui::SameLine(float, float)
PUBLIC m bfc4c 0 ImGui::GetCursorScreenPos()
PUBLIC m bfc68 0 ImGui::SetCursorScreenPos(ImVec2 const&)
PUBLIC m bfc90 0 ImGui::GetCursorPos()
PUBLIC m bfcbc 0 ImGui::GetCursorPosX()
PUBLIC m bfce4 0 ImGui::GetCursorPosY()
PUBLIC m bfd0c 0 ImGui::SetCursorPos(ImVec2 const&)
PUBLIC m bfd44 0 ImGui::SetCursorPosX(float)
PUBLIC m bfd78 0 ImGui::SetCursorPosY(float)
PUBLIC m bfdac 0 ImGui::GetCursorStartPos()
PUBLIC m bfdd0 0 ImGui::Indent(float)
PUBLIC m bfe18 0 ImGui::Unindent(float)
PUBLIC m bfe60 0 ImGui::PushItemWidth(float)
PUBLIC m bff18 0 ImGui::PushMultiItemsWidths(int, float)
PUBLIC m c008c 0 ImGui::PopItemWidth()
PUBLIC m c00c4 0 ImGui::CalcItemWidth()
PUBLIC m c0154 0 ImGui::GetTextLineHeight()
PUBLIC m c0168 0 ImGui::GetTextLineHeightWithSpacing()
PUBLIC m c0184 0 ImGui::GetFrameHeight()
PUBLIC m c01a4 0 ImGui::GetFrameHeightWithSpacing()
PUBLIC m c01cc 0 ImGui::GetContentRegionMax()
PUBLIC m c0218 0 ImGui::GetWindowContentRegionMin()
PUBLIC m c023c 0 ImGui::GetWindowContentRegionMax()
PUBLIC m c0260 0 ImGui::BeginGroup()
PUBLIC m c03a0 0 ImGui::ScrollToItem(int)
PUBLIC m c03c0 0 ImGui::ScrollToRect(ImGuiWindow*, ImRect const&, int)
PUBLIC m c03c4 0 ImGui::SetScrollFromPosX(ImGuiWindow*, float, float)
PUBLIC m c03f4 0 ImGui::SetScrollFromPosY(ImGuiWindow*, float, float)
PUBLIC m c0424 0 ImGui::GetScrollX()
PUBLIC m c043c 0 ImGui::GetScrollY()
PUBLIC m c0454 0 ImGui::GetScrollMaxX()
PUBLIC m c046c 0 ImGui::GetScrollMaxY()
PUBLIC m c0484 0 ImGui::SetScrollX(ImGuiWindow*, float)
PUBLIC m c0494 0 ImGui::SetScrollY(ImGuiWindow*, float)
PUBLIC m c04a4 0 ImGui::SetScrollX(float)
PUBLIC m c04c4 0 ImGui::SetScrollY(float)
PUBLIC m c04e4 0 ImGui::SetScrollFromPosX(float, float)
PUBLIC m c0524 0 ImGui::SetScrollFromPosY(float, float)
PUBLIC m c0564 0 ImGui::SetScrollHereX(float)
PUBLIC m c05ec 0 ImGui::SetScrollHereY(float)
PUBLIC m c0670 0 ImGui::BeginTooltip()
PUBLIC m c0690 0 ImGui::BeginTooltipEx(int, int)
PUBLIC m c08a8 0 ImGui::BeginItemTooltip()
PUBLIC m c08e0 0 ImGui::EndTooltip()
PUBLIC m c08e4 0 ImGui::SetTooltipV(char const*, std::__va_list)
PUBLIC m c0994 0 ImGui::SetItemTooltip(char const*, ...)
PUBLIC m c0a90 0 ImGui::SetItemTooltipV(char const*, std::__va_list)
PUBLIC m c0b4c 0 ImGui::IsPopupOpen(char const*, int)
PUBLIC m c0cf8 0 ImGui::GetTopMostAndVisiblePopupModal()
PUBLIC m c0d6c 0 ImGui::OpenPopup(char const*, int)
PUBLIC m c0e8c 0 ImGui::OpenPopupEx(unsigned int, int)
PUBLIC m c10a0 0 ImGui::OpenPopup(unsigned int, int)
PUBLIC c10a4 0 ImGui::NavCalcPreferredRefPos()
PUBLIC m c1284 0 ImGui::ClosePopupToLevel(int, bool)
PUBLIC m c143c 0 ImGui::ClosePopupsExceptModals()
PUBLIC m c14a4 0 ImGui::CloseCurrentPopup()
PUBLIC m c1580 0 ImGui::BeginPopupEx(unsigned int, int)
PUBLIC m c16b8 0 ImGui::EndPopup()
PUBLIC m c172c 0 ImGui::BeginPopup(char const*, int)
PUBLIC m c1834 0 ImGui::BeginPopupModal(char const*, bool*, int)
PUBLIC m c1af8 0 ImGui::NavMoveRequestTryWrapping(ImGuiWindow*, int)
PUBLIC m c1b3c 0 ImGui::OpenPopupOnItemClick(char const*, int)
PUBLIC m c1c88 0 ImGui::BeginPopupContextItem(char const*, int)
PUBLIC m c1e0c 0 ImGui::BeginPopupContextWindow(char const*, int)
PUBLIC m c2010 0 ImGui::BeginPopupContextVoid(char const*, int)
PUBLIC m c2244 0 ImGui::FindBestWindowPosForPopupEx(ImVec2 const&, ImVec2 const&, ImGuiDir*, ImRect const&, ImRect const&, ImGuiPopupPositionPolicy)
PUBLIC m c2808 0 ImGui::GetPopupAllowedExtentRect(ImGuiWindow*)
PUBLIC m c286c 0 ImGui::NavHighlightActivated(unsigned int)
PUBLIC m c2890 0 ImGui::NavClearPreferredPosForAxis(ImGuiAxis)
PUBLIC m c28c0 0 ImGui::SetNavID(unsigned int, ImGuiNavLayer, unsigned int, ImRect const&)
PUBLIC m c2954 0 ImGui::SetFocusID(unsigned int, ImGuiWindow*)
PUBLIC m c2aa4 0 ImGui::NavUpdateCurrentWindowIsScrollPushableX()
PUBLIC m c2ad8 0 ImGui::NavMoveRequestButNoResultYet()
PUBLIC m c2b10 0 ImGui::NavMoveRequestResolveWithPastTreeNode(ImGuiNavItemData*, ImGuiTreeNodeStackData*)
PUBLIC m c2bb4 0 ImGui::NavMoveRequestForward(ImGuiDir, ImGuiDir, int, int)
PUBLIC m c2bf0 0 ImGui::NavRestoreHighlightAfterMove()
PUBLIC m c2c14 0 ImGui::GetNavTweakPressedAmount(ImGuiAxis)
PUBLIC m c2e90 0 ImGui::NavInitRequestApplyResult()
PUBLIC m c2fcc 0 ImGui::NavMoveRequestApplyResult()
PUBLIC m c3440 0 ImGui::IsDragDropActive()
PUBLIC m c3458 0 ImGui::BeginTooltipHidden()
PUBLIC m c34ac 0 ImGui::BeginDragDropSource(int)
PUBLIC m c37fc 0 ImGui::EndDragDropSource()
PUBLIC m c3860 0 ImGui::SetDragDropPayload(char const*, void const*, unsigned long, int)
PUBLIC m c398c 0 ImGui::BeginDragDropTargetCustom(ImRect const&, unsigned int)
PUBLIC m c3aa8 0 ImGui::BeginDragDropTarget()
PUBLIC m c3bcc 0 ImGui::AcceptDragDropPayload(char const*, int)
PUBLIC m c3e40 0 ImGui::RenderDragDropTargetRect(ImRect const&, ImRect const&)
PUBLIC m c4014 0 ImGui::GetDragDropPayload()
PUBLIC m c404c 0 ImGui::EndDragDropTarget()
PUBLIC m c4070 0 ImGui::LogText(char const*, ...)
PUBLIC m c41bc 0 ImGui::LogTextV(char const*, std::__va_list)
PUBLIC m c42bc 0 ImGui::LogBegin(ImGuiLogType, int)
PUBLIC m c4328 0 ImGui::LogSetNextTextDecoration(char const*, char const*)
PUBLIC m c4340 0 ImGui::LogToTTY(int)
PUBLIC m c43b4 0 ImGui::LogToFile(int, char const*)
PUBLIC m c4484 0 ImGui::LogToClipboard(int)
PUBLIC m c4500 0 ImGui::LogToBuffer(int)
PUBLIC m c457c 0 ImGui::LogButtons()
PUBLIC m c4948 0 ImGui::MarkIniSettingsDirty()
PUBLIC m c4974 0 ImGui::RemoveSettingsHandler(char const*)
PUBLIC m c4a7c 0 ImGui::FindSettingsHandler(char const*)
PUBLIC m c4b24 0 ImGui::ClearIniSettings()
PUBLIC m c4c44 0 ImGui::LoadIniSettingsFromDisk(char const*)
PUBLIC m c4d68 0 ImGui::LoadIniSettingsFromMemory(char const*, unsigned long)
PUBLIC m c50d0 0 ImGui::SaveIniSettingsToMemory(unsigned long*)
PUBLIC m c51cc 0 ImGui::CreateNewWindowSettings(char const*)
PUBLIC m c5398 0 ImGui::FindWindowSettingsByID(unsigned int)
PUBLIC m c53fc 0 ImGui::FindWindowSettingsByWindow(ImGuiWindow*)
PUBLIC m c5480 0 ImGui::ClearWindowSettings(char const*)
PUBLIC m c56f4 0 ImGui::DockContextProcessUndockWindow(ImGuiContext*, ImGuiWindow*, bool)
PUBLIC m c5824 0 ImGui::FindViewportByPlatformHandle(void*)
PUBLIC m c5870 0 ImGui::SetWindowViewport(ImGuiWindow*, ImGuiViewportP*)
PUBLIC m c58ac 0 ImGui::TranslateWindowsInViewport(ImGuiViewportP*, ImVec2 const&, ImVec2 const&)
PUBLIC m c59a8 0 ImGui::ScaleWindowsInViewport(ImGuiViewportP*, float)
PUBLIC m c5ac8 0 ImGui::FindHoveredViewportFromPlatformWindowStack(ImVec2 const&)
PUBLIC m c5b6c 0 ImGui::UpdatePlatformWindows()
PUBLIC m c6058 0 ImGui::DestroyPlatformWindow(ImGuiViewportP*)
PUBLIC m c6100 0 ImGui::RenderPlatformWindowsDefault(void*, void*)
PUBLIC c61f8 0 ImGui::DockSettingsHandler_ClearAll(ImGuiContext*, ImGuiSettingsHandler*)
PUBLIC c6354 0 ImGui::DockSettingsHandler_ReadOpen(ImGuiContext*, ImGuiSettingsHandler*, char const*)
PUBLIC c637c 0 ImGui::DockSettingsHandler_ReadLine(ImGuiContext*, ImGuiSettingsHandler*, void*, char const*)
PUBLIC c6860 0 ImGui::DockSettingsHandler_ApplyAll(ImGuiContext*, ImGuiSettingsHandler*)
PUBLIC c7098 0 ImGui::DockSettingsHandler_WriteAll(ImGuiContext*, ImGuiSettingsHandler*, ImGuiTextBuffer*)
PUBLIC m c7758 0 ImGui::DockNodeWindowMenuHandler_Default(ImGuiContext*, ImGuiDockNode*, ImGuiTabBar*)
PUBLIC m c7920 0 ImGui::DockContextClearNodes(ImGuiContext*, unsigned int, bool)
PUBLIC m c794c 0 ImGui::DockBuilderRemoveNodeDockedWindows(unsigned int, bool)
PUBLIC m c7af0 0 ImGui::DockBuilderRemoveNodeChildNodes(unsigned int)
PUBLIC m c81c0 0 ImGui::DockContextRebuildNodes(ImGuiContext*)
PUBLIC c8318 0 ImGui::DockContextBuildNodesFromSettings(ImGuiContext*, ImGuiDockNodeSettings*, int)
PUBLIC m c85f0 0 ImGui::DockContextProcessUndockNode(ImGuiContext*, ImGuiDockNode*)
PUBLIC c8960 0 ImGui::DockNodeTreeFindVisibleNodeByPos(ImGuiDockNode*, ImVec2)
PUBLIC c8a2c 0 ImGui::DockContextProcessDock(ImGuiContext*, ImGuiDockRequest*)
PUBLIC c93b0 0 ImGui::DockNodeUpdate(ImGuiDockNode*)
PUBLIC m cc048 0 ImGui::DockContextFindNodeByID(ImGuiContext*, unsigned int)
PUBLIC m cc0a4 0 ImGui::DockContextGenNodeID(ImGuiContext*)
PUBLIC m cc114 0 ImGui::DockContextQueueDock(ImGuiContext*, ImGuiWindow*, ImGuiDockNode*, ImGuiWindow*, ImGuiDir, float, bool)
PUBLIC m cc228 0 ImGui::DockContextQueueUndockWindow(ImGuiContext*, ImGuiWindow*)
PUBLIC cc31c 0 ImGui::DockNodeRemoveWindow(ImGuiDockNode*, ImGuiWindow*, unsigned int)
PUBLIC cc740 0 ImGui::DockContextAddNode(ImGuiContext*, unsigned int)
PUBLIC cc8d8 0 ImGui::DockNodeMoveWindows(ImGuiDockNode*, ImGuiDockNode*)
PUBLIC ccb30 0 ImGui::DockNodeTreeMerge(ImGuiContext*, ImGuiDockNode*, ImGuiDockNode*)
PUBLIC m cd128 0 ImGui::DockContextCalcDropPosForDocking(ImGuiWindow*, ImGuiDockNode*, ImGuiWindow*, ImGuiDockNode*, ImGuiDir, bool, ImVec2*)
PUBLIC cd280 0 ImGui::DockNodePreviewDockSetup(ImGuiWindow*, ImGuiDockNode*, ImGuiWindow*, ImGuiDockNode*, ImGuiDockPreviewData*, bool, bool)
PUBLIC m cdaac 0 ImGuiDockNode::ImGuiDockNode(unsigned int)
PUBLIC cdb28 0 ImVector<ImGuiWindow*>::~ImVector()
PUBLIC m cdbf4 0 ImGuiDockNode::~ImGuiDockNode()
PUBLIC m cdda4 0 ImGui::DockNodeBeginAmendTabBar(ImGuiDockNode*)
PUBLIC m cdeb4 0 ImGui::DockNodeEndAmendTabBar()
PUBLIC m cdee4 0 ImGui::DockSpace(unsigned int, ImVec2 const&, int, ImGuiWindowClass const*)
PUBLIC m ce4b8 0 ImGui::DockSpaceOverViewport(unsigned int, ImGuiViewport const*, int, ImGuiWindowClass const*)
PUBLIC m ce9a4 0 ImGui::DockBuilderDockWindow(char const*, unsigned int)
PUBLIC m cec00 0 ImGui::DockBuilderGetNode(unsigned int)
PUBLIC m cec68 0 ImGui::DockBuilderSetNodePos(unsigned int, ImVec2)
PUBLIC m cece0 0 ImGui::DockBuilderSetNodeSize(unsigned int, ImVec2)
PUBLIC m ced70 0 ImGui::DockBuilderAddNode(unsigned int, int)
PUBLIC m cee8c 0 ImGui::DockBuilderRemoveNode(unsigned int)
PUBLIC cefd4 0 ImGui::DockContextRemoveNode(ImGuiContext*, ImGuiDockNode*, bool)
PUBLIC cf174 0 DockNodeComparerDepthMostFirst(void const*, void const*)
PUBLIC cf19c 0 ImVector<ImGuiDockNode*>::~ImVector()
PUBLIC m cf268 0 ImGui::DockBuilderSplitNode(unsigned int, ImGuiDir, float, unsigned int*, unsigned int*)
PUBLIC m cf404 0 ImGui::DockBuilderCopyNode(unsigned int, unsigned int, ImVector<unsigned int>*)
PUBLIC cf574 0 DockBuilderCopyNodeRec(ImGuiDockNode*, unsigned int, ImVector<unsigned int>*)
PUBLIC m cf6f8 0 ImGui::DockBuilderCopyWindowSettings(char const*, char const*)
PUBLIC m cf9bc 0 ImGui::DockBuilderCopyDockSpace(unsigned int, unsigned int, ImVector<char const*>*)
PUBLIC d0288 0 ImVector<ImGui::DockBuilderCopyDockSpace(unsigned int, unsigned int, ImVector<char const*>*)::DockRemainingWindowTask>::~ImVector()
PUBLIC m d0354 0 ImGui::DockBuilderFinish(unsigned int)
PUBLIC d04f0 0 StoreDockStyleForWindow(ImGuiWindow*)
PUBLIC d0764 0 ImGui::DockNodeIsDropAllowed(ImGuiWindow*, ImGuiWindow*)
PUBLIC d08a8 0 ImGui::DockNodePreviewDockRender(ImGuiWindow*, ImGuiDockNode*, ImGuiWindow*, ImGuiDockPreviewData const*)
PUBLIC m d1b80 0 ImGui::DebugRenderViewportThumbnail(ImDrawList*, ImGuiViewportP*, ImRect const&)
PUBLIC m d2544 0 ImGui::DebugRenderKeyboardPreview(ImDrawList*)
PUBLIC m d2940 0 ImGui::DebugTextEncoding(char const*)
PUBLIC m d2ca0 0 ImGui::DebugFlashStyleColor(int)
PUBLIC m d2cf8 0 ImGui::ShowFontAtlas(ImFontAtlas*)
PUBLIC m d2eb4 0 ImGui::DebugNodeFont(ImFont*)
PUBLIC m d37c0 0 ImGui::ShowMetricsWindow(bool*)
PUBLIC m d9624 0 ImGui::ShowDebugLogWindow(bool*)
PUBLIC m d9ff4 0 ImGui::ShowIDStackToolWindow(bool*)
PUBLIC m da8a0 0 ImGui::DebugBreakClearData()
PUBLIC da8c4 0 MetricsHelpMarker(char const*)
PUBLIC m da9f4 0 ImGui::DebugStartItemPicker()
PUBLIC daa10 0 ImGui::ShowMetricsWindow(bool*)::Funcs::GetTableRect(ImGuiTable*, int, int)
PUBLIC m dabe4 0 ImGui::DebugNodeWindowsList(ImVector<ImGuiWindow*>*, char const*)
PUBLIC dad18 0 ImGui::ShowMetricsWindow(bool*)::Func::WindowComparerByBeginOrder(void const*, void const*)
PUBLIC m dad30 0 ImGui::DebugNodeWindowsListByBeginStackParent(ImGuiWindow**, int, ImGuiWindow*)
PUBLIC m dae64 0 ImGui::DebugNodeDrawList(ImGuiWindow*, ImGuiViewportP*, ImDrawList const*, char const*)
PUBLIC m db7d4 0 ImGui::DebugNodePlatformMonitor(ImGuiPlatformMonitor*, char const*, int)
PUBLIC db868 0 ImVector<ImGuiViewportP*>::~ImVector()
PUBLIC db938 0 ViewportComparerByLastFocusedStampCount(void const*, void const*)
PUBLIC m db950 0 ImGui::DebugNodeViewport(ImGuiViewportP*)
PUBLIC m dbcb0 0 ImGui::DebugNodeTabBar(ImGuiTabBar*, char const*)
PUBLIC m dc2d0 0 ImGui::DebugNodeDockNode(ImGuiDockNode*, char const*)
PUBLIC m dc884 0 ImGui::DebugNodeWindowSettings(ImGuiWindowSettings*)
PUBLIC m dc9d0 0 ImGui::DebugLocateItemOnHover(unsigned int)
PUBLIC m dcbe4 0 ImGui::DebugBreakButton(char const*, char const*)
PUBLIC m dd258 0 ImGui::DebugBreakButtonTooltip(bool, char const*)
PUBLIC m dd35c 0 ImGui::DebugNodeColumns(ImGuiOldColumns*)
PUBLIC m dd440 0 ImGui::DebugNodeWindow(ImGuiWindow*, char const*)
PUBLIC ddc6c 0 DebugNodeDockNodeFlags(int*, char const*, bool)
PUBLIC m de270 0 ImGui::DebugNodeDrawCmdShowMeshAndBoundingBox(ImDrawList*, ImDrawList const*, ImDrawCmd const*, bool, bool)
PUBLIC m de5f8 0 ImGui::DebugNodeFontGlyph(ImFont*, ImFontGlyph const*)
PUBLIC m de6d4 0 ImGui::DebugNodeStorage(ImGuiStorage*, char const*)
PUBLIC m de760 0 ImGui::DebugLogV(char const*, std::__va_list)
PUBLIC de88c 0 ShowDebugLogFlag(char const*, int)
PUBLIC m dea84 0 ImGui::DebugTextUnformattedWithLocateItem(char const*, char const*)
PUBLIC m ded28 0 ImGui::DebugDrawCursorPos(unsigned int)
PUBLIC m dedf4 0 ImGui::DebugDrawLineExtents(unsigned int)
PUBLIC m def10 0 ImGui::DebugDrawItemRect(unsigned int)
PUBLIC m def74 0 ImGui::DebugLocateItem(unsigned int)
PUBLIC def98 0 StackToolFormatLevelInfo(ImGuiIDStackTool*, int, bool, char*, unsigned long)
PUBLIC df0b0 0 ImVector<ImGuiListClipperRange>::reserve(int)
PUBLIC df280 0 MallocWrapper(unsigned long, void*)
PUBLIC df284 0 FreeWrapper(void*, void*)
PUBLIC df288 0 ImVector<char>::~ImVector()
PUBLIC df358 0 ImGuiIDStackTool::~ImGuiIDStackTool()
PUBLIC df424 0 ImGuiTextIndex::~ImGuiTextIndex()
PUBLIC df4f0 0 ImGuiTextBuffer::~ImGuiTextBuffer()
PUBLIC df5c0 0 ImVector<ImGuiContextHook>::~ImVector()
PUBLIC df68c 0 ImChunkStream<ImGuiTableSettings>::~ImChunkStream()
PUBLIC df75c 0 ImChunkStream<ImGuiWindowSettings>::~ImChunkStream()
PUBLIC df828 0 ImVector<ImGuiSettingsHandler>::~ImVector()
PUBLIC df8f4 0 ImGuiDockContext::~ImGuiDockContext()
PUBLIC dfb38 0 ImGuiInputTextDeactivatedState::~ImGuiInputTextDeactivatedState()
PUBLIC dfc04 0 ImGuiInputTextState::~ImGuiInputTextState()
PUBLIC dfe48 0 ImPool<ImGuiMultiSelectState>::~ImPool()
PUBLIC dffe4 0 ImVector<ImGuiMultiSelectTempData>::~ImVector()
PUBLIC e00b0 0 ImVector<ImGuiShrinkWidthItem>::~ImVector()
PUBLIC e017c 0 ImVector<ImGuiPtrOrIndex>::~ImVector()
PUBLIC e0248 0 ImPool<ImGuiTabBar>::~ImPool()
PUBLIC e03e4 0 ImVector<ImDrawChannel>::~ImVector()
PUBLIC e04b0 0 ImVector<float>::~ImVector()
PUBLIC e057c 0 ImPool<ImGuiTable>::~ImPool()
PUBLIC e0718 0 ImVector<ImGuiTableTempData>::~ImVector()
PUBLIC e07e4 0 ImVector<ImGuiListClipperData>::~ImVector()
PUBLIC e08b0 0 ImVector<unsigned char>::~ImVector()
PUBLIC e097c 0 ImVector<ImGuiFocusScopeData>::~ImVector()
PUBLIC e0a48 0 ImVector<ImGuiTreeNodeStackData>::~ImVector()
PUBLIC e0b14 0 ImVector<ImGuiPopupData>::~ImVector()
PUBLIC e0be0 0 ImVector<ImGuiGroupData>::~ImVector()
PUBLIC e0cac 0 ImVector<int>::~ImVector()
PUBLIC e0d7c 0 ImVector<ImFont*>::~ImVector()
PUBLIC e0e48 0 ImVector<ImGuiStyleMod>::~ImVector()
PUBLIC e0f14 0 ImVector<ImGuiColorMod>::~ImVector()
PUBLIC e0fe0 0 ImGuiKeyRoutingTable::~ImGuiKeyRoutingTable()
PUBLIC e1174 0 ImVector<ImGuiWindowStackData>::~ImVector()
PUBLIC e1240 0 ImVector<ImGuiInputEvent>::~ImVector()
PUBLIC e130c 0 ImDrawListSharedData::~ImDrawListSharedData()
PUBLIC e13d8 0 ImGuiPlatformIO::~ImGuiPlatformIO()
PUBLIC e156c 0 ImGuiIO::~ImGuiIO()
PUBLIC e1638 0 ImVector<ImGuiKeyRoutingData>::~ImVector()
PUBLIC e1704 0 ImVector<ImDrawList*>::~ImVector()
PUBLIC e17d0 0 ChildWindowComparer(void const*, void const*)
PUBLIC e1814 0 ImVector<ImDrawList*>::reserve(int)
PUBLIC e19dc 0 ImGui::RenderDimmedBackgroundBehindWindow(ImGuiWindow*, unsigned int)
PUBLIC e1d40 0 ImVector<ImDrawCmd>::reserve(int)
PUBLIC e1f10 0 AddWindowToDrawData(ImGuiWindow*, int)
PUBLIC e1fc4 0 ImGui::RenderWindowOuterBorders(ImGuiWindow*)
PUBLIC e25c0 0 ImVector<ImVec2>::reserve(int)
PUBLIC e2788 0 ImVector<ImGuiKeyRoutingData>::reserve(int)
PUBLIC e2950 0 LockWheelingWindow(ImGuiWindow*, float)
PUBLIC e2a2c 0 ImGui::NavScoreItem(ImGuiNavItemData*)
PUBLIC e2d88 0 ImGui::NavRestoreLayer(ImGuiNavLayer)
PUBLIC e2f30 0 ImGui::UpdateViewportPlatformMonitor(ImGuiViewportP*)
PUBLIC e3050 0 ImGuiViewportP::~ImGuiViewportP()
PUBLIC e3360 0 ImVector<ImGuiViewport*>::reserve(int)
PUBLIC e3528 0 ImGui::DockNodeAddWindow(ImGuiDockNode*, ImGuiWindow*, bool)
PUBLIC e3924 0 ImGui::DockNodeUpdateHasCentralNodeChild(ImGuiDockNode*)
PUBLIC e399c 0 ImGui::DockNodeTreeUpdatePosSize(ImGuiDockNode*, ImVec2, ImVec2, ImGuiDockNode*)
PUBLIC e3d04 0 ImGui::DockNodeHideHostWindow(ImGuiDockNode*)
PUBLIC e3e2c 0 ImGui::DockNodeTreeUpdateSplitter(ImGuiDockNode*)
PUBLIC e47b4 0 ImGui::DockNodeUpdateFlagsAndCollapse(ImGuiDockNode*)
PUBLIC e4a88 0 DockNodeFindInfo(ImGuiDockNode*, ImGuiDockNodeTreeInfo*)
PUBLIC e4b0c 0 DockNodeTreeUpdateSplitterFindTouchingNode(ImGuiDockNode*, ImGuiAxis, int, ImVector<ImGuiDockNode*>*)
PUBLIC e4c6c 0 TabItemComparerByDockOrder(void const*, void const*)
PUBLIC e4cac 0 ImPool<ImGuiDockContextPruneNodeData>::~ImPool()
PUBLIC e4fc4 0 ImVector<ImGuiDockContextPruneNodeData>::reserve(int)
PUBLIC e518c 0 ImVector<ImGuiStoragePair>::reserve(int)
PUBLIC e5354 0 ImVector<ImGuiDockNodeSettings>::reserve(int)
PUBLIC e5524 0 DockSettingsHandler_DockNodeToSettings(ImGuiDockContext*, ImGuiDockNode*, int)
PUBLIC e56d8 0 ImVector<ImGuiStackLevelInfo>::reserve(int)
PUBLIC e58a0 0 ImVector<unsigned int>::reserve(int)
PUBLIC e5a68 0 ImVector<ImGuiInputEvent>::reserve(int)
PUBLIC e5c38 0 ImVector<ImGuiTextFilter::ImGuiTextRange>::reserve(int)
PUBLIC e5e00 0 ImVector<int>::reserve(int)
PUBLIC e5fc8 0 ImVector<ImGuiColorMod>::reserve(int)
PUBLIC e6198 0 ImVector<ImGuiStyleMod>::reserve(int)
PUBLIC e6368 0 ImVector<ImGuiViewportP*>::reserve(int)
PUBLIC e6530 0 ImGuiTabBar::~ImGuiTabBar()
PUBLIC e66c4 0 ImGuiTable::~ImGuiTable()
PUBLIC e69b8 0 ImGuiTableTempData::~ImGuiTableTempData()
PUBLIC e6b58 0 ImGuiOldColumns::~ImGuiOldColumns()
PUBLIC e6cf8 0 ImVector<ImGuiWindowStackData>::reserve(int)
PUBLIC e6ec8 0 ImVector<ImGuiPopupData>::reserve(int)
PUBLIC e7098 0 ImVector<ImGuiGroupData>::reserve(int)
PUBLIC e7268 0 ImVector<float>::reserve(int)
PUBLIC e7430 0 ImVector<ImGuiFocusScopeData>::reserve(int)
PUBLIC e75f8 0 ImVector<unsigned char>::reserve(int)
PUBLIC e77c4 0 ImVector<ImGuiSettingsHandler>::reserve(int)
PUBLIC e7994 0 ImVector<ImGuiDockRequest>::reserve(int)
PUBLIC e7b5c 0 ImVector<ImGuiDockNode*>::reserve(int)
PUBLIC m e7d24 0 ImGui::TextEx(char const*, char const*, int)
PUBLIC m e81d4 0 ImGui::TextUnformatted(char const*, char const*)
PUBLIC m e81dc 0 ImGui::Text(char const*, ...)
PUBLIC m e82ac 0 ImGui::TextV(char const*, std::__va_list)
PUBLIC m e8334 0 ImGui::TextColored(ImVec4 const&, char const*, ...)
PUBLIC m e8500 0 ImGui::TextColoredV(ImVec4 const&, char const*, std::__va_list)
PUBLIC m e8690 0 ImGui::TextDisabled(char const*, ...)
PUBLIC m e8858 0 ImGui::TextDisabledV(char const*, std::__va_list)
PUBLIC m e89e0 0 ImGui::TextWrapped(char const*, ...)
PUBLIC m e8a78 0 ImGui::TextWrappedV(char const*, std::__va_list)
PUBLIC m e8c14 0 ImGui::LabelText(char const*, char const*, ...)
PUBLIC m e8ca8 0 ImGui::LabelTextV(char const*, char const*, std::__va_list)
PUBLIC m e900c 0 ImGui::BulletText(char const*, ...)
PUBLIC m e90a4 0 ImGui::BulletTextV(char const*, std::__va_list)
PUBLIC m e936c 0 ImGui::ButtonBehavior(ImRect const&, unsigned int, bool*, bool*, int)
PUBLIC m e9de0 0 ImGui::ButtonEx(char const*, ImVec2 const&, int)
PUBLIC m ea2b4 0 ImGui::Button(char const*, ImVec2 const&)
PUBLIC m ea2bc 0 ImGui::SmallButton(char const*)
PUBLIC m ea330 0 ImGui::InvisibleButton(char const*, ImVec2 const&, int)
PUBLIC m ea518 0 ImGui::ArrowButtonEx(char const*, ImGuiDir, ImVec2, int)
PUBLIC m ea978 0 ImGui::ArrowButton(char const*, ImGuiDir)
PUBLIC m ea9a0 0 ImGui::CloseButton(unsigned int, ImVec2 const&)
PUBLIC m eadb8 0 ImGui::CollapseButton(unsigned int, ImVec2 const&, ImGuiDockNode*)
PUBLIC m eb1fc 0 ImGui::GetWindowScrollbarID(ImGuiWindow*, ImGuiAxis)
PUBLIC m eb2c8 0 ImGui::GetWindowScrollbarRect(ImGuiWindow*, ImGuiAxis)
PUBLIC m eb334 0 ImGui::Scrollbar(ImGuiAxis)
PUBLIC m eb544 0 ImGui::ScrollbarEx(ImRect const&, unsigned int, ImGuiAxis, long long*, long long, long long, int)
PUBLIC m ebb2c 0 ImGui::Image(void*, ImVec2 const&, ImVec2 const&, ImVec2 const&, ImVec4 const&, ImVec4 const&)
PUBLIC m ebdd0 0 ImGui::ImageButtonEx(unsigned int, void*, ImVec2 const&, ImVec2 const&, ImVec2 const&, ImVec4 const&, ImVec4 const&, int)
PUBLIC m ec258 0 ImGui::ImageButton(char const*, void*, ImVec2 const&, ImVec2 const&, ImVec2 const&, ImVec4 const&, ImVec4 const&)
PUBLIC m ec380 0 ImGui::ImageButton(void*, ImVec2 const&, ImVec2 const&, ImVec2 const&, int, ImVec4 const&, ImVec4 const&)
PUBLIC m ec6b8 0 ImGui::Checkbox(char const*, bool*)
PUBLIC m ecdd8 0 ImGui::MultiSelectItemHeader(unsigned int, bool*, int*)
PUBLIC m ecef0 0 ImGui::MultiSelectItemFooter(unsigned int, bool*, bool*)
PUBLIC m ed690 0 ImGui::CheckboxFlags(char const*, int*, int)
PUBLIC m ed75c 0 ImGui::CheckboxFlags(char const*, unsigned int*, unsigned int)
PUBLIC m ed828 0 ImGui::CheckboxFlags(char const*, long long*, long long)
PUBLIC m ed8f4 0 ImGui::CheckboxFlags(char const*, unsigned long long*, unsigned long long)
PUBLIC m ed9c0 0 ImGui::RadioButton(char const*, bool)
PUBLIC m ee2dc 0 ImGui::RadioButton(char const*, int*, int)
PUBLIC m ee318 0 ImGui::ProgressBar(float, ImVec2 const&, char const*)
PUBLIC m ee854 0 ImGui::Bullet()
PUBLIC m eeac4 0 ImGui::TextLink(char const*)
PUBLIC m ef1e4 0 ImGui::TextLinkOpenURL(char const*, char const*)
PUBLIC m ef354 0 ImGui::MenuItem(char const*, char const*, bool, bool)
PUBLIC m ef368 0 ImGui::Spacing()
PUBLIC m ef3d8 0 ImGui::Dummy(ImVec2 const&)
PUBLIC m ef46c 0 ImGui::NewLine()
PUBLIC m ef510 0 ImGui::AlignTextToFramePadding()
PUBLIC m ef568 0 ImGui::SeparatorEx(int, float)
PUBLIC m efacc 0 ImGui::Separator()
PUBLIC m efb10 0 ImGui::SeparatorTextEx(unsigned int, char const*, char const*, float)
PUBLIC m efea8 0 ImGui::SeparatorText(char const*)
PUBLIC m eff24 0 ImGui::SplitterBehavior(ImRect const&, unsigned int, ImGuiAxis, float*, float*, float, float, float, float, unsigned int)
PUBLIC m f0478 0 ImGui::ShrinkWidths(ImGuiShrinkWidthItem*, int, float)
PUBLIC f0710 0 ShrinkWidthItemComparer(void const*, void const*)
PUBLIC m f0740 0 ImGui::BeginCombo(char const*, char const*, int)
PUBLIC m f116c 0 ImGui::BeginComboPopup(unsigned int, ImRect const&, int)
PUBLIC m f1644 0 ImGui::EndCombo()
PUBLIC m f16d4 0 ImGui::BeginComboPreview()
PUBLIC m f17bc 0 ImGui::EndComboPreview()
PUBLIC m f1924 0 ImGui::Combo(char const*, int*, char const* (*)(void*, int), void*, int, int)
PUBLIC m f1db8 0 ImGui::Selectable(char const*, bool, int, ImVec2 const&)
PUBLIC m f2880 0 ImGui::Combo(char const*, int*, char const* const*, int, int)
PUBLIC m f2cdc 0 ImGui::Combo(char const*, int*, char const*, int)
PUBLIC f2d58 0 Items_SingleStringGetter(void*, int)
PUBLIC m f2dbc 0 ImGui::ListBox(char const*, int*, bool (*)(void*, int, char const**), void*, int, int)
PUBLIC m f3170 0 ImGui::ListBox(char const*, int*, char const* (*)(void*, int), void*, int, int)
PUBLIC m f351c 0 ImGui::Combo(char const*, int*, bool (*)(void*, int, char const**), void*, int, int)
PUBLIC m f39c0 0 ImGui::DataTypeGetInfo(int)
PUBLIC m f39d4 0 ImGui::DataTypeFormatString(char*, int, int, void const*, char const*)
PUBLIC m f3aa8 0 ImGui::DataTypeApplyOp(int, int, void*, void const*, void const*)
PUBLIC m f3f08 0 ImGui::DataTypeApplyFromText(char const*, int, void*, char const*, void*)
PUBLIC m f41f8 0 ImParseFormatSanitizeForScanning(char const*, char*, unsigned long)
PUBLIC m f4320 0 ImGui::DataTypeCompare(int, void const*, void const*)
PUBLIC m f4474 0 ImGui::DataTypeClamp(int, void*, void const*, void const*)
PUBLIC m f46bc 0 ImGui::DragBehavior(unsigned int, int, void*, float, void const*, void const*, char const*, int)
PUBLIC f4bb4 0 ImGui::DragBehaviorT<int, int, float>(int, int*, float, int, int, char const*, int)
PUBLIC f4f5c 0 ImGui::DragBehaviorT<unsigned int, int, float>(int, unsigned int*, float, unsigned int, unsigned int, char const*, int)
PUBLIC f546c 0 ImGui::DragBehaviorT<long long, long long, double>(int, long long*, float, long long, long long, char const*, int)
PUBLIC f5810 0 ImGui::DragBehaviorT<unsigned long long, long long, double>(int, unsigned long long*, float, unsigned long long, unsigned long long, char const*, int)
PUBLIC f5d20 0 ImGui::DragBehaviorT<float, float, float>(int, float*, float, float, float, char const*, int)
PUBLIC f63ec 0 ImGui::DragBehaviorT<double, double, double>(int, double*, float, double, double, char const*, int)
PUBLIC m f6b00 0 ImGui::DragScalar(char const*, int, void*, float, void const*, void const*, char const*, int)
PUBLIC m f7368 0 ImGui::TempInputScalar(ImRect const&, unsigned int, char const*, int, void*, char const*, void const*, void const*)
PUBLIC m f7734 0 ImGui::DragScalarN(char const*, int, void*, int, float, void const*, void const*, char const*, int)
PUBLIC m f7ad4 0 ImGui::DragFloat(char const*, float*, float, float, float, char const*, int)
PUBLIC m f7b38 0 ImGui::DragFloat2(char const*, float*, float, float, float, char const*, int)
PUBLIC m f7ba0 0 ImGui::DragFloat3(char const*, float*, float, float, float, char const*, int)
PUBLIC m f7c08 0 ImGui::DragFloat4(char const*, float*, float, float, float, char const*, int)
PUBLIC m f7c70 0 ImGui::DragFloatRange2(char const*, float*, float*, float, float, float, char const*, char const*, int)
PUBLIC m f7fd0 0 ImGui::DragInt(char const*, int*, float, int, int, char const*, int)
PUBLIC m f8038 0 ImGui::DragInt2(char const*, int*, float, int, int, char const*, int)
PUBLIC m f80a4 0 ImGui::DragInt3(char const*, int*, float, int, int, char const*, int)
PUBLIC m f8110 0 ImGui::DragInt4(char const*, int*, float, int, int, char const*, int)
PUBLIC m f817c 0 ImGui::DragIntRange2(char const*, int*, int*, float, int, int, char const*, char const*, int)
PUBLIC m f84d4 0 ImGui::SliderBehavior(ImRect const&, unsigned int, int, void*, void const*, void const*, char const*, int, ImRect*)
PUBLIC fa498 0 ImGui::SliderBehaviorT<int, int, float>(ImRect const&, unsigned int, int, int*, int, int, char const*, int, ImRect*)
PUBLIC fa9cc 0 ImGui::SliderBehaviorT<unsigned int, int, float>(ImRect const&, unsigned int, int, unsigned int*, unsigned int, unsigned int, char const*, int, ImRect*)
PUBLIC m fb214 0 ImGui::SliderScalar(char const*, int, void*, void const*, void const*, char const*, int)
PUBLIC m fb9f8 0 ImGui::SliderScalarN(char const*, int, void*, int, void const*, void const*, char const*, int)
PUBLIC m fbd80 0 ImGui::SliderFloat(char const*, float*, float, float, char const*, int)
PUBLIC m fbde4 0 ImGui::SliderFloat2(char const*, float*, float, float, char const*, int)
PUBLIC m fbe4c 0 ImGui::SliderFloat3(char const*, float*, float, float, char const*, int)
PUBLIC m fbeb4 0 ImGui::SliderFloat4(char const*, float*, float, float, char const*, int)
PUBLIC m fbf1c 0 ImGui::SliderAngle(char const*, float*, float, float, char const*, int)
PUBLIC m fbfcc 0 ImGui::SliderInt(char const*, int*, int, int, char const*, int)
PUBLIC m fc034 0 ImGui::SliderInt2(char const*, int*, int, int, char const*, int)
PUBLIC m fc0a0 0 ImGui::SliderInt3(char const*, int*, int, int, char const*, int)
PUBLIC m fc10c 0 ImGui::SliderInt4(char const*, int*, int, int, char const*, int)
PUBLIC m fc178 0 ImGui::VSliderScalar(char const*, ImVec2 const&, int, void*, void const*, void const*, char const*, int)
PUBLIC m fc82c 0 ImGui::VSliderFloat(char const*, ImVec2 const&, float*, float, float, char const*, int)
PUBLIC m fc890 0 ImGui::VSliderInt(char const*, ImVec2 const&, int*, int, int, char const*, int)
PUBLIC m fc8f8 0 ImParseFormatFindStart(char const*)
PUBLIC m fc92c 0 ImParseFormatFindEnd(char const*)
PUBLIC m fc9a0 0 ImParseFormatTrimDecorations(char const*, char*, unsigned long)
PUBLIC m fcab4 0 ImParseFormatSanitizeForPrinting(char const*, char*, unsigned long)
PUBLIC m fcb70 0 ImParseFormatPrecision(char const*, int)
PUBLIC m fcca8 0 ImGui::TempInputText(ImRect const&, unsigned int, char const*, char*, int, int)
PUBLIC m fcd9c 0 ImGui::InputTextEx(char const*, char const*, char*, int, ImVec2 const&, int, int (*)(ImGuiInputTextCallbackData*), void*)
PUBLIC m 100dc8 0 ImGui::SetNextItemRefVal(int, void*)
PUBLIC m 100e00 0 ImGui::InputScalar(char const*, int, void*, void const*, void const*, char const*, int)
PUBLIC m 101440 0 ImGui::InputText(char const*, char*, unsigned long, int, int (*)(ImGuiInputTextCallbackData*), void*)
PUBLIC m 1014a8 0 ImGui::InputScalarN(char const*, int, void*, int, void const*, void const*, char const*, int)
PUBLIC m 101830 0 ImGui::InputFloat(char const*, float*, float, float, char const*, int)
PUBLIC m 1018a4 0 ImGui::InputFloat2(char const*, float*, char const*, int)
PUBLIC m 1018c4 0 ImGui::InputFloat3(char const*, float*, char const*, int)
PUBLIC m 1018e4 0 ImGui::InputFloat4(char const*, float*, char const*, int)
PUBLIC m 101904 0 ImGui::InputInt(char const*, int*, int, int, int)
PUBLIC m 101994 0 ImGui::InputInt2(char const*, int*, int)
PUBLIC m 1019b8 0 ImGui::InputInt3(char const*, int*, int)
PUBLIC m 1019dc 0 ImGui::InputInt4(char const*, int*, int)
PUBLIC m 101a00 0 ImGui::InputDouble(char const*, double*, double, double, char const*, int)
PUBLIC m 101a74 0 ImGui::InputTextMultiline(char const*, char*, unsigned long, ImVec2 const&, int, int (*)(ImGuiInputTextCallbackData*), void*)
PUBLIC m 101a98 0 ImGui::InputTextWithHint(char const*, char const*, char*, unsigned long, int, int (*)(ImGuiInputTextCallbackData*), void*)
PUBLIC m 101af4 0 ImGuiInputTextState::OnKeyPressed(int)
PUBLIC m 1030b4 0 ImGuiInputTextCallbackData::ImGuiInputTextCallbackData()
PUBLIC m 1030c4 0 ImGuiInputTextCallbackData::DeleteChars(int, int)
PUBLIC m 103150 0 ImGuiInputTextCallbackData::InsertChars(int, char const*, char const*)
PUBLIC m 10346c 0 ImGui::InputTextDeactivateHook(unsigned int)
PUBLIC 103854 0 ImVector<unsigned short>::resize(int)
PUBLIC 103a40 0 ImStb::STB_TEXTEDIT_MOVEWORDRIGHT_MAC(ImGuiInputTextState*, int)
PUBLIC 103b14 0 ImStb::stb_textedit_clamp(ImGuiInputTextState*, ImStb::STB_TexteditState*)
PUBLIC 103b74 0 ImStb::stb_textedit_drag(ImGuiInputTextState*, ImStb::STB_TexteditState*, float, float)
PUBLIC 103bc0 0 InputTextFilterCharacter(ImGuiContext*, unsigned int*, int, int (*)(ImGuiInputTextCallbackData*), void*, bool)
PUBLIC 103e0c 0 ImStb::stb_textedit_paste(ImGuiInputTextState*, ImStb::STB_TexteditState*, unsigned short const*, int)
PUBLIC 103ee4 0 ImStb::stb_textedit_replace(ImGuiInputTextState*, ImStb::STB_TexteditState*, unsigned short const*, int)
PUBLIC 104094 0 ImVector<unsigned short>::~ImVector()
PUBLIC 104160 0 InputTextReconcileUndoStateAfterUserCallback(ImGuiInputTextState*, char const*, int)
PUBLIC m 1045d4 0 ImGui::DebugNodeInputTextState(ImGuiInputTextState*)
PUBLIC m 104ad8 0 ImGui::ColorEdit3(char const*, float*, int)
PUBLIC m 104ae0 0 ImGui::ColorEdit4(char const*, float*, int)
PUBLIC m 105ef8 0 ImGui::ColorEditOptionsPopup(float const*, int)
PUBLIC m 106570 0 ImGui::ColorButton(char const*, ImVec4 const&, int, ImVec2 const&)
PUBLIC m 106e6c 0 ImGui::ColorPicker4(char const*, float*, int, float const*)
PUBLIC m 1098d8 0 ImGui::ColorPicker3(char const*, float*, int)
PUBLIC m 10995c 0 ImGui::ColorPickerOptionsPopup(float const*, int)
PUBLIC m 109e44 0 ImGui::ColorTooltip(char const*, float const*, int)
PUBLIC m 10a11c 0 ImGui::SetColorEditOptions(int)
PUBLIC m 10a164 0 ImGui::TreeNode(char const*, char const*, ...)
PUBLIC m 10a2f8 0 ImGui::TreeNodeExV(char const*, int, char const*, std::__va_list)
PUBLIC m 10a45c 0 ImGui::TreeNode(void const*, char const*, ...)
PUBLIC m 10a560 0 ImGui::TreeNodeExV(void const*, int, char const*, std::__va_list)
PUBLIC m 10a630 0 ImGui::TreeNode(char const*)
PUBLIC m 10a720 0 ImGui::TreeNodeBehavior(unsigned int, int, char const*, char const*)
PUBLIC m 10b8bc 0 ImGui::TreeNodeV(char const*, char const*, std::__va_list)
PUBLIC m 10ba10 0 ImGui::TreeNodeV(void const*, char const*, std::__va_list)
PUBLIC m 10bad4 0 ImGui::TreeNodeEx(char const*, int)
PUBLIC m 10bbd0 0 ImGui::TreeNodeEx(char const*, int, char const*, ...)
PUBLIC m 10bd74 0 ImGui::TreeNodeEx(void const*, int, char const*, ...)
PUBLIC m 10be88 0 ImGui::TreeNodeGetOpen(unsigned int)
PUBLIC m 10befc 0 ImGui::TreeNodeSetOpen(unsigned int, bool)
PUBLIC m 10bf24 0 ImGui::TreeNodeUpdateNextOpen(unsigned int, int)
PUBLIC 10c09c 0 TreeNodeStoreStackData(int)
PUBLIC m 10c2fc 0 ImGui::TreePushOverrideID(unsigned int)
PUBLIC m 10c3e4 0 ImGui::TreePush(char const*)
PUBLIC m 10c430 0 ImGui::TreePush(void const*)
PUBLIC m 10c500 0 ImGui::TreePop()
PUBLIC m 10c610 0 ImGui::GetTreeNodeToLabelSpacing()
PUBLIC m 10c630 0 ImGui::SetNextItemOpen(bool, int)
PUBLIC m 10c678 0 ImGui::SetNextItemStorageID(unsigned int)
PUBLIC m 10c6b0 0 ImGui::CollapsingHeader(char const*, int)
PUBLIC m 10c7b4 0 ImGui::CollapsingHeader(char const*, bool*, int)
PUBLIC m 10ca68 0 ImGui::Selectable(char const*, bool*, int, ImVec2 const&)
PUBLIC m 10caa0 0 ImGui::GetTypingSelectRequest(int)
PUBLIC m 10d044 0 ImGui::TypingSelectFindMatch(ImGuiTypingSelectRequest*, int, char const* (*)(void*, int), void*, int)
PUBLIC m 10d258 0 ImGui::TypingSelectFindNextSingleCharMatch(ImGuiTypingSelectRequest*, int, char const* (*)(void*, int), void*, int)
PUBLIC m 10d370 0 ImGui::TypingSelectFindBestLeadingMatch(ImGuiTypingSelectRequest*, int, char const* (*)(void*, int), void*)
PUBLIC m 10d474 0 ImGui::DebugNodeTypingSelectState(ImGuiTypingSelectState*)
PUBLIC m 10d4cc 0 ImGui::BeginBoxSelect(ImRect const&, ImGuiWindow*, unsigned int, int)
PUBLIC m 10d808 0 ImGui::EndBoxSelect(ImRect const&, int)
PUBLIC m 10dda0 0 ImGui::BeginMultiSelect(int, int, int)
PUBLIC 10ec1c 0 ImGuiMultiSelectTempData::~ImGuiMultiSelectTempData()
PUBLIC m 10ece8 0 ImGui::MultiSelectAddSetAll(ImGuiMultiSelectTempData*, bool)
PUBLIC m 10f0c0 0 ImGui::EndMultiSelect()
PUBLIC 10f734 0 BoxSelectPreStartDrag(unsigned int, long long)
PUBLIC m 10f78c 0 ImGui::SetNextItemSelectionUserData(long long)
PUBLIC m 10f7e0 0 ImGui::MultiSelectAddSetRange(ImGuiMultiSelectTempData*, bool, int, long long, long long)
PUBLIC m 10fab4 0 ImGui::DebugNodeMultiSelectState(ImGuiMultiSelectState*)
PUBLIC m 10fccc 0 ImGuiSelectionBasicStorage::ImGuiSelectionBasicStorage()
PUBLIC m 10fcf0 0 ImGuiSelectionBasicStorage::Clear()
PUBLIC m 10fec4 0 ImGuiSelectionBasicStorage::Swap(ImGuiSelectionBasicStorage&)
PUBLIC m 10ff08 0 ImGuiSelectionBasicStorage::Contains(unsigned int) const
PUBLIC m 10ff68 0 ImGuiSelectionBasicStorage::GetNextSelectedItem(void**, unsigned int*)
PUBLIC 11006c 0 PairComparerByValueInt(void const*, void const*)
PUBLIC m 110084 0 ImGuiSelectionBasicStorage::SetItemSelected(unsigned int, bool)
PUBLIC m 1100f8 0 ImGuiSelectionBasicStorage::ApplyRequests(ImGuiMultiSelectIO*)
PUBLIC m 110cd0 0 ImGuiSelectionExternalStorage::ImGuiSelectionExternalStorage()
PUBLIC m 110cd8 0 ImGuiSelectionExternalStorage::ApplyRequests(ImGuiMultiSelectIO*)
PUBLIC m 110db0 0 ImGui::BeginListBox(char const*, ImVec2 const&)
PUBLIC m 111280 0 ImGui::EndListBox()
PUBLIC m 111294 0 ImGui::ListBox(char const*, int*, char const* const*, int, int)
PUBLIC m 111658 0 ImGui::PlotEx(ImGuiPlotType, char const*, float (*)(void*, int), void*, int, int, char const*, float, float, ImVec2 const&)
PUBLIC m 1122c0 0 ImGui::PlotLines(char const*, float const*, int, int, char const*, float, float, ImVec2, int)
PUBLIC 112334 0 Plot_ArrayGetter(void*, int)
PUBLIC m 112348 0 ImGui::PlotLines(char const*, float (*)(void*, int), void*, int, int, char const*, float, float, ImVec2)
PUBLIC m 1123b0 0 ImGui::PlotHistogram(char const*, float const*, int, int, char const*, float, float, ImVec2, int)
PUBLIC m 112424 0 ImGui::PlotHistogram(char const*, float (*)(void*, int), void*, int, int, char const*, float, float, ImVec2)
PUBLIC m 11248c 0 ImGui::Value(char const*, bool)
PUBLIC m 1124b8 0 ImGui::Value(char const*, int)
PUBLIC m 1124cc 0 ImGui::Value(char const*, unsigned int)
PUBLIC m 1124e0 0 ImGui::Value(char const*, float, char const*)
PUBLIC m 112590 0 ImGuiMenuColumns::Update(float, bool)
PUBLIC m 112610 0 ImGuiMenuColumns::CalcNextTotalWidth(bool)
PUBLIC m 1126c8 0 ImGuiMenuColumns::DeclColumns(float, float, float, float)
PUBLIC m 112764 0 ImGui::BeginMenuBar()
PUBLIC m 112960 0 ImGui::EndMenuBar()
PUBLIC m 112b50 0 ImGui::BeginViewportSideBar(char const*, ImGuiViewport*, ImGuiDir, float, int)
PUBLIC m 112fc4 0 ImGui::BeginMainMenuBar()
PUBLIC m 1130e0 0 ImGui::EndMainMenuBar()
PUBLIC m 1131c0 0 ImGui::BeginMenuEx(char const*, char const*, bool)
PUBLIC m 114334 0 ImGui::BeginMenu(char const*, bool)
PUBLIC m 114340 0 ImGui::EndMenu()
PUBLIC m 11443c 0 ImGui::MenuItemEx(char const*, char const*, char const*, bool, bool)
PUBLIC m 114d8c 0 ImGui::MenuItem(char const*, char const*, bool*, bool)
PUBLIC m 114e00 0 ImGuiTabBar::ImGuiTabBar()
PUBLIC m 114e2c 0 ImGui::BeginTabBar(char const*, int)
PUBLIC m 114ff8 0 ImGui::BeginTabBarEx(ImGuiTabBar*, ImRect const&, int)
PUBLIC 1155f0 0 TabItemComparerByBeginOrder(void const*, void const*)
PUBLIC m 115600 0 ImGui::EndTabBar()
PUBLIC 11578c 0 ImGui::TabBarLayout(ImGuiTabBar*)
PUBLIC m 1171e8 0 ImGui::TabBarFindTabByID(ImGuiTabBar*, unsigned int)
PUBLIC m 11721c 0 ImGui::TabBarFindTabByOrder(ImGuiTabBar*, int)
PUBLIC m 117248 0 ImGui::TabBarFindMostRecentlySelectedTabForActiveWindow(ImGuiTabBar*)
PUBLIC m 1172a0 0 ImGui::TabBarGetCurrentTab(ImGuiTabBar*)
PUBLIC m 1172d4 0 ImGui::TabBarGetTabName(ImGuiTabBar*, ImGuiTabItem*)
PUBLIC m 117308 0 ImGui::TabBarAddTab(ImGuiTabBar*, int, ImGuiWindow*)
PUBLIC m 1175dc 0 ImGui::TabBarRemoveTab(ImGuiTabBar*, unsigned int)
PUBLIC m 1176b8 0 ImGui::TabBarCloseTab(ImGuiTabBar*, ImGuiTabItem*)
PUBLIC m 11770c 0 ImGui::TabBarQueueFocus(ImGuiTabBar*, ImGuiTabItem*)
PUBLIC m 117718 0 ImGui::TabBarQueueReorder(ImGuiTabBar*, ImGuiTabItem*, int)
PUBLIC m 117728 0 ImGui::TabBarQueueReorderFromMousePos(ImGuiTabBar*, ImGuiTabItem*, ImVec2)
PUBLIC m 117848 0 ImGui::TabBarProcessReorder(ImGuiTabBar*)
PUBLIC m 1179b0 0 ImGui::BeginTabItem(char const*, bool*, int)
PUBLIC m 117ae8 0 ImGui::TabItemEx(ImGuiTabBar*, char const*, bool*, int, ImGuiWindow*)
PUBLIC m 118cdc 0 ImGui::EndTabItem()
PUBLIC m 118d2c 0 ImGui::TabItemButton(char const*, int)
PUBLIC m 118d6c 0 ImGui::TabItemCalcSize(char const*, bool)
PUBLIC m 118e98 0 ImGui::TabItemBackground(ImDrawList*, ImRect const&, int, unsigned int)
PUBLIC m 119848 0 ImGui::TabItemLabelAndCloseButton(ImDrawList*, ImRect const&, int, ImVec2, char const*, unsigned int, unsigned int, bool, bool*, bool*)
PUBLIC m 119cdc 0 ImGui::SetTabItemClosed(char const*)
PUBLIC m 119fd8 0 ImGui::TabItemCalcSize(ImGuiWindow*)
PUBLIC 11a124 0 ImStb::STB_TEXTEDIT_DELETECHARS(ImGuiInputTextState*, int, int)
PUBLIC 11a1a0 0 ImStb::STB_TEXTEDIT_INSERTCHARS(ImGuiInputTextState*, int, unsigned short const*, int)
PUBLIC 11a4bc 0 ImStb::stb_textedit_delete_selection(ImGuiInputTextState*, ImStb::STB_TexteditState*)
PUBLIC 11a88c 0 ImStb::STB_TEXTEDIT_MOVEWORDLEFT_IMPL(ImGuiInputTextState*, int)
PUBLIC 11a978 0 ImStb::STB_TEXTEDIT_MOVEWORDRIGHT_IMPL(ImGuiInputTextState*, int)
PUBLIC 11ab14 0 ImStb::stb_textedit_find_charpos(ImStb::StbFindState*, ImGuiInputTextState*, int, int)
PUBLIC 11ae00 0 ImStb::stb_textedit_delete(ImGuiInputTextState*, ImStb::STB_TexteditState*, int, int)
PUBLIC 11aed4 0 ImStb::stb_text_createundo(ImStb::StbUndoState*, int, int, int)
PUBLIC 11b0d8 0 ImStb::is_separator(unsigned int)
PUBLIC 11b130 0 ImStb::stb_text_locate_coord(ImGuiInputTextState*, float, float)
PUBLIC 11b2e4 0 ImGuiSelectionBasicStorage::ImGuiSelectionBasicStorage()::$_0::__invoke(ImGuiSelectionBasicStorage*, int)
PUBLIC 11b2ec 0 TabItemComparerBySection(void const*, void const*)
PUBLIC 11b334 0 ImGui::ScaleRatioFromValueT<int, int, float>(int, int, int, int, bool, float, float)
PUBLIC 11b508 0 ImGui::ScaleValueFromRatioT<int, int, float>(int, float, int, int, bool, float, float)
PUBLIC 11b6d0 0 ImGui::ScaleRatioFromValueT<long long, long long, double>(int, long long, long long, long long, bool, float, float)
PUBLIC 11b8d8 0 ImGui::ScaleValueFromRatioT<long long, long long, double>(int, float, long long, long long, bool, float, float)
PUBLIC 11bad0 0 ImGui::ScaleRatioFromValueT<float, float, float>(int, float, float, float, bool, float, float)
PUBLIC 11bcb8 0 ImGui::ScaleValueFromRatioT<float, float, float>(int, float, float, float, bool, float, float)
PUBLIC 11be4c 0 ImGui::RoundScalarWithFormatT<float>(char const*, int, float)
PUBLIC 11bfa4 0 ImGui::ScaleRatioFromValueT<double, double, double>(int, double, double, double, bool, float, float)
PUBLIC 11c1cc 0 ImGui::ScaleValueFromRatioT<double, double, double>(int, float, double, double, bool, float, float)
PUBLIC 11c3a4 0 ImGui::RoundScalarWithFormatT<double>(char const*, int, double)
PUBLIC 11c4f4 0 ImPool<ImGuiTabBar>::Add()
PUBLIC 11c750 0 ImGui::PlotEx(ImGuiPlotType, char const*, float (*)(void*, int), void*, int, int, char const*, float, float, ImVec2 const&) [clone .specialized.1]
PUBLIC m 11d2f8 0 ImGui::TableFindByID(unsigned int)
PUBLIC m 11d378 0 ImGui::BeginTable(char const*, int, int, ImVec2 const&, float)
PUBLIC m 11d480 0 ImGui::BeginTableEx(char const*, unsigned int, int, int, ImVec2 const&, float)
PUBLIC m 11f0dc 0 ImGui::TableBeginInitMemory(ImGuiTable*, int)
PUBLIC m 11f264 0 ImGui::TableResetSettings(ImGuiTable*)
PUBLIC m 11f284 0 ImGui::TableLoadSettings(ImGuiTable*)
PUBLIC m 11f4e4 0 ImGui::TableBeginApplyRequests(ImGuiTable*)
PUBLIC m 11f6c8 0 ImGui::TableSetColumnWidth(int, float)
PUBLIC m 11f924 0 ImGui::TableUpdateLayout(ImGuiTable*)
PUBLIC 120b4c 0 TableSetupColumnFlags(ImGuiTable*, ImGuiTableColumn*, int)
PUBLIC m 120cd4 0 ImGui::TableGetColumnWidthAuto(ImGuiTable*, ImGuiTableColumn*)
PUBLIC m 120d34 0 ImGui::TableGetMaxColumnWidth(ImGuiTable const*, int)
PUBLIC m 120e08 0 ImGui::TableSetupDrawChannels(ImGuiTable*)
PUBLIC m 120f74 0 ImGui::TableUpdateBorders(ImGuiTable*)
PUBLIC m 121264 0 ImGui::TableBeginContextMenuPopup(ImGuiTable*)
PUBLIC m 1213c8 0 ImGui::TableDrawDefaultContextMenu(ImGuiTable*, int)
PUBLIC m 1217a0 0 ImGui::TableSortSpecsBuild(ImGuiTable*)
PUBLIC m 121a60 0 ImGui::TableGetColumnResizeID(ImGuiTable*, int, int)
PUBLIC m 121a9c 0 ImGui::TableSetColumnWidthAutoSingle(ImGuiTable*, int)
PUBLIC m 121ad4 0 ImGui::EndTable()
PUBLIC m 1223e8 0 ImGui::TableEndRow(ImGuiTable*)
PUBLIC m 122d1c 0 ImGui::TableOpenContextMenu(int)
PUBLIC m 122e84 0 ImGui::TableDrawBorders(ImGuiTable*)
PUBLIC m 123300 0 ImGui::TableMergeDrawChannels(ImGuiTable*)
PUBLIC m 123e3c 0 ImGui::TableSaveSettings(ImGuiTable*)
PUBLIC m 12402c 0 ImGui::TableSetupColumn(char const*, int, float, unsigned int)
PUBLIC m 124284 0 ImGui::TableSetupScrollFreeze(int, int)
PUBLIC m 124374 0 ImGui::TableGetColumnCount()
PUBLIC m 124398 0 ImGui::TableGetColumnName(int)
PUBLIC m 124410 0 ImGui::TableGetColumnName(ImGuiTable const*, int)
PUBLIC m 124458 0 ImGui::TableSetColumnEnabled(int, bool)
PUBLIC m 124490 0 ImGui::TableGetColumnFlags(int)
PUBLIC m 1244f4 0 ImGui::TableGetCellBgRect(ImGuiTable const*, int)
PUBLIC m 124528 0 ImGui::TableGetHoveredColumn()
PUBLIC m 12454c 0 ImGui::TableGetHoveredRow()
PUBLIC m 124598 0 ImGui::TableSetBgColor(int, unsigned int, int)
PUBLIC m 124654 0 ImGui::TableGetRowIndex()
PUBLIC m 124678 0 ImGui::TableNextRow(int, float)
PUBLIC m 124720 0 ImGui::TableBeginRow(ImGuiTable*)
PUBLIC m 12489c 0 ImGui::TableEndCell(ImGuiTable*)
PUBLIC m 124978 0 ImGui::SetWindowClipRectBeforeSetChannel(ImGuiWindow*, ImRect const&)
PUBLIC m 1249b0 0 ImGui::TableGetColumnIndex()
PUBLIC m 1249d4 0 ImGui::TableSetColumnIndex(int)
PUBLIC m 124b18 0 ImGui::TableBeginCell(ImGuiTable*, int)
PUBLIC m 124c8c 0 ImGui::TableNextColumn()
PUBLIC m 124e64 0 ImGui::TableUpdateColumnsWeightFromWidth(ImGuiTable*)
PUBLIC m 124eec 0 ImGui::TableSetColumnWidthAutoAll(ImGuiTable*)
PUBLIC m 124f30 0 ImGui::TablePushBackgroundChannel()
PUBLIC m 124f98 0 ImGui::TablePopBackgroundChannel()
PUBLIC m 125008 0 ImGui::TableGetSortSpecs()
PUBLIC m 12507c 0 ImGui::TableFixColumnSortDirection(ImGuiTable*, ImGuiTableColumn*)
PUBLIC m 1250b8 0 ImGui::TableGetColumnNextSortDirection(ImGuiTableColumn*)
PUBLIC m 125134 0 ImGui::TableSetColumnSortDirection(int, ImGuiSortDirection, bool)
PUBLIC m 12534c 0 ImGui::TableSortSpecsSanitize(ImGuiTable*)
PUBLIC m 125570 0 ImGui::TableGetHeaderRowHeight()
PUBLIC m 125694 0 ImGui::TableGetHeaderAngledMaxLabelWidth()
PUBLIC m 125814 0 ImGui::TableHeadersRow()
PUBLIC m 125cc4 0 ImGui::TableHeader(char const*)
PUBLIC m 1268f0 0 ImGui::TableAngledHeadersRow()
PUBLIC m 127304 0 ImGui::TableAngledHeadersRowEx(unsigned int, float, float, ImGuiTableHeaderData const*, int)
PUBLIC m 128198 0 ImGui::TableSettingsCreate(unsigned int, int)
PUBLIC m 128430 0 ImGui::TableSettingsFindByID(unsigned int)
PUBLIC m 128480 0 ImGui::TableGetBoundSettings(ImGuiTable*)
PUBLIC m 1284c0 0 ImGui::TableSettingsAddSettingsHandler()
PUBLIC 128590 0 TableSettingsHandler_ClearAll(ImGuiContext*, ImGuiSettingsHandler*)
PUBLIC 1286bc 0 TableSettingsHandler_ReadOpen(ImGuiContext*, ImGuiSettingsHandler*, char const*)
PUBLIC 128814 0 TableSettingsHandler_ReadLine(ImGuiContext*, ImGuiSettingsHandler*, void*, char const*)
PUBLIC 128b30 0 TableSettingsHandler_ApplyAll(ImGuiContext*, ImGuiSettingsHandler*)
PUBLIC 128b84 0 TableSettingsHandler_WriteAll(ImGuiContext*, ImGuiSettingsHandler*, ImGuiTextBuffer*)
PUBLIC m 128fec 0 ImGui::TableRemove(ImGuiTable*)
PUBLIC m 129098 0 ImGui::TableGcCompactTransientBuffers(ImGuiTable*)
PUBLIC m 1292d8 0 ImGui::TableGcCompactTransientBuffers(ImGuiTableTempData*)
PUBLIC m 129304 0 ImGui::TableGcCompactSettings()
PUBLIC m 129828 0 ImGui::DebugNodeTable(ImGuiTable*)
PUBLIC m 12a09c 0 ImGui::DebugNodeTableSettings(ImGuiTableSettings*)
PUBLIC m 12a1e0 0 ImGui::GetColumnIndex()
PUBLIC m 12a208 0 ImGui::GetColumnsCount()
PUBLIC m 12a230 0 ImGui::GetColumnOffsetFromNorm(ImGuiOldColumns const*, float)
PUBLIC m 12a240 0 ImGui::GetColumnNormFromOffset(ImGuiOldColumns const*, float)
PUBLIC m 12a250 0 ImGui::GetColumnOffset(int)
PUBLIC m 12a298 0 ImGui::GetColumnWidth(int)
PUBLIC m 12a308 0 ImGui::SetColumnOffset(int, float)
PUBLIC m 12a4b4 0 ImGui::SetColumnWidth(int, float)
PUBLIC m 12a50c 0 ImGui::PushColumnClipRect(int)
PUBLIC m 12a580 0 ImGui::PushColumnsBackground()
PUBLIC m 12a5f0 0 ImGui::PopColumnsBackground()
PUBLIC m 12a65c 0 ImGui::FindOrCreateColumns(ImGuiWindow*, unsigned int)
PUBLIC m 12aac4 0 ImGui::GetColumnsID(char const*, int)
PUBLIC m 12abd8 0 ImGui::BeginColumns(char const*, int, int)
PUBLIC m 12b65c 0 ImGui::NextColumn()
PUBLIC m 12b954 0 ImGui::EndColumns()
PUBLIC m 12be60 0 ImGui::Columns(int, char const*, bool)
PUBLIC m 12beec 0 ImGui::StyleColorsDark(ImGuiStyle*)
PUBLIC m 12c18c 0 ImGui::StyleColorsClassic(ImGuiStyle*)
PUBLIC m 12c400 0 ImGui::StyleColorsLight(ImGuiStyle*)
PUBLIC m 12c66c 0 ImDrawListSharedData::ImDrawListSharedData()
PUBLIC m 12c7f8 0 ImDrawListSharedData::SetCircleTessellationMaxError(float)
PUBLIC m 12c8dc 0 ImDrawList::_ResetForNewFrame()
PUBLIC m 12d53c 0 ImDrawListSplitter::Merge(ImDrawList*)
PUBLIC m 12dcac 0 ImDrawList::_ClearFreeMemory()
PUBLIC m 12e124 0 ImDrawListSplitter::ClearFreeMemory()
PUBLIC m 12e3d4 0 ImDrawList::CloneOutput() const
PUBLIC m 12ecb8 0 ImDrawList::AddDrawCmd()
PUBLIC m 12ef40 0 ImDrawList::_PopUnusedDrawCmd()
PUBLIC m 12ef78 0 ImDrawList::AddCallback(void (*)(ImDrawList const*, ImDrawCmd const*), void*)
PUBLIC m 12efd8 0 ImDrawList::_TryMergeDrawCmds()
PUBLIC m 12f058 0 ImDrawList::_OnChangedClipRect()
PUBLIC m 12f0f8 0 ImDrawList::_OnChangedTextureID()
PUBLIC m 12f190 0 ImDrawList::_OnChangedVtxOffset()
PUBLIC m 12f1c0 0 ImDrawList::_CalcCircleAutoSegmentCount(float) const
PUBLIC m 12f254 0 ImDrawList::PushClipRect(ImVec2 const&, ImVec2 const&, bool)
PUBLIC m 12f574 0 ImDrawList::PushClipRectFullScreen()
PUBLIC m 12f5d0 0 ImDrawList::PopClipRect()
PUBLIC m 12f6a0 0 ImDrawList::PushTextureID(void*)
PUBLIC m 12f95c 0 ImDrawList::PopTextureID()
PUBLIC m 12fa14 0 ImDrawList::PrimReserve(int, int)
PUBLIC m 12fe70 0 ImDrawList::PrimUnreserve(int, int)
PUBLIC m 12feac 0 ImDrawList::PrimRect(ImVec2 const&, ImVec2 const&, unsigned int)
PUBLIC m 12ff5c 0 ImDrawList::PrimRectUV(ImVec2 const&, ImVec2 const&, ImVec2 const&, ImVec2 const&, unsigned int)
PUBLIC m 130018 0 ImDrawList::PrimQuadUV(ImVec2 const&, ImVec2 const&, ImVec2 const&, ImVec2 const&, ImVec2 const&, ImVec2 const&, ImVec2 const&, ImVec2 const&, unsigned int)
PUBLIC m 1300d8 0 ImDrawList::AddPolyline(ImVec2 const*, int, unsigned int, int, float)
PUBLIC m 130acc 0 ImDrawList::AddConvexPolyFilled(ImVec2 const*, int, unsigned int)
PUBLIC m 131070 0 ImDrawList::_PathArcToFastEx(ImVec2 const&, float, int, int, int)
PUBLIC m 131700 0 ImDrawList::_PathArcToN(ImVec2 const&, float, float, float, int)
PUBLIC m 131d3c 0 ImDrawList::PathArcToFast(ImVec2 const&, float, int, int)
PUBLIC m 131f84 0 ImDrawList::PathArcTo(ImVec2 const&, float, float, float, int)
PUBLIC m 1328f4 0 ImDrawList::PathEllipticalArcTo(ImVec2 const&, ImVec2 const&, float, float, float, int)
PUBLIC m 132e40 0 ImBezierCubicCalc(ImVec2 const&, ImVec2 const&, ImVec2 const&, ImVec2 const&, float)
PUBLIC m 132e9c 0 ImBezierQuadraticCalc(ImVec2 const&, ImVec2 const&, ImVec2 const&, float)
PUBLIC m 132ed8 0 ImDrawList::PathBezierCubicCurveTo(ImVec2 const&, ImVec2 const&, ImVec2 const&, int)
PUBLIC 1331ec 0 PathBezierCubicCurveToCasteljau(ImVector<ImVec2>*, float, float, float, float, float, float, float, float, float, int)
PUBLIC m 133548 0 ImDrawList::PathBezierQuadraticCurveTo(ImVec2 const&, ImVec2 const&, int)
PUBLIC 133840 0 PathBezierQuadraticCurveToCasteljau(ImVector<ImVec2>*, float, float, float, float, float, float, float, int)
PUBLIC m 133b5c 0 ImDrawList::PathRect(ImVec2 const&, ImVec2 const&, float, int)
PUBLIC m 134480 0 ImDrawList::AddLine(ImVec2 const&, ImVec2 const&, unsigned int, float)
PUBLIC m 1348a0 0 ImDrawList::AddRect(ImVec2 const&, ImVec2 const&, unsigned int, float, int, float)
PUBLIC m 134970 0 ImDrawList::AddRectFilled(ImVec2 const&, ImVec2 const&, unsigned int, float, int)
PUBLIC m 134aa0 0 ImDrawList::AddRectFilledMultiColor(ImVec2 const&, ImVec2 const&, unsigned int, unsigned int, unsigned int, unsigned int)
PUBLIC m 134c00 0 ImDrawList::AddQuad(ImVec2 const&, ImVec2 const&, ImVec2 const&, ImVec2 const&, unsigned int, float)
PUBLIC m 1353d4 0 ImDrawList::AddQuadFilled(ImVec2 const&, ImVec2 const&, ImVec2 const&, ImVec2 const&, unsigned int)
PUBLIC m 135b94 0 ImDrawList::AddTriangle(ImVec2 const&, ImVec2 const&, ImVec2 const&, unsigned int, float)
PUBLIC m 13617c 0 ImDrawList::AddTriangleFilled(ImVec2 const&, ImVec2 const&, ImVec2 const&, unsigned int)
PUBLIC m 136750 0 ImDrawList::AddCircle(ImVec2 const&, float, unsigned int, int, float)
PUBLIC m 136834 0 ImDrawList::AddCircleFilled(ImVec2 const&, float, unsigned int, int)
PUBLIC m 1368f4 0 ImDrawList::AddNgon(ImVec2 const&, float, unsigned int, int, float)
PUBLIC m 136984 0 ImDrawList::AddNgonFilled(ImVec2 const&, float, unsigned int, int)
PUBLIC m 1369f8 0 ImDrawList::AddEllipse(ImVec2 const&, ImVec2 const&, unsigned int, float, int, float)
PUBLIC m 136b40 0 ImDrawList::AddEllipseFilled(ImVec2 const&, ImVec2 const&, unsigned int, float, int)
PUBLIC m 136c7c 0 ImDrawList::AddBezierCubic(ImVec2 const&, ImVec2 const&, ImVec2 const&, ImVec2 const&, unsigned int, float, int)
PUBLIC m 136f10 0 ImDrawList::AddBezierQuadratic(ImVec2 const&, ImVec2 const&, ImVec2 const&, unsigned int, float, int)
PUBLIC m 137194 0 ImDrawList::AddText(ImFont const*, float, ImVec2 const&, unsigned int, char const*, char const*, float, ImVec4 const*)
PUBLIC m 1372d0 0 ImFont::RenderText(ImDrawList*, float, ImVec2 const&, unsigned int, ImVec4 const&, char const*, char const*, float, bool) const
PUBLIC m 137a1c 0 ImDrawList::AddText(ImVec2 const&, unsigned int, char const*, char const*)
PUBLIC m 137ae8 0 ImDrawList::AddImage(void*, ImVec2 const&, ImVec2 const&, ImVec2 const&, ImVec2 const&, unsigned int)
PUBLIC m 137db8 0 ImDrawList::AddImageQuad(void*, ImVec2 const&, ImVec2 const&, ImVec2 const&, ImVec2 const&, ImVec2 const&, ImVec2 const&, ImVec2 const&, ImVec2 const&, unsigned int)
PUBLIC m 138084 0 ImDrawList::AddImageRounded(void*, ImVec2 const&, ImVec2 const&, ImVec2 const&, ImVec2 const&, unsigned int, float, int)
PUBLIC m 138734 0 ImGui::ShadeVertsLinearUV(ImDrawList*, int, int, ImVec2 const&, ImVec2 const&, ImVec2 const&, ImVec2 const&, bool)
PUBLIC m 138b3c 0 ImTriangulator::Init(ImVec2 const*, int, void*)
PUBLIC m 138db0 0 ImTriangulator::BuildNodes(ImVec2 const*, int)
PUBLIC m 138e38 0 ImTriangulator::BuildReflexes()
PUBLIC m 138eb8 0 ImTriangulator::BuildEars()
PUBLIC m 139024 0 ImTriangulator::IsEar(int, int, int, ImVec2 const&, ImVec2 const&, ImVec2 const&) const
PUBLIC m 1390f8 0 ImTriangulator::GetNextTriangle(unsigned int*)
PUBLIC m 1393e0 0 ImTriangulator::FlipNodeList()
PUBLIC m 13942c 0 ImTriangulator::ReclassifyNode(ImTriangulatorNode*)
PUBLIC m 139628 0 ImDrawList::AddConcavePolyFilled(ImVec2 const*, int, unsigned int)
PUBLIC m 139e60 0 ImDrawListSplitter::Split(ImDrawList*, int)
PUBLIC m 13a40c 0 ImDrawListSplitter::SetCurrentChannel(ImDrawList*, int)
PUBLIC m 13a4e4 0 ImDrawData::Clear()
PUBLIC m 13a6b4 0 ImGui::AddDrawListToDrawDataEx(ImDrawData*, ImVector<ImDrawList*>*, ImDrawList*)
PUBLIC m 13a914 0 ImDrawData::AddDrawList(ImDrawList*)
PUBLIC m 13a954 0 ImDrawData::DeIndexAllBuffers()
PUBLIC 13ae84 0 ImVector<ImDrawVert>::~ImVector()
PUBLIC m 13af50 0 ImDrawData::ScaleClipRects(ImVec2 const&)
PUBLIC m 13afac 0 ImGui::ShadeVertsLinearColorGradientKeepAlpha(ImDrawList*, int, int, ImVec2, ImVec2, unsigned int, unsigned int)
PUBLIC m 13b210 0 ImGui::ShadeVertsTransformPos(ImDrawList*, int, int, ImVec2 const&, float, float, ImVec2 const&)
PUBLIC m 13b26c 0 ImFontConfig::ImFontConfig()
PUBLIC m 13b2b4 0 ImFontAtlas::ImFontAtlas()
PUBLIC m 13b2f0 0 ImFontAtlas::~ImFontAtlas()
PUBLIC m 13b53c 0 ImFontAtlas::Clear()
PUBLIC m 13b880 0 ImFontAtlas::ClearInputData()
PUBLIC m 13bb64 0 ImFontAtlas::ClearTexData()
PUBLIC m 13bd04 0 ImFontAtlas::ClearFonts()
PUBLIC m 13bee0 0 ImFontAtlas::GetTexDataAsAlpha8(unsigned char**, int*, int*, int*)
PUBLIC m 13c054 0 ImFontAtlas::Build()
PUBLIC m 13c18c 0 ImFontAtlas::GetTexDataAsRGBA32(unsigned char**, int*, int*, int*)
PUBLIC m 13c54c 0 ImFontAtlas::AddFont(ImFontConfig const*)
PUBLIC m 13cd1c 0 ImFontAtlasUpdateConfigDataPointers(ImFontAtlas*)
PUBLIC m 13cd74 0 ImFontAtlas::AddFontDefault(ImFontConfig const*)
PUBLIC m 13ce90 0 ImFontAtlas::GetGlyphRangesDefault()
PUBLIC m 13ce9c 0 ImFontAtlas::AddFontFromMemoryCompressedBase85TTF(char const*, float, ImFontConfig const*, unsigned short const*)
PUBLIC m 13d11c 0 ImFontAtlas::AddFontFromFileTTF(char const*, float, ImFontConfig const*, unsigned short const*)
PUBLIC m 13d2ac 0 ImFontAtlas::AddFontFromMemoryTTF(void*, int, float, ImFontConfig const*, unsigned short const*)
PUBLIC m 13d37c 0 ImFontAtlas::AddFontFromMemoryCompressedTTF(void const*, int, float, ImFontConfig const*, unsigned short const*)
PUBLIC m 13dc20 0 ImFontAtlas::AddCustomRectRegular(int, int)
PUBLIC m 13de88 0 ImFontAtlas::AddCustomRectFontGlyph(ImFont*, unsigned short, int, int, float, ImVec2 const&)
PUBLIC m 13e0dc 0 ImFontAtlas::CalcCustomRectUV(ImFontAtlasCustomRect const*, ImVec2*, ImVec2*) const
PUBLIC m 13e130 0 ImFontAtlas::GetMouseCursorTexData(int, ImVec2*, ImVec2*, ImVec2*, ImVec2*)
PUBLIC m 13e1e8 0 ImFontAtlasGetBuilderForStbTruetype()
PUBLIC m 13e200 0 ImFontAtlasBuildMultiplyCalcLookupTable(unsigned char*, float)
PUBLIC m 13e800 0 ImFontAtlasBuildMultiplyRectAlpha8(unsigned char const*, unsigned char*, int, int, int, int, int)
PUBLIC 13e854 0 ImFontAtlasBuildWithStbTruetype(ImFontAtlas*)
PUBLIC m 1453ec 0 ImFontAtlasBuildSetupFont(ImFontAtlas*, ImFont*, ImFontConfig*, float, float)
PUBLIC m 14568c 0 ImFont::ClearOutputData()
PUBLIC m 1458f4 0 ImFontAtlasBuildPackCustomRects(ImFontAtlas*, void*)
PUBLIC 145bd4 0 stbrp_pack_rects(stbrp_context*, stbrp_rect*, int)
PUBLIC 14613c 0 ImVector<stbrp_rect>::~ImVector()
PUBLIC m 146208 0 ImFontAtlasBuildRender8bppRectFromString(ImFontAtlas*, int, int, int, int, char const*, char, unsigned char)
PUBLIC m 146330 0 ImFontAtlasBuildRender32bppRectFromString(ImFontAtlas*, int, int, int, int, char const*, char, unsigned int)
PUBLIC m 1464e0 0 ImFontAtlasBuildInit(ImFontAtlas*)
PUBLIC m 146624 0 ImFontAtlasBuildFinish(ImFontAtlas*)
PUBLIC m 14cd24 0 ImFont::AddGlyph(ImFontConfig const*, unsigned short, float, float, float, float, float, float, float, float, float)
PUBLIC m 14d068 0 ImFont::BuildLookupTable()
PUBLIC m 14da7c 0 ImFontAtlas::GetGlyphRangesGreek()
PUBLIC m 14da88 0 ImFontAtlas::GetGlyphRangesKorean()
PUBLIC m 14da94 0 ImFontAtlas::GetGlyphRangesChineseFull()
PUBLIC m 14daa0 0 ImFontAtlas::GetGlyphRangesChineseSimplifiedCommon()
PUBLIC m 14db18 0 ImFontAtlas::GetGlyphRangesJapanese()
PUBLIC m 14db90 0 ImFontAtlas::GetGlyphRangesCyrillic()
PUBLIC m 14db9c 0 ImFontAtlas::GetGlyphRangesThai()
PUBLIC m 14dba8 0 ImFontAtlas::GetGlyphRangesVietnamese()
PUBLIC m 14dbb4 0 ImFontGlyphRangesBuilder::AddText(char const*, char const*)
PUBLIC m 14dcb4 0 ImFontGlyphRangesBuilder::AddRanges(unsigned short const*)
PUBLIC m 14dd0c 0 ImFontGlyphRangesBuilder::BuildRanges(ImVector<unsigned short>*)
PUBLIC m 14e308 0 ImFont::ImFont()
PUBLIC m 14e34c 0 ImFont::~ImFont()
PUBLIC m 14e7c8 0 ImFont::GrowIndex(int)
PUBLIC m 14ebcc 0 ImFont::FindGlyph(unsigned short) const
PUBLIC m 14ec08 0 ImFont::SetGlyphVisible(unsigned short, bool)
PUBLIC m 14ec68 0 ImFont::FindGlyphNoFallback(unsigned short) const
PUBLIC m 14eca4 0 ImFont::IsGlyphRangeUnused(unsigned int, unsigned int)
PUBLIC m 14ed08 0 ImFont::AddRemapChar(unsigned short, unsigned short, bool)
PUBLIC m 14ede0 0 ImFont::CalcWordWrapPositionA(float, char const*, char const*, float) const
PUBLIC m 14eff4 0 ImFont::CalcTextSizeA(float, float, float, char const*, char const*, char const**) const
PUBLIC m 14f2f8 0 ImFont::RenderChar(ImDrawList*, float, ImVec2 const&, unsigned int, unsigned short) const
PUBLIC m 14f478 0 ImGui::RenderArrow(ImDrawList*, ImVec2, unsigned int, ImGuiDir, float)
PUBLIC m 14f5b0 0 ImGui::RenderBullet(ImDrawList*, ImVec2, unsigned int)
PUBLIC m 14f664 0 ImGui::RenderCheckMark(ImDrawList*, ImVec2, unsigned int, float)
PUBLIC m 14fc90 0 ImGui::RenderArrowPointingAt(ImDrawList*, ImVec2, ImVec2, ImGuiDir, unsigned int)
PUBLIC m 14fd54 0 ImGui::RenderArrowDockMenu(ImDrawList*, ImVec2, float, unsigned int)
PUBLIC m 14ff30 0 ImGui::RenderRectFilledRangeH(ImDrawList*, ImRect const&, unsigned int, float, float, float)
PUBLIC m 1509ec 0 ImGui::RenderRectFilledWithHole(ImDrawList*, ImRect const&, ImRect const&, unsigned int, float)
PUBLIC m 150cd0 0 ImGui::CalcRoundingFlagsForRectInRect(ImRect const&, ImRect const&, float)
PUBLIC m 150d54 0 ImGui::RenderColorRectWithAlphaCheckerboard(ImDrawList*, ImVec2, ImVec2, unsigned int, float, ImVec2, float, int)
PUBLIC 151168 0 stbtt_FindGlyphIndex(stbtt_fontinfo const*, int)
PUBLIC 1513d0 0 stbtt_GetGlyphBitmapBoxSubpixel(stbtt_fontinfo const*, int, float, float, float, float, int*, int*, int*, int*)
PUBLIC 151628 0 ImVector<stbtt_packedchar>::~ImVector()
PUBLIC 1516f4 0 ImVector<ImFontBuildDstData>::~ImVector()
PUBLIC 1517c0 0 ImVector<ImFontBuildSrcData>::~ImVector()
PUBLIC 15188c 0 stbtt__cff_index_get(stbtt__buf, int)
PUBLIC 1519f4 0 stbtt__dict_get_ints(stbtt__buf*, int, int, unsigned int*)
PUBLIC 151c48 0 stbtt__get_subrs(stbtt__buf, stbtt__buf)
PUBLIC 151e5c 0 stbtt__cff_int(stbtt__buf*)
PUBLIC 152014 0 stbtt__run_charstring(stbtt_fontinfo const*, int, stbtt__csctx*)
PUBLIC 153064 0 stbtt__csctx_rmove_to(stbtt__csctx*, float, float)
PUBLIC 153264 0 stbtt__csctx_rccurve_to(stbtt__csctx*, float, float, float, float, float, float)
PUBLIC 153460 0 stbtt_GetGlyphShape(stbtt_fontinfo const*, int, stbtt_vertex**)
PUBLIC 154050 0 stbtt__tesselate_curve(stbtt__point*, int*, float, float, float, float, float, float, float, int)
PUBLIC 15417c 0 stbtt__tesselate_cubic(stbtt__point*, int*, float, float, float, float, float, float, float, float, float, int)
PUBLIC 154310 0 stbtt__sort_edges_quicksort(stbtt__edge*, int)
PUBLIC 15450c 0 rect_height_compare(void const*, void const*)
PUBLIC 154548 0 rect_original_order(void const*, void const*)
PUBLIC m 154560 0 ImGui::ShowDemoWindow(bool*)
PUBLIC m 1693b0 0 ImGui::ShowAboutWindow(bool*)
PUBLIC m 169dbc 0 ImGui::ShowStyleEditor(ImGuiStyle*)
PUBLIC m 16d374 0 ImGui::ShowUserGuide()
PUBLIC 16d53c 0 ShowDemoWindowWidgets(ImGuiDemoWindowData*)
PUBLIC 17fb88 0 ShowDemoWindowLayout()
PUBLIC 187f20 0 ShowDemoWindowTables()
PUBLIC m 1a45a0 0 ImGui::ShowFontSelector(char const*)
PUBLIC m 1a48fc 0 ImGui::ShowStyleSelector(char const*)
PUBLIC 1a49d4 0 ImGuiTextFilter::~ImGuiTextFilter()
PUBLIC 1a4aa4 0 ShowExampleMenuFile()
PUBLIC 1a5374 0 sprintf(char*, char const* pass_object_size1, ...)
PUBLIC 1a5418 0 ShowDemoWindowMultiSelect(ImGuiDemoWindowData*)
PUBLIC 1acb0c 0 ShowDemoWindowWidgets(ImGuiDemoWindowData*)::TextFilters::FilterCasingSwap(ImGuiInputTextCallbackData*)
PUBLIC 1acb40 0 ShowDemoWindowWidgets(ImGuiDemoWindowData*)::TextFilters::FilterImGuiLetters(ImGuiInputTextCallbackData*)
PUBLIC 1acb7c 0 ShowDemoWindowWidgets(ImGuiDemoWindowData*)::Funcs::MyCallback(ImGuiInputTextCallbackData*)
PUBLIC 1acd4c 0 ImVector<int>::push_back(int const&)
PUBLIC 1acf68 0 snprintf(char*, unsigned long pass_object_size1, char const*, ...)
PUBLIC 1ad00c 0 ShowDemoWindowWidgets(ImGuiDemoWindowData*)::Funcs::Sin(void*, int)
PUBLIC 1ad024 0 ShowDemoWindowWidgets(ImGuiDemoWindowData*)::Funcs::Saw(void*, int)
PUBLIC 1ad038 0 ShowDemoWindowWidgets(ImGuiDemoWindowData*)::$_0::__invoke(void*, int)
PUBLIC 1ad040 0 ImGuiSelectionBasicStorage::~ImGuiSelectionBasicStorage()
PUBLIC 1ad110 0 ExampleDualListBox::~ExampleDualListBox()
PUBLIC 1ad3fc 0 __cxx_global_array_dtor
PUBLIC 1ad640 0 ExampleTree_CreateDemoTree()
PUBLIC 1ae414 0 ShowDemoWindowMultiSelect(ImGuiDemoWindowData*)::ExampleTreeFuncs::ApplySelectionRequests(ImGuiMultiSelectIO*, ExampleTreeNode*, ImGuiSelectionBasicStorage*)
PUBLIC 1ae5d0 0 ShowDemoWindowMultiSelect(ImGuiDemoWindowData*)::ExampleTreeFuncs::DrawNode(ExampleTreeNode*, ImGuiSelectionBasicStorage*)
PUBLIC 1ae780 0 ShowDemoWindowMultiSelect(ImGuiDemoWindowData*)::$_0::__invoke(ImGuiSelectionBasicStorage*, int)
PUBLIC m 1ae790 0 ExampleDualListBox::ApplySelectionRequests(ImGuiMultiSelectIO*, int)::{lambda(ImGuiSelectionBasicStorage*, int)#1}::__invoke(ImGuiSelectionBasicStorage*, int)
PUBLIC m 1ae79c 0 ExampleDualListBox::CompareItemsByValue(void const*, void const*)
PUBLIC 1ae7b4 0 ShowDemoWindowMultiSelect(ImGuiDemoWindowData*)::$_1::__invoke(ImGuiSelectionExternalStorage*, int, bool)
PUBLIC 1ae7c0 0 ShowDemoWindowMultiSelect(ImGuiDemoWindowData*)::ExampleTreeFuncs::TreeSetAllInOpenNodes(ExampleTreeNode*, ImGuiSelectionBasicStorage*, bool)
PUBLIC 1ae8c0 0 ShowDemoWindowMultiSelect(ImGuiDemoWindowData*)::ExampleTreeFuncs::TreeCloseAndUnselectChildNodes(ExampleTreeNode*, ImGuiSelectionBasicStorage*, int)
PUBLIC 1aea90 0 ShowDemoWindowWidgets(ImGuiDemoWindowData*)::Funcs::MyResizeCallback(ImGuiInputTextCallbackData*)
PUBLIC 1aeca8 0 EditTableSizingFlags(int*)
PUBLIC 1af430 0 ShowDemoWindowTables()::MyTreeNode::DisplayNode(MyTreeNode const*, MyTreeNode const*)
PUBLIC 1af600 0 ImVector<(anonymous namespace)::MyItem>::~ImVector()
PUBLIC 1af6d0 0 (anonymous namespace)::MyItem::CompareWithSortSpecs(void const*, void const*)
PUBLIC 1af7e0 0 ExampleAppConsole::ExampleAppConsole()
PUBLIC 1b02b8 0 ExampleAppConsole::~ExampleAppConsole()
PUBLIC 1b0814 0 ExampleAppConsole::AddLog(char const*, ...)
PUBLIC 1b0b8c 0 ImVector<char*>::~ImVector()
PUBLIC 1b0c58 0 ImVector<char const*>::~ImVector()
PUBLIC m 1b0d24 0 ExampleAppConsole::TextEditCallbackStub(ImGuiInputTextCallbackData*)
PUBLIC 1b1560 0 ExampleAppLog::ExampleAppLog()
PUBLIC 1b1620 0 ExampleAppLog::~ExampleAppLog()
PUBLIC 1b1864 0 ExampleAppLog::AddLog(char const*, ...)
PUBLIC 1b1b80 0 ExampleAppLog::Clear()
PUBLIC 1b1efc 0 ExampleAppPropertyEditor::~ExampleAppPropertyEditor()
PUBLIC 1b1fcc 0 ExampleAppPropertyEditor::DrawTreeNode(ExampleTreeNode*)
PUBLIC 1b2258 0 ShowExampleAppConstrainedResize(bool*)::CustomConstraints::AspectRatio(ImGuiSizeCallbackData*)
PUBLIC 1b2278 0 ShowExampleAppConstrainedResize(bool*)::CustomConstraints::Square(ImGuiSizeCallbackData*)
PUBLIC 1b228c 0 ShowExampleAppConstrainedResize(bool*)::CustomConstraints::Step(ImGuiSizeCallbackData*)
PUBLIC 1b22bc 0 PathConcaveShape(ImDrawList*, float, float, float)
PUBLIC 1b251c 0 ImVector<ImVec2>::~ImVector()
PUBLIC 1b25ec 0 ImVector<ImVec2>::push_back(ImVec2 const&)
PUBLIC 1b2808 0 ExampleAppDocuments::ExampleAppDocuments()
PUBLIC 1b3668 0 ExampleAppDocuments::~ExampleAppDocuments()
PUBLIC 1b37fc 0 ExampleAppDocuments::DisplayDocContextMenu(MyDocument*)
PUBLIC 1b3b88 0 ExampleAppDocuments::DisplayDocContents(MyDocument*)
PUBLIC 1b4124 0 ImVector<MyDocument*>::~ImVector()
PUBLIC 1b41f8 0 ImVector<MyDocument>::~ImVector()
PUBLIC 1b42cc 0 ExampleAssetsBrowser::ExampleAssetsBrowser()
PUBLIC 1b436c 0 ExampleAssetsBrowser::~ExampleAssetsBrowser()
PUBLIC 1b4500 0 ExampleAssetsBrowser::AddItems(int)
PUBLIC 1b495c 0 ImVector<ExampleAsset>::~ImVector()
PUBLIC 1b4a28 0 ExampleAssetsBrowser::UpdateLayoutSizes(float)
PUBLIC m 1b4af0 0 ExampleAsset::CompareWithSortSpecs(void const*, void const*)
PUBLIC m 1b4b94 0 ExampleAssetsBrowser::Draw(char const*, bool*)::{lambda(ImGuiSelectionBasicStorage*, int)#1}::__invoke(ImGuiSelectionBasicStorage*, int)
PUBLIC m 1b4ba8 0 ImGui::InputText(char const*, std::__ndk1::basic_string<char, std::__ndk1::char_traits<char>, std::__ndk1::allocator<char> >*, int, int (*)(ImGuiInputTextCallbackData*), void*)
PUBLIC 1b4c38 0 InputTextCallback(ImGuiInputTextCallbackData*)
PUBLIC m 1b4cf0 0 ImGui::InputTextMultiline(char const*, std::__ndk1::basic_string<char, std::__ndk1::char_traits<char>, std::__ndk1::allocator<char> >*, ImVec2 const&, int, int (*)(ImGuiInputTextCallbackData*), void*)
PUBLIC m 1b4d84 0 ImGui::InputTextWithHint(char const*, char const*, std::__ndk1::basic_string<char, std::__ndk1::char_traits<char>, std::__ndk1::allocator<char> >*, int, int (*)(ImGuiInputTextCallbackData*), void*)
PUBLIC m 1b4e10 0 geode::getMod()
PUBLIC m 1b4e4c 0 geodeImplicitEntry
PUBLIC 1b4e88 0 cocos2d::CCDestructor::~CCDestructor()
PUBLIC 1b4f84 0 wrapFunction(unsigned long, tulip::hook::WrapperMetadata const&)
PUBLIC 1b50b8 0 geode::impl::ResultData<void*, std::__ndk1::basic_string<char, std::__ndk1::char_traits<char>, std::__ndk1::allocator<char> > >::unwrapErr() &
PUBLIC 1b5130 0 geode::impl::ResultData<void*, std::__ndk1::basic_string<char, std::__ndk1::char_traits<char>, std::__ndk1::allocator<char> > >::~ResultData()
PUBLIC 1b51a4 0 tulip::hook::WrapperMetadata::~WrapperMetadata()
PUBLIC 1b5208 0 cocos2d::CCObject::CCObject()
PUBLIC 1b537c 0 cocos2d::CCNode::~CCNode()
PUBLIC 1b53a0 0 cocos2d::CCObject::~CCObject()
PUBLIC 1b53c4 0 cocos2d::CCTexture2D::~CCTexture2D()
PUBLIC 1b55e8 0 cocos2d::CCTexture2D::~CCTexture2D()
PUBLIC 1b560c 0 cocos2d::CCTexture2D::CCTexture2D()
PUBLIC 1b5788 0 cocos2d::CCObject::update(float)
PUBLIC 1b578c 0 cocos2d::CCNode::~CCNode()
PUBLIC 1b59b0 0 cocos2d::CCObject::~CCObject()
PUBLIC 1b5bd4 0 _ZN5geode15UnwrapExceptionC2IRPvQsr4implE18IsStringStreamableIT_EEENS_4impl5OkTagEOS4_
PUBLIC 1b5d28 0 _ZN5geode15UnwrapExceptionC2IRNSt6__ndk112basic_stringIcNS2_11char_traitsIcEENS2_9allocatorIcEEEEQsr4implE18IsStringStreamableIT_EEENS_4impl6ErrTagEOSA_
PUBLIC 1b5e90 0 std::__ndk1::__variant_detail::__visitation::__base::__dispatcher<(unsigned long)0>::__dispatch[abi:ne180000]<std::__ndk1::__variant_detail::__dtor<std::__ndk1::__variant_detail::__traits<void*, std::__ndk1::basic_string<char, std::__ndk1::char_traits<char>, std::__ndk1::allocator<char> > >, (std::__ndk1::__variant_detail::_Trait)1>::__destroy[abi:ne180000]()::{lambda(auto:1&)#1}, std::__ndk1::__variant_detail::__base<(std::__ndk1::__variant_detail::__traits<void*, std::__ndk1::basic_string<char, std::__ndk1::char_traits<char>, std::__ndk1::allocator<char> > >)1, std::__ndk1::__variant_detail::__traits, std::__ndk1::allocator<char> >&>(std::__ndk1::__variant_detail::__dtor<std::__ndk1::__variant_detail::__traits<void*, std::__ndk1::basic_string<char, std::__ndk1::char_traits<char>, std::__ndk1::allocator<char> > >, (std::__ndk1::__variant_detail::_Trait)1>, std::__ndk1::__variant_detail::__base<(std::__ndk1::__variant_detail::__traits<void*, std::__ndk1::basic_string<char, std::__ndk1::char_traits<char>, std::__ndk1::allocator<char> > >)1, std::__ndk1::__variant_detail::__traits, std::__ndk1::allocator<char> >&)
PUBLIC 1b5e94 0 std::__ndk1::__variant_detail::__visitation::__base::__dispatcher<(unsigned long)1>::__dispatch[abi:ne180000]<std::__ndk1::__variant_detail::__dtor<std::__ndk1::__variant_detail::__traits<void*, std::__ndk1::basic_string<char, std::__ndk1::char_traits<char>, std::__ndk1::allocator<char> > >, (std::__ndk1::__variant_detail::_Trait)1>::__destroy[abi:ne180000]()::{lambda(auto:1&)#1}, std::__ndk1::__variant_detail::__base<(std::__ndk1::__variant_detail::__traits<void*, std::__ndk1::basic_string<char, std::__ndk1::char_traits<char>, std::__ndk1::allocator<char> > >)1, std::__ndk1::__variant_detail::__traits, std::__ndk1::allocator<char> >&>(std::__ndk1::__variant_detail::__dtor<std::__ndk1::__variant_detail::__traits<void*, std::__ndk1::basic_string<char, std::__ndk1::char_traits<char>, std::__ndk1::allocator<char> > >, (std::__ndk1::__variant_detail::_Trait)1>, std::__ndk1::__variant_detail::__base<(std::__ndk1::__variant_detail::__traits<void*, std::__ndk1::basic_string<char, std::__ndk1::char_traits<char>, std::__ndk1::allocator<char> > >)1, std::__ndk1::__variant_detail::__traits, std::__ndk1::allocator<char> >&)
PUBLIC 1b5ea8 0 std::__ndk1::__hash_table<std::__ndk1::__hash_value_type<void*, bool>, std::__ndk1::__unordered_map_hasher<void*, std::__ndk1::__hash_value_type<void*, bool>, std::__ndk1::hash<void*>, std::__ndk1::equal_to<void*>, true>, std::__ndk1::__unordered_map_equal<void*, std::__ndk1::__hash_value_type<void*, bool>, std::__ndk1::equal_to<void*>, std::__ndk1::hash<void*>, true>, std::__ndk1::allocator<std::__ndk1::__hash_value_type<void*, bool> > >::__emplace_unique_key_args<void*, std::__ndk1::piecewise_construct_t const&, std::__ndk1::tuple<void* const&>, std::__ndk1::tuple<> >(void* const&, std::__ndk1::piecewise_construct_t const&, std::__ndk1::tuple<void* const&>, std::__ndk1::tuple<>)
PUBLIC 1b6388 0 std::__ndk1::__hash_table<std::__ndk1::__hash_value_type<void*, bool>, std::__ndk1::__unordered_map_hasher<void*, std::__ndk1::__hash_value_type<void*, bool>, std::__ndk1::hash<void*>, std::__ndk1::equal_to<void*>, true>, std::__ndk1::__unordered_map_equal<void*, std::__ndk1::__hash_value_type<void*, bool>, std::__ndk1::equal_to<void*>, std::__ndk1::hash<void*>, true>, std::__ndk1::allocator<std::__ndk1::__hash_value_type<void*, bool> > >::find<void*>(void* const&)
PUBLIC 1b6498 0 std::__ndk1::__hash_table<std::__ndk1::__hash_value_type<void*, bool>, std::__ndk1::__unordered_map_hasher<void*, std::__ndk1::__hash_value_type<void*, bool>, std::__ndk1::hash<void*>, std::__ndk1::equal_to<void*>, true>, std::__ndk1::__unordered_map_equal<void*, std::__ndk1::__hash_value_type<void*, bool>, std::__ndk1::equal_to<void*>, std::__ndk1::hash<void*>, true>, std::__ndk1::allocator<std::__ndk1::__hash_value_type<void*, bool> > >::remove(std::__ndk1::__hash_const_iterator<std::__ndk1::__hash_node<std::__ndk1::__hash_value_type<void*, bool>, void*>*>)
PUBLIC 1b65cc 0 __udivti3
PUBLIC 1b65d8 0 __udivmodti4
PUBLIC m 1b6824 0 __eqtf2
PUBLIC 1b68c4 0 __unordtf2
PUBLIC m 1b68fc 0 fmt::v11::detail::assert_fail(char const*, int, char const*)
PUBLIC m 1b6930 0 fmt::v11::detail::format_error_code(fmt::v11::detail::buffer<char>&, int, fmt::v11::basic_string_view<char>)
PUBLIC m 1b6a44 0 fmt::v11::detail::report_error(void (*)(fmt::v11::detail::buffer<char>&, int, char const*), int, char const*)
PUBLIC m 1b6af8 0 fmt::v11::detail::write_loc(fmt::v11::basic_appender<char>, fmt::v11::loc_value, fmt::v11::format_specs const&, fmt::v11::detail::locale_ref)
PUBLIC m 1b6c88 0 fmt::v11::detail::locale_ref::get<std::__ndk1::locale>() const
PUBLIC m 1b6c9c 0 fmt::v11::format_facet<std::__ndk1::locale>::format_facet(std::__ndk1::locale&)
PUBLIC m 1b6e2c 0 fmt::v11::format_facet<std::__ndk1::locale>::~format_facet()
PUBLIC m 1b6eac 0 fmt::v11::report_error(char const*)
PUBLIC m 1b6efc 0 fmt::v11::format_facet<std::__ndk1::locale>::do_put(fmt::v11::basic_appender<char>, fmt::v11::loc_value, fmt::v11::format_specs const&) const
PUBLIC m 1b70e4 0 fmt::v11::loc_value::visit<fmt::v11::detail::loc_writer<char> >(fmt::v11::detail::loc_writer<char>&&)
PUBLIC m 1b7180 0 fmt::v11::detail::loc_writer<char>::~loc_writer()
PUBLIC m 1b71e4 0 fmt::v11::vsystem_error(int, fmt::v11::basic_string_view<char>, fmt::v11::basic_format_args<fmt::v11::context>)
PUBLIC m 1b738c 0 fmt::v11::vformat(fmt::v11::basic_string_view<char>, fmt::v11::basic_format_args<fmt::v11::context>)
PUBLIC m 1b74c8 0 fmt::v11::detail::dragonbox::get_cached_power(int)
PUBLIC m 1b7578 0 fmt::v11::detail::utf8_to_utf16::utf8_to_utf16(fmt::v11::basic_string_view<char>)
PUBLIC m 1b7788 0 fmt::v11::format_system_error(fmt::v11::detail::buffer<char>&, int, char const*)
PUBLIC m 1b789c 0 fmt::v11::report_system_error(int, char const*)
PUBLIC m 1b7950 0 fmt::v11::detail::vformat_to<char>(fmt::v11::detail::buffer<char>&, fmt::v11::basic_string_view<char>, fmt::v11::detail::vformat_args<char>::type, fmt::v11::detail::locale_ref)
PUBLIC m 1b7b48 0 fmt::v11::detail::write_console(int, fmt::v11::basic_string_view<char>)
PUBLIC m 1b7b50 0 fmt::v11::detail::print(__sFILE*, fmt::v11::basic_string_view<char>)
PUBLIC m 1b7bd8 0 fmt::v11::vprint_buffered(__sFILE*, fmt::v11::basic_string_view<char>, fmt::v11::basic_format_args<fmt::v11::context>)
PUBLIC m 1b7d1c 0 fmt::v11::vprint(__sFILE*, fmt::v11::basic_string_view<char>, fmt::v11::basic_format_args<fmt::v11::context>)
PUBLIC m 1b7d20 0 fmt::v11::vprintln(__sFILE*, fmt::v11::basic_string_view<char>, fmt::v11::basic_format_args<fmt::v11::context>)
PUBLIC m 1b7e9c 0 fmt::v11::vprint(fmt::v11::basic_string_view<char>, fmt::v11::basic_format_args<fmt::v11::context>)
PUBLIC m 1b7ec0 0 fmt::v11::detail::is_printable(unsigned int)
PUBLIC m 1b80e8 0 fmt::v11::detail::dragonbox::to_decimal<float>(float)
PUBLIC m 1b83c4 0 fmt::v11::detail::dragonbox::to_decimal<double>(double)
PUBLIC m 1b8900 0 fmt::v11::detail::locale_ref::locale_ref<std::__ndk1::locale>()
PUBLIC m 1b8908 0 fmt::v11::detail::thousands_sep_impl<char>(fmt::v11::detail::locale_ref)
PUBLIC m 1b8a20 0 fmt::v11::detail::decimal_point_impl<char>(fmt::v11::detail::locale_ref)
PUBLIC m 1b8acc 0 fmt::v11::detail::buffer<char>::append<char>(char const*, char const*)
PUBLIC m 1b8c18 0 fmt::v11::detail::parse_format_string<false, char, fmt::v11::detail::vformat_to<char>(fmt::v11::detail::buffer<char>&, fmt::v11::basic_string_view<char>, fmt::v11::detail::vformat_args<char>::type, fmt::v11::detail::locale_ref)::format_handler>(fmt::v11::basic_string_view<char>, fmt::v11::detail::vformat_to<char>(fmt::v11::detail::buffer<char>&, fmt::v11::basic_string_view<char>, fmt::v11::detail::vformat_args<char>::type, fmt::v11::detail::locale_ref)::format_handler&&)
PUBLIC m 1b8e28 0 fmt::v11::detail::thousands_sep_impl<wchar_t>(fmt::v11::detail::locale_ref)
PUBLIC m 1b8f40 0 fmt::v11::detail::decimal_point_impl<wchar_t>(fmt::v11::detail::locale_ref)
PUBLIC m 1b8fec 0 fmt::v11::detail::buffer<wchar_t>::append<wchar_t>(wchar_t const*, wchar_t const*)
PUBLIC m 1b90f4 0 fmt::v11::format_facet<std::__ndk1::locale>::~format_facet()
PUBLIC m 1b9184 0 fmt::v11::basic_memory_buffer<wchar_t, (unsigned long)500, std::__ndk1::allocator<wchar_t> >::grow(fmt::v11::detail::buffer<wchar_t>&, unsigned long)
PUBLIC 1b9224 0 fmt::v11::detail::for_each_codepoint<fmt::v11::detail::utf8_to_utf16::utf8_to_utf16(fmt::v11::basic_string_view<char>)::$_0>(fmt::v11::basic_string_view<char>, fmt::v11::detail::utf8_to_utf16::utf8_to_utf16(fmt::v11::basic_string_view<char>)::$_0)::{lambda(char const*, char const*)#1}::operator()(char const*, char const*) const
PUBLIC m 1b9420 0 fmt::v11::detail::copy_noinline<char, char const*, fmt::v11::basic_appender<char> >(char const*, char const*, fmt::v11::basic_appender<char>)
PUBLIC m 1b9570 0 fmt::v11::system_error<>(int, fmt::v11::basic_format_string<char, fmt::v11::type_identity<>::type>, &&)
PUBLIC m 1b95bc 0 fmt::v11::detail::default_arg_formatter<char>::operator()<bool>(bool)
PUBLIC m 1b962c 0 fmt::v11::detail::default_arg_formatter<char>::operator()<char>(char)
PUBLIC m 1b96a4 0 fmt::v11::detail::default_arg_formatter<char>::operator()<float>(float)
PUBLIC m 1b9798 0 fmt::v11::detail::default_arg_formatter<char>::operator()<double>(double)
PUBLIC m 1b988c 0 fmt::v11::detail::default_arg_formatter<char>::operator()<char const*>(char const*)
PUBLIC m 1b98d4 0 fmt::v11::detail::default_arg_formatter<char>::operator()<void const*>(void const*)
PUBLIC m 1b9970 0 _ZN3fmt3v116detail5writeIcNS0_14basic_appenderIcEEiTnNSt6__ndk19enable_ifIXaaaasr11is_integralIT1_EE5valuentsr3std7is_sameIS7_bEE5valuentsr3std7is_sameIS7_T_EE5valueEiE4typeELi0EEET0_SB_S7_
PUBLIC m 1b9bd4 0 _ZN3fmt3v116detail5writeIcNS0_14basic_appenderIcEEjTnNSt6__ndk19enable_ifIXaaaasr11is_integralIT1_EE5valuentsr3std7is_sameIS7_bEE5valuentsr3std7is_sameIS7_T_EE5valueEiE4typeELi0EEET0_SB_S7_
PUBLIC m 1b9db8 0 _ZN3fmt3v116detail5writeIcNS0_14basic_appenderIcEExTnNSt6__ndk19enable_ifIXaaaasr11is_integralIT1_EE5valuentsr3std7is_sameIS7_bEE5valuentsr3std7is_sameIS7_T_EE5valueEiE4typeELi0EEET0_SB_S7_
PUBLIC m 1ba040 0 _ZN3fmt3v116detail5writeIcNS0_14basic_appenderIcEEyTnNSt6__ndk19enable_ifIXaaaasr11is_integralIT1_EE5valuentsr3std7is_sameIS7_bEE5valuentsr3std7is_sameIS7_T_EE5valueEiE4typeELi0EEET0_SB_S7_
PUBLIC m 1ba24c 0 _ZN3fmt3v116detail5writeIcNS0_14basic_appenderIcEEnTnNSt6__ndk19enable_ifIXaaaasr11is_integralIT1_EE5valuentsr3std7is_sameIS7_bEE5valuentsr3std7is_sameIS7_T_EE5valueEiE4typeELi0EEET0_SB_S7_
PUBLIC m 1ba5b0 0 _ZN3fmt3v116detail5writeIcNS0_14basic_appenderIcEEoTnNSt6__ndk19enable_ifIXaaaasr11is_integralIT1_EE5valuentsr3std7is_sameIS7_bEE5valuentsr3std7is_sameIS7_T_EE5valueEiE4typeELi0EEET0_SB_S7_
PUBLIC m 1ba8c8 0 _ZN3fmt3v116detail5writeIcNS0_14basic_appenderIcEEbTnNSt6__ndk19enable_ifIXsr3std7is_sameIT1_bEE5valueEiE4typeELi0EEET0_SA_S7_RKNS0_12format_specsENS1_10locale_refE
PUBLIC m 1ba9d4 0 fmt::v11::detail::write_padded<char, (fmt::v11::align::type)1, fmt::v11::basic_appender<char>, fmt::v11::detail::write_bytes<char, (fmt::v11::align::type)1, fmt::v11::basic_appender<char> >(fmt::v11::basic_appender<char>, fmt::v11::basic_string_view<char>, fmt::v11::format_specs const&)::{lambda(fmt::v11::basic_appender<char>&)#1}>(fmt::v11::basic_appender<char>, fmt::v11::format_specs const&, unsigned long, unsigned long, fmt::v11::detail::write_bytes<char, (fmt::v11::align::type)1, fmt::v11::basic_appender<char> >(fmt::v11::basic_appender<char>, fmt::v11::basic_string_view<char>, fmt::v11::format_specs const&)::{lambda(fmt::v11::basic_appender<char>&)#1})
PUBLIC m 1babc8 0 fmt::v11::detail::write_padded<char, (fmt::v11::align::type)1, fmt::v11::basic_appender<char>, fmt::v11::detail::write_nonfinite<char, fmt::v11::basic_appender<char> >(fmt::v11::basic_appender<char>, bool, fmt::v11::format_specs, fmt::v11::sign::type)::{lambda(fmt::v11::basic_appender<char>&)#1}>(fmt::v11::basic_appender<char>, fmt::v11::format_specs const&, unsigned long, unsigned long, fmt::v11::detail::write_nonfinite<char, fmt::v11::basic_appender<char> >(fmt::v11::basic_appender<char>, bool, fmt::v11::format_specs, fmt::v11::sign::type)::{lambda(fmt::v11::basic_appender<char>&)#1})
PUBLIC m 1bae20 0 fmt::v11::detail::do_write_float<char, fmt::v11::basic_appender<char>, fmt::v11::detail::dragonbox::decimal_fp<float>, fmt::v11::detail::digit_grouping<char> >(fmt::v11::basic_appender<char>, fmt::v11::detail::dragonbox::decimal_fp<float> const&, fmt::v11::format_specs const&, fmt::v11::detail::float_specs, fmt::v11::detail::locale_ref)
PUBLIC m 1bb4f4 0 fmt::v11::detail::do_write_float<char, fmt::v11::basic_appender<char>, fmt::v11::detail::dragonbox::decimal_fp<float>, fmt::v11::detail::digit_grouping<char> >(fmt::v11::basic_appender<char>, fmt::v11::detail::dragonbox::decimal_fp<float> const&, fmt::v11::format_specs const&, fmt::v11::detail::float_specs, fmt::v11::detail::locale_ref)::{lambda(fmt::v11::basic_appender<char>(fmt::v11::basic_appender<char>))#1}::operator() const
PUBLIC m 1bb648 0 fmt::v11::detail::digit_grouping<char>::digit_grouping(fmt::v11::detail::locale_ref, bool)
PUBLIC m 1bb800 0 fmt::v11::detail::digit_grouping<char>::~digit_grouping()
PUBLIC m 1bb844 0 fmt::v11::detail::write_exponent<char, fmt::v11::basic_appender<char> >(int, fmt::v11::basic_appender<char>)
PUBLIC m 1bba14 0 _ZN3fmt3v116detail17write_significandIcjTnNSt6__ndk19enable_ifIXsr3std11is_integralIT0_EE5valueEiE4typeELi0EEEPT_S9_S5_iiS8_
PUBLIC m 1bbb90 0 fmt::v11::detail::do_write_float<char, fmt::v11::basic_appender<char>, fmt::v11::detail::dragonbox::decimal_fp<float>, fmt::v11::detail::digit_grouping<char> >(fmt::v11::basic_appender<char>, fmt::v11::detail::dragonbox::decimal_fp<float> const&, fmt::v11::format_specs const&, fmt::v11::detail::float_specs, fmt::v11::detail::locale_ref)::{lambda(fmt::v11::basic_appender<char>(fmt::v11::basic_appender<char>))#2}::operator() const
PUBLIC m 1bbcc4 0 fmt::v11::detail::write_significand<char, fmt::v11::basic_appender<char>, unsigned int, fmt::v11::detail::digit_grouping<char> >(fmt::v11::basic_appender<char>, unsigned int, int, int, fmt::v11::detail::digit_grouping<char> const&)
PUBLIC m 1bbf84 0 fmt::v11::detail::digit_grouping<char>::apply<fmt::v11::basic_appender<char>, char>(fmt::v11::basic_appender<char>, fmt::v11::basic_string_view<char>) const
PUBLIC m 1bc33c 0 fmt::v11::basic_memory_buffer<int, (unsigned long)500, std::__ndk1::allocator<int> >::grow(fmt::v11::detail::buffer<int>&, unsigned long)
PUBLIC m 1bc3dc 0 fmt::v11::detail::write_padded<char, (fmt::v11::align::type)2, fmt::v11::basic_appender<char>, fmt::v11::detail::do_write_float<char, fmt::v11::basic_appender<char>, fmt::v11::detail::dragonbox::decimal_fp<float>, fmt::v11::detail::digit_grouping<char> >(fmt::v11::basic_appender<char>, fmt::v11::detail::dragonbox::decimal_fp<float> const&, fmt::v11::format_specs const&, fmt::v11::detail::float_specs, fmt::v11::detail::locale_ref)::{lambda(fmt::v11::basic_appender<char>&)#3}>(fmt::v11::basic_appender<char>, fmt::v11::format_specs const&, unsigned long, unsigned long, fmt::v11::detail::do_write_float<char, fmt::v11::basic_appender<char>, fmt::v11::detail::dragonbox::decimal_fp<float>, fmt::v11::detail::digit_grouping<char> >(fmt::v11::basic_appender<char>, fmt::v11::detail::dragonbox::decimal_fp<float> const&, fmt::v11::format_specs const&, fmt::v11::detail::float_specs, fmt::v11::detail::locale_ref)::{lambda(fmt::v11::basic_appender<char>&)#3})
PUBLIC m 1bc56c 0 fmt::v11::detail::write_significand<fmt::v11::basic_appender<char>, char, unsigned int, fmt::v11::detail::digit_grouping<char> >(fmt::v11::basic_appender<char>, unsigned int, int, int, char, fmt::v11::detail::digit_grouping<char> const&)
PUBLIC m 1bc6b4 0 fmt::v11::detail::do_write_float<char, fmt::v11::basic_appender<char>, fmt::v11::detail::dragonbox::decimal_fp<float>, fmt::v11::detail::digit_grouping<char> >(fmt::v11::basic_appender<char>, fmt::v11::detail::dragonbox::decimal_fp<float> const&, fmt::v11::format_specs const&, fmt::v11::detail::float_specs, fmt::v11::detail::locale_ref)::{lambda(fmt::v11::basic_appender<char>(fmt::v11::basic_appender<char>))#4}::operator() const
PUBLIC m 1bc8d0 0 fmt::v11::detail::do_write_float<char, fmt::v11::basic_appender<char>, fmt::v11::detail::dragonbox::decimal_fp<double>, fmt::v11::detail::digit_grouping<char> >(fmt::v11::basic_appender<char>, fmt::v11::detail::dragonbox::decimal_fp<double> const&, fmt::v11::format_specs const&, fmt::v11::detail::float_specs, fmt::v11::detail::locale_ref)
PUBLIC m 1bcfb4 0 fmt::v11::detail::do_write_float<char, fmt::v11::basic_appender<char>, fmt::v11::detail::dragonbox::decimal_fp<double>, fmt::v11::detail::digit_grouping<char> >(fmt::v11::basic_appender<char>, fmt::v11::detail::dragonbox::decimal_fp<double> const&, fmt::v11::format_specs const&, fmt::v11::detail::float_specs, fmt::v11::detail::locale_ref)::{lambda(fmt::v11::basic_appender<char>(fmt::v11::basic_appender<char>))#1}::operator() const
PUBLIC m 1bd10c 0 _ZN3fmt3v116detail17write_significandIcmTnNSt6__ndk19enable_ifIXsr3std11is_integralIT0_EE5valueEiE4typeELi0EEEPT_S9_S5_iiS8_
PUBLIC m 1bd29c 0 fmt::v11::detail::do_write_float<char, fmt::v11::basic_appender<char>, fmt::v11::detail::dragonbox::decimal_fp<double>, fmt::v11::detail::digit_grouping<char> >(fmt::v11::basic_appender<char>, fmt::v11::detail::dragonbox::decimal_fp<double> const&, fmt::v11::format_specs const&, fmt::v11::detail::float_specs, fmt::v11::detail::locale_ref)::{lambda(fmt::v11::basic_appender<char>(fmt::v11::basic_appender<char>))#2}::operator() const
PUBLIC m 1bd3d0 0 fmt::v11::detail::write_significand<char, fmt::v11::basic_appender<char>, unsigned long, fmt::v11::detail::digit_grouping<char> >(fmt::v11::basic_appender<char>, unsigned long, int, int, fmt::v11::detail::digit_grouping<char> const&)
PUBLIC m 1bd6a8 0 fmt::v11::detail::write_padded<char, (fmt::v11::align::type)2, fmt::v11::basic_appender<char>, fmt::v11::detail::do_write_float<char, fmt::v11::basic_appender<char>, fmt::v11::detail::dragonbox::decimal_fp<double>, fmt::v11::detail::digit_grouping<char> >(fmt::v11::basic_appender<char>, fmt::v11::detail::dragonbox::decimal_fp<double> const&, fmt::v11::format_specs const&, fmt::v11::detail::float_specs, fmt::v11::detail::locale_ref)::{lambda(fmt::v11::basic_appender<char>&)#3}>(fmt::v11::basic_appender<char>, fmt::v11::format_specs const&, unsigned long, unsigned long, fmt::v11::detail::do_write_float<char, fmt::v11::basic_appender<char>, fmt::v11::detail::dragonbox::decimal_fp<double>, fmt::v11::detail::digit_grouping<char> >(fmt::v11::basic_appender<char>, fmt::v11::detail::dragonbox::decimal_fp<double> const&, fmt::v11::format_specs const&, fmt::v11::detail::float_specs, fmt::v11::detail::locale_ref)::{lambda(fmt::v11::basic_appender<char>&)#3})
PUBLIC m 1bd838 0 fmt::v11::detail::write_significand<fmt::v11::basic_appender<char>, char, unsigned long, fmt::v11::detail::digit_grouping<char> >(fmt::v11::basic_appender<char>, unsigned long, int, int, char, fmt::v11::detail::digit_grouping<char> const&)
PUBLIC m 1bd980 0 fmt::v11::detail::do_write_float<char, fmt::v11::basic_appender<char>, fmt::v11::detail::dragonbox::decimal_fp<double>, fmt::v11::detail::digit_grouping<char> >(fmt::v11::basic_appender<char>, fmt::v11::detail::dragonbox::decimal_fp<double> const&, fmt::v11::format_specs const&, fmt::v11::detail::float_specs, fmt::v11::detail::locale_ref)::{lambda(fmt::v11::basic_appender<char>(fmt::v11::basic_appender<char>))#4}::operator() const
PUBLIC m 1bdba8 0 fmt::v11::detail::write_float<char, fmt::v11::basic_appender<char>, long double>(fmt::v11::basic_appender<char>, long double, fmt::v11::format_specs, fmt::v11::detail::locale_ref)
PUBLIC m 1bdf90 0 _ZN3fmt3v116detail15format_hexfloatIeTnNSt6__ndk19enable_ifIXntsr16is_double_doubleIT_EE5valueEiE4typeELi0EEEvS5_NS0_12format_specsERNS1_6bufferIcEE
PUBLIC m 1be4f8 0 fmt::v11::detail::format_float<long double>(long double, int, fmt::v11::detail::float_specs, fmt::v11::detail::buffer<char>&)
PUBLIC m 1be7bc 0 fmt::v11::detail::write_padded<char, (fmt::v11::align::type)2, fmt::v11::basic_appender<char>, fmt::v11::detail::write_bytes<char, (fmt::v11::align::type)2, fmt::v11::basic_appender<char> >(fmt::v11::basic_appender<char>, fmt::v11::basic_string_view<char>, fmt::v11::format_specs const&)::{lambda(fmt::v11::basic_appender<char>&)#1}>(fmt::v11::basic_appender<char>, fmt::v11::format_specs const&, unsigned long, unsigned long, fmt::v11::detail::write_bytes<char, (fmt::v11::align::type)2, fmt::v11::basic_appender<char> >(fmt::v11::basic_appender<char>, fmt::v11::basic_string_view<char>, fmt::v11::format_specs const&)::{lambda(fmt::v11::basic_appender<char>&)#1})
PUBLIC m 1be9b0 0 fmt::v11::detail::format_dragon(fmt::v11::detail::basic_fp<unsigned __int128>, unsigned int, int, fmt::v11::detail::buffer<char>&, int&)
PUBLIC m 1bfde4 0 fmt::v11::detail::bigint::operator<<=(int)
PUBLIC m 1bff08 0 fmt::v11::detail::bigint::assign_pow10(int)
PUBLIC m 1c009c 0 fmt::v11::detail::bigint::divmod_assign(fmt::v11::detail::bigint const&)
PUBLIC m 1c03bc 0 fmt::v11::basic_memory_buffer<unsigned int, (unsigned long)32, std::__ndk1::allocator<unsigned int> >::grow(fmt::v11::detail::buffer<unsigned int>&, unsigned long)
PUBLIC m 1c045c 0 fmt::v11::detail::bigint::square()
PUBLIC m 1c0a28 0 fmt::v11::detail::do_write_float<char, fmt::v11::basic_appender<char>, fmt::v11::detail::big_decimal_fp, fmt::v11::detail::digit_grouping<char> >(fmt::v11::basic_appender<char>, fmt::v11::detail::big_decimal_fp const&, fmt::v11::format_specs const&, fmt::v11::detail::float_specs, fmt::v11::detail::locale_ref)
PUBLIC m 1c10e0 0 fmt::v11::detail::do_write_float<char, fmt::v11::basic_appender<char>, fmt::v11::detail::big_decimal_fp, fmt::v11::detail::digit_grouping<char> >(fmt::v11::basic_appender<char>, fmt::v11::detail::big_decimal_fp const&, fmt::v11::format_specs const&, fmt::v11::detail::float_specs, fmt::v11::detail::locale_ref)::{lambda(fmt::v11::basic_appender<char>(fmt::v11::basic_appender<char>))#1}::operator() const
PUBLIC m 1c1248 0 fmt::v11::detail::do_write_float<char, fmt::v11::basic_appender<char>, fmt::v11::detail::big_decimal_fp, fmt::v11::detail::digit_grouping<char> >(fmt::v11::basic_appender<char>, fmt::v11::detail::big_decimal_fp const&, fmt::v11::format_specs const&, fmt::v11::detail::float_specs, fmt::v11::detail::locale_ref)::{lambda(fmt::v11::basic_appender<char>(fmt::v11::basic_appender<char>))#2}::operator() const
PUBLIC m 1c137c 0 fmt::v11::detail::write_significand<char, fmt::v11::basic_appender<char>, char const*, fmt::v11::detail::digit_grouping<char> >(fmt::v11::basic_appender<char>, char const*, int, int, fmt::v11::detail::digit_grouping<char> const&)
PUBLIC m 1c1764 0 fmt::v11::detail::write_padded<char, (fmt::v11::align::type)2, fmt::v11::basic_appender<char>, fmt::v11::detail::do_write_float<char, fmt::v11::basic_appender<char>, fmt::v11::detail::big_decimal_fp, fmt::v11::detail::digit_grouping<char> >(fmt::v11::basic_appender<char>, fmt::v11::detail::big_decimal_fp const&, fmt::v11::format_specs const&, fmt::v11::detail::float_specs, fmt::v11::detail::locale_ref)::{lambda(fmt::v11::basic_appender<char>&)#3}>(fmt::v11::basic_appender<char>, fmt::v11::format_specs const&, unsigned long, unsigned long, fmt::v11::detail::do_write_float<char, fmt::v11::basic_appender<char>, fmt::v11::detail::big_decimal_fp, fmt::v11::detail::digit_grouping<char> >(fmt::v11::basic_appender<char>, fmt::v11::detail::big_decimal_fp const&, fmt::v11::format_specs const&, fmt::v11::detail::float_specs, fmt::v11::detail::locale_ref)::{lambda(fmt::v11::basic_appender<char>&)#3})
PUBLIC m 1c18f4 0 fmt::v11::detail::write_significand<fmt::v11::basic_appender<char>, char, char const*, fmt::v11::detail::digit_grouping<char> >(fmt::v11::basic_appender<char>, char const*, int, int, char, fmt::v11::detail::digit_grouping<char> const&)
PUBLIC m 1c1b08 0 fmt::v11::detail::do_write_float<char, fmt::v11::basic_appender<char>, fmt::v11::detail::big_decimal_fp, fmt::v11::detail::digit_grouping<char> >(fmt::v11::basic_appender<char>, fmt::v11::detail::big_decimal_fp const&, fmt::v11::format_specs const&, fmt::v11::detail::float_specs, fmt::v11::detail::locale_ref)::{lambda(fmt::v11::basic_appender<char>(fmt::v11::basic_appender<char>))#4}::operator() const
PUBLIC m 1c1d88 0 fmt::v11::detail::parse_replacement_field<char, fmt::v11::detail::vformat_to<char>(fmt::v11::detail::buffer<char>&, fmt::v11::basic_string_view<char>, fmt::v11::detail::vformat_args<char>::type, fmt::v11::detail::locale_ref)::format_handler&>(char const*, char const*, fmt::v11::detail::vformat_to<char>(fmt::v11::detail::buffer<char>&, fmt::v11::basic_string_view<char>, fmt::v11::detail::vformat_args<char>::type, fmt::v11::detail::locale_ref)::format_handler&)
PUBLIC m 1c244c 0 fmt::v11::detail::vformat_to<char>(fmt::v11::detail::buffer<char>&, fmt::v11::basic_string_view<char>, fmt::v11::detail::vformat_args<char>::type, fmt::v11::detail::locale_ref)::format_handler::on_format_specs(int, char const*, char const*)
PUBLIC m 1c2a70 0 fmt::v11::detail::do_parse_arg_id<char, fmt::v11::detail::parse_replacement_field<char, fmt::v11::detail::vformat_to<char>(fmt::v11::detail::buffer<char>&, fmt::v11::basic_string_view<char>, fmt::v11::detail::vformat_args<char>::type, fmt::v11::detail::locale_ref)::format_handler&>(char const*, char const*, fmt::v11::detail::vformat_to<char>(fmt::v11::detail::buffer<char>&, fmt::v11::basic_string_view<char>, fmt::v11::detail::vformat_args<char>::type, fmt::v11::detail::locale_ref)::format_handler&)::id_adapter&>(char const*, char const*, fmt::v11::detail::parse_replacement_field<char, fmt::v11::detail::vformat_to<char>(fmt::v11::detail::buffer<char>&, fmt::v11::basic_string_view<char>, fmt::v11::detail::vformat_args<char>::type, fmt::v11::detail::locale_ref)::format_handler&>(char const*, char const*, fmt::v11::detail::vformat_to<char>(fmt::v11::detail::buffer<char>&, fmt::v11::basic_string_view<char>, fmt::v11::detail::vformat_args<char>::type, fmt::v11::detail::locale_ref)::format_handler&)::id_adapter&)
PUBLIC m 1c2cc8 0 fmt::v11::detail::write_int_noinline<char, fmt::v11::basic_appender<char>, unsigned long>(fmt::v11::basic_appender<char>, fmt::v11::detail::write_int_arg<unsigned long>, fmt::v11::format_specs const&, fmt::v11::detail::locale_ref)
PUBLIC m 1c36b0 0 fmt::v11::detail::write_int<char, fmt::v11::basic_appender<char>, fmt::v11::detail::write_int<char, fmt::v11::basic_appender<char>, unsigned long>(fmt::v11::basic_appender<char>, fmt::v11::detail::write_int_arg<unsigned long>, fmt::v11::format_specs const&, fmt::v11::detail::locale_ref)::{lambda(fmt::v11::basic_appender<char>)#1}>(fmt::v11::basic_appender<char>, int, unsigned int, fmt::v11::format_specs const&, fmt::v11::detail::write_int<char, fmt::v11::basic_appender<char>, unsigned long>(fmt::v11::basic_appender<char>, fmt::v11::detail::write_int_arg<unsigned long>, fmt::v11::format_specs const&, fmt::v11::detail::locale_ref)::{lambda(fmt::v11::basic_appender<char>)#1})::{lambda(fmt::v11::basic_appender<char>(fmt::v11::basic_appender<char>))#1}::operator() const
PUBLIC m 1c384c 0 fmt::v11::detail::write_int<char, fmt::v11::basic_appender<char>, fmt::v11::detail::write_int<char, fmt::v11::basic_appender<char>, unsigned long>(fmt::v11::basic_appender<char>, fmt::v11::detail::write_int_arg<unsigned long>, fmt::v11::format_specs const&, fmt::v11::detail::locale_ref)::{lambda(fmt::v11::basic_appender<char>)#2}>(fmt::v11::basic_appender<char>, int, unsigned int, fmt::v11::format_specs const&, fmt::v11::detail::write_int<char, fmt::v11::basic_appender<char>, unsigned long>(fmt::v11::basic_appender<char>, fmt::v11::detail::write_int_arg<unsigned long>, fmt::v11::format_specs const&, fmt::v11::detail::locale_ref)::{lambda(fmt::v11::basic_appender<char>)#2})::{lambda(fmt::v11::basic_appender<char>(fmt::v11::basic_appender<char>))#1}::operator() const
PUBLIC m 1c3a34 0 fmt::v11::detail::write_int<char, fmt::v11::basic_appender<char>, fmt::v11::detail::write_int<char, fmt::v11::basic_appender<char>, unsigned long>(fmt::v11::basic_appender<char>, fmt::v11::detail::write_int_arg<unsigned long>, fmt::v11::format_specs const&, fmt::v11::detail::locale_ref)::{lambda(fmt::v11::basic_appender<char>)#3}>(fmt::v11::basic_appender<char>, int, unsigned int, fmt::v11::format_specs const&, fmt::v11::detail::write_int<char, fmt::v11::basic_appender<char>, unsigned long>(fmt::v11::basic_appender<char>, fmt::v11::detail::write_int_arg<unsigned long>, fmt::v11::format_specs const&, fmt::v11::detail::locale_ref)::{lambda(fmt::v11::basic_appender<char>)#3})::{lambda(fmt::v11::basic_appender<char>(fmt::v11::basic_appender<char>))#1}::operator() const
PUBLIC m 1c3be0 0 fmt::v11::detail::write_int<char, fmt::v11::basic_appender<char>, fmt::v11::detail::write_int<char, fmt::v11::basic_appender<char>, unsigned long>(fmt::v11::basic_appender<char>, fmt::v11::detail::write_int_arg<unsigned long>, fmt::v11::format_specs const&, fmt::v11::detail::locale_ref)::{lambda(fmt::v11::basic_appender<char>)#4}>(fmt::v11::basic_appender<char>, int, unsigned int, fmt::v11::format_specs const&, fmt::v11::detail::write_int<char, fmt::v11::basic_appender<char>, unsigned long>(fmt::v11::basic_appender<char>, fmt::v11::detail::write_int_arg<unsigned long>, fmt::v11::format_specs const&, fmt::v11::detail::locale_ref)::{lambda(fmt::v11::basic_appender<char>)#4})::{lambda(fmt::v11::basic_appender<char>(fmt::v11::basic_appender<char>))#1}::operator() const
PUBLIC m 1c3d94 0 fmt::v11::detail::write_int_noinline<char, fmt::v11::basic_appender<char>, unsigned __int128>(fmt::v11::basic_appender<char>, fmt::v11::detail::write_int_arg<unsigned __int128>, fmt::v11::format_specs const&, fmt::v11::detail::locale_ref)
PUBLIC m 1c4894 0 fmt::v11::detail::write_int<char, fmt::v11::basic_appender<char>, fmt::v11::detail::write_int<char, fmt::v11::basic_appender<char>, unsigned __int128>(fmt::v11::basic_appender<char>, fmt::v11::detail::write_int_arg<unsigned __int128>, fmt::v11::format_specs const&, fmt::v11::detail::locale_ref)::{lambda(fmt::v11::basic_appender<char>)#1}>(fmt::v11::basic_appender<char>, int, unsigned int, fmt::v11::format_specs const&, fmt::v11::detail::write_int<char, fmt::v11::basic_appender<char>, unsigned __int128>(fmt::v11::basic_appender<char>, fmt::v11::detail::write_int_arg<unsigned __int128>, fmt::v11::format_specs const&, fmt::v11::detail::locale_ref)::{lambda(fmt::v11::basic_appender<char>)#1})::{lambda(fmt::v11::basic_appender<char>(fmt::v11::basic_appender<char>))#1}::operator() const
PUBLIC m 1c4a68 0 fmt::v11::detail::write_int<char, fmt::v11::basic_appender<char>, fmt::v11::detail::write_int<char, fmt::v11::basic_appender<char>, unsigned __int128>(fmt::v11::basic_appender<char>, fmt::v11::detail::write_int_arg<unsigned __int128>, fmt::v11::format_specs const&, fmt::v11::detail::locale_ref)::{lambda(fmt::v11::basic_appender<char>)#2}>(fmt::v11::basic_appender<char>, int, unsigned int, fmt::v11::format_specs const&, fmt::v11::detail::write_int<char, fmt::v11::basic_appender<char>, unsigned __int128>(fmt::v11::basic_appender<char>, fmt::v11::detail::write_int_arg<unsigned __int128>, fmt::v11::format_specs const&, fmt::v11::detail::locale_ref)::{lambda(fmt::v11::basic_appender<char>)#2})::{lambda(fmt::v11::basic_appender<char>(fmt::v11::basic_appender<char>))#1}::operator() const
PUBLIC m 1c4c68 0 fmt::v11::detail::write_int<char, fmt::v11::basic_appender<char>, fmt::v11::detail::write_int<char, fmt::v11::basic_appender<char>, unsigned __int128>(fmt::v11::basic_appender<char>, fmt::v11::detail::write_int_arg<unsigned __int128>, fmt::v11::format_specs const&, fmt::v11::detail::locale_ref)::{lambda(fmt::v11::basic_appender<char>)#3}>(fmt::v11::basic_appender<char>, int, unsigned int, fmt::v11::format_specs const&, fmt::v11::detail::write_int<char, fmt::v11::basic_appender<char>, unsigned __int128>(fmt::v11::basic_appender<char>, fmt::v11::detail::write_int_arg<unsigned __int128>, fmt::v11::format_specs const&, fmt::v11::detail::locale_ref)::{lambda(fmt::v11::basic_appender<char>)#3})::{lambda(fmt::v11::basic_appender<char>(fmt::v11::basic_appender<char>))#1}::operator() const
PUBLIC m 1c4e34 0 fmt::v11::detail::write_int<char, fmt::v11::basic_appender<char>, fmt::v11::detail::write_int<char, fmt::v11::basic_appender<char>, unsigned __int128>(fmt::v11::basic_appender<char>, fmt::v11::detail::write_int_arg<unsigned __int128>, fmt::v11::format_specs const&, fmt::v11::detail::locale_ref)::{lambda(fmt::v11::basic_appender<char>)#4}>(fmt::v11::basic_appender<char>, int, unsigned int, fmt::v11::format_specs const&, fmt::v11::detail::write_int<char, fmt::v11::basic_appender<char>, unsigned __int128>(fmt::v11::basic_appender<char>, fmt::v11::detail::write_int_arg<unsigned __int128>, fmt::v11::format_specs const&, fmt::v11::detail::locale_ref)::{lambda(fmt::v11::basic_appender<char>)#4})::{lambda(fmt::v11::basic_appender<char>(fmt::v11::basic_appender<char>))#1}::operator() const
PUBLIC m 1c500c 0 fmt::v11::detail::write<char, fmt::v11::basic_appender<char> >(fmt::v11::basic_appender<char>, char, fmt::v11::format_specs const&, fmt::v11::detail::locale_ref)
PUBLIC m 1c5144 0 fmt::v11::detail::write_float<char, fmt::v11::basic_appender<char>, float>(fmt::v11::basic_appender<char>, float, fmt::v11::format_specs, fmt::v11::detail::locale_ref)
PUBLIC m 1c54dc 0 _ZN3fmt3v116detail15format_hexfloatIdTnNSt6__ndk19enable_ifIXntsr16is_double_doubleIT_EE5valueEiE4typeELi0EEEvS5_NS0_12format_specsERNS1_6bufferIcEE
PUBLIC m 1c59fc 0 fmt::v11::detail::format_float<double>(double, int, fmt::v11::detail::float_specs, fmt::v11::detail::buffer<char>&)
PUBLIC m 1c61f4 0 _ZN3fmt3v116detail5writeIcNS0_14basic_appenderIcEEmTnNSt6__ndk19enable_ifIXaaaasr11is_integralIT1_EE5valuentsr3std7is_sameIS7_bEE5valuentsr3std7is_sameIS7_T_EE5valueEiE4typeELi0EEET0_SB_S7_
PUBLIC m 1c6400 0 fmt::v11::detail::write_float<char, fmt::v11::basic_appender<char>, double>(fmt::v11::basic_appender<char>, double, fmt::v11::format_specs, fmt::v11::detail::locale_ref)
PUBLIC m 1c678c 0 _ZN3fmt3v116detail10loc_writerIcEclIiTnNSt6__ndk19enable_ifIXsr10is_integerIT_EE5valueEiE4typeELi0EEEbS7_
PUBLIC m 1c69a4 0 _ZN3fmt3v116detail10loc_writerIcEclIjTnNSt6__ndk19enable_ifIXsr10is_integerIT_EE5valueEiE4typeELi0EEEbS7_
PUBLIC m 1c6b98 0 _ZN3fmt3v116detail10loc_writerIcEclIxTnNSt6__ndk19enable_ifIXsr10is_integerIT_EE5valueEiE4typeELi0EEEbS7_
PUBLIC m 1c6db0 0 _ZN3fmt3v116detail10loc_writerIcEclIyTnNSt6__ndk19enable_ifIXsr10is_integerIT_EE5valueEiE4typeELi0EEEbS7_
PUBLIC m 1c6fa4 0 _ZN3fmt3v116detail10loc_writerIcEclInTnNSt6__ndk19enable_ifIXsr10is_integerIT_EE5valueEiE4typeELi0EEEbS7_
PUBLIC m 1c71d0 0 _ZN3fmt3v116detail10loc_writerIcEclIoTnNSt6__ndk19enable_ifIXsr10is_integerIT_EE5valueEiE4typeELi0EEEbS7_
PUBLIC m 1c73d4 0 fmt::v11::detail::write_int<fmt::v11::basic_appender<char>, unsigned long, char>(fmt::v11::basic_appender<char>, unsigned long, unsigned int, fmt::v11::format_specs const&, fmt::v11::detail::digit_grouping<char> const&)
PUBLIC m 1c78d0 0 fmt::v11::detail::write_padded<char, (fmt::v11::align::type)2, fmt::v11::basic_appender<char>, fmt::v11::detail::write_int<fmt::v11::basic_appender<char>, unsigned long, char>(fmt::v11::basic_appender<char>, unsigned long, unsigned int, fmt::v11::format_specs const&, fmt::v11::detail::digit_grouping<char> const&)::{lambda(fmt::v11::basic_appender<char>)#1}>(fmt::v11::basic_appender<char>, fmt::v11::format_specs const&, unsigned long, unsigned long, fmt::v11::detail::write_int<fmt::v11::basic_appender<char>, unsigned long, char>(fmt::v11::basic_appender<char>, unsigned long, unsigned int, fmt::v11::format_specs const&, fmt::v11::detail::digit_grouping<char> const&)::{lambda(fmt::v11::basic_appender<char>&&)#1})
PUBLIC m 1c79ec 0 fmt::v11::detail::write_int<fmt::v11::basic_appender<char>, unsigned __int128, char>(fmt::v11::basic_appender<char>, unsigned __int128, unsigned int, fmt::v11::format_specs const&, fmt::v11::detail::digit_grouping<char> const&)
PUBLIC m 1c8018 0 fmt::v11::detail::write_padded<char, (fmt::v11::align::type)2, fmt::v11::basic_appender<char>, fmt::v11::detail::write_int<fmt::v11::basic_appender<char>, unsigned __int128, char>(fmt::v11::basic_appender<char>, unsigned __int128, unsigned int, fmt::v11::format_specs const&, fmt::v11::detail::digit_grouping<char> const&)::{lambda(fmt::v11::basic_appender<char>)#1}>(fmt::v11::basic_appender<char>, fmt::v11::format_specs const&, unsigned long, unsigned long, fmt::v11::detail::write_int<fmt::v11::basic_appender<char>, unsigned __int128, char>(fmt::v11::basic_appender<char>, unsigned __int128, unsigned int, fmt::v11::format_specs const&, fmt::v11::detail::digit_grouping<char> const&)::{lambda(fmt::v11::basic_appender<char>&&)#1})
PUBLIC 1c8134 0 __CortexA53843419_12C000
PUBLIC 1c8140 0 <.plt ELF section in geode.devtools.android64.so>
STACK CFI INIT 711e0 10 .cfa: sp 0 +
STACK CFI INIT 711f0 8 .cfa: sp 0 +
STACK CFI INIT 711f8 8 .cfa: sp 0 +
STACK CFI INIT 71200 14 .cfa: sp 0 +
STACK CFI INIT 71214 1c .cfa: sp 0 +
STACK CFI INIT 71230 10 .cfa: sp 0 +
STACK CFI INIT 71240 30 .cfa: sp 0 +
STACK CFI INIT 71270 98 .cfa: sp 0 +
STACK CFI INIT 71308 59c .cfa: sp 0 +
STACK CFI INIT 718a4 8c .cfa: sp 0 +
STACK CFI INIT 71930 30 .cfa: sp 0 +
STACK CFI INIT 71c84 9c .cfa: sp 0 +
STACK CFI 71c88 .cfa: sp 96 +
STACK CFI 71c98 .cfa: x29 48 + x19: .cfa -8 + ^ x20: .cfa -16 + ^ x21: .cfa -32 + ^ .ra: .cfa -40 + ^ x29: .cfa -48 + ^
STACK CFI 71d08 .cfa: sp 96 +
STACK CFI 71d18 .cfa: sp 0 +
STACK CFI 71d1c .cfa: x29 48 +
STACK CFI INIT 7239c a8 .cfa: sp 0 +
STACK CFI 723a0 .cfa: sp 96 +
STACK CFI 723b0 .cfa: x29 48 + x19: .cfa -8 + ^ x20: .cfa -16 + ^ x21: .cfa -32 + ^ .ra: .cfa -40 + ^ x29: .cfa -48 + ^
STACK CFI 723f0 .cfa: sp 96 +
STACK CFI 72400 .cfa: sp 0 +
STACK CFI 72404 .cfa: x29 48 +
STACK CFI INIT 72960 18 .cfa: sp 0 +
STACK CFI INIT 72978 8 .cfa: sp 0 +
STACK CFI INIT 72980 8 .cfa: sp 0 +
STACK CFI INIT 72988 8 .cfa: sp 0 +
STACK CFI INIT 72990 8 .cfa: sp 0 +
STACK CFI INIT 72998 44 .cfa: sp 0 +
STACK CFI 7299c .cfa: sp 32 +
STACK CFI 729a4 .cfa: x29 32 + x19: .cfa -8 + ^ x20: .cfa -16 + ^ .ra: .cfa -24 + ^ x29: .cfa -32 + ^
STACK CFI 729c4 .cfa: sp 32 +
STACK CFI 729cc .cfa: sp 0 +
STACK CFI 729d0 .cfa: sp 32 +
STACK CFI 729d8 .cfa: sp 0 +
STACK CFI INIT 729dc 110 .cfa: sp 0 +
STACK CFI 729e0 .cfa: sp 80 +
STACK CFI 729f4 .cfa: x29 80 + x19: .cfa -8 + ^ x20: .cfa -16 + ^ x21: .cfa -24 + ^ x22: .cfa -32 + ^ x23: .cfa -40 + ^ x24: .cfa -48 + ^ x25: .cfa -64 + ^ .ra: .cfa -72 + ^ x29: .cfa -80 + ^
STACK CFI 72ac8 .cfa: sp 80 +
STACK CFI 72adc .cfa: sp 0 +
STACK CFI 72ae0 .cfa: x29 80 +
STACK CFI INIT 72aec 54 .cfa: sp 0 +
STACK CFI 72af0 .cfa: sp 48 +
STACK CFI 72afc .cfa: x29 48 + x19: .cfa -8 + ^ x20: .cfa -16 + ^ x21: .cfa -32 + ^ .ra: .cfa -40 + ^ x29: .cfa -48 + ^
STACK CFI 72b30 .cfa: sp 48 +
STACK CFI 72b3c .cfa: sp 0 +
STACK CFI INIT 7312c e4 .cfa: sp 0 +
STACK CFI 73138 .cfa: sp 48 +
STACK CFI 73144 .cfa: x29 48 + x19: .cfa -8 + ^ x20: .cfa -16 + ^ x21: .cfa -32 + ^ .ra: .cfa -40 + ^ x29: .cfa -48 + ^
STACK CFI 731c0 .cfa: sp 48 +
STACK CFI 731cc .cfa: sp 0 +
STACK CFI 731d4 .cfa: x29 48 +
STACK CFI 73200 .cfa: sp 48 +
STACK CFI 7320c .cfa: sp 0 +
STACK CFI INIT 73210 54 .cfa: sp 0 +
STACK CFI 73214 .cfa: sp 32 +
STACK CFI 7321c .cfa: x29 32 + x19: .cfa -16 + ^ .ra: .cfa -24 + ^ x29: .cfa -32 + ^
STACK CFI 73234 .cfa: sp 32 +
STACK CFI 7323c .cfa: sp 0 +
STACK CFI 73240 .cfa: x29 32 +
STACK CFI 73258 .cfa: sp 32 +
STACK CFI 73260 .cfa: sp 0 +
STACK CFI INIT 73264 844 .cfa: sp 0 +
STACK CFI 73268 .cfa: sp 448 +
STACK CFI 73288 .cfa: x29 96 + x19: .cfa -8 + ^ x20: .cfa -16 + ^ x21: .cfa -24 + ^ x22: .cfa -32 + ^ x23: .cfa -40 + ^ x24: .cfa -48 + ^ x25: .cfa -56 + ^ x26: .cfa -64 + ^ x27: .cfa -72 + ^ x28: .cfa -80 + ^ .ra: .cfa -88 + ^ x29: .cfa -96 + ^ v8: .cfa -104 + ^ v9: .cfa -112 + ^
STACK CFI 73a54 .cfa: sp 448 +
STACK CFI 73a74 .cfa: sp 0 +
STACK CFI 73a78 .cfa: x29 96 +
STACK CFI INIT 73aa8 158 .cfa: sp 0 +
STACK CFI 73ab8 .cfa: sp 48 +
STACK CFI 73ac4 .cfa: x29 48 + x19: .cfa -8 + ^ x20: .cfa -16 + ^ x21: .cfa -24 + ^ x22: .cfa -32 + ^ .ra: .cfa -40 + ^ x29: .cfa -48 + ^
STACK CFI 73bf0 .cfa: sp 48 +
STACK CFI 73bfc .cfa: sp 0 +
STACK CFI INIT 73c00 10 .cfa: sp 0 +
STACK CFI INIT 73c10 8 .cfa: sp 0 +
STACK CFI INIT 73c18 28 .cfa: sp 0 +
STACK CFI INIT 73c40 2c .cfa: sp 0 +
STACK CFI 73c44 .cfa: sp 32 +
STACK CFI 73c4c .cfa: x29 32 + x19: .cfa -16 + ^ .ra: .cfa -24 + ^ x29: .cfa -32 + ^
STACK CFI 73c60 .cfa: sp 32 +
STACK CFI 73c68 .cfa: sp 0 +
STACK CFI INIT 73dc0 14 .cfa: sp 0 +
STACK CFI 73dc4 .cfa: sp 16 +
STACK CFI 73dc8 .cfa: x29 16 + .ra: .cfa -8 + ^ x29: .cfa -16 + ^
STACK CFI INIT 73e24 30 .cfa: sp 0 +
STACK CFI 73e28 .cfa: sp 32 +
STACK CFI 73e30 .cfa: x29 32 + x19: .cfa -16 + ^ .ra: .cfa -24 + ^ x29: .cfa -32 + ^
STACK CFI 73e48 .cfa: sp 32 +
STACK CFI 73e50 .cfa: sp 0 +
STACK CFI INIT 73e54 34 .cfa: sp 0 +
STACK CFI 73e58 .cfa: sp 32 +
STACK CFI 73e60 .cfa: x29 32 + x19: .cfa -16 + ^ .ra: .cfa -24 + ^ x29: .cfa -32 + ^
STACK CFI INIT 73e88 10 .cfa: sp 0 +
STACK CFI 73e8c .cfa: sp 16 +
STACK CFI 73e90 .cfa: x29 16 + .ra: .cfa -8 + ^ x29: .cfa -16 + ^
STACK CFI INIT 73e98 14 .cfa: sp 0 +
STACK CFI 73e9c .cfa: sp 16 +
STACK CFI 73ea0 .cfa: x29 16 + .ra: .cfa -8 + ^ x29: .cfa -16 + ^
STACK CFI INIT 73eac 4 .cfa: sp 0 +
STACK CFI INIT 74024 60 .cfa: sp 0 +
STACK CFI 74028 .cfa: sp 32 +
STACK CFI 74030 .cfa: x29 32 + x19: .cfa -16 + ^ .ra: .cfa -24 + ^ x29: .cfa -32 + ^
STACK CFI 74078 .cfa: sp 32 +
STACK CFI 74080 .cfa: sp 0 +
STACK CFI INIT 74084 68 .cfa: sp 0 +
STACK CFI 74088 .cfa: sp 32 +
STACK CFI 74090 .cfa: x29 32 + x19: .cfa -16 + ^ .ra: .cfa -24 + ^ x29: .cfa -32 + ^
STACK CFI 740e0 .cfa: sp 32 +
STACK CFI 740e8 .cfa: sp 0 +
STACK CFI INIT 740ec 4 .cfa: sp 0 +
STACK CFI INIT 740f0 4 .cfa: sp 0 +
STACK CFI INIT 740f4 38 .cfa: sp 0 +
STACK CFI 740f8 .cfa: sp 32 +
STACK CFI 74100 .cfa: x29 32 + x19: .cfa -16 + ^ .ra: .cfa -24 + ^ x29: .cfa -32 + ^
STACK CFI 74120 .cfa: sp 32 +
STACK CFI 74128 .cfa: sp 0 +
STACK CFI INIT 7412c 18 .cfa: sp 0 +
STACK CFI INIT 74144 4 .cfa: sp 0 +
STACK CFI INIT 74148 4 .cfa: sp 0 +
STACK CFI INIT 7414c 10 .cfa: sp 0 +
STACK CFI INIT 7415c 1c .cfa: sp 0 +
STACK CFI INIT 74178 c .cfa: sp 0 +
STACK CFI INIT 74184 104 .cfa: sp 0 +
STACK CFI 74188 .cfa: sp 64 +
STACK CFI 74198 .cfa: x29 64 + x19: .cfa -8 + ^ x20: .cfa -16 + ^ x21: .cfa -24 + ^ x22: .cfa -32 + ^ x23: .cfa -48 + ^ .ra: .cfa -56 + ^ x29: .cfa -64 + ^
STACK CFI 741f4 .cfa: sp 64 +
STACK CFI 74204 .cfa: sp 0 +
STACK CFI 74208 .cfa: x29 64 +
STACK CFI 74224 .cfa: sp 64 +
STACK CFI 74234 .cfa: sp 0 +
STACK CFI 74238 .cfa: x29 64 +
STACK CFI 74274 .cfa: sp 64 +
STACK CFI 74284 .cfa: sp 0 +
STACK CFI INIT 743e4 34 .cfa: sp 0 +
STACK CFI 743e8 .cfa: sp 16 +
STACK CFI 743ec .cfa: x29 16 + .ra: .cfa -8 + ^ x29: .cfa -16 + ^
STACK CFI INIT 74418 14 .cfa: sp 0 +
STACK CFI INIT 7442c 14 .cfa: sp 0 +
STACK CFI INIT 74440 4 .cfa: sp 0 +
STACK CFI INIT 74444 14 .cfa: sp 0 +
STACK CFI INIT 74458 80 .cfa: sp 0 +
STACK CFI 7445c .cfa: sp 48 +
STACK CFI 74468 .cfa: x29 48 + x19: .cfa -8 + ^ x20: .cfa -16 + ^ x21: .cfa -24 + ^ x22: .cfa -32 + ^ .ra: .cfa -40 + ^ x29: .cfa -48 + ^
STACK CFI 74480 .cfa: sp 48 +
STACK CFI 7448c .cfa: sp 0 +
STACK CFI 74490 .cfa: x29 48 +
STACK CFI 744c0 .cfa: sp 48 +
STACK CFI 744cc .cfa: sp 0 +
STACK CFI 744d0 .cfa: x29 48 +
STACK CFI INIT 744d8 4 .cfa: sp 0 +
STACK CFI INIT 744dc 14 .cfa: sp 0 +
STACK CFI INIT 744f0 14 .cfa: sp 0 +
STACK CFI INIT 74504 14 .cfa: sp 0 +
STACK CFI INIT 74918 3c .cfa: sp 0 +
STACK CFI 7491c .cfa: sp 32 +
STACK CFI 74924 .cfa: x29 32 + x19: .cfa -16 + ^ .ra: .cfa -24 + ^ x29: .cfa -32 + ^
STACK CFI 74938 .cfa: sp 32 +
STACK CFI 74940 .cfa: sp 0 +
STACK CFI 74944 .cfa: x29 32 +
STACK CFI 74948 .cfa: sp 32 +
STACK CFI 74950 .cfa: sp 0 +
STACK CFI INIT 74954 68 .cfa: sp 0 +
STACK CFI 74958 .cfa: sp 48 +
STACK CFI 74964 .cfa: x29 48 + x19: .cfa -8 + ^ x20: .cfa -16 + ^ x21: .cfa -32 + ^ .ra: .cfa -40 + ^ x29: .cfa -48 + ^
STACK CFI 7499c .cfa: sp 48 +
STACK CFI 749a8 .cfa: sp 0 +
STACK CFI 749ac .cfa: sp 48 +
STACK CFI 749b8 .cfa: sp 0 +
STACK CFI INIT 74b7c 54 .cfa: sp 0 +
STACK CFI 74b80 .cfa: sp 32 +
STACK CFI 74b88 .cfa: x29 32 + x19: .cfa -8 + ^ x20: .cfa -16 + ^ .ra: .cfa -24 + ^ x29: .cfa -32 + ^
STACK CFI 74bb8 .cfa: sp 32 +
STACK CFI 74bc0 .cfa: sp 0 +
STACK CFI 74bc4 .cfa: sp 32 +
STACK CFI 74bcc .cfa: sp 0 +
STACK CFI INIT 74bd0 14 .cfa: sp 0 +
STACK CFI 74bd4 .cfa: sp 16 +
STACK CFI 74bd8 .cfa: x29 16 + .ra: .cfa -8 + ^ x29: .cfa -16 + ^
STACK CFI INIT 75258 3c .cfa: sp 0 +
STACK CFI 7525c .cfa: sp 32 +
STACK CFI 75264 .cfa: x29 32 + x19: .cfa -16 + ^ .ra: .cfa -24 + ^ x29: .cfa -32 + ^
STACK CFI 75270 .cfa: sp 32 +
STACK CFI 75278 .cfa: sp 0 +
STACK CFI 7527c .cfa: x29 32 +
STACK CFI 75288 .cfa: sp 32 +
STACK CFI 75290 .cfa: sp 0 +
STACK CFI INIT 752e4 100 .cfa: sp 0 +
STACK CFI 752e8 .cfa: sp 48 +
STACK CFI 752f4 .cfa: x29 48 + x19: .cfa -8 + ^ x20: .cfa -16 + ^ x21: .cfa -32 + ^ .ra: .cfa -40 + ^ x29: .cfa -48 + ^
STACK CFI 753d0 .cfa: sp 48 +
STACK CFI 753dc .cfa: sp 0 +
STACK CFI 753e0 .cfa: x29 48 +
STACK CFI INIT 753e4 14 .cfa: sp 0 +
STACK CFI INIT 753f8 e8 .cfa: sp 0 +
STACK CFI 753fc .cfa: sp 64 +
STACK CFI 7540c .cfa: x29 48 + x19: .cfa -8 + ^ x20: .cfa -16 + ^ x21: .cfa -24 + ^ x22: .cfa -32 + ^ .ra: .cfa -40 + ^ x29: .cfa -48 + ^
STACK CFI 754c8 .cfa: sp 64 +
STACK CFI 754d8 .cfa: sp 0 +
STACK CFI 754dc .cfa: x29 48 +
STACK CFI INIT 75a38 1b8 .cfa: sp 0 +
STACK CFI 75a3c .cfa: sp 128 +
STACK CFI 75a58 .cfa: x29 96 + x19: .cfa -8 + ^ x20: .cfa -16 + ^ x21: .cfa -24 + ^ x22: .cfa -32 + ^ x23: .cfa -40 + ^ x24: .cfa -48 + ^ x25: .cfa -56 + ^ x26: .cfa -64 + ^ x27: .cfa -80 + ^ .ra: .cfa -88 + ^ x29: .cfa -96 + ^
STACK CFI 75b60 .cfa: sp 128 +
STACK CFI 75b7c .cfa: sp 0 +
STACK CFI 75b80 .cfa: x29 96 +
STACK CFI INIT 75bf0 9c .cfa: sp 0 +
STACK CFI 75bf4 .cfa: sp 48 +
STACK CFI 75c00 .cfa: x29 48 + x19: .cfa -8 + ^ x20: .cfa -16 + ^ x21: .cfa -24 + ^ x22: .cfa -32 + ^ .ra: .cfa -40 + ^ x29: .cfa -48 + ^
STACK CFI 75c34 .cfa: sp 48 +
STACK CFI 75c40 .cfa: sp 0 +
STACK CFI 75c44 .cfa: x29 48 +
STACK CFI 75c74 .cfa: sp 48 +
STACK CFI 75c80 .cfa: sp 0 +
STACK CFI 75c84 .cfa: x29 48 +
STACK CFI INIT 75c8c 4a0 .cfa: sp 0 +
STACK CFI 75c90 .cfa: sp 464 +
STACK CFI 75cbc .cfa: x29 96 + x19: .cfa -8 + ^ x20: .cfa -16 + ^ x21: .cfa -24 + ^ x22: .cfa -32 + ^ x23: .cfa -40 + ^ x24: .cfa -48 + ^ x25: .cfa -56 + ^ x26: .cfa -64 + ^ x27: .cfa -72 + ^ x28: .cfa -80 + ^ .ra: .cfa -88 + ^ x29: .cfa -96 + ^ v8: .cfa -104 + ^ v9: .cfa -112 + ^ v10: .cfa -120 + ^ v11: .cfa -128 + ^ v12: .cfa -136 + ^ v13: .cfa -144 + ^ v14: .cfa -160 + ^
STACK CFI 760f8 .cfa: sp 464 +
STACK CFI 76124 .cfa: sp 0 +
STACK CFI 76128 .cfa: x29 96 +
STACK CFI INIT 76de0 1c .cfa: sp 0 +
STACK CFI INIT 76dfc 1c .cfa: sp 0 +
STACK CFI INIT 76e18 1c .cfa: sp 0 +
STACK CFI INIT 76e34 e8 .cfa: sp 0 +
STACK CFI 76e38 .cfa: sp 32 +
STACK CFI 76e40 .cfa: x29 32 + x19: .cfa -8 + ^ x20: .cfa -16 + ^ .ra: .cfa -24 + ^ x29: .cfa -32 + ^
STACK CFI 76e80 .cfa: sp 32 +
STACK CFI 76e88 .cfa: sp 0 +
STACK CFI 76e8c .cfa: x29 32 +
STACK CFI 76ec8 .cfa: sp 32 +
STACK CFI 76ed0 .cfa: sp 0 +
STACK CFI 76ed4 .cfa: x29 32 +
STACK CFI 76ef4 .cfa: sp 32 +
STACK CFI 76efc .cfa: sp 0 +
STACK CFI 76f00 .cfa: x29 32 +
STACK CFI 76f10 .cfa: sp 32 +
STACK CFI 76f18 .cfa: sp 0 +
STACK CFI INIT 76f1c ac .cfa: sp 0 +
STACK CFI 76f20 .cfa: sp 64 +
STACK CFI 76f30 .cfa: x29 64 + x19: .cfa -8 + ^ x20: .cfa -16 + ^ x21: .cfa -24 + ^ x22: .cfa -32 + ^ x23: .cfa -48 + ^ .ra: .cfa -56 + ^ x29: .cfa -64 + ^
STACK CFI 76fac .cfa: sp 64 +
STACK CFI 76fbc .cfa: sp 0 +
STACK CFI 76fc0 .cfa: x29 64 +
STACK CFI INIT 76fc8 110 .cfa: sp 0 +
STACK CFI 76fcc .cfa: sp 64 +
STACK CFI 76fdc .cfa: x29 64 + x19: .cfa -8 + ^ x20: .cfa -16 + ^ x21: .cfa -24 + ^ x22: .cfa -32 + ^ x23: .cfa -40 + ^ x24: .cfa -48 + ^ .ra: .cfa -56 + ^ x29: .cfa -64 + ^
STACK CFI 770bc .cfa: sp 64 +
STACK CFI 770cc .cfa: sp 0 +
STACK CFI 770d0 .cfa: x29 64 +
STACK CFI INIT 770d8 14 .cfa: sp 0 +
STACK CFI 770dc .cfa: sp 16 +
STACK CFI 770e0 .cfa: x29 16 + .ra: .cfa -8 + ^ x29: .cfa -16 + ^
STACK CFI INIT 777c0 50 .cfa: sp 0 +
STACK CFI 777c4 .cfa: sp 32 +
STACK CFI 777cc .cfa: x29 32 + x19: .cfa -16 + ^ .ra: .cfa -24 + ^ x29: .cfa -32 + ^
STACK CFI 777e4 .cfa: sp 32 +
STACK CFI 777ec .cfa: sp 0 +
STACK CFI 777f0 .cfa: x29 32 +
STACK CFI 77804 .cfa: sp 32 +
STACK CFI 7780c .cfa: sp 0 +
STACK CFI INIT 77884 7c .cfa: sp 0 +
STACK CFI 77888 .cfa: sp 48 +
STACK CFI 77894 .cfa: x29 48 + x19: .cfa -8 + ^ x20: .cfa -16 + ^ x21: .cfa -32 + ^ .ra: .cfa -40 + ^ x29: .cfa -48 + ^
STACK CFI 778e0 .cfa: sp 48 +
STACK CFI 778ec .cfa: sp 0 +
STACK CFI 778f0 .cfa: sp 48 +
STACK CFI 778fc .cfa: sp 0 +
STACK CFI INIT 77900 4 .cfa: sp 0 +
STACK CFI INIT 77b84 80 .cfa: sp 0 +
STACK CFI 77b88 .cfa: sp 48 +
STACK CFI 77b94 .cfa: x29 48 + x19: .cfa -8 + ^ x20: .cfa -16 + ^ x21: .cfa -32 + ^ .ra: .cfa -40 + ^ x29: .cfa -48 + ^
STACK CFI 77bf4 .cfa: sp 48 +
STACK CFI 77c00 .cfa: sp 0 +
STACK CFI INIT 77c04 24 .cfa: sp 0 +
STACK CFI 77c08 .cfa: sp 32 +
STACK CFI 77c10 .cfa: x29 32 + x19: .cfa -16 + ^ .ra: .cfa -24 + ^ x29: .cfa -32 + ^
STACK CFI 77c1c .cfa: sp 32 +
STACK CFI 77c24 .cfa: sp 0 +
STACK CFI INIT 78120 148 .cfa: sp 0 +
STACK CFI 78124 .cfa: sp 48 +
STACK CFI 78130 .cfa: x29 48 + x19: .cfa -8 + ^ x20: .cfa -16 + ^ x21: .cfa -32 + ^ .ra: .cfa -40 + ^ x29: .cfa -48 + ^
STACK CFI 78258 .cfa: sp 48 +
STACK CFI 78264 .cfa: sp 0 +
STACK CFI INIT 78490 68 .cfa: sp 0 +
STACK CFI 78494 .cfa: sp 32 +
STACK CFI 7849c .cfa: x29 32 + x19: .cfa -8 + ^ x20: .cfa -16 + ^ .ra: .cfa -24 + ^ x29: .cfa -32 + ^
STACK CFI 784b4 .cfa: sp 32 +
STACK CFI 784bc .cfa: sp 0 +
STACK CFI 784c0 .cfa: x29 32 +
STACK CFI 784ec .cfa: sp 32 +
STACK CFI 784f4 .cfa: sp 0 +
STACK CFI INIT 784f8 14 .cfa: sp 0 +
STACK CFI 784fc .cfa: sp 16 +
STACK CFI 78500 .cfa: x29 16 + .ra: .cfa -8 + ^ x29: .cfa -16 + ^
STACK CFI INIT 7850c 4 .cfa: sp 0 +
STACK CFI INIT 78510 14 .cfa: sp 0 +
STACK CFI INIT 78524 120 .cfa: sp 0 +
STACK CFI 78528 .cfa: sp 64 +
STACK CFI 78538 .cfa: x29 64 + x19: .cfa -8 + ^ x20: .cfa -16 + ^ x21: .cfa -24 + ^ x22: .cfa -32 + ^ x23: .cfa -40 + ^ x24: .cfa -48 + ^ .ra: .cfa -56 + ^ x29: .cfa -64 + ^
STACK CFI 78630 .cfa: sp 64 +
STACK CFI 78640 .cfa: sp 0 +
STACK CFI INIT 78644 d4 .cfa: sp 0 +
STACK CFI 78648 .cfa: sp 48 +
STACK CFI 78654 .cfa: x29 48 + x19: .cfa -8 + ^ x20: .cfa -16 + ^ x21: .cfa -32 + ^ .ra: .cfa -40 + ^ x29: .cfa -48 + ^
STACK CFI 786e4 .cfa: sp 48 +
STACK CFI 786f0 .cfa: sp 0 +
STACK CFI 786f4 .cfa: x29 48 +
STACK CFI INIT 78718 3c8 .cfa: sp 0 +
STACK CFI INIT 78ae0 8c .cfa: sp 0 +
STACK CFI 78ae8 .cfa: sp 32 +
STACK CFI 78af0 .cfa: x29 32 + x19: .cfa -8 + ^ x20: .cfa -16 + ^ .ra: .cfa -24 + ^ x29: .cfa -32 + ^
STACK CFI 78b38 .cfa: sp 32 +
STACK CFI 78b40 .cfa: sp 0 +
STACK CFI 78b48 .cfa: x29 32 +
STACK CFI INIT 78d38 50 .cfa: sp 0 +
STACK CFI 78d3c .cfa: sp 32 +
STACK CFI 78d44 .cfa: x29 32 + x19: .cfa -16 + ^ .ra: .cfa -24 + ^ x29: .cfa -32 + ^
STACK CFI 78d5c .cfa: sp 32 +
STACK CFI 78d64 .cfa: sp 0 +
STACK CFI 78d68 .cfa: x29 32 +
STACK CFI 78d7c .cfa: sp 32 +
STACK CFI 78d84 .cfa: sp 0 +
STACK CFI INIT 78d88 64 .cfa: sp 0 +
STACK CFI 78d8c .cfa: sp 32 +
STACK CFI 78d94 .cfa: x29 32 + x19: .cfa -16 + ^ .ra: .cfa -24 + ^ x29: .cfa -32 + ^
STACK CFI 78dc0 .cfa: sp 32 +
STACK CFI 78dc8 .cfa: sp 0 +
STACK CFI 78dcc .cfa: x29 32 +
STACK CFI 78de0 .cfa: sp 32 +
STACK CFI 78de8 .cfa: sp 0 +
STACK CFI INIT 78dec 178 .cfa: sp 0 +
STACK CFI 78df0 .cfa: sp 80 +
STACK CFI 78e04 .cfa: x29 80 + x19: .cfa -8 + ^ x20: .cfa -16 + ^ x21: .cfa -24 + ^ x22: .cfa -32 + ^ x23: .cfa -40 + ^ x24: .cfa -48 + ^ x25: .cfa -56 + ^ x26: .cfa -64 + ^ .ra: .cfa -72 + ^ x29: .cfa -80 + ^
STACK CFI 78f4c .cfa: sp 80 +
STACK CFI 78f60 .cfa: sp 0 +
STACK CFI INIT 78f64 1b0 .cfa: sp 0 +
STACK CFI INIT 794f4 4 .cfa: sp 0 +
STACK CFI INIT 79fd0 4 .cfa: sp 0 +
STACK CFI INIT 79fd4 84 .cfa: sp 0 +
STACK CFI 79fd8 .cfa: sp 32 +
STACK CFI 79fe0 .cfa: x29 32 + x19: .cfa -8 + ^ x20: .cfa -16 + ^ .ra: .cfa -24 + ^ x29: .cfa -32 + ^
STACK CFI 7a040 .cfa: sp 32 +
STACK CFI 7a048 .cfa: sp 0 +
STACK CFI 7a04c .cfa: sp 32 +
STACK CFI 7a054 .cfa: sp 0 +
STACK CFI INIT 7b6cc 1c .cfa: sp 0 +
STACK CFI INIT 7b6e8 1c .cfa: sp 0 +
STACK CFI INIT 7b704 1c .cfa: sp 0 +
STACK CFI INIT 7b720 1c .cfa: sp 0 +
STACK CFI INIT 7b73c 1c .cfa: sp 0 +
STACK CFI INIT 7ba84 4 .cfa: sp 0 +
STACK CFI INIT 7bc68 8 .cfa: sp 0 +
STACK CFI INIT 7c05c 4 .cfa: sp 0 +
STACK CFI INIT 7c4b0 4 .cfa: sp 0 +
STACK CFI INIT 7cb9c 4 .cfa: sp 0 +
STACK CFI INIT 7d414 4 .cfa: sp 0 +
STACK CFI INIT 7d71c 158 .cfa: sp 0 +
STACK CFI 7d720 .cfa: sp 64 +
STACK CFI 7d734 .cfa: x29 56 + x19: .cfa -8 + ^ x20: .cfa -16 + ^ x21: .cfa -24 + ^ x22: .cfa -32 + ^ x23: .cfa -40 + ^ .ra: .cfa -48 + ^ x29: .cfa -56 + ^ v8: .cfa -64 + ^
STACK CFI 7d85c .cfa: sp 64 +
STACK CFI 7d870 .cfa: sp 0 +
STACK CFI INIT 7dc4c 7c .cfa: sp 0 +
STACK CFI 7dc50 .cfa: sp 48 +
STACK CFI 7dc5c .cfa: x29 48 + x19: .cfa -8 + ^ x20: .cfa -16 + ^ x21: .cfa -32 + ^ .ra: .cfa -40 + ^ x29: .cfa -48 + ^
STACK CFI 7dca8 .cfa: sp 48 +
STACK CFI 7dcb4 .cfa: sp 0 +
STACK CFI 7dcb8 .cfa: sp 48 +
STACK CFI 7dcc4 .cfa: sp 0 +
STACK CFI INIT 7f148 54 .cfa: sp 0 +
STACK CFI 7f164 .cfa: sp 32 +
STACK CFI 7f16c .cfa: x29 32 + x19: .cfa -16 + ^ .ra: .cfa -24 + ^ x29: .cfa -32 + ^
STACK CFI 7f180 .cfa: sp 32 +
STACK CFI 7f188 .cfa: sp 0 +
STACK CFI INIT 7f19c 7c .cfa: sp 0 +
STACK CFI 7f1a0 .cfa: sp 48 +
STACK CFI 7f1ac .cfa: x29 48 + x19: .cfa -8 + ^ x20: .cfa -16 + ^ x21: .cfa -32 + ^ .ra: .cfa -40 + ^ x29: .cfa -48 + ^
STACK CFI 7f1f8 .cfa: sp 48 +
STACK CFI 7f204 .cfa: sp 0 +
STACK CFI 7f208 .cfa: sp 48 +
STACK CFI 7f214 .cfa: sp 0 +
STACK CFI INIT 7f218 4c .cfa: sp 0 +
STACK CFI 7f22c .cfa: sp 32 +
STACK CFI 7f234 .cfa: x29 32 + x19: .cfa -16 + ^ .ra: .cfa -24 + ^ x29: .cfa -32 + ^
STACK CFI 7f248 .cfa: sp 32 +
STACK CFI 7f250 .cfa: sp 0 +
STACK CFI INIT 817a0 18 .cfa: sp 0 +
STACK CFI INIT 817b8 34 .cfa: sp 0 +
STACK CFI 817bc .cfa: sp 16 +
STACK CFI 817c0 .cfa: x29 16 + .ra: .cfa -8 + ^ x29: .cfa -16 + ^
STACK CFI INIT 817ec 78 .cfa: sp 0 +
STACK CFI 817f0 .cfa: sp 48 +
STACK CFI 817fc .cfa: x29 48 + x19: .cfa -8 + ^ x20: .cfa -16 + ^ x21: .cfa -24 + ^ x22: .cfa -32 + ^ .ra: .cfa -40 + ^ x29: .cfa -48 + ^
STACK CFI 81844 .cfa: sp 48 +
STACK CFI 81850 .cfa: sp 0 +
STACK CFI 81854 .cfa: sp 48 +
STACK CFI 81860 .cfa: sp 0 +
STACK CFI INIT 81864 220 .cfa: sp 0 +
STACK CFI 81868 .cfa: sp 128 +
STACK CFI 81884 .cfa: x29 96 + x19: .cfa -8 + ^ x20: .cfa -16 + ^ x21: .cfa -24 + ^ x22: .cfa -32 + ^ x23: .cfa -40 + ^ x24: .cfa -48 + ^ x25: .cfa -56 + ^ x26: .cfa -64 + ^ x27: .cfa -80 + ^ .ra: .cfa -88 + ^ x29: .cfa -96 + ^
STACK CFI 81a08 .cfa: sp 128 +
STACK CFI 81a24 .cfa: sp 0 +
STACK CFI 81a28 .cfa: x29 96 +
STACK CFI INIT 81a84 1d0 .cfa: sp 0 +
STACK CFI 81a88 .cfa: sp 80 +
STACK CFI 81a9c .cfa: x29 80 + x19: .cfa -8 + ^ x20: .cfa -16 + ^ x21: .cfa -24 + ^ x22: .cfa -32 + ^ x23: .cfa -40 + ^ x24: .cfa -48 + ^ x25: .cfa -64 + ^ .ra: .cfa -72 + ^ x29: .cfa -80 + ^
STACK CFI 81c3c .cfa: sp 80 +
STACK CFI 81c50 .cfa: sp 0 +
STACK CFI INIT 81c54 150 .cfa: sp 0 +
STACK CFI 81c58 .cfa: sp 48 +
STACK CFI 81c64 .cfa: x29 48 + x19: .cfa -8 + ^ x20: .cfa -16 + ^ x21: .cfa -24 + ^ x22: .cfa -32 + ^ .ra: .cfa -40 + ^ x29: .cfa -48 + ^
STACK CFI 81d94 .cfa: sp 48 +
STACK CFI 81da0 .cfa: sp 0 +
STACK CFI INIT 81da4 2c4 .cfa: sp 0 +
STACK CFI 81da8 .cfa: sp 112 +
STACK CFI 81dc4 .cfa: x29 80 + x19: .cfa -8 + ^ x20: .cfa -16 + ^ x21: .cfa -24 + ^ x22: .cfa -32 + ^ x23: .cfa -40 + ^ x24: .cfa -48 + ^ x25: .cfa -56 + ^ x26: .cfa -64 + ^ .ra: .cfa -72 + ^ x29: .cfa -80 + ^ v8: .cfa -88 + ^ v9: .cfa -96 + ^
STACK CFI 82044 .cfa: sp 112 +
STACK CFI 82060 .cfa: sp 0 +
STACK CFI 82064 .cfa: x29 80 +
STACK CFI INIT 82068 160 .cfa: sp 0 +
STACK CFI 8206c .cfa: sp 112 +
STACK CFI 82088 .cfa: x29 40 + x19: .cfa -8 + ^ x20: .cfa -16 + ^ x21: .cfa -24 + ^ .ra: .cfa -32 + ^ x29: .cfa -40 + ^ v8: .cfa -48 + ^ v9: .cfa -56 + ^ v10: .cfa -64 + ^ v11: .cfa -72 + ^ v12: .cfa -80 + ^
STACK CFI 821a4 .cfa: sp 112 +
STACK CFI 821c0 .cfa: sp 0 +
STACK CFI 821c4 .cfa: x29 40 +
STACK CFI INIT 821c8 150 .cfa: sp 0 +
STACK CFI 821cc .cfa: sp 96 +
STACK CFI 821e4 .cfa: x29 40 + x19: .cfa -8 + ^ x20: .cfa -16 + ^ x21: .cfa -24 + ^ .ra: .cfa -32 + ^ x29: .cfa -40 + ^ v8: .cfa -48 + ^ v9: .cfa -56 + ^ v10: .cfa -64 + ^
STACK CFI 822f8 .cfa: sp 96 +
STACK CFI 82310 .cfa: sp 0 +
STACK CFI 82314 .cfa: x29 40 +
STACK CFI INIT 82318 4b8 .cfa: sp 0 +
STACK CFI 8231c .cfa: sp 224 +
STACK CFI 82338 .cfa: x29 64 + x19: .cfa -8 + ^ x20: .cfa -16 + ^ x21: .cfa -24 + ^ x22: .cfa -32 + ^ x23: .cfa -40 + ^ x24: .cfa -48 + ^ .ra: .cfa -56 + ^ x29: .cfa -64 + ^ v8: .cfa -72 + ^ v9: .cfa -80 + ^ v10: .cfa -96 + ^
STACK CFI 824cc .cfa: sp 224 +
STACK CFI 824e8 .cfa: sp 0 +
STACK CFI 824ec .cfa: x29 64 +
STACK CFI INIT 827d0 4 .cfa: sp 0 +
STACK CFI INIT 831f0 18 .cfa: sp 0 +
STACK CFI INIT 83208 50 .cfa: sp 0 +
STACK CFI 8320c .cfa: sp 32 +
STACK CFI 83214 .cfa: x29 32 + x19: .cfa -8 + ^ x20: .cfa -16 + ^ .ra: .cfa -24 + ^ x29: .cfa -32 + ^
STACK CFI 8324c .cfa: sp 32 +
STACK CFI 83254 .cfa: sp 0 +
STACK CFI INIT 83bec 70 .cfa: sp 0 +
STACK CFI 83bf0 .cfa: sp 48 +
STACK CFI 83bfc .cfa: x29 48 + x19: .cfa -8 + ^ x20: .cfa -16 + ^ x21: .cfa -32 + ^ .ra: .cfa -40 + ^ x29: .cfa -48 + ^
STACK CFI 83c14 .cfa: sp 48 +
STACK CFI 83c20 .cfa: sp 0 +
STACK CFI 83c24 .cfa: x29 48 +
STACK CFI 83c4c .cfa: sp 48 +
STACK CFI 83c58 .cfa: sp 0 +
STACK CFI INIT 85c84 14 .cfa: sp 0 +
STACK CFI 85c88 .cfa: sp 16 +
STACK CFI 85c8c .cfa: x29 16 + .ra: .cfa -8 + ^ x29: .cfa -16 + ^
STACK CFI INIT 85c98 128 .cfa: sp 0 +
STACK CFI 85c9c .cfa: sp 80 +
STACK CFI 85cb0 .cfa: x29 80 + x19: .cfa -8 + ^ x20: .cfa -16 + ^ x21: .cfa -24 + ^ x22: .cfa -32 + ^ x23: .cfa -40 + ^ x24: .cfa -48 + ^ x25: .cfa -64 + ^ .ra: .cfa -72 + ^ x29: .cfa -80 + ^
STACK CFI 85da0 .cfa: sp 80 +
STACK CFI 85db4 .cfa: sp 0 +
STACK CFI 85db8 .cfa: x29 80 +
STACK CFI INIT 85dc0 34 .cfa: sp 0 +
STACK CFI 85dc4 .cfa: sp 32 +
STACK CFI 85dcc .cfa: x29 32 + x19: .cfa -8 + ^ x20: .cfa -16 + ^ .ra: .cfa -24 + ^ x29: .cfa -32 + ^
STACK CFI 85de8 .cfa: sp 32 +
STACK CFI 85df0 .cfa: sp 0 +
STACK CFI INIT 85df4 14 .cfa: sp 0 +
STACK CFI 85df8 .cfa: sp 16 +
STACK CFI 85dfc .cfa: x29 16 + .ra: .cfa -8 + ^ x29: .cfa -16 + ^
STACK CFI INIT 85e58 30 .cfa: sp 0 +
STACK CFI 85e5c .cfa: sp 32 +
STACK CFI 85e64 .cfa: x29 32 + x19: .cfa -16 + ^ .ra: .cfa -24 + ^ x29: .cfa -32 + ^
STACK CFI 85e7c .cfa: sp 32 +
STACK CFI 85e84 .cfa: sp 0 +
STACK CFI INIT 85e88 30 .cfa: sp 0 +
STACK CFI 85e8c .cfa: sp 32 +
STACK CFI 85e94 .cfa: x29 32 + x19: .cfa -16 + ^ .ra: .cfa -24 + ^ x29: .cfa -32 + ^
STACK CFI 85eac .cfa: sp 32 +
STACK CFI 85eb4 .cfa: sp 0 +
STACK CFI INIT 85eb8 24 .cfa: sp 0 +
STACK CFI 85ebc .cfa: sp 32 +
STACK CFI 85ec4 .cfa: x29 32 + x19: .cfa -16 + ^ .ra: .cfa -24 + ^ x29: .cfa -32 + ^
STACK CFI 85ed0 .cfa: sp 32 +
STACK CFI 85ed8 .cfa: sp 0 +
STACK CFI INIT 85edc 4 .cfa: sp 0 +
STACK CFI INIT 85ee0 14 .cfa: sp 0 +
STACK CFI INIT 85ef4 168 .cfa: sp 0 +
STACK CFI 85ef8 .cfa: sp 48 +
STACK CFI 85f04 .cfa: x29 48 + x19: .cfa -8 + ^ x20: .cfa -16 + ^ x21: .cfa -24 + ^ x22: .cfa -32 + ^ .ra: .cfa -40 + ^ x29: .cfa -48 + ^
STACK CFI 86040 .cfa: sp 48 +
STACK CFI 8604c .cfa: sp 0 +
STACK CFI 86050 .cfa: x29 48 +
STACK CFI INIT 8605c 458 .cfa: sp 0 +
STACK CFI INIT 864b4 50 .cfa: sp 0 +
STACK CFI 864d8 .cfa: sp 32 +
STACK CFI 864e0 .cfa: x29 32 + x19: .cfa -16 + ^ .ra: .cfa -24 + ^ x29: .cfa -32 + ^
STACK CFI 864f4 .cfa: sp 32 +
STACK CFI 864fc .cfa: sp 0 +
STACK CFI INIT 86504 124 .cfa: sp 0 +
STACK CFI 86508 .cfa: sp 144 +
STACK CFI 8651c .cfa: x29 64 + x19: .cfa -8 + ^ x20: .cfa -16 + ^ x21: .cfa -24 + ^ x22: .cfa -32 + ^ x23: .cfa -40 + ^ x24: .cfa -48 + ^ .ra: .cfa -56 + ^ x29: .cfa -64 + ^
STACK CFI 8660c .cfa: sp 144 +
STACK CFI 86620 .cfa: sp 0 +
STACK CFI 86624 .cfa: x29 64 +
STACK CFI INIT 86628 1d8 .cfa: sp 0 +
STACK CFI 8662c .cfa: sp 16 +
STACK CFI 86630 .cfa: x29 16 + .ra: .cfa -8 + ^ x29: .cfa -16 + ^
STACK CFI 86770 .cfa: sp 16 +
STACK CFI 86774 .cfa: sp 0 +
STACK CFI 86778 .cfa: x29 16 +
STACK CFI INIT 86800 1a4 .cfa: sp 0 +
STACK CFI 86804 .cfa: sp 64 +
STACK CFI 86810 .cfa: x29 32 + x19: .cfa -8 + ^ x20: .cfa -16 + ^ .ra: .cfa -24 + ^ x29: .cfa -32 + ^
STACK CFI 8693c .cfa: sp 64 +
STACK CFI 86948 .cfa: sp 0 +
STACK CFI 8694c .cfa: x29 32 +
STACK CFI INIT 86c74 194 .cfa: sp 0 +
STACK CFI 86c78 .cfa: sp 16 +
STACK CFI 86c7c .cfa: x29 16 + .ra: .cfa -8 + ^ x29: .cfa -16 + ^
STACK CFI 86d14 .cfa: sp 16 +
STACK CFI 86d18 .cfa: sp 0 +
STACK CFI 86d1c .cfa: x29 16 +
STACK CFI 86de8 .cfa: sp 16 +
STACK CFI 86dec .cfa: sp 0 +
STACK CFI 86df0 .cfa: x29 16 +
STACK CFI INIT 87098 114 .cfa: sp 0 +
STACK CFI 8709c .cfa: sp 128 +
STACK CFI 870ac .cfa: x29 48 + x19: .cfa -8 + ^ x20: .cfa -16 + ^ x21: .cfa -32 + ^ .ra: .cfa -40 + ^ x29: .cfa -48 + ^
STACK CFI 87178 .cfa: sp 128 +
STACK CFI 87188 .cfa: sp 0 +
STACK CFI 8718c .cfa: x29 48 +
STACK CFI INIT 881ac 27c .cfa: sp 0 +
STACK CFI 881b0 .cfa: sp 176 +
STACK CFI 881cc .cfa: x29 96 + x19: .cfa -8 + ^ x20: .cfa -16 + ^ x21: .cfa -24 + ^ x22: .cfa -32 + ^ x23: .cfa -40 + ^ x24: .cfa -48 + ^ x25: .cfa -56 + ^ x26: .cfa -64 + ^ x27: .cfa -72 + ^ x28: .cfa -80 + ^ .ra: .cfa -88 + ^ x29: .cfa -96 + ^
STACK CFI 88404 .cfa: sp 176 +
STACK CFI 88420 .cfa: sp 0 +
STACK CFI 88424 .cfa: x29 96 +
STACK CFI INIT 88428 94 .cfa: sp 0 +
STACK CFI 8842c .cfa: sp 16 +
STACK CFI 88430 .cfa: x29 16 + .ra: .cfa -8 + ^ x29: .cfa -16 + ^
STACK CFI 88484 .cfa: sp 16 +
STACK CFI 88488 .cfa: sp 0 +
STACK CFI 8848c .cfa: x29 16 +
STACK CFI INIT 884bc 158 .cfa: sp 0 +
STACK CFI 884c0 .cfa: sp 112 +
STACK CFI 884dc .cfa: x29 96 + x19: .cfa -8 + ^ x20: .cfa -16 + ^ x21: .cfa -24 + ^ x22: .cfa -32 + ^ x23: .cfa -40 + ^ x24: .cfa -48 + ^ x25: .cfa -56 + ^ x26: .cfa -64 + ^ x27: .cfa -72 + ^ x28: .cfa -80 + ^ .ra: .cfa -88 + ^ x29: .cfa -96 + ^
STACK CFI 885c4 .cfa: sp 112 +
STACK CFI 885c8 .cfa: x29 96 +
STACK CFI 885d0 .cfa: sp 112 +
STACK CFI 885ec .cfa: sp 0 +
STACK CFI 885f0 .cfa: x29 96 +
STACK CFI 88610 .cfa: sp 112 +
STACK CFI INIT 88b64 1fc .cfa: sp 0 +
STACK CFI 88b68 .cfa: sp 48 +
STACK CFI 88b74 .cfa: x29 48 + x19: .cfa -8 + ^ x20: .cfa -16 + ^ x21: .cfa -32 + ^ .ra: .cfa -40 + ^ x29: .cfa -48 + ^
STACK CFI 88d50 .cfa: sp 48 +
STACK CFI 88d5c .cfa: sp 0 +
STACK CFI INIT 89a30 134 .cfa: sp 0 +
STACK CFI 89a34 .cfa: sp 64 +
STACK CFI 89a44 .cfa: x29 64 + x19: .cfa -8 + ^ x20: .cfa -16 + ^ x21: .cfa -24 + ^ x22: .cfa -32 + ^ x23: .cfa -48 + ^ .ra: .cfa -56 + ^ x29: .cfa -64 + ^
STACK CFI 89b50 .cfa: sp 64 +
STACK CFI 89b60 .cfa: sp 0 +
STACK CFI INIT 8a780 198 .cfa: sp 0 +
STACK CFI 8a784 .cfa: sp 112 +
STACK CFI 8a79c .cfa: x29 80 + x19: .cfa -8 + ^ x20: .cfa -16 + ^ x21: .cfa -24 + ^ x22: .cfa -32 + ^ x23: .cfa -40 + ^ x24: .cfa -48 + ^ x25: .cfa -64 + ^ .ra: .cfa -72 + ^ x29: .cfa -80 + ^
STACK CFI 8a8f8 .cfa: sp 112 +
STACK CFI 8a910 .cfa: sp 0 +
STACK CFI 8a914 .cfa: x29 80 +
STACK CFI INIT 8ab5c 194 .cfa: sp 0 +
STACK CFI 8ab60 .cfa: sp 48 +
STACK CFI 8ab6c .cfa: x29 48 + x19: .cfa -8 + ^ x20: .cfa -16 + ^ x21: .cfa -24 + ^ x22: .cfa -32 + ^ .ra: .cfa -40 + ^ x29: .cfa -48 + ^
STACK CFI 8ace0 .cfa: sp 48 +
STACK CFI 8acec .cfa: sp 0 +
STACK CFI INIT 8b048 168 .cfa: sp 0 +
STACK CFI 8b04c .cfa: sp 64 +
STACK CFI 8b05c .cfa: x29 64 + x19: .cfa -8 + ^ x20: .cfa -16 + ^ x21: .cfa -24 + ^ x22: .cfa -32 + ^ x23: .cfa -40 + ^ x24: .cfa -48 + ^ .ra: .cfa -56 + ^ x29: .cfa -64 + ^
STACK CFI 8b184 .cfa: sp 64 +
STACK CFI 8b194 .cfa: sp 0 +
STACK CFI 8b198 .cfa: x29 64 +
STACK CFI 8b19c .cfa: sp 64 +
STACK CFI 8b1ac .cfa: sp 0 +
STACK CFI INIT 8b1b0 1d4 .cfa: sp 0 +
STACK CFI 8b1b4 .cfa: sp 112 +
STACK CFI 8b1cc .cfa: x29 80 + x19: .cfa -8 + ^ x20: .cfa -16 + ^ x21: .cfa -24 + ^ x22: .cfa -32 + ^ x23: .cfa -40 + ^ x24: .cfa -48 + ^ x25: .cfa -64 + ^ .ra: .cfa -72 + ^ x29: .cfa -80 + ^
STACK CFI 8b364 .cfa: sp 112 +
STACK CFI 8b37c .cfa: sp 0 +
STACK CFI 8b380 .cfa: x29 80 +
STACK CFI INIT 8b384 150 .cfa: sp 0 +
STACK CFI 8b388 .cfa: sp 48 +
STACK CFI 8b394 .cfa: x29 48 + x19: .cfa -8 + ^ x20: .cfa -16 + ^ x21: .cfa -24 + ^ x22: .cfa -32 + ^ .ra: .cfa -40 + ^ x29: .cfa -48 + ^
STACK CFI 8b4c4 .cfa: sp 48 +
STACK CFI 8b4d0 .cfa: sp 0 +
STACK CFI INIT 8bbd8 24 .cfa: sp 0 +
STACK CFI 8bbdc .cfa: sp 32 +
STACK CFI 8bbe4 .cfa: x29 32 + x19: .cfa -16 + ^ .ra: .cfa -24 + ^ x29: .cfa -32 + ^
STACK CFI 8bbf0 .cfa: sp 32 +
STACK CFI 8bbf8 .cfa: sp 0 +
STACK CFI INIT 8bbfc 158 .cfa: sp 0 +
STACK CFI 8bc00 .cfa: sp 64 +
STACK CFI 8bc10 .cfa: x29 64 + x19: .cfa -8 + ^ x20: .cfa -16 + ^ x21: .cfa -24 + ^ x22: .cfa -32 + ^ x23: .cfa -48 + ^ .ra: .cfa -56 + ^ x29: .cfa -64 + ^
STACK CFI 8bd40 .cfa: sp 64 +
STACK CFI 8bd50 .cfa: sp 0 +
STACK CFI INIT 8bd54 5c .cfa: sp 0 +
STACK CFI 8bd58 .cfa: sp 32 +
STACK CFI 8bd60 .cfa: x29 32 + x19: .cfa -8 + ^ x20: .cfa -16 + ^ .ra: .cfa -24 + ^ x29: .cfa -32 + ^
STACK CFI 8bda4 .cfa: sp 32 +
STACK CFI 8bdac .cfa: sp 0 +
STACK CFI INIT 8bdb0 78 .cfa: sp 0 +
STACK CFI 8bdb4 .cfa: sp 48 +
STACK CFI 8bdc0 .cfa: x29 48 + x19: .cfa -8 + ^ x20: .cfa -16 + ^ x21: .cfa -24 + ^ x22: .cfa -32 + ^ .ra: .cfa -40 + ^ x29: .cfa -48 + ^
STACK CFI 8be08 .cfa: sp 48 +
STACK CFI 8be14 .cfa: sp 0 +
STACK CFI 8be18 .cfa: sp 48 +
STACK CFI 8be24 .cfa: sp 0 +
STACK CFI INIT 8be28 238 .cfa: sp 0 +
STACK CFI 8be30 .cfa: sp 64 +
STACK CFI 8be40 .cfa: x29 64 + x19: .cfa -8 + ^ x20: .cfa -16 + ^ x21: .cfa -24 + ^ x22: .cfa -32 + ^ x23: .cfa -48 + ^ .ra: .cfa -56 + ^ x29: .cfa -64 + ^
STACK CFI 8c02c .cfa: sp 64 +
STACK CFI 8c03c .cfa: sp 0 +
STACK CFI 8c048 .cfa: x29 64 +
STACK CFI 8c04c .cfa: sp 64 +
STACK CFI 8c05c .cfa: sp 0 +
STACK CFI INIT 8c060 15c .cfa: sp 0 +
STACK CFI 8c064 .cfa: sp 96 +
STACK CFI 8c078 .cfa: x29 64 + x19: .cfa -8 + ^ x20: .cfa -16 + ^ x21: .cfa -24 + ^ x22: .cfa -32 + ^ x23: .cfa -48 + ^ .ra: .cfa -56 + ^ x29: .cfa -64 + ^
STACK CFI 8c1a0 .cfa: sp 96 +
STACK CFI 8c1b4 .cfa: sp 0 +
STACK CFI 8c1b8 .cfa: x29 64 +
STACK CFI INIT 8c1bc 150 .cfa: sp 0 +
STACK CFI 8c1c0 .cfa: sp 48 +
STACK CFI 8c1cc .cfa: x29 48 + x19: .cfa -8 + ^ x20: .cfa -16 + ^ x21: .cfa -24 + ^ x22: .cfa -32 + ^ .ra: .cfa -40 + ^ x29: .cfa -48 + ^
STACK CFI 8c2fc .cfa: sp 48 +
STACK CFI 8c308 .cfa: sp 0 +
STACK CFI INIT 8c30c 158 .cfa: sp 0 +
STACK CFI 8c310 .cfa: sp 48 +
STACK CFI 8c31c .cfa: x29 48 + x19: .cfa -8 + ^ x20: .cfa -16 + ^ x21: .cfa -24 + ^ x22: .cfa -32 + ^ .ra: .cfa -40 + ^ x29: .cfa -48 + ^
STACK CFI 8c3c0 .cfa: sp 48 +
STACK CFI 8c3cc .cfa: sp 0 +
STACK CFI 8c3d0 .cfa: x29 48 +
STACK CFI 8c454 .cfa: sp 48 +
STACK CFI 8c460 .cfa: sp 0 +
STACK CFI INIT 8c464 22c .cfa: sp 0 +
STACK CFI 8c468 .cfa: sp 64 +
STACK CFI 8c478 .cfa: x29 64 + x19: .cfa -8 + ^ x20: .cfa -16 + ^ x21: .cfa -24 + ^ x22: .cfa -32 + ^ x23: .cfa -40 + ^ x24: .cfa -48 + ^ .ra: .cfa -56 + ^ x29: .cfa -64 + ^
STACK CFI 8c67c .cfa: sp 64 +
STACK CFI 8c68c .cfa: sp 0 +
STACK CFI INIT 8c690 520 .cfa: sp 0 +
STACK CFI 8c694 .cfa: sp 176 +
STACK CFI 8c6b0 .cfa: x29 96 + x19: .cfa -8 + ^ x20: .cfa -16 + ^ x21: .cfa -24 + ^ x22: .cfa -32 + ^ x23: .cfa -40 + ^ x24: .cfa -48 + ^ x25: .cfa -56 + ^ x26: .cfa -64 + ^ x27: .cfa -72 + ^ x28: .cfa -80 + ^ .ra: .cfa -88 + ^ x29: .cfa -96 + ^
STACK CFI 8cb8c .cfa: sp 176 +
STACK CFI 8cba8 .cfa: sp 0 +
STACK CFI 8cbac .cfa: x29 96 +
STACK CFI INIT 8cbb0 20c .cfa: sp 0 +
STACK CFI 8cbb4 .cfa: sp 80 +
STACK CFI 8cbc8 .cfa: x29 80 + x19: .cfa -8 + ^ x20: .cfa -16 + ^ x21: .cfa -24 + ^ x22: .cfa -32 + ^ x23: .cfa -40 + ^ x24: .cfa -48 + ^ x25: .cfa -64 + ^ .ra: .cfa -72 + ^ x29: .cfa -80 + ^
STACK CFI 8cc58 .cfa: sp 80 +
STACK CFI 8cc6c .cfa: sp 0 +
STACK CFI 8cc70 .cfa: x29 80 +
STACK CFI 8cc7c .cfa: sp 80 +
STACK CFI 8cc90 .cfa: sp 0 +
STACK CFI 8cc94 .cfa: x29 80 +
STACK CFI INIT 8cdbc 428 .cfa: sp 0 +
STACK CFI 8cdc0 .cfa: sp 128 +
STACK CFI 8cddc .cfa: x29 96 + x19: .cfa -8 + ^ x20: .cfa -16 + ^ x21: .cfa -24 + ^ x22: .cfa -32 + ^ x23: .cfa -40 + ^ x24: .cfa -48 + ^ x25: .cfa -56 + ^ x26: .cfa -64 + ^ x27: .cfa -72 + ^ x28: .cfa -80 + ^ .ra: .cfa -88 + ^ x29: .cfa -96 + ^
STACK CFI 8d1c0 .cfa: sp 128 +
STACK CFI 8d1dc .cfa: sp 0 +
STACK CFI 8d1e0 .cfa: x29 96 +
STACK CFI INIT 8d1e4 194 .cfa: sp 0 +
STACK CFI 8d1e8 .cfa: sp 32 +
STACK CFI 8d1f0 .cfa: x29 16 + .ra: .cfa -8 + ^ x29: .cfa -16 + ^
STACK CFI 8d234 .cfa: sp 32 +
STACK CFI 8d23c .cfa: sp 0 +
STACK CFI 8d240 .cfa: x29 16 +
STACK CFI INIT 8d378 1b8 .cfa: sp 0 +
STACK CFI INIT 8d530 67c .cfa: sp 0 +
STACK CFI 8d534 .cfa: sp 176 +
STACK CFI 8d550 .cfa: x29 96 + x19: .cfa -8 + ^ x20: .cfa -16 + ^ x21: .cfa -24 + ^ x22: .cfa -32 + ^ x23: .cfa -40 + ^ x24: .cfa -48 + ^ x25: .cfa -56 + ^ x26: .cfa -64 + ^ x27: .cfa -72 + ^ x28: .cfa -80 + ^ .ra: .cfa -88 + ^ x29: .cfa -96 + ^
STACK CFI 8db88 .cfa: sp 176 +
STACK CFI 8dba4 .cfa: sp 0 +
STACK CFI 8dba8 .cfa: x29 96 +
STACK CFI INIT 8dbac 1e4 .cfa: sp 0 +
STACK CFI 8dbb0 .cfa: sp 32 +
STACK CFI 8dbb8 .cfa: x29 32 + x19: .cfa -8 + ^ x20: .cfa -16 + ^ .ra: .cfa -24 + ^ x29: .cfa -32 + ^
STACK CFI 8dca8 .cfa: sp 32 +
STACK CFI 8dcb0 .cfa: sp 0 +
STACK CFI 8dcb4 .cfa: x29 32 +
STACK CFI 8dd28 .cfa: sp 32 +
STACK CFI 8dd30 .cfa: sp 0 +
STACK CFI 8dd34 .cfa: x29 32 +
STACK CFI 8dd44 .cfa: sp 32 +
STACK CFI 8dd4c .cfa: sp 0 +
STACK CFI 8dd50 .cfa: x29 32 +
STACK CFI 8dd60 .cfa: sp 32 +
STACK CFI 8dd68 .cfa: sp 0 +
STACK CFI 8dd6c .cfa: x29 32 +
STACK CFI INIT 8dd90 178 .cfa: sp 0 +
STACK CFI 8dd94 .cfa: sp 80 +
STACK CFI 8dda8 .cfa: x29 64 + x19: .cfa -8 + ^ x20: .cfa -16 + ^ x21: .cfa -24 + ^ x22: .cfa -32 + ^ x23: .cfa -40 + ^ x24: .cfa -48 + ^ .ra: .cfa -56 + ^ x29: .cfa -64 + ^
STACK CFI 8deec .cfa: sp 80 +
STACK CFI 8df00 .cfa: sp 0 +
STACK CFI 8df04 .cfa: x29 64 +
STACK CFI INIT 8df08 178 .cfa: sp 0 +
STACK CFI 8df0c .cfa: sp 80 +
STACK CFI 8df20 .cfa: x29 64 + x19: .cfa -8 + ^ x20: .cfa -16 + ^ x21: .cfa -24 + ^ x22: .cfa -32 + ^ x23: .cfa -40 + ^ x24: .cfa -48 + ^ .ra: .cfa -56 + ^ x29: .cfa -64 + ^
STACK CFI 8e064 .cfa: sp 80 +
STACK CFI 8e078 .cfa: sp 0 +
STACK CFI 8e07c .cfa: x29 64 +
STACK CFI INIT 8e080 178 .cfa: sp 0 +
STACK CFI 8e084 .cfa: sp 80 +
STACK CFI 8e098 .cfa: x29 64 + x19: .cfa -8 + ^ x20: .cfa -16 + ^ x21: .cfa -24 + ^ x22: .cfa -32 + ^ x23: .cfa -40 + ^ x24: .cfa -48 + ^ .ra: .cfa -56 + ^ x29: .cfa -64 + ^
STACK CFI 8e1dc .cfa: sp 80 +
STACK CFI 8e1f0 .cfa: sp 0 +
STACK CFI 8e1f4 .cfa: x29 64 +
STACK CFI INIT 8e1f8 344 .cfa: sp 0 +
STACK CFI 8e1fc .cfa: sp 256 +
STACK CFI 8e218 .cfa: x29 96 + x19: .cfa -8 + ^ x20: .cfa -16 + ^ x21: .cfa -24 + ^ x22: .cfa -32 + ^ x23: .cfa -40 + ^ x24: .cfa -48 + ^ x25: .cfa -56 + ^ x26: .cfa -64 + ^ x27: .cfa -72 + ^ x28: .cfa -80 + ^ .ra: .cfa -88 + ^ x29: .cfa -96 + ^
STACK CFI 8e518 .cfa: sp 256 +
STACK CFI 8e534 .cfa: sp 0 +
STACK CFI 8e538 .cfa: x29 96 +
STACK CFI INIT 8e53c 4b4 .cfa: sp 0 +
STACK CFI 8e540 .cfa: sp 96 +
STACK CFI 8e558 .cfa: x29 96 + x19: .cfa -8 + ^ x20: .cfa -16 + ^ x21: .cfa -24 + ^ x22: .cfa -32 + ^ x23: .cfa -40 + ^ x24: .cfa -48 + ^ x25: .cfa -56 + ^ x26: .cfa -64 + ^ x27: .cfa -72 + ^ x28: .cfa -80 + ^ .ra: .cfa -88 + ^ x29: .cfa -96 + ^
STACK CFI 8e9a0 .cfa: sp 96 +
STACK CFI 8e9b8 .cfa: sp 0 +
STACK CFI 8e9bc .cfa: x29 96 +
STACK CFI INIT 8e9f0 114 .cfa: sp 0 +
STACK CFI 8e9f4 .cfa: sp 128 +
STACK CFI 8ea04 .cfa: x29 48 + x19: .cfa -8 + ^ x20: .cfa -16 + ^ x21: .cfa -32 + ^ .ra: .cfa -40 + ^ x29: .cfa -48 + ^
STACK CFI 8ead0 .cfa: sp 128 +
STACK CFI 8eae0 .cfa: sp 0 +
STACK CFI 8eae4 .cfa: x29 48 +
STACK CFI INIT 8eb04 94 .cfa: sp 0 +
STACK CFI 8eb08 .cfa: sp 16 +
STACK CFI 8eb0c .cfa: x29 16 + .ra: .cfa -8 + ^ x29: .cfa -16 + ^
STACK CFI 8eb60 .cfa: sp 16 +
STACK CFI 8eb64 .cfa: sp 0 +
STACK CFI 8eb68 .cfa: x29 16 +
STACK CFI INIT 8eb98 24c .cfa: sp 0 +
STACK CFI 8eb9c .cfa: sp 160 +
STACK CFI 8ebb4 .cfa: x29 80 + x19: .cfa -8 + ^ x20: .cfa -16 + ^ x21: .cfa -24 + ^ x22: .cfa -32 + ^ x23: .cfa -40 + ^ x24: .cfa -48 + ^ x25: .cfa -56 + ^ x26: .cfa -64 + ^ .ra: .cfa -72 + ^ x29: .cfa -80 + ^
STACK CFI 8edc4 .cfa: sp 160 +
STACK CFI 8eddc .cfa: sp 0 +
STACK CFI 8ede0 .cfa: x29 80 +
STACK CFI INIT 8ede4 180 .cfa: sp 0 +
STACK CFI 8ede8 .cfa: sp 240 +
STACK CFI 8edfc .cfa: x29 64 + x19: .cfa -8 + ^ x20: .cfa -16 + ^ x21: .cfa -24 + ^ x22: .cfa -32 + ^ x23: .cfa -48 + ^ .ra: .cfa -56 + ^ x29: .cfa -64 + ^
STACK CFI 8ef48 .cfa: sp 240 +
STACK CFI 8ef5c .cfa: sp 0 +
STACK CFI 8ef60 .cfa: x29 64 +
STACK CFI INIT 8ef64 9a4 .cfa: sp 0 +
STACK CFI 8ef68 .cfa: sp 144 +
STACK CFI 8ef80 .cfa: x29 80 + x19: .cfa -8 + ^ x20: .cfa -16 + ^ x21: .cfa -24 + ^ x22: .cfa -32 + ^ x23: .cfa -40 + ^ x24: .cfa -48 + ^ x25: .cfa -64 + ^ .ra: .cfa -72 + ^ x29: .cfa -80 + ^
STACK CFI 8f8e8 .cfa: sp 144 +
STACK CFI 8f900 .cfa: sp 0 +
STACK CFI 8f904 .cfa: x29 80 +
STACK CFI INIT 8f908 190 .cfa: sp 0 +
STACK CFI 8f90c .cfa: sp 96 +
STACK CFI 8f920 .cfa: x29 64 + x19: .cfa -8 + ^ x20: .cfa -16 + ^ x21: .cfa -24 + ^ x22: .cfa -32 + ^ x23: .cfa -48 + ^ .ra: .cfa -56 + ^ x29: .cfa -64 + ^
STACK CFI 8fa7c .cfa: sp 96 +
STACK CFI 8fa90 .cfa: sp 0 +
STACK CFI 8fa94 .cfa: x29 64 +
STACK CFI INIT 8fa98 1e4 .cfa: sp 0 +
STACK CFI 8fa9c .cfa: sp 112 +
STACK CFI 8fab4 .cfa: x29 80 + x19: .cfa -8 + ^ x20: .cfa -16 + ^ x21: .cfa -24 + ^ x22: .cfa -32 + ^ x23: .cfa -40 + ^ x24: .cfa -48 + ^ x25: .cfa -64 + ^ .ra: .cfa -72 + ^ x29: .cfa -80 + ^
STACK CFI 8fc5c .cfa: sp 112 +
STACK CFI 8fc74 .cfa: sp 0 +
STACK CFI 8fc78 .cfa: x29 80 +
STACK CFI INIT 8fc7c 1a8 .cfa: sp 0 +
STACK CFI 8fc80 .cfa: sp 96 +
STACK CFI 8fc94 .cfa: x29 64 + x19: .cfa -8 + ^ x20: .cfa -16 + ^ x21: .cfa -24 + ^ x22: .cfa -32 + ^ x23: .cfa -40 + ^ x24: .cfa -48 + ^ .ra: .cfa -56 + ^ x29: .cfa -64 + ^
STACK CFI 8fe08 .cfa: sp 96 +
STACK CFI 8fe1c .cfa: sp 0 +
STACK CFI 8fe20 .cfa: x29 64 +
STACK CFI INIT 8fe24 1ac .cfa: sp 0 +
STACK CFI 8fe28 .cfa: sp 112 +
STACK CFI 8fe3c .cfa: x29 64 + x19: .cfa -8 + ^ x20: .cfa -16 + ^ x21: .cfa -24 + ^ x22: .cfa -32 + ^ x23: .cfa -40 + ^ x24: .cfa -48 + ^ .ra: .cfa -56 + ^ x29: .cfa -64 + ^
STACK CFI 8ffb4 .cfa: sp 112 +
STACK CFI 8ffc8 .cfa: sp 0 +
STACK CFI 8ffcc .cfa: x29 64 +
STACK CFI INIT 8ffd0 108 .cfa: sp 0 +
STACK CFI 8ffd4 .cfa: sp 64 +
STACK CFI 8ffe4 .cfa: x29 64 + x19: .cfa -8 + ^ x20: .cfa -16 + ^ x21: .cfa -24 + ^ x22: .cfa -32 + ^ x23: .cfa -48 + ^ .ra: .cfa -56 + ^ x29: .cfa -64 + ^
STACK CFI 90060 .cfa: sp 64 +
STACK CFI 90070 .cfa: sp 0 +
STACK CFI 90074 .cfa: x29 64 +
STACK CFI 900c4 .cfa: sp 64 +
STACK CFI 900d4 .cfa: sp 0 +
STACK CFI INIT 900d8 178 .cfa: sp 0 +
STACK CFI 900dc .cfa: sp 96 +
STACK CFI 900ec .cfa: x29 48 + x19: .cfa -8 + ^ x20: .cfa -16 + ^ x21: .cfa -24 + ^ x22: .cfa -32 + ^ .ra: .cfa -40 + ^ x29: .cfa -48 + ^
STACK CFI 9020c .cfa: sp 96 +
STACK CFI 9021c .cfa: sp 0 +
STACK CFI 90220 .cfa: x29 48 +
STACK CFI INIT 90250 4 .cfa: sp 0 +
STACK CFI INIT 90254 18 .cfa: sp 0 +
STACK CFI INIT 91f2c b8 .cfa: sp 0 +
STACK CFI 91f30 .cfa: sp 64 +
STACK CFI 91f3c .cfa: x29 32 + x19: .cfa -8 + ^ x20: .cfa -16 + ^ .ra: .cfa -24 + ^ x29: .cfa -32 + ^
STACK CFI 91fd0 .cfa: sp 64 +
STACK CFI 91fdc .cfa: sp 0 +
STACK CFI 91fe0 .cfa: x29 32 +
STACK CFI INIT 91fe4 cc .cfa: sp 0 +
STACK CFI 91fe8 .cfa: sp 96 +
STACK CFI 91ffc .cfa: x29 64 + x19: .cfa -8 + ^ x20: .cfa -16 + ^ x21: .cfa -24 + ^ x22: .cfa -32 + ^ x23: .cfa -48 + ^ .ra: .cfa -56 + ^ x29: .cfa -64 + ^
STACK CFI 9208c .cfa: sp 96 +
STACK CFI 920a0 .cfa: sp 0 +
STACK CFI 920a4 .cfa: x29 64 +
STACK CFI INIT 920b0 c .cfa: sp 0 +
STACK CFI INIT 920bc c .cfa: sp 0 +
STACK CFI INIT 920c8 c .cfa: sp 0 +
STACK CFI INIT 92144 6c .cfa: sp 0 +
STACK CFI 92148 .cfa: sp 32 +
STACK CFI 92150 .cfa: x29 32 + x19: .cfa -8 + ^ x20: .cfa -16 + ^ .ra: .cfa -24 + ^ x29: .cfa -32 + ^
STACK CFI 921a4 .cfa: sp 32 +
STACK CFI 921ac .cfa: sp 0 +
STACK CFI INIT 921b0 1c .cfa: sp 0 +
STACK CFI INIT 921cc 8 .cfa: sp 0 +
STACK CFI INIT 921d4 8 .cfa: sp 0 +
STACK CFI INIT 921dc 26c .cfa: sp 0 +
STACK CFI 921e0 .cfa: sp 112 +
STACK CFI 921f4 .cfa: x29 64 + x19: .cfa -8 + ^ x20: .cfa -16 + ^ x21: .cfa -24 + ^ x22: .cfa -32 + ^ x23: .cfa -40 + ^ x24: .cfa -48 + ^ .ra: .cfa -56 + ^ x29: .cfa -64 + ^
STACK CFI 92414 .cfa: sp 112 +
STACK CFI 92428 .cfa: sp 0 +
STACK CFI 9242c .cfa: x29 64 +
STACK CFI INIT 92448 20 .cfa: sp 0 +
STACK CFI 9244c .cfa: sp 16 +
STACK CFI 92450 .cfa: x29 16 + .ra: .cfa -8 + ^ x29: .cfa -16 + ^
STACK CFI 92460 .cfa: sp 16 +
STACK CFI 92464 .cfa: sp 0 +
STACK CFI INIT 93028 8c .cfa: sp 0 +
STACK CFI 9302c .cfa: sp 48 +
STACK CFI 93038 .cfa: x29 48 + x19: .cfa -8 + ^ x20: .cfa -16 + ^ x21: .cfa -32 + ^ .ra: .cfa -40 + ^ x29: .cfa -48 + ^
STACK CFI 93050 .cfa: sp 48 +
STACK CFI 9305c .cfa: sp 0 +
STACK CFI 93060 .cfa: x29 48 +
STACK CFI 930a4 .cfa: sp 48 +
STACK CFI 930b0 .cfa: sp 0 +
STACK CFI INIT 930b4 44 .cfa: sp 0 +
STACK CFI 930b8 .cfa: sp 32 +
STACK CFI 930c0 .cfa: x29 32 + x19: .cfa -16 + ^ .ra: .cfa -24 + ^ x29: .cfa -32 + ^
STACK CFI 930dc .cfa: sp 32 +
STACK CFI 930e4 .cfa: sp 0 +
STACK CFI 930e8 .cfa: x29 32 +
STACK CFI 930ec .cfa: sp 32 +
STACK CFI 930f4 .cfa: sp 0 +
STACK CFI INIT 930f8 44 .cfa: sp 0 +
STACK CFI 930fc .cfa: sp 32 +
STACK CFI 93104 .cfa: x29 32 + x19: .cfa -16 + ^ .ra: .cfa -24 + ^ x29: .cfa -32 + ^
STACK CFI 93120 .cfa: sp 32 +
STACK CFI 93128 .cfa: sp 0 +
STACK CFI 9312c .cfa: x29 32 +
STACK CFI 93130 .cfa: sp 32 +
STACK CFI 93138 .cfa: sp 0 +
STACK CFI INIT 9313c 5c .cfa: sp 0 +
STACK CFI 93140 .cfa: sp 32 +
STACK CFI 93148 .cfa: x29 32 + x19: .cfa -16 + ^ .ra: .cfa -24 + ^ x29: .cfa -32 + ^
STACK CFI 93180 .cfa: sp 32 +
STACK CFI 93188 .cfa: sp 0 +
STACK CFI 9318c .cfa: sp 32 +
STACK CFI 93194 .cfa: sp 0 +
STACK CFI INIT 93198 4 .cfa: sp 0 +
STACK CFI INIT 9319c 60 .cfa: sp 0 +
STACK CFI 931a0 .cfa: sp 16 +
STACK CFI 931a4 .cfa: x29 16 + .ra: .cfa -8 + ^ x29: .cfa -16 + ^
STACK CFI 931f4 .cfa: sp 16 +
STACK CFI 931f8 .cfa: sp 0 +
STACK CFI INIT 931fc 44 .cfa: sp 0 +
STACK CFI 93208 .cfa: sp 32 +
STACK CFI 93210 .cfa: x29 32 + x19: .cfa -8 + ^ x20: .cfa -16 + ^ .ra: .cfa -24 + ^ x29: .cfa -32 + ^
STACK CFI 9322c .cfa: sp 32 +
STACK CFI 93234 .cfa: sp 0 +
STACK CFI INIT 93240 1fc .cfa: sp 0 +
STACK CFI 93244 .cfa: sp 32 +
STACK CFI 9324c .cfa: x29 32 + x19: .cfa -16 + ^ .ra: .cfa -24 + ^ x29: .cfa -32 + ^
STACK CFI 93430 .cfa: sp 32 +
STACK CFI 93438 .cfa: sp 0 +
STACK CFI INIT 9343c 30 .cfa: sp 0 +
STACK CFI INIT 9346c f0 .cfa: sp 0 +
STACK CFI 93470 .cfa: sp 64 +
STACK CFI 93480 .cfa: x29 64 + x19: .cfa -8 + ^ x20: .cfa -16 + ^ x21: .cfa -24 + ^ x22: .cfa -32 + ^ x23: .cfa -48 + ^ .ra: .cfa -56 + ^ x29: .cfa -64 + ^
STACK CFI 93548 .cfa: sp 64 +
STACK CFI 93558 .cfa: sp 0 +
STACK CFI INIT 9355c 6c .cfa: sp 0 +
STACK CFI 935b8 .cfa: sp 16 +
STACK CFI 935bc .cfa: x29 16 + .ra: .cfa -8 + ^ x29: .cfa -16 + ^
STACK CFI INIT 935c8 8c .cfa: sp 0 +
STACK CFI 935cc .cfa: sp 48 +
STACK CFI 935d8 .cfa: x29 48 + x19: .cfa -8 + ^ x20: .cfa -16 + ^ x21: .cfa -24 + ^ x22: .cfa -32 + ^ .ra: .cfa -40 + ^ x29: .cfa -48 + ^
STACK CFI 935e0 .cfa: sp 48 +
STACK CFI 935ec .cfa: sp 0 +
STACK CFI 935f0 .cfa: x29 48 +
STACK CFI 93644 .cfa: sp 48 +
STACK CFI 93650 .cfa: sp 0 +
STACK CFI INIT 93654 60 .cfa: sp 0 +
STACK CFI 93664 .cfa: sp 32 +
STACK CFI 9366c .cfa: x29 32 + x19: .cfa -8 + ^ x20: .cfa -16 + ^ .ra: .cfa -24 + ^ x29: .cfa -32 + ^
STACK CFI 936a8 .cfa: sp 32 +
STACK CFI 936b0 .cfa: sp 0 +
STACK CFI INIT 93820 14 .cfa: sp 0 +
STACK CFI 93824 .cfa: sp 16 +
STACK CFI 93828 .cfa: x29 16 + .ra: .cfa -8 + ^ x29: .cfa -16 + ^
STACK CFI INIT 93944 140 .cfa: sp 0 +
STACK CFI 93948 .cfa: sp 32 +
STACK CFI 93950 .cfa: x29 32 + x19: .cfa -16 + ^ .ra: .cfa -24 + ^ x29: .cfa -32 + ^
STACK CFI 93a78 .cfa: sp 32 +
STACK CFI 93a80 .cfa: sp 0 +
STACK CFI INIT 93a84 144 .cfa: sp 0 +
STACK CFI INIT 93bc8 148 .cfa: sp 0 +
STACK CFI 93bcc .cfa: sp 32 +
STACK CFI 93bd4 .cfa: x29 32 + x19: .cfa -8 + ^ x20: .cfa -16 + ^ .ra: .cfa -24 + ^ x29: .cfa -32 + ^
STACK CFI 93d04 .cfa: sp 32 +
STACK CFI 93d0c .cfa: sp 0 +
STACK CFI INIT 93d10 100 .cfa: sp 0 +
STACK CFI 93d14 .cfa: sp 96 +
STACK CFI 93d28 .cfa: x29 64 + x19: .cfa -8 + ^ x20: .cfa -16 + ^ x21: .cfa -24 + ^ x22: .cfa -32 + ^ x23: .cfa -48 + ^ .ra: .cfa -56 + ^ x29: .cfa -64 + ^
STACK CFI 93df4 .cfa: sp 96 +
STACK CFI 93e08 .cfa: sp 0 +
STACK CFI 93e0c .cfa: x29 64 +
STACK CFI INIT 93e10 2ac .cfa: sp 0 +
STACK CFI 93e14 .cfa: sp 112 +
STACK CFI 93e2c .cfa: x29 80 + x19: .cfa -8 + ^ x20: .cfa -16 + ^ x21: .cfa -24 + ^ x22: .cfa -32 + ^ x23: .cfa -40 + ^ x24: .cfa -48 + ^ x25: .cfa -64 + ^ .ra: .cfa -72 + ^ x29: .cfa -80 + ^
STACK CFI 9409c .cfa: sp 112 +
STACK CFI 940b4 .cfa: sp 0 +
STACK CFI 940b8 .cfa: x29 80 +
STACK CFI INIT 940bc 160 .cfa: sp 0 +
STACK CFI 940c0 .cfa: sp 160 +
STACK CFI 940e0 .cfa: x29 96 + x19: .cfa -8 + ^ x20: .cfa -16 + ^ x21: .cfa -24 + ^ x22: .cfa -32 + ^ x23: .cfa -40 + ^ x24: .cfa -48 + ^ x25: .cfa -56 + ^ x26: .cfa -64 + ^ x27: .cfa -72 + ^ x28: .cfa -80 + ^ .ra: .cfa -88 + ^ x29: .cfa -96 + ^ v8: .cfa -112 + ^
STACK CFI 941f4 .cfa: sp 160 +
STACK CFI 94214 .cfa: sp 0 +
STACK CFI 94218 .cfa: x29 96 +
STACK CFI INIT 9421c 164 .cfa: sp 0 +
STACK CFI INIT 94380 e4 .cfa: sp 0 +
STACK CFI 94384 .cfa: sp 32 +
STACK CFI 9438c .cfa: x29 32 + x19: .cfa -16 + ^ .ra: .cfa -24 + ^ x29: .cfa -32 + ^
STACK CFI 94458 .cfa: sp 32 +
STACK CFI 94460 .cfa: sp 0 +
STACK CFI INIT 94464 98 .cfa: sp 0 +
STACK CFI 94468 .cfa: sp 32 +
STACK CFI 94470 .cfa: x29 32 + x19: .cfa -8 + ^ x20: .cfa -16 + ^ .ra: .cfa -24 + ^ x29: .cfa -32 + ^
STACK CFI 944d4 .cfa: sp 32 +
STACK CFI 944dc .cfa: sp 0 +
STACK CFI 944e0 .cfa: x29 32 +
STACK CFI 944f0 .cfa: sp 32 +
STACK CFI 944f8 .cfa: sp 0 +
STACK CFI INIT 944fc 8c .cfa: sp 0 +
STACK CFI INIT 94588 48 .cfa: sp 0 +
STACK CFI 9458c .cfa: sp 32 +
STACK CFI 94594 .cfa: x29 32 + x19: .cfa -8 + ^ x20: .cfa -16 + ^ .ra: .cfa -24 + ^ x29: .cfa -32 + ^
STACK CFI 945a8 .cfa: sp 32 +
STACK CFI 945b0 .cfa: sp 0 +
STACK CFI 945b4 .cfa: x29 32 +
STACK CFI 945c4 .cfa: sp 32 +
STACK CFI 945cc .cfa: sp 0 +
STACK CFI INIT 945d0 2d4 .cfa: sp 0 +
STACK CFI 945d4 .cfa: sp 96 +
STACK CFI 945f0 .cfa: x29 72 + x19: .cfa -8 + ^ x20: .cfa -16 + ^ x21: .cfa -24 + ^ x22: .cfa -32 + ^ x23: .cfa -40 + ^ x24: .cfa -48 + ^ x25: .cfa -56 + ^ .ra: .cfa -64 + ^ x29: .cfa -72 + ^ v8: .cfa -80 + ^
STACK CFI 94880 .cfa: sp 96 +
STACK CFI 9489c .cfa: sp 0 +
STACK CFI 948a0 .cfa: x29 72 +
STACK CFI INIT 948a4 60 .cfa: sp 0 +
STACK CFI INIT 94904 24 .cfa: sp 0 +
STACK CFI INIT 94928 28 .cfa: sp 0 +
STACK CFI INIT 94950 c .cfa: sp 0 +
STACK CFI INIT 9495c 1c4 .cfa: sp 0 +
STACK CFI 9496c .cfa: sp 64 +
STACK CFI 9497c .cfa: x29 48 + x19: .cfa -8 + ^ x20: .cfa -16 + ^ x21: .cfa -24 + ^ x22: .cfa -32 + ^ .ra: .cfa -40 + ^ x29: .cfa -48 + ^ v8: .cfa -56 + ^ v9: .cfa -64 + ^
STACK CFI 94b0c .cfa: sp 64 +
STACK CFI 94b1c .cfa: sp 0 +
STACK CFI INIT 94b20 3cc .cfa: sp 0 +
STACK CFI 94b24 .cfa: sp 96 +
STACK CFI 94b3c .cfa: x29 80 + x19: .cfa -8 + ^ x20: .cfa -16 + ^ x21: .cfa -24 + ^ x22: .cfa -32 + ^ x23: .cfa -40 + ^ x24: .cfa -48 + ^ x25: .cfa -64 + ^ .ra: .cfa -72 + ^ x29: .cfa -80 + ^
STACK CFI 94e50 .cfa: sp 96 +
STACK CFI 94e68 .cfa: sp 0 +
STACK CFI 94e6c .cfa: x29 80 +
STACK CFI INIT 94eec 98 .cfa: sp 0 +
STACK CFI 94ef0 .cfa: sp 304 +
STACK CFI 94efc .cfa: x29 32 + x19: .cfa -8 + ^ x28: .cfa -16 + ^ .ra: .cfa -24 + ^ x29: .cfa -32 + ^
STACK CFI 94f70 .cfa: sp 304 +
STACK CFI 94f7c .cfa: sp 0 +
STACK CFI 94f80 .cfa: x29 32 +
STACK CFI INIT 94f84 d8 .cfa: sp 0 +
STACK CFI 94f94 .cfa: sp 64 +
STACK CFI 94fa4 .cfa: x29 48 + x19: .cfa -8 + ^ x20: .cfa -16 + ^ x21: .cfa -24 + ^ x22: .cfa -32 + ^ .ra: .cfa -40 + ^ x29: .cfa -48 + ^ v8: .cfa -56 + ^ v9: .cfa -64 + ^
STACK CFI 95048 .cfa: sp 64 +
STACK CFI 95058 .cfa: sp 0 +
STACK CFI INIT 9505c 10 .cfa: sp 0 +
STACK CFI INIT 9506c 148 .cfa: sp 0 +
STACK CFI 95070 .cfa: sp 80 +
STACK CFI 95080 .cfa: x29 48 + x19: .cfa -8 + ^ x20: .cfa -16 + ^ x21: .cfa -24 + ^ x22: .cfa -32 + ^ .ra: .cfa -40 + ^ x29: .cfa -48 + ^
STACK CFI 9519c .cfa: sp 80 +
STACK CFI 951ac .cfa: sp 0 +
STACK CFI 951b0 .cfa: x29 48 +
STACK CFI INIT 951b4 170 .cfa: sp 0 +
STACK CFI 951b8 .cfa: sp 96 +
STACK CFI 951cc .cfa: x29 64 + x19: .cfa -8 + ^ x20: .cfa -16 + ^ x21: .cfa -24 + ^ x22: .cfa -32 + ^ x23: .cfa -40 + ^ x24: .cfa -48 + ^ .ra: .cfa -56 + ^ x29: .cfa -64 + ^
STACK CFI 95308 .cfa: sp 96 +
STACK CFI 9531c .cfa: sp 0 +
STACK CFI 95320 .cfa: x29 64 +
STACK CFI INIT 95324 120 .cfa: sp 0 +
STACK CFI INIT 95444 68 .cfa: sp 0 +
STACK CFI INIT 954ac 90 .cfa: sp 0 +
STACK CFI 954b0 .cfa: sp 80 +
STACK CFI 954bc .cfa: x29 32 + x19: .cfa -16 + ^ .ra: .cfa -24 + ^ x29: .cfa -32 + ^
STACK CFI 95528 .cfa: sp 80 +
STACK CFI 95534 .cfa: sp 0 +
STACK CFI 95538 .cfa: x29 32 +
STACK CFI INIT 9553c 218 .cfa: sp 0 +
STACK CFI 95540 .cfa: sp 144 +
STACK CFI 95564 .cfa: x29 64 + x19: .cfa -8 + ^ x20: .cfa -16 + ^ x21: .cfa -24 + ^ x22: .cfa -32 + ^ x23: .cfa -40 + ^ x24: .cfa -48 + ^ .ra: .cfa -56 + ^ x29: .cfa -64 + ^ v8: .cfa -72 + ^ v9: .cfa -80 + ^ v10: .cfa -88 + ^ v11: .cfa -96 + ^ v12: .cfa -104 + ^ v13: .cfa -112 + ^ v14: .cfa -120 + ^ v15: .cfa -128 + ^
STACK CFI 9572c .cfa: sp 144 +
STACK CFI 95750 .cfa: sp 0 +
STACK CFI INIT 95754 94 .cfa: sp 0 +
STACK CFI INIT 957e8 68 .cfa: sp 0 +
STACK CFI INIT 95850 188 .cfa: sp 0 +
STACK CFI INIT 959d8 80 .cfa: sp 0 +
STACK CFI INIT 95a58 68 .cfa: sp 0 +
STACK CFI INIT 95ac0 3c .cfa: sp 0 +
STACK CFI 95ad0 .cfa: sp 32 +
STACK CFI 95ad8 .cfa: x29 32 + x19: .cfa -16 + ^ .ra: .cfa -24 + ^ x29: .cfa -32 + ^
STACK CFI 95ae8 .cfa: sp 32 +
STACK CFI 95af0 .cfa: sp 0 +
STACK CFI INIT 95afc ec .cfa: sp 0 +
STACK CFI 95b00 .cfa: sp 32 +
STACK CFI 95b08 .cfa: x29 32 + x19: .cfa -8 + ^ x20: .cfa -16 + ^ .ra: .cfa -24 + ^ x29: .cfa -32 + ^
STACK CFI 95bdc .cfa: sp 32 +
STACK CFI 95be4 .cfa: sp 0 +
STACK CFI INIT 95be8 d8 .cfa: sp 0 +
STACK CFI 95bec .cfa: sp 32 +
STACK CFI 95bf4 .cfa: x29 32 + x19: .cfa -16 + ^ .ra: .cfa -24 + ^ x29: .cfa -32 + ^
STACK CFI 95cb4 .cfa: sp 32 +
STACK CFI 95cbc .cfa: sp 0 +
STACK CFI INIT 95cc0 1f8 .cfa: sp 0 +
STACK CFI 95cc4 .cfa: sp 64 +
STACK CFI 95cd4 .cfa: x29 64 + x19: .cfa -8 + ^ x20: .cfa -16 + ^ x21: .cfa -24 + ^ x22: .cfa -32 + ^ x23: .cfa -48 + ^ .ra: .cfa -56 + ^ x29: .cfa -64 + ^
STACK CFI 95ea4 .cfa: sp 64 +
STACK CFI 95eb4 .cfa: sp 0 +
STACK CFI INIT 95eb8 b8 .cfa: sp 0 +
STACK CFI INIT 95f70 10 .cfa: sp 0 +
STACK CFI INIT 95f80 2c .cfa: sp 0 +
STACK CFI INIT 95fac 30 .cfa: sp 0 +
STACK CFI 95fb0 .cfa: sp 32 +
STACK CFI 95fb8 .cfa: x29 32 + x19: .cfa -16 + ^ .ra: .cfa -24 + ^ x29: .cfa -32 + ^
STACK CFI 95fd0 .cfa: sp 32 +
STACK CFI 95fd8 .cfa: sp 0 +
STACK CFI INIT 95fdc 24 .cfa: sp 0 +
STACK CFI INIT 96000 16c .cfa: sp 0 +
STACK CFI 96004 .cfa: sp 48 +
STACK CFI 96010 .cfa: x29 48 + x19: .cfa -8 + ^ x20: .cfa -16 + ^ x21: .cfa -32 + ^ .ra: .cfa -40 + ^ x29: .cfa -48 + ^
STACK CFI 9615c .cfa: sp 48 +
STACK CFI 96168 .cfa: sp 0 +
STACK CFI INIT 9616c b8 .cfa: sp 0 +
STACK CFI 96170 .cfa: sp 32 +
STACK CFI 96178 .cfa: x29 32 + x19: .cfa -8 + ^ x20: .cfa -16 + ^ .ra: .cfa -24 + ^ x29: .cfa -32 + ^
STACK CFI 96204 .cfa: sp 32 +
STACK CFI 9620c .cfa: sp 0 +
STACK CFI 96210 .cfa: x29 32 +
STACK CFI 96218 .cfa: sp 32 +
STACK CFI 96220 .cfa: sp 0 +
STACK CFI INIT 96224 20 .cfa: sp 0 +
STACK CFI INIT 96244 bc .cfa: sp 0 +
STACK CFI 96248 .cfa: sp 304 +
STACK CFI 96258 .cfa: x29 48 + x19: .cfa -8 + ^ x20: .cfa -16 + ^ x21: .cfa -24 + ^ x28: .cfa -32 + ^ .ra: .cfa -40 + ^ x29: .cfa -48 + ^
STACK CFI 962e8 .cfa: sp 304 +
STACK CFI 962f8 .cfa: sp 0 +
STACK CFI 962fc .cfa: x29 48 +
STACK CFI INIT 96300 7c .cfa: sp 0 +
STACK CFI 96304 .cfa: sp 96 +
STACK CFI 96314 .cfa: x29 48 + x19: .cfa -8 + ^ x20: .cfa -16 + ^ x21: .cfa -32 + ^ .ra: .cfa -40 + ^ x29: .cfa -48 + ^
STACK CFI 96364 .cfa: sp 96 +
STACK CFI 96374 .cfa: sp 0 +
STACK CFI 96378 .cfa: x29 48 +
STACK CFI INIT 9637c 94 .cfa: sp 0 +
STACK CFI 96380 .cfa: sp 288 +
STACK CFI 9638c .cfa: x29 32 + x19: .cfa -8 + ^ x28: .cfa -16 + ^ .ra: .cfa -24 + ^ x29: .cfa -32 + ^
STACK CFI 963fc .cfa: sp 288 +
STACK CFI 96408 .cfa: sp 0 +
STACK CFI 9640c .cfa: x29 32 +
STACK CFI INIT 96410 1e8 .cfa: sp 0 +
STACK CFI 96414 .cfa: sp 112 +
STACK CFI 96428 .cfa: x29 64 + x19: .cfa -8 + ^ x20: .cfa -16 + ^ x21: .cfa -24 + ^ x22: .cfa -32 + ^ x23: .cfa -40 + ^ x24: .cfa -48 + ^ .ra: .cfa -56 + ^ x29: .cfa -64 + ^
STACK CFI 96518 .cfa: sp 112 +
STACK CFI 9652c .cfa: sp 0 +
STACK CFI 96530 .cfa: x29 64 +
STACK CFI INIT 965f8 38 .cfa: sp 0 +
STACK CFI INIT 96630 dc .cfa: sp 0 +
STACK CFI INIT 9670c 4 .cfa: sp 0 +
STACK CFI INIT 96710 1c .cfa: sp 0 +
STACK CFI 96714 .cfa: sp 16 +
STACK CFI 96718 .cfa: x29 16 + .ra: .cfa -8 + ^ x29: .cfa -16 + ^
STACK CFI 96724 .cfa: sp 16 +
STACK CFI 96728 .cfa: sp 0 +
STACK CFI INIT 9672c 88 .cfa: sp 0 +
STACK CFI 96730 .cfa: sp 48 +
STACK CFI 9673c .cfa: x29 48 + x19: .cfa -8 + ^ x20: .cfa -16 + ^ x21: .cfa -32 + ^ .ra: .cfa -40 + ^ x29: .cfa -48 + ^
STACK CFI 96768 .cfa: sp 48 +
STACK CFI 96774 .cfa: sp 0 +
STACK CFI 96778 .cfa: x29 48 +
STACK CFI 967a4 .cfa: sp 48 +
STACK CFI 967b0 .cfa: sp 0 +
STACK CFI INIT 967b4 4 .cfa: sp 0 +
STACK CFI INIT 967b8 4 .cfa: sp 0 +
STACK CFI INIT 967bc 2a0 .cfa: sp 0 +
STACK CFI 967c0 .cfa: sp 80 +
STACK CFI 967d4 .cfa: x29 80 + x19: .cfa -8 + ^ x20: .cfa -16 + ^ x21: .cfa -24 + ^ x22: .cfa -32 + ^ x23: .cfa -40 + ^ x24: .cfa -48 + ^ x25: .cfa -56 + ^ x26: .cfa -64 + ^ .ra: .cfa -72 + ^ x29: .cfa -80 + ^
STACK CFI 96820 .cfa: sp 80 +
STACK CFI 96834 .cfa: sp 0 +
STACK CFI 96838 .cfa: x29 80 +
STACK CFI 96974 .cfa: sp 80 +
STACK CFI 96988 .cfa: sp 0 +
STACK CFI 9698c .cfa: x29 80 +
STACK CFI 96a44 .cfa: sp 80 +
STACK CFI 96a58 .cfa: sp 0 +
STACK CFI INIT 96a5c f8 .cfa: sp 0 +
STACK CFI 96a60 .cfa: sp 96 +
STACK CFI 96a78 .cfa: x29 80 + x19: .cfa -8 + ^ x20: .cfa -16 + ^ x21: .cfa -24 + ^ x22: .cfa -32 + ^ x23: .cfa -40 + ^ x24: .cfa -48 + ^ x25: .cfa -64 + ^ .ra: .cfa -72 + ^ x29: .cfa -80 + ^
STACK CFI 96b34 .cfa: sp 96 +
STACK CFI 96b4c .cfa: sp 0 +
STACK CFI 96b50 .cfa: x29 80 +
STACK CFI INIT 96b54 d4 .cfa: sp 0 +
STACK CFI 96b58 .cfa: sp 64 +
STACK CFI 96b68 .cfa: x29 48 + x19: .cfa -8 + ^ x20: .cfa -16 + ^ x21: .cfa -24 + ^ x22: .cfa -32 + ^ .ra: .cfa -40 + ^ x29: .cfa -48 + ^
STACK CFI 96c14 .cfa: sp 64 +
STACK CFI 96c24 .cfa: sp 0 +
STACK CFI INIT 96c28 c8 .cfa: sp 0 +
STACK CFI INIT 96cf0 50 .cfa: sp 0 +
STACK CFI 96cf4 .cfa: sp 48 +
STACK CFI 96d00 .cfa: x29 32 + x19: .cfa -16 + ^ .ra: .cfa -24 + ^ x29: .cfa -32 + ^
STACK CFI 96d2c .cfa: sp 48 +
STACK CFI 96d38 .cfa: sp 0 +
STACK CFI 96d3c .cfa: x29 32 +
STACK CFI INIT 96d40 190 .cfa: sp 0 +
STACK CFI INIT 96ed0 84 .cfa: sp 0 +
STACK CFI INIT 96f54 20 .cfa: sp 0 +
STACK CFI INIT 96f74 80 .cfa: sp 0 +
STACK CFI 96f78 .cfa: sp 32 +
STACK CFI 96f80 .cfa: x29 32 + x19: .cfa -8 + ^ x20: .cfa -16 + ^ .ra: .cfa -24 + ^ x29: .cfa -32 + ^
STACK CFI 96fb8 .cfa: sp 32 +
STACK CFI 96fc0 .cfa: sp 0 +
STACK CFI 96fc4 .cfa: x29 32 +
STACK CFI 96fe8 .cfa: sp 32 +
STACK CFI 96ff0 .cfa: sp 0 +
STACK CFI INIT 96ff4 8c .cfa: sp 0 +
STACK CFI INIT 97080 50 .cfa: sp 0 +
STACK CFI INIT 970d0 94 .cfa: sp 0 +
STACK CFI INIT 97164 80 .cfa: sp 0 +
STACK CFI INIT 971e4 174 .cfa: sp 0 +
STACK CFI 971e8 .cfa: sp 64 +
STACK CFI 971fc .cfa: x29 40 + x19: .cfa -8 + ^ x20: .cfa -16 + ^ x21: .cfa -24 + ^ .ra: .cfa -32 + ^ x29: .cfa -40 + ^ v8: .cfa -48 + ^ v9: .cfa -56 + ^ v10: .cfa -64 + ^
STACK CFI 97220 .cfa: sp 64 +
STACK CFI 97234 .cfa: sp 0 +
STACK CFI 97238 .cfa: x29 40 +
STACK CFI 972d4 .cfa: sp 64 +
STACK CFI 972e8 .cfa: sp 0 +
STACK CFI 972ec .cfa: x29 40 +
STACK CFI 972f8 .cfa: sp 64 +
STACK CFI 9730c .cfa: sp 0 +
STACK CFI 97310 .cfa: x29 40 +
STACK CFI 9731c .cfa: sp 64 +
STACK CFI 97330 .cfa: sp 0 +
STACK CFI 97334 .cfa: x29 40 +
STACK CFI 97340 .cfa: sp 64 +
STACK CFI 97354 .cfa: sp 0 +
STACK CFI INIT 97358 3c .cfa: sp 0 +
STACK CFI INIT 97394 24 .cfa: sp 0 +
STACK CFI INIT 973b8 18 .cfa: sp 0 +
STACK CFI INIT 973d0 54 .cfa: sp 0 +
STACK CFI INIT 97424 5c .cfa: sp 0 +
STACK CFI INIT 97480 50 .cfa: sp 0 +
STACK CFI INIT 974d0 58 .cfa: sp 0 +
STACK CFI INIT 97528 110 .cfa: sp 0 +
STACK CFI 9752c .cfa: sp 64 +
STACK CFI 9753c .cfa: x29 64 + x19: .cfa -8 + ^ x20: .cfa -16 + ^ x21: .cfa -24 + ^ x22: .cfa -32 + ^ x23: .cfa -48 + ^ .ra: .cfa -56 + ^ x29: .cfa -64 + ^
STACK CFI 97624 .cfa: sp 64 +
STACK CFI 97634 .cfa: sp 0 +
STACK CFI INIT 97638 8 .cfa: sp 0 +
STACK CFI INIT 97640 110 .cfa: sp 0 +
STACK CFI 97644 .cfa: sp 64 +
STACK CFI 97654 .cfa: x29 48 + x19: .cfa -8 + ^ x20: .cfa -16 + ^ x21: .cfa -24 + ^ x22: .cfa -32 + ^ .ra: .cfa -40 + ^ x29: .cfa -48 + ^ v8: .cfa -64 + ^
STACK CFI 9773c .cfa: sp 64 +
STACK CFI 9774c .cfa: sp 0 +
STACK CFI INIT 97750 110 .cfa: sp 0 +
STACK CFI 97754 .cfa: sp 64 +
STACK CFI 97764 .cfa: x29 64 + x19: .cfa -8 + ^ x20: .cfa -16 + ^ x21: .cfa -24 + ^ x22: .cfa -32 + ^ x23: .cfa -48 + ^ .ra: .cfa -56 + ^ x29: .cfa -64 + ^
STACK CFI 9784c .cfa: sp 64 +
STACK CFI 9785c .cfa: sp 0 +
STACK CFI INIT 97860 11c .cfa: sp 0 +
STACK CFI 97864 .cfa: sp 64 +
STACK CFI 97874 .cfa: x29 64 + x19: .cfa -8 + ^ x20: .cfa -16 + ^ x21: .cfa -24 + ^ x22: .cfa -32 + ^ x23: .cfa -48 + ^ .ra: .cfa -56 + ^ x29: .cfa -64 + ^
STACK CFI 978d4 .cfa: sp 64 +
STACK CFI 978e4 .cfa: sp 0 +
STACK CFI 978e8 .cfa: x29 64 +
STACK CFI 97968 .cfa: sp 64 +
STACK CFI 97978 .cfa: sp 0 +
STACK CFI INIT 9797c 8 .cfa: sp 0 +
STACK CFI INIT 97984 11c .cfa: sp 0 +
STACK CFI 97988 .cfa: sp 64 +
STACK CFI 97998 .cfa: x29 48 + x19: .cfa -8 + ^ x20: .cfa -16 + ^ x21: .cfa -24 + ^ x22: .cfa -32 + ^ .ra: .cfa -40 + ^ x29: .cfa -48 + ^ v8: .cfa -64 + ^
STACK CFI 979f8 .cfa: sp 64 +
STACK CFI 97a08 .cfa: sp 0 +
STACK CFI 97a0c .cfa: x29 48 +
STACK CFI 97a8c .cfa: sp 64 +
STACK CFI 97a9c .cfa: sp 0 +
STACK CFI INIT 97aa0 11c .cfa: sp 0 +
STACK CFI 97aa4 .cfa: sp 64 +
STACK CFI 97ab4 .cfa: x29 64 + x19: .cfa -8 + ^ x20: .cfa -16 + ^ x21: .cfa -24 + ^ x22: .cfa -32 + ^ x23: .cfa -48 + ^ .ra: .cfa -56 + ^ x29: .cfa -64 + ^
STACK CFI 97b14 .cfa: sp 64 +
STACK CFI 97b24 .cfa: sp 0 +
STACK CFI 97b28 .cfa: x29 64 +
STACK CFI 97ba8 .cfa: sp 64 +
STACK CFI 97bb8 .cfa: sp 0 +
STACK CFI INIT 97bbc 34 .cfa: sp 0 +
STACK CFI INIT 97c40 150 .cfa: sp 0 +
STACK CFI 97c44 .cfa: sp 64 +
STACK CFI 97c50 .cfa: x29 32 + x19: .cfa -8 + ^ x20: .cfa -16 + ^ .ra: .cfa -24 + ^ x29: .cfa -32 + ^
STACK CFI 97d7c .cfa: sp 64 +
STACK CFI 97d88 .cfa: sp 0 +
STACK CFI 97d8c .cfa: x29 32 +
STACK CFI INIT 97e60 b4 .cfa: sp 0 +
STACK CFI 97e64 .cfa: sp 64 +
STACK CFI 97e74 .cfa: x29 48 + x19: .cfa -8 + ^ x20: .cfa -16 + ^ x21: .cfa -32 + ^ .ra: .cfa -40 + ^ x29: .cfa -48 + ^
STACK CFI 97efc .cfa: sp 64 +
STACK CFI 97f0c .cfa: sp 0 +
STACK CFI 97f10 .cfa: x29 48 +
STACK CFI INIT 97f14 28 .cfa: sp 0 +
STACK CFI INIT 97f3c 15c .cfa: sp 0 +
STACK CFI 97f40 .cfa: sp 64 +
STACK CFI 97f50 .cfa: x29 64 + x19: .cfa -8 + ^ x20: .cfa -16 + ^ x21: .cfa -24 + ^ x22: .cfa -32 + ^ x23: .cfa -48 + ^ .ra: .cfa -56 + ^ x29: .cfa -64 + ^
STACK CFI 97f74 .cfa: sp 64 +
STACK CFI 97f84 .cfa: sp 0 +
STACK CFI 97f88 .cfa: x29 64 +
STACK CFI 98084 .cfa: sp 64 +
STACK CFI 98094 .cfa: sp 0 +
STACK CFI INIT 98098 c0 .cfa: sp 0 +
STACK CFI 9809c .cfa: sp 64 +
STACK CFI 980ac .cfa: x29 64 + x19: .cfa -8 + ^ x20: .cfa -16 + ^ x21: .cfa -24 + ^ x22: .cfa -32 + ^ x23: .cfa -40 + ^ x24: .cfa -48 + ^ .ra: .cfa -56 + ^ x29: .cfa -64 + ^
STACK CFI 98128 .cfa: sp 64 +
STACK CFI 98138 .cfa: sp 0 +
STACK CFI 9813c .cfa: x29 64 +
STACK CFI 98144 .cfa: sp 64 +
STACK CFI 98154 .cfa: sp 0 +
STACK CFI INIT 98158 ec .cfa: sp 0 +
STACK CFI 9815c .cfa: sp 64 +
STACK CFI 9816c .cfa: x29 64 + x19: .cfa -8 + ^ x20: .cfa -16 + ^ x21: .cfa -24 + ^ x22: .cfa -32 + ^ x23: .cfa -48 + ^ .ra: .cfa -56 + ^ x29: .cfa -64 + ^
STACK CFI 98208 .cfa: sp 64 +
STACK CFI 98218 .cfa: sp 0 +
STACK CFI 9821c .cfa: x29 64 +
STACK CFI INIT 98244 1cc .cfa: sp 0 +
STACK CFI 98254 .cfa: sp 64 +
STACK CFI 98264 .cfa: x29 64 + x19: .cfa -8 + ^ x20: .cfa -16 + ^ x21: .cfa -24 + ^ x22: .cfa -32 + ^ x23: .cfa -48 + ^ .ra: .cfa -56 + ^ x29: .cfa -64 + ^
STACK CFI 983fc .cfa: sp 64 +
STACK CFI 9840c .cfa: sp 0 +
STACK CFI INIT 98410 94 .cfa: sp 0 +
STACK CFI 98414 .cfa: sp 288 +
STACK CFI 98420 .cfa: x29 32 + x19: .cfa -8 + ^ x28: .cfa -16 + ^ .ra: .cfa -24 + ^ x29: .cfa -32 + ^
STACK CFI 98490 .cfa: sp 288 +
STACK CFI 9849c .cfa: sp 0 +
STACK CFI 984a0 .cfa: x29 32 +
STACK CFI INIT 984a4 130 .cfa: sp 0 +
STACK CFI 984a8 .cfa: sp 144 +
STACK CFI 984bc .cfa: x29 64 + x19: .cfa -8 + ^ x20: .cfa -16 + ^ x21: .cfa -24 + ^ x22: .cfa -32 + ^ x23: .cfa -40 + ^ x24: .cfa -48 + ^ .ra: .cfa -56 + ^ x29: .cfa -64 + ^
STACK CFI 985b8 .cfa: sp 144 +
STACK CFI 985cc .cfa: sp 0 +
STACK CFI 985d0 .cfa: x29 64 +
STACK CFI INIT 985d4 144 .cfa: sp 0 +
STACK CFI 985e0 .cfa: sp 64 +
STACK CFI 985f0 .cfa: x29 64 + x19: .cfa -8 + ^ x20: .cfa -16 + ^ x21: .cfa -24 + ^ x22: .cfa -32 + ^ x23: .cfa -48 + ^ .ra: .cfa -56 + ^ x29: .cfa -64 + ^
STACK CFI 98704 .cfa: sp 64 +
STACK CFI 98714 .cfa: sp 0 +
STACK CFI INIT 98718 10 .cfa: sp 0 +
STACK CFI INIT 98740 168 .cfa: sp 0 +
STACK CFI 98744 .cfa: sp 80 +
STACK CFI 98758 .cfa: x29 64 + x19: .cfa -8 + ^ x20: .cfa -16 + ^ x21: .cfa -24 + ^ x22: .cfa -32 + ^ x23: .cfa -40 + ^ x24: .cfa -48 + ^ .ra: .cfa -56 + ^ x29: .cfa -64 + ^ v8: .cfa -72 + ^ v9: .cfa -80 + ^
STACK CFI 98890 .cfa: sp 80 +
STACK CFI 988a4 .cfa: sp 0 +
STACK CFI INIT 98c64 10 .cfa: sp 0 +
STACK CFI INIT 98d40 cc .cfa: sp 0 +
STACK CFI 98d44 .cfa: sp 48 +
STACK CFI 98d50 .cfa: x29 32 + x19: .cfa -8 + ^ x20: .cfa -16 + ^ .ra: .cfa -24 + ^ x29: .cfa -32 + ^ v8: .cfa -40 + ^ v9: .cfa -48 + ^
STACK CFI 98dfc .cfa: sp 48 +
STACK CFI 98e08 .cfa: sp 0 +
STACK CFI INIT 98e0c 9c .cfa: sp 0 +
STACK CFI 98e18 .cfa: sp 48 +
STACK CFI 98e24 .cfa: x29 48 + x19: .cfa -8 + ^ x20: .cfa -16 + ^ x21: .cfa -32 + ^ .ra: .cfa -40 + ^ x29: .cfa -48 + ^
STACK CFI 98e98 .cfa: sp 48 +
STACK CFI 98ea4 .cfa: sp 0 +
STACK CFI INIT 98ea8 88 .cfa: sp 0 +
STACK CFI 98eac .cfa: sp 32 +
STACK CFI 98eb4 .cfa: x29 32 + x19: .cfa -8 + ^ x20: .cfa -16 + ^ .ra: .cfa -24 + ^ x29: .cfa -32 + ^
STACK CFI 98f24 .cfa: sp 32 +
STACK CFI 98f2c .cfa: sp 0 +
STACK CFI INIT 98f30 9a8 .cfa: sp 0 +
STACK CFI 98f34 .cfa: sp 192 +
STACK CFI 98f5c .cfa: x29 96 + x19: .cfa -8 + ^ x20: .cfa -16 + ^ x21: .cfa -24 + ^ x22: .cfa -32 + ^ x23: .cfa -40 + ^ x24: .cfa -48 + ^ x25: .cfa -56 + ^ x26: .cfa -64 + ^ x27: .cfa -72 + ^ x28: .cfa -80 + ^ .ra: .cfa -88 + ^ x29: .cfa -96 + ^ v8: .cfa -104 + ^ v9: .cfa -112 + ^ v10: .cfa -120 + ^ v11: .cfa -128 + ^ v12: .cfa -144 + ^
STACK CFI 99078 .cfa: sp 192 +
STACK CFI 990a0 .cfa: sp 0 +
STACK CFI 990a4 .cfa: x29 96 +
STACK CFI INIT 998d8 18 .cfa: sp 0 +
STACK CFI INIT 998f0 bc .cfa: sp 0 +
STACK CFI INIT 999ac b0 .cfa: sp 0 +
STACK CFI INIT 99a5c 1c .cfa: sp 0 +
STACK CFI INIT 99a78 38 .cfa: sp 0 +
STACK CFI INIT 99ab0 138 .cfa: sp 0 +
STACK CFI 99ab4 .cfa: sp 112 +
STACK CFI 99acc .cfa: x29 80 + x19: .cfa -8 + ^ x20: .cfa -16 + ^ x21: .cfa -24 + ^ x22: .cfa -32 + ^ x23: .cfa -40 + ^ x24: .cfa -48 + ^ x25: .cfa -56 + ^ x26: .cfa -64 + ^ .ra: .cfa -72 + ^ x29: .cfa -80 + ^
STACK CFI 99bc8 .cfa: sp 112 +
STACK CFI 99be0 .cfa: sp 0 +
STACK CFI 99be4 .cfa: x29 80 +
STACK CFI INIT 99be8 114 .cfa: sp 0 +
STACK CFI 99bec .cfa: sp 112 +
STACK CFI 99c04 .cfa: x29 80 + x19: .cfa -8 + ^ x20: .cfa -16 + ^ x21: .cfa -24 + ^ x22: .cfa -32 + ^ x23: .cfa -40 + ^ x24: .cfa -48 + ^ x25: .cfa -56 + ^ x26: .cfa -64 + ^ .ra: .cfa -72 + ^ x29: .cfa -80 + ^
STACK CFI 99cc0 .cfa: sp 112 +
STACK CFI 99cc4 .cfa: x29 80 +
STACK CFI 99cdc .cfa: sp 112 +
STACK CFI 99cf4 .cfa: sp 0 +
STACK CFI 99cf8 .cfa: x29 80 +
STACK CFI INIT 99cfc 68 .cfa: sp 0 +
STACK CFI INIT 99d64 14 .cfa: sp 0 +
STACK CFI INIT 99d78 ec .cfa: sp 0 +
STACK CFI 99d7c .cfa: sp 80 +
STACK CFI 99d90 .cfa: x29 64 + x19: .cfa -8 + ^ x20: .cfa -16 + ^ x21: .cfa -24 + ^ x22: .cfa -32 + ^ x23: .cfa -40 + ^ x24: .cfa -48 + ^ .ra: .cfa -56 + ^ x29: .cfa -64 + ^ v8: .cfa -72 + ^ v9: .cfa -80 + ^
STACK CFI 99e4c .cfa: sp 80 +
STACK CFI 99e60 .cfa: sp 0 +
STACK CFI INIT 99e64 fc .cfa: sp 0 +
STACK CFI 99e68 .cfa: sp 80 +
STACK CFI 99e80 .cfa: x29 72 + x19: .cfa -8 + ^ x20: .cfa -16 + ^ x21: .cfa -24 + ^ x22: .cfa -32 + ^ x23: .cfa -40 + ^ x24: .cfa -48 + ^ x25: .cfa -56 + ^ .ra: .cfa -64 + ^ x29: .cfa -72 + ^ v8: .cfa -80 + ^
STACK CFI 99f44 .cfa: sp 80 +
STACK CFI 99f5c .cfa: sp 0 +
STACK CFI INIT 99f60 c4 .cfa: sp 0 +
STACK CFI INIT 9a024 24 .cfa: sp 0 +
STACK CFI INIT 9a048 48 .cfa: sp 0 +
STACK CFI INIT 9a090 250 .cfa: sp 0 +
STACK CFI 9a094 .cfa: sp 128 +
STACK CFI 9a0b0 .cfa: x29 72 + x19: .cfa -8 + ^ x20: .cfa -16 + ^ x21: .cfa -24 + ^ x22: .cfa -32 + ^ x23: .cfa -40 + ^ x24: .cfa -48 + ^ x25: .cfa -56 + ^ .ra: .cfa -64 + ^ x29: .cfa -72 + ^ v8: .cfa -80 + ^
STACK CFI 9a264 .cfa: sp 128 +
STACK CFI 9a280 .cfa: sp 0 +
STACK CFI 9a284 .cfa: x29 72 +
STACK CFI INIT 9a2e0 1d8 .cfa: sp 0 +
STACK CFI 9a2e4 .cfa: sp 112 +
STACK CFI 9a300 .cfa: x29 96 + x19: .cfa -8 + ^ x20: .cfa -16 + ^ x21: .cfa -24 + ^ x22: .cfa -32 + ^ x23: .cfa -40 + ^ x24: .cfa -48 + ^ x25: .cfa -56 + ^ x26: .cfa -64 + ^ x27: .cfa -72 + ^ x28: .cfa -80 + ^ .ra: .cfa -88 + ^ x29: .cfa -96 + ^ v8: .cfa -112 + ^
STACK CFI 9a498 .cfa: sp 112 +
STACK CFI 9a4b4 .cfa: sp 0 +
STACK CFI INIT 9a4b8 1e8 .cfa: sp 0 +
STACK CFI 9a4bc .cfa: sp 144 +
STACK CFI 9a4d8 .cfa: x29 80 + x19: .cfa -8 + ^ x20: .cfa -16 + ^ x21: .cfa -24 + ^ x22: .cfa -32 + ^ x23: .cfa -40 + ^ x24: .cfa -48 + ^ x25: .cfa -64 + ^ .ra: .cfa -72 + ^ x29: .cfa -80 + ^ v8: .cfa -88 + ^ v9: .cfa -96 + ^
STACK CFI 9a658 .cfa: sp 144 +
STACK CFI 9a674 .cfa: sp 0 +
STACK CFI 9a678 .cfa: x29 80 +
STACK CFI INIT 9a6a0 43c .cfa: sp 0 +
STACK CFI 9a6a4 .cfa: sp 192 +
STACK CFI 9a6c4 .cfa: x29 88 + x19: .cfa -8 + ^ x20: .cfa -16 + ^ x21: .cfa -24 + ^ x22: .cfa -32 + ^ x23: .cfa -40 + ^ x24: .cfa -48 + ^ x25: .cfa -56 + ^ x26: .cfa -64 + ^ x27: .cfa -72 + ^ .ra: .cfa -80 + ^ x29: .cfa -88 + ^ v8: .cfa -96 + ^
STACK CFI 9aab4 .cfa: sp 192 +
STACK CFI 9aad4 .cfa: sp 0 +
STACK CFI 9aad8 .cfa: x29 88 +
STACK CFI INIT 9aadc dc .cfa: sp 0 +
STACK CFI 9aae0 .cfa: sp 16 +
STACK CFI 9aae4 .cfa: x29 16 + .ra: .cfa -8 + ^ x29: .cfa -16 + ^
STACK CFI 9ab84 .cfa: sp 16 +
STACK CFI 9ab88 .cfa: sp 0 +
STACK CFI 9ab8c .cfa: x29 16 +
STACK CFI 9ab94 .cfa: sp 16 +
STACK CFI 9ab98 .cfa: sp 0 +
STACK CFI 9ab9c .cfa: x29 16 +
STACK CFI 9abb0 .cfa: sp 16 +
STACK CFI 9abb4 .cfa: sp 0 +
STACK CFI INIT 9abb8 d8 .cfa: sp 0 +
STACK CFI 9abbc .cfa: sp 48 +
STACK CFI 9abc8 .cfa: x29 48 + x19: .cfa -8 + ^ x20: .cfa -16 + ^ x21: .cfa -24 + ^ x22: .cfa -32 + ^ .ra: .cfa -40 + ^ x29: .cfa -48 + ^
STACK CFI 9ac64 .cfa: sp 48 +
STACK CFI 9ac70 .cfa: sp 0 +
STACK CFI 9ac74 .cfa: x29 48 +
STACK CFI 9ac80 .cfa: sp 48 +
STACK CFI 9ac8c .cfa: sp 0 +
STACK CFI INIT 9ac90 428 .cfa: sp 0 +
STACK CFI 9ac94 .cfa: sp 208 +
STACK CFI 9acc0 .cfa: x29 96 + x19: .cfa -8 + ^ x20: .cfa -16 + ^ x21: .cfa -24 + ^ x22: .cfa -32 + ^ x23: .cfa -40 + ^ x24: .cfa -48 + ^ x25: .cfa -56 + ^ x26: .cfa -64 + ^ x27: .cfa -72 + ^ x28: .cfa -80 + ^ .ra: .cfa -88 + ^ x29: .cfa -96 + ^ v8: .cfa -104 + ^ v9: .cfa -112 + ^ v10: .cfa -120 + ^ v11: .cfa -128 + ^ v12: .cfa -136 + ^ v13: .cfa -144 + ^ v14: .cfa -152 + ^ v15: .cfa -160 + ^
STACK CFI 9b084 .cfa: sp 208 +
STACK CFI 9b0b0 .cfa: sp 0 +
STACK CFI 9b0b4 .cfa: x29 96 +
STACK CFI INIT 9b0b8 264 .cfa: sp 0 +
STACK CFI 9b0bc .cfa: sp 176 +
STACK CFI 9b0e0 .cfa: x29 64 + x19: .cfa -8 + ^ x20: .cfa -16 + ^ x21: .cfa -24 + ^ x22: .cfa -32 + ^ x23: .cfa -48 + ^ .ra: .cfa -56 + ^ x29: .cfa -64 + ^ v8: .cfa -72 + ^ v9: .cfa -80 + ^ v10: .cfa -88 + ^ v11: .cfa -96 + ^ v12: .cfa -104 + ^ v13: .cfa -112 + ^ v14: .cfa -120 + ^ v15: .cfa -128 + ^
STACK CFI 9b2f0 .cfa: sp 176 +
STACK CFI 9b314 .cfa: sp 0 +
STACK CFI 9b318 .cfa: x29 64 +
STACK CFI INIT 9b31c 210 .cfa: sp 0 +
STACK CFI 9b320 .cfa: sp 160 +
STACK CFI 9b340 .cfa: x29 48 + x19: .cfa -8 + ^ x20: .cfa -16 + ^ x21: .cfa -32 + ^ .ra: .cfa -40 + ^ x29: .cfa -48 + ^ v8: .cfa -56 + ^ v9: .cfa -64 + ^ v10: .cfa -72 + ^ v11: .cfa -80 + ^ v12: .cfa -88 + ^ v13: .cfa -96 + ^ v14: .cfa -104 + ^ v15: .cfa -112 + ^
STACK CFI 9b504 .cfa: sp 160 +
STACK CFI 9b524 .cfa: sp 0 +
STACK CFI 9b528 .cfa: x29 48 +
STACK CFI INIT 9b52c 2e8 .cfa: sp 0 +
STACK CFI 9b530 .cfa: sp 96 +
STACK CFI 9b548 .cfa: x29 56 + x19: .cfa -8 + ^ x20: .cfa -16 + ^ x21: .cfa -24 + ^ x22: .cfa -32 + ^ x23: .cfa -40 + ^ .ra: .cfa -48 + ^ x29: .cfa -56 + ^ v8: .cfa -64 + ^
STACK CFI 9b7f4 .cfa: sp 96 +
STACK CFI 9b80c .cfa: sp 0 +
STACK CFI 9b810 .cfa: x29 56 +
STACK CFI INIT 9b814 3dc .cfa: sp 0 +
STACK CFI 9b818 .cfa: sp 288 +
STACK CFI 9b844 .cfa: x29 96 + x19: .cfa -8 + ^ x20: .cfa -16 + ^ x21: .cfa -24 + ^ x22: .cfa -32 + ^ x23: .cfa -40 + ^ x24: .cfa -48 + ^ x25: .cfa -56 + ^ x26: .cfa -64 + ^ x27: .cfa -72 + ^ x28: .cfa -80 + ^ .ra: .cfa -88 + ^ x29: .cfa -96 + ^ v8: .cfa -104 + ^ v9: .cfa -112 + ^ v10: .cfa -120 + ^ v11: .cfa -128 + ^ v12: .cfa -136 + ^ v13: .cfa -144 + ^ v14: .cfa -152 + ^ v15: .cfa -160 + ^
STACK CFI 9b88c .cfa: sp 288 +
STACK CFI 9b8b8 .cfa: sp 0 +
STACK CFI 9b8bc .cfa: x29 96 +
STACK CFI INIT 9bbf0 38 .cfa: sp 0 +
STACK CFI INIT 9bc28 10 .cfa: sp 0 +
STACK CFI INIT 9bc38 1c .cfa: sp 0 +
STACK CFI INIT 9bc54 28 .cfa: sp 0 +
STACK CFI INIT 9bc7c 104 .cfa: sp 0 +
STACK CFI 9bc80 .cfa: sp 48 +
STACK CFI 9bc8c .cfa: x29 48 + x19: .cfa -8 + ^ x20: .cfa -16 + ^ x21: .cfa -24 + ^ x22: .cfa -32 + ^ .ra: .cfa -40 + ^ x29: .cfa -48 + ^
STACK CFI 9bd70 .cfa: sp 48 +
STACK CFI 9bd7c .cfa: sp 0 +
STACK CFI INIT 9c994 5bc .cfa: sp 0 +
STACK CFI 9c998 .cfa: sp 80 +
STACK CFI 9c9ac .cfa: x29 80 + x19: .cfa -8 + ^ x20: .cfa -16 + ^ x21: .cfa -24 + ^ x22: .cfa -32 + ^ x23: .cfa -40 + ^ x24: .cfa -48 + ^ x25: .cfa -56 + ^ x26: .cfa -64 + ^ .ra: .cfa -72 + ^ x29: .cfa -80 + ^
STACK CFI 9cf38 .cfa: sp 80 +
STACK CFI 9cf4c .cfa: sp 0 +
STACK CFI INIT a0afc 158 .cfa: sp 0 +
STACK CFI a0b00 .cfa: sp 32 +
STACK CFI a0b08 .cfa: x29 32 + x19: .cfa -16 + ^ .ra: .cfa -24 + ^ x29: .cfa -32 + ^
STACK CFI a0c48 .cfa: sp 32 +
STACK CFI a0c50 .cfa: sp 0 +
STACK CFI INIT a0c54 128 .cfa: sp 0 +
STACK CFI a0c58 .cfa: sp 32 +
STACK CFI a0c60 .cfa: x29 32 + x19: .cfa -16 + ^ .ra: .cfa -24 + ^ x29: .cfa -32 + ^
STACK CFI a0d50 .cfa: sp 32 +
STACK CFI a0d58 .cfa: sp 0 +
STACK CFI a0d5c .cfa: x29 32 +
STACK CFI a0d70 .cfa: sp 32 +
STACK CFI a0d78 .cfa: sp 0 +
STACK CFI INIT a0d7c 1f0 .cfa: sp 0 +
STACK CFI a0d80 .cfa: sp 80 +
STACK CFI a0d90 .cfa: x29 48 + x19: .cfa -8 + ^ x20: .cfa -16 + ^ x21: .cfa -32 + ^ .ra: .cfa -40 + ^ x29: .cfa -48 + ^
STACK CFI a0f2c .cfa: sp 80 +
STACK CFI a0f3c .cfa: sp 0 +
STACK CFI a0f40 .cfa: x29 48 +
STACK CFI INIT a0f6c 164 .cfa: sp 0 +
STACK CFI INIT a10d0 34c .cfa: sp 0 +
STACK CFI a10d4 .cfa: sp 96 +
STACK CFI a10ec .cfa: x29 96 + x19: .cfa -8 + ^ x20: .cfa -16 + ^ x21: .cfa -24 + ^ x22: .cfa -32 + ^ x23: .cfa -40 + ^ x24: .cfa -48 + ^ x25: .cfa -56 + ^ x26: .cfa -64 + ^ x27: .cfa -72 + ^ x28: .cfa -80 + ^ .ra: .cfa -88 + ^ x29: .cfa -96 + ^
STACK CFI a1400 .cfa: sp 96 +
STACK CFI a1418 .cfa: sp 0 +
STACK CFI INIT a141c b0 .cfa: sp 0 +
STACK CFI a1420 .cfa: sp 48 +
STACK CFI a142c .cfa: x29 48 + x19: .cfa -8 + ^ x20: .cfa -16 + ^ x21: .cfa -32 + ^ .ra: .cfa -40 + ^ x29: .cfa -48 + ^
STACK CFI a14bc .cfa: sp 48 +
STACK CFI a14c8 .cfa: sp 0 +
STACK CFI INIT a14cc 38 .cfa: sp 0 +
STACK CFI INIT a1504 1c .cfa: sp 0 +
STACK CFI INIT a1520 160 .cfa: sp 0 +
STACK CFI a1524 .cfa: sp 64 +
STACK CFI a1534 .cfa: x29 64 + x19: .cfa -8 + ^ x20: .cfa -16 + ^ x21: .cfa -24 + ^ x22: .cfa -32 + ^ x23: .cfa -48 + ^ .ra: .cfa -56 + ^ x29: .cfa -64 + ^
STACK CFI a166c .cfa: sp 64 +
STACK CFI a167c .cfa: sp 0 +
STACK CFI INIT a1680 b8 .cfa: sp 0 +
STACK CFI a1684 .cfa: sp 80 +
STACK CFI a1690 .cfa: x29 32 + x19: .cfa -16 + ^ .ra: .cfa -24 + ^ x29: .cfa -32 + ^
STACK CFI a16fc .cfa: sp 80 +
STACK CFI a1708 .cfa: sp 0 +
STACK CFI a170c .cfa: x29 32 +
STACK CFI INIT a1738 4 .cfa: sp 0 +
STACK CFI INIT a17ec d4 .cfa: sp 0 +
STACK CFI a17f0 .cfa: sp 32 +
STACK CFI a17f8 .cfa: x29 32 + x19: .cfa -8 + ^ x20: .cfa -16 + ^ .ra: .cfa -24 + ^ x29: .cfa -32 + ^
STACK CFI a18b4 .cfa: sp 32 +
STACK CFI a18bc .cfa: sp 0 +
STACK CFI INIT a18c0 a8 .cfa: sp 0 +
STACK CFI a18c4 .cfa: sp 64 +
STACK CFI a18d4 .cfa: x29 48 + x19: .cfa -8 + ^ x20: .cfa -16 + ^ x21: .cfa -32 + ^ .ra: .cfa -40 + ^ x29: .cfa -48 + ^
STACK CFI a1950 .cfa: sp 64 +
STACK CFI a1960 .cfa: sp 0 +
STACK CFI a1964 .cfa: x29 48 +
STACK CFI INIT a1968 fc .cfa: sp 0 +
STACK CFI a196c .cfa: sp 96 +
STACK CFI a1984 .cfa: x29 96 + x19: .cfa -8 + ^ x20: .cfa -16 + ^ x21: .cfa -24 + ^ x22: .cfa -32 + ^ x23: .cfa -40 + ^ x24: .cfa -48 + ^ x25: .cfa -56 + ^ x26: .cfa -64 + ^ x27: .cfa -80 + ^ .ra: .cfa -88 + ^ x29: .cfa -96 + ^
STACK CFI a1a48 .cfa: sp 96 +
STACK CFI a1a60 .cfa: sp 0 +
STACK CFI INIT a1a64 130 .cfa: sp 0 +
STACK CFI a1a68 .cfa: sp 96 +
STACK CFI a1a80 .cfa: x29 96 + x19: .cfa -8 + ^ x20: .cfa -16 + ^ x21: .cfa -24 + ^ x22: .cfa -32 + ^ x23: .cfa -40 + ^ x24: .cfa -48 + ^ x25: .cfa -56 + ^ x26: .cfa -64 + ^ x27: .cfa -72 + ^ x28: .cfa -80 + ^ .ra: .cfa -88 + ^ x29: .cfa -96 + ^
STACK CFI a1b78 .cfa: sp 96 +
STACK CFI a1b90 .cfa: sp 0 +
STACK CFI INIT a1b94 6c .cfa: sp 0 +
STACK CFI a1ba4 .cfa: sp 48 +
STACK CFI a1bb0 .cfa: x29 48 + x19: .cfa -8 + ^ x20: .cfa -16 + ^ x21: .cfa -24 + ^ x22: .cfa -32 + ^ .ra: .cfa -40 + ^ x29: .cfa -48 + ^
STACK CFI a1bf0 .cfa: sp 48 +
STACK CFI a1bfc .cfa: sp 0 +
STACK CFI INIT a1c00 1d0 .cfa: sp 0 +
STACK CFI a1c04 .cfa: sp 48 +
STACK CFI a1c10 .cfa: x29 48 + x19: .cfa -8 + ^ x20: .cfa -16 + ^ x21: .cfa -24 + ^ x22: .cfa -32 + ^ .ra: .cfa -40 + ^ x29: .cfa -48 + ^
STACK CFI a1dc0 .cfa: sp 48 +
STACK CFI a1dcc .cfa: sp 0 +
STACK CFI INIT a1dd0 1f4 .cfa: sp 0 +
STACK CFI a1dd4 .cfa: sp 48 +
STACK CFI a1de0 .cfa: x29 48 + x19: .cfa -8 + ^ x20: .cfa -16 + ^ x21: .cfa -24 + ^ x22: .cfa -32 + ^ .ra: .cfa -40 + ^ x29: .cfa -48 + ^
STACK CFI a1fb4 .cfa: sp 48 +
STACK CFI a1fc0 .cfa: sp 0 +
STACK CFI INIT a1fc4 1f4 .cfa: sp 0 +
STACK CFI a1fc8 .cfa: sp 48 +
STACK CFI a1fd4 .cfa: x29 48 + x19: .cfa -8 + ^ x20: .cfa -16 + ^ x21: .cfa -24 + ^ x22: .cfa -32 + ^ .ra: .cfa -40 + ^ x29: .cfa -48 + ^
STACK CFI a21a8 .cfa: sp 48 +
STACK CFI a21b4 .cfa: sp 0 +
STACK CFI INIT a21b8 1a0 .cfa: sp 0 +
STACK CFI a21bc .cfa: sp 48 +
STACK CFI a21c8 .cfa: x29 48 + x19: .cfa -8 + ^ x20: .cfa -16 + ^ x21: .cfa -24 + ^ x22: .cfa -32 + ^ .ra: .cfa -40 + ^ x29: .cfa -48 + ^
STACK CFI a2348 .cfa: sp 48 +
STACK CFI a2354 .cfa: sp 0 +
STACK CFI INIT a2534 238 .cfa: sp 0 +
STACK CFI a2538 .cfa: sp 80 +
STACK CFI a254c .cfa: x29 80 + x19: .cfa -8 + ^ x20: .cfa -16 + ^ x21: .cfa -24 + ^ x22: .cfa -32 + ^ x23: .cfa -40 + ^ x24: .cfa -48 + ^ x25: .cfa -64 + ^ .ra: .cfa -72 + ^ x29: .cfa -80 + ^
STACK CFI a2754 .cfa: sp 80 +
STACK CFI a2768 .cfa: sp 0 +
STACK CFI INIT a276c 44 .cfa: sp 0 +
STACK CFI INIT a2c2c 134 .cfa: sp 0 +
STACK CFI a2c30 .cfa: sp 32 +
STACK CFI a2c38 .cfa: x29 32 + x19: .cfa -16 + ^ .ra: .cfa -24 + ^ x29: .cfa -32 + ^
STACK CFI a2d54 .cfa: sp 32 +
STACK CFI a2d5c .cfa: sp 0 +
STACK CFI INIT a3b1c 1b4 .cfa: sp 0 +
STACK CFI a3b20 .cfa: sp 64 +
STACK CFI a3b30 .cfa: x29 64 + x19: .cfa -8 + ^ x20: .cfa -16 + ^ x21: .cfa -24 + ^ x22: .cfa -32 + ^ x23: .cfa -48 + ^ .ra: .cfa -56 + ^ x29: .cfa -64 + ^
STACK CFI a3cbc .cfa: sp 64 +
STACK CFI a3ccc .cfa: sp 0 +
STACK CFI INIT a3cd0 32c .cfa: sp 0 +
STACK CFI a3cd4 .cfa: sp 48 +
STACK CFI a3ce0 .cfa: x29 48 + x19: .cfa -8 + ^ x20: .cfa -16 + ^ x21: .cfa -24 + ^ x22: .cfa -32 + ^ .ra: .cfa -40 + ^ x29: .cfa -48 + ^
STACK CFI a3fec .cfa: sp 48 +
STACK CFI a3ff8 .cfa: sp 0 +
STACK CFI INIT a3ffc 4c .cfa: sp 0 +
STACK CFI a4000 .cfa: sp 32 +
STACK CFI a4008 .cfa: x29 32 + x19: .cfa -8 + ^ x20: .cfa -16 + ^ .ra: .cfa -24 + ^ x29: .cfa -32 + ^
STACK CFI a403c .cfa: sp 32 +
STACK CFI a4044 .cfa: sp 0 +
STACK CFI INIT a4048 1c8 .cfa: sp 0 +
STACK CFI a4058 .cfa: sp 64 +
STACK CFI a4068 .cfa: x29 64 + x19: .cfa -8 + ^ x20: .cfa -16 + ^ x21: .cfa -24 + ^ x22: .cfa -32 + ^ x23: .cfa -48 + ^ .ra: .cfa -56 + ^ x29: .cfa -64 + ^
STACK CFI a41fc .cfa: sp 64 +
STACK CFI a420c .cfa: sp 0 +
STACK CFI INIT a4210 1d0 .cfa: sp 0 +
STACK CFI a4220 .cfa: sp 64 +
STACK CFI a4230 .cfa: x29 64 + x19: .cfa -8 + ^ x20: .cfa -16 + ^ x21: .cfa -24 + ^ x22: .cfa -32 + ^ x23: .cfa -48 + ^ .ra: .cfa -56 + ^ x29: .cfa -64 + ^
STACK CFI a43cc .cfa: sp 64 +
STACK CFI a43dc .cfa: sp 0 +
STACK CFI INIT a43e0 148 .cfa: sp 0 +
STACK CFI a43e4 .cfa: sp 48 +
STACK CFI a43f0 .cfa: x29 48 + x19: .cfa -8 + ^ x20: .cfa -16 + ^ x21: .cfa -24 + ^ x22: .cfa -32 + ^ .ra: .cfa -40 + ^ x29: .cfa -48 + ^
STACK CFI a4518 .cfa: sp 48 +
STACK CFI a4524 .cfa: sp 0 +
STACK CFI INIT a4528 c .cfa: sp 0 +
STACK CFI INIT a4534 34 .cfa: sp 0 +
STACK CFI INIT a4568 24 .cfa: sp 0 +
STACK CFI INIT a458c 4c .cfa: sp 0 +
STACK CFI INIT a45d8 9c .cfa: sp 0 +
STACK CFI INIT a4674 34 .cfa: sp 0 +
STACK CFI INIT a46a8 29c .cfa: sp 0 +
STACK CFI a46ac .cfa: sp 48 +
STACK CFI a46b8 .cfa: x29 32 + x19: .cfa -8 + ^ x20: .cfa -16 + ^ .ra: .cfa -24 + ^ x29: .cfa -32 + ^ v8: .cfa -48 + ^
STACK CFI a46f8 .cfa: sp 48 +
STACK CFI a4704 .cfa: sp 0 +
STACK CFI a4708 .cfa: x29 32 +
STACK CFI a491c .cfa: sp 48 +
STACK CFI a4928 .cfa: sp 0 +
STACK CFI a492c .cfa: x29 32 +
STACK CFI a4934 .cfa: sp 48 +
STACK CFI a4940 .cfa: sp 0 +
STACK CFI INIT a4944 58 .cfa: sp 0 +
STACK CFI INIT a499c 15c .cfa: sp 0 +
STACK CFI INIT a4af8 370 .cfa: sp 0 +
STACK CFI a4afc .cfa: sp 80 +
STACK CFI a4b10 .cfa: x29 80 + x19: .cfa -8 + ^ x20: .cfa -16 + ^ x21: .cfa -24 + ^ x22: .cfa -32 + ^ x23: .cfa -40 + ^ x24: .cfa -48 + ^ x25: .cfa -56 + ^ x26: .cfa -64 + ^ .ra: .cfa -72 + ^ x29: .cfa -80 + ^
STACK CFI a4bd4 .cfa: sp 80 +
STACK CFI a4be8 .cfa: sp 0 +
STACK CFI a4bec .cfa: x29 80 +
STACK CFI a4df0 .cfa: sp 80 +
STACK CFI a4e04 .cfa: sp 0 +
STACK CFI a4e08 .cfa: x29 80 +
STACK CFI a4e2c .cfa: sp 80 +
STACK CFI a4e40 .cfa: sp 0 +
STACK CFI a4e44 .cfa: x29 80 +
STACK CFI a4e50 .cfa: sp 80 +
STACK CFI a4e64 .cfa: sp 0 +
STACK CFI INIT a4e68 dc .cfa: sp 0 +
STACK CFI INIT a4f44 f0 .cfa: sp 0 +
STACK CFI a4f48 .cfa: sp 368 +
STACK CFI a4f58 .cfa: x29 48 + x19: .cfa -8 + ^ x20: .cfa -16 + ^ x28: .cfa -32 + ^ .ra: .cfa -40 + ^ x29: .cfa -48 + ^
STACK CFI a501c .cfa: sp 368 +
STACK CFI a502c .cfa: sp 0 +
STACK CFI a5030 .cfa: x29 48 +
STACK CFI INIT a5034 1f0 .cfa: sp 0 +
STACK CFI a5038 .cfa: sp 48 +
STACK CFI a5044 .cfa: x29 48 + x19: .cfa -8 + ^ x20: .cfa -16 + ^ x21: .cfa -24 + ^ x22: .cfa -32 + ^ .ra: .cfa -40 + ^ x29: .cfa -48 + ^
STACK CFI a51f0 .cfa: sp 48 +
STACK CFI a51fc .cfa: sp 0 +
STACK CFI a5200 .cfa: x29 48 +
STACK CFI INIT a5224 a0 .cfa: sp 0 +
STACK CFI INIT a52c4 30 .cfa: sp 0 +
STACK CFI INIT a52f4 58 .cfa: sp 0 +
STACK CFI INIT a534c 84 .cfa: sp 0 +
STACK CFI INIT a53d0 28 .cfa: sp 0 +
STACK CFI INIT a53f8 24 .cfa: sp 0 +
STACK CFI INIT a541c c .cfa: sp 0 +
STACK CFI INIT a5428 14 .cfa: sp 0 +
STACK CFI INIT a543c 18 .cfa: sp 0 +
STACK CFI INIT a5454 24 .cfa: sp 0 +
STACK CFI INIT a5478 14 .cfa: sp 0 +
STACK CFI INIT a548c 18 .cfa: sp 0 +
STACK CFI INIT a54a4 38 .cfa: sp 0 +
STACK CFI INIT a54dc 1e8 .cfa: sp 0 +
STACK CFI a54e0 .cfa: sp 96 +
STACK CFI a54f8 .cfa: x29 80 + x19: .cfa -8 + ^ x20: .cfa -16 + ^ x21: .cfa -24 + ^ x22: .cfa -32 + ^ x23: .cfa -40 + ^ x24: .cfa -48 + ^ x25: .cfa -56 + ^ x26: .cfa -64 + ^ .ra: .cfa -72 + ^ x29: .cfa -80 + ^
STACK CFI a5550 .cfa: sp 96 +
STACK CFI a5568 .cfa: sp 0 +
STACK CFI a556c .cfa: x29 80 +
STACK CFI INIT a56c4 18 .cfa: sp 0 +
STACK CFI INIT a56dc e4 .cfa: sp 0 +
STACK CFI a56e0 .cfa: sp 48 +
STACK CFI a56ec .cfa: x29 48 + x19: .cfa -8 + ^ x20: .cfa -16 + ^ x21: .cfa -24 + ^ x22: .cfa -32 + ^ .ra: .cfa -40 + ^ x29: .cfa -48 + ^
STACK CFI a57b0 .cfa: sp 48 +
STACK CFI a57bc .cfa: sp 0 +
STACK CFI INIT a57c0 7e0 .cfa: sp 0 +
STACK CFI a57c4 .cfa: sp 64 +
STACK CFI a57d4 .cfa: x29 64 + x19: .cfa -8 + ^ x20: .cfa -16 + ^ x21: .cfa -24 + ^ x22: .cfa -32 + ^ x23: .cfa -40 + ^ x24: .cfa -48 + ^ .ra: .cfa -56 + ^ x29: .cfa -64 + ^
STACK CFI a5ce0 .cfa: sp 64 +
STACK CFI a5cf0 .cfa: sp 0 +
STACK CFI a5cf4 .cfa: x29 64 +
STACK CFI a5f00 .cfa: sp 64 +
STACK CFI a5f10 .cfa: sp 0 +
STACK CFI a5f14 .cfa: x29 64 +
STACK CFI a5f8c .cfa: sp 64 +
STACK CFI a5f9c .cfa: sp 0 +
STACK CFI INIT a5fa0 30 .cfa: sp 0 +
STACK CFI INIT a5fd0 1f4 .cfa: sp 0 +
STACK CFI a5fd4 .cfa: sp 96 +
STACK CFI a5fe4 .cfa: x29 48 + x19: .cfa -8 + ^ x20: .cfa -16 + ^ x21: .cfa -24 + ^ x22: .cfa -32 + ^ .ra: .cfa -40 + ^ x29: .cfa -48 + ^
STACK CFI a60e0 .cfa: sp 96 +
STACK CFI a60f0 .cfa: sp 0 +
STACK CFI a60f4 .cfa: x29 48 +
STACK CFI a61ac .cfa: sp 96 +
STACK CFI a61bc .cfa: sp 0 +
STACK CFI a61c0 .cfa: x29 48 +
STACK CFI INIT a61c4 c .cfa: sp 0 +
STACK CFI INIT a61d0 48 .cfa: sp 0 +
STACK CFI INIT a6218 f4 .cfa: sp 0 +
STACK CFI a621c .cfa: sp 96 +
STACK CFI a622c .cfa: x29 48 + x19: .cfa -8 + ^ x20: .cfa -16 + ^ x21: .cfa -24 + ^ x22: .cfa -32 + ^ .ra: .cfa -40 + ^ x29: .cfa -48 + ^
STACK CFI a62f4 .cfa: sp 96 +
STACK CFI a6304 .cfa: sp 0 +
STACK CFI a6308 .cfa: x29 48 +
STACK CFI INIT a630c 278 .cfa: sp 0 +
STACK CFI a6310 .cfa: sp 48 +
STACK CFI a631c .cfa: x29 48 + x19: .cfa -8 + ^ x20: .cfa -16 + ^ x21: .cfa -32 + ^ .ra: .cfa -40 + ^ x29: .cfa -48 + ^
STACK CFI a63a8 .cfa: sp 48 +
STACK CFI a63b4 .cfa: sp 0 +
STACK CFI a63b8 .cfa: x29 48 +
STACK CFI a6450 .cfa: sp 48 +
STACK CFI a645c .cfa: sp 0 +
STACK CFI a6460 .cfa: x29 48 +
STACK CFI a655c .cfa: sp 48 +
STACK CFI a6568 .cfa: sp 0 +
STACK CFI a656c .cfa: x29 48 +
STACK CFI a6574 .cfa: sp 48 +
STACK CFI a6580 .cfa: sp 0 +
STACK CFI INIT a6584 48 .cfa: sp 0 +
STACK CFI INIT a65cc 34 .cfa: sp 0 +
STACK CFI INIT a6600 bc .cfa: sp 0 +
STACK CFI INIT a66bc 31c .cfa: sp 0 +
STACK CFI a6730 .cfa: sp 48 +
STACK CFI a673c .cfa: x29 48 + x19: .cfa -8 + ^ x20: .cfa -16 + ^ x21: .cfa -32 + ^ .ra: .cfa -40 + ^ x29: .cfa -48 + ^
STACK CFI a6790 .cfa: sp 48 +
STACK CFI a679c .cfa: sp 0 +
STACK CFI a67b0 .cfa: x29 48 +
STACK CFI a6828 .cfa: sp 48 +
STACK CFI a6834 .cfa: sp 0 +
STACK CFI a683c .cfa: x29 48 +
STACK CFI a696c .cfa: sp 48 +
STACK CFI a6978 .cfa: sp 0 +
STACK CFI a6980 .cfa: x29 48 +
STACK CFI a6984 .cfa: sp 48 +
STACK CFI a6990 .cfa: sp 0 +
STACK CFI a6998 .cfa: x29 48 +
STACK CFI a69c4 .cfa: sp 48 +
STACK CFI a69d0 .cfa: sp 0 +
STACK CFI INIT a69d8 34 .cfa: sp 0 +
STACK CFI INIT a6a0c 2d4 .cfa: sp 0 +
STACK CFI a6a10 .cfa: sp 64 +
STACK CFI a6a20 .cfa: x29 64 + x19: .cfa -8 + ^ x20: .cfa -16 + ^ x21: .cfa -24 + ^ x22: .cfa -32 + ^ x23: .cfa -48 + ^ .ra: .cfa -56 + ^ x29: .cfa -64 + ^
STACK CFI a6a4c .cfa: sp 64 +
STACK CFI a6a5c .cfa: sp 0 +
STACK CFI a6a60 .cfa: x29 64 +
STACK CFI a6ccc .cfa: sp 64 +
STACK CFI a6cdc .cfa: sp 0 +
STACK CFI INIT a6ce0 b4 .cfa: sp 0 +
STACK CFI INIT a6d94 64 .cfa: sp 0 +
STACK CFI INIT a6df8 6c .cfa: sp 0 +
STACK CFI INIT a6e64 100 .cfa: sp 0 +
STACK CFI a6e68 .cfa: sp 32 +
STACK CFI a6e70 .cfa: x29 32 + x19: .cfa -8 + ^ x20: .cfa -16 + ^ .ra: .cfa -24 + ^ x29: .cfa -32 + ^
STACK CFI a6f2c .cfa: sp 32 +
STACK CFI a6f34 .cfa: sp 0 +
STACK CFI a6f38 .cfa: x29 32 +
STACK CFI a6f58 .cfa: sp 32 +
STACK CFI a6f60 .cfa: sp 0 +
STACK CFI INIT a6f64 3e4 .cfa: sp 0 +
STACK CFI a6f68 .cfa: sp 80 +
STACK CFI a6f7c .cfa: x29 80 + x19: .cfa -8 + ^ x20: .cfa -16 + ^ x21: .cfa -24 + ^ x22: .cfa -32 + ^ x23: .cfa -40 + ^ x24: .cfa -48 + ^ x25: .cfa -64 + ^ .ra: .cfa -72 + ^ x29: .cfa -80 + ^
STACK CFI a7330 .cfa: sp 80 +
STACK CFI a7344 .cfa: sp 0 +
STACK CFI INIT a7348 1ec .cfa: sp 0 +
STACK CFI a739c .cfa: sp 16 +
STACK CFI a7530 .cfa: sp 0 +
STACK CFI INIT a7534 5828 .cfa: sp 0 +
STACK CFI a7538 .cfa: sp 288 +
STACK CFI a755c .cfa: x29 96 + x19: .cfa -8 + ^ x20: .cfa -16 + ^ x21: .cfa -24 + ^ x22: .cfa -32 + ^ x23: .cfa -40 + ^ x24: .cfa -48 + ^ x25: .cfa -56 + ^ x26: .cfa -64 + ^ x27: .cfa -72 + ^ x28: .cfa -80 + ^ .ra: .cfa -88 + ^ x29: .cfa -96 + ^ v8: .cfa -104 + ^ v9: .cfa -112 + ^ v10: .cfa -128 + ^
STACK CFI accfc .cfa: sp 288 +
STACK CFI acd20 .cfa: sp 0 +
STACK CFI acd24 .cfa: x29 96 +
STACK CFI INIT acd5c 970 .cfa: sp 0 +
STACK CFI acd60 .cfa: sp 240 +
STACK CFI acd80 .cfa: x29 96 + x19: .cfa -8 + ^ x20: .cfa -16 + ^ x21: .cfa -24 + ^ x22: .cfa -32 + ^ x23: .cfa -40 + ^ x24: .cfa -48 + ^ x25: .cfa -56 + ^ x26: .cfa -64 + ^ x27: .cfa -72 + ^ x28: .cfa -80 + ^ .ra: .cfa -88 + ^ x29: .cfa -96 + ^ v8: .cfa -112 + ^
STACK CFI ad6a4 .cfa: sp 240 +
STACK CFI ad6c4 .cfa: sp 0 +
STACK CFI ad6c8 .cfa: x29 96 +
STACK CFI INIT ad6cc 9c .cfa: sp 0 +
STACK CFI INIT ad768 198 .cfa: sp 0 +
STACK CFI ad76c .cfa: sp 48 +
STACK CFI ad778 .cfa: x29 48 + x19: .cfa -8 + ^ x20: .cfa -16 + ^ x21: .cfa -24 + ^ x22: .cfa -32 + ^ .ra: .cfa -40 + ^ x29: .cfa -48 + ^
STACK CFI ad814 .cfa: sp 48 +
STACK CFI ad820 .cfa: sp 0 +
STACK CFI ad824 .cfa: x29 48 +
STACK CFI ad8f0 .cfa: sp 48 +
STACK CFI ad8fc .cfa: sp 0 +
STACK CFI INIT ad900 e8 .cfa: sp 0 +
STACK CFI INIT ad9e8 120 .cfa: sp 0 +
STACK CFI ad9f4 .cfa: sp 64 +
STACK CFI ada04 .cfa: x29 64 + x19: .cfa -8 + ^ x20: .cfa -16 + ^ x21: .cfa -24 + ^ x22: .cfa -32 + ^ x23: .cfa -48 + ^ .ra: .cfa -56 + ^ x29: .cfa -64 + ^
STACK CFI adaf4 .cfa: sp 64 +
STACK CFI adb04 .cfa: sp 0 +
STACK CFI INIT adb08 38 .cfa: sp 0 +
STACK CFI INIT adb40 597c .cfa: sp 0 +
STACK CFI adb44 .cfa: sp 160 +
STACK CFI adb6c .cfa: x29 96 + x19: .cfa -8 + ^ x20: .cfa -16 + ^ x21: .cfa -24 + ^ x22: .cfa -32 + ^ x23: .cfa -40 + ^ x24: .cfa -48 + ^ x25: .cfa -56 + ^ x26: .cfa -64 + ^ x27: .cfa -72 + ^ x28: .cfa -80 + ^ .ra: .cfa -88 + ^ x29: .cfa -96 + ^ v8: .cfa -104 + ^ v9: .cfa -112 + ^ v10: .cfa -120 + ^ v11: .cfa -128 + ^ v12: .cfa -136 + ^ v13: .cfa -144 + ^ v14: .cfa -152 + ^ v15: .cfa -160 + ^
STACK CFI b25d0 .cfa: sp 160 +
STACK CFI b25f8 .cfa: sp 0 +
STACK CFI b25fc .cfa: x29 96 +
STACK CFI INIT b34bc 5c .cfa: sp 0 +
STACK CFI b34c0 .cfa: sp 32 +
STACK CFI b34c8 .cfa: x29 32 + x19: .cfa -16 + ^ .ra: .cfa -24 + ^ x29: .cfa -32 + ^
STACK CFI b350c .cfa: sp 32 +
STACK CFI b3514 .cfa: sp 0 +
STACK CFI INIT b3518 50 .cfa: sp 0 +
STACK CFI b351c .cfa: sp 32 +
STACK CFI b3524 .cfa: x29 32 + x19: .cfa -16 + ^ .ra: .cfa -24 + ^ x29: .cfa -32 + ^
STACK CFI b355c .cfa: sp 32 +
STACK CFI b3564 .cfa: sp 0 +
STACK CFI INIT b3568 c8 .cfa: sp 0 +
STACK CFI INIT b3630 58 .cfa: sp 0 +
STACK CFI INIT b3688 b68 .cfa: sp 0 +
STACK CFI b368c .cfa: sp 144 +
STACK CFI b36ac .cfa: x29 96 + x19: .cfa -8 + ^ x20: .cfa -16 + ^ x21: .cfa -24 + ^ x22: .cfa -32 + ^ x23: .cfa -40 + ^ x24: .cfa -48 + ^ x25: .cfa -56 + ^ x26: .cfa -64 + ^ x27: .cfa -72 + ^ x28: .cfa -80 + ^ .ra: .cfa -88 + ^ x29: .cfa -96 + ^ v8: .cfa -104 + ^ v9: .cfa -112 + ^
STACK CFI b4028 .cfa: sp 144 +
STACK CFI b4048 .cfa: sp 0 +
STACK CFI b404c .cfa: x29 96 +
STACK CFI INIT b41f0 4c .cfa: sp 0 +
STACK CFI INIT b423c 18 .cfa: sp 0 +
STACK CFI INIT b4254 36c .cfa: sp 0 +
STACK CFI b4258 .cfa: sp 80 +
STACK CFI b426c .cfa: x29 80 + x19: .cfa -8 + ^ x20: .cfa -16 + ^ x21: .cfa -24 + ^ x22: .cfa -32 + ^ x23: .cfa -40 + ^ x24: .cfa -48 + ^ x25: .cfa -64 + ^ .ra: .cfa -72 + ^ x29: .cfa -80 + ^
STACK CFI b4298 .cfa: sp 80 +
STACK CFI b42ac .cfa: sp 0 +
STACK CFI b42b0 .cfa: x29 80 +
STACK CFI b457c .cfa: sp 80 +
STACK CFI b4590 .cfa: sp 0 +
STACK CFI b4594 .cfa: x29 80 +
STACK CFI b45a8 .cfa: sp 80 +
STACK CFI b45bc .cfa: sp 0 +
STACK CFI INIT b45c0 204 .cfa: sp 0 +
STACK CFI b45c4 .cfa: sp 144 +
STACK CFI b45e4 .cfa: x29 96 + x19: .cfa -8 + ^ x20: .cfa -16 + ^ x21: .cfa -24 + ^ x22: .cfa -32 + ^ x23: .cfa -40 + ^ x24: .cfa -48 + ^ x25: .cfa -56 + ^ x26: .cfa -64 + ^ x27: .cfa -72 + ^ x28: .cfa -80 + ^ .ra: .cfa -88 + ^ x29: .cfa -96 + ^ v8: .cfa -104 + ^ v9: .cfa -112 + ^
STACK CFI b479c .cfa: sp 144 +
STACK CFI b47bc .cfa: sp 0 +
STACK CFI b47c0 .cfa: x29 96 +
STACK CFI INIT b47c4 5c .cfa: sp 0 +
STACK CFI INIT b4820 9c .cfa: sp 0 +
STACK CFI INIT b48bc 15c .cfa: sp 0 +
STACK CFI b48c0 .cfa: sp 48 +
STACK CFI b48cc .cfa: x29 48 + x19: .cfa -8 + ^ x20: .cfa -16 + ^ x21: .cfa -32 + ^ .ra: .cfa -40 + ^ x29: .cfa -48 + ^
STACK CFI b4a08 .cfa: sp 48 +
STACK CFI b4a14 .cfa: sp 0 +
STACK CFI INIT b4a18 1c8 .cfa: sp 0 +
STACK CFI b4a28 .cfa: sp 64 +
STACK CFI b4a38 .cfa: x29 64 + x19: .cfa -8 + ^ x20: .cfa -16 + ^ x21: .cfa -24 + ^ x22: .cfa -32 + ^ x23: .cfa -48 + ^ .ra: .cfa -56 + ^ x29: .cfa -64 + ^
STACK CFI b4bcc .cfa: sp 64 +
STACK CFI b4bdc .cfa: sp 0 +
STACK CFI INIT b4be0 e4 .cfa: sp 0 +
STACK CFI b4be4 .cfa: sp 48 +
STACK CFI b4bf0 .cfa: x29 48 + x19: .cfa -8 + ^ x20: .cfa -16 + ^ x21: .cfa -24 + ^ x22: .cfa -32 + ^ .ra: .cfa -40 + ^ x29: .cfa -48 + ^
STACK CFI b4cb4 .cfa: sp 48 +
STACK CFI b4cc0 .cfa: sp 0 +
STACK CFI INIT b4cc4 b70 .cfa: sp 0 +
STACK CFI b4cc8 .cfa: sp 208 +
STACK CFI b4cf0 .cfa: x29 96 + x19: .cfa -8 + ^ x20: .cfa -16 + ^ x21: .cfa -24 + ^ x22: .cfa -32 + ^ x23: .cfa -40 + ^ x24: .cfa -48 + ^ x25: .cfa -56 + ^ x26: .cfa -64 + ^ x27: .cfa -72 + ^ x28: .cfa -80 + ^ .ra: .cfa -88 + ^ x29: .cfa -96 + ^ v8: .cfa -104 + ^ v9: .cfa -112 + ^ v10: .cfa -120 + ^ v11: .cfa -128 + ^ v12: .cfa -136 + ^ v13: .cfa -144 + ^
STACK CFI b5804 .cfa: sp 208 +
STACK CFI b582c .cfa: sp 0 +
STACK CFI b5830 .cfa: x29 96 +
STACK CFI INIT b5834 34 .cfa: sp 0 +
STACK CFI INIT b5868 44 .cfa: sp 0 +
STACK CFI INIT b58ac 54 .cfa: sp 0 +
STACK CFI INIT b5900 8c .cfa: sp 0 +
STACK CFI INIT b598c b4 .cfa: sp 0 +
STACK CFI INIT b5a40 1c .cfa: sp 0 +
STACK CFI INIT b5a5c 1c .cfa: sp 0 +
STACK CFI INIT b5a78 30 .cfa: sp 0 +
STACK CFI INIT b5aa8 20 .cfa: sp 0 +
STACK CFI INIT b5ac8 30 .cfa: sp 0 +
STACK CFI INIT b5af8 1c .cfa: sp 0 +
STACK CFI INIT b5b14 1c .cfa: sp 0 +
STACK CFI INIT b5b30 20 .cfa: sp 0 +
STACK CFI INIT b5b50 54 .cfa: sp 0 +
STACK CFI INIT b5ba4 20 .cfa: sp 0 +
STACK CFI INIT b5bc4 18 .cfa: sp 0 +
STACK CFI INIT b5bdc 1c .cfa: sp 0 +
STACK CFI INIT b5bf8 1c .cfa: sp 0 +
STACK CFI INIT b5c14 24 .cfa: sp 0 +
STACK CFI INIT b5c38 100 .cfa: sp 0 +
STACK CFI b5c3c .cfa: sp 64 +
STACK CFI b5c4c .cfa: x29 64 + x19: .cfa -8 + ^ x20: .cfa -16 + ^ x21: .cfa -24 + ^ x22: .cfa -32 + ^ x23: .cfa -48 + ^ .ra: .cfa -56 + ^ x29: .cfa -64 + ^
STACK CFI b5d24 .cfa: sp 64 +
STACK CFI b5d34 .cfa: sp 0 +
STACK CFI INIT b5d38 744 .cfa: sp 0 +
STACK CFI b5d3c .cfa: sp 192 +
STACK CFI b5d5c .cfa: x29 96 + x19: .cfa -8 + ^ x20: .cfa -16 + ^ x21: .cfa -24 + ^ x22: .cfa -32 + ^ x23: .cfa -40 + ^ x24: .cfa -48 + ^ x25: .cfa -56 + ^ x26: .cfa -64 + ^ x27: .cfa -72 + ^ x28: .cfa -80 + ^ .ra: .cfa -88 + ^ x29: .cfa -96 + ^ v8: .cfa -104 + ^ v9: .cfa -112 + ^
STACK CFI b6454 .cfa: sp 192 +
STACK CFI b6474 .cfa: sp 0 +
STACK CFI b6478 .cfa: x29 96 +
STACK CFI INIT b647c 1c .cfa: sp 0 +
STACK CFI INIT b6498 50 .cfa: sp 0 +
STACK CFI INIT b64e8 88 .cfa: sp 0 +
STACK CFI INIT b6570 16c .cfa: sp 0 +
STACK CFI b6574 .cfa: sp 48 +
STACK CFI b6580 .cfa: x29 48 + x19: .cfa -8 + ^ x20: .cfa -16 + ^ x21: .cfa -24 + ^ x22: .cfa -32 + ^ .ra: .cfa -40 + ^ x29: .cfa -48 + ^
STACK CFI b65d4 .cfa: sp 48 +
STACK CFI b65e0 .cfa: sp 0 +
STACK CFI b65e4 .cfa: x29 48 +
STACK CFI b668c .cfa: sp 48 +
STACK CFI b6698 .cfa: sp 0 +
STACK CFI b669c .cfa: x29 48 +
STACK CFI b66ac .cfa: sp 48 +
STACK CFI b66b8 .cfa: sp 0 +
STACK CFI b66bc .cfa: x29 48 +
STACK CFI b66cc .cfa: sp 48 +
STACK CFI b66d8 .cfa: sp 0 +
STACK CFI INIT b66dc 1cc .cfa: sp 0 +
STACK CFI b66e0 .cfa: sp 144 +
STACK CFI b66fc .cfa: x29 80 + x19: .cfa -8 + ^ x20: .cfa -16 + ^ x21: .cfa -24 + ^ x22: .cfa -32 + ^ x23: .cfa -40 + ^ x24: .cfa -48 + ^ x25: .cfa -56 + ^ x26: .cfa -64 + ^ .ra: .cfa -72 + ^ x29: .cfa -80 + ^ v8: .cfa -88 + ^ v9: .cfa -96 + ^
STACK CFI b6884 .cfa: sp 144 +
STACK CFI b68a0 .cfa: sp 0 +
STACK CFI b68a4 .cfa: x29 80 +
STACK CFI INIT b68a8 120 .cfa: sp 0 +
STACK CFI INIT b69c8 8dc .cfa: sp 0 +
STACK CFI b69cc .cfa: sp 160 +
STACK CFI b69e8 .cfa: x29 96 + x19: .cfa -8 + ^ x20: .cfa -16 + ^ x21: .cfa -24 + ^ x22: .cfa -32 + ^ x23: .cfa -40 + ^ x24: .cfa -48 + ^ x25: .cfa -56 + ^ x26: .cfa -64 + ^ x27: .cfa -80 + ^ .ra: .cfa -88 + ^ x29: .cfa -96 + ^
STACK CFI b6da0 .cfa: sp 160 +
STACK CFI b6dbc .cfa: sp 0 +
STACK CFI b6dc0 .cfa: x29 96 +
STACK CFI INIT b72a4 68 .cfa: sp 0 +
STACK CFI INIT b730c e8 .cfa: sp 0 +
STACK CFI INIT b73f4 118 .cfa: sp 0 +
STACK CFI b73f8 .cfa: sp 48 +
STACK CFI b7404 .cfa: x29 32 + x19: .cfa -8 + ^ x20: .cfa -16 + ^ .ra: .cfa -24 + ^ x29: .cfa -32 + ^
STACK CFI b74f8 .cfa: sp 48 +
STACK CFI b7504 .cfa: sp 0 +
STACK CFI b7508 .cfa: x29 32 +
STACK CFI INIT b750c 274 .cfa: sp 0 +
STACK CFI b753c .cfa: sp 112 +
STACK CFI b754c .cfa: x29 48 + x19: .cfa -8 + ^ x20: .cfa -16 + ^ x21: .cfa -32 + ^ .ra: .cfa -40 + ^ x29: .cfa -48 + ^
STACK CFI b7768 .cfa: sp 112 +
STACK CFI b7778 .cfa: sp 0 +
STACK CFI INIT b7780 1bc .cfa: sp 0 +
STACK CFI b7784 .cfa: sp 96 +
STACK CFI b7794 .cfa: x29 48 + x19: .cfa -8 + ^ x20: .cfa -16 + ^ x21: .cfa -32 + ^ .ra: .cfa -40 + ^ x29: .cfa -48 + ^
STACK CFI b7924 .cfa: sp 96 +
STACK CFI b7934 .cfa: sp 0 +
STACK CFI b7938 .cfa: x29 48 +
STACK CFI INIT b793c f0 .cfa: sp 0 +
STACK CFI INIT b7a2c f4 .cfa: sp 0 +
STACK CFI INIT b7b20 98 .cfa: sp 0 +
STACK CFI INIT b7bb8 84 .cfa: sp 0 +
STACK CFI INIT b7c3c cc .cfa: sp 0 +
STACK CFI INIT b7d08 f8 .cfa: sp 0 +
STACK CFI b7d30 .cfa: sp 32 +
STACK CFI b7d38 .cfa: x29 32 + x19: .cfa -8 + ^ x20: .cfa -16 + ^ .ra: .cfa -24 + ^ x29: .cfa -32 + ^
STACK CFI b7df4 .cfa: sp 32 +
STACK CFI b7dfc .cfa: sp 0 +
STACK CFI INIT b7e00 48 .cfa: sp 0 +
STACK CFI INIT b7e48 570 .cfa: sp 0 +
STACK CFI b7e4c .cfa: sp 80 +
STACK CFI b7e60 .cfa: x29 80 + x19: .cfa -8 + ^ x20: .cfa -16 + ^ x21: .cfa -24 + ^ x22: .cfa -32 + ^ x23: .cfa -40 + ^ x24: .cfa -48 + ^ x25: .cfa -56 + ^ x26: .cfa -64 + ^ .ra: .cfa -72 + ^ x29: .cfa -80 + ^
STACK CFI b80c4 .cfa: sp 80 +
STACK CFI b80d8 .cfa: sp 0 +
STACK CFI b80dc .cfa: x29 80 +
STACK CFI b82b4 .cfa: sp 80 +
STACK CFI b82c8 .cfa: sp 0 +
STACK CFI b82cc .cfa: sp 80 +
STACK CFI b82e0 .cfa: sp 0 +
STACK CFI b82e4 .cfa: x29 80 +
STACK CFI b8394 .cfa: sp 80 +
STACK CFI b83a8 .cfa: sp 0 +
STACK CFI b83ac .cfa: x29 80 +
STACK CFI INIT b83b8 58 .cfa: sp 0 +
STACK CFI INIT b8410 a8 .cfa: sp 0 +
STACK CFI b8414 .cfa: sp 64 +
STACK CFI b8424 .cfa: x29 64 + x19: .cfa -8 + ^ x20: .cfa -16 + ^ x21: .cfa -24 + ^ x22: .cfa -32 + ^ x23: .cfa -48 + ^ .ra: .cfa -56 + ^ x29: .cfa -64 + ^
STACK CFI b84a4 .cfa: sp 64 +
STACK CFI b84b4 .cfa: sp 0 +
STACK CFI INIT b84b8 108 .cfa: sp 0 +
STACK CFI INIT b85c0 28 .cfa: sp 0 +
STACK CFI INIT b85e8 ac .cfa: sp 0 +
STACK CFI b85ec .cfa: sp 48 +
STACK CFI b85f8 .cfa: x29 48 + x19: .cfa -8 + ^ x20: .cfa -16 + ^ x21: .cfa -32 + ^ .ra: .cfa -40 + ^ x29: .cfa -48 + ^
STACK CFI b8684 .cfa: sp 48 +
STACK CFI b8690 .cfa: sp 0 +
STACK CFI INIT b8694 a4 .cfa: sp 0 +
STACK CFI INIT b8738 ac .cfa: sp 0 +
STACK CFI INIT b87e4 34 .cfa: sp 0 +
STACK CFI INIT b8818 448 .cfa: sp 0 +
STACK CFI b881c .cfa: sp 144 +
STACK CFI b882c .cfa: x29 48 + x19: .cfa -8 + ^ x20: .cfa -16 + ^ x21: .cfa -24 + ^ x22: .cfa -32 + ^ .ra: .cfa -40 + ^ x29: .cfa -48 + ^
STACK CFI b8958 .cfa: sp 144 +
STACK CFI b8968 .cfa: sp 0 +
STACK CFI b896c .cfa: x29 48 +
STACK CFI INIT b8c60 338 .cfa: sp 0 +
STACK CFI b8c64 .cfa: sp 96 +
STACK CFI b8c7c .cfa: x29 96 + x19: .cfa -8 + ^ x20: .cfa -16 + ^ x21: .cfa -24 + ^ x22: .cfa -32 + ^ x23: .cfa -40 + ^ x24: .cfa -48 + ^ x25: .cfa -56 + ^ x26: .cfa -64 + ^ x27: .cfa -80 + ^ .ra: .cfa -88 + ^ x29: .cfa -96 + ^
STACK CFI b8f7c .cfa: sp 96 +
STACK CFI b8f94 .cfa: sp 0 +
STACK CFI INIT b8f98 68 .cfa: sp 0 +
STACK CFI INIT b9000 44 .cfa: sp 0 +
STACK CFI INIT b9044 308 .cfa: sp 0 +
STACK CFI INIT b934c 1c0 .cfa: sp 0 +
STACK CFI b9350 .cfa: sp 48 +
STACK CFI b935c .cfa: x29 48 + x19: .cfa -8 + ^ x20: .cfa -16 + ^ x21: .cfa -24 + ^ x22: .cfa -32 + ^ .ra: .cfa -40 + ^ x29: .cfa -48 + ^
STACK CFI b9438 .cfa: sp 48 +
STACK CFI b9444 .cfa: sp 0 +
STACK CFI b9448 .cfa: x29 48 +
STACK CFI b9480 .cfa: sp 48 +
STACK CFI b948c .cfa: sp 0 +
STACK CFI b9490 .cfa: x29 48 +
STACK CFI b949c .cfa: sp 48 +
STACK CFI b94a8 .cfa: sp 0 +
STACK CFI b94ac .cfa: x29 48 +
STACK CFI b94fc .cfa: sp 48 +
STACK CFI b9508 .cfa: sp 0 +
STACK CFI INIT b995c 160 .cfa: sp 0 +
STACK CFI b9960 .cfa: sp 112 +
STACK CFI b9974 .cfa: x29 48 + x19: .cfa -8 + ^ x20: .cfa -16 + ^ x21: .cfa -32 + ^ .ra: .cfa -40 + ^ x29: .cfa -48 + ^ v8: .cfa -56 + ^ v9: .cfa -64 + ^
STACK CFI b9aa0 .cfa: sp 112 +
STACK CFI b9ab4 .cfa: sp 0 +
STACK CFI b9ab8 .cfa: x29 48 +
STACK CFI INIT b9abc 44 .cfa: sp 0 +
STACK CFI INIT b9b00 54 .cfa: sp 0 +
STACK CFI INIT b9b54 184 .cfa: sp 0 +
STACK CFI b9b58 .cfa: sp 48 +
STACK CFI b9b64 .cfa: x29 48 + x19: .cfa -8 + ^ x20: .cfa -16 + ^ x21: .cfa -24 + ^ x22: .cfa -32 + ^ .ra: .cfa -40 + ^ x29: .cfa -48 + ^
STACK CFI b9cc8 .cfa: sp 48 +
STACK CFI b9cd4 .cfa: sp 0 +
STACK CFI INIT b9cd8 2c .cfa: sp 0 +
STACK CFI INIT b9d04 4 .cfa: sp 0 +
STACK CFI INIT b9d08 80 .cfa: sp 0 +
STACK CFI INIT b9d88 b4 .cfa: sp 0 +
STACK CFI b9d8c .cfa: sp 48 +
STACK CFI b9d98 .cfa: x29 48 + x19: .cfa -8 + ^ x20: .cfa -16 + ^ x21: .cfa -32 + ^ .ra: .cfa -40 + ^ x29: .cfa -48 + ^
STACK CFI b9df4 .cfa: sp 48 +
STACK CFI b9e00 .cfa: sp 0 +
STACK CFI b9e04 .cfa: x29 48 +
STACK CFI b9e2c .cfa: sp 48 +
STACK CFI b9e38 .cfa: sp 0 +
STACK CFI INIT b9e3c 84 .cfa: sp 0 +
STACK CFI b9e40 .cfa: sp 32 +
STACK CFI b9e48 .cfa: x29 32 + x19: .cfa -8 + ^ x20: .cfa -16 + ^ .ra: .cfa -24 + ^ x29: .cfa -32 + ^
STACK CFI b9e94 .cfa: sp 32 +
STACK CFI b9e9c .cfa: sp 0 +
STACK CFI b9ea0 .cfa: x29 32 +
STACK CFI b9eb4 .cfa: sp 32 +
STACK CFI b9ebc .cfa: sp 0 +
STACK CFI INIT b9ec0 114 .cfa: sp 0 +
STACK CFI b9ec4 .cfa: sp 48 +
STACK CFI b9ed0 .cfa: x29 48 + x19: .cfa -8 + ^ x20: .cfa -16 + ^ x21: .cfa -32 + ^ .ra: .cfa -40 + ^ x29: .cfa -48 + ^
STACK CFI b9f7c .cfa: sp 48 +
STACK CFI b9f88 .cfa: sp 0 +
STACK CFI b9f8c .cfa: x29 48 +
STACK CFI b9fc4 .cfa: sp 48 +
STACK CFI b9fd0 .cfa: sp 0 +
STACK CFI INIT b9fd4 cc .cfa: sp 0 +
STACK CFI b9fd8 .cfa: sp 48 +
STACK CFI b9fe4 .cfa: x29 48 + x19: .cfa -8 + ^ x20: .cfa -16 + ^ x21: .cfa -24 + ^ x22: .cfa -32 + ^ .ra: .cfa -40 + ^ x29: .cfa -48 + ^
STACK CFI ba070 .cfa: sp 48 +
STACK CFI ba07c .cfa: sp 0 +
STACK CFI ba080 .cfa: x29 48 +
STACK CFI ba090 .cfa: sp 48 +
STACK CFI ba09c .cfa: sp 0 +
STACK CFI INIT ba0a0 1e8 .cfa: sp 0 +
STACK CFI ba0a4 .cfa: sp 64 +
STACK CFI ba0b4 .cfa: x29 64 + x19: .cfa -8 + ^ x20: .cfa -16 + ^ x21: .cfa -24 + ^ x22: .cfa -32 + ^ x23: .cfa -40 + ^ x24: .cfa -48 + ^ .ra: .cfa -56 + ^ x29: .cfa -64 + ^
STACK CFI ba274 .cfa: sp 64 +
STACK CFI ba284 .cfa: sp 0 +
STACK CFI INIT ba288 2c8 .cfa: sp 0 +
STACK CFI ba28c .cfa: sp 80 +
STACK CFI ba2a0 .cfa: x29 80 + x19: .cfa -8 + ^ x20: .cfa -16 + ^ x21: .cfa -24 + ^ x22: .cfa -32 + ^ x23: .cfa -40 + ^ x24: .cfa -48 + ^ x25: .cfa -64 + ^ .ra: .cfa -72 + ^ x29: .cfa -80 + ^
STACK CFI ba538 .cfa: sp 80 +
STACK CFI ba54c .cfa: sp 0 +
STACK CFI INIT ba550 1d4 .cfa: sp 0 +
STACK CFI ba554 .cfa: sp 32 +
STACK CFI ba55c .cfa: x29 32 + x19: .cfa -8 + ^ x20: .cfa -16 + ^ .ra: .cfa -24 + ^ x29: .cfa -32 + ^
STACK CFI ba718 .cfa: sp 32 +
STACK CFI ba720 .cfa: sp 0 +
STACK CFI INIT ba724 a0 .cfa: sp 0 +
STACK CFI ba728 .cfa: sp 48 +
STACK CFI ba734 .cfa: x29 48 + x19: .cfa -8 + ^ x20: .cfa -16 + ^ x21: .cfa -32 + ^ .ra: .cfa -40 + ^ x29: .cfa -48 + ^
STACK CFI ba7b4 .cfa: sp 48 +
STACK CFI ba7c0 .cfa: sp 0 +
STACK CFI INIT ba7c4 34 .cfa: sp 0 +
STACK CFI INIT ba7f8 c8 .cfa: sp 0 +
STACK CFI ba7fc .cfa: sp 48 +
STACK CFI ba808 .cfa: x29 48 + x19: .cfa -8 + ^ x20: .cfa -16 + ^ x21: .cfa -32 + ^ .ra: .cfa -40 + ^ x29: .cfa -48 + ^
STACK CFI ba8b0 .cfa: sp 48 +
STACK CFI ba8bc .cfa: sp 0 +
STACK CFI INIT ba8c0 58 .cfa: sp 0 +
STACK CFI INIT ba918 9c .cfa: sp 0 +
STACK CFI ba91c .cfa: sp 48 +
STACK CFI ba928 .cfa: x29 32 + x19: .cfa -8 + ^ x20: .cfa -16 + ^ .ra: .cfa -24 + ^ x29: .cfa -32 + ^ v8: .cfa -48 + ^
STACK CFI ba9a4 .cfa: sp 48 +
STACK CFI ba9b0 .cfa: sp 0 +
STACK CFI INIT ba9b4 38 .cfa: sp 0 +
STACK CFI INIT ba9ec b4 .cfa: sp 0 +
STACK CFI INIT baaa0 234 .cfa: sp 0 +
STACK CFI INIT bacd4 150 .cfa: sp 0 +
STACK CFI INIT bae24 18 .cfa: sp 0 +
STACK CFI INIT bae3c 1c .cfa: sp 0 +
STACK CFI INIT bae58 2c .cfa: sp 0 +
STACK CFI INIT bae84 18 .cfa: sp 0 +
STACK CFI INIT bae9c 18 .cfa: sp 0 +
STACK CFI INIT baeb4 18 .cfa: sp 0 +
STACK CFI INIT baecc 20 .cfa: sp 0 +
STACK CFI INIT baeec e8 .cfa: sp 0 +
STACK CFI INIT bafd4 18 .cfa: sp 0 +
STACK CFI INIT bafec 118 .cfa: sp 0 +
STACK CFI INIT bb104 1b0 .cfa: sp 0 +
STACK CFI INIT bb2b4 38 .cfa: sp 0 +
STACK CFI INIT bb2ec 14 .cfa: sp 0 +
STACK CFI INIT bb300 38 .cfa: sp 0 +
STACK CFI INIT bb338 18 .cfa: sp 0 +
STACK CFI INIT bb350 18 .cfa: sp 0 +
STACK CFI INIT bb368 108 .cfa: sp 0 +
STACK CFI INIT bb470 18 .cfa: sp 0 +
STACK CFI INIT bb488 f0 .cfa: sp 0 +
STACK CFI INIT bb578 48 .cfa: sp 0 +
STACK CFI INIT bb5c0 3c .cfa: sp 0 +
STACK CFI INIT bb5fc 34 .cfa: sp 0 +
STACK CFI INIT bb630 2c .cfa: sp 0 +
STACK CFI INIT bb65c 34 .cfa: sp 0 +
STACK CFI INIT bb690 20 .cfa: sp 0 +
STACK CFI INIT bb6b0 28 .cfa: sp 0 +
STACK CFI INIT bb6d8 28 .cfa: sp 0 +
STACK CFI INIT bb700 34 .cfa: sp 0 +
STACK CFI INIT bb734 34 .cfa: sp 0 +
STACK CFI INIT bb768 28 .cfa: sp 0 +
STACK CFI INIT bb790 20 .cfa: sp 0 +
STACK CFI INIT bb7b0 14 .cfa: sp 0 +
STACK CFI INIT bb7c4 14 .cfa: sp 0 +
STACK CFI INIT bb7d8 14 .cfa: sp 0 +
STACK CFI INIT bb7ec 14 .cfa: sp 0 +
STACK CFI INIT bb800 18 .cfa: sp 0 +
STACK CFI INIT bb818 60 .cfa: sp 0 +
STACK CFI INIT bb878 22c .cfa: sp 0 +
STACK CFI bb87c .cfa: sp 80 +
STACK CFI bb890 .cfa: x29 80 + x19: .cfa -8 + ^ x20: .cfa -16 + ^ x21: .cfa -24 + ^ x22: .cfa -32 + ^ x23: .cfa -40 + ^ x24: .cfa -48 + ^ x25: .cfa -56 + ^ x26: .cfa -64 + ^ .ra: .cfa -72 + ^ x29: .cfa -80 + ^
STACK CFI bb8f4 .cfa: sp 80 +
STACK CFI bb908 .cfa: sp 0 +
STACK CFI bb90c .cfa: x29 80 +
STACK CFI bba8c .cfa: sp 80 +
STACK CFI bbaa0 .cfa: sp 0 +
STACK CFI INIT bbaa4 d4 .cfa: sp 0 +
STACK CFI INIT bbb78 84 .cfa: sp 0 +
STACK CFI INIT bbbfc 1c .cfa: sp 0 +
STACK CFI INIT bbc18 280 .cfa: sp 0 +
STACK CFI bbc1c .cfa: sp 80 +
STACK CFI bbc30 .cfa: x29 80 + x19: .cfa -8 + ^ x20: .cfa -16 + ^ x21: .cfa -24 + ^ x22: .cfa -32 + ^ x23: .cfa -40 + ^ x24: .cfa -48 + ^ x25: .cfa -64 + ^ .ra: .cfa -72 + ^ x29: .cfa -80 + ^
STACK CFI bbc88 .cfa: sp 80 +
STACK CFI bbc9c .cfa: sp 0 +
STACK CFI bbca0 .cfa: x29 80 +
STACK CFI bbca8 .cfa: sp 80 +
STACK CFI bbcbc .cfa: sp 0 +
STACK CFI bbcc0 .cfa: x29 80 +
STACK CFI bbe08 .cfa: sp 80 +
STACK CFI bbe1c .cfa: sp 0 +
STACK CFI bbe20 .cfa: x29 80 +
STACK CFI bbe80 .cfa: sp 80 +
STACK CFI bbe94 .cfa: sp 0 +
STACK CFI INIT bbe98 f0 .cfa: sp 0 +
STACK CFI INIT bbf88 54 .cfa: sp 0 +
STACK CFI INIT bbfdc 38c .cfa: sp 0 +
STACK CFI bbfe0 .cfa: sp 112 +
STACK CFI bbff8 .cfa: x29 56 + x19: .cfa -8 + ^ x20: .cfa -16 + ^ x21: .cfa -24 + ^ x22: .cfa -32 + ^ x23: .cfa -40 + ^ .ra: .cfa -48 + ^ x29: .cfa -56 + ^ v8: .cfa -64 + ^
STACK CFI bc348 .cfa: sp 112 +
STACK CFI bc360 .cfa: sp 0 +
STACK CFI bc364 .cfa: x29 56 +
STACK CFI INIT bc368 24 .cfa: sp 0 +
STACK CFI INIT bc38c 18 .cfa: sp 0 +
STACK CFI INIT bc3a4 64 .cfa: sp 0 +
STACK CFI INIT bc408 5c .cfa: sp 0 +
STACK CFI INIT bc464 24c .cfa: sp 0 +
STACK CFI bc468 .cfa: sp 160 +
STACK CFI bc480 .cfa: x29 80 + x19: .cfa -8 + ^ x20: .cfa -16 + ^ x21: .cfa -24 + ^ x22: .cfa -32 + ^ x23: .cfa -40 + ^ x24: .cfa -48 + ^ x25: .cfa -64 + ^ .ra: .cfa -72 + ^ x29: .cfa -80 + ^
STACK CFI bc690 .cfa: sp 160 +
STACK CFI bc6a8 .cfa: sp 0 +
STACK CFI bc6ac .cfa: x29 80 +
STACK CFI INIT bc6b0 f0 .cfa: sp 0 +
STACK CFI bc6b4 .cfa: sp 32 +
STACK CFI bc6bc .cfa: x29 32 + x19: .cfa -16 + ^ .ra: .cfa -24 + ^ x29: .cfa -32 + ^
STACK CFI bc794 .cfa: sp 32 +
STACK CFI bc79c .cfa: sp 0 +
STACK CFI INIT bc7a0 a0 .cfa: sp 0 +
STACK CFI bc7a4 .cfa: sp 32 +
STACK CFI bc7ac .cfa: x29 32 + x19: .cfa -16 + ^ .ra: .cfa -24 + ^ x29: .cfa -32 + ^
STACK CFI bc834 .cfa: sp 32 +
STACK CFI bc83c .cfa: sp 0 +
STACK CFI INIT bc840 124 .cfa: sp 0 +
STACK CFI bc844 .cfa: sp 48 +
STACK CFI bc850 .cfa: x29 48 + x19: .cfa -8 + ^ x20: .cfa -16 + ^ x21: .cfa -32 + ^ .ra: .cfa -40 + ^ x29: .cfa -48 + ^
STACK CFI bc954 .cfa: sp 48 +
STACK CFI bc960 .cfa: sp 0 +
STACK CFI INIT bc964 9c .cfa: sp 0 +
STACK CFI bc968 .cfa: sp 48 +
STACK CFI bc974 .cfa: x29 48 + x19: .cfa -8 + ^ x20: .cfa -16 + ^ x21: .cfa -32 + ^ .ra: .cfa -40 + ^ x29: .cfa -48 + ^
STACK CFI bc9f0 .cfa: sp 48 +
STACK CFI bc9fc .cfa: sp 0 +
STACK CFI INIT bca00 98 .cfa: sp 0 +
STACK CFI bca04 .cfa: sp 48 +
STACK CFI bca10 .cfa: x29 48 + x19: .cfa -8 + ^ x20: .cfa -16 + ^ x21: .cfa -32 + ^ .ra: .cfa -40 + ^ x29: .cfa -48 + ^
STACK CFI bca88 .cfa: sp 48 +
STACK CFI bca94 .cfa: sp 0 +
STACK CFI INIT bca98 10c .cfa: sp 0 +
STACK CFI bca9c .cfa: sp 48 +
STACK CFI bcaa8 .cfa: x29 48 + x19: .cfa -8 + ^ x20: .cfa -16 + ^ x21: .cfa -32 + ^ .ra: .cfa -40 + ^ x29: .cfa -48 + ^
STACK CFI bcb94 .cfa: sp 48 +
STACK CFI bcba0 .cfa: sp 0 +
STACK CFI INIT bcba4 b0 .cfa: sp 0 +
STACK CFI bcba8 .cfa: sp 48 +
STACK CFI bcbb4 .cfa: x29 48 + x19: .cfa -8 + ^ x20: .cfa -16 + ^ x21: .cfa -32 + ^ .ra: .cfa -40 + ^ x29: .cfa -48 + ^
STACK CFI bcc44 .cfa: sp 48 +
STACK CFI bcc50 .cfa: sp 0 +
STACK CFI INIT bcc54 130 .cfa: sp 0 +
STACK CFI bcc58 .cfa: sp 32 +
STACK CFI bcc60 .cfa: x29 32 + x19: .cfa -16 + ^ .ra: .cfa -24 + ^ x29: .cfa -32 + ^
STACK CFI bcd78 .cfa: sp 32 +
STACK CFI bcd80 .cfa: sp 0 +
STACK CFI INIT bcd84 98 .cfa: sp 0 +
STACK CFI bcd88 .cfa: sp 32 +
STACK CFI bcd90 .cfa: x29 32 + x19: .cfa -16 + ^ .ra: .cfa -24 + ^ x29: .cfa -32 + ^
STACK CFI bce10 .cfa: sp 32 +
STACK CFI bce18 .cfa: sp 0 +
STACK CFI INIT bce1c 20 .cfa: sp 0 +
STACK CFI INIT bce3c c8 .cfa: sp 0 +
STACK CFI bce40 .cfa: sp 32 +
STACK CFI bce48 .cfa: x29 32 + x19: .cfa -16 + ^ .ra: .cfa -24 + ^ x29: .cfa -32 + ^
STACK CFI bcef8 .cfa: sp 32 +
STACK CFI bcf00 .cfa: sp 0 +
STACK CFI INIT bcf04 20 .cfa: sp 0 +
STACK CFI INIT bcf24 1c .cfa: sp 0 +
STACK CFI INIT bcf40 b0 .cfa: sp 0 +
STACK CFI bcf44 .cfa: sp 32 +
STACK CFI bcf4c .cfa: x29 32 + x19: .cfa -16 + ^ .ra: .cfa -24 + ^ x29: .cfa -32 + ^
STACK CFI bcfe4 .cfa: sp 32 +
STACK CFI bcfec .cfa: sp 0 +
STACK CFI INIT bcff0 60 .cfa: sp 0 +
STACK CFI INIT bd050 5c .cfa: sp 0 +
STACK CFI INIT bd0ac a8 .cfa: sp 0 +
STACK CFI INIT bd154 80 .cfa: sp 0 +
STACK CFI INIT bd1d4 94 .cfa: sp 0 +
STACK CFI INIT bd268 f8 .cfa: sp 0 +
STACK CFI INIT bd360 178 .cfa: sp 0 +
STACK CFI INIT bd4d8 168 .cfa: sp 0 +
STACK CFI bd4dc .cfa: sp 80 +
STACK CFI bd4f0 .cfa: x29 64 + x19: .cfa -8 + ^ x20: .cfa -16 + ^ x21: .cfa -24 + ^ x22: .cfa -32 + ^ x23: .cfa -40 + ^ x24: .cfa -48 + ^ .ra: .cfa -56 + ^ x29: .cfa -64 + ^
STACK CFI bd624 .cfa: sp 80 +
STACK CFI bd638 .cfa: sp 0 +
STACK CFI bd63c .cfa: x29 64 +
STACK CFI INIT bd640 3e8 .cfa: sp 0 +
STACK CFI bd644 .cfa: sp 64 +
STACK CFI bd654 .cfa: x29 64 + x19: .cfa -8 + ^ x20: .cfa -16 + ^ x21: .cfa -24 + ^ x22: .cfa -32 + ^ x23: .cfa -48 + ^ .ra: .cfa -56 + ^ x29: .cfa -64 + ^
STACK CFI bd798 .cfa: sp 64 +
STACK CFI bd7a8 .cfa: sp 0 +
STACK CFI bd7ac .cfa: x29 64 +
STACK CFI bd7bc .cfa: sp 64 +
STACK CFI bd7cc .cfa: sp 0 +
STACK CFI bd7d0 .cfa: x29 64 +
STACK CFI bd7f0 .cfa: sp 64 +
STACK CFI bd800 .cfa: sp 0 +
STACK CFI bd804 .cfa: x29 64 +
STACK CFI bd998 .cfa: sp 64 +
STACK CFI bd9a8 .cfa: sp 0 +
STACK CFI bd9ac .cfa: x29 64 +
STACK CFI bda00 .cfa: sp 64 +
STACK CFI bda10 .cfa: sp 0 +
STACK CFI bda14 .cfa: x29 64 +
STACK CFI INIT bda28 a8 .cfa: sp 0 +
STACK CFI bda2c .cfa: sp 32 +
STACK CFI bda34 .cfa: x29 32 + x19: .cfa -16 + ^ .ra: .cfa -24 + ^ x29: .cfa -32 + ^
STACK CFI bdac4 .cfa: sp 32 +
STACK CFI bdacc .cfa: sp 0 +
STACK CFI INIT bdad0 8 .cfa: sp 0 +
STACK CFI INIT bdad8 160 .cfa: sp 0 +
STACK CFI INIT bdc38 100 .cfa: sp 0 +
STACK CFI INIT bdd38 c .cfa: sp 0 +
STACK CFI INIT bdd44 358 .cfa: sp 0 +
STACK CFI INIT be09c 8 .cfa: sp 0 +
STACK CFI INIT be0a4 184 .cfa: sp 0 +
STACK CFI INIT be228 110 .cfa: sp 0 +
STACK CFI INIT be338 1b0 .cfa: sp 0 +
STACK CFI INIT be4e8 a0 .cfa: sp 0 +
STACK CFI INIT be588 114 .cfa: sp 0 +
STACK CFI INIT be69c ac .cfa: sp 0 +
STACK CFI INIT be748 118 .cfa: sp 0 +
STACK CFI INIT be860 1c .cfa: sp 0 +
STACK CFI INIT be87c 30 .cfa: sp 0 +
STACK CFI INIT be8ac 18 .cfa: sp 0 +
STACK CFI INIT be8c4 2c .cfa: sp 0 +
STACK CFI INIT be8f0 50 .cfa: sp 0 +
STACK CFI INIT be940 5c .cfa: sp 0 +
STACK CFI INIT be99c b8 .cfa: sp 0 +
STACK CFI INIT bea54 20 .cfa: sp 0 +
STACK CFI INIT bea74 18 .cfa: sp 0 +
STACK CFI INIT bea8c 18 .cfa: sp 0 +
STACK CFI INIT beaa4 1c .cfa: sp 0 +
STACK CFI INIT beac0 1c .cfa: sp 0 +
STACK CFI INIT beadc 6c .cfa: sp 0 +
STACK CFI INIT beb48 f0 .cfa: sp 0 +
STACK CFI INIT bec38 c0 .cfa: sp 0 +
STACK CFI INIT becf8 84 .cfa: sp 0 +
STACK CFI INIT bed7c d4 .cfa: sp 0 +
STACK CFI INIT bee50 cc .cfa: sp 0 +
STACK CFI INIT bef1c 28 .cfa: sp 0 +
STACK CFI INIT bef44 8 .cfa: sp 0 +
STACK CFI INIT bef4c 1b8 .cfa: sp 0 +
STACK CFI bef50 .cfa: sp 48 +
STACK CFI bef5c .cfa: x29 48 + x19: .cfa -8 + ^ x20: .cfa -16 + ^ x21: .cfa -24 + ^ x22: .cfa -32 + ^ .ra: .cfa -40 + ^ x29: .cfa -48 + ^
STACK CFI bf09c .cfa: sp 48 +
STACK CFI bf0a8 .cfa: sp 0 +
STACK CFI bf0ac .cfa: x29 48 +
STACK CFI bf0b0 .cfa: sp 48 +
STACK CFI bf0bc .cfa: sp 0 +
STACK CFI bf0c0 .cfa: x29 48 +
STACK CFI bf0f4 .cfa: sp 48 +
STACK CFI bf100 .cfa: sp 0 +
STACK CFI INIT bf104 74 .cfa: sp 0 +
STACK CFI bf108 .cfa: sp 64 +
STACK CFI bf118 .cfa: x29 64 + x19: .cfa -8 + ^ x20: .cfa -16 + ^ x21: .cfa -24 + ^ x22: .cfa -32 + ^ x23: .cfa -40 + ^ x24: .cfa -48 + ^ .ra: .cfa -56 + ^ x29: .cfa -64 + ^
STACK CFI bf164 .cfa: sp 64 +
STACK CFI bf174 .cfa: sp 0 +
STACK CFI INIT bf178 108 .cfa: sp 0 +
STACK CFI bf17c .cfa: sp 64 +
STACK CFI bf18c .cfa: x29 64 + x19: .cfa -8 + ^ x20: .cfa -16 + ^ x21: .cfa -24 + ^ x22: .cfa -32 + ^ x23: .cfa -40 + ^ x24: .cfa -48 + ^ .ra: .cfa -56 + ^ x29: .cfa -64 + ^
STACK CFI bf26c .cfa: sp 64 +
STACK CFI bf27c .cfa: sp 0 +
STACK CFI INIT bf280 5c8 .cfa: sp 0 +
STACK CFI bf284 .cfa: sp 96 +
STACK CFI bf29c .cfa: x29 96 + x19: .cfa -8 + ^ x20: .cfa -16 + ^ x21: .cfa -24 + ^ x22: .cfa -32 + ^ x23: .cfa -40 + ^ x24: .cfa -48 + ^ x25: .cfa -56 + ^ x26: .cfa -64 + ^ x27: .cfa -72 + ^ x28: .cfa -80 + ^ .ra: .cfa -88 + ^ x29: .cfa -96 + ^
STACK CFI bf82c .cfa: sp 96 +
STACK CFI bf844 .cfa: sp 0 +
STACK CFI INIT bf848 374 .cfa: sp 0 +
STACK CFI bf84c .cfa: sp 176 +
STACK CFI bf868 .cfa: x29 80 + x19: .cfa -8 + ^ x20: .cfa -16 + ^ x21: .cfa -24 + ^ x22: .cfa -32 + ^ x23: .cfa -40 + ^ x24: .cfa -48 + ^ x25: .cfa -56 + ^ x26: .cfa -64 + ^ .ra: .cfa -72 + ^ x29: .cfa -80 + ^ v8: .cfa -96 + ^
STACK CFI bfb7c .cfa: sp 176 +
STACK CFI bfb98 .cfa: sp 0 +
STACK CFI bfb9c .cfa: x29 80 +
STACK CFI INIT bfbbc 90 .cfa: sp 0 +
STACK CFI INIT bfc4c 1c .cfa: sp 0 +
STACK CFI INIT bfc68 28 .cfa: sp 0 +
STACK CFI INIT bfc90 2c .cfa: sp 0 +
STACK CFI INIT bfcbc 28 .cfa: sp 0 +
STACK CFI INIT bfce4 28 .cfa: sp 0 +
STACK CFI INIT bfd0c 38 .cfa: sp 0 +
STACK CFI INIT bfd44 34 .cfa: sp 0 +
STACK CFI INIT bfd78 34 .cfa: sp 0 +
STACK CFI INIT bfdac 24 .cfa: sp 0 +
STACK CFI INIT bfdd0 48 .cfa: sp 0 +
STACK CFI INIT bfe18 48 .cfa: sp 0 +
STACK CFI INIT bfe60 b8 .cfa: sp 0 +
STACK CFI bfe64 .cfa: sp 48 +
STACK CFI bfe74 .cfa: x29 40 + x19: .cfa -8 + ^ x20: .cfa -16 + ^ x21: .cfa -24 + ^ .ra: .cfa -32 + ^ x29: .cfa -40 + ^ v8: .cfa -48 + ^
STACK CFI bff04 .cfa: sp 48 +
STACK CFI bff14 .cfa: sp 0 +
STACK CFI INIT bff18 174 .cfa: sp 0 +
STACK CFI bff1c .cfa: sp 96 +
STACK CFI bff34 .cfa: x29 64 + x19: .cfa -8 + ^ x20: .cfa -16 + ^ x21: .cfa -24 + ^ x22: .cfa -32 + ^ x23: .cfa -48 + ^ .ra: .cfa -56 + ^ x29: .cfa -64 + ^ v8: .cfa -72 + ^ v9: .cfa -80 + ^ v10: .cfa -88 + ^ v11: .cfa -96 + ^
STACK CFI c0070 .cfa: sp 96 +
STACK CFI c0088 .cfa: sp 0 +
STACK CFI INIT c008c 38 .cfa: sp 0 +
STACK CFI INIT c00c4 90 .cfa: sp 0 +
STACK CFI INIT c0154 14 .cfa: sp 0 +
STACK CFI INIT c0168 1c .cfa: sp 0 +
STACK CFI INIT c0184 20 .cfa: sp 0 +
STACK CFI INIT c01a4 28 .cfa: sp 0 +
STACK CFI INIT c01cc 4c .cfa: sp 0 +
STACK CFI INIT c0218 24 .cfa: sp 0 +
STACK CFI INIT c023c 24 .cfa: sp 0 +
STACK CFI INIT c0260 140 .cfa: sp 0 +
STACK CFI c0264 .cfa: sp 64 +
STACK CFI c0274 .cfa: x29 64 + x19: .cfa -8 + ^ x20: .cfa -16 + ^ x21: .cfa -24 + ^ x22: .cfa -32 + ^ x23: .cfa -48 + ^ .ra: .cfa -56 + ^ x29: .cfa -64 + ^
STACK CFI c038c .cfa: sp 64 +
STACK CFI c039c .cfa: sp 0 +
STACK CFI INIT c03a0 20 .cfa: sp 0 +
STACK CFI INIT c03c0 4 .cfa: sp 0 +
STACK CFI INIT c03c4 30 .cfa: sp 0 +
STACK CFI INIT c03f4 30 .cfa: sp 0 +
STACK CFI INIT c0424 18 .cfa: sp 0 +
STACK CFI INIT c043c 18 .cfa: sp 0 +
STACK CFI INIT c0454 18 .cfa: sp 0 +
STACK CFI INIT c046c 18 .cfa: sp 0 +
STACK CFI INIT c0484 10 .cfa: sp 0 +
STACK CFI INIT c0494 10 .cfa: sp 0 +
STACK CFI INIT c04a4 20 .cfa: sp 0 +
STACK CFI INIT c04c4 20 .cfa: sp 0 +
STACK CFI INIT c04e4 40 .cfa: sp 0 +
STACK CFI INIT c0524 40 .cfa: sp 0 +
STACK CFI INIT c0564 88 .cfa: sp 0 +
STACK CFI INIT c05ec 84 .cfa: sp 0 +
STACK CFI INIT c0670 20 .cfa: sp 0 +
STACK CFI c0674 .cfa: sp 16 +
STACK CFI c0678 .cfa: x29 16 + .ra: .cfa -8 + ^ x29: .cfa -16 + ^
STACK CFI c0688 .cfa: sp 16 +
STACK CFI c068c .cfa: sp 0 +
STACK CFI INIT c0690 218 .cfa: sp 0 +
STACK CFI c0694 .cfa: sp 96 +
STACK CFI c06a8 .cfa: x29 64 + x19: .cfa -8 + ^ x20: .cfa -16 + ^ x21: .cfa -24 + ^ x22: .cfa -32 + ^ x23: .cfa -48 + ^ .ra: .cfa -56 + ^ x29: .cfa -64 + ^
STACK CFI c088c .cfa: sp 96 +
STACK CFI c08a0 .cfa: sp 0 +
STACK CFI c08a4 .cfa: x29 64 +
STACK CFI INIT c08a8 38 .cfa: sp 0 +
STACK CFI c08ac .cfa: sp 32 +
STACK CFI c08b4 .cfa: x29 32 + x19: .cfa -16 + ^ .ra: .cfa -24 + ^ x29: .cfa -32 + ^
STACK CFI c08d4 .cfa: sp 32 +
STACK CFI c08dc .cfa: sp 0 +
STACK CFI INIT c08e0 4 .cfa: sp 0 +
STACK CFI INIT c08e4 b0 .cfa: sp 0 +
STACK CFI c08e8 .cfa: sp 144 +
STACK CFI c08f8 .cfa: x29 48 + x19: .cfa -8 + ^ x20: .cfa -16 + ^ x21: .cfa -32 + ^ .ra: .cfa -40 + ^ x29: .cfa -48 + ^
STACK CFI c097c .cfa: sp 144 +
STACK CFI c098c .cfa: sp 0 +
STACK CFI c0990 .cfa: x29 48 +
STACK CFI INIT c0994 fc .cfa: sp 0 +
STACK CFI c0998 .cfa: sp 368 +
STACK CFI c09a8 .cfa: x29 48 + x19: .cfa -8 + ^ x20: .cfa -16 + ^ x28: .cfa -32 + ^ .ra: .cfa -40 + ^ x29: .cfa -48 + ^
STACK CFI c0a78 .cfa: sp 368 +
STACK CFI c0a88 .cfa: sp 0 +
STACK CFI c0a8c .cfa: x29 48 +
STACK CFI INIT c0a90 bc .cfa: sp 0 +
STACK CFI c0a94 .cfa: sp 144 +
STACK CFI c0aa4 .cfa: x29 48 + x19: .cfa -8 + ^ x20: .cfa -16 + ^ x21: .cfa -32 + ^ .ra: .cfa -40 + ^ x29: .cfa -48 + ^
STACK CFI c0b34 .cfa: sp 144 +
STACK CFI c0b44 .cfa: sp 0 +
STACK CFI c0b48 .cfa: x29 48 +
STACK CFI INIT c0b4c 1ac .cfa: sp 0 +
STACK CFI c0b50 .cfa: sp 48 +
STACK CFI c0b5c .cfa: x29 48 + x19: .cfa -8 + ^ x20: .cfa -16 + ^ x21: .cfa -32 + ^ .ra: .cfa -40 + ^ x29: .cfa -48 + ^
STACK CFI c0c00 .cfa: sp 48 +
STACK CFI c0c0c .cfa: sp 0 +
STACK CFI c0c10 .cfa: x29 48 +
STACK CFI c0c78 .cfa: sp 48 +
STACK CFI c0c84 .cfa: sp 0 +
STACK CFI c0c88 .cfa: x29 48 +
STACK CFI c0c90 .cfa: sp 48 +
STACK CFI c0c9c .cfa: sp 0 +
STACK CFI c0ca0 .cfa: x29 48 +
STACK CFI c0cd4 .cfa: sp 48 +
STACK CFI c0ce0 .cfa: sp 0 +
STACK CFI c0ce4 .cfa: x29 48 +
STACK CFI c0ce8 .cfa: sp 48 +
STACK CFI c0cf4 .cfa: sp 0 +
STACK CFI INIT c0cf8 74 .cfa: sp 0 +
STACK CFI INIT c0d6c 120 .cfa: sp 0 +
STACK CFI c0d70 .cfa: sp 48 +
STACK CFI c0d7c .cfa: x29 48 + x19: .cfa -8 + ^ x20: .cfa -16 + ^ x21: .cfa -24 + ^ x22: .cfa -32 + ^ .ra: .cfa -40 + ^ x29: .cfa -48 + ^
STACK CFI c0e30 .cfa: sp 48 +
STACK CFI c0e3c .cfa: sp 0 +
STACK CFI c0e40 .cfa: x29 48 +
STACK CFI c0e7c .cfa: sp 48 +
STACK CFI c0e88 .cfa: sp 0 +
STACK CFI INIT c0e8c 214 .cfa: sp 0 +
STACK CFI c0e90 .cfa: sp 144 +
STACK CFI c0eac .cfa: x29 96 + x19: .cfa -8 + ^ x20: .cfa -16 + ^ x21: .cfa -24 + ^ x22: .cfa -32 + ^ x23: .cfa -40 + ^ x24: .cfa -48 + ^ x25: .cfa -56 + ^ x26: .cfa -64 + ^ x27: .cfa -72 + ^ x28: .cfa -80 + ^ .ra: .cfa -88 + ^ x29: .cfa -96 + ^
STACK CFI c1068 .cfa: sp 144 +
STACK CFI c1084 .cfa: sp 0 +
STACK CFI c1088 .cfa: x29 96 +
STACK CFI INIT c10a0 4 .cfa: sp 0 +
STACK CFI INIT c10a4 1e0 .cfa: sp 0 +
STACK CFI c10a8 .cfa: sp 48 +
STACK CFI c10b4 .cfa: x29 32 + x19: .cfa -8 + ^ x20: .cfa -16 + ^ .ra: .cfa -24 + ^ x29: .cfa -32 + ^
STACK CFI c1204 .cfa: sp 48 +
STACK CFI c1210 .cfa: sp 0 +
STACK CFI c1214 .cfa: x29 32 +
STACK CFI c1244 .cfa: sp 48 +
STACK CFI c1250 .cfa: sp 0 +
STACK CFI c1254 .cfa: x29 32 +
STACK CFI INIT c1284 1b8 .cfa: sp 0 +
STACK CFI c1288 .cfa: sp 64 +
STACK CFI c1298 .cfa: x29 64 + x19: .cfa -8 + ^ x20: .cfa -16 + ^ x21: .cfa -24 + ^ x22: .cfa -32 + ^ x23: .cfa -40 + ^ x24: .cfa -48 + ^ .ra: .cfa -56 + ^ x29: .cfa -64 + ^
STACK CFI c1350 .cfa: sp 64 +
STACK CFI c1360 .cfa: sp 0 +
STACK CFI c1364 .cfa: sp 64 +
STACK CFI c1374 .cfa: sp 0 +
STACK CFI c1378 .cfa: x29 64 +
STACK CFI c1388 .cfa: sp 64 +
STACK CFI c1398 .cfa: sp 0 +
STACK CFI c139c .cfa: x29 64 +
STACK CFI c140c .cfa: sp 64 +
STACK CFI c141c .cfa: sp 0 +
STACK CFI c1420 .cfa: x29 64 +
STACK CFI c1428 .cfa: sp 64 +
STACK CFI c1438 .cfa: sp 0 +
STACK CFI INIT c143c 68 .cfa: sp 0 +
STACK CFI INIT c14a4 dc .cfa: sp 0 +
STACK CFI c14a8 .cfa: sp 32 +
STACK CFI c14b0 .cfa: x29 32 + x19: .cfa -8 + ^ x20: .cfa -16 + ^ .ra: .cfa -24 + ^ x29: .cfa -32 + ^
STACK CFI c1574 .cfa: sp 32 +
STACK CFI c157c .cfa: sp 0 +
STACK CFI INIT c1580 138 .cfa: sp 0 +
STACK CFI c1584 .cfa: sp 80 +
STACK CFI c1594 .cfa: x29 48 + x19: .cfa -8 + ^ x20: .cfa -16 + ^ x21: .cfa -32 + ^ .ra: .cfa -40 + ^ x29: .cfa -48 + ^
STACK CFI c1614 .cfa: sp 80 +
STACK CFI c1624 .cfa: sp 0 +
STACK CFI c1628 .cfa: x29 48 +
STACK CFI INIT c16b8 74 .cfa: sp 0 +
STACK CFI c16bc .cfa: sp 32 +
STACK CFI c16c4 .cfa: x29 32 + x19: .cfa -16 + ^ .ra: .cfa -24 + ^ x29: .cfa -32 + ^
STACK CFI c16fc .cfa: sp 32 +
STACK CFI c1704 .cfa: sp 0 +
STACK CFI c1708 .cfa: x29 32 +
STACK CFI INIT c172c 108 .cfa: sp 0 +
STACK CFI c1754 .cfa: sp 48 +
STACK CFI c1760 .cfa: x29 48 + x19: .cfa -8 + ^ x20: .cfa -16 + ^ x21: .cfa -32 + ^ .ra: .cfa -40 + ^ x29: .cfa -48 + ^
STACK CFI c17d8 .cfa: sp 0 + x19: x19 x20: x20 x21: x21 .ra: x30 x29: x29
STACK CFI c17e8 .cfa: x29 48 + x19: .cfa -8 + ^ x20: .cfa -16 + ^ x21: .cfa -32 + ^ .ra: .cfa -40 + ^ x29: .cfa -48 + ^
STACK CFI c1824 .cfa: sp 48 +
STACK CFI c1830 .cfa: sp 0 +
STACK CFI INIT c1834 2c4 .cfa: sp 0 +
STACK CFI c1838 .cfa: sp 80 +
STACK CFI c184c .cfa: x29 80 + x19: .cfa -8 + ^ x20: .cfa -16 + ^ x21: .cfa -24 + ^ x22: .cfa -32 + ^ x23: .cfa -40 + ^ x24: .cfa -48 + ^ x25: .cfa -56 + ^ x26: .cfa -64 + ^ .ra: .cfa -72 + ^ x29: .cfa -80 + ^
STACK CFI c1978 .cfa: sp 80 +
STACK CFI c198c .cfa: sp 0 +
STACK CFI c1990 .cfa: x29 80 +
STACK CFI c19f0 .cfa: sp 80 +
STACK CFI c1a04 .cfa: sp 0 +
STACK CFI c1a08 .cfa: x29 80 +
STACK CFI c1a3c .cfa: sp 80 +
STACK CFI c1a50 .cfa: sp 0 +
STACK CFI c1a54 .cfa: x29 80 +
STACK CFI c1abc .cfa: sp 80 +
STACK CFI c1ad0 .cfa: sp 0 +
STACK CFI c1ad4 .cfa: x29 80 +
STACK CFI INIT c1af8 44 .cfa: sp 0 +
STACK CFI INIT c1b3c 14c .cfa: sp 0 +
STACK CFI c1b40 .cfa: sp 48 +
STACK CFI c1b4c .cfa: x29 48 + x19: .cfa -8 + ^ x20: .cfa -16 + ^ x21: .cfa -24 + ^ x22: .cfa -32 + ^ .ra: .cfa -40 + ^ x29: .cfa -48 + ^
STACK CFI c1c18 .cfa: sp 48 +
STACK CFI c1c24 .cfa: sp 0 +
STACK CFI c1c28 .cfa: x29 48 +
STACK CFI c1c5c .cfa: sp 48 +
STACK CFI c1c68 .cfa: sp 0 +
STACK CFI c1c6c .cfa: x29 48 +
STACK CFI c1c78 .cfa: sp 48 +
STACK CFI c1c84 .cfa: sp 0 +
STACK CFI INIT c1c88 184 .cfa: sp 0 +
STACK CFI c1c8c .cfa: sp 48 +
STACK CFI c1c98 .cfa: x29 48 + x19: .cfa -8 + ^ x20: .cfa -16 + ^ x21: .cfa -32 + ^ .ra: .cfa -40 + ^ x29: .cfa -48 + ^
STACK CFI c1cb4 .cfa: sp 48 +
STACK CFI c1cc0 .cfa: sp 0 +
STACK CFI c1cc4 .cfa: x29 48 +
STACK CFI c1d8c .cfa: sp 48 +
STACK CFI c1d98 .cfa: sp 0 +
STACK CFI c1d9c .cfa: x29 48 +
STACK CFI c1dfc .cfa: sp 48 +
STACK CFI c1e08 .cfa: sp 0 +
STACK CFI INIT c1e0c 204 .cfa: sp 0 +
STACK CFI c1e10 .cfa: sp 48 +
STACK CFI c1e1c .cfa: x29 48 + x19: .cfa -8 + ^ x20: .cfa -16 + ^ x21: .cfa -32 + ^ .ra: .cfa -40 + ^ x29: .cfa -48 + ^
STACK CFI c1f18 .cfa: sp 48 +
STACK CFI c1f24 .cfa: sp 0 +
STACK CFI c1f28 .cfa: x29 48 +
STACK CFI c1fec .cfa: sp 48 +
STACK CFI c1ff8 .cfa: sp 0 +
STACK CFI c1ffc .cfa: x29 48 +
STACK CFI INIT c2010 234 .cfa: sp 0 +
STACK CFI c2014 .cfa: sp 48 +
STACK CFI c2020 .cfa: x29 48 + x19: .cfa -8 + ^ x20: .cfa -16 + ^ x21: .cfa -32 + ^ .ra: .cfa -40 + ^ x29: .cfa -48 + ^
STACK CFI c211c .cfa: sp 48 +
STACK CFI c2128 .cfa: sp 0 +
STACK CFI c212c .cfa: x29 48 +
STACK CFI c2234 .cfa: sp 48 +
STACK CFI c2240 .cfa: sp 0 +
STACK CFI INIT c2244 5c4 .cfa: sp 0 +
STACK CFI INIT c2808 64 .cfa: sp 0 +
STACK CFI INIT c286c 24 .cfa: sp 0 +
STACK CFI INIT c2890 30 .cfa: sp 0 +
STACK CFI INIT c28c0 94 .cfa: sp 0 +
STACK CFI c28c4 .cfa: sp 64 +
STACK CFI c28d4 .cfa: x29 64 + x19: .cfa -8 + ^ x20: .cfa -16 + ^ x21: .cfa -24 + ^ x22: .cfa -32 + ^ x23: .cfa -48 + ^ .ra: .cfa -56 + ^ x29: .cfa -64 + ^
STACK CFI c2940 .cfa: sp 64 +
STACK CFI c2950 .cfa: sp 0 +
STACK CFI INIT c2954 150 .cfa: sp 0 +
STACK CFI c2958 .cfa: sp 64 +
STACK CFI c2968 .cfa: x29 64 + x19: .cfa -8 + ^ x20: .cfa -16 + ^ x21: .cfa -24 + ^ x22: .cfa -32 + ^ x23: .cfa -40 + ^ x24: .cfa -48 + ^ .ra: .cfa -56 + ^ x29: .cfa -64 + ^
STACK CFI c2a90 .cfa: sp 64 +
STACK CFI c2aa0 .cfa: sp 0 +
STACK CFI INIT c2aa4 34 .cfa: sp 0 +
STACK CFI INIT c2ad8 38 .cfa: sp 0 +
STACK CFI INIT c2b10 a4 .cfa: sp 0 +
STACK CFI INIT c2bb4 3c .cfa: sp 0 +
STACK CFI INIT c2bf0 24 .cfa: sp 0 +
STACK CFI INIT c2c14 27c .cfa: sp 0 +
STACK CFI c2c18 .cfa: sp 32 +
STACK CFI c2c24 .cfa: x29 24 + x19: .cfa -8 + ^ .ra: .cfa -16 + ^ x29: .cfa -24 + ^ v8: .cfa -32 + ^
STACK CFI c2d7c .cfa: sp 32 +
STACK CFI c2d88 .cfa: sp 0 +
STACK CFI c2d8c .cfa: x29 24 +
STACK CFI c2e50 .cfa: sp 32 +
STACK CFI c2e5c .cfa: sp 0 +
STACK CFI c2e60 .cfa: x29 24 +
STACK CFI INIT c2e90 13c .cfa: sp 0 +
STACK CFI c2e94 .cfa: sp 64 +
STACK CFI c2ea4 .cfa: x29 64 + x19: .cfa -8 + ^ x20: .cfa -16 + ^ x21: .cfa -24 + ^ x22: .cfa -32 + ^ x23: .cfa -40 + ^ x24: .cfa -48 + ^ .ra: .cfa -56 + ^ x29: .cfa -64 + ^
STACK CFI c2fb8 .cfa: sp 64 +
STACK CFI c2fc8 .cfa: sp 0 +
STACK CFI INIT c2fcc 474 .cfa: sp 0 +
STACK CFI c2fd0 .cfa: sp 144 +
STACK CFI c2fec .cfa: x29 96 + x19: .cfa -8 + ^ x20: .cfa -16 + ^ x21: .cfa -24 + ^ x22: .cfa -32 + ^ x23: .cfa -40 + ^ x24: .cfa -48 + ^ x25: .cfa -56 + ^ x26: .cfa -64 + ^ x27: .cfa -72 + ^ x28: .cfa -80 + ^ .ra: .cfa -88 + ^ x29: .cfa -96 + ^
STACK CFI c3320 .cfa: sp 144 +
STACK CFI c333c .cfa: sp 0 +
STACK CFI c3340 .cfa: x29 96 +
STACK CFI c341c .cfa: sp 144 +
STACK CFI c3438 .cfa: sp 0 +
STACK CFI c343c .cfa: x29 96 +
STACK CFI INIT c3440 18 .cfa: sp 0 +
STACK CFI INIT c3458 54 .cfa: sp 0 +
STACK CFI c345c .cfa: sp 32 +
STACK CFI c3464 .cfa: x29 32 + x19: .cfa -16 + ^ .ra: .cfa -24 + ^ x29: .cfa -32 + ^
STACK CFI c34a0 .cfa: sp 32 +
STACK CFI c34a8 .cfa: sp 0 +
STACK CFI INIT c34ac 350 .cfa: sp 0 +
STACK CFI c34b0 .cfa: sp 96 +
STACK CFI c34c8 .cfa: x29 96 + x19: .cfa -8 + ^ x20: .cfa -16 + ^ x21: .cfa -24 + ^ x22: .cfa -32 + ^ x23: .cfa -40 + ^ x24: .cfa -48 + ^ x25: .cfa -56 + ^ x26: .cfa -64 + ^ x27: .cfa -72 + ^ x28: .cfa -80 + ^ .ra: .cfa -88 + ^ x29: .cfa -96 + ^
STACK CFI c3690 .cfa: sp 96 +
STACK CFI c36a8 .cfa: sp 0 +
STACK CFI c36ac .cfa: x29 96 +
STACK CFI INIT c37fc 64 .cfa: sp 0 +
STACK CFI c3800 .cfa: sp 32 +
STACK CFI c3808 .cfa: x29 32 + x19: .cfa -16 + ^ .ra: .cfa -24 + ^ x29: .cfa -32 + ^
STACK CFI c3830 .cfa: sp 32 +
STACK CFI c3838 .cfa: sp 0 +
STACK CFI c383c .cfa: x29 32 +
STACK CFI c3854 .cfa: sp 32 +
STACK CFI c385c .cfa: sp 0 +
STACK CFI INIT c3860 12c .cfa: sp 0 +
STACK CFI c3864 .cfa: sp 64 +
STACK CFI c3874 .cfa: x29 64 + x19: .cfa -8 + ^ x20: .cfa -16 + ^ x21: .cfa -24 + ^ x22: .cfa -32 + ^ x23: .cfa -48 + ^ .ra: .cfa -56 + ^ x29: .cfa -64 + ^
STACK CFI c3978 .cfa: sp 64 +
STACK CFI c3988 .cfa: sp 0 +
STACK CFI INIT c398c 11c .cfa: sp 0 +
STACK CFI INIT c3aa8 124 .cfa: sp 0 +
STACK CFI c3aac .cfa: sp 64 +
STACK CFI c3abc .cfa: x29 64 + x19: .cfa -8 + ^ x20: .cfa -16 + ^ x21: .cfa -24 + ^ x22: .cfa -32 + ^ x23: .cfa -40 + ^ x24: .cfa -48 + ^ .ra: .cfa -56 + ^ x29: .cfa -64 + ^
STACK CFI c3b6c .cfa: sp 64 +
STACK CFI c3b7c .cfa: sp 0 +
STACK CFI c3b80 .cfa: x29 64 +
STACK CFI c3bb8 .cfa: sp 64 +
STACK CFI c3bc8 .cfa: sp 0 +
STACK CFI INIT c3bcc 274 .cfa: sp 0 +
STACK CFI c3bd0 .cfa: sp 112 +
STACK CFI c3be8 .cfa: x29 80 + x19: .cfa -8 + ^ x20: .cfa -16 + ^ x21: .cfa -24 + ^ x22: .cfa -32 + ^ x23: .cfa -40 + ^ x24: .cfa -48 + ^ x25: .cfa -56 + ^ x26: .cfa -64 + ^ .ra: .cfa -72 + ^ x29: .cfa -80 + ^
STACK CFI c3c6c .cfa: sp 112 +
STACK CFI c3c84 .cfa: sp 0 +
STACK CFI c3c88 .cfa: x29 80 +
STACK CFI INIT c3e40 1d4 .cfa: sp 0 +
STACK CFI c3e44 .cfa: sp 96 +
STACK CFI c3e54 .cfa: x29 48 + x19: .cfa -8 + ^ x20: .cfa -16 + ^ x21: .cfa -24 + ^ x22: .cfa -32 + ^ .ra: .cfa -40 + ^ x29: .cfa -48 + ^
STACK CFI c3ff4 .cfa: sp 96 +
STACK CFI c4004 .cfa: sp 0 +
STACK CFI c4008 .cfa: x29 48 +
STACK CFI INIT c4014 38 .cfa: sp 0 +
STACK CFI INIT c404c 24 .cfa: sp 0 +
STACK CFI INIT c4070 14c .cfa: sp 0 +
STACK CFI c4074 .cfa: sp 368 +
STACK CFI c4088 .cfa: x29 64 + x19: .cfa -8 + ^ x20: .cfa -16 + ^ x21: .cfa -24 + ^ x22: .cfa -32 + ^ x28: .cfa -48 + ^ .ra: .cfa -56 + ^ x29: .cfa -64 + ^
STACK CFI c4178 .cfa: sp 368 +
STACK CFI c418c .cfa: sp 0 +
STACK CFI c4190 .cfa: x29 64 +
STACK CFI INIT c41bc 100 .cfa: sp 0 +
STACK CFI c41c0 .cfa: sp 128 +
STACK CFI c41d0 .cfa: x29 48 + x19: .cfa -8 + ^ x20: .cfa -16 + ^ x21: .cfa -24 + ^ x22: .cfa -32 + ^ .ra: .cfa -40 + ^ x29: .cfa -48 + ^
STACK CFI c427c .cfa: sp 128 +
STACK CFI c428c .cfa: sp 0 +
STACK CFI c4290 .cfa: x29 48 +
STACK CFI INIT c42bc 6c .cfa: sp 0 +
STACK CFI INIT c4328 18 .cfa: sp 0 +
STACK CFI INIT c4340 74 .cfa: sp 0 +
STACK CFI INIT c43b4 d0 .cfa: sp 0 +
STACK CFI c43b8 .cfa: sp 48 +
STACK CFI c43c4 .cfa: x29 48 + x19: .cfa -8 + ^ x20: .cfa -16 + ^ x21: .cfa -32 + ^ .ra: .cfa -40 + ^ x29: .cfa -48 + ^
STACK CFI c43dc .cfa: sp 48 +
STACK CFI c43e8 .cfa: sp 0 +
STACK CFI c43ec .cfa: x29 48 +
STACK CFI c4474 .cfa: sp 48 +
STACK CFI c4480 .cfa: sp 0 +
STACK CFI INIT c4484 7c .cfa: sp 0 +
STACK CFI INIT c4500 7c .cfa: sp 0 +
STACK CFI INIT c457c 3cc .cfa: sp 0 +
STACK CFI c4580 .cfa: sp 128 +
STACK CFI c459c .cfa: x29 96 + x19: .cfa -8 + ^ x20: .cfa -16 + ^ x21: .cfa -24 + ^ x22: .cfa -32 + ^ x23: .cfa -40 + ^ x24: .cfa -48 + ^ x25: .cfa -56 + ^ x26: .cfa -64 + ^ x27: .cfa -80 + ^ .ra: .cfa -88 + ^ x29: .cfa -96 + ^
STACK CFI c4924 .cfa: sp 128 +
STACK CFI c4940 .cfa: sp 0 +
STACK CFI c4944 .cfa: x29 96 +
STACK CFI INIT c4948 2c .cfa: sp 0 +
STACK CFI INIT c4974 108 .cfa: sp 0 +
STACK CFI c4978 .cfa: sp 32 +
STACK CFI c4980 .cfa: x29 32 + x19: .cfa -8 + ^ x20: .cfa -16 + ^ .ra: .cfa -24 + ^ x29: .cfa -32 + ^
STACK CFI c4a28 .cfa: sp 32 +
STACK CFI c4a30 .cfa: sp 0 +
STACK CFI c4a34 .cfa: x29 32 +
STACK CFI c4a70 .cfa: sp 32 +
STACK CFI c4a78 .cfa: sp 0 +
STACK CFI INIT c4a7c a8 .cfa: sp 0 +
STACK CFI INIT c4b24 120 .cfa: sp 0 +
STACK CFI c4b28 .cfa: sp 48 +
STACK CFI c4b34 .cfa: x29 48 + x19: .cfa -8 + ^ x20: .cfa -16 + ^ x21: .cfa -32 + ^ .ra: .cfa -40 + ^ x29: .cfa -48 + ^
STACK CFI c4c34 .cfa: sp 48 +
STACK CFI c4c40 .cfa: sp 0 +
STACK CFI INIT c4c44 124 .cfa: sp 0 +
STACK CFI c4c48 .cfa: sp 48 +
STACK CFI c4c54 .cfa: x29 32 + x19: .cfa -8 + ^ x20: .cfa -16 + ^ .ra: .cfa -24 + ^ x29: .cfa -32 + ^
STACK CFI c4d54 .cfa: sp 48 +
STACK CFI c4d60 .cfa: sp 0 +
STACK CFI c4d64 .cfa: x29 32 +
STACK CFI INIT c4d68 368 .cfa: sp 0 +
STACK CFI c4d6c .cfa: sp 144 +
STACK CFI c4d88 .cfa: x29 96 + x19: .cfa -8 + ^ x20: .cfa -16 + ^ x21: .cfa -24 + ^ x22: .cfa -32 + ^ x23: .cfa -40 + ^ x24: .cfa -48 + ^ x25: .cfa -56 + ^ x26: .cfa -64 + ^ x27: .cfa -72 + ^ x28: .cfa -80 + ^ .ra: .cfa -88 + ^ x29: .cfa -96 + ^
STACK CFI c50b0 .cfa: sp 144 +
STACK CFI c50cc .cfa: sp 0 +
STACK CFI INIT c50d0 fc .cfa: sp 0 +
STACK CFI c50d4 .cfa: sp 64 +
STACK CFI c50e4 .cfa: x29 64 + x19: .cfa -8 + ^ x20: .cfa -16 + ^ x21: .cfa -24 + ^ x22: .cfa -32 + ^ x23: .cfa -48 + ^ .ra: .cfa -56 + ^ x29: .cfa -64 + ^
STACK CFI c51b8 .cfa: sp 64 +
STACK CFI c51c8 .cfa: sp 0 +
STACK CFI INIT c51cc 1cc .cfa: sp 0 +
STACK CFI c51d0 .cfa: sp 80 +
STACK CFI c51e4 .cfa: x29 80 + x19: .cfa -8 + ^ x20: .cfa -16 + ^ x21: .cfa -24 + ^ x22: .cfa -32 + ^ x23: .cfa -40 + ^ x24: .cfa -48 + ^ x25: .cfa -64 + ^ .ra: .cfa -72 + ^ x29: .cfa -80 + ^
STACK CFI c5380 .cfa: sp 80 +
STACK CFI c5394 .cfa: sp 0 +
STACK CFI INIT c5398 64 .cfa: sp 0 +
STACK CFI INIT c53fc 84 .cfa: sp 0 +
STACK CFI INIT c5480 274 .cfa: sp 0 +
STACK CFI c5484 .cfa: sp 32 +
STACK CFI c548c .cfa: x29 32 + x19: .cfa -8 + ^ x20: .cfa -16 + ^ .ra: .cfa -24 + ^ x29: .cfa -32 + ^
STACK CFI c5698 .cfa: sp 32 +
STACK CFI c56a0 .cfa: sp 0 +
STACK CFI c56a4 .cfa: x29 32 +
STACK CFI INIT c56f4 130 .cfa: sp 0 +
STACK CFI c56f8 .cfa: sp 32 +
STACK CFI c5700 .cfa: x29 32 + x19: .cfa -8 + ^ x20: .cfa -16 + ^ .ra: .cfa -24 + ^ x29: .cfa -32 + ^
STACK CFI c5818 .cfa: sp 32 +
STACK CFI c5820 .cfa: sp 0 +
STACK CFI INIT c5824 4c .cfa: sp 0 +
STACK CFI INIT c5870 3c .cfa: sp 0 +
STACK CFI INIT c58ac fc .cfa: sp 0 +
STACK CFI INIT c59a8 120 .cfa: sp 0 +
STACK CFI INIT c5ac8 a4 .cfa: sp 0 +
STACK CFI INIT c5b6c 4ec .cfa: sp 0 +
STACK CFI c5b70 .cfa: sp 96 +
STACK CFI c5b88 .cfa: x29 96 + x19: .cfa -8 + ^ x20: .cfa -16 + ^ x21: .cfa -24 + ^ x22: .cfa -32 + ^ x23: .cfa -40 + ^ x24: .cfa -48 + ^ x25: .cfa -56 + ^ x26: .cfa -64 + ^ x27: .cfa -72 + ^ x28: .cfa -80 + ^ .ra: .cfa -88 + ^ x29: .cfa -96 + ^
STACK CFI c603c .cfa: sp 96 +
STACK CFI c6054 .cfa: sp 0 +
STACK CFI INIT c6058 a8 .cfa: sp 0 +
STACK CFI c605c .cfa: sp 32 +
STACK CFI c6064 .cfa: x29 32 + x19: .cfa -8 + ^ x20: .cfa -16 + ^ .ra: .cfa -24 + ^ x29: .cfa -32 + ^
STACK CFI c60f4 .cfa: sp 32 +
STACK CFI c60fc .cfa: sp 0 +
STACK CFI INIT c6100 f8 .cfa: sp 0 +
STACK CFI c6104 .cfa: sp 64 +
STACK CFI c6114 .cfa: x29 64 + x19: .cfa -8 + ^ x20: .cfa -16 + ^ x21: .cfa -24 + ^ x22: .cfa -32 + ^ x23: .cfa -48 + ^ .ra: .cfa -56 + ^ x29: .cfa -64 + ^
STACK CFI c61e4 .cfa: sp 64 +
STACK CFI c61f4 .cfa: sp 0 +
STACK CFI INIT c61f8 15c .cfa: sp 0 +
STACK CFI c61fc .cfa: sp 48 +
STACK CFI c6208 .cfa: x29 48 + x19: .cfa -8 + ^ x20: .cfa -16 + ^ x21: .cfa -32 + ^ .ra: .cfa -40 + ^ x29: .cfa -48 + ^
STACK CFI c6344 .cfa: sp 48 +
STACK CFI c6350 .cfa: sp 0 +
STACK CFI INIT c6354 28 .cfa: sp 0 +
STACK CFI c6358 .cfa: sp 16 +
STACK CFI c635c .cfa: x29 16 + .ra: .cfa -8 + ^ x29: .cfa -16 + ^
STACK CFI c6374 .cfa: sp 16 +
STACK CFI c6378 .cfa: sp 0 +
STACK CFI INIT c637c 4e4 .cfa: sp 0 +
STACK CFI c6380 .cfa: sp 128 +
STACK CFI c6394 .cfa: x29 64 + x19: .cfa -8 + ^ x20: .cfa -16 + ^ x21: .cfa -24 + ^ x22: .cfa -32 + ^ x23: .cfa -48 + ^ .ra: .cfa -56 + ^ x29: .cfa -64 + ^
STACK CFI c6844 .cfa: sp 128 +
STACK CFI c6858 .cfa: sp 0 +
STACK CFI c685c .cfa: x29 64 +
STACK CFI INIT c7098 6c0 .cfa: sp 0 +
STACK CFI c70a8 .cfa: sp 128 +
STACK CFI c70c4 .cfa: x29 96 + x19: .cfa -8 + ^ x20: .cfa -16 + ^ x21: .cfa -24 + ^ x22: .cfa -32 + ^ x23: .cfa -40 + ^ x24: .cfa -48 + ^ x25: .cfa -56 + ^ x26: .cfa -64 + ^ x27: .cfa -72 + ^ x28: .cfa -80 + ^ .ra: .cfa -88 + ^ x29: .cfa -96 + ^
STACK CFI c7738 .cfa: sp 128 +
STACK CFI c7754 .cfa: sp 0 +
STACK CFI INIT c7758 1c8 .cfa: sp 0 +
STACK CFI c775c .cfa: sp 112 +
STACK CFI c7778 .cfa: x29 96 + x19: .cfa -8 + ^ x20: .cfa -16 + ^ x21: .cfa -24 + ^ x22: .cfa -32 + ^ x23: .cfa -40 + ^ x24: .cfa -48 + ^ x25: .cfa -56 + ^ x26: .cfa -64 + ^ x27: .cfa -80 + ^ .ra: .cfa -88 + ^ x29: .cfa -96 + ^
STACK CFI c78fc .cfa: sp 112 +
STACK CFI c7918 .cfa: sp 0 +
STACK CFI c791c .cfa: x29 96 +
STACK CFI INIT c7920 2c .cfa: sp 0 +
STACK CFI c7924 .cfa: sp 32 +
STACK CFI c792c .cfa: x29 32 + x19: .cfa -16 + ^ .ra: .cfa -24 + ^ x29: .cfa -32 + ^
STACK CFI c7940 .cfa: sp 32 +
STACK CFI c7948 .cfa: sp 0 +
STACK CFI INIT c794c 1a4 .cfa: sp 0 +
STACK CFI c7950 .cfa: sp 64 +
STACK CFI c7960 .cfa: x29 64 + x19: .cfa -8 + ^ x20: .cfa -16 + ^ x21: .cfa -24 + ^ x22: .cfa -32 + ^ x23: .cfa -48 + ^ .ra: .cfa -56 + ^ x29: .cfa -64 + ^
STACK CFI c7adc .cfa: sp 64 +
STACK CFI c7aec .cfa: sp 0 +
STACK CFI INIT c81c0 158 .cfa: sp 0 +
STACK CFI c81c4 .cfa: sp 64 +
STACK CFI c81d4 .cfa: x29 64 + x19: .cfa -8 + ^ x20: .cfa -16 + ^ x21: .cfa -24 + ^ x22: .cfa -32 + ^ x23: .cfa -40 + ^ x24: .cfa -48 + ^ .ra: .cfa -56 + ^ x29: .cfa -64 + ^
STACK CFI c8304 .cfa: sp 64 +
STACK CFI c8314 .cfa: sp 0 +
STACK CFI INIT c8318 2d8 .cfa: sp 0 +
STACK CFI c831c .cfa: sp 144 +
STACK CFI c8338 .cfa: x29 96 + x19: .cfa -8 + ^ x20: .cfa -16 + ^ x21: .cfa -24 + ^ x22: .cfa -32 + ^ x23: .cfa -40 + ^ x24: .cfa -48 + ^ x25: .cfa -56 + ^ x26: .cfa -64 + ^ x27: .cfa -72 + ^ x28: .cfa -80 + ^ .ra: .cfa -88 + ^ x29: .cfa -96 + ^
STACK CFI c85cc .cfa: sp 144 +
STACK CFI c85e8 .cfa: sp 0 +
STACK CFI c85ec .cfa: x29 96 +
STACK CFI INIT c85f0 370 .cfa: sp 0 +
STACK CFI c85f4 .cfa: sp 80 +
STACK CFI c8608 .cfa: x29 80 + x19: .cfa -8 + ^ x20: .cfa -16 + ^ x21: .cfa -24 + ^ x22: .cfa -32 + ^ x23: .cfa -40 + ^ x24: .cfa -48 + ^ x25: .cfa -64 + ^ .ra: .cfa -72 + ^ x29: .cfa -80 + ^
STACK CFI c8948 .cfa: sp 80 +
STACK CFI c895c .cfa: sp 0 +
STACK CFI INIT c8960 cc .cfa: sp 0 +
STACK CFI c89cc .cfa: sp 48 +
STACK CFI c89d8 .cfa: x29 32 + x19: .cfa -16 + ^ .ra: .cfa -24 + ^ x29: .cfa -32 + ^ v8: .cfa -40 + ^ v9: .cfa -48 + ^
STACK CFI c8a0c .cfa: sp 48 +
STACK CFI c8a18 .cfa: sp 0 +
STACK CFI INIT c8a2c 984 .cfa: sp 0 +
STACK CFI c8a30 .cfa: sp 160 +
STACK CFI c8a50 .cfa: x29 96 + x19: .cfa -8 + ^ x20: .cfa -16 + ^ x21: .cfa -24 + ^ x22: .cfa -32 + ^ x23: .cfa -40 + ^ x24: .cfa -48 + ^ x25: .cfa -56 + ^ x26: .cfa -64 + ^ x27: .cfa -72 + ^ x28: .cfa -80 + ^ .ra: .cfa -88 + ^ x29: .cfa -96 + ^ v8: .cfa -112 + ^
STACK CFI c9350 .cfa: sp 160 +
STACK CFI c9370 .cfa: sp 0 +
STACK CFI c9374 .cfa: x29 96 +
STACK CFI INIT c93b0 2c98 .cfa: sp 0 +
STACK CFI c93b4 .cfa: sp 480 +
STACK CFI c93d8 .cfa: x29 96 + x19: .cfa -8 + ^ x20: .cfa -16 + ^ x21: .cfa -24 + ^ x22: .cfa -32 + ^ x23: .cfa -40 + ^ x24: .cfa -48 + ^ x25: .cfa -56 + ^ x26: .cfa -64 + ^ x27: .cfa -72 + ^ x28: .cfa -80 + ^ .ra: .cfa -88 + ^ x29: .cfa -96 + ^ v8: .cfa -104 + ^ v9: .cfa -112 + ^ v10: .cfa -128 + ^
STACK CFI ca984 .cfa: sp 480 +
STACK CFI ca9a8 .cfa: sp 0 +
STACK CFI ca9ac .cfa: x29 96 +
STACK CFI INIT cc048 5c .cfa: sp 0 +
STACK CFI INIT cc0a4 70 .cfa: sp 0 +
STACK CFI INIT cc114 114 .cfa: sp 0 +
STACK CFI cc118 .cfa: sp 128 +
STACK CFI cc134 .cfa: x29 80 + x19: .cfa -8 + ^ x20: .cfa -16 + ^ x21: .cfa -24 + ^ x22: .cfa -32 + ^ x23: .cfa -40 + ^ x24: .cfa -48 + ^ x25: .cfa -56 + ^ x26: .cfa -64 + ^ .ra: .cfa -72 + ^ x29: .cfa -80 + ^ v8: .cfa -96 + ^
STACK CFI cc204 .cfa: sp 128 +
STACK CFI cc220 .cfa: sp 0 +
STACK CFI cc224 .cfa: x29 80 +
STACK CFI INIT cc228 f4 .cfa: sp 0 +
STACK CFI cc22c .cfa: sp 96 +
STACK CFI cc23c .cfa: x29 48 + x19: .cfa -8 + ^ x20: .cfa -16 + ^ x21: .cfa -24 + ^ x22: .cfa -32 + ^ .ra: .cfa -40 + ^ x29: .cfa -48 + ^
STACK CFI cc304 .cfa: sp 96 +
STACK CFI cc314 .cfa: sp 0 +
STACK CFI cc318 .cfa: x29 48 +
STACK CFI INIT cc31c 424 .cfa: sp 0 +
STACK CFI cc320 .cfa: sp 64 +
STACK CFI cc330 .cfa: x29 64 + x19: .cfa -8 + ^ x20: .cfa -16 + ^ x21: .cfa -24 + ^ x22: .cfa -32 + ^ x23: .cfa -40 + ^ x24: .cfa -48 + ^ .ra: .cfa -56 + ^ x29: .cfa -64 + ^
STACK CFI cc698 .cfa: sp 64 +
STACK CFI cc6a8 .cfa: sp 0 +
STACK CFI cc6ac .cfa: x29 64 +
STACK CFI cc72c .cfa: sp 64 +
STACK CFI cc73c .cfa: sp 0 +
STACK CFI INIT cc740 198 .cfa: sp 0 +
STACK CFI cc744 .cfa: sp 48 +
STACK CFI cc750 .cfa: x29 48 + x19: .cfa -8 + ^ x20: .cfa -16 + ^ x21: .cfa -32 + ^ .ra: .cfa -40 + ^ x29: .cfa -48 + ^
STACK CFI cc8c0 .cfa: sp 48 +
STACK CFI cc8cc .cfa: sp 0 +
STACK CFI cc8d0 .cfa: x29 48 +
STACK CFI INIT cc8d8 258 .cfa: sp 0 +
STACK CFI cc8dc .cfa: sp 64 +
STACK CFI cc8ec .cfa: x29 64 + x19: .cfa -8 + ^ x20: .cfa -16 + ^ x21: .cfa -24 + ^ x22: .cfa -32 + ^ x23: .cfa -48 + ^ .ra: .cfa -56 + ^ x29: .cfa -64 + ^
STACK CFI cc91c .cfa: sp 64 +
STACK CFI cc92c .cfa: sp 0 +
STACK CFI cc930 .cfa: x29 64 +
STACK CFI ccb1c .cfa: sp 64 +
STACK CFI ccb2c .cfa: sp 0 +
STACK CFI INIT ccb30 5f8 .cfa: sp 0 +
STACK CFI ccb34 .cfa: sp 112 +
STACK CFI ccb50 .cfa: x29 96 + x19: .cfa -8 + ^ x20: .cfa -16 + ^ x21: .cfa -24 + ^ x22: .cfa -32 + ^ x23: .cfa -40 + ^ x24: .cfa -48 + ^ x25: .cfa -56 + ^ x26: .cfa -64 + ^ x27: .cfa -72 + ^ x28: .cfa -80 + ^ .ra: .cfa -88 + ^ x29: .cfa -96 + ^
STACK CFI cd084 .cfa: sp 112 +
STACK CFI cd0a0 .cfa: sp 0 +
STACK CFI cd0a4 .cfa: x29 96 +
STACK CFI cd108 .cfa: sp 112 +
STACK CFI cd124 .cfa: sp 0 +
STACK CFI INIT cd128 158 .cfa: sp 0 +
STACK CFI cd12c .cfa: sp 432 +
STACK CFI cd148 .cfa: x29 96 + x19: .cfa -8 + ^ x20: .cfa -16 + ^ x21: .cfa -24 + ^ x22: .cfa -32 + ^ x23: .cfa -40 + ^ x24: .cfa -48 + ^ x25: .cfa -56 + ^ x26: .cfa -64 + ^ x27: .cfa -72 + ^ x28: .cfa -80 + ^ .ra: .cfa -88 + ^ x29: .cfa -96 + ^
STACK CFI cd25c .cfa: sp 432 +
STACK CFI cd278 .cfa: sp 0 +
STACK CFI cd27c .cfa: x29 96 +
STACK CFI INIT cd280 82c .cfa: sp 0 +
STACK CFI cd284 .cfa: sp 96 +
STACK CFI cd294 .cfa: x29 48 + x19: .cfa -8 + ^ x20: .cfa -16 + ^ x21: .cfa -32 + ^ .ra: .cfa -40 + ^ x29: .cfa -48 + ^
STACK CFI cda94 .cfa: sp 96 +
STACK CFI cdaa4 .cfa: sp 0 +
STACK CFI cdaa8 .cfa: x29 48 +
STACK CFI INIT cdaac 7c .cfa: sp 0 +
STACK CFI INIT cdda4 110 .cfa: sp 0 +
STACK CFI cddc8 .cfa: sp 48 +
STACK CFI cddd4 .cfa: x29 48 + x19: .cfa -8 + ^ x20: .cfa -16 + ^ x21: .cfa -24 + ^ x22: .cfa -32 + ^ .ra: .cfa -40 + ^ x29: .cfa -48 + ^
STACK CFI cde9c .cfa: sp 48 +
STACK CFI cdea8 .cfa: sp 0 +
STACK CFI INIT cdeb4 30 .cfa: sp 0 +
STACK CFI cdeb8 .cfa: sp 16 +
STACK CFI cdebc .cfa: x29 16 + .ra: .cfa -8 + ^ x29: .cfa -16 + ^
STACK CFI cdedc .cfa: sp 16 +
STACK CFI cdee0 .cfa: sp 0 +
STACK CFI INIT cdee4 5d4 .cfa: sp 0 +
STACK CFI cdee8 .cfa: sp 416 +
STACK CFI cdf08 .cfa: x29 96 + x19: .cfa -8 + ^ x20: .cfa -16 + ^ x21: .cfa -24 + ^ x22: .cfa -32 + ^ x23: .cfa -40 + ^ x24: .cfa -48 + ^ x25: .cfa -56 + ^ x26: .cfa -64 + ^ x27: .cfa -72 + ^ x28: .cfa -80 + ^ .ra: .cfa -88 + ^ x29: .cfa -96 + ^ v8: .cfa -104 + ^ v9: .cfa -112 + ^
STACK CFI ce488 .cfa: sp 416 +
STACK CFI ce4a8 .cfa: sp 0 +
STACK CFI ce4ac .cfa: x29 96 +
STACK CFI INIT ce4b8 4ec .cfa: sp 0 +
STACK CFI ce4bc .cfa: sp 160 +
STACK CFI ce4dc .cfa: x29 96 + x19: .cfa -8 + ^ x20: .cfa -16 + ^ x21: .cfa -24 + ^ x22: .cfa -32 + ^ x23: .cfa -40 + ^ x24: .cfa -48 + ^ x25: .cfa -56 + ^ x26: .cfa -64 + ^ x27: .cfa -72 + ^ x28: .cfa -80 + ^ .ra: .cfa -88 + ^ x29: .cfa -96 + ^ v8: .cfa -112 + ^
STACK CFI ce97c .cfa: sp 160 +
STACK CFI ce99c .cfa: sp 0 +
STACK CFI ce9a0 .cfa: x29 96 +
STACK CFI INIT ce9a4 25c .cfa: sp 0 +
STACK CFI ce9a8 .cfa: sp 48 +
STACK CFI ce9b4 .cfa: x29 48 + x19: .cfa -8 + ^ x20: .cfa -16 + ^ x21: .cfa -32 + ^ .ra: .cfa -40 + ^ x29: .cfa -48 + ^
STACK CFI ceb70 .cfa: sp 48 +
STACK CFI ceb7c .cfa: sp 0 +
STACK CFI ceb80 .cfa: x29 48 +
STACK CFI cebd8 .cfa: sp 48 +
STACK CFI cebe4 .cfa: sp 0 +
STACK CFI cebe8 .cfa: x29 48 +
STACK CFI INIT cec00 68 .cfa: sp 0 +
STACK CFI INIT cec68 78 .cfa: sp 0 +
STACK CFI INIT cece0 90 .cfa: sp 0 +
STACK CFI INIT ced70 11c .cfa: sp 0 +
STACK CFI ced74 .cfa: sp 80 +
STACK CFI ced88 .cfa: x29 64 + x19: .cfa -8 + ^ x20: .cfa -16 + ^ x21: .cfa -24 + ^ x22: .cfa -32 + ^ x23: .cfa -40 + ^ x24: .cfa -48 + ^ .ra: .cfa -56 + ^ x29: .cfa -64 + ^
STACK CFI cee70 .cfa: sp 80 +
STACK CFI cee84 .cfa: sp 0 +
STACK CFI cee88 .cfa: x29 64 +
STACK CFI INIT cee8c 148 .cfa: sp 0 +
STACK CFI cee90 .cfa: sp 48 +
STACK CFI cee9c .cfa: x29 48 + x19: .cfa -8 + ^ x20: .cfa -16 + ^ x21: .cfa -32 + ^ .ra: .cfa -40 + ^ x29: .cfa -48 + ^
STACK CFI cefb4 .cfa: sp 48 +
STACK CFI cefc0 .cfa: sp 0 +
STACK CFI cefc4 .cfa: sp 48 +
STACK CFI cefd0 .cfa: sp 0 +
STACK CFI INIT cefd4 1a0 .cfa: sp 0 +
STACK CFI cefd8 .cfa: sp 48 +
STACK CFI cefe4 .cfa: x29 48 + x19: .cfa -8 + ^ x20: .cfa -16 + ^ x21: .cfa -32 + ^ .ra: .cfa -40 + ^ x29: .cfa -48 + ^
STACK CFI cf038 .cfa: sp 48 +
STACK CFI cf044 .cfa: sp 0 +
STACK CFI cf048 .cfa: x29 48 +
STACK CFI cf0cc .cfa: sp 48 +
STACK CFI cf0d8 .cfa: sp 0 +
STACK CFI cf0dc .cfa: x29 48 +
STACK CFI cf148 .cfa: sp 48 +
STACK CFI cf154 .cfa: sp 0 +
STACK CFI cf158 .cfa: x29 48 +
STACK CFI INIT cf174 28 .cfa: sp 0 +
STACK CFI INIT cf268 19c .cfa: sp 0 +
STACK CFI cf26c .cfa: sp 176 +
STACK CFI cf288 .cfa: x29 80 + x19: .cfa -8 + ^ x20: .cfa -16 + ^ x21: .cfa -24 + ^ x22: .cfa -32 + ^ x23: .cfa -40 + ^ x24: .cfa -48 + ^ x25: .cfa -56 + ^ x26: .cfa -64 + ^ .ra: .cfa -72 + ^ x29: .cfa -80 + ^ v8: .cfa -96 + ^
STACK CFI cf3e4 .cfa: sp 176 +
STACK CFI cf400 .cfa: sp 0 +
STACK CFI INIT cf404 170 .cfa: sp 0 +
STACK CFI cf408 .cfa: sp 64 +
STACK CFI cf418 .cfa: x29 64 + x19: .cfa -8 + ^ x20: .cfa -16 + ^ x21: .cfa -24 + ^ x22: .cfa -32 + ^ x23: .cfa -48 + ^ .ra: .cfa -56 + ^ x29: .cfa -64 + ^
STACK CFI cf560 .cfa: sp 64 +
STACK CFI cf570 .cfa: sp 0 +
STACK CFI INIT cf574 184 .cfa: sp 0 +
STACK CFI cf578 .cfa: sp 48 +
STACK CFI cf584 .cfa: x29 48 + x19: .cfa -8 + ^ x20: .cfa -16 + ^ x21: .cfa -24 + ^ x22: .cfa -32 + ^ .ra: .cfa -40 + ^ x29: .cfa -48 + ^
STACK CFI cf6e8 .cfa: sp 48 +
STACK CFI cf6f4 .cfa: sp 0 +
STACK CFI INIT cf6f8 2c4 .cfa: sp 0 +
STACK CFI cf6fc .cfa: sp 32 +
STACK CFI cf704 .cfa: x29 32 + x19: .cfa -16 + ^ .ra: .cfa -24 + ^ x29: .cfa -32 + ^
STACK CFI cf89c .cfa: sp 32 +
STACK CFI cf8a4 .cfa: sp 0 +
STACK CFI cf8a8 .cfa: x29 32 +
STACK CFI cf9b0 .cfa: sp 32 +
STACK CFI cf9b8 .cfa: sp 0 +
STACK CFI INIT d0354 19c .cfa: sp 0 +
STACK CFI d0358 .cfa: sp 64 +
STACK CFI d0368 .cfa: x29 64 + x19: .cfa -8 + ^ x20: .cfa -16 + ^ x21: .cfa -24 + ^ x22: .cfa -32 + ^ x23: .cfa -40 + ^ x24: .cfa -48 + ^ .ra: .cfa -56 + ^ x29: .cfa -64 + ^
STACK CFI d04dc .cfa: sp 64 +
STACK CFI d04ec .cfa: sp 0 +
STACK CFI INIT d04f0 274 .cfa: sp 0 +
STACK CFI INIT d0764 144 .cfa: sp 0 +
STACK CFI INIT d08a8 12d8 .cfa: sp 0 +
STACK CFI d08ac .cfa: sp 368 +
STACK CFI d08d8 .cfa: x29 96 + x19: .cfa -8 + ^ x20: .cfa -16 + ^ x21: .cfa -24 + ^ x22: .cfa -32 + ^ x23: .cfa -40 + ^ x24: .cfa -48 + ^ x25: .cfa -56 + ^ x26: .cfa -64 + ^ x27: .cfa -72 + ^ x28: .cfa -80 + ^ .ra: .cfa -88 + ^ x29: .cfa -96 + ^ v8: .cfa -104 + ^ v9: .cfa -112 + ^ v10: .cfa -120 + ^ v11: .cfa -128 + ^ v12: .cfa -136 + ^ v13: .cfa -144 + ^ v14: .cfa -152 + ^ v15: .cfa -160 + ^
STACK CFI d1b4c .cfa: sp 368 +
STACK CFI d1b78 .cfa: sp 0 +
STACK CFI d1b7c .cfa: x29 96 +
STACK CFI INIT d1b80 9c4 .cfa: sp 0 +
STACK CFI d1b84 .cfa: sp 352 +
STACK CFI d1bb0 .cfa: x29 96 + x19: .cfa -8 + ^ x20: .cfa -16 + ^ x21: .cfa -24 + ^ x22: .cfa -32 + ^ x23: .cfa -40 + ^ x24: .cfa -48 + ^ x25: .cfa -56 + ^ x26: .cfa -64 + ^ x27: .cfa -72 + ^ x28: .cfa -80 + ^ .ra: .cfa -88 + ^ x29: .cfa -96 + ^ v8: .cfa -104 + ^ v9: .cfa -112 + ^ v10: .cfa -120 + ^ v11: .cfa -128 + ^ v12: .cfa -136 + ^ v13: .cfa -144 + ^ v14: .cfa -152 + ^ v15: .cfa -160 + ^
STACK CFI d24cc .cfa: sp 352 +
STACK CFI d24f8 .cfa: sp 0 +
STACK CFI d24fc .cfa: x29 96 +
STACK CFI d2510 .cfa: sp 352 +
STACK CFI d253c .cfa: sp 0 +
STACK CFI d2540 .cfa: x29 96 +
STACK CFI INIT d2544 3fc .cfa: sp 0 +
STACK CFI d2548 .cfa: sp 272 +
STACK CFI d2570 .cfa: x29 80 + x19: .cfa -8 + ^ x20: .cfa -16 + ^ x21: .cfa -24 + ^ x22: .cfa -32 + ^ x23: .cfa -40 + ^ x24: .cfa -48 + ^ x25: .cfa -56 + ^ x28: .cfa -64 + ^ .ra: .cfa -72 + ^ x29: .cfa -80 + ^ v8: .cfa -88 + ^ v9: .cfa -96 + ^ v10: .cfa -104 + ^ v11: .cfa -112 + ^ v12: .cfa -120 + ^ v13: .cfa -128 + ^ v14: .cfa -136 + ^ v15: .cfa -144 + ^
STACK CFI d2628 .cfa: sp 272 +
STACK CFI d2650 .cfa: sp 0 +
STACK CFI d2654 .cfa: x29 80 +
STACK CFI INIT d2940 360 .cfa: sp 0 +
STACK CFI d2944 .cfa: sp 128 +
STACK CFI d2960 .cfa: x29 96 + x19: .cfa -8 + ^ x20: .cfa -16 + ^ x21: .cfa -24 + ^ x22: .cfa -32 + ^ x23: .cfa -40 + ^ x24: .cfa -48 + ^ x25: .cfa -56 + ^ x26: .cfa -64 + ^ x27: .cfa -72 + ^ x28: .cfa -80 + ^ .ra: .cfa -88 + ^ x29: .cfa -96 + ^
STACK CFI d2c48 .cfa: sp 128 +
STACK CFI d2c64 .cfa: sp 0 +
STACK CFI d2c68 .cfa: x29 96 +
STACK CFI d2c7c .cfa: sp 128 +
STACK CFI d2c98 .cfa: sp 0 +
STACK CFI d2c9c .cfa: x29 96 +
STACK CFI INIT d2ca0 58 .cfa: sp 0 +
STACK CFI INIT d2cf8 1bc .cfa: sp 0 +
STACK CFI d2cfc .cfa: sp 176 +
STACK CFI d2d18 .cfa: x29 96 + x19: .cfa -8 + ^ x20: .cfa -16 + ^ x21: .cfa -24 + ^ x22: .cfa -32 + ^ x23: .cfa -40 + ^ x24: .cfa -48 + ^ x25: .cfa -56 + ^ x26: .cfa -64 + ^ x27: .cfa -72 + ^ x28: .cfa -80 + ^ .ra: .cfa -88 + ^ x29: .cfa -96 + ^
STACK CFI d2e90 .cfa: sp 176 +
STACK CFI d2eac .cfa: sp 0 +
STACK CFI d2eb0 .cfa: x29 96 +
STACK CFI INIT d2eb4 90c .cfa: sp 0 +
STACK CFI d2eb8 .cfa: sp 240 +
STACK CFI d2ee4 .cfa: x29 96 + x19: .cfa -8 + ^ x20: .cfa -16 + ^ x21: .cfa -24 + ^ x22: .cfa -32 + ^ x23: .cfa -40 + ^ x24: .cfa -48 + ^ x25: .cfa -56 + ^ x26: .cfa -64 + ^ x27: .cfa -72 + ^ x28: .cfa -80 + ^ .ra: .cfa -88 + ^ x29: .cfa -96 + ^ v8: .cfa -104 + ^ v9: .cfa -112 + ^ v10: .cfa -120 + ^ v11: .cfa -128 + ^ v12: .cfa -136 + ^ v13: .cfa -144 + ^ v14: .cfa -152 + ^ v15: .cfa -160 + ^
STACK CFI d2fb0 .cfa: sp 240 +
STACK CFI d2fdc .cfa: sp 0 +
STACK CFI d2fe0 .cfa: x29 96 +
STACK CFI INIT d37c0 5e64 .cfa: sp 0 +
STACK CFI d37c4 .cfa: sp 160 +
STACK CFI d37ec .cfa: x29 96 + x19: .cfa -8 + ^ x20: .cfa -16 + ^ x21: .cfa -24 + ^ x22: .cfa -32 + ^ x23: .cfa -40 + ^ x24: .cfa -48 + ^ x25: .cfa -56 + ^ x26: .cfa -64 + ^ x27: .cfa -72 + ^ x28: .cfa -80 + ^ .ra: .cfa -88 + ^ x29: .cfa -96 + ^ v8: .cfa -104 + ^ v9: .cfa -112 + ^ v10: .cfa -120 + ^ v11: .cfa -128 + ^ v12: .cfa -136 + ^ v13: .cfa -144 + ^ v14: .cfa -152 + ^ v15: .cfa -160 + ^
STACK CFI d3880 .cfa: sp 160 +
STACK CFI d38a8 .cfa: sp 0 +
STACK CFI d38ac .cfa: x29 96 +
STACK CFI d9534 .cfa: sp 160 +
STACK CFI d955c .cfa: sp 0 +
STACK CFI d9560 .cfa: x29 96 +
STACK CFI INIT d9ff4 8ac .cfa: sp 0 +
STACK CFI d9ff8 .cfa: sp 432 +
STACK CFI da020 .cfa: x29 96 + x19: .cfa -8 + ^ x20: .cfa -16 + ^ x21: .cfa -24 + ^ x22: .cfa -32 + ^ x23: .cfa -40 + ^ x24: .cfa -48 + ^ x25: .cfa -56 + ^ x26: .cfa -64 + ^ x27: .cfa -72 + ^ x28: .cfa -80 + ^ .ra: .cfa -88 + ^ x29: .cfa -96 + ^ v8: .cfa -104 + ^ v9: .cfa -112 + ^ v10: .cfa -120 + ^ v11: .cfa -128 + ^ v12: .cfa -136 + ^ v13: .cfa -144 + ^
STACK CFI da0b0 .cfa: sp 432 +
STACK CFI da0d8 .cfa: sp 0 +
STACK CFI da0dc .cfa: x29 96 +
STACK CFI da870 .cfa: sp 432 +
STACK CFI da898 .cfa: sp 0 +
STACK CFI da89c .cfa: x29 96 +
STACK CFI INIT da8a0 24 .cfa: sp 0 +
STACK CFI INIT da8c4 130 .cfa: sp 0 +
STACK CFI da8c8 .cfa: sp 64 +
STACK CFI da8dc .cfa: x29 56 + x19: .cfa -8 + ^ x20: .cfa -16 + ^ x21: .cfa -24 + ^ x22: .cfa -32 + ^ x23: .cfa -40 + ^ .ra: .cfa -48 + ^ x29: .cfa -56 + ^ v8: .cfa -64 + ^
STACK CFI da9c4 .cfa: sp 64 +
STACK CFI da9d8 .cfa: sp 0 +
STACK CFI da9dc .cfa: sp 64 +
STACK CFI da9f0 .cfa: sp 0 +
STACK CFI INIT da9f4 1c .cfa: sp 0 +
STACK CFI INIT daa10 1d4 .cfa: sp 0 +
STACK CFI INIT dabe4 134 .cfa: sp 0 +
STACK CFI dabe8 .cfa: sp 80 +
STACK CFI dabfc .cfa: x29 80 + x19: .cfa -8 + ^ x20: .cfa -16 + ^ x21: .cfa -24 + ^ x22: .cfa -32 + ^ x23: .cfa -40 + ^ x24: .cfa -48 + ^ x25: .cfa -64 + ^ .ra: .cfa -72 + ^ x29: .cfa -80 + ^
STACK CFI dace8 .cfa: sp 80 +
STACK CFI dacfc .cfa: sp 0 +
STACK CFI dad00 .cfa: sp 80 +
STACK CFI dad14 .cfa: sp 0 +
STACK CFI INIT dad18 18 .cfa: sp 0 +
STACK CFI INIT dad30 134 .cfa: sp 0 +
STACK CFI dad34 .cfa: sp 112 +
STACK CFI dad4c .cfa: x29 80 + x19: .cfa -8 + ^ x20: .cfa -16 + ^ x21: .cfa -24 + ^ x22: .cfa -32 + ^ x23: .cfa -40 + ^ x24: .cfa -48 + ^ x25: .cfa -56 + ^ x26: .cfa -64 + ^ .ra: .cfa -72 + ^ x29: .cfa -80 + ^
STACK CFI dae44 .cfa: sp 112 +
STACK CFI dae5c .cfa: sp 0 +
STACK CFI dae60 .cfa: x29 80 +
STACK CFI INIT db7d4 94 .cfa: sp 0 +
STACK CFI db7d8 .cfa: sp 64 +
STACK CFI db7e0 .cfa: x29 16 + .ra: .cfa -8 + ^ x29: .cfa -16 + ^
STACK CFI db85c .cfa: sp 64 +
STACK CFI db864 .cfa: sp 0 +
STACK CFI INIT db938 18 .cfa: sp 0 +
STACK CFI INIT db950 360 .cfa: sp 0 +
STACK CFI db954 .cfa: sp 144 +
STACK CFI db96c .cfa: x29 56 + x19: .cfa -8 + ^ x20: .cfa -16 + ^ x21: .cfa -24 + ^ x22: .cfa -32 + ^ x23: .cfa -40 + ^ .ra: .cfa -48 + ^ x29: .cfa -56 + ^ v8: .cfa -64 + ^
STACK CFI dbc64 .cfa: sp 144 +
STACK CFI dbc7c .cfa: sp 0 +
STACK CFI dbc80 .cfa: x29 56 +
STACK CFI dbc90 .cfa: sp 144 +
STACK CFI dbca8 .cfa: sp 0 +
STACK CFI dbcac .cfa: x29 56 +
STACK CFI INIT dbcb0 620 .cfa: sp 0 +
STACK CFI dbcb4 .cfa: sp 416 +
STACK CFI dbcd4 .cfa: x29 96 + x19: .cfa -8 + ^ x20: .cfa -16 + ^ x21: .cfa -24 + ^ x22: .cfa -32 + ^ x23: .cfa -40 + ^ x24: .cfa -48 + ^ x25: .cfa -56 + ^ x26: .cfa -64 + ^ x27: .cfa -72 + ^ x28: .cfa -80 + ^ .ra: .cfa -88 + ^ x29: .cfa -96 + ^ v8: .cfa -104 + ^ v9: .cfa -112 + ^
STACK CFI dc1f8 .cfa: sp 416 +
STACK CFI dc218 .cfa: sp 0 +
STACK CFI dc21c .cfa: x29 96 +
STACK CFI INIT dc2d0 5b4 .cfa: sp 0 +
STACK CFI dc2d4 .cfa: sp 128 +
STACK CFI dc2f0 .cfa: x29 96 + x19: .cfa -8 + ^ x20: .cfa -16 + ^ x21: .cfa -24 + ^ x22: .cfa -32 + ^ x23: .cfa -40 + ^ x24: .cfa -48 + ^ x25: .cfa -56 + ^ x26: .cfa -64 + ^ x27: .cfa -72 + ^ x28: .cfa -80 + ^ .ra: .cfa -88 + ^ x29: .cfa -96 + ^
STACK CFI dc830 .cfa: sp 128 +
STACK CFI dc84c .cfa: sp 0 +
STACK CFI dc850 .cfa: x29 96 +
STACK CFI dc860 .cfa: sp 128 +
STACK CFI dc87c .cfa: sp 0 +
STACK CFI dc880 .cfa: x29 96 +
STACK CFI INIT dc884 14c .cfa: sp 0 +
STACK CFI dc888 .cfa: sp 64 +
STACK CFI dc898 .cfa: x29 64 + x19: .cfa -8 + ^ x20: .cfa -16 + ^ x21: .cfa -24 + ^ x22: .cfa -32 + ^ x23: .cfa -48 + ^ .ra: .cfa -56 + ^ x29: .cfa -64 + ^
STACK CFI dc9bc .cfa: sp 64 +
STACK CFI dc9cc .cfa: sp 0 +
STACK CFI INIT dc9d0 214 .cfa: sp 0 +
STACK CFI dc9d4 .cfa: sp 112 +
STACK CFI dc9ec .cfa: x29 64 + x19: .cfa -8 + ^ x20: .cfa -16 + ^ x21: .cfa -24 + ^ x22: .cfa -32 + ^ x23: .cfa -40 + ^ x24: .cfa -48 + ^ .ra: .cfa -56 + ^ x29: .cfa -64 + ^ v8: .cfa -80 + ^
STACK CFI dcbc4 .cfa: sp 112 +
STACK CFI dcbdc .cfa: sp 0 +
STACK CFI dcbe0 .cfa: x29 64 +
STACK CFI INIT dcbe4 674 .cfa: sp 0 +
STACK CFI dcbe8 .cfa: sp 224 +
STACK CFI dcc14 .cfa: x29 96 + x19: .cfa -8 + ^ x20: .cfa -16 + ^ x21: .cfa -24 + ^ x22: .cfa -32 + ^ x23: .cfa -40 + ^ x24: .cfa -48 + ^ x25: .cfa -56 + ^ x26: .cfa -64 + ^ x27: .cfa -80 + ^ .ra: .cfa -88 + ^ x29: .cfa -96 + ^ v8: .cfa -104 + ^ v9: .cfa -112 + ^ v10: .cfa -120 + ^ v11: .cfa -128 + ^ v12: .cfa -136 + ^ v13: .cfa -144 + ^ v14: .cfa -152 + ^ v15: .cfa -160 + ^
STACK CFI dd1d4 .cfa: sp 224 +
STACK CFI dd200 .cfa: sp 0 +
STACK CFI dd204 .cfa: x29 96 +
STACK CFI INIT dd258 104 .cfa: sp 0 +
STACK CFI dd25c .cfa: sp 32 +
STACK CFI dd264 .cfa: x29 32 + x19: .cfa -8 + ^ x20: .cfa -16 + ^ .ra: .cfa -24 + ^ x29: .cfa -32 + ^
STACK CFI dd344 .cfa: sp 32 +
STACK CFI dd34c .cfa: sp 0 +
STACK CFI dd350 .cfa: sp 32 +
STACK CFI dd358 .cfa: sp 0 +
STACK CFI INIT dd35c e4 .cfa: sp 0 +
STACK CFI dd360 .cfa: sp 64 +
STACK CFI dd370 .cfa: x29 64 + x19: .cfa -8 + ^ x20: .cfa -16 + ^ x21: .cfa -24 + ^ x22: .cfa -32 + ^ x23: .cfa -40 + ^ x24: .cfa -48 + ^ .ra: .cfa -56 + ^ x29: .cfa -64 + ^
STACK CFI dd418 .cfa: sp 64 +
STACK CFI dd428 .cfa: sp 0 +
STACK CFI dd42c .cfa: sp 64 +
STACK CFI dd43c .cfa: sp 0 +
STACK CFI INIT dd440 82c .cfa: sp 0 +
STACK CFI dd444 .cfa: sp 176 +
STACK CFI dd464 .cfa: x29 96 + x19: .cfa -8 + ^ x20: .cfa -16 + ^ x21: .cfa -24 + ^ x22: .cfa -32 + ^ x23: .cfa -40 + ^ x24: .cfa -48 + ^ x25: .cfa -56 + ^ x26: .cfa -64 + ^ x27: .cfa -80 + ^ .ra: .cfa -88 + ^ x29: .cfa -96 + ^ v8: .cfa -104 + ^ v9: .cfa -112 + ^
STACK CFI dd74c .cfa: sp 176 +
STACK CFI dd76c .cfa: sp 0 +
STACK CFI dd770 .cfa: x29 96 +
STACK CFI ddb40 .cfa: sp 176 +
STACK CFI ddb60 .cfa: sp 0 +
STACK CFI ddb64 .cfa: x29 96 +
STACK CFI ddc44 .cfa: sp 176 +
STACK CFI ddc64 .cfa: sp 0 +
STACK CFI ddc68 .cfa: x29 96 +
STACK CFI INIT ddc6c 604 .cfa: sp 0 +
STACK CFI ddc70 .cfa: sp 112 +
STACK CFI ddc8c .cfa: x29 80 + x19: .cfa -8 + ^ x20: .cfa -16 + ^ x21: .cfa -24 + ^ x22: .cfa -32 + ^ x23: .cfa -40 + ^ x24: .cfa -48 + ^ x25: .cfa -56 + ^ x26: .cfa -64 + ^ .ra: .cfa -72 + ^ x29: .cfa -80 + ^ v8: .cfa -96 + ^
STACK CFI de24c .cfa: sp 112 +
STACK CFI de268 .cfa: sp 0 +
STACK CFI de26c .cfa: x29 80 +
STACK CFI INIT de270 388 .cfa: sp 0 +
STACK CFI de274 .cfa: sp 192 +
STACK CFI de29c .cfa: x29 96 + x19: .cfa -8 + ^ x20: .cfa -16 + ^ x21: .cfa -24 + ^ x22: .cfa -32 + ^ x23: .cfa -40 + ^ x24: .cfa -48 + ^ x25: .cfa -56 + ^ x26: .cfa -64 + ^ x27: .cfa -72 + ^ x28: .cfa -80 + ^ .ra: .cfa -88 + ^ x29: .cfa -96 + ^ v8: .cfa -104 + ^ v9: .cfa -112 + ^ v10: .cfa -120 + ^ v11: .cfa -128 + ^ v12: .cfa -136 + ^ v13: .cfa -144 + ^
STACK CFI de50c .cfa: sp 192 +
STACK CFI de534 .cfa: sp 0 +
STACK CFI de538 .cfa: x29 96 +
STACK CFI INIT de5f8 dc .cfa: sp 0 +
STACK CFI de5fc .cfa: sp 32 +
STACK CFI de604 .cfa: x29 32 + x19: .cfa -16 + ^ .ra: .cfa -24 + ^ x29: .cfa -32 + ^
STACK CFI de6c8 .cfa: sp 32 +
STACK CFI de6d0 .cfa: sp 0 +
STACK CFI INIT de6d4 8c .cfa: sp 0 +
STACK CFI de6d8 .cfa: sp 48 +
STACK CFI de6e4 .cfa: x29 48 + x19: .cfa -8 + ^ x20: .cfa -16 + ^ x21: .cfa -32 + ^ .ra: .cfa -40 + ^ x29: .cfa -48 + ^
STACK CFI de740 .cfa: sp 48 +
STACK CFI de74c .cfa: sp 0 +
STACK CFI de750 .cfa: sp 48 +
STACK CFI de75c .cfa: sp 0 +
STACK CFI INIT de760 12c .cfa: sp 0 +
STACK CFI de764 .cfa: sp 128 +
STACK CFI de77c .cfa: x29 80 + x19: .cfa -8 + ^ x20: .cfa -16 + ^ x21: .cfa -24 + ^ x22: .cfa -32 + ^ x23: .cfa -40 + ^ x24: .cfa -48 + ^ x25: .cfa -64 + ^ .ra: .cfa -72 + ^ x29: .cfa -80 + ^
STACK CFI de86c .cfa: sp 128 +
STACK CFI de884 .cfa: sp 0 +
STACK CFI de888 .cfa: x29 80 +
STACK CFI INIT de88c 1f8 .cfa: sp 0 +
STACK CFI de890 .cfa: sp 96 +
STACK CFI de8ac .cfa: x29 56 + x19: .cfa -8 + ^ x20: .cfa -16 + ^ x21: .cfa -24 + ^ x22: .cfa -32 + ^ x23: .cfa -40 + ^ .ra: .cfa -48 + ^ x29: .cfa -56 + ^ v8: .cfa -64 + ^ v9: .cfa -72 + ^ v10: .cfa -80 + ^
STACK CFI dea60 .cfa: sp 96 +
STACK CFI dea7c .cfa: sp 0 +
STACK CFI dea80 .cfa: x29 56 +
STACK CFI INIT dea84 2a4 .cfa: sp 0 +
STACK CFI dea88 .cfa: sp 144 +
STACK CFI deaac .cfa: x29 96 + x19: .cfa -8 + ^ x20: .cfa -16 + ^ x21: .cfa -24 + ^ x22: .cfa -32 + ^ x23: .cfa -40 + ^ x24: .cfa -48 + ^ x25: .cfa -56 + ^ x26: .cfa -64 + ^ x27: .cfa -72 + ^ x28: .cfa -80 + ^ .ra: .cfa -88 + ^ x29: .cfa -96 + ^ v8: .cfa -104 + ^ v9: .cfa -112 + ^ v10: .cfa -120 + ^ v11: .cfa -128 + ^
STACK CFI deaf0 .cfa: sp 144 +
STACK CFI deb14 .cfa: sp 0 +
STACK CFI deb18 .cfa: x29 96 +
STACK CFI INIT ded28 cc .cfa: sp 0 +
STACK CFI ded2c .cfa: sp 112 +
STACK CFI ded44 .cfa: x29 48 + x19: .cfa -8 + ^ x20: .cfa -16 + ^ x21: .cfa -32 + ^ .ra: .cfa -40 + ^ x29: .cfa -48 + ^ v8: .cfa -56 + ^ v9: .cfa -64 + ^ v10: .cfa -72 + ^ v11: .cfa -80 + ^
STACK CFI dedd4 .cfa: sp 112 +
STACK CFI dedec .cfa: sp 0 +
STACK CFI dedf0 .cfa: x29 48 +
STACK CFI INIT dedf4 11c .cfa: sp 0 +
STACK CFI dedf8 .cfa: sp 112 +
STACK CFI dee14 .cfa: x29 40 + x19: .cfa -8 + ^ x20: .cfa -16 + ^ x21: .cfa -24 + ^ .ra: .cfa -32 + ^ x29: .cfa -40 + ^ v8: .cfa -48 + ^ v9: .cfa -56 + ^ v10: .cfa -64 + ^ v11: .cfa -72 + ^ v12: .cfa -80 + ^
STACK CFI deeec .cfa: sp 112 +
STACK CFI def08 .cfa: sp 0 +
STACK CFI def0c .cfa: x29 40 +
STACK CFI INIT def10 64 .cfa: sp 0 +
STACK CFI def14 .cfa: sp 32 +
STACK CFI def1c .cfa: x29 32 + x19: .cfa -8 + ^ x20: .cfa -16 + ^ .ra: .cfa -24 + ^ x29: .cfa -32 + ^
STACK CFI def68 .cfa: sp 32 +
STACK CFI def70 .cfa: sp 0 +
STACK CFI INIT def74 24 .cfa: sp 0 +
STACK CFI INIT def98 118 .cfa: sp 0 +
STACK CFI INIT df0b0 1d0 .cfa: sp 0 +
STACK CFI df0c0 .cfa: sp 64 +
STACK CFI df0d0 .cfa: x29 64 + x19: .cfa -8 + ^ x20: .cfa -16 + ^ x21: .cfa -24 + ^ x22: .cfa -32 + ^ x23: .cfa -48 + ^ .ra: .cfa -56 + ^ x29: .cfa -64 + ^
STACK CFI df26c .cfa: sp 64 +
STACK CFI df27c .cfa: sp 0 +
STACK CFI INIT df280 4 .cfa: sp 0 +
STACK CFI INIT df284 4 .cfa: sp 0 +
STACK CFI INIT e17d0 44 .cfa: sp 0 +
STACK CFI INIT e1814 1c8 .cfa: sp 0 +
STACK CFI e1824 .cfa: sp 64 +
STACK CFI e1834 .cfa: x29 64 + x19: .cfa -8 + ^ x20: .cfa -16 + ^ x21: .cfa -24 + ^ x22: .cfa -32 + ^ x23: .cfa -48 + ^ .ra: .cfa -56 + ^ x29: .cfa -64 + ^
STACK CFI e19c8 .cfa: sp 64 +
STACK CFI e19d8 .cfa: sp 0 +
STACK CFI INIT e19dc 364 .cfa: sp 0 +
STACK CFI e19e0 .cfa: sp 208 +
STACK CFI e19f4 .cfa: x29 64 + x19: .cfa -8 + ^ x20: .cfa -16 + ^ x21: .cfa -24 + ^ x22: .cfa -32 + ^ x23: .cfa -48 + ^ .ra: .cfa -56 + ^ x29: .cfa -64 + ^
STACK CFI e1d24 .cfa: sp 208 +
STACK CFI e1d38 .cfa: sp 0 +
STACK CFI e1d3c .cfa: x29 64 +
STACK CFI INIT e1d40 1d0 .cfa: sp 0 +
STACK CFI e1d50 .cfa: sp 64 +
STACK CFI e1d60 .cfa: x29 64 + x19: .cfa -8 + ^ x20: .cfa -16 + ^ x21: .cfa -24 + ^ x22: .cfa -32 + ^ x23: .cfa -48 + ^ .ra: .cfa -56 + ^ x29: .cfa -64 + ^
STACK CFI e1efc .cfa: sp 64 +
STACK CFI e1f0c .cfa: sp 0 +
STACK CFI INIT e1f10 b4 .cfa: sp 0 +
STACK CFI e1f14 .cfa: sp 48 +
STACK CFI e1f20 .cfa: x29 48 + x19: .cfa -8 + ^ x20: .cfa -16 + ^ x21: .cfa -32 + ^ .ra: .cfa -40 + ^ x29: .cfa -48 + ^
STACK CFI e1fb4 .cfa: sp 48 +
STACK CFI e1fc0 .cfa: sp 0 +
STACK CFI INIT e1fc4 5fc .cfa: sp 0 +
STACK CFI e1fc8 .cfa: sp 160 +
STACK CFI e1fec .cfa: x29 64 + x19: .cfa -8 + ^ x20: .cfa -16 + ^ x21: .cfa -24 + ^ x22: .cfa -32 + ^ x23: .cfa -40 + ^ x24: .cfa -48 + ^ .ra: .cfa -56 + ^ x29: .cfa -64 + ^ v8: .cfa -72 + ^ v9: .cfa -80 + ^ v10: .cfa -88 + ^ v11: .cfa -96 + ^ v12: .cfa -104 + ^ v13: .cfa -112 + ^ v14: .cfa -120 + ^ v15: .cfa -128 + ^
STACK CFI e2594 .cfa: sp 160 +
STACK CFI e25b8 .cfa: sp 0 +
STACK CFI e25bc .cfa: x29 64 +
STACK CFI INIT e25c0 1c8 .cfa: sp 0 +
STACK CFI e25d0 .cfa: sp 64 +
STACK CFI e25e0 .cfa: x29 64 + x19: .cfa -8 + ^ x20: .cfa -16 + ^ x21: .cfa -24 + ^ x22: .cfa -32 + ^ x23: .cfa -48 + ^ .ra: .cfa -56 + ^ x29: .cfa -64 + ^
STACK CFI e2774 .cfa: sp 64 +
STACK CFI e2784 .cfa: sp 0 +
STACK CFI INIT e2788 1c8 .cfa: sp 0 +
STACK CFI e2798 .cfa: sp 64 +
STACK CFI e27a8 .cfa: x29 64 + x19: .cfa -8 + ^ x20: .cfa -16 + ^ x21: .cfa -24 + ^ x22: .cfa -32 + ^ x23: .cfa -48 + ^ .ra: .cfa -56 + ^ x29: .cfa -64 + ^
STACK CFI e293c .cfa: sp 64 +
STACK CFI e294c .cfa: sp 0 +
STACK CFI INIT e2950 dc .cfa: sp 0 +
STACK CFI e2954 .cfa: sp 48 +
STACK CFI e2960 .cfa: x29 48 + x19: .cfa -8 + ^ x20: .cfa -16 + ^ x21: .cfa -32 + ^ .ra: .cfa -40 + ^ x29: .cfa -48 + ^
STACK CFI e29a4 .cfa: sp 48 +
STACK CFI e29b0 .cfa: sp 0 +
STACK CFI e29b4 .cfa: x29 48 +
STACK CFI e2a1c .cfa: sp 48 +
STACK CFI e2a28 .cfa: sp 0 +
STACK CFI INIT e2a2c 35c .cfa: sp 0 +
STACK CFI INIT e2d88 1a8 .cfa: sp 0 +
STACK CFI e2d8c .cfa: sp 64 +
STACK CFI e2d9c .cfa: x29 64 + x19: .cfa -8 + ^ x20: .cfa -16 + ^ x21: .cfa -24 + ^ x22: .cfa -32 + ^ x23: .cfa -40 + ^ x24: .cfa -48 + ^ .ra: .cfa -56 + ^ x29: .cfa -64 + ^
STACK CFI e2f00 .cfa: sp 64 +
STACK CFI e2f10 .cfa: sp 0 +
STACK CFI e2f14 .cfa: x29 64 +
STACK CFI e2f1c .cfa: sp 64 +
STACK CFI e2f2c .cfa: sp 0 +
STACK CFI INIT e2f30 120 .cfa: sp 0 +
STACK CFI INIT e3360 1c8 .cfa: sp 0 +
STACK CFI e3370 .cfa: sp 64 +
STACK CFI e3380 .cfa: x29 64 + x19: .cfa -8 + ^ x20: .cfa -16 + ^ x21: .cfa -24 + ^ x22: .cfa -32 + ^ x23: .cfa -48 + ^ .ra: .cfa -56 + ^ x29: .cfa -64 + ^
STACK CFI e3514 .cfa: sp 64 +
STACK CFI e3524 .cfa: sp 0 +
STACK CFI INIT e3528 3fc .cfa: sp 0 +
STACK CFI e352c .cfa: sp 64 +
STACK CFI e353c .cfa: x29 64 + x19: .cfa -8 + ^ x20: .cfa -16 + ^ x21: .cfa -24 + ^ x22: .cfa -32 + ^ x23: .cfa -48 + ^ .ra: .cfa -56 + ^ x29: .cfa -64 + ^
STACK CFI e38cc .cfa: sp 64 +
STACK CFI e38dc .cfa: sp 0 +
STACK CFI e38e0 .cfa: x29 64 +
STACK CFI e3910 .cfa: sp 64 +
STACK CFI e3920 .cfa: sp 0 +
STACK CFI INIT e3924 78 .cfa: sp 0 +
STACK CFI e3928 .cfa: sp 32 +
STACK CFI e3930 .cfa: x29 32 + x19: .cfa -16 + ^ .ra: .cfa -24 + ^ x29: .cfa -32 + ^
STACK CFI e3990 .cfa: sp 32 +
STACK CFI e3998 .cfa: sp 0 +
STACK CFI INIT e399c 368 .cfa: sp 0 +
STACK CFI e39a0 .cfa: sp 96 +
STACK CFI e39b0 .cfa: x29 48 + x19: .cfa -8 + ^ x20: .cfa -16 + ^ x21: .cfa -32 + ^ .ra: .cfa -40 + ^ x29: .cfa -48 + ^
STACK CFI e3c98 .cfa: sp 96 +
STACK CFI e3ca8 .cfa: sp 0 +
STACK CFI e3cac .cfa: x29 48 +
STACK CFI INIT e3d04 128 .cfa: sp 0 +
STACK CFI e3d08 .cfa: sp 32 +
STACK CFI e3d10 .cfa: x29 32 + x19: .cfa -8 + ^ x20: .cfa -16 + ^ .ra: .cfa -24 + ^ x29: .cfa -32 + ^
STACK CFI e3e20 .cfa: sp 32 +
STACK CFI e3e28 .cfa: sp 0 +
STACK CFI INIT e47b4 2d4 .cfa: sp 0 +
STACK CFI e47b8 .cfa: sp 48 +
STACK CFI e47c4 .cfa: x29 48 + x19: .cfa -8 + ^ x20: .cfa -16 + ^ x21: .cfa -24 + ^ x22: .cfa -32 + ^ .ra: .cfa -40 + ^ x29: .cfa -48 + ^
STACK CFI e4a48 .cfa: sp 48 +
STACK CFI e4a54 .cfa: sp 0 +
STACK CFI e4a58 .cfa: x29 48 +
STACK CFI e4a78 .cfa: sp 48 +
STACK CFI e4a84 .cfa: sp 0 +
STACK CFI INIT e4a88 84 .cfa: sp 0 +
STACK CFI e4a8c .cfa: sp 32 +
STACK CFI e4a94 .cfa: x29 32 + x19: .cfa -8 + ^ x20: .cfa -16 + ^ .ra: .cfa -24 + ^ x29: .cfa -32 + ^
STACK CFI e4b00 .cfa: sp 32 +
STACK CFI e4b08 .cfa: sp 0 +
STACK CFI INIT e4b0c 160 .cfa: sp 0 +
STACK CFI e4b10 .cfa: sp 64 +
STACK CFI e4b20 .cfa: x29 64 + x19: .cfa -8 + ^ x20: .cfa -16 + ^ x21: .cfa -24 + ^ x22: .cfa -32 + ^ x23: .cfa -48 + ^ .ra: .cfa -56 + ^ x29: .cfa -64 + ^
STACK CFI e4be8 .cfa: sp 64 +
STACK CFI e4bf8 .cfa: sp 0 +
STACK CFI e4bfc .cfa: x29 64 +
STACK CFI INIT e4c6c 40 .cfa: sp 0 +
STACK CFI INIT e4fc4 1c8 .cfa: sp 0 +
STACK CFI e4fd4 .cfa: sp 64 +
STACK CFI e4fe4 .cfa: x29 64 + x19: .cfa -8 + ^ x20: .cfa -16 + ^ x21: .cfa -24 + ^ x22: .cfa -32 + ^ x23: .cfa -48 + ^ .ra: .cfa -56 + ^ x29: .cfa -64 + ^
STACK CFI e5178 .cfa: sp 64 +
STACK CFI e5188 .cfa: sp 0 +
STACK CFI INIT e518c 1c8 .cfa: sp 0 +
STACK CFI e519c .cfa: sp 64 +
STACK CFI e51ac .cfa: x29 64 + x19: .cfa -8 + ^ x20: .cfa -16 + ^ x21: .cfa -24 + ^ x22: .cfa -32 + ^ x23: .cfa -48 + ^ .ra: .cfa -56 + ^ x29: .cfa -64 + ^
STACK CFI e5340 .cfa: sp 64 +
STACK CFI e5350 .cfa: sp 0 +
STACK CFI INIT e5354 1d0 .cfa: sp 0 +
STACK CFI e5364 .cfa: sp 64 +
STACK CFI e5374 .cfa: x29 64 + x19: .cfa -8 + ^ x20: .cfa -16 + ^ x21: .cfa -24 + ^ x22: .cfa -32 + ^ x23: .cfa -48 + ^ .ra: .cfa -56 + ^ x29: .cfa -64 + ^
STACK CFI e5510 .cfa: sp 64 +
STACK CFI e5520 .cfa: sp 0 +
STACK CFI INIT e5524 1b4 .cfa: sp 0 +
STACK CFI e5528 .cfa: sp 160 +
STACK CFI e5548 .cfa: x29 96 + x19: .cfa -8 + ^ x20: .cfa -16 + ^ x21: .cfa -24 + ^ x22: .cfa -32 + ^ x23: .cfa -40 + ^ x24: .cfa -48 + ^ x25: .cfa -56 + ^ x26: .cfa -64 + ^ x27: .cfa -72 + ^ x28: .cfa -80 + ^ .ra: .cfa -88 + ^ x29: .cfa -96 + ^ v8: .cfa -104 + ^ v9: .cfa -112 + ^
STACK CFI e56b4 .cfa: sp 160 +
STACK CFI e56d4 .cfa: sp 0 +
STACK CFI INIT e56d8 1c8 .cfa: sp 0 +
STACK CFI e56e8 .cfa: sp 64 +
STACK CFI e56f8 .cfa: x29 64 + x19: .cfa -8 + ^ x20: .cfa -16 + ^ x21: .cfa -24 + ^ x22: .cfa -32 + ^ x23: .cfa -48 + ^ .ra: .cfa -56 + ^ x29: .cfa -64 + ^
STACK CFI e588c .cfa: sp 64 +
STACK CFI e589c .cfa: sp 0 +
STACK CFI INIT e58a0 1c8 .cfa: sp 0 +
STACK CFI e58b0 .cfa: sp 64 +
STACK CFI e58c0 .cfa: x29 64 + x19: .cfa -8 + ^ x20: .cfa -16 + ^ x21: .cfa -24 + ^ x22: .cfa -32 + ^ x23: .cfa -48 + ^ .ra: .cfa -56 + ^ x29: .cfa -64 + ^
STACK CFI e5a54 .cfa: sp 64 +
STACK CFI e5a64 .cfa: sp 0 +
STACK CFI INIT e5a68 1d0 .cfa: sp 0 +
STACK CFI e5a78 .cfa: sp 64 +
STACK CFI e5a88 .cfa: x29 64 + x19: .cfa -8 + ^ x20: .cfa -16 + ^ x21: .cfa -24 + ^ x22: .cfa -32 + ^ x23: .cfa -48 + ^ .ra: .cfa -56 + ^ x29: .cfa -64 + ^
STACK CFI e5c24 .cfa: sp 64 +
STACK CFI e5c34 .cfa: sp 0 +
STACK CFI INIT e5c38 1c8 .cfa: sp 0 +
STACK CFI e5c48 .cfa: sp 64 +
STACK CFI e5c58 .cfa: x29 64 + x19: .cfa -8 + ^ x20: .cfa -16 + ^ x21: .cfa -24 + ^ x22: .cfa -32 + ^ x23: .cfa -48 + ^ .ra: .cfa -56 + ^ x29: .cfa -64 + ^
STACK CFI e5dec .cfa: sp 64 +
STACK CFI e5dfc .cfa: sp 0 +
STACK CFI INIT e5e00 1c8 .cfa: sp 0 +
STACK CFI e5e10 .cfa: sp 64 +
STACK CFI e5e20 .cfa: x29 64 + x19: .cfa -8 + ^ x20: .cfa -16 + ^ x21: .cfa -24 + ^ x22: .cfa -32 + ^ x23: .cfa -48 + ^ .ra: .cfa -56 + ^ x29: .cfa -64 + ^
STACK CFI e5fb4 .cfa: sp 64 +
STACK CFI e5fc4 .cfa: sp 0 +
STACK CFI INIT e5fc8 1d0 .cfa: sp 0 +
STACK CFI e5fd8 .cfa: sp 64 +
STACK CFI e5fe8 .cfa: x29 64 + x19: .cfa -8 + ^ x20: .cfa -16 + ^ x21: .cfa -24 + ^ x22: .cfa -32 + ^ x23: .cfa -48 + ^ .ra: .cfa -56 + ^ x29: .cfa -64 + ^
STACK CFI e6184 .cfa: sp 64 +
STACK CFI e6194 .cfa: sp 0 +
STACK CFI INIT e6198 1d0 .cfa: sp 0 +
STACK CFI e61a8 .cfa: sp 64 +
STACK CFI e61b8 .cfa: x29 64 + x19: .cfa -8 + ^ x20: .cfa -16 + ^ x21: .cfa -24 + ^ x22: .cfa -32 + ^ x23: .cfa -48 + ^ .ra: .cfa -56 + ^ x29: .cfa -64 + ^
STACK CFI e6354 .cfa: sp 64 +
STACK CFI e6364 .cfa: sp 0 +
STACK CFI INIT e6368 1c8 .cfa: sp 0 +
STACK CFI e6378 .cfa: sp 64 +
STACK CFI e6388 .cfa: x29 64 + x19: .cfa -8 + ^ x20: .cfa -16 + ^ x21: .cfa -24 + ^ x22: .cfa -32 + ^ x23: .cfa -48 + ^ .ra: .cfa -56 + ^ x29: .cfa -64 + ^
STACK CFI e651c .cfa: sp 64 +
STACK CFI e652c .cfa: sp 0 +
STACK CFI INIT e6cf8 1d0 .cfa: sp 0 +
STACK CFI e6d08 .cfa: sp 64 +
STACK CFI e6d18 .cfa: x29 64 + x19: .cfa -8 + ^ x20: .cfa -16 + ^ x21: .cfa -24 + ^ x22: .cfa -32 + ^ x23: .cfa -48 + ^ .ra: .cfa -56 + ^ x29: .cfa -64 + ^
STACK CFI e6eb4 .cfa: sp 64 +
STACK CFI e6ec4 .cfa: sp 0 +
STACK CFI INIT e6ec8 1d0 .cfa: sp 0 +
STACK CFI e6ed8 .cfa: sp 64 +
STACK CFI e6ee8 .cfa: x29 64 + x19: .cfa -8 + ^ x20: .cfa -16 + ^ x21: .cfa -24 + ^ x22: .cfa -32 + ^ x23: .cfa -48 + ^ .ra: .cfa -56 + ^ x29: .cfa -64 + ^
STACK CFI e7084 .cfa: sp 64 +
STACK CFI e7094 .cfa: sp 0 +
STACK CFI INIT e7098 1d0 .cfa: sp 0 +
STACK CFI e70a8 .cfa: sp 64 +
STACK CFI e70b8 .cfa: x29 64 + x19: .cfa -8 + ^ x20: .cfa -16 + ^ x21: .cfa -24 + ^ x22: .cfa -32 + ^ x23: .cfa -48 + ^ .ra: .cfa -56 + ^ x29: .cfa -64 + ^
STACK CFI e7254 .cfa: sp 64 +
STACK CFI e7264 .cfa: sp 0 +
STACK CFI INIT e7268 1c8 .cfa: sp 0 +
STACK CFI e7278 .cfa: sp 64 +
STACK CFI e7288 .cfa: x29 64 + x19: .cfa -8 + ^ x20: .cfa -16 + ^ x21: .cfa -24 + ^ x22: .cfa -32 + ^ x23: .cfa -48 + ^ .ra: .cfa -56 + ^ x29: .cfa -64 + ^
STACK CFI e741c .cfa: sp 64 +
STACK CFI e742c .cfa: sp 0 +
STACK CFI INIT e7430 1c8 .cfa: sp 0 +
STACK CFI e7440 .cfa: sp 64 +
STACK CFI e7450 .cfa: x29 64 + x19: .cfa -8 + ^ x20: .cfa -16 + ^ x21: .cfa -24 + ^ x22: .cfa -32 + ^ x23: .cfa -48 + ^ .ra: .cfa -56 + ^ x29: .cfa -64 + ^
STACK CFI e75e4 .cfa: sp 64 +
STACK CFI e75f4 .cfa: sp 0 +
STACK CFI INIT e75f8 1cc .cfa: sp 0 +
STACK CFI e7608 .cfa: sp 64 +
STACK CFI e7618 .cfa: x29 64 + x19: .cfa -8 + ^ x20: .cfa -16 + ^ x21: .cfa -24 + ^ x22: .cfa -32 + ^ x23: .cfa -48 + ^ .ra: .cfa -56 + ^ x29: .cfa -64 + ^
STACK CFI e77b0 .cfa: sp 64 +
STACK CFI e77c0 .cfa: sp 0 +
STACK CFI INIT e77c4 1d0 .cfa: sp 0 +
STACK CFI e77d4 .cfa: sp 64 +
STACK CFI e77e4 .cfa: x29 64 + x19: .cfa -8 + ^ x20: .cfa -16 + ^ x21: .cfa -24 + ^ x22: .cfa -32 + ^ x23: .cfa -48 + ^ .ra: .cfa -56 + ^ x29: .cfa -64 + ^
STACK CFI e7980 .cfa: sp 64 +
STACK CFI e7990 .cfa: sp 0 +
STACK CFI INIT e7994 1c8 .cfa: sp 0 +
STACK CFI e79a4 .cfa: sp 64 +
STACK CFI e79b4 .cfa: x29 64 + x19: .cfa -8 + ^ x20: .cfa -16 + ^ x21: .cfa -24 + ^ x22: .cfa -32 + ^ x23: .cfa -48 + ^ .ra: .cfa -56 + ^ x29: .cfa -64 + ^
STACK CFI e7b48 .cfa: sp 64 +
STACK CFI e7b58 .cfa: sp 0 +
STACK CFI INIT e7b5c 1c8 .cfa: sp 0 +
STACK CFI e7b6c .cfa: sp 64 +
STACK CFI e7b7c .cfa: x29 64 + x19: .cfa -8 + ^ x20: .cfa -16 + ^ x21: .cfa -24 + ^ x22: .cfa -32 + ^ x23: .cfa -48 + ^ .ra: .cfa -56 + ^ x29: .cfa -64 + ^
STACK CFI e7d10 .cfa: sp 64 +
STACK CFI e7d20 .cfa: sp 0 +
STACK CFI INIT e7d24 4b0 .cfa: sp 0 +
STACK CFI e7d28 .cfa: sp 208 +
STACK CFI e7d54 .cfa: x29 96 + x19: .cfa -8 + ^ x20: .cfa -16 + ^ x21: .cfa -24 + ^ x22: .cfa -32 + ^ x23: .cfa -40 + ^ x24: .cfa -48 + ^ x25: .cfa -56 + ^ x26: .cfa -64 + ^ x27: .cfa -72 + ^ x28: .cfa -80 + ^ .ra: .cfa -88 + ^ x29: .cfa -96 + ^ v8: .cfa -104 + ^ v9: .cfa -112 + ^ v10: .cfa -120 + ^ v11: .cfa -128 + ^ v12: .cfa -136 + ^ v13: .cfa -144 + ^ v14: .cfa -152 + ^ v15: .cfa -160 + ^
STACK CFI e81a0 .cfa: sp 208 +
STACK CFI e81cc .cfa: sp 0 +
STACK CFI e81d0 .cfa: x29 96 +
STACK CFI INIT e81d4 8 .cfa: sp 0 +
STACK CFI INIT e81dc d0 .cfa: sp 0 +
STACK CFI e81e0 .cfa: sp 320 +
STACK CFI e81ec .cfa: x29 32 + x19: .cfa -8 + ^ x28: .cfa -16 + ^ .ra: .cfa -24 + ^ x29: .cfa -32 + ^
STACK CFI e8298 .cfa: sp 320 +
STACK CFI e82a4 .cfa: sp 0 +
STACK CFI e82a8 .cfa: x29 32 +
STACK CFI INIT e82ac 88 .cfa: sp 0 +
STACK CFI e82b0 .cfa: sp 96 +
STACK CFI e82bc .cfa: x29 32 + x19: .cfa -16 + ^ .ra: .cfa -24 + ^ x29: .cfa -32 + ^
STACK CFI e8320 .cfa: sp 96 +
STACK CFI e832c .cfa: sp 0 +
STACK CFI e8330 .cfa: x29 32 +
STACK CFI INIT e8334 1cc .cfa: sp 0 +
STACK CFI e8338 .cfa: sp 400 +
STACK CFI e8354 .cfa: x29 96 + x19: .cfa -8 + ^ x20: .cfa -16 + ^ x21: .cfa -24 + ^ x22: .cfa -32 + ^ x23: .cfa -40 + ^ x24: .cfa -48 + ^ x25: .cfa -56 + ^ x26: .cfa -64 + ^ x28: .cfa -80 + ^ .ra: .cfa -88 + ^ x29: .cfa -96 + ^
STACK CFI e84dc .cfa: sp 400 +
STACK CFI e84f8 .cfa: sp 0 +
STACK CFI e84fc .cfa: x29 96 +
STACK CFI INIT e8500 190 .cfa: sp 0 +
STACK CFI e8504 .cfa: sp 192 +
STACK CFI e8520 .cfa: x29 96 + x19: .cfa -8 + ^ x20: .cfa -16 + ^ x21: .cfa -24 + ^ x22: .cfa -32 + ^ x23: .cfa -40 + ^ x24: .cfa -48 + ^ x25: .cfa -56 + ^ x26: .cfa -64 + ^ x27: .cfa -80 + ^ .ra: .cfa -88 + ^ x29: .cfa -96 + ^
STACK CFI e866c .cfa: sp 192 +
STACK CFI e8688 .cfa: sp 0 +
STACK CFI e868c .cfa: x29 96 +
STACK CFI INIT e8690 1c8 .cfa: sp 0 +
STACK CFI e8694 .cfa: sp 400 +
STACK CFI e86ac .cfa: x29 80 + x19: .cfa -8 + ^ x20: .cfa -16 + ^ x21: .cfa -24 + ^ x22: .cfa -32 + ^ x23: .cfa -40 + ^ x24: .cfa -48 + ^ x25: .cfa -56 + ^ x28: .cfa -64 + ^ .ra: .cfa -72 + ^ x29: .cfa -80 + ^
STACK CFI e8838 .cfa: sp 400 +
STACK CFI e8850 .cfa: sp 0 +
STACK CFI e8854 .cfa: x29 80 +
STACK CFI INIT e8858 188 .cfa: sp 0 +
STACK CFI e885c .cfa: sp 176 +
STACK CFI e8874 .cfa: x29 80 + x19: .cfa -8 + ^ x20: .cfa -16 + ^ x21: .cfa -24 + ^ x22: .cfa -32 + ^ x23: .cfa -40 + ^ x24: .cfa -48 + ^ x25: .cfa -56 + ^ x26: .cfa -64 + ^ .ra: .cfa -72 + ^ x29: .cfa -80 + ^
STACK CFI e89c0 .cfa: sp 176 +
STACK CFI e89d8 .cfa: sp 0 +
STACK CFI e89dc .cfa: x29 80 +
STACK CFI INIT e89e0 98 .cfa: sp 0 +
STACK CFI e89e4 .cfa: sp 304 +
STACK CFI e89f0 .cfa: x29 32 + x19: .cfa -8 + ^ x28: .cfa -16 + ^ .ra: .cfa -24 + ^ x29: .cfa -32 + ^
STACK CFI e8a64 .cfa: sp 304 +
STACK CFI e8a70 .cfa: sp 0 +
STACK CFI e8a74 .cfa: x29 32 +
STACK CFI INIT e8a78 19c .cfa: sp 0 +
STACK CFI e8a7c .cfa: sp 176 +
STACK CFI e8a94 .cfa: x29 80 + x19: .cfa -8 + ^ x20: .cfa -16 + ^ x21: .cfa -24 + ^ x22: .cfa -32 + ^ x23: .cfa -40 + ^ x24: .cfa -48 + ^ x25: .cfa -64 + ^ .ra: .cfa -72 + ^ x29: .cfa -80 + ^
STACK CFI e8bf4 .cfa: sp 176 +
STACK CFI e8c0c .cfa: sp 0 +
STACK CFI e8c10 .cfa: x29 80 +
STACK CFI INIT e8c14 94 .cfa: sp 0 +
STACK CFI e8c18 .cfa: sp 288 +
STACK CFI e8c24 .cfa: x29 32 + x19: .cfa -8 + ^ x28: .cfa -16 + ^ .ra: .cfa -24 + ^ x29: .cfa -32 + ^
STACK CFI e8c94 .cfa: sp 288 +
STACK CFI e8ca0 .cfa: sp 0 +
STACK CFI e8ca4 .cfa: x29 32 +
STACK CFI INIT e8ca8 364 .cfa: sp 0 +
STACK CFI e8cac .cfa: sp 224 +
STACK CFI e8cc8 .cfa: x29 64 + x19: .cfa -8 + ^ x20: .cfa -16 + ^ x21: .cfa -24 + ^ x22: .cfa -32 + ^ x23: .cfa -40 + ^ x24: .cfa -48 + ^ .ra: .cfa -56 + ^ x29: .cfa -64 + ^ v8: .cfa -72 + ^ v9: .cfa -80 + ^ v10: .cfa -96 + ^
STACK CFI e8fe0 .cfa: sp 224 +
STACK CFI e8ffc .cfa: sp 0 +
STACK CFI e9000 .cfa: x29 64 +
STACK CFI INIT e900c 98 .cfa: sp 0 +
STACK CFI e9010 .cfa: sp 304 +
STACK CFI e901c .cfa: x29 32 + x19: .cfa -8 + ^ x28: .cfa -16 + ^ .ra: .cfa -24 + ^ x29: .cfa -32 + ^
STACK CFI e9090 .cfa: sp 304 +
STACK CFI e909c .cfa: sp 0 +
STACK CFI e90a0 .cfa: x29 32 +
STACK CFI INIT e90a4 2c8 .cfa: sp 0 +
STACK CFI e90a8 .cfa: sp 192 +
STACK CFI e90c8 .cfa: x29 56 + x19: .cfa -8 + ^ x20: .cfa -16 + ^ x21: .cfa -24 + ^ x22: .cfa -32 + ^ x23: .cfa -40 + ^ .ra: .cfa -48 + ^ x29: .cfa -56 + ^ v8: .cfa -64 + ^ v9: .cfa -72 + ^ v10: .cfa -80 + ^ v11: .cfa -88 + ^ v12: .cfa -96 + ^
STACK CFI e9344 .cfa: sp 192 +
STACK CFI e9364 .cfa: sp 0 +
STACK CFI e9368 .cfa: x29 56 +
STACK CFI INIT e936c a74 .cfa: sp 0 +
STACK CFI e9370 .cfa: sp 144 +
STACK CFI e938c .cfa: x29 96 + x19: .cfa -8 + ^ x20: .cfa -16 + ^ x21: .cfa -24 + ^ x22: .cfa -32 + ^ x23: .cfa -40 + ^ x24: .cfa -48 + ^ x25: .cfa -56 + ^ x26: .cfa -64 + ^ x27: .cfa -72 + ^ x28: .cfa -80 + ^ .ra: .cfa -88 + ^ x29: .cfa -96 + ^
STACK CFI e9db0 .cfa: sp 144 +
STACK CFI e9dcc .cfa: sp 0 +
STACK CFI e9dd0 .cfa: x29 96 +
STACK CFI INIT e9de0 4d4 .cfa: sp 0 +
STACK CFI e9de4 .cfa: sp 160 +
STACK CFI e9e00 .cfa: x29 96 + x19: .cfa -8 + ^ x20: .cfa -16 + ^ x21: .cfa -24 + ^ x22: .cfa -32 + ^ x23: .cfa -40 + ^ x24: .cfa -48 + ^ x25: .cfa -56 + ^ x26: .cfa -64 + ^ x27: .cfa -72 + ^ x28: .cfa -80 + ^ .ra: .cfa -88 + ^ x29: .cfa -96 + ^
STACK CFI ea288 .cfa: sp 160 +
STACK CFI ea2a4 .cfa: sp 0 +
STACK CFI ea2a8 .cfa: x29 96 +
STACK CFI INIT ea2b4 8 .cfa: sp 0 +
STACK CFI INIT ea2bc 74 .cfa: sp 0 +
STACK CFI ea2c0 .cfa: sp 64 +
STACK CFI ea2d0 .cfa: x29 32 + x19: .cfa -8 + ^ x20: .cfa -16 + ^ .ra: .cfa -24 + ^ x29: .cfa -32 + ^ v8: .cfa -48 + ^
STACK CFI ea318 .cfa: sp 64 +
STACK CFI ea328 .cfa: sp 0 +
STACK CFI ea32c .cfa: x29 32 +
STACK CFI INIT ea330 1e8 .cfa: sp 0 +
STACK CFI ea334 .cfa: sp 112 +
STACK CFI ea348 .cfa: x29 64 + x19: .cfa -8 + ^ x20: .cfa -16 + ^ x21: .cfa -24 + ^ x22: .cfa -32 + ^ x23: .cfa -40 + ^ x24: .cfa -48 + ^ .ra: .cfa -56 + ^ x29: .cfa -64 + ^
STACK CFI ea4f4 .cfa: sp 112 +
STACK CFI ea508 .cfa: sp 0 +
STACK CFI ea50c .cfa: x29 64 +
STACK CFI INIT ea518 460 .cfa: sp 0 +
STACK CFI ea51c .cfa: sp 208 +
STACK CFI ea53c .cfa: x29 96 + x19: .cfa -8 + ^ x20: .cfa -16 + ^ x21: .cfa -24 + ^ x22: .cfa -32 + ^ x23: .cfa -40 + ^ x24: .cfa -48 + ^ x25: .cfa -56 + ^ x26: .cfa -64 + ^ x27: .cfa -80 + ^ .ra: .cfa -88 + ^ x29: .cfa -96 + ^ v8: .cfa -104 + ^ v9: .cfa -112 + ^
STACK CFI ea950 .cfa: sp 208 +
STACK CFI ea970 .cfa: sp 0 +
STACK CFI ea974 .cfa: x29 96 +
STACK CFI INIT ea978 28 .cfa: sp 0 +
STACK CFI INIT ea9a0 418 .cfa: sp 0 +
STACK CFI ea9a4 .cfa: sp 240 +
STACK CFI ea9c8 .cfa: x29 96 + x19: .cfa -8 + ^ x20: .cfa -16 + ^ x21: .cfa -24 + ^ x22: .cfa -32 + ^ x23: .cfa -40 + ^ x24: .cfa -48 + ^ x25: .cfa -56 + ^ x26: .cfa -64 + ^ x27: .cfa -72 + ^ x28: .cfa -80 + ^ .ra: .cfa -88 + ^ x29: .cfa -96 + ^ v8: .cfa -104 + ^ v9: .cfa -112 + ^ v10: .cfa -128 + ^
STACK CFI ead8c .cfa: sp 240 +
STACK CFI eadb0 .cfa: sp 0 +
STACK CFI eadb4 .cfa: x29 96 +
STACK CFI INIT eadb8 444 .cfa: sp 0 +
STACK CFI eadbc .cfa: sp 160 +
STACK CFI eadd8 .cfa: x29 96 + x19: .cfa -8 + ^ x20: .cfa -16 + ^ x21: .cfa -24 + ^ x22: .cfa -32 + ^ x23: .cfa -40 + ^ x24: .cfa -48 + ^ x25: .cfa -56 + ^ x26: .cfa -64 + ^ x27: .cfa -72 + ^ x28: .cfa -80 + ^ .ra: .cfa -88 + ^ x29: .cfa -96 + ^
STACK CFI eb1d8 .cfa: sp 160 +
STACK CFI eb1f4 .cfa: sp 0 +
STACK CFI eb1f8 .cfa: x29 96 +
STACK CFI INIT eb1fc cc .cfa: sp 0 +
STACK CFI eb200 .cfa: sp 32 +
STACK CFI eb208 .cfa: x29 32 + x19: .cfa -16 + ^ .ra: .cfa -24 + ^ x29: .cfa -32 + ^
STACK CFI eb2bc .cfa: sp 32 +
STACK CFI eb2c4 .cfa: sp 0 +
STACK CFI INIT eb2c8 6c .cfa: sp 0 +
STACK CFI INIT eb334 210 .cfa: sp 0 +
STACK CFI eb338 .cfa: sp 80 +
STACK CFI eb348 .cfa: x29 48 + x19: .cfa -8 + ^ x20: .cfa -16 + ^ x21: .cfa -24 + ^ x22: .cfa -32 + ^ .ra: .cfa -40 + ^ x29: .cfa -48 + ^
STACK CFI eb52c .cfa: sp 80 +
STACK CFI eb53c .cfa: sp 0 +
STACK CFI eb540 .cfa: x29 48 +
STACK CFI INIT eb544 5e8 .cfa: sp 0 +
STACK CFI eb548 .cfa: sp 224 +
STACK CFI eb574 .cfa: x29 96 + x19: .cfa -8 + ^ x20: .cfa -16 + ^ x21: .cfa -24 + ^ x22: .cfa -32 + ^ x23: .cfa -40 + ^ x24: .cfa -48 + ^ x25: .cfa -56 + ^ x26: .cfa -64 + ^ x27: .cfa -72 + ^ x28: .cfa -80 + ^ .ra: .cfa -88 + ^ x29: .cfa -96 + ^ v8: .cfa -104 + ^ v9: .cfa -112 + ^ v10: .cfa -120 + ^ v11: .cfa -128 + ^ v12: .cfa -136 + ^ v13: .cfa -144 + ^ v14: .cfa -160 + ^
STACK CFI eba70 .cfa: sp 224 +
STACK CFI eba9c .cfa: sp 0 +
STACK CFI ebaa0 .cfa: x29 96 +
STACK CFI INIT ebb2c 2a4 .cfa: sp 0 +
STACK CFI ebb30 .cfa: sp 176 +
STACK CFI ebb50 .cfa: x29 96 + x19: .cfa -8 + ^ x20: .cfa -16 + ^ x21: .cfa -24 + ^ x22: .cfa -32 + ^ x23: .cfa -40 + ^ x24: .cfa -48 + ^ x25: .cfa -56 + ^ x26: .cfa -64 + ^ x27: .cfa -72 + ^ x28: .cfa -80 + ^ .ra: .cfa -88 + ^ x29: .cfa -96 + ^ v8: .cfa -112 + ^
STACK CFI ebda8 .cfa: sp 176 +
STACK CFI ebdc8 .cfa: sp 0 +
STACK CFI ebdcc .cfa: x29 96 +
STACK CFI INIT ebdd0 488 .cfa: sp 0 +
STACK CFI ebdd4 .cfa: sp 304 +
STACK CFI ebe00 .cfa: x29 96 + x19: .cfa -8 + ^ x20: .cfa -16 + ^ x21: .cfa -24 + ^ x22: .cfa -32 + ^ x23: .cfa -40 + ^ x24: .cfa -48 + ^ x25: .cfa -56 + ^ x26: .cfa -64 + ^ x27: .cfa -72 + ^ x28: .cfa -80 + ^ .ra: .cfa -88 + ^ x29: .cfa -96 + ^ v8: .cfa -104 + ^ v9: .cfa -112 + ^ v10: .cfa -120 + ^ v11: .cfa -128 + ^ v12: .cfa -136 + ^ v13: .cfa -144 + ^ v14: .cfa -160 + ^
STACK CFI ec224 .cfa: sp 304 +
STACK CFI ec250 .cfa: sp 0 +
STACK CFI ec254 .cfa: x29 96 +
STACK CFI INIT ec258 128 .cfa: sp 0 +
STACK CFI ec27c .cfa: sp 80 +
STACK CFI ec290 .cfa: x29 80 + x19: .cfa -8 + ^ x20: .cfa -16 + ^ x21: .cfa -24 + ^ x22: .cfa -32 + ^ x23: .cfa -40 + ^ x24: .cfa -48 + ^ x25: .cfa -64 + ^ .ra: .cfa -72 + ^ x29: .cfa -80 + ^
STACK CFI ec368 .cfa: sp 80 +
STACK CFI ec37c .cfa: sp 0 +
STACK CFI INIT ec380 338 .cfa: sp 0 +
STACK CFI ec384 .cfa: sp 128 +
STACK CFI ec3a4 .cfa: x29 96 + x19: .cfa -8 + ^ x20: .cfa -16 + ^ x21: .cfa -24 + ^ x22: .cfa -32 + ^ x23: .cfa -40 + ^ x24: .cfa -48 + ^ x25: .cfa -56 + ^ x26: .cfa -64 + ^ x27: .cfa -72 + ^ x28: .cfa -80 + ^ .ra: .cfa -88 + ^ x29: .cfa -96 + ^ v8: .cfa -104 + ^ v9: .cfa -112 + ^
STACK CFI ec3c4 .cfa: sp 128 +
STACK CFI ec3e4 .cfa: sp 0 +
STACK CFI ec3e8 .cfa: x29 96 +
STACK CFI ec598 .cfa: sp 128 +
STACK CFI ec5b8 .cfa: sp 0 +
STACK CFI ec5bc .cfa: x29 96 +
STACK CFI INIT ec6b8 720 .cfa: sp 0 +
STACK CFI ec6bc .cfa: sp 240 +
STACK CFI ec6e8 .cfa: x29 96 + x19: .cfa -8 + ^ x20: .cfa -16 + ^ x21: .cfa -24 + ^ x22: .cfa -32 + ^ x23: .cfa -40 + ^ x24: .cfa -48 + ^ x25: .cfa -56 + ^ x26: .cfa -64 + ^ x27: .cfa -72 + ^ x28: .cfa -80 + ^ .ra: .cfa -88 + ^ x29: .cfa -96 + ^ v8: .cfa -104 + ^ v9: .cfa -112 + ^ v10: .cfa -120 + ^ v11: .cfa -128 + ^ v12: .cfa -136 + ^ v13: .cfa -144 + ^ v14: .cfa -152 + ^ v15: .cfa -160 + ^
STACK CFI ec728 .cfa: sp 240 +
STACK CFI ec754 .cfa: sp 0 +
STACK CFI ec758 .cfa: x29 96 +
STACK CFI INIT ecdd8 118 .cfa: sp 0 +
STACK CFI INIT ecef0 7a0 .cfa: sp 0 +
STACK CFI ecef4 .cfa: sp 144 +
STACK CFI ecf10 .cfa: x29 96 + x19: .cfa -8 + ^ x20: .cfa -16 + ^ x21: .cfa -24 + ^ x22: .cfa -32 + ^ x23: .cfa -40 + ^ x24: .cfa -48 + ^ x25: .cfa -56 + ^ x26: .cfa -64 + ^ x27: .cfa -72 + ^ x28: .cfa -80 + ^ .ra: .cfa -88 + ^ x29: .cfa -96 + ^
STACK CFI ed504 .cfa: sp 144 +
STACK CFI ed520 .cfa: sp 0 +
STACK CFI ed524 .cfa: x29 96 +
STACK CFI INIT ed690 cc .cfa: sp 0 +
STACK CFI ed694 .cfa: sp 64 +
STACK CFI ed6a4 .cfa: x29 48 + x19: .cfa -8 + ^ x20: .cfa -16 + ^ x21: .cfa -32 + ^ .ra: .cfa -40 + ^ x29: .cfa -48 + ^
STACK CFI ed744 .cfa: sp 64 +
STACK CFI ed754 .cfa: sp 0 +
STACK CFI ed758 .cfa: x29 48 +
STACK CFI INIT ed75c cc .cfa: sp 0 +
STACK CFI ed760 .cfa: sp 64 +
STACK CFI ed770 .cfa: x29 48 + x19: .cfa -8 + ^ x20: .cfa -16 + ^ x21: .cfa -32 + ^ .ra: .cfa -40 + ^ x29: .cfa -48 + ^
STACK CFI ed810 .cfa: sp 64 +
STACK CFI ed820 .cfa: sp 0 +
STACK CFI ed824 .cfa: x29 48 +
STACK CFI INIT ed828 cc .cfa: sp 0 +
STACK CFI ed82c .cfa: sp 64 +
STACK CFI ed83c .cfa: x29 48 + x19: .cfa -8 + ^ x20: .cfa -16 + ^ x21: .cfa -32 + ^ .ra: .cfa -40 + ^ x29: .cfa -48 + ^
STACK CFI ed8dc .cfa: sp 64 +
STACK CFI ed8ec .cfa: sp 0 +
STACK CFI ed8f0 .cfa: x29 48 +
STACK CFI INIT ed8f4 cc .cfa: sp 0 +
STACK CFI ed8f8 .cfa: sp 64 +
STACK CFI ed908 .cfa: x29 48 + x19: .cfa -8 + ^ x20: .cfa -16 + ^ x21: .cfa -32 + ^ .ra: .cfa -40 + ^ x29: .cfa -48 + ^
STACK CFI ed9a8 .cfa: sp 64 +
STACK CFI ed9b8 .cfa: sp 0 +
STACK CFI ed9bc .cfa: x29 48 +
STACK CFI INIT ed9c0 91c .cfa: sp 0 +
STACK CFI ed9c4 .cfa: sp 256 +
STACK CFI ed9f0 .cfa: x29 96 + x19: .cfa -8 + ^ x20: .cfa -16 + ^ x21: .cfa -24 + ^ x22: .cfa -32 + ^ x23: .cfa -40 + ^ x24: .cfa -48 + ^ x25: .cfa -56 + ^ x26: .cfa -64 + ^ x27: .cfa -72 + ^ x28: .cfa -80 + ^ .ra: .cfa -88 + ^ x29: .cfa -96 + ^ v8: .cfa -104 + ^ v9: .cfa -112 + ^ v10: .cfa -120 + ^ v11: .cfa -128 + ^ v12: .cfa -136 + ^ v13: .cfa -144 + ^ v14: .cfa -152 + ^ v15: .cfa -160 + ^
STACK CFI ee2a8 .cfa: sp 256 +
STACK CFI ee2d4 .cfa: sp 0 +
STACK CFI ee2d8 .cfa: x29 96 +
STACK CFI INIT ee2dc 3c .cfa: sp 0 +
STACK CFI ee2e0 .cfa: sp 32 +
STACK CFI ee2e8 .cfa: x29 32 + x19: .cfa -8 + ^ x20: .cfa -16 + ^ .ra: .cfa -24 + ^ x29: .cfa -32 + ^
STACK CFI ee30c .cfa: sp 32 +
STACK CFI ee314 .cfa: sp 0 +
STACK CFI INIT ee318 53c .cfa: sp 0 +
STACK CFI ee31c .cfa: sp 240 +
STACK CFI ee340 .cfa: x29 64 + x19: .cfa -8 + ^ x20: .cfa -16 + ^ x21: .cfa -24 + ^ x22: .cfa -32 + ^ x23: .cfa -40 + ^ x24: .cfa -48 + ^ .ra: .cfa -56 + ^ x29: .cfa -64 + ^ v8: .cfa -72 + ^ v9: .cfa -80 + ^ v10: .cfa -88 + ^ v11: .cfa -96 + ^ v12: .cfa -104 + ^ v13: .cfa -112 + ^ v14: .cfa -120 + ^ v15: .cfa -128 + ^
STACK CFI ee818 .cfa: sp 240 +
STACK CFI ee83c .cfa: sp 0 +
STACK CFI ee840 .cfa: x29 64 +
STACK CFI INIT ee854 270 .cfa: sp 0 +
STACK CFI ee858 .cfa: sp 96 +
STACK CFI ee870 .cfa: x29 56 + x19: .cfa -8 + ^ x20: .cfa -16 + ^ x21: .cfa -24 + ^ x22: .cfa -32 + ^ x23: .cfa -40 + ^ .ra: .cfa -48 + ^ x29: .cfa -56 + ^ v8: .cfa -64 + ^
STACK CFI eeaa4 .cfa: sp 96 +
STACK CFI eeabc .cfa: sp 0 +
STACK CFI eeac0 .cfa: x29 56 +
STACK CFI INIT eeac4 720 .cfa: sp 0 +
STACK CFI eeac8 .cfa: sp 240 +
STACK CFI eeaf4 .cfa: x29 96 + x19: .cfa -8 + ^ x20: .cfa -16 + ^ x21: .cfa -24 + ^ x22: .cfa -32 + ^ x23: .cfa -40 + ^ x24: .cfa -48 + ^ x25: .cfa -56 + ^ x26: .cfa -64 + ^ x27: .cfa -80 + ^ .ra: .cfa -88 + ^ x29: .cfa -96 + ^ v8: .cfa -104 + ^ v9: .cfa -112 + ^ v10: .cfa -120 + ^ v11: .cfa -128 + ^ v12: .cfa -136 + ^ v13: .cfa -144 + ^ v14: .cfa -152 + ^ v15: .cfa -160 + ^
STACK CFI ef05c .cfa: sp 240 +
STACK CFI ef088 .cfa: sp 0 +
STACK CFI ef08c .cfa: x29 96 +
STACK CFI INIT ef1e4 170 .cfa: sp 0 +
STACK CFI ef1e8 .cfa: sp 48 +
STACK CFI ef1f4 .cfa: x29 48 + x19: .cfa -8 + ^ x20: .cfa -16 + ^ x21: .cfa -32 + ^ .ra: .cfa -40 + ^ x29: .cfa -48 + ^
STACK CFI ef244 .cfa: sp 48 +
STACK CFI ef250 .cfa: sp 0 +
STACK CFI ef254 .cfa: x29 48 +
STACK CFI ef320 .cfa: sp 48 +
STACK CFI ef32c .cfa: sp 0 +
STACK CFI ef330 .cfa: x29 48 +
STACK CFI INIT ef354 14 .cfa: sp 0 +
STACK CFI INIT ef368 70 .cfa: sp 0 +
STACK CFI ef36c .cfa: sp 48 +
STACK CFI ef378 .cfa: x29 32 + x19: .cfa -16 + ^ .ra: .cfa -24 + ^ x29: .cfa -32 + ^
STACK CFI ef3c4 .cfa: sp 48 +
STACK CFI ef3d0 .cfa: sp 0 +
STACK CFI ef3d4 .cfa: x29 32 +
STACK CFI INIT ef3d8 94 .cfa: sp 0 +
STACK CFI ef3dc .cfa: sp 64 +
STACK CFI ef3e8 .cfa: x29 32 + x19: .cfa -16 + ^ .ra: .cfa -24 + ^ x29: .cfa -32 + ^
STACK CFI ef458 .cfa: sp 64 +
STACK CFI ef464 .cfa: sp 0 +
STACK CFI ef468 .cfa: x29 32 +
STACK CFI INIT ef46c a4 .cfa: sp 0 +
STACK CFI ef470 .cfa: sp 64 +
STACK CFI ef480 .cfa: x29 48 + x19: .cfa -8 + ^ x20: .cfa -16 + ^ x21: .cfa -32 + ^ .ra: .cfa -40 + ^ x29: .cfa -48 + ^
STACK CFI ef4f8 .cfa: sp 64 +
STACK CFI ef508 .cfa: sp 0 +
STACK CFI ef50c .cfa: x29 48 +
STACK CFI INIT ef510 58 .cfa: sp 0 +
STACK CFI INIT ef568 564 .cfa: sp 0 +
STACK CFI ef56c .cfa: sp 144 +
STACK CFI ef58c .cfa: x29 80 + x19: .cfa -8 + ^ x20: .cfa -16 + ^ x21: .cfa -24 + ^ x22: .cfa -32 + ^ x23: .cfa -40 + ^ x24: .cfa -48 + ^ x25: .cfa -56 + ^ x26: .cfa -64 + ^ .ra: .cfa -72 + ^ x29: .cfa -80 + ^ v8: .cfa -88 + ^ v9: .cfa -96 + ^ v10: .cfa -104 + ^ v11: .cfa -112 + ^
STACK CFI ef5c8 .cfa: sp 144 +
STACK CFI ef5e8 .cfa: sp 0 +
STACK CFI ef5ec .cfa: x29 80 +
STACK CFI INIT efacc 44 .cfa: sp 0 +
STACK CFI INIT efb10 398 .cfa: sp 0 +
STACK CFI efb14 .cfa: sp 208 +
STACK CFI efb3c .cfa: x29 80 + x19: .cfa -8 + ^ x20: .cfa -16 + ^ x21: .cfa -24 + ^ x22: .cfa -32 + ^ x23: .cfa -40 + ^ x24: .cfa -48 + ^ x25: .cfa -56 + ^ x26: .cfa -64 + ^ .ra: .cfa -72 + ^ x29: .cfa -80 + ^ v8: .cfa -88 + ^ v9: .cfa -96 + ^ v10: .cfa -104 + ^ v11: .cfa -112 + ^ v12: .cfa -120 + ^ v13: .cfa -128 + ^ v14: .cfa -144 + ^
STACK CFI efe78 .cfa: sp 208 +
STACK CFI efea0 .cfa: sp 0 +
STACK CFI efea4 .cfa: x29 80 +
STACK CFI INIT efea8 7c .cfa: sp 0 +
STACK CFI INIT eff24 554 .cfa: sp 0 +
STACK CFI eff28 .cfa: sp 208 +
STACK CFI eff4c .cfa: x29 96 + x19: .cfa -8 + ^ x20: .cfa -16 + ^ x21: .cfa -24 + ^ x22: .cfa -32 + ^ x23: .cfa -40 + ^ x24: .cfa -48 + ^ x25: .cfa -56 + ^ x26: .cfa -64 + ^ x27: .cfa -72 + ^ x28: .cfa -80 + ^ .ra: .cfa -88 + ^ x29: .cfa -96 + ^ v8: .cfa -104 + ^ v9: .cfa -112 + ^ v10: .cfa -128 + ^
STACK CFI f0408 .cfa: sp 208 +
STACK CFI f042c .cfa: sp 0 +
STACK CFI f0430 .cfa: x29 96 +
STACK CFI INIT f0478 298 .cfa: sp 0 +
STACK CFI f0480 .cfa: sp 48 +
STACK CFI f048c .cfa: x29 32 + x19: .cfa -8 + ^ x20: .cfa -16 + ^ .ra: .cfa -24 + ^ x29: .cfa -32 + ^ v8: .cfa -48 + ^
STACK CFI f0700 .cfa: sp 48 +
STACK CFI f070c .cfa: sp 0 +
STACK CFI INIT f0710 30 .cfa: sp 0 +
STACK CFI INIT f0740 a2c .cfa: sp 0 +
STACK CFI f0744 .cfa: sp 304 +
STACK CFI f0770 .cfa: x29 96 + x19: .cfa -8 + ^ x20: .cfa -16 + ^ x21: .cfa -24 + ^ x22: .cfa -32 + ^ x23: .cfa -40 + ^ x24: .cfa -48 + ^ x25: .cfa -56 + ^ x26: .cfa -64 + ^ x27: .cfa -72 + ^ x28: .cfa -80 + ^ .ra: .cfa -88 + ^ x29: .cfa -96 + ^ v8: .cfa -104 + ^ v9: .cfa -112 + ^ v10: .cfa -120 + ^ v11: .cfa -128 + ^ v12: .cfa -136 + ^ v13: .cfa -144 + ^ v14: .cfa -152 + ^ v15: .cfa -160 + ^
STACK CFI f1130 .cfa: sp 304 +
STACK CFI f115c .cfa: sp 0 +
STACK CFI f1160 .cfa: x29 96 +
STACK CFI INIT f116c 4d8 .cfa: sp 0 +
STACK CFI f1170 .cfa: sp 160 +
STACK CFI f118c .cfa: x29 80 + x19: .cfa -8 + ^ x20: .cfa -16 + ^ x21: .cfa -24 + ^ x22: .cfa -32 + ^ x23: .cfa -40 + ^ x24: .cfa -48 + ^ x25: .cfa -56 + ^ x26: .cfa -64 + ^ .ra: .cfa -72 + ^ x29: .cfa -80 + ^ v8: .cfa -96 + ^
STACK CFI f1234 .cfa: sp 160 +
STACK CFI f1250 .cfa: sp 0 +
STACK CFI f1254 .cfa: x29 80 +
STACK CFI INIT f1644 90 .cfa: sp 0 +
STACK CFI f1648 .cfa: sp 48 +
STACK CFI f1654 .cfa: x29 48 + x19: .cfa -8 + ^ x20: .cfa -16 + ^ x21: .cfa -32 + ^ .ra: .cfa -40 + ^ x29: .cfa -48 + ^
STACK CFI f16a0 .cfa: sp 48 +
STACK CFI f16ac .cfa: sp 0 +
STACK CFI f16b0 .cfa: x29 48 +
STACK CFI INIT f16d4 e8 .cfa: sp 0 +
STACK CFI f174c .cfa: sp 16 +
STACK CFI f1750 .cfa: x29 16 + .ra: .cfa -8 + ^ x29: .cfa -16 + ^
STACK CFI f17ac .cfa: sp 16 +
STACK CFI f17b0 .cfa: sp 0 +
STACK CFI INIT f17bc 168 .cfa: sp 0 +
STACK CFI f17c0 .cfa: sp 48 +
STACK CFI f17cc .cfa: x29 48 + x19: .cfa -8 + ^ x20: .cfa -16 + ^ x21: .cfa -24 + ^ x22: .cfa -32 + ^ .ra: .cfa -40 + ^ x29: .cfa -48 + ^
STACK CFI f1914 .cfa: sp 48 +
STACK CFI f1920 .cfa: sp 0 +
STACK CFI INIT f1db8 ac8 .cfa: sp 0 +
STACK CFI f1dbc .cfa: sp 288 +
STACK CFI f1de4 .cfa: x29 96 + x19: .cfa -8 + ^ x20: .cfa -16 + ^ x21: .cfa -24 + ^ x22: .cfa -32 + ^ x23: .cfa -40 + ^ x24: .cfa -48 + ^ x25: .cfa -56 + ^ x26: .cfa -64 + ^ x27: .cfa -72 + ^ x28: .cfa -80 + ^ .ra: .cfa -88 + ^ x29: .cfa -96 + ^ v8: .cfa -104 + ^ v9: .cfa -112 + ^ v10: .cfa -120 + ^ v11: .cfa -128 + ^ v12: .cfa -136 + ^ v13: .cfa -144 + ^
STACK CFI f1e28 .cfa: sp 288 +
STACK CFI f1e50 .cfa: sp 0 +
STACK CFI f1e54 .cfa: x29 96 +
STACK CFI INIT f2cdc 7c .cfa: sp 0 +
STACK CFI f2ce0 .cfa: sp 64 +
STACK CFI f2cf0 .cfa: x29 64 + x19: .cfa -8 + ^ x20: .cfa -16 + ^ x21: .cfa -24 + ^ x22: .cfa -32 + ^ x23: .cfa -40 + ^ x24: .cfa -48 + ^ .ra: .cfa -56 + ^ x29: .cfa -64 + ^
STACK CFI f2d44 .cfa: sp 64 +
STACK CFI f2d54 .cfa: sp 0 +
STACK CFI INIT f2d58 64 .cfa: sp 0 +
STACK CFI f2d5c .cfa: sp 32 +
STACK CFI f2d64 .cfa: x29 32 + x19: .cfa -8 + ^ x20: .cfa -16 + ^ .ra: .cfa -24 + ^ x29: .cfa -32 + ^
STACK CFI f2db0 .cfa: sp 32 +
STACK CFI f2db8 .cfa: sp 0 +
STACK CFI INIT f39c0 14 .cfa: sp 0 +
STACK CFI INIT f39d4 d4 .cfa: sp 0 +
STACK CFI INIT f3aa8 460 .cfa: sp 0 +
STACK CFI INIT f3f08 2f0 .cfa: sp 0 +
STACK CFI f3f0c .cfa: sp 160 +
STACK CFI f3f28 .cfa: x29 96 + x19: .cfa -8 + ^ x20: .cfa -16 + ^ x21: .cfa -24 + ^ x22: .cfa -32 + ^ x23: .cfa -40 + ^ x24: .cfa -48 + ^ x25: .cfa -56 + ^ x26: .cfa -64 + ^ x27: .cfa -80 + ^ .ra: .cfa -88 + ^ x29: .cfa -96 + ^
STACK CFI f41d4 .cfa: sp 160 +
STACK CFI f41f0 .cfa: sp 0 +
STACK CFI f41f4 .cfa: x29 96 +
STACK CFI INIT f41f8 128 .cfa: sp 0 +
STACK CFI INIT f4320 154 .cfa: sp 0 +
STACK CFI INIT f4474 248 .cfa: sp 0 +
STACK CFI INIT f46bc 4f8 .cfa: sp 0 +
STACK CFI f46c0 .cfa: sp 112 +
STACK CFI f46e0 .cfa: x29 88 + x19: .cfa -8 + ^ x20: .cfa -16 + ^ x21: .cfa -24 + ^ x22: .cfa -32 + ^ x23: .cfa -40 + ^ x24: .cfa -48 + ^ x25: .cfa -56 + ^ x26: .cfa -64 + ^ x27: .cfa -72 + ^ .ra: .cfa -80 + ^ x29: .cfa -88 + ^ v8: .cfa -96 + ^
STACK CFI f47c4 .cfa: sp 112 +
STACK CFI f47e4 .cfa: sp 0 +
STACK CFI f47e8 .cfa: x29 88 +
STACK CFI f4968 .cfa: sp 112 +
STACK CFI f4988 .cfa: sp 0 +
STACK CFI f498c .cfa: x29 88 +
STACK CFI f49cc .cfa: sp 112 +
STACK CFI f49ec .cfa: sp 0 +
STACK CFI f49f0 .cfa: x29 88 +
STACK CFI f4a4c .cfa: sp 112 +
STACK CFI f4a6c .cfa: sp 0 +
STACK CFI f4a70 .cfa: x29 88 +
STACK CFI f4adc .cfa: sp 112 +
STACK CFI f4afc .cfa: sp 0 +
STACK CFI f4b00 .cfa: x29 88 +
STACK CFI f4b24 .cfa: sp 112 +
STACK CFI f4b44 .cfa: sp 0 +
STACK CFI f4b48 .cfa: x29 88 +
STACK CFI f4b8c .cfa: sp 112 +
STACK CFI f4bac .cfa: sp 0 +
STACK CFI f4bb0 .cfa: x29 88 +
STACK CFI INIT f4bb4 3a8 .cfa: sp 0 +
STACK CFI f4bb8 .cfa: sp 144 +
STACK CFI f4bdc .cfa: x29 96 + x19: .cfa -8 + ^ x20: .cfa -16 + ^ x21: .cfa -24 + ^ x22: .cfa -32 + ^ x23: .cfa -40 + ^ x24: .cfa -48 + ^ x25: .cfa -56 + ^ x26: .cfa -64 + ^ x27: .cfa -72 + ^ x28: .cfa -80 + ^ .ra: .cfa -88 + ^ x29: .cfa -96 + ^ v8: .cfa -104 + ^ v9: .cfa -112 + ^ v10: .cfa -120 + ^ v11: .cfa -128 + ^
STACK CFI f4f34 .cfa: sp 144 +
STACK CFI f4f58 .cfa: sp 0 +
STACK CFI INIT f4f5c 510 .cfa: sp 0 +
STACK CFI f4f60 .cfa: sp 160 +
STACK CFI f4f88 .cfa: x29 96 + x19: .cfa -8 + ^ x20: .cfa -16 + ^ x21: .cfa -24 + ^ x22: .cfa -32 + ^ x23: .cfa -40 + ^ x24: .cfa -48 + ^ x25: .cfa -56 + ^ x26: .cfa -64 + ^ x27: .cfa -72 + ^ x28: .cfa -80 + ^ .ra: .cfa -88 + ^ x29: .cfa -96 + ^ v8: .cfa -104 + ^ v9: .cfa -112 + ^ v10: .cfa -120 + ^ v11: .cfa -128 + ^ v12: .cfa -136 + ^ v13: .cfa -144 + ^
STACK CFI f5440 .cfa: sp 160 +
STACK CFI f5468 .cfa: sp 0 +
STACK CFI INIT f546c 3a4 .cfa: sp 0 +
STACK CFI f5470 .cfa: sp 144 +
STACK CFI f5494 .cfa: x29 96 + x19: .cfa -8 + ^ x20: .cfa -16 + ^ x21: .cfa -24 + ^ x22: .cfa -32 + ^ x23: .cfa -40 + ^ x24: .cfa -48 + ^ x25: .cfa -56 + ^ x26: .cfa -64 + ^ x27: .cfa -72 + ^ x28: .cfa -80 + ^ .ra: .cfa -88 + ^ x29: .cfa -96 + ^ v8: .cfa -104 + ^ v9: .cfa -112 + ^ v10: .cfa -120 + ^ v11: .cfa -128 + ^
STACK CFI f57e8 .cfa: sp 144 +
STACK CFI f580c .cfa: sp 0 +
STACK CFI INIT f5810 510 .cfa: sp 0 +
STACK CFI f5814 .cfa: sp 176 +
STACK CFI f5840 .cfa: x29 96 + x19: .cfa -8 + ^ x20: .cfa -16 + ^ x21: .cfa -24 + ^ x22: .cfa -32 + ^ x23: .cfa -40 + ^ x24: .cfa -48 + ^ x25: .cfa -56 + ^ x26: .cfa -64 + ^ x27: .cfa -72 + ^ x28: .cfa -80 + ^ .ra: .cfa -88 + ^ x29: .cfa -96 + ^ v8: .cfa -104 + ^ v9: .cfa -112 + ^ v10: .cfa -120 + ^ v11: .cfa -128 + ^ v12: .cfa -136 + ^ v13: .cfa -144 + ^ v14: .cfa -160 + ^
STACK CFI f5cf0 .cfa: sp 176 +
STACK CFI f5d1c .cfa: sp 0 +
STACK CFI INIT f5d20 6cc .cfa: sp 0 +
STACK CFI f5d24 .cfa: sp 160 +
STACK CFI f5d4c .cfa: x29 96 + x19: .cfa -8 + ^ x20: .cfa -16 + ^ x21: .cfa -24 + ^ x22: .cfa -32 + ^ x23: .cfa -40 + ^ x24: .cfa -48 + ^ x25: .cfa -56 + ^ x26: .cfa -64 + ^ x27: .cfa -72 + ^ x28: .cfa -80 + ^ .ra: .cfa -88 + ^ x29: .cfa -96 + ^ v8: .cfa -104 + ^ v9: .cfa -112 + ^ v10: .cfa -120 + ^ v11: .cfa -128 + ^ v12: .cfa -144 + ^
STACK CFI f62b8 .cfa: sp 160 +
STACK CFI f62e0 .cfa: sp 0 +
STACK CFI f62e4 .cfa: x29 96 +
STACK CFI INIT f63ec 714 .cfa: sp 0 +
STACK CFI f63f0 .cfa: sp 160 +
STACK CFI f6418 .cfa: x29 96 + x19: .cfa -8 + ^ x20: .cfa -16 + ^ x21: .cfa -24 + ^ x22: .cfa -32 + ^ x23: .cfa -40 + ^ x24: .cfa -48 + ^ x25: .cfa -56 + ^ x26: .cfa -64 + ^ x27: .cfa -72 + ^ x28: .cfa -80 + ^ .ra: .cfa -88 + ^ x29: .cfa -96 + ^ v8: .cfa -104 + ^ v9: .cfa -112 + ^ v10: .cfa -120 + ^ v11: .cfa -128 + ^ v12: .cfa -144 + ^
STACK CFI f69c4 .cfa: sp 160 +
STACK CFI f69ec .cfa: sp 0 +
STACK CFI f69f0 .cfa: x29 96 +
STACK CFI INIT f6b00 868 .cfa: sp 0 +
STACK CFI f6b04 .cfa: sp 288 +
STACK CFI f6b28 .cfa: x29 96 + x19: .cfa -8 + ^ x20: .cfa -16 + ^ x21: .cfa -24 + ^ x22: .cfa -32 + ^ x23: .cfa -40 + ^ x24: .cfa -48 + ^ x25: .cfa -56 + ^ x26: .cfa -64 + ^ x27: .cfa -72 + ^ x28: .cfa -80 + ^ .ra: .cfa -88 + ^ x29: .cfa -96 + ^ v8: .cfa -104 + ^ v9: .cfa -112 + ^ v10: .cfa -128 + ^
STACK CFI f6df0 .cfa: sp 288 +
STACK CFI f6e14 .cfa: sp 0 +
STACK CFI f6e18 .cfa: x29 96 +
STACK CFI INIT f7368 3cc .cfa: sp 0 +
STACK CFI f736c .cfa: sp 208 +
STACK CFI f7388 .cfa: x29 96 + x19: .cfa -8 + ^ x20: .cfa -16 + ^ x21: .cfa -24 + ^ x22: .cfa -32 + ^ x23: .cfa -40 + ^ x24: .cfa -48 + ^ x25: .cfa -56 + ^ x26: .cfa -64 + ^ x27: .cfa -72 + ^ x28: .cfa -80 + ^ .ra: .cfa -88 + ^ x29: .cfa -96 + ^
STACK CFI f76fc .cfa: sp 208 +
STACK CFI f7718 .cfa: sp 0 +
STACK CFI f771c .cfa: x29 96 +
STACK CFI INIT f7734 3a0 .cfa: sp 0 +
STACK CFI f7738 .cfa: sp 144 +
STACK CFI f7758 .cfa: x29 96 + x19: .cfa -8 + ^ x20: .cfa -16 + ^ x21: .cfa -24 + ^ x22: .cfa -32 + ^ x23: .cfa -40 + ^ x24: .cfa -48 + ^ x25: .cfa -56 + ^ x26: .cfa -64 + ^ x27: .cfa -72 + ^ x28: .cfa -80 + ^ .ra: .cfa -88 + ^ x29: .cfa -96 + ^ v8: .cfa -112 + ^
STACK CFI f7aa8 .cfa: sp 144 +
STACK CFI f7ac8 .cfa: sp 0 +
STACK CFI f7acc .cfa: x29 96 +
STACK CFI INIT f7ad4 64 .cfa: sp 0 +
STACK CFI f7ad8 .cfa: sp 48 +
STACK CFI f7ae4 .cfa: x29 32 + x19: .cfa -16 + ^ .ra: .cfa -24 + ^ x29: .cfa -32 + ^
STACK CFI f7b24 .cfa: sp 48 +
STACK CFI f7b30 .cfa: sp 0 +
STACK CFI f7b34 .cfa: x29 32 +
STACK CFI INIT f7b38 68 .cfa: sp 0 +
STACK CFI f7b3c .cfa: sp 48 +
STACK CFI f7b48 .cfa: x29 32 + x19: .cfa -16 + ^ .ra: .cfa -24 + ^ x29: .cfa -32 + ^
STACK CFI f7b8c .cfa: sp 48 +
STACK CFI f7b98 .cfa: sp 0 +
STACK CFI f7b9c .cfa: x29 32 +
STACK CFI INIT f7ba0 68 .cfa: sp 0 +
STACK CFI f7ba4 .cfa: sp 48 +
STACK CFI f7bb0 .cfa: x29 32 + x19: .cfa -16 + ^ .ra: .cfa -24 + ^ x29: .cfa -32 + ^
STACK CFI f7bf4 .cfa: sp 48 +
STACK CFI f7c00 .cfa: sp 0 +
STACK CFI f7c04 .cfa: x29 32 +
STACK CFI INIT f7c08 68 .cfa: sp 0 +
STACK CFI f7c0c .cfa: sp 48 +
STACK CFI f7c18 .cfa: x29 32 + x19: .cfa -16 + ^ .ra: .cfa -24 + ^ x29: .cfa -32 + ^
STACK CFI f7c5c .cfa: sp 48 +
STACK CFI f7c68 .cfa: sp 0 +
STACK CFI f7c6c .cfa: x29 32 +
STACK CFI INIT f7c70 360 .cfa: sp 0 +
STACK CFI f7c74 .cfa: sp 160 +
STACK CFI f7c98 .cfa: x29 96 + x19: .cfa -8 + ^ x20: .cfa -16 + ^ x21: .cfa -24 + ^ x22: .cfa -32 + ^ x23: .cfa -40 + ^ x24: .cfa -48 + ^ x25: .cfa -56 + ^ x26: .cfa -64 + ^ x27: .cfa -72 + ^ x28: .cfa -80 + ^ .ra: .cfa -88 + ^ x29: .cfa -96 + ^ v8: .cfa -104 + ^ v9: .cfa -112 + ^ v10: .cfa -128 + ^
STACK CFI f7cdc .cfa: sp 160 +
STACK CFI f7d00 .cfa: sp 0 +
STACK CFI f7d04 .cfa: x29 96 +
STACK CFI INIT f7fd0 68 .cfa: sp 0 +
STACK CFI f7fd4 .cfa: sp 48 +
STACK CFI f7fe0 .cfa: x29 32 + x19: .cfa -16 + ^ .ra: .cfa -24 + ^ x29: .cfa -32 + ^
STACK CFI f8024 .cfa: sp 48 +
STACK CFI f8030 .cfa: sp 0 +
STACK CFI f8034 .cfa: x29 32 +
STACK CFI INIT f8038 6c .cfa: sp 0 +
STACK CFI f803c .cfa: sp 48 +
STACK CFI f8048 .cfa: x29 32 + x19: .cfa -16 + ^ .ra: .cfa -24 + ^ x29: .cfa -32 + ^
STACK CFI f8090 .cfa: sp 48 +
STACK CFI f809c .cfa: sp 0 +
STACK CFI f80a0 .cfa: x29 32 +
STACK CFI INIT f80a4 6c .cfa: sp 0 +
STACK CFI f80a8 .cfa: sp 48 +
STACK CFI f80b4 .cfa: x29 32 + x19: .cfa -16 + ^ .ra: .cfa -24 + ^ x29: .cfa -32 + ^
STACK CFI f80fc .cfa: sp 48 +
STACK CFI f8108 .cfa: sp 0 +
STACK CFI f810c .cfa: x29 32 +
STACK CFI INIT f8110 6c .cfa: sp 0 +
STACK CFI f8114 .cfa: sp 48 +
STACK CFI f8120 .cfa: x29 32 + x19: .cfa -16 + ^ .ra: .cfa -24 + ^ x29: .cfa -32 + ^
STACK CFI f8168 .cfa: sp 48 +
STACK CFI f8174 .cfa: sp 0 +
STACK CFI f8178 .cfa: x29 32 +
STACK CFI INIT f817c 358 .cfa: sp 0 +
STACK CFI f8180 .cfa: sp 144 +
STACK CFI f81a0 .cfa: x29 96 + x19: .cfa -8 + ^ x20: .cfa -16 + ^ x21: .cfa -24 + ^ x22: .cfa -32 + ^ x23: .cfa -40 + ^ x24: .cfa -48 + ^ x25: .cfa -56 + ^ x26: .cfa -64 + ^ x27: .cfa -72 + ^ x28: .cfa -80 + ^ .ra: .cfa -88 + ^ x29: .cfa -96 + ^ v8: .cfa -112 + ^
STACK CFI f81e4 .cfa: sp 144 +
STACK CFI f8204 .cfa: sp 0 +
STACK CFI f8208 .cfa: x29 96 +
STACK CFI INIT f84d4 1fc4 .cfa: sp 0 +
STACK CFI f84d8 .cfa: sp 256 +
STACK CFI f8504 .cfa: x29 96 + x19: .cfa -8 + ^ x20: .cfa -16 + ^ x21: .cfa -24 + ^ x22: .cfa -32 + ^ x23: .cfa -40 + ^ x24: .cfa -48 + ^ x25: .cfa -56 + ^ x26: .cfa -64 + ^ x27: .cfa -72 + ^ x28: .cfa -80 + ^ .ra: .cfa -88 + ^ x29: .cfa -96 + ^ v8: .cfa -104 + ^ v9: .cfa -112 + ^ v10: .cfa -120 + ^ v11: .cfa -128 + ^ v12: .cfa -136 + ^ v13: .cfa -144 + ^ v14: .cfa -152 + ^ v15: .cfa -160 + ^
STACK CFI f8568 .cfa: sp 256 +
STACK CFI f8594 .cfa: sp 0 +
STACK CFI f8598 .cfa: x29 96 +
STACK CFI f8884 .cfa: sp 256 +
STACK CFI f88b0 .cfa: sp 0 +
STACK CFI f88b4 .cfa: x29 96 +
STACK CFI fa464 .cfa: sp 256 +
STACK CFI fa490 .cfa: sp 0 +
STACK CFI fa494 .cfa: x29 96 +
STACK CFI INIT fa498 534 .cfa: sp 0 +
STACK CFI fa49c .cfa: sp 192 +
STACK CFI fa4c8 .cfa: x29 96 + x19: .cfa -8 + ^ x20: .cfa -16 + ^ x21: .cfa -24 + ^ x22: .cfa -32 + ^ x23: .cfa -40 + ^ x24: .cfa -48 + ^ x25: .cfa -56 + ^ x26: .cfa -64 + ^ x27: .cfa -72 + ^ x28: .cfa -80 + ^ .ra: .cfa -88 + ^ x29: .cfa -96 + ^ v8: .cfa -104 + ^ v9: .cfa -112 + ^ v10: .cfa -120 + ^ v11: .cfa -128 + ^ v12: .cfa -136 + ^ v13: .cfa -144 + ^ v14: .cfa -152 + ^ v15: .cfa -160 + ^
STACK CFI fa980 .cfa: sp 192 +
STACK CFI fa9ac .cfa: sp 0 +
STACK CFI fa9b0 .cfa: x29 96 +
STACK CFI INIT fa9cc 848 .cfa: sp 0 +
STACK CFI fa9d0 .cfa: sp 208 +
STACK CFI fa9fc .cfa: x29 96 + x19: .cfa -8 + ^ x20: .cfa -16 + ^ x21: .cfa -24 + ^ x22: .cfa -32 + ^ x23: .cfa -40 + ^ x24: .cfa -48 + ^ x25: .cfa -56 + ^ x26: .cfa -64 + ^ x27: .cfa -72 + ^ x28: .cfa -80 + ^ .ra: .cfa -88 + ^ x29: .cfa -96 + ^ v8: .cfa -104 + ^ v9: .cfa -112 + ^ v10: .cfa -120 + ^ v11: .cfa -128 + ^ v12: .cfa -136 + ^ v13: .cfa -144 + ^ v14: .cfa -152 + ^ v15: .cfa -160 + ^
STACK CFI fb1e4 .cfa: sp 208 +
STACK CFI fb210 .cfa: sp 0 +
STACK CFI INIT fb214 7e4 .cfa: sp 0 +
STACK CFI fb218 .cfa: sp 320 +
STACK CFI fb23c .cfa: x29 96 + x19: .cfa -8 + ^ x20: .cfa -16 + ^ x21: .cfa -24 + ^ x22: .cfa -32 + ^ x23: .cfa -40 + ^ x24: .cfa -48 + ^ x25: .cfa -56 + ^ x26: .cfa -64 + ^ x27: .cfa -72 + ^ x28: .cfa -80 + ^ .ra: .cfa -88 + ^ x29: .cfa -96 + ^ v8: .cfa -104 + ^ v9: .cfa -112 + ^ v10: .cfa -128 + ^
STACK CFI fb5e0 .cfa: sp 320 +
STACK CFI fb604 .cfa: sp 0 +
STACK CFI fb608 .cfa: x29 96 +
STACK CFI INIT fb9f8 388 .cfa: sp 0 +
STACK CFI fb9fc .cfa: sp 128 +
STACK CFI fba18 .cfa: x29 96 + x19: .cfa -8 + ^ x20: .cfa -16 + ^ x21: .cfa -24 + ^ x22: .cfa -32 + ^ x23: .cfa -40 + ^ x24: .cfa -48 + ^ x25: .cfa -56 + ^ x26: .cfa -64 + ^ x27: .cfa -72 + ^ x28: .cfa -80 + ^ .ra: .cfa -88 + ^ x29: .cfa -96 + ^
STACK CFI fbd58 .cfa: sp 128 +
STACK CFI fbd74 .cfa: sp 0 +
STACK CFI fbd78 .cfa: x29 96 +
STACK CFI INIT fbd80 64 .cfa: sp 0 +
STACK CFI fbd84 .cfa: sp 48 +
STACK CFI fbd90 .cfa: x29 32 + x19: .cfa -16 + ^ .ra: .cfa -24 + ^ x29: .cfa -32 + ^
STACK CFI fbdd0 .cfa: sp 48 +
STACK CFI fbddc .cfa: sp 0 +
STACK CFI fbde0 .cfa: x29 32 +
STACK CFI INIT fbde4 68 .cfa: sp 0 +
STACK CFI fbde8 .cfa: sp 48 +
STACK CFI fbdf4 .cfa: x29 32 + x19: .cfa -16 + ^ .ra: .cfa -24 + ^ x29: .cfa -32 + ^
STACK CFI fbe38 .cfa: sp 48 +
STACK CFI fbe44 .cfa: sp 0 +
STACK CFI fbe48 .cfa: x29 32 +
STACK CFI INIT fbe4c 68 .cfa: sp 0 +
STACK CFI fbe50 .cfa: sp 48 +
STACK CFI fbe5c .cfa: x29 32 + x19: .cfa -16 + ^ .ra: .cfa -24 + ^ x29: .cfa -32 + ^
STACK CFI fbea0 .cfa: sp 48 +
STACK CFI fbeac .cfa: sp 0 +
STACK CFI fbeb0 .cfa: x29 32 +
STACK CFI INIT fbeb4 68 .cfa: sp 0 +
STACK CFI fbeb8 .cfa: sp 48 +
STACK CFI fbec4 .cfa: x29 32 + x19: .cfa -16 + ^ .ra: .cfa -24 + ^ x29: .cfa -32 + ^
STACK CFI fbf08 .cfa: sp 48 +
STACK CFI fbf14 .cfa: sp 0 +
STACK CFI fbf18 .cfa: x29 32 +
STACK CFI INIT fbf1c b0 .cfa: sp 0 +
STACK CFI fbf20 .cfa: sp 80 +
STACK CFI fbf30 .cfa: x29 32 + x19: .cfa -8 + ^ x20: .cfa -16 + ^ .ra: .cfa -24 + ^ x29: .cfa -32 + ^ v8: .cfa -40 + ^ v9: .cfa -48 + ^
STACK CFI fbfb4 .cfa: sp 80 +
STACK CFI fbfc4 .cfa: sp 0 +
STACK CFI fbfc8 .cfa: x29 32 +
STACK CFI INIT fbfcc 68 .cfa: sp 0 +
STACK CFI fbfd0 .cfa: sp 48 +
STACK CFI fbfdc .cfa: x29 32 + x19: .cfa -16 + ^ .ra: .cfa -24 + ^ x29: .cfa -32 + ^
STACK CFI fc020 .cfa: sp 48 +
STACK CFI fc02c .cfa: sp 0 +
STACK CFI fc030 .cfa: x29 32 +
STACK CFI INIT fc034 6c .cfa: sp 0 +
STACK CFI fc038 .cfa: sp 48 +
STACK CFI fc044 .cfa: x29 32 + x19: .cfa -16 + ^ .ra: .cfa -24 + ^ x29: .cfa -32 + ^
STACK CFI fc08c .cfa: sp 48 +
STACK CFI fc098 .cfa: sp 0 +
STACK CFI fc09c .cfa: x29 32 +
STACK CFI INIT fc0a0 6c .cfa: sp 0 +
STACK CFI fc0a4 .cfa: sp 48 +
STACK CFI fc0b0 .cfa: x29 32 + x19: .cfa -16 + ^ .ra: .cfa -24 + ^ x29: .cfa -32 + ^
STACK CFI fc0f8 .cfa: sp 48 +
STACK CFI fc104 .cfa: sp 0 +
STACK CFI fc108 .cfa: x29 32 +
STACK CFI INIT fc10c 6c .cfa: sp 0 +
STACK CFI fc110 .cfa: sp 48 +
STACK CFI fc11c .cfa: x29 32 + x19: .cfa -16 + ^ .ra: .cfa -24 + ^ x29: .cfa -32 + ^
STACK CFI fc164 .cfa: sp 48 +
STACK CFI fc170 .cfa: sp 0 +
STACK CFI fc174 .cfa: x29 32 +
STACK CFI INIT fc178 6b4 .cfa: sp 0 +
STACK CFI fc17c .cfa: sp 304 +
STACK CFI fc1a0 .cfa: x29 96 + x19: .cfa -8 + ^ x20: .cfa -16 + ^ x21: .cfa -24 + ^ x22: .cfa -32 + ^ x23: .cfa -40 + ^ x24: .cfa -48 + ^ x25: .cfa -56 + ^ x26: .cfa -64 + ^ x27: .cfa -72 + ^ x28: .cfa -80 + ^ .ra: .cfa -88 + ^ x29: .cfa -96 + ^ v8: .cfa -104 + ^ v9: .cfa -112 + ^ v10: .cfa -128 + ^
STACK CFI fc800 .cfa: sp 304 +
STACK CFI fc824 .cfa: sp 0 +
STACK CFI fc828 .cfa: x29 96 +
STACK CFI INIT fc82c 64 .cfa: sp 0 +
STACK CFI fc830 .cfa: sp 48 +
STACK CFI fc83c .cfa: x29 32 + x19: .cfa -16 + ^ .ra: .cfa -24 + ^ x29: .cfa -32 + ^
STACK CFI fc87c .cfa: sp 48 +
STACK CFI fc888 .cfa: sp 0 +
STACK CFI fc88c .cfa: x29 32 +
STACK CFI INIT fc890 68 .cfa: sp 0 +
STACK CFI fc894 .cfa: sp 48 +
STACK CFI fc8a0 .cfa: x29 32 + x19: .cfa -16 + ^ .ra: .cfa -24 + ^ x29: .cfa -32 + ^
STACK CFI fc8e4 .cfa: sp 48 +
STACK CFI fc8f0 .cfa: sp 0 +
STACK CFI fc8f4 .cfa: x29 32 +
STACK CFI INIT fc8f8 34 .cfa: sp 0 +
STACK CFI INIT fc92c 74 .cfa: sp 0 +
STACK CFI INIT fc9a0 114 .cfa: sp 0 +
STACK CFI fc9ac .cfa: sp 32 +
STACK CFI fc9b4 .cfa: x29 32 + x19: .cfa -16 + ^ .ra: .cfa -24 + ^ x29: .cfa -32 + ^
STACK CFI fca7c .cfa: sp 32 +
STACK CFI fca84 .cfa: sp 0 +
STACK CFI fca88 .cfa: x29 32 +
STACK CFI fca8c .cfa: sp 32 +
STACK CFI fca94 .cfa: sp 0 +
STACK CFI fcaa4 .cfa: x29 32 +
STACK CFI fcaa8 .cfa: sp 32 +
STACK CFI fcab0 .cfa: sp 0 +
STACK CFI INIT fcab4 bc .cfa: sp 0 +
STACK CFI INIT fcb70 138 .cfa: sp 0 +
STACK CFI INIT fcca8 f4 .cfa: sp 0 +
STACK CFI fccac .cfa: sp 112 +
STACK CFI fccc8 .cfa: x29 96 + x19: .cfa -8 + ^ x20: .cfa -16 + ^ x21: .cfa -24 + ^ x22: .cfa -32 + ^ x23: .cfa -40 + ^ x24: .cfa -48 + ^ x25: .cfa -56 + ^ x26: .cfa -64 + ^ x27: .cfa -72 + ^ x28: .cfa -80 + ^ .ra: .cfa -88 + ^ x29: .cfa -96 + ^
STACK CFI fcd78 .cfa: sp 112 +
STACK CFI fcd94 .cfa: sp 0 +
STACK CFI fcd98 .cfa: x29 96 +
STACK CFI INIT 100dc8 38 .cfa: sp 0 +
STACK CFI INIT 100e00 640 .cfa: sp 0 +
STACK CFI 100e04 .cfa: sp 240 +
STACK CFI 100e28 .cfa: x29 96 + x19: .cfa -8 + ^ x20: .cfa -16 + ^ x21: .cfa -24 + ^ x22: .cfa -32 + ^ x23: .cfa -40 + ^ x24: .cfa -48 + ^ x25: .cfa -56 + ^ x26: .cfa -64 + ^ x27: .cfa -72 + ^ x28: .cfa -80 + ^ .ra: .cfa -88 + ^ x29: .cfa -96 + ^ v8: .cfa -104 + ^ v9: .cfa -112 + ^ v10: .cfa -128 + ^
STACK CFI 100e68 .cfa: sp 240 +
STACK CFI 100e8c .cfa: sp 0 +
STACK CFI 100e90 .cfa: x29 96 +
STACK CFI INIT 101440 68 .cfa: sp 0 +
STACK CFI 101444 .cfa: sp 48 +
STACK CFI 101450 .cfa: x29 32 + x19: .cfa -16 + ^ .ra: .cfa -24 + ^ x29: .cfa -32 + ^
STACK CFI 101494 .cfa: sp 48 +
STACK CFI 1014a0 .cfa: sp 0 +
STACK CFI 1014a4 .cfa: x29 32 +
STACK CFI INIT 1014a8 388 .cfa: sp 0 +
STACK CFI 1014ac .cfa: sp 128 +
STACK CFI 1014c8 .cfa: x29 96 + x19: .cfa -8 + ^ x20: .cfa -16 + ^ x21: .cfa -24 + ^ x22: .cfa -32 + ^ x23: .cfa -40 + ^ x24: .cfa -48 + ^ x25: .cfa -56 + ^ x26: .cfa -64 + ^ x27: .cfa -72 + ^ x28: .cfa -80 + ^ .ra: .cfa -88 + ^ x29: .cfa -96 + ^
STACK CFI 101808 .cfa: sp 128 +
STACK CFI 101824 .cfa: sp 0 +
STACK CFI 101828 .cfa: x29 96 +
STACK CFI INIT 101830 74 .cfa: sp 0 +
STACK CFI 101834 .cfa: sp 48 +
STACK CFI 101840 .cfa: x29 32 + x19: .cfa -16 + ^ .ra: .cfa -24 + ^ x29: .cfa -32 + ^
STACK CFI 101890 .cfa: sp 48 +
STACK CFI 10189c .cfa: sp 0 +
STACK CFI 1018a0 .cfa: x29 32 +
STACK CFI INIT 1018a4 20 .cfa: sp 0 +
STACK CFI INIT 1018c4 20 .cfa: sp 0 +
STACK CFI INIT 1018e4 20 .cfa: sp 0 +
STACK CFI INIT 101904 90 .cfa: sp 0 +
STACK CFI 101908 .cfa: sp 48 +
STACK CFI 101914 .cfa: x29 32 + x19: .cfa -16 + ^ .ra: .cfa -24 + ^ x29: .cfa -32 + ^
STACK CFI 101980 .cfa: sp 48 +
STACK CFI 10198c .cfa: sp 0 +
STACK CFI 101990 .cfa: x29 32 +
STACK CFI INIT 101994 24 .cfa: sp 0 +
STACK CFI INIT 1019b8 24 .cfa: sp 0 +
STACK CFI INIT 1019dc 24 .cfa: sp 0 +
STACK CFI INIT 101a00 74 .cfa: sp 0 +
STACK CFI 101a04 .cfa: sp 64 +
STACK CFI 101a10 .cfa: x29 32 + x19: .cfa -16 + ^ .ra: .cfa -24 + ^ x29: .cfa -32 + ^
STACK CFI 101a60 .cfa: sp 64 +
STACK CFI 101a6c .cfa: sp 0 +
STACK CFI 101a70 .cfa: x29 32 +
STACK CFI INIT 101a74 24 .cfa: sp 0 +
STACK CFI INIT 101a98 5c .cfa: sp 0 +
STACK CFI 101a9c .cfa: sp 48 +
STACK CFI 101aa8 .cfa: x29 32 + x19: .cfa -16 + ^ .ra: .cfa -24 + ^ x29: .cfa -32 + ^
STACK CFI 101ae0 .cfa: sp 48 +
STACK CFI 101aec .cfa: sp 0 +
STACK CFI 101af0 .cfa: x29 32 +
STACK CFI INIT 101af4 15c0 .cfa: sp 0 +
STACK CFI 101af8 .cfa: sp 144 +
STACK CFI 101b14 .cfa: x29 96 + x19: .cfa -8 + ^ x20: .cfa -16 + ^ x21: .cfa -24 + ^ x22: .cfa -32 + ^ x23: .cfa -40 + ^ x24: .cfa -48 + ^ x25: .cfa -56 + ^ x26: .cfa -64 + ^ x27: .cfa -72 + ^ x28: .cfa -80 + ^ .ra: .cfa -88 + ^ x29: .cfa -96 + ^
STACK CFI 103018 .cfa: sp 144 +
STACK CFI 103034 .cfa: sp 0 +
STACK CFI 103038 .cfa: x29 96 +
STACK CFI INIT 1030b4 10 .cfa: sp 0 +
STACK CFI INIT 1030c4 8c .cfa: sp 0 +
STACK CFI INIT 103150 31c .cfa: sp 0 +
STACK CFI 10315c .cfa: sp 96 +
STACK CFI 103174 .cfa: x29 96 + x19: .cfa -8 + ^ x20: .cfa -16 + ^ x21: .cfa -24 + ^ x22: .cfa -32 + ^ x23: .cfa -40 + ^ x24: .cfa -48 + ^ x25: .cfa -56 + ^ x26: .cfa -64 + ^ x27: .cfa -72 + ^ x28: .cfa -80 + ^ .ra: .cfa -88 + ^ x29: .cfa -96 + ^
STACK CFI 103450 .cfa: sp 96 +
STACK CFI 103468 .cfa: sp 0 +
STACK CFI INIT 10346c 3e8 .cfa: sp 0 +
STACK CFI 103470 .cfa: sp 80 +
STACK CFI 103484 .cfa: x29 80 + x19: .cfa -8 + ^ x20: .cfa -16 + ^ x21: .cfa -24 + ^ x22: .cfa -32 + ^ x23: .cfa -40 + ^ x24: .cfa -48 + ^ x25: .cfa -56 + ^ x26: .cfa -64 + ^ .ra: .cfa -72 + ^ x29: .cfa -80 + ^
STACK CFI 1037b0 .cfa: sp 80 +
STACK CFI 1037c4 .cfa: sp 0 +
STACK CFI 1037c8 .cfa: x29 80 +
STACK CFI 10383c .cfa: sp 80 +
STACK CFI 103850 .cfa: sp 0 +
STACK CFI INIT 103854 1ec .cfa: sp 0 +
STACK CFI 103858 .cfa: sp 64 +
STACK CFI 103868 .cfa: x29 64 + x19: .cfa -8 + ^ x20: .cfa -16 + ^ x21: .cfa -24 + ^ x22: .cfa -32 + ^ x23: .cfa -40 + ^ x24: .cfa -48 + ^ .ra: .cfa -56 + ^ x29: .cfa -64 + ^
STACK CFI 103a2c .cfa: sp 64 +
STACK CFI 103a3c .cfa: sp 0 +
STACK CFI INIT 103a40 d4 .cfa: sp 0 +
STACK CFI 103a44 .cfa: sp 64 +
STACK CFI 103a54 .cfa: x29 64 + x19: .cfa -8 + ^ x20: .cfa -16 + ^ x21: .cfa -24 + ^ x22: .cfa -32 + ^ x23: .cfa -40 + ^ x24: .cfa -48 + ^ .ra: .cfa -56 + ^ x29: .cfa -64 + ^
STACK CFI 103a7c .cfa: sp 64 +
STACK CFI 103a8c .cfa: sp 0 +
STACK CFI 103a90 .cfa: x29 64 +
STACK CFI INIT 103b14 60 .cfa: sp 0 +
STACK CFI INIT 103b74 4c .cfa: sp 0 +
STACK CFI 103b78 .cfa: sp 32 +
STACK CFI 103b80 .cfa: x29 32 + x19: .cfa -16 + ^ .ra: .cfa -24 + ^ x29: .cfa -32 + ^
STACK CFI 103bb4 .cfa: sp 32 +
STACK CFI 103bbc .cfa: sp 0 +
STACK CFI INIT 103bc0 24c .cfa: sp 0 +
STACK CFI 103bc4 .cfa: sp 160 +
STACK CFI 103bdc .cfa: x29 80 + x19: .cfa -8 + ^ x20: .cfa -16 + ^ x21: .cfa -24 + ^ x22: .cfa -32 + ^ x23: .cfa -40 + ^ x24: .cfa -48 + ^ x25: .cfa -64 + ^ .ra: .cfa -72 + ^ x29: .cfa -80 + ^
STACK CFI 103dbc .cfa: sp 160 +
STACK CFI 103dd4 .cfa: sp 0 +
STACK CFI 103dd8 .cfa: x29 80 +
STACK CFI INIT 103e0c d8 .cfa: sp 0 +
STACK CFI 103e10 .cfa: sp 48 +
STACK CFI 103e1c .cfa: x29 48 + x19: .cfa -8 + ^ x20: .cfa -16 + ^ x21: .cfa -24 + ^ x22: .cfa -32 + ^ .ra: .cfa -40 + ^ x29: .cfa -48 + ^
STACK CFI 103eb0 .cfa: sp 48 +
STACK CFI 103ebc .cfa: sp 0 +
STACK CFI 103ec0 .cfa: x29 48 +
STACK CFI INIT 103ee4 1b0 .cfa: sp 0 +
STACK CFI 103ee8 .cfa: sp 64 +
STACK CFI 103ef8 .cfa: x29 64 + x19: .cfa -8 + ^ x20: .cfa -16 + ^ x21: .cfa -24 + ^ x22: .cfa -32 + ^ x23: .cfa -48 + ^ .ra: .cfa -56 + ^ x29: .cfa -64 + ^
STACK CFI 104030 .cfa: sp 64 +
STACK CFI 104040 .cfa: sp 0 +
STACK CFI 104044 .cfa: x29 64 +
STACK CFI 104080 .cfa: sp 64 +
STACK CFI 104090 .cfa: sp 0 +
STACK CFI INIT 104160 474 .cfa: sp 0 +
STACK CFI 104164 .cfa: sp 128 +
STACK CFI 104180 .cfa: x29 96 + x19: .cfa -8 + ^ x20: .cfa -16 + ^ x21: .cfa -24 + ^ x22: .cfa -32 + ^ x23: .cfa -40 + ^ x24: .cfa -48 + ^ x25: .cfa -56 + ^ x26: .cfa -64 + ^ x27: .cfa -72 + ^ x28: .cfa -80 + ^ .ra: .cfa -88 + ^ x29: .cfa -96 + ^
STACK CFI 104570 .cfa: sp 128 +
STACK CFI 10458c .cfa: sp 0 +
STACK CFI 104590 .cfa: x29 96 +
STACK CFI INIT 1045d4 504 .cfa: sp 0 +
STACK CFI 1045d8 .cfa: sp 208 +
STACK CFI 1045f8 .cfa: x29 96 + x19: .cfa -8 + ^ x20: .cfa -16 + ^ x21: .cfa -24 + ^ x22: .cfa -32 + ^ x23: .cfa -40 + ^ x24: .cfa -48 + ^ x25: .cfa -56 + ^ x26: .cfa -64 + ^ x27: .cfa -72 + ^ x28: .cfa -80 + ^ .ra: .cfa -88 + ^ x29: .cfa -96 + ^ v8: .cfa -112 + ^
STACK CFI 104ab0 .cfa: sp 208 +
STACK CFI 104ad0 .cfa: sp 0 +
STACK CFI 104ad4 .cfa: x29 96 +
STACK CFI INIT 104ad8 8 .cfa: sp 0 +
STACK CFI INIT 104ae0 1418 .cfa: sp 0 +
STACK CFI 104ae4 .cfa: sp 432 +
STACK CFI 104b10 .cfa: x29 96 + x19: .cfa -8 + ^ x20: .cfa -16 + ^ x21: .cfa -24 + ^ x22: .cfa -32 + ^ x23: .cfa -40 + ^ x24: .cfa -48 + ^ x25: .cfa -56 + ^ x26: .cfa -64 + ^ x27: .cfa -72 + ^ x28: .cfa -80 + ^ .ra: .cfa -88 + ^ x29: .cfa -96 + ^ v8: .cfa -104 + ^ v9: .cfa -112 + ^ v10: .cfa -120 + ^ v11: .cfa -128 + ^ v12: .cfa -136 + ^ v13: .cfa -144 + ^ v14: .cfa -152 + ^ v15: .cfa -160 + ^
STACK CFI 105c78 .cfa: sp 432 +
STACK CFI 105ca4 .cfa: sp 0 +
STACK CFI 105ca8 .cfa: x29 96 +
STACK CFI INIT 105ef8 678 .cfa: sp 0 +
STACK CFI 105efc .cfa: sp 176 +
STACK CFI 105f18 .cfa: x29 96 + x19: .cfa -8 + ^ x20: .cfa -16 + ^ x21: .cfa -24 + ^ x22: .cfa -32 + ^ x23: .cfa -40 + ^ x24: .cfa -48 + ^ x25: .cfa -56 + ^ x26: .cfa -64 + ^ x27: .cfa -72 + ^ x28: .cfa -80 + ^ .ra: .cfa -88 + ^ x29: .cfa -96 + ^
STACK CFI 10607c .cfa: sp 176 +
STACK CFI 106098 .cfa: sp 0 +
STACK CFI 10609c .cfa: x29 96 +
STACK CFI INIT 106570 8fc .cfa: sp 0 +
STACK CFI 106574 .cfa: sp 288 +
STACK CFI 1065a0 .cfa: x29 96 + x19: .cfa -8 + ^ x20: .cfa -16 + ^ x21: .cfa -24 + ^ x22: .cfa -32 + ^ x23: .cfa -40 + ^ x24: .cfa -48 + ^ x25: .cfa -56 + ^ x26: .cfa -64 + ^ x27: .cfa -72 + ^ x28: .cfa -80 + ^ .ra: .cfa -88 + ^ x29: .cfa -96 + ^ v8: .cfa -104 + ^ v9: .cfa -112 + ^ v10: .cfa -120 + ^ v11: .cfa -128 + ^ v12: .cfa -136 + ^ v13: .cfa -144 + ^ v14: .cfa -152 + ^ v15: .cfa -160 + ^
STACK CFI 106de4 .cfa: sp 288 +
STACK CFI 106e10 .cfa: sp 0 +
STACK CFI 106e14 .cfa: x29 96 +
STACK CFI INIT 106e6c 2a6c .cfa: sp 0 +
STACK CFI 106e70 .cfa: sp 160 +
STACK CFI 106e98 .cfa: x29 96 + x19: .cfa -8 + ^ x20: .cfa -16 + ^ x21: .cfa -24 + ^ x22: .cfa -32 + ^ x23: .cfa -40 + ^ x24: .cfa -48 + ^ x25: .cfa -56 + ^ x26: .cfa -64 + ^ x27: .cfa -72 + ^ x28: .cfa -80 + ^ .ra: .cfa -88 + ^ x29: .cfa -96 + ^ v8: .cfa -104 + ^ v9: .cfa -112 + ^ v10: .cfa -120 + ^ v11: .cfa -128 + ^ v12: .cfa -136 + ^ v13: .cfa -144 + ^ v14: .cfa -152 + ^ v15: .cfa -160 + ^
STACK CFI 106ee0 .cfa: sp 160 +
STACK CFI 106f08 .cfa: sp 0 +
STACK CFI 106f0c .cfa: x29 96 +
STACK CFI INIT 1098d8 84 .cfa: sp 0 +
STACK CFI 1098dc .cfa: sp 64 +
STACK CFI 1098e8 .cfa: x29 32 + x19: .cfa -8 + ^ x20: .cfa -16 + ^ .ra: .cfa -24 + ^ x29: .cfa -32 + ^
STACK CFI 109948 .cfa: sp 64 +
STACK CFI 109954 .cfa: sp 0 +
STACK CFI 109958 .cfa: x29 32 +
STACK CFI INIT 10995c 4e8 .cfa: sp 0 +
STACK CFI 109960 .cfa: sp 128 +
STACK CFI 109980 .cfa: x29 88 + x19: .cfa -8 + ^ x20: .cfa -16 + ^ x21: .cfa -24 + ^ x22: .cfa -32 + ^ x23: .cfa -40 + ^ x24: .cfa -48 + ^ x25: .cfa -56 + ^ x26: .cfa -64 + ^ x27: .cfa -72 + ^ .ra: .cfa -80 + ^ x29: .cfa -88 + ^ v8: .cfa -96 + ^
STACK CFI 109ae8 .cfa: sp 128 +
STACK CFI 109b08 .cfa: sp 0 +
STACK CFI 109b0c .cfa: x29 88 +
STACK CFI INIT 109e44 2d8 .cfa: sp 0 +
STACK CFI 109e48 .cfa: sp 144 +
STACK CFI 109e64 .cfa: x29 64 + x19: .cfa -8 + ^ x20: .cfa -16 + ^ x21: .cfa -24 + ^ x22: .cfa -32 + ^ x23: .cfa -40 + ^ x24: .cfa -48 + ^ .ra: .cfa -56 + ^ x29: .cfa -64 + ^ v8: .cfa -72 + ^ v9: .cfa -80 + ^ v10: .cfa -88 + ^ v11: .cfa -96 + ^
STACK CFI 10a0f8 .cfa: sp 144 +
STACK CFI 10a114 .cfa: sp 0 +
STACK CFI 10a118 .cfa: x29 64 +
STACK CFI INIT 10a11c 48 .cfa: sp 0 +
STACK CFI INIT 10a164 194 .cfa: sp 0 +
STACK CFI 10a168 .cfa: sp 352 +
STACK CFI 10a178 .cfa: x29 48 + x19: .cfa -8 + ^ x20: .cfa -16 + ^ x21: .cfa -24 + ^ x28: .cfa -32 + ^ .ra: .cfa -40 + ^ x29: .cfa -48 + ^
STACK CFI 10a204 .cfa: sp 352 +
STACK CFI 10a214 .cfa: sp 0 +
STACK CFI 10a218 .cfa: x29 48 +
STACK CFI INIT 10a2f8 164 .cfa: sp 0 +
STACK CFI 10a2fc .cfa: sp 128 +
STACK CFI 10a310 .cfa: x29 64 + x19: .cfa -8 + ^ x20: .cfa -16 + ^ x21: .cfa -24 + ^ x22: .cfa -32 + ^ x23: .cfa -48 + ^ .ra: .cfa -56 + ^ x29: .cfa -64 + ^
STACK CFI 10a354 .cfa: sp 128 +
STACK CFI 10a368 .cfa: sp 0 +
STACK CFI 10a36c .cfa: x29 64 +
STACK CFI INIT 10a45c 104 .cfa: sp 0 +
STACK CFI 10a460 .cfa: sp 352 +
STACK CFI 10a470 .cfa: x29 48 + x19: .cfa -8 + ^ x20: .cfa -16 + ^ x21: .cfa -24 + ^ x28: .cfa -32 + ^ .ra: .cfa -40 + ^ x29: .cfa -48 + ^
STACK CFI 10a504 .cfa: sp 352 +
STACK CFI 10a514 .cfa: sp 0 +
STACK CFI 10a518 .cfa: x29 48 +
STACK CFI INIT 10a560 d0 .cfa: sp 0 +
STACK CFI 10a564 .cfa: sp 128 +
STACK CFI 10a578 .cfa: x29 64 + x19: .cfa -8 + ^ x20: .cfa -16 + ^ x21: .cfa -24 + ^ x22: .cfa -32 + ^ x23: .cfa -48 + ^ .ra: .cfa -56 + ^ x29: .cfa -64 + ^
STACK CFI 10a5c0 .cfa: sp 128 +
STACK CFI 10a5d4 .cfa: sp 0 +
STACK CFI 10a5d8 .cfa: x29 64 +
STACK CFI INIT 10a630 f0 .cfa: sp 0 +
STACK CFI 10a65c .cfa: sp 32 +
STACK CFI 10a664 .cfa: x29 32 + x19: .cfa -8 + ^ x20: .cfa -16 + ^ .ra: .cfa -24 + ^ x29: .cfa -32 + ^
STACK CFI 10a714 .cfa: sp 32 +
STACK CFI 10a71c .cfa: sp 0 +
STACK CFI INIT 10a720 119c .cfa: sp 0 +
STACK CFI 10a724 .cfa: sp 336 +
STACK CFI 10a750 .cfa: x29 96 + x19: .cfa -8 + ^ x20: .cfa -16 + ^ x21: .cfa -24 + ^ x22: .cfa -32 + ^ x23: .cfa -40 + ^ x24: .cfa -48 + ^ x25: .cfa -56 + ^ x26: .cfa -64 + ^ x27: .cfa -72 + ^ x28: .cfa -80 + ^ .ra: .cfa -88 + ^ x29: .cfa -96 + ^ v8: .cfa -104 + ^ v9: .cfa -112 + ^ v10: .cfa -120 + ^ v11: .cfa -128 + ^ v12: .cfa -136 + ^ v13: .cfa -144 + ^ v14: .cfa -152 + ^ v15: .cfa -160 + ^
STACK CFI 10b3c8 .cfa: sp 336 +
STACK CFI 10b3f4 .cfa: sp 0 +
STACK CFI 10b3f8 .cfa: x29 96 +
STACK CFI INIT 10b8bc 154 .cfa: sp 0 +
STACK CFI 10b8c0 .cfa: sp 144 +
STACK CFI 10b8d0 .cfa: x29 48 + x19: .cfa -8 + ^ x20: .cfa -16 + ^ x21: .cfa -32 + ^ .ra: .cfa -40 + ^ x29: .cfa -48 + ^
STACK CFI 10b91c .cfa: sp 144 +
STACK CFI 10b92c .cfa: sp 0 +
STACK CFI 10b930 .cfa: x29 48 +
STACK CFI INIT 10ba10 c4 .cfa: sp 0 +
STACK CFI 10ba14 .cfa: sp 144 +
STACK CFI 10ba24 .cfa: x29 48 + x19: .cfa -8 + ^ x20: .cfa -16 + ^ x21: .cfa -32 + ^ .ra: .cfa -40 + ^ x29: .cfa -48 + ^
STACK CFI 10ba78 .cfa: sp 144 +
STACK CFI 10ba88 .cfa: sp 0 +
STACK CFI 10ba8c .cfa: x29 48 +
STACK CFI INIT 10bad4 fc .cfa: sp 0 +
STACK CFI 10bb00 .cfa: sp 48 +
STACK CFI 10bb0c .cfa: x29 48 + x19: .cfa -8 + ^ x20: .cfa -16 + ^ x21: .cfa -32 + ^ .ra: .cfa -40 + ^ x29: .cfa -48 + ^
STACK CFI 10bbc0 .cfa: sp 48 +
STACK CFI 10bbcc .cfa: sp 0 +
STACK CFI INIT 10bbd0 1a4 .cfa: sp 0 +
STACK CFI 10bbd4 .cfa: sp 368 +
STACK CFI 10bbe8 .cfa: x29 64 + x19: .cfa -8 + ^ x20: .cfa -16 + ^ x21: .cfa -24 + ^ x22: .cfa -32 + ^ x28: .cfa -48 + ^ .ra: .cfa -56 + ^ x29: .cfa -64 + ^
STACK CFI 10bc74 .cfa: sp 368 +
STACK CFI 10bc88 .cfa: sp 0 +
STACK CFI 10bc8c .cfa: x29 64 +
STACK CFI INIT 10bd74 114 .cfa: sp 0 +
STACK CFI 10bd78 .cfa: sp 368 +
STACK CFI 10bd8c .cfa: x29 64 + x19: .cfa -8 + ^ x20: .cfa -16 + ^ x21: .cfa -24 + ^ x22: .cfa -32 + ^ x28: .cfa -48 + ^ .ra: .cfa -56 + ^ x29: .cfa -64 + ^
STACK CFI 10be1c .cfa: sp 368 +
STACK CFI 10be30 .cfa: sp 0 +
STACK CFI 10be34 .cfa: x29 64 +
STACK CFI INIT 10be88 74 .cfa: sp 0 +
STACK CFI INIT 10befc 28 .cfa: sp 0 +
STACK CFI INIT 10bf24 178 .cfa: sp 0 +
STACK CFI 10bf2c .cfa: sp 48 +
STACK CFI 10bf38 .cfa: x29 48 + x19: .cfa -8 + ^ x20: .cfa -16 + ^ x21: .cfa -24 + ^ x22: .cfa -32 + ^ .ra: .cfa -40 + ^ x29: .cfa -48 + ^
STACK CFI 10bfb8 .cfa: sp 48 +
STACK CFI 10bfc4 .cfa: sp 0 +
STACK CFI 10bfd0 .cfa: x29 48 +
STACK CFI 10c08c .cfa: sp 48 +
STACK CFI 10c098 .cfa: sp 0 +
STACK CFI INIT 10c09c 260 .cfa: sp 0 +
STACK CFI 10c0a0 .cfa: sp 96 +
STACK CFI 10c0b8 .cfa: x29 96 + x19: .cfa -8 + ^ x20: .cfa -16 + ^ x21: .cfa -24 + ^ x22: .cfa -32 + ^ x23: .cfa -40 + ^ x24: .cfa -48 + ^ x25: .cfa -56 + ^ x26: .cfa -64 + ^ x27: .cfa -72 + ^ x28: .cfa -80 + ^ .ra: .cfa -88 + ^ x29: .cfa -96 + ^
STACK CFI 10c2e0 .cfa: sp 96 +
STACK CFI 10c2f8 .cfa: sp 0 +
STACK CFI INIT 10c2fc e8 .cfa: sp 0 +
STACK CFI 10c300 .cfa: sp 48 +
STACK CFI 10c30c .cfa: x29 48 + x19: .cfa -8 + ^ x20: .cfa -16 + ^ x21: .cfa -32 + ^ .ra: .cfa -40 + ^ x29: .cfa -48 + ^
STACK CFI 10c3d4 .cfa: sp 48 +
STACK CFI 10c3e0 .cfa: sp 0 +
STACK CFI INIT 10c3e4 4c .cfa: sp 0 +
STACK CFI INIT 10c430 d0 .cfa: sp 0 +
STACK CFI 10c434 .cfa: sp 48 +
STACK CFI 10c440 .cfa: x29 48 + x19: .cfa -8 + ^ x20: .cfa -16 + ^ x21: .cfa -32 + ^ .ra: .cfa -40 + ^ x29: .cfa -48 + ^
STACK CFI 10c4f0 .cfa: sp 48 +
STACK CFI 10c4fc .cfa: sp 0 +
STACK CFI INIT 10c500 110 .cfa: sp 0 +
STACK CFI 10c504 .cfa: sp 48 +
STACK CFI 10c510 .cfa: x29 48 + x19: .cfa -8 + ^ x20: .cfa -16 + ^ x21: .cfa -24 + ^ x22: .cfa -32 + ^ .ra: .cfa -40 + ^ x29: .cfa -48 + ^
STACK CFI 10c5c8 .cfa: sp 48 +
STACK CFI 10c5d4 .cfa: sp 0 +
STACK CFI 10c5d8 .cfa: x29 48 +
STACK CFI INIT 10c610 20 .cfa: sp 0 +
STACK CFI INIT 10c630 48 .cfa: sp 0 +
STACK CFI INIT 10c678 38 .cfa: sp 0 +
STACK CFI INIT 10c6b0 104 .cfa: sp 0 +
STACK CFI 10c6dc .cfa: sp 48 +
STACK CFI 10c6e8 .cfa: x29 48 + x19: .cfa -8 + ^ x20: .cfa -16 + ^ x21: .cfa -32 + ^ .ra: .cfa -40 + ^ x29: .cfa -48 + ^
STACK CFI 10c7a4 .cfa: sp 48 +
STACK CFI 10c7b0 .cfa: sp 0 +
STACK CFI INIT 10c7b4 2b4 .cfa: sp 0 +
STACK CFI 10c7b8 .cfa: sp 224 +
STACK CFI 10c7d8 .cfa: x29 96 + x19: .cfa -8 + ^ x20: .cfa -16 + ^ x21: .cfa -24 + ^ x22: .cfa -32 + ^ x23: .cfa -40 + ^ x24: .cfa -48 + ^ x25: .cfa -56 + ^ x26: .cfa -64 + ^ x27: .cfa -80 + ^ .ra: .cfa -88 + ^ x29: .cfa -96 + ^ v8: .cfa -104 + ^ v9: .cfa -112 + ^
STACK CFI 10ca44 .cfa: sp 224 +
STACK CFI 10ca64 .cfa: sp 0 +
STACK CFI INIT 10ca68 38 .cfa: sp 0 +
STACK CFI 10ca6c .cfa: sp 32 +
STACK CFI 10ca74 .cfa: x29 32 + x19: .cfa -16 + ^ .ra: .cfa -24 + ^ x29: .cfa -32 + ^
STACK CFI 10ca94 .cfa: sp 32 +
STACK CFI 10ca9c .cfa: sp 0 +
STACK CFI INIT 10caa0 5a4 .cfa: sp 0 +
STACK CFI 10caa4 .cfa: sp 144 +
STACK CFI 10cac0 .cfa: x29 96 + x19: .cfa -8 + ^ x20: .cfa -16 + ^ x21: .cfa -24 + ^ x22: .cfa -32 + ^ x23: .cfa -40 + ^ x24: .cfa -48 + ^ x25: .cfa -56 + ^ x26: .cfa -64 + ^ x27: .cfa -72 + ^ x28: .cfa -80 + ^ .ra: .cfa -88 + ^ x29: .cfa -96 + ^
STACK CFI 10d020 .cfa: sp 144 +
STACK CFI 10d03c .cfa: sp 0 +
STACK CFI 10d040 .cfa: x29 96 +
STACK CFI INIT 10d044 214 .cfa: sp 0 +
STACK CFI 10d048 .cfa: sp 96 +
STACK CFI 10d060 .cfa: x29 96 + x19: .cfa -8 + ^ x20: .cfa -16 + ^ x21: .cfa -24 + ^ x22: .cfa -32 + ^ x23: .cfa -40 + ^ x24: .cfa -48 + ^ x25: .cfa -56 + ^ x26: .cfa -64 + ^ x27: .cfa -80 + ^ .ra: .cfa -88 + ^ x29: .cfa -96 + ^
STACK CFI 10d20c .cfa: sp 96 +
STACK CFI 10d224 .cfa: sp 0 +
STACK CFI 10d228 .cfa: x29 96 +
STACK CFI INIT 10d258 118 .cfa: sp 0 +
STACK CFI 10d25c .cfa: sp 96 +
STACK CFI 10d274 .cfa: x29 96 + x19: .cfa -8 + ^ x20: .cfa -16 + ^ x21: .cfa -24 + ^ x22: .cfa -32 + ^ x23: .cfa -40 + ^ x24: .cfa -48 + ^ x25: .cfa -56 + ^ x26: .cfa -64 + ^ x27: .cfa -80 + ^ .ra: .cfa -88 + ^ x29: .cfa -96 + ^
STACK CFI 10d354 .cfa: sp 96 +
STACK CFI 10d36c .cfa: sp 0 +
STACK CFI INIT 10d370 104 .cfa: sp 0 +
STACK CFI 10d374 .cfa: sp 80 +
STACK CFI 10d388 .cfa: x29 80 + x19: .cfa -8 + ^ x20: .cfa -16 + ^ x21: .cfa -24 + ^ x22: .cfa -32 + ^ x23: .cfa -40 + ^ x24: .cfa -48 + ^ x25: .cfa -56 + ^ x26: .cfa -64 + ^ .ra: .cfa -72 + ^ x29: .cfa -80 + ^
STACK CFI 10d45c .cfa: sp 80 +
STACK CFI 10d470 .cfa: sp 0 +
STACK CFI INIT 10d474 58 .cfa: sp 0 +
STACK CFI 10d478 .cfa: sp 32 +
STACK CFI 10d480 .cfa: x29 32 + x19: .cfa -16 + ^ .ra: .cfa -24 + ^ x29: .cfa -32 + ^
STACK CFI 10d4c0 .cfa: sp 32 +
STACK CFI 10d4c8 .cfa: sp 0 +
STACK CFI INIT 10d4cc 33c .cfa: sp 0 +
STACK CFI 10d4d0 .cfa: sp 80 +
STACK CFI 10d4e4 .cfa: x29 80 + x19: .cfa -8 + ^ x20: .cfa -16 + ^ x21: .cfa -24 + ^ x22: .cfa -32 + ^ x23: .cfa -40 + ^ x24: .cfa -48 + ^ x25: .cfa -64 + ^ .ra: .cfa -72 + ^ x29: .cfa -80 + ^
STACK CFI 10d604 .cfa: sp 80 +
STACK CFI 10d618 .cfa: sp 0 +
STACK CFI 10d61c .cfa: x29 80 +
STACK CFI 10d6bc .cfa: sp 80 +
STACK CFI 10d6d0 .cfa: sp 0 +
STACK CFI 10d6d4 .cfa: x29 80 +
STACK CFI 10d794 .cfa: sp 80 +
STACK CFI 10d7a8 .cfa: sp 0 +
STACK CFI 10d7ac .cfa: x29 80 +
STACK CFI 10d7f0 .cfa: sp 80 +
STACK CFI 10d804 .cfa: sp 0 +
STACK CFI INIT 10d808 598 .cfa: sp 0 +
STACK CFI 10d80c .cfa: sp 208 +
STACK CFI 10d838 .cfa: x29 96 + x19: .cfa -8 + ^ x20: .cfa -16 + ^ x21: .cfa -24 + ^ x22: .cfa -32 + ^ x23: .cfa -40 + ^ x24: .cfa -48 + ^ x25: .cfa -56 + ^ x26: .cfa -64 + ^ x27: .cfa -72 + ^ x28: .cfa -80 + ^ .ra: .cfa -88 + ^ x29: .cfa -96 + ^ v8: .cfa -104 + ^ v9: .cfa -112 + ^ v10: .cfa -120 + ^ v11: .cfa -128 + ^ v12: .cfa -136 + ^ v13: .cfa -144 + ^ v14: .cfa -160 + ^
STACK CFI 10dd6c .cfa: sp 208 +
STACK CFI 10dd98 .cfa: sp 0 +
STACK CFI 10dd9c .cfa: x29 96 +
STACK CFI INIT 10ece8 3d8 .cfa: sp 0 +
STACK CFI 10ecec .cfa: sp 96 +
STACK CFI 10ed00 .cfa: x29 64 + x19: .cfa -8 + ^ x20: .cfa -16 + ^ x21: .cfa -24 + ^ x22: .cfa -32 + ^ x23: .cfa -40 + ^ x24: .cfa -48 + ^ .ra: .cfa -56 + ^ x29: .cfa -64 + ^
STACK CFI 10f0a4 .cfa: sp 96 +
STACK CFI 10f0b8 .cfa: sp 0 +
STACK CFI 10f0bc .cfa: x29 64 +
STACK CFI INIT 10f0c0 674 .cfa: sp 0 +
STACK CFI 10f0c4 .cfa: sp 176 +
STACK CFI 10f0e0 .cfa: x29 96 + x19: .cfa -8 + ^ x20: .cfa -16 + ^ x21: .cfa -24 + ^ x22: .cfa -32 + ^ x23: .cfa -40 + ^ x24: .cfa -48 + ^ x25: .cfa -56 + ^ x26: .cfa -64 + ^ x27: .cfa -72 + ^ x28: .cfa -80 + ^ .ra: .cfa -88 + ^ x29: .cfa -96 + ^
STACK CFI 10f58c .cfa: sp 176 +
STACK CFI 10f5a8 .cfa: sp 0 +
STACK CFI 10f5ac .cfa: x29 96 +
STACK CFI INIT 10f734 58 .cfa: sp 0 +
STACK CFI INIT 10f78c 54 .cfa: sp 0 +
STACK CFI INIT 10f7e0 2d4 .cfa: sp 0 +
STACK CFI 10f7e4 .cfa: sp 112 +
STACK CFI 10f800 .cfa: x29 96 + x19: .cfa -8 + ^ x20: .cfa -16 + ^ x21: .cfa -24 + ^ x22: .cfa -32 + ^ x23: .cfa -40 + ^ x24: .cfa -48 + ^ x25: .cfa -56 + ^ x26: .cfa -64 + ^ x27: .cfa -72 + ^ x28: .cfa -80 + ^ .ra: .cfa -88 + ^ x29: .cfa -96 + ^
STACK CFI 10fa90 .cfa: sp 112 +
STACK CFI 10faac .cfa: sp 0 +
STACK CFI 10fab0 .cfa: x29 96 +
STACK CFI INIT 10fab4 218 .cfa: sp 0 +
STACK CFI 10fab8 .cfa: sp 128 +
STACK CFI 10fad4 .cfa: x29 96 + x19: .cfa -8 + ^ x20: .cfa -16 + ^ x21: .cfa -24 + ^ x22: .cfa -32 + ^ x23: .cfa -40 + ^ x24: .cfa -48 + ^ x25: .cfa -56 + ^ x26: .cfa -64 + ^ x27: .cfa -80 + ^ .ra: .cfa -88 + ^ x29: .cfa -96 + ^
STACK CFI 10fc78 .cfa: sp 128 +
STACK CFI 10fc94 .cfa: sp 0 +
STACK CFI 10fc98 .cfa: x29 96 +
STACK CFI 10fca8 .cfa: sp 128 +
STACK CFI 10fcc4 .cfa: sp 0 +
STACK CFI 10fcc8 .cfa: x29 96 +
STACK CFI INIT 10fccc 24 .cfa: sp 0 +
STACK CFI INIT 10fcf0 1d4 .cfa: sp 0 +
STACK CFI 10fcf4 .cfa: sp 48 +
STACK CFI 10fd00 .cfa: x29 48 + x19: .cfa -8 + ^ x20: .cfa -16 + ^ x21: .cfa -24 + ^ x22: .cfa -32 + ^ .ra: .cfa -40 + ^ x29: .cfa -48 + ^
STACK CFI 10fd1c .cfa: sp 48 +
STACK CFI 10fd28 .cfa: sp 0 +
STACK CFI 10fd2c .cfa: x29 48 +
STACK CFI 10feb4 .cfa: sp 48 +
STACK CFI 10fec0 .cfa: sp 0 +
STACK CFI INIT 10fec4 44 .cfa: sp 0 +
STACK CFI INIT 10ff08 60 .cfa: sp 0 +
STACK CFI INIT 10ff68 104 .cfa: sp 0 +
STACK CFI 10ff6c .cfa: sp 64 +
STACK CFI 10ff7c .cfa: x29 64 + x19: .cfa -8 + ^ x20: .cfa -16 + ^ x21: .cfa -24 + ^ x22: .cfa -32 + ^ x23: .cfa -48 + ^ .ra: .cfa -56 + ^ x29: .cfa -64 + ^
STACK CFI 110010 .cfa: sp 64 +
STACK CFI 110020 .cfa: sp 0 +
STACK CFI 110024 .cfa: x29 64 +
STACK CFI 110058 .cfa: sp 64 +
STACK CFI 110068 .cfa: sp 0 +
STACK CFI INIT 11006c 18 .cfa: sp 0 +
STACK CFI INIT 110084 74 .cfa: sp 0 +
STACK CFI 110088 .cfa: sp 32 +
STACK CFI 110090 .cfa: x29 32 + x19: .cfa -8 + ^ x20: .cfa -16 + ^ .ra: .cfa -24 + ^ x29: .cfa -32 + ^
STACK CFI 1100b0 .cfa: sp 32 +
STACK CFI 1100b8 .cfa: sp 0 +
STACK CFI 1100bc .cfa: x29 32 +
STACK CFI 1100ec .cfa: sp 32 +
STACK CFI 1100f4 .cfa: sp 0 +
STACK CFI INIT 1100f8 bd8 .cfa: sp 0 +
STACK CFI 110104 .cfa: sp 112 +
STACK CFI 110120 .cfa: x29 96 + x19: .cfa -8 + ^ x20: .cfa -16 + ^ x21: .cfa -24 + ^ x22: .cfa -32 + ^ x23: .cfa -40 + ^ x24: .cfa -48 + ^ x25: .cfa -56 + ^ x26: .cfa -64 + ^ x27: .cfa -72 + ^ x28: .cfa -80 + ^ .ra: .cfa -88 + ^ x29: .cfa -96 + ^
STACK CFI 110cb0 .cfa: sp 112 +
STACK CFI 110ccc .cfa: sp 0 +
STACK CFI INIT 110cd0 8 .cfa: sp 0 +
STACK CFI INIT 110cd8 d8 .cfa: sp 0 +
STACK CFI 110ce4 .cfa: sp 64 +
STACK CFI 110cf4 .cfa: x29 64 + x19: .cfa -8 + ^ x20: .cfa -16 + ^ x21: .cfa -24 + ^ x22: .cfa -32 + ^ x23: .cfa -48 + ^ .ra: .cfa -56 + ^ x29: .cfa -64 + ^
STACK CFI 110d9c .cfa: sp 64 +
STACK CFI 110dac .cfa: sp 0 +
STACK CFI INIT 110db0 4d0 .cfa: sp 0 +
STACK CFI 110db4 .cfa: sp 192 +
STACK CFI 110ddc .cfa: x29 80 + x19: .cfa -8 + ^ x20: .cfa -16 + ^ x21: .cfa -24 + ^ x22: .cfa -32 + ^ x23: .cfa -40 + ^ x24: .cfa -48 + ^ x25: .cfa -64 + ^ .ra: .cfa -72 + ^ x29: .cfa -80 + ^ v8: .cfa -88 + ^ v9: .cfa -96 + ^ v10: .cfa -104 + ^ v11: .cfa -112 + ^ v12: .cfa -120 + ^ v13: .cfa -128 + ^ v14: .cfa -136 + ^ v15: .cfa -144 + ^
STACK CFI 111240 .cfa: sp 192 +
STACK CFI 111268 .cfa: sp 0 +
STACK CFI 11126c .cfa: x29 80 +
STACK CFI INIT 111280 14 .cfa: sp 0 +
STACK CFI 111284 .cfa: sp 16 +
STACK CFI 111288 .cfa: x29 16 + .ra: .cfa -8 + ^ x29: .cfa -16 + ^
STACK CFI 11128c .cfa: sp 16 +
STACK CFI 111290 .cfa: sp 0 +
STACK CFI INIT 111658 c68 .cfa: sp 0 +
STACK CFI 11165c .cfa: sp 368 +
STACK CFI 111688 .cfa: x29 96 + x19: .cfa -8 + ^ x20: .cfa -16 + ^ x21: .cfa -24 + ^ x22: .cfa -32 + ^ x23: .cfa -40 + ^ x24: .cfa -48 + ^ x25: .cfa -56 + ^ x26: .cfa -64 + ^ x27: .cfa -72 + ^ x28: .cfa -80 + ^ .ra: .cfa -88 + ^ x29: .cfa -96 + ^ v8: .cfa -104 + ^ v9: .cfa -112 + ^ v10: .cfa -120 + ^ v11: .cfa -128 + ^ v12: .cfa -136 + ^ v13: .cfa -144 + ^ v14: .cfa -152 + ^ v15: .cfa -160 + ^
STACK CFI 111a4c .cfa: sp 368 +
STACK CFI 111a78 .cfa: sp 0 +
STACK CFI 111a7c .cfa: x29 96 +
STACK CFI INIT 1122c0 74 .cfa: sp 0 +
STACK CFI 1122c4 .cfa: sp 64 +
STACK CFI 1122d0 .cfa: x29 32 + x19: .cfa -16 + ^ .ra: .cfa -24 + ^ x29: .cfa -32 + ^
STACK CFI 112320 .cfa: sp 64 +
STACK CFI 11232c .cfa: sp 0 +
STACK CFI 112330 .cfa: x29 32 +
STACK CFI INIT 112334 14 .cfa: sp 0 +
STACK CFI INIT 112348 68 .cfa: sp 0 +
STACK CFI 11234c .cfa: sp 48 +
STACK CFI 112358 .cfa: x29 32 + x19: .cfa -16 + ^ .ra: .cfa -24 + ^ x29: .cfa -32 + ^
STACK CFI 11239c .cfa: sp 48 +
STACK CFI 1123a8 .cfa: sp 0 +
STACK CFI 1123ac .cfa: x29 32 +
STACK CFI INIT 1123b0 74 .cfa: sp 0 +
STACK CFI 1123b4 .cfa: sp 64 +
STACK CFI 1123c0 .cfa: x29 32 + x19: .cfa -16 + ^ .ra: .cfa -24 + ^ x29: .cfa -32 + ^
STACK CFI 112410 .cfa: sp 64 +
STACK CFI 11241c .cfa: sp 0 +
STACK CFI 112420 .cfa: x29 32 +
STACK CFI INIT 112424 68 .cfa: sp 0 +
STACK CFI 112428 .cfa: sp 48 +
STACK CFI 112434 .cfa: x29 32 + x19: .cfa -16 + ^ .ra: .cfa -24 + ^ x29: .cfa -32 + ^
STACK CFI 112478 .cfa: sp 48 +
STACK CFI 112484 .cfa: sp 0 +
STACK CFI 112488 .cfa: x29 32 +
STACK CFI INIT 11248c 2c .cfa: sp 0 +
STACK CFI INIT 1124b8 14 .cfa: sp 0 +
STACK CFI INIT 1124cc 14 .cfa: sp 0 +
STACK CFI INIT 1124e0 b0 .cfa: sp 0 +
STACK CFI 1124e4 .cfa: sp 128 +
STACK CFI 1124f4 .cfa: x29 32 + x19: .cfa -8 + ^ x20: .cfa -16 + ^ .ra: .cfa -24 + ^ x29: .cfa -32 + ^ v8: .cfa -48 + ^
STACK CFI 112544 .cfa: sp 128 +
STACK CFI 112554 .cfa: sp 0 +
STACK CFI 112558 .cfa: x29 32 +
STACK CFI 112578 .cfa: sp 128 +
STACK CFI 112588 .cfa: sp 0 +
STACK CFI 11258c .cfa: x29 32 +
STACK CFI INIT 112590 80 .cfa: sp 0 +
STACK CFI INIT 112610 b8 .cfa: sp 0 +
STACK CFI INIT 1126c8 9c .cfa: sp 0 +
STACK CFI INIT 112764 1fc .cfa: sp 0 +
STACK CFI 112768 .cfa: sp 112 +
STACK CFI 112780 .cfa: x29 64 + x19: .cfa -8 + ^ x20: .cfa -16 + ^ x21: .cfa -24 + ^ x22: .cfa -32 + ^ x23: .cfa -48 + ^ .ra: .cfa -56 + ^ x29: .cfa -64 + ^ v8: .cfa -72 + ^ v9: .cfa -80 + ^
STACK CFI 1127c8 .cfa: sp 112 +
STACK CFI 1127e0 .cfa: sp 0 +
STACK CFI 1127e4 .cfa: x29 64 +
STACK CFI INIT 112960 1f0 .cfa: sp 0 +
STACK CFI 112964 .cfa: sp 64 +
STACK CFI 112974 .cfa: x29 64 + x19: .cfa -8 + ^ x20: .cfa -16 + ^ x21: .cfa -24 + ^ x22: .cfa -32 + ^ x23: .cfa -40 + ^ x24: .cfa -48 + ^ .ra: .cfa -56 + ^ x29: .cfa -64 + ^
STACK CFI 112994 .cfa: sp 64 +
STACK CFI 1129a4 .cfa: sp 0 +
STACK CFI 1129a8 .cfa: x29 64 +
STACK CFI 112b3c .cfa: sp 64 +
STACK CFI 112b4c .cfa: sp 0 +
STACK CFI INIT 112b50 474 .cfa: sp 0 +
STACK CFI 112b54 .cfa: sp 144 +
STACK CFI 112b70 .cfa: x29 80 + x19: .cfa -8 + ^ x20: .cfa -16 + ^ x21: .cfa -24 + ^ x22: .cfa -32 + ^ x23: .cfa -40 + ^ x24: .cfa -48 + ^ x25: .cfa -56 + ^ x26: .cfa -64 + ^ .ra: .cfa -72 + ^ x29: .cfa -80 + ^ v8: .cfa -96 + ^
STACK CFI 112fa0 .cfa: sp 144 +
STACK CFI 112fbc .cfa: sp 0 +
STACK CFI 112fc0 .cfa: x29 80 +
STACK CFI INIT 112fc4 11c .cfa: sp 0 +
STACK CFI 112fc8 .cfa: sp 48 +
STACK CFI 112fd4 .cfa: x29 48 + x19: .cfa -8 + ^ x20: .cfa -16 + ^ x21: .cfa -24 + ^ x22: .cfa -32 + ^ .ra: .cfa -40 + ^ x29: .cfa -48 + ^
STACK CFI 1130b8 .cfa: sp 48 +
STACK CFI 1130c4 .cfa: sp 0 +
STACK CFI 1130c8 .cfa: x29 48 +
STACK CFI 1130d0 .cfa: sp 48 +
STACK CFI 1130dc .cfa: sp 0 +
STACK CFI INIT 1130e0 e0 .cfa: sp 0 +
STACK CFI 1130e4 .cfa: sp 16 +
STACK CFI 1130e8 .cfa: x29 16 + .ra: .cfa -8 + ^ x29: .cfa -16 + ^
STACK CFI 113108 .cfa: sp 16 +
STACK CFI 11310c .cfa: sp 0 +
STACK CFI 113110 .cfa: x29 16 +
STACK CFI 1131b8 .cfa: sp 16 +
STACK CFI 1131bc .cfa: sp 0 +
STACK CFI INIT 1131c0 1174 .cfa: sp 0 +
STACK CFI 1131c4 .cfa: sp 320 +
STACK CFI 1131f0 .cfa: x29 96 + x19: .cfa -8 + ^ x20: .cfa -16 + ^ x21: .cfa -24 + ^ x22: .cfa -32 + ^ x23: .cfa -40 + ^ x24: .cfa -48 + ^ x25: .cfa -56 + ^ x26: .cfa -64 + ^ x27: .cfa -72 + ^ x28: .cfa -80 + ^ .ra: .cfa -88 + ^ x29: .cfa -96 + ^ v8: .cfa -104 + ^ v9: .cfa -112 + ^ v10: .cfa -120 + ^ v11: .cfa -128 + ^ v12: .cfa -136 + ^ v13: .cfa -144 + ^ v14: .cfa -152 + ^ v15: .cfa -160 + ^
STACK CFI 113390 .cfa: sp 320 +
STACK CFI 1133bc .cfa: sp 0 +
STACK CFI 1133c0 .cfa: x29 96 +
STACK CFI 1142ac .cfa: sp 320 +
STACK CFI 1142d8 .cfa: sp 0 +
STACK CFI 1142dc .cfa: x29 96 +
STACK CFI INIT 114334 c .cfa: sp 0 +
STACK CFI INIT 114340 fc .cfa: sp 0 +
STACK CFI 114344 .cfa: sp 32 +
STACK CFI 11434c .cfa: x29 32 + x19: .cfa -16 + ^ .ra: .cfa -24 + ^ x29: .cfa -32 + ^
STACK CFI 1143a8 .cfa: sp 32 +
STACK CFI 1143b0 .cfa: sp 0 +
STACK CFI 1143b4 .cfa: x29 32 +
STACK CFI INIT 11443c 950 .cfa: sp 0 +
STACK CFI 114440 .cfa: sp 208 +
STACK CFI 11446c .cfa: x29 96 + x19: .cfa -8 + ^ x20: .cfa -16 + ^ x21: .cfa -24 + ^ x22: .cfa -32 + ^ x23: .cfa -40 + ^ x24: .cfa -48 + ^ x25: .cfa -56 + ^ x26: .cfa -64 + ^ x27: .cfa -72 + ^ x28: .cfa -80 + ^ .ra: .cfa -88 + ^ x29: .cfa -96 + ^ v8: .cfa -104 + ^ v9: .cfa -112 + ^ v10: .cfa -120 + ^ v11: .cfa -128 + ^ v12: .cfa -136 + ^ v13: .cfa -144 + ^ v14: .cfa -160 + ^
STACK CFI 114d44 .cfa: sp 208 +
STACK CFI 114d70 .cfa: sp 0 +
STACK CFI 114d74 .cfa: x29 96 +
STACK CFI INIT 114d8c 74 .cfa: sp 0 +
STACK CFI 114d90 .cfa: sp 32 +
STACK CFI 114d98 .cfa: x29 32 + x19: .cfa -16 + ^ .ra: .cfa -24 + ^ x29: .cfa -32 + ^
STACK CFI 114dcc .cfa: sp 32 +
STACK CFI 114dd4 .cfa: sp 0 +
STACK CFI 114dd8 .cfa: x29 32 +
STACK CFI 114de4 .cfa: sp 32 +
STACK CFI 114dec .cfa: sp 0 +
STACK CFI 114df0 .cfa: x29 32 +
STACK CFI 114df4 .cfa: sp 32 +
STACK CFI 114dfc .cfa: sp 0 +
STACK CFI INIT 114e00 2c .cfa: sp 0 +
STACK CFI INIT 114e2c 1cc .cfa: sp 0 +
STACK CFI 114e30 .cfa: sp 96 +
STACK CFI 114e44 .cfa: x29 64 + x19: .cfa -8 + ^ x20: .cfa -16 + ^ x21: .cfa -24 + ^ x22: .cfa -32 + ^ x23: .cfa -48 + ^ .ra: .cfa -56 + ^ x29: .cfa -64 + ^
STACK CFI 114e80 .cfa: sp 96 +
STACK CFI 114e94 .cfa: sp 0 +
STACK CFI 114e98 .cfa: x29 64 +
STACK CFI INIT 114ff8 5f8 .cfa: sp 0 +
STACK CFI 114ffc .cfa: sp 128 +
STACK CFI 11501c .cfa: x29 96 + x19: .cfa -8 + ^ x20: .cfa -16 + ^ x21: .cfa -24 + ^ x22: .cfa -32 + ^ x23: .cfa -40 + ^ x24: .cfa -48 + ^ x25: .cfa -56 + ^ x26: .cfa -64 + ^ x27: .cfa -72 + ^ x28: .cfa -80 + ^ .ra: .cfa -88 + ^ x29: .cfa -96 + ^ v8: .cfa -104 + ^ v9: .cfa -112 + ^
STACK CFI 1155cc .cfa: sp 128 +
STACK CFI 1155ec .cfa: sp 0 +
STACK CFI INIT 1155f0 10 .cfa: sp 0 +
STACK CFI INIT 115600 18c .cfa: sp 0 +
STACK CFI 115604 .cfa: sp 64 +
STACK CFI 115614 .cfa: x29 64 + x19: .cfa -8 + ^ x20: .cfa -16 + ^ x21: .cfa -24 + ^ x22: .cfa -32 + ^ x23: .cfa -48 + ^ .ra: .cfa -56 + ^ x29: .cfa -64 + ^
STACK CFI 11562c .cfa: sp 64 +
STACK CFI 11563c .cfa: sp 0 +
STACK CFI 115640 .cfa: x29 64 +
STACK CFI 1156d0 .cfa: sp 64 +
STACK CFI 1156e0 .cfa: sp 0 +
STACK CFI 1156e4 .cfa: x29 64 +
STACK CFI 11570c .cfa: sp 64 +
STACK CFI 11571c .cfa: sp 0 +
STACK CFI 115720 .cfa: x29 64 +
STACK CFI 115778 .cfa: sp 64 +
STACK CFI 115788 .cfa: sp 0 +
STACK CFI INIT 11578c 1a5c .cfa: sp 0 +
STACK CFI 115790 .cfa: sp 368 +
STACK CFI 1157bc .cfa: x29 96 + x19: .cfa -8 + ^ x20: .cfa -16 + ^ x21: .cfa -24 + ^ x22: .cfa -32 + ^ x23: .cfa -40 + ^ x24: .cfa -48 + ^ x25: .cfa -56 + ^ x26: .cfa -64 + ^ x27: .cfa -72 + ^ x28: .cfa -80 + ^ .ra: .cfa -88 + ^ x29: .cfa -96 + ^ v8: .cfa -104 + ^ v9: .cfa -112 + ^ v10: .cfa -120 + ^ v11: .cfa -128 + ^ v12: .cfa -136 + ^ v13: .cfa -144 + ^ v14: .cfa -152 + ^ v15: .cfa -160 + ^
STACK CFI 116fec .cfa: sp 368 +
STACK CFI 117018 .cfa: sp 0 +
STACK CFI 11701c .cfa: x29 96 +
STACK CFI INIT 1171e8 34 .cfa: sp 0 +
STACK CFI INIT 11721c 2c .cfa: sp 0 +
STACK CFI INIT 117248 58 .cfa: sp 0 +
STACK CFI INIT 1172a0 34 .cfa: sp 0 +
STACK CFI INIT 1172d4 34 .cfa: sp 0 +
STACK CFI INIT 117308 2d4 .cfa: sp 0 +
STACK CFI 11730c .cfa: sp 128 +
STACK CFI 117328 .cfa: x29 96 + x19: .cfa -8 + ^ x20: .cfa -16 + ^ x21: .cfa -24 + ^ x22: .cfa -32 + ^ x23: .cfa -40 + ^ x24: .cfa -48 + ^ x25: .cfa -56 + ^ x26: .cfa -64 + ^ x27: .cfa -72 + ^ x28: .cfa -80 + ^ .ra: .cfa -88 + ^ x29: .cfa -96 + ^
STACK CFI 1175b8 .cfa: sp 128 +
STACK CFI 1175d4 .cfa: sp 0 +
STACK CFI 1175d8 .cfa: x29 96 +
STACK CFI INIT 1175dc dc .cfa: sp 0 +
STACK CFI 1175e0 .cfa: sp 32 +
STACK CFI 1175e8 .cfa: x29 32 + x19: .cfa -8 + ^ x20: .cfa -16 + ^ .ra: .cfa -24 + ^ x29: .cfa -32 + ^
STACK CFI 117648 .cfa: sp 32 +
STACK CFI 117650 .cfa: sp 0 +
STACK CFI 117654 .cfa: x29 32 +
STACK CFI 1176ac .cfa: sp 32 +
STACK CFI 1176b4 .cfa: sp 0 +
STACK CFI INIT 1176b8 54 .cfa: sp 0 +
STACK CFI INIT 11770c c .cfa: sp 0 +
STACK CFI INIT 117718 10 .cfa: sp 0 +
STACK CFI INIT 117728 120 .cfa: sp 0 +
STACK CFI INIT 117848 168 .cfa: sp 0 +
STACK CFI 11784c .cfa: sp 112 +
STACK CFI 11785c .cfa: x29 48 + x19: .cfa -8 + ^ x20: .cfa -16 + ^ x21: .cfa -32 + ^ .ra: .cfa -40 + ^ x29: .cfa -48 + ^
STACK CFI 1178f8 .cfa: sp 112 +
STACK CFI 117908 .cfa: sp 0 +
STACK CFI 11790c .cfa: x29 48 +
STACK CFI INIT 1179b0 138 .cfa: sp 0 +
STACK CFI 1179b4 .cfa: sp 48 +
STACK CFI 1179c0 .cfa: x29 48 + x19: .cfa -8 + ^ x20: .cfa -16 + ^ x21: .cfa -32 + ^ .ra: .cfa -40 + ^ x29: .cfa -48 + ^
STACK CFI 1179e0 .cfa: sp 48 +
STACK CFI 1179ec .cfa: sp 0 +
STACK CFI 1179f0 .cfa: x29 48 +
STACK CFI 117ac4 .cfa: sp 48 +
STACK CFI 117ad0 .cfa: sp 0 +
STACK CFI 117ad4 .cfa: x29 48 +
STACK CFI 117ad8 .cfa: sp 48 +
STACK CFI 117ae4 .cfa: sp 0 +
STACK CFI INIT 117ae8 11f4 .cfa: sp 0 +
STACK CFI 117aec .cfa: sp 336 +
STACK CFI 117b0c .cfa: x29 96 + x19: .cfa -8 + ^ x20: .cfa -16 + ^ x21: .cfa -24 + ^ x22: .cfa -32 + ^ x23: .cfa -40 + ^ x24: .cfa -48 + ^ x25: .cfa -56 + ^ x26: .cfa -64 + ^ x27: .cfa -72 + ^ x28: .cfa -80 + ^ .ra: .cfa -88 + ^ x29: .cfa -96 + ^ v8: .cfa -104 + ^ v9: .cfa -112 + ^
STACK CFI 117ba4 .cfa: sp 336 +
STACK CFI 117bc4 .cfa: sp 0 +
STACK CFI 117bc8 .cfa: x29 96 +
STACK CFI INIT 118cdc 50 .cfa: sp 0 +
STACK CFI INIT 118d2c 40 .cfa: sp 0 +
STACK CFI INIT 118d6c 12c .cfa: sp 0 +
STACK CFI 118d70 .cfa: sp 48 +
STACK CFI 118d7c .cfa: x29 48 + x19: .cfa -8 + ^ x20: .cfa -16 + ^ x21: .cfa -32 + ^ .ra: .cfa -40 + ^ x29: .cfa -48 + ^
STACK CFI 118e70 .cfa: sp 48 +
STACK CFI 118e7c .cfa: sp 0 +
STACK CFI 118e80 .cfa: x29 48 +
STACK CFI INIT 118e98 9b0 .cfa: sp 0 +
STACK CFI 118e9c .cfa: sp 144 +
STACK CFI 118ec0 .cfa: x29 96 + x19: .cfa -8 + ^ x20: .cfa -16 + ^ x21: .cfa -24 + ^ x22: .cfa -32 + ^ x23: .cfa -40 + ^ x24: .cfa -48 + ^ x25: .cfa -56 + ^ x26: .cfa -64 + ^ x27: .cfa -72 + ^ x28: .cfa -80 + ^ .ra: .cfa -88 + ^ x29: .cfa -96 + ^ v8: .cfa -104 + ^ v9: .cfa -112 + ^ v10: .cfa -120 + ^ v11: .cfa -128 + ^
STACK CFI 11981c .cfa: sp 144 +
STACK CFI 119840 .cfa: sp 0 +
STACK CFI 119844 .cfa: x29 96 +
STACK CFI INIT 119848 494 .cfa: sp 0 +
STACK CFI 11984c .cfa: sp 272 +
STACK CFI 119870 .cfa: x29 96 + x19: .cfa -8 + ^ x20: .cfa -16 + ^ x21: .cfa -24 + ^ x22: .cfa -32 + ^ x23: .cfa -40 + ^ x24: .cfa -48 + ^ x25: .cfa -56 + ^ x26: .cfa -64 + ^ x27: .cfa -72 + ^ x28: .cfa -80 + ^ .ra: .cfa -88 + ^ x29: .cfa -96 + ^ v8: .cfa -104 + ^ v9: .cfa -112 + ^ v10: .cfa -128 + ^
STACK CFI 119cb0 .cfa: sp 272 +
STACK CFI 119cd4 .cfa: sp 0 +
STACK CFI 119cd8 .cfa: x29 96 +
STACK CFI INIT 119cdc 2fc .cfa: sp 0 +
STACK CFI 119ce0 .cfa: sp 48 +
STACK CFI 119cec .cfa: x29 48 + x19: .cfa -8 + ^ x20: .cfa -16 + ^ x21: .cfa -32 + ^ .ra: .cfa -40 + ^ x29: .cfa -48 + ^
STACK CFI 119dec .cfa: sp 48 +
STACK CFI 119df8 .cfa: sp 0 +
STACK CFI 119dfc .cfa: x29 48 +
STACK CFI 119ef0 .cfa: sp 48 +
STACK CFI 119efc .cfa: sp 0 +
STACK CFI 119f00 .cfa: x29 48 +
STACK CFI 119fa4 .cfa: sp 48 +
STACK CFI 119fb0 .cfa: sp 0 +
STACK CFI 119fb4 .cfa: x29 48 +
STACK CFI INIT 119fd8 14c .cfa: sp 0 +
STACK CFI 119fdc .cfa: sp 48 +
STACK CFI 119fe8 .cfa: x29 48 + x19: .cfa -8 + ^ x20: .cfa -16 + ^ x21: .cfa -32 + ^ .ra: .cfa -40 + ^ x29: .cfa -48 + ^
STACK CFI 11a0fc .cfa: sp 48 +
STACK CFI 11a108 .cfa: sp 0 +
STACK CFI 11a10c .cfa: x29 48 +
STACK CFI INIT 11a124 7c .cfa: sp 0 +
STACK CFI INIT 11a1a0 31c .cfa: sp 0 +
STACK CFI 11a1a4 .cfa: sp 96 +
STACK CFI 11a1bc .cfa: x29 96 + x19: .cfa -8 + ^ x20: .cfa -16 + ^ x21: .cfa -24 + ^ x22: .cfa -32 + ^ x23: .cfa -40 + ^ x24: .cfa -48 + ^ x25: .cfa -56 + ^ x26: .cfa -64 + ^ x27: .cfa -72 + ^ x28: .cfa -80 + ^ .ra: .cfa -88 + ^ x29: .cfa -96 + ^
STACK CFI 11a4a0 .cfa: sp 96 +
STACK CFI 11a4b8 .cfa: sp 0 +
STACK CFI INIT 11a4bc 3d0 .cfa: sp 0 +
STACK CFI 11a4c0 .cfa: sp 64 +
STACK CFI 11a4d0 .cfa: x29 64 + x19: .cfa -8 + ^ x20: .cfa -16 + ^ x21: .cfa -24 + ^ x22: .cfa -32 + ^ x23: .cfa -48 + ^ .ra: .cfa -56 + ^ x29: .cfa -64 + ^
STACK CFI 11a524 .cfa: sp 64 +
STACK CFI 11a534 .cfa: sp 0 +
STACK CFI 11a538 .cfa: x29 64 +
STACK CFI 11a788 .cfa: sp 64 +
STACK CFI 11a798 .cfa: sp 0 +
STACK CFI 11a79c .cfa: x29 64 +
STACK CFI 11a808 .cfa: sp 64 +
STACK CFI 11a818 .cfa: sp 0 +
STACK CFI 11a81c .cfa: x29 64 +
STACK CFI INIT 11a88c ec .cfa: sp 0 +
STACK CFI 11a890 .cfa: sp 80 +
STACK CFI 11a8a4 .cfa: x29 80 + x19: .cfa -8 + ^ x20: .cfa -16 + ^ x21: .cfa -24 + ^ x22: .cfa -32 + ^ x23: .cfa -40 + ^ x24: .cfa -48 + ^ x25: .cfa -64 + ^ .ra: .cfa -72 + ^ x29: .cfa -80 + ^
STACK CFI 11a960 .cfa: sp 80 +
STACK CFI 11a974 .cfa: sp 0 +
STACK CFI INIT 11a978 19c .cfa: sp 0 +
STACK CFI 11a97c .cfa: sp 80 +
STACK CFI 11a990 .cfa: x29 80 + x19: .cfa -8 + ^ x20: .cfa -16 + ^ x21: .cfa -24 + ^ x22: .cfa -32 + ^ x23: .cfa -40 + ^ x24: .cfa -48 + ^ x25: .cfa -64 + ^ .ra: .cfa -72 + ^ x29: .cfa -80 + ^
STACK CFI 11aafc .cfa: sp 80 +
STACK CFI 11ab10 .cfa: sp 0 +
STACK CFI INIT 11ab14 2ec .cfa: sp 0 +
STACK CFI INIT 11ae00 d4 .cfa: sp 0 +
STACK CFI 11ae04 .cfa: sp 48 +
STACK CFI 11ae10 .cfa: x29 48 + x19: .cfa -8 + ^ x20: .cfa -16 + ^ x21: .cfa -32 + ^ .ra: .cfa -40 + ^ x29: .cfa -48 + ^
STACK CFI 11aec4 .cfa: sp 48 +
STACK CFI 11aed0 .cfa: sp 0 +
STACK CFI INIT 11aed4 204 .cfa: sp 0 +
STACK CFI 11aed8 .cfa: sp 80 +
STACK CFI 11aeec .cfa: x29 80 + x19: .cfa -8 + ^ x20: .cfa -16 + ^ x21: .cfa -24 + ^ x22: .cfa -32 + ^ x23: .cfa -40 + ^ x24: .cfa -48 + ^ x25: .cfa -64 + ^ .ra: .cfa -72 + ^ x29: .cfa -80 + ^
STACK CFI 11afa8 .cfa: sp 80 +
STACK CFI 11afbc .cfa: sp 0 +
STACK CFI 11afc0 .cfa: x29 80 +
STACK CFI 11b09c .cfa: sp 80 +
STACK CFI 11b0b0 .cfa: sp 0 +
STACK CFI 11b0b4 .cfa: x29 80 +
STACK CFI 11b0c0 .cfa: sp 80 +
STACK CFI 11b0d4 .cfa: sp 0 +
STACK CFI INIT 11b0d8 58 .cfa: sp 0 +
STACK CFI INIT 11b130 1b4 .cfa: sp 0 +
STACK CFI INIT 11b2e4 8 .cfa: sp 0 +
STACK CFI INIT 11b2ec 48 .cfa: sp 0 +
STACK CFI INIT 11b334 1d4 .cfa: sp 0 +
STACK CFI 11b364 .cfa: sp 64 +
STACK CFI 11b374 .cfa: x29 32 + x19: .cfa -8 + ^ x20: .cfa -16 + ^ .ra: .cfa -24 + ^ x29: .cfa -32 + ^ v8: .cfa -40 + ^ v9: .cfa -48 + ^ v10: .cfa -64 + ^
STACK CFI 11b40c .cfa: sp 0 + x19: x19 x20: x20 .ra: x30 x29: x29 v8: v8 v9: v9 v10: v10
STACK CFI 11b424 .cfa: x29 32 + x19: .cfa -8 + ^ x20: .cfa -16 + ^ .ra: .cfa -24 + ^ x29: .cfa -32 + ^ v8: .cfa -40 + ^ v9: .cfa -48 + ^ v10: .cfa -64 + ^
STACK CFI 11b4f4 .cfa: sp 64 +
STACK CFI 11b504 .cfa: sp 0 +
STACK CFI INIT 11b508 1c8 .cfa: sp 0 +
STACK CFI 11b52c .cfa: sp 32 +
STACK CFI 11b534 .cfa: x29 16 + .ra: .cfa -8 + ^ x29: .cfa -16 + ^ v8: .cfa -24 + ^ v9: .cfa -32 + ^
STACK CFI 11b5b0 .cfa: sp 32 +
STACK CFI 11b5b8 .cfa: sp 0 +
STACK CFI 11b600 .cfa: x29 16 +
STACK CFI 11b65c .cfa: sp 32 +
STACK CFI 11b664 .cfa: sp 0 +
STACK CFI 11b668 .cfa: x29 16 +
STACK CFI 11b680 .cfa: sp 32 +
STACK CFI 11b688 .cfa: sp 0 +
STACK CFI 11b68c .cfa: x29 16 +
STACK CFI 11b690 .cfa: sp 32 +
STACK CFI 11b698 .cfa: sp 0 +
STACK CFI 11b69c .cfa: x29 16 +
STACK CFI 11b6c4 .cfa: sp 32 +
STACK CFI 11b6cc .cfa: sp 0 +
STACK CFI INIT 11b6d0 208 .cfa: sp 0 +
STACK CFI 11b700 .cfa: sp 64 +
STACK CFI 11b710 .cfa: x29 32 + x19: .cfa -8 + ^ x20: .cfa -16 + ^ .ra: .cfa -24 + ^ x29: .cfa -32 + ^ v8: .cfa -40 + ^ v9: .cfa -48 + ^ v10: .cfa -56 + ^ v11: .cfa -64 + ^
STACK CFI 11b754 .cfa: sp 0 + x19: x19 x20: x20 .ra: x30 x29: x29 v8: v8 v9: v9 v10: v10 v11: v11
STACK CFI 11b770 .cfa: x29 32 + x19: .cfa -8 + ^ x20: .cfa -16 + ^ .ra: .cfa -24 + ^ x29: .cfa -32 + ^ v8: .cfa -40 + ^ v9: .cfa -48 + ^ v10: .cfa -56 + ^ v11: .cfa -64 + ^
STACK CFI 11b8c4 .cfa: sp 64 +
STACK CFI 11b8d4 .cfa: sp 0 +
STACK CFI INIT 11b8d8 1f8 .cfa: sp 0 +
STACK CFI 11b8fc .cfa: sp 48 +
STACK CFI 11b908 .cfa: x29 16 + .ra: .cfa -8 + ^ x29: .cfa -16 + ^ v8: .cfa -24 + ^ v9: .cfa -32 + ^ v10: .cfa -48 + ^
STACK CFI 11b994 .cfa: sp 48 +
STACK CFI 11b9a0 .cfa: sp 0 +
STACK CFI 11b9ec .cfa: x29 16 +
STACK CFI 11ba4c .cfa: sp 48 +
STACK CFI 11ba58 .cfa: sp 0 +
STACK CFI 11ba5c .cfa: x29 16 +
STACK CFI 11ba78 .cfa: sp 48 +
STACK CFI 11ba84 .cfa: sp 0 +
STACK CFI 11ba88 .cfa: x29 16 +
STACK CFI 11ba8c .cfa: sp 48 +
STACK CFI 11ba98 .cfa: sp 0 +
STACK CFI 11ba9c .cfa: x29 16 +
STACK CFI 11bac0 .cfa: sp 48 +
STACK CFI 11bacc .cfa: sp 0 +
STACK CFI INIT 11bad0 1e8 .cfa: sp 0 +
STACK CFI 11bb04 .cfa: sp 64 +
STACK CFI 11bb14 .cfa: x29 16 + .ra: .cfa -8 + ^ x29: .cfa -16 + ^ v8: .cfa -24 + ^ v9: .cfa -32 + ^ v10: .cfa -40 + ^ v11: .cfa -48 + ^ v12: .cfa -64 + ^
STACK CFI 11bbe8 .cfa: sp 0 + .ra: x30 x29: x29 v8: v8 v9: v9 v10: v10 v11: v11 v12: v12
STACK CFI 11bbfc .cfa: x29 16 + .ra: .cfa -8 + ^ x29: .cfa -16 + ^ v8: .cfa -24 + ^ v9: .cfa -32 + ^ v10: .cfa -40 + ^ v11: .cfa -48 + ^ v12: .cfa -64 + ^
STACK CFI 11bca4 .cfa: sp 64 +
STACK CFI 11bcb4 .cfa: sp 0 +
STACK CFI INIT 11bcb8 194 .cfa: sp 0 +
STACK CFI 11bcbc .cfa: sp 32 +
STACK CFI 11bcc4 .cfa: x29 16 + .ra: .cfa -8 + ^ x29: .cfa -16 + ^ v8: .cfa -24 + ^ v9: .cfa -32 + ^
STACK CFI 11bd94 .cfa: sp 32 +
STACK CFI 11bd9c .cfa: sp 0 +
STACK CFI 11bda0 .cfa: x29 16 +
STACK CFI 11bda4 .cfa: sp 32 +
STACK CFI 11bdac .cfa: sp 0 +
STACK CFI 11bdb0 .cfa: x29 16 +
STACK CFI 11bdb4 .cfa: sp 32 +
STACK CFI 11bdbc .cfa: sp 0 +
STACK CFI 11bdc0 .cfa: x29 16 +
STACK CFI 11bdc8 .cfa: sp 32 +
STACK CFI 11bdd0 .cfa: sp 0 +
STACK CFI 11bdd4 .cfa: x29 16 +
STACK CFI 11bdf4 .cfa: sp 32 +
STACK CFI 11bdfc .cfa: sp 0 +
STACK CFI 11be00 .cfa: x29 16 +
STACK CFI 11be14 .cfa: sp 32 +
STACK CFI 11be1c .cfa: sp 0 +
STACK CFI 11be20 .cfa: x29 16 +
STACK CFI 11be40 .cfa: sp 32 +
STACK CFI 11be48 .cfa: sp 0 +
STACK CFI INIT 11be4c 158 .cfa: sp 0 +
STACK CFI 11be50 .cfa: sp 144 +
STACK CFI 11be5c .cfa: x29 32 + x19: .cfa -8 + ^ x20: .cfa -16 + ^ .ra: .cfa -24 + ^ x29: .cfa -32 + ^
STACK CFI 11bf90 .cfa: sp 144 +
STACK CFI 11bf9c .cfa: sp 0 +
STACK CFI 11bfa0 .cfa: x29 32 +
STACK CFI INIT 11bfa4 228 .cfa: sp 0 +
STACK CFI 11bfd8 .cfa: sp 64 +
STACK CFI 11bfe8 .cfa: x29 16 + .ra: .cfa -8 + ^ x29: .cfa -16 + ^ v8: .cfa -24 + ^ v9: .cfa -32 + ^ v10: .cfa -40 + ^ v11: .cfa -48 + ^ v12: .cfa -56 + ^ v13: .cfa -64 + ^
STACK CFI 11c038 .cfa: sp 0 + .ra: x30 x29: x29 v8: v8 v9: v9 v10: v10 v11: v11 v12: v12 v13: v13
STACK CFI 11c050 .cfa: x29 16 + .ra: .cfa -8 + ^ x29: .cfa -16 + ^ v8: .cfa -24 + ^ v9: .cfa -32 + ^ v10: .cfa -40 + ^ v11: .cfa -48 + ^ v12: .cfa -56 + ^ v13: .cfa -64 + ^
STACK CFI 11c1b8 .cfa: sp 64 +
STACK CFI 11c1c8 .cfa: sp 0 +
STACK CFI INIT 11c1cc 1d8 .cfa: sp 0 +
STACK CFI 11c1d0 .cfa: sp 48 +
STACK CFI 11c1dc .cfa: x29 16 + .ra: .cfa -8 + ^ x29: .cfa -16 + ^ v8: .cfa -24 + ^ v9: .cfa -32 + ^ v10: .cfa -48 + ^
STACK CFI 11c2c8 .cfa: sp 48 +
STACK CFI 11c2d4 .cfa: sp 0 +
STACK CFI 11c2d8 .cfa: x29 16 +
STACK CFI 11c2dc .cfa: sp 48 +
STACK CFI 11c2e8 .cfa: sp 0 +
STACK CFI 11c2ec .cfa: x29 16 +
STACK CFI 11c2f0 .cfa: sp 48 +
STACK CFI 11c2fc .cfa: sp 0 +
STACK CFI 11c300 .cfa: x29 16 +
STACK CFI 11c30c .cfa: sp 48 +
STACK CFI 11c318 .cfa: sp 0 +
STACK CFI 11c31c .cfa: x29 16 +
STACK CFI 11c33c .cfa: sp 48 +
STACK CFI 11c348 .cfa: sp 0 +
STACK CFI 11c34c .cfa: x29 16 +
STACK CFI 11c364 .cfa: sp 48 +
STACK CFI 11c370 .cfa: sp 0 +
STACK CFI 11c374 .cfa: x29 16 +
STACK CFI 11c394 .cfa: sp 48 +
STACK CFI 11c3a0 .cfa: sp 0 +
STACK CFI INIT 11c3a4 150 .cfa: sp 0 +
STACK CFI 11c3a8 .cfa: sp 144 +
STACK CFI 11c3b4 .cfa: x29 32 + x19: .cfa -8 + ^ x20: .cfa -16 + ^ .ra: .cfa -24 + ^ x29: .cfa -32 + ^
STACK CFI 11c4e0 .cfa: sp 144 +
STACK CFI 11c4ec .cfa: sp 0 +
STACK CFI 11c4f0 .cfa: x29 32 +
STACK CFI INIT 11c4f4 25c .cfa: sp 0 +
STACK CFI 11c4f8 .cfa: sp 80 +
STACK CFI 11c50c .cfa: x29 80 + x19: .cfa -8 + ^ x20: .cfa -16 + ^ x21: .cfa -24 + ^ x22: .cfa -32 + ^ x23: .cfa -40 + ^ x24: .cfa -48 + ^ x25: .cfa -64 + ^ .ra: .cfa -72 + ^ x29: .cfa -80 + ^
STACK CFI 11c738 .cfa: sp 80 +
STACK CFI 11c74c .cfa: sp 0 +
STACK CFI INIT 11c750 ba8 .cfa: sp 0 +
STACK CFI 11c754 .cfa: sp 336 +
STACK CFI 11c780 .cfa: x29 96 + x19: .cfa -8 + ^ x20: .cfa -16 + ^ x21: .cfa -24 + ^ x22: .cfa -32 + ^ x23: .cfa -40 + ^ x24: .cfa -48 + ^ x25: .cfa -56 + ^ x26: .cfa -64 + ^ x27: .cfa -72 + ^ x28: .cfa -80 + ^ .ra: .cfa -88 + ^ x29: .cfa -96 + ^ v8: .cfa -104 + ^ v9: .cfa -112 + ^ v10: .cfa -120 + ^ v11: .cfa -128 + ^ v12: .cfa -136 + ^ v13: .cfa -144 + ^ v14: .cfa -152 + ^ v15: .cfa -160 + ^
STACK CFI 11d284 .cfa: sp 336 +
STACK CFI 11d2b0 .cfa: sp 0 +
STACK CFI 11d2b4 .cfa: x29 96 +
STACK CFI INIT 11d2f8 80 .cfa: sp 0 +
STACK CFI INIT 11d378 108 .cfa: sp 0 +
STACK CFI 11d37c .cfa: sp 64 +
STACK CFI 11d390 .cfa: x29 56 + x19: .cfa -8 + ^ x20: .cfa -16 + ^ x21: .cfa -24 + ^ x22: .cfa -32 + ^ x23: .cfa -40 + ^ .ra: .cfa -48 + ^ x29: .cfa -56 + ^ v8: .cfa -64 + ^
STACK CFI 11d468 .cfa: sp 64 +
STACK CFI 11d47c .cfa: sp 0 +
STACK CFI INIT 11f0dc 188 .cfa: sp 0 +
STACK CFI 11f0e0 .cfa: sp 96 +
STACK CFI 11f0f8 .cfa: x29 96 + x19: .cfa -8 + ^ x20: .cfa -16 + ^ x21: .cfa -24 + ^ x22: .cfa -32 + ^ x23: .cfa -40 + ^ x24: .cfa -48 + ^ x25: .cfa -56 + ^ x26: .cfa -64 + ^ x27: .cfa -80 + ^ .ra: .cfa -88 + ^ x29: .cfa -96 + ^
STACK CFI 11f248 .cfa: sp 96 +
STACK CFI 11f260 .cfa: sp 0 +
STACK CFI INIT 11f264 20 .cfa: sp 0 +
STACK CFI INIT 11f284 260 .cfa: sp 0 +
STACK CFI INIT 11f4e4 1e4 .cfa: sp 0 +
STACK CFI 11f4e8 .cfa: sp 32 +
STACK CFI 11f4f0 .cfa: x29 32 + x19: .cfa -8 + ^ x20: .cfa -16 + ^ .ra: .cfa -24 + ^ x29: .cfa -32 + ^
STACK CFI 11f5c0 .cfa: sp 32 +
STACK CFI 11f5c8 .cfa: sp 0 +
STACK CFI 11f5cc .cfa: x29 32 +
STACK CFI INIT 11f6c8 25c .cfa: sp 0 +
STACK CFI INIT 11f924 1228 .cfa: sp 0 +
STACK CFI 11f928 .cfa: sp 240 +
STACK CFI 11f954 .cfa: x29 96 + x19: .cfa -8 + ^ x20: .cfa -16 + ^ x21: .cfa -24 + ^ x22: .cfa -32 + ^ x23: .cfa -40 + ^ x24: .cfa -48 + ^ x25: .cfa -56 + ^ x26: .cfa -64 + ^ x27: .cfa -72 + ^ x28: .cfa -80 + ^ .ra: .cfa -88 + ^ x29: .cfa -96 + ^ v8: .cfa -104 + ^ v9: .cfa -112 + ^ v10: .cfa -120 + ^ v11: .cfa -128 + ^ v12: .cfa -136 + ^ v13: .cfa -144 + ^ v14: .cfa -152 + ^ v15: .cfa -160 + ^
STACK CFI 120ae4 .cfa: sp 240 +
STACK CFI 120b10 .cfa: sp 0 +
STACK CFI 120b14 .cfa: x29 96 +
STACK CFI INIT 120b4c 188 .cfa: sp 0 +
STACK CFI INIT 120cd4 60 .cfa: sp 0 +
STACK CFI INIT 120d34 d4 .cfa: sp 0 +
STACK CFI INIT 120e08 16c .cfa: sp 0 +
STACK CFI 120e0c .cfa: sp 64 +
STACK CFI 120e1c .cfa: x29 64 + x19: .cfa -8 + ^ x20: .cfa -16 + ^ x21: .cfa -24 + ^ x22: .cfa -32 + ^ x23: .cfa -40 + ^ x24: .cfa -48 + ^ .ra: .cfa -56 + ^ x29: .cfa -64 + ^
STACK CFI 120f60 .cfa: sp 64 +
STACK CFI 120f70 .cfa: sp 0 +
STACK CFI INIT 120f74 2f0 .cfa: sp 0 +
STACK CFI 120f78 .cfa: sp 176 +
STACK CFI 120f9c .cfa: x29 96 + x19: .cfa -8 + ^ x20: .cfa -16 + ^ x21: .cfa -24 + ^ x22: .cfa -32 + ^ x23: .cfa -40 + ^ x24: .cfa -48 + ^ x25: .cfa -56 + ^ x26: .cfa -64 + ^ x27: .cfa -72 + ^ x28: .cfa -80 + ^ .ra: .cfa -88 + ^ x29: .cfa -96 + ^ v8: .cfa -104 + ^ v9: .cfa -112 + ^ v10: .cfa -120 + ^ v11: .cfa -128 + ^
STACK CFI 121238 .cfa: sp 176 +
STACK CFI 12125c .cfa: sp 0 +
STACK CFI 121260 .cfa: x29 96 +
STACK CFI INIT 121264 164 .cfa: sp 0 +
STACK CFI 121280 .cfa: sp 32 +
STACK CFI 121288 .cfa: x29 32 + x19: .cfa -16 + ^ .ra: .cfa -24 + ^ x29: .cfa -32 + ^
STACK CFI 1213a0 .cfa: sp 32 +
STACK CFI 1213a8 .cfa: sp 0 +
STACK CFI 1213b4 .cfa: x29 32 +
STACK CFI 1213bc .cfa: sp 32 +
STACK CFI 1213c4 .cfa: sp 0 +
STACK CFI INIT 1213c8 3d8 .cfa: sp 0 +
STACK CFI 1213cc .cfa: sp 80 +
STACK CFI 1213e0 .cfa: x29 80 + x19: .cfa -8 + ^ x20: .cfa -16 + ^ x21: .cfa -24 + ^ x22: .cfa -32 + ^ x23: .cfa -40 + ^ x24: .cfa -48 + ^ x25: .cfa -56 + ^ x26: .cfa -64 + ^ .ra: .cfa -72 + ^ x29: .cfa -80 + ^
STACK CFI 1213f8 .cfa: sp 80 +
STACK CFI 12140c .cfa: sp 0 +
STACK CFI 121410 .cfa: x29 80 +
STACK CFI 121788 .cfa: sp 80 +
STACK CFI 12179c .cfa: sp 0 +
STACK CFI INIT 1217a0 2c0 .cfa: sp 0 +
STACK CFI 1217a4 .cfa: sp 80 +
STACK CFI 1217b8 .cfa: x29 80 + x19: .cfa -8 + ^ x20: .cfa -16 + ^ x21: .cfa -24 + ^ x22: .cfa -32 + ^ x23: .cfa -40 + ^ x24: .cfa -48 + ^ x25: .cfa -64 + ^ .ra: .cfa -72 + ^ x29: .cfa -80 + ^
STACK CFI 121a48 .cfa: sp 80 +
STACK CFI 121a5c .cfa: sp 0 +
STACK CFI INIT 121a60 3c .cfa: sp 0 +
STACK CFI INIT 121a9c 38 .cfa: sp 0 +
STACK CFI INIT 121ad4 914 .cfa: sp 0 +
STACK CFI 121ad8 .cfa: sp 128 +
STACK CFI 121afc .cfa: x29 88 + x19: .cfa -8 + ^ x20: .cfa -16 + ^ x21: .cfa -24 + ^ x22: .cfa -32 + ^ x23: .cfa -40 + ^ x24: .cfa -48 + ^ x25: .cfa -56 + ^ x26: .cfa -64 + ^ x27: .cfa -72 + ^ .ra: .cfa -80 + ^ x29: .cfa -88 + ^ v8: .cfa -96 + ^ v9: .cfa -104 + ^ v10: .cfa -112 + ^
STACK CFI 122194 .cfa: sp 128 +
STACK CFI 1221b8 .cfa: sp 0 +
STACK CFI 1221bc .cfa: x29 88 +
STACK CFI INIT 1223e8 934 .cfa: sp 0 +
STACK CFI 1223ec .cfa: sp 192 +
STACK CFI 122414 .cfa: x29 96 + x19: .cfa -8 + ^ x20: .cfa -16 + ^ x21: .cfa -24 + ^ x22: .cfa -32 + ^ x23: .cfa -40 + ^ x24: .cfa -48 + ^ x25: .cfa -56 + ^ x26: .cfa -64 + ^ x27: .cfa -72 + ^ x28: .cfa -80 + ^ .ra: .cfa -88 + ^ x29: .cfa -96 + ^ v8: .cfa -104 + ^ v9: .cfa -112 + ^ v10: .cfa -120 + ^ v11: .cfa -128 + ^ v12: .cfa -136 + ^ v13: .cfa -144 + ^
STACK CFI 122cec .cfa: sp 192 +
STACK CFI 122d14 .cfa: sp 0 +
STACK CFI 122d18 .cfa: x29 96 +
STACK CFI INIT 122d1c 168 .cfa: sp 0 +
STACK CFI INIT 122e84 47c .cfa: sp 0 +
STACK CFI 122e88 .cfa: sp 144 +
STACK CFI 122ea8 .cfa: x29 80 + x19: .cfa -8 + ^ x20: .cfa -16 + ^ x21: .cfa -24 + ^ x22: .cfa -32 + ^ x23: .cfa -40 + ^ x24: .cfa -48 + ^ x25: .cfa -56 + ^ x26: .cfa -64 + ^ .ra: .cfa -72 + ^ x29: .cfa -80 + ^ v8: .cfa -88 + ^ v9: .cfa -96 + ^ v10: .cfa -112 + ^
STACK CFI 1232d8 .cfa: sp 144 +
STACK CFI 1232f8 .cfa: sp 0 +
STACK CFI 1232fc .cfa: x29 80 +
STACK CFI INIT 123300 b3c .cfa: sp 0 +
STACK CFI 123304 .cfa: sp 288 +
STACK CFI 123320 .cfa: x29 96 + x19: .cfa -8 + ^ x20: .cfa -16 + ^ x21: .cfa -24 + ^ x22: .cfa -32 + ^ x23: .cfa -40 + ^ x24: .cfa -48 + ^ x25: .cfa -56 + ^ x26: .cfa -64 + ^ x27: .cfa -72 + ^ x28: .cfa -80 + ^ .ra: .cfa -88 + ^ x29: .cfa -96 + ^
STACK CFI 123938 .cfa: sp 288 +
STACK CFI 123954 .cfa: sp 0 +
STACK CFI 123958 .cfa: x29 96 +
STACK CFI 123e18 .cfa: sp 288 +
STACK CFI 123e34 .cfa: sp 0 +
STACK CFI 123e38 .cfa: x29 96 +
STACK CFI INIT 123e3c 1f0 .cfa: sp 0 +
STACK CFI 123e4c .cfa: sp 48 +
STACK CFI 123e58 .cfa: x29 48 + x19: .cfa -8 + ^ x20: .cfa -16 + ^ x21: .cfa -32 + ^ .ra: .cfa -40 + ^ x29: .cfa -48 + ^
STACK CFI 12401c .cfa: sp 48 +
STACK CFI 124028 .cfa: sp 0 +
STACK CFI INIT 12402c 258 .cfa: sp 0 +
STACK CFI 124030 .cfa: sp 80 +
STACK CFI 124044 .cfa: x29 64 + x19: .cfa -8 + ^ x20: .cfa -16 + ^ x21: .cfa -24 + ^ x22: .cfa -32 + ^ x23: .cfa -40 + ^ x24: .cfa -48 + ^ .ra: .cfa -56 + ^ x29: .cfa -64 + ^ v8: .cfa -80 + ^
STACK CFI 12426c .cfa: sp 80 +
STACK CFI 124280 .cfa: sp 0 +
STACK CFI INIT 124284 f0 .cfa: sp 0 +
STACK CFI INIT 124374 24 .cfa: sp 0 +
STACK CFI INIT 124398 78 .cfa: sp 0 +
STACK CFI INIT 124410 48 .cfa: sp 0 +
STACK CFI INIT 124458 38 .cfa: sp 0 +
STACK CFI INIT 124490 64 .cfa: sp 0 +
STACK CFI INIT 1244f4 34 .cfa: sp 0 +
STACK CFI INIT 124528 24 .cfa: sp 0 +
STACK CFI INIT 12454c 4c .cfa: sp 0 +
STACK CFI INIT 124598 bc .cfa: sp 0 +
STACK CFI INIT 124654 24 .cfa: sp 0 +
STACK CFI INIT 124678 a8 .cfa: sp 0 +
STACK CFI 12467c .cfa: sp 48 +
STACK CFI 12468c .cfa: x29 40 + x19: .cfa -8 + ^ x20: .cfa -16 + ^ x21: .cfa -24 + ^ .ra: .cfa -32 + ^ x29: .cfa -40 + ^ v8: .cfa -48 + ^
STACK CFI 12470c .cfa: sp 48 +
STACK CFI 12471c .cfa: sp 0 +
STACK CFI INIT 124720 17c .cfa: sp 0 +
STACK CFI INIT 12489c dc .cfa: sp 0 +
STACK CFI INIT 124978 38 .cfa: sp 0 +
STACK CFI INIT 1249b0 24 .cfa: sp 0 +
STACK CFI INIT 1249d4 144 .cfa: sp 0 +
STACK CFI 1249d8 .cfa: sp 32 +
STACK CFI 1249e0 .cfa: x29 32 + x19: .cfa -8 + ^ x20: .cfa -16 + ^ .ra: .cfa -24 + ^ x29: .cfa -32 + ^
STACK CFI 124a68 .cfa: sp 32 +
STACK CFI 124a70 .cfa: sp 0 +
STACK CFI 124a74 .cfa: x29 32 +
STACK CFI 124b0c .cfa: sp 32 +
STACK CFI 124b14 .cfa: sp 0 +
STACK CFI INIT 124b18 174 .cfa: sp 0 +
STACK CFI 124b1c .cfa: sp 48 +
STACK CFI 124b28 .cfa: x29 48 + x19: .cfa -8 + ^ x20: .cfa -16 + ^ x21: .cfa -32 + ^ .ra: .cfa -40 + ^ x29: .cfa -48 + ^
STACK CFI 124c30 .cfa: sp 48 +
STACK CFI 124c3c .cfa: sp 0 +
STACK CFI 124c40 .cfa: x29 48 +
STACK CFI 124c7c .cfa: sp 48 +
STACK CFI 124c88 .cfa: sp 0 +
STACK CFI INIT 124c8c 1d8 .cfa: sp 0 +
STACK CFI 124c90 .cfa: sp 32 +
STACK CFI 124c98 .cfa: x29 32 + x19: .cfa -8 + ^ x20: .cfa -16 + ^ .ra: .cfa -24 + ^ x29: .cfa -32 + ^
STACK CFI 124da4 .cfa: sp 32 +
STACK CFI 124dac .cfa: sp 0 +
STACK CFI 124db0 .cfa: x29 32 +
STACK CFI 124e58 .cfa: sp 32 +
STACK CFI 124e60 .cfa: sp 0 +
STACK CFI INIT 124e64 88 .cfa: sp 0 +
STACK CFI INIT 124eec 44 .cfa: sp 0 +
STACK CFI INIT 124f30 68 .cfa: sp 0 +
STACK CFI INIT 124f98 70 .cfa: sp 0 +
STACK CFI INIT 125008 74 .cfa: sp 0 +
STACK CFI 12500c .cfa: sp 32 +
STACK CFI 125014 .cfa: x29 32 + x19: .cfa -16 + ^ .ra: .cfa -24 + ^ x29: .cfa -32 + ^
STACK CFI 125030 .cfa: sp 32 +
STACK CFI 125038 .cfa: sp 0 +
STACK CFI 12503c .cfa: x29 32 +
STACK CFI 125050 .cfa: sp 32 +
STACK CFI 125058 .cfa: sp 0 +
STACK CFI 12505c .cfa: x29 32 +
STACK CFI 125070 .cfa: sp 32 +
STACK CFI 125078 .cfa: sp 0 +
STACK CFI INIT 12507c 3c .cfa: sp 0 +
STACK CFI INIT 1250b8 7c .cfa: sp 0 +
STACK CFI INIT 125134 218 .cfa: sp 0 +
STACK CFI INIT 12534c 224 .cfa: sp 0 +
STACK CFI INIT 125570 124 .cfa: sp 0 +
STACK CFI 125574 .cfa: sp 80 +
STACK CFI 12558c .cfa: x29 72 + x19: .cfa -8 + ^ x20: .cfa -16 + ^ x21: .cfa -24 + ^ x22: .cfa -32 + ^ x23: .cfa -40 + ^ x24: .cfa -48 + ^ x25: .cfa -56 + ^ .ra: .cfa -64 + ^ x29: .cfa -72 + ^ v8: .cfa -80 + ^
STACK CFI 125678 .cfa: sp 80 +
STACK CFI 125690 .cfa: sp 0 +
STACK CFI INIT 125694 180 .cfa: sp 0 +
STACK CFI 125698 .cfa: sp 96 +
STACK CFI 1256b0 .cfa: x29 80 + x19: .cfa -8 + ^ x20: .cfa -16 + ^ x21: .cfa -24 + ^ x22: .cfa -32 + ^ x23: .cfa -40 + ^ x24: .cfa -48 + ^ x25: .cfa -56 + ^ x26: .cfa -64 + ^ .ra: .cfa -72 + ^ x29: .cfa -80 + ^ v8: .cfa -96 + ^
STACK CFI 1257f8 .cfa: sp 96 +
STACK CFI 125810 .cfa: sp 0 +
STACK CFI INIT 125814 4b0 .cfa: sp 0 +
STACK CFI 125818 .cfa: sp 112 +
STACK CFI 125834 .cfa: x29 80 + x19: .cfa -8 + ^ x20: .cfa -16 + ^ x21: .cfa -24 + ^ x22: .cfa -32 + ^ x23: .cfa -40 + ^ x24: .cfa -48 + ^ x25: .cfa -56 + ^ x26: .cfa -64 + ^ .ra: .cfa -72 + ^ x29: .cfa -80 + ^ v8: .cfa -88 + ^ v9: .cfa -96 + ^ v10: .cfa -112 + ^
STACK CFI 1259a4 .cfa: sp 112 +
STACK CFI 1259c0 .cfa: sp 0 +
STACK CFI 1259c4 .cfa: x29 80 +
STACK CFI 125ca4 .cfa: sp 112 +
STACK CFI 125cc0 .cfa: sp 0 +
STACK CFI INIT 125cc4 c2c .cfa: sp 0 +
STACK CFI 125cc8 .cfa: sp 288 +
STACK CFI 125cf4 .cfa: x29 96 + x19: .cfa -8 + ^ x20: .cfa -16 + ^ x21: .cfa -24 + ^ x22: .cfa -32 + ^ x23: .cfa -40 + ^ x24: .cfa -48 + ^ x25: .cfa -56 + ^ x26: .cfa -64 + ^ x27: .cfa -72 + ^ x28: .cfa -80 + ^ .ra: .cfa -88 + ^ x29: .cfa -96 + ^ v8: .cfa -104 + ^ v9: .cfa -112 + ^ v10: .cfa -120 + ^ v11: .cfa -128 + ^ v12: .cfa -136 + ^ v13: .cfa -144 + ^ v14: .cfa -152 + ^ v15: .cfa -160 + ^
STACK CFI 126884 .cfa: sp 288 +
STACK CFI 1268b0 .cfa: sp 0 +
STACK CFI 1268b4 .cfa: x29 96 +
STACK CFI INIT 1268f0 a14 .cfa: sp 0 +
STACK CFI 1268f4 .cfa: sp 208 +
STACK CFI 126920 .cfa: x29 96 + x19: .cfa -8 + ^ x20: .cfa -16 + ^ x21: .cfa -24 + ^ x22: .cfa -32 + ^ x23: .cfa -40 + ^ x24: .cfa -48 + ^ x25: .cfa -56 + ^ x26: .cfa -64 + ^ x27: .cfa -72 + ^ x28: .cfa -80 + ^ .ra: .cfa -88 + ^ x29: .cfa -96 + ^ v8: .cfa -104 + ^ v9: .cfa -112 + ^ v10: .cfa -120 + ^ v11: .cfa -128 + ^ v12: .cfa -136 + ^ v13: .cfa -144 + ^ v14: .cfa -160 + ^
STACK CFI 1272a8 .cfa: sp 208 +
STACK CFI 1272d4 .cfa: sp 0 +
STACK CFI 1272d8 .cfa: x29 96 +
STACK CFI INIT 127304 e94 .cfa: sp 0 +
STACK CFI 127308 .cfa: sp 160 +
STACK CFI 127330 .cfa: x29 96 + x19: .cfa -8 + ^ x20: .cfa -16 + ^ x21: .cfa -24 + ^ x22: .cfa -32 + ^ x23: .cfa -40 + ^ x24: .cfa -48 + ^ x25: .cfa -56 + ^ x26: .cfa -64 + ^ x27: .cfa -72 + ^ x28: .cfa -80 + ^ .ra: .cfa -88 + ^ x29: .cfa -96 + ^ v8: .cfa -104 + ^ v9: .cfa -112 + ^ v10: .cfa -120 + ^ v11: .cfa -128 + ^ v12: .cfa -136 + ^ v13: .cfa -144 + ^ v14: .cfa -152 + ^ v15: .cfa -160 + ^
STACK CFI 128168 .cfa: sp 160 +
STACK CFI 128190 .cfa: sp 0 +
STACK CFI 128194 .cfa: x29 96 +
STACK CFI INIT 128198 298 .cfa: sp 0 +
STACK CFI 12819c .cfa: sp 96 +
STACK CFI 1281b4 .cfa: x29 96 + x19: .cfa -8 + ^ x20: .cfa -16 + ^ x21: .cfa -24 + ^ x22: .cfa -32 + ^ x23: .cfa -40 + ^ x24: .cfa -48 + ^ x25: .cfa -56 + ^ x26: .cfa -64 + ^ x27: .cfa -72 + ^ x28: .cfa -80 + ^ .ra: .cfa -88 + ^ x29: .cfa -96 + ^
STACK CFI 128414 .cfa: sp 96 +
STACK CFI 12842c .cfa: sp 0 +
STACK CFI INIT 128430 50 .cfa: sp 0 +
STACK CFI INIT 128480 40 .cfa: sp 0 +
STACK CFI INIT 1284c0 d0 .cfa: sp 0 +
STACK CFI 1284c4 .cfa: sp 32 +
STACK CFI 1284cc .cfa: x29 32 + x19: .cfa -8 + ^ x20: .cfa -16 + ^ .ra: .cfa -24 + ^ x29: .cfa -32 + ^
STACK CFI 128584 .cfa: sp 32 +
STACK CFI 12858c .cfa: sp 0 +
STACK CFI INIT 128590 12c .cfa: sp 0 +
STACK CFI 128594 .cfa: sp 32 +
STACK CFI 12859c .cfa: x29 32 + x19: .cfa -16 + ^ .ra: .cfa -24 + ^ x29: .cfa -32 + ^
STACK CFI 1286b0 .cfa: sp 32 +
STACK CFI 1286b8 .cfa: sp 0 +
STACK CFI INIT 1286bc 158 .cfa: sp 0 +
STACK CFI 1286c0 .cfa: sp 48 +
STACK CFI 1286cc .cfa: x29 32 + x19: .cfa -16 + ^ .ra: .cfa -24 + ^ x29: .cfa -32 + ^
STACK CFI 128794 .cfa: sp 48 +
STACK CFI 1287a0 .cfa: sp 0 +
STACK CFI 1287a4 .cfa: x29 32 +
STACK CFI INIT 128814 31c .cfa: sp 0 +
STACK CFI 128818 .cfa: sp 80 +
STACK CFI 128828 .cfa: x29 48 + x19: .cfa -8 + ^ x20: .cfa -16 + ^ x21: .cfa -24 + ^ x22: .cfa -32 + ^ .ra: .cfa -40 + ^ x29: .cfa -48 + ^
STACK CFI 128b18 .cfa: sp 80 +
STACK CFI 128b28 .cfa: sp 0 +
STACK CFI 128b2c .cfa: x29 48 +
STACK CFI INIT 128b30 54 .cfa: sp 0 +
STACK CFI INIT 128b84 468 .cfa: sp 0 +
STACK CFI 128b88 .cfa: sp 112 +
STACK CFI 128ba4 .cfa: x29 96 + x19: .cfa -8 + ^ x20: .cfa -16 + ^ x21: .cfa -24 + ^ x22: .cfa -32 + ^ x23: .cfa -40 + ^ x24: .cfa -48 + ^ x25: .cfa -56 + ^ x26: .cfa -64 + ^ x27: .cfa -72 + ^ x28: .cfa -80 + ^ .ra: .cfa -88 + ^ x29: .cfa -96 + ^
STACK CFI 128fcc .cfa: sp 112 +
STACK CFI 128fe8 .cfa: sp 0 +
STACK CFI INIT 128fec ac .cfa: sp 0 +
STACK CFI 128ff0 .cfa: sp 64 +
STACK CFI 129000 .cfa: x29 64 + x19: .cfa -8 + ^ x20: .cfa -16 + ^ x21: .cfa -24 + ^ x22: .cfa -32 + ^ x23: .cfa -48 + ^ .ra: .cfa -56 + ^ x29: .cfa -64 + ^
STACK CFI 129084 .cfa: sp 64 +
STACK CFI 129094 .cfa: sp 0 +
STACK CFI INIT 129098 240 .cfa: sp 0 +
STACK CFI 12909c .cfa: sp 64 +
STACK CFI 1290ac .cfa: x29 64 + x19: .cfa -8 + ^ x20: .cfa -16 + ^ x21: .cfa -24 + ^ x22: .cfa -32 + ^ x23: .cfa -40 + ^ x24: .cfa -48 + ^ .ra: .cfa -56 + ^ x29: .cfa -64 + ^
STACK CFI 1292c4 .cfa: sp 64 +
STACK CFI 1292d4 .cfa: sp 0 +
STACK CFI INIT 1292d8 2c .cfa: sp 0 +
STACK CFI 1292dc .cfa: sp 32 +
STACK CFI 1292e4 .cfa: x29 32 + x19: .cfa -16 + ^ .ra: .cfa -24 + ^ x29: .cfa -32 + ^
STACK CFI 1292f8 .cfa: sp 32 +
STACK CFI 129300 .cfa: sp 0 +
STACK CFI INIT 129828 874 .cfa: sp 0 +
STACK CFI 12982c .cfa: sp 160 +
STACK CFI 129854 .cfa: x29 96 + x19: .cfa -8 + ^ x20: .cfa -16 + ^ x21: .cfa -24 + ^ x22: .cfa -32 + ^ x23: .cfa -40 + ^ x24: .cfa -48 + ^ x25: .cfa -56 + ^ x26: .cfa -64 + ^ x27: .cfa -72 + ^ x28: .cfa -80 + ^ .ra: .cfa -88 + ^ x29: .cfa -96 + ^ v8: .cfa -104 + ^ v9: .cfa -112 + ^ v10: .cfa -120 + ^ v11: .cfa -128 + ^ v12: .cfa -136 + ^ v13: .cfa -144 + ^ v14: .cfa -160 + ^
STACK CFI 12a060 .cfa: sp 160 +
STACK CFI 12a088 .cfa: sp 0 +
STACK CFI 12a08c .cfa: x29 96 +
STACK CFI INIT 12a09c 144 .cfa: sp 0 +
STACK CFI 12a0a0 .cfa: sp 96 +
STACK CFI 12a0b8 .cfa: x29 96 + x19: .cfa -8 + ^ x20: .cfa -16 + ^ x21: .cfa -24 + ^ x22: .cfa -32 + ^ x23: .cfa -40 + ^ x24: .cfa -48 + ^ x25: .cfa -56 + ^ x26: .cfa -64 + ^ x27: .cfa -72 + ^ x28: .cfa -80 + ^ .ra: .cfa -88 + ^ x29: .cfa -96 + ^
STACK CFI 12a1a8 .cfa: sp 96 +
STACK CFI 12a1c0 .cfa: sp 0 +
STACK CFI 12a1c4 .cfa: sp 96 +
STACK CFI 12a1dc .cfa: sp 0 +
STACK CFI INIT 12a1e0 28 .cfa: sp 0 +
STACK CFI INIT 12a208 28 .cfa: sp 0 +
STACK CFI INIT 12a230 10 .cfa: sp 0 +
STACK CFI INIT 12a240 10 .cfa: sp 0 +
STACK CFI INIT 12a250 48 .cfa: sp 0 +
STACK CFI INIT 12a298 70 .cfa: sp 0 +
STACK CFI INIT 12a308 1ac .cfa: sp 0 +
STACK CFI INIT 12a4b4 58 .cfa: sp 0 +
STACK CFI INIT 12a50c 74 .cfa: sp 0 +
STACK CFI 12a510 .cfa: sp 32 +
STACK CFI 12a518 .cfa: x29 32 + x19: .cfa -16 + ^ .ra: .cfa -24 + ^ x29: .cfa -32 + ^
STACK CFI 12a574 .cfa: sp 32 +
STACK CFI 12a57c .cfa: sp 0 +
STACK CFI INIT 12a580 70 .cfa: sp 0 +
STACK CFI INIT 12a5f0 6c .cfa: sp 0 +
STACK CFI INIT 12aac4 114 .cfa: sp 0 +
STACK CFI 12aac8 .cfa: sp 48 +
STACK CFI 12aad4 .cfa: x29 48 + x19: .cfa -8 + ^ x20: .cfa -16 + ^ x21: .cfa -24 + ^ x22: .cfa -32 + ^ .ra: .cfa -40 + ^ x29: .cfa -48 + ^
STACK CFI 12abc8 .cfa: sp 48 +
STACK CFI 12abd4 .cfa: sp 0 +
STACK CFI INIT 12abd8 a84 .cfa: sp 0 +
STACK CFI 12abdc .cfa: sp 176 +
STACK CFI 12ac00 .cfa: x29 96 + x19: .cfa -8 + ^ x20: .cfa -16 + ^ x21: .cfa -24 + ^ x22: .cfa -32 + ^ x23: .cfa -40 + ^ x24: .cfa -48 + ^ x25: .cfa -56 + ^ x26: .cfa -64 + ^ x27: .cfa -72 + ^ x28: .cfa -80 + ^ .ra: .cfa -88 + ^ x29: .cfa -96 + ^ v8: .cfa -104 + ^ v9: .cfa -112 + ^ v10: .cfa -128 + ^
STACK CFI 12b630 .cfa: sp 176 +
STACK CFI 12b654 .cfa: sp 0 +
STACK CFI 12b658 .cfa: x29 96 +
STACK CFI INIT 12b65c 2f8 .cfa: sp 0 +
STACK CFI 12b660 .cfa: sp 80 +
STACK CFI 12b674 .cfa: x29 48 + x19: .cfa -8 + ^ x20: .cfa -16 + ^ x21: .cfa -24 + ^ x22: .cfa -32 + ^ .ra: .cfa -40 + ^ x29: .cfa -48 + ^ v8: .cfa -56 + ^ v9: .cfa -64 + ^ v10: .cfa -80 + ^
STACK CFI 12b694 .cfa: sp 80 +
STACK CFI 12b6a8 .cfa: sp 0 +
STACK CFI 12b6ac .cfa: x29 48 +
STACK CFI 12b6e0 .cfa: sp 80 +
STACK CFI 12b6f4 .cfa: sp 0 +
STACK CFI 12b6f8 .cfa: x29 48 +
STACK CFI 12b93c .cfa: sp 80 +
STACK CFI 12b950 .cfa: sp 0 +
STACK CFI INIT 12b954 50c .cfa: sp 0 +
STACK CFI 12b958 .cfa: sp 224 +
STACK CFI 12b984 .cfa: x29 96 + x19: .cfa -8 + ^ x20: .cfa -16 + ^ x21: .cfa -24 + ^ x22: .cfa -32 + ^ x23: .cfa -40 + ^ x24: .cfa -48 + ^ x25: .cfa -56 + ^ x26: .cfa -64 + ^ x27: .cfa -72 + ^ x28: .cfa -80 + ^ .ra: .cfa -88 + ^ x29: .cfa -96 + ^ v8: .cfa -104 + ^ v9: .cfa -112 + ^ v10: .cfa -120 + ^ v11: .cfa -128 + ^ v12: .cfa -136 + ^ v13: .cfa -144 + ^ v14: .cfa -152 + ^ v15: .cfa -160 + ^
STACK CFI 12bd1c .cfa: sp 224 +
STACK CFI 12bd48 .cfa: sp 0 +
STACK CFI 12bd4c .cfa: x29 96 +
STACK CFI INIT 12be60 8c .cfa: sp 0 +
STACK CFI 12be64 .cfa: sp 48 +
STACK CFI 12be70 .cfa: x29 48 + x19: .cfa -8 + ^ x20: .cfa -16 + ^ x21: .cfa -32 + ^ .ra: .cfa -40 + ^ x29: .cfa -48 + ^
STACK CFI 12bec0 .cfa: sp 48 +
STACK CFI 12becc .cfa: sp 0 +
STACK CFI 12bed0 .cfa: x29 48 +
STACK CFI 12bedc .cfa: sp 48 +
STACK CFI 12bee8 .cfa: sp 0 +
STACK CFI INIT 12beec 2a0 .cfa: sp 0 +
STACK CFI INIT 12c18c 274 .cfa: sp 0 +
STACK CFI INIT 12c400 26c .cfa: sp 0 +
STACK CFI INIT 12c66c 18c .cfa: sp 0 +
STACK CFI 12c670 .cfa: sp 224 +
STACK CFI 12c68c .cfa: x29 96 + x19: .cfa -8 + ^ x20: .cfa -16 + ^ x21: .cfa -24 + ^ x22: .cfa -32 + ^ x23: .cfa -40 + ^ x24: .cfa -48 + ^ x25: .cfa -56 + ^ x26: .cfa -64 + ^ x28: .cfa -80 + ^ .ra: .cfa -88 + ^ x29: .cfa -96 + ^
STACK CFI 12c7d8 .cfa: sp 224 +
STACK CFI 12c7f4 .cfa: sp 0 +
STACK CFI INIT 12c7f8 e4 .cfa: sp 0 +
STACK CFI 12c80c .cfa: sp 96 +
STACK CFI 12c824 .cfa: x29 64 + x19: .cfa -8 + ^ x20: .cfa -16 + ^ x21: .cfa -24 + ^ x22: .cfa -32 + ^ x23: .cfa -40 + ^ x24: .cfa -48 + ^ .ra: .cfa -56 + ^ x29: .cfa -64 + ^ v8: .cfa -72 + ^ v9: .cfa -80 + ^ v10: .cfa -96 + ^
STACK CFI 12c8c0 .cfa: sp 96 +
STACK CFI 12c8d8 .cfa: sp 0 +
STACK CFI INIT 12c8dc c60 .cfa: sp 0 +
STACK CFI 12c8e0 .cfa: sp 128 +
STACK CFI 12c8f4 .cfa: x29 64 + x19: .cfa -8 + ^ x20: .cfa -16 + ^ x21: .cfa -24 + ^ x22: .cfa -32 + ^ x23: .cfa -40 + ^ x24: .cfa -48 + ^ .ra: .cfa -56 + ^ x29: .cfa -64 + ^
STACK CFI 12d520 .cfa: sp 128 +
STACK CFI 12d534 .cfa: sp 0 +
STACK CFI 12d538 .cfa: x29 64 +
STACK CFI INIT 12d53c 770 .cfa: sp 0 +
STACK CFI 12d54c .cfa: sp 96 +
STACK CFI 12d564 .cfa: x29 96 + x19: .cfa -8 + ^ x20: .cfa -16 + ^ x21: .cfa -24 + ^ x22: .cfa -32 + ^ x23: .cfa -40 + ^ x24: .cfa -48 + ^ x25: .cfa -56 + ^ x26: .cfa -64 + ^ x27: .cfa -72 + ^ x28: .cfa -80 + ^ .ra: .cfa -88 + ^ x29: .cfa -96 + ^
STACK CFI 12dc90 .cfa: sp 96 +
STACK CFI 12dca8 .cfa: sp 0 +
STACK CFI INIT 12dcac 478 .cfa: sp 0 +
STACK CFI 12dcb0 .cfa: sp 48 +
STACK CFI 12dcbc .cfa: x29 48 + x19: .cfa -8 + ^ x20: .cfa -16 + ^ x21: .cfa -24 + ^ x22: .cfa -32 + ^ .ra: .cfa -40 + ^ x29: .cfa -48 + ^
STACK CFI 12e114 .cfa: sp 48 +
STACK CFI 12e120 .cfa: sp 0 +
STACK CFI INIT 12e124 2b0 .cfa: sp 0 +
STACK CFI 12e128 .cfa: sp 96 +
STACK CFI 12e140 .cfa: x29 96 + x19: .cfa -8 + ^ x20: .cfa -16 + ^ x21: .cfa -24 + ^ x22: .cfa -32 + ^ x23: .cfa -40 + ^ x24: .cfa -48 + ^ x25: .cfa -56 + ^ x26: .cfa -64 + ^ x27: .cfa -72 + ^ x28: .cfa -80 + ^ .ra: .cfa -88 + ^ x29: .cfa -96 + ^
STACK CFI 12e3b8 .cfa: sp 96 +
STACK CFI 12e3d0 .cfa: sp 0 +
STACK CFI INIT 12e3d4 8e4 .cfa: sp 0 +
STACK CFI 12e3d8 .cfa: sp 96 +
STACK CFI 12e3f0 .cfa: x29 96 + x19: .cfa -8 + ^ x20: .cfa -16 + ^ x21: .cfa -24 + ^ x22: .cfa -32 + ^ x23: .cfa -40 + ^ x24: .cfa -48 + ^ x25: .cfa -56 + ^ x26: .cfa -64 + ^ x27: .cfa -80 + ^ .ra: .cfa -88 + ^ x29: .cfa -96 + ^
STACK CFI 12ec9c .cfa: sp 96 +
STACK CFI 12ecb4 .cfa: sp 0 +
STACK CFI INIT 12ecb8 288 .cfa: sp 0 +
STACK CFI 12ecbc .cfa: sp 160 +
STACK CFI 12ecd8 .cfa: x29 96 + x19: .cfa -8 + ^ x20: .cfa -16 + ^ x21: .cfa -24 + ^ x22: .cfa -32 + ^ x23: .cfa -40 + ^ x24: .cfa -48 + ^ x25: .cfa -56 + ^ x26: .cfa -64 + ^ x27: .cfa -80 + ^ .ra: .cfa -88 + ^ x29: .cfa -96 + ^
STACK CFI 12ef1c .cfa: sp 160 +
STACK CFI 12ef38 .cfa: sp 0 +
STACK CFI 12ef3c .cfa: x29 96 +
STACK CFI INIT 12ef40 38 .cfa: sp 0 +
STACK CFI INIT 12ef78 60 .cfa: sp 0 +
STACK CFI 12ef7c .cfa: sp 48 +
STACK CFI 12ef88 .cfa: x29 48 + x19: .cfa -8 + ^ x20: .cfa -16 + ^ x21: .cfa -32 + ^ .ra: .cfa -40 + ^ x29: .cfa -48 + ^
STACK CFI 12efc8 .cfa: sp 48 +
STACK CFI 12efd4 .cfa: sp 0 +
STACK CFI INIT 12efd8 80 .cfa: sp 0 +
STACK CFI INIT 12f058 a0 .cfa: sp 0 +
STACK CFI INIT 12f0f8 98 .cfa: sp 0 +
STACK CFI INIT 12f190 30 .cfa: sp 0 +
STACK CFI INIT 12f1c0 94 .cfa: sp 0 +
STACK CFI 12f1f0 .cfa: sp 16 +
STACK CFI 12f1f4 .cfa: x29 16 + .ra: .cfa -8 + ^ x29: .cfa -16 + ^
STACK CFI 12f24c .cfa: sp 16 +
STACK CFI 12f250 .cfa: sp 0 +
STACK CFI INIT 12f254 320 .cfa: sp 0 +
STACK CFI 12f258 .cfa: sp 96 +
STACK CFI 12f270 .cfa: x29 64 + x19: .cfa -8 + ^ x20: .cfa -16 + ^ x21: .cfa -24 + ^ x22: .cfa -32 + ^ x23: .cfa -48 + ^ .ra: .cfa -56 + ^ x29: .cfa -64 + ^ v8: .cfa -72 + ^ v9: .cfa -80 + ^ v10: .cfa -88 + ^ v11: .cfa -96 + ^
STACK CFI 12f4d8 .cfa: sp 96 +
STACK CFI 12f4f0 .cfa: sp 0 +
STACK CFI 12f4f4 .cfa: x29 64 +
STACK CFI 12f54c .cfa: sp 96 +
STACK CFI 12f564 .cfa: sp 0 +
STACK CFI 12f568 .cfa: x29 64 +
STACK CFI INIT 12f574 5c .cfa: sp 0 +
STACK CFI 12f578 .cfa: sp 64 +
STACK CFI 12f584 .cfa: x29 32 + x19: .cfa -16 + ^ .ra: .cfa -24 + ^ x29: .cfa -32 + ^
STACK CFI 12f5bc .cfa: sp 64 +
STACK CFI 12f5c8 .cfa: sp 0 +
STACK CFI 12f5cc .cfa: x29 32 +
STACK CFI INIT 12f5d0 d0 .cfa: sp 0 +
STACK CFI INIT 12f6a0 2bc .cfa: sp 0 +
STACK CFI 12f6a4 .cfa: sp 64 +
STACK CFI 12f6b4 .cfa: x29 64 + x19: .cfa -8 + ^ x20: .cfa -16 + ^ x21: .cfa -24 + ^ x22: .cfa -32 + ^ x23: .cfa -40 + ^ x24: .cfa -48 + ^ .ra: .cfa -56 + ^ x29: .cfa -64 + ^
STACK CFI 12f8c4 .cfa: sp 64 +
STACK CFI 12f8d4 .cfa: sp 0 +
STACK CFI 12f8d8 .cfa: x29 64 +
STACK CFI 12f92c .cfa: sp 64 +
STACK CFI 12f93c .cfa: sp 0 +
STACK CFI 12f940 .cfa: x29 64 +
STACK CFI 12f948 .cfa: sp 64 +
STACK CFI 12f958 .cfa: sp 0 +
STACK CFI INIT 12f95c b8 .cfa: sp 0 +
STACK CFI INIT 12fa14 45c .cfa: sp 0 +
STACK CFI 12fa18 .cfa: sp 96 +
STACK CFI 12fa30 .cfa: x29 96 + x19: .cfa -8 + ^ x20: .cfa -16 + ^ x21: .cfa -24 + ^ x22: .cfa -32 + ^ x23: .cfa -40 + ^ x24: .cfa -48 + ^ x25: .cfa -56 + ^ x26: .cfa -64 + ^ x27: .cfa -80 + ^ .ra: .cfa -88 + ^ x29: .cfa -96 + ^
STACK CFI 12fe54 .cfa: sp 96 +
STACK CFI 12fe6c .cfa: sp 0 +
STACK CFI INIT 12fe70 3c .cfa: sp 0 +
STACK CFI INIT 12feac b0 .cfa: sp 0 +
STACK CFI INIT 12ff5c bc .cfa: sp 0 +
STACK CFI INIT 130018 c0 .cfa: sp 0 +
STACK CFI INIT 1300d8 9f4 .cfa: sp 0 +
STACK CFI 1300e4 .cfa: sp 160 +
STACK CFI 130108 .cfa: x29 96 + x19: .cfa -8 + ^ x20: .cfa -16 + ^ x21: .cfa -24 + ^ x22: .cfa -32 + ^ x23: .cfa -40 + ^ x24: .cfa -48 + ^ x25: .cfa -56 + ^ x26: .cfa -64 + ^ x27: .cfa -72 + ^ x28: .cfa -80 + ^ .ra: .cfa -88 + ^ x29: .cfa -96 + ^ v8: .cfa -104 + ^ v9: .cfa -112 + ^ v10: .cfa -128 + ^
STACK CFI 130aa4 .cfa: sp 160 +
STACK CFI 130ac8 .cfa: sp 0 +
STACK CFI INIT 130acc 5a4 .cfa: sp 0 +
STACK CFI 130ad8 .cfa: sp 112 +
STACK CFI 130af4 .cfa: x29 96 + x19: .cfa -8 + ^ x20: .cfa -16 + ^ x21: .cfa -24 + ^ x22: .cfa -32 + ^ x23: .cfa -40 + ^ x24: .cfa -48 + ^ x25: .cfa -56 + ^ x26: .cfa -64 + ^ x27: .cfa -72 + ^ x28: .cfa -80 + ^ .ra: .cfa -88 + ^ x29: .cfa -96 + ^ v8: .cfa -112 + ^
STACK CFI 131050 .cfa: sp 112 +
STACK CFI 13106c .cfa: sp 0 +
STACK CFI INIT 131070 690 .cfa: sp 0 +
STACK CFI 131074 .cfa: sp 128 +
STACK CFI 131090 .cfa: x29 96 + x19: .cfa -8 + ^ x20: .cfa -16 + ^ x21: .cfa -24 + ^ x22: .cfa -32 + ^ x23: .cfa -40 + ^ x24: .cfa -48 + ^ x25: .cfa -56 + ^ x26: .cfa -64 + ^ x27: .cfa -72 + ^ x28: .cfa -80 + ^ .ra: .cfa -88 + ^ x29: .cfa -96 + ^
STACK CFI 1316e0 .cfa: sp 128 +
STACK CFI 1316fc .cfa: sp 0 +
STACK CFI INIT 131700 63c .cfa: sp 0 +
STACK CFI 131704 .cfa: sp 176 +
STACK CFI 131730 .cfa: x29 96 + x19: .cfa -8 + ^ x20: .cfa -16 + ^ x21: .cfa -24 + ^ x22: .cfa -32 + ^ x23: .cfa -40 + ^ x24: .cfa -48 + ^ x25: .cfa -56 + ^ x26: .cfa -64 + ^ x27: .cfa -72 + ^ x28: .cfa -80 + ^ .ra: .cfa -88 + ^ x29: .cfa -96 + ^ v8: .cfa -104 + ^ v9: .cfa -112 + ^ v10: .cfa -120 + ^ v11: .cfa -128 + ^ v12: .cfa -136 + ^ v13: .cfa -144 + ^ v14: .cfa -152 + ^ v15: .cfa -160 + ^
STACK CFI 131d0c .cfa: sp 176 +
STACK CFI 131d38 .cfa: sp 0 +
STACK CFI INIT 131d3c 248 .cfa: sp 0 +
STACK CFI 131d40 .cfa: sp 64 +
STACK CFI 131d50 .cfa: x29 64 + x19: .cfa -8 + ^ x20: .cfa -16 + ^ x21: .cfa -24 + ^ x22: .cfa -32 + ^ x23: .cfa -40 + ^ x24: .cfa -48 + ^ .ra: .cfa -56 + ^ x29: .cfa -64 + ^
STACK CFI 131d98 .cfa: sp 64 +
STACK CFI 131da8 .cfa: sp 0 +
STACK CFI 131dac .cfa: x29 64 +
STACK CFI 131f70 .cfa: sp 64 +
STACK CFI 131f80 .cfa: sp 0 +
STACK CFI INIT 131f84 970 .cfa: sp 0 +
STACK CFI 131f88 .cfa: sp 144 +
STACK CFI 131fb0 .cfa: x29 88 + x19: .cfa -8 + ^ x20: .cfa -16 + ^ x21: .cfa -24 + ^ x22: .cfa -32 + ^ x23: .cfa -40 + ^ x24: .cfa -48 + ^ x25: .cfa -56 + ^ x26: .cfa -64 + ^ x27: .cfa -72 + ^ .ra: .cfa -80 + ^ x29: .cfa -88 + ^ v8: .cfa -96 + ^ v9: .cfa -104 + ^ v10: .cfa -112 + ^ v11: .cfa -120 + ^ v12: .cfa -128 + ^
STACK CFI 1323b8 .cfa: sp 144 +
STACK CFI 1323e0 .cfa: sp 0 +
STACK CFI 1323e4 .cfa: x29 88 +
STACK CFI 1324e0 .cfa: sp 144 +
STACK CFI 132508 .cfa: sp 0 +
STACK CFI 13250c .cfa: x29 88 +
STACK CFI INIT 1328f4 54c .cfa: sp 0 +
STACK CFI 1328f8 .cfa: sp 192 +
STACK CFI 132924 .cfa: x29 96 + x19: .cfa -8 + ^ x20: .cfa -16 + ^ x21: .cfa -24 + ^ x22: .cfa -32 + ^ x23: .cfa -40 + ^ x24: .cfa -48 + ^ x25: .cfa -56 + ^ x26: .cfa -64 + ^ x27: .cfa -72 + ^ x28: .cfa -80 + ^ .ra: .cfa -88 + ^ x29: .cfa -96 + ^ v8: .cfa -104 + ^ v9: .cfa -112 + ^ v10: .cfa -120 + ^ v11: .cfa -128 + ^ v12: .cfa -136 + ^ v13: .cfa -144 + ^ v14: .cfa -152 + ^ v15: .cfa -160 + ^
STACK CFI 132e10 .cfa: sp 192 +
STACK CFI 132e3c .cfa: sp 0 +
STACK CFI INIT 132e40 5c .cfa: sp 0 +
STACK CFI INIT 132e9c 3c .cfa: sp 0 +
STACK CFI INIT 132ed8 314 .cfa: sp 0 +
STACK CFI 132edc .cfa: sp 176 +
STACK CFI 132f04 .cfa: x29 96 + x19: .cfa -8 + ^ x20: .cfa -16 + ^ x21: .cfa -24 + ^ x22: .cfa -32 + ^ x23: .cfa -40 + ^ x24: .cfa -48 + ^ x25: .cfa -56 + ^ x26: .cfa -64 + ^ x27: .cfa -72 + ^ x28: .cfa -80 + ^ .ra: .cfa -88 + ^ x29: .cfa -96 + ^ v8: .cfa -104 + ^ v9: .cfa -112 + ^ v10: .cfa -120 + ^ v11: .cfa -128 + ^ v12: .cfa -136 + ^ v13: .cfa -144 + ^
STACK CFI 133194 .cfa: sp 176 +
STACK CFI 133198 .cfa: x29 96 +
STACK CFI 1331c0 .cfa: sp 176 +
STACK CFI 1331e8 .cfa: sp 0 +
STACK CFI INIT 1331ec 35c .cfa: sp 0 +
STACK CFI 1331f0 .cfa: sp 144 +
STACK CFI 133214 .cfa: x29 64 + x19: .cfa -8 + ^ x20: .cfa -16 + ^ x21: .cfa -24 + ^ x22: .cfa -32 + ^ x23: .cfa -48 + ^ .ra: .cfa -56 + ^ x29: .cfa -64 + ^ v8: .cfa -72 + ^ v9: .cfa -80 + ^ v10: .cfa -88 + ^ v11: .cfa -96 + ^ v12: .cfa -104 + ^ v13: .cfa -112 + ^ v14: .cfa -120 + ^ v15: .cfa -128 + ^
STACK CFI 133520 .cfa: sp 144 +
STACK CFI 133544 .cfa: sp 0 +
STACK CFI INIT 133548 2f8 .cfa: sp 0 +
STACK CFI 13354c .cfa: sp 144 +
STACK CFI 133570 .cfa: x29 96 + x19: .cfa -8 + ^ x20: .cfa -16 + ^ x21: .cfa -24 + ^ x22: .cfa -32 + ^ x23: .cfa -40 + ^ x24: .cfa -48 + ^ x25: .cfa -56 + ^ x26: .cfa -64 + ^ x27: .cfa -72 + ^ x28: .cfa -80 + ^ .ra: .cfa -88 + ^ x29: .cfa -96 + ^ v8: .cfa -104 + ^ v9: .cfa -112 + ^ v10: .cfa -120 + ^ v11: .cfa -128 + ^
STACK CFI 1337d4 .cfa: sp 144 +
STACK CFI 1337f8 .cfa: sp 0 +
STACK CFI 1337fc .cfa: x29 96 +
STACK CFI 133818 .cfa: sp 144 +
STACK CFI 13383c .cfa: sp 0 +
STACK CFI INIT 133840 31c .cfa: sp 0 +
STACK CFI 133844 .cfa: sp 128 +
STACK CFI 133864 .cfa: x29 64 + x19: .cfa -8 + ^ x20: .cfa -16 + ^ x21: .cfa -24 + ^ x22: .cfa -32 + ^ x23: .cfa -48 + ^ .ra: .cfa -56 + ^ x29: .cfa -64 + ^ v8: .cfa -72 + ^ v9: .cfa -80 + ^ v10: .cfa -88 + ^ v11: .cfa -96 + ^ v12: .cfa -104 + ^ v13: .cfa -112 + ^ v14: .cfa -120 + ^ v15: .cfa -128 + ^
STACK CFI 133b38 .cfa: sp 128 +
STACK CFI 133b58 .cfa: sp 0 +
STACK CFI INIT 133b5c 924 .cfa: sp 0 +
STACK CFI 133b60 .cfa: sp 144 +
STACK CFI 133b80 .cfa: x29 96 + x19: .cfa -8 + ^ x20: .cfa -16 + ^ x21: .cfa -24 + ^ x22: .cfa -32 + ^ x23: .cfa -40 + ^ x24: .cfa -48 + ^ x25: .cfa -56 + ^ x26: .cfa -64 + ^ x27: .cfa -72 + ^ x28: .cfa -80 + ^ .ra: .cfa -88 + ^ x29: .cfa -96 + ^ v8: .cfa -104 + ^ v9: .cfa -112 + ^
STACK CFI 134458 .cfa: sp 144 +
STACK CFI 134478 .cfa: sp 0 +
STACK CFI 13447c .cfa: x29 96 +
STACK CFI INIT 134480 420 .cfa: sp 0 +
STACK CFI 13448c .cfa: sp 96 +
STACK CFI 1344a4 .cfa: x29 80 + x19: .cfa -8 + ^ x20: .cfa -16 + ^ x21: .cfa -24 + ^ x22: .cfa -32 + ^ x23: .cfa -40 + ^ x24: .cfa -48 + ^ x25: .cfa -56 + ^ x26: .cfa -64 + ^ .ra: .cfa -72 + ^ x29: .cfa -80 + ^ v8: .cfa -88 + ^ v9: .cfa -96 + ^
STACK CFI 134884 .cfa: sp 96 +
STACK CFI 13489c .cfa: sp 0 +
STACK CFI INIT 1348a0 d0 .cfa: sp 0 +
STACK CFI 1348a4 .cfa: sp 80 +
STACK CFI 1348b8 .cfa: x29 40 + x19: .cfa -8 + ^ x20: .cfa -16 + ^ x21: .cfa -24 + ^ .ra: .cfa -32 + ^ x29: .cfa -40 + ^ v8: .cfa -48 + ^
STACK CFI 134954 .cfa: sp 80 +
STACK CFI 134968 .cfa: sp 0 +
STACK CFI 13496c .cfa: x29 40 +
STACK CFI INIT 134970 130 .cfa: sp 0 +
STACK CFI 13497c .cfa: sp 48 +
STACK CFI 134988 .cfa: x29 48 + x19: .cfa -8 + ^ x20: .cfa -16 + ^ x21: .cfa -24 + ^ x22: .cfa -32 + ^ .ra: .cfa -40 + ^ x29: .cfa -48 + ^
STACK CFI 134a90 .cfa: sp 48 +
STACK CFI 134a9c .cfa: sp 0 +
STACK CFI INIT 134aa0 160 .cfa: sp 0 +
STACK CFI 134ab8 .cfa: sp 80 +
STACK CFI 134acc .cfa: x29 80 + x19: .cfa -8 + ^ x20: .cfa -16 + ^ x21: .cfa -24 + ^ x22: .cfa -32 + ^ x23: .cfa -40 + ^ x24: .cfa -48 + ^ x25: .cfa -56 + ^ x26: .cfa -64 + ^ .ra: .cfa -72 + ^ x29: .cfa -80 + ^
STACK CFI 134be8 .cfa: sp 80 +
STACK CFI 134bfc .cfa: sp 0 +
STACK CFI INIT 134c00 7d4 .cfa: sp 0 +
STACK CFI 134c0c .cfa: sp 112 +
STACK CFI 134c28 .cfa: x29 96 + x19: .cfa -8 + ^ x20: .cfa -16 + ^ x21: .cfa -24 + ^ x22: .cfa -32 + ^ x23: .cfa -40 + ^ x24: .cfa -48 + ^ x25: .cfa -56 + ^ x26: .cfa -64 + ^ x27: .cfa -72 + ^ x28: .cfa -80 + ^ .ra: .cfa -88 + ^ x29: .cfa -96 + ^ v8: .cfa -112 + ^
STACK CFI 1353b4 .cfa: sp 112 +
STACK CFI 1353d0 .cfa: sp 0 +
STACK CFI INIT 1353d4 7c0 .cfa: sp 0 +
STACK CFI 1353e0 .cfa: sp 96 +
STACK CFI 1353f8 .cfa: x29 96 + x19: .cfa -8 + ^ x20: .cfa -16 + ^ x21: .cfa -24 + ^ x22: .cfa -32 + ^ x23: .cfa -40 + ^ x24: .cfa -48 + ^ x25: .cfa -56 + ^ x26: .cfa -64 + ^ x27: .cfa -72 + ^ x28: .cfa -80 + ^ .ra: .cfa -88 + ^ x29: .cfa -96 + ^
STACK CFI 135b78 .cfa: sp 96 +
STACK CFI 135b90 .cfa: sp 0 +
STACK CFI INIT 135b94 5e8 .cfa: sp 0 +
STACK CFI 135ba0 .cfa: sp 112 +
STACK CFI 135bbc .cfa: x29 96 + x19: .cfa -8 + ^ x20: .cfa -16 + ^ x21: .cfa -24 + ^ x22: .cfa -32 + ^ x23: .cfa -40 + ^ x24: .cfa -48 + ^ x25: .cfa -56 + ^ x26: .cfa -64 + ^ x27: .cfa -72 + ^ x28: .cfa -80 + ^ .ra: .cfa -88 + ^ x29: .cfa -96 + ^ v8: .cfa -112 + ^
STACK CFI 13615c .cfa: sp 112 +
STACK CFI 136178 .cfa: sp 0 +
STACK CFI INIT 13617c 5d4 .cfa: sp 0 +
STACK CFI 136188 .cfa: sp 96 +
STACK CFI 1361a0 .cfa: x29 96 + x19: .cfa -8 + ^ x20: .cfa -16 + ^ x21: .cfa -24 + ^ x22: .cfa -32 + ^ x23: .cfa -40 + ^ x24: .cfa -48 + ^ x25: .cfa -56 + ^ x26: .cfa -64 + ^ x27: .cfa -72 + ^ x28: .cfa -80 + ^ .ra: .cfa -88 + ^ x29: .cfa -96 + ^
STACK CFI 136734 .cfa: sp 96 +
STACK CFI 13674c .cfa: sp 0 +
STACK CFI INIT 136750 e4 .cfa: sp 0 +
STACK CFI 136754 .cfa: sp 48 +
STACK CFI 136760 .cfa: x29 32 + x19: .cfa -8 + ^ x20: .cfa -16 + ^ .ra: .cfa -24 + ^ x29: .cfa -32 + ^ v8: .cfa -48 + ^
STACK CFI 136824 .cfa: sp 48 +
STACK CFI 136830 .cfa: sp 0 +
STACK CFI INIT 136834 c0 .cfa: sp 0 +
STACK CFI 13684c .cfa: sp 32 +
STACK CFI 136854 .cfa: x29 32 + x19: .cfa -8 + ^ x20: .cfa -16 + ^ .ra: .cfa -24 + ^ x29: .cfa -32 + ^
STACK CFI 1368e8 .cfa: sp 32 +
STACK CFI 1368f0 .cfa: sp 0 +
STACK CFI INIT 1368f4 90 .cfa: sp 0 +
STACK CFI 136908 .cfa: sp 48 +
STACK CFI 136914 .cfa: x29 32 + x19: .cfa -8 + ^ x20: .cfa -16 + ^ .ra: .cfa -24 + ^ x29: .cfa -32 + ^ v8: .cfa -48 + ^
STACK CFI 136974 .cfa: sp 48 +
STACK CFI 136980 .cfa: sp 0 +
STACK CFI INIT 136984 74 .cfa: sp 0 +
STACK CFI 136998 .cfa: sp 32 +
STACK CFI 1369a0 .cfa: x29 32 + x19: .cfa -8 + ^ x20: .cfa -16 + ^ .ra: .cfa -24 + ^ x29: .cfa -32 + ^
STACK CFI 1369ec .cfa: sp 32 +
STACK CFI 1369f4 .cfa: sp 0 +
STACK CFI INIT 1369f8 148 .cfa: sp 0 +
STACK CFI 136a04 .cfa: sp 64 +
STACK CFI 136a14 .cfa: x29 48 + x19: .cfa -8 + ^ x20: .cfa -16 + ^ x21: .cfa -24 + ^ x22: .cfa -32 + ^ .ra: .cfa -40 + ^ x29: .cfa -48 + ^ v8: .cfa -56 + ^ v9: .cfa -64 + ^
STACK CFI 136b2c .cfa: sp 64 +
STACK CFI 136b3c .cfa: sp 0 +
STACK CFI INIT 136b40 13c .cfa: sp 0 +
STACK CFI 136b4c .cfa: sp 64 +
STACK CFI 136b5c .cfa: x29 48 + x19: .cfa -8 + ^ x20: .cfa -16 + ^ x21: .cfa -24 + ^ x22: .cfa -32 + ^ .ra: .cfa -40 + ^ x29: .cfa -48 + ^ v8: .cfa -64 + ^
STACK CFI 136c68 .cfa: sp 64 +
STACK CFI 136c78 .cfa: sp 0 +
STACK CFI INIT 136c7c 294 .cfa: sp 0 +
STACK CFI 136c88 .cfa: sp 112 +
STACK CFI 136ca4 .cfa: x29 96 + x19: .cfa -8 + ^ x20: .cfa -16 + ^ x21: .cfa -24 + ^ x22: .cfa -32 + ^ x23: .cfa -40 + ^ x24: .cfa -48 + ^ x25: .cfa -56 + ^ x26: .cfa -64 + ^ x27: .cfa -72 + ^ x28: .cfa -80 + ^ .ra: .cfa -88 + ^ x29: .cfa -96 + ^ v8: .cfa -112 + ^
STACK CFI 136ef0 .cfa: sp 112 +
STACK CFI 136f0c .cfa: sp 0 +
STACK CFI INIT 136f10 284 .cfa: sp 0 +
STACK CFI 136f1c .cfa: sp 112 +
STACK CFI 136f38 .cfa: x29 96 + x19: .cfa -8 + ^ x20: .cfa -16 + ^ x21: .cfa -24 + ^ x22: .cfa -32 + ^ x23: .cfa -40 + ^ x24: .cfa -48 + ^ x25: .cfa -56 + ^ x26: .cfa -64 + ^ x27: .cfa -72 + ^ x28: .cfa -80 + ^ .ra: .cfa -88 + ^ x29: .cfa -96 + ^ v8: .cfa -112 + ^
STACK CFI 137174 .cfa: sp 112 +
STACK CFI 137190 .cfa: sp 0 +
STACK CFI INIT 137194 13c .cfa: sp 0 +
STACK CFI 137198 .cfa: sp 128 +
STACK CFI 1371b4 .cfa: x29 80 + x19: .cfa -8 + ^ x20: .cfa -16 + ^ x21: .cfa -24 + ^ x22: .cfa -32 + ^ x23: .cfa -40 + ^ x24: .cfa -48 + ^ x25: .cfa -64 + ^ .ra: .cfa -72 + ^ x29: .cfa -80 + ^ v8: .cfa -88 + ^ v9: .cfa -96 + ^
STACK CFI 137260 .cfa: sp 128 +
STACK CFI 13727c .cfa: sp 0 +
STACK CFI 137280 .cfa: x29 80 +
STACK CFI INIT 1372d0 74c .cfa: sp 0 +
STACK CFI 1372d4 .cfa: sp 224 +
STACK CFI 137300 .cfa: x29 96 + x19: .cfa -8 + ^ x20: .cfa -16 + ^ x21: .cfa -24 + ^ x22: .cfa -32 + ^ x23: .cfa -40 + ^ x24: .cfa -48 + ^ x25: .cfa -56 + ^ x26: .cfa -64 + ^ x27: .cfa -72 + ^ x28: .cfa -80 + ^ .ra: .cfa -88 + ^ x29: .cfa -96 + ^ v8: .cfa -104 + ^ v9: .cfa -112 + ^ v10: .cfa -120 + ^ v11: .cfa -128 + ^ v12: .cfa -136 + ^ v13: .cfa -144 + ^ v14: .cfa -152 + ^ v15: .cfa -160 + ^
STACK CFI 1379d8 .cfa: sp 224 +
STACK CFI 137a04 .cfa: sp 0 +
STACK CFI 137a08 .cfa: x29 96 +
STACK CFI INIT 137a1c cc .cfa: sp 0 +
STACK CFI 137a20 .cfa: sp 96 +
STACK CFI 137a34 .cfa: x29 64 + x19: .cfa -8 + ^ x20: .cfa -16 + ^ x21: .cfa -24 + ^ x22: .cfa -32 + ^ x23: .cfa -48 + ^ .ra: .cfa -56 + ^ x29: .cfa -64 + ^
STACK CFI 137acc .cfa: sp 96 +
STACK CFI 137ae0 .cfa: sp 0 +
STACK CFI 137ae4 .cfa: x29 64 +
STACK CFI INIT 137ae8 2d0 .cfa: sp 0 +
STACK CFI 137aec .cfa: sp 64 +
STACK CFI 137afc .cfa: x29 64 + x19: .cfa -8 + ^ x20: .cfa -16 + ^ x21: .cfa -24 + ^ x22: .cfa -32 + ^ x23: .cfa -40 + ^ x24: .cfa -48 + ^ .ra: .cfa -56 + ^ x29: .cfa -64 + ^
STACK CFI 137cd8 .cfa: sp 64 +
STACK CFI 137ce8 .cfa: sp 0 +
STACK CFI 137cec .cfa: x29 64 +
STACK CFI 137d20 .cfa: sp 64 +
STACK CFI 137d30 .cfa: sp 0 +
STACK CFI 137d34 .cfa: x29 64 +
STACK CFI 137d88 .cfa: sp 64 +
STACK CFI 137d98 .cfa: sp 0 +
STACK CFI 137d9c .cfa: x29 64 +
STACK CFI 137da4 .cfa: sp 64 +
STACK CFI 137db4 .cfa: sp 0 +
STACK CFI INIT 137db8 2cc .cfa: sp 0 +
STACK CFI 137dbc .cfa: sp 96 +
STACK CFI 137dd4 .cfa: x29 96 + x19: .cfa -8 + ^ x20: .cfa -16 + ^ x21: .cfa -24 + ^ x22: .cfa -32 + ^ x23: .cfa -40 + ^ x24: .cfa -48 + ^ x25: .cfa -56 + ^ x26: .cfa -64 + ^ x27: .cfa -72 + ^ x28: .cfa -80 + ^ .ra: .cfa -88 + ^ x29: .cfa -96 + ^
STACK CFI 137fec .cfa: sp 96 +
STACK CFI 138004 .cfa: sp 0 +
STACK CFI 138008 .cfa: x29 96 +
STACK CFI 13805c .cfa: sp 96 +
STACK CFI 138074 .cfa: sp 0 +
STACK CFI 138078 .cfa: x29 96 +
STACK CFI INIT 138084 6b0 .cfa: sp 0 +
STACK CFI 138088 .cfa: sp 96 +
STACK CFI 1380a4 .cfa: x29 88 + x19: .cfa -8 + ^ x20: .cfa -16 + ^ x21: .cfa -24 + ^ x22: .cfa -32 + ^ x23: .cfa -40 + ^ x24: .cfa -48 + ^ x25: .cfa -56 + ^ x26: .cfa -64 + ^ x27: .cfa -72 + ^ .ra: .cfa -80 + ^ x29: .cfa -88 + ^ v8: .cfa -96 + ^
STACK CFI 1380ac .cfa: sp 96 +
STACK CFI 1380c8 .cfa: sp 0 +
STACK CFI 1380cc .cfa: x29 88 +
STACK CFI 1383c8 .cfa: sp 96 +
STACK CFI 1383e4 .cfa: sp 0 +
STACK CFI 1383e8 .cfa: x29 88 +
STACK CFI 1386b0 .cfa: sp 96 +
STACK CFI 1386cc .cfa: sp 0 +
STACK CFI 1386d0 .cfa: x29 88 +
STACK CFI INIT 138734 408 .cfa: sp 0 +
STACK CFI INIT 138b3c 274 .cfa: sp 0 +
STACK CFI INIT 138db0 88 .cfa: sp 0 +
STACK CFI INIT 138e38 80 .cfa: sp 0 +
STACK CFI INIT 138eb8 16c .cfa: sp 0 +
STACK CFI INIT 139024 d4 .cfa: sp 0 +
STACK CFI INIT 1390f8 2e8 .cfa: sp 0 +
STACK CFI 1390fc .cfa: sp 32 +
STACK CFI 139104 .cfa: x29 32 + x19: .cfa -8 + ^ x20: .cfa -16 + ^ .ra: .cfa -24 + ^ x29: .cfa -32 + ^
STACK CFI 139390 .cfa: sp 32 +
STACK CFI 139398 .cfa: sp 0 +
STACK CFI 13939c .cfa: x29 32 +
STACK CFI INIT 1393e0 4c .cfa: sp 0 +
STACK CFI INIT 13942c 1fc .cfa: sp 0 +
STACK CFI INIT 139628 838 .cfa: sp 0 +
STACK CFI 13962c .cfa: sp 192 +
STACK CFI 13964c .cfa: x29 96 + x19: .cfa -8 + ^ x20: .cfa -16 + ^ x21: .cfa -24 + ^ x22: .cfa -32 + ^ x23: .cfa -40 + ^ x24: .cfa -48 + ^ x25: .cfa -56 + ^ x26: .cfa -64 + ^ x27: .cfa -72 + ^ x28: .cfa -80 + ^ .ra: .cfa -88 + ^ x29: .cfa -96 + ^ v8: .cfa -112 + ^
STACK CFI 139e38 .cfa: sp 192 +
STACK CFI 139e58 .cfa: sp 0 +
STACK CFI 139e5c .cfa: x29 96 +
STACK CFI INIT 139e60 5ac .cfa: sp 0 +
STACK CFI 139e64 .cfa: sp 96 +
STACK CFI 139e7c .cfa: x29 96 + x19: .cfa -8 + ^ x20: .cfa -16 + ^ x21: .cfa -24 + ^ x22: .cfa -32 + ^ x23: .cfa -40 + ^ x24: .cfa -48 + ^ x25: .cfa -56 + ^ x26: .cfa -64 + ^ x27: .cfa -72 + ^ x28: .cfa -80 + ^ .ra: .cfa -88 + ^ x29: .cfa -96 + ^
STACK CFI 13a3f0 .cfa: sp 96 +
STACK CFI 13a408 .cfa: sp 0 +
STACK CFI INIT 13a40c d8 .cfa: sp 0 +
STACK CFI INIT 13a4e4 1d0 .cfa: sp 0 +
STACK CFI 13a4e8 .cfa: sp 48 +
STACK CFI 13a4f4 .cfa: x29 48 + x19: .cfa -8 + ^ x20: .cfa -16 + ^ x21: .cfa -24 + ^ x22: .cfa -32 + ^ .ra: .cfa -40 + ^ x29: .cfa -48 + ^
STACK CFI 13a6a4 .cfa: sp 48 +
STACK CFI 13a6b0 .cfa: sp 0 +
STACK CFI INIT 13a6b4 260 .cfa: sp 0 +
STACK CFI 13a6c0 .cfa: sp 80 +
STACK CFI 13a6d4 .cfa: x29 80 + x19: .cfa -8 + ^ x20: .cfa -16 + ^ x21: .cfa -24 + ^ x22: .cfa -32 + ^ x23: .cfa -40 + ^ x24: .cfa -48 + ^ x25: .cfa -64 + ^ .ra: .cfa -72 + ^ x29: .cfa -80 + ^
STACK CFI 13a8fc .cfa: sp 80 +
STACK CFI 13a910 .cfa: sp 0 +
STACK CFI INIT 13a914 40 .cfa: sp 0 +
STACK CFI INIT 13af50 5c .cfa: sp 0 +
STACK CFI INIT 13afac 264 .cfa: sp 0 +
STACK CFI 13afb8 .cfa: sp 32 +
STACK CFI 13afbc v8: .cfa -8 + ^ v9: .cfa -16 + ^ v10: .cfa -24 + ^ v11: .cfa -32 + ^
STACK CFI 13b20c .cfa: sp 0 +
STACK CFI INIT 13b210 5c .cfa: sp 0 +
STACK CFI INIT 13b26c 48 .cfa: sp 0 +
STACK CFI INIT 13b2b4 3c .cfa: sp 0 +
STACK CFI 13b2b8 .cfa: sp 32 +
STACK CFI 13b2c0 .cfa: x29 32 + x19: .cfa -16 + ^ .ra: .cfa -24 + ^ x29: .cfa -32 + ^
STACK CFI 13b2e4 .cfa: sp 32 +
STACK CFI 13b2ec .cfa: sp 0 +
STACK CFI INIT 13b53c 344 .cfa: sp 0 +
STACK CFI 13b540 .cfa: sp 96 +
STACK CFI 13b558 .cfa: x29 96 + x19: .cfa -8 + ^ x20: .cfa -16 + ^ x21: .cfa -24 + ^ x22: .cfa -32 + ^ x23: .cfa -40 + ^ x24: .cfa -48 + ^ x25: .cfa -56 + ^ x26: .cfa -64 + ^ x27: .cfa -72 + ^ x28: .cfa -80 + ^ .ra: .cfa -88 + ^ x29: .cfa -96 + ^
STACK CFI 13b864 .cfa: sp 96 +
STACK CFI 13b87c .cfa: sp 0 +
STACK CFI INIT 13b880 2e4 .cfa: sp 0 +
STACK CFI 13b884 .cfa: sp 96 +
STACK CFI 13b89c .cfa: x29 96 + x19: .cfa -8 + ^ x20: .cfa -16 + ^ x21: .cfa -24 + ^ x22: .cfa -32 + ^ x23: .cfa -40 + ^ x24: .cfa -48 + ^ x25: .cfa -56 + ^ x26: .cfa -64 + ^ x27: .cfa -72 + ^ x28: .cfa -80 + ^ .ra: .cfa -88 + ^ x29: .cfa -96 + ^
STACK CFI 13bb48 .cfa: sp 96 +
STACK CFI 13bb60 .cfa: sp 0 +
STACK CFI INIT 13bb64 1a0 .cfa: sp 0 +
STACK CFI 13bb68 .cfa: sp 64 +
STACK CFI 13bb78 .cfa: x29 64 + x19: .cfa -8 + ^ x20: .cfa -16 + ^ x21: .cfa -24 + ^ x22: .cfa -32 + ^ x23: .cfa -48 + ^ .ra: .cfa -56 + ^ x29: .cfa -64 + ^
STACK CFI 13bcf0 .cfa: sp 64 +
STACK CFI 13bd00 .cfa: sp 0 +
STACK CFI INIT 13bd04 1dc .cfa: sp 0 +
STACK CFI 13bd08 .cfa: sp 96 +
STACK CFI 13bd20 .cfa: x29 96 + x19: .cfa -8 + ^ x20: .cfa -16 + ^ x21: .cfa -24 + ^ x22: .cfa -32 + ^ x23: .cfa -40 + ^ x24: .cfa -48 + ^ x25: .cfa -56 + ^ x26: .cfa -64 + ^ x27: .cfa -72 + ^ x28: .cfa -80 + ^ .ra: .cfa -88 + ^ x29: .cfa -96 + ^
STACK CFI 13bec4 .cfa: sp 96 +
STACK CFI 13bedc .cfa: sp 0 +
STACK CFI INIT 13bee0 174 .cfa: sp 0 +
STACK CFI 13bee4 .cfa: sp 240 +
STACK CFI 13befc .cfa: x29 80 + x19: .cfa -8 + ^ x20: .cfa -16 + ^ x21: .cfa -24 + ^ x22: .cfa -32 + ^ x23: .cfa -40 + ^ x24: .cfa -48 + ^ x25: .cfa -64 + ^ .ra: .cfa -72 + ^ x29: .cfa -80 + ^
STACK CFI 13c034 .cfa: sp 240 +
STACK CFI 13c04c .cfa: sp 0 +
STACK CFI 13c050 .cfa: x29 80 +
STACK CFI INIT 13c054 138 .cfa: sp 0 +
STACK CFI 13c058 .cfa: sp 208 +
STACK CFI 13c068 .cfa: x29 48 + x19: .cfa -8 + ^ x20: .cfa -16 + ^ x21: .cfa -32 + ^ .ra: .cfa -40 + ^ x29: .cfa -48 + ^
STACK CFI 13c0a8 .cfa: sp 208 +
STACK CFI 13c0b8 .cfa: sp 0 +
STACK CFI 13c0bc .cfa: x29 48 +
STACK CFI INIT 13c18c 3c0 .cfa: sp 0 +
STACK CFI 13c190 .cfa: sp 240 +
STACK CFI 13c1a8 .cfa: x29 80 + x19: .cfa -8 + ^ x20: .cfa -16 + ^ x21: .cfa -24 + ^ x22: .cfa -32 + ^ x23: .cfa -40 + ^ x24: .cfa -48 + ^ x25: .cfa -64 + ^ .ra: .cfa -72 + ^ x29: .cfa -80 + ^
STACK CFI 13c518 .cfa: sp 240 +
STACK CFI 13c530 .cfa: sp 0 +
STACK CFI 13c534 .cfa: x29 80 +
STACK CFI INIT 13c54c 7d0 .cfa: sp 0 +
STACK CFI 13c550 .cfa: sp 80 +
STACK CFI 13c564 .cfa: x29 80 + x19: .cfa -8 + ^ x20: .cfa -16 + ^ x21: .cfa -24 + ^ x22: .cfa -32 + ^ x23: .cfa -40 + ^ x24: .cfa -48 + ^ x25: .cfa -56 + ^ x26: .cfa -64 + ^ .ra: .cfa -72 + ^ x29: .cfa -80 + ^
STACK CFI 13cd04 .cfa: sp 80 +
STACK CFI 13cd18 .cfa: sp 0 +
STACK CFI INIT 13cd1c 58 .cfa: sp 0 +
STACK CFI INIT 13cd74 11c .cfa: sp 0 +
STACK CFI 13cd78 .cfa: sp 192 +
STACK CFI 13cd84 .cfa: x29 32 + x19: .cfa -8 + ^ x20: .cfa -16 + ^ .ra: .cfa -24 + ^ x29: .cfa -32 + ^
STACK CFI 13ce54 .cfa: sp 192 +
STACK CFI 13ce60 .cfa: sp 0 +
STACK CFI 13ce64 .cfa: x29 32 +
STACK CFI INIT 13ce90 c .cfa: sp 0 +
STACK CFI INIT 13ce9c 280 .cfa: sp 0 +
STACK CFI 13cea0 .cfa: sp 80 +
STACK CFI 13ceb8 .cfa: x29 72 + x19: .cfa -8 + ^ x20: .cfa -16 + ^ x21: .cfa -24 + ^ x22: .cfa -32 + ^ x23: .cfa -40 + ^ x24: .cfa -48 + ^ x25: .cfa -56 + ^ .ra: .cfa -64 + ^ x29: .cfa -72 + ^ v8: .cfa -80 + ^
STACK CFI 13d100 .cfa: sp 80 +
STACK CFI 13d118 .cfa: sp 0 +
STACK CFI INIT 13d11c 190 .cfa: sp 0 +
STACK CFI 13d120 .cfa: sp 416 +
STACK CFI 13d13c .cfa: x29 80 + x19: .cfa -8 + ^ x20: .cfa -16 + ^ x21: .cfa -24 + ^ x22: .cfa -32 + ^ x23: .cfa -40 + ^ x24: .cfa -48 + ^ x25: .cfa -56 + ^ x28: .cfa -64 + ^ .ra: .cfa -72 + ^ x29: .cfa -80 + ^ v8: .cfa -96 + ^
STACK CFI 13d288 .cfa: sp 416 +
STACK CFI 13d2a4 .cfa: sp 0 +
STACK CFI 13d2a8 .cfa: x29 80 +
STACK CFI INIT 13d2ac d0 .cfa: sp 0 +
STACK CFI 13d2b0 .cfa: sp 224 +
STACK CFI 13d2c8 .cfa: x29 56 + x19: .cfa -8 + ^ x20: .cfa -16 + ^ x21: .cfa -24 + ^ x22: .cfa -32 + ^ x23: .cfa -40 + ^ .ra: .cfa -48 + ^ x29: .cfa -56 + ^ v8: .cfa -64 + ^
STACK CFI 13d35c .cfa: sp 224 +
STACK CFI 13d374 .cfa: sp 0 +
STACK CFI 13d378 .cfa: x29 56 +
STACK CFI INIT 13d37c 8a4 .cfa: sp 0 +
STACK CFI 13d380 .cfa: sp 432 +
STACK CFI 13d3a0 .cfa: x29 96 + x19: .cfa -8 + ^ x20: .cfa -16 + ^ x21: .cfa -24 + ^ x22: .cfa -32 + ^ x23: .cfa -40 + ^ x24: .cfa -48 + ^ x25: .cfa -56 + ^ x26: .cfa -64 + ^ x27: .cfa -72 + ^ x28: .cfa -80 + ^ .ra: .cfa -88 + ^ x29: .cfa -96 + ^ v8: .cfa -112 + ^
STACK CFI 13d548 .cfa: sp 432 +
STACK CFI 13d568 .cfa: sp 0 +
STACK CFI 13d56c .cfa: x29 96 +
STACK CFI INIT 13dc20 268 .cfa: sp 0 +
STACK CFI 13dc24 .cfa: sp 112 +
STACK CFI 13dc3c .cfa: x29 80 + x19: .cfa -8 + ^ x20: .cfa -16 + ^ x21: .cfa -24 + ^ x22: .cfa -32 + ^ x23: .cfa -40 + ^ x24: .cfa -48 + ^ x25: .cfa -56 + ^ x26: .cfa -64 + ^ .ra: .cfa -72 + ^ x29: .cfa -80 + ^
STACK CFI 13de68 .cfa: sp 112 +
STACK CFI 13de80 .cfa: sp 0 +
STACK CFI 13de84 .cfa: x29 80 +
STACK CFI INIT 13de88 254 .cfa: sp 0 +
STACK CFI 13de8c .cfa: sp 112 +
STACK CFI 13dea8 .cfa: x29 96 + x19: .cfa -8 + ^ x20: .cfa -16 + ^ x21: .cfa -24 + ^ x22: .cfa -32 + ^ x23: .cfa -40 + ^ x24: .cfa -48 + ^ x25: .cfa -56 + ^ x26: .cfa -64 + ^ x27: .cfa -72 + ^ x28: .cfa -80 + ^ .ra: .cfa -88 + ^ x29: .cfa -96 + ^ v8: .cfa -112 + ^
STACK CFI 13e0bc .cfa: sp 112 +
STACK CFI 13e0d8 .cfa: sp 0 +
STACK CFI INIT 13e0dc 54 .cfa: sp 0 +
STACK CFI INIT 13e130 b8 .cfa: sp 0 +
STACK CFI INIT 13e1e8 18 .cfa: sp 0 +
STACK CFI INIT 13e200 600 .cfa: sp 0 +
STACK CFI 13e204 .cfa: sp 48 +
STACK CFI 13e20c v8: .cfa -8 + ^ v9: .cfa -16 + ^ v10: .cfa -24 + ^ v11: .cfa -32 + ^ v12: .cfa -48 + ^
STACK CFI 13e7fc .cfa: sp 0 +
STACK CFI INIT 13e800 54 .cfa: sp 0 +
STACK CFI INIT 1453ec 2a0 .cfa: sp 0 +
STACK CFI 1453fc .cfa: sp 80 +
STACK CFI 145410 .cfa: x29 64 + x19: .cfa -8 + ^ x20: .cfa -16 + ^ x21: .cfa -24 + ^ x22: .cfa -32 + ^ x23: .cfa -40 + ^ x24: .cfa -48 + ^ .ra: .cfa -56 + ^ x29: .cfa -64 + ^ v8: .cfa -72 + ^ v9: .cfa -80 + ^
STACK CFI 145674 .cfa: sp 80 +
STACK CFI 145688 .cfa: sp 0 +
STACK CFI INIT 14568c 268 .cfa: sp 0 +
STACK CFI 145690 .cfa: sp 48 +
STACK CFI 14569c .cfa: x29 48 + x19: .cfa -8 + ^ x20: .cfa -16 + ^ x21: .cfa -24 + ^ x22: .cfa -32 + ^ .ra: .cfa -40 + ^ x29: .cfa -48 + ^
STACK CFI 1458e4 .cfa: sp 48 +
STACK CFI 1458f0 .cfa: sp 0 +
STACK CFI INIT 145bd4 568 .cfa: sp 0 +
STACK CFI 145bd8 .cfa: sp 128 +
STACK CFI 145bf4 .cfa: x29 96 + x19: .cfa -8 + ^ x20: .cfa -16 + ^ x21: .cfa -24 + ^ x22: .cfa -32 + ^ x23: .cfa -40 + ^ x24: .cfa -48 + ^ x25: .cfa -56 + ^ x26: .cfa -64 + ^ x27: .cfa -72 + ^ x28: .cfa -80 + ^ .ra: .cfa -88 + ^ x29: .cfa -96 + ^
STACK CFI 14611c .cfa: sp 128 +
STACK CFI 146138 .cfa: sp 0 +
STACK CFI INIT 146208 128 .cfa: sp 0 +
STACK CFI INIT 146330 1b0 .cfa: sp 0 +
STACK CFI 146344 .cfa: sp 16 + x19: .cfa -16 + ^
STACK CFI 1464dc .cfa: sp 0 +
STACK CFI INIT 1464e0 144 .cfa: sp 0 +
STACK CFI 1464e4 .cfa: sp 32 +
STACK CFI 1464ec .cfa: x29 32 + x19: .cfa -16 + ^ .ra: .cfa -24 + ^ x29: .cfa -32 + ^
STACK CFI 1465ac .cfa: sp 32 +
STACK CFI 1465b4 .cfa: sp 0 +
STACK CFI 1465b8 .cfa: x29 32 +
STACK CFI 146618 .cfa: sp 32 +
STACK CFI 146620 .cfa: sp 0 +
STACK CFI INIT 146624 6700 .cfa: sp 0 +
STACK CFI 146628 .cfa: sp 240 +
STACK CFI 146644 .cfa: x29 96 + x19: .cfa -8 + ^ x20: .cfa -16 + ^ x21: .cfa -24 + ^ x22: .cfa -32 + ^ x23: .cfa -40 + ^ x24: .cfa -48 + ^ x25: .cfa -56 + ^ x26: .cfa -64 + ^ x27: .cfa -72 + ^ x28: .cfa -80 + ^ .ra: .cfa -88 + ^ x29: .cfa -96 + ^
STACK CFI 14cd04 .cfa: sp 240 +
STACK CFI 14cd20 .cfa: sp 0 +
STACK CFI INIT 14cd24 344 .cfa: sp 0 +
STACK CFI 14cd28 .cfa: sp 144 +
STACK CFI 14cd4c .cfa: x29 80 + x19: .cfa -8 + ^ x20: .cfa -16 + ^ x21: .cfa -24 + ^ x22: .cfa -32 + ^ x23: .cfa -40 + ^ x24: .cfa -48 + ^ x25: .cfa -64 + ^ .ra: .cfa -72 + ^ x29: .cfa -80 + ^ v8: .cfa -88 + ^ v9: .cfa -96 + ^ v10: .cfa -104 + ^ v11: .cfa -112 + ^ v12: .cfa -120 + ^ v13: .cfa -128 + ^ v14: .cfa -136 + ^ v15: .cfa -144 + ^
STACK CFI 14d040 .cfa: sp 144 +
STACK CFI 14d064 .cfa: sp 0 +
STACK CFI INIT 14d068 a14 .cfa: sp 0 +
STACK CFI 14d06c .cfa: sp 96 +
STACK CFI 14d084 .cfa: x29 96 + x19: .cfa -8 + ^ x20: .cfa -16 + ^ x21: .cfa -24 + ^ x22: .cfa -32 + ^ x23: .cfa -40 + ^ x24: .cfa -48 + ^ x25: .cfa -56 + ^ x26: .cfa -64 + ^ x27: .cfa -80 + ^ .ra: .cfa -88 + ^ x29: .cfa -96 + ^
STACK CFI 14da60 .cfa: sp 96 +
STACK CFI 14da78 .cfa: sp 0 +
STACK CFI INIT 14da7c c .cfa: sp 0 +
STACK CFI INIT 14da88 c .cfa: sp 0 +
STACK CFI INIT 14da94 c .cfa: sp 0 +
STACK CFI INIT 14daa0 78 .cfa: sp 0 +
STACK CFI INIT 14db18 78 .cfa: sp 0 +
STACK CFI INIT 14db90 c .cfa: sp 0 +
STACK CFI INIT 14db9c c .cfa: sp 0 +
STACK CFI INIT 14dba8 c .cfa: sp 0 +
STACK CFI INIT 14dbb4 100 .cfa: sp 0 +
STACK CFI 14dbb8 .cfa: sp 80 +
STACK CFI 14dbcc .cfa: x29 64 + x19: .cfa -8 + ^ x20: .cfa -16 + ^ x21: .cfa -24 + ^ x22: .cfa -32 + ^ x23: .cfa -48 + ^ .ra: .cfa -56 + ^ x29: .cfa -64 + ^
STACK CFI 14dc98 .cfa: sp 80 +
STACK CFI 14dcac .cfa: sp 0 +
STACK CFI 14dcb0 .cfa: x29 64 +
STACK CFI INIT 14dcb4 58 .cfa: sp 0 +
STACK CFI INIT 14dd0c 5fc .cfa: sp 0 +
STACK CFI 14dd10 .cfa: sp 96 +
STACK CFI 14dd28 .cfa: x29 96 + x19: .cfa -8 + ^ x20: .cfa -16 + ^ x21: .cfa -24 + ^ x22: .cfa -32 + ^ x23: .cfa -40 + ^ x24: .cfa -48 + ^ x25: .cfa -56 + ^ x26: .cfa -64 + ^ x27: .cfa -72 + ^ x28: .cfa -80 + ^ .ra: .cfa -88 + ^ x29: .cfa -96 + ^
STACK CFI 14e2ec .cfa: sp 96 +
STACK CFI 14e304 .cfa: sp 0 +
STACK CFI INIT 14e308 44 .cfa: sp 0 +
STACK CFI INIT 14e7c8 404 .cfa: sp 0 +
STACK CFI 14e7d8 .cfa: sp 80 +
STACK CFI 14e7ec .cfa: x29 80 + x19: .cfa -8 + ^ x20: .cfa -16 + ^ x21: .cfa -24 + ^ x22: .cfa -32 + ^ x23: .cfa -40 + ^ x24: .cfa -48 + ^ x25: .cfa -64 + ^ .ra: .cfa -72 + ^ x29: .cfa -80 + ^
STACK CFI 14ebb4 .cfa: sp 80 +
STACK CFI 14ebc8 .cfa: sp 0 +
STACK CFI INIT 14ebcc 3c .cfa: sp 0 +
STACK CFI INIT 14ec08 60 .cfa: sp 0 +
STACK CFI INIT 14ec68 3c .cfa: sp 0 +
STACK CFI INIT 14eca4 64 .cfa: sp 0 +
STACK CFI INIT 14ed08 d8 .cfa: sp 0 +
STACK CFI 14ed0c .cfa: sp 48 +
