MODULE Linux arm64 B9E7417B11CAA3775943ACCE44E7448D0 hiimjustin000.level_size.android64.so
INFO CODE_ID 7B41E7B9CA1177A35943ACCE44E7448DC2C0439E
INFO GENERATOR mozilla/dump_syms 2.3.4
PUBLIC 7b20 0 __on_dlclose
PUBLIC 7b30 0 __emutls_unregister_key
PUBLIC 7b38 0 __on_dlclose_late
PUBLIC 7b40 0 __atexit_handler_wrapper
PUBLIC 7b54 0 atexit
PUBLIC 7b70 0 pthread_atfork
PUBLIC 7b80 0 __aarch64_ldadd8_relax
PUBLIC 7bb0 0 init_have_lse_atomics
PUBLIC 7c48 0 __init_cpu_features_constructor
PUBLIC 81e4 0 __init_cpu_features
PUBLIC 8270 0 __aarch64_ldadd8_acq_rel
PUBLIC 82a0 0 __cxx_global_var_init
PUBLIC 8724 0 geode::modifier::ModifyBase<geode::modifier::ModifyDerive<LSLevelBrowserLayer, LevelBrowserLayer> >::~ModifyBase()
PUBLIC 873c 0 __cxx_global_var_init.7
PUBLIC 8bc0 0 geode::modifier::ModifyBase<geode::modifier::ModifyDerive<LSLevelCell, LevelCell> >::~ModifyBase()
PUBLIC 8bd8 0 __clang_call_terminate
PUBLIC 8be8 0 geode::modifier::ModifyDerive<LSLevelBrowserLayer, LevelBrowserLayer>::apply()
PUBLIC 9224 0 std::__ndk1::shared_ptr<geode::Hook>::~shared_ptr[abi:ne180000]()
PUBLIC 9274 0 geode::impl::ResultData<geode::Hook*, std::__ndk1::basic_string<char, std::__ndk1::char_traits<char>, std::__ndk1::allocator<char> > >::~ResultData()
PUBLIC 92e8 0 std::__ndk1::vector<std::__ndk1::basic_string<char, std::__ndk1::char_traits<char>, std::__ndk1::allocator<char> >, std::__ndk1::allocator<std::__ndk1::basic_string<char, std::__ndk1::char_traits<char>, std::__ndk1::allocator<char> > > >::~vector[abi:ne180000]()
PUBLIC 9364 0 geode::modifier::ModifyBase<geode::modifier::ModifyDerive<LSLevelBrowserLayer, LevelBrowserLayer> >::apply()
PUBLIC 9368 0 _ZN5geode15UnwrapExceptionC2IRPNS_4HookEQsr4implE18IsStringStreamableIT_EEENS_4impl5OkTagEOS5_
PUBLIC 94bc 0 std::__ndk1::__throw_bad_variant_access[abi:ne180000]()
PUBLIC 94f0 0 std::__ndk1::basic_stringstream<char, std::__ndk1::char_traits<char>, std::__ndk1::allocator<char> >::basic_stringstream[abi:ne180000]()
PUBLIC m 961c 0 std::__ndk1::basic_stringstream<char, std::__ndk1::char_traits<char>, std::__ndk1::allocator<char> >::~basic_stringstream()
PUBLIC 969c 0 geode::UnwrapException::~UnwrapException()
PUBLIC 96c0 0 std::__ndk1::__put_character_sequence[abi:ne180000]<char, std::__ndk1::char_traits<char> >(std::__ndk1::basic_ostream<char, std::__ndk1::char_traits<char> >, std::__ndk1::basic_ostream const*, unsigned long)
PUBLIC 9864 0 std::__ndk1::__pad_and_output[abi:ne180000]<char, std::__ndk1::char_traits<char> >(std::__ndk1::char_traits<char>, std::__ndk1::ostreambuf_iterator const*, std::__ndk1::ostreambuf_iterator const, std::__ndk1::ostreambuf_iterator const, std::__ndk1::ios_base&, std::__ndk1::ostreambuf_iterator)
PUBLIC 9a40 0 std::__ndk1::basic_string<char, std::__ndk1::char_traits<char>, std::__ndk1::allocator<char> >::__throw_length_error[abi:ne180000]() const
PUBLIC 9a54 0 std::__ndk1::__throw_length_error[abi:ne180000](char const*)
PUBLIC 9aa4 0 std::length_error::length_error[abi:ne180000](char const*)
PUBLIC 9ad4 0 std::__throw_bad_array_new_length([abi:ne180000], void)
PUBLIC 9b08 0 std::__ndk1::basic_stringbuf<char, std::__ndk1::char_traits<char>, std::__ndk1::allocator<char> >::str[abi:ne180000]() &&
PUBLIC 9c80 0 std::__ndk1::basic_stringbuf<char, std::__ndk1::char_traits<char>, std::__ndk1::allocator<char> >::__init_buf_ptrs[abi:ne180000]()
PUBLIC 9dc8 0 std::__ndk1::vector<std::__ndk1::basic_string<char, std::__ndk1::char_traits<char>, std::__ndk1::allocator<char> >, std::__ndk1::allocator<std::__ndk1::basic_string<char, std::__ndk1::char_traits<char>, std::__ndk1::allocator<char> > > >::__push_back_slow_path<std::__ndk1::basic_string<char, std::__ndk1::char_traits<char>, std::__ndk1::allocator<char> > const&>(std::__ndk1::basic_string<char, std::__ndk1::char_traits<char>, std::__ndk1::allocator<char> > const&)
PUBLIC 9fec 0 std::__ndk1::basic_string<char, std::__ndk1::char_traits<char>, std::__ndk1::allocator<char> >::__init_copy_ctor_external(char const*, unsigned long)
PUBLIC a06c 0 std::__ndk1::__split_buffer<std::__ndk1::basic_string<char, std::__ndk1::char_traits<char>, std::__ndk1::allocator<char> >, std::__ndk1::allocator<std::__ndk1::basic_string<char, std::__ndk1::char_traits<char>, std::__ndk1::allocator<char> > >&>::~__split_buffer()
PUBLIC a0d4 0 std::__ndk1::vector<std::__ndk1::basic_string<char, std::__ndk1::char_traits<char>, std::__ndk1::allocator<char> >, std::__ndk1::allocator<std::__ndk1::basic_string<char, std::__ndk1::char_traits<char>, std::__ndk1::allocator<char> > > >::__throw_length_error[abi:ne180000]() const
PUBLIC a0e8 0 std::__ndk1::__variant_detail::__visitation::__base::__dispatcher<(unsigned long)0>::__dispatch[abi:ne180000]<std::__ndk1::__variant_detail::__dtor<std::__ndk1::__variant_detail::__traits<geode::Hook*, std::__ndk1::basic_string<char, std::__ndk1::char_traits<char>, std::__ndk1::allocator<char> > >, (std::__ndk1::__variant_detail::_Trait)1>::__destroy[abi:ne180000]()::{lambda(auto:1&)#1}, std::__ndk1::__variant_detail::__base<(std::__ndk1::__variant_detail::__traits<geode::Hook*, std::__ndk1::basic_string<char, std::__ndk1::char_traits<char>, std::__ndk1::allocator<char> > >)1, geode::Hook, std::__ndk1::allocator<char> >&>(std::__ndk1::__variant_detail::__dtor<std::__ndk1::__variant_detail::__traits<geode::Hook*, std::__ndk1::basic_string<char, std::__ndk1::char_traits<char>, std::__ndk1::allocator<char> > >, (std::__ndk1::__variant_detail::_Trait)1>, std::__ndk1::__variant_detail::__base<(std::__ndk1::__variant_detail::__traits<geode::Hook*, std::__ndk1::basic_string<char, std::__ndk1::char_traits<char>, std::__ndk1::allocator<char> > >)1, geode::Hook, std::__ndk1::allocator<char> >&)
PUBLIC a0ec 0 std::__ndk1::__variant_detail::__visitation::__base::__dispatcher<(unsigned long)1>::__dispatch[abi:ne180000]<std::__ndk1::__variant_detail::__dtor<std::__ndk1::__variant_detail::__traits<geode::Hook*, std::__ndk1::basic_string<char, std::__ndk1::char_traits<char>, std::__ndk1::allocator<char> > >, (std::__ndk1::__variant_detail::_Trait)1>::__destroy[abi:ne180000]()::{lambda(auto:1&)#1}, std::__ndk1::__variant_detail::__base<(std::__ndk1::__variant_detail::__traits<geode::Hook*, std::__ndk1::basic_string<char, std::__ndk1::char_traits<char>, std::__ndk1::allocator<char> > >)1, geode::Hook, std::__ndk1::allocator<char> >&>(std::__ndk1::__variant_detail::__dtor<std::__ndk1::__variant_detail::__traits<geode::Hook*, std::__ndk1::basic_string<char, std::__ndk1::char_traits<char>, std::__ndk1::allocator<char> > >, (std::__ndk1::__variant_detail::_Trait)1>, std::__ndk1::__variant_detail::__base<(std::__ndk1::__variant_detail::__traits<geode::Hook*, std::__ndk1::basic_string<char, std::__ndk1::char_traits<char>, std::__ndk1::allocator<char> > >)1, geode::Hook, std::__ndk1::allocator<char> >&)
PUBLIC a100 0 std::__ndk1::__tree<std::__ndk1::__value_type<std::__ndk1::basic_string<char, std::__ndk1::char_traits<char>, std::__ndk1::allocator<char> >, std::__ndk1::shared_ptr<geode::Hook> >, std::__ndk1::__map_value_compare<std::__ndk1::basic_string<char, std::__ndk1::char_traits<char>, std::__ndk1::allocator<char> >, std::__ndk1::__value_type<std::__ndk1::basic_string<char, std::__ndk1::char_traits<char>, std::__ndk1::allocator<char> >, std::__ndk1::shared_ptr<geode::Hook> >, std::__ndk1::less<std::__ndk1::basic_string<char, std::__ndk1::char_traits<char>, std::__ndk1::allocator<char> > >, true>, std::__ndk1::allocator<std::__ndk1::__value_type<std::__ndk1::basic_string<char, std::__ndk1::char_traits<char>, std::__ndk1::allocator<char> >, std::__ndk1::shared_ptr<geode::Hook> > > >::find<std::__ndk1::basic_string<char, std::__ndk1::char_traits<char>, std::__ndk1::allocator<char> > >(std::__ndk1::basic_string<char, std::__ndk1::char_traits<char>, std::__ndk1::allocator<char> > const&)
PUBLIC a220 0 std::__ndk1::__tree<std::__ndk1::__value_type<std::__ndk1::basic_string<char, std::__ndk1::char_traits<char>, std::__ndk1::allocator<char> >, std::__ndk1::shared_ptr<geode::Hook> >, std::__ndk1::__map_value_compare<std::__ndk1::basic_string<char, std::__ndk1::char_traits<char>, std::__ndk1::allocator<char> >, std::__ndk1::__value_type<std::__ndk1::basic_string<char, std::__ndk1::char_traits<char>, std::__ndk1::allocator<char> >, std::__ndk1::shared_ptr<geode::Hook> >, std::__ndk1::less<std::__ndk1::basic_string<char, std::__ndk1::char_traits<char>, std::__ndk1::allocator<char> > >, true>, std::__ndk1::allocator<std::__ndk1::__value_type<std::__ndk1::basic_string<char, std::__ndk1::char_traits<char>, std::__ndk1::allocator<char> >, std::__ndk1::shared_ptr<geode::Hook> > > >::erase(std::__ndk1::__tree_const_iterator<std::__ndk1::__value_type<std::__ndk1::basic_string<char, std::__ndk1::char_traits<char>, std::__ndk1::allocator<char> >, std::__ndk1::shared_ptr<geode::Hook> >, std::__ndk1::__tree_node<std::__ndk1::__value_type<std::__ndk1::basic_string<char, std::__ndk1::char_traits<char>, std::__ndk1::allocator<char> >, std::__ndk1::shared_ptr<geode::Hook> >, void*>*, long>)
PUBLIC a6c4 0 std::__ndk1::__tree<std::__ndk1::__value_type<std::__ndk1::basic_string<char, std::__ndk1::char_traits<char>, std::__ndk1::allocator<char> >, std::__ndk1::shared_ptr<geode::Hook> >, std::__ndk1::__map_value_compare<std::__ndk1::basic_string<char, std::__ndk1::char_traits<char>, std::__ndk1::allocator<char> >, std::__ndk1::__value_type<std::__ndk1::basic_string<char, std::__ndk1::char_traits<char>, std::__ndk1::allocator<char> >, std::__ndk1::shared_ptr<geode::Hook> >, std::__ndk1::less<std::__ndk1::basic_string<char, std::__ndk1::char_traits<char>, std::__ndk1::allocator<char> > >, true>, std::__ndk1::allocator<std::__ndk1::__value_type<std::__ndk1::basic_string<char, std::__ndk1::char_traits<char>, std::__ndk1::allocator<char> >, std::__ndk1::shared_ptr<geode::Hook> > > >::destroy(std::__ndk1::__tree_node<std::__ndk1::__value_type<std::__ndk1::basic_string<char, std::__ndk1::char_traits<char>, std::__ndk1::allocator<char> >, std::__ndk1::shared_ptr<geode::Hook> >, void*>*)
PUBLIC a748 0 geode::modifier::AsStaticFunction_init<LSLevelBrowserLayer, bool (LSLevelBrowserLayer::*)(GJSearchObject*)>::Impl<bool (LSLevelBrowserLayer::*)(GJSearchObject*)>::function(LSLevelBrowserLayer*, GJSearchObject*)
PUBLIC b318 0 geode::modifier::AsStaticFunction_setupLevelBrowser<LSLevelBrowserLayer, void (LSLevelBrowserLayer::*)(cocos2d::CCArray*)>::Impl<void (LSLevelBrowserLayer::*)(cocos2d::CCArray*)>::function(LSLevelBrowserLayer*, cocos2d::CCArray*)
PUBLIC bc14 0 std::__ndk1::shared_ptr<tulip::hook::CallingConvention>::~shared_ptr[abi:ne180000]()
PUBLIC bc64 0 tulip::hook::HandlerMetadata::~HandlerMetadata()
PUBLIC bcc8 0 LSLevelBrowserLayer::onSizeSort(cocos2d::CCObject*)
PUBLIC bea4 0 geode::modifier::FieldIntermediate<LSLevelBrowserLayer, LevelBrowserLayer>::self()
PUBLIC c4e0 0 geode::Mod::getSettingValue<bool>(std::__ndk1::basic_string_view<char, std::__ndk1::char_traits<char> >) const
PUBLIC c610 0 LSLevelBrowserLayer::sortLevelsBySize()
PUBLIC c738 0 LSLevelBrowserLayer::sortLevelsBySize()::{lambda(void const*, void const*)#1}::__invoke(void const*, void const*)
PUBLIC c780 0 geode::modifier::FieldIntermediate<LSLevelBrowserLayer, LevelBrowserLayer>::fieldDestructor(void*)
PUBLIC c784 0 std::__ndk1::vector<void*, std::__ndk1::allocator<void*> >::__throw_length_error[abi:ne180000]() const
PUBLIC c798 0 std::__ndk1::vector<std::__ndk1::function<void (void*)>, std::__ndk1::allocator<std::__ndk1::function<void (void*)> > >::__throw_length_error[abi:ne180000]() const
PUBLIC c7ac 0 std::__ndk1::vector<void*, std::__ndk1::allocator<void*> >::__throw_out_of_range[abi:ne180000]() const
PUBLIC c7b8 0 std::__ndk1::__throw_out_of_range[abi:ne180000](char const*)
PUBLIC c808 0 std::out_of_range::out_of_range[abi:ne180000](char const*)
PUBLIC c838 0 std::__ndk1::vector<std::__ndk1::function<void (void*)>, std::__ndk1::allocator<std::__ndk1::function<void (void*)> > >::__throw_out_of_range[abi:ne180000]() const
PUBLIC c844 0 std::__ndk1::__function::__base<void (void*)>::~__base()
PUBLIC c848 0 std::__ndk1::__function::__func<void (*)(void*), std::__ndk1::allocator<void (*)(void*)>, void (void*)>::~__func()
PUBLIC c84c 0 std::__ndk1::__function::__func<void (*)(void*), std::__ndk1::allocator<void (*)(void*)>, void (void*)>::__clone() const
PUBLIC c884 0 std::__ndk1::__function::__func<void (*)(void*), std::__ndk1::allocator<void (*)(void*)>, void (void*)>::__clone(std::__ndk1::__function::__base<void (void*)>*) const
PUBLIC c89c 0 std::__ndk1::__function::__func<void (*)(void*), std::__ndk1::allocator<void (*)(void*)>, void (void*)>::destroy()
PUBLIC c8a0 0 std::__ndk1::__function::__func<void (*)(void*), std::__ndk1::allocator<void (*)(void*)>, void (void*)>::destroy_deallocate()
PUBLIC c8a4 0 std::__ndk1::__function::__func<void (*)(void*), std::__ndk1::allocator<void (*)(void*)>, void (void*)>::operator()(void*&&)
PUBLIC c8b4 0 std::__ndk1::__function::__func<void (*)(void*), std::__ndk1::allocator<void (*)(void*)>, void (void*)>::target(std::type_info const&) const
PUBLIC c8d0 0 std::__ndk1::__function::__func<void (*)(void*), std::__ndk1::allocator<void (*)(void*)>, void (void*)>::target_type() const
PUBLIC c8dc 0 geode::cast::traverseTypeinfoFor(void*, geode::cast::ClassTypeinfoType const*, char const*)
PUBLIC c9d4 0 std::__ndk1::__tree<std::__ndk1::__value_type<std::__ndk1::basic_string<char, std::__ndk1::char_traits<char>, std::__ndk1::allocator<char> >, std::__ndk1::shared_ptr<geode::Hook> >, std::__ndk1::__map_value_compare<std::__ndk1::basic_string<char, std::__ndk1::char_traits<char>, std::__ndk1::allocator<char> >, std::__ndk1::__value_type<std::__ndk1::basic_string<char, std::__ndk1::char_traits<char>, std::__ndk1::allocator<char> >, std::__ndk1::shared_ptr<geode::Hook> >, std::__ndk1::less<std::__ndk1::basic_string<char, std::__ndk1::char_traits<char>, std::__ndk1::allocator<char> > >, true>, std::__ndk1::allocator<std::__ndk1::__value_type<std::__ndk1::basic_string<char, std::__ndk1::char_traits<char>, std::__ndk1::allocator<char> >, std::__ndk1::shared_ptr<geode::Hook> > > >::__emplace_unique_key_args<std::__ndk1::basic_string<char, std::__ndk1::char_traits<char>, std::__ndk1::allocator<char> >, std::__ndk1::piecewise_construct_t const&, std::__ndk1::tuple<std::__ndk1::basic_string<char, std::__ndk1::char_traits<char>, std::__ndk1::allocator<char> >&&>, std::__ndk1::tuple<> >(std::__ndk1::basic_string<char, std::__ndk1::char_traits<char>, std::__ndk1::allocator<char> > const&, std::__ndk1::piecewise_construct_t const&, std::__ndk1::tuple<std::__ndk1::basic_string<char, std::__ndk1::char_traits<char>, std::__ndk1::allocator<char> >&&>, std::__ndk1::tuple<>)
PUBLIC cb3c 0 std::__ndk1::__tree_balance_after_insert[abi:ne180000]<std::__ndk1::__tree_node_base<void*>*>(std::__ndk1::__tree_node_base<void*>*, std::__ndk1::__tree_node_base<void*>*)
PUBLIC ccec 0 geode::modifier::ModifyDerive<LSLevelCell, LevelCell>::apply()
PUBLIC d058 0 geode::modifier::ModifyBase<geode::modifier::ModifyDerive<LSLevelCell, LevelCell> >::apply()
PUBLIC d05c 0 geode::modifier::AsStaticFunction_loadFromLevel<LSLevelCell, void (LSLevelCell::*)(GJGameLevel*)>::Impl<void (LSLevelCell::*)(GJGameLevel*)>::function(LSLevelCell*, GJGameLevel*)
PUBLIC m d7b4 0 geodeImplicitEntry
PUBLIC d7f0 0 __udivti3
PUBLIC d7fc 0 __udivmodti4
PUBLIC m da48 0 __eqtf2
PUBLIC dae8 0 __unordtf2
PUBLIC db20 0 fmt::v11::detail::write_loc(fmt::v11::basic_appender<char>, fmt::v11::loc_value, fmt::v11::format_specs const&, fmt::v11::detail::locale_ref)
PUBLIC ddb4 0 fmt::v11::format_facet<std::__ndk1::locale>::~format_facet()
PUBLIC de30 0 fmt::v11::report_error(char const*)
PUBLIC de80 0 fmt::v11::format_error::runtime_error(char const*)
PUBLIC deac 0 fmt::v11::format_facet<std::__ndk1::locale>::do_put(fmt::v11::basic_appender<char>, fmt::v11::loc_value, fmt::v11::format_specs const&) const
PUBLIC e66c 0 fmt::v11::detail::loc_writer<char>::~loc_writer()
PUBLIC e6d0 0 fmt::v11::detail::vformat_to<char>(fmt::v11::detail::buffer<char>&, fmt::v11::basic_string_view<char>, fmt::v11::detail::vformat_args<char>::type, fmt::v11::detail::locale_ref)
PUBLIC ec40 0 fmt::v11::detail::is_printable(unsigned int)
PUBLIC ee68 0 fmt::v11::detail::dragonbox::to_decimal<float>(float)
PUBLIC f144 0 fmt::v11::detail::dragonbox::to_decimal<double>(double)
PUBLIC f680 0 fmt::v11::basic_memory_buffer<char, (unsigned long)500, std::__ndk1::allocator<char> >::grow(fmt::v11::detail::buffer<char>&, unsigned long)
PUBLIC f6f8 0 fmt::v11::format_facet<std::__ndk1::locale>::~format_facet()
PUBLIC f784 0 fmt::v11::format_error::~format_error()
PUBLIC f7a8 0 fmt::v11::detail::copy_noinline<char, char const*, fmt::v11::basic_appender<char> >(char const*, char const*, fmt::v11::basic_appender<char>)
PUBLIC f8f8 0 fmt::v11::detail::default_arg_formatter<char>::operator()<bool>(bool)
PUBLIC f960 0 fmt::v11::detail::default_arg_formatter<char>::operator()<char>(char)
PUBLIC f9f0 0 fmt::v11::detail::default_arg_formatter<char>::operator()<float>(float)
PUBLIC fadc 0 fmt::v11::detail::default_arg_formatter<char>::operator()<double>(double)
PUBLIC fbc8 0 fmt::v11::detail::default_arg_formatter<char>::operator()<char const*>(char const*)
PUBLIC fc10 0 fmt::v11::detail::default_arg_formatter<char>::operator()<void const*>(void const*)
PUBLIC fca8 0 _ZN3fmt3v116detail5writeIcNS0_14basic_appenderIcEEiTnNSt6__ndk19enable_ifIXaaaasr11is_integralIT1_EE5valuentsr3std7is_sameIS7_bEE5valuentsr3std7is_sameIS7_T_EE5valueEiE4typeELi0EEET0_SB_S7_
PUBLIC ff08 0 fmt::v11::detail::copy_noinline<char, char*, fmt::v11::basic_appender<char> >(char*, char*, fmt::v11::basic_appender<char>)
PUBLIC 10058 0 _ZN3fmt3v116detail5writeIcNS0_14basic_appenderIcEEjTnNSt6__ndk19enable_ifIXaaaasr11is_integralIT1_EE5valuentsr3std7is_sameIS7_bEE5valuentsr3std7is_sameIS7_T_EE5valueEiE4typeELi0EEET0_SB_S7_
PUBLIC 10238 0 _ZN3fmt3v116detail5writeIcNS0_14basic_appenderIcEExTnNSt6__ndk19enable_ifIXaaaasr11is_integralIT1_EE5valuentsr3std7is_sameIS7_bEE5valuentsr3std7is_sameIS7_T_EE5valueEiE4typeELi0EEET0_SB_S7_
PUBLIC 104bc 0 _ZN3fmt3v116detail5writeIcNS0_14basic_appenderIcEEyTnNSt6__ndk19enable_ifIXaaaasr11is_integralIT1_EE5valuentsr3std7is_sameIS7_bEE5valuentsr3std7is_sameIS7_T_EE5valueEiE4typeELi0EEET0_SB_S7_
PUBLIC 106c4 0 _ZN3fmt3v116detail5writeIcNS0_14basic_appenderIcEEnTnNSt6__ndk19enable_ifIXaaaasr11is_integralIT1_EE5valuentsr3std7is_sameIS7_bEE5valuentsr3std7is_sameIS7_T_EE5valueEiE4typeELi0EEET0_SB_S7_
PUBLIC 10a24 0 _ZN3fmt3v116detail5writeIcNS0_14basic_appenderIcEEoTnNSt6__ndk19enable_ifIXaaaasr11is_integralIT1_EE5valuentsr3std7is_sameIS7_bEE5valuentsr3std7is_sameIS7_T_EE5valueEiE4typeELi0EEET0_SB_S7_
PUBLIC 10d38 0 _ZN3fmt3v116detail5writeIcNS0_14basic_appenderIcEEbTnNSt6__ndk19enable_ifIXsr3std7is_sameIT1_bEE5valueEiE4typeELi0EEET0_SA_S7_RKNS0_12format_specsENS1_10locale_refE
PUBLIC 10fc8 0 fmt::v11::detail::write_int_noinline<char, fmt::v11::basic_appender<char>, unsigned int>(fmt::v11::basic_appender<char>, fmt::v11::detail::write_int_arg<unsigned int>, fmt::v11::format_specs const&, fmt::v11::detail::locale_ref)
PUBLIC 11da4 0 fmt::v11::detail::fill<char, fmt::v11::basic_appender<char> >(fmt::v11::basic_appender<char>, unsigned long, fmt::v11::detail::fill_t const&)
PUBLIC 11f74 0 fmt::v11::detail::write_padded<char, (fmt::v11::align::type)1, fmt::v11::basic_appender<char>, fmt::v11::detail::write_char<char, fmt::v11::basic_appender<char> >(fmt::v11::basic_appender<char>, char, fmt::v11::format_specs const&)::{lambda(fmt::v11::basic_appender<char>&)#1}>(fmt::v11::basic_appender<char>, fmt::v11::format_specs const&, unsigned long, unsigned long, fmt::v11::detail::write_char<char, fmt::v11::basic_appender<char> >(fmt::v11::basic_appender<char>, char, fmt::v11::format_specs const&)::{lambda(fmt::v11::basic_appender<char>&)#1})
PUBLIC 121b0 0 fmt::v11::detail::write_escaped_cp<fmt::v11::basic_appender<char>, char>(fmt::v11::basic_appender<char>, fmt::v11::detail::find_escape_result<char> const&)
PUBLIC 124bc 0 fmt::v11::detail::write_codepoint<(unsigned long)2, char, fmt::v11::basic_appender<char> >(fmt::v11::basic_appender<char>, char, unsigned int)
PUBLIC 12634 0 fmt::v11::detail::write_codepoint<(unsigned long)8, char, fmt::v11::basic_appender<char> >(fmt::v11::basic_appender<char>, char, unsigned int)
PUBLIC 127ac 0 fmt::v11::detail::write_padded<char, (fmt::v11::align::type)1, fmt::v11::basic_appender<char>, fmt::v11::detail::write_nonfinite<char, fmt::v11::basic_appender<char> >(fmt::v11::basic_appender<char>, bool, fmt::v11::format_specs, fmt::v11::sign::type)::{lambda(fmt::v11::basic_appender<char>&)#1}>(fmt::v11::basic_appender<char>, fmt::v11::format_specs const&, unsigned long, unsigned long, fmt::v11::detail::write_nonfinite<char, fmt::v11::basic_appender<char> >(fmt::v11::basic_appender<char>, bool, fmt::v11::format_specs, fmt::v11::sign::type)::{lambda(fmt::v11::basic_appender<char>&)#1})
PUBLIC 129ec 0 fmt::v11::detail::do_write_float<char, fmt::v11::basic_appender<char>, fmt::v11::detail::dragonbox::decimal_fp<float>, fmt::v11::detail::digit_grouping<char> >(fmt::v11::basic_appender<char>, fmt::v11::detail::dragonbox::decimal_fp<float> const&, fmt::v11::format_specs const&, fmt::v11::detail::float_specs, fmt::v11::detail::locale_ref)
PUBLIC 13660 0 fmt::v11::detail::do_write_float<char, fmt::v11::basic_appender<char>, fmt::v11::detail::dragonbox::decimal_fp<float>, fmt::v11::detail::digit_grouping<char> >(fmt::v11::basic_appender<char>, fmt::v11::detail::dragonbox::decimal_fp<float> const&, fmt::v11::format_specs const&, fmt::v11::detail::float_specs, fmt::v11::detail::locale_ref)::{lambda(fmt::v11::basic_appender<char>(fmt::v11::basic_appender<char>))#1}::operator() const
PUBLIC 137b4 0 fmt::v11::detail::digit_grouping<char>::digit_grouping(fmt::v11::detail::locale_ref, bool)
PUBLIC 13a20 0 fmt::v11::detail::digit_grouping<char>::~digit_grouping()
PUBLIC 13a64 0 fmt::v11::detail::write_exponent<char, fmt::v11::basic_appender<char> >(int, fmt::v11::basic_appender<char>)
PUBLIC 13c34 0 _ZN3fmt3v116detail17write_significandIcjTnNSt6__ndk19enable_ifIXsr3std11is_integralIT0_EE5valueEiE4typeELi0EEEPT_S9_S5_iiS8_
PUBLIC 13db0 0 std::__ndk1::basic_string<char, std::__ndk1::char_traits<char>, std::__ndk1::allocator<char> >::__assign_no_alias<true>(char const*, unsigned long)
PUBLIC 13e5c 0 std::__ndk1::basic_string<char, std::__ndk1::char_traits<char>, std::__ndk1::allocator<char> >::__assign_no_alias<false>(char const*, unsigned long)
PUBLIC 13f6c 0 fmt::v11::detail::digit_grouping<char>::apply<fmt::v11::basic_appender<char>, char>(fmt::v11::basic_appender<char>, fmt::v11::basic_string_view<char>) const
PUBLIC 14324 0 fmt::v11::basic_memory_buffer<int, (unsigned long)500, std::__ndk1::allocator<int> >::grow(fmt::v11::detail::buffer<int>&, unsigned long)
PUBLIC 143c4 0 fmt::v11::detail::do_write_float<char, fmt::v11::basic_appender<char>, fmt::v11::detail::dragonbox::decimal_fp<double>, fmt::v11::detail::digit_grouping<char> >(fmt::v11::basic_appender<char>, fmt::v11::detail::dragonbox::decimal_fp<double> const&, fmt::v11::format_specs const&, fmt::v11::detail::float_specs, fmt::v11::detail::locale_ref)
PUBLIC 15078 0 fmt::v11::detail::do_write_float<char, fmt::v11::basic_appender<char>, fmt::v11::detail::dragonbox::decimal_fp<double>, fmt::v11::detail::digit_grouping<char> >(fmt::v11::basic_appender<char>, fmt::v11::detail::dragonbox::decimal_fp<double> const&, fmt::v11::format_specs const&, fmt::v11::detail::float_specs, fmt::v11::detail::locale_ref)::{lambda(fmt::v11::basic_appender<char>(fmt::v11::basic_appender<char>))#1}::operator() const
PUBLIC 151d0 0 _ZN3fmt3v116detail17write_significandIcmTnNSt6__ndk19enable_ifIXsr3std11is_integralIT0_EE5valueEiE4typeELi0EEEPT_S9_S5_iiS8_
PUBLIC 15360 0 fmt::v11::detail::write_float<char, fmt::v11::basic_appender<char>, long double>(fmt::v11::basic_appender<char>, long double, fmt::v11::format_specs, fmt::v11::detail::locale_ref)
PUBLIC 15e5c 0 fmt::v11::detail::write_padded<char, (fmt::v11::align::type)2, fmt::v11::basic_appender<char>, fmt::v11::detail::write_bytes<char, (fmt::v11::align::type)2, fmt::v11::basic_appender<char> >(fmt::v11::basic_appender<char>, fmt::v11::basic_string_view<char>, fmt::v11::format_specs const&)::{lambda(fmt::v11::basic_appender<char>&)#1}>(fmt::v11::basic_appender<char>, fmt::v11::format_specs const&, unsigned long, unsigned long, fmt::v11::detail::write_bytes<char, (fmt::v11::align::type)2, fmt::v11::basic_appender<char> >(fmt::v11::basic_appender<char>, fmt::v11::basic_string_view<char>, fmt::v11::format_specs const&)::{lambda(fmt::v11::basic_appender<char>&)#1})
PUBLIC 16038 0 fmt::v11::detail::format_dragon(fmt::v11::detail::basic_fp<unsigned __int128>, unsigned int, int, fmt::v11::detail::buffer<char>&, int&)
PUBLIC 17468 0 fmt::v11::detail::bigint::operator<<=(int)
PUBLIC 1758c 0 fmt::v11::detail::bigint::assign_pow10(int)
PUBLIC 17ce8 0 fmt::v11::detail::bigint::divmod_assign(fmt::v11::detail::bigint const&)
PUBLIC 18008 0 fmt::v11::basic_memory_buffer<unsigned int, (unsigned long)32, std::__ndk1::allocator<unsigned int> >::grow(fmt::v11::detail::buffer<unsigned int>&, unsigned long)
PUBLIC 180a8 0 fmt::v11::detail::do_write_float<char, fmt::v11::basic_appender<char>, fmt::v11::detail::big_decimal_fp, fmt::v11::detail::digit_grouping<char> >(fmt::v11::basic_appender<char>, fmt::v11::detail::big_decimal_fp const&, fmt::v11::format_specs const&, fmt::v11::detail::float_specs, fmt::v11::detail::locale_ref)
PUBLIC 18f58 0 fmt::v11::detail::do_write_float<char, fmt::v11::basic_appender<char>, fmt::v11::detail::big_decimal_fp, fmt::v11::detail::digit_grouping<char> >(fmt::v11::basic_appender<char>, fmt::v11::detail::big_decimal_fp const&, fmt::v11::format_specs const&, fmt::v11::detail::float_specs, fmt::v11::detail::locale_ref)::{lambda(fmt::v11::basic_appender<char>(fmt::v11::basic_appender<char>))#1}::operator() const
PUBLIC 190b8 0 fmt::v11::detail::write_padded<char, (fmt::v11::align::type)2, fmt::v11::basic_appender<char>, fmt::v11::detail::write_ptr<char, fmt::v11::basic_appender<char>, unsigned long>(fmt::v11::basic_appender<char>, unsigned long, fmt::v11::format_specs const*)::{lambda(fmt::v11::basic_appender<char>&)#1}>(fmt::v11::basic_appender<char>, fmt::v11::format_specs const&, unsigned long, unsigned long, fmt::v11::detail::write_ptr<char, fmt::v11::basic_appender<char>, unsigned long>(fmt::v11::basic_appender<char>, unsigned long, fmt::v11::format_specs const*)::{lambda(fmt::v11::basic_appender<char>&)#1})
PUBLIC 192cc 0 fmt::v11::detail::parse_replacement_field<char, fmt::v11::detail::vformat_to<char>(fmt::v11::detail::buffer<char>&, fmt::v11::basic_string_view<char>, fmt::v11::detail::vformat_args<char>::type, fmt::v11::detail::locale_ref)::format_handler&>(char const*, char const*, fmt::v11::detail::vformat_to<char>(fmt::v11::detail::buffer<char>&, fmt::v11::basic_string_view<char>, fmt::v11::detail::vformat_args<char>::type, fmt::v11::detail::locale_ref)::format_handler&)
PUBLIC 1af68 0 fmt::v11::detail::parse_dynamic_spec<char>(char const*, char const*, int&, fmt::v11::detail::arg_ref<char>&, fmt::v11::basic_format_parse_context<char>&)
PUBLIC 1b1f8 0 fmt::v11::basic_format_args<fmt::v11::context>::get<char>(fmt::v11::basic_string_view<char>) const
PUBLIC 1b350 0 fmt::v11::detail::write_int_noinline<char, fmt::v11::basic_appender<char>, unsigned long>(fmt::v11::basic_appender<char>, fmt::v11::detail::write_int_arg<unsigned long>, fmt::v11::format_specs const&, fmt::v11::detail::locale_ref)
PUBLIC 1c1a4 0 fmt::v11::detail::write_int_noinline<char, fmt::v11::basic_appender<char>, unsigned __int128>(fmt::v11::basic_appender<char>, fmt::v11::detail::write_int_arg<unsigned __int128>, fmt::v11::format_specs const&, fmt::v11::detail::locale_ref)
PUBLIC 1d20c 0 _ZN3fmt3v116detail15format_hexfloatIdTnNSt6__ndk19enable_ifIXntsr16is_double_doubleIT_EE5valueEiE4typeELi0EEEvS5_NS0_12format_specsERNS1_6bufferIcEE
PUBLIC 1d72c 0 fmt::v11::detail::format_float<double>(double, int, fmt::v11::detail::float_specs, fmt::v11::detail::buffer<char>&)
PUBLIC 1e0cc 0 fmt::v11::detail::write<char, fmt::v11::basic_appender<char> >(fmt::v11::basic_appender<char>, fmt::v11::basic_string_view<char>, fmt::v11::format_specs const&)
PUBLIC 1f438 0 fmt::v11::detail::for_each_codepoint<fmt::v11::detail::compute_width(fmt::v11::basic_string_view<char>)::count_code_points>(fmt::v11::basic_string_view<char>, fmt::v11::detail::compute_width(fmt::v11::basic_string_view<char>)::count_code_points)::{lambda(char const*, char const*)#1}::operator()(char const*, char const*) const
PUBLIC 1f5f0 0 fmt::v11::detail::write_int<fmt::v11::basic_appender<char>, unsigned long, char>(fmt::v11::basic_appender<char>, unsigned long, unsigned int, fmt::v11::format_specs const&, fmt::v11::detail::digit_grouping<char> const&)
PUBLIC 1fb6c 0 fmt::v11::detail::write_int<fmt::v11::basic_appender<char>, unsigned __int128, char>(fmt::v11::basic_appender<char>, unsigned __int128, unsigned int, fmt::v11::format_specs const&, fmt::v11::detail::digit_grouping<char> const&)
PUBLIC 201f0 0 <.plt ELF section in hiimjustin000.level_size.android64.so>
STACK CFI INIT 7b20 10 .cfa: sp 0 +
STACK CFI INIT 7b30 8 .cfa: sp 0 +
STACK CFI INIT 7b38 8 .cfa: sp 0 +
STACK CFI INIT 7b40 14 .cfa: sp 0 +
STACK CFI INIT 7b54 1c .cfa: sp 0 +
STACK CFI INIT 7b70 10 .cfa: sp 0 +
STACK CFI INIT 7b80 30 .cfa: sp 0 +
STACK CFI INIT 7bb0 98 .cfa: sp 0 +
STACK CFI INIT 7c48 59c .cfa: sp 0 +
STACK CFI INIT 81e4 8c .cfa: sp 0 +
STACK CFI INIT 8270 30 .cfa: sp 0 +
STACK CFI INIT 8724 18 .cfa: sp 0 +
STACK CFI INIT 8bc0 18 .cfa: sp 0 +
STACK CFI INIT 8bd8 10 .cfa: sp 0 +
STACK CFI 8bdc .cfa: sp 16 +
STACK CFI 8be0 .cfa: x29 16 + .ra: .cfa -8 + ^ x29: .cfa -16 + ^
STACK CFI INIT 9224 50 .cfa: sp 0 +
STACK CFI 9228 .cfa: sp 32 +
STACK CFI 9230 .cfa: x29 32 + x19: .cfa -16 + ^ .ra: .cfa -24 + ^ x29: .cfa -32 + ^
STACK CFI 9248 .cfa: sp 32 +
STACK CFI 9250 .cfa: sp 0 +
STACK CFI 9254 .cfa: x29 32 +
STACK CFI 9268 .cfa: sp 32 +
STACK CFI 9270 .cfa: sp 0 +
STACK CFI INIT 92e8 7c .cfa: sp 0 +
STACK CFI 92ec .cfa: sp 48 +
STACK CFI 92f8 .cfa: x29 48 + x19: .cfa -8 + ^ x20: .cfa -16 + ^ x21: .cfa -32 + ^ .ra: .cfa -40 + ^ x29: .cfa -48 + ^
STACK CFI 9344 .cfa: sp 48 +
STACK CFI 9350 .cfa: sp 0 +
STACK CFI 9354 .cfa: sp 48 +
STACK CFI 9360 .cfa: sp 0 +
STACK CFI INIT 9364 4 .cfa: sp 0 +
STACK CFI INIT 94bc 34 .cfa: sp 0 +
STACK CFI 94c0 .cfa: sp 16 +
STACK CFI 94c4 .cfa: x29 16 + .ra: .cfa -8 + ^ x29: .cfa -16 + ^
STACK CFI INIT 961c 80 .cfa: sp 0 +
STACK CFI 9620 .cfa: sp 48 +
STACK CFI 962c .cfa: x29 48 + x19: .cfa -8 + ^ x20: .cfa -16 + ^ x21: .cfa -32 + ^ .ra: .cfa -40 + ^ x29: .cfa -48 + ^
STACK CFI 968c .cfa: sp 48 +
STACK CFI 9698 .cfa: sp 0 +
STACK CFI INIT 969c 24 .cfa: sp 0 +
STACK CFI 96a0 .cfa: sp 32 +
STACK CFI 96a8 .cfa: x29 32 + x19: .cfa -16 + ^ .ra: .cfa -24 + ^ x29: .cfa -32 + ^
STACK CFI 96b4 .cfa: sp 32 +
STACK CFI 96bc .cfa: sp 0 +
STACK CFI INIT 9a40 14 .cfa: sp 0 +
STACK CFI 9a44 .cfa: sp 16 +
STACK CFI 9a48 .cfa: x29 16 + .ra: .cfa -8 + ^ x29: .cfa -16 + ^
STACK CFI INIT 9aa4 30 .cfa: sp 0 +
STACK CFI 9aa8 .cfa: sp 32 +
STACK CFI 9ab0 .cfa: x29 32 + x19: .cfa -16 + ^ .ra: .cfa -24 + ^ x29: .cfa -32 + ^
STACK CFI 9ac8 .cfa: sp 32 +
STACK CFI 9ad0 .cfa: sp 0 +
STACK CFI INIT 9ad4 34 .cfa: sp 0 +
STACK CFI 9ad8 .cfa: sp 32 +
STACK CFI 9ae0 .cfa: x29 32 + x19: .cfa -16 + ^ .ra: .cfa -24 + ^ x29: .cfa -32 + ^
STACK CFI INIT 9c80 148 .cfa: sp 0 +
STACK CFI 9c84 .cfa: sp 48 +
STACK CFI 9c90 .cfa: x29 48 + x19: .cfa -8 + ^ x20: .cfa -16 + ^ x21: .cfa -32 + ^ .ra: .cfa -40 + ^ x29: .cfa -48 + ^
STACK CFI 9db8 .cfa: sp 48 +
STACK CFI 9dc4 .cfa: sp 0 +
STACK CFI INIT 9fec 80 .cfa: sp 0 +
STACK CFI 9ff0 .cfa: sp 48 +
STACK CFI 9ffc .cfa: x29 48 + x19: .cfa -8 + ^ x20: .cfa -16 + ^ x21: .cfa -24 + ^ x22: .cfa -32 + ^ .ra: .cfa -40 + ^ x29: .cfa -48 + ^
STACK CFI a014 .cfa: sp 48 +
STACK CFI a020 .cfa: sp 0 +
STACK CFI a024 .cfa: x29 48 +
STACK CFI a054 .cfa: sp 48 +
STACK CFI a060 .cfa: sp 0 +
STACK CFI a064 .cfa: x29 48 +
STACK CFI INIT a06c 68 .cfa: sp 0 +
STACK CFI a070 .cfa: sp 32 +
STACK CFI a078 .cfa: x29 32 + x19: .cfa -8 + ^ x20: .cfa -16 + ^ .ra: .cfa -24 + ^ x29: .cfa -32 + ^
STACK CFI a090 .cfa: sp 32 +
STACK CFI a098 .cfa: sp 0 +
STACK CFI a09c .cfa: x29 32 +
STACK CFI a0c8 .cfa: sp 32 +
STACK CFI a0d0 .cfa: sp 0 +
STACK CFI INIT a0d4 14 .cfa: sp 0 +
STACK CFI a0d8 .cfa: sp 16 +
STACK CFI a0dc .cfa: x29 16 + .ra: .cfa -8 + ^ x29: .cfa -16 + ^
STACK CFI INIT a0e8 4 .cfa: sp 0 +
STACK CFI INIT a0ec 14 .cfa: sp 0 +
STACK CFI INIT a100 120 .cfa: sp 0 +
STACK CFI a104 .cfa: sp 64 +
STACK CFI a114 .cfa: x29 64 + x19: .cfa -8 + ^ x20: .cfa -16 + ^ x21: .cfa -24 + ^ x22: .cfa -32 + ^ x23: .cfa -40 + ^ x24: .cfa -48 + ^ .ra: .cfa -56 + ^ x29: .cfa -64 + ^
STACK CFI a20c .cfa: sp 64 +
STACK CFI a21c .cfa: sp 0 +
STACK CFI INIT a220 4a4 .cfa: sp 0 +
STACK CFI a224 .cfa: sp 32 +
STACK CFI a22c .cfa: x29 32 + x19: .cfa -8 + ^ x20: .cfa -16 + ^ .ra: .cfa -24 + ^ x29: .cfa -32 + ^
STACK CFI a60c .cfa: sp 32 +
STACK CFI a614 .cfa: sp 0 +
STACK CFI a618 .cfa: x29 32 +
STACK CFI INIT a6c4 84 .cfa: sp 0 +
STACK CFI a6cc .cfa: sp 32 +
STACK CFI a6d4 .cfa: x29 32 + x19: .cfa -8 + ^ x20: .cfa -16 + ^ .ra: .cfa -24 + ^ x29: .cfa -32 + ^
STACK CFI a714 .cfa: sp 32 +
STACK CFI a71c .cfa: sp 0 +
STACK CFI a724 .cfa: x29 32 +
STACK CFI INIT bc14 50 .cfa: sp 0 +
STACK CFI bc18 .cfa: sp 32 +
STACK CFI bc20 .cfa: x29 32 + x19: .cfa -16 + ^ .ra: .cfa -24 + ^ x29: .cfa -32 + ^
STACK CFI bc38 .cfa: sp 32 +
STACK CFI bc40 .cfa: sp 0 +
STACK CFI bc44 .cfa: x29 32 +
STACK CFI bc58 .cfa: sp 32 +
STACK CFI bc60 .cfa: sp 0 +
STACK CFI INIT bc64 64 .cfa: sp 0 +
STACK CFI bc68 .cfa: sp 32 +
STACK CFI bc70 .cfa: x29 32 + x19: .cfa -16 + ^ .ra: .cfa -24 + ^ x29: .cfa -32 + ^
STACK CFI bc9c .cfa: sp 32 +
STACK CFI bca4 .cfa: sp 0 +
STACK CFI bca8 .cfa: x29 32 +
STACK CFI bcbc .cfa: sp 32 +
STACK CFI bcc4 .cfa: sp 0 +
STACK CFI INIT bcc8 1dc .cfa: sp 0 +
STACK CFI bccc .cfa: sp 128 +
STACK CFI bce8 .cfa: x29 72 + x19: .cfa -8 + ^ x20: .cfa -16 + ^ x21: .cfa -24 + ^ x22: .cfa -32 + ^ x23: .cfa -40 + ^ x24: .cfa -48 + ^ x25: .cfa -56 + ^ .ra: .cfa -64 + ^ x29: .cfa -72 + ^ v8: .cfa -80 + ^
STACK CFI be80 .cfa: sp 128 +
STACK CFI be9c .cfa: sp 0 +
STACK CFI bea0 .cfa: x29 72 +
STACK CFI INIT c4e0 130 .cfa: sp 0 +
STACK CFI c4e4 .cfa: sp 80 +
STACK CFI c4f4 .cfa: x29 48 + x19: .cfa -8 + ^ x20: .cfa -16 + ^ x21: .cfa -24 + ^ x22: .cfa -32 + ^ .ra: .cfa -40 + ^ x29: .cfa -48 + ^
STACK CFI c5f8 .cfa: sp 80 +
STACK CFI c608 .cfa: sp 0 +
STACK CFI c60c .cfa: x29 48 +
STACK CFI INIT c610 128 .cfa: sp 0 +
STACK CFI c614 .cfa: sp 48 +
STACK CFI c620 .cfa: x29 48 + x19: .cfa -8 + ^ x20: .cfa -16 + ^ x21: .cfa -24 + ^ x22: .cfa -32 + ^ .ra: .cfa -40 + ^ x29: .cfa -48 + ^
STACK CFI c728 .cfa: sp 48 +
STACK CFI c734 .cfa: sp 0 +
STACK CFI INIT c738 48 .cfa: sp 0 +
STACK CFI c73c .cfa: sp 32 +
STACK CFI c744 .cfa: x29 32 + x19: .cfa -16 + ^ .ra: .cfa -24 + ^ x29: .cfa -32 + ^
STACK CFI c774 .cfa: sp 32 +
STACK CFI c77c .cfa: sp 0 +
STACK CFI INIT c780 4 .cfa: sp 0 +
STACK CFI INIT c784 14 .cfa: sp 0 +
STACK CFI c788 .cfa: sp 16 +
STACK CFI c78c .cfa: x29 16 + .ra: .cfa -8 + ^ x29: .cfa -16 + ^
STACK CFI INIT c798 14 .cfa: sp 0 +
STACK CFI c79c .cfa: sp 16 +
STACK CFI c7a0 .cfa: x29 16 + .ra: .cfa -8 + ^ x29: .cfa -16 + ^
STACK CFI INIT c7ac c .cfa: sp 0 +
STACK CFI c7b0 .cfa: sp 16 +
STACK CFI c7b4 .cfa: x29 16 + .ra: .cfa -8 + ^ x29: .cfa -16 + ^
STACK CFI INIT c808 30 .cfa: sp 0 +
STACK CFI c80c .cfa: sp 32 +
STACK CFI c814 .cfa: x29 32 + x19: .cfa -16 + ^ .ra: .cfa -24 + ^ x29: .cfa -32 + ^
STACK CFI c82c .cfa: sp 32 +
STACK CFI c834 .cfa: sp 0 +
STACK CFI INIT c838 c .cfa: sp 0 +
STACK CFI c83c .cfa: sp 16 +
STACK CFI c840 .cfa: x29 16 + .ra: .cfa -8 + ^ x29: .cfa -16 + ^
STACK CFI INIT c844 4 .cfa: sp 0 +
STACK CFI INIT c848 4 .cfa: sp 0 +
STACK CFI INIT c84c 38 .cfa: sp 0 +
STACK CFI c850 .cfa: sp 32 +
STACK CFI c858 .cfa: x29 32 + x19: .cfa -16 + ^ .ra: .cfa -24 + ^ x29: .cfa -32 + ^
STACK CFI c878 .cfa: sp 32 +
STACK CFI c880 .cfa: sp 0 +
STACK CFI INIT c884 18 .cfa: sp 0 +
STACK CFI INIT c89c 4 .cfa: sp 0 +
STACK CFI INIT c8a0 4 .cfa: sp 0 +
STACK CFI INIT c8a4 10 .cfa: sp 0 +
STACK CFI INIT c8b4 1c .cfa: sp 0 +
STACK CFI INIT c8d0 c .cfa: sp 0 +
STACK CFI INIT c8dc f8 .cfa: sp 0 +
STACK CFI c8e0 .cfa: sp 64 +
STACK CFI c8f0 .cfa: x29 64 + x19: .cfa -8 + ^ x20: .cfa -16 + ^ x21: .cfa -24 + ^ x22: .cfa -32 + ^ x23: .cfa -48 + ^ .ra: .cfa -56 + ^ x29: .cfa -64 + ^
STACK CFI c94c .cfa: sp 64 +
STACK CFI c95c .cfa: sp 0 +
STACK CFI c960 .cfa: x29 64 +
STACK CFI c97c .cfa: sp 64 +
STACK CFI c98c .cfa: sp 0 +
STACK CFI c990 .cfa: x29 64 +
STACK CFI c9c0 .cfa: sp 64 +
STACK CFI c9d0 .cfa: sp 0 +
STACK CFI INIT c9d4 168 .cfa: sp 0 +
STACK CFI c9d8 .cfa: sp 80 +
STACK CFI c9ec .cfa: x29 80 + x19: .cfa -8 + ^ x20: .cfa -16 + ^ x21: .cfa -24 + ^ x22: .cfa -32 + ^ x23: .cfa -40 + ^ x24: .cfa -48 + ^ x25: .cfa -56 + ^ x26: .cfa -64 + ^ .ra: .cfa -72 + ^ x29: .cfa -80 + ^
STACK CFI cb24 .cfa: sp 80 +
STACK CFI cb38 .cfa: sp 0 +
STACK CFI INIT cb3c 1b0 .cfa: sp 0 +
STACK CFI INIT d058 4 .cfa: sp 0 +
STACK CFI INIT d7b4 3c .cfa: sp 0 +
STACK CFI d7b8 .cfa: sp 32 +
STACK CFI d7c0 .cfa: x29 32 + x19: .cfa -16 + ^ .ra: .cfa -24 + ^ x29: .cfa -32 + ^
STACK CFI d7cc .cfa: sp 32 +
STACK CFI d7d4 .cfa: sp 0 +
STACK CFI d7d8 .cfa: x29 32 +
STACK CFI d7e4 .cfa: sp 32 +
STACK CFI d7ec .cfa: sp 0 +
STACK CFI INIT d7f0 c .cfa: sp 0 +
STACK CFI INIT d7fc 24c .cfa: sp 0 +
STACK CFI INIT da48 a0 .cfa: sp 0 +
STACK CFI da54 .cfa: sp 32 +
STACK CFI daac .cfa: sp 0 +
STACK CFI dab0 .cfa: sp 32 +
STACK CFI dab8 .cfa: sp 0 +
STACK CFI dabc .cfa: sp 32 +
STACK CFI dad0 .cfa: sp 0 +
STACK CFI dad4 .cfa: sp 32 +
STACK CFI dae4 .cfa: sp 0 +
STACK CFI INIT dae8 38 .cfa: sp 0 +
STACK CFI daf4 .cfa: sp 32 +
STACK CFI db1c .cfa: sp 0 +
STACK CFI INIT ddb4 7c .cfa: sp 0 +
STACK CFI ddb8 .cfa: sp 32 +
STACK CFI ddc0 .cfa: x29 32 + x19: .cfa -16 + ^ .ra: .cfa -24 + ^ x29: .cfa -32 + ^
STACK CFI ddec .cfa: sp 32 +
STACK CFI ddf4 .cfa: sp 0 +
STACK CFI ddf8 .cfa: x29 32 +
STACK CFI de24 .cfa: sp 32 +
STACK CFI de2c .cfa: sp 0 +
STACK CFI INIT de80 2c .cfa: sp 0 +
STACK CFI de84 .cfa: sp 32 +
STACK CFI de8c .cfa: x29 32 + x19: .cfa -16 + ^ .ra: .cfa -24 + ^ x29: .cfa -32 + ^
STACK CFI dea0 .cfa: sp 32 +
STACK CFI dea8 .cfa: sp 0 +
STACK CFI INIT e66c 64 .cfa: sp 0 +
STACK CFI e670 .cfa: sp 32 +
STACK CFI e678 .cfa: x29 32 + x19: .cfa -16 + ^ .ra: .cfa -24 + ^ x29: .cfa -32 + ^
STACK CFI e694 .cfa: sp 32 +
STACK CFI e69c .cfa: sp 0 +
STACK CFI e6a0 .cfa: x29 32 +
STACK CFI e6c4 .cfa: sp 32 +
STACK CFI e6cc .cfa: sp 0 +
STACK CFI INIT e6d0 570 .cfa: sp 0 +
STACK CFI e6d4 .cfa: sp 176 +
STACK CFI e6e8 .cfa: x29 64 + x19: .cfa -8 + ^ x20: .cfa -16 + ^ x21: .cfa -24 + ^ x22: .cfa -32 + ^ x23: .cfa -40 + ^ x24: .cfa -48 + ^ .ra: .cfa -56 + ^ x29: .cfa -64 + ^
STACK CFI e918 .cfa: sp 176 +
STACK CFI e92c .cfa: sp 0 +
STACK CFI e930 .cfa: x29 64 +
STACK CFI e97c .cfa: sp 176 +
STACK CFI e990 .cfa: sp 0 +
STACK CFI e994 .cfa: x29 64 +
STACK CFI e9cc .cfa: sp 176 +
STACK CFI e9e0 .cfa: sp 0 +
STACK CFI e9e4 .cfa: x29 64 +
STACK CFI e9fc .cfa: sp 176 +
STACK CFI ea10 .cfa: sp 0 +
STACK CFI ea14 .cfa: x29 64 +
STACK CFI ea34 .cfa: sp 176 +
STACK CFI ea48 .cfa: sp 0 +
STACK CFI ea4c .cfa: x29 64 +
STACK CFI ea64 .cfa: sp 176 +
STACK CFI ea78 .cfa: sp 0 +
STACK CFI ea7c .cfa: x29 64 +
STACK CFI ea90 .cfa: sp 176 +
STACK CFI eaa4 .cfa: sp 0 +
STACK CFI eaa8 .cfa: x29 64 +
STACK CFI eabc .cfa: sp 176 +
STACK CFI ead0 .cfa: sp 0 +
STACK CFI ead4 .cfa: x29 64 +
STACK CFI eae4 .cfa: sp 176 +
STACK CFI eaf8 .cfa: sp 0 +
STACK CFI eafc .cfa: x29 64 +
STACK CFI eb0c .cfa: sp 176 +
STACK CFI eb20 .cfa: sp 0 +
STACK CFI eb24 .cfa: x29 64 +
STACK CFI eb3c .cfa: sp 176 +
STACK CFI eb50 .cfa: sp 0 +
STACK CFI eb54 .cfa: x29 64 +
STACK CFI eb68 .cfa: sp 176 +
STACK CFI eb7c .cfa: sp 0 +
STACK CFI eb80 .cfa: x29 64 +
STACK CFI eb98 .cfa: sp 176 +
STACK CFI ebac .cfa: sp 0 +
STACK CFI ebb0 .cfa: x29 64 +
STACK CFI ebdc .cfa: sp 176 +
STACK CFI ebf0 .cfa: sp 0 +
STACK CFI ebf4 .cfa: x29 64 +
STACK CFI ec08 .cfa: sp 176 +
STACK CFI ec1c .cfa: sp 0 +
STACK CFI ec20 .cfa: x29 64 +
STACK CFI INIT ec40 228 .cfa: sp 0 +
STACK CFI INIT ee68 2dc .cfa: sp 0 +
STACK CFI INIT f144 53c .cfa: sp 0 +
STACK CFI INIT f680 78 .cfa: sp 0 +
STACK CFI f684 .cfa: sp 48 +
STACK CFI f690 .cfa: x29 48 + x19: .cfa -8 + ^ x20: .cfa -16 + ^ x21: .cfa -24 + ^ x22: .cfa -32 + ^ .ra: .cfa -40 + ^ x29: .cfa -48 + ^
STACK CFI f6d8 .cfa: sp 48 +
STACK CFI f6e4 .cfa: sp 0 +
STACK CFI f6e8 .cfa: sp 48 +
STACK CFI f6f4 .cfa: sp 0 +
STACK CFI INIT f6f8 8c .cfa: sp 0 +
STACK CFI f6fc .cfa: sp 32 +
STACK CFI f704 .cfa: x29 32 + x19: .cfa -16 + ^ .ra: .cfa -24 + ^ x29: .cfa -32 + ^
STACK CFI f738 .cfa: sp 32 +
STACK CFI f740 .cfa: sp 0 +
STACK CFI f744 .cfa: x29 32 +
STACK CFI f778 .cfa: sp 32 +
STACK CFI f780 .cfa: sp 0 +
STACK CFI INIT f784 24 .cfa: sp 0 +
STACK CFI f788 .cfa: sp 32 +
STACK CFI f790 .cfa: x29 32 + x19: .cfa -16 + ^ .ra: .cfa -24 + ^ x29: .cfa -32 + ^
STACK CFI f79c .cfa: sp 32 +
STACK CFI f7a4 .cfa: sp 0 +
STACK CFI INIT f7a8 150 .cfa: sp 0 +
STACK CFI f7ac .cfa: sp 48 +
STACK CFI f7b8 .cfa: x29 48 + x19: .cfa -8 + ^ x20: .cfa -16 + ^ x21: .cfa -24 + ^ x22: .cfa -32 + ^ .ra: .cfa -40 + ^ x29: .cfa -48 + ^
STACK CFI f8e8 .cfa: sp 48 +
STACK CFI f8f4 .cfa: sp 0 +
STACK CFI INIT f8f8 68 .cfa: sp 0 +
STACK CFI f8fc .cfa: sp 64 +
STACK CFI f908 .cfa: x29 32 + x19: .cfa -16 + ^ .ra: .cfa -24 + ^ x29: .cfa -32 + ^
STACK CFI f94c .cfa: sp 64 +
STACK CFI f958 .cfa: sp 0 +
STACK CFI f95c .cfa: x29 32 +
STACK CFI INIT f960 90 .cfa: sp 0 +
STACK CFI f964 .cfa: sp 32 +
STACK CFI f96c .cfa: x29 32 + x19: .cfa -8 + ^ x20: .cfa -16 + ^ .ra: .cfa -24 + ^ x29: .cfa -32 + ^
STACK CFI f998 .cfa: sp 32 +
STACK CFI f9a0 .cfa: sp 0 +
STACK CFI f9a4 .cfa: x29 32 +
STACK CFI f9e4 .cfa: sp 32 +
STACK CFI f9ec .cfa: sp 0 +
STACK CFI INIT f9f0 ec .cfa: sp 0 +
STACK CFI f9f4 .cfa: sp 112 +
STACK CFI fa04 .cfa: x29 48 + x19: .cfa -8 + ^ x20: .cfa -16 + ^ x21: .cfa -32 + ^ .ra: .cfa -40 + ^ x29: .cfa -48 + ^
STACK CFI fac4 .cfa: sp 112 +
STACK CFI fad4 .cfa: sp 0 +
STACK CFI fad8 .cfa: x29 48 +
STACK CFI INIT fadc ec .cfa: sp 0 +
STACK CFI fae0 .cfa: sp 112 +
STACK CFI faf0 .cfa: x29 48 + x19: .cfa -8 + ^ x20: .cfa -16 + ^ x21: .cfa -32 + ^ .ra: .cfa -40 + ^ x29: .cfa -48 + ^
STACK CFI fbb0 .cfa: sp 112 +
STACK CFI fbc0 .cfa: sp 0 +
STACK CFI fbc4 .cfa: x29 48 +
STACK CFI INIT fbc8 48 .cfa: sp 0 +
STACK CFI fbcc .cfa: sp 32 +
STACK CFI fbd4 .cfa: x29 32 + x19: .cfa -8 + ^ x20: .cfa -16 + ^ .ra: .cfa -24 + ^ x29: .cfa -32 + ^
STACK CFI fbf8 .cfa: sp 32 +
STACK CFI fc00 .cfa: sp 0 +
STACK CFI fc04 .cfa: x29 32 +
STACK CFI INIT fc10 98 .cfa: sp 0 +
STACK CFI fc14 .cfa: sp 80 +
STACK CFI fc20 .cfa: x29 32 + x19: .cfa -16 + ^ .ra: .cfa -24 + ^ x29: .cfa -32 + ^
STACK CFI fc94 .cfa: sp 80 +
STACK CFI fca0 .cfa: sp 0 +
STACK CFI fca4 .cfa: x29 32 +
STACK CFI INIT fca8 260 .cfa: sp 0 +
STACK CFI fcac .cfa: sp 112 +
STACK CFI fcc4 .cfa: x29 80 + x19: .cfa -8 + ^ x20: .cfa -16 + ^ x21: .cfa -24 + ^ x22: .cfa -32 + ^ x23: .cfa -40 + ^ x24: .cfa -48 + ^ x25: .cfa -64 + ^ .ra: .cfa -72 + ^ x29: .cfa -80 + ^
STACK CFI fea8 .cfa: sp 112 +
STACK CFI fec0 .cfa: sp 0 +
STACK CFI fec4 .cfa: x29 80 +
STACK CFI INIT ff08 150 .cfa: sp 0 +
STACK CFI ff0c .cfa: sp 48 +
STACK CFI ff18 .cfa: x29 48 + x19: .cfa -8 + ^ x20: .cfa -16 + ^ x21: .cfa -24 + ^ x22: .cfa -32 + ^ .ra: .cfa -40 + ^ x29: .cfa -48 + ^
STACK CFI 10048 .cfa: sp 48 +
STACK CFI 10054 .cfa: sp 0 +
STACK CFI INIT 10058 1e0 .cfa: sp 0 +
STACK CFI 1005c .cfa: sp 96 +
STACK CFI 10070 .cfa: x29 64 + x19: .cfa -8 + ^ x20: .cfa -16 + ^ x21: .cfa -24 + ^ x22: .cfa -32 + ^ x23: .cfa -40 + ^ x24: .cfa -48 + ^ .ra: .cfa -56 + ^ x29: .cfa -64 + ^
STACK CFI 101f0 .cfa: sp 96 +
STACK CFI 10204 .cfa: sp 0 +
STACK CFI 10208 .cfa: x29 64 +
STACK CFI INIT 10238 284 .cfa: sp 0 +
STACK CFI 1023c .cfa: sp 112 +
STACK CFI 10254 .cfa: x29 80 + x19: .cfa -8 + ^ x20: .cfa -16 + ^ x21: .cfa -24 + ^ x22: .cfa -32 + ^ x23: .cfa -40 + ^ x24: .cfa -48 + ^ x25: .cfa -64 + ^ .ra: .cfa -72 + ^ x29: .cfa -80 + ^
STACK CFI 1045c .cfa: sp 112 +
STACK CFI 10474 .cfa: sp 0 +
STACK CFI 10478 .cfa: x29 80 +
STACK CFI INIT 104bc 208 .cfa: sp 0 +
STACK CFI 104c0 .cfa: sp 96 +
STACK CFI 104d4 .cfa: x29 64 + x19: .cfa -8 + ^ x20: .cfa -16 + ^ x21: .cfa -24 + ^ x22: .cfa -32 + ^ x23: .cfa -40 + ^ x24: .cfa -48 + ^ .ra: .cfa -56 + ^ x29: .cfa -64 + ^
STACK CFI 1067c .cfa: sp 96 +
STACK CFI 10690 .cfa: sp 0 +
STACK CFI 10694 .cfa: x29 64 +
STACK CFI INIT 106c4 360 .cfa: sp 0 +
STACK CFI 106c8 .cfa: sp 160 +
STACK CFI 106e4 .cfa: x29 96 + x19: .cfa -8 + ^ x20: .cfa -16 + ^ x21: .cfa -24 + ^ x22: .cfa -32 + ^ x23: .cfa -40 + ^ x24: .cfa -48 + ^ x25: .cfa -56 + ^ x26: .cfa -64 + ^ x27: .cfa -72 + ^ x28: .cfa -80 + ^ .ra: .cfa -88 + ^ x29: .cfa -96 + ^
STACK CFI 109b0 .cfa: sp 160 +
STACK CFI 109cc .cfa: sp 0 +
STACK CFI 109d0 .cfa: x29 96 +
STACK CFI INIT 10a24 314 .cfa: sp 0 +
STACK CFI 10a28 .cfa: sp 144 +
STACK CFI 10a44 .cfa: x29 96 + x19: .cfa -8 + ^ x20: .cfa -16 + ^ x21: .cfa -24 + ^ x22: .cfa -32 + ^ x23: .cfa -40 + ^ x24: .cfa -48 + ^ x25: .cfa -56 + ^ x26: .cfa -64 + ^ x27: .cfa -72 + ^ x28: .cfa -80 + ^ .ra: .cfa -88 + ^ x29: .cfa -96 + ^
STACK CFI 10cc0 .cfa: sp 144 +
STACK CFI 10cdc .cfa: sp 0 +
STACK CFI 10ce0 .cfa: x29 96 +
STACK CFI INIT 10d38 290 .cfa: sp 0 +
STACK CFI 10d3c .cfa: sp 128 +
STACK CFI 10d54 .cfa: x29 80 + x19: .cfa -8 + ^ x20: .cfa -16 + ^ x21: .cfa -24 + ^ x22: .cfa -32 + ^ x23: .cfa -40 + ^ x24: .cfa -48 + ^ x25: .cfa -56 + ^ x26: .cfa -64 + ^ .ra: .cfa -72 + ^ x29: .cfa -80 + ^
STACK CFI 10fa8 .cfa: sp 128 +
STACK CFI 10fc0 .cfa: sp 0 +
STACK CFI 10fc4 .cfa: x29 80 +
STACK CFI INIT 10fc8 ddc .cfa: sp 0 +
STACK CFI 10fcc .cfa: sp 144 +
STACK CFI 10fe8 .cfa: x29 96 + x19: .cfa -8 + ^ x20: .cfa -16 + ^ x21: .cfa -24 + ^ x22: .cfa -32 + ^ x23: .cfa -40 + ^ x24: .cfa -48 + ^ x25: .cfa -56 + ^ x26: .cfa -64 + ^ x27: .cfa -72 + ^ x28: .cfa -80 + ^ .ra: .cfa -88 + ^ x29: .cfa -96 + ^
STACK CFI 11c7c .cfa: sp 144 +
STACK CFI 11c98 .cfa: sp 0 +
STACK CFI 11c9c .cfa: x29 96 +
STACK CFI INIT 11da4 1d0 .cfa: sp 0 +
STACK CFI 11da8 .cfa: sp 80 +
STACK CFI 11dbc .cfa: x29 80 + x19: .cfa -8 + ^ x20: .cfa -16 + ^ x21: .cfa -24 + ^ x22: .cfa -32 + ^ x23: .cfa -40 + ^ x24: .cfa -48 + ^ x25: .cfa -64 + ^ .ra: .cfa -72 + ^ x29: .cfa -80 + ^
STACK CFI 11f5c .cfa: sp 80 +
STACK CFI 11f70 .cfa: sp 0 +
STACK CFI INIT 11f74 23c .cfa: sp 0 +
STACK CFI 11f78 .cfa: sp 112 +
STACK CFI 11f8c .cfa: x29 64 + x19: .cfa -8 + ^ x20: .cfa -16 + ^ x21: .cfa -24 + ^ x22: .cfa -32 + ^ x23: .cfa -40 + ^ x24: .cfa -48 + ^ .ra: .cfa -56 + ^ x29: .cfa -64 + ^
STACK CFI 12168 .cfa: sp 112 +
STACK CFI 1217c .cfa: sp 0 +
STACK CFI 12180 .cfa: x29 64 +
STACK CFI INIT 121b0 30c .cfa: sp 0 +
STACK CFI 121b4 .cfa: sp 80 +
STACK CFI 121c8 .cfa: x29 64 + x19: .cfa -8 + ^ x20: .cfa -16 + ^ x21: .cfa -24 + ^ x22: .cfa -32 + ^ x23: .cfa -40 + ^ x24: .cfa -48 + ^ .ra: .cfa -56 + ^ x29: .cfa -64 + ^
STACK CFI 12344 .cfa: sp 80 +
STACK CFI 12358 .cfa: sp 0 +
STACK CFI 1235c .cfa: x29 64 +
STACK CFI INIT 124bc 178 .cfa: sp 0 +
STACK CFI 124c0 .cfa: sp 80 +
STACK CFI 124d4 .cfa: x29 64 + x19: .cfa -8 + ^ x20: .cfa -16 + ^ x21: .cfa -24 + ^ x22: .cfa -32 + ^ x23: .cfa -40 + ^ x24: .cfa -48 + ^ .ra: .cfa -56 + ^ x29: .cfa -64 + ^
STACK CFI 12618 .cfa: sp 80 +
STACK CFI 1262c .cfa: sp 0 +
STACK CFI 12630 .cfa: x29 64 +
STACK CFI INIT 12634 178 .cfa: sp 0 +
STACK CFI 12638 .cfa: sp 80 +
STACK CFI 1264c .cfa: x29 64 + x19: .cfa -8 + ^ x20: .cfa -16 + ^ x21: .cfa -24 + ^ x22: .cfa -32 + ^ x23: .cfa -40 + ^ x24: .cfa -48 + ^ .ra: .cfa -56 + ^ x29: .cfa -64 + ^
STACK CFI 12790 .cfa: sp 80 +
STACK CFI 127a4 .cfa: sp 0 +
STACK CFI 127a8 .cfa: x29 64 +
STACK CFI INIT 127ac 240 .cfa: sp 0 +
STACK CFI 127b0 .cfa: sp 96 +
STACK CFI 127c8 .cfa: x29 96 + x19: .cfa -8 + ^ x20: .cfa -16 + ^ x21: .cfa -24 + ^ x22: .cfa -32 + ^ x23: .cfa -40 + ^ x24: .cfa -48 + ^ x25: .cfa -56 + ^ x26: .cfa -64 + ^ x27: .cfa -72 + ^ x28: .cfa -80 + ^ .ra: .cfa -88 + ^ x29: .cfa -96 + ^
STACK CFI 129d0 .cfa: sp 96 +
STACK CFI 129e8 .cfa: sp 0 +
STACK CFI INIT 13660 154 .cfa: sp 0 +
STACK CFI 13664 .cfa: sp 96 +
STACK CFI 13678 .cfa: x29 64 + x19: .cfa -8 + ^ x20: .cfa -16 + ^ x21: .cfa -24 + ^ x22: .cfa -32 + ^ x23: .cfa -48 + ^ .ra: .cfa -56 + ^ x29: .cfa -64 + ^
STACK CFI 13758 .cfa: sp 96 +
STACK CFI 1376c .cfa: sp 0 +
STACK CFI 13770 .cfa: x29 64 +
STACK CFI INIT 13a20 44 .cfa: sp 0 +
STACK CFI 13a24 .cfa: sp 32 +
STACK CFI 13a2c .cfa: x29 32 + x19: .cfa -16 + ^ .ra: .cfa -24 + ^ x29: .cfa -32 + ^
STACK CFI 13a48 .cfa: sp 32 +
STACK CFI 13a50 .cfa: sp 0 +
STACK CFI 13a54 .cfa: x29 32 +
STACK CFI 13a58 .cfa: sp 32 +
STACK CFI 13a60 .cfa: sp 0 +
STACK CFI INIT 13a64 1d0 .cfa: sp 0 +
STACK CFI 13a68 .cfa: sp 64 +
STACK CFI 13a78 .cfa: x29 64 + x19: .cfa -8 + ^ x20: .cfa -16 + ^ x21: .cfa -24 + ^ x22: .cfa -32 + ^ x23: .cfa -40 + ^ x24: .cfa -48 + ^ .ra: .cfa -56 + ^ x29: .cfa -64 + ^
STACK CFI 13b38 .cfa: sp 64 +
STACK CFI 13b48 .cfa: sp 0 +
STACK CFI 13b4c .cfa: x29 64 +
STACK CFI INIT 13c34 17c .cfa: sp 0 +
STACK CFI INIT 13db0 ac .cfa: sp 0 +
STACK CFI 13db4 .cfa: sp 64 +
STACK CFI 13dc4 .cfa: x29 64 + x19: .cfa -8 + ^ x20: .cfa -16 + ^ x21: .cfa -24 + ^ x22: .cfa -32 + ^ x23: .cfa -48 + ^ .ra: .cfa -56 + ^ x29: .cfa -64 + ^
STACK CFI 13e40 .cfa: sp 64 +
STACK CFI 13e50 .cfa: sp 0 +
STACK CFI 13e54 .cfa: x29 64 +
STACK CFI INIT 13e5c 110 .cfa: sp 0 +
STACK CFI 13e60 .cfa: sp 64 +
STACK CFI 13e70 .cfa: x29 64 + x19: .cfa -8 + ^ x20: .cfa -16 + ^ x21: .cfa -24 + ^ x22: .cfa -32 + ^ x23: .cfa -40 + ^ x24: .cfa -48 + ^ .ra: .cfa -56 + ^ x29: .cfa -64 + ^
STACK CFI 13f50 .cfa: sp 64 +
STACK CFI 13f60 .cfa: sp 0 +
STACK CFI 13f64 .cfa: x29 64 +
STACK CFI INIT 14324 a0 .cfa: sp 0 +
STACK CFI 14328 .cfa: sp 48 +
STACK CFI 14334 .cfa: x29 48 + x19: .cfa -8 + ^ x20: .cfa -16 + ^ x21: .cfa -24 + ^ x22: .cfa -32 + ^ .ra: .cfa -40 + ^ x29: .cfa -48 + ^
STACK CFI 143a0 .cfa: sp 48 +
STACK CFI 143ac .cfa: sp 0 +
STACK CFI 143b0 .cfa: sp 48 +
STACK CFI 143bc .cfa: sp 0 +
STACK CFI 143c0 .cfa: x29 48 +
STACK CFI INIT 15078 158 .cfa: sp 0 +
STACK CFI 1507c .cfa: sp 96 +
STACK CFI 15090 .cfa: x29 64 + x19: .cfa -8 + ^ x20: .cfa -16 + ^ x21: .cfa -24 + ^ x22: .cfa -32 + ^ x23: .cfa -48 + ^ .ra: .cfa -56 + ^ x29: .cfa -64 + ^
STACK CFI 15174 .cfa: sp 96 +
STACK CFI 15188 .cfa: sp 0 +
STACK CFI 1518c .cfa: x29 64 +
STACK CFI INIT 151d0 190 .cfa: sp 0 +
STACK CFI INIT 15e5c 1dc .cfa: sp 0 +
STACK CFI 15e60 .cfa: sp 80 +
STACK CFI 15e74 .cfa: x29 80 + x19: .cfa -8 + ^ x20: .cfa -16 + ^ x21: .cfa -24 + ^ x22: .cfa -32 + ^ x23: .cfa -40 + ^ x24: .cfa -48 + ^ x25: .cfa -64 + ^ .ra: .cfa -72 + ^ x29: .cfa -80 + ^
STACK CFI 16020 .cfa: sp 80 +
STACK CFI 16034 .cfa: sp 0 +
STACK CFI INIT 17468 124 .cfa: sp 0 +
STACK CFI 17498 .cfa: sp 32 +
STACK CFI 174a0 .cfa: x29 32 + x19: .cfa -8 + ^ x20: .cfa -16 + ^ .ra: .cfa -24 + ^ x29: .cfa -32 + ^
STACK CFI 17580 .cfa: sp 32 +
STACK CFI 17588 .cfa: sp 0 +
STACK CFI INIT 17ce8 320 .cfa: sp 0 +
STACK CFI 17cec .cfa: sp 64 +
STACK CFI 17cfc .cfa: x29 64 + x19: .cfa -8 + ^ x20: .cfa -16 + ^ x21: .cfa -24 + ^ x22: .cfa -32 + ^ x23: .cfa -40 + ^ x24: .cfa -48 + ^ .ra: .cfa -56 + ^ x29: .cfa -64 + ^
STACK CFI 17d78 .cfa: sp 64 +
STACK CFI 17d88 .cfa: sp 0 +
STACK CFI 17d8c .cfa: x29 64 +
STACK CFI 17f60 .cfa: sp 64 +
STACK CFI 17f70 .cfa: sp 0 +
STACK CFI 17f74 .cfa: x29 64 +
STACK CFI 17f84 .cfa: sp 64 +
STACK CFI 17f94 .cfa: sp 0 +
STACK CFI 17f98 .cfa: x29 64 +
STACK CFI INIT 18008 a0 .cfa: sp 0 +
STACK CFI 1800c .cfa: sp 48 +
STACK CFI 18018 .cfa: x29 48 + x19: .cfa -8 + ^ x20: .cfa -16 + ^ x21: .cfa -24 + ^ x22: .cfa -32 + ^ .ra: .cfa -40 + ^ x29: .cfa -48 + ^
STACK CFI 18084 .cfa: sp 48 +
STACK CFI 18090 .cfa: sp 0 +
STACK CFI 18094 .cfa: sp 48 +
STACK CFI 180a0 .cfa: sp 0 +
STACK CFI 180a4 .cfa: x29 48 +
STACK CFI INIT 18f58 160 .cfa: sp 0 +
STACK CFI 18f5c .cfa: sp 64 +
STACK CFI 18f6c .cfa: x29 64 + x19: .cfa -8 + ^ x20: .cfa -16 + ^ x21: .cfa -24 + ^ x22: .cfa -32 + ^ x23: .cfa -48 + ^ .ra: .cfa -56 + ^ x29: .cfa -64 + ^
STACK CFI 19064 .cfa: sp 64 +
STACK CFI 19074 .cfa: sp 0 +
STACK CFI 19078 .cfa: x29 64 +
STACK CFI INIT 190b8 214 .cfa: sp 0 +
STACK CFI 190bc .cfa: sp 128 +
STACK CFI 190d8 .cfa: x29 96 + x19: .cfa -8 + ^ x20: .cfa -16 + ^ x21: .cfa -24 + ^ x22: .cfa -32 + ^ x23: .cfa -40 + ^ x24: .cfa -48 + ^ x25: .cfa -56 + ^ x26: .cfa -64 + ^ x27: .cfa -80 + ^ .ra: .cfa -88 + ^ x29: .cfa -96 + ^
STACK CFI 19254 .cfa: sp 128 +
STACK CFI 19270 .cfa: sp 0 +
STACK CFI 19274 .cfa: x29 96 +
STACK CFI INIT 1af68 290 .cfa: sp 0 +
STACK CFI 1af6c .cfa: sp 16 +
STACK CFI 1af70 .cfa: x29 16 + .ra: .cfa -8 + ^ x29: .cfa -16 + ^
STACK CFI 1affc .cfa: sp 16 +
STACK CFI 1b000 .cfa: sp 0 +
STACK CFI 1b004 .cfa: x29 16 +
STACK CFI 1b054 .cfa: sp 16 +
STACK CFI 1b058 .cfa: sp 0 +
STACK CFI 1b05c .cfa: x29 16 +
STACK CFI 1b1c0 .cfa: sp 16 +
STACK CFI 1b1c4 .cfa: sp 0 +
STACK CFI 1b1c8 .cfa: x29 16 +
STACK CFI INIT 1b1f8 158 .cfa: sp 0 +
STACK CFI 1b1fc .cfa: sp 112 +
STACK CFI 1b218 .cfa: x29 96 + x19: .cfa -8 + ^ x20: .cfa -16 + ^ x21: .cfa -24 + ^ x22: .cfa -32 + ^ x23: .cfa -40 + ^ x24: .cfa -48 + ^ x25: .cfa -56 + ^ x26: .cfa -64 + ^ x27: .cfa -72 + ^ x28: .cfa -80 + ^ .ra: .cfa -88 + ^ x29: .cfa -96 + ^
STACK CFI 1b300 .cfa: sp 112 +
STACK CFI 1b304 .cfa: x29 96 +
STACK CFI 1b30c .cfa: sp 112 +
STACK CFI 1b328 .cfa: sp 0 +
STACK CFI 1b32c .cfa: x29 96 +
STACK CFI 1b34c .cfa: sp 112 +
STACK CFI INIT 1b350 e54 .cfa: sp 0 +
STACK CFI 1b354 .cfa: sp 192 +
STACK CFI 1b370 .cfa: x29 96 + x19: .cfa -8 + ^ x20: .cfa -16 + ^ x21: .cfa -24 + ^ x22: .cfa -32 + ^ x23: .cfa -40 + ^ x24: .cfa -48 + ^ x25: .cfa -56 + ^ x26: .cfa -64 + ^ x27: .cfa -72 + ^ x28: .cfa -80 + ^ .ra: .cfa -88 + ^ x29: .cfa -96 + ^
STACK CFI 1c08c .cfa: sp 192 +
STACK CFI 1c0a8 .cfa: sp 0 +
STACK CFI 1c0ac .cfa: x29 96 +
STACK CFI INIT 1c1a4 1068 .cfa: sp 0 +
STACK CFI 1c1a8 .cfa: sp 288 +
STACK CFI 1c1c4 .cfa: x29 96 + x19: .cfa -8 + ^ x20: .cfa -16 + ^ x21: .cfa -24 + ^ x22: .cfa -32 + ^ x23: .cfa -40 + ^ x24: .cfa -48 + ^ x25: .cfa -56 + ^ x26: .cfa -64 + ^ x27: .cfa -72 + ^ x28: .cfa -80 + ^ .ra: .cfa -88 + ^ x29: .cfa -96 + ^
STACK CFI 1cf54 .cfa: sp 288 +
STACK CFI 1cf70 .cfa: sp 0 +
STACK CFI 1cf74 .cfa: x29 96 +
STACK CFI INIT 1d20c 520 .cfa: sp 0 +
STACK CFI 1d210 .cfa: sp 144 +
STACK CFI 1d22c .cfa: x29 96 + x19: .cfa -8 + ^ x20: .cfa -16 + ^ x21: .cfa -24 + ^ x22: .cfa -32 + ^ x23: .cfa -40 + ^ x24: .cfa -48 + ^ x25: .cfa -56 + ^ x26: .cfa -64 + ^ x27: .cfa -72 + ^ x28: .cfa -80 + ^ .ra: .cfa -88 + ^ x29: .cfa -96 + ^
STACK CFI 1d708 .cfa: sp 144 +
STACK CFI 1d724 .cfa: sp 0 +
STACK CFI 1d728 .cfa: x29 96 +
STACK CFI INIT 1e0cc 136c .cfa: sp 0 +
STACK CFI 1e0d0 .cfa: sp 224 +
STACK CFI 1e0ec .cfa: x29 96 + x19: .cfa -8 + ^ x20: .cfa -16 + ^ x21: .cfa -24 + ^ x22: .cfa -32 + ^ x23: .cfa -40 + ^ x24: .cfa -48 + ^ x25: .cfa -56 + ^ x26: .cfa -64 + ^ x27: .cfa -72 + ^ x28: .cfa -80 + ^ .ra: .cfa -88 + ^ x29: .cfa -96 + ^
STACK CFI 1f414 .cfa: sp 224 +
STACK CFI 1f430 .cfa: sp 0 +
STACK CFI 1f434 .cfa: x29 96 +
STACK CFI INIT 1f438 1b8 .cfa: sp 0 +
STACK CFI INIT 82a0 484 .cfa: sp 0 +
STACK CFI 82a4 .cfa: sp 224 +
STACK CFI 82c0 .cfa: x29 96 + x19: .cfa -8 + ^ x20: .cfa -16 + ^ x21: .cfa -24 + ^ x22: .cfa -32 + ^ x23: .cfa -40 + ^ x24: .cfa -48 + ^ x25: .cfa -56 + ^ x26: .cfa -64 + ^ x27: .cfa -72 + ^ x28: .cfa -80 + ^ .ra: .cfa -88 + ^ x29: .cfa -96 + ^
STACK CFI 8530 .cfa: sp 224 +
STACK CFI 854c .cfa: sp 0 +
STACK CFI 8550 .cfa: x29 96 +
STACK CFI 861c .cfa: sp 224 +
STACK CFI 8638 .cfa: sp 0 +
STACK CFI 863c .cfa: x29 96 +
STACK CFI INIT 873c 484 .cfa: sp 0 +
STACK CFI 8740 .cfa: sp 224 +
STACK CFI 875c .cfa: x29 96 + x19: .cfa -8 + ^ x20: .cfa -16 + ^ x21: .cfa -24 + ^ x22: .cfa -32 + ^ x23: .cfa -40 + ^ x24: .cfa -48 + ^ x25: .cfa -56 + ^ x26: .cfa -64 + ^ x27: .cfa -72 + ^ x28: .cfa -80 + ^ .ra: .cfa -88 + ^ x29: .cfa -96 + ^
STACK CFI 89cc .cfa: sp 224 +
STACK CFI 89e8 .cfa: sp 0 +
STACK CFI 89ec .cfa: x29 96 +
STACK CFI 8ab8 .cfa: sp 224 +
STACK CFI 8ad4 .cfa: sp 0 +
STACK CFI 8ad8 .cfa: x29 96 +
STACK CFI INIT 8be8 63c .cfa: sp 0 +
STACK CFI 8bec .cfa: sp 288 +
STACK CFI 8c08 .cfa: x29 96 + x19: .cfa -8 + ^ x20: .cfa -16 + ^ x21: .cfa -24 + ^ x22: .cfa -32 + ^ x23: .cfa -40 + ^ x24: .cfa -48 + ^ x25: .cfa -56 + ^ x26: .cfa -64 + ^ x28: .cfa -80 + ^ .ra: .cfa -88 + ^ x29: .cfa -96 + ^
STACK CFI 904c .cfa: sp 288 +
STACK CFI 9068 .cfa: sp 0 +
STACK CFI 906c .cfa: x29 96 +
STACK CFI INIT 9274 74 .cfa: sp 0 +
STACK CFI 9278 .cfa: sp 48 +
STACK CFI 9284 .cfa: x29 32 + x19: .cfa -8 + ^ x20: .cfa -16 + ^ .ra: .cfa -24 + ^ x29: .cfa -32 + ^
STACK CFI 92d0 .cfa: sp 48 +
STACK CFI 92dc .cfa: sp 0 +
STACK CFI 92e0 .cfa: x29 32 +
STACK CFI INIT 9368 154 .cfa: sp 0 +
STACK CFI 936c .cfa: sp 384 +
STACK CFI 9380 .cfa: x29 64 + x19: .cfa -8 + ^ x20: .cfa -16 + ^ x21: .cfa -24 + ^ x22: .cfa -32 + ^ x23: .cfa -40 + ^ x28: .cfa -48 + ^ .ra: .cfa -56 + ^ x29: .cfa -64 + ^
STACK CFI 9464 .cfa: sp 384 +
STACK CFI 9478 .cfa: sp 0 +
STACK CFI 947c .cfa: x29 64 +
STACK CFI INIT 94f0 12c .cfa: sp 0 +
STACK CFI 94f4 .cfa: sp 80 +
STACK CFI 9508 .cfa: x29 80 + x19: .cfa -8 + ^ x20: .cfa -16 + ^ x21: .cfa -24 + ^ x22: .cfa -32 + ^ x23: .cfa -40 + ^ x24: .cfa -48 + ^ x25: .cfa -56 + ^ x26: .cfa -64 + ^ .ra: .cfa -72 + ^ x29: .cfa -80 + ^
STACK CFI 95d0 .cfa: sp 80 +
STACK CFI 95e4 .cfa: sp 0 +
STACK CFI 95e8 .cfa: x29 80 +
STACK CFI INIT 96c0 1a4 .cfa: sp 0 +
STACK CFI 96c4 .cfa: sp 112 +
STACK CFI 96dc .cfa: x29 80 + x19: .cfa -8 + ^ x20: .cfa -16 + ^ x21: .cfa -24 + ^ x22: .cfa -32 + ^ x23: .cfa -40 + ^ x24: .cfa -48 + ^ x25: .cfa -56 + ^ x26: .cfa -64 + ^ .ra: .cfa -72 + ^ x29: .cfa -80 + ^
STACK CFI 97cc .cfa: sp 112 +
STACK CFI 97e4 .cfa: sp 0 +
STACK CFI 97e8 .cfa: x29 80 +
STACK CFI INIT 9864 1dc .cfa: sp 0 +
STACK CFI 9868 .cfa: sp 128 +
STACK CFI 9884 .cfa: x29 96 + x19: .cfa -8 + ^ x20: .cfa -16 + ^ x21: .cfa -24 + ^ x22: .cfa -32 + ^ x23: .cfa -40 + ^ x24: .cfa -48 + ^ x25: .cfa -56 + ^ x26: .cfa -64 + ^ x27: .cfa -80 + ^ .ra: .cfa -88 + ^ x29: .cfa -96 + ^
STACK CFI 99f0 .cfa: sp 128 +
STACK CFI 9a0c .cfa: sp 0 +
STACK CFI 9a10 .cfa: x29 96 +
STACK CFI INIT 9a54 50 .cfa: sp 0 +
STACK CFI 9a58 .cfa: sp 32 +
STACK CFI 9a60 .cfa: x29 32 + x19: .cfa -8 + ^ x20: .cfa -16 + ^ .ra: .cfa -24 + ^ x29: .cfa -32 + ^
STACK CFI INIT 9b08 178 .cfa: sp 0 +
STACK CFI 9b0c .cfa: sp 80 +
STACK CFI 9b20 .cfa: x29 80 + x19: .cfa -8 + ^ x20: .cfa -16 + ^ x21: .cfa -24 + ^ x22: .cfa -32 + ^ x23: .cfa -40 + ^ x24: .cfa -48 + ^ x25: .cfa -64 + ^ .ra: .cfa -72 + ^ x29: .cfa -80 + ^
STACK CFI 9c4c .cfa: sp 80 +
STACK CFI 9c60 .cfa: sp 0 +
STACK CFI 9c64 .cfa: x29 80 +
STACK CFI INIT 9dc8 224 .cfa: sp 0 +
STACK CFI 9dcc .cfa: sp 128 +
STACK CFI 9de4 .cfa: x29 80 + x19: .cfa -8 + ^ x20: .cfa -16 + ^ x21: .cfa -24 + ^ x22: .cfa -32 + ^ x23: .cfa -40 + ^ x24: .cfa -48 + ^ x25: .cfa -64 + ^ .ra: .cfa -72 + ^ x29: .cfa -80 + ^
STACK CFI 9f80 .cfa: sp 128 +
STACK CFI 9f98 .cfa: sp 0 +
STACK CFI 9f9c .cfa: x29 80 +
STACK CFI INIT a748 bd0 .cfa: sp 0 +
STACK CFI a74c .cfa: sp 112 +
STACK CFI a768 .cfa: x29 96 + x19: .cfa -8 + ^ x20: .cfa -16 + ^ x21: .cfa -24 + ^ x22: .cfa -32 + ^ x23: .cfa -40 + ^ x24: .cfa -48 + ^ x25: .cfa -56 + ^ x26: .cfa -64 + ^ x27: .cfa -72 + ^ x28: .cfa -80 + ^ .ra: .cfa -88 + ^ x29: .cfa -96 + ^ v8: .cfa -112 + ^
STACK CFI b204 .cfa: sp 112 +
STACK CFI b220 .cfa: sp 0 +
STACK CFI b224 .cfa: x29 96 +
STACK CFI INIT b318 8fc .cfa: sp 0 +
STACK CFI b31c .cfa: sp 96 +
STACK CFI b334 .cfa: x29 96 + x19: .cfa -8 + ^ x20: .cfa -16 + ^ x21: .cfa -24 + ^ x22: .cfa -32 + ^ x23: .cfa -40 + ^ x24: .cfa -48 + ^ x25: .cfa -56 + ^ x26: .cfa -64 + ^ x27: .cfa -72 + ^ x28: .cfa -80 + ^ .ra: .cfa -88 + ^ x29: .cfa -96 + ^
STACK CFI b374 .cfa: sp 96 +
STACK CFI b38c .cfa: sp 0 +
STACK CFI b390 .cfa: x29 96 +
STACK CFI bb28 .cfa: sp 96 +
STACK CFI bb40 .cfa: sp 0 +
STACK CFI bb44 .cfa: x29 96 +
STACK CFI INIT bea4 63c .cfa: sp 0 +
STACK CFI bea8 .cfa: sp 224 +
STACK CFI bec4 .cfa: x29 96 + x19: .cfa -8 + ^ x20: .cfa -16 + ^ x21: .cfa -24 + ^ x22: .cfa -32 + ^ x23: .cfa -40 + ^ x24: .cfa -48 + ^ x25: .cfa -56 + ^ x26: .cfa -64 + ^ x27: .cfa -72 + ^ x28: .cfa -80 + ^ .ra: .cfa -88 + ^ x29: .cfa -96 + ^
STACK CFI c36c .cfa: sp 224 +
STACK CFI c388 .cfa: sp 0 +
STACK CFI c38c .cfa: x29 96 +
STACK CFI INIT c7b8 50 .cfa: sp 0 +
STACK CFI c7bc .cfa: sp 32 +
STACK CFI c7c4 .cfa: x29 32 + x19: .cfa -8 + ^ x20: .cfa -16 + ^ .ra: .cfa -24 + ^ x29: .cfa -32 + ^
STACK CFI INIT ccec 36c .cfa: sp 0 +
STACK CFI ccf0 .cfa: sp 240 +
STACK CFI cd04 .cfa: x29 64 + x19: .cfa -8 + ^ x20: .cfa -16 + ^ x21: .cfa -24 + ^ x22: .cfa -32 + ^ x23: .cfa -40 + ^ x24: .cfa -48 + ^ .ra: .cfa -56 + ^ x29: .cfa -64 + ^
STACK CFI cf2c .cfa: sp 240 +
STACK CFI cf40 .cfa: sp 0 +
STACK CFI cf44 .cfa: x29 64 +
STACK CFI INIT d05c 758 .cfa: sp 0 +
STACK CFI d060 .cfa: sp 96 +
STACK CFI d078 .cfa: x29 96 + x19: .cfa -8 + ^ x20: .cfa -16 + ^ x21: .cfa -24 + ^ x22: .cfa -32 + ^ x23: .cfa -40 + ^ x24: .cfa -48 + ^ x25: .cfa -56 + ^ x26: .cfa -64 + ^ x28: .cfa -80 + ^ .ra: .cfa -88 + ^ x29: .cfa -96 + ^
STACK CFI d720 .cfa: sp 96 +
STACK CFI d738 .cfa: sp 0 +
STACK CFI d73c .cfa: x29 96 +
STACK CFI INIT db20 294 .cfa: sp 0 +
STACK CFI db24 .cfa: sp 240 +
STACK CFI db3c .cfa: x29 80 + x19: .cfa -8 + ^ x20: .cfa -16 + ^ x21: .cfa -24 + ^ x22: .cfa -32 + ^ x23: .cfa -40 + ^ x24: .cfa -48 + ^ x25: .cfa -64 + ^ .ra: .cfa -72 + ^ x29: .cfa -80 + ^
STACK CFI dcdc .cfa: sp 240 +
STACK CFI dcf4 .cfa: sp 0 +
STACK CFI dcf8 .cfa: x29 80 +
STACK CFI INIT de30 50 .cfa: sp 0 +
STACK CFI de34 .cfa: sp 32 +
STACK CFI de3c .cfa: x29 32 + x19: .cfa -8 + ^ x20: .cfa -16 + ^ .ra: .cfa -24 + ^ x29: .cfa -32 + ^
STACK CFI INIT deac 7c0 .cfa: sp 0 +
STACK CFI deb0 .cfa: sp 320 +
STACK CFI decc .cfa: x29 96 + x19: .cfa -8 + ^ x20: .cfa -16 + ^ x21: .cfa -24 + ^ x22: .cfa -32 + ^ x23: .cfa -40 + ^ x24: .cfa -48 + ^ x25: .cfa -56 + ^ x26: .cfa -64 + ^ x27: .cfa -72 + ^ x28: .cfa -80 + ^ .ra: .cfa -88 + ^ x29: .cfa -96 + ^
STACK CFI e51c .cfa: sp 320 +
STACK CFI e538 .cfa: sp 0 +
STACK CFI e53c .cfa: x29 96 +
STACK CFI INIT 129ec c74 .cfa: sp 0 +
STACK CFI 129f0 .cfa: sp 96 +
STACK CFI 12a08 .cfa: x29 96 + x19: .cfa -8 + ^ x20: .cfa -16 + ^ x21: .cfa -24 + ^ x22: .cfa -32 + ^ x23: .cfa -40 + ^ x24: .cfa -48 + ^ x25: .cfa -56 + ^ x26: .cfa -64 + ^ x27: .cfa -72 + ^ x28: .cfa -80 + ^ .ra: .cfa -88 + ^ x29: .cfa -96 + ^
STACK CFI 13480 .cfa: sp 96 +
STACK CFI 13498 .cfa: sp 0 +
STACK CFI 1349c .cfa: x29 96 +
STACK CFI INIT 137b4 26c .cfa: sp 0 +
STACK CFI 137b8 .cfa: sp 128 +
STACK CFI 137c8 .cfa: x29 48 + x19: .cfa -8 + ^ x20: .cfa -16 + ^ x21: .cfa -24 + ^ x22: .cfa -32 + ^ .ra: .cfa -40 + ^ x29: .cfa -48 + ^
STACK CFI 1396c .cfa: sp 128 +
STACK CFI 1397c .cfa: sp 0 +
STACK CFI 13980 .cfa: x29 48 +
STACK CFI INIT 13f6c 3b8 .cfa: sp 0 +
STACK CFI 13f70 .cfa: sp 96 +
STACK CFI 13f88 .cfa: x29 96 + x19: .cfa -8 + ^ x20: .cfa -16 + ^ x21: .cfa -24 + ^ x22: .cfa -32 + ^ x23: .cfa -40 + ^ x24: .cfa -48 + ^ x25: .cfa -56 + ^ x26: .cfa -64 + ^ x27: .cfa -72 + ^ x28: .cfa -80 + ^ .ra: .cfa -88 + ^ x29: .cfa -96 + ^
STACK CFI 142c4 .cfa: sp 96 +
STACK CFI 142dc .cfa: sp 0 +
STACK CFI 142e0 .cfa: x29 96 +
STACK CFI INIT 143c4 cb4 .cfa: sp 0 +
STACK CFI 143c8 .cfa: sp 96 +
STACK CFI 143e0 .cfa: x29 96 + x19: .cfa -8 + ^ x20: .cfa -16 + ^ x21: .cfa -24 + ^ x22: .cfa -32 + ^ x23: .cfa -40 + ^ x24: .cfa -48 + ^ x25: .cfa -56 + ^ x26: .cfa -64 + ^ x27: .cfa -72 + ^ x28: .cfa -80 + ^ .ra: .cfa -88 + ^ x29: .cfa -96 + ^
STACK CFI 14e88 .cfa: sp 96 +
STACK CFI 14ea0 .cfa: sp 0 +
STACK CFI 14ea4 .cfa: x29 96 +
STACK CFI INIT 15360 afc .cfa: sp 0 +
STACK CFI 15364 .cfa: sp 96 +
STACK CFI 1537c .cfa: x29 96 + x19: .cfa -8 + ^ x20: .cfa -16 + ^ x21: .cfa -24 + ^ x22: .cfa -32 + ^ x23: .cfa -40 + ^ x24: .cfa -48 + ^ x25: .cfa -56 + ^ x26: .cfa -64 + ^ x27: .cfa -72 + ^ x28: .cfa -80 + ^ .ra: .cfa -88 + ^ x29: .cfa -96 + ^
STACK CFI 15dd0 .cfa: sp 96 +
STACK CFI 15de8 .cfa: sp 0 +
STACK CFI 15dec .cfa: x29 96 +
STACK CFI INIT 16038 1430 .cfa: sp 0 +
STACK CFI 1603c .cfa: sp 96 +
STACK CFI 16054 .cfa: x29 96 + x19: .cfa -8 + ^ x20: .cfa -16 + ^ x21: .cfa -24 + ^ x22: .cfa -32 + ^ x23: .cfa -40 + ^ x24: .cfa -48 + ^ x25: .cfa -56 + ^ x26: .cfa -64 + ^ x27: .cfa -72 + ^ x28: .cfa -80 + ^ .ra: .cfa -88 + ^ x29: .cfa -96 + ^
STACK CFI 172f0 .cfa: sp 96 +
STACK CFI 17308 .cfa: sp 0 +
STACK CFI 1730c .cfa: x29 96 +
STACK CFI INIT 1758c 75c .cfa: sp 0 +
STACK CFI 17590 .cfa: sp 368 +
STACK CFI 175ac .cfa: x29 96 + x19: .cfa -8 + ^ x20: .cfa -16 + ^ x21: .cfa -24 + ^ x22: .cfa -32 + ^ x23: .cfa -40 + ^ x24: .cfa -48 + ^ x25: .cfa -56 + ^ x26: .cfa -64 + ^ x27: .cfa -72 + ^ x28: .cfa -80 + ^ .ra: .cfa -88 + ^ x29: .cfa -96 + ^
STACK CFI 17660 .cfa: sp 368 +
STACK CFI 1767c .cfa: sp 0 +
STACK CFI 17680 .cfa: x29 96 +
STACK CFI 176d4 .cfa: sp 368 +
STACK CFI 176f0 .cfa: sp 0 +
STACK CFI 176f4 .cfa: x29 96 +
STACK CFI INIT 180a8 eb0 .cfa: sp 0 +
STACK CFI 180ac .cfa: sp 96 +
STACK CFI 180c4 .cfa: x29 96 + x19: .cfa -8 + ^ x20: .cfa -16 + ^ x21: .cfa -24 + ^ x22: .cfa -32 + ^ x23: .cfa -40 + ^ x24: .cfa -48 + ^ x25: .cfa -56 + ^ x26: .cfa -64 + ^ x27: .cfa -72 + ^ x28: .cfa -80 + ^ .ra: .cfa -88 + ^ x29: .cfa -96 + ^
STACK CFI 18d6c .cfa: sp 96 +
STACK CFI 18d84 .cfa: sp 0 +
STACK CFI 18d88 .cfa: x29 96 +
STACK CFI INIT 192cc 1c9c .cfa: sp 0 +
STACK CFI 192d0 .cfa: sp 112 +
STACK CFI 192ec .cfa: x29 96 + x19: .cfa -8 + ^ x20: .cfa -16 + ^ x21: .cfa -24 + ^ x22: .cfa -32 + ^ x23: .cfa -40 + ^ x24: .cfa -48 + ^ x25: .cfa -56 + ^ x26: .cfa -64 + ^ x27: .cfa -72 + ^ x28: .cfa -80 + ^ .ra: .cfa -88 + ^ x29: .cfa -96 + ^ v8: .cfa -112 + ^
STACK CFI 196d4 .cfa: sp 112 +
STACK CFI 196f0 .cfa: sp 0 +
STACK CFI 196f4 .cfa: x29 96 +
STACK CFI INIT 1d72c 9a0 .cfa: sp 0 +
STACK CFI 1d730 .cfa: sp 144 +
STACK CFI 1d748 .cfa: x29 80 + x19: .cfa -8 + ^ x20: .cfa -16 + ^ x21: .cfa -24 + ^ x22: .cfa -32 + ^ x23: .cfa -40 + ^ x24: .cfa -48 + ^ x25: .cfa -64 + ^ .ra: .cfa -72 + ^ x29: .cfa -80 + ^
STACK CFI 1e048 .cfa: sp 144 +
STACK CFI 1e060 .cfa: sp 0 +
STACK CFI 1e064 .cfa: x29 80 +
STACK CFI INIT 1f5f0 57c .cfa: sp 0 +
STACK CFI 1f5f4 .cfa: sp 96 +
STACK CFI 1f60c .cfa: x29 96 + x19: .cfa -8 + ^ x20: .cfa -16 + ^ x21: .cfa -24 + ^ x22: .cfa -32 + ^ x23: .cfa -40 + ^ x24: .cfa -48 + ^ x25: .cfa -56 + ^ x26: .cfa -64 + ^ x27: .cfa -72 + ^ x28: .cfa -80 + ^ .ra: .cfa -88 + ^ x29: .cfa -96 + ^
STACK CFI 1fad0 .cfa: sp 96 +
STACK CFI 1fae8 .cfa: sp 0 +
STACK CFI 1faec .cfa: x29 96 +
STACK CFI INIT 1fb6c 67c .cfa: sp 0 +
STACK CFI 1fb70 .cfa: sp 96 +
STACK CFI 1fb88 .cfa: x29 96 + x19: .cfa -8 + ^ x20: .cfa -16 + ^ x21: .cfa -24 + ^ x22: .cfa -32 + ^ x23: .cfa -40 + ^ x24: .cfa -48 + ^ x25: .cfa -56 + ^ x26: .cfa -64 + ^ x27: .cfa -72 + ^ x28: .cfa -80 + ^ .ra: .cfa -88 + ^ x29: .cfa -96 + ^
STACK CFI 2014c .cfa: sp 96 +
STACK CFI 20164 .cfa: sp 0 +
STACK CFI 20168 .cfa: x29 96 +
