MODULE Linux arm64 9D5FFBDC8EC63E0D819D9B1CF0FE54CB0 prevter.platformer-ui-tweaks.android64.so
INFO CODE_ID DCFB5F9DC68E0D3E819D9B1CF0FE54CB23CAB459
INFO GENERATOR mozilla/dump_syms 2.3.4
PUBLIC 64c0 0 __on_dlclose
PUBLIC 64d0 0 __emutls_unregister_key
PUBLIC 64d8 0 __on_dlclose_late
PUBLIC 64e0 0 __atexit_handler_wrapper
PUBLIC 64f4 0 atexit
PUBLIC 6510 0 pthread_atfork
PUBLIC 6520 0 __aarch64_ldadd8_acq_rel
PUBLIC 6550 0 init_have_lse_atomics
PUBLIC 65e8 0 __init_cpu_features_constructor
PUBLIC 6b84 0 __init_cpu_features
PUBLIC 6c10 0 __aarch64_ldadd8_relax
PUBLIC 6c40 0 geodeExecFunction14<(anonymous namespace)::ExecFuncUnique14>(geode::ModStateEvent*)
PUBLIC 7234 0 __cxx_global_var_init.1
PUBLIC 7798 0 geode::modifier::ModifyBase<geode::modifier::ModifyDerive<FixedUILayer, UILayer> >::~ModifyBase()
PUBLIC 77b0 0 __cxx_global_var_init.2
PUBLIC 7c34 0 geode::modifier::ModifyBase<geode::modifier::ModifyDerive<FixedPlayLayer, PlayLayer> >::~ModifyBase()
PUBLIC 7c4c 0 geode::Mod::getSettingValue<bool>(std::__ndk1::basic_string_view<char, std::__ndk1::char_traits<char> >) const
PUBLIC 7d7c 0 geode::EventListener<geode::SettingChangedFilterV3>::EventListener(std::__ndk1::function<void (std::__ndk1::shared_ptr<geode::SettingV3>)>, geode::SettingChangedFilterV3)
PUBLIC 7e74 0 geode::SettingChangedFilterV3::~SettingChangedFilterV3()
PUBLIC 7ec4 0 std::__ndk1::__function::__func<geode::listenForSettingChangesV3<bool, geodeExecFunction14<(anonymous namespace)::ExecFuncUnique14>(geode::ModStateEvent*)::{lambda(bool)#1}>(std::__ndk1::basic_string_view<char, std::__ndk1::char_traits<char> >, geodeExecFunction14<(anonymous namespace)::ExecFuncUnique14>(geode::ModStateEvent*)::{lambda(bool)#1}&&, geode::Mod*)::{lambda(std::__ndk1::shared_ptr<geode::SettingV3>)#1}, std::__ndk1::allocator<geode::listenForSettingChangesV3<bool, geodeExecFunction14<(anonymous namespace)::ExecFuncUnique14>(geode::ModStateEvent*)::{lambda(bool)#1}>(std::__ndk1::basic_string_view<char, std::__ndk1::char_traits<char> >, geodeExecFunction14<(anonymous namespace)::ExecFuncUnique14>(geode::ModStateEvent*)::{lambda(bool)#1}&&, geode::Mod*)::{lambda(std::__ndk1::shared_ptr<geode::SettingV3>)#1}>, void (std::__ndk1::shared_ptr<geode::SettingV3>)>::~__func()
PUBLIC 7ec8 0 std::__ndk1::__function::__func<geode::listenForSettingChangesV3<bool, geodeExecFunction14<(anonymous namespace)::ExecFuncUnique14>(geode::ModStateEvent*)::{lambda(bool)#1}>(std::__ndk1::basic_string_view<char, std::__ndk1::char_traits<char> >, geodeExecFunction14<(anonymous namespace)::ExecFuncUnique14>(geode::ModStateEvent*)::{lambda(bool)#1}&&, geode::Mod*)::{lambda(std::__ndk1::shared_ptr<geode::SettingV3>)#1}, std::__ndk1::allocator<geode::listenForSettingChangesV3<bool, geodeExecFunction14<(anonymous namespace)::ExecFuncUnique14>(geode::ModStateEvent*)::{lambda(bool)#1}>(std::__ndk1::basic_string_view<char, std::__ndk1::char_traits<char> >, geodeExecFunction14<(anonymous namespace)::ExecFuncUnique14>(geode::ModStateEvent*)::{lambda(bool)#1}&&, geode::Mod*)::{lambda(std::__ndk1::shared_ptr<geode::SettingV3>)#1}>, void (std::__ndk1::shared_ptr<geode::SettingV3>)>::__clone() const
PUBLIC 7f00 0 std::__ndk1::__function::__func<geode::listenForSettingChangesV3<bool, geodeExecFunction14<(anonymous namespace)::ExecFuncUnique14>(geode::ModStateEvent*)::{lambda(bool)#1}>(std::__ndk1::basic_string_view<char, std::__ndk1::char_traits<char> >, geodeExecFunction14<(anonymous namespace)::ExecFuncUnique14>(geode::ModStateEvent*)::{lambda(bool)#1}&&, geode::Mod*)::{lambda(std::__ndk1::shared_ptr<geode::SettingV3>)#1}, std::__ndk1::allocator<geode::listenForSettingChangesV3<bool, geodeExecFunction14<(anonymous namespace)::ExecFuncUnique14>(geode::ModStateEvent*)::{lambda(bool)#1}>(std::__ndk1::basic_string_view<char, std::__ndk1::char_traits<char> >, geodeExecFunction14<(anonymous namespace)::ExecFuncUnique14>(geode::ModStateEvent*)::{lambda(bool)#1}&&, geode::Mod*)::{lambda(std::__ndk1::shared_ptr<geode::SettingV3>)#1}>, void (std::__ndk1::shared_ptr<geode::SettingV3>)>::__clone(std::__ndk1::__function::__base<void (std::__ndk1::shared_ptr<geode::SettingV3>)>*) const
PUBLIC 7f18 0 std::__ndk1::__function::__func<geode::listenForSettingChangesV3<bool, geodeExecFunction14<(anonymous namespace)::ExecFuncUnique14>(geode::ModStateEvent*)::{lambda(bool)#1}>(std::__ndk1::basic_string_view<char, std::__ndk1::char_traits<char> >, geodeExecFunction14<(anonymous namespace)::ExecFuncUnique14>(geode::ModStateEvent*)::{lambda(bool)#1}&&, geode::Mod*)::{lambda(std::__ndk1::shared_ptr<geode::SettingV3>)#1}, std::__ndk1::allocator<geode::listenForSettingChangesV3<bool, geodeExecFunction14<(anonymous namespace)::ExecFuncUnique14>(geode::ModStateEvent*)::{lambda(bool)#1}>(std::__ndk1::basic_string_view<char, std::__ndk1::char_traits<char> >, geodeExecFunction14<(anonymous namespace)::ExecFuncUnique14>(geode::ModStateEvent*)::{lambda(bool)#1}&&, geode::Mod*)::{lambda(std::__ndk1::shared_ptr<geode::SettingV3>)#1}>, void (std::__ndk1::shared_ptr<geode::SettingV3>)>::destroy()
PUBLIC 7f1c 0 std::__ndk1::__function::__func<geode::listenForSettingChangesV3<bool, geodeExecFunction14<(anonymous namespace)::ExecFuncUnique14>(geode::ModStateEvent*)::{lambda(bool)#1}>(std::__ndk1::basic_string_view<char, std::__ndk1::char_traits<char> >, geodeExecFunction14<(anonymous namespace)::ExecFuncUnique14>(geode::ModStateEvent*)::{lambda(bool)#1}&&, geode::Mod*)::{lambda(std::__ndk1::shared_ptr<geode::SettingV3>)#1}, std::__ndk1::allocator<geode::listenForSettingChangesV3<bool, geodeExecFunction14<(anonymous namespace)::ExecFuncUnique14>(geode::ModStateEvent*)::{lambda(bool)#1}>(std::__ndk1::basic_string_view<char, std::__ndk1::char_traits<char> >, geodeExecFunction14<(anonymous namespace)::ExecFuncUnique14>(geode::ModStateEvent*)::{lambda(bool)#1}&&, geode::Mod*)::{lambda(std::__ndk1::shared_ptr<geode::SettingV3>)#1}>, void (std::__ndk1::shared_ptr<geode::SettingV3>)>::destroy_deallocate()
PUBLIC 7f20 0 std::__ndk1::__function::__func<geode::listenForSettingChangesV3<bool, geodeExecFunction14<(anonymous namespace)::ExecFuncUnique14>(geode::ModStateEvent*)::{lambda(bool)#1}>(std::__ndk1::basic_string_view<char, std::__ndk1::char_traits<char> >, geodeExecFunction14<(anonymous namespace)::ExecFuncUnique14>(geode::ModStateEvent*)::{lambda(bool)#1}&&, geode::Mod*)::{lambda(std::__ndk1::shared_ptr<geode::SettingV3>)#1}, std::__ndk1::allocator<geode::listenForSettingChangesV3<bool, geodeExecFunction14<(anonymous namespace)::ExecFuncUnique14>(geode::ModStateEvent*)::{lambda(bool)#1}>(std::__ndk1::basic_string_view<char, std::__ndk1::char_traits<char> >, geodeExecFunction14<(anonymous namespace)::ExecFuncUnique14>(geode::ModStateEvent*)::{lambda(bool)#1}&&, geode::Mod*)::{lambda(std::__ndk1::shared_ptr<geode::SettingV3>)#1}>, void (std::__ndk1::shared_ptr<geode::SettingV3>)>::operator()(std::__ndk1::shared_ptr<geode::SettingV3>&&)
PUBLIC 800c 0 std::__ndk1::__function::__func<geode::listenForSettingChangesV3<bool, geodeExecFunction14<(anonymous namespace)::ExecFuncUnique14>(geode::ModStateEvent*)::{lambda(bool)#1}>(std::__ndk1::basic_string_view<char, std::__ndk1::char_traits<char> >, geodeExecFunction14<(anonymous namespace)::ExecFuncUnique14>(geode::ModStateEvent*)::{lambda(bool)#1}&&, geode::Mod*)::{lambda(std::__ndk1::shared_ptr<geode::SettingV3>)#1}, std::__ndk1::allocator<geode::listenForSettingChangesV3<bool, geodeExecFunction14<(anonymous namespace)::ExecFuncUnique14>(geode::ModStateEvent*)::{lambda(bool)#1}>(std::__ndk1::basic_string_view<char, std::__ndk1::char_traits<char> >, geodeExecFunction14<(anonymous namespace)::ExecFuncUnique14>(geode::ModStateEvent*)::{lambda(bool)#1}&&, geode::Mod*)::{lambda(std::__ndk1::shared_ptr<geode::SettingV3>)#1}>, void (std::__ndk1::shared_ptr<geode::SettingV3>)>::target(std::type_info const&) const
PUBLIC 8028 0 std::__ndk1::__function::__func<geode::listenForSettingChangesV3<bool, geodeExecFunction14<(anonymous namespace)::ExecFuncUnique14>(geode::ModStateEvent*)::{lambda(bool)#1}>(std::__ndk1::basic_string_view<char, std::__ndk1::char_traits<char> >, geodeExecFunction14<(anonymous namespace)::ExecFuncUnique14>(geode::ModStateEvent*)::{lambda(bool)#1}&&, geode::Mod*)::{lambda(std::__ndk1::shared_ptr<geode::SettingV3>)#1}, std::__ndk1::allocator<geode::listenForSettingChangesV3<bool, geodeExecFunction14<(anonymous namespace)::ExecFuncUnique14>(geode::ModStateEvent*)::{lambda(bool)#1}>(std::__ndk1::basic_string_view<char, std::__ndk1::char_traits<char> >, geodeExecFunction14<(anonymous namespace)::ExecFuncUnique14>(geode::ModStateEvent*)::{lambda(bool)#1}&&, geode::Mod*)::{lambda(std::__ndk1::shared_ptr<geode::SettingV3>)#1}>, void (std::__ndk1::shared_ptr<geode::SettingV3>)>::target_type() const
PUBLIC 8034 0 std::__throw_bad_array_new_length([abi:ne180000], void)
PUBLIC 8068 0 __clang_call_terminate
PUBLIC 8078 0 geode::cast::traverseTypeinfoFor(void*, geode::cast::ClassTypeinfoType const*, char const*)
PUBLIC 8170 0 std::__ndk1::basic_string<char, std::__ndk1::char_traits<char>, std::__ndk1::allocator<char> >::__throw_length_error[abi:ne180000]() const
PUBLIC 8184 0 std::__ndk1::__throw_length_error[abi:ne180000](char const*)
PUBLIC 81d4 0 std::length_error::length_error[abi:ne180000](char const*)
PUBLIC 8204 0 geode::EventListener<geode::SettingChangedFilterV3>::getPool() const
PUBLIC 8208 0 geode::EventListener<geode::SettingChangedFilterV3>::handle(geode::Event*)
PUBLIC 836c 0 geode::EventListener<geode::SettingChangedFilterV3>::~EventListener()
PUBLIC 8408 0 geode::EventListener<geode::SettingChangedFilterV3>::~EventListener()
PUBLIC 84ac 0 std::__ndk1::__function::__func<geode::listenForSettingChangesV3<bool, geodeExecFunction14<(anonymous namespace)::ExecFuncUnique14>(geode::ModStateEvent*)::{lambda(bool)#2}>(std::__ndk1::basic_string_view<char, std::__ndk1::char_traits<char> >, geodeExecFunction14<(anonymous namespace)::ExecFuncUnique14>(geode::ModStateEvent*)::{lambda(bool)#2}&&, geode::Mod*)::{lambda(std::__ndk1::shared_ptr<geode::SettingV3>)#1}, std::__ndk1::allocator<geode::listenForSettingChangesV3<bool, geodeExecFunction14<(anonymous namespace)::ExecFuncUnique14>(geode::ModStateEvent*)::{lambda(bool)#2}>(std::__ndk1::basic_string_view<char, std::__ndk1::char_traits<char> >, geodeExecFunction14<(anonymous namespace)::ExecFuncUnique14>(geode::ModStateEvent*)::{lambda(bool)#2}&&, geode::Mod*)::{lambda(std::__ndk1::shared_ptr<geode::SettingV3>)#1}>, void (std::__ndk1::shared_ptr<geode::SettingV3>)>::~__func()
PUBLIC 84b0 0 std::__ndk1::__function::__func<geode::listenForSettingChangesV3<bool, geodeExecFunction14<(anonymous namespace)::ExecFuncUnique14>(geode::ModStateEvent*)::{lambda(bool)#2}>(std::__ndk1::basic_string_view<char, std::__ndk1::char_traits<char> >, geodeExecFunction14<(anonymous namespace)::ExecFuncUnique14>(geode::ModStateEvent*)::{lambda(bool)#2}&&, geode::Mod*)::{lambda(std::__ndk1::shared_ptr<geode::SettingV3>)#1}, std::__ndk1::allocator<geode::listenForSettingChangesV3<bool, geodeExecFunction14<(anonymous namespace)::ExecFuncUnique14>(geode::ModStateEvent*)::{lambda(bool)#2}>(std::__ndk1::basic_string_view<char, std::__ndk1::char_traits<char> >, geodeExecFunction14<(anonymous namespace)::ExecFuncUnique14>(geode::ModStateEvent*)::{lambda(bool)#2}&&, geode::Mod*)::{lambda(std::__ndk1::shared_ptr<geode::SettingV3>)#1}>, void (std::__ndk1::shared_ptr<geode::SettingV3>)>::__clone() const
PUBLIC 84e8 0 std::__ndk1::__function::__func<geode::listenForSettingChangesV3<bool, geodeExecFunction14<(anonymous namespace)::ExecFuncUnique14>(geode::ModStateEvent*)::{lambda(bool)#2}>(std::__ndk1::basic_string_view<char, std::__ndk1::char_traits<char> >, geodeExecFunction14<(anonymous namespace)::ExecFuncUnique14>(geode::ModStateEvent*)::{lambda(bool)#2}&&, geode::Mod*)::{lambda(std::__ndk1::shared_ptr<geode::SettingV3>)#1}, std::__ndk1::allocator<geode::listenForSettingChangesV3<bool, geodeExecFunction14<(anonymous namespace)::ExecFuncUnique14>(geode::ModStateEvent*)::{lambda(bool)#2}>(std::__ndk1::basic_string_view<char, std::__ndk1::char_traits<char> >, geodeExecFunction14<(anonymous namespace)::ExecFuncUnique14>(geode::ModStateEvent*)::{lambda(bool)#2}&&, geode::Mod*)::{lambda(std::__ndk1::shared_ptr<geode::SettingV3>)#1}>, void (std::__ndk1::shared_ptr<geode::SettingV3>)>::__clone(std::__ndk1::__function::__base<void (std::__ndk1::shared_ptr<geode::SettingV3>)>*) const
PUBLIC 8500 0 std::__ndk1::__function::__func<geode::listenForSettingChangesV3<bool, geodeExecFunction14<(anonymous namespace)::ExecFuncUnique14>(geode::ModStateEvent*)::{lambda(bool)#2}>(std::__ndk1::basic_string_view<char, std::__ndk1::char_traits<char> >, geodeExecFunction14<(anonymous namespace)::ExecFuncUnique14>(geode::ModStateEvent*)::{lambda(bool)#2}&&, geode::Mod*)::{lambda(std::__ndk1::shared_ptr<geode::SettingV3>)#1}, std::__ndk1::allocator<geode::listenForSettingChangesV3<bool, geodeExecFunction14<(anonymous namespace)::ExecFuncUnique14>(geode::ModStateEvent*)::{lambda(bool)#2}>(std::__ndk1::basic_string_view<char, std::__ndk1::char_traits<char> >, geodeExecFunction14<(anonymous namespace)::ExecFuncUnique14>(geode::ModStateEvent*)::{lambda(bool)#2}&&, geode::Mod*)::{lambda(std::__ndk1::shared_ptr<geode::SettingV3>)#1}>, void (std::__ndk1::shared_ptr<geode::SettingV3>)>::destroy()
PUBLIC 8504 0 std::__ndk1::__function::__func<geode::listenForSettingChangesV3<bool, geodeExecFunction14<(anonymous namespace)::ExecFuncUnique14>(geode::ModStateEvent*)::{lambda(bool)#2}>(std::__ndk1::basic_string_view<char, std::__ndk1::char_traits<char> >, geodeExecFunction14<(anonymous namespace)::ExecFuncUnique14>(geode::ModStateEvent*)::{lambda(bool)#2}&&, geode::Mod*)::{lambda(std::__ndk1::shared_ptr<geode::SettingV3>)#1}, std::__ndk1::allocator<geode::listenForSettingChangesV3<bool, geodeExecFunction14<(anonymous namespace)::ExecFuncUnique14>(geode::ModStateEvent*)::{lambda(bool)#2}>(std::__ndk1::basic_string_view<char, std::__ndk1::char_traits<char> >, geodeExecFunction14<(anonymous namespace)::ExecFuncUnique14>(geode::ModStateEvent*)::{lambda(bool)#2}&&, geode::Mod*)::{lambda(std::__ndk1::shared_ptr<geode::SettingV3>)#1}>, void (std::__ndk1::shared_ptr<geode::SettingV3>)>::destroy_deallocate()
PUBLIC 8508 0 std::__ndk1::__function::__func<geode::listenForSettingChangesV3<bool, geodeExecFunction14<(anonymous namespace)::ExecFuncUnique14>(geode::ModStateEvent*)::{lambda(bool)#2}>(std::__ndk1::basic_string_view<char, std::__ndk1::char_traits<char> >, geodeExecFunction14<(anonymous namespace)::ExecFuncUnique14>(geode::ModStateEvent*)::{lambda(bool)#2}&&, geode::Mod*)::{lambda(std::__ndk1::shared_ptr<geode::SettingV3>)#1}, std::__ndk1::allocator<geode::listenForSettingChangesV3<bool, geodeExecFunction14<(anonymous namespace)::ExecFuncUnique14>(geode::ModStateEvent*)::{lambda(bool)#2}>(std::__ndk1::basic_string_view<char, std::__ndk1::char_traits<char> >, geodeExecFunction14<(anonymous namespace)::ExecFuncUnique14>(geode::ModStateEvent*)::{lambda(bool)#2}&&, geode::Mod*)::{lambda(std::__ndk1::shared_ptr<geode::SettingV3>)#1}>, void (std::__ndk1::shared_ptr<geode::SettingV3>)>::operator()(std::__ndk1::shared_ptr<geode::SettingV3>&&)
PUBLIC 85f4 0 std::__ndk1::__function::__func<geode::listenForSettingChangesV3<bool, geodeExecFunction14<(anonymous namespace)::ExecFuncUnique14>(geode::ModStateEvent*)::{lambda(bool)#2}>(std::__ndk1::basic_string_view<char, std::__ndk1::char_traits<char> >, geodeExecFunction14<(anonymous namespace)::ExecFuncUnique14>(geode::ModStateEvent*)::{lambda(bool)#2}&&, geode::Mod*)::{lambda(std::__ndk1::shared_ptr<geode::SettingV3>)#1}, std::__ndk1::allocator<geode::listenForSettingChangesV3<bool, geodeExecFunction14<(anonymous namespace)::ExecFuncUnique14>(geode::ModStateEvent*)::{lambda(bool)#2}>(std::__ndk1::basic_string_view<char, std::__ndk1::char_traits<char> >, geodeExecFunction14<(anonymous namespace)::ExecFuncUnique14>(geode::ModStateEvent*)::{lambda(bool)#2}&&, geode::Mod*)::{lambda(std::__ndk1::shared_ptr<geode::SettingV3>)#1}>, void (std::__ndk1::shared_ptr<geode::SettingV3>)>::target(std::type_info const&) const
PUBLIC 8610 0 std::__ndk1::__function::__func<geode::listenForSettingChangesV3<bool, geodeExecFunction14<(anonymous namespace)::ExecFuncUnique14>(geode::ModStateEvent*)::{lambda(bool)#2}>(std::__ndk1::basic_string_view<char, std::__ndk1::char_traits<char> >, geodeExecFunction14<(anonymous namespace)::ExecFuncUnique14>(geode::ModStateEvent*)::{lambda(bool)#2}&&, geode::Mod*)::{lambda(std::__ndk1::shared_ptr<geode::SettingV3>)#1}, std::__ndk1::allocator<geode::listenForSettingChangesV3<bool, geodeExecFunction14<(anonymous namespace)::ExecFuncUnique14>(geode::ModStateEvent*)::{lambda(bool)#2}>(std::__ndk1::basic_string_view<char, std::__ndk1::char_traits<char> >, geodeExecFunction14<(anonymous namespace)::ExecFuncUnique14>(geode::ModStateEvent*)::{lambda(bool)#2}&&, geode::Mod*)::{lambda(std::__ndk1::shared_ptr<geode::SettingV3>)#1}>, void (std::__ndk1::shared_ptr<geode::SettingV3>)>::target_type() const
PUBLIC 861c 0 std::__ndk1::__function::__func<geode::listenForSettingChangesV3<bool, geodeExecFunction14<(anonymous namespace)::ExecFuncUnique14>(geode::ModStateEvent*)::{lambda(bool)#3}>(std::__ndk1::basic_string_view<char, std::__ndk1::char_traits<char> >, geodeExecFunction14<(anonymous namespace)::ExecFuncUnique14>(geode::ModStateEvent*)::{lambda(bool)#3}&&, geode::Mod*)::{lambda(std::__ndk1::shared_ptr<geode::SettingV3>)#1}, std::__ndk1::allocator<geode::listenForSettingChangesV3<bool, geodeExecFunction14<(anonymous namespace)::ExecFuncUnique14>(geode::ModStateEvent*)::{lambda(bool)#3}>(std::__ndk1::basic_string_view<char, std::__ndk1::char_traits<char> >, geodeExecFunction14<(anonymous namespace)::ExecFuncUnique14>(geode::ModStateEvent*)::{lambda(bool)#3}&&, geode::Mod*)::{lambda(std::__ndk1::shared_ptr<geode::SettingV3>)#1}>, void (std::__ndk1::shared_ptr<geode::SettingV3>)>::~__func()
PUBLIC 8620 0 std::__ndk1::__function::__func<geode::listenForSettingChangesV3<bool, geodeExecFunction14<(anonymous namespace)::ExecFuncUnique14>(geode::ModStateEvent*)::{lambda(bool)#3}>(std::__ndk1::basic_string_view<char, std::__ndk1::char_traits<char> >, geodeExecFunction14<(anonymous namespace)::ExecFuncUnique14>(geode::ModStateEvent*)::{lambda(bool)#3}&&, geode::Mod*)::{lambda(std::__ndk1::shared_ptr<geode::SettingV3>)#1}, std::__ndk1::allocator<geode::listenForSettingChangesV3<bool, geodeExecFunction14<(anonymous namespace)::ExecFuncUnique14>(geode::ModStateEvent*)::{lambda(bool)#3}>(std::__ndk1::basic_string_view<char, std::__ndk1::char_traits<char> >, geodeExecFunction14<(anonymous namespace)::ExecFuncUnique14>(geode::ModStateEvent*)::{lambda(bool)#3}&&, geode::Mod*)::{lambda(std::__ndk1::shared_ptr<geode::SettingV3>)#1}>, void (std::__ndk1::shared_ptr<geode::SettingV3>)>::__clone() const
PUBLIC 8658 0 std::__ndk1::__function::__func<geode::listenForSettingChangesV3<bool, geodeExecFunction14<(anonymous namespace)::ExecFuncUnique14>(geode::ModStateEvent*)::{lambda(bool)#3}>(std::__ndk1::basic_string_view<char, std::__ndk1::char_traits<char> >, geodeExecFunction14<(anonymous namespace)::ExecFuncUnique14>(geode::ModStateEvent*)::{lambda(bool)#3}&&, geode::Mod*)::{lambda(std::__ndk1::shared_ptr<geode::SettingV3>)#1}, std::__ndk1::allocator<geode::listenForSettingChangesV3<bool, geodeExecFunction14<(anonymous namespace)::ExecFuncUnique14>(geode::ModStateEvent*)::{lambda(bool)#3}>(std::__ndk1::basic_string_view<char, std::__ndk1::char_traits<char> >, geodeExecFunction14<(anonymous namespace)::ExecFuncUnique14>(geode::ModStateEvent*)::{lambda(bool)#3}&&, geode::Mod*)::{lambda(std::__ndk1::shared_ptr<geode::SettingV3>)#1}>, void (std::__ndk1::shared_ptr<geode::SettingV3>)>::__clone(std::__ndk1::__function::__base<void (std::__ndk1::shared_ptr<geode::SettingV3>)>*) const
PUBLIC 8670 0 std::__ndk1::__function::__func<geode::listenForSettingChangesV3<bool, geodeExecFunction14<(anonymous namespace)::ExecFuncUnique14>(geode::ModStateEvent*)::{lambda(bool)#3}>(std::__ndk1::basic_string_view<char, std::__ndk1::char_traits<char> >, geodeExecFunction14<(anonymous namespace)::ExecFuncUnique14>(geode::ModStateEvent*)::{lambda(bool)#3}&&, geode::Mod*)::{lambda(std::__ndk1::shared_ptr<geode::SettingV3>)#1}, std::__ndk1::allocator<geode::listenForSettingChangesV3<bool, geodeExecFunction14<(anonymous namespace)::ExecFuncUnique14>(geode::ModStateEvent*)::{lambda(bool)#3}>(std::__ndk1::basic_string_view<char, std::__ndk1::char_traits<char> >, geodeExecFunction14<(anonymous namespace)::ExecFuncUnique14>(geode::ModStateEvent*)::{lambda(bool)#3}&&, geode::Mod*)::{lambda(std::__ndk1::shared_ptr<geode::SettingV3>)#1}>, void (std::__ndk1::shared_ptr<geode::SettingV3>)>::destroy()
PUBLIC 8674 0 std::__ndk1::__function::__func<geode::listenForSettingChangesV3<bool, geodeExecFunction14<(anonymous namespace)::ExecFuncUnique14>(geode::ModStateEvent*)::{lambda(bool)#3}>(std::__ndk1::basic_string_view<char, std::__ndk1::char_traits<char> >, geodeExecFunction14<(anonymous namespace)::ExecFuncUnique14>(geode::ModStateEvent*)::{lambda(bool)#3}&&, geode::Mod*)::{lambda(std::__ndk1::shared_ptr<geode::SettingV3>)#1}, std::__ndk1::allocator<geode::listenForSettingChangesV3<bool, geodeExecFunction14<(anonymous namespace)::ExecFuncUnique14>(geode::ModStateEvent*)::{lambda(bool)#3}>(std::__ndk1::basic_string_view<char, std::__ndk1::char_traits<char> >, geodeExecFunction14<(anonymous namespace)::ExecFuncUnique14>(geode::ModStateEvent*)::{lambda(bool)#3}&&, geode::Mod*)::{lambda(std::__ndk1::shared_ptr<geode::SettingV3>)#1}>, void (std::__ndk1::shared_ptr<geode::SettingV3>)>::destroy_deallocate()
PUBLIC 8678 0 std::__ndk1::__function::__func<geode::listenForSettingChangesV3<bool, geodeExecFunction14<(anonymous namespace)::ExecFuncUnique14>(geode::ModStateEvent*)::{lambda(bool)#3}>(std::__ndk1::basic_string_view<char, std::__ndk1::char_traits<char> >, geodeExecFunction14<(anonymous namespace)::ExecFuncUnique14>(geode::ModStateEvent*)::{lambda(bool)#3}&&, geode::Mod*)::{lambda(std::__ndk1::shared_ptr<geode::SettingV3>)#1}, std::__ndk1::allocator<geode::listenForSettingChangesV3<bool, geodeExecFunction14<(anonymous namespace)::ExecFuncUnique14>(geode::ModStateEvent*)::{lambda(bool)#3}>(std::__ndk1::basic_string_view<char, std::__ndk1::char_traits<char> >, geodeExecFunction14<(anonymous namespace)::ExecFuncUnique14>(geode::ModStateEvent*)::{lambda(bool)#3}&&, geode::Mod*)::{lambda(std::__ndk1::shared_ptr<geode::SettingV3>)#1}>, void (std::__ndk1::shared_ptr<geode::SettingV3>)>::operator()(std::__ndk1::shared_ptr<geode::SettingV3>&&)
PUBLIC 8764 0 std::__ndk1::__function::__func<geode::listenForSettingChangesV3<bool, geodeExecFunction14<(anonymous namespace)::ExecFuncUnique14>(geode::ModStateEvent*)::{lambda(bool)#3}>(std::__ndk1::basic_string_view<char, std::__ndk1::char_traits<char> >, geodeExecFunction14<(anonymous namespace)::ExecFuncUnique14>(geode::ModStateEvent*)::{lambda(bool)#3}&&, geode::Mod*)::{lambda(std::__ndk1::shared_ptr<geode::SettingV3>)#1}, std::__ndk1::allocator<geode::listenForSettingChangesV3<bool, geodeExecFunction14<(anonymous namespace)::ExecFuncUnique14>(geode::ModStateEvent*)::{lambda(bool)#3}>(std::__ndk1::basic_string_view<char, std::__ndk1::char_traits<char> >, geodeExecFunction14<(anonymous namespace)::ExecFuncUnique14>(geode::ModStateEvent*)::{lambda(bool)#3}&&, geode::Mod*)::{lambda(std::__ndk1::shared_ptr<geode::SettingV3>)#1}>, void (std::__ndk1::shared_ptr<geode::SettingV3>)>::target(std::type_info const&) const
PUBLIC 8780 0 std::__ndk1::__function::__func<geode::listenForSettingChangesV3<bool, geodeExecFunction14<(anonymous namespace)::ExecFuncUnique14>(geode::ModStateEvent*)::{lambda(bool)#3}>(std::__ndk1::basic_string_view<char, std::__ndk1::char_traits<char> >, geodeExecFunction14<(anonymous namespace)::ExecFuncUnique14>(geode::ModStateEvent*)::{lambda(bool)#3}&&, geode::Mod*)::{lambda(std::__ndk1::shared_ptr<geode::SettingV3>)#1}, std::__ndk1::allocator<geode::listenForSettingChangesV3<bool, geodeExecFunction14<(anonymous namespace)::ExecFuncUnique14>(geode::ModStateEvent*)::{lambda(bool)#3}>(std::__ndk1::basic_string_view<char, std::__ndk1::char_traits<char> >, geodeExecFunction14<(anonymous namespace)::ExecFuncUnique14>(geode::ModStateEvent*)::{lambda(bool)#3}&&, geode::Mod*)::{lambda(std::__ndk1::shared_ptr<geode::SettingV3>)#1}>, void (std::__ndk1::shared_ptr<geode::SettingV3>)>::target_type() const
PUBLIC 878c 0 std::__ndk1::__function::__base<void (std::__ndk1::shared_ptr<geode::SettingV3>)>::~__base()
PUBLIC 8790 0 std::__ndk1::__function::__func<geode::listenForSettingChangesV3<bool, geodeExecFunction14<(anonymous namespace)::ExecFuncUnique14>(geode::ModStateEvent*)::{lambda(bool)#4}>(std::__ndk1::basic_string_view<char, std::__ndk1::char_traits<char> >, geodeExecFunction14<(anonymous namespace)::ExecFuncUnique14>(geode::ModStateEvent*)::{lambda(bool)#4}&&, geode::Mod*)::{lambda(std::__ndk1::shared_ptr<geode::SettingV3>)#1}, std::__ndk1::allocator<geode::listenForSettingChangesV3<bool, geodeExecFunction14<(anonymous namespace)::ExecFuncUnique14>(geode::ModStateEvent*)::{lambda(bool)#4}>(std::__ndk1::basic_string_view<char, std::__ndk1::char_traits<char> >, geodeExecFunction14<(anonymous namespace)::ExecFuncUnique14>(geode::ModStateEvent*)::{lambda(bool)#4}&&, geode::Mod*)::{lambda(std::__ndk1::shared_ptr<geode::SettingV3>)#1}>, void (std::__ndk1::shared_ptr<geode::SettingV3>)>::~__func()
PUBLIC 8794 0 std::__ndk1::__function::__func<geode::listenForSettingChangesV3<bool, geodeExecFunction14<(anonymous namespace)::ExecFuncUnique14>(geode::ModStateEvent*)::{lambda(bool)#4}>(std::__ndk1::basic_string_view<char, std::__ndk1::char_traits<char> >, geodeExecFunction14<(anonymous namespace)::ExecFuncUnique14>(geode::ModStateEvent*)::{lambda(bool)#4}&&, geode::Mod*)::{lambda(std::__ndk1::shared_ptr<geode::SettingV3>)#1}, std::__ndk1::allocator<geode::listenForSettingChangesV3<bool, geodeExecFunction14<(anonymous namespace)::ExecFuncUnique14>(geode::ModStateEvent*)::{lambda(bool)#4}>(std::__ndk1::basic_string_view<char, std::__ndk1::char_traits<char> >, geodeExecFunction14<(anonymous namespace)::ExecFuncUnique14>(geode::ModStateEvent*)::{lambda(bool)#4}&&, geode::Mod*)::{lambda(std::__ndk1::shared_ptr<geode::SettingV3>)#1}>, void (std::__ndk1::shared_ptr<geode::SettingV3>)>::__clone() const
PUBLIC 87cc 0 std::__ndk1::__function::__func<geode::listenForSettingChangesV3<bool, geodeExecFunction14<(anonymous namespace)::ExecFuncUnique14>(geode::ModStateEvent*)::{lambda(bool)#4}>(std::__ndk1::basic_string_view<char, std::__ndk1::char_traits<char> >, geodeExecFunction14<(anonymous namespace)::ExecFuncUnique14>(geode::ModStateEvent*)::{lambda(bool)#4}&&, geode::Mod*)::{lambda(std::__ndk1::shared_ptr<geode::SettingV3>)#1}, std::__ndk1::allocator<geode::listenForSettingChangesV3<bool, geodeExecFunction14<(anonymous namespace)::ExecFuncUnique14>(geode::ModStateEvent*)::{lambda(bool)#4}>(std::__ndk1::basic_string_view<char, std::__ndk1::char_traits<char> >, geodeExecFunction14<(anonymous namespace)::ExecFuncUnique14>(geode::ModStateEvent*)::{lambda(bool)#4}&&, geode::Mod*)::{lambda(std::__ndk1::shared_ptr<geode::SettingV3>)#1}>, void (std::__ndk1::shared_ptr<geode::SettingV3>)>::__clone(std::__ndk1::__function::__base<void (std::__ndk1::shared_ptr<geode::SettingV3>)>*) const
PUBLIC 87e4 0 std::__ndk1::__function::__func<geode::listenForSettingChangesV3<bool, geodeExecFunction14<(anonymous namespace)::ExecFuncUnique14>(geode::ModStateEvent*)::{lambda(bool)#4}>(std::__ndk1::basic_string_view<char, std::__ndk1::char_traits<char> >, geodeExecFunction14<(anonymous namespace)::ExecFuncUnique14>(geode::ModStateEvent*)::{lambda(bool)#4}&&, geode::Mod*)::{lambda(std::__ndk1::shared_ptr<geode::SettingV3>)#1}, std::__ndk1::allocator<geode::listenForSettingChangesV3<bool, geodeExecFunction14<(anonymous namespace)::ExecFuncUnique14>(geode::ModStateEvent*)::{lambda(bool)#4}>(std::__ndk1::basic_string_view<char, std::__ndk1::char_traits<char> >, geodeExecFunction14<(anonymous namespace)::ExecFuncUnique14>(geode::ModStateEvent*)::{lambda(bool)#4}&&, geode::Mod*)::{lambda(std::__ndk1::shared_ptr<geode::SettingV3>)#1}>, void (std::__ndk1::shared_ptr<geode::SettingV3>)>::destroy()
PUBLIC 87e8 0 std::__ndk1::__function::__func<geode::listenForSettingChangesV3<bool, geodeExecFunction14<(anonymous namespace)::ExecFuncUnique14>(geode::ModStateEvent*)::{lambda(bool)#4}>(std::__ndk1::basic_string_view<char, std::__ndk1::char_traits<char> >, geodeExecFunction14<(anonymous namespace)::ExecFuncUnique14>(geode::ModStateEvent*)::{lambda(bool)#4}&&, geode::Mod*)::{lambda(std::__ndk1::shared_ptr<geode::SettingV3>)#1}, std::__ndk1::allocator<geode::listenForSettingChangesV3<bool, geodeExecFunction14<(anonymous namespace)::ExecFuncUnique14>(geode::ModStateEvent*)::{lambda(bool)#4}>(std::__ndk1::basic_string_view<char, std::__ndk1::char_traits<char> >, geodeExecFunction14<(anonymous namespace)::ExecFuncUnique14>(geode::ModStateEvent*)::{lambda(bool)#4}&&, geode::Mod*)::{lambda(std::__ndk1::shared_ptr<geode::SettingV3>)#1}>, void (std::__ndk1::shared_ptr<geode::SettingV3>)>::destroy_deallocate()
PUBLIC 87ec 0 std::__ndk1::__function::__func<geode::listenForSettingChangesV3<bool, geodeExecFunction14<(anonymous namespace)::ExecFuncUnique14>(geode::ModStateEvent*)::{lambda(bool)#4}>(std::__ndk1::basic_string_view<char, std::__ndk1::char_traits<char> >, geodeExecFunction14<(anonymous namespace)::ExecFuncUnique14>(geode::ModStateEvent*)::{lambda(bool)#4}&&, geode::Mod*)::{lambda(std::__ndk1::shared_ptr<geode::SettingV3>)#1}, std::__ndk1::allocator<geode::listenForSettingChangesV3<bool, geodeExecFunction14<(anonymous namespace)::ExecFuncUnique14>(geode::ModStateEvent*)::{lambda(bool)#4}>(std::__ndk1::basic_string_view<char, std::__ndk1::char_traits<char> >, geodeExecFunction14<(anonymous namespace)::ExecFuncUnique14>(geode::ModStateEvent*)::{lambda(bool)#4}&&, geode::Mod*)::{lambda(std::__ndk1::shared_ptr<geode::SettingV3>)#1}>, void (std::__ndk1::shared_ptr<geode::SettingV3>)>::operator()(std::__ndk1::shared_ptr<geode::SettingV3>&&)
PUBLIC 8884 0 std::__ndk1::__function::__func<geode::listenForSettingChangesV3<bool, geodeExecFunction14<(anonymous namespace)::ExecFuncUnique14>(geode::ModStateEvent*)::{lambda(bool)#4}>(std::__ndk1::basic_string_view<char, std::__ndk1::char_traits<char> >, geodeExecFunction14<(anonymous namespace)::ExecFuncUnique14>(geode::ModStateEvent*)::{lambda(bool)#4}&&, geode::Mod*)::{lambda(std::__ndk1::shared_ptr<geode::SettingV3>)#1}, std::__ndk1::allocator<geode::listenForSettingChangesV3<bool, geodeExecFunction14<(anonymous namespace)::ExecFuncUnique14>(geode::ModStateEvent*)::{lambda(bool)#4}>(std::__ndk1::basic_string_view<char, std::__ndk1::char_traits<char> >, geodeExecFunction14<(anonymous namespace)::ExecFuncUnique14>(geode::ModStateEvent*)::{lambda(bool)#4}&&, geode::Mod*)::{lambda(std::__ndk1::shared_ptr<geode::SettingV3>)#1}>, void (std::__ndk1::shared_ptr<geode::SettingV3>)>::target(std::type_info const&) const
PUBLIC 88a0 0 std::__ndk1::__function::__func<geode::listenForSettingChangesV3<bool, geodeExecFunction14<(anonymous namespace)::ExecFuncUnique14>(geode::ModStateEvent*)::{lambda(bool)#4}>(std::__ndk1::basic_string_view<char, std::__ndk1::char_traits<char> >, geodeExecFunction14<(anonymous namespace)::ExecFuncUnique14>(geode::ModStateEvent*)::{lambda(bool)#4}&&, geode::Mod*)::{lambda(std::__ndk1::shared_ptr<geode::SettingV3>)#1}, std::__ndk1::allocator<geode::listenForSettingChangesV3<bool, geodeExecFunction14<(anonymous namespace)::ExecFuncUnique14>(geode::ModStateEvent*)::{lambda(bool)#4}>(std::__ndk1::basic_string_view<char, std::__ndk1::char_traits<char> >, geodeExecFunction14<(anonymous namespace)::ExecFuncUnique14>(geode::ModStateEvent*)::{lambda(bool)#4}&&, geode::Mod*)::{lambda(std::__ndk1::shared_ptr<geode::SettingV3>)#1}>, void (std::__ndk1::shared_ptr<geode::SettingV3>)>::target_type() const
PUBLIC 88ac 0 geode::EventListener<geode::ModStateFilter>::getPool() const
PUBLIC 88b0 0 geode::EventListener<geode::ModStateFilter>::handle(geode::Event*)
PUBLIC 8a14 0 geode::EventListener<geode::ModStateFilter>::~EventListener()
PUBLIC 8a70 0 geode::EventListener<geode::ModStateFilter>::~EventListener()
PUBLIC 8ad4 0 std::__ndk1::__function::__base<void (geode::ModStateEvent*)>::~__base()
PUBLIC 8ad8 0 std::__ndk1::__function::__func<void (*)(geode::ModStateEvent*), std::__ndk1::allocator<void (*)(geode::ModStateEvent*)>, void (geode::ModStateEvent*)>::~__func()
PUBLIC 8adc 0 std::__ndk1::__function::__func<void (*)(geode::ModStateEvent*), std::__ndk1::allocator<void (*)(geode::ModStateEvent*)>, void (geode::ModStateEvent*)>::__clone() const
PUBLIC 8b10 0 std::__ndk1::__function::__func<void (*)(geode::ModStateEvent*), std::__ndk1::allocator<void (*)(geode::ModStateEvent*)>, void (geode::ModStateEvent*)>::__clone(std::__ndk1::__function::__base<void (geode::ModStateEvent*)>*) const
PUBLIC 8b24 0 std::__ndk1::__function::__func<void (*)(geode::ModStateEvent*), std::__ndk1::allocator<void (*)(geode::ModStateEvent*)>, void (geode::ModStateEvent*)>::destroy()
PUBLIC 8b28 0 std::__ndk1::__function::__func<void (*)(geode::ModStateEvent*), std::__ndk1::allocator<void (*)(geode::ModStateEvent*)>, void (geode::ModStateEvent*)>::destroy_deallocate()
PUBLIC 8b2c 0 std::__ndk1::__function::__func<void (*)(geode::ModStateEvent*), std::__ndk1::allocator<void (*)(geode::ModStateEvent*)>, void (geode::ModStateEvent*)>::operator()(geode::ModStateEvent*&&)
PUBLIC 8b3c 0 std::__ndk1::__function::__func<void (*)(geode::ModStateEvent*), std::__ndk1::allocator<void (*)(geode::ModStateEvent*)>, void (geode::ModStateEvent*)>::target(std::type_info const&) const
PUBLIC 8b58 0 std::__ndk1::__function::__func<void (*)(geode::ModStateEvent*), std::__ndk1::allocator<void (*)(geode::ModStateEvent*)>, void (geode::ModStateEvent*)>::target_type() const
PUBLIC 8b64 0 geode::modifier::ModifyDerive<FixedUILayer, UILayer>::apply()
PUBLIC 9490 0 std::__ndk1::shared_ptr<geode::Hook>::~shared_ptr[abi:ne180000]()
PUBLIC 94e0 0 geode::impl::ResultData<geode::Hook*, std::__ndk1::basic_string<char, std::__ndk1::char_traits<char>, std::__ndk1::allocator<char> > >::~ResultData()
PUBLIC 9554 0 std::__ndk1::vector<std::__ndk1::basic_string<char, std::__ndk1::char_traits<char>, std::__ndk1::allocator<char> >, std::__ndk1::allocator<std::__ndk1::basic_string<char, std::__ndk1::char_traits<char>, std::__ndk1::allocator<char> > > >::~vector[abi:ne180000]()
PUBLIC 95d0 0 geode::modifier::ModifyBase<geode::modifier::ModifyDerive<FixedUILayer, UILayer> >::apply()
PUBLIC 95d4 0 geode::modifier::ModifyBase<geode::modifier::ModifyDerive<FixedUILayer, UILayer> >::setHookPriority(std::__ndk1::basic_string_view<char, std::__ndk1::char_traits<char> >, int)
PUBLIC 995c 0 std::__ndk1::__tree<std::__ndk1::__value_type<std::__ndk1::basic_string<char, std::__ndk1::char_traits<char>, std::__ndk1::allocator<char> >, std::__ndk1::shared_ptr<geode::Hook> >, std::__ndk1::__map_value_compare<std::__ndk1::basic_string<char, std::__ndk1::char_traits<char>, std::__ndk1::allocator<char> >, std::__ndk1::__value_type<std::__ndk1::basic_string<char, std::__ndk1::char_traits<char>, std::__ndk1::allocator<char> >, std::__ndk1::shared_ptr<geode::Hook> >, std::__ndk1::less<std::__ndk1::basic_string<char, std::__ndk1::char_traits<char>, std::__ndk1::allocator<char> > >, true>, std::__ndk1::allocator<std::__ndk1::__value_type<std::__ndk1::basic_string<char, std::__ndk1::char_traits<char>, std::__ndk1::allocator<char> >, std::__ndk1::shared_ptr<geode::Hook> > > >::find<std::__ndk1::basic_string<char, std::__ndk1::char_traits<char>, std::__ndk1::allocator<char> > >(std::__ndk1::basic_string<char, std::__ndk1::char_traits<char>, std::__ndk1::allocator<char> > const&)
PUBLIC 9a7c 0 std::__ndk1::unique_ptr<std::__ndk1::__tree_node<std::__ndk1::__value_type<std::__ndk1::basic_string<char, std::__ndk1::char_traits<char>, std::__ndk1::allocator<char> >, std::__ndk1::shared_ptr<geode::Hook> >, void*>, std::__ndk1::__tree_node_destructor<std::__ndk1::allocator<std::__ndk1::__tree_node<std::__ndk1::__value_type<std::__ndk1::basic_string<char, std::__ndk1::char_traits<char>, std::__ndk1::allocator<char> >, std::__ndk1::shared_ptr<geode::Hook> >, void*> > > >::~unique_ptr[abi:ne180000]()
PUBLIC 9af8 0 std::__ndk1::basic_string<char, std::__ndk1::char_traits<char>, std::__ndk1::allocator<char> >::__init_copy_ctor_external(char const*, unsigned long)
PUBLIC 9b74 0 std::__ndk1::__tree_balance_after_insert[abi:ne180000]<std::__ndk1::__tree_node_base<void*>*>(std::__ndk1::__tree_node_base<void*>*, std::__ndk1::__tree_node_base<void*>*)
PUBLIC 9d24 0 _ZN5geode15UnwrapExceptionC2IRPNS_4HookEQsr4implE18IsStringStreamableIT_EEENS_4impl5OkTagEOS5_
PUBLIC 9e78 0 std::__ndk1::__throw_bad_variant_access[abi:ne180000]()
PUBLIC 9eac 0 std::__ndk1::basic_stringstream<char, std::__ndk1::char_traits<char>, std::__ndk1::allocator<char> >::basic_stringstream[abi:ne180000]()
PUBLIC m 9fd8 0 std::__ndk1::basic_stringstream<char, std::__ndk1::char_traits<char>, std::__ndk1::allocator<char> >::~basic_stringstream()
PUBLIC a058 0 geode::UnwrapException::~UnwrapException()
PUBLIC a07c 0 std::__ndk1::__put_character_sequence[abi:ne180000]<char, std::__ndk1::char_traits<char> >(std::__ndk1::basic_ostream<char, std::__ndk1::char_traits<char> >, std::__ndk1::basic_ostream const*, unsigned long)
PUBLIC a354 0 std::__ndk1::basic_stringbuf<char, std::__ndk1::char_traits<char>, std::__ndk1::allocator<char> >::str[abi:ne180000]() &&
PUBLIC a5ec 0 std::__ndk1::__variant_detail::__visitation::__base::__dispatcher<(unsigned long)0>::__dispatch[abi:ne180000]<std::__ndk1::__variant_detail::__dtor<std::__ndk1::__variant_detail::__traits<std::__ndk1::monostate, std::__ndk1::basic_string<char, std::__ndk1::char_traits<char>, std::__ndk1::allocator<char> > >, (std::__ndk1::__variant_detail::_Trait)1>::__destroy[abi:ne180000]()::{lambda(auto:1&)#1}, std::__ndk1::__variant_detail::__base<(std::__ndk1::__variant_detail::__traits<std::__ndk1::monostate, std::__ndk1::basic_string<char, std::__ndk1::char_traits<char>, std::__ndk1::allocator<char> > >)1, std::__ndk1::__variant_detail::__traits, std::__ndk1::allocator<char> >&>(std::__ndk1::__variant_detail::__dtor<std::__ndk1::__variant_detail::__traits<std::__ndk1::monostate, std::__ndk1::basic_string<char, std::__ndk1::char_traits<char>, std::__ndk1::allocator<char> > >, (std::__ndk1::__variant_detail::_Trait)1>, std::__ndk1::__variant_detail::__base<(std::__ndk1::__variant_detail::__traits<std::__ndk1::monostate, std::__ndk1::basic_string<char, std::__ndk1::char_traits<char>, std::__ndk1::allocator<char> > >)1, std::__ndk1::__variant_detail::__traits, std::__ndk1::allocator<char> >&)
PUBLIC a5f0 0 std::__ndk1::__variant_detail::__visitation::__base::__dispatcher<(unsigned long)1>::__dispatch[abi:ne180000]<std::__ndk1::__variant_detail::__dtor<std::__ndk1::__variant_detail::__traits<std::__ndk1::monostate, std::__ndk1::basic_string<char, std::__ndk1::char_traits<char>, std::__ndk1::allocator<char> > >, (std::__ndk1::__variant_detail::_Trait)1>::__destroy[abi:ne180000]()::{lambda(auto:1&)#1}, std::__ndk1::__variant_detail::__base<(std::__ndk1::__variant_detail::__traits<std::__ndk1::monostate, std::__ndk1::basic_string<char, std::__ndk1::char_traits<char>, std::__ndk1::allocator<char> > >)1, std::__ndk1::__variant_detail::__traits, std::__ndk1::allocator<char> >&>(std::__ndk1::__variant_detail::__dtor<std::__ndk1::__variant_detail::__traits<std::__ndk1::monostate, std::__ndk1::basic_string<char, std::__ndk1::char_traits<char>, std::__ndk1::allocator<char> > >, (std::__ndk1::__variant_detail::_Trait)1>, std::__ndk1::__variant_detail::__base<(std::__ndk1::__variant_detail::__traits<std::__ndk1::monostate, std::__ndk1::basic_string<char, std::__ndk1::char_traits<char>, std::__ndk1::allocator<char> > >)1, std::__ndk1::__variant_detail::__traits, std::__ndk1::allocator<char> >&)
PUBLIC a604 0 std::__ndk1::vector<std::__ndk1::basic_string<char, std::__ndk1::char_traits<char>, std::__ndk1::allocator<char> >, std::__ndk1::allocator<std::__ndk1::basic_string<char, std::__ndk1::char_traits<char>, std::__ndk1::allocator<char> > > >::__push_back_slow_path<std::__ndk1::basic_string<char, std::__ndk1::char_traits<char>, std::__ndk1::allocator<char> > const&>(std::__ndk1::basic_string<char, std::__ndk1::char_traits<char>, std::__ndk1::allocator<char> > const&)
PUBLIC a828 0 std::__ndk1::__split_buffer<std::__ndk1::basic_string<char, std::__ndk1::char_traits<char>, std::__ndk1::allocator<char> >, std::__ndk1::allocator<std::__ndk1::basic_string<char, std::__ndk1::char_traits<char>, std::__ndk1::allocator<char> > >&>::~__split_buffer()
PUBLIC a890 0 std::__ndk1::vector<std::__ndk1::basic_string<char, std::__ndk1::char_traits<char>, std::__ndk1::allocator<char> >, std::__ndk1::allocator<std::__ndk1::basic_string<char, std::__ndk1::char_traits<char>, std::__ndk1::allocator<char> > > >::__throw_length_error[abi:ne180000]() const
PUBLIC a8a4 0 std::__ndk1::__variant_detail::__visitation::__base::__dispatcher<(unsigned long)0>::__dispatch[abi:ne180000]<std::__ndk1::__variant_detail::__dtor<std::__ndk1::__variant_detail::__traits<geode::Hook*, std::__ndk1::basic_string<char, std::__ndk1::char_traits<char>, std::__ndk1::allocator<char> > >, (std::__ndk1::__variant_detail::_Trait)1>::__destroy[abi:ne180000]()::{lambda(auto:1&)#1}, std::__ndk1::__variant_detail::__base<(std::__ndk1::__variant_detail::__traits<geode::Hook*, std::__ndk1::basic_string<char, std::__ndk1::char_traits<char>, std::__ndk1::allocator<char> > >)1, geode::Hook, std::__ndk1::allocator<char> >&>(std::__ndk1::__variant_detail::__dtor<std::__ndk1::__variant_detail::__traits<geode::Hook*, std::__ndk1::basic_string<char, std::__ndk1::char_traits<char>, std::__ndk1::allocator<char> > >, (std::__ndk1::__variant_detail::_Trait)1>, std::__ndk1::__variant_detail::__base<(std::__ndk1::__variant_detail::__traits<geode::Hook*, std::__ndk1::basic_string<char, std::__ndk1::char_traits<char>, std::__ndk1::allocator<char> > >)1, geode::Hook, std::__ndk1::allocator<char> >&)
PUBLIC a8a8 0 std::__ndk1::__variant_detail::__visitation::__base::__dispatcher<(unsigned long)1>::__dispatch[abi:ne180000]<std::__ndk1::__variant_detail::__dtor<std::__ndk1::__variant_detail::__traits<geode::Hook*, std::__ndk1::basic_string<char, std::__ndk1::char_traits<char>, std::__ndk1::allocator<char> > >, (std::__ndk1::__variant_detail::_Trait)1>::__destroy[abi:ne180000]()::{lambda(auto:1&)#1}, std::__ndk1::__variant_detail::__base<(std::__ndk1::__variant_detail::__traits<geode::Hook*, std::__ndk1::basic_string<char, std::__ndk1::char_traits<char>, std::__ndk1::allocator<char> > >)1, geode::Hook, std::__ndk1::allocator<char> >&>(std::__ndk1::__variant_detail::__dtor<std::__ndk1::__variant_detail::__traits<geode::Hook*, std::__ndk1::basic_string<char, std::__ndk1::char_traits<char>, std::__ndk1::allocator<char> > >, (std::__ndk1::__variant_detail::_Trait)1>, std::__ndk1::__variant_detail::__base<(std::__ndk1::__variant_detail::__traits<geode::Hook*, std::__ndk1::basic_string<char, std::__ndk1::char_traits<char>, std::__ndk1::allocator<char> > >)1, geode::Hook, std::__ndk1::allocator<char> >&)
PUBLIC a8bc 0 std::__ndk1::__tree<std::__ndk1::__value_type<std::__ndk1::basic_string<char, std::__ndk1::char_traits<char>, std::__ndk1::allocator<char> >, std::__ndk1::shared_ptr<geode::Hook> >, std::__ndk1::__map_value_compare<std::__ndk1::basic_string<char, std::__ndk1::char_traits<char>, std::__ndk1::allocator<char> >, std::__ndk1::__value_type<std::__ndk1::basic_string<char, std::__ndk1::char_traits<char>, std::__ndk1::allocator<char> >, std::__ndk1::shared_ptr<geode::Hook> >, std::__ndk1::less<std::__ndk1::basic_string<char, std::__ndk1::char_traits<char>, std::__ndk1::allocator<char> > >, true>, std::__ndk1::allocator<std::__ndk1::__value_type<std::__ndk1::basic_string<char, std::__ndk1::char_traits<char>, std::__ndk1::allocator<char> >, std::__ndk1::shared_ptr<geode::Hook> > > >::erase(std::__ndk1::__tree_const_iterator<std::__ndk1::__value_type<std::__ndk1::basic_string<char, std::__ndk1::char_traits<char>, std::__ndk1::allocator<char> >, std::__ndk1::shared_ptr<geode::Hook> >, std::__ndk1::__tree_node<std::__ndk1::__value_type<std::__ndk1::basic_string<char, std::__ndk1::char_traits<char>, std::__ndk1::allocator<char> >, std::__ndk1::shared_ptr<geode::Hook> >, void*>*, long>)
PUBLIC a980 0 std::__ndk1::__tree_remove[abi:ne180000]<std::__ndk1::__tree_node_base<void*>*>(std::__ndk1::__tree_node_base<void*>*, std::__ndk1::__tree_node_base<void*>*)
PUBLIC ad48 0 std::__ndk1::__tree<std::__ndk1::__value_type<std::__ndk1::basic_string<char, std::__ndk1::char_traits<char>, std::__ndk1::allocator<char> >, std::__ndk1::shared_ptr<geode::Hook> >, std::__ndk1::__map_value_compare<std::__ndk1::basic_string<char, std::__ndk1::char_traits<char>, std::__ndk1::allocator<char> >, std::__ndk1::__value_type<std::__ndk1::basic_string<char, std::__ndk1::char_traits<char>, std::__ndk1::allocator<char> >, std::__ndk1::shared_ptr<geode::Hook> >, std::__ndk1::less<std::__ndk1::basic_string<char, std::__ndk1::char_traits<char>, std::__ndk1::allocator<char> > >, true>, std::__ndk1::allocator<std::__ndk1::__value_type<std::__ndk1::basic_string<char, std::__ndk1::char_traits<char>, std::__ndk1::allocator<char> >, std::__ndk1::shared_ptr<geode::Hook> > > >::destroy(std::__ndk1::__tree_node<std::__ndk1::__value_type<std::__ndk1::basic_string<char, std::__ndk1::char_traits<char>, std::__ndk1::allocator<char> >, std::__ndk1::shared_ptr<geode::Hook> >, void*>*)
PUBLIC adcc 0 geode::modifier::AsStaticFunction_handleKeypress<FixedUILayer, void (FixedUILayer::*)(cocos2d::enumKeyCodes, bool)>::Impl<void (FixedUILayer::*)(cocos2d::enumKeyCodes, bool)>::function(FixedUILayer*, cocos2d::enumKeyCodes, bool)
PUBLIC b0f4 0 geode::modifier::AsStaticFunction_processUINodesTouch<FixedUILayer, bool (FixedUILayer::*)(GJUITouchEvent, cocos2d::CCTouch*)>::Impl<bool (FixedUILayer::*)(GJUITouchEvent, cocos2d::CCTouch*)>::function(FixedUILayer*, GJUITouchEvent, cocos2d::CCTouch*)
PUBLIC b0f8 0 geode::modifier::AsStaticFunction_resetUINodeState<FixedUILayer, void (FixedUILayer::*)()>::Impl<void (FixedUILayer::*)()>::function(FixedUILayer*)
PUBLIC b134 0 std::__ndk1::shared_ptr<tulip::hook::CallingConvention>::~shared_ptr[abi:ne180000]()
PUBLIC b184 0 tulip::hook::HandlerMetadata::~HandlerMetadata()
PUBLIC b1e8 0 std::__ndk1::unordered_set<cocos2d::enumKeyCodes, std::__ndk1::hash<cocos2d::enumKeyCodes>, std::__ndk1::equal_to<cocos2d::enumKeyCodes>, std::__ndk1::allocator<cocos2d::enumKeyCodes> >::unordered_set(std::initializer_list<cocos2d::enumKeyCodes>)
PUBLIC b6f8 0 std::__ndk1::unordered_set<cocos2d::enumKeyCodes, std::__ndk1::hash<cocos2d::enumKeyCodes>, std::__ndk1::equal_to<cocos2d::enumKeyCodes>, std::__ndk1::allocator<cocos2d::enumKeyCodes> >::~unordered_set[abi:ne180000]()
PUBLIC b744 0 std::__ndk1::__hash_table<cocos2d::enumKeyCodes, std::__ndk1::hash<cocos2d::enumKeyCodes>, std::__ndk1::equal_to<cocos2d::enumKeyCodes>, std::__ndk1::allocator<cocos2d::enumKeyCodes> >::~__hash_table()
PUBLIC b790 0 geode::modifier::FieldIntermediate<FixedUILayer, UILayer>::self()
PUBLIC bdf4 0 geode::modifier::FieldIntermediate<FixedUILayer, UILayer>::fieldDestructor(void*)
PUBLIC be1c 0 std::__ndk1::vector<void*, std::__ndk1::allocator<void*> >::__throw_length_error[abi:ne180000]() const
PUBLIC be30 0 std::__ndk1::vector<std::__ndk1::function<void (void*)>, std::__ndk1::allocator<std::__ndk1::function<void (void*)> > >::__throw_length_error[abi:ne180000]() const
PUBLIC be44 0 std::__ndk1::vector<void*, std::__ndk1::allocator<void*> >::__throw_out_of_range[abi:ne180000]() const
PUBLIC be50 0 std::__ndk1::__throw_out_of_range[abi:ne180000](char const*)
PUBLIC be98 0 std::out_of_range::out_of_range[abi:ne180000](char const*)
PUBLIC bed0 0 std::__ndk1::vector<std::__ndk1::function<void (void*)>, std::__ndk1::allocator<std::__ndk1::function<void (void*)> > >::__throw_out_of_range[abi:ne180000]() const
PUBLIC bedc 0 std::__ndk1::__tree<cocos2d::enumKeyCodes, std::__ndk1::less<cocos2d::enumKeyCodes>, std::__ndk1::allocator<cocos2d::enumKeyCodes> >::destroy(std::__ndk1::__tree_node<cocos2d::enumKeyCodes, void*>*)
PUBLIC bf18 0 std::__ndk1::__tree<cocos2d::CCTouch*, std::__ndk1::less<cocos2d::CCTouch*>, std::__ndk1::allocator<cocos2d::CCTouch*> >::destroy(std::__ndk1::__tree_node<cocos2d::CCTouch*, void*>*)
PUBLIC bf54 0 std::__ndk1::__function::__base<void (void*)>::~__base()
PUBLIC bf58 0 std::__ndk1::__function::__func<void (*)(void*), std::__ndk1::allocator<void (*)(void*)>, void (void*)>::~__func()
PUBLIC bf5c 0 std::__ndk1::__function::__func<void (*)(void*), std::__ndk1::allocator<void (*)(void*)>, void (void*)>::__clone() const
PUBLIC bf94 0 std::__ndk1::__function::__func<void (*)(void*), std::__ndk1::allocator<void (*)(void*)>, void (void*)>::__clone(std::__ndk1::__function::__base<void (void*)>*) const
PUBLIC bfac 0 std::__ndk1::__function::__func<void (*)(void*), std::__ndk1::allocator<void (*)(void*)>, void (void*)>::destroy()
PUBLIC bfb0 0 std::__ndk1::__function::__func<void (*)(void*), std::__ndk1::allocator<void (*)(void*)>, void (void*)>::destroy_deallocate()
PUBLIC bfb4 0 std::__ndk1::__function::__func<void (*)(void*), std::__ndk1::allocator<void (*)(void*)>, void (void*)>::operator()(void*&&)
PUBLIC bfc4 0 std::__ndk1::__function::__func<void (*)(void*), std::__ndk1::allocator<void (*)(void*)>, void (void*)>::target(std::type_info const&) const
PUBLIC bfe0 0 std::__ndk1::__function::__func<void (*)(void*), std::__ndk1::allocator<void (*)(void*)>, void (void*)>::target_type() const
PUBLIC bfec 0 std::__ndk1::__tree<std::__ndk1::__value_type<std::__ndk1::basic_string<char, std::__ndk1::char_traits<char>, std::__ndk1::allocator<char> >, std::__ndk1::shared_ptr<geode::Hook> >, std::__ndk1::__map_value_compare<std::__ndk1::basic_string<char, std::__ndk1::char_traits<char>, std::__ndk1::allocator<char> >, std::__ndk1::__value_type<std::__ndk1::basic_string<char, std::__ndk1::char_traits<char>, std::__ndk1::allocator<char> >, std::__ndk1::shared_ptr<geode::Hook> >, std::__ndk1::less<std::__ndk1::basic_string<char, std::__ndk1::char_traits<char>, std::__ndk1::allocator<char> > >, true>, std::__ndk1::allocator<std::__ndk1::__value_type<std::__ndk1::basic_string<char, std::__ndk1::char_traits<char>, std::__ndk1::allocator<char> >, std::__ndk1::shared_ptr<geode::Hook> > > >::__emplace_unique_key_args<std::__ndk1::basic_string<char, std::__ndk1::char_traits<char>, std::__ndk1::allocator<char> >, std::__ndk1::piecewise_construct_t const&, std::__ndk1::tuple<std::__ndk1::basic_string<char, std::__ndk1::char_traits<char>, std::__ndk1::allocator<char> >&&>, std::__ndk1::tuple<> >(std::__ndk1::basic_string<char, std::__ndk1::char_traits<char>, std::__ndk1::allocator<char> > const&, std::__ndk1::piecewise_construct_t const&, std::__ndk1::tuple<std::__ndk1::basic_string<char, std::__ndk1::char_traits<char>, std::__ndk1::allocator<char> >&&>, std::__ndk1::tuple<>)
PUBLIC c154 0 FixedUILayer::processUINodesTouch(GJUITouchEvent, cocos2d::CCTouch*)
PUBLIC c330 0 geode::modifier::ModifyDerive<FixedPlayLayer, PlayLayer>::apply()
PUBLIC c8f0 0 geode::modifier::ModifyBase<geode::modifier::ModifyDerive<FixedPlayLayer, PlayLayer> >::apply()
PUBLIC c8f4 0 geode::modifier::AsStaticFunction_pauseGame<FixedPlayLayer, void (FixedPlayLayer::*)(bool)>::Impl<void (FixedPlayLayer::*)(bool)>::function(FixedPlayLayer*, bool)
PUBLIC c980 0 geode::modifier::AsStaticFunction_resetLevel<FixedPlayLayer, void (FixedPlayLayer::*)()>::Impl<void (FixedPlayLayer::*)()>::function(FixedPlayLayer*)
PUBLIC d154 0 _GLOBAL__sub_I_main.cpp
PUBLIC m d280 0 geodeImplicitEntry
PUBLIC d2c0 0 <.plt ELF section in prevter.platformer-ui-tweaks.android64.so>
STACK CFI INIT 64c0 10 .cfa: sp 0 +
STACK CFI INIT 64d0 8 .cfa: sp 0 +
STACK CFI INIT 64d8 8 .cfa: sp 0 +
STACK CFI INIT 64e0 14 .cfa: sp 0 +
STACK CFI INIT 64f4 1c .cfa: sp 0 +
STACK CFI INIT 6510 10 .cfa: sp 0 +
STACK CFI INIT 6520 30 .cfa: sp 0 +
STACK CFI INIT 6550 98 .cfa: sp 0 +
STACK CFI INIT 65e8 59c .cfa: sp 0 +
STACK CFI INIT 6b84 8c .cfa: sp 0 +
STACK CFI INIT 6c10 30 .cfa: sp 0 +
STACK CFI INIT 7798 18 .cfa: sp 0 +
STACK CFI INIT 7c34 18 .cfa: sp 0 +
STACK CFI INIT 7c4c 130 .cfa: sp 0 +
STACK CFI 7c50 .cfa: sp 80 +
STACK CFI 7c60 .cfa: x29 48 + x19: .cfa -8 + ^ x20: .cfa -16 + ^ x21: .cfa -24 + ^ x22: .cfa -32 + ^ .ra: .cfa -40 + ^ x29: .cfa -48 + ^
STACK CFI 7d64 .cfa: sp 80 +
STACK CFI 7d74 .cfa: sp 0 +
STACK CFI 7d78 .cfa: x29 48 +
STACK CFI INIT 7e74 50 .cfa: sp 0 +
STACK CFI 7e78 .cfa: sp 32 +
STACK CFI 7e80 .cfa: x29 32 + x19: .cfa -16 + ^ .ra: .cfa -24 + ^ x29: .cfa -32 + ^
STACK CFI 7e98 .cfa: sp 32 +
STACK CFI 7ea0 .cfa: sp 0 +
STACK CFI 7ea4 .cfa: x29 32 +
STACK CFI 7eb8 .cfa: sp 32 +
STACK CFI 7ec0 .cfa: sp 0 +
STACK CFI INIT 7ec4 4 .cfa: sp 0 +
STACK CFI INIT 7ec8 38 .cfa: sp 0 +
STACK CFI 7ecc .cfa: sp 32 +
STACK CFI 7ed4 .cfa: x29 32 + x19: .cfa -16 + ^ .ra: .cfa -24 + ^ x29: .cfa -32 + ^
STACK CFI 7ef4 .cfa: sp 32 +
STACK CFI 7efc .cfa: sp 0 +
STACK CFI INIT 7f00 18 .cfa: sp 0 +
STACK CFI INIT 7f18 4 .cfa: sp 0 +
STACK CFI INIT 7f1c 4 .cfa: sp 0 +
STACK CFI INIT 7f20 ec .cfa: sp 0 +
STACK CFI 7f24 .cfa: sp 32 +
STACK CFI 7f2c .cfa: x29 32 + x19: .cfa -8 + ^ x20: .cfa -16 + ^ .ra: .cfa -24 + ^ x29: .cfa -32 + ^
STACK CFI 7fac .cfa: sp 32 +
STACK CFI 7fb4 .cfa: sp 0 +
STACK CFI 7fb8 .cfa: x29 32 +
STACK CFI 8000 .cfa: sp 32 +
STACK CFI 8008 .cfa: sp 0 +
STACK CFI INIT 800c 1c .cfa: sp 0 +
STACK CFI INIT 8028 c .cfa: sp 0 +
STACK CFI INIT 8034 34 .cfa: sp 0 +
STACK CFI 8038 .cfa: sp 32 +
STACK CFI 8040 .cfa: x29 32 + x19: .cfa -16 + ^ .ra: .cfa -24 + ^ x29: .cfa -32 + ^
STACK CFI INIT 8068 10 .cfa: sp 0 +
STACK CFI 806c .cfa: sp 16 +
STACK CFI 8070 .cfa: x29 16 + .ra: .cfa -8 + ^ x29: .cfa -16 + ^
STACK CFI INIT 8078 f8 .cfa: sp 0 +
STACK CFI 807c .cfa: sp 64 +
STACK CFI 808c .cfa: x29 64 + x19: .cfa -8 + ^ x20: .cfa -16 + ^ x21: .cfa -24 + ^ x22: .cfa -32 + ^ x23: .cfa -48 + ^ .ra: .cfa -56 + ^ x29: .cfa -64 + ^
STACK CFI 80e8 .cfa: sp 64 +
STACK CFI 80f8 .cfa: sp 0 +
STACK CFI 80fc .cfa: x29 64 +
STACK CFI 8118 .cfa: sp 64 +
STACK CFI 8128 .cfa: sp 0 +
STACK CFI 812c .cfa: x29 64 +
STACK CFI 815c .cfa: sp 64 +
STACK CFI 816c .cfa: sp 0 +
STACK CFI INIT 8170 14 .cfa: sp 0 +
STACK CFI 8174 .cfa: sp 16 +
STACK CFI 8178 .cfa: x29 16 + .ra: .cfa -8 + ^ x29: .cfa -16 + ^
STACK CFI INIT 81d4 30 .cfa: sp 0 +
STACK CFI 81d8 .cfa: sp 32 +
STACK CFI 81e0 .cfa: x29 32 + x19: .cfa -16 + ^ .ra: .cfa -24 + ^ x29: .cfa -32 + ^
STACK CFI 81f8 .cfa: sp 32 +
STACK CFI 8200 .cfa: sp 0 +
STACK CFI INIT 8204 4 .cfa: sp 0 +
STACK CFI INIT 836c 9c .cfa: sp 0 +
STACK CFI 8370 .cfa: sp 32 +
STACK CFI 8378 .cfa: x29 32 + x19: .cfa -8 + ^ x20: .cfa -16 + ^ .ra: .cfa -24 + ^ x29: .cfa -32 + ^
STACK CFI 83fc .cfa: sp 32 +
STACK CFI 8404 .cfa: sp 0 +
STACK CFI INIT 8408 a4 .cfa: sp 0 +
STACK CFI 840c .cfa: sp 32 +
STACK CFI 8414 .cfa: x29 32 + x19: .cfa -8 + ^ x20: .cfa -16 + ^ .ra: .cfa -24 + ^ x29: .cfa -32 + ^
STACK CFI 84a0 .cfa: sp 32 +
STACK CFI 84a8 .cfa: sp 0 +
STACK CFI INIT 84ac 4 .cfa: sp 0 +
STACK CFI INIT 84b0 38 .cfa: sp 0 +
STACK CFI 84b4 .cfa: sp 32 +
STACK CFI 84bc .cfa: x29 32 + x19: .cfa -16 + ^ .ra: .cfa -24 + ^ x29: .cfa -32 + ^
STACK CFI 84dc .cfa: sp 32 +
STACK CFI 84e4 .cfa: sp 0 +
STACK CFI INIT 84e8 18 .cfa: sp 0 +
STACK CFI INIT 8500 4 .cfa: sp 0 +
STACK CFI INIT 8504 4 .cfa: sp 0 +
STACK CFI INIT 8508 ec .cfa: sp 0 +
STACK CFI 850c .cfa: sp 32 +
STACK CFI 8514 .cfa: x29 32 + x19: .cfa -8 + ^ x20: .cfa -16 + ^ .ra: .cfa -24 + ^ x29: .cfa -32 + ^
STACK CFI 8594 .cfa: sp 32 +
STACK CFI 859c .cfa: sp 0 +
STACK CFI 85a0 .cfa: x29 32 +
STACK CFI 85e8 .cfa: sp 32 +
STACK CFI 85f0 .cfa: sp 0 +
STACK CFI INIT 85f4 1c .cfa: sp 0 +
STACK CFI INIT 8610 c .cfa: sp 0 +
STACK CFI INIT 861c 4 .cfa: sp 0 +
STACK CFI INIT 8620 38 .cfa: sp 0 +
STACK CFI 8624 .cfa: sp 32 +
STACK CFI 862c .cfa: x29 32 + x19: .cfa -16 + ^ .ra: .cfa -24 + ^ x29: .cfa -32 + ^
STACK CFI 864c .cfa: sp 32 +
STACK CFI 8654 .cfa: sp 0 +
STACK CFI INIT 8658 18 .cfa: sp 0 +
STACK CFI INIT 8670 4 .cfa: sp 0 +
STACK CFI INIT 8674 4 .cfa: sp 0 +
STACK CFI INIT 8678 ec .cfa: sp 0 +
STACK CFI 867c .cfa: sp 32 +
STACK CFI 8684 .cfa: x29 32 + x19: .cfa -8 + ^ x20: .cfa -16 + ^ .ra: .cfa -24 + ^ x29: .cfa -32 + ^
STACK CFI 8704 .cfa: sp 32 +
STACK CFI 870c .cfa: sp 0 +
STACK CFI 8710 .cfa: x29 32 +
STACK CFI 8758 .cfa: sp 32 +
STACK CFI 8760 .cfa: sp 0 +
STACK CFI INIT 8764 1c .cfa: sp 0 +
STACK CFI INIT 8780 c .cfa: sp 0 +
STACK CFI INIT 878c 4 .cfa: sp 0 +
STACK CFI INIT 8790 4 .cfa: sp 0 +
STACK CFI INIT 8794 38 .cfa: sp 0 +
STACK CFI 8798 .cfa: sp 32 +
STACK CFI 87a0 .cfa: x29 32 + x19: .cfa -16 + ^ .ra: .cfa -24 + ^ x29: .cfa -32 + ^
STACK CFI 87c0 .cfa: sp 32 +
STACK CFI 87c8 .cfa: sp 0 +
STACK CFI INIT 87cc 18 .cfa: sp 0 +
STACK CFI INIT 87e4 4 .cfa: sp 0 +
STACK CFI INIT 87e8 4 .cfa: sp 0 +
STACK CFI INIT 87ec 98 .cfa: sp 0 +
STACK CFI 87f0 .cfa: sp 32 +
STACK CFI 87f8 .cfa: x29 32 + x19: .cfa -16 + ^ .ra: .cfa -24 + ^ x29: .cfa -32 + ^
STACK CFI 8830 .cfa: sp 32 +
STACK CFI 8838 .cfa: sp 0 +
STACK CFI 883c .cfa: x29 32 +
STACK CFI 8878 .cfa: sp 32 +
STACK CFI 8880 .cfa: sp 0 +
STACK CFI INIT 8884 1c .cfa: sp 0 +
STACK CFI INIT 88a0 c .cfa: sp 0 +
STACK CFI INIT 88ac 4 .cfa: sp 0 +
STACK CFI INIT 8a14 5c .cfa: sp 0 +
STACK CFI 8a18 .cfa: sp 32 +
STACK CFI 8a20 .cfa: x29 32 + x19: .cfa -16 + ^ .ra: .cfa -24 + ^ x29: .cfa -32 + ^
STACK CFI 8a64 .cfa: sp 32 +
STACK CFI 8a6c .cfa: sp 0 +
STACK CFI INIT 8a70 64 .cfa: sp 0 +
STACK CFI 8a74 .cfa: sp 32 +
STACK CFI 8a7c .cfa: x29 32 + x19: .cfa -16 + ^ .ra: .cfa -24 + ^ x29: .cfa -32 + ^
STACK CFI 8ac8 .cfa: sp 32 +
STACK CFI 8ad0 .cfa: sp 0 +
STACK CFI INIT 8ad4 4 .cfa: sp 0 +
STACK CFI INIT 8ad8 4 .cfa: sp 0 +
STACK CFI INIT 8adc 34 .cfa: sp 0 +
STACK CFI 8ae0 .cfa: sp 32 +
STACK CFI 8ae8 .cfa: x29 32 + x19: .cfa -16 + ^ .ra: .cfa -24 + ^ x29: .cfa -32 + ^
STACK CFI 8b04 .cfa: sp 32 +
STACK CFI 8b0c .cfa: sp 0 +
STACK CFI INIT 8b10 14 .cfa: sp 0 +
STACK CFI INIT 8b24 4 .cfa: sp 0 +
STACK CFI INIT 8b28 4 .cfa: sp 0 +
STACK CFI INIT 8b2c 10 .cfa: sp 0 +
STACK CFI INIT 8b3c 1c .cfa: sp 0 +
STACK CFI INIT 8b58 c .cfa: sp 0 +
STACK CFI INIT 9490 50 .cfa: sp 0 +
STACK CFI 9494 .cfa: sp 32 +
STACK CFI 949c .cfa: x29 32 + x19: .cfa -16 + ^ .ra: .cfa -24 + ^ x29: .cfa -32 + ^
STACK CFI 94b4 .cfa: sp 32 +
STACK CFI 94bc .cfa: sp 0 +
STACK CFI 94c0 .cfa: x29 32 +
STACK CFI 94d4 .cfa: sp 32 +
STACK CFI 94dc .cfa: sp 0 +
STACK CFI INIT 9554 7c .cfa: sp 0 +
STACK CFI 9558 .cfa: sp 48 +
STACK CFI 9564 .cfa: x29 48 + x19: .cfa -8 + ^ x20: .cfa -16 + ^ x21: .cfa -32 + ^ .ra: .cfa -40 + ^ x29: .cfa -48 + ^
STACK CFI 95b0 .cfa: sp 48 +
STACK CFI 95bc .cfa: sp 0 +
STACK CFI 95c0 .cfa: sp 48 +
STACK CFI 95cc .cfa: sp 0 +
STACK CFI INIT 95d0 4 .cfa: sp 0 +
STACK CFI INIT 995c 120 .cfa: sp 0 +
STACK CFI 9960 .cfa: sp 64 +
STACK CFI 9970 .cfa: x29 64 + x19: .cfa -8 + ^ x20: .cfa -16 + ^ x21: .cfa -24 + ^ x22: .cfa -32 + ^ x23: .cfa -40 + ^ x24: .cfa -48 + ^ .ra: .cfa -56 + ^ x29: .cfa -64 + ^
STACK CFI 9a68 .cfa: sp 64 +
STACK CFI 9a78 .cfa: sp 0 +
STACK CFI INIT 9a7c 7c .cfa: sp 0 +
STACK CFI 9a80 .cfa: sp 32 +
STACK CFI 9a88 .cfa: x29 32 + x19: .cfa -8 + ^ x20: .cfa -16 + ^ .ra: .cfa -24 + ^ x29: .cfa -32 + ^
STACK CFI 9ae0 .cfa: sp 32 +
STACK CFI 9ae8 .cfa: sp 0 +
STACK CFI 9aec .cfa: sp 32 +
STACK CFI 9af4 .cfa: sp 0 +
STACK CFI INIT 9af8 7c .cfa: sp 0 +
STACK CFI 9afc .cfa: sp 48 +
STACK CFI 9b08 .cfa: x29 48 + x19: .cfa -8 + ^ x20: .cfa -16 + ^ x21: .cfa -24 + ^ x22: .cfa -32 + ^ .ra: .cfa -40 + ^ x29: .cfa -48 + ^
STACK CFI 9b20 .cfa: sp 48 +
STACK CFI 9b2c .cfa: sp 0 +
STACK CFI 9b30 .cfa: x29 48 +
STACK CFI 9b60 .cfa: sp 48 +
STACK CFI 9b6c .cfa: sp 0 +
STACK CFI 9b70 .cfa: x29 48 +
STACK CFI INIT 9b74 1b0 .cfa: sp 0 +
STACK CFI INIT 9e78 34 .cfa: sp 0 +
STACK CFI 9e7c .cfa: sp 16 +
STACK CFI 9e80 .cfa: x29 16 + .ra: .cfa -8 + ^ x29: .cfa -16 + ^
STACK CFI INIT 9fd8 80 .cfa: sp 0 +
STACK CFI 9fdc .cfa: sp 48 +
STACK CFI 9fe8 .cfa: x29 48 + x19: .cfa -8 + ^ x20: .cfa -16 + ^ x21: .cfa -32 + ^ .ra: .cfa -40 + ^ x29: .cfa -48 + ^
STACK CFI a048 .cfa: sp 48 +
STACK CFI a054 .cfa: sp 0 +
STACK CFI INIT a058 24 .cfa: sp 0 +
STACK CFI a05c .cfa: sp 32 +
STACK CFI a064 .cfa: x29 32 + x19: .cfa -16 + ^ .ra: .cfa -24 + ^ x29: .cfa -32 + ^
STACK CFI a070 .cfa: sp 32 +
STACK CFI a078 .cfa: sp 0 +
STACK CFI INIT a5ec 4 .cfa: sp 0 +
STACK CFI INIT a5f0 14 .cfa: sp 0 +
STACK CFI INIT a828 68 .cfa: sp 0 +
STACK CFI a82c .cfa: sp 32 +
STACK CFI a834 .cfa: x29 32 + x19: .cfa -8 + ^ x20: .cfa -16 + ^ .ra: .cfa -24 + ^ x29: .cfa -32 + ^
STACK CFI a84c .cfa: sp 32 +
STACK CFI a854 .cfa: sp 0 +
STACK CFI a858 .cfa: x29 32 +
STACK CFI a884 .cfa: sp 32 +
STACK CFI a88c .cfa: sp 0 +
STACK CFI INIT a890 14 .cfa: sp 0 +
STACK CFI a894 .cfa: sp 16 +
STACK CFI a898 .cfa: x29 16 + .ra: .cfa -8 + ^ x29: .cfa -16 + ^
STACK CFI INIT a8a4 4 .cfa: sp 0 +
STACK CFI INIT a8a8 14 .cfa: sp 0 +
STACK CFI INIT a8bc c4 .cfa: sp 0 +
STACK CFI a8c0 .cfa: sp 32 +
STACK CFI a8c8 .cfa: x29 32 + x19: .cfa -8 + ^ x20: .cfa -16 + ^ .ra: .cfa -24 + ^ x29: .cfa -32 + ^
STACK CFI a950 .cfa: sp 32 +
STACK CFI a958 .cfa: sp 0 +
STACK CFI a95c .cfa: x29 32 +
STACK CFI INIT a980 3c8 .cfa: sp 0 +
STACK CFI INIT ad48 84 .cfa: sp 0 +
STACK CFI ad50 .cfa: sp 32 +
STACK CFI ad58 .cfa: x29 32 + x19: .cfa -8 + ^ x20: .cfa -16 + ^ .ra: .cfa -24 + ^ x29: .cfa -32 + ^
STACK CFI ad98 .cfa: sp 32 +
STACK CFI ada0 .cfa: sp 0 +
STACK CFI ada8 .cfa: x29 32 +
STACK CFI INIT b0f4 4 .cfa: sp 0 +
STACK CFI INIT b0f8 3c .cfa: sp 0 +
STACK CFI b0fc .cfa: sp 32 +
STACK CFI b104 .cfa: x29 32 + x19: .cfa -16 + ^ .ra: .cfa -24 + ^ x29: .cfa -32 + ^
STACK CFI b118 .cfa: sp 32 +
STACK CFI b120 .cfa: sp 0 +
STACK CFI b124 .cfa: x29 32 +
STACK CFI b128 .cfa: sp 32 +
STACK CFI b130 .cfa: sp 0 +
STACK CFI INIT b134 50 .cfa: sp 0 +
STACK CFI b138 .cfa: sp 32 +
STACK CFI b140 .cfa: x29 32 + x19: .cfa -16 + ^ .ra: .cfa -24 + ^ x29: .cfa -32 + ^
STACK CFI b158 .cfa: sp 32 +
STACK CFI b160 .cfa: sp 0 +
STACK CFI b164 .cfa: x29 32 +
STACK CFI b178 .cfa: sp 32 +
STACK CFI b180 .cfa: sp 0 +
STACK CFI INIT b184 64 .cfa: sp 0 +
STACK CFI b188 .cfa: sp 32 +
STACK CFI b190 .cfa: x29 32 + x19: .cfa -16 + ^ .ra: .cfa -24 + ^ x29: .cfa -32 + ^
STACK CFI b1bc .cfa: sp 32 +
STACK CFI b1c4 .cfa: sp 0 +
STACK CFI b1c8 .cfa: x29 32 +
STACK CFI b1dc .cfa: sp 32 +
STACK CFI b1e4 .cfa: sp 0 +
STACK CFI INIT b6f8 4c .cfa: sp 0 +
STACK CFI b6fc .cfa: sp 32 +
STACK CFI b704 .cfa: x29 32 + x19: .cfa -8 + ^ x20: .cfa -16 + ^ .ra: .cfa -24 + ^ x29: .cfa -32 + ^
STACK CFI b72c .cfa: sp 32 +
STACK CFI b734 .cfa: sp 0 +
STACK CFI b738 .cfa: sp 32 +
STACK CFI b740 .cfa: sp 0 +
STACK CFI INIT b744 4c .cfa: sp 0 +
STACK CFI b748 .cfa: sp 32 +
STACK CFI b750 .cfa: x29 32 + x19: .cfa -8 + ^ x20: .cfa -16 + ^ .ra: .cfa -24 + ^ x29: .cfa -32 + ^
STACK CFI b778 .cfa: sp 32 +
STACK CFI b780 .cfa: sp 0 +
STACK CFI b784 .cfa: sp 32 +
STACK CFI b78c .cfa: sp 0 +
STACK CFI INIT bdf4 28 .cfa: sp 0 +
STACK CFI bdf8 .cfa: sp 32 +
STACK CFI be00 .cfa: x29 32 + x19: .cfa -16 + ^ .ra: .cfa -24 + ^ x29: .cfa -32 + ^
STACK CFI be10 .cfa: sp 32 +
STACK CFI be18 .cfa: sp 0 +
STACK CFI INIT be1c 14 .cfa: sp 0 +
STACK CFI be20 .cfa: sp 16 +
STACK CFI be24 .cfa: x29 16 + .ra: .cfa -8 + ^ x29: .cfa -16 + ^
STACK CFI INIT be30 14 .cfa: sp 0 +
STACK CFI be34 .cfa: sp 16 +
STACK CFI be38 .cfa: x29 16 + .ra: .cfa -8 + ^ x29: .cfa -16 + ^
STACK CFI INIT be44 c .cfa: sp 0 +
STACK CFI be48 .cfa: sp 16 +
STACK CFI be4c .cfa: x29 16 + .ra: .cfa -8 + ^ x29: .cfa -16 + ^
STACK CFI INIT be98 38 .cfa: sp 0 +
STACK CFI be9c .cfa: sp 32 +
STACK CFI bea4 .cfa: x29 32 + x19: .cfa -16 + ^ .ra: .cfa -24 + ^ x29: .cfa -32 + ^
STACK CFI bec4 .cfa: sp 32 +
STACK CFI becc .cfa: sp 0 +
STACK CFI INIT bed0 c .cfa: sp 0 +
STACK CFI bed4 .cfa: sp 16 +
STACK CFI bed8 .cfa: x29 16 + .ra: .cfa -8 + ^ x29: .cfa -16 + ^
STACK CFI INIT bedc 3c .cfa: sp 0 +
STACK CFI bee4 .cfa: sp 32 +
STACK CFI beec .cfa: x29 32 + x19: .cfa -16 + ^ .ra: .cfa -24 + ^ x29: .cfa -32 + ^
STACK CFI bf08 .cfa: sp 32 +
STACK CFI bf10 .cfa: sp 0 +
STACK CFI INIT bf18 3c .cfa: sp 0 +
STACK CFI bf20 .cfa: sp 32 +
STACK CFI bf28 .cfa: x29 32 + x19: .cfa -16 + ^ .ra: .cfa -24 + ^ x29: .cfa -32 + ^
STACK CFI bf44 .cfa: sp 32 +
STACK CFI bf4c .cfa: sp 0 +
STACK CFI INIT bf54 4 .cfa: sp 0 +
STACK CFI INIT bf58 4 .cfa: sp 0 +
STACK CFI INIT bf5c 38 .cfa: sp 0 +
STACK CFI bf60 .cfa: sp 32 +
STACK CFI bf68 .cfa: x29 32 + x19: .cfa -16 + ^ .ra: .cfa -24 + ^ x29: .cfa -32 + ^
STACK CFI bf88 .cfa: sp 32 +
STACK CFI bf90 .cfa: sp 0 +
STACK CFI INIT bf94 18 .cfa: sp 0 +
STACK CFI INIT bfac 4 .cfa: sp 0 +
STACK CFI INIT bfb0 4 .cfa: sp 0 +
STACK CFI INIT bfb4 10 .cfa: sp 0 +
STACK CFI INIT bfc4 1c .cfa: sp 0 +
STACK CFI INIT bfe0 c .cfa: sp 0 +
STACK CFI INIT bfec 168 .cfa: sp 0 +
STACK CFI bff0 .cfa: sp 80 +
STACK CFI c004 .cfa: x29 80 + x19: .cfa -8 + ^ x20: .cfa -16 + ^ x21: .cfa -24 + ^ x22: .cfa -32 + ^ x23: .cfa -40 + ^ x24: .cfa -48 + ^ x25: .cfa -56 + ^ x26: .cfa -64 + ^ .ra: .cfa -72 + ^ x29: .cfa -80 + ^
STACK CFI c13c .cfa: sp 80 +
STACK CFI c150 .cfa: sp 0 +
STACK CFI INIT c154 1dc .cfa: sp 0 +
STACK CFI c158 .cfa: sp 64 +
STACK CFI c168 .cfa: x29 64 + x19: .cfa -8 + ^ x20: .cfa -16 + ^ x21: .cfa -24 + ^ x22: .cfa -32 + ^ x23: .cfa -48 + ^ .ra: .cfa -56 + ^ x29: .cfa -64 + ^
STACK CFI c2e4 .cfa: sp 64 +
STACK CFI c2f4 .cfa: sp 0 +
STACK CFI c2f8 .cfa: x29 64 +
STACK CFI c31c .cfa: sp 64 +
STACK CFI c32c .cfa: sp 0 +
STACK CFI INIT c8f0 4 .cfa: sp 0 +
STACK CFI INIT c8f4 8c .cfa: sp 0 +
STACK CFI c8f8 .cfa: sp 48 +
STACK CFI c904 .cfa: x29 48 + x19: .cfa -8 + ^ x20: .cfa -16 + ^ x21: .cfa -24 + ^ x22: .cfa -32 + ^ .ra: .cfa -40 + ^ x29: .cfa -48 + ^
STACK CFI c960 .cfa: sp 48 +
STACK CFI c96c .cfa: sp 0 +
STACK CFI c970 .cfa: sp 48 +
STACK CFI c97c .cfa: sp 0 +
STACK CFI INIT d280 3c .cfa: sp 0 +
STACK CFI d284 .cfa: sp 32 +
STACK CFI d28c .cfa: x29 32 + x19: .cfa -16 + ^ .ra: .cfa -24 + ^ x29: .cfa -32 + ^
STACK CFI d298 .cfa: sp 32 +
STACK CFI d2a0 .cfa: sp 0 +
STACK CFI d2a4 .cfa: x29 32 +
STACK CFI d2b0 .cfa: sp 32 +
STACK CFI d2b8 .cfa: sp 0 +
STACK CFI INIT 6c40 5f4 .cfa: sp 0 +
STACK CFI 6c44 .cfa: sp 176 +
STACK CFI 6c54 .cfa: x29 48 + x19: .cfa -8 + ^ x20: .cfa -16 + ^ x21: .cfa -24 + ^ x22: .cfa -32 + ^ .ra: .cfa -40 + ^ x29: .cfa -48 + ^
STACK CFI 7144 .cfa: sp 176 +
STACK CFI 7154 .cfa: sp 0 +
STACK CFI 7158 .cfa: x29 48 +
STACK CFI INIT 7234 564 .cfa: sp 0 +
STACK CFI 7238 .cfa: sp 224 +
STACK CFI 7254 .cfa: x29 96 + x19: .cfa -8 + ^ x20: .cfa -16 + ^ x21: .cfa -24 + ^ x22: .cfa -32 + ^ x23: .cfa -40 + ^ x24: .cfa -48 + ^ x25: .cfa -56 + ^ x26: .cfa -64 + ^ x27: .cfa -72 + ^ x28: .cfa -80 + ^ .ra: .cfa -88 + ^ x29: .cfa -96 + ^
STACK CFI 759c .cfa: sp 224 +
STACK CFI 75b8 .cfa: sp 0 +
STACK CFI 75bc .cfa: x29 96 +
STACK CFI 7688 .cfa: sp 224 +
STACK CFI 76a4 .cfa: sp 0 +
STACK CFI 76a8 .cfa: x29 96 +
STACK CFI INIT 77b0 484 .cfa: sp 0 +
STACK CFI 77b4 .cfa: sp 224 +
STACK CFI 77d0 .cfa: x29 96 + x19: .cfa -8 + ^ x20: .cfa -16 + ^ x21: .cfa -24 + ^ x22: .cfa -32 + ^ x23: .cfa -40 + ^ x24: .cfa -48 + ^ x25: .cfa -56 + ^ x26: .cfa -64 + ^ x27: .cfa -72 + ^ x28: .cfa -80 + ^ .ra: .cfa -88 + ^ x29: .cfa -96 + ^
STACK CFI 7a40 .cfa: sp 224 +
STACK CFI 7a5c .cfa: sp 0 +
STACK CFI 7a60 .cfa: x29 96 +
STACK CFI 7b2c .cfa: sp 224 +
STACK CFI 7b48 .cfa: sp 0 +
STACK CFI 7b4c .cfa: x29 96 +
STACK CFI INIT 7d7c f8 .cfa: sp 0 +
STACK CFI 7d80 .cfa: sp 48 +
STACK CFI 7d8c .cfa: x29 48 + x19: .cfa -8 + ^ x20: .cfa -16 + ^ x21: .cfa -32 + ^ .ra: .cfa -40 + ^ x29: .cfa -48 + ^
STACK CFI 7df8 .cfa: sp 48 +
STACK CFI 7e04 .cfa: sp 0 +
STACK CFI 7e08 .cfa: x29 48 +
STACK CFI INIT 8184 50 .cfa: sp 0 +
STACK CFI 8188 .cfa: sp 32 +
STACK CFI 8190 .cfa: x29 32 + x19: .cfa -8 + ^ x20: .cfa -16 + ^ .ra: .cfa -24 + ^ x29: .cfa -32 + ^
STACK CFI INIT 8208 164 .cfa: sp 0 +
STACK CFI 820c .cfa: sp 112 +
STACK CFI 821c .cfa: x29 48 + x19: .cfa -8 + ^ x20: .cfa -16 + ^ x21: .cfa -24 + ^ x22: .cfa -32 + ^ .ra: .cfa -40 + ^ x29: .cfa -48 + ^
STACK CFI 8308 .cfa: sp 112 +
STACK CFI 8318 .cfa: sp 0 +
STACK CFI 831c .cfa: x29 48 +
STACK CFI INIT 88b0 164 .cfa: sp 0 +
STACK CFI 88b4 .cfa: sp 112 +
STACK CFI 88c4 .cfa: x29 48 + x19: .cfa -8 + ^ x20: .cfa -16 + ^ x21: .cfa -24 + ^ x22: .cfa -32 + ^ .ra: .cfa -40 + ^ x29: .cfa -48 + ^
STACK CFI 89b0 .cfa: sp 112 +
STACK CFI 89c0 .cfa: sp 0 +
STACK CFI 89c4 .cfa: x29 48 +
STACK CFI INIT 8b64 92c .cfa: sp 0 +
STACK CFI 8b68 .cfa: sp 288 +
STACK CFI 8b84 .cfa: x29 96 + x19: .cfa -8 + ^ x20: .cfa -16 + ^ x21: .cfa -24 + ^ x22: .cfa -32 + ^ x23: .cfa -40 + ^ x24: .cfa -48 + ^ x25: .cfa -56 + ^ x26: .cfa -64 + ^ x27: .cfa -72 + ^ x28: .cfa -80 + ^ .ra: .cfa -88 + ^ x29: .cfa -96 + ^
STACK CFI 91fc .cfa: sp 288 +
STACK CFI 9218 .cfa: sp 0 +
STACK CFI 921c .cfa: x29 96 +
STACK CFI INIT 94e0 74 .cfa: sp 0 +
STACK CFI 94e4 .cfa: sp 48 +
STACK CFI 94f0 .cfa: x29 32 + x19: .cfa -8 + ^ x20: .cfa -16 + ^ .ra: .cfa -24 + ^ x29: .cfa -32 + ^
STACK CFI 953c .cfa: sp 48 +
STACK CFI 9548 .cfa: sp 0 +
STACK CFI 954c .cfa: x29 32 +
STACK CFI INIT 95d4 388 .cfa: sp 0 +
STACK CFI 95d8 .cfa: sp 192 +
STACK CFI 95f4 .cfa: x29 96 + x19: .cfa -8 + ^ x20: .cfa -16 + ^ x21: .cfa -24 + ^ x22: .cfa -32 + ^ x23: .cfa -40 + ^ x24: .cfa -48 + ^ x25: .cfa -56 + ^ x26: .cfa -64 + ^ x27: .cfa -72 + ^ x28: .cfa -80 + ^ .ra: .cfa -88 + ^ x29: .cfa -96 + ^
STACK CFI 98d0 .cfa: sp 192 +
STACK CFI 98ec .cfa: sp 0 +
STACK CFI 98f0 .cfa: x29 96 +
STACK CFI INIT 9d24 154 .cfa: sp 0 +
STACK CFI 9d28 .cfa: sp 384 +
STACK CFI 9d3c .cfa: x29 64 + x19: .cfa -8 + ^ x20: .cfa -16 + ^ x21: .cfa -24 + ^ x22: .cfa -32 + ^ x23: .cfa -40 + ^ x28: .cfa -48 + ^ .ra: .cfa -56 + ^ x29: .cfa -64 + ^
STACK CFI 9e20 .cfa: sp 384 +
STACK CFI 9e34 .cfa: sp 0 +
STACK CFI 9e38 .cfa: x29 64 +
STACK CFI INIT 9eac 12c .cfa: sp 0 +
STACK CFI 9eb0 .cfa: sp 80 +
STACK CFI 9ec4 .cfa: x29 80 + x19: .cfa -8 + ^ x20: .cfa -16 + ^ x21: .cfa -24 + ^ x22: .cfa -32 + ^ x23: .cfa -40 + ^ x24: .cfa -48 + ^ x25: .cfa -56 + ^ x26: .cfa -64 + ^ .ra: .cfa -72 + ^ x29: .cfa -80 + ^
STACK CFI 9f8c .cfa: sp 80 +
STACK CFI 9fa0 .cfa: sp 0 +
STACK CFI 9fa4 .cfa: x29 80 +
STACK CFI INIT a07c 2d8 .cfa: sp 0 +
STACK CFI a080 .cfa: sp 144 +
STACK CFI a09c .cfa: x29 96 + x19: .cfa -8 + ^ x20: .cfa -16 + ^ x21: .cfa -24 + ^ x22: .cfa -32 + ^ x23: .cfa -40 + ^ x24: .cfa -48 + ^ x25: .cfa -56 + ^ x26: .cfa -64 + ^ x27: .cfa -72 + ^ x28: .cfa -80 + ^ .ra: .cfa -88 + ^ x29: .cfa -96 + ^
STACK CFI a2a0 .cfa: sp 144 +
STACK CFI a2bc .cfa: sp 0 +
STACK CFI a2c0 .cfa: x29 96 +
STACK CFI INIT a354 298 .cfa: sp 0 +
STACK CFI a358 .cfa: sp 80 +
STACK CFI a36c .cfa: x29 80 + x19: .cfa -8 + ^ x20: .cfa -16 + ^ x21: .cfa -24 + ^ x22: .cfa -32 + ^ x23: .cfa -40 + ^ x24: .cfa -48 + ^ x25: .cfa -64 + ^ .ra: .cfa -72 + ^ x29: .cfa -80 + ^
STACK CFI a5b8 .cfa: sp 80 +
STACK CFI a5cc .cfa: sp 0 +
STACK CFI a5d0 .cfa: x29 80 +
STACK CFI INIT a604 224 .cfa: sp 0 +
STACK CFI a608 .cfa: sp 128 +
STACK CFI a620 .cfa: x29 80 + x19: .cfa -8 + ^ x20: .cfa -16 + ^ x21: .cfa -24 + ^ x22: .cfa -32 + ^ x23: .cfa -40 + ^ x24: .cfa -48 + ^ x25: .cfa -64 + ^ .ra: .cfa -72 + ^ x29: .cfa -80 + ^
STACK CFI a7bc .cfa: sp 128 +
STACK CFI a7d4 .cfa: sp 0 +
STACK CFI a7d8 .cfa: x29 80 +
STACK CFI INIT adcc 328 .cfa: sp 0 +
STACK CFI add0 .cfa: sp 112 +
STACK CFI ade4 .cfa: x29 64 + x19: .cfa -8 + ^ x20: .cfa -16 + ^ x21: .cfa -24 + ^ x22: .cfa -32 + ^ x23: .cfa -48 + ^ .ra: .cfa -56 + ^ x29: .cfa -64 + ^
STACK CFI b048 .cfa: sp 112 +
STACK CFI b05c .cfa: sp 0 +
STACK CFI b060 .cfa: x29 64 +
STACK CFI INIT b1e8 510 .cfa: sp 0 +
STACK CFI b1ec .cfa: sp 96 +
STACK CFI b204 .cfa: x29 96 + x19: .cfa -8 + ^ x20: .cfa -16 + ^ x21: .cfa -24 + ^ x22: .cfa -32 + ^ x23: .cfa -40 + ^ x24: .cfa -48 + ^ x25: .cfa -56 + ^ x26: .cfa -64 + ^ x27: .cfa -72 + ^ x28: .cfa -80 + ^ .ra: .cfa -88 + ^ x29: .cfa -96 + ^
STACK CFI b6a4 .cfa: sp 96 +
STACK CFI b6bc .cfa: sp 0 +
STACK CFI b6c0 .cfa: x29 96 +
STACK CFI INIT b790 664 .cfa: sp 0 +
STACK CFI b794 .cfa: sp 224 +
STACK CFI b7b0 .cfa: x29 96 + x19: .cfa -8 + ^ x20: .cfa -16 + ^ x21: .cfa -24 + ^ x22: .cfa -32 + ^ x23: .cfa -40 + ^ x24: .cfa -48 + ^ x25: .cfa -56 + ^ x26: .cfa -64 + ^ x27: .cfa -72 + ^ x28: .cfa -80 + ^ .ra: .cfa -88 + ^ x29: .cfa -96 + ^
STACK CFI bc84 .cfa: sp 224 +
STACK CFI bca0 .cfa: sp 0 +
STACK CFI bca4 .cfa: x29 96 +
STACK CFI INIT be50 48 .cfa: sp 0 +
STACK CFI be54 .cfa: sp 32 +
STACK CFI be5c .cfa: x29 32 + x19: .cfa -8 + ^ x20: .cfa -16 + ^ .ra: .cfa -24 + ^ x29: .cfa -32 + ^
STACK CFI INIT c330 5c0 .cfa: sp 0 +
STACK CFI c334 .cfa: sp 224 +
STACK CFI c34c .cfa: x29 80 + x19: .cfa -8 + ^ x20: .cfa -16 + ^ x21: .cfa -24 + ^ x22: .cfa -32 + ^ x23: .cfa -40 + ^ x24: .cfa -48 + ^ x25: .cfa -56 + ^ x26: .cfa -64 + ^ .ra: .cfa -72 + ^ x29: .cfa -80 + ^
STACK CFI c71c .cfa: sp 224 +
STACK CFI c734 .cfa: sp 0 +
STACK CFI c738 .cfa: x29 80 +
STACK CFI INIT c980 7d4 .cfa: sp 0 +
STACK CFI c984 .cfa: sp 160 +
STACK CFI c9a8 .cfa: x29 96 + x19: .cfa -8 + ^ x20: .cfa -16 + ^ x21: .cfa -24 + ^ x22: .cfa -32 + ^ x23: .cfa -40 + ^ x24: .cfa -48 + ^ x25: .cfa -56 + ^ x26: .cfa -64 + ^ x27: .cfa -72 + ^ x28: .cfa -80 + ^ .ra: .cfa -88 + ^ x29: .cfa -96 + ^ v8: .cfa -104 + ^ v9: .cfa -112 + ^ v10: .cfa -120 + ^ v11: .cfa -128 + ^
STACK CFI d0d0 .cfa: sp 160 +
STACK CFI d0f4 .cfa: sp 0 +
STACK CFI d0f8 .cfa: x29 96 +
STACK CFI INIT d154 12c .cfa: sp 0 +
STACK CFI d158 .cfa: sp 80 +
STACK CFI d168 .cfa: x29 48 + x19: .cfa -8 + ^ x20: .cfa -16 + ^ x21: .cfa -32 + ^ .ra: .cfa -40 + ^ x29: .cfa -48 + ^
STACK CFI d200 .cfa: sp 80 +
STACK CFI d210 .cfa: sp 0 +
STACK CFI d214 .cfa: x29 48 +
