MODULE Linux arm64 E7D11468DEFF1A7B06B2761B7D36B2920 mat.song-preview.android64.so
INFO CODE_ID 6814D1E7FFDE7B1A06B2761B7D36B2928D6D34D9
INFO GENERATOR mozilla/dump_syms 2.3.4
PUBLIC 1a760 0 __on_dlclose
PUBLIC 1a770 0 __emutls_unregister_key
PUBLIC 1a778 0 __on_dlclose_late
PUBLIC 1a780 0 __atexit_handler_wrapper
PUBLIC 1a794 0 atexit
PUBLIC 1a7b0 0 pthread_atfork
PUBLIC 1a7c0 0 __aarch64_ldadd8_relax
PUBLIC 1a7f0 0 init_have_lse_atomics
PUBLIC 1a888 0 __init_cpu_features_constructor
PUBLIC 1ae24 0 __init_cpu_features
PUBLIC 1aeb0 0 __aarch64_ldadd8_acq_rel
PUBLIC 1aee0 0 __cxx_global_var_init
PUBLIC 1af3c 0 std::__ndk1::vector<void*, std::__ndk1::allocator<void*> >::~vector[abi:ne180000]()
PUBLIC 1af54 0 __cxx_global_var_init.1
PUBLIC 1baf4 0 geode::modifier::ModifyBase<geode::modifier::ModifyDerive<hook553<(anonymous namespace)::hook553Parent>, CustomSongWidget> >::~ModifyBase()
PUBLIC 1bb0c 0 __clang_call_terminate
PUBLIC 1bb1c 0 geode::modifier::ModifyDerive<hook553<(anonymous namespace)::hook553Parent>, CustomSongWidget>::apply()
PUBLIC 1bfa4 0 std::__ndk1::shared_ptr<geode::Hook>::~shared_ptr[abi:ne180000]()
PUBLIC 1bff4 0 geode::impl::ResultData<geode::Hook*, std::__ndk1::basic_string<char, std::__ndk1::char_traits<char>, std::__ndk1::allocator<char> > >::~ResultData()
PUBLIC 1c068 0 std::__ndk1::vector<std::__ndk1::basic_string<char, std::__ndk1::char_traits<char>, std::__ndk1::allocator<char> >, std::__ndk1::allocator<std::__ndk1::basic_string<char, std::__ndk1::char_traits<char>, std::__ndk1::allocator<char> > > >::~vector[abi:ne180000]()
PUBLIC 1c0e4 0 geode::modifier::ModifyBase<geode::modifier::ModifyDerive<hook553<(anonymous namespace)::hook553Parent>, CustomSongWidget> >::apply()
PUBLIC 1c0e8 0 _ZN5geode15UnwrapExceptionC2IRPNS_4HookEQsr4implE18IsStringStreamableIT_EEENS_4impl5OkTagEOS5_
PUBLIC 1c23c 0 std::__ndk1::__throw_bad_variant_access[abi:ne180000]()
PUBLIC 1c270 0 std::__ndk1::basic_stringstream<char, std::__ndk1::char_traits<char>, std::__ndk1::allocator<char> >::basic_stringstream[abi:ne180000]()
PUBLIC m 1c39c 0 std::__ndk1::basic_stringstream<char, std::__ndk1::char_traits<char>, std::__ndk1::allocator<char> >::~basic_stringstream()
PUBLIC 1c41c 0 geode::UnwrapException::~UnwrapException()
PUBLIC 1c440 0 std::__ndk1::__put_character_sequence[abi:ne180000]<char, std::__ndk1::char_traits<char> >(std::__ndk1::basic_ostream<char, std::__ndk1::char_traits<char> >, std::__ndk1::basic_ostream const*, unsigned long)
PUBLIC 1c5e4 0 std::__ndk1::__pad_and_output[abi:ne180000]<char, std::__ndk1::char_traits<char> >(std::__ndk1::char_traits<char>, std::__ndk1::ostreambuf_iterator const*, std::__ndk1::ostreambuf_iterator const, std::__ndk1::ostreambuf_iterator const, std::__ndk1::ios_base&, std::__ndk1::ostreambuf_iterator)
PUBLIC 1c7c0 0 std::__ndk1::basic_string<char, std::__ndk1::char_traits<char>, std::__ndk1::allocator<char> >::__throw_length_error[abi:ne180000]() const
PUBLIC 1c7d4 0 std::__ndk1::__throw_length_error[abi:ne180000](char const*)
PUBLIC 1c824 0 std::length_error::length_error[abi:ne180000](char const*)
PUBLIC 1c854 0 std::__throw_bad_array_new_length([abi:ne180000], void)
PUBLIC 1c888 0 std::__ndk1::basic_stringbuf<char, std::__ndk1::char_traits<char>, std::__ndk1::allocator<char> >::str[abi:ne180000]() &&
PUBLIC 1ca00 0 std::__ndk1::basic_stringbuf<char, std::__ndk1::char_traits<char>, std::__ndk1::allocator<char> >::__init_buf_ptrs[abi:ne180000]()
PUBLIC 1cb48 0 std::__ndk1::basic_string<char, std::__ndk1::char_traits<char>, std::__ndk1::allocator<char> >::__init_copy_ctor_external(char const*, unsigned long)
PUBLIC 1cbc8 0 std::__ndk1::__split_buffer<std::__ndk1::basic_string<char, std::__ndk1::char_traits<char>, std::__ndk1::allocator<char> >, std::__ndk1::allocator<std::__ndk1::basic_string<char, std::__ndk1::char_traits<char>, std::__ndk1::allocator<char> > >&>::~__split_buffer()
PUBLIC 1cc30 0 std::__ndk1::vector<std::__ndk1::basic_string<char, std::__ndk1::char_traits<char>, std::__ndk1::allocator<char> >, std::__ndk1::allocator<std::__ndk1::basic_string<char, std::__ndk1::char_traits<char>, std::__ndk1::allocator<char> > > >::__throw_length_error[abi:ne180000]() const
PUBLIC 1cc44 0 std::__ndk1::__variant_detail::__visitation::__base::__dispatcher<(unsigned long)0>::__dispatch[abi:ne180000]<std::__ndk1::__variant_detail::__dtor<std::__ndk1::__variant_detail::__traits<geode::Hook*, std::__ndk1::basic_string<char, std::__ndk1::char_traits<char>, std::__ndk1::allocator<char> > >, (std::__ndk1::__variant_detail::_Trait)1>::__destroy[abi:ne180000]()::{lambda(auto:1&)#1}, std::__ndk1::__variant_detail::__base<(std::__ndk1::__variant_detail::__traits<geode::Hook*, std::__ndk1::basic_string<char, std::__ndk1::char_traits<char>, std::__ndk1::allocator<char> > >)1, geode::Hook, std::__ndk1::allocator<char> >&>(std::__ndk1::__variant_detail::__dtor<std::__ndk1::__variant_detail::__traits<geode::Hook*, std::__ndk1::basic_string<char, std::__ndk1::char_traits<char>, std::__ndk1::allocator<char> > >, (std::__ndk1::__variant_detail::_Trait)1>, std::__ndk1::__variant_detail::__base<(std::__ndk1::__variant_detail::__traits<geode::Hook*, std::__ndk1::basic_string<char, std::__ndk1::char_traits<char>, std::__ndk1::allocator<char> > >)1, geode::Hook, std::__ndk1::allocator<char> >&)
PUBLIC 1cc48 0 std::__ndk1::__variant_detail::__visitation::__base::__dispatcher<(unsigned long)1>::__dispatch[abi:ne180000]<std::__ndk1::__variant_detail::__dtor<std::__ndk1::__variant_detail::__traits<geode::Hook*, std::__ndk1::basic_string<char, std::__ndk1::char_traits<char>, std::__ndk1::allocator<char> > >, (std::__ndk1::__variant_detail::_Trait)1>::__destroy[abi:ne180000]()::{lambda(auto:1&)#1}, std::__ndk1::__variant_detail::__base<(std::__ndk1::__variant_detail::__traits<geode::Hook*, std::__ndk1::basic_string<char, std::__ndk1::char_traits<char>, std::__ndk1::allocator<char> > >)1, geode::Hook, std::__ndk1::allocator<char> >&>(std::__ndk1::__variant_detail::__dtor<std::__ndk1::__variant_detail::__traits<geode::Hook*, std::__ndk1::basic_string<char, std::__ndk1::char_traits<char>, std::__ndk1::allocator<char> > >, (std::__ndk1::__variant_detail::_Trait)1>, std::__ndk1::__variant_detail::__base<(std::__ndk1::__variant_detail::__traits<geode::Hook*, std::__ndk1::basic_string<char, std::__ndk1::char_traits<char>, std::__ndk1::allocator<char> > >)1, geode::Hook, std::__ndk1::allocator<char> >&)
PUBLIC 1cc5c 0 std::__ndk1::__tree<std::__ndk1::__value_type<std::__ndk1::basic_string<char, std::__ndk1::char_traits<char>, std::__ndk1::allocator<char> >, std::__ndk1::shared_ptr<geode::Hook> >, std::__ndk1::__map_value_compare<std::__ndk1::basic_string<char, std::__ndk1::char_traits<char>, std::__ndk1::allocator<char> >, std::__ndk1::__value_type<std::__ndk1::basic_string<char, std::__ndk1::char_traits<char>, std::__ndk1::allocator<char> >, std::__ndk1::shared_ptr<geode::Hook> >, std::__ndk1::less<std::__ndk1::basic_string<char, std::__ndk1::char_traits<char>, std::__ndk1::allocator<char> > >, true>, std::__ndk1::allocator<std::__ndk1::__value_type<std::__ndk1::basic_string<char, std::__ndk1::char_traits<char>, std::__ndk1::allocator<char> >, std::__ndk1::shared_ptr<geode::Hook> > > >::destroy(std::__ndk1::__tree_node<std::__ndk1::__value_type<std::__ndk1::basic_string<char, std::__ndk1::char_traits<char>, std::__ndk1::allocator<char> >, std::__ndk1::shared_ptr<geode::Hook> >, void*>*)
PUBLIC 1cce0 0 geode::modifier::AsStaticFunction_onPlayback<hook553<(anonymous namespace)::hook553Parent>, void (hook553<(anonymous namespace)::hook553Parent>::*)(cocos2d::CCObject*)>::Impl<void (hook553<(anonymous namespace)::hook553Parent>::*)(cocos2d::CCObject*)>::function(hook553<(anonymous namespace)::hook553Parent>*, cocos2d::CCObject*)
PUBLIC 1d20c 0 std::__ndk1::shared_ptr<tulip::hook::CallingConvention>::~shared_ptr[abi:ne180000]()
PUBLIC 1d25c 0 tulip::hook::HandlerMetadata::~HandlerMetadata()
PUBLIC 1d2c0 0 geode::cast::traverseTypeinfoFor(void*, geode::cast::ClassTypeinfoType const*, char const*)
PUBLIC 1d3b8 0 geode::Task<std::__ndk1::vector<float, std::__ndk1::allocator<float> >, std::__ndk1::monostate>::~Task()
PUBLIC 1d408 0 cocos2d::CCCopying::copyWithZone(cocos2d::CCZone*)
PUBLIC 1d410 0 DetailedAudioPreviewPopup::~DetailedAudioPreviewPopup()
PUBLIC 1d544 0 DetailedAudioPreviewPopup::~DetailedAudioPreviewPopup()
PUBLIC 1d568 0 DetailedAudioPreviewPopup::update(float)
PUBLIC 1d618 0 DetailedAudioPreviewPopup::ccTouchBegan(cocos2d::CCTouch*, cocos2d::CCEvent*)
PUBLIC 1d7c8 0 DetailedAudioPreviewPopup::ccTouchMoved(cocos2d::CCTouch*, cocos2d::CCEvent*)
PUBLIC 1d900 0 DetailedAudioPreviewPopup::ccTouchEnded(cocos2d::CCTouch*, cocos2d::CCEvent*)
PUBLIC 1d920 0 geode::Popup<SongInfoObject*, CustomSongWidget*>::registerWithTouchDispatcher()
PUBLIC 1d94c 0 geode::Popup<SongInfoObject*, CustomSongWidget*>::keyDown(cocos2d::enumKeyCodes)
PUBLIC 1d974 0 cocos2d::CCLayerRGBA::setOpacityModifyRGB(bool)
PUBLIC 1d978 0 cocos2d::CCLayerRGBA::isOpacityModifyRGB()
PUBLIC 1d980 0 DetailedAudioPreviewPopup::setup(SongInfoObject*, CustomSongWidget*)
PUBLIC 1f04c 0 DetailedAudioPreviewPopup::onClose(cocos2d::CCObject*)
PUBLIC 1f08c 0 DetailedAudioPreviewPopup::textChanged(CCTextInputNode*)
PUBLIC 1f1ac 0 DetailedAudioPreviewPopup::textInputClosed(CCTextInputNode*)
PUBLIC 1f1bc 0 {virtual override thunk({offset(-320)}, DetailedAudioPreviewPopup::~DetailedAudioPreviewPopup())}
PUBLIC 1f1c4 0 {virtual override thunk({offset(-320)}, DetailedAudioPreviewPopup::~DetailedAudioPreviewPopup())}
PUBLIC 1f1ec 0 {virtual override thunk({offset(-320)}, DetailedAudioPreviewPopup::ccTouchBegan(cocos2d::CCTouch*, cocos2d::CCEvent*))}
PUBLIC 1f1f4 0 {virtual override thunk({offset(-320)}, DetailedAudioPreviewPopup::ccTouchMoved(cocos2d::CCTouch*, cocos2d::CCEvent*))}
PUBLIC 1f1fc 0 {virtual override thunk({offset(-320)}, DetailedAudioPreviewPopup::ccTouchEnded(cocos2d::CCTouch*, cocos2d::CCEvent*))}
PUBLIC 1f220 0 {virtual override thunk({offset(-344)}, geode::Popup<SongInfoObject*, CustomSongWidget*>::keyDown(cocos2d::enumKeyCodes))}
PUBLIC 1f24c 0 cocos2d::CCKeyboardDelegate::keyUp(cocos2d::enumKeyCodes)
PUBLIC 1f250 0 cocos2d::CCMouseDelegate::rightKeyDown()
PUBLIC 1f254 0 cocos2d::CCMouseDelegate::rightKeyUp()
PUBLIC 1f258 0 cocos2d::CCMouseDelegate::scrollWheel(float, float)
PUBLIC 1f25c 0 {virtual override thunk({offset(-408)}, cocos2d::CCLayerRGBA::setOpacityModifyRGB(bool))}
PUBLIC 1f260 0 {virtual override thunk({offset(-408)}, cocos2d::CCLayerRGBA::isOpacityModifyRGB())}
PUBLIC 1f268 0 {virtual override thunk({offset(-672)}, DetailedAudioPreviewPopup::textChanged(CCTextInputNode*))}
PUBLIC 1f270 0 {virtual override thunk({offset(-672)}, DetailedAudioPreviewPopup::textInputClosed(CCTextInputNode*))}
PUBLIC 1f280 0 geode::Popup<SongInfoObject*, CustomSongWidget*>::~Popup()
PUBLIC 1f2ec 0 geode::Popup<SongInfoObject*, CustomSongWidget*>::~Popup()
PUBLIC 1f2f0 0 geode::Popup<SongInfoObject*, CustomSongWidget*>::onClose(cocos2d::CCObject*)
PUBLIC 1f438 0 {virtual override thunk({offset(-320)}, geode::Popup<SongInfoObject*, CustomSongWidget*>::~Popup())}
PUBLIC 1f4a4 0 {virtual override thunk({offset(-320)}, geode::Popup<SongInfoObject*, CustomSongWidget*>::~Popup())}
PUBLIC 1f4a8 0 geode::Popup<SongInfoObject*, CustomSongWidget*>::CloseEvent::~CloseEvent()
PUBLIC 1f508 0 geode::Popup<SongInfoObject*, CustomSongWidget*>::CloseEvent::~CloseEvent()
PUBLIC 1f578 0 std::__ndk1::__shared_ptr_emplace<geode::Popup<SongInfoObject*, CustomSongWidget*>::CloseEvent::Impl, std::__ndk1::allocator<geode::Popup<SongInfoObject*, CustomSongWidget*>::CloseEvent::Impl> >::~__shared_ptr_emplace()
PUBLIC 1f588 0 std::__ndk1::__shared_ptr_emplace<geode::Popup<SongInfoObject*, CustomSongWidget*>::CloseEvent::Impl, std::__ndk1::allocator<geode::Popup<SongInfoObject*, CustomSongWidget*>::CloseEvent::Impl> >::~__shared_ptr_emplace()
PUBLIC 1f5b8 0 std::__ndk1::__shared_ptr_emplace<geode::Popup<SongInfoObject*, CustomSongWidget*>::CloseEvent::Impl, std::__ndk1::allocator<geode::Popup<SongInfoObject*, CustomSongWidget*>::CloseEvent::Impl> >::__on_zero_shared()
PUBLIC 1f5bc 0 std::__ndk1::__shared_ptr_emplace<geode::Popup<SongInfoObject*, CustomSongWidget*>::CloseEvent::Impl, std::__ndk1::allocator<geode::Popup<SongInfoObject*, CustomSongWidget*>::CloseEvent::Impl> >::__on_zero_shared_weak()
PUBLIC 1f5c0 0 geode::Task<std::__ndk1::vector<float, std::__ndk1::allocator<float> >, std::__ndk1::monostate>::setListener(geode::EventListenerProtocol*)
PUBLIC 1f7c4 0 geode::EventListener<geode::Task<std::__ndk1::vector<float, std::__ndk1::allocator<float> >, std::__ndk1::monostate> >::getPool() const
PUBLIC 1f7c8 0 geode::EventListener<geode::Task<std::__ndk1::vector<float, std::__ndk1::allocator<float> >, std::__ndk1::monostate> >::handle(geode::Event*)
PUBLIC 1f974 0 geode::EventListener<geode::Task<std::__ndk1::vector<float, std::__ndk1::allocator<float> >, std::__ndk1::monostate> >::~EventListener()
PUBLIC 1fa10 0 geode::EventListener<geode::Task<std::__ndk1::vector<float, std::__ndk1::allocator<float> >, std::__ndk1::monostate> >::~EventListener()
PUBLIC 1fab4 0 geode::Task<std::__ndk1::vector<float, std::__ndk1::allocator<float> >, std::__ndk1::monostate>::setListener(geode::EventListenerProtocol*)::{lambda()#1}::~{lambda()#1}()
PUBLIC 1fb04 0 geode::Task<std::__ndk1::vector<float, std::__ndk1::allocator<float> >, std::__ndk1::monostate>::setListener(geode::EventListenerProtocol*)::{lambda()#2}::~{lambda()#2}()
PUBLIC 1fb54 0 std::__ndk1::__function::__func<geode::Task<std::__ndk1::vector<float, std::__ndk1::allocator<float> >, std::__ndk1::monostate>::setListener(geode::EventListenerProtocol*)::{lambda()#1}, std::__ndk1::allocator<geode::Task<std::__ndk1::vector<float, std::__ndk1::allocator<float> >, std::__ndk1::monostate>::setListener(geode::EventListenerProtocol*)::{lambda()#1}>, void ()>::~__func()
PUBLIC 1fbb0 0 std::__ndk1::__function::__func<geode::Task<std::__ndk1::vector<float, std::__ndk1::allocator<float> >, std::__ndk1::monostate>::setListener(geode::EventListenerProtocol*)::{lambda()#1}, std::__ndk1::allocator<geode::Task<std::__ndk1::vector<float, std::__ndk1::allocator<float> >, std::__ndk1::monostate>::setListener(geode::EventListenerProtocol*)::{lambda()#1}>, void ()>::~__func()
PUBLIC 1fc1c 0 std::__ndk1::__function::__func<geode::Task<std::__ndk1::vector<float, std::__ndk1::allocator<float> >, std::__ndk1::monostate>::setListener(geode::EventListenerProtocol*)::{lambda()#1}, std::__ndk1::allocator<geode::Task<std::__ndk1::vector<float, std::__ndk1::allocator<float> >, std::__ndk1::monostate>::setListener(geode::EventListenerProtocol*)::{lambda()#1}>, void ()>::__clone() const
PUBLIC 1fc74 0 std::__ndk1::__function::__func<geode::Task<std::__ndk1::vector<float, std::__ndk1::allocator<float> >, std::__ndk1::monostate>::setListener(geode::EventListenerProtocol*)::{lambda()#1}, std::__ndk1::allocator<geode::Task<std::__ndk1::vector<float, std::__ndk1::allocator<float> >, std::__ndk1::monostate>::setListener(geode::EventListenerProtocol*)::{lambda()#1}>, void ()>::__clone(std::__ndk1::__function::__base<void ()>*) const
PUBLIC 1fcc0 0 std::__ndk1::__function::__func<geode::Task<std::__ndk1::vector<float, std::__ndk1::allocator<float> >, std::__ndk1::monostate>::setListener(geode::EventListenerProtocol*)::{lambda()#1}, std::__ndk1::allocator<geode::Task<std::__ndk1::vector<float, std::__ndk1::allocator<float> >, std::__ndk1::monostate>::setListener(geode::EventListenerProtocol*)::{lambda()#1}>, void ()>::destroy()
PUBLIC 1fd10 0 std::__ndk1::__function::__func<geode::Task<std::__ndk1::vector<float, std::__ndk1::allocator<float> >, std::__ndk1::monostate>::setListener(geode::EventListenerProtocol*)::{lambda()#1}, std::__ndk1::allocator<geode::Task<std::__ndk1::vector<float, std::__ndk1::allocator<float> >, std::__ndk1::monostate>::setListener(geode::EventListenerProtocol*)::{lambda()#1}>, void ()>::destroy_deallocate()
PUBLIC 1fd70 0 std::__ndk1::__function::__func<geode::Task<std::__ndk1::vector<float, std::__ndk1::allocator<float> >, std::__ndk1::monostate>::setListener(geode::EventListenerProtocol*)::{lambda()#1}, std::__ndk1::allocator<geode::Task<std::__ndk1::vector<float, std::__ndk1::allocator<float> >, std::__ndk1::monostate>::setListener(geode::EventListenerProtocol*)::{lambda()#1}>, void ()>::operator()()
PUBLIC 1ff40 0 std::__ndk1::__function::__func<geode::Task<std::__ndk1::vector<float, std::__ndk1::allocator<float> >, std::__ndk1::monostate>::setListener(geode::EventListenerProtocol*)::{lambda()#1}, std::__ndk1::allocator<geode::Task<std::__ndk1::vector<float, std::__ndk1::allocator<float> >, std::__ndk1::monostate>::setListener(geode::EventListenerProtocol*)::{lambda()#1}>, void ()>::target(std::type_info const&) const
PUBLIC 1ff5c 0 std::__ndk1::__function::__func<geode::Task<std::__ndk1::vector<float, std::__ndk1::allocator<float> >, std::__ndk1::monostate>::setListener(geode::EventListenerProtocol*)::{lambda()#1}, std::__ndk1::allocator<geode::Task<std::__ndk1::vector<float, std::__ndk1::allocator<float> >, std::__ndk1::monostate>::setListener(geode::EventListenerProtocol*)::{lambda()#1}>, void ()>::target_type() const
PUBLIC 1ff68 0 std::__ndk1::shared_ptr<geode::Task<std::__ndk1::vector<float, std::__ndk1::allocator<float> >, std::__ndk1::monostate>::Handle>::~shared_ptr[abi:ne180000]()
PUBLIC 1ffb8 0 geode::Task<std::__ndk1::vector<float, std::__ndk1::allocator<float> >, std::__ndk1::monostate>::Event::~Event()
PUBLIC 20018 0 geode::Task<std::__ndk1::vector<float, std::__ndk1::allocator<float> >, std::__ndk1::monostate>::Event::~Event()
PUBLIC 20088 0 std::__ndk1::__function::__func<geode::Task<std::__ndk1::vector<float, std::__ndk1::allocator<float> >, std::__ndk1::monostate>::setListener(geode::EventListenerProtocol*)::{lambda()#2}, std::__ndk1::allocator<geode::Task<std::__ndk1::vector<float, std::__ndk1::allocator<float> >, std::__ndk1::monostate>::setListener(geode::EventListenerProtocol*)::{lambda()#2}>, void ()>::~__func()
PUBLIC 200e4 0 std::__ndk1::__function::__func<geode::Task<std::__ndk1::vector<float, std::__ndk1::allocator<float> >, std::__ndk1::monostate>::setListener(geode::EventListenerProtocol*)::{lambda()#2}, std::__ndk1::allocator<geode::Task<std::__ndk1::vector<float, std::__ndk1::allocator<float> >, std::__ndk1::monostate>::setListener(geode::EventListenerProtocol*)::{lambda()#2}>, void ()>::~__func()
PUBLIC 20150 0 std::__ndk1::__function::__func<geode::Task<std::__ndk1::vector<float, std::__ndk1::allocator<float> >, std::__ndk1::monostate>::setListener(geode::EventListenerProtocol*)::{lambda()#2}, std::__ndk1::allocator<geode::Task<std::__ndk1::vector<float, std::__ndk1::allocator<float> >, std::__ndk1::monostate>::setListener(geode::EventListenerProtocol*)::{lambda()#2}>, void ()>::__clone() const
PUBLIC 201a8 0 std::__ndk1::__function::__func<geode::Task<std::__ndk1::vector<float, std::__ndk1::allocator<float> >, std::__ndk1::monostate>::setListener(geode::EventListenerProtocol*)::{lambda()#2}, std::__ndk1::allocator<geode::Task<std::__ndk1::vector<float, std::__ndk1::allocator<float> >, std::__ndk1::monostate>::setListener(geode::EventListenerProtocol*)::{lambda()#2}>, void ()>::__clone(std::__ndk1::__function::__base<void ()>*) const
PUBLIC 201f4 0 std::__ndk1::__function::__func<geode::Task<std::__ndk1::vector<float, std::__ndk1::allocator<float> >, std::__ndk1::monostate>::setListener(geode::EventListenerProtocol*)::{lambda()#2}, std::__ndk1::allocator<geode::Task<std::__ndk1::vector<float, std::__ndk1::allocator<float> >, std::__ndk1::monostate>::setListener(geode::EventListenerProtocol*)::{lambda()#2}>, void ()>::destroy()
PUBLIC 20244 0 std::__ndk1::__function::__func<geode::Task<std::__ndk1::vector<float, std::__ndk1::allocator<float> >, std::__ndk1::monostate>::setListener(geode::EventListenerProtocol*)::{lambda()#2}, std::__ndk1::allocator<geode::Task<std::__ndk1::vector<float, std::__ndk1::allocator<float> >, std::__ndk1::monostate>::setListener(geode::EventListenerProtocol*)::{lambda()#2}>, void ()>::destroy_deallocate()
PUBLIC 202a4 0 std::__ndk1::__function::__func<geode::Task<std::__ndk1::vector<float, std::__ndk1::allocator<float> >, std::__ndk1::monostate>::setListener(geode::EventListenerProtocol*)::{lambda()#2}, std::__ndk1::allocator<geode::Task<std::__ndk1::vector<float, std::__ndk1::allocator<float> >, std::__ndk1::monostate>::setListener(geode::EventListenerProtocol*)::{lambda()#2}>, void ()>::operator()()
PUBLIC 20468 0 std::__ndk1::__function::__func<geode::Task<std::__ndk1::vector<float, std::__ndk1::allocator<float> >, std::__ndk1::monostate>::setListener(geode::EventListenerProtocol*)::{lambda()#2}, std::__ndk1::allocator<geode::Task<std::__ndk1::vector<float, std::__ndk1::allocator<float> >, std::__ndk1::monostate>::setListener(geode::EventListenerProtocol*)::{lambda()#2}>, void ()>::target(std::type_info const&) const
PUBLIC 20484 0 std::__ndk1::__function::__func<geode::Task<std::__ndk1::vector<float, std::__ndk1::allocator<float> >, std::__ndk1::monostate>::setListener(geode::EventListenerProtocol*)::{lambda()#2}, std::__ndk1::allocator<geode::Task<std::__ndk1::vector<float, std::__ndk1::allocator<float> >, std::__ndk1::monostate>::setListener(geode::EventListenerProtocol*)::{lambda()#2}>, void ()>::target_type() const
PUBLIC 20490 0 std::__ndk1::__throw_bad_function_call[abi:ne180000]()
PUBLIC 204c4 0 std::__ndk1::bad_function_call::~bad_function_call()
PUBLIC 204e8 0 DetailedAudioPreviewPopup::visualSeekTo(float)
PUBLIC 20968 0 DetailedAudioPreviewPopup::seekOffsetTo(float, bool)
PUBLIC 20b5c 0 geode::impl::ResultData<cocos2d::_ccColor4B, std::__ndk1::basic_string<char, std::__ndk1::char_traits<char>, std::__ndk1::allocator<char> > >::~ResultData()
PUBLIC 20bd0 0 DetailedAudioPreviewPopup::onGoToStartOffset(cocos2d::CCObject*)
PUBLIC 20c20 0 DetailedAudioPreviewPopup::onPlay(cocos2d::CCObject*)
PUBLIC 20d38 0 DetailedAudioPreviewPopup::onUseSong(cocos2d::CCObject*)
PUBLIC 20d8c 0 geode::Task<std::__ndk1::vector<float, std::__ndk1::allocator<float> >, std::__ndk1::monostate>::run(std::__ndk1::function<geode::Task<std::__ndk1::vector<float, std::__ndk1::allocator<float> >, std::__ndk1::monostate>::Result(std::__ndk1::function<void (std::__ndk1::monostate)>, std::__ndk1::function<bool ()>)>&&, std::__ndk1::basic_string_view<char, std::__ndk1::char_traits<char> >)::{lambda()#1}::~{lambda()#1}()
PUBLIC 20dfc 0 std::__ndk1::__shared_ptr_emplace<geode::Task<std::__ndk1::vector<float, std::__ndk1::allocator<float> >, std::__ndk1::monostate>::Handle, std::__ndk1::allocator<geode::Task<std::__ndk1::vector<float, std::__ndk1::allocator<float> >, std::__ndk1::monostate>::Handle> >::~__shared_ptr_emplace()
PUBLIC 20e0c 0 std::__ndk1::__shared_ptr_emplace<geode::Task<std::__ndk1::vector<float, std::__ndk1::allocator<float> >, std::__ndk1::monostate>::Handle, std::__ndk1::allocator<geode::Task<std::__ndk1::vector<float, std::__ndk1::allocator<float> >, std::__ndk1::monostate>::Handle> >::~__shared_ptr_emplace()
PUBLIC 20e3c 0 std::__ndk1::__shared_ptr_emplace<geode::Task<std::__ndk1::vector<float, std::__ndk1::allocator<float> >, std::__ndk1::monostate>::Handle, std::__ndk1::allocator<geode::Task<std::__ndk1::vector<float, std::__ndk1::allocator<float> >, std::__ndk1::monostate>::Handle> >::__on_zero_shared()
PUBLIC 20ef0 0 std::__ndk1::__shared_ptr_emplace<geode::Task<std::__ndk1::vector<float, std::__ndk1::allocator<float> >, std::__ndk1::monostate>::Handle, std::__ndk1::allocator<geode::Task<std::__ndk1::vector<float, std::__ndk1::allocator<float> >, std::__ndk1::monostate>::Handle> >::__on_zero_shared_weak()
PUBLIC 20ef4 0 std::__ndk1::__thread_proxy[abi:ne180000]<std::__ndk1::tuple<std::__ndk1::unique_ptr<std::__ndk1::__thread_struct, std::__ndk1::default_delete<std::__ndk1::unique_ptr> >, geode::Task<std::__ndk1::vector<float, std::__ndk1::allocator<float> >, std::__ndk1::monostate>::run(std::__ndk1::function<std::__ndk1::monostate(geode::Task<std::__ndk1::vector<float, std::__ndk1::allocator<float> >, std::__ndk1::monostate><void (std::__ndk1::vector<float, std::__ndk1::allocator<float> >)>, geode::Task<std::__ndk1::vector<float, std::__ndk1::allocator<float> >, std::__ndk1::monostate><bool ()>)::Result>&&, std::__ndk1::basic_string_view<char, std::__ndk1::char_traits<char> >)::{lambda()#1}> >(std::__ndk1::tuple<std::__ndk1::unique_ptr<std::__ndk1::__thread_struct, std::__ndk1::default_delete<std::__ndk1::unique_ptr> >, geode::Task<std::__ndk1::vector<float, std::__ndk1::allocator<float> >, std::__ndk1::monostate>::run(std::__ndk1::function<std::__ndk1::monostate(geode::Task<std::__ndk1::vector<float, std::__ndk1::allocator<float> >, std::__ndk1::monostate><void (std::__ndk1::vector<float, std::__ndk1::allocator<float> >)>, geode::Task<std::__ndk1::vector<float, std::__ndk1::allocator<float> >, std::__ndk1::monostate><bool ()>)::Result>&&, std::__ndk1::basic_string_view<char, std::__ndk1::char_traits<char> >)::{lambda()#1}>)
PUBLIC 21548 0 std::__ndk1::unique_ptr<std::__ndk1::__thread_struct, std::__ndk1::default_delete<std::__ndk1::__thread_struct> >::~unique_ptr[abi:ne180000]()
PUBLIC 21584 0 geode::Task<std::__ndk1::vector<float, std::__ndk1::allocator<float> >, std::__ndk1::monostate>::Result::~Result()
PUBLIC 215f8 0 std::__ndk1::__function::__func<geode::Task<std::__ndk1::vector<float, std::__ndk1::allocator<float> >, std::__ndk1::monostate>::run(std::__ndk1::function<geode::Task<std::__ndk1::vector<float, std::__ndk1::allocator<float> >, std::__ndk1::monostate>::Result(std::__ndk1::function<void (std::__ndk1::monostate)>, std::__ndk1::function<bool ()>)>&&, std::__ndk1::basic_string_view<char, std::__ndk1::char_traits<char> >)::{lambda()#1}::operator()() const::{lambda(std::__ndk1::monostate)#1}, std::__ndk1::allocator<geode::Task<std::__ndk1::vector<float, std::__ndk1::allocator<float> >, std::__ndk1::monostate>::run(std::__ndk1::function<geode::Task<std::__ndk1::vector<float, std::__ndk1::allocator<float> >, std::__ndk1::monostate>::Result(std::__ndk1::function<void (std::__ndk1::monostate)>, std::__ndk1::function<bool ()>)>&&, std::__ndk1::basic_string_view<char, std::__ndk1::char_traits<char> >)::{lambda()#1}::operator()() const::{lambda(std::__ndk1::monostate)#1}>, void (std::__ndk1::monostate)>::~__func()
PUBLIC 21618 0 std::__ndk1::__function::__func<geode::Task<std::__ndk1::vector<float, std::__ndk1::allocator<float> >, std::__ndk1::monostate>::run(std::__ndk1::function<geode::Task<std::__ndk1::vector<float, std::__ndk1::allocator<float> >, std::__ndk1::monostate>::Result(std::__ndk1::function<void (std::__ndk1::monostate)>, std::__ndk1::function<bool ()>)>&&, std::__ndk1::basic_string_view<char, std::__ndk1::char_traits<char> >)::{lambda()#1}::operator()() const::{lambda(std::__ndk1::monostate)#1}, std::__ndk1::allocator<geode::Task<std::__ndk1::vector<float, std::__ndk1::allocator<float> >, std::__ndk1::monostate>::run(std::__ndk1::function<geode::Task<std::__ndk1::vector<float, std::__ndk1::allocator<float> >, std::__ndk1::monostate>::Result(std::__ndk1::function<void (std::__ndk1::monostate)>, std::__ndk1::function<bool ()>)>&&, std::__ndk1::basic_string_view<char, std::__ndk1::char_traits<char> >)::{lambda()#1}::operator()() const::{lambda(std::__ndk1::monostate)#1}>, void (std::__ndk1::monostate)>::~__func()
PUBLIC 21654 0 std::__ndk1::__function::__func<geode::Task<std::__ndk1::vector<float, std::__ndk1::allocator<float> >, std::__ndk1::monostate>::run(std::__ndk1::function<geode::Task<std::__ndk1::vector<float, std::__ndk1::allocator<float> >, std::__ndk1::monostate>::Result(std::__ndk1::function<void (std::__ndk1::monostate)>, std::__ndk1::function<bool ()>)>&&, std::__ndk1::basic_string_view<char, std::__ndk1::char_traits<char> >)::{lambda()#1}::operator()() const::{lambda(std::__ndk1::monostate)#1}, std::__ndk1::allocator<geode::Task<std::__ndk1::vector<float, std::__ndk1::allocator<float> >, std::__ndk1::monostate>::run(std::__ndk1::function<geode::Task<std::__ndk1::vector<float, std::__ndk1::allocator<float> >, std::__ndk1::monostate>::Result(std::__ndk1::function<void (std::__ndk1::monostate)>, std::__ndk1::function<bool ()>)>&&, std::__ndk1::basic_string_view<char, std::__ndk1::char_traits<char> >)::{lambda()#1}::operator()() const::{lambda(std::__ndk1::monostate)#1}>, void (std::__ndk1::monostate)>::__clone() const
PUBLIC 216a4 0 std::__ndk1::__function::__func<geode::Task<std::__ndk1::vector<float, std::__ndk1::allocator<float> >, std::__ndk1::monostate>::run(std::__ndk1::function<geode::Task<std::__ndk1::vector<float, std::__ndk1::allocator<float> >, std::__ndk1::monostate>::Result(std::__ndk1::function<void (std::__ndk1::monostate)>, std::__ndk1::function<bool ()>)>&&, std::__ndk1::basic_string_view<char, std::__ndk1::char_traits<char> >)::{lambda()#1}::operator()() const::{lambda(std::__ndk1::monostate)#1}, std::__ndk1::allocator<geode::Task<std::__ndk1::vector<float, std::__ndk1::allocator<float> >, std::__ndk1::monostate>::run(std::__ndk1::function<geode::Task<std::__ndk1::vector<float, std::__ndk1::allocator<float> >, std::__ndk1::monostate>::Result(std::__ndk1::function<void (std::__ndk1::monostate)>, std::__ndk1::function<bool ()>)>&&, std::__ndk1::basic_string_view<char, std::__ndk1::char_traits<char> >)::{lambda()#1}::operator()() const::{lambda(std::__ndk1::monostate)#1}>, void (std::__ndk1::monostate)>::__clone(std::__ndk1::__function::__base<void (std::__ndk1::monostate)>*) const
PUBLIC 216d8 0 std::__ndk1::__function::__func<geode::Task<std::__ndk1::vector<float, std::__ndk1::allocator<float> >, std::__ndk1::monostate>::run(std::__ndk1::function<geode::Task<std::__ndk1::vector<float, std::__ndk1::allocator<float> >, std::__ndk1::monostate>::Result(std::__ndk1::function<void (std::__ndk1::monostate)>, std::__ndk1::function<bool ()>)>&&, std::__ndk1::basic_string_view<char, std::__ndk1::char_traits<char> >)::{lambda()#1}::operator()() const::{lambda(std::__ndk1::monostate)#1}, std::__ndk1::allocator<geode::Task<std::__ndk1::vector<float, std::__ndk1::allocator<float> >, std::__ndk1::monostate>::run(std::__ndk1::function<geode::Task<std::__ndk1::vector<float, std::__ndk1::allocator<float> >, std::__ndk1::monostate>::Result(std::__ndk1::function<void (std::__ndk1::monostate)>, std::__ndk1::function<bool ()>)>&&, std::__ndk1::basic_string_view<char, std::__ndk1::char_traits<char> >)::{lambda()#1}::operator()() const::{lambda(std::__ndk1::monostate)#1}>, void (std::__ndk1::monostate)>::destroy()
PUBLIC 216e8 0 std::__ndk1::__function::__func<geode::Task<std::__ndk1::vector<float, std::__ndk1::allocator<float> >, std::__ndk1::monostate>::run(std::__ndk1::function<geode::Task<std::__ndk1::vector<float, std::__ndk1::allocator<float> >, std::__ndk1::monostate>::Result(std::__ndk1::function<void (std::__ndk1::monostate)>, std::__ndk1::function<bool ()>)>&&, std::__ndk1::basic_string_view<char, std::__ndk1::char_traits<char> >)::{lambda()#1}::operator()() const::{lambda(std::__ndk1::monostate)#1}, std::__ndk1::allocator<geode::Task<std::__ndk1::vector<float, std::__ndk1::allocator<float> >, std::__ndk1::monostate>::run(std::__ndk1::function<geode::Task<std::__ndk1::vector<float, std::__ndk1::allocator<float> >, std::__ndk1::monostate>::Result(std::__ndk1::function<void (std::__ndk1::monostate)>, std::__ndk1::function<bool ()>)>&&, std::__ndk1::basic_string_view<char, std::__ndk1::char_traits<char> >)::{lambda()#1}::operator()() const::{lambda(std::__ndk1::monostate)#1}>, void (std::__ndk1::monostate)>::destroy_deallocate()
PUBLIC 21718 0 std::__ndk1::__function::__func<geode::Task<std::__ndk1::vector<float, std::__ndk1::allocator<float> >, std::__ndk1::monostate>::run(std::__ndk1::function<geode::Task<std::__ndk1::vector<float, std::__ndk1::allocator<float> >, std::__ndk1::monostate>::Result(std::__ndk1::function<void (std::__ndk1::monostate)>, std::__ndk1::function<bool ()>)>&&, std::__ndk1::basic_string_view<char, std::__ndk1::char_traits<char> >)::{lambda()#1}::operator()() const::{lambda(std::__ndk1::monostate)#1}, std::__ndk1::allocator<geode::Task<std::__ndk1::vector<float, std::__ndk1::allocator<float> >, std::__ndk1::monostate>::run(std::__ndk1::function<geode::Task<std::__ndk1::vector<float, std::__ndk1::allocator<float> >, std::__ndk1::monostate>::Result(std::__ndk1::function<void (std::__ndk1::monostate)>, std::__ndk1::function<bool ()>)>&&, std::__ndk1::basic_string_view<char, std::__ndk1::char_traits<char> >)::{lambda()#1}::operator()() const::{lambda(std::__ndk1::monostate)#1}>, void (std::__ndk1::monostate)>::operator()(std::__ndk1::monostate&&)
PUBLIC 2188c 0 std::__ndk1::__function::__func<geode::Task<std::__ndk1::vector<float, std::__ndk1::allocator<float> >, std::__ndk1::monostate>::run(std::__ndk1::function<geode::Task<std::__ndk1::vector<float, std::__ndk1::allocator<float> >, std::__ndk1::monostate>::Result(std::__ndk1::function<void (std::__ndk1::monostate)>, std::__ndk1::function<bool ()>)>&&, std::__ndk1::basic_string_view<char, std::__ndk1::char_traits<char> >)::{lambda()#1}::operator()() const::{lambda(std::__ndk1::monostate)#1}, std::__ndk1::allocator<geode::Task<std::__ndk1::vector<float, std::__ndk1::allocator<float> >, std::__ndk1::monostate>::run(std::__ndk1::function<geode::Task<std::__ndk1::vector<float, std::__ndk1::allocator<float> >, std::__ndk1::monostate>::Result(std::__ndk1::function<void (std::__ndk1::monostate)>, std::__ndk1::function<bool ()>)>&&, std::__ndk1::basic_string_view<char, std::__ndk1::char_traits<char> >)::{lambda()#1}::operator()() const::{lambda(std::__ndk1::monostate)#1}>, void (std::__ndk1::monostate)>::target(std::type_info const&) const
PUBLIC 218a8 0 std::__ndk1::__function::__func<geode::Task<std::__ndk1::vector<float, std::__ndk1::allocator<float> >, std::__ndk1::monostate>::run(std::__ndk1::function<geode::Task<std::__ndk1::vector<float, std::__ndk1::allocator<float> >, std::__ndk1::monostate>::Result(std::__ndk1::function<void (std::__ndk1::monostate)>, std::__ndk1::function<bool ()>)>&&, std::__ndk1::basic_string_view<char, std::__ndk1::char_traits<char> >)::{lambda()#1}::operator()() const::{lambda(std::__ndk1::monostate)#1}, std::__ndk1::allocator<geode::Task<std::__ndk1::vector<float, std::__ndk1::allocator<float> >, std::__ndk1::monostate>::run(std::__ndk1::function<geode::Task<std::__ndk1::vector<float, std::__ndk1::allocator<float> >, std::__ndk1::monostate>::Result(std::__ndk1::function<void (std::__ndk1::monostate)>, std::__ndk1::function<bool ()>)>&&, std::__ndk1::basic_string_view<char, std::__ndk1::char_traits<char> >)::{lambda()#1}::operator()() const::{lambda(std::__ndk1::monostate)#1}>, void (std::__ndk1::monostate)>::target_type() const
PUBLIC 218b4 0 std::__ndk1::__function::__func<geode::Task<std::__ndk1::vector<float, std::__ndk1::allocator<float> >, std::__ndk1::monostate>::progress(std::__ndk1::shared_ptr<geode::Task<std::__ndk1::vector<float, std::__ndk1::allocator<float> >, std::__ndk1::monostate>::Handle>, std::__ndk1::monostate&&)::{lambda()#1}, std::__ndk1::allocator<geode::Task<std::__ndk1::vector<float, std::__ndk1::allocator<float> >, std::__ndk1::monostate>::progress(std::__ndk1::shared_ptr<geode::Task<std::__ndk1::vector<float, std::__ndk1::allocator<float> >, std::__ndk1::monostate>::Handle>, std::__ndk1::monostate&&)::{lambda()#1}>, void ()>::~__func()
PUBLIC 21910 0 std::__ndk1::__function::__func<geode::Task<std::__ndk1::vector<float, std::__ndk1::allocator<float> >, std::__ndk1::monostate>::progress(std::__ndk1::shared_ptr<geode::Task<std::__ndk1::vector<float, std::__ndk1::allocator<float> >, std::__ndk1::monostate>::Handle>, std::__ndk1::monostate&&)::{lambda()#1}, std::__ndk1::allocator<geode::Task<std::__ndk1::vector<float, std::__ndk1::allocator<float> >, std::__ndk1::monostate>::progress(std::__ndk1::shared_ptr<geode::Task<std::__ndk1::vector<float, std::__ndk1::allocator<float> >, std::__ndk1::monostate>::Handle>, std::__ndk1::monostate&&)::{lambda()#1}>, void ()>::~__func()
PUBLIC 2197c 0 std::__ndk1::__function::__func<geode::Task<std::__ndk1::vector<float, std::__ndk1::allocator<float> >, std::__ndk1::monostate>::progress(std::__ndk1::shared_ptr<geode::Task<std::__ndk1::vector<float, std::__ndk1::allocator<float> >, std::__ndk1::monostate>::Handle>, std::__ndk1::monostate&&)::{lambda()#1}, std::__ndk1::allocator<geode::Task<std::__ndk1::vector<float, std::__ndk1::allocator<float> >, std::__ndk1::monostate>::progress(std::__ndk1::shared_ptr<geode::Task<std::__ndk1::vector<float, std::__ndk1::allocator<float> >, std::__ndk1::monostate>::Handle>, std::__ndk1::monostate&&)::{lambda()#1}>, void ()>::__clone() const
PUBLIC 219cc 0 std::__ndk1::__function::__func<geode::Task<std::__ndk1::vector<float, std::__ndk1::allocator<float> >, std::__ndk1::monostate>::progress(std::__ndk1::shared_ptr<geode::Task<std::__ndk1::vector<float, std::__ndk1::allocator<float> >, std::__ndk1::monostate>::Handle>, std::__ndk1::monostate&&)::{lambda()#1}, std::__ndk1::allocator<geode::Task<std::__ndk1::vector<float, std::__ndk1::allocator<float> >, std::__ndk1::monostate>::progress(std::__ndk1::shared_ptr<geode::Task<std::__ndk1::vector<float, std::__ndk1::allocator<float> >, std::__ndk1::monostate>::Handle>, std::__ndk1::monostate&&)::{lambda()#1}>, void ()>::__clone(std::__ndk1::__function::__base<void ()>*) const
PUBLIC 21a00 0 std::__ndk1::__function::__func<geode::Task<std::__ndk1::vector<float, std::__ndk1::allocator<float> >, std::__ndk1::monostate>::progress(std::__ndk1::shared_ptr<geode::Task<std::__ndk1::vector<float, std::__ndk1::allocator<float> >, std::__ndk1::monostate>::Handle>, std::__ndk1::monostate&&)::{lambda()#1}, std::__ndk1::allocator<geode::Task<std::__ndk1::vector<float, std::__ndk1::allocator<float> >, std::__ndk1::monostate>::progress(std::__ndk1::shared_ptr<geode::Task<std::__ndk1::vector<float, std::__ndk1::allocator<float> >, std::__ndk1::monostate>::Handle>, std::__ndk1::monostate&&)::{lambda()#1}>, void ()>::destroy()
PUBLIC 21a50 0 std::__ndk1::__function::__func<geode::Task<std::__ndk1::vector<float, std::__ndk1::allocator<float> >, std::__ndk1::monostate>::progress(std::__ndk1::shared_ptr<geode::Task<std::__ndk1::vector<float, std::__ndk1::allocator<float> >, std::__ndk1::monostate>::Handle>, std::__ndk1::monostate&&)::{lambda()#1}, std::__ndk1::allocator<geode::Task<std::__ndk1::vector<float, std::__ndk1::allocator<float> >, std::__ndk1::monostate>::progress(std::__ndk1::shared_ptr<geode::Task<std::__ndk1::vector<float, std::__ndk1::allocator<float> >, std::__ndk1::monostate>::Handle>, std::__ndk1::monostate&&)::{lambda()#1}>, void ()>::destroy_deallocate()
PUBLIC 21ab0 0 std::__ndk1::__function::__func<geode::Task<std::__ndk1::vector<float, std::__ndk1::allocator<float> >, std::__ndk1::monostate>::progress(std::__ndk1::shared_ptr<geode::Task<std::__ndk1::vector<float, std::__ndk1::allocator<float> >, std::__ndk1::monostate>::Handle>, std::__ndk1::monostate&&)::{lambda()#1}, std::__ndk1::allocator<geode::Task<std::__ndk1::vector<float, std::__ndk1::allocator<float> >, std::__ndk1::monostate>::progress(std::__ndk1::shared_ptr<geode::Task<std::__ndk1::vector<float, std::__ndk1::allocator<float> >, std::__ndk1::monostate>::Handle>, std::__ndk1::monostate&&)::{lambda()#1}>, void ()>::operator()()
PUBLIC 21c64 0 std::__ndk1::__function::__func<geode::Task<std::__ndk1::vector<float, std::__ndk1::allocator<float> >, std::__ndk1::monostate>::progress(std::__ndk1::shared_ptr<geode::Task<std::__ndk1::vector<float, std::__ndk1::allocator<float> >, std::__ndk1::monostate>::Handle>, std::__ndk1::monostate&&)::{lambda()#1}, std::__ndk1::allocator<geode::Task<std::__ndk1::vector<float, std::__ndk1::allocator<float> >, std::__ndk1::monostate>::progress(std::__ndk1::shared_ptr<geode::Task<std::__ndk1::vector<float, std::__ndk1::allocator<float> >, std::__ndk1::monostate>::Handle>, std::__ndk1::monostate&&)::{lambda()#1}>, void ()>::target(std::type_info const&) const
PUBLIC 21c80 0 std::__ndk1::__function::__func<geode::Task<std::__ndk1::vector<float, std::__ndk1::allocator<float> >, std::__ndk1::monostate>::progress(std::__ndk1::shared_ptr<geode::Task<std::__ndk1::vector<float, std::__ndk1::allocator<float> >, std::__ndk1::monostate>::Handle>, std::__ndk1::monostate&&)::{lambda()#1}, std::__ndk1::allocator<geode::Task<std::__ndk1::vector<float, std::__ndk1::allocator<float> >, std::__ndk1::monostate>::progress(std::__ndk1::shared_ptr<geode::Task<std::__ndk1::vector<float, std::__ndk1::allocator<float> >, std::__ndk1::monostate>::Handle>, std::__ndk1::monostate&&)::{lambda()#1}>, void ()>::target_type() const
PUBLIC 21c8c 0 std::__ndk1::__function::__func<geode::Task<std::__ndk1::vector<float, std::__ndk1::allocator<float> >, std::__ndk1::monostate>::run(std::__ndk1::function<geode::Task<std::__ndk1::vector<float, std::__ndk1::allocator<float> >, std::__ndk1::monostate>::Result(std::__ndk1::function<void (std::__ndk1::monostate)>, std::__ndk1::function<bool ()>)>&&, std::__ndk1::basic_string_view<char, std::__ndk1::char_traits<char> >)::{lambda()#1}::operator()() const::{lambda()#1}, std::__ndk1::allocator<geode::Task<std::__ndk1::vector<float, std::__ndk1::allocator<float> >, std::__ndk1::monostate>::run(std::__ndk1::function<geode::Task<std::__ndk1::vector<float, std::__ndk1::allocator<float> >, std::__ndk1::monostate>::Result(std::__ndk1::function<void (std::__ndk1::monostate)>, std::__ndk1::function<bool ()>)>&&, std::__ndk1::basic_string_view<char, std::__ndk1::char_traits<char> >)::{lambda()#1}::operator()() const::{lambda()#1}>, bool ()>::~__func()
PUBLIC 21cac 0 std::__ndk1::__function::__func<geode::Task<std::__ndk1::vector<float, std::__ndk1::allocator<float> >, std::__ndk1::monostate>::run(std::__ndk1::function<geode::Task<std::__ndk1::vector<float, std::__ndk1::allocator<float> >, std::__ndk1::monostate>::Result(std::__ndk1::function<void (std::__ndk1::monostate)>, std::__ndk1::function<bool ()>)>&&, std::__ndk1::basic_string_view<char, std::__ndk1::char_traits<char> >)::{lambda()#1}::operator()() const::{lambda()#1}, std::__ndk1::allocator<geode::Task<std::__ndk1::vector<float, std::__ndk1::allocator<float> >, std::__ndk1::monostate>::run(std::__ndk1::function<geode::Task<std::__ndk1::vector<float, std::__ndk1::allocator<float> >, std::__ndk1::monostate>::Result(std::__ndk1::function<void (std::__ndk1::monostate)>, std::__ndk1::function<bool ()>)>&&, std::__ndk1::basic_string_view<char, std::__ndk1::char_traits<char> >)::{lambda()#1}::operator()() const::{lambda()#1}>, bool ()>::~__func()
PUBLIC 21ce8 0 std::__ndk1::__function::__func<geode::Task<std::__ndk1::vector<float, std::__ndk1::allocator<float> >, std::__ndk1::monostate>::run(std::__ndk1::function<geode::Task<std::__ndk1::vector<float, std::__ndk1::allocator<float> >, std::__ndk1::monostate>::Result(std::__ndk1::function<void (std::__ndk1::monostate)>, std::__ndk1::function<bool ()>)>&&, std::__ndk1::basic_string_view<char, std::__ndk1::char_traits<char> >)::{lambda()#1}::operator()() const::{lambda()#1}, std::__ndk1::allocator<geode::Task<std::__ndk1::vector<float, std::__ndk1::allocator<float> >, std::__ndk1::monostate>::run(std::__ndk1::function<geode::Task<std::__ndk1::vector<float, std::__ndk1::allocator<float> >, std::__ndk1::monostate>::Result(std::__ndk1::function<void (std::__ndk1::monostate)>, std::__ndk1::function<bool ()>)>&&, std::__ndk1::basic_string_view<char, std::__ndk1::char_traits<char> >)::{lambda()#1}::operator()() const::{lambda()#1}>, bool ()>::__clone() const
PUBLIC 21d38 0 std::__ndk1::__function::__func<geode::Task<std::__ndk1::vector<float, std::__ndk1::allocator<float> >, std::__ndk1::monostate>::run(std::__ndk1::function<geode::Task<std::__ndk1::vector<float, std::__ndk1::allocator<float> >, std::__ndk1::monostate>::Result(std::__ndk1::function<void (std::__ndk1::monostate)>, std::__ndk1::function<bool ()>)>&&, std::__ndk1::basic_string_view<char, std::__ndk1::char_traits<char> >)::{lambda()#1}::operator()() const::{lambda()#1}, std::__ndk1::allocator<geode::Task<std::__ndk1::vector<float, std::__ndk1::allocator<float> >, std::__ndk1::monostate>::run(std::__ndk1::function<geode::Task<std::__ndk1::vector<float, std::__ndk1::allocator<float> >, std::__ndk1::monostate>::Result(std::__ndk1::function<void (std::__ndk1::monostate)>, std::__ndk1::function<bool ()>)>&&, std::__ndk1::basic_string_view<char, std::__ndk1::char_traits<char> >)::{lambda()#1}::operator()() const::{lambda()#1}>, bool ()>::__clone(std::__ndk1::__function::__base<bool ()>*) const
PUBLIC 21d6c 0 std::__ndk1::__function::__func<geode::Task<std::__ndk1::vector<float, std::__ndk1::allocator<float> >, std::__ndk1::monostate>::run(std::__ndk1::function<geode::Task<std::__ndk1::vector<float, std::__ndk1::allocator<float> >, std::__ndk1::monostate>::Result(std::__ndk1::function<void (std::__ndk1::monostate)>, std::__ndk1::function<bool ()>)>&&, std::__ndk1::basic_string_view<char, std::__ndk1::char_traits<char> >)::{lambda()#1}::operator()() const::{lambda()#1}, std::__ndk1::allocator<geode::Task<std::__ndk1::vector<float, std::__ndk1::allocator<float> >, std::__ndk1::monostate>::run(std::__ndk1::function<geode::Task<std::__ndk1::vector<float, std::__ndk1::allocator<float> >, std::__ndk1::monostate>::Result(std::__ndk1::function<void (std::__ndk1::monostate)>, std::__ndk1::function<bool ()>)>&&, std::__ndk1::basic_string_view<char, std::__ndk1::char_traits<char> >)::{lambda()#1}::operator()() const::{lambda()#1}>, bool ()>::destroy()
PUBLIC 21d7c 0 std::__ndk1::__function::__func<geode::Task<std::__ndk1::vector<float, std::__ndk1::allocator<float> >, std::__ndk1::monostate>::run(std::__ndk1::function<geode::Task<std::__ndk1::vector<float, std::__ndk1::allocator<float> >, std::__ndk1::monostate>::Result(std::__ndk1::function<void (std::__ndk1::monostate)>, std::__ndk1::function<bool ()>)>&&, std::__ndk1::basic_string_view<char, std::__ndk1::char_traits<char> >)::{lambda()#1}::operator()() const::{lambda()#1}, std::__ndk1::allocator<geode::Task<std::__ndk1::vector<float, std::__ndk1::allocator<float> >, std::__ndk1::monostate>::run(std::__ndk1::function<geode::Task<std::__ndk1::vector<float, std::__ndk1::allocator<float> >, std::__ndk1::monostate>::Result(std::__ndk1::function<void (std::__ndk1::monostate)>, std::__ndk1::function<bool ()>)>&&, std::__ndk1::basic_string_view<char, std::__ndk1::char_traits<char> >)::{lambda()#1}::operator()() const::{lambda()#1}>, bool ()>::destroy_deallocate()
PUBLIC 21dac 0 std::__ndk1::__function::__func<geode::Task<std::__ndk1::vector<float, std::__ndk1::allocator<float> >, std::__ndk1::monostate>::run(std::__ndk1::function<geode::Task<std::__ndk1::vector<float, std::__ndk1::allocator<float> >, std::__ndk1::monostate>::Result(std::__ndk1::function<void (std::__ndk1::monostate)>, std::__ndk1::function<bool ()>)>&&, std::__ndk1::basic_string_view<char, std::__ndk1::char_traits<char> >)::{lambda()#1}::operator()() const::{lambda()#1}, std::__ndk1::allocator<geode::Task<std::__ndk1::vector<float, std::__ndk1::allocator<float> >, std::__ndk1::monostate>::run(std::__ndk1::function<geode::Task<std::__ndk1::vector<float, std::__ndk1::allocator<float> >, std::__ndk1::monostate>::Result(std::__ndk1::function<void (std::__ndk1::monostate)>, std::__ndk1::function<bool ()>)>&&, std::__ndk1::basic_string_view<char, std::__ndk1::char_traits<char> >)::{lambda()#1}::operator()() const::{lambda()#1}>, bool ()>::operator()()
PUBLIC 21ea8 0 std::__ndk1::__function::__func<geode::Task<std::__ndk1::vector<float, std::__ndk1::allocator<float> >, std::__ndk1::monostate>::run(std::__ndk1::function<geode::Task<std::__ndk1::vector<float, std::__ndk1::allocator<float> >, std::__ndk1::monostate>::Result(std::__ndk1::function<void (std::__ndk1::monostate)>, std::__ndk1::function<bool ()>)>&&, std::__ndk1::basic_string_view<char, std::__ndk1::char_traits<char> >)::{lambda()#1}::operator()() const::{lambda()#1}, std::__ndk1::allocator<geode::Task<std::__ndk1::vector<float, std::__ndk1::allocator<float> >, std::__ndk1::monostate>::run(std::__ndk1::function<geode::Task<std::__ndk1::vector<float, std::__ndk1::allocator<float> >, std::__ndk1::monostate>::Result(std::__ndk1::function<void (std::__ndk1::monostate)>, std::__ndk1::function<bool ()>)>&&, std::__ndk1::basic_string_view<char, std::__ndk1::char_traits<char> >)::{lambda()#1}::operator()() const::{lambda()#1}>, bool ()>::target(std::type_info const&) const
PUBLIC 21ec4 0 std::__ndk1::__function::__func<geode::Task<std::__ndk1::vector<float, std::__ndk1::allocator<float> >, std::__ndk1::monostate>::run(std::__ndk1::function<geode::Task<std::__ndk1::vector<float, std::__ndk1::allocator<float> >, std::__ndk1::monostate>::Result(std::__ndk1::function<void (std::__ndk1::monostate)>, std::__ndk1::function<bool ()>)>&&, std::__ndk1::basic_string_view<char, std::__ndk1::char_traits<char> >)::{lambda()#1}::operator()() const::{lambda()#1}, std::__ndk1::allocator<geode::Task<std::__ndk1::vector<float, std::__ndk1::allocator<float> >, std::__ndk1::monostate>::run(std::__ndk1::function<geode::Task<std::__ndk1::vector<float, std::__ndk1::allocator<float> >, std::__ndk1::monostate>::Result(std::__ndk1::function<void (std::__ndk1::monostate)>, std::__ndk1::function<bool ()>)>&&, std::__ndk1::basic_string_view<char, std::__ndk1::char_traits<char> >)::{lambda()#1}::operator()() const::{lambda()#1}>, bool ()>::target_type() const
PUBLIC 21ed0 0 std::__ndk1::__function::__func<geode::Task<std::__ndk1::vector<float, std::__ndk1::allocator<float> >, std::__ndk1::monostate>::cancel(std::__ndk1::shared_ptr<geode::Task<std::__ndk1::vector<float, std::__ndk1::allocator<float> >, std::__ndk1::monostate>::Handle>, bool)::{lambda()#1}, std::__ndk1::allocator<geode::Task<std::__ndk1::vector<float, std::__ndk1::allocator<float> >, std::__ndk1::monostate>::cancel(std::__ndk1::shared_ptr<geode::Task<std::__ndk1::vector<float, std::__ndk1::allocator<float> >, std::__ndk1::monostate>::Handle>, bool)::{lambda()#1}>, void ()>::~__func()
PUBLIC 21f2c 0 std::__ndk1::__function::__func<geode::Task<std::__ndk1::vector<float, std::__ndk1::allocator<float> >, std::__ndk1::monostate>::cancel(std::__ndk1::shared_ptr<geode::Task<std::__ndk1::vector<float, std::__ndk1::allocator<float> >, std::__ndk1::monostate>::Handle>, bool)::{lambda()#1}, std::__ndk1::allocator<geode::Task<std::__ndk1::vector<float, std::__ndk1::allocator<float> >, std::__ndk1::monostate>::cancel(std::__ndk1::shared_ptr<geode::Task<std::__ndk1::vector<float, std::__ndk1::allocator<float> >, std::__ndk1::monostate>::Handle>, bool)::{lambda()#1}>, void ()>::~__func()
PUBLIC 21f98 0 std::__ndk1::__function::__func<geode::Task<std::__ndk1::vector<float, std::__ndk1::allocator<float> >, std::__ndk1::monostate>::cancel(std::__ndk1::shared_ptr<geode::Task<std::__ndk1::vector<float, std::__ndk1::allocator<float> >, std::__ndk1::monostate>::Handle>, bool)::{lambda()#1}, std::__ndk1::allocator<geode::Task<std::__ndk1::vector<float, std::__ndk1::allocator<float> >, std::__ndk1::monostate>::cancel(std::__ndk1::shared_ptr<geode::Task<std::__ndk1::vector<float, std::__ndk1::allocator<float> >, std::__ndk1::monostate>::Handle>, bool)::{lambda()#1}>, void ()>::__clone() const
PUBLIC 21fe8 0 std::__ndk1::__function::__func<geode::Task<std::__ndk1::vector<float, std::__ndk1::allocator<float> >, std::__ndk1::monostate>::cancel(std::__ndk1::shared_ptr<geode::Task<std::__ndk1::vector<float, std::__ndk1::allocator<float> >, std::__ndk1::monostate>::Handle>, bool)::{lambda()#1}, std::__ndk1::allocator<geode::Task<std::__ndk1::vector<float, std::__ndk1::allocator<float> >, std::__ndk1::monostate>::cancel(std::__ndk1::shared_ptr<geode::Task<std::__ndk1::vector<float, std::__ndk1::allocator<float> >, std::__ndk1::monostate>::Handle>, bool)::{lambda()#1}>, void ()>::__clone(std::__ndk1::__function::__base<void ()>*) const
PUBLIC 2201c 0 std::__ndk1::__function::__func<geode::Task<std::__ndk1::vector<float, std::__ndk1::allocator<float> >, std::__ndk1::monostate>::cancel(std::__ndk1::shared_ptr<geode::Task<std::__ndk1::vector<float, std::__ndk1::allocator<float> >, std::__ndk1::monostate>::Handle>, bool)::{lambda()#1}, std::__ndk1::allocator<geode::Task<std::__ndk1::vector<float, std::__ndk1::allocator<float> >, std::__ndk1::monostate>::cancel(std::__ndk1::shared_ptr<geode::Task<std::__ndk1::vector<float, std::__ndk1::allocator<float> >, std::__ndk1::monostate>::Handle>, bool)::{lambda()#1}>, void ()>::destroy()
PUBLIC 2206c 0 std::__ndk1::__function::__func<geode::Task<std::__ndk1::vector<float, std::__ndk1::allocator<float> >, std::__ndk1::monostate>::cancel(std::__ndk1::shared_ptr<geode::Task<std::__ndk1::vector<float, std::__ndk1::allocator<float> >, std::__ndk1::monostate>::Handle>, bool)::{lambda()#1}, std::__ndk1::allocator<geode::Task<std::__ndk1::vector<float, std::__ndk1::allocator<float> >, std::__ndk1::monostate>::cancel(std::__ndk1::shared_ptr<geode::Task<std::__ndk1::vector<float, std::__ndk1::allocator<float> >, std::__ndk1::monostate>::Handle>, bool)::{lambda()#1}>, void ()>::destroy_deallocate()
PUBLIC 220cc 0 std::__ndk1::__function::__func<geode::Task<std::__ndk1::vector<float, std::__ndk1::allocator<float> >, std::__ndk1::monostate>::cancel(std::__ndk1::shared_ptr<geode::Task<std::__ndk1::vector<float, std::__ndk1::allocator<float> >, std::__ndk1::monostate>::Handle>, bool)::{lambda()#1}, std::__ndk1::allocator<geode::Task<std::__ndk1::vector<float, std::__ndk1::allocator<float> >, std::__ndk1::monostate>::cancel(std::__ndk1::shared_ptr<geode::Task<std::__ndk1::vector<float, std::__ndk1::allocator<float> >, std::__ndk1::monostate>::Handle>, bool)::{lambda()#1}>, void ()>::operator()()
PUBLIC 22288 0 std::__ndk1::__function::__func<geode::Task<std::__ndk1::vector<float, std::__ndk1::allocator<float> >, std::__ndk1::monostate>::cancel(std::__ndk1::shared_ptr<geode::Task<std::__ndk1::vector<float, std::__ndk1::allocator<float> >, std::__ndk1::monostate>::Handle>, bool)::{lambda()#1}, std::__ndk1::allocator<geode::Task<std::__ndk1::vector<float, std::__ndk1::allocator<float> >, std::__ndk1::monostate>::cancel(std::__ndk1::shared_ptr<geode::Task<std::__ndk1::vector<float, std::__ndk1::allocator<float> >, std::__ndk1::monostate>::Handle>, bool)::{lambda()#1}>, void ()>::target(std::type_info const&) const
PUBLIC 222a4 0 std::__ndk1::__function::__func<geode::Task<std::__ndk1::vector<float, std::__ndk1::allocator<float> >, std::__ndk1::monostate>::cancel(std::__ndk1::shared_ptr<geode::Task<std::__ndk1::vector<float, std::__ndk1::allocator<float> >, std::__ndk1::monostate>::Handle>, bool)::{lambda()#1}, std::__ndk1::allocator<geode::Task<std::__ndk1::vector<float, std::__ndk1::allocator<float> >, std::__ndk1::monostate>::cancel(std::__ndk1::shared_ptr<geode::Task<std::__ndk1::vector<float, std::__ndk1::allocator<float> >, std::__ndk1::monostate>::Handle>, bool)::{lambda()#1}>, void ()>::target_type() const
PUBLIC 222b0 0 std::__ndk1::__function::__func<geode::Task<std::__ndk1::vector<float, std::__ndk1::allocator<float> >, std::__ndk1::monostate>::finish(std::__ndk1::shared_ptr<geode::Task<std::__ndk1::vector<float, std::__ndk1::allocator<float> >, std::__ndk1::monostate>::Handle>, std::__ndk1::vector<float, std::__ndk1::allocator<float> >&&)::{lambda()#1}, std::__ndk1::allocator<geode::Task<std::__ndk1::vector<float, std::__ndk1::allocator<float> >, std::__ndk1::monostate>::finish(std::__ndk1::shared_ptr<geode::Task<std::__ndk1::vector<float, std::__ndk1::allocator<float> >, std::__ndk1::monostate>::Handle>, std::__ndk1::vector<float, std::__ndk1::allocator<float> >&&)::{lambda()#1}>, void ()>::~__func()
PUBLIC 2230c 0 std::__ndk1::__function::__func<geode::Task<std::__ndk1::vector<float, std::__ndk1::allocator<float> >, std::__ndk1::monostate>::finish(std::__ndk1::shared_ptr<geode::Task<std::__ndk1::vector<float, std::__ndk1::allocator<float> >, std::__ndk1::monostate>::Handle>, std::__ndk1::vector<float, std::__ndk1::allocator<float> >&&)::{lambda()#1}, std::__ndk1::allocator<geode::Task<std::__ndk1::vector<float, std::__ndk1::allocator<float> >, std::__ndk1::monostate>::finish(std::__ndk1::shared_ptr<geode::Task<std::__ndk1::vector<float, std::__ndk1::allocator<float> >, std::__ndk1::monostate>::Handle>, std::__ndk1::vector<float, std::__ndk1::allocator<float> >&&)::{lambda()#1}>, void ()>::~__func()
PUBLIC 22378 0 std::__ndk1::__function::__func<geode::Task<std::__ndk1::vector<float, std::__ndk1::allocator<float> >, std::__ndk1::monostate>::finish(std::__ndk1::shared_ptr<geode::Task<std::__ndk1::vector<float, std::__ndk1::allocator<float> >, std::__ndk1::monostate>::Handle>, std::__ndk1::vector<float, std::__ndk1::allocator<float> >&&)::{lambda()#1}, std::__ndk1::allocator<geode::Task<std::__ndk1::vector<float, std::__ndk1::allocator<float> >, std::__ndk1::monostate>::finish(std::__ndk1::shared_ptr<geode::Task<std::__ndk1::vector<float, std::__ndk1::allocator<float> >, std::__ndk1::monostate>::Handle>, std::__ndk1::vector<float, std::__ndk1::allocator<float> >&&)::{lambda()#1}>, void ()>::__clone() const
PUBLIC 223d0 0 std::__ndk1::__function::__func<geode::Task<std::__ndk1::vector<float, std::__ndk1::allocator<float> >, std::__ndk1::monostate>::finish(std::__ndk1::shared_ptr<geode::Task<std::__ndk1::vector<float, std::__ndk1::allocator<float> >, std::__ndk1::monostate>::Handle>, std::__ndk1::vector<float, std::__ndk1::allocator<float> >&&)::{lambda()#1}, std::__ndk1::allocator<geode::Task<std::__ndk1::vector<float, std::__ndk1::allocator<float> >, std::__ndk1::monostate>::finish(std::__ndk1::shared_ptr<geode::Task<std::__ndk1::vector<float, std::__ndk1::allocator<float> >, std::__ndk1::monostate>::Handle>, std::__ndk1::vector<float, std::__ndk1::allocator<float> >&&)::{lambda()#1}>, void ()>::__clone(std::__ndk1::__function::__base<void ()>*) const
PUBLIC 2241c 0 std::__ndk1::__function::__func<geode::Task<std::__ndk1::vector<float, std::__ndk1::allocator<float> >, std::__ndk1::monostate>::finish(std::__ndk1::shared_ptr<geode::Task<std::__ndk1::vector<float, std::__ndk1::allocator<float> >, std::__ndk1::monostate>::Handle>, std::__ndk1::vector<float, std::__ndk1::allocator<float> >&&)::{lambda()#1}, std::__ndk1::allocator<geode::Task<std::__ndk1::vector<float, std::__ndk1::allocator<float> >, std::__ndk1::monostate>::finish(std::__ndk1::shared_ptr<geode::Task<std::__ndk1::vector<float, std::__ndk1::allocator<float> >, std::__ndk1::monostate>::Handle>, std::__ndk1::vector<float, std::__ndk1::allocator<float> >&&)::{lambda()#1}>, void ()>::destroy()
PUBLIC 2246c 0 std::__ndk1::__function::__func<geode::Task<std::__ndk1::vector<float, std::__ndk1::allocator<float> >, std::__ndk1::monostate>::finish(std::__ndk1::shared_ptr<geode::Task<std::__ndk1::vector<float, std::__ndk1::allocator<float> >, std::__ndk1::monostate>::Handle>, std::__ndk1::vector<float, std::__ndk1::allocator<float> >&&)::{lambda()#1}, std::__ndk1::allocator<geode::Task<std::__ndk1::vector<float, std::__ndk1::allocator<float> >, std::__ndk1::monostate>::finish(std::__ndk1::shared_ptr<geode::Task<std::__ndk1::vector<float, std::__ndk1::allocator<float> >, std::__ndk1::monostate>::Handle>, std::__ndk1::vector<float, std::__ndk1::allocator<float> >&&)::{lambda()#1}>, void ()>::destroy_deallocate()
PUBLIC 224cc 0 std::__ndk1::__function::__func<geode::Task<std::__ndk1::vector<float, std::__ndk1::allocator<float> >, std::__ndk1::monostate>::finish(std::__ndk1::shared_ptr<geode::Task<std::__ndk1::vector<float, std::__ndk1::allocator<float> >, std::__ndk1::monostate>::Handle>, std::__ndk1::vector<float, std::__ndk1::allocator<float> >&&)::{lambda()#1}, std::__ndk1::allocator<geode::Task<std::__ndk1::vector<float, std::__ndk1::allocator<float> >, std::__ndk1::monostate>::finish(std::__ndk1::shared_ptr<geode::Task<std::__ndk1::vector<float, std::__ndk1::allocator<float> >, std::__ndk1::monostate>::Handle>, std::__ndk1::vector<float, std::__ndk1::allocator<float> >&&)::{lambda()#1}>, void ()>::operator()()
PUBLIC 22698 0 std::__ndk1::__function::__func<geode::Task<std::__ndk1::vector<float, std::__ndk1::allocator<float> >, std::__ndk1::monostate>::finish(std::__ndk1::shared_ptr<geode::Task<std::__ndk1::vector<float, std::__ndk1::allocator<float> >, std::__ndk1::monostate>::Handle>, std::__ndk1::vector<float, std::__ndk1::allocator<float> >&&)::{lambda()#1}, std::__ndk1::allocator<geode::Task<std::__ndk1::vector<float, std::__ndk1::allocator<float> >, std::__ndk1::monostate>::finish(std::__ndk1::shared_ptr<geode::Task<std::__ndk1::vector<float, std::__ndk1::allocator<float> >, std::__ndk1::monostate>::Handle>, std::__ndk1::vector<float, std::__ndk1::allocator<float> >&&)::{lambda()#1}>, void ()>::target(std::type_info const&) const
PUBLIC 226b4 0 std::__ndk1::__function::__func<geode::Task<std::__ndk1::vector<float, std::__ndk1::allocator<float> >, std::__ndk1::monostate>::finish(std::__ndk1::shared_ptr<geode::Task<std::__ndk1::vector<float, std::__ndk1::allocator<float> >, std::__ndk1::monostate>::Handle>, std::__ndk1::vector<float, std::__ndk1::allocator<float> >&&)::{lambda()#1}, std::__ndk1::allocator<geode::Task<std::__ndk1::vector<float, std::__ndk1::allocator<float> >, std::__ndk1::monostate>::finish(std::__ndk1::shared_ptr<geode::Task<std::__ndk1::vector<float, std::__ndk1::allocator<float> >, std::__ndk1::monostate>::Handle>, std::__ndk1::vector<float, std::__ndk1::allocator<float> >&&)::{lambda()#1}>, void ()>::target_type() const
PUBLIC 226c0 0 std::__ndk1::__variant_detail::__visitation::__base::__dispatcher<(unsigned long)0>::__dispatch[abi:ne180000]<std::__ndk1::__variant_detail::__dtor<std::__ndk1::__variant_detail::__traits<std::__ndk1::vector<float, std::__ndk1::allocator<float> >, geode::Task<std::__ndk1::allocator<float>, std::__ndk1::monostate>::Cancel>, (std::__ndk1::__variant_detail::_Trait)1>::__destroy[abi:ne180000]()::{lambda(auto:1&)#1}, std::__ndk1::__variant_detail::__base<(std::__ndk1::__variant_detail::__traits<std::__ndk1::vector<float, std::__ndk1::allocator<float> >, geode::Task<std::__ndk1::allocator<float>, std::__ndk1::monostate>::Cancel>)1, std::__ndk1::allocator<float>, geode::Task<std::__ndk1::allocator<float>, std::__ndk1::monostate> >&>(std::__ndk1::__variant_detail::__dtor<std::__ndk1::__variant_detail::__traits<std::__ndk1::vector<float, std::__ndk1::allocator<float> >, geode::Task<std::__ndk1::allocator<float>, std::__ndk1::monostate>::Cancel>, (std::__ndk1::__variant_detail::_Trait)1>, std::__ndk1::__variant_detail::__base<(std::__ndk1::__variant_detail::__traits<std::__ndk1::vector<float, std::__ndk1::allocator<float> >, geode::Task<std::__ndk1::allocator<float>, std::__ndk1::monostate>::Cancel>)1, std::__ndk1::allocator<float>, geode::Task<std::__ndk1::allocator<float>, std::__ndk1::monostate> >&)
PUBLIC 226d4 0 std::__ndk1::__variant_detail::__visitation::__base::__dispatcher<(unsigned long)1>::__dispatch[abi:ne180000]<std::__ndk1::__variant_detail::__dtor<std::__ndk1::__variant_detail::__traits<std::__ndk1::vector<float, std::__ndk1::allocator<float> >, geode::Task<std::__ndk1::allocator<float>, std::__ndk1::monostate>::Cancel>, (std::__ndk1::__variant_detail::_Trait)1>::__destroy[abi:ne180000]()::{lambda(auto:1&)#1}, std::__ndk1::__variant_detail::__base<(std::__ndk1::__variant_detail::__traits<std::__ndk1::vector<float, std::__ndk1::allocator<float> >, geode::Task<std::__ndk1::allocator<float>, std::__ndk1::monostate>::Cancel>)1, std::__ndk1::allocator<float>, geode::Task<std::__ndk1::allocator<float>, std::__ndk1::monostate> >&>(std::__ndk1::__variant_detail::__dtor<std::__ndk1::__variant_detail::__traits<std::__ndk1::vector<float, std::__ndk1::allocator<float> >, geode::Task<std::__ndk1::allocator<float>, std::__ndk1::monostate>::Cancel>, (std::__ndk1::__variant_detail::_Trait)1>, std::__ndk1::__variant_detail::__base<(std::__ndk1::__variant_detail::__traits<std::__ndk1::vector<float, std::__ndk1::allocator<float> >, geode::Task<std::__ndk1::allocator<float>, std::__ndk1::monostate>::Cancel>)1, std::__ndk1::allocator<float>, geode::Task<std::__ndk1::allocator<float>, std::__ndk1::monostate> >&)
PUBLIC 226d8 0 std::__ndk1::unique_ptr<std::__ndk1::tuple<std::__ndk1::unique_ptr<std::__ndk1::__thread_struct, std::__ndk1::default_delete<std::__ndk1::__thread_struct> >, geode::Task<std::__ndk1::vector<float, std::__ndk1::allocator<float> >, std::__ndk1::monostate>::run(std::__ndk1::function<geode::Task<std::__ndk1::vector<float, std::__ndk1::allocator<float> >, std::__ndk1::monostate>::Result(std::__ndk1::function<void (std::__ndk1::monostate)>, std::__ndk1::function<bool ()>)>&&, std::__ndk1::basic_string_view<char, std::__ndk1::char_traits<char> >)::{lambda()#1}>, std::__ndk1::default_delete<std::__ndk1::tuple<std::__ndk1::unique_ptr<std::__ndk1::__thread_struct, std::__ndk1::default_delete<std::__ndk1::__thread_struct> >, geode::Task<std::__ndk1::vector<float, std::__ndk1::allocator<float> >, std::__ndk1::monostate>::run(std::__ndk1::function<geode::Task<std::__ndk1::vector<float, std::__ndk1::allocator<float> >, std::__ndk1::monostate>::Result(std::__ndk1::function<void (std::__ndk1::monostate)>, std::__ndk1::function<bool ()>)>&&, std::__ndk1::basic_string_view<char, std::__ndk1::char_traits<char> >)::{lambda()#1}> > >::reset[abi:ne180000](std::__ndk1::tuple<std::__ndk1::unique_ptr<std::__ndk1::__thread_struct, std::__ndk1::default_delete<std::__ndk1::__thread_struct> >, geode::Task<std::__ndk1::vector<float, std::__ndk1::allocator<float> >, std::__ndk1::monostate>::run(std::__ndk1::function<geode::Task<std::__ndk1::vector<float, std::__ndk1::allocator<float> >, std::__ndk1::monostate>::Result(std::__ndk1::function<void (std::__ndk1::monostate)>, std::__ndk1::function<bool ()>)>&&, std::__ndk1::basic_string_view<char, std::__ndk1::char_traits<char> >)::{lambda()#1}>*)
PUBLIC 22774 0 std::__ndk1::__function::__base<geode::Task<std::__ndk1::vector<float, std::__ndk1::allocator<float> >, std::__ndk1::monostate>::Result(std::__ndk1::function<void (std::__ndk1::monostate)>, std::__ndk1::function<bool ()>)>::~__base()
PUBLIC 22778 0 std::__ndk1::__function::__func<SampleInfo::fromFile(std::__ndk1::basic_string_view<char, std::__ndk1::char_traits<char> >, int)::{lambda(auto:1, auto:2)#1}, std::__ndk1::allocator<SampleInfo::fromFile(std::__ndk1::basic_string_view<char, std::__ndk1::char_traits<char> >, int)::{lambda(auto:1, auto:2)#1}>, geode::Task<std::__ndk1::vector<float, std::__ndk1::allocator<float> >, std::__ndk1::monostate>::Result(std::__ndk1::function<void (std::__ndk1::monostate)>, std::__ndk1::function<bool ()>)>::~__func()
PUBLIC 2277c 0 std::__ndk1::__function::__func<SampleInfo::fromFile(std::__ndk1::basic_string_view<char, std::__ndk1::char_traits<char> >, int)::{lambda(auto:1, auto:2)#1}, std::__ndk1::allocator<SampleInfo::fromFile(std::__ndk1::basic_string_view<char, std::__ndk1::char_traits<char> >, int)::{lambda(auto:1, auto:2)#1}>, geode::Task<std::__ndk1::vector<float, std::__ndk1::allocator<float> >, std::__ndk1::monostate>::Result(std::__ndk1::function<void (std::__ndk1::monostate)>, std::__ndk1::function<bool ()>)>::__clone() const
PUBLIC 227b4 0 std::__ndk1::__function::__func<SampleInfo::fromFile(std::__ndk1::basic_string_view<char, std::__ndk1::char_traits<char> >, int)::{lambda(auto:1, auto:2)#1}, std::__ndk1::allocator<SampleInfo::fromFile(std::__ndk1::basic_string_view<char, std::__ndk1::char_traits<char> >, int)::{lambda(auto:1, auto:2)#1}>, geode::Task<std::__ndk1::vector<float, std::__ndk1::allocator<float> >, std::__ndk1::monostate>::Result(std::__ndk1::function<void (std::__ndk1::monostate)>, std::__ndk1::function<bool ()>)>::__clone(std::__ndk1::__function::__base<geode::Task<std::__ndk1::vector<float, std::__ndk1::allocator<float> >, std::__ndk1::monostate>::Result(std::__ndk1::function<void (std::__ndk1::monostate)>, std::__ndk1::function<bool ()>)>*) const
PUBLIC 227cc 0 std::__ndk1::__function::__func<SampleInfo::fromFile(std::__ndk1::basic_string_view<char, std::__ndk1::char_traits<char> >, int)::{lambda(auto:1, auto:2)#1}, std::__ndk1::allocator<SampleInfo::fromFile(std::__ndk1::basic_string_view<char, std::__ndk1::char_traits<char> >, int)::{lambda(auto:1, auto:2)#1}>, geode::Task<std::__ndk1::vector<float, std::__ndk1::allocator<float> >, std::__ndk1::monostate>::Result(std::__ndk1::function<void (std::__ndk1::monostate)>, std::__ndk1::function<bool ()>)>::destroy()
PUBLIC 227d0 0 std::__ndk1::__function::__func<SampleInfo::fromFile(std::__ndk1::basic_string_view<char, std::__ndk1::char_traits<char> >, int)::{lambda(auto:1, auto:2)#1}, std::__ndk1::allocator<SampleInfo::fromFile(std::__ndk1::basic_string_view<char, std::__ndk1::char_traits<char> >, int)::{lambda(auto:1, auto:2)#1}>, geode::Task<std::__ndk1::vector<float, std::__ndk1::allocator<float> >, std::__ndk1::monostate>::Result(std::__ndk1::function<void (std::__ndk1::monostate)>, std::__ndk1::function<bool ()>)>::destroy_deallocate()
PUBLIC 227d4 0 std::__ndk1::__function::__func<SampleInfo::fromFile(std::__ndk1::basic_string_view<char, std::__ndk1::char_traits<char> >, int)::{lambda(auto:1, auto:2)#1}, std::__ndk1::allocator<SampleInfo::fromFile(std::__ndk1::basic_string_view<char, std::__ndk1::char_traits<char> >, int)::{lambda(auto:1, auto:2)#1}>, geode::Task<std::__ndk1::vector<float, std::__ndk1::allocator<float> >, std::__ndk1::monostate>::Result(std::__ndk1::function<void (std::__ndk1::monostate)>, std::__ndk1::function<bool ()>)>::operator()(std::__ndk1::function<void (std::__ndk1::monostate)>&&, std::__ndk1::function<bool ()>&&)
PUBLIC 23014 0 std::__ndk1::__function::__func<SampleInfo::fromFile(std::__ndk1::basic_string_view<char, std::__ndk1::char_traits<char> >, int)::{lambda(auto:1, auto:2)#1}, std::__ndk1::allocator<SampleInfo::fromFile(std::__ndk1::basic_string_view<char, std::__ndk1::char_traits<char> >, int)::{lambda(auto:1, auto:2)#1}>, geode::Task<std::__ndk1::vector<float, std::__ndk1::allocator<float> >, std::__ndk1::monostate>::Result(std::__ndk1::function<void (std::__ndk1::monostate)>, std::__ndk1::function<bool ()>)>::target(std::type_info const&) const
PUBLIC 23030 0 std::__ndk1::__function::__func<SampleInfo::fromFile(std::__ndk1::basic_string_view<char, std::__ndk1::char_traits<char> >, int)::{lambda(auto:1, auto:2)#1}, std::__ndk1::allocator<SampleInfo::fromFile(std::__ndk1::basic_string_view<char, std::__ndk1::char_traits<char> >, int)::{lambda(auto:1, auto:2)#1}>, geode::Task<std::__ndk1::vector<float, std::__ndk1::allocator<float> >, std::__ndk1::monostate>::Result(std::__ndk1::function<void (std::__ndk1::monostate)>, std::__ndk1::function<bool ()>)>::target_type() const
PUBLIC 2303c 0 std::__ndk1::vector<float, std::__ndk1::allocator<float> >::__throw_length_error[abi:ne180000]() const
PUBLIC 23050 0 std::__ndk1::__function::__base<void (geode::Task<std::__ndk1::vector<float, std::__ndk1::allocator<float> >, std::__ndk1::monostate>::Event*)>::~__base()
PUBLIC 23054 0 std::__ndk1::__function::__func<DetailedAudioPreviewPopup::setup(SongInfoObject*, CustomSongWidget*)::{lambda(geode::Task<std::__ndk1::vector<float, std::__ndk1::allocator<float> >, std::__ndk1::monostate>::Event*)#1}, std::__ndk1::allocator<DetailedAudioPreviewPopup::setup(SongInfoObject*, CustomSongWidget*)::{lambda(geode::Task<std::__ndk1::vector<float, std::__ndk1::allocator<float> >, std::__ndk1::monostate>::Event*)#1}>, void (geode::Task<std::__ndk1::vector<float, std::__ndk1::allocator<float> >, std::__ndk1::monostate>::Event*)>::~__func()
PUBLIC 23058 0 std::__ndk1::__function::__func<DetailedAudioPreviewPopup::setup(SongInfoObject*, CustomSongWidget*)::{lambda(geode::Task<std::__ndk1::vector<float, std::__ndk1::allocator<float> >, std::__ndk1::monostate>::Event*)#1}, std::__ndk1::allocator<DetailedAudioPreviewPopup::setup(SongInfoObject*, CustomSongWidget*)::{lambda(geode::Task<std::__ndk1::vector<float, std::__ndk1::allocator<float> >, std::__ndk1::monostate>::Event*)#1}>, void (geode::Task<std::__ndk1::vector<float, std::__ndk1::allocator<float> >, std::__ndk1::monostate>::Event*)>::__clone() const
PUBLIC 2308c 0 std::__ndk1::__function::__func<DetailedAudioPreviewPopup::setup(SongInfoObject*, CustomSongWidget*)::{lambda(geode::Task<std::__ndk1::vector<float, std::__ndk1::allocator<float> >, std::__ndk1::monostate>::Event*)#1}, std::__ndk1::allocator<DetailedAudioPreviewPopup::setup(SongInfoObject*, CustomSongWidget*)::{lambda(geode::Task<std::__ndk1::vector<float, std::__ndk1::allocator<float> >, std::__ndk1::monostate>::Event*)#1}>, void (geode::Task<std::__ndk1::vector<float, std::__ndk1::allocator<float> >, std::__ndk1::monostate>::Event*)>::__clone(std::__ndk1::__function::__base<void (geode::Task<std::__ndk1::vector<float, std::__ndk1::allocator<float> >, std::__ndk1::monostate>::Event*)>*) const
PUBLIC 230a0 0 std::__ndk1::__function::__func<DetailedAudioPreviewPopup::setup(SongInfoObject*, CustomSongWidget*)::{lambda(geode::Task<std::__ndk1::vector<float, std::__ndk1::allocator<float> >, std::__ndk1::monostate>::Event*)#1}, std::__ndk1::allocator<DetailedAudioPreviewPopup::setup(SongInfoObject*, CustomSongWidget*)::{lambda(geode::Task<std::__ndk1::vector<float, std::__ndk1::allocator<float> >, std::__ndk1::monostate>::Event*)#1}>, void (geode::Task<std::__ndk1::vector<float, std::__ndk1::allocator<float> >, std::__ndk1::monostate>::Event*)>::destroy()
PUBLIC 230a4 0 std::__ndk1::__function::__func<DetailedAudioPreviewPopup::setup(SongInfoObject*, CustomSongWidget*)::{lambda(geode::Task<std::__ndk1::vector<float, std::__ndk1::allocator<float> >, std::__ndk1::monostate>::Event*)#1}, std::__ndk1::allocator<DetailedAudioPreviewPopup::setup(SongInfoObject*, CustomSongWidget*)::{lambda(geode::Task<std::__ndk1::vector<float, std::__ndk1::allocator<float> >, std::__ndk1::monostate>::Event*)#1}>, void (geode::Task<std::__ndk1::vector<float, std::__ndk1::allocator<float> >, std::__ndk1::monostate>::Event*)>::destroy_deallocate()
PUBLIC 230a8 0 std::__ndk1::__function::__func<DetailedAudioPreviewPopup::setup(SongInfoObject*, CustomSongWidget*)::{lambda(geode::Task<std::__ndk1::vector<float, std::__ndk1::allocator<float> >, std::__ndk1::monostate>::Event*)#1}, std::__ndk1::allocator<DetailedAudioPreviewPopup::setup(SongInfoObject*, CustomSongWidget*)::{lambda(geode::Task<std::__ndk1::vector<float, std::__ndk1::allocator<float> >, std::__ndk1::monostate>::Event*)#1}>, void (geode::Task<std::__ndk1::vector<float, std::__ndk1::allocator<float> >, std::__ndk1::monostate>::Event*)>::operator()(geode::Task<std::__ndk1::vector<float, std::__ndk1::allocator<float> >, std::__ndk1::monostate>::Event*&&)
PUBLIC 233c0 0 std::__ndk1::__function::__func<DetailedAudioPreviewPopup::setup(SongInfoObject*, CustomSongWidget*)::{lambda(geode::Task<std::__ndk1::vector<float, std::__ndk1::allocator<float> >, std::__ndk1::monostate>::Event*)#1}, std::__ndk1::allocator<DetailedAudioPreviewPopup::setup(SongInfoObject*, CustomSongWidget*)::{lambda(geode::Task<std::__ndk1::vector<float, std::__ndk1::allocator<float> >, std::__ndk1::monostate>::Event*)#1}>, void (geode::Task<std::__ndk1::vector<float, std::__ndk1::allocator<float> >, std::__ndk1::monostate>::Event*)>::target(std::type_info const&) const
PUBLIC 233dc 0 std::__ndk1::__function::__func<DetailedAudioPreviewPopup::setup(SongInfoObject*, CustomSongWidget*)::{lambda(geode::Task<std::__ndk1::vector<float, std::__ndk1::allocator<float> >, std::__ndk1::monostate>::Event*)#1}, std::__ndk1::allocator<DetailedAudioPreviewPopup::setup(SongInfoObject*, CustomSongWidget*)::{lambda(geode::Task<std::__ndk1::vector<float, std::__ndk1::allocator<float> >, std::__ndk1::monostate>::Event*)#1}>, void (geode::Task<std::__ndk1::vector<float, std::__ndk1::allocator<float> >, std::__ndk1::monostate>::Event*)>::target_type() const
PUBLIC 233e8 0 _ZN5geode15UnwrapExceptionC2IRNSt6__ndk112basic_stringIcNS2_11char_traitsIcEENS2_9allocatorIcEEEEQsr4implE18IsStringStreamableIT_EEENS_4impl6ErrTagEOSA_
PUBLIC 23550 0 std::__ndk1::__variant_detail::__visitation::__base::__dispatcher<(unsigned long)0>::__dispatch[abi:ne180000]<std::__ndk1::__variant_detail::__dtor<std::__ndk1::__variant_detail::__traits<cocos2d::_ccColor4B, std::__ndk1::basic_string<char, std::__ndk1::char_traits<char>, std::__ndk1::allocator<char> > >, (std::__ndk1::__variant_detail::_Trait)1>::__destroy[abi:ne180000]()::{lambda(auto:1&)#1}, std::__ndk1::__variant_detail::__base<(std::__ndk1::__variant_detail::__traits<cocos2d::_ccColor4B, std::__ndk1::basic_string<char, std::__ndk1::char_traits<char>, std::__ndk1::allocator<char> > >)1, cocos2d, std::__ndk1::allocator<char> >&>(std::__ndk1::__variant_detail::__dtor<std::__ndk1::__variant_detail::__traits<cocos2d::_ccColor4B, std::__ndk1::basic_string<char, std::__ndk1::char_traits<char>, std::__ndk1::allocator<char> > >, (std::__ndk1::__variant_detail::_Trait)1>, std::__ndk1::__variant_detail::__base<(std::__ndk1::__variant_detail::__traits<cocos2d::_ccColor4B, std::__ndk1::basic_string<char, std::__ndk1::char_traits<char>, std::__ndk1::allocator<char> > >)1, cocos2d, std::__ndk1::allocator<char> >&)
PUBLIC 23554 0 std::__ndk1::__variant_detail::__visitation::__base::__dispatcher<(unsigned long)1>::__dispatch[abi:ne180000]<std::__ndk1::__variant_detail::__dtor<std::__ndk1::__variant_detail::__traits<cocos2d::_ccColor4B, std::__ndk1::basic_string<char, std::__ndk1::char_traits<char>, std::__ndk1::allocator<char> > >, (std::__ndk1::__variant_detail::_Trait)1>::__destroy[abi:ne180000]()::{lambda(auto:1&)#1}, std::__ndk1::__variant_detail::__base<(std::__ndk1::__variant_detail::__traits<cocos2d::_ccColor4B, std::__ndk1::basic_string<char, std::__ndk1::char_traits<char>, std::__ndk1::allocator<char> > >)1, cocos2d, std::__ndk1::allocator<char> >&>(std::__ndk1::__variant_detail::__dtor<std::__ndk1::__variant_detail::__traits<cocos2d::_ccColor4B, std::__ndk1::basic_string<char, std::__ndk1::char_traits<char>, std::__ndk1::allocator<char> > >, (std::__ndk1::__variant_detail::_Trait)1>, std::__ndk1::__variant_detail::__base<(std::__ndk1::__variant_detail::__traits<cocos2d::_ccColor4B, std::__ndk1::basic_string<char, std::__ndk1::char_traits<char>, std::__ndk1::allocator<char> > >)1, cocos2d, std::__ndk1::allocator<char> >&)
PUBLIC 23568 0 std::__ndk1::__function::__base<void (geode::TextInput*)>::~__base()
PUBLIC 2356c 0 std::__ndk1::__function::__func<DetailedAudioPreviewPopup::setup(SongInfoObject*, CustomSongWidget*)::{lambda(geode::TextInput*)#1}, std::__ndk1::allocator<DetailedAudioPreviewPopup::setup(SongInfoObject*, CustomSongWidget*)::{lambda(geode::TextInput*)#1}>, void (geode::TextInput*)>::~__func()
PUBLIC 23570 0 std::__ndk1::__function::__func<DetailedAudioPreviewPopup::setup(SongInfoObject*, CustomSongWidget*)::{lambda(geode::TextInput*)#1}, std::__ndk1::allocator<DetailedAudioPreviewPopup::setup(SongInfoObject*, CustomSongWidget*)::{lambda(geode::TextInput*)#1}>, void (geode::TextInput*)>::__clone() const
PUBLIC 235a4 0 std::__ndk1::__function::__func<DetailedAudioPreviewPopup::setup(SongInfoObject*, CustomSongWidget*)::{lambda(geode::TextInput*)#1}, std::__ndk1::allocator<DetailedAudioPreviewPopup::setup(SongInfoObject*, CustomSongWidget*)::{lambda(geode::TextInput*)#1}>, void (geode::TextInput*)>::__clone(std::__ndk1::__function::__base<void (geode::TextInput*)>*) const
PUBLIC 235b8 0 std::__ndk1::__function::__func<DetailedAudioPreviewPopup::setup(SongInfoObject*, CustomSongWidget*)::{lambda(geode::TextInput*)#1}, std::__ndk1::allocator<DetailedAudioPreviewPopup::setup(SongInfoObject*, CustomSongWidget*)::{lambda(geode::TextInput*)#1}>, void (geode::TextInput*)>::destroy()
PUBLIC 235bc 0 std::__ndk1::__function::__func<DetailedAudioPreviewPopup::setup(SongInfoObject*, CustomSongWidget*)::{lambda(geode::TextInput*)#1}, std::__ndk1::allocator<DetailedAudioPreviewPopup::setup(SongInfoObject*, CustomSongWidget*)::{lambda(geode::TextInput*)#1}>, void (geode::TextInput*)>::destroy_deallocate()
PUBLIC 235c0 0 std::__ndk1::__function::__func<DetailedAudioPreviewPopup::setup(SongInfoObject*, CustomSongWidget*)::{lambda(geode::TextInput*)#1}, std::__ndk1::allocator<DetailedAudioPreviewPopup::setup(SongInfoObject*, CustomSongWidget*)::{lambda(geode::TextInput*)#1}>, void (geode::TextInput*)>::operator()(geode::TextInput*&&)
PUBLIC 235cc 0 std::__ndk1::__function::__func<DetailedAudioPreviewPopup::setup(SongInfoObject*, CustomSongWidget*)::{lambda(geode::TextInput*)#1}, std::__ndk1::allocator<DetailedAudioPreviewPopup::setup(SongInfoObject*, CustomSongWidget*)::{lambda(geode::TextInput*)#1}>, void (geode::TextInput*)>::target(std::type_info const&) const
PUBLIC 235e8 0 std::__ndk1::__function::__func<DetailedAudioPreviewPopup::setup(SongInfoObject*, CustomSongWidget*)::{lambda(geode::TextInput*)#1}, std::__ndk1::allocator<DetailedAudioPreviewPopup::setup(SongInfoObject*, CustomSongWidget*)::{lambda(geode::TextInput*)#1}>, void (geode::TextInput*)>::target_type() const
PUBLIC 235f4 0 DetailedAudioPreviewPopup::setup(SongInfoObject*, CustomSongWidget*)::{lambda(geode::TextInput*)#1}::operator()(geode::TextInput*) const
PUBLIC 23700 0 std::__ndk1::__function::__func<DetailedAudioPreviewPopup::setup(SongInfoObject*, CustomSongWidget*)::{lambda(auto:1*)#1}, std::__ndk1::allocator<DetailedAudioPreviewPopup::setup(SongInfoObject*, CustomSongWidget*)::{lambda(auto:1*)#1}>, void (cocos2d::CCNode*)>::~__func()
PUBLIC 23704 0 std::__ndk1::__function::__func<DetailedAudioPreviewPopup::setup(SongInfoObject*, CustomSongWidget*)::{lambda(auto:1*)#1}, std::__ndk1::allocator<DetailedAudioPreviewPopup::setup(SongInfoObject*, CustomSongWidget*)::{lambda(auto:1*)#1}>, void (cocos2d::CCNode*)>::__clone() const
PUBLIC 23738 0 std::__ndk1::__function::__func<DetailedAudioPreviewPopup::setup(SongInfoObject*, CustomSongWidget*)::{lambda(auto:1*)#1}, std::__ndk1::allocator<DetailedAudioPreviewPopup::setup(SongInfoObject*, CustomSongWidget*)::{lambda(auto:1*)#1}>, void (cocos2d::CCNode*)>::__clone(std::__ndk1::__function::__base<void (cocos2d::CCNode*)>*) const
PUBLIC 2374c 0 std::__ndk1::__function::__func<DetailedAudioPreviewPopup::setup(SongInfoObject*, CustomSongWidget*)::{lambda(auto:1*)#1}, std::__ndk1::allocator<DetailedAudioPreviewPopup::setup(SongInfoObject*, CustomSongWidget*)::{lambda(auto:1*)#1}>, void (cocos2d::CCNode*)>::destroy()
PUBLIC 23750 0 std::__ndk1::__function::__func<DetailedAudioPreviewPopup::setup(SongInfoObject*, CustomSongWidget*)::{lambda(auto:1*)#1}, std::__ndk1::allocator<DetailedAudioPreviewPopup::setup(SongInfoObject*, CustomSongWidget*)::{lambda(auto:1*)#1}>, void (cocos2d::CCNode*)>::destroy_deallocate()
PUBLIC 23754 0 std::__ndk1::__function::__func<DetailedAudioPreviewPopup::setup(SongInfoObject*, CustomSongWidget*)::{lambda(auto:1*)#1}, std::__ndk1::allocator<DetailedAudioPreviewPopup::setup(SongInfoObject*, CustomSongWidget*)::{lambda(auto:1*)#1}>, void (cocos2d::CCNode*)>::operator()(cocos2d::CCNode*&&)
PUBLIC 237b4 0 std::__ndk1::__function::__func<DetailedAudioPreviewPopup::setup(SongInfoObject*, CustomSongWidget*)::{lambda(auto:1*)#1}, std::__ndk1::allocator<DetailedAudioPreviewPopup::setup(SongInfoObject*, CustomSongWidget*)::{lambda(auto:1*)#1}>, void (cocos2d::CCNode*)>::target(std::type_info const&) const
PUBLIC 237d0 0 std::__ndk1::__function::__func<DetailedAudioPreviewPopup::setup(SongInfoObject*, CustomSongWidget*)::{lambda(auto:1*)#1}, std::__ndk1::allocator<DetailedAudioPreviewPopup::setup(SongInfoObject*, CustomSongWidget*)::{lambda(auto:1*)#1}>, void (cocos2d::CCNode*)>::target_type() const
PUBLIC 237dc 0 std::__ndk1::__function::__base<void (CCMenuItemSpriteExtra*)>::~__base()
PUBLIC 237e0 0 std::__ndk1::__function::__func<DetailedAudioPreviewPopup::setup(SongInfoObject*, CustomSongWidget*)::{lambda(auto:1*)#2}, std::__ndk1::allocator<DetailedAudioPreviewPopup::setup(SongInfoObject*, CustomSongWidget*)::{lambda(auto:1*)#2}>, void (CCMenuItemSpriteExtra*)>::~__func()
PUBLIC 237e4 0 std::__ndk1::__function::__func<DetailedAudioPreviewPopup::setup(SongInfoObject*, CustomSongWidget*)::{lambda(auto:1*)#2}, std::__ndk1::allocator<DetailedAudioPreviewPopup::setup(SongInfoObject*, CustomSongWidget*)::{lambda(auto:1*)#2}>, void (CCMenuItemSpriteExtra*)>::__clone() const
PUBLIC 23818 0 std::__ndk1::__function::__func<DetailedAudioPreviewPopup::setup(SongInfoObject*, CustomSongWidget*)::{lambda(auto:1*)#2}, std::__ndk1::allocator<DetailedAudioPreviewPopup::setup(SongInfoObject*, CustomSongWidget*)::{lambda(auto:1*)#2}>, void (CCMenuItemSpriteExtra*)>::__clone(std::__ndk1::__function::__base<void (CCMenuItemSpriteExtra*)>*) const
PUBLIC 2382c 0 std::__ndk1::__function::__func<DetailedAudioPreviewPopup::setup(SongInfoObject*, CustomSongWidget*)::{lambda(auto:1*)#2}, std::__ndk1::allocator<DetailedAudioPreviewPopup::setup(SongInfoObject*, CustomSongWidget*)::{lambda(auto:1*)#2}>, void (CCMenuItemSpriteExtra*)>::destroy()
PUBLIC 23830 0 std::__ndk1::__function::__func<DetailedAudioPreviewPopup::setup(SongInfoObject*, CustomSongWidget*)::{lambda(auto:1*)#2}, std::__ndk1::allocator<DetailedAudioPreviewPopup::setup(SongInfoObject*, CustomSongWidget*)::{lambda(auto:1*)#2}>, void (CCMenuItemSpriteExtra*)>::destroy_deallocate()
PUBLIC 23834 0 std::__ndk1::__function::__func<DetailedAudioPreviewPopup::setup(SongInfoObject*, CustomSongWidget*)::{lambda(auto:1*)#2}, std::__ndk1::allocator<DetailedAudioPreviewPopup::setup(SongInfoObject*, CustomSongWidget*)::{lambda(auto:1*)#2}>, void (CCMenuItemSpriteExtra*)>::operator()(CCMenuItemSpriteExtra*&&)
PUBLIC 2389c 0 std::__ndk1::__function::__func<DetailedAudioPreviewPopup::setup(SongInfoObject*, CustomSongWidget*)::{lambda(auto:1*)#2}, std::__ndk1::allocator<DetailedAudioPreviewPopup::setup(SongInfoObject*, CustomSongWidget*)::{lambda(auto:1*)#2}>, void (CCMenuItemSpriteExtra*)>::target(std::type_info const&) const
PUBLIC 238b8 0 std::__ndk1::__function::__func<DetailedAudioPreviewPopup::setup(SongInfoObject*, CustomSongWidget*)::{lambda(auto:1*)#2}, std::__ndk1::allocator<DetailedAudioPreviewPopup::setup(SongInfoObject*, CustomSongWidget*)::{lambda(auto:1*)#2}>, void (CCMenuItemSpriteExtra*)>::target_type() const
PUBLIC 238c4 0 std::__ndk1::__function::__base<void (cocos2d::CCNode*)>::~__base()
PUBLIC 238c8 0 std::__ndk1::__function::__func<DetailedAudioPreviewPopup::setup(SongInfoObject*, CustomSongWidget*)::{lambda(auto:1*)#3}, std::__ndk1::allocator<DetailedAudioPreviewPopup::setup(SongInfoObject*, CustomSongWidget*)::{lambda(auto:1*)#3}>, void (cocos2d::CCNode*)>::~__func()
PUBLIC 238cc 0 std::__ndk1::__function::__func<DetailedAudioPreviewPopup::setup(SongInfoObject*, CustomSongWidget*)::{lambda(auto:1*)#3}, std::__ndk1::allocator<DetailedAudioPreviewPopup::setup(SongInfoObject*, CustomSongWidget*)::{lambda(auto:1*)#3}>, void (cocos2d::CCNode*)>::__clone() const
PUBLIC 23900 0 std::__ndk1::__function::__func<DetailedAudioPreviewPopup::setup(SongInfoObject*, CustomSongWidget*)::{lambda(auto:1*)#3}, std::__ndk1::allocator<DetailedAudioPreviewPopup::setup(SongInfoObject*, CustomSongWidget*)::{lambda(auto:1*)#3}>, void (cocos2d::CCNode*)>::__clone(std::__ndk1::__function::__base<void (cocos2d::CCNode*)>*) const
PUBLIC 23914 0 std::__ndk1::__function::__func<DetailedAudioPreviewPopup::setup(SongInfoObject*, CustomSongWidget*)::{lambda(auto:1*)#3}, std::__ndk1::allocator<DetailedAudioPreviewPopup::setup(SongInfoObject*, CustomSongWidget*)::{lambda(auto:1*)#3}>, void (cocos2d::CCNode*)>::destroy()
PUBLIC 23918 0 std::__ndk1::__function::__func<DetailedAudioPreviewPopup::setup(SongInfoObject*, CustomSongWidget*)::{lambda(auto:1*)#3}, std::__ndk1::allocator<DetailedAudioPreviewPopup::setup(SongInfoObject*, CustomSongWidget*)::{lambda(auto:1*)#3}>, void (cocos2d::CCNode*)>::destroy_deallocate()
PUBLIC 2391c 0 std::__ndk1::__function::__func<DetailedAudioPreviewPopup::setup(SongInfoObject*, CustomSongWidget*)::{lambda(auto:1*)#3}, std::__ndk1::allocator<DetailedAudioPreviewPopup::setup(SongInfoObject*, CustomSongWidget*)::{lambda(auto:1*)#3}>, void (cocos2d::CCNode*)>::operator()(cocos2d::CCNode*&&)
PUBLIC 23984 0 std::__ndk1::__function::__func<DetailedAudioPreviewPopup::setup(SongInfoObject*, CustomSongWidget*)::{lambda(auto:1*)#3}, std::__ndk1::allocator<DetailedAudioPreviewPopup::setup(SongInfoObject*, CustomSongWidget*)::{lambda(auto:1*)#3}>, void (cocos2d::CCNode*)>::target(std::type_info const&) const
PUBLIC 239a0 0 std::__ndk1::__function::__func<DetailedAudioPreviewPopup::setup(SongInfoObject*, CustomSongWidget*)::{lambda(auto:1*)#3}, std::__ndk1::allocator<DetailedAudioPreviewPopup::setup(SongInfoObject*, CustomSongWidget*)::{lambda(auto:1*)#3}>, void (cocos2d::CCNode*)>::target_type() const
PUBLIC 239ac 0 std::__ndk1::__tree_balance_after_insert[abi:ne180000]<std::__ndk1::__tree_node_base<void*>*>(std::__ndk1::__tree_node_base<void*>*, std::__ndk1::__tree_node_base<void*>*)
PUBLIC m 23b5c 0 geodeImplicitEntry
PUBLIC 23b98 0 std::__ndk1::unordered_map<void*, bool, std::__ndk1::hash<void*>, std::__ndk1::equal_to<void*>, std::__ndk1::allocator<std::__ndk1::pair<void* const, bool> > >::~unordered_map[abi:ne180000]()
PUBLIC 23be4 0 wrapFunction(unsigned long, tulip::hook::WrapperMetadata const&)
PUBLIC 23d18 0 geode::impl::ResultData<void*, std::__ndk1::basic_string<char, std::__ndk1::char_traits<char>, std::__ndk1::allocator<char> > >::unwrapErr() &
PUBLIC 23d90 0 geode::impl::ResultData<void*, std::__ndk1::basic_string<char, std::__ndk1::char_traits<char>, std::__ndk1::allocator<char> > >::~ResultData()
PUBLIC 23e04 0 tulip::hook::WrapperMetadata::~WrapperMetadata()
PUBLIC 23e68 0 cocos2d::CCObject::~CCObject()
PUBLIC 23e8c 0 cocos2d::CCNode::~CCNode()
PUBLIC 23eb0 0 {virtual override thunk({offset(-320)}, cocos2d::CCLayer::~CCLayer())}
PUBLIC 23eb8 0 cocos2d::CCLayer::~CCLayer()
PUBLIC 23edc 0 {virtual override thunk({offset(-320)}, cocos2d::CCLayer::~CCLayer())}
PUBLIC 23f04 0 cocos2d::CCLayerRGBA::~CCLayerRGBA()
PUBLIC 241dc 0 {virtual override thunk({offset(-320)}, cocos2d::CCLayerRGBA::~CCLayerRGBA())}
PUBLIC 241e4 0 cocos2d::CCLayerRGBA::~CCLayerRGBA()
PUBLIC 24208 0 {virtual override thunk({offset(-320)}, cocos2d::CCLayerRGBA::~CCLayerRGBA())}
PUBLIC 24230 0 cocos2d::CCLayerColor::CCLayerColor()
PUBLIC 24480 0 {virtual override thunk({offset(-320)}, cocos2d::CCLayerColor::~CCLayerColor())}
PUBLIC 24488 0 cocos2d::CCLayerColor::~CCLayerColor()
PUBLIC 244ac 0 {virtual override thunk({offset(-320)}, cocos2d::CCLayerColor::~CCLayerColor())}
PUBLIC 244d4 0 {virtual override thunk({offset(-320)}, FLAlertLayer::~FLAlertLayer())}
PUBLIC 244dc 0 FLAlertLayer::~FLAlertLayer()
PUBLIC 24500 0 {virtual override thunk({offset(-320)}, FLAlertLayer::~FLAlertLayer())}
PUBLIC 24528 0 TextInputDelegate::textInputOpened(CCTextInputNode*)
PUBLIC 2452c 0 TextInputDelegate::textInputShouldOffset(CCTextInputNode*, float)
PUBLIC 24530 0 TextInputDelegate::textInputReturn(CCTextInputNode*)
PUBLIC 24534 0 TextInputDelegate::allowTextInput(CCTextInputNode*)
PUBLIC 2453c 0 TextInputDelegate::enterPressed(CCTextInputNode*)
PUBLIC 24540 0 FMODAudioEngine::playMusic(gd::string, bool, float, int)
PUBLIC 246e0 0 tulip::hook::AbstractFunction::from<void, FMODAudioEngine*, gd::string, bool, float, int>(void (*)(FMODAudioEngine*, gd::string, bool, float, int))
PUBLIC 24848 0 cocos2d::CCObject::update(float)
PUBLIC 2484c 0 cocos2d::CCLayerColor::~CCLayerColor()
PUBLIC 24b08 0 FLAlertLayer::~FLAlertLayer()
PUBLIC 24dc4 0 cocos2d::CCNode::~CCNode()
PUBLIC 2503c 0 cocos2d::CCLayer::~CCLayer()
PUBLIC 25304 0 cocos2d::CCObject::~CCObject()
PUBLIC 257d0 0 _ZN5geode15UnwrapExceptionC2IRPvQsr4implE18IsStringStreamableIT_EEENS_4impl5OkTagEOS4_
PUBLIC 25924 0 std::__ndk1::__variant_detail::__visitation::__base::__dispatcher<(unsigned long)0>::__dispatch[abi:ne180000]<std::__ndk1::__variant_detail::__dtor<std::__ndk1::__variant_detail::__traits<void*, std::__ndk1::basic_string<char, std::__ndk1::char_traits<char>, std::__ndk1::allocator<char> > >, (std::__ndk1::__variant_detail::_Trait)1>::__destroy[abi:ne180000]()::{lambda(auto:1&)#1}, std::__ndk1::__variant_detail::__base<(std::__ndk1::__variant_detail::__traits<void*, std::__ndk1::basic_string<char, std::__ndk1::char_traits<char>, std::__ndk1::allocator<char> > >)1, std::__ndk1::__variant_detail::__traits, std::__ndk1::allocator<char> >&>(std::__ndk1::__variant_detail::__dtor<std::__ndk1::__variant_detail::__traits<void*, std::__ndk1::basic_string<char, std::__ndk1::char_traits<char>, std::__ndk1::allocator<char> > >, (std::__ndk1::__variant_detail::_Trait)1>, std::__ndk1::__variant_detail::__base<(std::__ndk1::__variant_detail::__traits<void*, std::__ndk1::basic_string<char, std::__ndk1::char_traits<char>, std::__ndk1::allocator<char> > >)1, std::__ndk1::__variant_detail::__traits, std::__ndk1::allocator<char> >&)
PUBLIC 25928 0 std::__ndk1::__variant_detail::__visitation::__base::__dispatcher<(unsigned long)1>::__dispatch[abi:ne180000]<std::__ndk1::__variant_detail::__dtor<std::__ndk1::__variant_detail::__traits<void*, std::__ndk1::basic_string<char, std::__ndk1::char_traits<char>, std::__ndk1::allocator<char> > >, (std::__ndk1::__variant_detail::_Trait)1>::__destroy[abi:ne180000]()::{lambda(auto:1&)#1}, std::__ndk1::__variant_detail::__base<(std::__ndk1::__variant_detail::__traits<void*, std::__ndk1::basic_string<char, std::__ndk1::char_traits<char>, std::__ndk1::allocator<char> > >)1, std::__ndk1::__variant_detail::__traits, std::__ndk1::allocator<char> >&>(std::__ndk1::__variant_detail::__dtor<std::__ndk1::__variant_detail::__traits<void*, std::__ndk1::basic_string<char, std::__ndk1::char_traits<char>, std::__ndk1::allocator<char> > >, (std::__ndk1::__variant_detail::_Trait)1>, std::__ndk1::__variant_detail::__base<(std::__ndk1::__variant_detail::__traits<void*, std::__ndk1::basic_string<char, std::__ndk1::char_traits<char>, std::__ndk1::allocator<char> > >)1, std::__ndk1::__variant_detail::__traits, std::__ndk1::allocator<char> >&)
PUBLIC 2593c 0 std::__ndk1::__hash_table<std::__ndk1::__hash_value_type<void*, bool>, std::__ndk1::__unordered_map_hasher<void*, std::__ndk1::__hash_value_type<void*, bool>, std::__ndk1::hash<void*>, std::__ndk1::equal_to<void*>, true>, std::__ndk1::__unordered_map_equal<void*, std::__ndk1::__hash_value_type<void*, bool>, std::__ndk1::equal_to<void*>, std::__ndk1::hash<void*>, true>, std::__ndk1::allocator<std::__ndk1::__hash_value_type<void*, bool> > >::__emplace_unique_key_args<void*, std::__ndk1::piecewise_construct_t const&, std::__ndk1::tuple<void* const&>, std::__ndk1::tuple<> >(void* const&, std::__ndk1::piecewise_construct_t const&, std::__ndk1::tuple<void* const&>, std::__ndk1::tuple<>)
PUBLIC 25e1c 0 __udivti3
PUBLIC 25e28 0 __udivmodti4
PUBLIC m 26074 0 __eqtf2
PUBLIC 26114 0 __unordtf2
PUBLIC 2614c 0 fmt::v11::detail::write_loc(fmt::v11::basic_appender<char>, fmt::v11::loc_value, fmt::v11::format_specs const&, fmt::v11::detail::locale_ref)
PUBLIC 263e0 0 fmt::v11::format_facet<std::__ndk1::locale>::~format_facet()
PUBLIC 2645c 0 fmt::v11::report_error(char const*)
PUBLIC 264ac 0 fmt::v11::format_error::runtime_error(char const*)
PUBLIC 264d8 0 fmt::v11::format_facet<std::__ndk1::locale>::do_put(fmt::v11::basic_appender<char>, fmt::v11::loc_value, fmt::v11::format_specs const&) const
PUBLIC 26c98 0 fmt::v11::detail::loc_writer<char>::~loc_writer()
PUBLIC 26cfc 0 fmt::v11::detail::vformat_to<char>(fmt::v11::detail::buffer<char>&, fmt::v11::basic_string_view<char>, fmt::v11::detail::vformat_args<char>::type, fmt::v11::detail::locale_ref)
PUBLIC 2726c 0 fmt::v11::detail::is_printable(unsigned int)
PUBLIC 27494 0 fmt::v11::detail::dragonbox::to_decimal<float>(float)
PUBLIC 27770 0 fmt::v11::detail::dragonbox::to_decimal<double>(double)
PUBLIC 27cac 0 fmt::v11::basic_memory_buffer<char, (unsigned long)500, std::__ndk1::allocator<char> >::grow(fmt::v11::detail::buffer<char>&, unsigned long)
PUBLIC 27d24 0 fmt::v11::format_facet<std::__ndk1::locale>::~format_facet()
PUBLIC 27db0 0 fmt::v11::format_error::~format_error()
PUBLIC 27dd4 0 fmt::v11::detail::copy_noinline<char, char const*, fmt::v11::basic_appender<char> >(char const*, char const*, fmt::v11::basic_appender<char>)
PUBLIC 27f24 0 fmt::v11::detail::default_arg_formatter<char>::operator()<bool>(bool)
PUBLIC 27f8c 0 fmt::v11::detail::default_arg_formatter<char>::operator()<char>(char)
PUBLIC 2801c 0 fmt::v11::detail::default_arg_formatter<char>::operator()<float>(float)
PUBLIC 28108 0 fmt::v11::detail::default_arg_formatter<char>::operator()<double>(double)
PUBLIC 281f4 0 fmt::v11::detail::default_arg_formatter<char>::operator()<char const*>(char const*)
PUBLIC 2823c 0 fmt::v11::detail::default_arg_formatter<char>::operator()<void const*>(void const*)
PUBLIC 282d4 0 _ZN3fmt3v116detail5writeIcNS0_14basic_appenderIcEEiTnNSt6__ndk19enable_ifIXaaaasr11is_integralIT1_EE5valuentsr3std7is_sameIS7_bEE5valuentsr3std7is_sameIS7_T_EE5valueEiE4typeELi0EEET0_SB_S7_
PUBLIC 28534 0 fmt::v11::detail::copy_noinline<char, char*, fmt::v11::basic_appender<char> >(char*, char*, fmt::v11::basic_appender<char>)
PUBLIC 28684 0 _ZN3fmt3v116detail5writeIcNS0_14basic_appenderIcEEjTnNSt6__ndk19enable_ifIXaaaasr11is_integralIT1_EE5valuentsr3std7is_sameIS7_bEE5valuentsr3std7is_sameIS7_T_EE5valueEiE4typeELi0EEET0_SB_S7_
PUBLIC 28864 0 _ZN3fmt3v116detail5writeIcNS0_14basic_appenderIcEExTnNSt6__ndk19enable_ifIXaaaasr11is_integralIT1_EE5valuentsr3std7is_sameIS7_bEE5valuentsr3std7is_sameIS7_T_EE5valueEiE4typeELi0EEET0_SB_S7_
PUBLIC 28ae8 0 _ZN3fmt3v116detail5writeIcNS0_14basic_appenderIcEEyTnNSt6__ndk19enable_ifIXaaaasr11is_integralIT1_EE5valuentsr3std7is_sameIS7_bEE5valuentsr3std7is_sameIS7_T_EE5valueEiE4typeELi0EEET0_SB_S7_
PUBLIC 28cf0 0 _ZN3fmt3v116detail5writeIcNS0_14basic_appenderIcEEnTnNSt6__ndk19enable_ifIXaaaasr11is_integralIT1_EE5valuentsr3std7is_sameIS7_bEE5valuentsr3std7is_sameIS7_T_EE5valueEiE4typeELi0EEET0_SB_S7_
PUBLIC 29050 0 _ZN3fmt3v116detail5writeIcNS0_14basic_appenderIcEEoTnNSt6__ndk19enable_ifIXaaaasr11is_integralIT1_EE5valuentsr3std7is_sameIS7_bEE5valuentsr3std7is_sameIS7_T_EE5valueEiE4typeELi0EEET0_SB_S7_
PUBLIC 29364 0 _ZN3fmt3v116detail5writeIcNS0_14basic_appenderIcEEbTnNSt6__ndk19enable_ifIXsr3std7is_sameIT1_bEE5valueEiE4typeELi0EEET0_SA_S7_RKNS0_12format_specsENS1_10locale_refE
PUBLIC 295f4 0 fmt::v11::detail::write_int_noinline<char, fmt::v11::basic_appender<char>, unsigned int>(fmt::v11::basic_appender<char>, fmt::v11::detail::write_int_arg<unsigned int>, fmt::v11::format_specs const&, fmt::v11::detail::locale_ref)
PUBLIC 2a3d0 0 fmt::v11::detail::fill<char, fmt::v11::basic_appender<char> >(fmt::v11::basic_appender<char>, unsigned long, fmt::v11::detail::fill_t const&)
PUBLIC 2a5a0 0 fmt::v11::detail::write_padded<char, (fmt::v11::align::type)1, fmt::v11::basic_appender<char>, fmt::v11::detail::write_char<char, fmt::v11::basic_appender<char> >(fmt::v11::basic_appender<char>, char, fmt::v11::format_specs const&)::{lambda(fmt::v11::basic_appender<char>&)#1}>(fmt::v11::basic_appender<char>, fmt::v11::format_specs const&, unsigned long, unsigned long, fmt::v11::detail::write_char<char, fmt::v11::basic_appender<char> >(fmt::v11::basic_appender<char>, char, fmt::v11::format_specs const&)::{lambda(fmt::v11::basic_appender<char>&)#1})
PUBLIC 2a7dc 0 fmt::v11::detail::write_escaped_cp<fmt::v11::basic_appender<char>, char>(fmt::v11::basic_appender<char>, fmt::v11::detail::find_escape_result<char> const&)
PUBLIC 2aae8 0 fmt::v11::detail::write_codepoint<(unsigned long)2, char, fmt::v11::basic_appender<char> >(fmt::v11::basic_appender<char>, char, unsigned int)
PUBLIC 2ac60 0 fmt::v11::detail::write_codepoint<(unsigned long)8, char, fmt::v11::basic_appender<char> >(fmt::v11::basic_appender<char>, char, unsigned int)
PUBLIC 2add8 0 fmt::v11::detail::write_padded<char, (fmt::v11::align::type)1, fmt::v11::basic_appender<char>, fmt::v11::detail::write_nonfinite<char, fmt::v11::basic_appender<char> >(fmt::v11::basic_appender<char>, bool, fmt::v11::format_specs, fmt::v11::sign::type)::{lambda(fmt::v11::basic_appender<char>&)#1}>(fmt::v11::basic_appender<char>, fmt::v11::format_specs const&, unsigned long, unsigned long, fmt::v11::detail::write_nonfinite<char, fmt::v11::basic_appender<char> >(fmt::v11::basic_appender<char>, bool, fmt::v11::format_specs, fmt::v11::sign::type)::{lambda(fmt::v11::basic_appender<char>&)#1})
PUBLIC 2b018 0 fmt::v11::detail::do_write_float<char, fmt::v11::basic_appender<char>, fmt::v11::detail::dragonbox::decimal_fp<float>, fmt::v11::detail::digit_grouping<char> >(fmt::v11::basic_appender<char>, fmt::v11::detail::dragonbox::decimal_fp<float> const&, fmt::v11::format_specs const&, fmt::v11::detail::float_specs, fmt::v11::detail::locale_ref)
PUBLIC 2bc8c 0 fmt::v11::detail::do_write_float<char, fmt::v11::basic_appender<char>, fmt::v11::detail::dragonbox::decimal_fp<float>, fmt::v11::detail::digit_grouping<char> >(fmt::v11::basic_appender<char>, fmt::v11::detail::dragonbox::decimal_fp<float> const&, fmt::v11::format_specs const&, fmt::v11::detail::float_specs, fmt::v11::detail::locale_ref)::{lambda(fmt::v11::basic_appender<char>(fmt::v11::basic_appender<char>))#1}::operator() const
PUBLIC 2bde0 0 fmt::v11::detail::digit_grouping<char>::digit_grouping(fmt::v11::detail::locale_ref, bool)
PUBLIC 2c04c 0 fmt::v11::detail::digit_grouping<char>::~digit_grouping()
PUBLIC 2c090 0 fmt::v11::detail::write_exponent<char, fmt::v11::basic_appender<char> >(int, fmt::v11::basic_appender<char>)
PUBLIC 2c260 0 _ZN3fmt3v116detail17write_significandIcjTnNSt6__ndk19enable_ifIXsr3std11is_integralIT0_EE5valueEiE4typeELi0EEEPT_S9_S5_iiS8_
PUBLIC 2c3dc 0 std::__ndk1::basic_string<char, std::__ndk1::char_traits<char>, std::__ndk1::allocator<char> >::__assign_no_alias<true>(char const*, unsigned long)
PUBLIC 2c488 0 std::__ndk1::basic_string<char, std::__ndk1::char_traits<char>, std::__ndk1::allocator<char> >::__assign_no_alias<false>(char const*, unsigned long)
PUBLIC 2c598 0 fmt::v11::detail::digit_grouping<char>::apply<fmt::v11::basic_appender<char>, char>(fmt::v11::basic_appender<char>, fmt::v11::basic_string_view<char>) const
PUBLIC 2c950 0 fmt::v11::basic_memory_buffer<int, (unsigned long)500, std::__ndk1::allocator<int> >::grow(fmt::v11::detail::buffer<int>&, unsigned long)
PUBLIC 2c9f0 0 fmt::v11::detail::do_write_float<char, fmt::v11::basic_appender<char>, fmt::v11::detail::dragonbox::decimal_fp<double>, fmt::v11::detail::digit_grouping<char> >(fmt::v11::basic_appender<char>, fmt::v11::detail::dragonbox::decimal_fp<double> const&, fmt::v11::format_specs const&, fmt::v11::detail::float_specs, fmt::v11::detail::locale_ref)
PUBLIC 2d6a4 0 fmt::v11::detail::do_write_float<char, fmt::v11::basic_appender<char>, fmt::v11::detail::dragonbox::decimal_fp<double>, fmt::v11::detail::digit_grouping<char> >(fmt::v11::basic_appender<char>, fmt::v11::detail::dragonbox::decimal_fp<double> const&, fmt::v11::format_specs const&, fmt::v11::detail::float_specs, fmt::v11::detail::locale_ref)::{lambda(fmt::v11::basic_appender<char>(fmt::v11::basic_appender<char>))#1}::operator() const
PUBLIC 2d7fc 0 _ZN3fmt3v116detail17write_significandIcmTnNSt6__ndk19enable_ifIXsr3std11is_integralIT0_EE5valueEiE4typeELi0EEEPT_S9_S5_iiS8_
PUBLIC 2d98c 0 fmt::v11::detail::write_float<char, fmt::v11::basic_appender<char>, long double>(fmt::v11::basic_appender<char>, long double, fmt::v11::format_specs, fmt::v11::detail::locale_ref)
PUBLIC 2e488 0 fmt::v11::detail::write_padded<char, (fmt::v11::align::type)2, fmt::v11::basic_appender<char>, fmt::v11::detail::write_bytes<char, (fmt::v11::align::type)2, fmt::v11::basic_appender<char> >(fmt::v11::basic_appender<char>, fmt::v11::basic_string_view<char>, fmt::v11::format_specs const&)::{lambda(fmt::v11::basic_appender<char>&)#1}>(fmt::v11::basic_appender<char>, fmt::v11::format_specs const&, unsigned long, unsigned long, fmt::v11::detail::write_bytes<char, (fmt::v11::align::type)2, fmt::v11::basic_appender<char> >(fmt::v11::basic_appender<char>, fmt::v11::basic_string_view<char>, fmt::v11::format_specs const&)::{lambda(fmt::v11::basic_appender<char>&)#1})
PUBLIC 2e664 0 fmt::v11::detail::format_dragon(fmt::v11::detail::basic_fp<unsigned __int128>, unsigned int, int, fmt::v11::detail::buffer<char>&, int&)
PUBLIC 2fa94 0 fmt::v11::detail::bigint::operator<<=(int)
PUBLIC 2fbb8 0 fmt::v11::detail::bigint::assign_pow10(int)
PUBLIC 30314 0 fmt::v11::detail::bigint::divmod_assign(fmt::v11::detail::bigint const&)
PUBLIC 30634 0 fmt::v11::basic_memory_buffer<unsigned int, (unsigned long)32, std::__ndk1::allocator<unsigned int> >::grow(fmt::v11::detail::buffer<unsigned int>&, unsigned long)
PUBLIC 306d4 0 fmt::v11::detail::do_write_float<char, fmt::v11::basic_appender<char>, fmt::v11::detail::big_decimal_fp, fmt::v11::detail::digit_grouping<char> >(fmt::v11::basic_appender<char>, fmt::v11::detail::big_decimal_fp const&, fmt::v11::format_specs const&, fmt::v11::detail::float_specs, fmt::v11::detail::locale_ref)
PUBLIC 31584 0 fmt::v11::detail::do_write_float<char, fmt::v11::basic_appender<char>, fmt::v11::detail::big_decimal_fp, fmt::v11::detail::digit_grouping<char> >(fmt::v11::basic_appender<char>, fmt::v11::detail::big_decimal_fp const&, fmt::v11::format_specs const&, fmt::v11::detail::float_specs, fmt::v11::detail::locale_ref)::{lambda(fmt::v11::basic_appender<char>(fmt::v11::basic_appender<char>))#1}::operator() const
PUBLIC 316e4 0 fmt::v11::detail::write_padded<char, (fmt::v11::align::type)2, fmt::v11::basic_appender<char>, fmt::v11::detail::write_ptr<char, fmt::v11::basic_appender<char>, unsigned long>(fmt::v11::basic_appender<char>, unsigned long, fmt::v11::format_specs const*)::{lambda(fmt::v11::basic_appender<char>&)#1}>(fmt::v11::basic_appender<char>, fmt::v11::format_specs const&, unsigned long, unsigned long, fmt::v11::detail::write_ptr<char, fmt::v11::basic_appender<char>, unsigned long>(fmt::v11::basic_appender<char>, unsigned long, fmt::v11::format_specs const*)::{lambda(fmt::v11::basic_appender<char>&)#1})
PUBLIC 318f8 0 fmt::v11::detail::parse_replacement_field<char, fmt::v11::detail::vformat_to<char>(fmt::v11::detail::buffer<char>&, fmt::v11::basic_string_view<char>, fmt::v11::detail::vformat_args<char>::type, fmt::v11::detail::locale_ref)::format_handler&>(char const*, char const*, fmt::v11::detail::vformat_to<char>(fmt::v11::detail::buffer<char>&, fmt::v11::basic_string_view<char>, fmt::v11::detail::vformat_args<char>::type, fmt::v11::detail::locale_ref)::format_handler&)
PUBLIC 33594 0 fmt::v11::detail::parse_dynamic_spec<char>(char const*, char const*, int&, fmt::v11::detail::arg_ref<char>&, fmt::v11::basic_format_parse_context<char>&)
PUBLIC 33824 0 fmt::v11::basic_format_args<fmt::v11::context>::get<char>(fmt::v11::basic_string_view<char>) const
PUBLIC 3397c 0 fmt::v11::detail::write_int_noinline<char, fmt::v11::basic_appender<char>, unsigned long>(fmt::v11::basic_appender<char>, fmt::v11::detail::write_int_arg<unsigned long>, fmt::v11::format_specs const&, fmt::v11::detail::locale_ref)
PUBLIC 347d0 0 fmt::v11::detail::write_int_noinline<char, fmt::v11::basic_appender<char>, unsigned __int128>(fmt::v11::basic_appender<char>, fmt::v11::detail::write_int_arg<unsigned __int128>, fmt::v11::format_specs const&, fmt::v11::detail::locale_ref)
PUBLIC 35838 0 _ZN3fmt3v116detail15format_hexfloatIdTnNSt6__ndk19enable_ifIXntsr16is_double_doubleIT_EE5valueEiE4typeELi0EEEvS5_NS0_12format_specsERNS1_6bufferIcEE
PUBLIC 35d58 0 fmt::v11::detail::format_float<double>(double, int, fmt::v11::detail::float_specs, fmt::v11::detail::buffer<char>&)
PUBLIC 366f8 0 fmt::v11::detail::write<char, fmt::v11::basic_appender<char> >(fmt::v11::basic_appender<char>, fmt::v11::basic_string_view<char>, fmt::v11::format_specs const&)
PUBLIC 37a64 0 fmt::v11::detail::for_each_codepoint<fmt::v11::detail::compute_width(fmt::v11::basic_string_view<char>)::count_code_points>(fmt::v11::basic_string_view<char>, fmt::v11::detail::compute_width(fmt::v11::basic_string_view<char>)::count_code_points)::{lambda(char const*, char const*)#1}::operator()(char const*, char const*) const
PUBLIC 37c1c 0 fmt::v11::detail::write_int<fmt::v11::basic_appender<char>, unsigned long, char>(fmt::v11::basic_appender<char>, unsigned long, unsigned int, fmt::v11::format_specs const&, fmt::v11::detail::digit_grouping<char> const&)
PUBLIC 38198 0 fmt::v11::detail::write_int<fmt::v11::basic_appender<char>, unsigned __int128, char>(fmt::v11::basic_appender<char>, unsigned __int128, unsigned int, fmt::v11::format_specs const&, fmt::v11::detail::digit_grouping<char> const&)
PUBLIC 38820 0 <.plt ELF section in mat.song-preview.android64.so>
STACK CFI INIT 1a760 10 .cfa: sp 0 +
STACK CFI INIT 1a770 8 .cfa: sp 0 +
STACK CFI INIT 1a778 8 .cfa: sp 0 +
STACK CFI INIT 1a780 14 .cfa: sp 0 +
STACK CFI INIT 1a794 1c .cfa: sp 0 +
STACK CFI INIT 1a7b0 10 .cfa: sp 0 +
STACK CFI INIT 1a7c0 30 .cfa: sp 0 +
STACK CFI INIT 1a7f0 98 .cfa: sp 0 +
STACK CFI INIT 1a888 59c .cfa: sp 0 +
STACK CFI INIT 1ae24 8c .cfa: sp 0 +
STACK CFI INIT 1aeb0 30 .cfa: sp 0 +
STACK CFI INIT 1aee0 5c .cfa: sp 0 +
STACK CFI 1aee4 .cfa: sp 16 +
STACK CFI 1aee8 .cfa: x29 16 + .ra: .cfa -8 + ^ x29: .cfa -16 + ^
STACK CFI 1af2c .cfa: sp 16 +
STACK CFI 1af30 .cfa: sp 0 +
STACK CFI 1af34 .cfa: sp 16 +
STACK CFI 1af38 .cfa: sp 0 +
STACK CFI INIT 1af3c 18 .cfa: sp 0 +
STACK CFI INIT 1baf4 18 .cfa: sp 0 +
STACK CFI INIT 1bb0c 10 .cfa: sp 0 +
STACK CFI 1bb10 .cfa: sp 16 +
STACK CFI 1bb14 .cfa: x29 16 + .ra: .cfa -8 + ^ x29: .cfa -16 + ^
STACK CFI INIT 1bfa4 50 .cfa: sp 0 +
STACK CFI 1bfa8 .cfa: sp 32 +
STACK CFI 1bfb0 .cfa: x29 32 + x19: .cfa -16 + ^ .ra: .cfa -24 + ^ x29: .cfa -32 + ^
STACK CFI 1bfc8 .cfa: sp 32 +
STACK CFI 1bfd0 .cfa: sp 0 +
STACK CFI 1bfd4 .cfa: x29 32 +
STACK CFI 1bfe8 .cfa: sp 32 +
STACK CFI 1bff0 .cfa: sp 0 +
STACK CFI INIT 1c068 7c .cfa: sp 0 +
STACK CFI 1c06c .cfa: sp 48 +
STACK CFI 1c078 .cfa: x29 48 + x19: .cfa -8 + ^ x20: .cfa -16 + ^ x21: .cfa -32 + ^ .ra: .cfa -40 + ^ x29: .cfa -48 + ^
STACK CFI 1c0c4 .cfa: sp 48 +
STACK CFI 1c0d0 .cfa: sp 0 +
STACK CFI 1c0d4 .cfa: sp 48 +
STACK CFI 1c0e0 .cfa: sp 0 +
STACK CFI INIT 1c0e4 4 .cfa: sp 0 +
STACK CFI INIT 1c23c 34 .cfa: sp 0 +
STACK CFI 1c240 .cfa: sp 16 +
STACK CFI 1c244 .cfa: x29 16 + .ra: .cfa -8 + ^ x29: .cfa -16 + ^
STACK CFI INIT 1c39c 80 .cfa: sp 0 +
STACK CFI 1c3a0 .cfa: sp 48 +
STACK CFI 1c3ac .cfa: x29 48 + x19: .cfa -8 + ^ x20: .cfa -16 + ^ x21: .cfa -32 + ^ .ra: .cfa -40 + ^ x29: .cfa -48 + ^
STACK CFI 1c40c .cfa: sp 48 +
STACK CFI 1c418 .cfa: sp 0 +
STACK CFI INIT 1c41c 24 .cfa: sp 0 +
STACK CFI 1c420 .cfa: sp 32 +
STACK CFI 1c428 .cfa: x29 32 + x19: .cfa -16 + ^ .ra: .cfa -24 + ^ x29: .cfa -32 + ^
STACK CFI 1c434 .cfa: sp 32 +
STACK CFI 1c43c .cfa: sp 0 +
STACK CFI INIT 1c7c0 14 .cfa: sp 0 +
STACK CFI 1c7c4 .cfa: sp 16 +
STACK CFI 1c7c8 .cfa: x29 16 + .ra: .cfa -8 + ^ x29: .cfa -16 + ^
STACK CFI INIT 1c824 30 .cfa: sp 0 +
STACK CFI 1c828 .cfa: sp 32 +
STACK CFI 1c830 .cfa: x29 32 + x19: .cfa -16 + ^ .ra: .cfa -24 + ^ x29: .cfa -32 + ^
STACK CFI 1c848 .cfa: sp 32 +
STACK CFI 1c850 .cfa: sp 0 +
STACK CFI INIT 1c854 34 .cfa: sp 0 +
STACK CFI 1c858 .cfa: sp 32 +
STACK CFI 1c860 .cfa: x29 32 + x19: .cfa -16 + ^ .ra: .cfa -24 + ^ x29: .cfa -32 + ^
STACK CFI INIT 1ca00 148 .cfa: sp 0 +
STACK CFI 1ca04 .cfa: sp 48 +
STACK CFI 1ca10 .cfa: x29 48 + x19: .cfa -8 + ^ x20: .cfa -16 + ^ x21: .cfa -32 + ^ .ra: .cfa -40 + ^ x29: .cfa -48 + ^
STACK CFI 1cb38 .cfa: sp 48 +
STACK CFI 1cb44 .cfa: sp 0 +
STACK CFI INIT 1cb48 80 .cfa: sp 0 +
STACK CFI 1cb4c .cfa: sp 48 +
STACK CFI 1cb58 .cfa: x29 48 + x19: .cfa -8 + ^ x20: .cfa -16 + ^ x21: .cfa -24 + ^ x22: .cfa -32 + ^ .ra: .cfa -40 + ^ x29: .cfa -48 + ^
STACK CFI 1cb70 .cfa: sp 48 +
STACK CFI 1cb7c .cfa: sp 0 +
STACK CFI 1cb80 .cfa: x29 48 +
STACK CFI 1cbb0 .cfa: sp 48 +
STACK CFI 1cbbc .cfa: sp 0 +
STACK CFI 1cbc0 .cfa: x29 48 +
STACK CFI INIT 1cbc8 68 .cfa: sp 0 +
STACK CFI 1cbcc .cfa: sp 32 +
STACK CFI 1cbd4 .cfa: x29 32 + x19: .cfa -8 + ^ x20: .cfa -16 + ^ .ra: .cfa -24 + ^ x29: .cfa -32 + ^
STACK CFI 1cbec .cfa: sp 32 +
STACK CFI 1cbf4 .cfa: sp 0 +
STACK CFI 1cbf8 .cfa: x29 32 +
STACK CFI 1cc24 .cfa: sp 32 +
STACK CFI 1cc2c .cfa: sp 0 +
STACK CFI INIT 1cc30 14 .cfa: sp 0 +
STACK CFI 1cc34 .cfa: sp 16 +
STACK CFI 1cc38 .cfa: x29 16 + .ra: .cfa -8 + ^ x29: .cfa -16 + ^
STACK CFI INIT 1cc44 4 .cfa: sp 0 +
STACK CFI INIT 1cc48 14 .cfa: sp 0 +
STACK CFI INIT 1cc5c 84 .cfa: sp 0 +
STACK CFI 1cc64 .cfa: sp 32 +
STACK CFI 1cc6c .cfa: x29 32 + x19: .cfa -8 + ^ x20: .cfa -16 + ^ .ra: .cfa -24 + ^ x29: .cfa -32 + ^
STACK CFI 1ccac .cfa: sp 32 +
STACK CFI 1ccb4 .cfa: sp 0 +
STACK CFI 1ccbc .cfa: x29 32 +
STACK CFI INIT 1d20c 50 .cfa: sp 0 +
STACK CFI 1d210 .cfa: sp 32 +
STACK CFI 1d218 .cfa: x29 32 + x19: .cfa -16 + ^ .ra: .cfa -24 + ^ x29: .cfa -32 + ^
STACK CFI 1d230 .cfa: sp 32 +
STACK CFI 1d238 .cfa: sp 0 +
STACK CFI 1d23c .cfa: x29 32 +
STACK CFI 1d250 .cfa: sp 32 +
STACK CFI 1d258 .cfa: sp 0 +
STACK CFI INIT 1d25c 64 .cfa: sp 0 +
STACK CFI 1d260 .cfa: sp 32 +
STACK CFI 1d268 .cfa: x29 32 + x19: .cfa -16 + ^ .ra: .cfa -24 + ^ x29: .cfa -32 + ^
STACK CFI 1d294 .cfa: sp 32 +
STACK CFI 1d29c .cfa: sp 0 +
STACK CFI 1d2a0 .cfa: x29 32 +
STACK CFI 1d2b4 .cfa: sp 32 +
STACK CFI 1d2bc .cfa: sp 0 +
STACK CFI INIT 1d2c0 f8 .cfa: sp 0 +
STACK CFI 1d2c4 .cfa: sp 64 +
STACK CFI 1d2d4 .cfa: x29 64 + x19: .cfa -8 + ^ x20: .cfa -16 + ^ x21: .cfa -24 + ^ x22: .cfa -32 + ^ x23: .cfa -48 + ^ .ra: .cfa -56 + ^ x29: .cfa -64 + ^
STACK CFI 1d330 .cfa: sp 64 +
STACK CFI 1d340 .cfa: sp 0 +
STACK CFI 1d344 .cfa: x29 64 +
STACK CFI 1d360 .cfa: sp 64 +
STACK CFI 1d370 .cfa: sp 0 +
STACK CFI 1d374 .cfa: x29 64 +
STACK CFI 1d3a4 .cfa: sp 64 +
STACK CFI 1d3b4 .cfa: sp 0 +
STACK CFI INIT 1d3b8 50 .cfa: sp 0 +
STACK CFI 1d3bc .cfa: sp 32 +
STACK CFI 1d3c4 .cfa: x29 32 + x19: .cfa -16 + ^ .ra: .cfa -24 + ^ x29: .cfa -32 + ^
STACK CFI 1d3dc .cfa: sp 32 +
STACK CFI 1d3e4 .cfa: sp 0 +
STACK CFI 1d3e8 .cfa: x29 32 +
STACK CFI 1d3fc .cfa: sp 32 +
STACK CFI 1d404 .cfa: sp 0 +
STACK CFI INIT 1d408 8 .cfa: sp 0 +
STACK CFI INIT 1d544 24 .cfa: sp 0 +
STACK CFI 1d548 .cfa: sp 32 +
STACK CFI 1d550 .cfa: x29 32 + x19: .cfa -16 + ^ .ra: .cfa -24 + ^ x29: .cfa -32 + ^
STACK CFI 1d55c .cfa: sp 32 +
STACK CFI 1d564 .cfa: sp 0 +
STACK CFI INIT 1d568 b0 .cfa: sp 0 +
STACK CFI 1d56c .cfa: sp 32 +
STACK CFI 1d574 .cfa: x29 32 + x19: .cfa -8 + ^ x20: .cfa -16 + ^ .ra: .cfa -24 + ^ x29: .cfa -32 + ^
STACK CFI 1d5a0 .cfa: sp 32 +
STACK CFI 1d5a8 .cfa: sp 0 +
STACK CFI 1d5ac .cfa: x29 32 +
STACK CFI 1d5e4 .cfa: sp 32 +
STACK CFI 1d5ec .cfa: sp 0 +
STACK CFI 1d5f0 .cfa: x29 32 +
STACK CFI 1d60c .cfa: sp 32 +
STACK CFI 1d614 .cfa: sp 0 +
STACK CFI INIT 1d618 1b0 .cfa: sp 0 +
STACK CFI 1d61c .cfa: sp 96 +
STACK CFI 1d630 .cfa: x29 64 + x19: .cfa -8 + ^ x20: .cfa -16 + ^ x21: .cfa -24 + ^ x22: .cfa -32 + ^ x23: .cfa -48 + ^ .ra: .cfa -56 + ^ x29: .cfa -64 + ^
STACK CFI 1d754 .cfa: sp 96 +
STACK CFI 1d768 .cfa: sp 0 +
STACK CFI 1d76c .cfa: x29 64 +
STACK CFI INIT 1d7c8 138 .cfa: sp 0 +
STACK CFI 1d7cc .cfa: sp 80 +
STACK CFI 1d7dc .cfa: x29 48 + x19: .cfa -8 + ^ x20: .cfa -16 + ^ x21: .cfa -32 + ^ .ra: .cfa -40 + ^ x29: .cfa -48 + ^
STACK CFI 1d8c4 .cfa: sp 80 +
STACK CFI 1d8d4 .cfa: sp 0 +
STACK CFI 1d8d8 .cfa: x29 48 +
STACK CFI 1d8e8 .cfa: sp 80 +
STACK CFI 1d8f8 .cfa: sp 0 +
STACK CFI 1d8fc .cfa: x29 48 +
STACK CFI INIT 1d900 20 .cfa: sp 0 +
STACK CFI INIT 1d920 2c .cfa: sp 0 +
STACK CFI 1d924 .cfa: sp 32 +
STACK CFI 1d92c .cfa: x29 32 + x19: .cfa -16 + ^ .ra: .cfa -24 + ^ x29: .cfa -32 + ^
STACK CFI 1d940 .cfa: sp 32 +
STACK CFI 1d948 .cfa: sp 0 +
STACK CFI INIT 1d94c 28 .cfa: sp 0 +
STACK CFI INIT 1d974 4 .cfa: sp 0 +
STACK CFI INIT 1d978 8 .cfa: sp 0 +
STACK CFI INIT 1f04c 40 .cfa: sp 0 +
STACK CFI 1f050 .cfa: sp 32 +
STACK CFI 1f058 .cfa: x29 32 + x19: .cfa -16 + ^ .ra: .cfa -24 + ^ x29: .cfa -32 + ^
STACK CFI 1f080 .cfa: sp 32 +
STACK CFI 1f088 .cfa: sp 0 +
STACK CFI INIT 1f1ac 10 .cfa: sp 0 +
STACK CFI INIT 1f1bc 8 .cfa: sp 0 +
STACK CFI INIT 1f1c4 28 .cfa: sp 0 +
STACK CFI 1f1c8 .cfa: sp 32 +
STACK CFI 1f1d0 .cfa: x29 32 + x19: .cfa -16 + ^ .ra: .cfa -24 + ^ x29: .cfa -32 + ^
STACK CFI 1f1e0 .cfa: sp 32 +
STACK CFI 1f1e8 .cfa: sp 0 +
STACK CFI INIT 1f1ec 8 .cfa: sp 0 +
STACK CFI INIT 1f1f4 8 .cfa: sp 0 +
STACK CFI INIT 1f1fc 24 .cfa: sp 0 +
STACK CFI INIT 1f220 2c .cfa: sp 0 +
STACK CFI INIT 1f24c 4 .cfa: sp 0 +
STACK CFI INIT 1f250 4 .cfa: sp 0 +
STACK CFI INIT 1f254 4 .cfa: sp 0 +
STACK CFI INIT 1f258 4 .cfa: sp 0 +
STACK CFI INIT 1f25c 4 .cfa: sp 0 +
STACK CFI INIT 1f260 8 .cfa: sp 0 +
STACK CFI INIT 1f268 8 .cfa: sp 0 +
STACK CFI INIT 1f270 10 .cfa: sp 0 +
STACK CFI INIT 1f2ec 4 .cfa: sp 0 +
STACK CFI INIT 1f4a4 4 .cfa: sp 0 +
STACK CFI INIT 1f4a8 60 .cfa: sp 0 +
STACK CFI 1f4ac .cfa: sp 32 +
STACK CFI 1f4b4 .cfa: x29 32 + x19: .cfa -8 + ^ x20: .cfa -16 + ^ .ra: .cfa -24 + ^ x29: .cfa -32 + ^
STACK CFI 1f4d4 .cfa: sp 32 +
STACK CFI 1f4dc .cfa: sp 0 +
STACK CFI 1f4e0 .cfa: x29 32 +
STACK CFI 1f4fc .cfa: sp 32 +
STACK CFI 1f504 .cfa: sp 0 +
STACK CFI INIT 1f508 70 .cfa: sp 0 +
STACK CFI 1f50c .cfa: sp 32 +
STACK CFI 1f514 .cfa: x29 32 + x19: .cfa -8 + ^ x20: .cfa -16 + ^ .ra: .cfa -24 + ^ x29: .cfa -32 + ^
STACK CFI 1f53c .cfa: sp 32 +
STACK CFI 1f544 .cfa: sp 0 +
STACK CFI 1f548 .cfa: x29 32 +
STACK CFI 1f56c .cfa: sp 32 +
STACK CFI 1f574 .cfa: sp 0 +
STACK CFI INIT 1f578 10 .cfa: sp 0 +
STACK CFI INIT 1f588 30 .cfa: sp 0 +
STACK CFI 1f58c .cfa: sp 32 +
STACK CFI 1f594 .cfa: x29 32 + x19: .cfa -16 + ^ .ra: .cfa -24 + ^ x29: .cfa -32 + ^
STACK CFI 1f5ac .cfa: sp 32 +
STACK CFI 1f5b4 .cfa: sp 0 +
STACK CFI INIT 1f5b8 4 .cfa: sp 0 +
STACK CFI INIT 1f5bc 4 .cfa: sp 0 +
STACK CFI INIT 1f7c4 4 .cfa: sp 0 +
STACK CFI INIT 1f974 9c .cfa: sp 0 +
STACK CFI 1f978 .cfa: sp 32 +
STACK CFI 1f980 .cfa: x29 32 + x19: .cfa -8 + ^ x20: .cfa -16 + ^ .ra: .cfa -24 + ^ x29: .cfa -32 + ^
STACK CFI 1fa04 .cfa: sp 32 +
STACK CFI 1fa0c .cfa: sp 0 +
STACK CFI INIT 1fa10 a4 .cfa: sp 0 +
STACK CFI 1fa14 .cfa: sp 32 +
STACK CFI 1fa1c .cfa: x29 32 + x19: .cfa -8 + ^ x20: .cfa -16 + ^ .ra: .cfa -24 + ^ x29: .cfa -32 + ^
STACK CFI 1faa8 .cfa: sp 32 +
STACK CFI 1fab0 .cfa: sp 0 +
STACK CFI INIT 1fab4 50 .cfa: sp 0 +
STACK CFI 1fab8 .cfa: sp 32 +
STACK CFI 1fac0 .cfa: x29 32 + x19: .cfa -16 + ^ .ra: .cfa -24 + ^ x29: .cfa -32 + ^
STACK CFI 1fad8 .cfa: sp 32 +
STACK CFI 1fae0 .cfa: sp 0 +
STACK CFI 1fae4 .cfa: x29 32 +
STACK CFI 1faf8 .cfa: sp 32 +
STACK CFI 1fb00 .cfa: sp 0 +
STACK CFI INIT 1fb04 50 .cfa: sp 0 +
STACK CFI 1fb08 .cfa: sp 32 +
STACK CFI 1fb10 .cfa: x29 32 + x19: .cfa -16 + ^ .ra: .cfa -24 + ^ x29: .cfa -32 + ^
STACK CFI 1fb28 .cfa: sp 32 +
STACK CFI 1fb30 .cfa: sp 0 +
STACK CFI 1fb34 .cfa: x29 32 +
STACK CFI 1fb48 .cfa: sp 32 +
STACK CFI 1fb50 .cfa: sp 0 +
STACK CFI INIT 1fb54 5c .cfa: sp 0 +
STACK CFI 1fb58 .cfa: sp 32 +
STACK CFI 1fb60 .cfa: x29 32 + x19: .cfa -16 + ^ .ra: .cfa -24 + ^ x29: .cfa -32 + ^
STACK CFI 1fb84 .cfa: sp 32 +
STACK CFI 1fb8c .cfa: sp 0 +
STACK CFI 1fb90 .cfa: x29 32 +
STACK CFI 1fba4 .cfa: sp 32 +
STACK CFI 1fbac .cfa: sp 0 +
STACK CFI INIT 1fbb0 6c .cfa: sp 0 +
STACK CFI 1fbb4 .cfa: sp 32 +
STACK CFI 1fbbc .cfa: x29 32 + x19: .cfa -8 + ^ x20: .cfa -16 + ^ .ra: .cfa -24 + ^ x29: .cfa -32 + ^
STACK CFI 1fbe8 .cfa: sp 32 +
STACK CFI 1fbf0 .cfa: sp 0 +
STACK CFI 1fbf4 .cfa: x29 32 +
STACK CFI 1fc10 .cfa: sp 32 +
STACK CFI 1fc18 .cfa: sp 0 +
STACK CFI INIT 1fc1c 58 .cfa: sp 0 +
STACK CFI 1fc20 .cfa: sp 32 +
STACK CFI 1fc28 .cfa: x29 32 + x19: .cfa -8 + ^ x20: .cfa -16 + ^ .ra: .cfa -24 + ^ x29: .cfa -32 + ^
STACK CFI 1fc68 .cfa: sp 32 +
STACK CFI 1fc70 .cfa: sp 0 +
STACK CFI INIT 1fc74 4c .cfa: sp 0 +
STACK CFI 1fc78 .cfa: sp 32 +
STACK CFI 1fc80 .cfa: x29 32 + x19: .cfa -8 + ^ x20: .cfa -16 + ^ .ra: .cfa -24 + ^ x29: .cfa -32 + ^
STACK CFI 1fcb4 .cfa: sp 32 +
STACK CFI 1fcbc .cfa: sp 0 +
STACK CFI INIT 1fcc0 50 .cfa: sp 0 +
STACK CFI 1fcc4 .cfa: sp 32 +
STACK CFI 1fccc .cfa: x29 32 + x19: .cfa -16 + ^ .ra: .cfa -24 + ^ x29: .cfa -32 + ^
STACK CFI 1fce4 .cfa: sp 32 +
STACK CFI 1fcec .cfa: sp 0 +
STACK CFI 1fcf0 .cfa: x29 32 +
STACK CFI 1fd04 .cfa: sp 32 +
STACK CFI 1fd0c .cfa: sp 0 +
STACK CFI INIT 1fd10 60 .cfa: sp 0 +
STACK CFI 1fd14 .cfa: sp 32 +
STACK CFI 1fd1c .cfa: x29 32 + x19: .cfa -8 + ^ x20: .cfa -16 + ^ .ra: .cfa -24 + ^ x29: .cfa -32 + ^
STACK CFI 1fd3c .cfa: sp 32 +
STACK CFI 1fd44 .cfa: sp 0 +
STACK CFI 1fd48 .cfa: x29 32 +
STACK CFI 1fd64 .cfa: sp 32 +
STACK CFI 1fd6c .cfa: sp 0 +
STACK CFI INIT 1ff40 1c .cfa: sp 0 +
STACK CFI INIT 1ff5c c .cfa: sp 0 +
STACK CFI INIT 1ff68 50 .cfa: sp 0 +
STACK CFI 1ff6c .cfa: sp 32 +
STACK CFI 1ff74 .cfa: x29 32 + x19: .cfa -16 + ^ .ra: .cfa -24 + ^ x29: .cfa -32 + ^
STACK CFI 1ff8c .cfa: sp 32 +
STACK CFI 1ff94 .cfa: sp 0 +
STACK CFI 1ff98 .cfa: x29 32 +
STACK CFI 1ffac .cfa: sp 32 +
STACK CFI 1ffb4 .cfa: sp 0 +
STACK CFI INIT 1ffb8 60 .cfa: sp 0 +
STACK CFI 1ffbc .cfa: sp 32 +
STACK CFI 1ffc4 .cfa: x29 32 + x19: .cfa -8 + ^ x20: .cfa -16 + ^ .ra: .cfa -24 + ^ x29: .cfa -32 + ^
STACK CFI 1ffe4 .cfa: sp 32 +
STACK CFI 1ffec .cfa: sp 0 +
STACK CFI 1fff0 .cfa: x29 32 +
STACK CFI 2000c .cfa: sp 32 +
STACK CFI 20014 .cfa: sp 0 +
STACK CFI INIT 20018 70 .cfa: sp 0 +
STACK CFI 2001c .cfa: sp 32 +
STACK CFI 20024 .cfa: x29 32 + x19: .cfa -8 + ^ x20: .cfa -16 + ^ .ra: .cfa -24 + ^ x29: .cfa -32 + ^
STACK CFI 2004c .cfa: sp 32 +
STACK CFI 20054 .cfa: sp 0 +
STACK CFI 20058 .cfa: x29 32 +
STACK CFI 2007c .cfa: sp 32 +
STACK CFI 20084 .cfa: sp 0 +
STACK CFI INIT 20088 5c .cfa: sp 0 +
STACK CFI 2008c .cfa: sp 32 +
STACK CFI 20094 .cfa: x29 32 + x19: .cfa -16 + ^ .ra: .cfa -24 + ^ x29: .cfa -32 + ^
STACK CFI 200b8 .cfa: sp 32 +
STACK CFI 200c0 .cfa: sp 0 +
STACK CFI 200c4 .cfa: x29 32 +
STACK CFI 200d8 .cfa: sp 32 +
STACK CFI 200e0 .cfa: sp 0 +
STACK CFI INIT 200e4 6c .cfa: sp 0 +
STACK CFI 200e8 .cfa: sp 32 +
STACK CFI 200f0 .cfa: x29 32 + x19: .cfa -8 + ^ x20: .cfa -16 + ^ .ra: .cfa -24 + ^ x29: .cfa -32 + ^
STACK CFI 2011c .cfa: sp 32 +
STACK CFI 20124 .cfa: sp 0 +
STACK CFI 20128 .cfa: x29 32 +
STACK CFI 20144 .cfa: sp 32 +
STACK CFI 2014c .cfa: sp 0 +
STACK CFI INIT 20150 58 .cfa: sp 0 +
STACK CFI 20154 .cfa: sp 32 +
STACK CFI 2015c .cfa: x29 32 + x19: .cfa -8 + ^ x20: .cfa -16 + ^ .ra: .cfa -24 + ^ x29: .cfa -32 + ^
STACK CFI 2019c .cfa: sp 32 +
STACK CFI 201a4 .cfa: sp 0 +
STACK CFI INIT 201a8 4c .cfa: sp 0 +
STACK CFI 201ac .cfa: sp 32 +
STACK CFI 201b4 .cfa: x29 32 + x19: .cfa -8 + ^ x20: .cfa -16 + ^ .ra: .cfa -24 + ^ x29: .cfa -32 + ^
STACK CFI 201e8 .cfa: sp 32 +
STACK CFI 201f0 .cfa: sp 0 +
STACK CFI INIT 201f4 50 .cfa: sp 0 +
STACK CFI 201f8 .cfa: sp 32 +
STACK CFI 20200 .cfa: x29 32 + x19: .cfa -16 + ^ .ra: .cfa -24 + ^ x29: .cfa -32 + ^
STACK CFI 20218 .cfa: sp 32 +
STACK CFI 20220 .cfa: sp 0 +
STACK CFI 20224 .cfa: x29 32 +
STACK CFI 20238 .cfa: sp 32 +
STACK CFI 20240 .cfa: sp 0 +
STACK CFI INIT 20244 60 .cfa: sp 0 +
STACK CFI 20248 .cfa: sp 32 +
STACK CFI 20250 .cfa: x29 32 + x19: .cfa -8 + ^ x20: .cfa -16 + ^ .ra: .cfa -24 + ^ x29: .cfa -32 + ^
STACK CFI 20270 .cfa: sp 32 +
STACK CFI 20278 .cfa: sp 0 +
STACK CFI 2027c .cfa: x29 32 +
STACK CFI 20298 .cfa: sp 32 +
STACK CFI 202a0 .cfa: sp 0 +
STACK CFI INIT 20468 1c .cfa: sp 0 +
STACK CFI INIT 20484 c .cfa: sp 0 +
STACK CFI INIT 20490 34 .cfa: sp 0 +
STACK CFI 20494 .cfa: sp 16 +
STACK CFI 20498 .cfa: x29 16 + .ra: .cfa -8 + ^ x29: .cfa -16 + ^
STACK CFI INIT 204c4 24 .cfa: sp 0 +
STACK CFI 204c8 .cfa: sp 32 +
STACK CFI 204d0 .cfa: x29 32 + x19: .cfa -16 + ^ .ra: .cfa -24 + ^ x29: .cfa -32 + ^
STACK CFI 204dc .cfa: sp 32 +
STACK CFI 204e4 .cfa: sp 0 +
STACK CFI INIT 20bd0 50 .cfa: sp 0 +
STACK CFI 20bd4 .cfa: sp 32 +
STACK CFI 20bdc .cfa: x29 32 + x19: .cfa -16 + ^ .ra: .cfa -24 + ^ x29: .cfa -32 + ^
STACK CFI 20c14 .cfa: sp 32 +
STACK CFI 20c1c .cfa: sp 0 +
STACK CFI INIT 20d38 54 .cfa: sp 0 +
STACK CFI 20d3c .cfa: sp 32 +
STACK CFI 20d44 .cfa: x29 32 + x19: .cfa -16 + ^ .ra: .cfa -24 + ^ x29: .cfa -32 + ^
STACK CFI 20d80 .cfa: sp 32 +
STACK CFI 20d88 .cfa: sp 0 +
STACK CFI INIT 20d8c 70 .cfa: sp 0 +
STACK CFI 20d90 .cfa: sp 32 +
STACK CFI 20d98 .cfa: x29 32 + x19: .cfa -16 + ^ .ra: .cfa -24 + ^ x29: .cfa -32 + ^
STACK CFI 20de4 .cfa: sp 32 +
STACK CFI 20dec .cfa: sp 0 +
STACK CFI 20df0 .cfa: sp 32 +
STACK CFI 20df8 .cfa: sp 0 +
STACK CFI INIT 20dfc 10 .cfa: sp 0 +
STACK CFI INIT 20e0c 30 .cfa: sp 0 +
STACK CFI 20e10 .cfa: sp 32 +
STACK CFI 20e18 .cfa: x29 32 + x19: .cfa -16 + ^ .ra: .cfa -24 + ^ x29: .cfa -32 + ^
STACK CFI 20e30 .cfa: sp 32 +
STACK CFI 20e38 .cfa: sp 0 +
STACK CFI INIT 20ef0 4 .cfa: sp 0 +
STACK CFI INIT 21548 3c .cfa: sp 0 +
STACK CFI 2154c .cfa: sp 32 +
STACK CFI 21554 .cfa: x29 32 + x19: .cfa -16 + ^ .ra: .cfa -24 + ^ x29: .cfa -32 + ^
STACK CFI 2156c .cfa: sp 32 +
STACK CFI 21574 .cfa: sp 0 +
STACK CFI 21578 .cfa: sp 32 +
STACK CFI 21580 .cfa: sp 0 +
STACK CFI INIT 215f8 20 .cfa: sp 0 +
STACK CFI INIT 21618 3c .cfa: sp 0 +
STACK CFI 21630 .cfa: sp 32 +
STACK CFI 21638 .cfa: x29 32 + x19: .cfa -16 + ^ .ra: .cfa -24 + ^ x29: .cfa -32 + ^
STACK CFI 21648 .cfa: sp 32 +
STACK CFI 21650 .cfa: sp 0 +
STACK CFI INIT 21654 50 .cfa: sp 0 +
STACK CFI 21658 .cfa: sp 32 +
STACK CFI 21660 .cfa: x29 32 + x19: .cfa -16 + ^ .ra: .cfa -24 + ^ x29: .cfa -32 + ^
STACK CFI 21698 .cfa: sp 32 +
STACK CFI 216a0 .cfa: sp 0 +
STACK CFI INIT 216a4 34 .cfa: sp 0 +
STACK CFI 216c0 .cfa: sp 16 +
STACK CFI 216c4 .cfa: x29 16 + .ra: .cfa -8 + ^ x29: .cfa -16 + ^
STACK CFI 216d0 .cfa: sp 16 +
STACK CFI 216d4 .cfa: sp 0 +
STACK CFI INIT 216d8 10 .cfa: sp 0 +
STACK CFI INIT 216e8 30 .cfa: sp 0 +
STACK CFI 216f4 .cfa: sp 32 +
STACK CFI 216fc .cfa: x29 32 + x19: .cfa -16 + ^ .ra: .cfa -24 + ^ x29: .cfa -32 + ^
STACK CFI 2170c .cfa: sp 32 +
STACK CFI 21714 .cfa: sp 0 +
STACK CFI INIT 2188c 1c .cfa: sp 0 +
STACK CFI INIT 218a8 c .cfa: sp 0 +
STACK CFI INIT 218b4 5c .cfa: sp 0 +
STACK CFI 218b8 .cfa: sp 32 +
STACK CFI 218c0 .cfa: x29 32 + x19: .cfa -16 + ^ .ra: .cfa -24 + ^ x29: .cfa -32 + ^
STACK CFI 218e4 .cfa: sp 32 +
STACK CFI 218ec .cfa: sp 0 +
STACK CFI 218f0 .cfa: x29 32 +
STACK CFI 21904 .cfa: sp 32 +
STACK CFI 2190c .cfa: sp 0 +
STACK CFI INIT 21910 6c .cfa: sp 0 +
STACK CFI 21914 .cfa: sp 32 +
STACK CFI 2191c .cfa: x29 32 + x19: .cfa -8 + ^ x20: .cfa -16 + ^ .ra: .cfa -24 + ^ x29: .cfa -32 + ^
STACK CFI 21948 .cfa: sp 32 +
STACK CFI 21950 .cfa: sp 0 +
STACK CFI 21954 .cfa: x29 32 +
STACK CFI 21970 .cfa: sp 32 +
STACK CFI 21978 .cfa: sp 0 +
STACK CFI INIT 2197c 50 .cfa: sp 0 +
STACK CFI 21980 .cfa: sp 32 +
STACK CFI 21988 .cfa: x29 32 + x19: .cfa -16 + ^ .ra: .cfa -24 + ^ x29: .cfa -32 + ^
STACK CFI 219c0 .cfa: sp 32 +
STACK CFI 219c8 .cfa: sp 0 +
STACK CFI INIT 219cc 34 .cfa: sp 0 +
STACK CFI 219e8 .cfa: sp 16 +
STACK CFI 219ec .cfa: x29 16 + .ra: .cfa -8 + ^ x29: .cfa -16 + ^
STACK CFI 219f8 .cfa: sp 16 +
STACK CFI 219fc .cfa: sp 0 +
STACK CFI INIT 21a00 50 .cfa: sp 0 +
STACK CFI 21a04 .cfa: sp 32 +
STACK CFI 21a0c .cfa: x29 32 + x19: .cfa -16 + ^ .ra: .cfa -24 + ^ x29: .cfa -32 + ^
STACK CFI 21a24 .cfa: sp 32 +
STACK CFI 21a2c .cfa: sp 0 +
STACK CFI 21a30 .cfa: x29 32 +
STACK CFI 21a44 .cfa: sp 32 +
STACK CFI 21a4c .cfa: sp 0 +
STACK CFI INIT 21a50 60 .cfa: sp 0 +
STACK CFI 21a54 .cfa: sp 32 +
STACK CFI 21a5c .cfa: x29 32 + x19: .cfa -8 + ^ x20: .cfa -16 + ^ .ra: .cfa -24 + ^ x29: .cfa -32 + ^
STACK CFI 21a7c .cfa: sp 32 +
STACK CFI 21a84 .cfa: sp 0 +
STACK CFI 21a88 .cfa: x29 32 +
STACK CFI 21aa4 .cfa: sp 32 +
STACK CFI 21aac .cfa: sp 0 +
STACK CFI INIT 21c64 1c .cfa: sp 0 +
STACK CFI INIT 21c80 c .cfa: sp 0 +
STACK CFI INIT 21c8c 20 .cfa: sp 0 +
STACK CFI INIT 21cac 3c .cfa: sp 0 +
STACK CFI 21cc4 .cfa: sp 32 +
STACK CFI 21ccc .cfa: x29 32 + x19: .cfa -16 + ^ .ra: .cfa -24 + ^ x29: .cfa -32 + ^
STACK CFI 21cdc .cfa: sp 32 +
STACK CFI 21ce4 .cfa: sp 0 +
STACK CFI INIT 21ce8 50 .cfa: sp 0 +
STACK CFI 21cec .cfa: sp 32 +
STACK CFI 21cf4 .cfa: x29 32 + x19: .cfa -16 + ^ .ra: .cfa -24 + ^ x29: .cfa -32 + ^
STACK CFI 21d2c .cfa: sp 32 +
STACK CFI 21d34 .cfa: sp 0 +
STACK CFI INIT 21d38 34 .cfa: sp 0 +
STACK CFI 21d54 .cfa: sp 16 +
STACK CFI 21d58 .cfa: x29 16 + .ra: .cfa -8 + ^ x29: .cfa -16 + ^
STACK CFI 21d64 .cfa: sp 16 +
STACK CFI 21d68 .cfa: sp 0 +
STACK CFI INIT 21d6c 10 .cfa: sp 0 +
STACK CFI INIT 21d7c 30 .cfa: sp 0 +
STACK CFI 21d88 .cfa: sp 32 +
STACK CFI 21d90 .cfa: x29 32 + x19: .cfa -16 + ^ .ra: .cfa -24 + ^ x29: .cfa -32 + ^
STACK CFI 21da0 .cfa: sp 32 +
STACK CFI 21da8 .cfa: sp 0 +
STACK CFI INIT 21ea8 1c .cfa: sp 0 +
STACK CFI INIT 21ec4 c .cfa: sp 0 +
STACK CFI INIT 21ed0 5c .cfa: sp 0 +
STACK CFI 21ed4 .cfa: sp 32 +
STACK CFI 21edc .cfa: x29 32 + x19: .cfa -16 + ^ .ra: .cfa -24 + ^ x29: .cfa -32 + ^
STACK CFI 21f00 .cfa: sp 32 +
STACK CFI 21f08 .cfa: sp 0 +
STACK CFI 21f0c .cfa: x29 32 +
STACK CFI 21f20 .cfa: sp 32 +
STACK CFI 21f28 .cfa: sp 0 +
STACK CFI INIT 21f2c 6c .cfa: sp 0 +
STACK CFI 21f30 .cfa: sp 32 +
STACK CFI 21f38 .cfa: x29 32 + x19: .cfa -8 + ^ x20: .cfa -16 + ^ .ra: .cfa -24 + ^ x29: .cfa -32 + ^
STACK CFI 21f64 .cfa: sp 32 +
STACK CFI 21f6c .cfa: sp 0 +
STACK CFI 21f70 .cfa: x29 32 +
STACK CFI 21f8c .cfa: sp 32 +
STACK CFI 21f94 .cfa: sp 0 +
STACK CFI INIT 21f98 50 .cfa: sp 0 +
STACK CFI 21f9c .cfa: sp 32 +
STACK CFI 21fa4 .cfa: x29 32 + x19: .cfa -16 + ^ .ra: .cfa -24 + ^ x29: .cfa -32 + ^
STACK CFI 21fdc .cfa: sp 32 +
STACK CFI 21fe4 .cfa: sp 0 +
STACK CFI INIT 21fe8 34 .cfa: sp 0 +
STACK CFI 22004 .cfa: sp 16 +
STACK CFI 22008 .cfa: x29 16 + .ra: .cfa -8 + ^ x29: .cfa -16 + ^
STACK CFI 22014 .cfa: sp 16 +
STACK CFI 22018 .cfa: sp 0 +
STACK CFI INIT 2201c 50 .cfa: sp 0 +
STACK CFI 22020 .cfa: sp 32 +
STACK CFI 22028 .cfa: x29 32 + x19: .cfa -16 + ^ .ra: .cfa -24 + ^ x29: .cfa -32 + ^
STACK CFI 22040 .cfa: sp 32 +
STACK CFI 22048 .cfa: sp 0 +
STACK CFI 2204c .cfa: x29 32 +
STACK CFI 22060 .cfa: sp 32 +
STACK CFI 22068 .cfa: sp 0 +
STACK CFI INIT 2206c 60 .cfa: sp 0 +
STACK CFI 22070 .cfa: sp 32 +
STACK CFI 22078 .cfa: x29 32 + x19: .cfa -8 + ^ x20: .cfa -16 + ^ .ra: .cfa -24 + ^ x29: .cfa -32 + ^
STACK CFI 22098 .cfa: sp 32 +
STACK CFI 220a0 .cfa: sp 0 +
STACK CFI 220a4 .cfa: x29 32 +
STACK CFI 220c0 .cfa: sp 32 +
STACK CFI 220c8 .cfa: sp 0 +
STACK CFI INIT 22288 1c .cfa: sp 0 +
STACK CFI INIT 222a4 c .cfa: sp 0 +
STACK CFI INIT 222b0 5c .cfa: sp 0 +
STACK CFI 222b4 .cfa: sp 32 +
STACK CFI 222bc .cfa: x29 32 + x19: .cfa -16 + ^ .ra: .cfa -24 + ^ x29: .cfa -32 + ^
STACK CFI 222e0 .cfa: sp 32 +
STACK CFI 222e8 .cfa: sp 0 +
STACK CFI 222ec .cfa: x29 32 +
STACK CFI 22300 .cfa: sp 32 +
STACK CFI 22308 .cfa: sp 0 +
STACK CFI INIT 2230c 6c .cfa: sp 0 +
STACK CFI 22310 .cfa: sp 32 +
STACK CFI 22318 .cfa: x29 32 + x19: .cfa -8 + ^ x20: .cfa -16 + ^ .ra: .cfa -24 + ^ x29: .cfa -32 + ^
STACK CFI 22344 .cfa: sp 32 +
STACK CFI 2234c .cfa: sp 0 +
STACK CFI 22350 .cfa: x29 32 +
STACK CFI 2236c .cfa: sp 32 +
STACK CFI 22374 .cfa: sp 0 +
STACK CFI INIT 22378 58 .cfa: sp 0 +
STACK CFI 2237c .cfa: sp 32 +
STACK CFI 22384 .cfa: x29 32 + x19: .cfa -8 + ^ x20: .cfa -16 + ^ .ra: .cfa -24 + ^ x29: .cfa -32 + ^
STACK CFI 223c4 .cfa: sp 32 +
STACK CFI 223cc .cfa: sp 0 +
STACK CFI INIT 223d0 4c .cfa: sp 0 +
STACK CFI 223d4 .cfa: sp 32 +
STACK CFI 223dc .cfa: x29 32 + x19: .cfa -8 + ^ x20: .cfa -16 + ^ .ra: .cfa -24 + ^ x29: .cfa -32 + ^
STACK CFI 22410 .cfa: sp 32 +
STACK CFI 22418 .cfa: sp 0 +
STACK CFI INIT 2241c 50 .cfa: sp 0 +
STACK CFI 22420 .cfa: sp 32 +
STACK CFI 22428 .cfa: x29 32 + x19: .cfa -16 + ^ .ra: .cfa -24 + ^ x29: .cfa -32 + ^
STACK CFI 22440 .cfa: sp 32 +
STACK CFI 22448 .cfa: sp 0 +
STACK CFI 2244c .cfa: x29 32 +
STACK CFI 22460 .cfa: sp 32 +
STACK CFI 22468 .cfa: sp 0 +
STACK CFI INIT 2246c 60 .cfa: sp 0 +
STACK CFI 22470 .cfa: sp 32 +
STACK CFI 22478 .cfa: x29 32 + x19: .cfa -8 + ^ x20: .cfa -16 + ^ .ra: .cfa -24 + ^ x29: .cfa -32 + ^
STACK CFI 22498 .cfa: sp 32 +
STACK CFI 224a0 .cfa: sp 0 +
STACK CFI 224a4 .cfa: x29 32 +
STACK CFI 224c0 .cfa: sp 32 +
STACK CFI 224c8 .cfa: sp 0 +
STACK CFI INIT 22698 1c .cfa: sp 0 +
STACK CFI INIT 226b4 c .cfa: sp 0 +
STACK CFI INIT 226c0 14 .cfa: sp 0 +
STACK CFI INIT 226d4 4 .cfa: sp 0 +
STACK CFI INIT 226d8 9c .cfa: sp 0 +
STACK CFI 226dc .cfa: sp 32 +
STACK CFI 226e4 .cfa: x29 32 + x19: .cfa -8 + ^ x20: .cfa -16 + ^ .ra: .cfa -24 + ^ x29: .cfa -32 + ^
STACK CFI 2270c .cfa: sp 32 +
STACK CFI 22714 .cfa: sp 0 +
STACK CFI 22718 .cfa: x29 32 +
STACK CFI 22768 .cfa: sp 32 +
STACK CFI 22770 .cfa: sp 0 +
STACK CFI INIT 22774 4 .cfa: sp 0 +
STACK CFI INIT 22778 4 .cfa: sp 0 +
STACK CFI INIT 2277c 38 .cfa: sp 0 +
STACK CFI 22780 .cfa: sp 32 +
STACK CFI 22788 .cfa: x29 32 + x19: .cfa -16 + ^ .ra: .cfa -24 + ^ x29: .cfa -32 + ^
STACK CFI 227a8 .cfa: sp 32 +
STACK CFI 227b0 .cfa: sp 0 +
STACK CFI INIT 227b4 18 .cfa: sp 0 +
STACK CFI INIT 227cc 4 .cfa: sp 0 +
STACK CFI INIT 227d0 4 .cfa: sp 0 +
STACK CFI INIT 23014 1c .cfa: sp 0 +
STACK CFI INIT 23030 c .cfa: sp 0 +
STACK CFI INIT 2303c 14 .cfa: sp 0 +
STACK CFI 23040 .cfa: sp 16 +
STACK CFI 23044 .cfa: x29 16 + .ra: .cfa -8 + ^ x29: .cfa -16 + ^
STACK CFI INIT 23050 4 .cfa: sp 0 +
STACK CFI INIT 23054 4 .cfa: sp 0 +
STACK CFI INIT 23058 34 .cfa: sp 0 +
STACK CFI 2305c .cfa: sp 32 +
STACK CFI 23064 .cfa: x29 32 + x19: .cfa -16 + ^ .ra: .cfa -24 + ^ x29: .cfa -32 + ^
STACK CFI 23080 .cfa: sp 32 +
STACK CFI 23088 .cfa: sp 0 +
STACK CFI INIT 2308c 14 .cfa: sp 0 +
STACK CFI INIT 230a0 4 .cfa: sp 0 +
STACK CFI INIT 230a4 4 .cfa: sp 0 +
STACK CFI INIT 233c0 1c .cfa: sp 0 +
STACK CFI INIT 233dc c .cfa: sp 0 +
STACK CFI INIT 23550 4 .cfa: sp 0 +
STACK CFI INIT 23554 14 .cfa: sp 0 +
STACK CFI INIT 23568 4 .cfa: sp 0 +
STACK CFI INIT 2356c 4 .cfa: sp 0 +
STACK CFI INIT 23570 34 .cfa: sp 0 +
STACK CFI 23574 .cfa: sp 32 +
STACK CFI 2357c .cfa: x29 32 + x19: .cfa -16 + ^ .ra: .cfa -24 + ^ x29: .cfa -32 + ^
STACK CFI 23598 .cfa: sp 32 +
STACK CFI 235a0 .cfa: sp 0 +
STACK CFI INIT 235a4 14 .cfa: sp 0 +
STACK CFI INIT 235b8 4 .cfa: sp 0 +
STACK CFI INIT 235bc 4 .cfa: sp 0 +
STACK CFI INIT 235c0 c .cfa: sp 0 +
STACK CFI INIT 235cc 1c .cfa: sp 0 +
STACK CFI INIT 235e8 c .cfa: sp 0 +
STACK CFI INIT 23700 4 .cfa: sp 0 +
STACK CFI INIT 23704 34 .cfa: sp 0 +
STACK CFI 23708 .cfa: sp 32 +
STACK CFI 23710 .cfa: x29 32 + x19: .cfa -16 + ^ .ra: .cfa -24 + ^ x29: .cfa -32 + ^
STACK CFI 2372c .cfa: sp 32 +
STACK CFI 23734 .cfa: sp 0 +
STACK CFI INIT 23738 14 .cfa: sp 0 +
STACK CFI INIT 2374c 4 .cfa: sp 0 +
STACK CFI INIT 23750 4 .cfa: sp 0 +
STACK CFI INIT 23754 60 .cfa: sp 0 +
STACK CFI 23758 .cfa: sp 48 +
STACK CFI 23764 .cfa: x29 32 + x19: .cfa -16 + ^ .ra: .cfa -24 + ^ x29: .cfa -32 + ^
STACK CFI 237a0 .cfa: sp 48 +
STACK CFI 237ac .cfa: sp 0 +
STACK CFI 237b0 .cfa: x29 32 +
STACK CFI INIT 237b4 1c .cfa: sp 0 +
STACK CFI INIT 237d0 c .cfa: sp 0 +
STACK CFI INIT 237dc 4 .cfa: sp 0 +
STACK CFI INIT 237e0 4 .cfa: sp 0 +
STACK CFI INIT 237e4 34 .cfa: sp 0 +
STACK CFI 237e8 .cfa: sp 32 +
STACK CFI 237f0 .cfa: x29 32 + x19: .cfa -16 + ^ .ra: .cfa -24 + ^ x29: .cfa -32 + ^
STACK CFI 2380c .cfa: sp 32 +
STACK CFI 23814 .cfa: sp 0 +
STACK CFI INIT 23818 14 .cfa: sp 0 +
STACK CFI INIT 2382c 4 .cfa: sp 0 +
STACK CFI INIT 23830 4 .cfa: sp 0 +
STACK CFI INIT 23834 68 .cfa: sp 0 +
STACK CFI 23838 .cfa: sp 48 +
STACK CFI 23844 .cfa: x29 32 + x19: .cfa -16 + ^ .ra: .cfa -24 + ^ x29: .cfa -32 + ^
STACK CFI 23888 .cfa: sp 48 +
STACK CFI 23894 .cfa: sp 0 +
STACK CFI 23898 .cfa: x29 32 +
STACK CFI INIT 2389c 1c .cfa: sp 0 +
STACK CFI INIT 238b8 c .cfa: sp 0 +
STACK CFI INIT 238c4 4 .cfa: sp 0 +
STACK CFI INIT 238c8 4 .cfa: sp 0 +
STACK CFI INIT 238cc 34 .cfa: sp 0 +
STACK CFI 238d0 .cfa: sp 32 +
STACK CFI 238d8 .cfa: x29 32 + x19: .cfa -16 + ^ .ra: .cfa -24 + ^ x29: .cfa -32 + ^
STACK CFI 238f4 .cfa: sp 32 +
STACK CFI 238fc .cfa: sp 0 +
STACK CFI INIT 23900 14 .cfa: sp 0 +
STACK CFI INIT 23914 4 .cfa: sp 0 +
STACK CFI INIT 23918 4 .cfa: sp 0 +
STACK CFI INIT 2391c 68 .cfa: sp 0 +
STACK CFI 23920 .cfa: sp 48 +
STACK CFI 2392c .cfa: x29 32 + x19: .cfa -16 + ^ .ra: .cfa -24 + ^ x29: .cfa -32 + ^
STACK CFI 23970 .cfa: sp 48 +
STACK CFI 2397c .cfa: sp 0 +
STACK CFI 23980 .cfa: x29 32 +
STACK CFI INIT 23984 1c .cfa: sp 0 +
STACK CFI INIT 239a0 c .cfa: sp 0 +
STACK CFI INIT 239ac 1b0 .cfa: sp 0 +
STACK CFI INIT 23b5c 3c .cfa: sp 0 +
STACK CFI 23b60 .cfa: sp 32 +
STACK CFI 23b68 .cfa: x29 32 + x19: .cfa -16 + ^ .ra: .cfa -24 + ^ x29: .cfa -32 + ^
STACK CFI 23b74 .cfa: sp 32 +
STACK CFI 23b7c .cfa: sp 0 +
STACK CFI 23b80 .cfa: x29 32 +
STACK CFI 23b8c .cfa: sp 32 +
STACK CFI 23b94 .cfa: sp 0 +
STACK CFI INIT 23b98 4c .cfa: sp 0 +
STACK CFI 23b9c .cfa: sp 32 +
STACK CFI 23ba4 .cfa: x29 32 + x19: .cfa -8 + ^ x20: .cfa -16 + ^ .ra: .cfa -24 + ^ x29: .cfa -32 + ^
STACK CFI 23bcc .cfa: sp 32 +
STACK CFI 23bd4 .cfa: sp 0 +
STACK CFI 23bd8 .cfa: sp 32 +
STACK CFI 23be0 .cfa: sp 0 +
STACK CFI INIT 23e04 64 .cfa: sp 0 +
STACK CFI 23e08 .cfa: sp 32 +
STACK CFI 23e10 .cfa: x29 32 + x19: .cfa -16 + ^ .ra: .cfa -24 + ^ x29: .cfa -32 + ^
STACK CFI 23e3c .cfa: sp 32 +
STACK CFI 23e44 .cfa: sp 0 +
STACK CFI 23e48 .cfa: x29 32 +
STACK CFI 23e5c .cfa: sp 32 +
STACK CFI 23e64 .cfa: sp 0 +
STACK CFI INIT 23e68 24 .cfa: sp 0 +
STACK CFI 23e6c .cfa: sp 32 +
STACK CFI 23e74 .cfa: x29 32 + x19: .cfa -16 + ^ .ra: .cfa -24 + ^ x29: .cfa -32 + ^
STACK CFI 23e80 .cfa: sp 32 +
STACK CFI 23e88 .cfa: sp 0 +
STACK CFI INIT 23e8c 24 .cfa: sp 0 +
STACK CFI 23e90 .cfa: sp 32 +
STACK CFI 23e98 .cfa: x29 32 + x19: .cfa -16 + ^ .ra: .cfa -24 + ^ x29: .cfa -32 + ^
STACK CFI 23ea4 .cfa: sp 32 +
STACK CFI 23eac .cfa: sp 0 +
STACK CFI INIT 23eb0 8 .cfa: sp 0 +
STACK CFI INIT 23eb8 24 .cfa: sp 0 +
STACK CFI 23ebc .cfa: sp 32 +
STACK CFI 23ec4 .cfa: x29 32 + x19: .cfa -16 + ^ .ra: .cfa -24 + ^ x29: .cfa -32 + ^
STACK CFI 23ed0 .cfa: sp 32 +
STACK CFI 23ed8 .cfa: sp 0 +
STACK CFI INIT 23edc 28 .cfa: sp 0 +
STACK CFI 23ee0 .cfa: sp 32 +
STACK CFI 23ee8 .cfa: x29 32 + x19: .cfa -16 + ^ .ra: .cfa -24 + ^ x29: .cfa -32 + ^
STACK CFI 23ef8 .cfa: sp 32 +
STACK CFI 23f00 .cfa: sp 0 +
STACK CFI INIT 241dc 8 .cfa: sp 0 +
STACK CFI INIT 241e4 24 .cfa: sp 0 +
STACK CFI 241e8 .cfa: sp 32 +
STACK CFI 241f0 .cfa: x29 32 + x19: .cfa -16 + ^ .ra: .cfa -24 + ^ x29: .cfa -32 + ^
STACK CFI 241fc .cfa: sp 32 +
STACK CFI 24204 .cfa: sp 0 +
STACK CFI INIT 24208 28 .cfa: sp 0 +
STACK CFI 2420c .cfa: sp 32 +
STACK CFI 24214 .cfa: x29 32 + x19: .cfa -16 + ^ .ra: .cfa -24 + ^ x29: .cfa -32 + ^
STACK CFI 24224 .cfa: sp 32 +
STACK CFI 2422c .cfa: sp 0 +
STACK CFI INIT 24480 8 .cfa: sp 0 +
STACK CFI INIT 24488 24 .cfa: sp 0 +
STACK CFI 2448c .cfa: sp 32 +
STACK CFI 24494 .cfa: x29 32 + x19: .cfa -16 + ^ .ra: .cfa -24 + ^ x29: .cfa -32 + ^
STACK CFI 244a0 .cfa: sp 32 +
STACK CFI 244a8 .cfa: sp 0 +
STACK CFI INIT 244ac 28 .cfa: sp 0 +
STACK CFI 244b0 .cfa: sp 32 +
STACK CFI 244b8 .cfa: x29 32 + x19: .cfa -16 + ^ .ra: .cfa -24 + ^ x29: .cfa -32 + ^
STACK CFI 244c8 .cfa: sp 32 +
STACK CFI 244d0 .cfa: sp 0 +
STACK CFI INIT 244d4 8 .cfa: sp 0 +
STACK CFI INIT 244dc 24 .cfa: sp 0 +
STACK CFI 244e0 .cfa: sp 32 +
STACK CFI 244e8 .cfa: x29 32 + x19: .cfa -16 + ^ .ra: .cfa -24 + ^ x29: .cfa -32 + ^
STACK CFI 244f4 .cfa: sp 32 +
STACK CFI 244fc .cfa: sp 0 +
STACK CFI INIT 24500 28 .cfa: sp 0 +
STACK CFI 24504 .cfa: sp 32 +
STACK CFI 2450c .cfa: x29 32 + x19: .cfa -16 + ^ .ra: .cfa -24 + ^ x29: .cfa -32 + ^
STACK CFI 2451c .cfa: sp 32 +
STACK CFI 24524 .cfa: sp 0 +
STACK CFI INIT 24528 4 .cfa: sp 0 +
STACK CFI INIT 2452c 4 .cfa: sp 0 +
STACK CFI INIT 24530 4 .cfa: sp 0 +
STACK CFI INIT 24534 8 .cfa: sp 0 +
STACK CFI INIT 2453c 4 .cfa: sp 0 +
STACK CFI INIT 24848 4 .cfa: sp 0 +
STACK CFI INIT 25924 4 .cfa: sp 0 +
STACK CFI INIT 25928 14 .cfa: sp 0 +
STACK CFI INIT 25e1c c .cfa: sp 0 +
STACK CFI INIT 25e28 24c .cfa: sp 0 +
STACK CFI INIT 26074 a0 .cfa: sp 0 +
STACK CFI 26080 .cfa: sp 32 +
STACK CFI 260d8 .cfa: sp 0 +
STACK CFI 260dc .cfa: sp 32 +
STACK CFI 260e4 .cfa: sp 0 +
STACK CFI 260e8 .cfa: sp 32 +
STACK CFI 260fc .cfa: sp 0 +
STACK CFI 26100 .cfa: sp 32 +
STACK CFI 26110 .cfa: sp 0 +
STACK CFI INIT 26114 38 .cfa: sp 0 +
STACK CFI 26120 .cfa: sp 32 +
STACK CFI 26148 .cfa: sp 0 +
STACK CFI INIT 263e0 7c .cfa: sp 0 +
STACK CFI 263e4 .cfa: sp 32 +
STACK CFI 263ec .cfa: x29 32 + x19: .cfa -16 + ^ .ra: .cfa -24 + ^ x29: .cfa -32 + ^
STACK CFI 26418 .cfa: sp 32 +
STACK CFI 26420 .cfa: sp 0 +
STACK CFI 26424 .cfa: x29 32 +
STACK CFI 26450 .cfa: sp 32 +
STACK CFI 26458 .cfa: sp 0 +
STACK CFI INIT 264ac 2c .cfa: sp 0 +
STACK CFI 264b0 .cfa: sp 32 +
STACK CFI 264b8 .cfa: x29 32 + x19: .cfa -16 + ^ .ra: .cfa -24 + ^ x29: .cfa -32 + ^
STACK CFI 264cc .cfa: sp 32 +
STACK CFI 264d4 .cfa: sp 0 +
STACK CFI INIT 26c98 64 .cfa: sp 0 +
STACK CFI 26c9c .cfa: sp 32 +
STACK CFI 26ca4 .cfa: x29 32 + x19: .cfa -16 + ^ .ra: .cfa -24 + ^ x29: .cfa -32 + ^
STACK CFI 26cc0 .cfa: sp 32 +
STACK CFI 26cc8 .cfa: sp 0 +
STACK CFI 26ccc .cfa: x29 32 +
STACK CFI 26cf0 .cfa: sp 32 +
STACK CFI 26cf8 .cfa: sp 0 +
STACK CFI INIT 26cfc 570 .cfa: sp 0 +
STACK CFI 26d00 .cfa: sp 176 +
STACK CFI 26d14 .cfa: x29 64 + x19: .cfa -8 + ^ x20: .cfa -16 + ^ x21: .cfa -24 + ^ x22: .cfa -32 + ^ x23: .cfa -40 + ^ x24: .cfa -48 + ^ .ra: .cfa -56 + ^ x29: .cfa -64 + ^
STACK CFI 26f44 .cfa: sp 176 +
STACK CFI 26f58 .cfa: sp 0 +
STACK CFI 26f5c .cfa: x29 64 +
STACK CFI 26fa8 .cfa: sp 176 +
STACK CFI 26fbc .cfa: sp 0 +
STACK CFI 26fc0 .cfa: x29 64 +
STACK CFI 26ff8 .cfa: sp 176 +
STACK CFI 2700c .cfa: sp 0 +
STACK CFI 27010 .cfa: x29 64 +
STACK CFI 27028 .cfa: sp 176 +
STACK CFI 2703c .cfa: sp 0 +
STACK CFI 27040 .cfa: x29 64 +
STACK CFI 27060 .cfa: sp 176 +
STACK CFI 27074 .cfa: sp 0 +
STACK CFI 27078 .cfa: x29 64 +
STACK CFI 27090 .cfa: sp 176 +
STACK CFI 270a4 .cfa: sp 0 +
STACK CFI 270a8 .cfa: x29 64 +
STACK CFI 270bc .cfa: sp 176 +
STACK CFI 270d0 .cfa: sp 0 +
STACK CFI 270d4 .cfa: x29 64 +
STACK CFI 270e8 .cfa: sp 176 +
STACK CFI 270fc .cfa: sp 0 +
STACK CFI 27100 .cfa: x29 64 +
STACK CFI 27110 .cfa: sp 176 +
STACK CFI 27124 .cfa: sp 0 +
STACK CFI 27128 .cfa: x29 64 +
STACK CFI 27138 .cfa: sp 176 +
STACK CFI 2714c .cfa: sp 0 +
STACK CFI 27150 .cfa: x29 64 +
STACK CFI 27168 .cfa: sp 176 +
STACK CFI 2717c .cfa: sp 0 +
STACK CFI 27180 .cfa: x29 64 +
STACK CFI 27194 .cfa: sp 176 +
STACK CFI 271a8 .cfa: sp 0 +
STACK CFI 271ac .cfa: x29 64 +
STACK CFI 271c4 .cfa: sp 176 +
STACK CFI 271d8 .cfa: sp 0 +
STACK CFI 271dc .cfa: x29 64 +
STACK CFI 27208 .cfa: sp 176 +
STACK CFI 2721c .cfa: sp 0 +
STACK CFI 27220 .cfa: x29 64 +
STACK CFI 27234 .cfa: sp 176 +
STACK CFI 27248 .cfa: sp 0 +
STACK CFI 2724c .cfa: x29 64 +
STACK CFI INIT 2726c 228 .cfa: sp 0 +
STACK CFI INIT 27494 2dc .cfa: sp 0 +
STACK CFI INIT 27770 53c .cfa: sp 0 +
STACK CFI INIT 27cac 78 .cfa: sp 0 +
STACK CFI 27cb0 .cfa: sp 48 +
STACK CFI 27cbc .cfa: x29 48 + x19: .cfa -8 + ^ x20: .cfa -16 + ^ x21: .cfa -24 + ^ x22: .cfa -32 + ^ .ra: .cfa -40 + ^ x29: .cfa -48 + ^
STACK CFI 27d04 .cfa: sp 48 +
STACK CFI 27d10 .cfa: sp 0 +
STACK CFI 27d14 .cfa: sp 48 +
STACK CFI 27d20 .cfa: sp 0 +
STACK CFI INIT 27d24 8c .cfa: sp 0 +
STACK CFI 27d28 .cfa: sp 32 +
STACK CFI 27d30 .cfa: x29 32 + x19: .cfa -16 + ^ .ra: .cfa -24 + ^ x29: .cfa -32 + ^
STACK CFI 27d64 .cfa: sp 32 +
STACK CFI 27d6c .cfa: sp 0 +
STACK CFI 27d70 .cfa: x29 32 +
STACK CFI 27da4 .cfa: sp 32 +
STACK CFI 27dac .cfa: sp 0 +
STACK CFI INIT 27db0 24 .cfa: sp 0 +
STACK CFI 27db4 .cfa: sp 32 +
STACK CFI 27dbc .cfa: x29 32 + x19: .cfa -16 + ^ .ra: .cfa -24 + ^ x29: .cfa -32 + ^
STACK CFI 27dc8 .cfa: sp 32 +
STACK CFI 27dd0 .cfa: sp 0 +
STACK CFI INIT 27dd4 150 .cfa: sp 0 +
STACK CFI 27dd8 .cfa: sp 48 +
STACK CFI 27de4 .cfa: x29 48 + x19: .cfa -8 + ^ x20: .cfa -16 + ^ x21: .cfa -24 + ^ x22: .cfa -32 + ^ .ra: .cfa -40 + ^ x29: .cfa -48 + ^
STACK CFI 27f14 .cfa: sp 48 +
STACK CFI 27f20 .cfa: sp 0 +
STACK CFI INIT 27f24 68 .cfa: sp 0 +
STACK CFI 27f28 .cfa: sp 64 +
STACK CFI 27f34 .cfa: x29 32 + x19: .cfa -16 + ^ .ra: .cfa -24 + ^ x29: .cfa -32 + ^
STACK CFI 27f78 .cfa: sp 64 +
STACK CFI 27f84 .cfa: sp 0 +
STACK CFI 27f88 .cfa: x29 32 +
STACK CFI INIT 27f8c 90 .cfa: sp 0 +
STACK CFI 27f90 .cfa: sp 32 +
STACK CFI 27f98 .cfa: x29 32 + x19: .cfa -8 + ^ x20: .cfa -16 + ^ .ra: .cfa -24 + ^ x29: .cfa -32 + ^
STACK CFI 27fc4 .cfa: sp 32 +
STACK CFI 27fcc .cfa: sp 0 +
STACK CFI 27fd0 .cfa: x29 32 +
STACK CFI 28010 .cfa: sp 32 +
STACK CFI 28018 .cfa: sp 0 +
STACK CFI INIT 2801c ec .cfa: sp 0 +
STACK CFI 28020 .cfa: sp 112 +
STACK CFI 28030 .cfa: x29 48 + x19: .cfa -8 + ^ x20: .cfa -16 + ^ x21: .cfa -32 + ^ .ra: .cfa -40 + ^ x29: .cfa -48 + ^
STACK CFI 280f0 .cfa: sp 112 +
STACK CFI 28100 .cfa: sp 0 +
STACK CFI 28104 .cfa: x29 48 +
STACK CFI INIT 28108 ec .cfa: sp 0 +
STACK CFI 2810c .cfa: sp 112 +
STACK CFI 2811c .cfa: x29 48 + x19: .cfa -8 + ^ x20: .cfa -16 + ^ x21: .cfa -32 + ^ .ra: .cfa -40 + ^ x29: .cfa -48 + ^
STACK CFI 281dc .cfa: sp 112 +
STACK CFI 281ec .cfa: sp 0 +
STACK CFI 281f0 .cfa: x29 48 +
STACK CFI INIT 281f4 48 .cfa: sp 0 +
STACK CFI 281f8 .cfa: sp 32 +
STACK CFI 28200 .cfa: x29 32 + x19: .cfa -8 + ^ x20: .cfa -16 + ^ .ra: .cfa -24 + ^ x29: .cfa -32 + ^
STACK CFI 28224 .cfa: sp 32 +
STACK CFI 2822c .cfa: sp 0 +
STACK CFI 28230 .cfa: x29 32 +
STACK CFI INIT 2823c 98 .cfa: sp 0 +
STACK CFI 28240 .cfa: sp 80 +
STACK CFI 2824c .cfa: x29 32 + x19: .cfa -16 + ^ .ra: .cfa -24 + ^ x29: .cfa -32 + ^
STACK CFI 282c0 .cfa: sp 80 +
STACK CFI 282cc .cfa: sp 0 +
STACK CFI 282d0 .cfa: x29 32 +
STACK CFI INIT 282d4 260 .cfa: sp 0 +
STACK CFI 282d8 .cfa: sp 112 +
STACK CFI 282f0 .cfa: x29 80 + x19: .cfa -8 + ^ x20: .cfa -16 + ^ x21: .cfa -24 + ^ x22: .cfa -32 + ^ x23: .cfa -40 + ^ x24: .cfa -48 + ^ x25: .cfa -64 + ^ .ra: .cfa -72 + ^ x29: .cfa -80 + ^
STACK CFI 284d4 .cfa: sp 112 +
STACK CFI 284ec .cfa: sp 0 +
STACK CFI 284f0 .cfa: x29 80 +
STACK CFI INIT 28534 150 .cfa: sp 0 +
STACK CFI 28538 .cfa: sp 48 +
STACK CFI 28544 .cfa: x29 48 + x19: .cfa -8 + ^ x20: .cfa -16 + ^ x21: .cfa -24 + ^ x22: .cfa -32 + ^ .ra: .cfa -40 + ^ x29: .cfa -48 + ^
STACK CFI 28674 .cfa: sp 48 +
STACK CFI 28680 .cfa: sp 0 +
STACK CFI INIT 28684 1e0 .cfa: sp 0 +
STACK CFI 28688 .cfa: sp 96 +
STACK CFI 2869c .cfa: x29 64 + x19: .cfa -8 + ^ x20: .cfa -16 + ^ x21: .cfa -24 + ^ x22: .cfa -32 + ^ x23: .cfa -40 + ^ x24: .cfa -48 + ^ .ra: .cfa -56 + ^ x29: .cfa -64 + ^
STACK CFI 2881c .cfa: sp 96 +
STACK CFI 28830 .cfa: sp 0 +
STACK CFI 28834 .cfa: x29 64 +
STACK CFI INIT 28864 284 .cfa: sp 0 +
STACK CFI 28868 .cfa: sp 112 +
STACK CFI 28880 .cfa: x29 80 + x19: .cfa -8 + ^ x20: .cfa -16 + ^ x21: .cfa -24 + ^ x22: .cfa -32 + ^ x23: .cfa -40 + ^ x24: .cfa -48 + ^ x25: .cfa -64 + ^ .ra: .cfa -72 + ^ x29: .cfa -80 + ^
STACK CFI 28a88 .cfa: sp 112 +
STACK CFI 28aa0 .cfa: sp 0 +
STACK CFI 28aa4 .cfa: x29 80 +
STACK CFI INIT 28ae8 208 .cfa: sp 0 +
STACK CFI 28aec .cfa: sp 96 +
STACK CFI 28b00 .cfa: x29 64 + x19: .cfa -8 + ^ x20: .cfa -16 + ^ x21: .cfa -24 + ^ x22: .cfa -32 + ^ x23: .cfa -40 + ^ x24: .cfa -48 + ^ .ra: .cfa -56 + ^ x29: .cfa -64 + ^
STACK CFI 28ca8 .cfa: sp 96 +
STACK CFI 28cbc .cfa: sp 0 +
STACK CFI 28cc0 .cfa: x29 64 +
STACK CFI INIT 28cf0 360 .cfa: sp 0 +
STACK CFI 28cf4 .cfa: sp 160 +
STACK CFI 28d10 .cfa: x29 96 + x19: .cfa -8 + ^ x20: .cfa -16 + ^ x21: .cfa -24 + ^ x22: .cfa -32 + ^ x23: .cfa -40 + ^ x24: .cfa -48 + ^ x25: .cfa -56 + ^ x26: .cfa -64 + ^ x27: .cfa -72 + ^ x28: .cfa -80 + ^ .ra: .cfa -88 + ^ x29: .cfa -96 + ^
STACK CFI 28fdc .cfa: sp 160 +
STACK CFI 28ff8 .cfa: sp 0 +
STACK CFI 28ffc .cfa: x29 96 +
STACK CFI INIT 29050 314 .cfa: sp 0 +
STACK CFI 29054 .cfa: sp 144 +
STACK CFI 29070 .cfa: x29 96 + x19: .cfa -8 + ^ x20: .cfa -16 + ^ x21: .cfa -24 + ^ x22: .cfa -32 + ^ x23: .cfa -40 + ^ x24: .cfa -48 + ^ x25: .cfa -56 + ^ x26: .cfa -64 + ^ x27: .cfa -72 + ^ x28: .cfa -80 + ^ .ra: .cfa -88 + ^ x29: .cfa -96 + ^
STACK CFI 292ec .cfa: sp 144 +
STACK CFI 29308 .cfa: sp 0 +
STACK CFI 2930c .cfa: x29 96 +
STACK CFI INIT 29364 290 .cfa: sp 0 +
STACK CFI 29368 .cfa: sp 128 +
STACK CFI 29380 .cfa: x29 80 + x19: .cfa -8 + ^ x20: .cfa -16 + ^ x21: .cfa -24 + ^ x22: .cfa -32 + ^ x23: .cfa -40 + ^ x24: .cfa -48 + ^ x25: .cfa -56 + ^ x26: .cfa -64 + ^ .ra: .cfa -72 + ^ x29: .cfa -80 + ^
STACK CFI 295d4 .cfa: sp 128 +
STACK CFI 295ec .cfa: sp 0 +
STACK CFI 295f0 .cfa: x29 80 +
STACK CFI INIT 295f4 ddc .cfa: sp 0 +
STACK CFI 295f8 .cfa: sp 144 +
STACK CFI 29614 .cfa: x29 96 + x19: .cfa -8 + ^ x20: .cfa -16 + ^ x21: .cfa -24 + ^ x22: .cfa -32 + ^ x23: .cfa -40 + ^ x24: .cfa -48 + ^ x25: .cfa -56 + ^ x26: .cfa -64 + ^ x27: .cfa -72 + ^ x28: .cfa -80 + ^ .ra: .cfa -88 + ^ x29: .cfa -96 + ^
STACK CFI 2a2a8 .cfa: sp 144 +
STACK CFI 2a2c4 .cfa: sp 0 +
STACK CFI 2a2c8 .cfa: x29 96 +
STACK CFI INIT 2a3d0 1d0 .cfa: sp 0 +
STACK CFI 2a3d4 .cfa: sp 80 +
STACK CFI 2a3e8 .cfa: x29 80 + x19: .cfa -8 + ^ x20: .cfa -16 + ^ x21: .cfa -24 + ^ x22: .cfa -32 + ^ x23: .cfa -40 + ^ x24: .cfa -48 + ^ x25: .cfa -64 + ^ .ra: .cfa -72 + ^ x29: .cfa -80 + ^
STACK CFI 2a588 .cfa: sp 80 +
STACK CFI 2a59c .cfa: sp 0 +
STACK CFI INIT 2a5a0 23c .cfa: sp 0 +
STACK CFI 2a5a4 .cfa: sp 112 +
STACK CFI 2a5b8 .cfa: x29 64 + x19: .cfa -8 + ^ x20: .cfa -16 + ^ x21: .cfa -24 + ^ x22: .cfa -32 + ^ x23: .cfa -40 + ^ x24: .cfa -48 + ^ .ra: .cfa -56 + ^ x29: .cfa -64 + ^
STACK CFI 2a794 .cfa: sp 112 +
STACK CFI 2a7a8 .cfa: sp 0 +
STACK CFI 2a7ac .cfa: x29 64 +
STACK CFI INIT 2a7dc 30c .cfa: sp 0 +
STACK CFI 2a7e0 .cfa: sp 80 +
STACK CFI 2a7f4 .cfa: x29 64 + x19: .cfa -8 + ^ x20: .cfa -16 + ^ x21: .cfa -24 + ^ x22: .cfa -32 + ^ x23: .cfa -40 + ^ x24: .cfa -48 + ^ .ra: .cfa -56 + ^ x29: .cfa -64 + ^
STACK CFI 2a970 .cfa: sp 80 +
STACK CFI 2a984 .cfa: sp 0 +
STACK CFI 2a988 .cfa: x29 64 +
STACK CFI INIT 2aae8 178 .cfa: sp 0 +
STACK CFI 2aaec .cfa: sp 80 +
STACK CFI 2ab00 .cfa: x29 64 + x19: .cfa -8 + ^ x20: .cfa -16 + ^ x21: .cfa -24 + ^ x22: .cfa -32 + ^ x23: .cfa -40 + ^ x24: .cfa -48 + ^ .ra: .cfa -56 + ^ x29: .cfa -64 + ^
STACK CFI 2ac44 .cfa: sp 80 +
STACK CFI 2ac58 .cfa: sp 0 +
STACK CFI 2ac5c .cfa: x29 64 +
STACK CFI INIT 2ac60 178 .cfa: sp 0 +
STACK CFI 2ac64 .cfa: sp 80 +
STACK CFI 2ac78 .cfa: x29 64 + x19: .cfa -8 + ^ x20: .cfa -16 + ^ x21: .cfa -24 + ^ x22: .cfa -32 + ^ x23: .cfa -40 + ^ x24: .cfa -48 + ^ .ra: .cfa -56 + ^ x29: .cfa -64 + ^
STACK CFI 2adbc .cfa: sp 80 +
STACK CFI 2add0 .cfa: sp 0 +
STACK CFI 2add4 .cfa: x29 64 +
STACK CFI INIT 2add8 240 .cfa: sp 0 +
STACK CFI 2addc .cfa: sp 96 +
STACK CFI 2adf4 .cfa: x29 96 + x19: .cfa -8 + ^ x20: .cfa -16 + ^ x21: .cfa -24 + ^ x22: .cfa -32 + ^ x23: .cfa -40 + ^ x24: .cfa -48 + ^ x25: .cfa -56 + ^ x26: .cfa -64 + ^ x27: .cfa -72 + ^ x28: .cfa -80 + ^ .ra: .cfa -88 + ^ x29: .cfa -96 + ^
STACK CFI 2affc .cfa: sp 96 +
STACK CFI 2b014 .cfa: sp 0 +
STACK CFI INIT 2bc8c 154 .cfa: sp 0 +
STACK CFI 2bc90 .cfa: sp 96 +
STACK CFI 2bca4 .cfa: x29 64 + x19: .cfa -8 + ^ x20: .cfa -16 + ^ x21: .cfa -24 + ^ x22: .cfa -32 + ^ x23: .cfa -48 + ^ .ra: .cfa -56 + ^ x29: .cfa -64 + ^
STACK CFI 2bd84 .cfa: sp 96 +
STACK CFI 2bd98 .cfa: sp 0 +
STACK CFI 2bd9c .cfa: x29 64 +
STACK CFI INIT 2c04c 44 .cfa: sp 0 +
STACK CFI 2c050 .cfa: sp 32 +
STACK CFI 2c058 .cfa: x29 32 + x19: .cfa -16 + ^ .ra: .cfa -24 + ^ x29: .cfa -32 + ^
STACK CFI 2c074 .cfa: sp 32 +
STACK CFI 2c07c .cfa: sp 0 +
STACK CFI 2c080 .cfa: x29 32 +
STACK CFI 2c084 .cfa: sp 32 +
STACK CFI 2c08c .cfa: sp 0 +
STACK CFI INIT 2c090 1d0 .cfa: sp 0 +
STACK CFI 2c094 .cfa: sp 64 +
STACK CFI 2c0a4 .cfa: x29 64 + x19: .cfa -8 + ^ x20: .cfa -16 + ^ x21: .cfa -24 + ^ x22: .cfa -32 + ^ x23: .cfa -40 + ^ x24: .cfa -48 + ^ .ra: .cfa -56 + ^ x29: .cfa -64 + ^
STACK CFI 2c164 .cfa: sp 64 +
STACK CFI 2c174 .cfa: sp 0 +
STACK CFI 2c178 .cfa: x29 64 +
STACK CFI INIT 2c260 17c .cfa: sp 0 +
STACK CFI INIT 2c3dc ac .cfa: sp 0 +
STACK CFI 2c3e0 .cfa: sp 64 +
STACK CFI 2c3f0 .cfa: x29 64 + x19: .cfa -8 + ^ x20: .cfa -16 + ^ x21: .cfa -24 + ^ x22: .cfa -32 + ^ x23: .cfa -48 + ^ .ra: .cfa -56 + ^ x29: .cfa -64 + ^
STACK CFI 2c46c .cfa: sp 64 +
STACK CFI 2c47c .cfa: sp 0 +
STACK CFI 2c480 .cfa: x29 64 +
STACK CFI INIT 2c488 110 .cfa: sp 0 +
STACK CFI 2c48c .cfa: sp 64 +
STACK CFI 2c49c .cfa: x29 64 + x19: .cfa -8 + ^ x20: .cfa -16 + ^ x21: .cfa -24 + ^ x22: .cfa -32 + ^ x23: .cfa -40 + ^ x24: .cfa -48 + ^ .ra: .cfa -56 + ^ x29: .cfa -64 + ^
STACK CFI 2c57c .cfa: sp 64 +
STACK CFI 2c58c .cfa: sp 0 +
STACK CFI 2c590 .cfa: x29 64 +
STACK CFI INIT 2c950 a0 .cfa: sp 0 +
STACK CFI 2c954 .cfa: sp 48 +
STACK CFI 2c960 .cfa: x29 48 + x19: .cfa -8 + ^ x20: .cfa -16 + ^ x21: .cfa -24 + ^ x22: .cfa -32 + ^ .ra: .cfa -40 + ^ x29: .cfa -48 + ^
STACK CFI 2c9cc .cfa: sp 48 +
STACK CFI 2c9d8 .cfa: sp 0 +
STACK CFI 2c9dc .cfa: sp 48 +
STACK CFI 2c9e8 .cfa: sp 0 +
STACK CFI 2c9ec .cfa: x29 48 +
STACK CFI INIT 2d6a4 158 .cfa: sp 0 +
STACK CFI 2d6a8 .cfa: sp 96 +
STACK CFI 2d6bc .cfa: x29 64 + x19: .cfa -8 + ^ x20: .cfa -16 + ^ x21: .cfa -24 + ^ x22: .cfa -32 + ^ x23: .cfa -48 + ^ .ra: .cfa -56 + ^ x29: .cfa -64 + ^
STACK CFI 2d7a0 .cfa: sp 96 +
STACK CFI 2d7b4 .cfa: sp 0 +
STACK CFI 2d7b8 .cfa: x29 64 +
STACK CFI INIT 2d7fc 190 .cfa: sp 0 +
STACK CFI INIT 2e488 1dc .cfa: sp 0 +
STACK CFI 2e48c .cfa: sp 80 +
STACK CFI 2e4a0 .cfa: x29 80 + x19: .cfa -8 + ^ x20: .cfa -16 + ^ x21: .cfa -24 + ^ x22: .cfa -32 + ^ x23: .cfa -40 + ^ x24: .cfa -48 + ^ x25: .cfa -64 + ^ .ra: .cfa -72 + ^ x29: .cfa -80 + ^
STACK CFI 2e64c .cfa: sp 80 +
STACK CFI 2e660 .cfa: sp 0 +
STACK CFI INIT 2fa94 124 .cfa: sp 0 +
STACK CFI 2fac4 .cfa: sp 32 +
STACK CFI 2facc .cfa: x29 32 + x19: .cfa -8 + ^ x20: .cfa -16 + ^ .ra: .cfa -24 + ^ x29: .cfa -32 + ^
STACK CFI 2fbac .cfa: sp 32 +
STACK CFI 2fbb4 .cfa: sp 0 +
STACK CFI INIT 30314 320 .cfa: sp 0 +
STACK CFI 30318 .cfa: sp 64 +
STACK CFI 30328 .cfa: x29 64 + x19: .cfa -8 + ^ x20: .cfa -16 + ^ x21: .cfa -24 + ^ x22: .cfa -32 + ^ x23: .cfa -40 + ^ x24: .cfa -48 + ^ .ra: .cfa -56 + ^ x29: .cfa -64 + ^
STACK CFI 303a4 .cfa: sp 64 +
STACK CFI 303b4 .cfa: sp 0 +
STACK CFI 303b8 .cfa: x29 64 +
STACK CFI 3058c .cfa: sp 64 +
STACK CFI 3059c .cfa: sp 0 +
STACK CFI 305a0 .cfa: x29 64 +
STACK CFI 305b0 .cfa: sp 64 +
STACK CFI 305c0 .cfa: sp 0 +
STACK CFI 305c4 .cfa: x29 64 +
STACK CFI INIT 30634 a0 .cfa: sp 0 +
STACK CFI 30638 .cfa: sp 48 +
STACK CFI 30644 .cfa: x29 48 + x19: .cfa -8 + ^ x20: .cfa -16 + ^ x21: .cfa -24 + ^ x22: .cfa -32 + ^ .ra: .cfa -40 + ^ x29: .cfa -48 + ^
STACK CFI 306b0 .cfa: sp 48 +
STACK CFI 306bc .cfa: sp 0 +
STACK CFI 306c0 .cfa: sp 48 +
STACK CFI 306cc .cfa: sp 0 +
STACK CFI 306d0 .cfa: x29 48 +
STACK CFI INIT 31584 160 .cfa: sp 0 +
STACK CFI 31588 .cfa: sp 64 +
STACK CFI 31598 .cfa: x29 64 + x19: .cfa -8 + ^ x20: .cfa -16 + ^ x21: .cfa -24 + ^ x22: .cfa -32 + ^ x23: .cfa -48 + ^ .ra: .cfa -56 + ^ x29: .cfa -64 + ^
STACK CFI 31690 .cfa: sp 64 +
STACK CFI 316a0 .cfa: sp 0 +
STACK CFI 316a4 .cfa: x29 64 +
STACK CFI INIT 316e4 214 .cfa: sp 0 +
STACK CFI 316e8 .cfa: sp 128 +
STACK CFI 31704 .cfa: x29 96 + x19: .cfa -8 + ^ x20: .cfa -16 + ^ x21: .cfa -24 + ^ x22: .cfa -32 + ^ x23: .cfa -40 + ^ x24: .cfa -48 + ^ x25: .cfa -56 + ^ x26: .cfa -64 + ^ x27: .cfa -80 + ^ .ra: .cfa -88 + ^ x29: .cfa -96 + ^
STACK CFI 31880 .cfa: sp 128 +
STACK CFI 3189c .cfa: sp 0 +
STACK CFI 318a0 .cfa: x29 96 +
STACK CFI INIT 33594 290 .cfa: sp 0 +
STACK CFI 33598 .cfa: sp 16 +
STACK CFI 3359c .cfa: x29 16 + .ra: .cfa -8 + ^ x29: .cfa -16 + ^
STACK CFI 33628 .cfa: sp 16 +
STACK CFI 3362c .cfa: sp 0 +
STACK CFI 33630 .cfa: x29 16 +
STACK CFI 33680 .cfa: sp 16 +
STACK CFI 33684 .cfa: sp 0 +
STACK CFI 33688 .cfa: x29 16 +
STACK CFI 337ec .cfa: sp 16 +
STACK CFI 337f0 .cfa: sp 0 +
STACK CFI 337f4 .cfa: x29 16 +
STACK CFI INIT 33824 158 .cfa: sp 0 +
STACK CFI 33828 .cfa: sp 112 +
STACK CFI 33844 .cfa: x29 96 + x19: .cfa -8 + ^ x20: .cfa -16 + ^ x21: .cfa -24 + ^ x22: .cfa -32 + ^ x23: .cfa -40 + ^ x24: .cfa -48 + ^ x25: .cfa -56 + ^ x26: .cfa -64 + ^ x27: .cfa -72 + ^ x28: .cfa -80 + ^ .ra: .cfa -88 + ^ x29: .cfa -96 + ^
STACK CFI 3392c .cfa: sp 112 +
STACK CFI 33930 .cfa: x29 96 +
STACK CFI 33938 .cfa: sp 112 +
STACK CFI 33954 .cfa: sp 0 +
STACK CFI 33958 .cfa: x29 96 +
STACK CFI 33978 .cfa: sp 112 +
STACK CFI INIT 3397c e54 .cfa: sp 0 +
STACK CFI 33980 .cfa: sp 192 +
STACK CFI 3399c .cfa: x29 96 + x19: .cfa -8 + ^ x20: .cfa -16 + ^ x21: .cfa -24 + ^ x22: .cfa -32 + ^ x23: .cfa -40 + ^ x24: .cfa -48 + ^ x25: .cfa -56 + ^ x26: .cfa -64 + ^ x27: .cfa -72 + ^ x28: .cfa -80 + ^ .ra: .cfa -88 + ^ x29: .cfa -96 + ^
STACK CFI 346b8 .cfa: sp 192 +
STACK CFI 346d4 .cfa: sp 0 +
STACK CFI 346d8 .cfa: x29 96 +
STACK CFI INIT 347d0 1068 .cfa: sp 0 +
STACK CFI 347d4 .cfa: sp 288 +
STACK CFI 347f0 .cfa: x29 96 + x19: .cfa -8 + ^ x20: .cfa -16 + ^ x21: .cfa -24 + ^ x22: .cfa -32 + ^ x23: .cfa -40 + ^ x24: .cfa -48 + ^ x25: .cfa -56 + ^ x26: .cfa -64 + ^ x27: .cfa -72 + ^ x28: .cfa -80 + ^ .ra: .cfa -88 + ^ x29: .cfa -96 + ^
STACK CFI 35580 .cfa: sp 288 +
STACK CFI 3559c .cfa: sp 0 +
STACK CFI 355a0 .cfa: x29 96 +
STACK CFI INIT 35838 520 .cfa: sp 0 +
STACK CFI 3583c .cfa: sp 144 +
STACK CFI 35858 .cfa: x29 96 + x19: .cfa -8 + ^ x20: .cfa -16 + ^ x21: .cfa -24 + ^ x22: .cfa -32 + ^ x23: .cfa -40 + ^ x24: .cfa -48 + ^ x25: .cfa -56 + ^ x26: .cfa -64 + ^ x27: .cfa -72 + ^ x28: .cfa -80 + ^ .ra: .cfa -88 + ^ x29: .cfa -96 + ^
STACK CFI 35d34 .cfa: sp 144 +
STACK CFI 35d50 .cfa: sp 0 +
STACK CFI 35d54 .cfa: x29 96 +
STACK CFI INIT 366f8 136c .cfa: sp 0 +
STACK CFI 366fc .cfa: sp 224 +
STACK CFI 36718 .cfa: x29 96 + x19: .cfa -8 + ^ x20: .cfa -16 + ^ x21: .cfa -24 + ^ x22: .cfa -32 + ^ x23: .cfa -40 + ^ x24: .cfa -48 + ^ x25: .cfa -56 + ^ x26: .cfa -64 + ^ x27: .cfa -72 + ^ x28: .cfa -80 + ^ .ra: .cfa -88 + ^ x29: .cfa -96 + ^
STACK CFI 37a40 .cfa: sp 224 +
STACK CFI 37a5c .cfa: sp 0 +
STACK CFI 37a60 .cfa: x29 96 +
STACK CFI INIT 37a64 1b8 .cfa: sp 0 +
STACK CFI INIT 1af54 ba0 .cfa: sp 0 +
STACK CFI 1af58 .cfa: sp 240 +
STACK CFI 1af74 .cfa: x29 96 + x19: .cfa -8 + ^ x20: .cfa -16 + ^ x21: .cfa -24 + ^ x22: .cfa -32 + ^ x23: .cfa -40 + ^ x24: .cfa -48 + ^ x25: .cfa -56 + ^ x26: .cfa -64 + ^ x27: .cfa -72 + ^ x28: .cfa -80 + ^ .ra: .cfa -88 + ^ x29: .cfa -96 + ^
STACK CFI 1b99c .cfa: sp 240 +
STACK CFI 1b9b8 .cfa: sp 0 +
STACK CFI 1b9bc .cfa: x29 96 +
STACK CFI INIT 1bb1c 488 .cfa: sp 0 +
STACK CFI 1bb20 .cfa: sp 304 +
STACK CFI 1bb3c .cfa: x29 96 + x19: .cfa -8 + ^ x20: .cfa -16 + ^ x21: .cfa -24 + ^ x22: .cfa -32 + ^ x23: .cfa -40 + ^ x24: .cfa -48 + ^ x25: .cfa -56 + ^ x26: .cfa -64 + ^ x27: .cfa -72 + ^ x28: .cfa -80 + ^ .ra: .cfa -88 + ^ x29: .cfa -96 + ^
STACK CFI 1be64 .cfa: sp 304 +
STACK CFI 1be80 .cfa: sp 0 +
STACK CFI 1be84 .cfa: x29 96 +
STACK CFI INIT 1bff4 74 .cfa: sp 0 +
STACK CFI 1bff8 .cfa: sp 48 +
STACK CFI 1c004 .cfa: x29 32 + x19: .cfa -8 + ^ x20: .cfa -16 + ^ .ra: .cfa -24 + ^ x29: .cfa -32 + ^
STACK CFI 1c050 .cfa: sp 48 +
STACK CFI 1c05c .cfa: sp 0 +
STACK CFI 1c060 .cfa: x29 32 +
STACK CFI INIT 1c0e8 154 .cfa: sp 0 +
STACK CFI 1c0ec .cfa: sp 384 +
STACK CFI 1c100 .cfa: x29 64 + x19: .cfa -8 + ^ x20: .cfa -16 + ^ x21: .cfa -24 + ^ x22: .cfa -32 + ^ x23: .cfa -40 + ^ x28: .cfa -48 + ^ .ra: .cfa -56 + ^ x29: .cfa -64 + ^
STACK CFI 1c1e4 .cfa: sp 384 +
STACK CFI 1c1f8 .cfa: sp 0 +
STACK CFI 1c1fc .cfa: x29 64 +
STACK CFI INIT 1c270 12c .cfa: sp 0 +
STACK CFI 1c274 .cfa: sp 80 +
STACK CFI 1c288 .cfa: x29 80 + x19: .cfa -8 + ^ x20: .cfa -16 + ^ x21: .cfa -24 + ^ x22: .cfa -32 + ^ x23: .cfa -40 + ^ x24: .cfa -48 + ^ x25: .cfa -56 + ^ x26: .cfa -64 + ^ .ra: .cfa -72 + ^ x29: .cfa -80 + ^
STACK CFI 1c350 .cfa: sp 80 +
STACK CFI 1c364 .cfa: sp 0 +
STACK CFI 1c368 .cfa: x29 80 +
STACK CFI INIT 1c440 1a4 .cfa: sp 0 +
STACK CFI 1c444 .cfa: sp 112 +
STACK CFI 1c45c .cfa: x29 80 + x19: .cfa -8 + ^ x20: .cfa -16 + ^ x21: .cfa -24 + ^ x22: .cfa -32 + ^ x23: .cfa -40 + ^ x24: .cfa -48 + ^ x25: .cfa -56 + ^ x26: .cfa -64 + ^ .ra: .cfa -72 + ^ x29: .cfa -80 + ^
STACK CFI 1c54c .cfa: sp 112 +
STACK CFI 1c564 .cfa: sp 0 +
STACK CFI 1c568 .cfa: x29 80 +
STACK CFI INIT 1c5e4 1dc .cfa: sp 0 +
STACK CFI 1c5e8 .cfa: sp 128 +
STACK CFI 1c604 .cfa: x29 96 + x19: .cfa -8 + ^ x20: .cfa -16 + ^ x21: .cfa -24 + ^ x22: .cfa -32 + ^ x23: .cfa -40 + ^ x24: .cfa -48 + ^ x25: .cfa -56 + ^ x26: .cfa -64 + ^ x27: .cfa -80 + ^ .ra: .cfa -88 + ^ x29: .cfa -96 + ^
STACK CFI 1c770 .cfa: sp 128 +
STACK CFI 1c78c .cfa: sp 0 +
STACK CFI 1c790 .cfa: x29 96 +
STACK CFI INIT 1c7d4 50 .cfa: sp 0 +
STACK CFI 1c7d8 .cfa: sp 32 +
STACK CFI 1c7e0 .cfa: x29 32 + x19: .cfa -8 + ^ x20: .cfa -16 + ^ .ra: .cfa -24 + ^ x29: .cfa -32 + ^
STACK CFI INIT 1c888 178 .cfa: sp 0 +
STACK CFI 1c88c .cfa: sp 80 +
STACK CFI 1c8a0 .cfa: x29 80 + x19: .cfa -8 + ^ x20: .cfa -16 + ^ x21: .cfa -24 + ^ x22: .cfa -32 + ^ x23: .cfa -40 + ^ x24: .cfa -48 + ^ x25: .cfa -64 + ^ .ra: .cfa -72 + ^ x29: .cfa -80 + ^
STACK CFI 1c9cc .cfa: sp 80 +
STACK CFI 1c9e0 .cfa: sp 0 +
STACK CFI 1c9e4 .cfa: x29 80 +
STACK CFI INIT 1cce0 52c .cfa: sp 0 +
STACK CFI 1cce4 .cfa: sp 128 +
STACK CFI 1ccfc .cfa: x29 64 + x19: .cfa -8 + ^ x20: .cfa -16 + ^ x21: .cfa -24 + ^ x22: .cfa -32 + ^ x23: .cfa -40 + ^ x24: .cfa -48 + ^ .ra: .cfa -56 + ^ x29: .cfa -64 + ^ v8: .cfa -72 + ^ v9: .cfa -80 + ^
STACK CFI 1d130 .cfa: sp 128 +
STACK CFI 1d148 .cfa: sp 0 +
STACK CFI 1d14c .cfa: x29 64 +
STACK CFI 1d164 .cfa: sp 128 +
STACK CFI 1d17c .cfa: sp 0 +
STACK CFI 1d180 .cfa: x29 64 +
STACK CFI INIT 1d410 134 .cfa: sp 0 +
STACK CFI 1d414 .cfa: sp 32 +
STACK CFI 1d41c .cfa: x29 32 + x19: .cfa -8 + ^ x20: .cfa -16 + ^ .ra: .cfa -24 + ^ x29: .cfa -32 + ^
STACK CFI 1d534 .cfa: sp 32 +
STACK CFI 1d53c .cfa: sp 0 +
STACK CFI 1d540 .cfa: x29 32 +
STACK CFI INIT 1d980 16cc .cfa: sp 0 +
STACK CFI 1d984 .cfa: sp 128 +
STACK CFI 1d9a4 .cfa: x29 96 + x19: .cfa -8 + ^ x20: .cfa -16 + ^ x21: .cfa -24 + ^ x22: .cfa -32 + ^ x23: .cfa -40 + ^ x24: .cfa -48 + ^ x25: .cfa -56 + ^ x26: .cfa -64 + ^ x27: .cfa -72 + ^ x28: .cfa -80 + ^ .ra: .cfa -88 + ^ x29: .cfa -96 + ^ v8: .cfa -104 + ^ v9: .cfa -112 + ^ v10: .cfa -128 + ^
STACK CFI 1eaf0 .cfa: sp 128 +
STACK CFI 1eb10 .cfa: sp 0 +
STACK CFI 1eb14 .cfa: x29 96 +
STACK CFI INIT 1f08c 120 .cfa: sp 0 +
STACK CFI 1f090 .cfa: sp 64 +
STACK CFI 1f09c .cfa: x29 32 + x19: .cfa -8 + ^ x20: .cfa -16 + ^ .ra: .cfa -24 + ^ x29: .cfa -32 + ^
STACK CFI 1f174 .cfa: sp 64 +
STACK CFI 1f180 .cfa: sp 0 +
STACK CFI 1f184 .cfa: x29 32 +
STACK CFI INIT 1f280 6c .cfa: sp 0 +
STACK CFI 1f284 .cfa: sp 32 +
STACK CFI 1f28c .cfa: x29 32 + x19: .cfa -16 + ^ .ra: .cfa -24 + ^ x29: .cfa -32 + ^
STACK CFI 1f2dc .cfa: sp 32 +
STACK CFI 1f2e4 .cfa: sp 0 +
STACK CFI 1f2e8 .cfa: x29 32 +
STACK CFI INIT 1f2f0 148 .cfa: sp 0 +
STACK CFI 1f2f4 .cfa: sp 96 +
STACK CFI 1f304 .cfa: x29 48 + x19: .cfa -8 + ^ x20: .cfa -16 + ^ x21: .cfa -32 + ^ .ra: .cfa -40 + ^ x29: .cfa -48 + ^
STACK CFI 1f3ec .cfa: sp 96 +
STACK CFI 1f3fc .cfa: sp 0 +
STACK CFI 1f400 .cfa: x29 48 +
STACK CFI INIT 1f438 6c .cfa: sp 0 +
STACK CFI 1f43c .cfa: sp 32 +
STACK CFI 1f444 .cfa: x29 32 + x19: .cfa -16 + ^ .ra: .cfa -24 + ^ x29: .cfa -32 + ^
STACK CFI 1f494 .cfa: sp 32 +
STACK CFI 1f49c .cfa: sp 0 +
STACK CFI 1f4a0 .cfa: x29 32 +
STACK CFI INIT 1f5c0 204 .cfa: sp 0 +
STACK CFI 1f5c4 .cfa: sp 128 +
STACK CFI 1f5d8 .cfa: x29 64 + x19: .cfa -8 + ^ x20: .cfa -16 + ^ x21: .cfa -24 + ^ x22: .cfa -32 + ^ x23: .cfa -40 + ^ x24: .cfa -48 + ^ .ra: .cfa -56 + ^ x29: .cfa -64 + ^
STACK CFI 1f6fc .cfa: sp 128 +
STACK CFI 1f710 .cfa: sp 0 +
STACK CFI 1f714 .cfa: x29 64 +
STACK CFI INIT 1f7c8 1ac .cfa: sp 0 +
STACK CFI 1f7cc .cfa: sp 128 +
STACK CFI 1f7dc .cfa: x29 48 + x19: .cfa -8 + ^ x20: .cfa -16 + ^ x21: .cfa -24 + ^ x22: .cfa -32 + ^ .ra: .cfa -40 + ^ x29: .cfa -48 + ^
STACK CFI 1f8f8 .cfa: sp 128 +
STACK CFI 1f908 .cfa: sp 0 +
STACK CFI 1f90c .cfa: x29 48 +
STACK CFI INIT 1fd70 1d0 .cfa: sp 0 +
STACK CFI 1fd74 .cfa: sp 128 +
STACK CFI 1fd88 .cfa: x29 64 + x19: .cfa -8 + ^ x20: .cfa -16 + ^ x21: .cfa -24 + ^ x22: .cfa -32 + ^ x23: .cfa -48 + ^ .ra: .cfa -56 + ^ x29: .cfa -64 + ^
STACK CFI 1ff00 .cfa: sp 128 +
STACK CFI 1ff14 .cfa: sp 0 +
STACK CFI 1ff18 .cfa: x29 64 +
STACK CFI INIT 202a4 1c4 .cfa: sp 0 +
STACK CFI 202a8 .cfa: sp 112 +
STACK CFI 202b8 .cfa: x29 48 + x19: .cfa -8 + ^ x20: .cfa -16 + ^ x21: .cfa -24 + ^ x22: .cfa -32 + ^ .ra: .cfa -40 + ^ x29: .cfa -48 + ^
STACK CFI 2042c .cfa: sp 112 +
STACK CFI 2043c .cfa: sp 0 +
STACK CFI 20440 .cfa: x29 48 +
STACK CFI INIT 204e8 480 .cfa: sp 0 +
STACK CFI 204ec .cfa: sp 112 +
STACK CFI 20508 .cfa: x29 96 + x19: .cfa -8 + ^ x20: .cfa -16 + ^ x21: .cfa -24 + ^ x22: .cfa -32 + ^ x23: .cfa -40 + ^ x24: .cfa -48 + ^ x25: .cfa -56 + ^ x26: .cfa -64 + ^ x27: .cfa -72 + ^ x28: .cfa -80 + ^ .ra: .cfa -88 + ^ x29: .cfa -96 + ^ v8: .cfa -112 + ^
STACK CFI 208b0 .cfa: sp 112 +
STACK CFI 208cc .cfa: sp 0 +
STACK CFI 208d0 .cfa: x29 96 +
STACK CFI INIT 20968 1f4 .cfa: sp 0 +
STACK CFI 2096c .cfa: sp 80 +
STACK CFI 20980 .cfa: x29 80 + x19: .cfa -8 + ^ x20: .cfa -16 + ^ x21: .cfa -24 + ^ x22: .cfa -32 + ^ x23: .cfa -40 + ^ x24: .cfa -48 + ^ x25: .cfa -56 + ^ x28: .cfa -64 + ^ .ra: .cfa -72 + ^ x29: .cfa -80 + ^
STACK CFI 20ab8 .cfa: sp 80 +
STACK CFI 20acc .cfa: sp 0 +
STACK CFI 20ad0 .cfa: x29 80 +
STACK CFI INIT 20b5c 74 .cfa: sp 0 +
STACK CFI 20b60 .cfa: sp 48 +
STACK CFI 20b6c .cfa: x29 32 + x19: .cfa -8 + ^ x20: .cfa -16 + ^ .ra: .cfa -24 + ^ x29: .cfa -32 + ^
STACK CFI 20bb8 .cfa: sp 48 +
STACK CFI 20bc4 .cfa: sp 0 +
STACK CFI 20bc8 .cfa: x29 32 +
STACK CFI INIT 20c20 118 .cfa: sp 0 +
STACK CFI 20c24 .cfa: sp 80 +
STACK CFI 20c34 .cfa: x29 48 + x19: .cfa -8 + ^ x20: .cfa -16 + ^ x21: .cfa -32 + ^ .ra: .cfa -40 + ^ x29: .cfa -48 + ^
STACK CFI 20ce8 .cfa: sp 80 +
STACK CFI 20cf8 .cfa: sp 0 +
STACK CFI 20cfc .cfa: x29 48 +
STACK CFI INIT 20e3c b4 .cfa: sp 0 +
STACK CFI 20e40 .cfa: sp 32 +
STACK CFI 20e48 .cfa: x29 32 + x19: .cfa -8 + ^ x20: .cfa -16 + ^ .ra: .cfa -24 + ^ x29: .cfa -32 + ^
STACK CFI 20e9c .cfa: sp 32 +
STACK CFI 20ea4 .cfa: sp 0 +
STACK CFI 20ea8 .cfa: x29 32 +
STACK CFI INIT 20ef4 654 .cfa: sp 0 +
STACK CFI 20ef8 .cfa: sp 80 +
STACK CFI 20f0c .cfa: x29 80 + x19: .cfa -8 + ^ x20: .cfa -16 + ^ x21: .cfa -24 + ^ x22: .cfa -32 + ^ x23: .cfa -40 + ^ x24: .cfa -48 + ^ x25: .cfa -56 + ^ x28: .cfa -64 + ^ .ra: .cfa -72 + ^ x29: .cfa -80 + ^
STACK CFI 2136c .cfa: sp 80 +
STACK CFI 21380 .cfa: sp 0 +
STACK CFI 21384 .cfa: x29 80 +
STACK CFI INIT 21584 74 .cfa: sp 0 +
STACK CFI 21588 .cfa: sp 48 +
STACK CFI 21594 .cfa: x29 32 + x19: .cfa -8 + ^ x20: .cfa -16 + ^ .ra: .cfa -24 + ^ x29: .cfa -32 + ^
STACK CFI 215e0 .cfa: sp 48 +
STACK CFI 215ec .cfa: sp 0 +
STACK CFI 215f0 .cfa: x29 32 +
STACK CFI INIT 21718 174 .cfa: sp 0 +
STACK CFI 2171c .cfa: sp 128 +
STACK CFI 21730 .cfa: x29 64 + x19: .cfa -8 + ^ x20: .cfa -16 + ^ x21: .cfa -24 + ^ x22: .cfa -32 + ^ x23: .cfa -48 + ^ .ra: .cfa -56 + ^ x29: .cfa -64 + ^
STACK CFI 2180c .cfa: sp 128 +
STACK CFI 21820 .cfa: sp 0 +
STACK CFI 21824 .cfa: x29 64 +
STACK CFI INIT 21ab0 1b4 .cfa: sp 0 +
STACK CFI 21ab4 .cfa: sp 128 +
STACK CFI 21ac8 .cfa: x29 64 + x19: .cfa -8 + ^ x20: .cfa -16 + ^ x21: .cfa -24 + ^ x22: .cfa -32 + ^ x23: .cfa -48 + ^ .ra: .cfa -56 + ^ x29: .cfa -64 + ^
STACK CFI 21c1c .cfa: sp 128 +
STACK CFI 21c30 .cfa: sp 0 +
STACK CFI 21c34 .cfa: x29 64 +
STACK CFI INIT 21dac fc .cfa: sp 0 +
STACK CFI 21db0 .cfa: sp 48 +
STACK CFI 21dbc .cfa: x29 48 + x19: .cfa -8 + ^ x20: .cfa -16 + ^ x21: .cfa -32 + ^ .ra: .cfa -40 + ^ x29: .cfa -48 + ^
STACK CFI 21e0c .cfa: sp 48 +
STACK CFI 21e18 .cfa: sp 0 +
STACK CFI 21e1c .cfa: x29 48 +
STACK CFI 21e24 .cfa: sp 48 +
STACK CFI 21e30 .cfa: sp 0 +
STACK CFI 21e34 .cfa: x29 48 +
STACK CFI 21e64 .cfa: sp 48 +
STACK CFI 21e70 .cfa: sp 0 +
STACK CFI 21e74 .cfa: x29 48 +
STACK CFI INIT 220cc 1bc .cfa: sp 0 +
STACK CFI 220d0 .cfa: sp 112 +
STACK CFI 220e0 .cfa: x29 48 + x19: .cfa -8 + ^ x20: .cfa -16 + ^ x21: .cfa -24 + ^ x22: .cfa -32 + ^ .ra: .cfa -40 + ^ x29: .cfa -48 + ^
STACK CFI 22244 .cfa: sp 112 +
STACK CFI 22254 .cfa: sp 0 +
STACK CFI 22258 .cfa: x29 48 +
STACK CFI INIT 224cc 1cc .cfa: sp 0 +
STACK CFI 224d0 .cfa: sp 128 +
STACK CFI 224e4 .cfa: x29 64 + x19: .cfa -8 + ^ x20: .cfa -16 + ^ x21: .cfa -24 + ^ x22: .cfa -32 + ^ x23: .cfa -48 + ^ .ra: .cfa -56 + ^ x29: .cfa -64 + ^
STACK CFI 22650 .cfa: sp 128 +
STACK CFI 22664 .cfa: sp 0 +
STACK CFI 22668 .cfa: x29 64 +
STACK CFI INIT 227d4 840 .cfa: sp 0 +
STACK CFI 227d8 .cfa: sp 320 +
STACK CFI 22800 .cfa: x29 96 + x19: .cfa -8 + ^ x20: .cfa -16 + ^ x21: .cfa -24 + ^ x22: .cfa -32 + ^ x23: .cfa -40 + ^ x24: .cfa -48 + ^ x25: .cfa -56 + ^ x26: .cfa -64 + ^ x27: .cfa -72 + ^ x28: .cfa -80 + ^ .ra: .cfa -88 + ^ x29: .cfa -96 + ^ v8: .cfa -104 + ^ v9: .cfa -112 + ^ v10: .cfa -120 + ^ v11: .cfa -128 + ^ v12: .cfa -136 + ^ v13: .cfa -144 + ^
STACK CFI 22ec4 .cfa: sp 320 +
STACK CFI 22eec .cfa: sp 0 +
STACK CFI 22ef0 .cfa: x29 96 +
STACK CFI INIT 230a8 318 .cfa: sp 0 +
STACK CFI 230ac .cfa: sp 272 +
STACK CFI 230d0 .cfa: x29 96 + x19: .cfa -8 + ^ x20: .cfa -16 + ^ x21: .cfa -24 + ^ x22: .cfa -32 + ^ x23: .cfa -40 + ^ x24: .cfa -48 + ^ x25: .cfa -56 + ^ x26: .cfa -64 + ^ x27: .cfa -72 + ^ x28: .cfa -80 + ^ .ra: .cfa -88 + ^ x29: .cfa -96 + ^ v8: .cfa -104 + ^ v9: .cfa -112 + ^ v10: .cfa -128 + ^
STACK CFI 23364 .cfa: sp 272 +
STACK CFI 23388 .cfa: sp 0 +
STACK CFI 2338c .cfa: x29 96 +
STACK CFI INIT 233e8 168 .cfa: sp 0 +
STACK CFI 233ec .cfa: sp 384 +
STACK CFI 23400 .cfa: x29 64 + x19: .cfa -8 + ^ x20: .cfa -16 + ^ x21: .cfa -24 + ^ x22: .cfa -32 + ^ x23: .cfa -40 + ^ x28: .cfa -48 + ^ .ra: .cfa -56 + ^ x29: .cfa -64 + ^
STACK CFI 234f8 .cfa: sp 384 +
STACK CFI 2350c .cfa: sp 0 +
STACK CFI 23510 .cfa: x29 64 +
STACK CFI INIT 235f4 10c .cfa: sp 0 +
STACK CFI 235f8 .cfa: sp 80 +
STACK CFI 23608 .cfa: x29 48 + x19: .cfa -8 + ^ x20: .cfa -16 + ^ x21: .cfa -32 + ^ .ra: .cfa -40 + ^ x29: .cfa -48 + ^
STACK CFI 236b8 .cfa: sp 80 +
STACK CFI 236c8 .cfa: sp 0 +
STACK CFI 236cc .cfa: x29 48 +
STACK CFI INIT 23be4 134 .cfa: sp 0 +
STACK CFI 23be8 .cfa: sp 80 +
STACK CFI 23bf4 .cfa: x29 32 + x19: .cfa -8 + ^ x20: .cfa -16 + ^ .ra: .cfa -24 + ^ x29: .cfa -32 + ^
STACK CFI 23c24 .cfa: sp 80 +
STACK CFI 23c30 .cfa: sp 0 +
STACK CFI 23c34 .cfa: x29 32 +
STACK CFI INIT 23d18 78 .cfa: sp 0 +
STACK CFI 23d1c .cfa: sp 32 +
STACK CFI 23d24 .cfa: x29 32 + x19: .cfa -8 + ^ x20: .cfa -16 + ^ .ra: .cfa -24 + ^ x29: .cfa -32 + ^
STACK CFI 23d30 .cfa: sp 32 +
STACK CFI 23d38 .cfa: sp 0 +
STACK CFI 23d3c .cfa: x29 32 +
STACK CFI INIT 23d90 74 .cfa: sp 0 +
STACK CFI 23d94 .cfa: sp 48 +
STACK CFI 23da0 .cfa: x29 32 + x19: .cfa -8 + ^ x20: .cfa -16 + ^ .ra: .cfa -24 + ^ x29: .cfa -32 + ^
STACK CFI 23dec .cfa: sp 48 +
STACK CFI 23df8 .cfa: sp 0 +
STACK CFI 23dfc .cfa: x29 32 +
STACK CFI INIT 23f04 2d8 .cfa: sp 0 +
STACK CFI 23f08 .cfa: sp 128 +
STACK CFI 23f1c .cfa: x29 64 + x19: .cfa -8 + ^ x20: .cfa -16 + ^ x21: .cfa -24 + ^ x22: .cfa -32 + ^ x23: .cfa -48 + ^ .ra: .cfa -56 + ^ x29: .cfa -64 + ^
STACK CFI 24088 .cfa: sp 128 +
STACK CFI 2409c .cfa: sp 0 +
STACK CFI 240a0 .cfa: x29 64 +
STACK CFI INIT 24230 250 .cfa: sp 0 +
STACK CFI 24234 .cfa: sp 112 +
STACK CFI 24244 .cfa: x29 48 + x19: .cfa -8 + ^ x20: .cfa -16 + ^ x21: .cfa -32 + ^ .ra: .cfa -40 + ^ x29: .cfa -48 + ^
STACK CFI 24328 .cfa: sp 112 +
STACK CFI 24338 .cfa: sp 0 +
STACK CFI 2433c .cfa: x29 48 +
STACK CFI INIT 24540 1a0 .cfa: sp 0 +
STACK CFI 24544 .cfa: sp 160 +
STACK CFI 2455c .cfa: x29 64 + x19: .cfa -8 + ^ x20: .cfa -16 + ^ x21: .cfa -24 + ^ x22: .cfa -32 + ^ x23: .cfa -40 + ^ x24: .cfa -48 + ^ .ra: .cfa -56 + ^ x29: .cfa -64 + ^ v8: .cfa -80 + ^
STACK CFI 245d0 .cfa: sp 160 +
STACK CFI 245e8 .cfa: sp 0 +
STACK CFI 245ec .cfa: x29 64 +
STACK CFI INIT 246e0 168 .cfa: sp 0 +
STACK CFI 246e4 .cfa: sp 64 +
STACK CFI 246f4 .cfa: x29 48 + x19: .cfa -8 + ^ x20: .cfa -16 + ^ x21: .cfa -24 + ^ x22: .cfa -32 + ^ .ra: .cfa -40 + ^ x29: .cfa -48 + ^
STACK CFI 247e8 .cfa: sp 64 +
STACK CFI 247f8 .cfa: sp 0 +
STACK CFI 247fc .cfa: x29 48 +
STACK CFI INIT 2484c 2bc .cfa: sp 0 +
STACK CFI 24850 .cfa: sp 128 +
STACK CFI 24864 .cfa: x29 64 + x19: .cfa -8 + ^ x20: .cfa -16 + ^ x21: .cfa -24 + ^ x22: .cfa -32 + ^ x23: .cfa -48 + ^ .ra: .cfa -56 + ^ x29: .cfa -64 + ^
STACK CFI 249b4 .cfa: sp 128 +
STACK CFI 249c8 .cfa: sp 0 +
STACK CFI 249cc .cfa: x29 64 +
STACK CFI INIT 24b08 2bc .cfa: sp 0 +
STACK CFI 24b0c .cfa: sp 128 +
STACK CFI 24b20 .cfa: x29 64 + x19: .cfa -8 + ^ x20: .cfa -16 + ^ x21: .cfa -24 + ^ x22: .cfa -32 + ^ x23: .cfa -48 + ^ .ra: .cfa -56 + ^ x29: .cfa -64 + ^
STACK CFI 24c70 .cfa: sp 128 +
STACK CFI 24c84 .cfa: sp 0 +
STACK CFI 24c88 .cfa: x29 64 +
STACK CFI INIT 24dc4 278 .cfa: sp 0 +
STACK CFI 24dc8 .cfa: sp 128 +
STACK CFI 24ddc .cfa: x29 64 + x19: .cfa -8 + ^ x20: .cfa -16 + ^ x21: .cfa -24 + ^ x22: .cfa -32 + ^ x23: .cfa -48 + ^ .ra: .cfa -56 + ^ x29: .cfa -64 + ^
STACK CFI 24ee8 .cfa: sp 128 +
STACK CFI 24efc .cfa: sp 0 +
STACK CFI 24f00 .cfa: x29 64 +
STACK CFI INIT 2503c 2c8 .cfa: sp 0 +
STACK CFI 25040 .cfa: sp 128 +
STACK CFI 25054 .cfa: x29 64 + x19: .cfa -8 + ^ x20: .cfa -16 + ^ x21: .cfa -24 + ^ x22: .cfa -32 + ^ x23: .cfa -48 + ^ .ra: .cfa -56 + ^ x29: .cfa -64 + ^
STACK CFI 251b0 .cfa: sp 128 +
STACK CFI 251c4 .cfa: sp 0 +
STACK CFI 251c8 .cfa: x29 64 +
STACK CFI INIT 25304 4cc .cfa: sp 0 +
STACK CFI 25308 .cfa: sp 128 +
STACK CFI 2531c .cfa: x29 64 + x19: .cfa -8 + ^ x20: .cfa -16 + ^ x21: .cfa -24 + ^ x22: .cfa -32 + ^ x23: .cfa -48 + ^ .ra: .cfa -56 + ^ x29: .cfa -64 + ^
STACK CFI 25628 .cfa: sp 128 +
STACK CFI 2563c .cfa: sp 0 +
STACK CFI 25640 .cfa: x29 64 +
STACK CFI INIT 257d0 154 .cfa: sp 0 +
STACK CFI 257d4 .cfa: sp 384 +
STACK CFI 257e8 .cfa: x29 64 + x19: .cfa -8 + ^ x20: .cfa -16 + ^ x21: .cfa -24 + ^ x22: .cfa -32 + ^ x23: .cfa -40 + ^ x28: .cfa -48 + ^ .ra: .cfa -56 + ^ x29: .cfa -64 + ^
STACK CFI 258cc .cfa: sp 384 +
STACK CFI 258e0 .cfa: sp 0 +
STACK CFI 258e4 .cfa: x29 64 +
STACK CFI INIT 2593c 4e0 .cfa: sp 0 +
STACK CFI 25940 .cfa: sp 64 +
STACK CFI 25950 .cfa: x29 64 + x19: .cfa -8 + ^ x20: .cfa -16 + ^ x21: .cfa -24 + ^ x22: .cfa -32 + ^ x23: .cfa -40 + ^ x24: .cfa -48 + ^ .ra: .cfa -56 + ^ x29: .cfa -64 + ^
STACK CFI 25df0 .cfa: sp 64 +
STACK CFI 25e00 .cfa: sp 0 +
STACK CFI 25e04 .cfa: x29 64 +
STACK CFI INIT 2614c 294 .cfa: sp 0 +
STACK CFI 26150 .cfa: sp 240 +
STACK CFI 26168 .cfa: x29 80 + x19: .cfa -8 + ^ x20: .cfa -16 + ^ x21: .cfa -24 + ^ x22: .cfa -32 + ^ x23: .cfa -40 + ^ x24: .cfa -48 + ^ x25: .cfa -64 + ^ .ra: .cfa -72 + ^ x29: .cfa -80 + ^
STACK CFI 26308 .cfa: sp 240 +
STACK CFI 26320 .cfa: sp 0 +
STACK CFI 26324 .cfa: x29 80 +
STACK CFI INIT 2645c 50 .cfa: sp 0 +
STACK CFI 26460 .cfa: sp 32 +
STACK CFI 26468 .cfa: x29 32 + x19: .cfa -8 + ^ x20: .cfa -16 + ^ .ra: .cfa -24 + ^ x29: .cfa -32 + ^
STACK CFI INIT 264d8 7c0 .cfa: sp 0 +
STACK CFI 264dc .cfa: sp 320 +
STACK CFI 264f8 .cfa: x29 96 + x19: .cfa -8 + ^ x20: .cfa -16 + ^ x21: .cfa -24 + ^ x22: .cfa -32 + ^ x23: .cfa -40 + ^ x24: .cfa -48 + ^ x25: .cfa -56 + ^ x26: .cfa -64 + ^ x27: .cfa -72 + ^ x28: .cfa -80 + ^ .ra: .cfa -88 + ^ x29: .cfa -96 + ^
STACK CFI 26b48 .cfa: sp 320 +
STACK CFI 26b64 .cfa: sp 0 +
STACK CFI 26b68 .cfa: x29 96 +
STACK CFI INIT 2b018 c74 .cfa: sp 0 +
STACK CFI 2b01c .cfa: sp 96 +
STACK CFI 2b034 .cfa: x29 96 + x19: .cfa -8 + ^ x20: .cfa -16 + ^ x21: .cfa -24 + ^ x22: .cfa -32 + ^ x23: .cfa -40 + ^ x24: .cfa -48 + ^ x25: .cfa -56 + ^ x26: .cfa -64 + ^ x27: .cfa -72 + ^ x28: .cfa -80 + ^ .ra: .cfa -88 + ^ x29: .cfa -96 + ^
STACK CFI 2baac .cfa: sp 96 +
STACK CFI 2bac4 .cfa: sp 0 +
STACK CFI 2bac8 .cfa: x29 96 +
STACK CFI INIT 2bde0 26c .cfa: sp 0 +
STACK CFI 2bde4 .cfa: sp 128 +
STACK CFI 2bdf4 .cfa: x29 48 + x19: .cfa -8 + ^ x20: .cfa -16 + ^ x21: .cfa -24 + ^ x22: .cfa -32 + ^ .ra: .cfa -40 + ^ x29: .cfa -48 + ^
STACK CFI 2bf98 .cfa: sp 128 +
STACK CFI 2bfa8 .cfa: sp 0 +
STACK CFI 2bfac .cfa: x29 48 +
STACK CFI INIT 2c598 3b8 .cfa: sp 0 +
STACK CFI 2c59c .cfa: sp 96 +
STACK CFI 2c5b4 .cfa: x29 96 + x19: .cfa -8 + ^ x20: .cfa -16 + ^ x21: .cfa -24 + ^ x22: .cfa -32 + ^ x23: .cfa -40 + ^ x24: .cfa -48 + ^ x25: .cfa -56 + ^ x26: .cfa -64 + ^ x27: .cfa -72 + ^ x28: .cfa -80 + ^ .ra: .cfa -88 + ^ x29: .cfa -96 + ^
STACK CFI 2c8f0 .cfa: sp 96 +
STACK CFI 2c908 .cfa: sp 0 +
STACK CFI 2c90c .cfa: x29 96 +
STACK CFI INIT 2c9f0 cb4 .cfa: sp 0 +
STACK CFI 2c9f4 .cfa: sp 96 +
STACK CFI 2ca0c .cfa: x29 96 + x19: .cfa -8 + ^ x20: .cfa -16 + ^ x21: .cfa -24 + ^ x22: .cfa -32 + ^ x23: .cfa -40 + ^ x24: .cfa -48 + ^ x25: .cfa -56 + ^ x26: .cfa -64 + ^ x27: .cfa -72 + ^ x28: .cfa -80 + ^ .ra: .cfa -88 + ^ x29: .cfa -96 + ^
STACK CFI 2d4b4 .cfa: sp 96 +
STACK CFI 2d4cc .cfa: sp 0 +
STACK CFI 2d4d0 .cfa: x29 96 +
STACK CFI INIT 2d98c afc .cfa: sp 0 +
STACK CFI 2d990 .cfa: sp 96 +
STACK CFI 2d9a8 .cfa: x29 96 + x19: .cfa -8 + ^ x20: .cfa -16 + ^ x21: .cfa -24 + ^ x22: .cfa -32 + ^ x23: .cfa -40 + ^ x24: .cfa -48 + ^ x25: .cfa -56 + ^ x26: .cfa -64 + ^ x27: .cfa -72 + ^ x28: .cfa -80 + ^ .ra: .cfa -88 + ^ x29: .cfa -96 + ^
STACK CFI 2e3fc .cfa: sp 96 +
STACK CFI 2e414 .cfa: sp 0 +
STACK CFI 2e418 .cfa: x29 96 +
STACK CFI INIT 2e664 1430 .cfa: sp 0 +
STACK CFI 2e668 .cfa: sp 96 +
STACK CFI 2e680 .cfa: x29 96 + x19: .cfa -8 + ^ x20: .cfa -16 + ^ x21: .cfa -24 + ^ x22: .cfa -32 + ^ x23: .cfa -40 + ^ x24: .cfa -48 + ^ x25: .cfa -56 + ^ x26: .cfa -64 + ^ x27: .cfa -72 + ^ x28: .cfa -80 + ^ .ra: .cfa -88 + ^ x29: .cfa -96 + ^
STACK CFI 2f91c .cfa: sp 96 +
STACK CFI 2f934 .cfa: sp 0 +
STACK CFI 2f938 .cfa: x29 96 +
STACK CFI INIT 2fbb8 75c .cfa: sp 0 +
STACK CFI 2fbbc .cfa: sp 368 +
STACK CFI 2fbd8 .cfa: x29 96 + x19: .cfa -8 + ^ x20: .cfa -16 + ^ x21: .cfa -24 + ^ x22: .cfa -32 + ^ x23: .cfa -40 + ^ x24: .cfa -48 + ^ x25: .cfa -56 + ^ x26: .cfa -64 + ^ x27: .cfa -72 + ^ x28: .cfa -80 + ^ .ra: .cfa -88 + ^ x29: .cfa -96 + ^
STACK CFI 2fc8c .cfa: sp 368 +
STACK CFI 2fca8 .cfa: sp 0 +
STACK CFI 2fcac .cfa: x29 96 +
STACK CFI 2fd00 .cfa: sp 368 +
STACK CFI 2fd1c .cfa: sp 0 +
STACK CFI 2fd20 .cfa: x29 96 +
STACK CFI INIT 306d4 eb0 .cfa: sp 0 +
STACK CFI 306d8 .cfa: sp 96 +
STACK CFI 306f0 .cfa: x29 96 + x19: .cfa -8 + ^ x20: .cfa -16 + ^ x21: .cfa -24 + ^ x22: .cfa -32 + ^ x23: .cfa -40 + ^ x24: .cfa -48 + ^ x25: .cfa -56 + ^ x26: .cfa -64 + ^ x27: .cfa -72 + ^ x28: .cfa -80 + ^ .ra: .cfa -88 + ^ x29: .cfa -96 + ^
STACK CFI 31398 .cfa: sp 96 +
STACK CFI 313b0 .cfa: sp 0 +
STACK CFI 313b4 .cfa: x29 96 +
STACK CFI INIT 318f8 1c9c .cfa: sp 0 +
STACK CFI 318fc .cfa: sp 112 +
STACK CFI 31918 .cfa: x29 96 + x19: .cfa -8 + ^ x20: .cfa -16 + ^ x21: .cfa -24 + ^ x22: .cfa -32 + ^ x23: .cfa -40 + ^ x24: .cfa -48 + ^ x25: .cfa -56 + ^ x26: .cfa -64 + ^ x27: .cfa -72 + ^ x28: .cfa -80 + ^ .ra: .cfa -88 + ^ x29: .cfa -96 + ^ v8: .cfa -112 + ^
STACK CFI 31d00 .cfa: sp 112 +
STACK CFI 31d1c .cfa: sp 0 +
STACK CFI 31d20 .cfa: x29 96 +
STACK CFI INIT 35d58 9a0 .cfa: sp 0 +
STACK CFI 35d5c .cfa: sp 144 +
STACK CFI 35d74 .cfa: x29 80 + x19: .cfa -8 + ^ x20: .cfa -16 + ^ x21: .cfa -24 + ^ x22: .cfa -32 + ^ x23: .cfa -40 + ^ x24: .cfa -48 + ^ x25: .cfa -64 + ^ .ra: .cfa -72 + ^ x29: .cfa -80 + ^
STACK CFI 36674 .cfa: sp 144 +
STACK CFI 3668c .cfa: sp 0 +
STACK CFI 36690 .cfa: x29 80 +
STACK CFI INIT 37c1c 57c .cfa: sp 0 +
STACK CFI 37c20 .cfa: sp 96 +
STACK CFI 37c38 .cfa: x29 96 + x19: .cfa -8 + ^ x20: .cfa -16 + ^ x21: .cfa -24 + ^ x22: .cfa -32 + ^ x23: .cfa -40 + ^ x24: .cfa -48 + ^ x25: .cfa -56 + ^ x26: .cfa -64 + ^ x27: .cfa -72 + ^ x28: .cfa -80 + ^ .ra: .cfa -88 + ^ x29: .cfa -96 + ^
STACK CFI 380fc .cfa: sp 96 +
STACK CFI 38114 .cfa: sp 0 +
STACK CFI 38118 .cfa: x29 96 +
STACK CFI INIT 38198 67c .cfa: sp 0 +
STACK CFI 3819c .cfa: sp 96 +
STACK CFI 381b4 .cfa: x29 96 + x19: .cfa -8 + ^ x20: .cfa -16 + ^ x21: .cfa -24 + ^ x22: .cfa -32 + ^ x23: .cfa -40 + ^ x24: .cfa -48 + ^ x25: .cfa -56 + ^ x26: .cfa -64 + ^ x27: .cfa -72 + ^ x28: .cfa -80 + ^ .ra: .cfa -88 + ^ x29: .cfa -96 + ^
STACK CFI 38778 .cfa: sp 96 +
STACK CFI 38790 .cfa: sp 0 +
STACK CFI 38794 .cfa: x29 96 +
