MODULE Linux arm64 7A064CAD3DA20EF7A41273CAEF6C316C0 saritahhh.sonicrobotmod.android64.so
INFO CODE_ID AD4C067AA23DF70EA41273CAEF6C316C0C7E27C3
INFO GENERATOR mozilla/dump_syms 2.3.4
PUBLIC 18540 0 __on_dlclose
PUBLIC 18550 0 __emutls_unregister_key
PUBLIC 18558 0 __on_dlclose_late
PUBLIC 18560 0 __atexit_handler_wrapper
PUBLIC 18574 0 atexit
PUBLIC 18590 0 pthread_atfork
PUBLIC 185a0 0 __aarch64_ldadd8_relax
PUBLIC 185d0 0 init_have_lse_atomics
PUBLIC 18668 0 __init_cpu_features_constructor
PUBLIC 18c04 0 __init_cpu_features
PUBLIC 18c90 0 __aarch64_ldadd8_acq_rel
PUBLIC 18cc0 0 geode::Mod::getSettingValue<std::__ndk1::basic_string<char, std::__ndk1::char_traits<char>, std::__ndk1::allocator<char> > >(std::__ndk1::basic_string_view<char, std::__ndk1::char_traits<char> >) const
PUBLIC 18e50 0 geode::Mod::getSettingValue<bool>(std::__ndk1::basic_string_view<char, std::__ndk1::char_traits<char> >) const
PUBLIC 18f80 0 geodeExecFunction27<(anonymous namespace)::ExecFuncUnique27>(geode::ModStateEvent*)
PUBLIC 1a1ec 0 __cxx_global_var_init.32
PUBLIC 1a628 0 _GLOBAL__sub_I_main.cpp
PUBLIC 1ab20 0 geode::modifier::ModifyBase<geode::modifier::ModifyDerive<hook80<(anonymous namespace)::hook80Parent>, PlayerObject> >::~ModifyBase()
PUBLIC 1ab3c 0 __clang_call_terminate
PUBLIC 1ab4c 0 std::__ndk1::shared_ptr<geode::SettingV3>::~shared_ptr[abi:ne180000]()
PUBLIC 1ab9c 0 std::__ndk1::shared_ptr<geode::StringSettingV3>::~shared_ptr[abi:ne180000]()
PUBLIC 1abec 0 geode::cast::traverseTypeinfoFor(void*, geode::cast::ClassTypeinfoType const*, char const*)
PUBLIC 1ace4 0 std::__ndk1::basic_string<char, std::__ndk1::char_traits<char>, std::__ndk1::allocator<char> >::__init_copy_ctor_external(char const*, unsigned long)
PUBLIC 1ad64 0 std::__ndk1::basic_string<char, std::__ndk1::char_traits<char>, std::__ndk1::allocator<char> >::__throw_length_error[abi:ne180000]() const
PUBLIC 1ad78 0 std::__ndk1::__throw_length_error[abi:ne180000](char const*)
PUBLIC 1adc8 0 std::length_error::length_error[abi:ne180000](char const*)
PUBLIC 1adf8 0 std::__throw_bad_array_new_length([abi:ne180000], void)
PUBLIC 1ae2c 0 geode::EventListener<geode::SettingChangedFilterV3>::EventListener(std::__ndk1::function<void (std::__ndk1::shared_ptr<geode::SettingV3>)>, geode::SettingChangedFilterV3)
PUBLIC 1af24 0 geode::SettingChangedFilterV3::~SettingChangedFilterV3()
PUBLIC 1af74 0 std::__ndk1::__function::__func<geode::listenForSettingChangesV3<std::__ndk1::basic_string<char, std::__ndk1::char_traits<char>, std::__ndk1::allocator<char> >, geodeExecFunction27<(anonymous namespace)::ExecFuncUnique27>(geode::ModStateEvent*)::{lambda(std::__ndk1::basic_string<char, std::__ndk1::char_traits<char>, std::__ndk1::allocator<char> >)#1}>(std::__ndk1::basic_string_view<char, std::__ndk1::char_traits<char> >, geodeExecFunction27<(anonymous namespace)::ExecFuncUnique27>(geode::ModStateEvent*)::{lambda(std::__ndk1::basic_string<char, std::__ndk1::char_traits<char>, std::__ndk1::allocator<char> >&&)#1}, geode::Mod*)::{lambda(std::__ndk1::shared_ptr<geode::SettingV3>)#1}, std::__ndk1::allocator<geode::listenForSettingChangesV3<std::__ndk1::basic_string<char, std::__ndk1::char_traits<char>, std::__ndk1::allocator<char> >, geodeExecFunction27<(anonymous namespace)::ExecFuncUnique27>(geode::ModStateEvent*)::{lambda(std::__ndk1::basic_string<char, std::__ndk1::char_traits<char>, std::__ndk1::allocator<char> >)#1}>(std::__ndk1::basic_string_view<char, std::__ndk1::char_traits<char> >, geodeExecFunction27<(anonymous namespace)::ExecFuncUnique27>(geode::ModStateEvent*)::{lambda(std::__ndk1::basic_string<char, std::__ndk1::char_traits<char>, std::__ndk1::allocator<char> >&&)#1}, geode::Mod*)::{lambda(std::__ndk1::shared_ptr<geode::SettingV3>)#1}>, void (std::__ndk1::shared_ptr<geode::SettingV3>)>::~__func()
PUBLIC 1af78 0 std::__ndk1::__function::__func<geode::listenForSettingChangesV3<std::__ndk1::basic_string<char, std::__ndk1::char_traits<char>, std::__ndk1::allocator<char> >, geodeExecFunction27<(anonymous namespace)::ExecFuncUnique27>(geode::ModStateEvent*)::{lambda(std::__ndk1::basic_string<char, std::__ndk1::char_traits<char>, std::__ndk1::allocator<char> >)#1}>(std::__ndk1::basic_string_view<char, std::__ndk1::char_traits<char> >, geodeExecFunction27<(anonymous namespace)::ExecFuncUnique27>(geode::ModStateEvent*)::{lambda(std::__ndk1::basic_string<char, std::__ndk1::char_traits<char>, std::__ndk1::allocator<char> >&&)#1}, geode::Mod*)::{lambda(std::__ndk1::shared_ptr<geode::SettingV3>)#1}, std::__ndk1::allocator<geode::listenForSettingChangesV3<std::__ndk1::basic_string<char, std::__ndk1::char_traits<char>, std::__ndk1::allocator<char> >, geodeExecFunction27<(anonymous namespace)::ExecFuncUnique27>(geode::ModStateEvent*)::{lambda(std::__ndk1::basic_string<char, std::__ndk1::char_traits<char>, std::__ndk1::allocator<char> >)#1}>(std::__ndk1::basic_string_view<char, std::__ndk1::char_traits<char> >, geodeExecFunction27<(anonymous namespace)::ExecFuncUnique27>(geode::ModStateEvent*)::{lambda(std::__ndk1::basic_string<char, std::__ndk1::char_traits<char>, std::__ndk1::allocator<char> >&&)#1}, geode::Mod*)::{lambda(std::__ndk1::shared_ptr<geode::SettingV3>)#1}>, void (std::__ndk1::shared_ptr<geode::SettingV3>)>::__clone() const
PUBLIC 1afb0 0 std::__ndk1::__function::__func<geode::listenForSettingChangesV3<std::__ndk1::basic_string<char, std::__ndk1::char_traits<char>, std::__ndk1::allocator<char> >, geodeExecFunction27<(anonymous namespace)::ExecFuncUnique27>(geode::ModStateEvent*)::{lambda(std::__ndk1::basic_string<char, std::__ndk1::char_traits<char>, std::__ndk1::allocator<char> >)#1}>(std::__ndk1::basic_string_view<char, std::__ndk1::char_traits<char> >, geodeExecFunction27<(anonymous namespace)::ExecFuncUnique27>(geode::ModStateEvent*)::{lambda(std::__ndk1::basic_string<char, std::__ndk1::char_traits<char>, std::__ndk1::allocator<char> >&&)#1}, geode::Mod*)::{lambda(std::__ndk1::shared_ptr<geode::SettingV3>)#1}, std::__ndk1::allocator<geode::listenForSettingChangesV3<std::__ndk1::basic_string<char, std::__ndk1::char_traits<char>, std::__ndk1::allocator<char> >, geodeExecFunction27<(anonymous namespace)::ExecFuncUnique27>(geode::ModStateEvent*)::{lambda(std::__ndk1::basic_string<char, std::__ndk1::char_traits<char>, std::__ndk1::allocator<char> >)#1}>(std::__ndk1::basic_string_view<char, std::__ndk1::char_traits<char> >, geodeExecFunction27<(anonymous namespace)::ExecFuncUnique27>(geode::ModStateEvent*)::{lambda(std::__ndk1::basic_string<char, std::__ndk1::char_traits<char>, std::__ndk1::allocator<char> >&&)#1}, geode::Mod*)::{lambda(std::__ndk1::shared_ptr<geode::SettingV3>)#1}>, void (std::__ndk1::shared_ptr<geode::SettingV3>)>::__clone(std::__ndk1::__function::__base<void (std::__ndk1::shared_ptr<geode::SettingV3>)>*) const
PUBLIC 1afc8 0 std::__ndk1::__function::__func<geode::listenForSettingChangesV3<std::__ndk1::basic_string<char, std::__ndk1::char_traits<char>, std::__ndk1::allocator<char> >, geodeExecFunction27<(anonymous namespace)::ExecFuncUnique27>(geode::ModStateEvent*)::{lambda(std::__ndk1::basic_string<char, std::__ndk1::char_traits<char>, std::__ndk1::allocator<char> >)#1}>(std::__ndk1::basic_string_view<char, std::__ndk1::char_traits<char> >, geodeExecFunction27<(anonymous namespace)::ExecFuncUnique27>(geode::ModStateEvent*)::{lambda(std::__ndk1::basic_string<char, std::__ndk1::char_traits<char>, std::__ndk1::allocator<char> >&&)#1}, geode::Mod*)::{lambda(std::__ndk1::shared_ptr<geode::SettingV3>)#1}, std::__ndk1::allocator<geode::listenForSettingChangesV3<std::__ndk1::basic_string<char, std::__ndk1::char_traits<char>, std::__ndk1::allocator<char> >, geodeExecFunction27<(anonymous namespace)::ExecFuncUnique27>(geode::ModStateEvent*)::{lambda(std::__ndk1::basic_string<char, std::__ndk1::char_traits<char>, std::__ndk1::allocator<char> >)#1}>(std::__ndk1::basic_string_view<char, std::__ndk1::char_traits<char> >, geodeExecFunction27<(anonymous namespace)::ExecFuncUnique27>(geode::ModStateEvent*)::{lambda(std::__ndk1::basic_string<char, std::__ndk1::char_traits<char>, std::__ndk1::allocator<char> >&&)#1}, geode::Mod*)::{lambda(std::__ndk1::shared_ptr<geode::SettingV3>)#1}>, void (std::__ndk1::shared_ptr<geode::SettingV3>)>::destroy()
PUBLIC 1afcc 0 std::__ndk1::__function::__func<geode::listenForSettingChangesV3<std::__ndk1::basic_string<char, std::__ndk1::char_traits<char>, std::__ndk1::allocator<char> >, geodeExecFunction27<(anonymous namespace)::ExecFuncUnique27>(geode::ModStateEvent*)::{lambda(std::__ndk1::basic_string<char, std::__ndk1::char_traits<char>, std::__ndk1::allocator<char> >)#1}>(std::__ndk1::basic_string_view<char, std::__ndk1::char_traits<char> >, geodeExecFunction27<(anonymous namespace)::ExecFuncUnique27>(geode::ModStateEvent*)::{lambda(std::__ndk1::basic_string<char, std::__ndk1::char_traits<char>, std::__ndk1::allocator<char> >&&)#1}, geode::Mod*)::{lambda(std::__ndk1::shared_ptr<geode::SettingV3>)#1}, std::__ndk1::allocator<geode::listenForSettingChangesV3<std::__ndk1::basic_string<char, std::__ndk1::char_traits<char>, std::__ndk1::allocator<char> >, geodeExecFunction27<(anonymous namespace)::ExecFuncUnique27>(geode::ModStateEvent*)::{lambda(std::__ndk1::basic_string<char, std::__ndk1::char_traits<char>, std::__ndk1::allocator<char> >)#1}>(std::__ndk1::basic_string_view<char, std::__ndk1::char_traits<char> >, geodeExecFunction27<(anonymous namespace)::ExecFuncUnique27>(geode::ModStateEvent*)::{lambda(std::__ndk1::basic_string<char, std::__ndk1::char_traits<char>, std::__ndk1::allocator<char> >&&)#1}, geode::Mod*)::{lambda(std::__ndk1::shared_ptr<geode::SettingV3>)#1}>, void (std::__ndk1::shared_ptr<geode::SettingV3>)>::destroy_deallocate()
PUBLIC 1afd0 0 std::__ndk1::__function::__func<geode::listenForSettingChangesV3<std::__ndk1::basic_string<char, std::__ndk1::char_traits<char>, std::__ndk1::allocator<char> >, geodeExecFunction27<(anonymous namespace)::ExecFuncUnique27>(geode::ModStateEvent*)::{lambda(std::__ndk1::basic_string<char, std::__ndk1::char_traits<char>, std::__ndk1::allocator<char> >)#1}>(std::__ndk1::basic_string_view<char, std::__ndk1::char_traits<char> >, geodeExecFunction27<(anonymous namespace)::ExecFuncUnique27>(geode::ModStateEvent*)::{lambda(std::__ndk1::basic_string<char, std::__ndk1::char_traits<char>, std::__ndk1::allocator<char> >&&)#1}, geode::Mod*)::{lambda(std::__ndk1::shared_ptr<geode::SettingV3>)#1}, std::__ndk1::allocator<geode::listenForSettingChangesV3<std::__ndk1::basic_string<char, std::__ndk1::char_traits<char>, std::__ndk1::allocator<char> >, geodeExecFunction27<(anonymous namespace)::ExecFuncUnique27>(geode::ModStateEvent*)::{lambda(std::__ndk1::basic_string<char, std::__ndk1::char_traits<char>, std::__ndk1::allocator<char> >)#1}>(std::__ndk1::basic_string_view<char, std::__ndk1::char_traits<char> >, geodeExecFunction27<(anonymous namespace)::ExecFuncUnique27>(geode::ModStateEvent*)::{lambda(std::__ndk1::basic_string<char, std::__ndk1::char_traits<char>, std::__ndk1::allocator<char> >&&)#1}, geode::Mod*)::{lambda(std::__ndk1::shared_ptr<geode::SettingV3>)#1}>, void (std::__ndk1::shared_ptr<geode::SettingV3>)>::operator()(std::__ndk1::shared_ptr<geode::SettingV3>&&)
PUBLIC 1b1d4 0 std::__ndk1::__function::__func<geode::listenForSettingChangesV3<std::__ndk1::basic_string<char, std::__ndk1::char_traits<char>, std::__ndk1::allocator<char> >, geodeExecFunction27<(anonymous namespace)::ExecFuncUnique27>(geode::ModStateEvent*)::{lambda(std::__ndk1::basic_string<char, std::__ndk1::char_traits<char>, std::__ndk1::allocator<char> >)#1}>(std::__ndk1::basic_string_view<char, std::__ndk1::char_traits<char> >, geodeExecFunction27<(anonymous namespace)::ExecFuncUnique27>(geode::ModStateEvent*)::{lambda(std::__ndk1::basic_string<char, std::__ndk1::char_traits<char>, std::__ndk1::allocator<char> >&&)#1}, geode::Mod*)::{lambda(std::__ndk1::shared_ptr<geode::SettingV3>)#1}, std::__ndk1::allocator<geode::listenForSettingChangesV3<std::__ndk1::basic_string<char, std::__ndk1::char_traits<char>, std::__ndk1::allocator<char> >, geodeExecFunction27<(anonymous namespace)::ExecFuncUnique27>(geode::ModStateEvent*)::{lambda(std::__ndk1::basic_string<char, std::__ndk1::char_traits<char>, std::__ndk1::allocator<char> >)#1}>(std::__ndk1::basic_string_view<char, std::__ndk1::char_traits<char> >, geodeExecFunction27<(anonymous namespace)::ExecFuncUnique27>(geode::ModStateEvent*)::{lambda(std::__ndk1::basic_string<char, std::__ndk1::char_traits<char>, std::__ndk1::allocator<char> >&&)#1}, geode::Mod*)::{lambda(std::__ndk1::shared_ptr<geode::SettingV3>)#1}>, void (std::__ndk1::shared_ptr<geode::SettingV3>)>::target(std::type_info const&) const
PUBLIC 1b1f0 0 std::__ndk1::__function::__func<geode::listenForSettingChangesV3<std::__ndk1::basic_string<char, std::__ndk1::char_traits<char>, std::__ndk1::allocator<char> >, geodeExecFunction27<(anonymous namespace)::ExecFuncUnique27>(geode::ModStateEvent*)::{lambda(std::__ndk1::basic_string<char, std::__ndk1::char_traits<char>, std::__ndk1::allocator<char> >)#1}>(std::__ndk1::basic_string_view<char, std::__ndk1::char_traits<char> >, geodeExecFunction27<(anonymous namespace)::ExecFuncUnique27>(geode::ModStateEvent*)::{lambda(std::__ndk1::basic_string<char, std::__ndk1::char_traits<char>, std::__ndk1::allocator<char> >&&)#1}, geode::Mod*)::{lambda(std::__ndk1::shared_ptr<geode::SettingV3>)#1}, std::__ndk1::allocator<geode::listenForSettingChangesV3<std::__ndk1::basic_string<char, std::__ndk1::char_traits<char>, std::__ndk1::allocator<char> >, geodeExecFunction27<(anonymous namespace)::ExecFuncUnique27>(geode::ModStateEvent*)::{lambda(std::__ndk1::basic_string<char, std::__ndk1::char_traits<char>, std::__ndk1::allocator<char> >)#1}>(std::__ndk1::basic_string_view<char, std::__ndk1::char_traits<char> >, geodeExecFunction27<(anonymous namespace)::ExecFuncUnique27>(geode::ModStateEvent*)::{lambda(std::__ndk1::basic_string<char, std::__ndk1::char_traits<char>, std::__ndk1::allocator<char> >&&)#1}, geode::Mod*)::{lambda(std::__ndk1::shared_ptr<geode::SettingV3>)#1}>, void (std::__ndk1::shared_ptr<geode::SettingV3>)>::target_type() const
PUBLIC 1b1fc 0 std::__ndk1::basic_string<char, std::__ndk1::char_traits<char>, std::__ndk1::allocator<char> >::__assign_no_alias<true>(char const*, unsigned long)
PUBLIC 1b2a8 0 std::__ndk1::basic_string<char, std::__ndk1::char_traits<char>, std::__ndk1::allocator<char> >::__assign_no_alias<false>(char const*, unsigned long)
PUBLIC 1b3b8 0 geode::EventListener<geode::SettingChangedFilterV3>::getPool() const
PUBLIC 1b3bc 0 geode::EventListener<geode::SettingChangedFilterV3>::handle(geode::Event*)
PUBLIC 1b520 0 geode::EventListener<geode::SettingChangedFilterV3>::~EventListener()
PUBLIC 1b5bc 0 geode::EventListener<geode::SettingChangedFilterV3>::~EventListener()
PUBLIC 1b660 0 std::__ndk1::__function::__func<geode::listenForSettingChangesV3<bool, geodeExecFunction27<(anonymous namespace)::ExecFuncUnique27>(geode::ModStateEvent*)::{lambda(bool)#1}>(std::__ndk1::basic_string_view<char, std::__ndk1::char_traits<char> >, geodeExecFunction27<(anonymous namespace)::ExecFuncUnique27>(geode::ModStateEvent*)::{lambda(bool)#1}&&, geode::Mod*)::{lambda(std::__ndk1::shared_ptr<geode::SettingV3>)#1}, std::__ndk1::allocator<geode::listenForSettingChangesV3<bool, geodeExecFunction27<(anonymous namespace)::ExecFuncUnique27>(geode::ModStateEvent*)::{lambda(bool)#1}>(std::__ndk1::basic_string_view<char, std::__ndk1::char_traits<char> >, geodeExecFunction27<(anonymous namespace)::ExecFuncUnique27>(geode::ModStateEvent*)::{lambda(bool)#1}&&, geode::Mod*)::{lambda(std::__ndk1::shared_ptr<geode::SettingV3>)#1}>, void (std::__ndk1::shared_ptr<geode::SettingV3>)>::~__func()
PUBLIC 1b664 0 std::__ndk1::__function::__func<geode::listenForSettingChangesV3<bool, geodeExecFunction27<(anonymous namespace)::ExecFuncUnique27>(geode::ModStateEvent*)::{lambda(bool)#1}>(std::__ndk1::basic_string_view<char, std::__ndk1::char_traits<char> >, geodeExecFunction27<(anonymous namespace)::ExecFuncUnique27>(geode::ModStateEvent*)::{lambda(bool)#1}&&, geode::Mod*)::{lambda(std::__ndk1::shared_ptr<geode::SettingV3>)#1}, std::__ndk1::allocator<geode::listenForSettingChangesV3<bool, geodeExecFunction27<(anonymous namespace)::ExecFuncUnique27>(geode::ModStateEvent*)::{lambda(bool)#1}>(std::__ndk1::basic_string_view<char, std::__ndk1::char_traits<char> >, geodeExecFunction27<(anonymous namespace)::ExecFuncUnique27>(geode::ModStateEvent*)::{lambda(bool)#1}&&, geode::Mod*)::{lambda(std::__ndk1::shared_ptr<geode::SettingV3>)#1}>, void (std::__ndk1::shared_ptr<geode::SettingV3>)>::__clone() const
PUBLIC 1b69c 0 std::__ndk1::__function::__func<geode::listenForSettingChangesV3<bool, geodeExecFunction27<(anonymous namespace)::ExecFuncUnique27>(geode::ModStateEvent*)::{lambda(bool)#1}>(std::__ndk1::basic_string_view<char, std::__ndk1::char_traits<char> >, geodeExecFunction27<(anonymous namespace)::ExecFuncUnique27>(geode::ModStateEvent*)::{lambda(bool)#1}&&, geode::Mod*)::{lambda(std::__ndk1::shared_ptr<geode::SettingV3>)#1}, std::__ndk1::allocator<geode::listenForSettingChangesV3<bool, geodeExecFunction27<(anonymous namespace)::ExecFuncUnique27>(geode::ModStateEvent*)::{lambda(bool)#1}>(std::__ndk1::basic_string_view<char, std::__ndk1::char_traits<char> >, geodeExecFunction27<(anonymous namespace)::ExecFuncUnique27>(geode::ModStateEvent*)::{lambda(bool)#1}&&, geode::Mod*)::{lambda(std::__ndk1::shared_ptr<geode::SettingV3>)#1}>, void (std::__ndk1::shared_ptr<geode::SettingV3>)>::__clone(std::__ndk1::__function::__base<void (std::__ndk1::shared_ptr<geode::SettingV3>)>*) const
PUBLIC 1b6b4 0 std::__ndk1::__function::__func<geode::listenForSettingChangesV3<bool, geodeExecFunction27<(anonymous namespace)::ExecFuncUnique27>(geode::ModStateEvent*)::{lambda(bool)#1}>(std::__ndk1::basic_string_view<char, std::__ndk1::char_traits<char> >, geodeExecFunction27<(anonymous namespace)::ExecFuncUnique27>(geode::ModStateEvent*)::{lambda(bool)#1}&&, geode::Mod*)::{lambda(std::__ndk1::shared_ptr<geode::SettingV3>)#1}, std::__ndk1::allocator<geode::listenForSettingChangesV3<bool, geodeExecFunction27<(anonymous namespace)::ExecFuncUnique27>(geode::ModStateEvent*)::{lambda(bool)#1}>(std::__ndk1::basic_string_view<char, std::__ndk1::char_traits<char> >, geodeExecFunction27<(anonymous namespace)::ExecFuncUnique27>(geode::ModStateEvent*)::{lambda(bool)#1}&&, geode::Mod*)::{lambda(std::__ndk1::shared_ptr<geode::SettingV3>)#1}>, void (std::__ndk1::shared_ptr<geode::SettingV3>)>::destroy()
PUBLIC 1b6b8 0 std::__ndk1::__function::__func<geode::listenForSettingChangesV3<bool, geodeExecFunction27<(anonymous namespace)::ExecFuncUnique27>(geode::ModStateEvent*)::{lambda(bool)#1}>(std::__ndk1::basic_string_view<char, std::__ndk1::char_traits<char> >, geodeExecFunction27<(anonymous namespace)::ExecFuncUnique27>(geode::ModStateEvent*)::{lambda(bool)#1}&&, geode::Mod*)::{lambda(std::__ndk1::shared_ptr<geode::SettingV3>)#1}, std::__ndk1::allocator<geode::listenForSettingChangesV3<bool, geodeExecFunction27<(anonymous namespace)::ExecFuncUnique27>(geode::ModStateEvent*)::{lambda(bool)#1}>(std::__ndk1::basic_string_view<char, std::__ndk1::char_traits<char> >, geodeExecFunction27<(anonymous namespace)::ExecFuncUnique27>(geode::ModStateEvent*)::{lambda(bool)#1}&&, geode::Mod*)::{lambda(std::__ndk1::shared_ptr<geode::SettingV3>)#1}>, void (std::__ndk1::shared_ptr<geode::SettingV3>)>::destroy_deallocate()
PUBLIC 1b6bc 0 std::__ndk1::__function::__func<geode::listenForSettingChangesV3<bool, geodeExecFunction27<(anonymous namespace)::ExecFuncUnique27>(geode::ModStateEvent*)::{lambda(bool)#1}>(std::__ndk1::basic_string_view<char, std::__ndk1::char_traits<char> >, geodeExecFunction27<(anonymous namespace)::ExecFuncUnique27>(geode::ModStateEvent*)::{lambda(bool)#1}&&, geode::Mod*)::{lambda(std::__ndk1::shared_ptr<geode::SettingV3>)#1}, std::__ndk1::allocator<geode::listenForSettingChangesV3<bool, geodeExecFunction27<(anonymous namespace)::ExecFuncUnique27>(geode::ModStateEvent*)::{lambda(bool)#1}>(std::__ndk1::basic_string_view<char, std::__ndk1::char_traits<char> >, geodeExecFunction27<(anonymous namespace)::ExecFuncUnique27>(geode::ModStateEvent*)::{lambda(bool)#1}&&, geode::Mod*)::{lambda(std::__ndk1::shared_ptr<geode::SettingV3>)#1}>, void (std::__ndk1::shared_ptr<geode::SettingV3>)>::operator()(std::__ndk1::shared_ptr<geode::SettingV3>&&)
PUBLIC 1b7a8 0 std::__ndk1::__function::__func<geode::listenForSettingChangesV3<bool, geodeExecFunction27<(anonymous namespace)::ExecFuncUnique27>(geode::ModStateEvent*)::{lambda(bool)#1}>(std::__ndk1::basic_string_view<char, std::__ndk1::char_traits<char> >, geodeExecFunction27<(anonymous namespace)::ExecFuncUnique27>(geode::ModStateEvent*)::{lambda(bool)#1}&&, geode::Mod*)::{lambda(std::__ndk1::shared_ptr<geode::SettingV3>)#1}, std::__ndk1::allocator<geode::listenForSettingChangesV3<bool, geodeExecFunction27<(anonymous namespace)::ExecFuncUnique27>(geode::ModStateEvent*)::{lambda(bool)#1}>(std::__ndk1::basic_string_view<char, std::__ndk1::char_traits<char> >, geodeExecFunction27<(anonymous namespace)::ExecFuncUnique27>(geode::ModStateEvent*)::{lambda(bool)#1}&&, geode::Mod*)::{lambda(std::__ndk1::shared_ptr<geode::SettingV3>)#1}>, void (std::__ndk1::shared_ptr<geode::SettingV3>)>::target(std::type_info const&) const
PUBLIC 1b7c4 0 std::__ndk1::__function::__func<geode::listenForSettingChangesV3<bool, geodeExecFunction27<(anonymous namespace)::ExecFuncUnique27>(geode::ModStateEvent*)::{lambda(bool)#1}>(std::__ndk1::basic_string_view<char, std::__ndk1::char_traits<char> >, geodeExecFunction27<(anonymous namespace)::ExecFuncUnique27>(geode::ModStateEvent*)::{lambda(bool)#1}&&, geode::Mod*)::{lambda(std::__ndk1::shared_ptr<geode::SettingV3>)#1}, std::__ndk1::allocator<geode::listenForSettingChangesV3<bool, geodeExecFunction27<(anonymous namespace)::ExecFuncUnique27>(geode::ModStateEvent*)::{lambda(bool)#1}>(std::__ndk1::basic_string_view<char, std::__ndk1::char_traits<char> >, geodeExecFunction27<(anonymous namespace)::ExecFuncUnique27>(geode::ModStateEvent*)::{lambda(bool)#1}&&, geode::Mod*)::{lambda(std::__ndk1::shared_ptr<geode::SettingV3>)#1}>, void (std::__ndk1::shared_ptr<geode::SettingV3>)>::target_type() const
PUBLIC 1b7d0 0 std::__ndk1::__function::__func<geode::listenForSettingChangesV3<bool, geodeExecFunction27<(anonymous namespace)::ExecFuncUnique27>(geode::ModStateEvent*)::{lambda(bool)#2}>(std::__ndk1::basic_string_view<char, std::__ndk1::char_traits<char> >, geodeExecFunction27<(anonymous namespace)::ExecFuncUnique27>(geode::ModStateEvent*)::{lambda(bool)#2}&&, geode::Mod*)::{lambda(std::__ndk1::shared_ptr<geode::SettingV3>)#1}, std::__ndk1::allocator<geode::listenForSettingChangesV3<bool, geodeExecFunction27<(anonymous namespace)::ExecFuncUnique27>(geode::ModStateEvent*)::{lambda(bool)#2}>(std::__ndk1::basic_string_view<char, std::__ndk1::char_traits<char> >, geodeExecFunction27<(anonymous namespace)::ExecFuncUnique27>(geode::ModStateEvent*)::{lambda(bool)#2}&&, geode::Mod*)::{lambda(std::__ndk1::shared_ptr<geode::SettingV3>)#1}>, void (std::__ndk1::shared_ptr<geode::SettingV3>)>::~__func()
PUBLIC 1b7d4 0 std::__ndk1::__function::__func<geode::listenForSettingChangesV3<bool, geodeExecFunction27<(anonymous namespace)::ExecFuncUnique27>(geode::ModStateEvent*)::{lambda(bool)#2}>(std::__ndk1::basic_string_view<char, std::__ndk1::char_traits<char> >, geodeExecFunction27<(anonymous namespace)::ExecFuncUnique27>(geode::ModStateEvent*)::{lambda(bool)#2}&&, geode::Mod*)::{lambda(std::__ndk1::shared_ptr<geode::SettingV3>)#1}, std::__ndk1::allocator<geode::listenForSettingChangesV3<bool, geodeExecFunction27<(anonymous namespace)::ExecFuncUnique27>(geode::ModStateEvent*)::{lambda(bool)#2}>(std::__ndk1::basic_string_view<char, std::__ndk1::char_traits<char> >, geodeExecFunction27<(anonymous namespace)::ExecFuncUnique27>(geode::ModStateEvent*)::{lambda(bool)#2}&&, geode::Mod*)::{lambda(std::__ndk1::shared_ptr<geode::SettingV3>)#1}>, void (std::__ndk1::shared_ptr<geode::SettingV3>)>::__clone() const
PUBLIC 1b80c 0 std::__ndk1::__function::__func<geode::listenForSettingChangesV3<bool, geodeExecFunction27<(anonymous namespace)::ExecFuncUnique27>(geode::ModStateEvent*)::{lambda(bool)#2}>(std::__ndk1::basic_string_view<char, std::__ndk1::char_traits<char> >, geodeExecFunction27<(anonymous namespace)::ExecFuncUnique27>(geode::ModStateEvent*)::{lambda(bool)#2}&&, geode::Mod*)::{lambda(std::__ndk1::shared_ptr<geode::SettingV3>)#1}, std::__ndk1::allocator<geode::listenForSettingChangesV3<bool, geodeExecFunction27<(anonymous namespace)::ExecFuncUnique27>(geode::ModStateEvent*)::{lambda(bool)#2}>(std::__ndk1::basic_string_view<char, std::__ndk1::char_traits<char> >, geodeExecFunction27<(anonymous namespace)::ExecFuncUnique27>(geode::ModStateEvent*)::{lambda(bool)#2}&&, geode::Mod*)::{lambda(std::__ndk1::shared_ptr<geode::SettingV3>)#1}>, void (std::__ndk1::shared_ptr<geode::SettingV3>)>::__clone(std::__ndk1::__function::__base<void (std::__ndk1::shared_ptr<geode::SettingV3>)>*) const
PUBLIC 1b824 0 std::__ndk1::__function::__func<geode::listenForSettingChangesV3<bool, geodeExecFunction27<(anonymous namespace)::ExecFuncUnique27>(geode::ModStateEvent*)::{lambda(bool)#2}>(std::__ndk1::basic_string_view<char, std::__ndk1::char_traits<char> >, geodeExecFunction27<(anonymous namespace)::ExecFuncUnique27>(geode::ModStateEvent*)::{lambda(bool)#2}&&, geode::Mod*)::{lambda(std::__ndk1::shared_ptr<geode::SettingV3>)#1}, std::__ndk1::allocator<geode::listenForSettingChangesV3<bool, geodeExecFunction27<(anonymous namespace)::ExecFuncUnique27>(geode::ModStateEvent*)::{lambda(bool)#2}>(std::__ndk1::basic_string_view<char, std::__ndk1::char_traits<char> >, geodeExecFunction27<(anonymous namespace)::ExecFuncUnique27>(geode::ModStateEvent*)::{lambda(bool)#2}&&, geode::Mod*)::{lambda(std::__ndk1::shared_ptr<geode::SettingV3>)#1}>, void (std::__ndk1::shared_ptr<geode::SettingV3>)>::destroy()
PUBLIC 1b828 0 std::__ndk1::__function::__func<geode::listenForSettingChangesV3<bool, geodeExecFunction27<(anonymous namespace)::ExecFuncUnique27>(geode::ModStateEvent*)::{lambda(bool)#2}>(std::__ndk1::basic_string_view<char, std::__ndk1::char_traits<char> >, geodeExecFunction27<(anonymous namespace)::ExecFuncUnique27>(geode::ModStateEvent*)::{lambda(bool)#2}&&, geode::Mod*)::{lambda(std::__ndk1::shared_ptr<geode::SettingV3>)#1}, std::__ndk1::allocator<geode::listenForSettingChangesV3<bool, geodeExecFunction27<(anonymous namespace)::ExecFuncUnique27>(geode::ModStateEvent*)::{lambda(bool)#2}>(std::__ndk1::basic_string_view<char, std::__ndk1::char_traits<char> >, geodeExecFunction27<(anonymous namespace)::ExecFuncUnique27>(geode::ModStateEvent*)::{lambda(bool)#2}&&, geode::Mod*)::{lambda(std::__ndk1::shared_ptr<geode::SettingV3>)#1}>, void (std::__ndk1::shared_ptr<geode::SettingV3>)>::destroy_deallocate()
PUBLIC 1b82c 0 std::__ndk1::__function::__func<geode::listenForSettingChangesV3<bool, geodeExecFunction27<(anonymous namespace)::ExecFuncUnique27>(geode::ModStateEvent*)::{lambda(bool)#2}>(std::__ndk1::basic_string_view<char, std::__ndk1::char_traits<char> >, geodeExecFunction27<(anonymous namespace)::ExecFuncUnique27>(geode::ModStateEvent*)::{lambda(bool)#2}&&, geode::Mod*)::{lambda(std::__ndk1::shared_ptr<geode::SettingV3>)#1}, std::__ndk1::allocator<geode::listenForSettingChangesV3<bool, geodeExecFunction27<(anonymous namespace)::ExecFuncUnique27>(geode::ModStateEvent*)::{lambda(bool)#2}>(std::__ndk1::basic_string_view<char, std::__ndk1::char_traits<char> >, geodeExecFunction27<(anonymous namespace)::ExecFuncUnique27>(geode::ModStateEvent*)::{lambda(bool)#2}&&, geode::Mod*)::{lambda(std::__ndk1::shared_ptr<geode::SettingV3>)#1}>, void (std::__ndk1::shared_ptr<geode::SettingV3>)>::operator()(std::__ndk1::shared_ptr<geode::SettingV3>&&)
PUBLIC 1b918 0 std::__ndk1::__function::__func<geode::listenForSettingChangesV3<bool, geodeExecFunction27<(anonymous namespace)::ExecFuncUnique27>(geode::ModStateEvent*)::{lambda(bool)#2}>(std::__ndk1::basic_string_view<char, std::__ndk1::char_traits<char> >, geodeExecFunction27<(anonymous namespace)::ExecFuncUnique27>(geode::ModStateEvent*)::{lambda(bool)#2}&&, geode::Mod*)::{lambda(std::__ndk1::shared_ptr<geode::SettingV3>)#1}, std::__ndk1::allocator<geode::listenForSettingChangesV3<bool, geodeExecFunction27<(anonymous namespace)::ExecFuncUnique27>(geode::ModStateEvent*)::{lambda(bool)#2}>(std::__ndk1::basic_string_view<char, std::__ndk1::char_traits<char> >, geodeExecFunction27<(anonymous namespace)::ExecFuncUnique27>(geode::ModStateEvent*)::{lambda(bool)#2}&&, geode::Mod*)::{lambda(std::__ndk1::shared_ptr<geode::SettingV3>)#1}>, void (std::__ndk1::shared_ptr<geode::SettingV3>)>::target(std::type_info const&) const
PUBLIC 1b934 0 std::__ndk1::__function::__func<geode::listenForSettingChangesV3<bool, geodeExecFunction27<(anonymous namespace)::ExecFuncUnique27>(geode::ModStateEvent*)::{lambda(bool)#2}>(std::__ndk1::basic_string_view<char, std::__ndk1::char_traits<char> >, geodeExecFunction27<(anonymous namespace)::ExecFuncUnique27>(geode::ModStateEvent*)::{lambda(bool)#2}&&, geode::Mod*)::{lambda(std::__ndk1::shared_ptr<geode::SettingV3>)#1}, std::__ndk1::allocator<geode::listenForSettingChangesV3<bool, geodeExecFunction27<(anonymous namespace)::ExecFuncUnique27>(geode::ModStateEvent*)::{lambda(bool)#2}>(std::__ndk1::basic_string_view<char, std::__ndk1::char_traits<char> >, geodeExecFunction27<(anonymous namespace)::ExecFuncUnique27>(geode::ModStateEvent*)::{lambda(bool)#2}&&, geode::Mod*)::{lambda(std::__ndk1::shared_ptr<geode::SettingV3>)#1}>, void (std::__ndk1::shared_ptr<geode::SettingV3>)>::target_type() const
PUBLIC 1b940 0 std::__ndk1::__function::__func<geode::listenForSettingChangesV3<bool, geodeExecFunction27<(anonymous namespace)::ExecFuncUnique27>(geode::ModStateEvent*)::{lambda(bool)#3}>(std::__ndk1::basic_string_view<char, std::__ndk1::char_traits<char> >, geodeExecFunction27<(anonymous namespace)::ExecFuncUnique27>(geode::ModStateEvent*)::{lambda(bool)#3}&&, geode::Mod*)::{lambda(std::__ndk1::shared_ptr<geode::SettingV3>)#1}, std::__ndk1::allocator<geode::listenForSettingChangesV3<bool, geodeExecFunction27<(anonymous namespace)::ExecFuncUnique27>(geode::ModStateEvent*)::{lambda(bool)#3}>(std::__ndk1::basic_string_view<char, std::__ndk1::char_traits<char> >, geodeExecFunction27<(anonymous namespace)::ExecFuncUnique27>(geode::ModStateEvent*)::{lambda(bool)#3}&&, geode::Mod*)::{lambda(std::__ndk1::shared_ptr<geode::SettingV3>)#1}>, void (std::__ndk1::shared_ptr<geode::SettingV3>)>::~__func()
PUBLIC 1b944 0 std::__ndk1::__function::__func<geode::listenForSettingChangesV3<bool, geodeExecFunction27<(anonymous namespace)::ExecFuncUnique27>(geode::ModStateEvent*)::{lambda(bool)#3}>(std::__ndk1::basic_string_view<char, std::__ndk1::char_traits<char> >, geodeExecFunction27<(anonymous namespace)::ExecFuncUnique27>(geode::ModStateEvent*)::{lambda(bool)#3}&&, geode::Mod*)::{lambda(std::__ndk1::shared_ptr<geode::SettingV3>)#1}, std::__ndk1::allocator<geode::listenForSettingChangesV3<bool, geodeExecFunction27<(anonymous namespace)::ExecFuncUnique27>(geode::ModStateEvent*)::{lambda(bool)#3}>(std::__ndk1::basic_string_view<char, std::__ndk1::char_traits<char> >, geodeExecFunction27<(anonymous namespace)::ExecFuncUnique27>(geode::ModStateEvent*)::{lambda(bool)#3}&&, geode::Mod*)::{lambda(std::__ndk1::shared_ptr<geode::SettingV3>)#1}>, void (std::__ndk1::shared_ptr<geode::SettingV3>)>::__clone() const
PUBLIC 1b97c 0 std::__ndk1::__function::__func<geode::listenForSettingChangesV3<bool, geodeExecFunction27<(anonymous namespace)::ExecFuncUnique27>(geode::ModStateEvent*)::{lambda(bool)#3}>(std::__ndk1::basic_string_view<char, std::__ndk1::char_traits<char> >, geodeExecFunction27<(anonymous namespace)::ExecFuncUnique27>(geode::ModStateEvent*)::{lambda(bool)#3}&&, geode::Mod*)::{lambda(std::__ndk1::shared_ptr<geode::SettingV3>)#1}, std::__ndk1::allocator<geode::listenForSettingChangesV3<bool, geodeExecFunction27<(anonymous namespace)::ExecFuncUnique27>(geode::ModStateEvent*)::{lambda(bool)#3}>(std::__ndk1::basic_string_view<char, std::__ndk1::char_traits<char> >, geodeExecFunction27<(anonymous namespace)::ExecFuncUnique27>(geode::ModStateEvent*)::{lambda(bool)#3}&&, geode::Mod*)::{lambda(std::__ndk1::shared_ptr<geode::SettingV3>)#1}>, void (std::__ndk1::shared_ptr<geode::SettingV3>)>::__clone(std::__ndk1::__function::__base<void (std::__ndk1::shared_ptr<geode::SettingV3>)>*) const
PUBLIC 1b994 0 std::__ndk1::__function::__func<geode::listenForSettingChangesV3<bool, geodeExecFunction27<(anonymous namespace)::ExecFuncUnique27>(geode::ModStateEvent*)::{lambda(bool)#3}>(std::__ndk1::basic_string_view<char, std::__ndk1::char_traits<char> >, geodeExecFunction27<(anonymous namespace)::ExecFuncUnique27>(geode::ModStateEvent*)::{lambda(bool)#3}&&, geode::Mod*)::{lambda(std::__ndk1::shared_ptr<geode::SettingV3>)#1}, std::__ndk1::allocator<geode::listenForSettingChangesV3<bool, geodeExecFunction27<(anonymous namespace)::ExecFuncUnique27>(geode::ModStateEvent*)::{lambda(bool)#3}>(std::__ndk1::basic_string_view<char, std::__ndk1::char_traits<char> >, geodeExecFunction27<(anonymous namespace)::ExecFuncUnique27>(geode::ModStateEvent*)::{lambda(bool)#3}&&, geode::Mod*)::{lambda(std::__ndk1::shared_ptr<geode::SettingV3>)#1}>, void (std::__ndk1::shared_ptr<geode::SettingV3>)>::destroy()
PUBLIC 1b998 0 std::__ndk1::__function::__func<geode::listenForSettingChangesV3<bool, geodeExecFunction27<(anonymous namespace)::ExecFuncUnique27>(geode::ModStateEvent*)::{lambda(bool)#3}>(std::__ndk1::basic_string_view<char, std::__ndk1::char_traits<char> >, geodeExecFunction27<(anonymous namespace)::ExecFuncUnique27>(geode::ModStateEvent*)::{lambda(bool)#3}&&, geode::Mod*)::{lambda(std::__ndk1::shared_ptr<geode::SettingV3>)#1}, std::__ndk1::allocator<geode::listenForSettingChangesV3<bool, geodeExecFunction27<(anonymous namespace)::ExecFuncUnique27>(geode::ModStateEvent*)::{lambda(bool)#3}>(std::__ndk1::basic_string_view<char, std::__ndk1::char_traits<char> >, geodeExecFunction27<(anonymous namespace)::ExecFuncUnique27>(geode::ModStateEvent*)::{lambda(bool)#3}&&, geode::Mod*)::{lambda(std::__ndk1::shared_ptr<geode::SettingV3>)#1}>, void (std::__ndk1::shared_ptr<geode::SettingV3>)>::destroy_deallocate()
PUBLIC 1b99c 0 std::__ndk1::__function::__func<geode::listenForSettingChangesV3<bool, geodeExecFunction27<(anonymous namespace)::ExecFuncUnique27>(geode::ModStateEvent*)::{lambda(bool)#3}>(std::__ndk1::basic_string_view<char, std::__ndk1::char_traits<char> >, geodeExecFunction27<(anonymous namespace)::ExecFuncUnique27>(geode::ModStateEvent*)::{lambda(bool)#3}&&, geode::Mod*)::{lambda(std::__ndk1::shared_ptr<geode::SettingV3>)#1}, std::__ndk1::allocator<geode::listenForSettingChangesV3<bool, geodeExecFunction27<(anonymous namespace)::ExecFuncUnique27>(geode::ModStateEvent*)::{lambda(bool)#3}>(std::__ndk1::basic_string_view<char, std::__ndk1::char_traits<char> >, geodeExecFunction27<(anonymous namespace)::ExecFuncUnique27>(geode::ModStateEvent*)::{lambda(bool)#3}&&, geode::Mod*)::{lambda(std::__ndk1::shared_ptr<geode::SettingV3>)#1}>, void (std::__ndk1::shared_ptr<geode::SettingV3>)>::operator()(std::__ndk1::shared_ptr<geode::SettingV3>&&)
PUBLIC 1ba88 0 std::__ndk1::__function::__func<geode::listenForSettingChangesV3<bool, geodeExecFunction27<(anonymous namespace)::ExecFuncUnique27>(geode::ModStateEvent*)::{lambda(bool)#3}>(std::__ndk1::basic_string_view<char, std::__ndk1::char_traits<char> >, geodeExecFunction27<(anonymous namespace)::ExecFuncUnique27>(geode::ModStateEvent*)::{lambda(bool)#3}&&, geode::Mod*)::{lambda(std::__ndk1::shared_ptr<geode::SettingV3>)#1}, std::__ndk1::allocator<geode::listenForSettingChangesV3<bool, geodeExecFunction27<(anonymous namespace)::ExecFuncUnique27>(geode::ModStateEvent*)::{lambda(bool)#3}>(std::__ndk1::basic_string_view<char, std::__ndk1::char_traits<char> >, geodeExecFunction27<(anonymous namespace)::ExecFuncUnique27>(geode::ModStateEvent*)::{lambda(bool)#3}&&, geode::Mod*)::{lambda(std::__ndk1::shared_ptr<geode::SettingV3>)#1}>, void (std::__ndk1::shared_ptr<geode::SettingV3>)>::target(std::type_info const&) const
PUBLIC 1baa4 0 std::__ndk1::__function::__func<geode::listenForSettingChangesV3<bool, geodeExecFunction27<(anonymous namespace)::ExecFuncUnique27>(geode::ModStateEvent*)::{lambda(bool)#3}>(std::__ndk1::basic_string_view<char, std::__ndk1::char_traits<char> >, geodeExecFunction27<(anonymous namespace)::ExecFuncUnique27>(geode::ModStateEvent*)::{lambda(bool)#3}&&, geode::Mod*)::{lambda(std::__ndk1::shared_ptr<geode::SettingV3>)#1}, std::__ndk1::allocator<geode::listenForSettingChangesV3<bool, geodeExecFunction27<(anonymous namespace)::ExecFuncUnique27>(geode::ModStateEvent*)::{lambda(bool)#3}>(std::__ndk1::basic_string_view<char, std::__ndk1::char_traits<char> >, geodeExecFunction27<(anonymous namespace)::ExecFuncUnique27>(geode::ModStateEvent*)::{lambda(bool)#3}&&, geode::Mod*)::{lambda(std::__ndk1::shared_ptr<geode::SettingV3>)#1}>, void (std::__ndk1::shared_ptr<geode::SettingV3>)>::target_type() const
PUBLIC 1bab0 0 std::__ndk1::__function::__func<geode::listenForSettingChangesV3<bool, geodeExecFunction27<(anonymous namespace)::ExecFuncUnique27>(geode::ModStateEvent*)::{lambda(bool)#4}>(std::__ndk1::basic_string_view<char, std::__ndk1::char_traits<char> >, geodeExecFunction27<(anonymous namespace)::ExecFuncUnique27>(geode::ModStateEvent*)::{lambda(bool)#4}&&, geode::Mod*)::{lambda(std::__ndk1::shared_ptr<geode::SettingV3>)#1}, std::__ndk1::allocator<geode::listenForSettingChangesV3<bool, geodeExecFunction27<(anonymous namespace)::ExecFuncUnique27>(geode::ModStateEvent*)::{lambda(bool)#4}>(std::__ndk1::basic_string_view<char, std::__ndk1::char_traits<char> >, geodeExecFunction27<(anonymous namespace)::ExecFuncUnique27>(geode::ModStateEvent*)::{lambda(bool)#4}&&, geode::Mod*)::{lambda(std::__ndk1::shared_ptr<geode::SettingV3>)#1}>, void (std::__ndk1::shared_ptr<geode::SettingV3>)>::~__func()
PUBLIC 1bab4 0 std::__ndk1::__function::__func<geode::listenForSettingChangesV3<bool, geodeExecFunction27<(anonymous namespace)::ExecFuncUnique27>(geode::ModStateEvent*)::{lambda(bool)#4}>(std::__ndk1::basic_string_view<char, std::__ndk1::char_traits<char> >, geodeExecFunction27<(anonymous namespace)::ExecFuncUnique27>(geode::ModStateEvent*)::{lambda(bool)#4}&&, geode::Mod*)::{lambda(std::__ndk1::shared_ptr<geode::SettingV3>)#1}, std::__ndk1::allocator<geode::listenForSettingChangesV3<bool, geodeExecFunction27<(anonymous namespace)::ExecFuncUnique27>(geode::ModStateEvent*)::{lambda(bool)#4}>(std::__ndk1::basic_string_view<char, std::__ndk1::char_traits<char> >, geodeExecFunction27<(anonymous namespace)::ExecFuncUnique27>(geode::ModStateEvent*)::{lambda(bool)#4}&&, geode::Mod*)::{lambda(std::__ndk1::shared_ptr<geode::SettingV3>)#1}>, void (std::__ndk1::shared_ptr<geode::SettingV3>)>::__clone() const
PUBLIC 1baec 0 std::__ndk1::__function::__func<geode::listenForSettingChangesV3<bool, geodeExecFunction27<(anonymous namespace)::ExecFuncUnique27>(geode::ModStateEvent*)::{lambda(bool)#4}>(std::__ndk1::basic_string_view<char, std::__ndk1::char_traits<char> >, geodeExecFunction27<(anonymous namespace)::ExecFuncUnique27>(geode::ModStateEvent*)::{lambda(bool)#4}&&, geode::Mod*)::{lambda(std::__ndk1::shared_ptr<geode::SettingV3>)#1}, std::__ndk1::allocator<geode::listenForSettingChangesV3<bool, geodeExecFunction27<(anonymous namespace)::ExecFuncUnique27>(geode::ModStateEvent*)::{lambda(bool)#4}>(std::__ndk1::basic_string_view<char, std::__ndk1::char_traits<char> >, geodeExecFunction27<(anonymous namespace)::ExecFuncUnique27>(geode::ModStateEvent*)::{lambda(bool)#4}&&, geode::Mod*)::{lambda(std::__ndk1::shared_ptr<geode::SettingV3>)#1}>, void (std::__ndk1::shared_ptr<geode::SettingV3>)>::__clone(std::__ndk1::__function::__base<void (std::__ndk1::shared_ptr<geode::SettingV3>)>*) const
PUBLIC 1bb04 0 std::__ndk1::__function::__func<geode::listenForSettingChangesV3<bool, geodeExecFunction27<(anonymous namespace)::ExecFuncUnique27>(geode::ModStateEvent*)::{lambda(bool)#4}>(std::__ndk1::basic_string_view<char, std::__ndk1::char_traits<char> >, geodeExecFunction27<(anonymous namespace)::ExecFuncUnique27>(geode::ModStateEvent*)::{lambda(bool)#4}&&, geode::Mod*)::{lambda(std::__ndk1::shared_ptr<geode::SettingV3>)#1}, std::__ndk1::allocator<geode::listenForSettingChangesV3<bool, geodeExecFunction27<(anonymous namespace)::ExecFuncUnique27>(geode::ModStateEvent*)::{lambda(bool)#4}>(std::__ndk1::basic_string_view<char, std::__ndk1::char_traits<char> >, geodeExecFunction27<(anonymous namespace)::ExecFuncUnique27>(geode::ModStateEvent*)::{lambda(bool)#4}&&, geode::Mod*)::{lambda(std::__ndk1::shared_ptr<geode::SettingV3>)#1}>, void (std::__ndk1::shared_ptr<geode::SettingV3>)>::destroy()
PUBLIC 1bb08 0 std::__ndk1::__function::__func<geode::listenForSettingChangesV3<bool, geodeExecFunction27<(anonymous namespace)::ExecFuncUnique27>(geode::ModStateEvent*)::{lambda(bool)#4}>(std::__ndk1::basic_string_view<char, std::__ndk1::char_traits<char> >, geodeExecFunction27<(anonymous namespace)::ExecFuncUnique27>(geode::ModStateEvent*)::{lambda(bool)#4}&&, geode::Mod*)::{lambda(std::__ndk1::shared_ptr<geode::SettingV3>)#1}, std::__ndk1::allocator<geode::listenForSettingChangesV3<bool, geodeExecFunction27<(anonymous namespace)::ExecFuncUnique27>(geode::ModStateEvent*)::{lambda(bool)#4}>(std::__ndk1::basic_string_view<char, std::__ndk1::char_traits<char> >, geodeExecFunction27<(anonymous namespace)::ExecFuncUnique27>(geode::ModStateEvent*)::{lambda(bool)#4}&&, geode::Mod*)::{lambda(std::__ndk1::shared_ptr<geode::SettingV3>)#1}>, void (std::__ndk1::shared_ptr<geode::SettingV3>)>::destroy_deallocate()
PUBLIC 1bb0c 0 std::__ndk1::__function::__func<geode::listenForSettingChangesV3<bool, geodeExecFunction27<(anonymous namespace)::ExecFuncUnique27>(geode::ModStateEvent*)::{lambda(bool)#4}>(std::__ndk1::basic_string_view<char, std::__ndk1::char_traits<char> >, geodeExecFunction27<(anonymous namespace)::ExecFuncUnique27>(geode::ModStateEvent*)::{lambda(bool)#4}&&, geode::Mod*)::{lambda(std::__ndk1::shared_ptr<geode::SettingV3>)#1}, std::__ndk1::allocator<geode::listenForSettingChangesV3<bool, geodeExecFunction27<(anonymous namespace)::ExecFuncUnique27>(geode::ModStateEvent*)::{lambda(bool)#4}>(std::__ndk1::basic_string_view<char, std::__ndk1::char_traits<char> >, geodeExecFunction27<(anonymous namespace)::ExecFuncUnique27>(geode::ModStateEvent*)::{lambda(bool)#4}&&, geode::Mod*)::{lambda(std::__ndk1::shared_ptr<geode::SettingV3>)#1}>, void (std::__ndk1::shared_ptr<geode::SettingV3>)>::operator()(std::__ndk1::shared_ptr<geode::SettingV3>&&)
PUBLIC 1bbf8 0 std::__ndk1::__function::__func<geode::listenForSettingChangesV3<bool, geodeExecFunction27<(anonymous namespace)::ExecFuncUnique27>(geode::ModStateEvent*)::{lambda(bool)#4}>(std::__ndk1::basic_string_view<char, std::__ndk1::char_traits<char> >, geodeExecFunction27<(anonymous namespace)::ExecFuncUnique27>(geode::ModStateEvent*)::{lambda(bool)#4}&&, geode::Mod*)::{lambda(std::__ndk1::shared_ptr<geode::SettingV3>)#1}, std::__ndk1::allocator<geode::listenForSettingChangesV3<bool, geodeExecFunction27<(anonymous namespace)::ExecFuncUnique27>(geode::ModStateEvent*)::{lambda(bool)#4}>(std::__ndk1::basic_string_view<char, std::__ndk1::char_traits<char> >, geodeExecFunction27<(anonymous namespace)::ExecFuncUnique27>(geode::ModStateEvent*)::{lambda(bool)#4}&&, geode::Mod*)::{lambda(std::__ndk1::shared_ptr<geode::SettingV3>)#1}>, void (std::__ndk1::shared_ptr<geode::SettingV3>)>::target(std::type_info const&) const
PUBLIC 1bc14 0 std::__ndk1::__function::__func<geode::listenForSettingChangesV3<bool, geodeExecFunction27<(anonymous namespace)::ExecFuncUnique27>(geode::ModStateEvent*)::{lambda(bool)#4}>(std::__ndk1::basic_string_view<char, std::__ndk1::char_traits<char> >, geodeExecFunction27<(anonymous namespace)::ExecFuncUnique27>(geode::ModStateEvent*)::{lambda(bool)#4}&&, geode::Mod*)::{lambda(std::__ndk1::shared_ptr<geode::SettingV3>)#1}, std::__ndk1::allocator<geode::listenForSettingChangesV3<bool, geodeExecFunction27<(anonymous namespace)::ExecFuncUnique27>(geode::ModStateEvent*)::{lambda(bool)#4}>(std::__ndk1::basic_string_view<char, std::__ndk1::char_traits<char> >, geodeExecFunction27<(anonymous namespace)::ExecFuncUnique27>(geode::ModStateEvent*)::{lambda(bool)#4}&&, geode::Mod*)::{lambda(std::__ndk1::shared_ptr<geode::SettingV3>)#1}>, void (std::__ndk1::shared_ptr<geode::SettingV3>)>::target_type() const
PUBLIC 1bc20 0 std::__ndk1::__function::__func<geode::listenForSettingChangesV3<bool, geodeExecFunction27<(anonymous namespace)::ExecFuncUnique27>(geode::ModStateEvent*)::{lambda(bool)#5}>(std::__ndk1::basic_string_view<char, std::__ndk1::char_traits<char> >, geodeExecFunction27<(anonymous namespace)::ExecFuncUnique27>(geode::ModStateEvent*)::{lambda(bool)#5}&&, geode::Mod*)::{lambda(std::__ndk1::shared_ptr<geode::SettingV3>)#1}, std::__ndk1::allocator<geode::listenForSettingChangesV3<bool, geodeExecFunction27<(anonymous namespace)::ExecFuncUnique27>(geode::ModStateEvent*)::{lambda(bool)#5}>(std::__ndk1::basic_string_view<char, std::__ndk1::char_traits<char> >, geodeExecFunction27<(anonymous namespace)::ExecFuncUnique27>(geode::ModStateEvent*)::{lambda(bool)#5}&&, geode::Mod*)::{lambda(std::__ndk1::shared_ptr<geode::SettingV3>)#1}>, void (std::__ndk1::shared_ptr<geode::SettingV3>)>::~__func()
PUBLIC 1bc24 0 std::__ndk1::__function::__func<geode::listenForSettingChangesV3<bool, geodeExecFunction27<(anonymous namespace)::ExecFuncUnique27>(geode::ModStateEvent*)::{lambda(bool)#5}>(std::__ndk1::basic_string_view<char, std::__ndk1::char_traits<char> >, geodeExecFunction27<(anonymous namespace)::ExecFuncUnique27>(geode::ModStateEvent*)::{lambda(bool)#5}&&, geode::Mod*)::{lambda(std::__ndk1::shared_ptr<geode::SettingV3>)#1}, std::__ndk1::allocator<geode::listenForSettingChangesV3<bool, geodeExecFunction27<(anonymous namespace)::ExecFuncUnique27>(geode::ModStateEvent*)::{lambda(bool)#5}>(std::__ndk1::basic_string_view<char, std::__ndk1::char_traits<char> >, geodeExecFunction27<(anonymous namespace)::ExecFuncUnique27>(geode::ModStateEvent*)::{lambda(bool)#5}&&, geode::Mod*)::{lambda(std::__ndk1::shared_ptr<geode::SettingV3>)#1}>, void (std::__ndk1::shared_ptr<geode::SettingV3>)>::__clone() const
PUBLIC 1bc5c 0 std::__ndk1::__function::__func<geode::listenForSettingChangesV3<bool, geodeExecFunction27<(anonymous namespace)::ExecFuncUnique27>(geode::ModStateEvent*)::{lambda(bool)#5}>(std::__ndk1::basic_string_view<char, std::__ndk1::char_traits<char> >, geodeExecFunction27<(anonymous namespace)::ExecFuncUnique27>(geode::ModStateEvent*)::{lambda(bool)#5}&&, geode::Mod*)::{lambda(std::__ndk1::shared_ptr<geode::SettingV3>)#1}, std::__ndk1::allocator<geode::listenForSettingChangesV3<bool, geodeExecFunction27<(anonymous namespace)::ExecFuncUnique27>(geode::ModStateEvent*)::{lambda(bool)#5}>(std::__ndk1::basic_string_view<char, std::__ndk1::char_traits<char> >, geodeExecFunction27<(anonymous namespace)::ExecFuncUnique27>(geode::ModStateEvent*)::{lambda(bool)#5}&&, geode::Mod*)::{lambda(std::__ndk1::shared_ptr<geode::SettingV3>)#1}>, void (std::__ndk1::shared_ptr<geode::SettingV3>)>::__clone(std::__ndk1::__function::__base<void (std::__ndk1::shared_ptr<geode::SettingV3>)>*) const
PUBLIC 1bc74 0 std::__ndk1::__function::__func<geode::listenForSettingChangesV3<bool, geodeExecFunction27<(anonymous namespace)::ExecFuncUnique27>(geode::ModStateEvent*)::{lambda(bool)#5}>(std::__ndk1::basic_string_view<char, std::__ndk1::char_traits<char> >, geodeExecFunction27<(anonymous namespace)::ExecFuncUnique27>(geode::ModStateEvent*)::{lambda(bool)#5}&&, geode::Mod*)::{lambda(std::__ndk1::shared_ptr<geode::SettingV3>)#1}, std::__ndk1::allocator<geode::listenForSettingChangesV3<bool, geodeExecFunction27<(anonymous namespace)::ExecFuncUnique27>(geode::ModStateEvent*)::{lambda(bool)#5}>(std::__ndk1::basic_string_view<char, std::__ndk1::char_traits<char> >, geodeExecFunction27<(anonymous namespace)::ExecFuncUnique27>(geode::ModStateEvent*)::{lambda(bool)#5}&&, geode::Mod*)::{lambda(std::__ndk1::shared_ptr<geode::SettingV3>)#1}>, void (std::__ndk1::shared_ptr<geode::SettingV3>)>::destroy()
PUBLIC 1bc78 0 std::__ndk1::__function::__func<geode::listenForSettingChangesV3<bool, geodeExecFunction27<(anonymous namespace)::ExecFuncUnique27>(geode::ModStateEvent*)::{lambda(bool)#5}>(std::__ndk1::basic_string_view<char, std::__ndk1::char_traits<char> >, geodeExecFunction27<(anonymous namespace)::ExecFuncUnique27>(geode::ModStateEvent*)::{lambda(bool)#5}&&, geode::Mod*)::{lambda(std::__ndk1::shared_ptr<geode::SettingV3>)#1}, std::__ndk1::allocator<geode::listenForSettingChangesV3<bool, geodeExecFunction27<(anonymous namespace)::ExecFuncUnique27>(geode::ModStateEvent*)::{lambda(bool)#5}>(std::__ndk1::basic_string_view<char, std::__ndk1::char_traits<char> >, geodeExecFunction27<(anonymous namespace)::ExecFuncUnique27>(geode::ModStateEvent*)::{lambda(bool)#5}&&, geode::Mod*)::{lambda(std::__ndk1::shared_ptr<geode::SettingV3>)#1}>, void (std::__ndk1::shared_ptr<geode::SettingV3>)>::destroy_deallocate()
PUBLIC 1bc7c 0 std::__ndk1::__function::__func<geode::listenForSettingChangesV3<bool, geodeExecFunction27<(anonymous namespace)::ExecFuncUnique27>(geode::ModStateEvent*)::{lambda(bool)#5}>(std::__ndk1::basic_string_view<char, std::__ndk1::char_traits<char> >, geodeExecFunction27<(anonymous namespace)::ExecFuncUnique27>(geode::ModStateEvent*)::{lambda(bool)#5}&&, geode::Mod*)::{lambda(std::__ndk1::shared_ptr<geode::SettingV3>)#1}, std::__ndk1::allocator<geode::listenForSettingChangesV3<bool, geodeExecFunction27<(anonymous namespace)::ExecFuncUnique27>(geode::ModStateEvent*)::{lambda(bool)#5}>(std::__ndk1::basic_string_view<char, std::__ndk1::char_traits<char> >, geodeExecFunction27<(anonymous namespace)::ExecFuncUnique27>(geode::ModStateEvent*)::{lambda(bool)#5}&&, geode::Mod*)::{lambda(std::__ndk1::shared_ptr<geode::SettingV3>)#1}>, void (std::__ndk1::shared_ptr<geode::SettingV3>)>::operator()(std::__ndk1::shared_ptr<geode::SettingV3>&&)
PUBLIC 1bd68 0 std::__ndk1::__function::__func<geode::listenForSettingChangesV3<bool, geodeExecFunction27<(anonymous namespace)::ExecFuncUnique27>(geode::ModStateEvent*)::{lambda(bool)#5}>(std::__ndk1::basic_string_view<char, std::__ndk1::char_traits<char> >, geodeExecFunction27<(anonymous namespace)::ExecFuncUnique27>(geode::ModStateEvent*)::{lambda(bool)#5}&&, geode::Mod*)::{lambda(std::__ndk1::shared_ptr<geode::SettingV3>)#1}, std::__ndk1::allocator<geode::listenForSettingChangesV3<bool, geodeExecFunction27<(anonymous namespace)::ExecFuncUnique27>(geode::ModStateEvent*)::{lambda(bool)#5}>(std::__ndk1::basic_string_view<char, std::__ndk1::char_traits<char> >, geodeExecFunction27<(anonymous namespace)::ExecFuncUnique27>(geode::ModStateEvent*)::{lambda(bool)#5}&&, geode::Mod*)::{lambda(std::__ndk1::shared_ptr<geode::SettingV3>)#1}>, void (std::__ndk1::shared_ptr<geode::SettingV3>)>::target(std::type_info const&) const
PUBLIC 1bd84 0 std::__ndk1::__function::__func<geode::listenForSettingChangesV3<bool, geodeExecFunction27<(anonymous namespace)::ExecFuncUnique27>(geode::ModStateEvent*)::{lambda(bool)#5}>(std::__ndk1::basic_string_view<char, std::__ndk1::char_traits<char> >, geodeExecFunction27<(anonymous namespace)::ExecFuncUnique27>(geode::ModStateEvent*)::{lambda(bool)#5}&&, geode::Mod*)::{lambda(std::__ndk1::shared_ptr<geode::SettingV3>)#1}, std::__ndk1::allocator<geode::listenForSettingChangesV3<bool, geodeExecFunction27<(anonymous namespace)::ExecFuncUnique27>(geode::ModStateEvent*)::{lambda(bool)#5}>(std::__ndk1::basic_string_view<char, std::__ndk1::char_traits<char> >, geodeExecFunction27<(anonymous namespace)::ExecFuncUnique27>(geode::ModStateEvent*)::{lambda(bool)#5}&&, geode::Mod*)::{lambda(std::__ndk1::shared_ptr<geode::SettingV3>)#1}>, void (std::__ndk1::shared_ptr<geode::SettingV3>)>::target_type() const
PUBLIC 1bd90 0 std::__ndk1::__function::__func<geode::listenForSettingChangesV3<bool, geodeExecFunction27<(anonymous namespace)::ExecFuncUnique27>(geode::ModStateEvent*)::{lambda(bool)#6}>(std::__ndk1::basic_string_view<char, std::__ndk1::char_traits<char> >, geodeExecFunction27<(anonymous namespace)::ExecFuncUnique27>(geode::ModStateEvent*)::{lambda(bool)#6}&&, geode::Mod*)::{lambda(std::__ndk1::shared_ptr<geode::SettingV3>)#1}, std::__ndk1::allocator<geode::listenForSettingChangesV3<bool, geodeExecFunction27<(anonymous namespace)::ExecFuncUnique27>(geode::ModStateEvent*)::{lambda(bool)#6}>(std::__ndk1::basic_string_view<char, std::__ndk1::char_traits<char> >, geodeExecFunction27<(anonymous namespace)::ExecFuncUnique27>(geode::ModStateEvent*)::{lambda(bool)#6}&&, geode::Mod*)::{lambda(std::__ndk1::shared_ptr<geode::SettingV3>)#1}>, void (std::__ndk1::shared_ptr<geode::SettingV3>)>::~__func()
PUBLIC 1bd94 0 std::__ndk1::__function::__func<geode::listenForSettingChangesV3<bool, geodeExecFunction27<(anonymous namespace)::ExecFuncUnique27>(geode::ModStateEvent*)::{lambda(bool)#6}>(std::__ndk1::basic_string_view<char, std::__ndk1::char_traits<char> >, geodeExecFunction27<(anonymous namespace)::ExecFuncUnique27>(geode::ModStateEvent*)::{lambda(bool)#6}&&, geode::Mod*)::{lambda(std::__ndk1::shared_ptr<geode::SettingV3>)#1}, std::__ndk1::allocator<geode::listenForSettingChangesV3<bool, geodeExecFunction27<(anonymous namespace)::ExecFuncUnique27>(geode::ModStateEvent*)::{lambda(bool)#6}>(std::__ndk1::basic_string_view<char, std::__ndk1::char_traits<char> >, geodeExecFunction27<(anonymous namespace)::ExecFuncUnique27>(geode::ModStateEvent*)::{lambda(bool)#6}&&, geode::Mod*)::{lambda(std::__ndk1::shared_ptr<geode::SettingV3>)#1}>, void (std::__ndk1::shared_ptr<geode::SettingV3>)>::__clone() const
PUBLIC 1bdcc 0 std::__ndk1::__function::__func<geode::listenForSettingChangesV3<bool, geodeExecFunction27<(anonymous namespace)::ExecFuncUnique27>(geode::ModStateEvent*)::{lambda(bool)#6}>(std::__ndk1::basic_string_view<char, std::__ndk1::char_traits<char> >, geodeExecFunction27<(anonymous namespace)::ExecFuncUnique27>(geode::ModStateEvent*)::{lambda(bool)#6}&&, geode::Mod*)::{lambda(std::__ndk1::shared_ptr<geode::SettingV3>)#1}, std::__ndk1::allocator<geode::listenForSettingChangesV3<bool, geodeExecFunction27<(anonymous namespace)::ExecFuncUnique27>(geode::ModStateEvent*)::{lambda(bool)#6}>(std::__ndk1::basic_string_view<char, std::__ndk1::char_traits<char> >, geodeExecFunction27<(anonymous namespace)::ExecFuncUnique27>(geode::ModStateEvent*)::{lambda(bool)#6}&&, geode::Mod*)::{lambda(std::__ndk1::shared_ptr<geode::SettingV3>)#1}>, void (std::__ndk1::shared_ptr<geode::SettingV3>)>::__clone(std::__ndk1::__function::__base<void (std::__ndk1::shared_ptr<geode::SettingV3>)>*) const
PUBLIC 1bde4 0 std::__ndk1::__function::__func<geode::listenForSettingChangesV3<bool, geodeExecFunction27<(anonymous namespace)::ExecFuncUnique27>(geode::ModStateEvent*)::{lambda(bool)#6}>(std::__ndk1::basic_string_view<char, std::__ndk1::char_traits<char> >, geodeExecFunction27<(anonymous namespace)::ExecFuncUnique27>(geode::ModStateEvent*)::{lambda(bool)#6}&&, geode::Mod*)::{lambda(std::__ndk1::shared_ptr<geode::SettingV3>)#1}, std::__ndk1::allocator<geode::listenForSettingChangesV3<bool, geodeExecFunction27<(anonymous namespace)::ExecFuncUnique27>(geode::ModStateEvent*)::{lambda(bool)#6}>(std::__ndk1::basic_string_view<char, std::__ndk1::char_traits<char> >, geodeExecFunction27<(anonymous namespace)::ExecFuncUnique27>(geode::ModStateEvent*)::{lambda(bool)#6}&&, geode::Mod*)::{lambda(std::__ndk1::shared_ptr<geode::SettingV3>)#1}>, void (std::__ndk1::shared_ptr<geode::SettingV3>)>::destroy()
PUBLIC 1bde8 0 std::__ndk1::__function::__func<geode::listenForSettingChangesV3<bool, geodeExecFunction27<(anonymous namespace)::ExecFuncUnique27>(geode::ModStateEvent*)::{lambda(bool)#6}>(std::__ndk1::basic_string_view<char, std::__ndk1::char_traits<char> >, geodeExecFunction27<(anonymous namespace)::ExecFuncUnique27>(geode::ModStateEvent*)::{lambda(bool)#6}&&, geode::Mod*)::{lambda(std::__ndk1::shared_ptr<geode::SettingV3>)#1}, std::__ndk1::allocator<geode::listenForSettingChangesV3<bool, geodeExecFunction27<(anonymous namespace)::ExecFuncUnique27>(geode::ModStateEvent*)::{lambda(bool)#6}>(std::__ndk1::basic_string_view<char, std::__ndk1::char_traits<char> >, geodeExecFunction27<(anonymous namespace)::ExecFuncUnique27>(geode::ModStateEvent*)::{lambda(bool)#6}&&, geode::Mod*)::{lambda(std::__ndk1::shared_ptr<geode::SettingV3>)#1}>, void (std::__ndk1::shared_ptr<geode::SettingV3>)>::destroy_deallocate()
PUBLIC 1bdec 0 std::__ndk1::__function::__func<geode::listenForSettingChangesV3<bool, geodeExecFunction27<(anonymous namespace)::ExecFuncUnique27>(geode::ModStateEvent*)::{lambda(bool)#6}>(std::__ndk1::basic_string_view<char, std::__ndk1::char_traits<char> >, geodeExecFunction27<(anonymous namespace)::ExecFuncUnique27>(geode::ModStateEvent*)::{lambda(bool)#6}&&, geode::Mod*)::{lambda(std::__ndk1::shared_ptr<geode::SettingV3>)#1}, std::__ndk1::allocator<geode::listenForSettingChangesV3<bool, geodeExecFunction27<(anonymous namespace)::ExecFuncUnique27>(geode::ModStateEvent*)::{lambda(bool)#6}>(std::__ndk1::basic_string_view<char, std::__ndk1::char_traits<char> >, geodeExecFunction27<(anonymous namespace)::ExecFuncUnique27>(geode::ModStateEvent*)::{lambda(bool)#6}&&, geode::Mod*)::{lambda(std::__ndk1::shared_ptr<geode::SettingV3>)#1}>, void (std::__ndk1::shared_ptr<geode::SettingV3>)>::operator()(std::__ndk1::shared_ptr<geode::SettingV3>&&)
PUBLIC 1bed8 0 std::__ndk1::__function::__func<geode::listenForSettingChangesV3<bool, geodeExecFunction27<(anonymous namespace)::ExecFuncUnique27>(geode::ModStateEvent*)::{lambda(bool)#6}>(std::__ndk1::basic_string_view<char, std::__ndk1::char_traits<char> >, geodeExecFunction27<(anonymous namespace)::ExecFuncUnique27>(geode::ModStateEvent*)::{lambda(bool)#6}&&, geode::Mod*)::{lambda(std::__ndk1::shared_ptr<geode::SettingV3>)#1}, std::__ndk1::allocator<geode::listenForSettingChangesV3<bool, geodeExecFunction27<(anonymous namespace)::ExecFuncUnique27>(geode::ModStateEvent*)::{lambda(bool)#6}>(std::__ndk1::basic_string_view<char, std::__ndk1::char_traits<char> >, geodeExecFunction27<(anonymous namespace)::ExecFuncUnique27>(geode::ModStateEvent*)::{lambda(bool)#6}&&, geode::Mod*)::{lambda(std::__ndk1::shared_ptr<geode::SettingV3>)#1}>, void (std::__ndk1::shared_ptr<geode::SettingV3>)>::target(std::type_info const&) const
PUBLIC 1bef4 0 std::__ndk1::__function::__func<geode::listenForSettingChangesV3<bool, geodeExecFunction27<(anonymous namespace)::ExecFuncUnique27>(geode::ModStateEvent*)::{lambda(bool)#6}>(std::__ndk1::basic_string_view<char, std::__ndk1::char_traits<char> >, geodeExecFunction27<(anonymous namespace)::ExecFuncUnique27>(geode::ModStateEvent*)::{lambda(bool)#6}&&, geode::Mod*)::{lambda(std::__ndk1::shared_ptr<geode::SettingV3>)#1}, std::__ndk1::allocator<geode::listenForSettingChangesV3<bool, geodeExecFunction27<(anonymous namespace)::ExecFuncUnique27>(geode::ModStateEvent*)::{lambda(bool)#6}>(std::__ndk1::basic_string_view<char, std::__ndk1::char_traits<char> >, geodeExecFunction27<(anonymous namespace)::ExecFuncUnique27>(geode::ModStateEvent*)::{lambda(bool)#6}&&, geode::Mod*)::{lambda(std::__ndk1::shared_ptr<geode::SettingV3>)#1}>, void (std::__ndk1::shared_ptr<geode::SettingV3>)>::target_type() const
PUBLIC 1bf00 0 std::__ndk1::__function::__func<geode::listenForSettingChangesV3<std::__ndk1::basic_string<char, std::__ndk1::char_traits<char>, std::__ndk1::allocator<char> >, geodeExecFunction27<(anonymous namespace)::ExecFuncUnique27>(geode::ModStateEvent*)::{lambda(std::__ndk1::basic_string<char, std::__ndk1::char_traits<char>, std::__ndk1::allocator<char> >)#2}>(std::__ndk1::basic_string_view<char, std::__ndk1::char_traits<char> >, geodeExecFunction27<(anonymous namespace)::ExecFuncUnique27>(geode::ModStateEvent*)::{lambda(std::__ndk1::basic_string<char, std::__ndk1::char_traits<char>, std::__ndk1::allocator<char> >&&)#2}, geode::Mod*)::{lambda(std::__ndk1::shared_ptr<geode::SettingV3>)#1}, std::__ndk1::allocator<geode::listenForSettingChangesV3<std::__ndk1::basic_string<char, std::__ndk1::char_traits<char>, std::__ndk1::allocator<char> >, geodeExecFunction27<(anonymous namespace)::ExecFuncUnique27>(geode::ModStateEvent*)::{lambda(std::__ndk1::basic_string<char, std::__ndk1::char_traits<char>, std::__ndk1::allocator<char> >)#2}>(std::__ndk1::basic_string_view<char, std::__ndk1::char_traits<char> >, geodeExecFunction27<(anonymous namespace)::ExecFuncUnique27>(geode::ModStateEvent*)::{lambda(std::__ndk1::basic_string<char, std::__ndk1::char_traits<char>, std::__ndk1::allocator<char> >&&)#2}, geode::Mod*)::{lambda(std::__ndk1::shared_ptr<geode::SettingV3>)#1}>, void (std::__ndk1::shared_ptr<geode::SettingV3>)>::~__func()
PUBLIC 1bf04 0 std::__ndk1::__function::__func<geode::listenForSettingChangesV3<std::__ndk1::basic_string<char, std::__ndk1::char_traits<char>, std::__ndk1::allocator<char> >, geodeExecFunction27<(anonymous namespace)::ExecFuncUnique27>(geode::ModStateEvent*)::{lambda(std::__ndk1::basic_string<char, std::__ndk1::char_traits<char>, std::__ndk1::allocator<char> >)#2}>(std::__ndk1::basic_string_view<char, std::__ndk1::char_traits<char> >, geodeExecFunction27<(anonymous namespace)::ExecFuncUnique27>(geode::ModStateEvent*)::{lambda(std::__ndk1::basic_string<char, std::__ndk1::char_traits<char>, std::__ndk1::allocator<char> >&&)#2}, geode::Mod*)::{lambda(std::__ndk1::shared_ptr<geode::SettingV3>)#1}, std::__ndk1::allocator<geode::listenForSettingChangesV3<std::__ndk1::basic_string<char, std::__ndk1::char_traits<char>, std::__ndk1::allocator<char> >, geodeExecFunction27<(anonymous namespace)::ExecFuncUnique27>(geode::ModStateEvent*)::{lambda(std::__ndk1::basic_string<char, std::__ndk1::char_traits<char>, std::__ndk1::allocator<char> >)#2}>(std::__ndk1::basic_string_view<char, std::__ndk1::char_traits<char> >, geodeExecFunction27<(anonymous namespace)::ExecFuncUnique27>(geode::ModStateEvent*)::{lambda(std::__ndk1::basic_string<char, std::__ndk1::char_traits<char>, std::__ndk1::allocator<char> >&&)#2}, geode::Mod*)::{lambda(std::__ndk1::shared_ptr<geode::SettingV3>)#1}>, void (std::__ndk1::shared_ptr<geode::SettingV3>)>::__clone() const
PUBLIC 1bf3c 0 std::__ndk1::__function::__func<geode::listenForSettingChangesV3<std::__ndk1::basic_string<char, std::__ndk1::char_traits<char>, std::__ndk1::allocator<char> >, geodeExecFunction27<(anonymous namespace)::ExecFuncUnique27>(geode::ModStateEvent*)::{lambda(std::__ndk1::basic_string<char, std::__ndk1::char_traits<char>, std::__ndk1::allocator<char> >)#2}>(std::__ndk1::basic_string_view<char, std::__ndk1::char_traits<char> >, geodeExecFunction27<(anonymous namespace)::ExecFuncUnique27>(geode::ModStateEvent*)::{lambda(std::__ndk1::basic_string<char, std::__ndk1::char_traits<char>, std::__ndk1::allocator<char> >&&)#2}, geode::Mod*)::{lambda(std::__ndk1::shared_ptr<geode::SettingV3>)#1}, std::__ndk1::allocator<geode::listenForSettingChangesV3<std::__ndk1::basic_string<char, std::__ndk1::char_traits<char>, std::__ndk1::allocator<char> >, geodeExecFunction27<(anonymous namespace)::ExecFuncUnique27>(geode::ModStateEvent*)::{lambda(std::__ndk1::basic_string<char, std::__ndk1::char_traits<char>, std::__ndk1::allocator<char> >)#2}>(std::__ndk1::basic_string_view<char, std::__ndk1::char_traits<char> >, geodeExecFunction27<(anonymous namespace)::ExecFuncUnique27>(geode::ModStateEvent*)::{lambda(std::__ndk1::basic_string<char, std::__ndk1::char_traits<char>, std::__ndk1::allocator<char> >&&)#2}, geode::Mod*)::{lambda(std::__ndk1::shared_ptr<geode::SettingV3>)#1}>, void (std::__ndk1::shared_ptr<geode::SettingV3>)>::__clone(std::__ndk1::__function::__base<void (std::__ndk1::shared_ptr<geode::SettingV3>)>*) const
PUBLIC 1bf54 0 std::__ndk1::__function::__func<geode::listenForSettingChangesV3<std::__ndk1::basic_string<char, std::__ndk1::char_traits<char>, std::__ndk1::allocator<char> >, geodeExecFunction27<(anonymous namespace)::ExecFuncUnique27>(geode::ModStateEvent*)::{lambda(std::__ndk1::basic_string<char, std::__ndk1::char_traits<char>, std::__ndk1::allocator<char> >)#2}>(std::__ndk1::basic_string_view<char, std::__ndk1::char_traits<char> >, geodeExecFunction27<(anonymous namespace)::ExecFuncUnique27>(geode::ModStateEvent*)::{lambda(std::__ndk1::basic_string<char, std::__ndk1::char_traits<char>, std::__ndk1::allocator<char> >&&)#2}, geode::Mod*)::{lambda(std::__ndk1::shared_ptr<geode::SettingV3>)#1}, std::__ndk1::allocator<geode::listenForSettingChangesV3<std::__ndk1::basic_string<char, std::__ndk1::char_traits<char>, std::__ndk1::allocator<char> >, geodeExecFunction27<(anonymous namespace)::ExecFuncUnique27>(geode::ModStateEvent*)::{lambda(std::__ndk1::basic_string<char, std::__ndk1::char_traits<char>, std::__ndk1::allocator<char> >)#2}>(std::__ndk1::basic_string_view<char, std::__ndk1::char_traits<char> >, geodeExecFunction27<(anonymous namespace)::ExecFuncUnique27>(geode::ModStateEvent*)::{lambda(std::__ndk1::basic_string<char, std::__ndk1::char_traits<char>, std::__ndk1::allocator<char> >&&)#2}, geode::Mod*)::{lambda(std::__ndk1::shared_ptr<geode::SettingV3>)#1}>, void (std::__ndk1::shared_ptr<geode::SettingV3>)>::destroy()
PUBLIC 1bf58 0 std::__ndk1::__function::__func<geode::listenForSettingChangesV3<std::__ndk1::basic_string<char, std::__ndk1::char_traits<char>, std::__ndk1::allocator<char> >, geodeExecFunction27<(anonymous namespace)::ExecFuncUnique27>(geode::ModStateEvent*)::{lambda(std::__ndk1::basic_string<char, std::__ndk1::char_traits<char>, std::__ndk1::allocator<char> >)#2}>(std::__ndk1::basic_string_view<char, std::__ndk1::char_traits<char> >, geodeExecFunction27<(anonymous namespace)::ExecFuncUnique27>(geode::ModStateEvent*)::{lambda(std::__ndk1::basic_string<char, std::__ndk1::char_traits<char>, std::__ndk1::allocator<char> >&&)#2}, geode::Mod*)::{lambda(std::__ndk1::shared_ptr<geode::SettingV3>)#1}, std::__ndk1::allocator<geode::listenForSettingChangesV3<std::__ndk1::basic_string<char, std::__ndk1::char_traits<char>, std::__ndk1::allocator<char> >, geodeExecFunction27<(anonymous namespace)::ExecFuncUnique27>(geode::ModStateEvent*)::{lambda(std::__ndk1::basic_string<char, std::__ndk1::char_traits<char>, std::__ndk1::allocator<char> >)#2}>(std::__ndk1::basic_string_view<char, std::__ndk1::char_traits<char> >, geodeExecFunction27<(anonymous namespace)::ExecFuncUnique27>(geode::ModStateEvent*)::{lambda(std::__ndk1::basic_string<char, std::__ndk1::char_traits<char>, std::__ndk1::allocator<char> >&&)#2}, geode::Mod*)::{lambda(std::__ndk1::shared_ptr<geode::SettingV3>)#1}>, void (std::__ndk1::shared_ptr<geode::SettingV3>)>::destroy_deallocate()
PUBLIC 1bf5c 0 std::__ndk1::__function::__func<geode::listenForSettingChangesV3<std::__ndk1::basic_string<char, std::__ndk1::char_traits<char>, std::__ndk1::allocator<char> >, geodeExecFunction27<(anonymous namespace)::ExecFuncUnique27>(geode::ModStateEvent*)::{lambda(std::__ndk1::basic_string<char, std::__ndk1::char_traits<char>, std::__ndk1::allocator<char> >)#2}>(std::__ndk1::basic_string_view<char, std::__ndk1::char_traits<char> >, geodeExecFunction27<(anonymous namespace)::ExecFuncUnique27>(geode::ModStateEvent*)::{lambda(std::__ndk1::basic_string<char, std::__ndk1::char_traits<char>, std::__ndk1::allocator<char> >&&)#2}, geode::Mod*)::{lambda(std::__ndk1::shared_ptr<geode::SettingV3>)#1}, std::__ndk1::allocator<geode::listenForSettingChangesV3<std::__ndk1::basic_string<char, std::__ndk1::char_traits<char>, std::__ndk1::allocator<char> >, geodeExecFunction27<(anonymous namespace)::ExecFuncUnique27>(geode::ModStateEvent*)::{lambda(std::__ndk1::basic_string<char, std::__ndk1::char_traits<char>, std::__ndk1::allocator<char> >)#2}>(std::__ndk1::basic_string_view<char, std::__ndk1::char_traits<char> >, geodeExecFunction27<(anonymous namespace)::ExecFuncUnique27>(geode::ModStateEvent*)::{lambda(std::__ndk1::basic_string<char, std::__ndk1::char_traits<char>, std::__ndk1::allocator<char> >&&)#2}, geode::Mod*)::{lambda(std::__ndk1::shared_ptr<geode::SettingV3>)#1}>, void (std::__ndk1::shared_ptr<geode::SettingV3>)>::operator()(std::__ndk1::shared_ptr<geode::SettingV3>&&)
PUBLIC 1c160 0 std::__ndk1::__function::__func<geode::listenForSettingChangesV3<std::__ndk1::basic_string<char, std::__ndk1::char_traits<char>, std::__ndk1::allocator<char> >, geodeExecFunction27<(anonymous namespace)::ExecFuncUnique27>(geode::ModStateEvent*)::{lambda(std::__ndk1::basic_string<char, std::__ndk1::char_traits<char>, std::__ndk1::allocator<char> >)#2}>(std::__ndk1::basic_string_view<char, std::__ndk1::char_traits<char> >, geodeExecFunction27<(anonymous namespace)::ExecFuncUnique27>(geode::ModStateEvent*)::{lambda(std::__ndk1::basic_string<char, std::__ndk1::char_traits<char>, std::__ndk1::allocator<char> >&&)#2}, geode::Mod*)::{lambda(std::__ndk1::shared_ptr<geode::SettingV3>)#1}, std::__ndk1::allocator<geode::listenForSettingChangesV3<std::__ndk1::basic_string<char, std::__ndk1::char_traits<char>, std::__ndk1::allocator<char> >, geodeExecFunction27<(anonymous namespace)::ExecFuncUnique27>(geode::ModStateEvent*)::{lambda(std::__ndk1::basic_string<char, std::__ndk1::char_traits<char>, std::__ndk1::allocator<char> >)#2}>(std::__ndk1::basic_string_view<char, std::__ndk1::char_traits<char> >, geodeExecFunction27<(anonymous namespace)::ExecFuncUnique27>(geode::ModStateEvent*)::{lambda(std::__ndk1::basic_string<char, std::__ndk1::char_traits<char>, std::__ndk1::allocator<char> >&&)#2}, geode::Mod*)::{lambda(std::__ndk1::shared_ptr<geode::SettingV3>)#1}>, void (std::__ndk1::shared_ptr<geode::SettingV3>)>::target(std::type_info const&) const
PUBLIC 1c17c 0 std::__ndk1::__function::__func<geode::listenForSettingChangesV3<std::__ndk1::basic_string<char, std::__ndk1::char_traits<char>, std::__ndk1::allocator<char> >, geodeExecFunction27<(anonymous namespace)::ExecFuncUnique27>(geode::ModStateEvent*)::{lambda(std::__ndk1::basic_string<char, std::__ndk1::char_traits<char>, std::__ndk1::allocator<char> >)#2}>(std::__ndk1::basic_string_view<char, std::__ndk1::char_traits<char> >, geodeExecFunction27<(anonymous namespace)::ExecFuncUnique27>(geode::ModStateEvent*)::{lambda(std::__ndk1::basic_string<char, std::__ndk1::char_traits<char>, std::__ndk1::allocator<char> >&&)#2}, geode::Mod*)::{lambda(std::__ndk1::shared_ptr<geode::SettingV3>)#1}, std::__ndk1::allocator<geode::listenForSettingChangesV3<std::__ndk1::basic_string<char, std::__ndk1::char_traits<char>, std::__ndk1::allocator<char> >, geodeExecFunction27<(anonymous namespace)::ExecFuncUnique27>(geode::ModStateEvent*)::{lambda(std::__ndk1::basic_string<char, std::__ndk1::char_traits<char>, std::__ndk1::allocator<char> >)#2}>(std::__ndk1::basic_string_view<char, std::__ndk1::char_traits<char> >, geodeExecFunction27<(anonymous namespace)::ExecFuncUnique27>(geode::ModStateEvent*)::{lambda(std::__ndk1::basic_string<char, std::__ndk1::char_traits<char>, std::__ndk1::allocator<char> >&&)#2}, geode::Mod*)::{lambda(std::__ndk1::shared_ptr<geode::SettingV3>)#1}>, void (std::__ndk1::shared_ptr<geode::SettingV3>)>::target_type() const
PUBLIC 1c188 0 std::__ndk1::__function::__func<geode::listenForSettingChangesV3<std::__ndk1::basic_string<char, std::__ndk1::char_traits<char>, std::__ndk1::allocator<char> >, geodeExecFunction27<(anonymous namespace)::ExecFuncUnique27>(geode::ModStateEvent*)::{lambda(std::__ndk1::basic_string<char, std::__ndk1::char_traits<char>, std::__ndk1::allocator<char> >)#3}>(std::__ndk1::basic_string_view<char, std::__ndk1::char_traits<char> >, geodeExecFunction27<(anonymous namespace)::ExecFuncUnique27>(geode::ModStateEvent*)::{lambda(std::__ndk1::basic_string<char, std::__ndk1::char_traits<char>, std::__ndk1::allocator<char> >&&)#3}, geode::Mod*)::{lambda(std::__ndk1::shared_ptr<geode::SettingV3>)#1}, std::__ndk1::allocator<geode::listenForSettingChangesV3<std::__ndk1::basic_string<char, std::__ndk1::char_traits<char>, std::__ndk1::allocator<char> >, geodeExecFunction27<(anonymous namespace)::ExecFuncUnique27>(geode::ModStateEvent*)::{lambda(std::__ndk1::basic_string<char, std::__ndk1::char_traits<char>, std::__ndk1::allocator<char> >)#3}>(std::__ndk1::basic_string_view<char, std::__ndk1::char_traits<char> >, geodeExecFunction27<(anonymous namespace)::ExecFuncUnique27>(geode::ModStateEvent*)::{lambda(std::__ndk1::basic_string<char, std::__ndk1::char_traits<char>, std::__ndk1::allocator<char> >&&)#3}, geode::Mod*)::{lambda(std::__ndk1::shared_ptr<geode::SettingV3>)#1}>, void (std::__ndk1::shared_ptr<geode::SettingV3>)>::~__func()
PUBLIC 1c18c 0 std::__ndk1::__function::__func<geode::listenForSettingChangesV3<std::__ndk1::basic_string<char, std::__ndk1::char_traits<char>, std::__ndk1::allocator<char> >, geodeExecFunction27<(anonymous namespace)::ExecFuncUnique27>(geode::ModStateEvent*)::{lambda(std::__ndk1::basic_string<char, std::__ndk1::char_traits<char>, std::__ndk1::allocator<char> >)#3}>(std::__ndk1::basic_string_view<char, std::__ndk1::char_traits<char> >, geodeExecFunction27<(anonymous namespace)::ExecFuncUnique27>(geode::ModStateEvent*)::{lambda(std::__ndk1::basic_string<char, std::__ndk1::char_traits<char>, std::__ndk1::allocator<char> >&&)#3}, geode::Mod*)::{lambda(std::__ndk1::shared_ptr<geode::SettingV3>)#1}, std::__ndk1::allocator<geode::listenForSettingChangesV3<std::__ndk1::basic_string<char, std::__ndk1::char_traits<char>, std::__ndk1::allocator<char> >, geodeExecFunction27<(anonymous namespace)::ExecFuncUnique27>(geode::ModStateEvent*)::{lambda(std::__ndk1::basic_string<char, std::__ndk1::char_traits<char>, std::__ndk1::allocator<char> >)#3}>(std::__ndk1::basic_string_view<char, std::__ndk1::char_traits<char> >, geodeExecFunction27<(anonymous namespace)::ExecFuncUnique27>(geode::ModStateEvent*)::{lambda(std::__ndk1::basic_string<char, std::__ndk1::char_traits<char>, std::__ndk1::allocator<char> >&&)#3}, geode::Mod*)::{lambda(std::__ndk1::shared_ptr<geode::SettingV3>)#1}>, void (std::__ndk1::shared_ptr<geode::SettingV3>)>::__clone() const
PUBLIC 1c1c4 0 std::__ndk1::__function::__func<geode::listenForSettingChangesV3<std::__ndk1::basic_string<char, std::__ndk1::char_traits<char>, std::__ndk1::allocator<char> >, geodeExecFunction27<(anonymous namespace)::ExecFuncUnique27>(geode::ModStateEvent*)::{lambda(std::__ndk1::basic_string<char, std::__ndk1::char_traits<char>, std::__ndk1::allocator<char> >)#3}>(std::__ndk1::basic_string_view<char, std::__ndk1::char_traits<char> >, geodeExecFunction27<(anonymous namespace)::ExecFuncUnique27>(geode::ModStateEvent*)::{lambda(std::__ndk1::basic_string<char, std::__ndk1::char_traits<char>, std::__ndk1::allocator<char> >&&)#3}, geode::Mod*)::{lambda(std::__ndk1::shared_ptr<geode::SettingV3>)#1}, std::__ndk1::allocator<geode::listenForSettingChangesV3<std::__ndk1::basic_string<char, std::__ndk1::char_traits<char>, std::__ndk1::allocator<char> >, geodeExecFunction27<(anonymous namespace)::ExecFuncUnique27>(geode::ModStateEvent*)::{lambda(std::__ndk1::basic_string<char, std::__ndk1::char_traits<char>, std::__ndk1::allocator<char> >)#3}>(std::__ndk1::basic_string_view<char, std::__ndk1::char_traits<char> >, geodeExecFunction27<(anonymous namespace)::ExecFuncUnique27>(geode::ModStateEvent*)::{lambda(std::__ndk1::basic_string<char, std::__ndk1::char_traits<char>, std::__ndk1::allocator<char> >&&)#3}, geode::Mod*)::{lambda(std::__ndk1::shared_ptr<geode::SettingV3>)#1}>, void (std::__ndk1::shared_ptr<geode::SettingV3>)>::__clone(std::__ndk1::__function::__base<void (std::__ndk1::shared_ptr<geode::SettingV3>)>*) const
PUBLIC 1c1dc 0 std::__ndk1::__function::__func<geode::listenForSettingChangesV3<std::__ndk1::basic_string<char, std::__ndk1::char_traits<char>, std::__ndk1::allocator<char> >, geodeExecFunction27<(anonymous namespace)::ExecFuncUnique27>(geode::ModStateEvent*)::{lambda(std::__ndk1::basic_string<char, std::__ndk1::char_traits<char>, std::__ndk1::allocator<char> >)#3}>(std::__ndk1::basic_string_view<char, std::__ndk1::char_traits<char> >, geodeExecFunction27<(anonymous namespace)::ExecFuncUnique27>(geode::ModStateEvent*)::{lambda(std::__ndk1::basic_string<char, std::__ndk1::char_traits<char>, std::__ndk1::allocator<char> >&&)#3}, geode::Mod*)::{lambda(std::__ndk1::shared_ptr<geode::SettingV3>)#1}, std::__ndk1::allocator<geode::listenForSettingChangesV3<std::__ndk1::basic_string<char, std::__ndk1::char_traits<char>, std::__ndk1::allocator<char> >, geodeExecFunction27<(anonymous namespace)::ExecFuncUnique27>(geode::ModStateEvent*)::{lambda(std::__ndk1::basic_string<char, std::__ndk1::char_traits<char>, std::__ndk1::allocator<char> >)#3}>(std::__ndk1::basic_string_view<char, std::__ndk1::char_traits<char> >, geodeExecFunction27<(anonymous namespace)::ExecFuncUnique27>(geode::ModStateEvent*)::{lambda(std::__ndk1::basic_string<char, std::__ndk1::char_traits<char>, std::__ndk1::allocator<char> >&&)#3}, geode::Mod*)::{lambda(std::__ndk1::shared_ptr<geode::SettingV3>)#1}>, void (std::__ndk1::shared_ptr<geode::SettingV3>)>::destroy()
PUBLIC 1c1e0 0 std::__ndk1::__function::__func<geode::listenForSettingChangesV3<std::__ndk1::basic_string<char, std::__ndk1::char_traits<char>, std::__ndk1::allocator<char> >, geodeExecFunction27<(anonymous namespace)::ExecFuncUnique27>(geode::ModStateEvent*)::{lambda(std::__ndk1::basic_string<char, std::__ndk1::char_traits<char>, std::__ndk1::allocator<char> >)#3}>(std::__ndk1::basic_string_view<char, std::__ndk1::char_traits<char> >, geodeExecFunction27<(anonymous namespace)::ExecFuncUnique27>(geode::ModStateEvent*)::{lambda(std::__ndk1::basic_string<char, std::__ndk1::char_traits<char>, std::__ndk1::allocator<char> >&&)#3}, geode::Mod*)::{lambda(std::__ndk1::shared_ptr<geode::SettingV3>)#1}, std::__ndk1::allocator<geode::listenForSettingChangesV3<std::__ndk1::basic_string<char, std::__ndk1::char_traits<char>, std::__ndk1::allocator<char> >, geodeExecFunction27<(anonymous namespace)::ExecFuncUnique27>(geode::ModStateEvent*)::{lambda(std::__ndk1::basic_string<char, std::__ndk1::char_traits<char>, std::__ndk1::allocator<char> >)#3}>(std::__ndk1::basic_string_view<char, std::__ndk1::char_traits<char> >, geodeExecFunction27<(anonymous namespace)::ExecFuncUnique27>(geode::ModStateEvent*)::{lambda(std::__ndk1::basic_string<char, std::__ndk1::char_traits<char>, std::__ndk1::allocator<char> >&&)#3}, geode::Mod*)::{lambda(std::__ndk1::shared_ptr<geode::SettingV3>)#1}>, void (std::__ndk1::shared_ptr<geode::SettingV3>)>::destroy_deallocate()
PUBLIC 1c1e4 0 std::__ndk1::__function::__func<geode::listenForSettingChangesV3<std::__ndk1::basic_string<char, std::__ndk1::char_traits<char>, std::__ndk1::allocator<char> >, geodeExecFunction27<(anonymous namespace)::ExecFuncUnique27>(geode::ModStateEvent*)::{lambda(std::__ndk1::basic_string<char, std::__ndk1::char_traits<char>, std::__ndk1::allocator<char> >)#3}>(std::__ndk1::basic_string_view<char, std::__ndk1::char_traits<char> >, geodeExecFunction27<(anonymous namespace)::ExecFuncUnique27>(geode::ModStateEvent*)::{lambda(std::__ndk1::basic_string<char, std::__ndk1::char_traits<char>, std::__ndk1::allocator<char> >&&)#3}, geode::Mod*)::{lambda(std::__ndk1::shared_ptr<geode::SettingV3>)#1}, std::__ndk1::allocator<geode::listenForSettingChangesV3<std::__ndk1::basic_string<char, std::__ndk1::char_traits<char>, std::__ndk1::allocator<char> >, geodeExecFunction27<(anonymous namespace)::ExecFuncUnique27>(geode::ModStateEvent*)::{lambda(std::__ndk1::basic_string<char, std::__ndk1::char_traits<char>, std::__ndk1::allocator<char> >)#3}>(std::__ndk1::basic_string_view<char, std::__ndk1::char_traits<char> >, geodeExecFunction27<(anonymous namespace)::ExecFuncUnique27>(geode::ModStateEvent*)::{lambda(std::__ndk1::basic_string<char, std::__ndk1::char_traits<char>, std::__ndk1::allocator<char> >&&)#3}, geode::Mod*)::{lambda(std::__ndk1::shared_ptr<geode::SettingV3>)#1}>, void (std::__ndk1::shared_ptr<geode::SettingV3>)>::operator()(std::__ndk1::shared_ptr<geode::SettingV3>&&)
PUBLIC 1c3e8 0 std::__ndk1::__function::__func<geode::listenForSettingChangesV3<std::__ndk1::basic_string<char, std::__ndk1::char_traits<char>, std::__ndk1::allocator<char> >, geodeExecFunction27<(anonymous namespace)::ExecFuncUnique27>(geode::ModStateEvent*)::{lambda(std::__ndk1::basic_string<char, std::__ndk1::char_traits<char>, std::__ndk1::allocator<char> >)#3}>(std::__ndk1::basic_string_view<char, std::__ndk1::char_traits<char> >, geodeExecFunction27<(anonymous namespace)::ExecFuncUnique27>(geode::ModStateEvent*)::{lambda(std::__ndk1::basic_string<char, std::__ndk1::char_traits<char>, std::__ndk1::allocator<char> >&&)#3}, geode::Mod*)::{lambda(std::__ndk1::shared_ptr<geode::SettingV3>)#1}, std::__ndk1::allocator<geode::listenForSettingChangesV3<std::__ndk1::basic_string<char, std::__ndk1::char_traits<char>, std::__ndk1::allocator<char> >, geodeExecFunction27<(anonymous namespace)::ExecFuncUnique27>(geode::ModStateEvent*)::{lambda(std::__ndk1::basic_string<char, std::__ndk1::char_traits<char>, std::__ndk1::allocator<char> >)#3}>(std::__ndk1::basic_string_view<char, std::__ndk1::char_traits<char> >, geodeExecFunction27<(anonymous namespace)::ExecFuncUnique27>(geode::ModStateEvent*)::{lambda(std::__ndk1::basic_string<char, std::__ndk1::char_traits<char>, std::__ndk1::allocator<char> >&&)#3}, geode::Mod*)::{lambda(std::__ndk1::shared_ptr<geode::SettingV3>)#1}>, void (std::__ndk1::shared_ptr<geode::SettingV3>)>::target(std::type_info const&) const
PUBLIC 1c404 0 std::__ndk1::__function::__func<geode::listenForSettingChangesV3<std::__ndk1::basic_string<char, std::__ndk1::char_traits<char>, std::__ndk1::allocator<char> >, geodeExecFunction27<(anonymous namespace)::ExecFuncUnique27>(geode::ModStateEvent*)::{lambda(std::__ndk1::basic_string<char, std::__ndk1::char_traits<char>, std::__ndk1::allocator<char> >)#3}>(std::__ndk1::basic_string_view<char, std::__ndk1::char_traits<char> >, geodeExecFunction27<(anonymous namespace)::ExecFuncUnique27>(geode::ModStateEvent*)::{lambda(std::__ndk1::basic_string<char, std::__ndk1::char_traits<char>, std::__ndk1::allocator<char> >&&)#3}, geode::Mod*)::{lambda(std::__ndk1::shared_ptr<geode::SettingV3>)#1}, std::__ndk1::allocator<geode::listenForSettingChangesV3<std::__ndk1::basic_string<char, std::__ndk1::char_traits<char>, std::__ndk1::allocator<char> >, geodeExecFunction27<(anonymous namespace)::ExecFuncUnique27>(geode::ModStateEvent*)::{lambda(std::__ndk1::basic_string<char, std::__ndk1::char_traits<char>, std::__ndk1::allocator<char> >)#3}>(std::__ndk1::basic_string_view<char, std::__ndk1::char_traits<char> >, geodeExecFunction27<(anonymous namespace)::ExecFuncUnique27>(geode::ModStateEvent*)::{lambda(std::__ndk1::basic_string<char, std::__ndk1::char_traits<char>, std::__ndk1::allocator<char> >&&)#3}, geode::Mod*)::{lambda(std::__ndk1::shared_ptr<geode::SettingV3>)#1}>, void (std::__ndk1::shared_ptr<geode::SettingV3>)>::target_type() const
PUBLIC 1c410 0 std::__ndk1::__function::__func<geode::listenForSettingChangesV3<std::__ndk1::basic_string<char, std::__ndk1::char_traits<char>, std::__ndk1::allocator<char> >, geodeExecFunction27<(anonymous namespace)::ExecFuncUnique27>(geode::ModStateEvent*)::{lambda(std::__ndk1::basic_string<char, std::__ndk1::char_traits<char>, std::__ndk1::allocator<char> >)#4}>(std::__ndk1::basic_string_view<char, std::__ndk1::char_traits<char> >, geodeExecFunction27<(anonymous namespace)::ExecFuncUnique27>(geode::ModStateEvent*)::{lambda(std::__ndk1::basic_string<char, std::__ndk1::char_traits<char>, std::__ndk1::allocator<char> >&&)#4}, geode::Mod*)::{lambda(std::__ndk1::shared_ptr<geode::SettingV3>)#1}, std::__ndk1::allocator<geode::listenForSettingChangesV3<std::__ndk1::basic_string<char, std::__ndk1::char_traits<char>, std::__ndk1::allocator<char> >, geodeExecFunction27<(anonymous namespace)::ExecFuncUnique27>(geode::ModStateEvent*)::{lambda(std::__ndk1::basic_string<char, std::__ndk1::char_traits<char>, std::__ndk1::allocator<char> >)#4}>(std::__ndk1::basic_string_view<char, std::__ndk1::char_traits<char> >, geodeExecFunction27<(anonymous namespace)::ExecFuncUnique27>(geode::ModStateEvent*)::{lambda(std::__ndk1::basic_string<char, std::__ndk1::char_traits<char>, std::__ndk1::allocator<char> >&&)#4}, geode::Mod*)::{lambda(std::__ndk1::shared_ptr<geode::SettingV3>)#1}>, void (std::__ndk1::shared_ptr<geode::SettingV3>)>::~__func()
PUBLIC 1c414 0 std::__ndk1::__function::__func<geode::listenForSettingChangesV3<std::__ndk1::basic_string<char, std::__ndk1::char_traits<char>, std::__ndk1::allocator<char> >, geodeExecFunction27<(anonymous namespace)::ExecFuncUnique27>(geode::ModStateEvent*)::{lambda(std::__ndk1::basic_string<char, std::__ndk1::char_traits<char>, std::__ndk1::allocator<char> >)#4}>(std::__ndk1::basic_string_view<char, std::__ndk1::char_traits<char> >, geodeExecFunction27<(anonymous namespace)::ExecFuncUnique27>(geode::ModStateEvent*)::{lambda(std::__ndk1::basic_string<char, std::__ndk1::char_traits<char>, std::__ndk1::allocator<char> >&&)#4}, geode::Mod*)::{lambda(std::__ndk1::shared_ptr<geode::SettingV3>)#1}, std::__ndk1::allocator<geode::listenForSettingChangesV3<std::__ndk1::basic_string<char, std::__ndk1::char_traits<char>, std::__ndk1::allocator<char> >, geodeExecFunction27<(anonymous namespace)::ExecFuncUnique27>(geode::ModStateEvent*)::{lambda(std::__ndk1::basic_string<char, std::__ndk1::char_traits<char>, std::__ndk1::allocator<char> >)#4}>(std::__ndk1::basic_string_view<char, std::__ndk1::char_traits<char> >, geodeExecFunction27<(anonymous namespace)::ExecFuncUnique27>(geode::ModStateEvent*)::{lambda(std::__ndk1::basic_string<char, std::__ndk1::char_traits<char>, std::__ndk1::allocator<char> >&&)#4}, geode::Mod*)::{lambda(std::__ndk1::shared_ptr<geode::SettingV3>)#1}>, void (std::__ndk1::shared_ptr<geode::SettingV3>)>::__clone() const
PUBLIC 1c44c 0 std::__ndk1::__function::__func<geode::listenForSettingChangesV3<std::__ndk1::basic_string<char, std::__ndk1::char_traits<char>, std::__ndk1::allocator<char> >, geodeExecFunction27<(anonymous namespace)::ExecFuncUnique27>(geode::ModStateEvent*)::{lambda(std::__ndk1::basic_string<char, std::__ndk1::char_traits<char>, std::__ndk1::allocator<char> >)#4}>(std::__ndk1::basic_string_view<char, std::__ndk1::char_traits<char> >, geodeExecFunction27<(anonymous namespace)::ExecFuncUnique27>(geode::ModStateEvent*)::{lambda(std::__ndk1::basic_string<char, std::__ndk1::char_traits<char>, std::__ndk1::allocator<char> >&&)#4}, geode::Mod*)::{lambda(std::__ndk1::shared_ptr<geode::SettingV3>)#1}, std::__ndk1::allocator<geode::listenForSettingChangesV3<std::__ndk1::basic_string<char, std::__ndk1::char_traits<char>, std::__ndk1::allocator<char> >, geodeExecFunction27<(anonymous namespace)::ExecFuncUnique27>(geode::ModStateEvent*)::{lambda(std::__ndk1::basic_string<char, std::__ndk1::char_traits<char>, std::__ndk1::allocator<char> >)#4}>(std::__ndk1::basic_string_view<char, std::__ndk1::char_traits<char> >, geodeExecFunction27<(anonymous namespace)::ExecFuncUnique27>(geode::ModStateEvent*)::{lambda(std::__ndk1::basic_string<char, std::__ndk1::char_traits<char>, std::__ndk1::allocator<char> >&&)#4}, geode::Mod*)::{lambda(std::__ndk1::shared_ptr<geode::SettingV3>)#1}>, void (std::__ndk1::shared_ptr<geode::SettingV3>)>::__clone(std::__ndk1::__function::__base<void (std::__ndk1::shared_ptr<geode::SettingV3>)>*) const
PUBLIC 1c464 0 std::__ndk1::__function::__func<geode::listenForSettingChangesV3<std::__ndk1::basic_string<char, std::__ndk1::char_traits<char>, std::__ndk1::allocator<char> >, geodeExecFunction27<(anonymous namespace)::ExecFuncUnique27>(geode::ModStateEvent*)::{lambda(std::__ndk1::basic_string<char, std::__ndk1::char_traits<char>, std::__ndk1::allocator<char> >)#4}>(std::__ndk1::basic_string_view<char, std::__ndk1::char_traits<char> >, geodeExecFunction27<(anonymous namespace)::ExecFuncUnique27>(geode::ModStateEvent*)::{lambda(std::__ndk1::basic_string<char, std::__ndk1::char_traits<char>, std::__ndk1::allocator<char> >&&)#4}, geode::Mod*)::{lambda(std::__ndk1::shared_ptr<geode::SettingV3>)#1}, std::__ndk1::allocator<geode::listenForSettingChangesV3<std::__ndk1::basic_string<char, std::__ndk1::char_traits<char>, std::__ndk1::allocator<char> >, geodeExecFunction27<(anonymous namespace)::ExecFuncUnique27>(geode::ModStateEvent*)::{lambda(std::__ndk1::basic_string<char, std::__ndk1::char_traits<char>, std::__ndk1::allocator<char> >)#4}>(std::__ndk1::basic_string_view<char, std::__ndk1::char_traits<char> >, geodeExecFunction27<(anonymous namespace)::ExecFuncUnique27>(geode::ModStateEvent*)::{lambda(std::__ndk1::basic_string<char, std::__ndk1::char_traits<char>, std::__ndk1::allocator<char> >&&)#4}, geode::Mod*)::{lambda(std::__ndk1::shared_ptr<geode::SettingV3>)#1}>, void (std::__ndk1::shared_ptr<geode::SettingV3>)>::destroy()
PUBLIC 1c468 0 std::__ndk1::__function::__func<geode::listenForSettingChangesV3<std::__ndk1::basic_string<char, std::__ndk1::char_traits<char>, std::__ndk1::allocator<char> >, geodeExecFunction27<(anonymous namespace)::ExecFuncUnique27>(geode::ModStateEvent*)::{lambda(std::__ndk1::basic_string<char, std::__ndk1::char_traits<char>, std::__ndk1::allocator<char> >)#4}>(std::__ndk1::basic_string_view<char, std::__ndk1::char_traits<char> >, geodeExecFunction27<(anonymous namespace)::ExecFuncUnique27>(geode::ModStateEvent*)::{lambda(std::__ndk1::basic_string<char, std::__ndk1::char_traits<char>, std::__ndk1::allocator<char> >&&)#4}, geode::Mod*)::{lambda(std::__ndk1::shared_ptr<geode::SettingV3>)#1}, std::__ndk1::allocator<geode::listenForSettingChangesV3<std::__ndk1::basic_string<char, std::__ndk1::char_traits<char>, std::__ndk1::allocator<char> >, geodeExecFunction27<(anonymous namespace)::ExecFuncUnique27>(geode::ModStateEvent*)::{lambda(std::__ndk1::basic_string<char, std::__ndk1::char_traits<char>, std::__ndk1::allocator<char> >)#4}>(std::__ndk1::basic_string_view<char, std::__ndk1::char_traits<char> >, geodeExecFunction27<(anonymous namespace)::ExecFuncUnique27>(geode::ModStateEvent*)::{lambda(std::__ndk1::basic_string<char, std::__ndk1::char_traits<char>, std::__ndk1::allocator<char> >&&)#4}, geode::Mod*)::{lambda(std::__ndk1::shared_ptr<geode::SettingV3>)#1}>, void (std::__ndk1::shared_ptr<geode::SettingV3>)>::destroy_deallocate()
PUBLIC 1c46c 0 std::__ndk1::__function::__func<geode::listenForSettingChangesV3<std::__ndk1::basic_string<char, std::__ndk1::char_traits<char>, std::__ndk1::allocator<char> >, geodeExecFunction27<(anonymous namespace)::ExecFuncUnique27>(geode::ModStateEvent*)::{lambda(std::__ndk1::basic_string<char, std::__ndk1::char_traits<char>, std::__ndk1::allocator<char> >)#4}>(std::__ndk1::basic_string_view<char, std::__ndk1::char_traits<char> >, geodeExecFunction27<(anonymous namespace)::ExecFuncUnique27>(geode::ModStateEvent*)::{lambda(std::__ndk1::basic_string<char, std::__ndk1::char_traits<char>, std::__ndk1::allocator<char> >&&)#4}, geode::Mod*)::{lambda(std::__ndk1::shared_ptr<geode::SettingV3>)#1}, std::__ndk1::allocator<geode::listenForSettingChangesV3<std::__ndk1::basic_string<char, std::__ndk1::char_traits<char>, std::__ndk1::allocator<char> >, geodeExecFunction27<(anonymous namespace)::ExecFuncUnique27>(geode::ModStateEvent*)::{lambda(std::__ndk1::basic_string<char, std::__ndk1::char_traits<char>, std::__ndk1::allocator<char> >)#4}>(std::__ndk1::basic_string_view<char, std::__ndk1::char_traits<char> >, geodeExecFunction27<(anonymous namespace)::ExecFuncUnique27>(geode::ModStateEvent*)::{lambda(std::__ndk1::basic_string<char, std::__ndk1::char_traits<char>, std::__ndk1::allocator<char> >&&)#4}, geode::Mod*)::{lambda(std::__ndk1::shared_ptr<geode::SettingV3>)#1}>, void (std::__ndk1::shared_ptr<geode::SettingV3>)>::operator()(std::__ndk1::shared_ptr<geode::SettingV3>&&)
PUBLIC 1c670 0 std::__ndk1::__function::__func<geode::listenForSettingChangesV3<std::__ndk1::basic_string<char, std::__ndk1::char_traits<char>, std::__ndk1::allocator<char> >, geodeExecFunction27<(anonymous namespace)::ExecFuncUnique27>(geode::ModStateEvent*)::{lambda(std::__ndk1::basic_string<char, std::__ndk1::char_traits<char>, std::__ndk1::allocator<char> >)#4}>(std::__ndk1::basic_string_view<char, std::__ndk1::char_traits<char> >, geodeExecFunction27<(anonymous namespace)::ExecFuncUnique27>(geode::ModStateEvent*)::{lambda(std::__ndk1::basic_string<char, std::__ndk1::char_traits<char>, std::__ndk1::allocator<char> >&&)#4}, geode::Mod*)::{lambda(std::__ndk1::shared_ptr<geode::SettingV3>)#1}, std::__ndk1::allocator<geode::listenForSettingChangesV3<std::__ndk1::basic_string<char, std::__ndk1::char_traits<char>, std::__ndk1::allocator<char> >, geodeExecFunction27<(anonymous namespace)::ExecFuncUnique27>(geode::ModStateEvent*)::{lambda(std::__ndk1::basic_string<char, std::__ndk1::char_traits<char>, std::__ndk1::allocator<char> >)#4}>(std::__ndk1::basic_string_view<char, std::__ndk1::char_traits<char> >, geodeExecFunction27<(anonymous namespace)::ExecFuncUnique27>(geode::ModStateEvent*)::{lambda(std::__ndk1::basic_string<char, std::__ndk1::char_traits<char>, std::__ndk1::allocator<char> >&&)#4}, geode::Mod*)::{lambda(std::__ndk1::shared_ptr<geode::SettingV3>)#1}>, void (std::__ndk1::shared_ptr<geode::SettingV3>)>::target(std::type_info const&) const
PUBLIC 1c68c 0 std::__ndk1::__function::__func<geode::listenForSettingChangesV3<std::__ndk1::basic_string<char, std::__ndk1::char_traits<char>, std::__ndk1::allocator<char> >, geodeExecFunction27<(anonymous namespace)::ExecFuncUnique27>(geode::ModStateEvent*)::{lambda(std::__ndk1::basic_string<char, std::__ndk1::char_traits<char>, std::__ndk1::allocator<char> >)#4}>(std::__ndk1::basic_string_view<char, std::__ndk1::char_traits<char> >, geodeExecFunction27<(anonymous namespace)::ExecFuncUnique27>(geode::ModStateEvent*)::{lambda(std::__ndk1::basic_string<char, std::__ndk1::char_traits<char>, std::__ndk1::allocator<char> >&&)#4}, geode::Mod*)::{lambda(std::__ndk1::shared_ptr<geode::SettingV3>)#1}, std::__ndk1::allocator<geode::listenForSettingChangesV3<std::__ndk1::basic_string<char, std::__ndk1::char_traits<char>, std::__ndk1::allocator<char> >, geodeExecFunction27<(anonymous namespace)::ExecFuncUnique27>(geode::ModStateEvent*)::{lambda(std::__ndk1::basic_string<char, std::__ndk1::char_traits<char>, std::__ndk1::allocator<char> >)#4}>(std::__ndk1::basic_string_view<char, std::__ndk1::char_traits<char> >, geodeExecFunction27<(anonymous namespace)::ExecFuncUnique27>(geode::ModStateEvent*)::{lambda(std::__ndk1::basic_string<char, std::__ndk1::char_traits<char>, std::__ndk1::allocator<char> >&&)#4}, geode::Mod*)::{lambda(std::__ndk1::shared_ptr<geode::SettingV3>)#1}>, void (std::__ndk1::shared_ptr<geode::SettingV3>)>::target_type() const
PUBLIC 1c698 0 std::__ndk1::__function::__func<geode::listenForSettingChangesV3<std::__ndk1::basic_string<char, std::__ndk1::char_traits<char>, std::__ndk1::allocator<char> >, geodeExecFunction27<(anonymous namespace)::ExecFuncUnique27>(geode::ModStateEvent*)::{lambda(std::__ndk1::basic_string<char, std::__ndk1::char_traits<char>, std::__ndk1::allocator<char> >)#5}>(std::__ndk1::basic_string_view<char, std::__ndk1::char_traits<char> >, geodeExecFunction27<(anonymous namespace)::ExecFuncUnique27>(geode::ModStateEvent*)::{lambda(std::__ndk1::basic_string<char, std::__ndk1::char_traits<char>, std::__ndk1::allocator<char> >&&)#5}, geode::Mod*)::{lambda(std::__ndk1::shared_ptr<geode::SettingV3>)#1}, std::__ndk1::allocator<geode::listenForSettingChangesV3<std::__ndk1::basic_string<char, std::__ndk1::char_traits<char>, std::__ndk1::allocator<char> >, geodeExecFunction27<(anonymous namespace)::ExecFuncUnique27>(geode::ModStateEvent*)::{lambda(std::__ndk1::basic_string<char, std::__ndk1::char_traits<char>, std::__ndk1::allocator<char> >)#5}>(std::__ndk1::basic_string_view<char, std::__ndk1::char_traits<char> >, geodeExecFunction27<(anonymous namespace)::ExecFuncUnique27>(geode::ModStateEvent*)::{lambda(std::__ndk1::basic_string<char, std::__ndk1::char_traits<char>, std::__ndk1::allocator<char> >&&)#5}, geode::Mod*)::{lambda(std::__ndk1::shared_ptr<geode::SettingV3>)#1}>, void (std::__ndk1::shared_ptr<geode::SettingV3>)>::~__func()
PUBLIC 1c69c 0 std::__ndk1::__function::__func<geode::listenForSettingChangesV3<std::__ndk1::basic_string<char, std::__ndk1::char_traits<char>, std::__ndk1::allocator<char> >, geodeExecFunction27<(anonymous namespace)::ExecFuncUnique27>(geode::ModStateEvent*)::{lambda(std::__ndk1::basic_string<char, std::__ndk1::char_traits<char>, std::__ndk1::allocator<char> >)#5}>(std::__ndk1::basic_string_view<char, std::__ndk1::char_traits<char> >, geodeExecFunction27<(anonymous namespace)::ExecFuncUnique27>(geode::ModStateEvent*)::{lambda(std::__ndk1::basic_string<char, std::__ndk1::char_traits<char>, std::__ndk1::allocator<char> >&&)#5}, geode::Mod*)::{lambda(std::__ndk1::shared_ptr<geode::SettingV3>)#1}, std::__ndk1::allocator<geode::listenForSettingChangesV3<std::__ndk1::basic_string<char, std::__ndk1::char_traits<char>, std::__ndk1::allocator<char> >, geodeExecFunction27<(anonymous namespace)::ExecFuncUnique27>(geode::ModStateEvent*)::{lambda(std::__ndk1::basic_string<char, std::__ndk1::char_traits<char>, std::__ndk1::allocator<char> >)#5}>(std::__ndk1::basic_string_view<char, std::__ndk1::char_traits<char> >, geodeExecFunction27<(anonymous namespace)::ExecFuncUnique27>(geode::ModStateEvent*)::{lambda(std::__ndk1::basic_string<char, std::__ndk1::char_traits<char>, std::__ndk1::allocator<char> >&&)#5}, geode::Mod*)::{lambda(std::__ndk1::shared_ptr<geode::SettingV3>)#1}>, void (std::__ndk1::shared_ptr<geode::SettingV3>)>::__clone() const
PUBLIC 1c6d4 0 std::__ndk1::__function::__func<geode::listenForSettingChangesV3<std::__ndk1::basic_string<char, std::__ndk1::char_traits<char>, std::__ndk1::allocator<char> >, geodeExecFunction27<(anonymous namespace)::ExecFuncUnique27>(geode::ModStateEvent*)::{lambda(std::__ndk1::basic_string<char, std::__ndk1::char_traits<char>, std::__ndk1::allocator<char> >)#5}>(std::__ndk1::basic_string_view<char, std::__ndk1::char_traits<char> >, geodeExecFunction27<(anonymous namespace)::ExecFuncUnique27>(geode::ModStateEvent*)::{lambda(std::__ndk1::basic_string<char, std::__ndk1::char_traits<char>, std::__ndk1::allocator<char> >&&)#5}, geode::Mod*)::{lambda(std::__ndk1::shared_ptr<geode::SettingV3>)#1}, std::__ndk1::allocator<geode::listenForSettingChangesV3<std::__ndk1::basic_string<char, std::__ndk1::char_traits<char>, std::__ndk1::allocator<char> >, geodeExecFunction27<(anonymous namespace)::ExecFuncUnique27>(geode::ModStateEvent*)::{lambda(std::__ndk1::basic_string<char, std::__ndk1::char_traits<char>, std::__ndk1::allocator<char> >)#5}>(std::__ndk1::basic_string_view<char, std::__ndk1::char_traits<char> >, geodeExecFunction27<(anonymous namespace)::ExecFuncUnique27>(geode::ModStateEvent*)::{lambda(std::__ndk1::basic_string<char, std::__ndk1::char_traits<char>, std::__ndk1::allocator<char> >&&)#5}, geode::Mod*)::{lambda(std::__ndk1::shared_ptr<geode::SettingV3>)#1}>, void (std::__ndk1::shared_ptr<geode::SettingV3>)>::__clone(std::__ndk1::__function::__base<void (std::__ndk1::shared_ptr<geode::SettingV3>)>*) const
PUBLIC 1c6ec 0 std::__ndk1::__function::__func<geode::listenForSettingChangesV3<std::__ndk1::basic_string<char, std::__ndk1::char_traits<char>, std::__ndk1::allocator<char> >, geodeExecFunction27<(anonymous namespace)::ExecFuncUnique27>(geode::ModStateEvent*)::{lambda(std::__ndk1::basic_string<char, std::__ndk1::char_traits<char>, std::__ndk1::allocator<char> >)#5}>(std::__ndk1::basic_string_view<char, std::__ndk1::char_traits<char> >, geodeExecFunction27<(anonymous namespace)::ExecFuncUnique27>(geode::ModStateEvent*)::{lambda(std::__ndk1::basic_string<char, std::__ndk1::char_traits<char>, std::__ndk1::allocator<char> >&&)#5}, geode::Mod*)::{lambda(std::__ndk1::shared_ptr<geode::SettingV3>)#1}, std::__ndk1::allocator<geode::listenForSettingChangesV3<std::__ndk1::basic_string<char, std::__ndk1::char_traits<char>, std::__ndk1::allocator<char> >, geodeExecFunction27<(anonymous namespace)::ExecFuncUnique27>(geode::ModStateEvent*)::{lambda(std::__ndk1::basic_string<char, std::__ndk1::char_traits<char>, std::__ndk1::allocator<char> >)#5}>(std::__ndk1::basic_string_view<char, std::__ndk1::char_traits<char> >, geodeExecFunction27<(anonymous namespace)::ExecFuncUnique27>(geode::ModStateEvent*)::{lambda(std::__ndk1::basic_string<char, std::__ndk1::char_traits<char>, std::__ndk1::allocator<char> >&&)#5}, geode::Mod*)::{lambda(std::__ndk1::shared_ptr<geode::SettingV3>)#1}>, void (std::__ndk1::shared_ptr<geode::SettingV3>)>::destroy()
PUBLIC 1c6f0 0 std::__ndk1::__function::__func<geode::listenForSettingChangesV3<std::__ndk1::basic_string<char, std::__ndk1::char_traits<char>, std::__ndk1::allocator<char> >, geodeExecFunction27<(anonymous namespace)::ExecFuncUnique27>(geode::ModStateEvent*)::{lambda(std::__ndk1::basic_string<char, std::__ndk1::char_traits<char>, std::__ndk1::allocator<char> >)#5}>(std::__ndk1::basic_string_view<char, std::__ndk1::char_traits<char> >, geodeExecFunction27<(anonymous namespace)::ExecFuncUnique27>(geode::ModStateEvent*)::{lambda(std::__ndk1::basic_string<char, std::__ndk1::char_traits<char>, std::__ndk1::allocator<char> >&&)#5}, geode::Mod*)::{lambda(std::__ndk1::shared_ptr<geode::SettingV3>)#1}, std::__ndk1::allocator<geode::listenForSettingChangesV3<std::__ndk1::basic_string<char, std::__ndk1::char_traits<char>, std::__ndk1::allocator<char> >, geodeExecFunction27<(anonymous namespace)::ExecFuncUnique27>(geode::ModStateEvent*)::{lambda(std::__ndk1::basic_string<char, std::__ndk1::char_traits<char>, std::__ndk1::allocator<char> >)#5}>(std::__ndk1::basic_string_view<char, std::__ndk1::char_traits<char> >, geodeExecFunction27<(anonymous namespace)::ExecFuncUnique27>(geode::ModStateEvent*)::{lambda(std::__ndk1::basic_string<char, std::__ndk1::char_traits<char>, std::__ndk1::allocator<char> >&&)#5}, geode::Mod*)::{lambda(std::__ndk1::shared_ptr<geode::SettingV3>)#1}>, void (std::__ndk1::shared_ptr<geode::SettingV3>)>::destroy_deallocate()
PUBLIC 1c6f4 0 std::__ndk1::__function::__func<geode::listenForSettingChangesV3<std::__ndk1::basic_string<char, std::__ndk1::char_traits<char>, std::__ndk1::allocator<char> >, geodeExecFunction27<(anonymous namespace)::ExecFuncUnique27>(geode::ModStateEvent*)::{lambda(std::__ndk1::basic_string<char, std::__ndk1::char_traits<char>, std::__ndk1::allocator<char> >)#5}>(std::__ndk1::basic_string_view<char, std::__ndk1::char_traits<char> >, geodeExecFunction27<(anonymous namespace)::ExecFuncUnique27>(geode::ModStateEvent*)::{lambda(std::__ndk1::basic_string<char, std::__ndk1::char_traits<char>, std::__ndk1::allocator<char> >&&)#5}, geode::Mod*)::{lambda(std::__ndk1::shared_ptr<geode::SettingV3>)#1}, std::__ndk1::allocator<geode::listenForSettingChangesV3<std::__ndk1::basic_string<char, std::__ndk1::char_traits<char>, std::__ndk1::allocator<char> >, geodeExecFunction27<(anonymous namespace)::ExecFuncUnique27>(geode::ModStateEvent*)::{lambda(std::__ndk1::basic_string<char, std::__ndk1::char_traits<char>, std::__ndk1::allocator<char> >)#5}>(std::__ndk1::basic_string_view<char, std::__ndk1::char_traits<char> >, geodeExecFunction27<(anonymous namespace)::ExecFuncUnique27>(geode::ModStateEvent*)::{lambda(std::__ndk1::basic_string<char, std::__ndk1::char_traits<char>, std::__ndk1::allocator<char> >&&)#5}, geode::Mod*)::{lambda(std::__ndk1::shared_ptr<geode::SettingV3>)#1}>, void (std::__ndk1::shared_ptr<geode::SettingV3>)>::operator()(std::__ndk1::shared_ptr<geode::SettingV3>&&)
PUBLIC 1c8f8 0 std::__ndk1::__function::__func<geode::listenForSettingChangesV3<std::__ndk1::basic_string<char, std::__ndk1::char_traits<char>, std::__ndk1::allocator<char> >, geodeExecFunction27<(anonymous namespace)::ExecFuncUnique27>(geode::ModStateEvent*)::{lambda(std::__ndk1::basic_string<char, std::__ndk1::char_traits<char>, std::__ndk1::allocator<char> >)#5}>(std::__ndk1::basic_string_view<char, std::__ndk1::char_traits<char> >, geodeExecFunction27<(anonymous namespace)::ExecFuncUnique27>(geode::ModStateEvent*)::{lambda(std::__ndk1::basic_string<char, std::__ndk1::char_traits<char>, std::__ndk1::allocator<char> >&&)#5}, geode::Mod*)::{lambda(std::__ndk1::shared_ptr<geode::SettingV3>)#1}, std::__ndk1::allocator<geode::listenForSettingChangesV3<std::__ndk1::basic_string<char, std::__ndk1::char_traits<char>, std::__ndk1::allocator<char> >, geodeExecFunction27<(anonymous namespace)::ExecFuncUnique27>(geode::ModStateEvent*)::{lambda(std::__ndk1::basic_string<char, std::__ndk1::char_traits<char>, std::__ndk1::allocator<char> >)#5}>(std::__ndk1::basic_string_view<char, std::__ndk1::char_traits<char> >, geodeExecFunction27<(anonymous namespace)::ExecFuncUnique27>(geode::ModStateEvent*)::{lambda(std::__ndk1::basic_string<char, std::__ndk1::char_traits<char>, std::__ndk1::allocator<char> >&&)#5}, geode::Mod*)::{lambda(std::__ndk1::shared_ptr<geode::SettingV3>)#1}>, void (std::__ndk1::shared_ptr<geode::SettingV3>)>::target(std::type_info const&) const
PUBLIC 1c914 0 std::__ndk1::__function::__func<geode::listenForSettingChangesV3<std::__ndk1::basic_string<char, std::__ndk1::char_traits<char>, std::__ndk1::allocator<char> >, geodeExecFunction27<(anonymous namespace)::ExecFuncUnique27>(geode::ModStateEvent*)::{lambda(std::__ndk1::basic_string<char, std::__ndk1::char_traits<char>, std::__ndk1::allocator<char> >)#5}>(std::__ndk1::basic_string_view<char, std::__ndk1::char_traits<char> >, geodeExecFunction27<(anonymous namespace)::ExecFuncUnique27>(geode::ModStateEvent*)::{lambda(std::__ndk1::basic_string<char, std::__ndk1::char_traits<char>, std::__ndk1::allocator<char> >&&)#5}, geode::Mod*)::{lambda(std::__ndk1::shared_ptr<geode::SettingV3>)#1}, std::__ndk1::allocator<geode::listenForSettingChangesV3<std::__ndk1::basic_string<char, std::__ndk1::char_traits<char>, std::__ndk1::allocator<char> >, geodeExecFunction27<(anonymous namespace)::ExecFuncUnique27>(geode::ModStateEvent*)::{lambda(std::__ndk1::basic_string<char, std::__ndk1::char_traits<char>, std::__ndk1::allocator<char> >)#5}>(std::__ndk1::basic_string_view<char, std::__ndk1::char_traits<char> >, geodeExecFunction27<(anonymous namespace)::ExecFuncUnique27>(geode::ModStateEvent*)::{lambda(std::__ndk1::basic_string<char, std::__ndk1::char_traits<char>, std::__ndk1::allocator<char> >&&)#5}, geode::Mod*)::{lambda(std::__ndk1::shared_ptr<geode::SettingV3>)#1}>, void (std::__ndk1::shared_ptr<geode::SettingV3>)>::target_type() const
PUBLIC 1c920 0 std::__ndk1::__function::__func<geode::listenForSettingChangesV3<std::__ndk1::basic_string<char, std::__ndk1::char_traits<char>, std::__ndk1::allocator<char> >, geodeExecFunction27<(anonymous namespace)::ExecFuncUnique27>(geode::ModStateEvent*)::{lambda(std::__ndk1::basic_string<char, std::__ndk1::char_traits<char>, std::__ndk1::allocator<char> >)#6}>(std::__ndk1::basic_string_view<char, std::__ndk1::char_traits<char> >, geodeExecFunction27<(anonymous namespace)::ExecFuncUnique27>(geode::ModStateEvent*)::{lambda(std::__ndk1::basic_string<char, std::__ndk1::char_traits<char>, std::__ndk1::allocator<char> >&&)#6}, geode::Mod*)::{lambda(std::__ndk1::shared_ptr<geode::SettingV3>)#1}, std::__ndk1::allocator<geode::listenForSettingChangesV3<std::__ndk1::basic_string<char, std::__ndk1::char_traits<char>, std::__ndk1::allocator<char> >, geodeExecFunction27<(anonymous namespace)::ExecFuncUnique27>(geode::ModStateEvent*)::{lambda(std::__ndk1::basic_string<char, std::__ndk1::char_traits<char>, std::__ndk1::allocator<char> >)#6}>(std::__ndk1::basic_string_view<char, std::__ndk1::char_traits<char> >, geodeExecFunction27<(anonymous namespace)::ExecFuncUnique27>(geode::ModStateEvent*)::{lambda(std::__ndk1::basic_string<char, std::__ndk1::char_traits<char>, std::__ndk1::allocator<char> >&&)#6}, geode::Mod*)::{lambda(std::__ndk1::shared_ptr<geode::SettingV3>)#1}>, void (std::__ndk1::shared_ptr<geode::SettingV3>)>::~__func()
PUBLIC 1c924 0 std::__ndk1::__function::__func<geode::listenForSettingChangesV3<std::__ndk1::basic_string<char, std::__ndk1::char_traits<char>, std::__ndk1::allocator<char> >, geodeExecFunction27<(anonymous namespace)::ExecFuncUnique27>(geode::ModStateEvent*)::{lambda(std::__ndk1::basic_string<char, std::__ndk1::char_traits<char>, std::__ndk1::allocator<char> >)#6}>(std::__ndk1::basic_string_view<char, std::__ndk1::char_traits<char> >, geodeExecFunction27<(anonymous namespace)::ExecFuncUnique27>(geode::ModStateEvent*)::{lambda(std::__ndk1::basic_string<char, std::__ndk1::char_traits<char>, std::__ndk1::allocator<char> >&&)#6}, geode::Mod*)::{lambda(std::__ndk1::shared_ptr<geode::SettingV3>)#1}, std::__ndk1::allocator<geode::listenForSettingChangesV3<std::__ndk1::basic_string<char, std::__ndk1::char_traits<char>, std::__ndk1::allocator<char> >, geodeExecFunction27<(anonymous namespace)::ExecFuncUnique27>(geode::ModStateEvent*)::{lambda(std::__ndk1::basic_string<char, std::__ndk1::char_traits<char>, std::__ndk1::allocator<char> >)#6}>(std::__ndk1::basic_string_view<char, std::__ndk1::char_traits<char> >, geodeExecFunction27<(anonymous namespace)::ExecFuncUnique27>(geode::ModStateEvent*)::{lambda(std::__ndk1::basic_string<char, std::__ndk1::char_traits<char>, std::__ndk1::allocator<char> >&&)#6}, geode::Mod*)::{lambda(std::__ndk1::shared_ptr<geode::SettingV3>)#1}>, void (std::__ndk1::shared_ptr<geode::SettingV3>)>::__clone() const
PUBLIC 1c95c 0 std::__ndk1::__function::__func<geode::listenForSettingChangesV3<std::__ndk1::basic_string<char, std::__ndk1::char_traits<char>, std::__ndk1::allocator<char> >, geodeExecFunction27<(anonymous namespace)::ExecFuncUnique27>(geode::ModStateEvent*)::{lambda(std::__ndk1::basic_string<char, std::__ndk1::char_traits<char>, std::__ndk1::allocator<char> >)#6}>(std::__ndk1::basic_string_view<char, std::__ndk1::char_traits<char> >, geodeExecFunction27<(anonymous namespace)::ExecFuncUnique27>(geode::ModStateEvent*)::{lambda(std::__ndk1::basic_string<char, std::__ndk1::char_traits<char>, std::__ndk1::allocator<char> >&&)#6}, geode::Mod*)::{lambda(std::__ndk1::shared_ptr<geode::SettingV3>)#1}, std::__ndk1::allocator<geode::listenForSettingChangesV3<std::__ndk1::basic_string<char, std::__ndk1::char_traits<char>, std::__ndk1::allocator<char> >, geodeExecFunction27<(anonymous namespace)::ExecFuncUnique27>(geode::ModStateEvent*)::{lambda(std::__ndk1::basic_string<char, std::__ndk1::char_traits<char>, std::__ndk1::allocator<char> >)#6}>(std::__ndk1::basic_string_view<char, std::__ndk1::char_traits<char> >, geodeExecFunction27<(anonymous namespace)::ExecFuncUnique27>(geode::ModStateEvent*)::{lambda(std::__ndk1::basic_string<char, std::__ndk1::char_traits<char>, std::__ndk1::allocator<char> >&&)#6}, geode::Mod*)::{lambda(std::__ndk1::shared_ptr<geode::SettingV3>)#1}>, void (std::__ndk1::shared_ptr<geode::SettingV3>)>::__clone(std::__ndk1::__function::__base<void (std::__ndk1::shared_ptr<geode::SettingV3>)>*) const
PUBLIC 1c974 0 std::__ndk1::__function::__func<geode::listenForSettingChangesV3<std::__ndk1::basic_string<char, std::__ndk1::char_traits<char>, std::__ndk1::allocator<char> >, geodeExecFunction27<(anonymous namespace)::ExecFuncUnique27>(geode::ModStateEvent*)::{lambda(std::__ndk1::basic_string<char, std::__ndk1::char_traits<char>, std::__ndk1::allocator<char> >)#6}>(std::__ndk1::basic_string_view<char, std::__ndk1::char_traits<char> >, geodeExecFunction27<(anonymous namespace)::ExecFuncUnique27>(geode::ModStateEvent*)::{lambda(std::__ndk1::basic_string<char, std::__ndk1::char_traits<char>, std::__ndk1::allocator<char> >&&)#6}, geode::Mod*)::{lambda(std::__ndk1::shared_ptr<geode::SettingV3>)#1}, std::__ndk1::allocator<geode::listenForSettingChangesV3<std::__ndk1::basic_string<char, std::__ndk1::char_traits<char>, std::__ndk1::allocator<char> >, geodeExecFunction27<(anonymous namespace)::ExecFuncUnique27>(geode::ModStateEvent*)::{lambda(std::__ndk1::basic_string<char, std::__ndk1::char_traits<char>, std::__ndk1::allocator<char> >)#6}>(std::__ndk1::basic_string_view<char, std::__ndk1::char_traits<char> >, geodeExecFunction27<(anonymous namespace)::ExecFuncUnique27>(geode::ModStateEvent*)::{lambda(std::__ndk1::basic_string<char, std::__ndk1::char_traits<char>, std::__ndk1::allocator<char> >&&)#6}, geode::Mod*)::{lambda(std::__ndk1::shared_ptr<geode::SettingV3>)#1}>, void (std::__ndk1::shared_ptr<geode::SettingV3>)>::destroy()
PUBLIC 1c978 0 std::__ndk1::__function::__func<geode::listenForSettingChangesV3<std::__ndk1::basic_string<char, std::__ndk1::char_traits<char>, std::__ndk1::allocator<char> >, geodeExecFunction27<(anonymous namespace)::ExecFuncUnique27>(geode::ModStateEvent*)::{lambda(std::__ndk1::basic_string<char, std::__ndk1::char_traits<char>, std::__ndk1::allocator<char> >)#6}>(std::__ndk1::basic_string_view<char, std::__ndk1::char_traits<char> >, geodeExecFunction27<(anonymous namespace)::ExecFuncUnique27>(geode::ModStateEvent*)::{lambda(std::__ndk1::basic_string<char, std::__ndk1::char_traits<char>, std::__ndk1::allocator<char> >&&)#6}, geode::Mod*)::{lambda(std::__ndk1::shared_ptr<geode::SettingV3>)#1}, std::__ndk1::allocator<geode::listenForSettingChangesV3<std::__ndk1::basic_string<char, std::__ndk1::char_traits<char>, std::__ndk1::allocator<char> >, geodeExecFunction27<(anonymous namespace)::ExecFuncUnique27>(geode::ModStateEvent*)::{lambda(std::__ndk1::basic_string<char, std::__ndk1::char_traits<char>, std::__ndk1::allocator<char> >)#6}>(std::__ndk1::basic_string_view<char, std::__ndk1::char_traits<char> >, geodeExecFunction27<(anonymous namespace)::ExecFuncUnique27>(geode::ModStateEvent*)::{lambda(std::__ndk1::basic_string<char, std::__ndk1::char_traits<char>, std::__ndk1::allocator<char> >&&)#6}, geode::Mod*)::{lambda(std::__ndk1::shared_ptr<geode::SettingV3>)#1}>, void (std::__ndk1::shared_ptr<geode::SettingV3>)>::destroy_deallocate()
PUBLIC 1c97c 0 std::__ndk1::__function::__func<geode::listenForSettingChangesV3<std::__ndk1::basic_string<char, std::__ndk1::char_traits<char>, std::__ndk1::allocator<char> >, geodeExecFunction27<(anonymous namespace)::ExecFuncUnique27>(geode::ModStateEvent*)::{lambda(std::__ndk1::basic_string<char, std::__ndk1::char_traits<char>, std::__ndk1::allocator<char> >)#6}>(std::__ndk1::basic_string_view<char, std::__ndk1::char_traits<char> >, geodeExecFunction27<(anonymous namespace)::ExecFuncUnique27>(geode::ModStateEvent*)::{lambda(std::__ndk1::basic_string<char, std::__ndk1::char_traits<char>, std::__ndk1::allocator<char> >&&)#6}, geode::Mod*)::{lambda(std::__ndk1::shared_ptr<geode::SettingV3>)#1}, std::__ndk1::allocator<geode::listenForSettingChangesV3<std::__ndk1::basic_string<char, std::__ndk1::char_traits<char>, std::__ndk1::allocator<char> >, geodeExecFunction27<(anonymous namespace)::ExecFuncUnique27>(geode::ModStateEvent*)::{lambda(std::__ndk1::basic_string<char, std::__ndk1::char_traits<char>, std::__ndk1::allocator<char> >)#6}>(std::__ndk1::basic_string_view<char, std::__ndk1::char_traits<char> >, geodeExecFunction27<(anonymous namespace)::ExecFuncUnique27>(geode::ModStateEvent*)::{lambda(std::__ndk1::basic_string<char, std::__ndk1::char_traits<char>, std::__ndk1::allocator<char> >&&)#6}, geode::Mod*)::{lambda(std::__ndk1::shared_ptr<geode::SettingV3>)#1}>, void (std::__ndk1::shared_ptr<geode::SettingV3>)>::operator()(std::__ndk1::shared_ptr<geode::SettingV3>&&)
PUBLIC 1cb80 0 std::__ndk1::__function::__func<geode::listenForSettingChangesV3<std::__ndk1::basic_string<char, std::__ndk1::char_traits<char>, std::__ndk1::allocator<char> >, geodeExecFunction27<(anonymous namespace)::ExecFuncUnique27>(geode::ModStateEvent*)::{lambda(std::__ndk1::basic_string<char, std::__ndk1::char_traits<char>, std::__ndk1::allocator<char> >)#6}>(std::__ndk1::basic_string_view<char, std::__ndk1::char_traits<char> >, geodeExecFunction27<(anonymous namespace)::ExecFuncUnique27>(geode::ModStateEvent*)::{lambda(std::__ndk1::basic_string<char, std::__ndk1::char_traits<char>, std::__ndk1::allocator<char> >&&)#6}, geode::Mod*)::{lambda(std::__ndk1::shared_ptr<geode::SettingV3>)#1}, std::__ndk1::allocator<geode::listenForSettingChangesV3<std::__ndk1::basic_string<char, std::__ndk1::char_traits<char>, std::__ndk1::allocator<char> >, geodeExecFunction27<(anonymous namespace)::ExecFuncUnique27>(geode::ModStateEvent*)::{lambda(std::__ndk1::basic_string<char, std::__ndk1::char_traits<char>, std::__ndk1::allocator<char> >)#6}>(std::__ndk1::basic_string_view<char, std::__ndk1::char_traits<char> >, geodeExecFunction27<(anonymous namespace)::ExecFuncUnique27>(geode::ModStateEvent*)::{lambda(std::__ndk1::basic_string<char, std::__ndk1::char_traits<char>, std::__ndk1::allocator<char> >&&)#6}, geode::Mod*)::{lambda(std::__ndk1::shared_ptr<geode::SettingV3>)#1}>, void (std::__ndk1::shared_ptr<geode::SettingV3>)>::target(std::type_info const&) const
PUBLIC 1cb9c 0 std::__ndk1::__function::__func<geode::listenForSettingChangesV3<std::__ndk1::basic_string<char, std::__ndk1::char_traits<char>, std::__ndk1::allocator<char> >, geodeExecFunction27<(anonymous namespace)::ExecFuncUnique27>(geode::ModStateEvent*)::{lambda(std::__ndk1::basic_string<char, std::__ndk1::char_traits<char>, std::__ndk1::allocator<char> >)#6}>(std::__ndk1::basic_string_view<char, std::__ndk1::char_traits<char> >, geodeExecFunction27<(anonymous namespace)::ExecFuncUnique27>(geode::ModStateEvent*)::{lambda(std::__ndk1::basic_string<char, std::__ndk1::char_traits<char>, std::__ndk1::allocator<char> >&&)#6}, geode::Mod*)::{lambda(std::__ndk1::shared_ptr<geode::SettingV3>)#1}, std::__ndk1::allocator<geode::listenForSettingChangesV3<std::__ndk1::basic_string<char, std::__ndk1::char_traits<char>, std::__ndk1::allocator<char> >, geodeExecFunction27<(anonymous namespace)::ExecFuncUnique27>(geode::ModStateEvent*)::{lambda(std::__ndk1::basic_string<char, std::__ndk1::char_traits<char>, std::__ndk1::allocator<char> >)#6}>(std::__ndk1::basic_string_view<char, std::__ndk1::char_traits<char> >, geodeExecFunction27<(anonymous namespace)::ExecFuncUnique27>(geode::ModStateEvent*)::{lambda(std::__ndk1::basic_string<char, std::__ndk1::char_traits<char>, std::__ndk1::allocator<char> >&&)#6}, geode::Mod*)::{lambda(std::__ndk1::shared_ptr<geode::SettingV3>)#1}>, void (std::__ndk1::shared_ptr<geode::SettingV3>)>::target_type() const
PUBLIC 1cba8 0 std::__ndk1::__function::__func<geode::listenForSettingChangesV3<bool, geodeExecFunction27<(anonymous namespace)::ExecFuncUnique27>(geode::ModStateEvent*)::{lambda(bool)#7}>(std::__ndk1::basic_string_view<char, std::__ndk1::char_traits<char> >, geodeExecFunction27<(anonymous namespace)::ExecFuncUnique27>(geode::ModStateEvent*)::{lambda(bool)#7}&&, geode::Mod*)::{lambda(std::__ndk1::shared_ptr<geode::SettingV3>)#1}, std::__ndk1::allocator<geode::listenForSettingChangesV3<bool, geodeExecFunction27<(anonymous namespace)::ExecFuncUnique27>(geode::ModStateEvent*)::{lambda(bool)#7}>(std::__ndk1::basic_string_view<char, std::__ndk1::char_traits<char> >, geodeExecFunction27<(anonymous namespace)::ExecFuncUnique27>(geode::ModStateEvent*)::{lambda(bool)#7}&&, geode::Mod*)::{lambda(std::__ndk1::shared_ptr<geode::SettingV3>)#1}>, void (std::__ndk1::shared_ptr<geode::SettingV3>)>::~__func()
PUBLIC 1cbac 0 std::__ndk1::__function::__func<geode::listenForSettingChangesV3<bool, geodeExecFunction27<(anonymous namespace)::ExecFuncUnique27>(geode::ModStateEvent*)::{lambda(bool)#7}>(std::__ndk1::basic_string_view<char, std::__ndk1::char_traits<char> >, geodeExecFunction27<(anonymous namespace)::ExecFuncUnique27>(geode::ModStateEvent*)::{lambda(bool)#7}&&, geode::Mod*)::{lambda(std::__ndk1::shared_ptr<geode::SettingV3>)#1}, std::__ndk1::allocator<geode::listenForSettingChangesV3<bool, geodeExecFunction27<(anonymous namespace)::ExecFuncUnique27>(geode::ModStateEvent*)::{lambda(bool)#7}>(std::__ndk1::basic_string_view<char, std::__ndk1::char_traits<char> >, geodeExecFunction27<(anonymous namespace)::ExecFuncUnique27>(geode::ModStateEvent*)::{lambda(bool)#7}&&, geode::Mod*)::{lambda(std::__ndk1::shared_ptr<geode::SettingV3>)#1}>, void (std::__ndk1::shared_ptr<geode::SettingV3>)>::__clone() const
PUBLIC 1cbe4 0 std::__ndk1::__function::__func<geode::listenForSettingChangesV3<bool, geodeExecFunction27<(anonymous namespace)::ExecFuncUnique27>(geode::ModStateEvent*)::{lambda(bool)#7}>(std::__ndk1::basic_string_view<char, std::__ndk1::char_traits<char> >, geodeExecFunction27<(anonymous namespace)::ExecFuncUnique27>(geode::ModStateEvent*)::{lambda(bool)#7}&&, geode::Mod*)::{lambda(std::__ndk1::shared_ptr<geode::SettingV3>)#1}, std::__ndk1::allocator<geode::listenForSettingChangesV3<bool, geodeExecFunction27<(anonymous namespace)::ExecFuncUnique27>(geode::ModStateEvent*)::{lambda(bool)#7}>(std::__ndk1::basic_string_view<char, std::__ndk1::char_traits<char> >, geodeExecFunction27<(anonymous namespace)::ExecFuncUnique27>(geode::ModStateEvent*)::{lambda(bool)#7}&&, geode::Mod*)::{lambda(std::__ndk1::shared_ptr<geode::SettingV3>)#1}>, void (std::__ndk1::shared_ptr<geode::SettingV3>)>::__clone(std::__ndk1::__function::__base<void (std::__ndk1::shared_ptr<geode::SettingV3>)>*) const
PUBLIC 1cbfc 0 std::__ndk1::__function::__func<geode::listenForSettingChangesV3<bool, geodeExecFunction27<(anonymous namespace)::ExecFuncUnique27>(geode::ModStateEvent*)::{lambda(bool)#7}>(std::__ndk1::basic_string_view<char, std::__ndk1::char_traits<char> >, geodeExecFunction27<(anonymous namespace)::ExecFuncUnique27>(geode::ModStateEvent*)::{lambda(bool)#7}&&, geode::Mod*)::{lambda(std::__ndk1::shared_ptr<geode::SettingV3>)#1}, std::__ndk1::allocator<geode::listenForSettingChangesV3<bool, geodeExecFunction27<(anonymous namespace)::ExecFuncUnique27>(geode::ModStateEvent*)::{lambda(bool)#7}>(std::__ndk1::basic_string_view<char, std::__ndk1::char_traits<char> >, geodeExecFunction27<(anonymous namespace)::ExecFuncUnique27>(geode::ModStateEvent*)::{lambda(bool)#7}&&, geode::Mod*)::{lambda(std::__ndk1::shared_ptr<geode::SettingV3>)#1}>, void (std::__ndk1::shared_ptr<geode::SettingV3>)>::destroy()
PUBLIC 1cc00 0 std::__ndk1::__function::__func<geode::listenForSettingChangesV3<bool, geodeExecFunction27<(anonymous namespace)::ExecFuncUnique27>(geode::ModStateEvent*)::{lambda(bool)#7}>(std::__ndk1::basic_string_view<char, std::__ndk1::char_traits<char> >, geodeExecFunction27<(anonymous namespace)::ExecFuncUnique27>(geode::ModStateEvent*)::{lambda(bool)#7}&&, geode::Mod*)::{lambda(std::__ndk1::shared_ptr<geode::SettingV3>)#1}, std::__ndk1::allocator<geode::listenForSettingChangesV3<bool, geodeExecFunction27<(anonymous namespace)::ExecFuncUnique27>(geode::ModStateEvent*)::{lambda(bool)#7}>(std::__ndk1::basic_string_view<char, std::__ndk1::char_traits<char> >, geodeExecFunction27<(anonymous namespace)::ExecFuncUnique27>(geode::ModStateEvent*)::{lambda(bool)#7}&&, geode::Mod*)::{lambda(std::__ndk1::shared_ptr<geode::SettingV3>)#1}>, void (std::__ndk1::shared_ptr<geode::SettingV3>)>::destroy_deallocate()
PUBLIC 1cc04 0 std::__ndk1::__function::__func<geode::listenForSettingChangesV3<bool, geodeExecFunction27<(anonymous namespace)::ExecFuncUnique27>(geode::ModStateEvent*)::{lambda(bool)#7}>(std::__ndk1::basic_string_view<char, std::__ndk1::char_traits<char> >, geodeExecFunction27<(anonymous namespace)::ExecFuncUnique27>(geode::ModStateEvent*)::{lambda(bool)#7}&&, geode::Mod*)::{lambda(std::__ndk1::shared_ptr<geode::SettingV3>)#1}, std::__ndk1::allocator<geode::listenForSettingChangesV3<bool, geodeExecFunction27<(anonymous namespace)::ExecFuncUnique27>(geode::ModStateEvent*)::{lambda(bool)#7}>(std::__ndk1::basic_string_view<char, std::__ndk1::char_traits<char> >, geodeExecFunction27<(anonymous namespace)::ExecFuncUnique27>(geode::ModStateEvent*)::{lambda(bool)#7}&&, geode::Mod*)::{lambda(std::__ndk1::shared_ptr<geode::SettingV3>)#1}>, void (std::__ndk1::shared_ptr<geode::SettingV3>)>::operator()(std::__ndk1::shared_ptr<geode::SettingV3>&&)
PUBLIC 1ccf0 0 std::__ndk1::__function::__func<geode::listenForSettingChangesV3<bool, geodeExecFunction27<(anonymous namespace)::ExecFuncUnique27>(geode::ModStateEvent*)::{lambda(bool)#7}>(std::__ndk1::basic_string_view<char, std::__ndk1::char_traits<char> >, geodeExecFunction27<(anonymous namespace)::ExecFuncUnique27>(geode::ModStateEvent*)::{lambda(bool)#7}&&, geode::Mod*)::{lambda(std::__ndk1::shared_ptr<geode::SettingV3>)#1}, std::__ndk1::allocator<geode::listenForSettingChangesV3<bool, geodeExecFunction27<(anonymous namespace)::ExecFuncUnique27>(geode::ModStateEvent*)::{lambda(bool)#7}>(std::__ndk1::basic_string_view<char, std::__ndk1::char_traits<char> >, geodeExecFunction27<(anonymous namespace)::ExecFuncUnique27>(geode::ModStateEvent*)::{lambda(bool)#7}&&, geode::Mod*)::{lambda(std::__ndk1::shared_ptr<geode::SettingV3>)#1}>, void (std::__ndk1::shared_ptr<geode::SettingV3>)>::target(std::type_info const&) const
PUBLIC 1cd0c 0 std::__ndk1::__function::__func<geode::listenForSettingChangesV3<bool, geodeExecFunction27<(anonymous namespace)::ExecFuncUnique27>(geode::ModStateEvent*)::{lambda(bool)#7}>(std::__ndk1::basic_string_view<char, std::__ndk1::char_traits<char> >, geodeExecFunction27<(anonymous namespace)::ExecFuncUnique27>(geode::ModStateEvent*)::{lambda(bool)#7}&&, geode::Mod*)::{lambda(std::__ndk1::shared_ptr<geode::SettingV3>)#1}, std::__ndk1::allocator<geode::listenForSettingChangesV3<bool, geodeExecFunction27<(anonymous namespace)::ExecFuncUnique27>(geode::ModStateEvent*)::{lambda(bool)#7}>(std::__ndk1::basic_string_view<char, std::__ndk1::char_traits<char> >, geodeExecFunction27<(anonymous namespace)::ExecFuncUnique27>(geode::ModStateEvent*)::{lambda(bool)#7}&&, geode::Mod*)::{lambda(std::__ndk1::shared_ptr<geode::SettingV3>)#1}>, void (std::__ndk1::shared_ptr<geode::SettingV3>)>::target_type() const
PUBLIC 1cd18 0 std::__ndk1::__function::__func<geode::listenForSettingChangesV3<bool, geodeExecFunction27<(anonymous namespace)::ExecFuncUnique27>(geode::ModStateEvent*)::{lambda(bool)#8}>(std::__ndk1::basic_string_view<char, std::__ndk1::char_traits<char> >, geodeExecFunction27<(anonymous namespace)::ExecFuncUnique27>(geode::ModStateEvent*)::{lambda(bool)#8}&&, geode::Mod*)::{lambda(std::__ndk1::shared_ptr<geode::SettingV3>)#1}, std::__ndk1::allocator<geode::listenForSettingChangesV3<bool, geodeExecFunction27<(anonymous namespace)::ExecFuncUnique27>(geode::ModStateEvent*)::{lambda(bool)#8}>(std::__ndk1::basic_string_view<char, std::__ndk1::char_traits<char> >, geodeExecFunction27<(anonymous namespace)::ExecFuncUnique27>(geode::ModStateEvent*)::{lambda(bool)#8}&&, geode::Mod*)::{lambda(std::__ndk1::shared_ptr<geode::SettingV3>)#1}>, void (std::__ndk1::shared_ptr<geode::SettingV3>)>::~__func()
PUBLIC 1cd1c 0 std::__ndk1::__function::__func<geode::listenForSettingChangesV3<bool, geodeExecFunction27<(anonymous namespace)::ExecFuncUnique27>(geode::ModStateEvent*)::{lambda(bool)#8}>(std::__ndk1::basic_string_view<char, std::__ndk1::char_traits<char> >, geodeExecFunction27<(anonymous namespace)::ExecFuncUnique27>(geode::ModStateEvent*)::{lambda(bool)#8}&&, geode::Mod*)::{lambda(std::__ndk1::shared_ptr<geode::SettingV3>)#1}, std::__ndk1::allocator<geode::listenForSettingChangesV3<bool, geodeExecFunction27<(anonymous namespace)::ExecFuncUnique27>(geode::ModStateEvent*)::{lambda(bool)#8}>(std::__ndk1::basic_string_view<char, std::__ndk1::char_traits<char> >, geodeExecFunction27<(anonymous namespace)::ExecFuncUnique27>(geode::ModStateEvent*)::{lambda(bool)#8}&&, geode::Mod*)::{lambda(std::__ndk1::shared_ptr<geode::SettingV3>)#1}>, void (std::__ndk1::shared_ptr<geode::SettingV3>)>::__clone() const
PUBLIC 1cd54 0 std::__ndk1::__function::__func<geode::listenForSettingChangesV3<bool, geodeExecFunction27<(anonymous namespace)::ExecFuncUnique27>(geode::ModStateEvent*)::{lambda(bool)#8}>(std::__ndk1::basic_string_view<char, std::__ndk1::char_traits<char> >, geodeExecFunction27<(anonymous namespace)::ExecFuncUnique27>(geode::ModStateEvent*)::{lambda(bool)#8}&&, geode::Mod*)::{lambda(std::__ndk1::shared_ptr<geode::SettingV3>)#1}, std::__ndk1::allocator<geode::listenForSettingChangesV3<bool, geodeExecFunction27<(anonymous namespace)::ExecFuncUnique27>(geode::ModStateEvent*)::{lambda(bool)#8}>(std::__ndk1::basic_string_view<char, std::__ndk1::char_traits<char> >, geodeExecFunction27<(anonymous namespace)::ExecFuncUnique27>(geode::ModStateEvent*)::{lambda(bool)#8}&&, geode::Mod*)::{lambda(std::__ndk1::shared_ptr<geode::SettingV3>)#1}>, void (std::__ndk1::shared_ptr<geode::SettingV3>)>::__clone(std::__ndk1::__function::__base<void (std::__ndk1::shared_ptr<geode::SettingV3>)>*) const
PUBLIC 1cd6c 0 std::__ndk1::__function::__func<geode::listenForSettingChangesV3<bool, geodeExecFunction27<(anonymous namespace)::ExecFuncUnique27>(geode::ModStateEvent*)::{lambda(bool)#8}>(std::__ndk1::basic_string_view<char, std::__ndk1::char_traits<char> >, geodeExecFunction27<(anonymous namespace)::ExecFuncUnique27>(geode::ModStateEvent*)::{lambda(bool)#8}&&, geode::Mod*)::{lambda(std::__ndk1::shared_ptr<geode::SettingV3>)#1}, std::__ndk1::allocator<geode::listenForSettingChangesV3<bool, geodeExecFunction27<(anonymous namespace)::ExecFuncUnique27>(geode::ModStateEvent*)::{lambda(bool)#8}>(std::__ndk1::basic_string_view<char, std::__ndk1::char_traits<char> >, geodeExecFunction27<(anonymous namespace)::ExecFuncUnique27>(geode::ModStateEvent*)::{lambda(bool)#8}&&, geode::Mod*)::{lambda(std::__ndk1::shared_ptr<geode::SettingV3>)#1}>, void (std::__ndk1::shared_ptr<geode::SettingV3>)>::destroy()
PUBLIC 1cd70 0 std::__ndk1::__function::__func<geode::listenForSettingChangesV3<bool, geodeExecFunction27<(anonymous namespace)::ExecFuncUnique27>(geode::ModStateEvent*)::{lambda(bool)#8}>(std::__ndk1::basic_string_view<char, std::__ndk1::char_traits<char> >, geodeExecFunction27<(anonymous namespace)::ExecFuncUnique27>(geode::ModStateEvent*)::{lambda(bool)#8}&&, geode::Mod*)::{lambda(std::__ndk1::shared_ptr<geode::SettingV3>)#1}, std::__ndk1::allocator<geode::listenForSettingChangesV3<bool, geodeExecFunction27<(anonymous namespace)::ExecFuncUnique27>(geode::ModStateEvent*)::{lambda(bool)#8}>(std::__ndk1::basic_string_view<char, std::__ndk1::char_traits<char> >, geodeExecFunction27<(anonymous namespace)::ExecFuncUnique27>(geode::ModStateEvent*)::{lambda(bool)#8}&&, geode::Mod*)::{lambda(std::__ndk1::shared_ptr<geode::SettingV3>)#1}>, void (std::__ndk1::shared_ptr<geode::SettingV3>)>::destroy_deallocate()
PUBLIC 1cd74 0 std::__ndk1::__function::__func<geode::listenForSettingChangesV3<bool, geodeExecFunction27<(anonymous namespace)::ExecFuncUnique27>(geode::ModStateEvent*)::{lambda(bool)#8}>(std::__ndk1::basic_string_view<char, std::__ndk1::char_traits<char> >, geodeExecFunction27<(anonymous namespace)::ExecFuncUnique27>(geode::ModStateEvent*)::{lambda(bool)#8}&&, geode::Mod*)::{lambda(std::__ndk1::shared_ptr<geode::SettingV3>)#1}, std::__ndk1::allocator<geode::listenForSettingChangesV3<bool, geodeExecFunction27<(anonymous namespace)::ExecFuncUnique27>(geode::ModStateEvent*)::{lambda(bool)#8}>(std::__ndk1::basic_string_view<char, std::__ndk1::char_traits<char> >, geodeExecFunction27<(anonymous namespace)::ExecFuncUnique27>(geode::ModStateEvent*)::{lambda(bool)#8}&&, geode::Mod*)::{lambda(std::__ndk1::shared_ptr<geode::SettingV3>)#1}>, void (std::__ndk1::shared_ptr<geode::SettingV3>)>::operator()(std::__ndk1::shared_ptr<geode::SettingV3>&&)
PUBLIC 1ce60 0 std::__ndk1::__function::__func<geode::listenForSettingChangesV3<bool, geodeExecFunction27<(anonymous namespace)::ExecFuncUnique27>(geode::ModStateEvent*)::{lambda(bool)#8}>(std::__ndk1::basic_string_view<char, std::__ndk1::char_traits<char> >, geodeExecFunction27<(anonymous namespace)::ExecFuncUnique27>(geode::ModStateEvent*)::{lambda(bool)#8}&&, geode::Mod*)::{lambda(std::__ndk1::shared_ptr<geode::SettingV3>)#1}, std::__ndk1::allocator<geode::listenForSettingChangesV3<bool, geodeExecFunction27<(anonymous namespace)::ExecFuncUnique27>(geode::ModStateEvent*)::{lambda(bool)#8}>(std::__ndk1::basic_string_view<char, std::__ndk1::char_traits<char> >, geodeExecFunction27<(anonymous namespace)::ExecFuncUnique27>(geode::ModStateEvent*)::{lambda(bool)#8}&&, geode::Mod*)::{lambda(std::__ndk1::shared_ptr<geode::SettingV3>)#1}>, void (std::__ndk1::shared_ptr<geode::SettingV3>)>::target(std::type_info const&) const
PUBLIC 1ce7c 0 std::__ndk1::__function::__func<geode::listenForSettingChangesV3<bool, geodeExecFunction27<(anonymous namespace)::ExecFuncUnique27>(geode::ModStateEvent*)::{lambda(bool)#8}>(std::__ndk1::basic_string_view<char, std::__ndk1::char_traits<char> >, geodeExecFunction27<(anonymous namespace)::ExecFuncUnique27>(geode::ModStateEvent*)::{lambda(bool)#8}&&, geode::Mod*)::{lambda(std::__ndk1::shared_ptr<geode::SettingV3>)#1}, std::__ndk1::allocator<geode::listenForSettingChangesV3<bool, geodeExecFunction27<(anonymous namespace)::ExecFuncUnique27>(geode::ModStateEvent*)::{lambda(bool)#8}>(std::__ndk1::basic_string_view<char, std::__ndk1::char_traits<char> >, geodeExecFunction27<(anonymous namespace)::ExecFuncUnique27>(geode::ModStateEvent*)::{lambda(bool)#8}&&, geode::Mod*)::{lambda(std::__ndk1::shared_ptr<geode::SettingV3>)#1}>, void (std::__ndk1::shared_ptr<geode::SettingV3>)>::target_type() const
PUBLIC 1ce88 0 std::__ndk1::__function::__func<geode::listenForSettingChangesV3<bool, geodeExecFunction27<(anonymous namespace)::ExecFuncUnique27>(geode::ModStateEvent*)::{lambda(bool)#9}>(std::__ndk1::basic_string_view<char, std::__ndk1::char_traits<char> >, geodeExecFunction27<(anonymous namespace)::ExecFuncUnique27>(geode::ModStateEvent*)::{lambda(bool)#9}&&, geode::Mod*)::{lambda(std::__ndk1::shared_ptr<geode::SettingV3>)#1}, std::__ndk1::allocator<geode::listenForSettingChangesV3<bool, geodeExecFunction27<(anonymous namespace)::ExecFuncUnique27>(geode::ModStateEvent*)::{lambda(bool)#9}>(std::__ndk1::basic_string_view<char, std::__ndk1::char_traits<char> >, geodeExecFunction27<(anonymous namespace)::ExecFuncUnique27>(geode::ModStateEvent*)::{lambda(bool)#9}&&, geode::Mod*)::{lambda(std::__ndk1::shared_ptr<geode::SettingV3>)#1}>, void (std::__ndk1::shared_ptr<geode::SettingV3>)>::~__func()
PUBLIC 1ce8c 0 std::__ndk1::__function::__func<geode::listenForSettingChangesV3<bool, geodeExecFunction27<(anonymous namespace)::ExecFuncUnique27>(geode::ModStateEvent*)::{lambda(bool)#9}>(std::__ndk1::basic_string_view<char, std::__ndk1::char_traits<char> >, geodeExecFunction27<(anonymous namespace)::ExecFuncUnique27>(geode::ModStateEvent*)::{lambda(bool)#9}&&, geode::Mod*)::{lambda(std::__ndk1::shared_ptr<geode::SettingV3>)#1}, std::__ndk1::allocator<geode::listenForSettingChangesV3<bool, geodeExecFunction27<(anonymous namespace)::ExecFuncUnique27>(geode::ModStateEvent*)::{lambda(bool)#9}>(std::__ndk1::basic_string_view<char, std::__ndk1::char_traits<char> >, geodeExecFunction27<(anonymous namespace)::ExecFuncUnique27>(geode::ModStateEvent*)::{lambda(bool)#9}&&, geode::Mod*)::{lambda(std::__ndk1::shared_ptr<geode::SettingV3>)#1}>, void (std::__ndk1::shared_ptr<geode::SettingV3>)>::__clone() const
PUBLIC 1cec4 0 std::__ndk1::__function::__func<geode::listenForSettingChangesV3<bool, geodeExecFunction27<(anonymous namespace)::ExecFuncUnique27>(geode::ModStateEvent*)::{lambda(bool)#9}>(std::__ndk1::basic_string_view<char, std::__ndk1::char_traits<char> >, geodeExecFunction27<(anonymous namespace)::ExecFuncUnique27>(geode::ModStateEvent*)::{lambda(bool)#9}&&, geode::Mod*)::{lambda(std::__ndk1::shared_ptr<geode::SettingV3>)#1}, std::__ndk1::allocator<geode::listenForSettingChangesV3<bool, geodeExecFunction27<(anonymous namespace)::ExecFuncUnique27>(geode::ModStateEvent*)::{lambda(bool)#9}>(std::__ndk1::basic_string_view<char, std::__ndk1::char_traits<char> >, geodeExecFunction27<(anonymous namespace)::ExecFuncUnique27>(geode::ModStateEvent*)::{lambda(bool)#9}&&, geode::Mod*)::{lambda(std::__ndk1::shared_ptr<geode::SettingV3>)#1}>, void (std::__ndk1::shared_ptr<geode::SettingV3>)>::__clone(std::__ndk1::__function::__base<void (std::__ndk1::shared_ptr<geode::SettingV3>)>*) const
PUBLIC 1cedc 0 std::__ndk1::__function::__func<geode::listenForSettingChangesV3<bool, geodeExecFunction27<(anonymous namespace)::ExecFuncUnique27>(geode::ModStateEvent*)::{lambda(bool)#9}>(std::__ndk1::basic_string_view<char, std::__ndk1::char_traits<char> >, geodeExecFunction27<(anonymous namespace)::ExecFuncUnique27>(geode::ModStateEvent*)::{lambda(bool)#9}&&, geode::Mod*)::{lambda(std::__ndk1::shared_ptr<geode::SettingV3>)#1}, std::__ndk1::allocator<geode::listenForSettingChangesV3<bool, geodeExecFunction27<(anonymous namespace)::ExecFuncUnique27>(geode::ModStateEvent*)::{lambda(bool)#9}>(std::__ndk1::basic_string_view<char, std::__ndk1::char_traits<char> >, geodeExecFunction27<(anonymous namespace)::ExecFuncUnique27>(geode::ModStateEvent*)::{lambda(bool)#9}&&, geode::Mod*)::{lambda(std::__ndk1::shared_ptr<geode::SettingV3>)#1}>, void (std::__ndk1::shared_ptr<geode::SettingV3>)>::destroy()
PUBLIC 1cee0 0 std::__ndk1::__function::__func<geode::listenForSettingChangesV3<bool, geodeExecFunction27<(anonymous namespace)::ExecFuncUnique27>(geode::ModStateEvent*)::{lambda(bool)#9}>(std::__ndk1::basic_string_view<char, std::__ndk1::char_traits<char> >, geodeExecFunction27<(anonymous namespace)::ExecFuncUnique27>(geode::ModStateEvent*)::{lambda(bool)#9}&&, geode::Mod*)::{lambda(std::__ndk1::shared_ptr<geode::SettingV3>)#1}, std::__ndk1::allocator<geode::listenForSettingChangesV3<bool, geodeExecFunction27<(anonymous namespace)::ExecFuncUnique27>(geode::ModStateEvent*)::{lambda(bool)#9}>(std::__ndk1::basic_string_view<char, std::__ndk1::char_traits<char> >, geodeExecFunction27<(anonymous namespace)::ExecFuncUnique27>(geode::ModStateEvent*)::{lambda(bool)#9}&&, geode::Mod*)::{lambda(std::__ndk1::shared_ptr<geode::SettingV3>)#1}>, void (std::__ndk1::shared_ptr<geode::SettingV3>)>::destroy_deallocate()
PUBLIC 1cee4 0 std::__ndk1::__function::__func<geode::listenForSettingChangesV3<bool, geodeExecFunction27<(anonymous namespace)::ExecFuncUnique27>(geode::ModStateEvent*)::{lambda(bool)#9}>(std::__ndk1::basic_string_view<char, std::__ndk1::char_traits<char> >, geodeExecFunction27<(anonymous namespace)::ExecFuncUnique27>(geode::ModStateEvent*)::{lambda(bool)#9}&&, geode::Mod*)::{lambda(std::__ndk1::shared_ptr<geode::SettingV3>)#1}, std::__ndk1::allocator<geode::listenForSettingChangesV3<bool, geodeExecFunction27<(anonymous namespace)::ExecFuncUnique27>(geode::ModStateEvent*)::{lambda(bool)#9}>(std::__ndk1::basic_string_view<char, std::__ndk1::char_traits<char> >, geodeExecFunction27<(anonymous namespace)::ExecFuncUnique27>(geode::ModStateEvent*)::{lambda(bool)#9}&&, geode::Mod*)::{lambda(std::__ndk1::shared_ptr<geode::SettingV3>)#1}>, void (std::__ndk1::shared_ptr<geode::SettingV3>)>::operator()(std::__ndk1::shared_ptr<geode::SettingV3>&&)
PUBLIC 1cfd0 0 std::__ndk1::__function::__func<geode::listenForSettingChangesV3<bool, geodeExecFunction27<(anonymous namespace)::ExecFuncUnique27>(geode::ModStateEvent*)::{lambda(bool)#9}>(std::__ndk1::basic_string_view<char, std::__ndk1::char_traits<char> >, geodeExecFunction27<(anonymous namespace)::ExecFuncUnique27>(geode::ModStateEvent*)::{lambda(bool)#9}&&, geode::Mod*)::{lambda(std::__ndk1::shared_ptr<geode::SettingV3>)#1}, std::__ndk1::allocator<geode::listenForSettingChangesV3<bool, geodeExecFunction27<(anonymous namespace)::ExecFuncUnique27>(geode::ModStateEvent*)::{lambda(bool)#9}>(std::__ndk1::basic_string_view<char, std::__ndk1::char_traits<char> >, geodeExecFunction27<(anonymous namespace)::ExecFuncUnique27>(geode::ModStateEvent*)::{lambda(bool)#9}&&, geode::Mod*)::{lambda(std::__ndk1::shared_ptr<geode::SettingV3>)#1}>, void (std::__ndk1::shared_ptr<geode::SettingV3>)>::target(std::type_info const&) const
PUBLIC 1cfec 0 std::__ndk1::__function::__func<geode::listenForSettingChangesV3<bool, geodeExecFunction27<(anonymous namespace)::ExecFuncUnique27>(geode::ModStateEvent*)::{lambda(bool)#9}>(std::__ndk1::basic_string_view<char, std::__ndk1::char_traits<char> >, geodeExecFunction27<(anonymous namespace)::ExecFuncUnique27>(geode::ModStateEvent*)::{lambda(bool)#9}&&, geode::Mod*)::{lambda(std::__ndk1::shared_ptr<geode::SettingV3>)#1}, std::__ndk1::allocator<geode::listenForSettingChangesV3<bool, geodeExecFunction27<(anonymous namespace)::ExecFuncUnique27>(geode::ModStateEvent*)::{lambda(bool)#9}>(std::__ndk1::basic_string_view<char, std::__ndk1::char_traits<char> >, geodeExecFunction27<(anonymous namespace)::ExecFuncUnique27>(geode::ModStateEvent*)::{lambda(bool)#9}&&, geode::Mod*)::{lambda(std::__ndk1::shared_ptr<geode::SettingV3>)#1}>, void (std::__ndk1::shared_ptr<geode::SettingV3>)>::target_type() const
PUBLIC 1cff8 0 std::__ndk1::__function::__base<void (std::__ndk1::shared_ptr<geode::SettingV3>)>::~__base()
PUBLIC 1cffc 0 std::__ndk1::__function::__func<geode::listenForSettingChangesV3<bool, geodeExecFunction27<(anonymous namespace)::ExecFuncUnique27>(geode::ModStateEvent*)::{lambda(bool)#10}>(std::__ndk1::basic_string_view<char, std::__ndk1::char_traits<char> >, geodeExecFunction27<(anonymous namespace)::ExecFuncUnique27>(geode::ModStateEvent*)::{lambda(bool)#10}&&, geode::Mod*)::{lambda(std::__ndk1::shared_ptr<geode::SettingV3>)#1}, std::__ndk1::allocator<geode::listenForSettingChangesV3<bool, geodeExecFunction27<(anonymous namespace)::ExecFuncUnique27>(geode::ModStateEvent*)::{lambda(bool)#10}>(std::__ndk1::basic_string_view<char, std::__ndk1::char_traits<char> >, geodeExecFunction27<(anonymous namespace)::ExecFuncUnique27>(geode::ModStateEvent*)::{lambda(bool)#10}&&, geode::Mod*)::{lambda(std::__ndk1::shared_ptr<geode::SettingV3>)#1}>, void (std::__ndk1::shared_ptr<geode::SettingV3>)>::~__func()
PUBLIC 1d000 0 std::__ndk1::__function::__func<geode::listenForSettingChangesV3<bool, geodeExecFunction27<(anonymous namespace)::ExecFuncUnique27>(geode::ModStateEvent*)::{lambda(bool)#10}>(std::__ndk1::basic_string_view<char, std::__ndk1::char_traits<char> >, geodeExecFunction27<(anonymous namespace)::ExecFuncUnique27>(geode::ModStateEvent*)::{lambda(bool)#10}&&, geode::Mod*)::{lambda(std::__ndk1::shared_ptr<geode::SettingV3>)#1}, std::__ndk1::allocator<geode::listenForSettingChangesV3<bool, geodeExecFunction27<(anonymous namespace)::ExecFuncUnique27>(geode::ModStateEvent*)::{lambda(bool)#10}>(std::__ndk1::basic_string_view<char, std::__ndk1::char_traits<char> >, geodeExecFunction27<(anonymous namespace)::ExecFuncUnique27>(geode::ModStateEvent*)::{lambda(bool)#10}&&, geode::Mod*)::{lambda(std::__ndk1::shared_ptr<geode::SettingV3>)#1}>, void (std::__ndk1::shared_ptr<geode::SettingV3>)>::__clone() const
PUBLIC 1d038 0 std::__ndk1::__function::__func<geode::listenForSettingChangesV3<bool, geodeExecFunction27<(anonymous namespace)::ExecFuncUnique27>(geode::ModStateEvent*)::{lambda(bool)#10}>(std::__ndk1::basic_string_view<char, std::__ndk1::char_traits<char> >, geodeExecFunction27<(anonymous namespace)::ExecFuncUnique27>(geode::ModStateEvent*)::{lambda(bool)#10}&&, geode::Mod*)::{lambda(std::__ndk1::shared_ptr<geode::SettingV3>)#1}, std::__ndk1::allocator<geode::listenForSettingChangesV3<bool, geodeExecFunction27<(anonymous namespace)::ExecFuncUnique27>(geode::ModStateEvent*)::{lambda(bool)#10}>(std::__ndk1::basic_string_view<char, std::__ndk1::char_traits<char> >, geodeExecFunction27<(anonymous namespace)::ExecFuncUnique27>(geode::ModStateEvent*)::{lambda(bool)#10}&&, geode::Mod*)::{lambda(std::__ndk1::shared_ptr<geode::SettingV3>)#1}>, void (std::__ndk1::shared_ptr<geode::SettingV3>)>::__clone(std::__ndk1::__function::__base<void (std::__ndk1::shared_ptr<geode::SettingV3>)>*) const
PUBLIC 1d050 0 std::__ndk1::__function::__func<geode::listenForSettingChangesV3<bool, geodeExecFunction27<(anonymous namespace)::ExecFuncUnique27>(geode::ModStateEvent*)::{lambda(bool)#10}>(std::__ndk1::basic_string_view<char, std::__ndk1::char_traits<char> >, geodeExecFunction27<(anonymous namespace)::ExecFuncUnique27>(geode::ModStateEvent*)::{lambda(bool)#10}&&, geode::Mod*)::{lambda(std::__ndk1::shared_ptr<geode::SettingV3>)#1}, std::__ndk1::allocator<geode::listenForSettingChangesV3<bool, geodeExecFunction27<(anonymous namespace)::ExecFuncUnique27>(geode::ModStateEvent*)::{lambda(bool)#10}>(std::__ndk1::basic_string_view<char, std::__ndk1::char_traits<char> >, geodeExecFunction27<(anonymous namespace)::ExecFuncUnique27>(geode::ModStateEvent*)::{lambda(bool)#10}&&, geode::Mod*)::{lambda(std::__ndk1::shared_ptr<geode::SettingV3>)#1}>, void (std::__ndk1::shared_ptr<geode::SettingV3>)>::destroy()
PUBLIC 1d054 0 std::__ndk1::__function::__func<geode::listenForSettingChangesV3<bool, geodeExecFunction27<(anonymous namespace)::ExecFuncUnique27>(geode::ModStateEvent*)::{lambda(bool)#10}>(std::__ndk1::basic_string_view<char, std::__ndk1::char_traits<char> >, geodeExecFunction27<(anonymous namespace)::ExecFuncUnique27>(geode::ModStateEvent*)::{lambda(bool)#10}&&, geode::Mod*)::{lambda(std::__ndk1::shared_ptr<geode::SettingV3>)#1}, std::__ndk1::allocator<geode::listenForSettingChangesV3<bool, geodeExecFunction27<(anonymous namespace)::ExecFuncUnique27>(geode::ModStateEvent*)::{lambda(bool)#10}>(std::__ndk1::basic_string_view<char, std::__ndk1::char_traits<char> >, geodeExecFunction27<(anonymous namespace)::ExecFuncUnique27>(geode::ModStateEvent*)::{lambda(bool)#10}&&, geode::Mod*)::{lambda(std::__ndk1::shared_ptr<geode::SettingV3>)#1}>, void (std::__ndk1::shared_ptr<geode::SettingV3>)>::destroy_deallocate()
PUBLIC 1d058 0 std::__ndk1::__function::__func<geode::listenForSettingChangesV3<bool, geodeExecFunction27<(anonymous namespace)::ExecFuncUnique27>(geode::ModStateEvent*)::{lambda(bool)#10}>(std::__ndk1::basic_string_view<char, std::__ndk1::char_traits<char> >, geodeExecFunction27<(anonymous namespace)::ExecFuncUnique27>(geode::ModStateEvent*)::{lambda(bool)#10}&&, geode::Mod*)::{lambda(std::__ndk1::shared_ptr<geode::SettingV3>)#1}, std::__ndk1::allocator<geode::listenForSettingChangesV3<bool, geodeExecFunction27<(anonymous namespace)::ExecFuncUnique27>(geode::ModStateEvent*)::{lambda(bool)#10}>(std::__ndk1::basic_string_view<char, std::__ndk1::char_traits<char> >, geodeExecFunction27<(anonymous namespace)::ExecFuncUnique27>(geode::ModStateEvent*)::{lambda(bool)#10}&&, geode::Mod*)::{lambda(std::__ndk1::shared_ptr<geode::SettingV3>)#1}>, void (std::__ndk1::shared_ptr<geode::SettingV3>)>::operator()(std::__ndk1::shared_ptr<geode::SettingV3>&&)
PUBLIC 1d144 0 std::__ndk1::__function::__func<geode::listenForSettingChangesV3<bool, geodeExecFunction27<(anonymous namespace)::ExecFuncUnique27>(geode::ModStateEvent*)::{lambda(bool)#10}>(std::__ndk1::basic_string_view<char, std::__ndk1::char_traits<char> >, geodeExecFunction27<(anonymous namespace)::ExecFuncUnique27>(geode::ModStateEvent*)::{lambda(bool)#10}&&, geode::Mod*)::{lambda(std::__ndk1::shared_ptr<geode::SettingV3>)#1}, std::__ndk1::allocator<geode::listenForSettingChangesV3<bool, geodeExecFunction27<(anonymous namespace)::ExecFuncUnique27>(geode::ModStateEvent*)::{lambda(bool)#10}>(std::__ndk1::basic_string_view<char, std::__ndk1::char_traits<char> >, geodeExecFunction27<(anonymous namespace)::ExecFuncUnique27>(geode::ModStateEvent*)::{lambda(bool)#10}&&, geode::Mod*)::{lambda(std::__ndk1::shared_ptr<geode::SettingV3>)#1}>, void (std::__ndk1::shared_ptr<geode::SettingV3>)>::target(std::type_info const&) const
PUBLIC 1d160 0 std::__ndk1::__function::__func<geode::listenForSettingChangesV3<bool, geodeExecFunction27<(anonymous namespace)::ExecFuncUnique27>(geode::ModStateEvent*)::{lambda(bool)#10}>(std::__ndk1::basic_string_view<char, std::__ndk1::char_traits<char> >, geodeExecFunction27<(anonymous namespace)::ExecFuncUnique27>(geode::ModStateEvent*)::{lambda(bool)#10}&&, geode::Mod*)::{lambda(std::__ndk1::shared_ptr<geode::SettingV3>)#1}, std::__ndk1::allocator<geode::listenForSettingChangesV3<bool, geodeExecFunction27<(anonymous namespace)::ExecFuncUnique27>(geode::ModStateEvent*)::{lambda(bool)#10}>(std::__ndk1::basic_string_view<char, std::__ndk1::char_traits<char> >, geodeExecFunction27<(anonymous namespace)::ExecFuncUnique27>(geode::ModStateEvent*)::{lambda(bool)#10}&&, geode::Mod*)::{lambda(std::__ndk1::shared_ptr<geode::SettingV3>)#1}>, void (std::__ndk1::shared_ptr<geode::SettingV3>)>::target_type() const
PUBLIC 1d16c 0 geode::EventListener<geode::ModStateFilter>::getPool() const
PUBLIC 1d170 0 geode::EventListener<geode::ModStateFilter>::handle(geode::Event*)
PUBLIC 1d2d4 0 geode::EventListener<geode::ModStateFilter>::~EventListener()
PUBLIC 1d330 0 geode::EventListener<geode::ModStateFilter>::~EventListener()
PUBLIC 1d394 0 std::__ndk1::__function::__base<void (geode::ModStateEvent*)>::~__base()
PUBLIC 1d398 0 std::__ndk1::__function::__func<void (*)(geode::ModStateEvent*), std::__ndk1::allocator<void (*)(geode::ModStateEvent*)>, void (geode::ModStateEvent*)>::~__func()
PUBLIC 1d39c 0 std::__ndk1::__function::__func<void (*)(geode::ModStateEvent*), std::__ndk1::allocator<void (*)(geode::ModStateEvent*)>, void (geode::ModStateEvent*)>::__clone() const
PUBLIC 1d3d0 0 std::__ndk1::__function::__func<void (*)(geode::ModStateEvent*), std::__ndk1::allocator<void (*)(geode::ModStateEvent*)>, void (geode::ModStateEvent*)>::__clone(std::__ndk1::__function::__base<void (geode::ModStateEvent*)>*) const
PUBLIC 1d3e4 0 std::__ndk1::__function::__func<void (*)(geode::ModStateEvent*), std::__ndk1::allocator<void (*)(geode::ModStateEvent*)>, void (geode::ModStateEvent*)>::destroy()
PUBLIC 1d3e8 0 std::__ndk1::__function::__func<void (*)(geode::ModStateEvent*), std::__ndk1::allocator<void (*)(geode::ModStateEvent*)>, void (geode::ModStateEvent*)>::destroy_deallocate()
PUBLIC 1d3ec 0 std::__ndk1::__function::__func<void (*)(geode::ModStateEvent*), std::__ndk1::allocator<void (*)(geode::ModStateEvent*)>, void (geode::ModStateEvent*)>::operator()(geode::ModStateEvent*&&)
PUBLIC 1d3fc 0 std::__ndk1::__function::__func<void (*)(geode::ModStateEvent*), std::__ndk1::allocator<void (*)(geode::ModStateEvent*)>, void (geode::ModStateEvent*)>::target(std::type_info const&) const
PUBLIC 1d418 0 std::__ndk1::__function::__func<void (*)(geode::ModStateEvent*), std::__ndk1::allocator<void (*)(geode::ModStateEvent*)>, void (geode::ModStateEvent*)>::target_type() const
PUBLIC 1d424 0 geode::modifier::ModifyDerive<hook80<(anonymous namespace)::hook80Parent>, PlayerObject>::apply()
PUBLIC 1f0dc 0 std::__ndk1::shared_ptr<geode::Hook>::~shared_ptr[abi:ne180000]()
PUBLIC 1f12c 0 geode::impl::ResultData<geode::Hook*, std::__ndk1::basic_string<char, std::__ndk1::char_traits<char>, std::__ndk1::allocator<char> > >::~ResultData()
PUBLIC 1f1a0 0 std::__ndk1::vector<std::__ndk1::basic_string<char, std::__ndk1::char_traits<char>, std::__ndk1::allocator<char> >, std::__ndk1::allocator<std::__ndk1::basic_string<char, std::__ndk1::char_traits<char>, std::__ndk1::allocator<char> > > >::~vector[abi:ne180000]()
PUBLIC 1f21c 0 geode::modifier::ModifyBase<geode::modifier::ModifyDerive<hook80<(anonymous namespace)::hook80Parent>, PlayerObject> >::apply()
PUBLIC 1f220 0 _ZN5geode15UnwrapExceptionC2IRPNS_4HookEQsr4implE18IsStringStreamableIT_EEENS_4impl5OkTagEOS5_
PUBLIC 1f374 0 std::__ndk1::__throw_bad_variant_access[abi:ne180000]()
PUBLIC 1f3a8 0 std::__ndk1::basic_stringstream<char, std::__ndk1::char_traits<char>, std::__ndk1::allocator<char> >::basic_stringstream[abi:ne180000]()
PUBLIC m 1f4d4 0 std::__ndk1::basic_stringstream<char, std::__ndk1::char_traits<char>, std::__ndk1::allocator<char> >::~basic_stringstream()
PUBLIC 1f554 0 geode::UnwrapException::~UnwrapException()
PUBLIC 1f578 0 std::__ndk1::__put_character_sequence[abi:ne180000]<char, std::__ndk1::char_traits<char> >(std::__ndk1::basic_ostream<char, std::__ndk1::char_traits<char> >, std::__ndk1::basic_ostream const*, unsigned long)
PUBLIC 1f71c 0 std::__ndk1::__pad_and_output[abi:ne180000]<char, std::__ndk1::char_traits<char> >(std::__ndk1::char_traits<char>, std::__ndk1::ostreambuf_iterator const*, std::__ndk1::ostreambuf_iterator const, std::__ndk1::ostreambuf_iterator const, std::__ndk1::ios_base&, std::__ndk1::ostreambuf_iterator)
PUBLIC 1f8f8 0 std::__ndk1::basic_stringbuf<char, std::__ndk1::char_traits<char>, std::__ndk1::allocator<char> >::str[abi:ne180000]() &&
PUBLIC 1fa70 0 std::__ndk1::basic_stringbuf<char, std::__ndk1::char_traits<char>, std::__ndk1::allocator<char> >::__init_buf_ptrs[abi:ne180000]()
PUBLIC 1fbb8 0 std::__ndk1::vector<std::__ndk1::basic_string<char, std::__ndk1::char_traits<char>, std::__ndk1::allocator<char> >, std::__ndk1::allocator<std::__ndk1::basic_string<char, std::__ndk1::char_traits<char>, std::__ndk1::allocator<char> > > >::__push_back_slow_path<std::__ndk1::basic_string<char, std::__ndk1::char_traits<char>, std::__ndk1::allocator<char> > const&>(std::__ndk1::basic_string<char, std::__ndk1::char_traits<char>, std::__ndk1::allocator<char> > const&)
PUBLIC 1fde0 0 std::__ndk1::__split_buffer<std::__ndk1::basic_string<char, std::__ndk1::char_traits<char>, std::__ndk1::allocator<char> >, std::__ndk1::allocator<std::__ndk1::basic_string<char, std::__ndk1::char_traits<char>, std::__ndk1::allocator<char> > >&>::~__split_buffer()
PUBLIC 1fe48 0 std::__ndk1::vector<std::__ndk1::basic_string<char, std::__ndk1::char_traits<char>, std::__ndk1::allocator<char> >, std::__ndk1::allocator<std::__ndk1::basic_string<char, std::__ndk1::char_traits<char>, std::__ndk1::allocator<char> > > >::__throw_length_error[abi:ne180000]() const
PUBLIC 1fe5c 0 std::__ndk1::__variant_detail::__visitation::__base::__dispatcher<(unsigned long)0>::__dispatch[abi:ne180000]<std::__ndk1::__variant_detail::__dtor<std::__ndk1::__variant_detail::__traits<geode::Hook*, std::__ndk1::basic_string<char, std::__ndk1::char_traits<char>, std::__ndk1::allocator<char> > >, (std::__ndk1::__variant_detail::_Trait)1>::__destroy[abi:ne180000]()::{lambda(auto:1&)#1}, std::__ndk1::__variant_detail::__base<(std::__ndk1::__variant_detail::__traits<geode::Hook*, std::__ndk1::basic_string<char, std::__ndk1::char_traits<char>, std::__ndk1::allocator<char> > >)1, geode::Hook, std::__ndk1::allocator<char> >&>(std::__ndk1::__variant_detail::__dtor<std::__ndk1::__variant_detail::__traits<geode::Hook*, std::__ndk1::basic_string<char, std::__ndk1::char_traits<char>, std::__ndk1::allocator<char> > >, (std::__ndk1::__variant_detail::_Trait)1>, std::__ndk1::__variant_detail::__base<(std::__ndk1::__variant_detail::__traits<geode::Hook*, std::__ndk1::basic_string<char, std::__ndk1::char_traits<char>, std::__ndk1::allocator<char> > >)1, geode::Hook, std::__ndk1::allocator<char> >&)
PUBLIC 1fe60 0 std::__ndk1::__variant_detail::__visitation::__base::__dispatcher<(unsigned long)1>::__dispatch[abi:ne180000]<std::__ndk1::__variant_detail::__dtor<std::__ndk1::__variant_detail::__traits<geode::Hook*, std::__ndk1::basic_string<char, std::__ndk1::char_traits<char>, std::__ndk1::allocator<char> > >, (std::__ndk1::__variant_detail::_Trait)1>::__destroy[abi:ne180000]()::{lambda(auto:1&)#1}, std::__ndk1::__variant_detail::__base<(std::__ndk1::__variant_detail::__traits<geode::Hook*, std::__ndk1::basic_string<char, std::__ndk1::char_traits<char>, std::__ndk1::allocator<char> > >)1, geode::Hook, std::__ndk1::allocator<char> >&>(std::__ndk1::__variant_detail::__dtor<std::__ndk1::__variant_detail::__traits<geode::Hook*, std::__ndk1::basic_string<char, std::__ndk1::char_traits<char>, std::__ndk1::allocator<char> > >, (std::__ndk1::__variant_detail::_Trait)1>, std::__ndk1::__variant_detail::__base<(std::__ndk1::__variant_detail::__traits<geode::Hook*, std::__ndk1::basic_string<char, std::__ndk1::char_traits<char>, std::__ndk1::allocator<char> > >)1, geode::Hook, std::__ndk1::allocator<char> >&)
PUBLIC 1fe74 0 std::__ndk1::__tree<std::__ndk1::__value_type<std::__ndk1::basic_string<char, std::__ndk1::char_traits<char>, std::__ndk1::allocator<char> >, std::__ndk1::shared_ptr<geode::Hook> >, std::__ndk1::__map_value_compare<std::__ndk1::basic_string<char, std::__ndk1::char_traits<char>, std::__ndk1::allocator<char> >, std::__ndk1::__value_type<std::__ndk1::basic_string<char, std::__ndk1::char_traits<char>, std::__ndk1::allocator<char> >, std::__ndk1::shared_ptr<geode::Hook> >, std::__ndk1::less<std::__ndk1::basic_string<char, std::__ndk1::char_traits<char>, std::__ndk1::allocator<char> > >, true>, std::__ndk1::allocator<std::__ndk1::__value_type<std::__ndk1::basic_string<char, std::__ndk1::char_traits<char>, std::__ndk1::allocator<char> >, std::__ndk1::shared_ptr<geode::Hook> > > >::find<std::__ndk1::basic_string<char, std::__ndk1::char_traits<char>, std::__ndk1::allocator<char> > >(std::__ndk1::basic_string<char, std::__ndk1::char_traits<char>, std::__ndk1::allocator<char> > const&)
PUBLIC 1ff94 0 std::__ndk1::__tree<std::__ndk1::__value_type<std::__ndk1::basic_string<char, std::__ndk1::char_traits<char>, std::__ndk1::allocator<char> >, std::__ndk1::shared_ptr<geode::Hook> >, std::__ndk1::__map_value_compare<std::__ndk1::basic_string<char, std::__ndk1::char_traits<char>, std::__ndk1::allocator<char> >, std::__ndk1::__value_type<std::__ndk1::basic_string<char, std::__ndk1::char_traits<char>, std::__ndk1::allocator<char> >, std::__ndk1::shared_ptr<geode::Hook> >, std::__ndk1::less<std::__ndk1::basic_string<char, std::__ndk1::char_traits<char>, std::__ndk1::allocator<char> > >, true>, std::__ndk1::allocator<std::__ndk1::__value_type<std::__ndk1::basic_string<char, std::__ndk1::char_traits<char>, std::__ndk1::allocator<char> >, std::__ndk1::shared_ptr<geode::Hook> > > >::erase(std::__ndk1::__tree_const_iterator<std::__ndk1::__value_type<std::__ndk1::basic_string<char, std::__ndk1::char_traits<char>, std::__ndk1::allocator<char> >, std::__ndk1::shared_ptr<geode::Hook> >, std::__ndk1::__tree_node<std::__ndk1::__value_type<std::__ndk1::basic_string<char, std::__ndk1::char_traits<char>, std::__ndk1::allocator<char> >, std::__ndk1::shared_ptr<geode::Hook> >, void*>*, long>)
PUBLIC 20068 0 std::__ndk1::__tree_remove[abi:ne180000]<std::__ndk1::__tree_node_base<void*>*>(std::__ndk1::__tree_node_base<void*>*, std::__ndk1::__tree_node_base<void*>*)
PUBLIC 20430 0 std::__ndk1::__tree<std::__ndk1::__value_type<std::__ndk1::basic_string<char, std::__ndk1::char_traits<char>, std::__ndk1::allocator<char> >, std::__ndk1::shared_ptr<geode::Hook> >, std::__ndk1::__map_value_compare<std::__ndk1::basic_string<char, std::__ndk1::char_traits<char>, std::__ndk1::allocator<char> >, std::__ndk1::__value_type<std::__ndk1::basic_string<char, std::__ndk1::char_traits<char>, std::__ndk1::allocator<char> >, std::__ndk1::shared_ptr<geode::Hook> >, std::__ndk1::less<std::__ndk1::basic_string<char, std::__ndk1::char_traits<char>, std::__ndk1::allocator<char> > >, true>, std::__ndk1::allocator<std::__ndk1::__value_type<std::__ndk1::basic_string<char, std::__ndk1::char_traits<char>, std::__ndk1::allocator<char> >, std::__ndk1::shared_ptr<geode::Hook> > > >::destroy(std::__ndk1::__tree_node<std::__ndk1::__value_type<std::__ndk1::basic_string<char, std::__ndk1::char_traits<char>, std::__ndk1::allocator<char> >, std::__ndk1::shared_ptr<geode::Hook> >, void*>*)
PUBLIC 204bc 0 geode::modifier::AsStaticFunction_update<hook80<(anonymous namespace)::hook80Parent>, void (hook80<(anonymous namespace)::hook80Parent>::*)(float)>::Impl<void (hook80<(anonymous namespace)::hook80Parent>::*)(float)>::function(hook80<(anonymous namespace)::hook80Parent>*, float)
PUBLIC 21464 0 geode::Hook::create<void (*)(hook80<(anonymous namespace)::hook80Parent>*, bool)>(void*, void (*)(hook80<(anonymous namespace)::hook80Parent>*, bool), std::__ndk1::basic_string<char, std::__ndk1::char_traits<char>, std::__ndk1::allocator<char> > const&, tulip::hook::TulipConvention, tulip::hook::HookMetadata const&)
PUBLIC 215e8 0 geode::modifier::AsStaticFunction_setVisible<hook80<(anonymous namespace)::hook80Parent>, void (hook80<(anonymous namespace)::hook80Parent>::*)(bool)>::Impl<void (hook80<(anonymous namespace)::hook80Parent>::*)(bool)>::function(hook80<(anonymous namespace)::hook80Parent>*, bool)
PUBLIC 21640 0 geode::modifier::AsStaticFunction_bumpPlayer<hook80<(anonymous namespace)::hook80Parent>, void (hook80<(anonymous namespace)::hook80Parent>::*)(float, int, bool, GameObject*)>::Impl<void (hook80<(anonymous namespace)::hook80Parent>::*)(float, int, bool, GameObject*)>::function(hook80<(anonymous namespace)::hook80Parent>*, float, int, bool, GameObject*)
PUBLIC 21930 0 geode::modifier::AsStaticFunction_createRobot<hook80<(anonymous namespace)::hook80Parent>, void (hook80<(anonymous namespace)::hook80Parent>::*)(int)>::Impl<void (hook80<(anonymous namespace)::hook80Parent>::*)(int)>::function(hook80<(anonymous namespace)::hook80Parent>*, int)
PUBLIC 21998 0 geode::modifier::AsStaticFunction_doReversePlayer<hook80<(anonymous namespace)::hook80Parent>, void (hook80<(anonymous namespace)::hook80Parent>::*)(bool)>::Impl<void (hook80<(anonymous namespace)::hook80Parent>::*)(bool)>::function(hook80<(anonymous namespace)::hook80Parent>*, bool)
PUBLIC 21a80 0 geode::modifier::AsStaticFunction_flipGravity<hook80<(anonymous namespace)::hook80Parent>, void (hook80<(anonymous namespace)::hook80Parent>::*)(bool, bool)>::Impl<void (hook80<(anonymous namespace)::hook80Parent>::*)(bool, bool)>::function(hook80<(anonymous namespace)::hook80Parent>*, bool, bool)
PUBLIC 21b8c 0 geode::Hook::create<void (*)(hook80<(anonymous namespace)::hook80Parent>*)>(void*, void (*)(hook80<(anonymous namespace)::hook80Parent>*), std::__ndk1::basic_string<char, std::__ndk1::char_traits<char>, std::__ndk1::allocator<char> > const&, tulip::hook::TulipConvention, tulip::hook::HookMetadata const&)
PUBLIC 21cc0 0 geode::modifier::AsStaticFunction_incrementJumps<hook80<(anonymous namespace)::hook80Parent>, void (hook80<(anonymous namespace)::hook80Parent>::*)()>::Impl<void (hook80<(anonymous namespace)::hook80Parent>::*)()>::function(hook80<(anonymous namespace)::hook80Parent>*)
PUBLIC 22164 0 geode::modifier::AsStaticFunction_init<hook80<(anonymous namespace)::hook80Parent>, bool (hook80<(anonymous namespace)::hook80Parent>::*)(int, int, GJBaseGameLayer*, cocos2d::CCLayer*, bool)>::Impl<bool (hook80<(anonymous namespace)::hook80Parent>::*)(int, int, GJBaseGameLayer*, cocos2d::CCLayer*, bool)>::function(hook80<(anonymous namespace)::hook80Parent>*, int, int, GJBaseGameLayer*, cocos2d::CCLayer*, bool)
PUBLIC 2271c 0 geode::modifier::AsStaticFunction_playerDestroyed<hook80<(anonymous namespace)::hook80Parent>, void (hook80<(anonymous namespace)::hook80Parent>::*)(bool)>::Impl<void (hook80<(anonymous namespace)::hook80Parent>::*)(bool)>::function(hook80<(anonymous namespace)::hook80Parent>*, bool)
PUBLIC 229ac 0 geode::modifier::AsStaticFunction_startDashing<hook80<(anonymous namespace)::hook80Parent>, void (hook80<(anonymous namespace)::hook80Parent>::*)(DashRingObject*)>::Impl<void (hook80<(anonymous namespace)::hook80Parent>::*)(DashRingObject*)>::function(hook80<(anonymous namespace)::hook80Parent>*, DashRingObject*)
PUBLIC 22c28 0 geode::modifier::AsStaticFunction_stopDashing<hook80<(anonymous namespace)::hook80Parent>, void (hook80<(anonymous namespace)::hook80Parent>::*)()>::Impl<void (hook80<(anonymous namespace)::hook80Parent>::*)()>::function(hook80<(anonymous namespace)::hook80Parent>*)
PUBLIC 22ed0 0 geode::addresser::Addresser::addressOfVirtual<void, PlayerObject, float>(void (PlayerObject::*)(float))
PUBLIC 22f98 0 PlayerObject::PlayerObject(geode::ZeroConstructorType)
PUBLIC 23250 0 gd::map<int, bool>::~map()
PUBLIC 2326c 0 geode::stl::unordered_set<int, geode::stl::hash<int>, geode::stl::equal_to<int>, std::__ndk1::allocator<int> >::~unordered_set()
PUBLIC 232e4 0 geode::stl::unordered_map<int, GameObject*, geode::stl::hash<int>, geode::stl::equal_to<int>, std::__ndk1::allocator<std::__ndk1::pair<int const, GameObject*> > >::~unordered_map()
PUBLIC 2335c 0 geode::stl::unordered_map<int, GJPointDouble, geode::stl::hash<int>, geode::stl::equal_to<int>, std::__ndk1::allocator<std::__ndk1::pair<int const, GJPointDouble> > >::~unordered_map()
PUBLIC 233d4 0 GameObject::~GameObject()
PUBLIC 23418 0 gd::map<int, bool>::erase(geode::stl::_rb_tree_node<std::__ndk1::pair<int, bool> >*)
PUBLIC 2346c 0 std::__ndk1::shared_ptr<tulip::hook::CallingConvention>::~shared_ptr[abi:ne180000]()
PUBLIC 234bc 0 tulip::hook::HandlerMetadata::~HandlerMetadata()
PUBLIC 23520 0 geode::modifier::FieldIntermediate<hook80<(anonymous namespace)::hook80Parent>, PlayerObject>::self()
PUBLIC 23b84 0 std::__ndk1::operator==[abi:ne180000]<char, std::__ndk1::char_traits<char>, std::__ndk1::allocator<char> >(std::__ndk1::basic_string<char, std::__ndk1::char_traits<char>, std::__ndk1::allocator<char> > const&, std::__ndk1::basic_string const*)
PUBLIC 23c0c 0 geode::modifier::FieldIntermediate<hook80<(anonymous namespace)::hook80Parent>, PlayerObject>::fieldDestructor(void*)
PUBLIC 23c10 0 std::__ndk1::vector<void*, std::__ndk1::allocator<void*> >::__throw_length_error[abi:ne180000]() const
PUBLIC 23c24 0 std::__ndk1::vector<std::__ndk1::function<void (void*)>, std::__ndk1::allocator<std::__ndk1::function<void (void*)> > >::__throw_length_error[abi:ne180000]() const
PUBLIC 23c38 0 std::__ndk1::vector<void*, std::__ndk1::allocator<void*> >::__throw_out_of_range[abi:ne180000]() const
PUBLIC 23c44 0 std::__ndk1::__throw_out_of_range[abi:ne180000](char const*)
PUBLIC 23c94 0 std::out_of_range::out_of_range[abi:ne180000](char const*)
PUBLIC 23cc4 0 std::__ndk1::vector<std::__ndk1::function<void (void*)>, std::__ndk1::allocator<std::__ndk1::function<void (void*)> > >::__throw_out_of_range[abi:ne180000]() const
PUBLIC 23cd0 0 std::__ndk1::__function::__base<void (void*)>::~__base()
PUBLIC 23cd4 0 std::__ndk1::__function::__func<void (*)(void*), std::__ndk1::allocator<void (*)(void*)>, void (void*)>::~__func()
PUBLIC 23cd8 0 std::__ndk1::__function::__func<void (*)(void*), std::__ndk1::allocator<void (*)(void*)>, void (void*)>::__clone() const
PUBLIC 23d10 0 std::__ndk1::__function::__func<void (*)(void*), std::__ndk1::allocator<void (*)(void*)>, void (void*)>::__clone(std::__ndk1::__function::__base<void (void*)>*) const
PUBLIC 23d28 0 std::__ndk1::__function::__func<void (*)(void*), std::__ndk1::allocator<void (*)(void*)>, void (void*)>::destroy()
PUBLIC 23d2c 0 std::__ndk1::__function::__func<void (*)(void*), std::__ndk1::allocator<void (*)(void*)>, void (void*)>::destroy_deallocate()
PUBLIC 23d30 0 std::__ndk1::__function::__func<void (*)(void*), std::__ndk1::allocator<void (*)(void*)>, void (void*)>::operator()(void*&&)
PUBLIC 23d40 0 std::__ndk1::__function::__func<void (*)(void*), std::__ndk1::allocator<void (*)(void*)>, void (void*)>::target(std::type_info const&) const
PUBLIC 23d5c 0 std::__ndk1::__function::__func<void (*)(void*), std::__ndk1::allocator<void (*)(void*)>, void (void*)>::target_type() const
PUBLIC 23d68 0 std::__ndk1::__tree<std::__ndk1::__value_type<std::__ndk1::basic_string<char, std::__ndk1::char_traits<char>, std::__ndk1::allocator<char> >, std::__ndk1::shared_ptr<geode::Hook> >, std::__ndk1::__map_value_compare<std::__ndk1::basic_string<char, std::__ndk1::char_traits<char>, std::__ndk1::allocator<char> >, std::__ndk1::__value_type<std::__ndk1::basic_string<char, std::__ndk1::char_traits<char>, std::__ndk1::allocator<char> >, std::__ndk1::shared_ptr<geode::Hook> >, std::__ndk1::less<std::__ndk1::basic_string<char, std::__ndk1::char_traits<char>, std::__ndk1::allocator<char> > >, true>, std::__ndk1::allocator<std::__ndk1::__value_type<std::__ndk1::basic_string<char, std::__ndk1::char_traits<char>, std::__ndk1::allocator<char> >, std::__ndk1::shared_ptr<geode::Hook> > > >::__emplace_unique_key_args<std::__ndk1::basic_string<char, std::__ndk1::char_traits<char>, std::__ndk1::allocator<char> >, std::__ndk1::piecewise_construct_t const&, std::__ndk1::tuple<std::__ndk1::basic_string<char, std::__ndk1::char_traits<char>, std::__ndk1::allocator<char> >&&>, std::__ndk1::tuple<> >(std::__ndk1::basic_string<char, std::__ndk1::char_traits<char>, std::__ndk1::allocator<char> > const&, std::__ndk1::piecewise_construct_t const&, std::__ndk1::tuple<std::__ndk1::basic_string<char, std::__ndk1::char_traits<char>, std::__ndk1::allocator<char> >&&>, std::__ndk1::tuple<>)
PUBLIC 23ee0 0 std::__ndk1::__tree_balance_after_insert[abi:ne180000]<std::__ndk1::__tree_node_base<void*>*>(std::__ndk1::__tree_node_base<void*>*, std::__ndk1::__tree_node_base<void*>*)
PUBLIC 24090 0 geode::addresser::Addresser::addressOfVirtual<void, PlayerObject, bool>(void (PlayerObject::*)(bool))
PUBLIC 24158 0 __cxx_global_var_init
PUBLIC 245d8 0 geode::modifier::ModifyBase<geode::modifier::ModifyDerive<MyPauseLayer, PauseLayer> >::~ModifyBase()
PUBLIC 245f4 0 geode::modifier::ModifyDerive<MyPauseLayer, PauseLayer>::apply()
PUBLIC 24924 0 geode::modifier::ModifyBase<geode::modifier::ModifyDerive<MyPauseLayer, PauseLayer> >::apply()
PUBLIC 24928 0 geode::modifier::AsStaticFunction_customSetup<MyPauseLayer, void (MyPauseLayer::*)()>::Impl<void (MyPauseLayer::*)()>::function(MyPauseLayer*)
PUBLIC 24ba4 0 geode::addresser::Addresser::addressOfVirtual<void, PauseLayer, >(void (PauseLayer::*)())
PUBLIC 24c4c 0 PauseLayer::PauseLayer(geode::ZeroConstructorType)
PUBLIC 24cd8 0 MyPauseLayer::openModSettings(cocos2d::CCObject*)
PUBLIC m 24d14 0 geodeImplicitEntry
PUBLIC 24d50 0 std::__ndk1::unordered_map<void*, bool, std::__ndk1::hash<void*>, std::__ndk1::equal_to<void*>, std::__ndk1::allocator<std::__ndk1::pair<void* const, bool> > >::~unordered_map[abi:ne180000]()
PUBLIC 24d9c 0 wrapFunction(unsigned long, tulip::hook::WrapperMetadata const&)
PUBLIC 24ed0 0 geode::impl::ResultData<void*, std::__ndk1::basic_string<char, std::__ndk1::char_traits<char>, std::__ndk1::allocator<char> > >::unwrapErr() &
PUBLIC 24f48 0 geode::impl::ResultData<void*, std::__ndk1::basic_string<char, std::__ndk1::char_traits<char>, std::__ndk1::allocator<char> > >::~ResultData()
PUBLIC 24fbc 0 tulip::hook::WrapperMetadata::~WrapperMetadata()
PUBLIC 25020 0 cocos2d::CCObject::~CCObject()
PUBLIC 25044 0 cocos2d::CCNode::~CCNode()
PUBLIC 25068 0 cocos2d::CCNodeRGBA::~CCNodeRGBA()
PUBLIC 2508c 0 cocos2d::CCSprite::~CCSprite()
PUBLIC 250b0 0 cocos2d::CCNodeRGBA::~CCNodeRGBA()
PUBLIC 25340 0 GameObject::update(float)
PUBLIC 25344 0 GameObject::firstSetup()
PUBLIC 25348 0 GameObject::setupCustomSprites(gd::string)
PUBLIC 254ac 0 tulip::hook::AbstractFunction::from<void, GameObject*, gd::string>(void (*)(GameObject*, gd::string))
PUBLIC 25550 0 GameObject::triggerObject(GJBaseGameLayer*, int, gd::vector<int> const*)
PUBLIC 25554 0 GameObject::customObjectSetup(gd::vector<gd::string>&, gd::vector<void*>&)
PUBLIC 25558 0 GameObject::particleWasActivated()
PUBLIC 2555c 0 GameObject::triggerActivated(float)
PUBLIC 25560 0 GameObject::animationTriggered()
PUBLIC 25564 0 GameObject::activatedByPlayer(PlayerObject*)
PUBLIC 25568 0 GameObject::hasBeenActivatedByPlayer(PlayerObject*)
PUBLIC 25570 0 GameObject::hasBeenActivated()
PUBLIC 25578 0 GameObject::canAllowMultiActivate()
PUBLIC 25580 0 GameObject::blendModeChanged()
PUBLIC 25584 0 GameObject::updateMainParticleOpacity(unsigned char)
PUBLIC 25588 0 GameObject::updateSecondaryParticleOpacity(unsigned char)
PUBLIC 2558c 0 GameObject::canReverse()
PUBLIC 25594 0 GameObject::isSpecialSpawnObject()
PUBLIC 2559c 0 GameObject::canBeOrdered()
PUBLIC 255a4 0 GameObject::getObjectLabel()
PUBLIC 255ac 0 GameObject::setObjectLabel(cocos2d::CCLabelBMFont*)
PUBLIC 255b0 0 GameObject::shouldDrawEditorHitbox()
PUBLIC 255b8 0 GameObject::getHasSyncedAnimation()
PUBLIC 255c0 0 GameObject::getHasRotateAction()
PUBLIC 255c8 0 GameObject::canMultiActivate(bool)
PUBLIC 255d0 0 GameObject::updateTextKerning(int)
PUBLIC 255d4 0 GameObject::getTextKerning()
PUBLIC 255dc 0 cocos2d::CCSprite::~CCSprite()
PUBLIC 25874 0 FMODAudioEngine::playEffect(gd::string)
PUBLIC 259ec 0 tulip::hook::AbstractFunction::from<void, FMODAudioEngine*, gd::string>(void (*)(FMODAudioEngine*, gd::string))
PUBLIC 25a90 0 cocos2d::CCCopying::copyWithZone(cocos2d::CCZone*)
PUBLIC 25a98 0 cocos2d::CCObject::update(float)
PUBLIC 25a9c 0 cocos2d::CCNodeRGBA::setOpacityModifyRGB(bool)
PUBLIC 25aa0 0 cocos2d::CCNodeRGBA::isOpacityModifyRGB()
PUBLIC 25aa8 0 {virtual override thunk({offset(-320)}, cocos2d::CCNodeRGBA::setOpacityModifyRGB(bool))}
PUBLIC 25aac 0 {virtual override thunk({offset(-320)}, cocos2d::CCNodeRGBA::isOpacityModifyRGB())}
PUBLIC 25ab4 0 cocos2d::CCSprite::setBlendFunc(cocos2d::_ccBlendFunc)
PUBLIC 25ac0 0 cocos2d::CCSprite::getBlendFunc()
PUBLIC 25acc 0 cocos2d::CCSprite::isDirty()
PUBLIC 25ad4 0 cocos2d::CCSprite::setDirty(bool)
PUBLIC 25adc 0 {virtual override thunk({offset(-344)}, cocos2d::CCSprite::setBlendFunc(cocos2d::_ccBlendFunc))}
PUBLIC 25ae4 0 {virtual override thunk({offset(-344)}, cocos2d::CCSprite::getBlendFunc())}
PUBLIC 25aec 0 GameObject::~GameObject()
PUBLIC 25b38 0 cocos2d::CCNode::~CCNode()
PUBLIC 25db0 0 cocos2d::CCObject::~CCObject()
PUBLIC 2627c 0 _ZN5geode15UnwrapExceptionC2IRPvQsr4implE18IsStringStreamableIT_EEENS_4impl5OkTagEOS4_
PUBLIC 263d0 0 _ZN5geode15UnwrapExceptionC2IRNSt6__ndk112basic_stringIcNS2_11char_traitsIcEENS2_9allocatorIcEEEEQsr4implE18IsStringStreamableIT_EEENS_4impl6ErrTagEOSA_
PUBLIC 26538 0 std::__ndk1::__variant_detail::__visitation::__base::__dispatcher<(unsigned long)0>::__dispatch[abi:ne180000]<std::__ndk1::__variant_detail::__dtor<std::__ndk1::__variant_detail::__traits<void*, std::__ndk1::basic_string<char, std::__ndk1::char_traits<char>, std::__ndk1::allocator<char> > >, (std::__ndk1::__variant_detail::_Trait)1>::__destroy[abi:ne180000]()::{lambda(auto:1&)#1}, std::__ndk1::__variant_detail::__base<(std::__ndk1::__variant_detail::__traits<void*, std::__ndk1::basic_string<char, std::__ndk1::char_traits<char>, std::__ndk1::allocator<char> > >)1, std::__ndk1::__variant_detail::__traits, std::__ndk1::allocator<char> >&>(std::__ndk1::__variant_detail::__dtor<std::__ndk1::__variant_detail::__traits<void*, std::__ndk1::basic_string<char, std::__ndk1::char_traits<char>, std::__ndk1::allocator<char> > >, (std::__ndk1::__variant_detail::_Trait)1>, std::__ndk1::__variant_detail::__base<(std::__ndk1::__variant_detail::__traits<void*, std::__ndk1::basic_string<char, std::__ndk1::char_traits<char>, std::__ndk1::allocator<char> > >)1, std::__ndk1::__variant_detail::__traits, std::__ndk1::allocator<char> >&)
PUBLIC 2653c 0 std::__ndk1::__variant_detail::__visitation::__base::__dispatcher<(unsigned long)1>::__dispatch[abi:ne180000]<std::__ndk1::__variant_detail::__dtor<std::__ndk1::__variant_detail::__traits<void*, std::__ndk1::basic_string<char, std::__ndk1::char_traits<char>, std::__ndk1::allocator<char> > >, (std::__ndk1::__variant_detail::_Trait)1>::__destroy[abi:ne180000]()::{lambda(auto:1&)#1}, std::__ndk1::__variant_detail::__base<(std::__ndk1::__variant_detail::__traits<void*, std::__ndk1::basic_string<char, std::__ndk1::char_traits<char>, std::__ndk1::allocator<char> > >)1, std::__ndk1::__variant_detail::__traits, std::__ndk1::allocator<char> >&>(std::__ndk1::__variant_detail::__dtor<std::__ndk1::__variant_detail::__traits<void*, std::__ndk1::basic_string<char, std::__ndk1::char_traits<char>, std::__ndk1::allocator<char> > >, (std::__ndk1::__variant_detail::_Trait)1>, std::__ndk1::__variant_detail::__base<(std::__ndk1::__variant_detail::__traits<void*, std::__ndk1::basic_string<char, std::__ndk1::char_traits<char>, std::__ndk1::allocator<char> > >)1, std::__ndk1::__variant_detail::__traits, std::__ndk1::allocator<char> >&)
PUBLIC 26550 0 std::__ndk1::__hash_table<std::__ndk1::__hash_value_type<void*, bool>, std::__ndk1::__unordered_map_hasher<void*, std::__ndk1::__hash_value_type<void*, bool>, std::__ndk1::hash<void*>, std::__ndk1::equal_to<void*>, true>, std::__ndk1::__unordered_map_equal<void*, std::__ndk1::__hash_value_type<void*, bool>, std::__ndk1::equal_to<void*>, std::__ndk1::hash<void*>, true>, std::__ndk1::allocator<std::__ndk1::__hash_value_type<void*, bool> > >::__emplace_unique_key_args<void*, std::__ndk1::piecewise_construct_t const&, std::__ndk1::tuple<void* const&>, std::__ndk1::tuple<> >(void* const&, std::__ndk1::piecewise_construct_t const&, std::__ndk1::tuple<void* const&>, std::__ndk1::tuple<>)
PUBLIC 26a30 0 __udivti3
PUBLIC 26a3c 0 __udivmodti4
PUBLIC m 26c88 0 __eqtf2
PUBLIC 26d28 0 __unordtf2
PUBLIC 26d60 0 fmt::v11::detail::write_loc(fmt::v11::basic_appender<char>, fmt::v11::loc_value, fmt::v11::format_specs const&, fmt::v11::detail::locale_ref)
PUBLIC 26ff4 0 fmt::v11::format_facet<std::__ndk1::locale>::~format_facet()
PUBLIC 27070 0 fmt::v11::report_error(char const*)
PUBLIC 270c0 0 fmt::v11::format_error::runtime_error(char const*)
PUBLIC 270ec 0 fmt::v11::format_facet<std::__ndk1::locale>::do_put(fmt::v11::basic_appender<char>, fmt::v11::loc_value, fmt::v11::format_specs const&) const
PUBLIC 278ac 0 fmt::v11::detail::loc_writer<char>::~loc_writer()
PUBLIC 27910 0 fmt::v11::detail::vformat_to<char>(fmt::v11::detail::buffer<char>&, fmt::v11::basic_string_view<char>, fmt::v11::detail::vformat_args<char>::type, fmt::v11::detail::locale_ref)
PUBLIC 27e80 0 fmt::v11::detail::is_printable(unsigned int)
PUBLIC 280a8 0 fmt::v11::detail::dragonbox::to_decimal<float>(float)
PUBLIC 28384 0 fmt::v11::detail::dragonbox::to_decimal<double>(double)
PUBLIC 288c0 0 fmt::v11::basic_memory_buffer<char, (unsigned long)500, std::__ndk1::allocator<char> >::grow(fmt::v11::detail::buffer<char>&, unsigned long)
PUBLIC 28938 0 fmt::v11::format_facet<std::__ndk1::locale>::~format_facet()
PUBLIC 289c4 0 fmt::v11::format_error::~format_error()
PUBLIC 289e8 0 fmt::v11::detail::copy_noinline<char, char const*, fmt::v11::basic_appender<char> >(char const*, char const*, fmt::v11::basic_appender<char>)
PUBLIC 28b38 0 fmt::v11::detail::default_arg_formatter<char>::operator()<bool>(bool)
PUBLIC 28ba0 0 fmt::v11::detail::default_arg_formatter<char>::operator()<char>(char)
PUBLIC 28c30 0 fmt::v11::detail::default_arg_formatter<char>::operator()<float>(float)
PUBLIC 28d1c 0 fmt::v11::detail::default_arg_formatter<char>::operator()<double>(double)
PUBLIC 28e08 0 fmt::v11::detail::default_arg_formatter<char>::operator()<char const*>(char const*)
PUBLIC 28e50 0 fmt::v11::detail::default_arg_formatter<char>::operator()<void const*>(void const*)
PUBLIC 28ee8 0 _ZN3fmt3v116detail5writeIcNS0_14basic_appenderIcEEiTnNSt6__ndk19enable_ifIXaaaasr11is_integralIT1_EE5valuentsr3std7is_sameIS7_bEE5valuentsr3std7is_sameIS7_T_EE5valueEiE4typeELi0EEET0_SB_S7_
PUBLIC 29148 0 fmt::v11::detail::copy_noinline<char, char*, fmt::v11::basic_appender<char> >(char*, char*, fmt::v11::basic_appender<char>)
PUBLIC 29298 0 _ZN3fmt3v116detail5writeIcNS0_14basic_appenderIcEEjTnNSt6__ndk19enable_ifIXaaaasr11is_integralIT1_EE5valuentsr3std7is_sameIS7_bEE5valuentsr3std7is_sameIS7_T_EE5valueEiE4typeELi0EEET0_SB_S7_
PUBLIC 29478 0 _ZN3fmt3v116detail5writeIcNS0_14basic_appenderIcEExTnNSt6__ndk19enable_ifIXaaaasr11is_integralIT1_EE5valuentsr3std7is_sameIS7_bEE5valuentsr3std7is_sameIS7_T_EE5valueEiE4typeELi0EEET0_SB_S7_
PUBLIC 296fc 0 _ZN3fmt3v116detail5writeIcNS0_14basic_appenderIcEEyTnNSt6__ndk19enable_ifIXaaaasr11is_integralIT1_EE5valuentsr3std7is_sameIS7_bEE5valuentsr3std7is_sameIS7_T_EE5valueEiE4typeELi0EEET0_SB_S7_
PUBLIC 29904 0 _ZN3fmt3v116detail5writeIcNS0_14basic_appenderIcEEnTnNSt6__ndk19enable_ifIXaaaasr11is_integralIT1_EE5valuentsr3std7is_sameIS7_bEE5valuentsr3std7is_sameIS7_T_EE5valueEiE4typeELi0EEET0_SB_S7_
PUBLIC 29c64 0 _ZN3fmt3v116detail5writeIcNS0_14basic_appenderIcEEoTnNSt6__ndk19enable_ifIXaaaasr11is_integralIT1_EE5valuentsr3std7is_sameIS7_bEE5valuentsr3std7is_sameIS7_T_EE5valueEiE4typeELi0EEET0_SB_S7_
PUBLIC 29f78 0 _ZN3fmt3v116detail5writeIcNS0_14basic_appenderIcEEbTnNSt6__ndk19enable_ifIXsr3std7is_sameIT1_bEE5valueEiE4typeELi0EEET0_SA_S7_RKNS0_12format_specsENS1_10locale_refE
PUBLIC 2a208 0 fmt::v11::detail::write_int_noinline<char, fmt::v11::basic_appender<char>, unsigned int>(fmt::v11::basic_appender<char>, fmt::v11::detail::write_int_arg<unsigned int>, fmt::v11::format_specs const&, fmt::v11::detail::locale_ref)
PUBLIC 2afe4 0 fmt::v11::detail::fill<char, fmt::v11::basic_appender<char> >(fmt::v11::basic_appender<char>, unsigned long, fmt::v11::detail::fill_t const&)
PUBLIC 2b1b4 0 fmt::v11::detail::write_padded<char, (fmt::v11::align::type)1, fmt::v11::basic_appender<char>, fmt::v11::detail::write_char<char, fmt::v11::basic_appender<char> >(fmt::v11::basic_appender<char>, char, fmt::v11::format_specs const&)::{lambda(fmt::v11::basic_appender<char>&)#1}>(fmt::v11::basic_appender<char>, fmt::v11::format_specs const&, unsigned long, unsigned long, fmt::v11::detail::write_char<char, fmt::v11::basic_appender<char> >(fmt::v11::basic_appender<char>, char, fmt::v11::format_specs const&)::{lambda(fmt::v11::basic_appender<char>&)#1})
PUBLIC 2b3f0 0 fmt::v11::detail::write_escaped_cp<fmt::v11::basic_appender<char>, char>(fmt::v11::basic_appender<char>, fmt::v11::detail::find_escape_result<char> const&)
PUBLIC 2b6fc 0 fmt::v11::detail::write_codepoint<(unsigned long)2, char, fmt::v11::basic_appender<char> >(fmt::v11::basic_appender<char>, char, unsigned int)
PUBLIC 2b874 0 fmt::v11::detail::write_codepoint<(unsigned long)8, char, fmt::v11::basic_appender<char> >(fmt::v11::basic_appender<char>, char, unsigned int)
PUBLIC 2b9ec 0 fmt::v11::detail::write_padded<char, (fmt::v11::align::type)1, fmt::v11::basic_appender<char>, fmt::v11::detail::write_nonfinite<char, fmt::v11::basic_appender<char> >(fmt::v11::basic_appender<char>, bool, fmt::v11::format_specs, fmt::v11::sign::type)::{lambda(fmt::v11::basic_appender<char>&)#1}>(fmt::v11::basic_appender<char>, fmt::v11::format_specs const&, unsigned long, unsigned long, fmt::v11::detail::write_nonfinite<char, fmt::v11::basic_appender<char> >(fmt::v11::basic_appender<char>, bool, fmt::v11::format_specs, fmt::v11::sign::type)::{lambda(fmt::v11::basic_appender<char>&)#1})
PUBLIC 2bc2c 0 fmt::v11::detail::do_write_float<char, fmt::v11::basic_appender<char>, fmt::v11::detail::dragonbox::decimal_fp<float>, fmt::v11::detail::digit_grouping<char> >(fmt::v11::basic_appender<char>, fmt::v11::detail::dragonbox::decimal_fp<float> const&, fmt::v11::format_specs const&, fmt::v11::detail::float_specs, fmt::v11::detail::locale_ref)
PUBLIC 2c8a0 0 fmt::v11::detail::do_write_float<char, fmt::v11::basic_appender<char>, fmt::v11::detail::dragonbox::decimal_fp<float>, fmt::v11::detail::digit_grouping<char> >(fmt::v11::basic_appender<char>, fmt::v11::detail::dragonbox::decimal_fp<float> const&, fmt::v11::format_specs const&, fmt::v11::detail::float_specs, fmt::v11::detail::locale_ref)::{lambda(fmt::v11::basic_appender<char>(fmt::v11::basic_appender<char>))#1}::operator() const
PUBLIC 2c9f4 0 fmt::v11::detail::digit_grouping<char>::digit_grouping(fmt::v11::detail::locale_ref, bool)
PUBLIC 2cc60 0 fmt::v11::detail::digit_grouping<char>::~digit_grouping()
PUBLIC 2cca4 0 fmt::v11::detail::write_exponent<char, fmt::v11::basic_appender<char> >(int, fmt::v11::basic_appender<char>)
PUBLIC 2ce74 0 _ZN3fmt3v116detail17write_significandIcjTnNSt6__ndk19enable_ifIXsr3std11is_integralIT0_EE5valueEiE4typeELi0EEEPT_S9_S5_iiS8_
PUBLIC 2cff0 0 fmt::v11::detail::digit_grouping<char>::apply<fmt::v11::basic_appender<char>, char>(fmt::v11::basic_appender<char>, fmt::v11::basic_string_view<char>) const
PUBLIC 2d3a8 0 fmt::v11::basic_memory_buffer<int, (unsigned long)500, std::__ndk1::allocator<int> >::grow(fmt::v11::detail::buffer<int>&, unsigned long)
PUBLIC 2d448 0 fmt::v11::detail::do_write_float<char, fmt::v11::basic_appender<char>, fmt::v11::detail::dragonbox::decimal_fp<double>, fmt::v11::detail::digit_grouping<char> >(fmt::v11::basic_appender<char>, fmt::v11::detail::dragonbox::decimal_fp<double> const&, fmt::v11::format_specs const&, fmt::v11::detail::float_specs, fmt::v11::detail::locale_ref)
PUBLIC 2e0fc 0 fmt::v11::detail::do_write_float<char, fmt::v11::basic_appender<char>, fmt::v11::detail::dragonbox::decimal_fp<double>, fmt::v11::detail::digit_grouping<char> >(fmt::v11::basic_appender<char>, fmt::v11::detail::dragonbox::decimal_fp<double> const&, fmt::v11::format_specs const&, fmt::v11::detail::float_specs, fmt::v11::detail::locale_ref)::{lambda(fmt::v11::basic_appender<char>(fmt::v11::basic_appender<char>))#1}::operator() const
PUBLIC 2e254 0 _ZN3fmt3v116detail17write_significandIcmTnNSt6__ndk19enable_ifIXsr3std11is_integralIT0_EE5valueEiE4typeELi0EEEPT_S9_S5_iiS8_
PUBLIC 2e3e4 0 fmt::v11::detail::write_float<char, fmt::v11::basic_appender<char>, long double>(fmt::v11::basic_appender<char>, long double, fmt::v11::format_specs, fmt::v11::detail::locale_ref)
PUBLIC 2eee0 0 fmt::v11::detail::write_padded<char, (fmt::v11::align::type)2, fmt::v11::basic_appender<char>, fmt::v11::detail::write_bytes<char, (fmt::v11::align::type)2, fmt::v11::basic_appender<char> >(fmt::v11::basic_appender<char>, fmt::v11::basic_string_view<char>, fmt::v11::format_specs const&)::{lambda(fmt::v11::basic_appender<char>&)#1}>(fmt::v11::basic_appender<char>, fmt::v11::format_specs const&, unsigned long, unsigned long, fmt::v11::detail::write_bytes<char, (fmt::v11::align::type)2, fmt::v11::basic_appender<char> >(fmt::v11::basic_appender<char>, fmt::v11::basic_string_view<char>, fmt::v11::format_specs const&)::{lambda(fmt::v11::basic_appender<char>&)#1})
PUBLIC 2f0bc 0 fmt::v11::detail::format_dragon(fmt::v11::detail::basic_fp<unsigned __int128>, unsigned int, int, fmt::v11::detail::buffer<char>&, int&)
PUBLIC 304ec 0 fmt::v11::detail::bigint::operator<<=(int)
PUBLIC 30610 0 fmt::v11::detail::bigint::assign_pow10(int)
PUBLIC 30d6c 0 fmt::v11::detail::bigint::divmod_assign(fmt::v11::detail::bigint const&)
PUBLIC 3108c 0 fmt::v11::basic_memory_buffer<unsigned int, (unsigned long)32, std::__ndk1::allocator<unsigned int> >::grow(fmt::v11::detail::buffer<unsigned int>&, unsigned long)
PUBLIC 3112c 0 fmt::v11::detail::do_write_float<char, fmt::v11::basic_appender<char>, fmt::v11::detail::big_decimal_fp, fmt::v11::detail::digit_grouping<char> >(fmt::v11::basic_appender<char>, fmt::v11::detail::big_decimal_fp const&, fmt::v11::format_specs const&, fmt::v11::detail::float_specs, fmt::v11::detail::locale_ref)
PUBLIC 31fdc 0 fmt::v11::detail::do_write_float<char, fmt::v11::basic_appender<char>, fmt::v11::detail::big_decimal_fp, fmt::v11::detail::digit_grouping<char> >(fmt::v11::basic_appender<char>, fmt::v11::detail::big_decimal_fp const&, fmt::v11::format_specs const&, fmt::v11::detail::float_specs, fmt::v11::detail::locale_ref)::{lambda(fmt::v11::basic_appender<char>(fmt::v11::basic_appender<char>))#1}::operator() const
PUBLIC 3213c 0 fmt::v11::detail::write_padded<char, (fmt::v11::align::type)2, fmt::v11::basic_appender<char>, fmt::v11::detail::write_ptr<char, fmt::v11::basic_appender<char>, unsigned long>(fmt::v11::basic_appender<char>, unsigned long, fmt::v11::format_specs const*)::{lambda(fmt::v11::basic_appender<char>&)#1}>(fmt::v11::basic_appender<char>, fmt::v11::format_specs const&, unsigned long, unsigned long, fmt::v11::detail::write_ptr<char, fmt::v11::basic_appender<char>, unsigned long>(fmt::v11::basic_appender<char>, unsigned long, fmt::v11::format_specs const*)::{lambda(fmt::v11::basic_appender<char>&)#1})
PUBLIC 32350 0 fmt::v11::detail::parse_replacement_field<char, fmt::v11::detail::vformat_to<char>(fmt::v11::detail::buffer<char>&, fmt::v11::basic_string_view<char>, fmt::v11::detail::vformat_args<char>::type, fmt::v11::detail::locale_ref)::format_handler&>(char const*, char const*, fmt::v11::detail::vformat_to<char>(fmt::v11::detail::buffer<char>&, fmt::v11::basic_string_view<char>, fmt::v11::detail::vformat_args<char>::type, fmt::v11::detail::locale_ref)::format_handler&)
PUBLIC 33fec 0 fmt::v11::detail::parse_dynamic_spec<char>(char const*, char const*, int&, fmt::v11::detail::arg_ref<char>&, fmt::v11::basic_format_parse_context<char>&)
PUBLIC 3427c 0 fmt::v11::basic_format_args<fmt::v11::context>::get<char>(fmt::v11::basic_string_view<char>) const
PUBLIC 343d4 0 fmt::v11::detail::write_int_noinline<char, fmt::v11::basic_appender<char>, unsigned long>(fmt::v11::basic_appender<char>, fmt::v11::detail::write_int_arg<unsigned long>, fmt::v11::format_specs const&, fmt::v11::detail::locale_ref)
PUBLIC 35228 0 fmt::v11::detail::write_int_noinline<char, fmt::v11::basic_appender<char>, unsigned __int128>(fmt::v11::basic_appender<char>, fmt::v11::detail::write_int_arg<unsigned __int128>, fmt::v11::format_specs const&, fmt::v11::detail::locale_ref)
PUBLIC 36290 0 _ZN3fmt3v116detail15format_hexfloatIdTnNSt6__ndk19enable_ifIXntsr16is_double_doubleIT_EE5valueEiE4typeELi0EEEvS5_NS0_12format_specsERNS1_6bufferIcEE
PUBLIC 367b0 0 fmt::v11::detail::format_float<double>(double, int, fmt::v11::detail::float_specs, fmt::v11::detail::buffer<char>&)
PUBLIC 37150 0 fmt::v11::detail::write<char, fmt::v11::basic_appender<char> >(fmt::v11::basic_appender<char>, fmt::v11::basic_string_view<char>, fmt::v11::format_specs const&)
PUBLIC 384bc 0 fmt::v11::detail::for_each_codepoint<fmt::v11::detail::compute_width(fmt::v11::basic_string_view<char>)::count_code_points>(fmt::v11::basic_string_view<char>, fmt::v11::detail::compute_width(fmt::v11::basic_string_view<char>)::count_code_points)::{lambda(char const*, char const*)#1}::operator()(char const*, char const*) const
PUBLIC 38674 0 fmt::v11::detail::write_int<fmt::v11::basic_appender<char>, unsigned long, char>(fmt::v11::basic_appender<char>, unsigned long, unsigned int, fmt::v11::format_specs const&, fmt::v11::detail::digit_grouping<char> const&)
PUBLIC 38bf0 0 fmt::v11::detail::write_int<fmt::v11::basic_appender<char>, unsigned __int128, char>(fmt::v11::basic_appender<char>, unsigned __int128, unsigned int, fmt::v11::format_specs const&, fmt::v11::detail::digit_grouping<char> const&)
PUBLIC 3926c 0 __CortexA53843419_21000
PUBLIC 39280 0 <.plt ELF section in saritahhh.sonicrobotmod.android64.so>
STACK CFI INIT 18540 10 .cfa: sp 0 +
STACK CFI INIT 18550 8 .cfa: sp 0 +
STACK CFI INIT 18558 8 .cfa: sp 0 +
STACK CFI INIT 18560 14 .cfa: sp 0 +
STACK CFI INIT 18574 1c .cfa: sp 0 +
STACK CFI INIT 18590 10 .cfa: sp 0 +
STACK CFI INIT 185a0 30 .cfa: sp 0 +
STACK CFI INIT 185d0 98 .cfa: sp 0 +
STACK CFI INIT 18668 59c .cfa: sp 0 +
STACK CFI INIT 18c04 8c .cfa: sp 0 +
STACK CFI INIT 18c90 30 .cfa: sp 0 +
STACK CFI INIT 18e50 130 .cfa: sp 0 +
STACK CFI 18e54 .cfa: sp 80 +
STACK CFI 18e64 .cfa: x29 48 + x19: .cfa -8 + ^ x20: .cfa -16 + ^ x21: .cfa -24 + ^ x22: .cfa -32 + ^ .ra: .cfa -40 + ^ x29: .cfa -48 + ^
STACK CFI 18f68 .cfa: sp 80 +
STACK CFI 18f78 .cfa: sp 0 +
STACK CFI 18f7c .cfa: x29 48 +
STACK CFI INIT 1ab20 1c .cfa: sp 0 +
STACK CFI INIT 1ab3c 10 .cfa: sp 0 +
STACK CFI 1ab40 .cfa: sp 16 +
STACK CFI 1ab44 .cfa: x29 16 + .ra: .cfa -8 + ^ x29: .cfa -16 + ^
STACK CFI INIT 1ab4c 50 .cfa: sp 0 +
STACK CFI 1ab50 .cfa: sp 32 +
STACK CFI 1ab58 .cfa: x29 32 + x19: .cfa -16 + ^ .ra: .cfa -24 + ^ x29: .cfa -32 + ^
STACK CFI 1ab70 .cfa: sp 32 +
STACK CFI 1ab78 .cfa: sp 0 +
STACK CFI 1ab7c .cfa: x29 32 +
STACK CFI 1ab90 .cfa: sp 32 +
STACK CFI 1ab98 .cfa: sp 0 +
STACK CFI INIT 1ab9c 50 .cfa: sp 0 +
STACK CFI 1aba0 .cfa: sp 32 +
STACK CFI 1aba8 .cfa: x29 32 + x19: .cfa -16 + ^ .ra: .cfa -24 + ^ x29: .cfa -32 + ^
STACK CFI 1abc0 .cfa: sp 32 +
STACK CFI 1abc8 .cfa: sp 0 +
STACK CFI 1abcc .cfa: x29 32 +
STACK CFI 1abe0 .cfa: sp 32 +
STACK CFI 1abe8 .cfa: sp 0 +
STACK CFI INIT 1abec f8 .cfa: sp 0 +
STACK CFI 1abf0 .cfa: sp 64 +
STACK CFI 1ac00 .cfa: x29 64 + x19: .cfa -8 + ^ x20: .cfa -16 + ^ x21: .cfa -24 + ^ x22: .cfa -32 + ^ x23: .cfa -48 + ^ .ra: .cfa -56 + ^ x29: .cfa -64 + ^
STACK CFI 1ac5c .cfa: sp 64 +
STACK CFI 1ac6c .cfa: sp 0 +
STACK CFI 1ac70 .cfa: x29 64 +
STACK CFI 1ac8c .cfa: sp 64 +
STACK CFI 1ac9c .cfa: sp 0 +
STACK CFI 1aca0 .cfa: x29 64 +
STACK CFI 1acd0 .cfa: sp 64 +
STACK CFI 1ace0 .cfa: sp 0 +
STACK CFI INIT 1ace4 80 .cfa: sp 0 +
STACK CFI 1ace8 .cfa: sp 48 +
STACK CFI 1acf4 .cfa: x29 48 + x19: .cfa -8 + ^ x20: .cfa -16 + ^ x21: .cfa -24 + ^ x22: .cfa -32 + ^ .ra: .cfa -40 + ^ x29: .cfa -48 + ^
STACK CFI 1ad0c .cfa: sp 48 +
STACK CFI 1ad18 .cfa: sp 0 +
STACK CFI 1ad1c .cfa: x29 48 +
STACK CFI 1ad4c .cfa: sp 48 +
STACK CFI 1ad58 .cfa: sp 0 +
STACK CFI 1ad5c .cfa: x29 48 +
STACK CFI INIT 1ad64 14 .cfa: sp 0 +
STACK CFI 1ad68 .cfa: sp 16 +
STACK CFI 1ad6c .cfa: x29 16 + .ra: .cfa -8 + ^ x29: .cfa -16 + ^
STACK CFI INIT 1adc8 30 .cfa: sp 0 +
STACK CFI 1adcc .cfa: sp 32 +
STACK CFI 1add4 .cfa: x29 32 + x19: .cfa -16 + ^ .ra: .cfa -24 + ^ x29: .cfa -32 + ^
STACK CFI 1adec .cfa: sp 32 +
STACK CFI 1adf4 .cfa: sp 0 +
STACK CFI INIT 1adf8 34 .cfa: sp 0 +
STACK CFI 1adfc .cfa: sp 32 +
STACK CFI 1ae04 .cfa: x29 32 + x19: .cfa -16 + ^ .ra: .cfa -24 + ^ x29: .cfa -32 + ^
STACK CFI INIT 1af24 50 .cfa: sp 0 +
STACK CFI 1af28 .cfa: sp 32 +
STACK CFI 1af30 .cfa: x29 32 + x19: .cfa -16 + ^ .ra: .cfa -24 + ^ x29: .cfa -32 + ^
STACK CFI 1af48 .cfa: sp 32 +
STACK CFI 1af50 .cfa: sp 0 +
STACK CFI 1af54 .cfa: x29 32 +
STACK CFI 1af68 .cfa: sp 32 +
STACK CFI 1af70 .cfa: sp 0 +
STACK CFI INIT 1af74 4 .cfa: sp 0 +
STACK CFI INIT 1af78 38 .cfa: sp 0 +
STACK CFI 1af7c .cfa: sp 32 +
STACK CFI 1af84 .cfa: x29 32 + x19: .cfa -16 + ^ .ra: .cfa -24 + ^ x29: .cfa -32 + ^
STACK CFI 1afa4 .cfa: sp 32 +
STACK CFI 1afac .cfa: sp 0 +
STACK CFI INIT 1afb0 18 .cfa: sp 0 +
STACK CFI INIT 1afc8 4 .cfa: sp 0 +
STACK CFI INIT 1afcc 4 .cfa: sp 0 +
STACK CFI INIT 1b1d4 1c .cfa: sp 0 +
STACK CFI INIT 1b1f0 c .cfa: sp 0 +
STACK CFI INIT 1b1fc ac .cfa: sp 0 +
STACK CFI 1b200 .cfa: sp 64 +
STACK CFI 1b210 .cfa: x29 64 + x19: .cfa -8 + ^ x20: .cfa -16 + ^ x21: .cfa -24 + ^ x22: .cfa -32 + ^ x23: .cfa -48 + ^ .ra: .cfa -56 + ^ x29: .cfa -64 + ^
STACK CFI 1b28c .cfa: sp 64 +
STACK CFI 1b29c .cfa: sp 0 +
STACK CFI 1b2a0 .cfa: x29 64 +
STACK CFI INIT 1b2a8 110 .cfa: sp 0 +
STACK CFI 1b2ac .cfa: sp 64 +
STACK CFI 1b2bc .cfa: x29 64 + x19: .cfa -8 + ^ x20: .cfa -16 + ^ x21: .cfa -24 + ^ x22: .cfa -32 + ^ x23: .cfa -40 + ^ x24: .cfa -48 + ^ .ra: .cfa -56 + ^ x29: .cfa -64 + ^
STACK CFI 1b39c .cfa: sp 64 +
STACK CFI 1b3ac .cfa: sp 0 +
STACK CFI 1b3b0 .cfa: x29 64 +
STACK CFI INIT 1b3b8 4 .cfa: sp 0 +
STACK CFI INIT 1b520 9c .cfa: sp 0 +
STACK CFI 1b524 .cfa: sp 32 +
STACK CFI 1b52c .cfa: x29 32 + x19: .cfa -8 + ^ x20: .cfa -16 + ^ .ra: .cfa -24 + ^ x29: .cfa -32 + ^
STACK CFI 1b5b0 .cfa: sp 32 +
STACK CFI 1b5b8 .cfa: sp 0 +
STACK CFI INIT 1b5bc a4 .cfa: sp 0 +
STACK CFI 1b5c0 .cfa: sp 32 +
STACK CFI 1b5c8 .cfa: x29 32 + x19: .cfa -8 + ^ x20: .cfa -16 + ^ .ra: .cfa -24 + ^ x29: .cfa -32 + ^
STACK CFI 1b654 .cfa: sp 32 +
STACK CFI 1b65c .cfa: sp 0 +
STACK CFI INIT 1b660 4 .cfa: sp 0 +
STACK CFI INIT 1b664 38 .cfa: sp 0 +
STACK CFI 1b668 .cfa: sp 32 +
STACK CFI 1b670 .cfa: x29 32 + x19: .cfa -16 + ^ .ra: .cfa -24 + ^ x29: .cfa -32 + ^
STACK CFI 1b690 .cfa: sp 32 +
STACK CFI 1b698 .cfa: sp 0 +
STACK CFI INIT 1b69c 18 .cfa: sp 0 +
STACK CFI INIT 1b6b4 4 .cfa: sp 0 +
STACK CFI INIT 1b6b8 4 .cfa: sp 0 +
STACK CFI INIT 1b6bc ec .cfa: sp 0 +
STACK CFI 1b6c0 .cfa: sp 32 +
STACK CFI 1b6c8 .cfa: x29 32 + x19: .cfa -8 + ^ x20: .cfa -16 + ^ .ra: .cfa -24 + ^ x29: .cfa -32 + ^
STACK CFI 1b748 .cfa: sp 32 +
STACK CFI 1b750 .cfa: sp 0 +
STACK CFI 1b754 .cfa: x29 32 +
STACK CFI 1b79c .cfa: sp 32 +
STACK CFI 1b7a4 .cfa: sp 0 +
STACK CFI INIT 1b7a8 1c .cfa: sp 0 +
STACK CFI INIT 1b7c4 c .cfa: sp 0 +
STACK CFI INIT 1b7d0 4 .cfa: sp 0 +
STACK CFI INIT 1b7d4 38 .cfa: sp 0 +
STACK CFI 1b7d8 .cfa: sp 32 +
STACK CFI 1b7e0 .cfa: x29 32 + x19: .cfa -16 + ^ .ra: .cfa -24 + ^ x29: .cfa -32 + ^
STACK CFI 1b800 .cfa: sp 32 +
STACK CFI 1b808 .cfa: sp 0 +
STACK CFI INIT 1b80c 18 .cfa: sp 0 +
STACK CFI INIT 1b824 4 .cfa: sp 0 +
STACK CFI INIT 1b828 4 .cfa: sp 0 +
STACK CFI INIT 1b82c ec .cfa: sp 0 +
STACK CFI 1b830 .cfa: sp 32 +
STACK CFI 1b838 .cfa: x29 32 + x19: .cfa -8 + ^ x20: .cfa -16 + ^ .ra: .cfa -24 + ^ x29: .cfa -32 + ^
STACK CFI 1b8b8 .cfa: sp 32 +
STACK CFI 1b8c0 .cfa: sp 0 +
STACK CFI 1b8c4 .cfa: x29 32 +
STACK CFI 1b90c .cfa: sp 32 +
STACK CFI 1b914 .cfa: sp 0 +
STACK CFI INIT 1b918 1c .cfa: sp 0 +
STACK CFI INIT 1b934 c .cfa: sp 0 +
STACK CFI INIT 1b940 4 .cfa: sp 0 +
STACK CFI INIT 1b944 38 .cfa: sp 0 +
STACK CFI 1b948 .cfa: sp 32 +
STACK CFI 1b950 .cfa: x29 32 + x19: .cfa -16 + ^ .ra: .cfa -24 + ^ x29: .cfa -32 + ^
STACK CFI 1b970 .cfa: sp 32 +
STACK CFI 1b978 .cfa: sp 0 +
STACK CFI INIT 1b97c 18 .cfa: sp 0 +
STACK CFI INIT 1b994 4 .cfa: sp 0 +
STACK CFI INIT 1b998 4 .cfa: sp 0 +
STACK CFI INIT 1b99c ec .cfa: sp 0 +
STACK CFI 1b9a0 .cfa: sp 32 +
STACK CFI 1b9a8 .cfa: x29 32 + x19: .cfa -8 + ^ x20: .cfa -16 + ^ .ra: .cfa -24 + ^ x29: .cfa -32 + ^
STACK CFI 1ba28 .cfa: sp 32 +
STACK CFI 1ba30 .cfa: sp 0 +
STACK CFI 1ba34 .cfa: x29 32 +
STACK CFI 1ba7c .cfa: sp 32 +
STACK CFI 1ba84 .cfa: sp 0 +
STACK CFI INIT 1ba88 1c .cfa: sp 0 +
STACK CFI INIT 1baa4 c .cfa: sp 0 +
STACK CFI INIT 1bab0 4 .cfa: sp 0 +
STACK CFI INIT 1bab4 38 .cfa: sp 0 +
STACK CFI 1bab8 .cfa: sp 32 +
STACK CFI 1bac0 .cfa: x29 32 + x19: .cfa -16 + ^ .ra: .cfa -24 + ^ x29: .cfa -32 + ^
STACK CFI 1bae0 .cfa: sp 32 +
STACK CFI 1bae8 .cfa: sp 0 +
STACK CFI INIT 1baec 18 .cfa: sp 0 +
STACK CFI INIT 1bb04 4 .cfa: sp 0 +
STACK CFI INIT 1bb08 4 .cfa: sp 0 +
STACK CFI INIT 1bb0c ec .cfa: sp 0 +
STACK CFI 1bb10 .cfa: sp 32 +
STACK CFI 1bb18 .cfa: x29 32 + x19: .cfa -8 + ^ x20: .cfa -16 + ^ .ra: .cfa -24 + ^ x29: .cfa -32 + ^
STACK CFI 1bb98 .cfa: sp 32 +
STACK CFI 1bba0 .cfa: sp 0 +
STACK CFI 1bba4 .cfa: x29 32 +
STACK CFI 1bbec .cfa: sp 32 +
STACK CFI 1bbf4 .cfa: sp 0 +
STACK CFI INIT 1bbf8 1c .cfa: sp 0 +
STACK CFI INIT 1bc14 c .cfa: sp 0 +
STACK CFI INIT 1bc20 4 .cfa: sp 0 +
STACK CFI INIT 1bc24 38 .cfa: sp 0 +
STACK CFI 1bc28 .cfa: sp 32 +
STACK CFI 1bc30 .cfa: x29 32 + x19: .cfa -16 + ^ .ra: .cfa -24 + ^ x29: .cfa -32 + ^
STACK CFI 1bc50 .cfa: sp 32 +
STACK CFI 1bc58 .cfa: sp 0 +
STACK CFI INIT 1bc5c 18 .cfa: sp 0 +
STACK CFI INIT 1bc74 4 .cfa: sp 0 +
STACK CFI INIT 1bc78 4 .cfa: sp 0 +
STACK CFI INIT 1bc7c ec .cfa: sp 0 +
STACK CFI 1bc80 .cfa: sp 32 +
STACK CFI 1bc88 .cfa: x29 32 + x19: .cfa -8 + ^ x20: .cfa -16 + ^ .ra: .cfa -24 + ^ x29: .cfa -32 + ^
STACK CFI 1bd08 .cfa: sp 32 +
STACK CFI 1bd10 .cfa: sp 0 +
STACK CFI 1bd14 .cfa: x29 32 +
STACK CFI 1bd5c .cfa: sp 32 +
STACK CFI 1bd64 .cfa: sp 0 +
STACK CFI INIT 1bd68 1c .cfa: sp 0 +
STACK CFI INIT 1bd84 c .cfa: sp 0 +
STACK CFI INIT 1bd90 4 .cfa: sp 0 +
STACK CFI INIT 1bd94 38 .cfa: sp 0 +
STACK CFI 1bd98 .cfa: sp 32 +
STACK CFI 1bda0 .cfa: x29 32 + x19: .cfa -16 + ^ .ra: .cfa -24 + ^ x29: .cfa -32 + ^
STACK CFI 1bdc0 .cfa: sp 32 +
STACK CFI 1bdc8 .cfa: sp 0 +
STACK CFI INIT 1bdcc 18 .cfa: sp 0 +
STACK CFI INIT 1bde4 4 .cfa: sp 0 +
STACK CFI INIT 1bde8 4 .cfa: sp 0 +
STACK CFI INIT 1bdec ec .cfa: sp 0 +
STACK CFI 1bdf0 .cfa: sp 32 +
STACK CFI 1bdf8 .cfa: x29 32 + x19: .cfa -8 + ^ x20: .cfa -16 + ^ .ra: .cfa -24 + ^ x29: .cfa -32 + ^
STACK CFI 1be78 .cfa: sp 32 +
STACK CFI 1be80 .cfa: sp 0 +
STACK CFI 1be84 .cfa: x29 32 +
STACK CFI 1becc .cfa: sp 32 +
STACK CFI 1bed4 .cfa: sp 0 +
STACK CFI INIT 1bed8 1c .cfa: sp 0 +
STACK CFI INIT 1bef4 c .cfa: sp 0 +
STACK CFI INIT 1bf00 4 .cfa: sp 0 +
STACK CFI INIT 1bf04 38 .cfa: sp 0 +
STACK CFI 1bf08 .cfa: sp 32 +
STACK CFI 1bf10 .cfa: x29 32 + x19: .cfa -16 + ^ .ra: .cfa -24 + ^ x29: .cfa -32 + ^
STACK CFI 1bf30 .cfa: sp 32 +
STACK CFI 1bf38 .cfa: sp 0 +
STACK CFI INIT 1bf3c 18 .cfa: sp 0 +
STACK CFI INIT 1bf54 4 .cfa: sp 0 +
STACK CFI INIT 1bf58 4 .cfa: sp 0 +
STACK CFI INIT 1c160 1c .cfa: sp 0 +
STACK CFI INIT 1c17c c .cfa: sp 0 +
STACK CFI INIT 1c188 4 .cfa: sp 0 +
STACK CFI INIT 1c18c 38 .cfa: sp 0 +
STACK CFI 1c190 .cfa: sp 32 +
STACK CFI 1c198 .cfa: x29 32 + x19: .cfa -16 + ^ .ra: .cfa -24 + ^ x29: .cfa -32 + ^
STACK CFI 1c1b8 .cfa: sp 32 +
STACK CFI 1c1c0 .cfa: sp 0 +
STACK CFI INIT 1c1c4 18 .cfa: sp 0 +
STACK CFI INIT 1c1dc 4 .cfa: sp 0 +
STACK CFI INIT 1c1e0 4 .cfa: sp 0 +
STACK CFI INIT 1c3e8 1c .cfa: sp 0 +
STACK CFI INIT 1c404 c .cfa: sp 0 +
STACK CFI INIT 1c410 4 .cfa: sp 0 +
STACK CFI INIT 1c414 38 .cfa: sp 0 +
STACK CFI 1c418 .cfa: sp 32 +
STACK CFI 1c420 .cfa: x29 32 + x19: .cfa -16 + ^ .ra: .cfa -24 + ^ x29: .cfa -32 + ^
STACK CFI 1c440 .cfa: sp 32 +
STACK CFI 1c448 .cfa: sp 0 +
STACK CFI INIT 1c44c 18 .cfa: sp 0 +
STACK CFI INIT 1c464 4 .cfa: sp 0 +
STACK CFI INIT 1c468 4 .cfa: sp 0 +
STACK CFI INIT 1c670 1c .cfa: sp 0 +
STACK CFI INIT 1c68c c .cfa: sp 0 +
STACK CFI INIT 1c698 4 .cfa: sp 0 +
STACK CFI INIT 1c69c 38 .cfa: sp 0 +
STACK CFI 1c6a0 .cfa: sp 32 +
STACK CFI 1c6a8 .cfa: x29 32 + x19: .cfa -16 + ^ .ra: .cfa -24 + ^ x29: .cfa -32 + ^
STACK CFI 1c6c8 .cfa: sp 32 +
STACK CFI 1c6d0 .cfa: sp 0 +
STACK CFI INIT 1c6d4 18 .cfa: sp 0 +
STACK CFI INIT 1c6ec 4 .cfa: sp 0 +
STACK CFI INIT 1c6f0 4 .cfa: sp 0 +
STACK CFI INIT 1c8f8 1c .cfa: sp 0 +
STACK CFI INIT 1c914 c .cfa: sp 0 +
STACK CFI INIT 1c920 4 .cfa: sp 0 +
STACK CFI INIT 1c924 38 .cfa: sp 0 +
STACK CFI 1c928 .cfa: sp 32 +
STACK CFI 1c930 .cfa: x29 32 + x19: .cfa -16 + ^ .ra: .cfa -24 + ^ x29: .cfa -32 + ^
STACK CFI 1c950 .cfa: sp 32 +
STACK CFI 1c958 .cfa: sp 0 +
STACK CFI INIT 1c95c 18 .cfa: sp 0 +
STACK CFI INIT 1c974 4 .cfa: sp 0 +
STACK CFI INIT 1c978 4 .cfa: sp 0 +
STACK CFI INIT 1cb80 1c .cfa: sp 0 +
STACK CFI INIT 1cb9c c .cfa: sp 0 +
STACK CFI INIT 1cba8 4 .cfa: sp 0 +
STACK CFI INIT 1cbac 38 .cfa: sp 0 +
STACK CFI 1cbb0 .cfa: sp 32 +
STACK CFI 1cbb8 .cfa: x29 32 + x19: .cfa -16 + ^ .ra: .cfa -24 + ^ x29: .cfa -32 + ^
STACK CFI 1cbd8 .cfa: sp 32 +
STACK CFI 1cbe0 .cfa: sp 0 +
STACK CFI INIT 1cbe4 18 .cfa: sp 0 +
STACK CFI INIT 1cbfc 4 .cfa: sp 0 +
STACK CFI INIT 1cc00 4 .cfa: sp 0 +
STACK CFI INIT 1cc04 ec .cfa: sp 0 +
STACK CFI 1cc08 .cfa: sp 32 +
STACK CFI 1cc10 .cfa: x29 32 + x19: .cfa -8 + ^ x20: .cfa -16 + ^ .ra: .cfa -24 + ^ x29: .cfa -32 + ^
STACK CFI 1cc90 .cfa: sp 32 +
STACK CFI 1cc98 .cfa: sp 0 +
STACK CFI 1cc9c .cfa: x29 32 +
STACK CFI 1cce4 .cfa: sp 32 +
STACK CFI 1ccec .cfa: sp 0 +
STACK CFI INIT 1ccf0 1c .cfa: sp 0 +
STACK CFI INIT 1cd0c c .cfa: sp 0 +
STACK CFI INIT 1cd18 4 .cfa: sp 0 +
STACK CFI INIT 1cd1c 38 .cfa: sp 0 +
STACK CFI 1cd20 .cfa: sp 32 +
STACK CFI 1cd28 .cfa: x29 32 + x19: .cfa -16 + ^ .ra: .cfa -24 + ^ x29: .cfa -32 + ^
STACK CFI 1cd48 .cfa: sp 32 +
STACK CFI 1cd50 .cfa: sp 0 +
STACK CFI INIT 1cd54 18 .cfa: sp 0 +
STACK CFI INIT 1cd6c 4 .cfa: sp 0 +
STACK CFI INIT 1cd70 4 .cfa: sp 0 +
STACK CFI INIT 1cd74 ec .cfa: sp 0 +
STACK CFI 1cd78 .cfa: sp 32 +
STACK CFI 1cd80 .cfa: x29 32 + x19: .cfa -8 + ^ x20: .cfa -16 + ^ .ra: .cfa -24 + ^ x29: .cfa -32 + ^
STACK CFI 1ce00 .cfa: sp 32 +
STACK CFI 1ce08 .cfa: sp 0 +
STACK CFI 1ce0c .cfa: x29 32 +
STACK CFI 1ce54 .cfa: sp 32 +
STACK CFI 1ce5c .cfa: sp 0 +
STACK CFI INIT 1ce60 1c .cfa: sp 0 +
STACK CFI INIT 1ce7c c .cfa: sp 0 +
STACK CFI INIT 1ce88 4 .cfa: sp 0 +
STACK CFI INIT 1ce8c 38 .cfa: sp 0 +
STACK CFI 1ce90 .cfa: sp 32 +
STACK CFI 1ce98 .cfa: x29 32 + x19: .cfa -16 + ^ .ra: .cfa -24 + ^ x29: .cfa -32 + ^
STACK CFI 1ceb8 .cfa: sp 32 +
STACK CFI 1cec0 .cfa: sp 0 +
STACK CFI INIT 1cec4 18 .cfa: sp 0 +
STACK CFI INIT 1cedc 4 .cfa: sp 0 +
STACK CFI INIT 1cee0 4 .cfa: sp 0 +
STACK CFI INIT 1cee4 ec .cfa: sp 0 +
STACK CFI 1cee8 .cfa: sp 32 +
STACK CFI 1cef0 .cfa: x29 32 + x19: .cfa -8 + ^ x20: .cfa -16 + ^ .ra: .cfa -24 + ^ x29: .cfa -32 + ^
STACK CFI 1cf70 .cfa: sp 32 +
STACK CFI 1cf78 .cfa: sp 0 +
STACK CFI 1cf7c .cfa: x29 32 +
STACK CFI 1cfc4 .cfa: sp 32 +
STACK CFI 1cfcc .cfa: sp 0 +
STACK CFI INIT 1cfd0 1c .cfa: sp 0 +
STACK CFI INIT 1cfec c .cfa: sp 0 +
STACK CFI INIT 1cff8 4 .cfa: sp 0 +
STACK CFI INIT 1cffc 4 .cfa: sp 0 +
STACK CFI INIT 1d000 38 .cfa: sp 0 +
STACK CFI 1d004 .cfa: sp 32 +
STACK CFI 1d00c .cfa: x29 32 + x19: .cfa -16 + ^ .ra: .cfa -24 + ^ x29: .cfa -32 + ^
STACK CFI 1d02c .cfa: sp 32 +
STACK CFI 1d034 .cfa: sp 0 +
STACK CFI INIT 1d038 18 .cfa: sp 0 +
STACK CFI INIT 1d050 4 .cfa: sp 0 +
STACK CFI INIT 1d054 4 .cfa: sp 0 +
STACK CFI INIT 1d058 ec .cfa: sp 0 +
STACK CFI 1d05c .cfa: sp 32 +
STACK CFI 1d064 .cfa: x29 32 + x19: .cfa -8 + ^ x20: .cfa -16 + ^ .ra: .cfa -24 + ^ x29: .cfa -32 + ^
STACK CFI 1d0e4 .cfa: sp 32 +
STACK CFI 1d0ec .cfa: sp 0 +
STACK CFI 1d0f0 .cfa: x29 32 +
STACK CFI 1d138 .cfa: sp 32 +
STACK CFI 1d140 .cfa: sp 0 +
STACK CFI INIT 1d144 1c .cfa: sp 0 +
STACK CFI INIT 1d160 c .cfa: sp 0 +
STACK CFI INIT 1d16c 4 .cfa: sp 0 +
STACK CFI INIT 1d2d4 5c .cfa: sp 0 +
STACK CFI 1d2d8 .cfa: sp 32 +
STACK CFI 1d2e0 .cfa: x29 32 + x19: .cfa -16 + ^ .ra: .cfa -24 + ^ x29: .cfa -32 + ^
STACK CFI 1d324 .cfa: sp 32 +
STACK CFI 1d32c .cfa: sp 0 +
STACK CFI INIT 1d330 64 .cfa: sp 0 +
STACK CFI 1d334 .cfa: sp 32 +
STACK CFI 1d33c .cfa: x29 32 + x19: .cfa -16 + ^ .ra: .cfa -24 + ^ x29: .cfa -32 + ^
STACK CFI 1d388 .cfa: sp 32 +
STACK CFI 1d390 .cfa: sp 0 +
STACK CFI INIT 1d394 4 .cfa: sp 0 +
STACK CFI INIT 1d398 4 .cfa: sp 0 +
STACK CFI INIT 1d39c 34 .cfa: sp 0 +
STACK CFI 1d3a0 .cfa: sp 32 +
STACK CFI 1d3a8 .cfa: x29 32 + x19: .cfa -16 + ^ .ra: .cfa -24 + ^ x29: .cfa -32 + ^
STACK CFI 1d3c4 .cfa: sp 32 +
STACK CFI 1d3cc .cfa: sp 0 +
STACK CFI INIT 1d3d0 14 .cfa: sp 0 +
STACK CFI INIT 1d3e4 4 .cfa: sp 0 +
STACK CFI INIT 1d3e8 4 .cfa: sp 0 +
STACK CFI INIT 1d3ec 10 .cfa: sp 0 +
STACK CFI INIT 1d3fc 1c .cfa: sp 0 +
STACK CFI INIT 1d418 c .cfa: sp 0 +
STACK CFI INIT 1f0dc 50 .cfa: sp 0 +
STACK CFI 1f0e0 .cfa: sp 32 +
STACK CFI 1f0e8 .cfa: x29 32 + x19: .cfa -16 + ^ .ra: .cfa -24 + ^ x29: .cfa -32 + ^
STACK CFI 1f100 .cfa: sp 32 +
STACK CFI 1f108 .cfa: sp 0 +
STACK CFI 1f10c .cfa: x29 32 +
STACK CFI 1f120 .cfa: sp 32 +
STACK CFI 1f128 .cfa: sp 0 +
STACK CFI INIT 1f1a0 7c .cfa: sp 0 +
STACK CFI 1f1a4 .cfa: sp 48 +
STACK CFI 1f1b0 .cfa: x29 48 + x19: .cfa -8 + ^ x20: .cfa -16 + ^ x21: .cfa -32 + ^ .ra: .cfa -40 + ^ x29: .cfa -48 + ^
STACK CFI 1f1fc .cfa: sp 48 +
STACK CFI 1f208 .cfa: sp 0 +
STACK CFI 1f20c .cfa: sp 48 +
STACK CFI 1f218 .cfa: sp 0 +
STACK CFI INIT 1f21c 4 .cfa: sp 0 +
STACK CFI INIT 1f374 34 .cfa: sp 0 +
STACK CFI 1f378 .cfa: sp 16 +
STACK CFI 1f37c .cfa: x29 16 + .ra: .cfa -8 + ^ x29: .cfa -16 + ^
STACK CFI INIT 1f4d4 80 .cfa: sp 0 +
STACK CFI 1f4d8 .cfa: sp 48 +
STACK CFI 1f4e4 .cfa: x29 48 + x19: .cfa -8 + ^ x20: .cfa -16 + ^ x21: .cfa -32 + ^ .ra: .cfa -40 + ^ x29: .cfa -48 + ^
STACK CFI 1f544 .cfa: sp 48 +
STACK CFI 1f550 .cfa: sp 0 +
STACK CFI INIT 1f554 24 .cfa: sp 0 +
STACK CFI 1f558 .cfa: sp 32 +
STACK CFI 1f560 .cfa: x29 32 + x19: .cfa -16 + ^ .ra: .cfa -24 + ^ x29: .cfa -32 + ^
STACK CFI 1f56c .cfa: sp 32 +
STACK CFI 1f574 .cfa: sp 0 +
STACK CFI INIT 1fa70 148 .cfa: sp 0 +
STACK CFI 1fa74 .cfa: sp 48 +
STACK CFI 1fa80 .cfa: x29 48 + x19: .cfa -8 + ^ x20: .cfa -16 + ^ x21: .cfa -32 + ^ .ra: .cfa -40 + ^ x29: .cfa -48 + ^
STACK CFI 1fba8 .cfa: sp 48 +
STACK CFI 1fbb4 .cfa: sp 0 +
STACK CFI INIT 1fde0 68 .cfa: sp 0 +
STACK CFI 1fde4 .cfa: sp 32 +
STACK CFI 1fdec .cfa: x29 32 + x19: .cfa -8 + ^ x20: .cfa -16 + ^ .ra: .cfa -24 + ^ x29: .cfa -32 + ^
STACK CFI 1fe04 .cfa: sp 32 +
STACK CFI 1fe0c .cfa: sp 0 +
STACK CFI 1fe10 .cfa: x29 32 +
STACK CFI 1fe3c .cfa: sp 32 +
STACK CFI 1fe44 .cfa: sp 0 +
STACK CFI INIT 1fe48 14 .cfa: sp 0 +
STACK CFI 1fe4c .cfa: sp 16 +
STACK CFI 1fe50 .cfa: x29 16 + .ra: .cfa -8 + ^ x29: .cfa -16 + ^
STACK CFI INIT 1fe5c 4 .cfa: sp 0 +
STACK CFI INIT 1fe60 14 .cfa: sp 0 +
STACK CFI INIT 1fe74 120 .cfa: sp 0 +
STACK CFI 1fe78 .cfa: sp 64 +
STACK CFI 1fe88 .cfa: x29 64 + x19: .cfa -8 + ^ x20: .cfa -16 + ^ x21: .cfa -24 + ^ x22: .cfa -32 + ^ x23: .cfa -40 + ^ x24: .cfa -48 + ^ .ra: .cfa -56 + ^ x29: .cfa -64 + ^
STACK CFI 1ff80 .cfa: sp 64 +
STACK CFI 1ff90 .cfa: sp 0 +
STACK CFI INIT 1ff94 d4 .cfa: sp 0 +
STACK CFI 1ff98 .cfa: sp 48 +
STACK CFI 1ffa4 .cfa: x29 48 + x19: .cfa -8 + ^ x20: .cfa -16 + ^ x21: .cfa -32 + ^ .ra: .cfa -40 + ^ x29: .cfa -48 + ^
STACK CFI 20034 .cfa: sp 48 +
STACK CFI 20040 .cfa: sp 0 +
STACK CFI 20044 .cfa: x29 48 +
STACK CFI INIT 20068 3c8 .cfa: sp 0 +
STACK CFI INIT 20430 8c .cfa: sp 0 +
STACK CFI 20438 .cfa: sp 32 +
STACK CFI 20440 .cfa: x29 32 + x19: .cfa -8 + ^ x20: .cfa -16 + ^ .ra: .cfa -24 + ^ x29: .cfa -32 + ^
STACK CFI 20488 .cfa: sp 32 +
STACK CFI 20490 .cfa: sp 0 +
STACK CFI 20498 .cfa: x29 32 +
STACK CFI INIT 215e8 58 .cfa: sp 0 +
STACK CFI 215ec .cfa: sp 32 +
STACK CFI 215f4 .cfa: x29 32 + x19: .cfa -8 + ^ x20: .cfa -16 + ^ .ra: .cfa -24 + ^ x29: .cfa -32 + ^
STACK CFI 21628 .cfa: sp 32 +
STACK CFI 21630 .cfa: sp 0 +
STACK CFI 21634 .cfa: sp 32 +
STACK CFI 2163c .cfa: sp 0 +
STACK CFI INIT 21930 68 .cfa: sp 0 +
STACK CFI 21934 .cfa: sp 32 +
STACK CFI 2193c .cfa: x29 32 + x19: .cfa -16 + ^ .ra: .cfa -24 + ^ x29: .cfa -32 + ^
STACK CFI 21980 .cfa: sp 32 +
STACK CFI 21988 .cfa: sp 0 +
STACK CFI 2198c .cfa: sp 32 +
STACK CFI 21994 .cfa: sp 0 +
STACK CFI INIT 21998 e8 .cfa: sp 0 +
STACK CFI 2199c .cfa: sp 80 +
STACK CFI 219ac .cfa: x29 48 + x19: .cfa -8 + ^ x20: .cfa -16 + ^ x21: .cfa -32 + ^ .ra: .cfa -40 + ^ x29: .cfa -48 + ^
STACK CFI 21a0c .cfa: sp 80 +
STACK CFI 21a1c .cfa: sp 0 +
STACK CFI 21a20 .cfa: x29 48 +
STACK CFI 21a68 .cfa: sp 80 +
STACK CFI 21a78 .cfa: sp 0 +
STACK CFI 21a7c .cfa: x29 48 +
STACK CFI INIT 21a80 10c .cfa: sp 0 +
STACK CFI 21a84 .cfa: sp 64 +
STACK CFI 21a98 .cfa: x29 40 + x19: .cfa -8 + ^ x20: .cfa -16 + ^ x21: .cfa -24 + ^ .ra: .cfa -32 + ^ x29: .cfa -40 + ^ v8: .cfa -48 + ^
STACK CFI 21ad0 .cfa: sp 64 +
STACK CFI 21ae4 .cfa: sp 0 +
STACK CFI 21ae8 .cfa: x29 40 +
STACK CFI 21b74 .cfa: sp 64 +
STACK CFI 21b88 .cfa: sp 0 +
STACK CFI INIT 2326c 78 .cfa: sp 0 +
STACK CFI 23270 .cfa: sp 48 +
STACK CFI 2327c .cfa: x29 48 + x19: .cfa -8 + ^ x20: .cfa -16 + ^ x21: .cfa -32 + ^ .ra: .cfa -40 + ^ x29: .cfa -48 + ^
STACK CFI 232c4 .cfa: sp 48 +
STACK CFI 232d0 .cfa: sp 0 +
STACK CFI 232d4 .cfa: sp 48 +
STACK CFI 232e0 .cfa: sp 0 +
STACK CFI INIT 232e4 78 .cfa: sp 0 +
STACK CFI 232e8 .cfa: sp 48 +
STACK CFI 232f4 .cfa: x29 48 + x19: .cfa -8 + ^ x20: .cfa -16 + ^ x21: .cfa -32 + ^ .ra: .cfa -40 + ^ x29: .cfa -48 + ^
STACK CFI 2333c .cfa: sp 48 +
STACK CFI 23348 .cfa: sp 0 +
STACK CFI 2334c .cfa: sp 48 +
STACK CFI 23358 .cfa: sp 0 +
STACK CFI INIT 2335c 78 .cfa: sp 0 +
STACK CFI 23360 .cfa: sp 48 +
STACK CFI 2336c .cfa: x29 48 + x19: .cfa -8 + ^ x20: .cfa -16 + ^ x21: .cfa -32 + ^ .ra: .cfa -40 + ^ x29: .cfa -48 + ^
STACK CFI 233b4 .cfa: sp 48 +
STACK CFI 233c0 .cfa: sp 0 +
STACK CFI 233c4 .cfa: sp 48 +
STACK CFI 233d0 .cfa: sp 0 +
STACK CFI INIT 233d4 44 .cfa: sp 0 +
STACK CFI 233d8 .cfa: sp 32 +
STACK CFI 233e0 .cfa: x29 32 + x19: .cfa -16 + ^ .ra: .cfa -24 + ^ x29: .cfa -32 + ^
STACK CFI 2340c .cfa: sp 32 +
STACK CFI 23414 .cfa: sp 0 +
STACK CFI INIT 23418 54 .cfa: sp 0 +
STACK CFI 23420 .cfa: sp 32 +
STACK CFI 23428 .cfa: x29 32 + x19: .cfa -8 + ^ x20: .cfa -16 + ^ .ra: .cfa -24 + ^ x29: .cfa -32 + ^
STACK CFI 23460 .cfa: sp 32 +
STACK CFI 23468 .cfa: sp 0 +
STACK CFI INIT 2346c 50 .cfa: sp 0 +
STACK CFI 23470 .cfa: sp 32 +
STACK CFI 23478 .cfa: x29 32 + x19: .cfa -16 + ^ .ra: .cfa -24 + ^ x29: .cfa -32 + ^
STACK CFI 23490 .cfa: sp 32 +
STACK CFI 23498 .cfa: sp 0 +
STACK CFI 2349c .cfa: x29 32 +
STACK CFI 234b0 .cfa: sp 32 +
STACK CFI 234b8 .cfa: sp 0 +
STACK CFI INIT 234bc 64 .cfa: sp 0 +
STACK CFI 234c0 .cfa: sp 32 +
STACK CFI 234c8 .cfa: x29 32 + x19: .cfa -16 + ^ .ra: .cfa -24 + ^ x29: .cfa -32 + ^
STACK CFI 234f4 .cfa: sp 32 +
STACK CFI 234fc .cfa: sp 0 +
STACK CFI 23500 .cfa: x29 32 +
STACK CFI 23514 .cfa: sp 32 +
STACK CFI 2351c .cfa: sp 0 +
STACK CFI INIT 23b84 88 .cfa: sp 0 +
STACK CFI 23b88 .cfa: sp 48 +
STACK CFI 23b94 .cfa: x29 48 + x19: .cfa -8 + ^ x20: .cfa -16 + ^ x21: .cfa -32 + ^ .ra: .cfa -40 + ^ x29: .cfa -48 + ^
STACK CFI 23be8 .cfa: sp 48 +
STACK CFI 23bf4 .cfa: sp 0 +
STACK CFI 23bf8 .cfa: x29 48 +
STACK CFI 23bfc .cfa: sp 48 +
STACK CFI 23c08 .cfa: sp 0 +
STACK CFI INIT 23c0c 4 .cfa: sp 0 +
STACK CFI INIT 23c10 14 .cfa: sp 0 +
STACK CFI 23c14 .cfa: sp 16 +
STACK CFI 23c18 .cfa: x29 16 + .ra: .cfa -8 + ^ x29: .cfa -16 + ^
STACK CFI INIT 23c24 14 .cfa: sp 0 +
STACK CFI 23c28 .cfa: sp 16 +
STACK CFI 23c2c .cfa: x29 16 + .ra: .cfa -8 + ^ x29: .cfa -16 + ^
STACK CFI INIT 23c38 c .cfa: sp 0 +
STACK CFI 23c3c .cfa: sp 16 +
STACK CFI 23c40 .cfa: x29 16 + .ra: .cfa -8 + ^ x29: .cfa -16 + ^
STACK CFI INIT 23c94 30 .cfa: sp 0 +
STACK CFI 23c98 .cfa: sp 32 +
STACK CFI 23ca0 .cfa: x29 32 + x19: .cfa -16 + ^ .ra: .cfa -24 + ^ x29: .cfa -32 + ^
STACK CFI 23cb8 .cfa: sp 32 +
STACK CFI 23cc0 .cfa: sp 0 +
STACK CFI INIT 23cc4 c .cfa: sp 0 +
STACK CFI 23cc8 .cfa: sp 16 +
STACK CFI 23ccc .cfa: x29 16 + .ra: .cfa -8 + ^ x29: .cfa -16 + ^
STACK CFI INIT 23cd0 4 .cfa: sp 0 +
STACK CFI INIT 23cd4 4 .cfa: sp 0 +
STACK CFI INIT 23cd8 38 .cfa: sp 0 +
STACK CFI 23cdc .cfa: sp 32 +
STACK CFI 23ce4 .cfa: x29 32 + x19: .cfa -16 + ^ .ra: .cfa -24 + ^ x29: .cfa -32 + ^
STACK CFI 23d04 .cfa: sp 32 +
STACK CFI 23d0c .cfa: sp 0 +
STACK CFI INIT 23d10 18 .cfa: sp 0 +
STACK CFI INIT 23d28 4 .cfa: sp 0 +
STACK CFI INIT 23d2c 4 .cfa: sp 0 +
STACK CFI INIT 23d30 10 .cfa: sp 0 +
STACK CFI INIT 23d40 1c .cfa: sp 0 +
STACK CFI INIT 23d5c c .cfa: sp 0 +
STACK CFI INIT 23d68 178 .cfa: sp 0 +
STACK CFI 23d6c .cfa: sp 80 +
STACK CFI 23d80 .cfa: x29 80 + x19: .cfa -8 + ^ x20: .cfa -16 + ^ x21: .cfa -24 + ^ x22: .cfa -32 + ^ x23: .cfa -40 + ^ x24: .cfa -48 + ^ x25: .cfa -56 + ^ x26: .cfa -64 + ^ .ra: .cfa -72 + ^ x29: .cfa -80 + ^
STACK CFI 23ec8 .cfa: sp 80 +
STACK CFI 23edc .cfa: sp 0 +
STACK CFI INIT 23ee0 1b0 .cfa: sp 0 +
STACK CFI INIT 245d8 1c .cfa: sp 0 +
STACK CFI INIT 24924 4 .cfa: sp 0 +
STACK CFI INIT 24c4c 8c .cfa: sp 0 +
STACK CFI 24c50 .cfa: sp 32 +
STACK CFI 24c58 .cfa: x29 32 + x19: .cfa -16 + ^ .ra: .cfa -24 + ^ x29: .cfa -32 + ^
STACK CFI 24ccc .cfa: sp 32 +
STACK CFI 24cd4 .cfa: sp 0 +
STACK CFI INIT 24cd8 3c .cfa: sp 0 +
STACK CFI 24cdc .cfa: sp 32 +
STACK CFI 24ce4 .cfa: x29 32 + x19: .cfa -16 + ^ .ra: .cfa -24 + ^ x29: .cfa -32 + ^
STACK CFI 24cf0 .cfa: sp 32 +
STACK CFI 24cf8 .cfa: sp 0 +
STACK CFI 24cfc .cfa: x29 32 +
STACK CFI 24d08 .cfa: sp 32 +
STACK CFI 24d10 .cfa: sp 0 +
STACK CFI INIT 24d14 3c .cfa: sp 0 +
STACK CFI 24d18 .cfa: sp 32 +
STACK CFI 24d20 .cfa: x29 32 + x19: .cfa -16 + ^ .ra: .cfa -24 + ^ x29: .cfa -32 + ^
STACK CFI 24d2c .cfa: sp 32 +
STACK CFI 24d34 .cfa: sp 0 +
STACK CFI 24d38 .cfa: x29 32 +
STACK CFI 24d44 .cfa: sp 32 +
STACK CFI 24d4c .cfa: sp 0 +
STACK CFI INIT 24d50 4c .cfa: sp 0 +
STACK CFI 24d54 .cfa: sp 32 +
STACK CFI 24d5c .cfa: x29 32 + x19: .cfa -8 + ^ x20: .cfa -16 + ^ .ra: .cfa -24 + ^ x29: .cfa -32 + ^
STACK CFI 24d84 .cfa: sp 32 +
STACK CFI 24d8c .cfa: sp 0 +
STACK CFI 24d90 .cfa: sp 32 +
STACK CFI 24d98 .cfa: sp 0 +
STACK CFI INIT 24fbc 64 .cfa: sp 0 +
STACK CFI 24fc0 .cfa: sp 32 +
STACK CFI 24fc8 .cfa: x29 32 + x19: .cfa -16 + ^ .ra: .cfa -24 + ^ x29: .cfa -32 + ^
STACK CFI 24ff4 .cfa: sp 32 +
STACK CFI 24ffc .cfa: sp 0 +
STACK CFI 25000 .cfa: x29 32 +
STACK CFI 25014 .cfa: sp 32 +
STACK CFI 2501c .cfa: sp 0 +
STACK CFI INIT 25020 24 .cfa: sp 0 +
STACK CFI 25024 .cfa: sp 32 +
STACK CFI 2502c .cfa: x29 32 + x19: .cfa -16 + ^ .ra: .cfa -24 + ^ x29: .cfa -32 + ^
STACK CFI 25038 .cfa: sp 32 +
STACK CFI 25040 .cfa: sp 0 +
STACK CFI INIT 25044 24 .cfa: sp 0 +
STACK CFI 25048 .cfa: sp 32 +
STACK CFI 25050 .cfa: x29 32 + x19: .cfa -16 + ^ .ra: .cfa -24 + ^ x29: .cfa -32 + ^
STACK CFI 2505c .cfa: sp 32 +
STACK CFI 25064 .cfa: sp 0 +
STACK CFI INIT 25068 24 .cfa: sp 0 +
STACK CFI 2506c .cfa: sp 32 +
STACK CFI 25074 .cfa: x29 32 + x19: .cfa -16 + ^ .ra: .cfa -24 + ^ x29: .cfa -32 + ^
STACK CFI 25080 .cfa: sp 32 +
STACK CFI 25088 .cfa: sp 0 +
STACK CFI INIT 2508c 24 .cfa: sp 0 +
STACK CFI 25090 .cfa: sp 32 +
STACK CFI 25098 .cfa: x29 32 + x19: .cfa -16 + ^ .ra: .cfa -24 + ^ x29: .cfa -32 + ^
STACK CFI 250a4 .cfa: sp 32 +
STACK CFI 250ac .cfa: sp 0 +
STACK CFI INIT 25340 4 .cfa: sp 0 +
STACK CFI INIT 25344 4 .cfa: sp 0 +
STACK CFI INIT 25550 4 .cfa: sp 0 +
STACK CFI INIT 25554 4 .cfa: sp 0 +
STACK CFI INIT 25558 4 .cfa: sp 0 +
STACK CFI INIT 2555c 4 .cfa: sp 0 +
STACK CFI INIT 25560 4 .cfa: sp 0 +
STACK CFI INIT 25564 4 .cfa: sp 0 +
STACK CFI INIT 25568 8 .cfa: sp 0 +
STACK CFI INIT 25570 8 .cfa: sp 0 +
STACK CFI INIT 25578 8 .cfa: sp 0 +
STACK CFI INIT 25580 4 .cfa: sp 0 +
STACK CFI INIT 25584 4 .cfa: sp 0 +
STACK CFI INIT 25588 4 .cfa: sp 0 +
STACK CFI INIT 2558c 8 .cfa: sp 0 +
STACK CFI INIT 25594 8 .cfa: sp 0 +
STACK CFI INIT 2559c 8 .cfa: sp 0 +
STACK CFI INIT 255a4 8 .cfa: sp 0 +
STACK CFI INIT 255ac 4 .cfa: sp 0 +
STACK CFI INIT 255b0 8 .cfa: sp 0 +
STACK CFI INIT 255b8 8 .cfa: sp 0 +
STACK CFI INIT 255c0 8 .cfa: sp 0 +
STACK CFI INIT 255c8 8 .cfa: sp 0 +
STACK CFI INIT 255d0 4 .cfa: sp 0 +
STACK CFI INIT 255d4 8 .cfa: sp 0 +
STACK CFI INIT 25a90 8 .cfa: sp 0 +
STACK CFI INIT 25a98 4 .cfa: sp 0 +
STACK CFI INIT 25a9c 4 .cfa: sp 0 +
STACK CFI INIT 25aa0 8 .cfa: sp 0 +
STACK CFI INIT 25aa8 4 .cfa: sp 0 +
STACK CFI INIT 25aac 8 .cfa: sp 0 +
STACK CFI INIT 25ab4 c .cfa: sp 0 +
STACK CFI INIT 25ac0 c .cfa: sp 0 +
STACK CFI INIT 25acc 8 .cfa: sp 0 +
STACK CFI INIT 25ad4 8 .cfa: sp 0 +
STACK CFI INIT 25adc 8 .cfa: sp 0 +
STACK CFI INIT 25ae4 8 .cfa: sp 0 +
STACK CFI INIT 25aec 4c .cfa: sp 0 +
STACK CFI 25af0 .cfa: sp 32 +
STACK CFI 25af8 .cfa: x29 32 + x19: .cfa -16 + ^ .ra: .cfa -24 + ^ x29: .cfa -32 + ^
STACK CFI 25b2c .cfa: sp 32 +
STACK CFI 25b34 .cfa: sp 0 +
STACK CFI INIT 26538 4 .cfa: sp 0 +
STACK CFI INIT 2653c 14 .cfa: sp 0 +
STACK CFI INIT 26a30 c .cfa: sp 0 +
STACK CFI INIT 26a3c 24c .cfa: sp 0 +
STACK CFI INIT 26c88 a0 .cfa: sp 0 +
STACK CFI 26c94 .cfa: sp 32 +
STACK CFI 26cec .cfa: sp 0 +
STACK CFI 26cf0 .cfa: sp 32 +
STACK CFI 26cf8 .cfa: sp 0 +
STACK CFI 26cfc .cfa: sp 32 +
STACK CFI 26d10 .cfa: sp 0 +
STACK CFI 26d14 .cfa: sp 32 +
STACK CFI 26d24 .cfa: sp 0 +
STACK CFI INIT 26d28 38 .cfa: sp 0 +
STACK CFI 26d34 .cfa: sp 32 +
STACK CFI 26d5c .cfa: sp 0 +
STACK CFI INIT 26ff4 7c .cfa: sp 0 +
STACK CFI 26ff8 .cfa: sp 32 +
STACK CFI 27000 .cfa: x29 32 + x19: .cfa -16 + ^ .ra: .cfa -24 + ^ x29: .cfa -32 + ^
STACK CFI 2702c .cfa: sp 32 +
STACK CFI 27034 .cfa: sp 0 +
STACK CFI 27038 .cfa: x29 32 +
STACK CFI 27064 .cfa: sp 32 +
STACK CFI 2706c .cfa: sp 0 +
STACK CFI INIT 270c0 2c .cfa: sp 0 +
STACK CFI 270c4 .cfa: sp 32 +
STACK CFI 270cc .cfa: x29 32 + x19: .cfa -16 + ^ .ra: .cfa -24 + ^ x29: .cfa -32 + ^
STACK CFI 270e0 .cfa: sp 32 +
STACK CFI 270e8 .cfa: sp 0 +
STACK CFI INIT 278ac 64 .cfa: sp 0 +
STACK CFI 278b0 .cfa: sp 32 +
STACK CFI 278b8 .cfa: x29 32 + x19: .cfa -16 + ^ .ra: .cfa -24 + ^ x29: .cfa -32 + ^
STACK CFI 278d4 .cfa: sp 32 +
STACK CFI 278dc .cfa: sp 0 +
STACK CFI 278e0 .cfa: x29 32 +
STACK CFI 27904 .cfa: sp 32 +
STACK CFI 2790c .cfa: sp 0 +
STACK CFI INIT 27910 570 .cfa: sp 0 +
STACK CFI 27914 .cfa: sp 176 +
STACK CFI 27928 .cfa: x29 64 + x19: .cfa -8 + ^ x20: .cfa -16 + ^ x21: .cfa -24 + ^ x22: .cfa -32 + ^ x23: .cfa -40 + ^ x24: .cfa -48 + ^ .ra: .cfa -56 + ^ x29: .cfa -64 + ^
STACK CFI 27b58 .cfa: sp 176 +
STACK CFI 27b6c .cfa: sp 0 +
STACK CFI 27b70 .cfa: x29 64 +
STACK CFI 27bbc .cfa: sp 176 +
STACK CFI 27bd0 .cfa: sp 0 +
STACK CFI 27bd4 .cfa: x29 64 +
STACK CFI 27c0c .cfa: sp 176 +
STACK CFI 27c20 .cfa: sp 0 +
STACK CFI 27c24 .cfa: x29 64 +
STACK CFI 27c3c .cfa: sp 176 +
STACK CFI 27c50 .cfa: sp 0 +
STACK CFI 27c54 .cfa: x29 64 +
STACK CFI 27c74 .cfa: sp 176 +
STACK CFI 27c88 .cfa: sp 0 +
STACK CFI 27c8c .cfa: x29 64 +
STACK CFI 27ca4 .cfa: sp 176 +
STACK CFI 27cb8 .cfa: sp 0 +
STACK CFI 27cbc .cfa: x29 64 +
STACK CFI 27cd0 .cfa: sp 176 +
STACK CFI 27ce4 .cfa: sp 0 +
STACK CFI 27ce8 .cfa: x29 64 +
STACK CFI 27cfc .cfa: sp 176 +
STACK CFI 27d10 .cfa: sp 0 +
STACK CFI 27d14 .cfa: x29 64 +
STACK CFI 27d24 .cfa: sp 176 +
STACK CFI 27d38 .cfa: sp 0 +
STACK CFI 27d3c .cfa: x29 64 +
STACK CFI 27d4c .cfa: sp 176 +
STACK CFI 27d60 .cfa: sp 0 +
STACK CFI 27d64 .cfa: x29 64 +
STACK CFI 27d7c .cfa: sp 176 +
STACK CFI 27d90 .cfa: sp 0 +
STACK CFI 27d94 .cfa: x29 64 +
STACK CFI 27da8 .cfa: sp 176 +
STACK CFI 27dbc .cfa: sp 0 +
STACK CFI 27dc0 .cfa: x29 64 +
STACK CFI 27dd8 .cfa: sp 176 +
STACK CFI 27dec .cfa: sp 0 +
STACK CFI 27df0 .cfa: x29 64 +
STACK CFI 27e1c .cfa: sp 176 +
STACK CFI 27e30 .cfa: sp 0 +
STACK CFI 27e34 .cfa: x29 64 +
STACK CFI 27e48 .cfa: sp 176 +
STACK CFI 27e5c .cfa: sp 0 +
STACK CFI 27e60 .cfa: x29 64 +
STACK CFI INIT 27e80 228 .cfa: sp 0 +
STACK CFI INIT 280a8 2dc .cfa: sp 0 +
STACK CFI INIT 28384 53c .cfa: sp 0 +
STACK CFI INIT 288c0 78 .cfa: sp 0 +
STACK CFI 288c4 .cfa: sp 48 +
STACK CFI 288d0 .cfa: x29 48 + x19: .cfa -8 + ^ x20: .cfa -16 + ^ x21: .cfa -24 + ^ x22: .cfa -32 + ^ .ra: .cfa -40 + ^ x29: .cfa -48 + ^
STACK CFI 28918 .cfa: sp 48 +
STACK CFI 28924 .cfa: sp 0 +
STACK CFI 28928 .cfa: sp 48 +
STACK CFI 28934 .cfa: sp 0 +
STACK CFI INIT 28938 8c .cfa: sp 0 +
STACK CFI 2893c .cfa: sp 32 +
STACK CFI 28944 .cfa: x29 32 + x19: .cfa -16 + ^ .ra: .cfa -24 + ^ x29: .cfa -32 + ^
STACK CFI 28978 .cfa: sp 32 +
STACK CFI 28980 .cfa: sp 0 +
STACK CFI 28984 .cfa: x29 32 +
STACK CFI 289b8 .cfa: sp 32 +
STACK CFI 289c0 .cfa: sp 0 +
STACK CFI INIT 289c4 24 .cfa: sp 0 +
STACK CFI 289c8 .cfa: sp 32 +
STACK CFI 289d0 .cfa: x29 32 + x19: .cfa -16 + ^ .ra: .cfa -24 + ^ x29: .cfa -32 + ^
STACK CFI 289dc .cfa: sp 32 +
STACK CFI 289e4 .cfa: sp 0 +
STACK CFI INIT 289e8 150 .cfa: sp 0 +
STACK CFI 289ec .cfa: sp 48 +
STACK CFI 289f8 .cfa: x29 48 + x19: .cfa -8 + ^ x20: .cfa -16 + ^ x21: .cfa -24 + ^ x22: .cfa -32 + ^ .ra: .cfa -40 + ^ x29: .cfa -48 + ^
STACK CFI 28b28 .cfa: sp 48 +
STACK CFI 28b34 .cfa: sp 0 +
STACK CFI INIT 28b38 68 .cfa: sp 0 +
STACK CFI 28b3c .cfa: sp 64 +
STACK CFI 28b48 .cfa: x29 32 + x19: .cfa -16 + ^ .ra: .cfa -24 + ^ x29: .cfa -32 + ^
STACK CFI 28b8c .cfa: sp 64 +
STACK CFI 28b98 .cfa: sp 0 +
STACK CFI 28b9c .cfa: x29 32 +
STACK CFI INIT 28ba0 90 .cfa: sp 0 +
STACK CFI 28ba4 .cfa: sp 32 +
STACK CFI 28bac .cfa: x29 32 + x19: .cfa -8 + ^ x20: .cfa -16 + ^ .ra: .cfa -24 + ^ x29: .cfa -32 + ^
STACK CFI 28bd8 .cfa: sp 32 +
STACK CFI 28be0 .cfa: sp 0 +
STACK CFI 28be4 .cfa: x29 32 +
STACK CFI 28c24 .cfa: sp 32 +
STACK CFI 28c2c .cfa: sp 0 +
STACK CFI INIT 28c30 ec .cfa: sp 0 +
STACK CFI 28c34 .cfa: sp 112 +
STACK CFI 28c44 .cfa: x29 48 + x19: .cfa -8 + ^ x20: .cfa -16 + ^ x21: .cfa -32 + ^ .ra: .cfa -40 + ^ x29: .cfa -48 + ^
STACK CFI 28d04 .cfa: sp 112 +
STACK CFI 28d14 .cfa: sp 0 +
STACK CFI 28d18 .cfa: x29 48 +
STACK CFI INIT 28d1c ec .cfa: sp 0 +
STACK CFI 28d20 .cfa: sp 112 +
STACK CFI 28d30 .cfa: x29 48 + x19: .cfa -8 + ^ x20: .cfa -16 + ^ x21: .cfa -32 + ^ .ra: .cfa -40 + ^ x29: .cfa -48 + ^
STACK CFI 28df0 .cfa: sp 112 +
STACK CFI 28e00 .cfa: sp 0 +
STACK CFI 28e04 .cfa: x29 48 +
STACK CFI INIT 28e08 48 .cfa: sp 0 +
STACK CFI 28e0c .cfa: sp 32 +
STACK CFI 28e14 .cfa: x29 32 + x19: .cfa -8 + ^ x20: .cfa -16 + ^ .ra: .cfa -24 + ^ x29: .cfa -32 + ^
STACK CFI 28e38 .cfa: sp 32 +
STACK CFI 28e40 .cfa: sp 0 +
STACK CFI 28e44 .cfa: x29 32 +
STACK CFI INIT 28e50 98 .cfa: sp 0 +
STACK CFI 28e54 .cfa: sp 80 +
STACK CFI 28e60 .cfa: x29 32 + x19: .cfa -16 + ^ .ra: .cfa -24 + ^ x29: .cfa -32 + ^
STACK CFI 28ed4 .cfa: sp 80 +
STACK CFI 28ee0 .cfa: sp 0 +
STACK CFI 28ee4 .cfa: x29 32 +
STACK CFI INIT 28ee8 260 .cfa: sp 0 +
STACK CFI 28eec .cfa: sp 112 +
STACK CFI 28f04 .cfa: x29 80 + x19: .cfa -8 + ^ x20: .cfa -16 + ^ x21: .cfa -24 + ^ x22: .cfa -32 + ^ x23: .cfa -40 + ^ x24: .cfa -48 + ^ x25: .cfa -64 + ^ .ra: .cfa -72 + ^ x29: .cfa -80 + ^
STACK CFI 290e8 .cfa: sp 112 +
STACK CFI 29100 .cfa: sp 0 +
STACK CFI 29104 .cfa: x29 80 +
STACK CFI INIT 29148 150 .cfa: sp 0 +
STACK CFI 2914c .cfa: sp 48 +
STACK CFI 29158 .cfa: x29 48 + x19: .cfa -8 + ^ x20: .cfa -16 + ^ x21: .cfa -24 + ^ x22: .cfa -32 + ^ .ra: .cfa -40 + ^ x29: .cfa -48 + ^
STACK CFI 29288 .cfa: sp 48 +
STACK CFI 29294 .cfa: sp 0 +
STACK CFI INIT 29298 1e0 .cfa: sp 0 +
STACK CFI 2929c .cfa: sp 96 +
STACK CFI 292b0 .cfa: x29 64 + x19: .cfa -8 + ^ x20: .cfa -16 + ^ x21: .cfa -24 + ^ x22: .cfa -32 + ^ x23: .cfa -40 + ^ x24: .cfa -48 + ^ .ra: .cfa -56 + ^ x29: .cfa -64 + ^
STACK CFI 29430 .cfa: sp 96 +
STACK CFI 29444 .cfa: sp 0 +
STACK CFI 29448 .cfa: x29 64 +
STACK CFI INIT 29478 284 .cfa: sp 0 +
STACK CFI 2947c .cfa: sp 112 +
STACK CFI 29494 .cfa: x29 80 + x19: .cfa -8 + ^ x20: .cfa -16 + ^ x21: .cfa -24 + ^ x22: .cfa -32 + ^ x23: .cfa -40 + ^ x24: .cfa -48 + ^ x25: .cfa -64 + ^ .ra: .cfa -72 + ^ x29: .cfa -80 + ^
STACK CFI 2969c .cfa: sp 112 +
STACK CFI 296b4 .cfa: sp 0 +
STACK CFI 296b8 .cfa: x29 80 +
STACK CFI INIT 296fc 208 .cfa: sp 0 +
STACK CFI 29700 .cfa: sp 96 +
STACK CFI 29714 .cfa: x29 64 + x19: .cfa -8 + ^ x20: .cfa -16 + ^ x21: .cfa -24 + ^ x22: .cfa -32 + ^ x23: .cfa -40 + ^ x24: .cfa -48 + ^ .ra: .cfa -56 + ^ x29: .cfa -64 + ^
STACK CFI 298bc .cfa: sp 96 +
STACK CFI 298d0 .cfa: sp 0 +
STACK CFI 298d4 .cfa: x29 64 +
STACK CFI INIT 29904 360 .cfa: sp 0 +
STACK CFI 29908 .cfa: sp 160 +
STACK CFI 29924 .cfa: x29 96 + x19: .cfa -8 + ^ x20: .cfa -16 + ^ x21: .cfa -24 + ^ x22: .cfa -32 + ^ x23: .cfa -40 + ^ x24: .cfa -48 + ^ x25: .cfa -56 + ^ x26: .cfa -64 + ^ x27: .cfa -72 + ^ x28: .cfa -80 + ^ .ra: .cfa -88 + ^ x29: .cfa -96 + ^
STACK CFI 29bf0 .cfa: sp 160 +
STACK CFI 29c0c .cfa: sp 0 +
STACK CFI 29c10 .cfa: x29 96 +
STACK CFI INIT 29c64 314 .cfa: sp 0 +
STACK CFI 29c68 .cfa: sp 144 +
STACK CFI 29c84 .cfa: x29 96 + x19: .cfa -8 + ^ x20: .cfa -16 + ^ x21: .cfa -24 + ^ x22: .cfa -32 + ^ x23: .cfa -40 + ^ x24: .cfa -48 + ^ x25: .cfa -56 + ^ x26: .cfa -64 + ^ x27: .cfa -72 + ^ x28: .cfa -80 + ^ .ra: .cfa -88 + ^ x29: .cfa -96 + ^
STACK CFI 29f00 .cfa: sp 144 +
STACK CFI 29f1c .cfa: sp 0 +
STACK CFI 29f20 .cfa: x29 96 +
STACK CFI INIT 29f78 290 .cfa: sp 0 +
STACK CFI 29f7c .cfa: sp 128 +
STACK CFI 29f94 .cfa: x29 80 + x19: .cfa -8 + ^ x20: .cfa -16 + ^ x21: .cfa -24 + ^ x22: .cfa -32 + ^ x23: .cfa -40 + ^ x24: .cfa -48 + ^ x25: .cfa -56 + ^ x26: .cfa -64 + ^ .ra: .cfa -72 + ^ x29: .cfa -80 + ^
STACK CFI 2a1e8 .cfa: sp 128 +
STACK CFI 2a200 .cfa: sp 0 +
STACK CFI 2a204 .cfa: x29 80 +
STACK CFI INIT 2a208 ddc .cfa: sp 0 +
STACK CFI 2a20c .cfa: sp 144 +
STACK CFI 2a228 .cfa: x29 96 + x19: .cfa -8 + ^ x20: .cfa -16 + ^ x21: .cfa -24 + ^ x22: .cfa -32 + ^ x23: .cfa -40 + ^ x24: .cfa -48 + ^ x25: .cfa -56 + ^ x26: .cfa -64 + ^ x27: .cfa -72 + ^ x28: .cfa -80 + ^ .ra: .cfa -88 + ^ x29: .cfa -96 + ^
STACK CFI 2aebc .cfa: sp 144 +
STACK CFI 2aed8 .cfa: sp 0 +
STACK CFI 2aedc .cfa: x29 96 +
STACK CFI INIT 2afe4 1d0 .cfa: sp 0 +
STACK CFI 2afe8 .cfa: sp 80 +
STACK CFI 2affc .cfa: x29 80 + x19: .cfa -8 + ^ x20: .cfa -16 + ^ x21: .cfa -24 + ^ x22: .cfa -32 + ^ x23: .cfa -40 + ^ x24: .cfa -48 + ^ x25: .cfa -64 + ^ .ra: .cfa -72 + ^ x29: .cfa -80 + ^
STACK CFI 2b19c .cfa: sp 80 +
STACK CFI 2b1b0 .cfa: sp 0 +
STACK CFI INIT 2b1b4 23c .cfa: sp 0 +
STACK CFI 2b1b8 .cfa: sp 112 +
STACK CFI 2b1cc .cfa: x29 64 + x19: .cfa -8 + ^ x20: .cfa -16 + ^ x21: .cfa -24 + ^ x22: .cfa -32 + ^ x23: .cfa -40 + ^ x24: .cfa -48 + ^ .ra: .cfa -56 + ^ x29: .cfa -64 + ^
STACK CFI 2b3a8 .cfa: sp 112 +
STACK CFI 2b3bc .cfa: sp 0 +
STACK CFI 2b3c0 .cfa: x29 64 +
STACK CFI INIT 2b3f0 30c .cfa: sp 0 +
STACK CFI 2b3f4 .cfa: sp 80 +
STACK CFI 2b408 .cfa: x29 64 + x19: .cfa -8 + ^ x20: .cfa -16 + ^ x21: .cfa -24 + ^ x22: .cfa -32 + ^ x23: .cfa -40 + ^ x24: .cfa -48 + ^ .ra: .cfa -56 + ^ x29: .cfa -64 + ^
STACK CFI 2b584 .cfa: sp 80 +
STACK CFI 2b598 .cfa: sp 0 +
STACK CFI 2b59c .cfa: x29 64 +
STACK CFI INIT 2b6fc 178 .cfa: sp 0 +
STACK CFI 2b700 .cfa: sp 80 +
STACK CFI 2b714 .cfa: x29 64 + x19: .cfa -8 + ^ x20: .cfa -16 + ^ x21: .cfa -24 + ^ x22: .cfa -32 + ^ x23: .cfa -40 + ^ x24: .cfa -48 + ^ .ra: .cfa -56 + ^ x29: .cfa -64 + ^
STACK CFI 2b858 .cfa: sp 80 +
STACK CFI 2b86c .cfa: sp 0 +
STACK CFI 2b870 .cfa: x29 64 +
STACK CFI INIT 2b874 178 .cfa: sp 0 +
STACK CFI 2b878 .cfa: sp 80 +
STACK CFI 2b88c .cfa: x29 64 + x19: .cfa -8 + ^ x20: .cfa -16 + ^ x21: .cfa -24 + ^ x22: .cfa -32 + ^ x23: .cfa -40 + ^ x24: .cfa -48 + ^ .ra: .cfa -56 + ^ x29: .cfa -64 + ^
STACK CFI 2b9d0 .cfa: sp 80 +
STACK CFI 2b9e4 .cfa: sp 0 +
STACK CFI 2b9e8 .cfa: x29 64 +
STACK CFI INIT 2b9ec 240 .cfa: sp 0 +
STACK CFI 2b9f0 .cfa: sp 96 +
STACK CFI 2ba08 .cfa: x29 96 + x19: .cfa -8 + ^ x20: .cfa -16 + ^ x21: .cfa -24 + ^ x22: .cfa -32 + ^ x23: .cfa -40 + ^ x24: .cfa -48 + ^ x25: .cfa -56 + ^ x26: .cfa -64 + ^ x27: .cfa -72 + ^ x28: .cfa -80 + ^ .ra: .cfa -88 + ^ x29: .cfa -96 + ^
STACK CFI 2bc10 .cfa: sp 96 +
STACK CFI 2bc28 .cfa: sp 0 +
STACK CFI INIT 2c8a0 154 .cfa: sp 0 +
STACK CFI 2c8a4 .cfa: sp 96 +
STACK CFI 2c8b8 .cfa: x29 64 + x19: .cfa -8 + ^ x20: .cfa -16 + ^ x21: .cfa -24 + ^ x22: .cfa -32 + ^ x23: .cfa -48 + ^ .ra: .cfa -56 + ^ x29: .cfa -64 + ^
STACK CFI 2c998 .cfa: sp 96 +
STACK CFI 2c9ac .cfa: sp 0 +
STACK CFI 2c9b0 .cfa: x29 64 +
STACK CFI INIT 2cc60 44 .cfa: sp 0 +
STACK CFI 2cc64 .cfa: sp 32 +
STACK CFI 2cc6c .cfa: x29 32 + x19: .cfa -16 + ^ .ra: .cfa -24 + ^ x29: .cfa -32 + ^
STACK CFI 2cc88 .cfa: sp 32 +
STACK CFI 2cc90 .cfa: sp 0 +
STACK CFI 2cc94 .cfa: x29 32 +
STACK CFI 2cc98 .cfa: sp 32 +
STACK CFI 2cca0 .cfa: sp 0 +
STACK CFI INIT 2cca4 1d0 .cfa: sp 0 +
STACK CFI 2cca8 .cfa: sp 64 +
STACK CFI 2ccb8 .cfa: x29 64 + x19: .cfa -8 + ^ x20: .cfa -16 + ^ x21: .cfa -24 + ^ x22: .cfa -32 + ^ x23: .cfa -40 + ^ x24: .cfa -48 + ^ .ra: .cfa -56 + ^ x29: .cfa -64 + ^
STACK CFI 2cd78 .cfa: sp 64 +
STACK CFI 2cd88 .cfa: sp 0 +
STACK CFI 2cd8c .cfa: x29 64 +
STACK CFI INIT 2ce74 17c .cfa: sp 0 +
STACK CFI INIT 2d3a8 a0 .cfa: sp 0 +
STACK CFI 2d3ac .cfa: sp 48 +
STACK CFI 2d3b8 .cfa: x29 48 + x19: .cfa -8 + ^ x20: .cfa -16 + ^ x21: .cfa -24 + ^ x22: .cfa -32 + ^ .ra: .cfa -40 + ^ x29: .cfa -48 + ^
STACK CFI 2d424 .cfa: sp 48 +
STACK CFI 2d430 .cfa: sp 0 +
STACK CFI 2d434 .cfa: sp 48 +
STACK CFI 2d440 .cfa: sp 0 +
STACK CFI 2d444 .cfa: x29 48 +
STACK CFI INIT 2e0fc 158 .cfa: sp 0 +
STACK CFI 2e100 .cfa: sp 96 +
STACK CFI 2e114 .cfa: x29 64 + x19: .cfa -8 + ^ x20: .cfa -16 + ^ x21: .cfa -24 + ^ x22: .cfa -32 + ^ x23: .cfa -48 + ^ .ra: .cfa -56 + ^ x29: .cfa -64 + ^
STACK CFI 2e1f8 .cfa: sp 96 +
STACK CFI 2e20c .cfa: sp 0 +
STACK CFI 2e210 .cfa: x29 64 +
STACK CFI INIT 2e254 190 .cfa: sp 0 +
STACK CFI INIT 2eee0 1dc .cfa: sp 0 +
STACK CFI 2eee4 .cfa: sp 80 +
STACK CFI 2eef8 .cfa: x29 80 + x19: .cfa -8 + ^ x20: .cfa -16 + ^ x21: .cfa -24 + ^ x22: .cfa -32 + ^ x23: .cfa -40 + ^ x24: .cfa -48 + ^ x25: .cfa -64 + ^ .ra: .cfa -72 + ^ x29: .cfa -80 + ^
STACK CFI 2f0a4 .cfa: sp 80 +
STACK CFI 2f0b8 .cfa: sp 0 +
STACK CFI INIT 304ec 124 .cfa: sp 0 +
STACK CFI 3051c .cfa: sp 32 +
STACK CFI 30524 .cfa: x29 32 + x19: .cfa -8 + ^ x20: .cfa -16 + ^ .ra: .cfa -24 + ^ x29: .cfa -32 + ^
STACK CFI 30604 .cfa: sp 32 +
STACK CFI 3060c .cfa: sp 0 +
STACK CFI INIT 30d6c 320 .cfa: sp 0 +
STACK CFI 30d70 .cfa: sp 64 +
STACK CFI 30d80 .cfa: x29 64 + x19: .cfa -8 + ^ x20: .cfa -16 + ^ x21: .cfa -24 + ^ x22: .cfa -32 + ^ x23: .cfa -40 + ^ x24: .cfa -48 + ^ .ra: .cfa -56 + ^ x29: .cfa -64 + ^
STACK CFI 30dfc .cfa: sp 64 +
STACK CFI 30e0c .cfa: sp 0 +
STACK CFI 30e10 .cfa: x29 64 +
STACK CFI 30fe4 .cfa: sp 64 +
STACK CFI 30ff4 .cfa: sp 0 +
STACK CFI 30ff8 .cfa: x29 64 +
STACK CFI 31008 .cfa: sp 64 +
STACK CFI 31018 .cfa: sp 0 +
STACK CFI 3101c .cfa: x29 64 +
STACK CFI INIT 3108c a0 .cfa: sp 0 +
STACK CFI 31090 .cfa: sp 48 +
STACK CFI 3109c .cfa: x29 48 + x19: .cfa -8 + ^ x20: .cfa -16 + ^ x21: .cfa -24 + ^ x22: .cfa -32 + ^ .ra: .cfa -40 + ^ x29: .cfa -48 + ^
STACK CFI 31108 .cfa: sp 48 +
STACK CFI 31114 .cfa: sp 0 +
STACK CFI 31118 .cfa: sp 48 +
STACK CFI 31124 .cfa: sp 0 +
STACK CFI 31128 .cfa: x29 48 +
STACK CFI INIT 31fdc 160 .cfa: sp 0 +
STACK CFI 31fe0 .cfa: sp 64 +
STACK CFI 31ff0 .cfa: x29 64 + x19: .cfa -8 + ^ x20: .cfa -16 + ^ x21: .cfa -24 + ^ x22: .cfa -32 + ^ x23: .cfa -48 + ^ .ra: .cfa -56 + ^ x29: .cfa -64 + ^
STACK CFI 320e8 .cfa: sp 64 +
STACK CFI 320f8 .cfa: sp 0 +
STACK CFI 320fc .cfa: x29 64 +
STACK CFI INIT 3213c 214 .cfa: sp 0 +
STACK CFI 32140 .cfa: sp 128 +
STACK CFI 3215c .cfa: x29 96 + x19: .cfa -8 + ^ x20: .cfa -16 + ^ x21: .cfa -24 + ^ x22: .cfa -32 + ^ x23: .cfa -40 + ^ x24: .cfa -48 + ^ x25: .cfa -56 + ^ x26: .cfa -64 + ^ x27: .cfa -80 + ^ .ra: .cfa -88 + ^ x29: .cfa -96 + ^
STACK CFI 322d8 .cfa: sp 128 +
STACK CFI 322f4 .cfa: sp 0 +
STACK CFI 322f8 .cfa: x29 96 +
STACK CFI INIT 33fec 290 .cfa: sp 0 +
STACK CFI 33ff0 .cfa: sp 16 +
STACK CFI 33ff4 .cfa: x29 16 + .ra: .cfa -8 + ^ x29: .cfa -16 + ^
STACK CFI 34080 .cfa: sp 16 +
STACK CFI 34084 .cfa: sp 0 +
STACK CFI 34088 .cfa: x29 16 +
STACK CFI 340d8 .cfa: sp 16 +
STACK CFI 340dc .cfa: sp 0 +
STACK CFI 340e0 .cfa: x29 16 +
STACK CFI 34244 .cfa: sp 16 +
STACK CFI 34248 .cfa: sp 0 +
STACK CFI 3424c .cfa: x29 16 +
STACK CFI INIT 3427c 158 .cfa: sp 0 +
STACK CFI 34280 .cfa: sp 112 +
STACK CFI 3429c .cfa: x29 96 + x19: .cfa -8 + ^ x20: .cfa -16 + ^ x21: .cfa -24 + ^ x22: .cfa -32 + ^ x23: .cfa -40 + ^ x24: .cfa -48 + ^ x25: .cfa -56 + ^ x26: .cfa -64 + ^ x27: .cfa -72 + ^ x28: .cfa -80 + ^ .ra: .cfa -88 + ^ x29: .cfa -96 + ^
STACK CFI 34384 .cfa: sp 112 +
STACK CFI 34388 .cfa: x29 96 +
STACK CFI 34390 .cfa: sp 112 +
STACK CFI 343ac .cfa: sp 0 +
STACK CFI 343b0 .cfa: x29 96 +
STACK CFI 343d0 .cfa: sp 112 +
STACK CFI INIT 343d4 e54 .cfa: sp 0 +
STACK CFI 343d8 .cfa: sp 192 +
STACK CFI 343f4 .cfa: x29 96 + x19: .cfa -8 + ^ x20: .cfa -16 + ^ x21: .cfa -24 + ^ x22: .cfa -32 + ^ x23: .cfa -40 + ^ x24: .cfa -48 + ^ x25: .cfa -56 + ^ x26: .cfa -64 + ^ x27: .cfa -72 + ^ x28: .cfa -80 + ^ .ra: .cfa -88 + ^ x29: .cfa -96 + ^
STACK CFI 35110 .cfa: sp 192 +
STACK CFI 3512c .cfa: sp 0 +
STACK CFI 35130 .cfa: x29 96 +
STACK CFI INIT 35228 1068 .cfa: sp 0 +
STACK CFI 3522c .cfa: sp 288 +
STACK CFI 35248 .cfa: x29 96 + x19: .cfa -8 + ^ x20: .cfa -16 + ^ x21: .cfa -24 + ^ x22: .cfa -32 + ^ x23: .cfa -40 + ^ x24: .cfa -48 + ^ x25: .cfa -56 + ^ x26: .cfa -64 + ^ x27: .cfa -72 + ^ x28: .cfa -80 + ^ .ra: .cfa -88 + ^ x29: .cfa -96 + ^
STACK CFI 35fd8 .cfa: sp 288 +
STACK CFI 35ff4 .cfa: sp 0 +
STACK CFI 35ff8 .cfa: x29 96 +
STACK CFI INIT 36290 520 .cfa: sp 0 +
STACK CFI 36294 .cfa: sp 144 +
STACK CFI 362b0 .cfa: x29 96 + x19: .cfa -8 + ^ x20: .cfa -16 + ^ x21: .cfa -24 + ^ x22: .cfa -32 + ^ x23: .cfa -40 + ^ x24: .cfa -48 + ^ x25: .cfa -56 + ^ x26: .cfa -64 + ^ x27: .cfa -72 + ^ x28: .cfa -80 + ^ .ra: .cfa -88 + ^ x29: .cfa -96 + ^
STACK CFI 3678c .cfa: sp 144 +
STACK CFI 367a8 .cfa: sp 0 +
STACK CFI 367ac .cfa: x29 96 +
STACK CFI INIT 37150 136c .cfa: sp 0 +
STACK CFI 37154 .cfa: sp 224 +
STACK CFI 37170 .cfa: x29 96 + x19: .cfa -8 + ^ x20: .cfa -16 + ^ x21: .cfa -24 + ^ x22: .cfa -32 + ^ x23: .cfa -40 + ^ x24: .cfa -48 + ^ x25: .cfa -56 + ^ x26: .cfa -64 + ^ x27: .cfa -72 + ^ x28: .cfa -80 + ^ .ra: .cfa -88 + ^ x29: .cfa -96 + ^
STACK CFI 38498 .cfa: sp 224 +
STACK CFI 384b4 .cfa: sp 0 +
STACK CFI 384b8 .cfa: x29 96 +
STACK CFI INIT 384bc 1b8 .cfa: sp 0 +
STACK CFI INIT 18cc0 190 .cfa: sp 0 +
STACK CFI 18cc4 .cfa: sp 96 +
STACK CFI 18cd8 .cfa: x29 64 + x19: .cfa -8 + ^ x20: .cfa -16 + ^ x21: .cfa -24 + ^ x22: .cfa -32 + ^ x23: .cfa -48 + ^ .ra: .cfa -56 + ^ x29: .cfa -64 + ^
STACK CFI 18dd0 .cfa: sp 96 +
STACK CFI 18de4 .cfa: sp 0 +
STACK CFI 18de8 .cfa: x29 64 +
STACK CFI INIT 18f80 126c .cfa: sp 0 +
STACK CFI 18f84 .cfa: sp 176 +
STACK CFI 18f94 .cfa: x29 48 + x19: .cfa -8 + ^ x20: .cfa -16 + ^ x21: .cfa -24 + ^ x22: .cfa -32 + ^ .ra: .cfa -40 + ^ x29: .cfa -48 + ^
STACK CFI 19fec .cfa: sp 176 +
STACK CFI 19ffc .cfa: sp 0 +
STACK CFI 1a000 .cfa: x29 48 +
STACK CFI INIT 1a1ec 43c .cfa: sp 0 +
STACK CFI 1a1f0 .cfa: sp 224 +
STACK CFI 1a20c .cfa: x29 96 + x19: .cfa -8 + ^ x20: .cfa -16 + ^ x21: .cfa -24 + ^ x22: .cfa -32 + ^ x23: .cfa -40 + ^ x24: .cfa -48 + ^ x25: .cfa -56 + ^ x26: .cfa -64 + ^ x27: .cfa -72 + ^ x28: .cfa -80 + ^ .ra: .cfa -88 + ^ x29: .cfa -96 + ^
STACK CFI 1a520 .cfa: sp 224 +
STACK CFI 1a53c .cfa: sp 0 +
STACK CFI 1a540 .cfa: x29 96 +
STACK CFI INIT 1ad78 50 .cfa: sp 0 +
STACK CFI 1ad7c .cfa: sp 32 +
STACK CFI 1ad84 .cfa: x29 32 + x19: .cfa -8 + ^ x20: .cfa -16 + ^ .ra: .cfa -24 + ^ x29: .cfa -32 + ^
STACK CFI INIT 1ae2c f8 .cfa: sp 0 +
STACK CFI 1ae30 .cfa: sp 48 +
STACK CFI 1ae3c .cfa: x29 48 + x19: .cfa -8 + ^ x20: .cfa -16 + ^ x21: .cfa -32 + ^ .ra: .cfa -40 + ^ x29: .cfa -48 + ^
STACK CFI 1aea8 .cfa: sp 48 +
STACK CFI 1aeb4 .cfa: sp 0 +
STACK CFI 1aeb8 .cfa: x29 48 +
STACK CFI INIT 1afd0 204 .cfa: sp 0 +
STACK CFI 1afd4 .cfa: sp 80 +
STACK CFI 1afe4 .cfa: x29 48 + x19: .cfa -8 + ^ x20: .cfa -16 + ^ x21: .cfa -32 + ^ .ra: .cfa -40 + ^ x29: .cfa -48 + ^
STACK CFI 1b128 .cfa: sp 80 +
STACK CFI 1b138 .cfa: sp 0 +
STACK CFI 1b13c .cfa: x29 48 +
STACK CFI INIT 1b3bc 164 .cfa: sp 0 +
STACK CFI 1b3c0 .cfa: sp 112 +
STACK CFI 1b3d0 .cfa: x29 48 + x19: .cfa -8 + ^ x20: .cfa -16 + ^ x21: .cfa -24 + ^ x22: .cfa -32 + ^ .ra: .cfa -40 + ^ x29: .cfa -48 + ^
STACK CFI 1b4bc .cfa: sp 112 +
STACK CFI 1b4cc .cfa: sp 0 +
STACK CFI 1b4d0 .cfa: x29 48 +
STACK CFI INIT 1bf5c 204 .cfa: sp 0 +
STACK CFI 1bf60 .cfa: sp 80 +
STACK CFI 1bf70 .cfa: x29 48 + x19: .cfa -8 + ^ x20: .cfa -16 + ^ x21: .cfa -32 + ^ .ra: .cfa -40 + ^ x29: .cfa -48 + ^
STACK CFI 1c0b4 .cfa: sp 80 +
STACK CFI 1c0c4 .cfa: sp 0 +
STACK CFI 1c0c8 .cfa: x29 48 +
STACK CFI INIT 1c1e4 204 .cfa: sp 0 +
STACK CFI 1c1e8 .cfa: sp 80 +
STACK CFI 1c1f8 .cfa: x29 48 + x19: .cfa -8 + ^ x20: .cfa -16 + ^ x21: .cfa -32 + ^ .ra: .cfa -40 + ^ x29: .cfa -48 + ^
STACK CFI 1c33c .cfa: sp 80 +
STACK CFI 1c34c .cfa: sp 0 +
STACK CFI 1c350 .cfa: x29 48 +
STACK CFI INIT 1c46c 204 .cfa: sp 0 +
STACK CFI 1c470 .cfa: sp 80 +
STACK CFI 1c480 .cfa: x29 48 + x19: .cfa -8 + ^ x20: .cfa -16 + ^ x21: .cfa -32 + ^ .ra: .cfa -40 + ^ x29: .cfa -48 + ^
STACK CFI 1c5c4 .cfa: sp 80 +
STACK CFI 1c5d4 .cfa: sp 0 +
STACK CFI 1c5d8 .cfa: x29 48 +
STACK CFI INIT 1c6f4 204 .cfa: sp 0 +
STACK CFI 1c6f8 .cfa: sp 80 +
STACK CFI 1c708 .cfa: x29 48 + x19: .cfa -8 + ^ x20: .cfa -16 + ^ x21: .cfa -32 + ^ .ra: .cfa -40 + ^ x29: .cfa -48 + ^
STACK CFI 1c84c .cfa: sp 80 +
STACK CFI 1c85c .cfa: sp 0 +
STACK CFI 1c860 .cfa: x29 48 +
STACK CFI INIT 1c97c 204 .cfa: sp 0 +
STACK CFI 1c980 .cfa: sp 80 +
STACK CFI 1c990 .cfa: x29 48 + x19: .cfa -8 + ^ x20: .cfa -16 + ^ x21: .cfa -32 + ^ .ra: .cfa -40 + ^ x29: .cfa -48 + ^
STACK CFI 1cad4 .cfa: sp 80 +
STACK CFI 1cae4 .cfa: sp 0 +
STACK CFI 1cae8 .cfa: x29 48 +
STACK CFI INIT 1d170 164 .cfa: sp 0 +
STACK CFI 1d174 .cfa: sp 112 +
STACK CFI 1d184 .cfa: x29 48 + x19: .cfa -8 + ^ x20: .cfa -16 + ^ x21: .cfa -24 + ^ x22: .cfa -32 + ^ .ra: .cfa -40 + ^ x29: .cfa -48 + ^
STACK CFI 1d270 .cfa: sp 112 +
STACK CFI 1d280 .cfa: sp 0 +
STACK CFI 1d284 .cfa: x29 48 +
STACK CFI INIT 1d424 1cb8 .cfa: sp 0 +
STACK CFI 1d428 .cfa: sp 304 +
STACK CFI 1d444 .cfa: x29 96 + x19: .cfa -8 + ^ x20: .cfa -16 + ^ x21: .cfa -24 + ^ x22: .cfa -32 + ^ x23: .cfa -40 + ^ x24: .cfa -48 + ^ x25: .cfa -56 + ^ x26: .cfa -64 + ^ x27: .cfa -72 + ^ x28: .cfa -80 + ^ .ra: .cfa -88 + ^ x29: .cfa -96 + ^
STACK CFI 1e9c8 .cfa: sp 304 +
STACK CFI 1e9e4 .cfa: sp 0 +
STACK CFI 1e9e8 .cfa: x29 96 +
STACK CFI INIT 1f12c 74 .cfa: sp 0 +
STACK CFI 1f130 .cfa: sp 48 +
STACK CFI 1f13c .cfa: x29 32 + x19: .cfa -8 + ^ x20: .cfa -16 + ^ .ra: .cfa -24 + ^ x29: .cfa -32 + ^
STACK CFI 1f188 .cfa: sp 48 +
STACK CFI 1f194 .cfa: sp 0 +
STACK CFI 1f198 .cfa: x29 32 +
STACK CFI INIT 1f220 154 .cfa: sp 0 +
STACK CFI 1f224 .cfa: sp 384 +
STACK CFI 1f238 .cfa: x29 64 + x19: .cfa -8 + ^ x20: .cfa -16 + ^ x21: .cfa -24 + ^ x22: .cfa -32 + ^ x23: .cfa -40 + ^ x28: .cfa -48 + ^ .ra: .cfa -56 + ^ x29: .cfa -64 + ^
STACK CFI 1f31c .cfa: sp 384 +
STACK CFI 1f330 .cfa: sp 0 +
STACK CFI 1f334 .cfa: x29 64 +
STACK CFI INIT 1f3a8 12c .cfa: sp 0 +
STACK CFI 1f3ac .cfa: sp 80 +
STACK CFI 1f3c0 .cfa: x29 80 + x19: .cfa -8 + ^ x20: .cfa -16 + ^ x21: .cfa -24 + ^ x22: .cfa -32 + ^ x23: .cfa -40 + ^ x24: .cfa -48 + ^ x25: .cfa -56 + ^ x26: .cfa -64 + ^ .ra: .cfa -72 + ^ x29: .cfa -80 + ^
STACK CFI 1f488 .cfa: sp 80 +
STACK CFI 1f49c .cfa: sp 0 +
STACK CFI 1f4a0 .cfa: x29 80 +
STACK CFI INIT 1f578 1a4 .cfa: sp 0 +
STACK CFI 1f57c .cfa: sp 112 +
STACK CFI 1f594 .cfa: x29 80 + x19: .cfa -8 + ^ x20: .cfa -16 + ^ x21: .cfa -24 + ^ x22: .cfa -32 + ^ x23: .cfa -40 + ^ x24: .cfa -48 + ^ x25: .cfa -56 + ^ x26: .cfa -64 + ^ .ra: .cfa -72 + ^ x29: .cfa -80 + ^
STACK CFI 1f684 .cfa: sp 112 +
STACK CFI 1f69c .cfa: sp 0 +
STACK CFI 1f6a0 .cfa: x29 80 +
STACK CFI INIT 1f71c 1dc .cfa: sp 0 +
STACK CFI 1f720 .cfa: sp 128 +
STACK CFI 1f73c .cfa: x29 96 + x19: .cfa -8 + ^ x20: .cfa -16 + ^ x21: .cfa -24 + ^ x22: .cfa -32 + ^ x23: .cfa -40 + ^ x24: .cfa -48 + ^ x25: .cfa -56 + ^ x26: .cfa -64 + ^ x27: .cfa -80 + ^ .ra: .cfa -88 + ^ x29: .cfa -96 + ^
STACK CFI 1f8a8 .cfa: sp 128 +
STACK CFI 1f8c4 .cfa: sp 0 +
STACK CFI 1f8c8 .cfa: x29 96 +
STACK CFI INIT 1f8f8 178 .cfa: sp 0 +
STACK CFI 1f8fc .cfa: sp 80 +
STACK CFI 1f910 .cfa: x29 80 + x19: .cfa -8 + ^ x20: .cfa -16 + ^ x21: .cfa -24 + ^ x22: .cfa -32 + ^ x23: .cfa -40 + ^ x24: .cfa -48 + ^ x25: .cfa -64 + ^ .ra: .cfa -72 + ^ x29: .cfa -80 + ^
STACK CFI 1fa3c .cfa: sp 80 +
STACK CFI 1fa50 .cfa: sp 0 +
STACK CFI 1fa54 .cfa: x29 80 +
STACK CFI INIT 1fbb8 228 .cfa: sp 0 +
STACK CFI 1fbbc .cfa: sp 128 +
STACK CFI 1fbd4 .cfa: x29 80 + x19: .cfa -8 + ^ x20: .cfa -16 + ^ x21: .cfa -24 + ^ x22: .cfa -32 + ^ x23: .cfa -40 + ^ x24: .cfa -48 + ^ x25: .cfa -64 + ^ .ra: .cfa -72 + ^ x29: .cfa -80 + ^
STACK CFI 1fd70 .cfa: sp 128 +
STACK CFI 1fd88 .cfa: sp 0 +
STACK CFI 1fd8c .cfa: x29 80 +
STACK CFI INIT 204bc fa8 .cfa: sp 0 +
STACK CFI 204c0 .cfa: sp 112 +
STACK CFI 204dc .cfa: x29 96 + x19: .cfa -8 + ^ x20: .cfa -16 + ^ x21: .cfa -24 + ^ x22: .cfa -32 + ^ x23: .cfa -40 + ^ x24: .cfa -48 + ^ x25: .cfa -56 + ^ x26: .cfa -64 + ^ x27: .cfa -72 + ^ x28: .cfa -80 + ^ .ra: .cfa -88 + ^ x29: .cfa -96 + ^ v8: .cfa -112 + ^
STACK CFI 21300 .cfa: sp 112 +
STACK CFI 2131c .cfa: sp 0 +
STACK CFI 21320 .cfa: x29 96 +
STACK CFI INIT 21464 184 .cfa: sp 0 +
STACK CFI 21468 .cfa: sp 160 +
STACK CFI 21480 .cfa: x29 80 + x19: .cfa -8 + ^ x20: .cfa -16 + ^ x21: .cfa -24 + ^ x22: .cfa -32 + ^ x23: .cfa -40 + ^ x24: .cfa -48 + ^ x25: .cfa -56 + ^ x26: .cfa -64 + ^ .ra: .cfa -72 + ^ x29: .cfa -80 + ^
STACK CFI 21580 .cfa: sp 160 +
STACK CFI 21598 .cfa: sp 0 +
STACK CFI 2159c .cfa: x29 80 +
STACK CFI INIT 21640 2f0 .cfa: sp 0 +
STACK CFI 21644 .cfa: sp 96 +
STACK CFI 2165c .cfa: x29 96 + x19: .cfa -8 + ^ x20: .cfa -16 + ^ x21: .cfa -24 + ^ x22: .cfa -32 + ^ x23: .cfa -40 + ^ x24: .cfa -48 + ^ x25: .cfa -56 + ^ x26: .cfa -64 + ^ x27: .cfa -72 + ^ x28: .cfa -80 + ^ .ra: .cfa -88 + ^ x29: .cfa -96 + ^
STACK CFI 218b8 .cfa: sp 96 +
STACK CFI 218d0 .cfa: sp 0 +
STACK CFI 218d4 .cfa: x29 96 +
STACK CFI INIT 21b8c 134 .cfa: sp 0 +
STACK CFI 21b90 .cfa: sp 128 +
STACK CFI 21ba4 .cfa: x29 64 + x19: .cfa -8 + ^ x20: .cfa -16 + ^ x21: .cfa -24 + ^ x22: .cfa -32 + ^ x23: .cfa -40 + ^ x24: .cfa -48 + ^ .ra: .cfa -56 + ^ x29: .cfa -64 + ^
STACK CFI 21c70 .cfa: sp 128 +
STACK CFI 21c84 .cfa: sp 0 +
STACK CFI 21c88 .cfa: x29 64 +
STACK CFI INIT 21cc0 4a4 .cfa: sp 0 +
STACK CFI 21cc4 .cfa: sp 96 +
STACK CFI 21cdc .cfa: x29 96 + x19: .cfa -8 + ^ x20: .cfa -16 + ^ x21: .cfa -24 + ^ x22: .cfa -32 + ^ x23: .cfa -40 + ^ x24: .cfa -48 + ^ x25: .cfa -56 + ^ x26: .cfa -64 + ^ x27: .cfa -72 + ^ x28: .cfa -80 + ^ .ra: .cfa -88 + ^ x29: .cfa -96 + ^
STACK CFI 220b0 .cfa: sp 96 +
STACK CFI 220c8 .cfa: sp 0 +
STACK CFI 220cc .cfa: x29 96 +
STACK CFI INIT 22164 5b8 .cfa: sp 0 +
STACK CFI 22168 .cfa: sp 96 +
STACK CFI 22180 .cfa: x29 96 + x19: .cfa -8 + ^ x20: .cfa -16 + ^ x21: .cfa -24 + ^ x22: .cfa -32 + ^ x23: .cfa -40 + ^ x24: .cfa -48 + ^ x25: .cfa -56 + ^ x26: .cfa -64 + ^ x27: .cfa -72 + ^ x28: .cfa -80 + ^ .ra: .cfa -88 + ^ x29: .cfa -96 + ^
STACK CFI 22644 .cfa: sp 96 +
STACK CFI 2265c .cfa: sp 0 +
STACK CFI 22660 .cfa: x29 96 +
STACK CFI INIT 2271c 290 .cfa: sp 0 +
STACK CFI 22720 .cfa: sp 96 +
STACK CFI 22738 .cfa: x29 96 + x19: .cfa -8 + ^ x20: .cfa -16 + ^ x21: .cfa -24 + ^ x22: .cfa -32 + ^ x23: .cfa -40 + ^ x24: .cfa -48 + ^ x25: .cfa -56 + ^ x26: .cfa -64 + ^ x28: .cfa -80 + ^ .ra: .cfa -88 + ^ x29: .cfa -96 + ^
STACK CFI 22900 .cfa: sp 96 +
STACK CFI 22918 .cfa: sp 0 +
STACK CFI 2291c .cfa: x29 96 +
STACK CFI INIT 229ac 27c .cfa: sp 0 +
STACK CFI 229b0 .cfa: sp 96 +
STACK CFI 229c8 .cfa: x29 96 + x19: .cfa -8 + ^ x20: .cfa -16 + ^ x21: .cfa -24 + ^ x22: .cfa -32 + ^ x23: .cfa -40 + ^ x24: .cfa -48 + ^ x25: .cfa -56 + ^ x26: .cfa -64 + ^ x28: .cfa -80 + ^ .ra: .cfa -88 + ^ x29: .cfa -96 + ^
STACK CFI 22bb0 .cfa: sp 96 +
STACK CFI 22bc8 .cfa: sp 0 +
STACK CFI 22bcc .cfa: x29 96 +
STACK CFI INIT 22c28 2a8 .cfa: sp 0 +
STACK CFI 22c2c .cfa: sp 96 +
STACK CFI 22c44 .cfa: x29 96 + x19: .cfa -8 + ^ x20: .cfa -16 + ^ x21: .cfa -24 + ^ x22: .cfa -32 + ^ x23: .cfa -40 + ^ x24: .cfa -48 + ^ x25: .cfa -56 + ^ x26: .cfa -64 + ^ x28: .cfa -80 + ^ .ra: .cfa -88 + ^ x29: .cfa -96 + ^
STACK CFI 22e58 .cfa: sp 96 +
STACK CFI 22e70 .cfa: sp 0 +
STACK CFI 22e74 .cfa: x29 96 +
STACK CFI INIT 22ed0 c8 .cfa: sp 0 +
STACK CFI 22ed4 .cfa: sp 32 +
STACK CFI 22edc .cfa: x29 32 + x19: .cfa -8 + ^ x20: .cfa -16 + ^ .ra: .cfa -24 + ^ x29: .cfa -32 + ^
STACK CFI 22f10 .cfa: sp 32 +
STACK CFI 22f18 .cfa: sp 0 +
STACK CFI 22f1c .cfa: x29 32 +
STACK CFI 22f20 .cfa: sp 32 +
STACK CFI 22f28 .cfa: sp 0 +
STACK CFI 22f2c .cfa: x29 32 +
STACK CFI INIT 22f98 2b8 .cfa: sp 0 +
STACK CFI 22f9c .cfa: sp 48 +
STACK CFI 22fa8 .cfa: x29 32 + x19: .cfa -8 + ^ x20: .cfa -16 + ^ .ra: .cfa -24 + ^ x29: .cfa -32 + ^ v8: .cfa -48 + ^
STACK CFI 231b0 .cfa: sp 48 +
STACK CFI 231bc .cfa: sp 0 +
STACK CFI 231c0 .cfa: x29 32 +
STACK CFI INIT 23250 1c .cfa: sp 0 +
STACK CFI 23254 .cfa: sp 16 +
STACK CFI 23258 .cfa: x29 16 + .ra: .cfa -8 + ^ x29: .cfa -16 + ^
STACK CFI 23260 .cfa: sp 16 +
STACK CFI 23264 .cfa: sp 0 +
STACK CFI 23268 .cfa: x29 16 +
STACK CFI INIT 23520 664 .cfa: sp 0 +
STACK CFI 23524 .cfa: sp 224 +
STACK CFI 23540 .cfa: x29 96 + x19: .cfa -8 + ^ x20: .cfa -16 + ^ x21: .cfa -24 + ^ x22: .cfa -32 + ^ x23: .cfa -40 + ^ x24: .cfa -48 + ^ x25: .cfa -56 + ^ x26: .cfa -64 + ^ x27: .cfa -72 + ^ x28: .cfa -80 + ^ .ra: .cfa -88 + ^ x29: .cfa -96 + ^
STACK CFI 23a14 .cfa: sp 224 +
STACK CFI 23a30 .cfa: sp 0 +
STACK CFI 23a34 .cfa: x29 96 +
STACK CFI INIT 23c44 50 .cfa: sp 0 +
STACK CFI 23c48 .cfa: sp 32 +
STACK CFI 23c50 .cfa: x29 32 + x19: .cfa -8 + ^ x20: .cfa -16 + ^ .ra: .cfa -24 + ^ x29: .cfa -32 + ^
STACK CFI INIT 24090 c8 .cfa: sp 0 +
STACK CFI 24094 .cfa: sp 32 +
STACK CFI 2409c .cfa: x29 32 + x19: .cfa -8 + ^ x20: .cfa -16 + ^ .ra: .cfa -24 + ^ x29: .cfa -32 + ^
STACK CFI 240d0 .cfa: sp 32 +
STACK CFI 240d8 .cfa: sp 0 +
STACK CFI 240dc .cfa: x29 32 +
STACK CFI 240e0 .cfa: sp 32 +
STACK CFI 240e8 .cfa: sp 0 +
STACK CFI 240ec .cfa: x29 32 +
STACK CFI INIT 1a628 4f8 .cfa: sp 0 +
STACK CFI 1a62c .cfa: sp 80 +
STACK CFI 1a63c .cfa: x29 48 + x19: .cfa -8 + ^ x20: .cfa -16 + ^ x21: .cfa -32 + ^ .ra: .cfa -40 + ^ x29: .cfa -48 + ^
STACK CFI 1aaa0 .cfa: sp 80 +
STACK CFI 1aab0 .cfa: sp 0 +
STACK CFI 1aab4 .cfa: x29 48 +
STACK CFI INIT 24158 480 .cfa: sp 0 +
STACK CFI 2415c .cfa: sp 224 +
STACK CFI 24178 .cfa: x29 96 + x19: .cfa -8 + ^ x20: .cfa -16 + ^ x21: .cfa -24 + ^ x22: .cfa -32 + ^ x23: .cfa -40 + ^ x24: .cfa -48 + ^ x25: .cfa -56 + ^ x26: .cfa -64 + ^ x27: .cfa -80 + ^ .ra: .cfa -88 + ^ x29: .cfa -96 + ^
STACK CFI 243e4 .cfa: sp 224 +
STACK CFI 24400 .cfa: sp 0 +
STACK CFI 24404 .cfa: x29 96 +
STACK CFI 244d0 .cfa: sp 224 +
STACK CFI 244ec .cfa: sp 0 +
STACK CFI 244f0 .cfa: x29 96 +
STACK CFI INIT 245f4 330 .cfa: sp 0 +
STACK CFI 245f8 .cfa: sp 224 +
STACK CFI 2460c .cfa: x29 64 + x19: .cfa -8 + ^ x20: .cfa -16 + ^ x21: .cfa -24 + ^ x22: .cfa -32 + ^ x23: .cfa -48 + ^ .ra: .cfa -56 + ^ x29: .cfa -64 + ^
STACK CFI 24814 .cfa: sp 224 +
STACK CFI 24828 .cfa: sp 0 +
STACK CFI 2482c .cfa: x29 64 +
STACK CFI INIT 24928 27c .cfa: sp 0 +
STACK CFI 2492c .cfa: sp 112 +
STACK CFI 2493c .cfa: x29 48 + x19: .cfa -8 + ^ x20: .cfa -16 + ^ x21: .cfa -24 + ^ x22: .cfa -32 + ^ .ra: .cfa -40 + ^ x29: .cfa -48 + ^
STACK CFI 24b60 .cfa: sp 112 +
STACK CFI 24b70 .cfa: sp 0 +
STACK CFI 24b74 .cfa: x29 48 +
STACK CFI INIT 24ba4 a8 .cfa: sp 0 +
STACK CFI 24ba8 .cfa: sp 32 +
STACK CFI 24bb0 .cfa: x29 32 + x19: .cfa -16 + ^ .ra: .cfa -24 + ^ x29: .cfa -32 + ^
STACK CFI 24be4 .cfa: sp 32 +
STACK CFI 24bec .cfa: sp 0 +
STACK CFI 24bf0 .cfa: x29 32 +
STACK CFI 24bf4 .cfa: sp 32 +
STACK CFI 24bfc .cfa: sp 0 +
STACK CFI 24c00 .cfa: x29 32 +
STACK CFI INIT 24d9c 134 .cfa: sp 0 +
STACK CFI 24da0 .cfa: sp 80 +
STACK CFI 24dac .cfa: x29 32 + x19: .cfa -8 + ^ x20: .cfa -16 + ^ .ra: .cfa -24 + ^ x29: .cfa -32 + ^
STACK CFI 24ddc .cfa: sp 80 +
STACK CFI 24de8 .cfa: sp 0 +
STACK CFI 24dec .cfa: x29 32 +
STACK CFI INIT 24ed0 78 .cfa: sp 0 +
STACK CFI 24ed4 .cfa: sp 32 +
STACK CFI 24edc .cfa: x29 32 + x19: .cfa -8 + ^ x20: .cfa -16 + ^ .ra: .cfa -24 + ^ x29: .cfa -32 + ^
STACK CFI 24ee8 .cfa: sp 32 +
STACK CFI 24ef0 .cfa: sp 0 +
STACK CFI 24ef4 .cfa: x29 32 +
STACK CFI INIT 24f48 74 .cfa: sp 0 +
STACK CFI 24f4c .cfa: sp 48 +
STACK CFI 24f58 .cfa: x29 32 + x19: .cfa -8 + ^ x20: .cfa -16 + ^ .ra: .cfa -24 + ^ x29: .cfa -32 + ^
STACK CFI 24fa4 .cfa: sp 48 +
STACK CFI 24fb0 .cfa: sp 0 +
STACK CFI 24fb4 .cfa: x29 32 +
STACK CFI INIT 250b0 290 .cfa: sp 0 +
STACK CFI 250b4 .cfa: sp 128 +
STACK CFI 250c8 .cfa: x29 64 + x19: .cfa -8 + ^ x20: .cfa -16 + ^ x21: .cfa -24 + ^ x22: .cfa -32 + ^ x23: .cfa -48 + ^ .ra: .cfa -56 + ^ x29: .cfa -64 + ^
STACK CFI 251ec .cfa: sp 128 +
STACK CFI 25200 .cfa: sp 0 +
STACK CFI 25204 .cfa: x29 64 +
STACK CFI INIT 25348 164 .cfa: sp 0 +
STACK CFI 2534c .cfa: sp 128 +
STACK CFI 2535c .cfa: x29 48 + x19: .cfa -8 + ^ x20: .cfa -16 + ^ x21: .cfa -24 + ^ x22: .cfa -32 + ^ .ra: .cfa -40 + ^ x29: .cfa -48 + ^
STACK CFI 253b8 .cfa: sp 128 +
STACK CFI 253c8 .cfa: sp 0 +
STACK CFI 253cc .cfa: x29 48 +
STACK CFI INIT 254ac a4 .cfa: sp 0 +
STACK CFI 254b0 .cfa: sp 48 +
STACK CFI 254bc .cfa: x29 48 + x19: .cfa -8 + ^ x20: .cfa -16 + ^ x21: .cfa -32 + ^ .ra: .cfa -40 + ^ x29: .cfa -48 + ^
STACK CFI 25528 .cfa: sp 48 +
STACK CFI 25534 .cfa: sp 0 +
STACK CFI 25538 .cfa: x29 48 +
STACK CFI INIT 255dc 298 .cfa: sp 0 +
STACK CFI 255e0 .cfa: sp 128 +
STACK CFI 255f4 .cfa: x29 64 + x19: .cfa -8 + ^ x20: .cfa -16 + ^ x21: .cfa -24 + ^ x22: .cfa -32 + ^ x23: .cfa -48 + ^ .ra: .cfa -56 + ^ x29: .cfa -64 + ^
STACK CFI 25720 .cfa: sp 128 +
STACK CFI 25734 .cfa: sp 0 +
STACK CFI 25738 .cfa: x29 64 +
STACK CFI INIT 25874 178 .cfa: sp 0 +
STACK CFI 25878 .cfa: sp 128 +
STACK CFI 25888 .cfa: x29 48 + x19: .cfa -8 + ^ x20: .cfa -16 + ^ x21: .cfa -24 + ^ x22: .cfa -32 + ^ .ra: .cfa -40 + ^ x29: .cfa -48 + ^
STACK CFI 258e4 .cfa: sp 128 +
STACK CFI 258f4 .cfa: sp 0 +
STACK CFI 258f8 .cfa: x29 48 +
STACK CFI INIT 259ec a4 .cfa: sp 0 +
STACK CFI 259f0 .cfa: sp 48 +
STACK CFI 259fc .cfa: x29 48 + x19: .cfa -8 + ^ x20: .cfa -16 + ^ x21: .cfa -32 + ^ .ra: .cfa -40 + ^ x29: .cfa -48 + ^
STACK CFI 25a68 .cfa: sp 48 +
STACK CFI 25a74 .cfa: sp 0 +
STACK CFI 25a78 .cfa: x29 48 +
STACK CFI INIT 25b38 278 .cfa: sp 0 +
STACK CFI 25b3c .cfa: sp 128 +
STACK CFI 25b50 .cfa: x29 64 + x19: .cfa -8 + ^ x20: .cfa -16 + ^ x21: .cfa -24 + ^ x22: .cfa -32 + ^ x23: .cfa -48 + ^ .ra: .cfa -56 + ^ x29: .cfa -64 + ^
STACK CFI 25c5c .cfa: sp 128 +
STACK CFI 25c70 .cfa: sp 0 +
STACK CFI 25c74 .cfa: x29 64 +
STACK CFI INIT 25db0 4cc .cfa: sp 0 +
STACK CFI 25db4 .cfa: sp 128 +
STACK CFI 25dc8 .cfa: x29 64 + x19: .cfa -8 + ^ x20: .cfa -16 + ^ x21: .cfa -24 + ^ x22: .cfa -32 + ^ x23: .cfa -48 + ^ .ra: .cfa -56 + ^ x29: .cfa -64 + ^
STACK CFI 260d4 .cfa: sp 128 +
STACK CFI 260e8 .cfa: sp 0 +
STACK CFI 260ec .cfa: x29 64 +
STACK CFI INIT 2627c 154 .cfa: sp 0 +
STACK CFI 26280 .cfa: sp 384 +
STACK CFI 26294 .cfa: x29 64 + x19: .cfa -8 + ^ x20: .cfa -16 + ^ x21: .cfa -24 + ^ x22: .cfa -32 + ^ x23: .cfa -40 + ^ x28: .cfa -48 + ^ .ra: .cfa -56 + ^ x29: .cfa -64 + ^
STACK CFI 26378 .cfa: sp 384 +
STACK CFI 2638c .cfa: sp 0 +
STACK CFI 26390 .cfa: x29 64 +
STACK CFI INIT 263d0 168 .cfa: sp 0 +
STACK CFI 263d4 .cfa: sp 384 +
STACK CFI 263e8 .cfa: x29 64 + x19: .cfa -8 + ^ x20: .cfa -16 + ^ x21: .cfa -24 + ^ x22: .cfa -32 + ^ x23: .cfa -40 + ^ x28: .cfa -48 + ^ .ra: .cfa -56 + ^ x29: .cfa -64 + ^
STACK CFI 264e0 .cfa: sp 384 +
STACK CFI 264f4 .cfa: sp 0 +
STACK CFI 264f8 .cfa: x29 64 +
STACK CFI INIT 26550 4e0 .cfa: sp 0 +
STACK CFI 26554 .cfa: sp 64 +
STACK CFI 26564 .cfa: x29 64 + x19: .cfa -8 + ^ x20: .cfa -16 + ^ x21: .cfa -24 + ^ x22: .cfa -32 + ^ x23: .cfa -40 + ^ x24: .cfa -48 + ^ .ra: .cfa -56 + ^ x29: .cfa -64 + ^
STACK CFI 26a04 .cfa: sp 64 +
STACK CFI 26a14 .cfa: sp 0 +
STACK CFI 26a18 .cfa: x29 64 +
STACK CFI INIT 26d60 294 .cfa: sp 0 +
STACK CFI 26d64 .cfa: sp 240 +
STACK CFI 26d7c .cfa: x29 80 + x19: .cfa -8 + ^ x20: .cfa -16 + ^ x21: .cfa -24 + ^ x22: .cfa -32 + ^ x23: .cfa -40 + ^ x24: .cfa -48 + ^ x25: .cfa -64 + ^ .ra: .cfa -72 + ^ x29: .cfa -80 + ^
STACK CFI 26f1c .cfa: sp 240 +
STACK CFI 26f34 .cfa: sp 0 +
STACK CFI 26f38 .cfa: x29 80 +
STACK CFI INIT 27070 50 .cfa: sp 0 +
STACK CFI 27074 .cfa: sp 32 +
STACK CFI 2707c .cfa: x29 32 + x19: .cfa -8 + ^ x20: .cfa -16 + ^ .ra: .cfa -24 + ^ x29: .cfa -32 + ^
STACK CFI INIT 270ec 7c0 .cfa: sp 0 +
STACK CFI 270f0 .cfa: sp 320 +
STACK CFI 2710c .cfa: x29 96 + x19: .cfa -8 + ^ x20: .cfa -16 + ^ x21: .cfa -24 + ^ x22: .cfa -32 + ^ x23: .cfa -40 + ^ x24: .cfa -48 + ^ x25: .cfa -56 + ^ x26: .cfa -64 + ^ x27: .cfa -72 + ^ x28: .cfa -80 + ^ .ra: .cfa -88 + ^ x29: .cfa -96 + ^
STACK CFI 2775c .cfa: sp 320 +
STACK CFI 27778 .cfa: sp 0 +
STACK CFI 2777c .cfa: x29 96 +
STACK CFI INIT 2bc2c c74 .cfa: sp 0 +
STACK CFI 2bc30 .cfa: sp 96 +
STACK CFI 2bc48 .cfa: x29 96 + x19: .cfa -8 + ^ x20: .cfa -16 + ^ x21: .cfa -24 + ^ x22: .cfa -32 + ^ x23: .cfa -40 + ^ x24: .cfa -48 + ^ x25: .cfa -56 + ^ x26: .cfa -64 + ^ x27: .cfa -72 + ^ x28: .cfa -80 + ^ .ra: .cfa -88 + ^ x29: .cfa -96 + ^
STACK CFI 2c6c0 .cfa: sp 96 +
STACK CFI 2c6d8 .cfa: sp 0 +
STACK CFI 2c6dc .cfa: x29 96 +
STACK CFI INIT 2c9f4 26c .cfa: sp 0 +
STACK CFI 2c9f8 .cfa: sp 128 +
STACK CFI 2ca08 .cfa: x29 48 + x19: .cfa -8 + ^ x20: .cfa -16 + ^ x21: .cfa -24 + ^ x22: .cfa -32 + ^ .ra: .cfa -40 + ^ x29: .cfa -48 + ^
STACK CFI 2cbac .cfa: sp 128 +
STACK CFI 2cbbc .cfa: sp 0 +
STACK CFI 2cbc0 .cfa: x29 48 +
STACK CFI INIT 2cff0 3b8 .cfa: sp 0 +
STACK CFI 2cff4 .cfa: sp 96 +
STACK CFI 2d00c .cfa: x29 96 + x19: .cfa -8 + ^ x20: .cfa -16 + ^ x21: .cfa -24 + ^ x22: .cfa -32 + ^ x23: .cfa -40 + ^ x24: .cfa -48 + ^ x25: .cfa -56 + ^ x26: .cfa -64 + ^ x27: .cfa -72 + ^ x28: .cfa -80 + ^ .ra: .cfa -88 + ^ x29: .cfa -96 + ^
STACK CFI 2d348 .cfa: sp 96 +
STACK CFI 2d360 .cfa: sp 0 +
STACK CFI 2d364 .cfa: x29 96 +
STACK CFI INIT 2d448 cb4 .cfa: sp 0 +
STACK CFI 2d44c .cfa: sp 96 +
STACK CFI 2d464 .cfa: x29 96 + x19: .cfa -8 + ^ x20: .cfa -16 + ^ x21: .cfa -24 + ^ x22: .cfa -32 + ^ x23: .cfa -40 + ^ x24: .cfa -48 + ^ x25: .cfa -56 + ^ x26: .cfa -64 + ^ x27: .cfa -72 + ^ x28: .cfa -80 + ^ .ra: .cfa -88 + ^ x29: .cfa -96 + ^
STACK CFI 2df0c .cfa: sp 96 +
STACK CFI 2df24 .cfa: sp 0 +
STACK CFI 2df28 .cfa: x29 96 +
STACK CFI INIT 2e3e4 afc .cfa: sp 0 +
STACK CFI 2e3e8 .cfa: sp 96 +
STACK CFI 2e400 .cfa: x29 96 + x19: .cfa -8 + ^ x20: .cfa -16 + ^ x21: .cfa -24 + ^ x22: .cfa -32 + ^ x23: .cfa -40 + ^ x24: .cfa -48 + ^ x25: .cfa -56 + ^ x26: .cfa -64 + ^ x27: .cfa -72 + ^ x28: .cfa -80 + ^ .ra: .cfa -88 + ^ x29: .cfa -96 + ^
STACK CFI 2ee54 .cfa: sp 96 +
STACK CFI 2ee6c .cfa: sp 0 +
STACK CFI 2ee70 .cfa: x29 96 +
STACK CFI INIT 2f0bc 1430 .cfa: sp 0 +
STACK CFI 2f0c0 .cfa: sp 96 +
STACK CFI 2f0d8 .cfa: x29 96 + x19: .cfa -8 + ^ x20: .cfa -16 + ^ x21: .cfa -24 + ^ x22: .cfa -32 + ^ x23: .cfa -40 + ^ x24: .cfa -48 + ^ x25: .cfa -56 + ^ x26: .cfa -64 + ^ x27: .cfa -72 + ^ x28: .cfa -80 + ^ .ra: .cfa -88 + ^ x29: .cfa -96 + ^
STACK CFI 30374 .cfa: sp 96 +
STACK CFI 3038c .cfa: sp 0 +
STACK CFI 30390 .cfa: x29 96 +
STACK CFI INIT 30610 75c .cfa: sp 0 +
STACK CFI 30614 .cfa: sp 368 +
STACK CFI 30630 .cfa: x29 96 + x19: .cfa -8 + ^ x20: .cfa -16 + ^ x21: .cfa -24 + ^ x22: .cfa -32 + ^ x23: .cfa -40 + ^ x24: .cfa -48 + ^ x25: .cfa -56 + ^ x26: .cfa -64 + ^ x27: .cfa -72 + ^ x28: .cfa -80 + ^ .ra: .cfa -88 + ^ x29: .cfa -96 + ^
STACK CFI 306e4 .cfa: sp 368 +
STACK CFI 30700 .cfa: sp 0 +
STACK CFI 30704 .cfa: x29 96 +
STACK CFI 30758 .cfa: sp 368 +
STACK CFI 30774 .cfa: sp 0 +
STACK CFI 30778 .cfa: x29 96 +
STACK CFI INIT 3112c eb0 .cfa: sp 0 +
STACK CFI 31130 .cfa: sp 96 +
STACK CFI 31148 .cfa: x29 96 + x19: .cfa -8 + ^ x20: .cfa -16 + ^ x21: .cfa -24 + ^ x22: .cfa -32 + ^ x23: .cfa -40 + ^ x24: .cfa -48 + ^ x25: .cfa -56 + ^ x26: .cfa -64 + ^ x27: .cfa -72 + ^ x28: .cfa -80 + ^ .ra: .cfa -88 + ^ x29: .cfa -96 + ^
STACK CFI 31df0 .cfa: sp 96 +
STACK CFI 31e08 .cfa: sp 0 +
STACK CFI 31e0c .cfa: x29 96 +
STACK CFI INIT 32350 1c9c .cfa: sp 0 +
STACK CFI 32354 .cfa: sp 112 +
STACK CFI 32370 .cfa: x29 96 + x19: .cfa -8 + ^ x20: .cfa -16 + ^ x21: .cfa -24 + ^ x22: .cfa -32 + ^ x23: .cfa -40 + ^ x24: .cfa -48 + ^ x25: .cfa -56 + ^ x26: .cfa -64 + ^ x27: .cfa -72 + ^ x28: .cfa -80 + ^ .ra: .cfa -88 + ^ x29: .cfa -96 + ^ v8: .cfa -112 + ^
STACK CFI 32758 .cfa: sp 112 +
STACK CFI 32774 .cfa: sp 0 +
STACK CFI 32778 .cfa: x29 96 +
STACK CFI INIT 367b0 9a0 .cfa: sp 0 +
STACK CFI 367b4 .cfa: sp 144 +
STACK CFI 367cc .cfa: x29 80 + x19: .cfa -8 + ^ x20: .cfa -16 + ^ x21: .cfa -24 + ^ x22: .cfa -32 + ^ x23: .cfa -40 + ^ x24: .cfa -48 + ^ x25: .cfa -64 + ^ .ra: .cfa -72 + ^ x29: .cfa -80 + ^
STACK CFI 370cc .cfa: sp 144 +
STACK CFI 370e4 .cfa: sp 0 +
STACK CFI 370e8 .cfa: x29 80 +
STACK CFI INIT 38674 57c .cfa: sp 0 +
STACK CFI 38678 .cfa: sp 96 +
STACK CFI 38690 .cfa: x29 96 + x19: .cfa -8 + ^ x20: .cfa -16 + ^ x21: .cfa -24 + ^ x22: .cfa -32 + ^ x23: .cfa -40 + ^ x24: .cfa -48 + ^ x25: .cfa -56 + ^ x26: .cfa -64 + ^ x27: .cfa -72 + ^ x28: .cfa -80 + ^ .ra: .cfa -88 + ^ x29: .cfa -96 + ^
STACK CFI 38b54 .cfa: sp 96 +
STACK CFI 38b6c .cfa: sp 0 +
STACK CFI 38b70 .cfa: x29 96 +
STACK CFI INIT 38bf0 67c .cfa: sp 0 +
STACK CFI 38bf4 .cfa: sp 96 +
STACK CFI 38c0c .cfa: x29 96 + x19: .cfa -8 + ^ x20: .cfa -16 + ^ x21: .cfa -24 + ^ x22: .cfa -32 + ^ x23: .cfa -40 + ^ x24: .cfa -48 + ^ x25: .cfa -56 + ^ x26: .cfa -64 + ^ x27: .cfa -72 + ^ x28: .cfa -80 + ^ .ra: .cfa -88 + ^ x29: .cfa -96 + ^
STACK CFI 391d0 .cfa: sp 96 +
STACK CFI 391e8 .cfa: sp 0 +
STACK CFI 391ec .cfa: x29 96 +
