MODULE Linux arm64 E3ABD12268F25BC0F3085F80D279FB000 hjfod.gmd-api.android64.so
INFO CODE_ID 22D1ABE3F268C05BF3085F80D279FB0009F2FF0E
INFO GENERATOR mozilla/dump_syms 2.3.4
PUBLIC a600 0 __on_dlclose
PUBLIC a610 0 __emutls_unregister_key
PUBLIC a618 0 __on_dlclose_late
PUBLIC a620 0 __atexit_handler_wrapper
PUBLIC a634 0 atexit
PUBLIC a650 0 pthread_atfork
PUBLIC m a660 0 gmd::ImportGmdFile::ImportGmdFile(std::__ndk1::__fs::filesystem::path const&)
PUBLIC m a6c0 0 gmd::ImportGmdFile::tryInferType()
PUBLIC a7d8 0 extensionWithoutDot(std::__ndk1::__fs::filesystem::path const&)
PUBLIC m aa00 0 gmd::ImportGmdFile::inferType()
PUBLIC m aae4 0 gmd::ImportGmdFile::from(std::__ndk1::__fs::filesystem::path const&)
PUBLIC m aaf0 0 gmd::ImportGmdFile::setImportSong(bool)
PUBLIC m aaf8 0 gmd::ImportGmdFile::getLevelData() const
PUBLIC cd10 0 geode::impl::ResultData<std::__ndk1::basic_string<char, std::__ndk1::char_traits<char>, std::__ndk1::allocator<char> >, std::__ndk1::basic_string<char, std::__ndk1::char_traits<char>, std::__ndk1::allocator<char> > >::~ResultData()
PUBLIC cd84 0 geode::impl::ResultData<std::__ndk1::vector<unsigned char, std::__ndk1::allocator<unsigned char> >, std::__ndk1::basic_string<char, std::__ndk1::char_traits<char>, std::__ndk1::allocator<char> > >::unwrapErr() &&
PUBLIC cdf8 0 geode::impl::ResultData<std::__ndk1::vector<unsigned char, std::__ndk1::allocator<unsigned char> >, std::__ndk1::basic_string<char, std::__ndk1::char_traits<char>, std::__ndk1::allocator<char> > >::unwrap() &&
PUBLIC ce70 0 geode::impl::ResultData<std::__ndk1::vector<unsigned char, std::__ndk1::allocator<unsigned char> >, std::__ndk1::basic_string<char, std::__ndk1::char_traits<char>, std::__ndk1::allocator<char> > >::~ResultData()
PUBLIC cee4 0 geode::impl::ResultData<geode::utils::file::Unzip, std::__ndk1::basic_string<char, std::__ndk1::char_traits<char>, std::__ndk1::allocator<char> > >::~ResultData()
PUBLIC cf58 0 std::__ndk1::__fs::filesystem::path::path[abi:ne180000]<char [11], void>(std::__ndk1::__fs::filesystem::path::format)
PUBLIC cfa8 0 _ZNSt6__ndk112basic_stringIcNS_11char_traitsIcEENS_9allocatorIcEEEC2B8ne180000INS_11__wrap_iterIPhEETnNS_9enable_ifIXsr29__has_input_iterator_categoryIT_EE5valueEiE4typeELi0EEESB_SB_
PUBLIC d0b0 0 geode::impl::ResultData<matjson::Value, std::__ndk1::basic_string<char, std::__ndk1::char_traits<char>, std::__ndk1::allocator<char> > >::~ResultData()
PUBLIC d124 0 geode::impl::ResultData<matjson::Value, matjson::ParseError>::~ResultData()
PUBLIC d198 0 verifySongFileName(std::__ndk1::basic_string<char, std::__ndk1::char_traits<char>, std::__ndk1::allocator<char> > const&)
PUBLIC d31c 0 _ZN5geode3ErrIJRNSt6__ndk112basic_stringIcNS1_11char_traitsIcEENS1_9allocatorIcEEEEEQgtsZT_Li0EEEDaN3fmt3v1119basic_format_stringIcJDpNSA_13type_identityIT_E4typeEEEEDpOSD_
PUBLIC d490 0 std::__ndk1::__fs::filesystem::path::path[abi:ne180000]<std::__ndk1::basic_string<char, std::__ndk1::char_traits<char>, std::__ndk1::allocator<char> >, void>(std::__ndk1::__fs::filesystem::path::format)
PUBLIC d4f0 0 _ZNO5geode6ResultINSt6__ndk16vectorIhNS1_9allocatorIhEEEENS1_12basic_stringIcNS1_11char_traitsIcEENS3_IcEEEEE6mapErrIZNK3gmd13ImportGmdFile12getLevelDataEvE3$_4Qsr3stdE9invocableITL0__T0_EEENS0_IS5_NS1_13invoke_resultIT_JSA_EE4typeEEEOSJ_
PUBLIC d788 0 std::__ndk1::basic_string<char, std::__ndk1::char_traits<char>, std::__ndk1::allocator<char> >::substr[abi:ne180000](unsigned long, unsigned long) const
PUBLIC d834 0 std::__ndk1::basic_string<char, std::__ndk1::char_traits<char>, std::__ndk1::allocator<char> >::find_first_of[abi:ne180000](char const*, unsigned long) const
PUBLIC d88c 0 _ZNSt6__ndk112basic_stringIcNS_11char_traitsIcEENS_9allocatorIcEEEC2IN2gd6stringETnNS_9enable_ifIXaasr33__can_be_converted_to_string_viewIcS2_T_EE5valuentsr17__is_same_uncvrefISA_S5_EE5valueEiE4typeELi0EEERKSA_
PUBLIC d928 0 geode::impl::ResultData<void, std::__ndk1::basic_string<char, std::__ndk1::char_traits<char>, std::__ndk1::allocator<char> > >::~ResultData()
PUBLIC d99c 0 std::__ndk1::basic_string<char, std::__ndk1::char_traits<char>, std::__ndk1::allocator<char> >::basic_string[abi:ne180000]<0>()
PUBLIC da38 0 __clang_call_terminate
PUBLIC m da48 0 gmd::ImportGmdFile::intoLevel() const
PUBLIC ddb4 0 std::__ndk1::unique_ptr<DS_Dictionary, std::__ndk1::default_delete<DS_Dictionary> >::~unique_ptr[abi:ne180000]()
PUBLIC m ddfc 0 gmd::ExportGmdFile::ExportGmdFile(GJGameLevel*)
PUBLIC m de10 0 gmd::ExportGmdFile::from(GJGameLevel*)
PUBLIC m de1c 0 gmd::ExportGmdFile::getLevelData() const
PUBLIC m dfd8 0 gmd::ExportGmdFile::setIncludeSong(bool)
PUBLIC m dfe0 0 gmd::ExportGmdFile::intoBytes() const
PUBLIC ec8c 0 geode::impl::ResultData<void, std::__ndk1::basic_string<char, std::__ndk1::char_traits<char>, std::__ndk1::allocator<char> > >::unwrapErr() &&
PUBLIC ed00 0 geode::impl::ResultData<void, std::__ndk1::basic_string<char, std::__ndk1::char_traits<char>, std::__ndk1::allocator<char> > >::unwrap()
PUBLIC ed7c 0 geode::impl::ResultData<geode::utils::file::Zip, std::__ndk1::basic_string<char, std::__ndk1::char_traits<char>, std::__ndk1::allocator<char> > >::~ResultData()
PUBLIC m edf0 0 gmd::ExportGmdFile::intoFile(std::__ndk1::__fs::filesystem::path const&) const
PUBLIC m efd4 0 gmd::exportLevelAsGmd(GJGameLevel*, std::__ndk1::__fs::filesystem::path const&, gmd::GmdFileType)
PUBLIC m f050 0 gmd::importGmdAsLevel(std::__ndk1::__fs::filesystem::path const&)
PUBLIC m f188 0 gmd::getGmdFileKind(std::__ndk1::__fs::filesystem::path const&)
PUBLIC f27c 0 std::__ndk1::basic_string<char, std::__ndk1::char_traits<char>, std::__ndk1::allocator<char> >::__init_copy_ctor_external(char const*, unsigned long)
PUBLIC f2fc 0 std::__ndk1::basic_string<char, std::__ndk1::char_traits<char>, std::__ndk1::allocator<char> >::__throw_length_error[abi:ne180000]() const
PUBLIC f310 0 std::__ndk1::__throw_length_error[abi:ne180000](char const*)
PUBLIC f360 0 std::length_error::length_error[abi:ne180000](char const*)
PUBLIC f390 0 geode::utils::hash(char const*, int)
PUBLIC f3d0 0 std::__ndk1::__throw_bad_variant_access[abi:ne180000]()
PUBLIC f404 0 fmt::v11::detail::value<fmt::v11::context>::format_custom_arg<std::__ndk1::__fs::filesystem::path, fmt::v11::formatter<std::__ndk1::__fs::filesystem::path, char, void> >(void*, fmt::v11::basic_format_parse_context<char>&, fmt::v11::context&)
PUBLIC f52c 0 fmt::v11::formatter<std::__ndk1::__fs::filesystem::path, char, void>::format<fmt::v11::context>(std::__ndk1::__fs::filesystem::path const&, fmt::v11::context&) const
PUBLIC f7ec 0 fmt::v11::detail::parse_align<char>(char const*, char const*, fmt::v11::format_specs&)
PUBLIC f9c4 0 fmt::v11::detail::parse_dynamic_spec<char>(char const*, char const*, int&, fmt::v11::detail::arg_ref<char>&, fmt::v11::basic_format_parse_context<char>&)
PUBLIC fb68 0 fmt::v11::detail::do_parse_arg_id<char, fmt::v11::detail::dynamic_spec_id_handler<char>&>(char const*, char const*, fmt::v11::detail::dynamic_spec_id_handler<char>&)
PUBLIC fcfc 0 fmt::v11::detail::handle_dynamic_spec<fmt::v11::detail::width_checker, fmt::v11::context>(int&, fmt::v11::detail::arg_ref<fmt::v11::context::char_type>, fmt::v11::context&)
PUBLIC fe10 0 fmt::v11::detail::write<char, fmt::v11::basic_appender<char> >(fmt::v11::basic_appender<char>, fmt::v11::basic_string_view<char>, fmt::v11::format_specs const&)
PUBLIC 1008c 0 fmt::v11::detail::get_dynamic_spec<fmt::v11::detail::width_checker, fmt::v11::basic_format_arg<fmt::v11::context> >(fmt::v11::basic_format_arg<fmt::v11::context>)
PUBLIC 10120 0 fmt::v11::basic_format_args<fmt::v11::context>::get<char>(fmt::v11::basic_string_view<char>) const
PUBLIC 10278 0 fmt::v11::detail::write_escaped_string<char, fmt::v11::detail::counting_iterator>(fmt::v11::detail::counting_iterator, fmt::v11::basic_string_view<char>)
PUBLIC 10798 0 fmt::v11::detail::write_padded<char, (fmt::v11::align::type)1, fmt::v11::basic_appender<char>, fmt::v11::detail::write<char, fmt::v11::basic_appender<char> >(fmt::v11::basic_appender<char>, fmt::v11::basic_string_view<char>, fmt::v11::format_specs const&)::{lambda(fmt::v11::basic_appender<char>)#1}>(fmt::v11::basic_appender<char>, fmt::v11::format_specs const&, unsigned long, unsigned long, fmt::v11::detail::write<char, fmt::v11::basic_appender<char> >(fmt::v11::basic_appender<char>, fmt::v11::basic_string_view<char>, fmt::v11::format_specs const&)::{lambda(fmt::v11::basic_appender<char>&&)#1})
PUBLIC 109a4 0 fmt::v11::detail::for_each_codepoint<fmt::v11::detail::code_point_index(fmt::v11::basic_string_view<char>, unsigned long)::{lambda(unsigned int, fmt::v11::basic_string_view<char>)#1}>(fmt::v11::basic_string_view<char>, fmt::v11::detail::code_point_index(fmt::v11::basic_string_view<char>, unsigned long)::{lambda(unsigned int, fmt::v11::basic_string_view<char>)#1})
PUBLIC 10dcc 0 fmt::v11::detail::write_escaped_cp<fmt::v11::detail::counting_iterator, char>(fmt::v11::detail::counting_iterator, fmt::v11::detail::find_escape_result<char> const&)
PUBLIC 10f60 0 fmt::v11::detail::for_each_codepoint<fmt::v11::detail::compute_width(fmt::v11::basic_string_view<char>)::count_code_points>(fmt::v11::basic_string_view<char>, fmt::v11::detail::compute_width(fmt::v11::basic_string_view<char>)::count_code_points)::{lambda(char const*, char const*)#1}::operator()(char const*, char const*) const
PUBLIC 11118 0 fmt::v11::detail::fill<char, fmt::v11::basic_appender<char> >(fmt::v11::basic_appender<char>, unsigned long, fmt::v11::detail::fill_t const&)
PUBLIC 112e8 0 fmt::v11::detail::write_escaped_string<char, fmt::v11::basic_appender<char> >(fmt::v11::basic_appender<char>, fmt::v11::basic_string_view<char>)
PUBLIC 11964 0 fmt::v11::detail::write_escaped_cp<fmt::v11::basic_appender<char>, char>(fmt::v11::basic_appender<char>, fmt::v11::detail::find_escape_result<char> const&)
PUBLIC 11b48 0 fmt::v11::detail::write_codepoint<(unsigned long)2, char, fmt::v11::basic_appender<char> >(fmt::v11::basic_appender<char>, char, unsigned int)
PUBLIC 11cc0 0 fmt::v11::detail::write_codepoint<(unsigned long)4, char, fmt::v11::basic_appender<char> >(fmt::v11::basic_appender<char>, char, unsigned int)
PUBLIC 11e38 0 fmt::v11::detail::write_codepoint<(unsigned long)8, char, fmt::v11::basic_appender<char> >(fmt::v11::basic_appender<char>, char, unsigned int)
PUBLIC 11fb0 0 fmt::v11::basic_memory_buffer<char, (unsigned long)500, std::__ndk1::allocator<char> >::grow(fmt::v11::detail::buffer<char>&, unsigned long)
PUBLIC 12028 0 fmt::v11::detail::write_escaped_string<char, std::__ndk1::back_insert_iterator<fmt::v11::basic_memory_buffer<char, (unsigned long)500, std::__ndk1::allocator<char> > > >(std::__ndk1::back_insert_iterator<fmt::v11::basic_memory_buffer<char, (unsigned long)500, std::__ndk1::allocator<char> > >, fmt::v11::basic_string_view<char>)
PUBLIC 126a4 0 fmt::v11::detail::write_escaped_cp<std::__ndk1::back_insert_iterator<fmt::v11::basic_memory_buffer<char, (unsigned long)500, std::__ndk1::allocator<char> > >, char>(std::__ndk1::back_insert_iterator<fmt::v11::basic_memory_buffer<char, (unsigned long)500, std::__ndk1::allocator<char> > >, fmt::v11::detail::find_escape_result<char> const&)
PUBLIC 12888 0 fmt::v11::detail::write_codepoint<(unsigned long)2, char, std::__ndk1::back_insert_iterator<fmt::v11::basic_memory_buffer<char, (unsigned long)500, std::__ndk1::allocator<char> > > >(std::__ndk1::back_insert_iterator<fmt::v11::basic_memory_buffer<char, (unsigned long)500, std::__ndk1::allocator<char> > >, char, unsigned int)
PUBLIC 12a00 0 fmt::v11::detail::write_codepoint<(unsigned long)4, char, std::__ndk1::back_insert_iterator<fmt::v11::basic_memory_buffer<char, (unsigned long)500, std::__ndk1::allocator<char> > > >(std::__ndk1::back_insert_iterator<fmt::v11::basic_memory_buffer<char, (unsigned long)500, std::__ndk1::allocator<char> > >, char, unsigned int)
PUBLIC 12b78 0 fmt::v11::detail::write_codepoint<(unsigned long)8, char, std::__ndk1::back_insert_iterator<fmt::v11::basic_memory_buffer<char, (unsigned long)500, std::__ndk1::allocator<char> > > >(std::__ndk1::back_insert_iterator<fmt::v11::basic_memory_buffer<char, (unsigned long)500, std::__ndk1::allocator<char> > >, char, unsigned int)
PUBLIC 12cf0 0 std::__ndk1::__variant_detail::__visitation::__base::__dispatcher<(unsigned long)0>::__dispatch[abi:ne180000]<std::__ndk1::__variant_detail::__dtor<std::__ndk1::__variant_detail::__traits<std::__ndk1::basic_string<char, std::__ndk1::char_traits<char>, std::__ndk1::allocator<char> >, std::__ndk1::allocator<char> >, (std::__ndk1::__variant_detail::_Trait)1>::__destroy[abi:ne180000]()::{lambda(auto:1&)#1}, std::__ndk1::__variant_detail::__base<(std::__ndk1::__variant_detail::__traits<std::__ndk1::basic_string<char, std::__ndk1::char_traits<char>, std::__ndk1::allocator<char> >, std::__ndk1::allocator<char> >)1, std::__ndk1::allocator<char>, std::__ndk1::allocator<char> >&>(std::__ndk1::__variant_detail::__dtor<std::__ndk1::__variant_detail::__traits<std::__ndk1::basic_string<char, std::__ndk1::char_traits<char>, std::__ndk1::allocator<char> >, std::__ndk1::allocator<char> >, (std::__ndk1::__variant_detail::_Trait)1>, std::__ndk1::__variant_detail::__base<(std::__ndk1::__variant_detail::__traits<std::__ndk1::basic_string<char, std::__ndk1::char_traits<char>, std::__ndk1::allocator<char> >, std::__ndk1::allocator<char> >)1, std::__ndk1::allocator<char>, std::__ndk1::allocator<char> >&)
PUBLIC 12d04 0 std::__ndk1::__variant_detail::__visitation::__base::__dispatcher<(unsigned long)1>::__dispatch[abi:ne180000]<std::__ndk1::__variant_detail::__dtor<std::__ndk1::__variant_detail::__traits<std::__ndk1::basic_string<char, std::__ndk1::char_traits<char>, std::__ndk1::allocator<char> >, std::__ndk1::allocator<char> >, (std::__ndk1::__variant_detail::_Trait)1>::__destroy[abi:ne180000]()::{lambda(auto:1&)#1}, std::__ndk1::__variant_detail::__base<(std::__ndk1::__variant_detail::__traits<std::__ndk1::basic_string<char, std::__ndk1::char_traits<char>, std::__ndk1::allocator<char> >, std::__ndk1::allocator<char> >)1, std::__ndk1::allocator<char>, std::__ndk1::allocator<char> >&>(std::__ndk1::__variant_detail::__dtor<std::__ndk1::__variant_detail::__traits<std::__ndk1::basic_string<char, std::__ndk1::char_traits<char>, std::__ndk1::allocator<char> >, std::__ndk1::allocator<char> >, (std::__ndk1::__variant_detail::_Trait)1>, std::__ndk1::__variant_detail::__base<(std::__ndk1::__variant_detail::__traits<std::__ndk1::basic_string<char, std::__ndk1::char_traits<char>, std::__ndk1::allocator<char> >, std::__ndk1::allocator<char> >)1, std::__ndk1::allocator<char>, std::__ndk1::allocator<char> >&)
PUBLIC 12d18 0 _ZN5geode15UnwrapExceptionC2IRNSt6__ndk16vectorIhNS2_9allocatorIhEEEEQntsr4implE18IsStringStreamableIT_EEENS_4impl5OkTagEOS8_
PUBLIC 12d4c 0 geode::UnwrapException::~UnwrapException()
PUBLIC 12d70 0 _ZN5geode15UnwrapExceptionC2IRNSt6__ndk112basic_stringIcNS2_11char_traitsIcEENS2_9allocatorIcEEEEQsr4implE18IsStringStreamableIT_EEENS_4impl6ErrTagEOSA_
PUBLIC 12ed8 0 std::__ndk1::basic_stringstream<char, std::__ndk1::char_traits<char>, std::__ndk1::allocator<char> >::basic_stringstream[abi:ne180000]()
PUBLIC m 13004 0 std::__ndk1::basic_stringstream<char, std::__ndk1::char_traits<char>, std::__ndk1::allocator<char> >::~basic_stringstream()
PUBLIC 13084 0 std::__ndk1::__put_character_sequence[abi:ne180000]<char, std::__ndk1::char_traits<char> >(std::__ndk1::basic_ostream<char, std::__ndk1::char_traits<char> >, std::__ndk1::basic_ostream const*, unsigned long)
PUBLIC 13228 0 std::__ndk1::__pad_and_output[abi:ne180000]<char, std::__ndk1::char_traits<char> >(std::__ndk1::char_traits<char>, std::__ndk1::ostreambuf_iterator const*, std::__ndk1::ostreambuf_iterator const, std::__ndk1::ostreambuf_iterator const, std::__ndk1::ios_base&, std::__ndk1::ostreambuf_iterator)
PUBLIC 13404 0 std::__ndk1::basic_stringbuf<char, std::__ndk1::char_traits<char>, std::__ndk1::allocator<char> >::str[abi:ne180000]() &&
PUBLIC 1357c 0 std::__ndk1::basic_stringbuf<char, std::__ndk1::char_traits<char>, std::__ndk1::allocator<char> >::__init_buf_ptrs[abi:ne180000]()
PUBLIC 136c4 0 std::__ndk1::__variant_detail::__visitation::__base::__dispatcher<(unsigned long)0>::__dispatch[abi:ne180000]<std::__ndk1::__variant_detail::__dtor<std::__ndk1::__variant_detail::__traits<std::__ndk1::vector<unsigned char, std::__ndk1::allocator<unsigned char> >, std::__ndk1::basic_string<char, std::__ndk1::char_traits<char>, std::__ndk1::vector<char> > >, (std::__ndk1::__variant_detail::_Trait)1>::__destroy[abi:ne180000]()::{lambda(auto:1&)#1}, std::__ndk1::__variant_detail::__base<(std::__ndk1::__variant_detail::__traits<std::__ndk1::vector<unsigned char, std::__ndk1::allocator<unsigned char> >, std::__ndk1::basic_string<char, std::__ndk1::char_traits<char>, std::__ndk1::vector<char> > >)1, std::__ndk1::allocator<unsigned char>, std::__ndk1::vector<char> >&>(std::__ndk1::__variant_detail::__dtor<std::__ndk1::__variant_detail::__traits<std::__ndk1::vector<unsigned char, std::__ndk1::allocator<unsigned char> >, std::__ndk1::basic_string<char, std::__ndk1::char_traits<char>, std::__ndk1::vector<char> > >, (std::__ndk1::__variant_detail::_Trait)1>, std::__ndk1::__variant_detail::__base<(std::__ndk1::__variant_detail::__traits<std::__ndk1::vector<unsigned char, std::__ndk1::allocator<unsigned char> >, std::__ndk1::basic_string<char, std::__ndk1::char_traits<char>, std::__ndk1::vector<char> > >)1, std::__ndk1::allocator<unsigned char>, std::__ndk1::vector<char> >&)
PUBLIC 136d8 0 std::__ndk1::__variant_detail::__visitation::__base::__dispatcher<(unsigned long)1>::__dispatch[abi:ne180000]<std::__ndk1::__variant_detail::__dtor<std::__ndk1::__variant_detail::__traits<std::__ndk1::vector<unsigned char, std::__ndk1::allocator<unsigned char> >, std::__ndk1::basic_string<char, std::__ndk1::char_traits<char>, std::__ndk1::vector<char> > >, (std::__ndk1::__variant_detail::_Trait)1>::__destroy[abi:ne180000]()::{lambda(auto:1&)#1}, std::__ndk1::__variant_detail::__base<(std::__ndk1::__variant_detail::__traits<std::__ndk1::vector<unsigned char, std::__ndk1::allocator<unsigned char> >, std::__ndk1::basic_string<char, std::__ndk1::char_traits<char>, std::__ndk1::vector<char> > >)1, std::__ndk1::allocator<unsigned char>, std::__ndk1::vector<char> >&>(std::__ndk1::__variant_detail::__dtor<std::__ndk1::__variant_detail::__traits<std::__ndk1::vector<unsigned char, std::__ndk1::allocator<unsigned char> >, std::__ndk1::basic_string<char, std::__ndk1::char_traits<char>, std::__ndk1::vector<char> > >, (std::__ndk1::__variant_detail::_Trait)1>, std::__ndk1::__variant_detail::__base<(std::__ndk1::__variant_detail::__traits<std::__ndk1::vector<unsigned char, std::__ndk1::allocator<unsigned char> >, std::__ndk1::basic_string<char, std::__ndk1::char_traits<char>, std::__ndk1::vector<char> > >)1, std::__ndk1::allocator<unsigned char>, std::__ndk1::vector<char> >&)
PUBLIC 136ec 0 std::__ndk1::__variant_detail::__visitation::__base::__dispatcher<(unsigned long)0>::__dispatch[abi:ne180000]<std::__ndk1::__variant_detail::__dtor<std::__ndk1::__variant_detail::__traits<geode::utils::file::Unzip, std::__ndk1::basic_string<char, std::__ndk1::char_traits<char>, std::__ndk1::allocator<char> > >, (std::__ndk1::__variant_detail::_Trait)1>::__destroy[abi:ne180000]()::{lambda(auto:1&)#1}, std::__ndk1::__variant_detail::__base<(std::__ndk1::__variant_detail::__traits<geode::utils::file::Unzip, std::__ndk1::basic_string<char, std::__ndk1::char_traits<char>, std::__ndk1::allocator<char> > >)1, geode::utils::file, std::__ndk1::allocator<char> >&>(std::__ndk1::__variant_detail::__dtor<std::__ndk1::__variant_detail::__traits<geode::utils::file::Unzip, std::__ndk1::basic_string<char, std::__ndk1::char_traits<char>, std::__ndk1::allocator<char> > >, (std::__ndk1::__variant_detail::_Trait)1>, std::__ndk1::__variant_detail::__base<(std::__ndk1::__variant_detail::__traits<geode::utils::file::Unzip, std::__ndk1::basic_string<char, std::__ndk1::char_traits<char>, std::__ndk1::allocator<char> > >)1, geode::utils::file, std::__ndk1::allocator<char> >&)
PUBLIC 136f4 0 std::__ndk1::__variant_detail::__visitation::__base::__dispatcher<(unsigned long)1>::__dispatch[abi:ne180000]<std::__ndk1::__variant_detail::__dtor<std::__ndk1::__variant_detail::__traits<geode::utils::file::Unzip, std::__ndk1::basic_string<char, std::__ndk1::char_traits<char>, std::__ndk1::allocator<char> > >, (std::__ndk1::__variant_detail::_Trait)1>::__destroy[abi:ne180000]()::{lambda(auto:1&)#1}, std::__ndk1::__variant_detail::__base<(std::__ndk1::__variant_detail::__traits<geode::utils::file::Unzip, std::__ndk1::basic_string<char, std::__ndk1::char_traits<char>, std::__ndk1::allocator<char> > >)1, geode::utils::file, std::__ndk1::allocator<char> >&>(std::__ndk1::__variant_detail::__dtor<std::__ndk1::__variant_detail::__traits<geode::utils::file::Unzip, std::__ndk1::basic_string<char, std::__ndk1::char_traits<char>, std::__ndk1::allocator<char> > >, (std::__ndk1::__variant_detail::_Trait)1>, std::__ndk1::__variant_detail::__base<(std::__ndk1::__variant_detail::__traits<geode::utils::file::Unzip, std::__ndk1::basic_string<char, std::__ndk1::char_traits<char>, std::__ndk1::allocator<char> > >)1, geode::utils::file, std::__ndk1::allocator<char> >&)
PUBLIC 13708 0 std::__ndk1::__variant_detail::__visitation::__base::__dispatcher<(unsigned long)0>::__dispatch[abi:ne180000]<std::__ndk1::__variant_detail::__dtor<std::__ndk1::__variant_detail::__traits<matjson::Value, std::__ndk1::basic_string<char, std::__ndk1::char_traits<char>, std::__ndk1::allocator<char> > >, (std::__ndk1::__variant_detail::_Trait)1>::__destroy[abi:ne180000]()::{lambda(auto:1&)#1}, std::__ndk1::__variant_detail::__base<(std::__ndk1::__variant_detail::__traits<matjson::Value, std::__ndk1::basic_string<char, std::__ndk1::char_traits<char>, std::__ndk1::allocator<char> > >)1, matjson, std::__ndk1::allocator<char> >&>(std::__ndk1::__variant_detail::__dtor<std::__ndk1::__variant_detail::__traits<matjson::Value, std::__ndk1::basic_string<char, std::__ndk1::char_traits<char>, std::__ndk1::allocator<char> > >, (std::__ndk1::__variant_detail::_Trait)1>, std::__ndk1::__variant_detail::__base<(std::__ndk1::__variant_detail::__traits<matjson::Value, std::__ndk1::basic_string<char, std::__ndk1::char_traits<char>, std::__ndk1::allocator<char> > >)1, matjson, std::__ndk1::allocator<char> >&)
PUBLIC 13710 0 std::__ndk1::__variant_detail::__visitation::__base::__dispatcher<(unsigned long)1>::__dispatch[abi:ne180000]<std::__ndk1::__variant_detail::__dtor<std::__ndk1::__variant_detail::__traits<matjson::Value, std::__ndk1::basic_string<char, std::__ndk1::char_traits<char>, std::__ndk1::allocator<char> > >, (std::__ndk1::__variant_detail::_Trait)1>::__destroy[abi:ne180000]()::{lambda(auto:1&)#1}, std::__ndk1::__variant_detail::__base<(std::__ndk1::__variant_detail::__traits<matjson::Value, std::__ndk1::basic_string<char, std::__ndk1::char_traits<char>, std::__ndk1::allocator<char> > >)1, matjson, std::__ndk1::allocator<char> >&>(std::__ndk1::__variant_detail::__dtor<std::__ndk1::__variant_detail::__traits<matjson::Value, std::__ndk1::basic_string<char, std::__ndk1::char_traits<char>, std::__ndk1::allocator<char> > >, (std::__ndk1::__variant_detail::_Trait)1>, std::__ndk1::__variant_detail::__base<(std::__ndk1::__variant_detail::__traits<matjson::Value, std::__ndk1::basic_string<char, std::__ndk1::char_traits<char>, std::__ndk1::allocator<char> > >)1, matjson, std::__ndk1::allocator<char> >&)
PUBLIC 13724 0 std::__ndk1::__variant_detail::__visitation::__base::__dispatcher<(unsigned long)0>::__dispatch[abi:ne180000]<std::__ndk1::__variant_detail::__dtor<std::__ndk1::__variant_detail::__traits<matjson::Value, std::__ndk1::__variant_detail::__traits::ParseError>, (std::__ndk1::__variant_detail::_Trait)1>::__destroy[abi:ne180000]()::{lambda(auto:1&)#1}, std::__ndk1::__variant_detail::__base<(std::__ndk1::__variant_detail::__traits<matjson::Value, std::__ndk1::__variant_detail::__traits::ParseError>)1, matjson, matjson::Value>&>(std::__ndk1::__variant_detail::__dtor<std::__ndk1::__variant_detail::__traits<matjson::Value, std::__ndk1::__variant_detail::__traits::ParseError>, (std::__ndk1::__variant_detail::_Trait)1>, std::__ndk1::__variant_detail::__base<(std::__ndk1::__variant_detail::__traits<matjson::Value, std::__ndk1::__variant_detail::__traits::ParseError>)1, matjson, matjson::Value>&)
PUBLIC 1372c 0 std::__ndk1::__variant_detail::__visitation::__base::__dispatcher<(unsigned long)1>::__dispatch[abi:ne180000]<std::__ndk1::__variant_detail::__dtor<std::__ndk1::__variant_detail::__traits<matjson::Value, std::__ndk1::__variant_detail::__traits::ParseError>, (std::__ndk1::__variant_detail::_Trait)1>::__destroy[abi:ne180000]()::{lambda(auto:1&)#1}, std::__ndk1::__variant_detail::__base<(std::__ndk1::__variant_detail::__traits<matjson::Value, std::__ndk1::__variant_detail::__traits::ParseError>)1, matjson, matjson::Value>&>(std::__ndk1::__variant_detail::__dtor<std::__ndk1::__variant_detail::__traits<matjson::Value, std::__ndk1::__variant_detail::__traits::ParseError>, (std::__ndk1::__variant_detail::_Trait)1>, std::__ndk1::__variant_detail::__base<(std::__ndk1::__variant_detail::__traits<matjson::Value, std::__ndk1::__variant_detail::__traits::ParseError>)1, matjson, matjson::Value>&)
PUBLIC 13740 0 std::__ndk1::__throw_out_of_range[abi:ne180000](char const*)
PUBLIC 13790 0 std::out_of_range::out_of_range[abi:ne180000](char const*)
PUBLIC 137c0 0 _ZNSt6__ndk112basic_stringIcNS_11char_traitsIcEENS_9allocatorIcEEE6appendB8ne180000IPKcTnNS_9enable_ifIXsr31__has_forward_iterator_categoryIT_EE5valueEiE4typeELi0EEERS5_SA_SA_
PUBLIC 13ac4 0 std::__ndk1::basic_string<char, std::__ndk1::char_traits<char>, std::__ndk1::allocator<char> >::__throw_out_of_range[abi:ne180000]() const
PUBLIC 13ad8 0 std::__ndk1::basic_string<char, std::__ndk1::char_traits<char>, std::__ndk1::allocator<char> >::__assign_no_alias<true>(char const*, unsigned long)
PUBLIC 13b84 0 std::__ndk1::basic_string<char, std::__ndk1::char_traits<char>, std::__ndk1::allocator<char> >::__assign_no_alias<false>(char const*, unsigned long)
PUBLIC 13c94 0 std::__ndk1::__variant_detail::__visitation::__base::__dispatcher<(unsigned long)0>::__dispatch[abi:ne180000]<std::__ndk1::__variant_detail::__dtor<std::__ndk1::__variant_detail::__traits<std::__ndk1::monostate, std::__ndk1::basic_string<char, std::__ndk1::char_traits<char>, std::__ndk1::allocator<char> > >, (std::__ndk1::__variant_detail::_Trait)1>::__destroy[abi:ne180000]()::{lambda(auto:1&)#1}, std::__ndk1::__variant_detail::__base<(std::__ndk1::__variant_detail::__traits<std::__ndk1::monostate, std::__ndk1::basic_string<char, std::__ndk1::char_traits<char>, std::__ndk1::allocator<char> > >)1, std::__ndk1::__variant_detail::__traits, std::__ndk1::allocator<char> >&>(std::__ndk1::__variant_detail::__dtor<std::__ndk1::__variant_detail::__traits<std::__ndk1::monostate, std::__ndk1::basic_string<char, std::__ndk1::char_traits<char>, std::__ndk1::allocator<char> > >, (std::__ndk1::__variant_detail::_Trait)1>, std::__ndk1::__variant_detail::__base<(std::__ndk1::__variant_detail::__traits<std::__ndk1::monostate, std::__ndk1::basic_string<char, std::__ndk1::char_traits<char>, std::__ndk1::allocator<char> > >)1, std::__ndk1::__variant_detail::__traits, std::__ndk1::allocator<char> >&)
PUBLIC 13c98 0 std::__ndk1::__variant_detail::__visitation::__base::__dispatcher<(unsigned long)1>::__dispatch[abi:ne180000]<std::__ndk1::__variant_detail::__dtor<std::__ndk1::__variant_detail::__traits<std::__ndk1::monostate, std::__ndk1::basic_string<char, std::__ndk1::char_traits<char>, std::__ndk1::allocator<char> > >, (std::__ndk1::__variant_detail::_Trait)1>::__destroy[abi:ne180000]()::{lambda(auto:1&)#1}, std::__ndk1::__variant_detail::__base<(std::__ndk1::__variant_detail::__traits<std::__ndk1::monostate, std::__ndk1::basic_string<char, std::__ndk1::char_traits<char>, std::__ndk1::allocator<char> > >)1, std::__ndk1::__variant_detail::__traits, std::__ndk1::allocator<char> >&>(std::__ndk1::__variant_detail::__dtor<std::__ndk1::__variant_detail::__traits<std::__ndk1::monostate, std::__ndk1::basic_string<char, std::__ndk1::char_traits<char>, std::__ndk1::allocator<char> > >, (std::__ndk1::__variant_detail::_Trait)1>, std::__ndk1::__variant_detail::__base<(std::__ndk1::__variant_detail::__traits<std::__ndk1::monostate, std::__ndk1::basic_string<char, std::__ndk1::char_traits<char>, std::__ndk1::allocator<char> > >)1, std::__ndk1::__variant_detail::__traits, std::__ndk1::allocator<char> >&)
PUBLIC 13cac 0 _ZN5geode15UnwrapExceptionC2IRKNSt6__ndk112basic_stringIcNS2_11char_traitsIcEENS2_9allocatorIcEEEEQsr4implE18IsStringStreamableIT_EEENS_4impl5OkTagEOSB_
PUBLIC 13e14 0 _ZN5geode15UnwrapExceptionC2IRNSt6__ndk112basic_stringIcNS2_11char_traitsIcEENS2_9allocatorIcEEEEQsr4implE18IsStringStreamableIT_EEENS_4impl5OkTagEOSA_
PUBLIC 13f7c 0 std::__ndk1::vector<unsigned char, std::__ndk1::allocator<unsigned char> >::__throw_length_error[abi:ne180000]() const
PUBLIC 13f90 0 _ZN5geode15UnwrapExceptionC2IRNSt6__ndk19monostateEQntsr4implE18IsStringStreamableIT_EEENS_4impl5OkTagEOS5_
PUBLIC 13fc4 0 std::__ndk1::__variant_detail::__visitation::__base::__dispatcher<(unsigned long)0>::__dispatch[abi:ne180000]<std::__ndk1::__variant_detail::__dtor<std::__ndk1::__variant_detail::__traits<geode::utils::file::Zip, std::__ndk1::basic_string<char, std::__ndk1::char_traits<char>, std::__ndk1::allocator<char> > >, (std::__ndk1::__variant_detail::_Trait)1>::__destroy[abi:ne180000]()::{lambda(auto:1&)#1}, std::__ndk1::__variant_detail::__base<(std::__ndk1::__variant_detail::__traits<geode::utils::file::Zip, std::__ndk1::basic_string<char, std::__ndk1::char_traits<char>, std::__ndk1::allocator<char> > >)1, geode::utils::file, std::__ndk1::allocator<char> >&>(std::__ndk1::__variant_detail::__dtor<std::__ndk1::__variant_detail::__traits<geode::utils::file::Zip, std::__ndk1::basic_string<char, std::__ndk1::char_traits<char>, std::__ndk1::allocator<char> > >, (std::__ndk1::__variant_detail::_Trait)1>, std::__ndk1::__variant_detail::__base<(std::__ndk1::__variant_detail::__traits<geode::utils::file::Zip, std::__ndk1::basic_string<char, std::__ndk1::char_traits<char>, std::__ndk1::allocator<char> > >)1, geode::utils::file, std::__ndk1::allocator<char> >&)
PUBLIC 13fcc 0 std::__ndk1::__variant_detail::__visitation::__base::__dispatcher<(unsigned long)1>::__dispatch[abi:ne180000]<std::__ndk1::__variant_detail::__dtor<std::__ndk1::__variant_detail::__traits<geode::utils::file::Zip, std::__ndk1::basic_string<char, std::__ndk1::char_traits<char>, std::__ndk1::allocator<char> > >, (std::__ndk1::__variant_detail::_Trait)1>::__destroy[abi:ne180000]()::{lambda(auto:1&)#1}, std::__ndk1::__variant_detail::__base<(std::__ndk1::__variant_detail::__traits<geode::utils::file::Zip, std::__ndk1::basic_string<char, std::__ndk1::char_traits<char>, std::__ndk1::allocator<char> > >)1, geode::utils::file, std::__ndk1::allocator<char> >&>(std::__ndk1::__variant_detail::__dtor<std::__ndk1::__variant_detail::__traits<geode::utils::file::Zip, std::__ndk1::basic_string<char, std::__ndk1::char_traits<char>, std::__ndk1::allocator<char> > >, (std::__ndk1::__variant_detail::_Trait)1>, std::__ndk1::__variant_detail::__base<(std::__ndk1::__variant_detail::__traits<geode::utils::file::Zip, std::__ndk1::basic_string<char, std::__ndk1::char_traits<char>, std::__ndk1::allocator<char> > >)1, geode::utils::file, std::__ndk1::allocator<char> >&)
PUBLIC 13fe0 0 geode::JsonExpectedValue::tryGet<bool>()
PUBLIC 14220 0 geode::impl::ResultData<bool, std::__ndk1::basic_string<char, std::__ndk1::char_traits<char>, std::__ndk1::allocator<char> > >::~ResultData()
PUBLIC 14294 0 std::__ndk1::__variant_detail::__visitation::__base::__dispatcher<(unsigned long)0>::__dispatch[abi:ne180000]<std::__ndk1::__variant_detail::__dtor<std::__ndk1::__variant_detail::__traits<bool, std::__ndk1::basic_string<char, std::__ndk1::char_traits<char>, std::__ndk1::allocator<char> > >, (std::__ndk1::__variant_detail::_Trait)1>::__destroy[abi:ne180000]()::{lambda(auto:1&)#1}, std::__ndk1::__variant_detail::__base<(std::__ndk1::__variant_detail::__traits<bool, std::__ndk1::basic_string<char, std::__ndk1::char_traits<char>, std::__ndk1::allocator<char> > >)1, bool, std::__ndk1::allocator<char> >&>(std::__ndk1::__variant_detail::__dtor<std::__ndk1::__variant_detail::__traits<bool, std::__ndk1::basic_string<char, std::__ndk1::char_traits<char>, std::__ndk1::allocator<char> > >, (std::__ndk1::__variant_detail::_Trait)1>, std::__ndk1::__variant_detail::__base<(std::__ndk1::__variant_detail::__traits<bool, std::__ndk1::basic_string<char, std::__ndk1::char_traits<char>, std::__ndk1::allocator<char> > >)1, bool, std::__ndk1::allocator<char> >&)
PUBLIC 14298 0 std::__ndk1::__variant_detail::__visitation::__base::__dispatcher<(unsigned long)1>::__dispatch[abi:ne180000]<std::__ndk1::__variant_detail::__dtor<std::__ndk1::__variant_detail::__traits<bool, std::__ndk1::basic_string<char, std::__ndk1::char_traits<char>, std::__ndk1::allocator<char> > >, (std::__ndk1::__variant_detail::_Trait)1>::__destroy[abi:ne180000]()::{lambda(auto:1&)#1}, std::__ndk1::__variant_detail::__base<(std::__ndk1::__variant_detail::__traits<bool, std::__ndk1::basic_string<char, std::__ndk1::char_traits<char>, std::__ndk1::allocator<char> > >)1, bool, std::__ndk1::allocator<char> >&>(std::__ndk1::__variant_detail::__dtor<std::__ndk1::__variant_detail::__traits<bool, std::__ndk1::basic_string<char, std::__ndk1::char_traits<char>, std::__ndk1::allocator<char> > >, (std::__ndk1::__variant_detail::_Trait)1>, std::__ndk1::__variant_detail::__base<(std::__ndk1::__variant_detail::__traits<bool, std::__ndk1::basic_string<char, std::__ndk1::char_traits<char>, std::__ndk1::allocator<char> > >)1, bool, std::__ndk1::allocator<char> >&)
PUBLIC m 142ac 0 gmd::ImportGmdList::ImportGmdList(std::__ndk1::__fs::filesystem::path const&)
PUBLIC m 14338 0 gmd::ImportGmdList::from(std::__ndk1::__fs::filesystem::path const&)
PUBLIC m 14344 0 gmd::ImportGmdList::~ImportGmdList()
PUBLIC m 14388 0 gmd::ImportGmdList::setType(gmd::GmdListFileType)
PUBLIC m 14394 0 gmd::ImportGmdList::intoList()
PUBLIC m 148e4 0 gmd::ExportGmdList::ExportGmdList(GJLevelList*)
PUBLIC m 14944 0 gmd::ExportGmdList::from(GJLevelList*)
PUBLIC m 14950 0 gmd::ExportGmdList::~ExportGmdList()
PUBLIC m 14994 0 gmd::ExportGmdList::setType(gmd::GmdListFileType)
PUBLIC m 149a0 0 gmd::ExportGmdList::intoBytes() const
PUBLIC m 14c58 0 gmd::ExportGmdList::intoFile(std::__ndk1::__fs::filesystem::path const&) const
PUBLIC m 14e3c 0 gmd::exportListAsGmd(GJLevelList*, std::__ndk1::__fs::filesystem::path const&, gmd::GmdListFileType)
PUBLIC m 14ee0 0 gmd::importGmdAsList(std::__ndk1::__fs::filesystem::path const&)
PUBLIC 14f70 0 handlePlistDataForParsing(std::__ndk1::basic_string<char, std::__ndk1::char_traits<char>, std::__ndk1::allocator<char> >&)
PUBLIC m 157a4 0 geodeImplicitEntry
PUBLIC 157e0 0 __aarch64_ldadd8_acq_rel
PUBLIC 15810 0 init_have_lse_atomics
PUBLIC 158a8 0 __init_cpu_features_constructor
PUBLIC 15e44 0 __init_cpu_features
PUBLIC 15ed0 0 wrapFunction(unsigned long, tulip::hook::WrapperMetadata const&)
PUBLIC 16004 0 geode::impl::ResultData<void*, std::__ndk1::basic_string<char, std::__ndk1::char_traits<char>, std::__ndk1::allocator<char> > >::unwrapErr() &
PUBLIC 1607c 0 geode::impl::ResultData<void*, std::__ndk1::basic_string<char, std::__ndk1::char_traits<char>, std::__ndk1::allocator<char> > >::~ResultData()
PUBLIC 160f0 0 std::__ndk1::shared_ptr<tulip::hook::CallingConvention>::~shared_ptr[abi:ne180000]()
PUBLIC 16140 0 tulip::hook::WrapperMetadata::~WrapperMetadata()
PUBLIC 161a4 0 DS_Dictionary::DS_Dictionary()
PUBLIC 16328 0 DS_Dictionary::loadRootSubDictFromString(gd::string const&)
PUBLIC 1647c 0 tulip::hook::AbstractFunction::from<bool, DS_Dictionary*, gd::string const&>(bool (*)(DS_Dictionary*, gd::string const&))
PUBLIC 16528 0 pugi::xml_document::xml_document()
PUBLIC 16690 0 pugi::xml_node::xml_node()
PUBLIC m 167e4 0 pugi::xml_document::~xml_document()
PUBLIC 169fc 0 _ZN5geode15UnwrapExceptionC2IRPvQsr4implE18IsStringStreamableIT_EEENS_4impl5OkTagEOS4_
PUBLIC 16b50 0 std::__throw_bad_array_new_length([abi:ne180000], void)
PUBLIC 16b84 0 std::__ndk1::__variant_detail::__visitation::__base::__dispatcher<(unsigned long)0>::__dispatch[abi:ne180000]<std::__ndk1::__variant_detail::__dtor<std::__ndk1::__variant_detail::__traits<void*, std::__ndk1::basic_string<char, std::__ndk1::char_traits<char>, std::__ndk1::allocator<char> > >, (std::__ndk1::__variant_detail::_Trait)1>::__destroy[abi:ne180000]()::{lambda(auto:1&)#1}, std::__ndk1::__variant_detail::__base<(std::__ndk1::__variant_detail::__traits<void*, std::__ndk1::basic_string<char, std::__ndk1::char_traits<char>, std::__ndk1::allocator<char> > >)1, std::__ndk1::__variant_detail::__traits, std::__ndk1::allocator<char> >&>(std::__ndk1::__variant_detail::__dtor<std::__ndk1::__variant_detail::__traits<void*, std::__ndk1::basic_string<char, std::__ndk1::char_traits<char>, std::__ndk1::allocator<char> > >, (std::__ndk1::__variant_detail::_Trait)1>, std::__ndk1::__variant_detail::__base<(std::__ndk1::__variant_detail::__traits<void*, std::__ndk1::basic_string<char, std::__ndk1::char_traits<char>, std::__ndk1::allocator<char> > >)1, std::__ndk1::__variant_detail::__traits, std::__ndk1::allocator<char> >&)
PUBLIC 16b88 0 std::__ndk1::__variant_detail::__visitation::__base::__dispatcher<(unsigned long)1>::__dispatch[abi:ne180000]<std::__ndk1::__variant_detail::__dtor<std::__ndk1::__variant_detail::__traits<void*, std::__ndk1::basic_string<char, std::__ndk1::char_traits<char>, std::__ndk1::allocator<char> > >, (std::__ndk1::__variant_detail::_Trait)1>::__destroy[abi:ne180000]()::{lambda(auto:1&)#1}, std::__ndk1::__variant_detail::__base<(std::__ndk1::__variant_detail::__traits<void*, std::__ndk1::basic_string<char, std::__ndk1::char_traits<char>, std::__ndk1::allocator<char> > >)1, std::__ndk1::__variant_detail::__traits, std::__ndk1::allocator<char> >&>(std::__ndk1::__variant_detail::__dtor<std::__ndk1::__variant_detail::__traits<void*, std::__ndk1::basic_string<char, std::__ndk1::char_traits<char>, std::__ndk1::allocator<char> > >, (std::__ndk1::__variant_detail::_Trait)1>, std::__ndk1::__variant_detail::__base<(std::__ndk1::__variant_detail::__traits<void*, std::__ndk1::basic_string<char, std::__ndk1::char_traits<char>, std::__ndk1::allocator<char> > >)1, std::__ndk1::__variant_detail::__traits, std::__ndk1::allocator<char> >&)
PUBLIC 16b9c 0 std::__ndk1::__hash_table<std::__ndk1::__hash_value_type<void*, bool>, std::__ndk1::__unordered_map_hasher<void*, std::__ndk1::__hash_value_type<void*, bool>, std::__ndk1::hash<void*>, std::__ndk1::equal_to<void*>, true>, std::__ndk1::__unordered_map_equal<void*, std::__ndk1::__hash_value_type<void*, bool>, std::__ndk1::equal_to<void*>, std::__ndk1::hash<void*>, true>, std::__ndk1::allocator<std::__ndk1::__hash_value_type<void*, bool> > >::__emplace_unique_key_args<void*, std::__ndk1::piecewise_construct_t const&, std::__ndk1::tuple<void* const&>, std::__ndk1::tuple<> >(void* const&, std::__ndk1::piecewise_construct_t const&, std::__ndk1::tuple<void* const&>, std::__ndk1::tuple<>)
PUBLIC 1707c 0 __udivti3
PUBLIC 17088 0 __udivmodti4
PUBLIC m 172d4 0 __eqtf2
PUBLIC 17374 0 __unordtf2
PUBLIC 173ac 0 fmt::v11::detail::write_loc(fmt::v11::basic_appender<char>, fmt::v11::loc_value, fmt::v11::format_specs const&, fmt::v11::detail::locale_ref)
PUBLIC 17640 0 fmt::v11::format_facet<std::__ndk1::locale>::~format_facet()
PUBLIC 176bc 0 fmt::v11::report_error(char const*)
PUBLIC 1770c 0 fmt::v11::format_error::runtime_error(char const*)
PUBLIC 17738 0 fmt::v11::format_facet<std::__ndk1::locale>::do_put(fmt::v11::basic_appender<char>, fmt::v11::loc_value, fmt::v11::format_specs const&) const
PUBLIC 17ef8 0 fmt::v11::detail::loc_writer<char>::~loc_writer()
PUBLIC 17f5c 0 fmt::v11::vformat(fmt::v11::basic_string_view<char>, fmt::v11::basic_format_args<fmt::v11::context>)
PUBLIC 18098 0 fmt::v11::detail::vformat_to<char>(fmt::v11::detail::buffer<char>&, fmt::v11::basic_string_view<char>, fmt::v11::detail::vformat_args<char>::type, fmt::v11::detail::locale_ref)
PUBLIC 18608 0 fmt::v11::detail::is_printable(unsigned int)
PUBLIC 18830 0 fmt::v11::detail::dragonbox::to_decimal<float>(float)
PUBLIC 18b0c 0 fmt::v11::detail::dragonbox::to_decimal<double>(double)
PUBLIC 19048 0 fmt::v11::format_facet<std::__ndk1::locale>::~format_facet()
PUBLIC 190d4 0 fmt::v11::format_error::~format_error()
PUBLIC 190f8 0 fmt::v11::detail::copy_noinline<char, char const*, fmt::v11::basic_appender<char> >(char const*, char const*, fmt::v11::basic_appender<char>)
PUBLIC 19248 0 fmt::v11::detail::default_arg_formatter<char>::operator()<bool>(bool)
PUBLIC 192b0 0 fmt::v11::detail::default_arg_formatter<char>::operator()<char>(char)
PUBLIC 19340 0 fmt::v11::detail::default_arg_formatter<char>::operator()<float>(float)
PUBLIC 1942c 0 fmt::v11::detail::default_arg_formatter<char>::operator()<double>(double)
PUBLIC 19518 0 fmt::v11::detail::default_arg_formatter<char>::operator()<char const*>(char const*)
PUBLIC 19560 0 fmt::v11::detail::default_arg_formatter<char>::operator()<void const*>(void const*)
PUBLIC 195f8 0 _ZN3fmt3v116detail5writeIcNS0_14basic_appenderIcEEiTnNSt6__ndk19enable_ifIXaaaasr11is_integralIT1_EE5valuentsr3std7is_sameIS7_bEE5valuentsr3std7is_sameIS7_T_EE5valueEiE4typeELi0EEET0_SB_S7_
PUBLIC 19858 0 fmt::v11::detail::copy_noinline<char, char*, fmt::v11::basic_appender<char> >(char*, char*, fmt::v11::basic_appender<char>)
PUBLIC 199a8 0 _ZN3fmt3v116detail5writeIcNS0_14basic_appenderIcEEjTnNSt6__ndk19enable_ifIXaaaasr11is_integralIT1_EE5valuentsr3std7is_sameIS7_bEE5valuentsr3std7is_sameIS7_T_EE5valueEiE4typeELi0EEET0_SB_S7_
PUBLIC 19b88 0 _ZN3fmt3v116detail5writeIcNS0_14basic_appenderIcEExTnNSt6__ndk19enable_ifIXaaaasr11is_integralIT1_EE5valuentsr3std7is_sameIS7_bEE5valuentsr3std7is_sameIS7_T_EE5valueEiE4typeELi0EEET0_SB_S7_
PUBLIC 19e0c 0 _ZN3fmt3v116detail5writeIcNS0_14basic_appenderIcEEyTnNSt6__ndk19enable_ifIXaaaasr11is_integralIT1_EE5valuentsr3std7is_sameIS7_bEE5valuentsr3std7is_sameIS7_T_EE5valueEiE4typeELi0EEET0_SB_S7_
PUBLIC 1a014 0 _ZN3fmt3v116detail5writeIcNS0_14basic_appenderIcEEnTnNSt6__ndk19enable_ifIXaaaasr11is_integralIT1_EE5valuentsr3std7is_sameIS7_bEE5valuentsr3std7is_sameIS7_T_EE5valueEiE4typeELi0EEET0_SB_S7_
PUBLIC 1a374 0 _ZN3fmt3v116detail5writeIcNS0_14basic_appenderIcEEoTnNSt6__ndk19enable_ifIXaaaasr11is_integralIT1_EE5valuentsr3std7is_sameIS7_bEE5valuentsr3std7is_sameIS7_T_EE5valueEiE4typeELi0EEET0_SB_S7_
PUBLIC 1a688 0 _ZN3fmt3v116detail5writeIcNS0_14basic_appenderIcEEbTnNSt6__ndk19enable_ifIXsr3std7is_sameIT1_bEE5valueEiE4typeELi0EEET0_SA_S7_RKNS0_12format_specsENS1_10locale_refE
PUBLIC 1a93c 0 fmt::v11::detail::write_int_noinline<char, fmt::v11::basic_appender<char>, unsigned int>(fmt::v11::basic_appender<char>, fmt::v11::detail::write_int_arg<unsigned int>, fmt::v11::format_specs const&, fmt::v11::detail::locale_ref)
PUBLIC 1b71c 0 fmt::v11::detail::write_padded<char, (fmt::v11::align::type)1, fmt::v11::basic_appender<char>, fmt::v11::detail::write_char<char, fmt::v11::basic_appender<char> >(fmt::v11::basic_appender<char>, char, fmt::v11::format_specs const&)::{lambda(fmt::v11::basic_appender<char>&)#1}>(fmt::v11::basic_appender<char>, fmt::v11::format_specs const&, unsigned long, unsigned long, fmt::v11::detail::write_char<char, fmt::v11::basic_appender<char> >(fmt::v11::basic_appender<char>, char, fmt::v11::format_specs const&)::{lambda(fmt::v11::basic_appender<char>&)#1})
PUBLIC 1b980 0 fmt::v11::detail::write_padded<char, (fmt::v11::align::type)1, fmt::v11::basic_appender<char>, fmt::v11::detail::write_nonfinite<char, fmt::v11::basic_appender<char> >(fmt::v11::basic_appender<char>, bool, fmt::v11::format_specs, fmt::v11::sign::type)::{lambda(fmt::v11::basic_appender<char>&)#1}>(fmt::v11::basic_appender<char>, fmt::v11::format_specs const&, unsigned long, unsigned long, fmt::v11::detail::write_nonfinite<char, fmt::v11::basic_appender<char> >(fmt::v11::basic_appender<char>, bool, fmt::v11::format_specs, fmt::v11::sign::type)::{lambda(fmt::v11::basic_appender<char>&)#1})
PUBLIC 1bbd8 0 fmt::v11::detail::do_write_float<char, fmt::v11::basic_appender<char>, fmt::v11::detail::dragonbox::decimal_fp<float>, fmt::v11::detail::digit_grouping<char> >(fmt::v11::basic_appender<char>, fmt::v11::detail::dragonbox::decimal_fp<float> const&, fmt::v11::format_specs const&, fmt::v11::detail::float_specs, fmt::v11::detail::locale_ref)
PUBLIC 1c85c 0 fmt::v11::detail::do_write_float<char, fmt::v11::basic_appender<char>, fmt::v11::detail::dragonbox::decimal_fp<float>, fmt::v11::detail::digit_grouping<char> >(fmt::v11::basic_appender<char>, fmt::v11::detail::dragonbox::decimal_fp<float> const&, fmt::v11::format_specs const&, fmt::v11::detail::float_specs, fmt::v11::detail::locale_ref)::{lambda(fmt::v11::basic_appender<char>(fmt::v11::basic_appender<char>))#1}::operator() const
PUBLIC 1c9b0 0 fmt::v11::detail::digit_grouping<char>::digit_grouping(fmt::v11::detail::locale_ref, bool)
PUBLIC 1cc1c 0 fmt::v11::detail::digit_grouping<char>::~digit_grouping()
PUBLIC 1cc60 0 fmt::v11::detail::write_exponent<char, fmt::v11::basic_appender<char> >(int, fmt::v11::basic_appender<char>)
PUBLIC 1ce30 0 _ZN3fmt3v116detail17write_significandIcjTnNSt6__ndk19enable_ifIXsr3std11is_integralIT0_EE5valueEiE4typeELi0EEEPT_S9_S5_iiS8_
PUBLIC 1cfac 0 fmt::v11::detail::digit_grouping<char>::apply<fmt::v11::basic_appender<char>, char>(fmt::v11::basic_appender<char>, fmt::v11::basic_string_view<char>) const
PUBLIC 1d364 0 fmt::v11::basic_memory_buffer<int, (unsigned long)500, std::__ndk1::allocator<int> >::grow(fmt::v11::detail::buffer<int>&, unsigned long)
PUBLIC 1d404 0 fmt::v11::detail::do_write_float<char, fmt::v11::basic_appender<char>, fmt::v11::detail::dragonbox::decimal_fp<double>, fmt::v11::detail::digit_grouping<char> >(fmt::v11::basic_appender<char>, fmt::v11::detail::dragonbox::decimal_fp<double> const&, fmt::v11::format_specs const&, fmt::v11::detail::float_specs, fmt::v11::detail::locale_ref)
PUBLIC 1e0c4 0 fmt::v11::detail::do_write_float<char, fmt::v11::basic_appender<char>, fmt::v11::detail::dragonbox::decimal_fp<double>, fmt::v11::detail::digit_grouping<char> >(fmt::v11::basic_appender<char>, fmt::v11::detail::dragonbox::decimal_fp<double> const&, fmt::v11::format_specs const&, fmt::v11::detail::float_specs, fmt::v11::detail::locale_ref)::{lambda(fmt::v11::basic_appender<char>(fmt::v11::basic_appender<char>))#1}::operator() const
PUBLIC 1e21c 0 _ZN3fmt3v116detail17write_significandIcmTnNSt6__ndk19enable_ifIXsr3std11is_integralIT0_EE5valueEiE4typeELi0EEEPT_S9_S5_iiS8_
PUBLIC 1e3ac 0 fmt::v11::detail::write_float<char, fmt::v11::basic_appender<char>, long double>(fmt::v11::basic_appender<char>, long double, fmt::v11::format_specs, fmt::v11::detail::locale_ref)
PUBLIC 1eea4 0 fmt::v11::detail::write_padded<char, (fmt::v11::align::type)2, fmt::v11::basic_appender<char>, fmt::v11::detail::write_bytes<char, (fmt::v11::align::type)2, fmt::v11::basic_appender<char> >(fmt::v11::basic_appender<char>, fmt::v11::basic_string_view<char>, fmt::v11::format_specs const&)::{lambda(fmt::v11::basic_appender<char>&)#1}>(fmt::v11::basic_appender<char>, fmt::v11::format_specs const&, unsigned long, unsigned long, fmt::v11::detail::write_bytes<char, (fmt::v11::align::type)2, fmt::v11::basic_appender<char> >(fmt::v11::basic_appender<char>, fmt::v11::basic_string_view<char>, fmt::v11::format_specs const&)::{lambda(fmt::v11::basic_appender<char>&)#1})
PUBLIC 1f098 0 fmt::v11::detail::format_dragon(fmt::v11::detail::basic_fp<unsigned __int128>, unsigned int, int, fmt::v11::detail::buffer<char>&, int&)
PUBLIC 204c8 0 fmt::v11::detail::bigint::operator<<=(int)
PUBLIC 205ec 0 fmt::v11::detail::bigint::assign_pow10(int)
PUBLIC 20d48 0 fmt::v11::detail::bigint::divmod_assign(fmt::v11::detail::bigint const&)
PUBLIC 21068 0 fmt::v11::basic_memory_buffer<unsigned int, (unsigned long)32, std::__ndk1::allocator<unsigned int> >::grow(fmt::v11::detail::buffer<unsigned int>&, unsigned long)
PUBLIC 21108 0 fmt::v11::detail::do_write_float<char, fmt::v11::basic_appender<char>, fmt::v11::detail::big_decimal_fp, fmt::v11::detail::digit_grouping<char> >(fmt::v11::basic_appender<char>, fmt::v11::detail::big_decimal_fp const&, fmt::v11::format_specs const&, fmt::v11::detail::float_specs, fmt::v11::detail::locale_ref)
PUBLIC 21fe8 0 fmt::v11::detail::do_write_float<char, fmt::v11::basic_appender<char>, fmt::v11::detail::big_decimal_fp, fmt::v11::detail::digit_grouping<char> >(fmt::v11::basic_appender<char>, fmt::v11::detail::big_decimal_fp const&, fmt::v11::format_specs const&, fmt::v11::detail::float_specs, fmt::v11::detail::locale_ref)::{lambda(fmt::v11::basic_appender<char>(fmt::v11::basic_appender<char>))#1}::operator() const
PUBLIC 22148 0 fmt::v11::detail::write_padded<char, (fmt::v11::align::type)2, fmt::v11::basic_appender<char>, fmt::v11::detail::write_ptr<char, fmt::v11::basic_appender<char>, unsigned long>(fmt::v11::basic_appender<char>, unsigned long, fmt::v11::format_specs const*)::{lambda(fmt::v11::basic_appender<char>&)#1}>(fmt::v11::basic_appender<char>, fmt::v11::format_specs const&, unsigned long, unsigned long, fmt::v11::detail::write_ptr<char, fmt::v11::basic_appender<char>, unsigned long>(fmt::v11::basic_appender<char>, unsigned long, fmt::v11::format_specs const*)::{lambda(fmt::v11::basic_appender<char>&)#1})
PUBLIC 2235c 0 fmt::v11::detail::parse_replacement_field<char, fmt::v11::detail::vformat_to<char>(fmt::v11::detail::buffer<char>&, fmt::v11::basic_string_view<char>, fmt::v11::detail::vformat_args<char>::type, fmt::v11::detail::locale_ref)::format_handler&>(char const*, char const*, fmt::v11::detail::vformat_to<char>(fmt::v11::detail::buffer<char>&, fmt::v11::basic_string_view<char>, fmt::v11::detail::vformat_args<char>::type, fmt::v11::detail::locale_ref)::format_handler&)
PUBLIC 23e40 0 fmt::v11::detail::write_int_noinline<char, fmt::v11::basic_appender<char>, unsigned long>(fmt::v11::basic_appender<char>, fmt::v11::detail::write_int_arg<unsigned long>, fmt::v11::format_specs const&, fmt::v11::detail::locale_ref)
PUBLIC 24ca0 0 fmt::v11::detail::write_int_noinline<char, fmt::v11::basic_appender<char>, unsigned __int128>(fmt::v11::basic_appender<char>, fmt::v11::detail::write_int_arg<unsigned __int128>, fmt::v11::format_specs const&, fmt::v11::detail::locale_ref)
PUBLIC 25d30 0 _ZN3fmt3v116detail15format_hexfloatIdTnNSt6__ndk19enable_ifIXntsr16is_double_doubleIT_EE5valueEiE4typeELi0EEEvS5_NS0_12format_specsERNS1_6bufferIcEE
PUBLIC 26250 0 fmt::v11::detail::format_float<double>(double, int, fmt::v11::detail::float_specs, fmt::v11::detail::buffer<char>&)
PUBLIC 26bf0 0 fmt::v11::detail::write_int<fmt::v11::basic_appender<char>, unsigned long, char>(fmt::v11::basic_appender<char>, unsigned long, unsigned int, fmt::v11::format_specs const&, fmt::v11::detail::digit_grouping<char> const&)
PUBLIC 2716c 0 fmt::v11::detail::write_int<fmt::v11::basic_appender<char>, unsigned __int128, char>(fmt::v11::basic_appender<char>, unsigned __int128, unsigned int, fmt::v11::format_specs const&, fmt::v11::detail::digit_grouping<char> const&)
PUBLIC 277f0 0 <.plt ELF section in hjfod.gmd-api.android64.so>
STACK CFI INIT a600 10 .cfa: sp 0 +
STACK CFI INIT a610 8 .cfa: sp 0 +
STACK CFI INIT a618 8 .cfa: sp 0 +
STACK CFI INIT a620 14 .cfa: sp 0 +
STACK CFI INIT a634 1c .cfa: sp 0 +
STACK CFI INIT a650 10 .cfa: sp 0 +
STACK CFI INIT a660 60 .cfa: sp 0 +
STACK CFI a664 .cfa: sp 32 +
STACK CFI a66c .cfa: x29 32 + x19: .cfa -16 + ^ .ra: .cfa -24 + ^ x29: .cfa -32 + ^
STACK CFI a694 .cfa: sp 32 +
STACK CFI a69c .cfa: sp 0 +
STACK CFI a6a0 .cfa: x29 32 +
STACK CFI a6b4 .cfa: sp 32 +
STACK CFI a6bc .cfa: sp 0 +
STACK CFI INIT a6c0 118 .cfa: sp 0 +
STACK CFI a6c4 .cfa: sp 96 +
STACK CFI a6d8 .cfa: x29 64 + x19: .cfa -8 + ^ x20: .cfa -16 + ^ x21: .cfa -24 + ^ x22: .cfa -32 + ^ x23: .cfa -40 + ^ x24: .cfa -48 + ^ .ra: .cfa -56 + ^ x29: .cfa -64 + ^
STACK CFI a790 .cfa: sp 96 +
STACK CFI a7a4 .cfa: sp 0 +
STACK CFI a7a8 .cfa: x29 64 +
STACK CFI INIT aa00 e4 .cfa: sp 0 +
STACK CFI aa04 .cfa: sp 96 +
STACK CFI aa18 .cfa: x29 64 + x19: .cfa -8 + ^ x20: .cfa -16 + ^ x21: .cfa -24 + ^ x22: .cfa -32 + ^ x23: .cfa -48 + ^ .ra: .cfa -56 + ^ x29: .cfa -64 + ^
STACK CFI aabc .cfa: sp 96 +
STACK CFI aad0 .cfa: sp 0 +
STACK CFI aad4 .cfa: x29 64 +
STACK CFI INIT aae4 c .cfa: sp 0 +
STACK CFI INIT aaf0 8 .cfa: sp 0 +
STACK CFI INIT cfa8 108 .cfa: sp 0 +
STACK CFI cfac .cfa: sp 64 +
STACK CFI cfbc .cfa: x29 64 + x19: .cfa -8 + ^ x20: .cfa -16 + ^ x21: .cfa -24 + ^ x22: .cfa -32 + ^ x23: .cfa -48 + ^ .ra: .cfa -56 + ^ x29: .cfa -64 + ^
STACK CFI d03c .cfa: sp 64 +
STACK CFI d04c .cfa: sp 0 +
STACK CFI d050 .cfa: x29 64 +
STACK CFI d078 .cfa: sp 64 +
STACK CFI d088 .cfa: sp 0 +
STACK CFI d08c .cfa: x29 64 +
STACK CFI INIT d788 ac .cfa: sp 0 +
STACK CFI d78c .cfa: sp 48 +
STACK CFI d798 .cfa: x29 48 + x19: .cfa -8 + ^ x20: .cfa -16 + ^ x21: .cfa -24 + ^ x22: .cfa -32 + ^ .ra: .cfa -40 + ^ x29: .cfa -48 + ^
STACK CFI d7dc .cfa: sp 48 +
STACK CFI d7e8 .cfa: sp 0 +
STACK CFI d7ec .cfa: x29 48 +
STACK CFI d81c .cfa: sp 48 +
STACK CFI d828 .cfa: sp 0 +
STACK CFI d82c .cfa: x29 48 +
STACK CFI INIT d834 58 .cfa: sp 0 +
STACK CFI INIT d88c 9c .cfa: sp 0 +
STACK CFI d890 .cfa: sp 48 +
STACK CFI d89c .cfa: x29 48 + x19: .cfa -8 + ^ x20: .cfa -16 + ^ x21: .cfa -24 + ^ x22: .cfa -32 + ^ .ra: .cfa -40 + ^ x29: .cfa -48 + ^
STACK CFI d8d0 .cfa: sp 48 +
STACK CFI d8dc .cfa: sp 0 +
STACK CFI d8e0 .cfa: x29 48 +
STACK CFI d910 .cfa: sp 48 +
STACK CFI d91c .cfa: sp 0 +
STACK CFI d920 .cfa: x29 48 +
STACK CFI INIT d99c 9c .cfa: sp 0 +
STACK CFI d9a0 .cfa: sp 48 +
STACK CFI d9ac .cfa: x29 48 + x19: .cfa -8 + ^ x20: .cfa -16 + ^ x21: .cfa -24 + ^ x22: .cfa -32 + ^ .ra: .cfa -40 + ^ x29: .cfa -48 + ^
STACK CFI d9e0 .cfa: sp 48 +
STACK CFI d9ec .cfa: sp 0 +
STACK CFI d9f0 .cfa: x29 48 +
STACK CFI da20 .cfa: sp 48 +
STACK CFI da2c .cfa: sp 0 +
STACK CFI da30 .cfa: x29 48 +
STACK CFI INIT da38 10 .cfa: sp 0 +
STACK CFI da3c .cfa: sp 16 +
STACK CFI da40 .cfa: x29 16 + .ra: .cfa -8 + ^ x29: .cfa -16 + ^
STACK CFI INIT ddb4 48 .cfa: sp 0 +
STACK CFI ddb8 .cfa: sp 32 +
STACK CFI ddc0 .cfa: x29 32 + x19: .cfa -16 + ^ .ra: .cfa -24 + ^ x29: .cfa -32 + ^
STACK CFI dde4 .cfa: sp 32 +
STACK CFI ddec .cfa: sp 0 +
STACK CFI ddf0 .cfa: sp 32 +
STACK CFI ddf8 .cfa: sp 0 +
STACK CFI INIT ddfc 14 .cfa: sp 0 +
STACK CFI INIT de10 c .cfa: sp 0 +
STACK CFI INIT dfd8 8 .cfa: sp 0 +
STACK CFI INIT efd4 7c .cfa: sp 0 +
STACK CFI efd8 .cfa: sp 80 +
STACK CFI efe8 .cfa: x29 48 + x19: .cfa -8 + ^ x20: .cfa -16 + ^ x21: .cfa -24 + ^ x22: .cfa -32 + ^ .ra: .cfa -40 + ^ x29: .cfa -48 + ^
STACK CFI f038 .cfa: sp 80 +
STACK CFI f048 .cfa: sp 0 +
STACK CFI f04c .cfa: x29 48 +
STACK CFI INIT f188 f4 .cfa: sp 0 +
STACK CFI f18c .cfa: sp 80 +
STACK CFI f19c .cfa: x29 48 + x19: .cfa -8 + ^ x20: .cfa -16 + ^ x21: .cfa -24 + ^ x22: .cfa -32 + ^ .ra: .cfa -40 + ^ x29: .cfa -48 + ^
STACK CFI f258 .cfa: sp 80 +
STACK CFI f268 .cfa: sp 0 +
STACK CFI f26c .cfa: x29 48 +
STACK CFI INIT f27c 80 .cfa: sp 0 +
STACK CFI f280 .cfa: sp 48 +
STACK CFI f28c .cfa: x29 48 + x19: .cfa -8 + ^ x20: .cfa -16 + ^ x21: .cfa -24 + ^ x22: .cfa -32 + ^ .ra: .cfa -40 + ^ x29: .cfa -48 + ^
STACK CFI f2a4 .cfa: sp 48 +
STACK CFI f2b0 .cfa: sp 0 +
STACK CFI f2b4 .cfa: x29 48 +
STACK CFI f2e4 .cfa: sp 48 +
STACK CFI f2f0 .cfa: sp 0 +
STACK CFI f2f4 .cfa: x29 48 +
STACK CFI INIT f2fc 14 .cfa: sp 0 +
STACK CFI f300 .cfa: sp 16 +
STACK CFI f304 .cfa: x29 16 + .ra: .cfa -8 + ^ x29: .cfa -16 + ^
STACK CFI INIT f360 30 .cfa: sp 0 +
STACK CFI f364 .cfa: sp 32 +
STACK CFI f36c .cfa: x29 32 + x19: .cfa -16 + ^ .ra: .cfa -24 + ^ x29: .cfa -32 + ^
STACK CFI f384 .cfa: sp 32 +
STACK CFI f38c .cfa: sp 0 +
STACK CFI INIT f390 40 .cfa: sp 0 +
STACK CFI f394 .cfa: sp 32 +
STACK CFI f39c .cfa: x29 32 + x19: .cfa -16 + ^ .ra: .cfa -24 + ^ x29: .cfa -32 + ^
STACK CFI f3b4 .cfa: sp 32 +
STACK CFI f3bc .cfa: sp 0 +
STACK CFI f3c0 .cfa: x29 32 +
STACK CFI f3c4 .cfa: sp 32 +
STACK CFI f3cc .cfa: sp 0 +
STACK CFI INIT f3d0 34 .cfa: sp 0 +
STACK CFI f3d4 .cfa: sp 16 +
STACK CFI f3d8 .cfa: x29 16 + .ra: .cfa -8 + ^ x29: .cfa -16 + ^
STACK CFI INIT f404 128 .cfa: sp 0 +
STACK CFI f408 .cfa: sp 128 +
STACK CFI f41c .cfa: x29 64 + x19: .cfa -8 + ^ x20: .cfa -16 + ^ x21: .cfa -24 + ^ x22: .cfa -32 + ^ x23: .cfa -48 + ^ .ra: .cfa -56 + ^ x29: .cfa -64 + ^
STACK CFI f510 .cfa: sp 128 +
STACK CFI f524 .cfa: sp 0 +
STACK CFI f528 .cfa: x29 64 +
STACK CFI INIT f7ec 1d8 .cfa: sp 0 +
STACK CFI f7f0 .cfa: sp 16 +
STACK CFI f7f4 .cfa: x29 16 + .ra: .cfa -8 + ^ x29: .cfa -16 + ^
STACK CFI f934 .cfa: sp 16 +
STACK CFI f938 .cfa: sp 0 +
STACK CFI f93c .cfa: x29 16 +
STACK CFI INIT f9c4 1a4 .cfa: sp 0 +
STACK CFI f9c8 .cfa: sp 64 +
STACK CFI f9d4 .cfa: x29 32 + x19: .cfa -8 + ^ x20: .cfa -16 + ^ .ra: .cfa -24 + ^ x29: .cfa -32 + ^
STACK CFI fb00 .cfa: sp 64 +
STACK CFI fb0c .cfa: sp 0 +
STACK CFI fb10 .cfa: x29 32 +
STACK CFI INIT fb68 194 .cfa: sp 0 +
STACK CFI fb6c .cfa: sp 16 +
STACK CFI fb70 .cfa: x29 16 + .ra: .cfa -8 + ^ x29: .cfa -16 + ^
STACK CFI fc08 .cfa: sp 16 +
STACK CFI fc0c .cfa: sp 0 +
STACK CFI fc10 .cfa: x29 16 +
STACK CFI fcdc .cfa: sp 16 +
STACK CFI fce0 .cfa: sp 0 +
STACK CFI fce4 .cfa: x29 16 +
STACK CFI INIT fcfc 114 .cfa: sp 0 +
STACK CFI fd00 .cfa: sp 128 +
STACK CFI fd10 .cfa: x29 48 + x19: .cfa -8 + ^ x20: .cfa -16 + ^ x21: .cfa -32 + ^ .ra: .cfa -40 + ^ x29: .cfa -48 + ^
STACK CFI fddc .cfa: sp 128 +
STACK CFI fdec .cfa: sp 0 +
STACK CFI fdf0 .cfa: x29 48 +
STACK CFI INIT fe10 27c .cfa: sp 0 +
STACK CFI fe14 .cfa: sp 176 +
STACK CFI fe30 .cfa: x29 96 + x19: .cfa -8 + ^ x20: .cfa -16 + ^ x21: .cfa -24 + ^ x22: .cfa -32 + ^ x23: .cfa -40 + ^ x24: .cfa -48 + ^ x25: .cfa -56 + ^ x26: .cfa -64 + ^ x27: .cfa -72 + ^ x28: .cfa -80 + ^ .ra: .cfa -88 + ^ x29: .cfa -96 + ^
STACK CFI 10068 .cfa: sp 176 +
STACK CFI 10084 .cfa: sp 0 +
STACK CFI 10088 .cfa: x29 96 +
STACK CFI INIT 1008c 94 .cfa: sp 0 +
STACK CFI 10090 .cfa: sp 16 +
STACK CFI 10094 .cfa: x29 16 + .ra: .cfa -8 + ^ x29: .cfa -16 + ^
STACK CFI 100e8 .cfa: sp 16 +
STACK CFI 100ec .cfa: sp 0 +
STACK CFI 100f0 .cfa: x29 16 +
STACK CFI INIT 10120 158 .cfa: sp 0 +
STACK CFI 10124 .cfa: sp 112 +
STACK CFI 10140 .cfa: x29 96 + x19: .cfa -8 + ^ x20: .cfa -16 + ^ x21: .cfa -24 + ^ x22: .cfa -32 + ^ x23: .cfa -40 + ^ x24: .cfa -48 + ^ x25: .cfa -56 + ^ x26: .cfa -64 + ^ x27: .cfa -72 + ^ x28: .cfa -80 + ^ .ra: .cfa -88 + ^ x29: .cfa -96 + ^
STACK CFI 10228 .cfa: sp 112 +
STACK CFI 1022c .cfa: x29 96 +
STACK CFI 10234 .cfa: sp 112 +
STACK CFI 10250 .cfa: sp 0 +
STACK CFI 10254 .cfa: x29 96 +
STACK CFI 10274 .cfa: sp 112 +
STACK CFI INIT 10278 520 .cfa: sp 0 +
STACK CFI 1027c .cfa: sp 176 +
STACK CFI 10298 .cfa: x29 96 + x19: .cfa -8 + ^ x20: .cfa -16 + ^ x21: .cfa -24 + ^ x22: .cfa -32 + ^ x23: .cfa -40 + ^ x24: .cfa -48 + ^ x25: .cfa -56 + ^ x26: .cfa -64 + ^ x27: .cfa -72 + ^ x28: .cfa -80 + ^ .ra: .cfa -88 + ^ x29: .cfa -96 + ^
STACK CFI 10774 .cfa: sp 176 +
STACK CFI 10790 .cfa: sp 0 +
STACK CFI 10794 .cfa: x29 96 +
STACK CFI INIT 10798 20c .cfa: sp 0 +
STACK CFI 1079c .cfa: sp 80 +
STACK CFI 107b0 .cfa: x29 80 + x19: .cfa -8 + ^ x20: .cfa -16 + ^ x21: .cfa -24 + ^ x22: .cfa -32 + ^ x23: .cfa -40 + ^ x24: .cfa -48 + ^ x25: .cfa -64 + ^ .ra: .cfa -72 + ^ x29: .cfa -80 + ^
STACK CFI 10840 .cfa: sp 80 +
STACK CFI 10854 .cfa: sp 0 +
STACK CFI 10858 .cfa: x29 80 +
STACK CFI 10864 .cfa: sp 80 +
STACK CFI 10878 .cfa: sp 0 +
STACK CFI 1087c .cfa: x29 80 +
STACK CFI INIT 109a4 428 .cfa: sp 0 +
STACK CFI 109a8 .cfa: sp 128 +
STACK CFI 109c4 .cfa: x29 96 + x19: .cfa -8 + ^ x20: .cfa -16 + ^ x21: .cfa -24 + ^ x22: .cfa -32 + ^ x23: .cfa -40 + ^ x24: .cfa -48 + ^ x25: .cfa -56 + ^ x26: .cfa -64 + ^ x27: .cfa -72 + ^ x28: .cfa -80 + ^ .ra: .cfa -88 + ^ x29: .cfa -96 + ^
STACK CFI 10da8 .cfa: sp 128 +
STACK CFI 10dc4 .cfa: sp 0 +
STACK CFI 10dc8 .cfa: x29 96 +
STACK CFI INIT 10dcc 194 .cfa: sp 0 +
STACK CFI 10dd0 .cfa: sp 32 +
STACK CFI 10dd8 .cfa: x29 16 + .ra: .cfa -8 + ^ x29: .cfa -16 + ^
STACK CFI 10e1c .cfa: sp 32 +
STACK CFI 10e24 .cfa: sp 0 +
STACK CFI 10e28 .cfa: x29 16 +
STACK CFI INIT 10f60 1b8 .cfa: sp 0 +
STACK CFI INIT 11118 1d0 .cfa: sp 0 +
STACK CFI 1111c .cfa: sp 80 +
STACK CFI 11130 .cfa: x29 80 + x19: .cfa -8 + ^ x20: .cfa -16 + ^ x21: .cfa -24 + ^ x22: .cfa -32 + ^ x23: .cfa -40 + ^ x24: .cfa -48 + ^ x25: .cfa -64 + ^ .ra: .cfa -72 + ^ x29: .cfa -80 + ^
STACK CFI 112d0 .cfa: sp 80 +
STACK CFI 112e4 .cfa: sp 0 +
STACK CFI INIT 112e8 67c .cfa: sp 0 +
STACK CFI 112ec .cfa: sp 176 +
STACK CFI 11308 .cfa: x29 96 + x19: .cfa -8 + ^ x20: .cfa -16 + ^ x21: .cfa -24 + ^ x22: .cfa -32 + ^ x23: .cfa -40 + ^ x24: .cfa -48 + ^ x25: .cfa -56 + ^ x26: .cfa -64 + ^ x27: .cfa -72 + ^ x28: .cfa -80 + ^ .ra: .cfa -88 + ^ x29: .cfa -96 + ^
STACK CFI 11940 .cfa: sp 176 +
STACK CFI 1195c .cfa: sp 0 +
STACK CFI 11960 .cfa: x29 96 +
STACK CFI INIT 11964 1e4 .cfa: sp 0 +
STACK CFI 11968 .cfa: sp 32 +
STACK CFI 11970 .cfa: x29 32 + x19: .cfa -8 + ^ x20: .cfa -16 + ^ .ra: .cfa -24 + ^ x29: .cfa -32 + ^
STACK CFI 11a60 .cfa: sp 32 +
STACK CFI 11a68 .cfa: sp 0 +
STACK CFI 11a6c .cfa: x29 32 +
STACK CFI 11ae0 .cfa: sp 32 +
STACK CFI 11ae8 .cfa: sp 0 +
STACK CFI 11aec .cfa: x29 32 +
STACK CFI 11afc .cfa: sp 32 +
STACK CFI 11b04 .cfa: sp 0 +
STACK CFI 11b08 .cfa: x29 32 +
STACK CFI 11b18 .cfa: sp 32 +
STACK CFI 11b20 .cfa: sp 0 +
STACK CFI 11b24 .cfa: x29 32 +
STACK CFI INIT 11b48 178 .cfa: sp 0 +
STACK CFI 11b4c .cfa: sp 80 +
STACK CFI 11b60 .cfa: x29 64 + x19: .cfa -8 + ^ x20: .cfa -16 + ^ x21: .cfa -24 + ^ x22: .cfa -32 + ^ x23: .cfa -40 + ^ x24: .cfa -48 + ^ .ra: .cfa -56 + ^ x29: .cfa -64 + ^
STACK CFI 11ca4 .cfa: sp 80 +
STACK CFI 11cb8 .cfa: sp 0 +
STACK CFI 11cbc .cfa: x29 64 +
STACK CFI INIT 11cc0 178 .cfa: sp 0 +
STACK CFI 11cc4 .cfa: sp 80 +
STACK CFI 11cd8 .cfa: x29 64 + x19: .cfa -8 + ^ x20: .cfa -16 + ^ x21: .cfa -24 + ^ x22: .cfa -32 + ^ x23: .cfa -40 + ^ x24: .cfa -48 + ^ .ra: .cfa -56 + ^ x29: .cfa -64 + ^
STACK CFI 11e1c .cfa: sp 80 +
STACK CFI 11e30 .cfa: sp 0 +
STACK CFI 11e34 .cfa: x29 64 +
STACK CFI INIT 11e38 178 .cfa: sp 0 +
STACK CFI 11e3c .cfa: sp 80 +
STACK CFI 11e50 .cfa: x29 64 + x19: .cfa -8 + ^ x20: .cfa -16 + ^ x21: .cfa -24 + ^ x22: .cfa -32 + ^ x23: .cfa -40 + ^ x24: .cfa -48 + ^ .ra: .cfa -56 + ^ x29: .cfa -64 + ^
STACK CFI 11f94 .cfa: sp 80 +
STACK CFI 11fa8 .cfa: sp 0 +
STACK CFI 11fac .cfa: x29 64 +
STACK CFI INIT 11fb0 78 .cfa: sp 0 +
STACK CFI 11fb4 .cfa: sp 48 +
STACK CFI 11fc0 .cfa: x29 48 + x19: .cfa -8 + ^ x20: .cfa -16 + ^ x21: .cfa -24 + ^ x22: .cfa -32 + ^ .ra: .cfa -40 + ^ x29: .cfa -48 + ^
STACK CFI 12008 .cfa: sp 48 +
STACK CFI 12014 .cfa: sp 0 +
STACK CFI 12018 .cfa: sp 48 +
STACK CFI 12024 .cfa: sp 0 +
STACK CFI INIT 12028 67c .cfa: sp 0 +
STACK CFI 1202c .cfa: sp 176 +
STACK CFI 12048 .cfa: x29 96 + x19: .cfa -8 + ^ x20: .cfa -16 + ^ x21: .cfa -24 + ^ x22: .cfa -32 + ^ x23: .cfa -40 + ^ x24: .cfa -48 + ^ x25: .cfa -56 + ^ x26: .cfa -64 + ^ x27: .cfa -72 + ^ x28: .cfa -80 + ^ .ra: .cfa -88 + ^ x29: .cfa -96 + ^
STACK CFI 12680 .cfa: sp 176 +
STACK CFI 1269c .cfa: sp 0 +
STACK CFI 126a0 .cfa: x29 96 +
STACK CFI INIT 126a4 1e4 .cfa: sp 0 +
STACK CFI 126a8 .cfa: sp 32 +
STACK CFI 126b0 .cfa: x29 32 + x19: .cfa -8 + ^ x20: .cfa -16 + ^ .ra: .cfa -24 + ^ x29: .cfa -32 + ^
STACK CFI 127a0 .cfa: sp 32 +
STACK CFI 127a8 .cfa: sp 0 +
STACK CFI 127ac .cfa: x29 32 +
STACK CFI 12820 .cfa: sp 32 +
STACK CFI 12828 .cfa: sp 0 +
STACK CFI 1282c .cfa: x29 32 +
STACK CFI 1283c .cfa: sp 32 +
STACK CFI 12844 .cfa: sp 0 +
STACK CFI 12848 .cfa: x29 32 +
STACK CFI 12858 .cfa: sp 32 +
STACK CFI 12860 .cfa: sp 0 +
STACK CFI 12864 .cfa: x29 32 +
STACK CFI INIT 12888 178 .cfa: sp 0 +
STACK CFI 1288c .cfa: sp 80 +
STACK CFI 128a0 .cfa: x29 64 + x19: .cfa -8 + ^ x20: .cfa -16 + ^ x21: .cfa -24 + ^ x22: .cfa -32 + ^ x23: .cfa -40 + ^ x24: .cfa -48 + ^ .ra: .cfa -56 + ^ x29: .cfa -64 + ^
STACK CFI 129e4 .cfa: sp 80 +
STACK CFI 129f8 .cfa: sp 0 +
STACK CFI 129fc .cfa: x29 64 +
STACK CFI INIT 12a00 178 .cfa: sp 0 +
STACK CFI 12a04 .cfa: sp 80 +
STACK CFI 12a18 .cfa: x29 64 + x19: .cfa -8 + ^ x20: .cfa -16 + ^ x21: .cfa -24 + ^ x22: .cfa -32 + ^ x23: .cfa -40 + ^ x24: .cfa -48 + ^ .ra: .cfa -56 + ^ x29: .cfa -64 + ^
STACK CFI 12b5c .cfa: sp 80 +
STACK CFI 12b70 .cfa: sp 0 +
STACK CFI 12b74 .cfa: x29 64 +
STACK CFI INIT 12b78 178 .cfa: sp 0 +
STACK CFI 12b7c .cfa: sp 80 +
STACK CFI 12b90 .cfa: x29 64 + x19: .cfa -8 + ^ x20: .cfa -16 + ^ x21: .cfa -24 + ^ x22: .cfa -32 + ^ x23: .cfa -40 + ^ x24: .cfa -48 + ^ .ra: .cfa -56 + ^ x29: .cfa -64 + ^
STACK CFI 12cd4 .cfa: sp 80 +
STACK CFI 12ce8 .cfa: sp 0 +
STACK CFI 12cec .cfa: x29 64 +
STACK CFI INIT 12cf0 14 .cfa: sp 0 +
STACK CFI INIT 12d04 14 .cfa: sp 0 +
STACK CFI INIT 12d18 34 .cfa: sp 0 +
STACK CFI 12d1c .cfa: sp 32 +
STACK CFI 12d24 .cfa: x29 32 + x19: .cfa -16 + ^ .ra: .cfa -24 + ^ x29: .cfa -32 + ^
STACK CFI 12d40 .cfa: sp 32 +
STACK CFI 12d48 .cfa: sp 0 +
STACK CFI INIT 12d4c 24 .cfa: sp 0 +
STACK CFI 12d50 .cfa: sp 32 +
STACK CFI 12d58 .cfa: x29 32 + x19: .cfa -16 + ^ .ra: .cfa -24 + ^ x29: .cfa -32 + ^
STACK CFI 12d64 .cfa: sp 32 +
STACK CFI 12d6c .cfa: sp 0 +
STACK CFI INIT 13004 80 .cfa: sp 0 +
STACK CFI 13008 .cfa: sp 48 +
STACK CFI 13014 .cfa: x29 48 + x19: .cfa -8 + ^ x20: .cfa -16 + ^ x21: .cfa -32 + ^ .ra: .cfa -40 + ^ x29: .cfa -48 + ^
STACK CFI 13074 .cfa: sp 48 +
STACK CFI 13080 .cfa: sp 0 +
STACK CFI INIT 1357c 148 .cfa: sp 0 +
STACK CFI 13580 .cfa: sp 48 +
STACK CFI 1358c .cfa: x29 48 + x19: .cfa -8 + ^ x20: .cfa -16 + ^ x21: .cfa -32 + ^ .ra: .cfa -40 + ^ x29: .cfa -48 + ^
STACK CFI 136b4 .cfa: sp 48 +
STACK CFI 136c0 .cfa: sp 0 +
STACK CFI INIT 136c4 14 .cfa: sp 0 +
STACK CFI INIT 136d8 14 .cfa: sp 0 +
STACK CFI INIT 136ec 8 .cfa: sp 0 +
STACK CFI INIT 136f4 14 .cfa: sp 0 +
STACK CFI INIT 13708 8 .cfa: sp 0 +
STACK CFI INIT 13710 14 .cfa: sp 0 +
STACK CFI INIT 13724 8 .cfa: sp 0 +
STACK CFI INIT 1372c 14 .cfa: sp 0 +
STACK CFI INIT 13790 30 .cfa: sp 0 +
STACK CFI 13794 .cfa: sp 32 +
STACK CFI 1379c .cfa: x29 32 + x19: .cfa -16 + ^ .ra: .cfa -24 + ^ x29: .cfa -32 + ^
STACK CFI 137b4 .cfa: sp 32 +
STACK CFI 137bc .cfa: sp 0 +
STACK CFI INIT 13ac4 14 .cfa: sp 0 +
STACK CFI 13ac8 .cfa: sp 16 +
STACK CFI 13acc .cfa: x29 16 + .ra: .cfa -8 + ^ x29: .cfa -16 + ^
STACK CFI INIT 13ad8 ac .cfa: sp 0 +
STACK CFI 13adc .cfa: sp 64 +
STACK CFI 13aec .cfa: x29 64 + x19: .cfa -8 + ^ x20: .cfa -16 + ^ x21: .cfa -24 + ^ x22: .cfa -32 + ^ x23: .cfa -48 + ^ .ra: .cfa -56 + ^ x29: .cfa -64 + ^
STACK CFI 13b68 .cfa: sp 64 +
STACK CFI 13b78 .cfa: sp 0 +
STACK CFI 13b7c .cfa: x29 64 +
STACK CFI INIT 13b84 110 .cfa: sp 0 +
STACK CFI 13b88 .cfa: sp 64 +
STACK CFI 13b98 .cfa: x29 64 + x19: .cfa -8 + ^ x20: .cfa -16 + ^ x21: .cfa -24 + ^ x22: .cfa -32 + ^ x23: .cfa -40 + ^ x24: .cfa -48 + ^ .ra: .cfa -56 + ^ x29: .cfa -64 + ^
STACK CFI 13c78 .cfa: sp 64 +
STACK CFI 13c88 .cfa: sp 0 +
STACK CFI 13c8c .cfa: x29 64 +
STACK CFI INIT 13c94 4 .cfa: sp 0 +
STACK CFI INIT 13c98 14 .cfa: sp 0 +
STACK CFI INIT 13f7c 14 .cfa: sp 0 +
STACK CFI 13f80 .cfa: sp 16 +
STACK CFI 13f84 .cfa: x29 16 + .ra: .cfa -8 + ^ x29: .cfa -16 + ^
STACK CFI INIT 13f90 34 .cfa: sp 0 +
STACK CFI 13f94 .cfa: sp 32 +
STACK CFI 13f9c .cfa: x29 32 + x19: .cfa -16 + ^ .ra: .cfa -24 + ^ x29: .cfa -32 + ^
STACK CFI 13fb8 .cfa: sp 32 +
STACK CFI 13fc0 .cfa: sp 0 +
STACK CFI INIT 13fc4 8 .cfa: sp 0 +
STACK CFI INIT 13fcc 14 .cfa: sp 0 +
STACK CFI INIT 14294 4 .cfa: sp 0 +
STACK CFI INIT 14298 14 .cfa: sp 0 +
STACK CFI INIT 14338 c .cfa: sp 0 +
STACK CFI INIT 14344 44 .cfa: sp 0 +
STACK CFI 14348 .cfa: sp 32 +
STACK CFI 14350 .cfa: x29 32 + x19: .cfa -16 + ^ .ra: .cfa -24 + ^ x29: .cfa -32 + ^
STACK CFI 14370 .cfa: sp 32 +
STACK CFI 14378 .cfa: sp 0 +
STACK CFI 1437c .cfa: sp 32 +
STACK CFI 14384 .cfa: sp 0 +
STACK CFI INIT 14388 c .cfa: sp 0 +
STACK CFI INIT 14944 c .cfa: sp 0 +
STACK CFI INIT 14994 c .cfa: sp 0 +
STACK CFI INIT 157a4 3c .cfa: sp 0 +
STACK CFI 157a8 .cfa: sp 32 +
STACK CFI 157b0 .cfa: x29 32 + x19: .cfa -16 + ^ .ra: .cfa -24 + ^ x29: .cfa -32 + ^
STACK CFI 157bc .cfa: sp 32 +
STACK CFI 157c4 .cfa: sp 0 +
STACK CFI 157c8 .cfa: x29 32 +
STACK CFI 157d4 .cfa: sp 32 +
STACK CFI 157dc .cfa: sp 0 +
STACK CFI INIT 157e0 30 .cfa: sp 0 +
STACK CFI INIT 15810 98 .cfa: sp 0 +
STACK CFI INIT 158a8 59c .cfa: sp 0 +
STACK CFI INIT 15e44 8c .cfa: sp 0 +
STACK CFI INIT 160f0 50 .cfa: sp 0 +
STACK CFI 160f4 .cfa: sp 32 +
STACK CFI 160fc .cfa: x29 32 + x19: .cfa -16 + ^ .ra: .cfa -24 + ^ x29: .cfa -32 + ^
STACK CFI 16114 .cfa: sp 32 +
STACK CFI 1611c .cfa: sp 0 +
STACK CFI 16120 .cfa: x29 32 +
STACK CFI 16134 .cfa: sp 32 +
STACK CFI 1613c .cfa: sp 0 +
STACK CFI INIT 16140 64 .cfa: sp 0 +
STACK CFI 16144 .cfa: sp 32 +
STACK CFI 1614c .cfa: x29 32 + x19: .cfa -16 + ^ .ra: .cfa -24 + ^ x29: .cfa -32 + ^
STACK CFI 16178 .cfa: sp 32 +
STACK CFI 16180 .cfa: sp 0 +
STACK CFI 16184 .cfa: x29 32 +
STACK CFI 16198 .cfa: sp 32 +
STACK CFI 161a0 .cfa: sp 0 +
STACK CFI INIT 16b50 34 .cfa: sp 0 +
STACK CFI 16b54 .cfa: sp 32 +
STACK CFI 16b5c .cfa: x29 32 + x19: .cfa -16 + ^ .ra: .cfa -24 + ^ x29: .cfa -32 + ^
STACK CFI INIT 16b84 4 .cfa: sp 0 +
STACK CFI INIT 16b88 14 .cfa: sp 0 +
STACK CFI INIT 1707c c .cfa: sp 0 +
STACK CFI INIT 17088 24c .cfa: sp 0 +
STACK CFI INIT 172d4 a0 .cfa: sp 0 +
STACK CFI 172e0 .cfa: sp 32 +
STACK CFI 17338 .cfa: sp 0 +
STACK CFI 1733c .cfa: sp 32 +
STACK CFI 17344 .cfa: sp 0 +
STACK CFI 17348 .cfa: sp 32 +
STACK CFI 1735c .cfa: sp 0 +
STACK CFI 17360 .cfa: sp 32 +
STACK CFI 17370 .cfa: sp 0 +
STACK CFI INIT 17374 38 .cfa: sp 0 +
STACK CFI 17380 .cfa: sp 32 +
STACK CFI 173a8 .cfa: sp 0 +
STACK CFI INIT 17640 7c .cfa: sp 0 +
STACK CFI 17644 .cfa: sp 32 +
STACK CFI 1764c .cfa: x29 32 + x19: .cfa -16 + ^ .ra: .cfa -24 + ^ x29: .cfa -32 + ^
STACK CFI 17678 .cfa: sp 32 +
STACK CFI 17680 .cfa: sp 0 +
STACK CFI 17684 .cfa: x29 32 +
STACK CFI 176b0 .cfa: sp 32 +
STACK CFI 176b8 .cfa: sp 0 +
STACK CFI INIT 1770c 2c .cfa: sp 0 +
STACK CFI 17710 .cfa: sp 32 +
STACK CFI 17718 .cfa: x29 32 + x19: .cfa -16 + ^ .ra: .cfa -24 + ^ x29: .cfa -32 + ^
STACK CFI 1772c .cfa: sp 32 +
STACK CFI 17734 .cfa: sp 0 +
STACK CFI INIT 17ef8 64 .cfa: sp 0 +
STACK CFI 17efc .cfa: sp 32 +
STACK CFI 17f04 .cfa: x29 32 + x19: .cfa -16 + ^ .ra: .cfa -24 + ^ x29: .cfa -32 + ^
STACK CFI 17f20 .cfa: sp 32 +
STACK CFI 17f28 .cfa: sp 0 +
STACK CFI 17f2c .cfa: x29 32 +
STACK CFI 17f50 .cfa: sp 32 +
STACK CFI 17f58 .cfa: sp 0 +
STACK CFI INIT 18098 570 .cfa: sp 0 +
STACK CFI 1809c .cfa: sp 176 +
STACK CFI 180b0 .cfa: x29 64 + x19: .cfa -8 + ^ x20: .cfa -16 + ^ x21: .cfa -24 + ^ x22: .cfa -32 + ^ x23: .cfa -40 + ^ x24: .cfa -48 + ^ .ra: .cfa -56 + ^ x29: .cfa -64 + ^
STACK CFI 182e0 .cfa: sp 176 +
STACK CFI 182f4 .cfa: sp 0 +
STACK CFI 182f8 .cfa: x29 64 +
STACK CFI 18344 .cfa: sp 176 +
STACK CFI 18358 .cfa: sp 0 +
STACK CFI 1835c .cfa: x29 64 +
STACK CFI 18394 .cfa: sp 176 +
STACK CFI 183a8 .cfa: sp 0 +
STACK CFI 183ac .cfa: x29 64 +
STACK CFI 183c4 .cfa: sp 176 +
STACK CFI 183d8 .cfa: sp 0 +
STACK CFI 183dc .cfa: x29 64 +
STACK CFI 183fc .cfa: sp 176 +
STACK CFI 18410 .cfa: sp 0 +
STACK CFI 18414 .cfa: x29 64 +
STACK CFI 1842c .cfa: sp 176 +
STACK CFI 18440 .cfa: sp 0 +
STACK CFI 18444 .cfa: x29 64 +
STACK CFI 18458 .cfa: sp 176 +
STACK CFI 1846c .cfa: sp 0 +
STACK CFI 18470 .cfa: x29 64 +
STACK CFI 18484 .cfa: sp 176 +
STACK CFI 18498 .cfa: sp 0 +
STACK CFI 1849c .cfa: x29 64 +
STACK CFI 184ac .cfa: sp 176 +
STACK CFI 184c0 .cfa: sp 0 +
STACK CFI 184c4 .cfa: x29 64 +
STACK CFI 184d4 .cfa: sp 176 +
STACK CFI 184e8 .cfa: sp 0 +
STACK CFI 184ec .cfa: x29 64 +
STACK CFI 18504 .cfa: sp 176 +
STACK CFI 18518 .cfa: sp 0 +
STACK CFI 1851c .cfa: x29 64 +
STACK CFI 18530 .cfa: sp 176 +
STACK CFI 18544 .cfa: sp 0 +
STACK CFI 18548 .cfa: x29 64 +
STACK CFI 18560 .cfa: sp 176 +
STACK CFI 18574 .cfa: sp 0 +
STACK CFI 18578 .cfa: x29 64 +
STACK CFI 185a4 .cfa: sp 176 +
STACK CFI 185b8 .cfa: sp 0 +
STACK CFI 185bc .cfa: x29 64 +
STACK CFI 185d0 .cfa: sp 176 +
STACK CFI 185e4 .cfa: sp 0 +
STACK CFI 185e8 .cfa: x29 64 +
STACK CFI INIT 18608 228 .cfa: sp 0 +
STACK CFI INIT 18830 2dc .cfa: sp 0 +
STACK CFI INIT 18b0c 53c .cfa: sp 0 +
STACK CFI INIT 19048 8c .cfa: sp 0 +
STACK CFI 1904c .cfa: sp 32 +
STACK CFI 19054 .cfa: x29 32 + x19: .cfa -16 + ^ .ra: .cfa -24 + ^ x29: .cfa -32 + ^
STACK CFI 19088 .cfa: sp 32 +
STACK CFI 19090 .cfa: sp 0 +
STACK CFI 19094 .cfa: x29 32 +
STACK CFI 190c8 .cfa: sp 32 +
STACK CFI 190d0 .cfa: sp 0 +
STACK CFI INIT 190d4 24 .cfa: sp 0 +
STACK CFI 190d8 .cfa: sp 32 +
STACK CFI 190e0 .cfa: x29 32 + x19: .cfa -16 + ^ .ra: .cfa -24 + ^ x29: .cfa -32 + ^
STACK CFI 190ec .cfa: sp 32 +
STACK CFI 190f4 .cfa: sp 0 +
STACK CFI INIT 190f8 150 .cfa: sp 0 +
STACK CFI 190fc .cfa: sp 48 +
STACK CFI 19108 .cfa: x29 48 + x19: .cfa -8 + ^ x20: .cfa -16 + ^ x21: .cfa -24 + ^ x22: .cfa -32 + ^ .ra: .cfa -40 + ^ x29: .cfa -48 + ^
STACK CFI 19238 .cfa: sp 48 +
STACK CFI 19244 .cfa: sp 0 +
STACK CFI INIT 19248 68 .cfa: sp 0 +
STACK CFI 1924c .cfa: sp 64 +
STACK CFI 19258 .cfa: x29 32 + x19: .cfa -16 + ^ .ra: .cfa -24 + ^ x29: .cfa -32 + ^
STACK CFI 1929c .cfa: sp 64 +
STACK CFI 192a8 .cfa: sp 0 +
STACK CFI 192ac .cfa: x29 32 +
STACK CFI INIT 192b0 90 .cfa: sp 0 +
STACK CFI 192b4 .cfa: sp 32 +
STACK CFI 192bc .cfa: x29 32 + x19: .cfa -8 + ^ x20: .cfa -16 + ^ .ra: .cfa -24 + ^ x29: .cfa -32 + ^
STACK CFI 192e8 .cfa: sp 32 +
STACK CFI 192f0 .cfa: sp 0 +
STACK CFI 192f4 .cfa: x29 32 +
STACK CFI 19334 .cfa: sp 32 +
STACK CFI 1933c .cfa: sp 0 +
STACK CFI INIT 19340 ec .cfa: sp 0 +
STACK CFI 19344 .cfa: sp 112 +
STACK CFI 19354 .cfa: x29 48 + x19: .cfa -8 + ^ x20: .cfa -16 + ^ x21: .cfa -32 + ^ .ra: .cfa -40 + ^ x29: .cfa -48 + ^
STACK CFI 19414 .cfa: sp 112 +
STACK CFI 19424 .cfa: sp 0 +
STACK CFI 19428 .cfa: x29 48 +
STACK CFI INIT 1942c ec .cfa: sp 0 +
STACK CFI 19430 .cfa: sp 112 +
STACK CFI 19440 .cfa: x29 48 + x19: .cfa -8 + ^ x20: .cfa -16 + ^ x21: .cfa -32 + ^ .ra: .cfa -40 + ^ x29: .cfa -48 + ^
STACK CFI 19500 .cfa: sp 112 +
STACK CFI 19510 .cfa: sp 0 +
STACK CFI 19514 .cfa: x29 48 +
STACK CFI INIT 19518 48 .cfa: sp 0 +
STACK CFI 1951c .cfa: sp 32 +
STACK CFI 19524 .cfa: x29 32 + x19: .cfa -8 + ^ x20: .cfa -16 + ^ .ra: .cfa -24 + ^ x29: .cfa -32 + ^
STACK CFI 19548 .cfa: sp 32 +
STACK CFI 19550 .cfa: sp 0 +
STACK CFI 19554 .cfa: x29 32 +
STACK CFI INIT 19560 98 .cfa: sp 0 +
STACK CFI 19564 .cfa: sp 80 +
STACK CFI 19570 .cfa: x29 32 + x19: .cfa -16 + ^ .ra: .cfa -24 + ^ x29: .cfa -32 + ^
STACK CFI 195e4 .cfa: sp 80 +
STACK CFI 195f0 .cfa: sp 0 +
STACK CFI 195f4 .cfa: x29 32 +
STACK CFI INIT 195f8 260 .cfa: sp 0 +
STACK CFI 195fc .cfa: sp 112 +
STACK CFI 19614 .cfa: x29 80 + x19: .cfa -8 + ^ x20: .cfa -16 + ^ x21: .cfa -24 + ^ x22: .cfa -32 + ^ x23: .cfa -40 + ^ x24: .cfa -48 + ^ x25: .cfa -64 + ^ .ra: .cfa -72 + ^ x29: .cfa -80 + ^
STACK CFI 197f8 .cfa: sp 112 +
STACK CFI 19810 .cfa: sp 0 +
STACK CFI 19814 .cfa: x29 80 +
STACK CFI INIT 19858 150 .cfa: sp 0 +
STACK CFI 1985c .cfa: sp 48 +
STACK CFI 19868 .cfa: x29 48 + x19: .cfa -8 + ^ x20: .cfa -16 + ^ x21: .cfa -24 + ^ x22: .cfa -32 + ^ .ra: .cfa -40 + ^ x29: .cfa -48 + ^
STACK CFI 19998 .cfa: sp 48 +
STACK CFI 199a4 .cfa: sp 0 +
STACK CFI INIT 199a8 1e0 .cfa: sp 0 +
STACK CFI 199ac .cfa: sp 96 +
STACK CFI 199c0 .cfa: x29 64 + x19: .cfa -8 + ^ x20: .cfa -16 + ^ x21: .cfa -24 + ^ x22: .cfa -32 + ^ x23: .cfa -40 + ^ x24: .cfa -48 + ^ .ra: .cfa -56 + ^ x29: .cfa -64 + ^
STACK CFI 19b40 .cfa: sp 96 +
STACK CFI 19b54 .cfa: sp 0 +
STACK CFI 19b58 .cfa: x29 64 +
STACK CFI INIT 19b88 284 .cfa: sp 0 +
STACK CFI 19b8c .cfa: sp 112 +
STACK CFI 19ba4 .cfa: x29 80 + x19: .cfa -8 + ^ x20: .cfa -16 + ^ x21: .cfa -24 + ^ x22: .cfa -32 + ^ x23: .cfa -40 + ^ x24: .cfa -48 + ^ x25: .cfa -64 + ^ .ra: .cfa -72 + ^ x29: .cfa -80 + ^
STACK CFI 19dac .cfa: sp 112 +
STACK CFI 19dc4 .cfa: sp 0 +
STACK CFI 19dc8 .cfa: x29 80 +
STACK CFI INIT 19e0c 208 .cfa: sp 0 +
STACK CFI 19e10 .cfa: sp 96 +
STACK CFI 19e24 .cfa: x29 64 + x19: .cfa -8 + ^ x20: .cfa -16 + ^ x21: .cfa -24 + ^ x22: .cfa -32 + ^ x23: .cfa -40 + ^ x24: .cfa -48 + ^ .ra: .cfa -56 + ^ x29: .cfa -64 + ^
STACK CFI 19fcc .cfa: sp 96 +
STACK CFI 19fe0 .cfa: sp 0 +
STACK CFI 19fe4 .cfa: x29 64 +
STACK CFI INIT 1a014 360 .cfa: sp 0 +
STACK CFI 1a018 .cfa: sp 160 +
STACK CFI 1a034 .cfa: x29 96 + x19: .cfa -8 + ^ x20: .cfa -16 + ^ x21: .cfa -24 + ^ x22: .cfa -32 + ^ x23: .cfa -40 + ^ x24: .cfa -48 + ^ x25: .cfa -56 + ^ x26: .cfa -64 + ^ x27: .cfa -72 + ^ x28: .cfa -80 + ^ .ra: .cfa -88 + ^ x29: .cfa -96 + ^
STACK CFI 1a300 .cfa: sp 160 +
STACK CFI 1a31c .cfa: sp 0 +
STACK CFI 1a320 .cfa: x29 96 +
STACK CFI INIT 1a374 314 .cfa: sp 0 +
STACK CFI 1a378 .cfa: sp 144 +
STACK CFI 1a394 .cfa: x29 96 + x19: .cfa -8 + ^ x20: .cfa -16 + ^ x21: .cfa -24 + ^ x22: .cfa -32 + ^ x23: .cfa -40 + ^ x24: .cfa -48 + ^ x25: .cfa -56 + ^ x26: .cfa -64 + ^ x27: .cfa -72 + ^ x28: .cfa -80 + ^ .ra: .cfa -88 + ^ x29: .cfa -96 + ^
STACK CFI 1a610 .cfa: sp 144 +
STACK CFI 1a62c .cfa: sp 0 +
STACK CFI 1a630 .cfa: x29 96 +
STACK CFI INIT 1a688 2b4 .cfa: sp 0 +
STACK CFI 1a68c .cfa: sp 128 +
STACK CFI 1a6a4 .cfa: x29 80 + x19: .cfa -8 + ^ x20: .cfa -16 + ^ x21: .cfa -24 + ^ x22: .cfa -32 + ^ x23: .cfa -40 + ^ x24: .cfa -48 + ^ x25: .cfa -56 + ^ x26: .cfa -64 + ^ .ra: .cfa -72 + ^ x29: .cfa -80 + ^
STACK CFI 1a898 .cfa: sp 128 +
STACK CFI 1a8b0 .cfa: sp 0 +
STACK CFI 1a8b4 .cfa: x29 80 +
STACK CFI 1a91c .cfa: sp 128 +
STACK CFI 1a934 .cfa: sp 0 +
STACK CFI 1a938 .cfa: x29 80 +
STACK CFI INIT 1a93c de0 .cfa: sp 0 +
STACK CFI 1a940 .cfa: sp 144 +
STACK CFI 1a95c .cfa: x29 96 + x19: .cfa -8 + ^ x20: .cfa -16 + ^ x21: .cfa -24 + ^ x22: .cfa -32 + ^ x23: .cfa -40 + ^ x24: .cfa -48 + ^ x25: .cfa -56 + ^ x26: .cfa -64 + ^ x27: .cfa -72 + ^ x28: .cfa -80 + ^ .ra: .cfa -88 + ^ x29: .cfa -96 + ^
STACK CFI 1b5f4 .cfa: sp 144 +
STACK CFI 1b610 .cfa: sp 0 +
STACK CFI 1b614 .cfa: x29 96 +
STACK CFI INIT 1b71c 264 .cfa: sp 0 +
STACK CFI 1b720 .cfa: sp 112 +
STACK CFI 1b734 .cfa: x29 64 + x19: .cfa -8 + ^ x20: .cfa -16 + ^ x21: .cfa -24 + ^ x22: .cfa -32 + ^ x23: .cfa -40 + ^ x24: .cfa -48 + ^ .ra: .cfa -56 + ^ x29: .cfa -64 + ^
STACK CFI 1b8b0 .cfa: sp 112 +
STACK CFI 1b8c4 .cfa: sp 0 +
STACK CFI 1b8c8 .cfa: x29 64 +
STACK CFI 1b938 .cfa: sp 112 +
STACK CFI 1b94c .cfa: sp 0 +
STACK CFI 1b950 .cfa: x29 64 +
STACK CFI INIT 1b980 258 .cfa: sp 0 +
STACK CFI 1b984 .cfa: sp 96 +
STACK CFI 1b99c .cfa: x29 96 + x19: .cfa -8 + ^ x20: .cfa -16 + ^ x21: .cfa -24 + ^ x22: .cfa -32 + ^ x23: .cfa -40 + ^ x24: .cfa -48 + ^ x25: .cfa -56 + ^ x26: .cfa -64 + ^ x27: .cfa -72 + ^ x28: .cfa -80 + ^ .ra: .cfa -88 + ^ x29: .cfa -96 + ^
STACK CFI 1bb94 .cfa: sp 96 +
STACK CFI 1bbac .cfa: sp 0 +
STACK CFI 1bbb0 .cfa: x29 96 +
STACK CFI 1bbbc .cfa: sp 96 +
STACK CFI 1bbd4 .cfa: sp 0 +
STACK CFI INIT 1c85c 154 .cfa: sp 0 +
STACK CFI 1c860 .cfa: sp 96 +
STACK CFI 1c874 .cfa: x29 64 + x19: .cfa -8 + ^ x20: .cfa -16 + ^ x21: .cfa -24 + ^ x22: .cfa -32 + ^ x23: .cfa -48 + ^ .ra: .cfa -56 + ^ x29: .cfa -64 + ^
STACK CFI 1c954 .cfa: sp 96 +
STACK CFI 1c968 .cfa: sp 0 +
STACK CFI 1c96c .cfa: x29 64 +
STACK CFI INIT 1cc1c 44 .cfa: sp 0 +
STACK CFI 1cc20 .cfa: sp 32 +
STACK CFI 1cc28 .cfa: x29 32 + x19: .cfa -16 + ^ .ra: .cfa -24 + ^ x29: .cfa -32 + ^
STACK CFI 1cc44 .cfa: sp 32 +
STACK CFI 1cc4c .cfa: sp 0 +
STACK CFI 1cc50 .cfa: x29 32 +
STACK CFI 1cc54 .cfa: sp 32 +
STACK CFI 1cc5c .cfa: sp 0 +
STACK CFI INIT 1cc60 1d0 .cfa: sp 0 +
STACK CFI 1cc64 .cfa: sp 64 +
STACK CFI 1cc74 .cfa: x29 64 + x19: .cfa -8 + ^ x20: .cfa -16 + ^ x21: .cfa -24 + ^ x22: .cfa -32 + ^ x23: .cfa -40 + ^ x24: .cfa -48 + ^ .ra: .cfa -56 + ^ x29: .cfa -64 + ^
STACK CFI 1cd34 .cfa: sp 64 +
STACK CFI 1cd44 .cfa: sp 0 +
STACK CFI 1cd48 .cfa: x29 64 +
STACK CFI INIT 1ce30 17c .cfa: sp 0 +
STACK CFI INIT 1d364 a0 .cfa: sp 0 +
STACK CFI 1d368 .cfa: sp 48 +
STACK CFI 1d374 .cfa: x29 48 + x19: .cfa -8 + ^ x20: .cfa -16 + ^ x21: .cfa -24 + ^ x22: .cfa -32 + ^ .ra: .cfa -40 + ^ x29: .cfa -48 + ^
STACK CFI 1d3e0 .cfa: sp 48 +
STACK CFI 1d3ec .cfa: sp 0 +
STACK CFI 1d3f0 .cfa: sp 48 +
STACK CFI 1d3fc .cfa: sp 0 +
STACK CFI 1d400 .cfa: x29 48 +
STACK CFI INIT 1e0c4 158 .cfa: sp 0 +
STACK CFI 1e0c8 .cfa: sp 96 +
STACK CFI 1e0dc .cfa: x29 64 + x19: .cfa -8 + ^ x20: .cfa -16 + ^ x21: .cfa -24 + ^ x22: .cfa -32 + ^ x23: .cfa -48 + ^ .ra: .cfa -56 + ^ x29: .cfa -64 + ^
STACK CFI 1e1c0 .cfa: sp 96 +
STACK CFI 1e1d4 .cfa: sp 0 +
STACK CFI 1e1d8 .cfa: x29 64 +
STACK CFI INIT 1e21c 190 .cfa: sp 0 +
STACK CFI INIT 1eea4 1f4 .cfa: sp 0 +
STACK CFI 1eea8 .cfa: sp 80 +
STACK CFI 1eebc .cfa: x29 80 + x19: .cfa -8 + ^ x20: .cfa -16 + ^ x21: .cfa -24 + ^ x22: .cfa -32 + ^ x23: .cfa -40 + ^ x24: .cfa -48 + ^ x25: .cfa -64 + ^ .ra: .cfa -72 + ^ x29: .cfa -80 + ^
STACK CFI 1f05c .cfa: sp 80 +
STACK CFI 1f070 .cfa: sp 0 +
STACK CFI 1f074 .cfa: x29 80 +
STACK CFI 1f080 .cfa: sp 80 +
STACK CFI 1f094 .cfa: sp 0 +
STACK CFI INIT 204c8 124 .cfa: sp 0 +
STACK CFI 204f8 .cfa: sp 32 +
STACK CFI 20500 .cfa: x29 32 + x19: .cfa -8 + ^ x20: .cfa -16 + ^ .ra: .cfa -24 + ^ x29: .cfa -32 + ^
STACK CFI 205e0 .cfa: sp 32 +
STACK CFI 205e8 .cfa: sp 0 +
STACK CFI INIT 20d48 320 .cfa: sp 0 +
STACK CFI 20d4c .cfa: sp 64 +
STACK CFI 20d5c .cfa: x29 64 + x19: .cfa -8 + ^ x20: .cfa -16 + ^ x21: .cfa -24 + ^ x22: .cfa -32 + ^ x23: .cfa -40 + ^ x24: .cfa -48 + ^ .ra: .cfa -56 + ^ x29: .cfa -64 + ^
STACK CFI 20dd8 .cfa: sp 64 +
STACK CFI 20de8 .cfa: sp 0 +
STACK CFI 20dec .cfa: x29 64 +
STACK CFI 20fc0 .cfa: sp 64 +
STACK CFI 20fd0 .cfa: sp 0 +
STACK CFI 20fd4 .cfa: x29 64 +
STACK CFI 20fe4 .cfa: sp 64 +
STACK CFI 20ff4 .cfa: sp 0 +
STACK CFI 20ff8 .cfa: x29 64 +
STACK CFI INIT 21068 a0 .cfa: sp 0 +
STACK CFI 2106c .cfa: sp 48 +
STACK CFI 21078 .cfa: x29 48 + x19: .cfa -8 + ^ x20: .cfa -16 + ^ x21: .cfa -24 + ^ x22: .cfa -32 + ^ .ra: .cfa -40 + ^ x29: .cfa -48 + ^
STACK CFI 210e4 .cfa: sp 48 +
STACK CFI 210f0 .cfa: sp 0 +
STACK CFI 210f4 .cfa: sp 48 +
STACK CFI 21100 .cfa: sp 0 +
STACK CFI 21104 .cfa: x29 48 +
STACK CFI INIT 21fe8 160 .cfa: sp 0 +
STACK CFI 21fec .cfa: sp 64 +
STACK CFI 21ffc .cfa: x29 64 + x19: .cfa -8 + ^ x20: .cfa -16 + ^ x21: .cfa -24 + ^ x22: .cfa -32 + ^ x23: .cfa -48 + ^ .ra: .cfa -56 + ^ x29: .cfa -64 + ^
STACK CFI 220f4 .cfa: sp 64 +
STACK CFI 22104 .cfa: sp 0 +
STACK CFI 22108 .cfa: x29 64 +
STACK CFI INIT 22148 214 .cfa: sp 0 +
STACK CFI 2214c .cfa: sp 128 +
STACK CFI 22168 .cfa: x29 96 + x19: .cfa -8 + ^ x20: .cfa -16 + ^ x21: .cfa -24 + ^ x22: .cfa -32 + ^ x23: .cfa -40 + ^ x24: .cfa -48 + ^ x25: .cfa -56 + ^ x26: .cfa -64 + ^ x27: .cfa -80 + ^ .ra: .cfa -88 + ^ x29: .cfa -96 + ^
STACK CFI 222e4 .cfa: sp 128 +
STACK CFI 22300 .cfa: sp 0 +
STACK CFI 22304 .cfa: x29 96 +
STACK CFI INIT 23e40 e60 .cfa: sp 0 +
STACK CFI 23e44 .cfa: sp 192 +
STACK CFI 23e60 .cfa: x29 96 + x19: .cfa -8 + ^ x20: .cfa -16 + ^ x21: .cfa -24 + ^ x22: .cfa -32 + ^ x23: .cfa -40 + ^ x24: .cfa -48 + ^ x25: .cfa -56 + ^ x26: .cfa -64 + ^ x27: .cfa -72 + ^ x28: .cfa -80 + ^ .ra: .cfa -88 + ^ x29: .cfa -96 + ^
STACK CFI 24b88 .cfa: sp 192 +
STACK CFI 24ba4 .cfa: sp 0 +
STACK CFI 24ba8 .cfa: x29 96 +
STACK CFI INIT 24ca0 1090 .cfa: sp 0 +
STACK CFI 24ca4 .cfa: sp 288 +
STACK CFI 24cc0 .cfa: x29 96 + x19: .cfa -8 + ^ x20: .cfa -16 + ^ x21: .cfa -24 + ^ x22: .cfa -32 + ^ x23: .cfa -40 + ^ x24: .cfa -48 + ^ x25: .cfa -56 + ^ x26: .cfa -64 + ^ x27: .cfa -72 + ^ x28: .cfa -80 + ^ .ra: .cfa -88 + ^ x29: .cfa -96 + ^
STACK CFI 25a78 .cfa: sp 288 +
STACK CFI 25a94 .cfa: sp 0 +
STACK CFI 25a98 .cfa: x29 96 +
STACK CFI INIT 25d30 520 .cfa: sp 0 +
STACK CFI 25d34 .cfa: sp 144 +
STACK CFI 25d50 .cfa: x29 96 + x19: .cfa -8 + ^ x20: .cfa -16 + ^ x21: .cfa -24 + ^ x22: .cfa -32 + ^ x23: .cfa -40 + ^ x24: .cfa -48 + ^ x25: .cfa -56 + ^ x26: .cfa -64 + ^ x27: .cfa -72 + ^ x28: .cfa -80 + ^ .ra: .cfa -88 + ^ x29: .cfa -96 + ^
STACK CFI 2622c .cfa: sp 144 +
STACK CFI 26248 .cfa: sp 0 +
STACK CFI 2624c .cfa: x29 96 +
STACK CFI INIT a7d8 228 .cfa: sp 0 +
STACK CFI a7dc .cfa: sp 128 +
STACK CFI a7f0 .cfa: x29 64 + x19: .cfa -8 + ^ x20: .cfa -16 + ^ x21: .cfa -24 + ^ x22: .cfa -32 + ^ x23: .cfa -40 + ^ x24: .cfa -48 + ^ .ra: .cfa -56 + ^ x29: .cfa -64 + ^
STACK CFI a97c .cfa: sp 128 +
STACK CFI a990 .cfa: sp 0 +
STACK CFI a994 .cfa: x29 64 +
STACK CFI INIT aaf8 2218 .cfa: sp 0 +
STACK CFI aafc .cfa: sp 96 +
STACK CFI ab14 .cfa: x29 96 + x19: .cfa -8 + ^ x20: .cfa -16 + ^ x21: .cfa -24 + ^ x22: .cfa -32 + ^ x23: .cfa -40 + ^ x24: .cfa -48 + ^ x25: .cfa -56 + ^ x26: .cfa -64 + ^ x27: .cfa -72 + ^ x28: .cfa -80 + ^ .ra: .cfa -88 + ^ x29: .cfa -96 + ^
STACK CFI adcc .cfa: sp 96 +
STACK CFI ade4 .cfa: sp 0 +
STACK CFI ade8 .cfa: x29 96 +
STACK CFI INIT cd10 74 .cfa: sp 0 +
STACK CFI cd14 .cfa: sp 48 +
STACK CFI cd20 .cfa: x29 32 + x19: .cfa -8 + ^ x20: .cfa -16 + ^ .ra: .cfa -24 + ^ x29: .cfa -32 + ^
STACK CFI cd6c .cfa: sp 48 +
STACK CFI cd78 .cfa: sp 0 +
STACK CFI cd7c .cfa: x29 32 +
STACK CFI INIT cd84 74 .cfa: sp 0 +
STACK CFI cd88 .cfa: sp 32 +
STACK CFI cd90 .cfa: x29 32 + x19: .cfa -8 + ^ x20: .cfa -16 + ^ .ra: .cfa -24 + ^ x29: .cfa -32 + ^
STACK CFI cd9c .cfa: sp 32 +
STACK CFI cda4 .cfa: sp 0 +
STACK CFI cda8 .cfa: x29 32 +
STACK CFI INIT cdf8 78 .cfa: sp 0 +
STACK CFI cdfc .cfa: sp 32 +
STACK CFI ce04 .cfa: x29 32 + x19: .cfa -8 + ^ x20: .cfa -16 + ^ .ra: .cfa -24 + ^ x29: .cfa -32 + ^
STACK CFI ce0c .cfa: sp 32 +
STACK CFI ce14 .cfa: sp 0 +
STACK CFI ce18 .cfa: x29 32 +
STACK CFI INIT ce70 74 .cfa: sp 0 +
STACK CFI ce74 .cfa: sp 48 +
STACK CFI ce80 .cfa: x29 32 + x19: .cfa -8 + ^ x20: .cfa -16 + ^ .ra: .cfa -24 + ^ x29: .cfa -32 + ^
STACK CFI cecc .cfa: sp 48 +
STACK CFI ced8 .cfa: sp 0 +
STACK CFI cedc .cfa: x29 32 +
STACK CFI INIT cee4 74 .cfa: sp 0 +
STACK CFI cee8 .cfa: sp 48 +
STACK CFI cef4 .cfa: x29 32 + x19: .cfa -8 + ^ x20: .cfa -16 + ^ .ra: .cfa -24 + ^ x29: .cfa -32 + ^
STACK CFI cf40 .cfa: sp 48 +
STACK CFI cf4c .cfa: sp 0 +
STACK CFI cf50 .cfa: x29 32 +
STACK CFI INIT cf58 50 .cfa: sp 0 +
STACK CFI cf5c .cfa: sp 32 +
STACK CFI cf64 .cfa: x29 32 + x19: .cfa -8 + ^ x20: .cfa -16 + ^ .ra: .cfa -24 + ^ x29: .cfa -32 + ^
STACK CFI cf80 .cfa: sp 32 +
STACK CFI cf88 .cfa: sp 0 +
STACK CFI cf8c .cfa: x29 32 +
STACK CFI INIT d0b0 74 .cfa: sp 0 +
STACK CFI d0b4 .cfa: sp 48 +
STACK CFI d0c0 .cfa: x29 32 + x19: .cfa -8 + ^ x20: .cfa -16 + ^ .ra: .cfa -24 + ^ x29: .cfa -32 + ^
STACK CFI d10c .cfa: sp 48 +
STACK CFI d118 .cfa: sp 0 +
STACK CFI d11c .cfa: x29 32 +
STACK CFI INIT d124 74 .cfa: sp 0 +
STACK CFI d128 .cfa: sp 48 +
STACK CFI d134 .cfa: x29 32 + x19: .cfa -8 + ^ x20: .cfa -16 + ^ .ra: .cfa -24 + ^ x29: .cfa -32 + ^
STACK CFI d180 .cfa: sp 48 +
STACK CFI d18c .cfa: sp 0 +
STACK CFI d190 .cfa: x29 32 +
STACK CFI INIT d198 184 .cfa: sp 0 +
STACK CFI d19c .cfa: sp 96 +
STACK CFI d1b0 .cfa: x29 64 + x19: .cfa -8 + ^ x20: .cfa -16 + ^ x21: .cfa -24 + ^ x22: .cfa -32 + ^ x23: .cfa -48 + ^ .ra: .cfa -56 + ^ x29: .cfa -64 + ^
STACK CFI d210 .cfa: sp 96 +
STACK CFI d224 .cfa: sp 0 +
STACK CFI d228 .cfa: x29 64 +
STACK CFI INIT d31c 174 .cfa: sp 0 +
STACK CFI d320 .cfa: sp 80 +
STACK CFI d334 .cfa: x29 80 + x19: .cfa -8 + ^ x20: .cfa -16 + ^ x21: .cfa -24 + ^ x22: .cfa -32 + ^ x23: .cfa -40 + ^ x24: .cfa -48 + ^ x25: .cfa -56 + ^ x28: .cfa -64 + ^ .ra: .cfa -72 + ^ x29: .cfa -80 + ^
STACK CFI d400 .cfa: sp 80 +
STACK CFI d414 .cfa: sp 0 +
STACK CFI d418 .cfa: x29 80 +
STACK CFI INIT d490 60 .cfa: sp 0 +
STACK CFI d494 .cfa: sp 32 +
STACK CFI d49c .cfa: x29 32 + x19: .cfa -8 + ^ x20: .cfa -16 + ^ .ra: .cfa -24 + ^ x29: .cfa -32 + ^
STACK CFI d4c8 .cfa: sp 32 +
STACK CFI d4d0 .cfa: sp 0 +
STACK CFI d4d4 .cfa: x29 32 +
STACK CFI INIT d4f0 298 .cfa: sp 0 +
STACK CFI d4f4 .cfa: sp 80 +
STACK CFI d508 .cfa: x29 80 + x19: .cfa -8 + ^ x20: .cfa -16 + ^ x21: .cfa -24 + ^ x22: .cfa -32 + ^ x23: .cfa -40 + ^ x24: .cfa -48 + ^ x25: .cfa -56 + ^ x28: .cfa -64 + ^ .ra: .cfa -72 + ^ x29: .cfa -80 + ^
STACK CFI d654 .cfa: sp 80 +
STACK CFI d668 .cfa: sp 0 +
STACK CFI d66c .cfa: x29 80 +
STACK CFI INIT d928 74 .cfa: sp 0 +
STACK CFI d92c .cfa: sp 48 +
STACK CFI d938 .cfa: x29 32 + x19: .cfa -8 + ^ x20: .cfa -16 + ^ .ra: .cfa -24 + ^ x29: .cfa -32 + ^
STACK CFI d984 .cfa: sp 48 +
STACK CFI d990 .cfa: sp 0 +
STACK CFI d994 .cfa: x29 32 +
STACK CFI INIT da48 36c .cfa: sp 0 +
STACK CFI da4c .cfa: sp 224 +
STACK CFI da5c .cfa: x29 48 + x19: .cfa -8 + ^ x20: .cfa -16 + ^ x21: .cfa -24 + ^ x22: .cfa -32 + ^ .ra: .cfa -40 + ^ x29: .cfa -48 + ^
STACK CFI dc00 .cfa: sp 224 +
STACK CFI dc10 .cfa: sp 0 +
STACK CFI dc14 .cfa: x29 48 +
STACK CFI INIT de1c 1bc .cfa: sp 0 +
STACK CFI de20 .cfa: sp 112 +
STACK CFI de34 .cfa: x29 64 + x19: .cfa -8 + ^ x20: .cfa -16 + ^ x21: .cfa -24 + ^ x22: .cfa -32 + ^ x23: .cfa -40 + ^ x24: .cfa -48 + ^ .ra: .cfa -56 + ^ x29: .cfa -64 + ^
STACK CFI df70 .cfa: sp 112 +
STACK CFI df84 .cfa: sp 0 +
STACK CFI df88 .cfa: x29 64 +
STACK CFI INIT dfe0 cac .cfa: sp 0 +
STACK CFI dfe4 .cfa: sp 352 +
STACK CFI e000 .cfa: x29 96 + x19: .cfa -8 + ^ x20: .cfa -16 + ^ x21: .cfa -24 + ^ x22: .cfa -32 + ^ x23: .cfa -40 + ^ x24: .cfa -48 + ^ x25: .cfa -56 + ^ x26: .cfa -64 + ^ x28: .cfa -80 + ^ .ra: .cfa -88 + ^ x29: .cfa -96 + ^
STACK CFI e938 .cfa: sp 352 +
STACK CFI e954 .cfa: sp 0 +
STACK CFI e958 .cfa: x29 96 +
STACK CFI INIT ec8c 74 .cfa: sp 0 +
STACK CFI ec90 .cfa: sp 32 +
STACK CFI ec98 .cfa: x29 32 + x19: .cfa -8 + ^ x20: .cfa -16 + ^ .ra: .cfa -24 + ^ x29: .cfa -32 + ^
STACK CFI eca4 .cfa: sp 32 +
STACK CFI ecac .cfa: sp 0 +
STACK CFI ecb0 .cfa: x29 32 +
STACK CFI INIT ed00 7c .cfa: sp 0 +
STACK CFI ed04 .cfa: sp 32 +
STACK CFI ed0c .cfa: x29 32 + x19: .cfa -8 + ^ x20: .cfa -16 + ^ .ra: .cfa -24 + ^ x29: .cfa -32 + ^
STACK CFI ed18 .cfa: sp 32 +
STACK CFI ed20 .cfa: sp 0 +
STACK CFI ed24 .cfa: x29 32 +
STACK CFI INIT ed7c 74 .cfa: sp 0 +
STACK CFI ed80 .cfa: sp 48 +
STACK CFI ed8c .cfa: x29 32 + x19: .cfa -8 + ^ x20: .cfa -16 + ^ .ra: .cfa -24 + ^ x29: .cfa -32 + ^
STACK CFI edd8 .cfa: sp 48 +
STACK CFI ede4 .cfa: sp 0 +
STACK CFI ede8 .cfa: x29 32 +
STACK CFI INIT edf0 1e4 .cfa: sp 0 +
STACK CFI edf4 .cfa: sp 176 +
STACK CFI ee04 .cfa: x29 48 + x19: .cfa -8 + ^ x20: .cfa -16 + ^ x21: .cfa -32 + ^ .ra: .cfa -40 + ^ x29: .cfa -48 + ^
STACK CFI ef4c .cfa: sp 176 +
STACK CFI ef5c .cfa: sp 0 +
STACK CFI ef60 .cfa: x29 48 +
STACK CFI INIT f050 138 .cfa: sp 0 +
STACK CFI f054 .cfa: sp 144 +
STACK CFI f068 .cfa: x29 64 + x19: .cfa -8 + ^ x20: .cfa -16 + ^ x21: .cfa -24 + ^ x22: .cfa -32 + ^ x23: .cfa -48 + ^ .ra: .cfa -56 + ^ x29: .cfa -64 + ^
STACK CFI f134 .cfa: sp 144 +
STACK CFI f148 .cfa: sp 0 +
STACK CFI f14c .cfa: x29 64 +
STACK CFI INIT f310 50 .cfa: sp 0 +
STACK CFI f314 .cfa: sp 32 +
STACK CFI f31c .cfa: x29 32 + x19: .cfa -8 + ^ x20: .cfa -16 + ^ .ra: .cfa -24 + ^ x29: .cfa -32 + ^
STACK CFI INIT f52c 2c0 .cfa: sp 0 +
STACK CFI f530 .cfa: sp 80 +
STACK CFI f544 .cfa: x29 80 + x19: .cfa -8 + ^ x20: .cfa -16 + ^ x21: .cfa -24 + ^ x22: .cfa -32 + ^ x23: .cfa -40 + ^ x24: .cfa -48 + ^ x28: .cfa -64 + ^ .ra: .cfa -72 + ^ x29: .cfa -80 + ^
STACK CFI f754 .cfa: sp 80 +
STACK CFI f768 .cfa: sp 0 +
STACK CFI f76c .cfa: x29 80 +
STACK CFI INIT 12d70 168 .cfa: sp 0 +
STACK CFI 12d74 .cfa: sp 384 +
STACK CFI 12d88 .cfa: x29 64 + x19: .cfa -8 + ^ x20: .cfa -16 + ^ x21: .cfa -24 + ^ x22: .cfa -32 + ^ x23: .cfa -40 + ^ x28: .cfa -48 + ^ .ra: .cfa -56 + ^ x29: .cfa -64 + ^
STACK CFI 12e80 .cfa: sp 384 +
STACK CFI 12e94 .cfa: sp 0 +
STACK CFI 12e98 .cfa: x29 64 +
STACK CFI INIT 12ed8 12c .cfa: sp 0 +
STACK CFI 12edc .cfa: sp 80 +
STACK CFI 12ef0 .cfa: x29 80 + x19: .cfa -8 + ^ x20: .cfa -16 + ^ x21: .cfa -24 + ^ x22: .cfa -32 + ^ x23: .cfa -40 + ^ x24: .cfa -48 + ^ x25: .cfa -56 + ^ x26: .cfa -64 + ^ .ra: .cfa -72 + ^ x29: .cfa -80 + ^
STACK CFI 12fb8 .cfa: sp 80 +
STACK CFI 12fcc .cfa: sp 0 +
STACK CFI 12fd0 .cfa: x29 80 +
STACK CFI INIT 13084 1a4 .cfa: sp 0 +
STACK CFI 13088 .cfa: sp 112 +
STACK CFI 130a0 .cfa: x29 80 + x19: .cfa -8 + ^ x20: .cfa -16 + ^ x21: .cfa -24 + ^ x22: .cfa -32 + ^ x23: .cfa -40 + ^ x24: .cfa -48 + ^ x25: .cfa -56 + ^ x26: .cfa -64 + ^ .ra: .cfa -72 + ^ x29: .cfa -80 + ^
STACK CFI 13190 .cfa: sp 112 +
STACK CFI 131a8 .cfa: sp 0 +
STACK CFI 131ac .cfa: x29 80 +
STACK CFI INIT 13228 1dc .cfa: sp 0 +
STACK CFI 1322c .cfa: sp 128 +
STACK CFI 13248 .cfa: x29 96 + x19: .cfa -8 + ^ x20: .cfa -16 + ^ x21: .cfa -24 + ^ x22: .cfa -32 + ^ x23: .cfa -40 + ^ x24: .cfa -48 + ^ x25: .cfa -56 + ^ x26: .cfa -64 + ^ x27: .cfa -80 + ^ .ra: .cfa -88 + ^ x29: .cfa -96 + ^
STACK CFI 133b4 .cfa: sp 128 +
STACK CFI 133d0 .cfa: sp 0 +
STACK CFI 133d4 .cfa: x29 96 +
STACK CFI INIT 13404 178 .cfa: sp 0 +
STACK CFI 13408 .cfa: sp 80 +
STACK CFI 1341c .cfa: x29 80 + x19: .cfa -8 + ^ x20: .cfa -16 + ^ x21: .cfa -24 + ^ x22: .cfa -32 + ^ x23: .cfa -40 + ^ x24: .cfa -48 + ^ x25: .cfa -64 + ^ .ra: .cfa -72 + ^ x29: .cfa -80 + ^
STACK CFI 13548 .cfa: sp 80 +
STACK CFI 1355c .cfa: sp 0 +
STACK CFI 13560 .cfa: x29 80 +
STACK CFI INIT 13740 50 .cfa: sp 0 +
STACK CFI 13744 .cfa: sp 32 +
STACK CFI 1374c .cfa: x29 32 + x19: .cfa -8 + ^ x20: .cfa -16 + ^ .ra: .cfa -24 + ^ x29: .cfa -32 + ^
STACK CFI INIT 137c0 304 .cfa: sp 0 +
STACK CFI 137c4 .cfa: sp 128 +
STACK CFI 137e0 .cfa: x29 96 + x19: .cfa -8 + ^ x20: .cfa -16 + ^ x21: .cfa -24 + ^ x22: .cfa -32 + ^ x23: .cfa -40 + ^ x24: .cfa -48 + ^ x25: .cfa -56 + ^ x26: .cfa -64 + ^ x27: .cfa -72 + ^ x28: .cfa -80 + ^ .ra: .cfa -88 + ^ x29: .cfa -96 + ^
STACK CFI 13a44 .cfa: sp 128 +
STACK CFI 13a60 .cfa: sp 0 +
STACK CFI 13a64 .cfa: x29 96 +
STACK CFI INIT 13cac 168 .cfa: sp 0 +
STACK CFI 13cb0 .cfa: sp 384 +
STACK CFI 13cc4 .cfa: x29 64 + x19: .cfa -8 + ^ x20: .cfa -16 + ^ x21: .cfa -24 + ^ x22: .cfa -32 + ^ x23: .cfa -40 + ^ x28: .cfa -48 + ^ .ra: .cfa -56 + ^ x29: .cfa -64 + ^
STACK CFI 13dbc .cfa: sp 384 +
STACK CFI 13dd0 .cfa: sp 0 +
STACK CFI 13dd4 .cfa: x29 64 +
STACK CFI INIT 13e14 168 .cfa: sp 0 +
STACK CFI 13e18 .cfa: sp 384 +
STACK CFI 13e2c .cfa: x29 64 + x19: .cfa -8 + ^ x20: .cfa -16 + ^ x21: .cfa -24 + ^ x22: .cfa -32 + ^ x23: .cfa -40 + ^ x28: .cfa -48 + ^ .ra: .cfa -56 + ^ x29: .cfa -64 + ^
STACK CFI 13f24 .cfa: sp 384 +
STACK CFI 13f38 .cfa: sp 0 +
STACK CFI 13f3c .cfa: x29 64 +
STACK CFI INIT 13fe0 240 .cfa: sp 0 +
STACK CFI 13fe4 .cfa: sp 96 +
STACK CFI 13ffc .cfa: x29 96 + x19: .cfa -8 + ^ x20: .cfa -16 + ^ x21: .cfa -24 + ^ x22: .cfa -32 + ^ x23: .cfa -40 + ^ x24: .cfa -48 + ^ x25: .cfa -56 + ^ x26: .cfa -64 + ^ x28: .cfa -80 + ^ .ra: .cfa -88 + ^ x29: .cfa -96 + ^
STACK CFI 1414c .cfa: sp 96 +
STACK CFI 14164 .cfa: sp 0 +
STACK CFI 14168 .cfa: x29 96 +
STACK CFI INIT 14220 74 .cfa: sp 0 +
STACK CFI 14224 .cfa: sp 48 +
STACK CFI 14230 .cfa: x29 32 + x19: .cfa -8 + ^ x20: .cfa -16 + ^ .ra: .cfa -24 + ^ x29: .cfa -32 + ^
STACK CFI 1427c .cfa: sp 48 +
STACK CFI 14288 .cfa: sp 0 +
STACK CFI 1428c .cfa: x29 32 +
STACK CFI INIT 142ac 8c .cfa: sp 0 +
STACK CFI 142b0 .cfa: sp 48 +
STACK CFI 142bc .cfa: x29 48 + x19: .cfa -8 + ^ x20: .cfa -16 + ^ x21: .cfa -32 + ^ .ra: .cfa -40 + ^ x29: .cfa -48 + ^
STACK CFI 142f0 .cfa: sp 48 +
STACK CFI 142fc .cfa: sp 0 +
STACK CFI 14300 .cfa: x29 48 +
STACK CFI 14314 .cfa: sp 48 +
STACK CFI 14320 .cfa: sp 0 +
STACK CFI 14324 .cfa: x29 48 +
STACK CFI INIT 14394 550 .cfa: sp 0 +
STACK CFI 14398 .cfa: sp 96 +
STACK CFI 143b0 .cfa: x29 96 + x19: .cfa -8 + ^ x20: .cfa -16 + ^ x21: .cfa -24 + ^ x22: .cfa -32 + ^ x23: .cfa -40 + ^ x24: .cfa -48 + ^ x25: .cfa -56 + ^ x26: .cfa -64 + ^ x27: .cfa -72 + ^ x28: .cfa -80 + ^ .ra: .cfa -88 + ^ x29: .cfa -96 + ^
STACK CFI 1471c .cfa: sp 96 +
STACK CFI 14734 .cfa: sp 0 +
STACK CFI 14738 .cfa: x29 96 +
STACK CFI INIT 148e4 60 .cfa: sp 0 +
STACK CFI 148e8 .cfa: sp 48 +
STACK CFI 148f4 .cfa: x29 48 + x19: .cfa -8 + ^ x20: .cfa -16 + ^ x21: .cfa -32 + ^ .ra: .cfa -40 + ^ x29: .cfa -48 + ^
STACK CFI 14920 .cfa: sp 48 +
STACK CFI 1492c .cfa: sp 0 +
STACK CFI 14930 .cfa: x29 48 +
STACK CFI INIT 14950 44 .cfa: sp 0 +
STACK CFI 14954 .cfa: sp 32 +
STACK CFI 1495c .cfa: x29 32 + x19: .cfa -16 + ^ .ra: .cfa -24 + ^ x29: .cfa -32 + ^
STACK CFI 14978 .cfa: sp 32 +
STACK CFI 14980 .cfa: sp 0 +
STACK CFI 14984 .cfa: sp 32 +
STACK CFI 1498c .cfa: sp 0 +
STACK CFI 14990 .cfa: x29 32 +
STACK CFI INIT 149a0 2b8 .cfa: sp 0 +
STACK CFI 149a4 .cfa: sp 128 +
STACK CFI 149b8 .cfa: x29 64 + x19: .cfa -8 + ^ x20: .cfa -16 + ^ x21: .cfa -24 + ^ x22: .cfa -32 + ^ x23: .cfa -40 + ^ x24: .cfa -48 + ^ .ra: .cfa -56 + ^ x29: .cfa -64 + ^
STACK CFI 14b94 .cfa: sp 128 +
STACK CFI 14ba8 .cfa: sp 0 +
STACK CFI 14bac .cfa: x29 64 +
STACK CFI INIT 14c58 1e4 .cfa: sp 0 +
STACK CFI 14c5c .cfa: sp 176 +
STACK CFI 14c6c .cfa: x29 48 + x19: .cfa -8 + ^ x20: .cfa -16 + ^ x21: .cfa -32 + ^ .ra: .cfa -40 + ^ x29: .cfa -48 + ^
STACK CFI 14db4 .cfa: sp 176 +
STACK CFI 14dc4 .cfa: sp 0 +
STACK CFI 14dc8 .cfa: x29 48 +
STACK CFI INIT 14e3c a4 .cfa: sp 0 +
STACK CFI 14e40 .cfa: sp 64 +
STACK CFI 14e50 .cfa: x29 48 + x19: .cfa -8 + ^ x20: .cfa -16 + ^ x21: .cfa -24 + ^ x22: .cfa -32 + ^ .ra: .cfa -40 + ^ x29: .cfa -48 + ^
STACK CFI 14ea4 .cfa: sp 64 +
STACK CFI 14eb4 .cfa: sp 0 +
STACK CFI 14eb8 .cfa: x29 48 +
STACK CFI INIT 14ee0 90 .cfa: sp 0 +
STACK CFI 14ee4 .cfa: sp 48 +
STACK CFI 14ef0 .cfa: x29 32 + x19: .cfa -8 + ^ x20: .cfa -16 + ^ .ra: .cfa -24 + ^ x29: .cfa -32 + ^
STACK CFI 14f38 .cfa: sp 48 +
STACK CFI 14f44 .cfa: sp 0 +
STACK CFI 14f48 .cfa: x29 32 +
STACK CFI INIT 14f70 834 .cfa: sp 0 +
STACK CFI 14f74 .cfa: sp 144 +
STACK CFI 14f90 .cfa: x29 96 + x19: .cfa -8 + ^ x20: .cfa -16 + ^ x21: .cfa -24 + ^ x22: .cfa -32 + ^ x23: .cfa -40 + ^ x24: .cfa -48 + ^ x25: .cfa -56 + ^ x26: .cfa -64 + ^ x27: .cfa -72 + ^ x28: .cfa -80 + ^ .ra: .cfa -88 + ^ x29: .cfa -96 + ^
STACK CFI 1570c .cfa: sp 144 +
STACK CFI 15728 .cfa: sp 0 +
STACK CFI 1572c .cfa: x29 96 +
STACK CFI INIT 15ed0 134 .cfa: sp 0 +
STACK CFI 15ed4 .cfa: sp 80 +
STACK CFI 15ee0 .cfa: x29 32 + x19: .cfa -8 + ^ x20: .cfa -16 + ^ .ra: .cfa -24 + ^ x29: .cfa -32 + ^
STACK CFI 15f10 .cfa: sp 80 +
STACK CFI 15f1c .cfa: sp 0 +
STACK CFI 15f20 .cfa: x29 32 +
STACK CFI INIT 16004 78 .cfa: sp 0 +
STACK CFI 16008 .cfa: sp 32 +
STACK CFI 16010 .cfa: x29 32 + x19: .cfa -8 + ^ x20: .cfa -16 + ^ .ra: .cfa -24 + ^ x29: .cfa -32 + ^
STACK CFI 1601c .cfa: sp 32 +
STACK CFI 16024 .cfa: sp 0 +
STACK CFI 16028 .cfa: x29 32 +
STACK CFI INIT 1607c 74 .cfa: sp 0 +
STACK CFI 16080 .cfa: sp 48 +
STACK CFI 1608c .cfa: x29 32 + x19: .cfa -8 + ^ x20: .cfa -16 + ^ .ra: .cfa -24 + ^ x29: .cfa -32 + ^
STACK CFI 160d8 .cfa: sp 48 +
STACK CFI 160e4 .cfa: sp 0 +
STACK CFI 160e8 .cfa: x29 32 +
STACK CFI INIT 161a4 184 .cfa: sp 0 +
STACK CFI 161a8 .cfa: sp 112 +
STACK CFI 161b8 .cfa: x29 48 + x19: .cfa -8 + ^ x20: .cfa -16 + ^ x21: .cfa -24 + ^ x22: .cfa -32 + ^ .ra: .cfa -40 + ^ x29: .cfa -48 + ^
STACK CFI 16208 .cfa: sp 112 +
STACK CFI 16218 .cfa: sp 0 +
STACK CFI 1621c .cfa: x29 48 +
STACK CFI INIT 16328 154 .cfa: sp 0 +
STACK CFI 1632c .cfa: sp 128 +
STACK CFI 1633c .cfa: x29 48 + x19: .cfa -8 + ^ x20: .cfa -16 + ^ x21: .cfa -24 + ^ x22: .cfa -32 + ^ .ra: .cfa -40 + ^ x29: .cfa -48 + ^
STACK CFI 16388 .cfa: sp 128 +
STACK CFI 16398 .cfa: sp 0 +
STACK CFI 1639c .cfa: x29 48 +
STACK CFI INIT 1647c ac .cfa: sp 0 +
STACK CFI 16480 .cfa: sp 64 +
STACK CFI 16490 .cfa: x29 48 + x19: .cfa -8 + ^ x20: .cfa -16 + ^ x21: .cfa -32 + ^ .ra: .cfa -40 + ^ x29: .cfa -48 + ^
STACK CFI 164fc .cfa: sp 64 +
STACK CFI 1650c .cfa: sp 0 +
STACK CFI 16510 .cfa: x29 48 +
STACK CFI INIT 16528 168 .cfa: sp 0 +
STACK CFI 1652c .cfa: sp 112 +
STACK CFI 16538 .cfa: x29 32 + x19: .cfa -8 + ^ x20: .cfa -16 + ^ .ra: .cfa -24 + ^ x29: .cfa -32 + ^
STACK CFI 1657c .cfa: sp 112 +
STACK CFI 16588 .cfa: sp 0 +
STACK CFI 1658c .cfa: x29 32 +
STACK CFI INIT 16690 154 .cfa: sp 0 +
STACK CFI 16694 .cfa: sp 112 +
STACK CFI 166a0 .cfa: x29 32 + x19: .cfa -8 + ^ x20: .cfa -16 + ^ .ra: .cfa -24 + ^ x29: .cfa -32 + ^
STACK CFI 166e0 .cfa: sp 112 +
STACK CFI 166ec .cfa: sp 0 +
STACK CFI 166f0 .cfa: x29 32 +
STACK CFI INIT 167e4 218 .cfa: sp 0 +
STACK CFI 167e8 .cfa: sp 128 +
STACK CFI 167fc .cfa: x29 64 + x19: .cfa -8 + ^ x20: .cfa -16 + ^ x21: .cfa -24 + ^ x22: .cfa -32 + ^ x23: .cfa -48 + ^ .ra: .cfa -56 + ^ x29: .cfa -64 + ^
STACK CFI 16890 .cfa: sp 128 +
STACK CFI 168a4 .cfa: sp 0 +
STACK CFI 168a8 .cfa: x29 64 +
STACK CFI INIT 169fc 154 .cfa: sp 0 +
STACK CFI 16a00 .cfa: sp 384 +
STACK CFI 16a14 .cfa: x29 64 + x19: .cfa -8 + ^ x20: .cfa -16 + ^ x21: .cfa -24 + ^ x22: .cfa -32 + ^ x23: .cfa -40 + ^ x28: .cfa -48 + ^ .ra: .cfa -56 + ^ x29: .cfa -64 + ^
STACK CFI 16af8 .cfa: sp 384 +
STACK CFI 16b0c .cfa: sp 0 +
STACK CFI 16b10 .cfa: x29 64 +
STACK CFI INIT 16b9c 4e0 .cfa: sp 0 +
STACK CFI 16ba0 .cfa: sp 64 +
STACK CFI 16bb0 .cfa: x29 64 + x19: .cfa -8 + ^ x20: .cfa -16 + ^ x21: .cfa -24 + ^ x22: .cfa -32 + ^ x23: .cfa -40 + ^ x24: .cfa -48 + ^ .ra: .cfa -56 + ^ x29: .cfa -64 + ^
STACK CFI 17050 .cfa: sp 64 +
STACK CFI 17060 .cfa: sp 0 +
STACK CFI 17064 .cfa: x29 64 +
STACK CFI INIT 173ac 294 .cfa: sp 0 +
STACK CFI 173b0 .cfa: sp 240 +
STACK CFI 173c8 .cfa: x29 80 + x19: .cfa -8 + ^ x20: .cfa -16 + ^ x21: .cfa -24 + ^ x22: .cfa -32 + ^ x23: .cfa -40 + ^ x24: .cfa -48 + ^ x25: .cfa -64 + ^ .ra: .cfa -72 + ^ x29: .cfa -80 + ^
STACK CFI 17568 .cfa: sp 240 +
STACK CFI 17580 .cfa: sp 0 +
STACK CFI 17584 .cfa: x29 80 +
STACK CFI INIT 176bc 50 .cfa: sp 0 +
STACK CFI 176c0 .cfa: sp 32 +
STACK CFI 176c8 .cfa: x29 32 + x19: .cfa -8 + ^ x20: .cfa -16 + ^ .ra: .cfa -24 + ^ x29: .cfa -32 + ^
STACK CFI INIT 17738 7c0 .cfa: sp 0 +
STACK CFI 1773c .cfa: sp 320 +
STACK CFI 17758 .cfa: x29 96 + x19: .cfa -8 + ^ x20: .cfa -16 + ^ x21: .cfa -24 + ^ x22: .cfa -32 + ^ x23: .cfa -40 + ^ x24: .cfa -48 + ^ x25: .cfa -56 + ^ x26: .cfa -64 + ^ x27: .cfa -72 + ^ x28: .cfa -80 + ^ .ra: .cfa -88 + ^ x29: .cfa -96 + ^
STACK CFI 17da8 .cfa: sp 320 +
STACK CFI 17dc4 .cfa: sp 0 +
STACK CFI 17dc8 .cfa: x29 96 +
STACK CFI INIT 17f5c 13c .cfa: sp 0 +
STACK CFI 17f60 .cfa: sp 80 +
STACK CFI 17f74 .cfa: x29 80 + x19: .cfa -8 + ^ x20: .cfa -16 + ^ x21: .cfa -24 + ^ x22: .cfa -32 + ^ x23: .cfa -40 + ^ x24: .cfa -48 + ^ x28: .cfa -64 + ^ .ra: .cfa -72 + ^ x29: .cfa -80 + ^
STACK CFI 18008 .cfa: sp 80 +
STACK CFI 1801c .cfa: sp 0 +
STACK CFI 18020 .cfa: x29 80 +
STACK CFI INIT 1bbd8 c84 .cfa: sp 0 +
STACK CFI 1bbdc .cfa: sp 96 +
STACK CFI 1bbf4 .cfa: x29 96 + x19: .cfa -8 + ^ x20: .cfa -16 + ^ x21: .cfa -24 + ^ x22: .cfa -32 + ^ x23: .cfa -40 + ^ x24: .cfa -48 + ^ x25: .cfa -56 + ^ x26: .cfa -64 + ^ x27: .cfa -72 + ^ x28: .cfa -80 + ^ .ra: .cfa -88 + ^ x29: .cfa -96 + ^
STACK CFI 1c67c .cfa: sp 96 +
STACK CFI 1c694 .cfa: sp 0 +
STACK CFI 1c698 .cfa: x29 96 +
STACK CFI INIT 1c9b0 26c .cfa: sp 0 +
STACK CFI 1c9b4 .cfa: sp 128 +
STACK CFI 1c9c4 .cfa: x29 48 + x19: .cfa -8 + ^ x20: .cfa -16 + ^ x21: .cfa -24 + ^ x22: .cfa -32 + ^ .ra: .cfa -40 + ^ x29: .cfa -48 + ^
STACK CFI 1cb68 .cfa: sp 128 +
STACK CFI 1cb78 .cfa: sp 0 +
STACK CFI 1cb7c .cfa: x29 48 +
STACK CFI INIT 1cfac 3b8 .cfa: sp 0 +
STACK CFI 1cfb0 .cfa: sp 96 +
STACK CFI 1cfc8 .cfa: x29 96 + x19: .cfa -8 + ^ x20: .cfa -16 + ^ x21: .cfa -24 + ^ x22: .cfa -32 + ^ x23: .cfa -40 + ^ x24: .cfa -48 + ^ x25: .cfa -56 + ^ x26: .cfa -64 + ^ x27: .cfa -72 + ^ x28: .cfa -80 + ^ .ra: .cfa -88 + ^ x29: .cfa -96 + ^
STACK CFI 1d304 .cfa: sp 96 +
STACK CFI 1d31c .cfa: sp 0 +
STACK CFI 1d320 .cfa: x29 96 +
STACK CFI INIT 1d404 cc0 .cfa: sp 0 +
STACK CFI 1d408 .cfa: sp 96 +
STACK CFI 1d420 .cfa: x29 96 + x19: .cfa -8 + ^ x20: .cfa -16 + ^ x21: .cfa -24 + ^ x22: .cfa -32 + ^ x23: .cfa -40 + ^ x24: .cfa -48 + ^ x25: .cfa -56 + ^ x26: .cfa -64 + ^ x27: .cfa -72 + ^ x28: .cfa -80 + ^ .ra: .cfa -88 + ^ x29: .cfa -96 + ^
STACK CFI 1ded4 .cfa: sp 96 +
STACK CFI 1deec .cfa: sp 0 +
STACK CFI 1def0 .cfa: x29 96 +
STACK CFI INIT 1e3ac af8 .cfa: sp 0 +
STACK CFI 1e3b0 .cfa: sp 96 +
STACK CFI 1e3c8 .cfa: x29 96 + x19: .cfa -8 + ^ x20: .cfa -16 + ^ x21: .cfa -24 + ^ x22: .cfa -32 + ^ x23: .cfa -40 + ^ x24: .cfa -48 + ^ x25: .cfa -56 + ^ x26: .cfa -64 + ^ x27: .cfa -72 + ^ x28: .cfa -80 + ^ .ra: .cfa -88 + ^ x29: .cfa -96 + ^
STACK CFI 1ee18 .cfa: sp 96 +
STACK CFI 1ee30 .cfa: sp 0 +
STACK CFI 1ee34 .cfa: x29 96 +
STACK CFI INIT 1f098 1430 .cfa: sp 0 +
STACK CFI 1f09c .cfa: sp 96 +
STACK CFI 1f0b4 .cfa: x29 96 + x19: .cfa -8 + ^ x20: .cfa -16 + ^ x21: .cfa -24 + ^ x22: .cfa -32 + ^ x23: .cfa -40 + ^ x24: .cfa -48 + ^ x25: .cfa -56 + ^ x26: .cfa -64 + ^ x27: .cfa -72 + ^ x28: .cfa -80 + ^ .ra: .cfa -88 + ^ x29: .cfa -96 + ^
STACK CFI 20350 .cfa: sp 96 +
STACK CFI 20368 .cfa: sp 0 +
STACK CFI 2036c .cfa: x29 96 +
STACK CFI INIT 205ec 75c .cfa: sp 0 +
STACK CFI 205f0 .cfa: sp 368 +
STACK CFI 2060c .cfa: x29 96 + x19: .cfa -8 + ^ x20: .cfa -16 + ^ x21: .cfa -24 + ^ x22: .cfa -32 + ^ x23: .cfa -40 + ^ x24: .cfa -48 + ^ x25: .cfa -56 + ^ x26: .cfa -64 + ^ x27: .cfa -72 + ^ x28: .cfa -80 + ^ .ra: .cfa -88 + ^ x29: .cfa -96 + ^
STACK CFI 206c0 .cfa: sp 368 +
STACK CFI 206dc .cfa: sp 0 +
STACK CFI 206e0 .cfa: x29 96 +
STACK CFI 20734 .cfa: sp 368 +
STACK CFI 20750 .cfa: sp 0 +
STACK CFI 20754 .cfa: x29 96 +
STACK CFI INIT 21108 ee0 .cfa: sp 0 +
STACK CFI 2110c .cfa: sp 96 +
STACK CFI 21124 .cfa: x29 96 + x19: .cfa -8 + ^ x20: .cfa -16 + ^ x21: .cfa -24 + ^ x22: .cfa -32 + ^ x23: .cfa -40 + ^ x24: .cfa -48 + ^ x25: .cfa -56 + ^ x26: .cfa -64 + ^ x27: .cfa -72 + ^ x28: .cfa -80 + ^ .ra: .cfa -88 + ^ x29: .cfa -96 + ^
STACK CFI 21de0 .cfa: sp 96 +
STACK CFI 21df8 .cfa: sp 0 +
STACK CFI 21dfc .cfa: x29 96 +
STACK CFI INIT 2235c 1ae4 .cfa: sp 0 +
STACK CFI 22360 .cfa: sp 112 +
STACK CFI 2237c .cfa: x29 96 + x19: .cfa -8 + ^ x20: .cfa -16 + ^ x21: .cfa -24 + ^ x22: .cfa -32 + ^ x23: .cfa -40 + ^ x24: .cfa -48 + ^ x25: .cfa -56 + ^ x26: .cfa -64 + ^ x27: .cfa -72 + ^ x28: .cfa -80 + ^ .ra: .cfa -88 + ^ x29: .cfa -96 + ^ v8: .cfa -112 + ^
STACK CFI 22770 .cfa: sp 112 +
STACK CFI 2278c .cfa: sp 0 +
STACK CFI 22790 .cfa: x29 96 +
STACK CFI INIT 26250 9a0 .cfa: sp 0 +
STACK CFI 26254 .cfa: sp 144 +
STACK CFI 2626c .cfa: x29 80 + x19: .cfa -8 + ^ x20: .cfa -16 + ^ x21: .cfa -24 + ^ x22: .cfa -32 + ^ x23: .cfa -40 + ^ x24: .cfa -48 + ^ x25: .cfa -64 + ^ .ra: .cfa -72 + ^ x29: .cfa -80 + ^
STACK CFI 26b6c .cfa: sp 144 +
STACK CFI 26b84 .cfa: sp 0 +
STACK CFI 26b88 .cfa: x29 80 +
STACK CFI INIT 26bf0 57c .cfa: sp 0 +
STACK CFI 26bf4 .cfa: sp 96 +
STACK CFI 26c0c .cfa: x29 96 + x19: .cfa -8 + ^ x20: .cfa -16 + ^ x21: .cfa -24 + ^ x22: .cfa -32 + ^ x23: .cfa -40 + ^ x24: .cfa -48 + ^ x25: .cfa -56 + ^ x26: .cfa -64 + ^ x27: .cfa -72 + ^ x28: .cfa -80 + ^ .ra: .cfa -88 + ^ x29: .cfa -96 + ^
STACK CFI 270d0 .cfa: sp 96 +
STACK CFI 270e8 .cfa: sp 0 +
STACK CFI 270ec .cfa: x29 96 +
STACK CFI INIT 2716c 67c .cfa: sp 0 +
STACK CFI 27170 .cfa: sp 96 +
STACK CFI 27188 .cfa: x29 96 + x19: .cfa -8 + ^ x20: .cfa -16 + ^ x21: .cfa -24 + ^ x22: .cfa -32 + ^ x23: .cfa -40 + ^ x24: .cfa -48 + ^ x25: .cfa -56 + ^ x26: .cfa -64 + ^ x27: .cfa -72 + ^ x28: .cfa -80 + ^ .ra: .cfa -88 + ^ x29: .cfa -96 + ^
STACK CFI 2774c .cfa: sp 96 +
STACK CFI 27764 .cfa: sp 0 +
STACK CFI 27768 .cfa: x29 96 +
