MODULE Linux arm64 93C6E7F7B7D389BC99AB5B0F687A0A320 sorkopiko.autolevels.android64.so
INFO CODE_ID F7E7C693D3B7BC8999AB5B0F687A0A32F2747843
INFO GENERATOR mozilla/dump_syms 2.3.4
PUBLIC 8020 0 __on_dlclose
PUBLIC 8030 0 __emutls_unregister_key
PUBLIC 8038 0 __on_dlclose_late
PUBLIC 8040 0 __atexit_handler_wrapper
PUBLIC 8054 0 atexit
PUBLIC 8070 0 pthread_atfork
PUBLIC 8080 0 unwind_phase2
PUBLIC 81b4 0 _Unwind_Resume
PUBLIC 8238 0 unwind_phase2_forced
PUBLIC m 832c 0 __unw_init_local
PUBLIC m 83d4 0 __unw_get_reg
PUBLIC 8450 0 __unw_step_stage2
PUBLIC m 8464 0 __unw_get_proc_info
PUBLIC m 84a4 0 __unw_resume
PUBLIC 84cc 0 libunwind::CFI_Parser<libunwind::LocalAddressSpace>::decodeFDE(libunwind::LocalAddressSpace&, unsigned long, libunwind::CFI_Parser<libunwind::LocalAddressSpace>::FDE_Info*, libunwind::CFI_Parser<libunwind::LocalAddressSpace>::CIE_Info*, bool)
PUBLIC 865c 0 libunwind::CFI_Parser<libunwind::LocalAddressSpace>::parseCIE(libunwind::LocalAddressSpace&, unsigned long, libunwind::CFI_Parser<libunwind::LocalAddressSpace>::CIE_Info*)
PUBLIC 8924 0 libunwind::AbstractUnwindCursor::~AbstractUnwindCursor()
PUBLIC 892c 0 libunwind::UnwindCursor<libunwind::LocalAddressSpace, libunwind::Registers_arm64>::~UnwindCursor()
PUBLIC 8934 0 libunwind::UnwindCursor<libunwind::LocalAddressSpace, libunwind::Registers_arm64>::validReg(int)
PUBLIC 8978 0 libunwind::UnwindCursor<libunwind::LocalAddressSpace, libunwind::Registers_arm64>::getReg(int)
PUBLIC 8a60 0 libunwind::UnwindCursor<libunwind::LocalAddressSpace, libunwind::Registers_arm64>::setReg(int, unsigned long)
PUBLIC 8b48 0 libunwind::UnwindCursor<libunwind::LocalAddressSpace, libunwind::Registers_arm64>::validFloatReg(int)
PUBLIC 8b5c 0 libunwind::UnwindCursor<libunwind::LocalAddressSpace, libunwind::Registers_arm64>::getFloatReg(int)
PUBLIC 8b6c 0 libunwind::UnwindCursor<libunwind::LocalAddressSpace, libunwind::Registers_arm64>::setFloatReg(int, double)
PUBLIC 8b7c 0 libunwind::UnwindCursor<libunwind::LocalAddressSpace, libunwind::Registers_arm64>::step(bool)
PUBLIC 8c6c 0 libunwind::UnwindCursor<libunwind::LocalAddressSpace, libunwind::Registers_arm64>::getInfo(unw_proc_info_t*)
PUBLIC 8cb0 0 libunwind::UnwindCursor<libunwind::LocalAddressSpace, libunwind::Registers_arm64>::jumpto()
PUBLIC 8cbc 0 libunwind::UnwindCursor<libunwind::LocalAddressSpace, libunwind::Registers_arm64>::isSignalFrame()
PUBLIC 8cc8 0 libunwind::UnwindCursor<libunwind::LocalAddressSpace, libunwind::Registers_arm64>::getFunctionName(char*, unsigned long, unsigned long*)
PUBLIC 8cf4 0 libunwind::UnwindCursor<libunwind::LocalAddressSpace, libunwind::Registers_arm64>::setInfoBasedOnIPRegister(bool)
PUBLIC 8f74 0 libunwind::UnwindCursor<libunwind::LocalAddressSpace, libunwind::Registers_arm64>::getRegisterName(int)
PUBLIC 8f80 0 libunwind::UnwindCursor<libunwind::LocalAddressSpace, libunwind::Registers_arm64>::stepThroughSigReturn(libunwind::Registers_arm64&)
PUBLIC 90a0 0 libunwind::DwarfInstructions<libunwind::LocalAddressSpace, libunwind::Registers_arm64>::stepWithDwarf(libunwind::LocalAddressSpace&, unsigned long, unsigned long, libunwind::Registers_arm64&, bool&, bool)
PUBLIC 9528 0 libunwind::CFI_Parser<libunwind::LocalAddressSpace>::parseFDEInstructions(libunwind::LocalAddressSpace&, libunwind::CFI_Parser<libunwind::LocalAddressSpace>::FDE_Info const&, libunwind::CFI_Parser<libunwind::LocalAddressSpace>::CIE_Info const&, unsigned long, int, libunwind::CFI_Parser<libunwind::LocalAddressSpace>::PrologInfo*)
PUBLIC a170 0 libunwind::DwarfInstructions<libunwind::LocalAddressSpace, libunwind::Registers_arm64>::getCFA(libunwind::LocalAddressSpace&, libunwind::CFI_Parser<libunwind::LocalAddressSpace>::PrologInfo const&, libunwind::Registers_arm64 const&)
PUBLIC a2a4 0 libunwind::DwarfInstructions<libunwind::LocalAddressSpace, libunwind::Registers_arm64>::getSavedRegister(libunwind::LocalAddressSpace&, libunwind::Registers_arm64 const&, unsigned long, libunwind::CFI_Parser<libunwind::LocalAddressSpace>::RegisterLocation const&)
PUBLIC a4b4 0 libunwind::LocalAddressSpace::getEncodedP(unsigned long&, unsigned long, unsigned char, unsigned long)
PUBLIC a840 0 libunwind::LocalAddressSpace::getULEB128(unsigned long&, unsigned long)
PUBLIC aa08 0 libunwind::DwarfInstructions<libunwind::LocalAddressSpace, libunwind::Registers_arm64>::evaluateExpression(unsigned long, libunwind::LocalAddressSpace&, libunwind::Registers_arm64 const&, unsigned long)
PUBLIC b3c4 0 libunwind::UnwindCursor<libunwind::LocalAddressSpace, libunwind::Registers_arm64>::getInfoFromDwarfSection(unsigned long, libunwind::UnwindInfoSections const&, unsigned int)
PUBLIC b698 0 libunwind::findUnwindSectionsByPhdr(dl_phdr_info*, unsigned long, void*)
PUBLIC b7cc 0 libunwind::EHHeaderParser<libunwind::LocalAddressSpace>::decodeEHHdr(libunwind::LocalAddressSpace&, unsigned long, unsigned long, libunwind::EHHeaderParser<libunwind::LocalAddressSpace>::EHHeaderInfo&)
PUBLIC b8ec 0 libunwind::CFI_Parser<libunwind::LocalAddressSpace>::findFDE(libunwind::LocalAddressSpace&, unsigned long, unsigned long, unsigned long, unsigned long, libunwind::CFI_Parser<libunwind::LocalAddressSpace>::FDE_Info*, libunwind::CFI_Parser<libunwind::LocalAddressSpace>::CIE_Info*)
PUBLIC bab4 0 libunwind::EHHeaderParser<libunwind::LocalAddressSpace>::findFDE(libunwind::LocalAddressSpace&, unsigned long, unsigned long, unsigned int, libunwind::CFI_Parser<libunwind::LocalAddressSpace>::FDE_Info*, libunwind::CFI_Parser<libunwind::LocalAddressSpace>::CIE_Info*)
PUBLIC bc1c 0 libunwind::EHHeaderParser<libunwind::LocalAddressSpace>::getTableEntrySize(unsigned char)
PUBLIC bd18 0 libunwind::Registers_arm64::getRegisterName(int)
PUBLIC bd48 0 __libunwind_Registers_arm64_jumpto
PUBLIC m bdd8 0 __unw_getcontext
PUBLIC be80 0 __aarch64_ldadd8_relax
PUBLIC beb0 0 init_have_lse_atomics
PUBLIC bf48 0 __init_cpu_features_constructor
PUBLIC c4e4 0 __init_cpu_features
PUBLIC c570 0 __aarch64_ldadd8_acq_rel
PUBLIC c5a0 0 __cxx_global_var_init
PUBLIC ca20 0 geode::modifier::ModifyBase<geode::modifier::ModifyDerive<ALLevelCell, LevelCell> >::~ModifyBase()
PUBLIC ca3c 0 geode::modifier::ModifyDerive<ALLevelCell, LevelCell>::apply()
PUBLIC cd7c 0 std::__ndk1::shared_ptr<geode::Hook>::~shared_ptr[abi:ne180000]()
PUBLIC cdcc 0 geode::impl::ResultData<geode::Hook*, std::__ndk1::basic_string<char, std::__ndk1::char_traits<char>, std::__ndk1::allocator<char> > >::~ResultData()
PUBLIC ce40 0 std::__ndk1::vector<std::__ndk1::basic_string<char, std::__ndk1::char_traits<char>, std::__ndk1::allocator<char> >, std::__ndk1::allocator<std::__ndk1::basic_string<char, std::__ndk1::char_traits<char>, std::__ndk1::allocator<char> > > >::~vector[abi:ne180000]()
PUBLIC cebc 0 geode::modifier::ModifyBase<geode::modifier::ModifyDerive<ALLevelCell, LevelCell> >::apply()
PUBLIC cec0 0 __clang_call_terminate
PUBLIC ced0 0 _ZN5geode15UnwrapExceptionC2IRPNS_4HookEQsr4implE18IsStringStreamableIT_EEENS_4impl5OkTagEOS5_
PUBLIC d024 0 std::__ndk1::__throw_bad_variant_access[abi:ne180000]()
PUBLIC d058 0 std::__ndk1::basic_stringstream<char, std::__ndk1::char_traits<char>, std::__ndk1::allocator<char> >::basic_stringstream[abi:ne180000]()
PUBLIC m d184 0 std::__ndk1::basic_stringstream<char, std::__ndk1::char_traits<char>, std::__ndk1::allocator<char> >::~basic_stringstream()
PUBLIC d204 0 geode::UnwrapException::~UnwrapException()
PUBLIC d228 0 std::__ndk1::__put_character_sequence[abi:ne180000]<char, std::__ndk1::char_traits<char> >(std::__ndk1::basic_ostream<char, std::__ndk1::char_traits<char> >, std::__ndk1::basic_ostream const*, unsigned long)
PUBLIC d3cc 0 std::__ndk1::__pad_and_output[abi:ne180000]<char, std::__ndk1::char_traits<char> >(std::__ndk1::char_traits<char>, std::__ndk1::ostreambuf_iterator const*, std::__ndk1::ostreambuf_iterator const, std::__ndk1::ostreambuf_iterator const, std::__ndk1::ios_base&, std::__ndk1::ostreambuf_iterator)
PUBLIC d5a8 0 std::__ndk1::basic_string<char, std::__ndk1::char_traits<char>, std::__ndk1::allocator<char> >::__throw_length_error[abi:ne180000]() const
PUBLIC d5bc 0 std::__ndk1::__throw_length_error[abi:ne180000](char const*)
PUBLIC d60c 0 std::length_error::length_error[abi:ne180000](char const*)
PUBLIC d63c 0 std::__throw_bad_array_new_length([abi:ne180000], void)
PUBLIC d670 0 std::__ndk1::basic_stringbuf<char, std::__ndk1::char_traits<char>, std::__ndk1::allocator<char> >::str[abi:ne180000]() &&
PUBLIC d7e8 0 std::__ndk1::basic_stringbuf<char, std::__ndk1::char_traits<char>, std::__ndk1::allocator<char> >::__init_buf_ptrs[abi:ne180000]()
PUBLIC d930 0 std::__ndk1::vector<std::__ndk1::basic_string<char, std::__ndk1::char_traits<char>, std::__ndk1::allocator<char> >, std::__ndk1::allocator<std::__ndk1::basic_string<char, std::__ndk1::char_traits<char>, std::__ndk1::allocator<char> > > >::__push_back_slow_path<std::__ndk1::basic_string<char, std::__ndk1::char_traits<char>, std::__ndk1::allocator<char> > const&>(std::__ndk1::basic_string<char, std::__ndk1::char_traits<char>, std::__ndk1::allocator<char> > const&)
PUBLIC db58 0 std::__ndk1::basic_string<char, std::__ndk1::char_traits<char>, std::__ndk1::allocator<char> >::__init_copy_ctor_external(char const*, unsigned long)
PUBLIC dbd8 0 std::__ndk1::__split_buffer<std::__ndk1::basic_string<char, std::__ndk1::char_traits<char>, std::__ndk1::allocator<char> >, std::__ndk1::allocator<std::__ndk1::basic_string<char, std::__ndk1::char_traits<char>, std::__ndk1::allocator<char> > >&>::~__split_buffer()
PUBLIC dc40 0 std::__ndk1::vector<std::__ndk1::basic_string<char, std::__ndk1::char_traits<char>, std::__ndk1::allocator<char> >, std::__ndk1::allocator<std::__ndk1::basic_string<char, std::__ndk1::char_traits<char>, std::__ndk1::allocator<char> > > >::__throw_length_error[abi:ne180000]() const
PUBLIC dc54 0 std::__ndk1::__variant_detail::__visitation::__base::__dispatcher<(unsigned long)0>::__dispatch[abi:ne180000]<std::__ndk1::__variant_detail::__dtor<std::__ndk1::__variant_detail::__traits<geode::Hook*, std::__ndk1::basic_string<char, std::__ndk1::char_traits<char>, std::__ndk1::allocator<char> > >, (std::__ndk1::__variant_detail::_Trait)1>::__destroy[abi:ne180000]()::{lambda(auto:1&)#1}, std::__ndk1::__variant_detail::__base<(std::__ndk1::__variant_detail::__traits<geode::Hook*, std::__ndk1::basic_string<char, std::__ndk1::char_traits<char>, std::__ndk1::allocator<char> > >)1, geode::Hook, std::__ndk1::allocator<char> >&>(std::__ndk1::__variant_detail::__dtor<std::__ndk1::__variant_detail::__traits<geode::Hook*, std::__ndk1::basic_string<char, std::__ndk1::char_traits<char>, std::__ndk1::allocator<char> > >, (std::__ndk1::__variant_detail::_Trait)1>, std::__ndk1::__variant_detail::__base<(std::__ndk1::__variant_detail::__traits<geode::Hook*, std::__ndk1::basic_string<char, std::__ndk1::char_traits<char>, std::__ndk1::allocator<char> > >)1, geode::Hook, std::__ndk1::allocator<char> >&)
PUBLIC dc58 0 std::__ndk1::__variant_detail::__visitation::__base::__dispatcher<(unsigned long)1>::__dispatch[abi:ne180000]<std::__ndk1::__variant_detail::__dtor<std::__ndk1::__variant_detail::__traits<geode::Hook*, std::__ndk1::basic_string<char, std::__ndk1::char_traits<char>, std::__ndk1::allocator<char> > >, (std::__ndk1::__variant_detail::_Trait)1>::__destroy[abi:ne180000]()::{lambda(auto:1&)#1}, std::__ndk1::__variant_detail::__base<(std::__ndk1::__variant_detail::__traits<geode::Hook*, std::__ndk1::basic_string<char, std::__ndk1::char_traits<char>, std::__ndk1::allocator<char> > >)1, geode::Hook, std::__ndk1::allocator<char> >&>(std::__ndk1::__variant_detail::__dtor<std::__ndk1::__variant_detail::__traits<geode::Hook*, std::__ndk1::basic_string<char, std::__ndk1::char_traits<char>, std::__ndk1::allocator<char> > >, (std::__ndk1::__variant_detail::_Trait)1>, std::__ndk1::__variant_detail::__base<(std::__ndk1::__variant_detail::__traits<geode::Hook*, std::__ndk1::basic_string<char, std::__ndk1::char_traits<char>, std::__ndk1::allocator<char> > >)1, geode::Hook, std::__ndk1::allocator<char> >&)
PUBLIC dc6c 0 std::__ndk1::__tree<std::__ndk1::__value_type<std::__ndk1::basic_string<char, std::__ndk1::char_traits<char>, std::__ndk1::allocator<char> >, std::__ndk1::shared_ptr<geode::Hook> >, std::__ndk1::__map_value_compare<std::__ndk1::basic_string<char, std::__ndk1::char_traits<char>, std::__ndk1::allocator<char> >, std::__ndk1::__value_type<std::__ndk1::basic_string<char, std::__ndk1::char_traits<char>, std::__ndk1::allocator<char> >, std::__ndk1::shared_ptr<geode::Hook> >, std::__ndk1::less<std::__ndk1::basic_string<char, std::__ndk1::char_traits<char>, std::__ndk1::allocator<char> > >, true>, std::__ndk1::allocator<std::__ndk1::__value_type<std::__ndk1::basic_string<char, std::__ndk1::char_traits<char>, std::__ndk1::allocator<char> >, std::__ndk1::shared_ptr<geode::Hook> > > >::find<std::__ndk1::basic_string<char, std::__ndk1::char_traits<char>, std::__ndk1::allocator<char> > >(std::__ndk1::basic_string<char, std::__ndk1::char_traits<char>, std::__ndk1::allocator<char> > const&)
PUBLIC dd8c 0 std::__ndk1::__tree<std::__ndk1::__value_type<std::__ndk1::basic_string<char, std::__ndk1::char_traits<char>, std::__ndk1::allocator<char> >, std::__ndk1::shared_ptr<geode::Hook> >, std::__ndk1::__map_value_compare<std::__ndk1::basic_string<char, std::__ndk1::char_traits<char>, std::__ndk1::allocator<char> >, std::__ndk1::__value_type<std::__ndk1::basic_string<char, std::__ndk1::char_traits<char>, std::__ndk1::allocator<char> >, std::__ndk1::shared_ptr<geode::Hook> >, std::__ndk1::less<std::__ndk1::basic_string<char, std::__ndk1::char_traits<char>, std::__ndk1::allocator<char> > >, true>, std::__ndk1::allocator<std::__ndk1::__value_type<std::__ndk1::basic_string<char, std::__ndk1::char_traits<char>, std::__ndk1::allocator<char> >, std::__ndk1::shared_ptr<geode::Hook> > > >::erase(std::__ndk1::__tree_const_iterator<std::__ndk1::__value_type<std::__ndk1::basic_string<char, std::__ndk1::char_traits<char>, std::__ndk1::allocator<char> >, std::__ndk1::shared_ptr<geode::Hook> >, std::__ndk1::__tree_node<std::__ndk1::__value_type<std::__ndk1::basic_string<char, std::__ndk1::char_traits<char>, std::__ndk1::allocator<char> >, std::__ndk1::shared_ptr<geode::Hook> >, void*>*, long>)
PUBLIC de60 0 std::__ndk1::__tree_remove[abi:ne180000]<std::__ndk1::__tree_node_base<void*>*>(std::__ndk1::__tree_node_base<void*>*, std::__ndk1::__tree_node_base<void*>*)
PUBLIC e228 0 std::__ndk1::__tree<std::__ndk1::__value_type<std::__ndk1::basic_string<char, std::__ndk1::char_traits<char>, std::__ndk1::allocator<char> >, std::__ndk1::shared_ptr<geode::Hook> >, std::__ndk1::__map_value_compare<std::__ndk1::basic_string<char, std::__ndk1::char_traits<char>, std::__ndk1::allocator<char> >, std::__ndk1::__value_type<std::__ndk1::basic_string<char, std::__ndk1::char_traits<char>, std::__ndk1::allocator<char> >, std::__ndk1::shared_ptr<geode::Hook> >, std::__ndk1::less<std::__ndk1::basic_string<char, std::__ndk1::char_traits<char>, std::__ndk1::allocator<char> > >, true>, std::__ndk1::allocator<std::__ndk1::__value_type<std::__ndk1::basic_string<char, std::__ndk1::char_traits<char>, std::__ndk1::allocator<char> >, std::__ndk1::shared_ptr<geode::Hook> > > >::destroy(std::__ndk1::__tree_node<std::__ndk1::__value_type<std::__ndk1::basic_string<char, std::__ndk1::char_traits<char>, std::__ndk1::allocator<char> >, std::__ndk1::shared_ptr<geode::Hook> >, void*>*)
PUBLIC e2b4 0 geode::modifier::AsStaticFunction_loadCustomLevelCell<ALLevelCell, void (ALLevelCell::*)()>::Impl<void (ALLevelCell::*)()>::function(ALLevelCell*)
PUBLIC e388 0 std::__ndk1::shared_ptr<tulip::hook::CallingConvention>::~shared_ptr[abi:ne180000]()
PUBLIC e3d8 0 tulip::hook::HandlerMetadata::~HandlerMetadata()
PUBLIC e43c 0 std::__ndk1::__tree<std::__ndk1::__value_type<std::__ndk1::basic_string<char, std::__ndk1::char_traits<char>, std::__ndk1::allocator<char> >, std::__ndk1::shared_ptr<geode::Hook> >, std::__ndk1::__map_value_compare<std::__ndk1::basic_string<char, std::__ndk1::char_traits<char>, std::__ndk1::allocator<char> >, std::__ndk1::__value_type<std::__ndk1::basic_string<char, std::__ndk1::char_traits<char>, std::__ndk1::allocator<char> >, std::__ndk1::shared_ptr<geode::Hook> >, std::__ndk1::less<std::__ndk1::basic_string<char, std::__ndk1::char_traits<char>, std::__ndk1::allocator<char> > >, true>, std::__ndk1::allocator<std::__ndk1::__value_type<std::__ndk1::basic_string<char, std::__ndk1::char_traits<char>, std::__ndk1::allocator<char> >, std::__ndk1::shared_ptr<geode::Hook> > > >::__emplace_unique_key_args<std::__ndk1::basic_string<char, std::__ndk1::char_traits<char>, std::__ndk1::allocator<char> >, std::__ndk1::piecewise_construct_t const&, std::__ndk1::tuple<std::__ndk1::basic_string<char, std::__ndk1::char_traits<char>, std::__ndk1::allocator<char> >&&>, std::__ndk1::tuple<> >(std::__ndk1::basic_string<char, std::__ndk1::char_traits<char>, std::__ndk1::allocator<char> > const&, std::__ndk1::piecewise_construct_t const&, std::__ndk1::tuple<std::__ndk1::basic_string<char, std::__ndk1::char_traits<char>, std::__ndk1::allocator<char> >&&>, std::__ndk1::tuple<>)
PUBLIC e5b4 0 std::__ndk1::__tree_balance_after_insert[abi:ne180000]<std::__ndk1::__tree_node_base<void*>*>(std::__ndk1::__tree_node_base<void*>*, std::__ndk1::__tree_node_base<void*>*)
PUBLIC e764 0 __cxx_global_var_init
PUBLIC ebe4 0 geode::modifier::ModifyBase<geode::modifier::ModifyDerive<ALLevelInfoLayer, LevelInfoLayer> >::~ModifyBase()
PUBLIC ec00 0 geode::modifier::ModifyDerive<ALLevelInfoLayer, LevelInfoLayer>::apply()
PUBLIC f2a0 0 geode::modifier::ModifyBase<geode::modifier::ModifyDerive<ALLevelInfoLayer, LevelInfoLayer> >::apply()
PUBLIC f2a4 0 geode::modifier::AsStaticFunction_levelDownloadFinished<ALLevelInfoLayer, void (ALLevelInfoLayer::*)(GJGameLevel*)>::Impl<void (ALLevelInfoLayer::*)(GJGameLevel*)>::function(ALLevelInfoLayer*, GJGameLevel*)
PUBLIC f334 0 geode::modifier::AsStaticFunction_init<ALLevelInfoLayer, bool (ALLevelInfoLayer::*)(GJGameLevel*, bool)>::Impl<bool (ALLevelInfoLayer::*)(GJGameLevel*, bool)>::function(ALLevelInfoLayer*, GJGameLevel*, bool)
PUBLIC f3c4 0 geode::addresser::Addresser::addressOfVirtual<void, LevelInfoLayer, GJGameLevel*>(void (LevelInfoLayer::*)(GJGameLevel*))
PUBLIC f46c 0 LevelInfoLayer::LevelInfoLayer(geode::ZeroConstructorType)
PUBLIC f518 0 __cxx_global_var_init
PUBLIC f998 0 geode::modifier::ModifyBase<geode::modifier::ModifyDerive<ALMenuLayer, MenuLayer> >::~ModifyBase()
PUBLIC f9b4 0 geode::modifier::ModifyDerive<ALMenuLayer, MenuLayer>::apply()
PUBLIC fcbc 0 geode::modifier::ModifyBase<geode::modifier::ModifyDerive<ALMenuLayer, MenuLayer> >::apply()
PUBLIC fcc0 0 geode::modifier::AsStaticFunction_init<ALMenuLayer, bool (ALMenuLayer::*)()>::Impl<bool (ALMenuLayer::*)()>::function(ALMenuLayer*)
PUBLIC ff64 0 geode::addresser::Addresser::addressOfVirtual<bool, MenuLayer, >(bool (MenuLayer::*)())
PUBLIC 1000c 0 MenuLayer::MenuLayer(geode::ZeroConstructorType)
PUBLIC 100a8 0 geode::Task<geode::utils::web::WebResponse, geode::utils::web::WebProgress>::~Task()
PUBLIC 100f8 0 geode::modifier::FieldIntermediate<ALMenuLayer, MenuLayer>::self()
PUBLIC 107c8 0 geode::modifier::FieldIntermediate<ALMenuLayer, MenuLayer>::fieldDestructor(void*)
PUBLIC 10864 0 std::__ndk1::vector<void*, std::__ndk1::allocator<void*> >::__throw_length_error[abi:ne180000]() const
PUBLIC 10878 0 std::__ndk1::vector<std::__ndk1::function<void (void*)>, std::__ndk1::allocator<std::__ndk1::function<void (void*)> > >::__throw_length_error[abi:ne180000]() const
PUBLIC 1088c 0 std::__ndk1::vector<void*, std::__ndk1::allocator<void*> >::__throw_out_of_range[abi:ne180000]() const
PUBLIC 10898 0 std::__ndk1::__throw_out_of_range[abi:ne180000](char const*)
PUBLIC 108e0 0 std::out_of_range::out_of_range[abi:ne180000](char const*)
PUBLIC 10918 0 std::__ndk1::vector<std::__ndk1::function<void (void*)>, std::__ndk1::allocator<std::__ndk1::function<void (void*)> > >::__throw_out_of_range[abi:ne180000]() const
PUBLIC 10924 0 geode::EventListener<geode::Task<geode::utils::web::WebResponse, geode::utils::web::WebProgress> >::~EventListener()
PUBLIC 109c0 0 geode::EventListener<geode::Task<geode::utils::web::WebResponse, geode::utils::web::WebProgress> >::getPool() const
PUBLIC 109c4 0 geode::EventListener<geode::Task<geode::utils::web::WebResponse, geode::utils::web::WebProgress> >::handle(geode::Event*)
PUBLIC 10b68 0 geode::EventListener<geode::Task<geode::utils::web::WebResponse, geode::utils::web::WebProgress> >::~EventListener()
PUBLIC 10c0c 0 geode::cast::traverseTypeinfoFor(void*, geode::cast::ClassTypeinfoType const*, char const*)
PUBLIC 10d08 0 std::__ndk1::__throw_bad_function_call[abi:ne180000]()
PUBLIC 10d3c 0 std::__ndk1::bad_function_call::~bad_function_call()
PUBLIC 10d60 0 std::__ndk1::__function::__base<void (void*)>::~__base()
PUBLIC 10d64 0 std::__ndk1::__function::__func<void (*)(void*), std::__ndk1::allocator<void (*)(void*)>, void (void*)>::~__func()
PUBLIC 10d68 0 std::__ndk1::__function::__func<void (*)(void*), std::__ndk1::allocator<void (*)(void*)>, void (void*)>::__clone() const
PUBLIC 10da0 0 std::__ndk1::__function::__func<void (*)(void*), std::__ndk1::allocator<void (*)(void*)>, void (void*)>::__clone(std::__ndk1::__function::__base<void (void*)>*) const
PUBLIC 10db8 0 std::__ndk1::__function::__func<void (*)(void*), std::__ndk1::allocator<void (*)(void*)>, void (void*)>::destroy()
PUBLIC 10dbc 0 std::__ndk1::__function::__func<void (*)(void*), std::__ndk1::allocator<void (*)(void*)>, void (void*)>::destroy_deallocate()
PUBLIC 10dc0 0 std::__ndk1::__function::__func<void (*)(void*), std::__ndk1::allocator<void (*)(void*)>, void (void*)>::operator()(void*&&)
PUBLIC 10dd0 0 std::__ndk1::__function::__func<void (*)(void*), std::__ndk1::allocator<void (*)(void*)>, void (void*)>::target(std::type_info const&) const
PUBLIC 10dec 0 std::__ndk1::__function::__func<void (*)(void*), std::__ndk1::allocator<void (*)(void*)>, void (void*)>::target_type() const
PUBLIC 10df8 0 geode::Task<geode::utils::web::WebResponse, geode::utils::web::WebProgress>::setListener(geode::EventListenerProtocol*)
PUBLIC 10ffc 0 geode::Task<geode::utils::web::WebResponse, geode::utils::web::WebProgress>::setListener(geode::EventListenerProtocol*)::{lambda()#1}::~{lambda()#1}()
PUBLIC 1104c 0 geode::Task<geode::utils::web::WebResponse, geode::utils::web::WebProgress>::setListener(geode::EventListenerProtocol*)::{lambda()#2}::~{lambda()#2}()
PUBLIC 1109c 0 std::__ndk1::__function::__func<geode::Task<geode::utils::web::WebResponse, geode::utils::web::WebProgress>::setListener(geode::EventListenerProtocol*)::{lambda()#1}, std::__ndk1::allocator<geode::Task<geode::utils::web::WebResponse, geode::utils::web::WebProgress>::setListener(geode::EventListenerProtocol*)::{lambda()#1}>, void ()>::~__func()
PUBLIC 110f8 0 std::__ndk1::__function::__func<geode::Task<geode::utils::web::WebResponse, geode::utils::web::WebProgress>::setListener(geode::EventListenerProtocol*)::{lambda()#1}, std::__ndk1::allocator<geode::Task<geode::utils::web::WebResponse, geode::utils::web::WebProgress>::setListener(geode::EventListenerProtocol*)::{lambda()#1}>, void ()>::~__func()
PUBLIC 11164 0 std::__ndk1::__function::__func<geode::Task<geode::utils::web::WebResponse, geode::utils::web::WebProgress>::setListener(geode::EventListenerProtocol*)::{lambda()#1}, std::__ndk1::allocator<geode::Task<geode::utils::web::WebResponse, geode::utils::web::WebProgress>::setListener(geode::EventListenerProtocol*)::{lambda()#1}>, void ()>::__clone() const
PUBLIC 111bc 0 std::__ndk1::__function::__func<geode::Task<geode::utils::web::WebResponse, geode::utils::web::WebProgress>::setListener(geode::EventListenerProtocol*)::{lambda()#1}, std::__ndk1::allocator<geode::Task<geode::utils::web::WebResponse, geode::utils::web::WebProgress>::setListener(geode::EventListenerProtocol*)::{lambda()#1}>, void ()>::__clone(std::__ndk1::__function::__base<void ()>*) const
PUBLIC 11208 0 std::__ndk1::__function::__func<geode::Task<geode::utils::web::WebResponse, geode::utils::web::WebProgress>::setListener(geode::EventListenerProtocol*)::{lambda()#1}, std::__ndk1::allocator<geode::Task<geode::utils::web::WebResponse, geode::utils::web::WebProgress>::setListener(geode::EventListenerProtocol*)::{lambda()#1}>, void ()>::destroy()
PUBLIC 11258 0 std::__ndk1::__function::__func<geode::Task<geode::utils::web::WebResponse, geode::utils::web::WebProgress>::setListener(geode::EventListenerProtocol*)::{lambda()#1}, std::__ndk1::allocator<geode::Task<geode::utils::web::WebResponse, geode::utils::web::WebProgress>::setListener(geode::EventListenerProtocol*)::{lambda()#1}>, void ()>::destroy_deallocate()
PUBLIC 112b8 0 std::__ndk1::__function::__func<geode::Task<geode::utils::web::WebResponse, geode::utils::web::WebProgress>::setListener(geode::EventListenerProtocol*)::{lambda()#1}, std::__ndk1::allocator<geode::Task<geode::utils::web::WebResponse, geode::utils::web::WebProgress>::setListener(geode::EventListenerProtocol*)::{lambda()#1}>, void ()>::operator()()
PUBLIC 11488 0 std::__ndk1::__function::__func<geode::Task<geode::utils::web::WebResponse, geode::utils::web::WebProgress>::setListener(geode::EventListenerProtocol*)::{lambda()#1}, std::__ndk1::allocator<geode::Task<geode::utils::web::WebResponse, geode::utils::web::WebProgress>::setListener(geode::EventListenerProtocol*)::{lambda()#1}>, void ()>::target(std::type_info const&) const
PUBLIC 114a4 0 std::__ndk1::__function::__func<geode::Task<geode::utils::web::WebResponse, geode::utils::web::WebProgress>::setListener(geode::EventListenerProtocol*)::{lambda()#1}, std::__ndk1::allocator<geode::Task<geode::utils::web::WebResponse, geode::utils::web::WebProgress>::setListener(geode::EventListenerProtocol*)::{lambda()#1}>, void ()>::target_type() const
PUBLIC 114b0 0 geode::Task<geode::utils::web::WebResponse, geode::utils::web::WebProgress>::Event::~Event()
PUBLIC 11510 0 geode::Task<geode::utils::web::WebResponse, geode::utils::web::WebProgress>::Event::~Event()
PUBLIC 11580 0 std::__ndk1::__function::__func<geode::Task<geode::utils::web::WebResponse, geode::utils::web::WebProgress>::setListener(geode::EventListenerProtocol*)::{lambda()#2}, std::__ndk1::allocator<geode::Task<geode::utils::web::WebResponse, geode::utils::web::WebProgress>::setListener(geode::EventListenerProtocol*)::{lambda()#2}>, void ()>::~__func()
PUBLIC 115dc 0 std::__ndk1::__function::__func<geode::Task<geode::utils::web::WebResponse, geode::utils::web::WebProgress>::setListener(geode::EventListenerProtocol*)::{lambda()#2}, std::__ndk1::allocator<geode::Task<geode::utils::web::WebResponse, geode::utils::web::WebProgress>::setListener(geode::EventListenerProtocol*)::{lambda()#2}>, void ()>::~__func()
PUBLIC 11648 0 std::__ndk1::__function::__func<geode::Task<geode::utils::web::WebResponse, geode::utils::web::WebProgress>::setListener(geode::EventListenerProtocol*)::{lambda()#2}, std::__ndk1::allocator<geode::Task<geode::utils::web::WebResponse, geode::utils::web::WebProgress>::setListener(geode::EventListenerProtocol*)::{lambda()#2}>, void ()>::__clone() const
PUBLIC 116a0 0 std::__ndk1::__function::__func<geode::Task<geode::utils::web::WebResponse, geode::utils::web::WebProgress>::setListener(geode::EventListenerProtocol*)::{lambda()#2}, std::__ndk1::allocator<geode::Task<geode::utils::web::WebResponse, geode::utils::web::WebProgress>::setListener(geode::EventListenerProtocol*)::{lambda()#2}>, void ()>::__clone(std::__ndk1::__function::__base<void ()>*) const
PUBLIC 116ec 0 std::__ndk1::__function::__func<geode::Task<geode::utils::web::WebResponse, geode::utils::web::WebProgress>::setListener(geode::EventListenerProtocol*)::{lambda()#2}, std::__ndk1::allocator<geode::Task<geode::utils::web::WebResponse, geode::utils::web::WebProgress>::setListener(geode::EventListenerProtocol*)::{lambda()#2}>, void ()>::destroy()
PUBLIC 1173c 0 std::__ndk1::__function::__func<geode::Task<geode::utils::web::WebResponse, geode::utils::web::WebProgress>::setListener(geode::EventListenerProtocol*)::{lambda()#2}, std::__ndk1::allocator<geode::Task<geode::utils::web::WebResponse, geode::utils::web::WebProgress>::setListener(geode::EventListenerProtocol*)::{lambda()#2}>, void ()>::destroy_deallocate()
PUBLIC 1179c 0 std::__ndk1::__function::__func<geode::Task<geode::utils::web::WebResponse, geode::utils::web::WebProgress>::setListener(geode::EventListenerProtocol*)::{lambda()#2}, std::__ndk1::allocator<geode::Task<geode::utils::web::WebResponse, geode::utils::web::WebProgress>::setListener(geode::EventListenerProtocol*)::{lambda()#2}>, void ()>::operator()()
PUBLIC 11960 0 std::__ndk1::__function::__func<geode::Task<geode::utils::web::WebResponse, geode::utils::web::WebProgress>::setListener(geode::EventListenerProtocol*)::{lambda()#2}, std::__ndk1::allocator<geode::Task<geode::utils::web::WebResponse, geode::utils::web::WebProgress>::setListener(geode::EventListenerProtocol*)::{lambda()#2}>, void ()>::target(std::type_info const&) const
PUBLIC 1197c 0 std::__ndk1::__function::__func<geode::Task<geode::utils::web::WebResponse, geode::utils::web::WebProgress>::setListener(geode::EventListenerProtocol*)::{lambda()#2}, std::__ndk1::allocator<geode::Task<geode::utils::web::WebResponse, geode::utils::web::WebProgress>::setListener(geode::EventListenerProtocol*)::{lambda()#2}>, void ()>::target_type() const
PUBLIC 11988 0 std::__ndk1::__function::__base<void (geode::Task<geode::utils::web::WebResponse, geode::utils::web::WebProgress>::Event*)>::~__base()
PUBLIC 1198c 0 std::__ndk1::__function::__func<ALMenuLayer::init()::{lambda(geode::Task<geode::utils::web::WebResponse, geode::utils::web::WebProgress>::Event*)#1}, std::__ndk1::allocator<ALMenuLayer::init()::{lambda(geode::Task<geode::utils::web::WebResponse, geode::utils::web::WebProgress>::Event*)#1}>, void (geode::Task<geode::utils::web::WebResponse, geode::utils::web::WebProgress>::Event*)>::~__func()
PUBLIC 11990 0 std::__ndk1::__function::__func<ALMenuLayer::init()::{lambda(geode::Task<geode::utils::web::WebResponse, geode::utils::web::WebProgress>::Event*)#1}, std::__ndk1::allocator<ALMenuLayer::init()::{lambda(geode::Task<geode::utils::web::WebResponse, geode::utils::web::WebProgress>::Event*)#1}>, void (geode::Task<geode::utils::web::WebResponse, geode::utils::web::WebProgress>::Event*)>::__clone() const
PUBLIC 119b4 0 std::__ndk1::__function::__func<ALMenuLayer::init()::{lambda(geode::Task<geode::utils::web::WebResponse, geode::utils::web::WebProgress>::Event*)#1}, std::__ndk1::allocator<ALMenuLayer::init()::{lambda(geode::Task<geode::utils::web::WebResponse, geode::utils::web::WebProgress>::Event*)#1}>, void (geode::Task<geode::utils::web::WebResponse, geode::utils::web::WebProgress>::Event*)>::__clone(std::__ndk1::__function::__base<void (geode::Task<geode::utils::web::WebResponse, geode::utils::web::WebProgress>::Event*)>*) const
PUBLIC 119c4 0 std::__ndk1::__function::__func<ALMenuLayer::init()::{lambda(geode::Task<geode::utils::web::WebResponse, geode::utils::web::WebProgress>::Event*)#1}, std::__ndk1::allocator<ALMenuLayer::init()::{lambda(geode::Task<geode::utils::web::WebResponse, geode::utils::web::WebProgress>::Event*)#1}>, void (geode::Task<geode::utils::web::WebResponse, geode::utils::web::WebProgress>::Event*)>::destroy()
PUBLIC 119c8 0 std::__ndk1::__function::__func<ALMenuLayer::init()::{lambda(geode::Task<geode::utils::web::WebResponse, geode::utils::web::WebProgress>::Event*)#1}, std::__ndk1::allocator<ALMenuLayer::init()::{lambda(geode::Task<geode::utils::web::WebResponse, geode::utils::web::WebProgress>::Event*)#1}>, void (geode::Task<geode::utils::web::WebResponse, geode::utils::web::WebProgress>::Event*)>::destroy_deallocate()
PUBLIC 119cc 0 std::__ndk1::__function::__func<ALMenuLayer::init()::{lambda(geode::Task<geode::utils::web::WebResponse, geode::utils::web::WebProgress>::Event*)#1}, std::__ndk1::allocator<ALMenuLayer::init()::{lambda(geode::Task<geode::utils::web::WebResponse, geode::utils::web::WebProgress>::Event*)#1}>, void (geode::Task<geode::utils::web::WebResponse, geode::utils::web::WebProgress>::Event*)>::operator()(geode::Task<geode::utils::web::WebResponse, geode::utils::web::WebProgress>::Event*&&)
PUBLIC 12310 0 std::__ndk1::__function::__func<ALMenuLayer::init()::{lambda(geode::Task<geode::utils::web::WebResponse, geode::utils::web::WebProgress>::Event*)#1}, std::__ndk1::allocator<ALMenuLayer::init()::{lambda(geode::Task<geode::utils::web::WebResponse, geode::utils::web::WebProgress>::Event*)#1}>, void (geode::Task<geode::utils::web::WebResponse, geode::utils::web::WebProgress>::Event*)>::target(std::type_info const&) const
PUBLIC 1232c 0 std::__ndk1::__function::__func<ALMenuLayer::init()::{lambda(geode::Task<geode::utils::web::WebResponse, geode::utils::web::WebProgress>::Event*)#1}, std::__ndk1::allocator<ALMenuLayer::init()::{lambda(geode::Task<geode::utils::web::WebResponse, geode::utils::web::WebProgress>::Event*)#1}>, void (geode::Task<geode::utils::web::WebResponse, geode::utils::web::WebProgress>::Event*)>::target_type() const
PUBLIC 12338 0 geode::impl::ResultData<std::__ndk1::vector<int, std::__ndk1::allocator<int> >, std::__ndk1::basic_string<char, std::__ndk1::char_traits<char>, std::__ndk1::allocator<char> > >::~ResultData()
PUBLIC 123ac 0 geode::impl::ResultData<matjson::Value, std::__ndk1::basic_string<char, std::__ndk1::char_traits<char>, std::__ndk1::allocator<char> > >::~ResultData()
PUBLIC 12420 0 geode::impl::ResultData<int, std::__ndk1::basic_string<char, std::__ndk1::char_traits<char>, std::__ndk1::allocator<char> > >::~ResultData()
PUBLIC 12494 0 std::__ndk1::vector<int, std::__ndk1::allocator<int> >::__throw_length_error[abi:ne180000]() const
PUBLIC 124a8 0 _ZN5geode15UnwrapExceptionC2IRNSt6__ndk112basic_stringIcNS2_11char_traitsIcEENS2_9allocatorIcEEEEQsr4implE18IsStringStreamableIT_EEENS_4impl6ErrTagEOSA_
PUBLIC 12610 0 std::__ndk1::__variant_detail::__visitation::__base::__dispatcher<(unsigned long)0>::__dispatch[abi:ne180000]<std::__ndk1::__variant_detail::__dtor<std::__ndk1::__variant_detail::__traits<long, std::__ndk1::basic_string<char, std::__ndk1::char_traits<char>, std::__ndk1::allocator<char> > >, (std::__ndk1::__variant_detail::_Trait)1>::__destroy[abi:ne180000]()::{lambda(auto:1&)#1}, std::__ndk1::__variant_detail::__base<(std::__ndk1::__variant_detail::__traits<long, std::__ndk1::basic_string<char, std::__ndk1::char_traits<char>, std::__ndk1::allocator<char> > >)1, long, std::__ndk1::allocator<char> >&>(std::__ndk1::__variant_detail::__dtor<std::__ndk1::__variant_detail::__traits<long, std::__ndk1::basic_string<char, std::__ndk1::char_traits<char>, std::__ndk1::allocator<char> > >, (std::__ndk1::__variant_detail::_Trait)1>, std::__ndk1::__variant_detail::__base<(std::__ndk1::__variant_detail::__traits<long, std::__ndk1::basic_string<char, std::__ndk1::char_traits<char>, std::__ndk1::allocator<char> > >)1, long, std::__ndk1::allocator<char> >&)
PUBLIC 12614 0 std::__ndk1::__variant_detail::__visitation::__base::__dispatcher<(unsigned long)1>::__dispatch[abi:ne180000]<std::__ndk1::__variant_detail::__dtor<std::__ndk1::__variant_detail::__traits<long, std::__ndk1::basic_string<char, std::__ndk1::char_traits<char>, std::__ndk1::allocator<char> > >, (std::__ndk1::__variant_detail::_Trait)1>::__destroy[abi:ne180000]()::{lambda(auto:1&)#1}, std::__ndk1::__variant_detail::__base<(std::__ndk1::__variant_detail::__traits<long, std::__ndk1::basic_string<char, std::__ndk1::char_traits<char>, std::__ndk1::allocator<char> > >)1, long, std::__ndk1::allocator<char> >&>(std::__ndk1::__variant_detail::__dtor<std::__ndk1::__variant_detail::__traits<long, std::__ndk1::basic_string<char, std::__ndk1::char_traits<char>, std::__ndk1::allocator<char> > >, (std::__ndk1::__variant_detail::_Trait)1>, std::__ndk1::__variant_detail::__base<(std::__ndk1::__variant_detail::__traits<long, std::__ndk1::basic_string<char, std::__ndk1::char_traits<char>, std::__ndk1::allocator<char> > >)1, long, std::__ndk1::allocator<char> >&)
PUBLIC 12628 0 std::__ndk1::__variant_detail::__visitation::__base::__dispatcher<(unsigned long)0>::__dispatch[abi:ne180000]<std::__ndk1::__variant_detail::__dtor<std::__ndk1::__variant_detail::__traits<int, std::__ndk1::basic_string<char, std::__ndk1::char_traits<char>, std::__ndk1::allocator<char> > >, (std::__ndk1::__variant_detail::_Trait)1>::__destroy[abi:ne180000]()::{lambda(auto:1&)#1}, std::__ndk1::__variant_detail::__base<(std::__ndk1::__variant_detail::__traits<int, std::__ndk1::basic_string<char, std::__ndk1::char_traits<char>, std::__ndk1::allocator<char> > >)1, int, std::__ndk1::allocator<char> >&>(std::__ndk1::__variant_detail::__dtor<std::__ndk1::__variant_detail::__traits<int, std::__ndk1::basic_string<char, std::__ndk1::char_traits<char>, std::__ndk1::allocator<char> > >, (std::__ndk1::__variant_detail::_Trait)1>, std::__ndk1::__variant_detail::__base<(std::__ndk1::__variant_detail::__traits<int, std::__ndk1::basic_string<char, std::__ndk1::char_traits<char>, std::__ndk1::allocator<char> > >)1, int, std::__ndk1::allocator<char> >&)
PUBLIC 1262c 0 std::__ndk1::__variant_detail::__visitation::__base::__dispatcher<(unsigned long)1>::__dispatch[abi:ne180000]<std::__ndk1::__variant_detail::__dtor<std::__ndk1::__variant_detail::__traits<int, std::__ndk1::basic_string<char, std::__ndk1::char_traits<char>, std::__ndk1::allocator<char> > >, (std::__ndk1::__variant_detail::_Trait)1>::__destroy[abi:ne180000]()::{lambda(auto:1&)#1}, std::__ndk1::__variant_detail::__base<(std::__ndk1::__variant_detail::__traits<int, std::__ndk1::basic_string<char, std::__ndk1::char_traits<char>, std::__ndk1::allocator<char> > >)1, int, std::__ndk1::allocator<char> >&>(std::__ndk1::__variant_detail::__dtor<std::__ndk1::__variant_detail::__traits<int, std::__ndk1::basic_string<char, std::__ndk1::char_traits<char>, std::__ndk1::allocator<char> > >, (std::__ndk1::__variant_detail::_Trait)1>, std::__ndk1::__variant_detail::__base<(std::__ndk1::__variant_detail::__traits<int, std::__ndk1::basic_string<char, std::__ndk1::char_traits<char>, std::__ndk1::allocator<char> > >)1, int, std::__ndk1::allocator<char> >&)
PUBLIC 12640 0 std::__ndk1::__variant_detail::__visitation::__base::__dispatcher<(unsigned long)0>::__dispatch[abi:ne180000]<std::__ndk1::__variant_detail::__dtor<std::__ndk1::__variant_detail::__traits<std::__ndk1::vector<int, std::__ndk1::allocator<int> >, std::__ndk1::basic_string<char, std::__ndk1::char_traits<char>, std::__ndk1::vector<char> > >, (std::__ndk1::__variant_detail::_Trait)1>::__destroy[abi:ne180000]()::{lambda(auto:1&)#1}, std::__ndk1::__variant_detail::__base<(std::__ndk1::__variant_detail::__traits<std::__ndk1::vector<int, std::__ndk1::allocator<int> >, std::__ndk1::basic_string<char, std::__ndk1::char_traits<char>, std::__ndk1::vector<char> > >)1, std::__ndk1::allocator<int>, std::__ndk1::vector<char> >&>(std::__ndk1::__variant_detail::__dtor<std::__ndk1::__variant_detail::__traits<std::__ndk1::vector<int, std::__ndk1::allocator<int> >, std::__ndk1::basic_string<char, std::__ndk1::char_traits<char>, std::__ndk1::vector<char> > >, (std::__ndk1::__variant_detail::_Trait)1>, std::__ndk1::__variant_detail::__base<(std::__ndk1::__variant_detail::__traits<std::__ndk1::vector<int, std::__ndk1::allocator<int> >, std::__ndk1::basic_string<char, std::__ndk1::char_traits<char>, std::__ndk1::vector<char> > >)1, std::__ndk1::allocator<int>, std::__ndk1::vector<char> >&)
PUBLIC 12654 0 std::__ndk1::__variant_detail::__visitation::__base::__dispatcher<(unsigned long)1>::__dispatch[abi:ne180000]<std::__ndk1::__variant_detail::__dtor<std::__ndk1::__variant_detail::__traits<std::__ndk1::vector<int, std::__ndk1::allocator<int> >, std::__ndk1::basic_string<char, std::__ndk1::char_traits<char>, std::__ndk1::vector<char> > >, (std::__ndk1::__variant_detail::_Trait)1>::__destroy[abi:ne180000]()::{lambda(auto:1&)#1}, std::__ndk1::__variant_detail::__base<(std::__ndk1::__variant_detail::__traits<std::__ndk1::vector<int, std::__ndk1::allocator<int> >, std::__ndk1::basic_string<char, std::__ndk1::char_traits<char>, std::__ndk1::vector<char> > >)1, std::__ndk1::allocator<int>, std::__ndk1::vector<char> >&>(std::__ndk1::__variant_detail::__dtor<std::__ndk1::__variant_detail::__traits<std::__ndk1::vector<int, std::__ndk1::allocator<int> >, std::__ndk1::basic_string<char, std::__ndk1::char_traits<char>, std::__ndk1::vector<char> > >, (std::__ndk1::__variant_detail::_Trait)1>, std::__ndk1::__variant_detail::__base<(std::__ndk1::__variant_detail::__traits<std::__ndk1::vector<int, std::__ndk1::allocator<int> >, std::__ndk1::basic_string<char, std::__ndk1::char_traits<char>, std::__ndk1::vector<char> > >)1, std::__ndk1::allocator<int>, std::__ndk1::vector<char> >&)
PUBLIC 12668 0 std::__ndk1::__variant_detail::__visitation::__base::__dispatcher<(unsigned long)0>::__dispatch[abi:ne180000]<std::__ndk1::__variant_detail::__dtor<std::__ndk1::__variant_detail::__traits<matjson::Value, std::__ndk1::basic_string<char, std::__ndk1::char_traits<char>, std::__ndk1::allocator<char> > >, (std::__ndk1::__variant_detail::_Trait)1>::__destroy[abi:ne180000]()::{lambda(auto:1&)#1}, std::__ndk1::__variant_detail::__base<(std::__ndk1::__variant_detail::__traits<matjson::Value, std::__ndk1::basic_string<char, std::__ndk1::char_traits<char>, std::__ndk1::allocator<char> > >)1, matjson, std::__ndk1::allocator<char> >&>(std::__ndk1::__variant_detail::__dtor<std::__ndk1::__variant_detail::__traits<matjson::Value, std::__ndk1::basic_string<char, std::__ndk1::char_traits<char>, std::__ndk1::allocator<char> > >, (std::__ndk1::__variant_detail::_Trait)1>, std::__ndk1::__variant_detail::__base<(std::__ndk1::__variant_detail::__traits<matjson::Value, std::__ndk1::basic_string<char, std::__ndk1::char_traits<char>, std::__ndk1::allocator<char> > >)1, matjson, std::__ndk1::allocator<char> >&)
PUBLIC 12670 0 std::__ndk1::__variant_detail::__visitation::__base::__dispatcher<(unsigned long)1>::__dispatch[abi:ne180000]<std::__ndk1::__variant_detail::__dtor<std::__ndk1::__variant_detail::__traits<matjson::Value, std::__ndk1::basic_string<char, std::__ndk1::char_traits<char>, std::__ndk1::allocator<char> > >, (std::__ndk1::__variant_detail::_Trait)1>::__destroy[abi:ne180000]()::{lambda(auto:1&)#1}, std::__ndk1::__variant_detail::__base<(std::__ndk1::__variant_detail::__traits<matjson::Value, std::__ndk1::basic_string<char, std::__ndk1::char_traits<char>, std::__ndk1::allocator<char> > >)1, matjson, std::__ndk1::allocator<char> >&>(std::__ndk1::__variant_detail::__dtor<std::__ndk1::__variant_detail::__traits<matjson::Value, std::__ndk1::basic_string<char, std::__ndk1::char_traits<char>, std::__ndk1::allocator<char> > >, (std::__ndk1::__variant_detail::_Trait)1>, std::__ndk1::__variant_detail::__base<(std::__ndk1::__variant_detail::__traits<matjson::Value, std::__ndk1::basic_string<char, std::__ndk1::char_traits<char>, std::__ndk1::allocator<char> > >)1, matjson, std::__ndk1::allocator<char> >&)
PUBLIC 12684 0 std::__ndk1::vector<int, std::__ndk1::allocator<int> >::~vector[abi:ne180000]()
PUBLIC 1269c 0 std::__ndk1::vector<int, std::__ndk1::allocator<int> >::__assign_with_size[abi:ne180000]<int*, std::__ndk1::vector<int, std::__ndk1::allocator<int> >::__assign_with_size[abi:ne180000]>(int*, std::__ndk1::vector<int, std::__ndk1::allocator<int> >::__assign_with_size[abi:ne180000], long)
PUBLIC 127cc 0 _GLOBAL__sub_I_AutoLevels.cpp
PUBLIC m 127e8 0 geodeImplicitEntry
PUBLIC 12830 0 <.plt ELF section in sorkopiko.autolevels.android64.so>
STACK CFI INIT 8020 10 .cfa: sp 0 +
STACK CFI INIT 8030 8 .cfa: sp 0 +
STACK CFI INIT 8038 8 .cfa: sp 0 +
STACK CFI INIT 8040 14 .cfa: sp 0 +
STACK CFI INIT 8054 1c .cfa: sp 0 +
STACK CFI INIT 8070 10 .cfa: sp 0 +
STACK CFI INIT 8080 134 .cfa: sp 0 +
STACK CFI INIT 81b4 84 .cfa: sp 0 +
STACK CFI INIT 8238 f4 .cfa: sp 0 +
STACK CFI INIT 832c a8 .cfa: sp 0 +
STACK CFI INIT 83d4 7c .cfa: sp 0 +
STACK CFI INIT 8450 14 .cfa: sp 0 +
STACK CFI INIT 8464 40 .cfa: sp 0 +
STACK CFI INIT 84a4 28 .cfa: sp 0 +
STACK CFI INIT 84cc 190 .cfa: sp 0 +
STACK CFI INIT 865c 2c8 .cfa: sp 0 +
STACK CFI INIT 8924 8 .cfa: sp 0 +
STACK CFI INIT 892c 8 .cfa: sp 0 +
STACK CFI INIT 8934 44 .cfa: sp 0 +
STACK CFI INIT 8978 e8 .cfa: sp 0 +
STACK CFI INIT 8a60 e8 .cfa: sp 0 +
STACK CFI INIT 8b48 14 .cfa: sp 0 +
STACK CFI INIT 8b5c 10 .cfa: sp 0 +
STACK CFI INIT 8b6c 10 .cfa: sp 0 +
STACK CFI INIT 8b7c f0 .cfa: sp 0 +
STACK CFI INIT 8c6c 44 .cfa: sp 0 +
STACK CFI INIT 8cb0 c .cfa: sp 0 +
STACK CFI INIT 8cbc c .cfa: sp 0 +
STACK CFI INIT 8cc8 2c .cfa: sp 0 +
STACK CFI INIT 8cf4 280 .cfa: sp 0 +
STACK CFI INIT 8f74 c .cfa: sp 0 +
STACK CFI INIT 8f80 120 .cfa: sp 0 +
STACK CFI INIT 90a0 488 .cfa: sp 0 +
STACK CFI INIT 9528 c48 .cfa: sp 0 +
STACK CFI INIT a170 134 .cfa: sp 0 +
STACK CFI INIT a2a4 210 .cfa: sp 0 +
STACK CFI INIT a4b4 38c .cfa: sp 0 +
STACK CFI INIT a840 1c8 .cfa: sp 0 +
STACK CFI INIT aa08 9bc .cfa: sp 0 +
STACK CFI INIT b3c4 2d4 .cfa: sp 0 +
STACK CFI INIT b698 134 .cfa: sp 0 +
STACK CFI INIT b7cc 120 .cfa: sp 0 +
STACK CFI INIT b8ec 1c8 .cfa: sp 0 +
STACK CFI INIT bab4 168 .cfa: sp 0 +
STACK CFI INIT bc1c fc .cfa: sp 0 +
STACK CFI INIT bd18 30 .cfa: sp 0 +
STACK CFI INIT be80 30 .cfa: sp 0 +
STACK CFI INIT beb0 98 .cfa: sp 0 +
STACK CFI INIT bf48 59c .cfa: sp 0 +
STACK CFI INIT c4e4 8c .cfa: sp 0 +
STACK CFI INIT c570 30 .cfa: sp 0 +
STACK CFI INIT ca20 1c .cfa: sp 0 +
STACK CFI INIT cd7c 50 .cfa: sp 0 +
STACK CFI cd80 .cfa: sp 32 +
STACK CFI cd88 .cfa: x29 32 + x19: .cfa -16 + ^ .ra: .cfa -24 + ^ x29: .cfa -32 + ^
STACK CFI cda0 .cfa: sp 32 +
STACK CFI cda8 .cfa: sp 0 +
STACK CFI cdac .cfa: x29 32 +
STACK CFI cdc0 .cfa: sp 32 +
STACK CFI cdc8 .cfa: sp 0 +
STACK CFI INIT ce40 7c .cfa: sp 0 +
STACK CFI ce44 .cfa: sp 48 +
STACK CFI ce50 .cfa: x29 48 + x19: .cfa -8 + ^ x20: .cfa -16 + ^ x21: .cfa -32 + ^ .ra: .cfa -40 + ^ x29: .cfa -48 + ^
STACK CFI ce9c .cfa: sp 48 +
STACK CFI cea8 .cfa: sp 0 +
STACK CFI ceac .cfa: sp 48 +
STACK CFI ceb8 .cfa: sp 0 +
STACK CFI INIT cebc 4 .cfa: sp 0 +
STACK CFI INIT cec0 10 .cfa: sp 0 +
STACK CFI cec4 .cfa: sp 16 +
STACK CFI cec8 .cfa: x29 16 + .ra: .cfa -8 + ^ x29: .cfa -16 + ^
STACK CFI INIT d024 34 .cfa: sp 0 +
STACK CFI d028 .cfa: sp 16 +
STACK CFI d02c .cfa: x29 16 + .ra: .cfa -8 + ^ x29: .cfa -16 + ^
STACK CFI INIT d184 80 .cfa: sp 0 +
STACK CFI d188 .cfa: sp 48 +
STACK CFI d194 .cfa: x29 48 + x19: .cfa -8 + ^ x20: .cfa -16 + ^ x21: .cfa -32 + ^ .ra: .cfa -40 + ^ x29: .cfa -48 + ^
STACK CFI d1f4 .cfa: sp 48 +
STACK CFI d200 .cfa: sp 0 +
STACK CFI INIT d204 24 .cfa: sp 0 +
STACK CFI d208 .cfa: sp 32 +
STACK CFI d210 .cfa: x29 32 + x19: .cfa -16 + ^ .ra: .cfa -24 + ^ x29: .cfa -32 + ^
STACK CFI d21c .cfa: sp 32 +
STACK CFI d224 .cfa: sp 0 +
STACK CFI INIT d5a8 14 .cfa: sp 0 +
STACK CFI d5ac .cfa: sp 16 +
STACK CFI d5b0 .cfa: x29 16 + .ra: .cfa -8 + ^ x29: .cfa -16 + ^
STACK CFI INIT d60c 30 .cfa: sp 0 +
STACK CFI d610 .cfa: sp 32 +
STACK CFI d618 .cfa: x29 32 + x19: .cfa -16 + ^ .ra: .cfa -24 + ^ x29: .cfa -32 + ^
STACK CFI d630 .cfa: sp 32 +
STACK CFI d638 .cfa: sp 0 +
STACK CFI INIT d63c 34 .cfa: sp 0 +
STACK CFI d640 .cfa: sp 32 +
STACK CFI d648 .cfa: x29 32 + x19: .cfa -16 + ^ .ra: .cfa -24 + ^ x29: .cfa -32 + ^
STACK CFI INIT d7e8 148 .cfa: sp 0 +
STACK CFI d7ec .cfa: sp 48 +
STACK CFI d7f8 .cfa: x29 48 + x19: .cfa -8 + ^ x20: .cfa -16 + ^ x21: .cfa -32 + ^ .ra: .cfa -40 + ^ x29: .cfa -48 + ^
STACK CFI d920 .cfa: sp 48 +
STACK CFI d92c .cfa: sp 0 +
STACK CFI INIT db58 80 .cfa: sp 0 +
STACK CFI db5c .cfa: sp 48 +
STACK CFI db68 .cfa: x29 48 + x19: .cfa -8 + ^ x20: .cfa -16 + ^ x21: .cfa -24 + ^ x22: .cfa -32 + ^ .ra: .cfa -40 + ^ x29: .cfa -48 + ^
STACK CFI db80 .cfa: sp 48 +
STACK CFI db8c .cfa: sp 0 +
STACK CFI db90 .cfa: x29 48 +
STACK CFI dbc0 .cfa: sp 48 +
STACK CFI dbcc .cfa: sp 0 +
STACK CFI dbd0 .cfa: x29 48 +
STACK CFI INIT dbd8 68 .cfa: sp 0 +
STACK CFI dbdc .cfa: sp 32 +
STACK CFI dbe4 .cfa: x29 32 + x19: .cfa -8 + ^ x20: .cfa -16 + ^ .ra: .cfa -24 + ^ x29: .cfa -32 + ^
STACK CFI dbfc .cfa: sp 32 +
STACK CFI dc04 .cfa: sp 0 +
STACK CFI dc08 .cfa: x29 32 +
STACK CFI dc34 .cfa: sp 32 +
STACK CFI dc3c .cfa: sp 0 +
STACK CFI INIT dc40 14 .cfa: sp 0 +
STACK CFI dc44 .cfa: sp 16 +
STACK CFI dc48 .cfa: x29 16 + .ra: .cfa -8 + ^ x29: .cfa -16 + ^
STACK CFI INIT dc54 4 .cfa: sp 0 +
STACK CFI INIT dc58 14 .cfa: sp 0 +
STACK CFI INIT dc6c 120 .cfa: sp 0 +
STACK CFI dc70 .cfa: sp 64 +
STACK CFI dc80 .cfa: x29 64 + x19: .cfa -8 + ^ x20: .cfa -16 + ^ x21: .cfa -24 + ^ x22: .cfa -32 + ^ x23: .cfa -40 + ^ x24: .cfa -48 + ^ .ra: .cfa -56 + ^ x29: .cfa -64 + ^
STACK CFI dd78 .cfa: sp 64 +
STACK CFI dd88 .cfa: sp 0 +
STACK CFI INIT dd8c d4 .cfa: sp 0 +
STACK CFI dd90 .cfa: sp 48 +
STACK CFI dd9c .cfa: x29 48 + x19: .cfa -8 + ^ x20: .cfa -16 + ^ x21: .cfa -32 + ^ .ra: .cfa -40 + ^ x29: .cfa -48 + ^
STACK CFI de2c .cfa: sp 48 +
STACK CFI de38 .cfa: sp 0 +
STACK CFI de3c .cfa: x29 48 +
STACK CFI INIT de60 3c8 .cfa: sp 0 +
STACK CFI INIT e228 8c .cfa: sp 0 +
STACK CFI e230 .cfa: sp 32 +
STACK CFI e238 .cfa: x29 32 + x19: .cfa -8 + ^ x20: .cfa -16 + ^ .ra: .cfa -24 + ^ x29: .cfa -32 + ^
STACK CFI e280 .cfa: sp 32 +
STACK CFI e288 .cfa: sp 0 +
STACK CFI e290 .cfa: x29 32 +
STACK CFI INIT e2b4 d4 .cfa: sp 0 +
STACK CFI e2b8 .cfa: sp 48 +
STACK CFI e2c4 .cfa: x29 48 + x19: .cfa -8 + ^ x20: .cfa -16 + ^ x21: .cfa -32 + ^ .ra: .cfa -40 + ^ x29: .cfa -48 + ^
STACK CFI e368 .cfa: sp 48 +
STACK CFI e374 .cfa: sp 0 +
STACK CFI e378 .cfa: sp 48 +
STACK CFI e384 .cfa: sp 0 +
STACK CFI INIT e388 50 .cfa: sp 0 +
STACK CFI e38c .cfa: sp 32 +
STACK CFI e394 .cfa: x29 32 + x19: .cfa -16 + ^ .ra: .cfa -24 + ^ x29: .cfa -32 + ^
STACK CFI e3ac .cfa: sp 32 +
STACK CFI e3b4 .cfa: sp 0 +
STACK CFI e3b8 .cfa: x29 32 +
STACK CFI e3cc .cfa: sp 32 +
STACK CFI e3d4 .cfa: sp 0 +
STACK CFI INIT e3d8 64 .cfa: sp 0 +
STACK CFI e3dc .cfa: sp 32 +
STACK CFI e3e4 .cfa: x29 32 + x19: .cfa -16 + ^ .ra: .cfa -24 + ^ x29: .cfa -32 + ^
STACK CFI e410 .cfa: sp 32 +
STACK CFI e418 .cfa: sp 0 +
STACK CFI e41c .cfa: x29 32 +
STACK CFI e430 .cfa: sp 32 +
STACK CFI e438 .cfa: sp 0 +
STACK CFI INIT e43c 178 .cfa: sp 0 +
STACK CFI e440 .cfa: sp 80 +
STACK CFI e454 .cfa: x29 80 + x19: .cfa -8 + ^ x20: .cfa -16 + ^ x21: .cfa -24 + ^ x22: .cfa -32 + ^ x23: .cfa -40 + ^ x24: .cfa -48 + ^ x25: .cfa -56 + ^ x26: .cfa -64 + ^ .ra: .cfa -72 + ^ x29: .cfa -80 + ^
STACK CFI e59c .cfa: sp 80 +
STACK CFI e5b0 .cfa: sp 0 +
STACK CFI INIT e5b4 1b0 .cfa: sp 0 +
STACK CFI INIT ebe4 1c .cfa: sp 0 +
STACK CFI INIT f2a0 4 .cfa: sp 0 +
STACK CFI INIT f2a4 90 .cfa: sp 0 +
STACK CFI f2a8 .cfa: sp 48 +
STACK CFI f2b4 .cfa: x29 48 + x19: .cfa -8 + ^ x20: .cfa -16 + ^ x21: .cfa -32 + ^ .ra: .cfa -40 + ^ x29: .cfa -48 + ^
STACK CFI f314 .cfa: sp 48 +
STACK CFI f320 .cfa: sp 0 +
STACK CFI f324 .cfa: sp 48 +
STACK CFI f330 .cfa: sp 0 +
STACK CFI INIT f334 90 .cfa: sp 0 +
STACK CFI f338 .cfa: sp 48 +
STACK CFI f344 .cfa: x29 48 + x19: .cfa -8 + ^ x20: .cfa -16 + ^ x21: .cfa -24 + ^ x22: .cfa -32 + ^ .ra: .cfa -40 + ^ x29: .cfa -48 + ^
STACK CFI f3b4 .cfa: sp 48 +
STACK CFI f3c0 .cfa: sp 0 +
STACK CFI INIT f46c ac .cfa: sp 0 +
STACK CFI f470 .cfa: sp 32 +
STACK CFI f478 .cfa: x29 32 + x19: .cfa -16 + ^ .ra: .cfa -24 + ^ x29: .cfa -32 + ^
STACK CFI f50c .cfa: sp 32 +
STACK CFI f514 .cfa: sp 0 +
STACK CFI INIT f998 1c .cfa: sp 0 +
STACK CFI INIT fcbc 4 .cfa: sp 0 +
STACK CFI INIT 1000c 9c .cfa: sp 0 +
STACK CFI INIT 100a8 50 .cfa: sp 0 +
STACK CFI 100ac .cfa: sp 32 +
STACK CFI 100b4 .cfa: x29 32 + x19: .cfa -16 + ^ .ra: .cfa -24 + ^ x29: .cfa -32 + ^
STACK CFI 100cc .cfa: sp 32 +
STACK CFI 100d4 .cfa: sp 0 +
STACK CFI 100d8 .cfa: x29 32 +
STACK CFI 100ec .cfa: sp 32 +
STACK CFI 100f4 .cfa: sp 0 +
STACK CFI INIT 107c8 9c .cfa: sp 0 +
STACK CFI 107cc .cfa: sp 32 +
STACK CFI 107d4 .cfa: x29 32 + x19: .cfa -8 + ^ x20: .cfa -16 + ^ .ra: .cfa -24 + ^ x29: .cfa -32 + ^
STACK CFI 10858 .cfa: sp 32 +
STACK CFI 10860 .cfa: sp 0 +
STACK CFI INIT 10864 14 .cfa: sp 0 +
STACK CFI 10868 .cfa: sp 16 +
STACK CFI 1086c .cfa: x29 16 + .ra: .cfa -8 + ^ x29: .cfa -16 + ^
STACK CFI INIT 10878 14 .cfa: sp 0 +
STACK CFI 1087c .cfa: sp 16 +
STACK CFI 10880 .cfa: x29 16 + .ra: .cfa -8 + ^ x29: .cfa -16 + ^
STACK CFI INIT 1088c c .cfa: sp 0 +
STACK CFI 10890 .cfa: sp 16 +
STACK CFI 10894 .cfa: x29 16 + .ra: .cfa -8 + ^ x29: .cfa -16 + ^
STACK CFI INIT 108e0 38 .cfa: sp 0 +
STACK CFI 108e4 .cfa: sp 32 +
STACK CFI 108ec .cfa: x29 32 + x19: .cfa -16 + ^ .ra: .cfa -24 + ^ x29: .cfa -32 + ^
STACK CFI 1090c .cfa: sp 32 +
STACK CFI 10914 .cfa: sp 0 +
STACK CFI INIT 10918 c .cfa: sp 0 +
STACK CFI 1091c .cfa: sp 16 +
STACK CFI 10920 .cfa: x29 16 + .ra: .cfa -8 + ^ x29: .cfa -16 + ^
STACK CFI INIT 10924 9c .cfa: sp 0 +
STACK CFI 10928 .cfa: sp 32 +
STACK CFI 10930 .cfa: x29 32 + x19: .cfa -8 + ^ x20: .cfa -16 + ^ .ra: .cfa -24 + ^ x29: .cfa -32 + ^
STACK CFI 109b4 .cfa: sp 32 +
STACK CFI 109bc .cfa: sp 0 +
STACK CFI INIT 109c0 4 .cfa: sp 0 +
STACK CFI INIT 10b68 a4 .cfa: sp 0 +
STACK CFI 10b6c .cfa: sp 32 +
STACK CFI 10b74 .cfa: x29 32 + x19: .cfa -8 + ^ x20: .cfa -16 + ^ .ra: .cfa -24 + ^ x29: .cfa -32 + ^
STACK CFI 10c00 .cfa: sp 32 +
STACK CFI 10c08 .cfa: sp 0 +
STACK CFI INIT 10c0c fc .cfa: sp 0 +
STACK CFI 10c10 .cfa: sp 64 +
STACK CFI 10c20 .cfa: x29 64 + x19: .cfa -8 + ^ x20: .cfa -16 + ^ x21: .cfa -24 + ^ x22: .cfa -32 + ^ x23: .cfa -48 + ^ .ra: .cfa -56 + ^ x29: .cfa -64 + ^
STACK CFI 10c84 .cfa: sp 64 +
STACK CFI 10c94 .cfa: sp 0 +
STACK CFI 10c98 .cfa: x29 64 +
STACK CFI 10cb4 .cfa: sp 64 +
STACK CFI 10cc4 .cfa: sp 0 +
STACK CFI 10cc8 .cfa: x29 64 +
STACK CFI 10cf4 .cfa: sp 64 +
STACK CFI 10d04 .cfa: sp 0 +
STACK CFI INIT 10d08 34 .cfa: sp 0 +
STACK CFI 10d0c .cfa: sp 16 +
STACK CFI 10d10 .cfa: x29 16 + .ra: .cfa -8 + ^ x29: .cfa -16 + ^
STACK CFI INIT 10d3c 24 .cfa: sp 0 +
STACK CFI 10d40 .cfa: sp 32 +
STACK CFI 10d48 .cfa: x29 32 + x19: .cfa -16 + ^ .ra: .cfa -24 + ^ x29: .cfa -32 + ^
STACK CFI 10d54 .cfa: sp 32 +
STACK CFI 10d5c .cfa: sp 0 +
STACK CFI INIT 10d60 4 .cfa: sp 0 +
STACK CFI INIT 10d64 4 .cfa: sp 0 +
STACK CFI INIT 10d68 38 .cfa: sp 0 +
STACK CFI 10d6c .cfa: sp 32 +
STACK CFI 10d74 .cfa: x29 32 + x19: .cfa -16 + ^ .ra: .cfa -24 + ^ x29: .cfa -32 + ^
STACK CFI 10d94 .cfa: sp 32 +
STACK CFI 10d9c .cfa: sp 0 +
STACK CFI INIT 10da0 18 .cfa: sp 0 +
STACK CFI INIT 10db8 4 .cfa: sp 0 +
STACK CFI INIT 10dbc 4 .cfa: sp 0 +
STACK CFI INIT 10dc0 10 .cfa: sp 0 +
STACK CFI INIT 10dd0 1c .cfa: sp 0 +
STACK CFI INIT 10dec c .cfa: sp 0 +
STACK CFI INIT 10ffc 50 .cfa: sp 0 +
STACK CFI 11000 .cfa: sp 32 +
STACK CFI 11008 .cfa: x29 32 + x19: .cfa -16 + ^ .ra: .cfa -24 + ^ x29: .cfa -32 + ^
STACK CFI 11020 .cfa: sp 32 +
STACK CFI 11028 .cfa: sp 0 +
STACK CFI 1102c .cfa: x29 32 +
STACK CFI 11040 .cfa: sp 32 +
STACK CFI 11048 .cfa: sp 0 +
STACK CFI INIT 1104c 50 .cfa: sp 0 +
STACK CFI 11050 .cfa: sp 32 +
STACK CFI 11058 .cfa: x29 32 + x19: .cfa -16 + ^ .ra: .cfa -24 + ^ x29: .cfa -32 + ^
STACK CFI 11070 .cfa: sp 32 +
STACK CFI 11078 .cfa: sp 0 +
STACK CFI 1107c .cfa: x29 32 +
STACK CFI 11090 .cfa: sp 32 +
STACK CFI 11098 .cfa: sp 0 +
STACK CFI INIT 1109c 5c .cfa: sp 0 +
STACK CFI 110a0 .cfa: sp 32 +
STACK CFI 110a8 .cfa: x29 32 + x19: .cfa -16 + ^ .ra: .cfa -24 + ^ x29: .cfa -32 + ^
STACK CFI 110cc .cfa: sp 32 +
STACK CFI 110d4 .cfa: sp 0 +
STACK CFI 110d8 .cfa: x29 32 +
STACK CFI 110ec .cfa: sp 32 +
STACK CFI 110f4 .cfa: sp 0 +
STACK CFI INIT 110f8 6c .cfa: sp 0 +
STACK CFI 110fc .cfa: sp 32 +
STACK CFI 11104 .cfa: x29 32 + x19: .cfa -8 + ^ x20: .cfa -16 + ^ .ra: .cfa -24 + ^ x29: .cfa -32 + ^
STACK CFI 11130 .cfa: sp 32 +
STACK CFI 11138 .cfa: sp 0 +
STACK CFI 1113c .cfa: x29 32 +
STACK CFI 11158 .cfa: sp 32 +
STACK CFI 11160 .cfa: sp 0 +
STACK CFI INIT 11164 58 .cfa: sp 0 +
STACK CFI 11168 .cfa: sp 32 +
STACK CFI 11170 .cfa: x29 32 + x19: .cfa -8 + ^ x20: .cfa -16 + ^ .ra: .cfa -24 + ^ x29: .cfa -32 + ^
STACK CFI 111b0 .cfa: sp 32 +
STACK CFI 111b8 .cfa: sp 0 +
STACK CFI INIT 111bc 4c .cfa: sp 0 +
STACK CFI 111c0 .cfa: sp 32 +
STACK CFI 111c8 .cfa: x29 32 + x19: .cfa -8 + ^ x20: .cfa -16 + ^ .ra: .cfa -24 + ^ x29: .cfa -32 + ^
STACK CFI 111fc .cfa: sp 32 +
STACK CFI 11204 .cfa: sp 0 +
STACK CFI INIT 11208 50 .cfa: sp 0 +
STACK CFI 1120c .cfa: sp 32 +
STACK CFI 11214 .cfa: x29 32 + x19: .cfa -16 + ^ .ra: .cfa -24 + ^ x29: .cfa -32 + ^
STACK CFI 1122c .cfa: sp 32 +
STACK CFI 11234 .cfa: sp 0 +
STACK CFI 11238 .cfa: x29 32 +
STACK CFI 1124c .cfa: sp 32 +
STACK CFI 11254 .cfa: sp 0 +
STACK CFI INIT 11258 60 .cfa: sp 0 +
STACK CFI 1125c .cfa: sp 32 +
STACK CFI 11264 .cfa: x29 32 + x19: .cfa -8 + ^ x20: .cfa -16 + ^ .ra: .cfa -24 + ^ x29: .cfa -32 + ^
STACK CFI 11284 .cfa: sp 32 +
STACK CFI 1128c .cfa: sp 0 +
STACK CFI 11290 .cfa: x29 32 +
STACK CFI 112ac .cfa: sp 32 +
STACK CFI 112b4 .cfa: sp 0 +
STACK CFI INIT 11488 1c .cfa: sp 0 +
STACK CFI INIT 114a4 c .cfa: sp 0 +
STACK CFI INIT 114b0 60 .cfa: sp 0 +
STACK CFI 114b4 .cfa: sp 32 +
STACK CFI 114bc .cfa: x29 32 + x19: .cfa -8 + ^ x20: .cfa -16 + ^ .ra: .cfa -24 + ^ x29: .cfa -32 + ^
STACK CFI 114dc .cfa: sp 32 +
STACK CFI 114e4 .cfa: sp 0 +
STACK CFI 114e8 .cfa: x29 32 +
STACK CFI 11504 .cfa: sp 32 +
STACK CFI 1150c .cfa: sp 0 +
STACK CFI INIT 11510 70 .cfa: sp 0 +
STACK CFI 11514 .cfa: sp 32 +
STACK CFI 1151c .cfa: x29 32 + x19: .cfa -8 + ^ x20: .cfa -16 + ^ .ra: .cfa -24 + ^ x29: .cfa -32 + ^
STACK CFI 11544 .cfa: sp 32 +
STACK CFI 1154c .cfa: sp 0 +
STACK CFI 11550 .cfa: x29 32 +
STACK CFI 11574 .cfa: sp 32 +
STACK CFI 1157c .cfa: sp 0 +
STACK CFI INIT 11580 5c .cfa: sp 0 +
STACK CFI 11584 .cfa: sp 32 +
STACK CFI 1158c .cfa: x29 32 + x19: .cfa -16 + ^ .ra: .cfa -24 + ^ x29: .cfa -32 + ^
STACK CFI 115b0 .cfa: sp 32 +
STACK CFI 115b8 .cfa: sp 0 +
STACK CFI 115bc .cfa: x29 32 +
STACK CFI 115d0 .cfa: sp 32 +
STACK CFI 115d8 .cfa: sp 0 +
STACK CFI INIT 115dc 6c .cfa: sp 0 +
STACK CFI 115e0 .cfa: sp 32 +
STACK CFI 115e8 .cfa: x29 32 + x19: .cfa -8 + ^ x20: .cfa -16 + ^ .ra: .cfa -24 + ^ x29: .cfa -32 + ^
STACK CFI 11614 .cfa: sp 32 +
STACK CFI 1161c .cfa: sp 0 +
STACK CFI 11620 .cfa: x29 32 +
STACK CFI 1163c .cfa: sp 32 +
STACK CFI 11644 .cfa: sp 0 +
STACK CFI INIT 11648 58 .cfa: sp 0 +
STACK CFI 1164c .cfa: sp 32 +
STACK CFI 11654 .cfa: x29 32 + x19: .cfa -8 + ^ x20: .cfa -16 + ^ .ra: .cfa -24 + ^ x29: .cfa -32 + ^
STACK CFI 11694 .cfa: sp 32 +
STACK CFI 1169c .cfa: sp 0 +
STACK CFI INIT 116a0 4c .cfa: sp 0 +
STACK CFI 116a4 .cfa: sp 32 +
STACK CFI 116ac .cfa: x29 32 + x19: .cfa -8 + ^ x20: .cfa -16 + ^ .ra: .cfa -24 + ^ x29: .cfa -32 + ^
STACK CFI 116e0 .cfa: sp 32 +
STACK CFI 116e8 .cfa: sp 0 +
STACK CFI INIT 116ec 50 .cfa: sp 0 +
STACK CFI 116f0 .cfa: sp 32 +
STACK CFI 116f8 .cfa: x29 32 + x19: .cfa -16 + ^ .ra: .cfa -24 + ^ x29: .cfa -32 + ^
STACK CFI 11710 .cfa: sp 32 +
STACK CFI 11718 .cfa: sp 0 +
STACK CFI 1171c .cfa: x29 32 +
STACK CFI 11730 .cfa: sp 32 +
STACK CFI 11738 .cfa: sp 0 +
STACK CFI INIT 1173c 60 .cfa: sp 0 +
STACK CFI 11740 .cfa: sp 32 +
STACK CFI 11748 .cfa: x29 32 + x19: .cfa -8 + ^ x20: .cfa -16 + ^ .ra: .cfa -24 + ^ x29: .cfa -32 + ^
STACK CFI 11768 .cfa: sp 32 +
STACK CFI 11770 .cfa: sp 0 +
STACK CFI 11774 .cfa: x29 32 +
STACK CFI 11790 .cfa: sp 32 +
STACK CFI 11798 .cfa: sp 0 +
STACK CFI INIT 11960 1c .cfa: sp 0 +
STACK CFI INIT 1197c c .cfa: sp 0 +
STACK CFI INIT 11988 4 .cfa: sp 0 +
STACK CFI INIT 1198c 4 .cfa: sp 0 +
STACK CFI INIT 11990 24 .cfa: sp 0 +
STACK CFI 11994 .cfa: sp 16 +
STACK CFI 11998 .cfa: x29 16 + .ra: .cfa -8 + ^ x29: .cfa -16 + ^
STACK CFI 119ac .cfa: sp 16 +
STACK CFI 119b0 .cfa: sp 0 +
STACK CFI INIT 119b4 10 .cfa: sp 0 +
STACK CFI INIT 119c4 4 .cfa: sp 0 +
STACK CFI INIT 119c8 4 .cfa: sp 0 +
STACK CFI INIT 12310 1c .cfa: sp 0 +
STACK CFI INIT 1232c c .cfa: sp 0 +
STACK CFI INIT 12494 14 .cfa: sp 0 +
STACK CFI 12498 .cfa: sp 16 +
STACK CFI 1249c .cfa: x29 16 + .ra: .cfa -8 + ^ x29: .cfa -16 + ^
STACK CFI INIT 12610 4 .cfa: sp 0 +
STACK CFI INIT 12614 14 .cfa: sp 0 +
STACK CFI INIT 12628 4 .cfa: sp 0 +
STACK CFI INIT 1262c 14 .cfa: sp 0 +
STACK CFI INIT 12640 14 .cfa: sp 0 +
STACK CFI INIT 12654 14 .cfa: sp 0 +
STACK CFI INIT 12668 8 .cfa: sp 0 +
STACK CFI INIT 12670 14 .cfa: sp 0 +
STACK CFI INIT 12684 18 .cfa: sp 0 +
STACK CFI INIT 1269c 130 .cfa: sp 0 +
STACK CFI 126a0 .cfa: sp 64 +
STACK CFI 126b0 .cfa: x29 64 + x19: .cfa -8 + ^ x20: .cfa -16 + ^ x21: .cfa -24 + ^ x22: .cfa -32 + ^ x23: .cfa -48 + ^ .ra: .cfa -56 + ^ x29: .cfa -64 + ^
STACK CFI 127b0 .cfa: sp 64 +
STACK CFI 127c0 .cfa: sp 0 +
STACK CFI 127c4 .cfa: x29 64 +
STACK CFI INIT 127cc 1c .cfa: sp 0 +
STACK CFI INIT 127e8 3c .cfa: sp 0 +
STACK CFI 127ec .cfa: sp 32 +
STACK CFI 127f4 .cfa: x29 32 + x19: .cfa -16 + ^ .ra: .cfa -24 + ^ x29: .cfa -32 + ^
STACK CFI 12800 .cfa: sp 32 +
STACK CFI 12808 .cfa: sp 0 +
STACK CFI 1280c .cfa: x29 32 +
STACK CFI 12818 .cfa: sp 32 +
STACK CFI 12820 .cfa: sp 0 +
STACK CFI INIT c5a0 480 .cfa: sp 0 +
STACK CFI c5a4 .cfa: sp 224 +
STACK CFI c5c0 .cfa: x29 96 + x19: .cfa -8 + ^ x20: .cfa -16 + ^ x21: .cfa -24 + ^ x22: .cfa -32 + ^ x23: .cfa -40 + ^ x24: .cfa -48 + ^ x25: .cfa -56 + ^ x26: .cfa -64 + ^ x27: .cfa -80 + ^ .ra: .cfa -88 + ^ x29: .cfa -96 + ^
STACK CFI c82c .cfa: sp 224 +
STACK CFI c848 .cfa: sp 0 +
STACK CFI c84c .cfa: x29 96 +
STACK CFI c918 .cfa: sp 224 +
STACK CFI c934 .cfa: sp 0 +
STACK CFI c938 .cfa: x29 96 +
STACK CFI INIT ca3c 340 .cfa: sp 0 +
STACK CFI ca40 .cfa: sp 240 +
STACK CFI ca54 .cfa: x29 64 + x19: .cfa -8 + ^ x20: .cfa -16 + ^ x21: .cfa -24 + ^ x22: .cfa -32 + ^ x23: .cfa -48 + ^ .ra: .cfa -56 + ^ x29: .cfa -64 + ^
STACK CFI cc64 .cfa: sp 240 +
STACK CFI cc78 .cfa: sp 0 +
STACK CFI cc7c .cfa: x29 64 +
STACK CFI INIT cdcc 74 .cfa: sp 0 +
STACK CFI cdd0 .cfa: sp 48 +
STACK CFI cddc .cfa: x29 32 + x19: .cfa -8 + ^ x20: .cfa -16 + ^ .ra: .cfa -24 + ^ x29: .cfa -32 + ^
STACK CFI ce28 .cfa: sp 48 +
STACK CFI ce34 .cfa: sp 0 +
STACK CFI ce38 .cfa: x29 32 +
STACK CFI INIT ced0 154 .cfa: sp 0 +
STACK CFI ced4 .cfa: sp 384 +
STACK CFI cee8 .cfa: x29 64 + x19: .cfa -8 + ^ x20: .cfa -16 + ^ x21: .cfa -24 + ^ x22: .cfa -32 + ^ x23: .cfa -40 + ^ x28: .cfa -48 + ^ .ra: .cfa -56 + ^ x29: .cfa -64 + ^
STACK CFI cfcc .cfa: sp 384 +
STACK CFI cfe0 .cfa: sp 0 +
STACK CFI cfe4 .cfa: x29 64 +
STACK CFI INIT d058 12c .cfa: sp 0 +
STACK CFI d05c .cfa: sp 80 +
STACK CFI d070 .cfa: x29 80 + x19: .cfa -8 + ^ x20: .cfa -16 + ^ x21: .cfa -24 + ^ x22: .cfa -32 + ^ x23: .cfa -40 + ^ x24: .cfa -48 + ^ x25: .cfa -56 + ^ x26: .cfa -64 + ^ .ra: .cfa -72 + ^ x29: .cfa -80 + ^
STACK CFI d138 .cfa: sp 80 +
STACK CFI d14c .cfa: sp 0 +
STACK CFI d150 .cfa: x29 80 +
STACK CFI INIT d228 1a4 .cfa: sp 0 +
STACK CFI d22c .cfa: sp 112 +
STACK CFI d244 .cfa: x29 80 + x19: .cfa -8 + ^ x20: .cfa -16 + ^ x21: .cfa -24 + ^ x22: .cfa -32 + ^ x23: .cfa -40 + ^ x24: .cfa -48 + ^ x25: .cfa -56 + ^ x26: .cfa -64 + ^ .ra: .cfa -72 + ^ x29: .cfa -80 + ^
STACK CFI d334 .cfa: sp 112 +
STACK CFI d34c .cfa: sp 0 +
STACK CFI d350 .cfa: x29 80 +
STACK CFI INIT d3cc 1dc .cfa: sp 0 +
STACK CFI d3d0 .cfa: sp 128 +
STACK CFI d3ec .cfa: x29 96 + x19: .cfa -8 + ^ x20: .cfa -16 + ^ x21: .cfa -24 + ^ x22: .cfa -32 + ^ x23: .cfa -40 + ^ x24: .cfa -48 + ^ x25: .cfa -56 + ^ x26: .cfa -64 + ^ x27: .cfa -80 + ^ .ra: .cfa -88 + ^ x29: .cfa -96 + ^
STACK CFI d558 .cfa: sp 128 +
STACK CFI d574 .cfa: sp 0 +
STACK CFI d578 .cfa: x29 96 +
STACK CFI INIT d5bc 50 .cfa: sp 0 +
STACK CFI d5c0 .cfa: sp 32 +
STACK CFI d5c8 .cfa: x29 32 + x19: .cfa -8 + ^ x20: .cfa -16 + ^ .ra: .cfa -24 + ^ x29: .cfa -32 + ^
STACK CFI INIT d670 178 .cfa: sp 0 +
STACK CFI d674 .cfa: sp 80 +
STACK CFI d688 .cfa: x29 80 + x19: .cfa -8 + ^ x20: .cfa -16 + ^ x21: .cfa -24 + ^ x22: .cfa -32 + ^ x23: .cfa -40 + ^ x24: .cfa -48 + ^ x25: .cfa -64 + ^ .ra: .cfa -72 + ^ x29: .cfa -80 + ^
STACK CFI d7b4 .cfa: sp 80 +
STACK CFI d7c8 .cfa: sp 0 +
STACK CFI d7cc .cfa: x29 80 +
STACK CFI INIT d930 228 .cfa: sp 0 +
STACK CFI d934 .cfa: sp 128 +
STACK CFI d94c .cfa: x29 80 + x19: .cfa -8 + ^ x20: .cfa -16 + ^ x21: .cfa -24 + ^ x22: .cfa -32 + ^ x23: .cfa -40 + ^ x24: .cfa -48 + ^ x25: .cfa -64 + ^ .ra: .cfa -72 + ^ x29: .cfa -80 + ^
STACK CFI dae8 .cfa: sp 128 +
STACK CFI db00 .cfa: sp 0 +
STACK CFI db04 .cfa: x29 80 +
STACK CFI INIT e764 480 .cfa: sp 0 +
STACK CFI e768 .cfa: sp 224 +
STACK CFI e784 .cfa: x29 96 + x19: .cfa -8 + ^ x20: .cfa -16 + ^ x21: .cfa -24 + ^ x22: .cfa -32 + ^ x23: .cfa -40 + ^ x24: .cfa -48 + ^ x25: .cfa -56 + ^ x26: .cfa -64 + ^ x27: .cfa -80 + ^ .ra: .cfa -88 + ^ x29: .cfa -96 + ^
STACK CFI e9f0 .cfa: sp 224 +
STACK CFI ea0c .cfa: sp 0 +
STACK CFI ea10 .cfa: x29 96 +
STACK CFI eadc .cfa: sp 224 +
STACK CFI eaf8 .cfa: sp 0 +
STACK CFI eafc .cfa: x29 96 +
STACK CFI INIT ec00 6a0 .cfa: sp 0 +
STACK CFI ec04 .cfa: sp 288 +
STACK CFI ec20 .cfa: x29 96 + x19: .cfa -8 + ^ x20: .cfa -16 + ^ x21: .cfa -24 + ^ x22: .cfa -32 + ^ x23: .cfa -40 + ^ x24: .cfa -48 + ^ x25: .cfa -56 + ^ x26: .cfa -64 + ^ x28: .cfa -80 + ^ .ra: .cfa -88 + ^ x29: .cfa -96 + ^
STACK CFI f0ac .cfa: sp 288 +
STACK CFI f0c8 .cfa: sp 0 +
STACK CFI f0cc .cfa: x29 96 +
STACK CFI INIT f3c4 a8 .cfa: sp 0 +
STACK CFI f3c8 .cfa: sp 32 +
STACK CFI f3d0 .cfa: x29 32 + x19: .cfa -16 + ^ .ra: .cfa -24 + ^ x29: .cfa -32 + ^
STACK CFI f404 .cfa: sp 32 +
STACK CFI f40c .cfa: sp 0 +
STACK CFI f410 .cfa: x29 32 +
STACK CFI f414 .cfa: sp 32 +
STACK CFI f41c .cfa: sp 0 +
STACK CFI f420 .cfa: x29 32 +
STACK CFI INIT f518 480 .cfa: sp 0 +
STACK CFI f51c .cfa: sp 224 +
STACK CFI f538 .cfa: x29 96 + x19: .cfa -8 + ^ x20: .cfa -16 + ^ x21: .cfa -24 + ^ x22: .cfa -32 + ^ x23: .cfa -40 + ^ x24: .cfa -48 + ^ x25: .cfa -56 + ^ x26: .cfa -64 + ^ x27: .cfa -80 + ^ .ra: .cfa -88 + ^ x29: .cfa -96 + ^
STACK CFI f7a4 .cfa: sp 224 +
STACK CFI f7c0 .cfa: sp 0 +
STACK CFI f7c4 .cfa: x29 96 +
STACK CFI f890 .cfa: sp 224 +
STACK CFI f8ac .cfa: sp 0 +
STACK CFI f8b0 .cfa: x29 96 +
STACK CFI INIT f9b4 308 .cfa: sp 0 +
STACK CFI f9b8 .cfa: sp 176 +
STACK CFI f9cc .cfa: x29 64 + x19: .cfa -8 + ^ x20: .cfa -16 + ^ x21: .cfa -24 + ^ x22: .cfa -32 + ^ x23: .cfa -48 + ^ .ra: .cfa -56 + ^ x29: .cfa -64 + ^
STACK CFI fbb4 .cfa: sp 176 +
STACK CFI fbc8 .cfa: sp 0 +
STACK CFI fbcc .cfa: x29 64 +
STACK CFI INIT fcc0 2a4 .cfa: sp 0 +
STACK CFI fcc4 .cfa: sp 208 +
STACK CFI fcdc .cfa: x29 80 + x19: .cfa -8 + ^ x20: .cfa -16 + ^ x21: .cfa -24 + ^ x22: .cfa -32 + ^ x23: .cfa -40 + ^ x24: .cfa -48 + ^ x25: .cfa -64 + ^ .ra: .cfa -72 + ^ x29: .cfa -80 + ^
STACK CFI ff08 .cfa: sp 208 +
STACK CFI ff20 .cfa: sp 0 +
STACK CFI ff24 .cfa: x29 80 +
STACK CFI INIT ff64 a8 .cfa: sp 0 +
STACK CFI ff68 .cfa: sp 32 +
STACK CFI ff70 .cfa: x29 32 + x19: .cfa -16 + ^ .ra: .cfa -24 + ^ x29: .cfa -32 + ^
STACK CFI ffa4 .cfa: sp 32 +
STACK CFI ffac .cfa: sp 0 +
STACK CFI ffb0 .cfa: x29 32 +
STACK CFI ffb4 .cfa: sp 32 +
STACK CFI ffbc .cfa: sp 0 +
STACK CFI ffc0 .cfa: x29 32 +
STACK CFI INIT 100f8 6d0 .cfa: sp 0 +
STACK CFI 100fc .cfa: sp 224 +
STACK CFI 10118 .cfa: x29 96 + x19: .cfa -8 + ^ x20: .cfa -16 + ^ x21: .cfa -24 + ^ x22: .cfa -32 + ^ x23: .cfa -40 + ^ x24: .cfa -48 + ^ x25: .cfa -56 + ^ x26: .cfa -64 + ^ x27: .cfa -72 + ^ x28: .cfa -80 + ^ .ra: .cfa -88 + ^ x29: .cfa -96 + ^
STACK CFI 10600 .cfa: sp 224 +
STACK CFI 1061c .cfa: sp 0 +
STACK CFI 10620 .cfa: x29 96 +
STACK CFI INIT 10898 48 .cfa: sp 0 +
STACK CFI 1089c .cfa: sp 32 +
STACK CFI 108a4 .cfa: x29 32 + x19: .cfa -8 + ^ x20: .cfa -16 + ^ .ra: .cfa -24 + ^ x29: .cfa -32 + ^
STACK CFI INIT 109c4 1a4 .cfa: sp 0 +
STACK CFI 109c8 .cfa: sp 128 +
STACK CFI 109d8 .cfa: x29 48 + x19: .cfa -8 + ^ x20: .cfa -16 + ^ x21: .cfa -24 + ^ x22: .cfa -32 + ^ .ra: .cfa -40 + ^ x29: .cfa -48 + ^
STACK CFI 10aec .cfa: sp 128 +
STACK CFI 10afc .cfa: sp 0 +
STACK CFI 10b00 .cfa: x29 48 +
STACK CFI INIT 10df8 204 .cfa: sp 0 +
STACK CFI 10dfc .cfa: sp 128 +
STACK CFI 10e10 .cfa: x29 64 + x19: .cfa -8 + ^ x20: .cfa -16 + ^ x21: .cfa -24 + ^ x22: .cfa -32 + ^ x23: .cfa -40 + ^ x24: .cfa -48 + ^ .ra: .cfa -56 + ^ x29: .cfa -64 + ^
STACK CFI 10f34 .cfa: sp 128 +
STACK CFI 10f48 .cfa: sp 0 +
STACK CFI 10f4c .cfa: x29 64 +
STACK CFI INIT 112b8 1d0 .cfa: sp 0 +
STACK CFI 112bc .cfa: sp 128 +
STACK CFI 112d0 .cfa: x29 64 + x19: .cfa -8 + ^ x20: .cfa -16 + ^ x21: .cfa -24 + ^ x22: .cfa -32 + ^ x23: .cfa -48 + ^ .ra: .cfa -56 + ^ x29: .cfa -64 + ^
STACK CFI 11448 .cfa: sp 128 +
STACK CFI 1145c .cfa: sp 0 +
STACK CFI 11460 .cfa: x29 64 +
STACK CFI INIT 1179c 1c4 .cfa: sp 0 +
STACK CFI 117a0 .cfa: sp 112 +
STACK CFI 117b0 .cfa: x29 48 + x19: .cfa -8 + ^ x20: .cfa -16 + ^ x21: .cfa -24 + ^ x22: .cfa -32 + ^ .ra: .cfa -40 + ^ x29: .cfa -48 + ^
STACK CFI 11924 .cfa: sp 112 +
STACK CFI 11934 .cfa: sp 0 +
STACK CFI 11938 .cfa: x29 48 +
STACK CFI INIT 119cc 944 .cfa: sp 0 +
STACK CFI 119d0 .cfa: sp 400 +
STACK CFI 119ec .cfa: x29 96 + x19: .cfa -8 + ^ x20: .cfa -16 + ^ x21: .cfa -24 + ^ x22: .cfa -32 + ^ x23: .cfa -40 + ^ x24: .cfa -48 + ^ x25: .cfa -56 + ^ x26: .cfa -64 + ^ x27: .cfa -72 + ^ x28: .cfa -80 + ^ .ra: .cfa -88 + ^ x29: .cfa -96 + ^
STACK CFI 12080 .cfa: sp 400 +
STACK CFI 1209c .cfa: sp 0 +
STACK CFI 120a0 .cfa: x29 96 +
STACK CFI INIT 12338 74 .cfa: sp 0 +
STACK CFI 1233c .cfa: sp 48 +
STACK CFI 12348 .cfa: x29 32 + x19: .cfa -8 + ^ x20: .cfa -16 + ^ .ra: .cfa -24 + ^ x29: .cfa -32 + ^
STACK CFI 12394 .cfa: sp 48 +
STACK CFI 123a0 .cfa: sp 0 +
STACK CFI 123a4 .cfa: x29 32 +
STACK CFI INIT 123ac 74 .cfa: sp 0 +
STACK CFI 123b0 .cfa: sp 48 +
STACK CFI 123bc .cfa: x29 32 + x19: .cfa -8 + ^ x20: .cfa -16 + ^ .ra: .cfa -24 + ^ x29: .cfa -32 + ^
STACK CFI 12408 .cfa: sp 48 +
STACK CFI 12414 .cfa: sp 0 +
STACK CFI 12418 .cfa: x29 32 +
STACK CFI INIT 12420 74 .cfa: sp 0 +
STACK CFI 12424 .cfa: sp 48 +
STACK CFI 12430 .cfa: x29 32 + x19: .cfa -8 + ^ x20: .cfa -16 + ^ .ra: .cfa -24 + ^ x29: .cfa -32 + ^
STACK CFI 1247c .cfa: sp 48 +
STACK CFI 12488 .cfa: sp 0 +
STACK CFI 1248c .cfa: x29 32 +
STACK CFI INIT 124a8 168 .cfa: sp 0 +
STACK CFI 124ac .cfa: sp 384 +
STACK CFI 124c0 .cfa: x29 64 + x19: .cfa -8 + ^ x20: .cfa -16 + ^ x21: .cfa -24 + ^ x22: .cfa -32 + ^ x23: .cfa -40 + ^ x28: .cfa -48 + ^ .ra: .cfa -56 + ^ x29: .cfa -64 + ^
STACK CFI 125b8 .cfa: sp 384 +
STACK CFI 125cc .cfa: sp 0 +
STACK CFI 125d0 .cfa: x29 64 +
