MODULE Linux arm 61FE076B2B82B7C457180B01AF8799100 jumbonova.better_comment_section.android32.so
INFO CODE_ID 6B07FE61822BC4B757180B01AF8799105D09C0F7
INFO GENERATOR mozilla/dump_syms 2.3.4
PUBLIC 5760 0 __on_dlclose
PUBLIC 5770 0 __emutls_unregister_key
PUBLIC 5774 0 __on_dlclose_late
PUBLIC 5778 0 __atexit_handler_wrapper
PUBLIC 5784 0 atexit
PUBLIC 57a4 0 pthread_atfork
FUNC 57b4 644 0 __cxx_global_var_init
FUNC 5df8 1c 0 geode::modifier::ModifyBase<geode::modifier::ModifyDerive<hook6<(anonymous namespace)::hook6Parent>, CommentCell> >::~ModifyBase()
FUNC 5e20 47c 0 geode::modifier::ModifyDerive<hook6<(anonymous namespace)::hook6Parent>, CommentCell>::apply()
FUNC 629c 3a 0 std::__ndk1::shared_ptr<geode::Hook>::~shared_ptr[abi:ne190000]()
FUNC 62d8 60 0 geode::impl::ResultData<geode::Hook*, std::__ndk1::basic_string<char, std::__ndk1::char_traits<char>, std::__ndk1::allocator<char> > >::~ResultData()
FUNC 6338 3e 0 std::__ndk1::vector<std::__ndk1::basic_string<char, std::__ndk1::char_traits<char>, std::__ndk1::allocator<char> >, std::__ndk1::allocator<std::__ndk1::basic_string<char, std::__ndk1::char_traits<char>, std::__ndk1::allocator<char> > > >::~vector[abi:ne190000]()
FUNC 6376 2 0 geode::modifier::ModifyBase<geode::modifier::ModifyDerive<hook6<(anonymous namespace)::hook6Parent>, CommentCell> >::apply()
PUBLIC 6379 0 __clang_call_terminate
FUNC 6384 4e0 0 _ZN5geode15UnwrapExceptionC2IRPNS_4HookEQsr4implE18IsStringStreamableIT_EEENS_4impl5OkTagEOS5_
FUNC 6864 34 0 std::__ndk1::__throw_bad_variant_access[abi:ne190000]()
FUNC 6898 68 0 std::__ndk1::basic_stringstream<char, std::__ndk1::char_traits<char>, std::__ndk1::allocator<char> >::~basic_stringstream()
FUNC 6900 10 0 geode::UnwrapException::~UnwrapException()
FUNC 6910 10 0 std::__ndk1::basic_string<char, std::__ndk1::char_traits<char>, std::__ndk1::allocator<char> >::__throw_length_error[abi:ne190000]() const
FUNC 6920 38 0 std::__ndk1::__throw_length_error[abi:ne190000](char const*)
FUNC 6958 18 0 std::length_error::length_error[abi:ne190000](char const*)
FUNC 6970 28 0 std::__throw_bad_array_new_length([abi:ne190000], void)
FUNC 6998 60 0 std::__ndk1::basic_string<char, std::__ndk1::char_traits<char>, std::__ndk1::allocator<char> >::__erase_external_with_move(unsigned int, unsigned int)
FUNC 69f8 34 0 std::__ndk1::__throw_out_of_range[abi:ne190000](char const*)
FUNC 6a2c 20 0 std::out_of_range::out_of_range[abi:ne190000](char const*)
FUNC 6a4c 11c 0 std::__ndk1::vector<std::__ndk1::basic_string<char, std::__ndk1::char_traits<char>, std::__ndk1::allocator<char> >, std::__ndk1::allocator<std::__ndk1::basic_string<char, std::__ndk1::char_traits<char>, std::__ndk1::allocator<char> > > >::__push_back_slow_path<std::__ndk1::basic_string<char, std::__ndk1::char_traits<char>, std::__ndk1::allocator<char> > const&>(std::__ndk1::basic_string<char, std::__ndk1::char_traits<char>, std::__ndk1::allocator<char> > const&)
FUNC 6b68 44 0 std::__ndk1::basic_string<char, std::__ndk1::char_traits<char>, std::__ndk1::allocator<char> >::__init_copy_ctor_external(char const*, unsigned int)
FUNC 6bac 3c 0 std::__ndk1::__split_buffer<std::__ndk1::basic_string<char, std::__ndk1::char_traits<char>, std::__ndk1::allocator<char> >, std::__ndk1::allocator<std::__ndk1::basic_string<char, std::__ndk1::char_traits<char>, std::__ndk1::allocator<char> > >&>::~__split_buffer()
FUNC 6be8 10 0 std::__ndk1::vector<std::__ndk1::basic_string<char, std::__ndk1::char_traits<char>, std::__ndk1::allocator<char> >, std::__ndk1::allocator<std::__ndk1::basic_string<char, std::__ndk1::char_traits<char>, std::__ndk1::allocator<char> > > >::__throw_length_error[abi:ne190000]() const
FUNC 6bf8 2 0 std::__ndk1::__variant_detail::__visitation::__base::__dispatcher<(unsigned int)0>::__dispatch[abi:ne190000]<std::__ndk1::__variant_detail::__dtor<std::__ndk1::__variant_detail::__traits<geode::Hook*, std::__ndk1::basic_string<char, std::__ndk1::char_traits<char>, std::__ndk1::allocator<char> > >, (std::__ndk1::__variant_detail::_Trait)1>::__destroy[abi:ne190000]()::{lambda(auto:1&)#1}, std::__ndk1::__variant_detail::__base<(std::__ndk1::__variant_detail::__traits<geode::Hook*, std::__ndk1::basic_string<char, std::__ndk1::char_traits<char>, std::__ndk1::allocator<char> > >)1, geode::Hook, std::__ndk1::allocator<char> >&>(std::__ndk1::__variant_detail::__dtor<std::__ndk1::__variant_detail::__traits<geode::Hook*, std::__ndk1::basic_string<char, std::__ndk1::char_traits<char>, std::__ndk1::allocator<char> > >, (std::__ndk1::__variant_detail::_Trait)1>, std::__ndk1::__variant_detail::__base<(std::__ndk1::__variant_detail::__traits<geode::Hook*, std::__ndk1::basic_string<char, std::__ndk1::char_traits<char>, std::__ndk1::allocator<char> > >)1, geode::Hook, std::__ndk1::allocator<char> >&)
FUNC 6bfa e 0 std::__ndk1::__variant_detail::__visitation::__base::__dispatcher<(unsigned int)1>::__dispatch[abi:ne190000]<std::__ndk1::__variant_detail::__dtor<std::__ndk1::__variant_detail::__traits<geode::Hook*, std::__ndk1::basic_string<char, std::__ndk1::char_traits<char>, std::__ndk1::allocator<char> > >, (std::__ndk1::__variant_detail::_Trait)1>::__destroy[abi:ne190000]()::{lambda(auto:1&)#1}, std::__ndk1::__variant_detail::__base<(std::__ndk1::__variant_detail::__traits<geode::Hook*, std::__ndk1::basic_string<char, std::__ndk1::char_traits<char>, std::__ndk1::allocator<char> > >)1, geode::Hook, std::__ndk1::allocator<char> >&>(std::__ndk1::__variant_detail::__dtor<std::__ndk1::__variant_detail::__traits<geode::Hook*, std::__ndk1::basic_string<char, std::__ndk1::char_traits<char>, std::__ndk1::allocator<char> > >, (std::__ndk1::__variant_detail::_Trait)1>, std::__ndk1::__variant_detail::__base<(std::__ndk1::__variant_detail::__traits<geode::Hook*, std::__ndk1::basic_string<char, std::__ndk1::char_traits<char>, std::__ndk1::allocator<char> > >)1, geode::Hook, std::__ndk1::allocator<char> >&)
FUNC 6c08 5a 0 std::__ndk1::__tree<std::__ndk1::__value_type<std::__ndk1::basic_string<char, std::__ndk1::char_traits<char>, std::__ndk1::allocator<char> >, std::__ndk1::shared_ptr<geode::Hook> >, std::__ndk1::__map_value_compare<std::__ndk1::basic_string<char, std::__ndk1::char_traits<char>, std::__ndk1::allocator<char> >, std::__ndk1::__value_type<std::__ndk1::basic_string<char, std::__ndk1::char_traits<char>, std::__ndk1::allocator<char> >, std::__ndk1::shared_ptr<geode::Hook> >, std::__ndk1::less<std::__ndk1::basic_string<char, std::__ndk1::char_traits<char>, std::__ndk1::allocator<char> > >, true>, std::__ndk1::allocator<std::__ndk1::__value_type<std::__ndk1::basic_string<char, std::__ndk1::char_traits<char>, std::__ndk1::allocator<char> >, std::__ndk1::shared_ptr<geode::Hook> > > >::destroy(std::__ndk1::__tree_node<std::__ndk1::__value_type<std::__ndk1::basic_string<char, std::__ndk1::char_traits<char>, std::__ndk1::allocator<char> >, std::__ndk1::shared_ptr<geode::Hook> >, void*>*)
FUNC 6c64 440 0 geode::modifier::AsStaticFunction_loadFromComment<hook6<(anonymous namespace)::hook6Parent>, void (hook6<(anonymous namespace)::hook6Parent>::*)(GJComment*)>::Impl<void (hook6<(anonymous namespace)::hook6Parent>::*)(GJComment*)>::function(hook6<(anonymous namespace)::hook6Parent>*, GJComment*)
FUNC 70a4 3a 0 std::__ndk1::shared_ptr<tulip::hook::CallingConvention>::~shared_ptr[abi:ne190000]()
FUNC 70de 46 0 tulip::hook::HandlerMetadata::~HandlerMetadata()
FUNC 7124 408 0 geode::modifier::FieldIntermediate<hook6<(anonymous namespace)::hook6Parent>, CommentCell>::operator->()
FUNC 752c ec 0 geode::Mod::getSettingValue<bool>(std::__ndk1::basic_string_view<char, std::__ndk1::char_traits<char> >) const
FUNC 7618 584 0 hook6<(anonymous namespace)::hook6Parent>::hideCommentFromText(std::__ndk1::basic_string_view<char, std::__ndk1::char_traits<char> >, std::__ndk1::basic_regex<char, std::__ndk1::regex_traits<char> > const&)
FUNC 7b9c 80 0 std::__ndk1::basic_regex<char, std::__ndk1::regex_traits<char> >::basic_regex[abi:ne190000](char const*, std::__ndk1::regex_constants::syntax_option_type)
FUNC 7c1c 44 0 std::__ndk1::basic_regex<char, std::__ndk1::regex_traits<char> >::~basic_regex()
FUNC 7c60 e 0 geode::modifier::FieldIntermediate<hook6<(anonymous namespace)::hook6Parent>, CommentCell>::fieldDestructor(void*)
FUNC 7c70 10 0 std::__ndk1::vector<void*, std::__ndk1::allocator<void*> >::__throw_length_error[abi:ne190000]() const
FUNC 7c80 10 0 std::__ndk1::vector<std::__ndk1::function<void (void*)>, std::__ndk1::allocator<std::__ndk1::function<void (void*)> > >::__throw_length_error[abi:ne190000]() const
FUNC 7c90 8 0 std::__ndk1::vector<void*, std::__ndk1::allocator<void*> >::__throw_out_of_range[abi:ne190000]() const
FUNC 7c98 8 0 std::__ndk1::vector<std::__ndk1::function<void (void*)>, std::__ndk1::allocator<std::__ndk1::function<void (void*)> > >::__throw_out_of_range[abi:ne190000]() const
FUNC 7ca0 2 0 std::__ndk1::__function::__base<void (void*)>::~__base()
FUNC 7ca2 4 0 std::__ndk1::__function::__func<void (*)(void*), std::__ndk1::allocator<void (*)(void*)>, void (void*)>::~__func()
FUNC 7ca8 20 0 std::__ndk1::__function::__func<void (*)(void*), std::__ndk1::allocator<void (*)(void*)>, void (void*)>::__clone() const
FUNC 7cc8 14 0 std::__ndk1::__function::__func<void (*)(void*), std::__ndk1::allocator<void (*)(void*)>, void (void*)>::__clone(std::__ndk1::__function::__base<void (void*)>*) const
FUNC 7cdc 2 0 std::__ndk1::__function::__func<void (*)(void*), std::__ndk1::allocator<void (*)(void*)>, void (void*)>::destroy()
FUNC 7cde 4 0 std::__ndk1::__function::__func<void (*)(void*), std::__ndk1::allocator<void (*)(void*)>, void (void*)>::destroy_deallocate()
FUNC 7ce2 8 0 std::__ndk1::__function::__func<void (*)(void*), std::__ndk1::allocator<void (*)(void*)>, void (void*)>::operator()(void*&&)
FUNC 7cec 18 0 std::__ndk1::__function::__func<void (*)(void*), std::__ndk1::allocator<void (*)(void*)>, void (void*)>::target(std::type_info const&) const
FUNC 7d04 c 0 std::__ndk1::__function::__func<void (*)(void*), std::__ndk1::allocator<void (*)(void*)>, void (void*)>::target_type() const
FUNC 7d10 c6 0 std::__ndk1::basic_string<char, std::__ndk1::char_traits<char>, std::__ndk1::allocator<char> >::__assign_external(char const*, unsigned int)
FUNC 7dd8 8c 0 geode::cast::traverseTypeinfoFor(void*, geode::cast::ClassTypeinfoType const*, char const*)
FUNC 7e64 122 0 std::__ndk1::vector<std::__ndk1::sub_match<char const*>, std::__ndk1::allocator<std::__ndk1::sub_match<char const*> > >::assign(unsigned int, std::__ndk1::sub_match<char const*> const&)
FUNC 7f88 2f8 0 std::__ndk1::basic_regex<char, std::__ndk1::regex_traits<char> >::__match_at_start_ecma<std::__ndk1::allocator<std::__ndk1::sub_match<char const*> > >(char const*, char const*, std::__ndk1::match_results<char const*, std::__ndk1::allocator<std::__ndk1::sub_match<char const*> > >&, std::__ndk1::regex_constants::match_flag_type, bool) const
FUNC 8280 89c 0 std::__ndk1::basic_regex<char, std::__ndk1::regex_traits<char> >::__match_at_start_posix_nosubs<std::__ndk1::allocator<std::__ndk1::sub_match<char const*> > >(char const*, char const*, std::__ndk1::match_results<char const*, std::__ndk1::allocator<std::__ndk1::sub_match<char const*> > >&, std::__ndk1::regex_constants::match_flag_type, bool) const
FUNC 8b1c 72c 0 std::__ndk1::basic_regex<char, std::__ndk1::regex_traits<char> >::__match_at_start_posix_subs<std::__ndk1::allocator<std::__ndk1::sub_match<char const*> > >(char const*, char const*, std::__ndk1::match_results<char const*, std::__ndk1::allocator<std::__ndk1::sub_match<char const*> > >&, std::__ndk1::regex_constants::match_flag_type, bool) const
FUNC 9248 22 0 std::__ndk1::__state<char>::~__state()
FUNC 926c 38 0 std::__ndk1::__throw_regex_error[abi:ne190000]<(std::__ndk1::regex_constants::error_type)12>()
FUNC 92a4 10c 0 std::__ndk1::__state<char>::__state(std::__ndk1::__state<char> const&)
FUNC 93b0 38 0 std::__ndk1::__throw_regex_error[abi:ne190000]<(std::__ndk1::regex_constants::error_type)16>()
FUNC 93e8 4c 0 std::__ndk1::vector<std::__ndk1::__state<char>, std::__ndk1::allocator<std::__ndk1::__state<char> > >::~vector[abi:ne190000]()
FUNC 9434 174 0 std::__ndk1::vector<std::__ndk1::__state<char>, std::__ndk1::allocator<std::__ndk1::__state<char> > >::__push_back_slow_path<std::__ndk1::__state<char> >(std::__ndk1::__state<char>&&)
FUNC 95a8 10 0 std::__ndk1::vector<std::__ndk1::__state<char>, std::__ndk1::allocator<std::__ndk1::__state<char> > >::__throw_length_error[abi:ne190000]() const
FUNC 95b8 10e 0 std::__ndk1::vector<std::__ndk1::sub_match<char const*>, std::__ndk1::allocator<std::__ndk1::sub_match<char const*> > >::__append(unsigned int, std::__ndk1::sub_match<char const*> const&)
FUNC 96c8 10 0 std::__ndk1::vector<std::__ndk1::sub_match<char const*>, std::__ndk1::allocator<std::__ndk1::sub_match<char const*> > >::__throw_length_error[abi:ne190000]() const
FUNC 96d8 c0 0 std::__ndk1::vector<std::__ndk1::pair<unsigned int, char const*>, std::__ndk1::allocator<std::__ndk1::pair<unsigned int, char const*> > >::__append(unsigned int)
FUNC 9798 10 0 std::__ndk1::vector<std::__ndk1::pair<unsigned int, char const*>, std::__ndk1::allocator<std::__ndk1::pair<unsigned int, char const*> > >::__throw_length_error[abi:ne190000]() const
FUNC 97a8 10a 0 std::__ndk1::deque<std::__ndk1::__state<char>, std::__ndk1::allocator<std::__ndk1::__state<char> > >::~deque[abi:ne190000]()
FUNC 98b4 430 0 std::__ndk1::deque<std::__ndk1::__state<char>, std::__ndk1::allocator<std::__ndk1::__state<char> > >::__add_back_capacity()
FUNC 9ce4 120 0 std::__ndk1::__split_buffer<std::__ndk1::__state<char>*, std::__ndk1::allocator<std::__ndk1::__state<char>*> >::push_back(std::__ndk1::__state<char>*&&)
FUNC 9e04 11e 0 std::__ndk1::__split_buffer<std::__ndk1::__state<char>*, std::__ndk1::allocator<std::__ndk1::__state<char>*> >::push_front(std::__ndk1::__state<char>*&&)
FUNC 9f22 11e 0 std::__ndk1::__split_buffer<std::__ndk1::__state<char>*, std::__ndk1::allocator<std::__ndk1::__state<char>*> >::push_front(std::__ndk1::__state<char>* const&)
FUNC a040 10 0 std::__ndk1::vector<std::__ndk1::sub_match<std::__ndk1::__wrap_iter<char const*> >, std::__ndk1::allocator<std::__ndk1::sub_match<std::__ndk1::__wrap_iter<char const*> > > >::__throw_length_error[abi:ne190000]() const
FUNC a050 3a 0 std::__ndk1::shared_ptr<std::__ndk1::__empty_state<char> >::~shared_ptr[abi:ne190000]()
FUNC a08c 470 0 std::__ndk1::basic_regex<char, std::__ndk1::regex_traits<char> >::__parse<char const*>(char const*, char const*)
FUNC a4fc 38 0 std::__ndk1::__throw_regex_error[abi:ne190000]<(std::__ndk1::regex_constants::error_type)17>()
FUNC a534 180 0 std::__ndk1::basic_regex<char, std::__ndk1::regex_traits<char> >::__parse_ecma_exp<char const*>(char const*, char const*)
FUNC a6b4 f4 0 std::__ndk1::basic_regex<char, std::__ndk1::regex_traits<char> >::__parse_basic_reg_exp<char const*>(char const*, char const*)
FUNC a7a8 f8 0 std::__ndk1::basic_regex<char, std::__ndk1::regex_traits<char> >::__parse_extended_reg_exp<char const*>(char const*, char const*)
FUNC a8a0 38 0 std::__ndk1::__throw_regex_error[abi:ne190000]<(std::__ndk1::regex_constants::error_type)14>()
FUNC a8d8 4 0 std::__ndk1::__end_state<char>::~__end_state()
FUNC a8dc c 0 std::__ndk1::__end_state<char>::__exec(std::__ndk1::__state<char>&) const
FUNC a8e8 2 0 std::__ndk1::__node<char>::__exec_split(bool, std::__ndk1::__state<char>&) const
FUNC a8ea 2 0 std::__ndk1::__node<char>::__exec(std::__ndk1::__state<char>&) const
FUNC a8ec 10 0 std::__ndk1::__shared_ptr_pointer<std::__ndk1::__empty_state<char>*, std::__ndk1::shared_ptr<std::__ndk1::__empty_state<char> >::__shared_ptr_default_delete<std::__ndk1::__empty_state<char>, std::__ndk1::__empty_state<char> >, std::__ndk1::allocator<std::__ndk1::__empty_state<char> > >::~__shared_ptr_pointer()
FUNC a8fc e 0 std::__ndk1::__shared_ptr_pointer<std::__ndk1::__empty_state<char>*, std::__ndk1::shared_ptr<std::__ndk1::__empty_state<char> >::__shared_ptr_default_delete<std::__ndk1::__empty_state<char>, std::__ndk1::__empty_state<char> >, std::__ndk1::allocator<std::__ndk1::__empty_state<char> > >::__on_zero_shared()
FUNC a90c 1c 0 std::__ndk1::__shared_ptr_pointer<std::__ndk1::__empty_state<char>*, std::__ndk1::shared_ptr<std::__ndk1::__empty_state<char> >::__shared_ptr_default_delete<std::__ndk1::__empty_state<char>, std::__ndk1::__empty_state<char> >, std::__ndk1::allocator<std::__ndk1::__empty_state<char> > >::__get_deleter(std::type_info const&) const
FUNC a928 4 0 std::__ndk1::__shared_ptr_pointer<std::__ndk1::__empty_state<char>*, std::__ndk1::shared_ptr<std::__ndk1::__empty_state<char> >::__shared_ptr_default_delete<std::__ndk1::__empty_state<char>, std::__ndk1::__empty_state<char> >, std::__ndk1::allocator<std::__ndk1::__empty_state<char> > >::__on_zero_shared_weak()
FUNC a92c 30 0 std::__ndk1::__empty_state<char>::~__empty_state()
FUNC a95c 10 0 std::__ndk1::__empty_state<char>::__exec(std::__ndk1::__state<char>&) const
FUNC a96c 30 0 std::__ndk1::__owns_one_state<char>::~__owns_one_state()
FUNC a99c 208 0 std::__ndk1::basic_regex<char, std::__ndk1::regex_traits<char> >::__parse_assertion<char const*>(char const*, char const*)
FUNC aba4 490 0 std::__ndk1::basic_regex<char, std::__ndk1::regex_traits<char> >::__parse_atom<char const*>(char const*, char const*)
FUNC b034 24e 0 std::__ndk1::basic_regex<char, std::__ndk1::regex_traits<char> >::__parse_ERE_dupl_symbol<char const*>(char const*, char const*, std::__ndk1::__owns_one_state<char>*, unsigned int, unsigned int)
FUNC b284 50 0 std::__ndk1::basic_regex<char, std::__ndk1::regex_traits<char> >::basic_regex[abi:ne190000]()
FUNC b2d4 84 0 std::__ndk1::basic_regex<char, std::__ndk1::regex_traits<char> >::__push_lookahead(std::__ndk1::basic_regex<char, std::__ndk1::regex_traits<char> > const&, bool, unsigned int)
FUNC b358 38 0 std::__ndk1::__throw_regex_error[abi:ne190000]<(std::__ndk1::regex_constants::error_type)6>()
FUNC b390 30 0 std::__ndk1::__l_anchor_multiline<char>::~__l_anchor_multiline()
FUNC b3c0 48 0 std::__ndk1::__l_anchor_multiline<char>::__exec(std::__ndk1::__state<char>&) const
FUNC b408 30 0 std::__ndk1::__r_anchor_multiline<char>::~__r_anchor_multiline()
FUNC b438 3a 0 std::__ndk1::__r_anchor_multiline<char>::__exec(std::__ndk1::__state<char>&) const
FUNC b474 3c 0 std::__ndk1::__word_boundary<char, std::__ndk1::regex_traits<char> >::~__word_boundary()
FUNC b4b0 40 0 std::__ndk1::__word_boundary<char, std::__ndk1::regex_traits<char> >::~__word_boundary()
FUNC b4f0 d6 0 std::__ndk1::__word_boundary<char, std::__ndk1::regex_traits<char> >::__exec(std::__ndk1::__state<char>&) const
FUNC b5c8 74 0 std::__ndk1::__lookahead<char, std::__ndk1::regex_traits<char> >::~__lookahead()
FUNC b63c 7c 0 std::__ndk1::__lookahead<char, std::__ndk1::regex_traits<char> >::~__lookahead()
FUNC b6b8 164 0 std::__ndk1::__lookahead<char, std::__ndk1::regex_traits<char> >::__exec(std::__ndk1::__state<char>&) const
FUNC b81c 9a8 0 std::__ndk1::basic_regex<char, std::__ndk1::regex_traits<char> >::__parse_bracket_expression<char const*>(char const*, char const*)
FUNC c1c4 38 0 std::__ndk1::__throw_regex_error[abi:ne190000]<(std::__ndk1::regex_constants::error_type)11>()
FUNC c1fc 30 0 std::__ndk1::__match_any_but_newline<char>::~__match_any_but_newline()
FUNC c22c 38 0 std::__ndk1::__throw_regex_error[abi:ne190000]<(std::__ndk1::regex_constants::error_type)3>()
FUNC c264 35e 0 std::__ndk1::basic_regex<char, std::__ndk1::regex_traits<char> >::__parse_character_escape<char const*>(char const*, char const*, std::__ndk1::basic_string<char, std::__ndk1::char_traits<char>, std::__ndk1::allocator<char> >*)
FUNC c5c4 e4 0 std::__ndk1::basic_regex<char, std::__ndk1::regex_traits<char> >::__push_char(char)
FUNC c6a8 38 0 std::__ndk1::__throw_regex_error[abi:ne190000]<(std::__ndk1::regex_constants::error_type)4>()
FUNC c6e0 88 0 std::__ndk1::basic_regex<char, std::__ndk1::regex_traits<char> >::__push_back_ref(int)
FUNC c768 3c 0 std::__ndk1::__match_char_icase<char, std::__ndk1::regex_traits<char> >::~__match_char_icase()
FUNC c7a4 40 0 std::__ndk1::__match_char_icase<char, std::__ndk1::regex_traits<char> >::~__match_char_icase()
FUNC c7e4 42 0 std::__ndk1::__match_char_icase<char, std::__ndk1::regex_traits<char> >::__exec(std::__ndk1::__state<char>&) const
FUNC c828 3c 0 std::__ndk1::__match_char_collate<char, std::__ndk1::regex_traits<char> >::~__match_char_collate()
FUNC c864 40 0 std::__ndk1::__match_char_collate<char, std::__ndk1::regex_traits<char> >::~__match_char_collate()
FUNC c8a4 32 0 std::__ndk1::__match_char_collate<char, std::__ndk1::regex_traits<char> >::__exec(std::__ndk1::__state<char>&) const
FUNC c8d8 30 0 std::__ndk1::__match_char<char>::~__match_char()
FUNC c908 32 0 std::__ndk1::__match_char<char>::__exec(std::__ndk1::__state<char>&) const
FUNC c93c 3c 0 std::__ndk1::__back_ref_icase<char, std::__ndk1::regex_traits<char> >::~__back_ref_icase()
FUNC c978 40 0 std::__ndk1::__back_ref_icase<char, std::__ndk1::regex_traits<char> >::~__back_ref_icase()
FUNC c9b8 8e 0 std::__ndk1::__back_ref_icase<char, std::__ndk1::regex_traits<char> >::__exec(std::__ndk1::__state<char>&) const
FUNC ca48 3c 0 std::__ndk1::__back_ref_collate<char, std::__ndk1::regex_traits<char> >::~__back_ref_collate()
FUNC ca84 40 0 std::__ndk1::__back_ref_collate<char, std::__ndk1::regex_traits<char> >::~__back_ref_collate()
FUNC cac4 6c 0 std::__ndk1::__back_ref_collate<char, std::__ndk1::regex_traits<char> >::__exec(std::__ndk1::__state<char>&) const
FUNC cb30 30 0 std::__ndk1::__back_ref<char>::~__back_ref()
FUNC cb60 7a 0 std::__ndk1::__back_ref<char>::__exec(std::__ndk1::__state<char>&) const
FUNC cbda 126 0 std::__ndk1::__bracket_expression<char, std::__ndk1::regex_traits<char> >::__add_char[abi:ne190000](char)
FUNC cd00 138 0 std::__ndk1::__bracket_expression<char, std::__ndk1::regex_traits<char> >::__bracket_expression[abi:ne190000](std::__ndk1::regex_traits<char> const&, std::__ndk1::__node<char>*, bool, bool, bool)
FUNC ce38 54 0 std::__ndk1::vector<std::__ndk1::pair<std::__ndk1::basic_string<char, std::__ndk1::char_traits<char>, std::__ndk1::allocator<char> >, std::__ndk1::basic_string<char, std::__ndk1::char_traits<char>, std::__ndk1::allocator<char> > >, std::__ndk1::allocator<std::__ndk1::pair<std::__ndk1::basic_string<char, std::__ndk1::char_traits<char>, std::__ndk1::allocator<char> >, std::__ndk1::basic_string<char, std::__ndk1::char_traits<char>, std::__ndk1::allocator<char> > > > >::~vector[abi:ne190000]()
FUNC ce8c f4 0 std::__ndk1::__bracket_expression<char, std::__ndk1::regex_traits<char> >::~__bracket_expression()
FUNC cf80 10 0 std::__ndk1::__bracket_expression<char, std::__ndk1::regex_traits<char> >::~__bracket_expression()
FUNC cf90 940 0 std::__ndk1::__bracket_expression<char, std::__ndk1::regex_traits<char> >::__exec(std::__ndk1::__state<char>&) const
FUNC d8d0 22 0 std::__ndk1::pair<std::__ndk1::basic_string<char, std::__ndk1::char_traits<char>, std::__ndk1::allocator<char> >, std::__ndk1::basic_string<char, std::__ndk1::char_traits<char>, std::__ndk1::allocator<char> > >::~pair()
FUNC d8f2 64 0 std::__ndk1::basic_string<char, std::__ndk1::char_traits<char>, std::__ndk1::allocator<char> >::__assign_no_alias<true>(char const*, unsigned int)
FUNC d956 a4 0 std::__ndk1::basic_string<char, std::__ndk1::char_traits<char>, std::__ndk1::allocator<char> >::__assign_no_alias<false>(char const*, unsigned int)
FUNC d9fc 118 0 std::__ndk1::regex_traits<char>::__transform_primary<char*>(char*, char*, char) const
FUNC db14 10 0 std::__ndk1::vector<char, std::__ndk1::allocator<char> >::__throw_length_error[abi:ne190000]() const
FUNC db24 38 0 std::__ndk1::__throw_regex_error[abi:ne190000]<(std::__ndk1::regex_constants::error_type)5>()
FUNC db5c a0 0 std::__ndk1::basic_regex<char, std::__ndk1::regex_traits<char> >::__parse_collating_symbol<char const*>(char const*, char const*, std::__ndk1::basic_string<char, std::__ndk1::char_traits<char>, std::__ndk1::allocator<char> >&)
FUNC dbfc 212 0 std::__ndk1::basic_regex<char, std::__ndk1::regex_traits<char> >::__parse_class_escape<char const*>(char const*, char const*, std::__ndk1::basic_string<char, std::__ndk1::char_traits<char>, std::__ndk1::allocator<char> >&, std::__ndk1::__bracket_expression<char, std::__ndk1::regex_traits<char> >*)
FUNC de10 292 0 std::__ndk1::basic_regex<char, std::__ndk1::regex_traits<char> >::__parse_awk_escape<char const*>(char const*, char const*, std::__ndk1::basic_string<char, std::__ndk1::char_traits<char>, std::__ndk1::allocator<char> >*)
FUNC e0a2 14c 0 std::__ndk1::__bracket_expression<char, std::__ndk1::regex_traits<char> >::__add_digraph[abi:ne190000](char, char)
FUNC e1f0 38 0 std::__ndk1::__throw_regex_error[abi:ne190000]<(std::__ndk1::regex_constants::error_type)1>()
FUNC e228 1c4 0 std::__ndk1::regex_traits<char>::__lookup_collatename<char const*>(char const*, char const*, char) const
FUNC e3ec 38 0 std::__ndk1::__throw_regex_error[abi:ne190000]<(std::__ndk1::regex_constants::error_type)2>()
FUNC e424 108 0 std::__ndk1::regex_traits<char>::transform<std::__ndk1::__wrap_iter<char*> >(std::__ndk1::__wrap_iter<char*>, std::__ndk1::__wrap_iter<char*>) const
FUNC e52c 38 0 std::__ndk1::__throw_regex_error[abi:ne190000]<(std::__ndk1::regex_constants::error_type)9>()
FUNC e564 124 0 std::__ndk1::vector<std::__ndk1::pair<std::__ndk1::basic_string<char, std::__ndk1::char_traits<char>, std::__ndk1::allocator<char> >, std::__ndk1::basic_string<char, std::__ndk1::char_traits<char>, std::__ndk1::allocator<char> > >, std::__ndk1::allocator<std::__ndk1::pair<std::__ndk1::basic_string<char, std::__ndk1::char_traits<char>, std::__ndk1::allocator<char> >, std::__ndk1::basic_string<char, std::__ndk1::char_traits<char>, std::__ndk1::allocator<char> > > > >::__push_back_slow_path<std::__ndk1::pair<std::__ndk1::basic_string<char, std::__ndk1::char_traits<char>, std::__ndk1::allocator<char> >, std::__ndk1::basic_string<char, std::__ndk1::char_traits<char>, std::__ndk1::allocator<char> > > >(std::__ndk1::pair<std::__ndk1::basic_string<char, std::__ndk1::char_traits<char>, std::__ndk1::allocator<char> >, std::__ndk1::basic_string<char, std::__ndk1::char_traits<char>, std::__ndk1::allocator<char> > >&&)
FUNC e688 10 0 std::__ndk1::vector<std::__ndk1::pair<std::__ndk1::basic_string<char, std::__ndk1::char_traits<char>, std::__ndk1::allocator<char> >, std::__ndk1::basic_string<char, std::__ndk1::char_traits<char>, std::__ndk1::allocator<char> > >, std::__ndk1::allocator<std::__ndk1::pair<std::__ndk1::basic_string<char, std::__ndk1::char_traits<char>, std::__ndk1::allocator<char> >, std::__ndk1::basic_string<char, std::__ndk1::char_traits<char>, std::__ndk1::allocator<char> > > > >::__throw_length_error[abi:ne190000]() const
FUNC e698 10 0 std::__ndk1::vector<std::__ndk1::pair<char, char>, std::__ndk1::allocator<std::__ndk1::pair<char, char> > >::__throw_length_error[abi:ne190000]() const
FUNC e6a8 30 0 std::__ndk1::__begin_marked_subexpression<char>::~__begin_marked_subexpression()
FUNC e6d8 28 0 std::__ndk1::__begin_marked_subexpression<char>::__exec(std::__ndk1::__state<char>&) const
FUNC e700 30 0 std::__ndk1::__end_marked_subexpression<char>::~__end_marked_subexpression()
FUNC e730 2e 0 std::__ndk1::__end_marked_subexpression<char>::__exec(std::__ndk1::__state<char>&) const
FUNC e760 dc 0 std::__ndk1::basic_regex<char, std::__ndk1::regex_traits<char> >::__push_loop(unsigned int, unsigned int, std::__ndk1::__owns_one_state<char>*, unsigned int, unsigned int, bool)
FUNC e83c 38 0 std::__ndk1::__throw_regex_error[abi:ne190000]<(std::__ndk1::regex_constants::error_type)8>()
FUNC e874 38 0 std::__ndk1::__throw_regex_error[abi:ne190000]<(std::__ndk1::regex_constants::error_type)7>()
FUNC e8ac 44 0 std::__ndk1::__loop<char>::~__loop()
FUNC e8f0 100 0 std::__ndk1::__loop<char>::__exec(std::__ndk1::__state<char>&) const
FUNC e9f0 5c 0 std::__ndk1::__loop<char>::__exec_split(bool, std::__ndk1::__state<char>&) const
FUNC ea4c 44 0 std::__ndk1::__owns_two_states<char>::~__owns_two_states()
FUNC ea90 4 0 std::__ndk1::__repeat_one_loop<char>::~__repeat_one_loop()
FUNC ea94 10 0 std::__ndk1::__repeat_one_loop<char>::__exec(std::__ndk1::__state<char>&) const
FUNC eaa4 40 0 std::__ndk1::__owns_two_states<char>::~__owns_two_states()
FUNC eae4 44 0 std::__ndk1::__alternate<char>::~__alternate()
FUNC eb28 c 0 std::__ndk1::__alternate<char>::__exec(std::__ndk1::__state<char>&) const
FUNC eb34 18 0 std::__ndk1::__alternate<char>::__exec_split(bool, std::__ndk1::__state<char>&) const
FUNC eb4c 2 0 std::__ndk1::__node<char>::~__node()
FUNC eb4e 4 0 std::__ndk1::__empty_non_own_state<char>::~__empty_non_own_state()
FUNC eb52 10 0 std::__ndk1::__empty_non_own_state<char>::__exec(std::__ndk1::__state<char>&) const
FUNC eb64 38 0 std::__ndk1::__throw_regex_error[abi:ne190000]<(std::__ndk1::regex_constants::error_type)15>()
FUNC eb9c 208 0 std::__ndk1::basic_regex<char, std::__ndk1::regex_traits<char> >::__parse_nondupl_RE<char const*>(char const*, char const*)
FUNC eda4 182 0 std::__ndk1::basic_regex<char, std::__ndk1::regex_traits<char> >::__parse_RE_dupl_symbol<char const*>(char const*, char const*, std::__ndk1::__owns_one_state<char>*, unsigned int, unsigned int)
FUNC ef28 2c 0 std::__ndk1::__owns_one_state<char>::~__owns_one_state()
FUNC ef54 30 0 std::__ndk1::__match_any<char>::~__match_any()
FUNC ef84 2e 0 std::__ndk1::__match_any<char>::__exec(std::__ndk1::__state<char>&) const
FUNC efb2 34 0 std::__ndk1::basic_regex<char, std::__ndk1::regex_traits<char> >::__test_back_ref(char)
FUNC efe8 2e8 0 std::__ndk1::basic_regex<char, std::__ndk1::regex_traits<char> >::__parse_ERE_expression<char const*>(char const*, char const*)
FUNC f2d0 20 0 geode::getMod()
FUNC f2f0 20 0 geodeImplicitEntry
PUBLIC f311 0 __ThumbV7PILongThunk__ZdlPv
PUBLIC f31d 0 __ThumbV7PILongThunk__ZN11CommentCell15loadFromCommentEP9GJComment
PUBLIC f329 0 __ThumbV7PILongThunk__ZNSt6__ndk16localeD1Ev
PUBLIC f340 0 <.plt ELF section in jumbonova.better_comment_section.android32.so>
STACK CFI INIT 57b4 644 .cfa: sp 0 +
STACK CFI 57b6 .cfa: sp 20 + .ra: .cfa -4 + ^ r7: .cfa -8 + ^ r6: .cfa -12 + ^ r5: .cfa -16 + ^ r4: .cfa -20 + ^
STACK CFI 57b8 .cfa: r7 8 +
STACK CFI 57bc r11: .cfa -24 + ^ r10: .cfa -28 + ^ r9: .cfa -32 + ^ r8: .cfa -36 + ^
STACK CFI INIT 5df8 1c .cfa: sp 0 +
STACK CFI 5dfa .cfa: sp 16 + .ra: .cfa -4 + ^ r7: .cfa -8 + ^ r6: .cfa -12 + ^ r4: .cfa -16 + ^
STACK CFI 5dfc .cfa: r7 8 +
STACK CFI INIT 5e20 47c .cfa: sp 0 +
STACK CFI 5e22 .cfa: sp 20 + .ra: .cfa -4 + ^ r7: .cfa -8 + ^ r6: .cfa -12 + ^ r5: .cfa -16 + ^ r4: .cfa -20 + ^
STACK CFI 5e24 .cfa: r7 8 +
STACK CFI 5e28 r11: .cfa -24 + ^ r10: .cfa -28 + ^ r9: .cfa -32 + ^ r8: .cfa -36 + ^
STACK CFI INIT 629c 3a .cfa: sp 0 +
STACK CFI 629e .cfa: sp 16 + .ra: .cfa -4 + ^ r7: .cfa -8 + ^ r5: .cfa -12 + ^ r4: .cfa -16 + ^
STACK CFI 62a0 .cfa: r7 8 +
STACK CFI INIT 62d8 60 .cfa: sp 0 +
STACK CFI 62da .cfa: sp 16 + .ra: .cfa -4 + ^ r7: .cfa -8 + ^ r6: .cfa -12 + ^ r4: .cfa -16 + ^
STACK CFI 62dc .cfa: r7 8 +
STACK CFI INIT 6338 3e .cfa: sp 0 +
STACK CFI 633a .cfa: sp 20 + .ra: .cfa -4 + ^ r7: .cfa -8 + ^ r6: .cfa -12 + ^ r5: .cfa -16 + ^ r4: .cfa -20 + ^
STACK CFI 633c .cfa: r7 8 +
STACK CFI 6340 r11: .cfa -24 + ^
STACK CFI INIT 6376 2 .cfa: sp 0 +
STACK CFI INIT 6378 c .cfa: sp 0 +
STACK CFI 637a .cfa: sp 8 + .ra: .cfa -4 + ^ r7: .cfa -8 + ^
STACK CFI 637c .cfa: r7 8 +
STACK CFI INIT 6384 4e0 .cfa: sp 0 +
STACK CFI 6386 .cfa: sp 20 + .ra: .cfa -4 + ^ r7: .cfa -8 + ^ r6: .cfa -12 + ^ r5: .cfa -16 + ^ r4: .cfa -20 + ^
STACK CFI 6388 .cfa: r7 8 +
STACK CFI 638c r11: .cfa -24 + ^ r10: .cfa -28 + ^ r9: .cfa -32 + ^ r8: .cfa -36 + ^
STACK CFI INIT 6864 34 .cfa: sp 0 +
STACK CFI 6866 .cfa: sp 8 + .ra: .cfa -4 + ^ r7: .cfa -8 + ^
STACK CFI 6868 .cfa: r7 8 +
STACK CFI INIT 6898 68 .cfa: sp 0 +
STACK CFI 689a .cfa: sp 20 + .ra: .cfa -4 + ^ r7: .cfa -8 + ^ r6: .cfa -12 + ^ r5: .cfa -16 + ^ r4: .cfa -20 + ^
STACK CFI 689c .cfa: r7 8 +
STACK CFI 68a0 r11: .cfa -24 + ^
STACK CFI INIT 6900 10 .cfa: sp 0 +
STACK CFI 6902 .cfa: sp 8 + .ra: .cfa -4 + ^ r7: .cfa -8 + ^
STACK CFI 6904 .cfa: r7 8 +
STACK CFI INIT 6910 10 .cfa: sp 0 +
STACK CFI 6912 .cfa: sp 8 + .ra: .cfa -4 + ^ r7: .cfa -8 + ^
STACK CFI 6914 .cfa: r7 8 +
STACK CFI INIT 6920 38 .cfa: sp 0 +
STACK CFI 6922 .cfa: sp 16 + .ra: .cfa -4 + ^ r7: .cfa -8 + ^ r5: .cfa -12 + ^ r4: .cfa -16 + ^
STACK CFI 6924 .cfa: r7 8 +
STACK CFI INIT 6958 18 .cfa: sp 0 +
STACK CFI 695a .cfa: sp 8 + .ra: .cfa -4 + ^ r7: .cfa -8 + ^
STACK CFI 695c .cfa: r7 8 +
STACK CFI INIT 6970 28 .cfa: sp 0 +
STACK CFI 6972 .cfa: sp 8 + .ra: .cfa -4 + ^ r7: .cfa -8 + ^
STACK CFI 6974 .cfa: r7 8 +
STACK CFI INIT 6998 60 .cfa: sp 0 +
STACK CFI 69a0 .cfa: sp 20 + .ra: .cfa -4 + ^ r7: .cfa -8 + ^ r6: .cfa -12 + ^ r5: .cfa -16 + ^ r4: .cfa -20 + ^
STACK CFI 69a2 .cfa: r7 8 +
STACK CFI 69a6 r8: .cfa -24 + ^
STACK CFI INIT 69f8 34 .cfa: sp 0 +
STACK CFI 69fa .cfa: sp 16 + .ra: .cfa -4 + ^ r7: .cfa -8 + ^ r6: .cfa -12 + ^ r4: .cfa -16 + ^
STACK CFI 69fc .cfa: r7 8 +
STACK CFI INIT 6a2c 20 .cfa: sp 0 +
STACK CFI 6a2e .cfa: sp 8 + .ra: .cfa -4 + ^ r7: .cfa -8 + ^
STACK CFI 6a30 .cfa: r7 8 +
STACK CFI INIT 6a4c 11c .cfa: sp 0 +
STACK CFI 6a4e .cfa: sp 20 + .ra: .cfa -4 + ^ r7: .cfa -8 + ^ r6: .cfa -12 + ^ r5: .cfa -16 + ^ r4: .cfa -20 + ^
STACK CFI 6a50 .cfa: r7 8 +
STACK CFI 6a54 r11: .cfa -24 + ^ r10: .cfa -28 + ^ r9: .cfa -32 + ^ r8: .cfa -36 + ^
STACK CFI INIT 6b68 44 .cfa: sp 0 +
STACK CFI 6b6a .cfa: sp 20 + .ra: .cfa -4 + ^ r7: .cfa -8 + ^ r6: .cfa -12 + ^ r5: .cfa -16 + ^ r4: .cfa -20 + ^
STACK CFI 6b6c .cfa: r7 8 +
STACK CFI 6b70 r8: .cfa -24 + ^
STACK CFI INIT 6bac 3c .cfa: sp 0 +
STACK CFI 6bae .cfa: sp 16 + .ra: .cfa -4 + ^ r7: .cfa -8 + ^ r5: .cfa -12 + ^ r4: .cfa -16 + ^
STACK CFI 6bb0 .cfa: r7 8 +
STACK CFI INIT 6be8 10 .cfa: sp 0 +
STACK CFI 6bea .cfa: sp 8 + .ra: .cfa -4 + ^ r7: .cfa -8 + ^
STACK CFI 6bec .cfa: r7 8 +
STACK CFI INIT 6bf8 2 .cfa: sp 0 +
STACK CFI INIT 6bfa e .cfa: sp 0 +
STACK CFI INIT 6c08 5a .cfa: sp 0 +
STACK CFI 6c10 .cfa: sp 16 + .ra: .cfa -4 + ^ r7: .cfa -8 + ^ r5: .cfa -12 + ^ r4: .cfa -16 + ^
STACK CFI 6c12 .cfa: r7 8 +
STACK CFI INIT 6c64 440 .cfa: sp 0 +
STACK CFI 6c66 .cfa: sp 20 + .ra: .cfa -4 + ^ r7: .cfa -8 + ^ r6: .cfa -12 + ^ r5: .cfa -16 + ^ r4: .cfa -20 + ^
STACK CFI 6c68 .cfa: r7 8 +
STACK CFI 6c6c r11: .cfa -24 + ^ r10: .cfa -28 + ^ r9: .cfa -32 + ^ r8: .cfa -36 + ^
STACK CFI INIT 70a4 3a .cfa: sp 0 +
STACK CFI 70a6 .cfa: sp 16 + .ra: .cfa -4 + ^ r7: .cfa -8 + ^ r5: .cfa -12 + ^ r4: .cfa -16 + ^
STACK CFI 70a8 .cfa: r7 8 +
STACK CFI INIT 70de 46 .cfa: sp 0 +
STACK CFI 70e0 .cfa: sp 16 + .ra: .cfa -4 + ^ r7: .cfa -8 + ^ r5: .cfa -12 + ^ r4: .cfa -16 + ^
STACK CFI 70e2 .cfa: r7 8 +
STACK CFI INIT 7124 408 .cfa: sp 0 +
STACK CFI 7126 .cfa: sp 20 + .ra: .cfa -4 + ^ r7: .cfa -8 + ^ r6: .cfa -12 + ^ r5: .cfa -16 + ^ r4: .cfa -20 + ^
STACK CFI 7128 .cfa: r7 8 +
STACK CFI 712c r11: .cfa -24 + ^ r10: .cfa -28 + ^ r9: .cfa -32 + ^ r8: .cfa -36 + ^
STACK CFI INIT 752c ec .cfa: sp 0 +
STACK CFI 752e .cfa: sp 20 + .ra: .cfa -4 + ^ r7: .cfa -8 + ^ r6: .cfa -12 + ^ r5: .cfa -16 + ^ r4: .cfa -20 + ^
STACK CFI 7530 .cfa: r7 8 +
STACK CFI 7534 r11: .cfa -24 + ^
STACK CFI INIT 7618 584 .cfa: sp 0 +
STACK CFI 761a .cfa: sp 20 + .ra: .cfa -4 + ^ r7: .cfa -8 + ^ r6: .cfa -12 + ^ r5: .cfa -16 + ^ r4: .cfa -20 + ^
STACK CFI 761c .cfa: r7 8 +
STACK CFI 7620 r11: .cfa -24 + ^ r10: .cfa -28 + ^ r9: .cfa -32 + ^ r8: .cfa -36 + ^
STACK CFI INIT 7b9c 80 .cfa: sp 0 +
STACK CFI 7b9e .cfa: sp 20 + .ra: .cfa -4 + ^ r7: .cfa -8 + ^ r6: .cfa -12 + ^ r5: .cfa -16 + ^ r4: .cfa -20 + ^
STACK CFI 7ba0 .cfa: r7 8 +
STACK CFI 7ba4 r8: .cfa -24 + ^
STACK CFI INIT 7c1c 44 .cfa: sp 0 +
STACK CFI 7c1e .cfa: sp 16 + .ra: .cfa -4 + ^ r7: .cfa -8 + ^ r5: .cfa -12 + ^ r4: .cfa -16 + ^
STACK CFI 7c20 .cfa: r7 8 +
STACK CFI INIT 7c60 e .cfa: sp 0 +
STACK CFI INIT 7c70 10 .cfa: sp 0 +
STACK CFI 7c72 .cfa: sp 8 + .ra: .cfa -4 + ^ r7: .cfa -8 + ^
STACK CFI 7c74 .cfa: r7 8 +
STACK CFI INIT 7c80 10 .cfa: sp 0 +
STACK CFI 7c82 .cfa: sp 8 + .ra: .cfa -4 + ^ r7: .cfa -8 + ^
STACK CFI 7c84 .cfa: r7 8 +
STACK CFI INIT 7c90 8 .cfa: sp 0 +
STACK CFI 7c92 .cfa: sp 8 + .ra: .cfa -4 + ^ r7: .cfa -8 + ^
STACK CFI 7c94 .cfa: r7 8 +
STACK CFI INIT 7c98 8 .cfa: sp 0 +
STACK CFI 7c9a .cfa: sp 8 + .ra: .cfa -4 + ^ r7: .cfa -8 + ^
STACK CFI 7c9c .cfa: r7 8 +
STACK CFI INIT 7ca0 2 .cfa: sp 0 +
STACK CFI INIT 7ca2 4 .cfa: sp 0 +
STACK CFI INIT 7ca8 20 .cfa: sp 0 +
STACK CFI 7caa .cfa: sp 16 + .ra: .cfa -4 + ^ r7: .cfa -8 + ^ r6: .cfa -12 + ^ r4: .cfa -16 + ^
STACK CFI 7cac .cfa: r7 8 +
STACK CFI INIT 7cc8 14 .cfa: sp 0 +
STACK CFI INIT 7cdc 2 .cfa: sp 0 +
STACK CFI INIT 7cde 4 .cfa: sp 0 +
STACK CFI INIT 7ce2 8 .cfa: sp 0 +
STACK CFI INIT 7cec 18 .cfa: sp 0 +
STACK CFI INIT 7d04 c .cfa: sp 0 +
STACK CFI INIT 7d10 c6 .cfa: sp 0 +
STACK CFI 7d12 .cfa: sp 20 + .ra: .cfa -4 + ^ r7: .cfa -8 + ^ r6: .cfa -12 + ^ r5: .cfa -16 + ^ r4: .cfa -20 + ^
STACK CFI 7d14 .cfa: r7 8 +
STACK CFI 7d18 r11: .cfa -24 + ^ r10: .cfa -28 + ^ r9: .cfa -32 + ^ r8: .cfa -36 + ^
STACK CFI INIT 7dd8 8c .cfa: sp 0 +
STACK CFI 7dda .cfa: sp 20 + .ra: .cfa -4 + ^ r7: .cfa -8 + ^ r6: .cfa -12 + ^ r5: .cfa -16 + ^ r4: .cfa -20 + ^
STACK CFI 7ddc .cfa: r7 8 +
STACK CFI 7de0 r11: .cfa -24 + ^ r9: .cfa -28 + ^ r8: .cfa -32 + ^
STACK CFI INIT 7e64 122 .cfa: sp 0 +
STACK CFI 7e66 .cfa: sp 20 + .ra: .cfa -4 + ^ r7: .cfa -8 + ^ r6: .cfa -12 + ^ r5: .cfa -16 + ^ r4: .cfa -20 + ^
STACK CFI 7e68 .cfa: r7 8 +
STACK CFI 7e6c r10: .cfa -24 + ^ r9: .cfa -28 + ^ r8: .cfa -32 + ^
STACK CFI INIT 7f88 2f8 .cfa: sp 0 +
STACK CFI 7f8a .cfa: sp 20 + .ra: .cfa -4 + ^ r7: .cfa -8 + ^ r6: .cfa -12 + ^ r5: .cfa -16 + ^ r4: .cfa -20 + ^
STACK CFI 7f8c .cfa: r7 8 +
STACK CFI 7f90 r11: .cfa -24 + ^ r10: .cfa -28 + ^ r9: .cfa -32 + ^ r8: .cfa -36 + ^
STACK CFI INIT 8280 89c .cfa: sp 0 +
STACK CFI 8282 .cfa: sp 20 + .ra: .cfa -4 + ^ r7: .cfa -8 + ^ r6: .cfa -12 + ^ r5: .cfa -16 + ^ r4: .cfa -20 + ^
STACK CFI 8284 .cfa: r7 8 +
STACK CFI 8288 r11: .cfa -24 + ^ r10: .cfa -28 + ^ r9: .cfa -32 + ^ r8: .cfa -36 + ^
STACK CFI INIT 8b1c 72c .cfa: sp 0 +
STACK CFI 8b1e .cfa: sp 20 + .ra: .cfa -4 + ^ r7: .cfa -8 + ^ r6: .cfa -12 + ^ r5: .cfa -16 + ^ r4: .cfa -20 + ^
STACK CFI 8b20 .cfa: r7 8 +
STACK CFI 8b24 r11: .cfa -24 + ^ r10: .cfa -28 + ^ r9: .cfa -32 + ^ r8: .cfa -36 + ^
STACK CFI INIT 9248 22 .cfa: sp 0 +
STACK CFI 924a .cfa: sp 16 + .ra: .cfa -4 + ^ r7: .cfa -8 + ^ r6: .cfa -12 + ^ r4: .cfa -16 + ^
STACK CFI 924c .cfa: r7 8 +
STACK CFI INIT 926c 38 .cfa: sp 0 +
STACK CFI 926e .cfa: sp 16 + .ra: .cfa -4 + ^ r7: .cfa -8 + ^ r6: .cfa -12 + ^ r4: .cfa -16 + ^
STACK CFI 9270 .cfa: r7 8 +
STACK CFI INIT 92a4 10c .cfa: sp 0 +
STACK CFI 92a6 .cfa: sp 20 + .ra: .cfa -4 + ^ r7: .cfa -8 + ^ r6: .cfa -12 + ^ r5: .cfa -16 + ^ r4: .cfa -20 + ^
STACK CFI 92a8 .cfa: r7 8 +
STACK CFI 92ac r11: .cfa -24 + ^ r10: .cfa -28 + ^ r9: .cfa -32 + ^ r8: .cfa -36 + ^
STACK CFI INIT 93b0 38 .cfa: sp 0 +
STACK CFI 93b2 .cfa: sp 16 + .ra: .cfa -4 + ^ r7: .cfa -8 + ^ r6: .cfa -12 + ^ r4: .cfa -16 + ^
STACK CFI 93b4 .cfa: r7 8 +
STACK CFI INIT 93e8 4c .cfa: sp 0 +
STACK CFI 93ea .cfa: sp 20 + .ra: .cfa -4 + ^ r7: .cfa -8 + ^ r6: .cfa -12 + ^ r5: .cfa -16 + ^ r4: .cfa -20 + ^
STACK CFI 93ec .cfa: r7 8 +
STACK CFI 93f0 r11: .cfa -24 + ^
STACK CFI INIT 9434 174 .cfa: sp 0 +
STACK CFI 9436 .cfa: sp 20 + .ra: .cfa -4 + ^ r7: .cfa -8 + ^ r6: .cfa -12 + ^ r5: .cfa -16 + ^ r4: .cfa -20 + ^
STACK CFI 9438 .cfa: r7 8 +
STACK CFI 943c r11: .cfa -24 + ^ r10: .cfa -28 + ^ r9: .cfa -32 + ^ r8: .cfa -36 + ^
STACK CFI INIT 95a8 10 .cfa: sp 0 +
STACK CFI 95aa .cfa: sp 8 + .ra: .cfa -4 + ^ r7: .cfa -8 + ^
STACK CFI 95ac .cfa: r7 8 +
STACK CFI INIT 95b8 10e .cfa: sp 0 +
STACK CFI 95ba .cfa: sp 20 + .ra: .cfa -4 + ^ r7: .cfa -8 + ^ r6: .cfa -12 + ^ r5: .cfa -16 + ^ r4: .cfa -20 + ^
STACK CFI 95bc .cfa: r7 8 +
STACK CFI 95c0 r11: .cfa -24 + ^ r10: .cfa -28 + ^ r9: .cfa -32 + ^ r8: .cfa -36 + ^
STACK CFI INIT 96c8 10 .cfa: sp 0 +
STACK CFI 96ca .cfa: sp 8 + .ra: .cfa -4 + ^ r7: .cfa -8 + ^
STACK CFI 96cc .cfa: r7 8 +
STACK CFI INIT 96d8 c0 .cfa: sp 0 +
STACK CFI 96da .cfa: sp 20 + .ra: .cfa -4 + ^ r7: .cfa -8 + ^ r6: .cfa -12 + ^ r5: .cfa -16 + ^ r4: .cfa -20 + ^
STACK CFI 96dc .cfa: r7 8 +
STACK CFI 96e0 r11: .cfa -24 + ^ r10: .cfa -28 + ^ r9: .cfa -32 + ^ r8: .cfa -36 + ^
STACK CFI INIT 9798 10 .cfa: sp 0 +
STACK CFI 979a .cfa: sp 8 + .ra: .cfa -4 + ^ r7: .cfa -8 + ^
STACK CFI 979c .cfa: r7 8 +
STACK CFI INIT 97a8 10a .cfa: sp 0 +
STACK CFI 97aa .cfa: sp 20 + .ra: .cfa -4 + ^ r7: .cfa -8 + ^ r6: .cfa -12 + ^ r5: .cfa -16 + ^ r4: .cfa -20 + ^
STACK CFI 97ac .cfa: r7 8 +
STACK CFI 97b0 r10: .cfa -24 + ^ r9: .cfa -28 + ^ r8: .cfa -32 + ^
STACK CFI INIT 98b4 430 .cfa: sp 0 +
STACK CFI 98b6 .cfa: sp 20 + .ra: .cfa -4 + ^ r7: .cfa -8 + ^ r6: .cfa -12 + ^ r5: .cfa -16 + ^ r4: .cfa -20 + ^
STACK CFI 98b8 .cfa: r7 8 +
STACK CFI 98bc r11: .cfa -24 + ^ r10: .cfa -28 + ^ r9: .cfa -32 + ^ r8: .cfa -36 + ^
STACK CFI INIT 9ce4 120 .cfa: sp 0 +
STACK CFI 9ce6 .cfa: sp 20 + .ra: .cfa -4 + ^ r7: .cfa -8 + ^ r6: .cfa -12 + ^ r5: .cfa -16 + ^ r4: .cfa -20 + ^
STACK CFI 9ce8 .cfa: r7 8 +
STACK CFI 9cec r11: .cfa -24 + ^ r10: .cfa -28 + ^ r9: .cfa -32 + ^ r8: .cfa -36 + ^
STACK CFI INIT 9e04 11e .cfa: sp 0 +
STACK CFI 9e06 .cfa: sp 20 + .ra: .cfa -4 + ^ r7: .cfa -8 + ^ r6: .cfa -12 + ^ r5: .cfa -16 + ^ r4: .cfa -20 + ^
STACK CFI 9e08 .cfa: r7 8 +
STACK CFI 9e0c r11: .cfa -24 + ^ r10: .cfa -28 + ^ r9: .cfa -32 + ^ r8: .cfa -36 + ^
STACK CFI INIT 9f22 11e .cfa: sp 0 +
STACK CFI 9f24 .cfa: sp 20 + .ra: .cfa -4 + ^ r7: .cfa -8 + ^ r6: .cfa -12 + ^ r5: .cfa -16 + ^ r4: .cfa -20 + ^
STACK CFI 9f26 .cfa: r7 8 +
STACK CFI 9f2a r11: .cfa -24 + ^ r10: .cfa -28 + ^ r9: .cfa -32 + ^ r8: .cfa -36 + ^
STACK CFI INIT a040 10 .cfa: sp 0 +
STACK CFI a042 .cfa: sp 8 + .ra: .cfa -4 + ^ r7: .cfa -8 + ^
STACK CFI a044 .cfa: r7 8 +
STACK CFI INIT a050 3a .cfa: sp 0 +
STACK CFI a052 .cfa: sp 16 + .ra: .cfa -4 + ^ r7: .cfa -8 + ^ r5: .cfa -12 + ^ r4: .cfa -16 + ^
STACK CFI a054 .cfa: r7 8 +
STACK CFI INIT a08c 470 .cfa: sp 0 +
STACK CFI a08e .cfa: sp 20 + .ra: .cfa -4 + ^ r7: .cfa -8 + ^ r6: .cfa -12 + ^ r5: .cfa -16 + ^ r4: .cfa -20 + ^
STACK CFI a090 .cfa: r7 8 +
STACK CFI a094 r11: .cfa -24 + ^ r10: .cfa -28 + ^ r9: .cfa -32 + ^ r8: .cfa -36 + ^
STACK CFI INIT a4fc 38 .cfa: sp 0 +
STACK CFI a4fe .cfa: sp 16 + .ra: .cfa -4 + ^ r7: .cfa -8 + ^ r6: .cfa -12 + ^ r4: .cfa -16 + ^
STACK CFI a500 .cfa: r7 8 +
STACK CFI INIT a534 180 .cfa: sp 0 +
STACK CFI a536 .cfa: sp 20 + .ra: .cfa -4 + ^ r7: .cfa -8 + ^ r6: .cfa -12 + ^ r5: .cfa -16 + ^ r4: .cfa -20 + ^
STACK CFI a538 .cfa: r7 8 +
STACK CFI a53c r11: .cfa -24 + ^ r10: .cfa -28 + ^ r9: .cfa -32 + ^ r8: .cfa -36 + ^
STACK CFI INIT a6b4 f4 .cfa: sp 0 +
STACK CFI a6b6 .cfa: sp 20 + .ra: .cfa -4 + ^ r7: .cfa -8 + ^ r6: .cfa -12 + ^ r5: .cfa -16 + ^ r4: .cfa -20 + ^
STACK CFI a6b8 .cfa: r7 8 +
STACK CFI a6bc r11: .cfa -24 + ^ r9: .cfa -28 + ^ r8: .cfa -32 + ^
STACK CFI INIT a7a8 f8 .cfa: sp 0 +
STACK CFI a7aa .cfa: sp 20 + .ra: .cfa -4 + ^ r7: .cfa -8 + ^ r6: .cfa -12 + ^ r5: .cfa -16 + ^ r4: .cfa -20 + ^
STACK CFI a7ac .cfa: r7 8 +
STACK CFI a7b0 r11: .cfa -24 + ^ r10: .cfa -28 + ^ r9: .cfa -32 + ^ r8: .cfa -36 + ^
STACK CFI INIT a8a0 38 .cfa: sp 0 +
STACK CFI a8a2 .cfa: sp 16 + .ra: .cfa -4 + ^ r7: .cfa -8 + ^ r6: .cfa -12 + ^ r4: .cfa -16 + ^
STACK CFI a8a4 .cfa: r7 8 +
STACK CFI INIT a8d8 4 .cfa: sp 0 +
STACK CFI INIT a8dc c .cfa: sp 0 +
STACK CFI INIT a8e8 2 .cfa: sp 0 +
STACK CFI INIT a8ea 2 .cfa: sp 0 +
STACK CFI INIT a8ec 10 .cfa: sp 0 +
STACK CFI a8ee .cfa: sp 8 + .ra: .cfa -4 + ^ r7: .cfa -8 + ^
STACK CFI a8f0 .cfa: r7 8 +
STACK CFI INIT a8fc e .cfa: sp 0 +
STACK CFI INIT a90c 1c .cfa: sp 0 +
STACK CFI INIT a928 4 .cfa: sp 0 +
STACK CFI INIT a92c 30 .cfa: sp 0 +
STACK CFI a942 .cfa: sp 16 + .ra: .cfa -4 + ^ r7: .cfa -8 + ^ r6: .cfa -12 + ^ r4: .cfa -16 + ^
STACK CFI a944 .cfa: r7 8 +
STACK CFI INIT a95c 10 .cfa: sp 0 +
STACK CFI INIT a96c 30 .cfa: sp 0 +
STACK CFI a982 .cfa: sp 16 + .ra: .cfa -4 + ^ r7: .cfa -8 + ^ r6: .cfa -12 + ^ r4: .cfa -16 + ^
STACK CFI a984 .cfa: r7 8 +
STACK CFI INIT a99c 208 .cfa: sp 0 +
STACK CFI a99e .cfa: sp 20 + .ra: .cfa -4 + ^ r7: .cfa -8 + ^ r6: .cfa -12 + ^ r5: .cfa -16 + ^ r4: .cfa -20 + ^
STACK CFI a9a0 .cfa: r7 8 +
STACK CFI a9a4 r11: .cfa -24 + ^ r9: .cfa -28 + ^ r8: .cfa -32 + ^
STACK CFI INIT aba4 490 .cfa: sp 0 +
STACK CFI aba6 .cfa: sp 20 + .ra: .cfa -4 + ^ r7: .cfa -8 + ^ r6: .cfa -12 + ^ r5: .cfa -16 + ^ r4: .cfa -20 + ^
STACK CFI aba8 .cfa: r7 8 +
STACK CFI abac r11: .cfa -24 + ^ r9: .cfa -28 + ^ r8: .cfa -32 + ^
STACK CFI INIT b034 24e .cfa: sp 0 +
STACK CFI b036 .cfa: sp 20 + .ra: .cfa -4 + ^ r7: .cfa -8 + ^ r6: .cfa -12 + ^ r5: .cfa -16 + ^ r4: .cfa -20 + ^
STACK CFI b038 .cfa: r7 8 +
STACK CFI b03c r11: .cfa -24 + ^ r10: .cfa -28 + ^ r9: .cfa -32 + ^ r8: .cfa -36 + ^
STACK CFI INIT b284 50 .cfa: sp 0 +
STACK CFI b286 .cfa: sp 16 + .ra: .cfa -4 + ^ r7: .cfa -8 + ^ r6: .cfa -12 + ^ r4: .cfa -16 + ^
STACK CFI b288 .cfa: r7 8 +
STACK CFI INIT b2d4 84 .cfa: sp 0 +
STACK CFI b2d6 .cfa: sp 20 + .ra: .cfa -4 + ^ r7: .cfa -8 + ^ r6: .cfa -12 + ^ r5: .cfa -16 + ^ r4: .cfa -20 + ^
STACK CFI b2d8 .cfa: r7 8 +
STACK CFI b2dc r11: .cfa -24 + ^ r9: .cfa -28 + ^ r8: .cfa -32 + ^
STACK CFI INIT b358 38 .cfa: sp 0 +
STACK CFI b35a .cfa: sp 16 + .ra: .cfa -4 + ^ r7: .cfa -8 + ^ r6: .cfa -12 + ^ r4: .cfa -16 + ^
STACK CFI b35c .cfa: r7 8 +
STACK CFI INIT b390 30 .cfa: sp 0 +
STACK CFI b3a6 .cfa: sp 16 + .ra: .cfa -4 + ^ r7: .cfa -8 + ^ r6: .cfa -12 + ^ r4: .cfa -16 + ^
STACK CFI b3a8 .cfa: r7 8 +
STACK CFI INIT b3c0 48 .cfa: sp 0 +
STACK CFI INIT b408 30 .cfa: sp 0 +
STACK CFI b41e .cfa: sp 16 + .ra: .cfa -4 + ^ r7: .cfa -8 + ^ r6: .cfa -12 + ^ r4: .cfa -16 + ^
STACK CFI b420 .cfa: r7 8 +
STACK CFI INIT b438 3a .cfa: sp 0 +
STACK CFI INIT b474 3c .cfa: sp 0 +
STACK CFI b476 .cfa: sp 16 + .ra: .cfa -4 + ^ r7: .cfa -8 + ^ r6: .cfa -12 + ^ r4: .cfa -16 + ^
STACK CFI b478 .cfa: r7 8 +
STACK CFI INIT b4b0 40 .cfa: sp 0 +
STACK CFI b4b2 .cfa: sp 16 + .ra: .cfa -4 + ^ r7: .cfa -8 + ^ r6: .cfa -12 + ^ r4: .cfa -16 + ^
STACK CFI b4b4 .cfa: r7 8 +
STACK CFI INIT b4f0 d6 .cfa: sp 0 +
STACK CFI b4f2 .cfa: sp 8 + .ra: .cfa -4 + ^ r7: .cfa -8 + ^
STACK CFI b4f4 .cfa: r7 8 +
STACK CFI INIT b5c8 74 .cfa: sp 0 +
STACK CFI b5ca .cfa: sp 20 + .ra: .cfa -4 + ^ r7: .cfa -8 + ^ r6: .cfa -12 + ^ r5: .cfa -16 + ^ r4: .cfa -20 + ^
STACK CFI b5cc .cfa: r7 8 +
STACK CFI b5d0 r11: .cfa -24 + ^
STACK CFI INIT b63c 7c .cfa: sp 0 +
STACK CFI b63e .cfa: sp 20 + .ra: .cfa -4 + ^ r7: .cfa -8 + ^ r6: .cfa -12 + ^ r5: .cfa -16 + ^ r4: .cfa -20 + ^
STACK CFI b640 .cfa: r7 8 +
STACK CFI b644 r11: .cfa -24 + ^
STACK CFI INIT b6b8 164 .cfa: sp 0 +
STACK CFI b6ba .cfa: sp 20 + .ra: .cfa -4 + ^ r7: .cfa -8 + ^ r6: .cfa -12 + ^ r5: .cfa -16 + ^ r4: .cfa -20 + ^
STACK CFI b6bc .cfa: r7 8 +
STACK CFI b6c0 r11: .cfa -24 + ^ r9: .cfa -28 + ^ r8: .cfa -32 + ^
STACK CFI INIT b81c 9a8 .cfa: sp 0 +
STACK CFI b81e .cfa: sp 20 + .ra: .cfa -4 + ^ r7: .cfa -8 + ^ r6: .cfa -12 + ^ r5: .cfa -16 + ^ r4: .cfa -20 + ^
STACK CFI b820 .cfa: r7 8 +
STACK CFI b824 r11: .cfa -24 + ^ r10: .cfa -28 + ^ r9: .cfa -32 + ^ r8: .cfa -36 + ^
STACK CFI INIT c1c4 38 .cfa: sp 0 +
STACK CFI c1c6 .cfa: sp 16 + .ra: .cfa -4 + ^ r7: .cfa -8 + ^ r6: .cfa -12 + ^ r4: .cfa -16 + ^
STACK CFI c1c8 .cfa: r7 8 +
STACK CFI INIT c1fc 30 .cfa: sp 0 +
STACK CFI c212 .cfa: sp 16 + .ra: .cfa -4 + ^ r7: .cfa -8 + ^ r6: .cfa -12 + ^ r4: .cfa -16 + ^
STACK CFI c214 .cfa: r7 8 +
STACK CFI INIT c22c 38 .cfa: sp 0 +
STACK CFI c22e .cfa: sp 16 + .ra: .cfa -4 + ^ r7: .cfa -8 + ^ r6: .cfa -12 + ^ r4: .cfa -16 + ^
STACK CFI c230 .cfa: r7 8 +
STACK CFI INIT c264 35e .cfa: sp 0 +
STACK CFI c266 .cfa: sp 20 + .ra: .cfa -4 + ^ r7: .cfa -8 + ^ r6: .cfa -12 + ^ r5: .cfa -16 + ^ r4: .cfa -20 + ^
STACK CFI c268 .cfa: r7 8 +
STACK CFI c26c r8: .cfa -24 + ^
STACK CFI INIT c5c4 e4 .cfa: sp 0 +
STACK CFI c5c6 .cfa: sp 20 + .ra: .cfa -4 + ^ r7: .cfa -8 + ^ r6: .cfa -12 + ^ r5: .cfa -16 + ^ r4: .cfa -20 + ^
STACK CFI c5c8 .cfa: r7 8 +
STACK CFI c5cc r8: .cfa -24 + ^
STACK CFI INIT c6a8 38 .cfa: sp 0 +
STACK CFI c6aa .cfa: sp 16 + .ra: .cfa -4 + ^ r7: .cfa -8 + ^ r6: .cfa -12 + ^ r4: .cfa -16 + ^
STACK CFI c6ac .cfa: r7 8 +
STACK CFI INIT c6e0 88 .cfa: sp 0 +
STACK CFI c6e2 .cfa: sp 20 + .ra: .cfa -4 + ^ r7: .cfa -8 + ^ r6: .cfa -12 + ^ r5: .cfa -16 + ^ r4: .cfa -20 + ^
STACK CFI c6e4 .cfa: r7 8 +
STACK CFI c6e8 r11: .cfa -24 + ^
STACK CFI INIT c768 3c .cfa: sp 0 +
STACK CFI c76a .cfa: sp 16 + .ra: .cfa -4 + ^ r7: .cfa -8 + ^ r6: .cfa -12 + ^ r4: .cfa -16 + ^
STACK CFI c76c .cfa: r7 8 +
STACK CFI INIT c7a4 40 .cfa: sp 0 +
STACK CFI c7a6 .cfa: sp 16 + .ra: .cfa -4 + ^ r7: .cfa -8 + ^ r6: .cfa -12 + ^ r4: .cfa -16 + ^
STACK CFI c7a8 .cfa: r7 8 +
STACK CFI INIT c7e4 42 .cfa: sp 0 +
STACK CFI c7e6 .cfa: sp 16 + .ra: .cfa -4 + ^ r7: .cfa -8 + ^ r5: .cfa -12 + ^ r4: .cfa -16 + ^
STACK CFI c7e8 .cfa: r7 8 +
STACK CFI INIT c828 3c .cfa: sp 0 +
STACK CFI c82a .cfa: sp 16 + .ra: .cfa -4 + ^ r7: .cfa -8 + ^ r6: .cfa -12 + ^ r4: .cfa -16 + ^
STACK CFI c82c .cfa: r7 8 +
STACK CFI INIT c864 40 .cfa: sp 0 +
STACK CFI c866 .cfa: sp 16 + .ra: .cfa -4 + ^ r7: .cfa -8 + ^ r6: .cfa -12 + ^ r4: .cfa -16 + ^
STACK CFI c868 .cfa: r7 8 +
STACK CFI INIT c8a4 32 .cfa: sp 0 +
STACK CFI INIT c8d8 30 .cfa: sp 0 +
STACK CFI c8ee .cfa: sp 16 + .ra: .cfa -4 + ^ r7: .cfa -8 + ^ r6: .cfa -12 + ^ r4: .cfa -16 + ^
STACK CFI c8f0 .cfa: r7 8 +
STACK CFI INIT c908 32 .cfa: sp 0 +
STACK CFI INIT c93c 3c .cfa: sp 0 +
STACK CFI c93e .cfa: sp 16 + .ra: .cfa -4 + ^ r7: .cfa -8 + ^ r6: .cfa -12 + ^ r4: .cfa -16 + ^
STACK CFI c940 .cfa: r7 8 +
STACK CFI INIT c978 40 .cfa: sp 0 +
STACK CFI c97a .cfa: sp 16 + .ra: .cfa -4 + ^ r7: .cfa -8 + ^ r6: .cfa -12 + ^ r4: .cfa -16 + ^
STACK CFI c97c .cfa: r7 8 +
STACK CFI INIT c9b8 8e .cfa: sp 0 +
STACK CFI c9ba .cfa: sp 20 + .ra: .cfa -4 + ^ r7: .cfa -8 + ^ r6: .cfa -12 + ^ r5: .cfa -16 + ^ r4: .cfa -20 + ^
STACK CFI c9bc .cfa: r7 8 +
STACK CFI c9c0 r10: .cfa -24 + ^ r9: .cfa -28 + ^ r8: .cfa -32 + ^
STACK CFI INIT ca48 3c .cfa: sp 0 +
STACK CFI ca4a .cfa: sp 16 + .ra: .cfa -4 + ^ r7: .cfa -8 + ^ r6: .cfa -12 + ^ r4: .cfa -16 + ^
STACK CFI ca4c .cfa: r7 8 +
STACK CFI INIT ca84 40 .cfa: sp 0 +
STACK CFI ca86 .cfa: sp 16 + .ra: .cfa -4 + ^ r7: .cfa -8 + ^ r6: .cfa -12 + ^ r4: .cfa -16 + ^
STACK CFI ca88 .cfa: r7 8 +
STACK CFI INIT cac4 6c .cfa: sp 0 +
STACK CFI cac6 .cfa: sp 20 + .ra: .cfa -4 + ^ r7: .cfa -8 + ^ r6: .cfa -12 + ^ r5: .cfa -16 + ^ r4: .cfa -20 + ^
STACK CFI cac8 .cfa: r7 8 +
STACK CFI cacc r11: .cfa -24 + ^
STACK CFI INIT cb30 30 .cfa: sp 0 +
STACK CFI cb46 .cfa: sp 16 + .ra: .cfa -4 + ^ r7: .cfa -8 + ^ r6: .cfa -12 + ^ r4: .cfa -16 + ^
STACK CFI cb48 .cfa: r7 8 +
STACK CFI INIT cb60 7a .cfa: sp 0 +
STACK CFI cb62 .cfa: sp 20 + .ra: .cfa -4 + ^ r7: .cfa -8 + ^ r6: .cfa -12 + ^ r5: .cfa -16 + ^ r4: .cfa -20 + ^
STACK CFI cb64 .cfa: r7 8 +
STACK CFI cb68 r8: .cfa -24 + ^
STACK CFI INIT cbda 126 .cfa: sp 0 +
STACK CFI cbdc .cfa: sp 20 + .ra: .cfa -4 + ^ r7: .cfa -8 + ^ r6: .cfa -12 + ^ r5: .cfa -16 + ^ r4: .cfa -20 + ^
STACK CFI cbde .cfa: r7 8 +
STACK CFI cbe2 r11: .cfa -24 + ^ r10: .cfa -28 + ^ r9: .cfa -32 + ^ r8: .cfa -36 + ^
STACK CFI INIT cd00 138 .cfa: sp 0 +
STACK CFI cd02 .cfa: sp 20 + .ra: .cfa -4 + ^ r7: .cfa -8 + ^ r6: .cfa -12 + ^ r5: .cfa -16 + ^ r4: .cfa -20 + ^
STACK CFI cd04 .cfa: r7 8 +
STACK CFI cd08 r10: .cfa -24 + ^ r9: .cfa -28 + ^ r8: .cfa -32 + ^
STACK CFI INIT ce38 54 .cfa: sp 0 +
STACK CFI ce3a .cfa: sp 20 + .ra: .cfa -4 + ^ r7: .cfa -8 + ^ r6: .cfa -12 + ^ r5: .cfa -16 + ^ r4: .cfa -20 + ^
STACK CFI ce3c .cfa: r7 8 +
STACK CFI ce40 r8: .cfa -24 + ^
STACK CFI INIT ce8c f4 .cfa: sp 0 +
STACK CFI ce8e .cfa: sp 20 + .ra: .cfa -4 + ^ r7: .cfa -8 + ^ r6: .cfa -12 + ^ r5: .cfa -16 + ^ r4: .cfa -20 + ^
STACK CFI ce90 .cfa: r7 8 +
STACK CFI ce94 r8: .cfa -24 + ^
STACK CFI INIT cf80 10 .cfa: sp 0 +
STACK CFI cf82 .cfa: sp 8 + .ra: .cfa -4 + ^ r7: .cfa -8 + ^
STACK CFI cf84 .cfa: r7 8 +
STACK CFI INIT cf90 940 .cfa: sp 0 +
STACK CFI cf92 .cfa: sp 20 + .ra: .cfa -4 + ^ r7: .cfa -8 + ^ r6: .cfa -12 + ^ r5: .cfa -16 + ^ r4: .cfa -20 + ^
STACK CFI cf94 .cfa: r7 8 +
STACK CFI cf98 r11: .cfa -24 + ^ r10: .cfa -28 + ^ r9: .cfa -32 + ^ r8: .cfa -36 + ^
STACK CFI INIT d8d0 22 .cfa: sp 0 +
STACK CFI d8d2 .cfa: sp 16 + .ra: .cfa -4 + ^ r7: .cfa -8 + ^ r6: .cfa -12 + ^ r4: .cfa -16 + ^
STACK CFI d8d4 .cfa: r7 8 +
STACK CFI INIT d8f2 64 .cfa: sp 0 +
STACK CFI d8f4 .cfa: sp 20 + .ra: .cfa -4 + ^ r7: .cfa -8 + ^ r6: .cfa -12 + ^ r5: .cfa -16 + ^ r4: .cfa -20 + ^
STACK CFI d8f6 .cfa: r7 8 +
STACK CFI d8fa r11: .cfa -24 + ^ r9: .cfa -28 + ^ r8: .cfa -32 + ^
STACK CFI INIT d956 a4 .cfa: sp 0 +
STACK CFI d958 .cfa: sp 20 + .ra: .cfa -4 + ^ r7: .cfa -8 + ^ r6: .cfa -12 + ^ r5: .cfa -16 + ^ r4: .cfa -20 + ^
STACK CFI d95a .cfa: r7 8 +
STACK CFI d95e r10: .cfa -24 + ^ r9: .cfa -28 + ^ r8: .cfa -32 + ^
STACK CFI INIT d9fc 118 .cfa: sp 0 +
STACK CFI d9fe .cfa: sp 20 + .ra: .cfa -4 + ^ r7: .cfa -8 + ^ r6: .cfa -12 + ^ r5: .cfa -16 + ^ r4: .cfa -20 + ^
STACK CFI da00 .cfa: r7 8 +
STACK CFI da04 r11: .cfa -24 + ^ r10: .cfa -28 + ^ r9: .cfa -32 + ^ r8: .cfa -36 + ^
STACK CFI INIT db14 10 .cfa: sp 0 +
STACK CFI db16 .cfa: sp 8 + .ra: .cfa -4 + ^ r7: .cfa -8 + ^
STACK CFI db18 .cfa: r7 8 +
STACK CFI INIT db24 38 .cfa: sp 0 +
STACK CFI db26 .cfa: sp 16 + .ra: .cfa -4 + ^ r7: .cfa -8 + ^ r6: .cfa -12 + ^ r4: .cfa -16 + ^
STACK CFI db28 .cfa: r7 8 +
STACK CFI INIT db5c a0 .cfa: sp 0 +
STACK CFI db5e .cfa: sp 20 + .ra: .cfa -4 + ^ r7: .cfa -8 + ^ r6: .cfa -12 + ^ r5: .cfa -16 + ^ r4: .cfa -20 + ^
STACK CFI db60 .cfa: r7 8 +
STACK CFI db64 r11: .cfa -24 + ^
STACK CFI INIT dbfc 212 .cfa: sp 0 +
STACK CFI dbfe .cfa: sp 20 + .ra: .cfa -4 + ^ r7: .cfa -8 + ^ r6: .cfa -12 + ^ r5: .cfa -16 + ^ r4: .cfa -20 + ^
STACK CFI dc00 .cfa: r7 8 +
STACK CFI dc04 r11: .cfa -24 + ^ r10: .cfa -28 + ^ r9: .cfa -32 + ^ r8: .cfa -36 + ^
STACK CFI INIT de10 292 .cfa: sp 0 +
STACK CFI de12 .cfa: sp 20 + .ra: .cfa -4 + ^ r7: .cfa -8 + ^ r6: .cfa -12 + ^ r5: .cfa -16 + ^ r4: .cfa -20 + ^
STACK CFI de14 .cfa: r7 8 +
STACK CFI de18 r11: .cfa -24 + ^
STACK CFI INIT e0a2 14c .cfa: sp 0 +
STACK CFI e0a4 .cfa: sp 20 + .ra: .cfa -4 + ^ r7: .cfa -8 + ^ r6: .cfa -12 + ^ r5: .cfa -16 + ^ r4: .cfa -20 + ^
STACK CFI e0a6 .cfa: r7 8 +
STACK CFI e0aa r11: .cfa -24 + ^ r10: .cfa -28 + ^ r9: .cfa -32 + ^ r8: .cfa -36 + ^
STACK CFI INIT e1f0 38 .cfa: sp 0 +
STACK CFI e1f2 .cfa: sp 16 + .ra: .cfa -4 + ^ r7: .cfa -8 + ^ r6: .cfa -12 + ^ r4: .cfa -16 + ^
STACK CFI e1f4 .cfa: r7 8 +
STACK CFI INIT e228 1c4 .cfa: sp 0 +
STACK CFI e22a .cfa: sp 20 + .ra: .cfa -4 + ^ r7: .cfa -8 + ^ r6: .cfa -12 + ^ r5: .cfa -16 + ^ r4: .cfa -20 + ^
STACK CFI e22c .cfa: r7 8 +
STACK CFI e230 r11: .cfa -24 + ^ r10: .cfa -28 + ^ r9: .cfa -32 + ^ r8: .cfa -36 + ^
STACK CFI INIT e3ec 38 .cfa: sp 0 +
STACK CFI e3ee .cfa: sp 16 + .ra: .cfa -4 + ^ r7: .cfa -8 + ^ r6: .cfa -12 + ^ r4: .cfa -16 + ^
STACK CFI e3f0 .cfa: r7 8 +
STACK CFI INIT e424 108 .cfa: sp 0 +
STACK CFI e426 .cfa: sp 20 + .ra: .cfa -4 + ^ r7: .cfa -8 + ^ r6: .cfa -12 + ^ r5: .cfa -16 + ^ r4: .cfa -20 + ^
STACK CFI e428 .cfa: r7 8 +
STACK CFI e42c r11: .cfa -24 + ^ r10: .cfa -28 + ^ r9: .cfa -32 + ^ r8: .cfa -36 + ^
STACK CFI INIT e52c 38 .cfa: sp 0 +
STACK CFI e52e .cfa: sp 16 + .ra: .cfa -4 + ^ r7: .cfa -8 + ^ r6: .cfa -12 + ^ r4: .cfa -16 + ^
STACK CFI e530 .cfa: r7 8 +
STACK CFI INIT e564 124 .cfa: sp 0 +
STACK CFI e566 .cfa: sp 20 + .ra: .cfa -4 + ^ r7: .cfa -8 + ^ r6: .cfa -12 + ^ r5: .cfa -16 + ^ r4: .cfa -20 + ^
STACK CFI e568 .cfa: r7 8 +
STACK CFI e56c r11: .cfa -24 + ^ r10: .cfa -28 + ^ r9: .cfa -32 + ^ r8: .cfa -36 + ^
STACK CFI INIT e688 10 .cfa: sp 0 +
STACK CFI e68a .cfa: sp 8 + .ra: .cfa -4 + ^ r7: .cfa -8 + ^
STACK CFI e68c .cfa: r7 8 +
STACK CFI INIT e698 10 .cfa: sp 0 +
STACK CFI e69a .cfa: sp 8 + .ra: .cfa -4 + ^ r7: .cfa -8 + ^
STACK CFI e69c .cfa: r7 8 +
STACK CFI INIT e6a8 30 .cfa: sp 0 +
STACK CFI e6be .cfa: sp 16 + .ra: .cfa -4 + ^ r7: .cfa -8 + ^ r6: .cfa -12 + ^ r4: .cfa -16 + ^
STACK CFI e6c0 .cfa: r7 8 +
STACK CFI INIT e6d8 28 .cfa: sp 0 +
STACK CFI e6da .cfa: sp 8 + .ra: .cfa -4 + ^ r7: .cfa -8 + ^
STACK CFI e6dc .cfa: r7 8 +
STACK CFI INIT e700 30 .cfa: sp 0 +
STACK CFI e716 .cfa: sp 16 + .ra: .cfa -4 + ^ r7: .cfa -8 + ^ r6: .cfa -12 + ^ r4: .cfa -16 + ^
STACK CFI e718 .cfa: r7 8 +
STACK CFI INIT e730 2e .cfa: sp 0 +
STACK CFI e732 .cfa: sp 8 + .ra: .cfa -4 + ^ r7: .cfa -8 + ^
STACK CFI e734 .cfa: r7 8 +
STACK CFI INIT e760 dc .cfa: sp 0 +
STACK CFI e762 .cfa: sp 20 + .ra: .cfa -4 + ^ r7: .cfa -8 + ^ r6: .cfa -12 + ^ r5: .cfa -16 + ^ r4: .cfa -20 + ^
STACK CFI e764 .cfa: r7 8 +
STACK CFI e768 r11: .cfa -24 + ^ r10: .cfa -28 + ^ r9: .cfa -32 + ^ r8: .cfa -36 + ^
STACK CFI INIT e83c 38 .cfa: sp 0 +
STACK CFI e83e .cfa: sp 16 + .ra: .cfa -4 + ^ r7: .cfa -8 + ^ r6: .cfa -12 + ^ r4: .cfa -16 + ^
STACK CFI e840 .cfa: r7 8 +
STACK CFI INIT e874 38 .cfa: sp 0 +
STACK CFI e876 .cfa: sp 16 + .ra: .cfa -4 + ^ r7: .cfa -8 + ^ r6: .cfa -12 + ^ r4: .cfa -16 + ^
STACK CFI e878 .cfa: r7 8 +
STACK CFI INIT e8ac 44 .cfa: sp 0 +
STACK CFI e8ae .cfa: sp 16 + .ra: .cfa -4 + ^ r7: .cfa -8 + ^ r6: .cfa -12 + ^ r4: .cfa -16 + ^
STACK CFI e8b0 .cfa: r7 8 +
STACK CFI INIT e8f0 100 .cfa: sp 0 +
STACK CFI e8f2 .cfa: sp 20 + .ra: .cfa -4 + ^ r7: .cfa -8 + ^ r6: .cfa -12 + ^ r5: .cfa -16 + ^ r4: .cfa -20 + ^
STACK CFI e8f4 .cfa: r7 8 +
STACK CFI e8f8 r11: .cfa -24 + ^
STACK CFI INIT e9f0 5c .cfa: sp 0 +
STACK CFI ea0a .cfa: sp 16 + .ra: .cfa -4 + ^ r7: .cfa -8 + ^ r6: .cfa -12 + ^ r4: .cfa -16 + ^
STACK CFI ea0c .cfa: r7 8 +
STACK CFI INIT ea4c 44 .cfa: sp 0 +
STACK CFI ea4e .cfa: sp 16 + .ra: .cfa -4 + ^ r7: .cfa -8 + ^ r6: .cfa -12 + ^ r4: .cfa -16 + ^
STACK CFI ea50 .cfa: r7 8 +
STACK CFI INIT ea90 4 .cfa: sp 0 +
STACK CFI INIT ea94 10 .cfa: sp 0 +
STACK CFI INIT eaa4 40 .cfa: sp 0 +
STACK CFI eaa6 .cfa: sp 16 + .ra: .cfa -4 + ^ r7: .cfa -8 + ^ r6: .cfa -12 + ^ r4: .cfa -16 + ^
STACK CFI eaa8 .cfa: r7 8 +
STACK CFI INIT eae4 44 .cfa: sp 0 +
STACK CFI eae6 .cfa: sp 16 + .ra: .cfa -4 + ^ r7: .cfa -8 + ^ r6: .cfa -12 + ^ r4: .cfa -16 + ^
STACK CFI eae8 .cfa: r7 8 +
STACK CFI INIT eb28 c .cfa: sp 0 +
STACK CFI INIT eb34 18 .cfa: sp 0 +
STACK CFI INIT eb4c 2 .cfa: sp 0 +
STACK CFI INIT eb4e 4 .cfa: sp 0 +
STACK CFI INIT eb52 10 .cfa: sp 0 +
STACK CFI INIT eb64 38 .cfa: sp 0 +
STACK CFI eb66 .cfa: sp 16 + .ra: .cfa -4 + ^ r7: .cfa -8 + ^ r6: .cfa -12 + ^ r4: .cfa -16 + ^
STACK CFI eb68 .cfa: r7 8 +
STACK CFI INIT eb9c 208 .cfa: sp 0 +
STACK CFI eb9e .cfa: sp 20 + .ra: .cfa -4 + ^ r7: .cfa -8 + ^ r6: .cfa -12 + ^ r5: .cfa -16 + ^ r4: .cfa -20 + ^
STACK CFI eba0 .cfa: r7 8 +
STACK CFI eba4 r10: .cfa -24 + ^ r9: .cfa -28 + ^ r8: .cfa -32 + ^
STACK CFI INIT eda4 182 .cfa: sp 0 +
STACK CFI eda6 .cfa: sp 20 + .ra: .cfa -4 + ^ r7: .cfa -8 + ^ r6: .cfa -12 + ^ r5: .cfa -16 + ^ r4: .cfa -20 + ^
STACK CFI eda8 .cfa: r7 8 +
STACK CFI edac r11: .cfa -24 + ^ r9: .cfa -28 + ^ r8: .cfa -32 + ^
STACK CFI INIT ef28 2c .cfa: sp 0 +
STACK CFI ef3c .cfa: sp 16 + .ra: .cfa -4 + ^ r7: .cfa -8 + ^ r6: .cfa -12 + ^ r4: .cfa -16 + ^
STACK CFI ef3e .cfa: r7 8 +
STACK CFI INIT ef54 30 .cfa: sp 0 +
STACK CFI ef6a .cfa: sp 16 + .ra: .cfa -4 + ^ r7: .cfa -8 + ^ r6: .cfa -12 + ^ r4: .cfa -16 + ^
STACK CFI ef6c .cfa: r7 8 +
STACK CFI INIT ef84 2e .cfa: sp 0 +
STACK CFI INIT efb2 34 .cfa: sp 0 +
STACK CFI efb4 .cfa: sp 8 + .ra: .cfa -4 + ^ r7: .cfa -8 + ^
STACK CFI efb6 .cfa: r7 8 +
STACK CFI INIT efe8 2e8 .cfa: sp 0 +
STACK CFI efea .cfa: sp 20 + .ra: .cfa -4 + ^ r7: .cfa -8 + ^ r6: .cfa -12 + ^ r5: .cfa -16 + ^ r4: .cfa -20 + ^
STACK CFI efec .cfa: r7 8 +
STACK CFI eff0 r11: .cfa -24 + ^ r10: .cfa -28 + ^ r9: .cfa -32 + ^ r8: .cfa -36 + ^
STACK CFI INIT f2d0 20 .cfa: sp 0 +
STACK CFI f2d2 .cfa: sp 16 + .ra: .cfa -4 + ^ r7: .cfa -8 + ^ r6: .cfa -12 + ^ r4: .cfa -16 + ^
STACK CFI f2d4 .cfa: r7 8 +
STACK CFI INIT f2f0 20 .cfa: sp 0 +
STACK CFI f2f2 .cfa: sp 16 + .ra: .cfa -4 + ^ r7: .cfa -8 + ^ r6: .cfa -12 + ^ r4: .cfa -16 + ^
STACK CFI f2f4 .cfa: r7 8 +
