MODULE Linux arm64 41685B5A7C9D06F7A802AAFFA61985CB0 capeling.geometry-dash-lunar.android64.so
INFO CODE_ID 5A5B68419D7CF706A802AAFFA61985CB2EFEB843
INFO GENERATOR mozilla/dump_syms 2.3.4
PUBLIC 27d10 0 __on_dlclose
PUBLIC 27d20 0 __emutls_unregister_key
PUBLIC 27d28 0 __on_dlclose_late
PUBLIC 27d30 0 __atexit_handler_wrapper
PUBLIC 27d44 0 atexit
PUBLIC 27d60 0 pthread_atfork
PUBLIC 27d70 0 __aarch64_ldadd8_relax
PUBLIC 27da0 0 init_have_lse_atomics
PUBLIC 27e38 0 __init_cpu_features_constructor
PUBLIC 283d4 0 __init_cpu_features
PUBLIC 28460 0 __aarch64_ldadd8_acq_rel
PUBLIC 28490 0 HookedAchievementManager::addManualAchievements()
PUBLIC 2cd6c 0 __cxx_global_var_init
PUBLIC 2d1ec 0 geode::modifier::ModifyBase<geode::modifier::ModifyDerive<HookedAchievementManager, AchievementManager> >::~ModifyBase()
PUBLIC 2d208 0 geode::modifier::ModifyDerive<HookedAchievementManager, AchievementManager>::apply()
PUBLIC 2d54c 0 std::__ndk1::shared_ptr<geode::Hook>::~shared_ptr[abi:ne180000]()
PUBLIC 2d59c 0 geode::impl::ResultData<geode::Hook*, std::__ndk1::basic_string<char, std::__ndk1::char_traits<char>, std::__ndk1::allocator<char> > >::~ResultData()
PUBLIC 2d610 0 std::__ndk1::vector<std::__ndk1::basic_string<char, std::__ndk1::char_traits<char>, std::__ndk1::allocator<char> >, std::__ndk1::allocator<std::__ndk1::basic_string<char, std::__ndk1::char_traits<char>, std::__ndk1::allocator<char> > > >::~vector[abi:ne180000]()
PUBLIC 2d68c 0 geode::modifier::ModifyBase<geode::modifier::ModifyDerive<HookedAchievementManager, AchievementManager> >::apply()
PUBLIC 2d690 0 __clang_call_terminate
PUBLIC 2d6a0 0 _ZN5geode15UnwrapExceptionC2IRPNS_4HookEQsr4implE18IsStringStreamableIT_EEENS_4impl5OkTagEOS5_
PUBLIC 2d7f4 0 std::__ndk1::__throw_bad_variant_access[abi:ne180000]()
PUBLIC 2d828 0 std::__ndk1::basic_stringstream<char, std::__ndk1::char_traits<char>, std::__ndk1::allocator<char> >::basic_stringstream[abi:ne180000]()
PUBLIC m 2d954 0 std::__ndk1::basic_stringstream<char, std::__ndk1::char_traits<char>, std::__ndk1::allocator<char> >::~basic_stringstream()
PUBLIC 2d9d4 0 geode::UnwrapException::~UnwrapException()
PUBLIC 2d9f8 0 std::__ndk1::__put_character_sequence[abi:ne180000]<char, std::__ndk1::char_traits<char> >(std::__ndk1::basic_ostream<char, std::__ndk1::char_traits<char> >, std::__ndk1::basic_ostream const*, unsigned long)
PUBLIC 2db9c 0 std::__ndk1::__pad_and_output[abi:ne180000]<char, std::__ndk1::char_traits<char> >(std::__ndk1::char_traits<char>, std::__ndk1::ostreambuf_iterator const*, std::__ndk1::ostreambuf_iterator const, std::__ndk1::ostreambuf_iterator const, std::__ndk1::ios_base&, std::__ndk1::ostreambuf_iterator)
PUBLIC 2dd78 0 std::__ndk1::basic_string<char, std::__ndk1::char_traits<char>, std::__ndk1::allocator<char> >::__throw_length_error[abi:ne180000]() const
PUBLIC 2dd8c 0 std::__ndk1::__throw_length_error[abi:ne180000](char const*)
PUBLIC 2dddc 0 std::length_error::length_error[abi:ne180000](char const*)
PUBLIC 2de0c 0 std::__throw_bad_array_new_length([abi:ne180000], void)
PUBLIC 2de40 0 std::__ndk1::basic_stringbuf<char, std::__ndk1::char_traits<char>, std::__ndk1::allocator<char> >::str[abi:ne180000]() &&
PUBLIC 2dfb8 0 std::__ndk1::basic_stringbuf<char, std::__ndk1::char_traits<char>, std::__ndk1::allocator<char> >::__init_buf_ptrs[abi:ne180000]()
PUBLIC 2e100 0 std::__ndk1::vector<std::__ndk1::basic_string<char, std::__ndk1::char_traits<char>, std::__ndk1::allocator<char> >, std::__ndk1::allocator<std::__ndk1::basic_string<char, std::__ndk1::char_traits<char>, std::__ndk1::allocator<char> > > >::__push_back_slow_path<std::__ndk1::basic_string<char, std::__ndk1::char_traits<char>, std::__ndk1::allocator<char> > const&>(std::__ndk1::basic_string<char, std::__ndk1::char_traits<char>, std::__ndk1::allocator<char> > const&)
PUBLIC 2e328 0 std::__ndk1::basic_string<char, std::__ndk1::char_traits<char>, std::__ndk1::allocator<char> >::__init_copy_ctor_external(char const*, unsigned long)
PUBLIC 2e3a8 0 std::__ndk1::__split_buffer<std::__ndk1::basic_string<char, std::__ndk1::char_traits<char>, std::__ndk1::allocator<char> >, std::__ndk1::allocator<std::__ndk1::basic_string<char, std::__ndk1::char_traits<char>, std::__ndk1::allocator<char> > >&>::~__split_buffer()
PUBLIC 2e410 0 std::__ndk1::vector<std::__ndk1::basic_string<char, std::__ndk1::char_traits<char>, std::__ndk1::allocator<char> >, std::__ndk1::allocator<std::__ndk1::basic_string<char, std::__ndk1::char_traits<char>, std::__ndk1::allocator<char> > > >::__throw_length_error[abi:ne180000]() const
PUBLIC 2e424 0 std::__ndk1::__variant_detail::__visitation::__base::__dispatcher<(unsigned long)0>::__dispatch[abi:ne180000]<std::__ndk1::__variant_detail::__dtor<std::__ndk1::__variant_detail::__traits<geode::Hook*, std::__ndk1::basic_string<char, std::__ndk1::char_traits<char>, std::__ndk1::allocator<char> > >, (std::__ndk1::__variant_detail::_Trait)1>::__destroy[abi:ne180000]()::{lambda(auto:1&)#1}, std::__ndk1::__variant_detail::__base<(std::__ndk1::__variant_detail::__traits<geode::Hook*, std::__ndk1::basic_string<char, std::__ndk1::char_traits<char>, std::__ndk1::allocator<char> > >)1, geode::Hook, std::__ndk1::allocator<char> >&>(std::__ndk1::__variant_detail::__dtor<std::__ndk1::__variant_detail::__traits<geode::Hook*, std::__ndk1::basic_string<char, std::__ndk1::char_traits<char>, std::__ndk1::allocator<char> > >, (std::__ndk1::__variant_detail::_Trait)1>, std::__ndk1::__variant_detail::__base<(std::__ndk1::__variant_detail::__traits<geode::Hook*, std::__ndk1::basic_string<char, std::__ndk1::char_traits<char>, std::__ndk1::allocator<char> > >)1, geode::Hook, std::__ndk1::allocator<char> >&)
PUBLIC 2e428 0 std::__ndk1::__variant_detail::__visitation::__base::__dispatcher<(unsigned long)1>::__dispatch[abi:ne180000]<std::__ndk1::__variant_detail::__dtor<std::__ndk1::__variant_detail::__traits<geode::Hook*, std::__ndk1::basic_string<char, std::__ndk1::char_traits<char>, std::__ndk1::allocator<char> > >, (std::__ndk1::__variant_detail::_Trait)1>::__destroy[abi:ne180000]()::{lambda(auto:1&)#1}, std::__ndk1::__variant_detail::__base<(std::__ndk1::__variant_detail::__traits<geode::Hook*, std::__ndk1::basic_string<char, std::__ndk1::char_traits<char>, std::__ndk1::allocator<char> > >)1, geode::Hook, std::__ndk1::allocator<char> >&>(std::__ndk1::__variant_detail::__dtor<std::__ndk1::__variant_detail::__traits<geode::Hook*, std::__ndk1::basic_string<char, std::__ndk1::char_traits<char>, std::__ndk1::allocator<char> > >, (std::__ndk1::__variant_detail::_Trait)1>, std::__ndk1::__variant_detail::__base<(std::__ndk1::__variant_detail::__traits<geode::Hook*, std::__ndk1::basic_string<char, std::__ndk1::char_traits<char>, std::__ndk1::allocator<char> > >)1, geode::Hook, std::__ndk1::allocator<char> >&)
PUBLIC 2e43c 0 std::__ndk1::__tree<std::__ndk1::__value_type<std::__ndk1::basic_string<char, std::__ndk1::char_traits<char>, std::__ndk1::allocator<char> >, std::__ndk1::shared_ptr<geode::Hook> >, std::__ndk1::__map_value_compare<std::__ndk1::basic_string<char, std::__ndk1::char_traits<char>, std::__ndk1::allocator<char> >, std::__ndk1::__value_type<std::__ndk1::basic_string<char, std::__ndk1::char_traits<char>, std::__ndk1::allocator<char> >, std::__ndk1::shared_ptr<geode::Hook> >, std::__ndk1::less<std::__ndk1::basic_string<char, std::__ndk1::char_traits<char>, std::__ndk1::allocator<char> > >, true>, std::__ndk1::allocator<std::__ndk1::__value_type<std::__ndk1::basic_string<char, std::__ndk1::char_traits<char>, std::__ndk1::allocator<char> >, std::__ndk1::shared_ptr<geode::Hook> > > >::find<std::__ndk1::basic_string<char, std::__ndk1::char_traits<char>, std::__ndk1::allocator<char> > >(std::__ndk1::basic_string<char, std::__ndk1::char_traits<char>, std::__ndk1::allocator<char> > const&)
PUBLIC 2e55c 0 std::__ndk1::__tree<std::__ndk1::__value_type<std::__ndk1::basic_string<char, std::__ndk1::char_traits<char>, std::__ndk1::allocator<char> >, std::__ndk1::shared_ptr<geode::Hook> >, std::__ndk1::__map_value_compare<std::__ndk1::basic_string<char, std::__ndk1::char_traits<char>, std::__ndk1::allocator<char> >, std::__ndk1::__value_type<std::__ndk1::basic_string<char, std::__ndk1::char_traits<char>, std::__ndk1::allocator<char> >, std::__ndk1::shared_ptr<geode::Hook> >, std::__ndk1::less<std::__ndk1::basic_string<char, std::__ndk1::char_traits<char>, std::__ndk1::allocator<char> > >, true>, std::__ndk1::allocator<std::__ndk1::__value_type<std::__ndk1::basic_string<char, std::__ndk1::char_traits<char>, std::__ndk1::allocator<char> >, std::__ndk1::shared_ptr<geode::Hook> > > >::erase(std::__ndk1::__tree_const_iterator<std::__ndk1::__value_type<std::__ndk1::basic_string<char, std::__ndk1::char_traits<char>, std::__ndk1::allocator<char> >, std::__ndk1::shared_ptr<geode::Hook> >, std::__ndk1::__tree_node<std::__ndk1::__value_type<std::__ndk1::basic_string<char, std::__ndk1::char_traits<char>, std::__ndk1::allocator<char> >, std::__ndk1::shared_ptr<geode::Hook> >, void*>*, long>)
PUBLIC 2e630 0 std::__ndk1::__tree_remove[abi:ne180000]<std::__ndk1::__tree_node_base<void*>*>(std::__ndk1::__tree_node_base<void*>*, std::__ndk1::__tree_node_base<void*>*)
PUBLIC 2e9f8 0 std::__ndk1::__tree<std::__ndk1::__value_type<std::__ndk1::basic_string<char, std::__ndk1::char_traits<char>, std::__ndk1::allocator<char> >, std::__ndk1::shared_ptr<geode::Hook> >, std::__ndk1::__map_value_compare<std::__ndk1::basic_string<char, std::__ndk1::char_traits<char>, std::__ndk1::allocator<char> >, std::__ndk1::__value_type<std::__ndk1::basic_string<char, std::__ndk1::char_traits<char>, std::__ndk1::allocator<char> >, std::__ndk1::shared_ptr<geode::Hook> >, std::__ndk1::less<std::__ndk1::basic_string<char, std::__ndk1::char_traits<char>, std::__ndk1::allocator<char> > >, true>, std::__ndk1::allocator<std::__ndk1::__value_type<std::__ndk1::basic_string<char, std::__ndk1::char_traits<char>, std::__ndk1::allocator<char> >, std::__ndk1::shared_ptr<geode::Hook> > > >::destroy(std::__ndk1::__tree_node<std::__ndk1::__value_type<std::__ndk1::basic_string<char, std::__ndk1::char_traits<char>, std::__ndk1::allocator<char> >, std::__ndk1::shared_ptr<geode::Hook> >, void*>*)
PUBLIC 2ea84 0 geode::modifier::AsStaticFunction_addManualAchievements<HookedAchievementManager, void (HookedAchievementManager::*)()>::Impl<void (HookedAchievementManager::*)()>::function(HookedAchievementManager*)
PUBLIC 2ea88 0 std::__ndk1::shared_ptr<tulip::hook::CallingConvention>::~shared_ptr[abi:ne180000]()
PUBLIC 2ead8 0 tulip::hook::HandlerMetadata::~HandlerMetadata()
PUBLIC 2eb3c 0 std::__ndk1::__tree<std::__ndk1::__value_type<std::__ndk1::basic_string<char, std::__ndk1::char_traits<char>, std::__ndk1::allocator<char> >, std::__ndk1::shared_ptr<geode::Hook> >, std::__ndk1::__map_value_compare<std::__ndk1::basic_string<char, std::__ndk1::char_traits<char>, std::__ndk1::allocator<char> >, std::__ndk1::__value_type<std::__ndk1::basic_string<char, std::__ndk1::char_traits<char>, std::__ndk1::allocator<char> >, std::__ndk1::shared_ptr<geode::Hook> >, std::__ndk1::less<std::__ndk1::basic_string<char, std::__ndk1::char_traits<char>, std::__ndk1::allocator<char> > >, true>, std::__ndk1::allocator<std::__ndk1::__value_type<std::__ndk1::basic_string<char, std::__ndk1::char_traits<char>, std::__ndk1::allocator<char> >, std::__ndk1::shared_ptr<geode::Hook> > > >::__emplace_unique_key_args<std::__ndk1::basic_string<char, std::__ndk1::char_traits<char>, std::__ndk1::allocator<char> >, std::__ndk1::piecewise_construct_t const&, std::__ndk1::tuple<std::__ndk1::basic_string<char, std::__ndk1::char_traits<char>, std::__ndk1::allocator<char> >&&>, std::__ndk1::tuple<> >(std::__ndk1::basic_string<char, std::__ndk1::char_traits<char>, std::__ndk1::allocator<char> > const&, std::__ndk1::piecewise_construct_t const&, std::__ndk1::tuple<std::__ndk1::basic_string<char, std::__ndk1::char_traits<char>, std::__ndk1::allocator<char> >&&>, std::__ndk1::tuple<>)
PUBLIC 2ecb4 0 std::__ndk1::__tree_balance_after_insert[abi:ne180000]<std::__ndk1::__tree_node_base<void*>*>(std::__ndk1::__tree_node_base<void*>*, std::__ndk1::__tree_node_base<void*>*)
PUBLIC 2ee64 0 cocos2d::CCCopying::copyWithZone(cocos2d::CCZone*)
PUBLIC 2ee6c 0 __cxx_global_var_init
PUBLIC 2f2ec 0 geode::modifier::ModifyBase<geode::modifier::ModifyDerive<HookedGManager, GManager> >::~ModifyBase()
PUBLIC 2f308 0 std::__ndk1::__throw_out_of_range[abi:ne180000](char const*)
PUBLIC 2f358 0 std::out_of_range::out_of_range[abi:ne180000](char const*)
PUBLIC 2f388 0 geode::modifier::ModifyDerive<HookedGManager, GManager>::apply()
PUBLIC 2f690 0 geode::modifier::ModifyBase<geode::modifier::ModifyDerive<HookedGManager, GManager> >::apply()
PUBLIC 2f694 0 geode::modifier::AsStaticFunction_setup<HookedGManager, void (HookedGManager::*)()>::Impl<void (HookedGManager::*)()>::function(HookedGManager*)
PUBLIC 2f844 0 geode::addresser::Addresser::addressOfVirtual<void, GManager, >(void (GManager::*)())
PUBLIC 2f90c 0 GManager::GManager(geode::ZeroConstructorType)
PUBLIC 2f9a0 0 __cxx_global_var_init
PUBLIC 2fe20 0 geode::modifier::ModifyBase<geode::modifier::ModifyDerive<HookedGameLevelManager, GameLevelManager> >::~ModifyBase()
PUBLIC 2fe3c 0 geode::modifier::ModifyDerive<HookedGameLevelManager, GameLevelManager>::apply()
PUBLIC 30208 0 geode::modifier::ModifyBase<geode::modifier::ModifyDerive<HookedGameLevelManager, GameLevelManager> >::apply()
PUBLIC 3020c 0 geode::modifier::AsStaticFunction_getMainLevel<HookedGameLevelManager, GJGameLevel* (HookedGameLevelManager::*)(int, bool)>::Impl<GJGameLevel* (HookedGameLevelManager::*)(int, bool)>::function(HookedGameLevelManager*, int, bool)
PUBLIC 302f0 0 std::__ndk1::vector<tulip::hook::AbstractType, std::__ndk1::allocator<tulip::hook::AbstractType> >::__throw_length_error[abi:ne180000]() const
PUBLIC 30304 0 __cxx_global_var_init
PUBLIC 30784 0 geode::modifier::ModifyBase<geode::modifier::ModifyDerive<HookedGameManager, GameManager> >::~ModifyBase()
PUBLIC 307a0 0 geode::modifier::ModifyDerive<HookedGameManager, GameManager>::apply()
PUBLIC 316fc 0 geode::modifier::ModifyBase<geode::modifier::ModifyDerive<HookedGameManager, GameManager> >::apply()
PUBLIC 31700 0 geode::modifier::AsStaticFunction_dataLoaded<HookedGameManager, void (HookedGameManager::*)(DS_Dictionary*)>::Impl<void (HookedGameManager::*)(DS_Dictionary*)>::function(HookedGameManager*, DS_Dictionary*)
PUBLIC 31704 0 geode::modifier::AsStaticFunction_loadIcon<HookedGameManager, cocos2d::CCTexture2D* (HookedGameManager::*)(int, int, int)>::Impl<cocos2d::CCTexture2D* (HookedGameManager::*)(int, int, int)>::function(HookedGameManager*, int, int, int)
PUBLIC 31744 0 geode::modifier::AsStaticFunction_reportPercentageForLevel<HookedGameManager, void (HookedGameManager::*)(int, int, bool)>::Impl<void (HookedGameManager::*)(int, int, bool)>::function(HookedGameManager*, int, int, bool)
PUBLIC 317b0 0 geode::modifier::AsStaticFunction_returnToLastScene<HookedGameManager, void (HookedGameManager::*)(GJGameLevel*)>::Impl<void (HookedGameManager::*)(GJGameLevel*)>::function(HookedGameManager*, GJGameLevel*)
PUBLIC 31804 0 geode::modifier::AsStaticFunction_sheetNameForIcon<HookedGameManager, gd::string (HookedGameManager::*)(int, int)>::Impl<gd::string (HookedGameManager::*)(int, int)>::function(HookedGameManager*, int, int)
PUBLIC 31840 0 geode::addresser::Addresser::addressOfVirtual<void, GameManager, DS_Dictionary*>(void (GameManager::*)(DS_Dictionary*))
PUBLIC 31908 0 GameManager::GameManager(geode::ZeroConstructorType)
PUBLIC 31ba0 0 gd::map<int, gd::vector<cocos2d::CCObject*> >::~map()
PUBLIC 31bbc 0 gd::map<int, bool>::~map()
PUBLIC 31bd8 0 gd::map<int, gd::map<int, int> >::~map()
PUBLIC 31bf4 0 gd::map<int, int>::~map()
PUBLIC 31c10 0 gd::map<int, int>::insert_pair(std::__ndk1::pair<int, int> const&)
PUBLIC 31db0 0 geode::stl::_rb_insert_rebalance(bool, geode::stl::_rb_tree_base*, geode::stl::_rb_tree_base*, geode::stl::_rb_tree_base&)
PUBLIC 32068 0 std::__ndk1::__tree<std::__ndk1::__value_type<int, int>, std::__ndk1::__map_value_compare<int, std::__ndk1::__value_type<int, int>, std::__ndk1::less<int>, true>, std::__ndk1::allocator<std::__ndk1::__value_type<int, int> > >::destroy(std::__ndk1::__tree_node<std::__ndk1::__value_type<int, int>, void*>*)
PUBLIC 320ac 0 gd::map<int, gd::map<int, int> >::map(std::__ndk1::map<int, gd::map<int, int>, std::__ndk1::less<int>, std::__ndk1::allocator<std::__ndk1::pair<int const, gd::map<int, int> > > >)
PUBLIC 321f0 0 gd::map<int, gd::map<int, int> >::insert_pair(std::__ndk1::pair<int, gd::map<int, int> > const&)
PUBLIC 323c0 0 std::__ndk1::pair<int, gd::map<int, int> >::~pair()
PUBLIC 323e0 0 std::__ndk1::pair<int const, gd::map<int, int> >::~pair()
PUBLIC 32400 0 gd::map<int, int>::map(gd::map<int, int> const&)
PUBLIC 32500 0 gd::map<int, int>::operator std::__ndk1::map<int, int, std::__ndk1::less<int>, std::__ndk1::allocator<std::__ndk1::pair<int const, int> > >() const
PUBLIC 32680 0 std::__ndk1::__tree<std::__ndk1::__value_type<int, gd::map<int, int> >, std::__ndk1::__map_value_compare<int, std::__ndk1::__value_type<int, gd::map<int, int> >, std::__ndk1::less<int>, true>, std::__ndk1::allocator<std::__ndk1::__value_type<int, gd::map<int, int> > > >::destroy(std::__ndk1::__tree_node<std::__ndk1::__value_type<int, gd::map<int, int> >, void*>*)
PUBLIC 326d8 0 gd::map<int, gd::vector<cocos2d::CCObject*> >::map(std::__ndk1::map<int, gd::vector<cocos2d::CCObject*>, std::__ndk1::less<int>, std::__ndk1::allocator<std::__ndk1::pair<int const, gd::vector<cocos2d::CCObject*> > > >)
PUBLIC 328d8 0 gd::map<int, gd::vector<cocos2d::CCObject*> >::insert_pair(std::__ndk1::pair<int, gd::vector<cocos2d::CCObject*> > const&)
PUBLIC 32b58 0 std::__ndk1::__tree<std::__ndk1::__value_type<int, gd::vector<cocos2d::CCObject*> >, std::__ndk1::__map_value_compare<int, std::__ndk1::__value_type<int, gd::vector<cocos2d::CCObject*> >, std::__ndk1::less<int>, true>, std::__ndk1::allocator<std::__ndk1::__value_type<int, gd::vector<cocos2d::CCObject*> > > >::destroy(std::__ndk1::__tree_node<std::__ndk1::__value_type<int, gd::vector<cocos2d::CCObject*> >, void*>*)
PUBLIC 32ba4 0 gd::map<int, gd::vector<cocos2d::CCObject*> >::erase(geode::stl::_rb_tree_node<std::__ndk1::pair<int, gd::vector<cocos2d::CCObject*> > >*)
PUBLIC 32c00 0 gd::map<int, bool>::erase(geode::stl::_rb_tree_node<std::__ndk1::pair<int, bool> >*)
PUBLIC 32c54 0 gd::map<int, gd::map<int, int> >::erase(geode::stl::_rb_tree_node<std::__ndk1::pair<int, gd::map<int, int> > >*)
PUBLIC 32cb8 0 gd::map<int, int>::erase(geode::stl::_rb_tree_node<std::__ndk1::pair<int, int> >*)
PUBLIC 32d0c 0 __cxx_global_var_init
PUBLIC 3318c 0 geode::modifier::ModifyBase<geode::modifier::ModifyDerive<HookedGameStatsManager, GameStatsManager> >::~ModifyBase()
PUBLIC 331a8 0 geode::modifier::ModifyDerive<HookedGameStatsManager, GameStatsManager>::apply()
PUBLIC 33808 0 geode::modifier::ModifyBase<geode::modifier::ModifyDerive<HookedGameStatsManager, GameStatsManager> >::apply()
PUBLIC 3380c 0 geode::modifier::AsStaticFunction_checkCoinAchievement<HookedGameStatsManager, void (HookedGameStatsManager::*)(GJGameLevel*)>::Impl<void (HookedGameStatsManager::*)(GJGameLevel*)>::function(HookedGameStatsManager*, GJGameLevel*)
PUBLIC 339fc 0 geode::modifier::AsStaticFunction_getBaseCurrencyForLevel<HookedGameStatsManager, int (HookedGameStatsManager::*)(GJGameLevel*)>::Impl<int (HookedGameStatsManager::*)(GJGameLevel*)>::function(HookedGameStatsManager*, GJGameLevel*)
PUBLIC 33a20 0 __cxx_global_var_init
PUBLIC 33a6c 0 geode::modifier::ModifyBase<geode::modifier::ModifyDerive<HookedItemInfoPopup, ItemInfoPopup> >::~ModifyBase()
PUBLIC 33a88 0 geode::modifier::ModifyDerive<HookedItemInfoPopup, ItemInfoPopup>::apply()
PUBLIC 33a8c 0 geode::modifier::ModifyBase<geode::modifier::ModifyDerive<HookedItemInfoPopup, ItemInfoPopup> >::apply()
PUBLIC 33a90 0 cocos2d::CCNode::getChildByType<cocos2d::CCParticleSystemQuad, cocos2d::CCParticleSystemQuad>(int)
PUBLIC 33b6c 0 __cxx_global_var_init
PUBLIC 342d0 0 geode::modifier::ModifyBase<geode::modifier::ModifyDerive<HookedLevelPage, LevelPage> >::~ModifyBase()
PUBLIC 342ec 0 geode::modifier::ModifyDerive<HookedLevelPage, LevelPage>::apply()
PUBLIC 34c10 0 geode::modifier::ModifyBase<geode::modifier::ModifyDerive<HookedLevelPage, LevelPage> >::apply()
PUBLIC 34c14 0 std::__ndk1::unique_ptr<std::__ndk1::__tree_node<std::__ndk1::__value_type<std::__ndk1::basic_string<char, std::__ndk1::char_traits<char>, std::__ndk1::allocator<char> >, std::__ndk1::shared_ptr<geode::Hook> >, void*>, std::__ndk1::__tree_node_destructor<std::__ndk1::allocator<std::__ndk1::__tree_node<std::__ndk1::__value_type<std::__ndk1::basic_string<char, std::__ndk1::char_traits<char>, std::__ndk1::allocator<char> >, std::__ndk1::shared_ptr<geode::Hook> >, void*> > > >::~unique_ptr[abi:ne180000]()
PUBLIC 34c90 0 _ZN5geode15UnwrapExceptionC2IRNSt6__ndk112basic_stringIcNS2_11char_traitsIcEENS2_9allocatorIcEEEEQsr4implE18IsStringStreamableIT_EEENS_4impl6ErrTagEOSA_
PUBLIC 34df8 0 std::__ndk1::__variant_detail::__visitation::__base::__dispatcher<(unsigned long)0>::__dispatch[abi:ne180000]<std::__ndk1::__variant_detail::__dtor<std::__ndk1::__variant_detail::__traits<std::__ndk1::monostate, std::__ndk1::basic_string<char, std::__ndk1::char_traits<char>, std::__ndk1::allocator<char> > >, (std::__ndk1::__variant_detail::_Trait)1>::__destroy[abi:ne180000]()::{lambda(auto:1&)#1}, std::__ndk1::__variant_detail::__base<(std::__ndk1::__variant_detail::__traits<std::__ndk1::monostate, std::__ndk1::basic_string<char, std::__ndk1::char_traits<char>, std::__ndk1::allocator<char> > >)1, std::__ndk1::__variant_detail::__traits, std::__ndk1::allocator<char> >&>(std::__ndk1::__variant_detail::__dtor<std::__ndk1::__variant_detail::__traits<std::__ndk1::monostate, std::__ndk1::basic_string<char, std::__ndk1::char_traits<char>, std::__ndk1::allocator<char> > >, (std::__ndk1::__variant_detail::_Trait)1>, std::__ndk1::__variant_detail::__base<(std::__ndk1::__variant_detail::__traits<std::__ndk1::monostate, std::__ndk1::basic_string<char, std::__ndk1::char_traits<char>, std::__ndk1::allocator<char> > >)1, std::__ndk1::__variant_detail::__traits, std::__ndk1::allocator<char> >&)
PUBLIC 34dfc 0 std::__ndk1::__variant_detail::__visitation::__base::__dispatcher<(unsigned long)1>::__dispatch[abi:ne180000]<std::__ndk1::__variant_detail::__dtor<std::__ndk1::__variant_detail::__traits<std::__ndk1::monostate, std::__ndk1::basic_string<char, std::__ndk1::char_traits<char>, std::__ndk1::allocator<char> > >, (std::__ndk1::__variant_detail::_Trait)1>::__destroy[abi:ne180000]()::{lambda(auto:1&)#1}, std::__ndk1::__variant_detail::__base<(std::__ndk1::__variant_detail::__traits<std::__ndk1::monostate, std::__ndk1::basic_string<char, std::__ndk1::char_traits<char>, std::__ndk1::allocator<char> > >)1, std::__ndk1::__variant_detail::__traits, std::__ndk1::allocator<char> >&>(std::__ndk1::__variant_detail::__dtor<std::__ndk1::__variant_detail::__traits<std::__ndk1::monostate, std::__ndk1::basic_string<char, std::__ndk1::char_traits<char>, std::__ndk1::allocator<char> > >, (std::__ndk1::__variant_detail::_Trait)1>, std::__ndk1::__variant_detail::__base<(std::__ndk1::__variant_detail::__traits<std::__ndk1::monostate, std::__ndk1::basic_string<char, std::__ndk1::char_traits<char>, std::__ndk1::allocator<char> > >)1, std::__ndk1::__variant_detail::__traits, std::__ndk1::allocator<char> >&)
PUBLIC 34e10 0 geode::Hook::create<void (*)(HookedLevelPage*, cocos2d::CCObject*)>(void*, void (*)(HookedLevelPage*, cocos2d::CCObject*), std::__ndk1::basic_string<char, std::__ndk1::char_traits<char>, std::__ndk1::allocator<char> > const&, tulip::hook::TulipConvention, tulip::hook::HookMetadata const&)
PUBLIC 34f94 0 geode::modifier::AsStaticFunction_onInfo<HookedLevelPage, void (HookedLevelPage::*)(cocos2d::CCObject*)>::Impl<void (HookedLevelPage::*)(cocos2d::CCObject*)>::function(HookedLevelPage*, cocos2d::CCObject*)
PUBLIC 35084 0 geode::modifier::AsStaticFunction_onPlay<HookedLevelPage, void (HookedLevelPage::*)(cocos2d::CCObject*)>::Impl<void (HookedLevelPage::*)(cocos2d::CCObject*)>::function(HookedLevelPage*, cocos2d::CCObject*)
PUBLIC 35088 0 geode::modifier::AsStaticFunction_onTheTower<HookedLevelPage, void (HookedLevelPage::*)(cocos2d::CCObject*)>::Impl<void (HookedLevelPage::*)(cocos2d::CCObject*)>::function(HookedLevelPage*, cocos2d::CCObject*)
PUBLIC 35954 0 geode::modifier::AsStaticFunction_updateDynamicPage<HookedLevelPage, void (HookedLevelPage::*)(GJGameLevel*)>::Impl<void (HookedLevelPage::*)(GJGameLevel*)>::function(HookedLevelPage*, GJGameLevel*)
PUBLIC 35d04 0 geode::cast::traverseTypeinfoFor(void*, geode::cast::ClassTypeinfoType const*, char const*)
PUBLIC 35e08 0 HookedLevelSelectLayer::createGoldCoinDialog()
PUBLIC 3609c 0 cocos2d::CCSequence::create(cocos2d::CCFiniteTimeAction*, ...)
PUBLIC 36134 0 geode::cocos::CCArrayExt<cocos2d::CCSprite*, cocos2d::CCSprite>::~CCArrayExt()
PUBLIC 36150 0 __cxx_global_var_init
PUBLIC 365d0 0 geode::modifier::ModifyBase<geode::modifier::ModifyDerive<HookedLevelSelectLayer, LevelSelectLayer> >::~ModifyBase()
PUBLIC 365ec 0 geode::modifier::ModifyDerive<HookedLevelSelectLayer, LevelSelectLayer>::apply()
PUBLIC 36ee0 0 geode::modifier::ModifyBase<geode::modifier::ModifyDerive<HookedLevelSelectLayer, LevelSelectLayer> >::apply()
PUBLIC 36ee4 0 geode::modifier::AsStaticFunction_colorForPage<HookedLevelSelectLayer, cocos2d::_ccColor3B (HookedLevelSelectLayer::*)(int)>::Impl<cocos2d::_ccColor3B (HookedLevelSelectLayer::*)(int)>::function(HookedLevelSelectLayer*, int)
PUBLIC 36f88 0 geode::modifier::AsStaticFunction_init<HookedLevelSelectLayer, bool (HookedLevelSelectLayer::*)(int)>::Impl<bool (HookedLevelSelectLayer::*)(int)>::function(HookedLevelSelectLayer*, int)
PUBLIC 37430 0 geode::modifier::AsStaticFunction_onPrev<HookedLevelSelectLayer, void (HookedLevelSelectLayer::*)(cocos2d::CCObject*)>::Impl<void (HookedLevelSelectLayer::*)(cocos2d::CCObject*)>::function(HookedLevelSelectLayer*, cocos2d::CCObject*)
PUBLIC 37434 0 __cxx_global_var_init
PUBLIC 378b4 0 geode::modifier::ModifyBase<geode::modifier::ModifyDerive<HookedLevelTools, LevelTools> >::~ModifyBase()
PUBLIC 378d0 0 geode::modifier::ModifyDerive<HookedLevelTools, LevelTools>::apply()
PUBLIC 38fd0 0 geode::modifier::ModifyBase<geode::modifier::ModifyDerive<HookedLevelTools, LevelTools> >::apply()
PUBLIC 38fd4 0 geode::modifier::AsStaticFunction_artistForAudio<HookedLevelTools, int (*)(int)>::Impl<int (*)(int)>::function(int)
PUBLIC 38ff4 0 geode::Hook::create<gd::string (*)(int)>(void*, gd::string (*)(int), std::__ndk1::basic_string<char, std::__ndk1::char_traits<char>, std::__ndk1::allocator<char> > const&, tulip::hook::TulipConvention, tulip::hook::HookMetadata const&)
PUBLIC 39128 0 geode::modifier::AsStaticFunction_fbURLForArtist<HookedLevelTools, gd::string (*)(int)>::Impl<gd::string (*)(int)>::function(int)
PUBLIC 39144 0 geode::modifier::AsStaticFunction_getAudioFileName<HookedLevelTools, gd::string (*)(int)>::Impl<gd::string (*)(int)>::function(int)
PUBLIC 39250 0 geode::modifier::AsStaticFunction_getAudioTitle<HookedLevelTools, gd::string (*)(int)>::Impl<gd::string (*)(int)>::function(int)
PUBLIC 3935c 0 geode::modifier::AsStaticFunction_getLevel<HookedLevelTools, GJGameLevel* (*)(int, bool)>::Impl<GJGameLevel* (*)(int, bool)>::function(int, bool)
PUBLIC 398c8 0 geode::modifier::AsStaticFunction_nameForArtist<HookedLevelTools, gd::string (*)(int)>::Impl<gd::string (*)(int)>::function(int)
PUBLIC 398e4 0 geode::modifier::AsStaticFunction_ngURLForArtist<HookedLevelTools, gd::string (*)(int)>::Impl<gd::string (*)(int)>::function(int)
PUBLIC 39900 0 geode::modifier::AsStaticFunction_urlForAudio<HookedLevelTools, gd::string (*)(int)>::Impl<gd::string (*)(int)>::function(int)
PUBLIC 39a0c 0 geode::modifier::AsStaticFunction_verifyLevelIntegrity<HookedLevelTools, bool (*)(gd::string, int)>::Impl<bool (*)(gd::string, int)>::function(gd::string, int)
PUBLIC 39a64 0 geode::modifier::AsStaticFunction_ytURLForArtist<HookedLevelTools, gd::string (*)(int)>::Impl<gd::string (*)(int)>::function(int)
PUBLIC 39a80 0 __cxx_global_var_init
PUBLIC 39f00 0 geode::modifier::ModifyBase<geode::modifier::ModifyDerive<HookedLoadingLayer, LoadingLayer> >::~ModifyBase()
PUBLIC 39f1c 0 std::__ndk1::__fs::filesystem::path::operator/=[abi:ne180000](std::__ndk1::__fs::filesystem::path const&)
PUBLIC 3a004 0 std::__ndk1::basic_string<char, std::__ndk1::char_traits<char>, std::__ndk1::allocator<char> >::__assign_no_alias<true>(char const*, unsigned long)
PUBLIC 3a0b0 0 std::__ndk1::basic_string<char, std::__ndk1::char_traits<char>, std::__ndk1::allocator<char> >::__assign_no_alias<false>(char const*, unsigned long)
PUBLIC 3a1c0 0 geode::modifier::ModifyDerive<HookedLoadingLayer, LoadingLayer>::apply()
PUBLIC 3a7b0 0 geode::modifier::ModifyBase<geode::modifier::ModifyDerive<HookedLoadingLayer, LoadingLayer> >::apply()
PUBLIC 3a7b4 0 geode::modifier::AsStaticFunction_init<HookedLoadingLayer, bool (HookedLoadingLayer::*)(bool)>::Impl<bool (HookedLoadingLayer::*)(bool)>::function(HookedLoadingLayer*, bool)
PUBLIC 3adf0 0 geode::modifier::AsStaticFunction_loadAssets<HookedLoadingLayer, void (HookedLoadingLayer::*)()>::Impl<void (HookedLoadingLayer::*)()>::function(HookedLoadingLayer*)
PUBLIC 3af3c 0 cocos2d::CCString::createWithFormat(char const*, ...)
PUBLIC 3b07c 0 __cxx_global_var_init
PUBLIC 3b4fc 0 geode::modifier::ModifyBase<geode::modifier::ModifyDerive<HookedLocalLevelManager, LocalLevelManager> >::~ModifyBase()
PUBLIC 3b518 0 geode::modifier::ModifyDerive<HookedLocalLevelManager, LocalLevelManager>::apply()
PUBLIC 3b8a0 0 geode::modifier::ModifyBase<geode::modifier::ModifyDerive<HookedLocalLevelManager, LocalLevelManager> >::apply()
PUBLIC 3b8a4 0 geode::modifier::AsStaticFunction_getMainLevelString<HookedLocalLevelManager, gd::string (HookedLocalLevelManager::*)(int)>::Impl<gd::string (HookedLocalLevelManager::*)(int)>::function(HookedLocalLevelManager*, int)
PUBLIC 3b900 0 cocos2d::CCKeyboardDelegate::keyUp(cocos2d::enumKeyCodes)
PUBLIC 3b904 0 cocos2d::CCMouseDelegate::rightKeyDown()
PUBLIC 3b908 0 cocos2d::CCMouseDelegate::rightKeyUp()
PUBLIC 3b90c 0 cocos2d::CCMouseDelegate::scrollWheel(float, float)
PUBLIC 3b910 0 __cxx_global_var_init
PUBLIC 3bd90 0 geode::modifier::ModifyBase<geode::modifier::ModifyDerive<HookedMenuLayer, MenuLayer> >::~ModifyBase()
PUBLIC 3bdac 0 geode::modifier::ModifyDerive<HookedMenuLayer, MenuLayer>::apply()
PUBLIC 3c498 0 geode::modifier::ModifyBase<geode::modifier::ModifyDerive<HookedMenuLayer, MenuLayer> >::apply()
PUBLIC 3c49c 0 geode::modifier::AsStaticFunction_init<HookedMenuLayer, bool (HookedMenuLayer::*)()>::Impl<bool (HookedMenuLayer::*)()>::function(HookedMenuLayer*)
PUBLIC 3c5d0 0 geode::Hook::create<void (*)(HookedMenuLayer*, cocos2d::CCObject*)>(void*, void (*)(HookedMenuLayer*, cocos2d::CCObject*), std::__ndk1::basic_string<char, std::__ndk1::char_traits<char>, std::__ndk1::allocator<char> > const&, tulip::hook::TulipConvention, tulip::hook::HookMetadata const&)
PUBLIC 3c754 0 geode::modifier::AsStaticFunction_onCreator<HookedMenuLayer, void (HookedMenuLayer::*)(cocos2d::CCObject*)>::Impl<void (HookedMenuLayer::*)(cocos2d::CCObject*)>::function(HookedMenuLayer*, cocos2d::CCObject*)
PUBLIC 3c8c4 0 geode::modifier::AsStaticFunction_onMoreGames<HookedMenuLayer, void (HookedMenuLayer::*)(cocos2d::CCObject*)>::Impl<void (HookedMenuLayer::*)(cocos2d::CCObject*)>::function(HookedMenuLayer*, cocos2d::CCObject*)
PUBLIC 3c8e0 0 geode::addresser::Addresser::addressOfVirtual<bool, MenuLayer, >(bool (MenuLayer::*)())
PUBLIC 3c988 0 MenuLayer::MenuLayer(geode::ZeroConstructorType)
PUBLIC 3ca24 0 __cxx_global_var_init
PUBLIC 3cea4 0 geode::modifier::ModifyBase<geode::modifier::ModifyDerive<HookedMusicDownloadManager, MusicDownloadManager> >::~ModifyBase()
PUBLIC 3cec0 0 geode::modifier::ModifyDerive<HookedMusicDownloadManager, MusicDownloadManager>::apply()
PUBLIC 3d35c 0 geode::modifier::ModifyBase<geode::modifier::ModifyDerive<HookedMusicDownloadManager, MusicDownloadManager> >::apply()
PUBLIC 3d360 0 geode::Hook::create<gd::string (*)(HookedMusicDownloadManager*, int)>(void*, gd::string (*)(HookedMusicDownloadManager*, int), std::__ndk1::basic_string<char, std::__ndk1::char_traits<char>, std::__ndk1::allocator<char> > const&, tulip::hook::TulipConvention, tulip::hook::HookMetadata const&)
PUBLIC 3d4e4 0 geode::modifier::AsStaticFunction_pathForSFXFolder<HookedMusicDownloadManager, gd::string (HookedMusicDownloadManager::*)(int)>::Impl<gd::string (HookedMusicDownloadManager::*)(int)>::function(HookedMusicDownloadManager*, int)
PUBLIC 3d4f4 0 geode::modifier::AsStaticFunction_pathForSongFolder<HookedMusicDownloadManager, gd::string (HookedMusicDownloadManager::*)(int)>::Impl<gd::string (HookedMusicDownloadManager::*)(int)>::function(HookedMusicDownloadManager*, int)
PUBLIC 3d504 0 __cxx_global_var_init
PUBLIC 3d550 0 geode::modifier::ModifyBase<geode::modifier::ModifyDerive<HookedSimplePlayer, SimplePlayer> >::~ModifyBase()
PUBLIC 3d56c 0 geode::modifier::ModifyDerive<HookedSimplePlayer, SimplePlayer>::apply()
PUBLIC 3d570 0 geode::modifier::ModifyBase<geode::modifier::ModifyDerive<HookedSimplePlayer, SimplePlayer> >::apply()
PUBLIC 3d574 0 CreditsLayer::setup()
PUBLIC 3e93c 0 CreditsLayer::onNext(cocos2d::CCObject*)
PUBLIC 3e94c 0 CreditsLayer::onPrev(cocos2d::CCObject*)
PUBLIC 3e95c 0 CreditsLayer::changeTab()
PUBLIC 3ea78 0 CreditsLayer::onResetGameVar(cocos2d::CCObject*)
PUBLIC 3ec28 0 CreditsLayer::create()
PUBLIC 3eda4 0 CreditsLayer::keyDown(cocos2d::enumKeyCodes)
PUBLIC 3ee50 0 geode::Popup<>::keyDown(cocos2d::enumKeyCodes)
PUBLIC 3ee78 0 {virtual override thunk({offset(-344)}, CreditsLayer::keyDown(cocos2d::enumKeyCodes))}
PUBLIC 3ef2c 0 geode::Popup<>::~Popup()
PUBLIC 3ef98 0 CreditsLayer::~CreditsLayer()
PUBLIC 3f00c 0 geode::Popup<>::registerWithTouchDispatcher()
PUBLIC 3f038 0 cocos2d::CCLayerRGBA::setOpacityModifyRGB(bool)
PUBLIC 3f03c 0 cocos2d::CCLayerRGBA::isOpacityModifyRGB()
PUBLIC 3f044 0 geode::Popup<>::onClose(cocos2d::CCObject*)
PUBLIC 3f18c 0 {virtual override thunk({offset(-320)}, CreditsLayer::~CreditsLayer())}
PUBLIC 3f1f8 0 {virtual override thunk({offset(-320)}, CreditsLayer::~CreditsLayer())}
PUBLIC 3f26c 0 {virtual override thunk({offset(-408)}, cocos2d::CCLayerRGBA::setOpacityModifyRGB(bool))}
PUBLIC 3f270 0 {virtual override thunk({offset(-408)}, cocos2d::CCLayerRGBA::isOpacityModifyRGB())}
PUBLIC 3f278 0 geode::Popup<>::~Popup()
PUBLIC 3f27c 0 {virtual override thunk({offset(-320)}, geode::Popup<>::~Popup())}
PUBLIC 3f2e8 0 {virtual override thunk({offset(-320)}, geode::Popup<>::~Popup())}
PUBLIC 3f2ec 0 {virtual override thunk({offset(-344)}, geode::Popup<>::keyDown(cocos2d::enumKeyCodes))}
PUBLIC 3f318 0 geode::Popup<>::initBase(float, float, char const*, cocos2d::CCRect, bool)
PUBLIC 3f620 0 geode::Popup<>::CloseEvent::~CloseEvent()
PUBLIC 3f680 0 geode::Popup<>::CloseEvent::~CloseEvent()
PUBLIC 3f6f0 0 std::__ndk1::__shared_ptr_emplace<geode::Popup<>::CloseEvent::Impl, std::__ndk1::allocator<geode::Popup<>::CloseEvent::Impl> >::~__shared_ptr_emplace()
PUBLIC 3f700 0 std::__ndk1::__shared_ptr_emplace<geode::Popup<>::CloseEvent::Impl, std::__ndk1::allocator<geode::Popup<>::CloseEvent::Impl> >::~__shared_ptr_emplace()
PUBLIC 3f730 0 std::__ndk1::__shared_ptr_emplace<geode::Popup<>::CloseEvent::Impl, std::__ndk1::allocator<geode::Popup<>::CloseEvent::Impl> >::__on_zero_shared()
PUBLIC 3f734 0 std::__ndk1::__shared_ptr_emplace<geode::Popup<>::CloseEvent::Impl, std::__ndk1::allocator<geode::Popup<>::CloseEvent::Impl> >::__on_zero_shared_weak()
PUBLIC 3f738 0 VaultLayer::init()
PUBLIC 401a8 0 std::__ndk1::basic_string<char, std::__ndk1::char_traits<char>, std::__ndk1::allocator<char> >::basic_string[abi:ne180000]<0>()
PUBLIC 40244 0 VaultLayer::onSubmit(cocos2d::CCObject*)
PUBLIC 4129c 0 VaultLayer::onClose(cocos2d::CCObject*)
PUBLIC 412dc 0 VaultLayer::onRuin(cocos2d::CCObject*)
PUBLIC 41414 0 VaultLayer::timeReborn()
PUBLIC 4157c 0 VaultLayer::playStep1()
PUBLIC 4164c 0 VaultLayer::getBasicMessage()
PUBLIC 41c5c 0 VaultLayer::keyBackClicked()
PUBLIC 41c9c 0 {virtual override thunk({offset(-336)}, VaultLayer::keyBackClicked())}
PUBLIC 41cdc 0 VaultLayer::scene()
PUBLIC 41db8 0 VaultLayer::~VaultLayer()
PUBLIC 41ddc 0 {virtual override thunk({offset(-320)}, VaultLayer::~VaultLayer())}
PUBLIC 41de4 0 {virtual override thunk({offset(-320)}, VaultLayer::~VaultLayer())}
PUBLIC 41e0c 0 std::__ndk1::basic_string<char, std::__ndk1::char_traits<char>, std::__ndk1::allocator<char> >::__assign_external(char const*, unsigned long)
PUBLIC 41f10 0 std::__ndk1::__function::__base<void (FLAlertLayer*, bool)>::~__base()
PUBLIC 41f14 0 std::__ndk1::__function::__func<VaultLayer::timeReborn()::$_0, std::__ndk1::allocator<VaultLayer::timeReborn()::$_0>, void (FLAlertLayer*, bool)>::~__func()
PUBLIC 41f18 0 std::__ndk1::__function::__func<VaultLayer::timeReborn()::$_0, std::__ndk1::allocator<VaultLayer::timeReborn()::$_0>, void (FLAlertLayer*, bool)>::__clone() const
PUBLIC 41f3c 0 std::__ndk1::__function::__func<VaultLayer::timeReborn()::$_0, std::__ndk1::allocator<VaultLayer::timeReborn()::$_0>, void (FLAlertLayer*, bool)>::__clone(std::__ndk1::__function::__base<void (FLAlertLayer*, bool)>*) const
PUBLIC 41f4c 0 std::__ndk1::__function::__func<VaultLayer::timeReborn()::$_0, std::__ndk1::allocator<VaultLayer::timeReborn()::$_0>, void (FLAlertLayer*, bool)>::destroy()
PUBLIC 41f50 0 std::__ndk1::__function::__func<VaultLayer::timeReborn()::$_0, std::__ndk1::allocator<VaultLayer::timeReborn()::$_0>, void (FLAlertLayer*, bool)>::destroy_deallocate()
PUBLIC 41f54 0 std::__ndk1::__function::__func<VaultLayer::timeReborn()::$_0, std::__ndk1::allocator<VaultLayer::timeReborn()::$_0>, void (FLAlertLayer*, bool)>::operator()(FLAlertLayer*&&, bool&&)
PUBLIC 42028 0 std::__ndk1::__function::__func<VaultLayer::timeReborn()::$_0, std::__ndk1::allocator<VaultLayer::timeReborn()::$_0>, void (FLAlertLayer*, bool)>::target(std::type_info const&) const
PUBLIC 42044 0 std::__ndk1::__function::__func<VaultLayer::timeReborn()::$_0, std::__ndk1::allocator<VaultLayer::timeReborn()::$_0>, void (FLAlertLayer*, bool)>::target_type() const
PUBLIC 42050 0 __cxx_global_var_init
PUBLIC 4248c 0 __cxx_global_var_init.2
PUBLIC 428c8 0 geode::modifier::ModifyBase<geode::modifier::ModifyDerive<hook12<(anonymous namespace)::hook12Parent>, cocos2d::CCSprite> >::~ModifyBase()
PUBLIC 428e4 0 __cxx_global_var_init.1
PUBLIC 42d64 0 geode::modifier::ModifyBase<geode::modifier::ModifyDerive<HookedEditorUI, EditorUI> >::~ModifyBase()
PUBLIC 42d80 0 geode::modifier::ModifyBase<geode::modifier::ModifyDerive<hook70<(anonymous namespace)::hook70Parent>, SongsLayer> >::~ModifyBase()
PUBLIC 42d9c 0 geode::modifier::ModifyDerive<hook12<(anonymous namespace)::hook12Parent>, cocos2d::CCSprite>::apply()
PUBLIC 430dc 0 geode::modifier::ModifyBase<geode::modifier::ModifyDerive<hook12<(anonymous namespace)::hook12Parent>, cocos2d::CCSprite> >::apply()
PUBLIC 430e0 0 geode::modifier::AsStaticFunction_create<hook12<(anonymous namespace)::hook12Parent>, cocos2d::CCSprite* (*)(char const*)>::Impl<cocos2d::CCSprite* (*)(char const*)>::function(char const*)
PUBLIC 43198 0 geode::modifier::ModifyDerive<HookedEditorUI, EditorUI>::apply()
PUBLIC 434f8 0 geode::modifier::ModifyBase<geode::modifier::ModifyDerive<HookedEditorUI, EditorUI> >::apply()
PUBLIC 434fc 0 geode::modifier::AsStaticFunction_init<HookedEditorUI, bool (HookedEditorUI::*)(LevelEditorLayer*)>::Impl<bool (HookedEditorUI::*)(LevelEditorLayer*)>::function(HookedEditorUI*, LevelEditorLayer*)
PUBLIC 43574 0 HookedEditorUI::createJumpscare()
PUBLIC 4373c 0 HookedEditorUI::playJumpAudio()
PUBLIC 437cc 0 HookedEditorUI::removeJumpscare()
PUBLIC 43840 0 geode::modifier::FieldIntermediate<HookedEditorUI, EditorUI>::self()
PUBLIC 43e80 0 geode::modifier::FieldIntermediate<HookedEditorUI, EditorUI>::fieldDestructor(void*)
PUBLIC 43e84 0 std::__ndk1::vector<void*, std::__ndk1::allocator<void*> >::__throw_length_error[abi:ne180000]() const
PUBLIC 43e98 0 std::__ndk1::vector<std::__ndk1::function<void (void*)>, std::__ndk1::allocator<std::__ndk1::function<void (void*)> > >::__throw_length_error[abi:ne180000]() const
PUBLIC 43eac 0 std::__ndk1::vector<void*, std::__ndk1::allocator<void*> >::__throw_out_of_range[abi:ne180000]() const
PUBLIC 43ec0 0 std::__ndk1::vector<std::__ndk1::function<void (void*)>, std::__ndk1::allocator<std::__ndk1::function<void (void*)> > >::__throw_out_of_range[abi:ne180000]() const
PUBLIC 43ed4 0 std::__ndk1::__function::__base<void (void*)>::~__base()
PUBLIC 43ed8 0 std::__ndk1::__function::__func<void (*)(void*), std::__ndk1::allocator<void (*)(void*)>, void (void*)>::~__func()
PUBLIC 43edc 0 std::__ndk1::__function::__func<void (*)(void*), std::__ndk1::allocator<void (*)(void*)>, void (void*)>::__clone() const
PUBLIC 43f14 0 std::__ndk1::__function::__func<void (*)(void*), std::__ndk1::allocator<void (*)(void*)>, void (void*)>::__clone(std::__ndk1::__function::__base<void (void*)>*) const
PUBLIC 43f2c 0 std::__ndk1::__function::__func<void (*)(void*), std::__ndk1::allocator<void (*)(void*)>, void (void*)>::destroy()
PUBLIC 43f30 0 std::__ndk1::__function::__func<void (*)(void*), std::__ndk1::allocator<void (*)(void*)>, void (void*)>::destroy_deallocate()
PUBLIC 43f34 0 std::__ndk1::__function::__func<void (*)(void*), std::__ndk1::allocator<void (*)(void*)>, void (void*)>::operator()(void*&&)
PUBLIC 43f44 0 std::__ndk1::__function::__func<void (*)(void*), std::__ndk1::allocator<void (*)(void*)>, void (void*)>::target(std::type_info const&) const
PUBLIC 43f60 0 std::__ndk1::__function::__func<void (*)(void*), std::__ndk1::allocator<void (*)(void*)>, void (void*)>::target_type() const
PUBLIC 43f6c 0 geode::modifier::ModifyDerive<hook70<(anonymous namespace)::hook70Parent>, SongsLayer>::apply()
PUBLIC 4429c 0 geode::modifier::ModifyBase<geode::modifier::ModifyDerive<hook70<(anonymous namespace)::hook70Parent>, SongsLayer> >::apply()
PUBLIC 442a0 0 geode::modifier::AsStaticFunction_customSetup<hook70<(anonymous namespace)::hook70Parent>, void (hook70<(anonymous namespace)::hook70Parent>::*)()>::Impl<void (hook70<(anonymous namespace)::hook70Parent>::*)()>::function(hook70<(anonymous namespace)::hook70Parent>*)
PUBLIC 443dc 0 geode::addresser::Addresser::addressOfVirtual<void, SongsLayer, >(void (SongsLayer::*)())
PUBLIC 44484 0 SongsLayer::SongsLayer(geode::ZeroConstructorType)
PUBLIC 4450c 0 CreditNode::init(char const*, char const*, int, int, int, int, bool, int)
PUBLIC 44b70 0 CreditNode::onUser(cocos2d::CCObject*)
PUBLIC 44b94 0 CreditNode::~CreditNode()
PUBLIC 44bb8 0 LevelNode::create(int, std::__ndk1::basic_string<char, std::__ndk1::char_traits<char>, std::__ndk1::allocator<char> >, int, IconType, int)
PUBLIC 44d40 0 LevelNode::init(int, std::__ndk1::basic_string<char, std::__ndk1::char_traits<char>, std::__ndk1::allocator<char> >, int, IconType, int)
PUBLIC 451f8 0 LevelNode::onInfo(cocos2d::CCObject*)
PUBLIC 454b8 0 LevelNode::~LevelNode()
PUBLIC 454f8 0 LevelNode::~LevelNode()
PUBLIC 4553c 0 fmt::v11::detail::value<fmt::v11::context>::format_custom_arg<gd::string, fmt::v11::formatter<gd::string, char, void> >(void*, fmt::v11::basic_format_parse_context<char>&, fmt::v11::context&)
PUBLIC 45710 0 fmt::v11::detail::parse_format_specs<char>(char const*, char const*, fmt::v11::detail::dynamic_format_specs<char>&, fmt::v11::basic_format_parse_context<char>&, fmt::v11::detail::type)
PUBLIC 45bc4 0 fmt::v11::detail::parse_dynamic_spec<char>(char const*, char const*, int&, fmt::v11::detail::arg_ref<char>&, fmt::v11::basic_format_parse_context<char>&)
PUBLIC 45d68 0 fmt::v11::detail::do_parse_arg_id<char, fmt::v11::detail::dynamic_spec_id_handler<char>&>(char const*, char const*, fmt::v11::detail::dynamic_spec_id_handler<char>&)
PUBLIC 45efc 0 fmt::v11::detail::handle_dynamic_spec<fmt::v11::detail::width_checker, fmt::v11::context>(int&, fmt::v11::detail::arg_ref<fmt::v11::context::char_type>, fmt::v11::context&)
PUBLIC 46010 0 fmt::v11::detail::handle_dynamic_spec<fmt::v11::detail::precision_checker, fmt::v11::context>(int&, fmt::v11::detail::arg_ref<fmt::v11::context::char_type>, fmt::v11::context&)
PUBLIC 46124 0 fmt::v11::detail::write<char, fmt::v11::basic_appender<char> >(fmt::v11::basic_appender<char>, fmt::v11::basic_string_view<char>, fmt::v11::format_specs const&)
PUBLIC 463a0 0 fmt::v11::detail::write_escaped_string<char, fmt::v11::detail::counting_iterator>(fmt::v11::detail::counting_iterator, fmt::v11::basic_string_view<char>)
PUBLIC 468c0 0 fmt::v11::detail::write_padded<char, (fmt::v11::align::type)1, fmt::v11::basic_appender<char>, fmt::v11::detail::write<char, fmt::v11::basic_appender<char> >(fmt::v11::basic_appender<char>, fmt::v11::basic_string_view<char>, fmt::v11::format_specs const&)::{lambda(fmt::v11::basic_appender<char>)#1}>(fmt::v11::basic_appender<char>, fmt::v11::format_specs const&, unsigned long, unsigned long, fmt::v11::detail::write<char, fmt::v11::basic_appender<char> >(fmt::v11::basic_appender<char>, fmt::v11::basic_string_view<char>, fmt::v11::format_specs const&)::{lambda(fmt::v11::basic_appender<char>&&)#1})
PUBLIC 46acc 0 fmt::v11::detail::for_each_codepoint<fmt::v11::detail::code_point_index(fmt::v11::basic_string_view<char>, unsigned long)::{lambda(unsigned int, fmt::v11::basic_string_view<char>)#1}>(fmt::v11::basic_string_view<char>, fmt::v11::detail::code_point_index(fmt::v11::basic_string_view<char>, unsigned long)::{lambda(unsigned int, fmt::v11::basic_string_view<char>)#1})
PUBLIC 46ef4 0 fmt::v11::detail::write_escaped_cp<fmt::v11::detail::counting_iterator, char>(fmt::v11::detail::counting_iterator, fmt::v11::detail::find_escape_result<char> const&)
PUBLIC 47088 0 fmt::v11::detail::for_each_codepoint<fmt::v11::detail::compute_width(fmt::v11::basic_string_view<char>)::count_code_points>(fmt::v11::basic_string_view<char>, fmt::v11::detail::compute_width(fmt::v11::basic_string_view<char>)::count_code_points)::{lambda(char const*, char const*)#1}::operator()(char const*, char const*) const
PUBLIC 47240 0 fmt::v11::detail::fill<char, fmt::v11::basic_appender<char> >(fmt::v11::basic_appender<char>, unsigned long, fmt::v11::detail::fill_t const&)
PUBLIC 47410 0 fmt::v11::detail::write_escaped_string<char, fmt::v11::basic_appender<char> >(fmt::v11::basic_appender<char>, fmt::v11::basic_string_view<char>)
PUBLIC 47a8c 0 fmt::v11::detail::write_escaped_cp<fmt::v11::basic_appender<char>, char>(fmt::v11::basic_appender<char>, fmt::v11::detail::find_escape_result<char> const&)
PUBLIC 47c70 0 fmt::v11::detail::write_codepoint<(unsigned long)2, char, fmt::v11::basic_appender<char> >(fmt::v11::basic_appender<char>, char, unsigned int)
PUBLIC 47de8 0 fmt::v11::detail::write_codepoint<(unsigned long)4, char, fmt::v11::basic_appender<char> >(fmt::v11::basic_appender<char>, char, unsigned int)
PUBLIC 47f60 0 fmt::v11::detail::write_codepoint<(unsigned long)8, char, fmt::v11::basic_appender<char> >(fmt::v11::basic_appender<char>, char, unsigned int)
PUBLIC 480d8 0 fmt::v11::detail::get_dynamic_spec<fmt::v11::detail::width_checker, fmt::v11::basic_format_arg<fmt::v11::context> >(fmt::v11::basic_format_arg<fmt::v11::context>)
PUBLIC 4816c 0 fmt::v11::basic_format_args<fmt::v11::context>::get<char>(fmt::v11::basic_string_view<char>) const
PUBLIC 482c4 0 fmt::v11::detail::get_dynamic_spec<fmt::v11::detail::precision_checker, fmt::v11::basic_format_arg<fmt::v11::context> >(fmt::v11::basic_format_arg<fmt::v11::context>)
PUBLIC 48358 0 SavePopup::create()
PUBLIC 48464 0 SavePopup::init()
PUBLIC 48838 0 SavePopup::onClose(cocos2d::CCObject*)
PUBLIC 488a0 0 SavePopup::keyBackClicked()
PUBLIC 488a4 0 {virtual override thunk({offset(-336)}, SavePopup::keyBackClicked())}
PUBLIC 488a8 0 SavePopup::~SavePopup()
PUBLIC 488cc 0 {virtual override thunk({offset(-320)}, SavePopup::~SavePopup())}
PUBLIC 488d4 0 {virtual override thunk({offset(-320)}, SavePopup::~SavePopup())}
PUBLIC m 488fc 0 geodeImplicitEntry
PUBLIC 48938 0 std::__ndk1::unordered_map<void*, bool, std::__ndk1::hash<void*>, std::__ndk1::equal_to<void*>, std::__ndk1::allocator<std::__ndk1::pair<void* const, bool> > >::~unordered_map[abi:ne180000]()
PUBLIC 48984 0 wrapFunction(unsigned long, tulip::hook::WrapperMetadata const&)
PUBLIC 48ab8 0 geode::impl::ResultData<void*, std::__ndk1::basic_string<char, std::__ndk1::char_traits<char>, std::__ndk1::allocator<char> > >::unwrapErr() &
PUBLIC 48b30 0 geode::impl::ResultData<void*, std::__ndk1::basic_string<char, std::__ndk1::char_traits<char>, std::__ndk1::allocator<char> > >::~ResultData()
PUBLIC 48ba4 0 tulip::hook::WrapperMetadata::~WrapperMetadata()
PUBLIC 48c08 0 cocos2d::CCObject::~CCObject()
PUBLIC 48c2c 0 cocos2d::CCNode::CCNode()
PUBLIC 48e88 0 cocos2d::CCNode::~CCNode()
PUBLIC 48eac 0 cocos2d::CCLayer::CCLayer()
PUBLIC 49130 0 {virtual override thunk({offset(-320)}, cocos2d::CCLayer::~CCLayer())}
PUBLIC 49138 0 cocos2d::CCLayer::~CCLayer()
PUBLIC 4915c 0 {virtual override thunk({offset(-320)}, cocos2d::CCLayer::~CCLayer())}
PUBLIC 49184 0 cocos2d::CCLayerRGBA::~CCLayerRGBA()
PUBLIC 49484 0 {virtual override thunk({offset(-320)}, cocos2d::CCLayerRGBA::~CCLayerRGBA())}
PUBLIC 4948c 0 cocos2d::CCLayerRGBA::~CCLayerRGBA()
PUBLIC 494b0 0 {virtual override thunk({offset(-320)}, cocos2d::CCLayerRGBA::~CCLayerRGBA())}
PUBLIC 494d8 0 cocos2d::CCLayerColor::CCLayerColor()
PUBLIC 4973c 0 {virtual override thunk({offset(-320)}, cocos2d::CCLayerColor::~CCLayerColor())}
PUBLIC 49744 0 cocos2d::CCLayerColor::~CCLayerColor()
PUBLIC 49768 0 {virtual override thunk({offset(-320)}, cocos2d::CCLayerColor::~CCLayerColor())}
PUBLIC 49790 0 {virtual override thunk({offset(-320)}, FLAlertLayer::~FLAlertLayer())}
PUBLIC 49798 0 FLAlertLayer::~FLAlertLayer()
PUBLIC 497bc 0 {virtual override thunk({offset(-320)}, FLAlertLayer::~FLAlertLayer())}
PUBLIC 497e4 0 FLAlertLayer::create(FLAlertLayerProtocol*, char const*, gd::string, char const*, char const*, float)
PUBLIC 4999c 0 tulip::hook::AbstractFunction::from<FLAlertLayer*, FLAlertLayerProtocol*, char const*, gd::string, char const*, char const*, float>(FLAlertLayer* (*)(FLAlertLayerProtocol*, char const*, gd::string, char const*, char const*, float))
PUBLIC 49e80 0 AchievementManager::addAchievement(gd::string, gd::string, gd::string, gd::string, gd::string, int)
PUBLIC 4a0b0 0 tulip::hook::AbstractFunction::from<void, AchievementManager*, gd::string, gd::string, gd::string, gd::string, gd::string, int>(void (*)(AchievementManager*, gd::string, gd::string, gd::string, gd::string, gd::string, int))
PUBLIC 4a6b8 0 DialogObject::create(gd::string, gd::string, int, float, bool, cocos2d::_ccColor3B)
PUBLIC 4a88c 0 tulip::hook::AbstractFunction::from<DialogObject*, gd::string, gd::string, int, float, bool, cocos2d::_ccColor3B>(DialogObject* (*)(gd::string, gd::string, int, float, bool, cocos2d::_ccColor3B))
PUBLIC 4ad4c 0 FMODAudioEngine::playEffect(gd::string, float, float, float)
PUBLIC 4aeec 0 tulip::hook::AbstractFunction::from<void, FMODAudioEngine*, gd::string, float, float, float>(void (*)(FMODAudioEngine*, gd::string, float, float, float))
PUBLIC 4b2a4 0 FMODAudioEngine::playEffect(gd::string)
PUBLIC 4b41c 0 tulip::hook::AbstractFunction::from<void, FMODAudioEngine*, gd::string>(void (*)(FMODAudioEngine*, gd::string))
PUBLIC 4b4c0 0 GameManager::~GameManager()
PUBLIC 4b9fc 0 GameManager::~GameManager()
PUBLIC 4ba20 0 tulip::hook::AbstractFunction::from<void, GameManager*, gd::string>(void (*)(GameManager*, gd::string))
PUBLIC 4bac4 0 GameManager::fadeInMusic(gd::string)
PUBLIC 4bc3c 0 TextArea::create(gd::string, char const*, float, float, cocos2d::CCPoint, float, bool)
PUBLIC 4be04 0 tulip::hook::AbstractFunction::from<TextArea*, gd::string, char const*, float, float, cocos2d::CCPoint, float, bool>(TextArea* (*)(gd::string, char const*, float, float, cocos2d::CCPoint, float, bool))
PUBLIC 4c3c0 0 cocos2d::CCObject::update(float)
PUBLIC 4c3c4 0 cocos2d::CCLayerColor::~CCLayerColor()
PUBLIC 4c6a8 0 FLAlertLayer::~FLAlertLayer()
PUBLIC 4c98c 0 cocos2d::CCNode::~CCNode()
PUBLIC 4cc2c 0 cocos2d::CCLayer::~CCLayer()
PUBLIC 4cf1c 0 cocos2d::CCObject::~CCObject()
PUBLIC 4d410 0 _ZN5geode15UnwrapExceptionC2IRPvQsr4implE18IsStringStreamableIT_EEENS_4impl5OkTagEOS4_
PUBLIC 4d564 0 std::__ndk1::__variant_detail::__visitation::__base::__dispatcher<(unsigned long)0>::__dispatch[abi:ne180000]<std::__ndk1::__variant_detail::__dtor<std::__ndk1::__variant_detail::__traits<void*, std::__ndk1::basic_string<char, std::__ndk1::char_traits<char>, std::__ndk1::allocator<char> > >, (std::__ndk1::__variant_detail::_Trait)1>::__destroy[abi:ne180000]()::{lambda(auto:1&)#1}, std::__ndk1::__variant_detail::__base<(std::__ndk1::__variant_detail::__traits<void*, std::__ndk1::basic_string<char, std::__ndk1::char_traits<char>, std::__ndk1::allocator<char> > >)1, std::__ndk1::__variant_detail::__traits, std::__ndk1::allocator<char> >&>(std::__ndk1::__variant_detail::__dtor<std::__ndk1::__variant_detail::__traits<void*, std::__ndk1::basic_string<char, std::__ndk1::char_traits<char>, std::__ndk1::allocator<char> > >, (std::__ndk1::__variant_detail::_Trait)1>, std::__ndk1::__variant_detail::__base<(std::__ndk1::__variant_detail::__traits<void*, std::__ndk1::basic_string<char, std::__ndk1::char_traits<char>, std::__ndk1::allocator<char> > >)1, std::__ndk1::__variant_detail::__traits, std::__ndk1::allocator<char> >&)
PUBLIC 4d568 0 std::__ndk1::__variant_detail::__visitation::__base::__dispatcher<(unsigned long)1>::__dispatch[abi:ne180000]<std::__ndk1::__variant_detail::__dtor<std::__ndk1::__variant_detail::__traits<void*, std::__ndk1::basic_string<char, std::__ndk1::char_traits<char>, std::__ndk1::allocator<char> > >, (std::__ndk1::__variant_detail::_Trait)1>::__destroy[abi:ne180000]()::{lambda(auto:1&)#1}, std::__ndk1::__variant_detail::__base<(std::__ndk1::__variant_detail::__traits<void*, std::__ndk1::basic_string<char, std::__ndk1::char_traits<char>, std::__ndk1::allocator<char> > >)1, std::__ndk1::__variant_detail::__traits, std::__ndk1::allocator<char> >&>(std::__ndk1::__variant_detail::__dtor<std::__ndk1::__variant_detail::__traits<void*, std::__ndk1::basic_string<char, std::__ndk1::char_traits<char>, std::__ndk1::allocator<char> > >, (std::__ndk1::__variant_detail::_Trait)1>, std::__ndk1::__variant_detail::__base<(std::__ndk1::__variant_detail::__traits<void*, std::__ndk1::basic_string<char, std::__ndk1::char_traits<char>, std::__ndk1::allocator<char> > >)1, std::__ndk1::__variant_detail::__traits, std::__ndk1::allocator<char> >&)
PUBLIC 4d57c 0 std::__ndk1::__hash_table<std::__ndk1::__hash_value_type<void*, bool>, std::__ndk1::__unordered_map_hasher<void*, std::__ndk1::__hash_value_type<void*, bool>, std::__ndk1::hash<void*>, std::__ndk1::equal_to<void*>, true>, std::__ndk1::__unordered_map_equal<void*, std::__ndk1::__hash_value_type<void*, bool>, std::__ndk1::equal_to<void*>, std::__ndk1::hash<void*>, true>, std::__ndk1::allocator<std::__ndk1::__hash_value_type<void*, bool> > >::__emplace_unique_key_args<void*, std::__ndk1::piecewise_construct_t const&, std::__ndk1::tuple<void* const&>, std::__ndk1::tuple<> >(void* const&, std::__ndk1::piecewise_construct_t const&, std::__ndk1::tuple<void* const&>, std::__ndk1::tuple<>)
PUBLIC 4da88 0 __udivti3
PUBLIC 4da94 0 __udivmodti4
PUBLIC m 4dce0 0 __eqtf2
PUBLIC 4dd80 0 __unordtf2
PUBLIC 4ddb8 0 fmt::v11::detail::write_loc(fmt::v11::basic_appender<char>, fmt::v11::loc_value, fmt::v11::format_specs const&, fmt::v11::detail::locale_ref)
PUBLIC 4e04c 0 fmt::v11::format_facet<std::__ndk1::locale>::~format_facet()
PUBLIC 4e0c8 0 fmt::v11::report_error(char const*)
PUBLIC 4e118 0 fmt::v11::format_error::runtime_error(char const*)
PUBLIC 4e144 0 fmt::v11::format_facet<std::__ndk1::locale>::do_put(fmt::v11::basic_appender<char>, fmt::v11::loc_value, fmt::v11::format_specs const&) const
PUBLIC 4e904 0 fmt::v11::detail::loc_writer<char>::~loc_writer()
PUBLIC 4e968 0 fmt::v11::detail::vformat_to<char>(fmt::v11::detail::buffer<char>&, fmt::v11::basic_string_view<char>, fmt::v11::detail::vformat_args<char>::type, fmt::v11::detail::locale_ref)
PUBLIC 4eed8 0 fmt::v11::detail::is_printable(unsigned int)
PUBLIC 4f100 0 fmt::v11::detail::dragonbox::to_decimal<float>(float)
PUBLIC 4f3dc 0 fmt::v11::detail::dragonbox::to_decimal<double>(double)
PUBLIC 4f918 0 fmt::v11::basic_memory_buffer<char, (unsigned long)500, std::__ndk1::allocator<char> >::grow(fmt::v11::detail::buffer<char>&, unsigned long)
PUBLIC 4f990 0 fmt::v11::format_facet<std::__ndk1::locale>::~format_facet()
PUBLIC 4fa1c 0 fmt::v11::format_error::~format_error()
PUBLIC 4fa40 0 fmt::v11::detail::copy_noinline<char, char const*, fmt::v11::basic_appender<char> >(char const*, char const*, fmt::v11::basic_appender<char>)
PUBLIC 4fb90 0 fmt::v11::detail::default_arg_formatter<char>::operator()<bool>(bool)
PUBLIC 4fbf8 0 fmt::v11::detail::default_arg_formatter<char>::operator()<char>(char)
PUBLIC 4fc88 0 fmt::v11::detail::default_arg_formatter<char>::operator()<float>(float)
PUBLIC 4fd74 0 fmt::v11::detail::default_arg_formatter<char>::operator()<double>(double)
PUBLIC 4fe60 0 fmt::v11::detail::default_arg_formatter<char>::operator()<char const*>(char const*)
PUBLIC 4fea8 0 fmt::v11::detail::default_arg_formatter<char>::operator()<void const*>(void const*)
PUBLIC 4ff40 0 _ZN3fmt3v116detail5writeIcNS0_14basic_appenderIcEEiTnNSt6__ndk19enable_ifIXaaaasr11is_integralIT1_EE5valuentsr3std7is_sameIS7_bEE5valuentsr3std7is_sameIS7_T_EE5valueEiE4typeELi0EEET0_SB_S7_
PUBLIC 501a0 0 fmt::v11::detail::copy_noinline<char, char*, fmt::v11::basic_appender<char> >(char*, char*, fmt::v11::basic_appender<char>)
PUBLIC 502f0 0 _ZN3fmt3v116detail5writeIcNS0_14basic_appenderIcEEjTnNSt6__ndk19enable_ifIXaaaasr11is_integralIT1_EE5valuentsr3std7is_sameIS7_bEE5valuentsr3std7is_sameIS7_T_EE5valueEiE4typeELi0EEET0_SB_S7_
PUBLIC 504d0 0 _ZN3fmt3v116detail5writeIcNS0_14basic_appenderIcEExTnNSt6__ndk19enable_ifIXaaaasr11is_integralIT1_EE5valuentsr3std7is_sameIS7_bEE5valuentsr3std7is_sameIS7_T_EE5valueEiE4typeELi0EEET0_SB_S7_
PUBLIC 50754 0 _ZN3fmt3v116detail5writeIcNS0_14basic_appenderIcEEyTnNSt6__ndk19enable_ifIXaaaasr11is_integralIT1_EE5valuentsr3std7is_sameIS7_bEE5valuentsr3std7is_sameIS7_T_EE5valueEiE4typeELi0EEET0_SB_S7_
PUBLIC 5095c 0 _ZN3fmt3v116detail5writeIcNS0_14basic_appenderIcEEnTnNSt6__ndk19enable_ifIXaaaasr11is_integralIT1_EE5valuentsr3std7is_sameIS7_bEE5valuentsr3std7is_sameIS7_T_EE5valueEiE4typeELi0EEET0_SB_S7_
PUBLIC 50cbc 0 _ZN3fmt3v116detail5writeIcNS0_14basic_appenderIcEEoTnNSt6__ndk19enable_ifIXaaaasr11is_integralIT1_EE5valuentsr3std7is_sameIS7_bEE5valuentsr3std7is_sameIS7_T_EE5valueEiE4typeELi0EEET0_SB_S7_
PUBLIC 50fd0 0 _ZN3fmt3v116detail5writeIcNS0_14basic_appenderIcEEbTnNSt6__ndk19enable_ifIXsr3std7is_sameIT1_bEE5valueEiE4typeELi0EEET0_SA_S7_RKNS0_12format_specsENS1_10locale_refE
PUBLIC 51284 0 fmt::v11::detail::write_int_noinline<char, fmt::v11::basic_appender<char>, unsigned int>(fmt::v11::basic_appender<char>, fmt::v11::detail::write_int_arg<unsigned int>, fmt::v11::format_specs const&, fmt::v11::detail::locale_ref)
PUBLIC 52064 0 fmt::v11::detail::write_padded<char, (fmt::v11::align::type)1, fmt::v11::basic_appender<char>, fmt::v11::detail::write_char<char, fmt::v11::basic_appender<char> >(fmt::v11::basic_appender<char>, char, fmt::v11::format_specs const&)::{lambda(fmt::v11::basic_appender<char>&)#1}>(fmt::v11::basic_appender<char>, fmt::v11::format_specs const&, unsigned long, unsigned long, fmt::v11::detail::write_char<char, fmt::v11::basic_appender<char> >(fmt::v11::basic_appender<char>, char, fmt::v11::format_specs const&)::{lambda(fmt::v11::basic_appender<char>&)#1})
PUBLIC 522c8 0 fmt::v11::detail::write_padded<char, (fmt::v11::align::type)1, fmt::v11::basic_appender<char>, fmt::v11::detail::write_nonfinite<char, fmt::v11::basic_appender<char> >(fmt::v11::basic_appender<char>, bool, fmt::v11::format_specs, fmt::v11::sign::type)::{lambda(fmt::v11::basic_appender<char>&)#1}>(fmt::v11::basic_appender<char>, fmt::v11::format_specs const&, unsigned long, unsigned long, fmt::v11::detail::write_nonfinite<char, fmt::v11::basic_appender<char> >(fmt::v11::basic_appender<char>, bool, fmt::v11::format_specs, fmt::v11::sign::type)::{lambda(fmt::v11::basic_appender<char>&)#1})
PUBLIC 52520 0 fmt::v11::detail::do_write_float<char, fmt::v11::basic_appender<char>, fmt::v11::detail::dragonbox::decimal_fp<float>, fmt::v11::detail::digit_grouping<char> >(fmt::v11::basic_appender<char>, fmt::v11::detail::dragonbox::decimal_fp<float> const&, fmt::v11::format_specs const&, fmt::v11::detail::float_specs, fmt::v11::detail::locale_ref)
PUBLIC 531a4 0 fmt::v11::detail::do_write_float<char, fmt::v11::basic_appender<char>, fmt::v11::detail::dragonbox::decimal_fp<float>, fmt::v11::detail::digit_grouping<char> >(fmt::v11::basic_appender<char>, fmt::v11::detail::dragonbox::decimal_fp<float> const&, fmt::v11::format_specs const&, fmt::v11::detail::float_specs, fmt::v11::detail::locale_ref)::{lambda(fmt::v11::basic_appender<char>(fmt::v11::basic_appender<char>))#1}::operator() const
PUBLIC 532f8 0 fmt::v11::detail::digit_grouping<char>::digit_grouping(fmt::v11::detail::locale_ref, bool)
PUBLIC 53564 0 fmt::v11::detail::digit_grouping<char>::~digit_grouping()
PUBLIC 535a8 0 fmt::v11::detail::write_exponent<char, fmt::v11::basic_appender<char> >(int, fmt::v11::basic_appender<char>)
PUBLIC 53778 0 _ZN3fmt3v116detail17write_significandIcjTnNSt6__ndk19enable_ifIXsr3std11is_integralIT0_EE5valueEiE4typeELi0EEEPT_S9_S5_iiS8_
PUBLIC 538f4 0 fmt::v11::detail::digit_grouping<char>::apply<fmt::v11::basic_appender<char>, char>(fmt::v11::basic_appender<char>, fmt::v11::basic_string_view<char>) const
PUBLIC 53cac 0 fmt::v11::basic_memory_buffer<int, (unsigned long)500, std::__ndk1::allocator<int> >::grow(fmt::v11::detail::buffer<int>&, unsigned long)
PUBLIC 53d4c 0 fmt::v11::detail::do_write_float<char, fmt::v11::basic_appender<char>, fmt::v11::detail::dragonbox::decimal_fp<double>, fmt::v11::detail::digit_grouping<char> >(fmt::v11::basic_appender<char>, fmt::v11::detail::dragonbox::decimal_fp<double> const&, fmt::v11::format_specs const&, fmt::v11::detail::float_specs, fmt::v11::detail::locale_ref)
PUBLIC 54a0c 0 fmt::v11::detail::do_write_float<char, fmt::v11::basic_appender<char>, fmt::v11::detail::dragonbox::decimal_fp<double>, fmt::v11::detail::digit_grouping<char> >(fmt::v11::basic_appender<char>, fmt::v11::detail::dragonbox::decimal_fp<double> const&, fmt::v11::format_specs const&, fmt::v11::detail::float_specs, fmt::v11::detail::locale_ref)::{lambda(fmt::v11::basic_appender<char>(fmt::v11::basic_appender<char>))#1}::operator() const
PUBLIC 54b64 0 _ZN3fmt3v116detail17write_significandIcmTnNSt6__ndk19enable_ifIXsr3std11is_integralIT0_EE5valueEiE4typeELi0EEEPT_S9_S5_iiS8_
PUBLIC 54cf4 0 fmt::v11::detail::write_float<char, fmt::v11::basic_appender<char>, long double>(fmt::v11::basic_appender<char>, long double, fmt::v11::format_specs, fmt::v11::detail::locale_ref)
PUBLIC 557ec 0 fmt::v11::detail::write_padded<char, (fmt::v11::align::type)2, fmt::v11::basic_appender<char>, fmt::v11::detail::write_bytes<char, (fmt::v11::align::type)2, fmt::v11::basic_appender<char> >(fmt::v11::basic_appender<char>, fmt::v11::basic_string_view<char>, fmt::v11::format_specs const&)::{lambda(fmt::v11::basic_appender<char>&)#1}>(fmt::v11::basic_appender<char>, fmt::v11::format_specs const&, unsigned long, unsigned long, fmt::v11::detail::write_bytes<char, (fmt::v11::align::type)2, fmt::v11::basic_appender<char> >(fmt::v11::basic_appender<char>, fmt::v11::basic_string_view<char>, fmt::v11::format_specs const&)::{lambda(fmt::v11::basic_appender<char>&)#1})
PUBLIC 559e0 0 fmt::v11::detail::format_dragon(fmt::v11::detail::basic_fp<unsigned __int128>, unsigned int, int, fmt::v11::detail::buffer<char>&, int&)
PUBLIC 56e10 0 fmt::v11::detail::bigint::operator<<=(int)
PUBLIC 56f34 0 fmt::v11::detail::bigint::assign_pow10(int)
PUBLIC 57690 0 fmt::v11::detail::bigint::divmod_assign(fmt::v11::detail::bigint const&)
PUBLIC 579b0 0 fmt::v11::basic_memory_buffer<unsigned int, (unsigned long)32, std::__ndk1::allocator<unsigned int> >::grow(fmt::v11::detail::buffer<unsigned int>&, unsigned long)
PUBLIC 57a50 0 fmt::v11::detail::do_write_float<char, fmt::v11::basic_appender<char>, fmt::v11::detail::big_decimal_fp, fmt::v11::detail::digit_grouping<char> >(fmt::v11::basic_appender<char>, fmt::v11::detail::big_decimal_fp const&, fmt::v11::format_specs const&, fmt::v11::detail::float_specs, fmt::v11::detail::locale_ref)
PUBLIC 58930 0 fmt::v11::detail::do_write_float<char, fmt::v11::basic_appender<char>, fmt::v11::detail::big_decimal_fp, fmt::v11::detail::digit_grouping<char> >(fmt::v11::basic_appender<char>, fmt::v11::detail::big_decimal_fp const&, fmt::v11::format_specs const&, fmt::v11::detail::float_specs, fmt::v11::detail::locale_ref)::{lambda(fmt::v11::basic_appender<char>(fmt::v11::basic_appender<char>))#1}::operator() const
PUBLIC 58a90 0 fmt::v11::detail::write_padded<char, (fmt::v11::align::type)2, fmt::v11::basic_appender<char>, fmt::v11::detail::write_ptr<char, fmt::v11::basic_appender<char>, unsigned long>(fmt::v11::basic_appender<char>, unsigned long, fmt::v11::format_specs const*)::{lambda(fmt::v11::basic_appender<char>&)#1}>(fmt::v11::basic_appender<char>, fmt::v11::format_specs const&, unsigned long, unsigned long, fmt::v11::detail::write_ptr<char, fmt::v11::basic_appender<char>, unsigned long>(fmt::v11::basic_appender<char>, unsigned long, fmt::v11::format_specs const*)::{lambda(fmt::v11::basic_appender<char>&)#1})
PUBLIC 58ca4 0 fmt::v11::detail::parse_replacement_field<char, fmt::v11::detail::vformat_to<char>(fmt::v11::detail::buffer<char>&, fmt::v11::basic_string_view<char>, fmt::v11::detail::vformat_args<char>::type, fmt::v11::detail::locale_ref)::format_handler&>(char const*, char const*, fmt::v11::detail::vformat_to<char>(fmt::v11::detail::buffer<char>&, fmt::v11::basic_string_view<char>, fmt::v11::detail::vformat_args<char>::type, fmt::v11::detail::locale_ref)::format_handler&)
PUBLIC 5a158 0 fmt::v11::detail::write_int_noinline<char, fmt::v11::basic_appender<char>, unsigned long>(fmt::v11::basic_appender<char>, fmt::v11::detail::write_int_arg<unsigned long>, fmt::v11::format_specs const&, fmt::v11::detail::locale_ref)
PUBLIC 5afb8 0 fmt::v11::detail::write_int_noinline<char, fmt::v11::basic_appender<char>, unsigned __int128>(fmt::v11::basic_appender<char>, fmt::v11::detail::write_int_arg<unsigned __int128>, fmt::v11::format_specs const&, fmt::v11::detail::locale_ref)
PUBLIC 5c048 0 _ZN3fmt3v116detail15format_hexfloatIdTnNSt6__ndk19enable_ifIXntsr16is_double_doubleIT_EE5valueEiE4typeELi0EEEvS5_NS0_12format_specsERNS1_6bufferIcEE
PUBLIC 5c568 0 fmt::v11::detail::format_float<double>(double, int, fmt::v11::detail::float_specs, fmt::v11::detail::buffer<char>&)
PUBLIC 5cf08 0 fmt::v11::detail::write_int<fmt::v11::basic_appender<char>, unsigned long, char>(fmt::v11::basic_appender<char>, unsigned long, unsigned int, fmt::v11::format_specs const&, fmt::v11::detail::digit_grouping<char> const&)
PUBLIC 5d484 0 fmt::v11::detail::write_int<fmt::v11::basic_appender<char>, unsigned __int128, char>(fmt::v11::basic_appender<char>, unsigned __int128, unsigned int, fmt::v11::format_specs const&, fmt::v11::detail::digit_grouping<char> const&)
PUBLIC 5db00 0 __CortexA53843419_44000
PUBLIC 5db10 0 <.plt ELF section in capeling.geometry-dash-lunar.android64.so>
STACK CFI INIT 27d10 10 .cfa: sp 0 +
STACK CFI INIT 27d20 8 .cfa: sp 0 +
STACK CFI INIT 27d28 8 .cfa: sp 0 +
STACK CFI INIT 27d30 14 .cfa: sp 0 +
STACK CFI INIT 27d44 1c .cfa: sp 0 +
STACK CFI INIT 27d60 10 .cfa: sp 0 +
STACK CFI INIT 27d70 30 .cfa: sp 0 +
STACK CFI INIT 27da0 98 .cfa: sp 0 +
STACK CFI INIT 27e38 59c .cfa: sp 0 +
STACK CFI INIT 283d4 8c .cfa: sp 0 +
STACK CFI INIT 28460 30 .cfa: sp 0 +
STACK CFI INIT 2d1ec 1c .cfa: sp 0 +
STACK CFI INIT 2d54c 50 .cfa: sp 0 +
STACK CFI 2d550 .cfa: sp 32 +
STACK CFI 2d558 .cfa: x29 32 + x19: .cfa -16 + ^ .ra: .cfa -24 + ^ x29: .cfa -32 + ^
STACK CFI 2d570 .cfa: sp 32 +
STACK CFI 2d578 .cfa: sp 0 +
STACK CFI 2d57c .cfa: x29 32 +
STACK CFI 2d590 .cfa: sp 32 +
STACK CFI 2d598 .cfa: sp 0 +
STACK CFI INIT 2d610 7c .cfa: sp 0 +
STACK CFI 2d614 .cfa: sp 48 +
STACK CFI 2d620 .cfa: x29 48 + x19: .cfa -8 + ^ x20: .cfa -16 + ^ x21: .cfa -32 + ^ .ra: .cfa -40 + ^ x29: .cfa -48 + ^
STACK CFI 2d66c .cfa: sp 48 +
STACK CFI 2d678 .cfa: sp 0 +
STACK CFI 2d67c .cfa: sp 48 +
STACK CFI 2d688 .cfa: sp 0 +
STACK CFI INIT 2d68c 4 .cfa: sp 0 +
STACK CFI INIT 2d690 10 .cfa: sp 0 +
STACK CFI 2d694 .cfa: sp 16 +
STACK CFI 2d698 .cfa: x29 16 + .ra: .cfa -8 + ^ x29: .cfa -16 + ^
STACK CFI INIT 2d7f4 34 .cfa: sp 0 +
STACK CFI 2d7f8 .cfa: sp 16 +
STACK CFI 2d7fc .cfa: x29 16 + .ra: .cfa -8 + ^ x29: .cfa -16 + ^
STACK CFI INIT 2d954 80 .cfa: sp 0 +
STACK CFI 2d958 .cfa: sp 48 +
STACK CFI 2d964 .cfa: x29 48 + x19: .cfa -8 + ^ x20: .cfa -16 + ^ x21: .cfa -32 + ^ .ra: .cfa -40 + ^ x29: .cfa -48 + ^
STACK CFI 2d9c4 .cfa: sp 48 +
STACK CFI 2d9d0 .cfa: sp 0 +
STACK CFI INIT 2d9d4 24 .cfa: sp 0 +
STACK CFI 2d9d8 .cfa: sp 32 +
STACK CFI 2d9e0 .cfa: x29 32 + x19: .cfa -16 + ^ .ra: .cfa -24 + ^ x29: .cfa -32 + ^
STACK CFI 2d9ec .cfa: sp 32 +
STACK CFI 2d9f4 .cfa: sp 0 +
STACK CFI INIT 2dd78 14 .cfa: sp 0 +
STACK CFI 2dd7c .cfa: sp 16 +
STACK CFI 2dd80 .cfa: x29 16 + .ra: .cfa -8 + ^ x29: .cfa -16 + ^
STACK CFI INIT 2dddc 30 .cfa: sp 0 +
STACK CFI 2dde0 .cfa: sp 32 +
STACK CFI 2dde8 .cfa: x29 32 + x19: .cfa -16 + ^ .ra: .cfa -24 + ^ x29: .cfa -32 + ^
STACK CFI 2de00 .cfa: sp 32 +
STACK CFI 2de08 .cfa: sp 0 +
STACK CFI INIT 2de0c 34 .cfa: sp 0 +
STACK CFI 2de10 .cfa: sp 32 +
STACK CFI 2de18 .cfa: x29 32 + x19: .cfa -16 + ^ .ra: .cfa -24 + ^ x29: .cfa -32 + ^
STACK CFI INIT 2dfb8 148 .cfa: sp 0 +
STACK CFI 2dfbc .cfa: sp 48 +
STACK CFI 2dfc8 .cfa: x29 48 + x19: .cfa -8 + ^ x20: .cfa -16 + ^ x21: .cfa -32 + ^ .ra: .cfa -40 + ^ x29: .cfa -48 + ^
STACK CFI 2e0f0 .cfa: sp 48 +
STACK CFI 2e0fc .cfa: sp 0 +
STACK CFI INIT 2e328 80 .cfa: sp 0 +
STACK CFI 2e32c .cfa: sp 48 +
STACK CFI 2e338 .cfa: x29 48 + x19: .cfa -8 + ^ x20: .cfa -16 + ^ x21: .cfa -24 + ^ x22: .cfa -32 + ^ .ra: .cfa -40 + ^ x29: .cfa -48 + ^
STACK CFI 2e350 .cfa: sp 48 +
STACK CFI 2e35c .cfa: sp 0 +
STACK CFI 2e360 .cfa: x29 48 +
STACK CFI 2e390 .cfa: sp 48 +
STACK CFI 2e39c .cfa: sp 0 +
STACK CFI 2e3a0 .cfa: x29 48 +
STACK CFI INIT 2e3a8 68 .cfa: sp 0 +
STACK CFI 2e3ac .cfa: sp 32 +
STACK CFI 2e3b4 .cfa: x29 32 + x19: .cfa -8 + ^ x20: .cfa -16 + ^ .ra: .cfa -24 + ^ x29: .cfa -32 + ^
STACK CFI 2e3cc .cfa: sp 32 +
STACK CFI 2e3d4 .cfa: sp 0 +
STACK CFI 2e3d8 .cfa: x29 32 +
STACK CFI 2e404 .cfa: sp 32 +
STACK CFI 2e40c .cfa: sp 0 +
STACK CFI INIT 2e410 14 .cfa: sp 0 +
STACK CFI 2e414 .cfa: sp 16 +
STACK CFI 2e418 .cfa: x29 16 + .ra: .cfa -8 + ^ x29: .cfa -16 + ^
STACK CFI INIT 2e424 4 .cfa: sp 0 +
STACK CFI INIT 2e428 14 .cfa: sp 0 +
STACK CFI INIT 2e43c 120 .cfa: sp 0 +
STACK CFI 2e440 .cfa: sp 64 +
STACK CFI 2e450 .cfa: x29 64 + x19: .cfa -8 + ^ x20: .cfa -16 + ^ x21: .cfa -24 + ^ x22: .cfa -32 + ^ x23: .cfa -40 + ^ x24: .cfa -48 + ^ .ra: .cfa -56 + ^ x29: .cfa -64 + ^
STACK CFI 2e548 .cfa: sp 64 +
STACK CFI 2e558 .cfa: sp 0 +
STACK CFI INIT 2e55c d4 .cfa: sp 0 +
STACK CFI 2e560 .cfa: sp 48 +
STACK CFI 2e56c .cfa: x29 48 + x19: .cfa -8 + ^ x20: .cfa -16 + ^ x21: .cfa -32 + ^ .ra: .cfa -40 + ^ x29: .cfa -48 + ^
STACK CFI 2e5fc .cfa: sp 48 +
STACK CFI 2e608 .cfa: sp 0 +
STACK CFI 2e60c .cfa: x29 48 +
STACK CFI INIT 2e630 3c8 .cfa: sp 0 +
STACK CFI INIT 2e9f8 8c .cfa: sp 0 +
STACK CFI 2ea00 .cfa: sp 32 +
STACK CFI 2ea08 .cfa: x29 32 + x19: .cfa -8 + ^ x20: .cfa -16 + ^ .ra: .cfa -24 + ^ x29: .cfa -32 + ^
STACK CFI 2ea50 .cfa: sp 32 +
STACK CFI 2ea58 .cfa: sp 0 +
STACK CFI 2ea60 .cfa: x29 32 +
STACK CFI INIT 2ea84 4 .cfa: sp 0 +
STACK CFI INIT 2ea88 50 .cfa: sp 0 +
STACK CFI 2ea8c .cfa: sp 32 +
STACK CFI 2ea94 .cfa: x29 32 + x19: .cfa -16 + ^ .ra: .cfa -24 + ^ x29: .cfa -32 + ^
STACK CFI 2eaac .cfa: sp 32 +
STACK CFI 2eab4 .cfa: sp 0 +
STACK CFI 2eab8 .cfa: x29 32 +
STACK CFI 2eacc .cfa: sp 32 +
STACK CFI 2ead4 .cfa: sp 0 +
STACK CFI INIT 2ead8 64 .cfa: sp 0 +
STACK CFI 2eadc .cfa: sp 32 +
STACK CFI 2eae4 .cfa: x29 32 + x19: .cfa -16 + ^ .ra: .cfa -24 + ^ x29: .cfa -32 + ^
STACK CFI 2eb10 .cfa: sp 32 +
STACK CFI 2eb18 .cfa: sp 0 +
STACK CFI 2eb1c .cfa: x29 32 +
STACK CFI 2eb30 .cfa: sp 32 +
STACK CFI 2eb38 .cfa: sp 0 +
STACK CFI INIT 2eb3c 178 .cfa: sp 0 +
STACK CFI 2eb40 .cfa: sp 80 +
STACK CFI 2eb54 .cfa: x29 80 + x19: .cfa -8 + ^ x20: .cfa -16 + ^ x21: .cfa -24 + ^ x22: .cfa -32 + ^ x23: .cfa -40 + ^ x24: .cfa -48 + ^ x25: .cfa -56 + ^ x26: .cfa -64 + ^ .ra: .cfa -72 + ^ x29: .cfa -80 + ^
STACK CFI 2ec9c .cfa: sp 80 +
STACK CFI 2ecb0 .cfa: sp 0 +
STACK CFI INIT 2ecb4 1b0 .cfa: sp 0 +
STACK CFI INIT 2ee64 8 .cfa: sp 0 +
STACK CFI INIT 2f2ec 1c .cfa: sp 0 +
STACK CFI INIT 2f358 30 .cfa: sp 0 +
STACK CFI 2f35c .cfa: sp 32 +
STACK CFI 2f364 .cfa: x29 32 + x19: .cfa -16 + ^ .ra: .cfa -24 + ^ x29: .cfa -32 + ^
STACK CFI 2f37c .cfa: sp 32 +
STACK CFI 2f384 .cfa: sp 0 +
STACK CFI INIT 2f690 4 .cfa: sp 0 +
STACK CFI INIT 2fe20 1c .cfa: sp 0 +
STACK CFI INIT 30208 4 .cfa: sp 0 +
STACK CFI INIT 3020c e4 .cfa: sp 0 +
STACK CFI 30210 .cfa: sp 32 +
STACK CFI 30218 .cfa: x29 32 + x19: .cfa -8 + ^ x20: .cfa -16 + ^ .ra: .cfa -24 + ^ x29: .cfa -32 + ^
STACK CFI 30278 .cfa: sp 32 +
STACK CFI 30280 .cfa: sp 0 +
STACK CFI 30284 .cfa: x29 32 +
STACK CFI 302e4 .cfa: sp 32 +
STACK CFI 302ec .cfa: sp 0 +
STACK CFI INIT 302f0 14 .cfa: sp 0 +
STACK CFI 302f4 .cfa: sp 16 +
STACK CFI 302f8 .cfa: x29 16 + .ra: .cfa -8 + ^ x29: .cfa -16 + ^
STACK CFI INIT 30784 1c .cfa: sp 0 +
STACK CFI INIT 316fc 4 .cfa: sp 0 +
STACK CFI INIT 31700 4 .cfa: sp 0 +
STACK CFI INIT 31704 40 .cfa: sp 0 +
STACK CFI INIT 31744 6c .cfa: sp 0 +
STACK CFI 31748 .cfa: sp 48 +
STACK CFI 31754 .cfa: x29 48 + x19: .cfa -8 + ^ x20: .cfa -16 + ^ x21: .cfa -32 + ^ .ra: .cfa -40 + ^ x29: .cfa -48 + ^
STACK CFI 31790 .cfa: sp 48 +
STACK CFI 3179c .cfa: sp 0 +
STACK CFI 317a0 .cfa: sp 48 +
STACK CFI 317ac .cfa: sp 0 +
STACK CFI INIT 317b0 54 .cfa: sp 0 +
STACK CFI 317d0 .cfa: sp 32 +
STACK CFI 317d8 .cfa: x29 32 + x19: .cfa -16 + ^ .ra: .cfa -24 + ^ x29: .cfa -32 + ^
STACK CFI 317f4 .cfa: sp 32 +
STACK CFI 317fc .cfa: sp 0 +
STACK CFI INIT 31804 3c .cfa: sp 0 +
STACK CFI INIT 31c10 1a0 .cfa: sp 0 +
STACK CFI 31c14 .cfa: sp 64 +
STACK CFI 31c24 .cfa: x29 64 + x19: .cfa -8 + ^ x20: .cfa -16 + ^ x21: .cfa -24 + ^ x22: .cfa -32 + ^ x23: .cfa -40 + ^ x24: .cfa -48 + ^ .ra: .cfa -56 + ^ x29: .cfa -64 + ^
STACK CFI 31d84 .cfa: sp 64 +
STACK CFI 31d94 .cfa: sp 0 +
STACK CFI 31d98 .cfa: x29 64 +
STACK CFI INIT 31db0 2b8 .cfa: sp 0 +
STACK CFI INIT 32068 44 .cfa: sp 0 +
STACK CFI 32070 .cfa: sp 32 +
STACK CFI 32078 .cfa: x29 32 + x19: .cfa -8 + ^ x20: .cfa -16 + ^ .ra: .cfa -24 + ^ x29: .cfa -32 + ^
STACK CFI 3209c .cfa: sp 32 +
STACK CFI 320a4 .cfa: sp 0 +
STACK CFI INIT 321f0 1d0 .cfa: sp 0 +
STACK CFI 321f4 .cfa: sp 64 +
STACK CFI 32204 .cfa: x29 64 + x19: .cfa -8 + ^ x20: .cfa -16 + ^ x21: .cfa -24 + ^ x22: .cfa -32 + ^ x23: .cfa -40 + ^ x24: .cfa -48 + ^ .ra: .cfa -56 + ^ x29: .cfa -64 + ^
STACK CFI 32394 .cfa: sp 64 +
STACK CFI 323a4 .cfa: sp 0 +
STACK CFI 323a8 .cfa: x29 64 +
STACK CFI INIT 328d8 280 .cfa: sp 0 +
STACK CFI 328dc .cfa: sp 80 +
STACK CFI 328f0 .cfa: x29 80 + x19: .cfa -8 + ^ x20: .cfa -16 + ^ x21: .cfa -24 + ^ x22: .cfa -32 + ^ x23: .cfa -40 + ^ x24: .cfa -48 + ^ x25: .cfa -64 + ^ .ra: .cfa -72 + ^ x29: .cfa -80 + ^
STACK CFI 32b28 .cfa: sp 80 +
STACK CFI 32b3c .cfa: sp 0 +
STACK CFI 32b40 .cfa: x29 80 +
STACK CFI INIT 32b58 4c .cfa: sp 0 +
STACK CFI 32b60 .cfa: sp 32 +
STACK CFI 32b68 .cfa: x29 32 + x19: .cfa -8 + ^ x20: .cfa -16 + ^ .ra: .cfa -24 + ^ x29: .cfa -32 + ^
STACK CFI 32b94 .cfa: sp 32 +
STACK CFI 32b9c .cfa: sp 0 +
STACK CFI INIT 32ba4 5c .cfa: sp 0 +
STACK CFI 32bac .cfa: sp 32 +
STACK CFI 32bb4 .cfa: x29 32 + x19: .cfa -8 + ^ x20: .cfa -16 + ^ .ra: .cfa -24 + ^ x29: .cfa -32 + ^
STACK CFI 32bf4 .cfa: sp 32 +
STACK CFI 32bfc .cfa: sp 0 +
STACK CFI INIT 32c00 54 .cfa: sp 0 +
STACK CFI 32c08 .cfa: sp 32 +
STACK CFI 32c10 .cfa: x29 32 + x19: .cfa -8 + ^ x20: .cfa -16 + ^ .ra: .cfa -24 + ^ x29: .cfa -32 + ^
STACK CFI 32c48 .cfa: sp 32 +
STACK CFI 32c50 .cfa: sp 0 +
STACK CFI INIT 32cb8 54 .cfa: sp 0 +
STACK CFI 32cc0 .cfa: sp 32 +
STACK CFI 32cc8 .cfa: x29 32 + x19: .cfa -8 + ^ x20: .cfa -16 + ^ .ra: .cfa -24 + ^ x29: .cfa -32 + ^
STACK CFI 32d00 .cfa: sp 32 +
STACK CFI 32d08 .cfa: sp 0 +
STACK CFI INIT 3318c 1c .cfa: sp 0 +
STACK CFI INIT 33808 4 .cfa: sp 0 +
STACK CFI INIT 339fc 24 .cfa: sp 0 +
STACK CFI INIT 33a20 4c .cfa: sp 0 +
STACK CFI INIT 33a6c 1c .cfa: sp 0 +
STACK CFI INIT 33a88 4 .cfa: sp 0 +
STACK CFI INIT 33a8c 4 .cfa: sp 0 +
STACK CFI INIT 33a90 dc .cfa: sp 0 +
STACK CFI 33a94 .cfa: sp 64 +
STACK CFI 33aa4 .cfa: x29 64 + x19: .cfa -8 + ^ x20: .cfa -16 + ^ x21: .cfa -24 + ^ x22: .cfa -32 + ^ x23: .cfa -48 + ^ .ra: .cfa -56 + ^ x29: .cfa -64 + ^
STACK CFI 33b58 .cfa: sp 64 +
STACK CFI 33b68 .cfa: sp 0 +
STACK CFI INIT 342d0 1c .cfa: sp 0 +
STACK CFI INIT 34c10 4 .cfa: sp 0 +
STACK CFI INIT 34c14 7c .cfa: sp 0 +
STACK CFI 34c18 .cfa: sp 32 +
STACK CFI 34c20 .cfa: x29 32 + x19: .cfa -8 + ^ x20: .cfa -16 + ^ .ra: .cfa -24 + ^ x29: .cfa -32 + ^
STACK CFI 34c78 .cfa: sp 32 +
STACK CFI 34c80 .cfa: sp 0 +
STACK CFI 34c84 .cfa: sp 32 +
STACK CFI 34c8c .cfa: sp 0 +
STACK CFI INIT 34df8 4 .cfa: sp 0 +
STACK CFI INIT 34dfc 14 .cfa: sp 0 +
STACK CFI INIT 35084 4 .cfa: sp 0 +
STACK CFI INIT 35954 3b0 .cfa: sp 0 +
STACK CFI 35958 .cfa: sp 96 +
STACK CFI 3596c .cfa: x29 64 + x19: .cfa -8 + ^ x20: .cfa -16 + ^ x21: .cfa -24 + ^ x22: .cfa -32 + ^ x23: .cfa -40 + ^ x24: .cfa -48 + ^ .ra: .cfa -56 + ^ x29: .cfa -64 + ^
STACK CFI 35ce8 .cfa: sp 96 +
STACK CFI 35cfc .cfa: sp 0 +
STACK CFI 35d00 .cfa: x29 64 +
STACK CFI INIT 35d04 104 .cfa: sp 0 +
STACK CFI 35d08 .cfa: sp 64 +
STACK CFI 35d18 .cfa: x29 64 + x19: .cfa -8 + ^ x20: .cfa -16 + ^ x21: .cfa -24 + ^ x22: .cfa -32 + ^ x23: .cfa -48 + ^ .ra: .cfa -56 + ^ x29: .cfa -64 + ^
STACK CFI 35d74 .cfa: sp 64 +
STACK CFI 35d84 .cfa: sp 0 +
STACK CFI 35d88 .cfa: x29 64 +
STACK CFI 35da4 .cfa: sp 64 +
STACK CFI 35db4 .cfa: sp 0 +
STACK CFI 35db8 .cfa: x29 64 +
STACK CFI 35df4 .cfa: sp 64 +
STACK CFI 35e04 .cfa: sp 0 +
STACK CFI INIT 3609c 98 .cfa: sp 0 +
STACK CFI 360a0 .cfa: sp 304 +
STACK CFI 360ac .cfa: x29 32 + x19: .cfa -8 + ^ x28: .cfa -16 + ^ .ra: .cfa -24 + ^ x29: .cfa -32 + ^
STACK CFI 36120 .cfa: sp 304 +
STACK CFI 3612c .cfa: sp 0 +
STACK CFI 36130 .cfa: x29 32 +
STACK CFI INIT 365d0 1c .cfa: sp 0 +
STACK CFI INIT 36ee0 4 .cfa: sp 0 +
STACK CFI INIT 36ee4 a4 .cfa: sp 0 +
STACK CFI 36ee8 .cfa: sp 32 +
STACK CFI 36ef0 .cfa: x29 32 + x19: .cfa -16 + ^ .ra: .cfa -24 + ^ x29: .cfa -32 + ^
STACK CFI 36f7c .cfa: sp 32 +
STACK CFI 36f84 .cfa: sp 0 +
STACK CFI INIT 37430 4 .cfa: sp 0 +
STACK CFI INIT 378b4 1c .cfa: sp 0 +
STACK CFI INIT 38fd0 4 .cfa: sp 0 +
STACK CFI INIT 38fd4 20 .cfa: sp 0 +
STACK CFI INIT 39128 1c .cfa: sp 0 +
STACK CFI INIT 39144 10c .cfa: sp 0 +
STACK CFI INIT 39250 10c .cfa: sp 0 +
STACK CFI INIT 398c8 1c .cfa: sp 0 +
STACK CFI INIT 398e4 1c .cfa: sp 0 +
STACK CFI INIT 39900 10c .cfa: sp 0 +
STACK CFI INIT 39a0c 58 .cfa: sp 0 +
STACK CFI 39a10 .cfa: sp 48 +
STACK CFI 39a1c .cfa: x29 32 + x19: .cfa -16 + ^ .ra: .cfa -24 + ^ x29: .cfa -32 + ^
STACK CFI 39a50 .cfa: sp 48 +
STACK CFI 39a5c .cfa: sp 0 +
STACK CFI 39a60 .cfa: x29 32 +
STACK CFI INIT 39a64 1c .cfa: sp 0 +
STACK CFI INIT 39f00 1c .cfa: sp 0 +
STACK CFI INIT 39f1c e8 .cfa: sp 0 +
STACK CFI 39f20 .cfa: sp 32 +
STACK CFI 39f28 .cfa: x29 32 + x19: .cfa -8 + ^ x20: .cfa -16 + ^ .ra: .cfa -24 + ^ x29: .cfa -32 + ^
STACK CFI 39f68 .cfa: sp 32 +
STACK CFI 39f70 .cfa: sp 0 +
STACK CFI 39f74 .cfa: x29 32 +
STACK CFI 39fb0 .cfa: sp 32 +
STACK CFI 39fb8 .cfa: sp 0 +
STACK CFI 39fbc .cfa: x29 32 +
STACK CFI 39fdc .cfa: sp 32 +
STACK CFI 39fe4 .cfa: sp 0 +
STACK CFI 39fe8 .cfa: x29 32 +
STACK CFI 39ff8 .cfa: sp 32 +
STACK CFI 3a000 .cfa: sp 0 +
STACK CFI INIT 3a004 ac .cfa: sp 0 +
STACK CFI 3a008 .cfa: sp 64 +
STACK CFI 3a018 .cfa: x29 64 + x19: .cfa -8 + ^ x20: .cfa -16 + ^ x21: .cfa -24 + ^ x22: .cfa -32 + ^ x23: .cfa -48 + ^ .ra: .cfa -56 + ^ x29: .cfa -64 + ^
STACK CFI 3a094 .cfa: sp 64 +
STACK CFI 3a0a4 .cfa: sp 0 +
STACK CFI 3a0a8 .cfa: x29 64 +
STACK CFI INIT 3a0b0 110 .cfa: sp 0 +
STACK CFI 3a0b4 .cfa: sp 64 +
STACK CFI 3a0c4 .cfa: x29 64 + x19: .cfa -8 + ^ x20: .cfa -16 + ^ x21: .cfa -24 + ^ x22: .cfa -32 + ^ x23: .cfa -40 + ^ x24: .cfa -48 + ^ .ra: .cfa -56 + ^ x29: .cfa -64 + ^
STACK CFI 3a1a4 .cfa: sp 64 +
STACK CFI 3a1b4 .cfa: sp 0 +
STACK CFI 3a1b8 .cfa: x29 64 +
STACK CFI INIT 3a7b0 4 .cfa: sp 0 +
STACK CFI INIT 3adf0 14c .cfa: sp 0 +
STACK CFI 3adf4 .cfa: sp 32 +
STACK CFI 3adfc .cfa: x29 32 + x19: .cfa -8 + ^ x20: .cfa -16 + ^ .ra: .cfa -24 + ^ x29: .cfa -32 + ^
STACK CFI 3af30 .cfa: sp 32 +
STACK CFI 3af38 .cfa: sp 0 +
STACK CFI INIT 3b4fc 1c .cfa: sp 0 +
STACK CFI INIT 3b8a0 4 .cfa: sp 0 +
STACK CFI INIT 3b8a4 5c .cfa: sp 0 +
STACK CFI 3b8a8 .cfa: sp 32 +
STACK CFI 3b8b0 .cfa: x29 32 + x19: .cfa -16 + ^ .ra: .cfa -24 + ^ x29: .cfa -32 + ^
STACK CFI 3b8dc .cfa: sp 32 +
STACK CFI 3b8e4 .cfa: sp 0 +
STACK CFI 3b8e8 .cfa: x29 32 +
STACK CFI 3b8f4 .cfa: sp 32 +
STACK CFI 3b8fc .cfa: sp 0 +
STACK CFI INIT 3b900 4 .cfa: sp 0 +
STACK CFI INIT 3b904 4 .cfa: sp 0 +
STACK CFI INIT 3b908 4 .cfa: sp 0 +
STACK CFI INIT 3b90c 4 .cfa: sp 0 +
STACK CFI INIT 3bd90 1c .cfa: sp 0 +
STACK CFI INIT 3c498 4 .cfa: sp 0 +
STACK CFI INIT 3c49c 134 .cfa: sp 0 +
STACK CFI 3c4a0 .cfa: sp 80 +
STACK CFI 3c4b4 .cfa: x29 64 + x19: .cfa -8 + ^ x20: .cfa -16 + ^ x21: .cfa -24 + ^ x22: .cfa -32 + ^ x23: .cfa -48 + ^ .ra: .cfa -56 + ^ x29: .cfa -64 + ^
STACK CFI 3c5b4 .cfa: sp 80 +
STACK CFI 3c5c8 .cfa: sp 0 +
STACK CFI 3c5cc .cfa: x29 64 +
STACK CFI INIT 3c8c4 1c .cfa: sp 0 +
STACK CFI 3c8c8 .cfa: sp 16 +
STACK CFI 3c8cc .cfa: x29 16 + .ra: .cfa -8 + ^ x29: .cfa -16 + ^
STACK CFI 3c8d8 .cfa: sp 16 +
STACK CFI 3c8dc .cfa: sp 0 +
STACK CFI INIT 3c988 9c .cfa: sp 0 +
STACK CFI INIT 3cea4 1c .cfa: sp 0 +
STACK CFI INIT 3d35c 4 .cfa: sp 0 +
STACK CFI INIT 3d4e4 10 .cfa: sp 0 +
STACK CFI INIT 3d4f4 10 .cfa: sp 0 +
STACK CFI INIT 3d504 4c .cfa: sp 0 +
STACK CFI INIT 3d550 1c .cfa: sp 0 +
STACK CFI INIT 3d56c 4 .cfa: sp 0 +
STACK CFI INIT 3d570 4 .cfa: sp 0 +
STACK CFI INIT 3e93c 10 .cfa: sp 0 +
STACK CFI INIT 3e94c 10 .cfa: sp 0 +
STACK CFI INIT 3e95c 11c .cfa: sp 0 +
STACK CFI 3e960 .cfa: sp 32 +
STACK CFI 3e968 .cfa: x29 32 + x19: .cfa -16 + ^ .ra: .cfa -24 + ^ x29: .cfa -32 + ^
STACK CFI 3ea24 .cfa: sp 32 +
STACK CFI 3ea2c .cfa: sp 0 +
STACK CFI 3ea30 .cfa: x29 32 +
STACK CFI INIT 3eda4 ac .cfa: sp 0 +
STACK CFI 3eda8 .cfa: sp 32 +
STACK CFI 3edb0 .cfa: x29 32 + x19: .cfa -8 + ^ x20: .cfa -16 + ^ .ra: .cfa -24 + ^ x29: .cfa -32 + ^
STACK CFI 3edc8 .cfa: sp 32 +
STACK CFI 3edd0 .cfa: sp 0 +
STACK CFI 3edd4 .cfa: x29 32 +
STACK CFI 3ee04 .cfa: sp 32 +
STACK CFI 3ee0c .cfa: sp 0 +
STACK CFI 3ee10 .cfa: x29 32 +
STACK CFI 3ee1c .cfa: sp 32 +
STACK CFI 3ee24 .cfa: sp 0 +
STACK CFI 3ee28 .cfa: x29 32 +
STACK CFI 3ee44 .cfa: sp 32 +
STACK CFI 3ee4c .cfa: sp 0 +
STACK CFI INIT 3ee50 28 .cfa: sp 0 +
STACK CFI INIT 3ee78 b4 .cfa: sp 0 +
STACK CFI 3ee7c .cfa: sp 32 +
STACK CFI 3ee84 .cfa: x29 32 + x19: .cfa -8 + ^ x20: .cfa -16 + ^ .ra: .cfa -24 + ^ x29: .cfa -32 + ^
STACK CFI 3eea4 .cfa: sp 32 +
STACK CFI 3eeac .cfa: sp 0 +
STACK CFI 3eeb0 .cfa: x29 32 +
STACK CFI 3eee0 .cfa: sp 32 +
STACK CFI 3eee8 .cfa: sp 0 +
STACK CFI 3eeec .cfa: x29 32 +
STACK CFI 3eef8 .cfa: sp 32 +
STACK CFI 3ef00 .cfa: sp 0 +
STACK CFI 3ef04 .cfa: x29 32 +
STACK CFI 3ef20 .cfa: sp 32 +
STACK CFI 3ef28 .cfa: sp 0 +
STACK CFI INIT 3f00c 2c .cfa: sp 0 +
STACK CFI 3f010 .cfa: sp 32 +
STACK CFI 3f018 .cfa: x29 32 + x19: .cfa -16 + ^ .ra: .cfa -24 + ^ x29: .cfa -32 + ^
STACK CFI 3f02c .cfa: sp 32 +
STACK CFI 3f034 .cfa: sp 0 +
STACK CFI INIT 3f038 4 .cfa: sp 0 +
STACK CFI INIT 3f03c 8 .cfa: sp 0 +
STACK CFI INIT 3f26c 4 .cfa: sp 0 +
STACK CFI INIT 3f270 8 .cfa: sp 0 +
STACK CFI INIT 3f278 4 .cfa: sp 0 +
STACK CFI INIT 3f2e8 4 .cfa: sp 0 +
STACK CFI INIT 3f2ec 2c .cfa: sp 0 +
STACK CFI INIT 3f318 308 .cfa: sp 0 +
STACK CFI 3f31c .cfa: sp 128 +
STACK CFI 3f334 .cfa: x29 64 + x19: .cfa -8 + ^ x20: .cfa -16 + ^ x21: .cfa -24 + ^ x22: .cfa -32 + ^ x23: .cfa -48 + ^ .ra: .cfa -56 + ^ x29: .cfa -64 + ^ v8: .cfa -72 + ^ v9: .cfa -80 + ^
STACK CFI 3f568 .cfa: sp 128 +
STACK CFI 3f580 .cfa: sp 0 +
STACK CFI 3f584 .cfa: x29 64 +
STACK CFI INIT 3f620 60 .cfa: sp 0 +
STACK CFI 3f624 .cfa: sp 32 +
STACK CFI 3f62c .cfa: x29 32 + x19: .cfa -8 + ^ x20: .cfa -16 + ^ .ra: .cfa -24 + ^ x29: .cfa -32 + ^
STACK CFI 3f64c .cfa: sp 32 +
STACK CFI 3f654 .cfa: sp 0 +
STACK CFI 3f658 .cfa: x29 32 +
STACK CFI 3f674 .cfa: sp 32 +
STACK CFI 3f67c .cfa: sp 0 +
STACK CFI INIT 3f680 70 .cfa: sp 0 +
STACK CFI 3f684 .cfa: sp 32 +
STACK CFI 3f68c .cfa: x29 32 + x19: .cfa -8 + ^ x20: .cfa -16 + ^ .ra: .cfa -24 + ^ x29: .cfa -32 + ^
STACK CFI 3f6b4 .cfa: sp 32 +
STACK CFI 3f6bc .cfa: sp 0 +
STACK CFI 3f6c0 .cfa: x29 32 +
STACK CFI 3f6e4 .cfa: sp 32 +
STACK CFI 3f6ec .cfa: sp 0 +
STACK CFI INIT 3f6f0 10 .cfa: sp 0 +
STACK CFI INIT 3f700 30 .cfa: sp 0 +
STACK CFI 3f704 .cfa: sp 32 +
STACK CFI 3f70c .cfa: x29 32 + x19: .cfa -16 + ^ .ra: .cfa -24 + ^ x29: .cfa -32 + ^
STACK CFI 3f724 .cfa: sp 32 +
STACK CFI 3f72c .cfa: sp 0 +
STACK CFI INIT 3f730 4 .cfa: sp 0 +
STACK CFI INIT 3f734 4 .cfa: sp 0 +
STACK CFI INIT 401a8 9c .cfa: sp 0 +
STACK CFI 401ac .cfa: sp 48 +
STACK CFI 401b8 .cfa: x29 48 + x19: .cfa -8 + ^ x20: .cfa -16 + ^ x21: .cfa -24 + ^ x22: .cfa -32 + ^ .ra: .cfa -40 + ^ x29: .cfa -48 + ^
STACK CFI 401ec .cfa: sp 48 +
STACK CFI 401f8 .cfa: sp 0 +
STACK CFI 401fc .cfa: x29 48 +
STACK CFI 4022c .cfa: sp 48 +
STACK CFI 40238 .cfa: sp 0 +
STACK CFI 4023c .cfa: x29 48 +
STACK CFI INIT 4129c 40 .cfa: sp 0 +
STACK CFI 412a0 .cfa: sp 32 +
STACK CFI 412a8 .cfa: x29 32 + x19: .cfa -16 + ^ .ra: .cfa -24 + ^ x29: .cfa -32 + ^
STACK CFI 412d0 .cfa: sp 32 +
STACK CFI 412d8 .cfa: sp 0 +
STACK CFI INIT 4164c 610 .cfa: sp 0 +
STACK CFI 41650 .cfa: sp 32 +
STACK CFI 41658 .cfa: x29 32 + x19: .cfa -16 + ^ .ra: .cfa -24 + ^ x29: .cfa -32 + ^
STACK CFI 416d8 .cfa: sp 32 +
STACK CFI 416e0 .cfa: sp 0 +
STACK CFI 416e4 .cfa: x29 32 +
STACK CFI 4171c .cfa: sp 32 +
STACK CFI 41724 .cfa: sp 0 +
STACK CFI 41728 .cfa: x29 32 +
STACK CFI 41798 .cfa: sp 32 +
STACK CFI 417a0 .cfa: sp 0 +
STACK CFI 417a4 .cfa: x29 32 +
STACK CFI 417dc .cfa: sp 32 +
STACK CFI 417e4 .cfa: sp 0 +
STACK CFI 417e8 .cfa: x29 32 +
STACK CFI 41810 .cfa: sp 32 +
STACK CFI 41818 .cfa: sp 0 +
STACK CFI 4181c .cfa: x29 32 +
STACK CFI 41848 .cfa: sp 32 +
STACK CFI 41850 .cfa: sp 0 +
STACK CFI 41854 .cfa: x29 32 +
STACK CFI 41890 .cfa: sp 32 +
STACK CFI 41898 .cfa: sp 0 +
STACK CFI 4189c .cfa: x29 32 +
STACK CFI 418ec .cfa: sp 32 +
STACK CFI 418f4 .cfa: sp 0 +
STACK CFI 418f8 .cfa: x29 32 +
STACK CFI 4192c .cfa: sp 32 +
STACK CFI 41934 .cfa: sp 0 +
STACK CFI 41938 .cfa: x29 32 +
STACK CFI 41960 .cfa: sp 32 +
STACK CFI 41968 .cfa: sp 0 +
STACK CFI 4196c .cfa: x29 32 +
STACK CFI 419ac .cfa: sp 32 +
STACK CFI 419b4 .cfa: sp 0 +
STACK CFI 419b8 .cfa: x29 32 +
STACK CFI 419dc .cfa: sp 32 +
STACK CFI 419e4 .cfa: sp 0 +
STACK CFI 419e8 .cfa: x29 32 +
STACK CFI 41a10 .cfa: sp 32 +
STACK CFI 41a18 .cfa: sp 0 +
STACK CFI 41a1c .cfa: x29 32 +
STACK CFI 41a3c .cfa: sp 32 +
STACK CFI 41a44 .cfa: sp 0 +
STACK CFI 41a48 .cfa: x29 32 +
STACK CFI 41a74 .cfa: sp 32 +
STACK CFI 41a7c .cfa: sp 0 +
STACK CFI 41a80 .cfa: x29 32 +
STACK CFI 41ad0 .cfa: sp 32 +
STACK CFI 41ad8 .cfa: sp 0 +
STACK CFI 41adc .cfa: x29 32 +
STACK CFI 41b14 .cfa: sp 32 +
STACK CFI 41b1c .cfa: sp 0 +
STACK CFI 41b20 .cfa: x29 32 +
STACK CFI 41b48 .cfa: sp 32 +
STACK CFI 41b50 .cfa: sp 0 +
STACK CFI 41b54 .cfa: x29 32 +
STACK CFI 41b8c .cfa: sp 32 +
STACK CFI 41b94 .cfa: sp 0 +
STACK CFI 41b98 .cfa: x29 32 +
STACK CFI 41bc4 .cfa: sp 32 +
STACK CFI 41bcc .cfa: sp 0 +
STACK CFI 41bd0 .cfa: x29 32 +
STACK CFI 41c0c .cfa: sp 32 +
STACK CFI 41c14 .cfa: sp 0 +
STACK CFI 41c18 .cfa: x29 32 +
STACK CFI 41c50 .cfa: sp 32 +
STACK CFI 41c58 .cfa: sp 0 +
STACK CFI INIT 41c5c 40 .cfa: sp 0 +
STACK CFI 41c60 .cfa: sp 32 +
STACK CFI 41c68 .cfa: x29 32 + x19: .cfa -16 + ^ .ra: .cfa -24 + ^ x29: .cfa -32 + ^
STACK CFI 41c90 .cfa: sp 32 +
STACK CFI 41c98 .cfa: sp 0 +
STACK CFI INIT 41c9c 40 .cfa: sp 0 +
STACK CFI 41ca0 .cfa: sp 32 +
STACK CFI 41ca8 .cfa: x29 32 + x19: .cfa -16 + ^ .ra: .cfa -24 + ^ x29: .cfa -32 + ^
STACK CFI 41cd0 .cfa: sp 32 +
STACK CFI 41cd8 .cfa: sp 0 +
STACK CFI INIT 41db8 24 .cfa: sp 0 +
STACK CFI 41dbc .cfa: sp 32 +
STACK CFI 41dc4 .cfa: x29 32 + x19: .cfa -16 + ^ .ra: .cfa -24 + ^ x29: .cfa -32 + ^
STACK CFI 41dd0 .cfa: sp 32 +
STACK CFI 41dd8 .cfa: sp 0 +
STACK CFI INIT 41ddc 8 .cfa: sp 0 +
STACK CFI INIT 41de4 28 .cfa: sp 0 +
STACK CFI 41de8 .cfa: sp 32 +
STACK CFI 41df0 .cfa: x29 32 + x19: .cfa -16 + ^ .ra: .cfa -24 + ^ x29: .cfa -32 + ^
STACK CFI 41e00 .cfa: sp 32 +
STACK CFI 41e08 .cfa: sp 0 +
STACK CFI INIT 41e0c 104 .cfa: sp 0 +
STACK CFI 41e10 .cfa: sp 80 +
STACK CFI 41e24 .cfa: x29 80 + x19: .cfa -8 + ^ x20: .cfa -16 + ^ x21: .cfa -24 + ^ x22: .cfa -32 + ^ x23: .cfa -40 + ^ x24: .cfa -48 + ^ x25: .cfa -56 + ^ x26: .cfa -64 + ^ .ra: .cfa -72 + ^ x29: .cfa -80 + ^
STACK CFI 41ef0 .cfa: sp 80 +
STACK CFI 41f04 .cfa: sp 0 +
STACK CFI 41f08 .cfa: x29 80 +
STACK CFI INIT 41f10 4 .cfa: sp 0 +
STACK CFI INIT 41f14 4 .cfa: sp 0 +
STACK CFI INIT 41f18 24 .cfa: sp 0 +
STACK CFI 41f1c .cfa: sp 16 +
STACK CFI 41f20 .cfa: x29 16 + .ra: .cfa -8 + ^ x29: .cfa -16 + ^
STACK CFI 41f34 .cfa: sp 16 +
STACK CFI 41f38 .cfa: sp 0 +
STACK CFI INIT 41f3c 10 .cfa: sp 0 +
STACK CFI INIT 41f4c 4 .cfa: sp 0 +
STACK CFI INIT 41f50 4 .cfa: sp 0 +
STACK CFI INIT 42028 1c .cfa: sp 0 +
STACK CFI INIT 42044 c .cfa: sp 0 +
STACK CFI INIT 428c8 1c .cfa: sp 0 +
STACK CFI INIT 42d64 1c .cfa: sp 0 +
STACK CFI INIT 42d80 1c .cfa: sp 0 +
STACK CFI INIT 430dc 4 .cfa: sp 0 +
STACK CFI INIT 430e0 b8 .cfa: sp 0 +
STACK CFI 430e4 .cfa: sp 32 +
STACK CFI 430ec .cfa: x29 32 + x19: .cfa -16 + ^ .ra: .cfa -24 + ^ x29: .cfa -32 + ^
STACK CFI 43164 .cfa: sp 32 +
STACK CFI 4316c .cfa: sp 0 +
STACK CFI 43170 .cfa: x29 32 +
STACK CFI 43178 .cfa: sp 32 +
STACK CFI 43180 .cfa: sp 0 +
STACK CFI 43184 .cfa: x29 32 +
STACK CFI 4318c .cfa: sp 32 +
STACK CFI 43194 .cfa: sp 0 +
STACK CFI INIT 434f8 4 .cfa: sp 0 +
STACK CFI INIT 434fc 78 .cfa: sp 0 +
STACK CFI 43500 .cfa: sp 48 +
STACK CFI 4350c .cfa: x29 48 + x19: .cfa -8 + ^ x20: .cfa -16 + ^ x21: .cfa -32 + ^ .ra: .cfa -40 + ^ x29: .cfa -48 + ^
STACK CFI 43564 .cfa: sp 48 +
STACK CFI 43570 .cfa: sp 0 +
STACK CFI INIT 43574 1c8 .cfa: sp 0 +
STACK CFI 43578 .cfa: sp 112 +
STACK CFI 43590 .cfa: x29 64 + x19: .cfa -8 + ^ x20: .cfa -16 + ^ x21: .cfa -24 + ^ x22: .cfa -32 + ^ x23: .cfa -40 + ^ x24: .cfa -48 + ^ .ra: .cfa -56 + ^ x29: .cfa -64 + ^ v8: .cfa -80 + ^
STACK CFI 4371c .cfa: sp 112 +
STACK CFI 43734 .cfa: sp 0 +
STACK CFI 43738 .cfa: x29 64 +
STACK CFI INIT 437cc 74 .cfa: sp 0 +
STACK CFI 437d0 .cfa: sp 32 +
STACK CFI 437d8 .cfa: x29 32 + x19: .cfa -16 + ^ .ra: .cfa -24 + ^ x29: .cfa -32 + ^
STACK CFI 43828 .cfa: sp 32 +
STACK CFI 43830 .cfa: sp 0 +
STACK CFI 43834 .cfa: sp 32 +
STACK CFI 4383c .cfa: sp 0 +
STACK CFI INIT 43e80 4 .cfa: sp 0 +
STACK CFI INIT 43e84 14 .cfa: sp 0 +
STACK CFI 43e88 .cfa: sp 16 +
STACK CFI 43e8c .cfa: x29 16 + .ra: .cfa -8 + ^ x29: .cfa -16 + ^
STACK CFI INIT 43e98 14 .cfa: sp 0 +
STACK CFI 43e9c .cfa: sp 16 +
STACK CFI 43ea0 .cfa: x29 16 + .ra: .cfa -8 + ^ x29: .cfa -16 + ^
STACK CFI INIT 43eac 14 .cfa: sp 0 +
STACK CFI 43eb0 .cfa: sp 16 +
STACK CFI 43eb4 .cfa: x29 16 + .ra: .cfa -8 + ^ x29: .cfa -16 + ^
STACK CFI INIT 43ec0 14 .cfa: sp 0 +
STACK CFI 43ec4 .cfa: sp 16 +
STACK CFI 43ec8 .cfa: x29 16 + .ra: .cfa -8 + ^ x29: .cfa -16 + ^
STACK CFI INIT 43ed4 4 .cfa: sp 0 +
STACK CFI INIT 43ed8 4 .cfa: sp 0 +
STACK CFI INIT 43edc 38 .cfa: sp 0 +
STACK CFI 43ee0 .cfa: sp 32 +
STACK CFI 43ee8 .cfa: x29 32 + x19: .cfa -16 + ^ .ra: .cfa -24 + ^ x29: .cfa -32 + ^
STACK CFI 43f08 .cfa: sp 32 +
STACK CFI 43f10 .cfa: sp 0 +
STACK CFI INIT 43f14 18 .cfa: sp 0 +
STACK CFI INIT 43f2c 4 .cfa: sp 0 +
STACK CFI INIT 43f30 4 .cfa: sp 0 +
STACK CFI INIT 43f34 10 .cfa: sp 0 +
STACK CFI INIT 43f44 1c .cfa: sp 0 +
STACK CFI INIT 43f60 c .cfa: sp 0 +
STACK CFI INIT 4429c 4 .cfa: sp 0 +
STACK CFI INIT 442a0 13c .cfa: sp 0 +
STACK CFI 442a4 .cfa: sp 32 +
STACK CFI 442ac .cfa: x29 32 + x19: .cfa -8 + ^ x20: .cfa -16 + ^ .ra: .cfa -24 + ^ x29: .cfa -32 + ^
STACK CFI 443d0 .cfa: sp 32 +
STACK CFI 443d8 .cfa: sp 0 +
STACK CFI INIT 44484 88 .cfa: sp 0 +
STACK CFI 44488 .cfa: sp 32 +
STACK CFI 44490 .cfa: x29 32 + x19: .cfa -16 + ^ .ra: .cfa -24 + ^ x29: .cfa -32 + ^
STACK CFI 44500 .cfa: sp 32 +
STACK CFI 44508 .cfa: sp 0 +
STACK CFI INIT 44b70 24 .cfa: sp 0 +
STACK CFI 44b74 .cfa: sp 16 +
STACK CFI 44b78 .cfa: x29 16 + .ra: .cfa -8 + ^ x29: .cfa -16 + ^
STACK CFI 44b8c .cfa: sp 16 +
STACK CFI 44b90 .cfa: sp 0 +
STACK CFI INIT 44b94 24 .cfa: sp 0 +
STACK CFI 44b98 .cfa: sp 32 +
STACK CFI 44ba0 .cfa: x29 32 + x19: .cfa -16 + ^ .ra: .cfa -24 + ^ x29: .cfa -32 + ^
STACK CFI 44bac .cfa: sp 32 +
STACK CFI 44bb4 .cfa: sp 0 +
STACK CFI INIT 454b8 40 .cfa: sp 0 +
STACK CFI 454d0 .cfa: sp 32 +
STACK CFI 454d8 .cfa: x29 32 + x19: .cfa -16 + ^ .ra: .cfa -24 + ^ x29: .cfa -32 + ^
STACK CFI 454ec .cfa: sp 32 +
STACK CFI 454f4 .cfa: sp 0 +
STACK CFI INIT 454f8 44 .cfa: sp 0 +
STACK CFI 454fc .cfa: sp 32 +
STACK CFI 45504 .cfa: x29 32 + x19: .cfa -16 + ^ .ra: .cfa -24 + ^ x29: .cfa -32 + ^
STACK CFI 45530 .cfa: sp 32 +
STACK CFI 45538 .cfa: sp 0 +
STACK CFI INIT 45710 4b4 .cfa: sp 0 +
STACK CFI 45714 .cfa: sp 96 +
STACK CFI 4572c .cfa: x29 96 + x19: .cfa -8 + ^ x20: .cfa -16 + ^ x21: .cfa -24 + ^ x22: .cfa -32 + ^ x23: .cfa -40 + ^ x24: .cfa -48 + ^ x25: .cfa -56 + ^ x26: .cfa -64 + ^ x27: .cfa -72 + ^ x28: .cfa -80 + ^ .ra: .cfa -88 + ^ x29: .cfa -96 + ^
STACK CFI 45b74 .cfa: sp 96 +
STACK CFI 45b8c .cfa: sp 0 +
STACK CFI 45b90 .cfa: x29 96 +
STACK CFI INIT 45bc4 1a4 .cfa: sp 0 +
STACK CFI 45bc8 .cfa: sp 64 +
STACK CFI 45bd4 .cfa: x29 32 + x19: .cfa -8 + ^ x20: .cfa -16 + ^ .ra: .cfa -24 + ^ x29: .cfa -32 + ^
STACK CFI 45d00 .cfa: sp 64 +
STACK CFI 45d0c .cfa: sp 0 +
STACK CFI 45d10 .cfa: x29 32 +
STACK CFI INIT 45d68 194 .cfa: sp 0 +
STACK CFI 45d6c .cfa: sp 16 +
STACK CFI 45d70 .cfa: x29 16 + .ra: .cfa -8 + ^ x29: .cfa -16 + ^
STACK CFI 45e08 .cfa: sp 16 +
STACK CFI 45e0c .cfa: sp 0 +
STACK CFI 45e10 .cfa: x29 16 +
STACK CFI 45edc .cfa: sp 16 +
STACK CFI 45ee0 .cfa: sp 0 +
STACK CFI 45ee4 .cfa: x29 16 +
STACK CFI INIT 45efc 114 .cfa: sp 0 +
STACK CFI 45f00 .cfa: sp 128 +
STACK CFI 45f10 .cfa: x29 48 + x19: .cfa -8 + ^ x20: .cfa -16 + ^ x21: .cfa -32 + ^ .ra: .cfa -40 + ^ x29: .cfa -48 + ^
STACK CFI 45fdc .cfa: sp 128 +
STACK CFI 45fec .cfa: sp 0 +
STACK CFI 45ff0 .cfa: x29 48 +
STACK CFI INIT 46010 114 .cfa: sp 0 +
STACK CFI 46014 .cfa: sp 128 +
STACK CFI 46024 .cfa: x29 48 + x19: .cfa -8 + ^ x20: .cfa -16 + ^ x21: .cfa -32 + ^ .ra: .cfa -40 + ^ x29: .cfa -48 + ^
STACK CFI 460f0 .cfa: sp 128 +
STACK CFI 46100 .cfa: sp 0 +
STACK CFI 46104 .cfa: x29 48 +
STACK CFI INIT 46124 27c .cfa: sp 0 +
STACK CFI 46128 .cfa: sp 176 +
STACK CFI 46144 .cfa: x29 96 + x19: .cfa -8 + ^ x20: .cfa -16 + ^ x21: .cfa -24 + ^ x22: .cfa -32 + ^ x23: .cfa -40 + ^ x24: .cfa -48 + ^ x25: .cfa -56 + ^ x26: .cfa -64 + ^ x27: .cfa -72 + ^ x28: .cfa -80 + ^ .ra: .cfa -88 + ^ x29: .cfa -96 + ^
STACK CFI 4637c .cfa: sp 176 +
STACK CFI 46398 .cfa: sp 0 +
STACK CFI 4639c .cfa: x29 96 +
STACK CFI INIT 463a0 520 .cfa: sp 0 +
STACK CFI 463a4 .cfa: sp 176 +
STACK CFI 463c0 .cfa: x29 96 + x19: .cfa -8 + ^ x20: .cfa -16 + ^ x21: .cfa -24 + ^ x22: .cfa -32 + ^ x23: .cfa -40 + ^ x24: .cfa -48 + ^ x25: .cfa -56 + ^ x26: .cfa -64 + ^ x27: .cfa -72 + ^ x28: .cfa -80 + ^ .ra: .cfa -88 + ^ x29: .cfa -96 + ^
STACK CFI 4689c .cfa: sp 176 +
STACK CFI 468b8 .cfa: sp 0 +
STACK CFI 468bc .cfa: x29 96 +
STACK CFI INIT 468c0 20c .cfa: sp 0 +
STACK CFI 468c4 .cfa: sp 80 +
STACK CFI 468d8 .cfa: x29 80 + x19: .cfa -8 + ^ x20: .cfa -16 + ^ x21: .cfa -24 + ^ x22: .cfa -32 + ^ x23: .cfa -40 + ^ x24: .cfa -48 + ^ x25: .cfa -64 + ^ .ra: .cfa -72 + ^ x29: .cfa -80 + ^
STACK CFI 46968 .cfa: sp 80 +
STACK CFI 4697c .cfa: sp 0 +
STACK CFI 46980 .cfa: x29 80 +
STACK CFI 4698c .cfa: sp 80 +
STACK CFI 469a0 .cfa: sp 0 +
STACK CFI 469a4 .cfa: x29 80 +
STACK CFI INIT 46acc 428 .cfa: sp 0 +
STACK CFI 46ad0 .cfa: sp 128 +
STACK CFI 46aec .cfa: x29 96 + x19: .cfa -8 + ^ x20: .cfa -16 + ^ x21: .cfa -24 + ^ x22: .cfa -32 + ^ x23: .cfa -40 + ^ x24: .cfa -48 + ^ x25: .cfa -56 + ^ x26: .cfa -64 + ^ x27: .cfa -72 + ^ x28: .cfa -80 + ^ .ra: .cfa -88 + ^ x29: .cfa -96 + ^
STACK CFI 46ed0 .cfa: sp 128 +
STACK CFI 46eec .cfa: sp 0 +
STACK CFI 46ef0 .cfa: x29 96 +
STACK CFI INIT 46ef4 194 .cfa: sp 0 +
STACK CFI 46ef8 .cfa: sp 32 +
STACK CFI 46f00 .cfa: x29 16 + .ra: .cfa -8 + ^ x29: .cfa -16 + ^
STACK CFI 46f44 .cfa: sp 32 +
STACK CFI 46f4c .cfa: sp 0 +
STACK CFI 46f50 .cfa: x29 16 +
STACK CFI INIT 47088 1b8 .cfa: sp 0 +
STACK CFI INIT 47240 1d0 .cfa: sp 0 +
STACK CFI 47244 .cfa: sp 80 +
STACK CFI 47258 .cfa: x29 80 + x19: .cfa -8 + ^ x20: .cfa -16 + ^ x21: .cfa -24 + ^ x22: .cfa -32 + ^ x23: .cfa -40 + ^ x24: .cfa -48 + ^ x25: .cfa -64 + ^ .ra: .cfa -72 + ^ x29: .cfa -80 + ^
STACK CFI 473f8 .cfa: sp 80 +
STACK CFI 4740c .cfa: sp 0 +
STACK CFI INIT 47410 67c .cfa: sp 0 +
STACK CFI 47414 .cfa: sp 176 +
STACK CFI 47430 .cfa: x29 96 + x19: .cfa -8 + ^ x20: .cfa -16 + ^ x21: .cfa -24 + ^ x22: .cfa -32 + ^ x23: .cfa -40 + ^ x24: .cfa -48 + ^ x25: .cfa -56 + ^ x26: .cfa -64 + ^ x27: .cfa -72 + ^ x28: .cfa -80 + ^ .ra: .cfa -88 + ^ x29: .cfa -96 + ^
STACK CFI 47a68 .cfa: sp 176 +
STACK CFI 47a84 .cfa: sp 0 +
STACK CFI 47a88 .cfa: x29 96 +
STACK CFI INIT 47a8c 1e4 .cfa: sp 0 +
STACK CFI 47a90 .cfa: sp 32 +
STACK CFI 47a98 .cfa: x29 32 + x19: .cfa -8 + ^ x20: .cfa -16 + ^ .ra: .cfa -24 + ^ x29: .cfa -32 + ^
STACK CFI 47b88 .cfa: sp 32 +
STACK CFI 47b90 .cfa: sp 0 +
STACK CFI 47b94 .cfa: x29 32 +
STACK CFI 47c08 .cfa: sp 32 +
STACK CFI 47c10 .cfa: sp 0 +
STACK CFI 47c14 .cfa: x29 32 +
STACK CFI 47c24 .cfa: sp 32 +
STACK CFI 47c2c .cfa: sp 0 +
STACK CFI 47c30 .cfa: x29 32 +
STACK CFI 47c40 .cfa: sp 32 +
STACK CFI 47c48 .cfa: sp 0 +
STACK CFI 47c4c .cfa: x29 32 +
STACK CFI INIT 47c70 178 .cfa: sp 0 +
STACK CFI 47c74 .cfa: sp 80 +
STACK CFI 47c88 .cfa: x29 64 + x19: .cfa -8 + ^ x20: .cfa -16 + ^ x21: .cfa -24 + ^ x22: .cfa -32 + ^ x23: .cfa -40 + ^ x24: .cfa -48 + ^ .ra: .cfa -56 + ^ x29: .cfa -64 + ^
STACK CFI 47dcc .cfa: sp 80 +
STACK CFI 47de0 .cfa: sp 0 +
STACK CFI 47de4 .cfa: x29 64 +
STACK CFI INIT 47de8 178 .cfa: sp 0 +
STACK CFI 47dec .cfa: sp 80 +
STACK CFI 47e00 .cfa: x29 64 + x19: .cfa -8 + ^ x20: .cfa -16 + ^ x21: .cfa -24 + ^ x22: .cfa -32 + ^ x23: .cfa -40 + ^ x24: .cfa -48 + ^ .ra: .cfa -56 + ^ x29: .cfa -64 + ^
STACK CFI 47f44 .cfa: sp 80 +
STACK CFI 47f58 .cfa: sp 0 +
STACK CFI 47f5c .cfa: x29 64 +
STACK CFI INIT 47f60 178 .cfa: sp 0 +
STACK CFI 47f64 .cfa: sp 80 +
STACK CFI 47f78 .cfa: x29 64 + x19: .cfa -8 + ^ x20: .cfa -16 + ^ x21: .cfa -24 + ^ x22: .cfa -32 + ^ x23: .cfa -40 + ^ x24: .cfa -48 + ^ .ra: .cfa -56 + ^ x29: .cfa -64 + ^
STACK CFI 480bc .cfa: sp 80 +
STACK CFI 480d0 .cfa: sp 0 +
STACK CFI 480d4 .cfa: x29 64 +
STACK CFI INIT 480d8 94 .cfa: sp 0 +
STACK CFI 480dc .cfa: sp 16 +
STACK CFI 480e0 .cfa: x29 16 + .ra: .cfa -8 + ^ x29: .cfa -16 + ^
STACK CFI 48134 .cfa: sp 16 +
STACK CFI 48138 .cfa: sp 0 +
STACK CFI 4813c .cfa: x29 16 +
STACK CFI INIT 4816c 158 .cfa: sp 0 +
STACK CFI 48170 .cfa: sp 112 +
STACK CFI 4818c .cfa: x29 96 + x19: .cfa -8 + ^ x20: .cfa -16 + ^ x21: .cfa -24 + ^ x22: .cfa -32 + ^ x23: .cfa -40 + ^ x24: .cfa -48 + ^ x25: .cfa -56 + ^ x26: .cfa -64 + ^ x27: .cfa -72 + ^ x28: .cfa -80 + ^ .ra: .cfa -88 + ^ x29: .cfa -96 + ^
STACK CFI 48274 .cfa: sp 112 +
STACK CFI 48278 .cfa: x29 96 +
STACK CFI 48280 .cfa: sp 112 +
STACK CFI 4829c .cfa: sp 0 +
STACK CFI 482a0 .cfa: x29 96 +
STACK CFI 482c0 .cfa: sp 112 +
STACK CFI INIT 482c4 94 .cfa: sp 0 +
STACK CFI 482c8 .cfa: sp 16 +
STACK CFI 482cc .cfa: x29 16 + .ra: .cfa -8 + ^ x29: .cfa -16 + ^
STACK CFI 48320 .cfa: sp 16 +
STACK CFI 48324 .cfa: sp 0 +
STACK CFI 48328 .cfa: x29 16 +
STACK CFI INIT 48838 68 .cfa: sp 0 +
STACK CFI 4883c .cfa: sp 32 +
STACK CFI 48844 .cfa: x29 32 + x19: .cfa -16 + ^ .ra: .cfa -24 + ^ x29: .cfa -32 + ^
STACK CFI 48894 .cfa: sp 32 +
STACK CFI 4889c .cfa: sp 0 +
STACK CFI INIT 488a0 4 .cfa: sp 0 +
STACK CFI INIT 488a4 4 .cfa: sp 0 +
STACK CFI INIT 488a8 24 .cfa: sp 0 +
STACK CFI 488ac .cfa: sp 32 +
STACK CFI 488b4 .cfa: x29 32 + x19: .cfa -16 + ^ .ra: .cfa -24 + ^ x29: .cfa -32 + ^
STACK CFI 488c0 .cfa: sp 32 +
STACK CFI 488c8 .cfa: sp 0 +
STACK CFI INIT 488cc 8 .cfa: sp 0 +
STACK CFI INIT 488d4 28 .cfa: sp 0 +
STACK CFI 488d8 .cfa: sp 32 +
STACK CFI 488e0 .cfa: x29 32 + x19: .cfa -16 + ^ .ra: .cfa -24 + ^ x29: .cfa -32 + ^
STACK CFI 488f0 .cfa: sp 32 +
STACK CFI 488f8 .cfa: sp 0 +
STACK CFI INIT 488fc 3c .cfa: sp 0 +
STACK CFI 48900 .cfa: sp 32 +
STACK CFI 48908 .cfa: x29 32 + x19: .cfa -16 + ^ .ra: .cfa -24 + ^ x29: .cfa -32 + ^
STACK CFI 48914 .cfa: sp 32 +
STACK CFI 4891c .cfa: sp 0 +
STACK CFI 48920 .cfa: x29 32 +
STACK CFI 4892c .cfa: sp 32 +
STACK CFI 48934 .cfa: sp 0 +
STACK CFI INIT 48938 4c .cfa: sp 0 +
STACK CFI 4893c .cfa: sp 32 +
STACK CFI 48944 .cfa: x29 32 + x19: .cfa -8 + ^ x20: .cfa -16 + ^ .ra: .cfa -24 + ^ x29: .cfa -32 + ^
STACK CFI 4896c .cfa: sp 32 +
STACK CFI 48974 .cfa: sp 0 +
STACK CFI 48978 .cfa: sp 32 +
STACK CFI 48980 .cfa: sp 0 +
STACK CFI INIT 48ba4 64 .cfa: sp 0 +
STACK CFI 48ba8 .cfa: sp 32 +
STACK CFI 48bb0 .cfa: x29 32 + x19: .cfa -16 + ^ .ra: .cfa -24 + ^ x29: .cfa -32 + ^
STACK CFI 48bdc .cfa: sp 32 +
STACK CFI 48be4 .cfa: sp 0 +
STACK CFI 48be8 .cfa: x29 32 +
STACK CFI 48bfc .cfa: sp 32 +
STACK CFI 48c04 .cfa: sp 0 +
STACK CFI INIT 48c08 24 .cfa: sp 0 +
STACK CFI 48c0c .cfa: sp 32 +
STACK CFI 48c14 .cfa: x29 32 + x19: .cfa -16 + ^ .ra: .cfa -24 + ^ x29: .cfa -32 + ^
STACK CFI 48c20 .cfa: sp 32 +
STACK CFI 48c28 .cfa: sp 0 +
STACK CFI INIT 48e88 24 .cfa: sp 0 +
STACK CFI 48e8c .cfa: sp 32 +
STACK CFI 48e94 .cfa: x29 32 + x19: .cfa -16 + ^ .ra: .cfa -24 + ^ x29: .cfa -32 + ^
STACK CFI 48ea0 .cfa: sp 32 +
STACK CFI 48ea8 .cfa: sp 0 +
STACK CFI INIT 49130 8 .cfa: sp 0 +
STACK CFI INIT 49138 24 .cfa: sp 0 +
STACK CFI 4913c .cfa: sp 32 +
STACK CFI 49144 .cfa: x29 32 + x19: .cfa -16 + ^ .ra: .cfa -24 + ^ x29: .cfa -32 + ^
STACK CFI 49150 .cfa: sp 32 +
STACK CFI 49158 .cfa: sp 0 +
STACK CFI INIT 4915c 28 .cfa: sp 0 +
STACK CFI 49160 .cfa: sp 32 +
STACK CFI 49168 .cfa: x29 32 + x19: .cfa -16 + ^ .ra: .cfa -24 + ^ x29: .cfa -32 + ^
STACK CFI 49178 .cfa: sp 32 +
STACK CFI 49180 .cfa: sp 0 +
STACK CFI INIT 49484 8 .cfa: sp 0 +
STACK CFI INIT 4948c 24 .cfa: sp 0 +
STACK CFI 49490 .cfa: sp 32 +
STACK CFI 49498 .cfa: x29 32 + x19: .cfa -16 + ^ .ra: .cfa -24 + ^ x29: .cfa -32 + ^
STACK CFI 494a4 .cfa: sp 32 +
STACK CFI 494ac .cfa: sp 0 +
STACK CFI INIT 494b0 28 .cfa: sp 0 +
STACK CFI 494b4 .cfa: sp 32 +
STACK CFI 494bc .cfa: x29 32 + x19: .cfa -16 + ^ .ra: .cfa -24 + ^ x29: .cfa -32 + ^
STACK CFI 494cc .cfa: sp 32 +
STACK CFI 494d4 .cfa: sp 0 +
STACK CFI INIT 4973c 8 .cfa: sp 0 +
STACK CFI INIT 49744 24 .cfa: sp 0 +
STACK CFI 49748 .cfa: sp 32 +
STACK CFI 49750 .cfa: x29 32 + x19: .cfa -16 + ^ .ra: .cfa -24 + ^ x29: .cfa -32 + ^
STACK CFI 4975c .cfa: sp 32 +
STACK CFI 49764 .cfa: sp 0 +
STACK CFI INIT 49768 28 .cfa: sp 0 +
STACK CFI 4976c .cfa: sp 32 +
STACK CFI 49774 .cfa: x29 32 + x19: .cfa -16 + ^ .ra: .cfa -24 + ^ x29: .cfa -32 + ^
STACK CFI 49784 .cfa: sp 32 +
STACK CFI 4978c .cfa: sp 0 +
STACK CFI INIT 49790 8 .cfa: sp 0 +
STACK CFI INIT 49798 24 .cfa: sp 0 +
STACK CFI 4979c .cfa: sp 32 +
STACK CFI 497a4 .cfa: x29 32 + x19: .cfa -16 + ^ .ra: .cfa -24 + ^ x29: .cfa -32 + ^
STACK CFI 497b0 .cfa: sp 32 +
STACK CFI 497b8 .cfa: sp 0 +
STACK CFI INIT 497bc 28 .cfa: sp 0 +
STACK CFI 497c0 .cfa: sp 32 +
STACK CFI 497c8 .cfa: x29 32 + x19: .cfa -16 + ^ .ra: .cfa -24 + ^ x29: .cfa -32 + ^
STACK CFI 497d8 .cfa: sp 32 +
STACK CFI 497e0 .cfa: sp 0 +
STACK CFI INIT 4b9fc 24 .cfa: sp 0 +
STACK CFI 4ba00 .cfa: sp 32 +
STACK CFI 4ba08 .cfa: x29 32 + x19: .cfa -16 + ^ .ra: .cfa -24 + ^ x29: .cfa -32 + ^
STACK CFI 4ba14 .cfa: sp 32 +
STACK CFI 4ba1c .cfa: sp 0 +
STACK CFI INIT 4c3c0 4 .cfa: sp 0 +
STACK CFI INIT 4d564 4 .cfa: sp 0 +
STACK CFI INIT 4d568 14 .cfa: sp 0 +
STACK CFI INIT 4da88 c .cfa: sp 0 +
STACK CFI INIT 4da94 24c .cfa: sp 0 +
STACK CFI INIT 4dce0 a0 .cfa: sp 0 +
STACK CFI 4dcec .cfa: sp 32 +
STACK CFI 4dd44 .cfa: sp 0 +
STACK CFI 4dd48 .cfa: sp 32 +
STACK CFI 4dd50 .cfa: sp 0 +
STACK CFI 4dd54 .cfa: sp 32 +
STACK CFI 4dd68 .cfa: sp 0 +
STACK CFI 4dd6c .cfa: sp 32 +
STACK CFI 4dd7c .cfa: sp 0 +
STACK CFI INIT 4dd80 38 .cfa: sp 0 +
STACK CFI 4dd8c .cfa: sp 32 +
STACK CFI 4ddb4 .cfa: sp 0 +
STACK CFI INIT 4e04c 7c .cfa: sp 0 +
STACK CFI 4e050 .cfa: sp 32 +
STACK CFI 4e058 .cfa: x29 32 + x19: .cfa -16 + ^ .ra: .cfa -24 + ^ x29: .cfa -32 + ^
STACK CFI 4e084 .cfa: sp 32 +
STACK CFI 4e08c .cfa: sp 0 +
STACK CFI 4e090 .cfa: x29 32 +
STACK CFI 4e0bc .cfa: sp 32 +
STACK CFI 4e0c4 .cfa: sp 0 +
STACK CFI INIT 4e118 2c .cfa: sp 0 +
STACK CFI 4e11c .cfa: sp 32 +
STACK CFI 4e124 .cfa: x29 32 + x19: .cfa -16 + ^ .ra: .cfa -24 + ^ x29: .cfa -32 + ^
STACK CFI 4e138 .cfa: sp 32 +
STACK CFI 4e140 .cfa: sp 0 +
STACK CFI INIT 4e904 64 .cfa: sp 0 +
STACK CFI 4e908 .cfa: sp 32 +
STACK CFI 4e910 .cfa: x29 32 + x19: .cfa -16 + ^ .ra: .cfa -24 + ^ x29: .cfa -32 + ^
STACK CFI 4e92c .cfa: sp 32 +
STACK CFI 4e934 .cfa: sp 0 +
STACK CFI 4e938 .cfa: x29 32 +
STACK CFI 4e95c .cfa: sp 32 +
STACK CFI 4e964 .cfa: sp 0 +
STACK CFI INIT 4e968 570 .cfa: sp 0 +
STACK CFI 4e96c .cfa: sp 176 +
STACK CFI 4e980 .cfa: x29 64 + x19: .cfa -8 + ^ x20: .cfa -16 + ^ x21: .cfa -24 + ^ x22: .cfa -32 + ^ x23: .cfa -40 + ^ x24: .cfa -48 + ^ .ra: .cfa -56 + ^ x29: .cfa -64 + ^
STACK CFI 4ebb0 .cfa: sp 176 +
STACK CFI 4ebc4 .cfa: sp 0 +
STACK CFI 4ebc8 .cfa: x29 64 +
STACK CFI 4ec14 .cfa: sp 176 +
STACK CFI 4ec28 .cfa: sp 0 +
STACK CFI 4ec2c .cfa: x29 64 +
STACK CFI 4ec64 .cfa: sp 176 +
STACK CFI 4ec78 .cfa: sp 0 +
STACK CFI 4ec7c .cfa: x29 64 +
STACK CFI 4ec94 .cfa: sp 176 +
STACK CFI 4eca8 .cfa: sp 0 +
STACK CFI 4ecac .cfa: x29 64 +
STACK CFI 4eccc .cfa: sp 176 +
STACK CFI 4ece0 .cfa: sp 0 +
STACK CFI 4ece4 .cfa: x29 64 +
STACK CFI 4ecfc .cfa: sp 176 +
STACK CFI 4ed10 .cfa: sp 0 +
STACK CFI 4ed14 .cfa: x29 64 +
STACK CFI 4ed28 .cfa: sp 176 +
STACK CFI 4ed3c .cfa: sp 0 +
STACK CFI 4ed40 .cfa: x29 64 +
STACK CFI 4ed54 .cfa: sp 176 +
STACK CFI 4ed68 .cfa: sp 0 +
STACK CFI 4ed6c .cfa: x29 64 +
STACK CFI 4ed7c .cfa: sp 176 +
STACK CFI 4ed90 .cfa: sp 0 +
STACK CFI 4ed94 .cfa: x29 64 +
STACK CFI 4eda4 .cfa: sp 176 +
STACK CFI 4edb8 .cfa: sp 0 +
STACK CFI 4edbc .cfa: x29 64 +
STACK CFI 4edd4 .cfa: sp 176 +
STACK CFI 4ede8 .cfa: sp 0 +
STACK CFI 4edec .cfa: x29 64 +
STACK CFI 4ee00 .cfa: sp 176 +
STACK CFI 4ee14 .cfa: sp 0 +
STACK CFI 4ee18 .cfa: x29 64 +
STACK CFI 4ee30 .cfa: sp 176 +
STACK CFI 4ee44 .cfa: sp 0 +
STACK CFI 4ee48 .cfa: x29 64 +
STACK CFI 4ee74 .cfa: sp 176 +
STACK CFI 4ee88 .cfa: sp 0 +
STACK CFI 4ee8c .cfa: x29 64 +
STACK CFI 4eea0 .cfa: sp 176 +
STACK CFI 4eeb4 .cfa: sp 0 +
STACK CFI 4eeb8 .cfa: x29 64 +
STACK CFI INIT 4eed8 228 .cfa: sp 0 +
STACK CFI INIT 4f100 2dc .cfa: sp 0 +
STACK CFI INIT 4f3dc 53c .cfa: sp 0 +
STACK CFI INIT 4f918 78 .cfa: sp 0 +
STACK CFI 4f91c .cfa: sp 48 +
STACK CFI 4f928 .cfa: x29 48 + x19: .cfa -8 + ^ x20: .cfa -16 + ^ x21: .cfa -24 + ^ x22: .cfa -32 + ^ .ra: .cfa -40 + ^ x29: .cfa -48 + ^
STACK CFI 4f970 .cfa: sp 48 +
STACK CFI 4f97c .cfa: sp 0 +
STACK CFI 4f980 .cfa: sp 48 +
STACK CFI 4f98c .cfa: sp 0 +
STACK CFI INIT 4f990 8c .cfa: sp 0 +
STACK CFI 4f994 .cfa: sp 32 +
STACK CFI 4f99c .cfa: x29 32 + x19: .cfa -16 + ^ .ra: .cfa -24 + ^ x29: .cfa -32 + ^
STACK CFI 4f9d0 .cfa: sp 32 +
STACK CFI 4f9d8 .cfa: sp 0 +
STACK CFI 4f9dc .cfa: x29 32 +
STACK CFI 4fa10 .cfa: sp 32 +
STACK CFI 4fa18 .cfa: sp 0 +
STACK CFI INIT 4fa1c 24 .cfa: sp 0 +
STACK CFI 4fa20 .cfa: sp 32 +
STACK CFI 4fa28 .cfa: x29 32 + x19: .cfa -16 + ^ .ra: .cfa -24 + ^ x29: .cfa -32 + ^
STACK CFI 4fa34 .cfa: sp 32 +
STACK CFI 4fa3c .cfa: sp 0 +
STACK CFI INIT 4fa40 150 .cfa: sp 0 +
STACK CFI 4fa44 .cfa: sp 48 +
STACK CFI 4fa50 .cfa: x29 48 + x19: .cfa -8 + ^ x20: .cfa -16 + ^ x21: .cfa -24 + ^ x22: .cfa -32 + ^ .ra: .cfa -40 + ^ x29: .cfa -48 + ^
STACK CFI 4fb80 .cfa: sp 48 +
STACK CFI 4fb8c .cfa: sp 0 +
STACK CFI INIT 4fb90 68 .cfa: sp 0 +
STACK CFI 4fb94 .cfa: sp 64 +
STACK CFI 4fba0 .cfa: x29 32 + x19: .cfa -16 + ^ .ra: .cfa -24 + ^ x29: .cfa -32 + ^
STACK CFI 4fbe4 .cfa: sp 64 +
STACK CFI 4fbf0 .cfa: sp 0 +
STACK CFI 4fbf4 .cfa: x29 32 +
STACK CFI INIT 4fbf8 90 .cfa: sp 0 +
STACK CFI 4fbfc .cfa: sp 32 +
STACK CFI 4fc04 .cfa: x29 32 + x19: .cfa -8 + ^ x20: .cfa -16 + ^ .ra: .cfa -24 + ^ x29: .cfa -32 + ^
STACK CFI 4fc30 .cfa: sp 32 +
STACK CFI 4fc38 .cfa: sp 0 +
STACK CFI 4fc3c .cfa: x29 32 +
STACK CFI 4fc7c .cfa: sp 32 +
STACK CFI 4fc84 .cfa: sp 0 +
STACK CFI INIT 4fc88 ec .cfa: sp 0 +
STACK CFI 4fc8c .cfa: sp 112 +
STACK CFI 4fc9c .cfa: x29 48 + x19: .cfa -8 + ^ x20: .cfa -16 + ^ x21: .cfa -32 + ^ .ra: .cfa -40 + ^ x29: .cfa -48 + ^
STACK CFI 4fd5c .cfa: sp 112 +
STACK CFI 4fd6c .cfa: sp 0 +
STACK CFI 4fd70 .cfa: x29 48 +
STACK CFI INIT 4fd74 ec .cfa: sp 0 +
STACK CFI 4fd78 .cfa: sp 112 +
STACK CFI 4fd88 .cfa: x29 48 + x19: .cfa -8 + ^ x20: .cfa -16 + ^ x21: .cfa -32 + ^ .ra: .cfa -40 + ^ x29: .cfa -48 + ^
STACK CFI 4fe48 .cfa: sp 112 +
STACK CFI 4fe58 .cfa: sp 0 +
STACK CFI 4fe5c .cfa: x29 48 +
STACK CFI INIT 4fe60 48 .cfa: sp 0 +
STACK CFI 4fe64 .cfa: sp 32 +
STACK CFI 4fe6c .cfa: x29 32 + x19: .cfa -8 + ^ x20: .cfa -16 + ^ .ra: .cfa -24 + ^ x29: .cfa -32 + ^
STACK CFI 4fe90 .cfa: sp 32 +
STACK CFI 4fe98 .cfa: sp 0 +
STACK CFI 4fe9c .cfa: x29 32 +
STACK CFI INIT 4fea8 98 .cfa: sp 0 +
STACK CFI 4feac .cfa: sp 80 +
STACK CFI 4feb8 .cfa: x29 32 + x19: .cfa -16 + ^ .ra: .cfa -24 + ^ x29: .cfa -32 + ^
STACK CFI 4ff2c .cfa: sp 80 +
STACK CFI 4ff38 .cfa: sp 0 +
STACK CFI 4ff3c .cfa: x29 32 +
STACK CFI INIT 4ff40 260 .cfa: sp 0 +
STACK CFI 4ff44 .cfa: sp 112 +
STACK CFI 4ff5c .cfa: x29 80 + x19: .cfa -8 + ^ x20: .cfa -16 + ^ x21: .cfa -24 + ^ x22: .cfa -32 + ^ x23: .cfa -40 + ^ x24: .cfa -48 + ^ x25: .cfa -64 + ^ .ra: .cfa -72 + ^ x29: .cfa -80 + ^
STACK CFI 50140 .cfa: sp 112 +
STACK CFI 50158 .cfa: sp 0 +
STACK CFI 5015c .cfa: x29 80 +
STACK CFI INIT 501a0 150 .cfa: sp 0 +
STACK CFI 501a4 .cfa: sp 48 +
STACK CFI 501b0 .cfa: x29 48 + x19: .cfa -8 + ^ x20: .cfa -16 + ^ x21: .cfa -24 + ^ x22: .cfa -32 + ^ .ra: .cfa -40 + ^ x29: .cfa -48 + ^
STACK CFI 502e0 .cfa: sp 48 +
STACK CFI 502ec .cfa: sp 0 +
STACK CFI INIT 502f0 1e0 .cfa: sp 0 +
STACK CFI 502f4 .cfa: sp 96 +
STACK CFI 50308 .cfa: x29 64 + x19: .cfa -8 + ^ x20: .cfa -16 + ^ x21: .cfa -24 + ^ x22: .cfa -32 + ^ x23: .cfa -40 + ^ x24: .cfa -48 + ^ .ra: .cfa -56 + ^ x29: .cfa -64 + ^
STACK CFI 50488 .cfa: sp 96 +
STACK CFI 5049c .cfa: sp 0 +
STACK CFI 504a0 .cfa: x29 64 +
STACK CFI INIT 504d0 284 .cfa: sp 0 +
STACK CFI 504d4 .cfa: sp 112 +
STACK CFI 504ec .cfa: x29 80 + x19: .cfa -8 + ^ x20: .cfa -16 + ^ x21: .cfa -24 + ^ x22: .cfa -32 + ^ x23: .cfa -40 + ^ x24: .cfa -48 + ^ x25: .cfa -64 + ^ .ra: .cfa -72 + ^ x29: .cfa -80 + ^
STACK CFI 506f4 .cfa: sp 112 +
STACK CFI 5070c .cfa: sp 0 +
STACK CFI 50710 .cfa: x29 80 +
STACK CFI INIT 50754 208 .cfa: sp 0 +
STACK CFI 50758 .cfa: sp 96 +
STACK CFI 5076c .cfa: x29 64 + x19: .cfa -8 + ^ x20: .cfa -16 + ^ x21: .cfa -24 + ^ x22: .cfa -32 + ^ x23: .cfa -40 + ^ x24: .cfa -48 + ^ .ra: .cfa -56 + ^ x29: .cfa -64 + ^
STACK CFI 50914 .cfa: sp 96 +
STACK CFI 50928 .cfa: sp 0 +
STACK CFI 5092c .cfa: x29 64 +
STACK CFI INIT 5095c 360 .cfa: sp 0 +
STACK CFI 50960 .cfa: sp 160 +
STACK CFI 5097c .cfa: x29 96 + x19: .cfa -8 + ^ x20: .cfa -16 + ^ x21: .cfa -24 + ^ x22: .cfa -32 + ^ x23: .cfa -40 + ^ x24: .cfa -48 + ^ x25: .cfa -56 + ^ x26: .cfa -64 + ^ x27: .cfa -72 + ^ x28: .cfa -80 + ^ .ra: .cfa -88 + ^ x29: .cfa -96 + ^
STACK CFI 50c48 .cfa: sp 160 +
STACK CFI 50c64 .cfa: sp 0 +
STACK CFI 50c68 .cfa: x29 96 +
STACK CFI INIT 50cbc 314 .cfa: sp 0 +
STACK CFI 50cc0 .cfa: sp 144 +
STACK CFI 50cdc .cfa: x29 96 + x19: .cfa -8 + ^ x20: .cfa -16 + ^ x21: .cfa -24 + ^ x22: .cfa -32 + ^ x23: .cfa -40 + ^ x24: .cfa -48 + ^ x25: .cfa -56 + ^ x26: .cfa -64 + ^ x27: .cfa -72 + ^ x28: .cfa -80 + ^ .ra: .cfa -88 + ^ x29: .cfa -96 + ^
STACK CFI 50f58 .cfa: sp 144 +
STACK CFI 50f74 .cfa: sp 0 +
STACK CFI 50f78 .cfa: x29 96 +
STACK CFI INIT 50fd0 2b4 .cfa: sp 0 +
STACK CFI 50fd4 .cfa: sp 128 +
STACK CFI 50fec .cfa: x29 80 + x19: .cfa -8 + ^ x20: .cfa -16 + ^ x21: .cfa -24 + ^ x22: .cfa -32 + ^ x23: .cfa -40 + ^ x24: .cfa -48 + ^ x25: .cfa -56 + ^ x26: .cfa -64 + ^ .ra: .cfa -72 + ^ x29: .cfa -80 + ^
STACK CFI 511e0 .cfa: sp 128 +
STACK CFI 511f8 .cfa: sp 0 +
STACK CFI 511fc .cfa: x29 80 +
STACK CFI 51264 .cfa: sp 128 +
STACK CFI 5127c .cfa: sp 0 +
STACK CFI 51280 .cfa: x29 80 +
STACK CFI INIT 51284 de0 .cfa: sp 0 +
STACK CFI 51288 .cfa: sp 144 +
STACK CFI 512a4 .cfa: x29 96 + x19: .cfa -8 + ^ x20: .cfa -16 + ^ x21: .cfa -24 + ^ x22: .cfa -32 + ^ x23: .cfa -40 + ^ x24: .cfa -48 + ^ x25: .cfa -56 + ^ x26: .cfa -64 + ^ x27: .cfa -72 + ^ x28: .cfa -80 + ^ .ra: .cfa -88 + ^ x29: .cfa -96 + ^
STACK CFI 51f3c .cfa: sp 144 +
STACK CFI 51f58 .cfa: sp 0 +
STACK CFI 51f5c .cfa: x29 96 +
STACK CFI INIT 52064 264 .cfa: sp 0 +
STACK CFI 52068 .cfa: sp 112 +
STACK CFI 5207c .cfa: x29 64 + x19: .cfa -8 + ^ x20: .cfa -16 + ^ x21: .cfa -24 + ^ x22: .cfa -32 + ^ x23: .cfa -40 + ^ x24: .cfa -48 + ^ .ra: .cfa -56 + ^ x29: .cfa -64 + ^
STACK CFI 521f8 .cfa: sp 112 +
STACK CFI 5220c .cfa: sp 0 +
STACK CFI 52210 .cfa: x29 64 +
STACK CFI 52280 .cfa: sp 112 +
STACK CFI 52294 .cfa: sp 0 +
STACK CFI 52298 .cfa: x29 64 +
STACK CFI INIT 522c8 258 .cfa: sp 0 +
STACK CFI 522cc .cfa: sp 96 +
STACK CFI 522e4 .cfa: x29 96 + x19: .cfa -8 + ^ x20: .cfa -16 + ^ x21: .cfa -24 + ^ x22: .cfa -32 + ^ x23: .cfa -40 + ^ x24: .cfa -48 + ^ x25: .cfa -56 + ^ x26: .cfa -64 + ^ x27: .cfa -72 + ^ x28: .cfa -80 + ^ .ra: .cfa -88 + ^ x29: .cfa -96 + ^
STACK CFI 524dc .cfa: sp 96 +
STACK CFI 524f4 .cfa: sp 0 +
STACK CFI 524f8 .cfa: x29 96 +
STACK CFI 52504 .cfa: sp 96 +
STACK CFI 5251c .cfa: sp 0 +
STACK CFI INIT 531a4 154 .cfa: sp 0 +
STACK CFI 531a8 .cfa: sp 96 +
STACK CFI 531bc .cfa: x29 64 + x19: .cfa -8 + ^ x20: .cfa -16 + ^ x21: .cfa -24 + ^ x22: .cfa -32 + ^ x23: .cfa -48 + ^ .ra: .cfa -56 + ^ x29: .cfa -64 + ^
STACK CFI 5329c .cfa: sp 96 +
STACK CFI 532b0 .cfa: sp 0 +
STACK CFI 532b4 .cfa: x29 64 +
STACK CFI INIT 53564 44 .cfa: sp 0 +
STACK CFI 53568 .cfa: sp 32 +
STACK CFI 53570 .cfa: x29 32 + x19: .cfa -16 + ^ .ra: .cfa -24 + ^ x29: .cfa -32 + ^
STACK CFI 5358c .cfa: sp 32 +
STACK CFI 53594 .cfa: sp 0 +
STACK CFI 53598 .cfa: x29 32 +
STACK CFI 5359c .cfa: sp 32 +
STACK CFI 535a4 .cfa: sp 0 +
STACK CFI INIT 535a8 1d0 .cfa: sp 0 +
STACK CFI 535ac .cfa: sp 64 +
STACK CFI 535bc .cfa: x29 64 + x19: .cfa -8 + ^ x20: .cfa -16 + ^ x21: .cfa -24 + ^ x22: .cfa -32 + ^ x23: .cfa -40 + ^ x24: .cfa -48 + ^ .ra: .cfa -56 + ^ x29: .cfa -64 + ^
STACK CFI 5367c .cfa: sp 64 +
STACK CFI 5368c .cfa: sp 0 +
STACK CFI 53690 .cfa: x29 64 +
STACK CFI INIT 53778 17c .cfa: sp 0 +
STACK CFI INIT 53cac a0 .cfa: sp 0 +
STACK CFI 53cb0 .cfa: sp 48 +
STACK CFI 53cbc .cfa: x29 48 + x19: .cfa -8 + ^ x20: .cfa -16 + ^ x21: .cfa -24 + ^ x22: .cfa -32 + ^ .ra: .cfa -40 + ^ x29: .cfa -48 + ^
STACK CFI 53d28 .cfa: sp 48 +
STACK CFI 53d34 .cfa: sp 0 +
STACK CFI 53d38 .cfa: sp 48 +
STACK CFI 53d44 .cfa: sp 0 +
STACK CFI 53d48 .cfa: x29 48 +
STACK CFI INIT 54a0c 158 .cfa: sp 0 +
STACK CFI 54a10 .cfa: sp 96 +
STACK CFI 54a24 .cfa: x29 64 + x19: .cfa -8 + ^ x20: .cfa -16 + ^ x21: .cfa -24 + ^ x22: .cfa -32 + ^ x23: .cfa -48 + ^ .ra: .cfa -56 + ^ x29: .cfa -64 + ^
STACK CFI 54b08 .cfa: sp 96 +
STACK CFI 54b1c .cfa: sp 0 +
STACK CFI 54b20 .cfa: x29 64 +
STACK CFI INIT 54b64 190 .cfa: sp 0 +
STACK CFI INIT 557ec 1f4 .cfa: sp 0 +
STACK CFI 557f0 .cfa: sp 80 +
STACK CFI 55804 .cfa: x29 80 + x19: .cfa -8 + ^ x20: .cfa -16 + ^ x21: .cfa -24 + ^ x22: .cfa -32 + ^ x23: .cfa -40 + ^ x24: .cfa -48 + ^ x25: .cfa -64 + ^ .ra: .cfa -72 + ^ x29: .cfa -80 + ^
STACK CFI 559a4 .cfa: sp 80 +
STACK CFI 559b8 .cfa: sp 0 +
STACK CFI 559bc .cfa: x29 80 +
STACK CFI 559c8 .cfa: sp 80 +
STACK CFI 559dc .cfa: sp 0 +
STACK CFI INIT 56e10 124 .cfa: sp 0 +
STACK CFI 56e40 .cfa: sp 32 +
STACK CFI 56e48 .cfa: x29 32 + x19: .cfa -8 + ^ x20: .cfa -16 + ^ .ra: .cfa -24 + ^ x29: .cfa -32 + ^
STACK CFI 56f28 .cfa: sp 32 +
STACK CFI 56f30 .cfa: sp 0 +
STACK CFI INIT 57690 320 .cfa: sp 0 +
STACK CFI 57694 .cfa: sp 64 +
STACK CFI 576a4 .cfa: x29 64 + x19: .cfa -8 + ^ x20: .cfa -16 + ^ x21: .cfa -24 + ^ x22: .cfa -32 + ^ x23: .cfa -40 + ^ x24: .cfa -48 + ^ .ra: .cfa -56 + ^ x29: .cfa -64 + ^
STACK CFI 57720 .cfa: sp 64 +
STACK CFI 57730 .cfa: sp 0 +
STACK CFI 57734 .cfa: x29 64 +
STACK CFI 57908 .cfa: sp 64 +
STACK CFI 57918 .cfa: sp 0 +
STACK CFI 5791c .cfa: x29 64 +
STACK CFI 5792c .cfa: sp 64 +
STACK CFI 5793c .cfa: sp 0 +
STACK CFI 57940 .cfa: x29 64 +
STACK CFI INIT 579b0 a0 .cfa: sp 0 +
STACK CFI 579b4 .cfa: sp 48 +
STACK CFI 579c0 .cfa: x29 48 + x19: .cfa -8 + ^ x20: .cfa -16 + ^ x21: .cfa -24 + ^ x22: .cfa -32 + ^ .ra: .cfa -40 + ^ x29: .cfa -48 + ^
STACK CFI 57a2c .cfa: sp 48 +
STACK CFI 57a38 .cfa: sp 0 +
STACK CFI 57a3c .cfa: sp 48 +
STACK CFI 57a48 .cfa: sp 0 +
STACK CFI 57a4c .cfa: x29 48 +
STACK CFI INIT 58930 160 .cfa: sp 0 +
STACK CFI 58934 .cfa: sp 64 +
STACK CFI 58944 .cfa: x29 64 + x19: .cfa -8 + ^ x20: .cfa -16 + ^ x21: .cfa -24 + ^ x22: .cfa -32 + ^ x23: .cfa -48 + ^ .ra: .cfa -56 + ^ x29: .cfa -64 + ^
STACK CFI 58a3c .cfa: sp 64 +
STACK CFI 58a4c .cfa: sp 0 +
STACK CFI 58a50 .cfa: x29 64 +
STACK CFI INIT 58a90 214 .cfa: sp 0 +
STACK CFI 58a94 .cfa: sp 128 +
STACK CFI 58ab0 .cfa: x29 96 + x19: .cfa -8 + ^ x20: .cfa -16 + ^ x21: .cfa -24 + ^ x22: .cfa -32 + ^ x23: .cfa -40 + ^ x24: .cfa -48 + ^ x25: .cfa -56 + ^ x26: .cfa -64 + ^ x27: .cfa -80 + ^ .ra: .cfa -88 + ^ x29: .cfa -96 + ^
STACK CFI 58c2c .cfa: sp 128 +
STACK CFI 58c48 .cfa: sp 0 +
STACK CFI 58c4c .cfa: x29 96 +
STACK CFI INIT 5a158 e60 .cfa: sp 0 +
STACK CFI 5a15c .cfa: sp 192 +
STACK CFI 5a178 .cfa: x29 96 + x19: .cfa -8 + ^ x20: .cfa -16 + ^ x21: .cfa -24 + ^ x22: .cfa -32 + ^ x23: .cfa -40 + ^ x24: .cfa -48 + ^ x25: .cfa -56 + ^ x26: .cfa -64 + ^ x27: .cfa -72 + ^ x28: .cfa -80 + ^ .ra: .cfa -88 + ^ x29: .cfa -96 + ^
STACK CFI 5aea0 .cfa: sp 192 +
STACK CFI 5aebc .cfa: sp 0 +
STACK CFI 5aec0 .cfa: x29 96 +
STACK CFI INIT 5afb8 1090 .cfa: sp 0 +
STACK CFI 5afbc .cfa: sp 288 +
STACK CFI 5afd8 .cfa: x29 96 + x19: .cfa -8 + ^ x20: .cfa -16 + ^ x21: .cfa -24 + ^ x22: .cfa -32 + ^ x23: .cfa -40 + ^ x24: .cfa -48 + ^ x25: .cfa -56 + ^ x26: .cfa -64 + ^ x27: .cfa -72 + ^ x28: .cfa -80 + ^ .ra: .cfa -88 + ^ x29: .cfa -96 + ^
STACK CFI 5bd90 .cfa: sp 288 +
STACK CFI 5bdac .cfa: sp 0 +
STACK CFI 5bdb0 .cfa: x29 96 +
STACK CFI INIT 5c048 520 .cfa: sp 0 +
STACK CFI 5c04c .cfa: sp 144 +
STACK CFI 5c068 .cfa: x29 96 + x19: .cfa -8 + ^ x20: .cfa -16 + ^ x21: .cfa -24 + ^ x22: .cfa -32 + ^ x23: .cfa -40 + ^ x24: .cfa -48 + ^ x25: .cfa -56 + ^ x26: .cfa -64 + ^ x27: .cfa -72 + ^ x28: .cfa -80 + ^ .ra: .cfa -88 + ^ x29: .cfa -96 + ^
STACK CFI 5c544 .cfa: sp 144 +
STACK CFI 5c560 .cfa: sp 0 +
STACK CFI 5c564 .cfa: x29 96 +
STACK CFI INIT 28490 48dc .cfa: sp 0 +
STACK CFI 28494 .cfa: sp 48 +
STACK CFI 284a0 .cfa: x29 48 + x19: .cfa -8 + ^ x20: .cfa -16 + ^ x28: .cfa -32 + ^ .ra: .cfa -40 + ^ x29: .cfa -48 + ^
STACK CFI 2b448 .cfa: sp 48 +
STACK CFI 2b454 .cfa: sp 0 +
STACK CFI 2b458 .cfa: x29 48 +
STACK CFI INIT 2cd6c 480 .cfa: sp 0 +
STACK CFI 2cd70 .cfa: sp 224 +
STACK CFI 2cd8c .cfa: x29 96 + x19: .cfa -8 + ^ x20: .cfa -16 + ^ x21: .cfa -24 + ^ x22: .cfa -32 + ^ x23: .cfa -40 + ^ x24: .cfa -48 + ^ x25: .cfa -56 + ^ x26: .cfa -64 + ^ x27: .cfa -80 + ^ .ra: .cfa -88 + ^ x29: .cfa -96 + ^
STACK CFI 2cff8 .cfa: sp 224 +
STACK CFI 2d014 .cfa: sp 0 +
STACK CFI 2d018 .cfa: x29 96 +
STACK CFI 2d0e4 .cfa: sp 224 +
STACK CFI 2d100 .cfa: sp 0 +
STACK CFI 2d104 .cfa: x29 96 +
STACK CFI INIT 2d208 344 .cfa: sp 0 +
STACK CFI 2d20c .cfa: sp 256 +
STACK CFI 2d220 .cfa: x29 64 + x19: .cfa -8 + ^ x20: .cfa -16 + ^ x21: .cfa -24 + ^ x22: .cfa -32 + ^ x23: .cfa -48 + ^ .ra: .cfa -56 + ^ x29: .cfa -64 + ^
STACK CFI 2d434 .cfa: sp 256 +
STACK CFI 2d448 .cfa: sp 0 +
STACK CFI 2d44c .cfa: x29 64 +
STACK CFI INIT 2d59c 74 .cfa: sp 0 +
STACK CFI 2d5a0 .cfa: sp 48 +
STACK CFI 2d5ac .cfa: x29 32 + x19: .cfa -8 + ^ x20: .cfa -16 + ^ .ra: .cfa -24 + ^ x29: .cfa -32 + ^
STACK CFI 2d5f8 .cfa: sp 48 +
STACK CFI 2d604 .cfa: sp 0 +
STACK CFI 2d608 .cfa: x29 32 +
STACK CFI INIT 2d6a0 154 .cfa: sp 0 +
STACK CFI 2d6a4 .cfa: sp 384 +
STACK CFI 2d6b8 .cfa: x29 64 + x19: .cfa -8 + ^ x20: .cfa -16 + ^ x21: .cfa -24 + ^ x22: .cfa -32 + ^ x23: .cfa -40 + ^ x28: .cfa -48 + ^ .ra: .cfa -56 + ^ x29: .cfa -64 + ^
STACK CFI 2d79c .cfa: sp 384 +
STACK CFI 2d7b0 .cfa: sp 0 +
STACK CFI 2d7b4 .cfa: x29 64 +
STACK CFI INIT 2d828 12c .cfa: sp 0 +
STACK CFI 2d82c .cfa: sp 80 +
STACK CFI 2d840 .cfa: x29 80 + x19: .cfa -8 + ^ x20: .cfa -16 + ^ x21: .cfa -24 + ^ x22: .cfa -32 + ^ x23: .cfa -40 + ^ x24: .cfa -48 + ^ x25: .cfa -56 + ^ x26: .cfa -64 + ^ .ra: .cfa -72 + ^ x29: .cfa -80 + ^
STACK CFI 2d908 .cfa: sp 80 +
STACK CFI 2d91c .cfa: sp 0 +
STACK CFI 2d920 .cfa: x29 80 +
STACK CFI INIT 2d9f8 1a4 .cfa: sp 0 +
STACK CFI 2d9fc .cfa: sp 112 +
STACK CFI 2da14 .cfa: x29 80 + x19: .cfa -8 + ^ x20: .cfa -16 + ^ x21: .cfa -24 + ^ x22: .cfa -32 + ^ x23: .cfa -40 + ^ x24: .cfa -48 + ^ x25: .cfa -56 + ^ x26: .cfa -64 + ^ .ra: .cfa -72 + ^ x29: .cfa -80 + ^
STACK CFI 2db04 .cfa: sp 112 +
STACK CFI 2db1c .cfa: sp 0 +
STACK CFI 2db20 .cfa: x29 80 +
STACK CFI INIT 2db9c 1dc .cfa: sp 0 +
STACK CFI 2dba0 .cfa: sp 128 +
STACK CFI 2dbbc .cfa: x29 96 + x19: .cfa -8 + ^ x20: .cfa -16 + ^ x21: .cfa -24 + ^ x22: .cfa -32 + ^ x23: .cfa -40 + ^ x24: .cfa -48 + ^ x25: .cfa -56 + ^ x26: .cfa -64 + ^ x27: .cfa -80 + ^ .ra: .cfa -88 + ^ x29: .cfa -96 + ^
STACK CFI 2dd28 .cfa: sp 128 +
STACK CFI 2dd44 .cfa: sp 0 +
STACK CFI 2dd48 .cfa: x29 96 +
STACK CFI INIT 2dd8c 50 .cfa: sp 0 +
STACK CFI 2dd90 .cfa: sp 32 +
STACK CFI 2dd98 .cfa: x29 32 + x19: .cfa -8 + ^ x20: .cfa -16 + ^ .ra: .cfa -24 + ^ x29: .cfa -32 + ^
STACK CFI INIT 2de40 178 .cfa: sp 0 +
STACK CFI 2de44 .cfa: sp 80 +
STACK CFI 2de58 .cfa: x29 80 + x19: .cfa -8 + ^ x20: .cfa -16 + ^ x21: .cfa -24 + ^ x22: .cfa -32 + ^ x23: .cfa -40 + ^ x24: .cfa -48 + ^ x25: .cfa -64 + ^ .ra: .cfa -72 + ^ x29: .cfa -80 + ^
STACK CFI 2df84 .cfa: sp 80 +
STACK CFI 2df98 .cfa: sp 0 +
STACK CFI 2df9c .cfa: x29 80 +
STACK CFI INIT 2e100 228 .cfa: sp 0 +
STACK CFI 2e104 .cfa: sp 128 +
STACK CFI 2e11c .cfa: x29 80 + x19: .cfa -8 + ^ x20: .cfa -16 + ^ x21: .cfa -24 + ^ x22: .cfa -32 + ^ x23: .cfa -40 + ^ x24: .cfa -48 + ^ x25: .cfa -64 + ^ .ra: .cfa -72 + ^ x29: .cfa -80 + ^
STACK CFI 2e2b8 .cfa: sp 128 +
STACK CFI 2e2d0 .cfa: sp 0 +
STACK CFI 2e2d4 .cfa: x29 80 +
STACK CFI INIT 2ee6c 480 .cfa: sp 0 +
STACK CFI 2ee70 .cfa: sp 224 +
STACK CFI 2ee8c .cfa: x29 96 + x19: .cfa -8 + ^ x20: .cfa -16 + ^ x21: .cfa -24 + ^ x22: .cfa -32 + ^ x23: .cfa -40 + ^ x24: .cfa -48 + ^ x25: .cfa -56 + ^ x26: .cfa -64 + ^ x27: .cfa -80 + ^ .ra: .cfa -88 + ^ x29: .cfa -96 + ^
STACK CFI 2f0f8 .cfa: sp 224 +
STACK CFI 2f114 .cfa: sp 0 +
STACK CFI 2f118 .cfa: x29 96 +
STACK CFI 2f1e4 .cfa: sp 224 +
STACK CFI 2f200 .cfa: sp 0 +
STACK CFI 2f204 .cfa: x29 96 +
STACK CFI INIT 2f308 50 .cfa: sp 0 +
STACK CFI 2f30c .cfa: sp 32 +
STACK CFI 2f314 .cfa: x29 32 + x19: .cfa -8 + ^ x20: .cfa -16 + ^ .ra: .cfa -24 + ^ x29: .cfa -32 + ^
STACK CFI INIT 2f388 308 .cfa: sp 0 +
STACK CFI 2f38c .cfa: sp 176 +
STACK CFI 2f3a0 .cfa: x29 64 + x19: .cfa -8 + ^ x20: .cfa -16 + ^ x21: .cfa -24 + ^ x22: .cfa -32 + ^ x23: .cfa -48 + ^ .ra: .cfa -56 + ^ x29: .cfa -64 + ^
STACK CFI 2f588 .cfa: sp 176 +
STACK CFI 2f59c .cfa: sp 0 +
STACK CFI 2f5a0 .cfa: x29 64 +
STACK CFI INIT 2f694 1b0 .cfa: sp 0 +
STACK CFI 2f698 .cfa: sp 96 +
STACK CFI 2f6ac .cfa: x29 64 + x19: .cfa -8 + ^ x20: .cfa -16 + ^ x21: .cfa -24 + ^ x22: .cfa -32 + ^ x23: .cfa -40 + ^ x24: .cfa -48 + ^ .ra: .cfa -56 + ^ x29: .cfa -64 + ^
STACK CFI 2f7e0 .cfa: sp 96 +
STACK CFI 2f7f4 .cfa: sp 0 +
STACK CFI 2f7f8 .cfa: x29 64 +
STACK CFI INIT 2f844 c8 .cfa: sp 0 +
STACK CFI 2f848 .cfa: sp 32 +
STACK CFI 2f850 .cfa: x29 32 + x19: .cfa -8 + ^ x20: .cfa -16 + ^ .ra: .cfa -24 + ^ x29: .cfa -32 + ^
STACK CFI 2f884 .cfa: sp 32 +
STACK CFI 2f88c .cfa: sp 0 +
STACK CFI 2f890 .cfa: x29 32 +
STACK CFI 2f894 .cfa: sp 32 +
STACK CFI 2f89c .cfa: sp 0 +
STACK CFI 2f8a0 .cfa: x29 32 +
STACK CFI INIT 2f90c 94 .cfa: sp 0 +
STACK CFI 2f910 .cfa: sp 32 +
STACK CFI 2f918 .cfa: x29 32 + x19: .cfa -8 + ^ x20: .cfa -16 + ^ .ra: .cfa -24 + ^ x29: .cfa -32 + ^
STACK CFI 2f980 .cfa: sp 32 +
STACK CFI 2f988 .cfa: sp 0 +
STACK CFI 2f98c .cfa: x29 32 +
STACK CFI INIT 2f9a0 480 .cfa: sp 0 +
STACK CFI 2f9a4 .cfa: sp 224 +
STACK CFI 2f9c0 .cfa: x29 96 + x19: .cfa -8 + ^ x20: .cfa -16 + ^ x21: .cfa -24 + ^ x22: .cfa -32 + ^ x23: .cfa -40 + ^ x24: .cfa -48 + ^ x25: .cfa -56 + ^ x26: .cfa -64 + ^ x27: .cfa -80 + ^ .ra: .cfa -88 + ^ x29: .cfa -96 + ^
STACK CFI 2fc2c .cfa: sp 224 +
STACK CFI 2fc48 .cfa: sp 0 +
STACK CFI 2fc4c .cfa: x29 96 +
STACK CFI 2fd18 .cfa: sp 224 +
STACK CFI 2fd34 .cfa: sp 0 +
STACK CFI 2fd38 .cfa: x29 96 +
STACK CFI INIT 2fe3c 3cc .cfa: sp 0 +
STACK CFI 2fe40 .cfa: sp 256 +
STACK CFI 2fe54 .cfa: x29 64 + x19: .cfa -8 + ^ x20: .cfa -16 + ^ x21: .cfa -24 + ^ x22: .cfa -32 + ^ x23: .cfa -48 + ^ .ra: .cfa -56 + ^ x29: .cfa -64 + ^
STACK CFI 300d0 .cfa: sp 256 +
STACK CFI 300e4 .cfa: sp 0 +
STACK CFI 300e8 .cfa: x29 64 +
STACK CFI INIT 30304 480 .cfa: sp 0 +
STACK CFI 30308 .cfa: sp 224 +
STACK CFI 30324 .cfa: x29 96 + x19: .cfa -8 + ^ x20: .cfa -16 + ^ x21: .cfa -24 + ^ x22: .cfa -32 + ^ x23: .cfa -40 + ^ x24: .cfa -48 + ^ x25: .cfa -56 + ^ x26: .cfa -64 + ^ x27: .cfa -80 + ^ .ra: .cfa -88 + ^ x29: .cfa -96 + ^
STACK CFI 30590 .cfa: sp 224 +
STACK CFI 305ac .cfa: sp 0 +
STACK CFI 305b0 .cfa: x29 96 +
STACK CFI 3067c .cfa: sp 224 +
STACK CFI 30698 .cfa: sp 0 +
STACK CFI 3069c .cfa: x29 96 +
STACK CFI INIT 307a0 f5c .cfa: sp 0 +
STACK CFI 307a4 .cfa: sp 320 +
STACK CFI 307c0 .cfa: x29 96 + x19: .cfa -8 + ^ x20: .cfa -16 + ^ x21: .cfa -24 + ^ x22: .cfa -32 + ^ x23: .cfa -40 + ^ x24: .cfa -48 + ^ x25: .cfa -56 + ^ x26: .cfa -64 + ^ x27: .cfa -72 + ^ x28: .cfa -80 + ^ .ra: .cfa -88 + ^ x29: .cfa -96 + ^
STACK CFI 31320 .cfa: sp 320 +
STACK CFI 3133c .cfa: sp 0 +
STACK CFI 31340 .cfa: x29 96 +
STACK CFI INIT 31840 c8 .cfa: sp 0 +
STACK CFI 31844 .cfa: sp 32 +
STACK CFI 3184c .cfa: x29 32 + x19: .cfa -8 + ^ x20: .cfa -16 + ^ .ra: .cfa -24 + ^ x29: .cfa -32 + ^
STACK CFI 31880 .cfa: sp 32 +
STACK CFI 31888 .cfa: sp 0 +
STACK CFI 3188c .cfa: x29 32 +
STACK CFI 31890 .cfa: sp 32 +
STACK CFI 31898 .cfa: sp 0 +
STACK CFI 3189c .cfa: x29 32 +
STACK CFI INIT 31908 298 .cfa: sp 0 +
STACK CFI 3190c .cfa: sp 80 +
STACK CFI 3191c .cfa: x29 48 + x19: .cfa -8 + ^ x20: .cfa -16 + ^ x21: .cfa -24 + ^ x22: .cfa -32 + ^ .ra: .cfa -40 + ^ x29: .cfa -48 + ^
STACK CFI 31a54 .cfa: sp 80 +
STACK CFI 31a64 .cfa: sp 0 +
STACK CFI 31a68 .cfa: x29 48 +
STACK CFI INIT 31ba0 1c .cfa: sp 0 +
STACK CFI 31ba4 .cfa: sp 16 +
STACK CFI 31ba8 .cfa: x29 16 + .ra: .cfa -8 + ^ x29: .cfa -16 + ^
STACK CFI 31bb0 .cfa: sp 16 +
STACK CFI 31bb4 .cfa: sp 0 +
STACK CFI 31bb8 .cfa: x29 16 +
STACK CFI INIT 31bbc 1c .cfa: sp 0 +
STACK CFI 31bc0 .cfa: sp 16 +
STACK CFI 31bc4 .cfa: x29 16 + .ra: .cfa -8 + ^ x29: .cfa -16 + ^
STACK CFI 31bcc .cfa: sp 16 +
STACK CFI 31bd0 .cfa: sp 0 +
STACK CFI 31bd4 .cfa: x29 16 +
STACK CFI INIT 31bd8 1c .cfa: sp 0 +
STACK CFI 31bdc .cfa: sp 16 +
STACK CFI 31be0 .cfa: x29 16 + .ra: .cfa -8 + ^ x29: .cfa -16 + ^
STACK CFI 31be8 .cfa: sp 16 +
STACK CFI 31bec .cfa: sp 0 +
STACK CFI 31bf0 .cfa: x29 16 +
STACK CFI INIT 31bf4 1c .cfa: sp 0 +
STACK CFI 31bf8 .cfa: sp 16 +
STACK CFI 31bfc .cfa: x29 16 + .ra: .cfa -8 + ^ x29: .cfa -16 + ^
STACK CFI 31c04 .cfa: sp 16 +
STACK CFI 31c08 .cfa: sp 0 +
STACK CFI 31c0c .cfa: x29 16 +
STACK CFI INIT 320ac 144 .cfa: sp 0 +
STACK CFI 320b0 .cfa: sp 192 +
STACK CFI 320c4 .cfa: x29 64 + x19: .cfa -8 + ^ x20: .cfa -16 + ^ x21: .cfa -24 + ^ x22: .cfa -32 + ^ x23: .cfa -40 + ^ x24: .cfa -48 + ^ .ra: .cfa -56 + ^ x29: .cfa -64 + ^
STACK CFI 32198 .cfa: sp 192 +
STACK CFI 321ac .cfa: sp 0 +
STACK CFI 321b0 .cfa: x29 64 +
STACK CFI INIT 323c0 20 .cfa: sp 0 +
STACK CFI 323c4 .cfa: sp 16 +
STACK CFI 323c8 .cfa: x29 16 + .ra: .cfa -8 + ^ x29: .cfa -16 + ^
STACK CFI 323d4 .cfa: sp 16 +
STACK CFI 323d8 .cfa: sp 0 +
STACK CFI 323dc .cfa: x29 16 +
STACK CFI INIT 323e0 20 .cfa: sp 0 +
STACK CFI 323e4 .cfa: sp 16 +
STACK CFI 323e8 .cfa: x29 16 + .ra: .cfa -8 + ^ x29: .cfa -16 + ^
STACK CFI 323f4 .cfa: sp 16 +
STACK CFI 323f8 .cfa: sp 0 +
STACK CFI 323fc .cfa: x29 16 +
STACK CFI INIT 32400 100 .cfa: sp 0 +
STACK CFI 32404 .cfa: sp 96 +
STACK CFI 32414 .cfa: x29 48 + x19: .cfa -8 + ^ x20: .cfa -16 + ^ x21: .cfa -24 + ^ x22: .cfa -32 + ^ .ra: .cfa -40 + ^ x29: .cfa -48 + ^
STACK CFI 32470 .cfa: sp 96 +
STACK CFI 32480 .cfa: sp 0 +
STACK CFI 32484 .cfa: x29 48 +
STACK CFI INIT 32500 180 .cfa: sp 0 +
STACK CFI 32504 .cfa: sp 96 +
STACK CFI 3251c .cfa: x29 96 + x19: .cfa -8 + ^ x20: .cfa -16 + ^ x21: .cfa -24 + ^ x22: .cfa -32 + ^ x23: .cfa -40 + ^ x24: .cfa -48 + ^ x25: .cfa -56 + ^ x26: .cfa -64 + ^ x27: .cfa -72 + ^ x28: .cfa -80 + ^ .ra: .cfa -88 + ^ x29: .cfa -96 + ^
STACK CFI 3264c .cfa: sp 96 +
STACK CFI 32664 .cfa: sp 0 +
STACK CFI 32668 .cfa: x29 96 +
STACK CFI INIT 32680 58 .cfa: sp 0 +
STACK CFI 32684 .cfa: sp 32 +
STACK CFI 3268c .cfa: x29 32 + x19: .cfa -8 + ^ x20: .cfa -16 + ^ .ra: .cfa -24 + ^ x29: .cfa -32 + ^
STACK CFI 326bc .cfa: sp 32 +
STACK CFI 326c4 .cfa: sp 0 +
STACK CFI 326c8 .cfa: sp 32 +
STACK CFI 326d0 .cfa: sp 0 +
STACK CFI 326d4 .cfa: x29 32 +
STACK CFI INIT 326d8 200 .cfa: sp 0 +
STACK CFI 326dc .cfa: sp 128 +
STACK CFI 326f4 .cfa: x29 80 + x19: .cfa -8 + ^ x20: .cfa -16 + ^ x21: .cfa -24 + ^ x22: .cfa -32 + ^ x23: .cfa -40 + ^ x24: .cfa -48 + ^ x25: .cfa -56 + ^ x26: .cfa -64 + ^ .ra: .cfa -72 + ^ x29: .cfa -80 + ^
STACK CFI 32868 .cfa: sp 128 +
STACK CFI 32880 .cfa: sp 0 +
STACK CFI 32884 .cfa: x29 80 +
STACK CFI INIT 32c54 64 .cfa: sp 0 +
STACK CFI 32c58 .cfa: sp 32 +
STACK CFI 32c60 .cfa: x29 32 + x19: .cfa -8 + ^ x20: .cfa -16 + ^ .ra: .cfa -24 + ^ x29: .cfa -32 + ^
STACK CFI 32ca8 .cfa: sp 32 +
STACK CFI 32cb0 .cfa: sp 0 +
STACK CFI 32cb4 .cfa: x29 32 +
STACK CFI INIT 32d0c 480 .cfa: sp 0 +
STACK CFI 32d10 .cfa: sp 224 +
STACK CFI 32d2c .cfa: x29 96 + x19: .cfa -8 + ^ x20: .cfa -16 + ^ x21: .cfa -24 + ^ x22: .cfa -32 + ^ x23: .cfa -40 + ^ x24: .cfa -48 + ^ x25: .cfa -56 + ^ x26: .cfa -64 + ^ x27: .cfa -80 + ^ .ra: .cfa -88 + ^ x29: .cfa -96 + ^
STACK CFI 32f98 .cfa: sp 224 +
STACK CFI 32fb4 .cfa: sp 0 +
STACK CFI 32fb8 .cfa: x29 96 +
STACK CFI 33084 .cfa: sp 224 +
STACK CFI 330a0 .cfa: sp 0 +
STACK CFI 330a4 .cfa: x29 96 +
STACK CFI INIT 331a8 660 .cfa: sp 0 +
STACK CFI 331ac .cfa: sp 288 +
STACK CFI 331c4 .cfa: x29 80 + x19: .cfa -8 + ^ x20: .cfa -16 + ^ x21: .cfa -24 + ^ x22: .cfa -32 + ^ x23: .cfa -40 + ^ x24: .cfa -48 + ^ x25: .cfa -56 + ^ x28: .cfa -64 + ^ .ra: .cfa -72 + ^ x29: .cfa -80 + ^
STACK CFI 33634 .cfa: sp 288 +
STACK CFI 3364c .cfa: sp 0 +
STACK CFI 33650 .cfa: x29 80 +
STACK CFI INIT 3380c 1f0 .cfa: sp 0 +
STACK CFI 33810 .cfa: sp 96 +
STACK CFI 33828 .cfa: x29 96 + x19: .cfa -8 + ^ x20: .cfa -16 + ^ x21: .cfa -24 + ^ x22: .cfa -32 + ^ x23: .cfa -40 + ^ x24: .cfa -48 + ^ x25: .cfa -56 + ^ x26: .cfa -64 + ^ x27: .cfa -72 + ^ x28: .cfa -80 + ^ .ra: .cfa -88 + ^ x29: .cfa -96 + ^
STACK CFI 33954 .cfa: sp 96 +
STACK CFI 3396c .cfa: sp 0 +
STACK CFI 33970 .cfa: x29 96 +
STACK CFI INIT 33b6c 764 .cfa: sp 0 +
STACK CFI 33b70 .cfa: sp 208 +
STACK CFI 33b8c .cfa: x29 96 + x19: .cfa -8 + ^ x20: .cfa -16 + ^ x21: .cfa -24 + ^ x22: .cfa -32 + ^ x23: .cfa -40 + ^ x24: .cfa -48 + ^ x25: .cfa -56 + ^ x26: .cfa -64 + ^ x27: .cfa -72 + ^ x28: .cfa -80 + ^ .ra: .cfa -88 + ^ x29: .cfa -96 + ^
STACK CFI 33d04 .cfa: sp 208 +
STACK CFI 33d20 .cfa: sp 0 +
STACK CFI 33d24 .cfa: x29 96 +
STACK CFI 34180 .cfa: sp 208 +
STACK CFI 3419c .cfa: sp 0 +
STACK CFI 341a0 .cfa: x29 96 +
STACK CFI INIT 342ec 924 .cfa: sp 0 +
STACK CFI 342f0 .cfa: sp 256 +
STACK CFI 34304 .cfa: x29 64 + x19: .cfa -8 + ^ x20: .cfa -16 + ^ x21: .cfa -24 + ^ x22: .cfa -32 + ^ x23: .cfa -40 + ^ x24: .cfa -48 + ^ .ra: .cfa -56 + ^ x29: .cfa -64 + ^
STACK CFI 34960 .cfa: sp 256 +
STACK CFI 34974 .cfa: sp 0 +
STACK CFI 34978 .cfa: x29 64 +
STACK CFI INIT 34c90 168 .cfa: sp 0 +
STACK CFI 34c94 .cfa: sp 384 +
STACK CFI 34ca8 .cfa: x29 64 + x19: .cfa -8 + ^ x20: .cfa -16 + ^ x21: .cfa -24 + ^ x22: .cfa -32 + ^ x23: .cfa -40 + ^ x28: .cfa -48 + ^ .ra: .cfa -56 + ^ x29: .cfa -64 + ^
STACK CFI 34da0 .cfa: sp 384 +
STACK CFI 34db4 .cfa: sp 0 +
STACK CFI 34db8 .cfa: x29 64 +
STACK CFI INIT 34e10 184 .cfa: sp 0 +
STACK CFI 34e14 .cfa: sp 160 +
STACK CFI 34e2c .cfa: x29 80 + x19: .cfa -8 + ^ x20: .cfa -16 + ^ x21: .cfa -24 + ^ x22: .cfa -32 + ^ x23: .cfa -40 + ^ x24: .cfa -48 + ^ x25: .cfa -56 + ^ x26: .cfa -64 + ^ .ra: .cfa -72 + ^ x29: .cfa -80 + ^
STACK CFI 34f2c .cfa: sp 160 +
STACK CFI 34f44 .cfa: sp 0 +
STACK CFI 34f48 .cfa: x29 80 +
STACK CFI INIT 34f94 f0 .cfa: sp 0 +
STACK CFI 34f98 .cfa: sp 48 +
STACK CFI 34fa4 .cfa: x29 32 + x19: .cfa -8 + ^ x20: .cfa -16 + ^ .ra: .cfa -24 + ^ x29: .cfa -32 + ^
STACK CFI 35028 .cfa: sp 48 +
STACK CFI 35034 .cfa: sp 0 +
STACK CFI 35038 .cfa: x29 32 +
STACK CFI 35048 .cfa: sp 48 +
STACK CFI 35054 .cfa: sp 0 +
STACK CFI 35058 .cfa: x29 32 +
STACK CFI INIT 35088 8cc .cfa: sp 0 +
STACK CFI 3508c .cfa: sp 80 +
STACK CFI 350a0 .cfa: x29 80 + x19: .cfa -8 + ^ x20: .cfa -16 + ^ x21: .cfa -24 + ^ x22: .cfa -32 + ^ x23: .cfa -40 + ^ x24: .cfa -48 + ^ x25: .cfa -56 + ^ x28: .cfa -64 + ^ .ra: .cfa -72 + ^ x29: .cfa -80 + ^
STACK CFI 351c8 .cfa: sp 80 +
STACK CFI 351dc .cfa: sp 0 +
STACK CFI 351e0 .cfa: x29 80 +
STACK CFI 354f8 .cfa: sp 80 +
STACK CFI 3550c .cfa: sp 0 +
STACK CFI 35510 .cfa: x29 80 +
STACK CFI 3579c .cfa: sp 80 +
STACK CFI 357b0 .cfa: sp 0 +
STACK CFI 357b4 .cfa: x29 80 +
STACK CFI INIT 35e08 294 .cfa: sp 0 +
STACK CFI 35e0c .cfa: sp 128 +
STACK CFI 35e1c .cfa: x29 48 + x19: .cfa -8 + ^ x20: .cfa -16 + ^ x21: .cfa -32 + ^ .ra: .cfa -40 + ^ x29: .cfa -48 + ^
STACK CFI 35ff4 .cfa: sp 128 +
STACK CFI 36004 .cfa: sp 0 +
STACK CFI 36008 .cfa: x29 48 +
STACK CFI INIT 36134 1c .cfa: sp 0 +
STACK CFI 36138 .cfa: sp 16 +
STACK CFI 3613c .cfa: x29 16 + .ra: .cfa -8 + ^ x29: .cfa -16 + ^
STACK CFI 36144 .cfa: sp 16 +
STACK CFI 36148 .cfa: sp 0 +
STACK CFI 3614c .cfa: x29 16 +
STACK CFI INIT 36150 480 .cfa: sp 0 +
STACK CFI 36154 .cfa: sp 224 +
STACK CFI 36170 .cfa: x29 96 + x19: .cfa -8 + ^ x20: .cfa -16 + ^ x21: .cfa -24 + ^ x22: .cfa -32 + ^ x23: .cfa -40 + ^ x24: .cfa -48 + ^ x25: .cfa -56 + ^ x26: .cfa -64 + ^ x27: .cfa -80 + ^ .ra: .cfa -88 + ^ x29: .cfa -96 + ^
STACK CFI 363dc .cfa: sp 224 +
STACK CFI 363f8 .cfa: sp 0 +
STACK CFI 363fc .cfa: x29 96 +
STACK CFI 364c8 .cfa: sp 224 +
STACK CFI 364e4 .cfa: sp 0 +
STACK CFI 364e8 .cfa: x29 96 +
STACK CFI INIT 365ec 8f4 .cfa: sp 0 +
STACK CFI 365f0 .cfa: sp 256 +
STACK CFI 36608 .cfa: x29 80 + x19: .cfa -8 + ^ x20: .cfa -16 + ^ x21: .cfa -24 + ^ x22: .cfa -32 + ^ x23: .cfa -40 + ^ x24: .cfa -48 + ^ x25: .cfa -56 + ^ x26: .cfa -64 + ^ .ra: .cfa -72 + ^ x29: .cfa -80 + ^
STACK CFI 36c6c .cfa: sp 256 +
STACK CFI 36c84 .cfa: sp 0 +
STACK CFI 36c88 .cfa: x29 80 +
STACK CFI INIT 36f88 4a8 .cfa: sp 0 +
STACK CFI 36f8c .cfa: sp 80 +
STACK CFI 36fa0 .cfa: x29 80 + x19: .cfa -8 + ^ x20: .cfa -16 + ^ x21: .cfa -24 + ^ x22: .cfa -32 + ^ x23: .cfa -40 + ^ x24: .cfa -48 + ^ x25: .cfa -56 + ^ x26: .cfa -64 + ^ .ra: .cfa -72 + ^ x29: .cfa -80 + ^
STACK CFI 37360 .cfa: sp 80 +
STACK CFI 37374 .cfa: sp 0 +
STACK CFI 37378 .cfa: x29 80 +
STACK CFI INIT 37434 480 .cfa: sp 0 +
STACK CFI 37438 .cfa: sp 224 +
STACK CFI 37454 .cfa: x29 96 + x19: .cfa -8 + ^ x20: .cfa -16 + ^ x21: .cfa -24 + ^ x22: .cfa -32 + ^ x23: .cfa -40 + ^ x24: .cfa -48 + ^ x25: .cfa -56 + ^ x26: .cfa -64 + ^ x27: .cfa -80 + ^ .ra: .cfa -88 + ^ x29: .cfa -96 + ^
STACK CFI 376c0 .cfa: sp 224 +
STACK CFI 376dc .cfa: sp 0 +
STACK CFI 376e0 .cfa: x29 96 +
STACK CFI 377ac .cfa: sp 224 +
STACK CFI 377c8 .cfa: sp 0 +
STACK CFI 377cc .cfa: x29 96 +
STACK CFI INIT 378d0 1700 .cfa: sp 0 +
STACK CFI 378d4 .cfa: sp 304 +
STACK CFI 378f0 .cfa: x29 96 + x19: .cfa -8 + ^ x20: .cfa -16 + ^ x21: .cfa -24 + ^ x22: .cfa -32 + ^ x23: .cfa -40 + ^ x24: .cfa -48 + ^ x25: .cfa -56 + ^ x26: .cfa -64 + ^ x27: .cfa -72 + ^ x28: .cfa -80 + ^ .ra: .cfa -88 + ^ x29: .cfa -96 + ^
STACK CFI 389c8 .cfa: sp 304 +
STACK CFI 389e4 .cfa: sp 0 +
STACK CFI 389e8 .cfa: x29 96 +
STACK CFI INIT 38ff4 134 .cfa: sp 0 +
STACK CFI 38ff8 .cfa: sp 128 +
STACK CFI 3900c .cfa: x29 64 + x19: .cfa -8 + ^ x20: .cfa -16 + ^ x21: .cfa -24 + ^ x22: .cfa -32 + ^ x23: .cfa -40 + ^ x24: .cfa -48 + ^ .ra: .cfa -56 + ^ x29: .cfa -64 + ^
STACK CFI 390d8 .cfa: sp 128 +
STACK CFI 390ec .cfa: sp 0 +
STACK CFI 390f0 .cfa: x29 64 +
STACK CFI INIT 3935c 56c .cfa: sp 0 +
STACK CFI 39360 .cfa: sp 80 +
STACK CFI 39374 .cfa: x29 64 + x19: .cfa -8 + ^ x20: .cfa -16 + ^ x21: .cfa -24 + ^ x22: .cfa -32 + ^ x23: .cfa -48 + ^ .ra: .cfa -56 + ^ x29: .cfa -64 + ^
STACK CFI 39860 .cfa: sp 80 +
STACK CFI 39874 .cfa: sp 0 +
STACK CFI 39878 .cfa: x29 64 +
STACK CFI INIT 39a80 480 .cfa: sp 0 +
STACK CFI 39a84 .cfa: sp 224 +
STACK CFI 39aa0 .cfa: x29 96 + x19: .cfa -8 + ^ x20: .cfa -16 + ^ x21: .cfa -24 + ^ x22: .cfa -32 + ^ x23: .cfa -40 + ^ x24: .cfa -48 + ^ x25: .cfa -56 + ^ x26: .cfa -64 + ^ x27: .cfa -80 + ^ .ra: .cfa -88 + ^ x29: .cfa -96 + ^
STACK CFI 39d0c .cfa: sp 224 +
STACK CFI 39d28 .cfa: sp 0 +
STACK CFI 39d2c .cfa: x29 96 +
STACK CFI 39df8 .cfa: sp 224 +
STACK CFI 39e14 .cfa: sp 0 +
STACK CFI 39e18 .cfa: x29 96 +
STACK CFI INIT 3a1c0 5f0 .cfa: sp 0 +
STACK CFI 3a1c4 .cfa: sp 240 +
STACK CFI 3a1dc .cfa: x29 80 + x19: .cfa -8 + ^ x20: .cfa -16 + ^ x21: .cfa -24 + ^ x22: .cfa -32 + ^ x23: .cfa -40 + ^ x24: .cfa -48 + ^ x25: .cfa -56 + ^ x26: .cfa -64 + ^ .ra: .cfa -72 + ^ x29: .cfa -80 + ^
STACK CFI 3a5e4 .cfa: sp 240 +
STACK CFI 3a5fc .cfa: sp 0 +
STACK CFI 3a600 .cfa: x29 80 +
STACK CFI INIT 3a7b4 63c .cfa: sp 0 +
STACK CFI 3a7b8 .cfa: sp 288 +
STACK CFI 3a7d4 .cfa: x29 96 + x19: .cfa -8 + ^ x20: .cfa -16 + ^ x21: .cfa -24 + ^ x22: .cfa -32 + ^ x23: .cfa -40 + ^ x24: .cfa -48 + ^ x25: .cfa -56 + ^ x26: .cfa -64 + ^ x27: .cfa -72 + ^ x28: .cfa -80 + ^ .ra: .cfa -88 + ^ x29: .cfa -96 + ^
STACK CFI 3aaf0 .cfa: sp 288 +
STACK CFI 3ab0c .cfa: sp 0 +
STACK CFI 3ab10 .cfa: x29 96 +
STACK CFI INIT 3af3c 140 .cfa: sp 0 +
STACK CFI 3af40 .cfa: sp 336 +
STACK CFI 3af54 .cfa: x29 64 + x19: .cfa -8 + ^ x20: .cfa -16 + ^ x21: .cfa -24 + ^ x22: .cfa -32 + ^ x28: .cfa -48 + ^ .ra: .cfa -56 + ^ x29: .cfa -64 + ^
STACK CFI 3b03c .cfa: sp 336 +
STACK CFI 3b050 .cfa: sp 0 +
STACK CFI 3b054 .cfa: x29 64 +
STACK CFI INIT 3b07c 480 .cfa: sp 0 +
STACK CFI 3b080 .cfa: sp 224 +
STACK CFI 3b09c .cfa: x29 96 + x19: .cfa -8 + ^ x20: .cfa -16 + ^ x21: .cfa -24 + ^ x22: .cfa -32 + ^ x23: .cfa -40 + ^ x24: .cfa -48 + ^ x25: .cfa -56 + ^ x26: .cfa -64 + ^ x27: .cfa -80 + ^ .ra: .cfa -88 + ^ x29: .cfa -96 + ^
STACK CFI 3b308 .cfa: sp 224 +
STACK CFI 3b324 .cfa: sp 0 +
STACK CFI 3b328 .cfa: x29 96 +
STACK CFI 3b3f4 .cfa: sp 224 +
STACK CFI 3b410 .cfa: sp 0 +
STACK CFI 3b414 .cfa: x29 96 +
STACK CFI INIT 3b518 388 .cfa: sp 0 +
STACK CFI 3b51c .cfa: sp 240 +
STACK CFI 3b530 .cfa: x29 64 + x19: .cfa -8 + ^ x20: .cfa -16 + ^ x21: .cfa -24 + ^ x22: .cfa -32 + ^ x23: .cfa -40 + ^ x24: .cfa -48 + ^ .ra: .cfa -56 + ^ x29: .cfa -64 + ^
STACK CFI 3b774 .cfa: sp 240 +
STACK CFI 3b788 .cfa: sp 0 +
STACK CFI 3b78c .cfa: x29 64 +
STACK CFI INIT 3b910 480 .cfa: sp 0 +
STACK CFI 3b914 .cfa: sp 224 +
STACK CFI 3b930 .cfa: x29 96 + x19: .cfa -8 + ^ x20: .cfa -16 + ^ x21: .cfa -24 + ^ x22: .cfa -32 + ^ x23: .cfa -40 + ^ x24: .cfa -48 + ^ x25: .cfa -56 + ^ x26: .cfa -64 + ^ x27: .cfa -80 + ^ .ra: .cfa -88 + ^ x29: .cfa -96 + ^
STACK CFI 3bb9c .cfa: sp 224 +
STACK CFI 3bbb8 .cfa: sp 0 +
STACK CFI 3bbbc .cfa: x29 96 +
STACK CFI 3bc88 .cfa: sp 224 +
STACK CFI 3bca4 .cfa: sp 0 +
STACK CFI 3bca8 .cfa: x29 96 +
STACK CFI INIT 3bdac 6ec .cfa: sp 0 +
STACK CFI 3bdb0 .cfa: sp 192 +
STACK CFI 3bdc4 .cfa: x29 64 + x19: .cfa -8 + ^ x20: .cfa -16 + ^ x21: .cfa -24 + ^ x22: .cfa -32 + ^ x23: .cfa -40 + ^ x24: .cfa -48 + ^ .ra: .cfa -56 + ^ x29: .cfa -64 + ^
STACK CFI 3c280 .cfa: sp 192 +
STACK CFI 3c294 .cfa: sp 0 +
STACK CFI 3c298 .cfa: x29 64 +
STACK CFI INIT 3c5d0 184 .cfa: sp 0 +
STACK CFI 3c5d4 .cfa: sp 160 +
STACK CFI 3c5ec .cfa: x29 80 + x19: .cfa -8 + ^ x20: .cfa -16 + ^ x21: .cfa -24 + ^ x22: .cfa -32 + ^ x23: .cfa -40 + ^ x24: .cfa -48 + ^ x25: .cfa -56 + ^ x26: .cfa -64 + ^ .ra: .cfa -72 + ^ x29: .cfa -80 + ^
STACK CFI 3c6ec .cfa: sp 160 +
STACK CFI 3c704 .cfa: sp 0 +
STACK CFI 3c708 .cfa: x29 80 +
STACK CFI INIT 3c754 170 .cfa: sp 0 +
STACK CFI 3c758 .cfa: sp 80 +
STACK CFI 3c764 .cfa: x29 32 + x19: .cfa -8 + ^ x20: .cfa -16 + ^ .ra: .cfa -24 + ^ x29: .cfa -32 + ^
STACK CFI 3c860 .cfa: sp 80 +
STACK CFI 3c86c .cfa: sp 0 +
STACK CFI 3c870 .cfa: x29 32 +
STACK CFI INIT 3c8e0 a8 .cfa: sp 0 +
STACK CFI 3c8e4 .cfa: sp 32 +
STACK CFI 3c8ec .cfa: x29 32 + x19: .cfa -16 + ^ .ra: .cfa -24 + ^ x29: .cfa -32 + ^
STACK CFI 3c920 .cfa: sp 32 +
STACK CFI 3c928 .cfa: sp 0 +
STACK CFI 3c92c .cfa: x29 32 +
STACK CFI 3c930 .cfa: sp 32 +
STACK CFI 3c938 .cfa: sp 0 +
STACK CFI 3c93c .cfa: x29 32 +
STACK CFI INIT 3ca24 480 .cfa: sp 0 +
STACK CFI 3ca28 .cfa: sp 224 +
STACK CFI 3ca44 .cfa: x29 96 + x19: .cfa -8 + ^ x20: .cfa -16 + ^ x21: .cfa -24 + ^ x22: .cfa -32 + ^ x23: .cfa -40 + ^ x24: .cfa -48 + ^ x25: .cfa -56 + ^ x26: .cfa -64 + ^ x27: .cfa -80 + ^ .ra: .cfa -88 + ^ x29: .cfa -96 + ^
STACK CFI 3ccb0 .cfa: sp 224 +
STACK CFI 3cccc .cfa: sp 0 +
STACK CFI 3ccd0 .cfa: x29 96 +
STACK CFI 3cd9c .cfa: sp 224 +
STACK CFI 3cdb8 .cfa: sp 0 +
STACK CFI 3cdbc .cfa: x29 96 +
STACK CFI INIT 3cec0 49c .cfa: sp 0 +
STACK CFI 3cec4 .cfa: sp 176 +
STACK CFI 3ced8 .cfa: x29 64 + x19: .cfa -8 + ^ x20: .cfa -16 + ^ x21: .cfa -24 + ^ x22: .cfa -32 + ^ x23: .cfa -40 + ^ x24: .cfa -48 + ^ .ra: .cfa -56 + ^ x29: .cfa -64 + ^
STACK CFI 3d208 .cfa: sp 176 +
STACK CFI 3d21c .cfa: sp 0 +
STACK CFI 3d220 .cfa: x29 64 +
STACK CFI INIT 3d360 184 .cfa: sp 0 +
STACK CFI 3d364 .cfa: sp 144 +
STACK CFI 3d37c .cfa: x29 80 + x19: .cfa -8 + ^ x20: .cfa -16 + ^ x21: .cfa -24 + ^ x22: .cfa -32 + ^ x23: .cfa -40 + ^ x24: .cfa -48 + ^ x25: .cfa -56 + ^ x26: .cfa -64 + ^ .ra: .cfa -72 + ^ x29: .cfa -80 + ^
STACK CFI 3d47c .cfa: sp 144 +
STACK CFI 3d494 .cfa: sp 0 +
STACK CFI 3d498 .cfa: x29 80 +
STACK CFI INIT 3d574 13c8 .cfa: sp 0 +
STACK CFI 3d578 .cfa: sp 128 +
STACK CFI 3d598 .cfa: x29 96 + x19: .cfa -8 + ^ x20: .cfa -16 + ^ x21: .cfa -24 + ^ x22: .cfa -32 + ^ x23: .cfa -40 + ^ x24: .cfa -48 + ^ x25: .cfa -56 + ^ x26: .cfa -64 + ^ x27: .cfa -72 + ^ x28: .cfa -80 + ^ .ra: .cfa -88 + ^ x29: .cfa -96 + ^ v8: .cfa -104 + ^ v9: .cfa -112 + ^ v10: .cfa -128 + ^
STACK CFI 3e868 .cfa: sp 128 +
STACK CFI 3e888 .cfa: sp 0 +
STACK CFI 3e88c .cfa: x29 96 +
STACK CFI INIT 3ea78 1b0 .cfa: sp 0 +
STACK CFI 3ea7c .cfa: sp 80 +
STACK CFI 3ea90 .cfa: x29 80 + x19: .cfa -8 + ^ x20: .cfa -16 + ^ x21: .cfa -24 + ^ x22: .cfa -32 + ^ x23: .cfa -40 + ^ x24: .cfa -48 + ^ x25: .cfa -56 + ^ x28: .cfa -64 + ^ .ra: .cfa -72 + ^ x29: .cfa -80 + ^
STACK CFI 3eb84 .cfa: sp 80 +
STACK CFI 3eb98 .cfa: sp 0 +
STACK CFI 3eb9c .cfa: x29 80 +
STACK CFI INIT 3ec28 17c .cfa: sp 0 +
STACK CFI 3ec2c .cfa: sp 64 +
STACK CFI 3ec38 .cfa: x29 32 + x19: .cfa -8 + ^ x20: .cfa -16 + ^ .ra: .cfa -24 + ^ x29: .cfa -32 + ^
STACK CFI 3ed6c .cfa: sp 64 +
STACK CFI 3ed78 .cfa: sp 0 +
STACK CFI 3ed7c .cfa: x29 32 +
STACK CFI INIT 3ef2c 6c .cfa: sp 0 +
STACK CFI 3ef30 .cfa: sp 32 +
STACK CFI 3ef38 .cfa: x29 32 + x19: .cfa -16 + ^ .ra: .cfa -24 + ^ x29: .cfa -32 + ^
STACK CFI 3ef88 .cfa: sp 32 +
STACK CFI 3ef90 .cfa: sp 0 +
STACK CFI 3ef94 .cfa: x29 32 +
STACK CFI INIT 3ef98 74 .cfa: sp 0 +
STACK CFI 3ef9c .cfa: sp 32 +
STACK CFI 3efa4 .cfa: x29 32 + x19: .cfa -16 + ^ .ra: .cfa -24 + ^ x29: .cfa -32 + ^
STACK CFI 3effc .cfa: sp 32 +
STACK CFI 3f004 .cfa: sp 0 +
STACK CFI 3f008 .cfa: x29 32 +
STACK CFI INIT 3f044 148 .cfa: sp 0 +
STACK CFI 3f048 .cfa: sp 96 +
STACK CFI 3f058 .cfa: x29 48 + x19: .cfa -8 + ^ x20: .cfa -16 + ^ x21: .cfa -32 + ^ .ra: .cfa -40 + ^ x29: .cfa -48 + ^
STACK CFI 3f140 .cfa: sp 96 +
STACK CFI 3f150 .cfa: sp 0 +
STACK CFI 3f154 .cfa: x29 48 +
STACK CFI INIT 3f18c 6c .cfa: sp 0 +
STACK CFI 3f190 .cfa: sp 32 +
STACK CFI 3f198 .cfa: x29 32 + x19: .cfa -16 + ^ .ra: .cfa -24 + ^ x29: .cfa -32 + ^
STACK CFI 3f1e8 .cfa: sp 32 +
STACK CFI 3f1f0 .cfa: sp 0 +
STACK CFI 3f1f4 .cfa: x29 32 +
STACK CFI INIT 3f1f8 74 .cfa: sp 0 +
STACK CFI 3f1fc .cfa: sp 32 +
STACK CFI 3f204 .cfa: x29 32 + x19: .cfa -16 + ^ .ra: .cfa -24 + ^ x29: .cfa -32 + ^
STACK CFI 3f25c .cfa: sp 32 +
STACK CFI 3f264 .cfa: sp 0 +
STACK CFI 3f268 .cfa: x29 32 +
STACK CFI INIT 3f27c 6c .cfa: sp 0 +
STACK CFI 3f280 .cfa: sp 32 +
STACK CFI 3f288 .cfa: x29 32 + x19: .cfa -16 + ^ .ra: .cfa -24 + ^ x29: .cfa -32 + ^
STACK CFI 3f2d8 .cfa: sp 32 +
STACK CFI 3f2e0 .cfa: sp 0 +
STACK CFI 3f2e4 .cfa: x29 32 +
STACK CFI INIT 3f738 a70 .cfa: sp 0 +
STACK CFI 3f73c .cfa: sp 112 +
STACK CFI 3f758 .cfa: x29 96 + x19: .cfa -8 + ^ x20: .cfa -16 + ^ x21: .cfa -24 + ^ x22: .cfa -32 + ^ x23: .cfa -40 + ^ x24: .cfa -48 + ^ x25: .cfa -56 + ^ x26: .cfa -64 + ^ x27: .cfa -72 + ^ x28: .cfa -80 + ^ .ra: .cfa -88 + ^ x29: .cfa -96 + ^ v8: .cfa -112 + ^
STACK CFI 40004 .cfa: sp 112 +
STACK CFI 40020 .cfa: sp 0 +
STACK CFI 40024 .cfa: x29 96 +
STACK CFI INIT 40244 1058 .cfa: sp 0 +
STACK CFI 40248 .cfa: sp 320 +
STACK CFI 40260 .cfa: x29 80 + x19: .cfa -8 + ^ x20: .cfa -16 + ^ x21: .cfa -24 + ^ x22: .cfa -32 + ^ x23: .cfa -40 + ^ x24: .cfa -48 + ^ x28: .cfa -64 + ^ .ra: .cfa -72 + ^ x29: .cfa -80 + ^
STACK CFI 40c70 .cfa: sp 320 +
STACK CFI 40c88 .cfa: sp 0 +
STACK CFI 40c8c .cfa: x29 80 +
STACK CFI INIT 412dc 138 .cfa: sp 0 +
STACK CFI 412e0 .cfa: sp 80 +
STACK CFI 412f0 .cfa: x29 48 + x19: .cfa -8 + ^ x20: .cfa -16 + ^ x21: .cfa -32 + ^ .ra: .cfa -40 + ^ x29: .cfa -48 + ^
STACK CFI 413d8 .cfa: sp 80 +
STACK CFI 413e8 .cfa: sp 0 +
STACK CFI 413ec .cfa: x29 48 +
STACK CFI INIT 41414 168 .cfa: sp 0 +
STACK CFI 41418 .cfa: sp 128 +
STACK CFI 41424 .cfa: x29 32 + x19: .cfa -8 + ^ x20: .cfa -16 + ^ .ra: .cfa -24 + ^ x29: .cfa -32 + ^
STACK CFI 414f4 .cfa: sp 128 +
STACK CFI 41500 .cfa: sp 0 +
STACK CFI 41504 .cfa: x29 32 +
STACK CFI INIT 4157c d0 .cfa: sp 0 +
STACK CFI 41580 .cfa: sp 64 +
STACK CFI 41590 .cfa: x29 48 + x19: .cfa -8 + ^ x20: .cfa -16 + ^ x21: .cfa -32 + ^ .ra: .cfa -40 + ^ x29: .cfa -48 + ^
STACK CFI 41610 .cfa: sp 64 +
STACK CFI 41620 .cfa: sp 0 +
STACK CFI 41624 .cfa: x29 48 +
STACK CFI INIT 41cdc dc .cfa: sp 0 +
STACK CFI 41ce0 .cfa: sp 32 +
STACK CFI 41ce8 .cfa: x29 32 + x19: .cfa -8 + ^ x20: .cfa -16 + ^ .ra: .cfa -24 + ^ x29: .cfa -32 + ^
STACK CFI 41d98 .cfa: sp 32 +
STACK CFI 41da0 .cfa: sp 0 +
STACK CFI 41da4 .cfa: x29 32 +
STACK CFI INIT 41f54 d4 .cfa: sp 0 +
STACK CFI 41f58 .cfa: sp 64 +
STACK CFI 41f64 .cfa: x29 32 + x19: .cfa -8 + ^ x20: .cfa -16 + ^ .ra: .cfa -24 + ^ x29: .cfa -32 + ^
STACK CFI 41fe8 .cfa: sp 64 +
STACK CFI 41ff4 .cfa: sp 0 +
STACK CFI 41ff8 .cfa: x29 32 +
STACK CFI INIT 42050 43c .cfa: sp 0 +
STACK CFI 42054 .cfa: sp 224 +
STACK CFI 42070 .cfa: x29 96 + x19: .cfa -8 + ^ x20: .cfa -16 + ^ x21: .cfa -24 + ^ x22: .cfa -32 + ^ x23: .cfa -40 + ^ x24: .cfa -48 + ^ x25: .cfa -56 + ^ x26: .cfa -64 + ^ x27: .cfa -72 + ^ x28: .cfa -80 + ^ .ra: .cfa -88 + ^ x29: .cfa -96 + ^
STACK CFI 42384 .cfa: sp 224 +
STACK CFI 423a0 .cfa: sp 0 +
STACK CFI 423a4 .cfa: x29 96 +
STACK CFI INIT 428e4 480 .cfa: sp 0 +
STACK CFI 428e8 .cfa: sp 224 +
STACK CFI 42904 .cfa: x29 96 + x19: .cfa -8 + ^ x20: .cfa -16 + ^ x21: .cfa -24 + ^ x22: .cfa -32 + ^ x23: .cfa -40 + ^ x24: .cfa -48 + ^ x25: .cfa -56 + ^ x26: .cfa -64 + ^ x27: .cfa -80 + ^ .ra: .cfa -88 + ^ x29: .cfa -96 + ^
STACK CFI 42b70 .cfa: sp 224 +
STACK CFI 42b8c .cfa: sp 0 +
STACK CFI 42b90 .cfa: x29 96 +
STACK CFI 42c5c .cfa: sp 224 +
STACK CFI 42c78 .cfa: sp 0 +
STACK CFI 42c7c .cfa: x29 96 +
STACK CFI INIT 4248c 43c .cfa: sp 0 +
STACK CFI 42490 .cfa: sp 224 +
STACK CFI 424ac .cfa: x29 96 + x19: .cfa -8 + ^ x20: .cfa -16 + ^ x21: .cfa -24 + ^ x22: .cfa -32 + ^ x23: .cfa -40 + ^ x24: .cfa -48 + ^ x25: .cfa -56 + ^ x26: .cfa -64 + ^ x27: .cfa -72 + ^ x28: .cfa -80 + ^ .ra: .cfa -88 + ^ x29: .cfa -96 + ^
STACK CFI 427c0 .cfa: sp 224 +
STACK CFI 427dc .cfa: sp 0 +
STACK CFI 427e0 .cfa: x29 96 +
STACK CFI INIT 42d9c 340 .cfa: sp 0 +
STACK CFI 42da0 .cfa: sp 256 +
STACK CFI 42db4 .cfa: x29 64 + x19: .cfa -8 + ^ x20: .cfa -16 + ^ x21: .cfa -24 + ^ x22: .cfa -32 + ^ x23: .cfa -48 + ^ .ra: .cfa -56 + ^ x29: .cfa -64 + ^
STACK CFI 42fc4 .cfa: sp 256 +
STACK CFI 42fd8 .cfa: sp 0 +
STACK CFI 42fdc .cfa: x29 64 +
STACK CFI INIT 43198 360 .cfa: sp 0 +
STACK CFI 4319c .cfa: sp 208 +
STACK CFI 431b4 .cfa: x29 80 + x19: .cfa -8 + ^ x20: .cfa -16 + ^ x21: .cfa -24 + ^ x22: .cfa -32 + ^ x23: .cfa -40 + ^ x24: .cfa -48 + ^ x25: .cfa -64 + ^ .ra: .cfa -72 + ^ x29: .cfa -80 + ^
STACK CFI 433d0 .cfa: sp 208 +
STACK CFI 433e8 .cfa: sp 0 +
STACK CFI 433ec .cfa: x29 80 +
STACK CFI INIT 4373c 90 .cfa: sp 0 +
STACK CFI 43740 .cfa: sp 48 +
STACK CFI 4374c .cfa: x29 32 + x19: .cfa -8 + ^ x20: .cfa -16 + ^ .ra: .cfa -24 + ^ x29: .cfa -32 + ^
STACK CFI 43794 .cfa: sp 48 +
STACK CFI 437a0 .cfa: sp 0 +
STACK CFI 437a4 .cfa: x29 32 +
STACK CFI INIT 43840 640 .cfa: sp 0 +
STACK CFI 43844 .cfa: sp 224 +
STACK CFI 43860 .cfa: x29 96 + x19: .cfa -8 + ^ x20: .cfa -16 + ^ x21: .cfa -24 + ^ x22: .cfa -32 + ^ x23: .cfa -40 + ^ x24: .cfa -48 + ^ x25: .cfa -56 + ^ x26: .cfa -64 + ^ x27: .cfa -72 + ^ x28: .cfa -80 + ^ .ra: .cfa -88 + ^ x29: .cfa -96 + ^
STACK CFI 43d10 .cfa: sp 224 +
STACK CFI 43d2c .cfa: sp 0 +
STACK CFI 43d30 .cfa: x29 96 +
STACK CFI INIT 43f6c 330 .cfa: sp 0 +
STACK CFI 43f70 .cfa: sp 224 +
STACK CFI 43f84 .cfa: x29 64 + x19: .cfa -8 + ^ x20: .cfa -16 + ^ x21: .cfa -24 + ^ x22: .cfa -32 + ^ x23: .cfa -48 + ^ .ra: .cfa -56 + ^ x29: .cfa -64 + ^
STACK CFI 4418c .cfa: sp 224 +
STACK CFI 441a0 .cfa: sp 0 +
STACK CFI 441a4 .cfa: x29 64 +
STACK CFI INIT 443dc a8 .cfa: sp 0 +
STACK CFI 443e0 .cfa: sp 32 +
STACK CFI 443e8 .cfa: x29 32 + x19: .cfa -16 + ^ .ra: .cfa -24 + ^ x29: .cfa -32 + ^
STACK CFI 4441c .cfa: sp 32 +
STACK CFI 44424 .cfa: sp 0 +
STACK CFI 44428 .cfa: x29 32 +
STACK CFI 4442c .cfa: sp 32 +
STACK CFI 44434 .cfa: sp 0 +
STACK CFI 44438 .cfa: x29 32 +
STACK CFI INIT 4450c 664 .cfa: sp 0 +
STACK CFI 44510 .cfa: sp 224 +
STACK CFI 44530 .cfa: x29 96 + x19: .cfa -8 + ^ x20: .cfa -16 + ^ x21: .cfa -24 + ^ x22: .cfa -32 + ^ x23: .cfa -40 + ^ x24: .cfa -48 + ^ x25: .cfa -56 + ^ x26: .cfa -64 + ^ x27: .cfa -72 + ^ x28: .cfa -80 + ^ .ra: .cfa -88 + ^ x29: .cfa -96 + ^ v8: .cfa -112 + ^
STACK CFI 44a28 .cfa: sp 224 +
STACK CFI 44a48 .cfa: sp 0 +
STACK CFI 44a4c .cfa: x29 96 +
STACK CFI INIT 44bb8 188 .cfa: sp 0 +
STACK CFI 44bbc .cfa: sp 112 +
STACK CFI 44bd4 .cfa: x29 80 + x19: .cfa -8 + ^ x20: .cfa -16 + ^ x21: .cfa -24 + ^ x22: .cfa -32 + ^ x23: .cfa -40 + ^ x24: .cfa -48 + ^ x25: .cfa -64 + ^ .ra: .cfa -72 + ^ x29: .cfa -80 + ^
STACK CFI 44ce8 .cfa: sp 112 +
STACK CFI 44d00 .cfa: sp 0 +
STACK CFI 44d04 .cfa: x29 80 +
STACK CFI INIT 44d40 4b8 .cfa: sp 0 +
STACK CFI 44d44 .cfa: sp 208 +
STACK CFI 44d64 .cfa: x29 96 + x19: .cfa -8 + ^ x20: .cfa -16 + ^ x21: .cfa -24 + ^ x22: .cfa -32 + ^ x23: .cfa -40 + ^ x24: .cfa -48 + ^ x25: .cfa -56 + ^ x26: .cfa -64 + ^ x27: .cfa -72 + ^ x28: .cfa -80 + ^ .ra: .cfa -88 + ^ x29: .cfa -96 + ^ v8: .cfa -112 + ^
STACK CFI 45100 .cfa: sp 208 +
STACK CFI 45120 .cfa: sp 0 +
STACK CFI 45124 .cfa: x29 96 +
STACK CFI INIT 451f8 2c0 .cfa: sp 0 +
STACK CFI 451fc .cfa: sp 80 +
STACK CFI 45210 .cfa: x29 80 + x19: .cfa -8 + ^ x20: .cfa -16 + ^ x21: .cfa -24 + ^ x22: .cfa -32 + ^ x23: .cfa -40 + ^ x24: .cfa -48 + ^ x25: .cfa -56 + ^ x28: .cfa -64 + ^ .ra: .cfa -72 + ^ x29: .cfa -80 + ^
STACK CFI 453c0 .cfa: sp 80 +
STACK CFI 453d4 .cfa: sp 0 +
STACK CFI 453d8 .cfa: x29 80 +
STACK CFI INIT 4553c 1d4 .cfa: sp 0 +
STACK CFI 45540 .cfa: sp 320 +
STACK CFI 45558 .cfa: x29 80 + x19: .cfa -8 + ^ x20: .cfa -16 + ^ x21: .cfa -24 + ^ x22: .cfa -32 + ^ x23: .cfa -40 + ^ x24: .cfa -48 + ^ x28: .cfa -64 + ^ .ra: .cfa -72 + ^ x29: .cfa -80 + ^
STACK CFI 456c4 .cfa: sp 320 +
STACK CFI 456dc .cfa: sp 0 +
STACK CFI 456e0 .cfa: x29 80 +
STACK CFI INIT 48358 10c .cfa: sp 0 +
STACK CFI 4835c .cfa: sp 32 +
STACK CFI 48364 .cfa: x29 32 + x19: .cfa -8 + ^ x20: .cfa -16 + ^ .ra: .cfa -24 + ^ x29: .cfa -32 + ^
STACK CFI 48420 .cfa: sp 32 +
STACK CFI 48428 .cfa: sp 0 +
STACK CFI 4842c .cfa: x29 32 +
STACK CFI 48444 .cfa: sp 32 +
STACK CFI 4844c .cfa: sp 0 +
STACK CFI 48450 .cfa: x29 32 +
STACK CFI INIT 48464 3d4 .cfa: sp 0 +
STACK CFI 48468 .cfa: sp 128 +
STACK CFI 48480 .cfa: x29 64 + x19: .cfa -8 + ^ x20: .cfa -16 + ^ x21: .cfa -24 + ^ x22: .cfa -32 + ^ x23: .cfa -48 + ^ .ra: .cfa -56 + ^ x29: .cfa -64 + ^ v8: .cfa -72 + ^ v9: .cfa -80 + ^
STACK CFI 487f4 .cfa: sp 128 +
STACK CFI 4880c .cfa: sp 0 +
STACK CFI 48810 .cfa: x29 64 +
STACK CFI INIT 48984 134 .cfa: sp 0 +
STACK CFI 48988 .cfa: sp 80 +
STACK CFI 48994 .cfa: x29 32 + x19: .cfa -8 + ^ x20: .cfa -16 + ^ .ra: .cfa -24 + ^ x29: .cfa -32 + ^
STACK CFI 489c4 .cfa: sp 80 +
STACK CFI 489d0 .cfa: sp 0 +
STACK CFI 489d4 .cfa: x29 32 +
STACK CFI INIT 48ab8 78 .cfa: sp 0 +
STACK CFI 48abc .cfa: sp 32 +
STACK CFI 48ac4 .cfa: x29 32 + x19: .cfa -8 + ^ x20: .cfa -16 + ^ .ra: .cfa -24 + ^ x29: .cfa -32 + ^
STACK CFI 48ad0 .cfa: sp 32 +
STACK CFI 48ad8 .cfa: sp 0 +
STACK CFI 48adc .cfa: x29 32 +
STACK CFI INIT 48b30 74 .cfa: sp 0 +
STACK CFI 48b34 .cfa: sp 48 +
STACK CFI 48b40 .cfa: x29 32 + x19: .cfa -8 + ^ x20: .cfa -16 + ^ .ra: .cfa -24 + ^ x29: .cfa -32 + ^
STACK CFI 48b8c .cfa: sp 48 +
STACK CFI 48b98 .cfa: sp 0 +
STACK CFI 48b9c .cfa: x29 32 +
STACK CFI INIT 48c2c 25c .cfa: sp 0 +
STACK CFI 48c30 .cfa: sp 128 +
STACK CFI 48c40 .cfa: x29 48 + x19: .cfa -8 + ^ x20: .cfa -16 + ^ x21: .cfa -32 + ^ .ra: .cfa -40 + ^ x29: .cfa -48 + ^
STACK CFI 48d28 .cfa: sp 128 +
STACK CFI 48d38 .cfa: sp 0 +
STACK CFI 48d3c .cfa: x29 48 +
STACK CFI INIT 48eac 284 .cfa: sp 0 +
STACK CFI 48eb0 .cfa: sp 128 +
STACK CFI 48ec0 .cfa: x29 48 + x19: .cfa -8 + ^ x20: .cfa -16 + ^ x21: .cfa -32 + ^ .ra: .cfa -40 + ^ x29: .cfa -48 + ^
STACK CFI 48fd8 .cfa: sp 128 +
STACK CFI 48fe8 .cfa: sp 0 +
STACK CFI 48fec .cfa: x29 48 +
STACK CFI INIT 49184 300 .cfa: sp 0 +
STACK CFI 49188 .cfa: sp 144 +
STACK CFI 4919c .cfa: x29 64 + x19: .cfa -8 + ^ x20: .cfa -16 + ^ x21: .cfa -24 + ^ x22: .cfa -32 + ^ x23: .cfa -48 + ^ .ra: .cfa -56 + ^ x29: .cfa -64 + ^
STACK CFI 49330 .cfa: sp 144 +
STACK CFI 49344 .cfa: sp 0 +
STACK CFI 49348 .cfa: x29 64 +
STACK CFI INIT 494d8 264 .cfa: sp 0 +
STACK CFI 494dc .cfa: sp 128 +
STACK CFI 494ec .cfa: x29 48 + x19: .cfa -8 + ^ x20: .cfa -16 + ^ x21: .cfa -32 + ^ .ra: .cfa -40 + ^ x29: .cfa -48 + ^
STACK CFI 495e4 .cfa: sp 128 +
STACK CFI 495f4 .cfa: sp 0 +
STACK CFI 495f8 .cfa: x29 48 +
STACK CFI INIT 497e4 1b8 .cfa: sp 0 +
STACK CFI 497e8 .cfa: sp 160 +
STACK CFI 49804 .cfa: x29 72 + x19: .cfa -8 + ^ x20: .cfa -16 + ^ x21: .cfa -24 + ^ x22: .cfa -32 + ^ x23: .cfa -40 + ^ x24: .cfa -48 + ^ x25: .cfa -56 + ^ .ra: .cfa -64 + ^ x29: .cfa -72 + ^ v8: .cfa -80 + ^
STACK CFI 49888 .cfa: sp 160 +
STACK CFI 498a4 .cfa: sp 0 +
STACK CFI 498a8 .cfa: x29 72 +
STACK CFI INIT 4999c 4e4 .cfa: sp 0 +
STACK CFI 499a0 .cfa: sp 96 +
STACK CFI 499b8 .cfa: x29 80 + x19: .cfa -8 + ^ x20: .cfa -16 + ^ x21: .cfa -24 + ^ x22: .cfa -32 + ^ x23: .cfa -40 + ^ x24: .cfa -48 + ^ x25: .cfa -64 + ^ .ra: .cfa -72 + ^ x29: .cfa -80 + ^
STACK CFI 49dfc .cfa: sp 96 +
STACK CFI 49e14 .cfa: sp 0 +
STACK CFI 49e18 .cfa: x29 80 +
STACK CFI INIT 49e80 230 .cfa: sp 0 +
STACK CFI 49e84 .cfa: sp 208 +
STACK CFI 49ea0 .cfa: x29 96 + x19: .cfa -8 + ^ x20: .cfa -16 + ^ x21: .cfa -24 + ^ x22: .cfa -32 + ^ x23: .cfa -40 + ^ x24: .cfa -48 + ^ x25: .cfa -56 + ^ x26: .cfa -64 + ^ x27: .cfa -72 + ^ x28: .cfa -80 + ^ .ra: .cfa -88 + ^ x29: .cfa -96 + ^
STACK CFI 49f74 .cfa: sp 208 +
STACK CFI 49f90 .cfa: sp 0 +
STACK CFI 49f94 .cfa: x29 96 +
STACK CFI INIT 4a0b0 608 .cfa: sp 0 +
STACK CFI 4a0b4 .cfa: sp 96 +
STACK CFI 4a0cc .cfa: x29 80 + x19: .cfa -8 + ^ x20: .cfa -16 + ^ x21: .cfa -24 + ^ x22: .cfa -32 + ^ x23: .cfa -40 + ^ x24: .cfa -48 + ^ x25: .cfa -64 + ^ .ra: .cfa -72 + ^ x29: .cfa -80 + ^
STACK CFI 4a624 .cfa: sp 96 +
STACK CFI 4a63c .cfa: sp 0 +
STACK CFI 4a640 .cfa: x29 80 +
STACK CFI INIT 4a6b8 1d4 .cfa: sp 0 +
STACK CFI 4a6bc .cfa: sp 176 +
STACK CFI 4a6d8 .cfa: x29 72 + x19: .cfa -8 + ^ x20: .cfa -16 + ^ x21: .cfa -24 + ^ x22: .cfa -32 + ^ x23: .cfa -40 + ^ x24: .cfa -48 + ^ x25: .cfa -56 + ^ .ra: .cfa -64 + ^ x29: .cfa -72 + ^ v8: .cfa -80 + ^
STACK CFI 4a770 .cfa: sp 176 +
STACK CFI 4a78c .cfa: sp 0 +
STACK CFI 4a790 .cfa: x29 72 +
STACK CFI INIT 4a88c 4c0 .cfa: sp 0 +
STACK CFI 4a890 .cfa: sp 96 +
STACK CFI 4a8a8 .cfa: x29 80 + x19: .cfa -8 + ^ x20: .cfa -16 + ^ x21: .cfa -24 + ^ x22: .cfa -32 + ^ x23: .cfa -40 + ^ x24: .cfa -48 + ^ x25: .cfa -64 + ^ .ra: .cfa -72 + ^ x29: .cfa -80 + ^
STACK CFI 4acc8 .cfa: sp 96 +
STACK CFI 4ace0 .cfa: sp 0 +
STACK CFI 4ace4 .cfa: x29 80 +
STACK CFI INIT 4ad4c 1a0 .cfa: sp 0 +
STACK CFI 4ad50 .cfa: sp 160 +
STACK CFI 4ad68 .cfa: x29 48 + x19: .cfa -8 + ^ x20: .cfa -16 + ^ x21: .cfa -24 + ^ x22: .cfa -32 + ^ .ra: .cfa -40 + ^ x29: .cfa -48 + ^ v8: .cfa -56 + ^ v9: .cfa -64 + ^ v10: .cfa -80 + ^
STACK CFI 4addc .cfa: sp 160 +
STACK CFI 4adf4 .cfa: sp 0 +
STACK CFI 4adf8 .cfa: x29 48 +
STACK CFI INIT 4aeec 3b8 .cfa: sp 0 +
STACK CFI 4aef0 .cfa: sp 80 +
STACK CFI 4af04 .cfa: x29 80 + x19: .cfa -8 + ^ x20: .cfa -16 + ^ x21: .cfa -24 + ^ x22: .cfa -32 + ^ x23: .cfa -40 + ^ x24: .cfa -48 + ^ x25: .cfa -64 + ^ .ra: .cfa -72 + ^ x29: .cfa -80 + ^
STACK CFI 4b234 .cfa: sp 80 +
STACK CFI 4b248 .cfa: sp 0 +
STACK CFI 4b24c .cfa: x29 80 +
STACK CFI INIT 4b2a4 178 .cfa: sp 0 +
STACK CFI 4b2a8 .cfa: sp 128 +
STACK CFI 4b2b8 .cfa: x29 48 + x19: .cfa -8 + ^ x20: .cfa -16 + ^ x21: .cfa -24 + ^ x22: .cfa -32 + ^ .ra: .cfa -40 + ^ x29: .cfa -48 + ^
STACK CFI 4b314 .cfa: sp 128 +
STACK CFI 4b324 .cfa: sp 0 +
STACK CFI 4b328 .cfa: x29 48 +
STACK CFI INIT 4b41c a4 .cfa: sp 0 +
STACK CFI 4b420 .cfa: sp 48 +
STACK CFI 4b42c .cfa: x29 48 + x19: .cfa -8 + ^ x20: .cfa -16 + ^ x21: .cfa -32 + ^ .ra: .cfa -40 + ^ x29: .cfa -48 + ^
STACK CFI 4b498 .cfa: sp 48 +
STACK CFI 4b4a4 .cfa: sp 0 +
STACK CFI 4b4a8 .cfa: x29 48 +
STACK CFI INIT 4b4c0 53c .cfa: sp 0 +
STACK CFI 4b4c4 .cfa: sp 144 +
STACK CFI 4b4d8 .cfa: x29 64 + x19: .cfa -8 + ^ x20: .cfa -16 + ^ x21: .cfa -24 + ^ x22: .cfa -32 + ^ x23: .cfa -40 + ^ x24: .cfa -48 + ^ .ra: .cfa -56 + ^ x29: .cfa -64 + ^
STACK CFI 4b768 .cfa: sp 144 +
STACK CFI 4b77c .cfa: sp 0 +
STACK CFI 4b780 .cfa: x29 64 +
STACK CFI INIT 4ba20 a4 .cfa: sp 0 +
STACK CFI 4ba24 .cfa: sp 48 +
STACK CFI 4ba30 .cfa: x29 48 + x19: .cfa -8 + ^ x20: .cfa -16 + ^ x21: .cfa -32 + ^ .ra: .cfa -40 + ^ x29: .cfa -48 + ^
STACK CFI 4ba9c .cfa: sp 48 +
STACK CFI 4baa8 .cfa: sp 0 +
STACK CFI 4baac .cfa: x29 48 +
STACK CFI INIT 4bac4 178 .cfa: sp 0 +
STACK CFI 4bac8 .cfa: sp 128 +
STACK CFI 4bad8 .cfa: x29 48 + x19: .cfa -8 + ^ x20: .cfa -16 + ^ x21: .cfa -24 + ^ x22: .cfa -32 + ^ .ra: .cfa -40 + ^ x29: .cfa -48 + ^
STACK CFI 4bb34 .cfa: sp 128 +
STACK CFI 4bb44 .cfa: sp 0 +
STACK CFI 4bb48 .cfa: x29 48 +
STACK CFI INIT 4bc3c 1c8 .cfa: sp 0 +
STACK CFI 4bc40 .cfa: sp 192 +
STACK CFI 4bc5c .cfa: x29 64 + x19: .cfa -8 + ^ x20: .cfa -16 + ^ x21: .cfa -24 + ^ x22: .cfa -32 + ^ x23: .cfa -40 + ^ x24: .cfa -48 + ^ .ra: .cfa -56 + ^ x29: .cfa -64 + ^ v8: .cfa -72 + ^ v9: .cfa -80 + ^ v10: .cfa -96 + ^
STACK CFI 4bcf0 .cfa: sp 192 +
STACK CFI 4bd0c .cfa: sp 0 +
STACK CFI 4bd10 .cfa: x29 64 +
STACK CFI INIT 4be04 5bc .cfa: sp 0 +
STACK CFI 4be08 .cfa: sp 112 +
STACK CFI 4be20 .cfa: x29 80 + x19: .cfa -8 + ^ x20: .cfa -16 + ^ x21: .cfa -24 + ^ x22: .cfa -32 + ^ x23: .cfa -40 + ^ x24: .cfa -48 + ^ x25: .cfa -64 + ^ .ra: .cfa -72 + ^ x29: .cfa -80 + ^
STACK CFI 4c32c .cfa: sp 112 +
STACK CFI 4c344 .cfa: sp 0 +
STACK CFI 4c348 .cfa: x29 80 +
STACK CFI INIT 4c3c4 2e4 .cfa: sp 0 +
STACK CFI 4c3c8 .cfa: sp 144 +
STACK CFI 4c3dc .cfa: x29 64 + x19: .cfa -8 + ^ x20: .cfa -16 + ^ x21: .cfa -24 + ^ x22: .cfa -32 + ^ x23: .cfa -48 + ^ .ra: .cfa -56 + ^ x29: .cfa -64 + ^
STACK CFI 4c554 .cfa: sp 144 +
STACK CFI 4c568 .cfa: sp 0 +
STACK CFI 4c56c .cfa: x29 64 +
STACK CFI INIT 4c6a8 2e4 .cfa: sp 0 +
STACK CFI 4c6ac .cfa: sp 144 +
STACK CFI 4c6c0 .cfa: x29 64 + x19: .cfa -8 + ^ x20: .cfa -16 + ^ x21: .cfa -24 + ^ x22: .cfa -32 + ^ x23: .cfa -48 + ^ .ra: .cfa -56 + ^ x29: .cfa -64 + ^
STACK CFI 4c838 .cfa: sp 144 +
STACK CFI 4c84c .cfa: sp 0 +
STACK CFI 4c850 .cfa: x29 64 +
STACK CFI INIT 4c98c 2a0 .cfa: sp 0 +
STACK CFI 4c990 .cfa: sp 144 +
STACK CFI 4c9a4 .cfa: x29 64 + x19: .cfa -8 + ^ x20: .cfa -16 + ^ x21: .cfa -24 + ^ x22: .cfa -32 + ^ x23: .cfa -48 + ^ .ra: .cfa -56 + ^ x29: .cfa -64 + ^
STACK CFI 4cad8 .cfa: sp 144 +
STACK CFI 4caec .cfa: sp 0 +
STACK CFI 4caf0 .cfa: x29 64 +
STACK CFI INIT 4cc2c 2f0 .cfa: sp 0 +
STACK CFI 4cc30 .cfa: sp 144 +
STACK CFI 4cc44 .cfa: x29 64 + x19: .cfa -8 + ^ x20: .cfa -16 + ^ x21: .cfa -24 + ^ x22: .cfa -32 + ^ x23: .cfa -48 + ^ .ra: .cfa -56 + ^ x29: .cfa -64 + ^
STACK CFI 4cdc8 .cfa: sp 144 +
STACK CFI 4cddc .cfa: sp 0 +
STACK CFI 4cde0 .cfa: x29 64 +
STACK CFI INIT 4cf1c 4f4 .cfa: sp 0 +
STACK CFI 4cf20 .cfa: sp 144 +
STACK CFI 4cf34 .cfa: x29 64 + x19: .cfa -8 + ^ x20: .cfa -16 + ^ x21: .cfa -24 + ^ x22: .cfa -32 + ^ x23: .cfa -48 + ^ .ra: .cfa -56 + ^ x29: .cfa -64 + ^
STACK CFI 4d268 .cfa: sp 144 +
STACK CFI 4d27c .cfa: sp 0 +
STACK CFI 4d280 .cfa: x29 64 +
STACK CFI INIT 4d410 154 .cfa: sp 0 +
STACK CFI 4d414 .cfa: sp 384 +
STACK CFI 4d428 .cfa: x29 64 + x19: .cfa -8 + ^ x20: .cfa -16 + ^ x21: .cfa -24 + ^ x22: .cfa -32 + ^ x23: .cfa -40 + ^ x28: .cfa -48 + ^ .ra: .cfa -56 + ^ x29: .cfa -64 + ^
STACK CFI 4d50c .cfa: sp 384 +
STACK CFI 4d520 .cfa: sp 0 +
STACK CFI 4d524 .cfa: x29 64 +
STACK CFI INIT 4d57c 50c .cfa: sp 0 +
STACK CFI 4d580 .cfa: sp 64 +
STACK CFI 4d590 .cfa: x29 64 + x19: .cfa -8 + ^ x20: .cfa -16 + ^ x21: .cfa -24 + ^ x22: .cfa -32 + ^ x23: .cfa -40 + ^ x24: .cfa -48 + ^ .ra: .cfa -56 + ^ x29: .cfa -64 + ^
STACK CFI 4d6b0 .cfa: sp 64 +
STACK CFI 4d6c0 .cfa: sp 0 +
STACK CFI 4d6c4 .cfa: x29 64 +
STACK CFI 4da5c .cfa: sp 64 +
STACK CFI 4da6c .cfa: sp 0 +
STACK CFI 4da70 .cfa: x29 64 +
STACK CFI INIT 4ddb8 294 .cfa: sp 0 +
STACK CFI 4ddbc .cfa: sp 240 +
STACK CFI 4ddd4 .cfa: x29 80 + x19: .cfa -8 + ^ x20: .cfa -16 + ^ x21: .cfa -24 + ^ x22: .cfa -32 + ^ x23: .cfa -40 + ^ x24: .cfa -48 + ^ x25: .cfa -64 + ^ .ra: .cfa -72 + ^ x29: .cfa -80 + ^
STACK CFI 4df74 .cfa: sp 240 +
STACK CFI 4df8c .cfa: sp 0 +
STACK CFI 4df90 .cfa: x29 80 +
STACK CFI INIT 4e0c8 50 .cfa: sp 0 +
STACK CFI 4e0cc .cfa: sp 32 +
STACK CFI 4e0d4 .cfa: x29 32 + x19: .cfa -8 + ^ x20: .cfa -16 + ^ .ra: .cfa -24 + ^ x29: .cfa -32 + ^
STACK CFI INIT 4e144 7c0 .cfa: sp 0 +
STACK CFI 4e148 .cfa: sp 320 +
STACK CFI 4e164 .cfa: x29 96 + x19: .cfa -8 + ^ x20: .cfa -16 + ^ x21: .cfa -24 + ^ x22: .cfa -32 + ^ x23: .cfa -40 + ^ x24: .cfa -48 + ^ x25: .cfa -56 + ^ x26: .cfa -64 + ^ x27: .cfa -72 + ^ x28: .cfa -80 + ^ .ra: .cfa -88 + ^ x29: .cfa -96 + ^
STACK CFI 4e7b4 .cfa: sp 320 +
STACK CFI 4e7d0 .cfa: sp 0 +
STACK CFI 4e7d4 .cfa: x29 96 +
STACK CFI INIT 52520 c84 .cfa: sp 0 +
STACK CFI 52524 .cfa: sp 96 +
STACK CFI 5253c .cfa: x29 96 + x19: .cfa -8 + ^ x20: .cfa -16 + ^ x21: .cfa -24 + ^ x22: .cfa -32 + ^ x23: .cfa -40 + ^ x24: .cfa -48 + ^ x25: .cfa -56 + ^ x26: .cfa -64 + ^ x27: .cfa -72 + ^ x28: .cfa -80 + ^ .ra: .cfa -88 + ^ x29: .cfa -96 + ^
STACK CFI 52fc4 .cfa: sp 96 +
STACK CFI 52fdc .cfa: sp 0 +
STACK CFI 52fe0 .cfa: x29 96 +
STACK CFI INIT 532f8 26c .cfa: sp 0 +
STACK CFI 532fc .cfa: sp 128 +
STACK CFI 5330c .cfa: x29 48 + x19: .cfa -8 + ^ x20: .cfa -16 + ^ x21: .cfa -24 + ^ x22: .cfa -32 + ^ .ra: .cfa -40 + ^ x29: .cfa -48 + ^
STACK CFI 534b0 .cfa: sp 128 +
STACK CFI 534c0 .cfa: sp 0 +
STACK CFI 534c4 .cfa: x29 48 +
STACK CFI INIT 538f4 3b8 .cfa: sp 0 +
STACK CFI 538f8 .cfa: sp 96 +
STACK CFI 53910 .cfa: x29 96 + x19: .cfa -8 + ^ x20: .cfa -16 + ^ x21: .cfa -24 + ^ x22: .cfa -32 + ^ x23: .cfa -40 + ^ x24: .cfa -48 + ^ x25: .cfa -56 + ^ x26: .cfa -64 + ^ x27: .cfa -72 + ^ x28: .cfa -80 + ^ .ra: .cfa -88 + ^ x29: .cfa -96 + ^
STACK CFI 53c4c .cfa: sp 96 +
STACK CFI 53c64 .cfa: sp 0 +
STACK CFI 53c68 .cfa: x29 96 +
STACK CFI INIT 53d4c cc0 .cfa: sp 0 +
STACK CFI 53d50 .cfa: sp 96 +
STACK CFI 53d68 .cfa: x29 96 + x19: .cfa -8 + ^ x20: .cfa -16 + ^ x21: .cfa -24 + ^ x22: .cfa -32 + ^ x23: .cfa -40 + ^ x24: .cfa -48 + ^ x25: .cfa -56 + ^ x26: .cfa -64 + ^ x27: .cfa -72 + ^ x28: .cfa -80 + ^ .ra: .cfa -88 + ^ x29: .cfa -96 + ^
STACK CFI 5481c .cfa: sp 96 +
STACK CFI 54834 .cfa: sp 0 +
STACK CFI 54838 .cfa: x29 96 +
STACK CFI INIT 54cf4 af8 .cfa: sp 0 +
STACK CFI 54cf8 .cfa: sp 96 +
STACK CFI 54d10 .cfa: x29 96 + x19: .cfa -8 + ^ x20: .cfa -16 + ^ x21: .cfa -24 + ^ x22: .cfa -32 + ^ x23: .cfa -40 + ^ x24: .cfa -48 + ^ x25: .cfa -56 + ^ x26: .cfa -64 + ^ x27: .cfa -72 + ^ x28: .cfa -80 + ^ .ra: .cfa -88 + ^ x29: .cfa -96 + ^
STACK CFI 55760 .cfa: sp 96 +
STACK CFI 55778 .cfa: sp 0 +
STACK CFI 5577c .cfa: x29 96 +
STACK CFI INIT 559e0 1430 .cfa: sp 0 +
STACK CFI 559e4 .cfa: sp 96 +
STACK CFI 559fc .cfa: x29 96 + x19: .cfa -8 + ^ x20: .cfa -16 + ^ x21: .cfa -24 + ^ x22: .cfa -32 + ^ x23: .cfa -40 + ^ x24: .cfa -48 + ^ x25: .cfa -56 + ^ x26: .cfa -64 + ^ x27: .cfa -72 + ^ x28: .cfa -80 + ^ .ra: .cfa -88 + ^ x29: .cfa -96 + ^
STACK CFI 56c98 .cfa: sp 96 +
STACK CFI 56cb0 .cfa: sp 0 +
STACK CFI 56cb4 .cfa: x29 96 +
STACK CFI INIT 56f34 75c .cfa: sp 0 +
STACK CFI 56f38 .cfa: sp 368 +
STACK CFI 56f54 .cfa: x29 96 + x19: .cfa -8 + ^ x20: .cfa -16 + ^ x21: .cfa -24 + ^ x22: .cfa -32 + ^ x23: .cfa -40 + ^ x24: .cfa -48 + ^ x25: .cfa -56 + ^ x26: .cfa -64 + ^ x27: .cfa -72 + ^ x28: .cfa -80 + ^ .ra: .cfa -88 + ^ x29: .cfa -96 + ^
STACK CFI 57008 .cfa: sp 368 +
STACK CFI 57024 .cfa: sp 0 +
STACK CFI 57028 .cfa: x29 96 +
STACK CFI 5707c .cfa: sp 368 +
STACK CFI 57098 .cfa: sp 0 +
STACK CFI 5709c .cfa: x29 96 +
STACK CFI INIT 57a50 ee0 .cfa: sp 0 +
STACK CFI 57a54 .cfa: sp 96 +
STACK CFI 57a6c .cfa: x29 96 + x19: .cfa -8 + ^ x20: .cfa -16 + ^ x21: .cfa -24 + ^ x22: .cfa -32 + ^ x23: .cfa -40 + ^ x24: .cfa -48 + ^ x25: .cfa -56 + ^ x26: .cfa -64 + ^ x27: .cfa -72 + ^ x28: .cfa -80 + ^ .ra: .cfa -88 + ^ x29: .cfa -96 + ^
STACK CFI 58728 .cfa: sp 96 +
STACK CFI 58740 .cfa: sp 0 +
STACK CFI 58744 .cfa: x29 96 +
STACK CFI INIT 58ca4 14b4 .cfa: sp 0 +
STACK CFI 58ca8 .cfa: sp 112 +
STACK CFI 58cc4 .cfa: x29 96 + x19: .cfa -8 + ^ x20: .cfa -16 + ^ x21: .cfa -24 + ^ x22: .cfa -32 + ^ x23: .cfa -40 + ^ x24: .cfa -48 + ^ x25: .cfa -56 + ^ x26: .cfa -64 + ^ x27: .cfa -72 + ^ x28: .cfa -80 + ^ .ra: .cfa -88 + ^ x29: .cfa -96 + ^ v8: .cfa -112 + ^
STACK CFI 590a4 .cfa: sp 112 +
STACK CFI 590c0 .cfa: sp 0 +
STACK CFI 590c4 .cfa: x29 96 +
STACK CFI INIT 5c568 9a0 .cfa: sp 0 +
STACK CFI 5c56c .cfa: sp 144 +
STACK CFI 5c584 .cfa: x29 80 + x19: .cfa -8 + ^ x20: .cfa -16 + ^ x21: .cfa -24 + ^ x22: .cfa -32 + ^ x23: .cfa -40 + ^ x24: .cfa -48 + ^ x25: .cfa -64 + ^ .ra: .cfa -72 + ^ x29: .cfa -80 + ^
STACK CFI 5ce84 .cfa: sp 144 +
STACK CFI 5ce9c .cfa: sp 0 +
STACK CFI 5cea0 .cfa: x29 80 +
STACK CFI INIT 5cf08 57c .cfa: sp 0 +
STACK CFI 5cf0c .cfa: sp 96 +
STACK CFI 5cf24 .cfa: x29 96 + x19: .cfa -8 + ^ x20: .cfa -16 + ^ x21: .cfa -24 + ^ x22: .cfa -32 + ^ x23: .cfa -40 + ^ x24: .cfa -48 + ^ x25: .cfa -56 + ^ x26: .cfa -64 + ^ x27: .cfa -72 + ^ x28: .cfa -80 + ^ .ra: .cfa -88 + ^ x29: .cfa -96 + ^
STACK CFI 5d3e8 .cfa: sp 96 +
STACK CFI 5d400 .cfa: sp 0 +
STACK CFI 5d404 .cfa: x29 96 +
STACK CFI INIT 5d484 67c .cfa: sp 0 +
STACK CFI 5d488 .cfa: sp 96 +
STACK CFI 5d4a0 .cfa: x29 96 + x19: .cfa -8 + ^ x20: .cfa -16 + ^ x21: .cfa -24 + ^ x22: .cfa -32 + ^ x23: .cfa -40 + ^ x24: .cfa -48 + ^ x25: .cfa -56 + ^ x26: .cfa -64 + ^ x27: .cfa -72 + ^ x28: .cfa -80 + ^ .ra: .cfa -88 + ^ x29: .cfa -96 + ^
STACK CFI 5da64 .cfa: sp 96 +
STACK CFI 5da7c .cfa: sp 0 +
STACK CFI 5da80 .cfa: x29 96 +
