MODULE Linux arm B42DBDCA60221574276C22160FC2B8C50 thesillydoggo.comment_emojis.android32.so
INFO CODE_ID CABD2DB422607415276C22160FC2B8C5AE2CE7F6
INFO GENERATOR mozilla/dump_syms 2.3.4
PUBLIC 15e00 0 __on_dlclose
PUBLIC 15e10 0 __emutls_unregister_key
PUBLIC 15e14 0 __on_dlclose_late
PUBLIC 15e18 0 __atexit_handler_wrapper
PUBLIC 15e24 0 atexit
PUBLIC 15e44 0 pthread_atfork
FUNC 15e54 184 0 LabelPart::stringFromVector(std::__ndk1::vector<LabelPart, std::__ndk1::allocator<LabelPart> >)
FUNC 15fd8 3e 0 std::__ndk1::vector<std::__ndk1::pair<std::__ndk1::basic_string<char, std::__ndk1::char_traits<char>, std::__ndk1::allocator<char> >, float>, std::__ndk1::allocator<std::__ndk1::pair<std::__ndk1::basic_string<char, std::__ndk1::char_traits<char>, std::__ndk1::allocator<char> >, float> > >::~vector[abi:ne180000]()
FUNC 16018 a4 0 CCLabelBMFontExt::init(char const*, char const*)
FUNC 160bc 8c 0 CCLabelBMFontExt::create(char const*, char const*)
FUNC 16148 a 0 CCLabelBMFontExt::setString(char const*)
FUNC 16152 16 0 {virtual override thunk({offset(-288)}, CCLabelBMFontExt::setString(char const*))}
FUNC 16168 24 0 CCLabelBMFontExt::setString(char const*, bool)
FUNC 1618c 14 0 CCLabelBMFontExt::getString()
FUNC 161a0 12 0 {virtual override thunk({offset(-288)}, CCLabelBMFontExt::getString())}
FUNC 161b2 2 0 CCLabelBMFontExt::setCString(char const*)
FUNC 161b4 4 0 CCLabelBMFontExt::setAnchorPoint(cocos2d::CCPoint const&)
FUNC 161b8 c 0 CCLabelBMFontExt::setAlignment(cocos2d::CCTextAlignment)
FUNC 161c4 2 0 CCLabelBMFontExt::setWidth(float)
FUNC 161c6 2 0 CCLabelBMFontExt::setLineBreakWithoutSpace(bool)
FUNC 161c8 4 0 CCLabelBMFontExt::setScale(float)
FUNC 161cc 4 0 CCLabelBMFontExt::setScaleX(float)
FUNC 161d0 4 0 CCLabelBMFontExt::setScaleY(float)
FUNC 161d4 4 0 CCLabelBMFontExt::isOpacityModifyRGB()
FUNC 161d8 4 0 {virtual override thunk({offset(-292)}, CCLabelBMFontExt::isOpacityModifyRGB())}
FUNC 161dc 2 0 CCLabelBMFontExt::setOpacityModifyRGB(bool)
FUNC 161de 2 0 {virtual override thunk({offset(-292)}, CCLabelBMFontExt::setOpacityModifyRGB(bool))}
FUNC 161e0 6 0 CCLabelBMFontExt::getOpacity()
FUNC 161e6 6 0 {virtual override thunk({offset(-292)}, CCLabelBMFontExt::getOpacity())}
FUNC 161ec 6 0 CCLabelBMFontExt::getDisplayedOpacity()
FUNC 161f2 6 0 {virtual override thunk({offset(-292)}, CCLabelBMFontExt::getDisplayedOpacity())}
FUNC 161f8 c 0 CCLabelBMFontExt::setOpacity(unsigned char)
FUNC 16204 18 0 {virtual override thunk({offset(-292)}, CCLabelBMFontExt::setOpacity(unsigned char))}
FUNC 1621c 8 0 CCLabelBMFontExt::updateDisplayedOpacity(unsigned char)
FUNC 16224 14 0 {virtual override thunk({offset(-292)}, CCLabelBMFontExt::updateDisplayedOpacity(unsigned char))}
FUNC 16238 4 0 CCLabelBMFontExt::isCascadeOpacityEnabled()
FUNC 1623c 4 0 {virtual override thunk({offset(-292)}, CCLabelBMFontExt::isCascadeOpacityEnabled())}
FUNC 16240 2 0 CCLabelBMFontExt::setCascadeOpacityEnabled(bool)
FUNC 16242 2 0 {virtual override thunk({offset(-292)}, CCLabelBMFontExt::setCascadeOpacityEnabled(bool))}
FUNC 16244 6 0 CCLabelBMFontExt::getColor()
FUNC 1624a 4 0 {virtual override thunk({offset(-292)}, CCLabelBMFontExt::getColor())}
FUNC 1624e 6 0 CCLabelBMFontExt::getDisplayedColor()
FUNC 16254 4 0 {virtual override thunk({offset(-292)}, CCLabelBMFontExt::getDisplayedColor())}
FUNC 16258 14 0 CCLabelBMFontExt::setColor(cocos2d::_ccColor3B const&)
FUNC 1626c 20 0 {virtual override thunk({offset(-292)}, CCLabelBMFontExt::setColor(cocos2d::_ccColor3B const&))}
FUNC 1628c 8 0 CCLabelBMFontExt::updateDisplayedColor(cocos2d::_ccColor3B const&)
FUNC 16294 14 0 {virtual override thunk({offset(-292)}, CCLabelBMFontExt::updateDisplayedColor(cocos2d::_ccColor3B const&))}
FUNC 162a8 4 0 CCLabelBMFontExt::isCascadeColorEnabled()
FUNC 162ac 4 0 {virtual override thunk({offset(-292)}, CCLabelBMFontExt::isCascadeColorEnabled())}
FUNC 162b0 2 0 CCLabelBMFontExt::setCascadeColorEnabled(bool)
FUNC 162b2 2 0 {virtual override thunk({offset(-292)}, CCLabelBMFontExt::setCascadeColorEnabled(bool))}
FUNC 162b4 ae4 0 CCLabelBMFontExt::updateLabel()
FUNC 16d98 4 0 CCLabelBMFontExt::addChild(cocos2d::CCNode*)
FUNC 16d9c 4 0 CCLabelBMFontExt::addChild(cocos2d::CCNode*, int)
FUNC 16da0 4 0 CCLabelBMFontExt::addChild(cocos2d::CCNode*, int, int)
FUNC 16da4 4 0 CCLabelBMFontExt::removeChild(cocos2d::CCNode*, bool)
FUNC 16da8 4 0 CCLabelBMFontExt::removeAllChildrenWithCleanup(bool)
FUNC 16dac 4 0 CCLabelBMFontExt::sortAllChildren()
FUNC 16db0 4 0 CCLabelBMFontExt::visit()
FUNC 16db4 4 0 CCLabelBMFontExt::draw()
FUNC 16db8 98 0 CCLabelBMFontExt::~CCLabelBMFontExt()
PUBLIC 16e51 0 __clang_call_terminate
FUNC 16e5c 10 0 CCLabelBMFontExt::~CCLabelBMFontExt()
FUNC 16e6c 4 0 cocos2d::CCCopying::copyWithZone(cocos2d::CCZone*)
FUNC 16e70 46 0 std::__ndk1::basic_string<char, std::__ndk1::char_traits<char>, std::__ndk1::allocator<char> >::__init_copy_ctor_external(char const*, unsigned int)
FUNC 16eb8 10 0 std::__ndk1::basic_string<char, std::__ndk1::char_traits<char>, std::__ndk1::allocator<char> >::__throw_length_error[abi:ne180000]() const
FUNC 16ec8 38 0 std::__ndk1::__throw_length_error[abi:ne180000](char const*)
FUNC 16f00 18 0 std::length_error::length_error[abi:ne180000](char const*)
FUNC 16f18 28 0 std::__throw_bad_array_new_length([abi:ne180000], void)
FUNC 16f40 c8 0 std::__ndk1::basic_string<char, std::__ndk1::char_traits<char>, std::__ndk1::allocator<char> >::__assign_external(char const*, unsigned int)
FUNC 17008 1c 0 std::__ndk1::basic_string<char, std::__ndk1::char_traits<char>, std::__ndk1::allocator<char> >::__assign_external(char const*)
FUNC 17024 188 0 std::__ndk1::vector<LabelPart, std::__ndk1::allocator<LabelPart> >::__push_back_slow_path<LabelPart const&>(LabelPart const&)
FUNC 171ac 3c 0 std::__ndk1::__split_buffer<LabelPart, std::__ndk1::allocator<LabelPart>&>::~__split_buffer()
FUNC 171e8 10 0 std::__ndk1::vector<LabelPart, std::__ndk1::allocator<LabelPart> >::__throw_length_error[abi:ne180000]() const
FUNC 171f8 11c 0 std::__ndk1::vector<LabelPart, std::__ndk1::allocator<LabelPart> >::__push_back_slow_path<LabelPart>(LabelPart&&)
FUNC 17314 60 0 CCProxyNode::init()
FUNC 17374 2c 0 CCProxyNode::visit()
FUNC 173a0 c4 0 CCProxyNode::draw()
FUNC 17464 10 0 CCProxyNode::~CCProxyNode()
FUNC 17474 2 0 cocos2d::CCMenu::setOpacityModifyRGB(bool)
FUNC 17476 4 0 cocos2d::CCMenu::isOpacityModifyRGB()
FUNC 1747a 6 0 cocos2d::CCMenu::isEnabled()
FUNC 17480 6 0 cocos2d::CCMenu::setEnabled(bool)
FUNC 17486 8 0 {virtual override thunk({offset(-264)}, CCProxyNode::~CCProxyNode())}
FUNC 1748e 14 0 {virtual override thunk({offset(-264)}, CCProxyNode::~CCProxyNode())}
FUNC 174a2 2 0 cocos2d::CCKeyboardDelegate::keyUp(cocos2d::enumKeyCodes)
FUNC 174a4 2 0 cocos2d::CCMouseDelegate::rightKeyDown()
FUNC 174a6 2 0 cocos2d::CCMouseDelegate::rightKeyUp()
FUNC 174a8 2 0 cocos2d::CCMouseDelegate::scrollWheel(float, float)
FUNC 174aa 2 0 {virtual override thunk({offset(-316)}, cocos2d::CCMenu::setOpacityModifyRGB(bool))}
FUNC 174ac 4 0 {virtual override thunk({offset(-316)}, cocos2d::CCMenu::isOpacityModifyRGB())}
FUNC 174b0 4b4 0 EmojiNode::init(std::__ndk1::basic_string<char, std::__ndk1::char_traits<char>, std::__ndk1::allocator<char> >)
FUNC 17964 250 0 EmojiNode::frameForKey(std::__ndk1::basic_string<char, std::__ndk1::char_traits<char>, std::__ndk1::allocator<char> >)
FUNC 17bb4 54 0 EmojiNode::updateFrame(float)
FUNC 17c08 d0 0 EmojiNode::createWithKey(std::__ndk1::basic_string<char, std::__ndk1::char_traits<char>, std::__ndk1::allocator<char> >)
FUNC 17cd8 22 0 std::__ndk1::pair<std::__ndk1::basic_string<char, std::__ndk1::char_traits<char>, std::__ndk1::allocator<char> >, std::__ndk1::basic_string<char, std::__ndk1::char_traits<char>, std::__ndk1::allocator<char> > >::~pair()
FUNC 17cfa 4c 0 std::__ndk1::vector<std::__ndk1::pair<std::__ndk1::basic_string<char, std::__ndk1::char_traits<char>, std::__ndk1::allocator<char> >, std::__ndk1::basic_string<char, std::__ndk1::char_traits<char>, std::__ndk1::allocator<char> > >, std::__ndk1::allocator<std::__ndk1::pair<std::__ndk1::basic_string<char, std::__ndk1::char_traits<char>, std::__ndk1::allocator<char> >, std::__ndk1::basic_string<char, std::__ndk1::char_traits<char>, std::__ndk1::allocator<char> > > > >::~vector[abi:ne180000]()
FUNC 17d48 150 0 _Emoji(std::__ndk1::basic_string<char, std::__ndk1::char_traits<char>, std::__ndk1::allocator<char> > const&)
FUNC 17e98 39a4 0 __cxx_global_var_init
FUNC 1b83c 4e4 0 _GLOBAL__sub_I_EmojiNode.cpp
FUNC 1bd20 c6 0 _ZNSt6__ndk14pairINS_12basic_stringIcNS_11char_traitsIcEENS_9allocatorIcEEEES6_EC2B8ne180000IPKcSA_TnNS_9enable_ifIXclsr10_CheckArgsE17__enable_implicitIT_T0_EEEiE4typeELi0EEEONS0_ISC_SD_EE
FUNC 1bde8 a8 0 std::__ndk1::vector<std::__ndk1::pair<std::__ndk1::basic_string<char, std::__ndk1::char_traits<char>, std::__ndk1::allocator<char> >, std::__ndk1::basic_string<char, std::__ndk1::char_traits<char>, std::__ndk1::allocator<char> > >, std::__ndk1::allocator<std::__ndk1::pair<std::__ndk1::basic_string<char, std::__ndk1::char_traits<char>, std::__ndk1::allocator<char> >, std::__ndk1::basic_string<char, std::__ndk1::char_traits<char>, std::__ndk1::allocator<char> > > > >::vector(std::__ndk1::vector<std::__ndk1::pair<std::__ndk1::basic_string<char, std::__ndk1::char_traits<char>, std::__ndk1::allocator<char> >, std::__ndk1::basic_string<char, std::__ndk1::char_traits<char>, std::__ndk1::allocator<char> > >, std::__ndk1::allocator<std::__ndk1::pair<std::__ndk1::basic_string<char, std::__ndk1::char_traits<char>, std::__ndk1::allocator<char> >, std::__ndk1::basic_string<char, std::__ndk1::char_traits<char>, std::__ndk1::allocator<char> > > > > const&)
FUNC 1be90 10 0 std::__ndk1::vector<cocos2d::CCSprite*, std::__ndk1::allocator<cocos2d::CCSprite*> >::__throw_length_error[abi:ne180000]() const
FUNC 1bea0 44 0 EmojiNode::~EmojiNode()
FUNC 1bee4 44 0 EmojiNode::~EmojiNode()
FUNC 1bf28 6 0 cocos2d::CCSprite::setBlendFunc(cocos2d::_ccBlendFunc)
FUNC 1bf2e a 0 cocos2d::CCSprite::getBlendFunc()
FUNC 1bf38 6 0 cocos2d::CCSprite::isDirty()
FUNC 1bf3e 6 0 cocos2d::CCSprite::setDirty(bool)
FUNC 1bf44 6 0 {virtual override thunk({offset(-280)}, cocos2d::CCSprite::setBlendFunc(cocos2d::_ccBlendFunc))}
FUNC 1bf4a a 0 {virtual override thunk({offset(-280)}, cocos2d::CCSprite::getBlendFunc())}
FUNC 1bf54 38 0 std::__ndk1::__throw_out_of_range[abi:ne180000](char const*)
FUNC 1bf8c 18 0 std::out_of_range::out_of_range[abi:ne180000](char const*)
FUNC 1bfa4 5c 0 std::__ndk1::__exception_guard_exceptions<std::__ndk1::vector<std::__ndk1::pair<std::__ndk1::basic_string<char, std::__ndk1::char_traits<char>, std::__ndk1::allocator<char> >, std::__ndk1::basic_string<char, std::__ndk1::char_traits<char>, std::__ndk1::allocator<char> > >, std::__ndk1::allocator<std::__ndk1::pair<std::__ndk1::basic_string<char, std::__ndk1::char_traits<char>, std::__ndk1::allocator<char> >, std::__ndk1::basic_string<char, std::__ndk1::char_traits<char>, std::__ndk1::allocator<char> > > > >::__destroy_vector>::~__exception_guard_exceptions[abi:ne180000]()
FUNC 1c000 10 0 std::__ndk1::vector<std::__ndk1::pair<std::__ndk1::basic_string<char, std::__ndk1::char_traits<char>, std::__ndk1::allocator<char> >, std::__ndk1::basic_string<char, std::__ndk1::char_traits<char>, std::__ndk1::allocator<char> > >, std::__ndk1::allocator<std::__ndk1::pair<std::__ndk1::basic_string<char, std::__ndk1::char_traits<char>, std::__ndk1::allocator<char> >, std::__ndk1::basic_string<char, std::__ndk1::char_traits<char>, std::__ndk1::allocator<char> > > > >::__throw_length_error[abi:ne180000]() const
FUNC 1c010 4a 0 std::__ndk1::__exception_guard_exceptions<std::__ndk1::_AllocatorDestroyRangeReverse<std::__ndk1::allocator<std::__ndk1::pair<std::__ndk1::basic_string<char, std::__ndk1::char_traits<char>, std::__ndk1::allocator<char> >, std::__ndk1::basic_string<char, std::__ndk1::char_traits<char>, std::__ndk1::allocator<char> > > >, std::__ndk1::pair<std::__ndk1::basic_string<char, std::__ndk1::char_traits<char>, std::__ndk1::allocator<char> >, std::__ndk1::basic_string<char, std::__ndk1::char_traits<char>, std::__ndk1::allocator<char> > >*> >::~__exception_guard_exceptions[abi:ne180000]()
FUNC 1c05a 4e 0 std::__ndk1::__exception_guard_exceptions<std::__ndk1::vector<std::__ndk1::pair<std::__ndk1::basic_string<char, std::__ndk1::char_traits<char>, std::__ndk1::allocator<char> >, float>, std::__ndk1::allocator<std::__ndk1::pair<std::__ndk1::basic_string<char, std::__ndk1::char_traits<char>, std::__ndk1::allocator<char> >, float> > >::__destroy_vector>::~__exception_guard_exceptions[abi:ne180000]()
FUNC 1c0a8 10 0 std::__ndk1::vector<std::__ndk1::pair<std::__ndk1::basic_string<char, std::__ndk1::char_traits<char>, std::__ndk1::allocator<char> >, float>, std::__ndk1::allocator<std::__ndk1::pair<std::__ndk1::basic_string<char, std::__ndk1::char_traits<char>, std::__ndk1::allocator<char> >, float> > >::__throw_length_error[abi:ne180000]() const
FUNC 1c0b8 3a 0 std::__ndk1::__exception_guard_exceptions<std::__ndk1::_AllocatorDestroyRangeReverse<std::__ndk1::allocator<std::__ndk1::pair<std::__ndk1::basic_string<char, std::__ndk1::char_traits<char>, std::__ndk1::allocator<char> >, float> >, std::__ndk1::pair<std::__ndk1::basic_string<char, std::__ndk1::char_traits<char>, std::__ndk1::allocator<char> >, float>*> >::~__exception_guard_exceptions[abi:ne180000]()
FUNC 1c0f4 c4 0 std::__ndk1::__uninitialized_allocator_copy_impl[abi:ne180000]<std::__ndk1::allocator<std::__ndk1::pair<std::__ndk1::basic_string<char, std::__ndk1::char_traits<char>, std::__ndk1::__uninitialized_allocator_copy_impl[abi:ne180000]<char> >, std::__ndk1::__uninitialized_allocator_copy_impl[abi:ne180000]<char> > >, std::__ndk1::basic_string<char, std::__ndk1::char_traits<char>, std::__ndk1::__uninitialized_allocator_copy_impl[abi:ne180000]<char> >*, std::__ndk1::allocator<std::__ndk1::pair<std::__ndk1::basic_string<char, std::__ndk1::char_traits<char>, std::__ndk1::__uninitialized_allocator_copy_impl[abi:ne180000]<char> >, std::__ndk1::__uninitialized_allocator_copy_impl[abi:ne180000]<char> > >, std::__ndk1::allocator<std::__ndk1::pair<std::__ndk1::basic_string<char, std::__ndk1::char_traits<char>, std::__ndk1::__uninitialized_allocator_copy_impl[abi:ne180000]<char> >, std::__ndk1::__uninitialized_allocator_copy_impl[abi:ne180000]<char> > > >(std::__ndk1::allocator<std::__ndk1::pair<std::__ndk1::basic_string<char, std::__ndk1::char_traits<char>, std::__ndk1::__uninitialized_allocator_copy_impl[abi:ne180000]<char> >, std::__ndk1::__uninitialized_allocator_copy_impl[abi:ne180000]<char> > >&, std::__ndk1::basic_string<char, std::__ndk1::char_traits<char>, std::__ndk1::__uninitialized_allocator_copy_impl[abi:ne180000]<char> >*, std::__ndk1::allocator<std::__ndk1::pair<std::__ndk1::basic_string<char, std::__ndk1::char_traits<char>, std::__ndk1::__uninitialized_allocator_copy_impl[abi:ne180000]<char> >, std::__ndk1::__uninitialized_allocator_copy_impl[abi:ne180000]<char> > >, std::__ndk1::basic_string<char, std::__ndk1::char_traits<char>, std::__ndk1::__uninitialized_allocator_copy_impl[abi:ne180000]<char> >*)
FUNC 1c1b8 d8 0 std::__ndk1::vector<std::__ndk1::pair<std::__ndk1::basic_string<char, std::__ndk1::char_traits<char>, std::__ndk1::allocator<char> >, float>, std::__ndk1::allocator<std::__ndk1::pair<std::__ndk1::basic_string<char, std::__ndk1::char_traits<char>, std::__ndk1::allocator<char> >, float> > >::__init_with_size[abi:ne180000]<std::__ndk1::pair<std::__ndk1::basic_string<char, std::__ndk1::char_traits<char>, std::__ndk1::allocator<char> >, float>*, std::__ndk1::vector<std::__ndk1::pair<std::__ndk1::basic_string<char, std::__ndk1::char_traits<char>, std::__ndk1::allocator<char> >, float>, std::__ndk1::allocator<std::__ndk1::pair<std::__ndk1::basic_string<char, std::__ndk1::char_traits<char>, std::__ndk1::allocator<char> >, float> > >::__init_with_size[abi:ne180000]>(std::__ndk1::pair<std::__ndk1::basic_string<char, std::__ndk1::char_traits<char>, std::__ndk1::allocator<char> >, float>*, std::__ndk1::vector<std::__ndk1::pair<std::__ndk1::basic_string<char, std::__ndk1::char_traits<char>, std::__ndk1::allocator<char> >, float>, std::__ndk1::allocator<std::__ndk1::pair<std::__ndk1::basic_string<char, std::__ndk1::char_traits<char>, std::__ndk1::allocator<char> >, float> > >::__init_with_size[abi:ne180000], unsigned int)
FUNC 1c290 b74 0 EmojiPickPopup::setup(CCTextInputNode*, cocos2d::CCNode*)
FUNC 1ce04 48 0 cocos2d::CCSequence::create(cocos2d::CCFiniteTimeAction*, ...)
FUNC 1ce4c d8 0 EmojiPickPopup::onPickEmoji(cocos2d::CCObject*)
FUNC 1cf24 16 0 geode::cocos::CCArrayExt<EmojiNode*, EmojiNode>::~CCArrayExt()
FUNC 1cf3a 3e 0 std::__ndk1::vector<std::__ndk1::basic_string<char, std::__ndk1::char_traits<char>, std::__ndk1::allocator<char> >, std::__ndk1::allocator<std::__ndk1::basic_string<char, std::__ndk1::char_traits<char>, std::__ndk1::allocator<char> > > >::~vector[abi:ne180000]()
FUNC 1cf80 130 0 EmojiPickPopup::create(CCTextInputNode*, cocos2d::CCNode*)
FUNC 1d0b0 26 0 EmojiPickPopup::show()
FUNC 1d0d8 124 0 EmojiPickPopup::hide()
FUNC 1d1fc a 0 EmojiPickPopup::remove(float)
FUNC 1d206 a 0 EmojiPickPopup::keyDown(cocos2d::enumKeyCodes)
FUNC 1d210 e 0 {virtual override thunk({offset(-276)}, EmojiPickPopup::keyDown(cocos2d::enumKeyCodes))}
FUNC 1d220 1d4 0 EmojiPickPopup::ccTouchBegan(cocos2d::CCTouch*, cocos2d::CCEvent*)
FUNC 1d3f4 8 0 {virtual override thunk({offset(-264)}, EmojiPickPopup::ccTouchBegan(cocos2d::CCTouch*, cocos2d::CCEvent*))}
FUNC 1d3fc 2 0 EmojiPickPopup::ccTouchMoved(cocos2d::CCTouch*, cocos2d::CCEvent*)
FUNC 1d3fe 2 0 {virtual override thunk({offset(-264)}, EmojiPickPopup::ccTouchMoved(cocos2d::CCTouch*, cocos2d::CCEvent*))}
FUNC 1d400 2 0 EmojiPickPopup::ccTouchEnded(cocos2d::CCTouch*, cocos2d::CCEvent*)
FUNC 1d402 2 0 {virtual override thunk({offset(-264)}, EmojiPickPopup::ccTouchEnded(cocos2d::CCTouch*, cocos2d::CCEvent*))}
FUNC 1d404 2 0 EmojiPickPopup::ccTouchCancelled(cocos2d::CCTouch*, cocos2d::CCEvent*)
FUNC 1d406 2 0 {virtual override thunk({offset(-264)}, EmojiPickPopup::ccTouchCancelled(cocos2d::CCTouch*, cocos2d::CCEvent*))}
FUNC 1d408 5c 0 geode::Popup<CCTextInputNode*, cocos2d::CCNode*>::~Popup()
FUNC 1d464 60 0 EmojiPickPopup::~EmojiPickPopup()
FUNC 1d4c4 20 0 geode::Popup<CCTextInputNode*, cocos2d::CCNode*>::registerWithTouchDispatcher()
FUNC 1d4e4 2 0 cocos2d::CCLayerRGBA::setOpacityModifyRGB(bool)
FUNC 1d4e6 4 0 cocos2d::CCLayerRGBA::isOpacityModifyRGB()
FUNC 1d4ec e4 0 geode::Popup<CCTextInputNode*, cocos2d::CCNode*>::onClose(cocos2d::CCObject*)
FUNC 1d5d0 60 0 {virtual override thunk({offset(-264)}, EmojiPickPopup::~EmojiPickPopup())}
FUNC 1d630 64 0 {virtual override thunk({offset(-264)}, EmojiPickPopup::~EmojiPickPopup())}
FUNC 1d694 2 0 {virtual override thunk({offset(-316)}, cocos2d::CCLayerRGBA::setOpacityModifyRGB(bool))}
FUNC 1d696 4 0 {virtual override thunk({offset(-316)}, cocos2d::CCLayerRGBA::isOpacityModifyRGB())}
FUNC 1d69c 164 0 std::__ndk1::vector<std::__ndk1::basic_string<char, std::__ndk1::char_traits<char>, std::__ndk1::allocator<char> >, std::__ndk1::allocator<std::__ndk1::basic_string<char, std::__ndk1::char_traits<char>, std::__ndk1::allocator<char> > > >::__push_back_slow_path<std::__ndk1::basic_string<char, std::__ndk1::char_traits<char>, std::__ndk1::allocator<char> > const&>(std::__ndk1::basic_string<char, std::__ndk1::char_traits<char>, std::__ndk1::allocator<char> > const&)
FUNC 1d800 3c 0 std::__ndk1::__split_buffer<std::__ndk1::basic_string<char, std::__ndk1::char_traits<char>, std::__ndk1::allocator<char> >, std::__ndk1::allocator<std::__ndk1::basic_string<char, std::__ndk1::char_traits<char>, std::__ndk1::allocator<char> > >&>::~__split_buffer()
FUNC 1d83c 10 0 std::__ndk1::vector<std::__ndk1::basic_string<char, std::__ndk1::char_traits<char>, std::__ndk1::allocator<char> >, std::__ndk1::allocator<std::__ndk1::basic_string<char, std::__ndk1::char_traits<char>, std::__ndk1::allocator<char> > > >::__throw_length_error[abi:ne180000]() const
FUNC 1d84c 2 0 geode::Popup<CCTextInputNode*, cocos2d::CCNode*>::~Popup()
FUNC 1d84e 18 0 geode::Popup<CCTextInputNode*, cocos2d::CCNode*>::keyDown(cocos2d::enumKeyCodes)
FUNC 1d868 60 0 {virtual override thunk({offset(-264)}, geode::Popup<CCTextInputNode*, cocos2d::CCNode*>::~Popup())}
FUNC 1d8c8 2 0 {virtual override thunk({offset(-264)}, geode::Popup<CCTextInputNode*, cocos2d::CCNode*>::~Popup())}
FUNC 1d8ca 1c 0 {virtual override thunk({offset(-276)}, geode::Popup<CCTextInputNode*, cocos2d::CCNode*>::keyDown(cocos2d::enumKeyCodes))}
FUNC 1d8e8 8c 0 geode::cast::traverseTypeinfoFor(void*, geode::cast::ClassTypeinfoType const*, char const*)
FUNC 1d974 13c 0 fmt::v11::detail::value<fmt::v11::context>::format_custom_arg<gd::string, fmt::v11::formatter<gd::string, char, void> >(void*, fmt::v11::basic_format_parse_context<char>&, fmt::v11::context&)
FUNC 1dab0 468 0 fmt::v11::detail::parse_format_specs<char>(char const*, char const*, fmt::v11::detail::dynamic_format_specs<char>&, fmt::v11::basic_format_parse_context<char>&, fmt::v11::detail::type)
FUNC 1df18 10c 0 fmt::v11::detail::parse_dynamic_spec<char>(char const*, char const*, int&, fmt::v11::detail::arg_ref<char>&, fmt::v11::basic_format_parse_context<char>&)
FUNC 1e024 114 0 fmt::v11::detail::do_parse_arg_id<char, fmt::v11::detail::dynamic_spec_id_handler<char>&>(char const*, char const*, fmt::v11::detail::dynamic_spec_id_handler<char>&)
FUNC 1e138 bc 0 fmt::v11::detail::handle_dynamic_spec<fmt::v11::detail::width_checker, fmt::v11::context>(int&, fmt::v11::detail::arg_ref<fmt::v11::context::char_type>, fmt::v11::context&)
FUNC 1e1f4 bc 0 fmt::v11::detail::handle_dynamic_spec<fmt::v11::detail::precision_checker, fmt::v11::context>(int&, fmt::v11::detail::arg_ref<fmt::v11::context::char_type>, fmt::v11::context&)
FUNC 1e2b0 16c 0 fmt::v11::detail::write<char, fmt::v11::basic_appender<char> >(fmt::v11::basic_appender<char>, fmt::v11::basic_string_view<char>, fmt::v11::format_specs const&)
FUNC 1e41c 118 0 fmt::v11::detail::write_escaped_string<char, fmt::v11::detail::counting_iterator>(fmt::v11::detail::counting_iterator, fmt::v11::basic_string_view<char>)
FUNC 1e534 120 0 fmt::v11::detail::write_padded<char, (fmt::v11::align::type)1, fmt::v11::basic_appender<char>, fmt::v11::detail::write<char, fmt::v11::basic_appender<char> >(fmt::v11::basic_appender<char>, fmt::v11::basic_string_view<char>, fmt::v11::format_specs const&)::{lambda(fmt::v11::basic_appender<char>)#1}>(fmt::v11::basic_appender<char>, fmt::v11::format_specs const&, unsigned int, unsigned int, fmt::v11::detail::write<char, fmt::v11::basic_appender<char> >(fmt::v11::basic_appender<char>, fmt::v11::basic_string_view<char>, fmt::v11::format_specs const&)::{lambda(fmt::v11::basic_appender<char>&&)#1})
FUNC 1e654 2c4 0 fmt::v11::detail::for_each_codepoint<fmt::v11::detail::code_point_index(fmt::v11::basic_string_view<char>, unsigned int)::{lambda(unsigned int, fmt::v11::basic_string_view<char>)#1}>(fmt::v11::basic_string_view<char>, fmt::v11::detail::code_point_index(fmt::v11::basic_string_view<char>, unsigned int)::{lambda(unsigned int, fmt::v11::basic_string_view<char>)#1})
FUNC 1e918 10c 0 fmt::v11::detail::write_escaped_cp<fmt::v11::detail::counting_iterator, char>(fmt::v11::detail::counting_iterator, fmt::v11::detail::find_escape_result<char> const&)
FUNC 1ea24 124 0 fmt::v11::detail::for_each_codepoint<fmt::v11::detail::find_escape(char const*, char const*)::{lambda(unsigned int, fmt::v11::basic_string_view<char>)#1}>(fmt::v11::basic_string_view<char>, fmt::v11::detail::find_escape(char const*, char const*)::{lambda(unsigned int, fmt::v11::basic_string_view<char>)#1})::{lambda(char const*, char const*)#1}::operator()(char const*, char const*) const
FUNC 1eb50 1e4 0 fmt::v11::detail::for_each_codepoint<fmt::v11::detail::compute_width(fmt::v11::basic_string_view<char>)::count_code_points>(fmt::v11::basic_string_view<char>, fmt::v11::detail::compute_width(fmt::v11::basic_string_view<char>)::count_code_points)::{lambda(char const*, char const*)#1}::operator()(char const*, char const*) const
FUNC 1ed34 fa 0 fmt::v11::detail::fill<char, fmt::v11::basic_appender<char> >(fmt::v11::basic_appender<char>, unsigned int, fmt::v11::detail::fill_t const&)
FUNC 1ee30 1e4 0 fmt::v11::detail::write_escaped_string<char, fmt::v11::basic_appender<char> >(fmt::v11::basic_appender<char>, fmt::v11::basic_string_view<char>)
FUNC 1f014 118 0 fmt::v11::detail::write_escaped_cp<fmt::v11::basic_appender<char>, char>(fmt::v11::basic_appender<char>, fmt::v11::detail::find_escape_result<char> const&)
FUNC 1f12c e0 0 fmt::v11::detail::write_codepoint<(unsigned int)2, char, fmt::v11::basic_appender<char> >(fmt::v11::basic_appender<char>, char, unsigned int)
FUNC 1f20c dc 0 fmt::v11::detail::write_codepoint<(unsigned int)4, char, fmt::v11::basic_appender<char> >(fmt::v11::basic_appender<char>, char, unsigned int)
FUNC 1f2e8 e0 0 fmt::v11::detail::write_codepoint<(unsigned int)8, char, fmt::v11::basic_appender<char> >(fmt::v11::basic_appender<char>, char, unsigned int)
FUNC 1f3c8 60 0 fmt::v11::detail::get_dynamic_spec<fmt::v11::detail::width_checker, fmt::v11::basic_format_arg<fmt::v11::context> >(fmt::v11::basic_format_arg<fmt::v11::context>)
FUNC 1f428 106 0 fmt::v11::basic_format_args<fmt::v11::context>::get<char>(fmt::v11::basic_string_view<char>) const
FUNC 1f530 60 0 fmt::v11::detail::get_dynamic_spec<fmt::v11::detail::precision_checker, fmt::v11::basic_format_arg<fmt::v11::context> >(fmt::v11::basic_format_arg<fmt::v11::context>)
FUNC 1f590 24c 0 geode::Popup<CCTextInputNode*, cocos2d::CCNode*>::initBase(float, float, CCTextInputNode*, cocos2d::CCNode*, char const*, cocos2d::CCRect, bool)
FUNC 1f7dc 44 0 geode::Popup<CCTextInputNode*, cocos2d::CCNode*>::CloseEvent::~CloseEvent()
FUNC 1f820 40 0 geode::Popup<CCTextInputNode*, cocos2d::CCNode*>::CloseEvent::~CloseEvent()
FUNC 1f860 10 0 std::__ndk1::__shared_ptr_emplace<geode::Popup<CCTextInputNode*, cocos2d::CCNode*>::CloseEvent::Impl, std::__ndk1::allocator<geode::Popup<CCTextInputNode*, cocos2d::CCNode*>::CloseEvent::Impl> >::~__shared_ptr_emplace()
FUNC 1f870 1c 0 std::__ndk1::__shared_ptr_emplace<geode::Popup<CCTextInputNode*, cocos2d::CCNode*>::CloseEvent::Impl, std::__ndk1::allocator<geode::Popup<CCTextInputNode*, cocos2d::CCNode*>::CloseEvent::Impl> >::~__shared_ptr_emplace()
FUNC 1f88c 2 0 std::__ndk1::__shared_ptr_emplace<geode::Popup<CCTextInputNode*, cocos2d::CCNode*>::CloseEvent::Impl, std::__ndk1::allocator<geode::Popup<CCTextInputNode*, cocos2d::CCNode*>::CloseEvent::Impl> >::__on_zero_shared()
FUNC 1f88e 4 0 std::__ndk1::__shared_ptr_emplace<geode::Popup<CCTextInputNode*, cocos2d::CCNode*>::CloseEvent::Impl, std::__ndk1::allocator<geode::Popup<CCTextInputNode*, cocos2d::CCNode*>::CloseEvent::Impl> >::__on_zero_shared_weak()
FUNC 1f892 2 0 std::__ndk1::__function::__base<void ()>::~__base()
FUNC 1f894 4 0 std::__ndk1::__function::__func<EmojiPickPopup::ccTouchBegan(cocos2d::CCTouch*, cocos2d::CCEvent*)::$_0, std::__ndk1::allocator<EmojiPickPopup::ccTouchBegan(cocos2d::CCTouch*, cocos2d::CCEvent*)::$_0>, void ()>::~__func()
FUNC 1f898 20 0 std::__ndk1::__function::__func<EmojiPickPopup::ccTouchBegan(cocos2d::CCTouch*, cocos2d::CCEvent*)::$_0, std::__ndk1::allocator<EmojiPickPopup::ccTouchBegan(cocos2d::CCTouch*, cocos2d::CCEvent*)::$_0>, void ()>::__clone() const
FUNC 1f8b8 18 0 std::__ndk1::__function::__func<EmojiPickPopup::ccTouchBegan(cocos2d::CCTouch*, cocos2d::CCEvent*)::$_0, std::__ndk1::allocator<EmojiPickPopup::ccTouchBegan(cocos2d::CCTouch*, cocos2d::CCEvent*)::$_0>, void ()>::__clone(std::__ndk1::__function::__base<void ()>*) const
FUNC 1f8d0 2 0 std::__ndk1::__function::__func<EmojiPickPopup::ccTouchBegan(cocos2d::CCTouch*, cocos2d::CCEvent*)::$_0, std::__ndk1::allocator<EmojiPickPopup::ccTouchBegan(cocos2d::CCTouch*, cocos2d::CCEvent*)::$_0>, void ()>::destroy()
FUNC 1f8d2 4 0 std::__ndk1::__function::__func<EmojiPickPopup::ccTouchBegan(cocos2d::CCTouch*, cocos2d::CCEvent*)::$_0, std::__ndk1::allocator<EmojiPickPopup::ccTouchBegan(cocos2d::CCTouch*, cocos2d::CCEvent*)::$_0>, void ()>::destroy_deallocate()
FUNC 1f8d6 12 0 std::__ndk1::__function::__func<EmojiPickPopup::ccTouchBegan(cocos2d::CCTouch*, cocos2d::CCEvent*)::$_0, std::__ndk1::allocator<EmojiPickPopup::ccTouchBegan(cocos2d::CCTouch*, cocos2d::CCEvent*)::$_0>, void ()>::operator()()
FUNC 1f8e8 18 0 std::__ndk1::__function::__func<EmojiPickPopup::ccTouchBegan(cocos2d::CCTouch*, cocos2d::CCEvent*)::$_0, std::__ndk1::allocator<EmojiPickPopup::ccTouchBegan(cocos2d::CCTouch*, cocos2d::CCEvent*)::$_0>, void ()>::target(std::type_info const&) const
FUNC 1f900 c 0 std::__ndk1::__function::__func<EmojiPickPopup::ccTouchBegan(cocos2d::CCTouch*, cocos2d::CCEvent*)::$_0, std::__ndk1::allocator<EmojiPickPopup::ccTouchBegan(cocos2d::CCTouch*, cocos2d::CCEvent*)::$_0>, void ()>::target_type() const
FUNC 1f90c 2d0 0 __cxx_global_var_init
FUNC 1fbdc 20 0 geode::modifier::ModifyBase<geode::modifier::ModifyDerive<hook8<(anonymous namespace)::hook8Parent>, CommentCell> >::~ModifyBase()
FUNC 1fc00 320 0 geode::modifier::ModifyDerive<hook8<(anonymous namespace)::hook8Parent>, CommentCell>::apply()
FUNC 1ff20 3a 0 std::__ndk1::shared_ptr<geode::Hook>::~shared_ptr[abi:ne180000]()
FUNC 1ff5c 60 0 geode::impl::ResultData<geode::Hook*, std::__ndk1::basic_string<char, std::__ndk1::char_traits<char>, std::__ndk1::allocator<char> > >::~ResultData()
FUNC 1ffbc 2 0 geode::modifier::ModifyBase<geode::modifier::ModifyDerive<hook8<(anonymous namespace)::hook8Parent>, CommentCell> >::apply()
FUNC 1ffc0 f8 0 _ZN5geode15UnwrapExceptionC2IRPNS_4HookEQsr4implE18IsStringStreamableIT_EEENS_4impl5OkTagEOS5_
FUNC 200b8 34 0 std::__ndk1::__throw_bad_variant_access[abi:ne180000]()
FUNC 200ec d8 0 std::__ndk1::basic_stringstream<char, std::__ndk1::char_traits<char>, std::__ndk1::allocator<char> >::basic_stringstream[abi:ne180000]()
FUNC 201c4 68 0 std::__ndk1::basic_stringstream<char, std::__ndk1::char_traits<char>, std::__ndk1::allocator<char> >::~basic_stringstream()
FUNC 2022c 10 0 geode::UnwrapException::~UnwrapException()
FUNC 2023c 108 0 std::__ndk1::__put_character_sequence[abi:ne180000]<char, std::__ndk1::char_traits<char> >(std::__ndk1::basic_ostream<char, std::__ndk1::char_traits<char> >, std::__ndk1::basic_ostream const*, unsigned int)
FUNC 20344 110 0 std::__ndk1::__pad_and_output[abi:ne180000]<char, std::__ndk1::char_traits<char> >(std::__ndk1::char_traits<char>, std::__ndk1::ostreambuf_iterator const*, std::__ndk1::ostreambuf_iterator const, std::__ndk1::ostreambuf_iterator const, std::__ndk1::ios_base&, std::__ndk1::ostreambuf_iterator)
FUNC 20454 ce 0 std::__ndk1::basic_stringbuf<char, std::__ndk1::char_traits<char>, std::__ndk1::allocator<char> >::str[abi:ne180000]() &&
FUNC 20522 e0 0 std::__ndk1::basic_stringbuf<char, std::__ndk1::char_traits<char>, std::__ndk1::allocator<char> >::__init_buf_ptrs[abi:ne180000]()
FUNC 20602 2 0 std::__ndk1::__variant_detail::__visitation::__base::__dispatcher<(unsigned int)0>::__dispatch[abi:ne180000]<std::__ndk1::__variant_detail::__dtor<std::__ndk1::__variant_detail::__traits<geode::Hook*, std::__ndk1::basic_string<char, std::__ndk1::char_traits<char>, std::__ndk1::allocator<char> > >, (std::__ndk1::__variant_detail::_Trait)1>::__destroy[abi:ne180000]()::{lambda(auto:1&)#1}, std::__ndk1::__variant_detail::__base<(std::__ndk1::__variant_detail::__traits<geode::Hook*, std::__ndk1::basic_string<char, std::__ndk1::char_traits<char>, std::__ndk1::allocator<char> > >)1, geode::Hook, std::__ndk1::allocator<char> >&>(std::__ndk1::__variant_detail::__dtor<std::__ndk1::__variant_detail::__traits<geode::Hook*, std::__ndk1::basic_string<char, std::__ndk1::char_traits<char>, std::__ndk1::allocator<char> > >, (std::__ndk1::__variant_detail::_Trait)1>, std::__ndk1::__variant_detail::__base<(std::__ndk1::__variant_detail::__traits<geode::Hook*, std::__ndk1::basic_string<char, std::__ndk1::char_traits<char>, std::__ndk1::allocator<char> > >)1, geode::Hook, std::__ndk1::allocator<char> >&)
FUNC 20604 e 0 std::__ndk1::__variant_detail::__visitation::__base::__dispatcher<(unsigned int)1>::__dispatch[abi:ne180000]<std::__ndk1::__variant_detail::__dtor<std::__ndk1::__variant_detail::__traits<geode::Hook*, std::__ndk1::basic_string<char, std::__ndk1::char_traits<char>, std::__ndk1::allocator<char> > >, (std::__ndk1::__variant_detail::_Trait)1>::__destroy[abi:ne180000]()::{lambda(auto:1&)#1}, std::__ndk1::__variant_detail::__base<(std::__ndk1::__variant_detail::__traits<geode::Hook*, std::__ndk1::basic_string<char, std::__ndk1::char_traits<char>, std::__ndk1::allocator<char> > >)1, geode::Hook, std::__ndk1::allocator<char> >&>(std::__ndk1::__variant_detail::__dtor<std::__ndk1::__variant_detail::__traits<geode::Hook*, std::__ndk1::basic_string<char, std::__ndk1::char_traits<char>, std::__ndk1::allocator<char> > >, (std::__ndk1::__variant_detail::_Trait)1>, std::__ndk1::__variant_detail::__base<(std::__ndk1::__variant_detail::__traits<geode::Hook*, std::__ndk1::basic_string<char, std::__ndk1::char_traits<char>, std::__ndk1::allocator<char> > >)1, geode::Hook, std::__ndk1::allocator<char> >&)
FUNC 20612 c0 0 std::__ndk1::__tree<std::__ndk1::__value_type<std::__ndk1::basic_string<char, std::__ndk1::char_traits<char>, std::__ndk1::allocator<char> >, std::__ndk1::shared_ptr<geode::Hook> >, std::__ndk1::__map_value_compare<std::__ndk1::basic_string<char, std::__ndk1::char_traits<char>, std::__ndk1::allocator<char> >, std::__ndk1::__value_type<std::__ndk1::basic_string<char, std::__ndk1::char_traits<char>, std::__ndk1::allocator<char> >, std::__ndk1::shared_ptr<geode::Hook> >, std::__ndk1::less<std::__ndk1::basic_string<char, std::__ndk1::char_traits<char>, std::__ndk1::allocator<char> > >, true>, std::__ndk1::allocator<std::__ndk1::__value_type<std::__ndk1::basic_string<char, std::__ndk1::char_traits<char>, std::__ndk1::allocator<char> >, std::__ndk1::shared_ptr<geode::Hook> > > >::find<std::__ndk1::basic_string<char, std::__ndk1::char_traits<char>, std::__ndk1::allocator<char> > >(std::__ndk1::basic_string<char, std::__ndk1::char_traits<char>, std::__ndk1::allocator<char> > const&)
FUNC 206d2 82 0 std::__ndk1::__tree<std::__ndk1::__value_type<std::__ndk1::basic_string<char, std::__ndk1::char_traits<char>, std::__ndk1::allocator<char> >, std::__ndk1::shared_ptr<geode::Hook> >, std::__ndk1::__map_value_compare<std::__ndk1::basic_string<char, std::__ndk1::char_traits<char>, std::__ndk1::allocator<char> >, std::__ndk1::__value_type<std::__ndk1::basic_string<char, std::__ndk1::char_traits<char>, std::__ndk1::allocator<char> >, std::__ndk1::shared_ptr<geode::Hook> >, std::__ndk1::less<std::__ndk1::basic_string<char, std::__ndk1::char_traits<char>, std::__ndk1::allocator<char> > >, true>, std::__ndk1::allocator<std::__ndk1::__value_type<std::__ndk1::basic_string<char, std::__ndk1::char_traits<char>, std::__ndk1::allocator<char> >, std::__ndk1::shared_ptr<geode::Hook> > > >::erase(std::__ndk1::__tree_const_iterator<std::__ndk1::__value_type<std::__ndk1::basic_string<char, std::__ndk1::char_traits<char>, std::__ndk1::allocator<char> >, std::__ndk1::shared_ptr<geode::Hook> >, std::__ndk1::__tree_node<std::__ndk1::__value_type<std::__ndk1::basic_string<char, std::__ndk1::char_traits<char>, std::__ndk1::allocator<char> >, std::__ndk1::shared_ptr<geode::Hook> >, void*>*, int>)
FUNC 20754 274 0 std::__ndk1::__tree_remove[abi:ne180000]<std::__ndk1::__tree_node_base<void*>*>(std::__ndk1::__tree_node_base<void*>*, std::__ndk1::__tree_node_base<void*>*)
FUNC 209c8 5e 0 std::__ndk1::__tree<std::__ndk1::__value_type<std::__ndk1::basic_string<char, std::__ndk1::char_traits<char>, std::__ndk1::allocator<char> >, std::__ndk1::shared_ptr<geode::Hook> >, std::__ndk1::__map_value_compare<std::__ndk1::basic_string<char, std::__ndk1::char_traits<char>, std::__ndk1::allocator<char> >, std::__ndk1::__value_type<std::__ndk1::basic_string<char, std::__ndk1::char_traits<char>, std::__ndk1::allocator<char> >, std::__ndk1::shared_ptr<geode::Hook> >, std::__ndk1::less<std::__ndk1::basic_string<char, std::__ndk1::char_traits<char>, std::__ndk1::allocator<char> > >, true>, std::__ndk1::allocator<std::__ndk1::__value_type<std::__ndk1::basic_string<char, std::__ndk1::char_traits<char>, std::__ndk1::allocator<char> >, std::__ndk1::shared_ptr<geode::Hook> > > >::destroy(std::__ndk1::__tree_node<std::__ndk1::__value_type<std::__ndk1::basic_string<char, std::__ndk1::char_traits<char>, std::__ndk1::allocator<char> >, std::__ndk1::shared_ptr<geode::Hook> >, void*>*)
FUNC 20a28 404 0 geode::modifier::AsStaticFunction_loadFromComment<hook8<(anonymous namespace)::hook8Parent>, void (hook8<(anonymous namespace)::hook8Parent>::*)(GJComment*)>::Impl<void (hook8<(anonymous namespace)::hook8Parent>::*)(GJComment*)>::function(hook8<(anonymous namespace)::hook8Parent>*, GJComment*)
FUNC 20e2c 3a 0 std::__ndk1::shared_ptr<tulip::hook::CallingConvention>::~shared_ptr[abi:ne180000]()
FUNC 20e66 46 0 tulip::hook::HandlerMetadata::~HandlerMetadata()
FUNC 20eac 118 0 geode::modifier::FieldIntermediate<hook8<(anonymous namespace)::hook8Parent>, CommentCell>::operator->()
FUNC 20fc4 1c0 0 geode::modifier::FieldContainer::getField(unsigned int)
FUNC 21184 ae 0 geode::modifier::FieldContainer::setField(unsigned int, unsigned int, std::__ndk1::function<void (void*)>)
FUNC 21232 2 0 geode::modifier::FieldIntermediate<hook8<(anonymous namespace)::hook8Parent>, CommentCell>::fieldDestructor(void*)
FUNC 21234 10 0 std::__ndk1::vector<void*, std::__ndk1::allocator<void*> >::__throw_length_error[abi:ne180000]() const
FUNC 21244 186 0 std::__ndk1::vector<std::__ndk1::function<void (void*)>, std::__ndk1::allocator<std::__ndk1::function<void (void*)> > >::__push_back_slow_path<std::__ndk1::function<void (void*)> >(std::__ndk1::function<void (void*)>&&)
FUNC 213cc 10 0 std::__ndk1::vector<std::__ndk1::function<void (void*)>, std::__ndk1::allocator<std::__ndk1::function<void (void*)> > >::__throw_length_error[abi:ne180000]() const
FUNC 213dc 10 0 std::__ndk1::vector<void*, std::__ndk1::allocator<void*> >::__throw_out_of_range[abi:ne180000]() const
FUNC 213ec 10 0 std::__ndk1::vector<std::__ndk1::function<void (void*)>, std::__ndk1::allocator<std::__ndk1::function<void (void*)> > >::__throw_out_of_range[abi:ne180000]() const
FUNC 213fc 2 0 std::__ndk1::__function::__base<void (void*)>::~__base()
FUNC 213fe 4 0 std::__ndk1::__function::__func<void (*)(void*), std::__ndk1::allocator<void (*)(void*)>, void (void*)>::~__func()
FUNC 21404 20 0 std::__ndk1::__function::__func<void (*)(void*), std::__ndk1::allocator<void (*)(void*)>, void (void*)>::__clone() const
FUNC 21424 14 0 std::__ndk1::__function::__func<void (*)(void*), std::__ndk1::allocator<void (*)(void*)>, void (void*)>::__clone(std::__ndk1::__function::__base<void (void*)>*) const
FUNC 21438 2 0 std::__ndk1::__function::__func<void (*)(void*), std::__ndk1::allocator<void (*)(void*)>, void (void*)>::destroy()
FUNC 2143a 4 0 std::__ndk1::__function::__func<void (*)(void*), std::__ndk1::allocator<void (*)(void*)>, void (void*)>::destroy_deallocate()
FUNC 2143e 8 0 std::__ndk1::__function::__func<void (*)(void*), std::__ndk1::allocator<void (*)(void*)>, void (void*)>::operator()(void*&&)
FUNC 21448 18 0 std::__ndk1::__function::__func<void (*)(void*), std::__ndk1::allocator<void (*)(void*)>, void (void*)>::target(std::type_info const&) const
FUNC 21460 c 0 std::__ndk1::__function::__func<void (*)(void*), std::__ndk1::allocator<void (*)(void*)>, void (void*)>::target_type() const
FUNC 2146c ba 0 std::__ndk1::__tree<std::__ndk1::__value_type<std::__ndk1::basic_string<char, std::__ndk1::char_traits<char>, std::__ndk1::allocator<char> >, std::__ndk1::shared_ptr<geode::Hook> >, std::__ndk1::__map_value_compare<std::__ndk1::basic_string<char, std::__ndk1::char_traits<char>, std::__ndk1::allocator<char> >, std::__ndk1::__value_type<std::__ndk1::basic_string<char, std::__ndk1::char_traits<char>, std::__ndk1::allocator<char> >, std::__ndk1::shared_ptr<geode::Hook> >, std::__ndk1::less<std::__ndk1::basic_string<char, std::__ndk1::char_traits<char>, std::__ndk1::allocator<char> > >, true>, std::__ndk1::allocator<std::__ndk1::__value_type<std::__ndk1::basic_string<char, std::__ndk1::char_traits<char>, std::__ndk1::allocator<char> >, std::__ndk1::shared_ptr<geode::Hook> > > >::__find_equal<std::__ndk1::basic_string<char, std::__ndk1::char_traits<char>, std::__ndk1::allocator<char> > >(std::__ndk1::__tree_end_node<std::__ndk1::__tree_node_base<void*>*>*&, std::__ndk1::basic_string<char, std::__ndk1::char_traits<char>, std::__ndk1::allocator<char> > const&)
FUNC 21526 14a 0 std::__ndk1::__tree_balance_after_insert[abi:ne180000]<std::__ndk1::__tree_node_base<void*>*>(std::__ndk1::__tree_node_base<void*>*, std::__ndk1::__tree_node_base<void*>*)
FUNC 21670 2d0 0 __cxx_global_var_init
FUNC 21940 20 0 geode::modifier::ModifyBase<geode::modifier::ModifyDerive<hook9<(anonymous namespace)::hook9Parent>, cocos2d::CCLayerColor> >::~ModifyBase()
FUNC 21960 2d0 0 geode::modifier::ModifyDerive<hook9<(anonymous namespace)::hook9Parent>, cocos2d::CCLayerColor>::apply()
FUNC 21c30 2 0 geode::modifier::ModifyBase<geode::modifier::ModifyDerive<hook9<(anonymous namespace)::hook9Parent>, cocos2d::CCLayerColor> >::apply()
FUNC 21c34 7c 0 geode::addresser::getVirtual<bool (cocos2d::CCLayerColor::*)()>(bool (cocos2d::CCLayerColor::*)())
FUNC 21cb0 b4 0 geode::modifier::AsStaticFunction_init<hook9<(anonymous namespace)::hook9Parent>, bool (hook9<(anonymous namespace)::hook9Parent>::*)()>::Impl<bool (hook9<(anonymous namespace)::hook9Parent>::*)()>::function(hook9<(anonymous namespace)::hook9Parent>*)
FUNC 21d64 6c 0 cocos2d::CCLayerColor::CCLayerColor(geode::ZeroConstructorType)
FUNC 21dd0 4 0 std::__ndk1::__function::__func<hook9<(anonymous namespace)::hook9Parent>::init()::{lambda()#1}, std::__ndk1::allocator<hook9<(anonymous namespace)::hook9Parent>::init()::{lambda()#1}>, void ()>::~__func()
FUNC 21dd4 20 0 std::__ndk1::__function::__func<hook9<(anonymous namespace)::hook9Parent>::init()::{lambda()#1}, std::__ndk1::allocator<hook9<(anonymous namespace)::hook9Parent>::init()::{lambda()#1}>, void ()>::__clone() const
FUNC 21df4 14 0 std::__ndk1::__function::__func<hook9<(anonymous namespace)::hook9Parent>::init()::{lambda()#1}, std::__ndk1::allocator<hook9<(anonymous namespace)::hook9Parent>::init()::{lambda()#1}>, void ()>::__clone(std::__ndk1::__function::__base<void ()>*) const
FUNC 21e08 2 0 std::__ndk1::__function::__func<hook9<(anonymous namespace)::hook9Parent>::init()::{lambda()#1}, std::__ndk1::allocator<hook9<(anonymous namespace)::hook9Parent>::init()::{lambda()#1}>, void ()>::destroy()
FUNC 21e0a 4 0 std::__ndk1::__function::__func<hook9<(anonymous namespace)::hook9Parent>::init()::{lambda()#1}, std::__ndk1::allocator<hook9<(anonymous namespace)::hook9Parent>::init()::{lambda()#1}>, void ()>::destroy_deallocate()
FUNC 21e10 154 0 std::__ndk1::__function::__func<hook9<(anonymous namespace)::hook9Parent>::init()::{lambda()#1}, std::__ndk1::allocator<hook9<(anonymous namespace)::hook9Parent>::init()::{lambda()#1}>, void ()>::operator()()
FUNC 21f64 18 0 std::__ndk1::__function::__func<hook9<(anonymous namespace)::hook9Parent>::init()::{lambda()#1}, std::__ndk1::allocator<hook9<(anonymous namespace)::hook9Parent>::init()::{lambda()#1}>, void ()>::target(std::type_info const&) const
FUNC 21f7c c 0 std::__ndk1::__function::__func<hook9<(anonymous namespace)::hook9Parent>::init()::{lambda()#1}, std::__ndk1::allocator<hook9<(anonymous namespace)::hook9Parent>::init()::{lambda()#1}>, void ()>::target_type() const
FUNC 21f88 2f4 0 __cxx_global_var_init
FUNC 2227c 20 0 geode::modifier::ModifyBase<geode::modifier::ModifyDerive<GlobedChatListPopupExt, FLAlertLayer> >::~ModifyBase()
FUNC 2229c 2cc 0 geode::modifier::ModifyDerive<GlobedChatListPopupExt, FLAlertLayer>::apply()
FUNC 22568 2 0 geode::modifier::ModifyBase<geode::modifier::ModifyDerive<GlobedChatListPopupExt, FLAlertLayer> >::apply()
FUNC 2256a 44 0 geode::addresser::getVirtual<void (FLAlertLayer::*)()>(void (FLAlertLayer::*)())
FUNC 225b0 200 0 geode::modifier::AsStaticFunction_show<GlobedChatListPopupExt, void (GlobedChatListPopupExt::*)()>::Impl<void (GlobedChatListPopupExt::*)()>::function(GlobedChatListPopupExt*)
FUNC 227b0 6c 0 _ZN5geode9addresser9Addresser14cachedInstanceI12FLAlertLayerEEPT_vQ18HasZeroConstructorIS4_E
FUNC 2281c 6c 0 FLAlertLayer::FLAlertLayer(geode::ZeroConstructorType)
FUNC 22888 30 0 GlobedChatListPopupExt::onPickEmojis(cocos2d::CCObject*)
FUNC 228b8 118 0 geode::modifier::FieldIntermediate<GlobedChatListPopupExt, FLAlertLayer>::self()
FUNC 229d0 2 0 geode::modifier::FieldIntermediate<GlobedChatListPopupExt, FLAlertLayer>::fieldDestructor(void*)
FUNC 229d4 2d0 0 __cxx_global_var_init
FUNC 22ca4 20 0 geode::modifier::ModifyBase<geode::modifier::ModifyDerive<hook21<(anonymous namespace)::hook21Parent>, cocos2d::extension::CCScale9Sprite> >::~ModifyBase()
FUNC 22cc4 2d8 0 geode::modifier::ModifyDerive<hook21<(anonymous namespace)::hook21Parent>, cocos2d::extension::CCScale9Sprite>::apply()
FUNC 22f9c 2 0 geode::modifier::ModifyBase<geode::modifier::ModifyDerive<hook21<(anonymous namespace)::hook21Parent>, cocos2d::extension::CCScale9Sprite> >::apply()
FUNC 22fa0 7c 0 geode::addresser::getVirtual<bool (cocos2d::extension::CCScale9Sprite::*)()>(bool (cocos2d::extension::CCScale9Sprite::*)())
FUNC 2301c b8 0 geode::modifier::AsStaticFunction_init<hook21<(anonymous namespace)::hook21Parent>, bool (hook21<(anonymous namespace)::hook21Parent>::*)()>::Impl<bool (hook21<(anonymous namespace)::hook21Parent>::*)()>::function(hook21<(anonymous namespace)::hook21Parent>*)
FUNC 230d4 60 0 cocos2d::extension::CCScale9Sprite::CCScale9Sprite(geode::ZeroConstructorType)
FUNC 23134 4 0 std::__ndk1::__function::__func<hook21<(anonymous namespace)::hook21Parent>::init()::{lambda()#1}, std::__ndk1::allocator<hook21<(anonymous namespace)::hook21Parent>::init()::{lambda()#1}>, void ()>::~__func()
FUNC 23138 20 0 std::__ndk1::__function::__func<hook21<(anonymous namespace)::hook21Parent>::init()::{lambda()#1}, std::__ndk1::allocator<hook21<(anonymous namespace)::hook21Parent>::init()::{lambda()#1}>, void ()>::__clone() const
FUNC 23158 18 0 std::__ndk1::__function::__func<hook21<(anonymous namespace)::hook21Parent>::init()::{lambda()#1}, std::__ndk1::allocator<hook21<(anonymous namespace)::hook21Parent>::init()::{lambda()#1}>, void ()>::__clone(std::__ndk1::__function::__base<void ()>*) const
FUNC 23170 2 0 std::__ndk1::__function::__func<hook21<(anonymous namespace)::hook21Parent>::init()::{lambda()#1}, std::__ndk1::allocator<hook21<(anonymous namespace)::hook21Parent>::init()::{lambda()#1}>, void ()>::destroy()
FUNC 23172 4 0 std::__ndk1::__function::__func<hook21<(anonymous namespace)::hook21Parent>::init()::{lambda()#1}, std::__ndk1::allocator<hook21<(anonymous namespace)::hook21Parent>::init()::{lambda()#1}>, void ()>::destroy_deallocate()
FUNC 23178 2a4 0 std::__ndk1::__function::__func<hook21<(anonymous namespace)::hook21Parent>::init()::{lambda()#1}, std::__ndk1::allocator<hook21<(anonymous namespace)::hook21Parent>::init()::{lambda()#1}>, void ()>::operator()()
FUNC 2341c 18 0 std::__ndk1::__function::__func<hook21<(anonymous namespace)::hook21Parent>::init()::{lambda()#1}, std::__ndk1::allocator<hook21<(anonymous namespace)::hook21Parent>::init()::{lambda()#1}>, void ()>::target(std::type_info const&) const
FUNC 23434 c 0 std::__ndk1::__function::__func<hook21<(anonymous namespace)::hook21Parent>::init()::{lambda()#1}, std::__ndk1::allocator<hook21<(anonymous namespace)::hook21Parent>::init()::{lambda()#1}>, void ()>::target_type() const
FUNC 23440 2f4 0 __cxx_global_var_init
FUNC 23734 20 0 geode::modifier::ModifyBase<geode::modifier::ModifyDerive<CommentPopupExt, FLAlertLayer> >::~ModifyBase()
FUNC 23754 2cc 0 geode::modifier::ModifyDerive<CommentPopupExt, FLAlertLayer>::apply()
FUNC 23a20 2 0 geode::modifier::ModifyBase<geode::modifier::ModifyDerive<CommentPopupExt, FLAlertLayer> >::apply()
FUNC 23a24 114 0 geode::modifier::AsStaticFunction_show<CommentPopupExt, void (CommentPopupExt::*)()>::Impl<void (CommentPopupExt::*)()>::function(CommentPopupExt*)
FUNC 23b38 e0 0 cocos2d::CCNode::getChildByType<cocos2d::CCMenu, cocos2d::CCMenu>(int)
FUNC 23c18 e0 0 cocos2d::CCNode::getChildByType<CCTextInputNode, CCTextInputNode>(int)
FUNC 23cf8 48 0 CommentPopupExt::onEmojis(cocos2d::CCObject*)
FUNC 23d40 118 0 geode::modifier::FieldIntermediate<CommentPopupExt, FLAlertLayer>::self()
FUNC 23e58 2 0 geode::modifier::FieldIntermediate<CommentPopupExt, FLAlertLayer>::fieldDestructor(void*)
FUNC 23e5c 2f4 0 __cxx_global_var_init
FUNC 24150 20 0 geode::modifier::ModifyBase<geode::modifier::ModifyDerive<ShareCommentLayerExt, ShareCommentLayer> >::~ModifyBase()
FUNC 24170 3a8 0 geode::modifier::ModifyDerive<ShareCommentLayerExt, ShareCommentLayer>::apply()
FUNC 24518 2 0 geode::modifier::ModifyBase<geode::modifier::ModifyDerive<ShareCommentLayerExt, ShareCommentLayer> >::apply()
FUNC 2451c 150 0 geode::modifier::AsStaticFunction_init<ShareCommentLayerExt, bool (ShareCommentLayerExt::*)(gd::string, int, CommentType, int, gd::string)>::Impl<bool (ShareCommentLayerExt::*)(gd::string, int, CommentType, int, gd::string)>::function(ShareCommentLayerExt*, gd::string, int, CommentType, int, gd::string)
FUNC 2466c 10 0 std::__ndk1::vector<tulip::hook::AbstractType, std::__ndk1::allocator<tulip::hook::AbstractType> >::__throw_length_error[abi:ne180000]() const
FUNC 2467c 48 0 ShareCommentLayerExt::onEmojis(cocos2d::CCObject*)
FUNC 246c4 11c 0 geode::modifier::FieldIntermediate<ShareCommentLayerExt, ShareCommentLayer>::self()
FUNC 247e0 2 0 geode::modifier::FieldIntermediate<ShareCommentLayerExt, ShareCommentLayer>::fieldDestructor(void*)
FUNC 247e4 a8 0 TextAreaExt::create(char const*, char const*)
FUNC 2488c 3c 0 std::__ndk1::vector<LabelPart, std::__ndk1::allocator<LabelPart> >::~vector[abi:ne180000]()
FUNC 248c8 c 0 TextAreaExt::setLineHeight(float)
FUNC 248d4 6 0 TextAreaExt::getLineHeight()
FUNC 248dc 7a4 0 TextAreaExt::updateLabel()
FUNC 25080 a 0 TextAreaExt::setString(char const*)
FUNC 2508a 16 0 {virtual override thunk({offset(-288)}, TextAreaExt::setString(char const*))}
FUNC 250a0 12 0 TextAreaExt::setString(char const*, bool)
FUNC 250b2 6 0 TextAreaExt::getString()
FUNC 250b8 4 0 {virtual override thunk({offset(-288)}, TextAreaExt::getString())}
FUNC 250bc 2 0 TextAreaExt::setCString(char const*)
FUNC 250be 4 0 TextAreaExt::setAnchorPoint(cocos2d::CCPoint const&)
FUNC 250c2 c 0 TextAreaExt::setAlignment(cocos2d::CCTextAlignment)
FUNC 250ce 2 0 TextAreaExt::setWidth(float)
FUNC 250d0 2 0 TextAreaExt::setLineBreakWithoutSpace(bool)
FUNC 250d2 4 0 TextAreaExt::setScale(float)
FUNC 250d6 4 0 TextAreaExt::setScaleX(float)
FUNC 250da 4 0 TextAreaExt::setScaleY(float)
FUNC 250de 4 0 TextAreaExt::isOpacityModifyRGB()
FUNC 250e2 4 0 {virtual override thunk({offset(-292)}, TextAreaExt::isOpacityModifyRGB())}
FUNC 250e6 2 0 TextAreaExt::setOpacityModifyRGB(bool)
FUNC 250e8 2 0 {virtual override thunk({offset(-292)}, TextAreaExt::setOpacityModifyRGB(bool))}
FUNC 250ea 6 0 TextAreaExt::getOpacity()
FUNC 250f0 6 0 {virtual override thunk({offset(-292)}, TextAreaExt::getOpacity())}
FUNC 250f6 6 0 TextAreaExt::getDisplayedOpacity()
FUNC 250fc 6 0 {virtual override thunk({offset(-292)}, TextAreaExt::getDisplayedOpacity())}
FUNC 25102 c 0 TextAreaExt::setOpacity(unsigned char)
FUNC 2510e 18 0 {virtual override thunk({offset(-292)}, TextAreaExt::setOpacity(unsigned char))}
FUNC 25126 c 0 TextAreaExt::updateDisplayedOpacity(unsigned char)
FUNC 25132 18 0 {virtual override thunk({offset(-292)}, TextAreaExt::updateDisplayedOpacity(unsigned char))}
FUNC 2514a 4 0 TextAreaExt::isCascadeOpacityEnabled()
FUNC 2514e 4 0 {virtual override thunk({offset(-292)}, TextAreaExt::isCascadeOpacityEnabled())}
FUNC 25152 2 0 TextAreaExt::setCascadeOpacityEnabled(bool)
FUNC 25154 2 0 {virtual override thunk({offset(-292)}, TextAreaExt::setCascadeOpacityEnabled(bool))}
FUNC 25156 6 0 TextAreaExt::getColor()
FUNC 2515c 4 0 {virtual override thunk({offset(-292)}, TextAreaExt::getColor())}
FUNC 25160 6 0 TextAreaExt::getDisplayedColor()
FUNC 25166 4 0 {virtual override thunk({offset(-292)}, TextAreaExt::getDisplayedColor())}
FUNC 2516a 14 0 TextAreaExt::setColor(cocos2d::_ccColor3B const&)
FUNC 2517e 20 0 {virtual override thunk({offset(-292)}, TextAreaExt::setColor(cocos2d::_ccColor3B const&))}
FUNC 2519e 14 0 TextAreaExt::updateDisplayedColor(cocos2d::_ccColor3B const&)
FUNC 251b2 20 0 {virtual override thunk({offset(-292)}, TextAreaExt::updateDisplayedColor(cocos2d::_ccColor3B const&))}
FUNC 251d2 4 0 TextAreaExt::isCascadeColorEnabled()
FUNC 251d6 4 0 {virtual override thunk({offset(-292)}, TextAreaExt::isCascadeColorEnabled())}
FUNC 251da 2 0 TextAreaExt::setCascadeColorEnabled(bool)
FUNC 251dc 2 0 {virtual override thunk({offset(-292)}, TextAreaExt::setCascadeColorEnabled(bool))}
FUNC 251de 4 0 TextAreaExt::addChild(cocos2d::CCNode*)
FUNC 251e2 4 0 TextAreaExt::addChild(cocos2d::CCNode*, int)
FUNC 251e6 4 0 TextAreaExt::addChild(cocos2d::CCNode*, int, int)
FUNC 251ea 4 0 TextAreaExt::removeChild(cocos2d::CCNode*, bool)
FUNC 251ee 4 0 TextAreaExt::removeAllChildrenWithCleanup(bool)
FUNC 251f2 4 0 TextAreaExt::sortAllChildren()
FUNC 251f6 18 0 TextAreaExt::setContentSize(cocos2d::CCSize const&)
FUNC 2520e 4 0 TextAreaExt::visit()
FUNC 25212 4 0 TextAreaExt::draw()
FUNC 25218 3c 0 TextAreaExt::~TextAreaExt()
FUNC 25254 40 0 TextAreaExt::~TextAreaExt()
FUNC 25294 10 0 std::__ndk1::vector<CCLabelBMFontExt*, std::__ndk1::allocator<CCLabelBMFontExt*> >::__throw_length_error[abi:ne180000]() const
FUNC 252a4 ec 0 std::__ndk1::vector<LabelPart, std::__ndk1::allocator<LabelPart> >::__init_with_size[abi:ne180000]<LabelPart*, std::__ndk1::vector<LabelPart, std::__ndk1::allocator<LabelPart> >::__init_with_size[abi:ne180000]>(LabelPart*, std::__ndk1::vector<LabelPart, std::__ndk1::allocator<LabelPart> >::__init_with_size[abi:ne180000], unsigned int)
FUNC 25390 4c 0 std::__ndk1::__exception_guard_exceptions<std::__ndk1::vector<LabelPart, std::__ndk1::allocator<LabelPart> >::__destroy_vector>::~__exception_guard_exceptions[abi:ne180000]()
FUNC 253dc 3a 0 std::__ndk1::__exception_guard_exceptions<std::__ndk1::_AllocatorDestroyRangeReverse<std::__ndk1::allocator<LabelPart>, LabelPart*> >::~__exception_guard_exceptions[abi:ne180000]()
FUNC 25418 20 0 geodeImplicitEntry
FUNC 25438 28 0 std::__ndk1::unordered_map<void*, bool, std::__ndk1::hash<void*>, std::__ndk1::equal_to<void*>, std::__ndk1::allocator<std::__ndk1::pair<void* const, bool> > >::~unordered_map[abi:ne180000]()
FUNC 25460 cc 0 wrapFunction(unsigned int, tulip::hook::WrapperMetadata const&)
FUNC 2552c 48 0 geode::impl::ResultData<void*, std::__ndk1::basic_string<char, std::__ndk1::char_traits<char>, std::__ndk1::allocator<char> > >::unwrapErr() &
FUNC 25574 60 0 geode::impl::ResultData<void*, std::__ndk1::basic_string<char, std::__ndk1::char_traits<char>, std::__ndk1::allocator<char> > >::~ResultData()
FUNC 255d4 46 0 tulip::hook::WrapperMetadata::~WrapperMetadata()
FUNC 2561a 10 0 cocos2d::CCObject::~CCObject()
FUNC 2562a 10 0 cocos2d::CCNode::~CCNode()
FUNC 2563a 10 0 cocos2d::CCNodeRGBA::~CCNodeRGBA()
FUNC 2564a 8 0 {virtual override thunk({offset(-264)}, cocos2d::CCLayer::~CCLayer())}
FUNC 25652 10 0 cocos2d::CCLayer::~CCLayer()
FUNC 25662 14 0 {virtual override thunk({offset(-264)}, cocos2d::CCLayer::~CCLayer())}
FUNC 25678 1dc 0 cocos2d::CCLayerRGBA::CCLayerRGBA()
FUNC 25854 258 0 cocos2d::CCLayerRGBA::~CCLayerRGBA()
FUNC 25aac 8 0 {virtual override thunk({offset(-264)}, cocos2d::CCLayerRGBA::~CCLayerRGBA())}
FUNC 25ab4 10 0 cocos2d::CCLayerRGBA::~CCLayerRGBA()
FUNC 25ac4 14 0 {virtual override thunk({offset(-264)}, cocos2d::CCLayerRGBA::~CCLayerRGBA())}
FUNC 25ad8 1e4 0 cocos2d::CCLayerColor::CCLayerColor()
FUNC 25cbc 8 0 {virtual override thunk({offset(-264)}, cocos2d::CCLayerColor::~CCLayerColor())}
FUNC 25cc4 10 0 cocos2d::CCLayerColor::~CCLayerColor()
FUNC 25cd4 14 0 {virtual override thunk({offset(-264)}, cocos2d::CCLayerColor::~CCLayerColor())}
FUNC 25ce8 1d8 0 cocos2d::CCSprite::CCSprite()
FUNC 25ec0 10 0 cocos2d::CCSprite::~CCSprite()
FUNC 25ed0 228 0 cocos2d::CCSpriteBatchNode::~CCSpriteBatchNode()
FUNC 260f8 10 0 cocos2d::CCSpriteBatchNode::~CCSpriteBatchNode()
FUNC 26108 1ec 0 cocos2d::CCLabelBMFont::CCLabelBMFont()
FUNC 262f4 278 0 cocos2d::CCLabelBMFont::~CCLabelBMFont()
FUNC 2656c 10 0 cocos2d::CCLabelBMFont::~CCLabelBMFont()
FUNC 2657c e4 0 cocos2d::CCDictionary::objectForKey(gd::string const&)
FUNC 26660 70 0 tulip::hook::AbstractFunction::from<cocos2d::CCObject*, cocos2d::CCDictionary*, gd::string const&>(cocos2d::CCObject* (*)(cocos2d::CCDictionary*, gd::string const&))
FUNC 266d0 244 0 cocos2d::extension::CCScale9Sprite::~CCScale9Sprite()
FUNC 26914 10 0 cocos2d::extension::CCScale9Sprite::~CCScale9Sprite()
FUNC 26924 8 0 {virtual override thunk({offset(-264)}, FLAlertLayer::~FLAlertLayer())}
FUNC 2692c 10 0 FLAlertLayer::~FLAlertLayer()
FUNC 2693c 14 0 {virtual override thunk({offset(-264)}, FLAlertLayer::~FLAlertLayer())}
FUNC 26950 228 0 cocos2d::CCNodeRGBA::~CCNodeRGBA()
FUNC 26b80 70 0 tulip::hook::AbstractFunction::from<void, CCTextInputNode*, gd::string>(void (*)(CCTextInputNode*, gd::string))
FUNC 26bf0 f8 0 CCTextInputNode::setString(gd::string)
FUNC 26ce8 240 0 cocos2d::CCSprite::~CCSprite()
FUNC 26f28 124 0 ShareCommentLayer::init(gd::string, int, CommentType, int, gd::string)
FUNC 27050 470 0 tulip::hook::AbstractFunction::from<bool, ShareCommentLayer*, gd::string, int, CommentType, int, gd::string>(bool (*)(ShareCommentLayer*, gd::string, int, CommentType, int, gd::string))
FUNC 274c0 2 0 cocos2d::CCObject::update(float)
FUNC 274c2 2 0 cocos2d::CCNodeRGBA::setOpacityModifyRGB(bool)
FUNC 274c4 4 0 cocos2d::CCNodeRGBA::isOpacityModifyRGB()
FUNC 274c8 2 0 {virtual override thunk({offset(-264)}, cocos2d::CCNodeRGBA::setOpacityModifyRGB(bool))}
FUNC 274ca 4 0 {virtual override thunk({offset(-264)}, cocos2d::CCNodeRGBA::isOpacityModifyRGB())}
FUNC 274d0 280 0 cocos2d::CCLayerColor::~CCLayerColor()
FUNC 27750 280 0 FLAlertLayer::~FLAlertLayer()
FUNC 279d0 214 0 cocos2d::CCNode::~CCNode()
FUNC 27be4 25c 0 cocos2d::CCLayer::~CCLayer()
FUNC 27e40 410 0 cocos2d::CCObject::~CCObject()
FUNC 28250 f8 0 _ZN5geode15UnwrapExceptionC2IRPvQsr4implE18IsStringStreamableIT_EEENS_4impl5OkTagEOS4_
FUNC 28348 104 0 _ZN5geode15UnwrapExceptionC2IRNSt6__ndk112basic_stringIcNS2_11char_traitsIcEENS2_9allocatorIcEEEEQsr4implE18IsStringStreamableIT_EEENS_4impl6ErrTagEOSA_
FUNC 2844c 2 0 std::__ndk1::__variant_detail::__visitation::__base::__dispatcher<(unsigned int)0>::__dispatch[abi:ne180000]<std::__ndk1::__variant_detail::__dtor<std::__ndk1::__variant_detail::__traits<void*, std::__ndk1::basic_string<char, std::__ndk1::char_traits<char>, std::__ndk1::allocator<char> > >, (std::__ndk1::__variant_detail::_Trait)1>::__destroy[abi:ne180000]()::{lambda(auto:1&)#1}, std::__ndk1::__variant_detail::__base<(std::__ndk1::__variant_detail::__traits<void*, std::__ndk1::basic_string<char, std::__ndk1::char_traits<char>, std::__ndk1::allocator<char> > >)1, std::__ndk1::__variant_detail::__traits, std::__ndk1::allocator<char> >&>(std::__ndk1::__variant_detail::__dtor<std::__ndk1::__variant_detail::__traits<void*, std::__ndk1::basic_string<char, std::__ndk1::char_traits<char>, std::__ndk1::allocator<char> > >, (std::__ndk1::__variant_detail::_Trait)1>, std::__ndk1::__variant_detail::__base<(std::__ndk1::__variant_detail::__traits<void*, std::__ndk1::basic_string<char, std::__ndk1::char_traits<char>, std::__ndk1::allocator<char> > >)1, std::__ndk1::__variant_detail::__traits, std::__ndk1::allocator<char> >&)
FUNC 2844e e 0 std::__ndk1::__variant_detail::__visitation::__base::__dispatcher<(unsigned int)1>::__dispatch[abi:ne180000]<std::__ndk1::__variant_detail::__dtor<std::__ndk1::__variant_detail::__traits<void*, std::__ndk1::basic_string<char, std::__ndk1::char_traits<char>, std::__ndk1::allocator<char> > >, (std::__ndk1::__variant_detail::_Trait)1>::__destroy[abi:ne180000]()::{lambda(auto:1&)#1}, std::__ndk1::__variant_detail::__base<(std::__ndk1::__variant_detail::__traits<void*, std::__ndk1::basic_string<char, std::__ndk1::char_traits<char>, std::__ndk1::allocator<char> > >)1, std::__ndk1::__variant_detail::__traits, std::__ndk1::allocator<char> >&>(std::__ndk1::__variant_detail::__dtor<std::__ndk1::__variant_detail::__traits<void*, std::__ndk1::basic_string<char, std::__ndk1::char_traits<char>, std::__ndk1::allocator<char> > >, (std::__ndk1::__variant_detail::_Trait)1>, std::__ndk1::__variant_detail::__base<(std::__ndk1::__variant_detail::__traits<void*, std::__ndk1::basic_string<char, std::__ndk1::char_traits<char>, std::__ndk1::allocator<char> > >)1, std::__ndk1::__variant_detail::__traits, std::__ndk1::allocator<char> >&)
FUNC 2845c 3f2 0 std::__ndk1::__hash_table<std::__ndk1::__hash_value_type<void*, bool>, std::__ndk1::__unordered_map_hasher<void*, std::__ndk1::__hash_value_type<void*, bool>, std::__ndk1::hash<void*>, std::__ndk1::equal_to<void*>, true>, std::__ndk1::__unordered_map_equal<void*, std::__ndk1::__hash_value_type<void*, bool>, std::__ndk1::equal_to<void*>, std::__ndk1::hash<void*>, true>, std::__ndk1::allocator<std::__ndk1::__hash_value_type<void*, bool> > >::__emplace_unique_key_args<void*, std::__ndk1::piecewise_construct_t const&, std::__ndk1::tuple<void* const&>, std::__ndk1::tuple<> >(void* const&, std::__ndk1::piecewise_construct_t const&, std::__ndk1::tuple<void* const&>, std::__ndk1::tuple<>)
FUNC 28850 1cc 0 fmt::v11::detail::write_loc(fmt::v11::basic_appender<char>, fmt::v11::loc_value, fmt::v11::format_specs const&, fmt::v11::detail::locale_ref)
FUNC 28a1c 44 0 fmt::v11::format_facet<std::__ndk1::locale>::~format_facet()
FUNC 28a60 38 0 fmt::v11::report_error(char const*)
FUNC 28a98 18 0 fmt::v11::format_error::runtime_error(char const*)
FUNC 28ab0 420 0 fmt::v11::format_facet<std::__ndk1::locale>::do_put(fmt::v11::basic_appender<char>, fmt::v11::loc_value, fmt::v11::format_specs const&) const
FUNC 28ed0 30 0 fmt::v11::detail::loc_writer<char>::~loc_writer()
FUNC 28f00 c0 0 fmt::v11::vformat(fmt::v11::basic_string_view<char>, fmt::v11::basic_format_args<fmt::v11::context>)
FUNC 28fc0 1ac 0 fmt::v11::detail::dragonbox::cache_accessor<double>::get_cached_power(int)
FUNC 2916c 278 0 fmt::v11::detail::vformat_to<char>(fmt::v11::detail::buffer<char>&, fmt::v11::basic_string_view<char>, fmt::v11::detail::vformat_args<char>::type, fmt::v11::detail::locale_ref)
FUNC 293f0 228 0 fmt::v11::detail::is_printable(unsigned int)
FUNC 29618 384 0 fmt::v11::detail::dragonbox::to_decimal<float>(float)
FUNC 2999c 880 0 fmt::v11::detail::dragonbox::to_decimal<double>(double)
FUNC 2a21c 4c 0 fmt::v11::basic_memory_buffer<char, (unsigned int)500, std::__ndk1::allocator<char> >::grow(fmt::v11::detail::buffer<char>&, unsigned int)
FUNC 2a268 48 0 fmt::v11::format_facet<std::__ndk1::locale>::~format_facet()
FUNC 2a2b0 10 0 fmt::v11::format_error::~format_error()
FUNC 2a2c0 9a 0 fmt::v11::detail::copy_noinline<char, char const*, fmt::v11::basic_appender<char> >(char const*, char const*, fmt::v11::basic_appender<char>)
FUNC 2a35c 54 0 fmt::v11::detail::default_arg_formatter<char>::operator()<bool>(bool)
FUNC 2a3b0 34 0 fmt::v11::detail::default_arg_formatter<char>::operator()<char>(char)
FUNC 2a3e4 2c 0 fmt::v11::detail::default_arg_formatter<char>::operator()<char const*>(char const*)
FUNC 2a410 74 0 fmt::v11::detail::default_arg_formatter<char>::operator()<void const*>(void const*)
FUNC 2a484 1b0 0 _ZN3fmt3v116detail5writeIcNS0_14basic_appenderIcEEiTnNSt6__ndk19enable_ifIXaaaasr11is_integralIT1_EE5valuentsr3std7is_sameIS7_bEE5valuentsr3std7is_sameIS7_T_EE5valueEiE4typeELi0EEET0_SB_S7_
FUNC 2a634 9a 0 fmt::v11::detail::copy_noinline<char, char*, fmt::v11::basic_appender<char> >(char*, char*, fmt::v11::basic_appender<char>)
FUNC 2a6d0 174 0 _ZN3fmt3v116detail5writeIcNS0_14basic_appenderIcEEjTnNSt6__ndk19enable_ifIXaaaasr11is_integralIT1_EE5valuentsr3std7is_sameIS7_bEE5valuentsr3std7is_sameIS7_T_EE5valueEiE4typeELi0EEET0_SB_S7_
FUNC 2a844 218 0 _ZN3fmt3v116detail5writeIcNS0_14basic_appenderIcEExTnNSt6__ndk19enable_ifIXaaaasr11is_integralIT1_EE5valuentsr3std7is_sameIS7_bEE5valuentsr3std7is_sameIS7_T_EE5valueEiE4typeELi0EEET0_SB_S7_
FUNC 2aa5c 1dc 0 _ZN3fmt3v116detail5writeIcNS0_14basic_appenderIcEEyTnNSt6__ndk19enable_ifIXaaaasr11is_integralIT1_EE5valuentsr3std7is_sameIS7_bEE5valuentsr3std7is_sameIS7_T_EE5valueEiE4typeELi0EEET0_SB_S7_
FUNC 2ac38 188 0 _ZN3fmt3v116detail5writeIcNS0_14basic_appenderIcEEbTnNSt6__ndk19enable_ifIXsr3std7is_sameIT1_bEE5valueEiE4typeELi0EEET0_SA_S7_RKNS0_12format_specsENS1_10locale_refE
FUNC 2adc0 9f8 0 fmt::v11::detail::write_int_noinline<char, fmt::v11::basic_appender<char>, unsigned int>(fmt::v11::basic_appender<char>, fmt::v11::detail::write_int_arg<unsigned int>, fmt::v11::format_specs const&, fmt::v11::detail::locale_ref)
FUNC 2b7b8 184 0 fmt::v11::detail::write_padded<char, (fmt::v11::align::type)1, fmt::v11::basic_appender<char>, fmt::v11::detail::write_char<char, fmt::v11::basic_appender<char> >(fmt::v11::basic_appender<char>, char, fmt::v11::format_specs const&)::{lambda(fmt::v11::basic_appender<char>&)#1}>(fmt::v11::basic_appender<char>, fmt::v11::format_specs const&, unsigned int, unsigned int, fmt::v11::detail::write_char<char, fmt::v11::basic_appender<char> >(fmt::v11::basic_appender<char>, char, fmt::v11::format_specs const&)::{lambda(fmt::v11::basic_appender<char>&)#1})
FUNC 2b940 73c 0 _ZN3fmt3v116detail5writeIcNS0_14basic_appenderIcEEfTnNSt6__ndk19enable_ifIXsr13is_fast_floatIT1_EE5valueEiE4typeELi0EEET0_SA_S7_
FUNC 2c07c 140 0 fmt::v11::detail::write_padded<char, (fmt::v11::align::type)1, fmt::v11::basic_appender<char>, fmt::v11::detail::write_nonfinite<char, fmt::v11::basic_appender<char> >(fmt::v11::basic_appender<char>, bool, fmt::v11::format_specs, fmt::v11::sign::type)::{lambda(fmt::v11::basic_appender<char>&)#1}>(fmt::v11::basic_appender<char>, fmt::v11::format_specs const&, unsigned int, unsigned int, fmt::v11::detail::write_nonfinite<char, fmt::v11::basic_appender<char> >(fmt::v11::basic_appender<char>, bool, fmt::v11::format_specs, fmt::v11::sign::type)::{lambda(fmt::v11::basic_appender<char>&)#1})
FUNC 2c1bc e0 0 fmt::v11::detail::do_write_float<char, fmt::v11::basic_appender<char>, fmt::v11::detail::dragonbox::decimal_fp<float>, fmt::v11::detail::digit_grouping<char> >(fmt::v11::basic_appender<char>, fmt::v11::detail::dragonbox::decimal_fp<float> const&, fmt::v11::format_specs const&, fmt::v11::detail::float_specs, fmt::v11::detail::locale_ref)::{lambda(fmt::v11::basic_appender<char>(fmt::v11::basic_appender<char>))#1}::operator() const
FUNC 2c29c 194 0 fmt::v11::detail::digit_grouping<char>::digit_grouping(fmt::v11::detail::locale_ref, bool)
FUNC 2c430 22 0 fmt::v11::detail::digit_grouping<char>::~digit_grouping()
FUNC 2c454 104 0 fmt::v11::detail::write_exponent<char, fmt::v11::basic_appender<char> >(int, fmt::v11::basic_appender<char>)
FUNC 2c558 144 0 _ZN3fmt3v116detail17write_significandIcjTnNSt6__ndk19enable_ifIXsr3std11is_integralIT0_EE5valueEiE4typeELi0EEEPT_S9_S5_iiS8_
FUNC 2c69c 66 0 std::__ndk1::basic_string<char, std::__ndk1::char_traits<char>, std::__ndk1::allocator<char> >::__assign_no_alias<true>(char const*, unsigned int)
FUNC 2c702 a6 0 std::__ndk1::basic_string<char, std::__ndk1::char_traits<char>, std::__ndk1::allocator<char> >::__assign_no_alias<false>(char const*, unsigned int)
FUNC 2c7a8 21c 0 fmt::v11::detail::digit_grouping<char>::apply<fmt::v11::basic_appender<char>, char>(fmt::v11::basic_appender<char>, fmt::v11::basic_string_view<char>) const
FUNC 2c9c4 6e 0 fmt::v11::basic_memory_buffer<int, (unsigned int)500, std::__ndk1::allocator<int> >::grow(fmt::v11::detail::buffer<int>&, unsigned int)
FUNC 2ca40 e4 0 _ZN3fmt3v116detail5writeIcNS0_14basic_appenderIcEEdTnNSt6__ndk19enable_ifIXsr13is_fast_floatIT1_EE5valueEiE4typeELi0EEET0_SA_S7_
FUNC 2cb24 9ac 0 fmt::v11::detail::do_write_float<char, fmt::v11::basic_appender<char>, fmt::v11::detail::dragonbox::decimal_fp<double>, fmt::v11::detail::digit_grouping<char> >(fmt::v11::basic_appender<char>, fmt::v11::detail::dragonbox::decimal_fp<double> const&, fmt::v11::format_specs const&, fmt::v11::detail::float_specs, fmt::v11::detail::locale_ref)
FUNC 2d4d0 e8 0 fmt::v11::detail::do_write_float<char, fmt::v11::basic_appender<char>, fmt::v11::detail::dragonbox::decimal_fp<double>, fmt::v11::detail::digit_grouping<char> >(fmt::v11::basic_appender<char>, fmt::v11::detail::dragonbox::decimal_fp<double> const&, fmt::v11::format_specs const&, fmt::v11::detail::float_specs, fmt::v11::detail::locale_ref)::{lambda(fmt::v11::basic_appender<char>(fmt::v11::basic_appender<char>))#1}::operator() const
FUNC 2d5b8 19c 0 _ZN3fmt3v116detail17write_significandIcyTnNSt6__ndk19enable_ifIXsr3std11is_integralIT0_EE5valueEiE4typeELi0EEEPT_S9_S5_iiS8_
FUNC 2d760 e4 0 _ZN3fmt3v116detail5writeIcNS0_14basic_appenderIcEEeTnNSt6__ndk19enable_ifIXsr13is_fast_floatIT1_EE5valueEiE4typeELi0EEET0_SA_S7_
FUNC 2d844 150 0 fmt::v11::detail::write_padded<char, (fmt::v11::align::type)2, fmt::v11::basic_appender<char>, fmt::v11::detail::write_ptr<char, fmt::v11::basic_appender<char>, unsigned int>(fmt::v11::basic_appender<char>, unsigned int, fmt::v11::format_specs const*)::{lambda(fmt::v11::basic_appender<char>&)#1}>(fmt::v11::basic_appender<char>, fmt::v11::format_specs const&, unsigned int, unsigned int, fmt::v11::detail::write_ptr<char, fmt::v11::basic_appender<char>, unsigned int>(fmt::v11::basic_appender<char>, unsigned int, fmt::v11::format_specs const*)::{lambda(fmt::v11::basic_appender<char>&)#1})
FUNC 2d998 1064 0 fmt::v11::detail::parse_replacement_field<char, fmt::v11::detail::vformat_to<char>(fmt::v11::detail::buffer<char>&, fmt::v11::basic_string_view<char>, fmt::v11::detail::vformat_args<char>::type, fmt::v11::detail::locale_ref)::format_handler&>(char const*, char const*, fmt::v11::detail::vformat_to<char>(fmt::v11::detail::buffer<char>&, fmt::v11::basic_string_view<char>, fmt::v11::detail::vformat_args<char>::type, fmt::v11::detail::locale_ref)::format_handler&)
FUNC 2e9fc b78 0 fmt::v11::detail::write_int_noinline<char, fmt::v11::basic_appender<char>, unsigned long long>(fmt::v11::basic_appender<char>, fmt::v11::detail::write_int_arg<unsigned long long>, fmt::v11::format_specs const&, fmt::v11::detail::locale_ref)
FUNC 2f574 3a4 0 _ZN3fmt3v116detail15format_hexfloatIdTnNSt6__ndk19enable_ifIXntsr16is_double_doubleIT_EE5valueEiE4typeELi0EEEvS5_NS0_12format_specsERNS1_6bufferIcEE
FUNC 2f918 ebc 0 fmt::v11::detail::format_float<double>(double, int, fmt::v11::detail::float_specs, fmt::v11::detail::buffer<char>&)
FUNC 307d4 10c 0 fmt::v11::detail::write_padded<char, (fmt::v11::align::type)2, fmt::v11::basic_appender<char>, fmt::v11::detail::write_bytes<char, (fmt::v11::align::type)2, fmt::v11::basic_appender<char> >(fmt::v11::basic_appender<char>, fmt::v11::basic_string_view<char>, fmt::v11::format_specs const&)::{lambda(fmt::v11::basic_appender<char>&)#1}>(fmt::v11::basic_appender<char>, fmt::v11::format_specs const&, unsigned int, unsigned int, fmt::v11::detail::write_bytes<char, (fmt::v11::align::type)2, fmt::v11::basic_appender<char> >(fmt::v11::basic_appender<char>, fmt::v11::basic_string_view<char>, fmt::v11::format_specs const&)::{lambda(fmt::v11::basic_appender<char>&)#1})
FUNC 308e0 c4 0 fmt::v11::detail::bigint::operator<<=(int)
FUNC 309a4 414 0 fmt::v11::detail::bigint::assign_pow10(int)
FUNC 30db8 276 0 fmt::v11::detail::bigint::divmod_assign(fmt::v11::detail::bigint const&)
FUNC 3102e 6e 0 fmt::v11::basic_memory_buffer<unsigned int, (unsigned int)32, std::__ndk1::allocator<unsigned int> >::grow(fmt::v11::detail::buffer<unsigned int>&, unsigned int)
FUNC 3109c 994 0 fmt::v11::detail::do_write_float<char, fmt::v11::basic_appender<char>, fmt::v11::detail::big_decimal_fp, fmt::v11::detail::digit_grouping<char> >(fmt::v11::basic_appender<char>, fmt::v11::detail::big_decimal_fp const&, fmt::v11::format_specs const&, fmt::v11::detail::float_specs, fmt::v11::detail::locale_ref)
FUNC 31a30 e0 0 fmt::v11::detail::do_write_float<char, fmt::v11::basic_appender<char>, fmt::v11::detail::big_decimal_fp, fmt::v11::detail::digit_grouping<char> >(fmt::v11::basic_appender<char>, fmt::v11::detail::big_decimal_fp const&, fmt::v11::format_specs const&, fmt::v11::detail::float_specs, fmt::v11::detail::locale_ref)::{lambda(fmt::v11::basic_appender<char>(fmt::v11::basic_appender<char>))#1}::operator() const
FUNC 31b10 544 0 fmt::v11::detail::write_int<fmt::v11::basic_appender<char>, unsigned long long, char>(fmt::v11::basic_appender<char>, unsigned long long, unsigned int, fmt::v11::format_specs const&, fmt::v11::detail::digit_grouping<char> const&)
PUBLIC 32055 0 __ThumbV7PILongThunk__ZN7cocos2d6CCNode14setAnchorPointERKNS_7CCPointE
PUBLIC 32061 0 __ThumbV7PILongThunk__ZN7cocos2d6CCNode8setScaleEf
PUBLIC 3206d 0 __ThumbV7PILongThunk__ZN7cocos2d6CCNode9setScaleXEf
PUBLIC 32079 0 __ThumbV7PILongThunk__ZN7cocos2d6CCNode9setScaleYEf
PUBLIC 32085 0 __ThumbV7PILongThunk__ZN7cocos2d6CCNode8addChildEPS0_
PUBLIC 32091 0 __ThumbV7PILongThunk__ZN7cocos2d6CCNode8addChildEPS0_i
PUBLIC 3209d 0 __ThumbV7PILongThunk__ZN7cocos2d6CCNode8addChildEPS0_ii
PUBLIC 320a9 0 __ThumbV7PILongThunk__ZN7cocos2d6CCNode11removeChildEPS0_b
PUBLIC 320b5 0 __ThumbV7PILongThunk__ZN7cocos2d6CCNode28removeAllChildrenWithCleanupEb
PUBLIC 320c1 0 __ThumbV7PILongThunk__ZN7cocos2d6CCNode15sortAllChildrenEv
PUBLIC 320cd 0 __ThumbV7PILongThunk__ZN7cocos2d6CCNode5visitEv
PUBLIC 320d9 0 __ThumbV7PILongThunk__ZN7cocos2d6CCNode4drawEv
PUBLIC 320e5 0 __ThumbV7PILongThunk__ZdlPv
PUBLIC 320f1 0 __ThumbV7PILongThunk__ZN7cocos2d17CCTouchDispatcher19addTargetedDelegateEPNS_15CCTouchDelegateEib
PUBLIC 320fd 0 __ThumbV7PILongThunk__ZN12FLAlertLayer7keyDownEN7cocos2d12enumKeyCodesE
PUBLIC 32109 0 __ThumbV7PILongThunk__ZN5geode5EventD2Ev
PUBLIC 32115 0 __ThumbV7PILongThunk__ZNSt6__ndk119__shared_weak_countD2Ev
PUBLIC 32121 0 __ThumbV7PILongThunk__ZN5geode9addresser9Addresser19followThunkFunctionEi
PUBLIC 3212d 0 __ThumbV7PILongThunk___cxa_atexit
PUBLIC 32139 0 __ThumbV7PILongThunk__ZNSt6__ndk16locale5facetD2Ev
PUBLIC 32150 0 <.plt ELF section in thesillydoggo.comment_emojis.android32.so>
STACK CFI INIT 15e54 184 .cfa: sp 0 +
STACK CFI 15e56 .cfa: sp 20 + .ra: .cfa -4 + ^ r7: .cfa -8 + ^ r6: .cfa -12 + ^ r5: .cfa -16 + ^ r4: .cfa -20 + ^
STACK CFI 15e58 .cfa: r7 8 +
STACK CFI 15e5c r11: .cfa -24 + ^ r10: .cfa -28 + ^ r9: .cfa -32 + ^ r8: .cfa -36 + ^
STACK CFI INIT 15fd8 3e .cfa: sp 0 +
STACK CFI 15fda .cfa: sp 20 + .ra: .cfa -4 + ^ r7: .cfa -8 + ^ r6: .cfa -12 + ^ r5: .cfa -16 + ^ r4: .cfa -20 + ^
STACK CFI 15fdc .cfa: r7 8 +
STACK CFI 15fe0 r11: .cfa -24 + ^
STACK CFI INIT 16018 a4 .cfa: sp 0 +
STACK CFI 1601a .cfa: sp 20 + .ra: .cfa -4 + ^ r7: .cfa -8 + ^ r6: .cfa -12 + ^ r5: .cfa -16 + ^ r4: .cfa -20 + ^
STACK CFI 1601c .cfa: r7 8 +
STACK CFI 16020 r8: .cfa -24 + ^
STACK CFI INIT 160bc 8c .cfa: sp 0 +
STACK CFI 160be .cfa: sp 20 + .ra: .cfa -4 + ^ r7: .cfa -8 + ^ r6: .cfa -12 + ^ r5: .cfa -16 + ^ r4: .cfa -20 + ^
STACK CFI 160c0 .cfa: r7 8 +
STACK CFI 160c4 r11: .cfa -24 + ^
STACK CFI INIT 16148 a .cfa: sp 0 +
STACK CFI INIT 16152 16 .cfa: sp 0 +
STACK CFI INIT 16168 24 .cfa: sp 0 +
STACK CFI 1616a .cfa: sp 16 + .ra: .cfa -4 + ^ r7: .cfa -8 + ^ r5: .cfa -12 + ^ r4: .cfa -16 + ^
STACK CFI 1616c .cfa: r7 8 +
STACK CFI INIT 1618c 14 .cfa: sp 0 +
STACK CFI INIT 161a0 12 .cfa: sp 0 +
STACK CFI INIT 161b2 2 .cfa: sp 0 +
STACK CFI INIT 161b4 4 .cfa: sp 0 +
STACK CFI INIT 161b8 c .cfa: sp 0 +
STACK CFI INIT 161c4 2 .cfa: sp 0 +
STACK CFI INIT 161c6 2 .cfa: sp 0 +
STACK CFI INIT 161c8 4 .cfa: sp 0 +
STACK CFI INIT 161cc 4 .cfa: sp 0 +
STACK CFI INIT 161d0 4 .cfa: sp 0 +
STACK CFI INIT 161d4 4 .cfa: sp 0 +
STACK CFI INIT 161d8 4 .cfa: sp 0 +
STACK CFI INIT 161dc 2 .cfa: sp 0 +
STACK CFI INIT 161de 2 .cfa: sp 0 +
STACK CFI INIT 161e0 6 .cfa: sp 0 +
STACK CFI INIT 161e6 6 .cfa: sp 0 +
STACK CFI INIT 161ec 6 .cfa: sp 0 +
STACK CFI INIT 161f2 6 .cfa: sp 0 +
STACK CFI INIT 161f8 c .cfa: sp 0 +
STACK CFI INIT 16204 18 .cfa: sp 0 +
STACK CFI INIT 1621c 8 .cfa: sp 0 +
STACK CFI INIT 16224 14 .cfa: sp 0 +
STACK CFI INIT 16238 4 .cfa: sp 0 +
STACK CFI INIT 1623c 4 .cfa: sp 0 +
STACK CFI INIT 16240 2 .cfa: sp 0 +
STACK CFI INIT 16242 2 .cfa: sp 0 +
STACK CFI INIT 16244 6 .cfa: sp 0 +
STACK CFI INIT 1624a 4 .cfa: sp 0 +
STACK CFI INIT 1624e 6 .cfa: sp 0 +
STACK CFI INIT 16254 4 .cfa: sp 0 +
STACK CFI INIT 16258 14 .cfa: sp 0 +
STACK CFI INIT 1626c 20 .cfa: sp 0 +
STACK CFI INIT 1628c 8 .cfa: sp 0 +
STACK CFI INIT 16294 14 .cfa: sp 0 +
STACK CFI INIT 162a8 4 .cfa: sp 0 +
STACK CFI INIT 162ac 4 .cfa: sp 0 +
STACK CFI INIT 162b0 2 .cfa: sp 0 +
STACK CFI INIT 162b2 2 .cfa: sp 0 +
STACK CFI INIT 0 44 .cfa: sp 0 +
STACK CFI 2 .cfa: sp 20 + .ra: .cfa -4 + ^ r7: .cfa -8 + ^ r6: .cfa -12 + ^ r5: .cfa -16 + ^ r4: .cfa -20 + ^
STACK CFI 4 .cfa: r7 8 +
STACK CFI 8 r11: .cfa -24 + ^
STACK CFI INIT 162b4 ae4 .cfa: sp 0 +
STACK CFI 162b6 .cfa: sp 20 + .ra: .cfa -4 + ^ r7: .cfa -8 + ^ r6: .cfa -12 + ^ r5: .cfa -16 + ^ r4: .cfa -20 + ^
STACK CFI 162b8 .cfa: r7 8 +
STACK CFI 162bc r11: .cfa -24 + ^ r10: .cfa -28 + ^ r9: .cfa -32 + ^ r8: .cfa -36 + ^
STACK CFI INIT 16d98 4 .cfa: sp 0 +
STACK CFI INIT 16d9c 4 .cfa: sp 0 +
STACK CFI INIT 16da0 4 .cfa: sp 0 +
STACK CFI INIT 16da4 4 .cfa: sp 0 +
STACK CFI INIT 16da8 4 .cfa: sp 0 +
STACK CFI INIT 16dac 4 .cfa: sp 0 +
STACK CFI INIT 16db0 4 .cfa: sp 0 +
STACK CFI INIT 16db4 4 .cfa: sp 0 +
STACK CFI INIT 16db8 98 .cfa: sp 0 +
STACK CFI 16dba .cfa: sp 20 + .ra: .cfa -4 + ^ r7: .cfa -8 + ^ r6: .cfa -12 + ^ r5: .cfa -16 + ^ r4: .cfa -20 + ^
STACK CFI 16dbc .cfa: r7 8 +
STACK CFI 16dc0 r11: .cfa -24 + ^
STACK CFI INIT 16e50 c .cfa: sp 0 +
STACK CFI 16e52 .cfa: sp 8 + .ra: .cfa -4 + ^ r7: .cfa -8 + ^
STACK CFI 16e54 .cfa: r7 8 +
STACK CFI INIT 16e5c 10 .cfa: sp 0 +
STACK CFI 16e5e .cfa: sp 8 + .ra: .cfa -4 + ^ r7: .cfa -8 + ^
STACK CFI 16e60 .cfa: r7 8 +
STACK CFI INIT 16e6c 4 .cfa: sp 0 +
STACK CFI INIT 16e70 46 .cfa: sp 0 +
STACK CFI 16e72 .cfa: sp 20 + .ra: .cfa -4 + ^ r7: .cfa -8 + ^ r6: .cfa -12 + ^ r5: .cfa -16 + ^ r4: .cfa -20 + ^
STACK CFI 16e74 .cfa: r7 8 +
STACK CFI 16e78 r8: .cfa -24 + ^
STACK CFI INIT 16eb8 10 .cfa: sp 0 +
STACK CFI 16eba .cfa: sp 8 + .ra: .cfa -4 + ^ r7: .cfa -8 + ^
STACK CFI 16ebc .cfa: r7 8 +
STACK CFI INIT 16ec8 38 .cfa: sp 0 +
STACK CFI 16eca .cfa: sp 16 + .ra: .cfa -4 + ^ r7: .cfa -8 + ^ r5: .cfa -12 + ^ r4: .cfa -16 + ^
STACK CFI 16ecc .cfa: r7 8 +
STACK CFI INIT 16f00 18 .cfa: sp 0 +
STACK CFI 16f02 .cfa: sp 8 + .ra: .cfa -4 + ^ r7: .cfa -8 + ^
STACK CFI 16f04 .cfa: r7 8 +
STACK CFI INIT 16f18 28 .cfa: sp 0 +
STACK CFI 16f1a .cfa: sp 8 + .ra: .cfa -4 + ^ r7: .cfa -8 + ^
STACK CFI 16f1c .cfa: r7 8 +
STACK CFI INIT 16f40 c8 .cfa: sp 0 +
STACK CFI 16f42 .cfa: sp 20 + .ra: .cfa -4 + ^ r7: .cfa -8 + ^ r6: .cfa -12 + ^ r5: .cfa -16 + ^ r4: .cfa -20 + ^
STACK CFI 16f44 .cfa: r7 8 +
STACK CFI 16f48 r11: .cfa -24 + ^ r10: .cfa -28 + ^ r9: .cfa -32 + ^ r8: .cfa -36 + ^
STACK CFI INIT 17008 1c .cfa: sp 0 +
STACK CFI 1700a .cfa: sp 16 + .ra: .cfa -4 + ^ r7: .cfa -8 + ^ r5: .cfa -12 + ^ r4: .cfa -16 + ^
STACK CFI 1700c .cfa: r7 8 +
STACK CFI INIT 17024 188 .cfa: sp 0 +
STACK CFI 17026 .cfa: sp 20 + .ra: .cfa -4 + ^ r7: .cfa -8 + ^ r6: .cfa -12 + ^ r5: .cfa -16 + ^ r4: .cfa -20 + ^
STACK CFI 17028 .cfa: r7 8 +
STACK CFI 1702c r10: .cfa -24 + ^ r9: .cfa -28 + ^ r8: .cfa -32 + ^
STACK CFI INIT 171ac 3c .cfa: sp 0 +
STACK CFI 171ae .cfa: sp 16 + .ra: .cfa -4 + ^ r7: .cfa -8 + ^ r5: .cfa -12 + ^ r4: .cfa -16 + ^
STACK CFI 171b0 .cfa: r7 8 +
STACK CFI INIT 171e8 10 .cfa: sp 0 +
STACK CFI 171ea .cfa: sp 8 + .ra: .cfa -4 + ^ r7: .cfa -8 + ^
STACK CFI 171ec .cfa: r7 8 +
STACK CFI INIT 171f8 11c .cfa: sp 0 +
STACK CFI 171fa .cfa: sp 20 + .ra: .cfa -4 + ^ r7: .cfa -8 + ^ r6: .cfa -12 + ^ r5: .cfa -16 + ^ r4: .cfa -20 + ^
STACK CFI 171fc .cfa: r7 8 +
STACK CFI 17200 r11: .cfa -24 + ^ r10: .cfa -28 + ^ r9: .cfa -32 + ^ r8: .cfa -36 + ^
STACK CFI INIT 17314 60 .cfa: sp 0 +
STACK CFI 17316 .cfa: sp 20 + .ra: .cfa -4 + ^ r7: .cfa -8 + ^ r6: .cfa -12 + ^ r5: .cfa -16 + ^ r4: .cfa -20 + ^
STACK CFI 17318 .cfa: r7 8 +
STACK CFI 1731c r11: .cfa -24 + ^
STACK CFI INIT 0 24 .cfa: sp 0 +
STACK CFI 2 .cfa: sp 16 + .ra: .cfa -4 + ^ r7: .cfa -8 + ^ r6: .cfa -12 + ^ r4: .cfa -16 + ^
STACK CFI 4 .cfa: r7 8 +
STACK CFI INIT 17374 2c .cfa: sp 0 +
STACK CFI 17376 .cfa: sp 16 + .ra: .cfa -4 + ^ r7: .cfa -8 + ^ r6: .cfa -12 + ^ r4: .cfa -16 + ^
STACK CFI 17378 .cfa: r7 8 +
STACK CFI INIT 173a0 c4 .cfa: sp 0 +
STACK CFI 173a2 .cfa: sp 20 + .ra: .cfa -4 + ^ r7: .cfa -8 + ^ r6: .cfa -12 + ^ r5: .cfa -16 + ^ r4: .cfa -20 + ^
STACK CFI 173a4 .cfa: r7 8 +
STACK CFI 173a8 r11: .cfa -24 + ^
STACK CFI INIT 17464 10 .cfa: sp 0 +
STACK CFI 17466 .cfa: sp 8 + .ra: .cfa -4 + ^ r7: .cfa -8 + ^
STACK CFI 17468 .cfa: r7 8 +
STACK CFI INIT 17474 2 .cfa: sp 0 +
STACK CFI INIT 17476 4 .cfa: sp 0 +
STACK CFI INIT 1747a 6 .cfa: sp 0 +
STACK CFI INIT 17480 6 .cfa: sp 0 +
STACK CFI INIT 17486 8 .cfa: sp 0 +
STACK CFI INIT 1748e 14 .cfa: sp 0 +
STACK CFI 17490 .cfa: sp 8 + .ra: .cfa -4 + ^ r7: .cfa -8 + ^
STACK CFI 17492 .cfa: r7 8 +
STACK CFI INIT 174a2 2 .cfa: sp 0 +
STACK CFI INIT 174a4 2 .cfa: sp 0 +
STACK CFI INIT 174a6 2 .cfa: sp 0 +
STACK CFI INIT 174a8 2 .cfa: sp 0 +
STACK CFI INIT 174aa 2 .cfa: sp 0 +
STACK CFI INIT 174ac 4 .cfa: sp 0 +
STACK CFI INIT 174b0 4b4 .cfa: sp 0 +
STACK CFI 174b2 .cfa: sp 20 + .ra: .cfa -4 + ^ r7: .cfa -8 + ^ r6: .cfa -12 + ^ r5: .cfa -16 + ^ r4: .cfa -20 + ^
STACK CFI 174b4 .cfa: r7 8 +
STACK CFI 174b8 r11: .cfa -24 + ^ r10: .cfa -28 + ^ r9: .cfa -32 + ^ r8: .cfa -36 + ^
STACK CFI INIT 0 24 .cfa: sp 0 +
STACK CFI 2 .cfa: sp 8 + .ra: .cfa -4 + ^ r7: .cfa -8 + ^
STACK CFI 4 .cfa: r7 8 +
STACK CFI INIT 17964 250 .cfa: sp 0 +
STACK CFI 17966 .cfa: sp 20 + .ra: .cfa -4 + ^ r7: .cfa -8 + ^ r6: .cfa -12 + ^ r5: .cfa -16 + ^ r4: .cfa -20 + ^
STACK CFI 17968 .cfa: r7 8 +
STACK CFI 1796c r11: .cfa -24 + ^ r10: .cfa -28 + ^ r9: .cfa -32 + ^ r8: .cfa -36 + ^
STACK CFI INIT 17bb4 54 .cfa: sp 0 +
STACK CFI 17bb6 .cfa: sp 20 + .ra: .cfa -4 + ^ r7: .cfa -8 + ^ r6: .cfa -12 + ^ r5: .cfa -16 + ^ r4: .cfa -20 + ^
STACK CFI 17bb8 .cfa: r7 8 +
STACK CFI 17bbc r8: .cfa -24 + ^
STACK CFI INIT 17c08 d0 .cfa: sp 0 +
STACK CFI 17c0a .cfa: sp 16 + .ra: .cfa -4 + ^ r7: .cfa -8 + ^ r5: .cfa -12 + ^ r4: .cfa -16 + ^
STACK CFI 17c0c .cfa: r7 8 +
STACK CFI INIT 0 14 .cfa: sp 0 +
STACK CFI 2 .cfa: sp 8 + .ra: .cfa -4 + ^ r7: .cfa -8 + ^
STACK CFI 4 .cfa: r7 8 +
STACK CFI INIT 17cd8 22 .cfa: sp 0 +
STACK CFI 17cda .cfa: sp 16 + .ra: .cfa -4 + ^ r7: .cfa -8 + ^ r6: .cfa -12 + ^ r4: .cfa -16 + ^
STACK CFI 17cdc .cfa: r7 8 +
STACK CFI INIT 17cfa 4c .cfa: sp 0 +
STACK CFI 17cfc .cfa: sp 20 + .ra: .cfa -4 + ^ r7: .cfa -8 + ^ r6: .cfa -12 + ^ r5: .cfa -16 + ^ r4: .cfa -20 + ^
STACK CFI 17cfe .cfa: r7 8 +
STACK CFI 17d02 r11: .cfa -24 + ^
STACK CFI INIT 17d48 150 .cfa: sp 0 +
STACK CFI 17d4a .cfa: sp 20 + .ra: .cfa -4 + ^ r7: .cfa -8 + ^ r6: .cfa -12 + ^ r5: .cfa -16 + ^ r4: .cfa -20 + ^
STACK CFI 17d4c .cfa: r7 8 +
STACK CFI 17d50 r11: .cfa -24 + ^ r9: .cfa -28 + ^ r8: .cfa -32 + ^
STACK CFI INIT 17e98 39a4 .cfa: sp 0 +
STACK CFI 17e9a .cfa: sp 20 + .ra: .cfa -4 + ^ r7: .cfa -8 + ^ r6: .cfa -12 + ^ r5: .cfa -16 + ^ r4: .cfa -20 + ^
STACK CFI 17e9c .cfa: r7 8 +
STACK CFI 17ea0 r11: .cfa -24 + ^ r10: .cfa -28 + ^ r9: .cfa -32 + ^ r8: .cfa -36 + ^
STACK CFI INIT 1bd20 c6 .cfa: sp 0 +
STACK CFI 1bd22 .cfa: sp 20 + .ra: .cfa -4 + ^ r7: .cfa -8 + ^ r6: .cfa -12 + ^ r5: .cfa -16 + ^ r4: .cfa -20 + ^
STACK CFI 1bd24 .cfa: r7 8 +
STACK CFI 1bd28 r10: .cfa -24 + ^ r9: .cfa -28 + ^ r8: .cfa -32 + ^
STACK CFI INIT 1bde8 a8 .cfa: sp 0 +
STACK CFI 1bdea .cfa: sp 20 + .ra: .cfa -4 + ^ r7: .cfa -8 + ^ r6: .cfa -12 + ^ r5: .cfa -16 + ^ r4: .cfa -20 + ^
STACK CFI 1bdec .cfa: r7 8 +
STACK CFI 1bdf0 r10: .cfa -24 + ^ r9: .cfa -28 + ^ r8: .cfa -32 + ^
STACK CFI INIT 1be90 10 .cfa: sp 0 +
STACK CFI 1be92 .cfa: sp 8 + .ra: .cfa -4 + ^ r7: .cfa -8 + ^
STACK CFI 1be94 .cfa: r7 8 +
STACK CFI INIT 1bea0 44 .cfa: sp 0 +
STACK CFI 1bec8 .cfa: sp 16 + .ra: .cfa -4 + ^ r7: .cfa -8 + ^ r6: .cfa -12 + ^ r4: .cfa -16 + ^
STACK CFI 1beca .cfa: r7 8 +
STACK CFI INIT 1bee4 44 .cfa: sp 0 +
STACK CFI 1bee6 .cfa: sp 16 + .ra: .cfa -4 + ^ r7: .cfa -8 + ^ r6: .cfa -12 + ^ r4: .cfa -16 + ^
STACK CFI 1bee8 .cfa: r7 8 +
STACK CFI INIT 1bf28 6 .cfa: sp 0 +
STACK CFI INIT 1bf2e a .cfa: sp 0 +
STACK CFI INIT 1bf38 6 .cfa: sp 0 +
STACK CFI INIT 1bf3e 6 .cfa: sp 0 +
STACK CFI INIT 1bf44 6 .cfa: sp 0 +
STACK CFI INIT 1bf4a a .cfa: sp 0 +
STACK CFI INIT 1bf54 38 .cfa: sp 0 +
STACK CFI 1bf56 .cfa: sp 16 + .ra: .cfa -4 + ^ r7: .cfa -8 + ^ r5: .cfa -12 + ^ r4: .cfa -16 + ^
STACK CFI 1bf58 .cfa: r7 8 +
STACK CFI INIT 1bf8c 18 .cfa: sp 0 +
STACK CFI 1bf8e .cfa: sp 8 + .ra: .cfa -4 + ^ r7: .cfa -8 + ^
STACK CFI 1bf90 .cfa: r7 8 +
STACK CFI INIT 1bfa4 5c .cfa: sp 0 +
STACK CFI 1bfa6 .cfa: sp 20 + .ra: .cfa -4 + ^ r7: .cfa -8 + ^ r6: .cfa -12 + ^ r5: .cfa -16 + ^ r4: .cfa -20 + ^
STACK CFI 1bfa8 .cfa: r7 8 +
STACK CFI 1bfac r8: .cfa -24 + ^
STACK CFI INIT 1c000 10 .cfa: sp 0 +
STACK CFI 1c002 .cfa: sp 8 + .ra: .cfa -4 + ^ r7: .cfa -8 + ^
STACK CFI 1c004 .cfa: r7 8 +
STACK CFI INIT 1c010 4a .cfa: sp 0 +
STACK CFI 1c012 .cfa: sp 20 + .ra: .cfa -4 + ^ r7: .cfa -8 + ^ r6: .cfa -12 + ^ r5: .cfa -16 + ^ r4: .cfa -20 + ^
STACK CFI 1c014 .cfa: r7 8 +
STACK CFI 1c018 r11: .cfa -24 + ^
STACK CFI INIT 1c05a 4e .cfa: sp 0 +
STACK CFI 1c05c .cfa: sp 20 + .ra: .cfa -4 + ^ r7: .cfa -8 + ^ r6: .cfa -12 + ^ r5: .cfa -16 + ^ r4: .cfa -20 + ^
STACK CFI 1c05e .cfa: r7 8 +
STACK CFI 1c062 r8: .cfa -24 + ^
STACK CFI INIT 1c0a8 10 .cfa: sp 0 +
STACK CFI 1c0aa .cfa: sp 8 + .ra: .cfa -4 + ^ r7: .cfa -8 + ^
STACK CFI 1c0ac .cfa: r7 8 +
STACK CFI INIT 1c0b8 3a .cfa: sp 0 +
STACK CFI 1c0ba .cfa: sp 20 + .ra: .cfa -4 + ^ r7: .cfa -8 + ^ r6: .cfa -12 + ^ r5: .cfa -16 + ^ r4: .cfa -20 + ^
STACK CFI 1c0bc .cfa: r7 8 +
STACK CFI 1c0c0 r11: .cfa -24 + ^
STACK CFI INIT 1c0f4 c4 .cfa: sp 0 +
STACK CFI 1c0f6 .cfa: sp 20 + .ra: .cfa -4 + ^ r7: .cfa -8 + ^ r6: .cfa -12 + ^ r5: .cfa -16 + ^ r4: .cfa -20 + ^
STACK CFI 1c0f8 .cfa: r7 8 +
STACK CFI 1c0fc r11: .cfa -24 + ^
STACK CFI INIT 1c1b8 d8 .cfa: sp 0 +
STACK CFI 1c1ba .cfa: sp 20 + .ra: .cfa -4 + ^ r7: .cfa -8 + ^ r6: .cfa -12 + ^ r5: .cfa -16 + ^ r4: .cfa -20 + ^
STACK CFI 1c1bc .cfa: r7 8 +
STACK CFI 1c1c0 r11: .cfa -24 + ^ r9: .cfa -28 + ^ r8: .cfa -32 + ^
STACK CFI INIT 1b83c 4e4 .cfa: sp 0 +
STACK CFI 1b83e .cfa: sp 20 + .ra: .cfa -4 + ^ r7: .cfa -8 + ^ r6: .cfa -12 + ^ r5: .cfa -16 + ^ r4: .cfa -20 + ^
STACK CFI 1b840 .cfa: r7 8 +
STACK CFI 1b844 r11: .cfa -24 + ^ r10: .cfa -28 + ^ r9: .cfa -32 + ^ r8: .cfa -36 + ^
STACK CFI INIT 1c290 b74 .cfa: sp 0 +
STACK CFI 1c292 .cfa: sp 20 + .ra: .cfa -4 + ^ r7: .cfa -8 + ^ r6: .cfa -12 + ^ r5: .cfa -16 + ^ r4: .cfa -20 + ^
STACK CFI 1c294 .cfa: r7 8 +
STACK CFI 1c298 r11: .cfa -24 + ^ r10: .cfa -28 + ^ r9: .cfa -32 + ^ r8: .cfa -36 + ^
STACK CFI INIT 1ce04 48 .cfa: sp 0 +
STACK CFI 1ce06 .cfa: sp 12 +
STACK CFI 1ce08 .cfa: sp 20 + .ra: .cfa -16 + ^ r7: .cfa -20 + ^
STACK CFI 1ce0a .cfa: r7 20 +
STACK CFI INIT 1ce4c d8 .cfa: sp 0 +
STACK CFI 1ce4e .cfa: sp 20 + .ra: .cfa -4 + ^ r7: .cfa -8 + ^ r6: .cfa -12 + ^ r5: .cfa -16 + ^ r4: .cfa -20 + ^
STACK CFI 1ce50 .cfa: r7 8 +
STACK CFI 1ce54 r11: .cfa -24 + ^
STACK CFI INIT 1cf24 16 .cfa: sp 0 +
STACK CFI 1cf26 .cfa: sp 16 + .ra: .cfa -4 + ^ r7: .cfa -8 + ^ r6: .cfa -12 + ^ r4: .cfa -16 + ^
STACK CFI 1cf28 .cfa: r7 8 +
STACK CFI INIT 1cf3a 3e .cfa: sp 0 +
STACK CFI 1cf3c .cfa: sp 20 + .ra: .cfa -4 + ^ r7: .cfa -8 + ^ r6: .cfa -12 + ^ r5: .cfa -16 + ^ r4: .cfa -20 + ^
STACK CFI 1cf3e .cfa: r7 8 +
STACK CFI 1cf42 r11: .cfa -24 + ^
STACK CFI INIT 1cf80 130 .cfa: sp 0 +
STACK CFI 1cf82 .cfa: sp 20 + .ra: .cfa -4 + ^ r7: .cfa -8 + ^ r6: .cfa -12 + ^ r5: .cfa -16 + ^ r4: .cfa -20 + ^
STACK CFI 1cf84 .cfa: r7 8 +
STACK CFI 1cf88 r11: .cfa -24 + ^ r9: .cfa -28 + ^ r8: .cfa -32 + ^
STACK CFI INIT 1d0b0 26 .cfa: sp 0 +
STACK CFI 1d0b2 .cfa: sp 16 + .ra: .cfa -4 + ^ r7: .cfa -8 + ^ r5: .cfa -12 + ^ r4: .cfa -16 + ^
STACK CFI 1d0b4 .cfa: r7 8 +
STACK CFI INIT 1d0d8 124 .cfa: sp 0 +
STACK CFI 1d0da .cfa: sp 20 + .ra: .cfa -4 + ^ r7: .cfa -8 + ^ r6: .cfa -12 + ^ r5: .cfa -16 + ^ r4: .cfa -20 + ^
STACK CFI 1d0dc .cfa: r7 8 +
STACK CFI 1d0e0 r8: .cfa -24 + ^
STACK CFI INIT 1d1fc a .cfa: sp 0 +
STACK CFI INIT 1d206 a .cfa: sp 0 +
STACK CFI INIT 1d210 e .cfa: sp 0 +
STACK CFI INIT 1d220 1d4 .cfa: sp 0 +
STACK CFI 1d222 .cfa: sp 20 + .ra: .cfa -4 + ^ r7: .cfa -8 + ^ r6: .cfa -12 + ^ r5: .cfa -16 + ^ r4: .cfa -20 + ^
STACK CFI 1d224 .cfa: r7 8 +
STACK CFI 1d228 r10: .cfa -24 + ^ r9: .cfa -28 + ^ r8: .cfa -32 + ^
STACK CFI INIT 1d3f4 8 .cfa: sp 0 +
STACK CFI INIT 1d3fc 2 .cfa: sp 0 +
STACK CFI INIT 1d3fe 2 .cfa: sp 0 +
STACK CFI INIT 1d400 2 .cfa: sp 0 +
STACK CFI INIT 1d402 2 .cfa: sp 0 +
STACK CFI INIT 1d404 2 .cfa: sp 0 +
STACK CFI INIT 1d406 2 .cfa: sp 0 +
STACK CFI INIT 1d408 5c .cfa: sp 0 +
STACK CFI 1d40a .cfa: sp 16 + .ra: .cfa -4 + ^ r7: .cfa -8 + ^ r6: .cfa -12 + ^ r4: .cfa -16 + ^
STACK CFI 1d40c .cfa: r7 8 +
STACK CFI INIT 1d464 60 .cfa: sp 0 +
STACK CFI 1d466 .cfa: sp 16 + .ra: .cfa -4 + ^ r7: .cfa -8 + ^ r6: .cfa -12 + ^ r4: .cfa -16 + ^
STACK CFI 1d468 .cfa: r7 8 +
STACK CFI INIT 1d4c4 20 .cfa: sp 0 +
STACK CFI 1d4c6 .cfa: sp 16 + .ra: .cfa -4 + ^ r7: .cfa -8 + ^ r6: .cfa -12 + ^ r4: .cfa -16 + ^
STACK CFI 1d4c8 .cfa: r7 8 +
STACK CFI INIT 1d4e4 2 .cfa: sp 0 +
STACK CFI INIT 1d4e6 4 .cfa: sp 0 +
STACK CFI INIT 1d4ec e4 .cfa: sp 0 +
STACK CFI 1d4ee .cfa: sp 16 + .ra: .cfa -4 + ^ r7: .cfa -8 + ^ r5: .cfa -12 + ^ r4: .cfa -16 + ^
STACK CFI 1d4f0 .cfa: r7 8 +
STACK CFI INIT 1d5d0 60 .cfa: sp 0 +
STACK CFI 1d5d2 .cfa: sp 16 + .ra: .cfa -4 + ^ r7: .cfa -8 + ^ r6: .cfa -12 + ^ r4: .cfa -16 + ^
STACK CFI 1d5d4 .cfa: r7 8 +
STACK CFI INIT 1d630 64 .cfa: sp 0 +
STACK CFI 1d632 .cfa: sp 16 + .ra: .cfa -4 + ^ r7: .cfa -8 + ^ r6: .cfa -12 + ^ r4: .cfa -16 + ^
STACK CFI 1d634 .cfa: r7 8 +
STACK CFI INIT 1d694 2 .cfa: sp 0 +
STACK CFI INIT 1d696 4 .cfa: sp 0 +
STACK CFI INIT 1d69c 164 .cfa: sp 0 +
STACK CFI 1d69e .cfa: sp 20 + .ra: .cfa -4 + ^ r7: .cfa -8 + ^ r6: .cfa -12 + ^ r5: .cfa -16 + ^ r4: .cfa -20 + ^
STACK CFI 1d6a0 .cfa: r7 8 +
STACK CFI 1d6a4 r10: .cfa -24 + ^ r9: .cfa -28 + ^ r8: .cfa -32 + ^
STACK CFI INIT 1d800 3c .cfa: sp 0 +
STACK CFI 1d802 .cfa: sp 16 + .ra: .cfa -4 + ^ r7: .cfa -8 + ^ r5: .cfa -12 + ^ r4: .cfa -16 + ^
STACK CFI 1d804 .cfa: r7 8 +
STACK CFI INIT 1d83c 10 .cfa: sp 0 +
STACK CFI 1d83e .cfa: sp 8 + .ra: .cfa -4 + ^ r7: .cfa -8 + ^
STACK CFI 1d840 .cfa: r7 8 +
STACK CFI INIT 1d84c 2 .cfa: sp 0 +
STACK CFI INIT 1d84e 18 .cfa: sp 0 +
STACK CFI INIT 1d868 60 .cfa: sp 0 +
STACK CFI 1d86a .cfa: sp 16 + .ra: .cfa -4 + ^ r7: .cfa -8 + ^ r6: .cfa -12 + ^ r4: .cfa -16 + ^
STACK CFI 1d86c .cfa: r7 8 +
STACK CFI INIT 1d8c8 2 .cfa: sp 0 +
STACK CFI INIT 1d8ca 1c .cfa: sp 0 +
STACK CFI INIT 1d8e8 8c .cfa: sp 0 +
STACK CFI 1d8ea .cfa: sp 20 + .ra: .cfa -4 + ^ r7: .cfa -8 + ^ r6: .cfa -12 + ^ r5: .cfa -16 + ^ r4: .cfa -20 + ^
STACK CFI 1d8ec .cfa: r7 8 +
STACK CFI 1d8f0 r11: .cfa -24 + ^ r9: .cfa -28 + ^ r8: .cfa -32 + ^
STACK CFI INIT 1d974 13c .cfa: sp 0 +
STACK CFI 1d976 .cfa: sp 20 + .ra: .cfa -4 + ^ r7: .cfa -8 + ^ r6: .cfa -12 + ^ r5: .cfa -16 + ^ r4: .cfa -20 + ^
STACK CFI 1d978 .cfa: r7 8 +
STACK CFI 1d97c r11: .cfa -24 + ^ r9: .cfa -28 + ^ r8: .cfa -32 + ^
STACK CFI INIT 1dab0 468 .cfa: sp 0 +
STACK CFI 1dab2 .cfa: sp 20 + .ra: .cfa -4 + ^ r7: .cfa -8 + ^ r6: .cfa -12 + ^ r5: .cfa -16 + ^ r4: .cfa -20 + ^
STACK CFI 1dab4 .cfa: r7 8 +
STACK CFI 1dab8 r11: .cfa -24 + ^ r10: .cfa -28 + ^ r9: .cfa -32 + ^ r8: .cfa -36 + ^
STACK CFI INIT 1df18 10c .cfa: sp 0 +
STACK CFI 1df1a .cfa: sp 20 + .ra: .cfa -4 + ^ r7: .cfa -8 + ^ r6: .cfa -12 + ^ r5: .cfa -16 + ^ r4: .cfa -20 + ^
STACK CFI 1df1c .cfa: r7 8 +
STACK CFI 1df20 r11: .cfa -24 + ^
STACK CFI INIT 1e024 114 .cfa: sp 0 +
STACK CFI 1e026 .cfa: sp 20 + .ra: .cfa -4 + ^ r7: .cfa -8 + ^ r6: .cfa -12 + ^ r5: .cfa -16 + ^ r4: .cfa -20 + ^
STACK CFI 1e028 .cfa: r7 8 +
STACK CFI 1e02c r8: .cfa -24 + ^
STACK CFI INIT 1e138 bc .cfa: sp 0 +
STACK CFI 1e13a .cfa: sp 20 + .ra: .cfa -4 + ^ r7: .cfa -8 + ^ r6: .cfa -12 + ^ r5: .cfa -16 + ^ r4: .cfa -20 + ^
STACK CFI 1e13c .cfa: r7 8 +
STACK CFI 1e140 r11: .cfa -24 + ^
STACK CFI INIT 1e1f4 bc .cfa: sp 0 +
STACK CFI 1e1f6 .cfa: sp 20 + .ra: .cfa -4 + ^ r7: .cfa -8 + ^ r6: .cfa -12 + ^ r5: .cfa -16 + ^ r4: .cfa -20 + ^
STACK CFI 1e1f8 .cfa: r7 8 +
STACK CFI 1e1fc r11: .cfa -24 + ^
STACK CFI INIT 1e2b0 16c .cfa: sp 0 +
STACK CFI 1e2b2 .cfa: sp 20 + .ra: .cfa -4 + ^ r7: .cfa -8 + ^ r6: .cfa -12 + ^ r5: .cfa -16 + ^ r4: .cfa -20 + ^
STACK CFI 1e2b4 .cfa: r7 8 +
STACK CFI 1e2b8 r11: .cfa -24 + ^ r10: .cfa -28 + ^ r9: .cfa -32 + ^ r8: .cfa -36 + ^
STACK CFI INIT 1e41c 118 .cfa: sp 0 +
STACK CFI 1e41e .cfa: sp 20 + .ra: .cfa -4 + ^ r7: .cfa -8 + ^ r6: .cfa -12 + ^ r5: .cfa -16 + ^ r4: .cfa -20 + ^
STACK CFI 1e420 .cfa: r7 8 +
STACK CFI 1e424 r11: .cfa -24 + ^ r10: .cfa -28 + ^ r9: .cfa -32 + ^ r8: .cfa -36 + ^
STACK CFI INIT 1e534 120 .cfa: sp 0 +
STACK CFI 1e536 .cfa: sp 20 + .ra: .cfa -4 + ^ r7: .cfa -8 + ^ r6: .cfa -12 + ^ r5: .cfa -16 + ^ r4: .cfa -20 + ^
STACK CFI 1e538 .cfa: r7 8 +
STACK CFI 1e53c r11: .cfa -24 + ^ r10: .cfa -28 + ^ r9: .cfa -32 + ^ r8: .cfa -36 + ^
STACK CFI INIT 1e654 2c4 .cfa: sp 0 +
STACK CFI 1e656 .cfa: sp 20 + .ra: .cfa -4 + ^ r7: .cfa -8 + ^ r6: .cfa -12 + ^ r5: .cfa -16 + ^ r4: .cfa -20 + ^
STACK CFI 1e658 .cfa: r7 8 +
STACK CFI 1e65c r11: .cfa -24 + ^ r10: .cfa -28 + ^ r9: .cfa -32 + ^ r8: .cfa -36 + ^
STACK CFI INIT 1e918 10c .cfa: sp 0 +
STACK CFI 1e91a .cfa: sp 20 + .ra: .cfa -4 + ^ r7: .cfa -8 + ^ r6: .cfa -12 + ^ r5: .cfa -16 + ^ r4: .cfa -20 + ^
STACK CFI 1e91c .cfa: r7 8 +
STACK CFI 1e920 r11: .cfa -24 + ^
STACK CFI INIT 1ea24 124 .cfa: sp 0 +
STACK CFI 1ea26 .cfa: sp 20 + .ra: .cfa -4 + ^ r7: .cfa -8 + ^ r6: .cfa -12 + ^ r5: .cfa -16 + ^ r4: .cfa -20 + ^
STACK CFI 1ea28 .cfa: r7 8 +
STACK CFI 1ea2c r11: .cfa -24 + ^ r10: .cfa -28 + ^ r9: .cfa -32 + ^ r8: .cfa -36 + ^
STACK CFI INIT 1eb50 1e4 .cfa: sp 0 +
STACK CFI 1eb52 .cfa: sp 20 + .ra: .cfa -4 + ^ r7: .cfa -8 + ^ r6: .cfa -12 + ^ r5: .cfa -16 + ^ r4: .cfa -20 + ^
STACK CFI 1eb54 .cfa: r7 8 +
STACK CFI 1eb58 r11: .cfa -24 + ^ r10: .cfa -28 + ^ r9: .cfa -32 + ^ r8: .cfa -36 + ^
STACK CFI INIT 1ed34 fa .cfa: sp 0 +
STACK CFI 1ed36 .cfa: sp 20 + .ra: .cfa -4 + ^ r7: .cfa -8 + ^ r6: .cfa -12 + ^ r5: .cfa -16 + ^ r4: .cfa -20 + ^
STACK CFI 1ed38 .cfa: r7 8 +
STACK CFI 1ed3c r11: .cfa -24 + ^ r10: .cfa -28 + ^ r9: .cfa -32 + ^ r8: .cfa -36 + ^
STACK CFI INIT 1ee30 1e4 .cfa: sp 0 +
STACK CFI 1ee32 .cfa: sp 20 + .ra: .cfa -4 + ^ r7: .cfa -8 + ^ r6: .cfa -12 + ^ r5: .cfa -16 + ^ r4: .cfa -20 + ^
STACK CFI 1ee34 .cfa: r7 8 +
STACK CFI 1ee38 r11: .cfa -24 + ^ r10: .cfa -28 + ^ r9: .cfa -32 + ^ r8: .cfa -36 + ^
STACK CFI INIT 1f014 118 .cfa: sp 0 +
STACK CFI 1f016 .cfa: sp 16 + .ra: .cfa -4 + ^ r7: .cfa -8 + ^ r5: .cfa -12 + ^ r4: .cfa -16 + ^
STACK CFI 1f018 .cfa: r7 8 +
STACK CFI INIT 1f12c e0 .cfa: sp 0 +
STACK CFI 1f12e .cfa: sp 20 + .ra: .cfa -4 + ^ r7: .cfa -8 + ^ r6: .cfa -12 + ^ r5: .cfa -16 + ^ r4: .cfa -20 + ^
STACK CFI 1f130 .cfa: r7 8 +
STACK CFI 1f134 r8: .cfa -24 + ^
STACK CFI INIT 1f20c dc .cfa: sp 0 +
STACK CFI 1f20e .cfa: sp 20 + .ra: .cfa -4 + ^ r7: .cfa -8 + ^ r6: .cfa -12 + ^ r5: .cfa -16 + ^ r4: .cfa -20 + ^
STACK CFI 1f210 .cfa: r7 8 +
STACK CFI 1f214 r8: .cfa -24 + ^
STACK CFI INIT 1f2e8 e0 .cfa: sp 0 +
STACK CFI 1f2ea .cfa: sp 20 + .ra: .cfa -4 + ^ r7: .cfa -8 + ^ r6: .cfa -12 + ^ r5: .cfa -16 + ^ r4: .cfa -20 + ^
STACK CFI 1f2ec .cfa: r7 8 +
STACK CFI 1f2f0 r8: .cfa -24 + ^
STACK CFI INIT 1f3c8 60 .cfa: sp 0 +
STACK CFI 1f3ca .cfa: sp 8 + .ra: .cfa -4 + ^ r7: .cfa -8 + ^
STACK CFI 1f3cc .cfa: r7 8 +
STACK CFI INIT 1f428 106 .cfa: sp 0 +
STACK CFI 1f42a .cfa: sp 20 + .ra: .cfa -4 + ^ r7: .cfa -8 + ^ r6: .cfa -12 + ^ r5: .cfa -16 + ^ r4: .cfa -20 + ^
STACK CFI 1f42c .cfa: r7 8 +
STACK CFI 1f430 r11: .cfa -24 + ^ r10: .cfa -28 + ^ r9: .cfa -32 + ^ r8: .cfa -36 + ^
STACK CFI INIT 1f530 60 .cfa: sp 0 +
STACK CFI 1f532 .cfa: sp 8 + .ra: .cfa -4 + ^ r7: .cfa -8 + ^
STACK CFI 1f534 .cfa: r7 8 +
STACK CFI INIT 1f590 24c .cfa: sp 0 +
STACK CFI 1f592 .cfa: sp 20 + .ra: .cfa -4 + ^ r7: .cfa -8 + ^ r6: .cfa -12 + ^ r5: .cfa -16 + ^ r4: .cfa -20 + ^
STACK CFI 1f594 .cfa: r7 8 +
STACK CFI 1f598 r10: .cfa -24 + ^ r9: .cfa -28 + ^ r8: .cfa -32 + ^
STACK CFI INIT 1f7dc 44 .cfa: sp 0 +
STACK CFI 1f7de .cfa: sp 16 + .ra: .cfa -4 + ^ r7: .cfa -8 + ^ r5: .cfa -12 + ^ r4: .cfa -16 + ^
STACK CFI 1f7e0 .cfa: r7 8 +
STACK CFI INIT 1f820 40 .cfa: sp 0 +
STACK CFI 1f822 .cfa: sp 16 + .ra: .cfa -4 + ^ r7: .cfa -8 + ^ r5: .cfa -12 + ^ r4: .cfa -16 + ^
STACK CFI 1f824 .cfa: r7 8 +
STACK CFI INIT 1f860 10 .cfa: sp 0 +
STACK CFI INIT 1f870 1c .cfa: sp 0 +
STACK CFI 1f872 .cfa: sp 8 + .ra: .cfa -4 + ^ r7: .cfa -8 + ^
STACK CFI 1f874 .cfa: r7 8 +
STACK CFI INIT 1f88c 2 .cfa: sp 0 +
STACK CFI INIT 1f88e 4 .cfa: sp 0 +
STACK CFI INIT 1f892 2 .cfa: sp 0 +
STACK CFI INIT 1f894 4 .cfa: sp 0 +
STACK CFI INIT 1f898 20 .cfa: sp 0 +
STACK CFI 1f89a .cfa: sp 16 + .ra: .cfa -4 + ^ r7: .cfa -8 + ^ r6: .cfa -12 + ^ r4: .cfa -16 + ^
STACK CFI 1f89c .cfa: r7 8 +
STACK CFI INIT 1f8b8 18 .cfa: sp 0 +
STACK CFI INIT 1f8d0 2 .cfa: sp 0 +
STACK CFI INIT 1f8d2 4 .cfa: sp 0 +
STACK CFI INIT 1f8d6 12 .cfa: sp 0 +
STACK CFI INIT 1f8e8 18 .cfa: sp 0 +
STACK CFI INIT 1f900 c .cfa: sp 0 +
STACK CFI INIT 1f90c 2d0 .cfa: sp 0 +
STACK CFI 1f90e .cfa: sp 20 + .ra: .cfa -4 + ^ r7: .cfa -8 + ^ r6: .cfa -12 + ^ r5: .cfa -16 + ^ r4: .cfa -20 + ^
STACK CFI 1f910 .cfa: r7 8 +
STACK CFI 1f914 r11: .cfa -24 + ^ r10: .cfa -28 + ^ r9: .cfa -32 + ^ r8: .cfa -36 + ^
STACK CFI INIT 1fbdc 20 .cfa: sp 0 +
STACK CFI 1fbde .cfa: sp 16 + .ra: .cfa -4 + ^ r7: .cfa -8 + ^ r6: .cfa -12 + ^ r4: .cfa -16 + ^
STACK CFI 1fbe0 .cfa: r7 8 +
STACK CFI INIT 1fc00 320 .cfa: sp 0 +
STACK CFI 1fc02 .cfa: sp 20 + .ra: .cfa -4 + ^ r7: .cfa -8 + ^ r6: .cfa -12 + ^ r5: .cfa -16 + ^ r4: .cfa -20 + ^
STACK CFI 1fc04 .cfa: r7 8 +
STACK CFI 1fc08 r10: .cfa -24 + ^ r9: .cfa -28 + ^ r8: .cfa -32 + ^
STACK CFI INIT 1ff20 3a .cfa: sp 0 +
STACK CFI 1ff22 .cfa: sp 16 + .ra: .cfa -4 + ^ r7: .cfa -8 + ^ r5: .cfa -12 + ^ r4: .cfa -16 + ^
STACK CFI 1ff24 .cfa: r7 8 +
STACK CFI INIT 1ff5c 60 .cfa: sp 0 +
STACK CFI 1ff5e .cfa: sp 16 + .ra: .cfa -4 + ^ r7: .cfa -8 + ^ r6: .cfa -12 + ^ r4: .cfa -16 + ^
STACK CFI 1ff60 .cfa: r7 8 +
STACK CFI INIT 1ffbc 2 .cfa: sp 0 +
STACK CFI INIT 1ffc0 f8 .cfa: sp 0 +
STACK CFI 1ffc2 .cfa: sp 20 + .ra: .cfa -4 + ^ r7: .cfa -8 + ^ r6: .cfa -12 + ^ r5: .cfa -16 + ^ r4: .cfa -20 + ^
STACK CFI 1ffc4 .cfa: r7 8 +
STACK CFI 1ffc8 r8: .cfa -24 + ^
STACK CFI INIT 200b8 34 .cfa: sp 0 +
STACK CFI 200ba .cfa: sp 8 + .ra: .cfa -4 + ^ r7: .cfa -8 + ^
STACK CFI 200bc .cfa: r7 8 +
STACK CFI INIT 200ec d8 .cfa: sp 0 +
STACK CFI 200ee .cfa: sp 20 + .ra: .cfa -4 + ^ r7: .cfa -8 + ^ r6: .cfa -12 + ^ r5: .cfa -16 + ^ r4: .cfa -20 + ^
STACK CFI 200f0 .cfa: r7 8 +
STACK CFI 200f4 r11: .cfa -24 + ^ r10: .cfa -28 + ^ r9: .cfa -32 + ^ r8: .cfa -36 + ^
STACK CFI INIT 201c4 68 .cfa: sp 0 +
STACK CFI 201c6 .cfa: sp 20 + .ra: .cfa -4 + ^ r7: .cfa -8 + ^ r6: .cfa -12 + ^ r5: .cfa -16 + ^ r4: .cfa -20 + ^
STACK CFI 201c8 .cfa: r7 8 +
STACK CFI 201cc r11: .cfa -24 + ^
STACK CFI INIT 2022c 10 .cfa: sp 0 +
STACK CFI 2022e .cfa: sp 8 + .ra: .cfa -4 + ^ r7: .cfa -8 + ^
STACK CFI 20230 .cfa: r7 8 +
STACK CFI INIT 2023c 108 .cfa: sp 0 +
STACK CFI 2023e .cfa: sp 20 + .ra: .cfa -4 + ^ r7: .cfa -8 + ^ r6: .cfa -12 + ^ r5: .cfa -16 + ^ r4: .cfa -20 + ^
STACK CFI 20240 .cfa: r7 8 +
STACK CFI 20244 r11: .cfa -24 + ^ r10: .cfa -28 + ^ r9: .cfa -32 + ^ r8: .cfa -36 + ^
STACK CFI INIT 20344 110 .cfa: sp 0 +
STACK CFI 20346 .cfa: sp 20 + .ra: .cfa -4 + ^ r7: .cfa -8 + ^ r6: .cfa -12 + ^ r5: .cfa -16 + ^ r4: .cfa -20 + ^
STACK CFI 20348 .cfa: r7 8 +
STACK CFI 2034c r11: .cfa -24 + ^ r10: .cfa -28 + ^ r9: .cfa -32 + ^ r8: .cfa -36 + ^
STACK CFI INIT 20454 ce .cfa: sp 0 +
STACK CFI 20456 .cfa: sp 20 + .ra: .cfa -4 + ^ r7: .cfa -8 + ^ r6: .cfa -12 + ^ r5: .cfa -16 + ^ r4: .cfa -20 + ^
STACK CFI 20458 .cfa: r7 8 +
STACK CFI 2045c r10: .cfa -24 + ^ r9: .cfa -28 + ^ r8: .cfa -32 + ^
STACK CFI INIT 20522 e0 .cfa: sp 0 +
STACK CFI 20524 .cfa: sp 20 + .ra: .cfa -4 + ^ r7: .cfa -8 + ^ r6: .cfa -12 + ^ r5: .cfa -16 + ^ r4: .cfa -20 + ^
STACK CFI 20526 .cfa: r7 8 +
STACK CFI 2052a r11: .cfa -24 + ^ r9: .cfa -28 + ^ r8: .cfa -32 + ^
STACK CFI INIT 20602 2 .cfa: sp 0 +
STACK CFI INIT 20604 e .cfa: sp 0 +
STACK CFI INIT 20612 c0 .cfa: sp 0 +
STACK CFI 20614 .cfa: sp 20 + .ra: .cfa -4 + ^ r7: .cfa -8 + ^ r6: .cfa -12 + ^ r5: .cfa -16 + ^ r4: .cfa -20 + ^
STACK CFI 20616 .cfa: r7 8 +
STACK CFI 2061a r10: .cfa -24 + ^ r9: .cfa -28 + ^ r8: .cfa -32 + ^
STACK CFI INIT 206d2 82 .cfa: sp 0 +
STACK CFI 206d4 .cfa: sp 20 + .ra: .cfa -4 + ^ r7: .cfa -8 + ^ r6: .cfa -12 + ^ r5: .cfa -16 + ^ r4: .cfa -20 + ^
STACK CFI 206d6 .cfa: r7 8 +
STACK CFI 206da r11: .cfa -24 + ^
STACK CFI INIT 20754 274 .cfa: sp 0 +
STACK CFI 20756 .cfa: sp 20 + .ra: .cfa -4 + ^ r7: .cfa -8 + ^ r6: .cfa -12 + ^ r5: .cfa -16 + ^ r4: .cfa -20 + ^
STACK CFI 20758 .cfa: r7 8 +
STACK CFI 2075c r8: .cfa -24 + ^
STACK CFI INIT 209c8 5e .cfa: sp 0 +
STACK CFI 209d0 .cfa: sp 16 + .ra: .cfa -4 + ^ r7: .cfa -8 + ^ r5: .cfa -12 + ^ r4: .cfa -16 + ^
STACK CFI 209d2 .cfa: r7 8 +
STACK CFI INIT 20a28 404 .cfa: sp 0 +
STACK CFI 20a2a .cfa: sp 20 + .ra: .cfa -4 + ^ r7: .cfa -8 + ^ r6: .cfa -12 + ^ r5: .cfa -16 + ^ r4: .cfa -20 + ^
STACK CFI 20a2c .cfa: r7 8 +
STACK CFI 20a30 r10: .cfa -24 + ^ r9: .cfa -28 + ^ r8: .cfa -32 + ^
STACK CFI INIT 20e2c 3a .cfa: sp 0 +
STACK CFI 20e2e .cfa: sp 16 + .ra: .cfa -4 + ^ r7: .cfa -8 + ^ r5: .cfa -12 + ^ r4: .cfa -16 + ^
STACK CFI 20e30 .cfa: r7 8 +
STACK CFI INIT 20e66 46 .cfa: sp 0 +
STACK CFI 20e68 .cfa: sp 16 + .ra: .cfa -4 + ^ r7: .cfa -8 + ^ r5: .cfa -12 + ^ r4: .cfa -16 + ^
STACK CFI 20e6a .cfa: r7 8 +
STACK CFI INIT 20eac 118 .cfa: sp 0 +
STACK CFI 20eae .cfa: sp 20 + .ra: .cfa -4 + ^ r7: .cfa -8 + ^ r6: .cfa -12 + ^ r5: .cfa -16 + ^ r4: .cfa -20 + ^
STACK CFI 20eb0 .cfa: r7 8 +
STACK CFI 20eb4 r11: .cfa -24 + ^
STACK CFI INIT 20fc4 1c0 .cfa: sp 0 +
STACK CFI 20fc6 .cfa: sp 20 + .ra: .cfa -4 + ^ r7: .cfa -8 + ^ r6: .cfa -12 + ^ r5: .cfa -16 + ^ r4: .cfa -20 + ^
STACK CFI 20fc8 .cfa: r7 8 +
STACK CFI 20fcc r11: .cfa -24 + ^ r10: .cfa -28 + ^ r9: .cfa -32 + ^ r8: .cfa -36 + ^
STACK CFI INIT 21184 ae .cfa: sp 0 +
STACK CFI 21186 .cfa: sp 20 + .ra: .cfa -4 + ^ r7: .cfa -8 + ^ r6: .cfa -12 + ^ r5: .cfa -16 + ^ r4: .cfa -20 + ^
STACK CFI 21188 .cfa: r7 8 +
STACK CFI 2118c r11: .cfa -24 + ^ r9: .cfa -28 + ^ r8: .cfa -32 + ^
STACK CFI INIT 21232 2 .cfa: sp 0 +
STACK CFI INIT 21234 10 .cfa: sp 0 +
STACK CFI 21236 .cfa: sp 8 + .ra: .cfa -4 + ^ r7: .cfa -8 + ^
STACK CFI 21238 .cfa: r7 8 +
STACK CFI INIT 21244 186 .cfa: sp 0 +
STACK CFI 21246 .cfa: sp 20 + .ra: .cfa -4 + ^ r7: .cfa -8 + ^ r6: .cfa -12 + ^ r5: .cfa -16 + ^ r4: .cfa -20 + ^
STACK CFI 21248 .cfa: r7 8 +
STACK CFI 2124c r11: .cfa -24 + ^ r10: .cfa -28 + ^ r9: .cfa -32 + ^ r8: .cfa -36 + ^
STACK CFI INIT 213cc 10 .cfa: sp 0 +
STACK CFI 213ce .cfa: sp 8 + .ra: .cfa -4 + ^ r7: .cfa -8 + ^
STACK CFI 213d0 .cfa: r7 8 +
STACK CFI INIT 213dc 10 .cfa: sp 0 +
STACK CFI 213de .cfa: sp 8 + .ra: .cfa -4 + ^ r7: .cfa -8 + ^
STACK CFI 213e0 .cfa: r7 8 +
STACK CFI INIT 213ec 10 .cfa: sp 0 +
STACK CFI 213ee .cfa: sp 8 + .ra: .cfa -4 + ^ r7: .cfa -8 + ^
STACK CFI 213f0 .cfa: r7 8 +
STACK CFI INIT 213fc 2 .cfa: sp 0 +
STACK CFI INIT 213fe 4 .cfa: sp 0 +
STACK CFI INIT 21404 20 .cfa: sp 0 +
STACK CFI 21406 .cfa: sp 16 + .ra: .cfa -4 + ^ r7: .cfa -8 + ^ r6: .cfa -12 + ^ r4: .cfa -16 + ^
STACK CFI 21408 .cfa: r7 8 +
STACK CFI INIT 21424 14 .cfa: sp 0 +
STACK CFI INIT 21438 2 .cfa: sp 0 +
STACK CFI INIT 2143a 4 .cfa: sp 0 +
STACK CFI INIT 2143e 8 .cfa: sp 0 +
STACK CFI INIT 21448 18 .cfa: sp 0 +
STACK CFI INIT 21460 c .cfa: sp 0 +
STACK CFI INIT 2146c ba .cfa: sp 0 +
STACK CFI 2146e .cfa: sp 20 + .ra: .cfa -4 + ^ r7: .cfa -8 + ^ r6: .cfa -12 + ^ r5: .cfa -16 + ^ r4: .cfa -20 + ^
STACK CFI 21470 .cfa: r7 8 +
STACK CFI 21474 r11: .cfa -24 + ^ r10: .cfa -28 + ^ r9: .cfa -32 + ^ r8: .cfa -36 + ^
STACK CFI INIT 21526 14a .cfa: sp 0 +
STACK CFI 21538 .cfa: sp 16 + .ra: .cfa -4 + ^ r7: .cfa -8 + ^ r6: .cfa -12 + ^ r4: .cfa -16 + ^
STACK CFI 2153a .cfa: r7 8 +
STACK CFI INIT 21670 2d0 .cfa: sp 0 +
STACK CFI 21672 .cfa: sp 20 + .ra: .cfa -4 + ^ r7: .cfa -8 + ^ r6: .cfa -12 + ^ r5: .cfa -16 + ^ r4: .cfa -20 + ^
STACK CFI 21674 .cfa: r7 8 +
STACK CFI 21678 r11: .cfa -24 + ^ r10: .cfa -28 + ^ r9: .cfa -32 + ^ r8: .cfa -36 + ^
STACK CFI INIT 21940 20 .cfa: sp 0 +
STACK CFI 21942 .cfa: sp 16 + .ra: .cfa -4 + ^ r7: .cfa -8 + ^ r6: .cfa -12 + ^ r4: .cfa -16 + ^
STACK CFI 21944 .cfa: r7 8 +
STACK CFI INIT 21960 2d0 .cfa: sp 0 +
STACK CFI 21962 .cfa: sp 20 + .ra: .cfa -4 + ^ r7: .cfa -8 + ^ r6: .cfa -12 + ^ r5: .cfa -16 + ^ r4: .cfa -20 + ^
STACK CFI 21964 .cfa: r7 8 +
STACK CFI 21968 r11: .cfa -24 + ^ r9: .cfa -28 + ^ r8: .cfa -32 + ^
STACK CFI INIT 21c30 2 .cfa: sp 0 +
STACK CFI INIT 21c34 7c .cfa: sp 0 +
STACK CFI 21c36 .cfa: sp 16 + .ra: .cfa -4 + ^ r7: .cfa -8 + ^ r6: .cfa -12 + ^ r4: .cfa -16 + ^
STACK CFI 21c38 .cfa: r7 8 +
STACK CFI INIT 21cb0 b4 .cfa: sp 0 +
STACK CFI 21cb2 .cfa: sp 20 + .ra: .cfa -4 + ^ r7: .cfa -8 + ^ r6: .cfa -12 + ^ r5: .cfa -16 + ^ r4: .cfa -20 + ^
STACK CFI 21cb4 .cfa: r7 8 +
STACK CFI 21cb8 r11: .cfa -24 + ^
STACK CFI INIT 21d64 6c .cfa: sp 0 +
STACK CFI 21d66 .cfa: sp 16 + .ra: .cfa -4 + ^ r7: .cfa -8 + ^ r5: .cfa -12 + ^ r4: .cfa -16 + ^
STACK CFI 21d68 .cfa: r7 8 +
STACK CFI INIT 21dd0 4 .cfa: sp 0 +
STACK CFI INIT 21dd4 20 .cfa: sp 0 +
STACK CFI 21dd6 .cfa: sp 16 + .ra: .cfa -4 + ^ r7: .cfa -8 + ^ r6: .cfa -12 + ^ r4: .cfa -16 + ^
STACK CFI 21dd8 .cfa: r7 8 +
STACK CFI INIT 21df4 14 .cfa: sp 0 +
STACK CFI INIT 21e08 2 .cfa: sp 0 +
STACK CFI INIT 21e0a 4 .cfa: sp 0 +
STACK CFI INIT 21e10 154 .cfa: sp 0 +
STACK CFI 21e12 .cfa: sp 20 + .ra: .cfa -4 + ^ r7: .cfa -8 + ^ r6: .cfa -12 + ^ r5: .cfa -16 + ^ r4: .cfa -20 + ^
STACK CFI 21e14 .cfa: r7 8 +
STACK CFI 21e18 r8: .cfa -24 + ^
STACK CFI INIT 21f64 18 .cfa: sp 0 +
STACK CFI INIT 21f7c c .cfa: sp 0 +
STACK CFI INIT 21f88 2f4 .cfa: sp 0 +
STACK CFI 21f8a .cfa: sp 20 + .ra: .cfa -4 + ^ r7: .cfa -8 + ^ r6: .cfa -12 + ^ r5: .cfa -16 + ^ r4: .cfa -20 + ^
STACK CFI 21f8c .cfa: r7 8 +
STACK CFI 21f90 r11: .cfa -24 + ^ r10: .cfa -28 + ^ r9: .cfa -32 + ^ r8: .cfa -36 + ^
STACK CFI INIT 2227c 20 .cfa: sp 0 +
STACK CFI 2227e .cfa: sp 16 + .ra: .cfa -4 + ^ r7: .cfa -8 + ^ r6: .cfa -12 + ^ r4: .cfa -16 + ^
STACK CFI 22280 .cfa: r7 8 +
STACK CFI INIT 2229c 2cc .cfa: sp 0 +
STACK CFI 2229e .cfa: sp 20 + .ra: .cfa -4 + ^ r7: .cfa -8 + ^ r6: .cfa -12 + ^ r5: .cfa -16 + ^ r4: .cfa -20 + ^
STACK CFI 222a0 .cfa: r7 8 +
STACK CFI 222a4 r8: .cfa -24 + ^
STACK CFI INIT 22568 2 .cfa: sp 0 +
STACK CFI INIT 2256a 44 .cfa: sp 0 +
STACK CFI 2256c .cfa: sp 20 + .ra: .cfa -4 + ^ r7: .cfa -8 + ^ r6: .cfa -12 + ^ r5: .cfa -16 + ^ r4: .cfa -20 + ^
STACK CFI 2256e .cfa: r7 8 +
STACK CFI 22572 r8: .cfa -24 + ^
STACK CFI INIT 225b0 200 .cfa: sp 0 +
STACK CFI 225b2 .cfa: sp 20 + .ra: .cfa -4 + ^ r7: .cfa -8 + ^ r6: .cfa -12 + ^ r5: .cfa -16 + ^ r4: .cfa -20 + ^
STACK CFI 225b4 .cfa: r7 8 +
STACK CFI 225b8 r11: .cfa -24 + ^ r9: .cfa -28 + ^ r8: .cfa -32 + ^
STACK CFI INIT 227b0 6c .cfa: sp 0 +
STACK CFI 227b2 .cfa: sp 16 + .ra: .cfa -4 + ^ r7: .cfa -8 + ^ r5: .cfa -12 + ^ r4: .cfa -16 + ^
STACK CFI 227b4 .cfa: r7 8 +
STACK CFI INIT 2281c 6c .cfa: sp 0 +
STACK CFI 2281e .cfa: sp 16 + .ra: .cfa -4 + ^ r7: .cfa -8 + ^ r5: .cfa -12 + ^ r4: .cfa -16 + ^
STACK CFI 22820 .cfa: r7 8 +
STACK CFI INIT 22888 30 .cfa: sp 0 +
STACK CFI 2288a .cfa: sp 16 + .ra: .cfa -4 + ^ r7: .cfa -8 + ^ r5: .cfa -12 + ^ r4: .cfa -16 + ^
STACK CFI 2288c .cfa: r7 8 +
STACK CFI INIT 228b8 118 .cfa: sp 0 +
STACK CFI 228ba .cfa: sp 20 + .ra: .cfa -4 + ^ r7: .cfa -8 + ^ r6: .cfa -12 + ^ r5: .cfa -16 + ^ r4: .cfa -20 + ^
STACK CFI 228bc .cfa: r7 8 +
STACK CFI 228c0 r11: .cfa -24 + ^
STACK CFI INIT 229d0 2 .cfa: sp 0 +
STACK CFI INIT 229d4 2d0 .cfa: sp 0 +
STACK CFI 229d6 .cfa: sp 20 + .ra: .cfa -4 + ^ r7: .cfa -8 + ^ r6: .cfa -12 + ^ r5: .cfa -16 + ^ r4: .cfa -20 + ^
STACK CFI 229d8 .cfa: r7 8 +
STACK CFI 229dc r11: .cfa -24 + ^ r10: .cfa -28 + ^ r9: .cfa -32 + ^ r8: .cfa -36 + ^
STACK CFI INIT 22ca4 20 .cfa: sp 0 +
STACK CFI 22ca6 .cfa: sp 16 + .ra: .cfa -4 + ^ r7: .cfa -8 + ^ r6: .cfa -12 + ^ r4: .cfa -16 + ^
STACK CFI 22ca8 .cfa: r7 8 +
STACK CFI INIT 22cc4 2d8 .cfa: sp 0 +
STACK CFI 22cc6 .cfa: sp 20 + .ra: .cfa -4 + ^ r7: .cfa -8 + ^ r6: .cfa -12 + ^ r5: .cfa -16 + ^ r4: .cfa -20 + ^
STACK CFI 22cc8 .cfa: r7 8 +
STACK CFI 22ccc r8: .cfa -24 + ^
STACK CFI INIT 22f9c 2 .cfa: sp 0 +
STACK CFI INIT 22fa0 7c .cfa: sp 0 +
STACK CFI 22fa2 .cfa: sp 16 + .ra: .cfa -4 + ^ r7: .cfa -8 + ^ r6: .cfa -12 + ^ r4: .cfa -16 + ^
STACK CFI 22fa4 .cfa: r7 8 +
STACK CFI INIT 2301c b8 .cfa: sp 0 +
STACK CFI 2301e .cfa: sp 20 + .ra: .cfa -4 + ^ r7: .cfa -8 + ^ r6: .cfa -12 + ^ r5: .cfa -16 + ^ r4: .cfa -20 + ^
STACK CFI 23020 .cfa: r7 8 +
STACK CFI 23024 r11: .cfa -24 + ^
STACK CFI INIT 230d4 60 .cfa: sp 0 +
STACK CFI 230d6 .cfa: sp 16 + .ra: .cfa -4 + ^ r7: .cfa -8 + ^ r6: .cfa -12 + ^ r4: .cfa -16 + ^
STACK CFI 230d8 .cfa: r7 8 +
STACK CFI INIT 23134 4 .cfa: sp 0 +
STACK CFI INIT 23138 20 .cfa: sp 0 +
STACK CFI 2313a .cfa: sp 16 + .ra: .cfa -4 + ^ r7: .cfa -8 + ^ r6: .cfa -12 + ^ r4: .cfa -16 + ^
STACK CFI 2313c .cfa: r7 8 +
STACK CFI INIT 23158 18 .cfa: sp 0 +
STACK CFI INIT 23170 2 .cfa: sp 0 +
STACK CFI INIT 23172 4 .cfa: sp 0 +
STACK CFI INIT 23178 2a4 .cfa: sp 0 +
STACK CFI 2317a .cfa: sp 20 + .ra: .cfa -4 + ^ r7: .cfa -8 + ^ r6: .cfa -12 + ^ r5: .cfa -16 + ^ r4: .cfa -20 + ^
STACK CFI 2317c .cfa: r7 8 +
STACK CFI 23180 r11: .cfa -24 + ^ r9: .cfa -28 + ^ r8: .cfa -32 + ^
STACK CFI INIT 2341c 18 .cfa: sp 0 +
STACK CFI INIT 23434 c .cfa: sp 0 +
STACK CFI INIT 23440 2f4 .cfa: sp 0 +
STACK CFI 23442 .cfa: sp 20 + .ra: .cfa -4 + ^ r7: .cfa -8 + ^ r6: .cfa -12 + ^ r5: .cfa -16 + ^ r4: .cfa -20 + ^
STACK CFI 23444 .cfa: r7 8 +
STACK CFI 23448 r11: .cfa -24 + ^ r10: .cfa -28 + ^ r9: .cfa -32 + ^ r8: .cfa -36 + ^
STACK CFI INIT 23734 20 .cfa: sp 0 +
STACK CFI 23736 .cfa: sp 16 + .ra: .cfa -4 + ^ r7: .cfa -8 + ^ r6: .cfa -12 + ^ r4: .cfa -16 + ^
STACK CFI 23738 .cfa: r7 8 +
STACK CFI INIT 23754 2cc .cfa: sp 0 +
STACK CFI 23756 .cfa: sp 20 + .ra: .cfa -4 + ^ r7: .cfa -8 + ^ r6: .cfa -12 + ^ r5: .cfa -16 + ^ r4: .cfa -20 + ^
STACK CFI 23758 .cfa: r7 8 +
STACK CFI 2375c r8: .cfa -24 + ^
STACK CFI INIT 23a20 2 .cfa: sp 0 +
STACK CFI INIT 23a24 114 .cfa: sp 0 +
STACK CFI 23a26 .cfa: sp 20 + .ra: .cfa -4 + ^ r7: .cfa -8 + ^ r6: .cfa -12 + ^ r5: .cfa -16 + ^ r4: .cfa -20 + ^
STACK CFI 23a28 .cfa: r7 8 +
STACK CFI 23a2c r8: .cfa -24 + ^
STACK CFI INIT 23b38 e0 .cfa: sp 0 +
STACK CFI 23b3a .cfa: sp 20 + .ra: .cfa -4 + ^ r7: .cfa -8 + ^ r6: .cfa -12 + ^ r5: .cfa -16 + ^ r4: .cfa -20 + ^
STACK CFI 23b3c .cfa: r7 8 +
STACK CFI 23b40 r11: .cfa -24 + ^ r9: .cfa -28 + ^ r8: .cfa -32 + ^
STACK CFI INIT 23c18 e0 .cfa: sp 0 +
STACK CFI 23c1a .cfa: sp 20 + .ra: .cfa -4 + ^ r7: .cfa -8 + ^ r6: .cfa -12 + ^ r5: .cfa -16 + ^ r4: .cfa -20 + ^
STACK CFI 23c1c .cfa: r7 8 +
STACK CFI 23c20 r11: .cfa -24 + ^ r9: .cfa -28 + ^ r8: .cfa -32 + ^
STACK CFI INIT 23cf8 48 .cfa: sp 0 +
STACK CFI 23cfa .cfa: sp 16 + .ra: .cfa -4 + ^ r7: .cfa -8 + ^ r5: .cfa -12 + ^ r4: .cfa -16 + ^
STACK CFI 23cfc .cfa: r7 8 +
STACK CFI INIT 23d40 118 .cfa: sp 0 +
STACK CFI 23d42 .cfa: sp 20 + .ra: .cfa -4 + ^ r7: .cfa -8 + ^ r6: .cfa -12 + ^ r5: .cfa -16 + ^ r4: .cfa -20 + ^
STACK CFI 23d44 .cfa: r7 8 +
STACK CFI 23d48 r11: .cfa -24 + ^
STACK CFI INIT 23e58 2 .cfa: sp 0 +
STACK CFI INIT 23e5c 2f4 .cfa: sp 0 +
STACK CFI 23e5e .cfa: sp 20 + .ra: .cfa -4 + ^ r7: .cfa -8 + ^ r6: .cfa -12 + ^ r5: .cfa -16 + ^ r4: .cfa -20 + ^
STACK CFI 23e60 .cfa: r7 8 +
STACK CFI 23e64 r11: .cfa -24 + ^ r10: .cfa -28 + ^ r9: .cfa -32 + ^ r8: .cfa -36 + ^
STACK CFI INIT 24150 20 .cfa: sp 0 +
STACK CFI 24152 .cfa: sp 16 + .ra: .cfa -4 + ^ r7: .cfa -8 + ^ r6: .cfa -12 + ^ r4: .cfa -16 + ^
STACK CFI 24154 .cfa: r7 8 +
STACK CFI INIT 24170 3a8 .cfa: sp 0 +
STACK CFI 24172 .cfa: sp 20 + .ra: .cfa -4 + ^ r7: .cfa -8 + ^ r6: .cfa -12 + ^ r5: .cfa -16 + ^ r4: .cfa -20 + ^
STACK CFI 24174 .cfa: r7 8 +
STACK CFI 24178 r11: .cfa -24 + ^ r10: .cfa -28 + ^ r9: .cfa -32 + ^ r8: .cfa -36 + ^
STACK CFI INIT 24518 2 .cfa: sp 0 +
STACK CFI INIT 2451c 150 .cfa: sp 0 +
STACK CFI 2451e .cfa: sp 20 + .ra: .cfa -4 + ^ r7: .cfa -8 + ^ r6: .cfa -12 + ^ r5: .cfa -16 + ^ r4: .cfa -20 + ^
STACK CFI 24520 .cfa: r7 8 +
STACK CFI 24524 r11: .cfa -24 + ^ r9: .cfa -28 + ^ r8: .cfa -32 + ^
STACK CFI INIT 2466c 10 .cfa: sp 0 +
STACK CFI 2466e .cfa: sp 8 + .ra: .cfa -4 + ^ r7: .cfa -8 + ^
STACK CFI 24670 .cfa: r7 8 +
STACK CFI INIT 2467c 48 .cfa: sp 0 +
STACK CFI 2467e .cfa: sp 16 + .ra: .cfa -4 + ^ r7: .cfa -8 + ^ r5: .cfa -12 + ^ r4: .cfa -16 + ^
STACK CFI 24680 .cfa: r7 8 +
STACK CFI INIT 246c4 11c .cfa: sp 0 +
STACK CFI 246c6 .cfa: sp 20 + .ra: .cfa -4 + ^ r7: .cfa -8 + ^ r6: .cfa -12 + ^ r5: .cfa -16 + ^ r4: .cfa -20 + ^
STACK CFI 246c8 .cfa: r7 8 +
STACK CFI 246cc r11: .cfa -24 + ^
STACK CFI INIT 247e0 2 .cfa: sp 0 +
STACK CFI INIT 247e4 a8 .cfa: sp 0 +
STACK CFI 247e6 .cfa: sp 20 + .ra: .cfa -4 + ^ r7: .cfa -8 + ^ r6: .cfa -12 + ^ r5: .cfa -16 + ^ r4: .cfa -20 + ^
STACK CFI 247e8 .cfa: r7 8 +
STACK CFI 247ec r11: .cfa -24 + ^
STACK CFI INIT 2488c 3c .cfa: sp 0 +
STACK CFI 2488e .cfa: sp 20 + .ra: .cfa -4 + ^ r7: .cfa -8 + ^ r6: .cfa -12 + ^ r5: .cfa -16 + ^ r4: .cfa -20 + ^
STACK CFI 24890 .cfa: r7 8 +
STACK CFI 24894 r11: .cfa -24 + ^
STACK CFI INIT 248c8 c .cfa: sp 0 +
STACK CFI INIT 248d4 6 .cfa: sp 0 +
STACK CFI INIT 248dc 7a4 .cfa: sp 0 +
STACK CFI 248de .cfa: sp 20 + .ra: .cfa -4 + ^ r7: .cfa -8 + ^ r6: .cfa -12 + ^ r5: .cfa -16 + ^ r4: .cfa -20 + ^
STACK CFI 248e0 .cfa: r7 8 +
STACK CFI 248e4 r11: .cfa -24 + ^ r10: .cfa -28 + ^ r9: .cfa -32 + ^ r8: .cfa -36 + ^
STACK CFI INIT 25080 a .cfa: sp 0 +
STACK CFI INIT 2508a 16 .cfa: sp 0 +
STACK CFI INIT 250a0 12 .cfa: sp 0 +
STACK CFI INIT 250b2 6 .cfa: sp 0 +
STACK CFI INIT 250b8 4 .cfa: sp 0 +
STACK CFI INIT 250bc 2 .cfa: sp 0 +
STACK CFI INIT 250be 4 .cfa: sp 0 +
STACK CFI INIT 250c2 c .cfa: sp 0 +
STACK CFI INIT 250ce 2 .cfa: sp 0 +
STACK CFI INIT 250d0 2 .cfa: sp 0 +
STACK CFI INIT 250d2 4 .cfa: sp 0 +
STACK CFI INIT 250d6 4 .cfa: sp 0 +
STACK CFI INIT 250da 4 .cfa: sp 0 +
STACK CFI INIT 250de 4 .cfa: sp 0 +
STACK CFI INIT 250e2 4 .cfa: sp 0 +
STACK CFI INIT 250e6 2 .cfa: sp 0 +
STACK CFI INIT 250e8 2 .cfa: sp 0 +
STACK CFI INIT 250ea 6 .cfa: sp 0 +
STACK CFI INIT 250f0 6 .cfa: sp 0 +
STACK CFI INIT 250f6 6 .cfa: sp 0 +
STACK CFI INIT 250fc 6 .cfa: sp 0 +
STACK CFI INIT 25102 c .cfa: sp 0 +
STACK CFI INIT 2510e 18 .cfa: sp 0 +
STACK CFI INIT 25126 c .cfa: sp 0 +
STACK CFI INIT 25132 18 .cfa: sp 0 +
STACK CFI INIT 2514a 4 .cfa: sp 0 +
STACK CFI INIT 2514e 4 .cfa: sp 0 +
STACK CFI INIT 25152 2 .cfa: sp 0 +
STACK CFI INIT 25154 2 .cfa: sp 0 +
STACK CFI INIT 25156 6 .cfa: sp 0 +
STACK CFI INIT 2515c 4 .cfa: sp 0 +
STACK CFI INIT 25160 6 .cfa: sp 0 +
STACK CFI INIT 25166 4 .cfa: sp 0 +
STACK CFI INIT 2516a 14 .cfa: sp 0 +
STACK CFI INIT 2517e 20 .cfa: sp 0 +
STACK CFI INIT 2519e 14 .cfa: sp 0 +
STACK CFI INIT 251b2 20 .cfa: sp 0 +
STACK CFI INIT 251d2 4 .cfa: sp 0 +
STACK CFI INIT 251d6 4 .cfa: sp 0 +
STACK CFI INIT 251da 2 .cfa: sp 0 +
STACK CFI INIT 251dc 2 .cfa: sp 0 +
STACK CFI INIT 251de 4 .cfa: sp 0 +
STACK CFI INIT 251e2 4 .cfa: sp 0 +
STACK CFI INIT 251e6 4 .cfa: sp 0 +
STACK CFI INIT 251ea 4 .cfa: sp 0 +
STACK CFI INIT 251ee 4 .cfa: sp 0 +
STACK CFI INIT 251f2 4 .cfa: sp 0 +
STACK CFI INIT 251f6 18 .cfa: sp 0 +
STACK CFI 251f8 .cfa: sp 16 + .ra: .cfa -4 + ^ r7: .cfa -8 + ^ r6: .cfa -12 + ^ r4: .cfa -16 + ^
STACK CFI 251fa .cfa: r7 8 +
STACK CFI INIT 2520e 4 .cfa: sp 0 +
STACK CFI INIT 25212 4 .cfa: sp 0 +
STACK CFI INIT 25218 3c .cfa: sp 0 +
STACK CFI 2521a .cfa: sp 16 + .ra: .cfa -4 + ^ r7: .cfa -8 + ^ r6: .cfa -12 + ^ r4: .cfa -16 + ^
STACK CFI 2521c .cfa: r7 8 +
STACK CFI INIT 25254 40 .cfa: sp 0 +
STACK CFI 25256 .cfa: sp 16 + .ra: .cfa -4 + ^ r7: .cfa -8 + ^ r6: .cfa -12 + ^ r4: .cfa -16 + ^
STACK CFI 25258 .cfa: r7 8 +
STACK CFI INIT 25294 10 .cfa: sp 0 +
STACK CFI 25296 .cfa: sp 8 + .ra: .cfa -4 + ^ r7: .cfa -8 + ^
STACK CFI 25298 .cfa: r7 8 +
STACK CFI INIT 252a4 ec .cfa: sp 0 +
STACK CFI 252a6 .cfa: sp 20 + .ra: .cfa -4 + ^ r7: .cfa -8 + ^ r6: .cfa -12 + ^ r5: .cfa -16 + ^ r4: .cfa -20 + ^
STACK CFI 252a8 .cfa: r7 8 +
STACK CFI 252ac r11: .cfa -24 + ^ r9: .cfa -28 + ^ r8: .cfa -32 + ^
STACK CFI INIT 25390 4c .cfa: sp 0 +
STACK CFI 25392 .cfa: sp 20 + .ra: .cfa -4 + ^ r7: .cfa -8 + ^ r6: .cfa -12 + ^ r5: .cfa -16 + ^ r4: .cfa -20 + ^
STACK CFI 25394 .cfa: r7 8 +
STACK CFI 25398 r8: .cfa -24 + ^
STACK CFI INIT 253dc 3a .cfa: sp 0 +
STACK CFI 253de .cfa: sp 20 + .ra: .cfa -4 + ^ r7: .cfa -8 + ^ r6: .cfa -12 + ^ r5: .cfa -16 + ^ r4: .cfa -20 + ^
STACK CFI 253e0 .cfa: r7 8 +
STACK CFI 253e4 r11: .cfa -24 + ^
STACK CFI INIT 0 20 .cfa: sp 0 +
STACK CFI 2 .cfa: sp 16 + .ra: .cfa -4 + ^ r7: .cfa -8 + ^ r6: .cfa -12 + ^ r4: .cfa -16 + ^
STACK CFI 4 .cfa: r7 8 +
STACK CFI INIT 25418 20 .cfa: sp 0 +
STACK CFI 2541a .cfa: sp 16 + .ra: .cfa -4 + ^ r7: .cfa -8 + ^ r6: .cfa -12 + ^ r4: .cfa -16 + ^
STACK CFI 2541c .cfa: r7 8 +
STACK CFI INIT 25438 28 .cfa: sp 0 +
STACK CFI 2543a .cfa: sp 16 + .ra: .cfa -4 + ^ r7: .cfa -8 + ^ r5: .cfa -12 + ^ r4: .cfa -16 + ^
STACK CFI 2543c .cfa: r7 8 +
STACK CFI INIT 25460 cc .cfa: sp 0 +
STACK CFI 25462 .cfa: sp 16 + .ra: .cfa -4 + ^ r7: .cfa -8 + ^ r6: .cfa -12 + ^ r4: .cfa -16 + ^
STACK CFI 25464 .cfa: r7 8 +
STACK CFI INIT 2552c 48 .cfa: sp 0 +
STACK CFI 2552e .cfa: sp 16 + .ra: .cfa -4 + ^ r7: .cfa -8 + ^ r5: .cfa -12 + ^ r4: .cfa -16 + ^
STACK CFI 25530 .cfa: r7 8 +
STACK CFI INIT 25574 60 .cfa: sp 0 +
STACK CFI 25576 .cfa: sp 16 + .ra: .cfa -4 + ^ r7: .cfa -8 + ^ r6: .cfa -12 + ^ r4: .cfa -16 + ^
STACK CFI 25578 .cfa: r7 8 +
STACK CFI INIT 255d4 46 .cfa: sp 0 +
STACK CFI 255d6 .cfa: sp 16 + .ra: .cfa -4 + ^ r7: .cfa -8 + ^ r5: .cfa -12 + ^ r4: .cfa -16 + ^
STACK CFI 255d8 .cfa: r7 8 +
STACK CFI INIT 2561a 10 .cfa: sp 0 +
STACK CFI 2561c .cfa: sp 8 + .ra: .cfa -4 + ^ r7: .cfa -8 + ^
STACK CFI 2561e .cfa: r7 8 +
STACK CFI INIT 2562a 10 .cfa: sp 0 +
STACK CFI 2562c .cfa: sp 8 + .ra: .cfa -4 + ^ r7: .cfa -8 + ^
STACK CFI 2562e .cfa: r7 8 +
STACK CFI INIT 2563a 10 .cfa: sp 0 +
STACK CFI 2563c .cfa: sp 8 + .ra: .cfa -4 + ^ r7: .cfa -8 + ^
STACK CFI 2563e .cfa: r7 8 +
STACK CFI INIT 2564a 8 .cfa: sp 0 +
STACK CFI INIT 25652 10 .cfa: sp 0 +
STACK CFI 25654 .cfa: sp 8 + .ra: .cfa -4 + ^ r7: .cfa -8 + ^
STACK CFI 25656 .cfa: r7 8 +
STACK CFI INIT 25662 14 .cfa: sp 0 +
STACK CFI 25664 .cfa: sp 8 + .ra: .cfa -4 + ^ r7: .cfa -8 + ^
STACK CFI 25666 .cfa: r7 8 +
STACK CFI INIT 25678 1dc .cfa: sp 0 +
STACK CFI 2567a .cfa: sp 20 + .ra: .cfa -4 + ^ r7: .cfa -8 + ^ r6: .cfa -12 + ^ r5: .cfa -16 + ^ r4: .cfa -20 + ^
STACK CFI 2567c .cfa: r7 8 +
STACK CFI 25680 r8: .cfa -24 + ^
STACK CFI INIT 25854 258 .cfa: sp 0 +
STACK CFI 25856 .cfa: sp 20 + .ra: .cfa -4 + ^ r7: .cfa -8 + ^ r6: .cfa -12 + ^ r5: .cfa -16 + ^ r4: .cfa -20 + ^
STACK CFI 25858 .cfa: r7 8 +
STACK CFI 2585c r11: .cfa -24 + ^ r10: .cfa -28 + ^ r9: .cfa -32 + ^ r8: .cfa -36 + ^
STACK CFI INIT 25aac 8 .cfa: sp 0 +
STACK CFI INIT 25ab4 10 .cfa: sp 0 +
STACK CFI 25ab6 .cfa: sp 8 + .ra: .cfa -4 + ^ r7: .cfa -8 + ^
STACK CFI 25ab8 .cfa: r7 8 +
STACK CFI INIT 25ac4 14 .cfa: sp 0 +
STACK CFI 25ac6 .cfa: sp 8 + .ra: .cfa -4 + ^ r7: .cfa -8 + ^
STACK CFI 25ac8 .cfa: r7 8 +
STACK CFI INIT 25ad8 1e4 .cfa: sp 0 +
STACK CFI 25ada .cfa: sp 20 + .ra: .cfa -4 + ^ r7: .cfa -8 + ^ r6: .cfa -12 + ^ r5: .cfa -16 + ^ r4: .cfa -20 + ^
STACK CFI 25adc .cfa: r7 8 +
STACK CFI 25ae0 r8: .cfa -24 + ^
STACK CFI INIT 25cbc 8 .cfa: sp 0 +
STACK CFI INIT 25cc4 10 .cfa: sp 0 +
STACK CFI 25cc6 .cfa: sp 8 + .ra: .cfa -4 + ^ r7: .cfa -8 + ^
STACK CFI 25cc8 .cfa: r7 8 +
STACK CFI INIT 25cd4 14 .cfa: sp 0 +
STACK CFI 25cd6 .cfa: sp 8 + .ra: .cfa -4 + ^ r7: .cfa -8 + ^
STACK CFI 25cd8 .cfa: r7 8 +
STACK CFI INIT 25ce8 1d8 .cfa: sp 0 +
STACK CFI 25cea .cfa: sp 20 + .ra: .cfa -4 + ^ r7: .cfa -8 + ^ r6: .cfa -12 + ^ r5: .cfa -16 + ^ r4: .cfa -20 + ^
STACK CFI 25cec .cfa: r7 8 +
STACK CFI 25cf0 r8: .cfa -24 + ^
STACK CFI INIT 25ec0 10 .cfa: sp 0 +
STACK CFI 25ec2 .cfa: sp 8 + .ra: .cfa -4 + ^ r7: .cfa -8 + ^
STACK CFI 25ec4 .cfa: r7 8 +
STACK CFI INIT 25ed0 228 .cfa: sp 0 +
STACK CFI 25ed2 .cfa: sp 20 + .ra: .cfa -4 + ^ r7: .cfa -8 + ^ r6: .cfa -12 + ^ r5: .cfa -16 + ^ r4: .cfa -20 + ^
STACK CFI 25ed4 .cfa: r7 8 +
STACK CFI 25ed8 r11: .cfa -24 + ^ r10: .cfa -28 + ^ r9: .cfa -32 + ^ r8: .cfa -36 + ^
STACK CFI INIT 260f8 10 .cfa: sp 0 +
STACK CFI 260fa .cfa: sp 8 + .ra: .cfa -4 + ^ r7: .cfa -8 + ^
STACK CFI 260fc .cfa: r7 8 +
STACK CFI INIT 26108 1ec .cfa: sp 0 +
STACK CFI 2610a .cfa: sp 20 + .ra: .cfa -4 + ^ r7: .cfa -8 + ^ r6: .cfa -12 + ^ r5: .cfa -16 + ^ r4: .cfa -20 + ^
STACK CFI 2610c .cfa: r7 8 +
STACK CFI 26110 r8: .cfa -24 + ^
STACK CFI INIT 262f4 278 .cfa: sp 0 +
STACK CFI 262f6 .cfa: sp 20 + .ra: .cfa -4 + ^ r7: .cfa -8 + ^ r6: .cfa -12 + ^ r5: .cfa -16 + ^ r4: .cfa -20 + ^
STACK CFI 262f8 .cfa: r7 8 +
STACK CFI 262fc r11: .cfa -24 + ^ r10: .cfa -28 + ^ r9: .cfa -32 + ^ r8: .cfa -36 + ^
STACK CFI INIT 2656c 10 .cfa: sp 0 +
STACK CFI 2656e .cfa: sp 8 + .ra: .cfa -4 + ^ r7: .cfa -8 + ^
STACK CFI 26570 .cfa: r7 8 +
STACK CFI INIT 2657c e4 .cfa: sp 0 +
STACK CFI 2657e .cfa: sp 20 + .ra: .cfa -4 + ^ r7: .cfa -8 + ^ r6: .cfa -12 + ^ r5: .cfa -16 + ^ r4: .cfa -20 + ^
STACK CFI 26580 .cfa: r7 8 +
STACK CFI 26584 r11: .cfa -24 + ^ r9: .cfa -28 + ^ r8: .cfa -32 + ^
STACK CFI INIT 26660 70 .cfa: sp 0 +
STACK CFI 26662 .cfa: sp 20 + .ra: .cfa -4 + ^ r7: .cfa -8 + ^ r6: .cfa -12 + ^ r5: .cfa -16 + ^ r4: .cfa -20 + ^
STACK CFI 26664 .cfa: r7 8 +
STACK CFI 26668 r8: .cfa -24 + ^
STACK CFI INIT 266d0 244 .cfa: sp 0 +
STACK CFI 266d2 .cfa: sp 20 + .ra: .cfa -4 + ^ r7: .cfa -8 + ^ r6: .cfa -12 + ^ r5: .cfa -16 + ^ r4: .cfa -20 + ^
STACK CFI 266d4 .cfa: r7 8 +
STACK CFI 266d8 r11: .cfa -24 + ^ r10: .cfa -28 + ^ r9: .cfa -32 + ^ r8: .cfa -36 + ^
STACK CFI INIT 26914 10 .cfa: sp 0 +
STACK CFI 26916 .cfa: sp 8 + .ra: .cfa -4 + ^ r7: .cfa -8 + ^
STACK CFI 26918 .cfa: r7 8 +
STACK CFI INIT 0 74 .cfa: sp 0 +
STACK CFI 2 .cfa: sp 16 + .ra: .cfa -4 + ^ r7: .cfa -8 + ^ r5: .cfa -12 + ^ r4: .cfa -16 + ^
STACK CFI 4 .cfa: r7 8 +
STACK CFI INIT 26924 8 .cfa: sp 0 +
STACK CFI INIT 2692c 10 .cfa: sp 0 +
STACK CFI 2692e .cfa: sp 8 + .ra: .cfa -4 + ^ r7: .cfa -8 + ^
STACK CFI 26930 .cfa: r7 8 +
STACK CFI INIT 2693c 14 .cfa: sp 0 +
STACK CFI 2693e .cfa: sp 8 + .ra: .cfa -4 + ^ r7: .cfa -8 + ^
STACK CFI 26940 .cfa: r7 8 +
STACK CFI INIT 26950 228 .cfa: sp 0 +
STACK CFI 26952 .cfa: sp 20 + .ra: .cfa -4 + ^ r7: .cfa -8 + ^ r6: .cfa -12 + ^ r5: .cfa -16 + ^ r4: .cfa -20 + ^
STACK CFI 26954 .cfa: r7 8 +
STACK CFI 26958 r11: .cfa -24 + ^ r10: .cfa -28 + ^ r9: .cfa -32 + ^ r8: .cfa -36 + ^
STACK CFI INIT 0 18 .cfa: sp 0 +
STACK CFI 2 .cfa: sp 8 + .ra: .cfa -4 + ^ r7: .cfa -8 + ^
STACK CFI 4 .cfa: r7 8 +
STACK CFI INIT 26b80 70 .cfa: sp 0 +
STACK CFI 26b82 .cfa: sp 20 + .ra: .cfa -4 + ^ r7: .cfa -8 + ^ r6: .cfa -12 + ^ r5: .cfa -16 + ^ r4: .cfa -20 + ^
STACK CFI 26b84 .cfa: r7 8 +
STACK CFI 26b88 r11: .cfa -24 + ^
STACK CFI INIT 26bf0 f8 .cfa: sp 0 +
STACK CFI 26bf2 .cfa: sp 20 + .ra: .cfa -4 + ^ r7: .cfa -8 + ^ r6: .cfa -12 + ^ r5: .cfa -16 + ^ r4: .cfa -20 + ^
STACK CFI 26bf4 .cfa: r7 8 +
STACK CFI 26bf8 r11: .cfa -24 + ^ r9: .cfa -28 + ^ r8: .cfa -32 + ^
STACK CFI INIT 26ce8 240 .cfa: sp 0 +
STACK CFI 26cea .cfa: sp 20 + .ra: .cfa -4 + ^ r7: .cfa -8 + ^ r6: .cfa -12 + ^ r5: .cfa -16 + ^ r4: .cfa -20 + ^
STACK CFI 26cec .cfa: r7 8 +
STACK CFI 26cf0 r11: .cfa -24 + ^ r10: .cfa -28 + ^ r9: .cfa -32 + ^ r8: .cfa -36 + ^
STACK CFI INIT 26f28 124 .cfa: sp 0 +
STACK CFI 26f2a .cfa: sp 20 + .ra: .cfa -4 + ^ r7: .cfa -8 + ^ r6: .cfa -12 + ^ r5: .cfa -16 + ^ r4: .cfa -20 + ^
STACK CFI 26f2c .cfa: r7 8 +
STACK CFI 26f30 r11: .cfa -24 + ^ r10: .cfa -28 + ^ r9: .cfa -32 + ^ r8: .cfa -36 + ^
STACK CFI INIT 27050 470 .cfa: sp 0 +
STACK CFI 27052 .cfa: sp 20 + .ra: .cfa -4 + ^ r7: .cfa -8 + ^ r6: .cfa -12 + ^ r5: .cfa -16 + ^ r4: .cfa -20 + ^
STACK CFI 27054 .cfa: r7 8 +
STACK CFI 27058 r11: .cfa -24 + ^ r10: .cfa -28 + ^ r9: .cfa -32 + ^ r8: .cfa -36 + ^
STACK CFI INIT 274c0 2 .cfa: sp 0 +
STACK CFI INIT 274c2 2 .cfa: sp 0 +
STACK CFI INIT 274c4 4 .cfa: sp 0 +
STACK CFI INIT 274c8 2 .cfa: sp 0 +
STACK CFI INIT 274ca 4 .cfa: sp 0 +
STACK CFI INIT 274d0 280 .cfa: sp 0 +
STACK CFI 274d2 .cfa: sp 20 + .ra: .cfa -4 + ^ r7: .cfa -8 + ^ r6: .cfa -12 + ^ r5: .cfa -16 + ^ r4: .cfa -20 + ^
STACK CFI 274d4 .cfa: r7 8 +
STACK CFI 274d8 r11: .cfa -24 + ^ r10: .cfa -28 + ^ r9: .cfa -32 + ^ r8: .cfa -36 + ^
STACK CFI INIT 27750 280 .cfa: sp 0 +
STACK CFI 27752 .cfa: sp 20 + .ra: .cfa -4 + ^ r7: .cfa -8 + ^ r6: .cfa -12 + ^ r5: .cfa -16 + ^ r4: .cfa -20 + ^
STACK CFI 27754 .cfa: r7 8 +
STACK CFI 27758 r11: .cfa -24 + ^ r10: .cfa -28 + ^ r9: .cfa -32 + ^ r8: .cfa -36 + ^
STACK CFI INIT 279d0 214 .cfa: sp 0 +
STACK CFI 279d2 .cfa: sp 20 + .ra: .cfa -4 + ^ r7: .cfa -8 + ^ r6: .cfa -12 + ^ r5: .cfa -16 + ^ r4: .cfa -20 + ^
STACK CFI 279d4 .cfa: r7 8 +
STACK CFI 279d8 r11: .cfa -24 + ^ r10: .cfa -28 + ^ r9: .cfa -32 + ^ r8: .cfa -36 + ^
STACK CFI INIT 27be4 25c .cfa: sp 0 +
STACK CFI 27be6 .cfa: sp 20 + .ra: .cfa -4 + ^ r7: .cfa -8 + ^ r6: .cfa -12 + ^ r5: .cfa -16 + ^ r4: .cfa -20 + ^
STACK CFI 27be8 .cfa: r7 8 +
STACK CFI 27bec r11: .cfa -24 + ^ r10: .cfa -28 + ^ r9: .cfa -32 + ^ r8: .cfa -36 + ^
STACK CFI INIT 27e40 410 .cfa: sp 0 +
STACK CFI 27e42 .cfa: sp 20 + .ra: .cfa -4 + ^ r7: .cfa -8 + ^ r6: .cfa -12 + ^ r5: .cfa -16 + ^ r4: .cfa -20 + ^
STACK CFI 27e44 .cfa: r7 8 +
STACK CFI 27e48 r11: .cfa -24 + ^ r10: .cfa -28 + ^ r9: .cfa -32 + ^ r8: .cfa -36 + ^
STACK CFI INIT 28250 f8 .cfa: sp 0 +
STACK CFI 28252 .cfa: sp 20 + .ra: .cfa -4 + ^ r7: .cfa -8 + ^ r6: .cfa -12 + ^ r5: .cfa -16 + ^ r4: .cfa -20 + ^
STACK CFI 28254 .cfa: r7 8 +
STACK CFI 28258 r8: .cfa -24 + ^
STACK CFI INIT 28348 104 .cfa: sp 0 +
STACK CFI 2834a .cfa: sp 20 + .ra: .cfa -4 + ^ r7: .cfa -8 + ^ r6: .cfa -12 + ^ r5: .cfa -16 + ^ r4: .cfa -20 + ^
STACK CFI 2834c .cfa: r7 8 +
STACK CFI 28350 r8: .cfa -24 + ^
STACK CFI INIT 2844c 2 .cfa: sp 0 +
STACK CFI INIT 2844e e .cfa: sp 0 +
STACK CFI INIT 2845c 3f2 .cfa: sp 0 +
STACK CFI 2845e .cfa: sp 20 + .ra: .cfa -4 + ^ r7: .cfa -8 + ^ r6: .cfa -12 + ^ r5: .cfa -16 + ^ r4: .cfa -20 + ^
STACK CFI 28460 .cfa: r7 8 +
STACK CFI 28464 r11: .cfa -24 + ^ r10: .cfa -28 + ^ r9: .cfa -32 + ^ r8: .cfa -36 + ^
STACK CFI INIT 28850 1cc .cfa: sp 0 +
STACK CFI 28852 .cfa: sp 20 + .ra: .cfa -4 + ^ r7: .cfa -8 + ^ r6: .cfa -12 + ^ r5: .cfa -16 + ^ r4: .cfa -20 + ^
STACK CFI 28854 .cfa: r7 8 +
STACK CFI 28858 r11: .cfa -24 + ^ r10: .cfa -28 + ^ r9: .cfa -32 + ^ r8: .cfa -36 + ^
STACK CFI INIT 28a1c 44 .cfa: sp 0 +
STACK CFI 28a1e .cfa: sp 16 + .ra: .cfa -4 + ^ r7: .cfa -8 + ^ r6: .cfa -12 + ^ r4: .cfa -16 + ^
STACK CFI 28a20 .cfa: r7 8 +
STACK CFI INIT 28a60 38 .cfa: sp 0 +
STACK CFI 28a62 .cfa: sp 16 + .ra: .cfa -4 + ^ r7: .cfa -8 + ^ r5: .cfa -12 + ^ r4: .cfa -16 + ^
STACK CFI 28a64 .cfa: r7 8 +
STACK CFI INIT 28a98 18 .cfa: sp 0 +
STACK CFI 28a9a .cfa: sp 8 + .ra: .cfa -4 + ^ r7: .cfa -8 + ^
STACK CFI 28a9c .cfa: r7 8 +
STACK CFI INIT 28ab0 420 .cfa: sp 0 +
STACK CFI 28ab2 .cfa: sp 20 + .ra: .cfa -4 + ^ r7: .cfa -8 + ^ r6: .cfa -12 + ^ r5: .cfa -16 + ^ r4: .cfa -20 + ^
STACK CFI 28ab4 .cfa: r7 8 +
STACK CFI 28ab8 r11: .cfa -24 + ^ r10: .cfa -28 + ^ r9: .cfa -32 + ^ r8: .cfa -36 + ^
STACK CFI INIT 28ed0 30 .cfa: sp 0 +
STACK CFI 28ed2 .cfa: sp 16 + .ra: .cfa -4 + ^ r7: .cfa -8 + ^ r6: .cfa -12 + ^ r4: .cfa -16 + ^
STACK CFI 28ed4 .cfa: r7 8 +
STACK CFI INIT 28f00 c0 .cfa: sp 0 +
STACK CFI 28f02 .cfa: sp 20 + .ra: .cfa -4 + ^ r7: .cfa -8 + ^ r6: .cfa -12 + ^ r5: .cfa -16 + ^ r4: .cfa -20 + ^
STACK CFI 28f04 .cfa: r7 8 +
STACK CFI 28f08 r11: .cfa -24 + ^ r9: .cfa -28 + ^ r8: .cfa -32 + ^
STACK CFI INIT 28fc0 1ac .cfa: sp 0 +
STACK CFI 28fc2 .cfa: sp 20 + .ra: .cfa -4 + ^ r7: .cfa -8 + ^ r6: .cfa -12 + ^ r5: .cfa -16 + ^ r4: .cfa -20 + ^
STACK CFI 28fc4 .cfa: r7 8 +
STACK CFI 28fc8 r11: .cfa -24 + ^ r10: .cfa -28 + ^ r9: .cfa -32 + ^ r8: .cfa -36 + ^
STACK CFI INIT 2916c 278 .cfa: sp 0 +
STACK CFI 2916e .cfa: sp 20 + .ra: .cfa -4 + ^ r7: .cfa -8 + ^ r6: .cfa -12 + ^ r5: .cfa -16 + ^ r4: .cfa -20 + ^
STACK CFI 29170 .cfa: r7 8 +
STACK CFI 29174 r10: .cfa -24 + ^ r9: .cfa -28 + ^ r8: .cfa -32 + ^
STACK CFI INIT 293f0 228 .cfa: sp 0 +
STACK CFI 293f2 .cfa: sp 20 + .ra: .cfa -4 + ^ r7: .cfa -8 + ^ r6: .cfa -12 + ^ r5: .cfa -16 + ^ r4: .cfa -20 + ^
STACK CFI 293f4 .cfa: r7 8 +
STACK CFI 293f8 r11: .cfa -24 + ^
STACK CFI INIT 29618 384 .cfa: sp 0 +
STACK CFI 2961a .cfa: sp 20 + .ra: .cfa -4 + ^ r7: .cfa -8 + ^ r6: .cfa -12 + ^ r5: .cfa -16 + ^ r4: .cfa -20 + ^
STACK CFI 2961c .cfa: r7 8 +
STACK CFI 29620 r11: .cfa -24 + ^ r10: .cfa -28 + ^ r9: .cfa -32 + ^ r8: .cfa -36 + ^
STACK CFI INIT 2999c 880 .cfa: sp 0 +
STACK CFI 2999e .cfa: sp 20 + .ra: .cfa -4 + ^ r7: .cfa -8 + ^ r6: .cfa -12 + ^ r5: .cfa -16 + ^ r4: .cfa -20 + ^
STACK CFI 299a0 .cfa: r7 8 +
STACK CFI 299a4 r11: .cfa -24 + ^ r10: .cfa -28 + ^ r9: .cfa -32 + ^ r8: .cfa -36 + ^
STACK CFI INIT 2a21c 4c .cfa: sp 0 +
STACK CFI 2a21e .cfa: sp 20 + .ra: .cfa -4 + ^ r7: .cfa -8 + ^ r6: .cfa -12 + ^ r5: .cfa -16 + ^ r4: .cfa -20 + ^
STACK CFI 2a220 .cfa: r7 8 +
STACK CFI 2a224 r8: .cfa -24 + ^
STACK CFI INIT 2a268 48 .cfa: sp 0 +
STACK CFI 2a26a .cfa: sp 16 + .ra: .cfa -4 + ^ r7: .cfa -8 + ^ r6: .cfa -12 + ^ r4: .cfa -16 + ^
STACK CFI 2a26c .cfa: r7 8 +
STACK CFI INIT 2a2b0 10 .cfa: sp 0 +
STACK CFI 2a2b2 .cfa: sp 8 + .ra: .cfa -4 + ^ r7: .cfa -8 + ^
STACK CFI 2a2b4 .cfa: r7 8 +
STACK CFI INIT 2a2c0 9a .cfa: sp 0 +
STACK CFI 2a2c2 .cfa: sp 20 + .ra: .cfa -4 + ^ r7: .cfa -8 + ^ r6: .cfa -12 + ^ r5: .cfa -16 + ^ r4: .cfa -20 + ^
STACK CFI 2a2c4 .cfa: r7 8 +
STACK CFI 2a2c8 r11: .cfa -24 + ^ r9: .cfa -28 + ^ r8: .cfa -32 + ^
STACK CFI INIT 2a35c 54 .cfa: sp 0 +
STACK CFI 2a35e .cfa: sp 8 + .ra: .cfa -4 + ^ r7: .cfa -8 + ^
STACK CFI 2a360 .cfa: r7 8 +
STACK CFI INIT 2a3b0 34 .cfa: sp 0 +
STACK CFI 2a3b2 .cfa: sp 16 + .ra: .cfa -4 + ^ r7: .cfa -8 + ^ r5: .cfa -12 + ^ r4: .cfa -16 + ^
STACK CFI 2a3b4 .cfa: r7 8 +
STACK CFI INIT 2a3e4 2c .cfa: sp 0 +
STACK CFI 2a3e6 .cfa: sp 16 + .ra: .cfa -4 + ^ r7: .cfa -8 + ^ r5: .cfa -12 + ^ r4: .cfa -16 + ^
STACK CFI 2a3e8 .cfa: r7 8 +
STACK CFI INIT 2a410 74 .cfa: sp 0 +
STACK CFI 2a412 .cfa: sp 8 + .ra: .cfa -4 + ^ r7: .cfa -8 + ^
STACK CFI 2a414 .cfa: r7 8 +
STACK CFI INIT 2a484 1b0 .cfa: sp 0 +
STACK CFI 2a486 .cfa: sp 20 + .ra: .cfa -4 + ^ r7: .cfa -8 + ^ r6: .cfa -12 + ^ r5: .cfa -16 + ^ r4: .cfa -20 + ^
STACK CFI 2a488 .cfa: r7 8 +
STACK CFI 2a48c r10: .cfa -24 + ^ r9: .cfa -28 + ^ r8: .cfa -32 + ^
STACK CFI INIT 2a634 9a .cfa: sp 0 +
STACK CFI 2a636 .cfa: sp 20 + .ra: .cfa -4 + ^ r7: .cfa -8 + ^ r6: .cfa -12 + ^ r5: .cfa -16 + ^ r4: .cfa -20 + ^
STACK CFI 2a638 .cfa: r7 8 +
STACK CFI 2a63c r11: .cfa -24 + ^ r9: .cfa -28 + ^ r8: .cfa -32 + ^
STACK CFI INIT 2a6d0 174 .cfa: sp 0 +
STACK CFI 2a6d2 .cfa: sp 20 + .ra: .cfa -4 + ^ r7: .cfa -8 + ^ r6: .cfa -12 + ^ r5: .cfa -16 + ^ r4: .cfa -20 + ^
STACK CFI 2a6d4 .cfa: r7 8 +
STACK CFI 2a6d8 r10: .cfa -24 + ^ r9: .cfa -28 + ^ r8: .cfa -32 + ^
STACK CFI INIT 2a844 218 .cfa: sp 0 +
STACK CFI 2a846 .cfa: sp 20 + .ra: .cfa -4 + ^ r7: .cfa -8 + ^ r6: .cfa -12 + ^ r5: .cfa -16 + ^ r4: .cfa -20 + ^
STACK CFI 2a848 .cfa: r7 8 +
STACK CFI 2a84c r11: .cfa -24 + ^ r10: .cfa -28 + ^ r9: .cfa -32 + ^ r8: .cfa -36 + ^
STACK CFI INIT 2aa5c 1dc .cfa: sp 0 +
STACK CFI 2aa5e .cfa: sp 20 + .ra: .cfa -4 + ^ r7: .cfa -8 + ^ r6: .cfa -12 + ^ r5: .cfa -16 + ^ r4: .cfa -20 + ^
STACK CFI 2aa60 .cfa: r7 8 +
STACK CFI 2aa64 r11: .cfa -24 + ^ r10: .cfa -28 + ^ r9: .cfa -32 + ^ r8: .cfa -36 + ^
STACK CFI INIT 2ac38 188 .cfa: sp 0 +
STACK CFI 2ac3a .cfa: sp 20 + .ra: .cfa -4 + ^ r7: .cfa -8 + ^ r6: .cfa -12 + ^ r5: .cfa -16 + ^ r4: .cfa -20 + ^
STACK CFI 2ac3c .cfa: r7 8 +
STACK CFI 2ac40 r11: .cfa -24 + ^ r10: .cfa -28 + ^ r9: .cfa -32 + ^ r8: .cfa -36 + ^
STACK CFI INIT 2adc0 9f8 .cfa: sp 0 +
STACK CFI 2adc2 .cfa: sp 20 + .ra: .cfa -4 + ^ r7: .cfa -8 + ^ r6: .cfa -12 + ^ r5: .cfa -16 + ^ r4: .cfa -20 + ^
STACK CFI 2adc4 .cfa: r7 8 +
STACK CFI 2adc8 r11: .cfa -24 + ^ r10: .cfa -28 + ^ r9: .cfa -32 + ^ r8: .cfa -36 + ^
STACK CFI INIT 2b7b8 184 .cfa: sp 0 +
STACK CFI 2b7ba .cfa: sp 20 + .ra: .cfa -4 + ^ r7: .cfa -8 + ^ r6: .cfa -12 + ^ r5: .cfa -16 + ^ r4: .cfa -20 + ^
STACK CFI 2b7bc .cfa: r7 8 +
STACK CFI 2b7c0 r11: .cfa -24 + ^ r10: .cfa -28 + ^ r9: .cfa -32 + ^ r8: .cfa -36 + ^
STACK CFI INIT 2b940 73c .cfa: sp 0 +
STACK CFI 2b942 .cfa: sp 20 + .ra: .cfa -4 + ^ r7: .cfa -8 + ^ r6: .cfa -12 + ^ r5: .cfa -16 + ^ r4: .cfa -20 + ^
STACK CFI 2b944 .cfa: r7 8 +
STACK CFI 2b948 r11: .cfa -24 + ^ r10: .cfa -28 + ^ r9: .cfa -32 + ^ r8: .cfa -36 + ^
STACK CFI INIT 2c07c 140 .cfa: sp 0 +
STACK CFI 2c07e .cfa: sp 20 + .ra: .cfa -4 + ^ r7: .cfa -8 + ^ r6: .cfa -12 + ^ r5: .cfa -16 + ^ r4: .cfa -20 + ^
STACK CFI 2c080 .cfa: r7 8 +
STACK CFI 2c084 r11: .cfa -24 + ^ r10: .cfa -28 + ^ r9: .cfa -32 + ^ r8: .cfa -36 + ^
STACK CFI INIT 2c1bc e0 .cfa: sp 0 +
STACK CFI 2c1be .cfa: sp 20 + .ra: .cfa -4 + ^ r7: .cfa -8 + ^ r6: .cfa -12 + ^ r5: .cfa -16 + ^ r4: .cfa -20 + ^
STACK CFI 2c1c0 .cfa: r7 8 +
STACK CFI 2c1c4 r8: .cfa -24 + ^
STACK CFI INIT 2c29c 194 .cfa: sp 0 +
STACK CFI 2c29e .cfa: sp 20 + .ra: .cfa -4 + ^ r7: .cfa -8 + ^ r6: .cfa -12 + ^ r5: .cfa -16 + ^ r4: .cfa -20 + ^
STACK CFI 2c2a0 .cfa: r7 8 +
STACK CFI 2c2a4 r8: .cfa -24 + ^
STACK CFI INIT 2c430 22 .cfa: sp 0 +
STACK CFI 2c432 .cfa: sp 16 + .ra: .cfa -4 + ^ r7: .cfa -8 + ^ r6: .cfa -12 + ^ r4: .cfa -16 + ^
STACK CFI 2c434 .cfa: r7 8 +
STACK CFI INIT 2c454 104 .cfa: sp 0 +
STACK CFI 2c456 .cfa: sp 20 + .ra: .cfa -4 + ^ r7: .cfa -8 + ^ r6: .cfa -12 + ^ r5: .cfa -16 + ^ r4: .cfa -20 + ^
STACK CFI 2c458 .cfa: r7 8 +
STACK CFI 2c45c r10: .cfa -24 + ^ r9: .cfa -28 + ^ r8: .cfa -32 + ^
STACK CFI INIT 2c558 144 .cfa: sp 0 +
STACK CFI 2c55a .cfa: sp 20 + .ra: .cfa -4 + ^ r7: .cfa -8 + ^ r6: .cfa -12 + ^ r5: .cfa -16 + ^ r4: .cfa -20 + ^
STACK CFI 2c55c .cfa: r7 8 +
STACK CFI 2c560 r11: .cfa -24 + ^ r9: .cfa -28 + ^ r8: .cfa -32 + ^
STACK CFI INIT 2c69c 66 .cfa: sp 0 +
STACK CFI 2c69e .cfa: sp 20 + .ra: .cfa -4 + ^ r7: .cfa -8 + ^ r6: .cfa -12 + ^ r5: .cfa -16 + ^ r4: .cfa -20 + ^
STACK CFI 2c6a0 .cfa: r7 8 +
STACK CFI 2c6a4 r11: .cfa -24 + ^ r9: .cfa -28 + ^ r8: .cfa -32 + ^
STACK CFI INIT 2c702 a6 .cfa: sp 0 +
STACK CFI 2c704 .cfa: sp 20 + .ra: .cfa -4 + ^ r7: .cfa -8 + ^ r6: .cfa -12 + ^ r5: .cfa -16 + ^ r4: .cfa -20 + ^
STACK CFI 2c706 .cfa: r7 8 +
STACK CFI 2c70a r10: .cfa -24 + ^ r9: .cfa -28 + ^ r8: .cfa -32 + ^
STACK CFI INIT 2c7a8 21c .cfa: sp 0 +
STACK CFI 2c7aa .cfa: sp 20 + .ra: .cfa -4 + ^ r7: .cfa -8 + ^ r6: .cfa -12 + ^ r5: .cfa -16 + ^ r4: .cfa -20 + ^
STACK CFI 2c7ac .cfa: r7 8 +
STACK CFI 2c7b0 r11: .cfa -24 + ^ r10: .cfa -28 + ^ r9: .cfa -32 + ^ r8: .cfa -36 + ^
STACK CFI INIT 2c9c4 6e .cfa: sp 0 +
STACK CFI 2c9c6 .cfa: sp 20 + .ra: .cfa -4 + ^ r7: .cfa -8 + ^ r6: .cfa -12 + ^ r5: .cfa -16 + ^ r4: .cfa -20 + ^
STACK CFI 2c9c8 .cfa: r7 8 +
STACK CFI 2c9cc r8: .cfa -24 + ^
STACK CFI INIT 2ca40 e4 .cfa: sp 0 +
STACK CFI 2ca42 .cfa: sp 20 + .ra: .cfa -4 + ^ r7: .cfa -8 + ^ r6: .cfa -12 + ^ r5: .cfa -16 + ^ r4: .cfa -20 + ^
STACK CFI 2ca44 .cfa: r7 8 +
STACK CFI 2ca48 r11: .cfa -24 + ^
STACK CFI INIT 2cb24 9ac .cfa: sp 0 +
STACK CFI 2cb26 .cfa: sp 20 + .ra: .cfa -4 + ^ r7: .cfa -8 + ^ r6: .cfa -12 + ^ r5: .cfa -16 + ^ r4: .cfa -20 + ^
STACK CFI 2cb28 .cfa: r7 8 +
STACK CFI 2cb2c r11: .cfa -24 + ^ r10: .cfa -28 + ^ r9: .cfa -32 + ^ r8: .cfa -36 + ^
STACK CFI INIT 2d4d0 e8 .cfa: sp 0 +
STACK CFI 2d4d2 .cfa: sp 20 + .ra: .cfa -4 + ^ r7: .cfa -8 + ^ r6: .cfa -12 + ^ r5: .cfa -16 + ^ r4: .cfa -20 + ^
STACK CFI 2d4d4 .cfa: r7 8 +
STACK CFI 2d4d8 r8: .cfa -24 + ^
STACK CFI INIT 2d5b8 19c .cfa: sp 0 +
STACK CFI 2d5ba .cfa: sp 20 + .ra: .cfa -4 + ^ r7: .cfa -8 + ^ r6: .cfa -12 + ^ r5: .cfa -16 + ^ r4: .cfa -20 + ^
STACK CFI 2d5bc .cfa: r7 8 +
STACK CFI 2d5c0 r11: .cfa -24 + ^ r10: .cfa -28 + ^ r9: .cfa -32 + ^ r8: .cfa -36 + ^
STACK CFI INIT 2d760 e4 .cfa: sp 0 +
STACK CFI 2d762 .cfa: sp 20 + .ra: .cfa -4 + ^ r7: .cfa -8 + ^ r6: .cfa -12 + ^ r5: .cfa -16 + ^ r4: .cfa -20 + ^
STACK CFI 2d764 .cfa: r7 8 +
STACK CFI 2d768 r11: .cfa -24 + ^
STACK CFI INIT 2d844 150 .cfa: sp 0 +
STACK CFI 2d846 .cfa: sp 20 + .ra: .cfa -4 + ^ r7: .cfa -8 + ^ r6: .cfa -12 + ^ r5: .cfa -16 + ^ r4: .cfa -20 + ^
STACK CFI 2d848 .cfa: r7 8 +
STACK CFI 2d84c r11: .cfa -24 + ^ r10: .cfa -28 + ^ r9: .cfa -32 + ^ r8: .cfa -36 + ^
STACK CFI INIT 2d998 1064 .cfa: sp 0 +
STACK CFI 2d99a .cfa: sp 20 + .ra: .cfa -4 + ^ r7: .cfa -8 + ^ r6: .cfa -12 + ^ r5: .cfa -16 + ^ r4: .cfa -20 + ^
STACK CFI 2d99c .cfa: r7 8 +
STACK CFI 2d9a0 r11: .cfa -24 + ^ r10: .cfa -28 + ^ r9: .cfa -32 + ^ r8: .cfa -36 + ^
STACK CFI INIT 2e9fc b78 .cfa: sp 0 +
STACK CFI 2e9fe .cfa: sp 20 + .ra: .cfa -4 + ^ r7: .cfa -8 + ^ r6: .cfa -12 + ^ r5: .cfa -16 + ^ r4: .cfa -20 + ^
STACK CFI 2ea00 .cfa: r7 8 +
STACK CFI 2ea04 r11: .cfa -24 + ^ r10: .cfa -28 + ^ r9: .cfa -32 + ^ r8: .cfa -36 + ^
STACK CFI INIT 2f574 3a4 .cfa: sp 0 +
STACK CFI 2f576 .cfa: sp 20 + .ra: .cfa -4 + ^ r7: .cfa -8 + ^ r6: .cfa -12 + ^ r5: .cfa -16 + ^ r4: .cfa -20 + ^
STACK CFI 2f578 .cfa: r7 8 +
STACK CFI 2f57c r11: .cfa -24 + ^ r10: .cfa -28 + ^ r9: .cfa -32 + ^ r8: .cfa -36 + ^
STACK CFI INIT 2f918 ebc .cfa: sp 0 +
STACK CFI 2f91a .cfa: sp 20 + .ra: .cfa -4 + ^ r7: .cfa -8 + ^ r6: .cfa -12 + ^ r5: .cfa -16 + ^ r4: .cfa -20 + ^
STACK CFI 2f91c .cfa: r7 8 +
STACK CFI 2f920 r11: .cfa -24 + ^ r10: .cfa -28 + ^ r9: .cfa -32 + ^ r8: .cfa -36 + ^
STACK CFI INIT 307d4 10c .cfa: sp 0 +
STACK CFI 307d6 .cfa: sp 20 + .ra: .cfa -4 + ^ r7: .cfa -8 + ^ r6: .cfa -12 + ^ r5: .cfa -16 + ^ r4: .cfa -20 + ^
STACK CFI 307d8 .cfa: r7 8 +
STACK CFI 307dc r11: .cfa -24 + ^ r10: .cfa -28 + ^ r9: .cfa -32 + ^ r8: .cfa -36 + ^
STACK CFI INIT 308e0 c4 .cfa: sp 0 +
STACK CFI 308fe .cfa: sp 20 + .ra: .cfa -4 + ^ r7: .cfa -8 + ^ r6: .cfa -12 + ^ r5: .cfa -16 + ^ r4: .cfa -20 + ^
STACK CFI 30900 .cfa: r7 8 +
STACK CFI 30904 r8: .cfa -24 + ^
STACK CFI INIT 309a4 414 .cfa: sp 0 +
STACK CFI 309a6 .cfa: sp 20 + .ra: .cfa -4 + ^ r7: .cfa -8 + ^ r6: .cfa -12 + ^ r5: .cfa -16 + ^ r4: .cfa -20 + ^
STACK CFI 309a8 .cfa: r7 8 +
STACK CFI 309ac r11: .cfa -24 + ^ r10: .cfa -28 + ^ r9: .cfa -32 + ^ r8: .cfa -36 + ^
STACK CFI INIT 30db8 276 .cfa: sp 0 +
STACK CFI 30dba .cfa: sp 20 + .ra: .cfa -4 + ^ r7: .cfa -8 + ^ r6: .cfa -12 + ^ r5: .cfa -16 + ^ r4: .cfa -20 + ^
STACK CFI 30dbc .cfa: r7 8 +
STACK CFI 30dc0 r11: .cfa -24 + ^ r10: .cfa -28 + ^ r9: .cfa -32 + ^ r8: .cfa -36 + ^
STACK CFI INIT 3102e 6e .cfa: sp 0 +
STACK CFI 31030 .cfa: sp 20 + .ra: .cfa -4 + ^ r7: .cfa -8 + ^ r6: .cfa -12 + ^ r5: .cfa -16 + ^ r4: .cfa -20 + ^
STACK CFI 31032 .cfa: r7 8 +
STACK CFI 31036 r8: .cfa -24 + ^
STACK CFI INIT 3109c 994 .cfa: sp 0 +
STACK CFI 3109e .cfa: sp 20 + .ra: .cfa -4 + ^ r7: .cfa -8 + ^ r6: .cfa -12 + ^ r5: .cfa -16 + ^ r4: .cfa -20 + ^
STACK CFI 310a0 .cfa: r7 8 +
STACK CFI 310a4 r11: .cfa -24 + ^ r10: .cfa -28 + ^ r9: .cfa -32 + ^ r8: .cfa -36 + ^
STACK CFI INIT 31a30 e0 .cfa: sp 0 +
STACK CFI 31a32 .cfa: sp 20 + .ra: .cfa -4 + ^ r7: .cfa -8 + ^ r6: .cfa -12 + ^ r5: .cfa -16 + ^ r4: .cfa -20 + ^
STACK CFI 31a34 .cfa: r7 8 +
STACK CFI 31a38 r11: .cfa -24 + ^ r10: .cfa -28 + ^ r9: .cfa -32 + ^ r8: .cfa -36 + ^
STACK CFI INIT 31b10 544 .cfa: sp 0 +
STACK CFI 31b12 .cfa: sp 20 + .ra: .cfa -4 + ^ r7: .cfa -8 + ^ r6: .cfa -12 + ^ r5: .cfa -16 + ^ r4: .cfa -20 + ^
STACK CFI 31b14 .cfa: r7 8 +
STACK CFI 31b18 r11: .cfa -24 + ^ r10: .cfa -28 + ^ r9: .cfa -32 + ^ r8: .cfa -36 + ^
