MODULE Linux arm64 F1CC45FB358B0300CDF14E2A9BDB188F0 raydeeux.antilobotomy.android64.so
INFO CODE_ID FB45CCF18B350003CDF14E2A9BDB188FA84239E4
INFO GENERATOR mozilla/dump_syms 2.3.4
PUBLIC 9620 0 __on_dlclose
PUBLIC 9630 0 __emutls_unregister_key
PUBLIC 9638 0 __on_dlclose_late
PUBLIC 9640 0 __atexit_handler_wrapper
PUBLIC 9654 0 atexit
PUBLIC 9670 0 pthread_atfork
PUBLIC 9680 0 __aarch64_ldadd8_acq_rel
PUBLIC 96b0 0 init_have_lse_atomics
PUBLIC 9748 0 __init_cpu_features_constructor
PUBLIC 9ce4 0 __init_cpu_features
PUBLIC 9d70 0 __aarch64_ldadd8_relax
PUBLIC 9da0 0 std::__ndk1::basic_regex<char, std::__ndk1::regex_traits<char> >::~basic_regex()
PUBLIC 9e00 0 __cxx_global_var_init.1
PUBLIC a50c 0 geode::modifier::ModifyBase<geode::modifier::ModifyDerive<MyPlayLayer, PlayLayer> >::~ModifyBase()
PUBLIC a524 0 __cxx_global_var_init.2
PUBLIC a9a8 0 geode::modifier::ModifyBase<geode::modifier::ModifyDerive<MyLevelInfoLayer, LevelInfoLayer> >::~ModifyBase()
PUBLIC a9c0 0 std::__ndk1::shared_ptr<std::__ndk1::__empty_state<char> >::~shared_ptr[abi:ne180000]()
PUBLIC aa14 0 std::__ndk1::basic_regex<char, std::__ndk1::regex_traits<char> >::__parse<char const*>(char const*, char const*)
PUBLIC b0d8 0 std::__ndk1::__throw_regex_error[abi:ne180000]<(std::__ndk1::regex_constants::error_type)17>()
PUBLIC b124 0 std::__ndk1::basic_regex<char, std::__ndk1::regex_traits<char> >::__parse_ecma_exp<char const*>(char const*, char const*)
PUBLIC b390 0 std::__ndk1::basic_regex<char, std::__ndk1::regex_traits<char> >::__parse_basic_reg_exp<char const*>(char const*, char const*)
PUBLIC b538 0 std::__ndk1::basic_regex<char, std::__ndk1::regex_traits<char> >::__parse_extended_reg_exp<char const*>(char const*, char const*)
PUBLIC b6a8 0 std::__ndk1::__throw_regex_error[abi:ne180000]<(std::__ndk1::regex_constants::error_type)14>()
PUBLIC b6f4 0 std::__ndk1::__end_state<char>::~__end_state()
PUBLIC b6f8 0 std::__ndk1::__end_state<char>::__exec(std::__ndk1::__state<char>&) const
PUBLIC b704 0 std::__ndk1::__node<char>::__exec_split(bool, std::__ndk1::__state<char>&) const
PUBLIC b708 0 std::__ndk1::__node<char>::__exec(std::__ndk1::__state<char>&) const
PUBLIC b70c 0 __clang_call_terminate
PUBLIC b71c 0 std::__ndk1::__shared_ptr_pointer<std::__ndk1::__empty_state<char>*, std::__ndk1::shared_ptr<std::__ndk1::__empty_state<char> >::__shared_ptr_default_delete<std::__ndk1::__empty_state<char>, std::__ndk1::__empty_state<char> >, std::__ndk1::allocator<std::__ndk1::__empty_state<char> > >::~__shared_ptr_pointer()
PUBLIC b740 0 std::__ndk1::__shared_ptr_pointer<std::__ndk1::__empty_state<char>*, std::__ndk1::shared_ptr<std::__ndk1::__empty_state<char> >::__shared_ptr_default_delete<std::__ndk1::__empty_state<char>, std::__ndk1::__empty_state<char> >, std::__ndk1::allocator<std::__ndk1::__empty_state<char> > >::__on_zero_shared()
PUBLIC b758 0 std::__ndk1::__shared_ptr_pointer<std::__ndk1::__empty_state<char>*, std::__ndk1::shared_ptr<std::__ndk1::__empty_state<char> >::__shared_ptr_default_delete<std::__ndk1::__empty_state<char>, std::__ndk1::__empty_state<char> >, std::__ndk1::allocator<std::__ndk1::__empty_state<char> > >::__get_deleter(std::type_info const&) const
PUBLIC b774 0 std::__ndk1::__shared_ptr_pointer<std::__ndk1::__empty_state<char>*, std::__ndk1::shared_ptr<std::__ndk1::__empty_state<char> >::__shared_ptr_default_delete<std::__ndk1::__empty_state<char>, std::__ndk1::__empty_state<char> >, std::__ndk1::allocator<std::__ndk1::__empty_state<char> > >::__on_zero_shared_weak()
PUBLIC b778 0 std::__ndk1::__empty_state<char>::~__empty_state()
PUBLIC b7c0 0 std::__ndk1::__empty_state<char>::__exec(std::__ndk1::__state<char>&) const
PUBLIC b7d4 0 std::__ndk1::__owns_one_state<char>::~__owns_one_state()
PUBLIC b81c 0 std::__ndk1::basic_regex<char, std::__ndk1::regex_traits<char> >::__parse_assertion<char const*>(char const*, char const*)
PUBLIC bb80 0 std::__ndk1::basic_regex<char, std::__ndk1::regex_traits<char> >::__parse_atom<char const*>(char const*, char const*)
PUBLIC c1c4 0 std::__ndk1::basic_regex<char, std::__ndk1::regex_traits<char> >::__parse_ERE_dupl_symbol<char const*>(char const*, char const*, std::__ndk1::__owns_one_state<char>*, unsigned int, unsigned int)
PUBLIC c5b8 0 std::__ndk1::basic_regex<char, std::__ndk1::regex_traits<char> >::basic_regex[abi:ne180000]()
PUBLIC c624 0 std::__ndk1::basic_regex<char, std::__ndk1::regex_traits<char> >::__push_lookahead(std::__ndk1::basic_regex<char, std::__ndk1::regex_traits<char> > const&, bool, unsigned int)
PUBLIC c6d8 0 std::__ndk1::__throw_regex_error[abi:ne180000]<(std::__ndk1::regex_constants::error_type)6>()
PUBLIC c724 0 std::__ndk1::__l_anchor_multiline<char>::~__l_anchor_multiline()
PUBLIC c76c 0 std::__ndk1::__l_anchor_multiline<char>::__exec(std::__ndk1::__state<char>&) const
PUBLIC c7d0 0 std::__ndk1::__r_anchor_multiline<char>::~__r_anchor_multiline()
PUBLIC c818 0 std::__ndk1::__r_anchor_multiline<char>::__exec(std::__ndk1::__state<char>&) const
PUBLIC c86c 0 std::__ndk1::__word_boundary<char, std::__ndk1::regex_traits<char> >::~__word_boundary()
PUBLIC c8c8 0 std::__ndk1::__word_boundary<char, std::__ndk1::regex_traits<char> >::~__word_boundary()
PUBLIC c920 0 std::__ndk1::__word_boundary<char, std::__ndk1::regex_traits<char> >::__exec(std::__ndk1::__state<char>&) const
PUBLIC ca30 0 std::__ndk1::__lookahead<char, std::__ndk1::regex_traits<char> >::~__lookahead()
PUBLIC cac0 0 std::__ndk1::__lookahead<char, std::__ndk1::regex_traits<char> >::~__lookahead()
PUBLIC cb4c 0 std::__ndk1::__lookahead<char, std::__ndk1::regex_traits<char> >::__exec(std::__ndk1::__state<char>&) const
PUBLIC cd20 0 std::__ndk1::basic_regex<char, std::__ndk1::regex_traits<char> >::__match_at_start_ecma<std::__ndk1::allocator<std::__ndk1::sub_match<char const*> > >(char const*, char const*, std::__ndk1::match_results<char const*, std::__ndk1::allocator<std::__ndk1::sub_match<char const*> > >&, std::__ndk1::regex_constants::match_flag_type, bool) const
PUBLIC d16c 0 std::__ndk1::vector<std::__ndk1::sub_match<char const*>, std::__ndk1::allocator<std::__ndk1::sub_match<char const*> > >::assign(unsigned long, std::__ndk1::sub_match<char const*> const&)
PUBLIC d334 0 std::__ndk1::vector<std::__ndk1::sub_match<char const*>, std::__ndk1::allocator<std::__ndk1::sub_match<char const*> > >::__throw_length_error[abi:ne180000]() const
PUBLIC d348 0 std::__ndk1::__throw_length_error[abi:ne180000](char const*)
PUBLIC d398 0 std::length_error::length_error[abi:ne180000](char const*)
PUBLIC d3c8 0 std::__throw_bad_array_new_length([abi:ne180000], void)
PUBLIC d3fc 0 std::__ndk1::__state<char>::~__state()
PUBLIC d440 0 std::__ndk1::__throw_regex_error[abi:ne180000]<(std::__ndk1::regex_constants::error_type)12>()
PUBLIC d48c 0 std::__ndk1::__state<char>::__state(std::__ndk1::__state<char> const&)
PUBLIC d5fc 0 std::__ndk1::__throw_regex_error[abi:ne180000]<(std::__ndk1::regex_constants::error_type)16>()
PUBLIC d648 0 std::__ndk1::vector<std::__ndk1::__state<char>, std::__ndk1::allocator<std::__ndk1::__state<char> > >::~vector[abi:ne180000]()
PUBLIC d6e0 0 std::__ndk1::vector<std::__ndk1::__state<char>, std::__ndk1::allocator<std::__ndk1::__state<char> > >::__push_back_slow_path<std::__ndk1::__state<char> >(std::__ndk1::__state<char>&&)
PUBLIC d8bc 0 std::__ndk1::vector<std::__ndk1::__state<char>, std::__ndk1::allocator<std::__ndk1::__state<char> > >::__throw_length_error[abi:ne180000]() const
PUBLIC d8d0 0 std::__ndk1::vector<std::__ndk1::sub_match<char const*>, std::__ndk1::allocator<std::__ndk1::sub_match<char const*> > >::__append(unsigned long, std::__ndk1::sub_match<char const*> const&)
PUBLIC da78 0 std::__ndk1::vector<std::__ndk1::pair<unsigned long, char const*>, std::__ndk1::allocator<std::__ndk1::pair<unsigned long, char const*> > >::__append(unsigned long)
PUBLIC dba4 0 std::__ndk1::vector<std::__ndk1::pair<unsigned long, char const*>, std::__ndk1::allocator<std::__ndk1::pair<unsigned long, char const*> > >::__throw_length_error[abi:ne180000]() const
PUBLIC dbb8 0 std::__ndk1::basic_regex<char, std::__ndk1::regex_traits<char> >::__parse_bracket_expression<char const*>(char const*, char const*)
PUBLIC eca4 0 std::__ndk1::__throw_regex_error[abi:ne180000]<(std::__ndk1::regex_constants::error_type)11>()
PUBLIC ecf0 0 std::__ndk1::__match_any_but_newline<char>::~__match_any_but_newline()
PUBLIC ed38 0 std::__ndk1::__throw_regex_error[abi:ne180000]<(std::__ndk1::regex_constants::error_type)3>()
PUBLIC ed84 0 std::__ndk1::basic_regex<char, std::__ndk1::regex_traits<char> >::__parse_character_escape<char const*>(char const*, char const*, std::__ndk1::basic_string<char, std::__ndk1::char_traits<char>, std::__ndk1::allocator<char> >*)
PUBLIC f290 0 std::__ndk1::basic_regex<char, std::__ndk1::regex_traits<char> >::__push_char(char)
PUBLIC f3d0 0 std::__ndk1::__throw_regex_error[abi:ne180000]<(std::__ndk1::regex_constants::error_type)4>()
PUBLIC f41c 0 std::__ndk1::basic_regex<char, std::__ndk1::regex_traits<char> >::__push_back_ref(int)
PUBLIC f4e4 0 std::__ndk1::__match_char_icase<char, std::__ndk1::regex_traits<char> >::~__match_char_icase()
PUBLIC f540 0 std::__ndk1::__match_char_icase<char, std::__ndk1::regex_traits<char> >::~__match_char_icase()
PUBLIC f598 0 std::__ndk1::__match_char_icase<char, std::__ndk1::regex_traits<char> >::__exec(std::__ndk1::__state<char>&) const
PUBLIC f618 0 std::__ndk1::__match_char_collate<char, std::__ndk1::regex_traits<char> >::~__match_char_collate()
PUBLIC f674 0 std::__ndk1::__match_char_collate<char, std::__ndk1::regex_traits<char> >::~__match_char_collate()
PUBLIC f6cc 0 std::__ndk1::__match_char_collate<char, std::__ndk1::regex_traits<char> >::__exec(std::__ndk1::__state<char>&) const
PUBLIC f714 0 std::__ndk1::__match_char<char>::~__match_char()
PUBLIC f75c 0 std::__ndk1::__match_char<char>::__exec(std::__ndk1::__state<char>&) const
PUBLIC f7a4 0 std::__ndk1::__back_ref_icase<char, std::__ndk1::regex_traits<char> >::~__back_ref_icase()
PUBLIC f800 0 std::__ndk1::__back_ref_icase<char, std::__ndk1::regex_traits<char> >::~__back_ref_icase()
PUBLIC f858 0 std::__ndk1::__back_ref_icase<char, std::__ndk1::regex_traits<char> >::__exec(std::__ndk1::__state<char>&) const
PUBLIC f950 0 std::__ndk1::__back_ref_collate<char, std::__ndk1::regex_traits<char> >::~__back_ref_collate()
PUBLIC f9ac 0 std::__ndk1::__back_ref_collate<char, std::__ndk1::regex_traits<char> >::~__back_ref_collate()
PUBLIC fa04 0 std::__ndk1::__back_ref_collate<char, std::__ndk1::regex_traits<char> >::__exec(std::__ndk1::__state<char>&) const
PUBLIC fa94 0 std::__ndk1::__back_ref<char>::~__back_ref()
PUBLIC fadc 0 std::__ndk1::__back_ref<char>::__exec(std::__ndk1::__state<char>&) const
PUBLIC fbac 0 std::__ndk1::__bracket_expression<char, std::__ndk1::regex_traits<char> >::__add_char[abi:ne180000](char)
PUBLIC 1005c 0 std::__ndk1::__bracket_expression<char, std::__ndk1::regex_traits<char> >::__bracket_expression[abi:ne180000](std::__ndk1::regex_traits<char> const&, std::__ndk1::__node<char>*, bool, bool, bool)
PUBLIC 10238 0 std::__ndk1::vector<std::__ndk1::basic_string<char, std::__ndk1::char_traits<char>, std::__ndk1::allocator<char> >, std::__ndk1::allocator<std::__ndk1::basic_string<char, std::__ndk1::char_traits<char>, std::__ndk1::allocator<char> > > >::~vector[abi:ne180000]()
PUBLIC 102b4 0 std::__ndk1::vector<std::__ndk1::pair<std::__ndk1::basic_string<char, std::__ndk1::char_traits<char>, std::__ndk1::allocator<char> >, std::__ndk1::basic_string<char, std::__ndk1::char_traits<char>, std::__ndk1::allocator<char> > >, std::__ndk1::allocator<std::__ndk1::pair<std::__ndk1::basic_string<char, std::__ndk1::char_traits<char>, std::__ndk1::allocator<char> >, std::__ndk1::basic_string<char, std::__ndk1::char_traits<char>, std::__ndk1::allocator<char> > > > >::~vector[abi:ne180000]()
PUBLIC 10358 0 std::__ndk1::__bracket_expression<char, std::__ndk1::regex_traits<char> >::~__bracket_expression()
PUBLIC 104a4 0 std::__ndk1::__bracket_expression<char, std::__ndk1::regex_traits<char> >::~__bracket_expression()
PUBLIC 104c8 0 std::__ndk1::__bracket_expression<char, std::__ndk1::regex_traits<char> >::__exec(std::__ndk1::__state<char>&) const
PUBLIC 11134 0 std::__ndk1::pair<std::__ndk1::basic_string<char, std::__ndk1::char_traits<char>, std::__ndk1::allocator<char> >, std::__ndk1::basic_string<char, std::__ndk1::char_traits<char>, std::__ndk1::allocator<char> > >::~pair()
PUBLIC 11178 0 std::__ndk1::basic_string<char, std::__ndk1::char_traits<char>, std::__ndk1::allocator<char> >::__throw_length_error[abi:ne180000]() const
PUBLIC 1118c 0 std::__ndk1::basic_string<char, std::__ndk1::char_traits<char>, std::__ndk1::allocator<char> >::__assign_no_alias<true>(char const*, unsigned long)
PUBLIC 11234 0 std::__ndk1::basic_string<char, std::__ndk1::char_traits<char>, std::__ndk1::allocator<char> >::__assign_no_alias<false>(char const*, unsigned long)
PUBLIC 11340 0 std::__ndk1::regex_traits<char>::__transform_primary<char*>(char*, char*, char) const
PUBLIC 11500 0 std::__ndk1::vector<char, std::__ndk1::allocator<char> >::__throw_length_error[abi:ne180000]() const
PUBLIC 11514 0 std::__ndk1::__throw_regex_error[abi:ne180000]<(std::__ndk1::regex_constants::error_type)5>()
PUBLIC 11560 0 std::__ndk1::basic_regex<char, std::__ndk1::regex_traits<char> >::__parse_class_escape<char const*>(char const*, char const*, std::__ndk1::basic_string<char, std::__ndk1::char_traits<char>, std::__ndk1::allocator<char> >&, std::__ndk1::__bracket_expression<char, std::__ndk1::regex_traits<char> >*)
PUBLIC 11b28 0 std::__ndk1::basic_regex<char, std::__ndk1::regex_traits<char> >::__parse_awk_escape<char const*>(char const*, char const*, std::__ndk1::basic_string<char, std::__ndk1::char_traits<char>, std::__ndk1::allocator<char> >*)
PUBLIC 11fec 0 std::__ndk1::__bracket_expression<char, std::__ndk1::regex_traits<char> >::__add_digraph[abi:ne180000](char, char)
PUBLIC 1240c 0 std::__ndk1::__throw_regex_error[abi:ne180000]<(std::__ndk1::regex_constants::error_type)1>()
PUBLIC 12458 0 std::__ndk1::regex_traits<char>::__lookup_collatename<char const*>(char const*, char const*, char) const
PUBLIC 12708 0 std::__ndk1::vector<std::__ndk1::basic_string<char, std::__ndk1::char_traits<char>, std::__ndk1::allocator<char> >, std::__ndk1::allocator<std::__ndk1::basic_string<char, std::__ndk1::char_traits<char>, std::__ndk1::allocator<char> > > >::__push_back_slow_path<std::__ndk1::basic_string<char, std::__ndk1::char_traits<char>, std::__ndk1::allocator<char> > const&>(std::__ndk1::basic_string<char, std::__ndk1::char_traits<char>, std::__ndk1::allocator<char> > const&)
PUBLIC 1292c 0 std::__ndk1::basic_string<char, std::__ndk1::char_traits<char>, std::__ndk1::allocator<char> >::__init_copy_ctor_external(char const*, unsigned long)
PUBLIC 129a8 0 std::__ndk1::__split_buffer<std::__ndk1::basic_string<char, std::__ndk1::char_traits<char>, std::__ndk1::allocator<char> >, std::__ndk1::allocator<std::__ndk1::basic_string<char, std::__ndk1::char_traits<char>, std::__ndk1::allocator<char> > >&>::~__split_buffer()
PUBLIC 12a10 0 std::__ndk1::vector<std::__ndk1::basic_string<char, std::__ndk1::char_traits<char>, std::__ndk1::allocator<char> >, std::__ndk1::allocator<std::__ndk1::basic_string<char, std::__ndk1::char_traits<char>, std::__ndk1::allocator<char> > > >::__throw_length_error[abi:ne180000]() const
PUBLIC 12a24 0 std::__ndk1::__throw_regex_error[abi:ne180000]<(std::__ndk1::regex_constants::error_type)2>()
PUBLIC 12a70 0 std::__ndk1::regex_traits<char>::transform<std::__ndk1::__wrap_iter<char*> >(std::__ndk1::__wrap_iter<char*>, std::__ndk1::__wrap_iter<char*>) const
PUBLIC 12c20 0 std::__ndk1::__throw_regex_error[abi:ne180000]<(std::__ndk1::regex_constants::error_type)9>()
PUBLIC 12c6c 0 std::__ndk1::vector<std::__ndk1::pair<std::__ndk1::basic_string<char, std::__ndk1::char_traits<char>, std::__ndk1::allocator<char> >, std::__ndk1::basic_string<char, std::__ndk1::char_traits<char>, std::__ndk1::allocator<char> > >, std::__ndk1::allocator<std::__ndk1::pair<std::__ndk1::basic_string<char, std::__ndk1::char_traits<char>, std::__ndk1::allocator<char> >, std::__ndk1::basic_string<char, std::__ndk1::char_traits<char>, std::__ndk1::allocator<char> > > > >::__push_back_slow_path<std::__ndk1::pair<std::__ndk1::basic_string<char, std::__ndk1::char_traits<char>, std::__ndk1::allocator<char> >, std::__ndk1::basic_string<char, std::__ndk1::char_traits<char>, std::__ndk1::allocator<char> > > >(std::__ndk1::pair<std::__ndk1::basic_string<char, std::__ndk1::char_traits<char>, std::__ndk1::allocator<char> >, std::__ndk1::basic_string<char, std::__ndk1::char_traits<char>, std::__ndk1::allocator<char> > >&&)
PUBLIC 12e14 0 std::__ndk1::vector<std::__ndk1::pair<std::__ndk1::basic_string<char, std::__ndk1::char_traits<char>, std::__ndk1::allocator<char> >, std::__ndk1::basic_string<char, std::__ndk1::char_traits<char>, std::__ndk1::allocator<char> > >, std::__ndk1::allocator<std::__ndk1::pair<std::__ndk1::basic_string<char, std::__ndk1::char_traits<char>, std::__ndk1::allocator<char> >, std::__ndk1::basic_string<char, std::__ndk1::char_traits<char>, std::__ndk1::allocator<char> > > > >::__throw_length_error[abi:ne180000]() const
PUBLIC 12e28 0 std::__ndk1::vector<std::__ndk1::pair<char, char>, std::__ndk1::allocator<std::__ndk1::pair<char, char> > >::__throw_length_error[abi:ne180000]() const
PUBLIC 12e3c 0 std::__ndk1::__begin_marked_subexpression<char>::~__begin_marked_subexpression()
PUBLIC 12e84 0 std::__ndk1::__begin_marked_subexpression<char>::__exec(std::__ndk1::__state<char>&) const
PUBLIC 12eb4 0 std::__ndk1::__end_marked_subexpression<char>::~__end_marked_subexpression()
PUBLIC 12efc 0 std::__ndk1::__end_marked_subexpression<char>::__exec(std::__ndk1::__state<char>&) const
PUBLIC 12f34 0 std::__ndk1::basic_regex<char, std::__ndk1::regex_traits<char> >::__push_loop(unsigned long, unsigned long, std::__ndk1::__owns_one_state<char>*, unsigned long, unsigned long, bool)
PUBLIC 13074 0 std::__ndk1::__throw_regex_error[abi:ne180000]<(std::__ndk1::regex_constants::error_type)8>()
PUBLIC 130c0 0 std::__ndk1::__throw_regex_error[abi:ne180000]<(std::__ndk1::regex_constants::error_type)7>()
PUBLIC 1310c 0 std::__ndk1::__loop<char>::~__loop()
PUBLIC 13174 0 std::__ndk1::__loop<char>::__exec(std::__ndk1::__state<char>&) const
PUBLIC 13338 0 std::__ndk1::__loop<char>::__exec_split(bool, std::__ndk1::__state<char>&) const
PUBLIC 133fc 0 std::__ndk1::__owns_two_states<char>::~__owns_two_states()
PUBLIC 13464 0 std::__ndk1::__repeat_one_loop<char>::~__repeat_one_loop()
PUBLIC 13468 0 std::__ndk1::__repeat_one_loop<char>::__exec(std::__ndk1::__state<char>&) const
PUBLIC 1347c 0 std::__ndk1::__owns_two_states<char>::~__owns_two_states()
PUBLIC 134e8 0 std::__ndk1::__alternate<char>::~__alternate()
PUBLIC 13550 0 std::__ndk1::__alternate<char>::__exec(std::__ndk1::__state<char>&) const
PUBLIC 1355c 0 std::__ndk1::__alternate<char>::__exec_split(bool, std::__ndk1::__state<char>&) const
PUBLIC 13580 0 std::__ndk1::__node<char>::~__node()
PUBLIC 13584 0 std::__ndk1::__empty_non_own_state<char>::~__empty_non_own_state()
PUBLIC 13588 0 std::__ndk1::__empty_non_own_state<char>::__exec(std::__ndk1::__state<char>&) const
PUBLIC 1359c 0 std::__ndk1::__throw_regex_error[abi:ne180000]<(std::__ndk1::regex_constants::error_type)15>()
PUBLIC 135e8 0 std::__ndk1::basic_regex<char, std::__ndk1::regex_traits<char> >::__parse_nondupl_RE<char const*>(char const*, char const*)
PUBLIC 138e4 0 std::__ndk1::basic_regex<char, std::__ndk1::regex_traits<char> >::__parse_RE_dupl_symbol<char const*>(char const*, char const*, std::__ndk1::__owns_one_state<char>*, unsigned int, unsigned int)
PUBLIC 13b54 0 std::__ndk1::__owns_one_state<char>::~__owns_one_state()
PUBLIC 13b80 0 std::__ndk1::__match_any<char>::~__match_any()
PUBLIC 13bc8 0 std::__ndk1::__match_any<char>::__exec(std::__ndk1::__state<char>&) const
PUBLIC 13c08 0 std::__ndk1::basic_regex<char, std::__ndk1::regex_traits<char> >::__test_back_ref(char)
PUBLIC 13c68 0 std::__ndk1::basic_regex<char, std::__ndk1::regex_traits<char> >::__parse_ERE_expression<char const*>(char const*, char const*)
PUBLIC 13fb4 0 geode::modifier::ModifyDerive<MyPlayLayer, PlayLayer>::apply()
PUBLIC 1430c 0 std::__ndk1::shared_ptr<geode::Hook>::~shared_ptr[abi:ne180000]()
PUBLIC 1435c 0 geode::impl::ResultData<geode::Hook*, std::__ndk1::basic_string<char, std::__ndk1::char_traits<char>, std::__ndk1::allocator<char> > >::~ResultData()
PUBLIC 143d0 0 geode::modifier::ModifyBase<geode::modifier::ModifyDerive<MyPlayLayer, PlayLayer> >::apply()
PUBLIC 143d4 0 std::__ndk1::__tree<std::__ndk1::__value_type<std::__ndk1::basic_string<char, std::__ndk1::char_traits<char>, std::__ndk1::allocator<char> >, std::__ndk1::shared_ptr<geode::Hook> >, std::__ndk1::__map_value_compare<std::__ndk1::basic_string<char, std::__ndk1::char_traits<char>, std::__ndk1::allocator<char> >, std::__ndk1::__value_type<std::__ndk1::basic_string<char, std::__ndk1::char_traits<char>, std::__ndk1::allocator<char> >, std::__ndk1::shared_ptr<geode::Hook> >, std::__ndk1::less<std::__ndk1::basic_string<char, std::__ndk1::char_traits<char>, std::__ndk1::allocator<char> > >, true>, std::__ndk1::allocator<std::__ndk1::__value_type<std::__ndk1::basic_string<char, std::__ndk1::char_traits<char>, std::__ndk1::allocator<char> >, std::__ndk1::shared_ptr<geode::Hook> > > >::find<std::__ndk1::basic_string<char, std::__ndk1::char_traits<char>, std::__ndk1::allocator<char> > >(std::__ndk1::basic_string<char, std::__ndk1::char_traits<char>, std::__ndk1::allocator<char> > const&)
PUBLIC 144f4 0 std::__ndk1::__tree_balance_after_insert[abi:ne180000]<std::__ndk1::__tree_node_base<void*>*>(std::__ndk1::__tree_node_base<void*>*, std::__ndk1::__tree_node_base<void*>*)
PUBLIC 146a4 0 _ZN5geode15UnwrapExceptionC2IRPNS_4HookEQsr4implE18IsStringStreamableIT_EEENS_4impl5OkTagEOS5_
PUBLIC 14da0 0 std::__ndk1::__throw_bad_variant_access[abi:ne180000]()
PUBLIC m 14dd4 0 std::__ndk1::basic_stringstream<char, std::__ndk1::char_traits<char>, std::__ndk1::allocator<char> >::~basic_stringstream()
PUBLIC 14e54 0 geode::UnwrapException::~UnwrapException()
PUBLIC 14e78 0 std::__ndk1::__variant_detail::__visitation::__base::__dispatcher<(unsigned long)0>::__dispatch[abi:ne180000]<std::__ndk1::__variant_detail::__dtor<std::__ndk1::__variant_detail::__traits<std::__ndk1::monostate, std::__ndk1::basic_string<char, std::__ndk1::char_traits<char>, std::__ndk1::allocator<char> > >, (std::__ndk1::__variant_detail::_Trait)1>::__destroy[abi:ne180000]()::{lambda(auto:1&)#1}, std::__ndk1::__variant_detail::__base<(std::__ndk1::__variant_detail::__traits<std::__ndk1::monostate, std::__ndk1::basic_string<char, std::__ndk1::char_traits<char>, std::__ndk1::allocator<char> > >)1, std::__ndk1::__variant_detail::__traits, std::__ndk1::allocator<char> >&>(std::__ndk1::__variant_detail::__dtor<std::__ndk1::__variant_detail::__traits<std::__ndk1::monostate, std::__ndk1::basic_string<char, std::__ndk1::char_traits<char>, std::__ndk1::allocator<char> > >, (std::__ndk1::__variant_detail::_Trait)1>, std::__ndk1::__variant_detail::__base<(std::__ndk1::__variant_detail::__traits<std::__ndk1::monostate, std::__ndk1::basic_string<char, std::__ndk1::char_traits<char>, std::__ndk1::allocator<char> > >)1, std::__ndk1::__variant_detail::__traits, std::__ndk1::allocator<char> >&)
PUBLIC 14e7c 0 std::__ndk1::__variant_detail::__visitation::__base::__dispatcher<(unsigned long)1>::__dispatch[abi:ne180000]<std::__ndk1::__variant_detail::__dtor<std::__ndk1::__variant_detail::__traits<std::__ndk1::monostate, std::__ndk1::basic_string<char, std::__ndk1::char_traits<char>, std::__ndk1::allocator<char> > >, (std::__ndk1::__variant_detail::_Trait)1>::__destroy[abi:ne180000]()::{lambda(auto:1&)#1}, std::__ndk1::__variant_detail::__base<(std::__ndk1::__variant_detail::__traits<std::__ndk1::monostate, std::__ndk1::basic_string<char, std::__ndk1::char_traits<char>, std::__ndk1::allocator<char> > >)1, std::__ndk1::__variant_detail::__traits, std::__ndk1::allocator<char> >&>(std::__ndk1::__variant_detail::__dtor<std::__ndk1::__variant_detail::__traits<std::__ndk1::monostate, std::__ndk1::basic_string<char, std::__ndk1::char_traits<char>, std::__ndk1::allocator<char> > >, (std::__ndk1::__variant_detail::_Trait)1>, std::__ndk1::__variant_detail::__base<(std::__ndk1::__variant_detail::__traits<std::__ndk1::monostate, std::__ndk1::basic_string<char, std::__ndk1::char_traits<char>, std::__ndk1::allocator<char> > >)1, std::__ndk1::__variant_detail::__traits, std::__ndk1::allocator<char> >&)
PUBLIC 14e90 0 std::__ndk1::__variant_detail::__visitation::__base::__dispatcher<(unsigned long)0>::__dispatch[abi:ne180000]<std::__ndk1::__variant_detail::__dtor<std::__ndk1::__variant_detail::__traits<geode::Hook*, std::__ndk1::basic_string<char, std::__ndk1::char_traits<char>, std::__ndk1::allocator<char> > >, (std::__ndk1::__variant_detail::_Trait)1>::__destroy[abi:ne180000]()::{lambda(auto:1&)#1}, std::__ndk1::__variant_detail::__base<(std::__ndk1::__variant_detail::__traits<geode::Hook*, std::__ndk1::basic_string<char, std::__ndk1::char_traits<char>, std::__ndk1::allocator<char> > >)1, geode::Hook, std::__ndk1::allocator<char> >&>(std::__ndk1::__variant_detail::__dtor<std::__ndk1::__variant_detail::__traits<geode::Hook*, std::__ndk1::basic_string<char, std::__ndk1::char_traits<char>, std::__ndk1::allocator<char> > >, (std::__ndk1::__variant_detail::_Trait)1>, std::__ndk1::__variant_detail::__base<(std::__ndk1::__variant_detail::__traits<geode::Hook*, std::__ndk1::basic_string<char, std::__ndk1::char_traits<char>, std::__ndk1::allocator<char> > >)1, geode::Hook, std::__ndk1::allocator<char> >&)
PUBLIC 14e94 0 std::__ndk1::__variant_detail::__visitation::__base::__dispatcher<(unsigned long)1>::__dispatch[abi:ne180000]<std::__ndk1::__variant_detail::__dtor<std::__ndk1::__variant_detail::__traits<geode::Hook*, std::__ndk1::basic_string<char, std::__ndk1::char_traits<char>, std::__ndk1::allocator<char> > >, (std::__ndk1::__variant_detail::_Trait)1>::__destroy[abi:ne180000]()::{lambda(auto:1&)#1}, std::__ndk1::__variant_detail::__base<(std::__ndk1::__variant_detail::__traits<geode::Hook*, std::__ndk1::basic_string<char, std::__ndk1::char_traits<char>, std::__ndk1::allocator<char> > >)1, geode::Hook, std::__ndk1::allocator<char> >&>(std::__ndk1::__variant_detail::__dtor<std::__ndk1::__variant_detail::__traits<geode::Hook*, std::__ndk1::basic_string<char, std::__ndk1::char_traits<char>, std::__ndk1::allocator<char> > >, (std::__ndk1::__variant_detail::_Trait)1>, std::__ndk1::__variant_detail::__base<(std::__ndk1::__variant_detail::__traits<geode::Hook*, std::__ndk1::basic_string<char, std::__ndk1::char_traits<char>, std::__ndk1::allocator<char> > >)1, geode::Hook, std::__ndk1::allocator<char> >&)
PUBLIC 14ea8 0 std::__ndk1::__tree<std::__ndk1::__value_type<std::__ndk1::basic_string<char, std::__ndk1::char_traits<char>, std::__ndk1::allocator<char> >, std::__ndk1::shared_ptr<geode::Hook> >, std::__ndk1::__map_value_compare<std::__ndk1::basic_string<char, std::__ndk1::char_traits<char>, std::__ndk1::allocator<char> >, std::__ndk1::__value_type<std::__ndk1::basic_string<char, std::__ndk1::char_traits<char>, std::__ndk1::allocator<char> >, std::__ndk1::shared_ptr<geode::Hook> >, std::__ndk1::less<std::__ndk1::basic_string<char, std::__ndk1::char_traits<char>, std::__ndk1::allocator<char> > >, true>, std::__ndk1::allocator<std::__ndk1::__value_type<std::__ndk1::basic_string<char, std::__ndk1::char_traits<char>, std::__ndk1::allocator<char> >, std::__ndk1::shared_ptr<geode::Hook> > > >::erase(std::__ndk1::__tree_const_iterator<std::__ndk1::__value_type<std::__ndk1::basic_string<char, std::__ndk1::char_traits<char>, std::__ndk1::allocator<char> >, std::__ndk1::shared_ptr<geode::Hook> >, std::__ndk1::__tree_node<std::__ndk1::__value_type<std::__ndk1::basic_string<char, std::__ndk1::char_traits<char>, std::__ndk1::allocator<char> >, std::__ndk1::shared_ptr<geode::Hook> >, void*>*, long>)
PUBLIC 1534c 0 std::__ndk1::__tree<std::__ndk1::__value_type<std::__ndk1::basic_string<char, std::__ndk1::char_traits<char>, std::__ndk1::allocator<char> >, std::__ndk1::shared_ptr<geode::Hook> >, std::__ndk1::__map_value_compare<std::__ndk1::basic_string<char, std::__ndk1::char_traits<char>, std::__ndk1::allocator<char> >, std::__ndk1::__value_type<std::__ndk1::basic_string<char, std::__ndk1::char_traits<char>, std::__ndk1::allocator<char> >, std::__ndk1::shared_ptr<geode::Hook> >, std::__ndk1::less<std::__ndk1::basic_string<char, std::__ndk1::char_traits<char>, std::__ndk1::allocator<char> > >, true>, std::__ndk1::allocator<std::__ndk1::__value_type<std::__ndk1::basic_string<char, std::__ndk1::char_traits<char>, std::__ndk1::allocator<char> >, std::__ndk1::shared_ptr<geode::Hook> > > >::destroy(std::__ndk1::__tree_node<std::__ndk1::__value_type<std::__ndk1::basic_string<char, std::__ndk1::char_traits<char>, std::__ndk1::allocator<char> >, std::__ndk1::shared_ptr<geode::Hook> >, void*>*)
PUBLIC 153d0 0 geode::modifier::AsStaticFunction_addObject<MyPlayLayer, void (MyPlayLayer::*)(GameObject*)>::Impl<void (MyPlayLayer::*)(GameObject*)>::function(MyPlayLayer*, GameObject*)
PUBLIC 17340 0 std::__ndk1::shared_ptr<tulip::hook::CallingConvention>::~shared_ptr[abi:ne180000]()
PUBLIC 17390 0 tulip::hook::HandlerMetadata::~HandlerMetadata()
PUBLIC 173f4 0 geode::Mod::getSettingValue<bool>(std::__ndk1::basic_string_view<char, std::__ndk1::char_traits<char> >) const
PUBLIC 17524 0 geode::cast::traverseTypeinfoFor(void*, geode::cast::ClassTypeinfoType const*, char const*)
PUBLIC 1761c 0 std::__ndk1::deque<std::__ndk1::__state<char>, std::__ndk1::allocator<std::__ndk1::__state<char> > >::~deque[abi:ne180000]()
PUBLIC 177e4 0 std::__ndk1::deque<std::__ndk1::__state<char>, std::__ndk1::allocator<std::__ndk1::__state<char> > >::__add_back_capacity()
PUBLIC 17dd4 0 std::__ndk1::__split_buffer<std::__ndk1::__state<char>*, std::__ndk1::allocator<std::__ndk1::__state<char>*> >::push_back(std::__ndk1::__state<char>*&&)
PUBLIC 17f5c 0 std::__ndk1::__split_buffer<std::__ndk1::__state<char>*, std::__ndk1::allocator<std::__ndk1::__state<char>*> >::push_front(std::__ndk1::__state<char>*&&)
PUBLIC 180e8 0 std::__ndk1::vector<std::__ndk1::sub_match<std::__ndk1::__wrap_iter<char const*> >, std::__ndk1::allocator<std::__ndk1::sub_match<std::__ndk1::__wrap_iter<char const*> > > >::__throw_length_error[abi:ne180000]() const
PUBLIC 180fc 0 std::__ndk1::__tree<std::__ndk1::__value_type<std::__ndk1::basic_string<char, std::__ndk1::char_traits<char>, std::__ndk1::allocator<char> >, std::__ndk1::shared_ptr<geode::Hook> >, std::__ndk1::__map_value_compare<std::__ndk1::basic_string<char, std::__ndk1::char_traits<char>, std::__ndk1::allocator<char> >, std::__ndk1::__value_type<std::__ndk1::basic_string<char, std::__ndk1::char_traits<char>, std::__ndk1::allocator<char> >, std::__ndk1::shared_ptr<geode::Hook> >, std::__ndk1::less<std::__ndk1::basic_string<char, std::__ndk1::char_traits<char>, std::__ndk1::allocator<char> > >, true>, std::__ndk1::allocator<std::__ndk1::__value_type<std::__ndk1::basic_string<char, std::__ndk1::char_traits<char>, std::__ndk1::allocator<char> >, std::__ndk1::shared_ptr<geode::Hook> > > >::__emplace_unique_key_args<std::__ndk1::basic_string<char, std::__ndk1::char_traits<char>, std::__ndk1::allocator<char> >, std::__ndk1::piecewise_construct_t const&, std::__ndk1::tuple<std::__ndk1::basic_string<char, std::__ndk1::char_traits<char>, std::__ndk1::allocator<char> >&&>, std::__ndk1::tuple<> >(std::__ndk1::basic_string<char, std::__ndk1::char_traits<char>, std::__ndk1::allocator<char> > const&, std::__ndk1::piecewise_construct_t const&, std::__ndk1::tuple<std::__ndk1::basic_string<char, std::__ndk1::char_traits<char>, std::__ndk1::allocator<char> >&&>, std::__ndk1::tuple<>)
PUBLIC 18264 0 geode::modifier::ModifyDerive<MyLevelInfoLayer, LevelInfoLayer>::apply()
PUBLIC 185b0 0 geode::modifier::ModifyBase<geode::modifier::ModifyDerive<MyLevelInfoLayer, LevelInfoLayer> >::apply()
PUBLIC 185b4 0 geode::modifier::AsStaticFunction_onPlay<MyLevelInfoLayer, void (MyLevelInfoLayer::*)(cocos2d::CCObject*)>::Impl<void (MyLevelInfoLayer::*)(cocos2d::CCObject*)>::function(MyLevelInfoLayer*, cocos2d::CCObject*)
PUBLIC 18998 0 geode::impl::ResultData<matjson::Value&, std::__ndk1::basic_string<char, std::__ndk1::char_traits<char>, std::__ndk1::allocator<char> > >::~ResultData()
PUBLIC 18a0c 0 std::__ndk1::__variant_detail::__visitation::__base::__dispatcher<(unsigned long)0>::__dispatch[abi:ne180000]<std::__ndk1::__variant_detail::__dtor<std::__ndk1::__variant_detail::__traits<std::__ndk1::reference_wrapper<matjson::Value>, std::__ndk1::basic_string<char, std::__ndk1::char_traits<char>, std::__ndk1::allocator<char> > >, (std::__ndk1::__variant_detail::_Trait)1>::__destroy[abi:ne180000]()::{lambda(auto:1&)#1}, std::__ndk1::__variant_detail::__base<(std::__ndk1::__variant_detail::__traits<std::__ndk1::reference_wrapper<matjson::Value>, std::__ndk1::basic_string<char, std::__ndk1::char_traits<char>, std::__ndk1::allocator<char> > >)1, matjson::Value, std::__ndk1::allocator<char> >&>(std::__ndk1::__variant_detail::__dtor<std::__ndk1::__variant_detail::__traits<std::__ndk1::reference_wrapper<matjson::Value>, std::__ndk1::basic_string<char, std::__ndk1::char_traits<char>, std::__ndk1::allocator<char> > >, (std::__ndk1::__variant_detail::_Trait)1>, std::__ndk1::__variant_detail::__base<(std::__ndk1::__variant_detail::__traits<std::__ndk1::reference_wrapper<matjson::Value>, std::__ndk1::basic_string<char, std::__ndk1::char_traits<char>, std::__ndk1::allocator<char> > >)1, matjson::Value, std::__ndk1::allocator<char> >&)
PUBLIC 18a10 0 std::__ndk1::__variant_detail::__visitation::__base::__dispatcher<(unsigned long)1>::__dispatch[abi:ne180000]<std::__ndk1::__variant_detail::__dtor<std::__ndk1::__variant_detail::__traits<std::__ndk1::reference_wrapper<matjson::Value>, std::__ndk1::basic_string<char, std::__ndk1::char_traits<char>, std::__ndk1::allocator<char> > >, (std::__ndk1::__variant_detail::_Trait)1>::__destroy[abi:ne180000]()::{lambda(auto:1&)#1}, std::__ndk1::__variant_detail::__base<(std::__ndk1::__variant_detail::__traits<std::__ndk1::reference_wrapper<matjson::Value>, std::__ndk1::basic_string<char, std::__ndk1::char_traits<char>, std::__ndk1::allocator<char> > >)1, matjson::Value, std::__ndk1::allocator<char> >&>(std::__ndk1::__variant_detail::__dtor<std::__ndk1::__variant_detail::__traits<std::__ndk1::reference_wrapper<matjson::Value>, std::__ndk1::basic_string<char, std::__ndk1::char_traits<char>, std::__ndk1::allocator<char> > >, (std::__ndk1::__variant_detail::_Trait)1>, std::__ndk1::__variant_detail::__base<(std::__ndk1::__variant_detail::__traits<std::__ndk1::reference_wrapper<matjson::Value>, std::__ndk1::basic_string<char, std::__ndk1::char_traits<char>, std::__ndk1::allocator<char> > >)1, matjson::Value, std::__ndk1::allocator<char> >&)
PUBLIC 18a24 0 std::__ndk1::__variant_detail::__visitation::__base::__dispatcher<(unsigned long)0>::__dispatch[abi:ne180000]<std::__ndk1::__variant_detail::__dtor<std::__ndk1::__variant_detail::__traits<bool, std::__ndk1::basic_string<char, std::__ndk1::char_traits<char>, std::__ndk1::allocator<char> > >, (std::__ndk1::__variant_detail::_Trait)1>::__destroy[abi:ne180000]()::{lambda(auto:1&)#1}, std::__ndk1::__variant_detail::__base<(std::__ndk1::__variant_detail::__traits<bool, std::__ndk1::basic_string<char, std::__ndk1::char_traits<char>, std::__ndk1::allocator<char> > >)1, bool, std::__ndk1::allocator<char> >&>(std::__ndk1::__variant_detail::__dtor<std::__ndk1::__variant_detail::__traits<bool, std::__ndk1::basic_string<char, std::__ndk1::char_traits<char>, std::__ndk1::allocator<char> > >, (std::__ndk1::__variant_detail::_Trait)1>, std::__ndk1::__variant_detail::__base<(std::__ndk1::__variant_detail::__traits<bool, std::__ndk1::basic_string<char, std::__ndk1::char_traits<char>, std::__ndk1::allocator<char> > >)1, bool, std::__ndk1::allocator<char> >&)
PUBLIC 18a28 0 std::__ndk1::__variant_detail::__visitation::__base::__dispatcher<(unsigned long)1>::__dispatch[abi:ne180000]<std::__ndk1::__variant_detail::__dtor<std::__ndk1::__variant_detail::__traits<bool, std::__ndk1::basic_string<char, std::__ndk1::char_traits<char>, std::__ndk1::allocator<char> > >, (std::__ndk1::__variant_detail::_Trait)1>::__destroy[abi:ne180000]()::{lambda(auto:1&)#1}, std::__ndk1::__variant_detail::__base<(std::__ndk1::__variant_detail::__traits<bool, std::__ndk1::basic_string<char, std::__ndk1::char_traits<char>, std::__ndk1::allocator<char> > >)1, bool, std::__ndk1::allocator<char> >&>(std::__ndk1::__variant_detail::__dtor<std::__ndk1::__variant_detail::__traits<bool, std::__ndk1::basic_string<char, std::__ndk1::char_traits<char>, std::__ndk1::allocator<char> > >, (std::__ndk1::__variant_detail::_Trait)1>, std::__ndk1::__variant_detail::__base<(std::__ndk1::__variant_detail::__traits<bool, std::__ndk1::basic_string<char, std::__ndk1::char_traits<char>, std::__ndk1::allocator<char> > >)1, bool, std::__ndk1::allocator<char> >&)
PUBLIC 18a3c 0 std::__ndk1::__function::__base<void (FLAlertLayer*, bool)>::~__base()
PUBLIC 18a40 0 std::__ndk1::__function::__func<MyLevelInfoLayer::showWarningIfFirstInstall()::{lambda(FLAlertLayer*, bool)#1}, std::__ndk1::allocator<MyLevelInfoLayer::showWarningIfFirstInstall()::{lambda(FLAlertLayer*, bool)#1}>, void (FLAlertLayer*, bool)>::~__func()
PUBLIC 18a44 0 std::__ndk1::__function::__func<MyLevelInfoLayer::showWarningIfFirstInstall()::{lambda(FLAlertLayer*, bool)#1}, std::__ndk1::allocator<MyLevelInfoLayer::showWarningIfFirstInstall()::{lambda(FLAlertLayer*, bool)#1}>, void (FLAlertLayer*, bool)>::__clone() const
PUBLIC 18a68 0 std::__ndk1::__function::__func<MyLevelInfoLayer::showWarningIfFirstInstall()::{lambda(FLAlertLayer*, bool)#1}, std::__ndk1::allocator<MyLevelInfoLayer::showWarningIfFirstInstall()::{lambda(FLAlertLayer*, bool)#1}>, void (FLAlertLayer*, bool)>::__clone(std::__ndk1::__function::__base<void (FLAlertLayer*, bool)>*) const
PUBLIC 18a78 0 std::__ndk1::__function::__func<MyLevelInfoLayer::showWarningIfFirstInstall()::{lambda(FLAlertLayer*, bool)#1}, std::__ndk1::allocator<MyLevelInfoLayer::showWarningIfFirstInstall()::{lambda(FLAlertLayer*, bool)#1}>, void (FLAlertLayer*, bool)>::destroy()
PUBLIC 18a7c 0 std::__ndk1::__function::__func<MyLevelInfoLayer::showWarningIfFirstInstall()::{lambda(FLAlertLayer*, bool)#1}, std::__ndk1::allocator<MyLevelInfoLayer::showWarningIfFirstInstall()::{lambda(FLAlertLayer*, bool)#1}>, void (FLAlertLayer*, bool)>::destroy_deallocate()
PUBLIC 18a80 0 std::__ndk1::__function::__func<MyLevelInfoLayer::showWarningIfFirstInstall()::{lambda(FLAlertLayer*, bool)#1}, std::__ndk1::allocator<MyLevelInfoLayer::showWarningIfFirstInstall()::{lambda(FLAlertLayer*, bool)#1}>, void (FLAlertLayer*, bool)>::operator()(FLAlertLayer*&&, bool&&)
PUBLIC 18ac8 0 std::__ndk1::__function::__func<MyLevelInfoLayer::showWarningIfFirstInstall()::{lambda(FLAlertLayer*, bool)#1}, std::__ndk1::allocator<MyLevelInfoLayer::showWarningIfFirstInstall()::{lambda(FLAlertLayer*, bool)#1}>, void (FLAlertLayer*, bool)>::target(std::type_info const&) const
PUBLIC 18ae4 0 std::__ndk1::__function::__func<MyLevelInfoLayer::showWarningIfFirstInstall()::{lambda(FLAlertLayer*, bool)#1}, std::__ndk1::allocator<MyLevelInfoLayer::showWarningIfFirstInstall()::{lambda(FLAlertLayer*, bool)#1}>, void (FLAlertLayer*, bool)>::target_type() const
PUBLIC 18af0 0 _GLOBAL__sub_I_main.cpp
PUBLIC m 18bcc 0 geodeImplicitEntry
PUBLIC 18c10 0 <.plt ELF section in raydeeux.antilobotomy.android64.so>
STACK CFI INIT 9620 10 .cfa: sp 0 +
STACK CFI INIT 9630 8 .cfa: sp 0 +
STACK CFI INIT 9638 8 .cfa: sp 0 +
STACK CFI INIT 9640 14 .cfa: sp 0 +
STACK CFI INIT 9654 1c .cfa: sp 0 +
STACK CFI INIT 9670 10 .cfa: sp 0 +
STACK CFI INIT 9680 30 .cfa: sp 0 +
STACK CFI INIT 96b0 98 .cfa: sp 0 +
STACK CFI INIT 9748 59c .cfa: sp 0 +
STACK CFI INIT 9ce4 8c .cfa: sp 0 +
STACK CFI INIT 9d70 30 .cfa: sp 0 +
STACK CFI INIT 9da0 60 .cfa: sp 0 +
STACK CFI 9da4 .cfa: sp 32 +
STACK CFI 9dac .cfa: x29 32 + x19: .cfa -8 + ^ x20: .cfa -16 + ^ .ra: .cfa -24 + ^ x29: .cfa -32 + ^
STACK CFI 9dcc .cfa: sp 32 +
STACK CFI 9dd4 .cfa: sp 0 +
STACK CFI 9dd8 .cfa: x29 32 +
STACK CFI 9df4 .cfa: sp 32 +
STACK CFI 9dfc .cfa: sp 0 +
STACK CFI INIT a50c 18 .cfa: sp 0 +
STACK CFI INIT a9a8 18 .cfa: sp 0 +
STACK CFI INIT a9c0 54 .cfa: sp 0 +
STACK CFI a9c4 .cfa: sp 32 +
STACK CFI a9cc .cfa: x29 32 + x19: .cfa -16 + ^ .ra: .cfa -24 + ^ x29: .cfa -32 + ^
STACK CFI a9e8 .cfa: sp 32 +
STACK CFI a9f0 .cfa: sp 0 +
STACK CFI a9f4 .cfa: x29 32 +
STACK CFI aa08 .cfa: sp 32 +
STACK CFI aa10 .cfa: sp 0 +
STACK CFI INIT b124 26c .cfa: sp 0 +
STACK CFI b128 .cfa: sp 112 +
STACK CFI b144 .cfa: x29 96 + x19: .cfa -8 + ^ x20: .cfa -16 + ^ x21: .cfa -24 + ^ x22: .cfa -32 + ^ x23: .cfa -40 + ^ x24: .cfa -48 + ^ x25: .cfa -56 + ^ x26: .cfa -64 + ^ x27: .cfa -72 + ^ x28: .cfa -80 + ^ .ra: .cfa -88 + ^ x29: .cfa -96 + ^
STACK CFI b370 .cfa: sp 112 +
STACK CFI b38c .cfa: sp 0 +
STACK CFI INIT b390 1a8 .cfa: sp 0 +
STACK CFI b394 .cfa: sp 64 +
STACK CFI b3a4 .cfa: x29 64 + x19: .cfa -8 + ^ x20: .cfa -16 + ^ x21: .cfa -24 + ^ x22: .cfa -32 + ^ x23: .cfa -48 + ^ .ra: .cfa -56 + ^ x29: .cfa -64 + ^
STACK CFI b428 .cfa: sp 64 +
STACK CFI b438 .cfa: sp 0 +
STACK CFI b43c .cfa: x29 64 +
STACK CFI b444 .cfa: sp 64 +
STACK CFI b454 .cfa: sp 0 +
STACK CFI b458 .cfa: x29 64 +
STACK CFI b520 .cfa: sp 64 +
STACK CFI b530 .cfa: sp 0 +
STACK CFI b534 .cfa: x29 64 +
STACK CFI INIT b538 170 .cfa: sp 0 +
STACK CFI b53c .cfa: sp 96 +
STACK CFI b554 .cfa: x29 96 + x19: .cfa -8 + ^ x20: .cfa -16 + ^ x21: .cfa -24 + ^ x22: .cfa -32 + ^ x23: .cfa -40 + ^ x24: .cfa -48 + ^ x25: .cfa -56 + ^ x26: .cfa -64 + ^ x27: .cfa -80 + ^ .ra: .cfa -88 + ^ x29: .cfa -96 + ^
STACK CFI b688 .cfa: sp 96 +
STACK CFI b6a0 .cfa: sp 0 +
STACK CFI b6a4 .cfa: x29 96 +
STACK CFI INIT b6f4 4 .cfa: sp 0 +
STACK CFI INIT b6f8 c .cfa: sp 0 +
STACK CFI INIT b704 4 .cfa: sp 0 +
STACK CFI INIT b708 4 .cfa: sp 0 +
STACK CFI INIT b70c 10 .cfa: sp 0 +
STACK CFI b710 .cfa: sp 16 +
STACK CFI b714 .cfa: x29 16 + .ra: .cfa -8 + ^ x29: .cfa -16 + ^
STACK CFI INIT b71c 24 .cfa: sp 0 +
STACK CFI b720 .cfa: sp 32 +
STACK CFI b728 .cfa: x29 32 + x19: .cfa -16 + ^ .ra: .cfa -24 + ^ x29: .cfa -32 + ^
STACK CFI b734 .cfa: sp 32 +
STACK CFI b73c .cfa: sp 0 +
STACK CFI INIT b740 18 .cfa: sp 0 +
STACK CFI INIT b758 1c .cfa: sp 0 +
STACK CFI INIT b774 4 .cfa: sp 0 +
STACK CFI INIT b778 48 .cfa: sp 0 +
STACK CFI b794 .cfa: sp 32 +
STACK CFI b79c .cfa: x29 32 + x19: .cfa -16 + ^ .ra: .cfa -24 + ^ x29: .cfa -32 + ^
STACK CFI b7b4 .cfa: sp 32 +
STACK CFI b7bc .cfa: sp 0 +
STACK CFI INIT b7c0 14 .cfa: sp 0 +
STACK CFI INIT b7d4 48 .cfa: sp 0 +
STACK CFI b7f0 .cfa: sp 32 +
STACK CFI b7f8 .cfa: x29 32 + x19: .cfa -16 + ^ .ra: .cfa -24 + ^ x29: .cfa -32 + ^
STACK CFI b810 .cfa: sp 32 +
STACK CFI b818 .cfa: sp 0 +
STACK CFI INIT c1c4 3f4 .cfa: sp 0 +
STACK CFI c1c8 .cfa: sp 32 +
STACK CFI c1d0 .cfa: x29 32 + x19: .cfa -16 + ^ .ra: .cfa -24 + ^ x29: .cfa -32 + ^
STACK CFI c31c .cfa: sp 32 +
STACK CFI c324 .cfa: sp 0 +
STACK CFI c328 .cfa: x29 32 +
STACK CFI c330 .cfa: sp 32 +
STACK CFI c338 .cfa: sp 0 +
STACK CFI c33c .cfa: x29 32 +
STACK CFI c378 .cfa: sp 32 +
STACK CFI c380 .cfa: sp 0 +
STACK CFI c384 .cfa: x29 32 +
STACK CFI c3c0 .cfa: sp 32 +
STACK CFI c3c8 .cfa: sp 0 +
STACK CFI c3cc .cfa: x29 32 +
STACK CFI c3f8 .cfa: sp 32 +
STACK CFI c400 .cfa: sp 0 +
STACK CFI c404 .cfa: x29 32 +
STACK CFI c420 .cfa: sp 32 +
STACK CFI c428 .cfa: sp 0 +
STACK CFI c42c .cfa: x29 32 +
STACK CFI c490 .cfa: sp 32 +
STACK CFI c498 .cfa: sp 0 +
STACK CFI c49c .cfa: x29 32 +
STACK CFI c56c .cfa: sp 32 +
STACK CFI c574 .cfa: sp 0 +
STACK CFI c578 .cfa: x29 32 +
STACK CFI c5a4 .cfa: sp 32 +
STACK CFI c5ac .cfa: sp 0 +
STACK CFI c5b0 .cfa: x29 32 +
STACK CFI INIT c624 b4 .cfa: sp 0 +
STACK CFI c628 .cfa: sp 64 +
STACK CFI c638 .cfa: x29 64 + x19: .cfa -8 + ^ x20: .cfa -16 + ^ x21: .cfa -24 + ^ x22: .cfa -32 + ^ x23: .cfa -48 + ^ .ra: .cfa -56 + ^ x29: .cfa -64 + ^
STACK CFI c6c4 .cfa: sp 64 +
STACK CFI c6d4 .cfa: sp 0 +
STACK CFI INIT c724 48 .cfa: sp 0 +
STACK CFI c740 .cfa: sp 32 +
STACK CFI c748 .cfa: x29 32 + x19: .cfa -16 + ^ .ra: .cfa -24 + ^ x29: .cfa -32 + ^
STACK CFI c760 .cfa: sp 32 +
STACK CFI c768 .cfa: sp 0 +
STACK CFI INIT c76c 64 .cfa: sp 0 +
STACK CFI INIT c7d0 48 .cfa: sp 0 +
STACK CFI c7ec .cfa: sp 32 +
STACK CFI c7f4 .cfa: x29 32 + x19: .cfa -16 + ^ .ra: .cfa -24 + ^ x29: .cfa -32 + ^
STACK CFI c80c .cfa: sp 32 +
STACK CFI c814 .cfa: sp 0 +
STACK CFI INIT c818 54 .cfa: sp 0 +
STACK CFI INIT c86c 5c .cfa: sp 0 +
STACK CFI c870 .cfa: sp 32 +
STACK CFI c878 .cfa: x29 32 + x19: .cfa -16 + ^ .ra: .cfa -24 + ^ x29: .cfa -32 + ^
STACK CFI c8b0 .cfa: sp 32 +
STACK CFI c8b8 .cfa: sp 0 +
STACK CFI c8bc .cfa: sp 32 +
STACK CFI c8c4 .cfa: sp 0 +
STACK CFI INIT c8c8 58 .cfa: sp 0 +
STACK CFI c8cc .cfa: sp 32 +
STACK CFI c8d4 .cfa: x29 32 + x19: .cfa -16 + ^ .ra: .cfa -24 + ^ x29: .cfa -32 + ^
STACK CFI c914 .cfa: sp 32 +
STACK CFI c91c .cfa: sp 0 +
STACK CFI INIT c920 110 .cfa: sp 0 +
STACK CFI INIT ca30 90 .cfa: sp 0 +
STACK CFI ca34 .cfa: sp 32 +
STACK CFI ca3c .cfa: x29 32 + x19: .cfa -8 + ^ x20: .cfa -16 + ^ .ra: .cfa -24 + ^ x29: .cfa -32 + ^
STACK CFI caa8 .cfa: sp 32 +
STACK CFI cab0 .cfa: sp 0 +
STACK CFI cab4 .cfa: sp 32 +
STACK CFI cabc .cfa: sp 0 +
STACK CFI INIT cac0 8c .cfa: sp 0 +
STACK CFI cac4 .cfa: sp 32 +
STACK CFI cacc .cfa: x29 32 + x19: .cfa -8 + ^ x20: .cfa -16 + ^ .ra: .cfa -24 + ^ x29: .cfa -32 + ^
STACK CFI cb40 .cfa: sp 32 +
STACK CFI cb48 .cfa: sp 0 +
STACK CFI INIT d16c 1c8 .cfa: sp 0 +
STACK CFI d170 .cfa: sp 48 +
STACK CFI d17c .cfa: x29 48 + x19: .cfa -8 + ^ x20: .cfa -16 + ^ x21: .cfa -24 + ^ x22: .cfa -32 + ^ .ra: .cfa -40 + ^ x29: .cfa -48 + ^
STACK CFI d304 .cfa: sp 48 +
STACK CFI d310 .cfa: sp 0 +
STACK CFI d314 .cfa: x29 48 +
STACK CFI d320 .cfa: sp 48 +
STACK CFI d32c .cfa: sp 0 +
STACK CFI d330 .cfa: x29 48 +
STACK CFI INIT d334 14 .cfa: sp 0 +
STACK CFI d338 .cfa: sp 16 +
STACK CFI d33c .cfa: x29 16 + .ra: .cfa -8 + ^ x29: .cfa -16 + ^
STACK CFI INIT d398 30 .cfa: sp 0 +
STACK CFI d39c .cfa: sp 32 +
STACK CFI d3a4 .cfa: x29 32 + x19: .cfa -16 + ^ .ra: .cfa -24 + ^ x29: .cfa -32 + ^
STACK CFI d3bc .cfa: sp 32 +
STACK CFI d3c4 .cfa: sp 0 +
STACK CFI INIT d3c8 34 .cfa: sp 0 +
STACK CFI d3cc .cfa: sp 32 +
STACK CFI d3d4 .cfa: x29 32 + x19: .cfa -16 + ^ .ra: .cfa -24 + ^ x29: .cfa -32 + ^
STACK CFI INIT d3fc 44 .cfa: sp 0 +
STACK CFI d400 .cfa: sp 32 +
STACK CFI d408 .cfa: x29 32 + x19: .cfa -16 + ^ .ra: .cfa -24 + ^ x29: .cfa -32 + ^
STACK CFI d428 .cfa: sp 32 +
STACK CFI d430 .cfa: sp 0 +
STACK CFI d434 .cfa: sp 32 +
STACK CFI d43c .cfa: sp 0 +
STACK CFI INIT d648 98 .cfa: sp 0 +
STACK CFI d64c .cfa: sp 48 +
STACK CFI d658 .cfa: x29 48 + x19: .cfa -8 + ^ x20: .cfa -16 + ^ x21: .cfa -32 + ^ .ra: .cfa -40 + ^ x29: .cfa -48 + ^
STACK CFI d678 .cfa: sp 48 +
STACK CFI d684 .cfa: sp 0 +
STACK CFI d688 .cfa: x29 48 +
STACK CFI d6c0 .cfa: sp 48 +
STACK CFI d6cc .cfa: sp 0 +
STACK CFI d6d0 .cfa: sp 48 +
STACK CFI d6dc .cfa: sp 0 +
STACK CFI INIT d6e0 1dc .cfa: sp 0 +
STACK CFI d6e4 .cfa: sp 48 +
STACK CFI d6f0 .cfa: x29 48 + x19: .cfa -8 + ^ x20: .cfa -16 + ^ x21: .cfa -24 + ^ x22: .cfa -32 + ^ .ra: .cfa -40 + ^ x29: .cfa -48 + ^
STACK CFI d8a4 .cfa: sp 48 +
STACK CFI d8b0 .cfa: sp 0 +
STACK CFI d8b4 .cfa: x29 48 +
STACK CFI INIT d8bc 14 .cfa: sp 0 +
STACK CFI d8c0 .cfa: sp 16 +
STACK CFI d8c4 .cfa: x29 16 + .ra: .cfa -8 + ^ x29: .cfa -16 + ^
STACK CFI INIT d8d0 1a8 .cfa: sp 0 +
STACK CFI d8d4 .cfa: sp 64 +
STACK CFI d8e4 .cfa: x29 64 + x19: .cfa -8 + ^ x20: .cfa -16 + ^ x21: .cfa -24 + ^ x22: .cfa -32 + ^ x23: .cfa -40 + ^ x24: .cfa -48 + ^ .ra: .cfa -56 + ^ x29: .cfa -64 + ^
STACK CFI da48 .cfa: sp 64 +
STACK CFI da58 .cfa: sp 0 +
STACK CFI da5c .cfa: sp 64 +
STACK CFI da6c .cfa: sp 0 +
STACK CFI da70 .cfa: x29 64 +
STACK CFI INIT da78 12c .cfa: sp 0 +
STACK CFI da7c .cfa: sp 64 +
STACK CFI da8c .cfa: x29 64 + x19: .cfa -8 + ^ x20: .cfa -16 + ^ x21: .cfa -24 + ^ x22: .cfa -32 + ^ x23: .cfa -40 + ^ x24: .cfa -48 + ^ .ra: .cfa -56 + ^ x29: .cfa -64 + ^
STACK CFI db74 .cfa: sp 64 +
STACK CFI db84 .cfa: sp 0 +
STACK CFI db88 .cfa: sp 64 +
STACK CFI db98 .cfa: sp 0 +
STACK CFI db9c .cfa: x29 64 +
STACK CFI INIT dba4 14 .cfa: sp 0 +
STACK CFI dba8 .cfa: sp 16 +
STACK CFI dbac .cfa: x29 16 + .ra: .cfa -8 + ^ x29: .cfa -16 + ^
STACK CFI INIT ecf0 48 .cfa: sp 0 +
STACK CFI ed0c .cfa: sp 32 +
STACK CFI ed14 .cfa: x29 32 + x19: .cfa -16 + ^ .ra: .cfa -24 + ^ x29: .cfa -32 + ^
STACK CFI ed2c .cfa: sp 32 +
STACK CFI ed34 .cfa: sp 0 +
STACK CFI INIT ed84 50c .cfa: sp 0 +
STACK CFI ed88 .cfa: sp 32 +
STACK CFI ed90 .cfa: x29 32 + x19: .cfa -16 + ^ .ra: .cfa -24 + ^ x29: .cfa -32 + ^
STACK CFI eed8 .cfa: sp 32 +
STACK CFI eee0 .cfa: sp 0 +
STACK CFI eee4 .cfa: x29 32 +
STACK CFI f054 .cfa: sp 32 +
STACK CFI f05c .cfa: sp 0 +
STACK CFI f060 .cfa: x29 32 +
STACK CFI f07c .cfa: sp 32 +
STACK CFI f084 .cfa: sp 0 +
STACK CFI f088 .cfa: x29 32 +
STACK CFI f0e4 .cfa: sp 32 +
STACK CFI f0ec .cfa: sp 0 +
STACK CFI f0f0 .cfa: x29 32 +
STACK CFI f10c .cfa: sp 32 +
STACK CFI f114 .cfa: sp 0 +
STACK CFI f118 .cfa: x29 32 +
STACK CFI f134 .cfa: sp 32 +
STACK CFI f13c .cfa: sp 0 +
STACK CFI f140 .cfa: x29 32 +
STACK CFI f15c .cfa: sp 32 +
STACK CFI f164 .cfa: sp 0 +
STACK CFI f168 .cfa: x29 32 +
STACK CFI f180 .cfa: sp 32 +
STACK CFI f188 .cfa: sp 0 +
STACK CFI f18c .cfa: x29 32 +
STACK CFI f1a8 .cfa: sp 32 +
STACK CFI f1b0 .cfa: sp 0 +
STACK CFI f1b4 .cfa: x29 32 +
STACK CFI f1d0 .cfa: sp 32 +
STACK CFI f1d8 .cfa: sp 0 +
STACK CFI f1dc .cfa: x29 32 +
STACK CFI f1f8 .cfa: sp 32 +
STACK CFI f200 .cfa: sp 0 +
STACK CFI f204 .cfa: x29 32 +
STACK CFI f258 .cfa: sp 32 +
STACK CFI f260 .cfa: sp 0 +
STACK CFI f264 .cfa: x29 32 +
STACK CFI f280 .cfa: sp 32 +
STACK CFI f288 .cfa: sp 0 +
STACK CFI f28c .cfa: x29 32 +
STACK CFI INIT f41c c8 .cfa: sp 0 +
STACK CFI f420 .cfa: sp 48 +
STACK CFI f42c .cfa: x29 48 + x19: .cfa -8 + ^ x20: .cfa -16 + ^ x21: .cfa -32 + ^ .ra: .cfa -40 + ^ x29: .cfa -48 + ^
STACK CFI f4d4 .cfa: sp 48 +
STACK CFI f4e0 .cfa: sp 0 +
STACK CFI INIT f4e4 5c .cfa: sp 0 +
STACK CFI f4e8 .cfa: sp 32 +
STACK CFI f4f0 .cfa: x29 32 + x19: .cfa -16 + ^ .ra: .cfa -24 + ^ x29: .cfa -32 + ^
STACK CFI f528 .cfa: sp 32 +
STACK CFI f530 .cfa: sp 0 +
STACK CFI f534 .cfa: sp 32 +
STACK CFI f53c .cfa: sp 0 +
STACK CFI INIT f540 58 .cfa: sp 0 +
STACK CFI f544 .cfa: sp 32 +
STACK CFI f54c .cfa: x29 32 + x19: .cfa -16 + ^ .ra: .cfa -24 + ^ x29: .cfa -32 + ^
STACK CFI f58c .cfa: sp 32 +
STACK CFI f594 .cfa: sp 0 +
STACK CFI INIT f598 80 .cfa: sp 0 +
STACK CFI f59c .cfa: sp 32 +
STACK CFI f5a4 .cfa: x29 32 + x19: .cfa -8 + ^ x20: .cfa -16 + ^ .ra: .cfa -24 + ^ x29: .cfa -32 + ^
STACK CFI f5f4 .cfa: sp 32 +
STACK CFI f5fc .cfa: sp 0 +
STACK CFI f600 .cfa: x29 32 +
STACK CFI f60c .cfa: sp 32 +
STACK CFI f614 .cfa: sp 0 +
STACK CFI INIT f618 5c .cfa: sp 0 +
STACK CFI f61c .cfa: sp 32 +
STACK CFI f624 .cfa: x29 32 + x19: .cfa -16 + ^ .ra: .cfa -24 + ^ x29: .cfa -32 + ^
STACK CFI f65c .cfa: sp 32 +
STACK CFI f664 .cfa: sp 0 +
STACK CFI f668 .cfa: sp 32 +
STACK CFI f670 .cfa: sp 0 +
STACK CFI INIT f674 58 .cfa: sp 0 +
STACK CFI f678 .cfa: sp 32 +
STACK CFI f680 .cfa: x29 32 + x19: .cfa -16 + ^ .ra: .cfa -24 + ^ x29: .cfa -32 + ^
STACK CFI f6c0 .cfa: sp 32 +
STACK CFI f6c8 .cfa: sp 0 +
STACK CFI INIT f6cc 48 .cfa: sp 0 +
STACK CFI INIT f714 48 .cfa: sp 0 +
STACK CFI f730 .cfa: sp 32 +
STACK CFI f738 .cfa: x29 32 + x19: .cfa -16 + ^ .ra: .cfa -24 + ^ x29: .cfa -32 + ^
STACK CFI f750 .cfa: sp 32 +
STACK CFI f758 .cfa: sp 0 +
STACK CFI INIT f75c 48 .cfa: sp 0 +
STACK CFI INIT f7a4 5c .cfa: sp 0 +
STACK CFI f7a8 .cfa: sp 32 +
STACK CFI f7b0 .cfa: x29 32 + x19: .cfa -16 + ^ .ra: .cfa -24 + ^ x29: .cfa -32 + ^
STACK CFI f7e8 .cfa: sp 32 +
STACK CFI f7f0 .cfa: sp 0 +
STACK CFI f7f4 .cfa: sp 32 +
STACK CFI f7fc .cfa: sp 0 +
STACK CFI INIT f800 58 .cfa: sp 0 +
STACK CFI f804 .cfa: sp 32 +
STACK CFI f80c .cfa: x29 32 + x19: .cfa -16 + ^ .ra: .cfa -24 + ^ x29: .cfa -32 + ^
STACK CFI f84c .cfa: sp 32 +
STACK CFI f854 .cfa: sp 0 +
STACK CFI INIT f858 f8 .cfa: sp 0 +
STACK CFI f85c .cfa: sp 64 +
STACK CFI f86c .cfa: x29 64 + x19: .cfa -8 + ^ x20: .cfa -16 + ^ x21: .cfa -24 + ^ x22: .cfa -32 + ^ x23: .cfa -40 + ^ x24: .cfa -48 + ^ .ra: .cfa -56 + ^ x29: .cfa -64 + ^
STACK CFI f8b0 .cfa: sp 64 +
STACK CFI f8c0 .cfa: sp 0 +
STACK CFI f8c4 .cfa: x29 64 +
STACK CFI f93c .cfa: sp 64 +
STACK CFI f94c .cfa: sp 0 +
STACK CFI INIT f950 5c .cfa: sp 0 +
STACK CFI f954 .cfa: sp 32 +
STACK CFI f95c .cfa: x29 32 + x19: .cfa -16 + ^ .ra: .cfa -24 + ^ x29: .cfa -32 + ^
STACK CFI f994 .cfa: sp 32 +
STACK CFI f99c .cfa: sp 0 +
STACK CFI f9a0 .cfa: sp 32 +
STACK CFI f9a8 .cfa: sp 0 +
STACK CFI INIT f9ac 58 .cfa: sp 0 +
STACK CFI f9b0 .cfa: sp 32 +
STACK CFI f9b8 .cfa: x29 32 + x19: .cfa -16 + ^ .ra: .cfa -24 + ^ x29: .cfa -32 + ^
STACK CFI f9f8 .cfa: sp 32 +
STACK CFI fa00 .cfa: sp 0 +
STACK CFI INIT fa04 90 .cfa: sp 0 +
STACK CFI INIT fa94 48 .cfa: sp 0 +
STACK CFI fab0 .cfa: sp 32 +
STACK CFI fab8 .cfa: x29 32 + x19: .cfa -16 + ^ .ra: .cfa -24 + ^ x29: .cfa -32 + ^
STACK CFI fad0 .cfa: sp 32 +
STACK CFI fad8 .cfa: sp 0 +
STACK CFI INIT fadc d0 .cfa: sp 0 +
STACK CFI fae0 .cfa: sp 48 +
STACK CFI faec .cfa: x29 48 + x19: .cfa -8 + ^ x20: .cfa -16 + ^ x21: .cfa -24 + ^ x22: .cfa -32 + ^ .ra: .cfa -40 + ^ x29: .cfa -48 + ^
STACK CFI fb70 .cfa: sp 48 +
STACK CFI fb7c .cfa: sp 0 +
STACK CFI fb80 .cfa: x29 48 +
STACK CFI fb98 .cfa: sp 48 +
STACK CFI fba4 .cfa: sp 0 +
STACK CFI fba8 .cfa: x29 48 +
STACK CFI INIT fbac 4b0 .cfa: sp 0 +
STACK CFI fbb0 .cfa: sp 80 +
STACK CFI fbc4 .cfa: x29 80 + x19: .cfa -8 + ^ x20: .cfa -16 + ^ x21: .cfa -24 + ^ x22: .cfa -32 + ^ x23: .cfa -40 + ^ x24: .cfa -48 + ^ x25: .cfa -64 + ^ .ra: .cfa -72 + ^ x29: .cfa -80 + ^
STACK CFI fbf8 .cfa: sp 80 +
STACK CFI fc0c .cfa: sp 0 +
STACK CFI fc10 .cfa: x29 80 +
STACK CFI ffd0 .cfa: sp 80 +
STACK CFI ffe4 .cfa: sp 0 +
STACK CFI ffe8 .cfa: x29 80 +
STACK CFI 10040 .cfa: sp 80 +
STACK CFI 10054 .cfa: sp 0 +
STACK CFI 10058 .cfa: x29 80 +
STACK CFI INIT 10238 7c .cfa: sp 0 +
STACK CFI 1023c .cfa: sp 48 +
STACK CFI 10248 .cfa: x29 48 + x19: .cfa -8 + ^ x20: .cfa -16 + ^ x21: .cfa -32 + ^ .ra: .cfa -40 + ^ x29: .cfa -48 + ^
STACK CFI 10294 .cfa: sp 48 +
STACK CFI 102a0 .cfa: sp 0 +
STACK CFI 102a4 .cfa: sp 48 +
STACK CFI 102b0 .cfa: sp 0 +
STACK CFI INIT 102b4 a4 .cfa: sp 0 +
STACK CFI 102b8 .cfa: sp 48 +
STACK CFI 102c4 .cfa: x29 48 + x19: .cfa -8 + ^ x20: .cfa -16 + ^ x21: .cfa -32 + ^ .ra: .cfa -40 + ^ x29: .cfa -48 + ^
STACK CFI 102e4 .cfa: sp 48 +
STACK CFI 102f0 .cfa: sp 0 +
STACK CFI 102f4 .cfa: x29 48 +
STACK CFI 10338 .cfa: sp 48 +
STACK CFI 10344 .cfa: sp 0 +
STACK CFI 10348 .cfa: sp 48 +
STACK CFI 10354 .cfa: sp 0 +
STACK CFI INIT 10358 14c .cfa: sp 0 +
STACK CFI 1035c .cfa: sp 48 +
STACK CFI 10368 .cfa: x29 48 + x19: .cfa -8 + ^ x20: .cfa -16 + ^ x21: .cfa -32 + ^ .ra: .cfa -40 + ^ x29: .cfa -48 + ^
STACK CFI 10484 .cfa: sp 48 +
STACK CFI 10490 .cfa: sp 0 +
STACK CFI 10494 .cfa: sp 48 +
STACK CFI 104a0 .cfa: sp 0 +
STACK CFI INIT 104a4 24 .cfa: sp 0 +
STACK CFI 104a8 .cfa: sp 32 +
STACK CFI 104b0 .cfa: x29 32 + x19: .cfa -16 + ^ .ra: .cfa -24 + ^ x29: .cfa -32 + ^
STACK CFI 104bc .cfa: sp 32 +
STACK CFI 104c4 .cfa: sp 0 +
STACK CFI INIT 11134 44 .cfa: sp 0 +
STACK CFI 11138 .cfa: sp 32 +
STACK CFI 11140 .cfa: x29 32 + x19: .cfa -16 + ^ .ra: .cfa -24 + ^ x29: .cfa -32 + ^
STACK CFI 1115c .cfa: sp 32 +
STACK CFI 11164 .cfa: sp 0 +
STACK CFI 11168 .cfa: x29 32 +
STACK CFI 1116c .cfa: sp 32 +
STACK CFI 11174 .cfa: sp 0 +
STACK CFI INIT 11178 14 .cfa: sp 0 +
STACK CFI 1117c .cfa: sp 16 +
STACK CFI 11180 .cfa: x29 16 + .ra: .cfa -8 + ^ x29: .cfa -16 + ^
STACK CFI INIT 1118c a8 .cfa: sp 0 +
STACK CFI 11190 .cfa: sp 64 +
STACK CFI 111a0 .cfa: x29 64 + x19: .cfa -8 + ^ x20: .cfa -16 + ^ x21: .cfa -24 + ^ x22: .cfa -32 + ^ x23: .cfa -48 + ^ .ra: .cfa -56 + ^ x29: .cfa -64 + ^
STACK CFI 1121c .cfa: sp 64 +
STACK CFI 1122c .cfa: sp 0 +
STACK CFI 11230 .cfa: x29 64 +
STACK CFI INIT 11234 10c .cfa: sp 0 +
STACK CFI 11238 .cfa: sp 64 +
STACK CFI 11248 .cfa: x29 64 + x19: .cfa -8 + ^ x20: .cfa -16 + ^ x21: .cfa -24 + ^ x22: .cfa -32 + ^ x23: .cfa -40 + ^ x24: .cfa -48 + ^ .ra: .cfa -56 + ^ x29: .cfa -64 + ^
STACK CFI 11328 .cfa: sp 64 +
STACK CFI 11338 .cfa: sp 0 +
STACK CFI 1133c .cfa: x29 64 +
STACK CFI INIT 11500 14 .cfa: sp 0 +
STACK CFI 11504 .cfa: sp 16 +
STACK CFI 11508 .cfa: x29 16 + .ra: .cfa -8 + ^ x29: .cfa -16 + ^
STACK CFI INIT 11560 5c8 .cfa: sp 0 +
STACK CFI 11564 .cfa: sp 80 +
STACK CFI 11578 .cfa: x29 80 + x19: .cfa -8 + ^ x20: .cfa -16 + ^ x21: .cfa -24 + ^ x22: .cfa -32 + ^ x23: .cfa -40 + ^ x24: .cfa -48 + ^ x25: .cfa -56 + ^ x26: .cfa -64 + ^ .ra: .cfa -72 + ^ x29: .cfa -80 + ^
STACK CFI 11668 .cfa: sp 80 +
STACK CFI 1167c .cfa: sp 0 +
STACK CFI 11680 .cfa: x29 80 +
STACK CFI 116d4 .cfa: sp 80 +
STACK CFI 116e8 .cfa: sp 0 +
STACK CFI 116ec .cfa: x29 80 +
STACK CFI 11b08 .cfa: sp 80 +
STACK CFI 11b1c .cfa: sp 0 +
STACK CFI 11b20 .cfa: x29 80 +
STACK CFI INIT 11b28 4c4 .cfa: sp 0 +
STACK CFI 11b2c .cfa: sp 32 +
STACK CFI 11b34 .cfa: x29 32 + x19: .cfa -16 + ^ .ra: .cfa -24 + ^ x29: .cfa -32 + ^
STACK CFI 11b88 .cfa: sp 32 +
STACK CFI 11b90 .cfa: sp 0 +
STACK CFI 11b94 .cfa: x29 32 +
STACK CFI 11bd4 .cfa: sp 32 +
STACK CFI 11bdc .cfa: sp 0 +
STACK CFI 11be0 .cfa: x29 32 +
STACK CFI 11c10 .cfa: sp 32 +
STACK CFI 11c18 .cfa: sp 0 +
STACK CFI 11c1c .cfa: x29 32 +
STACK CFI 11c4c .cfa: sp 32 +
STACK CFI 11c54 .cfa: sp 0 +
STACK CFI 11c58 .cfa: x29 32 +
STACK CFI 11c68 .cfa: sp 32 +
STACK CFI 11c70 .cfa: sp 0 +
STACK CFI 11c74 .cfa: x29 32 +
STACK CFI 11c94 .cfa: sp 32 +
STACK CFI 11c9c .cfa: sp 0 +
STACK CFI 11ca0 .cfa: x29 32 +
STACK CFI 11cc0 .cfa: sp 32 +
STACK CFI 11cc8 .cfa: sp 0 +
STACK CFI 11ccc .cfa: x29 32 +
STACK CFI 11cec .cfa: sp 32 +
STACK CFI 11cf4 .cfa: sp 0 +
STACK CFI 11cf8 .cfa: x29 32 +
STACK CFI 11d18 .cfa: sp 32 +
STACK CFI 11d20 .cfa: sp 0 +
STACK CFI 11d24 .cfa: x29 32 +
STACK CFI 11da8 .cfa: sp 32 +
STACK CFI 11db0 .cfa: sp 0 +
STACK CFI 11db4 .cfa: x29 32 +
STACK CFI 11dc4 .cfa: sp 32 +
STACK CFI 11dcc .cfa: sp 0 +
STACK CFI 11dd0 .cfa: x29 32 +
STACK CFI 11de0 .cfa: sp 32 +
STACK CFI 11de8 .cfa: sp 0 +
STACK CFI 11dec .cfa: x29 32 +
STACK CFI 11dfc .cfa: sp 32 +
STACK CFI 11e04 .cfa: sp 0 +
STACK CFI 11e08 .cfa: x29 32 +
STACK CFI 11e18 .cfa: sp 32 +
STACK CFI 11e20 .cfa: sp 0 +
STACK CFI 11e24 .cfa: x29 32 +
STACK CFI 11e34 .cfa: sp 32 +
STACK CFI 11e3c .cfa: sp 0 +
STACK CFI 11e40 .cfa: x29 32 +
STACK CFI 11e50 .cfa: sp 32 +
STACK CFI 11e58 .cfa: sp 0 +
STACK CFI 11e5c .cfa: x29 32 +
STACK CFI 11e6c .cfa: sp 32 +
STACK CFI 11e74 .cfa: sp 0 +
STACK CFI 11e78 .cfa: x29 32 +
STACK CFI 11e9c .cfa: sp 32 +
STACK CFI 11ea4 .cfa: sp 0 +
STACK CFI 11ea8 .cfa: x29 32 +
STACK CFI 11ec0 .cfa: sp 32 +
STACK CFI 11ec8 .cfa: sp 0 +
STACK CFI 11ecc .cfa: x29 32 +
STACK CFI 11ee4 .cfa: sp 32 +
STACK CFI 11eec .cfa: sp 0 +
STACK CFI 11ef0 .cfa: x29 32 +
STACK CFI 11f08 .cfa: sp 32 +
STACK CFI 11f10 .cfa: sp 0 +
STACK CFI 11f14 .cfa: x29 32 +
STACK CFI 11f2c .cfa: sp 32 +
STACK CFI 11f34 .cfa: sp 0 +
STACK CFI 11f38 .cfa: x29 32 +
STACK CFI 11f50 .cfa: sp 32 +
STACK CFI 11f58 .cfa: sp 0 +
STACK CFI 11f5c .cfa: x29 32 +
STACK CFI 11f74 .cfa: sp 32 +
STACK CFI 11f7c .cfa: sp 0 +
STACK CFI 11f80 .cfa: x29 32 +
STACK CFI 11f98 .cfa: sp 32 +
STACK CFI 11fa0 .cfa: sp 0 +
STACK CFI 11fa4 .cfa: x29 32 +
STACK CFI 11fbc .cfa: sp 32 +
STACK CFI 11fc4 .cfa: sp 0 +
STACK CFI 11fc8 .cfa: x29 32 +
STACK CFI 11fdc .cfa: sp 32 +
STACK CFI 11fe4 .cfa: sp 0 +
STACK CFI 11fe8 .cfa: x29 32 +
STACK CFI INIT 11fec 420 .cfa: sp 0 +
STACK CFI 11ff0 .cfa: sp 80 +
STACK CFI 12004 .cfa: x29 80 + x19: .cfa -8 + ^ x20: .cfa -16 + ^ x21: .cfa -24 + ^ x22: .cfa -32 + ^ x23: .cfa -40 + ^ x24: .cfa -48 + ^ x25: .cfa -64 + ^ .ra: .cfa -72 + ^ x29: .cfa -80 + ^
STACK CFI 12058 .cfa: sp 80 +
STACK CFI 1206c .cfa: sp 0 +
STACK CFI 12070 .cfa: x29 80 +
STACK CFI 12218 .cfa: sp 80 +
STACK CFI 1222c .cfa: sp 0 +
STACK CFI 12230 .cfa: x29 80 +
STACK CFI 123ec .cfa: sp 80 +
STACK CFI 12400 .cfa: sp 0 +
STACK CFI 12404 .cfa: x29 80 +
STACK CFI INIT 1292c 7c .cfa: sp 0 +
STACK CFI 12930 .cfa: sp 48 +
STACK CFI 1293c .cfa: x29 48 + x19: .cfa -8 + ^ x20: .cfa -16 + ^ x21: .cfa -24 + ^ x22: .cfa -32 + ^ .ra: .cfa -40 + ^ x29: .cfa -48 + ^
STACK CFI 12954 .cfa: sp 48 +
STACK CFI 12960 .cfa: sp 0 +
STACK CFI 12964 .cfa: x29 48 +
STACK CFI 12994 .cfa: sp 48 +
STACK CFI 129a0 .cfa: sp 0 +
STACK CFI 129a4 .cfa: x29 48 +
STACK CFI INIT 129a8 68 .cfa: sp 0 +
STACK CFI 129ac .cfa: sp 32 +
STACK CFI 129b4 .cfa: x29 32 + x19: .cfa -8 + ^ x20: .cfa -16 + ^ .ra: .cfa -24 + ^ x29: .cfa -32 + ^
STACK CFI 129cc .cfa: sp 32 +
STACK CFI 129d4 .cfa: sp 0 +
STACK CFI 129d8 .cfa: x29 32 +
STACK CFI 12a04 .cfa: sp 32 +
STACK CFI 12a0c .cfa: sp 0 +
STACK CFI INIT 12a10 14 .cfa: sp 0 +
STACK CFI 12a14 .cfa: sp 16 +
STACK CFI 12a18 .cfa: x29 16 + .ra: .cfa -8 + ^ x29: .cfa -16 + ^
STACK CFI INIT 12c6c 1a8 .cfa: sp 0 +
STACK CFI 12c70 .cfa: sp 48 +
STACK CFI 12c7c .cfa: x29 48 + x19: .cfa -8 + ^ x20: .cfa -16 + ^ x21: .cfa -24 + ^ x22: .cfa -32 + ^ .ra: .cfa -40 + ^ x29: .cfa -48 + ^
STACK CFI 12dfc .cfa: sp 48 +
STACK CFI 12e08 .cfa: sp 0 +
STACK CFI 12e0c .cfa: x29 48 +
STACK CFI INIT 12e14 14 .cfa: sp 0 +
STACK CFI 12e18 .cfa: sp 16 +
STACK CFI 12e1c .cfa: x29 16 + .ra: .cfa -8 + ^ x29: .cfa -16 + ^
STACK CFI INIT 12e28 14 .cfa: sp 0 +
STACK CFI 12e2c .cfa: sp 16 +
STACK CFI 12e30 .cfa: x29 16 + .ra: .cfa -8 + ^ x29: .cfa -16 + ^
STACK CFI INIT 12e3c 48 .cfa: sp 0 +
STACK CFI 12e58 .cfa: sp 32 +
STACK CFI 12e60 .cfa: x29 32 + x19: .cfa -16 + ^ .ra: .cfa -24 + ^ x29: .cfa -32 + ^
STACK CFI 12e78 .cfa: sp 32 +
STACK CFI 12e80 .cfa: sp 0 +
STACK CFI INIT 12e84 30 .cfa: sp 0 +
STACK CFI INIT 12eb4 48 .cfa: sp 0 +
STACK CFI 12ed0 .cfa: sp 32 +
STACK CFI 12ed8 .cfa: x29 32 + x19: .cfa -16 + ^ .ra: .cfa -24 + ^ x29: .cfa -32 + ^
STACK CFI 12ef0 .cfa: sp 32 +
STACK CFI 12ef8 .cfa: sp 0 +
STACK CFI INIT 12efc 38 .cfa: sp 0 +
STACK CFI INIT 1310c 68 .cfa: sp 0 +
STACK CFI 13110 .cfa: sp 32 +
STACK CFI 13118 .cfa: x29 32 + x19: .cfa -16 + ^ .ra: .cfa -24 + ^ x29: .cfa -32 + ^
STACK CFI 13168 .cfa: sp 32 +
STACK CFI 13170 .cfa: sp 0 +
STACK CFI INIT 13174 1c4 .cfa: sp 0 +
STACK CFI INIT 13338 c4 .cfa: sp 0 +
STACK CFI INIT 133fc 68 .cfa: sp 0 +
STACK CFI 13400 .cfa: sp 32 +
STACK CFI 13408 .cfa: x29 32 + x19: .cfa -16 + ^ .ra: .cfa -24 + ^ x29: .cfa -32 + ^
STACK CFI 13458 .cfa: sp 32 +
STACK CFI 13460 .cfa: sp 0 +
STACK CFI INIT 13464 4 .cfa: sp 0 +
STACK CFI INIT 13468 14 .cfa: sp 0 +
STACK CFI INIT 1347c 6c .cfa: sp 0 +
STACK CFI 13480 .cfa: sp 32 +
STACK CFI 13488 .cfa: x29 32 + x19: .cfa -16 + ^ .ra: .cfa -24 + ^ x29: .cfa -32 + ^
STACK CFI 134d0 .cfa: sp 32 +
STACK CFI 134d8 .cfa: sp 0 +
STACK CFI 134dc .cfa: sp 32 +
STACK CFI 134e4 .cfa: sp 0 +
STACK CFI INIT 134e8 68 .cfa: sp 0 +
STACK CFI 134ec .cfa: sp 32 +
STACK CFI 134f4 .cfa: x29 32 + x19: .cfa -16 + ^ .ra: .cfa -24 + ^ x29: .cfa -32 + ^
STACK CFI 13544 .cfa: sp 32 +
STACK CFI 1354c .cfa: sp 0 +
STACK CFI INIT 13550 c .cfa: sp 0 +
STACK CFI INIT 1355c 24 .cfa: sp 0 +
STACK CFI INIT 13580 4 .cfa: sp 0 +
STACK CFI INIT 13584 4 .cfa: sp 0 +
STACK CFI INIT 13588 14 .cfa: sp 0 +
STACK CFI INIT 135e8 2fc .cfa: sp 0 +
STACK CFI 135ec .cfa: sp 64 +
STACK CFI 135fc .cfa: x29 64 + x19: .cfa -8 + ^ x20: .cfa -16 + ^ x21: .cfa -24 + ^ x22: .cfa -32 + ^ x23: .cfa -40 + ^ x24: .cfa -48 + ^ .ra: .cfa -56 + ^ x29: .cfa -64 + ^
STACK CFI 13778 .cfa: sp 64 +
STACK CFI 13788 .cfa: sp 0 +
STACK CFI 1378c .cfa: x29 64 +
STACK CFI 137d0 .cfa: sp 64 +
STACK CFI 137e0 .cfa: sp 0 +
STACK CFI 137e4 .cfa: x29 64 +
STACK CFI 138b4 .cfa: sp 64 +
STACK CFI 138c4 .cfa: sp 0 +
STACK CFI 138c8 .cfa: sp 64 +
STACK CFI 138d8 .cfa: sp 0 +
STACK CFI 138dc .cfa: x29 64 +
STACK CFI INIT 138e4 270 .cfa: sp 0 +
STACK CFI 138e8 .cfa: sp 32 +
STACK CFI 138f0 .cfa: x29 32 + x19: .cfa -16 + ^ .ra: .cfa -24 + ^ x29: .cfa -32 + ^
STACK CFI 13928 .cfa: sp 32 +
STACK CFI 13930 .cfa: sp 0 +
STACK CFI 13934 .cfa: x29 32 +
STACK CFI 13a7c .cfa: sp 32 +
STACK CFI 13a84 .cfa: sp 0 +
STACK CFI 13a88 .cfa: x29 32 +
STACK CFI 13ac4 .cfa: sp 32 +
STACK CFI 13acc .cfa: sp 0 +
STACK CFI 13ad0 .cfa: x29 32 +
STACK CFI 13b44 .cfa: sp 32 +
STACK CFI 13b4c .cfa: sp 0 +
STACK CFI 13b50 .cfa: x29 32 +
STACK CFI INIT 13b54 2c .cfa: sp 0 +
STACK CFI INIT 13b80 48 .cfa: sp 0 +
STACK CFI 13b9c .cfa: sp 32 +
STACK CFI 13ba4 .cfa: x29 32 + x19: .cfa -16 + ^ .ra: .cfa -24 + ^ x29: .cfa -32 + ^
STACK CFI 13bbc .cfa: sp 32 +
STACK CFI 13bc4 .cfa: sp 0 +
STACK CFI INIT 13bc8 40 .cfa: sp 0 +
STACK CFI INIT 13c08 60 .cfa: sp 0 +
STACK CFI 13c0c .cfa: sp 16 +
STACK CFI 13c10 .cfa: x29 16 + .ra: .cfa -8 + ^ x29: .cfa -16 + ^
STACK CFI 13c50 .cfa: sp 16 +
STACK CFI 13c54 .cfa: sp 0 +
STACK CFI 13c58 .cfa: x29 16 +
STACK CFI 13c5c .cfa: sp 16 +
STACK CFI 13c60 .cfa: sp 0 +
STACK CFI 13c64 .cfa: x29 16 +
STACK CFI INIT 13c68 34c .cfa: sp 0 +
STACK CFI 13c6c .cfa: sp 80 +
STACK CFI 13c80 .cfa: x29 80 + x19: .cfa -8 + ^ x20: .cfa -16 + ^ x21: .cfa -24 + ^ x22: .cfa -32 + ^ x23: .cfa -40 + ^ x24: .cfa -48 + ^ x25: .cfa -64 + ^ .ra: .cfa -72 + ^ x29: .cfa -80 + ^
STACK CFI 13f7c .cfa: sp 80 +
STACK CFI 13f90 .cfa: sp 0 +
STACK CFI 13f94 .cfa: x29 80 +
STACK CFI 13f98 .cfa: sp 80 +
STACK CFI 13fac .cfa: sp 0 +
STACK CFI 13fb0 .cfa: x29 80 +
STACK CFI INIT 1430c 50 .cfa: sp 0 +
STACK CFI 14310 .cfa: sp 32 +
STACK CFI 14318 .cfa: x29 32 + x19: .cfa -16 + ^ .ra: .cfa -24 + ^ x29: .cfa -32 + ^
STACK CFI 14330 .cfa: sp 32 +
STACK CFI 14338 .cfa: sp 0 +
STACK CFI 1433c .cfa: x29 32 +
STACK CFI 14350 .cfa: sp 32 +
STACK CFI 14358 .cfa: sp 0 +
STACK CFI INIT 143d0 4 .cfa: sp 0 +
STACK CFI INIT 143d4 120 .cfa: sp 0 +
STACK CFI 143d8 .cfa: sp 64 +
STACK CFI 143e8 .cfa: x29 64 + x19: .cfa -8 + ^ x20: .cfa -16 + ^ x21: .cfa -24 + ^ x22: .cfa -32 + ^ x23: .cfa -40 + ^ x24: .cfa -48 + ^ .ra: .cfa -56 + ^ x29: .cfa -64 + ^
STACK CFI 144e0 .cfa: sp 64 +
STACK CFI 144f0 .cfa: sp 0 +
STACK CFI INIT 144f4 1b0 .cfa: sp 0 +
STACK CFI INIT 14da0 34 .cfa: sp 0 +
STACK CFI 14da4 .cfa: sp 16 +
STACK CFI 14da8 .cfa: x29 16 + .ra: .cfa -8 + ^ x29: .cfa -16 + ^
STACK CFI INIT 14dd4 80 .cfa: sp 0 +
STACK CFI 14dd8 .cfa: sp 48 +
STACK CFI 14de4 .cfa: x29 48 + x19: .cfa -8 + ^ x20: .cfa -16 + ^ x21: .cfa -32 + ^ .ra: .cfa -40 + ^ x29: .cfa -48 + ^
STACK CFI 14e44 .cfa: sp 48 +
STACK CFI 14e50 .cfa: sp 0 +
STACK CFI INIT 14e54 24 .cfa: sp 0 +
STACK CFI 14e58 .cfa: sp 32 +
STACK CFI 14e60 .cfa: x29 32 + x19: .cfa -16 + ^ .ra: .cfa -24 + ^ x29: .cfa -32 + ^
STACK CFI 14e6c .cfa: sp 32 +
STACK CFI 14e74 .cfa: sp 0 +
STACK CFI INIT 14e78 4 .cfa: sp 0 +
STACK CFI INIT 14e7c 14 .cfa: sp 0 +
STACK CFI INIT 14e90 4 .cfa: sp 0 +
STACK CFI INIT 14e94 14 .cfa: sp 0 +
STACK CFI INIT 14ea8 4a4 .cfa: sp 0 +
STACK CFI 14eac .cfa: sp 32 +
STACK CFI 14eb4 .cfa: x29 32 + x19: .cfa -8 + ^ x20: .cfa -16 + ^ .ra: .cfa -24 + ^ x29: .cfa -32 + ^
STACK CFI 15294 .cfa: sp 32 +
STACK CFI 1529c .cfa: sp 0 +
STACK CFI 152a0 .cfa: x29 32 +
STACK CFI INIT 1534c 84 .cfa: sp 0 +
STACK CFI 15354 .cfa: sp 32 +
STACK CFI 1535c .cfa: x29 32 + x19: .cfa -8 + ^ x20: .cfa -16 + ^ .ra: .cfa -24 + ^ x29: .cfa -32 + ^
STACK CFI 1539c .cfa: sp 32 +
STACK CFI 153a4 .cfa: sp 0 +
STACK CFI 153ac .cfa: x29 32 +
STACK CFI INIT 17340 50 .cfa: sp 0 +
STACK CFI 17344 .cfa: sp 32 +
STACK CFI 1734c .cfa: x29 32 + x19: .cfa -16 + ^ .ra: .cfa -24 + ^ x29: .cfa -32 + ^
STACK CFI 17364 .cfa: sp 32 +
STACK CFI 1736c .cfa: sp 0 +
STACK CFI 17370 .cfa: x29 32 +
STACK CFI 17384 .cfa: sp 32 +
STACK CFI 1738c .cfa: sp 0 +
STACK CFI INIT 17390 64 .cfa: sp 0 +
STACK CFI 17394 .cfa: sp 32 +
STACK CFI 1739c .cfa: x29 32 + x19: .cfa -16 + ^ .ra: .cfa -24 + ^ x29: .cfa -32 + ^
STACK CFI 173c8 .cfa: sp 32 +
STACK CFI 173d0 .cfa: sp 0 +
STACK CFI 173d4 .cfa: x29 32 +
STACK CFI 173e8 .cfa: sp 32 +
STACK CFI 173f0 .cfa: sp 0 +
STACK CFI INIT 173f4 130 .cfa: sp 0 +
STACK CFI 173f8 .cfa: sp 80 +
STACK CFI 17408 .cfa: x29 48 + x19: .cfa -8 + ^ x20: .cfa -16 + ^ x21: .cfa -24 + ^ x22: .cfa -32 + ^ .ra: .cfa -40 + ^ x29: .cfa -48 + ^
STACK CFI 1750c .cfa: sp 80 +
STACK CFI 1751c .cfa: sp 0 +
STACK CFI 17520 .cfa: x29 48 +
STACK CFI INIT 17524 f8 .cfa: sp 0 +
STACK CFI 17528 .cfa: sp 64 +
STACK CFI 17538 .cfa: x29 64 + x19: .cfa -8 + ^ x20: .cfa -16 + ^ x21: .cfa -24 + ^ x22: .cfa -32 + ^ x23: .cfa -48 + ^ .ra: .cfa -56 + ^ x29: .cfa -64 + ^
STACK CFI 17594 .cfa: sp 64 +
STACK CFI 175a4 .cfa: sp 0 +
STACK CFI 175a8 .cfa: x29 64 +
STACK CFI 175c4 .cfa: sp 64 +
STACK CFI 175d4 .cfa: sp 0 +
STACK CFI 175d8 .cfa: x29 64 +
STACK CFI 17608 .cfa: sp 64 +
STACK CFI 17618 .cfa: sp 0 +
STACK CFI INIT 1761c 1c8 .cfa: sp 0 +
STACK CFI 17620 .cfa: sp 80 +
STACK CFI 17634 .cfa: x29 80 + x19: .cfa -8 + ^ x20: .cfa -16 + ^ x21: .cfa -24 + ^ x22: .cfa -32 + ^ x23: .cfa -40 + ^ x24: .cfa -48 + ^ x25: .cfa -64 + ^ .ra: .cfa -72 + ^ x29: .cfa -80 + ^
STACK CFI 177b4 .cfa: sp 80 +
STACK CFI 177c8 .cfa: sp 0 +
STACK CFI 177cc .cfa: sp 80 +
STACK CFI 177e0 .cfa: sp 0 +
STACK CFI INIT 17dd4 188 .cfa: sp 0 +
STACK CFI 17dd8 .cfa: sp 80 +
STACK CFI 17dec .cfa: x29 80 + x19: .cfa -8 + ^ x20: .cfa -16 + ^ x21: .cfa -24 + ^ x22: .cfa -32 + ^ x23: .cfa -40 + ^ x24: .cfa -48 + ^ x25: .cfa -64 + ^ .ra: .cfa -72 + ^ x29: .cfa -80 + ^
STACK CFI 17f40 .cfa: sp 80 +
STACK CFI 17f54 .cfa: sp 0 +
STACK CFI 17f58 .cfa: x29 80 +
STACK CFI INIT 17f5c 18c .cfa: sp 0 +
STACK CFI 17f60 .cfa: sp 64 +
STACK CFI 17f70 .cfa: x29 64 + x19: .cfa -8 + ^ x20: .cfa -16 + ^ x21: .cfa -24 + ^ x22: .cfa -32 + ^ x23: .cfa -40 + ^ x24: .cfa -48 + ^ .ra: .cfa -56 + ^ x29: .cfa -64 + ^
STACK CFI 180d0 .cfa: sp 64 +
STACK CFI 180e0 .cfa: sp 0 +
STACK CFI 180e4 .cfa: x29 64 +
STACK CFI INIT 180e8 14 .cfa: sp 0 +
STACK CFI 180ec .cfa: sp 16 +
STACK CFI 180f0 .cfa: x29 16 + .ra: .cfa -8 + ^ x29: .cfa -16 + ^
STACK CFI INIT 180fc 168 .cfa: sp 0 +
STACK CFI 18100 .cfa: sp 80 +
STACK CFI 18114 .cfa: x29 80 + x19: .cfa -8 + ^ x20: .cfa -16 + ^ x21: .cfa -24 + ^ x22: .cfa -32 + ^ x23: .cfa -40 + ^ x24: .cfa -48 + ^ x25: .cfa -56 + ^ x26: .cfa -64 + ^ .ra: .cfa -72 + ^ x29: .cfa -80 + ^
STACK CFI 1824c .cfa: sp 80 +
STACK CFI 18260 .cfa: sp 0 +
STACK CFI INIT 185b0 4 .cfa: sp 0 +
STACK CFI INIT 18a0c 4 .cfa: sp 0 +
STACK CFI INIT 18a10 14 .cfa: sp 0 +
STACK CFI INIT 18a24 4 .cfa: sp 0 +
STACK CFI INIT 18a28 14 .cfa: sp 0 +
STACK CFI INIT 18a3c 4 .cfa: sp 0 +
STACK CFI INIT 18a40 4 .cfa: sp 0 +
STACK CFI INIT 18a44 24 .cfa: sp 0 +
STACK CFI 18a48 .cfa: sp 16 +
STACK CFI 18a4c .cfa: x29 16 + .ra: .cfa -8 + ^ x29: .cfa -16 + ^
STACK CFI 18a60 .cfa: sp 16 +
STACK CFI 18a64 .cfa: sp 0 +
STACK CFI INIT 18a68 10 .cfa: sp 0 +
STACK CFI INIT 18a78 4 .cfa: sp 0 +
STACK CFI INIT 18a7c 4 .cfa: sp 0 +
STACK CFI INIT 18a80 48 .cfa: sp 0 +
STACK CFI 18a90 .cfa: sp 32 +
STACK CFI 18a98 .cfa: x29 32 + x19: .cfa -16 + ^ .ra: .cfa -24 + ^ x29: .cfa -32 + ^
STACK CFI 18aa4 .cfa: sp 32 +
STACK CFI 18aac .cfa: sp 0 +
STACK CFI 18ab0 .cfa: x29 32 +
STACK CFI 18abc .cfa: sp 32 +
STACK CFI 18ac4 .cfa: sp 0 +
STACK CFI INIT 18ac8 1c .cfa: sp 0 +
STACK CFI INIT 18ae4 c .cfa: sp 0 +
STACK CFI INIT 18bcc 3c .cfa: sp 0 +
STACK CFI 18bd0 .cfa: sp 32 +
STACK CFI 18bd8 .cfa: x29 32 + x19: .cfa -16 + ^ .ra: .cfa -24 + ^ x29: .cfa -32 + ^
STACK CFI 18be4 .cfa: sp 32 +
STACK CFI 18bec .cfa: sp 0 +
STACK CFI 18bf0 .cfa: x29 32 +
STACK CFI 18bfc .cfa: sp 32 +
STACK CFI 18c04 .cfa: sp 0 +
STACK CFI INIT 9e00 70c .cfa: sp 0 +
STACK CFI 9e04 .cfa: sp 224 +
STACK CFI 9e20 .cfa: x29 96 + x19: .cfa -8 + ^ x20: .cfa -16 + ^ x21: .cfa -24 + ^ x22: .cfa -32 + ^ x23: .cfa -40 + ^ x24: .cfa -48 + ^ x25: .cfa -56 + ^ x26: .cfa -64 + ^ x27: .cfa -72 + ^ x28: .cfa -80 + ^ .ra: .cfa -88 + ^ x29: .cfa -96 + ^
STACK CFI 9f7c .cfa: sp 224 +
STACK CFI 9f98 .cfa: sp 0 +
STACK CFI 9f9c .cfa: x29 96 +
STACK CFI a3b8 .cfa: sp 224 +
STACK CFI a3d4 .cfa: sp 0 +
STACK CFI a3d8 .cfa: x29 96 +
STACK CFI INIT a524 484 .cfa: sp 0 +
STACK CFI a528 .cfa: sp 224 +
STACK CFI a544 .cfa: x29 96 + x19: .cfa -8 + ^ x20: .cfa -16 + ^ x21: .cfa -24 + ^ x22: .cfa -32 + ^ x23: .cfa -40 + ^ x24: .cfa -48 + ^ x25: .cfa -56 + ^ x26: .cfa -64 + ^ x27: .cfa -72 + ^ x28: .cfa -80 + ^ .ra: .cfa -88 + ^ x29: .cfa -96 + ^
STACK CFI a7b4 .cfa: sp 224 +
STACK CFI a7d0 .cfa: sp 0 +
STACK CFI a7d4 .cfa: x29 96 +
STACK CFI a8a0 .cfa: sp 224 +
STACK CFI a8bc .cfa: sp 0 +
STACK CFI a8c0 .cfa: x29 96 +
STACK CFI INIT aa14 6c4 .cfa: sp 0 +
STACK CFI aa18 .cfa: sp 112 +
STACK CFI aa34 .cfa: x29 96 + x19: .cfa -8 + ^ x20: .cfa -16 + ^ x21: .cfa -24 + ^ x22: .cfa -32 + ^ x23: .cfa -40 + ^ x24: .cfa -48 + ^ x25: .cfa -56 + ^ x26: .cfa -64 + ^ x27: .cfa -72 + ^ x28: .cfa -80 + ^ .ra: .cfa -88 + ^ x29: .cfa -96 + ^
STACK CFI ab78 .cfa: sp 112 +
STACK CFI ab94 .cfa: sp 0 +
STACK CFI ab98 .cfa: x29 96 +
STACK CFI aba4 .cfa: sp 112 +
STACK CFI abc0 .cfa: sp 0 +
STACK CFI abc4 .cfa: x29 96 +
STACK CFI b060 .cfa: sp 112 +
STACK CFI b07c .cfa: sp 0 +
STACK CFI b080 .cfa: x29 96 +
STACK CFI INIT b0d8 4c .cfa: sp 0 +
STACK CFI b0dc .cfa: sp 32 +
STACK CFI b0e4 .cfa: x29 32 + x19: .cfa -8 + ^ x20: .cfa -16 + ^ .ra: .cfa -24 + ^ x29: .cfa -32 + ^
STACK CFI INIT b6a8 4c .cfa: sp 0 +
STACK CFI b6ac .cfa: sp 32 +
STACK CFI b6b4 .cfa: x29 32 + x19: .cfa -8 + ^ x20: .cfa -16 + ^ .ra: .cfa -24 + ^ x29: .cfa -32 + ^
STACK CFI INIT b81c 364 .cfa: sp 0 +
STACK CFI b820 .cfa: sp 144 +
STACK CFI b834 .cfa: x29 64 + x19: .cfa -8 + ^ x20: .cfa -16 + ^ x21: .cfa -24 + ^ x22: .cfa -32 + ^ x23: .cfa -48 + ^ .ra: .cfa -56 + ^ x29: .cfa -64 + ^
STACK CFI b9c8 .cfa: sp 144 +
STACK CFI b9dc .cfa: sp 0 +
STACK CFI b9e0 .cfa: x29 64 +
STACK CFI INIT bb80 644 .cfa: sp 0 +
STACK CFI bb84 .cfa: sp 64 +
STACK CFI bb94 .cfa: x29 64 + x19: .cfa -8 + ^ x20: .cfa -16 + ^ x21: .cfa -24 + ^ x22: .cfa -32 + ^ x23: .cfa -48 + ^ .ra: .cfa -56 + ^ x29: .cfa -64 + ^
STACK CFI bc00 .cfa: sp 64 +
STACK CFI bc10 .cfa: sp 0 +
STACK CFI bc14 .cfa: x29 64 +
STACK CFI bc64 .cfa: sp 64 +
STACK CFI bc74 .cfa: sp 0 +
STACK CFI bc78 .cfa: x29 64 +
STACK CFI bcf4 .cfa: sp 64 +
STACK CFI bd04 .cfa: sp 0 +
STACK CFI bd08 .cfa: x29 64 +
STACK CFI bdf8 .cfa: sp 64 +
STACK CFI be08 .cfa: sp 0 +
STACK CFI be0c .cfa: x29 64 +
STACK CFI be9c .cfa: sp 64 +
STACK CFI beac .cfa: sp 0 +
STACK CFI beb0 .cfa: x29 64 +
STACK CFI bec8 .cfa: sp 64 +
STACK CFI bed8 .cfa: sp 0 +
STACK CFI bedc .cfa: x29 64 +
STACK CFI c064 .cfa: sp 64 +
STACK CFI c074 .cfa: sp 0 +
STACK CFI c078 .cfa: x29 64 +
STACK CFI c08c .cfa: sp 64 +
STACK CFI c09c .cfa: sp 0 +
STACK CFI c0a0 .cfa: x29 64 +
STACK CFI c128 .cfa: sp 64 +
STACK CFI c138 .cfa: sp 0 +
STACK CFI c13c .cfa: x29 64 +
STACK CFI INIT c5b8 6c .cfa: sp 0 +
STACK CFI c5bc .cfa: sp 32 +
STACK CFI c5c4 .cfa: x29 32 + x19: .cfa -8 + ^ x20: .cfa -16 + ^ .ra: .cfa -24 + ^ x29: .cfa -32 + ^
STACK CFI c604 .cfa: sp 32 +
STACK CFI c60c .cfa: sp 0 +
STACK CFI c610 .cfa: x29 32 +
STACK CFI INIT c6d8 4c .cfa: sp 0 +
STACK CFI c6dc .cfa: sp 32 +
STACK CFI c6e4 .cfa: x29 32 + x19: .cfa -8 + ^ x20: .cfa -16 + ^ .ra: .cfa -24 + ^ x29: .cfa -32 + ^
STACK CFI INIT cb4c 1d4 .cfa: sp 0 +
STACK CFI cb50 .cfa: sp 176 +
STACK CFI cb60 .cfa: x29 48 + x19: .cfa -8 + ^ x20: .cfa -16 + ^ x21: .cfa -24 + ^ x22: .cfa -32 + ^ .ra: .cfa -40 + ^ x29: .cfa -48 + ^
STACK CFI ccb8 .cfa: sp 176 +
STACK CFI ccc8 .cfa: sp 0 +
STACK CFI cccc .cfa: x29 48 +
STACK CFI ccdc .cfa: sp 176 +
STACK CFI ccec .cfa: sp 0 +
STACK CFI ccf0 .cfa: x29 48 +
STACK CFI INIT cd20 44c .cfa: sp 0 +
STACK CFI cd24 .cfa: sp 256 +
STACK CFI cd40 .cfa: x29 96 + x19: .cfa -8 + ^ x20: .cfa -16 + ^ x21: .cfa -24 + ^ x22: .cfa -32 + ^ x23: .cfa -40 + ^ x24: .cfa -48 + ^ x25: .cfa -56 + ^ x26: .cfa -64 + ^ x27: .cfa -72 + ^ x28: .cfa -80 + ^ .ra: .cfa -88 + ^ x29: .cfa -96 + ^
STACK CFI d070 .cfa: sp 256 +
STACK CFI d08c .cfa: sp 0 +
STACK CFI d090 .cfa: x29 96 +
STACK CFI INIT d348 50 .cfa: sp 0 +
STACK CFI d34c .cfa: sp 32 +
STACK CFI d354 .cfa: x29 32 + x19: .cfa -8 + ^ x20: .cfa -16 + ^ .ra: .cfa -24 + ^ x29: .cfa -32 + ^
STACK CFI INIT d440 4c .cfa: sp 0 +
STACK CFI d444 .cfa: sp 32 +
STACK CFI d44c .cfa: x29 32 + x19: .cfa -8 + ^ x20: .cfa -16 + ^ .ra: .cfa -24 + ^ x29: .cfa -32 + ^
STACK CFI INIT d48c 170 .cfa: sp 0 +
STACK CFI d490 .cfa: sp 80 +
STACK CFI d4a4 .cfa: x29 80 + x19: .cfa -8 + ^ x20: .cfa -16 + ^ x21: .cfa -24 + ^ x22: .cfa -32 + ^ x23: .cfa -40 + ^ x24: .cfa -48 + ^ x25: .cfa -64 + ^ .ra: .cfa -72 + ^ x29: .cfa -80 + ^
STACK CFI d598 .cfa: sp 80 +
STACK CFI d5ac .cfa: sp 0 +
STACK CFI d5b0 .cfa: x29 80 +
STACK CFI INIT d5fc 4c .cfa: sp 0 +
STACK CFI d600 .cfa: sp 32 +
STACK CFI d608 .cfa: x29 32 + x19: .cfa -8 + ^ x20: .cfa -16 + ^ .ra: .cfa -24 + ^ x29: .cfa -32 + ^
STACK CFI INIT dbb8 10ec .cfa: sp 0 +
STACK CFI dbbc .cfa: sp 432 +
STACK CFI dbd8 .cfa: x29 96 + x19: .cfa -8 + ^ x20: .cfa -16 + ^ x21: .cfa -24 + ^ x22: .cfa -32 + ^ x23: .cfa -40 + ^ x24: .cfa -48 + ^ x25: .cfa -56 + ^ x26: .cfa -64 + ^ x27: .cfa -72 + ^ x28: .cfa -80 + ^ .ra: .cfa -88 + ^ x29: .cfa -96 + ^
STACK CFI e9c0 .cfa: sp 432 +
STACK CFI e9dc .cfa: sp 0 +
STACK CFI e9e0 .cfa: x29 96 +
STACK CFI INIT eca4 4c .cfa: sp 0 +
STACK CFI eca8 .cfa: sp 32 +
STACK CFI ecb0 .cfa: x29 32 + x19: .cfa -8 + ^ x20: .cfa -16 + ^ .ra: .cfa -24 + ^ x29: .cfa -32 + ^
STACK CFI INIT ed38 4c .cfa: sp 0 +
STACK CFI ed3c .cfa: sp 32 +
STACK CFI ed44 .cfa: x29 32 + x19: .cfa -8 + ^ x20: .cfa -16 + ^ .ra: .cfa -24 + ^ x29: .cfa -32 + ^
STACK CFI INIT f290 140 .cfa: sp 0 +
STACK CFI f294 .cfa: sp 48 +
STACK CFI f2a0 .cfa: x29 48 + x19: .cfa -8 + ^ x20: .cfa -16 + ^ x21: .cfa -32 + ^ .ra: .cfa -40 + ^ x29: .cfa -48 + ^
STACK CFI f380 .cfa: sp 48 +
STACK CFI f38c .cfa: sp 0 +
STACK CFI f390 .cfa: x29 48 +
STACK CFI INIT f3d0 4c .cfa: sp 0 +
STACK CFI f3d4 .cfa: sp 32 +
STACK CFI f3dc .cfa: x29 32 + x19: .cfa -8 + ^ x20: .cfa -16 + ^ .ra: .cfa -24 + ^ x29: .cfa -32 + ^
STACK CFI INIT 1005c 1dc .cfa: sp 0 +
STACK CFI 10060 .cfa: sp 128 +
STACK CFI 10078 .cfa: x29 80 + x19: .cfa -8 + ^ x20: .cfa -16 + ^ x21: .cfa -24 + ^ x22: .cfa -32 + ^ x23: .cfa -40 + ^ x24: .cfa -48 + ^ x25: .cfa -64 + ^ .ra: .cfa -72 + ^ x29: .cfa -80 + ^
STACK CFI 1016c .cfa: sp 128 +
STACK CFI 10184 .cfa: sp 0 +
STACK CFI 10188 .cfa: x29 80 +
STACK CFI INIT 104c8 c6c .cfa: sp 0 +
STACK CFI 104cc .cfa: sp 256 +
STACK CFI 104e8 .cfa: x29 96 + x19: .cfa -8 + ^ x20: .cfa -16 + ^ x21: .cfa -24 + ^ x22: .cfa -32 + ^ x23: .cfa -40 + ^ x24: .cfa -48 + ^ x25: .cfa -56 + ^ x26: .cfa -64 + ^ x27: .cfa -72 + ^ x28: .cfa -80 + ^ .ra: .cfa -88 + ^ x29: .cfa -96 + ^
STACK CFI 11070 .cfa: sp 256 +
STACK CFI 1108c .cfa: sp 0 +
STACK CFI 11090 .cfa: x29 96 +
STACK CFI INIT 11340 1c0 .cfa: sp 0 +
STACK CFI 11344 .cfa: sp 112 +
STACK CFI 1135c .cfa: x29 80 + x19: .cfa -8 + ^ x20: .cfa -16 + ^ x21: .cfa -24 + ^ x22: .cfa -32 + ^ x23: .cfa -40 + ^ x24: .cfa -48 + ^ x25: .cfa -56 + ^ x26: .cfa -64 + ^ .ra: .cfa -72 + ^ x29: .cfa -80 + ^
STACK CFI 11488 .cfa: sp 112 +
STACK CFI 114a0 .cfa: sp 0 +
STACK CFI 114a4 .cfa: x29 80 +
STACK CFI INIT 11514 4c .cfa: sp 0 +
STACK CFI 11518 .cfa: sp 32 +
STACK CFI 11520 .cfa: x29 32 + x19: .cfa -8 + ^ x20: .cfa -16 + ^ .ra: .cfa -24 + ^ x29: .cfa -32 + ^
STACK CFI INIT 1240c 4c .cfa: sp 0 +
STACK CFI 12410 .cfa: sp 32 +
STACK CFI 12418 .cfa: x29 32 + x19: .cfa -8 + ^ x20: .cfa -16 + ^ .ra: .cfa -24 + ^ x29: .cfa -32 + ^
STACK CFI INIT 12458 2b0 .cfa: sp 0 +
STACK CFI 1245c .cfa: sp 144 +
STACK CFI 12474 .cfa: x29 80 + x19: .cfa -8 + ^ x20: .cfa -16 + ^ x21: .cfa -24 + ^ x22: .cfa -32 + ^ x23: .cfa -40 + ^ x24: .cfa -48 + ^ x25: .cfa -56 + ^ x26: .cfa -64 + ^ .ra: .cfa -72 + ^ x29: .cfa -80 + ^
STACK CFI 12678 .cfa: sp 144 +
STACK CFI 12690 .cfa: sp 0 +
STACK CFI 12694 .cfa: x29 80 +
STACK CFI INIT 12708 224 .cfa: sp 0 +
STACK CFI 1270c .cfa: sp 128 +
STACK CFI 12724 .cfa: x29 80 + x19: .cfa -8 + ^ x20: .cfa -16 + ^ x21: .cfa -24 + ^ x22: .cfa -32 + ^ x23: .cfa -40 + ^ x24: .cfa -48 + ^ x25: .cfa -64 + ^ .ra: .cfa -72 + ^ x29: .cfa -80 + ^
STACK CFI 128c0 .cfa: sp 128 +
STACK CFI 128d8 .cfa: sp 0 +
STACK CFI 128dc .cfa: x29 80 +
STACK CFI INIT 12a24 4c .cfa: sp 0 +
STACK CFI 12a28 .cfa: sp 32 +
STACK CFI 12a30 .cfa: x29 32 + x19: .cfa -8 + ^ x20: .cfa -16 + ^ .ra: .cfa -24 + ^ x29: .cfa -32 + ^
STACK CFI INIT 12a70 1b0 .cfa: sp 0 +
STACK CFI 12a74 .cfa: sp 112 +
STACK CFI 12a8c .cfa: x29 80 + x19: .cfa -8 + ^ x20: .cfa -16 + ^ x21: .cfa -24 + ^ x22: .cfa -32 + ^ x23: .cfa -40 + ^ x24: .cfa -48 + ^ x25: .cfa -64 + ^ .ra: .cfa -72 + ^ x29: .cfa -80 + ^
STACK CFI 12bc0 .cfa: sp 112 +
STACK CFI 12bd8 .cfa: sp 0 +
STACK CFI 12bdc .cfa: x29 80 +
STACK CFI INIT 12c20 4c .cfa: sp 0 +
STACK CFI 12c24 .cfa: sp 32 +
STACK CFI 12c2c .cfa: x29 32 + x19: .cfa -8 + ^ x20: .cfa -16 + ^ .ra: .cfa -24 + ^ x29: .cfa -32 + ^
STACK CFI INIT 12f34 140 .cfa: sp 0 +
STACK CFI 12f38 .cfa: sp 96 +
STACK CFI 12f50 .cfa: x29 96 + x19: .cfa -8 + ^ x20: .cfa -16 + ^ x21: .cfa -24 + ^ x22: .cfa -32 + ^ x23: .cfa -40 + ^ x24: .cfa -48 + ^ x25: .cfa -56 + ^ x26: .cfa -64 + ^ x27: .cfa -72 + ^ x28: .cfa -80 + ^ .ra: .cfa -88 + ^ x29: .cfa -96 + ^
STACK CFI 1300c .cfa: sp 96 +
STACK CFI 13024 .cfa: sp 0 +
STACK CFI 13028 .cfa: x29 96 +
STACK CFI INIT 13074 4c .cfa: sp 0 +
STACK CFI 13078 .cfa: sp 32 +
STACK CFI 13080 .cfa: x29 32 + x19: .cfa -8 + ^ x20: .cfa -16 + ^ .ra: .cfa -24 + ^ x29: .cfa -32 + ^
STACK CFI INIT 130c0 4c .cfa: sp 0 +
STACK CFI 130c4 .cfa: sp 32 +
STACK CFI 130cc .cfa: x29 32 + x19: .cfa -8 + ^ x20: .cfa -16 + ^ .ra: .cfa -24 + ^ x29: .cfa -32 + ^
STACK CFI INIT 1359c 4c .cfa: sp 0 +
STACK CFI 135a0 .cfa: sp 32 +
STACK CFI 135a8 .cfa: x29 32 + x19: .cfa -8 + ^ x20: .cfa -16 + ^ .ra: .cfa -24 + ^ x29: .cfa -32 + ^
STACK CFI INIT 13fb4 358 .cfa: sp 0 +
STACK CFI 13fb8 .cfa: sp 208 +
STACK CFI 13fcc .cfa: x29 64 + x19: .cfa -8 + ^ x20: .cfa -16 + ^ x21: .cfa -24 + ^ x22: .cfa -32 + ^ x23: .cfa -48 + ^ .ra: .cfa -56 + ^ x29: .cfa -64 + ^
STACK CFI 141e8 .cfa: sp 208 +
STACK CFI 141fc .cfa: sp 0 +
STACK CFI 14200 .cfa: x29 64 +
STACK CFI INIT 1435c 74 .cfa: sp 0 +
STACK CFI 14360 .cfa: sp 48 +
STACK CFI 1436c .cfa: x29 32 + x19: .cfa -8 + ^ x20: .cfa -16 + ^ .ra: .cfa -24 + ^ x29: .cfa -32 + ^
STACK CFI 143b8 .cfa: sp 48 +
STACK CFI 143c4 .cfa: sp 0 +
STACK CFI 143c8 .cfa: x29 32 +
STACK CFI INIT 146a4 6fc .cfa: sp 0 +
STACK CFI 146a8 .cfa: sp 496 +
STACK CFI 146c4 .cfa: x29 96 + x19: .cfa -8 + ^ x20: .cfa -16 + ^ x21: .cfa -24 + ^ x22: .cfa -32 + ^ x23: .cfa -40 + ^ x24: .cfa -48 + ^ x25: .cfa -56 + ^ x26: .cfa -64 + ^ x27: .cfa -72 + ^ x28: .cfa -80 + ^ .ra: .cfa -88 + ^ x29: .cfa -96 + ^
STACK CFI 14c74 .cfa: sp 496 +
STACK CFI 14c90 .cfa: sp 0 +
STACK CFI 14c94 .cfa: x29 96 +
STACK CFI INIT 153d0 1f70 .cfa: sp 0 +
STACK CFI 153d4 .cfa: sp 96 +
STACK CFI 153ec .cfa: x29 96 + x19: .cfa -8 + ^ x20: .cfa -16 + ^ x21: .cfa -24 + ^ x22: .cfa -32 + ^ x23: .cfa -40 + ^ x24: .cfa -48 + ^ x25: .cfa -56 + ^ x26: .cfa -64 + ^ x27: .cfa -72 + ^ x28: .cfa -80 + ^ .ra: .cfa -88 + ^ x29: .cfa -96 + ^
STACK CFI 157f4 .cfa: sp 96 +
STACK CFI 1580c .cfa: sp 0 +
STACK CFI 15810 .cfa: x29 96 +
STACK CFI INIT 177e4 5f0 .cfa: sp 0 +
STACK CFI 177e8 .cfa: sp 112 +
STACK CFI 17804 .cfa: x29 96 + x19: .cfa -8 + ^ x20: .cfa -16 + ^ x21: .cfa -24 + ^ x22: .cfa -32 + ^ x23: .cfa -40 + ^ x24: .cfa -48 + ^ x25: .cfa -56 + ^ x26: .cfa -64 + ^ x27: .cfa -80 + ^ .ra: .cfa -88 + ^ x29: .cfa -96 + ^
STACK CFI 17aa8 .cfa: sp 112 +
STACK CFI 17ac4 .cfa: sp 0 +
STACK CFI 17ac8 .cfa: x29 96 +
STACK CFI 17cbc .cfa: sp 112 +
STACK CFI 17cd8 .cfa: sp 0 +
STACK CFI 17cdc .cfa: x29 96 +
STACK CFI INIT 18264 34c .cfa: sp 0 +
STACK CFI 18268 .cfa: sp 208 +
STACK CFI 1827c .cfa: x29 64 + x19: .cfa -8 + ^ x20: .cfa -16 + ^ x21: .cfa -24 + ^ x22: .cfa -32 + ^ x23: .cfa -40 + ^ x24: .cfa -48 + ^ .ra: .cfa -56 + ^ x29: .cfa -64 + ^
STACK CFI 1848c .cfa: sp 208 +
STACK CFI 184a0 .cfa: sp 0 +
STACK CFI 184a4 .cfa: x29 64 +
STACK CFI INIT 185b4 3e4 .cfa: sp 0 +
STACK CFI 185b8 .cfa: sp 224 +
STACK CFI 185d0 .cfa: x29 80 + x19: .cfa -8 + ^ x20: .cfa -16 + ^ x21: .cfa -24 + ^ x22: .cfa -32 + ^ x23: .cfa -40 + ^ x24: .cfa -48 + ^ x25: .cfa -64 + ^ .ra: .cfa -72 + ^ x29: .cfa -80 + ^
STACK CFI 187d8 .cfa: sp 224 +
STACK CFI 187f0 .cfa: sp 0 +
STACK CFI 187f4 .cfa: x29 80 +
STACK CFI INIT 18998 74 .cfa: sp 0 +
STACK CFI 1899c .cfa: sp 48 +
STACK CFI 189a8 .cfa: x29 32 + x19: .cfa -8 + ^ x20: .cfa -16 + ^ .ra: .cfa -24 + ^ x29: .cfa -32 + ^
STACK CFI 189f4 .cfa: sp 48 +
STACK CFI 18a00 .cfa: sp 0 +
STACK CFI 18a04 .cfa: x29 32 +
STACK CFI INIT 18af0 dc .cfa: sp 0 +
STACK CFI 18af4 .cfa: sp 32 +
STACK CFI 18afc .cfa: x29 32 + x19: .cfa -16 + ^ .ra: .cfa -24 + ^ x29: .cfa -32 + ^
STACK CFI 18b88 .cfa: sp 32 +
STACK CFI 18b90 .cfa: sp 0 +
STACK CFI 18b94 .cfa: x29 32 +
