MODULE Linux arm64 AAC155BF217A4504278E90549973F8560 timestepyt.deltarune_textboxes.android64.so
INFO CODE_ID BF55C1AA7A210445278E90549973F856EDB0A026
INFO GENERATOR mozilla/dump_syms 2.3.4
PUBLIC 199f0 0 __on_dlclose
PUBLIC 19a00 0 __emutls_unregister_key
PUBLIC 19a08 0 __on_dlclose_late
PUBLIC 19a10 0 __atexit_handler_wrapper
PUBLIC 19a24 0 atexit
PUBLIC 19a40 0 pthread_atfork
PUBLIC 19a50 0 unwind_phase2
PUBLIC 19b84 0 _Unwind_Resume
PUBLIC 19c08 0 unwind_phase2_forced
PUBLIC m 19cfc 0 __unw_init_local
PUBLIC m 19da4 0 __unw_get_reg
PUBLIC 19e20 0 __unw_step_stage2
PUBLIC m 19e34 0 __unw_get_proc_info
PUBLIC m 19e74 0 __unw_resume
PUBLIC 19e9c 0 libunwind::CFI_Parser<libunwind::LocalAddressSpace>::decodeFDE(libunwind::LocalAddressSpace&, unsigned long, libunwind::CFI_Parser<libunwind::LocalAddressSpace>::FDE_Info*, libunwind::CFI_Parser<libunwind::LocalAddressSpace>::CIE_Info*, bool)
PUBLIC 1a02c 0 libunwind::CFI_Parser<libunwind::LocalAddressSpace>::parseCIE(libunwind::LocalAddressSpace&, unsigned long, libunwind::CFI_Parser<libunwind::LocalAddressSpace>::CIE_Info*)
PUBLIC 1a2f4 0 libunwind::AbstractUnwindCursor::~AbstractUnwindCursor()
PUBLIC 1a2fc 0 libunwind::UnwindCursor<libunwind::LocalAddressSpace, libunwind::Registers_arm64>::~UnwindCursor()
PUBLIC 1a304 0 libunwind::UnwindCursor<libunwind::LocalAddressSpace, libunwind::Registers_arm64>::validReg(int)
PUBLIC 1a348 0 libunwind::UnwindCursor<libunwind::LocalAddressSpace, libunwind::Registers_arm64>::getReg(int)
PUBLIC 1a430 0 libunwind::UnwindCursor<libunwind::LocalAddressSpace, libunwind::Registers_arm64>::setReg(int, unsigned long)
PUBLIC 1a518 0 libunwind::UnwindCursor<libunwind::LocalAddressSpace, libunwind::Registers_arm64>::validFloatReg(int)
PUBLIC 1a52c 0 libunwind::UnwindCursor<libunwind::LocalAddressSpace, libunwind::Registers_arm64>::getFloatReg(int)
PUBLIC 1a53c 0 libunwind::UnwindCursor<libunwind::LocalAddressSpace, libunwind::Registers_arm64>::setFloatReg(int, double)
PUBLIC 1a54c 0 libunwind::UnwindCursor<libunwind::LocalAddressSpace, libunwind::Registers_arm64>::step(bool)
PUBLIC 1a63c 0 libunwind::UnwindCursor<libunwind::LocalAddressSpace, libunwind::Registers_arm64>::getInfo(unw_proc_info_t*)
PUBLIC 1a680 0 libunwind::UnwindCursor<libunwind::LocalAddressSpace, libunwind::Registers_arm64>::jumpto()
PUBLIC 1a68c 0 libunwind::UnwindCursor<libunwind::LocalAddressSpace, libunwind::Registers_arm64>::isSignalFrame()
PUBLIC 1a698 0 libunwind::UnwindCursor<libunwind::LocalAddressSpace, libunwind::Registers_arm64>::getFunctionName(char*, unsigned long, unsigned long*)
PUBLIC 1a6c4 0 libunwind::UnwindCursor<libunwind::LocalAddressSpace, libunwind::Registers_arm64>::setInfoBasedOnIPRegister(bool)
PUBLIC 1a944 0 libunwind::UnwindCursor<libunwind::LocalAddressSpace, libunwind::Registers_arm64>::getRegisterName(int)
PUBLIC 1a950 0 libunwind::UnwindCursor<libunwind::LocalAddressSpace, libunwind::Registers_arm64>::stepThroughSigReturn(libunwind::Registers_arm64&)
PUBLIC 1aa70 0 libunwind::DwarfInstructions<libunwind::LocalAddressSpace, libunwind::Registers_arm64>::stepWithDwarf(libunwind::LocalAddressSpace&, unsigned long, unsigned long, libunwind::Registers_arm64&, bool&, bool)
PUBLIC 1aef8 0 libunwind::CFI_Parser<libunwind::LocalAddressSpace>::parseFDEInstructions(libunwind::LocalAddressSpace&, libunwind::CFI_Parser<libunwind::LocalAddressSpace>::FDE_Info const&, libunwind::CFI_Parser<libunwind::LocalAddressSpace>::CIE_Info const&, unsigned long, int, libunwind::CFI_Parser<libunwind::LocalAddressSpace>::PrologInfo*)
PUBLIC 1bb40 0 libunwind::DwarfInstructions<libunwind::LocalAddressSpace, libunwind::Registers_arm64>::getCFA(libunwind::LocalAddressSpace&, libunwind::CFI_Parser<libunwind::LocalAddressSpace>::PrologInfo const&, libunwind::Registers_arm64 const&)
PUBLIC 1bc74 0 libunwind::DwarfInstructions<libunwind::LocalAddressSpace, libunwind::Registers_arm64>::getSavedRegister(libunwind::LocalAddressSpace&, libunwind::Registers_arm64 const&, unsigned long, libunwind::CFI_Parser<libunwind::LocalAddressSpace>::RegisterLocation const&)
PUBLIC 1be84 0 libunwind::LocalAddressSpace::getEncodedP(unsigned long&, unsigned long, unsigned char, unsigned long)
PUBLIC 1c210 0 libunwind::LocalAddressSpace::getULEB128(unsigned long&, unsigned long)
PUBLIC 1c3d8 0 libunwind::DwarfInstructions<libunwind::LocalAddressSpace, libunwind::Registers_arm64>::evaluateExpression(unsigned long, libunwind::LocalAddressSpace&, libunwind::Registers_arm64 const&, unsigned long)
PUBLIC 1cd94 0 libunwind::UnwindCursor<libunwind::LocalAddressSpace, libunwind::Registers_arm64>::getInfoFromDwarfSection(unsigned long, libunwind::UnwindInfoSections const&, unsigned int)
PUBLIC 1d068 0 libunwind::findUnwindSectionsByPhdr(dl_phdr_info*, unsigned long, void*)
PUBLIC 1d19c 0 libunwind::EHHeaderParser<libunwind::LocalAddressSpace>::decodeEHHdr(libunwind::LocalAddressSpace&, unsigned long, unsigned long, libunwind::EHHeaderParser<libunwind::LocalAddressSpace>::EHHeaderInfo&)
PUBLIC 1d2bc 0 libunwind::CFI_Parser<libunwind::LocalAddressSpace>::findFDE(libunwind::LocalAddressSpace&, unsigned long, unsigned long, unsigned long, unsigned long, libunwind::CFI_Parser<libunwind::LocalAddressSpace>::FDE_Info*, libunwind::CFI_Parser<libunwind::LocalAddressSpace>::CIE_Info*)
PUBLIC 1d484 0 libunwind::EHHeaderParser<libunwind::LocalAddressSpace>::findFDE(libunwind::LocalAddressSpace&, unsigned long, unsigned long, unsigned int, libunwind::CFI_Parser<libunwind::LocalAddressSpace>::FDE_Info*, libunwind::CFI_Parser<libunwind::LocalAddressSpace>::CIE_Info*)
PUBLIC 1d5ec 0 libunwind::EHHeaderParser<libunwind::LocalAddressSpace>::getTableEntrySize(unsigned char)
PUBLIC 1d6e8 0 libunwind::Registers_arm64::getRegisterName(int)
PUBLIC 1d718 0 __libunwind_Registers_arm64_jumpto
PUBLIC m 1d7a8 0 __unw_getcontext
PUBLIC 1d850 0 __aarch64_ldadd8_relax
PUBLIC 1d880 0 init_have_lse_atomics
PUBLIC 1d918 0 __init_cpu_features_constructor
PUBLIC 1deb4 0 __init_cpu_features
PUBLIC 1df40 0 __aarch64_ldadd8_acq_rel
PUBLIC 1df70 0 std::__ndk1::basic_string<char, std::__ndk1::char_traits<char>, std::__ndk1::allocator<char> >::basic_string[abi:ne180000]<0>()
PUBLIC 1e00c 0 DeltaruneAlertLayer::init(FLAlertLayerProtocol*, char const*, gd::string, char const*, char const*, float, bool, float, float)
PUBLIC 1f4c0 0 DeltaruneAlertLayer::getLinesLeft()
PUBLIC 1f5c4 0 DeltaruneAlertLayer::decideToBlockKeys()
PUBLIC 1f744 0 std::__ndk1::operator==[abi:ne180000]<char, std::__ndk1::char_traits<char>, std::__ndk1::allocator<char> >(std::__ndk1::basic_string<char, std::__ndk1::char_traits<char>, std::__ndk1::allocator<char> > const&, std::__ndk1::basic_string const*)
PUBLIC 1f798 0 geode::cocos::CCArrayExt<cocos2d::CCNode*, cocos2d::CCNode>::~CCArrayExt()
PUBLIC 1f7b8 0 DeltaruneAlertLayer::onBtn2(cocos2d::CCObject*)
PUBLIC 1f854 0 DeltaruneAlertLayer::progressText()
PUBLIC 20054 0 geode::cocos::CCArrayExt<cocos2d::CCLabelBMFont*, cocos2d::CCLabelBMFont>::~CCArrayExt()
PUBLIC 20074 0 DeltaruneAlertLayer::show()
PUBLIC 20304 0 DeltaruneAlertLayer::setHeartPosition(cocos2d::CCNode*)
PUBLIC 20504 0 DeltaruneAlertLayer::clickedOnButton(CCMenuItemSpriteExtra*, ButtonSprite*, int)
PUBLIC 20678 0 DeltaruneAlertLayer::ccTouchBegan(cocos2d::CCTouch*, cocos2d::CCEvent*)
PUBLIC 207a8 0 DeltaruneAlertLayer::skipText()
PUBLIC 20ae0 0 cocos2d::CCNode::addEventListener<keybinds::InvokeBindFilter, char const*>(std::__ndk1::function<keybinds::InvokeBindFilter::Callback>, char const*&&)
PUBLIC 20f54 0 DeltaruneAlertLayer::rollText(float)
PUBLIC 21f10 0 geode::cocos::CCArrayExt<TextArea*, TextArea>::~CCArrayExt()
PUBLIC 21f2c 0 DeltaruneAlertLayer::emptyLinesAmount(int)
PUBLIC 221c0 0 geode::Mod::get<void>()
PUBLIC 221fc 0 geode::Mod::getSettingValue<bool>(std::__ndk1::basic_string_view<char, std::__ndk1::char_traits<char> >) const
PUBLIC 22330 0 geode::Mod::getSettingValue<double>(std::__ndk1::basic_string_view<char, std::__ndk1::char_traits<char> >) const
PUBLIC 22460 0 std::__ndk1::unordered_map<std::__ndk1::basic_string<char, std::__ndk1::char_traits<char>, std::__ndk1::allocator<char> >, std::__ndk1::basic_string<char, std::__ndk1::char_traits<char>, std::__ndk1::allocator<char> >, std::__ndk1::hash<std::__ndk1::basic_string<char, std::__ndk1::char_traits<char>, std::__ndk1::allocator<char> > >, std::__ndk1::equal_to<std::__ndk1::basic_string<char, std::__ndk1::char_traits<char>, std::__ndk1::allocator<char> > >, std::__ndk1::allocator<std::__ndk1::pair<std::__ndk1::basic_string<char, std::__ndk1::char_traits<char>, std::__ndk1::allocator<char> > const, std::__ndk1::basic_string<char, std::__ndk1::char_traits<char>, std::__ndk1::allocator<char> > > > >::~unordered_map[abi:ne180000]()
PUBLIC 224ec 0 cocos2d::CCCopying::copyWithZone(cocos2d::CCZone*)
PUBLIC 224f4 0 cocos2d::CCLayerRGBA::setOpacityModifyRGB(bool)
PUBLIC 224f8 0 cocos2d::CCLayerRGBA::isOpacityModifyRGB()
PUBLIC 22500 0 cocos2d::CCKeyboardDelegate::keyUp(cocos2d::enumKeyCodes)
PUBLIC 22504 0 cocos2d::CCMouseDelegate::rightKeyDown()
PUBLIC 22508 0 cocos2d::CCMouseDelegate::rightKeyUp()
PUBLIC 2250c 0 cocos2d::CCMouseDelegate::scrollWheel(float, float)
PUBLIC 22510 0 {virtual override thunk({offset(-408)}, cocos2d::CCLayerRGBA::setOpacityModifyRGB(bool))}
PUBLIC 22514 0 {virtual override thunk({offset(-408)}, cocos2d::CCLayerRGBA::isOpacityModifyRGB())}
PUBLIC 2251c 0 __cxx_global_var_init
PUBLIC 2257c 0 geode::modifier::ModifyBase<geode::modifier::ModifyDerive<DeltaruneAlertLayer, FLAlertLayer> >::~ModifyBase()
PUBLIC 22598 0 __cxx_global_var_init.54
PUBLIC 225f8 0 geode::modifier::ModifyBase<geode::modifier::ModifyDerive<DeltaruneDialogLayer, DialogLayer> >::~ModifyBase()
PUBLIC 22614 0 geode::modifier::FieldIntermediate<DeltaruneAlertLayer, FLAlertLayer>::self()
PUBLIC 227cc 0 geode::modifier::FieldContainer::getField(unsigned long)
PUBLIC 22a84 0 geode::modifier::FieldContainer::setField(unsigned long, unsigned long, std::__ndk1::function<void (void*)>)
PUBLIC 22b98 0 geode::modifier::FieldIntermediate<DeltaruneAlertLayer, FLAlertLayer>::fieldDestructor(void*)
PUBLIC 22b9c 0 std::__ndk1::vector<void*, std::__ndk1::allocator<void*> >::__throw_length_error[abi:ne180000]() const
PUBLIC 22bb0 0 __clang_call_terminate
PUBLIC 22bc0 0 std::__ndk1::__throw_length_error[abi:ne180000](char const*)
PUBLIC 22c10 0 std::length_error::length_error[abi:ne180000](char const*)
PUBLIC 22c40 0 std::__throw_bad_array_new_length([abi:ne180000], void)
PUBLIC 22c74 0 std::__ndk1::vector<std::__ndk1::function<void (void*)>, std::__ndk1::allocator<std::__ndk1::function<void (void*)> > >::__push_back_slow_path<std::__ndk1::function<void (void*)> >(std::__ndk1::function<void (void*)>&&)
PUBLIC 22ea0 0 std::__ndk1::vector<std::__ndk1::function<void (void*)>, std::__ndk1::allocator<std::__ndk1::function<void (void*)> > >::__throw_length_error[abi:ne180000]() const
PUBLIC 22eb4 0 std::__ndk1::vector<void*, std::__ndk1::allocator<void*> >::__throw_out_of_range[abi:ne180000]() const
PUBLIC 22ec8 0 std::__ndk1::__throw_out_of_range[abi:ne180000](char const*)
PUBLIC 22f18 0 std::out_of_range::out_of_range[abi:ne180000](char const*)
PUBLIC 22f48 0 std::__ndk1::vector<std::__ndk1::function<void (void*)>, std::__ndk1::allocator<std::__ndk1::function<void (void*)> > >::__throw_out_of_range[abi:ne180000]() const
PUBLIC 22f5c 0 DeltaruneAlertLayer::Fields::~Fields()
PUBLIC 23114 0 std::__ndk1::vector<std::__ndk1::basic_string<char, std::__ndk1::char_traits<char>, std::__ndk1::allocator<char> >, std::__ndk1::allocator<std::__ndk1::basic_string<char, std::__ndk1::char_traits<char>, std::__ndk1::allocator<char> > > >::~vector[abi:ne180000]()
PUBLIC 23190 0 std::__ndk1::__function::__base<void (void*)>::~__base()
PUBLIC 23194 0 std::__ndk1::__function::__func<void (*)(void*), std::__ndk1::allocator<void (*)(void*)>, void (void*)>::~__func()
PUBLIC 23198 0 std::__ndk1::__function::__func<void (*)(void*), std::__ndk1::allocator<void (*)(void*)>, void (void*)>::__clone() const
PUBLIC 231d0 0 std::__ndk1::__function::__func<void (*)(void*), std::__ndk1::allocator<void (*)(void*)>, void (void*)>::__clone(std::__ndk1::__function::__base<void (void*)>*) const
PUBLIC 231e8 0 std::__ndk1::__function::__func<void (*)(void*), std::__ndk1::allocator<void (*)(void*)>, void (void*)>::destroy()
PUBLIC 231ec 0 std::__ndk1::__function::__func<void (*)(void*), std::__ndk1::allocator<void (*)(void*)>, void (void*)>::destroy_deallocate()
PUBLIC 231f0 0 std::__ndk1::__function::__func<void (*)(void*), std::__ndk1::allocator<void (*)(void*)>, void (void*)>::operator()(void*&&)
PUBLIC 23200 0 std::__ndk1::__function::__func<void (*)(void*), std::__ndk1::allocator<void (*)(void*)>, void (void*)>::target(std::type_info const&) const
PUBLIC 2321c 0 std::__ndk1::__function::__func<void (*)(void*), std::__ndk1::allocator<void (*)(void*)>, void (void*)>::target_type() const
PUBLIC 23228 0 DeltaruneAlertLayer::Fields::Fields()
PUBLIC 233b0 0 geode::Mod::getSettingValue<std::__ndk1::basic_string<char, std::__ndk1::char_traits<char>, std::__ndk1::allocator<char> > >(std::__ndk1::basic_string_view<char, std::__ndk1::char_traits<char> >) const
PUBLIC 23540 0 std::__ndk1::shared_ptr<geode::StringSettingV3>::~shared_ptr[abi:ne180000]()
PUBLIC 23590 0 geode::cast::traverseTypeinfoFor(void*, geode::cast::ClassTypeinfoType const*, char const*)
PUBLIC 23694 0 std::__ndk1::basic_string<char, std::__ndk1::char_traits<char>, std::__ndk1::allocator<char> >::__throw_length_error[abi:ne180000]() const
PUBLIC 236a8 0 std::__ndk1::basic_string<char, std::__ndk1::char_traits<char>, std::__ndk1::allocator<char> >::__assign_external(char const*, unsigned long)
PUBLIC 237d0 0 std::__ndk1::basic_string<char, std::__ndk1::char_traits<char>, std::__ndk1::allocator<char> >::__init_copy_ctor_external(char const*, unsigned long)
PUBLIC 23850 0 std::__ndk1::basic_string<char, std::__ndk1::char_traits<char>, std::__ndk1::allocator<char> >::__assign_no_alias<true>(char const*, unsigned long)
PUBLIC 238fc 0 std::__ndk1::basic_string<char, std::__ndk1::char_traits<char>, std::__ndk1::allocator<char> >::__assign_no_alias<false>(char const*, unsigned long)
PUBLIC 23a0c 0 geode::modifier::ModifyBase<geode::modifier::ModifyDerive<DeltaruneAlertLayer, FLAlertLayer> >::ModifyBase()
PUBLIC 23e08 0 geode::modifier::ModifyDerive<DeltaruneAlertLayer, FLAlertLayer>::apply()
PUBLIC 24828 0 std::__ndk1::shared_ptr<geode::Hook>::~shared_ptr[abi:ne180000]()
PUBLIC 24878 0 geode::impl::ResultData<geode::Hook*, std::__ndk1::basic_string<char, std::__ndk1::char_traits<char>, std::__ndk1::allocator<char> > >::~ResultData()
PUBLIC 248ec 0 geode::modifier::ModifyBase<geode::modifier::ModifyDerive<DeltaruneAlertLayer, FLAlertLayer> >::apply()
PUBLIC 248f0 0 _ZN5geode15UnwrapExceptionC2IRPNS_4HookEQsr4implE18IsStringStreamableIT_EEENS_4impl5OkTagEOS5_
PUBLIC 24a44 0 std::__ndk1::__throw_bad_variant_access[abi:ne180000]()
PUBLIC 24a78 0 std::__ndk1::basic_stringstream<char, std::__ndk1::char_traits<char>, std::__ndk1::allocator<char> >::basic_stringstream[abi:ne180000]()
PUBLIC m 24ba4 0 std::__ndk1::basic_stringstream<char, std::__ndk1::char_traits<char>, std::__ndk1::allocator<char> >::~basic_stringstream()
PUBLIC 24c24 0 geode::UnwrapException::~UnwrapException()
PUBLIC 24c48 0 std::__ndk1::__put_character_sequence[abi:ne180000]<char, std::__ndk1::char_traits<char> >(std::__ndk1::basic_ostream<char, std::__ndk1::char_traits<char> >, std::__ndk1::basic_ostream const*, unsigned long)
PUBLIC 24dec 0 std::__ndk1::__pad_and_output[abi:ne180000]<char, std::__ndk1::char_traits<char> >(std::__ndk1::char_traits<char>, std::__ndk1::ostreambuf_iterator const*, std::__ndk1::ostreambuf_iterator const, std::__ndk1::ostreambuf_iterator const, std::__ndk1::ios_base&, std::__ndk1::ostreambuf_iterator)
PUBLIC 24fc8 0 std::__ndk1::basic_stringbuf<char, std::__ndk1::char_traits<char>, std::__ndk1::allocator<char> >::str[abi:ne180000]() &&
PUBLIC 25140 0 std::__ndk1::basic_stringbuf<char, std::__ndk1::char_traits<char>, std::__ndk1::allocator<char> >::__init_buf_ptrs[abi:ne180000]()
PUBLIC 25288 0 std::__ndk1::vector<std::__ndk1::basic_string<char, std::__ndk1::char_traits<char>, std::__ndk1::allocator<char> >, std::__ndk1::allocator<std::__ndk1::basic_string<char, std::__ndk1::char_traits<char>, std::__ndk1::allocator<char> > > >::__push_back_slow_path<std::__ndk1::basic_string<char, std::__ndk1::char_traits<char>, std::__ndk1::allocator<char> > const&>(std::__ndk1::basic_string<char, std::__ndk1::char_traits<char>, std::__ndk1::allocator<char> > const&)
PUBLIC 254b0 0 std::__ndk1::__split_buffer<std::__ndk1::basic_string<char, std::__ndk1::char_traits<char>, std::__ndk1::allocator<char> >, std::__ndk1::allocator<std::__ndk1::basic_string<char, std::__ndk1::char_traits<char>, std::__ndk1::allocator<char> > >&>::~__split_buffer()
PUBLIC 25518 0 std::__ndk1::vector<std::__ndk1::basic_string<char, std::__ndk1::char_traits<char>, std::__ndk1::allocator<char> >, std::__ndk1::allocator<std::__ndk1::basic_string<char, std::__ndk1::char_traits<char>, std::__ndk1::allocator<char> > > >::__throw_length_error[abi:ne180000]() const
PUBLIC 2552c 0 std::__ndk1::__variant_detail::__visitation::__base::__dispatcher<(unsigned long)0>::__dispatch[abi:ne180000]<std::__ndk1::__variant_detail::__dtor<std::__ndk1::__variant_detail::__traits<geode::Hook*, std::__ndk1::basic_string<char, std::__ndk1::char_traits<char>, std::__ndk1::allocator<char> > >, (std::__ndk1::__variant_detail::_Trait)1>::__destroy[abi:ne180000]()::{lambda(auto:1&)#1}, std::__ndk1::__variant_detail::__base<(std::__ndk1::__variant_detail::__traits<geode::Hook*, std::__ndk1::basic_string<char, std::__ndk1::char_traits<char>, std::__ndk1::allocator<char> > >)1, geode::Hook, std::__ndk1::allocator<char> >&>(std::__ndk1::__variant_detail::__dtor<std::__ndk1::__variant_detail::__traits<geode::Hook*, std::__ndk1::basic_string<char, std::__ndk1::char_traits<char>, std::__ndk1::allocator<char> > >, (std::__ndk1::__variant_detail::_Trait)1>, std::__ndk1::__variant_detail::__base<(std::__ndk1::__variant_detail::__traits<geode::Hook*, std::__ndk1::basic_string<char, std::__ndk1::char_traits<char>, std::__ndk1::allocator<char> > >)1, geode::Hook, std::__ndk1::allocator<char> >&)
PUBLIC 25530 0 std::__ndk1::__variant_detail::__visitation::__base::__dispatcher<(unsigned long)1>::__dispatch[abi:ne180000]<std::__ndk1::__variant_detail::__dtor<std::__ndk1::__variant_detail::__traits<geode::Hook*, std::__ndk1::basic_string<char, std::__ndk1::char_traits<char>, std::__ndk1::allocator<char> > >, (std::__ndk1::__variant_detail::_Trait)1>::__destroy[abi:ne180000]()::{lambda(auto:1&)#1}, std::__ndk1::__variant_detail::__base<(std::__ndk1::__variant_detail::__traits<geode::Hook*, std::__ndk1::basic_string<char, std::__ndk1::char_traits<char>, std::__ndk1::allocator<char> > >)1, geode::Hook, std::__ndk1::allocator<char> >&>(std::__ndk1::__variant_detail::__dtor<std::__ndk1::__variant_detail::__traits<geode::Hook*, std::__ndk1::basic_string<char, std::__ndk1::char_traits<char>, std::__ndk1::allocator<char> > >, (std::__ndk1::__variant_detail::_Trait)1>, std::__ndk1::__variant_detail::__base<(std::__ndk1::__variant_detail::__traits<geode::Hook*, std::__ndk1::basic_string<char, std::__ndk1::char_traits<char>, std::__ndk1::allocator<char> > >)1, geode::Hook, std::__ndk1::allocator<char> >&)
PUBLIC 25544 0 std::__ndk1::__tree<std::__ndk1::__value_type<std::__ndk1::basic_string<char, std::__ndk1::char_traits<char>, std::__ndk1::allocator<char> >, std::__ndk1::shared_ptr<geode::Hook> >, std::__ndk1::__map_value_compare<std::__ndk1::basic_string<char, std::__ndk1::char_traits<char>, std::__ndk1::allocator<char> >, std::__ndk1::__value_type<std::__ndk1::basic_string<char, std::__ndk1::char_traits<char>, std::__ndk1::allocator<char> >, std::__ndk1::shared_ptr<geode::Hook> >, std::__ndk1::less<std::__ndk1::basic_string<char, std::__ndk1::char_traits<char>, std::__ndk1::allocator<char> > >, true>, std::__ndk1::allocator<std::__ndk1::__value_type<std::__ndk1::basic_string<char, std::__ndk1::char_traits<char>, std::__ndk1::allocator<char> >, std::__ndk1::shared_ptr<geode::Hook> > > >::find<std::__ndk1::basic_string<char, std::__ndk1::char_traits<char>, std::__ndk1::allocator<char> > >(std::__ndk1::basic_string<char, std::__ndk1::char_traits<char>, std::__ndk1::allocator<char> > const&)
PUBLIC 25664 0 std::__ndk1::__tree<std::__ndk1::__value_type<std::__ndk1::basic_string<char, std::__ndk1::char_traits<char>, std::__ndk1::allocator<char> >, std::__ndk1::shared_ptr<geode::Hook> >, std::__ndk1::__map_value_compare<std::__ndk1::basic_string<char, std::__ndk1::char_traits<char>, std::__ndk1::allocator<char> >, std::__ndk1::__value_type<std::__ndk1::basic_string<char, std::__ndk1::char_traits<char>, std::__ndk1::allocator<char> >, std::__ndk1::shared_ptr<geode::Hook> >, std::__ndk1::less<std::__ndk1::basic_string<char, std::__ndk1::char_traits<char>, std::__ndk1::allocator<char> > >, true>, std::__ndk1::allocator<std::__ndk1::__value_type<std::__ndk1::basic_string<char, std::__ndk1::char_traits<char>, std::__ndk1::allocator<char> >, std::__ndk1::shared_ptr<geode::Hook> > > >::erase(std::__ndk1::__tree_const_iterator<std::__ndk1::__value_type<std::__ndk1::basic_string<char, std::__ndk1::char_traits<char>, std::__ndk1::allocator<char> >, std::__ndk1::shared_ptr<geode::Hook> >, std::__ndk1::__tree_node<std::__ndk1::__value_type<std::__ndk1::basic_string<char, std::__ndk1::char_traits<char>, std::__ndk1::allocator<char> >, std::__ndk1::shared_ptr<geode::Hook> >, void*>*, long>)
PUBLIC 25738 0 std::__ndk1::__tree_remove[abi:ne180000]<std::__ndk1::__tree_node_base<void*>*>(std::__ndk1::__tree_node_base<void*>*, std::__ndk1::__tree_node_base<void*>*)
PUBLIC 25b00 0 std::__ndk1::__tree<std::__ndk1::__value_type<std::__ndk1::basic_string<char, std::__ndk1::char_traits<char>, std::__ndk1::allocator<char> >, std::__ndk1::shared_ptr<geode::Hook> >, std::__ndk1::__map_value_compare<std::__ndk1::basic_string<char, std::__ndk1::char_traits<char>, std::__ndk1::allocator<char> >, std::__ndk1::__value_type<std::__ndk1::basic_string<char, std::__ndk1::char_traits<char>, std::__ndk1::allocator<char> >, std::__ndk1::shared_ptr<geode::Hook> >, std::__ndk1::less<std::__ndk1::basic_string<char, std::__ndk1::char_traits<char>, std::__ndk1::allocator<char> > >, true>, std::__ndk1::allocator<std::__ndk1::__value_type<std::__ndk1::basic_string<char, std::__ndk1::char_traits<char>, std::__ndk1::allocator<char> >, std::__ndk1::shared_ptr<geode::Hook> > > >::destroy(std::__ndk1::__tree_node<std::__ndk1::__value_type<std::__ndk1::basic_string<char, std::__ndk1::char_traits<char>, std::__ndk1::allocator<char> >, std::__ndk1::shared_ptr<geode::Hook> >, void*>*)
PUBLIC 25b8c 0 geode::Hook::create<bool (*)(DeltaruneAlertLayer*, cocos2d::CCTouch*, cocos2d::CCEvent*)>(void*, bool (*)(DeltaruneAlertLayer*, cocos2d::CCTouch*, cocos2d::CCEvent*), std::__ndk1::basic_string<char, std::__ndk1::char_traits<char>, std::__ndk1::allocator<char> > const&, tulip::hook::TulipConvention, tulip::hook::HookMetadata const&)
PUBLIC 25ca4 0 geode::modifier::AsStaticFunction_ccTouchBegan<DeltaruneAlertLayer, bool (DeltaruneAlertLayer::*)(cocos2d::CCTouch*, cocos2d::CCEvent*)>::Impl<bool (DeltaruneAlertLayer::*)(cocos2d::CCTouch*, cocos2d::CCEvent*)>::function(DeltaruneAlertLayer*, cocos2d::CCTouch*, cocos2d::CCEvent*)
PUBLIC 25ca8 0 geode::Hook::create<void (*)(DeltaruneAlertLayer*)>(void*, void (*)(DeltaruneAlertLayer*), std::__ndk1::basic_string<char, std::__ndk1::char_traits<char>, std::__ndk1::allocator<char> > const&, tulip::hook::TulipConvention, tulip::hook::HookMetadata const&)
PUBLIC 25ddc 0 geode::modifier::AsStaticFunction_show<DeltaruneAlertLayer, void (DeltaruneAlertLayer::*)()>::Impl<void (DeltaruneAlertLayer::*)()>::function(DeltaruneAlertLayer*)
PUBLIC 25de0 0 geode::Hook::create<bool (*)(DeltaruneAlertLayer*, FLAlertLayerProtocol*, char const*, gd::string, char const*, char const*, float, bool, float, float)>(void*, bool (*)(DeltaruneAlertLayer*, FLAlertLayerProtocol*, char const*, gd::string, char const*, char const*, float, bool, float, float), std::__ndk1::basic_string<char, std::__ndk1::char_traits<char>, std::__ndk1::allocator<char> > const&, tulip::hook::TulipConvention, tulip::hook::HookMetadata const&)
PUBLIC 25ef8 0 geode::modifier::AsStaticFunction_init<DeltaruneAlertLayer, bool (DeltaruneAlertLayer::*)(FLAlertLayerProtocol*, char const*, gd::string, char const*, char const*, float, bool, float, float)>::Impl<bool (DeltaruneAlertLayer::*)(FLAlertLayerProtocol*, char const*, gd::string, char const*, char const*, float, bool, float, float)>::function(DeltaruneAlertLayer*, FLAlertLayerProtocol*, char const*, gd::string, char const*, char const*, float, bool, float, float)
PUBLIC 25fe4 0 geode::Hook::create<void (*)(DeltaruneAlertLayer*, cocos2d::CCObject*)>(void*, void (*)(DeltaruneAlertLayer*, cocos2d::CCObject*), std::__ndk1::basic_string<char, std::__ndk1::char_traits<char>, std::__ndk1::allocator<char> > const&, tulip::hook::TulipConvention, tulip::hook::HookMetadata const&)
PUBLIC 26168 0 geode::modifier::AsStaticFunction_onBtn1<DeltaruneAlertLayer, void (DeltaruneAlertLayer::*)(cocos2d::CCObject*)>::Impl<void (DeltaruneAlertLayer::*)(cocos2d::CCObject*)>::function(DeltaruneAlertLayer*, cocos2d::CCObject*)
PUBLIC 261dc 0 geode::modifier::AsStaticFunction_onBtn2<DeltaruneAlertLayer, void (DeltaruneAlertLayer::*)(cocos2d::CCObject*)>::Impl<void (DeltaruneAlertLayer::*)(cocos2d::CCObject*)>::function(DeltaruneAlertLayer*, cocos2d::CCObject*)
PUBLIC 261e0 0 geode::addresser::Addresser::addressOfVirtual<bool, FLAlertLayer, cocos2d::CCTouch*, cocos2d::CCEvent*>(bool (FLAlertLayer::*)(cocos2d::CCTouch*, cocos2d::CCEvent*))
PUBLIC 262cc 0 FLAlertLayer::FLAlertLayer(geode::ZeroConstructorType)
PUBLIC 2634c 0 tulip::hook::AbstractFunction::from<bool, DeltaruneAlertLayer*, cocos2d::CCTouch*, cocos2d::CCEvent*>(bool (*)(DeltaruneAlertLayer*, cocos2d::CCTouch*, cocos2d::CCEvent*))
PUBLIC 26454 0 std::__ndk1::shared_ptr<tulip::hook::CallingConvention>::~shared_ptr[abi:ne180000]()
PUBLIC 264a4 0 tulip::hook::HandlerMetadata::~HandlerMetadata()
PUBLIC 26508 0 std::__ndk1::vector<tulip::hook::AbstractType, std::__ndk1::allocator<tulip::hook::AbstractType> >::__throw_length_error[abi:ne180000]() const
PUBLIC 2651c 0 std::__ndk1::__tree<std::__ndk1::__value_type<std::__ndk1::basic_string<char, std::__ndk1::char_traits<char>, std::__ndk1::allocator<char> >, std::__ndk1::shared_ptr<geode::Hook> >, std::__ndk1::__map_value_compare<std::__ndk1::basic_string<char, std::__ndk1::char_traits<char>, std::__ndk1::allocator<char> >, std::__ndk1::__value_type<std::__ndk1::basic_string<char, std::__ndk1::char_traits<char>, std::__ndk1::allocator<char> >, std::__ndk1::shared_ptr<geode::Hook> >, std::__ndk1::less<std::__ndk1::basic_string<char, std::__ndk1::char_traits<char>, std::__ndk1::allocator<char> > >, true>, std::__ndk1::allocator<std::__ndk1::__value_type<std::__ndk1::basic_string<char, std::__ndk1::char_traits<char>, std::__ndk1::allocator<char> >, std::__ndk1::shared_ptr<geode::Hook> > > >::__emplace_unique_key_args<std::__ndk1::basic_string<char, std::__ndk1::char_traits<char>, std::__ndk1::allocator<char> >, std::__ndk1::piecewise_construct_t const&, std::__ndk1::tuple<std::__ndk1::basic_string<char, std::__ndk1::char_traits<char>, std::__ndk1::allocator<char> >&&>, std::__ndk1::tuple<> >(std::__ndk1::basic_string<char, std::__ndk1::char_traits<char>, std::__ndk1::allocator<char> > const&, std::__ndk1::piecewise_construct_t const&, std::__ndk1::tuple<std::__ndk1::basic_string<char, std::__ndk1::char_traits<char>, std::__ndk1::allocator<char> >&&>, std::__ndk1::tuple<>)
PUBLIC 26694 0 std::__ndk1::__tree_balance_after_insert[abi:ne180000]<std::__ndk1::__tree_node_base<void*>*>(std::__ndk1::__tree_node_base<void*>*, std::__ndk1::__tree_node_base<void*>*)
PUBLIC 26844 0 geode::addresser::Addresser::addressOfVirtual<void, FLAlertLayer, >(void (FLAlertLayer::*)())
PUBLIC 26930 0 tulip::hook::AbstractFunction::from<bool, DeltaruneAlertLayer*, FLAlertLayerProtocol*, char const*, gd::string, char const*, char const*, float, bool, float, float>(bool (*)(DeltaruneAlertLayer*, FLAlertLayerProtocol*, char const*, gd::string, char const*, char const*, float, bool, float, float))
PUBLIC 27228 0 geode::modifier::ModifyBase<geode::modifier::ModifyDerive<DeltaruneDialogLayer, DialogLayer> >::ModifyBase()
PUBLIC 27624 0 geode::modifier::ModifyDerive<DeltaruneDialogLayer, DialogLayer>::apply()
PUBLIC 28068 0 geode::modifier::ModifyBase<geode::modifier::ModifyDerive<DeltaruneDialogLayer, DialogLayer> >::apply()
PUBLIC 2806c 0 geode::Hook::create<bool (*)(DeltaruneDialogLayer*, cocos2d::CCTouch*, cocos2d::CCEvent*)>(void*, bool (*)(DeltaruneDialogLayer*, cocos2d::CCTouch*, cocos2d::CCEvent*), std::__ndk1::basic_string<char, std::__ndk1::char_traits<char>, std::__ndk1::allocator<char> > const&, tulip::hook::TulipConvention, tulip::hook::HookMetadata const&)
PUBLIC 28184 0 geode::modifier::AsStaticFunction_ccTouchBegan<DeltaruneDialogLayer, bool (DeltaruneDialogLayer::*)(cocos2d::CCTouch*, cocos2d::CCEvent*)>::Impl<bool (DeltaruneDialogLayer::*)(cocos2d::CCTouch*, cocos2d::CCEvent*)>::function(DeltaruneDialogLayer*, cocos2d::CCTouch*, cocos2d::CCEvent*)
PUBLIC 2818c 0 geode::Hook::create<void (*)(DeltaruneDialogLayer*, cocos2d::enumKeyCodes)>(void*, void (*)(DeltaruneDialogLayer*, cocos2d::enumKeyCodes), std::__ndk1::basic_string<char, std::__ndk1::char_traits<char>, std::__ndk1::allocator<char> > const&, tulip::hook::TulipConvention, tulip::hook::HookMetadata const&)
PUBLIC 28310 0 geode::modifier::AsStaticFunction_keyDown<DeltaruneDialogLayer, void (DeltaruneDialogLayer::*)(cocos2d::enumKeyCodes)>::Impl<void (DeltaruneDialogLayer::*)(cocos2d::enumKeyCodes)>::function(DeltaruneDialogLayer*, cocos2d::enumKeyCodes)
PUBLIC 28314 0 geode::Hook::create<void (*)(DeltaruneDialogLayer*, DialogObject*)>(void*, void (*)(DeltaruneDialogLayer*, DialogObject*), std::__ndk1::basic_string<char, std::__ndk1::char_traits<char>, std::__ndk1::allocator<char> > const&, tulip::hook::TulipConvention, tulip::hook::HookMetadata const&)
PUBLIC 28498 0 geode::modifier::AsStaticFunction_displayDialogObject<DeltaruneDialogLayer, void (DeltaruneDialogLayer::*)(DialogObject*)>::Impl<void (DeltaruneDialogLayer::*)(DialogObject*)>::function(DeltaruneDialogLayer*, DialogObject*)
PUBLIC 284c8 0 geode::Hook::create<void (*)(DeltaruneDialogLayer*)>(void*, void (*)(DeltaruneDialogLayer*), std::__ndk1::basic_string<char, std::__ndk1::char_traits<char>, std::__ndk1::allocator<char> > const&, tulip::hook::TulipConvention, tulip::hook::HookMetadata const&)
PUBLIC 285fc 0 geode::modifier::AsStaticFunction_displayNextObject<DeltaruneDialogLayer, void (DeltaruneDialogLayer::*)()>::Impl<void (DeltaruneDialogLayer::*)()>::function(DeltaruneDialogLayer*)
PUBLIC 2860c 0 geode::Hook::create<bool (*)(DeltaruneDialogLayer*, DialogObject*, cocos2d::CCArray*, int)>(void*, bool (*)(DeltaruneDialogLayer*, DialogObject*, cocos2d::CCArray*, int), std::__ndk1::basic_string<char, std::__ndk1::char_traits<char>, std::__ndk1::allocator<char> > const&, tulip::hook::TulipConvention, tulip::hook::HookMetadata const&)
PUBLIC 28724 0 geode::modifier::AsStaticFunction_init<DeltaruneDialogLayer, bool (DeltaruneDialogLayer::*)(DialogObject*, cocos2d::CCArray*, int)>::Impl<bool (DeltaruneDialogLayer::*)(DialogObject*, cocos2d::CCArray*, int)>::function(DeltaruneDialogLayer*, DialogObject*, cocos2d::CCArray*, int)
PUBLIC 28728 0 geode::addresser::Addresser::addressOfVirtual<bool, DialogLayer, cocos2d::CCTouch*, cocos2d::CCEvent*>(bool (DialogLayer::*)(cocos2d::CCTouch*, cocos2d::CCEvent*))
PUBLIC 28814 0 DialogLayer::DialogLayer(geode::ZeroConstructorType)
PUBLIC 288a0 0 tulip::hook::AbstractFunction::from<bool, DeltaruneDialogLayer*, cocos2d::CCTouch*, cocos2d::CCEvent*>(bool (*)(DeltaruneDialogLayer*, cocos2d::CCTouch*, cocos2d::CCEvent*))
PUBLIC 289a8 0 geode::addresser::Addresser::addressOfVirtual<void, DialogLayer, cocos2d::enumKeyCodes>(void (DialogLayer::*)(cocos2d::enumKeyCodes))
PUBLIC 28a94 0 tulip::hook::AbstractFunction::from<bool, DeltaruneDialogLayer*, DialogObject*, cocos2d::CCArray*, int>(bool (*)(DeltaruneDialogLayer*, DialogObject*, cocos2d::CCArray*, int))
PUBLIC 28d68 0 std::__ndk1::__hash_table<std::__ndk1::__hash_value_type<std::__ndk1::basic_string<char, std::__ndk1::char_traits<char>, std::__ndk1::allocator<char> >, std::__ndk1::basic_string<char, std::__ndk1::char_traits<char>, std::__ndk1::allocator<char> > >, std::__ndk1::__unordered_map_hasher<std::__ndk1::basic_string<char, std::__ndk1::char_traits<char>, std::__ndk1::allocator<char> >, std::__ndk1::__hash_value_type<std::__ndk1::basic_string<char, std::__ndk1::char_traits<char>, std::__ndk1::allocator<char> >, std::__ndk1::basic_string<char, std::__ndk1::char_traits<char>, std::__ndk1::allocator<char> > >, std::__ndk1::hash<std::__ndk1::basic_string<char, std::__ndk1::char_traits<char>, std::__ndk1::allocator<char> > >, std::__ndk1::equal_to<std::__ndk1::basic_string<char, std::__ndk1::char_traits<char>, std::__ndk1::allocator<char> > >, true>, std::__ndk1::__unordered_map_equal<std::__ndk1::basic_string<char, std::__ndk1::char_traits<char>, std::__ndk1::allocator<char> >, std::__ndk1::__hash_value_type<std::__ndk1::basic_string<char, std::__ndk1::char_traits<char>, std::__ndk1::allocator<char> >, std::__ndk1::basic_string<char, std::__ndk1::char_traits<char>, std::__ndk1::allocator<char> > >, std::__ndk1::equal_to<std::__ndk1::basic_string<char, std::__ndk1::char_traits<char>, std::__ndk1::allocator<char> > >, std::__ndk1::hash<std::__ndk1::basic_string<char, std::__ndk1::char_traits<char>, std::__ndk1::allocator<char> > >, true>, std::__ndk1::allocator<std::__ndk1::__hash_value_type<std::__ndk1::basic_string<char, std::__ndk1::char_traits<char>, std::__ndk1::allocator<char> >, std::__ndk1::basic_string<char, std::__ndk1::char_traits<char>, std::__ndk1::allocator<char> > > > >::__emplace_unique_key_args<std::__ndk1::basic_string<char, std::__ndk1::char_traits<char>, std::__ndk1::allocator<char> >, std::__ndk1::piecewise_construct_t const&, std::__ndk1::tuple<std::__ndk1::basic_string<char, std::__ndk1::char_traits<char>, std::__ndk1::allocator<char> >&&>, std::__ndk1::tuple<> >(std::__ndk1::basic_string<char, std::__ndk1::char_traits<char>, std::__ndk1::allocator<char> > const&, std::__ndk1::piecewise_construct_t const&, std::__ndk1::tuple<std::__ndk1::basic_string<char, std::__ndk1::char_traits<char>, std::__ndk1::allocator<char> >&&>, std::__ndk1::tuple<>)
PUBLIC 291bc 0 std::__ndk1::unique_ptr<std::__ndk1::__hash_node<std::__ndk1::__hash_value_type<std::__ndk1::basic_string<char, std::__ndk1::char_traits<char>, std::__ndk1::allocator<char> >, std::__ndk1::basic_string<char, std::__ndk1::char_traits<char>, std::__ndk1::allocator<char> > >, void*>, std::__ndk1::__hash_node_destructor<std::__ndk1::allocator<std::__ndk1::__hash_node<std::__ndk1::__hash_value_type<std::__ndk1::basic_string<char, std::__ndk1::char_traits<char>, std::__ndk1::allocator<char> >, std::__ndk1::basic_string<char, std::__ndk1::char_traits<char>, std::__ndk1::allocator<char> > >, void*> > > >::~unique_ptr[abi:ne180000]()
PUBLIC 29218 0 std::__ndk1::__murmur2_or_cityhash<unsigned long, (unsigned long)64>::operator()[abi:ne180000](void const*, unsigned long) const
PUBLIC 29664 0 std::__ndk1::__hash_table<std::__ndk1::__hash_value_type<std::__ndk1::basic_string<char, std::__ndk1::char_traits<char>, std::__ndk1::allocator<char> >, std::__ndk1::basic_string<char, std::__ndk1::char_traits<char>, std::__ndk1::allocator<char> > >, std::__ndk1::__unordered_map_hasher<std::__ndk1::basic_string<char, std::__ndk1::char_traits<char>, std::__ndk1::allocator<char> >, std::__ndk1::__hash_value_type<std::__ndk1::basic_string<char, std::__ndk1::char_traits<char>, std::__ndk1::allocator<char> >, std::__ndk1::basic_string<char, std::__ndk1::char_traits<char>, std::__ndk1::allocator<char> > >, std::__ndk1::hash<std::__ndk1::basic_string<char, std::__ndk1::char_traits<char>, std::__ndk1::allocator<char> > >, std::__ndk1::equal_to<std::__ndk1::basic_string<char, std::__ndk1::char_traits<char>, std::__ndk1::allocator<char> > >, true>, std::__ndk1::__unordered_map_equal<std::__ndk1::basic_string<char, std::__ndk1::char_traits<char>, std::__ndk1::allocator<char> >, std::__ndk1::__hash_value_type<std::__ndk1::basic_string<char, std::__ndk1::char_traits<char>, std::__ndk1::allocator<char> >, std::__ndk1::basic_string<char, std::__ndk1::char_traits<char>, std::__ndk1::allocator<char> > >, std::__ndk1::equal_to<std::__ndk1::basic_string<char, std::__ndk1::char_traits<char>, std::__ndk1::allocator<char> > >, std::__ndk1::hash<std::__ndk1::basic_string<char, std::__ndk1::char_traits<char>, std::__ndk1::allocator<char> > >, true>, std::__ndk1::allocator<std::__ndk1::__hash_value_type<std::__ndk1::basic_string<char, std::__ndk1::char_traits<char>, std::__ndk1::allocator<char> >, std::__ndk1::basic_string<char, std::__ndk1::char_traits<char>, std::__ndk1::allocator<char> > > > >::__do_rehash<true>(unsigned long)
PUBLIC 29810 0 std::__ndk1::__hash_table<std::__ndk1::__hash_value_type<std::__ndk1::basic_string<char, std::__ndk1::char_traits<char>, std::__ndk1::allocator<char> >, void (*)(cocos2d::CCNode*)>, std::__ndk1::__unordered_map_hasher<std::__ndk1::basic_string<char, std::__ndk1::char_traits<char>, std::__ndk1::allocator<char> >, std::__ndk1::__hash_value_type<std::__ndk1::basic_string<char, std::__ndk1::char_traits<char>, std::__ndk1::allocator<char> >, void (*)(cocos2d::CCNode*)>, std::__ndk1::hash<std::__ndk1::basic_string<char, std::__ndk1::char_traits<char>, std::__ndk1::allocator<char> > >, std::__ndk1::equal_to<std::__ndk1::basic_string<char, std::__ndk1::char_traits<char>, std::__ndk1::allocator<char> > >, true>, std::__ndk1::__unordered_map_equal<std::__ndk1::basic_string<char, std::__ndk1::char_traits<char>, std::__ndk1::allocator<char> >, std::__ndk1::__hash_value_type<std::__ndk1::basic_string<char, std::__ndk1::char_traits<char>, std::__ndk1::allocator<char> >, void (*)(cocos2d::CCNode*)>, std::__ndk1::equal_to<std::__ndk1::basic_string<char, std::__ndk1::char_traits<char>, std::__ndk1::allocator<char> > >, std::__ndk1::hash<std::__ndk1::basic_string<char, std::__ndk1::char_traits<char>, std::__ndk1::allocator<char> > >, true>, std::__ndk1::allocator<std::__ndk1::__hash_value_type<std::__ndk1::basic_string<char, std::__ndk1::char_traits<char>, std::__ndk1::allocator<char> >, void (*)(cocos2d::CCNode*)> > >::find<std::__ndk1::basic_string<char, std::__ndk1::char_traits<char>, std::__ndk1::allocator<char> > >(std::__ndk1::basic_string<char, std::__ndk1::char_traits<char>, std::__ndk1::allocator<char> > const&) const
PUBLIC 29a64 0 std::__ndk1::__function::__func<DeltaruneAlertLayer::init(FLAlertLayerProtocol*, char const*, gd::string, char const*, char const*, float, bool, float, float)::$_1, std::__ndk1::allocator<DeltaruneAlertLayer::init(FLAlertLayerProtocol*, char const*, gd::string, char const*, char const*, float, bool, float, float)::$_1>, void ()>::~__func()
PUBLIC 29a68 0 std::__ndk1::__function::__func<DeltaruneAlertLayer::init(FLAlertLayerProtocol*, char const*, gd::string, char const*, char const*, float, bool, float, float)::$_1, std::__ndk1::allocator<DeltaruneAlertLayer::init(FLAlertLayerProtocol*, char const*, gd::string, char const*, char const*, float, bool, float, float)::$_1>, void ()>::__clone() const
PUBLIC 29aa8 0 std::__ndk1::__function::__func<DeltaruneAlertLayer::init(FLAlertLayerProtocol*, char const*, gd::string, char const*, char const*, float, bool, float, float)::$_1, std::__ndk1::allocator<DeltaruneAlertLayer::init(FLAlertLayerProtocol*, char const*, gd::string, char const*, char const*, float, bool, float, float)::$_1>, void ()>::__clone(std::__ndk1::__function::__base<void ()>*) const
PUBLIC 29ac8 0 std::__ndk1::__function::__func<DeltaruneAlertLayer::init(FLAlertLayerProtocol*, char const*, gd::string, char const*, char const*, float, bool, float, float)::$_1, std::__ndk1::allocator<DeltaruneAlertLayer::init(FLAlertLayerProtocol*, char const*, gd::string, char const*, char const*, float, bool, float, float)::$_1>, void ()>::destroy()
PUBLIC 29acc 0 std::__ndk1::__function::__func<DeltaruneAlertLayer::init(FLAlertLayerProtocol*, char const*, gd::string, char const*, char const*, float, bool, float, float)::$_1, std::__ndk1::allocator<DeltaruneAlertLayer::init(FLAlertLayerProtocol*, char const*, gd::string, char const*, char const*, float, bool, float, float)::$_1>, void ()>::destroy_deallocate()
PUBLIC 29ad0 0 std::__ndk1::__function::__func<DeltaruneAlertLayer::init(FLAlertLayerProtocol*, char const*, gd::string, char const*, char const*, float, bool, float, float)::$_1, std::__ndk1::allocator<DeltaruneAlertLayer::init(FLAlertLayerProtocol*, char const*, gd::string, char const*, char const*, float, bool, float, float)::$_1>, void ()>::operator()()
PUBLIC 29c34 0 std::__ndk1::__function::__func<DeltaruneAlertLayer::init(FLAlertLayerProtocol*, char const*, gd::string, char const*, char const*, float, bool, float, float)::$_1, std::__ndk1::allocator<DeltaruneAlertLayer::init(FLAlertLayerProtocol*, char const*, gd::string, char const*, char const*, float, bool, float, float)::$_1>, void ()>::target(std::type_info const&) const
PUBLIC 29c50 0 std::__ndk1::__function::__func<DeltaruneAlertLayer::init(FLAlertLayerProtocol*, char const*, gd::string, char const*, char const*, float, bool, float, float)::$_1, std::__ndk1::allocator<DeltaruneAlertLayer::init(FLAlertLayerProtocol*, char const*, gd::string, char const*, char const*, float, bool, float, float)::$_1>, void ()>::target_type() const
PUBLIC 29c5c 0 std::__ndk1::__function::__base<void ()>::~__base()
PUBLIC 29c60 0 std::__ndk1::__function::__func<DeltaruneAlertLayer::show()::$_0, std::__ndk1::allocator<DeltaruneAlertLayer::show()::$_0>, void ()>::~__func()
PUBLIC 29c64 0 std::__ndk1::__function::__func<DeltaruneAlertLayer::show()::$_0, std::__ndk1::allocator<DeltaruneAlertLayer::show()::$_0>, void ()>::__clone() const
PUBLIC 29c98 0 std::__ndk1::__function::__func<DeltaruneAlertLayer::show()::$_0, std::__ndk1::allocator<DeltaruneAlertLayer::show()::$_0>, void ()>::__clone(std::__ndk1::__function::__base<void ()>*) const
PUBLIC 29cac 0 std::__ndk1::__function::__func<DeltaruneAlertLayer::show()::$_0, std::__ndk1::allocator<DeltaruneAlertLayer::show()::$_0>, void ()>::destroy()
PUBLIC 29cb0 0 std::__ndk1::__function::__func<DeltaruneAlertLayer::show()::$_0, std::__ndk1::allocator<DeltaruneAlertLayer::show()::$_0>, void ()>::destroy_deallocate()
PUBLIC 29cb4 0 std::__ndk1::__function::__func<DeltaruneAlertLayer::show()::$_0, std::__ndk1::allocator<DeltaruneAlertLayer::show()::$_0>, void ()>::operator()()
PUBLIC 29e0c 0 std::__ndk1::__function::__func<DeltaruneAlertLayer::show()::$_0, std::__ndk1::allocator<DeltaruneAlertLayer::show()::$_0>, void ()>::target(std::type_info const&) const
PUBLIC 29e28 0 std::__ndk1::__function::__func<DeltaruneAlertLayer::show()::$_0, std::__ndk1::allocator<DeltaruneAlertLayer::show()::$_0>, void ()>::target_type() const
PUBLIC 29e34 0 geode::EventListener<keybinds::InvokeBindFilter>::getPool() const
PUBLIC 29e38 0 geode::EventListener<keybinds::InvokeBindFilter>::handle(geode::Event*)
PUBLIC 29fac 0 geode::EventListener<keybinds::InvokeBindFilter>::~EventListener()
PUBLIC 2a018 0 geode::EventListener<keybinds::InvokeBindFilter>::~EventListener()
PUBLIC 2a08c 0 std::__ndk1::__function::__func<DeltaruneAlertLayer::initCustomKeybinds()::$_0, std::__ndk1::allocator<DeltaruneAlertLayer::initCustomKeybinds()::$_0>, geode::ListenerResult(keybinds::InvokeBindEvent*)>::~__func()
PUBLIC 2a090 0 std::__ndk1::__function::__func<DeltaruneAlertLayer::initCustomKeybinds()::$_0, std::__ndk1::allocator<DeltaruneAlertLayer::initCustomKeybinds()::$_0>, geode::ListenerResult(keybinds::InvokeBindEvent*)>::__clone() const
PUBLIC 2a0c4 0 std::__ndk1::__function::__func<DeltaruneAlertLayer::initCustomKeybinds()::$_0, std::__ndk1::allocator<DeltaruneAlertLayer::initCustomKeybinds()::$_0>, geode::ListenerResult(keybinds::InvokeBindEvent*)>::__clone(std::__ndk1::__function::__base<geode::ListenerResult(keybinds::InvokeBindEvent*)>*) const
PUBLIC 2a0d8 0 std::__ndk1::__function::__func<DeltaruneAlertLayer::initCustomKeybinds()::$_0, std::__ndk1::allocator<DeltaruneAlertLayer::initCustomKeybinds()::$_0>, geode::ListenerResult(keybinds::InvokeBindEvent*)>::destroy()
PUBLIC 2a0dc 0 std::__ndk1::__function::__func<DeltaruneAlertLayer::initCustomKeybinds()::$_0, std::__ndk1::allocator<DeltaruneAlertLayer::initCustomKeybinds()::$_0>, geode::ListenerResult(keybinds::InvokeBindEvent*)>::destroy_deallocate()
PUBLIC 2a0e0 0 std::__ndk1::__function::__func<DeltaruneAlertLayer::initCustomKeybinds()::$_0, std::__ndk1::allocator<DeltaruneAlertLayer::initCustomKeybinds()::$_0>, geode::ListenerResult(keybinds::InvokeBindEvent*)>::operator()(keybinds::InvokeBindEvent*&&)
PUBLIC 2a324 0 std::__ndk1::__function::__func<DeltaruneAlertLayer::initCustomKeybinds()::$_0, std::__ndk1::allocator<DeltaruneAlertLayer::initCustomKeybinds()::$_0>, geode::ListenerResult(keybinds::InvokeBindEvent*)>::target(std::type_info const&) const
PUBLIC 2a340 0 std::__ndk1::__function::__func<DeltaruneAlertLayer::initCustomKeybinds()::$_0, std::__ndk1::allocator<DeltaruneAlertLayer::initCustomKeybinds()::$_0>, geode::ListenerResult(keybinds::InvokeBindEvent*)>::target_type() const
PUBLIC 2a34c 0 std::__ndk1::__function::__func<DeltaruneAlertLayer::initCustomKeybinds()::$_1, std::__ndk1::allocator<DeltaruneAlertLayer::initCustomKeybinds()::$_1>, geode::ListenerResult(keybinds::InvokeBindEvent*)>::~__func()
PUBLIC 2a350 0 std::__ndk1::__function::__func<DeltaruneAlertLayer::initCustomKeybinds()::$_1, std::__ndk1::allocator<DeltaruneAlertLayer::initCustomKeybinds()::$_1>, geode::ListenerResult(keybinds::InvokeBindEvent*)>::__clone() const
PUBLIC 2a384 0 std::__ndk1::__function::__func<DeltaruneAlertLayer::initCustomKeybinds()::$_1, std::__ndk1::allocator<DeltaruneAlertLayer::initCustomKeybinds()::$_1>, geode::ListenerResult(keybinds::InvokeBindEvent*)>::__clone(std::__ndk1::__function::__base<geode::ListenerResult(keybinds::InvokeBindEvent*)>*) const
PUBLIC 2a398 0 std::__ndk1::__function::__func<DeltaruneAlertLayer::initCustomKeybinds()::$_1, std::__ndk1::allocator<DeltaruneAlertLayer::initCustomKeybinds()::$_1>, geode::ListenerResult(keybinds::InvokeBindEvent*)>::destroy()
PUBLIC 2a39c 0 std::__ndk1::__function::__func<DeltaruneAlertLayer::initCustomKeybinds()::$_1, std::__ndk1::allocator<DeltaruneAlertLayer::initCustomKeybinds()::$_1>, geode::ListenerResult(keybinds::InvokeBindEvent*)>::destroy_deallocate()
PUBLIC 2a3a0 0 std::__ndk1::__function::__func<DeltaruneAlertLayer::initCustomKeybinds()::$_1, std::__ndk1::allocator<DeltaruneAlertLayer::initCustomKeybinds()::$_1>, geode::ListenerResult(keybinds::InvokeBindEvent*)>::operator()(keybinds::InvokeBindEvent*&&)
PUBLIC 2a5c4 0 std::__ndk1::__function::__func<DeltaruneAlertLayer::initCustomKeybinds()::$_1, std::__ndk1::allocator<DeltaruneAlertLayer::initCustomKeybinds()::$_1>, geode::ListenerResult(keybinds::InvokeBindEvent*)>::target(std::type_info const&) const
PUBLIC 2a5e0 0 std::__ndk1::__function::__func<DeltaruneAlertLayer::initCustomKeybinds()::$_1, std::__ndk1::allocator<DeltaruneAlertLayer::initCustomKeybinds()::$_1>, geode::ListenerResult(keybinds::InvokeBindEvent*)>::target_type() const
PUBLIC 2a5ec 0 std::__ndk1::__function::__func<DeltaruneAlertLayer::initCustomKeybinds()::$_2, std::__ndk1::allocator<DeltaruneAlertLayer::initCustomKeybinds()::$_2>, geode::ListenerResult(keybinds::InvokeBindEvent*)>::~__func()
PUBLIC 2a5f0 0 std::__ndk1::__function::__func<DeltaruneAlertLayer::initCustomKeybinds()::$_2, std::__ndk1::allocator<DeltaruneAlertLayer::initCustomKeybinds()::$_2>, geode::ListenerResult(keybinds::InvokeBindEvent*)>::__clone() const
PUBLIC 2a624 0 std::__ndk1::__function::__func<DeltaruneAlertLayer::initCustomKeybinds()::$_2, std::__ndk1::allocator<DeltaruneAlertLayer::initCustomKeybinds()::$_2>, geode::ListenerResult(keybinds::InvokeBindEvent*)>::__clone(std::__ndk1::__function::__base<geode::ListenerResult(keybinds::InvokeBindEvent*)>*) const
PUBLIC 2a638 0 std::__ndk1::__function::__func<DeltaruneAlertLayer::initCustomKeybinds()::$_2, std::__ndk1::allocator<DeltaruneAlertLayer::initCustomKeybinds()::$_2>, geode::ListenerResult(keybinds::InvokeBindEvent*)>::destroy()
PUBLIC 2a63c 0 std::__ndk1::__function::__func<DeltaruneAlertLayer::initCustomKeybinds()::$_2, std::__ndk1::allocator<DeltaruneAlertLayer::initCustomKeybinds()::$_2>, geode::ListenerResult(keybinds::InvokeBindEvent*)>::destroy_deallocate()
PUBLIC 2a640 0 std::__ndk1::__function::__func<DeltaruneAlertLayer::initCustomKeybinds()::$_2, std::__ndk1::allocator<DeltaruneAlertLayer::initCustomKeybinds()::$_2>, geode::ListenerResult(keybinds::InvokeBindEvent*)>::operator()(keybinds::InvokeBindEvent*&&)
PUBLIC 2a694 0 std::__ndk1::__function::__func<DeltaruneAlertLayer::initCustomKeybinds()::$_2, std::__ndk1::allocator<DeltaruneAlertLayer::initCustomKeybinds()::$_2>, geode::ListenerResult(keybinds::InvokeBindEvent*)>::target(std::type_info const&) const
PUBLIC 2a6b0 0 std::__ndk1::__function::__func<DeltaruneAlertLayer::initCustomKeybinds()::$_2, std::__ndk1::allocator<DeltaruneAlertLayer::initCustomKeybinds()::$_2>, geode::ListenerResult(keybinds::InvokeBindEvent*)>::target_type() const
PUBLIC 2a6bc 0 std::__ndk1::__function::__base<geode::ListenerResult(keybinds::InvokeBindEvent*)>::~__base()
PUBLIC 2a6c0 0 std::__ndk1::__function::__func<DeltaruneAlertLayer::initCustomKeybinds()::$_3, std::__ndk1::allocator<DeltaruneAlertLayer::initCustomKeybinds()::$_3>, geode::ListenerResult(keybinds::InvokeBindEvent*)>::~__func()
PUBLIC 2a6c4 0 std::__ndk1::__function::__func<DeltaruneAlertLayer::initCustomKeybinds()::$_3, std::__ndk1::allocator<DeltaruneAlertLayer::initCustomKeybinds()::$_3>, geode::ListenerResult(keybinds::InvokeBindEvent*)>::__clone() const
PUBLIC 2a6f8 0 std::__ndk1::__function::__func<DeltaruneAlertLayer::initCustomKeybinds()::$_3, std::__ndk1::allocator<DeltaruneAlertLayer::initCustomKeybinds()::$_3>, geode::ListenerResult(keybinds::InvokeBindEvent*)>::__clone(std::__ndk1::__function::__base<geode::ListenerResult(keybinds::InvokeBindEvent*)>*) const
PUBLIC 2a70c 0 std::__ndk1::__function::__func<DeltaruneAlertLayer::initCustomKeybinds()::$_3, std::__ndk1::allocator<DeltaruneAlertLayer::initCustomKeybinds()::$_3>, geode::ListenerResult(keybinds::InvokeBindEvent*)>::destroy()
PUBLIC 2a710 0 std::__ndk1::__function::__func<DeltaruneAlertLayer::initCustomKeybinds()::$_3, std::__ndk1::allocator<DeltaruneAlertLayer::initCustomKeybinds()::$_3>, geode::ListenerResult(keybinds::InvokeBindEvent*)>::destroy_deallocate()
PUBLIC 2a714 0 std::__ndk1::__function::__func<DeltaruneAlertLayer::initCustomKeybinds()::$_3, std::__ndk1::allocator<DeltaruneAlertLayer::initCustomKeybinds()::$_3>, geode::ListenerResult(keybinds::InvokeBindEvent*)>::operator()(keybinds::InvokeBindEvent*&&)
PUBLIC 2a758 0 std::__ndk1::__function::__func<DeltaruneAlertLayer::initCustomKeybinds()::$_3, std::__ndk1::allocator<DeltaruneAlertLayer::initCustomKeybinds()::$_3>, geode::ListenerResult(keybinds::InvokeBindEvent*)>::target(std::type_info const&) const
PUBLIC 2a774 0 std::__ndk1::__function::__func<DeltaruneAlertLayer::initCustomKeybinds()::$_3, std::__ndk1::allocator<DeltaruneAlertLayer::initCustomKeybinds()::$_3>, geode::ListenerResult(keybinds::InvokeBindEvent*)>::target_type() const
PUBLIC 2a780 0 std::__ndk1::__hash_table<std::__ndk1::__hash_value_type<std::__ndk1::basic_string<char, std::__ndk1::char_traits<char>, std::__ndk1::allocator<char> >, std::__ndk1::basic_string<char, std::__ndk1::char_traits<char>, std::__ndk1::allocator<char> > >, std::__ndk1::__unordered_map_hasher<std::__ndk1::basic_string<char, std::__ndk1::char_traits<char>, std::__ndk1::allocator<char> >, std::__ndk1::__hash_value_type<std::__ndk1::basic_string<char, std::__ndk1::char_traits<char>, std::__ndk1::allocator<char> >, std::__ndk1::basic_string<char, std::__ndk1::char_traits<char>, std::__ndk1::allocator<char> > >, std::__ndk1::hash<std::__ndk1::basic_string<char, std::__ndk1::char_traits<char>, std::__ndk1::allocator<char> > >, std::__ndk1::equal_to<std::__ndk1::basic_string<char, std::__ndk1::char_traits<char>, std::__ndk1::allocator<char> > >, true>, std::__ndk1::__unordered_map_equal<std::__ndk1::basic_string<char, std::__ndk1::char_traits<char>, std::__ndk1::allocator<char> >, std::__ndk1::__hash_value_type<std::__ndk1::basic_string<char, std::__ndk1::char_traits<char>, std::__ndk1::allocator<char> >, std::__ndk1::basic_string<char, std::__ndk1::char_traits<char>, std::__ndk1::allocator<char> > >, std::__ndk1::equal_to<std::__ndk1::basic_string<char, std::__ndk1::char_traits<char>, std::__ndk1::allocator<char> > >, std::__ndk1::hash<std::__ndk1::basic_string<char, std::__ndk1::char_traits<char>, std::__ndk1::allocator<char> > >, true>, std::__ndk1::allocator<std::__ndk1::__hash_value_type<std::__ndk1::basic_string<char, std::__ndk1::char_traits<char>, std::__ndk1::allocator<char> >, std::__ndk1::basic_string<char, std::__ndk1::char_traits<char>, std::__ndk1::allocator<char> > > > >::find<std::__ndk1::basic_string<char, std::__ndk1::char_traits<char>, std::__ndk1::allocator<char> > >(std::__ndk1::basic_string<char, std::__ndk1::char_traits<char>, std::__ndk1::allocator<char> > const&)
PUBLIC 2a9d4 0 std::__ndk1::__hash_table<std::__ndk1::__hash_value_type<std::__ndk1::basic_string<char, std::__ndk1::char_traits<char>, std::__ndk1::allocator<char> >, std::__ndk1::basic_string<char, std::__ndk1::char_traits<char>, std::__ndk1::allocator<char> > >, std::__ndk1::__unordered_map_hasher<std::__ndk1::basic_string<char, std::__ndk1::char_traits<char>, std::__ndk1::allocator<char> >, std::__ndk1::__hash_value_type<std::__ndk1::basic_string<char, std::__ndk1::char_traits<char>, std::__ndk1::allocator<char> >, std::__ndk1::basic_string<char, std::__ndk1::char_traits<char>, std::__ndk1::allocator<char> > >, std::__ndk1::hash<std::__ndk1::basic_string<char, std::__ndk1::char_traits<char>, std::__ndk1::allocator<char> > >, std::__ndk1::equal_to<std::__ndk1::basic_string<char, std::__ndk1::char_traits<char>, std::__ndk1::allocator<char> > >, true>, std::__ndk1::__unordered_map_equal<std::__ndk1::basic_string<char, std::__ndk1::char_traits<char>, std::__ndk1::allocator<char> >, std::__ndk1::__hash_value_type<std::__ndk1::basic_string<char, std::__ndk1::char_traits<char>, std::__ndk1::allocator<char> >, std::__ndk1::basic_string<char, std::__ndk1::char_traits<char>, std::__ndk1::allocator<char> > >, std::__ndk1::equal_to<std::__ndk1::basic_string<char, std::__ndk1::char_traits<char>, std::__ndk1::allocator<char> > >, std::__ndk1::hash<std::__ndk1::basic_string<char, std::__ndk1::char_traits<char>, std::__ndk1::allocator<char> > >, true>, std::__ndk1::allocator<std::__ndk1::__hash_value_type<std::__ndk1::basic_string<char, std::__ndk1::char_traits<char>, std::__ndk1::allocator<char> >, std::__ndk1::basic_string<char, std::__ndk1::char_traits<char>, std::__ndk1::allocator<char> > > > >::~__hash_table()
PUBLIC 2aa60 0 std::__ndk1::__hash_table<std::__ndk1::__hash_value_type<std::__ndk1::basic_string<char, std::__ndk1::char_traits<char>, std::__ndk1::allocator<char> >, std::__ndk1::basic_string<char, std::__ndk1::char_traits<char>, std::__ndk1::allocator<char> > >, std::__ndk1::__unordered_map_hasher<std::__ndk1::basic_string<char, std::__ndk1::char_traits<char>, std::__ndk1::allocator<char> >, std::__ndk1::__hash_value_type<std::__ndk1::basic_string<char, std::__ndk1::char_traits<char>, std::__ndk1::allocator<char> >, std::__ndk1::basic_string<char, std::__ndk1::char_traits<char>, std::__ndk1::allocator<char> > >, std::__ndk1::hash<std::__ndk1::basic_string<char, std::__ndk1::char_traits<char>, std::__ndk1::allocator<char> > >, std::__ndk1::equal_to<std::__ndk1::basic_string<char, std::__ndk1::char_traits<char>, std::__ndk1::allocator<char> > >, true>, std::__ndk1::__unordered_map_equal<std::__ndk1::basic_string<char, std::__ndk1::char_traits<char>, std::__ndk1::allocator<char> >, std::__ndk1::__hash_value_type<std::__ndk1::basic_string<char, std::__ndk1::char_traits<char>, std::__ndk1::allocator<char> >, std::__ndk1::basic_string<char, std::__ndk1::char_traits<char>, std::__ndk1::allocator<char> > >, std::__ndk1::equal_to<std::__ndk1::basic_string<char, std::__ndk1::char_traits<char>, std::__ndk1::allocator<char> > >, std::__ndk1::hash<std::__ndk1::basic_string<char, std::__ndk1::char_traits<char>, std::__ndk1::allocator<char> > >, true>, std::__ndk1::allocator<std::__ndk1::__hash_value_type<std::__ndk1::basic_string<char, std::__ndk1::char_traits<char>, std::__ndk1::allocator<char> >, std::__ndk1::basic_string<char, std::__ndk1::char_traits<char>, std::__ndk1::allocator<char> > > > >::__emplace_unique_key_args<std::__ndk1::basic_string<char, std::__ndk1::char_traits<char>, std::__ndk1::allocator<char> >, std::__ndk1::piecewise_construct_t const&, std::__ndk1::tuple<std::__ndk1::basic_string<char, std::__ndk1::char_traits<char>, std::__ndk1::allocator<char> > const&>, std::__ndk1::tuple<> >(std::__ndk1::basic_string<char, std::__ndk1::char_traits<char>, std::__ndk1::allocator<char> > const&, std::__ndk1::piecewise_construct_t const&, std::__ndk1::tuple<std::__ndk1::basic_string<char, std::__ndk1::char_traits<char>, std::__ndk1::allocator<char> > const&>, std::__ndk1::tuple<>)
PUBLIC 2af24 0 DeltaruneDialogLayer::init(DialogObject*, cocos2d::CCArray*, int)
PUBLIC 2b9ac 0 geode::modifier::FieldIntermediate<DeltaruneDialogLayer, DialogLayer>::self()
PUBLIC 2bb38 0 geode::modifier::FieldIntermediate<DeltaruneDialogLayer, DialogLayer>::fieldDestructor(void*)
PUBLIC 2bb3c 0 fmt::v11::detail::value<fmt::v11::context>::format_custom_arg<gd::string, fmt::v11::formatter<gd::string, char, void> >(void*, fmt::v11::basic_format_parse_context<char>&, fmt::v11::context&)
PUBLIC 2bd10 0 fmt::v11::detail::parse_format_specs<char>(char const*, char const*, fmt::v11::detail::dynamic_format_specs<char>&, fmt::v11::basic_format_parse_context<char>&, fmt::v11::detail::type)
PUBLIC 2c1c4 0 fmt::v11::detail::parse_dynamic_spec<char>(char const*, char const*, int&, fmt::v11::detail::arg_ref<char>&, fmt::v11::basic_format_parse_context<char>&)
PUBLIC 2c368 0 fmt::v11::detail::do_parse_arg_id<char, fmt::v11::detail::dynamic_spec_id_handler<char>&>(char const*, char const*, fmt::v11::detail::dynamic_spec_id_handler<char>&)
PUBLIC 2c4fc 0 fmt::v11::detail::handle_dynamic_spec<fmt::v11::detail::width_checker, fmt::v11::context>(int&, fmt::v11::detail::arg_ref<fmt::v11::context::char_type>, fmt::v11::context&)
PUBLIC 2c610 0 fmt::v11::detail::handle_dynamic_spec<fmt::v11::detail::precision_checker, fmt::v11::context>(int&, fmt::v11::detail::arg_ref<fmt::v11::context::char_type>, fmt::v11::context&)
PUBLIC 2c724 0 fmt::v11::detail::write<char, fmt::v11::basic_appender<char> >(fmt::v11::basic_appender<char>, fmt::v11::basic_string_view<char>, fmt::v11::format_specs const&)
PUBLIC 2c9a0 0 fmt::v11::detail::write_escaped_string<char, fmt::v11::detail::counting_iterator>(fmt::v11::detail::counting_iterator, fmt::v11::basic_string_view<char>)
PUBLIC 2cec0 0 fmt::v11::detail::write_padded<char, (fmt::v11::align::type)1, fmt::v11::basic_appender<char>, fmt::v11::detail::write<char, fmt::v11::basic_appender<char> >(fmt::v11::basic_appender<char>, fmt::v11::basic_string_view<char>, fmt::v11::format_specs const&)::{lambda(fmt::v11::basic_appender<char>)#1}>(fmt::v11::basic_appender<char>, fmt::v11::format_specs const&, unsigned long, unsigned long, fmt::v11::detail::write<char, fmt::v11::basic_appender<char> >(fmt::v11::basic_appender<char>, fmt::v11::basic_string_view<char>, fmt::v11::format_specs const&)::{lambda(fmt::v11::basic_appender<char>&&)#1})
PUBLIC 2d0cc 0 fmt::v11::detail::for_each_codepoint<fmt::v11::detail::code_point_index(fmt::v11::basic_string_view<char>, unsigned long)::{lambda(unsigned int, fmt::v11::basic_string_view<char>)#1}>(fmt::v11::basic_string_view<char>, fmt::v11::detail::code_point_index(fmt::v11::basic_string_view<char>, unsigned long)::{lambda(unsigned int, fmt::v11::basic_string_view<char>)#1})
PUBLIC 2d4f4 0 fmt::v11::detail::write_escaped_cp<fmt::v11::detail::counting_iterator, char>(fmt::v11::detail::counting_iterator, fmt::v11::detail::find_escape_result<char> const&)
PUBLIC 2d688 0 fmt::v11::detail::for_each_codepoint<fmt::v11::detail::compute_width(fmt::v11::basic_string_view<char>)::count_code_points>(fmt::v11::basic_string_view<char>, fmt::v11::detail::compute_width(fmt::v11::basic_string_view<char>)::count_code_points)::{lambda(char const*, char const*)#1}::operator()(char const*, char const*) const
PUBLIC 2d840 0 fmt::v11::detail::fill<char, fmt::v11::basic_appender<char> >(fmt::v11::basic_appender<char>, unsigned long, fmt::v11::detail::fill_t const&)
PUBLIC 2da10 0 fmt::v11::detail::write_escaped_string<char, fmt::v11::basic_appender<char> >(fmt::v11::basic_appender<char>, fmt::v11::basic_string_view<char>)
PUBLIC 2e08c 0 fmt::v11::detail::write_escaped_cp<fmt::v11::basic_appender<char>, char>(fmt::v11::basic_appender<char>, fmt::v11::detail::find_escape_result<char> const&)
PUBLIC 2e270 0 fmt::v11::detail::write_codepoint<(unsigned long)2, char, fmt::v11::basic_appender<char> >(fmt::v11::basic_appender<char>, char, unsigned int)
PUBLIC 2e3e8 0 fmt::v11::detail::write_codepoint<(unsigned long)4, char, fmt::v11::basic_appender<char> >(fmt::v11::basic_appender<char>, char, unsigned int)
PUBLIC 2e560 0 fmt::v11::detail::write_codepoint<(unsigned long)8, char, fmt::v11::basic_appender<char> >(fmt::v11::basic_appender<char>, char, unsigned int)
PUBLIC 2e6d8 0 fmt::v11::detail::get_dynamic_spec<fmt::v11::detail::width_checker, fmt::v11::basic_format_arg<fmt::v11::context> >(fmt::v11::basic_format_arg<fmt::v11::context>)
PUBLIC 2e76c 0 fmt::v11::basic_format_args<fmt::v11::context>::get<char>(fmt::v11::basic_string_view<char>) const
PUBLIC 2e8c4 0 fmt::v11::detail::get_dynamic_spec<fmt::v11::detail::precision_checker, fmt::v11::basic_format_arg<fmt::v11::context> >(fmt::v11::basic_format_arg<fmt::v11::context>)
PUBLIC 2e958 0 std::__ndk1::__function::__func<DeltaruneDialogLayer::init(DialogObject*, cocos2d::CCArray*, int)::$_0, std::__ndk1::allocator<DeltaruneDialogLayer::init(DialogObject*, cocos2d::CCArray*, int)::$_0>, void ()>::~__func()
PUBLIC 2e95c 0 std::__ndk1::__function::__func<DeltaruneDialogLayer::init(DialogObject*, cocos2d::CCArray*, int)::$_0, std::__ndk1::allocator<DeltaruneDialogLayer::init(DialogObject*, cocos2d::CCArray*, int)::$_0>, void ()>::__clone() const
PUBLIC 2e994 0 std::__ndk1::__function::__func<DeltaruneDialogLayer::init(DialogObject*, cocos2d::CCArray*, int)::$_0, std::__ndk1::allocator<DeltaruneDialogLayer::init(DialogObject*, cocos2d::CCArray*, int)::$_0>, void ()>::__clone(std::__ndk1::__function::__base<void ()>*) const
PUBLIC 2e9ac 0 std::__ndk1::__function::__func<DeltaruneDialogLayer::init(DialogObject*, cocos2d::CCArray*, int)::$_0, std::__ndk1::allocator<DeltaruneDialogLayer::init(DialogObject*, cocos2d::CCArray*, int)::$_0>, void ()>::destroy()
PUBLIC 2e9b0 0 std::__ndk1::__function::__func<DeltaruneDialogLayer::init(DialogObject*, cocos2d::CCArray*, int)::$_0, std::__ndk1::allocator<DeltaruneDialogLayer::init(DialogObject*, cocos2d::CCArray*, int)::$_0>, void ()>::destroy_deallocate()
PUBLIC 2e9b4 0 std::__ndk1::__function::__func<DeltaruneDialogLayer::init(DialogObject*, cocos2d::CCArray*, int)::$_0, std::__ndk1::allocator<DeltaruneDialogLayer::init(DialogObject*, cocos2d::CCArray*, int)::$_0>, void ()>::operator()()
PUBLIC 2ea18 0 std::__ndk1::__function::__func<DeltaruneDialogLayer::init(DialogObject*, cocos2d::CCArray*, int)::$_0, std::__ndk1::allocator<DeltaruneDialogLayer::init(DialogObject*, cocos2d::CCArray*, int)::$_0>, void ()>::target(std::type_info const&) const
PUBLIC 2ea34 0 std::__ndk1::__function::__func<DeltaruneDialogLayer::init(DialogObject*, cocos2d::CCArray*, int)::$_0, std::__ndk1::allocator<DeltaruneDialogLayer::init(DialogObject*, cocos2d::CCArray*, int)::$_0>, void ()>::target_type() const
PUBLIC 2ea40 0 __cxx_global_var_init.1
PUBLIC 2eec0 0 geode::modifier::ModifyBase<geode::modifier::ModifyDerive<MyHookLol, cocos2d::CCKeyboardDispatcher> >::~ModifyBase()
PUBLIC 2eedc 0 geode::Ref<keybinds::Bind>::~Ref()
PUBLIC 2eef8 0 keybinds::BindableAction::~BindableAction()
PUBLIC 2efbc 0 std::__ndk1::vector<geode::Ref<keybinds::Bind>, std::__ndk1::allocator<geode::Ref<keybinds::Bind> > >::~vector[abi:ne180000]()
PUBLIC 2f040 0 std::__ndk1::__exception_guard_exceptions<std::__ndk1::vector<geode::Ref<keybinds::Bind>, std::__ndk1::allocator<geode::Ref<keybinds::Bind> > >::__destroy_vector>::~__exception_guard_exceptions[abi:ne180000]()
PUBLIC 2f0d4 0 std::__ndk1::__exception_guard_exceptions<std::__ndk1::_AllocatorDestroyRangeReverse<std::__ndk1::allocator<geode::Ref<keybinds::Bind> >, geode::Ref<keybinds::Bind>*> >::~__exception_guard_exceptions[abi:ne180000]()
PUBLIC 2f11c 0 geode::modifier::ModifyDerive<MyHookLol, cocos2d::CCKeyboardDispatcher>::apply()
PUBLIC 2f508 0 geode::modifier::ModifyBase<geode::modifier::ModifyDerive<MyHookLol, cocos2d::CCKeyboardDispatcher> >::apply()
PUBLIC 2f50c 0 geode::modifier::AsStaticFunction_dispatchKeyboardMSG<MyHookLol, bool (MyHookLol::*)(cocos2d::enumKeyCodes, bool, bool)>::Impl<bool (MyHookLol::*)(cocos2d::enumKeyCodes, bool, bool)>::function(MyHookLol*, cocos2d::enumKeyCodes, bool, bool)
PUBLIC 2f630 0 _GLOBAL__sub_I_CCKeyboardDispatcher.cpp
PUBLIC 304e0 0 DeltaruneAlertLayer::animateBG(float)
PUBLIC 307c4 0 DeltaruneAlertLayer::changeBG()
PUBLIC 30b0c 0 DeltaruneAlertLayer::changeSingleButton(CCMenuItemSpriteExtra*, ButtonSprite*)
PUBLIC 30c9c 0 DeltaruneAlertLayer::changeButtons()
PUBLIC 30f44 0 DeltaruneAlertLayer::changeText()
PUBLIC 32654 0 geode::cocos::CCArrayExt<cocos2d::CCSprite*, cocos2d::CCSprite>::~CCArrayExt()
PUBLIC 32670 0 DeltaruneAlertLayer::changeLook()
PUBLIC m 32770 0 geodeImplicitEntry
PUBLIC 327ac 0 std::__ndk1::unordered_map<void*, bool, std::__ndk1::hash<void*>, std::__ndk1::equal_to<void*>, std::__ndk1::allocator<std::__ndk1::pair<void* const, bool> > >::~unordered_map[abi:ne180000]()
PUBLIC 327f8 0 wrapFunction(unsigned long, tulip::hook::WrapperMetadata const&)
PUBLIC 3292c 0 geode::impl::ResultData<void*, std::__ndk1::basic_string<char, std::__ndk1::char_traits<char>, std::__ndk1::allocator<char> > >::unwrapErr() &
PUBLIC 329a4 0 geode::impl::ResultData<void*, std::__ndk1::basic_string<char, std::__ndk1::char_traits<char>, std::__ndk1::allocator<char> > >::~ResultData()
PUBLIC 32a18 0 tulip::hook::WrapperMetadata::~WrapperMetadata()
PUBLIC 32a7c 0 cocos2d::CCObject::~CCObject()
PUBLIC 32aa0 0 cocos2d::CCNode::~CCNode()
PUBLIC 32ac4 0 {virtual override thunk({offset(-320)}, cocos2d::CCLayer::~CCLayer())}
PUBLIC 32acc 0 cocos2d::CCLayer::~CCLayer()
PUBLIC 32af0 0 {virtual override thunk({offset(-320)}, cocos2d::CCLayer::~CCLayer())}
PUBLIC 32b18 0 cocos2d::CCLayerRGBA::~CCLayerRGBA()
PUBLIC 32df0 0 {virtual override thunk({offset(-320)}, cocos2d::CCLayerRGBA::~CCLayerRGBA())}
PUBLIC 32df8 0 cocos2d::CCLayerRGBA::~CCLayerRGBA()
PUBLIC 32e1c 0 {virtual override thunk({offset(-320)}, cocos2d::CCLayerRGBA::~CCLayerRGBA())}
PUBLIC 32e44 0 {virtual override thunk({offset(-320)}, cocos2d::CCLayerColor::~CCLayerColor())}
PUBLIC 32e4c 0 cocos2d::CCLayerColor::~CCLayerColor()
PUBLIC 32e70 0 {virtual override thunk({offset(-320)}, cocos2d::CCLayerColor::~CCLayerColor())}
PUBLIC 32e98 0 {virtual override thunk({offset(-320)}, FLAlertLayer::~FLAlertLayer())}
PUBLIC 32ea0 0 FLAlertLayer::~FLAlertLayer()
PUBLIC 32ec4 0 {virtual override thunk({offset(-320)}, FLAlertLayer::~FLAlertLayer())}
PUBLIC 32eec 0 FLAlertLayer::create(FLAlertLayerProtocol*, char const*, gd::string, char const*, char const*, float)
PUBLIC 330a4 0 tulip::hook::AbstractFunction::from<FLAlertLayer*, FLAlertLayerProtocol*, char const*, gd::string, char const*, char const*, float>(FLAlertLayer* (*)(FLAlertLayerProtocol*, char const*, gd::string, char const*, char const*, float))
PUBLIC 33588 0 FLAlertLayer::init(FLAlertLayerProtocol*, char const*, gd::string, char const*, char const*, float, bool, float, float)
PUBLIC 33770 0 tulip::hook::AbstractFunction::from<bool, FLAlertLayer*, FLAlertLayerProtocol*, char const*, gd::string, char const*, char const*, float, bool, float, float>(bool (*)(FLAlertLayer*, FLAlertLayerProtocol*, char const*, gd::string, char const*, char const*, float, bool, float, float))
PUBLIC 34068 0 CCSpriteGrayscale::create(gd::string const&)
PUBLIC 341cc 0 TextArea::create(gd::string, char const*, float, float, cocos2d::CCPoint, float, bool)
PUBLIC 34394 0 tulip::hook::AbstractFunction::from<TextArea*, gd::string, char const*, float, float, cocos2d::CCPoint, float, bool>(TextArea* (*)(gd::string, char const*, float, float, cocos2d::CCPoint, float, bool))
PUBLIC 34950 0 cocos2d::CCObject::update(float)
PUBLIC 34954 0 cocos2d::CCLayerColor::~CCLayerColor()
PUBLIC 34c10 0 FLAlertLayer::~FLAlertLayer()
PUBLIC 34ecc 0 cocos2d::CCNode::~CCNode()
PUBLIC 35144 0 cocos2d::CCLayer::~CCLayer()
PUBLIC 3540c 0 cocos2d::CCObject::~CCObject()
PUBLIC 358d8 0 _ZN5geode15UnwrapExceptionC2IRPvQsr4implE18IsStringStreamableIT_EEENS_4impl5OkTagEOS4_
PUBLIC 35a2c 0 _ZN5geode15UnwrapExceptionC2IRNSt6__ndk112basic_stringIcNS2_11char_traitsIcEENS2_9allocatorIcEEEEQsr4implE18IsStringStreamableIT_EEENS_4impl6ErrTagEOSA_
PUBLIC 35b94 0 std::__ndk1::__variant_detail::__visitation::__base::__dispatcher<(unsigned long)0>::__dispatch[abi:ne180000]<std::__ndk1::__variant_detail::__dtor<std::__ndk1::__variant_detail::__traits<void*, std::__ndk1::basic_string<char, std::__ndk1::char_traits<char>, std::__ndk1::allocator<char> > >, (std::__ndk1::__variant_detail::_Trait)1>::__destroy[abi:ne180000]()::{lambda(auto:1&)#1}, std::__ndk1::__variant_detail::__base<(std::__ndk1::__variant_detail::__traits<void*, std::__ndk1::basic_string<char, std::__ndk1::char_traits<char>, std::__ndk1::allocator<char> > >)1, std::__ndk1::__variant_detail::__traits, std::__ndk1::allocator<char> >&>(std::__ndk1::__variant_detail::__dtor<std::__ndk1::__variant_detail::__traits<void*, std::__ndk1::basic_string<char, std::__ndk1::char_traits<char>, std::__ndk1::allocator<char> > >, (std::__ndk1::__variant_detail::_Trait)1>, std::__ndk1::__variant_detail::__base<(std::__ndk1::__variant_detail::__traits<void*, std::__ndk1::basic_string<char, std::__ndk1::char_traits<char>, std::__ndk1::allocator<char> > >)1, std::__ndk1::__variant_detail::__traits, std::__ndk1::allocator<char> >&)
PUBLIC 35b98 0 std::__ndk1::__variant_detail::__visitation::__base::__dispatcher<(unsigned long)1>::__dispatch[abi:ne180000]<std::__ndk1::__variant_detail::__dtor<std::__ndk1::__variant_detail::__traits<void*, std::__ndk1::basic_string<char, std::__ndk1::char_traits<char>, std::__ndk1::allocator<char> > >, (std::__ndk1::__variant_detail::_Trait)1>::__destroy[abi:ne180000]()::{lambda(auto:1&)#1}, std::__ndk1::__variant_detail::__base<(std::__ndk1::__variant_detail::__traits<void*, std::__ndk1::basic_string<char, std::__ndk1::char_traits<char>, std::__ndk1::allocator<char> > >)1, std::__ndk1::__variant_detail::__traits, std::__ndk1::allocator<char> >&>(std::__ndk1::__variant_detail::__dtor<std::__ndk1::__variant_detail::__traits<void*, std::__ndk1::basic_string<char, std::__ndk1::char_traits<char>, std::__ndk1::allocator<char> > >, (std::__ndk1::__variant_detail::_Trait)1>, std::__ndk1::__variant_detail::__base<(std::__ndk1::__variant_detail::__traits<void*, std::__ndk1::basic_string<char, std::__ndk1::char_traits<char>, std::__ndk1::allocator<char> > >)1, std::__ndk1::__variant_detail::__traits, std::__ndk1::allocator<char> >&)
PUBLIC 35bac 0 std::__ndk1::__hash_table<std::__ndk1::__hash_value_type<void*, bool>, std::__ndk1::__unordered_map_hasher<void*, std::__ndk1::__hash_value_type<void*, bool>, std::__ndk1::hash<void*>, std::__ndk1::equal_to<void*>, true>, std::__ndk1::__unordered_map_equal<void*, std::__ndk1::__hash_value_type<void*, bool>, std::__ndk1::equal_to<void*>, std::__ndk1::hash<void*>, true>, std::__ndk1::allocator<std::__ndk1::__hash_value_type<void*, bool> > >::__emplace_unique_key_args<void*, std::__ndk1::piecewise_construct_t const&, std::__ndk1::tuple<void* const&>, std::__ndk1::tuple<> >(void* const&, std::__ndk1::piecewise_construct_t const&, std::__ndk1::tuple<void* const&>, std::__ndk1::tuple<>)
PUBLIC 3608c 0 __udivti3
PUBLIC 36098 0 __udivmodti4
PUBLIC m 362e4 0 __eqtf2
PUBLIC 36384 0 __unordtf2
PUBLIC 363bc 0 fmt::v11::detail::write_loc(fmt::v11::basic_appender<char>, fmt::v11::loc_value, fmt::v11::format_specs const&, fmt::v11::detail::locale_ref)
PUBLIC 36650 0 fmt::v11::format_facet<std::__ndk1::locale>::~format_facet()
PUBLIC 366cc 0 fmt::v11::report_error(char const*)
PUBLIC 3671c 0 fmt::v11::format_error::runtime_error(char const*)
PUBLIC 36748 0 fmt::v11::format_facet<std::__ndk1::locale>::do_put(fmt::v11::basic_appender<char>, fmt::v11::loc_value, fmt::v11::format_specs const&) const
PUBLIC 36f08 0 fmt::v11::detail::loc_writer<char>::~loc_writer()
PUBLIC 36f6c 0 fmt::v11::detail::vformat_to<char>(fmt::v11::detail::buffer<char>&, fmt::v11::basic_string_view<char>, fmt::v11::detail::vformat_args<char>::type, fmt::v11::detail::locale_ref)
PUBLIC 374dc 0 fmt::v11::detail::is_printable(unsigned int)
PUBLIC 37704 0 fmt::v11::detail::dragonbox::to_decimal<float>(float)
PUBLIC 379e0 0 fmt::v11::detail::dragonbox::to_decimal<double>(double)
PUBLIC 37f1c 0 fmt::v11::basic_memory_buffer<char, (unsigned long)500, std::__ndk1::allocator<char> >::grow(fmt::v11::detail::buffer<char>&, unsigned long)
PUBLIC 37f94 0 fmt::v11::format_facet<std::__ndk1::locale>::~format_facet()
PUBLIC 38020 0 fmt::v11::format_error::~format_error()
PUBLIC 38044 0 fmt::v11::detail::copy_noinline<char, char const*, fmt::v11::basic_appender<char> >(char const*, char const*, fmt::v11::basic_appender<char>)
PUBLIC 38194 0 fmt::v11::detail::default_arg_formatter<char>::operator()<bool>(bool)
PUBLIC 381fc 0 fmt::v11::detail::default_arg_formatter<char>::operator()<char>(char)
PUBLIC 3828c 0 fmt::v11::detail::default_arg_formatter<char>::operator()<float>(float)
PUBLIC 38378 0 fmt::v11::detail::default_arg_formatter<char>::operator()<double>(double)
PUBLIC 38464 0 fmt::v11::detail::default_arg_formatter<char>::operator()<char const*>(char const*)
PUBLIC 384ac 0 fmt::v11::detail::default_arg_formatter<char>::operator()<void const*>(void const*)
PUBLIC 38544 0 _ZN3fmt3v116detail5writeIcNS0_14basic_appenderIcEEiTnNSt6__ndk19enable_ifIXaaaasr11is_integralIT1_EE5valuentsr3std7is_sameIS7_bEE5valuentsr3std7is_sameIS7_T_EE5valueEiE4typeELi0EEET0_SB_S7_
PUBLIC 387a4 0 fmt::v11::detail::copy_noinline<char, char*, fmt::v11::basic_appender<char> >(char*, char*, fmt::v11::basic_appender<char>)
PUBLIC 388f4 0 _ZN3fmt3v116detail5writeIcNS0_14basic_appenderIcEEjTnNSt6__ndk19enable_ifIXaaaasr11is_integralIT1_EE5valuentsr3std7is_sameIS7_bEE5valuentsr3std7is_sameIS7_T_EE5valueEiE4typeELi0EEET0_SB_S7_
PUBLIC 38ad4 0 _ZN3fmt3v116detail5writeIcNS0_14basic_appenderIcEExTnNSt6__ndk19enable_ifIXaaaasr11is_integralIT1_EE5valuentsr3std7is_sameIS7_bEE5valuentsr3std7is_sameIS7_T_EE5valueEiE4typeELi0EEET0_SB_S7_
PUBLIC 38d58 0 _ZN3fmt3v116detail5writeIcNS0_14basic_appenderIcEEyTnNSt6__ndk19enable_ifIXaaaasr11is_integralIT1_EE5valuentsr3std7is_sameIS7_bEE5valuentsr3std7is_sameIS7_T_EE5valueEiE4typeELi0EEET0_SB_S7_
PUBLIC 38f60 0 _ZN3fmt3v116detail5writeIcNS0_14basic_appenderIcEEnTnNSt6__ndk19enable_ifIXaaaasr11is_integralIT1_EE5valuentsr3std7is_sameIS7_bEE5valuentsr3std7is_sameIS7_T_EE5valueEiE4typeELi0EEET0_SB_S7_
PUBLIC 392c0 0 _ZN3fmt3v116detail5writeIcNS0_14basic_appenderIcEEoTnNSt6__ndk19enable_ifIXaaaasr11is_integralIT1_EE5valuentsr3std7is_sameIS7_bEE5valuentsr3std7is_sameIS7_T_EE5valueEiE4typeELi0EEET0_SB_S7_
PUBLIC 395d4 0 _ZN3fmt3v116detail5writeIcNS0_14basic_appenderIcEEbTnNSt6__ndk19enable_ifIXsr3std7is_sameIT1_bEE5valueEiE4typeELi0EEET0_SA_S7_RKNS0_12format_specsENS1_10locale_refE
PUBLIC 39888 0 fmt::v11::detail::write_int_noinline<char, fmt::v11::basic_appender<char>, unsigned int>(fmt::v11::basic_appender<char>, fmt::v11::detail::write_int_arg<unsigned int>, fmt::v11::format_specs const&, fmt::v11::detail::locale_ref)
PUBLIC 3a668 0 fmt::v11::detail::write_padded<char, (fmt::v11::align::type)1, fmt::v11::basic_appender<char>, fmt::v11::detail::write_char<char, fmt::v11::basic_appender<char> >(fmt::v11::basic_appender<char>, char, fmt::v11::format_specs const&)::{lambda(fmt::v11::basic_appender<char>&)#1}>(fmt::v11::basic_appender<char>, fmt::v11::format_specs const&, unsigned long, unsigned long, fmt::v11::detail::write_char<char, fmt::v11::basic_appender<char> >(fmt::v11::basic_appender<char>, char, fmt::v11::format_specs const&)::{lambda(fmt::v11::basic_appender<char>&)#1})
PUBLIC 3a8cc 0 fmt::v11::detail::write_padded<char, (fmt::v11::align::type)1, fmt::v11::basic_appender<char>, fmt::v11::detail::write_nonfinite<char, fmt::v11::basic_appender<char> >(fmt::v11::basic_appender<char>, bool, fmt::v11::format_specs, fmt::v11::sign::type)::{lambda(fmt::v11::basic_appender<char>&)#1}>(fmt::v11::basic_appender<char>, fmt::v11::format_specs const&, unsigned long, unsigned long, fmt::v11::detail::write_nonfinite<char, fmt::v11::basic_appender<char> >(fmt::v11::basic_appender<char>, bool, fmt::v11::format_specs, fmt::v11::sign::type)::{lambda(fmt::v11::basic_appender<char>&)#1})
PUBLIC 3ab24 0 fmt::v11::detail::do_write_float<char, fmt::v11::basic_appender<char>, fmt::v11::detail::dragonbox::decimal_fp<float>, fmt::v11::detail::digit_grouping<char> >(fmt::v11::basic_appender<char>, fmt::v11::detail::dragonbox::decimal_fp<float> const&, fmt::v11::format_specs const&, fmt::v11::detail::float_specs, fmt::v11::detail::locale_ref)
PUBLIC 3b7a8 0 fmt::v11::detail::do_write_float<char, fmt::v11::basic_appender<char>, fmt::v11::detail::dragonbox::decimal_fp<float>, fmt::v11::detail::digit_grouping<char> >(fmt::v11::basic_appender<char>, fmt::v11::detail::dragonbox::decimal_fp<float> const&, fmt::v11::format_specs const&, fmt::v11::detail::float_specs, fmt::v11::detail::locale_ref)::{lambda(fmt::v11::basic_appender<char>(fmt::v11::basic_appender<char>))#1}::operator() const
PUBLIC 3b8fc 0 fmt::v11::detail::digit_grouping<char>::digit_grouping(fmt::v11::detail::locale_ref, bool)
PUBLIC 3bb68 0 fmt::v11::detail::digit_grouping<char>::~digit_grouping()
PUBLIC 3bbac 0 fmt::v11::detail::write_exponent<char, fmt::v11::basic_appender<char> >(int, fmt::v11::basic_appender<char>)
PUBLIC 3bd7c 0 _ZN3fmt3v116detail17write_significandIcjTnNSt6__ndk19enable_ifIXsr3std11is_integralIT0_EE5valueEiE4typeELi0EEEPT_S9_S5_iiS8_
PUBLIC 3bef8 0 fmt::v11::detail::digit_grouping<char>::apply<fmt::v11::basic_appender<char>, char>(fmt::v11::basic_appender<char>, fmt::v11::basic_string_view<char>) const
PUBLIC 3c2b0 0 fmt::v11::basic_memory_buffer<int, (unsigned long)500, std::__ndk1::allocator<int> >::grow(fmt::v11::detail::buffer<int>&, unsigned long)
PUBLIC 3c350 0 fmt::v11::detail::do_write_float<char, fmt::v11::basic_appender<char>, fmt::v11::detail::dragonbox::decimal_fp<double>, fmt::v11::detail::digit_grouping<char> >(fmt::v11::basic_appender<char>, fmt::v11::detail::dragonbox::decimal_fp<double> const&, fmt::v11::format_specs const&, fmt::v11::detail::float_specs, fmt::v11::detail::locale_ref)
PUBLIC 3d010 0 fmt::v11::detail::do_write_float<char, fmt::v11::basic_appender<char>, fmt::v11::detail::dragonbox::decimal_fp<double>, fmt::v11::detail::digit_grouping<char> >(fmt::v11::basic_appender<char>, fmt::v11::detail::dragonbox::decimal_fp<double> const&, fmt::v11::format_specs const&, fmt::v11::detail::float_specs, fmt::v11::detail::locale_ref)::{lambda(fmt::v11::basic_appender<char>(fmt::v11::basic_appender<char>))#1}::operator() const
PUBLIC 3d168 0 _ZN3fmt3v116detail17write_significandIcmTnNSt6__ndk19enable_ifIXsr3std11is_integralIT0_EE5valueEiE4typeELi0EEEPT_S9_S5_iiS8_
PUBLIC 3d2f8 0 fmt::v11::detail::write_float<char, fmt::v11::basic_appender<char>, long double>(fmt::v11::basic_appender<char>, long double, fmt::v11::format_specs, fmt::v11::detail::locale_ref)
PUBLIC 3ddf0 0 fmt::v11::detail::write_padded<char, (fmt::v11::align::type)2, fmt::v11::basic_appender<char>, fmt::v11::detail::write_bytes<char, (fmt::v11::align::type)2, fmt::v11::basic_appender<char> >(fmt::v11::basic_appender<char>, fmt::v11::basic_string_view<char>, fmt::v11::format_specs const&)::{lambda(fmt::v11::basic_appender<char>&)#1}>(fmt::v11::basic_appender<char>, fmt::v11::format_specs const&, unsigned long, unsigned long, fmt::v11::detail::write_bytes<char, (fmt::v11::align::type)2, fmt::v11::basic_appender<char> >(fmt::v11::basic_appender<char>, fmt::v11::basic_string_view<char>, fmt::v11::format_specs const&)::{lambda(fmt::v11::basic_appender<char>&)#1})
PUBLIC 3dfe4 0 fmt::v11::detail::format_dragon(fmt::v11::detail::basic_fp<unsigned __int128>, unsigned int, int, fmt::v11::detail::buffer<char>&, int&)
PUBLIC 3f414 0 fmt::v11::detail::bigint::operator<<=(int)
PUBLIC 3f538 0 fmt::v11::detail::bigint::assign_pow10(int)
PUBLIC 3fc94 0 fmt::v11::detail::bigint::divmod_assign(fmt::v11::detail::bigint const&)
PUBLIC 3ffb4 0 fmt::v11::basic_memory_buffer<unsigned int, (unsigned long)32, std::__ndk1::allocator<unsigned int> >::grow(fmt::v11::detail::buffer<unsigned int>&, unsigned long)
PUBLIC 40054 0 fmt::v11::detail::do_write_float<char, fmt::v11::basic_appender<char>, fmt::v11::detail::big_decimal_fp, fmt::v11::detail::digit_grouping<char> >(fmt::v11::basic_appender<char>, fmt::v11::detail::big_decimal_fp const&, fmt::v11::format_specs const&, fmt::v11::detail::float_specs, fmt::v11::detail::locale_ref)
PUBLIC 40f34 0 fmt::v11::detail::do_write_float<char, fmt::v11::basic_appender<char>, fmt::v11::detail::big_decimal_fp, fmt::v11::detail::digit_grouping<char> >(fmt::v11::basic_appender<char>, fmt::v11::detail::big_decimal_fp const&, fmt::v11::format_specs const&, fmt::v11::detail::float_specs, fmt::v11::detail::locale_ref)::{lambda(fmt::v11::basic_appender<char>(fmt::v11::basic_appender<char>))#1}::operator() const
PUBLIC 41094 0 fmt::v11::detail::write_padded<char, (fmt::v11::align::type)2, fmt::v11::basic_appender<char>, fmt::v11::detail::write_ptr<char, fmt::v11::basic_appender<char>, unsigned long>(fmt::v11::basic_appender<char>, unsigned long, fmt::v11::format_specs const*)::{lambda(fmt::v11::basic_appender<char>&)#1}>(fmt::v11::basic_appender<char>, fmt::v11::format_specs const&, unsigned long, unsigned long, fmt::v11::detail::write_ptr<char, fmt::v11::basic_appender<char>, unsigned long>(fmt::v11::basic_appender<char>, unsigned long, fmt::v11::format_specs const*)::{lambda(fmt::v11::basic_appender<char>&)#1})
PUBLIC 412a8 0 fmt::v11::detail::parse_replacement_field<char, fmt::v11::detail::vformat_to<char>(fmt::v11::detail::buffer<char>&, fmt::v11::basic_string_view<char>, fmt::v11::detail::vformat_args<char>::type, fmt::v11::detail::locale_ref)::format_handler&>(char const*, char const*, fmt::v11::detail::vformat_to<char>(fmt::v11::detail::buffer<char>&, fmt::v11::basic_string_view<char>, fmt::v11::detail::vformat_args<char>::type, fmt::v11::detail::locale_ref)::format_handler&)
PUBLIC 4275c 0 fmt::v11::detail::write_int_noinline<char, fmt::v11::basic_appender<char>, unsigned long>(fmt::v11::basic_appender<char>, fmt::v11::detail::write_int_arg<unsigned long>, fmt::v11::format_specs const&, fmt::v11::detail::locale_ref)
PUBLIC 435bc 0 fmt::v11::detail::write_int_noinline<char, fmt::v11::basic_appender<char>, unsigned __int128>(fmt::v11::basic_appender<char>, fmt::v11::detail::write_int_arg<unsigned __int128>, fmt::v11::format_specs const&, fmt::v11::detail::locale_ref)
PUBLIC 4464c 0 _ZN3fmt3v116detail15format_hexfloatIdTnNSt6__ndk19enable_ifIXntsr16is_double_doubleIT_EE5valueEiE4typeELi0EEEvS5_NS0_12format_specsERNS1_6bufferIcEE
PUBLIC 44b6c 0 fmt::v11::detail::format_float<double>(double, int, fmt::v11::detail::float_specs, fmt::v11::detail::buffer<char>&)
PUBLIC 4550c 0 fmt::v11::detail::write_int<fmt::v11::basic_appender<char>, unsigned long, char>(fmt::v11::basic_appender<char>, unsigned long, unsigned int, fmt::v11::format_specs const&, fmt::v11::detail::digit_grouping<char> const&)
PUBLIC 45a88 0 fmt::v11::detail::write_int<fmt::v11::basic_appender<char>, unsigned __int128, char>(fmt::v11::basic_appender<char>, unsigned __int128, unsigned int, fmt::v11::format_specs const&, fmt::v11::detail::digit_grouping<char> const&)
PUBLIC 46110 0 <.plt ELF section in timestepyt.deltarune_textboxes.android64.so>
STACK CFI INIT 199f0 10 .cfa: sp 0 +
STACK CFI INIT 19a00 8 .cfa: sp 0 +
STACK CFI INIT 19a08 8 .cfa: sp 0 +
STACK CFI INIT 19a10 14 .cfa: sp 0 +
STACK CFI INIT 19a24 1c .cfa: sp 0 +
STACK CFI INIT 19a40 10 .cfa: sp 0 +
STACK CFI INIT 19a50 134 .cfa: sp 0 +
STACK CFI INIT 19b84 84 .cfa: sp 0 +
STACK CFI INIT 19c08 f4 .cfa: sp 0 +
STACK CFI INIT 19cfc a8 .cfa: sp 0 +
STACK CFI INIT 19da4 7c .cfa: sp 0 +
STACK CFI INIT 19e20 14 .cfa: sp 0 +
STACK CFI INIT 19e34 40 .cfa: sp 0 +
STACK CFI INIT 19e74 28 .cfa: sp 0 +
STACK CFI INIT 19e9c 190 .cfa: sp 0 +
STACK CFI INIT 1a02c 2c8 .cfa: sp 0 +
STACK CFI INIT 1a2f4 8 .cfa: sp 0 +
STACK CFI INIT 1a2fc 8 .cfa: sp 0 +
STACK CFI INIT 1a304 44 .cfa: sp 0 +
STACK CFI INIT 1a348 e8 .cfa: sp 0 +
STACK CFI INIT 1a430 e8 .cfa: sp 0 +
STACK CFI INIT 1a518 14 .cfa: sp 0 +
STACK CFI INIT 1a52c 10 .cfa: sp 0 +
STACK CFI INIT 1a53c 10 .cfa: sp 0 +
STACK CFI INIT 1a54c f0 .cfa: sp 0 +
STACK CFI INIT 1a63c 44 .cfa: sp 0 +
STACK CFI INIT 1a680 c .cfa: sp 0 +
STACK CFI INIT 1a68c c .cfa: sp 0 +
STACK CFI INIT 1a698 2c .cfa: sp 0 +
STACK CFI INIT 1a6c4 280 .cfa: sp 0 +
STACK CFI INIT 1a944 c .cfa: sp 0 +
STACK CFI INIT 1a950 120 .cfa: sp 0 +
STACK CFI INIT 1aa70 488 .cfa: sp 0 +
STACK CFI INIT 1aef8 c48 .cfa: sp 0 +
STACK CFI INIT 1bb40 134 .cfa: sp 0 +
STACK CFI INIT 1bc74 210 .cfa: sp 0 +
STACK CFI INIT 1be84 38c .cfa: sp 0 +
STACK CFI INIT 1c210 1c8 .cfa: sp 0 +
STACK CFI INIT 1c3d8 9bc .cfa: sp 0 +
STACK CFI INIT 1cd94 2d4 .cfa: sp 0 +
STACK CFI INIT 1d068 134 .cfa: sp 0 +
STACK CFI INIT 1d19c 120 .cfa: sp 0 +
STACK CFI INIT 1d2bc 1c8 .cfa: sp 0 +
STACK CFI INIT 1d484 168 .cfa: sp 0 +
STACK CFI INIT 1d5ec fc .cfa: sp 0 +
STACK CFI INIT 1d6e8 30 .cfa: sp 0 +
STACK CFI INIT 1d850 30 .cfa: sp 0 +
STACK CFI INIT 1d880 98 .cfa: sp 0 +
STACK CFI INIT 1d918 59c .cfa: sp 0 +
STACK CFI INIT 1deb4 8c .cfa: sp 0 +
STACK CFI INIT 1df40 30 .cfa: sp 0 +
STACK CFI INIT 1df70 9c .cfa: sp 0 +
STACK CFI 1df74 .cfa: sp 48 +
STACK CFI 1df80 .cfa: x29 48 + x19: .cfa -8 + ^ x20: .cfa -16 + ^ x21: .cfa -24 + ^ x22: .cfa -32 + ^ .ra: .cfa -40 + ^ x29: .cfa -48 + ^
STACK CFI 1dfb4 .cfa: sp 48 +
STACK CFI 1dfc0 .cfa: sp 0 +
STACK CFI 1dfc4 .cfa: x29 48 +
STACK CFI 1dff4 .cfa: sp 48 +
STACK CFI 1e000 .cfa: sp 0 +
STACK CFI 1e004 .cfa: x29 48 +
STACK CFI INIT 1f744 54 .cfa: sp 0 +
STACK CFI INIT 1f7b8 9c .cfa: sp 0 +
STACK CFI 1f7bc .cfa: sp 32 +
STACK CFI 1f7c4 .cfa: x29 32 + x19: .cfa -8 + ^ x20: .cfa -16 + ^ .ra: .cfa -24 + ^ x29: .cfa -32 + ^
STACK CFI 1f7ec .cfa: sp 32 +
STACK CFI 1f7f4 .cfa: sp 0 +
STACK CFI 1f7f8 .cfa: x29 32 +
STACK CFI 1f824 .cfa: sp 32 +
STACK CFI 1f82c .cfa: sp 0 +
STACK CFI 1f830 .cfa: x29 32 +
STACK CFI 1f834 .cfa: sp 32 +
STACK CFI 1f83c .cfa: sp 0 +
STACK CFI 1f840 .cfa: x29 32 +
STACK CFI 1f848 .cfa: sp 32 +
STACK CFI 1f850 .cfa: sp 0 +
STACK CFI INIT 20504 174 .cfa: sp 0 +
STACK CFI 20508 .cfa: sp 96 +
STACK CFI 20520 .cfa: x29 80 + x19: .cfa -8 + ^ x20: .cfa -16 + ^ x21: .cfa -24 + ^ x22: .cfa -32 + ^ x23: .cfa -40 + ^ x24: .cfa -48 + ^ x25: .cfa -64 + ^ .ra: .cfa -72 + ^ x29: .cfa -80 + ^
STACK CFI 20658 .cfa: sp 96 +
STACK CFI 20670 .cfa: sp 0 +
STACK CFI 20674 .cfa: x29 80 +
STACK CFI INIT 20678 130 .cfa: sp 0 +
STACK CFI 2067c .cfa: sp 48 +
STACK CFI 20688 .cfa: x29 48 + x19: .cfa -8 + ^ x20: .cfa -16 + ^ x21: .cfa -24 + ^ x22: .cfa -32 + ^ .ra: .cfa -40 + ^ x29: .cfa -48 + ^
STACK CFI 206b0 .cfa: sp 48 +
STACK CFI 206bc .cfa: sp 0 +
STACK CFI 206c0 .cfa: x29 48 +
STACK CFI 20798 .cfa: sp 48 +
STACK CFI 207a4 .cfa: sp 0 +
STACK CFI INIT 221c0 3c .cfa: sp 0 +
STACK CFI 221c4 .cfa: sp 32 +
STACK CFI 221cc .cfa: x29 32 + x19: .cfa -16 + ^ .ra: .cfa -24 + ^ x29: .cfa -32 + ^
STACK CFI 221d8 .cfa: sp 32 +
STACK CFI 221e0 .cfa: sp 0 +
STACK CFI 221e4 .cfa: x29 32 +
STACK CFI 221f0 .cfa: sp 32 +
STACK CFI 221f8 .cfa: sp 0 +
STACK CFI INIT 22460 8c .cfa: sp 0 +
STACK CFI 22464 .cfa: sp 48 +
STACK CFI 22470 .cfa: x29 48 + x19: .cfa -8 + ^ x20: .cfa -16 + ^ x21: .cfa -32 + ^ .ra: .cfa -40 + ^ x29: .cfa -48 + ^
STACK CFI 22488 .cfa: sp 48 +
STACK CFI 22494 .cfa: sp 0 +
STACK CFI 22498 .cfa: x29 48 +
STACK CFI 224dc .cfa: sp 48 +
STACK CFI 224e8 .cfa: sp 0 +
STACK CFI INIT 224ec 8 .cfa: sp 0 +
STACK CFI INIT 224f4 4 .cfa: sp 0 +
STACK CFI INIT 224f8 8 .cfa: sp 0 +
STACK CFI INIT 22500 4 .cfa: sp 0 +
STACK CFI INIT 22504 4 .cfa: sp 0 +
STACK CFI INIT 22508 4 .cfa: sp 0 +
STACK CFI INIT 2250c 4 .cfa: sp 0 +
STACK CFI INIT 22510 4 .cfa: sp 0 +
STACK CFI INIT 22514 8 .cfa: sp 0 +
STACK CFI INIT 2251c 60 .cfa: sp 0 +
STACK CFI 2252c .cfa: sp 32 +
STACK CFI 22534 .cfa: x29 32 + x19: .cfa -16 + ^ .ra: .cfa -24 + ^ x29: .cfa -32 + ^
STACK CFI 2256c .cfa: sp 32 +
STACK CFI 22574 .cfa: sp 0 +
STACK CFI INIT 2257c 1c .cfa: sp 0 +
STACK CFI INIT 22598 60 .cfa: sp 0 +
STACK CFI 225a8 .cfa: sp 32 +
STACK CFI 225b0 .cfa: x29 32 + x19: .cfa -16 + ^ .ra: .cfa -24 + ^ x29: .cfa -32 + ^
STACK CFI 225e8 .cfa: sp 32 +
STACK CFI 225f0 .cfa: sp 0 +
STACK CFI INIT 225f8 1c .cfa: sp 0 +
STACK CFI INIT 22b98 4 .cfa: sp 0 +
STACK CFI INIT 22b9c 14 .cfa: sp 0 +
STACK CFI 22ba0 .cfa: sp 16 +
STACK CFI 22ba4 .cfa: x29 16 + .ra: .cfa -8 + ^ x29: .cfa -16 + ^
STACK CFI INIT 22bb0 10 .cfa: sp 0 +
STACK CFI 22bb4 .cfa: sp 16 +
STACK CFI 22bb8 .cfa: x29 16 + .ra: .cfa -8 + ^ x29: .cfa -16 + ^
STACK CFI INIT 22c10 30 .cfa: sp 0 +
STACK CFI 22c14 .cfa: sp 32 +
STACK CFI 22c1c .cfa: x29 32 + x19: .cfa -16 + ^ .ra: .cfa -24 + ^ x29: .cfa -32 + ^
STACK CFI 22c34 .cfa: sp 32 +
STACK CFI 22c3c .cfa: sp 0 +
STACK CFI INIT 22c40 34 .cfa: sp 0 +
STACK CFI 22c44 .cfa: sp 32 +
STACK CFI 22c4c .cfa: x29 32 + x19: .cfa -16 + ^ .ra: .cfa -24 + ^ x29: .cfa -32 + ^
STACK CFI INIT 22ea0 14 .cfa: sp 0 +
STACK CFI 22ea4 .cfa: sp 16 +
STACK CFI 22ea8 .cfa: x29 16 + .ra: .cfa -8 + ^ x29: .cfa -16 + ^
STACK CFI INIT 22eb4 14 .cfa: sp 0 +
STACK CFI 22eb8 .cfa: sp 16 +
STACK CFI 22ebc .cfa: x29 16 + .ra: .cfa -8 + ^ x29: .cfa -16 + ^
STACK CFI INIT 22f18 30 .cfa: sp 0 +
STACK CFI 22f1c .cfa: sp 32 +
STACK CFI 22f24 .cfa: x29 32 + x19: .cfa -16 + ^ .ra: .cfa -24 + ^ x29: .cfa -32 + ^
STACK CFI 22f3c .cfa: sp 32 +
STACK CFI 22f44 .cfa: sp 0 +
STACK CFI INIT 22f48 14 .cfa: sp 0 +
STACK CFI 22f4c .cfa: sp 16 +
STACK CFI 22f50 .cfa: x29 16 + .ra: .cfa -8 + ^ x29: .cfa -16 + ^
STACK CFI INIT 22f5c 1b8 .cfa: sp 0 +
STACK CFI 22f60 .cfa: sp 48 +
STACK CFI 22f6c .cfa: x29 48 + x19: .cfa -8 + ^ x20: .cfa -16 + ^ x21: .cfa -32 + ^ .ra: .cfa -40 + ^ x29: .cfa -48 + ^
STACK CFI 230e0 .cfa: sp 48 +
STACK CFI 230ec .cfa: sp 0 +
STACK CFI 230f0 .cfa: x29 48 +
STACK CFI 23104 .cfa: sp 48 +
STACK CFI 23110 .cfa: sp 0 +
STACK CFI INIT 23114 7c .cfa: sp 0 +
STACK CFI 23118 .cfa: sp 48 +
STACK CFI 23124 .cfa: x29 48 + x19: .cfa -8 + ^ x20: .cfa -16 + ^ x21: .cfa -32 + ^ .ra: .cfa -40 + ^ x29: .cfa -48 + ^
STACK CFI 23170 .cfa: sp 48 +
STACK CFI 2317c .cfa: sp 0 +
STACK CFI 23180 .cfa: sp 48 +
STACK CFI 2318c .cfa: sp 0 +
STACK CFI INIT 23190 4 .cfa: sp 0 +
STACK CFI INIT 23194 4 .cfa: sp 0 +
STACK CFI INIT 23198 38 .cfa: sp 0 +
STACK CFI 2319c .cfa: sp 32 +
STACK CFI 231a4 .cfa: x29 32 + x19: .cfa -16 + ^ .ra: .cfa -24 + ^ x29: .cfa -32 + ^
STACK CFI 231c4 .cfa: sp 32 +
STACK CFI 231cc .cfa: sp 0 +
STACK CFI INIT 231d0 18 .cfa: sp 0 +
STACK CFI INIT 231e8 4 .cfa: sp 0 +
STACK CFI INIT 231ec 4 .cfa: sp 0 +
STACK CFI INIT 231f0 10 .cfa: sp 0 +
STACK CFI INIT 23200 1c .cfa: sp 0 +
STACK CFI INIT 2321c c .cfa: sp 0 +
STACK CFI INIT 23540 50 .cfa: sp 0 +
STACK CFI 23544 .cfa: sp 32 +
STACK CFI 2354c .cfa: x29 32 + x19: .cfa -16 + ^ .ra: .cfa -24 + ^ x29: .cfa -32 + ^
STACK CFI 23564 .cfa: sp 32 +
STACK CFI 2356c .cfa: sp 0 +
STACK CFI 23570 .cfa: x29 32 +
STACK CFI 23584 .cfa: sp 32 +
STACK CFI 2358c .cfa: sp 0 +
STACK CFI INIT 23590 104 .cfa: sp 0 +
STACK CFI 23594 .cfa: sp 64 +
STACK CFI 235a4 .cfa: x29 64 + x19: .cfa -8 + ^ x20: .cfa -16 + ^ x21: .cfa -24 + ^ x22: .cfa -32 + ^ x23: .cfa -48 + ^ .ra: .cfa -56 + ^ x29: .cfa -64 + ^
STACK CFI 23600 .cfa: sp 64 +
STACK CFI 23610 .cfa: sp 0 +
STACK CFI 23614 .cfa: x29 64 +
STACK CFI 23630 .cfa: sp 64 +
STACK CFI 23640 .cfa: sp 0 +
STACK CFI 23644 .cfa: x29 64 +
STACK CFI 23680 .cfa: sp 64 +
STACK CFI 23690 .cfa: sp 0 +
STACK CFI INIT 23694 14 .cfa: sp 0 +
STACK CFI 23698 .cfa: sp 16 +
STACK CFI 2369c .cfa: x29 16 + .ra: .cfa -8 + ^ x29: .cfa -16 + ^
STACK CFI INIT 236a8 128 .cfa: sp 0 +
STACK CFI 236ac .cfa: sp 80 +
STACK CFI 236c0 .cfa: x29 80 + x19: .cfa -8 + ^ x20: .cfa -16 + ^ x21: .cfa -24 + ^ x22: .cfa -32 + ^ x23: .cfa -40 + ^ x24: .cfa -48 + ^ x25: .cfa -64 + ^ .ra: .cfa -72 + ^ x29: .cfa -80 + ^
STACK CFI 237b0 .cfa: sp 80 +
STACK CFI 237c4 .cfa: sp 0 +
STACK CFI 237c8 .cfa: x29 80 +
STACK CFI INIT 237d0 80 .cfa: sp 0 +
STACK CFI 237d4 .cfa: sp 48 +
STACK CFI 237e0 .cfa: x29 48 + x19: .cfa -8 + ^ x20: .cfa -16 + ^ x21: .cfa -24 + ^ x22: .cfa -32 + ^ .ra: .cfa -40 + ^ x29: .cfa -48 + ^
STACK CFI 237f8 .cfa: sp 48 +
STACK CFI 23804 .cfa: sp 0 +
STACK CFI 23808 .cfa: x29 48 +
STACK CFI 23838 .cfa: sp 48 +
STACK CFI 23844 .cfa: sp 0 +
STACK CFI 23848 .cfa: x29 48 +
STACK CFI INIT 23850 ac .cfa: sp 0 +
STACK CFI 23854 .cfa: sp 64 +
STACK CFI 23864 .cfa: x29 64 + x19: .cfa -8 + ^ x20: .cfa -16 + ^ x21: .cfa -24 + ^ x22: .cfa -32 + ^ x23: .cfa -48 + ^ .ra: .cfa -56 + ^ x29: .cfa -64 + ^
STACK CFI 238e0 .cfa: sp 64 +
STACK CFI 238f0 .cfa: sp 0 +
STACK CFI 238f4 .cfa: x29 64 +
STACK CFI INIT 238fc 110 .cfa: sp 0 +
STACK CFI 23900 .cfa: sp 64 +
STACK CFI 23910 .cfa: x29 64 + x19: .cfa -8 + ^ x20: .cfa -16 + ^ x21: .cfa -24 + ^ x22: .cfa -32 + ^ x23: .cfa -40 + ^ x24: .cfa -48 + ^ .ra: .cfa -56 + ^ x29: .cfa -64 + ^
STACK CFI 239f0 .cfa: sp 64 +
STACK CFI 23a00 .cfa: sp 0 +
STACK CFI 23a04 .cfa: x29 64 +
STACK CFI INIT 24828 50 .cfa: sp 0 +
STACK CFI 2482c .cfa: sp 32 +
STACK CFI 24834 .cfa: x29 32 + x19: .cfa -16 + ^ .ra: .cfa -24 + ^ x29: .cfa -32 + ^
STACK CFI 2484c .cfa: sp 32 +
STACK CFI 24854 .cfa: sp 0 +
STACK CFI 24858 .cfa: x29 32 +
STACK CFI 2486c .cfa: sp 32 +
STACK CFI 24874 .cfa: sp 0 +
STACK CFI INIT 248ec 4 .cfa: sp 0 +
STACK CFI INIT 24a44 34 .cfa: sp 0 +
STACK CFI 24a48 .cfa: sp 16 +
STACK CFI 24a4c .cfa: x29 16 + .ra: .cfa -8 + ^ x29: .cfa -16 + ^
STACK CFI INIT 24ba4 80 .cfa: sp 0 +
STACK CFI 24ba8 .cfa: sp 48 +
STACK CFI 24bb4 .cfa: x29 48 + x19: .cfa -8 + ^ x20: .cfa -16 + ^ x21: .cfa -32 + ^ .ra: .cfa -40 + ^ x29: .cfa -48 + ^
STACK CFI 24c14 .cfa: sp 48 +
STACK CFI 24c20 .cfa: sp 0 +
STACK CFI INIT 24c24 24 .cfa: sp 0 +
STACK CFI 24c28 .cfa: sp 32 +
STACK CFI 24c30 .cfa: x29 32 + x19: .cfa -16 + ^ .ra: .cfa -24 + ^ x29: .cfa -32 + ^
STACK CFI 24c3c .cfa: sp 32 +
STACK CFI 24c44 .cfa: sp 0 +
STACK CFI INIT 25140 148 .cfa: sp 0 +
STACK CFI 25144 .cfa: sp 48 +
STACK CFI 25150 .cfa: x29 48 + x19: .cfa -8 + ^ x20: .cfa -16 + ^ x21: .cfa -32 + ^ .ra: .cfa -40 + ^ x29: .cfa -48 + ^
STACK CFI 25278 .cfa: sp 48 +
STACK CFI 25284 .cfa: sp 0 +
STACK CFI INIT 254b0 68 .cfa: sp 0 +
STACK CFI 254b4 .cfa: sp 32 +
STACK CFI 254bc .cfa: x29 32 + x19: .cfa -8 + ^ x20: .cfa -16 + ^ .ra: .cfa -24 + ^ x29: .cfa -32 + ^
STACK CFI 254d4 .cfa: sp 32 +
STACK CFI 254dc .cfa: sp 0 +
STACK CFI 254e0 .cfa: x29 32 +
STACK CFI 2550c .cfa: sp 32 +
STACK CFI 25514 .cfa: sp 0 +
STACK CFI INIT 25518 14 .cfa: sp 0 +
STACK CFI 2551c .cfa: sp 16 +
STACK CFI 25520 .cfa: x29 16 + .ra: .cfa -8 + ^ x29: .cfa -16 + ^
STACK CFI INIT 2552c 4 .cfa: sp 0 +
STACK CFI INIT 25530 14 .cfa: sp 0 +
STACK CFI INIT 25544 120 .cfa: sp 0 +
STACK CFI 25548 .cfa: sp 64 +
STACK CFI 25558 .cfa: x29 64 + x19: .cfa -8 + ^ x20: .cfa -16 + ^ x21: .cfa -24 + ^ x22: .cfa -32 + ^ x23: .cfa -40 + ^ x24: .cfa -48 + ^ .ra: .cfa -56 + ^ x29: .cfa -64 + ^
STACK CFI 25650 .cfa: sp 64 +
STACK CFI 25660 .cfa: sp 0 +
STACK CFI INIT 25664 d4 .cfa: sp 0 +
STACK CFI 25668 .cfa: sp 48 +
STACK CFI 25674 .cfa: x29 48 + x19: .cfa -8 + ^ x20: .cfa -16 + ^ x21: .cfa -32 + ^ .ra: .cfa -40 + ^ x29: .cfa -48 + ^
STACK CFI 25704 .cfa: sp 48 +
STACK CFI 25710 .cfa: sp 0 +
STACK CFI 25714 .cfa: x29 48 +
STACK CFI INIT 25738 3c8 .cfa: sp 0 +
STACK CFI INIT 25b00 8c .cfa: sp 0 +
STACK CFI 25b08 .cfa: sp 32 +
STACK CFI 25b10 .cfa: x29 32 + x19: .cfa -8 + ^ x20: .cfa -16 + ^ .ra: .cfa -24 + ^ x29: .cfa -32 + ^
STACK CFI 25b58 .cfa: sp 32 +
STACK CFI 25b60 .cfa: sp 0 +
STACK CFI 25b68 .cfa: x29 32 +
STACK CFI INIT 25ca4 4 .cfa: sp 0 +
STACK CFI INIT 25ddc 4 .cfa: sp 0 +
STACK CFI INIT 26168 74 .cfa: sp 0 +
STACK CFI 2616c .cfa: sp 32 +
STACK CFI 26174 .cfa: x29 32 + x19: .cfa -8 + ^ x20: .cfa -16 + ^ .ra: .cfa -24 + ^ x29: .cfa -32 + ^
STACK CFI 26194 .cfa: sp 32 +
STACK CFI 2619c .cfa: sp 0 +
STACK CFI 261a0 .cfa: x29 32 +
STACK CFI 261c0 .cfa: sp 32 +
STACK CFI 261c8 .cfa: sp 0 +
STACK CFI 261cc .cfa: x29 32 +
STACK CFI 261d0 .cfa: sp 32 +
STACK CFI 261d8 .cfa: sp 0 +
STACK CFI INIT 261dc 4 .cfa: sp 0 +
STACK CFI INIT 262cc 80 .cfa: sp 0 +
STACK CFI 262d0 .cfa: sp 32 +
STACK CFI 262d8 .cfa: x29 32 + x19: .cfa -16 + ^ .ra: .cfa -24 + ^ x29: .cfa -32 + ^
STACK CFI 26340 .cfa: sp 32 +
STACK CFI 26348 .cfa: sp 0 +
STACK CFI INIT 26454 50 .cfa: sp 0 +
STACK CFI 26458 .cfa: sp 32 +
STACK CFI 26460 .cfa: x29 32 + x19: .cfa -16 + ^ .ra: .cfa -24 + ^ x29: .cfa -32 + ^
STACK CFI 26478 .cfa: sp 32 +
STACK CFI 26480 .cfa: sp 0 +
STACK CFI 26484 .cfa: x29 32 +
STACK CFI 26498 .cfa: sp 32 +
STACK CFI 264a0 .cfa: sp 0 +
STACK CFI INIT 264a4 64 .cfa: sp 0 +
STACK CFI 264a8 .cfa: sp 32 +
STACK CFI 264b0 .cfa: x29 32 + x19: .cfa -16 + ^ .ra: .cfa -24 + ^ x29: .cfa -32 + ^
STACK CFI 264dc .cfa: sp 32 +
STACK CFI 264e4 .cfa: sp 0 +
STACK CFI 264e8 .cfa: x29 32 +
STACK CFI 264fc .cfa: sp 32 +
STACK CFI 26504 .cfa: sp 0 +
STACK CFI INIT 26508 14 .cfa: sp 0 +
STACK CFI 2650c .cfa: sp 16 +
STACK CFI 26510 .cfa: x29 16 + .ra: .cfa -8 + ^ x29: .cfa -16 + ^
STACK CFI INIT 2651c 178 .cfa: sp 0 +
STACK CFI 26520 .cfa: sp 80 +
STACK CFI 26534 .cfa: x29 80 + x19: .cfa -8 + ^ x20: .cfa -16 + ^ x21: .cfa -24 + ^ x22: .cfa -32 + ^ x23: .cfa -40 + ^ x24: .cfa -48 + ^ x25: .cfa -56 + ^ x26: .cfa -64 + ^ .ra: .cfa -72 + ^ x29: .cfa -80 + ^
STACK CFI 2667c .cfa: sp 80 +
STACK CFI 26690 .cfa: sp 0 +
STACK CFI INIT 26694 1b0 .cfa: sp 0 +
STACK CFI INIT 28068 4 .cfa: sp 0 +
STACK CFI INIT 28184 8 .cfa: sp 0 +
STACK CFI INIT 28310 4 .cfa: sp 0 +
STACK CFI INIT 28498 30 .cfa: sp 0 +
STACK CFI 2849c .cfa: sp 32 +
STACK CFI 284a4 .cfa: x29 32 + x19: .cfa -16 + ^ .ra: .cfa -24 + ^ x29: .cfa -32 + ^
STACK CFI 284bc .cfa: sp 32 +
STACK CFI 284c4 .cfa: sp 0 +
STACK CFI INIT 285fc 10 .cfa: sp 0 +
STACK CFI INIT 28724 4 .cfa: sp 0 +
STACK CFI INIT 28814 8c .cfa: sp 0 +
STACK CFI 28818 .cfa: sp 32 +
STACK CFI 28820 .cfa: x29 32 + x19: .cfa -16 + ^ .ra: .cfa -24 + ^ x29: .cfa -32 + ^
STACK CFI 28894 .cfa: sp 32 +
STACK CFI 2889c .cfa: sp 0 +
STACK CFI INIT 291bc 5c .cfa: sp 0 +
STACK CFI 291c0 .cfa: sp 32 +
STACK CFI 291c8 .cfa: x29 32 + x19: .cfa -16 + ^ .ra: .cfa -24 + ^ x29: .cfa -32 + ^
STACK CFI 29200 .cfa: sp 32 +
STACK CFI 29208 .cfa: sp 0 +
STACK CFI 2920c .cfa: sp 32 +
STACK CFI 29214 .cfa: sp 0 +
STACK CFI INIT 29218 44c .cfa: sp 0 +
STACK CFI INIT 29664 1ac .cfa: sp 0 +
STACK CFI 29668 .cfa: sp 32 +
STACK CFI 29670 .cfa: x29 32 + x19: .cfa -8 + ^ x20: .cfa -16 + ^ .ra: .cfa -24 + ^ x29: .cfa -32 + ^
STACK CFI 29760 .cfa: sp 32 +
STACK CFI 29768 .cfa: sp 0 +
STACK CFI 2976c .cfa: x29 32 +
STACK CFI INIT 29a64 4 .cfa: sp 0 +
STACK CFI INIT 29a68 40 .cfa: sp 0 +
STACK CFI 29a6c .cfa: sp 32 +
STACK CFI 29a74 .cfa: x29 32 + x19: .cfa -16 + ^ .ra: .cfa -24 + ^ x29: .cfa -32 + ^
STACK CFI 29a9c .cfa: sp 32 +
STACK CFI 29aa4 .cfa: sp 0 +
STACK CFI INIT 29aa8 20 .cfa: sp 0 +
STACK CFI INIT 29ac8 4 .cfa: sp 0 +
STACK CFI INIT 29acc 4 .cfa: sp 0 +
STACK CFI INIT 29ad0 164 .cfa: sp 0 +
STACK CFI 29ad4 .cfa: sp 80 +
STACK CFI 29ae8 .cfa: x29 48 + x19: .cfa -8 + ^ x20: .cfa -16 + ^ x21: .cfa -24 + ^ x22: .cfa -32 + ^ .ra: .cfa -40 + ^ x29: .cfa -48 + ^ v8: .cfa -64 + ^
STACK CFI 29b1c .cfa: sp 80 +
STACK CFI 29b30 .cfa: sp 0 +
STACK CFI 29b34 .cfa: x29 48 +
STACK CFI INIT 29c34 1c .cfa: sp 0 +
STACK CFI INIT 29c50 c .cfa: sp 0 +
STACK CFI INIT 29c5c 4 .cfa: sp 0 +
STACK CFI INIT 29c60 4 .cfa: sp 0 +
STACK CFI INIT 29c64 34 .cfa: sp 0 +
STACK CFI 29c68 .cfa: sp 32 +
STACK CFI 29c70 .cfa: x29 32 + x19: .cfa -16 + ^ .ra: .cfa -24 + ^ x29: .cfa -32 + ^
STACK CFI 29c8c .cfa: sp 32 +
STACK CFI 29c94 .cfa: sp 0 +
STACK CFI INIT 29c98 14 .cfa: sp 0 +
STACK CFI INIT 29cac 4 .cfa: sp 0 +
STACK CFI INIT 29cb0 4 .cfa: sp 0 +
STACK CFI INIT 29cb4 158 .cfa: sp 0 +
STACK CFI 29cb8 .cfa: sp 80 +
STACK CFI 29ccc .cfa: x29 48 + x19: .cfa -8 + ^ x20: .cfa -16 + ^ x21: .cfa -24 + ^ x22: .cfa -32 + ^ .ra: .cfa -40 + ^ x29: .cfa -48 + ^ v8: .cfa -64 + ^
STACK CFI 29d28 .cfa: sp 80 +
STACK CFI 29d3c .cfa: sp 0 +
STACK CFI 29d40 .cfa: x29 48 +
STACK CFI INIT 29e0c 1c .cfa: sp 0 +
STACK CFI INIT 29e28 c .cfa: sp 0 +
STACK CFI INIT 29e34 4 .cfa: sp 0 +
STACK CFI INIT 29fac 6c .cfa: sp 0 +
STACK CFI 29fb0 .cfa: sp 32 +
STACK CFI 29fb8 .cfa: x29 32 + x19: .cfa -16 + ^ .ra: .cfa -24 + ^ x29: .cfa -32 + ^
STACK CFI 2a00c .cfa: sp 32 +
STACK CFI 2a014 .cfa: sp 0 +
STACK CFI INIT 2a018 74 .cfa: sp 0 +
STACK CFI 2a01c .cfa: sp 32 +
STACK CFI 2a024 .cfa: x29 32 + x19: .cfa -16 + ^ .ra: .cfa -24 + ^ x29: .cfa -32 + ^
STACK CFI 2a080 .cfa: sp 32 +
STACK CFI 2a088 .cfa: sp 0 +
STACK CFI INIT 2a08c 4 .cfa: sp 0 +
STACK CFI INIT 2a090 34 .cfa: sp 0 +
STACK CFI 2a094 .cfa: sp 32 +
STACK CFI 2a09c .cfa: x29 32 + x19: .cfa -16 + ^ .ra: .cfa -24 + ^ x29: .cfa -32 + ^
STACK CFI 2a0b8 .cfa: sp 32 +
STACK CFI 2a0c0 .cfa: sp 0 +
STACK CFI INIT 2a0c4 14 .cfa: sp 0 +
STACK CFI INIT 2a0d8 4 .cfa: sp 0 +
STACK CFI INIT 2a0dc 4 .cfa: sp 0 +
STACK CFI INIT 2a0e0 244 .cfa: sp 0 +
STACK CFI 2a0e4 .cfa: sp 80 +
STACK CFI 2a0f8 .cfa: x29 64 + x19: .cfa -8 + ^ x20: .cfa -16 + ^ x21: .cfa -24 + ^ x22: .cfa -32 + ^ x23: .cfa -40 + ^ x24: .cfa -48 + ^ .ra: .cfa -56 + ^ x29: .cfa -64 + ^
STACK CFI 2a1f8 .cfa: sp 80 +
STACK CFI 2a20c .cfa: sp 0 +
STACK CFI 2a210 .cfa: x29 64 +
STACK CFI INIT 2a324 1c .cfa: sp 0 +
STACK CFI INIT 2a340 c .cfa: sp 0 +
STACK CFI INIT 2a34c 4 .cfa: sp 0 +
STACK CFI INIT 2a350 34 .cfa: sp 0 +
STACK CFI 2a354 .cfa: sp 32 +
STACK CFI 2a35c .cfa: x29 32 + x19: .cfa -16 + ^ .ra: .cfa -24 + ^ x29: .cfa -32 + ^
STACK CFI 2a378 .cfa: sp 32 +
STACK CFI 2a380 .cfa: sp 0 +
STACK CFI INIT 2a384 14 .cfa: sp 0 +
STACK CFI INIT 2a398 4 .cfa: sp 0 +
STACK CFI INIT 2a39c 4 .cfa: sp 0 +
STACK CFI INIT 2a3a0 224 .cfa: sp 0 +
STACK CFI 2a3a4 .cfa: sp 80 +
STACK CFI 2a3b8 .cfa: x29 64 + x19: .cfa -8 + ^ x20: .cfa -16 + ^ x21: .cfa -24 + ^ x22: .cfa -32 + ^ x23: .cfa -40 + ^ x24: .cfa -48 + ^ .ra: .cfa -56 + ^ x29: .cfa -64 + ^
STACK CFI 2a4b8 .cfa: sp 80 +
STACK CFI 2a4cc .cfa: sp 0 +
STACK CFI 2a4d0 .cfa: x29 64 +
STACK CFI INIT 2a5c4 1c .cfa: sp 0 +
STACK CFI INIT 2a5e0 c .cfa: sp 0 +
STACK CFI INIT 2a5ec 4 .cfa: sp 0 +
STACK CFI INIT 2a5f0 34 .cfa: sp 0 +
STACK CFI 2a5f4 .cfa: sp 32 +
STACK CFI 2a5fc .cfa: x29 32 + x19: .cfa -16 + ^ .ra: .cfa -24 + ^ x29: .cfa -32 + ^
STACK CFI 2a618 .cfa: sp 32 +
STACK CFI 2a620 .cfa: sp 0 +
STACK CFI INIT 2a624 14 .cfa: sp 0 +
STACK CFI INIT 2a638 4 .cfa: sp 0 +
STACK CFI INIT 2a63c 4 .cfa: sp 0 +
STACK CFI INIT 2a640 54 .cfa: sp 0 +
STACK CFI 2a644 .cfa: sp 32 +
STACK CFI 2a64c .cfa: x29 32 + x19: .cfa -16 + ^ .ra: .cfa -24 + ^ x29: .cfa -32 + ^
STACK CFI 2a678 .cfa: sp 32 +
STACK CFI 2a680 .cfa: sp 0 +
STACK CFI 2a684 .cfa: x29 32 +
STACK CFI 2a688 .cfa: sp 32 +
STACK CFI 2a690 .cfa: sp 0 +
STACK CFI INIT 2a694 1c .cfa: sp 0 +
STACK CFI INIT 2a6b0 c .cfa: sp 0 +
STACK CFI INIT 2a6bc 4 .cfa: sp 0 +
STACK CFI INIT 2a6c0 4 .cfa: sp 0 +
STACK CFI INIT 2a6c4 34 .cfa: sp 0 +
STACK CFI 2a6c8 .cfa: sp 32 +
STACK CFI 2a6d0 .cfa: x29 32 + x19: .cfa -16 + ^ .ra: .cfa -24 + ^ x29: .cfa -32 + ^
STACK CFI 2a6ec .cfa: sp 32 +
STACK CFI 2a6f4 .cfa: sp 0 +
STACK CFI INIT 2a6f8 14 .cfa: sp 0 +
STACK CFI INIT 2a70c 4 .cfa: sp 0 +
STACK CFI INIT 2a710 4 .cfa: sp 0 +
STACK CFI INIT 2a714 44 .cfa: sp 0 +
STACK CFI 2a718 .cfa: sp 32 +
STACK CFI 2a720 .cfa: x29 32 + x19: .cfa -16 + ^ .ra: .cfa -24 + ^ x29: .cfa -32 + ^
STACK CFI 2a73c .cfa: sp 32 +
STACK CFI 2a744 .cfa: sp 0 +
STACK CFI 2a748 .cfa: x29 32 +
STACK CFI 2a74c .cfa: sp 32 +
STACK CFI 2a754 .cfa: sp 0 +
STACK CFI INIT 2a758 1c .cfa: sp 0 +
STACK CFI INIT 2a774 c .cfa: sp 0 +
STACK CFI INIT 2a9d4 8c .cfa: sp 0 +
STACK CFI 2a9d8 .cfa: sp 48 +
STACK CFI 2a9e4 .cfa: x29 48 + x19: .cfa -8 + ^ x20: .cfa -16 + ^ x21: .cfa -32 + ^ .ra: .cfa -40 + ^ x29: .cfa -48 + ^
STACK CFI 2a9fc .cfa: sp 48 +
STACK CFI 2aa08 .cfa: sp 0 +
STACK CFI 2aa0c .cfa: x29 48 +
STACK CFI 2aa50 .cfa: sp 48 +
STACK CFI 2aa5c .cfa: sp 0 +
STACK CFI INIT 2bb38 4 .cfa: sp 0 +
STACK CFI INIT 2bd10 4b4 .cfa: sp 0 +
STACK CFI 2bd14 .cfa: sp 96 +
STACK CFI 2bd2c .cfa: x29 96 + x19: .cfa -8 + ^ x20: .cfa -16 + ^ x21: .cfa -24 + ^ x22: .cfa -32 + ^ x23: .cfa -40 + ^ x24: .cfa -48 + ^ x25: .cfa -56 + ^ x26: .cfa -64 + ^ x27: .cfa -72 + ^ x28: .cfa -80 + ^ .ra: .cfa -88 + ^ x29: .cfa -96 + ^
STACK CFI 2c174 .cfa: sp 96 +
STACK CFI 2c18c .cfa: sp 0 +
STACK CFI 2c190 .cfa: x29 96 +
STACK CFI INIT 2c1c4 1a4 .cfa: sp 0 +
STACK CFI 2c1c8 .cfa: sp 64 +
STACK CFI 2c1d4 .cfa: x29 32 + x19: .cfa -8 + ^ x20: .cfa -16 + ^ .ra: .cfa -24 + ^ x29: .cfa -32 + ^
STACK CFI 2c300 .cfa: sp 64 +
STACK CFI 2c30c .cfa: sp 0 +
STACK CFI 2c310 .cfa: x29 32 +
STACK CFI INIT 2c368 194 .cfa: sp 0 +
STACK CFI 2c36c .cfa: sp 16 +
STACK CFI 2c370 .cfa: x29 16 + .ra: .cfa -8 + ^ x29: .cfa -16 + ^
STACK CFI 2c408 .cfa: sp 16 +
STACK CFI 2c40c .cfa: sp 0 +
STACK CFI 2c410 .cfa: x29 16 +
STACK CFI 2c4dc .cfa: sp 16 +
STACK CFI 2c4e0 .cfa: sp 0 +
STACK CFI 2c4e4 .cfa: x29 16 +
STACK CFI INIT 2c4fc 114 .cfa: sp 0 +
STACK CFI 2c500 .cfa: sp 128 +
STACK CFI 2c510 .cfa: x29 48 + x19: .cfa -8 + ^ x20: .cfa -16 + ^ x21: .cfa -32 + ^ .ra: .cfa -40 + ^ x29: .cfa -48 + ^
STACK CFI 2c5dc .cfa: sp 128 +
STACK CFI 2c5ec .cfa: sp 0 +
STACK CFI 2c5f0 .cfa: x29 48 +
STACK CFI INIT 2c610 114 .cfa: sp 0 +
STACK CFI 2c614 .cfa: sp 128 +
STACK CFI 2c624 .cfa: x29 48 + x19: .cfa -8 + ^ x20: .cfa -16 + ^ x21: .cfa -32 + ^ .ra: .cfa -40 + ^ x29: .cfa -48 + ^
STACK CFI 2c6f0 .cfa: sp 128 +
STACK CFI 2c700 .cfa: sp 0 +
STACK CFI 2c704 .cfa: x29 48 +
STACK CFI INIT 2c724 27c .cfa: sp 0 +
STACK CFI 2c728 .cfa: sp 176 +
STACK CFI 2c744 .cfa: x29 96 + x19: .cfa -8 + ^ x20: .cfa -16 + ^ x21: .cfa -24 + ^ x22: .cfa -32 + ^ x23: .cfa -40 + ^ x24: .cfa -48 + ^ x25: .cfa -56 + ^ x26: .cfa -64 + ^ x27: .cfa -72 + ^ x28: .cfa -80 + ^ .ra: .cfa -88 + ^ x29: .cfa -96 + ^
STACK CFI 2c97c .cfa: sp 176 +
STACK CFI 2c998 .cfa: sp 0 +
STACK CFI 2c99c .cfa: x29 96 +
STACK CFI INIT 2c9a0 520 .cfa: sp 0 +
STACK CFI 2c9a4 .cfa: sp 176 +
STACK CFI 2c9c0 .cfa: x29 96 + x19: .cfa -8 + ^ x20: .cfa -16 + ^ x21: .cfa -24 + ^ x22: .cfa -32 + ^ x23: .cfa -40 + ^ x24: .cfa -48 + ^ x25: .cfa -56 + ^ x26: .cfa -64 + ^ x27: .cfa -72 + ^ x28: .cfa -80 + ^ .ra: .cfa -88 + ^ x29: .cfa -96 + ^
STACK CFI 2ce9c .cfa: sp 176 +
STACK CFI 2ceb8 .cfa: sp 0 +
STACK CFI 2cebc .cfa: x29 96 +
STACK CFI INIT 2cec0 20c .cfa: sp 0 +
STACK CFI 2cec4 .cfa: sp 80 +
STACK CFI 2ced8 .cfa: x29 80 + x19: .cfa -8 + ^ x20: .cfa -16 + ^ x21: .cfa -24 + ^ x22: .cfa -32 + ^ x23: .cfa -40 + ^ x24: .cfa -48 + ^ x25: .cfa -64 + ^ .ra: .cfa -72 + ^ x29: .cfa -80 + ^
STACK CFI 2cf68 .cfa: sp 80 +
STACK CFI 2cf7c .cfa: sp 0 +
STACK CFI 2cf80 .cfa: x29 80 +
STACK CFI 2cf8c .cfa: sp 80 +
STACK CFI 2cfa0 .cfa: sp 0 +
STACK CFI 2cfa4 .cfa: x29 80 +
STACK CFI INIT 2d0cc 428 .cfa: sp 0 +
STACK CFI 2d0d0 .cfa: sp 128 +
STACK CFI 2d0ec .cfa: x29 96 + x19: .cfa -8 + ^ x20: .cfa -16 + ^ x21: .cfa -24 + ^ x22: .cfa -32 + ^ x23: .cfa -40 + ^ x24: .cfa -48 + ^ x25: .cfa -56 + ^ x26: .cfa -64 + ^ x27: .cfa -72 + ^ x28: .cfa -80 + ^ .ra: .cfa -88 + ^ x29: .cfa -96 + ^
STACK CFI 2d4d0 .cfa: sp 128 +
STACK CFI 2d4ec .cfa: sp 0 +
STACK CFI 2d4f0 .cfa: x29 96 +
STACK CFI INIT 2d4f4 194 .cfa: sp 0 +
STACK CFI 2d4f8 .cfa: sp 32 +
STACK CFI 2d500 .cfa: x29 16 + .ra: .cfa -8 + ^ x29: .cfa -16 + ^
STACK CFI 2d544 .cfa: sp 32 +
STACK CFI 2d54c .cfa: sp 0 +
STACK CFI 2d550 .cfa: x29 16 +
STACK CFI INIT 2d688 1b8 .cfa: sp 0 +
STACK CFI INIT 2d840 1d0 .cfa: sp 0 +
STACK CFI 2d844 .cfa: sp 80 +
STACK CFI 2d858 .cfa: x29 80 + x19: .cfa -8 + ^ x20: .cfa -16 + ^ x21: .cfa -24 + ^ x22: .cfa -32 + ^ x23: .cfa -40 + ^ x24: .cfa -48 + ^ x25: .cfa -64 + ^ .ra: .cfa -72 + ^ x29: .cfa -80 + ^
STACK CFI 2d9f8 .cfa: sp 80 +
STACK CFI 2da0c .cfa: sp 0 +
STACK CFI INIT 2da10 67c .cfa: sp 0 +
STACK CFI 2da14 .cfa: sp 176 +
STACK CFI 2da30 .cfa: x29 96 + x19: .cfa -8 + ^ x20: .cfa -16 + ^ x21: .cfa -24 + ^ x22: .cfa -32 + ^ x23: .cfa -40 + ^ x24: .cfa -48 + ^ x25: .cfa -56 + ^ x26: .cfa -64 + ^ x27: .cfa -72 + ^ x28: .cfa -80 + ^ .ra: .cfa -88 + ^ x29: .cfa -96 + ^
STACK CFI 2e068 .cfa: sp 176 +
STACK CFI 2e084 .cfa: sp 0 +
STACK CFI 2e088 .cfa: x29 96 +
STACK CFI INIT 2e08c 1e4 .cfa: sp 0 +
STACK CFI 2e090 .cfa: sp 32 +
STACK CFI 2e098 .cfa: x29 32 + x19: .cfa -8 + ^ x20: .cfa -16 + ^ .ra: .cfa -24 + ^ x29: .cfa -32 + ^
STACK CFI 2e188 .cfa: sp 32 +
STACK CFI 2e190 .cfa: sp 0 +
STACK CFI 2e194 .cfa: x29 32 +
STACK CFI 2e208 .cfa: sp 32 +
STACK CFI 2e210 .cfa: sp 0 +
STACK CFI 2e214 .cfa: x29 32 +
STACK CFI 2e224 .cfa: sp 32 +
STACK CFI 2e22c .cfa: sp 0 +
STACK CFI 2e230 .cfa: x29 32 +
STACK CFI 2e240 .cfa: sp 32 +
STACK CFI 2e248 .cfa: sp 0 +
STACK CFI 2e24c .cfa: x29 32 +
STACK CFI INIT 2e270 178 .cfa: sp 0 +
STACK CFI 2e274 .cfa: sp 80 +
STACK CFI 2e288 .cfa: x29 64 + x19: .cfa -8 + ^ x20: .cfa -16 + ^ x21: .cfa -24 + ^ x22: .cfa -32 + ^ x23: .cfa -40 + ^ x24: .cfa -48 + ^ .ra: .cfa -56 + ^ x29: .cfa -64 + ^
STACK CFI 2e3cc .cfa: sp 80 +
STACK CFI 2e3e0 .cfa: sp 0 +
STACK CFI 2e3e4 .cfa: x29 64 +
STACK CFI INIT 2e3e8 178 .cfa: sp 0 +
STACK CFI 2e3ec .cfa: sp 80 +
STACK CFI 2e400 .cfa: x29 64 + x19: .cfa -8 + ^ x20: .cfa -16 + ^ x21: .cfa -24 + ^ x22: .cfa -32 + ^ x23: .cfa -40 + ^ x24: .cfa -48 + ^ .ra: .cfa -56 + ^ x29: .cfa -64 + ^
STACK CFI 2e544 .cfa: sp 80 +
STACK CFI 2e558 .cfa: sp 0 +
STACK CFI 2e55c .cfa: x29 64 +
STACK CFI INIT 2e560 178 .cfa: sp 0 +
STACK CFI 2e564 .cfa: sp 80 +
STACK CFI 2e578 .cfa: x29 64 + x19: .cfa -8 + ^ x20: .cfa -16 + ^ x21: .cfa -24 + ^ x22: .cfa -32 + ^ x23: .cfa -40 + ^ x24: .cfa -48 + ^ .ra: .cfa -56 + ^ x29: .cfa -64 + ^
STACK CFI 2e6bc .cfa: sp 80 +
STACK CFI 2e6d0 .cfa: sp 0 +
STACK CFI 2e6d4 .cfa: x29 64 +
STACK CFI INIT 2e6d8 94 .cfa: sp 0 +
STACK CFI 2e6dc .cfa: sp 16 +
STACK CFI 2e6e0 .cfa: x29 16 + .ra: .cfa -8 + ^ x29: .cfa -16 + ^
STACK CFI 2e734 .cfa: sp 16 +
STACK CFI 2e738 .cfa: sp 0 +
STACK CFI 2e73c .cfa: x29 16 +
STACK CFI INIT 2e76c 158 .cfa: sp 0 +
STACK CFI 2e770 .cfa: sp 112 +
STACK CFI 2e78c .cfa: x29 96 + x19: .cfa -8 + ^ x20: .cfa -16 + ^ x21: .cfa -24 + ^ x22: .cfa -32 + ^ x23: .cfa -40 + ^ x24: .cfa -48 + ^ x25: .cfa -56 + ^ x26: .cfa -64 + ^ x27: .cfa -72 + ^ x28: .cfa -80 + ^ .ra: .cfa -88 + ^ x29: .cfa -96 + ^
STACK CFI 2e874 .cfa: sp 112 +
STACK CFI 2e878 .cfa: x29 96 +
STACK CFI 2e880 .cfa: sp 112 +
STACK CFI 2e89c .cfa: sp 0 +
STACK CFI 2e8a0 .cfa: x29 96 +
STACK CFI 2e8c0 .cfa: sp 112 +
STACK CFI INIT 2e8c4 94 .cfa: sp 0 +
STACK CFI 2e8c8 .cfa: sp 16 +
STACK CFI 2e8cc .cfa: x29 16 + .ra: .cfa -8 + ^ x29: .cfa -16 + ^
STACK CFI 2e920 .cfa: sp 16 +
STACK CFI 2e924 .cfa: sp 0 +
STACK CFI 2e928 .cfa: x29 16 +
STACK CFI INIT 2e958 4 .cfa: sp 0 +
STACK CFI INIT 2e95c 38 .cfa: sp 0 +
STACK CFI 2e960 .cfa: sp 32 +
STACK CFI 2e968 .cfa: x29 32 + x19: .cfa -16 + ^ .ra: .cfa -24 + ^ x29: .cfa -32 + ^
STACK CFI 2e988 .cfa: sp 32 +
STACK CFI 2e990 .cfa: sp 0 +
STACK CFI INIT 2e994 18 .cfa: sp 0 +
STACK CFI INIT 2e9ac 4 .cfa: sp 0 +
STACK CFI INIT 2e9b0 4 .cfa: sp 0 +
STACK CFI INIT 2e9b4 64 .cfa: sp 0 +
STACK CFI 2e9b8 .cfa: sp 32 +
STACK CFI 2e9c0 .cfa: x29 32 + x19: .cfa -8 + ^ x20: .cfa -16 + ^ .ra: .cfa -24 + ^ x29: .cfa -32 + ^
STACK CFI 2e9f0 .cfa: sp 32 +
STACK CFI 2e9f8 .cfa: sp 0 +
STACK CFI 2e9fc .cfa: x29 32 +
STACK CFI 2ea0c .cfa: sp 32 +
STACK CFI 2ea14 .cfa: sp 0 +
STACK CFI INIT 2ea18 1c .cfa: sp 0 +
STACK CFI INIT 2ea34 c .cfa: sp 0 +
STACK CFI INIT 2eec0 1c .cfa: sp 0 +
STACK CFI INIT 2f508 4 .cfa: sp 0 +
STACK CFI INIT 30b0c 190 .cfa: sp 0 +
STACK CFI 30b10 .cfa: sp 48 +
STACK CFI 30b1c .cfa: x29 48 + x19: .cfa -8 + ^ x20: .cfa -16 + ^ x21: .cfa -32 + ^ .ra: .cfa -40 + ^ x29: .cfa -48 + ^
STACK CFI 30c7c .cfa: sp 48 +
STACK CFI 30c88 .cfa: sp 0 +
STACK CFI 30c8c .cfa: sp 48 +
STACK CFI 30c98 .cfa: sp 0 +
STACK CFI INIT 32670 100 .cfa: sp 0 +
STACK CFI 32674 .cfa: sp 80 +
STACK CFI 32688 .cfa: x29 48 + x19: .cfa -8 + ^ x20: .cfa -16 + ^ x21: .cfa -24 + ^ x22: .cfa -32 + ^ .ra: .cfa -40 + ^ x29: .cfa -48 + ^ v8: .cfa -64 + ^
STACK CFI 32754 .cfa: sp 80 +
STACK CFI 32768 .cfa: sp 0 +
STACK CFI 3276c .cfa: x29 48 +
STACK CFI INIT 32770 3c .cfa: sp 0 +
STACK CFI 32774 .cfa: sp 32 +
STACK CFI 3277c .cfa: x29 32 + x19: .cfa -16 + ^ .ra: .cfa -24 + ^ x29: .cfa -32 + ^
STACK CFI 32788 .cfa: sp 32 +
STACK CFI 32790 .cfa: sp 0 +
STACK CFI 32794 .cfa: x29 32 +
STACK CFI 327a0 .cfa: sp 32 +
STACK CFI 327a8 .cfa: sp 0 +
STACK CFI INIT 327ac 4c .cfa: sp 0 +
STACK CFI 327b0 .cfa: sp 32 +
STACK CFI 327b8 .cfa: x29 32 + x19: .cfa -8 + ^ x20: .cfa -16 + ^ .ra: .cfa -24 + ^ x29: .cfa -32 + ^
STACK CFI 327e0 .cfa: sp 32 +
STACK CFI 327e8 .cfa: sp 0 +
STACK CFI 327ec .cfa: sp 32 +
STACK CFI 327f4 .cfa: sp 0 +
STACK CFI INIT 32a18 64 .cfa: sp 0 +
STACK CFI 32a1c .cfa: sp 32 +
STACK CFI 32a24 .cfa: x29 32 + x19: .cfa -16 + ^ .ra: .cfa -24 + ^ x29: .cfa -32 + ^
STACK CFI 32a50 .cfa: sp 32 +
STACK CFI 32a58 .cfa: sp 0 +
STACK CFI 32a5c .cfa: x29 32 +
STACK CFI 32a70 .cfa: sp 32 +
STACK CFI 32a78 .cfa: sp 0 +
STACK CFI INIT 32a7c 24 .cfa: sp 0 +
STACK CFI 32a80 .cfa: sp 32 +
STACK CFI 32a88 .cfa: x29 32 + x19: .cfa -16 + ^ .ra: .cfa -24 + ^ x29: .cfa -32 + ^
STACK CFI 32a94 .cfa: sp 32 +
STACK CFI 32a9c .cfa: sp 0 +
STACK CFI INIT 32aa0 24 .cfa: sp 0 +
STACK CFI 32aa4 .cfa: sp 32 +
STACK CFI 32aac .cfa: x29 32 + x19: .cfa -16 + ^ .ra: .cfa -24 + ^ x29: .cfa -32 + ^
STACK CFI 32ab8 .cfa: sp 32 +
STACK CFI 32ac0 .cfa: sp 0 +
STACK CFI INIT 32ac4 8 .cfa: sp 0 +
STACK CFI INIT 32acc 24 .cfa: sp 0 +
STACK CFI 32ad0 .cfa: sp 32 +
STACK CFI 32ad8 .cfa: x29 32 + x19: .cfa -16 + ^ .ra: .cfa -24 + ^ x29: .cfa -32 + ^
STACK CFI 32ae4 .cfa: sp 32 +
STACK CFI 32aec .cfa: sp 0 +
STACK CFI INIT 32af0 28 .cfa: sp 0 +
STACK CFI 32af4 .cfa: sp 32 +
STACK CFI 32afc .cfa: x29 32 + x19: .cfa -16 + ^ .ra: .cfa -24 + ^ x29: .cfa -32 + ^
STACK CFI 32b0c .cfa: sp 32 +
STACK CFI 32b14 .cfa: sp 0 +
STACK CFI INIT 32df0 8 .cfa: sp 0 +
STACK CFI INIT 32df8 24 .cfa: sp 0 +
STACK CFI 32dfc .cfa: sp 32 +
STACK CFI 32e04 .cfa: x29 32 + x19: .cfa -16 + ^ .ra: .cfa -24 + ^ x29: .cfa -32 + ^
STACK CFI 32e10 .cfa: sp 32 +
STACK CFI 32e18 .cfa: sp 0 +
STACK CFI INIT 32e1c 28 .cfa: sp 0 +
STACK CFI 32e20 .cfa: sp 32 +
STACK CFI 32e28 .cfa: x29 32 + x19: .cfa -16 + ^ .ra: .cfa -24 + ^ x29: .cfa -32 + ^
STACK CFI 32e38 .cfa: sp 32 +
STACK CFI 32e40 .cfa: sp 0 +
STACK CFI INIT 32e44 8 .cfa: sp 0 +
STACK CFI INIT 32e4c 24 .cfa: sp 0 +
STACK CFI 32e50 .cfa: sp 32 +
STACK CFI 32e58 .cfa: x29 32 + x19: .cfa -16 + ^ .ra: .cfa -24 + ^ x29: .cfa -32 + ^
STACK CFI 32e64 .cfa: sp 32 +
STACK CFI 32e6c .cfa: sp 0 +
STACK CFI INIT 32e70 28 .cfa: sp 0 +
STACK CFI 32e74 .cfa: sp 32 +
STACK CFI 32e7c .cfa: x29 32 + x19: .cfa -16 + ^ .ra: .cfa -24 + ^ x29: .cfa -32 + ^
STACK CFI 32e8c .cfa: sp 32 +
STACK CFI 32e94 .cfa: sp 0 +
STACK CFI INIT 32e98 8 .cfa: sp 0 +
STACK CFI INIT 32ea0 24 .cfa: sp 0 +
STACK CFI 32ea4 .cfa: sp 32 +
STACK CFI 32eac .cfa: x29 32 + x19: .cfa -16 + ^ .ra: .cfa -24 + ^ x29: .cfa -32 + ^
STACK CFI 32eb8 .cfa: sp 32 +
STACK CFI 32ec0 .cfa: sp 0 +
STACK CFI INIT 32ec4 28 .cfa: sp 0 +
STACK CFI 32ec8 .cfa: sp 32 +
STACK CFI 32ed0 .cfa: x29 32 + x19: .cfa -16 + ^ .ra: .cfa -24 + ^ x29: .cfa -32 + ^
STACK CFI 32ee0 .cfa: sp 32 +
STACK CFI 32ee8 .cfa: sp 0 +
STACK CFI INIT 34950 4 .cfa: sp 0 +
STACK CFI INIT 35b94 4 .cfa: sp 0 +
STACK CFI INIT 35b98 14 .cfa: sp 0 +
STACK CFI INIT 3608c c .cfa: sp 0 +
STACK CFI INIT 36098 24c .cfa: sp 0 +
STACK CFI INIT 362e4 a0 .cfa: sp 0 +
STACK CFI 362f0 .cfa: sp 32 +
STACK CFI 36348 .cfa: sp 0 +
STACK CFI 3634c .cfa: sp 32 +
STACK CFI 36354 .cfa: sp 0 +
STACK CFI 36358 .cfa: sp 32 +
STACK CFI 3636c .cfa: sp 0 +
STACK CFI 36370 .cfa: sp 32 +
STACK CFI 36380 .cfa: sp 0 +
STACK CFI INIT 36384 38 .cfa: sp 0 +
STACK CFI 36390 .cfa: sp 32 +
STACK CFI 363b8 .cfa: sp 0 +
STACK CFI INIT 36650 7c .cfa: sp 0 +
STACK CFI 36654 .cfa: sp 32 +
STACK CFI 3665c .cfa: x29 32 + x19: .cfa -16 + ^ .ra: .cfa -24 + ^ x29: .cfa -32 + ^
STACK CFI 36688 .cfa: sp 32 +
STACK CFI 36690 .cfa: sp 0 +
STACK CFI 36694 .cfa: x29 32 +
STACK CFI 366c0 .cfa: sp 32 +
STACK CFI 366c8 .cfa: sp 0 +
STACK CFI INIT 3671c 2c .cfa: sp 0 +
STACK CFI 36720 .cfa: sp 32 +
STACK CFI 36728 .cfa: x29 32 + x19: .cfa -16 + ^ .ra: .cfa -24 + ^ x29: .cfa -32 + ^
STACK CFI 3673c .cfa: sp 32 +
STACK CFI 36744 .cfa: sp 0 +
STACK CFI INIT 36f08 64 .cfa: sp 0 +
STACK CFI 36f0c .cfa: sp 32 +
STACK CFI 36f14 .cfa: x29 32 + x19: .cfa -16 + ^ .ra: .cfa -24 + ^ x29: .cfa -32 + ^
STACK CFI 36f30 .cfa: sp 32 +
STACK CFI 36f38 .cfa: sp 0 +
STACK CFI 36f3c .cfa: x29 32 +
STACK CFI 36f60 .cfa: sp 32 +
STACK CFI 36f68 .cfa: sp 0 +
STACK CFI INIT 36f6c 570 .cfa: sp 0 +
STACK CFI 36f70 .cfa: sp 176 +
STACK CFI 36f84 .cfa: x29 64 + x19: .cfa -8 + ^ x20: .cfa -16 + ^ x21: .cfa -24 + ^ x22: .cfa -32 + ^ x23: .cfa -40 + ^ x24: .cfa -48 + ^ .ra: .cfa -56 + ^ x29: .cfa -64 + ^
STACK CFI 371b4 .cfa: sp 176 +
STACK CFI 371c8 .cfa: sp 0 +
STACK CFI 371cc .cfa: x29 64 +
STACK CFI 37218 .cfa: sp 176 +
STACK CFI 3722c .cfa: sp 0 +
STACK CFI 37230 .cfa: x29 64 +
STACK CFI 37268 .cfa: sp 176 +
STACK CFI 3727c .cfa: sp 0 +
STACK CFI 37280 .cfa: x29 64 +
STACK CFI 37298 .cfa: sp 176 +
STACK CFI 372ac .cfa: sp 0 +
STACK CFI 372b0 .cfa: x29 64 +
STACK CFI 372d0 .cfa: sp 176 +
STACK CFI 372e4 .cfa: sp 0 +
STACK CFI 372e8 .cfa: x29 64 +
STACK CFI 37300 .cfa: sp 176 +
STACK CFI 37314 .cfa: sp 0 +
STACK CFI 37318 .cfa: x29 64 +
STACK CFI 3732c .cfa: sp 176 +
STACK CFI 37340 .cfa: sp 0 +
STACK CFI 37344 .cfa: x29 64 +
STACK CFI 37358 .cfa: sp 176 +
STACK CFI 3736c .cfa: sp 0 +
STACK CFI 37370 .cfa: x29 64 +
STACK CFI 37380 .cfa: sp 176 +
STACK CFI 37394 .cfa: sp 0 +
STACK CFI 37398 .cfa: x29 64 +
STACK CFI 373a8 .cfa: sp 176 +
STACK CFI 373bc .cfa: sp 0 +
STACK CFI 373c0 .cfa: x29 64 +
STACK CFI 373d8 .cfa: sp 176 +
STACK CFI 373ec .cfa: sp 0 +
STACK CFI 373f0 .cfa: x29 64 +
STACK CFI 37404 .cfa: sp 176 +
STACK CFI 37418 .cfa: sp 0 +
STACK CFI 3741c .cfa: x29 64 +
STACK CFI 37434 .cfa: sp 176 +
STACK CFI 37448 .cfa: sp 0 +
STACK CFI 3744c .cfa: x29 64 +
STACK CFI 37478 .cfa: sp 176 +
STACK CFI 3748c .cfa: sp 0 +
STACK CFI 37490 .cfa: x29 64 +
STACK CFI 374a4 .cfa: sp 176 +
STACK CFI 374b8 .cfa: sp 0 +
STACK CFI 374bc .cfa: x29 64 +
STACK CFI INIT 374dc 228 .cfa: sp 0 +
STACK CFI INIT 37704 2dc .cfa: sp 0 +
STACK CFI INIT 379e0 53c .cfa: sp 0 +
STACK CFI INIT 37f1c 78 .cfa: sp 0 +
STACK CFI 37f20 .cfa: sp 48 +
STACK CFI 37f2c .cfa: x29 48 + x19: .cfa -8 + ^ x20: .cfa -16 + ^ x21: .cfa -24 + ^ x22: .cfa -32 + ^ .ra: .cfa -40 + ^ x29: .cfa -48 + ^
STACK CFI 37f74 .cfa: sp 48 +
STACK CFI 37f80 .cfa: sp 0 +
STACK CFI 37f84 .cfa: sp 48 +
STACK CFI 37f90 .cfa: sp 0 +
STACK CFI INIT 37f94 8c .cfa: sp 0 +
STACK CFI 37f98 .cfa: sp 32 +
STACK CFI 37fa0 .cfa: x29 32 + x19: .cfa -16 + ^ .ra: .cfa -24 + ^ x29: .cfa -32 + ^
STACK CFI 37fd4 .cfa: sp 32 +
STACK CFI 37fdc .cfa: sp 0 +
STACK CFI 37fe0 .cfa: x29 32 +
STACK CFI 38014 .cfa: sp 32 +
STACK CFI 3801c .cfa: sp 0 +
STACK CFI INIT 38020 24 .cfa: sp 0 +
STACK CFI 38024 .cfa: sp 32 +
STACK CFI 3802c .cfa: x29 32 + x19: .cfa -16 + ^ .ra: .cfa -24 + ^ x29: .cfa -32 + ^
STACK CFI 38038 .cfa: sp 32 +
STACK CFI 38040 .cfa: sp 0 +
STACK CFI INIT 38044 150 .cfa: sp 0 +
STACK CFI 38048 .cfa: sp 48 +
STACK CFI 38054 .cfa: x29 48 + x19: .cfa -8 + ^ x20: .cfa -16 + ^ x21: .cfa -24 + ^ x22: .cfa -32 + ^ .ra: .cfa -40 + ^ x29: .cfa -48 + ^
STACK CFI 38184 .cfa: sp 48 +
STACK CFI 38190 .cfa: sp 0 +
STACK CFI INIT 38194 68 .cfa: sp 0 +
STACK CFI 38198 .cfa: sp 64 +
STACK CFI 381a4 .cfa: x29 32 + x19: .cfa -16 + ^ .ra: .cfa -24 + ^ x29: .cfa -32 + ^
STACK CFI 381e8 .cfa: sp 64 +
STACK CFI 381f4 .cfa: sp 0 +
STACK CFI 381f8 .cfa: x29 32 +
STACK CFI INIT 381fc 90 .cfa: sp 0 +
STACK CFI 38200 .cfa: sp 32 +
STACK CFI 38208 .cfa: x29 32 + x19: .cfa -8 + ^ x20: .cfa -16 + ^ .ra: .cfa -24 + ^ x29: .cfa -32 + ^
STACK CFI 38234 .cfa: sp 32 +
STACK CFI 3823c .cfa: sp 0 +
STACK CFI 38240 .cfa: x29 32 +
STACK CFI 38280 .cfa: sp 32 +
STACK CFI 38288 .cfa: sp 0 +
STACK CFI INIT 3828c ec .cfa: sp 0 +
STACK CFI 38290 .cfa: sp 112 +
STACK CFI 382a0 .cfa: x29 48 + x19: .cfa -8 + ^ x20: .cfa -16 + ^ x21: .cfa -32 + ^ .ra: .cfa -40 + ^ x29: .cfa -48 + ^
STACK CFI 38360 .cfa: sp 112 +
STACK CFI 38370 .cfa: sp 0 +
STACK CFI 38374 .cfa: x29 48 +
STACK CFI INIT 38378 ec .cfa: sp 0 +
STACK CFI 3837c .cfa: sp 112 +
STACK CFI 3838c .cfa: x29 48 + x19: .cfa -8 + ^ x20: .cfa -16 + ^ x21: .cfa -32 + ^ .ra: .cfa -40 + ^ x29: .cfa -48 + ^
STACK CFI 3844c .cfa: sp 112 +
STACK CFI 3845c .cfa: sp 0 +
STACK CFI 38460 .cfa: x29 48 +
STACK CFI INIT 38464 48 .cfa: sp 0 +
STACK CFI 38468 .cfa: sp 32 +
STACK CFI 38470 .cfa: x29 32 + x19: .cfa -8 + ^ x20: .cfa -16 + ^ .ra: .cfa -24 + ^ x29: .cfa -32 + ^
STACK CFI 38494 .cfa: sp 32 +
STACK CFI 3849c .cfa: sp 0 +
STACK CFI 384a0 .cfa: x29 32 +
STACK CFI INIT 384ac 98 .cfa: sp 0 +
STACK CFI 384b0 .cfa: sp 80 +
STACK CFI 384bc .cfa: x29 32 + x19: .cfa -16 + ^ .ra: .cfa -24 + ^ x29: .cfa -32 + ^
STACK CFI 38530 .cfa: sp 80 +
STACK CFI 3853c .cfa: sp 0 +
STACK CFI 38540 .cfa: x29 32 +
STACK CFI INIT 38544 260 .cfa: sp 0 +
STACK CFI 38548 .cfa: sp 112 +
STACK CFI 38560 .cfa: x29 80 + x19: .cfa -8 + ^ x20: .cfa -16 + ^ x21: .cfa -24 + ^ x22: .cfa -32 + ^ x23: .cfa -40 + ^ x24: .cfa -48 + ^ x25: .cfa -64 + ^ .ra: .cfa -72 + ^ x29: .cfa -80 + ^
STACK CFI 38744 .cfa: sp 112 +
STACK CFI 3875c .cfa: sp 0 +
STACK CFI 38760 .cfa: x29 80 +
STACK CFI INIT 387a4 150 .cfa: sp 0 +
STACK CFI 387a8 .cfa: sp 48 +
STACK CFI 387b4 .cfa: x29 48 + x19: .cfa -8 + ^ x20: .cfa -16 + ^ x21: .cfa -24 + ^ x22: .cfa -32 + ^ .ra: .cfa -40 + ^ x29: .cfa -48 + ^
STACK CFI 388e4 .cfa: sp 48 +
STACK CFI 388f0 .cfa: sp 0 +
STACK CFI INIT 388f4 1e0 .cfa: sp 0 +
STACK CFI 388f8 .cfa: sp 96 +
STACK CFI 3890c .cfa: x29 64 + x19: .cfa -8 + ^ x20: .cfa -16 + ^ x21: .cfa -24 + ^ x22: .cfa -32 + ^ x23: .cfa -40 + ^ x24: .cfa -48 + ^ .ra: .cfa -56 + ^ x29: .cfa -64 + ^
STACK CFI 38a8c .cfa: sp 96 +
STACK CFI 38aa0 .cfa: sp 0 +
STACK CFI 38aa4 .cfa: x29 64 +
STACK CFI INIT 38ad4 284 .cfa: sp 0 +
STACK CFI 38ad8 .cfa: sp 112 +
STACK CFI 38af0 .cfa: x29 80 + x19: .cfa -8 + ^ x20: .cfa -16 + ^ x21: .cfa -24 + ^ x22: .cfa -32 + ^ x23: .cfa -40 + ^ x24: .cfa -48 + ^ x25: .cfa -64 + ^ .ra: .cfa -72 + ^ x29: .cfa -80 + ^
STACK CFI 38cf8 .cfa: sp 112 +
STACK CFI 38d10 .cfa: sp 0 +
STACK CFI 38d14 .cfa: x29 80 +
STACK CFI INIT 38d58 208 .cfa: sp 0 +
STACK CFI 38d5c .cfa: sp 96 +
STACK CFI 38d70 .cfa: x29 64 + x19: .cfa -8 + ^ x20: .cfa -16 + ^ x21: .cfa -24 + ^ x22: .cfa -32 + ^ x23: .cfa -40 + ^ x24: .cfa -48 + ^ .ra: .cfa -56 + ^ x29: .cfa -64 + ^
STACK CFI 38f18 .cfa: sp 96 +
STACK CFI 38f2c .cfa: sp 0 +
STACK CFI 38f30 .cfa: x29 64 +
STACK CFI INIT 38f60 360 .cfa: sp 0 +
STACK CFI 38f64 .cfa: sp 160 +
STACK CFI 38f80 .cfa: x29 96 + x19: .cfa -8 + ^ x20: .cfa -16 + ^ x21: .cfa -24 + ^ x22: .cfa -32 + ^ x23: .cfa -40 + ^ x24: .cfa -48 + ^ x25: .cfa -56 + ^ x26: .cfa -64 + ^ x27: .cfa -72 + ^ x28: .cfa -80 + ^ .ra: .cfa -88 + ^ x29: .cfa -96 + ^
STACK CFI 3924c .cfa: sp 160 +
STACK CFI 39268 .cfa: sp 0 +
STACK CFI 3926c .cfa: x29 96 +
STACK CFI INIT 392c0 314 .cfa: sp 0 +
STACK CFI 392c4 .cfa: sp 144 +
STACK CFI 392e0 .cfa: x29 96 + x19: .cfa -8 + ^ x20: .cfa -16 + ^ x21: .cfa -24 + ^ x22: .cfa -32 + ^ x23: .cfa -40 + ^ x24: .cfa -48 + ^ x25: .cfa -56 + ^ x26: .cfa -64 + ^ x27: .cfa -72 + ^ x28: .cfa -80 + ^ .ra: .cfa -88 + ^ x29: .cfa -96 + ^
STACK CFI 3955c .cfa: sp 144 +
STACK CFI 39578 .cfa: sp 0 +
STACK CFI 3957c .cfa: x29 96 +
STACK CFI INIT 395d4 2b4 .cfa: sp 0 +
STACK CFI 395d8 .cfa: sp 128 +
STACK CFI 395f0 .cfa: x29 80 + x19: .cfa -8 + ^ x20: .cfa -16 + ^ x21: .cfa -24 + ^ x22: .cfa -32 + ^ x23: .cfa -40 + ^ x24: .cfa -48 + ^ x25: .cfa -56 + ^ x26: .cfa -64 + ^ .ra: .cfa -72 + ^ x29: .cfa -80 + ^
STACK CFI 397e4 .cfa: sp 128 +
STACK CFI 397fc .cfa: sp 0 +
STACK CFI 39800 .cfa: x29 80 +
STACK CFI 39868 .cfa: sp 128 +
STACK CFI 39880 .cfa: sp 0 +
STACK CFI 39884 .cfa: x29 80 +
STACK CFI INIT 39888 de0 .cfa: sp 0 +
STACK CFI 3988c .cfa: sp 144 +
STACK CFI 398a8 .cfa: x29 96 + x19: .cfa -8 + ^ x20: .cfa -16 + ^ x21: .cfa -24 + ^ x22: .cfa -32 + ^ x23: .cfa -40 + ^ x24: .cfa -48 + ^ x25: .cfa -56 + ^ x26: .cfa -64 + ^ x27: .cfa -72 + ^ x28: .cfa -80 + ^ .ra: .cfa -88 + ^ x29: .cfa -96 + ^
STACK CFI 3a540 .cfa: sp 144 +
STACK CFI 3a55c .cfa: sp 0 +
STACK CFI 3a560 .cfa: x29 96 +
STACK CFI INIT 3a668 264 .cfa: sp 0 +
STACK CFI 3a66c .cfa: sp 112 +
STACK CFI 3a680 .cfa: x29 64 + x19: .cfa -8 + ^ x20: .cfa -16 + ^ x21: .cfa -24 + ^ x22: .cfa -32 + ^ x23: .cfa -40 + ^ x24: .cfa -48 + ^ .ra: .cfa -56 + ^ x29: .cfa -64 + ^
STACK CFI 3a7fc .cfa: sp 112 +
STACK CFI 3a810 .cfa: sp 0 +
STACK CFI 3a814 .cfa: x29 64 +
STACK CFI 3a884 .cfa: sp 112 +
STACK CFI 3a898 .cfa: sp 0 +
STACK CFI 3a89c .cfa: x29 64 +
STACK CFI INIT 3a8cc 258 .cfa: sp 0 +
STACK CFI 3a8d0 .cfa: sp 96 +
STACK CFI 3a8e8 .cfa: x29 96 + x19: .cfa -8 + ^ x20: .cfa -16 + ^ x21: .cfa -24 + ^ x22: .cfa -32 + ^ x23: .cfa -40 + ^ x24: .cfa -48 + ^ x25: .cfa -56 + ^ x26: .cfa -64 + ^ x27: .cfa -72 + ^ x28: .cfa -80 + ^ .ra: .cfa -88 + ^ x29: .cfa -96 + ^
STACK CFI 3aae0 .cfa: sp 96 +
STACK CFI 3aaf8 .cfa: sp 0 +
STACK CFI 3aafc .cfa: x29 96 +
STACK CFI 3ab08 .cfa: sp 96 +
STACK CFI 3ab20 .cfa: sp 0 +
STACK CFI INIT 3b7a8 154 .cfa: sp 0 +
STACK CFI 3b7ac .cfa: sp 96 +
STACK CFI 3b7c0 .cfa: x29 64 + x19: .cfa -8 + ^ x20: .cfa -16 + ^ x21: .cfa -24 + ^ x22: .cfa -32 + ^ x23: .cfa -48 + ^ .ra: .cfa -56 + ^ x29: .cfa -64 + ^
STACK CFI 3b8a0 .cfa: sp 96 +
STACK CFI 3b8b4 .cfa: sp 0 +
STACK CFI 3b8b8 .cfa: x29 64 +
STACK CFI INIT 3bb68 44 .cfa: sp 0 +
STACK CFI 3bb6c .cfa: sp 32 +
STACK CFI 3bb74 .cfa: x29 32 + x19: .cfa -16 + ^ .ra: .cfa -24 + ^ x29: .cfa -32 + ^
STACK CFI 3bb90 .cfa: sp 32 +
STACK CFI 3bb98 .cfa: sp 0 +
STACK CFI 3bb9c .cfa: x29 32 +
STACK CFI 3bba0 .cfa: sp 32 +
STACK CFI 3bba8 .cfa: sp 0 +
STACK CFI INIT 3bbac 1d0 .cfa: sp 0 +
STACK CFI 3bbb0 .cfa: sp 64 +
STACK CFI 3bbc0 .cfa: x29 64 + x19: .cfa -8 + ^ x20: .cfa -16 + ^ x21: .cfa -24 + ^ x22: .cfa -32 + ^ x23: .cfa -40 + ^ x24: .cfa -48 + ^ .ra: .cfa -56 + ^ x29: .cfa -64 + ^
STACK CFI 3bc80 .cfa: sp 64 +
STACK CFI 3bc90 .cfa: sp 0 +
STACK CFI 3bc94 .cfa: x29 64 +
STACK CFI INIT 3bd7c 17c .cfa: sp 0 +
STACK CFI INIT 3c2b0 a0 .cfa: sp 0 +
STACK CFI 3c2b4 .cfa: sp 48 +
STACK CFI 3c2c0 .cfa: x29 48 + x19: .cfa -8 + ^ x20: .cfa -16 + ^ x21: .cfa -24 + ^ x22: .cfa -32 + ^ .ra: .cfa -40 + ^ x29: .cfa -48 + ^
STACK CFI 3c32c .cfa: sp 48 +
STACK CFI 3c338 .cfa: sp 0 +
STACK CFI 3c33c .cfa: sp 48 +
STACK CFI 3c348 .cfa: sp 0 +
STACK CFI 3c34c .cfa: x29 48 +
STACK CFI INIT 3d010 158 .cfa: sp 0 +
STACK CFI 3d014 .cfa: sp 96 +
STACK CFI 3d028 .cfa: x29 64 + x19: .cfa -8 + ^ x20: .cfa -16 + ^ x21: .cfa -24 + ^ x22: .cfa -32 + ^ x23: .cfa -48 + ^ .ra: .cfa -56 + ^ x29: .cfa -64 + ^
STACK CFI 3d10c .cfa: sp 96 +
STACK CFI 3d120 .cfa: sp 0 +
STACK CFI 3d124 .cfa: x29 64 +
STACK CFI INIT 3d168 190 .cfa: sp 0 +
STACK CFI INIT 3ddf0 1f4 .cfa: sp 0 +
STACK CFI 3ddf4 .cfa: sp 80 +
STACK CFI 3de08 .cfa: x29 80 + x19: .cfa -8 + ^ x20: .cfa -16 + ^ x21: .cfa -24 + ^ x22: .cfa -32 + ^ x23: .cfa -40 + ^ x24: .cfa -48 + ^ x25: .cfa -64 + ^ .ra: .cfa -72 + ^ x29: .cfa -80 + ^
STACK CFI 3dfa8 .cfa: sp 80 +
STACK CFI 3dfbc .cfa: sp 0 +
STACK CFI 3dfc0 .cfa: x29 80 +
STACK CFI 3dfcc .cfa: sp 80 +
STACK CFI 3dfe0 .cfa: sp 0 +
STACK CFI INIT 3f414 124 .cfa: sp 0 +
STACK CFI 3f444 .cfa: sp 32 +
STACK CFI 3f44c .cfa: x29 32 + x19: .cfa -8 + ^ x20: .cfa -16 + ^ .ra: .cfa -24 + ^ x29: .cfa -32 + ^
STACK CFI 3f52c .cfa: sp 32 +
STACK CFI 3f534 .cfa: sp 0 +
STACK CFI INIT 3fc94 320 .cfa: sp 0 +
STACK CFI 3fc98 .cfa: sp 64 +
STACK CFI 3fca8 .cfa: x29 64 + x19: .cfa -8 + ^ x20: .cfa -16 + ^ x21: .cfa -24 + ^ x22: .cfa -32 + ^ x23: .cfa -40 + ^ x24: .cfa -48 + ^ .ra: .cfa -56 + ^ x29: .cfa -64 + ^
STACK CFI 3fd24 .cfa: sp 64 +
STACK CFI 3fd34 .cfa: sp 0 +
STACK CFI 3fd38 .cfa: x29 64 +
STACK CFI 3ff0c .cfa: sp 64 +
STACK CFI 3ff1c .cfa: sp 0 +
STACK CFI 3ff20 .cfa: x29 64 +
STACK CFI 3ff30 .cfa: sp 64 +
STACK CFI 3ff40 .cfa: sp 0 +
STACK CFI 3ff44 .cfa: x29 64 +
STACK CFI INIT 3ffb4 a0 .cfa: sp 0 +
STACK CFI 3ffb8 .cfa: sp 48 +
STACK CFI 3ffc4 .cfa: x29 48 + x19: .cfa -8 + ^ x20: .cfa -16 + ^ x21: .cfa -24 + ^ x22: .cfa -32 + ^ .ra: .cfa -40 + ^ x29: .cfa -48 + ^
STACK CFI 40030 .cfa: sp 48 +
STACK CFI 4003c .cfa: sp 0 +
STACK CFI 40040 .cfa: sp 48 +
STACK CFI 4004c .cfa: sp 0 +
STACK CFI 40050 .cfa: x29 48 +
STACK CFI INIT 40f34 160 .cfa: sp 0 +
STACK CFI 40f38 .cfa: sp 64 +
STACK CFI 40f48 .cfa: x29 64 + x19: .cfa -8 + ^ x20: .cfa -16 + ^ x21: .cfa -24 + ^ x22: .cfa -32 + ^ x23: .cfa -48 + ^ .ra: .cfa -56 + ^ x29: .cfa -64 + ^
STACK CFI 41040 .cfa: sp 64 +
STACK CFI 41050 .cfa: sp 0 +
STACK CFI 41054 .cfa: x29 64 +
STACK CFI INIT 41094 214 .cfa: sp 0 +
STACK CFI 41098 .cfa: sp 128 +
STACK CFI 410b4 .cfa: x29 96 + x19: .cfa -8 + ^ x20: .cfa -16 + ^ x21: .cfa -24 + ^ x22: .cfa -32 + ^ x23: .cfa -40 + ^ x24: .cfa -48 + ^ x25: .cfa -56 + ^ x26: .cfa -64 + ^ x27: .cfa -80 + ^ .ra: .cfa -88 + ^ x29: .cfa -96 + ^
STACK CFI 41230 .cfa: sp 128 +
STACK CFI 4124c .cfa: sp 0 +
STACK CFI 41250 .cfa: x29 96 +
STACK CFI INIT 4275c e60 .cfa: sp 0 +
STACK CFI 42760 .cfa: sp 192 +
STACK CFI 4277c .cfa: x29 96 + x19: .cfa -8 + ^ x20: .cfa -16 + ^ x21: .cfa -24 + ^ x22: .cfa -32 + ^ x23: .cfa -40 + ^ x24: .cfa -48 + ^ x25: .cfa -56 + ^ x26: .cfa -64 + ^ x27: .cfa -72 + ^ x28: .cfa -80 + ^ .ra: .cfa -88 + ^ x29: .cfa -96 + ^
STACK CFI 434a4 .cfa: sp 192 +
STACK CFI 434c0 .cfa: sp 0 +
STACK CFI 434c4 .cfa: x29 96 +
STACK CFI INIT 435bc 1090 .cfa: sp 0 +
STACK CFI 435c0 .cfa: sp 288 +
STACK CFI 435dc .cfa: x29 96 + x19: .cfa -8 + ^ x20: .cfa -16 + ^ x21: .cfa -24 + ^ x22: .cfa -32 + ^ x23: .cfa -40 + ^ x24: .cfa -48 + ^ x25: .cfa -56 + ^ x26: .cfa -64 + ^ x27: .cfa -72 + ^ x28: .cfa -80 + ^ .ra: .cfa -88 + ^ x29: .cfa -96 + ^
STACK CFI 44394 .cfa: sp 288 +
STACK CFI 443b0 .cfa: sp 0 +
STACK CFI 443b4 .cfa: x29 96 +
STACK CFI INIT 4464c 520 .cfa: sp 0 +
STACK CFI 44650 .cfa: sp 144 +
STACK CFI 4466c .cfa: x29 96 + x19: .cfa -8 + ^ x20: .cfa -16 + ^ x21: .cfa -24 + ^ x22: .cfa -32 + ^ x23: .cfa -40 + ^ x24: .cfa -48 + ^ x25: .cfa -56 + ^ x26: .cfa -64 + ^ x27: .cfa -72 + ^ x28: .cfa -80 + ^ .ra: .cfa -88 + ^ x29: .cfa -96 + ^
STACK CFI 44b48 .cfa: sp 144 +
STACK CFI 44b64 .cfa: sp 0 +
STACK CFI 44b68 .cfa: x29 96 +
STACK CFI INIT 1e00c 14b4 .cfa: sp 0 +
STACK CFI 1e010 .cfa: sp 400 +
STACK CFI 1e034 .cfa: x29 96 + x19: .cfa -8 + ^ x20: .cfa -16 + ^ x21: .cfa -24 + ^ x22: .cfa -32 + ^ x23: .cfa -40 + ^ x24: .cfa -48 + ^ x25: .cfa -56 + ^ x26: .cfa -64 + ^ x27: .cfa -72 + ^ x28: .cfa -80 + ^ .ra: .cfa -88 + ^ x29: .cfa -96 + ^ v8: .cfa -104 + ^ v9: .cfa -112 + ^ v10: .cfa -128 + ^
STACK CFI 1f2d8 .cfa: sp 400 +
STACK CFI 1f2fc .cfa: sp 0 +
STACK CFI 1f300 .cfa: x29 96 +
STACK CFI INIT 1f4c0 104 .cfa: sp 0 +
STACK CFI 1f4c4 .cfa: sp 64 +
STACK CFI 1f4d4 .cfa: x29 48 + x19: .cfa -8 + ^ x20: .cfa -16 + ^ x21: .cfa -24 + ^ x22: .cfa -32 + ^ .ra: .cfa -40 + ^ x29: .cfa -48 + ^
STACK CFI 1f584 .cfa: sp 64 +
STACK CFI 1f594 .cfa: sp 0 +
STACK CFI 1f598 .cfa: x29 48 +
STACK CFI INIT 1f5c4 180 .cfa: sp 0 +
STACK CFI 1f5c8 .cfa: sp 96 +
STACK CFI 1f5e0 .cfa: x29 80 + x19: .cfa -8 + ^ x20: .cfa -16 + ^ x21: .cfa -24 + ^ x22: .cfa -32 + ^ x23: .cfa -40 + ^ x24: .cfa -48 + ^ x25: .cfa -56 + ^ x26: .cfa -64 + ^ .ra: .cfa -72 + ^ x29: .cfa -80 + ^
STACK CFI 1f6f8 .cfa: sp 96 +
STACK CFI 1f710 .cfa: sp 0 +
STACK CFI 1f714 .cfa: x29 80 +
STACK CFI INIT 1f798 20 .cfa: sp 0 +
STACK CFI 1f79c .cfa: sp 16 +
STACK CFI 1f7a0 .cfa: x29 16 + .ra: .cfa -8 + ^ x29: .cfa -16 + ^
STACK CFI 1f7ac .cfa: sp 16 +
STACK CFI 1f7b0 .cfa: sp 0 +
STACK CFI 1f7b4 .cfa: x29 16 +
STACK CFI INIT 1f854 800 .cfa: sp 0 +
STACK CFI 1f858 .cfa: sp 208 +
STACK CFI 1f878 .cfa: x29 96 + x19: .cfa -8 + ^ x20: .cfa -16 + ^ x21: .cfa -24 + ^ x22: .cfa -32 + ^ x23: .cfa -40 + ^ x24: .cfa -48 + ^ x25: .cfa -56 + ^ x26: .cfa -64 + ^ x27: .cfa -72 + ^ x28: .cfa -80 + ^ .ra: .cfa -88 + ^ x29: .cfa -96 + ^ v8: .cfa -112 + ^
STACK CFI 1fa7c .cfa: sp 208 +
STACK CFI 1fa9c .cfa: sp 0 +
STACK CFI 1faa0 .cfa: x29 96 +
STACK CFI 1fbec .cfa: sp 208 +
STACK CFI 1fc0c .cfa: sp 0 +
STACK CFI 1fc10 .cfa: x29 96 +
STACK CFI 1ffb8 .cfa: sp 208 +
STACK CFI 1ffd8 .cfa: sp 0 +
STACK CFI 1ffdc .cfa: x29 96 +
STACK CFI INIT 20054 20 .cfa: sp 0 +
STACK CFI 20058 .cfa: sp 16 +
STACK CFI 2005c .cfa: x29 16 + .ra: .cfa -8 + ^ x29: .cfa -16 + ^
STACK CFI 20068 .cfa: sp 16 +
STACK CFI 2006c .cfa: sp 0 +
STACK CFI 20070 .cfa: x29 16 +
STACK CFI INIT 20074 290 .cfa: sp 0 +
STACK CFI 20078 .cfa: sp 128 +
STACK CFI 2008c .cfa: x29 64 + x19: .cfa -8 + ^ x20: .cfa -16 + ^ x21: .cfa -24 + ^ x22: .cfa -32 + ^ x23: .cfa -48 + ^ .ra: .cfa -56 + ^ x29: .cfa -64 + ^
STACK CFI 200f0 .cfa: sp 128 +
STACK CFI 20104 .cfa: sp 0 +
STACK CFI 20108 .cfa: x29 64 +
STACK CFI INIT 20304 200 .cfa: sp 0 +
STACK CFI 20308 .cfa: sp 128 +
STACK CFI 2032c .cfa: x29 88 + x19: .cfa -8 + ^ x20: .cfa -16 + ^ x21: .cfa -24 + ^ x22: .cfa -32 + ^ x23: .cfa -40 + ^ x24: .cfa -48 + ^ x25: .cfa -56 + ^ x26: .cfa -64 + ^ x27: .cfa -72 + ^ .ra: .cfa -80 + ^ x29: .cfa -88 + ^ v8: .cfa -96 + ^ v9: .cfa -104 + ^ v10: .cfa -112 + ^
STACK CFI 20474 .cfa: sp 128 +
STACK CFI 20498 .cfa: sp 0 +
STACK CFI 2049c .cfa: x29 88 +
STACK CFI 204ac .cfa: sp 128 +
STACK CFI 204d0 .cfa: sp 0 +
STACK CFI 204d4 .cfa: x29 88 +
STACK CFI INIT 207a8 338 .cfa: sp 0 +
STACK CFI 207ac .cfa: sp 144 +
STACK CFI 207c8 .cfa: x29 96 + x19: .cfa -8 + ^ x20: .cfa -16 + ^ x21: .cfa -24 + ^ x22: .cfa -32 + ^ x23: .cfa -40 + ^ x24: .cfa -48 + ^ x25: .cfa -56 + ^ x26: .cfa -64 + ^ x27: .cfa -72 + ^ x28: .cfa -80 + ^ .ra: .cfa -88 + ^ x29: .cfa -96 + ^
STACK CFI 20a3c .cfa: sp 144 +
STACK CFI 20a58 .cfa: sp 0 +
STACK CFI 20a5c .cfa: x29 96 +
STACK CFI INIT 20ae0 474 .cfa: sp 0 +
STACK CFI 20ae4 .cfa: sp 288 +
STACK CFI 20afc .cfa: x29 80 + x19: .cfa -8 + ^ x20: .cfa -16 + ^ x21: .cfa -24 + ^ x22: .cfa -32 + ^ x23: .cfa -40 + ^ x24: .cfa -48 + ^ x25: .cfa -56 + ^ x28: .cfa -64 + ^ .ra: .cfa -72 + ^ x29: .cfa -80 + ^
STACK CFI 20d78 .cfa: sp 288 +
STACK CFI 20d90 .cfa: sp 0 +
STACK CFI 20d94 .cfa: x29 80 +
STACK CFI INIT 20f54 fbc .cfa: sp 0 +
STACK CFI 20f58 .cfa: sp 112 +
STACK CFI 20f74 .cfa: x29 96 + x19: .cfa -8 + ^ x20: .cfa -16 + ^ x21: .cfa -24 + ^ x22: .cfa -32 + ^ x23: .cfa -40 + ^ x24: .cfa -48 + ^ x25: .cfa -56 + ^ x26: .cfa -64 + ^ x27: .cfa -72 + ^ x28: .cfa -80 + ^ .ra: .cfa -88 + ^ x29: .cfa -96 + ^ v8: .cfa -104 + ^ v9: .cfa -112 + ^
STACK CFI 21bac .cfa: sp 112 +
STACK CFI 21bc8 .cfa: sp 0 +
STACK CFI 21bcc .cfa: x29 96 +
STACK CFI INIT 21f10 1c .cfa: sp 0 +
STACK CFI 21f14 .cfa: sp 16 +
STACK CFI 21f18 .cfa: x29 16 + .ra: .cfa -8 + ^ x29: .cfa -16 + ^
STACK CFI 21f20 .cfa: sp 16 +
STACK CFI 21f24 .cfa: sp 0 +
STACK CFI 21f28 .cfa: x29 16 +
STACK CFI INIT 21f2c 294 .cfa: sp 0 +
STACK CFI 21f30 .cfa: sp 144 +
STACK CFI 21f4c .cfa: x29 96 + x19: .cfa -8 + ^ x20: .cfa -16 + ^ x21: .cfa -24 + ^ x22: .cfa -32 + ^ x23: .cfa -40 + ^ x24: .cfa -48 + ^ x25: .cfa -56 + ^ x26: .cfa -64 + ^ x27: .cfa -72 + ^ x28: .cfa -80 + ^ .ra: .cfa -88 + ^ x29: .cfa -96 + ^
STACK CFI 2214c .cfa: sp 144 +
STACK CFI 22168 .cfa: sp 0 +
STACK CFI 2216c .cfa: x29 96 +
STACK CFI INIT 221fc 134 .cfa: sp 0 +
STACK CFI 22200 .cfa: sp 80 +
STACK CFI 22210 .cfa: x29 48 + x19: .cfa -8 + ^ x20: .cfa -16 + ^ x21: .cfa -24 + ^ x22: .cfa -32 + ^ .ra: .cfa -40 + ^ x29: .cfa -48 + ^
STACK CFI 22314 .cfa: sp 80 +
STACK CFI 22324 .cfa: sp 0 +
STACK CFI 22328 .cfa: x29 48 +
STACK CFI INIT 22330 130 .cfa: sp 0 +
STACK CFI 22334 .cfa: sp 96 +
STACK CFI 22348 .cfa: x29 48 + x19: .cfa -8 + ^ x20: .cfa -16 + ^ x21: .cfa -24 + ^ x22: .cfa -32 + ^ .ra: .cfa -40 + ^ x29: .cfa -48 + ^ v8: .cfa -64 + ^
STACK CFI 22440 .cfa: sp 96 +
STACK CFI 22454 .cfa: sp 0 +
STACK CFI 22458 .cfa: x29 48 +
STACK CFI INIT 22614 1b8 .cfa: sp 0 +
STACK CFI 22618 .cfa: sp 112 +
STACK CFI 22628 .cfa: x29 48 + x19: .cfa -8 + ^ x20: .cfa -16 + ^ x21: .cfa -32 + ^ .ra: .cfa -40 + ^ x29: .cfa -48 + ^
STACK CFI 22724 .cfa: sp 112 +
STACK CFI 22734 .cfa: sp 0 +
STACK CFI 22738 .cfa: x29 48 +
STACK CFI INIT 227cc 2b8 .cfa: sp 0 +
STACK CFI 227d0 .cfa: sp 160 +
STACK CFI 227ec .cfa: x29 96 + x19: .cfa -8 + ^ x20: .cfa -16 + ^ x21: .cfa -24 + ^ x22: .cfa -32 + ^ x23: .cfa -40 + ^ x24: .cfa -48 + ^ x25: .cfa -56 + ^ x26: .cfa -64 + ^ x27: .cfa -72 + ^ x28: .cfa -80 + ^ .ra: .cfa -88 + ^ x29: .cfa -96 + ^
STACK CFI 22824 .cfa: sp 160 +
STACK CFI 22840 .cfa: sp 0 +
STACK CFI 22844 .cfa: x29 96 +
STACK CFI INIT 22a84 114 .cfa: sp 0 +
STACK CFI 22a88 .cfa: sp 64 +
STACK CFI 22a98 .cfa: x29 64 + x19: .cfa -8 + ^ x20: .cfa -16 + ^ x21: .cfa -24 + ^ x22: .cfa -32 + ^ x23: .cfa -48 + ^ .ra: .cfa -56 + ^ x29: .cfa -64 + ^
STACK CFI 22b74 .cfa: sp 64 +
STACK CFI 22b84 .cfa: sp 0 +
STACK CFI 22b88 .cfa: x29 64 +
STACK CFI INIT 22bc0 50 .cfa: sp 0 +
STACK CFI 22bc4 .cfa: sp 32 +
STACK CFI 22bcc .cfa: x29 32 + x19: .cfa -8 + ^ x20: .cfa -16 + ^ .ra: .cfa -24 + ^ x29: .cfa -32 + ^
STACK CFI INIT 22c74 22c .cfa: sp 0 +
STACK CFI 22c78 .cfa: sp 96 +
STACK CFI 22c90 .cfa: x29 96 + x19: .cfa -8 + ^ x20: .cfa -16 + ^ x21: .cfa -24 + ^ x22: .cfa -32 + ^ x23: .cfa -40 + ^ x24: .cfa -48 + ^ x25: .cfa -56 + ^ x26: .cfa -64 + ^ x27: .cfa -80 + ^ .ra: .cfa -88 + ^ x29: .cfa -96 + ^
STACK CFI 22e34 .cfa: sp 96 +
STACK CFI 22e4c .cfa: sp 0 +
STACK CFI 22e50 .cfa: x29 96 +
STACK CFI INIT 22ec8 50 .cfa: sp 0 +
STACK CFI 22ecc .cfa: sp 32 +
STACK CFI 22ed4 .cfa: x29 32 + x19: .cfa -8 + ^ x20: .cfa -16 + ^ .ra: .cfa -24 + ^ x29: .cfa -32 + ^
STACK CFI INIT 23228 188 .cfa: sp 0 +
STACK CFI 2322c .cfa: sp 64 +
STACK CFI 2323c .cfa: x29 48 + x19: .cfa -8 + ^ x20: .cfa -16 + ^ x21: .cfa -24 + ^ x22: .cfa -32 + ^ .ra: .cfa -40 + ^ x29: .cfa -48 + ^
STACK CFI 2335c .cfa: sp 64 +
STACK CFI 2336c .cfa: sp 0 +
STACK CFI 23370 .cfa: x29 48 +
STACK CFI INIT 233b0 190 .cfa: sp 0 +
STACK CFI 233b4 .cfa: sp 96 +
STACK CFI 233c4 .cfa: x29 48 + x19: .cfa -8 + ^ x20: .cfa -16 + ^ x21: .cfa -24 + ^ x22: .cfa -32 + ^ .ra: .cfa -40 + ^ x29: .cfa -48 + ^
STACK CFI 234bc .cfa: sp 96 +
STACK CFI 234cc .cfa: sp 0 +
STACK CFI 234d0 .cfa: x29 48 +
STACK CFI INIT 23a0c 3fc .cfa: sp 0 +
STACK CFI 23a10 .cfa: sp 224 +
STACK CFI 23a2c .cfa: x29 96 + x19: .cfa -8 + ^ x20: .cfa -16 + ^ x21: .cfa -24 + ^ x22: .cfa -32 + ^ x23: .cfa -40 + ^ x24: .cfa -48 + ^ x25: .cfa -56 + ^ x26: .cfa -64 + ^ x27: .cfa -72 + ^ x28: .cfa -80 + ^ .ra: .cfa -88 + ^ x29: .cfa -96 + ^
STACK CFI 23d04 .cfa: sp 224 +
STACK CFI 23d20 .cfa: sp 0 +
STACK CFI 23d24 .cfa: x29 96 +
STACK CFI INIT 23e08 a20 .cfa: sp 0 +
STACK CFI 23e0c .cfa: sp 176 +
STACK CFI 23e20 .cfa: x29 64 + x19: .cfa -8 + ^ x20: .cfa -16 + ^ x21: .cfa -24 + ^ x22: .cfa -32 + ^ x23: .cfa -40 + ^ x24: .cfa -48 + ^ .ra: .cfa -56 + ^ x29: .cfa -64 + ^
STACK CFI 24580 .cfa: sp 176 +
STACK CFI 24594 .cfa: sp 0 +
STACK CFI 24598 .cfa: x29 64 +
STACK CFI INIT 24878 74 .cfa: sp 0 +
STACK CFI 2487c .cfa: sp 48 +
STACK CFI 24888 .cfa: x29 32 + x19: .cfa -8 + ^ x20: .cfa -16 + ^ .ra: .cfa -24 + ^ x29: .cfa -32 + ^
STACK CFI 248d4 .cfa: sp 48 +
STACK CFI 248e0 .cfa: sp 0 +
STACK CFI 248e4 .cfa: x29 32 +
STACK CFI INIT 248f0 154 .cfa: sp 0 +
STACK CFI 248f4 .cfa: sp 384 +
STACK CFI 24908 .cfa: x29 64 + x19: .cfa -8 + ^ x20: .cfa -16 + ^ x21: .cfa -24 + ^ x22: .cfa -32 + ^ x23: .cfa -40 + ^ x28: .cfa -48 + ^ .ra: .cfa -56 + ^ x29: .cfa -64 + ^
STACK CFI 249ec .cfa: sp 384 +
STACK CFI 24a00 .cfa: sp 0 +
STACK CFI 24a04 .cfa: x29 64 +
STACK CFI INIT 24a78 12c .cfa: sp 0 +
STACK CFI 24a7c .cfa: sp 80 +
STACK CFI 24a90 .cfa: x29 80 + x19: .cfa -8 + ^ x20: .cfa -16 + ^ x21: .cfa -24 + ^ x22: .cfa -32 + ^ x23: .cfa -40 + ^ x24: .cfa -48 + ^ x25: .cfa -56 + ^ x26: .cfa -64 + ^ .ra: .cfa -72 + ^ x29: .cfa -80 + ^
STACK CFI 24b58 .cfa: sp 80 +
STACK CFI 24b6c .cfa: sp 0 +
STACK CFI 24b70 .cfa: x29 80 +
STACK CFI INIT 24c48 1a4 .cfa: sp 0 +
STACK CFI 24c4c .cfa: sp 112 +
STACK CFI 24c64 .cfa: x29 80 + x19: .cfa -8 + ^ x20: .cfa -16 + ^ x21: .cfa -24 + ^ x22: .cfa -32 + ^ x23: .cfa -40 + ^ x24: .cfa -48 + ^ x25: .cfa -56 + ^ x26: .cfa -64 + ^ .ra: .cfa -72 + ^ x29: .cfa -80 + ^
STACK CFI 24d54 .cfa: sp 112 +
STACK CFI 24d6c .cfa: sp 0 +
STACK CFI 24d70 .cfa: x29 80 +
STACK CFI INIT 24dec 1dc .cfa: sp 0 +
STACK CFI 24df0 .cfa: sp 128 +
STACK CFI 24e0c .cfa: x29 96 + x19: .cfa -8 + ^ x20: .cfa -16 + ^ x21: .cfa -24 + ^ x22: .cfa -32 + ^ x23: .cfa -40 + ^ x24: .cfa -48 + ^ x25: .cfa -56 + ^ x26: .cfa -64 + ^ x27: .cfa -80 + ^ .ra: .cfa -88 + ^ x29: .cfa -96 + ^
STACK CFI 24f78 .cfa: sp 128 +
STACK CFI 24f94 .cfa: sp 0 +
STACK CFI 24f98 .cfa: x29 96 +
STACK CFI INIT 24fc8 178 .cfa: sp 0 +
STACK CFI 24fcc .cfa: sp 80 +
STACK CFI 24fe0 .cfa: x29 80 + x19: .cfa -8 + ^ x20: .cfa -16 + ^ x21: .cfa -24 + ^ x22: .cfa -32 + ^ x23: .cfa -40 + ^ x24: .cfa -48 + ^ x25: .cfa -64 + ^ .ra: .cfa -72 + ^ x29: .cfa -80 + ^
STACK CFI 2510c .cfa: sp 80 +
STACK CFI 25120 .cfa: sp 0 +
STACK CFI 25124 .cfa: x29 80 +
STACK CFI INIT 25288 228 .cfa: sp 0 +
STACK CFI 2528c .cfa: sp 128 +
STACK CFI 252a4 .cfa: x29 80 + x19: .cfa -8 + ^ x20: .cfa -16 + ^ x21: .cfa -24 + ^ x22: .cfa -32 + ^ x23: .cfa -40 + ^ x24: .cfa -48 + ^ x25: .cfa -64 + ^ .ra: .cfa -72 + ^ x29: .cfa -80 + ^
STACK CFI 25440 .cfa: sp 128 +
STACK CFI 25458 .cfa: sp 0 +
STACK CFI 2545c .cfa: x29 80 +
STACK CFI INIT 25b8c 118 .cfa: sp 0 +
STACK CFI 25b90 .cfa: sp 144 +
STACK CFI 25ba8 .cfa: x29 80 + x19: .cfa -8 + ^ x20: .cfa -16 + ^ x21: .cfa -24 + ^ x22: .cfa -32 + ^ x23: .cfa -40 + ^ x24: .cfa -48 + ^ x25: .cfa -64 + ^ .ra: .cfa -72 + ^ x29: .cfa -80 + ^
STACK CFI 25c50 .cfa: sp 144 +
STACK CFI 25c68 .cfa: sp 0 +
STACK CFI 25c6c .cfa: x29 80 +
STACK CFI INIT 25ca8 134 .cfa: sp 0 +
STACK CFI 25cac .cfa: sp 128 +
STACK CFI 25cc0 .cfa: x29 64 + x19: .cfa -8 + ^ x20: .cfa -16 + ^ x21: .cfa -24 + ^ x22: .cfa -32 + ^ x23: .cfa -40 + ^ x24: .cfa -48 + ^ .ra: .cfa -56 + ^ x29: .cfa -64 + ^
STACK CFI 25d8c .cfa: sp 128 +
STACK CFI 25da0 .cfa: sp 0 +
STACK CFI 25da4 .cfa: x29 64 +
STACK CFI INIT 25de0 118 .cfa: sp 0 +
STACK CFI 25de4 .cfa: sp 144 +
STACK CFI 25dfc .cfa: x29 80 + x19: .cfa -8 + ^ x20: .cfa -16 + ^ x21: .cfa -24 + ^ x22: .cfa -32 + ^ x23: .cfa -40 + ^ x24: .cfa -48 + ^ x25: .cfa -64 + ^ .ra: .cfa -72 + ^ x29: .cfa -80 + ^
STACK CFI 25ea4 .cfa: sp 144 +
STACK CFI 25ebc .cfa: sp 0 +
STACK CFI 25ec0 .cfa: x29 80 +
STACK CFI INIT 25ef8 ec .cfa: sp 0 +
STACK CFI 25efc .cfa: sp 112 +
STACK CFI 25f18 .cfa: x29 64 + x19: .cfa -8 + ^ x20: .cfa -16 + ^ x21: .cfa -24 + ^ x22: .cfa -32 + ^ x23: .cfa -40 + ^ x24: .cfa -48 + ^ .ra: .cfa -56 + ^ x29: .cfa -64 + ^ v8: .cfa -72 + ^ v9: .cfa -80 + ^ v10: .cfa -96 + ^
STACK CFI 25f9c .cfa: sp 112 +
STACK CFI 25fb8 .cfa: sp 0 +
STACK CFI 25fbc .cfa: x29 64 +
STACK CFI INIT 25fe4 184 .cfa: sp 0 +
STACK CFI 25fe8 .cfa: sp 160 +
STACK CFI 26000 .cfa: x29 80 + x19: .cfa -8 + ^ x20: .cfa -16 + ^ x21: .cfa -24 + ^ x22: .cfa -32 + ^ x23: .cfa -40 + ^ x24: .cfa -48 + ^ x25: .cfa -56 + ^ x26: .cfa -64 + ^ .ra: .cfa -72 + ^ x29: .cfa -80 + ^
STACK CFI 26100 .cfa: sp 160 +
STACK CFI 26118 .cfa: sp 0 +
STACK CFI 2611c .cfa: x29 80 +
STACK CFI INIT 261e0 ec .cfa: sp 0 +
STACK CFI 261e4 .cfa: sp 48 +
STACK CFI 261f0 .cfa: x29 48 + x19: .cfa -8 + ^ x20: .cfa -16 + ^ x21: .cfa -24 + ^ x22: .cfa -32 + ^ .ra: .cfa -40 + ^ x29: .cfa -48 + ^
STACK CFI 2623c .cfa: sp 48 +
STACK CFI 26248 .cfa: sp 0 +
STACK CFI 2624c .cfa: x29 48 +
STACK CFI 26250 .cfa: sp 48 +
STACK CFI 2625c .cfa: sp 0 +
STACK CFI 26260 .cfa: x29 48 +
STACK CFI INIT 2634c 108 .cfa: sp 0 +
STACK CFI 26350 .cfa: sp 64 +
STACK CFI 26360 .cfa: x29 48 + x19: .cfa -8 + ^ x20: .cfa -16 + ^ x21: .cfa -24 + ^ x22: .cfa -32 + ^ .ra: .cfa -40 + ^ x29: .cfa -48 + ^
STACK CFI 2640c .cfa: sp 64 +
STACK CFI 2641c .cfa: sp 0 +
STACK CFI 26420 .cfa: x29 48 +
STACK CFI INIT 26844 ec .cfa: sp 0 +
STACK CFI 26848 .cfa: sp 48 +
STACK CFI 26854 .cfa: x29 48 + x19: .cfa -8 + ^ x20: .cfa -16 + ^ x21: .cfa -24 + ^ x22: .cfa -32 + ^ .ra: .cfa -40 + ^ x29: .cfa -48 + ^
STACK CFI 268a0 .cfa: sp 48 +
STACK CFI 268ac .cfa: sp 0 +
STACK CFI 268b0 .cfa: x29 48 +
STACK CFI 268b4 .cfa: sp 48 +
STACK CFI 268c0 .cfa: sp 0 +
STACK CFI 268c4 .cfa: x29 48 +
STACK CFI INIT 26930 8f8 .cfa: sp 0 +
STACK CFI 26934 .cfa: sp 112 +
STACK CFI 2694c .cfa: x29 80 + x19: .cfa -8 + ^ x20: .cfa -16 + ^ x21: .cfa -24 + ^ x22: .cfa -32 + ^ x23: .cfa -40 + ^ x24: .cfa -48 + ^ x25: .cfa -64 + ^ .ra: .cfa -72 + ^ x29: .cfa -80 + ^
STACK CFI 27164 .cfa: sp 112 +
STACK CFI 2717c .cfa: sp 0 +
STACK CFI 27180 .cfa: x29 80 +
STACK CFI INIT 27228 3fc .cfa: sp 0 +
STACK CFI 2722c .cfa: sp 224 +
STACK CFI 27248 .cfa: x29 96 + x19: .cfa -8 + ^ x20: .cfa -16 + ^ x21: .cfa -24 + ^ x22: .cfa -32 + ^ x23: .cfa -40 + ^ x24: .cfa -48 + ^ x25: .cfa -56 + ^ x26: .cfa -64 + ^ x27: .cfa -72 + ^ x28: .cfa -80 + ^ .ra: .cfa -88 + ^ x29: .cfa -96 + ^
STACK CFI 27520 .cfa: sp 224 +
STACK CFI 2753c .cfa: sp 0 +
STACK CFI 27540 .cfa: x29 96 +
STACK CFI INIT 27624 a44 .cfa: sp 0 +
STACK CFI 27628 .cfa: sp 176 +
STACK CFI 2763c .cfa: x29 64 + x19: .cfa -8 + ^ x20: .cfa -16 + ^ x21: .cfa -24 + ^ x22: .cfa -32 + ^ x23: .cfa -40 + ^ x24: .cfa -48 + ^ .ra: .cfa -56 + ^ x29: .cfa -64 + ^
STACK CFI 27dc8 .cfa: sp 176 +
STACK CFI 27ddc .cfa: sp 0 +
STACK CFI 27de0 .cfa: x29 64 +
STACK CFI INIT 2806c 118 .cfa: sp 0 +
STACK CFI 28070 .cfa: sp 144 +
STACK CFI 28088 .cfa: x29 80 + x19: .cfa -8 + ^ x20: .cfa -16 + ^ x21: .cfa -24 + ^ x22: .cfa -32 + ^ x23: .cfa -40 + ^ x24: .cfa -48 + ^ x25: .cfa -64 + ^ .ra: .cfa -72 + ^ x29: .cfa -80 + ^
STACK CFI 28130 .cfa: sp 144 +
STACK CFI 28148 .cfa: sp 0 +
STACK CFI 2814c .cfa: x29 80 +
STACK CFI INIT 2818c 184 .cfa: sp 0 +
STACK CFI 28190 .cfa: sp 144 +
STACK CFI 281a8 .cfa: x29 80 + x19: .cfa -8 + ^ x20: .cfa -16 + ^ x21: .cfa -24 + ^ x22: .cfa -32 + ^ x23: .cfa -40 + ^ x24: .cfa -48 + ^ x25: .cfa -56 + ^ x26: .cfa -64 + ^ .ra: .cfa -72 + ^ x29: .cfa -80 + ^
STACK CFI 282a8 .cfa: sp 144 +
STACK CFI 282c0 .cfa: sp 0 +
STACK CFI 282c4 .cfa: x29 80 +
STACK CFI INIT 28314 184 .cfa: sp 0 +
STACK CFI 28318 .cfa: sp 160 +
STACK CFI 28330 .cfa: x29 80 + x19: .cfa -8 + ^ x20: .cfa -16 + ^ x21: .cfa -24 + ^ x22: .cfa -32 + ^ x23: .cfa -40 + ^ x24: .cfa -48 + ^ x25: .cfa -56 + ^ x26: .cfa -64 + ^ .ra: .cfa -72 + ^ x29: .cfa -80 + ^
STACK CFI 28430 .cfa: sp 160 +
STACK CFI 28448 .cfa: sp 0 +
STACK CFI 2844c .cfa: x29 80 +
STACK CFI INIT 284c8 134 .cfa: sp 0 +
STACK CFI 284cc .cfa: sp 128 +
STACK CFI 284e0 .cfa: x29 64 + x19: .cfa -8 + ^ x20: .cfa -16 + ^ x21: .cfa -24 + ^ x22: .cfa -32 + ^ x23: .cfa -40 + ^ x24: .cfa -48 + ^ .ra: .cfa -56 + ^ x29: .cfa -64 + ^
STACK CFI 285ac .cfa: sp 128 +
STACK CFI 285c0 .cfa: sp 0 +
STACK CFI 285c4 .cfa: x29 64 +
STACK CFI INIT 2860c 118 .cfa: sp 0 +
STACK CFI 28610 .cfa: sp 144 +
STACK CFI 28628 .cfa: x29 80 + x19: .cfa -8 + ^ x20: .cfa -16 + ^ x21: .cfa -24 + ^ x22: .cfa -32 + ^ x23: .cfa -40 + ^ x24: .cfa -48 + ^ x25: .cfa -64 + ^ .ra: .cfa -72 + ^ x29: .cfa -80 + ^
STACK CFI 286d0 .cfa: sp 144 +
STACK CFI 286e8 .cfa: sp 0 +
STACK CFI 286ec .cfa: x29 80 +
STACK CFI INIT 28728 ec .cfa: sp 0 +
STACK CFI 2872c .cfa: sp 48 +
STACK CFI 28738 .cfa: x29 48 + x19: .cfa -8 + ^ x20: .cfa -16 + ^ x21: .cfa -24 + ^ x22: .cfa -32 + ^ .ra: .cfa -40 + ^ x29: .cfa -48 + ^
STACK CFI 28784 .cfa: sp 48 +
STACK CFI 28790 .cfa: sp 0 +
STACK CFI 28794 .cfa: x29 48 +
STACK CFI 28798 .cfa: sp 48 +
STACK CFI 287a4 .cfa: sp 0 +
STACK CFI 287a8 .cfa: x29 48 +
STACK CFI INIT 288a0 108 .cfa: sp 0 +
STACK CFI 288a4 .cfa: sp 64 +
STACK CFI 288b4 .cfa: x29 48 + x19: .cfa -8 + ^ x20: .cfa -16 + ^ x21: .cfa -24 + ^ x22: .cfa -32 + ^ .ra: .cfa -40 + ^ x29: .cfa -48 + ^
STACK CFI 28960 .cfa: sp 64 +
STACK CFI 28970 .cfa: sp 0 +
STACK CFI 28974 .cfa: x29 48 +
STACK CFI INIT 289a8 ec .cfa: sp 0 +
STACK CFI 289ac .cfa: sp 48 +
STACK CFI 289b8 .cfa: x29 48 + x19: .cfa -8 + ^ x20: .cfa -16 + ^ x21: .cfa -24 + ^ x22: .cfa -32 + ^ .ra: .cfa -40 + ^ x29: .cfa -48 + ^
STACK CFI 28a04 .cfa: sp 48 +
STACK CFI 28a10 .cfa: sp 0 +
STACK CFI 28a14 .cfa: x29 48 +
STACK CFI 28a18 .cfa: sp 48 +
STACK CFI 28a24 .cfa: sp 0 +
STACK CFI 28a28 .cfa: x29 48 +
STACK CFI INIT 28a94 2d4 .cfa: sp 0 +
STACK CFI 28a98 .cfa: sp 96 +
STACK CFI 28ab0 .cfa: x29 80 + x19: .cfa -8 + ^ x20: .cfa -16 + ^ x21: .cfa -24 + ^ x22: .cfa -32 + ^ x23: .cfa -40 + ^ x24: .cfa -48 + ^ x25: .cfa -64 + ^ .ra: .cfa -72 + ^ x29: .cfa -80 + ^
STACK CFI 28d04 .cfa: sp 96 +
STACK CFI 28d1c .cfa: sp 0 +
STACK CFI 28d20 .cfa: x29 80 +
STACK CFI INIT 28d68 454 .cfa: sp 0 +
STACK CFI 28d6c .cfa: sp 128 +
STACK CFI 28d88 .cfa: x29 96 + x19: .cfa -8 + ^ x20: .cfa -16 + ^ x21: .cfa -24 + ^ x22: .cfa -32 + ^ x23: .cfa -40 + ^ x24: .cfa -48 + ^ x25: .cfa -56 + ^ x26: .cfa -64 + ^ x27: .cfa -72 + ^ x28: .cfa -80 + ^ .ra: .cfa -88 + ^ x29: .cfa -96 + ^
STACK CFI 29170 .cfa: sp 128 +
STACK CFI 2918c .cfa: sp 0 +
STACK CFI 29190 .cfa: x29 96 +
STACK CFI INIT 29810 254 .cfa: sp 0 +
STACK CFI 29814 .cfa: sp 96 +
STACK CFI 2982c .cfa: x29 80 + x19: .cfa -8 + ^ x20: .cfa -16 + ^ x21: .cfa -24 + ^ x22: .cfa -32 + ^ x23: .cfa -40 + ^ x24: .cfa -48 + ^ x25: .cfa -64 + ^ .ra: .cfa -72 + ^ x29: .cfa -80 + ^
STACK CFI 29a40 .cfa: sp 96 +
STACK CFI 29a58 .cfa: sp 0 +
STACK CFI 29a5c .cfa: x29 80 +
STACK CFI INIT 29e38 174 .cfa: sp 0 +
STACK CFI 29e3c .cfa: sp 112 +
STACK CFI 29e4c .cfa: x29 48 + x19: .cfa -8 + ^ x20: .cfa -16 + ^ x21: .cfa -32 + ^ .ra: .cfa -40 + ^ x29: .cfa -48 + ^
STACK CFI 29f48 .cfa: sp 112 +
STACK CFI 29f58 .cfa: sp 0 +
STACK CFI 29f5c .cfa: x29 48 +
STACK CFI INIT 2a780 254 .cfa: sp 0 +
STACK CFI 2a784 .cfa: sp 96 +
STACK CFI 2a79c .cfa: x29 80 + x19: .cfa -8 + ^ x20: .cfa -16 + ^ x21: .cfa -24 + ^ x22: .cfa -32 + ^ x23: .cfa -40 + ^ x24: .cfa -48 + ^ x25: .cfa -64 + ^ .ra: .cfa -72 + ^ x29: .cfa -80 + ^
STACK CFI 2a9b0 .cfa: sp 96 +
STACK CFI 2a9c8 .cfa: sp 0 +
STACK CFI 2a9cc .cfa: x29 80 +
STACK CFI INIT 2aa60 4c4 .cfa: sp 0 +
STACK CFI 2aa64 .cfa: sp 128 +
STACK CFI 2aa80 .cfa: x29 96 + x19: .cfa -8 + ^ x20: .cfa -16 + ^ x21: .cfa -24 + ^ x22: .cfa -32 + ^ x23: .cfa -40 + ^ x24: .cfa -48 + ^ x25: .cfa -56 + ^ x26: .cfa -64 + ^ x27: .cfa -72 + ^ x28: .cfa -80 + ^ .ra: .cfa -88 + ^ x29: .cfa -96 + ^
STACK CFI 2aed4 .cfa: sp 128 +
STACK CFI 2aef0 .cfa: sp 0 +
STACK CFI 2aef4 .cfa: x29 96 +
STACK CFI INIT 2af24 a88 .cfa: sp 0 +
STACK CFI 2af28 .cfa: sp 96 +
STACK CFI 2af40 .cfa: x29 96 + x19: .cfa -8 + ^ x20: .cfa -16 + ^ x21: .cfa -24 + ^ x22: .cfa -32 + ^ x23: .cfa -40 + ^ x24: .cfa -48 + ^ x25: .cfa -56 + ^ x26: .cfa -64 + ^ x27: .cfa -72 + ^ x28: .cfa -80 + ^ .ra: .cfa -88 + ^ x29: .cfa -96 + ^
STACK CFI 2b7dc .cfa: sp 96 +
STACK CFI 2b7f4 .cfa: sp 0 +
STACK CFI 2b7f8 .cfa: x29 96 +
STACK CFI INIT 2b9ac 18c .cfa: sp 0 +
STACK CFI 2b9b0 .cfa: sp 112 +
STACK CFI 2b9c0 .cfa: x29 48 + x19: .cfa -8 + ^ x20: .cfa -16 + ^ x21: .cfa -32 + ^ .ra: .cfa -40 + ^ x29: .cfa -48 + ^
STACK CFI 2ba90 .cfa: sp 112 +
STACK CFI 2baa0 .cfa: sp 0 +
STACK CFI 2baa4 .cfa: x29 48 +
STACK CFI INIT 2bb3c 1d4 .cfa: sp 0 +
STACK CFI 2bb40 .cfa: sp 320 +
STACK CFI 2bb58 .cfa: x29 80 + x19: .cfa -8 + ^ x20: .cfa -16 + ^ x21: .cfa -24 + ^ x22: .cfa -32 + ^ x23: .cfa -40 + ^ x24: .cfa -48 + ^ x28: .cfa -64 + ^ .ra: .cfa -72 + ^ x29: .cfa -80 + ^
STACK CFI 2bcc4 .cfa: sp 320 +
STACK CFI 2bcdc .cfa: sp 0 +
STACK CFI 2bce0 .cfa: x29 80 +
STACK CFI INIT 2ea40 480 .cfa: sp 0 +
STACK CFI 2ea44 .cfa: sp 224 +
STACK CFI 2ea60 .cfa: x29 96 + x19: .cfa -8 + ^ x20: .cfa -16 + ^ x21: .cfa -24 + ^ x22: .cfa -32 + ^ x23: .cfa -40 + ^ x24: .cfa -48 + ^ x25: .cfa -56 + ^ x26: .cfa -64 + ^ x27: .cfa -80 + ^ .ra: .cfa -88 + ^ x29: .cfa -96 + ^
STACK CFI 2eccc .cfa: sp 224 +
STACK CFI 2ece8 .cfa: sp 0 +
STACK CFI 2ecec .cfa: x29 96 +
STACK CFI 2edb8 .cfa: sp 224 +
STACK CFI 2edd4 .cfa: sp 0 +
STACK CFI 2edd8 .cfa: x29 96 +
STACK CFI INIT 2eedc 1c .cfa: sp 0 +
STACK CFI 2eee0 .cfa: sp 16 +
STACK CFI 2eee4 .cfa: x29 16 + .ra: .cfa -8 + ^ x29: .cfa -16 + ^
STACK CFI 2eeec .cfa: sp 16 +
STACK CFI 2eef0 .cfa: sp 0 +
STACK CFI 2eef4 .cfa: x29 16 +
STACK CFI INIT 2eef8 c4 .cfa: sp 0 +
STACK CFI 2eefc .cfa: sp 48 +
STACK CFI 2ef08 .cfa: x29 48 + x19: .cfa -8 + ^ x20: .cfa -16 + ^ x21: .cfa -32 + ^ .ra: .cfa -40 + ^ x29: .cfa -48 + ^
STACK CFI 2ef74 .cfa: sp 48 +
STACK CFI 2ef80 .cfa: sp 0 +
STACK CFI 2ef84 .cfa: x29 48 +
STACK CFI 2efa8 .cfa: sp 48 +
STACK CFI 2efb4 .cfa: sp 0 +
STACK CFI 2efb8 .cfa: x29 48 +
STACK CFI INIT 2efbc 84 .cfa: sp 0 +
STACK CFI 2efc0 .cfa: sp 48 +
STACK CFI 2efcc .cfa: x29 48 + x19: .cfa -8 + ^ x20: .cfa -16 + ^ x21: .cfa -32 + ^ .ra: .cfa -40 + ^ x29: .cfa -48 + ^
STACK CFI 2efec .cfa: sp 48 +
STACK CFI 2eff8 .cfa: sp 0 +
STACK CFI 2effc .cfa: x29 48 +
STACK CFI 2f01c .cfa: sp 48 +
STACK CFI 2f028 .cfa: sp 0 +
STACK CFI 2f02c .cfa: sp 48 +
STACK CFI 2f038 .cfa: sp 0 +
STACK CFI 2f03c .cfa: x29 48 +
STACK CFI INIT 2f040 94 .cfa: sp 0 +
STACK CFI 2f044 .cfa: sp 48 +
STACK CFI 2f050 .cfa: x29 48 + x19: .cfa -8 + ^ x20: .cfa -16 + ^ x21: .cfa -24 + ^ x22: .cfa -32 + ^ .ra: .cfa -40 + ^ x29: .cfa -48 + ^
STACK CFI 2f058 .cfa: sp 48 +
STACK CFI 2f064 .cfa: sp 0 +
STACK CFI 2f068 .cfa: x29 48 +
STACK CFI 2f08c .cfa: sp 48 +
STACK CFI 2f098 .cfa: sp 0 +
STACK CFI 2f09c .cfa: x29 48 +
STACK CFI 2f0c0 .cfa: sp 48 +
STACK CFI 2f0cc .cfa: sp 0 +
STACK CFI 2f0d0 .cfa: x29 48 +
STACK CFI INIT 2f0d4 48 .cfa: sp 0 +
STACK CFI 2f0d8 .cfa: sp 32 +
STACK CFI 2f0e0 .cfa: x29 32 + x19: .cfa -8 + ^ x20: .cfa -16 + ^ .ra: .cfa -24 + ^ x29: .cfa -32 + ^
STACK CFI 2f0e8 .cfa: sp 32 +
STACK CFI 2f0f0 .cfa: sp 0 +
STACK CFI 2f0f4 .cfa: x29 32 +
STACK CFI INIT 2f11c 3ec .cfa: sp 0 +
STACK CFI 2f120 .cfa: sp 288 +
STACK CFI 2f138 .cfa: x29 80 + x19: .cfa -8 + ^ x20: .cfa -16 + ^ x21: .cfa -24 + ^ x22: .cfa -32 + ^ x23: .cfa -40 + ^ x24: .cfa -48 + ^ x28: .cfa -64 + ^ .ra: .cfa -72 + ^ x29: .cfa -80 + ^
STACK CFI 2f3cc .cfa: sp 288 +
STACK CFI 2f3e4 .cfa: sp 0 +
STACK CFI 2f3e8 .cfa: x29 80 +
STACK CFI INIT 2f50c 124 .cfa: sp 0 +
STACK CFI 2f510 .cfa: sp 112 +
STACK CFI 2f528 .cfa: x29 80 + x19: .cfa -8 + ^ x20: .cfa -16 + ^ x21: .cfa -24 + ^ x22: .cfa -32 + ^ x23: .cfa -40 + ^ x24: .cfa -48 + ^ x25: .cfa -64 + ^ .ra: .cfa -72 + ^ x29: .cfa -80 + ^
STACK CFI 2f5e4 .cfa: sp 112 +
STACK CFI 2f5fc .cfa: sp 0 +
STACK CFI 2f600 .cfa: x29 80 +
STACK CFI INIT 2f630 eb0 .cfa: sp 0 +
STACK CFI 2f634 .cfa: sp 432 +
STACK CFI 2f64c .cfa: x29 80 + x19: .cfa -8 + ^ x20: .cfa -16 + ^ x21: .cfa -24 + ^ x22: .cfa -32 + ^ x23: .cfa -40 + ^ x24: .cfa -48 + ^ x25: .cfa -56 + ^ x28: .cfa -64 + ^ .ra: .cfa -72 + ^ x29: .cfa -80 + ^
STACK CFI 302b4 .cfa: sp 432 +
STACK CFI 302cc .cfa: sp 0 +
STACK CFI 302d0 .cfa: x29 80 +
STACK CFI INIT 304e0 2e4 .cfa: sp 0 +
STACK CFI 304e4 .cfa: sp 96 +
STACK CFI 304fc .cfa: x29 96 + x19: .cfa -8 + ^ x20: .cfa -16 + ^ x21: .cfa -24 + ^ x22: .cfa -32 + ^ x23: .cfa -40 + ^ x24: .cfa -48 + ^ x25: .cfa -56 + ^ x26: .cfa -64 + ^ x27: .cfa -72 + ^ x28: .cfa -80 + ^ .ra: .cfa -88 + ^ x29: .cfa -96 + ^
STACK CFI 30708 .cfa: sp 96 +
STACK CFI 30720 .cfa: sp 0 +
STACK CFI 30724 .cfa: x29 96 +
STACK CFI INIT 307c4 348 .cfa: sp 0 +
STACK CFI 307c8 .cfa: sp 128 +
STACK CFI 307e4 .cfa: x29 72 + x19: .cfa -8 + ^ x20: .cfa -16 + ^ x21: .cfa -24 + ^ x22: .cfa -32 + ^ x23: .cfa -40 + ^ x24: .cfa -48 + ^ x25: .cfa -56 + ^ .ra: .cfa -64 + ^ x29: .cfa -72 + ^ v8: .cfa -80 + ^
STACK CFI 30ab8 .cfa: sp 128 +
STACK CFI 30ad4 .cfa: sp 0 +
STACK CFI 30ad8 .cfa: x29 72 +
STACK CFI INIT 30c9c 2a8 .cfa: sp 0 +
STACK CFI 30ca0 .cfa: sp 112 +
STACK CFI 30cb4 .cfa: x29 48 + x19: .cfa -8 + ^ x20: .cfa -16 + ^ x21: .cfa -24 + ^ x22: .cfa -32 + ^ .ra: .cfa -40 + ^ x29: .cfa -48 + ^ v8: .cfa -56 + ^ v9: .cfa -64 + ^
STACK CFI 30ee4 .cfa: sp 112 +
STACK CFI 30ef8 .cfa: sp 0 +
STACK CFI 30efc .cfa: x29 48 +
STACK CFI INIT 30f44 1710 .cfa: sp 0 +
STACK CFI 30f48 .cfa: sp 432 +
STACK CFI 30f70 .cfa: x29 96 + x19: .cfa -8 + ^ x20: .cfa -16 + ^ x21: .cfa -24 + ^ x22: .cfa -32 + ^ x23: .cfa -40 + ^ x24: .cfa -48 + ^ x25: .cfa -56 + ^ x26: .cfa -64 + ^ x27: .cfa -72 + ^ x28: .cfa -80 + ^ .ra: .cfa -88 + ^ x29: .cfa -96 + ^ v8: .cfa -104 + ^ v9: .cfa -112 + ^ v10: .cfa -120 + ^ v11: .cfa -128 + ^ v12: .cfa -144 + ^
STACK CFI 32338 .cfa: sp 432 +
STACK CFI 32360 .cfa: sp 0 +
STACK CFI 32364 .cfa: x29 96 +
STACK CFI INIT 32654 1c .cfa: sp 0 +
STACK CFI 32658 .cfa: sp 16 +
STACK CFI 3265c .cfa: x29 16 + .ra: .cfa -8 + ^ x29: .cfa -16 + ^
STACK CFI 32664 .cfa: sp 16 +
STACK CFI 32668 .cfa: sp 0 +
STACK CFI 3266c .cfa: x29 16 +
STACK CFI INIT 327f8 134 .cfa: sp 0 +
STACK CFI 327fc .cfa: sp 80 +
STACK CFI 32808 .cfa: x29 32 + x19: .cfa -8 + ^ x20: .cfa -16 + ^ .ra: .cfa -24 + ^ x29: .cfa -32 + ^
STACK CFI 32838 .cfa: sp 80 +
STACK CFI 32844 .cfa: sp 0 +
STACK CFI 32848 .cfa: x29 32 +
STACK CFI INIT 3292c 78 .cfa: sp 0 +
STACK CFI 32930 .cfa: sp 32 +
STACK CFI 32938 .cfa: x29 32 + x19: .cfa -8 + ^ x20: .cfa -16 + ^ .ra: .cfa -24 + ^ x29: .cfa -32 + ^
STACK CFI 32944 .cfa: sp 32 +
STACK CFI 3294c .cfa: sp 0 +
STACK CFI 32950 .cfa: x29 32 +
STACK CFI INIT 329a4 74 .cfa: sp 0 +
STACK CFI 329a8 .cfa: sp 48 +
STACK CFI 329b4 .cfa: x29 32 + x19: .cfa -8 + ^ x20: .cfa -16 + ^ .ra: .cfa -24 + ^ x29: .cfa -32 + ^
STACK CFI 32a00 .cfa: sp 48 +
STACK CFI 32a0c .cfa: sp 0 +
STACK CFI 32a10 .cfa: x29 32 +
STACK CFI INIT 32b18 2d8 .cfa: sp 0 +
STACK CFI 32b1c .cfa: sp 128 +
STACK CFI 32b30 .cfa: x29 64 + x19: .cfa -8 + ^ x20: .cfa -16 + ^ x21: .cfa -24 + ^ x22: .cfa -32 + ^ x23: .cfa -48 + ^ .ra: .cfa -56 + ^ x29: .cfa -64 + ^
STACK CFI 32c9c .cfa: sp 128 +
STACK CFI 32cb0 .cfa: sp 0 +
STACK CFI 32cb4 .cfa: x29 64 +
STACK CFI INIT 32eec 1b8 .cfa: sp 0 +
STACK CFI 32ef0 .cfa: sp 160 +
STACK CFI 32f0c .cfa: x29 72 + x19: .cfa -8 + ^ x20: .cfa -16 + ^ x21: .cfa -24 + ^ x22: .cfa -32 + ^ x23: .cfa -40 + ^ x24: .cfa -48 + ^ x25: .cfa -56 + ^ .ra: .cfa -64 + ^ x29: .cfa -72 + ^ v8: .cfa -80 + ^
STACK CFI 32f90 .cfa: sp 160 +
STACK CFI 32fac .cfa: sp 0 +
STACK CFI 32fb0 .cfa: x29 72 +
STACK CFI INIT 330a4 4e4 .cfa: sp 0 +
STACK CFI 330a8 .cfa: sp 96 +
STACK CFI 330c0 .cfa: x29 80 + x19: .cfa -8 + ^ x20: .cfa -16 + ^ x21: .cfa -24 + ^ x22: .cfa -32 + ^ x23: .cfa -40 + ^ x24: .cfa -48 + ^ x25: .cfa -64 + ^ .ra: .cfa -72 + ^ x29: .cfa -80 + ^
STACK CFI 33504 .cfa: sp 96 +
STACK CFI 3351c .cfa: sp 0 +
STACK CFI 33520 .cfa: x29 80 +
STACK CFI INIT 33588 1e8 .cfa: sp 0 +
STACK CFI 3358c .cfa: sp 192 +
STACK CFI 335b0 .cfa: x29 88 + x19: .cfa -8 + ^ x20: .cfa -16 + ^ x21: .cfa -24 + ^ x22: .cfa -32 + ^ x23: .cfa -40 + ^ x24: .cfa -48 + ^ x25: .cfa -56 + ^ x26: .cfa -64 + ^ x27: .cfa -72 + ^ .ra: .cfa -80 + ^ x29: .cfa -88 + ^ v8: .cfa -96 + ^ v9: .cfa -104 + ^ v10: .cfa -112 + ^
STACK CFI 33654 .cfa: sp 192 +
STACK CFI 33678 .cfa: sp 0 +
STACK CFI 3367c .cfa: x29 88 +
STACK CFI INIT 33770 8f8 .cfa: sp 0 +
STACK CFI 33774 .cfa: sp 112 +
STACK CFI 3378c .cfa: x29 80 + x19: .cfa -8 + ^ x20: .cfa -16 + ^ x21: .cfa -24 + ^ x22: .cfa -32 + ^ x23: .cfa -40 + ^ x24: .cfa -48 + ^ x25: .cfa -64 + ^ .ra: .cfa -72 + ^ x29: .cfa -80 + ^
STACK CFI 33fa4 .cfa: sp 112 +
STACK CFI 33fbc .cfa: sp 0 +
STACK CFI 33fc0 .cfa: x29 80 +
STACK CFI INIT 34068 164 .cfa: sp 0 +
STACK CFI 3406c .cfa: sp 128 +
STACK CFI 34078 .cfa: x29 32 + x19: .cfa -8 + ^ x20: .cfa -16 + ^ .ra: .cfa -24 + ^ x29: .cfa -32 + ^
STACK CFI 340b8 .cfa: sp 128 +
STACK CFI 340c4 .cfa: sp 0 +
STACK CFI 340c8 .cfa: x29 32 +
STACK CFI INIT 341cc 1c8 .cfa: sp 0 +
STACK CFI 341d0 .cfa: sp 192 +
STACK CFI 341ec .cfa: x29 64 + x19: .cfa -8 + ^ x20: .cfa -16 + ^ x21: .cfa -24 + ^ x22: .cfa -32 + ^ x23: .cfa -40 + ^ x24: .cfa -48 + ^ .ra: .cfa -56 + ^ x29: .cfa -64 + ^ v8: .cfa -72 + ^ v9: .cfa -80 + ^ v10: .cfa -96 + ^
STACK CFI 34280 .cfa: sp 192 +
STACK CFI 3429c .cfa: sp 0 +
STACK CFI 342a0 .cfa: x29 64 +
STACK CFI INIT 34394 5bc .cfa: sp 0 +
STACK CFI 34398 .cfa: sp 112 +
STACK CFI 343b0 .cfa: x29 80 + x19: .cfa -8 + ^ x20: .cfa -16 + ^ x21: .cfa -24 + ^ x22: .cfa -32 + ^ x23: .cfa -40 + ^ x24: .cfa -48 + ^ x25: .cfa -64 + ^ .ra: .cfa -72 + ^ x29: .cfa -80 + ^
STACK CFI 348bc .cfa: sp 112 +
STACK CFI 348d4 .cfa: sp 0 +
STACK CFI 348d8 .cfa: x29 80 +
STACK CFI INIT 34954 2bc .cfa: sp 0 +
STACK CFI 34958 .cfa: sp 128 +
STACK CFI 3496c .cfa: x29 64 + x19: .cfa -8 + ^ x20: .cfa -16 + ^ x21: .cfa -24 + ^ x22: .cfa -32 + ^ x23: .cfa -48 + ^ .ra: .cfa -56 + ^ x29: .cfa -64 + ^
STACK CFI 34abc .cfa: sp 128 +
STACK CFI 34ad0 .cfa: sp 0 +
STACK CFI 34ad4 .cfa: x29 64 +
STACK CFI INIT 34c10 2bc .cfa: sp 0 +
STACK CFI 34c14 .cfa: sp 128 +
STACK CFI 34c28 .cfa: x29 64 + x19: .cfa -8 + ^ x20: .cfa -16 + ^ x21: .cfa -24 + ^ x22: .cfa -32 + ^ x23: .cfa -48 + ^ .ra: .cfa -56 + ^ x29: .cfa -64 + ^
STACK CFI 34d78 .cfa: sp 128 +
STACK CFI 34d8c .cfa: sp 0 +
STACK CFI 34d90 .cfa: x29 64 +
STACK CFI INIT 34ecc 278 .cfa: sp 0 +
STACK CFI 34ed0 .cfa: sp 128 +
STACK CFI 34ee4 .cfa: x29 64 + x19: .cfa -8 + ^ x20: .cfa -16 + ^ x21: .cfa -24 + ^ x22: .cfa -32 + ^ x23: .cfa -48 + ^ .ra: .cfa -56 + ^ x29: .cfa -64 + ^
STACK CFI 34ff0 .cfa: sp 128 +
STACK CFI 35004 .cfa: sp 0 +
STACK CFI 35008 .cfa: x29 64 +
STACK CFI INIT 35144 2c8 .cfa: sp 0 +
STACK CFI 35148 .cfa: sp 128 +
STACK CFI 3515c .cfa: x29 64 + x19: .cfa -8 + ^ x20: .cfa -16 + ^ x21: .cfa -24 + ^ x22: .cfa -32 + ^ x23: .cfa -48 + ^ .ra: .cfa -56 + ^ x29: .cfa -64 + ^
STACK CFI 352b8 .cfa: sp 128 +
STACK CFI 352cc .cfa: sp 0 +
STACK CFI 352d0 .cfa: x29 64 +
STACK CFI INIT 3540c 4cc .cfa: sp 0 +
STACK CFI 35410 .cfa: sp 128 +
STACK CFI 35424 .cfa: x29 64 + x19: .cfa -8 + ^ x20: .cfa -16 + ^ x21: .cfa -24 + ^ x22: .cfa -32 + ^ x23: .cfa -48 + ^ .ra: .cfa -56 + ^ x29: .cfa -64 + ^
STACK CFI 35730 .cfa: sp 128 +
STACK CFI 35744 .cfa: sp 0 +
STACK CFI 35748 .cfa: x29 64 +
STACK CFI INIT 358d8 154 .cfa: sp 0 +
STACK CFI 358dc .cfa: sp 384 +
STACK CFI 358f0 .cfa: x29 64 + x19: .cfa -8 + ^ x20: .cfa -16 + ^ x21: .cfa -24 + ^ x22: .cfa -32 + ^ x23: .cfa -40 + ^ x28: .cfa -48 + ^ .ra: .cfa -56 + ^ x29: .cfa -64 + ^
STACK CFI 359d4 .cfa: sp 384 +
STACK CFI 359e8 .cfa: sp 0 +
STACK CFI 359ec .cfa: x29 64 +
STACK CFI INIT 35a2c 168 .cfa: sp 0 +
STACK CFI 35a30 .cfa: sp 384 +
STACK CFI 35a44 .cfa: x29 64 + x19: .cfa -8 + ^ x20: .cfa -16 + ^ x21: .cfa -24 + ^ x22: .cfa -32 + ^ x23: .cfa -40 + ^ x28: .cfa -48 + ^ .ra: .cfa -56 + ^ x29: .cfa -64 + ^
STACK CFI 35b3c .cfa: sp 384 +
STACK CFI 35b50 .cfa: sp 0 +
STACK CFI 35b54 .cfa: x29 64 +
STACK CFI INIT 35bac 4e0 .cfa: sp 0 +
STACK CFI 35bb0 .cfa: sp 64 +
STACK CFI 35bc0 .cfa: x29 64 + x19: .cfa -8 + ^ x20: .cfa -16 + ^ x21: .cfa -24 + ^ x22: .cfa -32 + ^ x23: .cfa -40 + ^ x24: .cfa -48 + ^ .ra: .cfa -56 + ^ x29: .cfa -64 + ^
STACK CFI 36060 .cfa: sp 64 +
STACK CFI 36070 .cfa: sp 0 +
STACK CFI 36074 .cfa: x29 64 +
STACK CFI INIT 363bc 294 .cfa: sp 0 +
STACK CFI 363c0 .cfa: sp 240 +
STACK CFI 363d8 .cfa: x29 80 + x19: .cfa -8 + ^ x20: .cfa -16 + ^ x21: .cfa -24 + ^ x22: .cfa -32 + ^ x23: .cfa -40 + ^ x24: .cfa -48 + ^ x25: .cfa -64 + ^ .ra: .cfa -72 + ^ x29: .cfa -80 + ^
STACK CFI 36578 .cfa: sp 240 +
STACK CFI 36590 .cfa: sp 0 +
STACK CFI 36594 .cfa: x29 80 +
STACK CFI INIT 366cc 50 .cfa: sp 0 +
STACK CFI 366d0 .cfa: sp 32 +
STACK CFI 366d8 .cfa: x29 32 + x19: .cfa -8 + ^ x20: .cfa -16 + ^ .ra: .cfa -24 + ^ x29: .cfa -32 + ^
STACK CFI INIT 36748 7c0 .cfa: sp 0 +
STACK CFI 3674c .cfa: sp 320 +
STACK CFI 36768 .cfa: x29 96 + x19: .cfa -8 + ^ x20: .cfa -16 + ^ x21: .cfa -24 + ^ x22: .cfa -32 + ^ x23: .cfa -40 + ^ x24: .cfa -48 + ^ x25: .cfa -56 + ^ x26: .cfa -64 + ^ x27: .cfa -72 + ^ x28: .cfa -80 + ^ .ra: .cfa -88 + ^ x29: .cfa -96 + ^
STACK CFI 36db8 .cfa: sp 320 +
STACK CFI 36dd4 .cfa: sp 0 +
STACK CFI 36dd8 .cfa: x29 96 +
STACK CFI INIT 3ab24 c84 .cfa: sp 0 +
STACK CFI 3ab28 .cfa: sp 96 +
STACK CFI 3ab40 .cfa: x29 96 + x19: .cfa -8 + ^ x20: .cfa -16 + ^ x21: .cfa -24 + ^ x22: .cfa -32 + ^ x23: .cfa -40 + ^ x24: .cfa -48 + ^ x25: .cfa -56 + ^ x26: .cfa -64 + ^ x27: .cfa -72 + ^ x28: .cfa -80 + ^ .ra: .cfa -88 + ^ x29: .cfa -96 + ^
STACK CFI 3b5c8 .cfa: sp 96 +
STACK CFI 3b5e0 .cfa: sp 0 +
STACK CFI 3b5e4 .cfa: x29 96 +
STACK CFI INIT 3b8fc 26c .cfa: sp 0 +
STACK CFI 3b900 .cfa: sp 128 +
STACK CFI 3b910 .cfa: x29 48 + x19: .cfa -8 + ^ x20: .cfa -16 + ^ x21: .cfa -24 + ^ x22: .cfa -32 + ^ .ra: .cfa -40 + ^ x29: .cfa -48 + ^
STACK CFI 3bab4 .cfa: sp 128 +
STACK CFI 3bac4 .cfa: sp 0 +
STACK CFI 3bac8 .cfa: x29 48 +
STACK CFI INIT 3bef8 3b8 .cfa: sp 0 +
STACK CFI 3befc .cfa: sp 96 +
STACK CFI 3bf14 .cfa: x29 96 + x19: .cfa -8 + ^ x20: .cfa -16 + ^ x21: .cfa -24 + ^ x22: .cfa -32 + ^ x23: .cfa -40 + ^ x24: .cfa -48 + ^ x25: .cfa -56 + ^ x26: .cfa -64 + ^ x27: .cfa -72 + ^ x28: .cfa -80 + ^ .ra: .cfa -88 + ^ x29: .cfa -96 + ^
STACK CFI 3c250 .cfa: sp 96 +
STACK CFI 3c268 .cfa: sp 0 +
STACK CFI 3c26c .cfa: x29 96 +
STACK CFI INIT 3c350 cc0 .cfa: sp 0 +
STACK CFI 3c354 .cfa: sp 96 +
STACK CFI 3c36c .cfa: x29 96 + x19: .cfa -8 + ^ x20: .cfa -16 + ^ x21: .cfa -24 + ^ x22: .cfa -32 + ^ x23: .cfa -40 + ^ x24: .cfa -48 + ^ x25: .cfa -56 + ^ x26: .cfa -64 + ^ x27: .cfa -72 + ^ x28: .cfa -80 + ^ .ra: .cfa -88 + ^ x29: .cfa -96 + ^
STACK CFI 3ce20 .cfa: sp 96 +
STACK CFI 3ce38 .cfa: sp 0 +
STACK CFI 3ce3c .cfa: x29 96 +
STACK CFI INIT 3d2f8 af8 .cfa: sp 0 +
STACK CFI 3d2fc .cfa: sp 96 +
STACK CFI 3d314 .cfa: x29 96 + x19: .cfa -8 + ^ x20: .cfa -16 + ^ x21: .cfa -24 + ^ x22: .cfa -32 + ^ x23: .cfa -40 + ^ x24: .cfa -48 + ^ x25: .cfa -56 + ^ x26: .cfa -64 + ^ x27: .cfa -72 + ^ x28: .cfa -80 + ^ .ra: .cfa -88 + ^ x29: .cfa -96 + ^
STACK CFI 3dd64 .cfa: sp 96 +
STACK CFI 3dd7c .cfa: sp 0 +
STACK CFI 3dd80 .cfa: x29 96 +
STACK CFI INIT 3dfe4 1430 .cfa: sp 0 +
STACK CFI 3dfe8 .cfa: sp 96 +
STACK CFI 3e000 .cfa: x29 96 + x19: .cfa -8 + ^ x20: .cfa -16 + ^ x21: .cfa -24 + ^ x22: .cfa -32 + ^ x23: .cfa -40 + ^ x24: .cfa -48 + ^ x25: .cfa -56 + ^ x26: .cfa -64 + ^ x27: .cfa -72 + ^ x28: .cfa -80 + ^ .ra: .cfa -88 + ^ x29: .cfa -96 + ^
STACK CFI 3f29c .cfa: sp 96 +
STACK CFI 3f2b4 .cfa: sp 0 +
STACK CFI 3f2b8 .cfa: x29 96 +
STACK CFI INIT 3f538 75c .cfa: sp 0 +
STACK CFI 3f53c .cfa: sp 368 +
STACK CFI 3f558 .cfa: x29 96 + x19: .cfa -8 + ^ x20: .cfa -16 + ^ x21: .cfa -24 + ^ x22: .cfa -32 + ^ x23: .cfa -40 + ^ x24: .cfa -48 + ^ x25: .cfa -56 + ^ x26: .cfa -64 + ^ x27: .cfa -72 + ^ x28: .cfa -80 + ^ .ra: .cfa -88 + ^ x29: .cfa -96 + ^
STACK CFI 3f60c .cfa: sp 368 +
STACK CFI 3f628 .cfa: sp 0 +
STACK CFI 3f62c .cfa: x29 96 +
STACK CFI 3f680 .cfa: sp 368 +
STACK CFI 3f69c .cfa: sp 0 +
STACK CFI 3f6a0 .cfa: x29 96 +
STACK CFI INIT 40054 ee0 .cfa: sp 0 +
STACK CFI 40058 .cfa: sp 96 +
STACK CFI 40070 .cfa: x29 96 + x19: .cfa -8 + ^ x20: .cfa -16 + ^ x21: .cfa -24 + ^ x22: .cfa -32 + ^ x23: .cfa -40 + ^ x24: .cfa -48 + ^ x25: .cfa -56 + ^ x26: .cfa -64 + ^ x27: .cfa -72 + ^ x28: .cfa -80 + ^ .ra: .cfa -88 + ^ x29: .cfa -96 + ^
STACK CFI 40d2c .cfa: sp 96 +
STACK CFI 40d44 .cfa: sp 0 +
STACK CFI 40d48 .cfa: x29 96 +
STACK CFI INIT 412a8 14b4 .cfa: sp 0 +
STACK CFI 412ac .cfa: sp 112 +
STACK CFI 412c8 .cfa: x29 96 + x19: .cfa -8 + ^ x20: .cfa -16 + ^ x21: .cfa -24 + ^ x22: .cfa -32 + ^ x23: .cfa -40 + ^ x24: .cfa -48 + ^ x25: .cfa -56 + ^ x26: .cfa -64 + ^ x27: .cfa -72 + ^ x28: .cfa -80 + ^ .ra: .cfa -88 + ^ x29: .cfa -96 + ^ v8: .cfa -112 + ^
STACK CFI 416a8 .cfa: sp 112 +
STACK CFI 416c4 .cfa: sp 0 +
STACK CFI 416c8 .cfa: x29 96 +
STACK CFI INIT 44b6c 9a0 .cfa: sp 0 +
STACK CFI 44b70 .cfa: sp 144 +
STACK CFI 44b88 .cfa: x29 80 + x19: .cfa -8 + ^ x20: .cfa -16 + ^ x21: .cfa -24 + ^ x22: .cfa -32 + ^ x23: .cfa -40 + ^ x24: .cfa -48 + ^ x25: .cfa -64 + ^ .ra: .cfa -72 + ^ x29: .cfa -80 + ^
STACK CFI 45488 .cfa: sp 144 +
STACK CFI 454a0 .cfa: sp 0 +
STACK CFI 454a4 .cfa: x29 80 +
STACK CFI INIT 4550c 57c .cfa: sp 0 +
STACK CFI 45510 .cfa: sp 96 +
STACK CFI 45528 .cfa: x29 96 + x19: .cfa -8 + ^ x20: .cfa -16 + ^ x21: .cfa -24 + ^ x22: .cfa -32 + ^ x23: .cfa -40 + ^ x24: .cfa -48 + ^ x25: .cfa -56 + ^ x26: .cfa -64 + ^ x27: .cfa -72 + ^ x28: .cfa -80 + ^ .ra: .cfa -88 + ^ x29: .cfa -96 + ^
STACK CFI 459ec .cfa: sp 96 +
STACK CFI 45a04 .cfa: sp 0 +
STACK CFI 45a08 .cfa: x29 96 +
STACK CFI INIT 45a88 67c .cfa: sp 0 +
STACK CFI 45a8c .cfa: sp 96 +
STACK CFI 45aa4 .cfa: x29 96 + x19: .cfa -8 + ^ x20: .cfa -16 + ^ x21: .cfa -24 + ^ x22: .cfa -32 + ^ x23: .cfa -40 + ^ x24: .cfa -48 + ^ x25: .cfa -56 + ^ x26: .cfa -64 + ^ x27: .cfa -72 + ^ x28: .cfa -80 + ^ .ra: .cfa -88 + ^ x29: .cfa -96 + ^
STACK CFI 46068 .cfa: sp 96 +
STACK CFI 46080 .cfa: sp 0 +
STACK CFI 46084 .cfa: x29 96 +
