MODULE Linux arm64 AE52EA16052E8582C322CA879FF3CE360 itzkiba.elegant_rankings.android64.so
INFO CODE_ID 16EA52AE2E058285C322CA879FF3CE36489BFC1B
INFO GENERATOR mozilla/dump_syms 2.3.4
PUBLIC d6c0 0 __on_dlclose
PUBLIC d6d0 0 __emutls_unregister_key
PUBLIC d6d8 0 __on_dlclose_late
PUBLIC d6e0 0 __atexit_handler_wrapper
PUBLIC d6f4 0 atexit
PUBLIC d710 0 pthread_atfork
PUBLIC d720 0 unwind_phase2
PUBLIC d854 0 _Unwind_Resume
PUBLIC d8d8 0 unwind_phase2_forced
PUBLIC m d9cc 0 __unw_init_local
PUBLIC m da74 0 __unw_get_reg
PUBLIC daf0 0 __unw_step_stage2
PUBLIC m db04 0 __unw_get_proc_info
PUBLIC m db44 0 __unw_resume
PUBLIC db6c 0 libunwind::CFI_Parser<libunwind::LocalAddressSpace>::decodeFDE(libunwind::LocalAddressSpace&, unsigned long, libunwind::CFI_Parser<libunwind::LocalAddressSpace>::FDE_Info*, libunwind::CFI_Parser<libunwind::LocalAddressSpace>::CIE_Info*, bool)
PUBLIC dcfc 0 libunwind::CFI_Parser<libunwind::LocalAddressSpace>::parseCIE(libunwind::LocalAddressSpace&, unsigned long, libunwind::CFI_Parser<libunwind::LocalAddressSpace>::CIE_Info*)
PUBLIC dfc4 0 libunwind::AbstractUnwindCursor::~AbstractUnwindCursor()
PUBLIC dfcc 0 libunwind::UnwindCursor<libunwind::LocalAddressSpace, libunwind::Registers_arm64>::~UnwindCursor()
PUBLIC dfd4 0 libunwind::UnwindCursor<libunwind::LocalAddressSpace, libunwind::Registers_arm64>::validReg(int)
PUBLIC e018 0 libunwind::UnwindCursor<libunwind::LocalAddressSpace, libunwind::Registers_arm64>::getReg(int)
PUBLIC e100 0 libunwind::UnwindCursor<libunwind::LocalAddressSpace, libunwind::Registers_arm64>::setReg(int, unsigned long)
PUBLIC e1e8 0 libunwind::UnwindCursor<libunwind::LocalAddressSpace, libunwind::Registers_arm64>::validFloatReg(int)
PUBLIC e1fc 0 libunwind::UnwindCursor<libunwind::LocalAddressSpace, libunwind::Registers_arm64>::getFloatReg(int)
PUBLIC e20c 0 libunwind::UnwindCursor<libunwind::LocalAddressSpace, libunwind::Registers_arm64>::setFloatReg(int, double)
PUBLIC e21c 0 libunwind::UnwindCursor<libunwind::LocalAddressSpace, libunwind::Registers_arm64>::step(bool)
PUBLIC e30c 0 libunwind::UnwindCursor<libunwind::LocalAddressSpace, libunwind::Registers_arm64>::getInfo(unw_proc_info_t*)
PUBLIC e350 0 libunwind::UnwindCursor<libunwind::LocalAddressSpace, libunwind::Registers_arm64>::jumpto()
PUBLIC e35c 0 libunwind::UnwindCursor<libunwind::LocalAddressSpace, libunwind::Registers_arm64>::isSignalFrame()
PUBLIC e368 0 libunwind::UnwindCursor<libunwind::LocalAddressSpace, libunwind::Registers_arm64>::getFunctionName(char*, unsigned long, unsigned long*)
PUBLIC e394 0 libunwind::UnwindCursor<libunwind::LocalAddressSpace, libunwind::Registers_arm64>::setInfoBasedOnIPRegister(bool)
PUBLIC e614 0 libunwind::UnwindCursor<libunwind::LocalAddressSpace, libunwind::Registers_arm64>::getRegisterName(int)
PUBLIC e620 0 libunwind::UnwindCursor<libunwind::LocalAddressSpace, libunwind::Registers_arm64>::stepThroughSigReturn(libunwind::Registers_arm64&)
PUBLIC e740 0 libunwind::DwarfInstructions<libunwind::LocalAddressSpace, libunwind::Registers_arm64>::stepWithDwarf(libunwind::LocalAddressSpace&, unsigned long, unsigned long, libunwind::Registers_arm64&, bool&, bool)
PUBLIC ebc8 0 libunwind::CFI_Parser<libunwind::LocalAddressSpace>::parseFDEInstructions(libunwind::LocalAddressSpace&, libunwind::CFI_Parser<libunwind::LocalAddressSpace>::FDE_Info const&, libunwind::CFI_Parser<libunwind::LocalAddressSpace>::CIE_Info const&, unsigned long, int, libunwind::CFI_Parser<libunwind::LocalAddressSpace>::PrologInfo*)
PUBLIC f810 0 libunwind::DwarfInstructions<libunwind::LocalAddressSpace, libunwind::Registers_arm64>::getCFA(libunwind::LocalAddressSpace&, libunwind::CFI_Parser<libunwind::LocalAddressSpace>::PrologInfo const&, libunwind::Registers_arm64 const&)
PUBLIC f944 0 libunwind::DwarfInstructions<libunwind::LocalAddressSpace, libunwind::Registers_arm64>::getSavedRegister(libunwind::LocalAddressSpace&, libunwind::Registers_arm64 const&, unsigned long, libunwind::CFI_Parser<libunwind::LocalAddressSpace>::RegisterLocation const&)
PUBLIC fb54 0 libunwind::LocalAddressSpace::getEncodedP(unsigned long&, unsigned long, unsigned char, unsigned long)
PUBLIC fee0 0 libunwind::LocalAddressSpace::getULEB128(unsigned long&, unsigned long)
PUBLIC 100a8 0 libunwind::DwarfInstructions<libunwind::LocalAddressSpace, libunwind::Registers_arm64>::evaluateExpression(unsigned long, libunwind::LocalAddressSpace&, libunwind::Registers_arm64 const&, unsigned long)
PUBLIC 10a64 0 libunwind::UnwindCursor<libunwind::LocalAddressSpace, libunwind::Registers_arm64>::getInfoFromDwarfSection(unsigned long, libunwind::UnwindInfoSections const&, unsigned int)
PUBLIC 10d38 0 libunwind::findUnwindSectionsByPhdr(dl_phdr_info*, unsigned long, void*)
PUBLIC 10e6c 0 libunwind::EHHeaderParser<libunwind::LocalAddressSpace>::decodeEHHdr(libunwind::LocalAddressSpace&, unsigned long, unsigned long, libunwind::EHHeaderParser<libunwind::LocalAddressSpace>::EHHeaderInfo&)
PUBLIC 10f8c 0 libunwind::CFI_Parser<libunwind::LocalAddressSpace>::findFDE(libunwind::LocalAddressSpace&, unsigned long, unsigned long, unsigned long, unsigned long, libunwind::CFI_Parser<libunwind::LocalAddressSpace>::FDE_Info*, libunwind::CFI_Parser<libunwind::LocalAddressSpace>::CIE_Info*)
PUBLIC 11154 0 libunwind::EHHeaderParser<libunwind::LocalAddressSpace>::findFDE(libunwind::LocalAddressSpace&, unsigned long, unsigned long, unsigned int, libunwind::CFI_Parser<libunwind::LocalAddressSpace>::FDE_Info*, libunwind::CFI_Parser<libunwind::LocalAddressSpace>::CIE_Info*)
PUBLIC 112bc 0 libunwind::EHHeaderParser<libunwind::LocalAddressSpace>::getTableEntrySize(unsigned char)
PUBLIC 113b8 0 libunwind::Registers_arm64::getRegisterName(int)
PUBLIC 113e8 0 __libunwind_Registers_arm64_jumpto
PUBLIC m 11478 0 __unw_getcontext
PUBLIC 11520 0 __aarch64_ldadd8_relax
PUBLIC 11550 0 init_have_lse_atomics
PUBLIC 115e8 0 __init_cpu_features_constructor
PUBLIC 11b84 0 __init_cpu_features
PUBLIC 11c10 0 __aarch64_ldadd8_acq_rel
PUBLIC 11c40 0 __cxx_global_var_init
PUBLIC 11c9c 0 std::__ndk1::vector<int, std::__ndk1::allocator<int> >::~vector[abi:ne180000]()
PUBLIC 11cb4 0 __cxx_global_var_init.1
PUBLIC 11d10 0 __cxx_global_var_init.2
PUBLIC 11d6c 0 __cxx_global_var_init.3
PUBLIC 121a8 0 geode::modifier::ModifyBase<geode::modifier::ModifyDerive<hook10<(anonymous namespace)::hook10Parent>, MenuLayer> >::~ModifyBase()
PUBLIC 121c4 0 __clang_call_terminate
PUBLIC 121d4 0 geode::modifier::ModifyDerive<hook10<(anonymous namespace)::hook10Parent>, MenuLayer>::apply()
PUBLIC 124dc 0 std::__ndk1::shared_ptr<geode::Hook>::~shared_ptr[abi:ne180000]()
PUBLIC 1252c 0 geode::impl::ResultData<geode::Hook*, std::__ndk1::basic_string<char, std::__ndk1::char_traits<char>, std::__ndk1::allocator<char> > >::~ResultData()
PUBLIC 125a0 0 std::__ndk1::vector<std::__ndk1::basic_string<char, std::__ndk1::char_traits<char>, std::__ndk1::allocator<char> >, std::__ndk1::allocator<std::__ndk1::basic_string<char, std::__ndk1::char_traits<char>, std::__ndk1::allocator<char> > > >::~vector[abi:ne180000]()
PUBLIC 1261c 0 geode::modifier::ModifyBase<geode::modifier::ModifyDerive<hook10<(anonymous namespace)::hook10Parent>, MenuLayer> >::apply()
PUBLIC 12620 0 _ZN5geode15UnwrapExceptionC2IRPNS_4HookEQsr4implE18IsStringStreamableIT_EEENS_4impl5OkTagEOS5_
PUBLIC 12774 0 std::__ndk1::__throw_bad_variant_access[abi:ne180000]()
PUBLIC 127a8 0 std::__ndk1::basic_stringstream<char, std::__ndk1::char_traits<char>, std::__ndk1::allocator<char> >::basic_stringstream[abi:ne180000]()
PUBLIC m 128d4 0 std::__ndk1::basic_stringstream<char, std::__ndk1::char_traits<char>, std::__ndk1::allocator<char> >::~basic_stringstream()
PUBLIC 12954 0 geode::UnwrapException::~UnwrapException()
PUBLIC 12978 0 std::__ndk1::__put_character_sequence[abi:ne180000]<char, std::__ndk1::char_traits<char> >(std::__ndk1::basic_ostream<char, std::__ndk1::char_traits<char> >, std::__ndk1::basic_ostream const*, unsigned long)
PUBLIC 12b1c 0 std::__ndk1::__pad_and_output[abi:ne180000]<char, std::__ndk1::char_traits<char> >(std::__ndk1::char_traits<char>, std::__ndk1::ostreambuf_iterator const*, std::__ndk1::ostreambuf_iterator const, std::__ndk1::ostreambuf_iterator const, std::__ndk1::ios_base&, std::__ndk1::ostreambuf_iterator)
PUBLIC 12cf8 0 std::__ndk1::basic_string<char, std::__ndk1::char_traits<char>, std::__ndk1::allocator<char> >::__throw_length_error[abi:ne180000]() const
PUBLIC 12d0c 0 std::__ndk1::__throw_length_error[abi:ne180000](char const*)
PUBLIC 12d5c 0 std::length_error::length_error[abi:ne180000](char const*)
PUBLIC 12d8c 0 std::__throw_bad_array_new_length([abi:ne180000], void)
PUBLIC 12dc0 0 std::__ndk1::basic_stringbuf<char, std::__ndk1::char_traits<char>, std::__ndk1::allocator<char> >::str[abi:ne180000]() &&
PUBLIC 12f38 0 std::__ndk1::basic_stringbuf<char, std::__ndk1::char_traits<char>, std::__ndk1::allocator<char> >::__init_buf_ptrs[abi:ne180000]()
PUBLIC 13080 0 std::__ndk1::vector<std::__ndk1::basic_string<char, std::__ndk1::char_traits<char>, std::__ndk1::allocator<char> >, std::__ndk1::allocator<std::__ndk1::basic_string<char, std::__ndk1::char_traits<char>, std::__ndk1::allocator<char> > > >::__push_back_slow_path<std::__ndk1::basic_string<char, std::__ndk1::char_traits<char>, std::__ndk1::allocator<char> > const&>(std::__ndk1::basic_string<char, std::__ndk1::char_traits<char>, std::__ndk1::allocator<char> > const&)
PUBLIC 132a8 0 std::__ndk1::basic_string<char, std::__ndk1::char_traits<char>, std::__ndk1::allocator<char> >::__init_copy_ctor_external(char const*, unsigned long)
PUBLIC 13328 0 std::__ndk1::__split_buffer<std::__ndk1::basic_string<char, std::__ndk1::char_traits<char>, std::__ndk1::allocator<char> >, std::__ndk1::allocator<std::__ndk1::basic_string<char, std::__ndk1::char_traits<char>, std::__ndk1::allocator<char> > >&>::~__split_buffer()
PUBLIC 13390 0 std::__ndk1::vector<std::__ndk1::basic_string<char, std::__ndk1::char_traits<char>, std::__ndk1::allocator<char> >, std::__ndk1::allocator<std::__ndk1::basic_string<char, std::__ndk1::char_traits<char>, std::__ndk1::allocator<char> > > >::__throw_length_error[abi:ne180000]() const
PUBLIC 133a4 0 std::__ndk1::__variant_detail::__visitation::__base::__dispatcher<(unsigned long)0>::__dispatch[abi:ne180000]<std::__ndk1::__variant_detail::__dtor<std::__ndk1::__variant_detail::__traits<geode::Hook*, std::__ndk1::basic_string<char, std::__ndk1::char_traits<char>, std::__ndk1::allocator<char> > >, (std::__ndk1::__variant_detail::_Trait)1>::__destroy[abi:ne180000]()::{lambda(auto:1&)#1}, std::__ndk1::__variant_detail::__base<(std::__ndk1::__variant_detail::__traits<geode::Hook*, std::__ndk1::basic_string<char, std::__ndk1::char_traits<char>, std::__ndk1::allocator<char> > >)1, geode::Hook, std::__ndk1::allocator<char> >&>(std::__ndk1::__variant_detail::__dtor<std::__ndk1::__variant_detail::__traits<geode::Hook*, std::__ndk1::basic_string<char, std::__ndk1::char_traits<char>, std::__ndk1::allocator<char> > >, (std::__ndk1::__variant_detail::_Trait)1>, std::__ndk1::__variant_detail::__base<(std::__ndk1::__variant_detail::__traits<geode::Hook*, std::__ndk1::basic_string<char, std::__ndk1::char_traits<char>, std::__ndk1::allocator<char> > >)1, geode::Hook, std::__ndk1::allocator<char> >&)
PUBLIC 133a8 0 std::__ndk1::__variant_detail::__visitation::__base::__dispatcher<(unsigned long)1>::__dispatch[abi:ne180000]<std::__ndk1::__variant_detail::__dtor<std::__ndk1::__variant_detail::__traits<geode::Hook*, std::__ndk1::basic_string<char, std::__ndk1::char_traits<char>, std::__ndk1::allocator<char> > >, (std::__ndk1::__variant_detail::_Trait)1>::__destroy[abi:ne180000]()::{lambda(auto:1&)#1}, std::__ndk1::__variant_detail::__base<(std::__ndk1::__variant_detail::__traits<geode::Hook*, std::__ndk1::basic_string<char, std::__ndk1::char_traits<char>, std::__ndk1::allocator<char> > >)1, geode::Hook, std::__ndk1::allocator<char> >&>(std::__ndk1::__variant_detail::__dtor<std::__ndk1::__variant_detail::__traits<geode::Hook*, std::__ndk1::basic_string<char, std::__ndk1::char_traits<char>, std::__ndk1::allocator<char> > >, (std::__ndk1::__variant_detail::_Trait)1>, std::__ndk1::__variant_detail::__base<(std::__ndk1::__variant_detail::__traits<geode::Hook*, std::__ndk1::basic_string<char, std::__ndk1::char_traits<char>, std::__ndk1::allocator<char> > >)1, geode::Hook, std::__ndk1::allocator<char> >&)
PUBLIC 133bc 0 std::__ndk1::__tree<std::__ndk1::__value_type<std::__ndk1::basic_string<char, std::__ndk1::char_traits<char>, std::__ndk1::allocator<char> >, std::__ndk1::shared_ptr<geode::Hook> >, std::__ndk1::__map_value_compare<std::__ndk1::basic_string<char, std::__ndk1::char_traits<char>, std::__ndk1::allocator<char> >, std::__ndk1::__value_type<std::__ndk1::basic_string<char, std::__ndk1::char_traits<char>, std::__ndk1::allocator<char> >, std::__ndk1::shared_ptr<geode::Hook> >, std::__ndk1::less<std::__ndk1::basic_string<char, std::__ndk1::char_traits<char>, std::__ndk1::allocator<char> > >, true>, std::__ndk1::allocator<std::__ndk1::__value_type<std::__ndk1::basic_string<char, std::__ndk1::char_traits<char>, std::__ndk1::allocator<char> >, std::__ndk1::shared_ptr<geode::Hook> > > >::find<std::__ndk1::basic_string<char, std::__ndk1::char_traits<char>, std::__ndk1::allocator<char> > >(std::__ndk1::basic_string<char, std::__ndk1::char_traits<char>, std::__ndk1::allocator<char> > const&)
PUBLIC 134dc 0 std::__ndk1::__tree<std::__ndk1::__value_type<std::__ndk1::basic_string<char, std::__ndk1::char_traits<char>, std::__ndk1::allocator<char> >, std::__ndk1::shared_ptr<geode::Hook> >, std::__ndk1::__map_value_compare<std::__ndk1::basic_string<char, std::__ndk1::char_traits<char>, std::__ndk1::allocator<char> >, std::__ndk1::__value_type<std::__ndk1::basic_string<char, std::__ndk1::char_traits<char>, std::__ndk1::allocator<char> >, std::__ndk1::shared_ptr<geode::Hook> >, std::__ndk1::less<std::__ndk1::basic_string<char, std::__ndk1::char_traits<char>, std::__ndk1::allocator<char> > >, true>, std::__ndk1::allocator<std::__ndk1::__value_type<std::__ndk1::basic_string<char, std::__ndk1::char_traits<char>, std::__ndk1::allocator<char> >, std::__ndk1::shared_ptr<geode::Hook> > > >::erase(std::__ndk1::__tree_const_iterator<std::__ndk1::__value_type<std::__ndk1::basic_string<char, std::__ndk1::char_traits<char>, std::__ndk1::allocator<char> >, std::__ndk1::shared_ptr<geode::Hook> >, std::__ndk1::__tree_node<std::__ndk1::__value_type<std::__ndk1::basic_string<char, std::__ndk1::char_traits<char>, std::__ndk1::allocator<char> >, std::__ndk1::shared_ptr<geode::Hook> >, void*>*, long>)
PUBLIC 135b0 0 std::__ndk1::__tree_remove[abi:ne180000]<std::__ndk1::__tree_node_base<void*>*>(std::__ndk1::__tree_node_base<void*>*, std::__ndk1::__tree_node_base<void*>*)
PUBLIC 13978 0 std::__ndk1::__tree<std::__ndk1::__value_type<std::__ndk1::basic_string<char, std::__ndk1::char_traits<char>, std::__ndk1::allocator<char> >, std::__ndk1::shared_ptr<geode::Hook> >, std::__ndk1::__map_value_compare<std::__ndk1::basic_string<char, std::__ndk1::char_traits<char>, std::__ndk1::allocator<char> >, std::__ndk1::__value_type<std::__ndk1::basic_string<char, std::__ndk1::char_traits<char>, std::__ndk1::allocator<char> >, std::__ndk1::shared_ptr<geode::Hook> >, std::__ndk1::less<std::__ndk1::basic_string<char, std::__ndk1::char_traits<char>, std::__ndk1::allocator<char> > >, true>, std::__ndk1::allocator<std::__ndk1::__value_type<std::__ndk1::basic_string<char, std::__ndk1::char_traits<char>, std::__ndk1::allocator<char> >, std::__ndk1::shared_ptr<geode::Hook> > > >::destroy(std::__ndk1::__tree_node<std::__ndk1::__value_type<std::__ndk1::basic_string<char, std::__ndk1::char_traits<char>, std::__ndk1::allocator<char> >, std::__ndk1::shared_ptr<geode::Hook> >, void*>*)
PUBLIC 13a04 0 geode::modifier::AsStaticFunction_init<hook10<(anonymous namespace)::hook10Parent>, bool (hook10<(anonymous namespace)::hook10Parent>::*)()>::Impl<bool (hook10<(anonymous namespace)::hook10Parent>::*)()>::function(hook10<(anonymous namespace)::hook10Parent>*)
PUBLIC 14340 0 geode::addresser::Addresser::addressOfVirtual<bool, MenuLayer, >(bool (MenuLayer::*)())
PUBLIC 143e8 0 MenuLayer::MenuLayer(geode::ZeroConstructorType)
PUBLIC 14484 0 std::__ndk1::shared_ptr<tulip::hook::CallingConvention>::~shared_ptr[abi:ne180000]()
PUBLIC 144d4 0 tulip::hook::HandlerMetadata::~HandlerMetadata()
PUBLIC 14538 0 geode::modifier::FieldIntermediate<hook10<(anonymous namespace)::hook10Parent>, MenuLayer>::operator->()
PUBLIC 148b0 0 geode::Task<geode::utils::web::WebResponse, geode::utils::web::WebProgress>::~Task()
PUBLIC 14900 0 geode::modifier::FieldContainer::getField(unsigned long)
PUBLIC 14bb8 0 geode::modifier::FieldContainer::setField(unsigned long, unsigned long, std::__ndk1::function<void (void*)>)
PUBLIC 14ccc 0 geode::modifier::FieldIntermediate<hook10<(anonymous namespace)::hook10Parent>, MenuLayer>::fieldDestructor(void*)
PUBLIC 14e70 0 std::__ndk1::vector<void*, std::__ndk1::allocator<void*> >::__throw_length_error[abi:ne180000]() const
PUBLIC 14e84 0 std::__ndk1::vector<std::__ndk1::function<void (void*)>, std::__ndk1::allocator<std::__ndk1::function<void (void*)> > >::__push_back_slow_path<std::__ndk1::function<void (void*)> >(std::__ndk1::function<void (void*)>&&)
PUBLIC 150b0 0 std::__ndk1::vector<std::__ndk1::function<void (void*)>, std::__ndk1::allocator<std::__ndk1::function<void (void*)> > >::__throw_length_error[abi:ne180000]() const
PUBLIC 150c4 0 std::__ndk1::vector<void*, std::__ndk1::allocator<void*> >::__throw_out_of_range[abi:ne180000]() const
PUBLIC 150d8 0 std::__ndk1::__throw_out_of_range[abi:ne180000](char const*)
PUBLIC 15128 0 std::out_of_range::out_of_range[abi:ne180000](char const*)
PUBLIC 15158 0 std::__ndk1::vector<std::__ndk1::function<void (void*)>, std::__ndk1::allocator<std::__ndk1::function<void (void*)> > >::__throw_out_of_range[abi:ne180000]() const
PUBLIC 1516c 0 geode::EventListener<geode::Task<geode::utils::web::WebResponse, geode::utils::web::WebProgress> >::~EventListener()
PUBLIC 15208 0 geode::EventListener<geode::Task<geode::utils::web::WebResponse, geode::utils::web::WebProgress> >::getPool() const
PUBLIC 1520c 0 geode::EventListener<geode::Task<geode::utils::web::WebResponse, geode::utils::web::WebProgress> >::handle(geode::Event*)
PUBLIC 153d8 0 geode::EventListener<geode::Task<geode::utils::web::WebResponse, geode::utils::web::WebProgress> >::~EventListener()
PUBLIC 1547c 0 geode::cast::traverseTypeinfoFor(void*, geode::cast::ClassTypeinfoType const*, char const*)
PUBLIC 15580 0 std::__ndk1::__throw_bad_function_call[abi:ne180000]()
PUBLIC 155b4 0 std::__ndk1::bad_function_call::~bad_function_call()
PUBLIC 155d8 0 std::__ndk1::__function::__base<void (void*)>::~__base()
PUBLIC 155dc 0 std::__ndk1::__function::__func<void (*)(void*), std::__ndk1::allocator<void (*)(void*)>, void (void*)>::~__func()
PUBLIC 155e0 0 std::__ndk1::__function::__func<void (*)(void*), std::__ndk1::allocator<void (*)(void*)>, void (void*)>::__clone() const
PUBLIC 15618 0 std::__ndk1::__function::__func<void (*)(void*), std::__ndk1::allocator<void (*)(void*)>, void (void*)>::__clone(std::__ndk1::__function::__base<void (void*)>*) const
PUBLIC 15630 0 std::__ndk1::__function::__func<void (*)(void*), std::__ndk1::allocator<void (*)(void*)>, void (void*)>::destroy()
PUBLIC 15634 0 std::__ndk1::__function::__func<void (*)(void*), std::__ndk1::allocator<void (*)(void*)>, void (void*)>::destroy_deallocate()
PUBLIC 15638 0 std::__ndk1::__function::__func<void (*)(void*), std::__ndk1::allocator<void (*)(void*)>, void (void*)>::operator()(void*&&)
PUBLIC 15648 0 std::__ndk1::__function::__func<void (*)(void*), std::__ndk1::allocator<void (*)(void*)>, void (void*)>::target(std::type_info const&) const
PUBLIC 15664 0 std::__ndk1::__function::__func<void (*)(void*), std::__ndk1::allocator<void (*)(void*)>, void (void*)>::target_type() const
PUBLIC 15670 0 geode::Task<geode::utils::web::WebResponse, geode::utils::web::WebProgress>::setListener(geode::EventListenerProtocol*)
PUBLIC 15874 0 geode::Task<geode::utils::web::WebResponse, geode::utils::web::WebProgress>::setListener(geode::EventListenerProtocol*)::{lambda()#1}::~{lambda()#1}()
PUBLIC 158c4 0 geode::Task<geode::utils::web::WebResponse, geode::utils::web::WebProgress>::setListener(geode::EventListenerProtocol*)::{lambda()#2}::~{lambda()#2}()
PUBLIC 15914 0 std::__ndk1::__function::__func<geode::Task<geode::utils::web::WebResponse, geode::utils::web::WebProgress>::setListener(geode::EventListenerProtocol*)::{lambda()#1}, std::__ndk1::allocator<geode::Task<geode::utils::web::WebResponse, geode::utils::web::WebProgress>::setListener(geode::EventListenerProtocol*)::{lambda()#1}>, void ()>::~__func()
PUBLIC 15970 0 std::__ndk1::__function::__func<geode::Task<geode::utils::web::WebResponse, geode::utils::web::WebProgress>::setListener(geode::EventListenerProtocol*)::{lambda()#1}, std::__ndk1::allocator<geode::Task<geode::utils::web::WebResponse, geode::utils::web::WebProgress>::setListener(geode::EventListenerProtocol*)::{lambda()#1}>, void ()>::~__func()
PUBLIC 159dc 0 std::__ndk1::__function::__func<geode::Task<geode::utils::web::WebResponse, geode::utils::web::WebProgress>::setListener(geode::EventListenerProtocol*)::{lambda()#1}, std::__ndk1::allocator<geode::Task<geode::utils::web::WebResponse, geode::utils::web::WebProgress>::setListener(geode::EventListenerProtocol*)::{lambda()#1}>, void ()>::__clone() const
PUBLIC 15a34 0 std::__ndk1::__function::__func<geode::Task<geode::utils::web::WebResponse, geode::utils::web::WebProgress>::setListener(geode::EventListenerProtocol*)::{lambda()#1}, std::__ndk1::allocator<geode::Task<geode::utils::web::WebResponse, geode::utils::web::WebProgress>::setListener(geode::EventListenerProtocol*)::{lambda()#1}>, void ()>::__clone(std::__ndk1::__function::__base<void ()>*) const
PUBLIC 15a80 0 std::__ndk1::__function::__func<geode::Task<geode::utils::web::WebResponse, geode::utils::web::WebProgress>::setListener(geode::EventListenerProtocol*)::{lambda()#1}, std::__ndk1::allocator<geode::Task<geode::utils::web::WebResponse, geode::utils::web::WebProgress>::setListener(geode::EventListenerProtocol*)::{lambda()#1}>, void ()>::destroy()
PUBLIC 15ad0 0 std::__ndk1::__function::__func<geode::Task<geode::utils::web::WebResponse, geode::utils::web::WebProgress>::setListener(geode::EventListenerProtocol*)::{lambda()#1}, std::__ndk1::allocator<geode::Task<geode::utils::web::WebResponse, geode::utils::web::WebProgress>::setListener(geode::EventListenerProtocol*)::{lambda()#1}>, void ()>::destroy_deallocate()
PUBLIC 15b30 0 std::__ndk1::__function::__func<geode::Task<geode::utils::web::WebResponse, geode::utils::web::WebProgress>::setListener(geode::EventListenerProtocol*)::{lambda()#1}, std::__ndk1::allocator<geode::Task<geode::utils::web::WebResponse, geode::utils::web::WebProgress>::setListener(geode::EventListenerProtocol*)::{lambda()#1}>, void ()>::operator()()
PUBLIC 15d00 0 std::__ndk1::__function::__func<geode::Task<geode::utils::web::WebResponse, geode::utils::web::WebProgress>::setListener(geode::EventListenerProtocol*)::{lambda()#1}, std::__ndk1::allocator<geode::Task<geode::utils::web::WebResponse, geode::utils::web::WebProgress>::setListener(geode::EventListenerProtocol*)::{lambda()#1}>, void ()>::target(std::type_info const&) const
PUBLIC 15d1c 0 std::__ndk1::__function::__func<geode::Task<geode::utils::web::WebResponse, geode::utils::web::WebProgress>::setListener(geode::EventListenerProtocol*)::{lambda()#1}, std::__ndk1::allocator<geode::Task<geode::utils::web::WebResponse, geode::utils::web::WebProgress>::setListener(geode::EventListenerProtocol*)::{lambda()#1}>, void ()>::target_type() const
PUBLIC 15d28 0 geode::Task<geode::utils::web::WebResponse, geode::utils::web::WebProgress>::Event::~Event()
PUBLIC 15d88 0 geode::Task<geode::utils::web::WebResponse, geode::utils::web::WebProgress>::Event::~Event()
PUBLIC 15df8 0 std::__ndk1::__function::__func<geode::Task<geode::utils::web::WebResponse, geode::utils::web::WebProgress>::setListener(geode::EventListenerProtocol*)::{lambda()#2}, std::__ndk1::allocator<geode::Task<geode::utils::web::WebResponse, geode::utils::web::WebProgress>::setListener(geode::EventListenerProtocol*)::{lambda()#2}>, void ()>::~__func()
PUBLIC 15e54 0 std::__ndk1::__function::__func<geode::Task<geode::utils::web::WebResponse, geode::utils::web::WebProgress>::setListener(geode::EventListenerProtocol*)::{lambda()#2}, std::__ndk1::allocator<geode::Task<geode::utils::web::WebResponse, geode::utils::web::WebProgress>::setListener(geode::EventListenerProtocol*)::{lambda()#2}>, void ()>::~__func()
PUBLIC 15ec0 0 std::__ndk1::__function::__func<geode::Task<geode::utils::web::WebResponse, geode::utils::web::WebProgress>::setListener(geode::EventListenerProtocol*)::{lambda()#2}, std::__ndk1::allocator<geode::Task<geode::utils::web::WebResponse, geode::utils::web::WebProgress>::setListener(geode::EventListenerProtocol*)::{lambda()#2}>, void ()>::__clone() const
PUBLIC 15f18 0 std::__ndk1::__function::__func<geode::Task<geode::utils::web::WebResponse, geode::utils::web::WebProgress>::setListener(geode::EventListenerProtocol*)::{lambda()#2}, std::__ndk1::allocator<geode::Task<geode::utils::web::WebResponse, geode::utils::web::WebProgress>::setListener(geode::EventListenerProtocol*)::{lambda()#2}>, void ()>::__clone(std::__ndk1::__function::__base<void ()>*) const
PUBLIC 15f64 0 std::__ndk1::__function::__func<geode::Task<geode::utils::web::WebResponse, geode::utils::web::WebProgress>::setListener(geode::EventListenerProtocol*)::{lambda()#2}, std::__ndk1::allocator<geode::Task<geode::utils::web::WebResponse, geode::utils::web::WebProgress>::setListener(geode::EventListenerProtocol*)::{lambda()#2}>, void ()>::destroy()
PUBLIC 15fb4 0 std::__ndk1::__function::__func<geode::Task<geode::utils::web::WebResponse, geode::utils::web::WebProgress>::setListener(geode::EventListenerProtocol*)::{lambda()#2}, std::__ndk1::allocator<geode::Task<geode::utils::web::WebResponse, geode::utils::web::WebProgress>::setListener(geode::EventListenerProtocol*)::{lambda()#2}>, void ()>::destroy_deallocate()
PUBLIC 16014 0 std::__ndk1::__function::__func<geode::Task<geode::utils::web::WebResponse, geode::utils::web::WebProgress>::setListener(geode::EventListenerProtocol*)::{lambda()#2}, std::__ndk1::allocator<geode::Task<geode::utils::web::WebResponse, geode::utils::web::WebProgress>::setListener(geode::EventListenerProtocol*)::{lambda()#2}>, void ()>::operator()()
PUBLIC 161d8 0 std::__ndk1::__function::__func<geode::Task<geode::utils::web::WebResponse, geode::utils::web::WebProgress>::setListener(geode::EventListenerProtocol*)::{lambda()#2}, std::__ndk1::allocator<geode::Task<geode::utils::web::WebResponse, geode::utils::web::WebProgress>::setListener(geode::EventListenerProtocol*)::{lambda()#2}>, void ()>::target(std::type_info const&) const
PUBLIC 161f4 0 std::__ndk1::__function::__func<geode::Task<geode::utils::web::WebResponse, geode::utils::web::WebProgress>::setListener(geode::EventListenerProtocol*)::{lambda()#2}, std::__ndk1::allocator<geode::Task<geode::utils::web::WebResponse, geode::utils::web::WebProgress>::setListener(geode::EventListenerProtocol*)::{lambda()#2}>, void ()>::target_type() const
PUBLIC 16200 0 std::__ndk1::__function::__value_func<void (geode::Task<geode::utils::web::WebResponse, geode::utils::web::WebProgress>::Event*)>::swap[abi:ne180000](std::__ndk1::__function::__value_func<void (geode::Task<geode::utils::web::WebResponse, geode::utils::web::WebProgress>::Event*)>&)
PUBLIC 16398 0 std::__ndk1::__function::__func<hook10<(anonymous namespace)::hook10Parent>::init()::{lambda(geode::Task<geode::utils::web::WebResponse, geode::utils::web::WebProgress>::Event*)#1}, std::__ndk1::allocator<hook10<(anonymous namespace)::hook10Parent>::init()::{lambda(geode::Task<geode::utils::web::WebResponse, geode::utils::web::WebProgress>::Event*)#1}>, void (geode::Task<geode::utils::web::WebResponse, geode::utils::web::WebProgress>::Event*)>::~__func()
PUBLIC 1639c 0 std::__ndk1::__function::__func<hook10<(anonymous namespace)::hook10Parent>::init()::{lambda(geode::Task<geode::utils::web::WebResponse, geode::utils::web::WebProgress>::Event*)#1}, std::__ndk1::allocator<hook10<(anonymous namespace)::hook10Parent>::init()::{lambda(geode::Task<geode::utils::web::WebResponse, geode::utils::web::WebProgress>::Event*)#1}>, void (geode::Task<geode::utils::web::WebResponse, geode::utils::web::WebProgress>::Event*)>::__clone() const
PUBLIC 163c0 0 std::__ndk1::__function::__func<hook10<(anonymous namespace)::hook10Parent>::init()::{lambda(geode::Task<geode::utils::web::WebResponse, geode::utils::web::WebProgress>::Event*)#1}, std::__ndk1::allocator<hook10<(anonymous namespace)::hook10Parent>::init()::{lambda(geode::Task<geode::utils::web::WebResponse, geode::utils::web::WebProgress>::Event*)#1}>, void (geode::Task<geode::utils::web::WebResponse, geode::utils::web::WebProgress>::Event*)>::__clone(std::__ndk1::__function::__base<void (geode::Task<geode::utils::web::WebResponse, geode::utils::web::WebProgress>::Event*)>*) const
PUBLIC 163d0 0 std::__ndk1::__function::__func<hook10<(anonymous namespace)::hook10Parent>::init()::{lambda(geode::Task<geode::utils::web::WebResponse, geode::utils::web::WebProgress>::Event*)#1}, std::__ndk1::allocator<hook10<(anonymous namespace)::hook10Parent>::init()::{lambda(geode::Task<geode::utils::web::WebResponse, geode::utils::web::WebProgress>::Event*)#1}>, void (geode::Task<geode::utils::web::WebResponse, geode::utils::web::WebProgress>::Event*)>::destroy()
PUBLIC 163d4 0 std::__ndk1::__function::__func<hook10<(anonymous namespace)::hook10Parent>::init()::{lambda(geode::Task<geode::utils::web::WebResponse, geode::utils::web::WebProgress>::Event*)#1}, std::__ndk1::allocator<hook10<(anonymous namespace)::hook10Parent>::init()::{lambda(geode::Task<geode::utils::web::WebResponse, geode::utils::web::WebProgress>::Event*)#1}>, void (geode::Task<geode::utils::web::WebResponse, geode::utils::web::WebProgress>::Event*)>::destroy_deallocate()
PUBLIC 163d8 0 std::__ndk1::__function::__func<hook10<(anonymous namespace)::hook10Parent>::init()::{lambda(geode::Task<geode::utils::web::WebResponse, geode::utils::web::WebProgress>::Event*)#1}, std::__ndk1::allocator<hook10<(anonymous namespace)::hook10Parent>::init()::{lambda(geode::Task<geode::utils::web::WebResponse, geode::utils::web::WebProgress>::Event*)#1}>, void (geode::Task<geode::utils::web::WebResponse, geode::utils::web::WebProgress>::Event*)>::operator()(geode::Task<geode::utils::web::WebResponse, geode::utils::web::WebProgress>::Event*&&)
PUBLIC 164f8 0 std::__ndk1::__function::__func<hook10<(anonymous namespace)::hook10Parent>::init()::{lambda(geode::Task<geode::utils::web::WebResponse, geode::utils::web::WebProgress>::Event*)#1}, std::__ndk1::allocator<hook10<(anonymous namespace)::hook10Parent>::init()::{lambda(geode::Task<geode::utils::web::WebResponse, geode::utils::web::WebProgress>::Event*)#1}>, void (geode::Task<geode::utils::web::WebResponse, geode::utils::web::WebProgress>::Event*)>::target(std::type_info const&) const
PUBLIC 16514 0 std::__ndk1::__function::__func<hook10<(anonymous namespace)::hook10Parent>::init()::{lambda(geode::Task<geode::utils::web::WebResponse, geode::utils::web::WebProgress>::Event*)#1}, std::__ndk1::allocator<hook10<(anonymous namespace)::hook10Parent>::init()::{lambda(geode::Task<geode::utils::web::WebResponse, geode::utils::web::WebProgress>::Event*)#1}>, void (geode::Task<geode::utils::web::WebResponse, geode::utils::web::WebProgress>::Event*)>::target_type() const
PUBLIC 16520 0 Manager::parseRequestString(std::__ndk1::basic_string<char, std::__ndk1::char_traits<char>, std::__ndk1::allocator<char> >, std::__ndk1::vector<int, std::__ndk1::allocator<int> >&)
PUBLIC 16c7c 0 geode::impl::ResultData<std::__ndk1::basic_string<char, std::__ndk1::char_traits<char>, std::__ndk1::allocator<char> >, std::__ndk1::basic_string<char, std::__ndk1::char_traits<char>, std::__ndk1::allocator<char> > >::~ResultData()
PUBLIC 16cf0 0 std::__ndk1::basic_string<char, std::__ndk1::char_traits<char>, std::__ndk1::allocator<char> >::__throw_out_of_range[abi:ne180000]() const
PUBLIC 16d04 0 std::__ndk1::vector<int, std::__ndk1::allocator<int> >::__throw_length_error[abi:ne180000]() const
PUBLIC 16d18 0 std::__ndk1::__variant_detail::__visitation::__base::__dispatcher<(unsigned long)0>::__dispatch[abi:ne180000]<std::__ndk1::__variant_detail::__dtor<std::__ndk1::__variant_detail::__traits<std::__ndk1::basic_string<char, std::__ndk1::char_traits<char>, std::__ndk1::allocator<char> >, std::__ndk1::allocator<char> >, (std::__ndk1::__variant_detail::_Trait)1>::__destroy[abi:ne180000]()::{lambda(auto:1&)#1}, std::__ndk1::__variant_detail::__base<(std::__ndk1::__variant_detail::__traits<std::__ndk1::basic_string<char, std::__ndk1::char_traits<char>, std::__ndk1::allocator<char> >, std::__ndk1::allocator<char> >)1, std::__ndk1::allocator<char>, std::__ndk1::allocator<char> >&>(std::__ndk1::__variant_detail::__dtor<std::__ndk1::__variant_detail::__traits<std::__ndk1::basic_string<char, std::__ndk1::char_traits<char>, std::__ndk1::allocator<char> >, std::__ndk1::allocator<char> >, (std::__ndk1::__variant_detail::_Trait)1>, std::__ndk1::__variant_detail::__base<(std::__ndk1::__variant_detail::__traits<std::__ndk1::basic_string<char, std::__ndk1::char_traits<char>, std::__ndk1::allocator<char> >, std::__ndk1::allocator<char> >)1, std::__ndk1::allocator<char>, std::__ndk1::allocator<char> >&)
PUBLIC 16d2c 0 std::__ndk1::__variant_detail::__visitation::__base::__dispatcher<(unsigned long)1>::__dispatch[abi:ne180000]<std::__ndk1::__variant_detail::__dtor<std::__ndk1::__variant_detail::__traits<std::__ndk1::basic_string<char, std::__ndk1::char_traits<char>, std::__ndk1::allocator<char> >, std::__ndk1::allocator<char> >, (std::__ndk1::__variant_detail::_Trait)1>::__destroy[abi:ne180000]()::{lambda(auto:1&)#1}, std::__ndk1::__variant_detail::__base<(std::__ndk1::__variant_detail::__traits<std::__ndk1::basic_string<char, std::__ndk1::char_traits<char>, std::__ndk1::allocator<char> >, std::__ndk1::allocator<char> >)1, std::__ndk1::allocator<char>, std::__ndk1::allocator<char> >&>(std::__ndk1::__variant_detail::__dtor<std::__ndk1::__variant_detail::__traits<std::__ndk1::basic_string<char, std::__ndk1::char_traits<char>, std::__ndk1::allocator<char> >, std::__ndk1::allocator<char> >, (std::__ndk1::__variant_detail::_Trait)1>, std::__ndk1::__variant_detail::__base<(std::__ndk1::__variant_detail::__traits<std::__ndk1::basic_string<char, std::__ndk1::char_traits<char>, std::__ndk1::allocator<char> >, std::__ndk1::allocator<char> >)1, std::__ndk1::allocator<char>, std::__ndk1::allocator<char> >&)
PUBLIC 16d40 0 std::__ndk1::__function::__func<hook10<(anonymous namespace)::hook10Parent>::init()::{lambda(geode::Task<geode::utils::web::WebResponse, geode::utils::web::WebProgress>::Event*)#2}, std::__ndk1::allocator<hook10<(anonymous namespace)::hook10Parent>::init()::{lambda(geode::Task<geode::utils::web::WebResponse, geode::utils::web::WebProgress>::Event*)#2}>, void (geode::Task<geode::utils::web::WebResponse, geode::utils::web::WebProgress>::Event*)>::~__func()
PUBLIC 16d44 0 std::__ndk1::__function::__func<hook10<(anonymous namespace)::hook10Parent>::init()::{lambda(geode::Task<geode::utils::web::WebResponse, geode::utils::web::WebProgress>::Event*)#2}, std::__ndk1::allocator<hook10<(anonymous namespace)::hook10Parent>::init()::{lambda(geode::Task<geode::utils::web::WebResponse, geode::utils::web::WebProgress>::Event*)#2}>, void (geode::Task<geode::utils::web::WebResponse, geode::utils::web::WebProgress>::Event*)>::__clone() const
PUBLIC 16d68 0 std::__ndk1::__function::__func<hook10<(anonymous namespace)::hook10Parent>::init()::{lambda(geode::Task<geode::utils::web::WebResponse, geode::utils::web::WebProgress>::Event*)#2}, std::__ndk1::allocator<hook10<(anonymous namespace)::hook10Parent>::init()::{lambda(geode::Task<geode::utils::web::WebResponse, geode::utils::web::WebProgress>::Event*)#2}>, void (geode::Task<geode::utils::web::WebResponse, geode::utils::web::WebProgress>::Event*)>::__clone(std::__ndk1::__function::__base<void (geode::Task<geode::utils::web::WebResponse, geode::utils::web::WebProgress>::Event*)>*) const
PUBLIC 16d78 0 std::__ndk1::__function::__func<hook10<(anonymous namespace)::hook10Parent>::init()::{lambda(geode::Task<geode::utils::web::WebResponse, geode::utils::web::WebProgress>::Event*)#2}, std::__ndk1::allocator<hook10<(anonymous namespace)::hook10Parent>::init()::{lambda(geode::Task<geode::utils::web::WebResponse, geode::utils::web::WebProgress>::Event*)#2}>, void (geode::Task<geode::utils::web::WebResponse, geode::utils::web::WebProgress>::Event*)>::destroy()
PUBLIC 16d7c 0 std::__ndk1::__function::__func<hook10<(anonymous namespace)::hook10Parent>::init()::{lambda(geode::Task<geode::utils::web::WebResponse, geode::utils::web::WebProgress>::Event*)#2}, std::__ndk1::allocator<hook10<(anonymous namespace)::hook10Parent>::init()::{lambda(geode::Task<geode::utils::web::WebResponse, geode::utils::web::WebProgress>::Event*)#2}>, void (geode::Task<geode::utils::web::WebResponse, geode::utils::web::WebProgress>::Event*)>::destroy_deallocate()
PUBLIC 16d80 0 std::__ndk1::__function::__func<hook10<(anonymous namespace)::hook10Parent>::init()::{lambda(geode::Task<geode::utils::web::WebResponse, geode::utils::web::WebProgress>::Event*)#2}, std::__ndk1::allocator<hook10<(anonymous namespace)::hook10Parent>::init()::{lambda(geode::Task<geode::utils::web::WebResponse, geode::utils::web::WebProgress>::Event*)#2}>, void (geode::Task<geode::utils::web::WebResponse, geode::utils::web::WebProgress>::Event*)>::operator()(geode::Task<geode::utils::web::WebResponse, geode::utils::web::WebProgress>::Event*&&)
PUBLIC 16ea0 0 std::__ndk1::__function::__func<hook10<(anonymous namespace)::hook10Parent>::init()::{lambda(geode::Task<geode::utils::web::WebResponse, geode::utils::web::WebProgress>::Event*)#2}, std::__ndk1::allocator<hook10<(anonymous namespace)::hook10Parent>::init()::{lambda(geode::Task<geode::utils::web::WebResponse, geode::utils::web::WebProgress>::Event*)#2}>, void (geode::Task<geode::utils::web::WebResponse, geode::utils::web::WebProgress>::Event*)>::target(std::type_info const&) const
PUBLIC 16ebc 0 std::__ndk1::__function::__func<hook10<(anonymous namespace)::hook10Parent>::init()::{lambda(geode::Task<geode::utils::web::WebResponse, geode::utils::web::WebProgress>::Event*)#2}, std::__ndk1::allocator<hook10<(anonymous namespace)::hook10Parent>::init()::{lambda(geode::Task<geode::utils::web::WebResponse, geode::utils::web::WebProgress>::Event*)#2}>, void (geode::Task<geode::utils::web::WebResponse, geode::utils::web::WebProgress>::Event*)>::target_type() const
PUBLIC 16ec8 0 std::__ndk1::__function::__base<void (geode::Task<geode::utils::web::WebResponse, geode::utils::web::WebProgress>::Event*)>::~__base()
PUBLIC 16ecc 0 std::__ndk1::__function::__func<hook10<(anonymous namespace)::hook10Parent>::init()::{lambda(geode::Task<geode::utils::web::WebResponse, geode::utils::web::WebProgress>::Event*)#3}, std::__ndk1::allocator<hook10<(anonymous namespace)::hook10Parent>::init()::{lambda(geode::Task<geode::utils::web::WebResponse, geode::utils::web::WebProgress>::Event*)#3}>, void (geode::Task<geode::utils::web::WebResponse, geode::utils::web::WebProgress>::Event*)>::~__func()
PUBLIC 16ed0 0 std::__ndk1::__function::__func<hook10<(anonymous namespace)::hook10Parent>::init()::{lambda(geode::Task<geode::utils::web::WebResponse, geode::utils::web::WebProgress>::Event*)#3}, std::__ndk1::allocator<hook10<(anonymous namespace)::hook10Parent>::init()::{lambda(geode::Task<geode::utils::web::WebResponse, geode::utils::web::WebProgress>::Event*)#3}>, void (geode::Task<geode::utils::web::WebResponse, geode::utils::web::WebProgress>::Event*)>::__clone() const
PUBLIC 16ef4 0 std::__ndk1::__function::__func<hook10<(anonymous namespace)::hook10Parent>::init()::{lambda(geode::Task<geode::utils::web::WebResponse, geode::utils::web::WebProgress>::Event*)#3}, std::__ndk1::allocator<hook10<(anonymous namespace)::hook10Parent>::init()::{lambda(geode::Task<geode::utils::web::WebResponse, geode::utils::web::WebProgress>::Event*)#3}>, void (geode::Task<geode::utils::web::WebResponse, geode::utils::web::WebProgress>::Event*)>::__clone(std::__ndk1::__function::__base<void (geode::Task<geode::utils::web::WebResponse, geode::utils::web::WebProgress>::Event*)>*) const
PUBLIC 16f04 0 std::__ndk1::__function::__func<hook10<(anonymous namespace)::hook10Parent>::init()::{lambda(geode::Task<geode::utils::web::WebResponse, geode::utils::web::WebProgress>::Event*)#3}, std::__ndk1::allocator<hook10<(anonymous namespace)::hook10Parent>::init()::{lambda(geode::Task<geode::utils::web::WebResponse, geode::utils::web::WebProgress>::Event*)#3}>, void (geode::Task<geode::utils::web::WebResponse, geode::utils::web::WebProgress>::Event*)>::destroy()
PUBLIC 16f08 0 std::__ndk1::__function::__func<hook10<(anonymous namespace)::hook10Parent>::init()::{lambda(geode::Task<geode::utils::web::WebResponse, geode::utils::web::WebProgress>::Event*)#3}, std::__ndk1::allocator<hook10<(anonymous namespace)::hook10Parent>::init()::{lambda(geode::Task<geode::utils::web::WebResponse, geode::utils::web::WebProgress>::Event*)#3}>, void (geode::Task<geode::utils::web::WebResponse, geode::utils::web::WebProgress>::Event*)>::destroy_deallocate()
PUBLIC 16f0c 0 std::__ndk1::__function::__func<hook10<(anonymous namespace)::hook10Parent>::init()::{lambda(geode::Task<geode::utils::web::WebResponse, geode::utils::web::WebProgress>::Event*)#3}, std::__ndk1::allocator<hook10<(anonymous namespace)::hook10Parent>::init()::{lambda(geode::Task<geode::utils::web::WebResponse, geode::utils::web::WebProgress>::Event*)#3}>, void (geode::Task<geode::utils::web::WebResponse, geode::utils::web::WebProgress>::Event*)>::operator()(geode::Task<geode::utils::web::WebResponse, geode::utils::web::WebProgress>::Event*&&)
PUBLIC 1702c 0 std::__ndk1::__function::__func<hook10<(anonymous namespace)::hook10Parent>::init()::{lambda(geode::Task<geode::utils::web::WebResponse, geode::utils::web::WebProgress>::Event*)#3}, std::__ndk1::allocator<hook10<(anonymous namespace)::hook10Parent>::init()::{lambda(geode::Task<geode::utils::web::WebResponse, geode::utils::web::WebProgress>::Event*)#3}>, void (geode::Task<geode::utils::web::WebResponse, geode::utils::web::WebProgress>::Event*)>::target(std::type_info const&) const
PUBLIC 17048 0 std::__ndk1::__function::__func<hook10<(anonymous namespace)::hook10Parent>::init()::{lambda(geode::Task<geode::utils::web::WebResponse, geode::utils::web::WebProgress>::Event*)#3}, std::__ndk1::allocator<hook10<(anonymous namespace)::hook10Parent>::init()::{lambda(geode::Task<geode::utils::web::WebResponse, geode::utils::web::WebProgress>::Event*)#3}>, void (geode::Task<geode::utils::web::WebResponse, geode::utils::web::WebProgress>::Event*)>::target_type() const
PUBLIC 17054 0 std::__ndk1::__tree<std::__ndk1::__value_type<std::__ndk1::basic_string<char, std::__ndk1::char_traits<char>, std::__ndk1::allocator<char> >, std::__ndk1::shared_ptr<geode::Hook> >, std::__ndk1::__map_value_compare<std::__ndk1::basic_string<char, std::__ndk1::char_traits<char>, std::__ndk1::allocator<char> >, std::__ndk1::__value_type<std::__ndk1::basic_string<char, std::__ndk1::char_traits<char>, std::__ndk1::allocator<char> >, std::__ndk1::shared_ptr<geode::Hook> >, std::__ndk1::less<std::__ndk1::basic_string<char, std::__ndk1::char_traits<char>, std::__ndk1::allocator<char> > >, true>, std::__ndk1::allocator<std::__ndk1::__value_type<std::__ndk1::basic_string<char, std::__ndk1::char_traits<char>, std::__ndk1::allocator<char> >, std::__ndk1::shared_ptr<geode::Hook> > > >::__emplace_unique_key_args<std::__ndk1::basic_string<char, std::__ndk1::char_traits<char>, std::__ndk1::allocator<char> >, std::__ndk1::piecewise_construct_t const&, std::__ndk1::tuple<std::__ndk1::basic_string<char, std::__ndk1::char_traits<char>, std::__ndk1::allocator<char> >&&>, std::__ndk1::tuple<> >(std::__ndk1::basic_string<char, std::__ndk1::char_traits<char>, std::__ndk1::allocator<char> > const&, std::__ndk1::piecewise_construct_t const&, std::__ndk1::tuple<std::__ndk1::basic_string<char, std::__ndk1::char_traits<char>, std::__ndk1::allocator<char> >&&>, std::__ndk1::tuple<>)
PUBLIC 171cc 0 std::__ndk1::__tree_balance_after_insert[abi:ne180000]<std::__ndk1::__tree_node_base<void*>*>(std::__ndk1::__tree_node_base<void*>*, std::__ndk1::__tree_node_base<void*>*)
PUBLIC 1737c 0 __cxx_global_var_init.3
PUBLIC 17adc 0 geode::modifier::ModifyBase<geode::modifier::ModifyDerive<ERProfilePage, ProfilePage> >::~ModifyBase()
PUBLIC 17af8 0 geode::modifier::ModifyDerive<ERProfilePage, ProfilePage>::apply()
PUBLIC 17e7c 0 geode::modifier::ModifyBase<geode::modifier::ModifyDerive<ERProfilePage, ProfilePage> >::apply()
PUBLIC 17e80 0 std::__ndk1::unique_ptr<std::__ndk1::__tree_node<std::__ndk1::__value_type<std::__ndk1::basic_string<char, std::__ndk1::char_traits<char>, std::__ndk1::allocator<char> >, std::__ndk1::shared_ptr<geode::Hook> >, void*>, std::__ndk1::__tree_node_destructor<std::__ndk1::allocator<std::__ndk1::__tree_node<std::__ndk1::__value_type<std::__ndk1::basic_string<char, std::__ndk1::char_traits<char>, std::__ndk1::allocator<char> >, std::__ndk1::shared_ptr<geode::Hook> >, void*> > > >::~unique_ptr[abi:ne180000]()
PUBLIC 17efc 0 _ZN5geode15UnwrapExceptionC2IRNSt6__ndk112basic_stringIcNS2_11char_traitsIcEENS2_9allocatorIcEEEEQsr4implE18IsStringStreamableIT_EEENS_4impl6ErrTagEOSA_
PUBLIC 18064 0 std::__ndk1::__variant_detail::__visitation::__base::__dispatcher<(unsigned long)0>::__dispatch[abi:ne180000]<std::__ndk1::__variant_detail::__dtor<std::__ndk1::__variant_detail::__traits<std::__ndk1::monostate, std::__ndk1::basic_string<char, std::__ndk1::char_traits<char>, std::__ndk1::allocator<char> > >, (std::__ndk1::__variant_detail::_Trait)1>::__destroy[abi:ne180000]()::{lambda(auto:1&)#1}, std::__ndk1::__variant_detail::__base<(std::__ndk1::__variant_detail::__traits<std::__ndk1::monostate, std::__ndk1::basic_string<char, std::__ndk1::char_traits<char>, std::__ndk1::allocator<char> > >)1, std::__ndk1::__variant_detail::__traits, std::__ndk1::allocator<char> >&>(std::__ndk1::__variant_detail::__dtor<std::__ndk1::__variant_detail::__traits<std::__ndk1::monostate, std::__ndk1::basic_string<char, std::__ndk1::char_traits<char>, std::__ndk1::allocator<char> > >, (std::__ndk1::__variant_detail::_Trait)1>, std::__ndk1::__variant_detail::__base<(std::__ndk1::__variant_detail::__traits<std::__ndk1::monostate, std::__ndk1::basic_string<char, std::__ndk1::char_traits<char>, std::__ndk1::allocator<char> > >)1, std::__ndk1::__variant_detail::__traits, std::__ndk1::allocator<char> >&)
PUBLIC 18068 0 std::__ndk1::__variant_detail::__visitation::__base::__dispatcher<(unsigned long)1>::__dispatch[abi:ne180000]<std::__ndk1::__variant_detail::__dtor<std::__ndk1::__variant_detail::__traits<std::__ndk1::monostate, std::__ndk1::basic_string<char, std::__ndk1::char_traits<char>, std::__ndk1::allocator<char> > >, (std::__ndk1::__variant_detail::_Trait)1>::__destroy[abi:ne180000]()::{lambda(auto:1&)#1}, std::__ndk1::__variant_detail::__base<(std::__ndk1::__variant_detail::__traits<std::__ndk1::monostate, std::__ndk1::basic_string<char, std::__ndk1::char_traits<char>, std::__ndk1::allocator<char> > >)1, std::__ndk1::__variant_detail::__traits, std::__ndk1::allocator<char> >&>(std::__ndk1::__variant_detail::__dtor<std::__ndk1::__variant_detail::__traits<std::__ndk1::monostate, std::__ndk1::basic_string<char, std::__ndk1::char_traits<char>, std::__ndk1::allocator<char> > >, (std::__ndk1::__variant_detail::_Trait)1>, std::__ndk1::__variant_detail::__base<(std::__ndk1::__variant_detail::__traits<std::__ndk1::monostate, std::__ndk1::basic_string<char, std::__ndk1::char_traits<char>, std::__ndk1::allocator<char> > >)1, std::__ndk1::__variant_detail::__traits, std::__ndk1::allocator<char> >&)
PUBLIC 1807c 0 geode::modifier::AsStaticFunction_loadPageFromUserInfo<ERProfilePage, void (ERProfilePage::*)(GJUserScore*)>::Impl<void (ERProfilePage::*)(GJUserScore*)>::function(ERProfilePage*, GJUserScore*)
PUBLIC 18080 0 ERProfilePage::loadPageFromUserInfo(GJUserScore*)
PUBLIC 1aef8 0 geode::modifier::FieldIntermediate<ERProfilePage, ProfilePage>::self()
PUBLIC 1b098 0 geode::modifier::FieldIntermediate<ERProfilePage, ProfilePage>::fieldDestructor(void*)
PUBLIC 1b09c 0 Particles::trophyGeneral(cocos2d::_ccColor3B, int)
PUBLIC 1c088 0 Particles::topTrophy0(int)
PUBLIC 1d248 0 Particles::topTrophySparkles(int)
PUBLIC 1e480 0 cocos2d::CCString::createWithFormat(char const*, ...)
PUBLIC m 1e5c0 0 geodeImplicitEntry
PUBLIC 1e5fc 0 wrapFunction(unsigned long, tulip::hook::WrapperMetadata const&)
PUBLIC 1e730 0 geode::impl::ResultData<void*, std::__ndk1::basic_string<char, std::__ndk1::char_traits<char>, std::__ndk1::allocator<char> > >::unwrapErr() &
PUBLIC 1e7a8 0 geode::impl::ResultData<void*, std::__ndk1::basic_string<char, std::__ndk1::char_traits<char>, std::__ndk1::allocator<char> > >::~ResultData()
PUBLIC 1e81c 0 tulip::hook::WrapperMetadata::~WrapperMetadata()
PUBLIC 1e880 0 cocos2d::CCDictionary::setObject(cocos2d::CCObject*, gd::string const&)
PUBLIC 1e9e0 0 tulip::hook::AbstractFunction::from<void, cocos2d::CCDictionary*, cocos2d::CCObject*, gd::string const&>(void (*)(cocos2d::CCDictionary*, cocos2d::CCObject*, gd::string const&))
PUBLIC 1eae0 0 _ZN5geode15UnwrapExceptionC2IRPvQsr4implE18IsStringStreamableIT_EEENS_4impl5OkTagEOS4_
PUBLIC 1ec34 0 std::__ndk1::__variant_detail::__visitation::__base::__dispatcher<(unsigned long)0>::__dispatch[abi:ne180000]<std::__ndk1::__variant_detail::__dtor<std::__ndk1::__variant_detail::__traits<void*, std::__ndk1::basic_string<char, std::__ndk1::char_traits<char>, std::__ndk1::allocator<char> > >, (std::__ndk1::__variant_detail::_Trait)1>::__destroy[abi:ne180000]()::{lambda(auto:1&)#1}, std::__ndk1::__variant_detail::__base<(std::__ndk1::__variant_detail::__traits<void*, std::__ndk1::basic_string<char, std::__ndk1::char_traits<char>, std::__ndk1::allocator<char> > >)1, std::__ndk1::__variant_detail::__traits, std::__ndk1::allocator<char> >&>(std::__ndk1::__variant_detail::__dtor<std::__ndk1::__variant_detail::__traits<void*, std::__ndk1::basic_string<char, std::__ndk1::char_traits<char>, std::__ndk1::allocator<char> > >, (std::__ndk1::__variant_detail::_Trait)1>, std::__ndk1::__variant_detail::__base<(std::__ndk1::__variant_detail::__traits<void*, std::__ndk1::basic_string<char, std::__ndk1::char_traits<char>, std::__ndk1::allocator<char> > >)1, std::__ndk1::__variant_detail::__traits, std::__ndk1::allocator<char> >&)
PUBLIC 1ec38 0 std::__ndk1::__variant_detail::__visitation::__base::__dispatcher<(unsigned long)1>::__dispatch[abi:ne180000]<std::__ndk1::__variant_detail::__dtor<std::__ndk1::__variant_detail::__traits<void*, std::__ndk1::basic_string<char, std::__ndk1::char_traits<char>, std::__ndk1::allocator<char> > >, (std::__ndk1::__variant_detail::_Trait)1>::__destroy[abi:ne180000]()::{lambda(auto:1&)#1}, std::__ndk1::__variant_detail::__base<(std::__ndk1::__variant_detail::__traits<void*, std::__ndk1::basic_string<char, std::__ndk1::char_traits<char>, std::__ndk1::allocator<char> > >)1, std::__ndk1::__variant_detail::__traits, std::__ndk1::allocator<char> >&>(std::__ndk1::__variant_detail::__dtor<std::__ndk1::__variant_detail::__traits<void*, std::__ndk1::basic_string<char, std::__ndk1::char_traits<char>, std::__ndk1::allocator<char> > >, (std::__ndk1::__variant_detail::_Trait)1>, std::__ndk1::__variant_detail::__base<(std::__ndk1::__variant_detail::__traits<void*, std::__ndk1::basic_string<char, std::__ndk1::char_traits<char>, std::__ndk1::allocator<char> > >)1, std::__ndk1::__variant_detail::__traits, std::__ndk1::allocator<char> >&)
PUBLIC 1ec4c 0 __udivti3
PUBLIC 1ec58 0 __udivmodti4
PUBLIC m 1eea4 0 __eqtf2
PUBLIC 1ef44 0 __unordtf2
PUBLIC 1ef7c 0 fmt::v11::detail::write_loc(fmt::v11::basic_appender<char>, fmt::v11::loc_value, fmt::v11::format_specs const&, fmt::v11::detail::locale_ref)
PUBLIC 1f210 0 fmt::v11::format_facet<std::__ndk1::locale>::~format_facet()
PUBLIC 1f28c 0 fmt::v11::report_error(char const*)
PUBLIC 1f2dc 0 fmt::v11::format_error::runtime_error(char const*)
PUBLIC 1f308 0 fmt::v11::format_facet<std::__ndk1::locale>::do_put(fmt::v11::basic_appender<char>, fmt::v11::loc_value, fmt::v11::format_specs const&) const
PUBLIC 1fac8 0 fmt::v11::detail::loc_writer<char>::~loc_writer()
PUBLIC 1fb2c 0 fmt::v11::detail::vformat_to<char>(fmt::v11::detail::buffer<char>&, fmt::v11::basic_string_view<char>, fmt::v11::detail::vformat_args<char>::type, fmt::v11::detail::locale_ref)
PUBLIC 2009c 0 fmt::v11::detail::is_printable(unsigned int)
PUBLIC 202c4 0 fmt::v11::detail::dragonbox::to_decimal<float>(float)
PUBLIC 205a0 0 fmt::v11::detail::dragonbox::to_decimal<double>(double)
PUBLIC 20adc 0 fmt::v11::basic_memory_buffer<char, (unsigned long)500, std::__ndk1::allocator<char> >::grow(fmt::v11::detail::buffer<char>&, unsigned long)
PUBLIC 20b54 0 fmt::v11::format_facet<std::__ndk1::locale>::~format_facet()
PUBLIC 20be0 0 fmt::v11::format_error::~format_error()
PUBLIC 20c04 0 fmt::v11::detail::copy_noinline<char, char const*, fmt::v11::basic_appender<char> >(char const*, char const*, fmt::v11::basic_appender<char>)
PUBLIC 20d54 0 fmt::v11::detail::default_arg_formatter<char>::operator()<bool>(bool)
PUBLIC 20dbc 0 fmt::v11::detail::default_arg_formatter<char>::operator()<char>(char)
PUBLIC 20e4c 0 fmt::v11::detail::default_arg_formatter<char>::operator()<float>(float)
PUBLIC 20f38 0 fmt::v11::detail::default_arg_formatter<char>::operator()<double>(double)
PUBLIC 21024 0 fmt::v11::detail::default_arg_formatter<char>::operator()<char const*>(char const*)
PUBLIC 2106c 0 fmt::v11::detail::default_arg_formatter<char>::operator()<void const*>(void const*)
PUBLIC 21104 0 _ZN3fmt3v116detail5writeIcNS0_14basic_appenderIcEEiTnNSt6__ndk19enable_ifIXaaaasr11is_integralIT1_EE5valuentsr3std7is_sameIS7_bEE5valuentsr3std7is_sameIS7_T_EE5valueEiE4typeELi0EEET0_SB_S7_
PUBLIC 21364 0 fmt::v11::detail::copy_noinline<char, char*, fmt::v11::basic_appender<char> >(char*, char*, fmt::v11::basic_appender<char>)
PUBLIC 214b4 0 _ZN3fmt3v116detail5writeIcNS0_14basic_appenderIcEEjTnNSt6__ndk19enable_ifIXaaaasr11is_integralIT1_EE5valuentsr3std7is_sameIS7_bEE5valuentsr3std7is_sameIS7_T_EE5valueEiE4typeELi0EEET0_SB_S7_
PUBLIC 21694 0 _ZN3fmt3v116detail5writeIcNS0_14basic_appenderIcEExTnNSt6__ndk19enable_ifIXaaaasr11is_integralIT1_EE5valuentsr3std7is_sameIS7_bEE5valuentsr3std7is_sameIS7_T_EE5valueEiE4typeELi0EEET0_SB_S7_
PUBLIC 21918 0 _ZN3fmt3v116detail5writeIcNS0_14basic_appenderIcEEyTnNSt6__ndk19enable_ifIXaaaasr11is_integralIT1_EE5valuentsr3std7is_sameIS7_bEE5valuentsr3std7is_sameIS7_T_EE5valueEiE4typeELi0EEET0_SB_S7_
PUBLIC 21b20 0 _ZN3fmt3v116detail5writeIcNS0_14basic_appenderIcEEnTnNSt6__ndk19enable_ifIXaaaasr11is_integralIT1_EE5valuentsr3std7is_sameIS7_bEE5valuentsr3std7is_sameIS7_T_EE5valueEiE4typeELi0EEET0_SB_S7_
PUBLIC 21e80 0 _ZN3fmt3v116detail5writeIcNS0_14basic_appenderIcEEoTnNSt6__ndk19enable_ifIXaaaasr11is_integralIT1_EE5valuentsr3std7is_sameIS7_bEE5valuentsr3std7is_sameIS7_T_EE5valueEiE4typeELi0EEET0_SB_S7_
PUBLIC 22194 0 _ZN3fmt3v116detail5writeIcNS0_14basic_appenderIcEEbTnNSt6__ndk19enable_ifIXsr3std7is_sameIT1_bEE5valueEiE4typeELi0EEET0_SA_S7_RKNS0_12format_specsENS1_10locale_refE
PUBLIC 22424 0 fmt::v11::detail::write_int_noinline<char, fmt::v11::basic_appender<char>, unsigned int>(fmt::v11::basic_appender<char>, fmt::v11::detail::write_int_arg<unsigned int>, fmt::v11::format_specs const&, fmt::v11::detail::locale_ref)
PUBLIC 23200 0 fmt::v11::detail::fill<char, fmt::v11::basic_appender<char> >(fmt::v11::basic_appender<char>, unsigned long, fmt::v11::detail::fill_t const&)
PUBLIC 233d0 0 fmt::v11::detail::write_padded<char, (fmt::v11::align::type)1, fmt::v11::basic_appender<char>, fmt::v11::detail::write_char<char, fmt::v11::basic_appender<char> >(fmt::v11::basic_appender<char>, char, fmt::v11::format_specs const&)::{lambda(fmt::v11::basic_appender<char>&)#1}>(fmt::v11::basic_appender<char>, fmt::v11::format_specs const&, unsigned long, unsigned long, fmt::v11::detail::write_char<char, fmt::v11::basic_appender<char> >(fmt::v11::basic_appender<char>, char, fmt::v11::format_specs const&)::{lambda(fmt::v11::basic_appender<char>&)#1})
PUBLIC 2360c 0 fmt::v11::detail::write_escaped_cp<fmt::v11::basic_appender<char>, char>(fmt::v11::basic_appender<char>, fmt::v11::detail::find_escape_result<char> const&)
PUBLIC 23918 0 fmt::v11::detail::write_codepoint<(unsigned long)2, char, fmt::v11::basic_appender<char> >(fmt::v11::basic_appender<char>, char, unsigned int)
PUBLIC 23a90 0 fmt::v11::detail::write_codepoint<(unsigned long)8, char, fmt::v11::basic_appender<char> >(fmt::v11::basic_appender<char>, char, unsigned int)
PUBLIC 23c08 0 fmt::v11::detail::write_padded<char, (fmt::v11::align::type)1, fmt::v11::basic_appender<char>, fmt::v11::detail::write_nonfinite<char, fmt::v11::basic_appender<char> >(fmt::v11::basic_appender<char>, bool, fmt::v11::format_specs, fmt::v11::sign::type)::{lambda(fmt::v11::basic_appender<char>&)#1}>(fmt::v11::basic_appender<char>, fmt::v11::format_specs const&, unsigned long, unsigned long, fmt::v11::detail::write_nonfinite<char, fmt::v11::basic_appender<char> >(fmt::v11::basic_appender<char>, bool, fmt::v11::format_specs, fmt::v11::sign::type)::{lambda(fmt::v11::basic_appender<char>&)#1})
PUBLIC 23e48 0 fmt::v11::detail::do_write_float<char, fmt::v11::basic_appender<char>, fmt::v11::detail::dragonbox::decimal_fp<float>, fmt::v11::detail::digit_grouping<char> >(fmt::v11::basic_appender<char>, fmt::v11::detail::dragonbox::decimal_fp<float> const&, fmt::v11::format_specs const&, fmt::v11::detail::float_specs, fmt::v11::detail::locale_ref)
PUBLIC 24abc 0 fmt::v11::detail::do_write_float<char, fmt::v11::basic_appender<char>, fmt::v11::detail::dragonbox::decimal_fp<float>, fmt::v11::detail::digit_grouping<char> >(fmt::v11::basic_appender<char>, fmt::v11::detail::dragonbox::decimal_fp<float> const&, fmt::v11::format_specs const&, fmt::v11::detail::float_specs, fmt::v11::detail::locale_ref)::{lambda(fmt::v11::basic_appender<char>(fmt::v11::basic_appender<char>))#1}::operator() const
PUBLIC 24c10 0 fmt::v11::detail::digit_grouping<char>::digit_grouping(fmt::v11::detail::locale_ref, bool)
PUBLIC 24e7c 0 fmt::v11::detail::digit_grouping<char>::~digit_grouping()
PUBLIC 24ec0 0 fmt::v11::detail::write_exponent<char, fmt::v11::basic_appender<char> >(int, fmt::v11::basic_appender<char>)
PUBLIC 25090 0 _ZN3fmt3v116detail17write_significandIcjTnNSt6__ndk19enable_ifIXsr3std11is_integralIT0_EE5valueEiE4typeELi0EEEPT_S9_S5_iiS8_
PUBLIC 2520c 0 std::__ndk1::basic_string<char, std::__ndk1::char_traits<char>, std::__ndk1::allocator<char> >::__assign_no_alias<true>(char const*, unsigned long)
PUBLIC 252b8 0 std::__ndk1::basic_string<char, std::__ndk1::char_traits<char>, std::__ndk1::allocator<char> >::__assign_no_alias<false>(char const*, unsigned long)
PUBLIC 253c8 0 fmt::v11::detail::digit_grouping<char>::apply<fmt::v11::basic_appender<char>, char>(fmt::v11::basic_appender<char>, fmt::v11::basic_string_view<char>) const
PUBLIC 25780 0 fmt::v11::basic_memory_buffer<int, (unsigned long)500, std::__ndk1::allocator<int> >::grow(fmt::v11::detail::buffer<int>&, unsigned long)
PUBLIC 25820 0 fmt::v11::detail::do_write_float<char, fmt::v11::basic_appender<char>, fmt::v11::detail::dragonbox::decimal_fp<double>, fmt::v11::detail::digit_grouping<char> >(fmt::v11::basic_appender<char>, fmt::v11::detail::dragonbox::decimal_fp<double> const&, fmt::v11::format_specs const&, fmt::v11::detail::float_specs, fmt::v11::detail::locale_ref)
PUBLIC 264d4 0 fmt::v11::detail::do_write_float<char, fmt::v11::basic_appender<char>, fmt::v11::detail::dragonbox::decimal_fp<double>, fmt::v11::detail::digit_grouping<char> >(fmt::v11::basic_appender<char>, fmt::v11::detail::dragonbox::decimal_fp<double> const&, fmt::v11::format_specs const&, fmt::v11::detail::float_specs, fmt::v11::detail::locale_ref)::{lambda(fmt::v11::basic_appender<char>(fmt::v11::basic_appender<char>))#1}::operator() const
PUBLIC 2662c 0 _ZN3fmt3v116detail17write_significandIcmTnNSt6__ndk19enable_ifIXsr3std11is_integralIT0_EE5valueEiE4typeELi0EEEPT_S9_S5_iiS8_
PUBLIC 267bc 0 fmt::v11::detail::write_float<char, fmt::v11::basic_appender<char>, long double>(fmt::v11::basic_appender<char>, long double, fmt::v11::format_specs, fmt::v11::detail::locale_ref)
PUBLIC 272b8 0 fmt::v11::detail::write_padded<char, (fmt::v11::align::type)2, fmt::v11::basic_appender<char>, fmt::v11::detail::write_bytes<char, (fmt::v11::align::type)2, fmt::v11::basic_appender<char> >(fmt::v11::basic_appender<char>, fmt::v11::basic_string_view<char>, fmt::v11::format_specs const&)::{lambda(fmt::v11::basic_appender<char>&)#1}>(fmt::v11::basic_appender<char>, fmt::v11::format_specs const&, unsigned long, unsigned long, fmt::v11::detail::write_bytes<char, (fmt::v11::align::type)2, fmt::v11::basic_appender<char> >(fmt::v11::basic_appender<char>, fmt::v11::basic_string_view<char>, fmt::v11::format_specs const&)::{lambda(fmt::v11::basic_appender<char>&)#1})
PUBLIC 27494 0 fmt::v11::detail::format_dragon(fmt::v11::detail::basic_fp<unsigned __int128>, unsigned int, int, fmt::v11::detail::buffer<char>&, int&)
PUBLIC 288c4 0 fmt::v11::detail::bigint::operator<<=(int)
PUBLIC 289e8 0 fmt::v11::detail::bigint::assign_pow10(int)
PUBLIC 29144 0 fmt::v11::detail::bigint::divmod_assign(fmt::v11::detail::bigint const&)
PUBLIC 29464 0 fmt::v11::basic_memory_buffer<unsigned int, (unsigned long)32, std::__ndk1::allocator<unsigned int> >::grow(fmt::v11::detail::buffer<unsigned int>&, unsigned long)
PUBLIC 29504 0 fmt::v11::detail::do_write_float<char, fmt::v11::basic_appender<char>, fmt::v11::detail::big_decimal_fp, fmt::v11::detail::digit_grouping<char> >(fmt::v11::basic_appender<char>, fmt::v11::detail::big_decimal_fp const&, fmt::v11::format_specs const&, fmt::v11::detail::float_specs, fmt::v11::detail::locale_ref)
PUBLIC 2a3b4 0 fmt::v11::detail::do_write_float<char, fmt::v11::basic_appender<char>, fmt::v11::detail::big_decimal_fp, fmt::v11::detail::digit_grouping<char> >(fmt::v11::basic_appender<char>, fmt::v11::detail::big_decimal_fp const&, fmt::v11::format_specs const&, fmt::v11::detail::float_specs, fmt::v11::detail::locale_ref)::{lambda(fmt::v11::basic_appender<char>(fmt::v11::basic_appender<char>))#1}::operator() const
PUBLIC 2a514 0 fmt::v11::detail::write_padded<char, (fmt::v11::align::type)2, fmt::v11::basic_appender<char>, fmt::v11::detail::write_ptr<char, fmt::v11::basic_appender<char>, unsigned long>(fmt::v11::basic_appender<char>, unsigned long, fmt::v11::format_specs const*)::{lambda(fmt::v11::basic_appender<char>&)#1}>(fmt::v11::basic_appender<char>, fmt::v11::format_specs const&, unsigned long, unsigned long, fmt::v11::detail::write_ptr<char, fmt::v11::basic_appender<char>, unsigned long>(fmt::v11::basic_appender<char>, unsigned long, fmt::v11::format_specs const*)::{lambda(fmt::v11::basic_appender<char>&)#1})
PUBLIC 2a728 0 fmt::v11::detail::parse_replacement_field<char, fmt::v11::detail::vformat_to<char>(fmt::v11::detail::buffer<char>&, fmt::v11::basic_string_view<char>, fmt::v11::detail::vformat_args<char>::type, fmt::v11::detail::locale_ref)::format_handler&>(char const*, char const*, fmt::v11::detail::vformat_to<char>(fmt::v11::detail::buffer<char>&, fmt::v11::basic_string_view<char>, fmt::v11::detail::vformat_args<char>::type, fmt::v11::detail::locale_ref)::format_handler&)
PUBLIC 2c3c4 0 fmt::v11::detail::parse_dynamic_spec<char>(char const*, char const*, int&, fmt::v11::detail::arg_ref<char>&, fmt::v11::basic_format_parse_context<char>&)
PUBLIC 2c654 0 fmt::v11::basic_format_args<fmt::v11::context>::get<char>(fmt::v11::basic_string_view<char>) const
PUBLIC 2c7ac 0 fmt::v11::detail::write_int_noinline<char, fmt::v11::basic_appender<char>, unsigned long>(fmt::v11::basic_appender<char>, fmt::v11::detail::write_int_arg<unsigned long>, fmt::v11::format_specs const&, fmt::v11::detail::locale_ref)
PUBLIC 2d600 0 fmt::v11::detail::write_int_noinline<char, fmt::v11::basic_appender<char>, unsigned __int128>(fmt::v11::basic_appender<char>, fmt::v11::detail::write_int_arg<unsigned __int128>, fmt::v11::format_specs const&, fmt::v11::detail::locale_ref)
PUBLIC 2e668 0 _ZN3fmt3v116detail15format_hexfloatIdTnNSt6__ndk19enable_ifIXntsr16is_double_doubleIT_EE5valueEiE4typeELi0EEEvS5_NS0_12format_specsERNS1_6bufferIcEE
PUBLIC 2eb88 0 fmt::v11::detail::format_float<double>(double, int, fmt::v11::detail::float_specs, fmt::v11::detail::buffer<char>&)
PUBLIC 2f528 0 fmt::v11::detail::write<char, fmt::v11::basic_appender<char> >(fmt::v11::basic_appender<char>, fmt::v11::basic_string_view<char>, fmt::v11::format_specs const&)
PUBLIC 30894 0 fmt::v11::detail::for_each_codepoint<fmt::v11::detail::compute_width(fmt::v11::basic_string_view<char>)::count_code_points>(fmt::v11::basic_string_view<char>, fmt::v11::detail::compute_width(fmt::v11::basic_string_view<char>)::count_code_points)::{lambda(char const*, char const*)#1}::operator()(char const*, char const*) const
PUBLIC 30a4c 0 fmt::v11::detail::write_int<fmt::v11::basic_appender<char>, unsigned long, char>(fmt::v11::basic_appender<char>, unsigned long, unsigned int, fmt::v11::format_specs const&, fmt::v11::detail::digit_grouping<char> const&)
PUBLIC 30fc8 0 fmt::v11::detail::write_int<fmt::v11::basic_appender<char>, unsigned __int128, char>(fmt::v11::basic_appender<char>, unsigned __int128, unsigned int, fmt::v11::format_specs const&, fmt::v11::detail::digit_grouping<char> const&)
PUBLIC 31650 0 <.plt ELF section in itzkiba.elegant_rankings.android64.so>
STACK CFI INIT d6c0 10 .cfa: sp 0 +
STACK CFI INIT d6d0 8 .cfa: sp 0 +
STACK CFI INIT d6d8 8 .cfa: sp 0 +
STACK CFI INIT d6e0 14 .cfa: sp 0 +
STACK CFI INIT d6f4 1c .cfa: sp 0 +
STACK CFI INIT d710 10 .cfa: sp 0 +
STACK CFI INIT d720 134 .cfa: sp 0 +
STACK CFI INIT d854 84 .cfa: sp 0 +
STACK CFI INIT d8d8 f4 .cfa: sp 0 +
STACK CFI INIT d9cc a8 .cfa: sp 0 +
STACK CFI INIT da74 7c .cfa: sp 0 +
STACK CFI INIT daf0 14 .cfa: sp 0 +
STACK CFI INIT db04 40 .cfa: sp 0 +
STACK CFI INIT db44 28 .cfa: sp 0 +
STACK CFI INIT db6c 190 .cfa: sp 0 +
STACK CFI INIT dcfc 2c8 .cfa: sp 0 +
STACK CFI INIT dfc4 8 .cfa: sp 0 +
STACK CFI INIT dfcc 8 .cfa: sp 0 +
STACK CFI INIT dfd4 44 .cfa: sp 0 +
STACK CFI INIT e018 e8 .cfa: sp 0 +
STACK CFI INIT e100 e8 .cfa: sp 0 +
STACK CFI INIT e1e8 14 .cfa: sp 0 +
STACK CFI INIT e1fc 10 .cfa: sp 0 +
STACK CFI INIT e20c 10 .cfa: sp 0 +
STACK CFI INIT e21c f0 .cfa: sp 0 +
STACK CFI INIT e30c 44 .cfa: sp 0 +
STACK CFI INIT e350 c .cfa: sp 0 +
STACK CFI INIT e35c c .cfa: sp 0 +
STACK CFI INIT e368 2c .cfa: sp 0 +
STACK CFI INIT e394 280 .cfa: sp 0 +
STACK CFI INIT e614 c .cfa: sp 0 +
STACK CFI INIT e620 120 .cfa: sp 0 +
STACK CFI INIT e740 488 .cfa: sp 0 +
STACK CFI INIT ebc8 c48 .cfa: sp 0 +
STACK CFI INIT f810 134 .cfa: sp 0 +
STACK CFI INIT f944 210 .cfa: sp 0 +
STACK CFI INIT fb54 38c .cfa: sp 0 +
STACK CFI INIT fee0 1c8 .cfa: sp 0 +
STACK CFI INIT 100a8 9bc .cfa: sp 0 +
STACK CFI INIT 10a64 2d4 .cfa: sp 0 +
STACK CFI INIT 10d38 134 .cfa: sp 0 +
STACK CFI INIT 10e6c 120 .cfa: sp 0 +
STACK CFI INIT 10f8c 1c8 .cfa: sp 0 +
STACK CFI INIT 11154 168 .cfa: sp 0 +
STACK CFI INIT 112bc fc .cfa: sp 0 +
STACK CFI INIT 113b8 30 .cfa: sp 0 +
STACK CFI INIT 11520 30 .cfa: sp 0 +
STACK CFI INIT 11550 98 .cfa: sp 0 +
STACK CFI INIT 115e8 59c .cfa: sp 0 +
STACK CFI INIT 11b84 8c .cfa: sp 0 +
STACK CFI INIT 11c10 30 .cfa: sp 0 +
STACK CFI INIT 11c40 5c .cfa: sp 0 +
STACK CFI 11c44 .cfa: sp 16 +
STACK CFI 11c48 .cfa: x29 16 + .ra: .cfa -8 + ^ x29: .cfa -16 + ^
STACK CFI 11c8c .cfa: sp 16 +
STACK CFI 11c90 .cfa: sp 0 +
STACK CFI 11c94 .cfa: sp 16 +
STACK CFI 11c98 .cfa: sp 0 +
STACK CFI INIT 11c9c 18 .cfa: sp 0 +
STACK CFI INIT 11cb4 5c .cfa: sp 0 +
STACK CFI 11cb8 .cfa: sp 16 +
STACK CFI 11cbc .cfa: x29 16 + .ra: .cfa -8 + ^ x29: .cfa -16 + ^
STACK CFI 11d00 .cfa: sp 16 +
STACK CFI 11d04 .cfa: sp 0 +
STACK CFI 11d08 .cfa: sp 16 +
STACK CFI 11d0c .cfa: sp 0 +
STACK CFI INIT 11d10 5c .cfa: sp 0 +
STACK CFI 11d14 .cfa: sp 16 +
STACK CFI 11d18 .cfa: x29 16 + .ra: .cfa -8 + ^ x29: .cfa -16 + ^
STACK CFI 11d5c .cfa: sp 16 +
STACK CFI 11d60 .cfa: sp 0 +
STACK CFI 11d64 .cfa: sp 16 +
STACK CFI 11d68 .cfa: sp 0 +
STACK CFI INIT 121a8 1c .cfa: sp 0 +
STACK CFI INIT 121c4 10 .cfa: sp 0 +
STACK CFI 121c8 .cfa: sp 16 +
STACK CFI 121cc .cfa: x29 16 + .ra: .cfa -8 + ^ x29: .cfa -16 + ^
STACK CFI INIT 124dc 50 .cfa: sp 0 +
STACK CFI 124e0 .cfa: sp 32 +
STACK CFI 124e8 .cfa: x29 32 + x19: .cfa -16 + ^ .ra: .cfa -24 + ^ x29: .cfa -32 + ^
STACK CFI 12500 .cfa: sp 32 +
STACK CFI 12508 .cfa: sp 0 +
STACK CFI 1250c .cfa: x29 32 +
STACK CFI 12520 .cfa: sp 32 +
STACK CFI 12528 .cfa: sp 0 +
STACK CFI INIT 125a0 7c .cfa: sp 0 +
STACK CFI 125a4 .cfa: sp 48 +
STACK CFI 125b0 .cfa: x29 48 + x19: .cfa -8 + ^ x20: .cfa -16 + ^ x21: .cfa -32 + ^ .ra: .cfa -40 + ^ x29: .cfa -48 + ^
STACK CFI 125fc .cfa: sp 48 +
STACK CFI 12608 .cfa: sp 0 +
STACK CFI 1260c .cfa: sp 48 +
STACK CFI 12618 .cfa: sp 0 +
STACK CFI INIT 1261c 4 .cfa: sp 0 +
STACK CFI INIT 12774 34 .cfa: sp 0 +
STACK CFI 12778 .cfa: sp 16 +
STACK CFI 1277c .cfa: x29 16 + .ra: .cfa -8 + ^ x29: .cfa -16 + ^
STACK CFI INIT 128d4 80 .cfa: sp 0 +
STACK CFI 128d8 .cfa: sp 48 +
STACK CFI 128e4 .cfa: x29 48 + x19: .cfa -8 + ^ x20: .cfa -16 + ^ x21: .cfa -32 + ^ .ra: .cfa -40 + ^ x29: .cfa -48 + ^
STACK CFI 12944 .cfa: sp 48 +
STACK CFI 12950 .cfa: sp 0 +
STACK CFI INIT 12954 24 .cfa: sp 0 +
STACK CFI 12958 .cfa: sp 32 +
STACK CFI 12960 .cfa: x29 32 + x19: .cfa -16 + ^ .ra: .cfa -24 + ^ x29: .cfa -32 + ^
STACK CFI 1296c .cfa: sp 32 +
STACK CFI 12974 .cfa: sp 0 +
STACK CFI INIT 12cf8 14 .cfa: sp 0 +
STACK CFI 12cfc .cfa: sp 16 +
STACK CFI 12d00 .cfa: x29 16 + .ra: .cfa -8 + ^ x29: .cfa -16 + ^
STACK CFI INIT 12d5c 30 .cfa: sp 0 +
STACK CFI 12d60 .cfa: sp 32 +
STACK CFI 12d68 .cfa: x29 32 + x19: .cfa -16 + ^ .ra: .cfa -24 + ^ x29: .cfa -32 + ^
STACK CFI 12d80 .cfa: sp 32 +
STACK CFI 12d88 .cfa: sp 0 +
STACK CFI INIT 12d8c 34 .cfa: sp 0 +
STACK CFI 12d90 .cfa: sp 32 +
STACK CFI 12d98 .cfa: x29 32 + x19: .cfa -16 + ^ .ra: .cfa -24 + ^ x29: .cfa -32 + ^
STACK CFI INIT 12f38 148 .cfa: sp 0 +
STACK CFI 12f3c .cfa: sp 48 +
STACK CFI 12f48 .cfa: x29 48 + x19: .cfa -8 + ^ x20: .cfa -16 + ^ x21: .cfa -32 + ^ .ra: .cfa -40 + ^ x29: .cfa -48 + ^
STACK CFI 13070 .cfa: sp 48 +
STACK CFI 1307c .cfa: sp 0 +
STACK CFI INIT 132a8 80 .cfa: sp 0 +
STACK CFI 132ac .cfa: sp 48 +
STACK CFI 132b8 .cfa: x29 48 + x19: .cfa -8 + ^ x20: .cfa -16 + ^ x21: .cfa -24 + ^ x22: .cfa -32 + ^ .ra: .cfa -40 + ^ x29: .cfa -48 + ^
STACK CFI 132d0 .cfa: sp 48 +
STACK CFI 132dc .cfa: sp 0 +
STACK CFI 132e0 .cfa: x29 48 +
STACK CFI 13310 .cfa: sp 48 +
STACK CFI 1331c .cfa: sp 0 +
STACK CFI 13320 .cfa: x29 48 +
STACK CFI INIT 13328 68 .cfa: sp 0 +
STACK CFI 1332c .cfa: sp 32 +
STACK CFI 13334 .cfa: x29 32 + x19: .cfa -8 + ^ x20: .cfa -16 + ^ .ra: .cfa -24 + ^ x29: .cfa -32 + ^
STACK CFI 1334c .cfa: sp 32 +
STACK CFI 13354 .cfa: sp 0 +
STACK CFI 13358 .cfa: x29 32 +
STACK CFI 13384 .cfa: sp 32 +
STACK CFI 1338c .cfa: sp 0 +
STACK CFI INIT 13390 14 .cfa: sp 0 +
STACK CFI 13394 .cfa: sp 16 +
STACK CFI 13398 .cfa: x29 16 + .ra: .cfa -8 + ^ x29: .cfa -16 + ^
STACK CFI INIT 133a4 4 .cfa: sp 0 +
STACK CFI INIT 133a8 14 .cfa: sp 0 +
STACK CFI INIT 133bc 120 .cfa: sp 0 +
STACK CFI 133c0 .cfa: sp 64 +
STACK CFI 133d0 .cfa: x29 64 + x19: .cfa -8 + ^ x20: .cfa -16 + ^ x21: .cfa -24 + ^ x22: .cfa -32 + ^ x23: .cfa -40 + ^ x24: .cfa -48 + ^ .ra: .cfa -56 + ^ x29: .cfa -64 + ^
STACK CFI 134c8 .cfa: sp 64 +
STACK CFI 134d8 .cfa: sp 0 +
STACK CFI INIT 134dc d4 .cfa: sp 0 +
STACK CFI 134e0 .cfa: sp 48 +
STACK CFI 134ec .cfa: x29 48 + x19: .cfa -8 + ^ x20: .cfa -16 + ^ x21: .cfa -32 + ^ .ra: .cfa -40 + ^ x29: .cfa -48 + ^
STACK CFI 1357c .cfa: sp 48 +
STACK CFI 13588 .cfa: sp 0 +
STACK CFI 1358c .cfa: x29 48 +
STACK CFI INIT 135b0 3c8 .cfa: sp 0 +
STACK CFI INIT 13978 8c .cfa: sp 0 +
STACK CFI 13980 .cfa: sp 32 +
STACK CFI 13988 .cfa: x29 32 + x19: .cfa -8 + ^ x20: .cfa -16 + ^ .ra: .cfa -24 + ^ x29: .cfa -32 + ^
STACK CFI 139d0 .cfa: sp 32 +
STACK CFI 139d8 .cfa: sp 0 +
STACK CFI 139e0 .cfa: x29 32 +
STACK CFI INIT 143e8 9c .cfa: sp 0 +
STACK CFI INIT 14484 50 .cfa: sp 0 +
STACK CFI 14488 .cfa: sp 32 +
STACK CFI 14490 .cfa: x29 32 + x19: .cfa -16 + ^ .ra: .cfa -24 + ^ x29: .cfa -32 + ^
STACK CFI 144a8 .cfa: sp 32 +
STACK CFI 144b0 .cfa: sp 0 +
STACK CFI 144b4 .cfa: x29 32 +
STACK CFI 144c8 .cfa: sp 32 +
STACK CFI 144d0 .cfa: sp 0 +
STACK CFI INIT 144d4 64 .cfa: sp 0 +
STACK CFI 144d8 .cfa: sp 32 +
STACK CFI 144e0 .cfa: x29 32 + x19: .cfa -16 + ^ .ra: .cfa -24 + ^ x29: .cfa -32 + ^
STACK CFI 1450c .cfa: sp 32 +
STACK CFI 14514 .cfa: sp 0 +
STACK CFI 14518 .cfa: x29 32 +
STACK CFI 1452c .cfa: sp 32 +
STACK CFI 14534 .cfa: sp 0 +
STACK CFI INIT 148b0 50 .cfa: sp 0 +
STACK CFI 148b4 .cfa: sp 32 +
STACK CFI 148bc .cfa: x29 32 + x19: .cfa -16 + ^ .ra: .cfa -24 + ^ x29: .cfa -32 + ^
STACK CFI 148d4 .cfa: sp 32 +
STACK CFI 148dc .cfa: sp 0 +
STACK CFI 148e0 .cfa: x29 32 +
STACK CFI 148f4 .cfa: sp 32 +
STACK CFI 148fc .cfa: sp 0 +
STACK CFI INIT 14ccc 1a4 .cfa: sp 0 +
STACK CFI 14cd0 .cfa: sp 48 +
STACK CFI 14cdc .cfa: x29 48 + x19: .cfa -8 + ^ x20: .cfa -16 + ^ x21: .cfa -24 + ^ x22: .cfa -32 + ^ .ra: .cfa -40 + ^ x29: .cfa -48 + ^
STACK CFI 14e60 .cfa: sp 48 +
STACK CFI 14e6c .cfa: sp 0 +
STACK CFI INIT 14e70 14 .cfa: sp 0 +
STACK CFI 14e74 .cfa: sp 16 +
STACK CFI 14e78 .cfa: x29 16 + .ra: .cfa -8 + ^ x29: .cfa -16 + ^
STACK CFI INIT 150b0 14 .cfa: sp 0 +
STACK CFI 150b4 .cfa: sp 16 +
STACK CFI 150b8 .cfa: x29 16 + .ra: .cfa -8 + ^ x29: .cfa -16 + ^
STACK CFI INIT 150c4 14 .cfa: sp 0 +
STACK CFI 150c8 .cfa: sp 16 +
STACK CFI 150cc .cfa: x29 16 + .ra: .cfa -8 + ^ x29: .cfa -16 + ^
STACK CFI INIT 15128 30 .cfa: sp 0 +
STACK CFI 1512c .cfa: sp 32 +
STACK CFI 15134 .cfa: x29 32 + x19: .cfa -16 + ^ .ra: .cfa -24 + ^ x29: .cfa -32 + ^
STACK CFI 1514c .cfa: sp 32 +
STACK CFI 15154 .cfa: sp 0 +
STACK CFI INIT 15158 14 .cfa: sp 0 +
STACK CFI 1515c .cfa: sp 16 +
STACK CFI 15160 .cfa: x29 16 + .ra: .cfa -8 + ^ x29: .cfa -16 + ^
STACK CFI INIT 1516c 9c .cfa: sp 0 +
STACK CFI 15170 .cfa: sp 32 +
STACK CFI 15178 .cfa: x29 32 + x19: .cfa -8 + ^ x20: .cfa -16 + ^ .ra: .cfa -24 + ^ x29: .cfa -32 + ^
STACK CFI 151fc .cfa: sp 32 +
STACK CFI 15204 .cfa: sp 0 +
STACK CFI INIT 15208 4 .cfa: sp 0 +
STACK CFI INIT 153d8 a4 .cfa: sp 0 +
STACK CFI 153dc .cfa: sp 32 +
STACK CFI 153e4 .cfa: x29 32 + x19: .cfa -8 + ^ x20: .cfa -16 + ^ .ra: .cfa -24 + ^ x29: .cfa -32 + ^
STACK CFI 15470 .cfa: sp 32 +
STACK CFI 15478 .cfa: sp 0 +
STACK CFI INIT 1547c 104 .cfa: sp 0 +
STACK CFI 15480 .cfa: sp 64 +
STACK CFI 15490 .cfa: x29 64 + x19: .cfa -8 + ^ x20: .cfa -16 + ^ x21: .cfa -24 + ^ x22: .cfa -32 + ^ x23: .cfa -48 + ^ .ra: .cfa -56 + ^ x29: .cfa -64 + ^
STACK CFI 154ec .cfa: sp 64 +
STACK CFI 154fc .cfa: sp 0 +
STACK CFI 15500 .cfa: x29 64 +
STACK CFI 1551c .cfa: sp 64 +
STACK CFI 1552c .cfa: sp 0 +
STACK CFI 15530 .cfa: x29 64 +
STACK CFI 1556c .cfa: sp 64 +
STACK CFI 1557c .cfa: sp 0 +
STACK CFI INIT 15580 34 .cfa: sp 0 +
STACK CFI 15584 .cfa: sp 16 +
STACK CFI 15588 .cfa: x29 16 + .ra: .cfa -8 + ^ x29: .cfa -16 + ^
STACK CFI INIT 155b4 24 .cfa: sp 0 +
STACK CFI 155b8 .cfa: sp 32 +
STACK CFI 155c0 .cfa: x29 32 + x19: .cfa -16 + ^ .ra: .cfa -24 + ^ x29: .cfa -32 + ^
STACK CFI 155cc .cfa: sp 32 +
STACK CFI 155d4 .cfa: sp 0 +
STACK CFI INIT 155d8 4 .cfa: sp 0 +
STACK CFI INIT 155dc 4 .cfa: sp 0 +
STACK CFI INIT 155e0 38 .cfa: sp 0 +
STACK CFI 155e4 .cfa: sp 32 +
STACK CFI 155ec .cfa: x29 32 + x19: .cfa -16 + ^ .ra: .cfa -24 + ^ x29: .cfa -32 + ^
STACK CFI 1560c .cfa: sp 32 +
STACK CFI 15614 .cfa: sp 0 +
STACK CFI INIT 15618 18 .cfa: sp 0 +
STACK CFI INIT 15630 4 .cfa: sp 0 +
STACK CFI INIT 15634 4 .cfa: sp 0 +
STACK CFI INIT 15638 10 .cfa: sp 0 +
STACK CFI INIT 15648 1c .cfa: sp 0 +
STACK CFI INIT 15664 c .cfa: sp 0 +
STACK CFI INIT 15874 50 .cfa: sp 0 +
STACK CFI 15878 .cfa: sp 32 +
STACK CFI 15880 .cfa: x29 32 + x19: .cfa -16 + ^ .ra: .cfa -24 + ^ x29: .cfa -32 + ^
STACK CFI 15898 .cfa: sp 32 +
STACK CFI 158a0 .cfa: sp 0 +
STACK CFI 158a4 .cfa: x29 32 +
STACK CFI 158b8 .cfa: sp 32 +
STACK CFI 158c0 .cfa: sp 0 +
STACK CFI INIT 158c4 50 .cfa: sp 0 +
STACK CFI 158c8 .cfa: sp 32 +
STACK CFI 158d0 .cfa: x29 32 + x19: .cfa -16 + ^ .ra: .cfa -24 + ^ x29: .cfa -32 + ^
STACK CFI 158e8 .cfa: sp 32 +
STACK CFI 158f0 .cfa: sp 0 +
STACK CFI 158f4 .cfa: x29 32 +
STACK CFI 15908 .cfa: sp 32 +
STACK CFI 15910 .cfa: sp 0 +
STACK CFI INIT 15914 5c .cfa: sp 0 +
STACK CFI 15918 .cfa: sp 32 +
STACK CFI 15920 .cfa: x29 32 + x19: .cfa -16 + ^ .ra: .cfa -24 + ^ x29: .cfa -32 + ^
STACK CFI 15944 .cfa: sp 32 +
STACK CFI 1594c .cfa: sp 0 +
STACK CFI 15950 .cfa: x29 32 +
STACK CFI 15964 .cfa: sp 32 +
STACK CFI 1596c .cfa: sp 0 +
STACK CFI INIT 15970 6c .cfa: sp 0 +
STACK CFI 15974 .cfa: sp 32 +
STACK CFI 1597c .cfa: x29 32 + x19: .cfa -8 + ^ x20: .cfa -16 + ^ .ra: .cfa -24 + ^ x29: .cfa -32 + ^
STACK CFI 159a8 .cfa: sp 32 +
STACK CFI 159b0 .cfa: sp 0 +
STACK CFI 159b4 .cfa: x29 32 +
STACK CFI 159d0 .cfa: sp 32 +
STACK CFI 159d8 .cfa: sp 0 +
STACK CFI INIT 159dc 58 .cfa: sp 0 +
STACK CFI 159e0 .cfa: sp 32 +
STACK CFI 159e8 .cfa: x29 32 + x19: .cfa -8 + ^ x20: .cfa -16 + ^ .ra: .cfa -24 + ^ x29: .cfa -32 + ^
STACK CFI 15a28 .cfa: sp 32 +
STACK CFI 15a30 .cfa: sp 0 +
STACK CFI INIT 15a34 4c .cfa: sp 0 +
STACK CFI 15a38 .cfa: sp 32 +
STACK CFI 15a40 .cfa: x29 32 + x19: .cfa -8 + ^ x20: .cfa -16 + ^ .ra: .cfa -24 + ^ x29: .cfa -32 + ^
STACK CFI 15a74 .cfa: sp 32 +
STACK CFI 15a7c .cfa: sp 0 +
STACK CFI INIT 15a80 50 .cfa: sp 0 +
STACK CFI 15a84 .cfa: sp 32 +
STACK CFI 15a8c .cfa: x29 32 + x19: .cfa -16 + ^ .ra: .cfa -24 + ^ x29: .cfa -32 + ^
STACK CFI 15aa4 .cfa: sp 32 +
STACK CFI 15aac .cfa: sp 0 +
STACK CFI 15ab0 .cfa: x29 32 +
STACK CFI 15ac4 .cfa: sp 32 +
STACK CFI 15acc .cfa: sp 0 +
STACK CFI INIT 15ad0 60 .cfa: sp 0 +
STACK CFI 15ad4 .cfa: sp 32 +
STACK CFI 15adc .cfa: x29 32 + x19: .cfa -8 + ^ x20: .cfa -16 + ^ .ra: .cfa -24 + ^ x29: .cfa -32 + ^
STACK CFI 15afc .cfa: sp 32 +
STACK CFI 15b04 .cfa: sp 0 +
STACK CFI 15b08 .cfa: x29 32 +
STACK CFI 15b24 .cfa: sp 32 +
STACK CFI 15b2c .cfa: sp 0 +
STACK CFI INIT 15d00 1c .cfa: sp 0 +
STACK CFI INIT 15d1c c .cfa: sp 0 +
STACK CFI INIT 15d28 60 .cfa: sp 0 +
STACK CFI 15d2c .cfa: sp 32 +
STACK CFI 15d34 .cfa: x29 32 + x19: .cfa -8 + ^ x20: .cfa -16 + ^ .ra: .cfa -24 + ^ x29: .cfa -32 + ^
STACK CFI 15d54 .cfa: sp 32 +
STACK CFI 15d5c .cfa: sp 0 +
STACK CFI 15d60 .cfa: x29 32 +
STACK CFI 15d7c .cfa: sp 32 +
STACK CFI 15d84 .cfa: sp 0 +
STACK CFI INIT 15d88 70 .cfa: sp 0 +
STACK CFI 15d8c .cfa: sp 32 +
STACK CFI 15d94 .cfa: x29 32 + x19: .cfa -8 + ^ x20: .cfa -16 + ^ .ra: .cfa -24 + ^ x29: .cfa -32 + ^
STACK CFI 15dbc .cfa: sp 32 +
STACK CFI 15dc4 .cfa: sp 0 +
STACK CFI 15dc8 .cfa: x29 32 +
STACK CFI 15dec .cfa: sp 32 +
STACK CFI 15df4 .cfa: sp 0 +
STACK CFI INIT 15df8 5c .cfa: sp 0 +
STACK CFI 15dfc .cfa: sp 32 +
STACK CFI 15e04 .cfa: x29 32 + x19: .cfa -16 + ^ .ra: .cfa -24 + ^ x29: .cfa -32 + ^
STACK CFI 15e28 .cfa: sp 32 +
STACK CFI 15e30 .cfa: sp 0 +
STACK CFI 15e34 .cfa: x29 32 +
STACK CFI 15e48 .cfa: sp 32 +
STACK CFI 15e50 .cfa: sp 0 +
STACK CFI INIT 15e54 6c .cfa: sp 0 +
STACK CFI 15e58 .cfa: sp 32 +
STACK CFI 15e60 .cfa: x29 32 + x19: .cfa -8 + ^ x20: .cfa -16 + ^ .ra: .cfa -24 + ^ x29: .cfa -32 + ^
STACK CFI 15e8c .cfa: sp 32 +
STACK CFI 15e94 .cfa: sp 0 +
STACK CFI 15e98 .cfa: x29 32 +
STACK CFI 15eb4 .cfa: sp 32 +
STACK CFI 15ebc .cfa: sp 0 +
STACK CFI INIT 15ec0 58 .cfa: sp 0 +
STACK CFI 15ec4 .cfa: sp 32 +
STACK CFI 15ecc .cfa: x29 32 + x19: .cfa -8 + ^ x20: .cfa -16 + ^ .ra: .cfa -24 + ^ x29: .cfa -32 + ^
STACK CFI 15f0c .cfa: sp 32 +
STACK CFI 15f14 .cfa: sp 0 +
STACK CFI INIT 15f18 4c .cfa: sp 0 +
STACK CFI 15f1c .cfa: sp 32 +
STACK CFI 15f24 .cfa: x29 32 + x19: .cfa -8 + ^ x20: .cfa -16 + ^ .ra: .cfa -24 + ^ x29: .cfa -32 + ^
STACK CFI 15f58 .cfa: sp 32 +
STACK CFI 15f60 .cfa: sp 0 +
STACK CFI INIT 15f64 50 .cfa: sp 0 +
STACK CFI 15f68 .cfa: sp 32 +
STACK CFI 15f70 .cfa: x29 32 + x19: .cfa -16 + ^ .ra: .cfa -24 + ^ x29: .cfa -32 + ^
STACK CFI 15f88 .cfa: sp 32 +
STACK CFI 15f90 .cfa: sp 0 +
STACK CFI 15f94 .cfa: x29 32 +
STACK CFI 15fa8 .cfa: sp 32 +
STACK CFI 15fb0 .cfa: sp 0 +
STACK CFI INIT 15fb4 60 .cfa: sp 0 +
STACK CFI 15fb8 .cfa: sp 32 +
STACK CFI 15fc0 .cfa: x29 32 + x19: .cfa -8 + ^ x20: .cfa -16 + ^ .ra: .cfa -24 + ^ x29: .cfa -32 + ^
STACK CFI 15fe0 .cfa: sp 32 +
STACK CFI 15fe8 .cfa: sp 0 +
STACK CFI 15fec .cfa: x29 32 +
STACK CFI 16008 .cfa: sp 32 +
STACK CFI 16010 .cfa: sp 0 +
STACK CFI INIT 161d8 1c .cfa: sp 0 +
STACK CFI INIT 161f4 c .cfa: sp 0 +
STACK CFI INIT 16398 4 .cfa: sp 0 +
STACK CFI INIT 1639c 24 .cfa: sp 0 +
STACK CFI 163a0 .cfa: sp 16 +
STACK CFI 163a4 .cfa: x29 16 + .ra: .cfa -8 + ^ x29: .cfa -16 + ^
STACK CFI 163b8 .cfa: sp 16 +
STACK CFI 163bc .cfa: sp 0 +
STACK CFI INIT 163c0 10 .cfa: sp 0 +
STACK CFI INIT 163d0 4 .cfa: sp 0 +
STACK CFI INIT 163d4 4 .cfa: sp 0 +
STACK CFI INIT 164f8 1c .cfa: sp 0 +
STACK CFI INIT 16514 c .cfa: sp 0 +
STACK CFI INIT 16cf0 14 .cfa: sp 0 +
STACK CFI 16cf4 .cfa: sp 16 +
STACK CFI 16cf8 .cfa: x29 16 + .ra: .cfa -8 + ^ x29: .cfa -16 + ^
STACK CFI INIT 16d04 14 .cfa: sp 0 +
STACK CFI 16d08 .cfa: sp 16 +
STACK CFI 16d0c .cfa: x29 16 + .ra: .cfa -8 + ^ x29: .cfa -16 + ^
STACK CFI INIT 16d18 14 .cfa: sp 0 +
STACK CFI INIT 16d2c 14 .cfa: sp 0 +
STACK CFI INIT 16d40 4 .cfa: sp 0 +
STACK CFI INIT 16d44 24 .cfa: sp 0 +
STACK CFI 16d48 .cfa: sp 16 +
STACK CFI 16d4c .cfa: x29 16 + .ra: .cfa -8 + ^ x29: .cfa -16 + ^
STACK CFI 16d60 .cfa: sp 16 +
STACK CFI 16d64 .cfa: sp 0 +
STACK CFI INIT 16d68 10 .cfa: sp 0 +
STACK CFI INIT 16d78 4 .cfa: sp 0 +
STACK CFI INIT 16d7c 4 .cfa: sp 0 +
STACK CFI INIT 16ea0 1c .cfa: sp 0 +
STACK CFI INIT 16ebc c .cfa: sp 0 +
STACK CFI INIT 16ec8 4 .cfa: sp 0 +
STACK CFI INIT 16ecc 4 .cfa: sp 0 +
STACK CFI INIT 16ed0 24 .cfa: sp 0 +
STACK CFI 16ed4 .cfa: sp 16 +
STACK CFI 16ed8 .cfa: x29 16 + .ra: .cfa -8 + ^ x29: .cfa -16 + ^
STACK CFI 16eec .cfa: sp 16 +
STACK CFI 16ef0 .cfa: sp 0 +
STACK CFI INIT 16ef4 10 .cfa: sp 0 +
STACK CFI INIT 16f04 4 .cfa: sp 0 +
STACK CFI INIT 16f08 4 .cfa: sp 0 +
STACK CFI INIT 1702c 1c .cfa: sp 0 +
STACK CFI INIT 17048 c .cfa: sp 0 +
STACK CFI INIT 17054 178 .cfa: sp 0 +
STACK CFI 17058 .cfa: sp 80 +
STACK CFI 1706c .cfa: x29 80 + x19: .cfa -8 + ^ x20: .cfa -16 + ^ x21: .cfa -24 + ^ x22: .cfa -32 + ^ x23: .cfa -40 + ^ x24: .cfa -48 + ^ x25: .cfa -56 + ^ x26: .cfa -64 + ^ .ra: .cfa -72 + ^ x29: .cfa -80 + ^
STACK CFI 171b4 .cfa: sp 80 +
STACK CFI 171c8 .cfa: sp 0 +
STACK CFI INIT 171cc 1b0 .cfa: sp 0 +
STACK CFI INIT 17adc 1c .cfa: sp 0 +
STACK CFI INIT 17e7c 4 .cfa: sp 0 +
STACK CFI INIT 17e80 7c .cfa: sp 0 +
STACK CFI 17e84 .cfa: sp 32 +
STACK CFI 17e8c .cfa: x29 32 + x19: .cfa -8 + ^ x20: .cfa -16 + ^ .ra: .cfa -24 + ^ x29: .cfa -32 + ^
STACK CFI 17ee4 .cfa: sp 32 +
STACK CFI 17eec .cfa: sp 0 +
STACK CFI 17ef0 .cfa: sp 32 +
STACK CFI 17ef8 .cfa: sp 0 +
STACK CFI INIT 18064 4 .cfa: sp 0 +
STACK CFI INIT 18068 14 .cfa: sp 0 +
STACK CFI INIT 1807c 4 .cfa: sp 0 +
STACK CFI INIT 1b098 4 .cfa: sp 0 +
STACK CFI INIT 1e5c0 3c .cfa: sp 0 +
STACK CFI 1e5c4 .cfa: sp 32 +
STACK CFI 1e5cc .cfa: x29 32 + x19: .cfa -16 + ^ .ra: .cfa -24 + ^ x29: .cfa -32 + ^
STACK CFI 1e5d8 .cfa: sp 32 +
STACK CFI 1e5e0 .cfa: sp 0 +
STACK CFI 1e5e4 .cfa: x29 32 +
STACK CFI 1e5f0 .cfa: sp 32 +
STACK CFI 1e5f8 .cfa: sp 0 +
STACK CFI INIT 1e81c 64 .cfa: sp 0 +
STACK CFI 1e820 .cfa: sp 32 +
STACK CFI 1e828 .cfa: x29 32 + x19: .cfa -16 + ^ .ra: .cfa -24 + ^ x29: .cfa -32 + ^
STACK CFI 1e854 .cfa: sp 32 +
STACK CFI 1e85c .cfa: sp 0 +
STACK CFI 1e860 .cfa: x29 32 +
STACK CFI 1e874 .cfa: sp 32 +
STACK CFI 1e87c .cfa: sp 0 +
STACK CFI INIT 1ec34 4 .cfa: sp 0 +
STACK CFI INIT 1ec38 14 .cfa: sp 0 +
STACK CFI INIT 1ec4c c .cfa: sp 0 +
STACK CFI INIT 1ec58 24c .cfa: sp 0 +
STACK CFI INIT 1eea4 a0 .cfa: sp 0 +
STACK CFI 1eeb0 .cfa: sp 32 +
STACK CFI 1ef08 .cfa: sp 0 +
STACK CFI 1ef0c .cfa: sp 32 +
STACK CFI 1ef14 .cfa: sp 0 +
STACK CFI 1ef18 .cfa: sp 32 +
STACK CFI 1ef2c .cfa: sp 0 +
STACK CFI 1ef30 .cfa: sp 32 +
STACK CFI 1ef40 .cfa: sp 0 +
STACK CFI INIT 1ef44 38 .cfa: sp 0 +
STACK CFI 1ef50 .cfa: sp 32 +
STACK CFI 1ef78 .cfa: sp 0 +
STACK CFI INIT 1f210 7c .cfa: sp 0 +
STACK CFI 1f214 .cfa: sp 32 +
STACK CFI 1f21c .cfa: x29 32 + x19: .cfa -16 + ^ .ra: .cfa -24 + ^ x29: .cfa -32 + ^
STACK CFI 1f248 .cfa: sp 32 +
STACK CFI 1f250 .cfa: sp 0 +
STACK CFI 1f254 .cfa: x29 32 +
STACK CFI 1f280 .cfa: sp 32 +
STACK CFI 1f288 .cfa: sp 0 +
STACK CFI INIT 1f2dc 2c .cfa: sp 0 +
STACK CFI 1f2e0 .cfa: sp 32 +
STACK CFI 1f2e8 .cfa: x29 32 + x19: .cfa -16 + ^ .ra: .cfa -24 + ^ x29: .cfa -32 + ^
STACK CFI 1f2fc .cfa: sp 32 +
STACK CFI 1f304 .cfa: sp 0 +
STACK CFI INIT 1fac8 64 .cfa: sp 0 +
STACK CFI 1facc .cfa: sp 32 +
STACK CFI 1fad4 .cfa: x29 32 + x19: .cfa -16 + ^ .ra: .cfa -24 + ^ x29: .cfa -32 + ^
STACK CFI 1faf0 .cfa: sp 32 +
STACK CFI 1faf8 .cfa: sp 0 +
STACK CFI 1fafc .cfa: x29 32 +
STACK CFI 1fb20 .cfa: sp 32 +
STACK CFI 1fb28 .cfa: sp 0 +
STACK CFI INIT 1fb2c 570 .cfa: sp 0 +
STACK CFI 1fb30 .cfa: sp 176 +
STACK CFI 1fb44 .cfa: x29 64 + x19: .cfa -8 + ^ x20: .cfa -16 + ^ x21: .cfa -24 + ^ x22: .cfa -32 + ^ x23: .cfa -40 + ^ x24: .cfa -48 + ^ .ra: .cfa -56 + ^ x29: .cfa -64 + ^
STACK CFI 1fd74 .cfa: sp 176 +
STACK CFI 1fd88 .cfa: sp 0 +
STACK CFI 1fd8c .cfa: x29 64 +
STACK CFI 1fdd8 .cfa: sp 176 +
STACK CFI 1fdec .cfa: sp 0 +
STACK CFI 1fdf0 .cfa: x29 64 +
STACK CFI 1fe28 .cfa: sp 176 +
STACK CFI 1fe3c .cfa: sp 0 +
STACK CFI 1fe40 .cfa: x29 64 +
STACK CFI 1fe58 .cfa: sp 176 +
STACK CFI 1fe6c .cfa: sp 0 +
STACK CFI 1fe70 .cfa: x29 64 +
STACK CFI 1fe90 .cfa: sp 176 +
STACK CFI 1fea4 .cfa: sp 0 +
STACK CFI 1fea8 .cfa: x29 64 +
STACK CFI 1fec0 .cfa: sp 176 +
STACK CFI 1fed4 .cfa: sp 0 +
STACK CFI 1fed8 .cfa: x29 64 +
STACK CFI 1feec .cfa: sp 176 +
STACK CFI 1ff00 .cfa: sp 0 +
STACK CFI 1ff04 .cfa: x29 64 +
STACK CFI 1ff18 .cfa: sp 176 +
STACK CFI 1ff2c .cfa: sp 0 +
STACK CFI 1ff30 .cfa: x29 64 +
STACK CFI 1ff40 .cfa: sp 176 +
STACK CFI 1ff54 .cfa: sp 0 +
STACK CFI 1ff58 .cfa: x29 64 +
STACK CFI 1ff68 .cfa: sp 176 +
STACK CFI 1ff7c .cfa: sp 0 +
STACK CFI 1ff80 .cfa: x29 64 +
STACK CFI 1ff98 .cfa: sp 176 +
STACK CFI 1ffac .cfa: sp 0 +
STACK CFI 1ffb0 .cfa: x29 64 +
STACK CFI 1ffc4 .cfa: sp 176 +
STACK CFI 1ffd8 .cfa: sp 0 +
STACK CFI 1ffdc .cfa: x29 64 +
STACK CFI 1fff4 .cfa: sp 176 +
STACK CFI 20008 .cfa: sp 0 +
STACK CFI 2000c .cfa: x29 64 +
STACK CFI 20038 .cfa: sp 176 +
STACK CFI 2004c .cfa: sp 0 +
STACK CFI 20050 .cfa: x29 64 +
STACK CFI 20064 .cfa: sp 176 +
STACK CFI 20078 .cfa: sp 0 +
STACK CFI 2007c .cfa: x29 64 +
STACK CFI INIT 2009c 228 .cfa: sp 0 +
STACK CFI INIT 202c4 2dc .cfa: sp 0 +
STACK CFI INIT 205a0 53c .cfa: sp 0 +
STACK CFI INIT 20adc 78 .cfa: sp 0 +
STACK CFI 20ae0 .cfa: sp 48 +
STACK CFI 20aec .cfa: x29 48 + x19: .cfa -8 + ^ x20: .cfa -16 + ^ x21: .cfa -24 + ^ x22: .cfa -32 + ^ .ra: .cfa -40 + ^ x29: .cfa -48 + ^
STACK CFI 20b34 .cfa: sp 48 +
STACK CFI 20b40 .cfa: sp 0 +
STACK CFI 20b44 .cfa: sp 48 +
STACK CFI 20b50 .cfa: sp 0 +
STACK CFI INIT 20b54 8c .cfa: sp 0 +
STACK CFI 20b58 .cfa: sp 32 +
STACK CFI 20b60 .cfa: x29 32 + x19: .cfa -16 + ^ .ra: .cfa -24 + ^ x29: .cfa -32 + ^
STACK CFI 20b94 .cfa: sp 32 +
STACK CFI 20b9c .cfa: sp 0 +
STACK CFI 20ba0 .cfa: x29 32 +
STACK CFI 20bd4 .cfa: sp 32 +
STACK CFI 20bdc .cfa: sp 0 +
STACK CFI INIT 20be0 24 .cfa: sp 0 +
STACK CFI 20be4 .cfa: sp 32 +
STACK CFI 20bec .cfa: x29 32 + x19: .cfa -16 + ^ .ra: .cfa -24 + ^ x29: .cfa -32 + ^
STACK CFI 20bf8 .cfa: sp 32 +
STACK CFI 20c00 .cfa: sp 0 +
STACK CFI INIT 20c04 150 .cfa: sp 0 +
STACK CFI 20c08 .cfa: sp 48 +
STACK CFI 20c14 .cfa: x29 48 + x19: .cfa -8 + ^ x20: .cfa -16 + ^ x21: .cfa -24 + ^ x22: .cfa -32 + ^ .ra: .cfa -40 + ^ x29: .cfa -48 + ^
STACK CFI 20d44 .cfa: sp 48 +
STACK CFI 20d50 .cfa: sp 0 +
STACK CFI INIT 20d54 68 .cfa: sp 0 +
STACK CFI 20d58 .cfa: sp 64 +
STACK CFI 20d64 .cfa: x29 32 + x19: .cfa -16 + ^ .ra: .cfa -24 + ^ x29: .cfa -32 + ^
STACK CFI 20da8 .cfa: sp 64 +
STACK CFI 20db4 .cfa: sp 0 +
STACK CFI 20db8 .cfa: x29 32 +
STACK CFI INIT 20dbc 90 .cfa: sp 0 +
STACK CFI 20dc0 .cfa: sp 32 +
STACK CFI 20dc8 .cfa: x29 32 + x19: .cfa -8 + ^ x20: .cfa -16 + ^ .ra: .cfa -24 + ^ x29: .cfa -32 + ^
STACK CFI 20df4 .cfa: sp 32 +
STACK CFI 20dfc .cfa: sp 0 +
STACK CFI 20e00 .cfa: x29 32 +
STACK CFI 20e40 .cfa: sp 32 +
STACK CFI 20e48 .cfa: sp 0 +
STACK CFI INIT 20e4c ec .cfa: sp 0 +
STACK CFI 20e50 .cfa: sp 112 +
STACK CFI 20e60 .cfa: x29 48 + x19: .cfa -8 + ^ x20: .cfa -16 + ^ x21: .cfa -32 + ^ .ra: .cfa -40 + ^ x29: .cfa -48 + ^
STACK CFI 20f20 .cfa: sp 112 +
STACK CFI 20f30 .cfa: sp 0 +
STACK CFI 20f34 .cfa: x29 48 +
STACK CFI INIT 20f38 ec .cfa: sp 0 +
STACK CFI 20f3c .cfa: sp 112 +
STACK CFI 20f4c .cfa: x29 48 + x19: .cfa -8 + ^ x20: .cfa -16 + ^ x21: .cfa -32 + ^ .ra: .cfa -40 + ^ x29: .cfa -48 + ^
STACK CFI 2100c .cfa: sp 112 +
STACK CFI 2101c .cfa: sp 0 +
STACK CFI 21020 .cfa: x29 48 +
STACK CFI INIT 21024 48 .cfa: sp 0 +
STACK CFI 21028 .cfa: sp 32 +
STACK CFI 21030 .cfa: x29 32 + x19: .cfa -8 + ^ x20: .cfa -16 + ^ .ra: .cfa -24 + ^ x29: .cfa -32 + ^
STACK CFI 21054 .cfa: sp 32 +
STACK CFI 2105c .cfa: sp 0 +
STACK CFI 21060 .cfa: x29 32 +
STACK CFI INIT 2106c 98 .cfa: sp 0 +
STACK CFI 21070 .cfa: sp 80 +
STACK CFI 2107c .cfa: x29 32 + x19: .cfa -16 + ^ .ra: .cfa -24 + ^ x29: .cfa -32 + ^
STACK CFI 210f0 .cfa: sp 80 +
STACK CFI 210fc .cfa: sp 0 +
STACK CFI 21100 .cfa: x29 32 +
STACK CFI INIT 21104 260 .cfa: sp 0 +
STACK CFI 21108 .cfa: sp 112 +
STACK CFI 21120 .cfa: x29 80 + x19: .cfa -8 + ^ x20: .cfa -16 + ^ x21: .cfa -24 + ^ x22: .cfa -32 + ^ x23: .cfa -40 + ^ x24: .cfa -48 + ^ x25: .cfa -64 + ^ .ra: .cfa -72 + ^ x29: .cfa -80 + ^
STACK CFI 21304 .cfa: sp 112 +
STACK CFI 2131c .cfa: sp 0 +
STACK CFI 21320 .cfa: x29 80 +
STACK CFI INIT 21364 150 .cfa: sp 0 +
STACK CFI 21368 .cfa: sp 48 +
STACK CFI 21374 .cfa: x29 48 + x19: .cfa -8 + ^ x20: .cfa -16 + ^ x21: .cfa -24 + ^ x22: .cfa -32 + ^ .ra: .cfa -40 + ^ x29: .cfa -48 + ^
STACK CFI 214a4 .cfa: sp 48 +
STACK CFI 214b0 .cfa: sp 0 +
STACK CFI INIT 214b4 1e0 .cfa: sp 0 +
STACK CFI 214b8 .cfa: sp 96 +
STACK CFI 214cc .cfa: x29 64 + x19: .cfa -8 + ^ x20: .cfa -16 + ^ x21: .cfa -24 + ^ x22: .cfa -32 + ^ x23: .cfa -40 + ^ x24: .cfa -48 + ^ .ra: .cfa -56 + ^ x29: .cfa -64 + ^
STACK CFI 2164c .cfa: sp 96 +
STACK CFI 21660 .cfa: sp 0 +
STACK CFI 21664 .cfa: x29 64 +
STACK CFI INIT 21694 284 .cfa: sp 0 +
STACK CFI 21698 .cfa: sp 112 +
STACK CFI 216b0 .cfa: x29 80 + x19: .cfa -8 + ^ x20: .cfa -16 + ^ x21: .cfa -24 + ^ x22: .cfa -32 + ^ x23: .cfa -40 + ^ x24: .cfa -48 + ^ x25: .cfa -64 + ^ .ra: .cfa -72 + ^ x29: .cfa -80 + ^
STACK CFI 218b8 .cfa: sp 112 +
STACK CFI 218d0 .cfa: sp 0 +
STACK CFI 218d4 .cfa: x29 80 +
STACK CFI INIT 21918 208 .cfa: sp 0 +
STACK CFI 2191c .cfa: sp 96 +
STACK CFI 21930 .cfa: x29 64 + x19: .cfa -8 + ^ x20: .cfa -16 + ^ x21: .cfa -24 + ^ x22: .cfa -32 + ^ x23: .cfa -40 + ^ x24: .cfa -48 + ^ .ra: .cfa -56 + ^ x29: .cfa -64 + ^
STACK CFI 21ad8 .cfa: sp 96 +
STACK CFI 21aec .cfa: sp 0 +
STACK CFI 21af0 .cfa: x29 64 +
STACK CFI INIT 21b20 360 .cfa: sp 0 +
STACK CFI 21b24 .cfa: sp 160 +
STACK CFI 21b40 .cfa: x29 96 + x19: .cfa -8 + ^ x20: .cfa -16 + ^ x21: .cfa -24 + ^ x22: .cfa -32 + ^ x23: .cfa -40 + ^ x24: .cfa -48 + ^ x25: .cfa -56 + ^ x26: .cfa -64 + ^ x27: .cfa -72 + ^ x28: .cfa -80 + ^ .ra: .cfa -88 + ^ x29: .cfa -96 + ^
STACK CFI 21e0c .cfa: sp 160 +
STACK CFI 21e28 .cfa: sp 0 +
STACK CFI 21e2c .cfa: x29 96 +
STACK CFI INIT 21e80 314 .cfa: sp 0 +
STACK CFI 21e84 .cfa: sp 144 +
STACK CFI 21ea0 .cfa: x29 96 + x19: .cfa -8 + ^ x20: .cfa -16 + ^ x21: .cfa -24 + ^ x22: .cfa -32 + ^ x23: .cfa -40 + ^ x24: .cfa -48 + ^ x25: .cfa -56 + ^ x26: .cfa -64 + ^ x27: .cfa -72 + ^ x28: .cfa -80 + ^ .ra: .cfa -88 + ^ x29: .cfa -96 + ^
STACK CFI 2211c .cfa: sp 144 +
STACK CFI 22138 .cfa: sp 0 +
STACK CFI 2213c .cfa: x29 96 +
STACK CFI INIT 22194 290 .cfa: sp 0 +
STACK CFI 22198 .cfa: sp 128 +
STACK CFI 221b0 .cfa: x29 80 + x19: .cfa -8 + ^ x20: .cfa -16 + ^ x21: .cfa -24 + ^ x22: .cfa -32 + ^ x23: .cfa -40 + ^ x24: .cfa -48 + ^ x25: .cfa -56 + ^ x26: .cfa -64 + ^ .ra: .cfa -72 + ^ x29: .cfa -80 + ^
STACK CFI 22404 .cfa: sp 128 +
STACK CFI 2241c .cfa: sp 0 +
STACK CFI 22420 .cfa: x29 80 +
STACK CFI INIT 22424 ddc .cfa: sp 0 +
STACK CFI 22428 .cfa: sp 144 +
STACK CFI 22444 .cfa: x29 96 + x19: .cfa -8 + ^ x20: .cfa -16 + ^ x21: .cfa -24 + ^ x22: .cfa -32 + ^ x23: .cfa -40 + ^ x24: .cfa -48 + ^ x25: .cfa -56 + ^ x26: .cfa -64 + ^ x27: .cfa -72 + ^ x28: .cfa -80 + ^ .ra: .cfa -88 + ^ x29: .cfa -96 + ^
STACK CFI 230d8 .cfa: sp 144 +
STACK CFI 230f4 .cfa: sp 0 +
STACK CFI 230f8 .cfa: x29 96 +
STACK CFI INIT 23200 1d0 .cfa: sp 0 +
STACK CFI 23204 .cfa: sp 80 +
STACK CFI 23218 .cfa: x29 80 + x19: .cfa -8 + ^ x20: .cfa -16 + ^ x21: .cfa -24 + ^ x22: .cfa -32 + ^ x23: .cfa -40 + ^ x24: .cfa -48 + ^ x25: .cfa -64 + ^ .ra: .cfa -72 + ^ x29: .cfa -80 + ^
STACK CFI 233b8 .cfa: sp 80 +
STACK CFI 233cc .cfa: sp 0 +
STACK CFI INIT 233d0 23c .cfa: sp 0 +
STACK CFI 233d4 .cfa: sp 112 +
STACK CFI 233e8 .cfa: x29 64 + x19: .cfa -8 + ^ x20: .cfa -16 + ^ x21: .cfa -24 + ^ x22: .cfa -32 + ^ x23: .cfa -40 + ^ x24: .cfa -48 + ^ .ra: .cfa -56 + ^ x29: .cfa -64 + ^
STACK CFI 235c4 .cfa: sp 112 +
STACK CFI 235d8 .cfa: sp 0 +
STACK CFI 235dc .cfa: x29 64 +
STACK CFI INIT 2360c 30c .cfa: sp 0 +
STACK CFI 23610 .cfa: sp 80 +
STACK CFI 23624 .cfa: x29 64 + x19: .cfa -8 + ^ x20: .cfa -16 + ^ x21: .cfa -24 + ^ x22: .cfa -32 + ^ x23: .cfa -40 + ^ x24: .cfa -48 + ^ .ra: .cfa -56 + ^ x29: .cfa -64 + ^
STACK CFI 237a0 .cfa: sp 80 +
STACK CFI 237b4 .cfa: sp 0 +
STACK CFI 237b8 .cfa: x29 64 +
STACK CFI INIT 23918 178 .cfa: sp 0 +
STACK CFI 2391c .cfa: sp 80 +
STACK CFI 23930 .cfa: x29 64 + x19: .cfa -8 + ^ x20: .cfa -16 + ^ x21: .cfa -24 + ^ x22: .cfa -32 + ^ x23: .cfa -40 + ^ x24: .cfa -48 + ^ .ra: .cfa -56 + ^ x29: .cfa -64 + ^
STACK CFI 23a74 .cfa: sp 80 +
STACK CFI 23a88 .cfa: sp 0 +
STACK CFI 23a8c .cfa: x29 64 +
STACK CFI INIT 23a90 178 .cfa: sp 0 +
STACK CFI 23a94 .cfa: sp 80 +
STACK CFI 23aa8 .cfa: x29 64 + x19: .cfa -8 + ^ x20: .cfa -16 + ^ x21: .cfa -24 + ^ x22: .cfa -32 + ^ x23: .cfa -40 + ^ x24: .cfa -48 + ^ .ra: .cfa -56 + ^ x29: .cfa -64 + ^
STACK CFI 23bec .cfa: sp 80 +
STACK CFI 23c00 .cfa: sp 0 +
STACK CFI 23c04 .cfa: x29 64 +
STACK CFI INIT 23c08 240 .cfa: sp 0 +
STACK CFI 23c0c .cfa: sp 96 +
STACK CFI 23c24 .cfa: x29 96 + x19: .cfa -8 + ^ x20: .cfa -16 + ^ x21: .cfa -24 + ^ x22: .cfa -32 + ^ x23: .cfa -40 + ^ x24: .cfa -48 + ^ x25: .cfa -56 + ^ x26: .cfa -64 + ^ x27: .cfa -72 + ^ x28: .cfa -80 + ^ .ra: .cfa -88 + ^ x29: .cfa -96 + ^
STACK CFI 23e2c .cfa: sp 96 +
STACK CFI 23e44 .cfa: sp 0 +
STACK CFI INIT 24abc 154 .cfa: sp 0 +
STACK CFI 24ac0 .cfa: sp 96 +
STACK CFI 24ad4 .cfa: x29 64 + x19: .cfa -8 + ^ x20: .cfa -16 + ^ x21: .cfa -24 + ^ x22: .cfa -32 + ^ x23: .cfa -48 + ^ .ra: .cfa -56 + ^ x29: .cfa -64 + ^
STACK CFI 24bb4 .cfa: sp 96 +
STACK CFI 24bc8 .cfa: sp 0 +
STACK CFI 24bcc .cfa: x29 64 +
STACK CFI INIT 24e7c 44 .cfa: sp 0 +
STACK CFI 24e80 .cfa: sp 32 +
STACK CFI 24e88 .cfa: x29 32 + x19: .cfa -16 + ^ .ra: .cfa -24 + ^ x29: .cfa -32 + ^
STACK CFI 24ea4 .cfa: sp 32 +
STACK CFI 24eac .cfa: sp 0 +
STACK CFI 24eb0 .cfa: x29 32 +
STACK CFI 24eb4 .cfa: sp 32 +
STACK CFI 24ebc .cfa: sp 0 +
STACK CFI INIT 24ec0 1d0 .cfa: sp 0 +
STACK CFI 24ec4 .cfa: sp 64 +
STACK CFI 24ed4 .cfa: x29 64 + x19: .cfa -8 + ^ x20: .cfa -16 + ^ x21: .cfa -24 + ^ x22: .cfa -32 + ^ x23: .cfa -40 + ^ x24: .cfa -48 + ^ .ra: .cfa -56 + ^ x29: .cfa -64 + ^
STACK CFI 24f94 .cfa: sp 64 +
STACK CFI 24fa4 .cfa: sp 0 +
STACK CFI 24fa8 .cfa: x29 64 +
STACK CFI INIT 25090 17c .cfa: sp 0 +
STACK CFI INIT 2520c ac .cfa: sp 0 +
STACK CFI 25210 .cfa: sp 64 +
STACK CFI 25220 .cfa: x29 64 + x19: .cfa -8 + ^ x20: .cfa -16 + ^ x21: .cfa -24 + ^ x22: .cfa -32 + ^ x23: .cfa -48 + ^ .ra: .cfa -56 + ^ x29: .cfa -64 + ^
STACK CFI 2529c .cfa: sp 64 +
STACK CFI 252ac .cfa: sp 0 +
STACK CFI 252b0 .cfa: x29 64 +
STACK CFI INIT 252b8 110 .cfa: sp 0 +
STACK CFI 252bc .cfa: sp 64 +
STACK CFI 252cc .cfa: x29 64 + x19: .cfa -8 + ^ x20: .cfa -16 + ^ x21: .cfa -24 + ^ x22: .cfa -32 + ^ x23: .cfa -40 + ^ x24: .cfa -48 + ^ .ra: .cfa -56 + ^ x29: .cfa -64 + ^
STACK CFI 253ac .cfa: sp 64 +
STACK CFI 253bc .cfa: sp 0 +
STACK CFI 253c0 .cfa: x29 64 +
STACK CFI INIT 25780 a0 .cfa: sp 0 +
STACK CFI 25784 .cfa: sp 48 +
STACK CFI 25790 .cfa: x29 48 + x19: .cfa -8 + ^ x20: .cfa -16 + ^ x21: .cfa -24 + ^ x22: .cfa -32 + ^ .ra: .cfa -40 + ^ x29: .cfa -48 + ^
STACK CFI 257fc .cfa: sp 48 +
STACK CFI 25808 .cfa: sp 0 +
STACK CFI 2580c .cfa: sp 48 +
STACK CFI 25818 .cfa: sp 0 +
STACK CFI 2581c .cfa: x29 48 +
STACK CFI INIT 264d4 158 .cfa: sp 0 +
STACK CFI 264d8 .cfa: sp 96 +
STACK CFI 264ec .cfa: x29 64 + x19: .cfa -8 + ^ x20: .cfa -16 + ^ x21: .cfa -24 + ^ x22: .cfa -32 + ^ x23: .cfa -48 + ^ .ra: .cfa -56 + ^ x29: .cfa -64 + ^
STACK CFI 265d0 .cfa: sp 96 +
STACK CFI 265e4 .cfa: sp 0 +
STACK CFI 265e8 .cfa: x29 64 +
STACK CFI INIT 2662c 190 .cfa: sp 0 +
STACK CFI INIT 272b8 1dc .cfa: sp 0 +
STACK CFI 272bc .cfa: sp 80 +
STACK CFI 272d0 .cfa: x29 80 + x19: .cfa -8 + ^ x20: .cfa -16 + ^ x21: .cfa -24 + ^ x22: .cfa -32 + ^ x23: .cfa -40 + ^ x24: .cfa -48 + ^ x25: .cfa -64 + ^ .ra: .cfa -72 + ^ x29: .cfa -80 + ^
STACK CFI 2747c .cfa: sp 80 +
STACK CFI 27490 .cfa: sp 0 +
STACK CFI INIT 288c4 124 .cfa: sp 0 +
STACK CFI 288f4 .cfa: sp 32 +
STACK CFI 288fc .cfa: x29 32 + x19: .cfa -8 + ^ x20: .cfa -16 + ^ .ra: .cfa -24 + ^ x29: .cfa -32 + ^
STACK CFI 289dc .cfa: sp 32 +
STACK CFI 289e4 .cfa: sp 0 +
STACK CFI INIT 29144 320 .cfa: sp 0 +
STACK CFI 29148 .cfa: sp 64 +
STACK CFI 29158 .cfa: x29 64 + x19: .cfa -8 + ^ x20: .cfa -16 + ^ x21: .cfa -24 + ^ x22: .cfa -32 + ^ x23: .cfa -40 + ^ x24: .cfa -48 + ^ .ra: .cfa -56 + ^ x29: .cfa -64 + ^
STACK CFI 291d4 .cfa: sp 64 +
STACK CFI 291e4 .cfa: sp 0 +
STACK CFI 291e8 .cfa: x29 64 +
STACK CFI 293bc .cfa: sp 64 +
STACK CFI 293cc .cfa: sp 0 +
STACK CFI 293d0 .cfa: x29 64 +
STACK CFI 293e0 .cfa: sp 64 +
STACK CFI 293f0 .cfa: sp 0 +
STACK CFI 293f4 .cfa: x29 64 +
STACK CFI INIT 29464 a0 .cfa: sp 0 +
STACK CFI 29468 .cfa: sp 48 +
STACK CFI 29474 .cfa: x29 48 + x19: .cfa -8 + ^ x20: .cfa -16 + ^ x21: .cfa -24 + ^ x22: .cfa -32 + ^ .ra: .cfa -40 + ^ x29: .cfa -48 + ^
STACK CFI 294e0 .cfa: sp 48 +
STACK CFI 294ec .cfa: sp 0 +
STACK CFI 294f0 .cfa: sp 48 +
STACK CFI 294fc .cfa: sp 0 +
STACK CFI 29500 .cfa: x29 48 +
STACK CFI INIT 2a3b4 160 .cfa: sp 0 +
STACK CFI 2a3b8 .cfa: sp 64 +
STACK CFI 2a3c8 .cfa: x29 64 + x19: .cfa -8 + ^ x20: .cfa -16 + ^ x21: .cfa -24 + ^ x22: .cfa -32 + ^ x23: .cfa -48 + ^ .ra: .cfa -56 + ^ x29: .cfa -64 + ^
STACK CFI 2a4c0 .cfa: sp 64 +
STACK CFI 2a4d0 .cfa: sp 0 +
STACK CFI 2a4d4 .cfa: x29 64 +
STACK CFI INIT 2a514 214 .cfa: sp 0 +
STACK CFI 2a518 .cfa: sp 128 +
STACK CFI 2a534 .cfa: x29 96 + x19: .cfa -8 + ^ x20: .cfa -16 + ^ x21: .cfa -24 + ^ x22: .cfa -32 + ^ x23: .cfa -40 + ^ x24: .cfa -48 + ^ x25: .cfa -56 + ^ x26: .cfa -64 + ^ x27: .cfa -80 + ^ .ra: .cfa -88 + ^ x29: .cfa -96 + ^
STACK CFI 2a6b0 .cfa: sp 128 +
STACK CFI 2a6cc .cfa: sp 0 +
STACK CFI 2a6d0 .cfa: x29 96 +
STACK CFI INIT 2c3c4 290 .cfa: sp 0 +
STACK CFI 2c3c8 .cfa: sp 16 +
STACK CFI 2c3cc .cfa: x29 16 + .ra: .cfa -8 + ^ x29: .cfa -16 + ^
STACK CFI 2c458 .cfa: sp 16 +
STACK CFI 2c45c .cfa: sp 0 +
STACK CFI 2c460 .cfa: x29 16 +
STACK CFI 2c4b0 .cfa: sp 16 +
STACK CFI 2c4b4 .cfa: sp 0 +
STACK CFI 2c4b8 .cfa: x29 16 +
STACK CFI 2c61c .cfa: sp 16 +
STACK CFI 2c620 .cfa: sp 0 +
STACK CFI 2c624 .cfa: x29 16 +
STACK CFI INIT 2c654 158 .cfa: sp 0 +
STACK CFI 2c658 .cfa: sp 112 +
STACK CFI 2c674 .cfa: x29 96 + x19: .cfa -8 + ^ x20: .cfa -16 + ^ x21: .cfa -24 + ^ x22: .cfa -32 + ^ x23: .cfa -40 + ^ x24: .cfa -48 + ^ x25: .cfa -56 + ^ x26: .cfa -64 + ^ x27: .cfa -72 + ^ x28: .cfa -80 + ^ .ra: .cfa -88 + ^ x29: .cfa -96 + ^
STACK CFI 2c75c .cfa: sp 112 +
STACK CFI 2c760 .cfa: x29 96 +
STACK CFI 2c768 .cfa: sp 112 +
STACK CFI 2c784 .cfa: sp 0 +
STACK CFI 2c788 .cfa: x29 96 +
STACK CFI 2c7a8 .cfa: sp 112 +
STACK CFI INIT 2c7ac e54 .cfa: sp 0 +
STACK CFI 2c7b0 .cfa: sp 192 +
STACK CFI 2c7cc .cfa: x29 96 + x19: .cfa -8 + ^ x20: .cfa -16 + ^ x21: .cfa -24 + ^ x22: .cfa -32 + ^ x23: .cfa -40 + ^ x24: .cfa -48 + ^ x25: .cfa -56 + ^ x26: .cfa -64 + ^ x27: .cfa -72 + ^ x28: .cfa -80 + ^ .ra: .cfa -88 + ^ x29: .cfa -96 + ^
STACK CFI 2d4e8 .cfa: sp 192 +
STACK CFI 2d504 .cfa: sp 0 +
STACK CFI 2d508 .cfa: x29 96 +
STACK CFI INIT 2d600 1068 .cfa: sp 0 +
STACK CFI 2d604 .cfa: sp 288 +
STACK CFI 2d620 .cfa: x29 96 + x19: .cfa -8 + ^ x20: .cfa -16 + ^ x21: .cfa -24 + ^ x22: .cfa -32 + ^ x23: .cfa -40 + ^ x24: .cfa -48 + ^ x25: .cfa -56 + ^ x26: .cfa -64 + ^ x27: .cfa -72 + ^ x28: .cfa -80 + ^ .ra: .cfa -88 + ^ x29: .cfa -96 + ^
STACK CFI 2e3b0 .cfa: sp 288 +
STACK CFI 2e3cc .cfa: sp 0 +
STACK CFI 2e3d0 .cfa: x29 96 +
STACK CFI INIT 2e668 520 .cfa: sp 0 +
STACK CFI 2e66c .cfa: sp 144 +
STACK CFI 2e688 .cfa: x29 96 + x19: .cfa -8 + ^ x20: .cfa -16 + ^ x21: .cfa -24 + ^ x22: .cfa -32 + ^ x23: .cfa -40 + ^ x24: .cfa -48 + ^ x25: .cfa -56 + ^ x26: .cfa -64 + ^ x27: .cfa -72 + ^ x28: .cfa -80 + ^ .ra: .cfa -88 + ^ x29: .cfa -96 + ^
STACK CFI 2eb64 .cfa: sp 144 +
STACK CFI 2eb80 .cfa: sp 0 +
STACK CFI 2eb84 .cfa: x29 96 +
STACK CFI INIT 2f528 136c .cfa: sp 0 +
STACK CFI 2f52c .cfa: sp 224 +
STACK CFI 2f548 .cfa: x29 96 + x19: .cfa -8 + ^ x20: .cfa -16 + ^ x21: .cfa -24 + ^ x22: .cfa -32 + ^ x23: .cfa -40 + ^ x24: .cfa -48 + ^ x25: .cfa -56 + ^ x26: .cfa -64 + ^ x27: .cfa -72 + ^ x28: .cfa -80 + ^ .ra: .cfa -88 + ^ x29: .cfa -96 + ^
STACK CFI 30870 .cfa: sp 224 +
STACK CFI 3088c .cfa: sp 0 +
STACK CFI 30890 .cfa: x29 96 +
STACK CFI INIT 30894 1b8 .cfa: sp 0 +
STACK CFI INIT 11d6c 43c .cfa: sp 0 +
STACK CFI 11d70 .cfa: sp 224 +
STACK CFI 11d8c .cfa: x29 96 + x19: .cfa -8 + ^ x20: .cfa -16 + ^ x21: .cfa -24 + ^ x22: .cfa -32 + ^ x23: .cfa -40 + ^ x24: .cfa -48 + ^ x25: .cfa -56 + ^ x26: .cfa -64 + ^ x27: .cfa -72 + ^ x28: .cfa -80 + ^ .ra: .cfa -88 + ^ x29: .cfa -96 + ^
STACK CFI 120a0 .cfa: sp 224 +
STACK CFI 120bc .cfa: sp 0 +
STACK CFI 120c0 .cfa: x29 96 +
STACK CFI INIT 121d4 308 .cfa: sp 0 +
STACK CFI 121d8 .cfa: sp 176 +
STACK CFI 121ec .cfa: x29 64 + x19: .cfa -8 + ^ x20: .cfa -16 + ^ x21: .cfa -24 + ^ x22: .cfa -32 + ^ x23: .cfa -48 + ^ .ra: .cfa -56 + ^ x29: .cfa -64 + ^
STACK CFI 123d4 .cfa: sp 176 +
STACK CFI 123e8 .cfa: sp 0 +
STACK CFI 123ec .cfa: x29 64 +
STACK CFI INIT 1252c 74 .cfa: sp 0 +
STACK CFI 12530 .cfa: sp 48 +
STACK CFI 1253c .cfa: x29 32 + x19: .cfa -8 + ^ x20: .cfa -16 + ^ .ra: .cfa -24 + ^ x29: .cfa -32 + ^
STACK CFI 12588 .cfa: sp 48 +
STACK CFI 12594 .cfa: sp 0 +
STACK CFI 12598 .cfa: x29 32 +
STACK CFI INIT 12620 154 .cfa: sp 0 +
STACK CFI 12624 .cfa: sp 384 +
STACK CFI 12638 .cfa: x29 64 + x19: .cfa -8 + ^ x20: .cfa -16 + ^ x21: .cfa -24 + ^ x22: .cfa -32 + ^ x23: .cfa -40 + ^ x28: .cfa -48 + ^ .ra: .cfa -56 + ^ x29: .cfa -64 + ^
STACK CFI 1271c .cfa: sp 384 +
STACK CFI 12730 .cfa: sp 0 +
STACK CFI 12734 .cfa: x29 64 +
STACK CFI INIT 127a8 12c .cfa: sp 0 +
STACK CFI 127ac .cfa: sp 80 +
STACK CFI 127c0 .cfa: x29 80 + x19: .cfa -8 + ^ x20: .cfa -16 + ^ x21: .cfa -24 + ^ x22: .cfa -32 + ^ x23: .cfa -40 + ^ x24: .cfa -48 + ^ x25: .cfa -56 + ^ x26: .cfa -64 + ^ .ra: .cfa -72 + ^ x29: .cfa -80 + ^
STACK CFI 12888 .cfa: sp 80 +
STACK CFI 1289c .cfa: sp 0 +
STACK CFI 128a0 .cfa: x29 80 +
STACK CFI INIT 12978 1a4 .cfa: sp 0 +
STACK CFI 1297c .cfa: sp 112 +
STACK CFI 12994 .cfa: x29 80 + x19: .cfa -8 + ^ x20: .cfa -16 + ^ x21: .cfa -24 + ^ x22: .cfa -32 + ^ x23: .cfa -40 + ^ x24: .cfa -48 + ^ x25: .cfa -56 + ^ x26: .cfa -64 + ^ .ra: .cfa -72 + ^ x29: .cfa -80 + ^
STACK CFI 12a84 .cfa: sp 112 +
STACK CFI 12a9c .cfa: sp 0 +
STACK CFI 12aa0 .cfa: x29 80 +
STACK CFI INIT 12b1c 1dc .cfa: sp 0 +
STACK CFI 12b20 .cfa: sp 128 +
STACK CFI 12b3c .cfa: x29 96 + x19: .cfa -8 + ^ x20: .cfa -16 + ^ x21: .cfa -24 + ^ x22: .cfa -32 + ^ x23: .cfa -40 + ^ x24: .cfa -48 + ^ x25: .cfa -56 + ^ x26: .cfa -64 + ^ x27: .cfa -80 + ^ .ra: .cfa -88 + ^ x29: .cfa -96 + ^
STACK CFI 12ca8 .cfa: sp 128 +
STACK CFI 12cc4 .cfa: sp 0 +
STACK CFI 12cc8 .cfa: x29 96 +
STACK CFI INIT 12d0c 50 .cfa: sp 0 +
STACK CFI 12d10 .cfa: sp 32 +
STACK CFI 12d18 .cfa: x29 32 + x19: .cfa -8 + ^ x20: .cfa -16 + ^ .ra: .cfa -24 + ^ x29: .cfa -32 + ^
STACK CFI INIT 12dc0 178 .cfa: sp 0 +
STACK CFI 12dc4 .cfa: sp 80 +
STACK CFI 12dd8 .cfa: x29 80 + x19: .cfa -8 + ^ x20: .cfa -16 + ^ x21: .cfa -24 + ^ x22: .cfa -32 + ^ x23: .cfa -40 + ^ x24: .cfa -48 + ^ x25: .cfa -64 + ^ .ra: .cfa -72 + ^ x29: .cfa -80 + ^
STACK CFI 12f04 .cfa: sp 80 +
STACK CFI 12f18 .cfa: sp 0 +
STACK CFI 12f1c .cfa: x29 80 +
STACK CFI INIT 13080 228 .cfa: sp 0 +
STACK CFI 13084 .cfa: sp 128 +
STACK CFI 1309c .cfa: x29 80 + x19: .cfa -8 + ^ x20: .cfa -16 + ^ x21: .cfa -24 + ^ x22: .cfa -32 + ^ x23: .cfa -40 + ^ x24: .cfa -48 + ^ x25: .cfa -64 + ^ .ra: .cfa -72 + ^ x29: .cfa -80 + ^
STACK CFI 13238 .cfa: sp 128 +
STACK CFI 13250 .cfa: sp 0 +
STACK CFI 13254 .cfa: x29 80 +
STACK CFI INIT 13a04 93c .cfa: sp 0 +
STACK CFI 13a08 .cfa: sp 96 +
STACK CFI 13a20 .cfa: x29 96 + x19: .cfa -8 + ^ x20: .cfa -16 + ^ x21: .cfa -24 + ^ x22: .cfa -32 + ^ x23: .cfa -40 + ^ x24: .cfa -48 + ^ x25: .cfa -56 + ^ x26: .cfa -64 + ^ x27: .cfa -72 + ^ x28: .cfa -80 + ^ .ra: .cfa -88 + ^ x29: .cfa -96 + ^
STACK CFI 14130 .cfa: sp 96 +
STACK CFI 14148 .cfa: sp 0 +
STACK CFI 1414c .cfa: x29 96 +
STACK CFI INIT 14340 a8 .cfa: sp 0 +
STACK CFI 14344 .cfa: sp 32 +
STACK CFI 1434c .cfa: x29 32 + x19: .cfa -16 + ^ .ra: .cfa -24 + ^ x29: .cfa -32 + ^
STACK CFI 14380 .cfa: sp 32 +
STACK CFI 14388 .cfa: sp 0 +
STACK CFI 1438c .cfa: x29 32 +
STACK CFI 14390 .cfa: sp 32 +
STACK CFI 14398 .cfa: sp 0 +
STACK CFI 1439c .cfa: x29 32 +
STACK CFI INIT 14538 378 .cfa: sp 0 +
STACK CFI 1453c .cfa: sp 128 +
STACK CFI 14550 .cfa: x29 64 + x19: .cfa -8 + ^ x20: .cfa -16 + ^ x21: .cfa -24 + ^ x22: .cfa -32 + ^ x23: .cfa -40 + ^ x24: .cfa -48 + ^ .ra: .cfa -56 + ^ x29: .cfa -64 + ^
STACK CFI 146f4 .cfa: sp 128 +
STACK CFI 14708 .cfa: sp 0 +
STACK CFI 1470c .cfa: x29 64 +
STACK CFI INIT 14900 2b8 .cfa: sp 0 +
STACK CFI 14904 .cfa: sp 160 +
STACK CFI 14920 .cfa: x29 96 + x19: .cfa -8 + ^ x20: .cfa -16 + ^ x21: .cfa -24 + ^ x22: .cfa -32 + ^ x23: .cfa -40 + ^ x24: .cfa -48 + ^ x25: .cfa -56 + ^ x26: .cfa -64 + ^ x27: .cfa -72 + ^ x28: .cfa -80 + ^ .ra: .cfa -88 + ^ x29: .cfa -96 + ^
STACK CFI 14958 .cfa: sp 160 +
STACK CFI 14974 .cfa: sp 0 +
STACK CFI 14978 .cfa: x29 96 +
STACK CFI INIT 14bb8 114 .cfa: sp 0 +
STACK CFI 14bbc .cfa: sp 64 +
STACK CFI 14bcc .cfa: x29 64 + x19: .cfa -8 + ^ x20: .cfa -16 + ^ x21: .cfa -24 + ^ x22: .cfa -32 + ^ x23: .cfa -48 + ^ .ra: .cfa -56 + ^ x29: .cfa -64 + ^
STACK CFI 14ca8 .cfa: sp 64 +
STACK CFI 14cb8 .cfa: sp 0 +
STACK CFI 14cbc .cfa: x29 64 +
STACK CFI INIT 14e84 22c .cfa: sp 0 +
STACK CFI 14e88 .cfa: sp 96 +
STACK CFI 14ea0 .cfa: x29 96 + x19: .cfa -8 + ^ x20: .cfa -16 + ^ x21: .cfa -24 + ^ x22: .cfa -32 + ^ x23: .cfa -40 + ^ x24: .cfa -48 + ^ x25: .cfa -56 + ^ x26: .cfa -64 + ^ x27: .cfa -80 + ^ .ra: .cfa -88 + ^ x29: .cfa -96 + ^
STACK CFI 15044 .cfa: sp 96 +
STACK CFI 1505c .cfa: sp 0 +
STACK CFI 15060 .cfa: x29 96 +
STACK CFI INIT 150d8 50 .cfa: sp 0 +
STACK CFI 150dc .cfa: sp 32 +
STACK CFI 150e4 .cfa: x29 32 + x19: .cfa -8 + ^ x20: .cfa -16 + ^ .ra: .cfa -24 + ^ x29: .cfa -32 + ^
STACK CFI INIT 1520c 1cc .cfa: sp 0 +
STACK CFI 15210 .cfa: sp 128 +
STACK CFI 15220 .cfa: x29 48 + x19: .cfa -8 + ^ x20: .cfa -16 + ^ x21: .cfa -32 + ^ .ra: .cfa -40 + ^ x29: .cfa -48 + ^
STACK CFI 1535c .cfa: sp 128 +
STACK CFI 1536c .cfa: sp 0 +
STACK CFI 15370 .cfa: x29 48 +
STACK CFI INIT 15670 204 .cfa: sp 0 +
STACK CFI 15674 .cfa: sp 128 +
STACK CFI 15688 .cfa: x29 64 + x19: .cfa -8 + ^ x20: .cfa -16 + ^ x21: .cfa -24 + ^ x22: .cfa -32 + ^ x23: .cfa -40 + ^ x24: .cfa -48 + ^ .ra: .cfa -56 + ^ x29: .cfa -64 + ^
STACK CFI 157ac .cfa: sp 128 +
STACK CFI 157c0 .cfa: sp 0 +
STACK CFI 157c4 .cfa: x29 64 +
STACK CFI INIT 15b30 1d0 .cfa: sp 0 +
STACK CFI 15b34 .cfa: sp 128 +
STACK CFI 15b48 .cfa: x29 64 + x19: .cfa -8 + ^ x20: .cfa -16 + ^ x21: .cfa -24 + ^ x22: .cfa -32 + ^ x23: .cfa -48 + ^ .ra: .cfa -56 + ^ x29: .cfa -64 + ^
STACK CFI 15cc0 .cfa: sp 128 +
STACK CFI 15cd4 .cfa: sp 0 +
STACK CFI 15cd8 .cfa: x29 64 +
STACK CFI INIT 16014 1c4 .cfa: sp 0 +
STACK CFI 16018 .cfa: sp 112 +
STACK CFI 16028 .cfa: x29 48 + x19: .cfa -8 + ^ x20: .cfa -16 + ^ x21: .cfa -24 + ^ x22: .cfa -32 + ^ .ra: .cfa -40 + ^ x29: .cfa -48 + ^
STACK CFI 1619c .cfa: sp 112 +
STACK CFI 161ac .cfa: sp 0 +
STACK CFI 161b0 .cfa: x29 48 +
STACK CFI INIT 16200 198 .cfa: sp 0 +
STACK CFI 16204 .cfa: sp 96 +
STACK CFI 16214 .cfa: x29 48 + x19: .cfa -8 + ^ x20: .cfa -16 + ^ x21: .cfa -32 + ^ .ra: .cfa -40 + ^ x29: .cfa -48 + ^
STACK CFI 162f0 .cfa: sp 96 +
STACK CFI 16300 .cfa: sp 0 +
STACK CFI 16304 .cfa: x29 48 +
STACK CFI INIT 163d8 120 .cfa: sp 0 +
STACK CFI 163dc .cfa: sp 112 +
STACK CFI 163e8 .cfa: x29 32 + x19: .cfa -8 + ^ x20: .cfa -16 + ^ .ra: .cfa -24 + ^ x29: .cfa -32 + ^
STACK CFI 164ac .cfa: sp 112 +
STACK CFI 164b8 .cfa: sp 0 +
STACK CFI 164bc .cfa: x29 32 +
STACK CFI INIT 16520 75c .cfa: sp 0 +
STACK CFI 16524 .cfa: sp 144 +
STACK CFI 16540 .cfa: x29 96 + x19: .cfa -8 + ^ x20: .cfa -16 + ^ x21: .cfa -24 + ^ x22: .cfa -32 + ^ x23: .cfa -40 + ^ x24: .cfa -48 + ^ x25: .cfa -56 + ^ x26: .cfa -64 + ^ x27: .cfa -72 + ^ x28: .cfa -80 + ^ .ra: .cfa -88 + ^ x29: .cfa -96 + ^
STACK CFI 16bd4 .cfa: sp 144 +
STACK CFI 16bf0 .cfa: sp 0 +
STACK CFI 16bf4 .cfa: x29 96 +
STACK CFI INIT 16c7c 74 .cfa: sp 0 +
STACK CFI 16c80 .cfa: sp 48 +
STACK CFI 16c8c .cfa: x29 32 + x19: .cfa -8 + ^ x20: .cfa -16 + ^ .ra: .cfa -24 + ^ x29: .cfa -32 + ^
STACK CFI 16cd8 .cfa: sp 48 +
STACK CFI 16ce4 .cfa: sp 0 +
STACK CFI 16ce8 .cfa: x29 32 +
STACK CFI INIT 16d80 120 .cfa: sp 0 +
STACK CFI 16d84 .cfa: sp 112 +
STACK CFI 16d90 .cfa: x29 32 + x19: .cfa -8 + ^ x20: .cfa -16 + ^ .ra: .cfa -24 + ^ x29: .cfa -32 + ^
STACK CFI 16e54 .cfa: sp 112 +
STACK CFI 16e60 .cfa: sp 0 +
STACK CFI 16e64 .cfa: x29 32 +
STACK CFI INIT 16f0c 120 .cfa: sp 0 +
STACK CFI 16f10 .cfa: sp 112 +
STACK CFI 16f1c .cfa: x29 32 + x19: .cfa -8 + ^ x20: .cfa -16 + ^ .ra: .cfa -24 + ^ x29: .cfa -32 + ^
STACK CFI 16fe0 .cfa: sp 112 +
STACK CFI 16fec .cfa: sp 0 +
STACK CFI 16ff0 .cfa: x29 32 +
STACK CFI INIT 1737c 760 .cfa: sp 0 +
STACK CFI 17380 .cfa: sp 208 +
STACK CFI 1739c .cfa: x29 96 + x19: .cfa -8 + ^ x20: .cfa -16 + ^ x21: .cfa -24 + ^ x22: .cfa -32 + ^ x23: .cfa -40 + ^ x24: .cfa -48 + ^ x25: .cfa -56 + ^ x26: .cfa -64 + ^ x27: .cfa -72 + ^ x28: .cfa -80 + ^ .ra: .cfa -88 + ^ x29: .cfa -96 + ^
STACK CFI 17510 .cfa: sp 208 +
STACK CFI 1752c .cfa: sp 0 +
STACK CFI 17530 .cfa: x29 96 +
STACK CFI 1798c .cfa: sp 208 +
STACK CFI 179a8 .cfa: sp 0 +
STACK CFI 179ac .cfa: x29 96 +
STACK CFI INIT 17af8 384 .cfa: sp 0 +
STACK CFI 17afc .cfa: sp 256 +
STACK CFI 17b10 .cfa: x29 64 + x19: .cfa -8 + ^ x20: .cfa -16 + ^ x21: .cfa -24 + ^ x22: .cfa -32 + ^ x23: .cfa -48 + ^ .ra: .cfa -56 + ^ x29: .cfa -64 + ^
STACK CFI 17d50 .cfa: sp 256 +
STACK CFI 17d64 .cfa: sp 0 +
STACK CFI 17d68 .cfa: x29 64 +
STACK CFI INIT 17efc 168 .cfa: sp 0 +
STACK CFI 17f00 .cfa: sp 384 +
STACK CFI 17f14 .cfa: x29 64 + x19: .cfa -8 + ^ x20: .cfa -16 + ^ x21: .cfa -24 + ^ x22: .cfa -32 + ^ x23: .cfa -40 + ^ x28: .cfa -48 + ^ .ra: .cfa -56 + ^ x29: .cfa -64 + ^
STACK CFI 1800c .cfa: sp 384 +
STACK CFI 18020 .cfa: sp 0 +
STACK CFI 18024 .cfa: x29 64 +
STACK CFI INIT 18080 2e78 .cfa: sp 0 +
STACK CFI 18084 .cfa: sp 256 +
STACK CFI 180a8 .cfa: x29 96 + x19: .cfa -8 + ^ x20: .cfa -16 + ^ x21: .cfa -24 + ^ x22: .cfa -32 + ^ x23: .cfa -40 + ^ x24: .cfa -48 + ^ x25: .cfa -56 + ^ x26: .cfa -64 + ^ x27: .cfa -72 + ^ x28: .cfa -80 + ^ .ra: .cfa -88 + ^ x29: .cfa -96 + ^ v8: .cfa -104 + ^ v9: .cfa -112 + ^ v10: .cfa -120 + ^ v11: .cfa -128 + ^
STACK CFI 1a4f8 .cfa: sp 256 +
STACK CFI 1a51c .cfa: sp 0 +
STACK CFI 1a520 .cfa: x29 96 +
STACK CFI INIT 1aef8 1a0 .cfa: sp 0 +
STACK CFI 1aefc .cfa: sp 112 +
STACK CFI 1af0c .cfa: x29 48 + x19: .cfa -8 + ^ x20: .cfa -16 + ^ x21: .cfa -32 + ^ .ra: .cfa -40 + ^ x29: .cfa -48 + ^
STACK CFI 1aff0 .cfa: sp 112 +
STACK CFI 1b000 .cfa: sp 0 +
STACK CFI 1b004 .cfa: x29 48 +
STACK CFI INIT 1b09c fec .cfa: sp 0 +
STACK CFI 1b0a0 .cfa: sp 112 +
STACK CFI 1b0bc .cfa: x29 56 + x19: .cfa -8 + ^ x20: .cfa -16 + ^ x21: .cfa -24 + ^ x22: .cfa -32 + ^ x23: .cfa -40 + ^ .ra: .cfa -48 + ^ x29: .cfa -56 + ^ v8: .cfa -64 + ^ v9: .cfa -72 + ^ v10: .cfa -80 + ^
STACK CFI 1bdd4 .cfa: sp 112 +
STACK CFI 1bdf0 .cfa: sp 0 +
STACK CFI 1bdf4 .cfa: x29 56 +
STACK CFI INIT 1c088 11c0 .cfa: sp 0 +
STACK CFI 1c08c .cfa: sp 80 +
STACK CFI 1c09c .cfa: x29 48 + x19: .cfa -8 + ^ x20: .cfa -16 + ^ x21: .cfa -24 + ^ x22: .cfa -32 + ^ .ra: .cfa -40 + ^ x29: .cfa -48 + ^
STACK CFI 1cf30 .cfa: sp 80 +
STACK CFI 1cf40 .cfa: sp 0 +
STACK CFI 1cf44 .cfa: x29 48 +
STACK CFI INIT 1d248 1238 .cfa: sp 0 +
STACK CFI 1d24c .cfa: sp 80 +
STACK CFI 1d25c .cfa: x29 48 + x19: .cfa -8 + ^ x20: .cfa -16 + ^ x21: .cfa -24 + ^ x22: .cfa -32 + ^ .ra: .cfa -40 + ^ x29: .cfa -48 + ^
STACK CFI 1e154 .cfa: sp 80 +
STACK CFI 1e164 .cfa: sp 0 +
STACK CFI 1e168 .cfa: x29 48 +
STACK CFI INIT 1e480 140 .cfa: sp 0 +
STACK CFI 1e484 .cfa: sp 336 +
STACK CFI 1e498 .cfa: x29 64 + x19: .cfa -8 + ^ x20: .cfa -16 + ^ x21: .cfa -24 + ^ x22: .cfa -32 + ^ x28: .cfa -48 + ^ .ra: .cfa -56 + ^ x29: .cfa -64 + ^
STACK CFI 1e580 .cfa: sp 336 +
STACK CFI 1e594 .cfa: sp 0 +
STACK CFI 1e598 .cfa: x29 64 +
STACK CFI INIT 1e5fc 134 .cfa: sp 0 +
STACK CFI 1e600 .cfa: sp 80 +
STACK CFI 1e60c .cfa: x29 32 + x19: .cfa -8 + ^ x20: .cfa -16 + ^ .ra: .cfa -24 + ^ x29: .cfa -32 + ^
STACK CFI 1e63c .cfa: sp 80 +
STACK CFI 1e648 .cfa: sp 0 +
STACK CFI 1e64c .cfa: x29 32 +
STACK CFI INIT 1e730 78 .cfa: sp 0 +
STACK CFI 1e734 .cfa: sp 32 +
STACK CFI 1e73c .cfa: x29 32 + x19: .cfa -8 + ^ x20: .cfa -16 + ^ .ra: .cfa -24 + ^ x29: .cfa -32 + ^
STACK CFI 1e748 .cfa: sp 32 +
STACK CFI 1e750 .cfa: sp 0 +
STACK CFI 1e754 .cfa: x29 32 +
STACK CFI INIT 1e7a8 74 .cfa: sp 0 +
STACK CFI 1e7ac .cfa: sp 48 +
STACK CFI 1e7b8 .cfa: x29 32 + x19: .cfa -8 + ^ x20: .cfa -16 + ^ .ra: .cfa -24 + ^ x29: .cfa -32 + ^
STACK CFI 1e804 .cfa: sp 48 +
STACK CFI 1e810 .cfa: sp 0 +
STACK CFI 1e814 .cfa: x29 32 +
STACK CFI INIT 1e880 160 .cfa: sp 0 +
STACK CFI 1e884 .cfa: sp 144 +
STACK CFI 1e898 .cfa: x29 64 + x19: .cfa -8 + ^ x20: .cfa -16 + ^ x21: .cfa -24 + ^ x22: .cfa -32 + ^ x23: .cfa -48 + ^ .ra: .cfa -56 + ^ x29: .cfa -64 + ^
STACK CFI 1e8e8 .cfa: sp 144 +
STACK CFI 1e8fc .cfa: sp 0 +
STACK CFI 1e900 .cfa: x29 64 +
STACK CFI INIT 1e9e0 100 .cfa: sp 0 +
STACK CFI 1e9e4 .cfa: sp 64 +
STACK CFI 1e9f4 .cfa: x29 48 + x19: .cfa -8 + ^ x20: .cfa -16 + ^ x21: .cfa -24 + ^ x22: .cfa -32 + ^ .ra: .cfa -40 + ^ x29: .cfa -48 + ^
STACK CFI 1ea98 .cfa: sp 64 +
STACK CFI 1eaa8 .cfa: sp 0 +
STACK CFI 1eaac .cfa: x29 48 +
STACK CFI INIT 1eae0 154 .cfa: sp 0 +
STACK CFI 1eae4 .cfa: sp 384 +
STACK CFI 1eaf8 .cfa: x29 64 + x19: .cfa -8 + ^ x20: .cfa -16 + ^ x21: .cfa -24 + ^ x22: .cfa -32 + ^ x23: .cfa -40 + ^ x28: .cfa -48 + ^ .ra: .cfa -56 + ^ x29: .cfa -64 + ^
STACK CFI 1ebdc .cfa: sp 384 +
STACK CFI 1ebf0 .cfa: sp 0 +
STACK CFI 1ebf4 .cfa: x29 64 +
STACK CFI INIT 1ef7c 294 .cfa: sp 0 +
STACK CFI 1ef80 .cfa: sp 240 +
STACK CFI 1ef98 .cfa: x29 80 + x19: .cfa -8 + ^ x20: .cfa -16 + ^ x21: .cfa -24 + ^ x22: .cfa -32 + ^ x23: .cfa -40 + ^ x24: .cfa -48 + ^ x25: .cfa -64 + ^ .ra: .cfa -72 + ^ x29: .cfa -80 + ^
STACK CFI 1f138 .cfa: sp 240 +
STACK CFI 1f150 .cfa: sp 0 +
STACK CFI 1f154 .cfa: x29 80 +
STACK CFI INIT 1f28c 50 .cfa: sp 0 +
STACK CFI 1f290 .cfa: sp 32 +
STACK CFI 1f298 .cfa: x29 32 + x19: .cfa -8 + ^ x20: .cfa -16 + ^ .ra: .cfa -24 + ^ x29: .cfa -32 + ^
STACK CFI INIT 1f308 7c0 .cfa: sp 0 +
STACK CFI 1f30c .cfa: sp 320 +
STACK CFI 1f328 .cfa: x29 96 + x19: .cfa -8 + ^ x20: .cfa -16 + ^ x21: .cfa -24 + ^ x22: .cfa -32 + ^ x23: .cfa -40 + ^ x24: .cfa -48 + ^ x25: .cfa -56 + ^ x26: .cfa -64 + ^ x27: .cfa -72 + ^ x28: .cfa -80 + ^ .ra: .cfa -88 + ^ x29: .cfa -96 + ^
STACK CFI 1f978 .cfa: sp 320 +
STACK CFI 1f994 .cfa: sp 0 +
STACK CFI 1f998 .cfa: x29 96 +
STACK CFI INIT 23e48 c74 .cfa: sp 0 +
STACK CFI 23e4c .cfa: sp 96 +
STACK CFI 23e64 .cfa: x29 96 + x19: .cfa -8 + ^ x20: .cfa -16 + ^ x21: .cfa -24 + ^ x22: .cfa -32 + ^ x23: .cfa -40 + ^ x24: .cfa -48 + ^ x25: .cfa -56 + ^ x26: .cfa -64 + ^ x27: .cfa -72 + ^ x28: .cfa -80 + ^ .ra: .cfa -88 + ^ x29: .cfa -96 + ^
STACK CFI 248dc .cfa: sp 96 +
STACK CFI 248f4 .cfa: sp 0 +
STACK CFI 248f8 .cfa: x29 96 +
STACK CFI INIT 24c10 26c .cfa: sp 0 +
STACK CFI 24c14 .cfa: sp 128 +
STACK CFI 24c24 .cfa: x29 48 + x19: .cfa -8 + ^ x20: .cfa -16 + ^ x21: .cfa -24 + ^ x22: .cfa -32 + ^ .ra: .cfa -40 + ^ x29: .cfa -48 + ^
STACK CFI 24dc8 .cfa: sp 128 +
STACK CFI 24dd8 .cfa: sp 0 +
STACK CFI 24ddc .cfa: x29 48 +
STACK CFI INIT 253c8 3b8 .cfa: sp 0 +
STACK CFI 253cc .cfa: sp 96 +
STACK CFI 253e4 .cfa: x29 96 + x19: .cfa -8 + ^ x20: .cfa -16 + ^ x21: .cfa -24 + ^ x22: .cfa -32 + ^ x23: .cfa -40 + ^ x24: .cfa -48 + ^ x25: .cfa -56 + ^ x26: .cfa -64 + ^ x27: .cfa -72 + ^ x28: .cfa -80 + ^ .ra: .cfa -88 + ^ x29: .cfa -96 + ^
STACK CFI 25720 .cfa: sp 96 +
STACK CFI 25738 .cfa: sp 0 +
STACK CFI 2573c .cfa: x29 96 +
STACK CFI INIT 25820 cb4 .cfa: sp 0 +
STACK CFI 25824 .cfa: sp 96 +
STACK CFI 2583c .cfa: x29 96 + x19: .cfa -8 + ^ x20: .cfa -16 + ^ x21: .cfa -24 + ^ x22: .cfa -32 + ^ x23: .cfa -40 + ^ x24: .cfa -48 + ^ x25: .cfa -56 + ^ x26: .cfa -64 + ^ x27: .cfa -72 + ^ x28: .cfa -80 + ^ .ra: .cfa -88 + ^ x29: .cfa -96 + ^
STACK CFI 262e4 .cfa: sp 96 +
STACK CFI 262fc .cfa: sp 0 +
STACK CFI 26300 .cfa: x29 96 +
STACK CFI INIT 267bc afc .cfa: sp 0 +
STACK CFI 267c0 .cfa: sp 96 +
STACK CFI 267d8 .cfa: x29 96 + x19: .cfa -8 + ^ x20: .cfa -16 + ^ x21: .cfa -24 + ^ x22: .cfa -32 + ^ x23: .cfa -40 + ^ x24: .cfa -48 + ^ x25: .cfa -56 + ^ x26: .cfa -64 + ^ x27: .cfa -72 + ^ x28: .cfa -80 + ^ .ra: .cfa -88 + ^ x29: .cfa -96 + ^
STACK CFI 2722c .cfa: sp 96 +
STACK CFI 27244 .cfa: sp 0 +
STACK CFI 27248 .cfa: x29 96 +
STACK CFI INIT 27494 1430 .cfa: sp 0 +
STACK CFI 27498 .cfa: sp 96 +
STACK CFI 274b0 .cfa: x29 96 + x19: .cfa -8 + ^ x20: .cfa -16 + ^ x21: .cfa -24 + ^ x22: .cfa -32 + ^ x23: .cfa -40 + ^ x24: .cfa -48 + ^ x25: .cfa -56 + ^ x26: .cfa -64 + ^ x27: .cfa -72 + ^ x28: .cfa -80 + ^ .ra: .cfa -88 + ^ x29: .cfa -96 + ^
STACK CFI 2874c .cfa: sp 96 +
STACK CFI 28764 .cfa: sp 0 +
STACK CFI 28768 .cfa: x29 96 +
STACK CFI INIT 289e8 75c .cfa: sp 0 +
STACK CFI 289ec .cfa: sp 368 +
STACK CFI 28a08 .cfa: x29 96 + x19: .cfa -8 + ^ x20: .cfa -16 + ^ x21: .cfa -24 + ^ x22: .cfa -32 + ^ x23: .cfa -40 + ^ x24: .cfa -48 + ^ x25: .cfa -56 + ^ x26: .cfa -64 + ^ x27: .cfa -72 + ^ x28: .cfa -80 + ^ .ra: .cfa -88 + ^ x29: .cfa -96 + ^
STACK CFI 28abc .cfa: sp 368 +
STACK CFI 28ad8 .cfa: sp 0 +
STACK CFI 28adc .cfa: x29 96 +
STACK CFI 28b30 .cfa: sp 368 +
STACK CFI 28b4c .cfa: sp 0 +
STACK CFI 28b50 .cfa: x29 96 +
STACK CFI INIT 29504 eb0 .cfa: sp 0 +
STACK CFI 29508 .cfa: sp 96 +
STACK CFI 29520 .cfa: x29 96 + x19: .cfa -8 + ^ x20: .cfa -16 + ^ x21: .cfa -24 + ^ x22: .cfa -32 + ^ x23: .cfa -40 + ^ x24: .cfa -48 + ^ x25: .cfa -56 + ^ x26: .cfa -64 + ^ x27: .cfa -72 + ^ x28: .cfa -80 + ^ .ra: .cfa -88 + ^ x29: .cfa -96 + ^
STACK CFI 2a1c8 .cfa: sp 96 +
STACK CFI 2a1e0 .cfa: sp 0 +
STACK CFI 2a1e4 .cfa: x29 96 +
STACK CFI INIT 2a728 1c9c .cfa: sp 0 +
STACK CFI 2a72c .cfa: sp 112 +
STACK CFI 2a748 .cfa: x29 96 + x19: .cfa -8 + ^ x20: .cfa -16 + ^ x21: .cfa -24 + ^ x22: .cfa -32 + ^ x23: .cfa -40 + ^ x24: .cfa -48 + ^ x25: .cfa -56 + ^ x26: .cfa -64 + ^ x27: .cfa -72 + ^ x28: .cfa -80 + ^ .ra: .cfa -88 + ^ x29: .cfa -96 + ^ v8: .cfa -112 + ^
STACK CFI 2ab30 .cfa: sp 112 +
STACK CFI 2ab4c .cfa: sp 0 +
STACK CFI 2ab50 .cfa: x29 96 +
STACK CFI INIT 2eb88 9a0 .cfa: sp 0 +
STACK CFI 2eb8c .cfa: sp 144 +
STACK CFI 2eba4 .cfa: x29 80 + x19: .cfa -8 + ^ x20: .cfa -16 + ^ x21: .cfa -24 + ^ x22: .cfa -32 + ^ x23: .cfa -40 + ^ x24: .cfa -48 + ^ x25: .cfa -64 + ^ .ra: .cfa -72 + ^ x29: .cfa -80 + ^
STACK CFI 2f4a4 .cfa: sp 144 +
STACK CFI 2f4bc .cfa: sp 0 +
STACK CFI 2f4c0 .cfa: x29 80 +
STACK CFI INIT 30a4c 57c .cfa: sp 0 +
STACK CFI 30a50 .cfa: sp 96 +
STACK CFI 30a68 .cfa: x29 96 + x19: .cfa -8 + ^ x20: .cfa -16 + ^ x21: .cfa -24 + ^ x22: .cfa -32 + ^ x23: .cfa -40 + ^ x24: .cfa -48 + ^ x25: .cfa -56 + ^ x26: .cfa -64 + ^ x27: .cfa -72 + ^ x28: .cfa -80 + ^ .ra: .cfa -88 + ^ x29: .cfa -96 + ^
STACK CFI 30f2c .cfa: sp 96 +
STACK CFI 30f44 .cfa: sp 0 +
STACK CFI 30f48 .cfa: x29 96 +
STACK CFI INIT 30fc8 67c .cfa: sp 0 +
STACK CFI 30fcc .cfa: sp 96 +
STACK CFI 30fe4 .cfa: x29 96 + x19: .cfa -8 + ^ x20: .cfa -16 + ^ x21: .cfa -24 + ^ x22: .cfa -32 + ^ x23: .cfa -40 + ^ x24: .cfa -48 + ^ x25: .cfa -56 + ^ x26: .cfa -64 + ^ x27: .cfa -72 + ^ x28: .cfa -80 + ^ .ra: .cfa -88 + ^ x29: .cfa -96 + ^
STACK CFI 315a8 .cfa: sp 96 +
STACK CFI 315c0 .cfa: sp 0 +
STACK CFI 315c4 .cfa: x29 96 +
