MODULE Linux arm64 FBD3D804F2D86C74742875DD3C6076030 hiimjustin000.better_icon_randomizer.android64.so
INFO CODE_ID 04D8D3FBD8F2746C742875DD3C607603C03223CC
INFO GENERATOR mozilla/dump_syms 2.3.4
PUBLIC 1a7e0 0 __on_dlclose
PUBLIC 1a7f0 0 __emutls_unregister_key
PUBLIC 1a7f8 0 __on_dlclose_late
PUBLIC 1a800 0 __atexit_handler_wrapper
PUBLIC 1a814 0 atexit
PUBLIC 1a830 0 pthread_atfork
PUBLIC 1a840 0 unwind_phase2
PUBLIC 1a974 0 _Unwind_Resume
PUBLIC 1a9f8 0 unwind_phase2_forced
PUBLIC m 1aaec 0 __unw_init_local
PUBLIC m 1ab94 0 __unw_get_reg
PUBLIC 1ac10 0 __unw_step_stage2
PUBLIC m 1ac24 0 __unw_get_proc_info
PUBLIC m 1ac64 0 __unw_resume
PUBLIC 1ac8c 0 libunwind::CFI_Parser<libunwind::LocalAddressSpace>::decodeFDE(libunwind::LocalAddressSpace&, unsigned long, libunwind::CFI_Parser<libunwind::LocalAddressSpace>::FDE_Info*, libunwind::CFI_Parser<libunwind::LocalAddressSpace>::CIE_Info*, bool)
PUBLIC 1ae1c 0 libunwind::CFI_Parser<libunwind::LocalAddressSpace>::parseCIE(libunwind::LocalAddressSpace&, unsigned long, libunwind::CFI_Parser<libunwind::LocalAddressSpace>::CIE_Info*)
PUBLIC 1b0e4 0 libunwind::AbstractUnwindCursor::~AbstractUnwindCursor()
PUBLIC 1b0ec 0 libunwind::UnwindCursor<libunwind::LocalAddressSpace, libunwind::Registers_arm64>::~UnwindCursor()
PUBLIC 1b0f4 0 libunwind::UnwindCursor<libunwind::LocalAddressSpace, libunwind::Registers_arm64>::validReg(int)
PUBLIC 1b138 0 libunwind::UnwindCursor<libunwind::LocalAddressSpace, libunwind::Registers_arm64>::getReg(int)
PUBLIC 1b220 0 libunwind::UnwindCursor<libunwind::LocalAddressSpace, libunwind::Registers_arm64>::setReg(int, unsigned long)
PUBLIC 1b308 0 libunwind::UnwindCursor<libunwind::LocalAddressSpace, libunwind::Registers_arm64>::validFloatReg(int)
PUBLIC 1b31c 0 libunwind::UnwindCursor<libunwind::LocalAddressSpace, libunwind::Registers_arm64>::getFloatReg(int)
PUBLIC 1b32c 0 libunwind::UnwindCursor<libunwind::LocalAddressSpace, libunwind::Registers_arm64>::setFloatReg(int, double)
PUBLIC 1b33c 0 libunwind::UnwindCursor<libunwind::LocalAddressSpace, libunwind::Registers_arm64>::step(bool)
PUBLIC 1b42c 0 libunwind::UnwindCursor<libunwind::LocalAddressSpace, libunwind::Registers_arm64>::getInfo(unw_proc_info_t*)
PUBLIC 1b470 0 libunwind::UnwindCursor<libunwind::LocalAddressSpace, libunwind::Registers_arm64>::jumpto()
PUBLIC 1b47c 0 libunwind::UnwindCursor<libunwind::LocalAddressSpace, libunwind::Registers_arm64>::isSignalFrame()
PUBLIC 1b488 0 libunwind::UnwindCursor<libunwind::LocalAddressSpace, libunwind::Registers_arm64>::getFunctionName(char*, unsigned long, unsigned long*)
PUBLIC 1b4b4 0 libunwind::UnwindCursor<libunwind::LocalAddressSpace, libunwind::Registers_arm64>::setInfoBasedOnIPRegister(bool)
PUBLIC 1b6f0 0 libunwind::UnwindCursor<libunwind::LocalAddressSpace, libunwind::Registers_arm64>::getRegisterName(int)
PUBLIC 1b6fc 0 libunwind::UnwindCursor<libunwind::LocalAddressSpace, libunwind::Registers_arm64>::stepThroughSigReturn(libunwind::Registers_arm64&)
PUBLIC 1b81c 0 libunwind::DwarfInstructions<libunwind::LocalAddressSpace, libunwind::Registers_arm64>::stepWithDwarf(libunwind::LocalAddressSpace&, unsigned long, unsigned long, libunwind::Registers_arm64&, bool&, bool)
PUBLIC 1bcb0 0 libunwind::CFI_Parser<libunwind::LocalAddressSpace>::parseFDEInstructions(libunwind::LocalAddressSpace&, libunwind::CFI_Parser<libunwind::LocalAddressSpace>::FDE_Info const&, libunwind::CFI_Parser<libunwind::LocalAddressSpace>::CIE_Info const&, unsigned long, int, libunwind::CFI_Parser<libunwind::LocalAddressSpace>::PrologInfo*)
PUBLIC 1c828 0 libunwind::DwarfInstructions<libunwind::LocalAddressSpace, libunwind::Registers_arm64>::getCFA(libunwind::LocalAddressSpace&, libunwind::CFI_Parser<libunwind::LocalAddressSpace>::PrologInfo const&, libunwind::Registers_arm64 const&)
PUBLIC 1c95c 0 libunwind::DwarfInstructions<libunwind::LocalAddressSpace, libunwind::Registers_arm64>::getSavedRegister(libunwind::LocalAddressSpace&, libunwind::Registers_arm64 const&, unsigned long, libunwind::CFI_Parser<libunwind::LocalAddressSpace>::RegisterLocation const&)
PUBLIC 1cb6c 0 libunwind::LocalAddressSpace::getEncodedP(unsigned long&, unsigned long, unsigned char, unsigned long)
PUBLIC 1cef8 0 libunwind::LocalAddressSpace::getULEB128(unsigned long&, unsigned long)
PUBLIC 1d0c0 0 libunwind::DwarfInstructions<libunwind::LocalAddressSpace, libunwind::Registers_arm64>::evaluateExpression(unsigned long, libunwind::LocalAddressSpace&, libunwind::Registers_arm64 const&, unsigned long)
PUBLIC 1da84 0 libunwind::UnwindCursor<libunwind::LocalAddressSpace, libunwind::Registers_arm64>::getInfoFromDwarfSection(unsigned long, libunwind::UnwindInfoSections const&, unsigned int)
PUBLIC 1dd58 0 libunwind::findUnwindSectionsByPhdr(dl_phdr_info*, unsigned long, void*)
PUBLIC 1de88 0 libunwind::EHHeaderParser<libunwind::LocalAddressSpace>::decodeEHHdr(libunwind::LocalAddressSpace&, unsigned long, unsigned long, libunwind::EHHeaderParser<libunwind::LocalAddressSpace>::EHHeaderInfo&)
PUBLIC 1dfa8 0 libunwind::CFI_Parser<libunwind::LocalAddressSpace>::findFDE(libunwind::LocalAddressSpace&, unsigned long, unsigned long, unsigned long, unsigned long, libunwind::CFI_Parser<libunwind::LocalAddressSpace>::FDE_Info*, libunwind::CFI_Parser<libunwind::LocalAddressSpace>::CIE_Info*)
PUBLIC 1e170 0 libunwind::EHHeaderParser<libunwind::LocalAddressSpace>::findFDE(libunwind::LocalAddressSpace&, unsigned long, unsigned long, unsigned int, libunwind::CFI_Parser<libunwind::LocalAddressSpace>::FDE_Info*, libunwind::CFI_Parser<libunwind::LocalAddressSpace>::CIE_Info*)
PUBLIC 1e2d8 0 libunwind::EHHeaderParser<libunwind::LocalAddressSpace>::getTableEntrySize(unsigned char)
PUBLIC 1e3d4 0 libunwind::Registers_arm64::getRegisterName(int)
PUBLIC 1e404 0 __libunwind_Registers_arm64_jumpto
PUBLIC m 1e494 0 __unw_getcontext
PUBLIC 1e530 0 __aarch64_ldadd8_acq_rel
PUBLIC 1e560 0 init_have_lse_atomics
PUBLIC 1e5f8 0 __init_cpu_features_constructor
PUBLIC 1e8a4 0 __init_cpu_features
PUBLIC 1e930 0 BIRSelectPopup::create(GJGarageLayer*)
PUBLIC 1ea68 0 BIRSelectPopup::setup(GJGarageLayer*)
PUBLIC 1fd0c 0 BIRSelectPopup::createIconToggle(cocos2d::CCMenu*, std::__ndk1::basic_string_view<char, std::__ndk1::char_traits<char> >, std::__ndk1::basic_string_view<char, std::__ndk1::char_traits<char> >, std::__ndk1::basic_string_view<char, std::__ndk1::char_traits<char> >)
PUBLIC 20094 0 BIRSelectPopup::createSpecialToggle(cocos2d::CCMenu*, std::__ndk1::basic_string_view<char, std::__ndk1::char_traits<char> >, std::__ndk1::basic_string_view<char, std::__ndk1::char_traits<char> >)
PUBLIC 203d8 0 BIRSelectPopup::createColorToggle(cocos2d::CCMenu*, std::__ndk1::basic_string_view<char, std::__ndk1::char_traits<char> >, cocos2d::_ccColor3B const&, std::__ndk1::basic_string_view<char, std::__ndk1::char_traits<char> >)
PUBLIC 20794 0 geode::cocos::CCMenuItemExt::createTogglerWithStandardSprites(float, std::__ndk1::function<void (CCMenuItemToggler*)>)
PUBLIC 20c78 0 geode::cocos::CCMenuItemExt::createSpriteExtra(cocos2d::CCNode*, std::__ndk1::function<void (CCMenuItemSpriteExtra*)>)
PUBLIC 21040 0 MoreIcons::activeForType(IconType, bool)
PUBLIC 21544 0 MoreIcons::vectorForType(IconType)
PUBLIC 21680 0 std::__ndk1::vector<std::__ndk1::basic_string<char, std::__ndk1::char_traits<char>, std::__ndk1::allocator<char> >, std::__ndk1::allocator<std::__ndk1::basic_string<char, std::__ndk1::char_traits<char>, std::__ndk1::allocator<char> > > >::~vector[abi:ne190000]()
PUBLIC 216fc 0 BIRSelectPopup::~BIRSelectPopup()
PUBLIC 217cc 0 __clang_call_terminate
PUBLIC 217dc 0 {virtual override thunk({offset(-320)}, BIRSelectPopup::~BIRSelectPopup())}
PUBLIC 217e4 0 BIRSelectPopup::~BIRSelectPopup()
PUBLIC 21808 0 {virtual override thunk({offset(-320)}, BIRSelectPopup::~BIRSelectPopup())}
PUBLIC 21830 0 cocos2d::CCCopying::copyWithZone(cocos2d::CCZone*)
PUBLIC 21838 0 geode::Popup<GJGarageLayer*>::registerWithTouchDispatcher()
PUBLIC 21864 0 geode::Popup<GJGarageLayer*>::keyDown(cocos2d::enumKeyCodes)
PUBLIC 2188c 0 cocos2d::CCLayerRGBA::setOpacityModifyRGB(bool)
PUBLIC 21890 0 cocos2d::CCLayerRGBA::isOpacityModifyRGB()
PUBLIC 21898 0 geode::Popup<GJGarageLayer*>::onClose(cocos2d::CCObject*)
PUBLIC 219cc 0 {virtual override thunk({offset(-344)}, geode::Popup<GJGarageLayer*>::keyDown(cocos2d::enumKeyCodes))}
PUBLIC 219f8 0 cocos2d::CCKeyboardDelegate::keyUp(cocos2d::enumKeyCodes)
PUBLIC 219fc 0 cocos2d::CCMouseDelegate::rightKeyDown()
PUBLIC 21a00 0 cocos2d::CCMouseDelegate::rightKeyUp()
PUBLIC 21a04 0 cocos2d::CCMouseDelegate::scrollWheel(float, float)
PUBLIC 21a08 0 {virtual override thunk({offset(-408)}, cocos2d::CCLayerRGBA::setOpacityModifyRGB(bool))}
PUBLIC 21a0c 0 {virtual override thunk({offset(-408)}, cocos2d::CCLayerRGBA::isOpacityModifyRGB())}
PUBLIC 21a14 0 geode::Popup<GJGarageLayer*>::~Popup()
PUBLIC 21a80 0 geode::Popup<GJGarageLayer*>::~Popup()
PUBLIC 21a84 0 {virtual override thunk({offset(-320)}, geode::Popup<GJGarageLayer*>::~Popup())}
PUBLIC 21af0 0 {virtual override thunk({offset(-320)}, geode::Popup<GJGarageLayer*>::~Popup())}
PUBLIC 21af4 0 std::__ndk1::basic_string<char, std::__ndk1::char_traits<char>, std::__ndk1::allocator<char> >::__throw_length_error[abi:ne190000]() const
PUBLIC 21b08 0 std::__ndk1::__throw_length_error[abi:ne190000](char const*)
PUBLIC 21b58 0 std::length_error::length_error[abi:ne190000](char const*)
PUBLIC 21b88 0 std::__throw_bad_array_new_length([abi:ne190000], void)
PUBLIC 21bbc 0 geode::cocos::CCMenuItemExt::LambdaCallback<CCMenuItemToggler>::execute(cocos2d::CCNode*)
PUBLIC 21c2c 0 geode::cocos::CCMenuItemExt::LambdaCallback<CCMenuItemToggler>::~LambdaCallback()
PUBLIC 21c88 0 geode::cocos::CCMenuItemExt::LambdaCallback<CCMenuItemToggler>::~LambdaCallback()
PUBLIC 21cec 0 cocos2d::CCObject::update(float)
PUBLIC 21cf0 0 std::__ndk1::__throw_bad_function_call[abi:ne190000]()
PUBLIC 21d24 0 std::__ndk1::bad_function_call::~bad_function_call()
PUBLIC 21d48 0 geode::cocos::CCMenuItemExt::LambdaCallback<CCMenuItemSpriteExtra>::execute(cocos2d::CCNode*)
PUBLIC 21db8 0 geode::cocos::CCMenuItemExt::LambdaCallback<CCMenuItemSpriteExtra>::~LambdaCallback()
PUBLIC 21e14 0 geode::cocos::CCMenuItemExt::LambdaCallback<CCMenuItemSpriteExtra>::~LambdaCallback()
PUBLIC 21e78 0 cocos2d::CCBool::~CCBool()
PUBLIC 21e9c 0 cocos2d::CCBool::acceptVisitor(cocos2d::CCDataVisitor&)
PUBLIC 21eb4 0 std::__ndk1::vector<IconType, std::__ndk1::allocator<IconType> >::__throw_length_error[abi:ne190000]() const
PUBLIC 21ec8 0 MoreIcons::loaded()
PUBLIC 21fe8 0 geode::impl::ResultData<matjson::Value&, std::__ndk1::basic_string<char, std::__ndk1::char_traits<char>, std::__ndk1::allocator<char> > >::~ResultData()
PUBLIC 2205c 0 geode::impl::ResultData<std::__ndk1::basic_string<char, std::__ndk1::char_traits<char>, std::__ndk1::allocator<char> >, std::__ndk1::basic_string<char, std::__ndk1::char_traits<char>, std::__ndk1::allocator<char> > >::~ResultData()
PUBLIC 220d0 0 std::__ndk1::__throw_bad_variant_access[abi:ne190000]()
PUBLIC 22104 0 std::__ndk1::__variant_detail::__visitation::__base::__dispatcher<(unsigned long)0>::__dispatch[abi:ne190000]<std::__ndk1::__variant_detail::__dtor<std::__ndk1::__variant_detail::__traits<std::__ndk1::reference_wrapper<matjson::Value>, std::__ndk1::basic_string<char, std::__ndk1::char_traits<char>, std::__ndk1::allocator<char> > >, (std::__ndk1::__variant_detail::_Trait)1>::__destroy[abi:ne190000]()::{lambda(auto:1&)#1}, std::__ndk1::__variant_detail::__base<(std::__ndk1::__variant_detail::__traits<std::__ndk1::reference_wrapper<matjson::Value>, std::__ndk1::basic_string<char, std::__ndk1::char_traits<char>, std::__ndk1::allocator<char> > >)1, matjson::Value, std::__ndk1::allocator<char> >&>(std::__ndk1::__variant_detail::__dtor<std::__ndk1::__variant_detail::__traits<std::__ndk1::reference_wrapper<matjson::Value>, std::__ndk1::basic_string<char, std::__ndk1::char_traits<char>, std::__ndk1::allocator<char> > >, (std::__ndk1::__variant_detail::_Trait)1>, std::__ndk1::__variant_detail::__base<(std::__ndk1::__variant_detail::__traits<std::__ndk1::reference_wrapper<matjson::Value>, std::__ndk1::basic_string<char, std::__ndk1::char_traits<char>, std::__ndk1::allocator<char> > >)1, matjson::Value, std::__ndk1::allocator<char> >&)
PUBLIC 22108 0 std::__ndk1::__variant_detail::__visitation::__base::__dispatcher<(unsigned long)1>::__dispatch[abi:ne190000]<std::__ndk1::__variant_detail::__dtor<std::__ndk1::__variant_detail::__traits<std::__ndk1::reference_wrapper<matjson::Value>, std::__ndk1::basic_string<char, std::__ndk1::char_traits<char>, std::__ndk1::allocator<char> > >, (std::__ndk1::__variant_detail::_Trait)1>::__destroy[abi:ne190000]()::{lambda(auto:1&)#1}, std::__ndk1::__variant_detail::__base<(std::__ndk1::__variant_detail::__traits<std::__ndk1::reference_wrapper<matjson::Value>, std::__ndk1::basic_string<char, std::__ndk1::char_traits<char>, std::__ndk1::allocator<char> > >)1, matjson::Value, std::__ndk1::allocator<char> >&>(std::__ndk1::__variant_detail::__dtor<std::__ndk1::__variant_detail::__traits<std::__ndk1::reference_wrapper<matjson::Value>, std::__ndk1::basic_string<char, std::__ndk1::char_traits<char>, std::__ndk1::allocator<char> > >, (std::__ndk1::__variant_detail::_Trait)1>, std::__ndk1::__variant_detail::__base<(std::__ndk1::__variant_detail::__traits<std::__ndk1::reference_wrapper<matjson::Value>, std::__ndk1::basic_string<char, std::__ndk1::char_traits<char>, std::__ndk1::allocator<char> > >)1, matjson::Value, std::__ndk1::allocator<char> >&)
PUBLIC 2211c 0 std::__ndk1::basic_string<char, std::__ndk1::char_traits<char>, std::__ndk1::allocator<char> >::__init_copy_ctor_external(char const*, unsigned long)
PUBLIC 221b0 0 std::__ndk1::__variant_detail::__visitation::__base::__dispatcher<(unsigned long)0>::__dispatch[abi:ne190000]<std::__ndk1::__variant_detail::__dtor<std::__ndk1::__variant_detail::__traits<std::__ndk1::basic_string<char, std::__ndk1::char_traits<char>, std::__ndk1::allocator<char> >, std::__ndk1::allocator<char> >, (std::__ndk1::__variant_detail::_Trait)1>::__destroy[abi:ne190000]()::{lambda(auto:1&)#1}, std::__ndk1::__variant_detail::__base<(std::__ndk1::__variant_detail::__traits<std::__ndk1::basic_string<char, std::__ndk1::char_traits<char>, std::__ndk1::allocator<char> >, std::__ndk1::allocator<char> >)1, std::__ndk1::allocator<char>, std::__ndk1::allocator<char> >&>(std::__ndk1::__variant_detail::__dtor<std::__ndk1::__variant_detail::__traits<std::__ndk1::basic_string<char, std::__ndk1::char_traits<char>, std::__ndk1::allocator<char> >, std::__ndk1::allocator<char> >, (std::__ndk1::__variant_detail::_Trait)1>, std::__ndk1::__variant_detail::__base<(std::__ndk1::__variant_detail::__traits<std::__ndk1::basic_string<char, std::__ndk1::char_traits<char>, std::__ndk1::allocator<char> >, std::__ndk1::allocator<char> >)1, std::__ndk1::allocator<char>, std::__ndk1::allocator<char> >&)
PUBLIC 221c4 0 std::__ndk1::__variant_detail::__visitation::__base::__dispatcher<(unsigned long)1>::__dispatch[abi:ne190000]<std::__ndk1::__variant_detail::__dtor<std::__ndk1::__variant_detail::__traits<std::__ndk1::basic_string<char, std::__ndk1::char_traits<char>, std::__ndk1::allocator<char> >, std::__ndk1::allocator<char> >, (std::__ndk1::__variant_detail::_Trait)1>::__destroy[abi:ne190000]()::{lambda(auto:1&)#1}, std::__ndk1::__variant_detail::__base<(std::__ndk1::__variant_detail::__traits<std::__ndk1::basic_string<char, std::__ndk1::char_traits<char>, std::__ndk1::allocator<char> >, std::__ndk1::allocator<char> >)1, std::__ndk1::allocator<char>, std::__ndk1::allocator<char> >&>(std::__ndk1::__variant_detail::__dtor<std::__ndk1::__variant_detail::__traits<std::__ndk1::basic_string<char, std::__ndk1::char_traits<char>, std::__ndk1::allocator<char> >, std::__ndk1::allocator<char> >, (std::__ndk1::__variant_detail::_Trait)1>, std::__ndk1::__variant_detail::__base<(std::__ndk1::__variant_detail::__traits<std::__ndk1::basic_string<char, std::__ndk1::char_traits<char>, std::__ndk1::allocator<char> >, std::__ndk1::allocator<char> >)1, std::__ndk1::allocator<char>, std::__ndk1::allocator<char> >&)
PUBLIC 221d8 0 geode::DispatchEvent<std::__ndk1::vector<std::__ndk1::basic_string<char, std::__ndk1::char_traits<char>, std::__ndk1::allocator<char> >, std::__ndk1::allocator<std::__ndk1::basic_string<char, std::__ndk1::char_traits<char>, std::__ndk1::allocator<char> > > >*, IconType>::~DispatchEvent()
PUBLIC 22218 0 geode::DispatchEvent<std::__ndk1::vector<std::__ndk1::basic_string<char, std::__ndk1::char_traits<char>, std::__ndk1::allocator<char> >, std::__ndk1::allocator<std::__ndk1::basic_string<char, std::__ndk1::char_traits<char>, std::__ndk1::allocator<char> > > >*, IconType>::getPool() const
PUBLIC 2227c 0 geode::DispatchEvent<std::__ndk1::vector<std::__ndk1::basic_string<char, std::__ndk1::char_traits<char>, std::__ndk1::allocator<char> >, std::__ndk1::allocator<std::__ndk1::basic_string<char, std::__ndk1::char_traits<char>, std::__ndk1::allocator<char> > > >*, IconType>::~DispatchEvent()
PUBLIC 222c0 0 std::__ndk1::__hash_table<std::__ndk1::__hash_value_type<std::__ndk1::basic_string<char, std::__ndk1::char_traits<char>, std::__ndk1::allocator<char> >, geode::EventListenerPool*>, std::__ndk1::__unordered_map_hasher<std::__ndk1::basic_string<char, std::__ndk1::char_traits<char>, std::__ndk1::allocator<char> >, std::__ndk1::__hash_value_type<std::__ndk1::basic_string<char, std::__ndk1::char_traits<char>, std::__ndk1::allocator<char> >, geode::EventListenerPool*>, std::__ndk1::hash<std::__ndk1::basic_string<char, std::__ndk1::char_traits<char>, std::__ndk1::allocator<char> > >, std::__ndk1::equal_to<std::__ndk1::basic_string<char, std::__ndk1::char_traits<char>, std::__ndk1::allocator<char> > >, true>, std::__ndk1::__unordered_map_equal<std::__ndk1::basic_string<char, std::__ndk1::char_traits<char>, std::__ndk1::allocator<char> >, std::__ndk1::__hash_value_type<std::__ndk1::basic_string<char, std::__ndk1::char_traits<char>, std::__ndk1::allocator<char> >, geode::EventListenerPool*>, std::__ndk1::equal_to<std::__ndk1::basic_string<char, std::__ndk1::char_traits<char>, std::__ndk1::allocator<char> > >, std::__ndk1::hash<std::__ndk1::basic_string<char, std::__ndk1::char_traits<char>, std::__ndk1::allocator<char> > >, true>, std::__ndk1::allocator<std::__ndk1::__hash_value_type<std::__ndk1::basic_string<char, std::__ndk1::char_traits<char>, std::__ndk1::allocator<char> >, geode::EventListenerPool*> > >::find<std::__ndk1::basic_string<char, std::__ndk1::char_traits<char>, std::__ndk1::allocator<char> > >(std::__ndk1::basic_string<char, std::__ndk1::char_traits<char>, std::__ndk1::allocator<char> > const&) const
PUBLIC 224f0 0 std::__ndk1::__murmur2_or_cityhash<unsigned long, (unsigned long)64>::operator()[abi:ne190000](void const*, unsigned long) const
PUBLIC 22948 0 std::__ndk1::__hash_table<std::__ndk1::__hash_value_type<std::__ndk1::basic_string<char, std::__ndk1::char_traits<char>, std::__ndk1::allocator<char> >, geode::EventListenerPool*>, std::__ndk1::__unordered_map_hasher<std::__ndk1::basic_string<char, std::__ndk1::char_traits<char>, std::__ndk1::allocator<char> >, std::__ndk1::__hash_value_type<std::__ndk1::basic_string<char, std::__ndk1::char_traits<char>, std::__ndk1::allocator<char> >, geode::EventListenerPool*>, std::__ndk1::hash<std::__ndk1::basic_string<char, std::__ndk1::char_traits<char>, std::__ndk1::allocator<char> > >, std::__ndk1::equal_to<std::__ndk1::basic_string<char, std::__ndk1::char_traits<char>, std::__ndk1::allocator<char> > >, true>, std::__ndk1::__unordered_map_equal<std::__ndk1::basic_string<char, std::__ndk1::char_traits<char>, std::__ndk1::allocator<char> >, std::__ndk1::__hash_value_type<std::__ndk1::basic_string<char, std::__ndk1::char_traits<char>, std::__ndk1::allocator<char> >, geode::EventListenerPool*>, std::__ndk1::equal_to<std::__ndk1::basic_string<char, std::__ndk1::char_traits<char>, std::__ndk1::allocator<char> > >, std::__ndk1::hash<std::__ndk1::basic_string<char, std::__ndk1::char_traits<char>, std::__ndk1::allocator<char> > >, true>, std::__ndk1::allocator<std::__ndk1::__hash_value_type<std::__ndk1::basic_string<char, std::__ndk1::char_traits<char>, std::__ndk1::allocator<char> >, geode::EventListenerPool*> > >::__emplace_unique_key_args<std::__ndk1::basic_string<char, std::__ndk1::char_traits<char>, std::__ndk1::allocator<char> >, std::__ndk1::piecewise_construct_t const&, std::__ndk1::tuple<std::__ndk1::basic_string<char, std::__ndk1::char_traits<char>, std::__ndk1::allocator<char> > const&>, std::__ndk1::tuple<> >(std::__ndk1::basic_string<char, std::__ndk1::char_traits<char>, std::__ndk1::allocator<char> > const&, std::__ndk1::piecewise_construct_t const&, std::__ndk1::tuple<std::__ndk1::basic_string<char, std::__ndk1::char_traits<char>, std::__ndk1::allocator<char> > const&>, std::__ndk1::tuple<>)
PUBLIC 22f7c 0 std::__ndk1::unique_ptr<std::__ndk1::__hash_node<std::__ndk1::__hash_value_type<std::__ndk1::basic_string<char, std::__ndk1::char_traits<char>, std::__ndk1::allocator<char> >, geode::EventListenerPool*>, void*>, std::__ndk1::__hash_node_destructor<std::__ndk1::allocator<std::__ndk1::__hash_node<std::__ndk1::__hash_value_type<std::__ndk1::basic_string<char, std::__ndk1::char_traits<char>, std::__ndk1::allocator<char> >, geode::EventListenerPool*>, void*> > > >::~unique_ptr[abi:ne190000]()
PUBLIC 22fcc 0 geode::DispatchEvent<SimplePlayer*, std::__ndk1::basic_string<char, std::__ndk1::char_traits<char>, std::__ndk1::allocator<char> >, IconType>::~DispatchEvent()
PUBLIC 23030 0 geode::DispatchEvent<SimplePlayer*, std::__ndk1::basic_string<char, std::__ndk1::char_traits<char>, std::__ndk1::allocator<char> >, IconType>::getPool() const
PUBLIC 23094 0 geode::DispatchEvent<SimplePlayer*, std::__ndk1::basic_string<char, std::__ndk1::char_traits<char>, std::__ndk1::allocator<char> >, IconType>::~DispatchEvent()
PUBLIC 23108 0 geode::Popup<GJGarageLayer*>::initBase(float, float, GJGarageLayer*, char const*, cocos2d::CCRect, bool)
PUBLIC 23418 0 std::__ndk1::__variant_detail::__visitation::__base::__dispatcher<(unsigned long)0>::__dispatch[abi:ne190000]<std::__ndk1::__variant_detail::__dtor<std::__ndk1::__variant_detail::__traits<bool, std::__ndk1::basic_string<char, std::__ndk1::char_traits<char>, std::__ndk1::allocator<char> > >, (std::__ndk1::__variant_detail::_Trait)1>::__destroy[abi:ne190000]()::{lambda(auto:1&)#1}, std::__ndk1::__variant_detail::__base<(std::__ndk1::__variant_detail::__traits<bool, std::__ndk1::basic_string<char, std::__ndk1::char_traits<char>, std::__ndk1::allocator<char> > >)1, bool, std::__ndk1::allocator<char> >&>(std::__ndk1::__variant_detail::__dtor<std::__ndk1::__variant_detail::__traits<bool, std::__ndk1::basic_string<char, std::__ndk1::char_traits<char>, std::__ndk1::allocator<char> > >, (std::__ndk1::__variant_detail::_Trait)1>, std::__ndk1::__variant_detail::__base<(std::__ndk1::__variant_detail::__traits<bool, std::__ndk1::basic_string<char, std::__ndk1::char_traits<char>, std::__ndk1::allocator<char> > >)1, bool, std::__ndk1::allocator<char> >&)
PUBLIC 2341c 0 std::__ndk1::__variant_detail::__visitation::__base::__dispatcher<(unsigned long)1>::__dispatch[abi:ne190000]<std::__ndk1::__variant_detail::__dtor<std::__ndk1::__variant_detail::__traits<bool, std::__ndk1::basic_string<char, std::__ndk1::char_traits<char>, std::__ndk1::allocator<char> > >, (std::__ndk1::__variant_detail::_Trait)1>::__destroy[abi:ne190000]()::{lambda(auto:1&)#1}, std::__ndk1::__variant_detail::__base<(std::__ndk1::__variant_detail::__traits<bool, std::__ndk1::basic_string<char, std::__ndk1::char_traits<char>, std::__ndk1::allocator<char> > >)1, bool, std::__ndk1::allocator<char> >&>(std::__ndk1::__variant_detail::__dtor<std::__ndk1::__variant_detail::__traits<bool, std::__ndk1::basic_string<char, std::__ndk1::char_traits<char>, std::__ndk1::allocator<char> > >, (std::__ndk1::__variant_detail::_Trait)1>, std::__ndk1::__variant_detail::__base<(std::__ndk1::__variant_detail::__traits<bool, std::__ndk1::basic_string<char, std::__ndk1::char_traits<char>, std::__ndk1::allocator<char> > >)1, bool, std::__ndk1::allocator<char> >&)
PUBLIC 23430 0 std::__ndk1::__function::__func<BIRSelectPopup::setup(GJGarageLayer*)::$_1, std::__ndk1::allocator<BIRSelectPopup::setup(GJGarageLayer*)::$_1>, void (CCMenuItemToggler*)>::~__func()
PUBLIC 23434 0 std::__ndk1::__function::__func<BIRSelectPopup::setup(GJGarageLayer*)::$_1, std::__ndk1::allocator<BIRSelectPopup::setup(GJGarageLayer*)::$_1>, void (CCMenuItemToggler*)>::__clone() const
PUBLIC 23468 0 std::__ndk1::__function::__func<BIRSelectPopup::setup(GJGarageLayer*)::$_1, std::__ndk1::allocator<BIRSelectPopup::setup(GJGarageLayer*)::$_1>, void (CCMenuItemToggler*)>::__clone(std::__ndk1::__function::__base<void (CCMenuItemToggler*)>*) const
PUBLIC 2347c 0 std::__ndk1::__function::__func<BIRSelectPopup::setup(GJGarageLayer*)::$_1, std::__ndk1::allocator<BIRSelectPopup::setup(GJGarageLayer*)::$_1>, void (CCMenuItemToggler*)>::destroy()
PUBLIC 23480 0 std::__ndk1::__function::__func<BIRSelectPopup::setup(GJGarageLayer*)::$_1, std::__ndk1::allocator<BIRSelectPopup::setup(GJGarageLayer*)::$_1>, void (CCMenuItemToggler*)>::destroy_deallocate()
PUBLIC 23484 0 std::__ndk1::__function::__func<BIRSelectPopup::setup(GJGarageLayer*)::$_1, std::__ndk1::allocator<BIRSelectPopup::setup(GJGarageLayer*)::$_1>, void (CCMenuItemToggler*)>::operator()(CCMenuItemToggler*&&)
PUBLIC 2360c 0 std::__ndk1::__function::__func<BIRSelectPopup::setup(GJGarageLayer*)::$_1, std::__ndk1::allocator<BIRSelectPopup::setup(GJGarageLayer*)::$_1>, void (CCMenuItemToggler*)>::target(std::type_info const&) const
PUBLIC 23628 0 std::__ndk1::__function::__func<BIRSelectPopup::setup(GJGarageLayer*)::$_1, std::__ndk1::allocator<BIRSelectPopup::setup(GJGarageLayer*)::$_1>, void (CCMenuItemToggler*)>::target_type() const
PUBLIC 23634 0 geode::cocos::CCArrayExt<CCMenuItemSpriteExtra*, CCMenuItemSpriteExtra>::~CCArrayExt()
PUBLIC 23650 0 std::__ndk1::__function::__func<BIRSelectPopup::setup(GJGarageLayer*)::$_2, std::__ndk1::allocator<BIRSelectPopup::setup(GJGarageLayer*)::$_2>, void (CCMenuItemToggler*)>::~__func()
PUBLIC 23654 0 std::__ndk1::__function::__func<BIRSelectPopup::setup(GJGarageLayer*)::$_2, std::__ndk1::allocator<BIRSelectPopup::setup(GJGarageLayer*)::$_2>, void (CCMenuItemToggler*)>::__clone() const
PUBLIC 23688 0 std::__ndk1::__function::__func<BIRSelectPopup::setup(GJGarageLayer*)::$_2, std::__ndk1::allocator<BIRSelectPopup::setup(GJGarageLayer*)::$_2>, void (CCMenuItemToggler*)>::__clone(std::__ndk1::__function::__base<void (CCMenuItemToggler*)>*) const
PUBLIC 2369c 0 std::__ndk1::__function::__func<BIRSelectPopup::setup(GJGarageLayer*)::$_2, std::__ndk1::allocator<BIRSelectPopup::setup(GJGarageLayer*)::$_2>, void (CCMenuItemToggler*)>::destroy()
PUBLIC 236a0 0 std::__ndk1::__function::__func<BIRSelectPopup::setup(GJGarageLayer*)::$_2, std::__ndk1::allocator<BIRSelectPopup::setup(GJGarageLayer*)::$_2>, void (CCMenuItemToggler*)>::destroy_deallocate()
PUBLIC 236a4 0 std::__ndk1::__function::__func<BIRSelectPopup::setup(GJGarageLayer*)::$_2, std::__ndk1::allocator<BIRSelectPopup::setup(GJGarageLayer*)::$_2>, void (CCMenuItemToggler*)>::operator()(CCMenuItemToggler*&&)
PUBLIC 2382c 0 std::__ndk1::__function::__func<BIRSelectPopup::setup(GJGarageLayer*)::$_2, std::__ndk1::allocator<BIRSelectPopup::setup(GJGarageLayer*)::$_2>, void (CCMenuItemToggler*)>::target(std::type_info const&) const
PUBLIC 23848 0 std::__ndk1::__function::__func<BIRSelectPopup::setup(GJGarageLayer*)::$_2, std::__ndk1::allocator<BIRSelectPopup::setup(GJGarageLayer*)::$_2>, void (CCMenuItemToggler*)>::target_type() const
PUBLIC 23854 0 std::__ndk1::__function::__base<void (CCMenuItemToggler*)>::~__base()
PUBLIC 23858 0 std::__ndk1::__function::__func<BIRSelectPopup::setup(GJGarageLayer*)::$_3, std::__ndk1::allocator<BIRSelectPopup::setup(GJGarageLayer*)::$_3>, void (CCMenuItemToggler*)>::~__func()
PUBLIC 2385c 0 std::__ndk1::__function::__func<BIRSelectPopup::setup(GJGarageLayer*)::$_3, std::__ndk1::allocator<BIRSelectPopup::setup(GJGarageLayer*)::$_3>, void (CCMenuItemToggler*)>::__clone() const
PUBLIC 23890 0 std::__ndk1::__function::__func<BIRSelectPopup::setup(GJGarageLayer*)::$_3, std::__ndk1::allocator<BIRSelectPopup::setup(GJGarageLayer*)::$_3>, void (CCMenuItemToggler*)>::__clone(std::__ndk1::__function::__base<void (CCMenuItemToggler*)>*) const
PUBLIC 238a4 0 std::__ndk1::__function::__func<BIRSelectPopup::setup(GJGarageLayer*)::$_3, std::__ndk1::allocator<BIRSelectPopup::setup(GJGarageLayer*)::$_3>, void (CCMenuItemToggler*)>::destroy()
PUBLIC 238a8 0 std::__ndk1::__function::__func<BIRSelectPopup::setup(GJGarageLayer*)::$_3, std::__ndk1::allocator<BIRSelectPopup::setup(GJGarageLayer*)::$_3>, void (CCMenuItemToggler*)>::destroy_deallocate()
PUBLIC 238ac 0 std::__ndk1::__function::__func<BIRSelectPopup::setup(GJGarageLayer*)::$_3, std::__ndk1::allocator<BIRSelectPopup::setup(GJGarageLayer*)::$_3>, void (CCMenuItemToggler*)>::operator()(CCMenuItemToggler*&&)
PUBLIC 23a34 0 std::__ndk1::__function::__func<BIRSelectPopup::setup(GJGarageLayer*)::$_3, std::__ndk1::allocator<BIRSelectPopup::setup(GJGarageLayer*)::$_3>, void (CCMenuItemToggler*)>::target(std::type_info const&) const
PUBLIC 23a50 0 std::__ndk1::__function::__func<BIRSelectPopup::setup(GJGarageLayer*)::$_3, std::__ndk1::allocator<BIRSelectPopup::setup(GJGarageLayer*)::$_3>, void (CCMenuItemToggler*)>::target_type() const
PUBLIC 23a5c 0 std::__ndk1::__function::__func<BIRSelectPopup::setup(GJGarageLayer*)::$_0, std::__ndk1::allocator<BIRSelectPopup::setup(GJGarageLayer*)::$_0>, void (CCMenuItemSpriteExtra*)>::~__func()
PUBLIC 23a60 0 std::__ndk1::__function::__func<BIRSelectPopup::setup(GJGarageLayer*)::$_0, std::__ndk1::allocator<BIRSelectPopup::setup(GJGarageLayer*)::$_0>, void (CCMenuItemSpriteExtra*)>::__clone() const
PUBLIC 23a94 0 std::__ndk1::__function::__func<BIRSelectPopup::setup(GJGarageLayer*)::$_0, std::__ndk1::allocator<BIRSelectPopup::setup(GJGarageLayer*)::$_0>, void (CCMenuItemSpriteExtra*)>::__clone(std::__ndk1::__function::__base<void (CCMenuItemSpriteExtra*)>*) const
PUBLIC 23aa8 0 std::__ndk1::__function::__func<BIRSelectPopup::setup(GJGarageLayer*)::$_0, std::__ndk1::allocator<BIRSelectPopup::setup(GJGarageLayer*)::$_0>, void (CCMenuItemSpriteExtra*)>::destroy()
PUBLIC 23aac 0 std::__ndk1::__function::__func<BIRSelectPopup::setup(GJGarageLayer*)::$_0, std::__ndk1::allocator<BIRSelectPopup::setup(GJGarageLayer*)::$_0>, void (CCMenuItemSpriteExtra*)>::destroy_deallocate()
PUBLIC 23ab0 0 std::__ndk1::__function::__func<BIRSelectPopup::setup(GJGarageLayer*)::$_0, std::__ndk1::allocator<BIRSelectPopup::setup(GJGarageLayer*)::$_0>, void (CCMenuItemSpriteExtra*)>::operator()(CCMenuItemSpriteExtra*&&)
PUBLIC 251d0 0 std::__ndk1::__function::__func<BIRSelectPopup::setup(GJGarageLayer*)::$_0, std::__ndk1::allocator<BIRSelectPopup::setup(GJGarageLayer*)::$_0>, void (CCMenuItemSpriteExtra*)>::target(std::type_info const&) const
PUBLIC 251ec 0 std::__ndk1::__function::__func<BIRSelectPopup::setup(GJGarageLayer*)::$_0, std::__ndk1::allocator<BIRSelectPopup::setup(GJGarageLayer*)::$_0>, void (CCMenuItemSpriteExtra*)>::target_type() const
PUBLIC 251f8 0 std::__ndk1::__function::__func<BIRSelectPopup::createIconToggle(cocos2d::CCMenu*, std::__ndk1::basic_string_view<char, std::__ndk1::char_traits<char> >, std::__ndk1::basic_string_view<char, std::__ndk1::char_traits<char> >, std::__ndk1::basic_string_view<char, std::__ndk1::char_traits<char> >)::$_0, std::__ndk1::allocator<BIRSelectPopup::createIconToggle(cocos2d::CCMenu*, std::__ndk1::basic_string_view<char, std::__ndk1::char_traits<char> >, std::__ndk1::basic_string_view<char, std::__ndk1::char_traits<char> >, std::__ndk1::basic_string_view<char, std::__ndk1::char_traits<char> >)::$_0>, void (CCMenuItemSpriteExtra*)>::~__func()
PUBLIC 251fc 0 std::__ndk1::__function::__func<BIRSelectPopup::createIconToggle(cocos2d::CCMenu*, std::__ndk1::basic_string_view<char, std::__ndk1::char_traits<char> >, std::__ndk1::basic_string_view<char, std::__ndk1::char_traits<char> >, std::__ndk1::basic_string_view<char, std::__ndk1::char_traits<char> >)::$_0, std::__ndk1::allocator<BIRSelectPopup::createIconToggle(cocos2d::CCMenu*, std::__ndk1::basic_string_view<char, std::__ndk1::char_traits<char> >, std::__ndk1::basic_string_view<char, std::__ndk1::char_traits<char> >, std::__ndk1::basic_string_view<char, std::__ndk1::char_traits<char> >)::$_0>, void (CCMenuItemSpriteExtra*)>::__clone() const
PUBLIC 25244 0 std::__ndk1::__function::__func<BIRSelectPopup::createIconToggle(cocos2d::CCMenu*, std::__ndk1::basic_string_view<char, std::__ndk1::char_traits<char> >, std::__ndk1::basic_string_view<char, std::__ndk1::char_traits<char> >, std::__ndk1::basic_string_view<char, std::__ndk1::char_traits<char> >)::$_0, std::__ndk1::allocator<BIRSelectPopup::createIconToggle(cocos2d::CCMenu*, std::__ndk1::basic_string_view<char, std::__ndk1::char_traits<char> >, std::__ndk1::basic_string_view<char, std::__ndk1::char_traits<char> >, std::__ndk1::basic_string_view<char, std::__ndk1::char_traits<char> >)::$_0>, void (CCMenuItemSpriteExtra*)>::__clone(std::__ndk1::__function::__base<void (CCMenuItemSpriteExtra*)>*) const
PUBLIC 2526c 0 std::__ndk1::__function::__func<BIRSelectPopup::createIconToggle(cocos2d::CCMenu*, std::__ndk1::basic_string_view<char, std::__ndk1::char_traits<char> >, std::__ndk1::basic_string_view<char, std::__ndk1::char_traits<char> >, std::__ndk1::basic_string_view<char, std::__ndk1::char_traits<char> >)::$_0, std::__ndk1::allocator<BIRSelectPopup::createIconToggle(cocos2d::CCMenu*, std::__ndk1::basic_string_view<char, std::__ndk1::char_traits<char> >, std::__ndk1::basic_string_view<char, std::__ndk1::char_traits<char> >, std::__ndk1::basic_string_view<char, std::__ndk1::char_traits<char> >)::$_0>, void (CCMenuItemSpriteExtra*)>::destroy()
PUBLIC 25270 0 std::__ndk1::__function::__func<BIRSelectPopup::createIconToggle(cocos2d::CCMenu*, std::__ndk1::basic_string_view<char, std::__ndk1::char_traits<char> >, std::__ndk1::basic_string_view<char, std::__ndk1::char_traits<char> >, std::__ndk1::basic_string_view<char, std::__ndk1::char_traits<char> >)::$_0, std::__ndk1::allocator<BIRSelectPopup::createIconToggle(cocos2d::CCMenu*, std::__ndk1::basic_string_view<char, std::__ndk1::char_traits<char> >, std::__ndk1::basic_string_view<char, std::__ndk1::char_traits<char> >, std::__ndk1::basic_string_view<char, std::__ndk1::char_traits<char> >)::$_0>, void (CCMenuItemSpriteExtra*)>::destroy_deallocate()
PUBLIC 25274 0 std::__ndk1::__function::__func<BIRSelectPopup::createIconToggle(cocos2d::CCMenu*, std::__ndk1::basic_string_view<char, std::__ndk1::char_traits<char> >, std::__ndk1::basic_string_view<char, std::__ndk1::char_traits<char> >, std::__ndk1::basic_string_view<char, std::__ndk1::char_traits<char> >)::$_0, std::__ndk1::allocator<BIRSelectPopup::createIconToggle(cocos2d::CCMenu*, std::__ndk1::basic_string_view<char, std::__ndk1::char_traits<char> >, std::__ndk1::basic_string_view<char, std::__ndk1::char_traits<char> >, std::__ndk1::basic_string_view<char, std::__ndk1::char_traits<char> >)::$_0>, void (CCMenuItemSpriteExtra*)>::operator()(CCMenuItemSpriteExtra*&&)
PUBLIC 25454 0 std::__ndk1::__function::__func<BIRSelectPopup::createIconToggle(cocos2d::CCMenu*, std::__ndk1::basic_string_view<char, std::__ndk1::char_traits<char> >, std::__ndk1::basic_string_view<char, std::__ndk1::char_traits<char> >, std::__ndk1::basic_string_view<char, std::__ndk1::char_traits<char> >)::$_0, std::__ndk1::allocator<BIRSelectPopup::createIconToggle(cocos2d::CCMenu*, std::__ndk1::basic_string_view<char, std::__ndk1::char_traits<char> >, std::__ndk1::basic_string_view<char, std::__ndk1::char_traits<char> >, std::__ndk1::basic_string_view<char, std::__ndk1::char_traits<char> >)::$_0>, void (CCMenuItemSpriteExtra*)>::target(std::type_info const&) const
PUBLIC 25470 0 std::__ndk1::__function::__func<BIRSelectPopup::createIconToggle(cocos2d::CCMenu*, std::__ndk1::basic_string_view<char, std::__ndk1::char_traits<char> >, std::__ndk1::basic_string_view<char, std::__ndk1::char_traits<char> >, std::__ndk1::basic_string_view<char, std::__ndk1::char_traits<char> >)::$_0, std::__ndk1::allocator<BIRSelectPopup::createIconToggle(cocos2d::CCMenu*, std::__ndk1::basic_string_view<char, std::__ndk1::char_traits<char> >, std::__ndk1::basic_string_view<char, std::__ndk1::char_traits<char> >, std::__ndk1::basic_string_view<char, std::__ndk1::char_traits<char> >)::$_0>, void (CCMenuItemSpriteExtra*)>::target_type() const
PUBLIC 2547c 0 std::__ndk1::__function::__func<BIRSelectPopup::createSpecialToggle(cocos2d::CCMenu*, std::__ndk1::basic_string_view<char, std::__ndk1::char_traits<char> >, std::__ndk1::basic_string_view<char, std::__ndk1::char_traits<char> >)::$_0, std::__ndk1::allocator<BIRSelectPopup::createSpecialToggle(cocos2d::CCMenu*, std::__ndk1::basic_string_view<char, std::__ndk1::char_traits<char> >, std::__ndk1::basic_string_view<char, std::__ndk1::char_traits<char> >)::$_0>, void (CCMenuItemSpriteExtra*)>::~__func()
PUBLIC 25480 0 std::__ndk1::__function::__func<BIRSelectPopup::createSpecialToggle(cocos2d::CCMenu*, std::__ndk1::basic_string_view<char, std::__ndk1::char_traits<char> >, std::__ndk1::basic_string_view<char, std::__ndk1::char_traits<char> >)::$_0, std::__ndk1::allocator<BIRSelectPopup::createSpecialToggle(cocos2d::CCMenu*, std::__ndk1::basic_string_view<char, std::__ndk1::char_traits<char> >, std::__ndk1::basic_string_view<char, std::__ndk1::char_traits<char> >)::$_0>, void (CCMenuItemSpriteExtra*)>::__clone() const
PUBLIC 254b4 0 std::__ndk1::__function::__func<BIRSelectPopup::createSpecialToggle(cocos2d::CCMenu*, std::__ndk1::basic_string_view<char, std::__ndk1::char_traits<char> >, std::__ndk1::basic_string_view<char, std::__ndk1::char_traits<char> >)::$_0, std::__ndk1::allocator<BIRSelectPopup::createSpecialToggle(cocos2d::CCMenu*, std::__ndk1::basic_string_view<char, std::__ndk1::char_traits<char> >, std::__ndk1::basic_string_view<char, std::__ndk1::char_traits<char> >)::$_0>, void (CCMenuItemSpriteExtra*)>::__clone(std::__ndk1::__function::__base<void (CCMenuItemSpriteExtra*)>*) const
PUBLIC 254c8 0 std::__ndk1::__function::__func<BIRSelectPopup::createSpecialToggle(cocos2d::CCMenu*, std::__ndk1::basic_string_view<char, std::__ndk1::char_traits<char> >, std::__ndk1::basic_string_view<char, std::__ndk1::char_traits<char> >)::$_0, std::__ndk1::allocator<BIRSelectPopup::createSpecialToggle(cocos2d::CCMenu*, std::__ndk1::basic_string_view<char, std::__ndk1::char_traits<char> >, std::__ndk1::basic_string_view<char, std::__ndk1::char_traits<char> >)::$_0>, void (CCMenuItemSpriteExtra*)>::destroy()
PUBLIC 254cc 0 std::__ndk1::__function::__func<BIRSelectPopup::createSpecialToggle(cocos2d::CCMenu*, std::__ndk1::basic_string_view<char, std::__ndk1::char_traits<char> >, std::__ndk1::basic_string_view<char, std::__ndk1::char_traits<char> >)::$_0, std::__ndk1::allocator<BIRSelectPopup::createSpecialToggle(cocos2d::CCMenu*, std::__ndk1::basic_string_view<char, std::__ndk1::char_traits<char> >, std::__ndk1::basic_string_view<char, std::__ndk1::char_traits<char> >)::$_0>, void (CCMenuItemSpriteExtra*)>::destroy_deallocate()
PUBLIC 254d0 0 std::__ndk1::__function::__func<BIRSelectPopup::createSpecialToggle(cocos2d::CCMenu*, std::__ndk1::basic_string_view<char, std::__ndk1::char_traits<char> >, std::__ndk1::basic_string_view<char, std::__ndk1::char_traits<char> >)::$_0, std::__ndk1::allocator<BIRSelectPopup::createSpecialToggle(cocos2d::CCMenu*, std::__ndk1::basic_string_view<char, std::__ndk1::char_traits<char> >, std::__ndk1::basic_string_view<char, std::__ndk1::char_traits<char> >)::$_0>, void (CCMenuItemSpriteExtra*)>::operator()(CCMenuItemSpriteExtra*&&)
PUBLIC 256a0 0 std::__ndk1::__function::__func<BIRSelectPopup::createSpecialToggle(cocos2d::CCMenu*, std::__ndk1::basic_string_view<char, std::__ndk1::char_traits<char> >, std::__ndk1::basic_string_view<char, std::__ndk1::char_traits<char> >)::$_0, std::__ndk1::allocator<BIRSelectPopup::createSpecialToggle(cocos2d::CCMenu*, std::__ndk1::basic_string_view<char, std::__ndk1::char_traits<char> >, std::__ndk1::basic_string_view<char, std::__ndk1::char_traits<char> >)::$_0>, void (CCMenuItemSpriteExtra*)>::target(std::type_info const&) const
PUBLIC 256bc 0 std::__ndk1::__function::__func<BIRSelectPopup::createSpecialToggle(cocos2d::CCMenu*, std::__ndk1::basic_string_view<char, std::__ndk1::char_traits<char> >, std::__ndk1::basic_string_view<char, std::__ndk1::char_traits<char> >)::$_0, std::__ndk1::allocator<BIRSelectPopup::createSpecialToggle(cocos2d::CCMenu*, std::__ndk1::basic_string_view<char, std::__ndk1::char_traits<char> >, std::__ndk1::basic_string_view<char, std::__ndk1::char_traits<char> >)::$_0>, void (CCMenuItemSpriteExtra*)>::target_type() const
PUBLIC 256c8 0 std::__ndk1::__function::__base<void (CCMenuItemSpriteExtra*)>::~__base()
PUBLIC 256cc 0 std::__ndk1::__function::__func<BIRSelectPopup::createColorToggle(cocos2d::CCMenu*, std::__ndk1::basic_string_view<char, std::__ndk1::char_traits<char> >, cocos2d::_ccColor3B const&, std::__ndk1::basic_string_view<char, std::__ndk1::char_traits<char> >)::$_0, std::__ndk1::allocator<BIRSelectPopup::createColorToggle(cocos2d::CCMenu*, std::__ndk1::basic_string_view<char, std::__ndk1::char_traits<char> >, cocos2d::_ccColor3B const&, std::__ndk1::basic_string_view<char, std::__ndk1::char_traits<char> >)::$_0>, void (CCMenuItemSpriteExtra*)>::~__func()
PUBLIC 256d0 0 std::__ndk1::__function::__func<BIRSelectPopup::createColorToggle(cocos2d::CCMenu*, std::__ndk1::basic_string_view<char, std::__ndk1::char_traits<char> >, cocos2d::_ccColor3B const&, std::__ndk1::basic_string_view<char, std::__ndk1::char_traits<char> >)::$_0, std::__ndk1::allocator<BIRSelectPopup::createColorToggle(cocos2d::CCMenu*, std::__ndk1::basic_string_view<char, std::__ndk1::char_traits<char> >, cocos2d::_ccColor3B const&, std::__ndk1::basic_string_view<char, std::__ndk1::char_traits<char> >)::$_0>, void (CCMenuItemSpriteExtra*)>::__clone() const
PUBLIC 25708 0 std::__ndk1::__function::__func<BIRSelectPopup::createColorToggle(cocos2d::CCMenu*, std::__ndk1::basic_string_view<char, std::__ndk1::char_traits<char> >, cocos2d::_ccColor3B const&, std::__ndk1::basic_string_view<char, std::__ndk1::char_traits<char> >)::$_0, std::__ndk1::allocator<BIRSelectPopup::createColorToggle(cocos2d::CCMenu*, std::__ndk1::basic_string_view<char, std::__ndk1::char_traits<char> >, cocos2d::_ccColor3B const&, std::__ndk1::basic_string_view<char, std::__ndk1::char_traits<char> >)::$_0>, void (CCMenuItemSpriteExtra*)>::__clone(std::__ndk1::__function::__base<void (CCMenuItemSpriteExtra*)>*) const
PUBLIC 25720 0 std::__ndk1::__function::__func<BIRSelectPopup::createColorToggle(cocos2d::CCMenu*, std::__ndk1::basic_string_view<char, std::__ndk1::char_traits<char> >, cocos2d::_ccColor3B const&, std::__ndk1::basic_string_view<char, std::__ndk1::char_traits<char> >)::$_0, std::__ndk1::allocator<BIRSelectPopup::createColorToggle(cocos2d::CCMenu*, std::__ndk1::basic_string_view<char, std::__ndk1::char_traits<char> >, cocos2d::_ccColor3B const&, std::__ndk1::basic_string_view<char, std::__ndk1::char_traits<char> >)::$_0>, void (CCMenuItemSpriteExtra*)>::destroy()
PUBLIC 25724 0 std::__ndk1::__function::__func<BIRSelectPopup::createColorToggle(cocos2d::CCMenu*, std::__ndk1::basic_string_view<char, std::__ndk1::char_traits<char> >, cocos2d::_ccColor3B const&, std::__ndk1::basic_string_view<char, std::__ndk1::char_traits<char> >)::$_0, std::__ndk1::allocator<BIRSelectPopup::createColorToggle(cocos2d::CCMenu*, std::__ndk1::basic_string_view<char, std::__ndk1::char_traits<char> >, cocos2d::_ccColor3B const&, std::__ndk1::basic_string_view<char, std::__ndk1::char_traits<char> >)::$_0>, void (CCMenuItemSpriteExtra*)>::destroy_deallocate()
PUBLIC 25728 0 std::__ndk1::__function::__func<BIRSelectPopup::createColorToggle(cocos2d::CCMenu*, std::__ndk1::basic_string_view<char, std::__ndk1::char_traits<char> >, cocos2d::_ccColor3B const&, std::__ndk1::basic_string_view<char, std::__ndk1::char_traits<char> >)::$_0, std::__ndk1::allocator<BIRSelectPopup::createColorToggle(cocos2d::CCMenu*, std::__ndk1::basic_string_view<char, std::__ndk1::char_traits<char> >, cocos2d::_ccColor3B const&, std::__ndk1::basic_string_view<char, std::__ndk1::char_traits<char> >)::$_0>, void (CCMenuItemSpriteExtra*)>::operator()(CCMenuItemSpriteExtra*&&)
PUBLIC 2592c 0 std::__ndk1::__function::__func<BIRSelectPopup::createColorToggle(cocos2d::CCMenu*, std::__ndk1::basic_string_view<char, std::__ndk1::char_traits<char> >, cocos2d::_ccColor3B const&, std::__ndk1::basic_string_view<char, std::__ndk1::char_traits<char> >)::$_0, std::__ndk1::allocator<BIRSelectPopup::createColorToggle(cocos2d::CCMenu*, std::__ndk1::basic_string_view<char, std::__ndk1::char_traits<char> >, cocos2d::_ccColor3B const&, std::__ndk1::basic_string_view<char, std::__ndk1::char_traits<char> >)::$_0>, void (CCMenuItemSpriteExtra*)>::target(std::type_info const&) const
PUBLIC 25948 0 std::__ndk1::__function::__func<BIRSelectPopup::createColorToggle(cocos2d::CCMenu*, std::__ndk1::basic_string_view<char, std::__ndk1::char_traits<char> >, cocos2d::_ccColor3B const&, std::__ndk1::basic_string_view<char, std::__ndk1::char_traits<char> >)::$_0, std::__ndk1::allocator<BIRSelectPopup::createColorToggle(cocos2d::CCMenu*, std::__ndk1::basic_string_view<char, std::__ndk1::char_traits<char> >, cocos2d::_ccColor3B const&, std::__ndk1::basic_string_view<char, std::__ndk1::char_traits<char> >)::$_0>, void (CCMenuItemSpriteExtra*)>::target_type() const
PUBLIC 25954 0 std::__ndk1::__tree<std::__ndk1::__value_type<IconType, bool>, std::__ndk1::__map_value_compare<IconType, std::__ndk1::__value_type<IconType, bool>, std::__ndk1::less<IconType>, true>, std::__ndk1::allocator<std::__ndk1::__value_type<IconType, bool> > >::destroy(std::__ndk1::__tree_node<std::__ndk1::__value_type<IconType, bool>, void*>*)
PUBLIC 25990 0 gd::map<IconType, int>::insert_pair(std::__ndk1::pair<IconType, int> const&)
PUBLIC 25b30 0 geode::stl::_rb_insert_rebalance(bool, geode::stl::_rb_tree_base*, geode::stl::_rb_tree_base*, geode::stl::_rb_tree_base&)
PUBLIC 25de8 0 std::__ndk1::__tree_balance_after_insert[abi:ne190000]<std::__ndk1::__tree_node_base<void*>*>(std::__ndk1::__tree_node_base<void*>*, std::__ndk1::__tree_node_base<void*>*)
PUBLIC 25f90 0 matjson::Value::as<int>() const
PUBLIC 26098 0 std::__ndk1::__variant_detail::__visitation::__base::__dispatcher<(unsigned long)0>::__dispatch[abi:ne190000]<std::__ndk1::__variant_detail::__dtor<std::__ndk1::__variant_detail::__traits<long, std::__ndk1::basic_string<char, std::__ndk1::char_traits<char>, std::__ndk1::allocator<char> > >, (std::__ndk1::__variant_detail::_Trait)1>::__destroy[abi:ne190000]()::{lambda(auto:1&)#1}, std::__ndk1::__variant_detail::__base<(std::__ndk1::__variant_detail::__traits<long, std::__ndk1::basic_string<char, std::__ndk1::char_traits<char>, std::__ndk1::allocator<char> > >)1, long, std::__ndk1::allocator<char> >&>(std::__ndk1::__variant_detail::__dtor<std::__ndk1::__variant_detail::__traits<long, std::__ndk1::basic_string<char, std::__ndk1::char_traits<char>, std::__ndk1::allocator<char> > >, (std::__ndk1::__variant_detail::_Trait)1>, std::__ndk1::__variant_detail::__base<(std::__ndk1::__variant_detail::__traits<long, std::__ndk1::basic_string<char, std::__ndk1::char_traits<char>, std::__ndk1::allocator<char> > >)1, long, std::__ndk1::allocator<char> >&)
PUBLIC 2609c 0 std::__ndk1::__variant_detail::__visitation::__base::__dispatcher<(unsigned long)1>::__dispatch[abi:ne190000]<std::__ndk1::__variant_detail::__dtor<std::__ndk1::__variant_detail::__traits<long, std::__ndk1::basic_string<char, std::__ndk1::char_traits<char>, std::__ndk1::allocator<char> > >, (std::__ndk1::__variant_detail::_Trait)1>::__destroy[abi:ne190000]()::{lambda(auto:1&)#1}, std::__ndk1::__variant_detail::__base<(std::__ndk1::__variant_detail::__traits<long, std::__ndk1::basic_string<char, std::__ndk1::char_traits<char>, std::__ndk1::allocator<char> > >)1, long, std::__ndk1::allocator<char> >&>(std::__ndk1::__variant_detail::__dtor<std::__ndk1::__variant_detail::__traits<long, std::__ndk1::basic_string<char, std::__ndk1::char_traits<char>, std::__ndk1::allocator<char> > >, (std::__ndk1::__variant_detail::_Trait)1>, std::__ndk1::__variant_detail::__base<(std::__ndk1::__variant_detail::__traits<long, std::__ndk1::basic_string<char, std::__ndk1::char_traits<char>, std::__ndk1::allocator<char> > >)1, long, std::__ndk1::allocator<char> >&)
PUBLIC 260b0 0 std::__ndk1::__variant_detail::__visitation::__base::__dispatcher<(unsigned long)0>::__dispatch[abi:ne190000]<std::__ndk1::__variant_detail::__dtor<std::__ndk1::__variant_detail::__traits<int, std::__ndk1::basic_string<char, std::__ndk1::char_traits<char>, std::__ndk1::allocator<char> > >, (std::__ndk1::__variant_detail::_Trait)1>::__destroy[abi:ne190000]()::{lambda(auto:1&)#1}, std::__ndk1::__variant_detail::__base<(std::__ndk1::__variant_detail::__traits<int, std::__ndk1::basic_string<char, std::__ndk1::char_traits<char>, std::__ndk1::allocator<char> > >)1, int, std::__ndk1::allocator<char> >&>(std::__ndk1::__variant_detail::__dtor<std::__ndk1::__variant_detail::__traits<int, std::__ndk1::basic_string<char, std::__ndk1::char_traits<char>, std::__ndk1::allocator<char> > >, (std::__ndk1::__variant_detail::_Trait)1>, std::__ndk1::__variant_detail::__base<(std::__ndk1::__variant_detail::__traits<int, std::__ndk1::basic_string<char, std::__ndk1::char_traits<char>, std::__ndk1::allocator<char> > >)1, int, std::__ndk1::allocator<char> >&)
PUBLIC 260b4 0 std::__ndk1::__variant_detail::__visitation::__base::__dispatcher<(unsigned long)1>::__dispatch[abi:ne190000]<std::__ndk1::__variant_detail::__dtor<std::__ndk1::__variant_detail::__traits<int, std::__ndk1::basic_string<char, std::__ndk1::char_traits<char>, std::__ndk1::allocator<char> > >, (std::__ndk1::__variant_detail::_Trait)1>::__destroy[abi:ne190000]()::{lambda(auto:1&)#1}, std::__ndk1::__variant_detail::__base<(std::__ndk1::__variant_detail::__traits<int, std::__ndk1::basic_string<char, std::__ndk1::char_traits<char>, std::__ndk1::allocator<char> > >)1, int, std::__ndk1::allocator<char> >&>(std::__ndk1::__variant_detail::__dtor<std::__ndk1::__variant_detail::__traits<int, std::__ndk1::basic_string<char, std::__ndk1::char_traits<char>, std::__ndk1::allocator<char> > >, (std::__ndk1::__variant_detail::_Trait)1>, std::__ndk1::__variant_detail::__base<(std::__ndk1::__variant_detail::__traits<int, std::__ndk1::basic_string<char, std::__ndk1::char_traits<char>, std::__ndk1::allocator<char> > >)1, int, std::__ndk1::allocator<char> >&)
PUBLIC 260c8 0 geode::Mod::getSavedValue<int>(std::__ndk1::basic_string_view<char, std::__ndk1::char_traits<char> >)
PUBLIC 26238 0 geode::Popup<GJGarageLayer*>::CloseEvent::~CloseEvent()
PUBLIC 26298 0 geode::Popup<GJGarageLayer*>::CloseEvent::~CloseEvent()
PUBLIC 26308 0 std::__ndk1::__shared_ptr_emplace<geode::Popup<GJGarageLayer*>::CloseEvent::Impl, std::__ndk1::allocator<geode::Popup<GJGarageLayer*>::CloseEvent::Impl> >::~__shared_ptr_emplace()
PUBLIC 26318 0 std::__ndk1::__shared_ptr_emplace<geode::Popup<GJGarageLayer*>::CloseEvent::Impl, std::__ndk1::allocator<geode::Popup<GJGarageLayer*>::CloseEvent::Impl> >::~__shared_ptr_emplace()
PUBLIC 26348 0 std::__ndk1::__shared_ptr_emplace<geode::Popup<GJGarageLayer*>::CloseEvent::Impl, std::__ndk1::allocator<geode::Popup<GJGarageLayer*>::CloseEvent::Impl> >::__on_zero_shared()
PUBLIC 2634c 0 std::__ndk1::__shared_ptr_emplace<geode::Popup<GJGarageLayer*>::CloseEvent::Impl, std::__ndk1::allocator<geode::Popup<GJGarageLayer*>::CloseEvent::Impl> >::__on_zero_shared_weak()
PUBLIC 26350 0 __aarch64_ldadd8_relax
PUBLIC 26380 0 __cxx_global_var_init
PUBLIC 26ed8 0 geode::modifier::ModifyBase<geode::modifier::ModifyDerive<BIRGarageLayer, GJGarageLayer> >::~ModifyBase()
PUBLIC 26ef0 0 geode::modifier::ModifyDerive<BIRGarageLayer, GJGarageLayer>::apply()
PUBLIC 272f8 0 std::__ndk1::shared_ptr<geode::Hook>::~shared_ptr[abi:ne190000]()
PUBLIC 27348 0 geode::impl::ResultData<geode::Hook*, std::__ndk1::basic_string<char, std::__ndk1::char_traits<char>, std::__ndk1::allocator<char> > >::~ResultData()
PUBLIC 273bc 0 geode::modifier::ModifyBase<geode::modifier::ModifyDerive<BIRGarageLayer, GJGarageLayer> >::apply()
PUBLIC 273c0 0 _ZN5geode15UnwrapExceptionC2IRPNS_4HookEQsr4implE18IsStringStreamableIT_EEENS_4impl5OkTagEOS5_
PUBLIC 27514 0 std::__ndk1::basic_stringstream<char, std::__ndk1::char_traits<char>, std::__ndk1::allocator<char> >::basic_stringstream[abi:ne190000]()
PUBLIC m 27648 0 std::__ndk1::basic_stringstream<char, std::__ndk1::char_traits<char>, std::__ndk1::allocator<char> >::~basic_stringstream()
PUBLIC 276c8 0 geode::UnwrapException::~UnwrapException()
PUBLIC 276ec 0 std::__ndk1::__put_character_sequence[abi:ne190000]<char, std::__ndk1::char_traits<char> >(std::__ndk1::basic_ostream<char, std::__ndk1::char_traits<char> >, std::__ndk1::basic_ostream const*, unsigned long)
PUBLIC 27890 0 std::__ndk1::__pad_and_output[abi:ne190000]<char, std::__ndk1::char_traits<char> >(std::__ndk1::char_traits<char>, std::__ndk1::ostreambuf_iterator const*, std::__ndk1::ostreambuf_iterator const, std::__ndk1::ostreambuf_iterator const, std::__ndk1::ios_base&, std::__ndk1::ostreambuf_iterator)
PUBLIC 27a7c 0 std::__ndk1::basic_stringbuf<char, std::__ndk1::char_traits<char>, std::__ndk1::allocator<char> >::str[abi:ne190000]() &&
PUBLIC 27bec 0 std::__ndk1::basic_stringbuf<char, std::__ndk1::char_traits<char>, std::__ndk1::allocator<char> >::__init_buf_ptrs[abi:ne190000]()
PUBLIC 27d34 0 std::__ndk1::basic_string<char, std::__ndk1::char_traits<char>, std::__ndk1::allocator<char> >::__erase_external_with_move(unsigned long, unsigned long)
PUBLIC 27dbc 0 std::__ndk1::__split_buffer<std::__ndk1::basic_string<char, std::__ndk1::char_traits<char>, std::__ndk1::allocator<char> >, std::__ndk1::allocator<std::__ndk1::basic_string<char, std::__ndk1::char_traits<char>, std::__ndk1::allocator<char> > >&>::~__split_buffer()
PUBLIC 27e24 0 std::__ndk1::vector<std::__ndk1::basic_string<char, std::__ndk1::char_traits<char>, std::__ndk1::allocator<char> >, std::__ndk1::allocator<std::__ndk1::basic_string<char, std::__ndk1::char_traits<char>, std::__ndk1::allocator<char> > > >::__throw_length_error[abi:ne190000]() const
PUBLIC 27e38 0 std::__ndk1::__variant_detail::__visitation::__base::__dispatcher<(unsigned long)0>::__dispatch[abi:ne190000]<std::__ndk1::__variant_detail::__dtor<std::__ndk1::__variant_detail::__traits<geode::Hook*, std::__ndk1::basic_string<char, std::__ndk1::char_traits<char>, std::__ndk1::allocator<char> > >, (std::__ndk1::__variant_detail::_Trait)1>::__destroy[abi:ne190000]()::{lambda(auto:1&)#1}, std::__ndk1::__variant_detail::__base<(std::__ndk1::__variant_detail::__traits<geode::Hook*, std::__ndk1::basic_string<char, std::__ndk1::char_traits<char>, std::__ndk1::allocator<char> > >)1, geode::Hook, std::__ndk1::allocator<char> >&>(std::__ndk1::__variant_detail::__dtor<std::__ndk1::__variant_detail::__traits<geode::Hook*, std::__ndk1::basic_string<char, std::__ndk1::char_traits<char>, std::__ndk1::allocator<char> > >, (std::__ndk1::__variant_detail::_Trait)1>, std::__ndk1::__variant_detail::__base<(std::__ndk1::__variant_detail::__traits<geode::Hook*, std::__ndk1::basic_string<char, std::__ndk1::char_traits<char>, std::__ndk1::allocator<char> > >)1, geode::Hook, std::__ndk1::allocator<char> >&)
PUBLIC 27e3c 0 std::__ndk1::__variant_detail::__visitation::__base::__dispatcher<(unsigned long)1>::__dispatch[abi:ne190000]<std::__ndk1::__variant_detail::__dtor<std::__ndk1::__variant_detail::__traits<geode::Hook*, std::__ndk1::basic_string<char, std::__ndk1::char_traits<char>, std::__ndk1::allocator<char> > >, (std::__ndk1::__variant_detail::_Trait)1>::__destroy[abi:ne190000]()::{lambda(auto:1&)#1}, std::__ndk1::__variant_detail::__base<(std::__ndk1::__variant_detail::__traits<geode::Hook*, std::__ndk1::basic_string<char, std::__ndk1::char_traits<char>, std::__ndk1::allocator<char> > >)1, geode::Hook, std::__ndk1::allocator<char> >&>(std::__ndk1::__variant_detail::__dtor<std::__ndk1::__variant_detail::__traits<geode::Hook*, std::__ndk1::basic_string<char, std::__ndk1::char_traits<char>, std::__ndk1::allocator<char> > >, (std::__ndk1::__variant_detail::_Trait)1>, std::__ndk1::__variant_detail::__base<(std::__ndk1::__variant_detail::__traits<geode::Hook*, std::__ndk1::basic_string<char, std::__ndk1::char_traits<char>, std::__ndk1::allocator<char> > >)1, geode::Hook, std::__ndk1::allocator<char> >&)
PUBLIC 27e50 0 std::__ndk1::__tree<std::__ndk1::__value_type<std::__ndk1::basic_string<char, std::__ndk1::char_traits<char>, std::__ndk1::allocator<char> >, std::__ndk1::shared_ptr<geode::Hook> >, std::__ndk1::__map_value_compare<std::__ndk1::basic_string<char, std::__ndk1::char_traits<char>, std::__ndk1::allocator<char> >, std::__ndk1::__value_type<std::__ndk1::basic_string<char, std::__ndk1::char_traits<char>, std::__ndk1::allocator<char> >, std::__ndk1::shared_ptr<geode::Hook> >, std::__ndk1::less<std::__ndk1::basic_string<char, std::__ndk1::char_traits<char>, std::__ndk1::allocator<char> > >, true>, std::__ndk1::allocator<std::__ndk1::__value_type<std::__ndk1::basic_string<char, std::__ndk1::char_traits<char>, std::__ndk1::allocator<char> >, std::__ndk1::shared_ptr<geode::Hook> > > >::destroy(std::__ndk1::__tree_node<std::__ndk1::__value_type<std::__ndk1::basic_string<char, std::__ndk1::char_traits<char>, std::__ndk1::allocator<char> >, std::__ndk1::shared_ptr<geode::Hook> >, void*>*)
PUBLIC 27ed4 0 geode::modifier::AsStaticFunction_init<BIRGarageLayer, bool (BIRGarageLayer::*)()>::Impl<bool (BIRGarageLayer::*)()>::function(BIRGarageLayer*)
PUBLIC 288f0 0 geode::addresser::Addresser::addressOfVirtual<bool, GJGarageLayer, >(bool (GJGarageLayer::*)())
PUBLIC 28998 0 GJGarageLayer::GJGarageLayer(geode::ZeroConstructorType)
PUBLIC 28a4c 0 std::__ndk1::shared_ptr<tulip::hook::CallingConvention>::~shared_ptr[abi:ne190000]()
PUBLIC 28a9c 0 tulip::hook::HandlerMetadata::~HandlerMetadata()
PUBLIC 28b00 0 BIRGarageLayer::onSelectRandomize(cocos2d::CCObject*)
PUBLIC 28b1c 0 std::__ndk1::shared_ptr<geode::IntSettingV3>::~shared_ptr[abi:ne190000]()
PUBLIC 28b6c 0 geode::cast::traverseTypeinfoFor(void*, geode::cast::ClassTypeinfoType const*, char const*)
PUBLIC 28c64 0 std::__ndk1::basic_string<char, std::__ndk1::char_traits<char>, std::__ndk1::allocator<char> >::__assign_external(char const*, unsigned long)
PUBLIC 28da8 0 std::__ndk1::shared_ptr<geode::StringSettingV3>::~shared_ptr[abi:ne190000]()
PUBLIC 28df8 0 geode::impl::ResultData<void, std::__ndk1::basic_string<char, std::__ndk1::char_traits<char>, std::__ndk1::allocator<char> > >::~ResultData()
PUBLIC 28e6c 0 std::__ndk1::__variant_detail::__visitation::__base::__dispatcher<(unsigned long)0>::__dispatch[abi:ne190000]<std::__ndk1::__variant_detail::__dtor<std::__ndk1::__variant_detail::__traits<std::__ndk1::monostate, std::__ndk1::basic_string<char, std::__ndk1::char_traits<char>, std::__ndk1::allocator<char> > >, (std::__ndk1::__variant_detail::_Trait)1>::__destroy[abi:ne190000]()::{lambda(auto:1&)#1}, std::__ndk1::__variant_detail::__base<(std::__ndk1::__variant_detail::__traits<std::__ndk1::monostate, std::__ndk1::basic_string<char, std::__ndk1::char_traits<char>, std::__ndk1::allocator<char> > >)1, std::__ndk1::__variant_detail::__traits, std::__ndk1::allocator<char> >&>(std::__ndk1::__variant_detail::__dtor<std::__ndk1::__variant_detail::__traits<std::__ndk1::monostate, std::__ndk1::basic_string<char, std::__ndk1::char_traits<char>, std::__ndk1::allocator<char> > >, (std::__ndk1::__variant_detail::_Trait)1>, std::__ndk1::__variant_detail::__base<(std::__ndk1::__variant_detail::__traits<std::__ndk1::monostate, std::__ndk1::basic_string<char, std::__ndk1::char_traits<char>, std::__ndk1::allocator<char> > >)1, std::__ndk1::__variant_detail::__traits, std::__ndk1::allocator<char> >&)
PUBLIC 28e70 0 std::__ndk1::__variant_detail::__visitation::__base::__dispatcher<(unsigned long)1>::__dispatch[abi:ne190000]<std::__ndk1::__variant_detail::__dtor<std::__ndk1::__variant_detail::__traits<std::__ndk1::monostate, std::__ndk1::basic_string<char, std::__ndk1::char_traits<char>, std::__ndk1::allocator<char> > >, (std::__ndk1::__variant_detail::_Trait)1>::__destroy[abi:ne190000]()::{lambda(auto:1&)#1}, std::__ndk1::__variant_detail::__base<(std::__ndk1::__variant_detail::__traits<std::__ndk1::monostate, std::__ndk1::basic_string<char, std::__ndk1::char_traits<char>, std::__ndk1::allocator<char> > >)1, std::__ndk1::__variant_detail::__traits, std::__ndk1::allocator<char> >&>(std::__ndk1::__variant_detail::__dtor<std::__ndk1::__variant_detail::__traits<std::__ndk1::monostate, std::__ndk1::basic_string<char, std::__ndk1::char_traits<char>, std::__ndk1::allocator<char> > >, (std::__ndk1::__variant_detail::_Trait)1>, std::__ndk1::__variant_detail::__base<(std::__ndk1::__variant_detail::__traits<std::__ndk1::monostate, std::__ndk1::basic_string<char, std::__ndk1::char_traits<char>, std::__ndk1::allocator<char> > >)1, std::__ndk1::__variant_detail::__traits, std::__ndk1::allocator<char> >&)
PUBLIC 28e84 0 geode::getMod()
PUBLIC m 28ec0 0 geodeImplicitEntry
PUBLIC 28efc 0 std::__ndk1::unordered_map<void*, bool, std::__ndk1::hash<void*>, std::__ndk1::equal_to<void*>, std::__ndk1::allocator<std::__ndk1::pair<void* const, bool> > >::~unordered_map[abi:ne190000]()
PUBLIC 28f48 0 wrapFunction(unsigned long, tulip::hook::WrapperMetadata const&)
PUBLIC 2907c 0 geode::impl::ResultData<void*, std::__ndk1::basic_string<char, std::__ndk1::char_traits<char>, std::__ndk1::allocator<char> > >::unwrapErr() &
PUBLIC 290f4 0 geode::impl::ResultData<void*, std::__ndk1::basic_string<char, std::__ndk1::char_traits<char>, std::__ndk1::allocator<char> > >::~ResultData()
PUBLIC 29168 0 tulip::hook::WrapperMetadata::~WrapperMetadata()
PUBLIC 291cc 0 cocos2d::CCObject::CCObject()
PUBLIC 293f0 0 cocos2d::CCObject::~CCObject()
PUBLIC 29414 0 cocos2d::CCNode::~CCNode()
PUBLIC 29438 0 {virtual override thunk({offset(-320)}, cocos2d::CCLayer::~CCLayer())}
PUBLIC 29440 0 cocos2d::CCLayer::~CCLayer()
PUBLIC 29464 0 {virtual override thunk({offset(-320)}, cocos2d::CCLayer::~CCLayer())}
PUBLIC 2948c 0 cocos2d::CCLayerRGBA::~CCLayerRGBA()
PUBLIC 2978c 0 {virtual override thunk({offset(-320)}, cocos2d::CCLayerRGBA::~CCLayerRGBA())}
PUBLIC 29794 0 cocos2d::CCLayerRGBA::~CCLayerRGBA()
PUBLIC 297b8 0 {virtual override thunk({offset(-320)}, cocos2d::CCLayerRGBA::~CCLayerRGBA())}
PUBLIC 297e0 0 cocos2d::CCLayerColor::CCLayerColor()
PUBLIC 29a44 0 {virtual override thunk({offset(-320)}, cocos2d::CCLayerColor::~CCLayerColor())}
PUBLIC 29a4c 0 cocos2d::CCLayerColor::~CCLayerColor()
PUBLIC 29a70 0 {virtual override thunk({offset(-320)}, cocos2d::CCLayerColor::~CCLayerColor())}
PUBLIC 29a98 0 FLAlertLayer::FLAlertLayer()
PUBLIC 29b34 0 {virtual override thunk({offset(-320)}, FLAlertLayer::~FLAlertLayer())}
PUBLIC 29b3c 0 FLAlertLayer::~FLAlertLayer()
PUBLIC 29b60 0 {virtual override thunk({offset(-320)}, FLAlertLayer::~FLAlertLayer())}
PUBLIC 29b88 0 ButtonSprite::create(char const*, char const*, char const*, float)
PUBLIC 29ba4 0 CCMenuItemSpriteExtra::create(cocos2d::CCNode*, cocos2d::CCObject*, void (cocos2d::CCObject::*)(cocos2d::CCObject*))
PUBLIC 29bb8 0 GameManager::get()
PUBLIC 29bbc 0 SimplePlayer::disableCustomGlowColor()
PUBLIC 29bc4 0 SimplePlayer::enableCustomGlowColor(cocos2d::_ccColor3B const&)
PUBLIC 29be4 0 SimplePlayer::setSecondColor(cocos2d::_ccColor3B const&)
PUBLIC 29c14 0 cocos2d::CCLayerColor::~CCLayerColor()
PUBLIC 29ef8 0 cocos2d::CCLayer::~CCLayer()
PUBLIC 2a1e8 0 cocos2d::CCNode::~CCNode()
PUBLIC 2a488 0 FLAlertLayer::~FLAlertLayer()
PUBLIC 2a76c 0 cocos2d::CCObject::~CCObject()
PUBLIC 2ac60 0 _ZN5geode15UnwrapExceptionC2IRPvQsr4implE18IsStringStreamableIT_EEENS_4impl5OkTagEOS4_
PUBLIC 2adb4 0 _ZN5geode15UnwrapExceptionC2IRNSt6__ndk112basic_stringIcNS2_11char_traitsIcEENS2_9allocatorIcEEEEQsr4implE18IsStringStreamableIT_EEENS_4impl6ErrTagEOSA_
PUBLIC 2af1c 0 std::__ndk1::__variant_detail::__visitation::__base::__dispatcher<(unsigned long)0>::__dispatch[abi:ne190000]<std::__ndk1::__variant_detail::__dtor<std::__ndk1::__variant_detail::__traits<void*, std::__ndk1::basic_string<char, std::__ndk1::char_traits<char>, std::__ndk1::allocator<char> > >, (std::__ndk1::__variant_detail::_Trait)1>::__destroy[abi:ne190000]()::{lambda(auto:1&)#1}, std::__ndk1::__variant_detail::__base<(std::__ndk1::__variant_detail::__traits<void*, std::__ndk1::basic_string<char, std::__ndk1::char_traits<char>, std::__ndk1::allocator<char> > >)1, std::__ndk1::__variant_detail::__traits, std::__ndk1::allocator<char> >&>(std::__ndk1::__variant_detail::__dtor<std::__ndk1::__variant_detail::__traits<void*, std::__ndk1::basic_string<char, std::__ndk1::char_traits<char>, std::__ndk1::allocator<char> > >, (std::__ndk1::__variant_detail::_Trait)1>, std::__ndk1::__variant_detail::__base<(std::__ndk1::__variant_detail::__traits<void*, std::__ndk1::basic_string<char, std::__ndk1::char_traits<char>, std::__ndk1::allocator<char> > >)1, std::__ndk1::__variant_detail::__traits, std::__ndk1::allocator<char> >&)
PUBLIC 2af20 0 std::__ndk1::__variant_detail::__visitation::__base::__dispatcher<(unsigned long)1>::__dispatch[abi:ne190000]<std::__ndk1::__variant_detail::__dtor<std::__ndk1::__variant_detail::__traits<void*, std::__ndk1::basic_string<char, std::__ndk1::char_traits<char>, std::__ndk1::allocator<char> > >, (std::__ndk1::__variant_detail::_Trait)1>::__destroy[abi:ne190000]()::{lambda(auto:1&)#1}, std::__ndk1::__variant_detail::__base<(std::__ndk1::__variant_detail::__traits<void*, std::__ndk1::basic_string<char, std::__ndk1::char_traits<char>, std::__ndk1::allocator<char> > >)1, std::__ndk1::__variant_detail::__traits, std::__ndk1::allocator<char> >&>(std::__ndk1::__variant_detail::__dtor<std::__ndk1::__variant_detail::__traits<void*, std::__ndk1::basic_string<char, std::__ndk1::char_traits<char>, std::__ndk1::allocator<char> > >, (std::__ndk1::__variant_detail::_Trait)1>, std::__ndk1::__variant_detail::__base<(std::__ndk1::__variant_detail::__traits<void*, std::__ndk1::basic_string<char, std::__ndk1::char_traits<char>, std::__ndk1::allocator<char> > >)1, std::__ndk1::__variant_detail::__traits, std::__ndk1::allocator<char> >&)
PUBLIC 2af34 0 std::__ndk1::__hash_table<std::__ndk1::__hash_value_type<void*, bool>, std::__ndk1::__unordered_map_hasher<void*, std::__ndk1::__hash_value_type<void*, bool>, std::__ndk1::hash<void*>, std::__ndk1::equal_to<void*>, true>, std::__ndk1::__unordered_map_equal<void*, std::__ndk1::__hash_value_type<void*, bool>, std::__ndk1::equal_to<void*>, std::__ndk1::hash<void*>, true>, std::__ndk1::allocator<std::__ndk1::__hash_value_type<void*, bool> > >::__emplace_unique_key_args<void*, std::__ndk1::piecewise_construct_t const&, std::__ndk1::tuple<void* const&>, std::__ndk1::tuple<> >(void* const&, std::__ndk1::piecewise_construct_t const&, std::__ndk1::tuple<void* const&>, std::__ndk1::tuple<>)
PUBLIC 2b440 0 __udivti3
PUBLIC 2b44c 0 __udivmodti4
PUBLIC m 2b698 0 __eqtf2
PUBLIC 2b738 0 __unordtf2
PUBLIC 2b770 0 fmt::v11::detail::write_loc(fmt::v11::basic_appender<char>, fmt::v11::loc_value, fmt::v11::format_specs const&, fmt::v11::detail::locale_ref)
PUBLIC 2ba04 0 fmt::v11::format_facet<std::__ndk1::locale>::~format_facet()
PUBLIC 2ba80 0 fmt::v11::report_error(char const*)
PUBLIC 2bad0 0 fmt::v11::format_error::runtime_error(char const*)
PUBLIC 2bafc 0 fmt::v11::format_facet<std::__ndk1::locale>::do_put(fmt::v11::basic_appender<char>, fmt::v11::loc_value, fmt::v11::format_specs const&) const
PUBLIC 2c2bc 0 fmt::v11::detail::loc_writer<char>::~loc_writer()
PUBLIC 2c320 0 fmt::v11::vformat(fmt::v11::basic_string_view<char>, fmt::v11::basic_format_args<fmt::v11::context>)
PUBLIC 2c46c 0 fmt::v11::detail::vformat_to<char>(fmt::v11::detail::buffer<char>&, fmt::v11::basic_string_view<char>, fmt::v11::detail::vformat_args<char>::type, fmt::v11::detail::locale_ref)
PUBLIC 2c9dc 0 fmt::v11::detail::is_printable(unsigned int)
PUBLIC 2cc04 0 fmt::v11::detail::dragonbox::to_decimal<float>(float)
PUBLIC 2cee0 0 fmt::v11::detail::dragonbox::to_decimal<double>(double)
PUBLIC 2d41c 0 fmt::v11::basic_memory_buffer<char, (unsigned long)500, std::__ndk1::allocator<char> >::grow(fmt::v11::detail::buffer<char>&, unsigned long)
PUBLIC 2d494 0 fmt::v11::format_facet<std::__ndk1::locale>::~format_facet()
PUBLIC 2d520 0 fmt::v11::format_error::~format_error()
PUBLIC 2d544 0 fmt::v11::detail::copy_noinline<char, char const*, fmt::v11::basic_appender<char> >(char const*, char const*, fmt::v11::basic_appender<char>)
PUBLIC 2d694 0 fmt::v11::detail::default_arg_formatter<char>::operator()<bool>(bool)
PUBLIC 2d6fc 0 fmt::v11::detail::default_arg_formatter<char>::operator()<char>(char)
PUBLIC 2d78c 0 fmt::v11::detail::default_arg_formatter<char>::operator()<float>(float)
PUBLIC 2d878 0 fmt::v11::detail::default_arg_formatter<char>::operator()<double>(double)
PUBLIC 2d964 0 fmt::v11::detail::default_arg_formatter<char>::operator()<char const*>(char const*)
PUBLIC 2d9ac 0 fmt::v11::detail::default_arg_formatter<char>::operator()<void const*>(void const*)
PUBLIC 2da44 0 _ZN3fmt3v116detail5writeIcNS0_14basic_appenderIcEEiTnNSt6__ndk19enable_ifIXaaaasr11is_integralIT1_EE5valuentsr3std7is_sameIS7_bEE5valuentsr3std7is_sameIS7_T_EE5valueEiE4typeELi0EEET0_SB_S7_
PUBLIC 2dca4 0 fmt::v11::detail::copy_noinline<char, char*, fmt::v11::basic_appender<char> >(char*, char*, fmt::v11::basic_appender<char>)
PUBLIC 2ddf4 0 _ZN3fmt3v116detail5writeIcNS0_14basic_appenderIcEEjTnNSt6__ndk19enable_ifIXaaaasr11is_integralIT1_EE5valuentsr3std7is_sameIS7_bEE5valuentsr3std7is_sameIS7_T_EE5valueEiE4typeELi0EEET0_SB_S7_
PUBLIC 2dfd4 0 _ZN3fmt3v116detail5writeIcNS0_14basic_appenderIcEExTnNSt6__ndk19enable_ifIXaaaasr11is_integralIT1_EE5valuentsr3std7is_sameIS7_bEE5valuentsr3std7is_sameIS7_T_EE5valueEiE4typeELi0EEET0_SB_S7_
PUBLIC 2e258 0 _ZN3fmt3v116detail5writeIcNS0_14basic_appenderIcEEyTnNSt6__ndk19enable_ifIXaaaasr11is_integralIT1_EE5valuentsr3std7is_sameIS7_bEE5valuentsr3std7is_sameIS7_T_EE5valueEiE4typeELi0EEET0_SB_S7_
PUBLIC 2e460 0 _ZN3fmt3v116detail5writeIcNS0_14basic_appenderIcEEnTnNSt6__ndk19enable_ifIXaaaasr11is_integralIT1_EE5valuentsr3std7is_sameIS7_bEE5valuentsr3std7is_sameIS7_T_EE5valueEiE4typeELi0EEET0_SB_S7_
PUBLIC 2e7c0 0 _ZN3fmt3v116detail5writeIcNS0_14basic_appenderIcEEoTnNSt6__ndk19enable_ifIXaaaasr11is_integralIT1_EE5valuentsr3std7is_sameIS7_bEE5valuentsr3std7is_sameIS7_T_EE5valueEiE4typeELi0EEET0_SB_S7_
PUBLIC 2ead4 0 _ZN3fmt3v116detail5writeIcNS0_14basic_appenderIcEEbTnNSt6__ndk19enable_ifIXsr3std7is_sameIT1_bEE5valueEiE4typeELi0EEET0_SA_S7_RKNS0_12format_specsENS1_10locale_refE
PUBLIC 2ed64 0 fmt::v11::detail::write_int_noinline<char, fmt::v11::basic_appender<char>, unsigned int>(fmt::v11::basic_appender<char>, fmt::v11::detail::write_int_arg<unsigned int>, fmt::v11::format_specs const&, fmt::v11::detail::locale_ref)
PUBLIC 2fb2c 0 fmt::v11::detail::fill<char, fmt::v11::basic_appender<char> >(fmt::v11::basic_appender<char>, unsigned long, fmt::v11::detail::fill_t const&)
PUBLIC 2fcfc 0 fmt::v11::detail::write_padded<char, (fmt::v11::align::type)1, fmt::v11::basic_appender<char>, fmt::v11::detail::write_char<char, fmt::v11::basic_appender<char> >(fmt::v11::basic_appender<char>, char, fmt::v11::format_specs const&)::{lambda(fmt::v11::basic_appender<char>&)#1}>(fmt::v11::basic_appender<char>, fmt::v11::format_specs const&, unsigned long, unsigned long, fmt::v11::detail::write_char<char, fmt::v11::basic_appender<char> >(fmt::v11::basic_appender<char>, char, fmt::v11::format_specs const&)::{lambda(fmt::v11::basic_appender<char>&)#1})
PUBLIC 2ff38 0 fmt::v11::detail::write_escaped_cp<fmt::v11::basic_appender<char>, char>(fmt::v11::basic_appender<char>, fmt::v11::detail::find_escape_result<char> const&)
PUBLIC 30244 0 fmt::v11::detail::write_codepoint<(unsigned long)2, char, fmt::v11::basic_appender<char> >(fmt::v11::basic_appender<char>, char, unsigned int)
PUBLIC 303bc 0 fmt::v11::detail::write_codepoint<(unsigned long)8, char, fmt::v11::basic_appender<char> >(fmt::v11::basic_appender<char>, char, unsigned int)
PUBLIC 30534 0 fmt::v11::detail::write_padded<char, (fmt::v11::align::type)1, fmt::v11::basic_appender<char>, fmt::v11::detail::write_nonfinite<char, fmt::v11::basic_appender<char> >(fmt::v11::basic_appender<char>, bool, fmt::v11::format_specs, fmt::v11::sign::type)::{lambda(fmt::v11::basic_appender<char>&)#1}>(fmt::v11::basic_appender<char>, fmt::v11::format_specs const&, unsigned long, unsigned long, fmt::v11::detail::write_nonfinite<char, fmt::v11::basic_appender<char> >(fmt::v11::basic_appender<char>, bool, fmt::v11::format_specs, fmt::v11::sign::type)::{lambda(fmt::v11::basic_appender<char>&)#1})
PUBLIC 30774 0 fmt::v11::detail::do_write_float<char, fmt::v11::basic_appender<char>, fmt::v11::detail::dragonbox::decimal_fp<float>, fmt::v11::detail::digit_grouping<char> >(fmt::v11::basic_appender<char>, fmt::v11::detail::dragonbox::decimal_fp<float> const&, fmt::v11::format_specs const&, fmt::v11::detail::float_specs, fmt::v11::detail::locale_ref)
PUBLIC 313e8 0 fmt::v11::detail::do_write_float<char, fmt::v11::basic_appender<char>, fmt::v11::detail::dragonbox::decimal_fp<float>, fmt::v11::detail::digit_grouping<char> >(fmt::v11::basic_appender<char>, fmt::v11::detail::dragonbox::decimal_fp<float> const&, fmt::v11::format_specs const&, fmt::v11::detail::float_specs, fmt::v11::detail::locale_ref)::{lambda(fmt::v11::basic_appender<char>(fmt::v11::basic_appender<char>))#1}::operator() const
PUBLIC 3153c 0 fmt::v11::detail::digit_grouping<char>::digit_grouping(fmt::v11::detail::locale_ref, bool)
PUBLIC 317a4 0 fmt::v11::detail::digit_grouping<char>::~digit_grouping()
PUBLIC 317e8 0 fmt::v11::detail::write_exponent<char, fmt::v11::basic_appender<char> >(int, fmt::v11::basic_appender<char>)
PUBLIC 319b8 0 _ZN3fmt3v116detail17write_significandIcjTnNSt6__ndk19enable_ifIXsr3std11is_integralIT0_EE5valueEiE4typeELi0EEEPT_S9_S5_iiS8_
PUBLIC 31b34 0 std::__ndk1::basic_string<char, std::__ndk1::char_traits<char>, std::__ndk1::allocator<char> >::__assign_no_alias<true>(char const*, unsigned long)
PUBLIC 31be0 0 std::__ndk1::basic_string<char, std::__ndk1::char_traits<char>, std::__ndk1::allocator<char> >::__assign_no_alias<false>(char const*, unsigned long)
PUBLIC 31d1c 0 fmt::v11::detail::digit_grouping<char>::apply<fmt::v11::basic_appender<char>, char>(fmt::v11::basic_appender<char>, fmt::v11::basic_string_view<char>) const
PUBLIC 320d4 0 fmt::v11::basic_memory_buffer<int, (unsigned long)500, std::__ndk1::allocator<int> >::grow(fmt::v11::detail::buffer<int>&, unsigned long)
PUBLIC 32174 0 fmt::v11::detail::do_write_float<char, fmt::v11::basic_appender<char>, fmt::v11::detail::dragonbox::decimal_fp<double>, fmt::v11::detail::digit_grouping<char> >(fmt::v11::basic_appender<char>, fmt::v11::detail::dragonbox::decimal_fp<double> const&, fmt::v11::format_specs const&, fmt::v11::detail::float_specs, fmt::v11::detail::locale_ref)
PUBLIC 32e24 0 fmt::v11::detail::do_write_float<char, fmt::v11::basic_appender<char>, fmt::v11::detail::dragonbox::decimal_fp<double>, fmt::v11::detail::digit_grouping<char> >(fmt::v11::basic_appender<char>, fmt::v11::detail::dragonbox::decimal_fp<double> const&, fmt::v11::format_specs const&, fmt::v11::detail::float_specs, fmt::v11::detail::locale_ref)::{lambda(fmt::v11::basic_appender<char>(fmt::v11::basic_appender<char>))#1}::operator() const
PUBLIC 32f7c 0 _ZN3fmt3v116detail17write_significandIcmTnNSt6__ndk19enable_ifIXsr3std11is_integralIT0_EE5valueEiE4typeELi0EEEPT_S9_S5_iiS8_
PUBLIC 3310c 0 fmt::v11::detail::write_float<char, fmt::v11::basic_appender<char>, long double>(fmt::v11::basic_appender<char>, long double, fmt::v11::format_specs, fmt::v11::detail::locale_ref)
PUBLIC 33bf0 0 fmt::v11::detail::write_padded<char, (fmt::v11::align::type)2, fmt::v11::basic_appender<char>, fmt::v11::detail::write_bytes<char, (fmt::v11::align::type)2, fmt::v11::basic_appender<char> >(fmt::v11::basic_appender<char>, fmt::v11::basic_string_view<char>, fmt::v11::format_specs const&)::{lambda(fmt::v11::basic_appender<char>&)#1}>(fmt::v11::basic_appender<char>, fmt::v11::format_specs const&, unsigned long, unsigned long, fmt::v11::detail::write_bytes<char, (fmt::v11::align::type)2, fmt::v11::basic_appender<char> >(fmt::v11::basic_appender<char>, fmt::v11::basic_string_view<char>, fmt::v11::format_specs const&)::{lambda(fmt::v11::basic_appender<char>&)#1})
PUBLIC 33dcc 0 fmt::v11::detail::format_dragon(fmt::v11::detail::basic_fp<unsigned __int128>, unsigned int, int, fmt::v11::detail::buffer<char>&, int&)
PUBLIC 351f0 0 fmt::v11::detail::bigint::operator<<=(int)
PUBLIC 35314 0 fmt::v11::detail::bigint::assign_pow10(int)
PUBLIC 35a70 0 fmt::v11::detail::bigint::divmod_assign(fmt::v11::detail::bigint const&)
PUBLIC 35d94 0 fmt::v11::basic_memory_buffer<unsigned int, (unsigned long)32, std::__ndk1::allocator<unsigned int> >::grow(fmt::v11::detail::buffer<unsigned int>&, unsigned long)
PUBLIC 35e34 0 fmt::v11::detail::do_write_float<char, fmt::v11::basic_appender<char>, fmt::v11::detail::big_decimal_fp, fmt::v11::detail::digit_grouping<char> >(fmt::v11::basic_appender<char>, fmt::v11::detail::big_decimal_fp const&, fmt::v11::format_specs const&, fmt::v11::detail::float_specs, fmt::v11::detail::locale_ref)
PUBLIC 36ce0 0 fmt::v11::detail::do_write_float<char, fmt::v11::basic_appender<char>, fmt::v11::detail::big_decimal_fp, fmt::v11::detail::digit_grouping<char> >(fmt::v11::basic_appender<char>, fmt::v11::detail::big_decimal_fp const&, fmt::v11::format_specs const&, fmt::v11::detail::float_specs, fmt::v11::detail::locale_ref)::{lambda(fmt::v11::basic_appender<char>(fmt::v11::basic_appender<char>))#1}::operator() const
PUBLIC 36e40 0 fmt::v11::detail::write_padded<char, (fmt::v11::align::type)2, fmt::v11::basic_appender<char>, fmt::v11::detail::write_ptr<char, fmt::v11::basic_appender<char>, unsigned long>(fmt::v11::basic_appender<char>, unsigned long, fmt::v11::format_specs const*)::{lambda(fmt::v11::basic_appender<char>&)#1}>(fmt::v11::basic_appender<char>, fmt::v11::format_specs const&, unsigned long, unsigned long, fmt::v11::detail::write_ptr<char, fmt::v11::basic_appender<char>, unsigned long>(fmt::v11::basic_appender<char>, unsigned long, fmt::v11::format_specs const*)::{lambda(fmt::v11::basic_appender<char>&)#1})
PUBLIC 37054 0 fmt::v11::detail::parse_replacement_field<char, fmt::v11::detail::vformat_to<char>(fmt::v11::detail::buffer<char>&, fmt::v11::basic_string_view<char>, fmt::v11::detail::vformat_args<char>::type, fmt::v11::detail::locale_ref)::format_handler&>(char const*, char const*, fmt::v11::detail::vformat_to<char>(fmt::v11::detail::buffer<char>&, fmt::v11::basic_string_view<char>, fmt::v11::detail::vformat_args<char>::type, fmt::v11::detail::locale_ref)::format_handler&)
PUBLIC 38cb8 0 fmt::v11::detail::parse_dynamic_spec<char>(char const*, char const*, int&, fmt::v11::detail::arg_ref<char>&, fmt::v11::basic_format_parse_context<char>&)
PUBLIC 38f48 0 fmt::v11::basic_format_args<fmt::v11::context>::get<char>(fmt::v11::basic_string_view<char>) const
PUBLIC 3907c 0 fmt::v11::detail::write_int_noinline<char, fmt::v11::basic_appender<char>, unsigned long>(fmt::v11::basic_appender<char>, fmt::v11::detail::write_int_arg<unsigned long>, fmt::v11::format_specs const&, fmt::v11::detail::locale_ref)
PUBLIC 39ec8 0 fmt::v11::detail::write_int_noinline<char, fmt::v11::basic_appender<char>, unsigned __int128>(fmt::v11::basic_appender<char>, fmt::v11::detail::write_int_arg<unsigned __int128>, fmt::v11::format_specs const&, fmt::v11::detail::locale_ref)
PUBLIC 3af30 0 _ZN3fmt3v116detail15format_hexfloatIdTnNSt6__ndk19enable_ifIXntsr16is_double_doubleIT_EE5valueEiE4typeELi0EEEvS5_NS0_12format_specsERNS1_6bufferIcEE
PUBLIC 3b450 0 fmt::v11::detail::format_float<double>(double, int, fmt::v11::detail::float_specs, fmt::v11::detail::buffer<char>&)
PUBLIC 3be9c 0 fmt::v11::detail::write<char, fmt::v11::basic_appender<char> >(fmt::v11::basic_appender<char>, fmt::v11::basic_string_view<char>, fmt::v11::format_specs const&)
PUBLIC 3d178 0 fmt::v11::detail::for_each_codepoint<fmt::v11::detail::compute_width(fmt::v11::basic_string_view<char>)::count_code_points>(fmt::v11::basic_string_view<char>, fmt::v11::detail::compute_width(fmt::v11::basic_string_view<char>)::count_code_points)::{lambda(char const*, char const*)#1}::operator()(char const*, char const*) const
PUBLIC 3d330 0 fmt::v11::detail::write_int<fmt::v11::basic_appender<char>, unsigned long, char>(fmt::v11::basic_appender<char>, unsigned long, unsigned int, fmt::v11::format_specs const&, fmt::v11::detail::digit_grouping<char> const&)
PUBLIC 3d8ac 0 fmt::v11::detail::write_int<fmt::v11::basic_appender<char>, unsigned __int128, char>(fmt::v11::basic_appender<char>, unsigned __int128, unsigned int, fmt::v11::format_specs const&, fmt::v11::detail::digit_grouping<char> const&)
PUBLIC 3df30 0 <.plt ELF section in hiimjustin000.better_icon_randomizer.android64.so>
STACK CFI INIT 1a7e0 10 .cfa: sp 0 +
STACK CFI INIT 1a7f0 8 .cfa: sp 0 +
STACK CFI INIT 1a7f8 8 .cfa: sp 0 +
STACK CFI INIT 1a800 14 .cfa: sp 0 +
STACK CFI INIT 1a814 1c .cfa: sp 0 +
STACK CFI INIT 1a830 10 .cfa: sp 0 +
STACK CFI INIT 1a840 134 .cfa: sp 0 +
STACK CFI INIT 1a974 84 .cfa: sp 0 +
STACK CFI INIT 1a9f8 f4 .cfa: sp 0 +
STACK CFI INIT 1aaec a8 .cfa: sp 0 +
STACK CFI INIT 1ab94 7c .cfa: sp 0 +
STACK CFI INIT 1ac10 14 .cfa: sp 0 +
STACK CFI INIT 1ac24 40 .cfa: sp 0 +
STACK CFI INIT 1ac64 28 .cfa: sp 0 +
STACK CFI INIT 1ac8c 190 .cfa: sp 0 +
STACK CFI INIT 1ae1c 2c8 .cfa: sp 0 +
STACK CFI INIT 1b0e4 8 .cfa: sp 0 +
STACK CFI INIT 1b0ec 8 .cfa: sp 0 +
STACK CFI INIT 1b0f4 44 .cfa: sp 0 +
STACK CFI INIT 1b138 e8 .cfa: sp 0 +
STACK CFI INIT 1b220 e8 .cfa: sp 0 +
STACK CFI INIT 1b308 14 .cfa: sp 0 +
STACK CFI INIT 1b31c 10 .cfa: sp 0 +
STACK CFI INIT 1b32c 10 .cfa: sp 0 +
STACK CFI INIT 1b33c f0 .cfa: sp 0 +
STACK CFI INIT 1b42c 44 .cfa: sp 0 +
STACK CFI INIT 1b470 c .cfa: sp 0 +
STACK CFI INIT 1b47c c .cfa: sp 0 +
STACK CFI INIT 1b488 2c .cfa: sp 0 +
STACK CFI INIT 1b4b4 23c .cfa: sp 0 +
STACK CFI INIT 1b6f0 c .cfa: sp 0 +
STACK CFI INIT 1b6fc 120 .cfa: sp 0 +
STACK CFI INIT 1b81c 494 .cfa: sp 0 +
STACK CFI INIT 1bcb0 b78 .cfa: sp 0 +
STACK CFI INIT 1c828 134 .cfa: sp 0 +
STACK CFI INIT 1c95c 210 .cfa: sp 0 +
STACK CFI INIT 1cb6c 38c .cfa: sp 0 +
STACK CFI INIT 1cef8 1c8 .cfa: sp 0 +
STACK CFI INIT 1d0c0 9c4 .cfa: sp 0 +
STACK CFI INIT 1da84 2d4 .cfa: sp 0 +
STACK CFI INIT 1dd58 130 .cfa: sp 0 +
STACK CFI INIT 1de88 120 .cfa: sp 0 +
STACK CFI INIT 1dfa8 1c8 .cfa: sp 0 +
STACK CFI INIT 1e170 168 .cfa: sp 0 +
STACK CFI INIT 1e2d8 fc .cfa: sp 0 +
STACK CFI INIT 1e3d4 30 .cfa: sp 0 +
STACK CFI INIT 1e530 30 .cfa: sp 0 +
STACK CFI INIT 1e560 98 .cfa: sp 0 +
STACK CFI INIT 1e5f8 2ac .cfa: sp 0 +
STACK CFI INIT 1e8a4 8c .cfa: sp 0 +
STACK CFI INIT 21680 7c .cfa: sp 0 +
STACK CFI 21684 .cfa: sp 48 +
STACK CFI 21690 .cfa: x29 48 + x19: .cfa -8 + ^ x20: .cfa -16 + ^ x21: .cfa -32 + ^ .ra: .cfa -40 + ^ x29: .cfa -48 + ^
STACK CFI 216dc .cfa: sp 48 +
STACK CFI 216e8 .cfa: sp 0 +
STACK CFI 216ec .cfa: sp 48 +
STACK CFI 216f8 .cfa: sp 0 +
STACK CFI INIT 217cc 10 .cfa: sp 0 +
STACK CFI 217d0 .cfa: sp 16 +
STACK CFI 217d4 .cfa: x29 16 + .ra: .cfa -8 + ^ x29: .cfa -16 + ^
STACK CFI INIT 217dc 8 .cfa: sp 0 +
STACK CFI INIT 217e4 24 .cfa: sp 0 +
STACK CFI 217e8 .cfa: sp 32 +
STACK CFI 217f0 .cfa: x29 32 + x19: .cfa -16 + ^ .ra: .cfa -24 + ^ x29: .cfa -32 + ^
STACK CFI 217fc .cfa: sp 32 +
STACK CFI 21804 .cfa: sp 0 +
STACK CFI INIT 21808 28 .cfa: sp 0 +
STACK CFI 2180c .cfa: sp 32 +
STACK CFI 21814 .cfa: x29 32 + x19: .cfa -16 + ^ .ra: .cfa -24 + ^ x29: .cfa -32 + ^
STACK CFI 21824 .cfa: sp 32 +
STACK CFI 2182c .cfa: sp 0 +
STACK CFI INIT 21830 8 .cfa: sp 0 +
STACK CFI INIT 21838 2c .cfa: sp 0 +
STACK CFI 2183c .cfa: sp 32 +
STACK CFI 21844 .cfa: x29 32 + x19: .cfa -16 + ^ .ra: .cfa -24 + ^ x29: .cfa -32 + ^
STACK CFI 21858 .cfa: sp 32 +
STACK CFI 21860 .cfa: sp 0 +
STACK CFI INIT 21864 28 .cfa: sp 0 +
STACK CFI INIT 2188c 4 .cfa: sp 0 +
STACK CFI INIT 21890 8 .cfa: sp 0 +
STACK CFI INIT 219cc 2c .cfa: sp 0 +
STACK CFI INIT 219f8 4 .cfa: sp 0 +
STACK CFI INIT 219fc 4 .cfa: sp 0 +
STACK CFI INIT 21a00 4 .cfa: sp 0 +
STACK CFI INIT 21a04 4 .cfa: sp 0 +
STACK CFI INIT 21a08 4 .cfa: sp 0 +
STACK CFI INIT 21a0c 8 .cfa: sp 0 +
STACK CFI INIT 21a80 4 .cfa: sp 0 +
STACK CFI INIT 21af0 4 .cfa: sp 0 +
STACK CFI INIT 21af4 14 .cfa: sp 0 +
STACK CFI 21af8 .cfa: sp 16 +
STACK CFI 21afc .cfa: x29 16 + .ra: .cfa -8 + ^ x29: .cfa -16 + ^
STACK CFI INIT 21b58 30 .cfa: sp 0 +
STACK CFI 21b5c .cfa: sp 32 +
STACK CFI 21b64 .cfa: x29 32 + x19: .cfa -16 + ^ .ra: .cfa -24 + ^ x29: .cfa -32 + ^
STACK CFI 21b7c .cfa: sp 32 +
STACK CFI 21b84 .cfa: sp 0 +
STACK CFI INIT 21b88 34 .cfa: sp 0 +
STACK CFI 21b8c .cfa: sp 32 +
STACK CFI 21b94 .cfa: x29 32 + x19: .cfa -16 + ^ .ra: .cfa -24 + ^ x29: .cfa -32 + ^
STACK CFI INIT 21bbc 70 .cfa: sp 0 +
STACK CFI 21bc0 .cfa: sp 48 +
STACK CFI 21bcc .cfa: x29 32 + x19: .cfa -16 + ^ .ra: .cfa -24 + ^ x29: .cfa -32 + ^
STACK CFI 21c04 .cfa: sp 48 +
STACK CFI 21c10 .cfa: sp 0 +
STACK CFI 21c14 .cfa: x29 32 +
STACK CFI INIT 21c2c 5c .cfa: sp 0 +
STACK CFI 21c30 .cfa: sp 32 +
STACK CFI 21c38 .cfa: x29 32 + x19: .cfa -16 + ^ .ra: .cfa -24 + ^ x29: .cfa -32 + ^
STACK CFI 21c7c .cfa: sp 32 +
STACK CFI 21c84 .cfa: sp 0 +
STACK CFI INIT 21c88 64 .cfa: sp 0 +
STACK CFI 21c8c .cfa: sp 32 +
STACK CFI 21c94 .cfa: x29 32 + x19: .cfa -16 + ^ .ra: .cfa -24 + ^ x29: .cfa -32 + ^
STACK CFI 21ce0 .cfa: sp 32 +
STACK CFI 21ce8 .cfa: sp 0 +
STACK CFI INIT 21cec 4 .cfa: sp 0 +
STACK CFI INIT 21cf0 34 .cfa: sp 0 +
STACK CFI 21cf4 .cfa: sp 16 +
STACK CFI 21cf8 .cfa: x29 16 + .ra: .cfa -8 + ^ x29: .cfa -16 + ^
STACK CFI INIT 21d24 24 .cfa: sp 0 +
STACK CFI 21d28 .cfa: sp 32 +
STACK CFI 21d30 .cfa: x29 32 + x19: .cfa -16 + ^ .ra: .cfa -24 + ^ x29: .cfa -32 + ^
STACK CFI 21d3c .cfa: sp 32 +
STACK CFI 21d44 .cfa: sp 0 +
STACK CFI INIT 21d48 70 .cfa: sp 0 +
STACK CFI 21d4c .cfa: sp 48 +
STACK CFI 21d58 .cfa: x29 32 + x19: .cfa -16 + ^ .ra: .cfa -24 + ^ x29: .cfa -32 + ^
STACK CFI 21d90 .cfa: sp 48 +
STACK CFI 21d9c .cfa: sp 0 +
STACK CFI 21da0 .cfa: x29 32 +
STACK CFI INIT 21db8 5c .cfa: sp 0 +
STACK CFI 21dbc .cfa: sp 32 +
STACK CFI 21dc4 .cfa: x29 32 + x19: .cfa -16 + ^ .ra: .cfa -24 + ^ x29: .cfa -32 + ^
STACK CFI 21e08 .cfa: sp 32 +
STACK CFI 21e10 .cfa: sp 0 +
STACK CFI INIT 21e14 64 .cfa: sp 0 +
STACK CFI 21e18 .cfa: sp 32 +
STACK CFI 21e20 .cfa: x29 32 + x19: .cfa -16 + ^ .ra: .cfa -24 + ^ x29: .cfa -32 + ^
STACK CFI 21e6c .cfa: sp 32 +
STACK CFI 21e74 .cfa: sp 0 +
STACK CFI INIT 21e78 24 .cfa: sp 0 +
STACK CFI 21e7c .cfa: sp 32 +
STACK CFI 21e84 .cfa: x29 32 + x19: .cfa -16 + ^ .ra: .cfa -24 + ^ x29: .cfa -32 + ^
STACK CFI 21e90 .cfa: sp 32 +
STACK CFI 21e98 .cfa: sp 0 +
STACK CFI INIT 21e9c 18 .cfa: sp 0 +
STACK CFI INIT 21eb4 14 .cfa: sp 0 +
STACK CFI 21eb8 .cfa: sp 16 +
STACK CFI 21ebc .cfa: x29 16 + .ra: .cfa -8 + ^ x29: .cfa -16 + ^
STACK CFI INIT 220d0 34 .cfa: sp 0 +
STACK CFI 220d4 .cfa: sp 16 +
STACK CFI 220d8 .cfa: x29 16 + .ra: .cfa -8 + ^ x29: .cfa -16 + ^
STACK CFI INIT 22104 4 .cfa: sp 0 +
STACK CFI INIT 22108 14 .cfa: sp 0 +
STACK CFI INIT 2211c 94 .cfa: sp 0 +
STACK CFI 22120 .cfa: sp 48 +
STACK CFI 2212c .cfa: x29 48 + x19: .cfa -8 + ^ x20: .cfa -16 + ^ x21: .cfa -24 + ^ x22: .cfa -32 + ^ .ra: .cfa -40 + ^ x29: .cfa -48 + ^
STACK CFI 22144 .cfa: sp 48 +
STACK CFI 22150 .cfa: sp 0 +
STACK CFI 22154 .cfa: x29 48 +
STACK CFI 22198 .cfa: sp 48 +
STACK CFI 221a4 .cfa: sp 0 +
STACK CFI 221a8 .cfa: x29 48 +
STACK CFI INIT 221b0 14 .cfa: sp 0 +
STACK CFI INIT 221c4 14 .cfa: sp 0 +
STACK CFI INIT 221d8 40 .cfa: sp 0 +
STACK CFI 221f0 .cfa: sp 32 +
STACK CFI 221f8 .cfa: x29 32 + x19: .cfa -16 + ^ .ra: .cfa -24 + ^ x29: .cfa -32 + ^
STACK CFI 2220c .cfa: sp 32 +
STACK CFI 22214 .cfa: sp 0 +
STACK CFI INIT 22218 64 .cfa: sp 0 +
STACK CFI 2221c .cfa: sp 32 +
STACK CFI 22224 .cfa: x29 32 + x19: .cfa -8 + ^ x20: .cfa -16 + ^ .ra: .cfa -24 + ^ x29: .cfa -32 + ^
STACK CFI 22270 .cfa: sp 32 +
STACK CFI 22278 .cfa: sp 0 +
STACK CFI INIT 2227c 44 .cfa: sp 0 +
STACK CFI 22280 .cfa: sp 32 +
STACK CFI 22288 .cfa: x29 32 + x19: .cfa -16 + ^ .ra: .cfa -24 + ^ x29: .cfa -32 + ^
STACK CFI 222b4 .cfa: sp 32 +
STACK CFI 222bc .cfa: sp 0 +
STACK CFI INIT 222c0 230 .cfa: sp 0 +
STACK CFI 222c4 .cfa: sp 64 +
STACK CFI 222d4 .cfa: x29 64 + x19: .cfa -8 + ^ x20: .cfa -16 + ^ x21: .cfa -24 + ^ x22: .cfa -32 + ^ x23: .cfa -40 + ^ x24: .cfa -48 + ^ .ra: .cfa -56 + ^ x29: .cfa -64 + ^
STACK CFI 22330 .cfa: sp 64 +
STACK CFI 22340 .cfa: sp 0 +
STACK CFI 22344 .cfa: x29 64 +
STACK CFI 224c0 .cfa: sp 64 +
STACK CFI 224d0 .cfa: sp 0 +
STACK CFI 224d4 .cfa: x29 64 +
STACK CFI 224dc .cfa: sp 64 +
STACK CFI 224ec .cfa: sp 0 +
STACK CFI INIT 224f0 458 .cfa: sp 0 +
STACK CFI INIT 22f7c 50 .cfa: sp 0 +
STACK CFI 22fa0 .cfa: sp 32 +
STACK CFI 22fa8 .cfa: x29 32 + x19: .cfa -16 + ^ .ra: .cfa -24 + ^ x29: .cfa -32 + ^
STACK CFI 22fbc .cfa: sp 32 +
STACK CFI 22fc4 .cfa: sp 0 +
STACK CFI INIT 22fcc 64 .cfa: sp 0 +
STACK CFI 22fd0 .cfa: sp 32 +
STACK CFI 22fd8 .cfa: x29 32 + x19: .cfa -16 + ^ .ra: .cfa -24 + ^ x29: .cfa -32 + ^
STACK CFI 22ffc .cfa: sp 32 +
STACK CFI 23004 .cfa: sp 0 +
STACK CFI 23008 .cfa: x29 32 +
STACK CFI 23024 .cfa: sp 32 +
STACK CFI 2302c .cfa: sp 0 +
STACK CFI INIT 23030 64 .cfa: sp 0 +
STACK CFI 23034 .cfa: sp 32 +
STACK CFI 2303c .cfa: x29 32 + x19: .cfa -8 + ^ x20: .cfa -16 + ^ .ra: .cfa -24 + ^ x29: .cfa -32 + ^
STACK CFI 23088 .cfa: sp 32 +
STACK CFI 23090 .cfa: sp 0 +
STACK CFI INIT 23094 74 .cfa: sp 0 +
STACK CFI 23098 .cfa: sp 32 +
STACK CFI 230a0 .cfa: x29 32 + x19: .cfa -16 + ^ .ra: .cfa -24 + ^ x29: .cfa -32 + ^
STACK CFI 230cc .cfa: sp 32 +
STACK CFI 230d4 .cfa: sp 0 +
STACK CFI 230d8 .cfa: x29 32 +
STACK CFI 230fc .cfa: sp 32 +
STACK CFI 23104 .cfa: sp 0 +
STACK CFI INIT 23108 310 .cfa: sp 0 +
STACK CFI 2310c .cfa: sp 128 +
STACK CFI 23124 .cfa: x29 64 + x19: .cfa -8 + ^ x20: .cfa -16 + ^ x21: .cfa -24 + ^ x22: .cfa -32 + ^ x23: .cfa -40 + ^ x24: .cfa -48 + ^ .ra: .cfa -56 + ^ x29: .cfa -64 + ^ v8: .cfa -72 + ^ v9: .cfa -80 + ^
STACK CFI 2335c .cfa: sp 128 +
STACK CFI 23374 .cfa: sp 0 +
STACK CFI 23378 .cfa: x29 64 +
STACK CFI INIT 23418 4 .cfa: sp 0 +
STACK CFI INIT 2341c 14 .cfa: sp 0 +
STACK CFI INIT 23430 4 .cfa: sp 0 +
STACK CFI INIT 23434 34 .cfa: sp 0 +
STACK CFI 23438 .cfa: sp 32 +
STACK CFI 23440 .cfa: x29 32 + x19: .cfa -16 + ^ .ra: .cfa -24 + ^ x29: .cfa -32 + ^
STACK CFI 2345c .cfa: sp 32 +
STACK CFI 23464 .cfa: sp 0 +
STACK CFI INIT 23468 14 .cfa: sp 0 +
STACK CFI INIT 2347c 4 .cfa: sp 0 +
STACK CFI INIT 23480 4 .cfa: sp 0 +
STACK CFI INIT 2360c 1c .cfa: sp 0 +
STACK CFI INIT 23628 c .cfa: sp 0 +
STACK CFI INIT 23650 4 .cfa: sp 0 +
STACK CFI INIT 23654 34 .cfa: sp 0 +
STACK CFI 23658 .cfa: sp 32 +
STACK CFI 23660 .cfa: x29 32 + x19: .cfa -16 + ^ .ra: .cfa -24 + ^ x29: .cfa -32 + ^
STACK CFI 2367c .cfa: sp 32 +
STACK CFI 23684 .cfa: sp 0 +
STACK CFI INIT 23688 14 .cfa: sp 0 +
STACK CFI INIT 2369c 4 .cfa: sp 0 +
STACK CFI INIT 236a0 4 .cfa: sp 0 +
STACK CFI INIT 2382c 1c .cfa: sp 0 +
STACK CFI INIT 23848 c .cfa: sp 0 +
STACK CFI INIT 23854 4 .cfa: sp 0 +
STACK CFI INIT 23858 4 .cfa: sp 0 +
STACK CFI INIT 2385c 34 .cfa: sp 0 +
STACK CFI 23860 .cfa: sp 32 +
STACK CFI 23868 .cfa: x29 32 + x19: .cfa -16 + ^ .ra: .cfa -24 + ^ x29: .cfa -32 + ^
STACK CFI 23884 .cfa: sp 32 +
STACK CFI 2388c .cfa: sp 0 +
STACK CFI INIT 23890 14 .cfa: sp 0 +
STACK CFI INIT 238a4 4 .cfa: sp 0 +
STACK CFI INIT 238a8 4 .cfa: sp 0 +
STACK CFI INIT 23a34 1c .cfa: sp 0 +
STACK CFI INIT 23a50 c .cfa: sp 0 +
STACK CFI INIT 23a5c 4 .cfa: sp 0 +
STACK CFI INIT 23a60 34 .cfa: sp 0 +
STACK CFI 23a64 .cfa: sp 32 +
STACK CFI 23a6c .cfa: x29 32 + x19: .cfa -16 + ^ .ra: .cfa -24 + ^ x29: .cfa -32 + ^
STACK CFI 23a88 .cfa: sp 32 +
STACK CFI 23a90 .cfa: sp 0 +
STACK CFI INIT 23a94 14 .cfa: sp 0 +
STACK CFI INIT 23aa8 4 .cfa: sp 0 +
STACK CFI INIT 23aac 4 .cfa: sp 0 +
STACK CFI INIT 251d0 1c .cfa: sp 0 +
STACK CFI INIT 251ec c .cfa: sp 0 +
STACK CFI INIT 251f8 4 .cfa: sp 0 +
STACK CFI INIT 251fc 48 .cfa: sp 0 +
STACK CFI 25200 .cfa: sp 32 +
STACK CFI 25208 .cfa: x29 32 + x19: .cfa -16 + ^ .ra: .cfa -24 + ^ x29: .cfa -32 + ^
STACK CFI 25238 .cfa: sp 32 +
STACK CFI 25240 .cfa: sp 0 +
STACK CFI INIT 25244 28 .cfa: sp 0 +
STACK CFI INIT 2526c 4 .cfa: sp 0 +
STACK CFI INIT 25270 4 .cfa: sp 0 +
STACK CFI INIT 25454 1c .cfa: sp 0 +
STACK CFI INIT 25470 c .cfa: sp 0 +
STACK CFI INIT 2547c 4 .cfa: sp 0 +
STACK CFI INIT 25480 34 .cfa: sp 0 +
STACK CFI 25484 .cfa: sp 32 +
STACK CFI 2548c .cfa: x29 32 + x19: .cfa -16 + ^ .ra: .cfa -24 + ^ x29: .cfa -32 + ^
STACK CFI 254a8 .cfa: sp 32 +
STACK CFI 254b0 .cfa: sp 0 +
STACK CFI INIT 254b4 14 .cfa: sp 0 +
STACK CFI INIT 254c8 4 .cfa: sp 0 +
STACK CFI INIT 254cc 4 .cfa: sp 0 +
STACK CFI INIT 256a0 1c .cfa: sp 0 +
STACK CFI INIT 256bc c .cfa: sp 0 +
STACK CFI INIT 256c8 4 .cfa: sp 0 +
STACK CFI INIT 256cc 4 .cfa: sp 0 +
STACK CFI INIT 256d0 38 .cfa: sp 0 +
STACK CFI 256d4 .cfa: sp 32 +
STACK CFI 256dc .cfa: x29 32 + x19: .cfa -16 + ^ .ra: .cfa -24 + ^ x29: .cfa -32 + ^
STACK CFI 256fc .cfa: sp 32 +
STACK CFI 25704 .cfa: sp 0 +
STACK CFI INIT 25708 18 .cfa: sp 0 +
STACK CFI INIT 25720 4 .cfa: sp 0 +
STACK CFI INIT 25724 4 .cfa: sp 0 +
STACK CFI INIT 2592c 1c .cfa: sp 0 +
STACK CFI INIT 25948 c .cfa: sp 0 +
STACK CFI INIT 25954 3c .cfa: sp 0 +
STACK CFI 2595c .cfa: sp 32 +
STACK CFI 25964 .cfa: x29 32 + x19: .cfa -16 + ^ .ra: .cfa -24 + ^ x29: .cfa -32 + ^
STACK CFI 25980 .cfa: sp 32 +
STACK CFI 25988 .cfa: sp 0 +
STACK CFI INIT 25990 1a0 .cfa: sp 0 +
STACK CFI 25994 .cfa: sp 64 +
STACK CFI 259a4 .cfa: x29 64 + x19: .cfa -8 + ^ x20: .cfa -16 + ^ x21: .cfa -24 + ^ x22: .cfa -32 + ^ x23: .cfa -40 + ^ x24: .cfa -48 + ^ .ra: .cfa -56 + ^ x29: .cfa -64 + ^
STACK CFI 25b04 .cfa: sp 64 +
STACK CFI 25b14 .cfa: sp 0 +
STACK CFI 25b18 .cfa: x29 64 +
STACK CFI INIT 25b30 2b8 .cfa: sp 0 +
STACK CFI INIT 25de8 1a8 .cfa: sp 0 +
STACK CFI INIT 26098 4 .cfa: sp 0 +
STACK CFI INIT 2609c 14 .cfa: sp 0 +
STACK CFI INIT 260b0 4 .cfa: sp 0 +
STACK CFI INIT 260b4 14 .cfa: sp 0 +
STACK CFI INIT 26238 60 .cfa: sp 0 +
STACK CFI 2623c .cfa: sp 32 +
STACK CFI 26244 .cfa: x29 32 + x19: .cfa -8 + ^ x20: .cfa -16 + ^ .ra: .cfa -24 + ^ x29: .cfa -32 + ^
STACK CFI 26264 .cfa: sp 32 +
STACK CFI 2626c .cfa: sp 0 +
STACK CFI 26270 .cfa: x29 32 +
STACK CFI 2628c .cfa: sp 32 +
STACK CFI 26294 .cfa: sp 0 +
STACK CFI INIT 26298 70 .cfa: sp 0 +
STACK CFI 2629c .cfa: sp 32 +
STACK CFI 262a4 .cfa: x29 32 + x19: .cfa -8 + ^ x20: .cfa -16 + ^ .ra: .cfa -24 + ^ x29: .cfa -32 + ^
STACK CFI 262cc .cfa: sp 32 +
STACK CFI 262d4 .cfa: sp 0 +
STACK CFI 262d8 .cfa: x29 32 +
STACK CFI 262fc .cfa: sp 32 +
STACK CFI 26304 .cfa: sp 0 +
STACK CFI INIT 26308 10 .cfa: sp 0 +
STACK CFI INIT 26318 30 .cfa: sp 0 +
STACK CFI 2631c .cfa: sp 32 +
STACK CFI 26324 .cfa: x29 32 + x19: .cfa -16 + ^ .ra: .cfa -24 + ^ x29: .cfa -32 + ^
STACK CFI 2633c .cfa: sp 32 +
STACK CFI 26344 .cfa: sp 0 +
STACK CFI INIT 26348 4 .cfa: sp 0 +
STACK CFI INIT 2634c 4 .cfa: sp 0 +
STACK CFI INIT 26350 30 .cfa: sp 0 +
STACK CFI INIT 26ed8 18 .cfa: sp 0 +
STACK CFI INIT 272f8 50 .cfa: sp 0 +
STACK CFI 272fc .cfa: sp 32 +
STACK CFI 27304 .cfa: x29 32 + x19: .cfa -16 + ^ .ra: .cfa -24 + ^ x29: .cfa -32 + ^
STACK CFI 2731c .cfa: sp 32 +
STACK CFI 27324 .cfa: sp 0 +
STACK CFI 27328 .cfa: x29 32 +
STACK CFI 2733c .cfa: sp 32 +
STACK CFI 27344 .cfa: sp 0 +
STACK CFI INIT 273bc 4 .cfa: sp 0 +
STACK CFI INIT 27648 80 .cfa: sp 0 +
STACK CFI 2764c .cfa: sp 48 +
STACK CFI 27658 .cfa: x29 48 + x19: .cfa -8 + ^ x20: .cfa -16 + ^ x21: .cfa -32 + ^ .ra: .cfa -40 + ^ x29: .cfa -48 + ^
STACK CFI 276b8 .cfa: sp 48 +
STACK CFI 276c4 .cfa: sp 0 +
STACK CFI INIT 276c8 24 .cfa: sp 0 +
STACK CFI 276cc .cfa: sp 32 +
STACK CFI 276d4 .cfa: x29 32 + x19: .cfa -16 + ^ .ra: .cfa -24 + ^ x29: .cfa -32 + ^
STACK CFI 276e0 .cfa: sp 32 +
STACK CFI 276e8 .cfa: sp 0 +
STACK CFI INIT 27bec 148 .cfa: sp 0 +
STACK CFI 27bf0 .cfa: sp 48 +
STACK CFI 27bfc .cfa: x29 48 + x19: .cfa -8 + ^ x20: .cfa -16 + ^ x21: .cfa -32 + ^ .ra: .cfa -40 + ^ x29: .cfa -48 + ^
STACK CFI 27d24 .cfa: sp 48 +
STACK CFI 27d30 .cfa: sp 0 +
STACK CFI INIT 27d34 88 .cfa: sp 0 +
STACK CFI 27d3c .cfa: sp 48 +
STACK CFI 27d48 .cfa: x29 48 + x19: .cfa -8 + ^ x20: .cfa -16 + ^ x21: .cfa -24 + ^ x22: .cfa -32 + ^ .ra: .cfa -40 + ^ x29: .cfa -48 + ^
STACK CFI 27dac .cfa: sp 48 +
STACK CFI 27db8 .cfa: sp 0 +
STACK CFI INIT 27dbc 68 .cfa: sp 0 +
STACK CFI 27dc0 .cfa: sp 32 +
STACK CFI 27dc8 .cfa: x29 32 + x19: .cfa -8 + ^ x20: .cfa -16 + ^ .ra: .cfa -24 + ^ x29: .cfa -32 + ^
STACK CFI 27de0 .cfa: sp 32 +
STACK CFI 27de8 .cfa: sp 0 +
STACK CFI 27dec .cfa: x29 32 +
STACK CFI 27e18 .cfa: sp 32 +
STACK CFI 27e20 .cfa: sp 0 +
STACK CFI INIT 27e24 14 .cfa: sp 0 +
STACK CFI 27e28 .cfa: sp 16 +
STACK CFI 27e2c .cfa: x29 16 + .ra: .cfa -8 + ^ x29: .cfa -16 + ^
STACK CFI INIT 27e38 4 .cfa: sp 0 +
STACK CFI INIT 27e3c 14 .cfa: sp 0 +
STACK CFI INIT 27e50 84 .cfa: sp 0 +
STACK CFI 27e58 .cfa: sp 32 +
STACK CFI 27e60 .cfa: x29 32 + x19: .cfa -8 + ^ x20: .cfa -16 + ^ .ra: .cfa -24 + ^ x29: .cfa -32 + ^
STACK CFI 27ea0 .cfa: sp 32 +
STACK CFI 27ea8 .cfa: sp 0 +
STACK CFI 27eb0 .cfa: x29 32 +
STACK CFI INIT 28998 b4 .cfa: sp 0 +
STACK CFI 2899c .cfa: sp 32 +
STACK CFI 289a4 .cfa: x29 32 + x19: .cfa -16 + ^ .ra: .cfa -24 + ^ x29: .cfa -32 + ^
STACK CFI 28a40 .cfa: sp 32 +
STACK CFI 28a48 .cfa: sp 0 +
STACK CFI INIT 28a4c 50 .cfa: sp 0 +
STACK CFI 28a50 .cfa: sp 32 +
STACK CFI 28a58 .cfa: x29 32 + x19: .cfa -16 + ^ .ra: .cfa -24 + ^ x29: .cfa -32 + ^
STACK CFI 28a70 .cfa: sp 32 +
STACK CFI 28a78 .cfa: sp 0 +
STACK CFI 28a7c .cfa: x29 32 +
STACK CFI 28a90 .cfa: sp 32 +
STACK CFI 28a98 .cfa: sp 0 +
STACK CFI INIT 28a9c 64 .cfa: sp 0 +
STACK CFI 28aa0 .cfa: sp 32 +
STACK CFI 28aa8 .cfa: x29 32 + x19: .cfa -16 + ^ .ra: .cfa -24 + ^ x29: .cfa -32 + ^
STACK CFI 28ad4 .cfa: sp 32 +
STACK CFI 28adc .cfa: sp 0 +
STACK CFI 28ae0 .cfa: x29 32 +
STACK CFI 28af4 .cfa: sp 32 +
STACK CFI 28afc .cfa: sp 0 +
STACK CFI INIT 28b00 1c .cfa: sp 0 +
STACK CFI 28b04 .cfa: sp 16 +
STACK CFI 28b08 .cfa: x29 16 + .ra: .cfa -8 + ^ x29: .cfa -16 + ^
STACK CFI 28b14 .cfa: sp 16 +
STACK CFI 28b18 .cfa: sp 0 +
STACK CFI INIT 28b1c 50 .cfa: sp 0 +
STACK CFI 28b20 .cfa: sp 32 +
STACK CFI 28b28 .cfa: x29 32 + x19: .cfa -16 + ^ .ra: .cfa -24 + ^ x29: .cfa -32 + ^
STACK CFI 28b40 .cfa: sp 32 +
STACK CFI 28b48 .cfa: sp 0 +
STACK CFI 28b4c .cfa: x29 32 +
STACK CFI 28b60 .cfa: sp 32 +
STACK CFI 28b68 .cfa: sp 0 +
STACK CFI INIT 28b6c f8 .cfa: sp 0 +
STACK CFI 28b70 .cfa: sp 64 +
STACK CFI 28b80 .cfa: x29 64 + x19: .cfa -8 + ^ x20: .cfa -16 + ^ x21: .cfa -24 + ^ x22: .cfa -32 + ^ x23: .cfa -48 + ^ .ra: .cfa -56 + ^ x29: .cfa -64 + ^
STACK CFI 28bdc .cfa: sp 64 +
STACK CFI 28bec .cfa: sp 0 +
STACK CFI 28bf0 .cfa: x29 64 +
STACK CFI 28c0c .cfa: sp 64 +
STACK CFI 28c1c .cfa: sp 0 +
STACK CFI 28c20 .cfa: x29 64 +
STACK CFI 28c50 .cfa: sp 64 +
STACK CFI 28c60 .cfa: sp 0 +
STACK CFI INIT 28c64 144 .cfa: sp 0 +
STACK CFI 28c68 .cfa: sp 80 +
STACK CFI 28c7c .cfa: x29 80 + x19: .cfa -8 + ^ x20: .cfa -16 + ^ x21: .cfa -24 + ^ x22: .cfa -32 + ^ x23: .cfa -40 + ^ x24: .cfa -48 + ^ x25: .cfa -64 + ^ .ra: .cfa -72 + ^ x29: .cfa -80 + ^
STACK CFI 28d88 .cfa: sp 80 +
STACK CFI 28d9c .cfa: sp 0 +
STACK CFI 28da0 .cfa: x29 80 +
STACK CFI INIT 28da8 50 .cfa: sp 0 +
STACK CFI 28dac .cfa: sp 32 +
STACK CFI 28db4 .cfa: x29 32 + x19: .cfa -16 + ^ .ra: .cfa -24 + ^ x29: .cfa -32 + ^
STACK CFI 28dcc .cfa: sp 32 +
STACK CFI 28dd4 .cfa: sp 0 +
STACK CFI 28dd8 .cfa: x29 32 +
STACK CFI 28dec .cfa: sp 32 +
STACK CFI 28df4 .cfa: sp 0 +
STACK CFI INIT 28e6c 4 .cfa: sp 0 +
STACK CFI INIT 28e70 14 .cfa: sp 0 +
STACK CFI INIT 28e84 3c .cfa: sp 0 +
STACK CFI 28e88 .cfa: sp 32 +
STACK CFI 28e90 .cfa: x29 32 + x19: .cfa -16 + ^ .ra: .cfa -24 + ^ x29: .cfa -32 + ^
STACK CFI 28e9c .cfa: sp 32 +
STACK CFI 28ea4 .cfa: sp 0 +
STACK CFI 28ea8 .cfa: x29 32 +
STACK CFI 28eb4 .cfa: sp 32 +
STACK CFI 28ebc .cfa: sp 0 +
STACK CFI INIT 28ec0 3c .cfa: sp 0 +
STACK CFI 28ec4 .cfa: sp 32 +
STACK CFI 28ecc .cfa: x29 32 + x19: .cfa -16 + ^ .ra: .cfa -24 + ^ x29: .cfa -32 + ^
STACK CFI 28ed8 .cfa: sp 32 +
STACK CFI 28ee0 .cfa: sp 0 +
STACK CFI 28ee4 .cfa: x29 32 +
STACK CFI 28ef0 .cfa: sp 32 +
STACK CFI 28ef8 .cfa: sp 0 +
STACK CFI INIT 28efc 4c .cfa: sp 0 +
STACK CFI 28f00 .cfa: sp 32 +
STACK CFI 28f08 .cfa: x29 32 + x19: .cfa -8 + ^ x20: .cfa -16 + ^ .ra: .cfa -24 + ^ x29: .cfa -32 + ^
STACK CFI 28f30 .cfa: sp 32 +
STACK CFI 28f38 .cfa: sp 0 +
STACK CFI 28f3c .cfa: sp 32 +
STACK CFI 28f44 .cfa: sp 0 +
STACK CFI INIT 29168 64 .cfa: sp 0 +
STACK CFI 2916c .cfa: sp 32 +
STACK CFI 29174 .cfa: x29 32 + x19: .cfa -16 + ^ .ra: .cfa -24 + ^ x29: .cfa -32 + ^
STACK CFI 291a0 .cfa: sp 32 +
STACK CFI 291a8 .cfa: sp 0 +
STACK CFI 291ac .cfa: x29 32 +
STACK CFI 291c0 .cfa: sp 32 +
STACK CFI 291c8 .cfa: sp 0 +
STACK CFI INIT 293f0 24 .cfa: sp 0 +
STACK CFI 293f4 .cfa: sp 32 +
STACK CFI 293fc .cfa: x29 32 + x19: .cfa -16 + ^ .ra: .cfa -24 + ^ x29: .cfa -32 + ^
STACK CFI 29408 .cfa: sp 32 +
STACK CFI 29410 .cfa: sp 0 +
STACK CFI INIT 29414 24 .cfa: sp 0 +
STACK CFI 29418 .cfa: sp 32 +
STACK CFI 29420 .cfa: x29 32 + x19: .cfa -16 + ^ .ra: .cfa -24 + ^ x29: .cfa -32 + ^
STACK CFI 2942c .cfa: sp 32 +
STACK CFI 29434 .cfa: sp 0 +
STACK CFI INIT 29438 8 .cfa: sp 0 +
STACK CFI INIT 29440 24 .cfa: sp 0 +
STACK CFI 29444 .cfa: sp 32 +
STACK CFI 2944c .cfa: x29 32 + x19: .cfa -16 + ^ .ra: .cfa -24 + ^ x29: .cfa -32 + ^
STACK CFI 29458 .cfa: sp 32 +
STACK CFI 29460 .cfa: sp 0 +
STACK CFI INIT 29464 28 .cfa: sp 0 +
STACK CFI 29468 .cfa: sp 32 +
STACK CFI 29470 .cfa: x29 32 + x19: .cfa -16 + ^ .ra: .cfa -24 + ^ x29: .cfa -32 + ^
STACK CFI 29480 .cfa: sp 32 +
STACK CFI 29488 .cfa: sp 0 +
STACK CFI INIT 2978c 8 .cfa: sp 0 +
STACK CFI INIT 29794 24 .cfa: sp 0 +
STACK CFI 29798 .cfa: sp 32 +
STACK CFI 297a0 .cfa: x29 32 + x19: .cfa -16 + ^ .ra: .cfa -24 + ^ x29: .cfa -32 + ^
STACK CFI 297ac .cfa: sp 32 +
STACK CFI 297b4 .cfa: sp 0 +
STACK CFI INIT 297b8 28 .cfa: sp 0 +
STACK CFI 297bc .cfa: sp 32 +
STACK CFI 297c4 .cfa: x29 32 + x19: .cfa -16 + ^ .ra: .cfa -24 + ^ x29: .cfa -32 + ^
STACK CFI 297d4 .cfa: sp 32 +
STACK CFI 297dc .cfa: sp 0 +
STACK CFI INIT 29a44 8 .cfa: sp 0 +
STACK CFI INIT 29a4c 24 .cfa: sp 0 +
STACK CFI 29a50 .cfa: sp 32 +
STACK CFI 29a58 .cfa: x29 32 + x19: .cfa -16 + ^ .ra: .cfa -24 + ^ x29: .cfa -32 + ^
STACK CFI 29a64 .cfa: sp 32 +
STACK CFI 29a6c .cfa: sp 0 +
STACK CFI INIT 29a70 28 .cfa: sp 0 +
STACK CFI 29a74 .cfa: sp 32 +
STACK CFI 29a7c .cfa: x29 32 + x19: .cfa -16 + ^ .ra: .cfa -24 + ^ x29: .cfa -32 + ^
STACK CFI 29a8c .cfa: sp 32 +
STACK CFI 29a94 .cfa: sp 0 +
STACK CFI INIT 29a98 9c .cfa: sp 0 +
STACK CFI 29a9c .cfa: sp 32 +
STACK CFI 29aa4 .cfa: x29 32 + x19: .cfa -16 + ^ .ra: .cfa -24 + ^ x29: .cfa -32 + ^
STACK CFI 29b28 .cfa: sp 32 +
STACK CFI 29b30 .cfa: sp 0 +
STACK CFI INIT 29b34 8 .cfa: sp 0 +
STACK CFI INIT 29b3c 24 .cfa: sp 0 +
STACK CFI 29b40 .cfa: sp 32 +
STACK CFI 29b48 .cfa: x29 32 + x19: .cfa -16 + ^ .ra: .cfa -24 + ^ x29: .cfa -32 + ^
STACK CFI 29b54 .cfa: sp 32 +
STACK CFI 29b5c .cfa: sp 0 +
STACK CFI INIT 29b60 28 .cfa: sp 0 +
STACK CFI 29b64 .cfa: sp 32 +
STACK CFI 29b6c .cfa: x29 32 + x19: .cfa -16 + ^ .ra: .cfa -24 + ^ x29: .cfa -32 + ^
STACK CFI 29b7c .cfa: sp 32 +
STACK CFI 29b84 .cfa: sp 0 +
STACK CFI INIT 29b88 1c .cfa: sp 0 +
STACK CFI INIT 29ba4 14 .cfa: sp 0 +
STACK CFI INIT 29bb8 4 .cfa: sp 0 +
STACK CFI INIT 29bbc 8 .cfa: sp 0 +
STACK CFI INIT 29bc4 20 .cfa: sp 0 +
STACK CFI INIT 29be4 30 .cfa: sp 0 +
STACK CFI 29be8 .cfa: sp 32 +
STACK CFI 29bf0 .cfa: x29 32 + x19: .cfa -16 + ^ .ra: .cfa -24 + ^ x29: .cfa -32 + ^
STACK CFI 29c08 .cfa: sp 32 +
STACK CFI 29c10 .cfa: sp 0 +
STACK CFI INIT 2af1c 4 .cfa: sp 0 +
STACK CFI INIT 2af20 14 .cfa: sp 0 +
STACK CFI INIT 2b440 c .cfa: sp 0 +
STACK CFI INIT 2b44c 24c .cfa: sp 0 +
STACK CFI INIT 2b698 a0 .cfa: sp 0 +
STACK CFI 2b6a4 .cfa: sp 32 +
STACK CFI 2b6fc .cfa: sp 0 +
STACK CFI 2b700 .cfa: sp 32 +
STACK CFI 2b708 .cfa: sp 0 +
STACK CFI 2b70c .cfa: sp 32 +
STACK CFI 2b720 .cfa: sp 0 +
STACK CFI 2b724 .cfa: sp 32 +
STACK CFI 2b734 .cfa: sp 0 +
STACK CFI INIT 2b738 38 .cfa: sp 0 +
STACK CFI 2b744 .cfa: sp 32 +
STACK CFI 2b76c .cfa: sp 0 +
STACK CFI INIT 2ba04 7c .cfa: sp 0 +
STACK CFI 2ba08 .cfa: sp 32 +
STACK CFI 2ba10 .cfa: x29 32 + x19: .cfa -16 + ^ .ra: .cfa -24 + ^ x29: .cfa -32 + ^
STACK CFI 2ba3c .cfa: sp 32 +
STACK CFI 2ba44 .cfa: sp 0 +
STACK CFI 2ba48 .cfa: x29 32 +
STACK CFI 2ba74 .cfa: sp 32 +
STACK CFI 2ba7c .cfa: sp 0 +
STACK CFI INIT 2bad0 2c .cfa: sp 0 +
STACK CFI 2bad4 .cfa: sp 32 +
STACK CFI 2badc .cfa: x29 32 + x19: .cfa -16 + ^ .ra: .cfa -24 + ^ x29: .cfa -32 + ^
STACK CFI 2baf0 .cfa: sp 32 +
STACK CFI 2baf8 .cfa: sp 0 +
STACK CFI INIT 2c2bc 64 .cfa: sp 0 +
STACK CFI 2c2c0 .cfa: sp 32 +
STACK CFI 2c2c8 .cfa: x29 32 + x19: .cfa -16 + ^ .ra: .cfa -24 + ^ x29: .cfa -32 + ^
STACK CFI 2c2e4 .cfa: sp 32 +
STACK CFI 2c2ec .cfa: sp 0 +
STACK CFI 2c2f0 .cfa: x29 32 +
STACK CFI 2c314 .cfa: sp 32 +
STACK CFI 2c31c .cfa: sp 0 +
STACK CFI INIT 2c46c 570 .cfa: sp 0 +
STACK CFI 2c470 .cfa: sp 176 +
STACK CFI 2c484 .cfa: x29 64 + x19: .cfa -8 + ^ x20: .cfa -16 + ^ x21: .cfa -24 + ^ x22: .cfa -32 + ^ x23: .cfa -40 + ^ x24: .cfa -48 + ^ .ra: .cfa -56 + ^ x29: .cfa -64 + ^
STACK CFI 2c6b4 .cfa: sp 176 +
STACK CFI 2c6c8 .cfa: sp 0 +
STACK CFI 2c6cc .cfa: x29 64 +
STACK CFI 2c718 .cfa: sp 176 +
STACK CFI 2c72c .cfa: sp 0 +
STACK CFI 2c730 .cfa: x29 64 +
STACK CFI 2c768 .cfa: sp 176 +
STACK CFI 2c77c .cfa: sp 0 +
STACK CFI 2c780 .cfa: x29 64 +
STACK CFI 2c798 .cfa: sp 176 +
STACK CFI 2c7ac .cfa: sp 0 +
STACK CFI 2c7b0 .cfa: x29 64 +
STACK CFI 2c7d0 .cfa: sp 176 +
STACK CFI 2c7e4 .cfa: sp 0 +
STACK CFI 2c7e8 .cfa: x29 64 +
STACK CFI 2c800 .cfa: sp 176 +
STACK CFI 2c814 .cfa: sp 0 +
STACK CFI 2c818 .cfa: x29 64 +
STACK CFI 2c82c .cfa: sp 176 +
STACK CFI 2c840 .cfa: sp 0 +
STACK CFI 2c844 .cfa: x29 64 +
STACK CFI 2c858 .cfa: sp 176 +
STACK CFI 2c86c .cfa: sp 0 +
STACK CFI 2c870 .cfa: x29 64 +
STACK CFI 2c880 .cfa: sp 176 +
STACK CFI 2c894 .cfa: sp 0 +
STACK CFI 2c898 .cfa: x29 64 +
STACK CFI 2c8a8 .cfa: sp 176 +
STACK CFI 2c8bc .cfa: sp 0 +
STACK CFI 2c8c0 .cfa: x29 64 +
STACK CFI 2c8d8 .cfa: sp 176 +
STACK CFI 2c8ec .cfa: sp 0 +
STACK CFI 2c8f0 .cfa: x29 64 +
STACK CFI 2c904 .cfa: sp 176 +
STACK CFI 2c918 .cfa: sp 0 +
STACK CFI 2c91c .cfa: x29 64 +
STACK CFI 2c934 .cfa: sp 176 +
STACK CFI 2c948 .cfa: sp 0 +
STACK CFI 2c94c .cfa: x29 64 +
STACK CFI 2c978 .cfa: sp 176 +
STACK CFI 2c98c .cfa: sp 0 +
STACK CFI 2c990 .cfa: x29 64 +
STACK CFI 2c9a4 .cfa: sp 176 +
STACK CFI 2c9b8 .cfa: sp 0 +
STACK CFI 2c9bc .cfa: x29 64 +
STACK CFI INIT 2c9dc 228 .cfa: sp 0 +
STACK CFI INIT 2cc04 2dc .cfa: sp 0 +
STACK CFI INIT 2cee0 53c .cfa: sp 0 +
STACK CFI INIT 2d41c 78 .cfa: sp 0 +
STACK CFI 2d420 .cfa: sp 48 +
STACK CFI 2d42c .cfa: x29 48 + x19: .cfa -8 + ^ x20: .cfa -16 + ^ x21: .cfa -24 + ^ x22: .cfa -32 + ^ .ra: .cfa -40 + ^ x29: .cfa -48 + ^
STACK CFI 2d474 .cfa: sp 48 +
STACK CFI 2d480 .cfa: sp 0 +
STACK CFI 2d484 .cfa: sp 48 +
STACK CFI 2d490 .cfa: sp 0 +
STACK CFI INIT 2d494 8c .cfa: sp 0 +
STACK CFI 2d498 .cfa: sp 32 +
STACK CFI 2d4a0 .cfa: x29 32 + x19: .cfa -16 + ^ .ra: .cfa -24 + ^ x29: .cfa -32 + ^
STACK CFI 2d4d4 .cfa: sp 32 +
STACK CFI 2d4dc .cfa: sp 0 +
STACK CFI 2d4e0 .cfa: x29 32 +
STACK CFI 2d514 .cfa: sp 32 +
STACK CFI 2d51c .cfa: sp 0 +
STACK CFI INIT 2d520 24 .cfa: sp 0 +
STACK CFI 2d524 .cfa: sp 32 +
STACK CFI 2d52c .cfa: x29 32 + x19: .cfa -16 + ^ .ra: .cfa -24 + ^ x29: .cfa -32 + ^
STACK CFI 2d538 .cfa: sp 32 +
STACK CFI 2d540 .cfa: sp 0 +
STACK CFI INIT 2d544 150 .cfa: sp 0 +
STACK CFI 2d548 .cfa: sp 48 +
STACK CFI 2d554 .cfa: x29 48 + x19: .cfa -8 + ^ x20: .cfa -16 + ^ x21: .cfa -24 + ^ x22: .cfa -32 + ^ .ra: .cfa -40 + ^ x29: .cfa -48 + ^
STACK CFI 2d684 .cfa: sp 48 +
STACK CFI 2d690 .cfa: sp 0 +
STACK CFI INIT 2d694 68 .cfa: sp 0 +
STACK CFI 2d698 .cfa: sp 64 +
STACK CFI 2d6a4 .cfa: x29 32 + x19: .cfa -16 + ^ .ra: .cfa -24 + ^ x29: .cfa -32 + ^
STACK CFI 2d6e8 .cfa: sp 64 +
STACK CFI 2d6f4 .cfa: sp 0 +
STACK CFI 2d6f8 .cfa: x29 32 +
STACK CFI INIT 2d6fc 90 .cfa: sp 0 +
STACK CFI 2d700 .cfa: sp 32 +
STACK CFI 2d708 .cfa: x29 32 + x19: .cfa -8 + ^ x20: .cfa -16 + ^ .ra: .cfa -24 + ^ x29: .cfa -32 + ^
STACK CFI 2d734 .cfa: sp 32 +
STACK CFI 2d73c .cfa: sp 0 +
STACK CFI 2d740 .cfa: x29 32 +
STACK CFI 2d780 .cfa: sp 32 +
STACK CFI 2d788 .cfa: sp 0 +
STACK CFI INIT 2d78c ec .cfa: sp 0 +
STACK CFI 2d790 .cfa: sp 112 +
STACK CFI 2d7a0 .cfa: x29 48 + x19: .cfa -8 + ^ x20: .cfa -16 + ^ x21: .cfa -32 + ^ .ra: .cfa -40 + ^ x29: .cfa -48 + ^
STACK CFI 2d860 .cfa: sp 112 +
STACK CFI 2d870 .cfa: sp 0 +
STACK CFI 2d874 .cfa: x29 48 +
STACK CFI INIT 2d878 ec .cfa: sp 0 +
STACK CFI 2d87c .cfa: sp 112 +
STACK CFI 2d88c .cfa: x29 48 + x19: .cfa -8 + ^ x20: .cfa -16 + ^ x21: .cfa -32 + ^ .ra: .cfa -40 + ^ x29: .cfa -48 + ^
STACK CFI 2d94c .cfa: sp 112 +
STACK CFI 2d95c .cfa: sp 0 +
STACK CFI 2d960 .cfa: x29 48 +
STACK CFI INIT 2d964 48 .cfa: sp 0 +
STACK CFI 2d968 .cfa: sp 32 +
STACK CFI 2d970 .cfa: x29 32 + x19: .cfa -8 + ^ x20: .cfa -16 + ^ .ra: .cfa -24 + ^ x29: .cfa -32 + ^
STACK CFI 2d994 .cfa: sp 32 +
STACK CFI 2d99c .cfa: sp 0 +
STACK CFI 2d9a0 .cfa: x29 32 +
STACK CFI INIT 2d9ac 98 .cfa: sp 0 +
STACK CFI 2d9b0 .cfa: sp 80 +
STACK CFI 2d9bc .cfa: x29 32 + x19: .cfa -16 + ^ .ra: .cfa -24 + ^ x29: .cfa -32 + ^
STACK CFI 2da30 .cfa: sp 80 +
STACK CFI 2da3c .cfa: sp 0 +
STACK CFI 2da40 .cfa: x29 32 +
STACK CFI INIT 2da44 260 .cfa: sp 0 +
STACK CFI 2da48 .cfa: sp 112 +
STACK CFI 2da60 .cfa: x29 80 + x19: .cfa -8 + ^ x20: .cfa -16 + ^ x21: .cfa -24 + ^ x22: .cfa -32 + ^ x23: .cfa -40 + ^ x24: .cfa -48 + ^ x25: .cfa -64 + ^ .ra: .cfa -72 + ^ x29: .cfa -80 + ^
STACK CFI 2dc44 .cfa: sp 112 +
STACK CFI 2dc5c .cfa: sp 0 +
STACK CFI 2dc60 .cfa: x29 80 +
STACK CFI INIT 2dca4 150 .cfa: sp 0 +
STACK CFI 2dca8 .cfa: sp 48 +
STACK CFI 2dcb4 .cfa: x29 48 + x19: .cfa -8 + ^ x20: .cfa -16 + ^ x21: .cfa -24 + ^ x22: .cfa -32 + ^ .ra: .cfa -40 + ^ x29: .cfa -48 + ^
STACK CFI 2dde4 .cfa: sp 48 +
STACK CFI 2ddf0 .cfa: sp 0 +
STACK CFI INIT 2ddf4 1e0 .cfa: sp 0 +
STACK CFI 2ddf8 .cfa: sp 96 +
STACK CFI 2de0c .cfa: x29 64 + x19: .cfa -8 + ^ x20: .cfa -16 + ^ x21: .cfa -24 + ^ x22: .cfa -32 + ^ x23: .cfa -40 + ^ x24: .cfa -48 + ^ .ra: .cfa -56 + ^ x29: .cfa -64 + ^
STACK CFI 2df8c .cfa: sp 96 +
STACK CFI 2dfa0 .cfa: sp 0 +
STACK CFI 2dfa4 .cfa: x29 64 +
STACK CFI INIT 2dfd4 284 .cfa: sp 0 +
STACK CFI 2dfd8 .cfa: sp 112 +
STACK CFI 2dff0 .cfa: x29 80 + x19: .cfa -8 + ^ x20: .cfa -16 + ^ x21: .cfa -24 + ^ x22: .cfa -32 + ^ x23: .cfa -40 + ^ x24: .cfa -48 + ^ x25: .cfa -64 + ^ .ra: .cfa -72 + ^ x29: .cfa -80 + ^
STACK CFI 2e1f8 .cfa: sp 112 +
STACK CFI 2e210 .cfa: sp 0 +
STACK CFI 2e214 .cfa: x29 80 +
STACK CFI INIT 2e258 208 .cfa: sp 0 +
STACK CFI 2e25c .cfa: sp 96 +
STACK CFI 2e270 .cfa: x29 64 + x19: .cfa -8 + ^ x20: .cfa -16 + ^ x21: .cfa -24 + ^ x22: .cfa -32 + ^ x23: .cfa -40 + ^ x24: .cfa -48 + ^ .ra: .cfa -56 + ^ x29: .cfa -64 + ^
STACK CFI 2e418 .cfa: sp 96 +
STACK CFI 2e42c .cfa: sp 0 +
STACK CFI 2e430 .cfa: x29 64 +
STACK CFI INIT 2e460 360 .cfa: sp 0 +
STACK CFI 2e464 .cfa: sp 160 +
STACK CFI 2e480 .cfa: x29 96 + x19: .cfa -8 + ^ x20: .cfa -16 + ^ x21: .cfa -24 + ^ x22: .cfa -32 + ^ x23: .cfa -40 + ^ x24: .cfa -48 + ^ x25: .cfa -56 + ^ x26: .cfa -64 + ^ x27: .cfa -72 + ^ x28: .cfa -80 + ^ .ra: .cfa -88 + ^ x29: .cfa -96 + ^
STACK CFI 2e74c .cfa: sp 160 +
STACK CFI 2e768 .cfa: sp 0 +
STACK CFI 2e76c .cfa: x29 96 +
STACK CFI INIT 2e7c0 314 .cfa: sp 0 +
STACK CFI 2e7c4 .cfa: sp 144 +
STACK CFI 2e7e0 .cfa: x29 96 + x19: .cfa -8 + ^ x20: .cfa -16 + ^ x21: .cfa -24 + ^ x22: .cfa -32 + ^ x23: .cfa -40 + ^ x24: .cfa -48 + ^ x25: .cfa -56 + ^ x26: .cfa -64 + ^ x27: .cfa -72 + ^ x28: .cfa -80 + ^ .ra: .cfa -88 + ^ x29: .cfa -96 + ^
STACK CFI 2ea5c .cfa: sp 144 +
STACK CFI 2ea78 .cfa: sp 0 +
STACK CFI 2ea7c .cfa: x29 96 +
STACK CFI INIT 2ead4 290 .cfa: sp 0 +
STACK CFI 2ead8 .cfa: sp 128 +
STACK CFI 2eaf0 .cfa: x29 80 + x19: .cfa -8 + ^ x20: .cfa -16 + ^ x21: .cfa -24 + ^ x22: .cfa -32 + ^ x23: .cfa -40 + ^ x24: .cfa -48 + ^ x25: .cfa -56 + ^ x26: .cfa -64 + ^ .ra: .cfa -72 + ^ x29: .cfa -80 + ^
STACK CFI 2ed44 .cfa: sp 128 +
STACK CFI 2ed5c .cfa: sp 0 +
STACK CFI 2ed60 .cfa: x29 80 +
STACK CFI INIT 2ed64 dc8 .cfa: sp 0 +
STACK CFI 2ed68 .cfa: sp 144 +
STACK CFI 2ed84 .cfa: x29 96 + x19: .cfa -8 + ^ x20: .cfa -16 + ^ x21: .cfa -24 + ^ x22: .cfa -32 + ^ x23: .cfa -40 + ^ x24: .cfa -48 + ^ x25: .cfa -56 + ^ x26: .cfa -64 + ^ x27: .cfa -72 + ^ x28: .cfa -80 + ^ .ra: .cfa -88 + ^ x29: .cfa -96 + ^
STACK CFI 2fa04 .cfa: sp 144 +
STACK CFI 2fa20 .cfa: sp 0 +
STACK CFI 2fa24 .cfa: x29 96 +
STACK CFI INIT 2fb2c 1d0 .cfa: sp 0 +
STACK CFI 2fb30 .cfa: sp 80 +
STACK CFI 2fb44 .cfa: x29 80 + x19: .cfa -8 + ^ x20: .cfa -16 + ^ x21: .cfa -24 + ^ x22: .cfa -32 + ^ x23: .cfa -40 + ^ x24: .cfa -48 + ^ x25: .cfa -64 + ^ .ra: .cfa -72 + ^ x29: .cfa -80 + ^
STACK CFI 2fce4 .cfa: sp 80 +
STACK CFI 2fcf8 .cfa: sp 0 +
STACK CFI INIT 2fcfc 23c .cfa: sp 0 +
STACK CFI 2fd00 .cfa: sp 112 +
STACK CFI 2fd14 .cfa: x29 64 + x19: .cfa -8 + ^ x20: .cfa -16 + ^ x21: .cfa -24 + ^ x22: .cfa -32 + ^ x23: .cfa -40 + ^ x24: .cfa -48 + ^ .ra: .cfa -56 + ^ x29: .cfa -64 + ^
STACK CFI 2fef0 .cfa: sp 112 +
STACK CFI 2ff04 .cfa: sp 0 +
STACK CFI 2ff08 .cfa: x29 64 +
STACK CFI INIT 2ff38 30c .cfa: sp 0 +
STACK CFI 2ff3c .cfa: sp 80 +
STACK CFI 2ff50 .cfa: x29 64 + x19: .cfa -8 + ^ x20: .cfa -16 + ^ x21: .cfa -24 + ^ x22: .cfa -32 + ^ x23: .cfa -40 + ^ x24: .cfa -48 + ^ .ra: .cfa -56 + ^ x29: .cfa -64 + ^
STACK CFI 300cc .cfa: sp 80 +
STACK CFI 300e0 .cfa: sp 0 +
STACK CFI 300e4 .cfa: x29 64 +
STACK CFI INIT 30244 178 .cfa: sp 0 +
STACK CFI 30248 .cfa: sp 80 +
STACK CFI 3025c .cfa: x29 64 + x19: .cfa -8 + ^ x20: .cfa -16 + ^ x21: .cfa -24 + ^ x22: .cfa -32 + ^ x23: .cfa -40 + ^ x24: .cfa -48 + ^ .ra: .cfa -56 + ^ x29: .cfa -64 + ^
STACK CFI 303a0 .cfa: sp 80 +
STACK CFI 303b4 .cfa: sp 0 +
STACK CFI 303b8 .cfa: x29 64 +
STACK CFI INIT 303bc 178 .cfa: sp 0 +
STACK CFI 303c0 .cfa: sp 80 +
STACK CFI 303d4 .cfa: x29 64 + x19: .cfa -8 + ^ x20: .cfa -16 + ^ x21: .cfa -24 + ^ x22: .cfa -32 + ^ x23: .cfa -40 + ^ x24: .cfa -48 + ^ .ra: .cfa -56 + ^ x29: .cfa -64 + ^
STACK CFI 30518 .cfa: sp 80 +
STACK CFI 3052c .cfa: sp 0 +
STACK CFI 30530 .cfa: x29 64 +
STACK CFI INIT 30534 240 .cfa: sp 0 +
STACK CFI 30538 .cfa: sp 96 +
STACK CFI 30550 .cfa: x29 96 + x19: .cfa -8 + ^ x20: .cfa -16 + ^ x21: .cfa -24 + ^ x22: .cfa -32 + ^ x23: .cfa -40 + ^ x24: .cfa -48 + ^ x25: .cfa -56 + ^ x26: .cfa -64 + ^ x27: .cfa -72 + ^ x28: .cfa -80 + ^ .ra: .cfa -88 + ^ x29: .cfa -96 + ^
STACK CFI 30758 .cfa: sp 96 +
STACK CFI 30770 .cfa: sp 0 +
STACK CFI INIT 313e8 154 .cfa: sp 0 +
STACK CFI 313ec .cfa: sp 96 +
STACK CFI 31400 .cfa: x29 64 + x19: .cfa -8 + ^ x20: .cfa -16 + ^ x21: .cfa -24 + ^ x22: .cfa -32 + ^ x23: .cfa -48 + ^ .ra: .cfa -56 + ^ x29: .cfa -64 + ^
STACK CFI 314e0 .cfa: sp 96 +
STACK CFI 314f4 .cfa: sp 0 +
STACK CFI 314f8 .cfa: x29 64 +
STACK CFI INIT 317a4 44 .cfa: sp 0 +
STACK CFI 317a8 .cfa: sp 32 +
STACK CFI 317b0 .cfa: x29 32 + x19: .cfa -16 + ^ .ra: .cfa -24 + ^ x29: .cfa -32 + ^
STACK CFI 317cc .cfa: sp 32 +
STACK CFI 317d4 .cfa: sp 0 +
STACK CFI 317d8 .cfa: x29 32 +
STACK CFI 317dc .cfa: sp 32 +
STACK CFI 317e4 .cfa: sp 0 +
STACK CFI INIT 317e8 1d0 .cfa: sp 0 +
STACK CFI 317ec .cfa: sp 64 +
STACK CFI 317fc .cfa: x29 64 + x19: .cfa -8 + ^ x20: .cfa -16 + ^ x21: .cfa -24 + ^ x22: .cfa -32 + ^ x23: .cfa -40 + ^ x24: .cfa -48 + ^ .ra: .cfa -56 + ^ x29: .cfa -64 + ^
STACK CFI 318bc .cfa: sp 64 +
STACK CFI 318cc .cfa: sp 0 +
STACK CFI 318d0 .cfa: x29 64 +
STACK CFI INIT 319b8 17c .cfa: sp 0 +
STACK CFI INIT 31b34 ac .cfa: sp 0 +
STACK CFI 31b38 .cfa: sp 64 +
STACK CFI 31b48 .cfa: x29 64 + x19: .cfa -8 + ^ x20: .cfa -16 + ^ x21: .cfa -24 + ^ x22: .cfa -32 + ^ x23: .cfa -48 + ^ .ra: .cfa -56 + ^ x29: .cfa -64 + ^
STACK CFI 31bc4 .cfa: sp 64 +
STACK CFI 31bd4 .cfa: sp 0 +
STACK CFI 31bd8 .cfa: x29 64 +
STACK CFI INIT 31be0 13c .cfa: sp 0 +
STACK CFI 31be4 .cfa: sp 64 +
STACK CFI 31bf4 .cfa: x29 64 + x19: .cfa -8 + ^ x20: .cfa -16 + ^ x21: .cfa -24 + ^ x22: .cfa -32 + ^ x23: .cfa -40 + ^ x24: .cfa -48 + ^ .ra: .cfa -56 + ^ x29: .cfa -64 + ^
STACK CFI 31cd4 .cfa: sp 64 +
STACK CFI 31ce4 .cfa: sp 0 +
STACK CFI 31ce8 .cfa: x29 64 +
STACK CFI INIT 320d4 a0 .cfa: sp 0 +
STACK CFI 320d8 .cfa: sp 48 +
STACK CFI 320e4 .cfa: x29 48 + x19: .cfa -8 + ^ x20: .cfa -16 + ^ x21: .cfa -24 + ^ x22: .cfa -32 + ^ .ra: .cfa -40 + ^ x29: .cfa -48 + ^
STACK CFI 32150 .cfa: sp 48 +
STACK CFI 3215c .cfa: sp 0 +
STACK CFI 32160 .cfa: sp 48 +
STACK CFI 3216c .cfa: sp 0 +
STACK CFI 32170 .cfa: x29 48 +
STACK CFI INIT 32e24 158 .cfa: sp 0 +
STACK CFI 32e28 .cfa: sp 96 +
STACK CFI 32e3c .cfa: x29 64 + x19: .cfa -8 + ^ x20: .cfa -16 + ^ x21: .cfa -24 + ^ x22: .cfa -32 + ^ x23: .cfa -48 + ^ .ra: .cfa -56 + ^ x29: .cfa -64 + ^
STACK CFI 32f20 .cfa: sp 96 +
STACK CFI 32f34 .cfa: sp 0 +
STACK CFI 32f38 .cfa: x29 64 +
STACK CFI INIT 32f7c 190 .cfa: sp 0 +
STACK CFI INIT 33bf0 1dc .cfa: sp 0 +
STACK CFI 33bf4 .cfa: sp 80 +
STACK CFI 33c08 .cfa: x29 80 + x19: .cfa -8 + ^ x20: .cfa -16 + ^ x21: .cfa -24 + ^ x22: .cfa -32 + ^ x23: .cfa -40 + ^ x24: .cfa -48 + ^ x25: .cfa -64 + ^ .ra: .cfa -72 + ^ x29: .cfa -80 + ^
STACK CFI 33db4 .cfa: sp 80 +
STACK CFI 33dc8 .cfa: sp 0 +
STACK CFI INIT 351f0 124 .cfa: sp 0 +
STACK CFI 35220 .cfa: sp 32 +
STACK CFI 35228 .cfa: x29 32 + x19: .cfa -8 + ^ x20: .cfa -16 + ^ .ra: .cfa -24 + ^ x29: .cfa -32 + ^
STACK CFI 35308 .cfa: sp 32 +
STACK CFI 35310 .cfa: sp 0 +
STACK CFI INIT 35a70 324 .cfa: sp 0 +
STACK CFI 35a74 .cfa: sp 64 +
STACK CFI 35a84 .cfa: x29 64 + x19: .cfa -8 + ^ x20: .cfa -16 + ^ x21: .cfa -24 + ^ x22: .cfa -32 + ^ x23: .cfa -40 + ^ x24: .cfa -48 + ^ .ra: .cfa -56 + ^ x29: .cfa -64 + ^
STACK CFI 35b00 .cfa: sp 64 +
STACK CFI 35b10 .cfa: sp 0 +
STACK CFI 35b14 .cfa: x29 64 +
STACK CFI 35cec .cfa: sp 64 +
STACK CFI 35cfc .cfa: sp 0 +
STACK CFI 35d00 .cfa: x29 64 +
STACK CFI 35d10 .cfa: sp 64 +
STACK CFI 35d20 .cfa: sp 0 +
STACK CFI 35d24 .cfa: x29 64 +
STACK CFI INIT 35d94 a0 .cfa: sp 0 +
STACK CFI 35d98 .cfa: sp 48 +
STACK CFI 35da4 .cfa: x29 48 + x19: .cfa -8 + ^ x20: .cfa -16 + ^ x21: .cfa -24 + ^ x22: .cfa -32 + ^ .ra: .cfa -40 + ^ x29: .cfa -48 + ^
STACK CFI 35e10 .cfa: sp 48 +
STACK CFI 35e1c .cfa: sp 0 +
STACK CFI 35e20 .cfa: sp 48 +
STACK CFI 35e2c .cfa: sp 0 +
STACK CFI 35e30 .cfa: x29 48 +
STACK CFI INIT 36ce0 160 .cfa: sp 0 +
STACK CFI 36ce4 .cfa: sp 64 +
STACK CFI 36cf4 .cfa: x29 64 + x19: .cfa -8 + ^ x20: .cfa -16 + ^ x21: .cfa -24 + ^ x22: .cfa -32 + ^ x23: .cfa -48 + ^ .ra: .cfa -56 + ^ x29: .cfa -64 + ^
STACK CFI 36dec .cfa: sp 64 +
STACK CFI 36dfc .cfa: sp 0 +
STACK CFI 36e00 .cfa: x29 64 +
STACK CFI INIT 36e40 214 .cfa: sp 0 +
STACK CFI 36e44 .cfa: sp 128 +
STACK CFI 36e60 .cfa: x29 96 + x19: .cfa -8 + ^ x20: .cfa -16 + ^ x21: .cfa -24 + ^ x22: .cfa -32 + ^ x23: .cfa -40 + ^ x24: .cfa -48 + ^ x25: .cfa -56 + ^ x26: .cfa -64 + ^ x27: .cfa -80 + ^ .ra: .cfa -88 + ^ x29: .cfa -96 + ^
STACK CFI 36fdc .cfa: sp 128 +
STACK CFI 36ff8 .cfa: sp 0 +
STACK CFI 36ffc .cfa: x29 96 +
STACK CFI INIT 38cb8 290 .cfa: sp 0 +
STACK CFI 38cbc .cfa: sp 16 +
STACK CFI 38cc0 .cfa: x29 16 + .ra: .cfa -8 + ^ x29: .cfa -16 + ^
STACK CFI 38d4c .cfa: sp 16 +
STACK CFI 38d50 .cfa: sp 0 +
STACK CFI 38d54 .cfa: x29 16 +
STACK CFI 38da4 .cfa: sp 16 +
STACK CFI 38da8 .cfa: sp 0 +
STACK CFI 38dac .cfa: x29 16 +
STACK CFI 38f10 .cfa: sp 16 +
STACK CFI 38f14 .cfa: sp 0 +
STACK CFI 38f18 .cfa: x29 16 +
STACK CFI INIT 38f48 134 .cfa: sp 0 +
STACK CFI 38f4c .cfa: sp 96 +
STACK CFI 38f64 .cfa: x29 96 + x19: .cfa -8 + ^ x20: .cfa -16 + ^ x21: .cfa -24 + ^ x22: .cfa -32 + ^ x23: .cfa -40 + ^ x24: .cfa -48 + ^ x25: .cfa -56 + ^ x26: .cfa -64 + ^ x27: .cfa -72 + ^ x28: .cfa -80 + ^ .ra: .cfa -88 + ^ x29: .cfa -96 + ^
STACK CFI 39034 .cfa: sp 96 +
STACK CFI 39038 .cfa: x29 96 +
STACK CFI 3903c .cfa: sp 96 +
STACK CFI 39054 .cfa: sp 0 +
STACK CFI 39058 .cfa: x29 96 +
STACK CFI 39078 .cfa: sp 96 +
STACK CFI INIT 3907c e4c .cfa: sp 0 +
STACK CFI 39080 .cfa: sp 192 +
STACK CFI 3909c .cfa: x29 96 + x19: .cfa -8 + ^ x20: .cfa -16 + ^ x21: .cfa -24 + ^ x22: .cfa -32 + ^ x23: .cfa -40 + ^ x24: .cfa -48 + ^ x25: .cfa -56 + ^ x26: .cfa -64 + ^ x27: .cfa -72 + ^ x28: .cfa -80 + ^ .ra: .cfa -88 + ^ x29: .cfa -96 + ^
STACK CFI 39db0 .cfa: sp 192 +
STACK CFI 39dcc .cfa: sp 0 +
STACK CFI 39dd0 .cfa: x29 96 +
STACK CFI INIT 39ec8 1068 .cfa: sp 0 +
STACK CFI 39ecc .cfa: sp 288 +
STACK CFI 39ee8 .cfa: x29 96 + x19: .cfa -8 + ^ x20: .cfa -16 + ^ x21: .cfa -24 + ^ x22: .cfa -32 + ^ x23: .cfa -40 + ^ x24: .cfa -48 + ^ x25: .cfa -56 + ^ x26: .cfa -64 + ^ x27: .cfa -72 + ^ x28: .cfa -80 + ^ .ra: .cfa -88 + ^ x29: .cfa -96 + ^
STACK CFI 3ac78 .cfa: sp 288 +
STACK CFI 3ac94 .cfa: sp 0 +
STACK CFI 3ac98 .cfa: x29 96 +
STACK CFI INIT 3af30 520 .cfa: sp 0 +
STACK CFI 3af34 .cfa: sp 144 +
STACK CFI 3af50 .cfa: x29 96 + x19: .cfa -8 + ^ x20: .cfa -16 + ^ x21: .cfa -24 + ^ x22: .cfa -32 + ^ x23: .cfa -40 + ^ x24: .cfa -48 + ^ x25: .cfa -56 + ^ x26: .cfa -64 + ^ x27: .cfa -72 + ^ x28: .cfa -80 + ^ .ra: .cfa -88 + ^ x29: .cfa -96 + ^
STACK CFI 3b42c .cfa: sp 144 +
STACK CFI 3b448 .cfa: sp 0 +
STACK CFI 3b44c .cfa: x29 96 +
STACK CFI INIT 3be9c 12dc .cfa: sp 0 +
STACK CFI 3bea0 .cfa: sp 208 +
STACK CFI 3bebc .cfa: x29 96 + x19: .cfa -8 + ^ x20: .cfa -16 + ^ x21: .cfa -24 + ^ x22: .cfa -32 + ^ x23: .cfa -40 + ^ x24: .cfa -48 + ^ x25: .cfa -56 + ^ x26: .cfa -64 + ^ x27: .cfa -72 + ^ x28: .cfa -80 + ^ .ra: .cfa -88 + ^ x29: .cfa -96 + ^
STACK CFI 3d154 .cfa: sp 208 +
STACK CFI 3d170 .cfa: sp 0 +
STACK CFI 3d174 .cfa: x29 96 +
STACK CFI INIT 3d178 1b8 .cfa: sp 0 +
STACK CFI INIT 1e930 138 .cfa: sp 0 +
STACK CFI 1e934 .cfa: sp 80 +
STACK CFI 1e944 .cfa: x29 48 + x19: .cfa -8 + ^ x20: .cfa -16 + ^ x21: .cfa -32 + ^ .ra: .cfa -40 + ^ x29: .cfa -48 + ^
STACK CFI 1ea2c .cfa: sp 80 +
STACK CFI 1ea3c .cfa: sp 0 +
STACK CFI 1ea40 .cfa: x29 48 +
STACK CFI INIT 1ea68 12a4 .cfa: sp 0 +
STACK CFI 1ea6c .cfa: sp 384 +
STACK CFI 1ea80 .cfa: x29 64 + x19: .cfa -8 + ^ x20: .cfa -16 + ^ x21: .cfa -24 + ^ x22: .cfa -32 + ^ x23: .cfa -40 + ^ x28: .cfa -48 + ^ .ra: .cfa -56 + ^ x29: .cfa -64 + ^
STACK CFI 1fb98 .cfa: sp 384 +
STACK CFI 1fbac .cfa: sp 0 +
STACK CFI 1fbb0 .cfa: x29 64 +
STACK CFI INIT 1fd0c 388 .cfa: sp 0 +
STACK CFI 1fd10 .cfa: sp 192 +
STACK CFI 1fd28 .cfa: x29 80 + x19: .cfa -8 + ^ x20: .cfa -16 + ^ x21: .cfa -24 + ^ x22: .cfa -32 + ^ x23: .cfa -40 + ^ x24: .cfa -48 + ^ x25: .cfa -56 + ^ x26: .cfa -64 + ^ .ra: .cfa -72 + ^ x29: .cfa -80 + ^
STACK CFI 1ff98 .cfa: sp 192 +
STACK CFI 1ffb0 .cfa: sp 0 +
STACK CFI 1ffb4 .cfa: x29 80 +
STACK CFI INIT 20094 344 .cfa: sp 0 +
STACK CFI 20098 .cfa: sp 176 +
STACK CFI 200b0 .cfa: x29 80 + x19: .cfa -8 + ^ x20: .cfa -16 + ^ x21: .cfa -24 + ^ x22: .cfa -32 + ^ x23: .cfa -40 + ^ x24: .cfa -48 + ^ x25: .cfa -56 + ^ x26: .cfa -64 + ^ .ra: .cfa -72 + ^ x29: .cfa -80 + ^
STACK CFI 20318 .cfa: sp 176 +
STACK CFI 20330 .cfa: sp 0 +
STACK CFI 20334 .cfa: x29 80 +
STACK CFI INIT 203d8 3bc .cfa: sp 0 +
STACK CFI 203dc .cfa: sp 176 +
STACK CFI 203f4 .cfa: x29 80 + x19: .cfa -8 + ^ x20: .cfa -16 + ^ x21: .cfa -24 + ^ x22: .cfa -32 + ^ x23: .cfa -40 + ^ x24: .cfa -48 + ^ x25: .cfa -56 + ^ x26: .cfa -64 + ^ .ra: .cfa -72 + ^ x29: .cfa -80 + ^
STACK CFI 206d4 .cfa: sp 176 +
STACK CFI 206ec .cfa: sp 0 +
STACK CFI 206f0 .cfa: x29 80 +
STACK CFI INIT 20794 4e4 .cfa: sp 0 +
STACK CFI 20798 .cfa: sp 288 +
STACK CFI 207b0 .cfa: x29 64 + x19: .cfa -8 + ^ x20: .cfa -16 + ^ x21: .cfa -24 + ^ x22: .cfa -32 + ^ x23: .cfa -40 + ^ x28: .cfa -48 + ^ .ra: .cfa -56 + ^ x29: .cfa -64 + ^ v8: .cfa -80 + ^
STACK CFI 20b44 .cfa: sp 288 +
STACK CFI 20b5c .cfa: sp 0 +
STACK CFI 20b60 .cfa: x29 64 +
STACK CFI INIT 20c78 3c8 .cfa: sp 0 +
STACK CFI 20c7c .cfa: sp 224 +
STACK CFI 20c90 .cfa: x29 64 + x19: .cfa -8 + ^ x20: .cfa -16 + ^ x21: .cfa -24 + ^ x22: .cfa -32 + ^ x23: .cfa -48 + ^ .ra: .cfa -56 + ^ x29: .cfa -64 + ^
STACK CFI 20f4c .cfa: sp 224 +
STACK CFI 20f60 .cfa: sp 0 +
STACK CFI 20f64 .cfa: x29 64 +
STACK CFI INIT 21040 504 .cfa: sp 0 +
STACK CFI 21044 .cfa: sp 192 +
STACK CFI 21058 .cfa: x29 64 + x19: .cfa -8 + ^ x20: .cfa -16 + ^ x21: .cfa -24 + ^ x22: .cfa -32 + ^ x23: .cfa -48 + ^ .ra: .cfa -56 + ^ x29: .cfa -64 + ^
STACK CFI 213b4 .cfa: sp 192 +
STACK CFI 213c8 .cfa: sp 0 +
STACK CFI 213cc .cfa: x29 64 +
STACK CFI INIT 21544 13c .cfa: sp 0 +
STACK CFI 21548 .cfa: sp 128 +
STACK CFI 2155c .cfa: x29 64 + x19: .cfa -8 + ^ x20: .cfa -16 + ^ x21: .cfa -24 + ^ x22: .cfa -32 + ^ x23: .cfa -48 + ^ .ra: .cfa -56 + ^ x29: .cfa -64 + ^
STACK CFI 21614 .cfa: sp 128 +
STACK CFI 21628 .cfa: sp 0 +
STACK CFI 2162c .cfa: x29 64 +
STACK CFI INIT 216fc d0 .cfa: sp 0 +
STACK CFI 21700 .cfa: sp 32 +
STACK CFI 21708 .cfa: x29 32 + x19: .cfa -16 + ^ .ra: .cfa -24 + ^ x29: .cfa -32 + ^
STACK CFI 217b8 .cfa: sp 32 +
STACK CFI 217c0 .cfa: sp 0 +
STACK CFI 217c4 .cfa: x29 32 +
STACK CFI INIT 21898 134 .cfa: sp 0 +
STACK CFI 2189c .cfa: sp 96 +
STACK CFI 218ac .cfa: x29 48 + x19: .cfa -8 + ^ x20: .cfa -16 + ^ x21: .cfa -32 + ^ .ra: .cfa -40 + ^ x29: .cfa -48 + ^
STACK CFI 21980 .cfa: sp 96 +
STACK CFI 21990 .cfa: sp 0 +
STACK CFI 21994 .cfa: x29 48 +
STACK CFI INIT 21a14 6c .cfa: sp 0 +
STACK CFI 21a18 .cfa: sp 32 +
STACK CFI 21a20 .cfa: x29 32 + x19: .cfa -16 + ^ .ra: .cfa -24 + ^ x29: .cfa -32 + ^
STACK CFI 21a70 .cfa: sp 32 +
STACK CFI 21a78 .cfa: sp 0 +
STACK CFI 21a7c .cfa: x29 32 +
STACK CFI INIT 21a84 6c .cfa: sp 0 +
STACK CFI 21a88 .cfa: sp 32 +
STACK CFI 21a90 .cfa: x29 32 + x19: .cfa -16 + ^ .ra: .cfa -24 + ^ x29: .cfa -32 + ^
STACK CFI 21ae0 .cfa: sp 32 +
STACK CFI 21ae8 .cfa: sp 0 +
STACK CFI 21aec .cfa: x29 32 +
STACK CFI INIT 21b08 50 .cfa: sp 0 +
STACK CFI 21b0c .cfa: sp 32 +
STACK CFI 21b14 .cfa: x29 32 + x19: .cfa -8 + ^ x20: .cfa -16 + ^ .ra: .cfa -24 + ^ x29: .cfa -32 + ^
STACK CFI INIT 21ec8 120 .cfa: sp 0 +
STACK CFI 21ecc .cfa: sp 64 +
STACK CFI 21ed8 .cfa: x29 32 + x19: .cfa -8 + ^ x20: .cfa -16 + ^ .ra: .cfa -24 + ^ x29: .cfa -32 + ^
STACK CFI 21f0c .cfa: sp 64 +
STACK CFI 21f18 .cfa: sp 0 +
STACK CFI 21f1c .cfa: x29 32 +
STACK CFI INIT 21fe8 74 .cfa: sp 0 +
STACK CFI 21fec .cfa: sp 48 +
STACK CFI 21ff8 .cfa: x29 32 + x19: .cfa -8 + ^ x20: .cfa -16 + ^ .ra: .cfa -24 + ^ x29: .cfa -32 + ^
STACK CFI 22044 .cfa: sp 48 +
STACK CFI 22050 .cfa: sp 0 +
STACK CFI 22054 .cfa: x29 32 +
STACK CFI INIT 2205c 74 .cfa: sp 0 +
STACK CFI 22060 .cfa: sp 48 +
STACK CFI 2206c .cfa: x29 32 + x19: .cfa -8 + ^ x20: .cfa -16 + ^ .ra: .cfa -24 + ^ x29: .cfa -32 + ^
STACK CFI 220b8 .cfa: sp 48 +
STACK CFI 220c4 .cfa: sp 0 +
STACK CFI 220c8 .cfa: x29 32 +
STACK CFI INIT 22948 634 .cfa: sp 0 +
STACK CFI 2294c .cfa: sp 128 +
STACK CFI 22968 .cfa: x29 96 + x19: .cfa -8 + ^ x20: .cfa -16 + ^ x21: .cfa -24 + ^ x22: .cfa -32 + ^ x23: .cfa -40 + ^ x24: .cfa -48 + ^ x25: .cfa -56 + ^ x26: .cfa -64 + ^ x27: .cfa -72 + ^ x28: .cfa -80 + ^ .ra: .cfa -88 + ^ x29: .cfa -96 + ^
STACK CFI 22f1c .cfa: sp 128 +
STACK CFI 22f38 .cfa: sp 0 +
STACK CFI 22f3c .cfa: x29 96 +
STACK CFI INIT 23484 188 .cfa: sp 0 +
STACK CFI 23488 .cfa: sp 144 +
STACK CFI 234a4 .cfa: x29 96 + x19: .cfa -8 + ^ x20: .cfa -16 + ^ x21: .cfa -24 + ^ x22: .cfa -32 + ^ x23: .cfa -40 + ^ x24: .cfa -48 + ^ x25: .cfa -56 + ^ x26: .cfa -64 + ^ x27: .cfa -80 + ^ .ra: .cfa -88 + ^ x29: .cfa -96 + ^
STACK CFI 235a0 .cfa: sp 144 +
STACK CFI 235bc .cfa: sp 0 +
STACK CFI 235c0 .cfa: x29 96 +
STACK CFI INIT 23634 1c .cfa: sp 0 +
STACK CFI 23638 .cfa: sp 16 +
STACK CFI 2363c .cfa: x29 16 + .ra: .cfa -8 + ^ x29: .cfa -16 + ^
STACK CFI 23644 .cfa: sp 16 +
STACK CFI 23648 .cfa: sp 0 +
STACK CFI 2364c .cfa: x29 16 +
STACK CFI INIT 236a4 188 .cfa: sp 0 +
STACK CFI 236a8 .cfa: sp 144 +
STACK CFI 236c4 .cfa: x29 96 + x19: .cfa -8 + ^ x20: .cfa -16 + ^ x21: .cfa -24 + ^ x22: .cfa -32 + ^ x23: .cfa -40 + ^ x24: .cfa -48 + ^ x25: .cfa -56 + ^ x26: .cfa -64 + ^ x27: .cfa -80 + ^ .ra: .cfa -88 + ^ x29: .cfa -96 + ^
STACK CFI 237c0 .cfa: sp 144 +
STACK CFI 237dc .cfa: sp 0 +
STACK CFI 237e0 .cfa: x29 96 +
STACK CFI INIT 238ac 188 .cfa: sp 0 +
STACK CFI 238b0 .cfa: sp 144 +
STACK CFI 238cc .cfa: x29 96 + x19: .cfa -8 + ^ x20: .cfa -16 + ^ x21: .cfa -24 + ^ x22: .cfa -32 + ^ x23: .cfa -40 + ^ x24: .cfa -48 + ^ x25: .cfa -56 + ^ x26: .cfa -64 + ^ x27: .cfa -80 + ^ .ra: .cfa -88 + ^ x29: .cfa -96 + ^
STACK CFI 239c8 .cfa: sp 144 +
STACK CFI 239e4 .cfa: sp 0 +
STACK CFI 239e8 .cfa: x29 96 +
STACK CFI INIT 23ab0 1720 .cfa: sp 0 +
STACK CFI 23ab4 .cfa: sp 416 +
STACK CFI 23ad0 .cfa: x29 96 + x19: .cfa -8 + ^ x20: .cfa -16 + ^ x21: .cfa -24 + ^ x22: .cfa -32 + ^ x23: .cfa -40 + ^ x24: .cfa -48 + ^ x25: .cfa -56 + ^ x26: .cfa -64 + ^ x27: .cfa -72 + ^ x28: .cfa -80 + ^ .ra: .cfa -88 + ^ x29: .cfa -96 + ^
STACK CFI 24f18 .cfa: sp 416 +
STACK CFI 24f34 .cfa: sp 0 +
STACK CFI 24f38 .cfa: x29 96 +
STACK CFI INIT 25274 1e0 .cfa: sp 0 +
STACK CFI 25278 .cfa: sp 176 +
STACK CFI 25290 .cfa: x29 80 + x19: .cfa -8 + ^ x20: .cfa -16 + ^ x21: .cfa -24 + ^ x22: .cfa -32 + ^ x23: .cfa -40 + ^ x24: .cfa -48 + ^ x25: .cfa -64 + ^ .ra: .cfa -72 + ^ x29: .cfa -80 + ^
STACK CFI 25404 .cfa: sp 176 +
STACK CFI 2541c .cfa: sp 0 +
STACK CFI 25420 .cfa: x29 80 +
STACK CFI INIT 254d0 1d0 .cfa: sp 0 +
STACK CFI 254d4 .cfa: sp 176 +
STACK CFI 254ec .cfa: x29 80 + x19: .cfa -8 + ^ x20: .cfa -16 + ^ x21: .cfa -24 + ^ x22: .cfa -32 + ^ x23: .cfa -40 + ^ x24: .cfa -48 + ^ x25: .cfa -64 + ^ .ra: .cfa -72 + ^ x29: .cfa -80 + ^
STACK CFI 25650 .cfa: sp 176 +
STACK CFI 25668 .cfa: sp 0 +
STACK CFI 2566c .cfa: x29 80 +
STACK CFI INIT 25728 204 .cfa: sp 0 +
STACK CFI 2572c .cfa: sp 176 +
STACK CFI 25744 .cfa: x29 80 + x19: .cfa -8 + ^ x20: .cfa -16 + ^ x21: .cfa -24 + ^ x22: .cfa -32 + ^ x23: .cfa -40 + ^ x24: .cfa -48 + ^ x25: .cfa -64 + ^ .ra: .cfa -72 + ^ x29: .cfa -80 + ^
STACK CFI 258dc .cfa: sp 176 +
STACK CFI 258f4 .cfa: sp 0 +
STACK CFI 258f8 .cfa: x29 80 +
STACK CFI INIT 25f90 108 .cfa: sp 0 +
STACK CFI 25f94 .cfa: sp 112 +
STACK CFI 25fa0 .cfa: x29 32 + x19: .cfa -8 + ^ x20: .cfa -16 + ^ .ra: .cfa -24 + ^ x29: .cfa -32 + ^
STACK CFI 26068 .cfa: sp 112 +
STACK CFI 26074 .cfa: sp 0 +
STACK CFI 26078 .cfa: x29 32 +
STACK CFI INIT 260c8 170 .cfa: sp 0 +
STACK CFI 260cc .cfa: sp 160 +
STACK CFI 260dc .cfa: x29 48 + x19: .cfa -8 + ^ x20: .cfa -16 + ^ x21: .cfa -32 + ^ .ra: .cfa -40 + ^ x29: .cfa -48 + ^
STACK CFI 261dc .cfa: sp 160 +
STACK CFI 261ec .cfa: sp 0 +
STACK CFI 261f0 .cfa: x29 48 +
STACK CFI INIT 26380 b58 .cfa: sp 0 +
STACK CFI 26384 .cfa: sp 240 +
STACK CFI 263a0 .cfa: x29 96 + x19: .cfa -8 + ^ x20: .cfa -16 + ^ x21: .cfa -24 + ^ x22: .cfa -32 + ^ x23: .cfa -40 + ^ x24: .cfa -48 + ^ x25: .cfa -56 + ^ x26: .cfa -64 + ^ x27: .cfa -72 + ^ x28: .cfa -80 + ^ .ra: .cfa -88 + ^ x29: .cfa -96 + ^
STACK CFI 266f0 .cfa: sp 240 +
STACK CFI 2670c .cfa: sp 0 +
STACK CFI 26710 .cfa: x29 96 +
STACK CFI 26d80 .cfa: sp 240 +
STACK CFI 26d9c .cfa: sp 0 +
STACK CFI 26da0 .cfa: x29 96 +
STACK CFI INIT 26ef0 408 .cfa: sp 0 +
STACK CFI 26ef4 .cfa: sp 224 +
STACK CFI 26f10 .cfa: x29 96 + x19: .cfa -8 + ^ x20: .cfa -16 + ^ x21: .cfa -24 + ^ x22: .cfa -32 + ^ x23: .cfa -40 + ^ x24: .cfa -48 + ^ x25: .cfa -56 + ^ x26: .cfa -64 + ^ x27: .cfa -80 + ^ .ra: .cfa -88 + ^ x29: .cfa -96 + ^
STACK CFI 271e4 .cfa: sp 224 +
STACK CFI 27200 .cfa: sp 0 +
STACK CFI 27204 .cfa: x29 96 +
STACK CFI INIT 27348 74 .cfa: sp 0 +
STACK CFI 2734c .cfa: sp 48 +
STACK CFI 27358 .cfa: x29 32 + x19: .cfa -8 + ^ x20: .cfa -16 + ^ .ra: .cfa -24 + ^ x29: .cfa -32 + ^
STACK CFI 273a4 .cfa: sp 48 +
STACK CFI 273b0 .cfa: sp 0 +
STACK CFI 273b4 .cfa: x29 32 +
STACK CFI INIT 273c0 154 .cfa: sp 0 +
STACK CFI 273c4 .cfa: sp 384 +
STACK CFI 273d8 .cfa: x29 64 + x19: .cfa -8 + ^ x20: .cfa -16 + ^ x21: .cfa -24 + ^ x22: .cfa -32 + ^ x23: .cfa -40 + ^ x28: .cfa -48 + ^ .ra: .cfa -56 + ^ x29: .cfa -64 + ^
STACK CFI 274bc .cfa: sp 384 +
STACK CFI 274d0 .cfa: sp 0 +
STACK CFI 274d4 .cfa: x29 64 +
STACK CFI INIT 27514 134 .cfa: sp 0 +
STACK CFI 27518 .cfa: sp 80 +
STACK CFI 2752c .cfa: x29 80 + x19: .cfa -8 + ^ x20: .cfa -16 + ^ x21: .cfa -24 + ^ x22: .cfa -32 + ^ x23: .cfa -40 + ^ x24: .cfa -48 + ^ x25: .cfa -56 + ^ x26: .cfa -64 + ^ .ra: .cfa -72 + ^ x29: .cfa -80 + ^
STACK CFI 275fc .cfa: sp 80 +
STACK CFI 27610 .cfa: sp 0 +
STACK CFI 27614 .cfa: x29 80 +
STACK CFI INIT 276ec 1a4 .cfa: sp 0 +
STACK CFI 276f0 .cfa: sp 112 +
STACK CFI 27708 .cfa: x29 80 + x19: .cfa -8 + ^ x20: .cfa -16 + ^ x21: .cfa -24 + ^ x22: .cfa -32 + ^ x23: .cfa -40 + ^ x24: .cfa -48 + ^ x25: .cfa -56 + ^ x26: .cfa -64 + ^ .ra: .cfa -72 + ^ x29: .cfa -80 + ^
STACK CFI 277f8 .cfa: sp 112 +
STACK CFI 27810 .cfa: sp 0 +
STACK CFI 27814 .cfa: x29 80 +
STACK CFI INIT 27890 1ec .cfa: sp 0 +
STACK CFI 27894 .cfa: sp 128 +
STACK CFI 278b0 .cfa: x29 96 + x19: .cfa -8 + ^ x20: .cfa -16 + ^ x21: .cfa -24 + ^ x22: .cfa -32 + ^ x23: .cfa -40 + ^ x24: .cfa -48 + ^ x25: .cfa -56 + ^ x26: .cfa -64 + ^ x27: .cfa -80 + ^ .ra: .cfa -88 + ^ x29: .cfa -96 + ^
STACK CFI 27a2c .cfa: sp 128 +
STACK CFI 27a48 .cfa: sp 0 +
STACK CFI 27a4c .cfa: x29 96 +
STACK CFI INIT 27a7c 170 .cfa: sp 0 +
STACK CFI 27a80 .cfa: sp 48 +
STACK CFI 27a8c .cfa: x29 48 + x19: .cfa -8 + ^ x20: .cfa -16 + ^ x21: .cfa -32 + ^ .ra: .cfa -40 + ^ x29: .cfa -48 + ^
STACK CFI 27bc0 .cfa: sp 48 +
STACK CFI 27bcc .cfa: sp 0 +
STACK CFI 27bd0 .cfa: x29 48 +
STACK CFI INIT 27ed4 a1c .cfa: sp 0 +
STACK CFI 27ed8 .cfa: sp 224 +
STACK CFI 27ef4 .cfa: x29 96 + x19: .cfa -8 + ^ x20: .cfa -16 + ^ x21: .cfa -24 + ^ x22: .cfa -32 + ^ x23: .cfa -40 + ^ x24: .cfa -48 + ^ x25: .cfa -56 + ^ x26: .cfa -64 + ^ x27: .cfa -72 + ^ x28: .cfa -80 + ^ .ra: .cfa -88 + ^ x29: .cfa -96 + ^
STACK CFI 287c0 .cfa: sp 224 +
STACK CFI 287dc .cfa: sp 0 +
STACK CFI 287e0 .cfa: x29 96 +
STACK CFI INIT 288f0 a8 .cfa: sp 0 +
STACK CFI 288f4 .cfa: sp 32 +
STACK CFI 288fc .cfa: x29 32 + x19: .cfa -16 + ^ .ra: .cfa -24 + ^ x29: .cfa -32 + ^
STACK CFI 28930 .cfa: sp 32 +
STACK CFI 28938 .cfa: sp 0 +
STACK CFI 2893c .cfa: x29 32 +
STACK CFI 28940 .cfa: sp 32 +
STACK CFI 28948 .cfa: sp 0 +
STACK CFI 2894c .cfa: x29 32 +
STACK CFI INIT 28df8 74 .cfa: sp 0 +
STACK CFI 28dfc .cfa: sp 48 +
STACK CFI 28e08 .cfa: x29 32 + x19: .cfa -8 + ^ x20: .cfa -16 + ^ .ra: .cfa -24 + ^ x29: .cfa -32 + ^
STACK CFI 28e54 .cfa: sp 48 +
STACK CFI 28e60 .cfa: sp 0 +
STACK CFI 28e64 .cfa: x29 32 +
STACK CFI INIT 28f48 134 .cfa: sp 0 +
STACK CFI 28f4c .cfa: sp 80 +
STACK CFI 28f58 .cfa: x29 32 + x19: .cfa -8 + ^ x20: .cfa -16 + ^ .ra: .cfa -24 + ^ x29: .cfa -32 + ^
STACK CFI 28f88 .cfa: sp 80 +
STACK CFI 28f94 .cfa: sp 0 +
STACK CFI 28f98 .cfa: x29 32 +
STACK CFI INIT 2907c 78 .cfa: sp 0 +
STACK CFI 29080 .cfa: sp 32 +
STACK CFI 29088 .cfa: x29 32 + x19: .cfa -8 + ^ x20: .cfa -16 + ^ .ra: .cfa -24 + ^ x29: .cfa -32 + ^
STACK CFI 29094 .cfa: sp 32 +
STACK CFI 2909c .cfa: sp 0 +
STACK CFI 290a0 .cfa: x29 32 +
STACK CFI INIT 290f4 74 .cfa: sp 0 +
STACK CFI 290f8 .cfa: sp 48 +
STACK CFI 29104 .cfa: x29 32 + x19: .cfa -8 + ^ x20: .cfa -16 + ^ .ra: .cfa -24 + ^ x29: .cfa -32 + ^
STACK CFI 29150 .cfa: sp 48 +
STACK CFI 2915c .cfa: sp 0 +
STACK CFI 29160 .cfa: x29 32 +
STACK CFI INIT 291cc 224 .cfa: sp 0 +
STACK CFI 291d0 .cfa: sp 128 +
STACK CFI 291e0 .cfa: x29 48 + x19: .cfa -8 + ^ x20: .cfa -16 + ^ x21: .cfa -32 + ^ .ra: .cfa -40 + ^ x29: .cfa -48 + ^
STACK CFI 29290 .cfa: sp 128 +
STACK CFI 292a0 .cfa: sp 0 +
STACK CFI 292a4 .cfa: x29 48 +
STACK CFI INIT 2948c 300 .cfa: sp 0 +
STACK CFI 29490 .cfa: sp 144 +
STACK CFI 294a4 .cfa: x29 64 + x19: .cfa -8 + ^ x20: .cfa -16 + ^ x21: .cfa -24 + ^ x22: .cfa -32 + ^ x23: .cfa -48 + ^ .ra: .cfa -56 + ^ x29: .cfa -64 + ^
STACK CFI 29638 .cfa: sp 144 +
STACK CFI 2964c .cfa: sp 0 +
STACK CFI 29650 .cfa: x29 64 +
STACK CFI INIT 297e0 264 .cfa: sp 0 +
STACK CFI 297e4 .cfa: sp 128 +
STACK CFI 297f4 .cfa: x29 48 + x19: .cfa -8 + ^ x20: .cfa -16 + ^ x21: .cfa -32 + ^ .ra: .cfa -40 + ^ x29: .cfa -48 + ^
STACK CFI 298ec .cfa: sp 128 +
STACK CFI 298fc .cfa: sp 0 +
STACK CFI 29900 .cfa: x29 48 +
STACK CFI INIT 29c14 2e4 .cfa: sp 0 +
STACK CFI 29c18 .cfa: sp 144 +
STACK CFI 29c2c .cfa: x29 64 + x19: .cfa -8 + ^ x20: .cfa -16 + ^ x21: .cfa -24 + ^ x22: .cfa -32 + ^ x23: .cfa -48 + ^ .ra: .cfa -56 + ^ x29: .cfa -64 + ^
STACK CFI 29da4 .cfa: sp 144 +
STACK CFI 29db8 .cfa: sp 0 +
STACK CFI 29dbc .cfa: x29 64 +
STACK CFI INIT 29ef8 2f0 .cfa: sp 0 +
STACK CFI 29efc .cfa: sp 144 +
STACK CFI 29f10 .cfa: x29 64 + x19: .cfa -8 + ^ x20: .cfa -16 + ^ x21: .cfa -24 + ^ x22: .cfa -32 + ^ x23: .cfa -48 + ^ .ra: .cfa -56 + ^ x29: .cfa -64 + ^
STACK CFI 2a094 .cfa: sp 144 +
STACK CFI 2a0a8 .cfa: sp 0 +
STACK CFI 2a0ac .cfa: x29 64 +
STACK CFI INIT 2a1e8 2a0 .cfa: sp 0 +
STACK CFI 2a1ec .cfa: sp 144 +
STACK CFI 2a200 .cfa: x29 64 + x19: .cfa -8 + ^ x20: .cfa -16 + ^ x21: .cfa -24 + ^ x22: .cfa -32 + ^ x23: .cfa -48 + ^ .ra: .cfa -56 + ^ x29: .cfa -64 + ^
STACK CFI 2a334 .cfa: sp 144 +
STACK CFI 2a348 .cfa: sp 0 +
STACK CFI 2a34c .cfa: x29 64 +
STACK CFI INIT 2a488 2e4 .cfa: sp 0 +
STACK CFI 2a48c .cfa: sp 144 +
STACK CFI 2a4a0 .cfa: x29 64 + x19: .cfa -8 + ^ x20: .cfa -16 + ^ x21: .cfa -24 + ^ x22: .cfa -32 + ^ x23: .cfa -48 + ^ .ra: .cfa -56 + ^ x29: .cfa -64 + ^
STACK CFI 2a618 .cfa: sp 144 +
STACK CFI 2a62c .cfa: sp 0 +
STACK CFI 2a630 .cfa: x29 64 +
STACK CFI INIT 2a76c 4f4 .cfa: sp 0 +
STACK CFI 2a770 .cfa: sp 144 +
STACK CFI 2a784 .cfa: x29 64 + x19: .cfa -8 + ^ x20: .cfa -16 + ^ x21: .cfa -24 + ^ x22: .cfa -32 + ^ x23: .cfa -48 + ^ .ra: .cfa -56 + ^ x29: .cfa -64 + ^
STACK CFI 2aab8 .cfa: sp 144 +
STACK CFI 2aacc .cfa: sp 0 +
STACK CFI 2aad0 .cfa: x29 64 +
STACK CFI INIT 2ac60 154 .cfa: sp 0 +
STACK CFI 2ac64 .cfa: sp 384 +
STACK CFI 2ac78 .cfa: x29 64 + x19: .cfa -8 + ^ x20: .cfa -16 + ^ x21: .cfa -24 + ^ x22: .cfa -32 + ^ x23: .cfa -40 + ^ x28: .cfa -48 + ^ .ra: .cfa -56 + ^ x29: .cfa -64 + ^
STACK CFI 2ad5c .cfa: sp 384 +
STACK CFI 2ad70 .cfa: sp 0 +
STACK CFI 2ad74 .cfa: x29 64 +
STACK CFI INIT 2adb4 168 .cfa: sp 0 +
STACK CFI 2adb8 .cfa: sp 384 +
STACK CFI 2adcc .cfa: x29 64 + x19: .cfa -8 + ^ x20: .cfa -16 + ^ x21: .cfa -24 + ^ x22: .cfa -32 + ^ x23: .cfa -40 + ^ x28: .cfa -48 + ^ .ra: .cfa -56 + ^ x29: .cfa -64 + ^
STACK CFI 2aec4 .cfa: sp 384 +
STACK CFI 2aed8 .cfa: sp 0 +
STACK CFI 2aedc .cfa: x29 64 +
STACK CFI INIT 2af34 50c .cfa: sp 0 +
STACK CFI 2af38 .cfa: sp 64 +
STACK CFI 2af48 .cfa: x29 64 + x19: .cfa -8 + ^ x20: .cfa -16 + ^ x21: .cfa -24 + ^ x22: .cfa -32 + ^ x23: .cfa -40 + ^ x24: .cfa -48 + ^ .ra: .cfa -56 + ^ x29: .cfa -64 + ^
STACK CFI 2b068 .cfa: sp 64 +
STACK CFI 2b078 .cfa: sp 0 +
STACK CFI 2b07c .cfa: x29 64 +
STACK CFI 2b414 .cfa: sp 64 +
STACK CFI 2b424 .cfa: sp 0 +
STACK CFI 2b428 .cfa: x29 64 +
STACK CFI INIT 2b770 294 .cfa: sp 0 +
STACK CFI 2b774 .cfa: sp 240 +
STACK CFI 2b78c .cfa: x29 80 + x19: .cfa -8 + ^ x20: .cfa -16 + ^ x21: .cfa -24 + ^ x22: .cfa -32 + ^ x23: .cfa -40 + ^ x24: .cfa -48 + ^ x25: .cfa -64 + ^ .ra: .cfa -72 + ^ x29: .cfa -80 + ^
STACK CFI 2b92c .cfa: sp 240 +
STACK CFI 2b944 .cfa: sp 0 +
STACK CFI 2b948 .cfa: x29 80 +
STACK CFI INIT 2ba80 50 .cfa: sp 0 +
STACK CFI 2ba84 .cfa: sp 32 +
STACK CFI 2ba8c .cfa: x29 32 + x19: .cfa -8 + ^ x20: .cfa -16 + ^ .ra: .cfa -24 + ^ x29: .cfa -32 + ^
STACK CFI INIT 2bafc 7c0 .cfa: sp 0 +
STACK CFI 2bb00 .cfa: sp 320 +
STACK CFI 2bb1c .cfa: x29 96 + x19: .cfa -8 + ^ x20: .cfa -16 + ^ x21: .cfa -24 + ^ x22: .cfa -32 + ^ x23: .cfa -40 + ^ x24: .cfa -48 + ^ x25: .cfa -56 + ^ x26: .cfa -64 + ^ x27: .cfa -72 + ^ x28: .cfa -80 + ^ .ra: .cfa -88 + ^ x29: .cfa -96 + ^
STACK CFI 2c16c .cfa: sp 320 +
STACK CFI 2c188 .cfa: sp 0 +
STACK CFI 2c18c .cfa: x29 96 +
STACK CFI INIT 2c320 14c .cfa: sp 0 +
STACK CFI 2c324 .cfa: sp 80 +
STACK CFI 2c338 .cfa: x29 80 + x19: .cfa -8 + ^ x20: .cfa -16 + ^ x21: .cfa -24 + ^ x22: .cfa -32 + ^ x23: .cfa -40 + ^ x24: .cfa -48 + ^ x28: .cfa -64 + ^ .ra: .cfa -72 + ^ x29: .cfa -80 + ^
STACK CFI 2c3cc .cfa: sp 80 +
STACK CFI 2c3e0 .cfa: sp 0 +
STACK CFI 2c3e4 .cfa: x29 80 +
STACK CFI INIT 30774 c74 .cfa: sp 0 +
STACK CFI 30778 .cfa: sp 96 +
STACK CFI 30790 .cfa: x29 96 + x19: .cfa -8 + ^ x20: .cfa -16 + ^ x21: .cfa -24 + ^ x22: .cfa -32 + ^ x23: .cfa -40 + ^ x24: .cfa -48 + ^ x25: .cfa -56 + ^ x26: .cfa -64 + ^ x27: .cfa -72 + ^ x28: .cfa -80 + ^ .ra: .cfa -88 + ^ x29: .cfa -96 + ^
STACK CFI 31204 .cfa: sp 96 +
STACK CFI 3121c .cfa: sp 0 +
STACK CFI 31220 .cfa: x29 96 +
STACK CFI INIT 3153c 268 .cfa: sp 0 +
STACK CFI 31540 .cfa: sp 128 +
STACK CFI 31550 .cfa: x29 48 + x19: .cfa -8 + ^ x20: .cfa -16 + ^ x21: .cfa -24 + ^ x22: .cfa -32 + ^ .ra: .cfa -40 + ^ x29: .cfa -48 + ^
STACK CFI 316f0 .cfa: sp 128 +
STACK CFI 31700 .cfa: sp 0 +
STACK CFI 31704 .cfa: x29 48 +
STACK CFI INIT 31d1c 3b8 .cfa: sp 0 +
STACK CFI 31d20 .cfa: sp 96 +
STACK CFI 31d38 .cfa: x29 96 + x19: .cfa -8 + ^ x20: .cfa -16 + ^ x21: .cfa -24 + ^ x22: .cfa -32 + ^ x23: .cfa -40 + ^ x24: .cfa -48 + ^ x25: .cfa -56 + ^ x26: .cfa -64 + ^ x27: .cfa -72 + ^ x28: .cfa -80 + ^ .ra: .cfa -88 + ^ x29: .cfa -96 + ^
STACK CFI 32074 .cfa: sp 96 +
STACK CFI 3208c .cfa: sp 0 +
STACK CFI 32090 .cfa: x29 96 +
STACK CFI INIT 32174 cb0 .cfa: sp 0 +
STACK CFI 32178 .cfa: sp 96 +
STACK CFI 32190 .cfa: x29 96 + x19: .cfa -8 + ^ x20: .cfa -16 + ^ x21: .cfa -24 + ^ x22: .cfa -32 + ^ x23: .cfa -40 + ^ x24: .cfa -48 + ^ x25: .cfa -56 + ^ x26: .cfa -64 + ^ x27: .cfa -72 + ^ x28: .cfa -80 + ^ .ra: .cfa -88 + ^ x29: .cfa -96 + ^
STACK CFI 32c34 .cfa: sp 96 +
STACK CFI 32c4c .cfa: sp 0 +
STACK CFI 32c50 .cfa: x29 96 +
STACK CFI INIT 3310c ae4 .cfa: sp 0 +
STACK CFI 33110 .cfa: sp 96 +
STACK CFI 33128 .cfa: x29 96 + x19: .cfa -8 + ^ x20: .cfa -16 + ^ x21: .cfa -24 + ^ x22: .cfa -32 + ^ x23: .cfa -40 + ^ x24: .cfa -48 + ^ x25: .cfa -56 + ^ x26: .cfa -64 + ^ x27: .cfa -72 + ^ x28: .cfa -80 + ^ .ra: .cfa -88 + ^ x29: .cfa -96 + ^
STACK CFI 33b64 .cfa: sp 96 +
STACK CFI 33b7c .cfa: sp 0 +
STACK CFI 33b80 .cfa: x29 96 +
STACK CFI INIT 33dcc 1424 .cfa: sp 0 +
STACK CFI 33dd0 .cfa: sp 96 +
STACK CFI 33de8 .cfa: x29 96 + x19: .cfa -8 + ^ x20: .cfa -16 + ^ x21: .cfa -24 + ^ x22: .cfa -32 + ^ x23: .cfa -40 + ^ x24: .cfa -48 + ^ x25: .cfa -56 + ^ x26: .cfa -64 + ^ x27: .cfa -72 + ^ x28: .cfa -80 + ^ .ra: .cfa -88 + ^ x29: .cfa -96 + ^
STACK CFI 35080 .cfa: sp 96 +
STACK CFI 35098 .cfa: sp 0 +
STACK CFI 3509c .cfa: x29 96 +
STACK CFI INIT 35314 75c .cfa: sp 0 +
STACK CFI 35318 .cfa: sp 368 +
STACK CFI 35334 .cfa: x29 96 + x19: .cfa -8 + ^ x20: .cfa -16 + ^ x21: .cfa -24 + ^ x22: .cfa -32 + ^ x23: .cfa -40 + ^ x24: .cfa -48 + ^ x25: .cfa -56 + ^ x26: .cfa -64 + ^ x27: .cfa -72 + ^ x28: .cfa -80 + ^ .ra: .cfa -88 + ^ x29: .cfa -96 + ^
STACK CFI 353e8 .cfa: sp 368 +
STACK CFI 35404 .cfa: sp 0 +
STACK CFI 35408 .cfa: x29 96 +
STACK CFI 3545c .cfa: sp 368 +
STACK CFI 35478 .cfa: sp 0 +
STACK CFI 3547c .cfa: x29 96 +
STACK CFI INIT 35e34 eac .cfa: sp 0 +
STACK CFI 35e38 .cfa: sp 96 +
STACK CFI 35e50 .cfa: x29 96 + x19: .cfa -8 + ^ x20: .cfa -16 + ^ x21: .cfa -24 + ^ x22: .cfa -32 + ^ x23: .cfa -40 + ^ x24: .cfa -48 + ^ x25: .cfa -56 + ^ x26: .cfa -64 + ^ x27: .cfa -72 + ^ x28: .cfa -80 + ^ .ra: .cfa -88 + ^ x29: .cfa -96 + ^
STACK CFI 36af4 .cfa: sp 96 +
STACK CFI 36b0c .cfa: sp 0 +
STACK CFI 36b10 .cfa: x29 96 +
STACK CFI INIT 37054 1c64 .cfa: sp 0 +
STACK CFI 37058 .cfa: sp 112 +
STACK CFI 37074 .cfa: x29 96 + x19: .cfa -8 + ^ x20: .cfa -16 + ^ x21: .cfa -24 + ^ x22: .cfa -32 + ^ x23: .cfa -40 + ^ x24: .cfa -48 + ^ x25: .cfa -56 + ^ x26: .cfa -64 + ^ x27: .cfa -72 + ^ x28: .cfa -80 + ^ .ra: .cfa -88 + ^ x29: .cfa -96 + ^ v8: .cfa -112 + ^
STACK CFI 37448 .cfa: sp 112 +
STACK CFI 37464 .cfa: sp 0 +
STACK CFI 37468 .cfa: x29 96 +
STACK CFI INIT 3b450 a4c .cfa: sp 0 +
STACK CFI 3b454 .cfa: sp 144 +
STACK CFI 3b46c .cfa: x29 80 + x19: .cfa -8 + ^ x20: .cfa -16 + ^ x21: .cfa -24 + ^ x22: .cfa -32 + ^ x23: .cfa -40 + ^ x24: .cfa -48 + ^ x25: .cfa -64 + ^ .ra: .cfa -72 + ^ x29: .cfa -80 + ^
STACK CFI 3bdf4 .cfa: sp 144 +
STACK CFI 3be0c .cfa: sp 0 +
STACK CFI 3be10 .cfa: x29 80 +
STACK CFI INIT 3d330 57c .cfa: sp 0 +
STACK CFI 3d334 .cfa: sp 96 +
STACK CFI 3d34c .cfa: x29 96 + x19: .cfa -8 + ^ x20: .cfa -16 + ^ x21: .cfa -24 + ^ x22: .cfa -32 + ^ x23: .cfa -40 + ^ x24: .cfa -48 + ^ x25: .cfa -56 + ^ x26: .cfa -64 + ^ x27: .cfa -72 + ^ x28: .cfa -80 + ^ .ra: .cfa -88 + ^ x29: .cfa -96 + ^
STACK CFI 3d810 .cfa: sp 96 +
STACK CFI 3d828 .cfa: sp 0 +
STACK CFI 3d82c .cfa: x29 96 +
STACK CFI INIT 3d8ac 67c .cfa: sp 0 +
STACK CFI 3d8b0 .cfa: sp 96 +
STACK CFI 3d8c8 .cfa: x29 96 + x19: .cfa -8 + ^ x20: .cfa -16 + ^ x21: .cfa -24 + ^ x22: .cfa -32 + ^ x23: .cfa -40 + ^ x24: .cfa -48 + ^ x25: .cfa -56 + ^ x26: .cfa -64 + ^ x27: .cfa -72 + ^ x28: .cfa -80 + ^ .ra: .cfa -88 + ^ x29: .cfa -96 + ^
STACK CFI 3de8c .cfa: sp 96 +
STACK CFI 3dea4 .cfa: sp 0 +
STACK CFI 3dea8 .cfa: x29 96 +
