MODULE Linux arm FDBDD39FE814B6522800A440145FC2AD0 catgirldev.ingame-progress-bar-color.android32.so
INFO CODE_ID 9FD3BDFD14E852B62800A440145FC2AD348AFD87
INFO GENERATOR mozilla/dump_syms 2.3.4
FILE 0 /home/runner/work/progress-bar-thingy/progress-bar-thingy/geode-sdk-clone/loader/include/Geode/loader/SettingV3.hpp
FILE 1 /home/runner/work/progress-bar-thingy/progress-bar-thingy/geode-sdk-clone/loader/include/Geode/platform/ItaniumCast.hpp
FILE 2 /usr/local/lib/android/sdk/ndk/28.0.13004108/toolchains/llvm/prebuilt/linux-x86_64/sysroot/usr/include/c++/v1/ostream
FILE 3 /usr/local/lib/android/sdk/ndk/28.0.13004108/toolchains/llvm/prebuilt/linux-x86_64/sysroot/usr/include/c++/v1/variant
FILE 4 /usr/local/lib/android/sdk/ndk/28.0.13004108/toolchains/llvm/prebuilt/linux-x86_64/sysroot/usr/include/c++/v1/locale
FILE 5 /usr/local/lib/android/sdk/ndk/28.0.13004108/toolchains/llvm/prebuilt/linux-x86_64/sysroot/usr/include/c++/v1/stdexcept
FILE 6 /usr/local/lib/android/sdk/ndk/28.0.13004108/toolchains/llvm/prebuilt/linux-x86_64/sysroot/usr/include/c++/v1/__tree
FILE 7 /usr/local/lib/android/sdk/ndk/28.0.13004108/toolchains/llvm/prebuilt/linux-x86_64/sysroot/usr/include/c++/v1/new
FILE 8 /home/runner/work/progress-bar-thingy/progress-bar-thingy/build/bindings/bindings/Geode/modify/PlayLayer.hpp
FILE 9 /home/runner/work/progress-bar-thingy/progress-bar-thingy/src/util/utils.hpp
FILE 10 /home/runner/work/progress-bar-thingy/progress-bar-thingy/geode-sdk-clone/loader/include/Geode/modify/Modify.hpp
FILE 11 /home/runner/work/progress-bar-thingy/progress-bar-thingy/geode-sdk-clone/loader/include/Geode/loader/Mod.hpp
FILE 12 /usr/local/lib/android/sdk/ndk/28.0.13004108/toolchains/llvm/prebuilt/linux-x86_64/sysroot/usr/include/c++/v1/__memory/shared_ptr.h
FILE 13 /home/runner/work/progress-bar-thingy/progress-bar-thingy/cpm-cache/result/ade45dec94899c25150383d6c6c26347d72a4fec/include/Geode/Result.hpp
FILE 14 /usr/local/lib/android/sdk/ndk/28.0.13004108/toolchains/llvm/prebuilt/linux-x86_64/sysroot/usr/include/c++/v1/vector
FILE 15 /usr/local/lib/android/sdk/ndk/28.0.13004108/toolchains/llvm/prebuilt/linux-x86_64/sysroot/usr/include/c++/v1/sstream
FILE 16 /usr/local/lib/android/sdk/ndk/28.0.13004108/toolchains/llvm/prebuilt/linux-x86_64/sysroot/usr/include/c++/v1/string
FILE 17 /usr/local/lib/android/sdk/ndk/28.0.13004108/toolchains/llvm/prebuilt/linux-x86_64/sysroot/usr/include/c++/v1/__split_buffer
FILE 18 /home/runner/work/progress-bar-thingy/progress-bar-thingy/geode-sdk-clone/loader/include/Geode/loader/Hook.hpp
FILE 19 /home/runner/work/progress-bar-thingy/progress-bar-thingy/cpm-cache/tuliphook/8d0d2aa407f52cdee9f79187fca5c9affddf8dd5/include/tulip/HandlerData.hpp
FILE 20 /usr/local/lib/android/sdk/ndk/28.0.13004108/toolchains/llvm/prebuilt/linux-x86_64/sysroot/usr/include/c++/v1/__utility/pair.h
FILE 21 /usr/local/lib/android/sdk/ndk/28.0.13004108/toolchains/llvm/prebuilt/linux-x86_64/sysroot/usr/include/c++/v1/unordered_map
FILE 22 /usr/local/lib/android/sdk/ndk/28.0.13004108/toolchains/llvm/prebuilt/linux-x86_64/sysroot/usr/include/c++/v1/__hash_table
FILE 23 /usr/local/lib/android/sdk/ndk/28.0.13004108/toolchains/llvm/prebuilt/linux-x86_64/sysroot/usr/include/c++/v1/__memory/unique_ptr.h
FILE 24 /home/runner/work/progress-bar-thingy/progress-bar-thingy/geode-sdk-clone/loader/include/Geode/loader/Event.hpp
FILE 25 /usr/local/lib/android/sdk/ndk/28.0.13004108/toolchains/llvm/prebuilt/linux-x86_64/sysroot/usr/include/c++/v1/__functional/function.h
FILE 26 /home/runner/work/progress-bar-thingy/progress-bar-thingy/src/util/color.hpp
FILE 27 /home/runner/work/progress-bar-thingy/progress-bar-thingy/geode-sdk-clone/entry.cpp
FILE 28 /home/runner/work/progress-bar-thingy/progress-bar-thingy/build/bindings/bindings/Geode/GeneratedSource.cpp
PUBLIC 51a0 0 __on_dlclose
PUBLIC 51b0 0 __emutls_unregister_key
PUBLIC 51b4 0 __on_dlclose_late
PUBLIC 51b8 0 __atexit_handler_wrapper
PUBLIC 51c4 0 atexit
PUBLIC 51e4 0 pthread_atfork
FUNC 51f4 778 0 __cxx_global_var_init
5216 756 446 10
FUNC 596c 1c 0 geode::modifier::ModifyBase<geode::modifier::ModifyDerive<canvas, PlayLayer> >::~ModifyBase()
596c 1c 200 10
FUNC 5988 640 0 geode::modifier::ModifyDerive<canvas, PlayLayer>::apply()
5988 10 1276 8
5998 1a8 1365 8
5b40 1b2 1386 8
5cf2 1a8 1404 8
5e9a 12 1408 8
5eac 26 1365 8
5ed2 26 1386 8
5ef8 32 1404 8
5f2a c 1386 8
5f36 92 1365 8
FUNC 5fc8 20 0 geode::Mod::get<void>()
5fc8 4 302 11
5fcc 8 303 11
5fd4 4 306 11
5fd8 a 304 11
5fe2 6 306 11
FUNC 5fe8 3a 0 std::__ndk1::shared_ptr<geode::Hook>::~shared_ptr[abi:ne190000]()
5fe8 4 649 12
5fec 4 650 12
5ff0 1a 651 12
600a 4 652 12
600e 12 651 12
6020 2 652 12
FUNC 6024 60 0 geode::impl::ResultData<geode::Hook*, std::__ndk1::basic_string<char, std::__ndk1::char_traits<char>, std::__ndk1::allocator<char> > >::~ResultData()
6024 60 422 13
FUNC 6084 3e 0 std::__ndk1::vector<std::__ndk1::basic_string<char, std::__ndk1::char_traits<char>, std::__ndk1::allocator<char> >, std::__ndk1::allocator<std::__ndk1::basic_string<char, std::__ndk1::char_traits<char>, std::__ndk1::allocator<char> > > >::~vector[abi:ne190000]()
6084 3e 502 14
FUNC 60c2 2 0 geode::modifier::ModifyBase<geode::modifier::ModifyDerive<canvas, PlayLayer> >::apply()
60c2 2 416 10
PUBLIC 60c5 0 __clang_call_terminate
FUNC 60d0 f8 0 _ZN5geode15UnwrapExceptionC2IRPNS_4HookEQsr4implE18IsStringStreamableIT_EEENS_4impl5OkTagEOS5_
60d0 1a 404 13
60ea 2c 403 13
6116 5a 402 13
6170 24 404 13
6194 34 402 13
FUNC 61c8 34 0 std::__ndk1::__throw_bad_variant_access[abi:ne190000]()
61c8 4 296 3
61cc 30 298 3
FUNC 61fc d8 0 std::__ndk1::basic_stringstream<char, std::__ndk1::char_traits<char>, std::__ndk1::allocator<char> >::basic_stringstream[abi:ne190000]()
61fc 36 1149 15
6232 2 1148 15
6234 a0 1149 15
FUNC 62d4 68 0 std::__ndk1::basic_stringstream<char, std::__ndk1::char_traits<char>, std::__ndk1::allocator<char> >::~basic_stringstream()
62d4 68 1271 15
FUNC 633c 10 0 geode::UnwrapException::~UnwrapException()
633c 10 413 13
FUNC 634c 108 0 std::__ndk1::__put_character_sequence[abi:ne190000]<char, std::__ndk1::char_traits<char> >(std::__ndk1::basic_ostream<char, std::__ndk1::char_traits<char> >, std::__ndk1::basic_ostream const*, unsigned int)
634c 1c 666 2
6368 6 670 2
636e 6 671 2
6374 c 674 2
6380 2 679 2
6382 4 676 2
6386 4 674 2
638a 2a 679 2
63b4 2 673 2
63b6 4 676 2
63ba 4 673 2
63be 8 676 2
63c6 4 673 2
63ca 4 676 2
63ce 6 673 2
63d4 16 681 2
63ea 10 684 2
63fa 16 688 2
6410 a 679 2
641a e 684 2
6428 e 685 2
6436 1e 686 2
FUNC 6454 110 0 std::__ndk1::__pad_and_output[abi:ne190000]<char, std::__ndk1::char_traits<char> >(std::__ndk1::char_traits<char>, std::__ndk1::ostreambuf_iterator const*, std::__ndk1::ostreambuf_iterator const, std::__ndk1::ostreambuf_iterator const, std::__ndk1::ios_base&, std::__ndk1::ostreambuf_iterator)
6454 10 1246 4
6464 12 1247 4
6476 2 1249 4
6478 6 1255 4
647e 4 1250 4
6482 6 1251 4
6488 4 1256 4
648c e 1257 4
649a a 1262 4
64a4 3a 1263 4
64de 2 1264 4
64e0 2 1263 4
64e2 18 1264 4
64fa 12 1268 4
650c 4 1269 4
6510 4 1270 4
6514 12 1271 4
6526 14 1276 4
653a 10 1278 4
654a 1a 1268 4
FUNC 6564 10 0 std::__ndk1::basic_string<char, std::__ndk1::char_traits<char>, std::__ndk1::allocator<char> >::__throw_length_error[abi:ne190000]() const
6564 4 2130 16
6568 c 2131 16
FUNC 6574 38 0 std::__ndk1::__throw_length_error[abi:ne190000](char const*)
6574 6 238 5
657a 32 240 5
FUNC 65ac 18 0 std::length_error::length_error[abi:ne190000](char const*)
65ac 18 151 5
FUNC 65c4 28 0 std::__throw_bad_array_new_length([abi:ne190000], void)
65c4 4 172 7
65c8 24 174 7
FUNC 65ec da 0 std::__ndk1::basic_stringbuf<char, std::__ndk1::char_traits<char>, std::__ndk1::allocator<char> >::str[abi:ne190000]() &&
65ec a 465 15
65f6 2a 466 15
6620 1a 467 15
663a c 470 15
6646 4 471 15
664a 6 470 15
6650 2 471 15
6652 2 470 15
6654 16 471 15
666a 10 472 15
667a 14 471 15
668e 1c 472 15
66aa 6 473 15
66b0 16 475 15
FUNC 66c6 e0 0 std::__ndk1::basic_stringbuf<char, std::__ndk1::char_traits<char>, std::__ndk1::allocator<char> >::__init_buf_ptrs[abi:ne190000]()
66c6 8 707 15
66ce c 709 15
66da 4 710 15
66de 2 711 15
66e0 2 709 15
66e2 2 708 15
66e4 4 709 15
66e8 8 710 15
66f0 4 709 15
66f4 2 711 15
66f6 6 712 15
66fc 6 713 15
6702 2 712 15
6704 4 715 15
6708 2 717 15
670a 6 716 15
6710 42 717 15
6752 4 718 15
6756 4 719 15
675a c 718 15
6766 2 719 15
6768 4 718 15
676c 2 719 15
676e 6 720 15
6774 6 724 15
677a 6 728 15
6780 c 722 15
678c e 720 15
679a 6 725 15
67a0 6 728 15
FUNC 67a6 5e 0 std::__ndk1::basic_string<char, std::__ndk1::char_traits<char>, std::__ndk1::allocator<char> >::__erase_external_with_move(unsigned int, unsigned int)
67a6 2 3132 16
67a8 c 3141 16
67b4 a 3133 16
67be 6 3134 16
67c4 2 3133 16
67c6 a 3135 16
67d0 4 3137 16
67d4 4 3138 16
67d8 2 3136 16
67da a 3138 16
67e4 1e 3139 16
6802 2 3141 16
FUNC 6804 46 0 std::__ndk1::basic_string<char, std::__ndk1::char_traits<char>, std::__ndk1::allocator<char> >::__init_copy_ctor_external(char const*, unsigned int)
6804 a 2244 16
680e 4 2249 16
6812 a 2251 16
681c 6 2253 16
6822 c 2255 16
682e 8 2259 16
6836 2 2258 16
6838 6 2262 16
683e 6 2264 16
6844 6 2254 16
FUNC 684a 3c 0 std::__ndk1::__split_buffer<std::__ndk1::basic_string<char, std::__ndk1::char_traits<char>, std::__ndk1::allocator<char> >, std::__ndk1::allocator<std::__ndk1::basic_string<char, std::__ndk1::char_traits<char>, std::__ndk1::allocator<char> > >&>::~__split_buffer()
684a 6 352 17
6850 8 353 17
6858 4 354 17
685c 6 355 17
6862 4 356 17
6866 20 353 17
FUNC 6888 10 0 std::__ndk1::vector<std::__ndk1::basic_string<char, std::__ndk1::char_traits<char>, std::__ndk1::allocator<char> >, std::__ndk1::allocator<std::__ndk1::basic_string<char, std::__ndk1::char_traits<char>, std::__ndk1::allocator<char> > > >::__throw_length_error[abi:ne190000]() const
6888 10 941 14
FUNC 6898 2 0 std::__ndk1::__variant_detail::__visitation::__base::__dispatcher<(unsigned int)0>::__dispatch[abi:ne190000]<std::__ndk1::__variant_detail::__dtor<std::__ndk1::__variant_detail::__traits<geode::Hook*, std::__ndk1::basic_string<char, std::__ndk1::char_traits<char>, std::__ndk1::allocator<char> > >, (std::__ndk1::__variant_detail::_Trait)1>::__destroy[abi:ne190000]()::{lambda(auto:1&)#1}, std::__ndk1::__variant_detail::__base<(std::__ndk1::__variant_detail::__traits<geode::Hook*, std::__ndk1::basic_string<char, std::__ndk1::char_traits<char>, std::__ndk1::allocator<char> > >)1, geode::Hook, std::__ndk1::allocator<char> >&>(std::__ndk1::__variant_detail::__dtor<std::__ndk1::__variant_detail::__traits<geode::Hook*, std::__ndk1::basic_string<char, std::__ndk1::char_traits<char>, std::__ndk1::allocator<char> > >, (std::__ndk1::__variant_detail::_Trait)1>, std::__ndk1::__variant_detail::__base<(std::__ndk1::__variant_detail::__traits<geode::Hook*, std::__ndk1::basic_string<char, std::__ndk1::char_traits<char>, std::__ndk1::allocator<char> > >)1, geode::Hook, std::__ndk1::allocator<char> >&)
6898 2 536 3
FUNC 689a e 0 std::__ndk1::__variant_detail::__visitation::__base::__dispatcher<(unsigned int)1>::__dispatch[abi:ne190000]<std::__ndk1::__variant_detail::__dtor<std::__ndk1::__variant_detail::__traits<geode::Hook*, std::__ndk1::basic_string<char, std::__ndk1::char_traits<char>, std::__ndk1::allocator<char> > >, (std::__ndk1::__variant_detail::_Trait)1>::__destroy[abi:ne190000]()::{lambda(auto:1&)#1}, std::__ndk1::__variant_detail::__base<(std::__ndk1::__variant_detail::__traits<geode::Hook*, std::__ndk1::basic_string<char, std::__ndk1::char_traits<char>, std::__ndk1::allocator<char> > >)1, geode::Hook, std::__ndk1::allocator<char> >&>(std::__ndk1::__variant_detail::__dtor<std::__ndk1::__variant_detail::__traits<geode::Hook*, std::__ndk1::basic_string<char, std::__ndk1::char_traits<char>, std::__ndk1::allocator<char> > >, (std::__ndk1::__variant_detail::_Trait)1>, std::__ndk1::__variant_detail::__base<(std::__ndk1::__variant_detail::__traits<geode::Hook*, std::__ndk1::basic_string<char, std::__ndk1::char_traits<char>, std::__ndk1::allocator<char> > >)1, geode::Hook, std::__ndk1::allocator<char> >&)
689a e 536 3
FUNC 68a8 5a 0 std::__ndk1::__tree<std::__ndk1::__value_type<std::__ndk1::basic_string<char, std::__ndk1::char_traits<char>, std::__ndk1::allocator<char> >, std::__ndk1::shared_ptr<geode::Hook> >, std::__ndk1::__map_value_compare<std::__ndk1::basic_string<char, std::__ndk1::char_traits<char>, std::__ndk1::allocator<char> >, std::__ndk1::__value_type<std::__ndk1::basic_string<char, std::__ndk1::char_traits<char>, std::__ndk1::allocator<char> >, std::__ndk1::shared_ptr<geode::Hook> >, std::__ndk1::less<std::__ndk1::basic_string<char, std::__ndk1::char_traits<char>, std::__ndk1::allocator<char> > >, true>, std::__ndk1::allocator<std::__ndk1::__value_type<std::__ndk1::basic_string<char, std::__ndk1::char_traits<char>, std::__ndk1::allocator<char> >, std::__ndk1::shared_ptr<geode::Hook> > > >::destroy(std::__ndk1::__tree_node<std::__ndk1::__value_type<std::__ndk1::basic_string<char, std::__ndk1::char_traits<char>, std::__ndk1::allocator<char> >, std::__ndk1::shared_ptr<geode::Hook> >, void*>*)
68a8 2 1542 6
68aa a 1549 6
68b4 6 1543 6
68ba 6 1544 6
68c0 38 1546 6
68f8 a 1547 6
FUNC 6904 cc 0 geode::Hook::create<void (*)(canvas*)>(void*, void (*)(canvas*), std::__ndk1::basic_string<char, std::__ndk1::char_traits<char>, std::__ndk1::allocator<char> > const&, tulip::hook::TulipConvention, tulip::hook::HookMetadata const&)
6904 16 58 18
691a 16 60 18
6930 22 61 18
6952 10 63 18
6962 5e 70 18
69c0 10 59 18
FUNC 69d0 44 0 geode::modifier::AsStaticFunction_resetLevel<canvas, void (canvas::*)()>::Impl<void (canvas::*)()>::function(canvas*)
69d0 44 425 8
FUNC 6a14 40 0 geode::modifier::AsStaticFunction_startGame<canvas, void (canvas::*)()>::Impl<void (canvas::*)()>::function(canvas*)
6a14 40 530 8
FUNC 6a54 1f4 0 geode::modifier::AsStaticFunction_updateProgressbar<canvas, void (canvas::*)()>::Impl<void (canvas::*)()>::function(canvas*)
6a54 1f4 620 8
FUNC 6c48 3a 0 std::__ndk1::shared_ptr<tulip::hook::CallingConvention>::~shared_ptr[abi:ne190000]()
6c48 4 649 12
6c4c 4 650 12
6c50 1a 651 12
6c6a 4 652 12
6c6e 12 651 12
6c80 2 652 12
FUNC 6c82 46 0 tulip::hook::HandlerMetadata::~HandlerMetadata()
6c82 46 12 19
FUNC 6cc8 530 0 Catgirl::updateSettings()
6cc8 c 91 9
6cd4 54 92 9
6d28 48 93 9
6d70 48 94 9
6db8 14 96 9
6dcc 6 97 9
6dd2 4 96 9
6dd6 2 97 9
6dd8 4 96 9
6ddc 10 97 9
6dec 2 98 9
6dee 4 97 9
6df2 2 98 9
6df4 6 97 9
6dfa 18 98 9
6e12 4 100 9
6e16 2 102 9
6e18 2 100 9
6e1a 12 102 9
6e2c 2 103 9
6e2e 4 102 9
6e32 2 103 9
6e34 4 102 9
6e38 10 103 9
6e48 2 104 9
6e4a 4 103 9
6e4e 2 104 9
6e50 4 103 9
6e54 24 104 9
6e78 e 112 9
6e86 46 92 9
6ecc 46 93 9
6f12 46 94 9
6f58 36 96 9
6f8e 36 97 9
6fc4 36 98 9
6ffa 32 102 9
702c 32 103 9
705e 38 104 9
7096 6 103 9
709c 6 102 9
70a2 a 28 9
70ac 6 98 9
70b2 6 97 9
70b8 6 96 9
70be 6 94 9
70c4 6 93 9
70ca 12e 92 9
FUNC 71f8 37c 0 getWorkingMode(std::__ndk1::basic_string<char, std::__ndk1::char_traits<char>, std::__ndk1::allocator<char> > const&)
71f8 a 59 9
7202 1a 60 9
721c ec 70 9
7308 14 71 9
731c 6c 70 9
7388 4 71 9
738c 16 60 9
73a2 12 61 9
73b4 2 62 9
73b6 6 60 9
73bc c 62 9
73c8 4 60 9
73cc 10 63 9
73dc 4 60 9
73e0 6 63 9
73e6 2 64 9
73e8 4 63 9
73ec 2 64 9
73ee 18 63 9
7406 a 64 9
7410 2 65 9
7412 6 60 9
7418 c 65 9
7424 2 66 9
7426 6 60 9
742c e 66 9
743a 13a 60 9
FUNC 7574 68 0 _Z14fastGetSettingITn11TemplateStrXtlS0_ILj17EEtlA18_cLc112ELc114ELc97ELc99ELc116ELc105ELc99ELc101ELc45ELc111ELc118ELc101ELc114ELc114ELc105ELc100ELc101EEEEbET0_v
7574 4 27 9
7578 12 28 9
758a 4 31 9
758e 14 28 9
75a2 8 30 9
75aa c 28 9
75b6 4 31 9
75ba 22 28 9
FUNC 75dc 66 0 _ZNSt6__ndk14pairIKNS_12basic_stringIcNS_11char_traitsIcEENS_9allocatorIcEEEE11WorkingModeEC2B8ne190000IRA13_KcS8_TnNS_9enable_ifIXclsr10_CheckArgsE23__is_pair_constructibleIT_T0_EEEiE4typeELi0EEEOSF_OSG_
75dc 58 173 20
7634 8 174 20
763c 6 173 20
FUNC 7642 66 0 _ZNSt6__ndk14pairIKNS_12basic_stringIcNS_11char_traitsIcEENS_9allocatorIcEEEE11WorkingModeEC2B8ne190000IRA7_KcS8_TnNS_9enable_ifIXclsr10_CheckArgsE23__is_pair_constructibleIT_T0_EEEiE4typeELi0EEEOSF_OSG_
7642 58 173 20
769a 8 174 20
76a2 6 173 20
FUNC 76a8 514 0 std::__ndk1::unordered_map<std::__ndk1::basic_string<char, std::__ndk1::char_traits<char>, std::__ndk1::allocator<char> >, WorkingMode, std::__ndk1::hash<std::__ndk1::basic_string<char, std::__ndk1::char_traits<char>, std::__ndk1::allocator<char> > >, std::__ndk1::equal_to<std::__ndk1::basic_string<char, std::__ndk1::char_traits<char>, std::__ndk1::allocator<char> > >, std::__ndk1::allocator<std::__ndk1::pair<std::__ndk1::basic_string<char, std::__ndk1::char_traits<char>, std::__ndk1::allocator<char> > const, WorkingMode> > >::unordered_map(std::initializer_list<std::__ndk1::pair<std::__ndk1::basic_string<char, std::__ndk1::char_traits<char>, std::__ndk1::allocator<char> > const, WorkingMode> >)
76a8 18 1687 21
76c0 2 1688 21
76c2 14 1687 21
76d6 4b0 1688 21
7b86 e 1689 21
7b94 e 1688 21
7ba2 1a 1689 21
FUNC 7bbc 3e 0 std::__ndk1::unordered_map<std::__ndk1::basic_string<char, std::__ndk1::char_traits<char>, std::__ndk1::allocator<char> >, WorkingMode, std::__ndk1::hash<std::__ndk1::basic_string<char, std::__ndk1::char_traits<char>, std::__ndk1::allocator<char> > >, std::__ndk1::equal_to<std::__ndk1::basic_string<char, std::__ndk1::char_traits<char>, std::__ndk1::allocator<char> > >, std::__ndk1::allocator<std::__ndk1::pair<std::__ndk1::basic_string<char, std::__ndk1::char_traits<char>, std::__ndk1::allocator<char> > const, WorkingMode> > >::~unordered_map[abi:ne190000]()
7bbc 8 1181 21
7bc4 36 1183 21
FUNC 7bfc 48 0 std::__ndk1::__hash_table<std::__ndk1::__hash_value_type<std::__ndk1::basic_string<char, std::__ndk1::char_traits<char>, std::__ndk1::allocator<char> >, WorkingMode>, std::__ndk1::__unordered_map_hasher<std::__ndk1::basic_string<char, std::__ndk1::char_traits<char>, std::__ndk1::allocator<char> >, std::__ndk1::__hash_value_type<std::__ndk1::basic_string<char, std::__ndk1::char_traits<char>, std::__ndk1::allocator<char> >, WorkingMode>, std::__ndk1::hash<std::__ndk1::basic_string<char, std::__ndk1::char_traits<char>, std::__ndk1::allocator<char> > >, std::__ndk1::equal_to<std::__ndk1::basic_string<char, std::__ndk1::char_traits<char>, std::__ndk1::allocator<char> > >, true>, std::__ndk1::__unordered_map_equal<std::__ndk1::basic_string<char, std::__ndk1::char_traits<char>, std::__ndk1::allocator<char> >, std::__ndk1::__hash_value_type<std::__ndk1::basic_string<char, std::__ndk1::char_traits<char>, std::__ndk1::allocator<char> >, WorkingMode>, std::__ndk1::equal_to<std::__ndk1::basic_string<char, std::__ndk1::char_traits<char>, std::__ndk1::allocator<char> > >, std::__ndk1::hash<std::__ndk1::basic_string<char, std::__ndk1::char_traits<char>, std::__ndk1::allocator<char> > >, true>, std::__ndk1::allocator<std::__ndk1::__hash_value_type<std::__ndk1::basic_string<char, std::__ndk1::char_traits<char>, std::__ndk1::allocator<char> >, WorkingMode> > >::~__hash_table()
7bfc 8 1105 22
7c04 22 1111 22
7c26 1e 1112 22
FUNC 7c44 3a 0 std::__ndk1::unique_ptr<std::__ndk1::__hash_node<std::__ndk1::__hash_value_type<std::__ndk1::basic_string<char, std::__ndk1::char_traits<char>, std::__ndk1::allocator<char> >, WorkingMode>, void*>, std::__ndk1::__hash_node_destructor<std::__ndk1::allocator<std::__ndk1::__hash_node<std::__ndk1::__hash_value_type<std::__ndk1::basic_string<char, std::__ndk1::char_traits<char>, std::__ndk1::allocator<char> >, WorkingMode>, void*> > > >::~unique_ptr[abi:ne190000]()
7c44 3a 249 23
FUNC 7c80 114 0 geode::Mod::getSettingValue<std::__ndk1::basic_string<char, std::__ndk1::char_traits<char>, std::__ndk1::allocator<char> > >(std::__ndk1::basic_string_view<char, std::__ndk1::char_traits<char> >) const
7c80 18 238 11
7c98 6e 240 11
7d06 24 241 11
7d2a 32 240 11
7d5c 12 243 11
7d6e 10 244 11
7d7e 16 240 11
FUNC 7d94 144 0 _ZN5geode25listenForSettingChangesV3INSt6__ndk112basic_stringIcNS1_11char_traitsIcEENS1_9allocatorIcEEEEZ14fastGetSettingITn11TemplateStrXtlS9_ILj19EEtlA20_cLc110ELc111ELc114ELc109ELc97ELc108ELc45ELc119ELc111ELc114ELc107ELc105ELc110ELc103ELc45ELc109ELc111ELc100ELc101EEEES7_ET0_vEUlS7_E_EEPNS_13EventListenerINS_22SettingChangedFilterV3EEENS1_17basic_string_viewIcS4_EEOSC_PNS_3ModE
7d94 16 735 0
7daa 8 737 0
7db2 12 738 0
7dc4 40 743 0
7e04 d4 737 0
FUNC 7ed8 90 0 geode::EventListener<geode::SettingChangedFilterV3>::EventListener(std::__ndk1::function<void (std::__ndk1::shared_ptr<geode::SettingV3>)>, geode::SettingChangedFilterV3)
7ed8 c 158 24
7ee4 8 157 24
7eec 8 158 24
7ef4 2 156 24
7ef6 2 158 24
7ef8 2c 157 24
7f24 2 159 24
7f26 6 160 24
7f2c 3c 161 24
FUNC 7f68 3a 0 geode::SettingChangedFilterV3::~SettingChangedFilterV3()
7f68 3a 651 0
FUNC 7fa2 4 0 _ZNSt6__ndk110__function6__funcIZN5geode25listenForSettingChangesV3INS_12basic_stringIcNS_11char_traitsIcEENS_9allocatorIcEEEEZ14fastGetSettingITn11TemplateStrXtlSB_ILj19EEtlA20_cLc110ELc111ELc114ELc109ELc97ELc108ELc45ELc119ELc111ELc114ELc107ELc105ELc110ELc103ELc45ELc109ELc111ELc100ELc101EEEES9_ET0_vEUlS9_E_EEPNS2_13EventListenerINS2_22SettingChangedFilterV3EEENS_17basic_string_viewIcS6_EEOSE_PNS2_3ModEEUlNS_10shared_ptrINS2_9SettingV3EEEE_NS7_ISS_EEFvSR_EED0Ev
7fa2 4 253 25
FUNC 7fa8 20 0 _ZNKSt6__ndk110__function6__funcIZN5geode25listenForSettingChangesV3INS_12basic_stringIcNS_11char_traitsIcEENS_9allocatorIcEEEEZ14fastGetSettingITn11TemplateStrXtlSB_ILj19EEtlA20_cLc110ELc111ELc114ELc109ELc97ELc108ELc45ELc119ELc111ELc114ELc107ELc105ELc110ELc103ELc45ELc109ELc111ELc100ELc101EEEES9_ET0_vEUlS9_E_EEPNS2_13EventListenerINS2_22SettingChangedFilterV3EEENS_17basic_string_viewIcS6_EEOSE_PNS2_3ModEEUlNS_10shared_ptrINS2_9SettingV3EEEE_NS7_ISS_EEFvSR_EE7__cloneEv
7fa8 6 280 25
7fae 6 285 25
7fb4 c 286 25
7fc0 8 288 25
FUNC 7fc8 14 0 _ZNKSt6__ndk110__function6__funcIZN5geode25listenForSettingChangesV3INS_12basic_stringIcNS_11char_traitsIcEENS_9allocatorIcEEEEZ14fastGetSettingITn11TemplateStrXtlSB_ILj19EEtlA20_cLc110ELc111ELc114ELc109ELc97ELc108ELc45ELc119ELc111ELc114ELc107ELc105ELc110ELc103ELc45ELc109ELc111ELc100ELc101EEEES9_ET0_vEUlS9_E_EEPNS2_13EventListenerINS2_22SettingChangedFilterV3EEENS_17basic_string_viewIcS6_EEOSE_PNS2_3ModEEUlNS_10shared_ptrINS2_9SettingV3EEEE_NS7_ISS_EEFvSR_EE7__cloneEPNS0_6__baseISU_EE
7fc8 c 292 25
7fd4 8 293 25
FUNC 7fdc 2 0 _ZNSt6__ndk110__function6__funcIZN5geode25listenForSettingChangesV3INS_12basic_stringIcNS_11char_traitsIcEENS_9allocatorIcEEEEZ14fastGetSettingITn11TemplateStrXtlSB_ILj19EEtlA20_cLc110ELc111ELc114ELc109ELc97ELc108ELc45ELc119ELc111ELc114ELc107ELc105ELc110ELc103ELc45ELc109ELc111ELc100ELc101EEEES9_ET0_vEUlS9_E_EEPNS2_13EventListenerINS2_22SettingChangedFilterV3EEENS_17basic_string_viewIcS6_EEOSE_PNS2_3ModEEUlNS_10shared_ptrINS2_9SettingV3EEEE_NS7_ISS_EEFvSR_EE7destroyEv
7fdc 2 298 25
FUNC 7fde 4 0 _ZNSt6__ndk110__function6__funcIZN5geode25listenForSettingChangesV3INS_12basic_stringIcNS_11char_traitsIcEENS_9allocatorIcEEEEZ14fastGetSettingITn11TemplateStrXtlSB_ILj19EEtlA20_cLc110ELc111ELc114ELc109ELc97ELc108ELc45ELc119ELc111ELc114ELc107ELc105ELc110ELc103ELc45ELc109ELc111ELc100ELc101EEEES9_ET0_vEUlS9_E_EEPNS2_13EventListenerINS2_22SettingChangedFilterV3EEENS_17basic_string_viewIcS6_EEOSE_PNS2_3ModEEUlNS_10shared_ptrINS2_9SettingV3EEEE_NS7_ISS_EEFvSR_EE18destroy_deallocateEv
7fde 4 306 25
FUNC 7fe4 160 0 _ZNSt6__ndk110__function6__funcIZN5geode25listenForSettingChangesV3INS_12basic_stringIcNS_11char_traitsIcEENS_9allocatorIcEEEEZ14fastGetSettingITn11TemplateStrXtlSB_ILj19EEtlA20_cLc110ELc111ELc114ELc109ELc97ELc108ELc45ELc119ELc111ELc114ELc107ELc105ELc110ELc103ELc45ELc109ELc111ELc100ELc101EEEES9_ET0_vEUlS9_E_EEPNS2_13EventListenerINS2_22SettingChangedFilterV3EEENS_17basic_string_viewIcS6_EEOSE_PNS2_3ModEEUlNS_10shared_ptrINS2_9SettingV3EEEE_NS7_ISS_EEFvSR_EEclEOSR_
7fe4 12 310 25
7ff6 14e 311 25
FUNC 8144 18 0 _ZNKSt6__ndk110__function6__funcIZN5geode25listenForSettingChangesV3INS_12basic_stringIcNS_11char_traitsIcEENS_9allocatorIcEEEEZ14fastGetSettingITn11TemplateStrXtlSB_ILj19EEtlA20_cLc110ELc111ELc114ELc109ELc97ELc108ELc45ELc119ELc111ELc114ELc107ELc105ELc110ELc103ELc45ELc109ELc111ELc100ELc101EEEES9_ET0_vEUlS9_E_EEPNS2_13EventListenerINS2_22SettingChangedFilterV3EEENS_17basic_string_viewIcS6_EEOSE_PNS2_3ModEEUlNS_10shared_ptrINS2_9SettingV3EEEE_NS7_ISS_EEFvSR_EE6targetERKSt9type_info
8144 e 318 25
8152 a 321 25
FUNC 815c c 0 _ZNKSt6__ndk110__function6__funcIZN5geode25listenForSettingChangesV3INS_12basic_stringIcNS_11char_traitsIcEENS_9allocatorIcEEEEZ14fastGetSettingITn11TemplateStrXtlSB_ILj19EEtlA20_cLc110ELc111ELc114ELc109ELc97ELc108ELc45ELc119ELc111ELc114ELc107ELc105ELc110ELc103ELc45ELc109ELc111ELc100ELc101EEEES9_ET0_vEUlS9_E_EEPNS2_13EventListenerINS2_22SettingChangedFilterV3EEENS_17basic_string_viewIcS6_EEOSE_PNS2_3ModEEUlNS_10shared_ptrINS2_9SettingV3EEEE_NS7_ISS_EEFvSR_EE11target_typeEv
815c c 325 25
FUNC 8168 3a 0 std::__ndk1::shared_ptr<geode::SettingV3>::~shared_ptr[abi:ne190000]()
8168 4 649 12
816c 4 650 12
8170 1a 651 12
818a 4 652 12
818e 12 651 12
81a0 2 652 12
FUNC 81a2 3a 0 std::__ndk1::shared_ptr<geode::StringSettingV3>::~shared_ptr[abi:ne190000]()
81a2 4 649 12
81a6 4 650 12
81aa 1a 651 12
81c4 4 652 12
81c8 12 651 12
81da 2 652 12
FUNC 81dc 8c 0 geode::cast::traverseTypeinfoFor(void*, geode::cast::ClassTypeinfoType const*, char const*)
81dc a 57 1
81e6 4 59 1
81ea e 60 1
81f8 2 64 1
81fa 2 65 1
81fc 6 64 1
8202 8 65 1
820a 2 67 1
820c 2 60 1
820e 2 59 1
8210 a 60 1
821a 6 80 1
8220 e 69 1
822e 6 80 1
8234 a 71 1
823e 6 74 1
8244 4 73 1
8248 6 74 1
824e a 71 1
8258 10 80 1
FUNC 8268 66 0 std::__ndk1::basic_string<char, std::__ndk1::char_traits<char>, std::__ndk1::allocator<char> >::__assign_no_alias<true>(char const*, unsigned int)
8268 c 2462 16
8274 4 2464 16
8278 8 2469 16
8280 c 2470 16
828c 34 2476 16
82c0 8 2478 16
82c8 6 2476 16
FUNC 82ce a6 0 std::__ndk1::basic_string<char, std::__ndk1::char_traits<char>, std::__ndk1::allocator<char> >::__assign_no_alias<false>(char const*, unsigned int)
82ce a 2462 16
82d8 8 2463 16
82e0 4 2464 16
82e4 2 2468 16
82e6 2 2469 16
82e8 10 2470 16
82f8 6e 2476 16
8366 8 2478 16
836e 6 2476 16
FUNC 8374 4 0 geode::EventListener<geode::SettingChangedFilterV3>::getPool() const
8374 4 148 24
FUNC 8378 d4 0 geode::EventListener<geode::SettingChangedFilterV3>::handle(geode::Event*)
8378 e 138 24
8386 22 139 24
83a8 e 145 24
83b6 20 140 24
83d6 76 141 24
FUNC 844c 64 0 geode::EventListener<geode::SettingChangedFilterV3>::~EventListener()
844c 64 131 24
FUNC 84b0 68 0 geode::EventListener<geode::SettingChangedFilterV3>::~EventListener()
84b0 68 131 24
FUNC 8518 140 0 _ZN5geode25listenForSettingChangesV3INSt6__ndk112basic_stringIcNS1_11char_traitsIcEENS1_9allocatorIcEEEEZ14fastGetSettingITn11TemplateStrXtlS9_ILj21EEtlA22_cLc112ELc114ELc97ELc99ELc116ELc105ELc99ELc101ELc45ELc119ELc111ELc114ELc107ELc105ELc110ELc103ELc45ELc109ELc111ELc100ELc101EEEES7_ET0_vEUlS7_E_EEPNS_13EventListenerINS_22SettingChangedFilterV3EEENS1_17basic_string_viewIcS4_EEOSC_PNS_3ModE
8518 16 735 0
852e 8 737 0
8536 12 738 0
8548 3e 743 0
8586 d2 737 0
FUNC 8658 4 0 _ZNSt6__ndk110__function6__funcIZN5geode25listenForSettingChangesV3INS_12basic_stringIcNS_11char_traitsIcEENS_9allocatorIcEEEEZ14fastGetSettingITn11TemplateStrXtlSB_ILj21EEtlA22_cLc112ELc114ELc97ELc99ELc116ELc105ELc99ELc101ELc45ELc119ELc111ELc114ELc107ELc105ELc110ELc103ELc45ELc109ELc111ELc100ELc101EEEES9_ET0_vEUlS9_E_EEPNS2_13EventListenerINS2_22SettingChangedFilterV3EEENS_17basic_string_viewIcS6_EEOSE_PNS2_3ModEEUlNS_10shared_ptrINS2_9SettingV3EEEE_NS7_ISS_EEFvSR_EED0Ev
8658 4 253 25
FUNC 865c 20 0 _ZNKSt6__ndk110__function6__funcIZN5geode25listenForSettingChangesV3INS_12basic_stringIcNS_11char_traitsIcEENS_9allocatorIcEEEEZ14fastGetSettingITn11TemplateStrXtlSB_ILj21EEtlA22_cLc112ELc114ELc97ELc99ELc116ELc105ELc99ELc101ELc45ELc119ELc111ELc114ELc107ELc105ELc110ELc103ELc45ELc109ELc111ELc100ELc101EEEES9_ET0_vEUlS9_E_EEPNS2_13EventListenerINS2_22SettingChangedFilterV3EEENS_17basic_string_viewIcS6_EEOSE_PNS2_3ModEEUlNS_10shared_ptrINS2_9SettingV3EEEE_NS7_ISS_EEFvSR_EE7__cloneEv
865c 6 280 25
8662 6 285 25
8668 c 286 25
8674 8 288 25
FUNC 867c 14 0 _ZNKSt6__ndk110__function6__funcIZN5geode25listenForSettingChangesV3INS_12basic_stringIcNS_11char_traitsIcEENS_9allocatorIcEEEEZ14fastGetSettingITn11TemplateStrXtlSB_ILj21EEtlA22_cLc112ELc114ELc97ELc99ELc116ELc105ELc99ELc101ELc45ELc119ELc111ELc114ELc107ELc105ELc110ELc103ELc45ELc109ELc111ELc100ELc101EEEES9_ET0_vEUlS9_E_EEPNS2_13EventListenerINS2_22SettingChangedFilterV3EEENS_17basic_string_viewIcS6_EEOSE_PNS2_3ModEEUlNS_10shared_ptrINS2_9SettingV3EEEE_NS7_ISS_EEFvSR_EE7__cloneEPNS0_6__baseISU_EE
867c c 292 25
8688 8 293 25
FUNC 8690 2 0 _ZNSt6__ndk110__function6__funcIZN5geode25listenForSettingChangesV3INS_12basic_stringIcNS_11char_traitsIcEENS_9allocatorIcEEEEZ14fastGetSettingITn11TemplateStrXtlSB_ILj21EEtlA22_cLc112ELc114ELc97ELc99ELc116ELc105ELc99ELc101ELc45ELc119ELc111ELc114ELc107ELc105ELc110ELc103ELc45ELc109ELc111ELc100ELc101EEEES9_ET0_vEUlS9_E_EEPNS2_13EventListenerINS2_22SettingChangedFilterV3EEENS_17basic_string_viewIcS6_EEOSE_PNS2_3ModEEUlNS_10shared_ptrINS2_9SettingV3EEEE_NS7_ISS_EEFvSR_EE7destroyEv
8690 2 298 25
FUNC 8692 4 0 _ZNSt6__ndk110__function6__funcIZN5geode25listenForSettingChangesV3INS_12basic_stringIcNS_11char_traitsIcEENS_9allocatorIcEEEEZ14fastGetSettingITn11TemplateStrXtlSB_ILj21EEtlA22_cLc112ELc114ELc97ELc99ELc116ELc105ELc99ELc101ELc45ELc119ELc111ELc114ELc107ELc105ELc110ELc103ELc45ELc109ELc111ELc100ELc101EEEES9_ET0_vEUlS9_E_EEPNS2_13EventListenerINS2_22SettingChangedFilterV3EEENS_17basic_string_viewIcS6_EEOSE_PNS2_3ModEEUlNS_10shared_ptrINS2_9SettingV3EEEE_NS7_ISS_EEFvSR_EE18destroy_deallocateEv
8692 4 306 25
FUNC 8698 160 0 _ZNSt6__ndk110__function6__funcIZN5geode25listenForSettingChangesV3INS_12basic_stringIcNS_11char_traitsIcEENS_9allocatorIcEEEEZ14fastGetSettingITn11TemplateStrXtlSB_ILj21EEtlA22_cLc112ELc114ELc97ELc99ELc116ELc105ELc99ELc101ELc45ELc119ELc111ELc114ELc107ELc105ELc110ELc103ELc45ELc109ELc111ELc100ELc101EEEES9_ET0_vEUlS9_E_EEPNS2_13EventListenerINS2_22SettingChangedFilterV3EEENS_17basic_string_viewIcS6_EEOSE_PNS2_3ModEEUlNS_10shared_ptrINS2_9SettingV3EEEE_NS7_ISS_EEFvSR_EEclEOSR_
8698 12 310 25
86aa 14e 311 25
FUNC 87f8 18 0 _ZNKSt6__ndk110__function6__funcIZN5geode25listenForSettingChangesV3INS_12basic_stringIcNS_11char_traitsIcEENS_9allocatorIcEEEEZ14fastGetSettingITn11TemplateStrXtlSB_ILj21EEtlA22_cLc112ELc114ELc97ELc99ELc116ELc105ELc99ELc101ELc45ELc119ELc111ELc114ELc107ELc105ELc110ELc103ELc45ELc109ELc111ELc100ELc101EEEES9_ET0_vEUlS9_E_EEPNS2_13EventListenerINS2_22SettingChangedFilterV3EEENS_17basic_string_viewIcS6_EEOSE_PNS2_3ModEEUlNS_10shared_ptrINS2_9SettingV3EEEE_NS7_ISS_EEFvSR_EE6targetERKSt9type_info
87f8 e 318 25
8806 a 321 25
FUNC 8810 c 0 _ZNKSt6__ndk110__function6__funcIZN5geode25listenForSettingChangesV3INS_12basic_stringIcNS_11char_traitsIcEENS_9allocatorIcEEEEZ14fastGetSettingITn11TemplateStrXtlSB_ILj21EEtlA22_cLc112ELc114ELc97ELc99ELc116ELc105ELc99ELc101ELc45ELc119ELc111ELc114ELc107ELc105ELc110ELc103ELc45ELc109ELc111ELc100ELc101EEEES9_ET0_vEUlS9_E_EEPNS2_13EventListenerINS2_22SettingChangedFilterV3EEENS_17basic_string_viewIcS6_EEOSE_PNS2_3ModEEUlNS_10shared_ptrINS2_9SettingV3EEEE_NS7_ISS_EEFvSR_EE11target_typeEv
8810 c 325 25
FUNC 881c 138 0 _ZN5geode25listenForSettingChangesV3INSt6__ndk112basic_stringIcNS1_11char_traitsIcEENS1_9allocatorIcEEEEZ14fastGetSettingITn11TemplateStrXtlS9_ILj17EEtlA18_cLc101ELc110ELc98ELc121ELc45ELc119ELc111ELc114ELc107ELc105ELc110ELc103ELc45ELc109ELc111ELc100ELc101EEEES7_ET0_vEUlS7_E_EEPNS_13EventListenerINS_22SettingChangedFilterV3EEENS1_17basic_string_viewIcS4_EEOSC_PNS_3ModE
881c 16 735 0
8832 8 737 0
883a 12 738 0
884c 36 743 0
8882 d2 737 0
FUNC 8954 4 0 _ZNSt6__ndk110__function6__funcIZN5geode25listenForSettingChangesV3INS_12basic_stringIcNS_11char_traitsIcEENS_9allocatorIcEEEEZ14fastGetSettingITn11TemplateStrXtlSB_ILj17EEtlA18_cLc101ELc110ELc98ELc121ELc45ELc119ELc111ELc114ELc107ELc105ELc110ELc103ELc45ELc109ELc111ELc100ELc101EEEES9_ET0_vEUlS9_E_EEPNS2_13EventListenerINS2_22SettingChangedFilterV3EEENS_17basic_string_viewIcS6_EEOSE_PNS2_3ModEEUlNS_10shared_ptrINS2_9SettingV3EEEE_NS7_ISS_EEFvSR_EED0Ev
8954 4 253 25
FUNC 8958 20 0 _ZNKSt6__ndk110__function6__funcIZN5geode25listenForSettingChangesV3INS_12basic_stringIcNS_11char_traitsIcEENS_9allocatorIcEEEEZ14fastGetSettingITn11TemplateStrXtlSB_ILj17EEtlA18_cLc101ELc110ELc98ELc121ELc45ELc119ELc111ELc114ELc107ELc105ELc110ELc103ELc45ELc109ELc111ELc100ELc101EEEES9_ET0_vEUlS9_E_EEPNS2_13EventListenerINS2_22SettingChangedFilterV3EEENS_17basic_string_viewIcS6_EEOSE_PNS2_3ModEEUlNS_10shared_ptrINS2_9SettingV3EEEE_NS7_ISS_EEFvSR_EE7__cloneEv
8958 6 280 25
895e 6 285 25
8964 c 286 25
8970 8 288 25
FUNC 8978 14 0 _ZNKSt6__ndk110__function6__funcIZN5geode25listenForSettingChangesV3INS_12basic_stringIcNS_11char_traitsIcEENS_9allocatorIcEEEEZ14fastGetSettingITn11TemplateStrXtlSB_ILj17EEtlA18_cLc101ELc110ELc98ELc121ELc45ELc119ELc111ELc114ELc107ELc105ELc110ELc103ELc45ELc109ELc111ELc100ELc101EEEES9_ET0_vEUlS9_E_EEPNS2_13EventListenerINS2_22SettingChangedFilterV3EEENS_17basic_string_viewIcS6_EEOSE_PNS2_3ModEEUlNS_10shared_ptrINS2_9SettingV3EEEE_NS7_ISS_EEFvSR_EE7__cloneEPNS0_6__baseISU_EE
8978 c 292 25
8984 8 293 25
FUNC 898c 2 0 _ZNSt6__ndk110__function6__funcIZN5geode25listenForSettingChangesV3INS_12basic_stringIcNS_11char_traitsIcEENS_9allocatorIcEEEEZ14fastGetSettingITn11TemplateStrXtlSB_ILj17EEtlA18_cLc101ELc110ELc98ELc121ELc45ELc119ELc111ELc114ELc107ELc105ELc110ELc103ELc45ELc109ELc111ELc100ELc101EEEES9_ET0_vEUlS9_E_EEPNS2_13EventListenerINS2_22SettingChangedFilterV3EEENS_17basic_string_viewIcS6_EEOSE_PNS2_3ModEEUlNS_10shared_ptrINS2_9SettingV3EEEE_NS7_ISS_EEFvSR_EE7destroyEv
898c 2 298 25
FUNC 898e 4 0 _ZNSt6__ndk110__function6__funcIZN5geode25listenForSettingChangesV3INS_12basic_stringIcNS_11char_traitsIcEENS_9allocatorIcEEEEZ14fastGetSettingITn11TemplateStrXtlSB_ILj17EEtlA18_cLc101ELc110ELc98ELc121ELc45ELc119ELc111ELc114ELc107ELc105ELc110ELc103ELc45ELc109ELc111ELc100ELc101EEEES9_ET0_vEUlS9_E_EEPNS2_13EventListenerINS2_22SettingChangedFilterV3EEENS_17basic_string_viewIcS6_EEOSE_PNS2_3ModEEUlNS_10shared_ptrINS2_9SettingV3EEEE_NS7_ISS_EEFvSR_EE18destroy_deallocateEv
898e 4 306 25
FUNC 8994 160 0 _ZNSt6__ndk110__function6__funcIZN5geode25listenForSettingChangesV3INS_12basic_stringIcNS_11char_traitsIcEENS_9allocatorIcEEEEZ14fastGetSettingITn11TemplateStrXtlSB_ILj17EEtlA18_cLc101ELc110ELc98ELc121ELc45ELc119ELc111ELc114ELc107ELc105ELc110ELc103ELc45ELc109ELc111ELc100ELc101EEEES9_ET0_vEUlS9_E_EEPNS2_13EventListenerINS2_22SettingChangedFilterV3EEENS_17basic_string_viewIcS6_EEOSE_PNS2_3ModEEUlNS_10shared_ptrINS2_9SettingV3EEEE_NS7_ISS_EEFvSR_EEclEOSR_
8994 12 310 25
89a6 14e 311 25
FUNC 8af4 18 0 _ZNKSt6__ndk110__function6__funcIZN5geode25listenForSettingChangesV3INS_12basic_stringIcNS_11char_traitsIcEENS_9allocatorIcEEEEZ14fastGetSettingITn11TemplateStrXtlSB_ILj17EEtlA18_cLc101ELc110ELc98ELc121ELc45ELc119ELc111ELc114ELc107ELc105ELc110ELc103ELc45ELc109ELc111ELc100ELc101EEEES9_ET0_vEUlS9_E_EEPNS2_13EventListenerINS2_22SettingChangedFilterV3EEENS_17basic_string_viewIcS6_EEOSE_PNS2_3ModEEUlNS_10shared_ptrINS2_9SettingV3EEEE_NS7_ISS_EEFvSR_EE6targetERKSt9type_info
8af4 e 318 25
8b02 a 321 25
FUNC 8b0c c 0 _ZNKSt6__ndk110__function6__funcIZN5geode25listenForSettingChangesV3INS_12basic_stringIcNS_11char_traitsIcEENS_9allocatorIcEEEEZ14fastGetSettingITn11TemplateStrXtlSB_ILj17EEtlA18_cLc101ELc110ELc98ELc121ELc45ELc119ELc111ELc114ELc107ELc105ELc110ELc103ELc45ELc109ELc111ELc100ELc101EEEES9_ET0_vEUlS9_E_EEPNS2_13EventListenerINS2_22SettingChangedFilterV3EEENS_17basic_string_viewIcS6_EEOSE_PNS2_3ModEEUlNS_10shared_ptrINS2_9SettingV3EEEE_NS7_ISS_EEFvSR_EE11target_typeEv
8b0c c 325 25
FUNC 8b18 f4 0 geode::Mod::getSettingValue<cocos2d::_ccColor3B>(std::__ndk1::basic_string_view<char, std::__ndk1::char_traits<char> >) const
8b18 1c 238 11
8b34 5a 240 11
8b8e c 241 11
8b9a 56 240 11
8bf0 1c 244 11
FUNC 8c0c 144 0 _ZN5geode25listenForSettingChangesV3IN7cocos2d10_ccColor3BEZ14fastGetSettingITn11TemplateStrXtlS4_ILj19EEtlA20_cLc110ELc111ELc114ELc109ELc97ELc108ELc45ELc99ELc117ELc115ELc116ELc111ELc109ELc45ELc99ELc111ELc108ELc111ELc114EEEES2_ET0_vEUlS2_E_EEPNS_13EventListenerINS_22SettingChangedFilterV3EEENSt6__ndk117basic_string_viewIcNSD_11char_traitsIcEEEEOS7_PNS_3ModE
8c0c 16 735 0
8c22 8 737 0
8c2a 12 738 0
8c3c 40 743 0
8c7c d4 737 0
FUNC 8d50 4 0 _ZNSt6__ndk110__function6__funcIZN5geode25listenForSettingChangesV3IN7cocos2d10_ccColor3BEZ14fastGetSettingITn11TemplateStrXtlS7_ILj19EEtlA20_cLc110ELc111ELc114ELc109ELc97ELc108ELc45ELc99ELc117ELc115ELc116ELc111ELc109ELc45ELc99ELc111ELc108ELc111ELc114EEEES5_ET0_vEUlS5_E_EEPNS2_13EventListenerINS2_22SettingChangedFilterV3EEENS_17basic_string_viewIcNS_11char_traitsIcEEEEOSA_PNS2_3ModEEUlNS_10shared_ptrINS2_9SettingV3EEEE_NS_9allocatorISQ_EEFvSP_EED0Ev
8d50 4 253 25
FUNC 8d54 20 0 _ZNKSt6__ndk110__function6__funcIZN5geode25listenForSettingChangesV3IN7cocos2d10_ccColor3BEZ14fastGetSettingITn11TemplateStrXtlS7_ILj19EEtlA20_cLc110ELc111ELc114ELc109ELc97ELc108ELc45ELc99ELc117ELc115ELc116ELc111ELc109ELc45ELc99ELc111ELc108ELc111ELc114EEEES5_ET0_vEUlS5_E_EEPNS2_13EventListenerINS2_22SettingChangedFilterV3EEENS_17basic_string_viewIcNS_11char_traitsIcEEEEOSA_PNS2_3ModEEUlNS_10shared_ptrINS2_9SettingV3EEEE_NS_9allocatorISQ_EEFvSP_EE7__cloneEv
8d54 6 280 25
8d5a 6 285 25
8d60 c 286 25
8d6c 8 288 25
FUNC 8d74 14 0 _ZNKSt6__ndk110__function6__funcIZN5geode25listenForSettingChangesV3IN7cocos2d10_ccColor3BEZ14fastGetSettingITn11TemplateStrXtlS7_ILj19EEtlA20_cLc110ELc111ELc114ELc109ELc97ELc108ELc45ELc99ELc117ELc115ELc116ELc111ELc109ELc45ELc99ELc111ELc108ELc111ELc114EEEES5_ET0_vEUlS5_E_EEPNS2_13EventListenerINS2_22SettingChangedFilterV3EEENS_17basic_string_viewIcNS_11char_traitsIcEEEEOSA_PNS2_3ModEEUlNS_10shared_ptrINS2_9SettingV3EEEE_NS_9allocatorISQ_EEFvSP_EE7__cloneEPNS0_6__baseIST_EE
8d74 c 292 25
8d80 8 293 25
FUNC 8d88 2 0 _ZNSt6__ndk110__function6__funcIZN5geode25listenForSettingChangesV3IN7cocos2d10_ccColor3BEZ14fastGetSettingITn11TemplateStrXtlS7_ILj19EEtlA20_cLc110ELc111ELc114ELc109ELc97ELc108ELc45ELc99ELc117ELc115ELc116ELc111ELc109ELc45ELc99ELc111ELc108ELc111ELc114EEEES5_ET0_vEUlS5_E_EEPNS2_13EventListenerINS2_22SettingChangedFilterV3EEENS_17basic_string_viewIcNS_11char_traitsIcEEEEOSA_PNS2_3ModEEUlNS_10shared_ptrINS2_9SettingV3EEEE_NS_9allocatorISQ_EEFvSP_EE7destroyEv
8d88 2 298 25
FUNC 8d8a 4 0 _ZNSt6__ndk110__function6__funcIZN5geode25listenForSettingChangesV3IN7cocos2d10_ccColor3BEZ14fastGetSettingITn11TemplateStrXtlS7_ILj19EEtlA20_cLc110ELc111ELc114ELc109ELc97ELc108ELc45ELc99ELc117ELc115ELc116ELc111ELc109ELc45ELc99ELc111ELc108ELc111ELc114EEEES5_ET0_vEUlS5_E_EEPNS2_13EventListenerINS2_22SettingChangedFilterV3EEENS_17basic_string_viewIcNS_11char_traitsIcEEEEOSA_PNS2_3ModEEUlNS_10shared_ptrINS2_9SettingV3EEEE_NS_9allocatorISQ_EEFvSP_EE18destroy_deallocateEv
8d8a 4 306 25
FUNC 8d90 b0 0 _ZNSt6__ndk110__function6__funcIZN5geode25listenForSettingChangesV3IN7cocos2d10_ccColor3BEZ14fastGetSettingITn11TemplateStrXtlS7_ILj19EEtlA20_cLc110ELc111ELc114ELc109ELc97ELc108ELc45ELc99ELc117ELc115ELc116ELc111ELc109ELc45ELc99ELc111ELc108ELc111ELc114EEEES5_ET0_vEUlS5_E_EEPNS2_13EventListenerINS2_22SettingChangedFilterV3EEENS_17basic_string_viewIcNS_11char_traitsIcEEEEOSA_PNS2_3ModEEUlNS_10shared_ptrINS2_9SettingV3EEEE_NS_9allocatorISQ_EEFvSP_EEclEOSP_
8d90 4 310 25
8d94 ac 311 25
FUNC 8e40 18 0 _ZNKSt6__ndk110__function6__funcIZN5geode25listenForSettingChangesV3IN7cocos2d10_ccColor3BEZ14fastGetSettingITn11TemplateStrXtlS7_ILj19EEtlA20_cLc110ELc111ELc114ELc109ELc97ELc108ELc45ELc99ELc117ELc115ELc116ELc111ELc109ELc45ELc99ELc111ELc108ELc111ELc114EEEES5_ET0_vEUlS5_E_EEPNS2_13EventListenerINS2_22SettingChangedFilterV3EEENS_17basic_string_viewIcNS_11char_traitsIcEEEEOSA_PNS2_3ModEEUlNS_10shared_ptrINS2_9SettingV3EEEE_NS_9allocatorISQ_EEFvSP_EE6targetERKSt9type_info
8e40 e 318 25
8e4e a 321 25
FUNC 8e58 c 0 _ZNKSt6__ndk110__function6__funcIZN5geode25listenForSettingChangesV3IN7cocos2d10_ccColor3BEZ14fastGetSettingITn11TemplateStrXtlS7_ILj19EEtlA20_cLc110ELc111ELc114ELc109ELc97ELc108ELc45ELc99ELc117ELc115ELc116ELc111ELc109ELc45ELc99ELc111ELc108ELc111ELc114EEEES5_ET0_vEUlS5_E_EEPNS2_13EventListenerINS2_22SettingChangedFilterV3EEENS_17basic_string_viewIcNS_11char_traitsIcEEEEOSA_PNS2_3ModEEUlNS_10shared_ptrINS2_9SettingV3EEEE_NS_9allocatorISQ_EEFvSP_EE11target_typeEv
8e58 c 325 25
FUNC 8e64 140 0 _ZN5geode25listenForSettingChangesV3IN7cocos2d10_ccColor3BEZ14fastGetSettingITn11TemplateStrXtlS4_ILj21EEtlA22_cLc112ELc114ELc97ELc99ELc116ELc105ELc99ELc101ELc45ELc99ELc117ELc115ELc116ELc111ELc109ELc45ELc99ELc111ELc108ELc111ELc114EEEES2_ET0_vEUlS2_E_EEPNS_13EventListenerINS_22SettingChangedFilterV3EEENSt6__ndk117basic_string_viewIcNSD_11char_traitsIcEEEEOS7_PNS_3ModE
8e64 16 735 0
8e7a 8 737 0
8e82 12 738 0
8e94 3e 743 0
8ed2 d2 737 0
FUNC 8fa4 4 0 _ZNSt6__ndk110__function6__funcIZN5geode25listenForSettingChangesV3IN7cocos2d10_ccColor3BEZ14fastGetSettingITn11TemplateStrXtlS7_ILj21EEtlA22_cLc112ELc114ELc97ELc99ELc116ELc105ELc99ELc101ELc45ELc99ELc117ELc115ELc116ELc111ELc109ELc45ELc99ELc111ELc108ELc111ELc114EEEES5_ET0_vEUlS5_E_EEPNS2_13EventListenerINS2_22SettingChangedFilterV3EEENS_17basic_string_viewIcNS_11char_traitsIcEEEEOSA_PNS2_3ModEEUlNS_10shared_ptrINS2_9SettingV3EEEE_NS_9allocatorISQ_EEFvSP_EED0Ev
8fa4 4 253 25
FUNC 8fa8 20 0 _ZNKSt6__ndk110__function6__funcIZN5geode25listenForSettingChangesV3IN7cocos2d10_ccColor3BEZ14fastGetSettingITn11TemplateStrXtlS7_ILj21EEtlA22_cLc112ELc114ELc97ELc99ELc116ELc105ELc99ELc101ELc45ELc99ELc117ELc115ELc116ELc111ELc109ELc45ELc99ELc111ELc108ELc111ELc114EEEES5_ET0_vEUlS5_E_EEPNS2_13EventListenerINS2_22SettingChangedFilterV3EEENS_17basic_string_viewIcNS_11char_traitsIcEEEEOSA_PNS2_3ModEEUlNS_10shared_ptrINS2_9SettingV3EEEE_NS_9allocatorISQ_EEFvSP_EE7__cloneEv
8fa8 6 280 25
8fae 6 285 25
8fb4 c 286 25
8fc0 8 288 25
FUNC 8fc8 14 0 _ZNKSt6__ndk110__function6__funcIZN5geode25listenForSettingChangesV3IN7cocos2d10_ccColor3BEZ14fastGetSettingITn11TemplateStrXtlS7_ILj21EEtlA22_cLc112ELc114ELc97ELc99ELc116ELc105ELc99ELc101ELc45ELc99ELc117ELc115ELc116ELc111ELc109ELc45ELc99ELc111ELc108ELc111ELc114EEEES5_ET0_vEUlS5_E_EEPNS2_13EventListenerINS2_22SettingChangedFilterV3EEENS_17basic_string_viewIcNS_11char_traitsIcEEEEOSA_PNS2_3ModEEUlNS_10shared_ptrINS2_9SettingV3EEEE_NS_9allocatorISQ_EEFvSP_EE7__cloneEPNS0_6__baseIST_EE
8fc8 c 292 25
8fd4 8 293 25
FUNC 8fdc 2 0 _ZNSt6__ndk110__function6__funcIZN5geode25listenForSettingChangesV3IN7cocos2d10_ccColor3BEZ14fastGetSettingITn11TemplateStrXtlS7_ILj21EEtlA22_cLc112ELc114ELc97ELc99ELc116ELc105ELc99ELc101ELc45ELc99ELc117ELc115ELc116ELc111ELc109ELc45ELc99ELc111ELc108ELc111ELc114EEEES5_ET0_vEUlS5_E_EEPNS2_13EventListenerINS2_22SettingChangedFilterV3EEENS_17basic_string_viewIcNS_11char_traitsIcEEEEOSA_PNS2_3ModEEUlNS_10shared_ptrINS2_9SettingV3EEEE_NS_9allocatorISQ_EEFvSP_EE7destroyEv
8fdc 2 298 25
FUNC 8fde 4 0 _ZNSt6__ndk110__function6__funcIZN5geode25listenForSettingChangesV3IN7cocos2d10_ccColor3BEZ14fastGetSettingITn11TemplateStrXtlS7_ILj21EEtlA22_cLc112ELc114ELc97ELc99ELc116ELc105ELc99ELc101ELc45ELc99ELc117ELc115ELc116ELc111ELc109ELc45ELc99ELc111ELc108ELc111ELc114EEEES5_ET0_vEUlS5_E_EEPNS2_13EventListenerINS2_22SettingChangedFilterV3EEENS_17basic_string_viewIcNS_11char_traitsIcEEEEOSA_PNS2_3ModEEUlNS_10shared_ptrINS2_9SettingV3EEEE_NS_9allocatorISQ_EEFvSP_EE18destroy_deallocateEv
8fde 4 306 25
FUNC 8fe4 b0 0 _ZNSt6__ndk110__function6__funcIZN5geode25listenForSettingChangesV3IN7cocos2d10_ccColor3BEZ14fastGetSettingITn11TemplateStrXtlS7_ILj21EEtlA22_cLc112ELc114ELc97ELc99ELc116ELc105ELc99ELc101ELc45ELc99ELc117ELc115ELc116ELc111ELc109ELc45ELc99ELc111ELc108ELc111ELc114EEEES5_ET0_vEUlS5_E_EEPNS2_13EventListenerINS2_22SettingChangedFilterV3EEENS_17basic_string_viewIcNS_11char_traitsIcEEEEOSA_PNS2_3ModEEUlNS_10shared_ptrINS2_9SettingV3EEEE_NS_9allocatorISQ_EEFvSP_EEclEOSP_
8fe4 4 310 25
8fe8 ac 311 25
FUNC 9094 18 0 _ZNKSt6__ndk110__function6__funcIZN5geode25listenForSettingChangesV3IN7cocos2d10_ccColor3BEZ14fastGetSettingITn11TemplateStrXtlS7_ILj21EEtlA22_cLc112ELc114ELc97ELc99ELc116ELc105ELc99ELc101ELc45ELc99ELc117ELc115ELc116ELc111ELc109ELc45ELc99ELc111ELc108ELc111ELc114EEEES5_ET0_vEUlS5_E_EEPNS2_13EventListenerINS2_22SettingChangedFilterV3EEENS_17basic_string_viewIcNS_11char_traitsIcEEEEOSA_PNS2_3ModEEUlNS_10shared_ptrINS2_9SettingV3EEEE_NS_9allocatorISQ_EEFvSP_EE6targetERKSt9type_info
9094 e 318 25
90a2 a 321 25
FUNC 90ac c 0 _ZNKSt6__ndk110__function6__funcIZN5geode25listenForSettingChangesV3IN7cocos2d10_ccColor3BEZ14fastGetSettingITn11TemplateStrXtlS7_ILj21EEtlA22_cLc112ELc114ELc97ELc99ELc116ELc105ELc99ELc101ELc45ELc99ELc117ELc115ELc116ELc111ELc109ELc45ELc99ELc111ELc108ELc111ELc114EEEES5_ET0_vEUlS5_E_EEPNS2_13EventListenerINS2_22SettingChangedFilterV3EEENS_17basic_string_viewIcNS_11char_traitsIcEEEEOSA_PNS2_3ModEEUlNS_10shared_ptrINS2_9SettingV3EEEE_NS_9allocatorISQ_EEFvSP_EE11target_typeEv
90ac c 325 25
FUNC 90b8 138 0 _ZN5geode25listenForSettingChangesV3IN7cocos2d10_ccColor3BEZ14fastGetSettingITn11TemplateStrXtlS4_ILj17EEtlA18_cLc101ELc110ELc98ELc121ELc45ELc99ELc117ELc115ELc116ELc111ELc109ELc45ELc99ELc111ELc108ELc111ELc114EEEES2_ET0_vEUlS2_E_EEPNS_13EventListenerINS_22SettingChangedFilterV3EEENSt6__ndk117basic_string_viewIcNSD_11char_traitsIcEEEEOS7_PNS_3ModE
90b8 16 735 0
90ce 8 737 0
90d6 12 738 0
90e8 36 743 0
911e d2 737 0
FUNC 91f0 4 0 _ZNSt6__ndk110__function6__funcIZN5geode25listenForSettingChangesV3IN7cocos2d10_ccColor3BEZ14fastGetSettingITn11TemplateStrXtlS7_ILj17EEtlA18_cLc101ELc110ELc98ELc121ELc45ELc99ELc117ELc115ELc116ELc111ELc109ELc45ELc99ELc111ELc108ELc111ELc114EEEES5_ET0_vEUlS5_E_EEPNS2_13EventListenerINS2_22SettingChangedFilterV3EEENS_17basic_string_viewIcNS_11char_traitsIcEEEEOSA_PNS2_3ModEEUlNS_10shared_ptrINS2_9SettingV3EEEE_NS_9allocatorISQ_EEFvSP_EED0Ev
91f0 4 253 25
FUNC 91f4 20 0 _ZNKSt6__ndk110__function6__funcIZN5geode25listenForSettingChangesV3IN7cocos2d10_ccColor3BEZ14fastGetSettingITn11TemplateStrXtlS7_ILj17EEtlA18_cLc101ELc110ELc98ELc121ELc45ELc99ELc117ELc115ELc116ELc111ELc109ELc45ELc99ELc111ELc108ELc111ELc114EEEES5_ET0_vEUlS5_E_EEPNS2_13EventListenerINS2_22SettingChangedFilterV3EEENS_17basic_string_viewIcNS_11char_traitsIcEEEEOSA_PNS2_3ModEEUlNS_10shared_ptrINS2_9SettingV3EEEE_NS_9allocatorISQ_EEFvSP_EE7__cloneEv
91f4 6 280 25
91fa 6 285 25
9200 c 286 25
920c 8 288 25
FUNC 9214 14 0 _ZNKSt6__ndk110__function6__funcIZN5geode25listenForSettingChangesV3IN7cocos2d10_ccColor3BEZ14fastGetSettingITn11TemplateStrXtlS7_ILj17EEtlA18_cLc101ELc110ELc98ELc121ELc45ELc99ELc117ELc115ELc116ELc111ELc109ELc45ELc99ELc111ELc108ELc111ELc114EEEES5_ET0_vEUlS5_E_EEPNS2_13EventListenerINS2_22SettingChangedFilterV3EEENS_17basic_string_viewIcNS_11char_traitsIcEEEEOSA_PNS2_3ModEEUlNS_10shared_ptrINS2_9SettingV3EEEE_NS_9allocatorISQ_EEFvSP_EE7__cloneEPNS0_6__baseIST_EE
9214 c 292 25
9220 8 293 25
FUNC 9228 2 0 _ZNSt6__ndk110__function6__funcIZN5geode25listenForSettingChangesV3IN7cocos2d10_ccColor3BEZ14fastGetSettingITn11TemplateStrXtlS7_ILj17EEtlA18_cLc101ELc110ELc98ELc121ELc45ELc99ELc117ELc115ELc116ELc111ELc109ELc45ELc99ELc111ELc108ELc111ELc114EEEES5_ET0_vEUlS5_E_EEPNS2_13EventListenerINS2_22SettingChangedFilterV3EEENS_17basic_string_viewIcNS_11char_traitsIcEEEEOSA_PNS2_3ModEEUlNS_10shared_ptrINS2_9SettingV3EEEE_NS_9allocatorISQ_EEFvSP_EE7destroyEv
9228 2 298 25
FUNC 922a 4 0 _ZNSt6__ndk110__function6__funcIZN5geode25listenForSettingChangesV3IN7cocos2d10_ccColor3BEZ14fastGetSettingITn11TemplateStrXtlS7_ILj17EEtlA18_cLc101ELc110ELc98ELc121ELc45ELc99ELc117ELc115ELc116ELc111ELc109ELc45ELc99ELc111ELc108ELc111ELc114EEEES5_ET0_vEUlS5_E_EEPNS2_13EventListenerINS2_22SettingChangedFilterV3EEENS_17basic_string_viewIcNS_11char_traitsIcEEEEOSA_PNS2_3ModEEUlNS_10shared_ptrINS2_9SettingV3EEEE_NS_9allocatorISQ_EEFvSP_EE18destroy_deallocateEv
922a 4 306 25
FUNC 9230 b0 0 _ZNSt6__ndk110__function6__funcIZN5geode25listenForSettingChangesV3IN7cocos2d10_ccColor3BEZ14fastGetSettingITn11TemplateStrXtlS7_ILj17EEtlA18_cLc101ELc110ELc98ELc121ELc45ELc99ELc117ELc115ELc116ELc111ELc109ELc45ELc99ELc111ELc108ELc111ELc114EEEES5_ET0_vEUlS5_E_EEPNS2_13EventListenerINS2_22SettingChangedFilterV3EEENS_17basic_string_viewIcNS_11char_traitsIcEEEEOSA_PNS2_3ModEEUlNS_10shared_ptrINS2_9SettingV3EEEE_NS_9allocatorISQ_EEFvSP_EEclEOSP_
9230 4 310 25
9234 ac 311 25
FUNC 92e0 18 0 _ZNKSt6__ndk110__function6__funcIZN5geode25listenForSettingChangesV3IN7cocos2d10_ccColor3BEZ14fastGetSettingITn11TemplateStrXtlS7_ILj17EEtlA18_cLc101ELc110ELc98ELc121ELc45ELc99ELc117ELc115ELc116ELc111ELc109ELc45ELc99ELc111ELc108ELc111ELc114EEEES5_ET0_vEUlS5_E_EEPNS2_13EventListenerINS2_22SettingChangedFilterV3EEENS_17basic_string_viewIcNS_11char_traitsIcEEEEOSA_PNS2_3ModEEUlNS_10shared_ptrINS2_9SettingV3EEEE_NS_9allocatorISQ_EEFvSP_EE6targetERKSt9type_info
92e0 e 318 25
92ee a 321 25
FUNC 92f8 c 0 _ZNKSt6__ndk110__function6__funcIZN5geode25listenForSettingChangesV3IN7cocos2d10_ccColor3BEZ14fastGetSettingITn11TemplateStrXtlS7_ILj17EEtlA18_cLc101ELc110ELc98ELc121ELc45ELc99ELc117ELc115ELc116ELc111ELc109ELc45ELc99ELc111ELc108ELc111ELc114EEEES5_ET0_vEUlS5_E_EEPNS2_13EventListenerINS2_22SettingChangedFilterV3EEENS_17basic_string_viewIcNS_11char_traitsIcEEEEOSA_PNS2_3ModEEUlNS_10shared_ptrINS2_9SettingV3EEEE_NS_9allocatorISQ_EEFvSP_EE11target_typeEv
92f8 c 325 25
FUNC 9304 f4 0 geode::Mod::getSettingValue<bool>(std::__ndk1::basic_string_view<char, std::__ndk1::char_traits<char> >) const
9304 a 238 11
930e 70 240 11
937e 4 241 11
9382 58 240 11
93da 1e 244 11
FUNC 93f8 138 0 _ZN5geode25listenForSettingChangesV3IbZ14fastGetSettingITn11TemplateStrXtlS2_ILj17EEtlA18_cLc112ELc114ELc97ELc99ELc116ELc105ELc99ELc101ELc45ELc111ELc118ELc101ELc114ELc114ELc105ELc100ELc101EEEEbET0_vEUlbE_EEPNS_13EventListenerINS_22SettingChangedFilterV3EEENSt6__ndk117basic_string_viewIcNSB_11char_traitsIcEEEEOS5_PNS_3ModE
93f8 16 735 0
940e 8 737 0
9416 12 738 0
9428 36 743 0
945e d2 737 0
FUNC 9530 4 0 _ZNSt6__ndk110__function6__funcIZN5geode25listenForSettingChangesV3IbZ14fastGetSettingITn11TemplateStrXtlS5_ILj17EEtlA18_cLc112ELc114ELc97ELc99ELc116ELc105ELc99ELc101ELc45ELc111ELc118ELc101ELc114ELc114ELc105ELc100ELc101EEEEbET0_vEUlbE_EEPNS2_13EventListenerINS2_22SettingChangedFilterV3EEENS_17basic_string_viewIcNS_11char_traitsIcEEEEOS8_PNS2_3ModEEUlNS_10shared_ptrINS2_9SettingV3EEEE_NS_9allocatorISO_EEFvSN_EED0Ev
9530 4 253 25
FUNC 9534 20 0 _ZNKSt6__ndk110__function6__funcIZN5geode25listenForSettingChangesV3IbZ14fastGetSettingITn11TemplateStrXtlS5_ILj17EEtlA18_cLc112ELc114ELc97ELc99ELc116ELc105ELc99ELc101ELc45ELc111ELc118ELc101ELc114ELc114ELc105ELc100ELc101EEEEbET0_vEUlbE_EEPNS2_13EventListenerINS2_22SettingChangedFilterV3EEENS_17basic_string_viewIcNS_11char_traitsIcEEEEOS8_PNS2_3ModEEUlNS_10shared_ptrINS2_9SettingV3EEEE_NS_9allocatorISO_EEFvSN_EE7__cloneEv
9534 6 280 25
953a 6 285 25
9540 c 286 25
954c 8 288 25
FUNC 9554 14 0 _ZNKSt6__ndk110__function6__funcIZN5geode25listenForSettingChangesV3IbZ14fastGetSettingITn11TemplateStrXtlS5_ILj17EEtlA18_cLc112ELc114ELc97ELc99ELc116ELc105ELc99ELc101ELc45ELc111ELc118ELc101ELc114ELc114ELc105ELc100ELc101EEEEbET0_vEUlbE_EEPNS2_13EventListenerINS2_22SettingChangedFilterV3EEENS_17basic_string_viewIcNS_11char_traitsIcEEEEOS8_PNS2_3ModEEUlNS_10shared_ptrINS2_9SettingV3EEEE_NS_9allocatorISO_EEFvSN_EE7__cloneEPNS0_6__baseISR_EE
9554 c 292 25
9560 8 293 25
FUNC 9568 2 0 _ZNSt6__ndk110__function6__funcIZN5geode25listenForSettingChangesV3IbZ14fastGetSettingITn11TemplateStrXtlS5_ILj17EEtlA18_cLc112ELc114ELc97ELc99ELc116ELc105ELc99ELc101ELc45ELc111ELc118ELc101ELc114ELc114ELc105ELc100ELc101EEEEbET0_vEUlbE_EEPNS2_13EventListenerINS2_22SettingChangedFilterV3EEENS_17basic_string_viewIcNS_11char_traitsIcEEEEOS8_PNS2_3ModEEUlNS_10shared_ptrINS2_9SettingV3EEEE_NS_9allocatorISO_EEFvSN_EE7destroyEv
9568 2 298 25
FUNC 956a 4 0 _ZNSt6__ndk110__function6__funcIZN5geode25listenForSettingChangesV3IbZ14fastGetSettingITn11TemplateStrXtlS5_ILj17EEtlA18_cLc112ELc114ELc97ELc99ELc116ELc105ELc99ELc101ELc45ELc111ELc118ELc101ELc114ELc114ELc105ELc100ELc101EEEEbET0_vEUlbE_EEPNS2_13EventListenerINS2_22SettingChangedFilterV3EEENS_17basic_string_viewIcNS_11char_traitsIcEEEEOS8_PNS2_3ModEEUlNS_10shared_ptrINS2_9SettingV3EEEE_NS_9allocatorISO_EEFvSN_EE18destroy_deallocateEv
956a 4 306 25
FUNC 9570 ac 0 _ZNSt6__ndk110__function6__funcIZN5geode25listenForSettingChangesV3IbZ14fastGetSettingITn11TemplateStrXtlS5_ILj17EEtlA18_cLc112ELc114ELc97ELc99ELc116ELc105ELc99ELc101ELc45ELc111ELc118ELc101ELc114ELc114ELc105ELc100ELc101EEEEbET0_vEUlbE_EEPNS2_13EventListenerINS2_22SettingChangedFilterV3EEENS_17basic_string_viewIcNS_11char_traitsIcEEEEOS8_PNS2_3ModEEUlNS_10shared_ptrINS2_9SettingV3EEEE_NS_9allocatorISO_EEFvSN_EEclEOSN_
9570 4 310 25
9574 a8 311 25
FUNC 961c 18 0 _ZNKSt6__ndk110__function6__funcIZN5geode25listenForSettingChangesV3IbZ14fastGetSettingITn11TemplateStrXtlS5_ILj17EEtlA18_cLc112ELc114ELc97ELc99ELc116ELc105ELc99ELc101ELc45ELc111ELc118ELc101ELc114ELc114ELc105ELc100ELc101EEEEbET0_vEUlbE_EEPNS2_13EventListenerINS2_22SettingChangedFilterV3EEENS_17basic_string_viewIcNS_11char_traitsIcEEEEOS8_PNS2_3ModEEUlNS_10shared_ptrINS2_9SettingV3EEEE_NS_9allocatorISO_EEFvSN_EE6targetERKSt9type_info
961c e 318 25
962a a 321 25
FUNC 9634 c 0 _ZNKSt6__ndk110__function6__funcIZN5geode25listenForSettingChangesV3IbZ14fastGetSettingITn11TemplateStrXtlS5_ILj17EEtlA18_cLc112ELc114ELc97ELc99ELc116ELc105ELc99ELc101ELc45ELc111ELc118ELc101ELc114ELc114ELc105ELc100ELc101EEEEbET0_vEUlbE_EEPNS2_13EventListenerINS2_22SettingChangedFilterV3EEENS_17basic_string_viewIcNS_11char_traitsIcEEEEOS8_PNS2_3ModEEUlNS_10shared_ptrINS2_9SettingV3EEEE_NS_9allocatorISO_EEFvSN_EE11target_typeEv
9634 c 325 25
FUNC 9640 fc 0 geode::Mod::getSettingValue<double>(std::__ndk1::basic_string_view<char, std::__ndk1::char_traits<char> >) const
9640 20 238 11
9660 5a 240 11
96ba 6 241 11
96c0 5c 240 11
971c 20 244 11
FUNC 973c 13c 0 _ZN5geode25listenForSettingChangesV3IdZ14fastGetSettingITn11TemplateStrXtlS2_ILj18EEtlA19_cLc112ELc114ELc97ELc99ELc116ELc105ELc99ELc101ELc45ELc114ELc103ELc98ELc45ELc115ELc112ELc101ELc101ELc100EEEEdET0_vEUldE_EEPNS_13EventListenerINS_22SettingChangedFilterV3EEENSt6__ndk117basic_string_viewIcNSB_11char_traitsIcEEEEOS5_PNS_3ModE
973c 16 735 0
9752 8 737 0
975a 12 738 0
976c 3a 743 0
97a6 d2 737 0
FUNC 9878 4 0 _ZNSt6__ndk110__function6__funcIZN5geode25listenForSettingChangesV3IdZ14fastGetSettingITn11TemplateStrXtlS5_ILj18EEtlA19_cLc112ELc114ELc97ELc99ELc116ELc105ELc99ELc101ELc45ELc114ELc103ELc98ELc45ELc115ELc112ELc101ELc101ELc100EEEEdET0_vEUldE_EEPNS2_13EventListenerINS2_22SettingChangedFilterV3EEENS_17basic_string_viewIcNS_11char_traitsIcEEEEOS8_PNS2_3ModEEUlNS_10shared_ptrINS2_9SettingV3EEEE_NS_9allocatorISO_EEFvSN_EED0Ev
9878 4 253 25
FUNC 987c 20 0 _ZNKSt6__ndk110__function6__funcIZN5geode25listenForSettingChangesV3IdZ14fastGetSettingITn11TemplateStrXtlS5_ILj18EEtlA19_cLc112ELc114ELc97ELc99ELc116ELc105ELc99ELc101ELc45ELc114ELc103ELc98ELc45ELc115ELc112ELc101ELc101ELc100EEEEdET0_vEUldE_EEPNS2_13EventListenerINS2_22SettingChangedFilterV3EEENS_17basic_string_viewIcNS_11char_traitsIcEEEEOS8_PNS2_3ModEEUlNS_10shared_ptrINS2_9SettingV3EEEE_NS_9allocatorISO_EEFvSN_EE7__cloneEv
987c 6 280 25
9882 6 285 25
9888 c 286 25
9894 8 288 25
FUNC 989c 14 0 _ZNKSt6__ndk110__function6__funcIZN5geode25listenForSettingChangesV3IdZ14fastGetSettingITn11TemplateStrXtlS5_ILj18EEtlA19_cLc112ELc114ELc97ELc99ELc116ELc105ELc99ELc101ELc45ELc114ELc103ELc98ELc45ELc115ELc112ELc101ELc101ELc100EEEEdET0_vEUldE_EEPNS2_13EventListenerINS2_22SettingChangedFilterV3EEENS_17basic_string_viewIcNS_11char_traitsIcEEEEOS8_PNS2_3ModEEUlNS_10shared_ptrINS2_9SettingV3EEEE_NS_9allocatorISO_EEFvSN_EE7__cloneEPNS0_6__baseISR_EE
989c c 292 25
98a8 8 293 25
FUNC 98b0 2 0 _ZNSt6__ndk110__function6__funcIZN5geode25listenForSettingChangesV3IdZ14fastGetSettingITn11TemplateStrXtlS5_ILj18EEtlA19_cLc112ELc114ELc97ELc99ELc116ELc105ELc99ELc101ELc45ELc114ELc103ELc98ELc45ELc115ELc112ELc101ELc101ELc100EEEEdET0_vEUldE_EEPNS2_13EventListenerINS2_22SettingChangedFilterV3EEENS_17basic_string_viewIcNS_11char_traitsIcEEEEOS8_PNS2_3ModEEUlNS_10shared_ptrINS2_9SettingV3EEEE_NS_9allocatorISO_EEFvSN_EE7destroyEv
98b0 2 298 25
FUNC 98b2 4 0 _ZNSt6__ndk110__function6__funcIZN5geode25listenForSettingChangesV3IdZ14fastGetSettingITn11TemplateStrXtlS5_ILj18EEtlA19_cLc112ELc114ELc97ELc99ELc116ELc105ELc99ELc101ELc45ELc114ELc103ELc98ELc45ELc115ELc112ELc101ELc101ELc100EEEEdET0_vEUldE_EEPNS2_13EventListenerINS2_22SettingChangedFilterV3EEENS_17basic_string_viewIcNS_11char_traitsIcEEEEOS8_PNS2_3ModEEUlNS_10shared_ptrINS2_9SettingV3EEEE_NS_9allocatorISO_EEFvSN_EE18destroy_deallocateEv
98b2 4 306 25
FUNC 98b8 b0 0 _ZNSt6__ndk110__function6__funcIZN5geode25listenForSettingChangesV3IdZ14fastGetSettingITn11TemplateStrXtlS5_ILj18EEtlA19_cLc112ELc114ELc97ELc99ELc116ELc105ELc99ELc101ELc45ELc114ELc103ELc98ELc45ELc115ELc112ELc101ELc101ELc100EEEEdET0_vEUldE_EEPNS2_13EventListenerINS2_22SettingChangedFilterV3EEENS_17basic_string_viewIcNS_11char_traitsIcEEEEOS8_PNS2_3ModEEUlNS_10shared_ptrINS2_9SettingV3EEEE_NS_9allocatorISO_EEFvSN_EEclEOSN_
98b8 4 310 25
98bc ac 311 25
FUNC 9968 18 0 _ZNKSt6__ndk110__function6__funcIZN5geode25listenForSettingChangesV3IdZ14fastGetSettingITn11TemplateStrXtlS5_ILj18EEtlA19_cLc112ELc114ELc97ELc99ELc116ELc105ELc99ELc101ELc45ELc114ELc103ELc98ELc45ELc115ELc112ELc101ELc101ELc100EEEEdET0_vEUldE_EEPNS2_13EventListenerINS2_22SettingChangedFilterV3EEENS_17basic_string_viewIcNS_11char_traitsIcEEEEOS8_PNS2_3ModEEUlNS_10shared_ptrINS2_9SettingV3EEEE_NS_9allocatorISO_EEFvSN_EE6targetERKSt9type_info
9968 e 318 25
9976 a 321 25
FUNC 9980 c 0 _ZNKSt6__ndk110__function6__funcIZN5geode25listenForSettingChangesV3IdZ14fastGetSettingITn11TemplateStrXtlS5_ILj18EEtlA19_cLc112ELc114ELc97ELc99ELc116ELc105ELc99ELc101ELc45ELc114ELc103ELc98ELc45ELc115ELc112ELc101ELc101ELc100EEEEdET0_vEUldE_EEPNS2_13EventListenerINS2_22SettingChangedFilterV3EEENS_17basic_string_viewIcNS_11char_traitsIcEEEEOS8_PNS2_3ModEEUlNS_10shared_ptrINS2_9SettingV3EEEE_NS_9allocatorISO_EEFvSN_EE11target_typeEv
9980 c 325 25
FUNC 998c 140 0 _ZN5geode25listenForSettingChangesV3IdZ14fastGetSettingITn11TemplateStrXtlS2_ILj14EEtlA15_cLc101ELc110ELc98ELc121ELc45ELc114ELc103ELc98ELc45ELc115ELc112ELc101ELc101ELc100EEEEdET0_vEUldE_EEPNS_13EventListenerINS_22SettingChangedFilterV3EEENSt6__ndk117basic_string_viewIcNSB_11char_traitsIcEEEEOS5_PNS_3ModE
998c 16 735 0
99a2 8 737 0
99aa 12 738 0
99bc 3e 743 0
99fa d2 737 0
FUNC 9acc 4 0 _ZNSt6__ndk110__function6__funcIZN5geode25listenForSettingChangesV3IdZ14fastGetSettingITn11TemplateStrXtlS5_ILj14EEtlA15_cLc101ELc110ELc98ELc121ELc45ELc114ELc103ELc98ELc45ELc115ELc112ELc101ELc101ELc100EEEEdET0_vEUldE_EEPNS2_13EventListenerINS2_22SettingChangedFilterV3EEENS_17basic_string_viewIcNS_11char_traitsIcEEEEOS8_PNS2_3ModEEUlNS_10shared_ptrINS2_9SettingV3EEEE_NS_9allocatorISO_EEFvSN_EED0Ev
9acc 4 253 25
FUNC 9ad0 20 0 _ZNKSt6__ndk110__function6__funcIZN5geode25listenForSettingChangesV3IdZ14fastGetSettingITn11TemplateStrXtlS5_ILj14EEtlA15_cLc101ELc110ELc98ELc121ELc45ELc114ELc103ELc98ELc45ELc115ELc112ELc101ELc101ELc100EEEEdET0_vEUldE_EEPNS2_13EventListenerINS2_22SettingChangedFilterV3EEENS_17basic_string_viewIcNS_11char_traitsIcEEEEOS8_PNS2_3ModEEUlNS_10shared_ptrINS2_9SettingV3EEEE_NS_9allocatorISO_EEFvSN_EE7__cloneEv
9ad0 6 280 25
9ad6 6 285 25
9adc c 286 25
9ae8 8 288 25
FUNC 9af0 14 0 _ZNKSt6__ndk110__function6__funcIZN5geode25listenForSettingChangesV3IdZ14fastGetSettingITn11TemplateStrXtlS5_ILj14EEtlA15_cLc101ELc110ELc98ELc121ELc45ELc114ELc103ELc98ELc45ELc115ELc112ELc101ELc101ELc100EEEEdET0_vEUldE_EEPNS2_13EventListenerINS2_22SettingChangedFilterV3EEENS_17basic_string_viewIcNS_11char_traitsIcEEEEOS8_PNS2_3ModEEUlNS_10shared_ptrINS2_9SettingV3EEEE_NS_9allocatorISO_EEFvSN_EE7__cloneEPNS0_6__baseISR_EE
9af0 c 292 25
9afc 8 293 25
FUNC 9b04 2 0 _ZNSt6__ndk110__function6__funcIZN5geode25listenForSettingChangesV3IdZ14fastGetSettingITn11TemplateStrXtlS5_ILj14EEtlA15_cLc101ELc110ELc98ELc121ELc45ELc114ELc103ELc98ELc45ELc115ELc112ELc101ELc101ELc100EEEEdET0_vEUldE_EEPNS2_13EventListenerINS2_22SettingChangedFilterV3EEENS_17basic_string_viewIcNS_11char_traitsIcEEEEOS8_PNS2_3ModEEUlNS_10shared_ptrINS2_9SettingV3EEEE_NS_9allocatorISO_EEFvSN_EE7destroyEv
9b04 2 298 25
FUNC 9b06 4 0 _ZNSt6__ndk110__function6__funcIZN5geode25listenForSettingChangesV3IdZ14fastGetSettingITn11TemplateStrXtlS5_ILj14EEtlA15_cLc101ELc110ELc98ELc121ELc45ELc114ELc103ELc98ELc45ELc115ELc112ELc101ELc101ELc100EEEEdET0_vEUldE_EEPNS2_13EventListenerINS2_22SettingChangedFilterV3EEENS_17basic_string_viewIcNS_11char_traitsIcEEEEOS8_PNS2_3ModEEUlNS_10shared_ptrINS2_9SettingV3EEEE_NS_9allocatorISO_EEFvSN_EE18destroy_deallocateEv
9b06 4 306 25
FUNC 9b0c b0 0 _ZNSt6__ndk110__function6__funcIZN5geode25listenForSettingChangesV3IdZ14fastGetSettingITn11TemplateStrXtlS5_ILj14EEtlA15_cLc101ELc110ELc98ELc121ELc45ELc114ELc103ELc98ELc45ELc115ELc112ELc101ELc101ELc100EEEEdET0_vEUldE_EEPNS2_13EventListenerINS2_22SettingChangedFilterV3EEENS_17basic_string_viewIcNS_11char_traitsIcEEEEOS8_PNS2_3ModEEUlNS_10shared_ptrINS2_9SettingV3EEEE_NS_9allocatorISO_EEFvSN_EEclEOSN_
9b0c 4 310 25
9b10 ac 311 25
FUNC 9bbc 18 0 _ZNKSt6__ndk110__function6__funcIZN5geode25listenForSettingChangesV3IdZ14fastGetSettingITn11TemplateStrXtlS5_ILj14EEtlA15_cLc101ELc110ELc98ELc121ELc45ELc114ELc103ELc98ELc45ELc115ELc112ELc101ELc101ELc100EEEEdET0_vEUldE_EEPNS2_13EventListenerINS2_22SettingChangedFilterV3EEENS_17basic_string_viewIcNS_11char_traitsIcEEEEOS8_PNS2_3ModEEUlNS_10shared_ptrINS2_9SettingV3EEEE_NS_9allocatorISO_EEFvSN_EE6targetERKSt9type_info
9bbc e 318 25
9bca a 321 25
FUNC 9bd4 c 0 _ZNKSt6__ndk110__function6__funcIZN5geode25listenForSettingChangesV3IdZ14fastGetSettingITn11TemplateStrXtlS5_ILj14EEtlA15_cLc101ELc110ELc98ELc121ELc45ELc114ELc103ELc98ELc45ELc115ELc112ELc101ELc101ELc100EEEEdET0_vEUldE_EEPNS2_13EventListenerINS2_22SettingChangedFilterV3EEENS_17basic_string_viewIcNS_11char_traitsIcEEEEOS8_PNS2_3ModEEUlNS_10shared_ptrINS2_9SettingV3EEEE_NS_9allocatorISO_EEFvSN_EE11target_typeEv
9bd4 c 325 25
FUNC 9be0 138 0 _ZN5geode25listenForSettingChangesV3IdZ14fastGetSettingITn11TemplateStrXtlS2_ILj16EEtlA17_cLc110ELc111ELc114ELc109ELc97ELc108ELc45ELc114ELc103ELc98ELc45ELc115ELc112ELc101ELc101ELc100EEEEdET0_vEUldE_EEPNS_13EventListenerINS_22SettingChangedFilterV3EEENSt6__ndk117basic_string_viewIcNSB_11char_traitsIcEEEEOS5_PNS_3ModE
9be0 16 735 0
9bf6 8 737 0
9bfe 12 738 0
9c10 34 743 0
9c44 d4 737 0
FUNC 9d18 2 0 std::__ndk1::__function::__base<void (std::__ndk1::shared_ptr<geode::SettingV3>)>::~__base()
9d18 2 238 25
FUNC 9d1a 4 0 _ZNSt6__ndk110__function6__funcIZN5geode25listenForSettingChangesV3IdZ14fastGetSettingITn11TemplateStrXtlS5_ILj16EEtlA17_cLc110ELc111ELc114ELc109ELc97ELc108ELc45ELc114ELc103ELc98ELc45ELc115ELc112ELc101ELc101ELc100EEEEdET0_vEUldE_EEPNS2_13EventListenerINS2_22SettingChangedFilterV3EEENS_17basic_string_viewIcNS_11char_traitsIcEEEEOS8_PNS2_3ModEEUlNS_10shared_ptrINS2_9SettingV3EEEE_NS_9allocatorISO_EEFvSN_EED0Ev
9d1a 4 253 25
FUNC 9d20 20 0 _ZNKSt6__ndk110__function6__funcIZN5geode25listenForSettingChangesV3IdZ14fastGetSettingITn11TemplateStrXtlS5_ILj16EEtlA17_cLc110ELc111ELc114ELc109ELc97ELc108ELc45ELc114ELc103ELc98ELc45ELc115ELc112ELc101ELc101ELc100EEEEdET0_vEUldE_EEPNS2_13EventListenerINS2_22SettingChangedFilterV3EEENS_17basic_string_viewIcNS_11char_traitsIcEEEEOS8_PNS2_3ModEEUlNS_10shared_ptrINS2_9SettingV3EEEE_NS_9allocatorISO_EEFvSN_EE7__cloneEv
9d20 6 280 25
9d26 6 285 25
9d2c c 286 25
9d38 8 288 25
FUNC 9d40 14 0 _ZNKSt6__ndk110__function6__funcIZN5geode25listenForSettingChangesV3IdZ14fastGetSettingITn11TemplateStrXtlS5_ILj16EEtlA17_cLc110ELc111ELc114ELc109ELc97ELc108ELc45ELc114ELc103ELc98ELc45ELc115ELc112ELc101ELc101ELc100EEEEdET0_vEUldE_EEPNS2_13EventListenerINS2_22SettingChangedFilterV3EEENS_17basic_string_viewIcNS_11char_traitsIcEEEEOS8_PNS2_3ModEEUlNS_10shared_ptrINS2_9SettingV3EEEE_NS_9allocatorISO_EEFvSN_EE7__cloneEPNS0_6__baseISR_EE
9d40 c 292 25
9d4c 8 293 25
FUNC 9d54 2 0 _ZNSt6__ndk110__function6__funcIZN5geode25listenForSettingChangesV3IdZ14fastGetSettingITn11TemplateStrXtlS5_ILj16EEtlA17_cLc110ELc111ELc114ELc109ELc97ELc108ELc45ELc114ELc103ELc98ELc45ELc115ELc112ELc101ELc101ELc100EEEEdET0_vEUldE_EEPNS2_13EventListenerINS2_22SettingChangedFilterV3EEENS_17basic_string_viewIcNS_11char_traitsIcEEEEOS8_PNS2_3ModEEUlNS_10shared_ptrINS2_9SettingV3EEEE_NS_9allocatorISO_EEFvSN_EE7destroyEv
9d54 2 298 25
FUNC 9d56 4 0 _ZNSt6__ndk110__function6__funcIZN5geode25listenForSettingChangesV3IdZ14fastGetSettingITn11TemplateStrXtlS5_ILj16EEtlA17_cLc110ELc111ELc114ELc109ELc97ELc108ELc45ELc114ELc103ELc98ELc45ELc115ELc112ELc101ELc101ELc100EEEEdET0_vEUldE_EEPNS2_13EventListenerINS2_22SettingChangedFilterV3EEENS_17basic_string_viewIcNS_11char_traitsIcEEEEOS8_PNS2_3ModEEUlNS_10shared_ptrINS2_9SettingV3EEEE_NS_9allocatorISO_EEFvSN_EE18destroy_deallocateEv
9d56 4 306 25
FUNC 9d5c b0 0 _ZNSt6__ndk110__function6__funcIZN5geode25listenForSettingChangesV3IdZ14fastGetSettingITn11TemplateStrXtlS5_ILj16EEtlA17_cLc110ELc111ELc114ELc109ELc97ELc108ELc45ELc114ELc103ELc98ELc45ELc115ELc112ELc101ELc101ELc100EEEEdET0_vEUldE_EEPNS2_13EventListenerINS2_22SettingChangedFilterV3EEENS_17basic_string_viewIcNS_11char_traitsIcEEEEOS8_PNS2_3ModEEUlNS_10shared_ptrINS2_9SettingV3EEEE_NS_9allocatorISO_EEFvSN_EEclEOSN_
9d5c 4 310 25
9d60 ac 311 25
FUNC 9e0c 18 0 _ZNKSt6__ndk110__function6__funcIZN5geode25listenForSettingChangesV3IdZ14fastGetSettingITn11TemplateStrXtlS5_ILj16EEtlA17_cLc110ELc111ELc114ELc109ELc97ELc108ELc45ELc114ELc103ELc98ELc45ELc115ELc112ELc101ELc101ELc100EEEEdET0_vEUldE_EEPNS2_13EventListenerINS2_22SettingChangedFilterV3EEENS_17basic_string_viewIcNS_11char_traitsIcEEEEOS8_PNS2_3ModEEUlNS_10shared_ptrINS2_9SettingV3EEEE_NS_9allocatorISO_EEFvSN_EE6targetERKSt9type_info
9e0c e 318 25
9e1a a 321 25
FUNC 9e24 c 0 _ZNKSt6__ndk110__function6__funcIZN5geode25listenForSettingChangesV3IdZ14fastGetSettingITn11TemplateStrXtlS5_ILj16EEtlA17_cLc110ELc111ELc114ELc109ELc97ELc108ELc45ELc114ELc103ELc98ELc45ELc115ELc112ELc101ELc101ELc100EEEEdET0_vEUldE_EEPNS2_13EventListenerINS2_22SettingChangedFilterV3EEENS_17basic_string_viewIcNS_11char_traitsIcEEEEOS8_PNS2_3ModEEUlNS_10shared_ptrINS2_9SettingV3EEEE_NS_9allocatorISO_EEFvSN_EE11target_typeEv
9e24 c 325 25
FUNC 9e30 ba 0 std::__ndk1::__tree<std::__ndk1::__value_type<std::__ndk1::basic_string<char, std::__ndk1::char_traits<char>, std::__ndk1::allocator<char> >, std::__ndk1::shared_ptr<geode::Hook> >, std::__ndk1::__map_value_compare<std::__ndk1::basic_string<char, std::__ndk1::char_traits<char>, std::__ndk1::allocator<char> >, std::__ndk1::__value_type<std::__ndk1::basic_string<char, std::__ndk1::char_traits<char>, std::__ndk1::allocator<char> >, std::__ndk1::shared_ptr<geode::Hook> >, std::__ndk1::less<std::__ndk1::basic_string<char, std::__ndk1::char_traits<char>, std::__ndk1::allocator<char> > >, true>, std::__ndk1::allocator<std::__ndk1::__value_type<std::__ndk1::basic_string<char, std::__ndk1::char_traits<char>, std::__ndk1::allocator<char> >, std::__ndk1::shared_ptr<geode::Hook> > > >::__find_equal<std::__ndk1::basic_string<char, std::__ndk1::char_traits<char>, std::__ndk1::allocator<char> > >(std::__ndk1::__tree_end_node<std::__ndk1::__tree_node_base<void*>*>*&, std::__ndk1::basic_string<char, std::__ndk1::char_traits<char>, std::__ndk1::allocator<char> > const&)
9e30 e 1680 6
9e3e 4 1681 6
9e42 1a 1683 6
9e5c 8 1686 6
9e64 44 1685 6
9ea8 26 1693 6
9ece 12 1694 6
9ee0 a 1709 6
FUNC 9eea 14a 0 std::__ndk1::__tree_balance_after_insert[abi:ne190000]<std::__ndk1::__tree_node_base<void*>*>(std::__ndk1::__tree_node_base<void*>*, std::__ndk1::__tree_node_base<void*>*)
9eea c 285 6
9ef6 28 330 6
9f1e a 286 6
9f28 c 288 6
9f34 c 310 6
9f40 4 289 6
9f44 a 290 6
9f4e 6 297 6
9f54 28 299 6
9f7c 4 303 6
9f80 2 299 6
9f82 6 305 6
9f88 a 317 6
9f92 22 319 6
9fb4 4 323 6
9fb8 2 319 6
9fba 6 325 6
9fc0 4 322 6
9fc4 4 324 6
9fc8 2e 325 6
9ff6 6 330 6
9ffc 4 302 6
a000 2 305 6
a002 4 304 6
a006 2c 305 6
a032 2 330 6
FUNC a034 15c 0 paint()
a034 6 150 9
a03a 20 151 9
a05a 2 152 9
a05c 4 154 9
a060 8 157 9
a068 6 162 9
a06e 6 165 9
a074 10 173 9
a084 6 175 9
a08a 2e 183 9
a0b8 6 179 9
a0be 36 181 9
a0f4 1c 177 9
a110 1a 198 9
a12a a 185 9
a134 16 187 9
a14a e 189 9
a158 16 191 9
a16e 22 151 9
FUNC a190 118 0 colorutil::hsvToRgb(cocos2d::_ccHSVValue const&)
a190 c 17 26
a19c 4 18 26
a1a0 4 19 26
a1a4 4 22 26
a1a8 4 20 26
a1ac 2c 22 26
a1d8 90 31 26
a268 2c 41 26
a294 14 42 26
FUNC a2a8 20 0 geode::getMod()
a2a8 4 11 27
a2ac 1c 12 27
FUNC a2c8 20 0 geodeImplicitEntry
a2c8 4 16 27
a2cc 8 18 27
a2d4 4 19 27
a2d8 a 18 27
a2e2 6 19 27
FUNC a2e8 e 0 GameManager::getPlayerColor()
a2e8 e 4905 28
FUNC a2f6 e 0 GameManager::getPlayerColor2()
a2f6 e 4909 28
FUNC a304 e 0 GameManager::getPlayerGlowColor()
a304 e 4929 28
FUNC a312 e 0 PlayLayer::get()
a312 4 7871 28
a316 a 7872 28
PUBLIC a321 0 __ThumbV7PILongThunk___cxa_atexit
PUBLIC a32d 0 __ThumbV7PILongThunk__ZdlPv
PUBLIC a339 0 __ThumbV7PILongThunk__ZN9PlayLayer10resetLevelEv
PUBLIC a345 0 __ThumbV7PILongThunk__ZN9PlayLayer9startGameEv
PUBLIC a351 0 __ThumbV7PILongThunk__ZN5geode24DefaultEventListenerPool3getEv
PUBLIC a35d 0 __ThumbV7PILongThunk__ZN5geode21EventListenerProtocolD2Ev
PUBLIC a369 0 __ThumbV7PILongThunk__ZNSt6__ndk119__shared_weak_count14__release_weakEv
PUBLIC a380 0 <.plt ELF section in catgirldev.ingame-progress-bar-color.android32.so>
STACK CFI INIT 51f4 778 .cfa: sp 0 +
STACK CFI 51f6 .cfa: sp 20 + .ra: .cfa -4 + ^ r7: .cfa -8 + ^ r6: .cfa -12 + ^ r5: .cfa -16 + ^ r4: .cfa -20 + ^
STACK CFI 51f8 .cfa: r7 8 +
STACK CFI 51fc r11: .cfa -24 + ^ r10: .cfa -28 + ^ r9: .cfa -32 + ^ r8: .cfa -36 + ^
STACK CFI INIT 596c 1c .cfa: sp 0 +
STACK CFI 596e .cfa: sp 16 + .ra: .cfa -4 + ^ r7: .cfa -8 + ^ r6: .cfa -12 + ^ r4: .cfa -16 + ^
STACK CFI 5970 .cfa: r7 8 +
STACK CFI INIT 5988 640 .cfa: sp 0 +
STACK CFI 598a .cfa: sp 20 + .ra: .cfa -4 + ^ r7: .cfa -8 + ^ r6: .cfa -12 + ^ r5: .cfa -16 + ^ r4: .cfa -20 + ^
STACK CFI 598c .cfa: r7 8 +
STACK CFI 5990 r11: .cfa -24 + ^ r9: .cfa -28 + ^ r8: .cfa -32 + ^
STACK CFI INIT 5fc8 20 .cfa: sp 0 +
STACK CFI 5fca .cfa: sp 16 + .ra: .cfa -4 + ^ r7: .cfa -8 + ^ r6: .cfa -12 + ^ r4: .cfa -16 + ^
STACK CFI 5fcc .cfa: r7 8 +
STACK CFI INIT 5fe8 3a .cfa: sp 0 +
STACK CFI 5fea .cfa: sp 16 + .ra: .cfa -4 + ^ r7: .cfa -8 + ^ r5: .cfa -12 + ^ r4: .cfa -16 + ^
STACK CFI 5fec .cfa: r7 8 +
STACK CFI INIT 6024 60 .cfa: sp 0 +
STACK CFI 6026 .cfa: sp 16 + .ra: .cfa -4 + ^ r7: .cfa -8 + ^ r6: .cfa -12 + ^ r4: .cfa -16 + ^
STACK CFI 6028 .cfa: r7 8 +
STACK CFI INIT 6084 3e .cfa: sp 0 +
STACK CFI 6086 .cfa: sp 20 + .ra: .cfa -4 + ^ r7: .cfa -8 + ^ r6: .cfa -12 + ^ r5: .cfa -16 + ^ r4: .cfa -20 + ^
STACK CFI 6088 .cfa: r7 8 +
STACK CFI 608c r11: .cfa -24 + ^
STACK CFI INIT 60c2 2 .cfa: sp 0 +
STACK CFI INIT 60c4 c .cfa: sp 0 +
STACK CFI 60c6 .cfa: sp 8 + .ra: .cfa -4 + ^ r7: .cfa -8 + ^
STACK CFI 60c8 .cfa: r7 8 +
STACK CFI INIT 60d0 f8 .cfa: sp 0 +
STACK CFI 60d2 .cfa: sp 20 + .ra: .cfa -4 + ^ r7: .cfa -8 + ^ r6: .cfa -12 + ^ r5: .cfa -16 + ^ r4: .cfa -20 + ^
STACK CFI 60d4 .cfa: r7 8 +
STACK CFI 60d8 r8: .cfa -24 + ^
STACK CFI INIT 61c8 34 .cfa: sp 0 +
STACK CFI 61ca .cfa: sp 8 + .ra: .cfa -4 + ^ r7: .cfa -8 + ^
STACK CFI 61cc .cfa: r7 8 +
STACK CFI INIT 61fc d8 .cfa: sp 0 +
STACK CFI 61fe .cfa: sp 20 + .ra: .cfa -4 + ^ r7: .cfa -8 + ^ r6: .cfa -12 + ^ r5: .cfa -16 + ^ r4: .cfa -20 + ^
STACK CFI 6200 .cfa: r7 8 +
STACK CFI 6204 r11: .cfa -24 + ^ r10: .cfa -28 + ^ r9: .cfa -32 + ^ r8: .cfa -36 + ^
STACK CFI INIT 62d4 68 .cfa: sp 0 +
STACK CFI 62d6 .cfa: sp 20 + .ra: .cfa -4 + ^ r7: .cfa -8 + ^ r6: .cfa -12 + ^ r5: .cfa -16 + ^ r4: .cfa -20 + ^
STACK CFI 62d8 .cfa: r7 8 +
STACK CFI 62dc r11: .cfa -24 + ^
STACK CFI INIT 633c 10 .cfa: sp 0 +
STACK CFI 633e .cfa: sp 8 + .ra: .cfa -4 + ^ r7: .cfa -8 + ^
STACK CFI 6340 .cfa: r7 8 +
STACK CFI INIT 634c 108 .cfa: sp 0 +
STACK CFI 634e .cfa: sp 20 + .ra: .cfa -4 + ^ r7: .cfa -8 + ^ r6: .cfa -12 + ^ r5: .cfa -16 + ^ r4: .cfa -20 + ^
STACK CFI 6350 .cfa: r7 8 +
STACK CFI 6354 r11: .cfa -24 + ^ r10: .cfa -28 + ^ r9: .cfa -32 + ^ r8: .cfa -36 + ^
STACK CFI INIT 6454 110 .cfa: sp 0 +
STACK CFI 6456 .cfa: sp 20 + .ra: .cfa -4 + ^ r7: .cfa -8 + ^ r6: .cfa -12 + ^ r5: .cfa -16 + ^ r4: .cfa -20 + ^
STACK CFI 6458 .cfa: r7 8 +
STACK CFI 645c r11: .cfa -24 + ^ r10: .cfa -28 + ^ r9: .cfa -32 + ^ r8: .cfa -36 + ^
STACK CFI INIT 6564 10 .cfa: sp 0 +
STACK CFI 6566 .cfa: sp 8 + .ra: .cfa -4 + ^ r7: .cfa -8 + ^
STACK CFI 6568 .cfa: r7 8 +
STACK CFI INIT 6574 38 .cfa: sp 0 +
STACK CFI 6576 .cfa: sp 16 + .ra: .cfa -4 + ^ r7: .cfa -8 + ^ r5: .cfa -12 + ^ r4: .cfa -16 + ^
STACK CFI 6578 .cfa: r7 8 +
STACK CFI INIT 65ac 18 .cfa: sp 0 +
STACK CFI 65ae .cfa: sp 8 + .ra: .cfa -4 + ^ r7: .cfa -8 + ^
STACK CFI 65b0 .cfa: r7 8 +
STACK CFI INIT 65c4 28 .cfa: sp 0 +
STACK CFI 65c6 .cfa: sp 8 + .ra: .cfa -4 + ^ r7: .cfa -8 + ^
STACK CFI 65c8 .cfa: r7 8 +
STACK CFI INIT 65ec da .cfa: sp 0 +
STACK CFI 65ee .cfa: sp 20 + .ra: .cfa -4 + ^ r7: .cfa -8 + ^ r6: .cfa -12 + ^ r5: .cfa -16 + ^ r4: .cfa -20 + ^
STACK CFI 65f0 .cfa: r7 8 +
STACK CFI 65f4 r11: .cfa -24 + ^
STACK CFI INIT 66c6 e0 .cfa: sp 0 +
STACK CFI 66c8 .cfa: sp 20 + .ra: .cfa -4 + ^ r7: .cfa -8 + ^ r6: .cfa -12 + ^ r5: .cfa -16 + ^ r4: .cfa -20 + ^
STACK CFI 66ca .cfa: r7 8 +
STACK CFI 66ce r11: .cfa -24 + ^ r9: .cfa -28 + ^ r8: .cfa -32 + ^
STACK CFI INIT 67a6 5e .cfa: sp 0 +
STACK CFI 67ae .cfa: sp 20 + .ra: .cfa -4 + ^ r7: .cfa -8 + ^ r6: .cfa -12 + ^ r5: .cfa -16 + ^ r4: .cfa -20 + ^
STACK CFI 67b0 .cfa: r7 8 +
STACK CFI 67b4 r8: .cfa -24 + ^
STACK CFI INIT 6804 46 .cfa: sp 0 +
STACK CFI 6806 .cfa: sp 20 + .ra: .cfa -4 + ^ r7: .cfa -8 + ^ r6: .cfa -12 + ^ r5: .cfa -16 + ^ r4: .cfa -20 + ^
STACK CFI 6808 .cfa: r7 8 +
STACK CFI 680c r8: .cfa -24 + ^
STACK CFI INIT 684a 3c .cfa: sp 0 +
STACK CFI 684c .cfa: sp 16 + .ra: .cfa -4 + ^ r7: .cfa -8 + ^ r5: .cfa -12 + ^ r4: .cfa -16 + ^
STACK CFI 684e .cfa: r7 8 +
STACK CFI INIT 6888 10 .cfa: sp 0 +
STACK CFI 688a .cfa: sp 8 + .ra: .cfa -4 + ^ r7: .cfa -8 + ^
STACK CFI 688c .cfa: r7 8 +
STACK CFI INIT 6898 2 .cfa: sp 0 +
STACK CFI INIT 689a e .cfa: sp 0 +
STACK CFI INIT 68a8 5a .cfa: sp 0 +
STACK CFI 68b0 .cfa: sp 16 + .ra: .cfa -4 + ^ r7: .cfa -8 + ^ r5: .cfa -12 + ^ r4: .cfa -16 + ^
STACK CFI 68b2 .cfa: r7 8 +
STACK CFI INIT 6904 cc .cfa: sp 0 +
STACK CFI 6906 .cfa: sp 20 + .ra: .cfa -4 + ^ r7: .cfa -8 + ^ r6: .cfa -12 + ^ r5: .cfa -16 + ^ r4: .cfa -20 + ^
STACK CFI 6908 .cfa: r7 8 +
STACK CFI 690c r10: .cfa -24 + ^ r9: .cfa -28 + ^ r8: .cfa -32 + ^
STACK CFI INIT 69d0 44 .cfa: sp 0 +
STACK CFI 69d2 .cfa: sp 20 + .ra: .cfa -4 + ^ r7: .cfa -8 + ^ r6: .cfa -12 + ^ r5: .cfa -16 + ^ r4: .cfa -20 + ^
STACK CFI 69d4 .cfa: r7 8 +
STACK CFI 69d8 r11: .cfa -24 + ^
STACK CFI INIT 6a14 40 .cfa: sp 0 +
STACK CFI 6a16 .cfa: sp 20 + .ra: .cfa -4 + ^ r7: .cfa -8 + ^ r6: .cfa -12 + ^ r5: .cfa -16 + ^ r4: .cfa -20 + ^
STACK CFI 6a18 .cfa: r7 8 +
STACK CFI 6a1c r11: .cfa -24 + ^
STACK CFI INIT 6a54 1f4 .cfa: sp 0 +
STACK CFI 6a56 .cfa: sp 20 + .ra: .cfa -4 + ^ r7: .cfa -8 + ^ r6: .cfa -12 + ^ r5: .cfa -16 + ^ r4: .cfa -20 + ^
STACK CFI 6a58 .cfa: r7 8 +
STACK CFI 6a5c r10: .cfa -24 + ^ r9: .cfa -28 + ^ r8: .cfa -32 + ^
STACK CFI INIT 6c48 3a .cfa: sp 0 +
STACK CFI 6c4a .cfa: sp 16 + .ra: .cfa -4 + ^ r7: .cfa -8 + ^ r5: .cfa -12 + ^ r4: .cfa -16 + ^
STACK CFI 6c4c .cfa: r7 8 +
STACK CFI INIT 6c82 46 .cfa: sp 0 +
STACK CFI 6c84 .cfa: sp 16 + .ra: .cfa -4 + ^ r7: .cfa -8 + ^ r5: .cfa -12 + ^ r4: .cfa -16 + ^
STACK CFI 6c86 .cfa: r7 8 +
STACK CFI INIT 6cc8 530 .cfa: sp 0 +
STACK CFI 6cca .cfa: sp 20 + .ra: .cfa -4 + ^ r7: .cfa -8 + ^ r6: .cfa -12 + ^ r5: .cfa -16 + ^ r4: .cfa -20 + ^
STACK CFI 6ccc .cfa: r7 8 +
STACK CFI 6cd0 r11: .cfa -24 + ^
STACK CFI INIT 71f8 37c .cfa: sp 0 +
STACK CFI 71fa .cfa: sp 20 + .ra: .cfa -4 + ^ r7: .cfa -8 + ^ r6: .cfa -12 + ^ r5: .cfa -16 + ^ r4: .cfa -20 + ^
STACK CFI 71fc .cfa: r7 8 +
STACK CFI 7200 r11: .cfa -24 + ^ r10: .cfa -28 + ^ r9: .cfa -32 + ^ r8: .cfa -36 + ^
STACK CFI INIT 7574 68 .cfa: sp 0 +
STACK CFI 7576 .cfa: sp 16 + .ra: .cfa -4 + ^ r7: .cfa -8 + ^ r6: .cfa -12 + ^ r4: .cfa -16 + ^
STACK CFI 7578 .cfa: r7 8 +
STACK CFI INIT 75dc 66 .cfa: sp 0 +
STACK CFI 75de .cfa: sp 20 + .ra: .cfa -4 + ^ r7: .cfa -8 + ^ r6: .cfa -12 + ^ r5: .cfa -16 + ^ r4: .cfa -20 + ^
STACK CFI 75e0 .cfa: r7 8 +
STACK CFI 75e4 r10: .cfa -24 + ^ r9: .cfa -28 + ^ r8: .cfa -32 + ^
STACK CFI INIT 7642 66 .cfa: sp 0 +
STACK CFI 7644 .cfa: sp 20 + .ra: .cfa -4 + ^ r7: .cfa -8 + ^ r6: .cfa -12 + ^ r5: .cfa -16 + ^ r4: .cfa -20 + ^
STACK CFI 7646 .cfa: r7 8 +
STACK CFI 764a r10: .cfa -24 + ^ r9: .cfa -28 + ^ r8: .cfa -32 + ^
STACK CFI INIT 76a8 514 .cfa: sp 0 +
STACK CFI 76aa .cfa: sp 20 + .ra: .cfa -4 + ^ r7: .cfa -8 + ^ r6: .cfa -12 + ^ r5: .cfa -16 + ^ r4: .cfa -20 + ^
STACK CFI 76ac .cfa: r7 8 +
STACK CFI 76b0 r11: .cfa -24 + ^ r10: .cfa -28 + ^ r9: .cfa -32 + ^ r8: .cfa -36 + ^
STACK CFI INIT 7bbc 3e .cfa: sp 0 +
STACK CFI 7bbe .cfa: sp 20 + .ra: .cfa -4 + ^ r7: .cfa -8 + ^ r6: .cfa -12 + ^ r5: .cfa -16 + ^ r4: .cfa -20 + ^
STACK CFI 7bc0 .cfa: r7 8 +
STACK CFI 7bc4 r11: .cfa -24 + ^
STACK CFI INIT 7bfc 48 .cfa: sp 0 +
STACK CFI 7bfe .cfa: sp 20 + .ra: .cfa -4 + ^ r7: .cfa -8 + ^ r6: .cfa -12 + ^ r5: .cfa -16 + ^ r4: .cfa -20 + ^
STACK CFI 7c00 .cfa: r7 8 +
STACK CFI 7c04 r11: .cfa -24 + ^
STACK CFI INIT 7c44 3a .cfa: sp 0 +
STACK CFI 7c50 .cfa: sp 16 + .ra: .cfa -4 + ^ r7: .cfa -8 + ^ r5: .cfa -12 + ^ r4: .cfa -16 + ^
STACK CFI 7c52 .cfa: r7 8 +
STACK CFI INIT 7c80 114 .cfa: sp 0 +
STACK CFI 7c82 .cfa: sp 20 + .ra: .cfa -4 + ^ r7: .cfa -8 + ^ r6: .cfa -12 + ^ r5: .cfa -16 + ^ r4: .cfa -20 + ^
STACK CFI 7c84 .cfa: r7 8 +
STACK CFI 7c88 r11: .cfa -24 + ^
STACK CFI INIT 7d94 144 .cfa: sp 0 +
STACK CFI 7d96 .cfa: sp 20 + .ra: .cfa -4 + ^ r7: .cfa -8 + ^ r6: .cfa -12 + ^ r5: .cfa -16 + ^ r4: .cfa -20 + ^
STACK CFI 7d98 .cfa: r7 8 +
STACK CFI 7d9c r8: .cfa -24 + ^
STACK CFI INIT 7ed8 90 .cfa: sp 0 +
STACK CFI 7eda .cfa: sp 20 + .ra: .cfa -4 + ^ r7: .cfa -8 + ^ r6: .cfa -12 + ^ r5: .cfa -16 + ^ r4: .cfa -20 + ^
STACK CFI 7edc .cfa: r7 8 +
STACK CFI 7ee0 r8: .cfa -24 + ^
STACK CFI INIT 7f68 3a .cfa: sp 0 +
STACK CFI 7f6a .cfa: sp 16 + .ra: .cfa -4 + ^ r7: .cfa -8 + ^ r5: .cfa -12 + ^ r4: .cfa -16 + ^
STACK CFI 7f6c .cfa: r7 8 +
STACK CFI INIT 7fa2 4 .cfa: sp 0 +
STACK CFI INIT 7fa8 20 .cfa: sp 0 +
STACK CFI 7faa .cfa: sp 16 + .ra: .cfa -4 + ^ r7: .cfa -8 + ^ r6: .cfa -12 + ^ r4: .cfa -16 + ^
STACK CFI 7fac .cfa: r7 8 +
STACK CFI INIT 7fc8 14 .cfa: sp 0 +
STACK CFI INIT 7fdc 2 .cfa: sp 0 +
STACK CFI INIT 7fde 4 .cfa: sp 0 +
STACK CFI INIT 7fe4 160 .cfa: sp 0 +
STACK CFI 7fe6 .cfa: sp 16 + .ra: .cfa -4 + ^ r7: .cfa -8 + ^ r5: .cfa -12 + ^ r4: .cfa -16 + ^
STACK CFI 7fe8 .cfa: r7 8 +
STACK CFI INIT 8144 18 .cfa: sp 0 +
STACK CFI INIT 815c c .cfa: sp 0 +
STACK CFI INIT 8168 3a .cfa: sp 0 +
STACK CFI 816a .cfa: sp 16 + .ra: .cfa -4 + ^ r7: .cfa -8 + ^ r5: .cfa -12 + ^ r4: .cfa -16 + ^
STACK CFI 816c .cfa: r7 8 +
STACK CFI INIT 81a2 3a .cfa: sp 0 +
STACK CFI 81a4 .cfa: sp 16 + .ra: .cfa -4 + ^ r7: .cfa -8 + ^ r5: .cfa -12 + ^ r4: .cfa -16 + ^
STACK CFI 81a6 .cfa: r7 8 +
STACK CFI INIT 81dc 8c .cfa: sp 0 +
STACK CFI 81de .cfa: sp 20 + .ra: .cfa -4 + ^ r7: .cfa -8 + ^ r6: .cfa -12 + ^ r5: .cfa -16 + ^ r4: .cfa -20 + ^
STACK CFI 81e0 .cfa: r7 8 +
STACK CFI 81e4 r11: .cfa -24 + ^ r9: .cfa -28 + ^ r8: .cfa -32 + ^
STACK CFI INIT 8268 66 .cfa: sp 0 +
STACK CFI 826a .cfa: sp 20 + .ra: .cfa -4 + ^ r7: .cfa -8 + ^ r6: .cfa -12 + ^ r5: .cfa -16 + ^ r4: .cfa -20 + ^
STACK CFI 826c .cfa: r7 8 +
STACK CFI 8270 r11: .cfa -24 + ^ r9: .cfa -28 + ^ r8: .cfa -32 + ^
STACK CFI INIT 82ce a6 .cfa: sp 0 +
STACK CFI 82d0 .cfa: sp 20 + .ra: .cfa -4 + ^ r7: .cfa -8 + ^ r6: .cfa -12 + ^ r5: .cfa -16 + ^ r4: .cfa -20 + ^
STACK CFI 82d2 .cfa: r7 8 +
STACK CFI 82d6 r10: .cfa -24 + ^ r9: .cfa -28 + ^ r8: .cfa -32 + ^
STACK CFI INIT 8374 4 .cfa: sp 0 +
STACK CFI INIT 8378 d4 .cfa: sp 0 +
STACK CFI 837a .cfa: sp 20 + .ra: .cfa -4 + ^ r7: .cfa -8 + ^ r6: .cfa -12 + ^ r5: .cfa -16 + ^ r4: .cfa -20 + ^
STACK CFI 837c .cfa: r7 8 +
STACK CFI 8380 r11: .cfa -24 + ^
STACK CFI INIT 844c 64 .cfa: sp 0 +
STACK CFI 844e .cfa: sp 16 + .ra: .cfa -4 + ^ r7: .cfa -8 + ^ r5: .cfa -12 + ^ r4: .cfa -16 + ^
STACK CFI 8450 .cfa: r7 8 +
STACK CFI INIT 84b0 68 .cfa: sp 0 +
STACK CFI 84b2 .cfa: sp 16 + .ra: .cfa -4 + ^ r7: .cfa -8 + ^ r5: .cfa -12 + ^ r4: .cfa -16 + ^
STACK CFI 84b4 .cfa: r7 8 +
STACK CFI INIT 8518 140 .cfa: sp 0 +
STACK CFI 851a .cfa: sp 20 + .ra: .cfa -4 + ^ r7: .cfa -8 + ^ r6: .cfa -12 + ^ r5: .cfa -16 + ^ r4: .cfa -20 + ^
STACK CFI 851c .cfa: r7 8 +
STACK CFI 8520 r8: .cfa -24 + ^
STACK CFI INIT 8658 4 .cfa: sp 0 +
STACK CFI INIT 865c 20 .cfa: sp 0 +
STACK CFI 865e .cfa: sp 16 + .ra: .cfa -4 + ^ r7: .cfa -8 + ^ r6: .cfa -12 + ^ r4: .cfa -16 + ^
STACK CFI 8660 .cfa: r7 8 +
STACK CFI INIT 867c 14 .cfa: sp 0 +
STACK CFI INIT 8690 2 .cfa: sp 0 +
STACK CFI INIT 8692 4 .cfa: sp 0 +
STACK CFI INIT 8698 160 .cfa: sp 0 +
STACK CFI 869a .cfa: sp 16 + .ra: .cfa -4 + ^ r7: .cfa -8 + ^ r5: .cfa -12 + ^ r4: .cfa -16 + ^
STACK CFI 869c .cfa: r7 8 +
STACK CFI INIT 87f8 18 .cfa: sp 0 +
STACK CFI INIT 8810 c .cfa: sp 0 +
STACK CFI INIT 881c 138 .cfa: sp 0 +
STACK CFI 881e .cfa: sp 20 + .ra: .cfa -4 + ^ r7: .cfa -8 + ^ r6: .cfa -12 + ^ r5: .cfa -16 + ^ r4: .cfa -20 + ^
STACK CFI 8820 .cfa: r7 8 +
STACK CFI 8824 r11: .cfa -24 + ^
STACK CFI INIT 8954 4 .cfa: sp 0 +
STACK CFI INIT 8958 20 .cfa: sp 0 +
STACK CFI 895a .cfa: sp 16 + .ra: .cfa -4 + ^ r7: .cfa -8 + ^ r6: .cfa -12 + ^ r4: .cfa -16 + ^
STACK CFI 895c .cfa: r7 8 +
STACK CFI INIT 8978 14 .cfa: sp 0 +
STACK CFI INIT 898c 2 .cfa: sp 0 +
STACK CFI INIT 898e 4 .cfa: sp 0 +
STACK CFI INIT 8994 160 .cfa: sp 0 +
STACK CFI 8996 .cfa: sp 16 + .ra: .cfa -4 + ^ r7: .cfa -8 + ^ r5: .cfa -12 + ^ r4: .cfa -16 + ^
STACK CFI 8998 .cfa: r7 8 +
STACK CFI INIT 8af4 18 .cfa: sp 0 +
STACK CFI INIT 8b0c c .cfa: sp 0 +
STACK CFI INIT 8b18 f4 .cfa: sp 0 +
STACK CFI 8b1a .cfa: sp 20 + .ra: .cfa -4 + ^ r7: .cfa -8 + ^ r6: .cfa -12 + ^ r5: .cfa -16 + ^ r4: .cfa -20 + ^
STACK CFI 8b1c .cfa: r7 8 +
STACK CFI 8b20 r11: .cfa -24 + ^
STACK CFI INIT 8c0c 144 .cfa: sp 0 +
STACK CFI 8c0e .cfa: sp 20 + .ra: .cfa -4 + ^ r7: .cfa -8 + ^ r6: .cfa -12 + ^ r5: .cfa -16 + ^ r4: .cfa -20 + ^
STACK CFI 8c10 .cfa: r7 8 +
STACK CFI 8c14 r8: .cfa -24 + ^
STACK CFI INIT 8d50 4 .cfa: sp 0 +
STACK CFI INIT 8d54 20 .cfa: sp 0 +
STACK CFI 8d56 .cfa: sp 16 + .ra: .cfa -4 + ^ r7: .cfa -8 + ^ r6: .cfa -12 + ^ r4: .cfa -16 + ^
STACK CFI 8d58 .cfa: r7 8 +
STACK CFI INIT 8d74 14 .cfa: sp 0 +
STACK CFI INIT 8d88 2 .cfa: sp 0 +
STACK CFI INIT 8d8a 4 .cfa: sp 0 +
STACK CFI INIT 8d90 b0 .cfa: sp 0 +
STACK CFI 8d92 .cfa: sp 16 + .ra: .cfa -4 + ^ r7: .cfa -8 + ^ r5: .cfa -12 + ^ r4: .cfa -16 + ^
STACK CFI 8d94 .cfa: r7 8 +
STACK CFI INIT 8e40 18 .cfa: sp 0 +
STACK CFI INIT 8e58 c .cfa: sp 0 +
STACK CFI INIT 8e64 140 .cfa: sp 0 +
STACK CFI 8e66 .cfa: sp 20 + .ra: .cfa -4 + ^ r7: .cfa -8 + ^ r6: .cfa -12 + ^ r5: .cfa -16 + ^ r4: .cfa -20 + ^
STACK CFI 8e68 .cfa: r7 8 +
STACK CFI 8e6c r8: .cfa -24 + ^
STACK CFI INIT 8fa4 4 .cfa: sp 0 +
STACK CFI INIT 8fa8 20 .cfa: sp 0 +
STACK CFI 8faa .cfa: sp 16 + .ra: .cfa -4 + ^ r7: .cfa -8 + ^ r6: .cfa -12 + ^ r4: .cfa -16 + ^
STACK CFI 8fac .cfa: r7 8 +
STACK CFI INIT 8fc8 14 .cfa: sp 0 +
STACK CFI INIT 8fdc 2 .cfa: sp 0 +
STACK CFI INIT 8fde 4 .cfa: sp 0 +
STACK CFI INIT 8fe4 b0 .cfa: sp 0 +
STACK CFI 8fe6 .cfa: sp 16 + .ra: .cfa -4 + ^ r7: .cfa -8 + ^ r5: .cfa -12 + ^ r4: .cfa -16 + ^
STACK CFI 8fe8 .cfa: r7 8 +
STACK CFI INIT 9094 18 .cfa: sp 0 +
STACK CFI INIT 90ac c .cfa: sp 0 +
STACK CFI INIT 90b8 138 .cfa: sp 0 +
STACK CFI 90ba .cfa: sp 20 + .ra: .cfa -4 + ^ r7: .cfa -8 + ^ r6: .cfa -12 + ^ r5: .cfa -16 + ^ r4: .cfa -20 + ^
STACK CFI 90bc .cfa: r7 8 +
STACK CFI 90c0 r11: .cfa -24 + ^
STACK CFI INIT 91f0 4 .cfa: sp 0 +
STACK CFI INIT 91f4 20 .cfa: sp 0 +
STACK CFI 91f6 .cfa: sp 16 + .ra: .cfa -4 + ^ r7: .cfa -8 + ^ r6: .cfa -12 + ^ r4: .cfa -16 + ^
STACK CFI 91f8 .cfa: r7 8 +
STACK CFI INIT 9214 14 .cfa: sp 0 +
STACK CFI INIT 9228 2 .cfa: sp 0 +
STACK CFI INIT 922a 4 .cfa: sp 0 +
STACK CFI INIT 9230 b0 .cfa: sp 0 +
STACK CFI 9232 .cfa: sp 16 + .ra: .cfa -4 + ^ r7: .cfa -8 + ^ r5: .cfa -12 + ^ r4: .cfa -16 + ^
STACK CFI 9234 .cfa: r7 8 +
STACK CFI INIT 92e0 18 .cfa: sp 0 +
STACK CFI INIT 92f8 c .cfa: sp 0 +
STACK CFI INIT 9304 f4 .cfa: sp 0 +
STACK CFI 9306 .cfa: sp 20 + .ra: .cfa -4 + ^ r7: .cfa -8 + ^ r6: .cfa -12 + ^ r5: .cfa -16 + ^ r4: .cfa -20 + ^
STACK CFI 9308 .cfa: r7 8 +
STACK CFI 930c r11: .cfa -24 + ^
STACK CFI INIT 93f8 138 .cfa: sp 0 +
STACK CFI 93fa .cfa: sp 20 + .ra: .cfa -4 + ^ r7: .cfa -8 + ^ r6: .cfa -12 + ^ r5: .cfa -16 + ^ r4: .cfa -20 + ^
STACK CFI 93fc .cfa: r7 8 +
STACK CFI 9400 r11: .cfa -24 + ^
STACK CFI INIT 9530 4 .cfa: sp 0 +
STACK CFI INIT 9534 20 .cfa: sp 0 +
STACK CFI 9536 .cfa: sp 16 + .ra: .cfa -4 + ^ r7: .cfa -8 + ^ r6: .cfa -12 + ^ r4: .cfa -16 + ^
STACK CFI 9538 .cfa: r7 8 +
STACK CFI INIT 9554 14 .cfa: sp 0 +
STACK CFI INIT 9568 2 .cfa: sp 0 +
STACK CFI INIT 956a 4 .cfa: sp 0 +
STACK CFI INIT 9570 ac .cfa: sp 0 +
STACK CFI 9572 .cfa: sp 16 + .ra: .cfa -4 + ^ r7: .cfa -8 + ^ r5: .cfa -12 + ^ r4: .cfa -16 + ^
STACK CFI 9574 .cfa: r7 8 +
STACK CFI INIT 961c 18 .cfa: sp 0 +
STACK CFI INIT 9634 c .cfa: sp 0 +
STACK CFI INIT 9640 fc .cfa: sp 0 +
STACK CFI 9642 .cfa: sp 20 + .ra: .cfa -4 + ^ r7: .cfa -8 + ^ r6: .cfa -12 + ^ r5: .cfa -16 + ^ r4: .cfa -20 + ^
STACK CFI 9644 .cfa: r7 8 +
STACK CFI 9648 r11: .cfa -24 + ^
STACK CFI INIT 973c 13c .cfa: sp 0 +
STACK CFI 973e .cfa: sp 20 + .ra: .cfa -4 + ^ r7: .cfa -8 + ^ r6: .cfa -12 + ^ r5: .cfa -16 + ^ r4: .cfa -20 + ^
STACK CFI 9740 .cfa: r7 8 +
STACK CFI 9744 r8: .cfa -24 + ^
STACK CFI INIT 9878 4 .cfa: sp 0 +
STACK CFI INIT 987c 20 .cfa: sp 0 +
STACK CFI 987e .cfa: sp 16 + .ra: .cfa -4 + ^ r7: .cfa -8 + ^ r6: .cfa -12 + ^ r4: .cfa -16 + ^
STACK CFI 9880 .cfa: r7 8 +
STACK CFI INIT 989c 14 .cfa: sp 0 +
STACK CFI INIT 98b0 2 .cfa: sp 0 +
STACK CFI INIT 98b2 4 .cfa: sp 0 +
STACK CFI INIT 98b8 b0 .cfa: sp 0 +
STACK CFI 98ba .cfa: sp 16 + .ra: .cfa -4 + ^ r7: .cfa -8 + ^ r5: .cfa -12 + ^ r4: .cfa -16 + ^
STACK CFI 98bc .cfa: r7 8 +
STACK CFI INIT 9968 18 .cfa: sp 0 +
STACK CFI INIT 9980 c .cfa: sp 0 +
STACK CFI INIT 998c 140 .cfa: sp 0 +
STACK CFI 998e .cfa: sp 20 + .ra: .cfa -4 + ^ r7: .cfa -8 + ^ r6: .cfa -12 + ^ r5: .cfa -16 + ^ r4: .cfa -20 + ^
STACK CFI 9990 .cfa: r7 8 +
STACK CFI 9994 r8: .cfa -24 + ^
STACK CFI INIT 9acc 4 .cfa: sp 0 +
STACK CFI INIT 9ad0 20 .cfa: sp 0 +
STACK CFI 9ad2 .cfa: sp 16 + .ra: .cfa -4 + ^ r7: .cfa -8 + ^ r6: .cfa -12 + ^ r4: .cfa -16 + ^
STACK CFI 9ad4 .cfa: r7 8 +
STACK CFI INIT 9af0 14 .cfa: sp 0 +
STACK CFI INIT 9b04 2 .cfa: sp 0 +
STACK CFI INIT 9b06 4 .cfa: sp 0 +
STACK CFI INIT 9b0c b0 .cfa: sp 0 +
STACK CFI 9b0e .cfa: sp 16 + .ra: .cfa -4 + ^ r7: .cfa -8 + ^ r5: .cfa -12 + ^ r4: .cfa -16 + ^
STACK CFI 9b10 .cfa: r7 8 +
STACK CFI INIT 9bbc 18 .cfa: sp 0 +
STACK CFI INIT 9bd4 c .cfa: sp 0 +
STACK CFI INIT 9be0 138 .cfa: sp 0 +
STACK CFI 9be2 .cfa: sp 20 + .ra: .cfa -4 + ^ r7: .cfa -8 + ^ r6: .cfa -12 + ^ r5: .cfa -16 + ^ r4: .cfa -20 + ^
STACK CFI 9be4 .cfa: r7 8 +
STACK CFI 9be8 r8: .cfa -24 + ^
STACK CFI INIT 9d18 2 .cfa: sp 0 +
STACK CFI INIT 9d1a 4 .cfa: sp 0 +
STACK CFI INIT 9d20 20 .cfa: sp 0 +
STACK CFI 9d22 .cfa: sp 16 + .ra: .cfa -4 + ^ r7: .cfa -8 + ^ r6: .cfa -12 + ^ r4: .cfa -16 + ^
STACK CFI 9d24 .cfa: r7 8 +
STACK CFI INIT 9d40 14 .cfa: sp 0 +
STACK CFI INIT 9d54 2 .cfa: sp 0 +
STACK CFI INIT 9d56 4 .cfa: sp 0 +
STACK CFI INIT 9d5c b0 .cfa: sp 0 +
STACK CFI 9d5e .cfa: sp 16 + .ra: .cfa -4 + ^ r7: .cfa -8 + ^ r5: .cfa -12 + ^ r4: .cfa -16 + ^
STACK CFI 9d60 .cfa: r7 8 +
STACK CFI INIT 9e0c 18 .cfa: sp 0 +
STACK CFI INIT 9e24 c .cfa: sp 0 +
STACK CFI INIT 9e30 ba .cfa: sp 0 +
STACK CFI 9e32 .cfa: sp 20 + .ra: .cfa -4 + ^ r7: .cfa -8 + ^ r6: .cfa -12 + ^ r5: .cfa -16 + ^ r4: .cfa -20 + ^
STACK CFI 9e34 .cfa: r7 8 +
STACK CFI 9e38 r11: .cfa -24 + ^ r10: .cfa -28 + ^ r9: .cfa -32 + ^ r8: .cfa -36 + ^
STACK CFI INIT 9eea 14a .cfa: sp 0 +
STACK CFI 9efc .cfa: sp 16 + .ra: .cfa -4 + ^ r7: .cfa -8 + ^ r6: .cfa -12 + ^ r4: .cfa -16 + ^
STACK CFI 9efe .cfa: r7 8 +
STACK CFI INIT a034 15c .cfa: sp 0 +
STACK CFI a036 .cfa: sp 16 + .ra: .cfa -4 + ^ r7: .cfa -8 + ^ r5: .cfa -12 + ^ r4: .cfa -16 + ^
STACK CFI a038 .cfa: r7 8 +
STACK CFI INIT a190 118 .cfa: sp 0 +
STACK CFI a192 .cfa: sp 8 + .ra: .cfa -4 + ^ r7: .cfa -8 + ^
STACK CFI a194 .cfa: r7 8 +
STACK CFI INIT a2a8 20 .cfa: sp 0 +
STACK CFI a2aa .cfa: sp 16 + .ra: .cfa -4 + ^ r7: .cfa -8 + ^ r6: .cfa -12 + ^ r4: .cfa -16 + ^
STACK CFI a2ac .cfa: r7 8 +
STACK CFI INIT a2c8 20 .cfa: sp 0 +
STACK CFI a2ca .cfa: sp 16 + .ra: .cfa -4 + ^ r7: .cfa -8 + ^ r6: .cfa -12 + ^ r4: .cfa -16 + ^
STACK CFI a2cc .cfa: r7 8 +
STACK CFI INIT a2e8 e .cfa: sp 0 +
STACK CFI INIT a2f6 e .cfa: sp 0 +
STACK CFI INIT a304 e .cfa: sp 0 +
STACK CFI INIT a312 e .cfa: sp 0 +
STACK CFI a314 .cfa: sp 8 + .ra: .cfa -4 + ^ r7: .cfa -8 + ^
STACK CFI a316 .cfa: r7 8 +
