MODULE Linux arm64 878ED53905A633500B883EE1FD9BDC2A0 raydeeux.endscreentweaks.android64.so
INFO CODE_ID 39D58E87A60550330B883EE1FD9BDC2A8CA646C9
INFO GENERATOR mozilla/dump_syms 2.3.4
PUBLIC 15310 0 __on_dlclose
PUBLIC 15320 0 __emutls_unregister_key
PUBLIC 15328 0 __on_dlclose_late
PUBLIC 15330 0 __atexit_handler_wrapper
PUBLIC 15344 0 atexit
PUBLIC 15360 0 pthread_atfork
PUBLIC 15370 0 unwind_phase2
PUBLIC 154a4 0 _Unwind_Resume
PUBLIC 15528 0 unwind_phase2_forced
PUBLIC m 1561c 0 __unw_init_local
PUBLIC m 156c4 0 __unw_get_reg
PUBLIC 15740 0 __unw_step_stage2
PUBLIC m 15754 0 __unw_get_proc_info
PUBLIC m 15794 0 __unw_resume
PUBLIC 157bc 0 libunwind::CFI_Parser<libunwind::LocalAddressSpace>::decodeFDE(libunwind::LocalAddressSpace&, unsigned long, libunwind::CFI_Parser<libunwind::LocalAddressSpace>::FDE_Info*, libunwind::CFI_Parser<libunwind::LocalAddressSpace>::CIE_Info*, bool)
PUBLIC 1594c 0 libunwind::CFI_Parser<libunwind::LocalAddressSpace>::parseCIE(libunwind::LocalAddressSpace&, unsigned long, libunwind::CFI_Parser<libunwind::LocalAddressSpace>::CIE_Info*)
PUBLIC 15c14 0 libunwind::AbstractUnwindCursor::~AbstractUnwindCursor()
PUBLIC 15c1c 0 libunwind::UnwindCursor<libunwind::LocalAddressSpace, libunwind::Registers_arm64>::~UnwindCursor()
PUBLIC 15c24 0 libunwind::UnwindCursor<libunwind::LocalAddressSpace, libunwind::Registers_arm64>::validReg(int)
PUBLIC 15c68 0 libunwind::UnwindCursor<libunwind::LocalAddressSpace, libunwind::Registers_arm64>::getReg(int)
PUBLIC 15d50 0 libunwind::UnwindCursor<libunwind::LocalAddressSpace, libunwind::Registers_arm64>::setReg(int, unsigned long)
PUBLIC 15e38 0 libunwind::UnwindCursor<libunwind::LocalAddressSpace, libunwind::Registers_arm64>::validFloatReg(int)
PUBLIC 15e4c 0 libunwind::UnwindCursor<libunwind::LocalAddressSpace, libunwind::Registers_arm64>::getFloatReg(int)
PUBLIC 15e5c 0 libunwind::UnwindCursor<libunwind::LocalAddressSpace, libunwind::Registers_arm64>::setFloatReg(int, double)
PUBLIC 15e6c 0 libunwind::UnwindCursor<libunwind::LocalAddressSpace, libunwind::Registers_arm64>::step(bool)
PUBLIC 15f5c 0 libunwind::UnwindCursor<libunwind::LocalAddressSpace, libunwind::Registers_arm64>::getInfo(unw_proc_info_t*)
PUBLIC 15fa0 0 libunwind::UnwindCursor<libunwind::LocalAddressSpace, libunwind::Registers_arm64>::jumpto()
PUBLIC 15fac 0 libunwind::UnwindCursor<libunwind::LocalAddressSpace, libunwind::Registers_arm64>::isSignalFrame()
PUBLIC 15fb8 0 libunwind::UnwindCursor<libunwind::LocalAddressSpace, libunwind::Registers_arm64>::getFunctionName(char*, unsigned long, unsigned long*)
PUBLIC 15fe4 0 libunwind::UnwindCursor<libunwind::LocalAddressSpace, libunwind::Registers_arm64>::setInfoBasedOnIPRegister(bool)
PUBLIC 16264 0 libunwind::UnwindCursor<libunwind::LocalAddressSpace, libunwind::Registers_arm64>::getRegisterName(int)
PUBLIC 16270 0 libunwind::UnwindCursor<libunwind::LocalAddressSpace, libunwind::Registers_arm64>::stepThroughSigReturn(libunwind::Registers_arm64&)
PUBLIC 16390 0 libunwind::DwarfInstructions<libunwind::LocalAddressSpace, libunwind::Registers_arm64>::stepWithDwarf(libunwind::LocalAddressSpace&, unsigned long, unsigned long, libunwind::Registers_arm64&, bool&, bool)
PUBLIC 16818 0 libunwind::CFI_Parser<libunwind::LocalAddressSpace>::parseFDEInstructions(libunwind::LocalAddressSpace&, libunwind::CFI_Parser<libunwind::LocalAddressSpace>::FDE_Info const&, libunwind::CFI_Parser<libunwind::LocalAddressSpace>::CIE_Info const&, unsigned long, int, libunwind::CFI_Parser<libunwind::LocalAddressSpace>::PrologInfo*)
PUBLIC 17460 0 libunwind::DwarfInstructions<libunwind::LocalAddressSpace, libunwind::Registers_arm64>::getCFA(libunwind::LocalAddressSpace&, libunwind::CFI_Parser<libunwind::LocalAddressSpace>::PrologInfo const&, libunwind::Registers_arm64 const&)
PUBLIC 17594 0 libunwind::DwarfInstructions<libunwind::LocalAddressSpace, libunwind::Registers_arm64>::getSavedRegister(libunwind::LocalAddressSpace&, libunwind::Registers_arm64 const&, unsigned long, libunwind::CFI_Parser<libunwind::LocalAddressSpace>::RegisterLocation const&)
PUBLIC 177a4 0 libunwind::LocalAddressSpace::getEncodedP(unsigned long&, unsigned long, unsigned char, unsigned long)
PUBLIC 17b30 0 libunwind::LocalAddressSpace::getULEB128(unsigned long&, unsigned long)
PUBLIC 17cf8 0 libunwind::DwarfInstructions<libunwind::LocalAddressSpace, libunwind::Registers_arm64>::evaluateExpression(unsigned long, libunwind::LocalAddressSpace&, libunwind::Registers_arm64 const&, unsigned long)
PUBLIC 186b4 0 libunwind::UnwindCursor<libunwind::LocalAddressSpace, libunwind::Registers_arm64>::getInfoFromDwarfSection(unsigned long, libunwind::UnwindInfoSections const&, unsigned int)
PUBLIC 18988 0 libunwind::findUnwindSectionsByPhdr(dl_phdr_info*, unsigned long, void*)
PUBLIC 18abc 0 libunwind::EHHeaderParser<libunwind::LocalAddressSpace>::decodeEHHdr(libunwind::LocalAddressSpace&, unsigned long, unsigned long, libunwind::EHHeaderParser<libunwind::LocalAddressSpace>::EHHeaderInfo&)
PUBLIC 18bdc 0 libunwind::CFI_Parser<libunwind::LocalAddressSpace>::findFDE(libunwind::LocalAddressSpace&, unsigned long, unsigned long, unsigned long, unsigned long, libunwind::CFI_Parser<libunwind::LocalAddressSpace>::FDE_Info*, libunwind::CFI_Parser<libunwind::LocalAddressSpace>::CIE_Info*)
PUBLIC 18da4 0 libunwind::EHHeaderParser<libunwind::LocalAddressSpace>::findFDE(libunwind::LocalAddressSpace&, unsigned long, unsigned long, unsigned int, libunwind::CFI_Parser<libunwind::LocalAddressSpace>::FDE_Info*, libunwind::CFI_Parser<libunwind::LocalAddressSpace>::CIE_Info*)
PUBLIC 18f0c 0 libunwind::EHHeaderParser<libunwind::LocalAddressSpace>::getTableEntrySize(unsigned char)
PUBLIC 19008 0 libunwind::Registers_arm64::getRegisterName(int)
PUBLIC 19038 0 __libunwind_Registers_arm64_jumpto
PUBLIC m 190c8 0 __unw_getcontext
PUBLIC 19170 0 __aarch64_ldadd8_relax
PUBLIC 191a0 0 init_have_lse_atomics
PUBLIC 19238 0 __init_cpu_features_constructor
PUBLIC 197d4 0 __init_cpu_features
PUBLIC 19860 0 __aarch64_ldadd8_acq_rel
PUBLIC 19890 0 __cxx_global_var_init
PUBLIC 19d10 0 geode::modifier::ModifyBase<geode::modifier::ModifyDerive<MyMenuLayer, MenuLayer> >::~ModifyBase()
PUBLIC 19d2c 0 geode::modifier::ModifyDerive<MyMenuLayer, MenuLayer>::apply()
PUBLIC 1a034 0 std::__ndk1::shared_ptr<geode::Hook>::~shared_ptr[abi:ne180000]()
PUBLIC 1a084 0 geode::impl::ResultData<geode::Hook*, std::__ndk1::basic_string<char, std::__ndk1::char_traits<char>, std::__ndk1::allocator<char> > >::~ResultData()
PUBLIC 1a0f8 0 std::__ndk1::vector<std::__ndk1::basic_string<char, std::__ndk1::char_traits<char>, std::__ndk1::allocator<char> >, std::__ndk1::allocator<std::__ndk1::basic_string<char, std::__ndk1::char_traits<char>, std::__ndk1::allocator<char> > > >::~vector[abi:ne180000]()
PUBLIC 1a174 0 geode::modifier::ModifyBase<geode::modifier::ModifyDerive<MyMenuLayer, MenuLayer> >::apply()
PUBLIC 1a178 0 __clang_call_terminate
PUBLIC 1a188 0 _ZN5geode15UnwrapExceptionC2IRPNS_4HookEQsr4implE18IsStringStreamableIT_EEENS_4impl5OkTagEOS5_
PUBLIC 1a2dc 0 std::__ndk1::__throw_bad_variant_access[abi:ne180000]()
PUBLIC 1a310 0 std::__ndk1::basic_stringstream<char, std::__ndk1::char_traits<char>, std::__ndk1::allocator<char> >::basic_stringstream[abi:ne180000]()
PUBLIC m 1a43c 0 std::__ndk1::basic_stringstream<char, std::__ndk1::char_traits<char>, std::__ndk1::allocator<char> >::~basic_stringstream()
PUBLIC 1a4bc 0 geode::UnwrapException::~UnwrapException()
PUBLIC 1a4e0 0 std::__ndk1::__put_character_sequence[abi:ne180000]<char, std::__ndk1::char_traits<char> >(std::__ndk1::basic_ostream<char, std::__ndk1::char_traits<char> >, std::__ndk1::basic_ostream const*, unsigned long)
PUBLIC 1a684 0 std::__ndk1::__pad_and_output[abi:ne180000]<char, std::__ndk1::char_traits<char> >(std::__ndk1::char_traits<char>, std::__ndk1::ostreambuf_iterator const*, std::__ndk1::ostreambuf_iterator const, std::__ndk1::ostreambuf_iterator const, std::__ndk1::ios_base&, std::__ndk1::ostreambuf_iterator)
PUBLIC 1a860 0 std::__ndk1::basic_string<char, std::__ndk1::char_traits<char>, std::__ndk1::allocator<char> >::__throw_length_error[abi:ne180000]() const
PUBLIC 1a874 0 std::__ndk1::__throw_length_error[abi:ne180000](char const*)
PUBLIC 1a8c4 0 std::length_error::length_error[abi:ne180000](char const*)
PUBLIC 1a8f4 0 std::__throw_bad_array_new_length([abi:ne180000], void)
PUBLIC 1a928 0 std::__ndk1::basic_stringbuf<char, std::__ndk1::char_traits<char>, std::__ndk1::allocator<char> >::str[abi:ne180000]() &&
PUBLIC 1aaa0 0 std::__ndk1::basic_stringbuf<char, std::__ndk1::char_traits<char>, std::__ndk1::allocator<char> >::__init_buf_ptrs[abi:ne180000]()
PUBLIC 1abe8 0 std::__ndk1::vector<std::__ndk1::basic_string<char, std::__ndk1::char_traits<char>, std::__ndk1::allocator<char> >, std::__ndk1::allocator<std::__ndk1::basic_string<char, std::__ndk1::char_traits<char>, std::__ndk1::allocator<char> > > >::__push_back_slow_path<std::__ndk1::basic_string<char, std::__ndk1::char_traits<char>, std::__ndk1::allocator<char> > const&>(std::__ndk1::basic_string<char, std::__ndk1::char_traits<char>, std::__ndk1::allocator<char> > const&)
PUBLIC 1ae10 0 std::__ndk1::basic_string<char, std::__ndk1::char_traits<char>, std::__ndk1::allocator<char> >::__init_copy_ctor_external(char const*, unsigned long)
PUBLIC 1ae90 0 std::__ndk1::__split_buffer<std::__ndk1::basic_string<char, std::__ndk1::char_traits<char>, std::__ndk1::allocator<char> >, std::__ndk1::allocator<std::__ndk1::basic_string<char, std::__ndk1::char_traits<char>, std::__ndk1::allocator<char> > >&>::~__split_buffer()
PUBLIC 1aef8 0 std::__ndk1::vector<std::__ndk1::basic_string<char, std::__ndk1::char_traits<char>, std::__ndk1::allocator<char> >, std::__ndk1::allocator<std::__ndk1::basic_string<char, std::__ndk1::char_traits<char>, std::__ndk1::allocator<char> > > >::__throw_length_error[abi:ne180000]() const
PUBLIC 1af0c 0 std::__ndk1::__variant_detail::__visitation::__base::__dispatcher<(unsigned long)0>::__dispatch[abi:ne180000]<std::__ndk1::__variant_detail::__dtor<std::__ndk1::__variant_detail::__traits<geode::Hook*, std::__ndk1::basic_string<char, std::__ndk1::char_traits<char>, std::__ndk1::allocator<char> > >, (std::__ndk1::__variant_detail::_Trait)1>::__destroy[abi:ne180000]()::{lambda(auto:1&)#1}, std::__ndk1::__variant_detail::__base<(std::__ndk1::__variant_detail::__traits<geode::Hook*, std::__ndk1::basic_string<char, std::__ndk1::char_traits<char>, std::__ndk1::allocator<char> > >)1, geode::Hook, std::__ndk1::allocator<char> >&>(std::__ndk1::__variant_detail::__dtor<std::__ndk1::__variant_detail::__traits<geode::Hook*, std::__ndk1::basic_string<char, std::__ndk1::char_traits<char>, std::__ndk1::allocator<char> > >, (std::__ndk1::__variant_detail::_Trait)1>, std::__ndk1::__variant_detail::__base<(std::__ndk1::__variant_detail::__traits<geode::Hook*, std::__ndk1::basic_string<char, std::__ndk1::char_traits<char>, std::__ndk1::allocator<char> > >)1, geode::Hook, std::__ndk1::allocator<char> >&)
PUBLIC 1af10 0 std::__ndk1::__variant_detail::__visitation::__base::__dispatcher<(unsigned long)1>::__dispatch[abi:ne180000]<std::__ndk1::__variant_detail::__dtor<std::__ndk1::__variant_detail::__traits<geode::Hook*, std::__ndk1::basic_string<char, std::__ndk1::char_traits<char>, std::__ndk1::allocator<char> > >, (std::__ndk1::__variant_detail::_Trait)1>::__destroy[abi:ne180000]()::{lambda(auto:1&)#1}, std::__ndk1::__variant_detail::__base<(std::__ndk1::__variant_detail::__traits<geode::Hook*, std::__ndk1::basic_string<char, std::__ndk1::char_traits<char>, std::__ndk1::allocator<char> > >)1, geode::Hook, std::__ndk1::allocator<char> >&>(std::__ndk1::__variant_detail::__dtor<std::__ndk1::__variant_detail::__traits<geode::Hook*, std::__ndk1::basic_string<char, std::__ndk1::char_traits<char>, std::__ndk1::allocator<char> > >, (std::__ndk1::__variant_detail::_Trait)1>, std::__ndk1::__variant_detail::__base<(std::__ndk1::__variant_detail::__traits<geode::Hook*, std::__ndk1::basic_string<char, std::__ndk1::char_traits<char>, std::__ndk1::allocator<char> > >)1, geode::Hook, std::__ndk1::allocator<char> >&)
PUBLIC 1af24 0 std::__ndk1::__tree<std::__ndk1::__value_type<std::__ndk1::basic_string<char, std::__ndk1::char_traits<char>, std::__ndk1::allocator<char> >, std::__ndk1::shared_ptr<geode::Hook> >, std::__ndk1::__map_value_compare<std::__ndk1::basic_string<char, std::__ndk1::char_traits<char>, std::__ndk1::allocator<char> >, std::__ndk1::__value_type<std::__ndk1::basic_string<char, std::__ndk1::char_traits<char>, std::__ndk1::allocator<char> >, std::__ndk1::shared_ptr<geode::Hook> >, std::__ndk1::less<std::__ndk1::basic_string<char, std::__ndk1::char_traits<char>, std::__ndk1::allocator<char> > >, true>, std::__ndk1::allocator<std::__ndk1::__value_type<std::__ndk1::basic_string<char, std::__ndk1::char_traits<char>, std::__ndk1::allocator<char> >, std::__ndk1::shared_ptr<geode::Hook> > > >::find<std::__ndk1::basic_string<char, std::__ndk1::char_traits<char>, std::__ndk1::allocator<char> > >(std::__ndk1::basic_string<char, std::__ndk1::char_traits<char>, std::__ndk1::allocator<char> > const&)
PUBLIC 1b044 0 std::__ndk1::__tree<std::__ndk1::__value_type<std::__ndk1::basic_string<char, std::__ndk1::char_traits<char>, std::__ndk1::allocator<char> >, std::__ndk1::shared_ptr<geode::Hook> >, std::__ndk1::__map_value_compare<std::__ndk1::basic_string<char, std::__ndk1::char_traits<char>, std::__ndk1::allocator<char> >, std::__ndk1::__value_type<std::__ndk1::basic_string<char, std::__ndk1::char_traits<char>, std::__ndk1::allocator<char> >, std::__ndk1::shared_ptr<geode::Hook> >, std::__ndk1::less<std::__ndk1::basic_string<char, std::__ndk1::char_traits<char>, std::__ndk1::allocator<char> > >, true>, std::__ndk1::allocator<std::__ndk1::__value_type<std::__ndk1::basic_string<char, std::__ndk1::char_traits<char>, std::__ndk1::allocator<char> >, std::__ndk1::shared_ptr<geode::Hook> > > >::erase(std::__ndk1::__tree_const_iterator<std::__ndk1::__value_type<std::__ndk1::basic_string<char, std::__ndk1::char_traits<char>, std::__ndk1::allocator<char> >, std::__ndk1::shared_ptr<geode::Hook> >, std::__ndk1::__tree_node<std::__ndk1::__value_type<std::__ndk1::basic_string<char, std::__ndk1::char_traits<char>, std::__ndk1::allocator<char> >, std::__ndk1::shared_ptr<geode::Hook> >, void*>*, long>)
PUBLIC 1b118 0 std::__ndk1::__tree_remove[abi:ne180000]<std::__ndk1::__tree_node_base<void*>*>(std::__ndk1::__tree_node_base<void*>*, std::__ndk1::__tree_node_base<void*>*)
PUBLIC 1b4e0 0 std::__ndk1::__tree<std::__ndk1::__value_type<std::__ndk1::basic_string<char, std::__ndk1::char_traits<char>, std::__ndk1::allocator<char> >, std::__ndk1::shared_ptr<geode::Hook> >, std::__ndk1::__map_value_compare<std::__ndk1::basic_string<char, std::__ndk1::char_traits<char>, std::__ndk1::allocator<char> >, std::__ndk1::__value_type<std::__ndk1::basic_string<char, std::__ndk1::char_traits<char>, std::__ndk1::allocator<char> >, std::__ndk1::shared_ptr<geode::Hook> >, std::__ndk1::less<std::__ndk1::basic_string<char, std::__ndk1::char_traits<char>, std::__ndk1::allocator<char> > >, true>, std::__ndk1::allocator<std::__ndk1::__value_type<std::__ndk1::basic_string<char, std::__ndk1::char_traits<char>, std::__ndk1::allocator<char> >, std::__ndk1::shared_ptr<geode::Hook> > > >::destroy(std::__ndk1::__tree_node<std::__ndk1::__value_type<std::__ndk1::basic_string<char, std::__ndk1::char_traits<char>, std::__ndk1::allocator<char> >, std::__ndk1::shared_ptr<geode::Hook> >, void*>*)
PUBLIC 1b56c 0 geode::modifier::AsStaticFunction_init<MyMenuLayer, bool (MyMenuLayer::*)()>::Impl<bool (MyMenuLayer::*)()>::function(MyMenuLayer*)
PUBLIC 1b790 0 geode::addresser::Addresser::addressOfVirtual<bool, MenuLayer, >(bool (MenuLayer::*)())
PUBLIC 1b838 0 MenuLayer::MenuLayer(geode::ZeroConstructorType)
PUBLIC 1b8d4 0 std::__ndk1::shared_ptr<tulip::hook::CallingConvention>::~shared_ptr[abi:ne180000]()
PUBLIC 1b924 0 tulip::hook::HandlerMetadata::~HandlerMetadata()
PUBLIC 1b988 0 Manager::Manager()
PUBLIC 1c34c 0 std::__ndk1::vector<std::__ndk1::basic_string<char, std::__ndk1::char_traits<char>, std::__ndk1::allocator<char> >, std::__ndk1::allocator<std::__ndk1::basic_string<char, std::__ndk1::char_traits<char>, std::__ndk1::allocator<char> > > >::vector[abi:ne180000](std::initializer_list<std::__ndk1::basic_string<char, std::__ndk1::char_traits<char>, std::__ndk1::allocator<char> > >)
PUBLIC 1c4a4 0 _ZNSt6__ndk14pairIKNS_12basic_stringIcNS_11char_traitsIcEENS_9allocatorIcEEEES6_EC2B8ne180000IRA21_KcRA13_SA_TnNS_9enable_ifIXclsr10_CheckArgsE17__enable_implicitIT_T0_EEEiE4typeELi0EEEOSG_OSH_
PUBLIC 1c5dc 0 _ZNSt6__ndk14pairIKNS_12basic_stringIcNS_11char_traitsIcEENS_9allocatorIcEEEES6_EC2B8ne180000IRA12_KcRA11_SA_TnNS_9enable_ifIXclsr10_CheckArgsE17__enable_implicitIT_T0_EEEiE4typeELi0EEEOSG_OSH_
PUBLIC 1c714 0 _ZNSt6__ndk14pairIKNS_12basic_stringIcNS_11char_traitsIcEENS_9allocatorIcEEEES6_EC2B8ne180000IRA17_KcRA9_SA_TnNS_9enable_ifIXclsr10_CheckArgsE17__enable_implicitIT_T0_EEEiE4typeELi0EEEOSG_OSH_
PUBLIC 1c84c 0 _ZNSt6__ndk14pairIKNS_12basic_stringIcNS_11char_traitsIcEENS_9allocatorIcEEEES6_EC2B8ne180000IRA12_KcRA4_SA_TnNS_9enable_ifIXclsr10_CheckArgsE17__enable_implicitIT_T0_EEEiE4typeELi0EEEOSG_OSH_
PUBLIC 1c984 0 _ZNSt6__ndk14pairIKNS_12basic_stringIcNS_11char_traitsIcEENS_9allocatorIcEEEES6_EC2B8ne180000IRA19_KcRA4_SA_TnNS_9enable_ifIXclsr10_CheckArgsE17__enable_implicitIT_T0_EEEiE4typeELi0EEEOSG_OSH_
PUBLIC 1cabc 0 _ZNSt6__ndk14pairIKNS_12basic_stringIcNS_11char_traitsIcEENS_9allocatorIcEEEES6_EC2B8ne180000IRA20_KcRA9_SA_TnNS_9enable_ifIXclsr10_CheckArgsE17__enable_implicitIT_T0_EEEiE4typeELi0EEEOSG_OSH_
PUBLIC 1cbf4 0 _ZNSt6__ndk14pairIKNS_12basic_stringIcNS_11char_traitsIcEENS_9allocatorIcEEEES6_EC2B8ne180000IRA21_KcRA7_SA_TnNS_9enable_ifIXclsr10_CheckArgsE17__enable_implicitIT_T0_EEEiE4typeELi0EEEOSG_OSH_
PUBLIC 1cd2c 0 std::__ndk1::pair<std::__ndk1::basic_string<char, std::__ndk1::char_traits<char>, std::__ndk1::allocator<char> > const, std::__ndk1::basic_string<char, std::__ndk1::char_traits<char>, std::__ndk1::allocator<char> > >::~pair()
PUBLIC 1cd70 0 std::__ndk1::map<std::__ndk1::basic_string<char, std::__ndk1::char_traits<char>, std::__ndk1::allocator<char> >, std::__ndk1::basic_string<char, std::__ndk1::char_traits<char>, std::__ndk1::allocator<char> >, std::__ndk1::less<std::__ndk1::basic_string<char, std::__ndk1::char_traits<char>, std::__ndk1::allocator<char> > >, std::__ndk1::allocator<std::__ndk1::pair<std::__ndk1::basic_string<char, std::__ndk1::char_traits<char>, std::__ndk1::allocator<char> > const, std::__ndk1::basic_string<char, std::__ndk1::char_traits<char>, std::__ndk1::allocator<char> > > > >::map[abi:ne180000](std::initializer_list<std::__ndk1::pair<std::__ndk1::basic_string<char, std::__ndk1::char_traits<char>, std::__ndk1::allocator<char> > const, std::__ndk1::basic_string<char, std::__ndk1::char_traits<char>, std::__ndk1::allocator<char> > > >, std::__ndk1::less<std::__ndk1::basic_string<char, std::__ndk1::char_traits<char>, std::__ndk1::allocator<char> > > const&)
PUBLIC 1ce8c 0 std::__ndk1::__exception_guard_exceptions<std::__ndk1::vector<std::__ndk1::basic_string<char, std::__ndk1::char_traits<char>, std::__ndk1::allocator<char> >, std::__ndk1::allocator<std::__ndk1::basic_string<char, std::__ndk1::char_traits<char>, std::__ndk1::allocator<char> > > >::__destroy_vector>::~__exception_guard_exceptions[abi:ne180000]()
PUBLIC 1cf18 0 std::__ndk1::__exception_guard_exceptions<std::__ndk1::_AllocatorDestroyRangeReverse<std::__ndk1::allocator<std::__ndk1::basic_string<char, std::__ndk1::char_traits<char>, std::__ndk1::allocator<char> > >, std::__ndk1::basic_string<char, std::__ndk1::char_traits<char>, std::__ndk1::allocator<char> >*> >::~__exception_guard_exceptions[abi:ne180000]()
PUBLIC 1cf78 0 std::__ndk1::__tree<std::__ndk1::__value_type<std::__ndk1::basic_string<char, std::__ndk1::char_traits<char>, std::__ndk1::allocator<char> >, std::__ndk1::basic_string<char, std::__ndk1::char_traits<char>, std::__ndk1::allocator<char> > >, std::__ndk1::__map_value_compare<std::__ndk1::basic_string<char, std::__ndk1::char_traits<char>, std::__ndk1::allocator<char> >, std::__ndk1::__value_type<std::__ndk1::basic_string<char, std::__ndk1::char_traits<char>, std::__ndk1::allocator<char> >, std::__ndk1::basic_string<char, std::__ndk1::char_traits<char>, std::__ndk1::allocator<char> > >, std::__ndk1::less<std::__ndk1::basic_string<char, std::__ndk1::char_traits<char>, std::__ndk1::allocator<char> > >, true>, std::__ndk1::allocator<std::__ndk1::__value_type<std::__ndk1::basic_string<char, std::__ndk1::char_traits<char>, std::__ndk1::allocator<char> >, std::__ndk1::basic_string<char, std::__ndk1::char_traits<char>, std::__ndk1::allocator<char> > > > >::__find_equal<std::__ndk1::basic_string<char, std::__ndk1::char_traits<char>, std::__ndk1::allocator<char> > >(std::__ndk1::__tree_const_iterator<std::__ndk1::__value_type<std::__ndk1::basic_string<char, std::__ndk1::char_traits<char>, std::__ndk1::allocator<char> >, std::__ndk1::basic_string<char, std::__ndk1::char_traits<char>, std::__ndk1::allocator<char> > >, std::__ndk1::__tree_node<std::__ndk1::__value_type<std::__ndk1::basic_string<char, std::__ndk1::char_traits<char>, std::__ndk1::allocator<char> >, std::__ndk1::basic_string<char, std::__ndk1::char_traits<char>, std::__ndk1::allocator<char> > >, void*>*, long>, std::__ndk1::__tree_end_node<std::__ndk1::__tree_node_base<void*>*>*&, std::__ndk1::__tree_node_base<void*>*&, std::__ndk1::basic_string<char, std::__ndk1::char_traits<char>, std::__ndk1::allocator<char> > const&)
PUBLIC 1d368 0 std::__ndk1::__tree<std::__ndk1::__value_type<std::__ndk1::basic_string<char, std::__ndk1::char_traits<char>, std::__ndk1::allocator<char> >, std::__ndk1::basic_string<char, std::__ndk1::char_traits<char>, std::__ndk1::allocator<char> > >, std::__ndk1::__map_value_compare<std::__ndk1::basic_string<char, std::__ndk1::char_traits<char>, std::__ndk1::allocator<char> >, std::__ndk1::__value_type<std::__ndk1::basic_string<char, std::__ndk1::char_traits<char>, std::__ndk1::allocator<char> >, std::__ndk1::basic_string<char, std::__ndk1::char_traits<char>, std::__ndk1::allocator<char> > >, std::__ndk1::less<std::__ndk1::basic_string<char, std::__ndk1::char_traits<char>, std::__ndk1::allocator<char> > >, true>, std::__ndk1::allocator<std::__ndk1::__value_type<std::__ndk1::basic_string<char, std::__ndk1::char_traits<char>, std::__ndk1::allocator<char> >, std::__ndk1::basic_string<char, std::__ndk1::char_traits<char>, std::__ndk1::allocator<char> > > > >::__construct_node<std::__ndk1::pair<std::__ndk1::basic_string<char, std::__ndk1::char_traits<char>, std::__ndk1::allocator<char> > const, std::__ndk1::basic_string<char, std::__ndk1::char_traits<char>, std::__ndk1::allocator<char> > > const&>(std::__ndk1::pair<std::__ndk1::basic_string<char, std::__ndk1::char_traits<char>, std::__ndk1::allocator<char> > const, std::__ndk1::basic_string<char, std::__ndk1::char_traits<char>, std::__ndk1::allocator<char> > > const&)
PUBLIC 1d450 0 std::__ndk1::unique_ptr<std::__ndk1::__tree_node<std::__ndk1::__value_type<std::__ndk1::basic_string<char, std::__ndk1::char_traits<char>, std::__ndk1::allocator<char> >, std::__ndk1::basic_string<char, std::__ndk1::char_traits<char>, std::__ndk1::allocator<char> > >, void*>, std::__ndk1::__tree_node_destructor<std::__ndk1::allocator<std::__ndk1::__tree_node<std::__ndk1::__value_type<std::__ndk1::basic_string<char, std::__ndk1::char_traits<char>, std::__ndk1::allocator<char> >, std::__ndk1::basic_string<char, std::__ndk1::char_traits<char>, std::__ndk1::allocator<char> > >, void*> > > >::~unique_ptr[abi:ne180000]()
PUBLIC 1d4ac 0 std::__ndk1::__tree_balance_after_insert[abi:ne180000]<std::__ndk1::__tree_node_base<void*>*>(std::__ndk1::__tree_node_base<void*>*, std::__ndk1::__tree_node_base<void*>*)
PUBLIC 1d65c 0 std::__ndk1::__tree<std::__ndk1::__value_type<std::__ndk1::basic_string<char, std::__ndk1::char_traits<char>, std::__ndk1::allocator<char> >, std::__ndk1::basic_string<char, std::__ndk1::char_traits<char>, std::__ndk1::allocator<char> > >, std::__ndk1::__map_value_compare<std::__ndk1::basic_string<char, std::__ndk1::char_traits<char>, std::__ndk1::allocator<char> >, std::__ndk1::__value_type<std::__ndk1::basic_string<char, std::__ndk1::char_traits<char>, std::__ndk1::allocator<char> >, std::__ndk1::basic_string<char, std::__ndk1::char_traits<char>, std::__ndk1::allocator<char> > >, std::__ndk1::less<std::__ndk1::basic_string<char, std::__ndk1::char_traits<char>, std::__ndk1::allocator<char> > >, true>, std::__ndk1::allocator<std::__ndk1::__value_type<std::__ndk1::basic_string<char, std::__ndk1::char_traits<char>, std::__ndk1::allocator<char> >, std::__ndk1::basic_string<char, std::__ndk1::char_traits<char>, std::__ndk1::allocator<char> > > > >::destroy(std::__ndk1::__tree_node<std::__ndk1::__value_type<std::__ndk1::basic_string<char, std::__ndk1::char_traits<char>, std::__ndk1::allocator<char> >, std::__ndk1::basic_string<char, std::__ndk1::char_traits<char>, std::__ndk1::allocator<char> > >, void*>*)
PUBLIC 1d6d4 0 std::__ndk1::__tree<std::__ndk1::__value_type<std::__ndk1::basic_string<char, std::__ndk1::char_traits<char>, std::__ndk1::allocator<char> >, std::__ndk1::basic_string<char, std::__ndk1::char_traits<char>, std::__ndk1::allocator<char> > >, std::__ndk1::__map_value_compare<std::__ndk1::basic_string<char, std::__ndk1::char_traits<char>, std::__ndk1::allocator<char> >, std::__ndk1::__value_type<std::__ndk1::basic_string<char, std::__ndk1::char_traits<char>, std::__ndk1::allocator<char> >, std::__ndk1::basic_string<char, std::__ndk1::char_traits<char>, std::__ndk1::allocator<char> > >, std::__ndk1::less<std::__ndk1::basic_string<char, std::__ndk1::char_traits<char>, std::__ndk1::allocator<char> > >, true>, std::__ndk1::allocator<std::__ndk1::__value_type<std::__ndk1::basic_string<char, std::__ndk1::char_traits<char>, std::__ndk1::allocator<char> >, std::__ndk1::basic_string<char, std::__ndk1::char_traits<char>, std::__ndk1::allocator<char> > > > >::find<std::__ndk1::basic_string<char, std::__ndk1::char_traits<char>, std::__ndk1::allocator<char> > >(std::__ndk1::basic_string<char, std::__ndk1::char_traits<char>, std::__ndk1::allocator<char> > const&) const
PUBLIC 1d7f4 0 std::__ndk1::__tree<std::__ndk1::__value_type<std::__ndk1::basic_string<char, std::__ndk1::char_traits<char>, std::__ndk1::allocator<char> >, std::__ndk1::shared_ptr<geode::Hook> >, std::__ndk1::__map_value_compare<std::__ndk1::basic_string<char, std::__ndk1::char_traits<char>, std::__ndk1::allocator<char> >, std::__ndk1::__value_type<std::__ndk1::basic_string<char, std::__ndk1::char_traits<char>, std::__ndk1::allocator<char> >, std::__ndk1::shared_ptr<geode::Hook> >, std::__ndk1::less<std::__ndk1::basic_string<char, std::__ndk1::char_traits<char>, std::__ndk1::allocator<char> > >, true>, std::__ndk1::allocator<std::__ndk1::__value_type<std::__ndk1::basic_string<char, std::__ndk1::char_traits<char>, std::__ndk1::allocator<char> >, std::__ndk1::shared_ptr<geode::Hook> > > >::__emplace_unique_key_args<std::__ndk1::basic_string<char, std::__ndk1::char_traits<char>, std::__ndk1::allocator<char> >, std::__ndk1::piecewise_construct_t const&, std::__ndk1::tuple<std::__ndk1::basic_string<char, std::__ndk1::char_traits<char>, std::__ndk1::allocator<char> >&&>, std::__ndk1::tuple<> >(std::__ndk1::basic_string<char, std::__ndk1::char_traits<char>, std::__ndk1::allocator<char> > const&, std::__ndk1::piecewise_construct_t const&, std::__ndk1::tuple<std::__ndk1::basic_string<char, std::__ndk1::char_traits<char>, std::__ndk1::allocator<char> >&&>, std::__ndk1::tuple<>)
PUBLIC 1d96c 0 __cxx_global_var_init
PUBLIC 1ddec 0 geode::modifier::ModifyBase<geode::modifier::ModifyDerive<MyPlayLayer, PlayLayer> >::~ModifyBase()
PUBLIC 1de08 0 geode::modifier::ModifyDerive<MyPlayLayer, PlayLayer>::apply()
PUBLIC 1e46c 0 geode::Mod::get<void>()
PUBLIC 1e4a8 0 geode::modifier::ModifyBase<geode::modifier::ModifyDerive<MyPlayLayer, PlayLayer> >::apply()
PUBLIC 1e4ac 0 geode::Hook::create<void (*)(MyPlayLayer*)>(void*, void (*)(MyPlayLayer*), std::__ndk1::basic_string<char, std::__ndk1::char_traits<char>, std::__ndk1::allocator<char> > const&, tulip::hook::TulipConvention, tulip::hook::HookMetadata const&)
PUBLIC 1e5e0 0 geode::modifier::AsStaticFunction_levelComplete<MyPlayLayer, void (MyPlayLayer::*)()>::Impl<void (MyPlayLayer::*)()>::function(MyPlayLayer*)
PUBLIC 1e6fc 0 std::__ndk1::basic_string<char, std::__ndk1::char_traits<char>, std::__ndk1::allocator<char> >::basic_string[abi:ne180000]<0>()
PUBLIC 1e798 0 geode::modifier::AsStaticFunction_onQuit<MyPlayLayer, void (MyPlayLayer::*)()>::Impl<void (MyPlayLayer::*)()>::function(MyPlayLayer*)
PUBLIC 1e8c0 0 geode::modifier::AsStaticFunction_showCompleteText<MyPlayLayer, void (MyPlayLayer::*)()>::Impl<void (MyPlayLayer::*)()>::function(MyPlayLayer*)
PUBLIC 1f08c 0 geode::Mod::getSettingValue<bool>(std::__ndk1::basic_string_view<char, std::__ndk1::char_traits<char> >) const
PUBLIC 1f1c0 0 geode::cast::traverseTypeinfoFor(void*, geode::cast::ClassTypeinfoType const*, char const*)
PUBLIC 1f2c4 0 geode::cocos::CCArrayExt<cocos2d::CCNode*>::~CCArrayExt()
PUBLIC 1f2e4 0 geode::Mod::getSettingValue<std::__ndk1::basic_string<char, std::__ndk1::char_traits<char>, std::__ndk1::allocator<char> > >(std::__ndk1::basic_string_view<char, std::__ndk1::char_traits<char> >) const
PUBLIC 1f474 0 Manager::generateNewSprites(std::__ndk1::basic_string<char, std::__ndk1::char_traits<char>, std::__ndk1::allocator<char> >, PlayLayer*)
PUBLIC 21094 0 geode::log::info<std::__ndk1::basic_string<char, std::__ndk1::char_traits<char>, std::__ndk1::allocator<char> >&, std::__ndk1::basic_string<char, std::__ndk1::char_traits<char>, std::__ndk1::allocator<char> >&>(fmt::v11::basic_format_string<char, fmt::v11::type_identity<decltype ((wrapCocosObj<std::__ndk1::basic_string<char, std::__ndk1::char_traits<char>, std::__ndk1::allocator<char> >&, std::__ndk1::basic_string<char, std::__ndk1::char_traits<char>, std::__ndk1::allocator<char> >&>)((std::declval<std::__ndk1::basic_string<char, std::__ndk1::char_traits<char>, std::__ndk1::allocator<char> >&, std::__ndk1::basic_string<char, std::__ndk1::char_traits<char>, std::__ndk1::allocator<char> >&>)()))>::type>, std::__ndk1::basic_string<char, std::__ndk1::char_traits<char>, std::__ndk1::allocator<char> >&, std::__ndk1::basic_string<char, std::__ndk1::char_traits<char>, std::__ndk1::allocator<char> >&)
PUBLIC 21154 0 std::__ndk1::shared_ptr<geode::StringSettingV3>::~shared_ptr[abi:ne180000]()
PUBLIC 211a4 0 std::__ndk1::__fs::filesystem::directory_iterator::~directory_iterator[abi:ne180000]()
PUBLIC 211f4 0 Manager::isSupportedExtension(std::__ndk1::basic_string<char, std::__ndk1::char_traits<char>, std::__ndk1::allocator<char> > const&)
PUBLIC 21368 0 Manager::grabRandomString(std::__ndk1::vector<std::__ndk1::basic_string<char, std::__ndk1::char_traits<char>, std::__ndk1::allocator<char> >, std::__ndk1::allocator<std::__ndk1::basic_string<char, std::__ndk1::char_traits<char>, std::__ndk1::allocator<char> > > >)
PUBLIC 2156c 0 Manager::getRandInt(int)
PUBLIC 216b0 0 std::__ndk1::__fs::filesystem::path::operator/=[abi:ne180000](std::__ndk1::__fs::filesystem::path const&)
PUBLIC 21798 0 _ZNSt6__ndk112basic_stringIcNS_11char_traitsIcEENS_9allocatorIcEEE6appendB8ne180000IPKcTnNS_9enable_ifIXsr31__has_forward_iterator_categoryIT_EE5valueEiE4typeELi0EEERS5_SA_SA_
PUBLIC 21a9c 0 std::__ndk1::vector<std::__ndk1::basic_string<char, std::__ndk1::char_traits<char>, std::__ndk1::allocator<char> >, std::__ndk1::allocator<std::__ndk1::basic_string<char, std::__ndk1::char_traits<char>, std::__ndk1::allocator<char> > > >::__push_back_slow_path<std::__ndk1::basic_string<char, std::__ndk1::char_traits<char>, std::__ndk1::allocator<char> > >(std::__ndk1::basic_string<char, std::__ndk1::char_traits<char>, std::__ndk1::allocator<char> >&&)
PUBLIC 21c04 0 std::__ndk1::uniform_int_distribution<long>::operator()<std::__ndk1::mersenne_twister_engine<unsigned long, (unsigned long)32, (unsigned long)624, (unsigned long)397, (unsigned long)31, (unsigned long)2567483615, (unsigned long)11, (unsigned long)4294967295, (unsigned long)7, (unsigned long)2636928640, (unsigned long)15, (unsigned long)4022730752, (unsigned long)18, (unsigned long)1812433253> >(std::__ndk1::mersenne_twister_engine<unsigned long, (unsigned long)32, (unsigned long)624, (unsigned long)397, (unsigned long)31, (unsigned long)2567483615, (unsigned long)11, (unsigned long)4294967295, (unsigned long)7, (unsigned long)2636928640, (unsigned long)15, (unsigned long)4022730752, (unsigned long)18, (unsigned long)1812433253>&, std::__ndk1::uniform_int_distribution<long>::param_type const&)
PUBLIC 21dbc 0 std::__ndk1::__independent_bits_engine<std::__ndk1::mersenne_twister_engine<unsigned long, (unsigned long)32, (unsigned long)624, (unsigned long)397, (unsigned long)31, (unsigned long)2567483615, (unsigned long)11, (unsigned long)4294967295, (unsigned long)7, (unsigned long)2636928640, (unsigned long)15, (unsigned long)4022730752, (unsigned long)18, (unsigned long)1812433253>, unsigned long>::__eval(std::__ndk1::integral_constant<bool, true>)
PUBLIC 21fbc 0 std::__ndk1::vector<std::__ndk1::basic_string<char, std::__ndk1::char_traits<char>, std::__ndk1::allocator<char> >, std::__ndk1::allocator<std::__ndk1::basic_string<char, std::__ndk1::char_traits<char>, std::__ndk1::allocator<char> > > >::__init_with_size[abi:ne180000]<std::__ndk1::basic_string<char, std::__ndk1::char_traits<char>, std::__ndk1::allocator<char> >*, std::__ndk1::vector<std::__ndk1::basic_string<char, std::__ndk1::char_traits<char>, std::__ndk1::allocator<char> >, std::__ndk1::allocator<std::__ndk1::basic_string<char, std::__ndk1::char_traits<char>, std::__ndk1::allocator<char> > > >::__init_with_size[abi:ne180000]>(std::__ndk1::basic_string<char, std::__ndk1::char_traits<char>, std::__ndk1::allocator<char> >*, std::__ndk1::vector<std::__ndk1::basic_string<char, std::__ndk1::char_traits<char>, std::__ndk1::allocator<char> >, std::__ndk1::allocator<std::__ndk1::basic_string<char, std::__ndk1::char_traits<char>, std::__ndk1::allocator<char> > > >::__init_with_size[abi:ne180000], unsigned long)
PUBLIC 22128 0 std::__ndk1::basic_string<char, std::__ndk1::char_traits<char>, std::__ndk1::allocator<char> >::__assign_no_alias<true>(char const*, unsigned long)
PUBLIC 221d4 0 std::__ndk1::basic_string<char, std::__ndk1::char_traits<char>, std::__ndk1::allocator<char> >::__assign_no_alias<false>(char const*, unsigned long)
PUBLIC 222e4 0 std::__ndk1::uniform_int_distribution<int>::operator()<std::__ndk1::mersenne_twister_engine<unsigned long, (unsigned long)32, (unsigned long)624, (unsigned long)397, (unsigned long)31, (unsigned long)2567483615, (unsigned long)11, (unsigned long)4294967295, (unsigned long)7, (unsigned long)2636928640, (unsigned long)15, (unsigned long)4022730752, (unsigned long)18, (unsigned long)1812433253> >(std::__ndk1::mersenne_twister_engine<unsigned long, (unsigned long)32, (unsigned long)624, (unsigned long)397, (unsigned long)31, (unsigned long)2567483615, (unsigned long)11, (unsigned long)4294967295, (unsigned long)7, (unsigned long)2636928640, (unsigned long)15, (unsigned long)4022730752, (unsigned long)18, (unsigned long)1812433253>&, std::__ndk1::uniform_int_distribution<int>::param_type const&)
PUBLIC 22424 0 std::__ndk1::__independent_bits_engine<std::__ndk1::mersenne_twister_engine<unsigned long, (unsigned long)32, (unsigned long)624, (unsigned long)397, (unsigned long)31, (unsigned long)2567483615, (unsigned long)11, (unsigned long)4294967295, (unsigned long)7, (unsigned long)2636928640, (unsigned long)15, (unsigned long)4022730752, (unsigned long)18, (unsigned long)1812433253>, unsigned int>::__eval(std::__ndk1::integral_constant<bool, true>)
PUBLIC 22624 0 _ZN3fmt3v119to_stringIiTnNSt6__ndk19enable_ifIXsr3std11is_integralIT_EE5valueEiE4typeELi0EEENS2_12basic_stringIcNS2_11char_traitsIcEENS2_9allocatorIcEEEES4_
PUBLIC 227d4 0 std::__ndk1::__tree<std::__ndk1::__value_type<std::__ndk1::basic_string<char, std::__ndk1::char_traits<char>, std::__ndk1::allocator<char> >, std::__ndk1::basic_string<char, std::__ndk1::char_traits<char>, std::__ndk1::allocator<char> > >, std::__ndk1::__map_value_compare<std::__ndk1::basic_string<char, std::__ndk1::char_traits<char>, std::__ndk1::allocator<char> >, std::__ndk1::__value_type<std::__ndk1::basic_string<char, std::__ndk1::char_traits<char>, std::__ndk1::allocator<char> >, std::__ndk1::basic_string<char, std::__ndk1::char_traits<char>, std::__ndk1::allocator<char> > >, std::__ndk1::less<std::__ndk1::basic_string<char, std::__ndk1::char_traits<char>, std::__ndk1::allocator<char> > >, true>, std::__ndk1::allocator<std::__ndk1::__value_type<std::__ndk1::basic_string<char, std::__ndk1::char_traits<char>, std::__ndk1::allocator<char> >, std::__ndk1::basic_string<char, std::__ndk1::char_traits<char>, std::__ndk1::allocator<char> > > > >::find<std::__ndk1::basic_string<char, std::__ndk1::char_traits<char>, std::__ndk1::allocator<char> > >(std::__ndk1::basic_string<char, std::__ndk1::char_traits<char>, std::__ndk1::allocator<char> > const&)
PUBLIC 228f4 0 __cxx_global_var_init
PUBLIC 22d74 0 geode::modifier::ModifyBase<geode::modifier::ModifyDerive<MyCCScheduler, cocos2d::CCScheduler> >::~ModifyBase()
PUBLIC 22d90 0 geode::modifier::ModifyDerive<MyCCScheduler, cocos2d::CCScheduler>::apply()
PUBLIC 23110 0 geode::modifier::ModifyBase<geode::modifier::ModifyDerive<MyCCScheduler, cocos2d::CCScheduler> >::apply()
PUBLIC 23114 0 geode::modifier::AsStaticFunction_update<MyCCScheduler, void (MyCCScheduler::*)(float)>::Impl<void (MyCCScheduler::*)(float)>::function(MyCCScheduler*, float)
PUBLIC 231d0 0 geode::addresser::Addresser::addressOfVirtual<void, cocos2d::CCScheduler, float>(void (cocos2d::CCScheduler::*)(float))
PUBLIC 232a8 0 __cxx_global_var_init
PUBLIC 23728 0 geode::modifier::ModifyBase<geode::modifier::ModifyDerive<MyEndLevelLayer, EndLevelLayer> >::~ModifyBase()
PUBLIC 23744 0 geode::modifier::ModifyDerive<MyEndLevelLayer, EndLevelLayer>::apply()
PUBLIC 23d44 0 geode::modifier::ModifyBase<geode::modifier::ModifyDerive<MyEndLevelLayer, EndLevelLayer> >::apply()
PUBLIC 23d48 0 geode::modifier::AsStaticFunction_customSetup<MyEndLevelLayer, void (MyEndLevelLayer::*)()>::Impl<void (MyEndLevelLayer::*)()>::function(MyEndLevelLayer*)
PUBLIC 25330 0 geode::modifier::AsStaticFunction_showLayer<MyEndLevelLayer, void (MyEndLevelLayer::*)(bool)>::Impl<void (MyEndLevelLayer::*)(bool)>::function(MyEndLevelLayer*, bool)
PUBLIC 2622c 0 geode::addresser::Addresser::addressOfVirtual<void, EndLevelLayer, >(void (EndLevelLayer::*)())
PUBLIC 262d4 0 EndLevelLayer::EndLevelLayer(geode::ZeroConstructorType)
PUBLIC 26364 0 geode::Mod::getSettingValue<double>(std::__ndk1::basic_string_view<char, std::__ndk1::char_traits<char> >) const
PUBLIC 264a0 0 std::__ndk1::basic_string<char, std::__ndk1::char_traits<char>, std::__ndk1::allocator<char> >::__assign_external(char const*, unsigned long)
PUBLIC 265a4 0 geode::log::info<std::__ndk1::basic_string<char, std::__ndk1::char_traits<char>, std::__ndk1::allocator<char> >&>(fmt::v11::basic_format_string<char, fmt::v11::type_identity<decltype ((wrapCocosObj<std::__ndk1::basic_string<char, std::__ndk1::char_traits<char>, std::__ndk1::allocator<char> >&>)((std::declval<std::__ndk1::basic_string<char, std::__ndk1::char_traits<char>, std::__ndk1::allocator<char> >&>)()))>::type>, std::__ndk1::basic_string<char, std::__ndk1::char_traits<char>, std::__ndk1::allocator<char> >&)
PUBLIC 26650 0 geode::addresser::Addresser::addressOfVirtual<void, EndLevelLayer, bool>(void (EndLevelLayer::*)(bool))
PUBLIC 266f8 0 MyEndLevelLayer::toggleMainLayerVisibility(cocos2d::CCObject*)
PUBLIC 26968 0 __cxx_global_var_init
PUBLIC 26de8 0 geode::modifier::ModifyBase<geode::modifier::ModifyDerive<MyCurrencyRewardLayer, CurrencyRewardLayer> >::~ModifyBase()
PUBLIC 26e04 0 geode::modifier::ModifyDerive<MyCurrencyRewardLayer, CurrencyRewardLayer>::apply()
PUBLIC 27184 0 geode::modifier::ModifyBase<geode::modifier::ModifyDerive<MyCurrencyRewardLayer, CurrencyRewardLayer> >::apply()
PUBLIC 27188 0 geode::modifier::AsStaticFunction_update<MyCurrencyRewardLayer, void (MyCurrencyRewardLayer::*)(float)>::Impl<void (MyCurrencyRewardLayer::*)(float)>::function(MyCurrencyRewardLayer*, float)
PUBLIC 27248 0 geode::addresser::Addresser::addressOfVirtual<void, CurrencyRewardLayer, float>(void (CurrencyRewardLayer::*)(float))
PUBLIC 272f0 0 CurrencyRewardLayer::CurrencyRewardLayer(geode::ZeroConstructorType)
PUBLIC 27374 0 geodeExecFunction8<(anonymous namespace)::ExecFuncUnique8>(geode::ModStateEvent*)
PUBLIC 287e0 0 MyButtonSettingV3::parse(std::__ndk1::basic_string<char, std::__ndk1::char_traits<char>, std::__ndk1::allocator<char> > const&, std::__ndk1::basic_string<char, std::__ndk1::char_traits<char>, std::__ndk1::allocator<char> > const&, matjson::Value const&)
PUBLIC 28b64 0 geode::impl::ResultData<void, std::__ndk1::basic_string<char, std::__ndk1::char_traits<char>, std::__ndk1::allocator<char> > >::~ResultData()
PUBLIC 28bd8 0 addResourceQuotes()
PUBLIC 28cfc 0 geode::Mod::getSavedValue<bool>(std::__ndk1::basic_string_view<char, std::__ndk1::char_traits<char> >)
PUBLIC m 28e8c 0 std::__ndk1::basic_ifstream<char, std::__ndk1::char_traits<char> >::~basic_ifstream()
PUBLIC 28edc 0 std::__ndk1::shared_ptr<geode::SettingV3>::~shared_ptr[abi:ne180000]()
PUBLIC 28f2c 0 std::__ndk1::shared_ptr<MyButtonSettingV3>::~shared_ptr[abi:ne180000]()
PUBLIC 28f7c 0 std::__ndk1::__shared_ptr_emplace<MyButtonSettingV3, std::__ndk1::allocator<MyButtonSettingV3> >::~__shared_ptr_emplace()
PUBLIC 28f8c 0 std::__ndk1::__shared_ptr_emplace<MyButtonSettingV3, std::__ndk1::allocator<MyButtonSettingV3> >::~__shared_ptr_emplace()
PUBLIC 28fbc 0 std::__ndk1::__shared_ptr_emplace<MyButtonSettingV3, std::__ndk1::allocator<MyButtonSettingV3> >::__on_zero_shared()
PUBLIC 28fc8 0 std::__ndk1::__shared_ptr_emplace<MyButtonSettingV3, std::__ndk1::allocator<MyButtonSettingV3> >::__on_zero_shared_weak()
PUBLIC 28fcc 0 std::__ndk1::__function::__base<geode::Result<std::__ndk1::shared_ptr<geode::SettingV3>, std::__ndk1::basic_string<char, std::__ndk1::char_traits<char>, std::__ndk1::allocator<char> > >(std::__ndk1::basic_string<char, std::__ndk1::char_traits<char>, std::__ndk1::allocator<char> > const&, std::__ndk1::basic_string<char, std::__ndk1::char_traits<char>, std::__ndk1::allocator<char> > const&, matjson::Value const&)>::~__base()
PUBLIC 28fd0 0 std::__ndk1::__function::__func<geode::Result<std::__ndk1::shared_ptr<geode::SettingV3>, std::__ndk1::basic_string<char, std::__ndk1::char_traits<char>, std::__ndk1::allocator<char> > > (*)(std::__ndk1::basic_string<char, std::__ndk1::char_traits<char>, std::__ndk1::allocator<char> > const&, std::__ndk1::basic_string<char, std::__ndk1::char_traits<char>, std::__ndk1::allocator<char> > const&, matjson::Value const&), std::__ndk1::allocator<geode::Result<std::__ndk1::shared_ptr<geode::SettingV3>, std::__ndk1::basic_string<char, std::__ndk1::char_traits<char>, std::__ndk1::allocator<char> > > (*)(std::__ndk1::basic_string<char, std::__ndk1::char_traits<char>, std::__ndk1::allocator<char> > const&, std::__ndk1::basic_string<char, std::__ndk1::char_traits<char>, std::__ndk1::allocator<char> > const&, matjson::Value const&)>, geode::Result<std::__ndk1::shared_ptr<geode::SettingV3>, std::__ndk1::basic_string<char, std::__ndk1::char_traits<char>, std::__ndk1::allocator<char> > >(std::__ndk1::basic_string<char, std::__ndk1::char_traits<char>, std::__ndk1::allocator<char> > const&, std::__ndk1::basic_string<char, std::__ndk1::char_traits<char>, std::__ndk1::allocator<char> > const&, matjson::Value const&)>::~__func()
PUBLIC 28fd4 0 std::__ndk1::__function::__func<geode::Result<std::__ndk1::shared_ptr<geode::SettingV3>, std::__ndk1::basic_string<char, std::__ndk1::char_traits<char>, std::__ndk1::allocator<char> > > (*)(std::__ndk1::basic_string<char, std::__ndk1::char_traits<char>, std::__ndk1::allocator<char> > const&, std::__ndk1::basic_string<char, std::__ndk1::char_traits<char>, std::__ndk1::allocator<char> > const&, matjson::Value const&), std::__ndk1::allocator<geode::Result<std::__ndk1::shared_ptr<geode::SettingV3>, std::__ndk1::basic_string<char, std::__ndk1::char_traits<char>, std::__ndk1::allocator<char> > > (*)(std::__ndk1::basic_string<char, std::__ndk1::char_traits<char>, std::__ndk1::allocator<char> > const&, std::__ndk1::basic_string<char, std::__ndk1::char_traits<char>, std::__ndk1::allocator<char> > const&, matjson::Value const&)>, geode::Result<std::__ndk1::shared_ptr<geode::SettingV3>, std::__ndk1::basic_string<char, std::__ndk1::char_traits<char>, std::__ndk1::allocator<char> > >(std::__ndk1::basic_string<char, std::__ndk1::char_traits<char>, std::__ndk1::allocator<char> > const&, std::__ndk1::basic_string<char, std::__ndk1::char_traits<char>, std::__ndk1::allocator<char> > const&, matjson::Value const&)>::__clone() const
PUBLIC 29008 0 std::__ndk1::__function::__func<geode::Result<std::__ndk1::shared_ptr<geode::SettingV3>, std::__ndk1::basic_string<char, std::__ndk1::char_traits<char>, std::__ndk1::allocator<char> > > (*)(std::__ndk1::basic_string<char, std::__ndk1::char_traits<char>, std::__ndk1::allocator<char> > const&, std::__ndk1::basic_string<char, std::__ndk1::char_traits<char>, std::__ndk1::allocator<char> > const&, matjson::Value const&), std::__ndk1::allocator<geode::Result<std::__ndk1::shared_ptr<geode::SettingV3>, std::__ndk1::basic_string<char, std::__ndk1::char_traits<char>, std::__ndk1::allocator<char> > > (*)(std::__ndk1::basic_string<char, std::__ndk1::char_traits<char>, std::__ndk1::allocator<char> > const&, std::__ndk1::basic_string<char, std::__ndk1::char_traits<char>, std::__ndk1::allocator<char> > const&, matjson::Value const&)>, geode::Result<std::__ndk1::shared_ptr<geode::SettingV3>, std::__ndk1::basic_string<char, std::__ndk1::char_traits<char>, std::__ndk1::allocator<char> > >(std::__ndk1::basic_string<char, std::__ndk1::char_traits<char>, std::__ndk1::allocator<char> > const&, std::__ndk1::basic_string<char, std::__ndk1::char_traits<char>, std::__ndk1::allocator<char> > const&, matjson::Value const&)>::__clone(std::__ndk1::__function::__base<geode::Result<std::__ndk1::shared_ptr<geode::SettingV3>, std::__ndk1::basic_string<char, std::__ndk1::char_traits<char>, std::__ndk1::allocator<char> > >(std::__ndk1::basic_string<char, std::__ndk1::char_traits<char>, std::__ndk1::allocator<char> > const&, std::__ndk1::basic_string<char, std::__ndk1::char_traits<char>, std::__ndk1::allocator<char> > const&, matjson::Value const&)>*) const
PUBLIC 2901c 0 std::__ndk1::__function::__func<geode::Result<std::__ndk1::shared_ptr<geode::SettingV3>, std::__ndk1::basic_string<char, std::__ndk1::char_traits<char>, std::__ndk1::allocator<char> > > (*)(std::__ndk1::basic_string<char, std::__ndk1::char_traits<char>, std::__ndk1::allocator<char> > const&, std::__ndk1::basic_string<char, std::__ndk1::char_traits<char>, std::__ndk1::allocator<char> > const&, matjson::Value const&), std::__ndk1::allocator<geode::Result<std::__ndk1::shared_ptr<geode::SettingV3>, std::__ndk1::basic_string<char, std::__ndk1::char_traits<char>, std::__ndk1::allocator<char> > > (*)(std::__ndk1::basic_string<char, std::__ndk1::char_traits<char>, std::__ndk1::allocator<char> > const&, std::__ndk1::basic_string<char, std::__ndk1::char_traits<char>, std::__ndk1::allocator<char> > const&, matjson::Value const&)>, geode::Result<std::__ndk1::shared_ptr<geode::SettingV3>, std::__ndk1::basic_string<char, std::__ndk1::char_traits<char>, std::__ndk1::allocator<char> > >(std::__ndk1::basic_string<char, std::__ndk1::char_traits<char>, std::__ndk1::allocator<char> > const&, std::__ndk1::basic_string<char, std::__ndk1::char_traits<char>, std::__ndk1::allocator<char> > const&, matjson::Value const&)>::destroy()
PUBLIC 29020 0 std::__ndk1::__function::__func<geode::Result<std::__ndk1::shared_ptr<geode::SettingV3>, std::__ndk1::basic_string<char, std::__ndk1::char_traits<char>, std::__ndk1::allocator<char> > > (*)(std::__ndk1::basic_string<char, std::__ndk1::char_traits<char>, std::__ndk1::allocator<char> > const&, std::__ndk1::basic_string<char, std::__ndk1::char_traits<char>, std::__ndk1::allocator<char> > const&, matjson::Value const&), std::__ndk1::allocator<geode::Result<std::__ndk1::shared_ptr<geode::SettingV3>, std::__ndk1::basic_string<char, std::__ndk1::char_traits<char>, std::__ndk1::allocator<char> > > (*)(std::__ndk1::basic_string<char, std::__ndk1::char_traits<char>, std::__ndk1::allocator<char> > const&, std::__ndk1::basic_string<char, std::__ndk1::char_traits<char>, std::__ndk1::allocator<char> > const&, matjson::Value const&)>, geode::Result<std::__ndk1::shared_ptr<geode::SettingV3>, std::__ndk1::basic_string<char, std::__ndk1::char_traits<char>, std::__ndk1::allocator<char> > >(std::__ndk1::basic_string<char, std::__ndk1::char_traits<char>, std::__ndk1::allocator<char> > const&, std::__ndk1::basic_string<char, std::__ndk1::char_traits<char>, std::__ndk1::allocator<char> > const&, matjson::Value const&)>::destroy_deallocate()
PUBLIC 29024 0 std::__ndk1::__function::__func<geode::Result<std::__ndk1::shared_ptr<geode::SettingV3>, std::__ndk1::basic_string<char, std::__ndk1::char_traits<char>, std::__ndk1::allocator<char> > > (*)(std::__ndk1::basic_string<char, std::__ndk1::char_traits<char>, std::__ndk1::allocator<char> > const&, std::__ndk1::basic_string<char, std::__ndk1::char_traits<char>, std::__ndk1::allocator<char> > const&, matjson::Value const&), std::__ndk1::allocator<geode::Result<std::__ndk1::shared_ptr<geode::SettingV3>, std::__ndk1::basic_string<char, std::__ndk1::char_traits<char>, std::__ndk1::allocator<char> > > (*)(std::__ndk1::basic_string<char, std::__ndk1::char_traits<char>, std::__ndk1::allocator<char> > const&, std::__ndk1::basic_string<char, std::__ndk1::char_traits<char>, std::__ndk1::allocator<char> > const&, matjson::Value const&)>, geode::Result<std::__ndk1::shared_ptr<geode::SettingV3>, std::__ndk1::basic_string<char, std::__ndk1::char_traits<char>, std::__ndk1::allocator<char> > >(std::__ndk1::basic_string<char, std::__ndk1::char_traits<char>, std::__ndk1::allocator<char> > const&, std::__ndk1::basic_string<char, std::__ndk1::char_traits<char>, std::__ndk1::allocator<char> > const&, matjson::Value const&)>::operator()(std::__ndk1::basic_string<char, std::__ndk1::char_traits<char>, std::__ndk1::allocator<char> > const&, std::__ndk1::basic_string<char, std::__ndk1::char_traits<char>, std::__ndk1::allocator<char> > const&, matjson::Value const&)
PUBLIC 29038 0 std::__ndk1::__function::__func<geode::Result<std::__ndk1::shared_ptr<geode::SettingV3>, std::__ndk1::basic_string<char, std::__ndk1::char_traits<char>, std::__ndk1::allocator<char> > > (*)(std::__ndk1::basic_string<char, std::__ndk1::char_traits<char>, std::__ndk1::allocator<char> > const&, std::__ndk1::basic_string<char, std::__ndk1::char_traits<char>, std::__ndk1::allocator<char> > const&, matjson::Value const&), std::__ndk1::allocator<geode::Result<std::__ndk1::shared_ptr<geode::SettingV3>, std::__ndk1::basic_string<char, std::__ndk1::char_traits<char>, std::__ndk1::allocator<char> > > (*)(std::__ndk1::basic_string<char, std::__ndk1::char_traits<char>, std::__ndk1::allocator<char> > const&, std::__ndk1::basic_string<char, std::__ndk1::char_traits<char>, std::__ndk1::allocator<char> > const&, matjson::Value const&)>, geode::Result<std::__ndk1::shared_ptr<geode::SettingV3>, std::__ndk1::basic_string<char, std::__ndk1::char_traits<char>, std::__ndk1::allocator<char> > >(std::__ndk1::basic_string<char, std::__ndk1::char_traits<char>, std::__ndk1::allocator<char> > const&, std::__ndk1::basic_string<char, std::__ndk1::char_traits<char>, std::__ndk1::allocator<char> > const&, matjson::Value const&)>::target(std::type_info const&) const
PUBLIC 29054 0 std::__ndk1::__function::__func<geode::Result<std::__ndk1::shared_ptr<geode::SettingV3>, std::__ndk1::basic_string<char, std::__ndk1::char_traits<char>, std::__ndk1::allocator<char> > > (*)(std::__ndk1::basic_string<char, std::__ndk1::char_traits<char>, std::__ndk1::allocator<char> > const&, std::__ndk1::basic_string<char, std::__ndk1::char_traits<char>, std::__ndk1::allocator<char> > const&, matjson::Value const&), std::__ndk1::allocator<geode::Result<std::__ndk1::shared_ptr<geode::SettingV3>, std::__ndk1::basic_string<char, std::__ndk1::char_traits<char>, std::__ndk1::allocator<char> > > (*)(std::__ndk1::basic_string<char, std::__ndk1::char_traits<char>, std::__ndk1::allocator<char> > const&, std::__ndk1::basic_string<char, std::__ndk1::char_traits<char>, std::__ndk1::allocator<char> > const&, matjson::Value const&)>, geode::Result<std::__ndk1::shared_ptr<geode::SettingV3>, std::__ndk1::basic_string<char, std::__ndk1::char_traits<char>, std::__ndk1::allocator<char> > >(std::__ndk1::basic_string<char, std::__ndk1::char_traits<char>, std::__ndk1::allocator<char> > const&, std::__ndk1::basic_string<char, std::__ndk1::char_traits<char>, std::__ndk1::allocator<char> > const&, matjson::Value const&)>::target_type() const
PUBLIC 29060 0 std::__ndk1::__variant_detail::__visitation::__base::__dispatcher<(unsigned long)0>::__dispatch[abi:ne180000]<std::__ndk1::__variant_detail::__dtor<std::__ndk1::__variant_detail::__traits<std::__ndk1::monostate, std::__ndk1::basic_string<char, std::__ndk1::char_traits<char>, std::__ndk1::allocator<char> > >, (std::__ndk1::__variant_detail::_Trait)1>::__destroy[abi:ne180000]()::{lambda(auto:1&)#1}, std::__ndk1::__variant_detail::__base<(std::__ndk1::__variant_detail::__traits<std::__ndk1::monostate, std::__ndk1::basic_string<char, std::__ndk1::char_traits<char>, std::__ndk1::allocator<char> > >)1, std::__ndk1::__variant_detail::__traits, std::__ndk1::allocator<char> >&>(std::__ndk1::__variant_detail::__dtor<std::__ndk1::__variant_detail::__traits<std::__ndk1::monostate, std::__ndk1::basic_string<char, std::__ndk1::char_traits<char>, std::__ndk1::allocator<char> > >, (std::__ndk1::__variant_detail::_Trait)1>, std::__ndk1::__variant_detail::__base<(std::__ndk1::__variant_detail::__traits<std::__ndk1::monostate, std::__ndk1::basic_string<char, std::__ndk1::char_traits<char>, std::__ndk1::allocator<char> > >)1, std::__ndk1::__variant_detail::__traits, std::__ndk1::allocator<char> >&)
PUBLIC 29064 0 std::__ndk1::__variant_detail::__visitation::__base::__dispatcher<(unsigned long)1>::__dispatch[abi:ne180000]<std::__ndk1::__variant_detail::__dtor<std::__ndk1::__variant_detail::__traits<std::__ndk1::monostate, std::__ndk1::basic_string<char, std::__ndk1::char_traits<char>, std::__ndk1::allocator<char> > >, (std::__ndk1::__variant_detail::_Trait)1>::__destroy[abi:ne180000]()::{lambda(auto:1&)#1}, std::__ndk1::__variant_detail::__base<(std::__ndk1::__variant_detail::__traits<std::__ndk1::monostate, std::__ndk1::basic_string<char, std::__ndk1::char_traits<char>, std::__ndk1::allocator<char> > >)1, std::__ndk1::__variant_detail::__traits, std::__ndk1::allocator<char> >&>(std::__ndk1::__variant_detail::__dtor<std::__ndk1::__variant_detail::__traits<std::__ndk1::monostate, std::__ndk1::basic_string<char, std::__ndk1::char_traits<char>, std::__ndk1::allocator<char> > >, (std::__ndk1::__variant_detail::_Trait)1>, std::__ndk1::__variant_detail::__base<(std::__ndk1::__variant_detail::__traits<std::__ndk1::monostate, std::__ndk1::basic_string<char, std::__ndk1::char_traits<char>, std::__ndk1::allocator<char> > >)1, std::__ndk1::__variant_detail::__traits, std::__ndk1::allocator<char> >&)
PUBLIC 29078 0 addQuotes(std::__ndk1::basic_string<char, std::__ndk1::char_traits<char>, std::__ndk1::allocator<char> > const&)
PUBLIC 29c30 0 std::__ndk1::basic_ifstream<char, std::__ndk1::char_traits<char> >::basic_ifstream(std::__ndk1::basic_string<char, std::__ndk1::char_traits<char>, std::__ndk1::allocator<char> > const&, unsigned int)
PUBLIC 29d50 0 std::__ndk1::shared_ptr<geode::BoolSettingV3>::~shared_ptr[abi:ne180000]()
PUBLIC 29da0 0 geode::impl::ResultData<matjson::Value&, std::__ndk1::basic_string<char, std::__ndk1::char_traits<char>, std::__ndk1::allocator<char> > >::~ResultData()
PUBLIC 29e14 0 std::__ndk1::__variant_detail::__visitation::__base::__dispatcher<(unsigned long)0>::__dispatch[abi:ne180000]<std::__ndk1::__variant_detail::__dtor<std::__ndk1::__variant_detail::__traits<std::__ndk1::reference_wrapper<matjson::Value>, std::__ndk1::basic_string<char, std::__ndk1::char_traits<char>, std::__ndk1::allocator<char> > >, (std::__ndk1::__variant_detail::_Trait)1>::__destroy[abi:ne180000]()::{lambda(auto:1&)#1}, std::__ndk1::__variant_detail::__base<(std::__ndk1::__variant_detail::__traits<std::__ndk1::reference_wrapper<matjson::Value>, std::__ndk1::basic_string<char, std::__ndk1::char_traits<char>, std::__ndk1::allocator<char> > >)1, matjson::Value, std::__ndk1::allocator<char> >&>(std::__ndk1::__variant_detail::__dtor<std::__ndk1::__variant_detail::__traits<std::__ndk1::reference_wrapper<matjson::Value>, std::__ndk1::basic_string<char, std::__ndk1::char_traits<char>, std::__ndk1::allocator<char> > >, (std::__ndk1::__variant_detail::_Trait)1>, std::__ndk1::__variant_detail::__base<(std::__ndk1::__variant_detail::__traits<std::__ndk1::reference_wrapper<matjson::Value>, std::__ndk1::basic_string<char, std::__ndk1::char_traits<char>, std::__ndk1::allocator<char> > >)1, matjson::Value, std::__ndk1::allocator<char> >&)
PUBLIC 29e18 0 std::__ndk1::__variant_detail::__visitation::__base::__dispatcher<(unsigned long)1>::__dispatch[abi:ne180000]<std::__ndk1::__variant_detail::__dtor<std::__ndk1::__variant_detail::__traits<std::__ndk1::reference_wrapper<matjson::Value>, std::__ndk1::basic_string<char, std::__ndk1::char_traits<char>, std::__ndk1::allocator<char> > >, (std::__ndk1::__variant_detail::_Trait)1>::__destroy[abi:ne180000]()::{lambda(auto:1&)#1}, std::__ndk1::__variant_detail::__base<(std::__ndk1::__variant_detail::__traits<std::__ndk1::reference_wrapper<matjson::Value>, std::__ndk1::basic_string<char, std::__ndk1::char_traits<char>, std::__ndk1::allocator<char> > >)1, matjson::Value, std::__ndk1::allocator<char> >&>(std::__ndk1::__variant_detail::__dtor<std::__ndk1::__variant_detail::__traits<std::__ndk1::reference_wrapper<matjson::Value>, std::__ndk1::basic_string<char, std::__ndk1::char_traits<char>, std::__ndk1::allocator<char> > >, (std::__ndk1::__variant_detail::_Trait)1>, std::__ndk1::__variant_detail::__base<(std::__ndk1::__variant_detail::__traits<std::__ndk1::reference_wrapper<matjson::Value>, std::__ndk1::basic_string<char, std::__ndk1::char_traits<char>, std::__ndk1::allocator<char> > >)1, matjson::Value, std::__ndk1::allocator<char> >&)
PUBLIC 29e2c 0 std::__ndk1::__variant_detail::__visitation::__base::__dispatcher<(unsigned long)0>::__dispatch[abi:ne180000]<std::__ndk1::__variant_detail::__dtor<std::__ndk1::__variant_detail::__traits<bool, std::__ndk1::basic_string<char, std::__ndk1::char_traits<char>, std::__ndk1::allocator<char> > >, (std::__ndk1::__variant_detail::_Trait)1>::__destroy[abi:ne180000]()::{lambda(auto:1&)#1}, std::__ndk1::__variant_detail::__base<(std::__ndk1::__variant_detail::__traits<bool, std::__ndk1::basic_string<char, std::__ndk1::char_traits<char>, std::__ndk1::allocator<char> > >)1, bool, std::__ndk1::allocator<char> >&>(std::__ndk1::__variant_detail::__dtor<std::__ndk1::__variant_detail::__traits<bool, std::__ndk1::basic_string<char, std::__ndk1::char_traits<char>, std::__ndk1::allocator<char> > >, (std::__ndk1::__variant_detail::_Trait)1>, std::__ndk1::__variant_detail::__base<(std::__ndk1::__variant_detail::__traits<bool, std::__ndk1::basic_string<char, std::__ndk1::char_traits<char>, std::__ndk1::allocator<char> > >)1, bool, std::__ndk1::allocator<char> >&)
PUBLIC 29e30 0 std::__ndk1::__variant_detail::__visitation::__base::__dispatcher<(unsigned long)1>::__dispatch[abi:ne180000]<std::__ndk1::__variant_detail::__dtor<std::__ndk1::__variant_detail::__traits<bool, std::__ndk1::basic_string<char, std::__ndk1::char_traits<char>, std::__ndk1::allocator<char> > >, (std::__ndk1::__variant_detail::_Trait)1>::__destroy[abi:ne180000]()::{lambda(auto:1&)#1}, std::__ndk1::__variant_detail::__base<(std::__ndk1::__variant_detail::__traits<bool, std::__ndk1::basic_string<char, std::__ndk1::char_traits<char>, std::__ndk1::allocator<char> > >)1, bool, std::__ndk1::allocator<char> >&>(std::__ndk1::__variant_detail::__dtor<std::__ndk1::__variant_detail::__traits<bool, std::__ndk1::basic_string<char, std::__ndk1::char_traits<char>, std::__ndk1::allocator<char> > >, (std::__ndk1::__variant_detail::_Trait)1>, std::__ndk1::__variant_detail::__base<(std::__ndk1::__variant_detail::__traits<bool, std::__ndk1::basic_string<char, std::__ndk1::char_traits<char>, std::__ndk1::allocator<char> > >)1, bool, std::__ndk1::allocator<char> >&)
PUBLIC 29e44 0 std::__ndk1::basic_ifstream<char, std::__ndk1::char_traits<char> >::basic_ifstream(char const*, unsigned int)
PUBLIC 29f58 0 std::__ndk1::getline[abi:ne180000]<char, std::__ndk1::char_traits<char>, std::__ndk1::allocator<char> >(std::__ndk1::basic_istream<char, std::__ndk1::char_traits<char> >, std::__ndk1::basic_string<std::__ndk1::basic_istream, char, std::__ndk1::allocator<char> >&, std::__ndk1::basic_istream)
PUBLIC 2a10c 0 setupLevelCompleteTexts()
PUBLIC 2aab8 0 geode::EventListener<geode::SettingChangedFilterV3>::EventListener(std::__ndk1::function<void (std::__ndk1::shared_ptr<geode::SettingV3>)>, geode::SettingChangedFilterV3)
PUBLIC 2abb0 0 geode::SettingChangedFilterV3::~SettingChangedFilterV3()
PUBLIC 2ac00 0 std::__ndk1::__function::__func<geode::listenForSettingChangesV3<bool, geodeExecFunction8<(anonymous namespace)::ExecFuncUnique8>(geode::ModStateEvent*)::{lambda(bool)#1}>(std::__ndk1::basic_string_view<char, std::__ndk1::char_traits<char> >, geodeExecFunction8<(anonymous namespace)::ExecFuncUnique8>(geode::ModStateEvent*)::{lambda(bool)#1}&&, geode::Mod*)::{lambda(std::__ndk1::shared_ptr<geode::SettingV3>)#1}, std::__ndk1::allocator<geode::listenForSettingChangesV3<bool, geodeExecFunction8<(anonymous namespace)::ExecFuncUnique8>(geode::ModStateEvent*)::{lambda(bool)#1}>(std::__ndk1::basic_string_view<char, std::__ndk1::char_traits<char> >, geodeExecFunction8<(anonymous namespace)::ExecFuncUnique8>(geode::ModStateEvent*)::{lambda(bool)#1}&&, geode::Mod*)::{lambda(std::__ndk1::shared_ptr<geode::SettingV3>)#1}>, void (std::__ndk1::shared_ptr<geode::SettingV3>)>::~__func()
PUBLIC 2ac04 0 std::__ndk1::__function::__func<geode::listenForSettingChangesV3<bool, geodeExecFunction8<(anonymous namespace)::ExecFuncUnique8>(geode::ModStateEvent*)::{lambda(bool)#1}>(std::__ndk1::basic_string_view<char, std::__ndk1::char_traits<char> >, geodeExecFunction8<(anonymous namespace)::ExecFuncUnique8>(geode::ModStateEvent*)::{lambda(bool)#1}&&, geode::Mod*)::{lambda(std::__ndk1::shared_ptr<geode::SettingV3>)#1}, std::__ndk1::allocator<geode::listenForSettingChangesV3<bool, geodeExecFunction8<(anonymous namespace)::ExecFuncUnique8>(geode::ModStateEvent*)::{lambda(bool)#1}>(std::__ndk1::basic_string_view<char, std::__ndk1::char_traits<char> >, geodeExecFunction8<(anonymous namespace)::ExecFuncUnique8>(geode::ModStateEvent*)::{lambda(bool)#1}&&, geode::Mod*)::{lambda(std::__ndk1::shared_ptr<geode::SettingV3>)#1}>, void (std::__ndk1::shared_ptr<geode::SettingV3>)>::__clone() const
PUBLIC 2ac3c 0 std::__ndk1::__function::__func<geode::listenForSettingChangesV3<bool, geodeExecFunction8<(anonymous namespace)::ExecFuncUnique8>(geode::ModStateEvent*)::{lambda(bool)#1}>(std::__ndk1::basic_string_view<char, std::__ndk1::char_traits<char> >, geodeExecFunction8<(anonymous namespace)::ExecFuncUnique8>(geode::ModStateEvent*)::{lambda(bool)#1}&&, geode::Mod*)::{lambda(std::__ndk1::shared_ptr<geode::SettingV3>)#1}, std::__ndk1::allocator<geode::listenForSettingChangesV3<bool, geodeExecFunction8<(anonymous namespace)::ExecFuncUnique8>(geode::ModStateEvent*)::{lambda(bool)#1}>(std::__ndk1::basic_string_view<char, std::__ndk1::char_traits<char> >, geodeExecFunction8<(anonymous namespace)::ExecFuncUnique8>(geode::ModStateEvent*)::{lambda(bool)#1}&&, geode::Mod*)::{lambda(std::__ndk1::shared_ptr<geode::SettingV3>)#1}>, void (std::__ndk1::shared_ptr<geode::SettingV3>)>::__clone(std::__ndk1::__function::__base<void (std::__ndk1::shared_ptr<geode::SettingV3>)>*) const
PUBLIC 2ac54 0 std::__ndk1::__function::__func<geode::listenForSettingChangesV3<bool, geodeExecFunction8<(anonymous namespace)::ExecFuncUnique8>(geode::ModStateEvent*)::{lambda(bool)#1}>(std::__ndk1::basic_string_view<char, std::__ndk1::char_traits<char> >, geodeExecFunction8<(anonymous namespace)::ExecFuncUnique8>(geode::ModStateEvent*)::{lambda(bool)#1}&&, geode::Mod*)::{lambda(std::__ndk1::shared_ptr<geode::SettingV3>)#1}, std::__ndk1::allocator<geode::listenForSettingChangesV3<bool, geodeExecFunction8<(anonymous namespace)::ExecFuncUnique8>(geode::ModStateEvent*)::{lambda(bool)#1}>(std::__ndk1::basic_string_view<char, std::__ndk1::char_traits<char> >, geodeExecFunction8<(anonymous namespace)::ExecFuncUnique8>(geode::ModStateEvent*)::{lambda(bool)#1}&&, geode::Mod*)::{lambda(std::__ndk1::shared_ptr<geode::SettingV3>)#1}>, void (std::__ndk1::shared_ptr<geode::SettingV3>)>::destroy()
PUBLIC 2ac58 0 std::__ndk1::__function::__func<geode::listenForSettingChangesV3<bool, geodeExecFunction8<(anonymous namespace)::ExecFuncUnique8>(geode::ModStateEvent*)::{lambda(bool)#1}>(std::__ndk1::basic_string_view<char, std::__ndk1::char_traits<char> >, geodeExecFunction8<(anonymous namespace)::ExecFuncUnique8>(geode::ModStateEvent*)::{lambda(bool)#1}&&, geode::Mod*)::{lambda(std::__ndk1::shared_ptr<geode::SettingV3>)#1}, std::__ndk1::allocator<geode::listenForSettingChangesV3<bool, geodeExecFunction8<(anonymous namespace)::ExecFuncUnique8>(geode::ModStateEvent*)::{lambda(bool)#1}>(std::__ndk1::basic_string_view<char, std::__ndk1::char_traits<char> >, geodeExecFunction8<(anonymous namespace)::ExecFuncUnique8>(geode::ModStateEvent*)::{lambda(bool)#1}&&, geode::Mod*)::{lambda(std::__ndk1::shared_ptr<geode::SettingV3>)#1}>, void (std::__ndk1::shared_ptr<geode::SettingV3>)>::destroy_deallocate()
PUBLIC 2ac5c 0 std::__ndk1::__function::__func<geode::listenForSettingChangesV3<bool, geodeExecFunction8<(anonymous namespace)::ExecFuncUnique8>(geode::ModStateEvent*)::{lambda(bool)#1}>(std::__ndk1::basic_string_view<char, std::__ndk1::char_traits<char> >, geodeExecFunction8<(anonymous namespace)::ExecFuncUnique8>(geode::ModStateEvent*)::{lambda(bool)#1}&&, geode::Mod*)::{lambda(std::__ndk1::shared_ptr<geode::SettingV3>)#1}, std::__ndk1::allocator<geode::listenForSettingChangesV3<bool, geodeExecFunction8<(anonymous namespace)::ExecFuncUnique8>(geode::ModStateEvent*)::{lambda(bool)#1}>(std::__ndk1::basic_string_view<char, std::__ndk1::char_traits<char> >, geodeExecFunction8<(anonymous namespace)::ExecFuncUnique8>(geode::ModStateEvent*)::{lambda(bool)#1}&&, geode::Mod*)::{lambda(std::__ndk1::shared_ptr<geode::SettingV3>)#1}>, void (std::__ndk1::shared_ptr<geode::SettingV3>)>::operator()(std::__ndk1::shared_ptr<geode::SettingV3>&&)
PUBLIC 2adbc 0 std::__ndk1::__function::__func<geode::listenForSettingChangesV3<bool, geodeExecFunction8<(anonymous namespace)::ExecFuncUnique8>(geode::ModStateEvent*)::{lambda(bool)#1}>(std::__ndk1::basic_string_view<char, std::__ndk1::char_traits<char> >, geodeExecFunction8<(anonymous namespace)::ExecFuncUnique8>(geode::ModStateEvent*)::{lambda(bool)#1}&&, geode::Mod*)::{lambda(std::__ndk1::shared_ptr<geode::SettingV3>)#1}, std::__ndk1::allocator<geode::listenForSettingChangesV3<bool, geodeExecFunction8<(anonymous namespace)::ExecFuncUnique8>(geode::ModStateEvent*)::{lambda(bool)#1}>(std::__ndk1::basic_string_view<char, std::__ndk1::char_traits<char> >, geodeExecFunction8<(anonymous namespace)::ExecFuncUnique8>(geode::ModStateEvent*)::{lambda(bool)#1}&&, geode::Mod*)::{lambda(std::__ndk1::shared_ptr<geode::SettingV3>)#1}>, void (std::__ndk1::shared_ptr<geode::SettingV3>)>::target(std::type_info const&) const
PUBLIC 2add8 0 std::__ndk1::__function::__func<geode::listenForSettingChangesV3<bool, geodeExecFunction8<(anonymous namespace)::ExecFuncUnique8>(geode::ModStateEvent*)::{lambda(bool)#1}>(std::__ndk1::basic_string_view<char, std::__ndk1::char_traits<char> >, geodeExecFunction8<(anonymous namespace)::ExecFuncUnique8>(geode::ModStateEvent*)::{lambda(bool)#1}&&, geode::Mod*)::{lambda(std::__ndk1::shared_ptr<geode::SettingV3>)#1}, std::__ndk1::allocator<geode::listenForSettingChangesV3<bool, geodeExecFunction8<(anonymous namespace)::ExecFuncUnique8>(geode::ModStateEvent*)::{lambda(bool)#1}>(std::__ndk1::basic_string_view<char, std::__ndk1::char_traits<char> >, geodeExecFunction8<(anonymous namespace)::ExecFuncUnique8>(geode::ModStateEvent*)::{lambda(bool)#1}&&, geode::Mod*)::{lambda(std::__ndk1::shared_ptr<geode::SettingV3>)#1}>, void (std::__ndk1::shared_ptr<geode::SettingV3>)>::target_type() const
PUBLIC 2ade4 0 managerReset()
PUBLIC 2af70 0 geode::EventListener<geode::SettingChangedFilterV3>::getPool() const
PUBLIC 2af74 0 geode::EventListener<geode::SettingChangedFilterV3>::handle(geode::Event*)
PUBLIC 2b0e8 0 geode::EventListener<geode::SettingChangedFilterV3>::~EventListener()
PUBLIC 2b184 0 geode::EventListener<geode::SettingChangedFilterV3>::~EventListener()
PUBLIC 2b228 0 std::__ndk1::__function::__func<geode::listenForSettingChangesV3<bool, geodeExecFunction8<(anonymous namespace)::ExecFuncUnique8>(geode::ModStateEvent*)::{lambda(bool)#2}>(std::__ndk1::basic_string_view<char, std::__ndk1::char_traits<char> >, geodeExecFunction8<(anonymous namespace)::ExecFuncUnique8>(geode::ModStateEvent*)::{lambda(bool)#2}&&, geode::Mod*)::{lambda(std::__ndk1::shared_ptr<geode::SettingV3>)#1}, std::__ndk1::allocator<geode::listenForSettingChangesV3<bool, geodeExecFunction8<(anonymous namespace)::ExecFuncUnique8>(geode::ModStateEvent*)::{lambda(bool)#2}>(std::__ndk1::basic_string_view<char, std::__ndk1::char_traits<char> >, geodeExecFunction8<(anonymous namespace)::ExecFuncUnique8>(geode::ModStateEvent*)::{lambda(bool)#2}&&, geode::Mod*)::{lambda(std::__ndk1::shared_ptr<geode::SettingV3>)#1}>, void (std::__ndk1::shared_ptr<geode::SettingV3>)>::~__func()
PUBLIC 2b22c 0 std::__ndk1::__function::__func<geode::listenForSettingChangesV3<bool, geodeExecFunction8<(anonymous namespace)::ExecFuncUnique8>(geode::ModStateEvent*)::{lambda(bool)#2}>(std::__ndk1::basic_string_view<char, std::__ndk1::char_traits<char> >, geodeExecFunction8<(anonymous namespace)::ExecFuncUnique8>(geode::ModStateEvent*)::{lambda(bool)#2}&&, geode::Mod*)::{lambda(std::__ndk1::shared_ptr<geode::SettingV3>)#1}, std::__ndk1::allocator<geode::listenForSettingChangesV3<bool, geodeExecFunction8<(anonymous namespace)::ExecFuncUnique8>(geode::ModStateEvent*)::{lambda(bool)#2}>(std::__ndk1::basic_string_view<char, std::__ndk1::char_traits<char> >, geodeExecFunction8<(anonymous namespace)::ExecFuncUnique8>(geode::ModStateEvent*)::{lambda(bool)#2}&&, geode::Mod*)::{lambda(std::__ndk1::shared_ptr<geode::SettingV3>)#1}>, void (std::__ndk1::shared_ptr<geode::SettingV3>)>::__clone() const
PUBLIC 2b264 0 std::__ndk1::__function::__func<geode::listenForSettingChangesV3<bool, geodeExecFunction8<(anonymous namespace)::ExecFuncUnique8>(geode::ModStateEvent*)::{lambda(bool)#2}>(std::__ndk1::basic_string_view<char, std::__ndk1::char_traits<char> >, geodeExecFunction8<(anonymous namespace)::ExecFuncUnique8>(geode::ModStateEvent*)::{lambda(bool)#2}&&, geode::Mod*)::{lambda(std::__ndk1::shared_ptr<geode::SettingV3>)#1}, std::__ndk1::allocator<geode::listenForSettingChangesV3<bool, geodeExecFunction8<(anonymous namespace)::ExecFuncUnique8>(geode::ModStateEvent*)::{lambda(bool)#2}>(std::__ndk1::basic_string_view<char, std::__ndk1::char_traits<char> >, geodeExecFunction8<(anonymous namespace)::ExecFuncUnique8>(geode::ModStateEvent*)::{lambda(bool)#2}&&, geode::Mod*)::{lambda(std::__ndk1::shared_ptr<geode::SettingV3>)#1}>, void (std::__ndk1::shared_ptr<geode::SettingV3>)>::__clone(std::__ndk1::__function::__base<void (std::__ndk1::shared_ptr<geode::SettingV3>)>*) const
PUBLIC 2b27c 0 std::__ndk1::__function::__func<geode::listenForSettingChangesV3<bool, geodeExecFunction8<(anonymous namespace)::ExecFuncUnique8>(geode::ModStateEvent*)::{lambda(bool)#2}>(std::__ndk1::basic_string_view<char, std::__ndk1::char_traits<char> >, geodeExecFunction8<(anonymous namespace)::ExecFuncUnique8>(geode::ModStateEvent*)::{lambda(bool)#2}&&, geode::Mod*)::{lambda(std::__ndk1::shared_ptr<geode::SettingV3>)#1}, std::__ndk1::allocator<geode::listenForSettingChangesV3<bool, geodeExecFunction8<(anonymous namespace)::ExecFuncUnique8>(geode::ModStateEvent*)::{lambda(bool)#2}>(std::__ndk1::basic_string_view<char, std::__ndk1::char_traits<char> >, geodeExecFunction8<(anonymous namespace)::ExecFuncUnique8>(geode::ModStateEvent*)::{lambda(bool)#2}&&, geode::Mod*)::{lambda(std::__ndk1::shared_ptr<geode::SettingV3>)#1}>, void (std::__ndk1::shared_ptr<geode::SettingV3>)>::destroy()
PUBLIC 2b280 0 std::__ndk1::__function::__func<geode::listenForSettingChangesV3<bool, geodeExecFunction8<(anonymous namespace)::ExecFuncUnique8>(geode::ModStateEvent*)::{lambda(bool)#2}>(std::__ndk1::basic_string_view<char, std::__ndk1::char_traits<char> >, geodeExecFunction8<(anonymous namespace)::ExecFuncUnique8>(geode::ModStateEvent*)::{lambda(bool)#2}&&, geode::Mod*)::{lambda(std::__ndk1::shared_ptr<geode::SettingV3>)#1}, std::__ndk1::allocator<geode::listenForSettingChangesV3<bool, geodeExecFunction8<(anonymous namespace)::ExecFuncUnique8>(geode::ModStateEvent*)::{lambda(bool)#2}>(std::__ndk1::basic_string_view<char, std::__ndk1::char_traits<char> >, geodeExecFunction8<(anonymous namespace)::ExecFuncUnique8>(geode::ModStateEvent*)::{lambda(bool)#2}&&, geode::Mod*)::{lambda(std::__ndk1::shared_ptr<geode::SettingV3>)#1}>, void (std::__ndk1::shared_ptr<geode::SettingV3>)>::destroy_deallocate()
PUBLIC 2b284 0 std::__ndk1::__function::__func<geode::listenForSettingChangesV3<bool, geodeExecFunction8<(anonymous namespace)::ExecFuncUnique8>(geode::ModStateEvent*)::{lambda(bool)#2}>(std::__ndk1::basic_string_view<char, std::__ndk1::char_traits<char> >, geodeExecFunction8<(anonymous namespace)::ExecFuncUnique8>(geode::ModStateEvent*)::{lambda(bool)#2}&&, geode::Mod*)::{lambda(std::__ndk1::shared_ptr<geode::SettingV3>)#1}, std::__ndk1::allocator<geode::listenForSettingChangesV3<bool, geodeExecFunction8<(anonymous namespace)::ExecFuncUnique8>(geode::ModStateEvent*)::{lambda(bool)#2}>(std::__ndk1::basic_string_view<char, std::__ndk1::char_traits<char> >, geodeExecFunction8<(anonymous namespace)::ExecFuncUnique8>(geode::ModStateEvent*)::{lambda(bool)#2}&&, geode::Mod*)::{lambda(std::__ndk1::shared_ptr<geode::SettingV3>)#1}>, void (std::__ndk1::shared_ptr<geode::SettingV3>)>::operator()(std::__ndk1::shared_ptr<geode::SettingV3>&&)
PUBLIC 2b3e4 0 std::__ndk1::__function::__func<geode::listenForSettingChangesV3<bool, geodeExecFunction8<(anonymous namespace)::ExecFuncUnique8>(geode::ModStateEvent*)::{lambda(bool)#2}>(std::__ndk1::basic_string_view<char, std::__ndk1::char_traits<char> >, geodeExecFunction8<(anonymous namespace)::ExecFuncUnique8>(geode::ModStateEvent*)::{lambda(bool)#2}&&, geode::Mod*)::{lambda(std::__ndk1::shared_ptr<geode::SettingV3>)#1}, std::__ndk1::allocator<geode::listenForSettingChangesV3<bool, geodeExecFunction8<(anonymous namespace)::ExecFuncUnique8>(geode::ModStateEvent*)::{lambda(bool)#2}>(std::__ndk1::basic_string_view<char, std::__ndk1::char_traits<char> >, geodeExecFunction8<(anonymous namespace)::ExecFuncUnique8>(geode::ModStateEvent*)::{lambda(bool)#2}&&, geode::Mod*)::{lambda(std::__ndk1::shared_ptr<geode::SettingV3>)#1}>, void (std::__ndk1::shared_ptr<geode::SettingV3>)>::target(std::type_info const&) const
PUBLIC 2b400 0 std::__ndk1::__function::__func<geode::listenForSettingChangesV3<bool, geodeExecFunction8<(anonymous namespace)::ExecFuncUnique8>(geode::ModStateEvent*)::{lambda(bool)#2}>(std::__ndk1::basic_string_view<char, std::__ndk1::char_traits<char> >, geodeExecFunction8<(anonymous namespace)::ExecFuncUnique8>(geode::ModStateEvent*)::{lambda(bool)#2}&&, geode::Mod*)::{lambda(std::__ndk1::shared_ptr<geode::SettingV3>)#1}, std::__ndk1::allocator<geode::listenForSettingChangesV3<bool, geodeExecFunction8<(anonymous namespace)::ExecFuncUnique8>(geode::ModStateEvent*)::{lambda(bool)#2}>(std::__ndk1::basic_string_view<char, std::__ndk1::char_traits<char> >, geodeExecFunction8<(anonymous namespace)::ExecFuncUnique8>(geode::ModStateEvent*)::{lambda(bool)#2}&&, geode::Mod*)::{lambda(std::__ndk1::shared_ptr<geode::SettingV3>)#1}>, void (std::__ndk1::shared_ptr<geode::SettingV3>)>::target_type() const
PUBLIC 2b40c 0 std::__ndk1::__function::__func<geode::listenForSettingChangesV3<bool, geodeExecFunction8<(anonymous namespace)::ExecFuncUnique8>(geode::ModStateEvent*)::{lambda(bool)#3}>(std::__ndk1::basic_string_view<char, std::__ndk1::char_traits<char> >, geodeExecFunction8<(anonymous namespace)::ExecFuncUnique8>(geode::ModStateEvent*)::{lambda(bool)#3}&&, geode::Mod*)::{lambda(std::__ndk1::shared_ptr<geode::SettingV3>)#1}, std::__ndk1::allocator<geode::listenForSettingChangesV3<bool, geodeExecFunction8<(anonymous namespace)::ExecFuncUnique8>(geode::ModStateEvent*)::{lambda(bool)#3}>(std::__ndk1::basic_string_view<char, std::__ndk1::char_traits<char> >, geodeExecFunction8<(anonymous namespace)::ExecFuncUnique8>(geode::ModStateEvent*)::{lambda(bool)#3}&&, geode::Mod*)::{lambda(std::__ndk1::shared_ptr<geode::SettingV3>)#1}>, void (std::__ndk1::shared_ptr<geode::SettingV3>)>::~__func()
PUBLIC 2b410 0 std::__ndk1::__function::__func<geode::listenForSettingChangesV3<bool, geodeExecFunction8<(anonymous namespace)::ExecFuncUnique8>(geode::ModStateEvent*)::{lambda(bool)#3}>(std::__ndk1::basic_string_view<char, std::__ndk1::char_traits<char> >, geodeExecFunction8<(anonymous namespace)::ExecFuncUnique8>(geode::ModStateEvent*)::{lambda(bool)#3}&&, geode::Mod*)::{lambda(std::__ndk1::shared_ptr<geode::SettingV3>)#1}, std::__ndk1::allocator<geode::listenForSettingChangesV3<bool, geodeExecFunction8<(anonymous namespace)::ExecFuncUnique8>(geode::ModStateEvent*)::{lambda(bool)#3}>(std::__ndk1::basic_string_view<char, std::__ndk1::char_traits<char> >, geodeExecFunction8<(anonymous namespace)::ExecFuncUnique8>(geode::ModStateEvent*)::{lambda(bool)#3}&&, geode::Mod*)::{lambda(std::__ndk1::shared_ptr<geode::SettingV3>)#1}>, void (std::__ndk1::shared_ptr<geode::SettingV3>)>::__clone() const
PUBLIC 2b448 0 std::__ndk1::__function::__func<geode::listenForSettingChangesV3<bool, geodeExecFunction8<(anonymous namespace)::ExecFuncUnique8>(geode::ModStateEvent*)::{lambda(bool)#3}>(std::__ndk1::basic_string_view<char, std::__ndk1::char_traits<char> >, geodeExecFunction8<(anonymous namespace)::ExecFuncUnique8>(geode::ModStateEvent*)::{lambda(bool)#3}&&, geode::Mod*)::{lambda(std::__ndk1::shared_ptr<geode::SettingV3>)#1}, std::__ndk1::allocator<geode::listenForSettingChangesV3<bool, geodeExecFunction8<(anonymous namespace)::ExecFuncUnique8>(geode::ModStateEvent*)::{lambda(bool)#3}>(std::__ndk1::basic_string_view<char, std::__ndk1::char_traits<char> >, geodeExecFunction8<(anonymous namespace)::ExecFuncUnique8>(geode::ModStateEvent*)::{lambda(bool)#3}&&, geode::Mod*)::{lambda(std::__ndk1::shared_ptr<geode::SettingV3>)#1}>, void (std::__ndk1::shared_ptr<geode::SettingV3>)>::__clone(std::__ndk1::__function::__base<void (std::__ndk1::shared_ptr<geode::SettingV3>)>*) const
PUBLIC 2b460 0 std::__ndk1::__function::__func<geode::listenForSettingChangesV3<bool, geodeExecFunction8<(anonymous namespace)::ExecFuncUnique8>(geode::ModStateEvent*)::{lambda(bool)#3}>(std::__ndk1::basic_string_view<char, std::__ndk1::char_traits<char> >, geodeExecFunction8<(anonymous namespace)::ExecFuncUnique8>(geode::ModStateEvent*)::{lambda(bool)#3}&&, geode::Mod*)::{lambda(std::__ndk1::shared_ptr<geode::SettingV3>)#1}, std::__ndk1::allocator<geode::listenForSettingChangesV3<bool, geodeExecFunction8<(anonymous namespace)::ExecFuncUnique8>(geode::ModStateEvent*)::{lambda(bool)#3}>(std::__ndk1::basic_string_view<char, std::__ndk1::char_traits<char> >, geodeExecFunction8<(anonymous namespace)::ExecFuncUnique8>(geode::ModStateEvent*)::{lambda(bool)#3}&&, geode::Mod*)::{lambda(std::__ndk1::shared_ptr<geode::SettingV3>)#1}>, void (std::__ndk1::shared_ptr<geode::SettingV3>)>::destroy()
PUBLIC 2b464 0 std::__ndk1::__function::__func<geode::listenForSettingChangesV3<bool, geodeExecFunction8<(anonymous namespace)::ExecFuncUnique8>(geode::ModStateEvent*)::{lambda(bool)#3}>(std::__ndk1::basic_string_view<char, std::__ndk1::char_traits<char> >, geodeExecFunction8<(anonymous namespace)::ExecFuncUnique8>(geode::ModStateEvent*)::{lambda(bool)#3}&&, geode::Mod*)::{lambda(std::__ndk1::shared_ptr<geode::SettingV3>)#1}, std::__ndk1::allocator<geode::listenForSettingChangesV3<bool, geodeExecFunction8<(anonymous namespace)::ExecFuncUnique8>(geode::ModStateEvent*)::{lambda(bool)#3}>(std::__ndk1::basic_string_view<char, std::__ndk1::char_traits<char> >, geodeExecFunction8<(anonymous namespace)::ExecFuncUnique8>(geode::ModStateEvent*)::{lambda(bool)#3}&&, geode::Mod*)::{lambda(std::__ndk1::shared_ptr<geode::SettingV3>)#1}>, void (std::__ndk1::shared_ptr<geode::SettingV3>)>::destroy_deallocate()
PUBLIC 2b468 0 std::__ndk1::__function::__func<geode::listenForSettingChangesV3<bool, geodeExecFunction8<(anonymous namespace)::ExecFuncUnique8>(geode::ModStateEvent*)::{lambda(bool)#3}>(std::__ndk1::basic_string_view<char, std::__ndk1::char_traits<char> >, geodeExecFunction8<(anonymous namespace)::ExecFuncUnique8>(geode::ModStateEvent*)::{lambda(bool)#3}&&, geode::Mod*)::{lambda(std::__ndk1::shared_ptr<geode::SettingV3>)#1}, std::__ndk1::allocator<geode::listenForSettingChangesV3<bool, geodeExecFunction8<(anonymous namespace)::ExecFuncUnique8>(geode::ModStateEvent*)::{lambda(bool)#3}>(std::__ndk1::basic_string_view<char, std::__ndk1::char_traits<char> >, geodeExecFunction8<(anonymous namespace)::ExecFuncUnique8>(geode::ModStateEvent*)::{lambda(bool)#3}&&, geode::Mod*)::{lambda(std::__ndk1::shared_ptr<geode::SettingV3>)#1}>, void (std::__ndk1::shared_ptr<geode::SettingV3>)>::operator()(std::__ndk1::shared_ptr<geode::SettingV3>&&)
PUBLIC 2b5c8 0 std::__ndk1::__function::__func<geode::listenForSettingChangesV3<bool, geodeExecFunction8<(anonymous namespace)::ExecFuncUnique8>(geode::ModStateEvent*)::{lambda(bool)#3}>(std::__ndk1::basic_string_view<char, std::__ndk1::char_traits<char> >, geodeExecFunction8<(anonymous namespace)::ExecFuncUnique8>(geode::ModStateEvent*)::{lambda(bool)#3}&&, geode::Mod*)::{lambda(std::__ndk1::shared_ptr<geode::SettingV3>)#1}, std::__ndk1::allocator<geode::listenForSettingChangesV3<bool, geodeExecFunction8<(anonymous namespace)::ExecFuncUnique8>(geode::ModStateEvent*)::{lambda(bool)#3}>(std::__ndk1::basic_string_view<char, std::__ndk1::char_traits<char> >, geodeExecFunction8<(anonymous namespace)::ExecFuncUnique8>(geode::ModStateEvent*)::{lambda(bool)#3}&&, geode::Mod*)::{lambda(std::__ndk1::shared_ptr<geode::SettingV3>)#1}>, void (std::__ndk1::shared_ptr<geode::SettingV3>)>::target(std::type_info const&) const
PUBLIC 2b5e4 0 std::__ndk1::__function::__func<geode::listenForSettingChangesV3<bool, geodeExecFunction8<(anonymous namespace)::ExecFuncUnique8>(geode::ModStateEvent*)::{lambda(bool)#3}>(std::__ndk1::basic_string_view<char, std::__ndk1::char_traits<char> >, geodeExecFunction8<(anonymous namespace)::ExecFuncUnique8>(geode::ModStateEvent*)::{lambda(bool)#3}&&, geode::Mod*)::{lambda(std::__ndk1::shared_ptr<geode::SettingV3>)#1}, std::__ndk1::allocator<geode::listenForSettingChangesV3<bool, geodeExecFunction8<(anonymous namespace)::ExecFuncUnique8>(geode::ModStateEvent*)::{lambda(bool)#3}>(std::__ndk1::basic_string_view<char, std::__ndk1::char_traits<char> >, geodeExecFunction8<(anonymous namespace)::ExecFuncUnique8>(geode::ModStateEvent*)::{lambda(bool)#3}&&, geode::Mod*)::{lambda(std::__ndk1::shared_ptr<geode::SettingV3>)#1}>, void (std::__ndk1::shared_ptr<geode::SettingV3>)>::target_type() const
PUBLIC 2b5f0 0 std::__ndk1::__function::__base<void (std::__ndk1::shared_ptr<geode::SettingV3>)>::~__base()
PUBLIC 2b5f4 0 std::__ndk1::__function::__func<geode::listenForSettingChangesV3<bool, geodeExecFunction8<(anonymous namespace)::ExecFuncUnique8>(geode::ModStateEvent*)::{lambda(bool)#4}>(std::__ndk1::basic_string_view<char, std::__ndk1::char_traits<char> >, geodeExecFunction8<(anonymous namespace)::ExecFuncUnique8>(geode::ModStateEvent*)::{lambda(bool)#4}&&, geode::Mod*)::{lambda(std::__ndk1::shared_ptr<geode::SettingV3>)#1}, std::__ndk1::allocator<geode::listenForSettingChangesV3<bool, geodeExecFunction8<(anonymous namespace)::ExecFuncUnique8>(geode::ModStateEvent*)::{lambda(bool)#4}>(std::__ndk1::basic_string_view<char, std::__ndk1::char_traits<char> >, geodeExecFunction8<(anonymous namespace)::ExecFuncUnique8>(geode::ModStateEvent*)::{lambda(bool)#4}&&, geode::Mod*)::{lambda(std::__ndk1::shared_ptr<geode::SettingV3>)#1}>, void (std::__ndk1::shared_ptr<geode::SettingV3>)>::~__func()
PUBLIC 2b5f8 0 std::__ndk1::__function::__func<geode::listenForSettingChangesV3<bool, geodeExecFunction8<(anonymous namespace)::ExecFuncUnique8>(geode::ModStateEvent*)::{lambda(bool)#4}>(std::__ndk1::basic_string_view<char, std::__ndk1::char_traits<char> >, geodeExecFunction8<(anonymous namespace)::ExecFuncUnique8>(geode::ModStateEvent*)::{lambda(bool)#4}&&, geode::Mod*)::{lambda(std::__ndk1::shared_ptr<geode::SettingV3>)#1}, std::__ndk1::allocator<geode::listenForSettingChangesV3<bool, geodeExecFunction8<(anonymous namespace)::ExecFuncUnique8>(geode::ModStateEvent*)::{lambda(bool)#4}>(std::__ndk1::basic_string_view<char, std::__ndk1::char_traits<char> >, geodeExecFunction8<(anonymous namespace)::ExecFuncUnique8>(geode::ModStateEvent*)::{lambda(bool)#4}&&, geode::Mod*)::{lambda(std::__ndk1::shared_ptr<geode::SettingV3>)#1}>, void (std::__ndk1::shared_ptr<geode::SettingV3>)>::__clone() const
PUBLIC 2b630 0 std::__ndk1::__function::__func<geode::listenForSettingChangesV3<bool, geodeExecFunction8<(anonymous namespace)::ExecFuncUnique8>(geode::ModStateEvent*)::{lambda(bool)#4}>(std::__ndk1::basic_string_view<char, std::__ndk1::char_traits<char> >, geodeExecFunction8<(anonymous namespace)::ExecFuncUnique8>(geode::ModStateEvent*)::{lambda(bool)#4}&&, geode::Mod*)::{lambda(std::__ndk1::shared_ptr<geode::SettingV3>)#1}, std::__ndk1::allocator<geode::listenForSettingChangesV3<bool, geodeExecFunction8<(anonymous namespace)::ExecFuncUnique8>(geode::ModStateEvent*)::{lambda(bool)#4}>(std::__ndk1::basic_string_view<char, std::__ndk1::char_traits<char> >, geodeExecFunction8<(anonymous namespace)::ExecFuncUnique8>(geode::ModStateEvent*)::{lambda(bool)#4}&&, geode::Mod*)::{lambda(std::__ndk1::shared_ptr<geode::SettingV3>)#1}>, void (std::__ndk1::shared_ptr<geode::SettingV3>)>::__clone(std::__ndk1::__function::__base<void (std::__ndk1::shared_ptr<geode::SettingV3>)>*) const
PUBLIC 2b648 0 std::__ndk1::__function::__func<geode::listenForSettingChangesV3<bool, geodeExecFunction8<(anonymous namespace)::ExecFuncUnique8>(geode::ModStateEvent*)::{lambda(bool)#4}>(std::__ndk1::basic_string_view<char, std::__ndk1::char_traits<char> >, geodeExecFunction8<(anonymous namespace)::ExecFuncUnique8>(geode::ModStateEvent*)::{lambda(bool)#4}&&, geode::Mod*)::{lambda(std::__ndk1::shared_ptr<geode::SettingV3>)#1}, std::__ndk1::allocator<geode::listenForSettingChangesV3<bool, geodeExecFunction8<(anonymous namespace)::ExecFuncUnique8>(geode::ModStateEvent*)::{lambda(bool)#4}>(std::__ndk1::basic_string_view<char, std::__ndk1::char_traits<char> >, geodeExecFunction8<(anonymous namespace)::ExecFuncUnique8>(geode::ModStateEvent*)::{lambda(bool)#4}&&, geode::Mod*)::{lambda(std::__ndk1::shared_ptr<geode::SettingV3>)#1}>, void (std::__ndk1::shared_ptr<geode::SettingV3>)>::destroy()
PUBLIC 2b64c 0 std::__ndk1::__function::__func<geode::listenForSettingChangesV3<bool, geodeExecFunction8<(anonymous namespace)::ExecFuncUnique8>(geode::ModStateEvent*)::{lambda(bool)#4}>(std::__ndk1::basic_string_view<char, std::__ndk1::char_traits<char> >, geodeExecFunction8<(anonymous namespace)::ExecFuncUnique8>(geode::ModStateEvent*)::{lambda(bool)#4}&&, geode::Mod*)::{lambda(std::__ndk1::shared_ptr<geode::SettingV3>)#1}, std::__ndk1::allocator<geode::listenForSettingChangesV3<bool, geodeExecFunction8<(anonymous namespace)::ExecFuncUnique8>(geode::ModStateEvent*)::{lambda(bool)#4}>(std::__ndk1::basic_string_view<char, std::__ndk1::char_traits<char> >, geodeExecFunction8<(anonymous namespace)::ExecFuncUnique8>(geode::ModStateEvent*)::{lambda(bool)#4}&&, geode::Mod*)::{lambda(std::__ndk1::shared_ptr<geode::SettingV3>)#1}>, void (std::__ndk1::shared_ptr<geode::SettingV3>)>::destroy_deallocate()
PUBLIC 2b650 0 std::__ndk1::__function::__func<geode::listenForSettingChangesV3<bool, geodeExecFunction8<(anonymous namespace)::ExecFuncUnique8>(geode::ModStateEvent*)::{lambda(bool)#4}>(std::__ndk1::basic_string_view<char, std::__ndk1::char_traits<char> >, geodeExecFunction8<(anonymous namespace)::ExecFuncUnique8>(geode::ModStateEvent*)::{lambda(bool)#4}&&, geode::Mod*)::{lambda(std::__ndk1::shared_ptr<geode::SettingV3>)#1}, std::__ndk1::allocator<geode::listenForSettingChangesV3<bool, geodeExecFunction8<(anonymous namespace)::ExecFuncUnique8>(geode::ModStateEvent*)::{lambda(bool)#4}>(std::__ndk1::basic_string_view<char, std::__ndk1::char_traits<char> >, geodeExecFunction8<(anonymous namespace)::ExecFuncUnique8>(geode::ModStateEvent*)::{lambda(bool)#4}&&, geode::Mod*)::{lambda(std::__ndk1::shared_ptr<geode::SettingV3>)#1}>, void (std::__ndk1::shared_ptr<geode::SettingV3>)>::operator()(std::__ndk1::shared_ptr<geode::SettingV3>&&)
PUBLIC 2b7b0 0 std::__ndk1::__function::__func<geode::listenForSettingChangesV3<bool, geodeExecFunction8<(anonymous namespace)::ExecFuncUnique8>(geode::ModStateEvent*)::{lambda(bool)#4}>(std::__ndk1::basic_string_view<char, std::__ndk1::char_traits<char> >, geodeExecFunction8<(anonymous namespace)::ExecFuncUnique8>(geode::ModStateEvent*)::{lambda(bool)#4}&&, geode::Mod*)::{lambda(std::__ndk1::shared_ptr<geode::SettingV3>)#1}, std::__ndk1::allocator<geode::listenForSettingChangesV3<bool, geodeExecFunction8<(anonymous namespace)::ExecFuncUnique8>(geode::ModStateEvent*)::{lambda(bool)#4}>(std::__ndk1::basic_string_view<char, std::__ndk1::char_traits<char> >, geodeExecFunction8<(anonymous namespace)::ExecFuncUnique8>(geode::ModStateEvent*)::{lambda(bool)#4}&&, geode::Mod*)::{lambda(std::__ndk1::shared_ptr<geode::SettingV3>)#1}>, void (std::__ndk1::shared_ptr<geode::SettingV3>)>::target(std::type_info const&) const
PUBLIC 2b7cc 0 std::__ndk1::__function::__func<geode::listenForSettingChangesV3<bool, geodeExecFunction8<(anonymous namespace)::ExecFuncUnique8>(geode::ModStateEvent*)::{lambda(bool)#4}>(std::__ndk1::basic_string_view<char, std::__ndk1::char_traits<char> >, geodeExecFunction8<(anonymous namespace)::ExecFuncUnique8>(geode::ModStateEvent*)::{lambda(bool)#4}&&, geode::Mod*)::{lambda(std::__ndk1::shared_ptr<geode::SettingV3>)#1}, std::__ndk1::allocator<geode::listenForSettingChangesV3<bool, geodeExecFunction8<(anonymous namespace)::ExecFuncUnique8>(geode::ModStateEvent*)::{lambda(bool)#4}>(std::__ndk1::basic_string_view<char, std::__ndk1::char_traits<char> >, geodeExecFunction8<(anonymous namespace)::ExecFuncUnique8>(geode::ModStateEvent*)::{lambda(bool)#4}&&, geode::Mod*)::{lambda(std::__ndk1::shared_ptr<geode::SettingV3>)#1}>, void (std::__ndk1::shared_ptr<geode::SettingV3>)>::target_type() const
PUBLIC 2b7d8 0 geode::EventListener<geode::ModStateFilter>::getPool() const
PUBLIC 2b7dc 0 geode::EventListener<geode::ModStateFilter>::handle(geode::Event*)
PUBLIC 2b950 0 geode::EventListener<geode::ModStateFilter>::~EventListener()
PUBLIC 2b9ac 0 geode::EventListener<geode::ModStateFilter>::~EventListener()
PUBLIC 2ba10 0 std::__ndk1::__function::__base<void (geode::ModStateEvent*)>::~__base()
PUBLIC 2ba14 0 std::__ndk1::__function::__func<void (*)(geode::ModStateEvent*), std::__ndk1::allocator<void (*)(geode::ModStateEvent*)>, void (geode::ModStateEvent*)>::~__func()
PUBLIC 2ba18 0 std::__ndk1::__function::__func<void (*)(geode::ModStateEvent*), std::__ndk1::allocator<void (*)(geode::ModStateEvent*)>, void (geode::ModStateEvent*)>::__clone() const
PUBLIC 2ba4c 0 std::__ndk1::__function::__func<void (*)(geode::ModStateEvent*), std::__ndk1::allocator<void (*)(geode::ModStateEvent*)>, void (geode::ModStateEvent*)>::__clone(std::__ndk1::__function::__base<void (geode::ModStateEvent*)>*) const
PUBLIC 2ba60 0 std::__ndk1::__function::__func<void (*)(geode::ModStateEvent*), std::__ndk1::allocator<void (*)(geode::ModStateEvent*)>, void (geode::ModStateEvent*)>::destroy()
PUBLIC 2ba64 0 std::__ndk1::__function::__func<void (*)(geode::ModStateEvent*), std::__ndk1::allocator<void (*)(geode::ModStateEvent*)>, void (geode::ModStateEvent*)>::destroy_deallocate()
PUBLIC 2ba68 0 std::__ndk1::__function::__func<void (*)(geode::ModStateEvent*), std::__ndk1::allocator<void (*)(geode::ModStateEvent*)>, void (geode::ModStateEvent*)>::operator()(geode::ModStateEvent*&&)
PUBLIC 2ba78 0 std::__ndk1::__function::__func<void (*)(geode::ModStateEvent*), std::__ndk1::allocator<void (*)(geode::ModStateEvent*)>, void (geode::ModStateEvent*)>::target(std::type_info const&) const
PUBLIC 2ba94 0 std::__ndk1::__function::__func<void (*)(geode::ModStateEvent*), std::__ndk1::allocator<void (*)(geode::ModStateEvent*)>, void (geode::ModStateEvent*)>::target_type() const
PUBLIC 2baa0 0 _GLOBAL__sub_I_main.cpp
PUBLIC 2bbcc 0 MyButtonSettingV3::createNode(float)
PUBLIC 2c200 0 MyButtonSettingV3::~MyButtonSettingV3()
PUBLIC 2c224 0 MyButtonSettingV3::load(matjson::Value const&)
PUBLIC 2c22c 0 MyButtonSettingV3::save(matjson::Value&) const
PUBLIC 2c234 0 MyButtonSettingV3::isDefaultValue() const
PUBLIC 2c23c 0 MyButtonSettingV3::reset()
PUBLIC 2c240 0 cocos2d::CCCopying::copyWithZone(cocos2d::CCZone*)
PUBLIC 2c248 0 MyButtonSettingNodeV3::~MyButtonSettingNodeV3()
PUBLIC 2c304 0 MyButtonSettingNodeV3::~MyButtonSettingNodeV3()
PUBLIC 2c3d0 0 MyButtonSettingNodeV3::onCommit()
PUBLIC 2c3d4 0 MyButtonSettingNodeV3::onResetToDefault()
PUBLIC 2c3d8 0 MyButtonSettingNodeV3::hasUncommittedChanges() const
PUBLIC 2c3e0 0 MyButtonSettingNodeV3::hasNonDefaultValue() const
PUBLIC 2c3e8 0 MyButtonSettingNodeV3::onConfigDirButton(cocos2d::CCObject*)
PUBLIC 2c598 0 std::__ndk1::__throw_bad_optional_access[abi:ne180000]()
PUBLIC 2c5cc 0 std::__ndk1::__throw_bad_weak_ptr[abi:ne180000]()
PUBLIC m 2c600 0 geodeImplicitEntry
PUBLIC 2c63c 0 std::__ndk1::unordered_map<void*, bool, std::__ndk1::hash<void*>, std::__ndk1::equal_to<void*>, std::__ndk1::allocator<std::__ndk1::pair<void* const, bool> > >::~unordered_map[abi:ne180000]()
PUBLIC 2c688 0 wrapFunction(unsigned long, tulip::hook::WrapperMetadata const&)
PUBLIC 2c7bc 0 geode::impl::ResultData<void*, std::__ndk1::basic_string<char, std::__ndk1::char_traits<char>, std::__ndk1::allocator<char> > >::unwrapErr() &
PUBLIC 2c834 0 geode::impl::ResultData<void*, std::__ndk1::basic_string<char, std::__ndk1::char_traits<char>, std::__ndk1::allocator<char> > >::~ResultData()
PUBLIC 2c8a8 0 tulip::hook::WrapperMetadata::~WrapperMetadata()
PUBLIC 2c90c 0 cocos2d::CCObject::~CCObject()
PUBLIC 2c930 0 cocos2d::CCNode::CCNode()
PUBLIC 2cb8c 0 cocos2d::CCNode::~CCNode()
PUBLIC 2cbb0 0 FLAlertLayer::create(FLAlertLayerProtocol*, char const*, gd::string, char const*, char const*, float)
PUBLIC 2cd68 0 tulip::hook::AbstractFunction::from<FLAlertLayer*, FLAlertLayerProtocol*, char const*, gd::string, char const*, char const*, float>(FLAlertLayer* (*)(FLAlertLayerProtocol*, char const*, gd::string, char const*, char const*, float))
PUBLIC 2ced4 0 cocos2d::CCObject::update(float)
PUBLIC 2ced8 0 cocos2d::CCNode::~CCNode()
PUBLIC 2d178 0 cocos2d::CCObject::~CCObject()
PUBLIC 2d66c 0 _ZN5geode15UnwrapExceptionC2IRPvQsr4implE18IsStringStreamableIT_EEENS_4impl5OkTagEOS4_
PUBLIC 2d7c0 0 _ZN5geode15UnwrapExceptionC2IRNSt6__ndk112basic_stringIcNS2_11char_traitsIcEENS2_9allocatorIcEEEEQsr4implE18IsStringStreamableIT_EEENS_4impl6ErrTagEOSA_
PUBLIC 2d928 0 std::__ndk1::__variant_detail::__visitation::__base::__dispatcher<(unsigned long)0>::__dispatch[abi:ne180000]<std::__ndk1::__variant_detail::__dtor<std::__ndk1::__variant_detail::__traits<void*, std::__ndk1::basic_string<char, std::__ndk1::char_traits<char>, std::__ndk1::allocator<char> > >, (std::__ndk1::__variant_detail::_Trait)1>::__destroy[abi:ne180000]()::{lambda(auto:1&)#1}, std::__ndk1::__variant_detail::__base<(std::__ndk1::__variant_detail::__traits<void*, std::__ndk1::basic_string<char, std::__ndk1::char_traits<char>, std::__ndk1::allocator<char> > >)1, std::__ndk1::__variant_detail::__traits, std::__ndk1::allocator<char> >&>(std::__ndk1::__variant_detail::__dtor<std::__ndk1::__variant_detail::__traits<void*, std::__ndk1::basic_string<char, std::__ndk1::char_traits<char>, std::__ndk1::allocator<char> > >, (std::__ndk1::__variant_detail::_Trait)1>, std::__ndk1::__variant_detail::__base<(std::__ndk1::__variant_detail::__traits<void*, std::__ndk1::basic_string<char, std::__ndk1::char_traits<char>, std::__ndk1::allocator<char> > >)1, std::__ndk1::__variant_detail::__traits, std::__ndk1::allocator<char> >&)
PUBLIC 2d92c 0 std::__ndk1::__variant_detail::__visitation::__base::__dispatcher<(unsigned long)1>::__dispatch[abi:ne180000]<std::__ndk1::__variant_detail::__dtor<std::__ndk1::__variant_detail::__traits<void*, std::__ndk1::basic_string<char, std::__ndk1::char_traits<char>, std::__ndk1::allocator<char> > >, (std::__ndk1::__variant_detail::_Trait)1>::__destroy[abi:ne180000]()::{lambda(auto:1&)#1}, std::__ndk1::__variant_detail::__base<(std::__ndk1::__variant_detail::__traits<void*, std::__ndk1::basic_string<char, std::__ndk1::char_traits<char>, std::__ndk1::allocator<char> > >)1, std::__ndk1::__variant_detail::__traits, std::__ndk1::allocator<char> >&>(std::__ndk1::__variant_detail::__dtor<std::__ndk1::__variant_detail::__traits<void*, std::__ndk1::basic_string<char, std::__ndk1::char_traits<char>, std::__ndk1::allocator<char> > >, (std::__ndk1::__variant_detail::_Trait)1>, std::__ndk1::__variant_detail::__base<(std::__ndk1::__variant_detail::__traits<void*, std::__ndk1::basic_string<char, std::__ndk1::char_traits<char>, std::__ndk1::allocator<char> > >)1, std::__ndk1::__variant_detail::__traits, std::__ndk1::allocator<char> >&)
PUBLIC 2d940 0 std::__ndk1::__hash_table<std::__ndk1::__hash_value_type<void*, bool>, std::__ndk1::__unordered_map_hasher<void*, std::__ndk1::__hash_value_type<void*, bool>, std::__ndk1::hash<void*>, std::__ndk1::equal_to<void*>, true>, std::__ndk1::__unordered_map_equal<void*, std::__ndk1::__hash_value_type<void*, bool>, std::__ndk1::equal_to<void*>, std::__ndk1::hash<void*>, true>, std::__ndk1::allocator<std::__ndk1::__hash_value_type<void*, bool> > >::__emplace_unique_key_args<void*, std::__ndk1::piecewise_construct_t const&, std::__ndk1::tuple<void* const&>, std::__ndk1::tuple<> >(void* const&, std::__ndk1::piecewise_construct_t const&, std::__ndk1::tuple<void* const&>, std::__ndk1::tuple<>)
PUBLIC 2de4c 0 __udivti3
PUBLIC 2de58 0 __udivmodti4
PUBLIC m 2e0a4 0 __eqtf2
PUBLIC 2e144 0 __unordtf2
PUBLIC 2e17c 0 fmt::v11::detail::write_loc(fmt::v11::basic_appender<char>, fmt::v11::loc_value, fmt::v11::format_specs const&, fmt::v11::detail::locale_ref)
PUBLIC 2e410 0 fmt::v11::format_facet<std::__ndk1::locale>::~format_facet()
PUBLIC 2e48c 0 fmt::v11::report_error(char const*)
PUBLIC 2e4dc 0 fmt::v11::format_error::runtime_error(char const*)
PUBLIC 2e508 0 fmt::v11::format_facet<std::__ndk1::locale>::do_put(fmt::v11::basic_appender<char>, fmt::v11::loc_value, fmt::v11::format_specs const&) const
PUBLIC 2ecc8 0 fmt::v11::detail::loc_writer<char>::~loc_writer()
PUBLIC 2ed2c 0 fmt::v11::vformat(fmt::v11::basic_string_view<char>, fmt::v11::basic_format_args<fmt::v11::context>)
PUBLIC 2ee68 0 fmt::v11::detail::vformat_to<char>(fmt::v11::detail::buffer<char>&, fmt::v11::basic_string_view<char>, fmt::v11::detail::vformat_args<char>::type, fmt::v11::detail::locale_ref)
PUBLIC 2f3d8 0 fmt::v11::detail::is_printable(unsigned int)
PUBLIC 2f600 0 fmt::v11::detail::dragonbox::to_decimal<float>(float)
PUBLIC 2f8dc 0 fmt::v11::detail::dragonbox::to_decimal<double>(double)
PUBLIC 2fe18 0 fmt::v11::basic_memory_buffer<char, (unsigned long)500, std::__ndk1::allocator<char> >::grow(fmt::v11::detail::buffer<char>&, unsigned long)
PUBLIC 2fe90 0 fmt::v11::format_facet<std::__ndk1::locale>::~format_facet()
PUBLIC 2ff1c 0 fmt::v11::format_error::~format_error()
PUBLIC 2ff40 0 fmt::v11::detail::copy_noinline<char, char const*, fmt::v11::basic_appender<char> >(char const*, char const*, fmt::v11::basic_appender<char>)
PUBLIC 30090 0 fmt::v11::detail::default_arg_formatter<char>::operator()<bool>(bool)
PUBLIC 300f8 0 fmt::v11::detail::default_arg_formatter<char>::operator()<char>(char)
PUBLIC 30188 0 fmt::v11::detail::default_arg_formatter<char>::operator()<float>(float)
PUBLIC 30274 0 fmt::v11::detail::default_arg_formatter<char>::operator()<double>(double)
PUBLIC 30360 0 fmt::v11::detail::default_arg_formatter<char>::operator()<char const*>(char const*)
PUBLIC 303a8 0 fmt::v11::detail::default_arg_formatter<char>::operator()<void const*>(void const*)
PUBLIC 30440 0 _ZN3fmt3v116detail5writeIcNS0_14basic_appenderIcEEiTnNSt6__ndk19enable_ifIXaaaasr11is_integralIT1_EE5valuentsr3std7is_sameIS7_bEE5valuentsr3std7is_sameIS7_T_EE5valueEiE4typeELi0EEET0_SB_S7_
PUBLIC 306a0 0 fmt::v11::detail::copy_noinline<char, char*, fmt::v11::basic_appender<char> >(char*, char*, fmt::v11::basic_appender<char>)
PUBLIC 307f0 0 _ZN3fmt3v116detail5writeIcNS0_14basic_appenderIcEEjTnNSt6__ndk19enable_ifIXaaaasr11is_integralIT1_EE5valuentsr3std7is_sameIS7_bEE5valuentsr3std7is_sameIS7_T_EE5valueEiE4typeELi0EEET0_SB_S7_
PUBLIC 309d0 0 _ZN3fmt3v116detail5writeIcNS0_14basic_appenderIcEExTnNSt6__ndk19enable_ifIXaaaasr11is_integralIT1_EE5valuentsr3std7is_sameIS7_bEE5valuentsr3std7is_sameIS7_T_EE5valueEiE4typeELi0EEET0_SB_S7_
PUBLIC 30c54 0 _ZN3fmt3v116detail5writeIcNS0_14basic_appenderIcEEyTnNSt6__ndk19enable_ifIXaaaasr11is_integralIT1_EE5valuentsr3std7is_sameIS7_bEE5valuentsr3std7is_sameIS7_T_EE5valueEiE4typeELi0EEET0_SB_S7_
PUBLIC 30e5c 0 _ZN3fmt3v116detail5writeIcNS0_14basic_appenderIcEEnTnNSt6__ndk19enable_ifIXaaaasr11is_integralIT1_EE5valuentsr3std7is_sameIS7_bEE5valuentsr3std7is_sameIS7_T_EE5valueEiE4typeELi0EEET0_SB_S7_
PUBLIC 311bc 0 _ZN3fmt3v116detail5writeIcNS0_14basic_appenderIcEEoTnNSt6__ndk19enable_ifIXaaaasr11is_integralIT1_EE5valuentsr3std7is_sameIS7_bEE5valuentsr3std7is_sameIS7_T_EE5valueEiE4typeELi0EEET0_SB_S7_
PUBLIC 314d0 0 _ZN3fmt3v116detail5writeIcNS0_14basic_appenderIcEEbTnNSt6__ndk19enable_ifIXsr3std7is_sameIT1_bEE5valueEiE4typeELi0EEET0_SA_S7_RKNS0_12format_specsENS1_10locale_refE
PUBLIC 31760 0 fmt::v11::detail::write_int_noinline<char, fmt::v11::basic_appender<char>, unsigned int>(fmt::v11::basic_appender<char>, fmt::v11::detail::write_int_arg<unsigned int>, fmt::v11::format_specs const&, fmt::v11::detail::locale_ref)
PUBLIC 3253c 0 fmt::v11::detail::fill<char, fmt::v11::basic_appender<char> >(fmt::v11::basic_appender<char>, unsigned long, fmt::v11::detail::fill_t const&)
PUBLIC 3270c 0 fmt::v11::detail::write_padded<char, (fmt::v11::align::type)1, fmt::v11::basic_appender<char>, fmt::v11::detail::write_char<char, fmt::v11::basic_appender<char> >(fmt::v11::basic_appender<char>, char, fmt::v11::format_specs const&)::{lambda(fmt::v11::basic_appender<char>&)#1}>(fmt::v11::basic_appender<char>, fmt::v11::format_specs const&, unsigned long, unsigned long, fmt::v11::detail::write_char<char, fmt::v11::basic_appender<char> >(fmt::v11::basic_appender<char>, char, fmt::v11::format_specs const&)::{lambda(fmt::v11::basic_appender<char>&)#1})
PUBLIC 32948 0 fmt::v11::detail::write_escaped_cp<fmt::v11::basic_appender<char>, char>(fmt::v11::basic_appender<char>, fmt::v11::detail::find_escape_result<char> const&)
PUBLIC 32c54 0 fmt::v11::detail::write_codepoint<(unsigned long)2, char, fmt::v11::basic_appender<char> >(fmt::v11::basic_appender<char>, char, unsigned int)
PUBLIC 32dcc 0 fmt::v11::detail::write_codepoint<(unsigned long)8, char, fmt::v11::basic_appender<char> >(fmt::v11::basic_appender<char>, char, unsigned int)
PUBLIC 32f44 0 fmt::v11::detail::write_padded<char, (fmt::v11::align::type)1, fmt::v11::basic_appender<char>, fmt::v11::detail::write_nonfinite<char, fmt::v11::basic_appender<char> >(fmt::v11::basic_appender<char>, bool, fmt::v11::format_specs, fmt::v11::sign::type)::{lambda(fmt::v11::basic_appender<char>&)#1}>(fmt::v11::basic_appender<char>, fmt::v11::format_specs const&, unsigned long, unsigned long, fmt::v11::detail::write_nonfinite<char, fmt::v11::basic_appender<char> >(fmt::v11::basic_appender<char>, bool, fmt::v11::format_specs, fmt::v11::sign::type)::{lambda(fmt::v11::basic_appender<char>&)#1})
PUBLIC 33184 0 fmt::v11::detail::do_write_float<char, fmt::v11::basic_appender<char>, fmt::v11::detail::dragonbox::decimal_fp<float>, fmt::v11::detail::digit_grouping<char> >(fmt::v11::basic_appender<char>, fmt::v11::detail::dragonbox::decimal_fp<float> const&, fmt::v11::format_specs const&, fmt::v11::detail::float_specs, fmt::v11::detail::locale_ref)
PUBLIC 33df8 0 fmt::v11::detail::do_write_float<char, fmt::v11::basic_appender<char>, fmt::v11::detail::dragonbox::decimal_fp<float>, fmt::v11::detail::digit_grouping<char> >(fmt::v11::basic_appender<char>, fmt::v11::detail::dragonbox::decimal_fp<float> const&, fmt::v11::format_specs const&, fmt::v11::detail::float_specs, fmt::v11::detail::locale_ref)::{lambda(fmt::v11::basic_appender<char>(fmt::v11::basic_appender<char>))#1}::operator() const
PUBLIC 33f4c 0 fmt::v11::detail::digit_grouping<char>::digit_grouping(fmt::v11::detail::locale_ref, bool)
PUBLIC 341b8 0 fmt::v11::detail::digit_grouping<char>::~digit_grouping()
PUBLIC 341fc 0 fmt::v11::detail::write_exponent<char, fmt::v11::basic_appender<char> >(int, fmt::v11::basic_appender<char>)
PUBLIC 343cc 0 _ZN3fmt3v116detail17write_significandIcjTnNSt6__ndk19enable_ifIXsr3std11is_integralIT0_EE5valueEiE4typeELi0EEEPT_S9_S5_iiS8_
PUBLIC 34548 0 fmt::v11::detail::digit_grouping<char>::apply<fmt::v11::basic_appender<char>, char>(fmt::v11::basic_appender<char>, fmt::v11::basic_string_view<char>) const
PUBLIC 34900 0 fmt::v11::basic_memory_buffer<int, (unsigned long)500, std::__ndk1::allocator<int> >::grow(fmt::v11::detail::buffer<int>&, unsigned long)
PUBLIC 349a0 0 fmt::v11::detail::do_write_float<char, fmt::v11::basic_appender<char>, fmt::v11::detail::dragonbox::decimal_fp<double>, fmt::v11::detail::digit_grouping<char> >(fmt::v11::basic_appender<char>, fmt::v11::detail::dragonbox::decimal_fp<double> const&, fmt::v11::format_specs const&, fmt::v11::detail::float_specs, fmt::v11::detail::locale_ref)
PUBLIC 35654 0 fmt::v11::detail::do_write_float<char, fmt::v11::basic_appender<char>, fmt::v11::detail::dragonbox::decimal_fp<double>, fmt::v11::detail::digit_grouping<char> >(fmt::v11::basic_appender<char>, fmt::v11::detail::dragonbox::decimal_fp<double> const&, fmt::v11::format_specs const&, fmt::v11::detail::float_specs, fmt::v11::detail::locale_ref)::{lambda(fmt::v11::basic_appender<char>(fmt::v11::basic_appender<char>))#1}::operator() const
PUBLIC 357ac 0 _ZN3fmt3v116detail17write_significandIcmTnNSt6__ndk19enable_ifIXsr3std11is_integralIT0_EE5valueEiE4typeELi0EEEPT_S9_S5_iiS8_
PUBLIC 3593c 0 fmt::v11::detail::write_float<char, fmt::v11::basic_appender<char>, long double>(fmt::v11::basic_appender<char>, long double, fmt::v11::format_specs, fmt::v11::detail::locale_ref)
PUBLIC 36438 0 fmt::v11::detail::write_padded<char, (fmt::v11::align::type)2, fmt::v11::basic_appender<char>, fmt::v11::detail::write_bytes<char, (fmt::v11::align::type)2, fmt::v11::basic_appender<char> >(fmt::v11::basic_appender<char>, fmt::v11::basic_string_view<char>, fmt::v11::format_specs const&)::{lambda(fmt::v11::basic_appender<char>&)#1}>(fmt::v11::basic_appender<char>, fmt::v11::format_specs const&, unsigned long, unsigned long, fmt::v11::detail::write_bytes<char, (fmt::v11::align::type)2, fmt::v11::basic_appender<char> >(fmt::v11::basic_appender<char>, fmt::v11::basic_string_view<char>, fmt::v11::format_specs const&)::{lambda(fmt::v11::basic_appender<char>&)#1})
PUBLIC 36614 0 fmt::v11::detail::format_dragon(fmt::v11::detail::basic_fp<unsigned __int128>, unsigned int, int, fmt::v11::detail::buffer<char>&, int&)
PUBLIC 37a44 0 fmt::v11::detail::bigint::operator<<=(int)
PUBLIC 37b68 0 fmt::v11::detail::bigint::assign_pow10(int)
PUBLIC 382c4 0 fmt::v11::detail::bigint::divmod_assign(fmt::v11::detail::bigint const&)
PUBLIC 385e4 0 fmt::v11::basic_memory_buffer<unsigned int, (unsigned long)32, std::__ndk1::allocator<unsigned int> >::grow(fmt::v11::detail::buffer<unsigned int>&, unsigned long)
PUBLIC 38684 0 fmt::v11::detail::do_write_float<char, fmt::v11::basic_appender<char>, fmt::v11::detail::big_decimal_fp, fmt::v11::detail::digit_grouping<char> >(fmt::v11::basic_appender<char>, fmt::v11::detail::big_decimal_fp const&, fmt::v11::format_specs const&, fmt::v11::detail::float_specs, fmt::v11::detail::locale_ref)
PUBLIC 39534 0 fmt::v11::detail::do_write_float<char, fmt::v11::basic_appender<char>, fmt::v11::detail::big_decimal_fp, fmt::v11::detail::digit_grouping<char> >(fmt::v11::basic_appender<char>, fmt::v11::detail::big_decimal_fp const&, fmt::v11::format_specs const&, fmt::v11::detail::float_specs, fmt::v11::detail::locale_ref)::{lambda(fmt::v11::basic_appender<char>(fmt::v11::basic_appender<char>))#1}::operator() const
PUBLIC 39694 0 fmt::v11::detail::write_padded<char, (fmt::v11::align::type)2, fmt::v11::basic_appender<char>, fmt::v11::detail::write_ptr<char, fmt::v11::basic_appender<char>, unsigned long>(fmt::v11::basic_appender<char>, unsigned long, fmt::v11::format_specs const*)::{lambda(fmt::v11::basic_appender<char>&)#1}>(fmt::v11::basic_appender<char>, fmt::v11::format_specs const&, unsigned long, unsigned long, fmt::v11::detail::write_ptr<char, fmt::v11::basic_appender<char>, unsigned long>(fmt::v11::basic_appender<char>, unsigned long, fmt::v11::format_specs const*)::{lambda(fmt::v11::basic_appender<char>&)#1})
PUBLIC 398a8 0 fmt::v11::detail::parse_replacement_field<char, fmt::v11::detail::vformat_to<char>(fmt::v11::detail::buffer<char>&, fmt::v11::basic_string_view<char>, fmt::v11::detail::vformat_args<char>::type, fmt::v11::detail::locale_ref)::format_handler&>(char const*, char const*, fmt::v11::detail::vformat_to<char>(fmt::v11::detail::buffer<char>&, fmt::v11::basic_string_view<char>, fmt::v11::detail::vformat_args<char>::type, fmt::v11::detail::locale_ref)::format_handler&)
PUBLIC 3b544 0 fmt::v11::detail::parse_dynamic_spec<char>(char const*, char const*, int&, fmt::v11::detail::arg_ref<char>&, fmt::v11::basic_format_parse_context<char>&)
PUBLIC 3b7d4 0 fmt::v11::basic_format_args<fmt::v11::context>::get<char>(fmt::v11::basic_string_view<char>) const
PUBLIC 3b92c 0 fmt::v11::detail::write_int_noinline<char, fmt::v11::basic_appender<char>, unsigned long>(fmt::v11::basic_appender<char>, fmt::v11::detail::write_int_arg<unsigned long>, fmt::v11::format_specs const&, fmt::v11::detail::locale_ref)
PUBLIC 3c780 0 fmt::v11::detail::write_int_noinline<char, fmt::v11::basic_appender<char>, unsigned __int128>(fmt::v11::basic_appender<char>, fmt::v11::detail::write_int_arg<unsigned __int128>, fmt::v11::format_specs const&, fmt::v11::detail::locale_ref)
PUBLIC 3d7e8 0 _ZN3fmt3v116detail15format_hexfloatIdTnNSt6__ndk19enable_ifIXntsr16is_double_doubleIT_EE5valueEiE4typeELi0EEEvS5_NS0_12format_specsERNS1_6bufferIcEE
PUBLIC 3dd08 0 fmt::v11::detail::format_float<double>(double, int, fmt::v11::detail::float_specs, fmt::v11::detail::buffer<char>&)
PUBLIC 3e6a8 0 fmt::v11::detail::write<char, fmt::v11::basic_appender<char> >(fmt::v11::basic_appender<char>, fmt::v11::basic_string_view<char>, fmt::v11::format_specs const&)
PUBLIC 3fa14 0 fmt::v11::detail::for_each_codepoint<fmt::v11::detail::compute_width(fmt::v11::basic_string_view<char>)::count_code_points>(fmt::v11::basic_string_view<char>, fmt::v11::detail::compute_width(fmt::v11::basic_string_view<char>)::count_code_points)::{lambda(char const*, char const*)#1}::operator()(char const*, char const*) const
PUBLIC 3fbcc 0 fmt::v11::detail::write_int<fmt::v11::basic_appender<char>, unsigned long, char>(fmt::v11::basic_appender<char>, unsigned long, unsigned int, fmt::v11::format_specs const&, fmt::v11::detail::digit_grouping<char> const&)
PUBLIC 40148 0 fmt::v11::detail::write_int<fmt::v11::basic_appender<char>, unsigned __int128, char>(fmt::v11::basic_appender<char>, unsigned __int128, unsigned int, fmt::v11::format_specs const&, fmt::v11::detail::digit_grouping<char> const&)
PUBLIC 407d0 0 <.plt ELF section in raydeeux.endscreentweaks.android64.so>
STACK CFI INIT 15310 10 .cfa: sp 0 +
STACK CFI INIT 15320 8 .cfa: sp 0 +
STACK CFI INIT 15328 8 .cfa: sp 0 +
STACK CFI INIT 15330 14 .cfa: sp 0 +
STACK CFI INIT 15344 1c .cfa: sp 0 +
STACK CFI INIT 15360 10 .cfa: sp 0 +
STACK CFI INIT 15370 134 .cfa: sp 0 +
STACK CFI INIT 154a4 84 .cfa: sp 0 +
STACK CFI INIT 15528 f4 .cfa: sp 0 +
STACK CFI INIT 1561c a8 .cfa: sp 0 +
STACK CFI INIT 156c4 7c .cfa: sp 0 +
STACK CFI INIT 15740 14 .cfa: sp 0 +
STACK CFI INIT 15754 40 .cfa: sp 0 +
STACK CFI INIT 15794 28 .cfa: sp 0 +
STACK CFI INIT 157bc 190 .cfa: sp 0 +
STACK CFI INIT 1594c 2c8 .cfa: sp 0 +
STACK CFI INIT 15c14 8 .cfa: sp 0 +
STACK CFI INIT 15c1c 8 .cfa: sp 0 +
STACK CFI INIT 15c24 44 .cfa: sp 0 +
STACK CFI INIT 15c68 e8 .cfa: sp 0 +
STACK CFI INIT 15d50 e8 .cfa: sp 0 +
STACK CFI INIT 15e38 14 .cfa: sp 0 +
STACK CFI INIT 15e4c 10 .cfa: sp 0 +
STACK CFI INIT 15e5c 10 .cfa: sp 0 +
STACK CFI INIT 15e6c f0 .cfa: sp 0 +
STACK CFI INIT 15f5c 44 .cfa: sp 0 +
STACK CFI INIT 15fa0 c .cfa: sp 0 +
STACK CFI INIT 15fac c .cfa: sp 0 +
STACK CFI INIT 15fb8 2c .cfa: sp 0 +
STACK CFI INIT 15fe4 280 .cfa: sp 0 +
STACK CFI INIT 16264 c .cfa: sp 0 +
STACK CFI INIT 16270 120 .cfa: sp 0 +
STACK CFI INIT 16390 488 .cfa: sp 0 +
STACK CFI INIT 16818 c48 .cfa: sp 0 +
STACK CFI INIT 17460 134 .cfa: sp 0 +
STACK CFI INIT 17594 210 .cfa: sp 0 +
STACK CFI INIT 177a4 38c .cfa: sp 0 +
STACK CFI INIT 17b30 1c8 .cfa: sp 0 +
STACK CFI INIT 17cf8 9bc .cfa: sp 0 +
STACK CFI INIT 186b4 2d4 .cfa: sp 0 +
STACK CFI INIT 18988 134 .cfa: sp 0 +
STACK CFI INIT 18abc 120 .cfa: sp 0 +
STACK CFI INIT 18bdc 1c8 .cfa: sp 0 +
STACK CFI INIT 18da4 168 .cfa: sp 0 +
STACK CFI INIT 18f0c fc .cfa: sp 0 +
STACK CFI INIT 19008 30 .cfa: sp 0 +
STACK CFI INIT 19170 30 .cfa: sp 0 +
STACK CFI INIT 191a0 98 .cfa: sp 0 +
STACK CFI INIT 19238 59c .cfa: sp 0 +
STACK CFI INIT 197d4 8c .cfa: sp 0 +
STACK CFI INIT 19860 30 .cfa: sp 0 +
STACK CFI INIT 19d10 1c .cfa: sp 0 +
STACK CFI INIT 1a034 50 .cfa: sp 0 +
STACK CFI 1a038 .cfa: sp 32 +
STACK CFI 1a040 .cfa: x29 32 + x19: .cfa -16 + ^ .ra: .cfa -24 + ^ x29: .cfa -32 + ^
STACK CFI 1a058 .cfa: sp 32 +
STACK CFI 1a060 .cfa: sp 0 +
STACK CFI 1a064 .cfa: x29 32 +
STACK CFI 1a078 .cfa: sp 32 +
STACK CFI 1a080 .cfa: sp 0 +
STACK CFI INIT 1a0f8 7c .cfa: sp 0 +
STACK CFI 1a0fc .cfa: sp 48 +
STACK CFI 1a108 .cfa: x29 48 + x19: .cfa -8 + ^ x20: .cfa -16 + ^ x21: .cfa -32 + ^ .ra: .cfa -40 + ^ x29: .cfa -48 + ^
STACK CFI 1a154 .cfa: sp 48 +
STACK CFI 1a160 .cfa: sp 0 +
STACK CFI 1a164 .cfa: sp 48 +
STACK CFI 1a170 .cfa: sp 0 +
STACK CFI INIT 1a174 4 .cfa: sp 0 +
STACK CFI INIT 1a178 10 .cfa: sp 0 +
STACK CFI 1a17c .cfa: sp 16 +
STACK CFI 1a180 .cfa: x29 16 + .ra: .cfa -8 + ^ x29: .cfa -16 + ^
STACK CFI INIT 1a2dc 34 .cfa: sp 0 +
STACK CFI 1a2e0 .cfa: sp 16 +
STACK CFI 1a2e4 .cfa: x29 16 + .ra: .cfa -8 + ^ x29: .cfa -16 + ^
STACK CFI INIT 1a43c 80 .cfa: sp 0 +
STACK CFI 1a440 .cfa: sp 48 +
STACK CFI 1a44c .cfa: x29 48 + x19: .cfa -8 + ^ x20: .cfa -16 + ^ x21: .cfa -32 + ^ .ra: .cfa -40 + ^ x29: .cfa -48 + ^
STACK CFI 1a4ac .cfa: sp 48 +
STACK CFI 1a4b8 .cfa: sp 0 +
STACK CFI INIT 1a4bc 24 .cfa: sp 0 +
STACK CFI 1a4c0 .cfa: sp 32 +
STACK CFI 1a4c8 .cfa: x29 32 + x19: .cfa -16 + ^ .ra: .cfa -24 + ^ x29: .cfa -32 + ^
STACK CFI 1a4d4 .cfa: sp 32 +
STACK CFI 1a4dc .cfa: sp 0 +
STACK CFI INIT 1a860 14 .cfa: sp 0 +
STACK CFI 1a864 .cfa: sp 16 +
STACK CFI 1a868 .cfa: x29 16 + .ra: .cfa -8 + ^ x29: .cfa -16 + ^
STACK CFI INIT 1a8c4 30 .cfa: sp 0 +
STACK CFI 1a8c8 .cfa: sp 32 +
STACK CFI 1a8d0 .cfa: x29 32 + x19: .cfa -16 + ^ .ra: .cfa -24 + ^ x29: .cfa -32 + ^
STACK CFI 1a8e8 .cfa: sp 32 +
STACK CFI 1a8f0 .cfa: sp 0 +
STACK CFI INIT 1a8f4 34 .cfa: sp 0 +
STACK CFI 1a8f8 .cfa: sp 32 +
STACK CFI 1a900 .cfa: x29 32 + x19: .cfa -16 + ^ .ra: .cfa -24 + ^ x29: .cfa -32 + ^
STACK CFI INIT 1aaa0 148 .cfa: sp 0 +
STACK CFI 1aaa4 .cfa: sp 48 +
STACK CFI 1aab0 .cfa: x29 48 + x19: .cfa -8 + ^ x20: .cfa -16 + ^ x21: .cfa -32 + ^ .ra: .cfa -40 + ^ x29: .cfa -48 + ^
STACK CFI 1abd8 .cfa: sp 48 +
STACK CFI 1abe4 .cfa: sp 0 +
STACK CFI INIT 1ae10 80 .cfa: sp 0 +
STACK CFI 1ae14 .cfa: sp 48 +
STACK CFI 1ae20 .cfa: x29 48 + x19: .cfa -8 + ^ x20: .cfa -16 + ^ x21: .cfa -24 + ^ x22: .cfa -32 + ^ .ra: .cfa -40 + ^ x29: .cfa -48 + ^
STACK CFI 1ae38 .cfa: sp 48 +
STACK CFI 1ae44 .cfa: sp 0 +
STACK CFI 1ae48 .cfa: x29 48 +
STACK CFI 1ae78 .cfa: sp 48 +
STACK CFI 1ae84 .cfa: sp 0 +
STACK CFI 1ae88 .cfa: x29 48 +
STACK CFI INIT 1ae90 68 .cfa: sp 0 +
STACK CFI 1ae94 .cfa: sp 32 +
STACK CFI 1ae9c .cfa: x29 32 + x19: .cfa -8 + ^ x20: .cfa -16 + ^ .ra: .cfa -24 + ^ x29: .cfa -32 + ^
STACK CFI 1aeb4 .cfa: sp 32 +
STACK CFI 1aebc .cfa: sp 0 +
STACK CFI 1aec0 .cfa: x29 32 +
STACK CFI 1aeec .cfa: sp 32 +
STACK CFI 1aef4 .cfa: sp 0 +
STACK CFI INIT 1aef8 14 .cfa: sp 0 +
STACK CFI 1aefc .cfa: sp 16 +
STACK CFI 1af00 .cfa: x29 16 + .ra: .cfa -8 + ^ x29: .cfa -16 + ^
STACK CFI INIT 1af0c 4 .cfa: sp 0 +
STACK CFI INIT 1af10 14 .cfa: sp 0 +
STACK CFI INIT 1af24 120 .cfa: sp 0 +
STACK CFI 1af28 .cfa: sp 64 +
STACK CFI 1af38 .cfa: x29 64 + x19: .cfa -8 + ^ x20: .cfa -16 + ^ x21: .cfa -24 + ^ x22: .cfa -32 + ^ x23: .cfa -40 + ^ x24: .cfa -48 + ^ .ra: .cfa -56 + ^ x29: .cfa -64 + ^
STACK CFI 1b030 .cfa: sp 64 +
STACK CFI 1b040 .cfa: sp 0 +
STACK CFI INIT 1b044 d4 .cfa: sp 0 +
STACK CFI 1b048 .cfa: sp 48 +
STACK CFI 1b054 .cfa: x29 48 + x19: .cfa -8 + ^ x20: .cfa -16 + ^ x21: .cfa -32 + ^ .ra: .cfa -40 + ^ x29: .cfa -48 + ^
STACK CFI 1b0e4 .cfa: sp 48 +
STACK CFI 1b0f0 .cfa: sp 0 +
STACK CFI 1b0f4 .cfa: x29 48 +
STACK CFI INIT 1b118 3c8 .cfa: sp 0 +
STACK CFI INIT 1b4e0 8c .cfa: sp 0 +
STACK CFI 1b4e8 .cfa: sp 32 +
STACK CFI 1b4f0 .cfa: x29 32 + x19: .cfa -8 + ^ x20: .cfa -16 + ^ .ra: .cfa -24 + ^ x29: .cfa -32 + ^
STACK CFI 1b538 .cfa: sp 32 +
STACK CFI 1b540 .cfa: sp 0 +
STACK CFI 1b548 .cfa: x29 32 +
STACK CFI INIT 1b838 9c .cfa: sp 0 +
STACK CFI INIT 1b8d4 50 .cfa: sp 0 +
STACK CFI 1b8d8 .cfa: sp 32 +
STACK CFI 1b8e0 .cfa: x29 32 + x19: .cfa -16 + ^ .ra: .cfa -24 + ^ x29: .cfa -32 + ^
STACK CFI 1b8f8 .cfa: sp 32 +
STACK CFI 1b900 .cfa: sp 0 +
STACK CFI 1b904 .cfa: x29 32 +
STACK CFI 1b918 .cfa: sp 32 +
STACK CFI 1b920 .cfa: sp 0 +
STACK CFI INIT 1b924 64 .cfa: sp 0 +
STACK CFI 1b928 .cfa: sp 32 +
STACK CFI 1b930 .cfa: x29 32 + x19: .cfa -16 + ^ .ra: .cfa -24 + ^ x29: .cfa -32 + ^
STACK CFI 1b95c .cfa: sp 32 +
STACK CFI 1b964 .cfa: sp 0 +
STACK CFI 1b968 .cfa: x29 32 +
STACK CFI 1b97c .cfa: sp 32 +
STACK CFI 1b984 .cfa: sp 0 +
STACK CFI INIT 1cd2c 44 .cfa: sp 0 +
STACK CFI 1cd30 .cfa: sp 32 +
STACK CFI 1cd38 .cfa: x29 32 + x19: .cfa -16 + ^ .ra: .cfa -24 + ^ x29: .cfa -32 + ^
STACK CFI 1cd54 .cfa: sp 32 +
STACK CFI 1cd5c .cfa: sp 0 +
STACK CFI 1cd60 .cfa: x29 32 +
STACK CFI 1cd64 .cfa: sp 32 +
STACK CFI 1cd6c .cfa: sp 0 +
STACK CFI INIT 1ce8c 8c .cfa: sp 0 +
STACK CFI 1ce90 .cfa: sp 48 +
STACK CFI 1ce9c .cfa: x29 48 + x19: .cfa -8 + ^ x20: .cfa -16 + ^ x21: .cfa -24 + ^ x22: .cfa -32 + ^ .ra: .cfa -40 + ^ x29: .cfa -48 + ^
STACK CFI 1cea4 .cfa: sp 48 +
STACK CFI 1ceb0 .cfa: sp 0 +
STACK CFI 1ceb4 .cfa: x29 48 +
STACK CFI 1cf08 .cfa: sp 48 +
STACK CFI 1cf14 .cfa: sp 0 +
STACK CFI INIT 1cf18 60 .cfa: sp 0 +
STACK CFI 1cf28 .cfa: sp 32 +
STACK CFI 1cf30 .cfa: x29 32 + x19: .cfa -8 + ^ x20: .cfa -16 + ^ .ra: .cfa -24 + ^ x29: .cfa -32 + ^
STACK CFI 1cf6c .cfa: sp 32 +
STACK CFI 1cf74 .cfa: sp 0 +
STACK CFI INIT 1cf78 3f0 .cfa: sp 0 +
STACK CFI 1cf7c .cfa: sp 112 +
STACK CFI 1cf98 .cfa: x29 96 + x19: .cfa -8 + ^ x20: .cfa -16 + ^ x21: .cfa -24 + ^ x22: .cfa -32 + ^ x23: .cfa -40 + ^ x24: .cfa -48 + ^ x25: .cfa -56 + ^ x26: .cfa -64 + ^ x27: .cfa -72 + ^ x28: .cfa -80 + ^ .ra: .cfa -88 + ^ x29: .cfa -96 + ^
STACK CFI 1d348 .cfa: sp 112 +
STACK CFI 1d364 .cfa: sp 0 +
STACK CFI INIT 1d450 5c .cfa: sp 0 +
STACK CFI 1d454 .cfa: sp 32 +
STACK CFI 1d45c .cfa: x29 32 + x19: .cfa -16 + ^ .ra: .cfa -24 + ^ x29: .cfa -32 + ^
STACK CFI 1d494 .cfa: sp 32 +
STACK CFI 1d49c .cfa: sp 0 +
STACK CFI 1d4a0 .cfa: sp 32 +
STACK CFI 1d4a8 .cfa: sp 0 +
STACK CFI INIT 1d4ac 1b0 .cfa: sp 0 +
STACK CFI INIT 1d65c 78 .cfa: sp 0 +
STACK CFI 1d664 .cfa: sp 32 +
STACK CFI 1d66c .cfa: x29 32 + x19: .cfa -8 + ^ x20: .cfa -16 + ^ .ra: .cfa -24 + ^ x29: .cfa -32 + ^
STACK CFI 1d69c .cfa: sp 32 +
STACK CFI 1d6a4 .cfa: sp 0 +
STACK CFI 1d6ac .cfa: x29 32 +
STACK CFI 1d6c8 .cfa: sp 32 +
STACK CFI 1d6d0 .cfa: sp 0 +
STACK CFI INIT 1d6d4 120 .cfa: sp 0 +
STACK CFI 1d6d8 .cfa: sp 64 +
STACK CFI 1d6e8 .cfa: x29 64 + x19: .cfa -8 + ^ x20: .cfa -16 + ^ x21: .cfa -24 + ^ x22: .cfa -32 + ^ x23: .cfa -40 + ^ x24: .cfa -48 + ^ .ra: .cfa -56 + ^ x29: .cfa -64 + ^
STACK CFI 1d7e0 .cfa: sp 64 +
STACK CFI 1d7f0 .cfa: sp 0 +
STACK CFI INIT 1d7f4 178 .cfa: sp 0 +
STACK CFI 1d7f8 .cfa: sp 80 +
STACK CFI 1d80c .cfa: x29 80 + x19: .cfa -8 + ^ x20: .cfa -16 + ^ x21: .cfa -24 + ^ x22: .cfa -32 + ^ x23: .cfa -40 + ^ x24: .cfa -48 + ^ x25: .cfa -56 + ^ x26: .cfa -64 + ^ .ra: .cfa -72 + ^ x29: .cfa -80 + ^
STACK CFI 1d954 .cfa: sp 80 +
STACK CFI 1d968 .cfa: sp 0 +
STACK CFI INIT 1ddec 1c .cfa: sp 0 +
STACK CFI INIT 1e46c 3c .cfa: sp 0 +
STACK CFI 1e470 .cfa: sp 32 +
STACK CFI 1e478 .cfa: x29 32 + x19: .cfa -16 + ^ .ra: .cfa -24 + ^ x29: .cfa -32 + ^
STACK CFI 1e484 .cfa: sp 32 +
STACK CFI 1e48c .cfa: sp 0 +
STACK CFI 1e490 .cfa: x29 32 +
STACK CFI 1e49c .cfa: sp 32 +
STACK CFI 1e4a4 .cfa: sp 0 +
STACK CFI INIT 1e4a8 4 .cfa: sp 0 +
STACK CFI INIT 1e6fc 9c .cfa: sp 0 +
STACK CFI 1e700 .cfa: sp 48 +
STACK CFI 1e70c .cfa: x29 48 + x19: .cfa -8 + ^ x20: .cfa -16 + ^ x21: .cfa -24 + ^ x22: .cfa -32 + ^ .ra: .cfa -40 + ^ x29: .cfa -48 + ^
STACK CFI 1e740 .cfa: sp 48 +
STACK CFI 1e74c .cfa: sp 0 +
STACK CFI 1e750 .cfa: x29 48 +
STACK CFI 1e780 .cfa: sp 48 +
STACK CFI 1e78c .cfa: sp 0 +
STACK CFI 1e790 .cfa: x29 48 +
STACK CFI INIT 1f1c0 104 .cfa: sp 0 +
STACK CFI 1f1c4 .cfa: sp 64 +
STACK CFI 1f1d4 .cfa: x29 64 + x19: .cfa -8 + ^ x20: .cfa -16 + ^ x21: .cfa -24 + ^ x22: .cfa -32 + ^ x23: .cfa -48 + ^ .ra: .cfa -56 + ^ x29: .cfa -64 + ^
STACK CFI 1f230 .cfa: sp 64 +
STACK CFI 1f240 .cfa: sp 0 +
STACK CFI 1f244 .cfa: x29 64 +
STACK CFI 1f260 .cfa: sp 64 +
STACK CFI 1f270 .cfa: sp 0 +
STACK CFI 1f274 .cfa: x29 64 +
STACK CFI 1f2b0 .cfa: sp 64 +
STACK CFI 1f2c0 .cfa: sp 0 +
STACK CFI INIT 21094 c0 .cfa: sp 0 +
STACK CFI 21098 .cfa: sp 96 +
STACK CFI 210a8 .cfa: x29 48 + x19: .cfa -8 + ^ x20: .cfa -16 + ^ x21: .cfa -24 + ^ x22: .cfa -32 + ^ .ra: .cfa -40 + ^ x29: .cfa -48 + ^
STACK CFI 2113c .cfa: sp 96 +
STACK CFI 2114c .cfa: sp 0 +
STACK CFI 21150 .cfa: x29 48 +
STACK CFI INIT 21154 50 .cfa: sp 0 +
STACK CFI 21158 .cfa: sp 32 +
STACK CFI 21160 .cfa: x29 32 + x19: .cfa -16 + ^ .ra: .cfa -24 + ^ x29: .cfa -32 + ^
STACK CFI 21178 .cfa: sp 32 +
STACK CFI 21180 .cfa: sp 0 +
STACK CFI 21184 .cfa: x29 32 +
STACK CFI 21198 .cfa: sp 32 +
STACK CFI 211a0 .cfa: sp 0 +
STACK CFI INIT 211a4 50 .cfa: sp 0 +
STACK CFI 211a8 .cfa: sp 32 +
STACK CFI 211b0 .cfa: x29 32 + x19: .cfa -16 + ^ .ra: .cfa -24 + ^ x29: .cfa -32 + ^
STACK CFI 211c8 .cfa: sp 32 +
STACK CFI 211d0 .cfa: sp 0 +
STACK CFI 211d4 .cfa: x29 32 +
STACK CFI 211e8 .cfa: sp 32 +
STACK CFI 211f0 .cfa: sp 0 +
STACK CFI INIT 216b0 e8 .cfa: sp 0 +
STACK CFI 216b4 .cfa: sp 32 +
STACK CFI 216bc .cfa: x29 32 + x19: .cfa -8 + ^ x20: .cfa -16 + ^ .ra: .cfa -24 + ^ x29: .cfa -32 + ^
STACK CFI 216fc .cfa: sp 32 +
STACK CFI 21704 .cfa: sp 0 +
STACK CFI 21708 .cfa: x29 32 +
STACK CFI 21744 .cfa: sp 32 +
STACK CFI 2174c .cfa: sp 0 +
STACK CFI 21750 .cfa: x29 32 +
STACK CFI 21770 .cfa: sp 32 +
STACK CFI 21778 .cfa: sp 0 +
STACK CFI 2177c .cfa: x29 32 +
STACK CFI 2178c .cfa: sp 32 +
STACK CFI 21794 .cfa: sp 0 +
STACK CFI INIT 21a9c 168 .cfa: sp 0 +
STACK CFI 21aa0 .cfa: sp 48 +
STACK CFI 21aac .cfa: x29 48 + x19: .cfa -8 + ^ x20: .cfa -16 + ^ x21: .cfa -24 + ^ x22: .cfa -32 + ^ .ra: .cfa -40 + ^ x29: .cfa -48 + ^
STACK CFI 21be8 .cfa: sp 48 +
STACK CFI 21bf4 .cfa: sp 0 +
STACK CFI 21bf8 .cfa: x29 48 +
STACK CFI INIT 21c04 1b8 .cfa: sp 0 +
STACK CFI 21c08 .cfa: sp 128 +
STACK CFI 21c18 .cfa: x29 48 + x19: .cfa -8 + ^ x20: .cfa -16 + ^ x21: .cfa -32 + ^ .ra: .cfa -40 + ^ x29: .cfa -48 + ^
STACK CFI 21da4 .cfa: sp 128 +
STACK CFI 21db4 .cfa: sp 0 +
STACK CFI 21db8 .cfa: x29 48 +
STACK CFI INIT 21dbc 200 .cfa: sp 0 +
STACK CFI INIT 22128 ac .cfa: sp 0 +
STACK CFI 2212c .cfa: sp 64 +
STACK CFI 2213c .cfa: x29 64 + x19: .cfa -8 + ^ x20: .cfa -16 + ^ x21: .cfa -24 + ^ x22: .cfa -32 + ^ x23: .cfa -48 + ^ .ra: .cfa -56 + ^ x29: .cfa -64 + ^
STACK CFI 221b8 .cfa: sp 64 +
STACK CFI 221c8 .cfa: sp 0 +
STACK CFI 221cc .cfa: x29 64 +
STACK CFI INIT 221d4 110 .cfa: sp 0 +
STACK CFI 221d8 .cfa: sp 64 +
STACK CFI 221e8 .cfa: x29 64 + x19: .cfa -8 + ^ x20: .cfa -16 + ^ x21: .cfa -24 + ^ x22: .cfa -32 + ^ x23: .cfa -40 + ^ x24: .cfa -48 + ^ .ra: .cfa -56 + ^ x29: .cfa -64 + ^
STACK CFI 222c8 .cfa: sp 64 +
STACK CFI 222d8 .cfa: sp 0 +
STACK CFI 222dc .cfa: x29 64 +
STACK CFI INIT 222e4 140 .cfa: sp 0 +
STACK CFI 222e8 .cfa: sp 128 +
STACK CFI 222f8 .cfa: x29 48 + x19: .cfa -8 + ^ x20: .cfa -16 + ^ x21: .cfa -32 + ^ .ra: .cfa -40 + ^ x29: .cfa -48 + ^
STACK CFI 223c0 .cfa: sp 128 +
STACK CFI 223d0 .cfa: sp 0 +
STACK CFI 223d4 .cfa: x29 48 +
STACK CFI INIT 22424 200 .cfa: sp 0 +
STACK CFI INIT 22624 1b0 .cfa: sp 0 +
STACK CFI 22628 .cfa: sp 112 +
STACK CFI 22640 .cfa: x29 80 + x19: .cfa -8 + ^ x20: .cfa -16 + ^ x21: .cfa -24 + ^ x22: .cfa -32 + ^ x23: .cfa -40 + ^ x24: .cfa -48 + ^ x25: .cfa -64 + ^ .ra: .cfa -72 + ^ x29: .cfa -80 + ^
STACK CFI 2279c .cfa: sp 112 +
STACK CFI 227b4 .cfa: sp 0 +
STACK CFI 227b8 .cfa: x29 80 +
STACK CFI INIT 227d4 120 .cfa: sp 0 +
STACK CFI 227d8 .cfa: sp 64 +
STACK CFI 227e8 .cfa: x29 64 + x19: .cfa -8 + ^ x20: .cfa -16 + ^ x21: .cfa -24 + ^ x22: .cfa -32 + ^ x23: .cfa -40 + ^ x24: .cfa -48 + ^ .ra: .cfa -56 + ^ x29: .cfa -64 + ^
STACK CFI 228e0 .cfa: sp 64 +
STACK CFI 228f0 .cfa: sp 0 +
STACK CFI INIT 22d74 1c .cfa: sp 0 +
STACK CFI INIT 23110 4 .cfa: sp 0 +
STACK CFI INIT 23728 1c .cfa: sp 0 +
STACK CFI INIT 23d44 4 .cfa: sp 0 +
STACK CFI INIT 262d4 90 .cfa: sp 0 +
STACK CFI 262d8 .cfa: sp 32 +
STACK CFI 262e0 .cfa: x29 32 + x19: .cfa -16 + ^ .ra: .cfa -24 + ^ x29: .cfa -32 + ^
STACK CFI 26358 .cfa: sp 32 +
STACK CFI 26360 .cfa: sp 0 +
STACK CFI INIT 264a0 104 .cfa: sp 0 +
STACK CFI 264a4 .cfa: sp 80 +
STACK CFI 264b8 .cfa: x29 80 + x19: .cfa -8 + ^ x20: .cfa -16 + ^ x21: .cfa -24 + ^ x22: .cfa -32 + ^ x23: .cfa -40 + ^ x24: .cfa -48 + ^ x25: .cfa -56 + ^ x26: .cfa -64 + ^ .ra: .cfa -72 + ^ x29: .cfa -80 + ^
STACK CFI 26584 .cfa: sp 80 +
STACK CFI 26598 .cfa: sp 0 +
STACK CFI 2659c .cfa: x29 80 +
STACK CFI INIT 265a4 ac .cfa: sp 0 +
STACK CFI 265a8 .cfa: sp 96 +
STACK CFI 265bc .cfa: x29 64 + x19: .cfa -8 + ^ x20: .cfa -16 + ^ x21: .cfa -24 + ^ x22: .cfa -32 + ^ x23: .cfa -48 + ^ .ra: .cfa -56 + ^ x29: .cfa -64 + ^
STACK CFI 26634 .cfa: sp 96 +
STACK CFI 26648 .cfa: sp 0 +
STACK CFI 2664c .cfa: x29 64 +
STACK CFI INIT 26de8 1c .cfa: sp 0 +
STACK CFI INIT 27184 4 .cfa: sp 0 +
STACK CFI INIT 27188 c0 .cfa: sp 0 +
STACK CFI 2718c .cfa: sp 48 +
STACK CFI 27198 .cfa: x29 32 + x19: .cfa -8 + ^ x20: .cfa -16 + ^ .ra: .cfa -24 + ^ x29: .cfa -32 + ^ v8: .cfa -48 + ^
STACK CFI 27238 .cfa: sp 48 +
STACK CFI 27244 .cfa: sp 0 +
STACK CFI INIT 272f0 84 .cfa: sp 0 +
STACK CFI 272f4 .cfa: sp 32 +
STACK CFI 272fc .cfa: x29 32 + x19: .cfa -16 + ^ .ra: .cfa -24 + ^ x29: .cfa -32 + ^
STACK CFI 27368 .cfa: sp 32 +
STACK CFI 27370 .cfa: sp 0 +
STACK CFI INIT 28e8c 50 .cfa: sp 0 +
STACK CFI 28e90 .cfa: sp 32 +
STACK CFI 28e98 .cfa: x29 32 + x19: .cfa -8 + ^ x20: .cfa -16 + ^ .ra: .cfa -24 + ^ x29: .cfa -32 + ^
STACK CFI 28ed0 .cfa: sp 32 +
STACK CFI 28ed8 .cfa: sp 0 +
STACK CFI INIT 28edc 50 .cfa: sp 0 +
STACK CFI 28ee0 .cfa: sp 32 +
STACK CFI 28ee8 .cfa: x29 32 + x19: .cfa -16 + ^ .ra: .cfa -24 + ^ x29: .cfa -32 + ^
STACK CFI 28f00 .cfa: sp 32 +
STACK CFI 28f08 .cfa: sp 0 +
STACK CFI 28f0c .cfa: x29 32 +
STACK CFI 28f20 .cfa: sp 32 +
STACK CFI 28f28 .cfa: sp 0 +
STACK CFI INIT 28f2c 50 .cfa: sp 0 +
STACK CFI 28f30 .cfa: sp 32 +
STACK CFI 28f38 .cfa: x29 32 + x19: .cfa -16 + ^ .ra: .cfa -24 + ^ x29: .cfa -32 + ^
STACK CFI 28f50 .cfa: sp 32 +
STACK CFI 28f58 .cfa: sp 0 +
STACK CFI 28f5c .cfa: x29 32 +
STACK CFI 28f70 .cfa: sp 32 +
STACK CFI 28f78 .cfa: sp 0 +
STACK CFI INIT 28f7c 10 .cfa: sp 0 +
STACK CFI INIT 28f8c 30 .cfa: sp 0 +
STACK CFI 28f90 .cfa: sp 32 +
STACK CFI 28f98 .cfa: x29 32 + x19: .cfa -16 + ^ .ra: .cfa -24 + ^ x29: .cfa -32 + ^
STACK CFI 28fb0 .cfa: sp 32 +
STACK CFI 28fb8 .cfa: sp 0 +
STACK CFI INIT 28fbc c .cfa: sp 0 +
STACK CFI INIT 28fc8 4 .cfa: sp 0 +
STACK CFI INIT 28fcc 4 .cfa: sp 0 +
STACK CFI INIT 28fd0 4 .cfa: sp 0 +
STACK CFI INIT 28fd4 34 .cfa: sp 0 +
STACK CFI 28fd8 .cfa: sp 32 +
STACK CFI 28fe0 .cfa: x29 32 + x19: .cfa -16 + ^ .ra: .cfa -24 + ^ x29: .cfa -32 + ^
STACK CFI 28ffc .cfa: sp 32 +
STACK CFI 29004 .cfa: sp 0 +
STACK CFI INIT 29008 14 .cfa: sp 0 +
STACK CFI INIT 2901c 4 .cfa: sp 0 +
STACK CFI INIT 29020 4 .cfa: sp 0 +
STACK CFI INIT 29024 14 .cfa: sp 0 +
STACK CFI INIT 29038 1c .cfa: sp 0 +
STACK CFI INIT 29054 c .cfa: sp 0 +
STACK CFI INIT 29060 4 .cfa: sp 0 +
STACK CFI INIT 29064 14 .cfa: sp 0 +
STACK CFI INIT 29d50 50 .cfa: sp 0 +
STACK CFI 29d54 .cfa: sp 32 +
STACK CFI 29d5c .cfa: x29 32 + x19: .cfa -16 + ^ .ra: .cfa -24 + ^ x29: .cfa -32 + ^
STACK CFI 29d74 .cfa: sp 32 +
STACK CFI 29d7c .cfa: sp 0 +
STACK CFI 29d80 .cfa: x29 32 +
STACK CFI 29d94 .cfa: sp 32 +
STACK CFI 29d9c .cfa: sp 0 +
STACK CFI INIT 29e14 4 .cfa: sp 0 +
STACK CFI INIT 29e18 14 .cfa: sp 0 +
STACK CFI INIT 29e2c 4 .cfa: sp 0 +
STACK CFI INIT 29e30 14 .cfa: sp 0 +
STACK CFI INIT 2abb0 50 .cfa: sp 0 +
STACK CFI 2abb4 .cfa: sp 32 +
STACK CFI 2abbc .cfa: x29 32 + x19: .cfa -16 + ^ .ra: .cfa -24 + ^ x29: .cfa -32 + ^
STACK CFI 2abd4 .cfa: sp 32 +
STACK CFI 2abdc .cfa: sp 0 +
STACK CFI 2abe0 .cfa: x29 32 +
STACK CFI 2abf4 .cfa: sp 32 +
STACK CFI 2abfc .cfa: sp 0 +
STACK CFI INIT 2ac00 4 .cfa: sp 0 +
STACK CFI INIT 2ac04 38 .cfa: sp 0 +
STACK CFI 2ac08 .cfa: sp 32 +
STACK CFI 2ac10 .cfa: x29 32 + x19: .cfa -16 + ^ .ra: .cfa -24 + ^ x29: .cfa -32 + ^
STACK CFI 2ac30 .cfa: sp 32 +
STACK CFI 2ac38 .cfa: sp 0 +
STACK CFI INIT 2ac3c 18 .cfa: sp 0 +
STACK CFI INIT 2ac54 4 .cfa: sp 0 +
STACK CFI INIT 2ac58 4 .cfa: sp 0 +
STACK CFI INIT 2adbc 1c .cfa: sp 0 +
STACK CFI INIT 2add8 c .cfa: sp 0 +
STACK CFI INIT 2af70 4 .cfa: sp 0 +
STACK CFI INIT 2b0e8 9c .cfa: sp 0 +
STACK CFI 2b0ec .cfa: sp 32 +
STACK CFI 2b0f4 .cfa: x29 32 + x19: .cfa -8 + ^ x20: .cfa -16 + ^ .ra: .cfa -24 + ^ x29: .cfa -32 + ^
STACK CFI 2b178 .cfa: sp 32 +
STACK CFI 2b180 .cfa: sp 0 +
STACK CFI INIT 2b184 a4 .cfa: sp 0 +
STACK CFI 2b188 .cfa: sp 32 +
STACK CFI 2b190 .cfa: x29 32 + x19: .cfa -8 + ^ x20: .cfa -16 + ^ .ra: .cfa -24 + ^ x29: .cfa -32 + ^
STACK CFI 2b21c .cfa: sp 32 +
STACK CFI 2b224 .cfa: sp 0 +
STACK CFI INIT 2b228 4 .cfa: sp 0 +
STACK CFI INIT 2b22c 38 .cfa: sp 0 +
STACK CFI 2b230 .cfa: sp 32 +
STACK CFI 2b238 .cfa: x29 32 + x19: .cfa -16 + ^ .ra: .cfa -24 + ^ x29: .cfa -32 + ^
STACK CFI 2b258 .cfa: sp 32 +
STACK CFI 2b260 .cfa: sp 0 +
STACK CFI INIT 2b264 18 .cfa: sp 0 +
STACK CFI INIT 2b27c 4 .cfa: sp 0 +
STACK CFI INIT 2b280 4 .cfa: sp 0 +
STACK CFI INIT 2b3e4 1c .cfa: sp 0 +
STACK CFI INIT 2b400 c .cfa: sp 0 +
STACK CFI INIT 2b40c 4 .cfa: sp 0 +
STACK CFI INIT 2b410 38 .cfa: sp 0 +
STACK CFI 2b414 .cfa: sp 32 +
STACK CFI 2b41c .cfa: x29 32 + x19: .cfa -16 + ^ .ra: .cfa -24 + ^ x29: .cfa -32 + ^
STACK CFI 2b43c .cfa: sp 32 +
STACK CFI 2b444 .cfa: sp 0 +
STACK CFI INIT 2b448 18 .cfa: sp 0 +
STACK CFI INIT 2b460 4 .cfa: sp 0 +
STACK CFI INIT 2b464 4 .cfa: sp 0 +
STACK CFI INIT 2b5c8 1c .cfa: sp 0 +
STACK CFI INIT 2b5e4 c .cfa: sp 0 +
STACK CFI INIT 2b5f0 4 .cfa: sp 0 +
STACK CFI INIT 2b5f4 4 .cfa: sp 0 +
STACK CFI INIT 2b5f8 38 .cfa: sp 0 +
STACK CFI 2b5fc .cfa: sp 32 +
STACK CFI 2b604 .cfa: x29 32 + x19: .cfa -16 + ^ .ra: .cfa -24 + ^ x29: .cfa -32 + ^
STACK CFI 2b624 .cfa: sp 32 +
STACK CFI 2b62c .cfa: sp 0 +
STACK CFI INIT 2b630 18 .cfa: sp 0 +
STACK CFI INIT 2b648 4 .cfa: sp 0 +
STACK CFI INIT 2b64c 4 .cfa: sp 0 +
STACK CFI INIT 2b7b0 1c .cfa: sp 0 +
STACK CFI INIT 2b7cc c .cfa: sp 0 +
STACK CFI INIT 2b7d8 4 .cfa: sp 0 +
STACK CFI INIT 2b950 5c .cfa: sp 0 +
STACK CFI 2b954 .cfa: sp 32 +
STACK CFI 2b95c .cfa: x29 32 + x19: .cfa -16 + ^ .ra: .cfa -24 + ^ x29: .cfa -32 + ^
STACK CFI 2b9a0 .cfa: sp 32 +
STACK CFI 2b9a8 .cfa: sp 0 +
STACK CFI INIT 2b9ac 64 .cfa: sp 0 +
STACK CFI 2b9b0 .cfa: sp 32 +
STACK CFI 2b9b8 .cfa: x29 32 + x19: .cfa -16 + ^ .ra: .cfa -24 + ^ x29: .cfa -32 + ^
STACK CFI 2ba04 .cfa: sp 32 +
STACK CFI 2ba0c .cfa: sp 0 +
STACK CFI INIT 2ba10 4 .cfa: sp 0 +
STACK CFI INIT 2ba14 4 .cfa: sp 0 +
STACK CFI INIT 2ba18 34 .cfa: sp 0 +
STACK CFI 2ba1c .cfa: sp 32 +
STACK CFI 2ba24 .cfa: x29 32 + x19: .cfa -16 + ^ .ra: .cfa -24 + ^ x29: .cfa -32 + ^
STACK CFI 2ba40 .cfa: sp 32 +
STACK CFI 2ba48 .cfa: sp 0 +
STACK CFI INIT 2ba4c 14 .cfa: sp 0 +
STACK CFI INIT 2ba60 4 .cfa: sp 0 +
STACK CFI INIT 2ba64 4 .cfa: sp 0 +
STACK CFI INIT 2ba68 10 .cfa: sp 0 +
STACK CFI INIT 2ba78 1c .cfa: sp 0 +
STACK CFI INIT 2ba94 c .cfa: sp 0 +
STACK CFI INIT 2c200 24 .cfa: sp 0 +
STACK CFI 2c204 .cfa: sp 32 +
STACK CFI 2c20c .cfa: x29 32 + x19: .cfa -16 + ^ .ra: .cfa -24 + ^ x29: .cfa -32 + ^
STACK CFI 2c218 .cfa: sp 32 +
STACK CFI 2c220 .cfa: sp 0 +
STACK CFI INIT 2c224 8 .cfa: sp 0 +
STACK CFI INIT 2c22c 8 .cfa: sp 0 +
STACK CFI INIT 2c234 8 .cfa: sp 0 +
STACK CFI INIT 2c23c 4 .cfa: sp 0 +
STACK CFI INIT 2c240 8 .cfa: sp 0 +
STACK CFI INIT 2c248 bc .cfa: sp 0 +
STACK CFI 2c24c .cfa: sp 32 +
STACK CFI 2c254 .cfa: x29 32 + x19: .cfa -8 + ^ x20: .cfa -16 + ^ .ra: .cfa -24 + ^ x29: .cfa -32 + ^
STACK CFI 2c290 .cfa: sp 32 +
STACK CFI 2c298 .cfa: sp 0 +
STACK CFI 2c29c .cfa: x29 32 +
STACK CFI 2c2f8 .cfa: sp 32 +
STACK CFI 2c300 .cfa: sp 0 +
STACK CFI INIT 2c304 cc .cfa: sp 0 +
STACK CFI 2c308 .cfa: sp 32 +
STACK CFI 2c310 .cfa: x29 32 + x19: .cfa -8 + ^ x20: .cfa -16 + ^ .ra: .cfa -24 + ^ x29: .cfa -32 + ^
STACK CFI 2c354 .cfa: sp 32 +
STACK CFI 2c35c .cfa: sp 0 +
STACK CFI 2c360 .cfa: x29 32 +
STACK CFI 2c3c4 .cfa: sp 32 +
STACK CFI 2c3cc .cfa: sp 0 +
STACK CFI INIT 2c3d0 4 .cfa: sp 0 +
STACK CFI INIT 2c3d4 4 .cfa: sp 0 +
STACK CFI INIT 2c3d8 8 .cfa: sp 0 +
STACK CFI INIT 2c3e0 8 .cfa: sp 0 +
STACK CFI INIT 2c598 34 .cfa: sp 0 +
STACK CFI 2c59c .cfa: sp 16 +
STACK CFI 2c5a0 .cfa: x29 16 + .ra: .cfa -8 + ^ x29: .cfa -16 + ^
STACK CFI INIT 2c5cc 34 .cfa: sp 0 +
STACK CFI 2c5d0 .cfa: sp 16 +
STACK CFI 2c5d4 .cfa: x29 16 + .ra: .cfa -8 + ^ x29: .cfa -16 + ^
STACK CFI INIT 2c600 3c .cfa: sp 0 +
STACK CFI 2c604 .cfa: sp 32 +
STACK CFI 2c60c .cfa: x29 32 + x19: .cfa -16 + ^ .ra: .cfa -24 + ^ x29: .cfa -32 + ^
STACK CFI 2c618 .cfa: sp 32 +
STACK CFI 2c620 .cfa: sp 0 +
STACK CFI 2c624 .cfa: x29 32 +
STACK CFI 2c630 .cfa: sp 32 +
STACK CFI 2c638 .cfa: sp 0 +
STACK CFI INIT 2c63c 4c .cfa: sp 0 +
STACK CFI 2c640 .cfa: sp 32 +
STACK CFI 2c648 .cfa: x29 32 + x19: .cfa -8 + ^ x20: .cfa -16 + ^ .ra: .cfa -24 + ^ x29: .cfa -32 + ^
STACK CFI 2c670 .cfa: sp 32 +
STACK CFI 2c678 .cfa: sp 0 +
STACK CFI 2c67c .cfa: sp 32 +
STACK CFI 2c684 .cfa: sp 0 +
STACK CFI INIT 2c8a8 64 .cfa: sp 0 +
STACK CFI 2c8ac .cfa: sp 32 +
STACK CFI 2c8b4 .cfa: x29 32 + x19: .cfa -16 + ^ .ra: .cfa -24 + ^ x29: .cfa -32 + ^
STACK CFI 2c8e0 .cfa: sp 32 +
STACK CFI 2c8e8 .cfa: sp 0 +
STACK CFI 2c8ec .cfa: x29 32 +
STACK CFI 2c900 .cfa: sp 32 +
STACK CFI 2c908 .cfa: sp 0 +
STACK CFI INIT 2c90c 24 .cfa: sp 0 +
STACK CFI 2c910 .cfa: sp 32 +
STACK CFI 2c918 .cfa: x29 32 + x19: .cfa -16 + ^ .ra: .cfa -24 + ^ x29: .cfa -32 + ^
STACK CFI 2c924 .cfa: sp 32 +
STACK CFI 2c92c .cfa: sp 0 +
STACK CFI INIT 2cb8c 24 .cfa: sp 0 +
STACK CFI 2cb90 .cfa: sp 32 +
STACK CFI 2cb98 .cfa: x29 32 + x19: .cfa -16 + ^ .ra: .cfa -24 + ^ x29: .cfa -32 + ^
STACK CFI 2cba4 .cfa: sp 32 +
STACK CFI 2cbac .cfa: sp 0 +
STACK CFI INIT 2ced4 4 .cfa: sp 0 +
STACK CFI INIT 2d928 4 .cfa: sp 0 +
STACK CFI INIT 2d92c 14 .cfa: sp 0 +
STACK CFI INIT 2de4c c .cfa: sp 0 +
STACK CFI INIT 2de58 24c .cfa: sp 0 +
STACK CFI INIT 2e0a4 a0 .cfa: sp 0 +
STACK CFI 2e0b0 .cfa: sp 32 +
STACK CFI 2e108 .cfa: sp 0 +
STACK CFI 2e10c .cfa: sp 32 +
STACK CFI 2e114 .cfa: sp 0 +
STACK CFI 2e118 .cfa: sp 32 +
STACK CFI 2e12c .cfa: sp 0 +
STACK CFI 2e130 .cfa: sp 32 +
STACK CFI 2e140 .cfa: sp 0 +
STACK CFI INIT 2e144 38 .cfa: sp 0 +
STACK CFI 2e150 .cfa: sp 32 +
STACK CFI 2e178 .cfa: sp 0 +
STACK CFI INIT 2e410 7c .cfa: sp 0 +
STACK CFI 2e414 .cfa: sp 32 +
STACK CFI 2e41c .cfa: x29 32 + x19: .cfa -16 + ^ .ra: .cfa -24 + ^ x29: .cfa -32 + ^
STACK CFI 2e448 .cfa: sp 32 +
STACK CFI 2e450 .cfa: sp 0 +
STACK CFI 2e454 .cfa: x29 32 +
STACK CFI 2e480 .cfa: sp 32 +
STACK CFI 2e488 .cfa: sp 0 +
STACK CFI INIT 2e4dc 2c .cfa: sp 0 +
STACK CFI 2e4e0 .cfa: sp 32 +
STACK CFI 2e4e8 .cfa: x29 32 + x19: .cfa -16 + ^ .ra: .cfa -24 + ^ x29: .cfa -32 + ^
STACK CFI 2e4fc .cfa: sp 32 +
STACK CFI 2e504 .cfa: sp 0 +
STACK CFI INIT 2ecc8 64 .cfa: sp 0 +
STACK CFI 2eccc .cfa: sp 32 +
STACK CFI 2ecd4 .cfa: x29 32 + x19: .cfa -16 + ^ .ra: .cfa -24 + ^ x29: .cfa -32 + ^
STACK CFI 2ecf0 .cfa: sp 32 +
STACK CFI 2ecf8 .cfa: sp 0 +
STACK CFI 2ecfc .cfa: x29 32 +
STACK CFI 2ed20 .cfa: sp 32 +
STACK CFI 2ed28 .cfa: sp 0 +
STACK CFI INIT 2ee68 570 .cfa: sp 0 +
STACK CFI 2ee6c .cfa: sp 176 +
STACK CFI 2ee80 .cfa: x29 64 + x19: .cfa -8 + ^ x20: .cfa -16 + ^ x21: .cfa -24 + ^ x22: .cfa -32 + ^ x23: .cfa -40 + ^ x24: .cfa -48 + ^ .ra: .cfa -56 + ^ x29: .cfa -64 + ^
STACK CFI 2f0b0 .cfa: sp 176 +
STACK CFI 2f0c4 .cfa: sp 0 +
STACK CFI 2f0c8 .cfa: x29 64 +
STACK CFI 2f114 .cfa: sp 176 +
STACK CFI 2f128 .cfa: sp 0 +
STACK CFI 2f12c .cfa: x29 64 +
STACK CFI 2f164 .cfa: sp 176 +
STACK CFI 2f178 .cfa: sp 0 +
STACK CFI 2f17c .cfa: x29 64 +
STACK CFI 2f194 .cfa: sp 176 +
STACK CFI 2f1a8 .cfa: sp 0 +
STACK CFI 2f1ac .cfa: x29 64 +
STACK CFI 2f1cc .cfa: sp 176 +
STACK CFI 2f1e0 .cfa: sp 0 +
STACK CFI 2f1e4 .cfa: x29 64 +
STACK CFI 2f1fc .cfa: sp 176 +
STACK CFI 2f210 .cfa: sp 0 +
STACK CFI 2f214 .cfa: x29 64 +
STACK CFI 2f228 .cfa: sp 176 +
STACK CFI 2f23c .cfa: sp 0 +
STACK CFI 2f240 .cfa: x29 64 +
STACK CFI 2f254 .cfa: sp 176 +
STACK CFI 2f268 .cfa: sp 0 +
STACK CFI 2f26c .cfa: x29 64 +
STACK CFI 2f27c .cfa: sp 176 +
STACK CFI 2f290 .cfa: sp 0 +
STACK CFI 2f294 .cfa: x29 64 +
STACK CFI 2f2a4 .cfa: sp 176 +
STACK CFI 2f2b8 .cfa: sp 0 +
STACK CFI 2f2bc .cfa: x29 64 +
STACK CFI 2f2d4 .cfa: sp 176 +
STACK CFI 2f2e8 .cfa: sp 0 +
STACK CFI 2f2ec .cfa: x29 64 +
STACK CFI 2f300 .cfa: sp 176 +
STACK CFI 2f314 .cfa: sp 0 +
STACK CFI 2f318 .cfa: x29 64 +
STACK CFI 2f330 .cfa: sp 176 +
STACK CFI 2f344 .cfa: sp 0 +
STACK CFI 2f348 .cfa: x29 64 +
STACK CFI 2f374 .cfa: sp 176 +
STACK CFI 2f388 .cfa: sp 0 +
STACK CFI 2f38c .cfa: x29 64 +
STACK CFI 2f3a0 .cfa: sp 176 +
STACK CFI 2f3b4 .cfa: sp 0 +
STACK CFI 2f3b8 .cfa: x29 64 +
STACK CFI INIT 2f3d8 228 .cfa: sp 0 +
STACK CFI INIT 2f600 2dc .cfa: sp 0 +
STACK CFI INIT 2f8dc 53c .cfa: sp 0 +
STACK CFI INIT 2fe18 78 .cfa: sp 0 +
STACK CFI 2fe1c .cfa: sp 48 +
STACK CFI 2fe28 .cfa: x29 48 + x19: .cfa -8 + ^ x20: .cfa -16 + ^ x21: .cfa -24 + ^ x22: .cfa -32 + ^ .ra: .cfa -40 + ^ x29: .cfa -48 + ^
STACK CFI 2fe70 .cfa: sp 48 +
STACK CFI 2fe7c .cfa: sp 0 +
STACK CFI 2fe80 .cfa: sp 48 +
STACK CFI 2fe8c .cfa: sp 0 +
STACK CFI INIT 2fe90 8c .cfa: sp 0 +
STACK CFI 2fe94 .cfa: sp 32 +
STACK CFI 2fe9c .cfa: x29 32 + x19: .cfa -16 + ^ .ra: .cfa -24 + ^ x29: .cfa -32 + ^
STACK CFI 2fed0 .cfa: sp 32 +
STACK CFI 2fed8 .cfa: sp 0 +
STACK CFI 2fedc .cfa: x29 32 +
STACK CFI 2ff10 .cfa: sp 32 +
STACK CFI 2ff18 .cfa: sp 0 +
STACK CFI INIT 2ff1c 24 .cfa: sp 0 +
STACK CFI 2ff20 .cfa: sp 32 +
STACK CFI 2ff28 .cfa: x29 32 + x19: .cfa -16 + ^ .ra: .cfa -24 + ^ x29: .cfa -32 + ^
STACK CFI 2ff34 .cfa: sp 32 +
STACK CFI 2ff3c .cfa: sp 0 +
STACK CFI INIT 2ff40 150 .cfa: sp 0 +
STACK CFI 2ff44 .cfa: sp 48 +
STACK CFI 2ff50 .cfa: x29 48 + x19: .cfa -8 + ^ x20: .cfa -16 + ^ x21: .cfa -24 + ^ x22: .cfa -32 + ^ .ra: .cfa -40 + ^ x29: .cfa -48 + ^
STACK CFI 30080 .cfa: sp 48 +
STACK CFI 3008c .cfa: sp 0 +
STACK CFI INIT 30090 68 .cfa: sp 0 +
STACK CFI 30094 .cfa: sp 64 +
STACK CFI 300a0 .cfa: x29 32 + x19: .cfa -16 + ^ .ra: .cfa -24 + ^ x29: .cfa -32 + ^
STACK CFI 300e4 .cfa: sp 64 +
STACK CFI 300f0 .cfa: sp 0 +
STACK CFI 300f4 .cfa: x29 32 +
STACK CFI INIT 300f8 90 .cfa: sp 0 +
STACK CFI 300fc .cfa: sp 32 +
STACK CFI 30104 .cfa: x29 32 + x19: .cfa -8 + ^ x20: .cfa -16 + ^ .ra: .cfa -24 + ^ x29: .cfa -32 + ^
STACK CFI 30130 .cfa: sp 32 +
STACK CFI 30138 .cfa: sp 0 +
STACK CFI 3013c .cfa: x29 32 +
STACK CFI 3017c .cfa: sp 32 +
STACK CFI 30184 .cfa: sp 0 +
STACK CFI INIT 30188 ec .cfa: sp 0 +
STACK CFI 3018c .cfa: sp 112 +
STACK CFI 3019c .cfa: x29 48 + x19: .cfa -8 + ^ x20: .cfa -16 + ^ x21: .cfa -32 + ^ .ra: .cfa -40 + ^ x29: .cfa -48 + ^
STACK CFI 3025c .cfa: sp 112 +
STACK CFI 3026c .cfa: sp 0 +
STACK CFI 30270 .cfa: x29 48 +
STACK CFI INIT 30274 ec .cfa: sp 0 +
STACK CFI 30278 .cfa: sp 112 +
STACK CFI 30288 .cfa: x29 48 + x19: .cfa -8 + ^ x20: .cfa -16 + ^ x21: .cfa -32 + ^ .ra: .cfa -40 + ^ x29: .cfa -48 + ^
STACK CFI 30348 .cfa: sp 112 +
STACK CFI 30358 .cfa: sp 0 +
STACK CFI 3035c .cfa: x29 48 +
STACK CFI INIT 30360 48 .cfa: sp 0 +
STACK CFI 30364 .cfa: sp 32 +
STACK CFI 3036c .cfa: x29 32 + x19: .cfa -8 + ^ x20: .cfa -16 + ^ .ra: .cfa -24 + ^ x29: .cfa -32 + ^
STACK CFI 30390 .cfa: sp 32 +
STACK CFI 30398 .cfa: sp 0 +
STACK CFI 3039c .cfa: x29 32 +
STACK CFI INIT 303a8 98 .cfa: sp 0 +
STACK CFI 303ac .cfa: sp 80 +
STACK CFI 303b8 .cfa: x29 32 + x19: .cfa -16 + ^ .ra: .cfa -24 + ^ x29: .cfa -32 + ^
STACK CFI 3042c .cfa: sp 80 +
STACK CFI 30438 .cfa: sp 0 +
STACK CFI 3043c .cfa: x29 32 +
STACK CFI INIT 30440 260 .cfa: sp 0 +
STACK CFI 30444 .cfa: sp 112 +
STACK CFI 3045c .cfa: x29 80 + x19: .cfa -8 + ^ x20: .cfa -16 + ^ x21: .cfa -24 + ^ x22: .cfa -32 + ^ x23: .cfa -40 + ^ x24: .cfa -48 + ^ x25: .cfa -64 + ^ .ra: .cfa -72 + ^ x29: .cfa -80 + ^
STACK CFI 30640 .cfa: sp 112 +
STACK CFI 30658 .cfa: sp 0 +
STACK CFI 3065c .cfa: x29 80 +
STACK CFI INIT 306a0 150 .cfa: sp 0 +
STACK CFI 306a4 .cfa: sp 48 +
STACK CFI 306b0 .cfa: x29 48 + x19: .cfa -8 + ^ x20: .cfa -16 + ^ x21: .cfa -24 + ^ x22: .cfa -32 + ^ .ra: .cfa -40 + ^ x29: .cfa -48 + ^
STACK CFI 307e0 .cfa: sp 48 +
STACK CFI 307ec .cfa: sp 0 +
STACK CFI INIT 307f0 1e0 .cfa: sp 0 +
STACK CFI 307f4 .cfa: sp 96 +
STACK CFI 30808 .cfa: x29 64 + x19: .cfa -8 + ^ x20: .cfa -16 + ^ x21: .cfa -24 + ^ x22: .cfa -32 + ^ x23: .cfa -40 + ^ x24: .cfa -48 + ^ .ra: .cfa -56 + ^ x29: .cfa -64 + ^
STACK CFI 30988 .cfa: sp 96 +
STACK CFI 3099c .cfa: sp 0 +
STACK CFI 309a0 .cfa: x29 64 +
STACK CFI INIT 309d0 284 .cfa: sp 0 +
STACK CFI 309d4 .cfa: sp 112 +
STACK CFI 309ec .cfa: x29 80 + x19: .cfa -8 + ^ x20: .cfa -16 + ^ x21: .cfa -24 + ^ x22: .cfa -32 + ^ x23: .cfa -40 + ^ x24: .cfa -48 + ^ x25: .cfa -64 + ^ .ra: .cfa -72 + ^ x29: .cfa -80 + ^
STACK CFI 30bf4 .cfa: sp 112 +
STACK CFI 30c0c .cfa: sp 0 +
STACK CFI 30c10 .cfa: x29 80 +
STACK CFI INIT 30c54 208 .cfa: sp 0 +
STACK CFI 30c58 .cfa: sp 96 +
STACK CFI 30c6c .cfa: x29 64 + x19: .cfa -8 + ^ x20: .cfa -16 + ^ x21: .cfa -24 + ^ x22: .cfa -32 + ^ x23: .cfa -40 + ^ x24: .cfa -48 + ^ .ra: .cfa -56 + ^ x29: .cfa -64 + ^
STACK CFI 30e14 .cfa: sp 96 +
STACK CFI 30e28 .cfa: sp 0 +
STACK CFI 30e2c .cfa: x29 64 +
STACK CFI INIT 30e5c 360 .cfa: sp 0 +
STACK CFI 30e60 .cfa: sp 160 +
STACK CFI 30e7c .cfa: x29 96 + x19: .cfa -8 + ^ x20: .cfa -16 + ^ x21: .cfa -24 + ^ x22: .cfa -32 + ^ x23: .cfa -40 + ^ x24: .cfa -48 + ^ x25: .cfa -56 + ^ x26: .cfa -64 + ^ x27: .cfa -72 + ^ x28: .cfa -80 + ^ .ra: .cfa -88 + ^ x29: .cfa -96 + ^
STACK CFI 31148 .cfa: sp 160 +
STACK CFI 31164 .cfa: sp 0 +
STACK CFI 31168 .cfa: x29 96 +
STACK CFI INIT 311bc 314 .cfa: sp 0 +
STACK CFI 311c0 .cfa: sp 144 +
STACK CFI 311dc .cfa: x29 96 + x19: .cfa -8 + ^ x20: .cfa -16 + ^ x21: .cfa -24 + ^ x22: .cfa -32 + ^ x23: .cfa -40 + ^ x24: .cfa -48 + ^ x25: .cfa -56 + ^ x26: .cfa -64 + ^ x27: .cfa -72 + ^ x28: .cfa -80 + ^ .ra: .cfa -88 + ^ x29: .cfa -96 + ^
STACK CFI 31458 .cfa: sp 144 +
STACK CFI 31474 .cfa: sp 0 +
STACK CFI 31478 .cfa: x29 96 +
STACK CFI INIT 314d0 290 .cfa: sp 0 +
STACK CFI 314d4 .cfa: sp 128 +
STACK CFI 314ec .cfa: x29 80 + x19: .cfa -8 + ^ x20: .cfa -16 + ^ x21: .cfa -24 + ^ x22: .cfa -32 + ^ x23: .cfa -40 + ^ x24: .cfa -48 + ^ x25: .cfa -56 + ^ x26: .cfa -64 + ^ .ra: .cfa -72 + ^ x29: .cfa -80 + ^
STACK CFI 31740 .cfa: sp 128 +
STACK CFI 31758 .cfa: sp 0 +
STACK CFI 3175c .cfa: x29 80 +
STACK CFI INIT 31760 ddc .cfa: sp 0 +
STACK CFI 31764 .cfa: sp 144 +
STACK CFI 31780 .cfa: x29 96 + x19: .cfa -8 + ^ x20: .cfa -16 + ^ x21: .cfa -24 + ^ x22: .cfa -32 + ^ x23: .cfa -40 + ^ x24: .cfa -48 + ^ x25: .cfa -56 + ^ x26: .cfa -64 + ^ x27: .cfa -72 + ^ x28: .cfa -80 + ^ .ra: .cfa -88 + ^ x29: .cfa -96 + ^
STACK CFI 32414 .cfa: sp 144 +
STACK CFI 32430 .cfa: sp 0 +
STACK CFI 32434 .cfa: x29 96 +
STACK CFI INIT 3253c 1d0 .cfa: sp 0 +
STACK CFI 32540 .cfa: sp 80 +
STACK CFI 32554 .cfa: x29 80 + x19: .cfa -8 + ^ x20: .cfa -16 + ^ x21: .cfa -24 + ^ x22: .cfa -32 + ^ x23: .cfa -40 + ^ x24: .cfa -48 + ^ x25: .cfa -64 + ^ .ra: .cfa -72 + ^ x29: .cfa -80 + ^
STACK CFI 326f4 .cfa: sp 80 +
STACK CFI 32708 .cfa: sp 0 +
STACK CFI INIT 3270c 23c .cfa: sp 0 +
STACK CFI 32710 .cfa: sp 112 +
STACK CFI 32724 .cfa: x29 64 + x19: .cfa -8 + ^ x20: .cfa -16 + ^ x21: .cfa -24 + ^ x22: .cfa -32 + ^ x23: .cfa -40 + ^ x24: .cfa -48 + ^ .ra: .cfa -56 + ^ x29: .cfa -64 + ^
STACK CFI 32900 .cfa: sp 112 +
STACK CFI 32914 .cfa: sp 0 +
STACK CFI 32918 .cfa: x29 64 +
STACK CFI INIT 32948 30c .cfa: sp 0 +
STACK CFI 3294c .cfa: sp 80 +
STACK CFI 32960 .cfa: x29 64 + x19: .cfa -8 + ^ x20: .cfa -16 + ^ x21: .cfa -24 + ^ x22: .cfa -32 + ^ x23: .cfa -40 + ^ x24: .cfa -48 + ^ .ra: .cfa -56 + ^ x29: .cfa -64 + ^
STACK CFI 32adc .cfa: sp 80 +
STACK CFI 32af0 .cfa: sp 0 +
STACK CFI 32af4 .cfa: x29 64 +
STACK CFI INIT 32c54 178 .cfa: sp 0 +
STACK CFI 32c58 .cfa: sp 80 +
STACK CFI 32c6c .cfa: x29 64 + x19: .cfa -8 + ^ x20: .cfa -16 + ^ x21: .cfa -24 + ^ x22: .cfa -32 + ^ x23: .cfa -40 + ^ x24: .cfa -48 + ^ .ra: .cfa -56 + ^ x29: .cfa -64 + ^
STACK CFI 32db0 .cfa: sp 80 +
STACK CFI 32dc4 .cfa: sp 0 +
STACK CFI 32dc8 .cfa: x29 64 +
STACK CFI INIT 32dcc 178 .cfa: sp 0 +
STACK CFI 32dd0 .cfa: sp 80 +
STACK CFI 32de4 .cfa: x29 64 + x19: .cfa -8 + ^ x20: .cfa -16 + ^ x21: .cfa -24 + ^ x22: .cfa -32 + ^ x23: .cfa -40 + ^ x24: .cfa -48 + ^ .ra: .cfa -56 + ^ x29: .cfa -64 + ^
STACK CFI 32f28 .cfa: sp 80 +
STACK CFI 32f3c .cfa: sp 0 +
STACK CFI 32f40 .cfa: x29 64 +
STACK CFI INIT 32f44 240 .cfa: sp 0 +
STACK CFI 32f48 .cfa: sp 96 +
STACK CFI 32f60 .cfa: x29 96 + x19: .cfa -8 + ^ x20: .cfa -16 + ^ x21: .cfa -24 + ^ x22: .cfa -32 + ^ x23: .cfa -40 + ^ x24: .cfa -48 + ^ x25: .cfa -56 + ^ x26: .cfa -64 + ^ x27: .cfa -72 + ^ x28: .cfa -80 + ^ .ra: .cfa -88 + ^ x29: .cfa -96 + ^
STACK CFI 33168 .cfa: sp 96 +
STACK CFI 33180 .cfa: sp 0 +
STACK CFI INIT 33df8 154 .cfa: sp 0 +
STACK CFI 33dfc .cfa: sp 96 +
STACK CFI 33e10 .cfa: x29 64 + x19: .cfa -8 + ^ x20: .cfa -16 + ^ x21: .cfa -24 + ^ x22: .cfa -32 + ^ x23: .cfa -48 + ^ .ra: .cfa -56 + ^ x29: .cfa -64 + ^
STACK CFI 33ef0 .cfa: sp 96 +
STACK CFI 33f04 .cfa: sp 0 +
STACK CFI 33f08 .cfa: x29 64 +
STACK CFI INIT 341b8 44 .cfa: sp 0 +
STACK CFI 341bc .cfa: sp 32 +
STACK CFI 341c4 .cfa: x29 32 + x19: .cfa -16 + ^ .ra: .cfa -24 + ^ x29: .cfa -32 + ^
STACK CFI 341e0 .cfa: sp 32 +
STACK CFI 341e8 .cfa: sp 0 +
STACK CFI 341ec .cfa: x29 32 +
STACK CFI 341f0 .cfa: sp 32 +
STACK CFI 341f8 .cfa: sp 0 +
STACK CFI INIT 341fc 1d0 .cfa: sp 0 +
STACK CFI 34200 .cfa: sp 64 +
STACK CFI 34210 .cfa: x29 64 + x19: .cfa -8 + ^ x20: .cfa -16 + ^ x21: .cfa -24 + ^ x22: .cfa -32 + ^ x23: .cfa -40 + ^ x24: .cfa -48 + ^ .ra: .cfa -56 + ^ x29: .cfa -64 + ^
STACK CFI 342d0 .cfa: sp 64 +
STACK CFI 342e0 .cfa: sp 0 +
STACK CFI 342e4 .cfa: x29 64 +
STACK CFI INIT 343cc 17c .cfa: sp 0 +
STACK CFI INIT 34900 a0 .cfa: sp 0 +
STACK CFI 34904 .cfa: sp 48 +
STACK CFI 34910 .cfa: x29 48 + x19: .cfa -8 + ^ x20: .cfa -16 + ^ x21: .cfa -24 + ^ x22: .cfa -32 + ^ .ra: .cfa -40 + ^ x29: .cfa -48 + ^
STACK CFI 3497c .cfa: sp 48 +
STACK CFI 34988 .cfa: sp 0 +
STACK CFI 3498c .cfa: sp 48 +
STACK CFI 34998 .cfa: sp 0 +
STACK CFI 3499c .cfa: x29 48 +
STACK CFI INIT 35654 158 .cfa: sp 0 +
STACK CFI 35658 .cfa: sp 96 +
STACK CFI 3566c .cfa: x29 64 + x19: .cfa -8 + ^ x20: .cfa -16 + ^ x21: .cfa -24 + ^ x22: .cfa -32 + ^ x23: .cfa -48 + ^ .ra: .cfa -56 + ^ x29: .cfa -64 + ^
STACK CFI 35750 .cfa: sp 96 +
STACK CFI 35764 .cfa: sp 0 +
STACK CFI 35768 .cfa: x29 64 +
STACK CFI INIT 357ac 190 .cfa: sp 0 +
STACK CFI INIT 36438 1dc .cfa: sp 0 +
STACK CFI 3643c .cfa: sp 80 +
STACK CFI 36450 .cfa: x29 80 + x19: .cfa -8 + ^ x20: .cfa -16 + ^ x21: .cfa -24 + ^ x22: .cfa -32 + ^ x23: .cfa -40 + ^ x24: .cfa -48 + ^ x25: .cfa -64 + ^ .ra: .cfa -72 + ^ x29: .cfa -80 + ^
STACK CFI 365fc .cfa: sp 80 +
STACK CFI 36610 .cfa: sp 0 +
STACK CFI INIT 37a44 124 .cfa: sp 0 +
STACK CFI 37a74 .cfa: sp 32 +
STACK CFI 37a7c .cfa: x29 32 + x19: .cfa -8 + ^ x20: .cfa -16 + ^ .ra: .cfa -24 + ^ x29: .cfa -32 + ^
STACK CFI 37b5c .cfa: sp 32 +
STACK CFI 37b64 .cfa: sp 0 +
STACK CFI INIT 382c4 320 .cfa: sp 0 +
STACK CFI 382c8 .cfa: sp 64 +
STACK CFI 382d8 .cfa: x29 64 + x19: .cfa -8 + ^ x20: .cfa -16 + ^ x21: .cfa -24 + ^ x22: .cfa -32 + ^ x23: .cfa -40 + ^ x24: .cfa -48 + ^ .ra: .cfa -56 + ^ x29: .cfa -64 + ^
STACK CFI 38354 .cfa: sp 64 +
STACK CFI 38364 .cfa: sp 0 +
STACK CFI 38368 .cfa: x29 64 +
STACK CFI 3853c .cfa: sp 64 +
STACK CFI 3854c .cfa: sp 0 +
STACK CFI 38550 .cfa: x29 64 +
STACK CFI 38560 .cfa: sp 64 +
STACK CFI 38570 .cfa: sp 0 +
STACK CFI 38574 .cfa: x29 64 +
STACK CFI INIT 385e4 a0 .cfa: sp 0 +
STACK CFI 385e8 .cfa: sp 48 +
STACK CFI 385f4 .cfa: x29 48 + x19: .cfa -8 + ^ x20: .cfa -16 + ^ x21: .cfa -24 + ^ x22: .cfa -32 + ^ .ra: .cfa -40 + ^ x29: .cfa -48 + ^
STACK CFI 38660 .cfa: sp 48 +
STACK CFI 3866c .cfa: sp 0 +
STACK CFI 38670 .cfa: sp 48 +
STACK CFI 3867c .cfa: sp 0 +
STACK CFI 38680 .cfa: x29 48 +
STACK CFI INIT 39534 160 .cfa: sp 0 +
STACK CFI 39538 .cfa: sp 64 +
STACK CFI 39548 .cfa: x29 64 + x19: .cfa -8 + ^ x20: .cfa -16 + ^ x21: .cfa -24 + ^ x22: .cfa -32 + ^ x23: .cfa -48 + ^ .ra: .cfa -56 + ^ x29: .cfa -64 + ^
STACK CFI 39640 .cfa: sp 64 +
STACK CFI 39650 .cfa: sp 0 +
STACK CFI 39654 .cfa: x29 64 +
STACK CFI INIT 39694 214 .cfa: sp 0 +
STACK CFI 39698 .cfa: sp 128 +
STACK CFI 396b4 .cfa: x29 96 + x19: .cfa -8 + ^ x20: .cfa -16 + ^ x21: .cfa -24 + ^ x22: .cfa -32 + ^ x23: .cfa -40 + ^ x24: .cfa -48 + ^ x25: .cfa -56 + ^ x26: .cfa -64 + ^ x27: .cfa -80 + ^ .ra: .cfa -88 + ^ x29: .cfa -96 + ^
STACK CFI 39830 .cfa: sp 128 +
STACK CFI 3984c .cfa: sp 0 +
STACK CFI 39850 .cfa: x29 96 +
STACK CFI INIT 3b544 290 .cfa: sp 0 +
STACK CFI 3b548 .cfa: sp 16 +
STACK CFI 3b54c .cfa: x29 16 + .ra: .cfa -8 + ^ x29: .cfa -16 + ^
STACK CFI 3b5d8 .cfa: sp 16 +
STACK CFI 3b5dc .cfa: sp 0 +
STACK CFI 3b5e0 .cfa: x29 16 +
STACK CFI 3b630 .cfa: sp 16 +
STACK CFI 3b634 .cfa: sp 0 +
STACK CFI 3b638 .cfa: x29 16 +
STACK CFI 3b79c .cfa: sp 16 +
STACK CFI 3b7a0 .cfa: sp 0 +
STACK CFI 3b7a4 .cfa: x29 16 +
STACK CFI INIT 3b7d4 158 .cfa: sp 0 +
STACK CFI 3b7d8 .cfa: sp 112 +
STACK CFI 3b7f4 .cfa: x29 96 + x19: .cfa -8 + ^ x20: .cfa -16 + ^ x21: .cfa -24 + ^ x22: .cfa -32 + ^ x23: .cfa -40 + ^ x24: .cfa -48 + ^ x25: .cfa -56 + ^ x26: .cfa -64 + ^ x27: .cfa -72 + ^ x28: .cfa -80 + ^ .ra: .cfa -88 + ^ x29: .cfa -96 + ^
STACK CFI 3b8dc .cfa: sp 112 +
STACK CFI 3b8e0 .cfa: x29 96 +
STACK CFI 3b8e8 .cfa: sp 112 +
STACK CFI 3b904 .cfa: sp 0 +
STACK CFI 3b908 .cfa: x29 96 +
STACK CFI 3b928 .cfa: sp 112 +
STACK CFI INIT 3b92c e54 .cfa: sp 0 +
STACK CFI 3b930 .cfa: sp 192 +
STACK CFI 3b94c .cfa: x29 96 + x19: .cfa -8 + ^ x20: .cfa -16 + ^ x21: .cfa -24 + ^ x22: .cfa -32 + ^ x23: .cfa -40 + ^ x24: .cfa -48 + ^ x25: .cfa -56 + ^ x26: .cfa -64 + ^ x27: .cfa -72 + ^ x28: .cfa -80 + ^ .ra: .cfa -88 + ^ x29: .cfa -96 + ^
STACK CFI 3c668 .cfa: sp 192 +
STACK CFI 3c684 .cfa: sp 0 +
STACK CFI 3c688 .cfa: x29 96 +
STACK CFI INIT 3c780 1068 .cfa: sp 0 +
STACK CFI 3c784 .cfa: sp 288 +
STACK CFI 3c7a0 .cfa: x29 96 + x19: .cfa -8 + ^ x20: .cfa -16 + ^ x21: .cfa -24 + ^ x22: .cfa -32 + ^ x23: .cfa -40 + ^ x24: .cfa -48 + ^ x25: .cfa -56 + ^ x26: .cfa -64 + ^ x27: .cfa -72 + ^ x28: .cfa -80 + ^ .ra: .cfa -88 + ^ x29: .cfa -96 + ^
STACK CFI 3d530 .cfa: sp 288 +
STACK CFI 3d54c .cfa: sp 0 +
STACK CFI 3d550 .cfa: x29 96 +
STACK CFI INIT 3d7e8 520 .cfa: sp 0 +
STACK CFI 3d7ec .cfa: sp 144 +
STACK CFI 3d808 .cfa: x29 96 + x19: .cfa -8 + ^ x20: .cfa -16 + ^ x21: .cfa -24 + ^ x22: .cfa -32 + ^ x23: .cfa -40 + ^ x24: .cfa -48 + ^ x25: .cfa -56 + ^ x26: .cfa -64 + ^ x27: .cfa -72 + ^ x28: .cfa -80 + ^ .ra: .cfa -88 + ^ x29: .cfa -96 + ^
STACK CFI 3dce4 .cfa: sp 144 +
STACK CFI 3dd00 .cfa: sp 0 +
STACK CFI 3dd04 .cfa: x29 96 +
STACK CFI INIT 3e6a8 136c .cfa: sp 0 +
STACK CFI 3e6ac .cfa: sp 224 +
STACK CFI 3e6c8 .cfa: x29 96 + x19: .cfa -8 + ^ x20: .cfa -16 + ^ x21: .cfa -24 + ^ x22: .cfa -32 + ^ x23: .cfa -40 + ^ x24: .cfa -48 + ^ x25: .cfa -56 + ^ x26: .cfa -64 + ^ x27: .cfa -72 + ^ x28: .cfa -80 + ^ .ra: .cfa -88 + ^ x29: .cfa -96 + ^
STACK CFI 3f9f0 .cfa: sp 224 +
STACK CFI 3fa0c .cfa: sp 0 +
STACK CFI 3fa10 .cfa: x29 96 +
STACK CFI INIT 3fa14 1b8 .cfa: sp 0 +
STACK CFI INIT 19890 480 .cfa: sp 0 +
STACK CFI 19894 .cfa: sp 224 +
STACK CFI 198b0 .cfa: x29 96 + x19: .cfa -8 + ^ x20: .cfa -16 + ^ x21: .cfa -24 + ^ x22: .cfa -32 + ^ x23: .cfa -40 + ^ x24: .cfa -48 + ^ x25: .cfa -56 + ^ x26: .cfa -64 + ^ x27: .cfa -80 + ^ .ra: .cfa -88 + ^ x29: .cfa -96 + ^
STACK CFI 19b1c .cfa: sp 224 +
STACK CFI 19b38 .cfa: sp 0 +
STACK CFI 19b3c .cfa: x29 96 +
STACK CFI 19c08 .cfa: sp 224 +
STACK CFI 19c24 .cfa: sp 0 +
STACK CFI 19c28 .cfa: x29 96 +
STACK CFI INIT 19d2c 308 .cfa: sp 0 +
STACK CFI 19d30 .cfa: sp 176 +
STACK CFI 19d44 .cfa: x29 64 + x19: .cfa -8 + ^ x20: .cfa -16 + ^ x21: .cfa -24 + ^ x22: .cfa -32 + ^ x23: .cfa -48 + ^ .ra: .cfa -56 + ^ x29: .cfa -64 + ^
STACK CFI 19f2c .cfa: sp 176 +
STACK CFI 19f40 .cfa: sp 0 +
STACK CFI 19f44 .cfa: x29 64 +
STACK CFI INIT 1a084 74 .cfa: sp 0 +
STACK CFI 1a088 .cfa: sp 48 +
STACK CFI 1a094 .cfa: x29 32 + x19: .cfa -8 + ^ x20: .cfa -16 + ^ .ra: .cfa -24 + ^ x29: .cfa -32 + ^
STACK CFI 1a0e0 .cfa: sp 48 +
STACK CFI 1a0ec .cfa: sp 0 +
STACK CFI 1a0f0 .cfa: x29 32 +
STACK CFI INIT 1a188 154 .cfa: sp 0 +
STACK CFI 1a18c .cfa: sp 384 +
STACK CFI 1a1a0 .cfa: x29 64 + x19: .cfa -8 + ^ x20: .cfa -16 + ^ x21: .cfa -24 + ^ x22: .cfa -32 + ^ x23: .cfa -40 + ^ x28: .cfa -48 + ^ .ra: .cfa -56 + ^ x29: .cfa -64 + ^
STACK CFI 1a284 .cfa: sp 384 +
STACK CFI 1a298 .cfa: sp 0 +
STACK CFI 1a29c .cfa: x29 64 +
STACK CFI INIT 1a310 12c .cfa: sp 0 +
STACK CFI 1a314 .cfa: sp 80 +
STACK CFI 1a328 .cfa: x29 80 + x19: .cfa -8 + ^ x20: .cfa -16 + ^ x21: .cfa -24 + ^ x22: .cfa -32 + ^ x23: .cfa -40 + ^ x24: .cfa -48 + ^ x25: .cfa -56 + ^ x26: .cfa -64 + ^ .ra: .cfa -72 + ^ x29: .cfa -80 + ^
STACK CFI 1a3f0 .cfa: sp 80 +
STACK CFI 1a404 .cfa: sp 0 +
STACK CFI 1a408 .cfa: x29 80 +
STACK CFI INIT 1a4e0 1a4 .cfa: sp 0 +
STACK CFI 1a4e4 .cfa: sp 112 +
STACK CFI 1a4fc .cfa: x29 80 + x19: .cfa -8 + ^ x20: .cfa -16 + ^ x21: .cfa -24 + ^ x22: .cfa -32 + ^ x23: .cfa -40 + ^ x24: .cfa -48 + ^ x25: .cfa -56 + ^ x26: .cfa -64 + ^ .ra: .cfa -72 + ^ x29: .cfa -80 + ^
STACK CFI 1a5ec .cfa: sp 112 +
STACK CFI 1a604 .cfa: sp 0 +
STACK CFI 1a608 .cfa: x29 80 +
STACK CFI INIT 1a684 1dc .cfa: sp 0 +
STACK CFI 1a688 .cfa: sp 128 +
STACK CFI 1a6a4 .cfa: x29 96 + x19: .cfa -8 + ^ x20: .cfa -16 + ^ x21: .cfa -24 + ^ x22: .cfa -32 + ^ x23: .cfa -40 + ^ x24: .cfa -48 + ^ x25: .cfa -56 + ^ x26: .cfa -64 + ^ x27: .cfa -80 + ^ .ra: .cfa -88 + ^ x29: .cfa -96 + ^
STACK CFI 1a810 .cfa: sp 128 +
STACK CFI 1a82c .cfa: sp 0 +
STACK CFI 1a830 .cfa: x29 96 +
STACK CFI INIT 1a874 50 .cfa: sp 0 +
STACK CFI 1a878 .cfa: sp 32 +
STACK CFI 1a880 .cfa: x29 32 + x19: .cfa -8 + ^ x20: .cfa -16 + ^ .ra: .cfa -24 + ^ x29: .cfa -32 + ^
STACK CFI INIT 1a928 178 .cfa: sp 0 +
STACK CFI 1a92c .cfa: sp 80 +
STACK CFI 1a940 .cfa: x29 80 + x19: .cfa -8 + ^ x20: .cfa -16 + ^ x21: .cfa -24 + ^ x22: .cfa -32 + ^ x23: .cfa -40 + ^ x24: .cfa -48 + ^ x25: .cfa -64 + ^ .ra: .cfa -72 + ^ x29: .cfa -80 + ^
STACK CFI 1aa6c .cfa: sp 80 +
STACK CFI 1aa80 .cfa: sp 0 +
STACK CFI 1aa84 .cfa: x29 80 +
STACK CFI INIT 1abe8 228 .cfa: sp 0 +
STACK CFI 1abec .cfa: sp 128 +
STACK CFI 1ac04 .cfa: x29 80 + x19: .cfa -8 + ^ x20: .cfa -16 + ^ x21: .cfa -24 + ^ x22: .cfa -32 + ^ x23: .cfa -40 + ^ x24: .cfa -48 + ^ x25: .cfa -64 + ^ .ra: .cfa -72 + ^ x29: .cfa -80 + ^
STACK CFI 1ada0 .cfa: sp 128 +
STACK CFI 1adb8 .cfa: sp 0 +
STACK CFI 1adbc .cfa: x29 80 +
STACK CFI INIT 1b56c 224 .cfa: sp 0 +
STACK CFI 1b570 .cfa: sp 144 +
STACK CFI 1b588 .cfa: x29 80 + x19: .cfa -8 + ^ x20: .cfa -16 + ^ x21: .cfa -24 + ^ x22: .cfa -32 + ^ x23: .cfa -40 + ^ x24: .cfa -48 + ^ x25: .cfa -64 + ^ .ra: .cfa -72 + ^ x29: .cfa -80 + ^
STACK CFI 1b5e4 .cfa: sp 144 +
STACK CFI 1b5fc .cfa: sp 0 +
STACK CFI 1b600 .cfa: x29 80 +
STACK CFI INIT 1b790 a8 .cfa: sp 0 +
STACK CFI 1b794 .cfa: sp 32 +
STACK CFI 1b79c .cfa: x29 32 + x19: .cfa -16 + ^ .ra: .cfa -24 + ^ x29: .cfa -32 + ^
STACK CFI 1b7d0 .cfa: sp 32 +
STACK CFI 1b7d8 .cfa: sp 0 +
STACK CFI 1b7dc .cfa: x29 32 +
STACK CFI 1b7e0 .cfa: sp 32 +
STACK CFI 1b7e8 .cfa: sp 0 +
STACK CFI 1b7ec .cfa: x29 32 +
STACK CFI INIT 1b988 9c4 .cfa: sp 0 +
STACK CFI 1b98c .cfa: sp 464 +
STACK CFI 1b9a8 .cfa: x29 96 + x19: .cfa -8 + ^ x20: .cfa -16 + ^ x21: .cfa -24 + ^ x22: .cfa -32 + ^ x23: .cfa -40 + ^ x24: .cfa -48 + ^ x25: .cfa -56 + ^ x26: .cfa -64 + ^ x27: .cfa -72 + ^ x28: .cfa -80 + ^ .ra: .cfa -88 + ^ x29: .cfa -96 + ^
STACK CFI 1bef4 .cfa: sp 464 +
STACK CFI 1bf10 .cfa: sp 0 +
STACK CFI 1bf14 .cfa: x29 96 +
STACK CFI INIT 1c34c 158 .cfa: sp 0 +
STACK CFI 1c350 .cfa: sp 144 +
STACK CFI 1c364 .cfa: x29 64 + x19: .cfa -8 + ^ x20: .cfa -16 + ^ x21: .cfa -24 + ^ x22: .cfa -32 + ^ x23: .cfa -40 + ^ x24: .cfa -48 + ^ .ra: .cfa -56 + ^ x29: .cfa -64 + ^
STACK CFI 1c438 .cfa: sp 144 +
STACK CFI 1c44c .cfa: sp 0 +
STACK CFI 1c450 .cfa: x29 64 +
STACK CFI INIT 1c4a4 138 .cfa: sp 0 +
STACK CFI 1c4a8 .cfa: sp 64 +
STACK CFI 1c4b8 .cfa: x29 64 + x19: .cfa -8 + ^ x20: .cfa -16 + ^ x21: .cfa -24 + ^ x22: .cfa -32 + ^ x23: .cfa -40 + ^ x24: .cfa -48 + ^ .ra: .cfa -56 + ^ x29: .cfa -64 + ^
STACK CFI 1c554 .cfa: sp 64 +
STACK CFI 1c564 .cfa: sp 0 +
STACK CFI 1c568 .cfa: x29 64 +
STACK CFI 1c59c .cfa: sp 64 +
STACK CFI 1c5ac .cfa: sp 0 +
STACK CFI 1c5b0 .cfa: x29 64 +
STACK CFI INIT 1c5dc 138 .cfa: sp 0 +
STACK CFI 1c5e0 .cfa: sp 64 +
STACK CFI 1c5f0 .cfa: x29 64 + x19: .cfa -8 + ^ x20: .cfa -16 + ^ x21: .cfa -24 + ^ x22: .cfa -32 + ^ x23: .cfa -40 + ^ x24: .cfa -48 + ^ .ra: .cfa -56 + ^ x29: .cfa -64 + ^
STACK CFI 1c68c .cfa: sp 64 +
STACK CFI 1c69c .cfa: sp 0 +
STACK CFI 1c6a0 .cfa: x29 64 +
STACK CFI 1c6d4 .cfa: sp 64 +
STACK CFI 1c6e4 .cfa: sp 0 +
STACK CFI 1c6e8 .cfa: x29 64 +
STACK CFI INIT 1c714 138 .cfa: sp 0 +
STACK CFI 1c718 .cfa: sp 64 +
STACK CFI 1c728 .cfa: x29 64 + x19: .cfa -8 + ^ x20: .cfa -16 + ^ x21: .cfa -24 + ^ x22: .cfa -32 + ^ x23: .cfa -40 + ^ x24: .cfa -48 + ^ .ra: .cfa -56 + ^ x29: .cfa -64 + ^
STACK CFI 1c7c4 .cfa: sp 64 +
STACK CFI 1c7d4 .cfa: sp 0 +
STACK CFI 1c7d8 .cfa: x29 64 +
STACK CFI 1c80c .cfa: sp 64 +
STACK CFI 1c81c .cfa: sp 0 +
STACK CFI 1c820 .cfa: x29 64 +
STACK CFI INIT 1c84c 138 .cfa: sp 0 +
STACK CFI 1c850 .cfa: sp 64 +
STACK CFI 1c860 .cfa: x29 64 + x19: .cfa -8 + ^ x20: .cfa -16 + ^ x21: .cfa -24 + ^ x22: .cfa -32 + ^ x23: .cfa -40 + ^ x24: .cfa -48 + ^ .ra: .cfa -56 + ^ x29: .cfa -64 + ^
STACK CFI 1c8fc .cfa: sp 64 +
STACK CFI 1c90c .cfa: sp 0 +
STACK CFI 1c910 .cfa: x29 64 +
STACK CFI 1c944 .cfa: sp 64 +
STACK CFI 1c954 .cfa: sp 0 +
STACK CFI 1c958 .cfa: x29 64 +
STACK CFI INIT 1c984 138 .cfa: sp 0 +
STACK CFI 1c988 .cfa: sp 64 +
STACK CFI 1c998 .cfa: x29 64 + x19: .cfa -8 + ^ x20: .cfa -16 + ^ x21: .cfa -24 + ^ x22: .cfa -32 + ^ x23: .cfa -40 + ^ x24: .cfa -48 + ^ .ra: .cfa -56 + ^ x29: .cfa -64 + ^
STACK CFI 1ca34 .cfa: sp 64 +
STACK CFI 1ca44 .cfa: sp 0 +
STACK CFI 1ca48 .cfa: x29 64 +
STACK CFI 1ca7c .cfa: sp 64 +
STACK CFI 1ca8c .cfa: sp 0 +
STACK CFI 1ca90 .cfa: x29 64 +
STACK CFI INIT 1cabc 138 .cfa: sp 0 +
STACK CFI 1cac0 .cfa: sp 64 +
STACK CFI 1cad0 .cfa: x29 64 + x19: .cfa -8 + ^ x20: .cfa -16 + ^ x21: .cfa -24 + ^ x22: .cfa -32 + ^ x23: .cfa -40 + ^ x24: .cfa -48 + ^ .ra: .cfa -56 + ^ x29: .cfa -64 + ^
STACK CFI 1cb6c .cfa: sp 64 +
STACK CFI 1cb7c .cfa: sp 0 +
STACK CFI 1cb80 .cfa: x29 64 +
STACK CFI 1cbb4 .cfa: sp 64 +
STACK CFI 1cbc4 .cfa: sp 0 +
STACK CFI 1cbc8 .cfa: x29 64 +
STACK CFI INIT 1cbf4 138 .cfa: sp 0 +
STACK CFI 1cbf8 .cfa: sp 64 +
STACK CFI 1cc08 .cfa: x29 64 + x19: .cfa -8 + ^ x20: .cfa -16 + ^ x21: .cfa -24 + ^ x22: .cfa -32 + ^ x23: .cfa -40 + ^ x24: .cfa -48 + ^ .ra: .cfa -56 + ^ x29: .cfa -64 + ^
STACK CFI 1cca4 .cfa: sp 64 +
STACK CFI 1ccb4 .cfa: sp 0 +
STACK CFI 1ccb8 .cfa: x29 64 +
STACK CFI 1ccec .cfa: sp 64 +
STACK CFI 1ccfc .cfa: sp 0 +
STACK CFI 1cd00 .cfa: x29 64 +
STACK CFI INIT 1cd70 11c .cfa: sp 0 +
STACK CFI 1cd74 .cfa: sp 112 +
STACK CFI 1cd88 .cfa: x29 64 + x19: .cfa -8 + ^ x20: .cfa -16 + ^ x21: .cfa -24 + ^ x22: .cfa -32 + ^ x23: .cfa -40 + ^ x24: .cfa -48 + ^ .ra: .cfa -56 + ^ x29: .cfa -64 + ^
STACK CFI 1ce48 .cfa: sp 112 +
STACK CFI 1ce5c .cfa: sp 0 +
STACK CFI 1ce60 .cfa: x29 64 +
STACK CFI INIT 1d368 e8 .cfa: sp 0 +
STACK CFI 1d36c .cfa: sp 48 +
STACK CFI 1d378 .cfa: x29 48 + x19: .cfa -8 + ^ x20: .cfa -16 + ^ x21: .cfa -24 + ^ x22: .cfa -32 + ^ .ra: .cfa -40 + ^ x29: .cfa -48 + ^
STACK CFI 1d3e4 .cfa: sp 48 +
STACK CFI 1d3f0 .cfa: sp 0 +
STACK CFI 1d3f4 .cfa: x29 48 +
STACK CFI 1d408 .cfa: sp 48 +
STACK CFI 1d414 .cfa: sp 0 +
STACK CFI 1d418 .cfa: x29 48 +
STACK CFI INIT 1d96c 480 .cfa: sp 0 +
STACK CFI 1d970 .cfa: sp 224 +
STACK CFI 1d98c .cfa: x29 96 + x19: .cfa -8 + ^ x20: .cfa -16 + ^ x21: .cfa -24 + ^ x22: .cfa -32 + ^ x23: .cfa -40 + ^ x24: .cfa -48 + ^ x25: .cfa -56 + ^ x26: .cfa -64 + ^ x27: .cfa -80 + ^ .ra: .cfa -88 + ^ x29: .cfa -96 + ^
STACK CFI 1dbf8 .cfa: sp 224 +
STACK CFI 1dc14 .cfa: sp 0 +
STACK CFI 1dc18 .cfa: x29 96 +
STACK CFI 1dce4 .cfa: sp 224 +
STACK CFI 1dd00 .cfa: sp 0 +
STACK CFI 1dd04 .cfa: x29 96 +
STACK CFI INIT 1de08 664 .cfa: sp 0 +
STACK CFI 1de0c .cfa: sp 176 +
STACK CFI 1de20 .cfa: x29 64 + x19: .cfa -8 + ^ x20: .cfa -16 + ^ x21: .cfa -24 + ^ x22: .cfa -32 + ^ x23: .cfa -40 + ^ x24: .cfa -48 + ^ .ra: .cfa -56 + ^ x29: .cfa -64 + ^
STACK CFI 1e2a4 .cfa: sp 176 +
STACK CFI 1e2b8 .cfa: sp 0 +
STACK CFI 1e2bc .cfa: x29 64 +
STACK CFI INIT 1e4ac 134 .cfa: sp 0 +
STACK CFI 1e4b0 .cfa: sp 128 +
STACK CFI 1e4c4 .cfa: x29 64 + x19: .cfa -8 + ^ x20: .cfa -16 + ^ x21: .cfa -24 + ^ x22: .cfa -32 + ^ x23: .cfa -40 + ^ x24: .cfa -48 + ^ .ra: .cfa -56 + ^ x29: .cfa -64 + ^
STACK CFI 1e590 .cfa: sp 128 +
STACK CFI 1e5a4 .cfa: sp 0 +
STACK CFI 1e5a8 .cfa: x29 64 +
STACK CFI INIT 1e5e0 11c .cfa: sp 0 +
STACK CFI 1e5e4 .cfa: sp 48 +
STACK CFI 1e5f0 .cfa: x29 48 + x19: .cfa -8 + ^ x20: .cfa -16 + ^ x21: .cfa -32 + ^ .ra: .cfa -40 + ^ x29: .cfa -48 + ^
STACK CFI 1e694 .cfa: sp 48 +
STACK CFI 1e6a0 .cfa: sp 0 +
STACK CFI 1e6a4 .cfa: x29 48 +
STACK CFI 1e6d8 .cfa: sp 48 +
STACK CFI 1e6e4 .cfa: sp 0 +
STACK CFI 1e6e8 .cfa: x29 48 +
STACK CFI INIT 1e798 128 .cfa: sp 0 +
STACK CFI 1e79c .cfa: sp 48 +
STACK CFI 1e7a8 .cfa: x29 48 + x19: .cfa -8 + ^ x20: .cfa -16 + ^ x21: .cfa -32 + ^ .ra: .cfa -40 + ^ x29: .cfa -48 + ^
STACK CFI 1e7f4 .cfa: sp 48 +
STACK CFI 1e800 .cfa: sp 0 +
STACK CFI 1e804 .cfa: x29 48 +
STACK CFI 1e89c .cfa: sp 48 +
STACK CFI 1e8a8 .cfa: sp 0 +
STACK CFI 1e8ac .cfa: x29 48 +
STACK CFI INIT 1e8c0 7cc .cfa: sp 0 +
STACK CFI 1e8c4 .cfa: sp 192 +
STACK CFI 1e8e4 .cfa: x29 88 + x19: .cfa -8 + ^ x20: .cfa -16 + ^ x21: .cfa -24 + ^ x22: .cfa -32 + ^ x23: .cfa -40 + ^ x24: .cfa -48 + ^ x25: .cfa -56 + ^ x26: .cfa -64 + ^ x27: .cfa -72 + ^ .ra: .cfa -80 + ^ x29: .cfa -88 + ^ v8: .cfa -96 + ^
STACK CFI 1eca4 .cfa: sp 192 +
STACK CFI 1ecc4 .cfa: sp 0 +
STACK CFI 1ecc8 .cfa: x29 88 +
STACK CFI INIT 1f08c 134 .cfa: sp 0 +
STACK CFI 1f090 .cfa: sp 80 +
STACK CFI 1f0a0 .cfa: x29 48 + x19: .cfa -8 + ^ x20: .cfa -16 + ^ x21: .cfa -24 + ^ x22: .cfa -32 + ^ .ra: .cfa -40 + ^ x29: .cfa -48 + ^
STACK CFI 1f1a4 .cfa: sp 80 +
STACK CFI 1f1b4 .cfa: sp 0 +
STACK CFI 1f1b8 .cfa: x29 48 +
STACK CFI INIT 1f2c4 20 .cfa: sp 0 +
STACK CFI 1f2c8 .cfa: sp 16 +
STACK CFI 1f2cc .cfa: x29 16 + .ra: .cfa -8 + ^ x29: .cfa -16 + ^
STACK CFI 1f2d8 .cfa: sp 16 +
STACK CFI 1f2dc .cfa: sp 0 +
STACK CFI 1f2e0 .cfa: x29 16 +
STACK CFI INIT 1f2e4 190 .cfa: sp 0 +
STACK CFI 1f2e8 .cfa: sp 96 +
STACK CFI 1f2f8 .cfa: x29 48 + x19: .cfa -8 + ^ x20: .cfa -16 + ^ x21: .cfa -24 + ^ x22: .cfa -32 + ^ .ra: .cfa -40 + ^ x29: .cfa -48 + ^
STACK CFI 1f3f0 .cfa: sp 96 +
STACK CFI 1f400 .cfa: sp 0 +
STACK CFI 1f404 .cfa: x29 48 +
STACK CFI INIT 1f474 1c20 .cfa: sp 0 +
STACK CFI 1f478 .cfa: sp 96 +
STACK CFI 1f490 .cfa: x29 96 + x19: .cfa -8 + ^ x20: .cfa -16 + ^ x21: .cfa -24 + ^ x22: .cfa -32 + ^ x23: .cfa -40 + ^ x24: .cfa -48 + ^ x25: .cfa -56 + ^ x26: .cfa -64 + ^ x27: .cfa -72 + ^ x28: .cfa -80 + ^ .ra: .cfa -88 + ^ x29: .cfa -96 + ^
STACK CFI 20d40 .cfa: sp 96 +
STACK CFI 20d58 .cfa: sp 0 +
STACK CFI 20d5c .cfa: x29 96 +
STACK CFI INIT 211f4 174 .cfa: sp 0 +
STACK CFI 211f8 .cfa: sp 96 +
STACK CFI 21204 .cfa: x29 32 + x19: .cfa -8 + ^ x20: .cfa -16 + ^ .ra: .cfa -24 + ^ x29: .cfa -32 + ^
STACK CFI 212f0 .cfa: sp 96 +
STACK CFI 212fc .cfa: sp 0 +
STACK CFI 21300 .cfa: x29 32 +
STACK CFI INIT 21368 204 .cfa: sp 0 +
STACK CFI 2136c .cfa: sp 80 +
STACK CFI 21380 .cfa: x29 80 + x19: .cfa -8 + ^ x20: .cfa -16 + ^ x21: .cfa -24 + ^ x22: .cfa -32 + ^ x23: .cfa -40 + ^ x24: .cfa -48 + ^ x25: .cfa -56 + ^ x28: .cfa -64 + ^ .ra: .cfa -72 + ^ x29: .cfa -80 + ^
STACK CFI 21514 .cfa: sp 80 +
STACK CFI 21528 .cfa: sp 0 +
STACK CFI 2152c .cfa: x29 80 +
STACK CFI INIT 2156c 144 .cfa: sp 0 +
STACK CFI 21570 .cfa: sp 48 +
STACK CFI 2157c .cfa: x29 48 + x19: .cfa -8 + ^ x20: .cfa -16 + ^ x28: .cfa -32 + ^ .ra: .cfa -40 + ^ x29: .cfa -48 + ^
STACK CFI 2165c .cfa: sp 48 +
STACK CFI 21668 .cfa: sp 0 +
STACK CFI 2166c .cfa: x29 48 +
STACK CFI INIT 21798 304 .cfa: sp 0 +
STACK CFI 2179c .cfa: sp 128 +
STACK CFI 217b8 .cfa: x29 96 + x19: .cfa -8 + ^ x20: .cfa -16 + ^ x21: .cfa -24 + ^ x22: .cfa -32 + ^ x23: .cfa -40 + ^ x24: .cfa -48 + ^ x25: .cfa -56 + ^ x26: .cfa -64 + ^ x27: .cfa -72 + ^ x28: .cfa -80 + ^ .ra: .cfa -88 + ^ x29: .cfa -96 + ^
STACK CFI 21a1c .cfa: sp 128 +
STACK CFI 21a38 .cfa: sp 0 +
STACK CFI 21a3c .cfa: x29 96 +
STACK CFI INIT 21fbc 16c .cfa: sp 0 +
STACK CFI 21fc0 .cfa: sp 144 +
STACK CFI 21fd4 .cfa: x29 64 + x19: .cfa -8 + ^ x20: .cfa -16 + ^ x21: .cfa -24 + ^ x22: .cfa -32 + ^ x23: .cfa -40 + ^ x24: .cfa -48 + ^ .ra: .cfa -56 + ^ x29: .cfa -64 + ^
STACK CFI 220bc .cfa: sp 144 +
STACK CFI 220d0 .cfa: sp 0 +
STACK CFI 220d4 .cfa: x29 64 +
STACK CFI INIT 228f4 480 .cfa: sp 0 +
STACK CFI 228f8 .cfa: sp 224 +
STACK CFI 22914 .cfa: x29 96 + x19: .cfa -8 + ^ x20: .cfa -16 + ^ x21: .cfa -24 + ^ x22: .cfa -32 + ^ x23: .cfa -40 + ^ x24: .cfa -48 + ^ x25: .cfa -56 + ^ x26: .cfa -64 + ^ x27: .cfa -80 + ^ .ra: .cfa -88 + ^ x29: .cfa -96 + ^
STACK CFI 22b80 .cfa: sp 224 +
STACK CFI 22b9c .cfa: sp 0 +
STACK CFI 22ba0 .cfa: x29 96 +
STACK CFI 22c6c .cfa: sp 224 +
STACK CFI 22c88 .cfa: sp 0 +
STACK CFI 22c8c .cfa: x29 96 +
STACK CFI INIT 22d90 380 .cfa: sp 0 +
STACK CFI 22d94 .cfa: sp 240 +
STACK CFI 22da8 .cfa: x29 64 + x19: .cfa -8 + ^ x20: .cfa -16 + ^ x21: .cfa -24 + ^ x22: .cfa -32 + ^ x23: .cfa -48 + ^ .ra: .cfa -56 + ^ x29: .cfa -64 + ^
STACK CFI 22fec .cfa: sp 240 +
STACK CFI 23000 .cfa: sp 0 +
STACK CFI 23004 .cfa: x29 64 +
STACK CFI INIT 23114 bc .cfa: sp 0 +
STACK CFI 23118 .cfa: sp 64 +
STACK CFI 23128 .cfa: x29 48 + x19: .cfa -8 + ^ x20: .cfa -16 + ^ x21: .cfa -32 + ^ .ra: .cfa -40 + ^ x29: .cfa -48 + ^ v8: .cfa -56 + ^ v9: .cfa -64 + ^
STACK CFI 231a8 .cfa: sp 64 +
STACK CFI 231b8 .cfa: sp 0 +
STACK CFI 231bc .cfa: x29 48 +
STACK CFI INIT 231d0 d8 .cfa: sp 0 +
STACK CFI 231d4 .cfa: sp 32 +
STACK CFI 231dc .cfa: x29 32 + x19: .cfa -16 + ^ .ra: .cfa -24 + ^ x29: .cfa -32 + ^
STACK CFI 23210 .cfa: sp 32 +
STACK CFI 23218 .cfa: sp 0 +
STACK CFI 2321c .cfa: x29 32 +
STACK CFI 23220 .cfa: sp 32 +
STACK CFI 23228 .cfa: sp 0 +
STACK CFI 2322c .cfa: x29 32 +
STACK CFI INIT 232a8 480 .cfa: sp 0 +
STACK CFI 232ac .cfa: sp 224 +
STACK CFI 232c8 .cfa: x29 96 + x19: .cfa -8 + ^ x20: .cfa -16 + ^ x21: .cfa -24 + ^ x22: .cfa -32 + ^ x23: .cfa -40 + ^ x24: .cfa -48 + ^ x25: .cfa -56 + ^ x26: .cfa -64 + ^ x27: .cfa -80 + ^ .ra: .cfa -88 + ^ x29: .cfa -96 + ^
STACK CFI 23534 .cfa: sp 224 +
STACK CFI 23550 .cfa: sp 0 +
STACK CFI 23554 .cfa: x29 96 +
STACK CFI 23620 .cfa: sp 224 +
STACK CFI 2363c .cfa: sp 0 +
STACK CFI 23640 .cfa: x29 96 +
STACK CFI INIT 23744 600 .cfa: sp 0 +
STACK CFI 23748 .cfa: sp 256 +
STACK CFI 23760 .cfa: x29 80 + x19: .cfa -8 + ^ x20: .cfa -16 + ^ x21: .cfa -24 + ^ x22: .cfa -32 + ^ x23: .cfa -40 + ^ x24: .cfa -48 + ^ x25: .cfa -56 + ^ x26: .cfa -64 + ^ .ra: .cfa -72 + ^ x29: .cfa -80 + ^
STACK CFI 23b84 .cfa: sp 256 +
STACK CFI 23b9c .cfa: sp 0 +
STACK CFI 23ba0 .cfa: x29 80 +
STACK CFI INIT 23d48 15e8 .cfa: sp 0 +
STACK CFI 23d4c .cfa: sp 112 +
STACK CFI 23d68 .cfa: x29 96 + x19: .cfa -8 + ^ x20: .cfa -16 + ^ x21: .cfa -24 + ^ x22: .cfa -32 + ^ x23: .cfa -40 + ^ x24: .cfa -48 + ^ x25: .cfa -56 + ^ x26: .cfa -64 + ^ x27: .cfa -72 + ^ x28: .cfa -80 + ^ .ra: .cfa -88 + ^ x29: .cfa -96 + ^ v8: .cfa -112 + ^
STACK CFI 24e94 .cfa: sp 112 +
STACK CFI 24eb0 .cfa: sp 0 +
STACK CFI 24eb4 .cfa: x29 96 +
STACK CFI INIT 25330 efc .cfa: sp 0 +
STACK CFI 25334 .cfa: sp 224 +
STACK CFI 25354 .cfa: x29 96 + x19: .cfa -8 + ^ x20: .cfa -16 + ^ x21: .cfa -24 + ^ x22: .cfa -32 + ^ x23: .cfa -40 + ^ x24: .cfa -48 + ^ x25: .cfa -56 + ^ x26: .cfa -64 + ^ x27: .cfa -72 + ^ x28: .cfa -80 + ^ .ra: .cfa -88 + ^ x29: .cfa -96 + ^ v8: .cfa -112 + ^
STACK CFI 2544c .cfa: sp 224 +
STACK CFI 2546c .cfa: sp 0 +
STACK CFI 25470 .cfa: x29 96 +
STACK CFI 25ca0 .cfa: sp 224 +
STACK CFI 25cc0 .cfa: sp 0 +
STACK CFI 25cc4 .cfa: x29 96 +
STACK CFI INIT 2622c a8 .cfa: sp 0 +
STACK CFI 26230 .cfa: sp 32 +
STACK CFI 26238 .cfa: x29 32 + x19: .cfa -16 + ^ .ra: .cfa -24 + ^ x29: .cfa -32 + ^
STACK CFI 2626c .cfa: sp 32 +
STACK CFI 26274 .cfa: sp 0 +
STACK CFI 26278 .cfa: x29 32 +
STACK CFI 2627c .cfa: sp 32 +
STACK CFI 26284 .cfa: sp 0 +
STACK CFI 26288 .cfa: x29 32 +
STACK CFI INIT 26364 13c .cfa: sp 0 +
STACK CFI 26368 .cfa: sp 96 +
STACK CFI 2637c .cfa: x29 48 + x19: .cfa -8 + ^ x20: .cfa -16 + ^ x21: .cfa -24 + ^ x22: .cfa -32 + ^ .ra: .cfa -40 + ^ x29: .cfa -48 + ^ v8: .cfa -64 + ^
STACK CFI 26480 .cfa: sp 96 +
STACK CFI 26494 .cfa: sp 0 +
STACK CFI 26498 .cfa: x29 48 +
STACK CFI INIT 26650 a8 .cfa: sp 0 +
STACK CFI 26654 .cfa: sp 32 +
STACK CFI 2665c .cfa: x29 32 + x19: .cfa -16 + ^ .ra: .cfa -24 + ^ x29: .cfa -32 + ^
STACK CFI 26690 .cfa: sp 32 +
STACK CFI 26698 .cfa: sp 0 +
STACK CFI 2669c .cfa: x29 32 +
STACK CFI 266a0 .cfa: sp 32 +
STACK CFI 266a8 .cfa: sp 0 +
STACK CFI 266ac .cfa: x29 32 +
STACK CFI INIT 266f8 270 .cfa: sp 0 +
STACK CFI 266fc .cfa: sp 48 +
STACK CFI 26708 .cfa: x29 48 + x19: .cfa -8 + ^ x20: .cfa -16 + ^ x21: .cfa -24 + ^ x22: .cfa -32 + ^ .ra: .cfa -40 + ^ x29: .cfa -48 + ^
STACK CFI 26914 .cfa: sp 48 +
STACK CFI 26920 .cfa: sp 0 +
STACK CFI 26924 .cfa: x29 48 +
STACK CFI 26944 .cfa: sp 48 +
STACK CFI 26950 .cfa: sp 0 +
STACK CFI 26954 .cfa: x29 48 +
STACK CFI INIT 26968 480 .cfa: sp 0 +
STACK CFI 2696c .cfa: sp 224 +
STACK CFI 26988 .cfa: x29 96 + x19: .cfa -8 + ^ x20: .cfa -16 + ^ x21: .cfa -24 + ^ x22: .cfa -32 + ^ x23: .cfa -40 + ^ x24: .cfa -48 + ^ x25: .cfa -56 + ^ x26: .cfa -64 + ^ x27: .cfa -80 + ^ .ra: .cfa -88 + ^ x29: .cfa -96 + ^
STACK CFI 26bf4 .cfa: sp 224 +
STACK CFI 26c10 .cfa: sp 0 +
STACK CFI 26c14 .cfa: x29 96 +
STACK CFI 26ce0 .cfa: sp 224 +
STACK CFI 26cfc .cfa: sp 0 +
STACK CFI 26d00 .cfa: x29 96 +
STACK CFI INIT 26e04 380 .cfa: sp 0 +
STACK CFI 26e08 .cfa: sp 240 +
STACK CFI 26e1c .cfa: x29 64 + x19: .cfa -8 + ^ x20: .cfa -16 + ^ x21: .cfa -24 + ^ x22: .cfa -32 + ^ x23: .cfa -48 + ^ .ra: .cfa -56 + ^ x29: .cfa -64 + ^
STACK CFI 27060 .cfa: sp 240 +
STACK CFI 27074 .cfa: sp 0 +
STACK CFI 27078 .cfa: x29 64 +
STACK CFI INIT 27248 a8 .cfa: sp 0 +
STACK CFI 2724c .cfa: sp 32 +
STACK CFI 27254 .cfa: x29 32 + x19: .cfa -16 + ^ .ra: .cfa -24 + ^ x29: .cfa -32 + ^
STACK CFI 27288 .cfa: sp 32 +
STACK CFI 27290 .cfa: sp 0 +
STACK CFI 27294 .cfa: x29 32 +
STACK CFI 27298 .cfa: sp 32 +
STACK CFI 272a0 .cfa: sp 0 +
STACK CFI 272a4 .cfa: x29 32 +
STACK CFI INIT 27374 146c .cfa: sp 0 +
STACK CFI 27378 .cfa: sp 96 +
STACK CFI 27390 .cfa: x29 96 + x19: .cfa -8 + ^ x20: .cfa -16 + ^ x21: .cfa -24 + ^ x22: .cfa -32 + ^ x23: .cfa -40 + ^ x24: .cfa -48 + ^ x25: .cfa -56 + ^ x26: .cfa -64 + ^ x27: .cfa -72 + ^ x28: .cfa -80 + ^ .ra: .cfa -88 + ^ x29: .cfa -96 + ^
STACK CFI 283cc .cfa: sp 96 +
STACK CFI 283e4 .cfa: sp 0 +
STACK CFI 283e8 .cfa: x29 96 +
STACK CFI INIT 287e0 384 .cfa: sp 0 +
STACK CFI 287e4 .cfa: sp 192 +
STACK CFI 28800 .cfa: x29 96 + x19: .cfa -8 + ^ x20: .cfa -16 + ^ x21: .cfa -24 + ^ x22: .cfa -32 + ^ x23: .cfa -40 + ^ x24: .cfa -48 + ^ x25: .cfa -56 + ^ x26: .cfa -64 + ^ x27: .cfa -80 + ^ .ra: .cfa -88 + ^ x29: .cfa -96 + ^
STACK CFI 28a30 .cfa: sp 192 +
STACK CFI 28a4c .cfa: sp 0 +
STACK CFI 28a50 .cfa: x29 96 +
STACK CFI INIT 28b64 74 .cfa: sp 0 +
STACK CFI 28b68 .cfa: sp 48 +
STACK CFI 28b74 .cfa: x29 32 + x19: .cfa -8 + ^ x20: .cfa -16 + ^ .ra: .cfa -24 + ^ x29: .cfa -32 + ^
STACK CFI 28bc0 .cfa: sp 48 +
STACK CFI 28bcc .cfa: sp 0 +
STACK CFI 28bd0 .cfa: x29 32 +
STACK CFI INIT 28bd8 124 .cfa: sp 0 +
STACK CFI 28bdc .cfa: sp 64 +
STACK CFI 28be8 .cfa: x29 32 + x19: .cfa -8 + ^ x20: .cfa -16 + ^ .ra: .cfa -24 + ^ x29: .cfa -32 + ^
STACK CFI 28cb4 .cfa: sp 64 +
STACK CFI 28cc0 .cfa: sp 0 +
STACK CFI 28cc4 .cfa: x29 32 +
STACK CFI INIT 28cfc 190 .cfa: sp 0 +
STACK CFI 28d00 .cfa: sp 160 +
STACK CFI 28d10 .cfa: x29 48 + x19: .cfa -8 + ^ x20: .cfa -16 + ^ x21: .cfa -32 + ^ .ra: .cfa -40 + ^ x29: .cfa -48 + ^
STACK CFI 28e30 .cfa: sp 160 +
STACK CFI 28e40 .cfa: sp 0 +
STACK CFI 28e44 .cfa: x29 48 +
STACK CFI INIT 29078 bb8 .cfa: sp 0 +
STACK CFI 2907c .cfa: sp 96 +
STACK CFI 29094 .cfa: x29 96 + x19: .cfa -8 + ^ x20: .cfa -16 + ^ x21: .cfa -24 + ^ x22: .cfa -32 + ^ x23: .cfa -40 + ^ x24: .cfa -48 + ^ x25: .cfa -56 + ^ x26: .cfa -64 + ^ x27: .cfa -72 + ^ x28: .cfa -80 + ^ .ra: .cfa -88 + ^ x29: .cfa -96 + ^
STACK CFI 295d4 .cfa: sp 96 +
STACK CFI 295ec .cfa: sp 0 +
STACK CFI 295f0 .cfa: x29 96 +
STACK CFI INIT 29c30 120 .cfa: sp 0 +
STACK CFI 29c34 .cfa: sp 80 +
STACK CFI 29c48 .cfa: x29 80 + x19: .cfa -8 + ^ x20: .cfa -16 + ^ x21: .cfa -24 + ^ x22: .cfa -32 + ^ x23: .cfa -40 + ^ x24: .cfa -48 + ^ x25: .cfa -56 + ^ x26: .cfa -64 + ^ .ra: .cfa -72 + ^ x29: .cfa -80 + ^
STACK CFI 29cf4 .cfa: sp 80 +
STACK CFI 29d08 .cfa: sp 0 +
STACK CFI 29d0c .cfa: x29 80 +
STACK CFI INIT 29da0 74 .cfa: sp 0 +
STACK CFI 29da4 .cfa: sp 48 +
STACK CFI 29db0 .cfa: x29 32 + x19: .cfa -8 + ^ x20: .cfa -16 + ^ .ra: .cfa -24 + ^ x29: .cfa -32 + ^
STACK CFI 29dfc .cfa: sp 48 +
STACK CFI 29e08 .cfa: sp 0 +
STACK CFI 29e0c .cfa: x29 32 +
STACK CFI INIT 29e44 114 .cfa: sp 0 +
STACK CFI 29e48 .cfa: sp 80 +
STACK CFI 29e5c .cfa: x29 80 + x19: .cfa -8 + ^ x20: .cfa -16 + ^ x21: .cfa -24 + ^ x22: .cfa -32 + ^ x23: .cfa -40 + ^ x24: .cfa -48 + ^ x25: .cfa -56 + ^ x26: .cfa -64 + ^ .ra: .cfa -72 + ^ x29: .cfa -80 + ^
STACK CFI 29efc .cfa: sp 80 +
STACK CFI 29f10 .cfa: sp 0 +
STACK CFI 29f14 .cfa: x29 80 +
STACK CFI INIT 29f58 1b4 .cfa: sp 0 +
STACK CFI 29f5c .cfa: sp 80 +
STACK CFI 29f70 .cfa: x29 64 + x19: .cfa -8 + ^ x20: .cfa -16 + ^ x21: .cfa -24 + ^ x22: .cfa -32 + ^ x23: .cfa -40 + ^ x24: .cfa -48 + ^ .ra: .cfa -56 + ^ x29: .cfa -64 + ^
STACK CFI 2a07c .cfa: sp 80 +
STACK CFI 2a090 .cfa: sp 0 +
STACK CFI 2a094 .cfa: x29 64 +
STACK CFI INIT 2a10c 9ac .cfa: sp 0 +
STACK CFI 2a110 .cfa: sp 96 +
STACK CFI 2a128 .cfa: x29 96 + x19: .cfa -8 + ^ x20: .cfa -16 + ^ x21: .cfa -24 + ^ x22: .cfa -32 + ^ x23: .cfa -40 + ^ x24: .cfa -48 + ^ x25: .cfa -56 + ^ x26: .cfa -64 + ^ x27: .cfa -72 + ^ x28: .cfa -80 + ^ .ra: .cfa -88 + ^ x29: .cfa -96 + ^
STACK CFI 2a5c0 .cfa: sp 96 +
STACK CFI 2a5d8 .cfa: sp 0 +
STACK CFI 2a5dc .cfa: x29 96 +
STACK CFI INIT 2aab8 f8 .cfa: sp 0 +
STACK CFI 2aabc .cfa: sp 48 +
STACK CFI 2aac8 .cfa: x29 48 + x19: .cfa -8 + ^ x20: .cfa -16 + ^ x21: .cfa -32 + ^ .ra: .cfa -40 + ^ x29: .cfa -48 + ^
STACK CFI 2ab34 .cfa: sp 48 +
STACK CFI 2ab40 .cfa: sp 0 +
STACK CFI 2ab44 .cfa: x29 48 +
STACK CFI INIT 2ac5c 160 .cfa: sp 0 +
STACK CFI 2ac60 .cfa: sp 80 +
STACK CFI 2ac70 .cfa: x29 48 + x19: .cfa -8 + ^ x20: .cfa -16 + ^ x21: .cfa -32 + ^ .ra: .cfa -40 + ^ x29: .cfa -48 + ^
STACK CFI 2ad0c .cfa: sp 80 +
STACK CFI 2ad1c .cfa: sp 0 +
STACK CFI 2ad20 .cfa: x29 48 +
STACK CFI 2ad74 .cfa: sp 80 +
STACK CFI 2ad84 .cfa: sp 0 +
STACK CFI 2ad88 .cfa: x29 48 +
STACK CFI INIT 2ade4 18c .cfa: sp 0 +
STACK CFI 2ade8 .cfa: sp 80 +
STACK CFI 2adf8 .cfa: x29 48 + x19: .cfa -8 + ^ x20: .cfa -16 + ^ x21: .cfa -24 + ^ x22: .cfa -32 + ^ .ra: .cfa -40 + ^ x29: .cfa -48 + ^
STACK CFI 2af20 .cfa: sp 80 +
STACK CFI 2af30 .cfa: sp 0 +
STACK CFI 2af34 .cfa: x29 48 +
STACK CFI INIT 2af74 174 .cfa: sp 0 +
STACK CFI 2af78 .cfa: sp 112 +
STACK CFI 2af88 .cfa: x29 48 + x19: .cfa -8 + ^ x20: .cfa -16 + ^ x21: .cfa -32 + ^ .ra: .cfa -40 + ^ x29: .cfa -48 + ^
STACK CFI 2b084 .cfa: sp 112 +
STACK CFI 2b094 .cfa: sp 0 +
STACK CFI 2b098 .cfa: x29 48 +
STACK CFI INIT 2b284 160 .cfa: sp 0 +
STACK CFI 2b288 .cfa: sp 80 +
STACK CFI 2b298 .cfa: x29 48 + x19: .cfa -8 + ^ x20: .cfa -16 + ^ x21: .cfa -32 + ^ .ra: .cfa -40 + ^ x29: .cfa -48 + ^
STACK CFI 2b334 .cfa: sp 80 +
STACK CFI 2b344 .cfa: sp 0 +
STACK CFI 2b348 .cfa: x29 48 +
STACK CFI 2b39c .cfa: sp 80 +
STACK CFI 2b3ac .cfa: sp 0 +
STACK CFI 2b3b0 .cfa: x29 48 +
STACK CFI INIT 2b468 160 .cfa: sp 0 +
STACK CFI 2b46c .cfa: sp 80 +
STACK CFI 2b47c .cfa: x29 48 + x19: .cfa -8 + ^ x20: .cfa -16 + ^ x21: .cfa -32 + ^ .ra: .cfa -40 + ^ x29: .cfa -48 + ^
STACK CFI 2b518 .cfa: sp 80 +
STACK CFI 2b528 .cfa: sp 0 +
STACK CFI 2b52c .cfa: x29 48 +
STACK CFI 2b580 .cfa: sp 80 +
STACK CFI 2b590 .cfa: sp 0 +
STACK CFI 2b594 .cfa: x29 48 +
STACK CFI INIT 2b650 160 .cfa: sp 0 +
STACK CFI 2b654 .cfa: sp 80 +
STACK CFI 2b664 .cfa: x29 48 + x19: .cfa -8 + ^ x20: .cfa -16 + ^ x21: .cfa -32 + ^ .ra: .cfa -40 + ^ x29: .cfa -48 + ^
STACK CFI 2b700 .cfa: sp 80 +
STACK CFI 2b710 .cfa: sp 0 +
STACK CFI 2b714 .cfa: x29 48 +
STACK CFI 2b768 .cfa: sp 80 +
STACK CFI 2b778 .cfa: sp 0 +
STACK CFI 2b77c .cfa: x29 48 +
STACK CFI INIT 2b7dc 174 .cfa: sp 0 +
STACK CFI 2b7e0 .cfa: sp 112 +
STACK CFI 2b7f0 .cfa: x29 48 + x19: .cfa -8 + ^ x20: .cfa -16 + ^ x21: .cfa -32 + ^ .ra: .cfa -40 + ^ x29: .cfa -48 + ^
STACK CFI 2b8ec .cfa: sp 112 +
STACK CFI 2b8fc .cfa: sp 0 +
STACK CFI 2b900 .cfa: x29 48 +
STACK CFI INIT 2baa0 12c .cfa: sp 0 +
STACK CFI 2baa4 .cfa: sp 80 +
STACK CFI 2bab4 .cfa: x29 48 + x19: .cfa -8 + ^ x20: .cfa -16 + ^ x21: .cfa -32 + ^ .ra: .cfa -40 + ^ x29: .cfa -48 + ^
STACK CFI 2bb4c .cfa: sp 80 +
STACK CFI 2bb5c .cfa: sp 0 +
STACK CFI 2bb60 .cfa: x29 48 +
STACK CFI INIT 2bbcc 634 .cfa: sp 0 +
STACK CFI 2bbd0 .cfa: sp 240 +
STACK CFI 2bbf0 .cfa: x29 96 + x19: .cfa -8 + ^ x20: .cfa -16 + ^ x21: .cfa -24 + ^ x22: .cfa -32 + ^ x23: .cfa -40 + ^ x24: .cfa -48 + ^ x25: .cfa -56 + ^ x26: .cfa -64 + ^ x27: .cfa -72 + ^ x28: .cfa -80 + ^ .ra: .cfa -88 + ^ x29: .cfa -96 + ^ v8: .cfa -112 + ^
STACK CFI 2c0c8 .cfa: sp 240 +
STACK CFI 2c0e8 .cfa: sp 0 +
STACK CFI 2c0ec .cfa: x29 96 +
STACK CFI INIT 2c3e8 1b0 .cfa: sp 0 +
STACK CFI 2c3ec .cfa: sp 80 +
STACK CFI 2c3f8 .cfa: x29 32 + x19: .cfa -8 + ^ x20: .cfa -16 + ^ .ra: .cfa -24 + ^ x29: .cfa -32 + ^
STACK CFI 2c4bc .cfa: sp 80 +
STACK CFI 2c4c8 .cfa: sp 0 +
STACK CFI 2c4cc .cfa: x29 32 +
STACK CFI INIT 2c688 134 .cfa: sp 0 +
STACK CFI 2c68c .cfa: sp 80 +
STACK CFI 2c698 .cfa: x29 32 + x19: .cfa -8 + ^ x20: .cfa -16 + ^ .ra: .cfa -24 + ^ x29: .cfa -32 + ^
STACK CFI 2c6c8 .cfa: sp 80 +
STACK CFI 2c6d4 .cfa: sp 0 +
STACK CFI 2c6d8 .cfa: x29 32 +
STACK CFI INIT 2c7bc 78 .cfa: sp 0 +
STACK CFI 2c7c0 .cfa: sp 32 +
STACK CFI 2c7c8 .cfa: x29 32 + x19: .cfa -8 + ^ x20: .cfa -16 + ^ .ra: .cfa -24 + ^ x29: .cfa -32 + ^
STACK CFI 2c7d4 .cfa: sp 32 +
STACK CFI 2c7dc .cfa: sp 0 +
STACK CFI 2c7e0 .cfa: x29 32 +
STACK CFI INIT 2c834 74 .cfa: sp 0 +
STACK CFI 2c838 .cfa: sp 48 +
STACK CFI 2c844 .cfa: x29 32 + x19: .cfa -8 + ^ x20: .cfa -16 + ^ .ra: .cfa -24 + ^ x29: .cfa -32 + ^
STACK CFI 2c890 .cfa: sp 48 +
STACK CFI 2c89c .cfa: sp 0 +
STACK CFI 2c8a0 .cfa: x29 32 +
STACK CFI INIT 2c930 25c .cfa: sp 0 +
STACK CFI 2c934 .cfa: sp 128 +
STACK CFI 2c944 .cfa: x29 48 + x19: .cfa -8 + ^ x20: .cfa -16 + ^ x21: .cfa -32 + ^ .ra: .cfa -40 + ^ x29: .cfa -48 + ^
STACK CFI 2ca2c .cfa: sp 128 +
STACK CFI 2ca3c .cfa: sp 0 +
STACK CFI 2ca40 .cfa: x29 48 +
STACK CFI INIT 2cbb0 1b8 .cfa: sp 0 +
STACK CFI 2cbb4 .cfa: sp 160 +
STACK CFI 2cbd0 .cfa: x29 72 + x19: .cfa -8 + ^ x20: .cfa -16 + ^ x21: .cfa -24 + ^ x22: .cfa -32 + ^ x23: .cfa -40 + ^ x24: .cfa -48 + ^ x25: .cfa -56 + ^ .ra: .cfa -64 + ^ x29: .cfa -72 + ^ v8: .cfa -80 + ^
STACK CFI 2cc54 .cfa: sp 160 +
STACK CFI 2cc70 .cfa: sp 0 +
STACK CFI 2cc74 .cfa: x29 72 +
STACK CFI INIT 2cd68 16c .cfa: sp 0 +
STACK CFI 2cd6c .cfa: sp 64 +
STACK CFI 2cd7c .cfa: x29 48 + x19: .cfa -8 + ^ x20: .cfa -16 + ^ x21: .cfa -24 + ^ x22: .cfa -32 + ^ .ra: .cfa -40 + ^ x29: .cfa -48 + ^
STACK CFI 2ce74 .cfa: sp 64 +
STACK CFI 2ce84 .cfa: sp 0 +
STACK CFI 2ce88 .cfa: x29 48 +
STACK CFI INIT 2ced8 2a0 .cfa: sp 0 +
STACK CFI 2cedc .cfa: sp 144 +
STACK CFI 2cef0 .cfa: x29 64 + x19: .cfa -8 + ^ x20: .cfa -16 + ^ x21: .cfa -24 + ^ x22: .cfa -32 + ^ x23: .cfa -48 + ^ .ra: .cfa -56 + ^ x29: .cfa -64 + ^
STACK CFI 2d024 .cfa: sp 144 +
STACK CFI 2d038 .cfa: sp 0 +
STACK CFI 2d03c .cfa: x29 64 +
STACK CFI INIT 2d178 4f4 .cfa: sp 0 +
STACK CFI 2d17c .cfa: sp 144 +
STACK CFI 2d190 .cfa: x29 64 + x19: .cfa -8 + ^ x20: .cfa -16 + ^ x21: .cfa -24 + ^ x22: .cfa -32 + ^ x23: .cfa -48 + ^ .ra: .cfa -56 + ^ x29: .cfa -64 + ^
STACK CFI 2d4c4 .cfa: sp 144 +
STACK CFI 2d4d8 .cfa: sp 0 +
STACK CFI 2d4dc .cfa: x29 64 +
STACK CFI INIT 2d66c 154 .cfa: sp 0 +
STACK CFI 2d670 .cfa: sp 384 +
STACK CFI 2d684 .cfa: x29 64 + x19: .cfa -8 + ^ x20: .cfa -16 + ^ x21: .cfa -24 + ^ x22: .cfa -32 + ^ x23: .cfa -40 + ^ x28: .cfa -48 + ^ .ra: .cfa -56 + ^ x29: .cfa -64 + ^
STACK CFI 2d768 .cfa: sp 384 +
STACK CFI 2d77c .cfa: sp 0 +
STACK CFI 2d780 .cfa: x29 64 +
STACK CFI INIT 2d7c0 168 .cfa: sp 0 +
STACK CFI 2d7c4 .cfa: sp 384 +
STACK CFI 2d7d8 .cfa: x29 64 + x19: .cfa -8 + ^ x20: .cfa -16 + ^ x21: .cfa -24 + ^ x22: .cfa -32 + ^ x23: .cfa -40 + ^ x28: .cfa -48 + ^ .ra: .cfa -56 + ^ x29: .cfa -64 + ^
STACK CFI 2d8d0 .cfa: sp 384 +
STACK CFI 2d8e4 .cfa: sp 0 +
STACK CFI 2d8e8 .cfa: x29 64 +
STACK CFI INIT 2d940 50c .cfa: sp 0 +
STACK CFI 2d944 .cfa: sp 64 +
STACK CFI 2d954 .cfa: x29 64 + x19: .cfa -8 + ^ x20: .cfa -16 + ^ x21: .cfa -24 + ^ x22: .cfa -32 + ^ x23: .cfa -40 + ^ x24: .cfa -48 + ^ .ra: .cfa -56 + ^ x29: .cfa -64 + ^
STACK CFI 2da74 .cfa: sp 64 +
STACK CFI 2da84 .cfa: sp 0 +
STACK CFI 2da88 .cfa: x29 64 +
STACK CFI 2de20 .cfa: sp 64 +
STACK CFI 2de30 .cfa: sp 0 +
STACK CFI 2de34 .cfa: x29 64 +
STACK CFI INIT 2e17c 294 .cfa: sp 0 +
STACK CFI 2e180 .cfa: sp 240 +
STACK CFI 2e198 .cfa: x29 80 + x19: .cfa -8 + ^ x20: .cfa -16 + ^ x21: .cfa -24 + ^ x22: .cfa -32 + ^ x23: .cfa -40 + ^ x24: .cfa -48 + ^ x25: .cfa -64 + ^ .ra: .cfa -72 + ^ x29: .cfa -80 + ^
STACK CFI 2e338 .cfa: sp 240 +
STACK CFI 2e350 .cfa: sp 0 +
STACK CFI 2e354 .cfa: x29 80 +
STACK CFI INIT 2e48c 50 .cfa: sp 0 +
STACK CFI 2e490 .cfa: sp 32 +
STACK CFI 2e498 .cfa: x29 32 + x19: .cfa -8 + ^ x20: .cfa -16 + ^ .ra: .cfa -24 + ^ x29: .cfa -32 + ^
STACK CFI INIT 2e508 7c0 .cfa: sp 0 +
STACK CFI 2e50c .cfa: sp 320 +
STACK CFI 2e528 .cfa: x29 96 + x19: .cfa -8 + ^ x20: .cfa -16 + ^ x21: .cfa -24 + ^ x22: .cfa -32 + ^ x23: .cfa -40 + ^ x24: .cfa -48 + ^ x25: .cfa -56 + ^ x26: .cfa -64 + ^ x27: .cfa -72 + ^ x28: .cfa -80 + ^ .ra: .cfa -88 + ^ x29: .cfa -96 + ^
STACK CFI 2eb78 .cfa: sp 320 +
STACK CFI 2eb94 .cfa: sp 0 +
STACK CFI 2eb98 .cfa: x29 96 +
STACK CFI INIT 2ed2c 13c .cfa: sp 0 +
STACK CFI 2ed30 .cfa: sp 80 +
STACK CFI 2ed44 .cfa: x29 80 + x19: .cfa -8 + ^ x20: .cfa -16 + ^ x21: .cfa -24 + ^ x22: .cfa -32 + ^ x23: .cfa -40 + ^ x24: .cfa -48 + ^ x28: .cfa -64 + ^ .ra: .cfa -72 + ^ x29: .cfa -80 + ^
STACK CFI 2edd8 .cfa: sp 80 +
STACK CFI 2edec .cfa: sp 0 +
STACK CFI 2edf0 .cfa: x29 80 +
STACK CFI INIT 33184 c74 .cfa: sp 0 +
STACK CFI 33188 .cfa: sp 96 +
STACK CFI 331a0 .cfa: x29 96 + x19: .cfa -8 + ^ x20: .cfa -16 + ^ x21: .cfa -24 + ^ x22: .cfa -32 + ^ x23: .cfa -40 + ^ x24: .cfa -48 + ^ x25: .cfa -56 + ^ x26: .cfa -64 + ^ x27: .cfa -72 + ^ x28: .cfa -80 + ^ .ra: .cfa -88 + ^ x29: .cfa -96 + ^
STACK CFI 33c18 .cfa: sp 96 +
STACK CFI 33c30 .cfa: sp 0 +
STACK CFI 33c34 .cfa: x29 96 +
STACK CFI INIT 33f4c 26c .cfa: sp 0 +
STACK CFI 33f50 .cfa: sp 128 +
STACK CFI 33f60 .cfa: x29 48 + x19: .cfa -8 + ^ x20: .cfa -16 + ^ x21: .cfa -24 + ^ x22: .cfa -32 + ^ .ra: .cfa -40 + ^ x29: .cfa -48 + ^
STACK CFI 34104 .cfa: sp 128 +
STACK CFI 34114 .cfa: sp 0 +
STACK CFI 34118 .cfa: x29 48 +
STACK CFI INIT 34548 3b8 .cfa: sp 0 +
STACK CFI 3454c .cfa: sp 96 +
STACK CFI 34564 .cfa: x29 96 + x19: .cfa -8 + ^ x20: .cfa -16 + ^ x21: .cfa -24 + ^ x22: .cfa -32 + ^ x23: .cfa -40 + ^ x24: .cfa -48 + ^ x25: .cfa -56 + ^ x26: .cfa -64 + ^ x27: .cfa -72 + ^ x28: .cfa -80 + ^ .ra: .cfa -88 + ^ x29: .cfa -96 + ^
STACK CFI 348a0 .cfa: sp 96 +
STACK CFI 348b8 .cfa: sp 0 +
STACK CFI 348bc .cfa: x29 96 +
STACK CFI INIT 349a0 cb4 .cfa: sp 0 +
STACK CFI 349a4 .cfa: sp 96 +
STACK CFI 349bc .cfa: x29 96 + x19: .cfa -8 + ^ x20: .cfa -16 + ^ x21: .cfa -24 + ^ x22: .cfa -32 + ^ x23: .cfa -40 + ^ x24: .cfa -48 + ^ x25: .cfa -56 + ^ x26: .cfa -64 + ^ x27: .cfa -72 + ^ x28: .cfa -80 + ^ .ra: .cfa -88 + ^ x29: .cfa -96 + ^
STACK CFI 35464 .cfa: sp 96 +
STACK CFI 3547c .cfa: sp 0 +
STACK CFI 35480 .cfa: x29 96 +
STACK CFI INIT 3593c afc .cfa: sp 0 +
STACK CFI 35940 .cfa: sp 96 +
STACK CFI 35958 .cfa: x29 96 + x19: .cfa -8 + ^ x20: .cfa -16 + ^ x21: .cfa -24 + ^ x22: .cfa -32 + ^ x23: .cfa -40 + ^ x24: .cfa -48 + ^ x25: .cfa -56 + ^ x26: .cfa -64 + ^ x27: .cfa -72 + ^ x28: .cfa -80 + ^ .ra: .cfa -88 + ^ x29: .cfa -96 + ^
STACK CFI 363ac .cfa: sp 96 +
STACK CFI 363c4 .cfa: sp 0 +
STACK CFI 363c8 .cfa: x29 96 +
STACK CFI INIT 36614 1430 .cfa: sp 0 +
STACK CFI 36618 .cfa: sp 96 +
STACK CFI 36630 .cfa: x29 96 + x19: .cfa -8 + ^ x20: .cfa -16 + ^ x21: .cfa -24 + ^ x22: .cfa -32 + ^ x23: .cfa -40 + ^ x24: .cfa -48 + ^ x25: .cfa -56 + ^ x26: .cfa -64 + ^ x27: .cfa -72 + ^ x28: .cfa -80 + ^ .ra: .cfa -88 + ^ x29: .cfa -96 + ^
STACK CFI 378cc .cfa: sp 96 +
STACK CFI 378e4 .cfa: sp 0 +
STACK CFI 378e8 .cfa: x29 96 +
STACK CFI INIT 37b68 75c .cfa: sp 0 +
STACK CFI 37b6c .cfa: sp 368 +
STACK CFI 37b88 .cfa: x29 96 + x19: .cfa -8 + ^ x20: .cfa -16 + ^ x21: .cfa -24 + ^ x22: .cfa -32 + ^ x23: .cfa -40 + ^ x24: .cfa -48 + ^ x25: .cfa -56 + ^ x26: .cfa -64 + ^ x27: .cfa -72 + ^ x28: .cfa -80 + ^ .ra: .cfa -88 + ^ x29: .cfa -96 + ^
STACK CFI 37c3c .cfa: sp 368 +
STACK CFI 37c58 .cfa: sp 0 +
STACK CFI 37c5c .cfa: x29 96 +
STACK CFI 37cb0 .cfa: sp 368 +
STACK CFI 37ccc .cfa: sp 0 +
STACK CFI 37cd0 .cfa: x29 96 +
STACK CFI INIT 38684 eb0 .cfa: sp 0 +
STACK CFI 38688 .cfa: sp 96 +
STACK CFI 386a0 .cfa: x29 96 + x19: .cfa -8 + ^ x20: .cfa -16 + ^ x21: .cfa -24 + ^ x22: .cfa -32 + ^ x23: .cfa -40 + ^ x24: .cfa -48 + ^ x25: .cfa -56 + ^ x26: .cfa -64 + ^ x27: .cfa -72 + ^ x28: .cfa -80 + ^ .ra: .cfa -88 + ^ x29: .cfa -96 + ^
STACK CFI 39348 .cfa: sp 96 +
STACK CFI 39360 .cfa: sp 0 +
STACK CFI 39364 .cfa: x29 96 +
STACK CFI INIT 398a8 1c9c .cfa: sp 0 +
STACK CFI 398ac .cfa: sp 112 +
STACK CFI 398c8 .cfa: x29 96 + x19: .cfa -8 + ^ x20: .cfa -16 + ^ x21: .cfa -24 + ^ x22: .cfa -32 + ^ x23: .cfa -40 + ^ x24: .cfa -48 + ^ x25: .cfa -56 + ^ x26: .cfa -64 + ^ x27: .cfa -72 + ^ x28: .cfa -80 + ^ .ra: .cfa -88 + ^ x29: .cfa -96 + ^ v8: .cfa -112 + ^
STACK CFI 39cb0 .cfa: sp 112 +
STACK CFI 39ccc .cfa: sp 0 +
STACK CFI 39cd0 .cfa: x29 96 +
STACK CFI INIT 3dd08 9a0 .cfa: sp 0 +
STACK CFI 3dd0c .cfa: sp 144 +
STACK CFI 3dd24 .cfa: x29 80 + x19: .cfa -8 + ^ x20: .cfa -16 + ^ x21: .cfa -24 + ^ x22: .cfa -32 + ^ x23: .cfa -40 + ^ x24: .cfa -48 + ^ x25: .cfa -64 + ^ .ra: .cfa -72 + ^ x29: .cfa -80 + ^
STACK CFI 3e624 .cfa: sp 144 +
STACK CFI 3e63c .cfa: sp 0 +
STACK CFI 3e640 .cfa: x29 80 +
STACK CFI INIT 3fbcc 57c .cfa: sp 0 +
STACK CFI 3fbd0 .cfa: sp 96 +
STACK CFI 3fbe8 .cfa: x29 96 + x19: .cfa -8 + ^ x20: .cfa -16 + ^ x21: .cfa -24 + ^ x22: .cfa -32 + ^ x23: .cfa -40 + ^ x24: .cfa -48 + ^ x25: .cfa -56 + ^ x26: .cfa -64 + ^ x27: .cfa -72 + ^ x28: .cfa -80 + ^ .ra: .cfa -88 + ^ x29: .cfa -96 + ^
STACK CFI 400ac .cfa: sp 96 +
STACK CFI 400c4 .cfa: sp 0 +
STACK CFI 400c8 .cfa: x29 96 +
STACK CFI INIT 40148 67c .cfa: sp 0 +
STACK CFI 4014c .cfa: sp 96 +
STACK CFI 40164 .cfa: x29 96 + x19: .cfa -8 + ^ x20: .cfa -16 + ^ x21: .cfa -24 + ^ x22: .cfa -32 + ^ x23: .cfa -40 + ^ x24: .cfa -48 + ^ x25: .cfa -56 + ^ x26: .cfa -64 + ^ x27: .cfa -72 + ^ x28: .cfa -80 + ^ .ra: .cfa -88 + ^ x29: .cfa -96 + ^
STACK CFI 40728 .cfa: sp 96 +
STACK CFI 40740 .cfa: sp 0 +
STACK CFI 40744 .cfa: x29 96 +
