MODULE Linux arm64 0057CEEF5CA5F2ADD4B2CA06CBE85A5C0 hiimjustin000.geode_in_pause_menu.android64.so
INFO CODE_ID EFCE5700A55CADF2D4B2CA06CBE85A5C09ED4082
INFO GENERATOR mozilla/dump_syms 2.3.4
PUBLIC 12b90 0 __on_dlclose
PUBLIC 12ba0 0 __emutls_unregister_key
PUBLIC 12ba8 0 __on_dlclose_late
PUBLIC 12bb0 0 __atexit_handler_wrapper
PUBLIC 12bc4 0 atexit
PUBLIC 12be0 0 pthread_atfork
PUBLIC 12bf0 0 unwind_phase2
PUBLIC 12d24 0 _Unwind_Resume
PUBLIC 12da8 0 unwind_phase2_forced
PUBLIC m 12e9c 0 __unw_init_local
PUBLIC m 12f44 0 __unw_get_reg
PUBLIC 12fc0 0 __unw_step_stage2
PUBLIC m 12fd4 0 __unw_get_proc_info
PUBLIC m 13014 0 __unw_resume
PUBLIC 1303c 0 libunwind::CFI_Parser<libunwind::LocalAddressSpace>::decodeFDE(libunwind::LocalAddressSpace&, unsigned long, libunwind::CFI_Parser<libunwind::LocalAddressSpace>::FDE_Info*, libunwind::CFI_Parser<libunwind::LocalAddressSpace>::CIE_Info*, bool)
PUBLIC 131cc 0 libunwind::CFI_Parser<libunwind::LocalAddressSpace>::parseCIE(libunwind::LocalAddressSpace&, unsigned long, libunwind::CFI_Parser<libunwind::LocalAddressSpace>::CIE_Info*)
PUBLIC 13494 0 libunwind::AbstractUnwindCursor::~AbstractUnwindCursor()
PUBLIC 1349c 0 libunwind::UnwindCursor<libunwind::LocalAddressSpace, libunwind::Registers_arm64>::~UnwindCursor()
PUBLIC 134a4 0 libunwind::UnwindCursor<libunwind::LocalAddressSpace, libunwind::Registers_arm64>::validReg(int)
PUBLIC 134e8 0 libunwind::UnwindCursor<libunwind::LocalAddressSpace, libunwind::Registers_arm64>::getReg(int)
PUBLIC 135d0 0 libunwind::UnwindCursor<libunwind::LocalAddressSpace, libunwind::Registers_arm64>::setReg(int, unsigned long)
PUBLIC 136b8 0 libunwind::UnwindCursor<libunwind::LocalAddressSpace, libunwind::Registers_arm64>::validFloatReg(int)
PUBLIC 136cc 0 libunwind::UnwindCursor<libunwind::LocalAddressSpace, libunwind::Registers_arm64>::getFloatReg(int)
PUBLIC 136dc 0 libunwind::UnwindCursor<libunwind::LocalAddressSpace, libunwind::Registers_arm64>::setFloatReg(int, double)
PUBLIC 136ec 0 libunwind::UnwindCursor<libunwind::LocalAddressSpace, libunwind::Registers_arm64>::step(bool)
PUBLIC 137dc 0 libunwind::UnwindCursor<libunwind::LocalAddressSpace, libunwind::Registers_arm64>::getInfo(unw_proc_info_t*)
PUBLIC 13820 0 libunwind::UnwindCursor<libunwind::LocalAddressSpace, libunwind::Registers_arm64>::jumpto()
PUBLIC 1382c 0 libunwind::UnwindCursor<libunwind::LocalAddressSpace, libunwind::Registers_arm64>::isSignalFrame()
PUBLIC 13838 0 libunwind::UnwindCursor<libunwind::LocalAddressSpace, libunwind::Registers_arm64>::getFunctionName(char*, unsigned long, unsigned long*)
PUBLIC 13864 0 libunwind::UnwindCursor<libunwind::LocalAddressSpace, libunwind::Registers_arm64>::setInfoBasedOnIPRegister(bool)
PUBLIC 13aa0 0 libunwind::UnwindCursor<libunwind::LocalAddressSpace, libunwind::Registers_arm64>::getRegisterName(int)
PUBLIC 13aac 0 libunwind::UnwindCursor<libunwind::LocalAddressSpace, libunwind::Registers_arm64>::stepThroughSigReturn(libunwind::Registers_arm64&)
PUBLIC 13bcc 0 libunwind::DwarfInstructions<libunwind::LocalAddressSpace, libunwind::Registers_arm64>::stepWithDwarf(libunwind::LocalAddressSpace&, unsigned long, unsigned long, libunwind::Registers_arm64&, bool&, bool)
PUBLIC 14060 0 libunwind::CFI_Parser<libunwind::LocalAddressSpace>::parseFDEInstructions(libunwind::LocalAddressSpace&, libunwind::CFI_Parser<libunwind::LocalAddressSpace>::FDE_Info const&, libunwind::CFI_Parser<libunwind::LocalAddressSpace>::CIE_Info const&, unsigned long, int, libunwind::CFI_Parser<libunwind::LocalAddressSpace>::PrologInfo*)
PUBLIC 14bd8 0 libunwind::DwarfInstructions<libunwind::LocalAddressSpace, libunwind::Registers_arm64>::getCFA(libunwind::LocalAddressSpace&, libunwind::CFI_Parser<libunwind::LocalAddressSpace>::PrologInfo const&, libunwind::Registers_arm64 const&)
PUBLIC 14d0c 0 libunwind::DwarfInstructions<libunwind::LocalAddressSpace, libunwind::Registers_arm64>::getSavedRegister(libunwind::LocalAddressSpace&, libunwind::Registers_arm64 const&, unsigned long, libunwind::CFI_Parser<libunwind::LocalAddressSpace>::RegisterLocation const&)
PUBLIC 14f1c 0 libunwind::LocalAddressSpace::getEncodedP(unsigned long&, unsigned long, unsigned char, unsigned long)
PUBLIC 152a8 0 libunwind::LocalAddressSpace::getULEB128(unsigned long&, unsigned long)
PUBLIC 15470 0 libunwind::DwarfInstructions<libunwind::LocalAddressSpace, libunwind::Registers_arm64>::evaluateExpression(unsigned long, libunwind::LocalAddressSpace&, libunwind::Registers_arm64 const&, unsigned long)
PUBLIC 15e34 0 libunwind::UnwindCursor<libunwind::LocalAddressSpace, libunwind::Registers_arm64>::getInfoFromDwarfSection(unsigned long, libunwind::UnwindInfoSections const&, unsigned int)
PUBLIC 16108 0 libunwind::findUnwindSectionsByPhdr(dl_phdr_info*, unsigned long, void*)
PUBLIC 16238 0 libunwind::EHHeaderParser<libunwind::LocalAddressSpace>::decodeEHHdr(libunwind::LocalAddressSpace&, unsigned long, unsigned long, libunwind::EHHeaderParser<libunwind::LocalAddressSpace>::EHHeaderInfo&)
PUBLIC 16358 0 libunwind::CFI_Parser<libunwind::LocalAddressSpace>::findFDE(libunwind::LocalAddressSpace&, unsigned long, unsigned long, unsigned long, unsigned long, libunwind::CFI_Parser<libunwind::LocalAddressSpace>::FDE_Info*, libunwind::CFI_Parser<libunwind::LocalAddressSpace>::CIE_Info*)
PUBLIC 16520 0 libunwind::EHHeaderParser<libunwind::LocalAddressSpace>::findFDE(libunwind::LocalAddressSpace&, unsigned long, unsigned long, unsigned int, libunwind::CFI_Parser<libunwind::LocalAddressSpace>::FDE_Info*, libunwind::CFI_Parser<libunwind::LocalAddressSpace>::CIE_Info*)
PUBLIC 16688 0 libunwind::EHHeaderParser<libunwind::LocalAddressSpace>::getTableEntrySize(unsigned char)
PUBLIC 16784 0 libunwind::Registers_arm64::getRegisterName(int)
PUBLIC 167b4 0 __libunwind_Registers_arm64_jumpto
PUBLIC m 16844 0 __unw_getcontext
PUBLIC 168e0 0 ModsLayerWrapper::create(cocos2d::CCLayer*)
PUBLIC 169ac 0 ModsLayerWrapper::init(cocos2d::CCLayer*)
PUBLIC 16b78 0 ModsLayerWrapper::onClose(cocos2d::CCObject*)
PUBLIC 16bd8 0 cocos2d::CCCopying::copyWithZone(cocos2d::CCZone*)
PUBLIC 16be0 0 ModsLayerWrapper::~ModsLayerWrapper()
PUBLIC 16c04 0 ModsLayerWrapper::registerWithTouchDispatcher()
PUBLIC 16c3c 0 ModsLayerWrapper::keyBackClicked()
PUBLIC 16c9c 0 ModsLayerWrapper::keyDown(cocos2d::enumKeyCodes)
PUBLIC 16cac 0 cocos2d::CCLayerRGBA::setOpacityModifyRGB(bool)
PUBLIC 16cb0 0 cocos2d::CCLayerRGBA::isOpacityModifyRGB()
PUBLIC 16cb8 0 {virtual override thunk({offset(-320)}, ModsLayerWrapper::~ModsLayerWrapper())}
PUBLIC 16cc0 0 {virtual override thunk({offset(-320)}, ModsLayerWrapper::~ModsLayerWrapper())}
PUBLIC 16ce8 0 {virtual override thunk({offset(-336)}, ModsLayerWrapper::keyBackClicked())}
PUBLIC 16d4c 0 {virtual override thunk({offset(-344)}, ModsLayerWrapper::keyDown(cocos2d::enumKeyCodes))}
PUBLIC 16d5c 0 cocos2d::CCKeyboardDelegate::keyUp(cocos2d::enumKeyCodes)
PUBLIC 16d60 0 cocos2d::CCMouseDelegate::rightKeyDown()
PUBLIC 16d64 0 cocos2d::CCMouseDelegate::rightKeyUp()
PUBLIC 16d68 0 cocos2d::CCMouseDelegate::scrollWheel(float, float)
PUBLIC 16d6c 0 {virtual override thunk({offset(-408)}, cocos2d::CCLayerRGBA::setOpacityModifyRGB(bool))}
PUBLIC 16d70 0 {virtual override thunk({offset(-408)}, cocos2d::CCLayerRGBA::isOpacityModifyRGB())}
PUBLIC 16d80 0 __aarch64_ldadd8_acq_rel
PUBLIC 16db0 0 init_have_lse_atomics
PUBLIC 16e48 0 __init_cpu_features_constructor
PUBLIC 170f4 0 __init_cpu_features
PUBLIC 17180 0 __aarch64_ldadd8_relax
PUBLIC 171b0 0 __cxx_global_var_init
PUBLIC 179f8 0 geode::modifier::ModifyBase<geode::modifier::ModifyDerive<GIPMEditorPauseLayer, EditorPauseLayer> >::~ModifyBase()
PUBLIC 17a14 0 geode::modifier::ModifyDerive<GIPMEditorPauseLayer, EditorPauseLayer>::apply()
PUBLIC 17d60 0 std::__ndk1::shared_ptr<geode::Hook>::~shared_ptr[abi:ne190000]()
PUBLIC 17db0 0 geode::impl::ResultData<geode::Hook*, std::__ndk1::basic_string<char, std::__ndk1::char_traits<char>, std::__ndk1::allocator<char> > >::~ResultData()
PUBLIC 17e24 0 std::__ndk1::vector<std::__ndk1::basic_string<char, std::__ndk1::char_traits<char>, std::__ndk1::allocator<char> >, std::__ndk1::allocator<std::__ndk1::basic_string<char, std::__ndk1::char_traits<char>, std::__ndk1::allocator<char> > > >::~vector[abi:ne190000]()
PUBLIC 17ea0 0 geode::modifier::ModifyBase<geode::modifier::ModifyDerive<GIPMEditorPauseLayer, EditorPauseLayer> >::apply()
PUBLIC 17ea4 0 __clang_call_terminate
PUBLIC 17eb4 0 geode::Mod::getSettingValue<bool>(std::__ndk1::basic_string_view<char, std::__ndk1::char_traits<char> >) const
PUBLIC 17fe0 0 std::__ndk1::basic_string<char, std::__ndk1::char_traits<char>, std::__ndk1::allocator<char> >::__throw_length_error[abi:ne190000]() const
PUBLIC 17ff4 0 std::__ndk1::__throw_length_error[abi:ne190000](char const*)
PUBLIC 18044 0 std::length_error::length_error[abi:ne190000](char const*)
PUBLIC 18074 0 std::__throw_bad_array_new_length([abi:ne190000], void)
PUBLIC 180a8 0 std::__ndk1::__tree<std::__ndk1::__value_type<std::__ndk1::basic_string<char, std::__ndk1::char_traits<char>, std::__ndk1::allocator<char> >, std::__ndk1::shared_ptr<geode::Hook> >, std::__ndk1::__map_value_compare<std::__ndk1::basic_string<char, std::__ndk1::char_traits<char>, std::__ndk1::allocator<char> >, std::__ndk1::__value_type<std::__ndk1::basic_string<char, std::__ndk1::char_traits<char>, std::__ndk1::allocator<char> >, std::__ndk1::shared_ptr<geode::Hook> >, std::__ndk1::less<std::__ndk1::basic_string<char, std::__ndk1::char_traits<char>, std::__ndk1::allocator<char> > >, true>, std::__ndk1::allocator<std::__ndk1::__value_type<std::__ndk1::basic_string<char, std::__ndk1::char_traits<char>, std::__ndk1::allocator<char> >, std::__ndk1::shared_ptr<geode::Hook> > > >::find<std::__ndk1::basic_string<char, std::__ndk1::char_traits<char>, std::__ndk1::allocator<char> > >(std::__ndk1::basic_string<char, std::__ndk1::char_traits<char>, std::__ndk1::allocator<char> > const&)
PUBLIC 181d0 0 std::__ndk1::__tree<std::__ndk1::__value_type<std::__ndk1::basic_string<char, std::__ndk1::char_traits<char>, std::__ndk1::allocator<char> >, std::__ndk1::shared_ptr<geode::Hook> >, std::__ndk1::__map_value_compare<std::__ndk1::basic_string<char, std::__ndk1::char_traits<char>, std::__ndk1::allocator<char> >, std::__ndk1::__value_type<std::__ndk1::basic_string<char, std::__ndk1::char_traits<char>, std::__ndk1::allocator<char> >, std::__ndk1::shared_ptr<geode::Hook> >, std::__ndk1::less<std::__ndk1::basic_string<char, std::__ndk1::char_traits<char>, std::__ndk1::allocator<char> > >, true>, std::__ndk1::allocator<std::__ndk1::__value_type<std::__ndk1::basic_string<char, std::__ndk1::char_traits<char>, std::__ndk1::allocator<char> >, std::__ndk1::shared_ptr<geode::Hook> > > >::__emplace_unique_key_args<std::__ndk1::basic_string<char, std::__ndk1::char_traits<char>, std::__ndk1::allocator<char> >, std::__ndk1::piecewise_construct_t const&, std::__ndk1::tuple<std::__ndk1::basic_string<char, std::__ndk1::char_traits<char>, std::__ndk1::allocator<char> > const&>, std::__ndk1::tuple<> >(std::__ndk1::basic_string<char, std::__ndk1::char_traits<char>, std::__ndk1::allocator<char> > const&, std::__ndk1::piecewise_construct_t const&, std::__ndk1::tuple<std::__ndk1::basic_string<char, std::__ndk1::char_traits<char>, std::__ndk1::allocator<char> > const&>, std::__ndk1::tuple<>)
PUBLIC 183c4 0 std::__ndk1::unique_ptr<std::__ndk1::__tree_node<std::__ndk1::__value_type<std::__ndk1::basic_string<char, std::__ndk1::char_traits<char>, std::__ndk1::allocator<char> >, std::__ndk1::shared_ptr<geode::Hook> >, void*>, std::__ndk1::__tree_node_destructor<std::__ndk1::allocator<std::__ndk1::__tree_node<std::__ndk1::__value_type<std::__ndk1::basic_string<char, std::__ndk1::char_traits<char>, std::__ndk1::allocator<char> >, std::__ndk1::shared_ptr<geode::Hook> >, void*> > > >::~unique_ptr[abi:ne190000]()
PUBLIC 18440 0 std::__ndk1::basic_string<char, std::__ndk1::char_traits<char>, std::__ndk1::allocator<char> >::__init_copy_ctor_external(char const*, unsigned long)
PUBLIC 184d4 0 std::__ndk1::__tree_balance_after_insert[abi:ne190000]<std::__ndk1::__tree_node_base<void*>*>(std::__ndk1::__tree_node_base<void*>*, std::__ndk1::__tree_node_base<void*>*)
PUBLIC 1867c 0 std::__ndk1::__throw_bad_variant_access[abi:ne190000]()
PUBLIC 186b0 0 _ZN5geode15UnwrapExceptionC2IRPNS_4HookEQsr4implE18IsStringStreamableIT_EEENS_4impl5OkTagEOS5_
PUBLIC 18804 0 std::__ndk1::basic_stringstream<char, std::__ndk1::char_traits<char>, std::__ndk1::allocator<char> >::basic_stringstream[abi:ne190000]()
PUBLIC m 18938 0 std::__ndk1::basic_stringstream<char, std::__ndk1::char_traits<char>, std::__ndk1::allocator<char> >::~basic_stringstream()
PUBLIC 189b8 0 geode::UnwrapException::~UnwrapException()
PUBLIC 189dc 0 std::__ndk1::__put_character_sequence[abi:ne190000]<char, std::__ndk1::char_traits<char> >(std::__ndk1::basic_ostream<char, std::__ndk1::char_traits<char> >, std::__ndk1::basic_ostream const*, unsigned long)
PUBLIC 18b80 0 std::__ndk1::__pad_and_output[abi:ne190000]<char, std::__ndk1::char_traits<char> >(std::__ndk1::char_traits<char>, std::__ndk1::ostreambuf_iterator const*, std::__ndk1::ostreambuf_iterator const, std::__ndk1::ostreambuf_iterator const, std::__ndk1::ios_base&, std::__ndk1::ostreambuf_iterator)
PUBLIC 18d6c 0 std::__ndk1::basic_stringbuf<char, std::__ndk1::char_traits<char>, std::__ndk1::allocator<char> >::str[abi:ne190000]() &&
PUBLIC 18edc 0 std::__ndk1::basic_stringbuf<char, std::__ndk1::char_traits<char>, std::__ndk1::allocator<char> >::__init_buf_ptrs[abi:ne190000]()
PUBLIC 19024 0 std::__ndk1::basic_string<char, std::__ndk1::char_traits<char>, std::__ndk1::allocator<char> >::__erase_external_with_move(unsigned long, unsigned long)
PUBLIC 190ac 0 std::__ndk1::shared_ptr<geode::SettingV3>::~shared_ptr[abi:ne190000]()
PUBLIC 190fc 0 std::__ndk1::shared_ptr<geode::BoolSettingV3>::~shared_ptr[abi:ne190000]()
PUBLIC 1914c 0 geode::cast::traverseTypeinfoFor(void*, geode::cast::ClassTypeinfoType const*, char const*)
PUBLIC 19250 0 geode::EventListener<geode::SettingChangedFilterV3>::EventListener(std::__ndk1::function<void (std::__ndk1::shared_ptr<geode::SettingV3>)>, geode::SettingChangedFilterV3)
PUBLIC 19344 0 geode::SettingChangedFilterV3::~SettingChangedFilterV3()
PUBLIC 19394 0 std::__ndk1::__function::__base<void (std::__ndk1::shared_ptr<geode::SettingV3>)>::~__base()
PUBLIC 19398 0 std::__ndk1::__function::__func<geode::listenForSettingChangesV3<bool, GIPMEditorPauseLayer::onModify(geode::modifier::ModifyBase<geode::modifier::ModifyDerive<GIPMEditorPauseLayer, EditorPauseLayer> >&)::{lambda(bool)#1}>(std::__ndk1::basic_string_view<char, std::__ndk1::char_traits<char> >, GIPMEditorPauseLayer::onModify(geode::modifier::ModifyBase<geode::modifier::ModifyDerive<GIPMEditorPauseLayer, EditorPauseLayer> >&)::{lambda(bool)#1}&&, geode::Mod*)::{lambda(std::__ndk1::shared_ptr<geode::SettingV3>)#1}, std::__ndk1::allocator<geode::listenForSettingChangesV3<bool, GIPMEditorPauseLayer::onModify(geode::modifier::ModifyBase<geode::modifier::ModifyDerive<GIPMEditorPauseLayer, EditorPauseLayer> >&)::{lambda(bool)#1}>(std::__ndk1::basic_string_view<char, std::__ndk1::char_traits<char> >, GIPMEditorPauseLayer::onModify(geode::modifier::ModifyBase<geode::modifier::ModifyDerive<GIPMEditorPauseLayer, EditorPauseLayer> >&)::{lambda(bool)#1}&&, geode::Mod*)::{lambda(std::__ndk1::shared_ptr<geode::SettingV3>)#1}>, void (std::__ndk1::shared_ptr<geode::SettingV3>)>::~__func()
PUBLIC 1939c 0 std::__ndk1::__function::__func<geode::listenForSettingChangesV3<bool, GIPMEditorPauseLayer::onModify(geode::modifier::ModifyBase<geode::modifier::ModifyDerive<GIPMEditorPauseLayer, EditorPauseLayer> >&)::{lambda(bool)#1}>(std::__ndk1::basic_string_view<char, std::__ndk1::char_traits<char> >, GIPMEditorPauseLayer::onModify(geode::modifier::ModifyBase<geode::modifier::ModifyDerive<GIPMEditorPauseLayer, EditorPauseLayer> >&)::{lambda(bool)#1}&&, geode::Mod*)::{lambda(std::__ndk1::shared_ptr<geode::SettingV3>)#1}, std::__ndk1::allocator<geode::listenForSettingChangesV3<bool, GIPMEditorPauseLayer::onModify(geode::modifier::ModifyBase<geode::modifier::ModifyDerive<GIPMEditorPauseLayer, EditorPauseLayer> >&)::{lambda(bool)#1}>(std::__ndk1::basic_string_view<char, std::__ndk1::char_traits<char> >, GIPMEditorPauseLayer::onModify(geode::modifier::ModifyBase<geode::modifier::ModifyDerive<GIPMEditorPauseLayer, EditorPauseLayer> >&)::{lambda(bool)#1}&&, geode::Mod*)::{lambda(std::__ndk1::shared_ptr<geode::SettingV3>)#1}>, void (std::__ndk1::shared_ptr<geode::SettingV3>)>::__clone() const
PUBLIC 193d0 0 std::__ndk1::__function::__func<geode::listenForSettingChangesV3<bool, GIPMEditorPauseLayer::onModify(geode::modifier::ModifyBase<geode::modifier::ModifyDerive<GIPMEditorPauseLayer, EditorPauseLayer> >&)::{lambda(bool)#1}>(std::__ndk1::basic_string_view<char, std::__ndk1::char_traits<char> >, GIPMEditorPauseLayer::onModify(geode::modifier::ModifyBase<geode::modifier::ModifyDerive<GIPMEditorPauseLayer, EditorPauseLayer> >&)::{lambda(bool)#1}&&, geode::Mod*)::{lambda(std::__ndk1::shared_ptr<geode::SettingV3>)#1}, std::__ndk1::allocator<geode::listenForSettingChangesV3<bool, GIPMEditorPauseLayer::onModify(geode::modifier::ModifyBase<geode::modifier::ModifyDerive<GIPMEditorPauseLayer, EditorPauseLayer> >&)::{lambda(bool)#1}>(std::__ndk1::basic_string_view<char, std::__ndk1::char_traits<char> >, GIPMEditorPauseLayer::onModify(geode::modifier::ModifyBase<geode::modifier::ModifyDerive<GIPMEditorPauseLayer, EditorPauseLayer> >&)::{lambda(bool)#1}&&, geode::Mod*)::{lambda(std::__ndk1::shared_ptr<geode::SettingV3>)#1}>, void (std::__ndk1::shared_ptr<geode::SettingV3>)>::__clone(std::__ndk1::__function::__base<void (std::__ndk1::shared_ptr<geode::SettingV3>)>*) const
PUBLIC 193e4 0 std::__ndk1::__function::__func<geode::listenForSettingChangesV3<bool, GIPMEditorPauseLayer::onModify(geode::modifier::ModifyBase<geode::modifier::ModifyDerive<GIPMEditorPauseLayer, EditorPauseLayer> >&)::{lambda(bool)#1}>(std::__ndk1::basic_string_view<char, std::__ndk1::char_traits<char> >, GIPMEditorPauseLayer::onModify(geode::modifier::ModifyBase<geode::modifier::ModifyDerive<GIPMEditorPauseLayer, EditorPauseLayer> >&)::{lambda(bool)#1}&&, geode::Mod*)::{lambda(std::__ndk1::shared_ptr<geode::SettingV3>)#1}, std::__ndk1::allocator<geode::listenForSettingChangesV3<bool, GIPMEditorPauseLayer::onModify(geode::modifier::ModifyBase<geode::modifier::ModifyDerive<GIPMEditorPauseLayer, EditorPauseLayer> >&)::{lambda(bool)#1}>(std::__ndk1::basic_string_view<char, std::__ndk1::char_traits<char> >, GIPMEditorPauseLayer::onModify(geode::modifier::ModifyBase<geode::modifier::ModifyDerive<GIPMEditorPauseLayer, EditorPauseLayer> >&)::{lambda(bool)#1}&&, geode::Mod*)::{lambda(std::__ndk1::shared_ptr<geode::SettingV3>)#1}>, void (std::__ndk1::shared_ptr<geode::SettingV3>)>::destroy()
PUBLIC 193e8 0 std::__ndk1::__function::__func<geode::listenForSettingChangesV3<bool, GIPMEditorPauseLayer::onModify(geode::modifier::ModifyBase<geode::modifier::ModifyDerive<GIPMEditorPauseLayer, EditorPauseLayer> >&)::{lambda(bool)#1}>(std::__ndk1::basic_string_view<char, std::__ndk1::char_traits<char> >, GIPMEditorPauseLayer::onModify(geode::modifier::ModifyBase<geode::modifier::ModifyDerive<GIPMEditorPauseLayer, EditorPauseLayer> >&)::{lambda(bool)#1}&&, geode::Mod*)::{lambda(std::__ndk1::shared_ptr<geode::SettingV3>)#1}, std::__ndk1::allocator<geode::listenForSettingChangesV3<bool, GIPMEditorPauseLayer::onModify(geode::modifier::ModifyBase<geode::modifier::ModifyDerive<GIPMEditorPauseLayer, EditorPauseLayer> >&)::{lambda(bool)#1}>(std::__ndk1::basic_string_view<char, std::__ndk1::char_traits<char> >, GIPMEditorPauseLayer::onModify(geode::modifier::ModifyBase<geode::modifier::ModifyDerive<GIPMEditorPauseLayer, EditorPauseLayer> >&)::{lambda(bool)#1}&&, geode::Mod*)::{lambda(std::__ndk1::shared_ptr<geode::SettingV3>)#1}>, void (std::__ndk1::shared_ptr<geode::SettingV3>)>::destroy_deallocate()
PUBLIC 193ec 0 std::__ndk1::__function::__func<geode::listenForSettingChangesV3<bool, GIPMEditorPauseLayer::onModify(geode::modifier::ModifyBase<geode::modifier::ModifyDerive<GIPMEditorPauseLayer, EditorPauseLayer> >&)::{lambda(bool)#1}>(std::__ndk1::basic_string_view<char, std::__ndk1::char_traits<char> >, GIPMEditorPauseLayer::onModify(geode::modifier::ModifyBase<geode::modifier::ModifyDerive<GIPMEditorPauseLayer, EditorPauseLayer> >&)::{lambda(bool)#1}&&, geode::Mod*)::{lambda(std::__ndk1::shared_ptr<geode::SettingV3>)#1}, std::__ndk1::allocator<geode::listenForSettingChangesV3<bool, GIPMEditorPauseLayer::onModify(geode::modifier::ModifyBase<geode::modifier::ModifyDerive<GIPMEditorPauseLayer, EditorPauseLayer> >&)::{lambda(bool)#1}>(std::__ndk1::basic_string_view<char, std::__ndk1::char_traits<char> >, GIPMEditorPauseLayer::onModify(geode::modifier::ModifyBase<geode::modifier::ModifyDerive<GIPMEditorPauseLayer, EditorPauseLayer> >&)::{lambda(bool)#1}&&, geode::Mod*)::{lambda(std::__ndk1::shared_ptr<geode::SettingV3>)#1}>, void (std::__ndk1::shared_ptr<geode::SettingV3>)>::operator()(std::__ndk1::shared_ptr<geode::SettingV3>&&)
PUBLIC 1970c 0 std::__ndk1::__function::__func<geode::listenForSettingChangesV3<bool, GIPMEditorPauseLayer::onModify(geode::modifier::ModifyBase<geode::modifier::ModifyDerive<GIPMEditorPauseLayer, EditorPauseLayer> >&)::{lambda(bool)#1}>(std::__ndk1::basic_string_view<char, std::__ndk1::char_traits<char> >, GIPMEditorPauseLayer::onModify(geode::modifier::ModifyBase<geode::modifier::ModifyDerive<GIPMEditorPauseLayer, EditorPauseLayer> >&)::{lambda(bool)#1}&&, geode::Mod*)::{lambda(std::__ndk1::shared_ptr<geode::SettingV3>)#1}, std::__ndk1::allocator<geode::listenForSettingChangesV3<bool, GIPMEditorPauseLayer::onModify(geode::modifier::ModifyBase<geode::modifier::ModifyDerive<GIPMEditorPauseLayer, EditorPauseLayer> >&)::{lambda(bool)#1}>(std::__ndk1::basic_string_view<char, std::__ndk1::char_traits<char> >, GIPMEditorPauseLayer::onModify(geode::modifier::ModifyBase<geode::modifier::ModifyDerive<GIPMEditorPauseLayer, EditorPauseLayer> >&)::{lambda(bool)#1}&&, geode::Mod*)::{lambda(std::__ndk1::shared_ptr<geode::SettingV3>)#1}>, void (std::__ndk1::shared_ptr<geode::SettingV3>)>::target(std::type_info const&) const
PUBLIC 19728 0 std::__ndk1::__function::__func<geode::listenForSettingChangesV3<bool, GIPMEditorPauseLayer::onModify(geode::modifier::ModifyBase<geode::modifier::ModifyDerive<GIPMEditorPauseLayer, EditorPauseLayer> >&)::{lambda(bool)#1}>(std::__ndk1::basic_string_view<char, std::__ndk1::char_traits<char> >, GIPMEditorPauseLayer::onModify(geode::modifier::ModifyBase<geode::modifier::ModifyDerive<GIPMEditorPauseLayer, EditorPauseLayer> >&)::{lambda(bool)#1}&&, geode::Mod*)::{lambda(std::__ndk1::shared_ptr<geode::SettingV3>)#1}, std::__ndk1::allocator<geode::listenForSettingChangesV3<bool, GIPMEditorPauseLayer::onModify(geode::modifier::ModifyBase<geode::modifier::ModifyDerive<GIPMEditorPauseLayer, EditorPauseLayer> >&)::{lambda(bool)#1}>(std::__ndk1::basic_string_view<char, std::__ndk1::char_traits<char> >, GIPMEditorPauseLayer::onModify(geode::modifier::ModifyBase<geode::modifier::ModifyDerive<GIPMEditorPauseLayer, EditorPauseLayer> >&)::{lambda(bool)#1}&&, geode::Mod*)::{lambda(std::__ndk1::shared_ptr<geode::SettingV3>)#1}>, void (std::__ndk1::shared_ptr<geode::SettingV3>)>::target_type() const
PUBLIC 19734 0 geode::impl::ResultData<void, std::__ndk1::basic_string<char, std::__ndk1::char_traits<char>, std::__ndk1::allocator<char> > >::~ResultData()
PUBLIC 197a8 0 std::__ndk1::__variant_detail::__visitation::__base::__dispatcher<(unsigned long)0>::__dispatch[abi:ne190000]<std::__ndk1::__variant_detail::__dtor<std::__ndk1::__variant_detail::__traits<std::__ndk1::monostate, std::__ndk1::basic_string<char, std::__ndk1::char_traits<char>, std::__ndk1::allocator<char> > >, (std::__ndk1::__variant_detail::_Trait)1>::__destroy[abi:ne190000]()::{lambda(auto:1&)#1}, std::__ndk1::__variant_detail::__base<(std::__ndk1::__variant_detail::__traits<std::__ndk1::monostate, std::__ndk1::basic_string<char, std::__ndk1::char_traits<char>, std::__ndk1::allocator<char> > >)1, std::__ndk1::__variant_detail::__traits, std::__ndk1::allocator<char> >&>(std::__ndk1::__variant_detail::__dtor<std::__ndk1::__variant_detail::__traits<std::__ndk1::monostate, std::__ndk1::basic_string<char, std::__ndk1::char_traits<char>, std::__ndk1::allocator<char> > >, (std::__ndk1::__variant_detail::_Trait)1>, std::__ndk1::__variant_detail::__base<(std::__ndk1::__variant_detail::__traits<std::__ndk1::monostate, std::__ndk1::basic_string<char, std::__ndk1::char_traits<char>, std::__ndk1::allocator<char> > >)1, std::__ndk1::__variant_detail::__traits, std::__ndk1::allocator<char> >&)
PUBLIC 197ac 0 std::__ndk1::__variant_detail::__visitation::__base::__dispatcher<(unsigned long)1>::__dispatch[abi:ne190000]<std::__ndk1::__variant_detail::__dtor<std::__ndk1::__variant_detail::__traits<std::__ndk1::monostate, std::__ndk1::basic_string<char, std::__ndk1::char_traits<char>, std::__ndk1::allocator<char> > >, (std::__ndk1::__variant_detail::_Trait)1>::__destroy[abi:ne190000]()::{lambda(auto:1&)#1}, std::__ndk1::__variant_detail::__base<(std::__ndk1::__variant_detail::__traits<std::__ndk1::monostate, std::__ndk1::basic_string<char, std::__ndk1::char_traits<char>, std::__ndk1::allocator<char> > >)1, std::__ndk1::__variant_detail::__traits, std::__ndk1::allocator<char> >&>(std::__ndk1::__variant_detail::__dtor<std::__ndk1::__variant_detail::__traits<std::__ndk1::monostate, std::__ndk1::basic_string<char, std::__ndk1::char_traits<char>, std::__ndk1::allocator<char> > >, (std::__ndk1::__variant_detail::_Trait)1>, std::__ndk1::__variant_detail::__base<(std::__ndk1::__variant_detail::__traits<std::__ndk1::monostate, std::__ndk1::basic_string<char, std::__ndk1::char_traits<char>, std::__ndk1::allocator<char> > >)1, std::__ndk1::__variant_detail::__traits, std::__ndk1::allocator<char> >&)
PUBLIC 197c0 0 geode::EventListener<geode::SettingChangedFilterV3>::getPool() const
PUBLIC 197c4 0 geode::EventListener<geode::SettingChangedFilterV3>::handle(geode::Event*)
PUBLIC 19938 0 geode::EventListener<geode::SettingChangedFilterV3>::~EventListener()
PUBLIC 199d4 0 geode::EventListener<geode::SettingChangedFilterV3>::~EventListener()
PUBLIC 19a78 0 std::__ndk1::vector<std::__ndk1::basic_string<char, std::__ndk1::char_traits<char>, std::__ndk1::allocator<char> >, std::__ndk1::allocator<std::__ndk1::basic_string<char, std::__ndk1::char_traits<char>, std::__ndk1::allocator<char> > > >::__push_back_slow_path<std::__ndk1::basic_string<char, std::__ndk1::char_traits<char>, std::__ndk1::allocator<char> > const&>(std::__ndk1::basic_string<char, std::__ndk1::char_traits<char>, std::__ndk1::allocator<char> > const&)
PUBLIC 19c28 0 std::__ndk1::__split_buffer<std::__ndk1::basic_string<char, std::__ndk1::char_traits<char>, std::__ndk1::allocator<char> >, std::__ndk1::allocator<std::__ndk1::basic_string<char, std::__ndk1::char_traits<char>, std::__ndk1::allocator<char> > >&>::~__split_buffer()
PUBLIC 19c90 0 std::__ndk1::vector<std::__ndk1::basic_string<char, std::__ndk1::char_traits<char>, std::__ndk1::allocator<char> >, std::__ndk1::allocator<std::__ndk1::basic_string<char, std::__ndk1::char_traits<char>, std::__ndk1::allocator<char> > > >::__throw_length_error[abi:ne190000]() const
PUBLIC 19ca4 0 std::__ndk1::__variant_detail::__visitation::__base::__dispatcher<(unsigned long)0>::__dispatch[abi:ne190000]<std::__ndk1::__variant_detail::__dtor<std::__ndk1::__variant_detail::__traits<geode::Hook*, std::__ndk1::basic_string<char, std::__ndk1::char_traits<char>, std::__ndk1::allocator<char> > >, (std::__ndk1::__variant_detail::_Trait)1>::__destroy[abi:ne190000]()::{lambda(auto:1&)#1}, std::__ndk1::__variant_detail::__base<(std::__ndk1::__variant_detail::__traits<geode::Hook*, std::__ndk1::basic_string<char, std::__ndk1::char_traits<char>, std::__ndk1::allocator<char> > >)1, geode::Hook, std::__ndk1::allocator<char> >&>(std::__ndk1::__variant_detail::__dtor<std::__ndk1::__variant_detail::__traits<geode::Hook*, std::__ndk1::basic_string<char, std::__ndk1::char_traits<char>, std::__ndk1::allocator<char> > >, (std::__ndk1::__variant_detail::_Trait)1>, std::__ndk1::__variant_detail::__base<(std::__ndk1::__variant_detail::__traits<geode::Hook*, std::__ndk1::basic_string<char, std::__ndk1::char_traits<char>, std::__ndk1::allocator<char> > >)1, geode::Hook, std::__ndk1::allocator<char> >&)
PUBLIC 19ca8 0 std::__ndk1::__variant_detail::__visitation::__base::__dispatcher<(unsigned long)1>::__dispatch[abi:ne190000]<std::__ndk1::__variant_detail::__dtor<std::__ndk1::__variant_detail::__traits<geode::Hook*, std::__ndk1::basic_string<char, std::__ndk1::char_traits<char>, std::__ndk1::allocator<char> > >, (std::__ndk1::__variant_detail::_Trait)1>::__destroy[abi:ne190000]()::{lambda(auto:1&)#1}, std::__ndk1::__variant_detail::__base<(std::__ndk1::__variant_detail::__traits<geode::Hook*, std::__ndk1::basic_string<char, std::__ndk1::char_traits<char>, std::__ndk1::allocator<char> > >)1, geode::Hook, std::__ndk1::allocator<char> >&>(std::__ndk1::__variant_detail::__dtor<std::__ndk1::__variant_detail::__traits<geode::Hook*, std::__ndk1::basic_string<char, std::__ndk1::char_traits<char>, std::__ndk1::allocator<char> > >, (std::__ndk1::__variant_detail::_Trait)1>, std::__ndk1::__variant_detail::__base<(std::__ndk1::__variant_detail::__traits<geode::Hook*, std::__ndk1::basic_string<char, std::__ndk1::char_traits<char>, std::__ndk1::allocator<char> > >)1, geode::Hook, std::__ndk1::allocator<char> >&)
PUBLIC 19cbc 0 std::__ndk1::__tree<std::__ndk1::__value_type<std::__ndk1::basic_string<char, std::__ndk1::char_traits<char>, std::__ndk1::allocator<char> >, std::__ndk1::shared_ptr<geode::Hook> >, std::__ndk1::__map_value_compare<std::__ndk1::basic_string<char, std::__ndk1::char_traits<char>, std::__ndk1::allocator<char> >, std::__ndk1::__value_type<std::__ndk1::basic_string<char, std::__ndk1::char_traits<char>, std::__ndk1::allocator<char> >, std::__ndk1::shared_ptr<geode::Hook> >, std::__ndk1::less<std::__ndk1::basic_string<char, std::__ndk1::char_traits<char>, std::__ndk1::allocator<char> > >, true>, std::__ndk1::allocator<std::__ndk1::__value_type<std::__ndk1::basic_string<char, std::__ndk1::char_traits<char>, std::__ndk1::allocator<char> >, std::__ndk1::shared_ptr<geode::Hook> > > >::erase(std::__ndk1::__tree_const_iterator<std::__ndk1::__value_type<std::__ndk1::basic_string<char, std::__ndk1::char_traits<char>, std::__ndk1::allocator<char> >, std::__ndk1::shared_ptr<geode::Hook> >, std::__ndk1::__tree_node<std::__ndk1::__value_type<std::__ndk1::basic_string<char, std::__ndk1::char_traits<char>, std::__ndk1::allocator<char> >, std::__ndk1::shared_ptr<geode::Hook> >, void*>*, long>)
PUBLIC 19d90 0 std::__ndk1::__tree_remove[abi:ne190000]<std::__ndk1::__tree_node_base<void*>*>(std::__ndk1::__tree_node_base<void*>*, std::__ndk1::__tree_node_base<void*>*)
PUBLIC 1a158 0 std::__ndk1::__tree<std::__ndk1::__value_type<std::__ndk1::basic_string<char, std::__ndk1::char_traits<char>, std::__ndk1::allocator<char> >, std::__ndk1::shared_ptr<geode::Hook> >, std::__ndk1::__map_value_compare<std::__ndk1::basic_string<char, std::__ndk1::char_traits<char>, std::__ndk1::allocator<char> >, std::__ndk1::__value_type<std::__ndk1::basic_string<char, std::__ndk1::char_traits<char>, std::__ndk1::allocator<char> >, std::__ndk1::shared_ptr<geode::Hook> >, std::__ndk1::less<std::__ndk1::basic_string<char, std::__ndk1::char_traits<char>, std::__ndk1::allocator<char> > >, true>, std::__ndk1::allocator<std::__ndk1::__value_type<std::__ndk1::basic_string<char, std::__ndk1::char_traits<char>, std::__ndk1::allocator<char> >, std::__ndk1::shared_ptr<geode::Hook> > > >::destroy(std::__ndk1::__tree_node<std::__ndk1::__value_type<std::__ndk1::basic_string<char, std::__ndk1::char_traits<char>, std::__ndk1::allocator<char> >, std::__ndk1::shared_ptr<geode::Hook> >, void*>*)
PUBLIC 1a1e4 0 geode::modifier::AsStaticFunction_init<GIPMEditorPauseLayer, bool (GIPMEditorPauseLayer::*)(LevelEditorLayer*)>::Impl<bool (GIPMEditorPauseLayer::*)(LevelEditorLayer*)>::function(GIPMEditorPauseLayer*, LevelEditorLayer*)
PUBLIC 1a328 0 std::__ndk1::shared_ptr<tulip::hook::CallingConvention>::~shared_ptr[abi:ne190000]()
PUBLIC 1a378 0 tulip::hook::HandlerMetadata::~HandlerMetadata()
PUBLIC 1a3dc 0 GIPMEditorPauseLayer::onGeode(cocos2d::CCObject*)
PUBLIC 1a3e0 0 std::__ndk1::__tree<std::__ndk1::__value_type<std::__ndk1::basic_string<char, std::__ndk1::char_traits<char>, std::__ndk1::allocator<char> >, std::__ndk1::shared_ptr<geode::Hook> >, std::__ndk1::__map_value_compare<std::__ndk1::basic_string<char, std::__ndk1::char_traits<char>, std::__ndk1::allocator<char> >, std::__ndk1::__value_type<std::__ndk1::basic_string<char, std::__ndk1::char_traits<char>, std::__ndk1::allocator<char> >, std::__ndk1::shared_ptr<geode::Hook> >, std::__ndk1::less<std::__ndk1::basic_string<char, std::__ndk1::char_traits<char>, std::__ndk1::allocator<char> > >, true>, std::__ndk1::allocator<std::__ndk1::__value_type<std::__ndk1::basic_string<char, std::__ndk1::char_traits<char>, std::__ndk1::allocator<char> >, std::__ndk1::shared_ptr<geode::Hook> > > >::__emplace_unique_key_args<std::__ndk1::basic_string<char, std::__ndk1::char_traits<char>, std::__ndk1::allocator<char> >, std::__ndk1::piecewise_construct_t const&, std::__ndk1::tuple<std::__ndk1::basic_string<char, std::__ndk1::char_traits<char>, std::__ndk1::allocator<char> >&&>, std::__ndk1::tuple<> >(std::__ndk1::basic_string<char, std::__ndk1::char_traits<char>, std::__ndk1::allocator<char> > const&, std::__ndk1::piecewise_construct_t const&, std::__ndk1::tuple<std::__ndk1::basic_string<char, std::__ndk1::char_traits<char>, std::__ndk1::allocator<char> >&&>, std::__ndk1::tuple<>)
PUBLIC 1a558 0 __cxx_global_var_init
PUBLIC 1adac 0 geode::modifier::ModifyBase<geode::modifier::ModifyDerive<GIPMPauseLayer, PauseLayer> >::~ModifyBase()
PUBLIC 1adc8 0 geode::modifier::ModifyDerive<GIPMPauseLayer, PauseLayer>::apply()
PUBLIC 1b0e4 0 geode::modifier::ModifyBase<geode::modifier::ModifyDerive<GIPMPauseLayer, PauseLayer> >::apply()
PUBLIC 1b0e8 0 std::__ndk1::__function::__func<geode::listenForSettingChangesV3<bool, GIPMPauseLayer::onModify(geode::modifier::ModifyBase<geode::modifier::ModifyDerive<GIPMPauseLayer, PauseLayer> >&)::{lambda(bool)#1}>(std::__ndk1::basic_string_view<char, std::__ndk1::char_traits<char> >, GIPMPauseLayer::onModify(geode::modifier::ModifyBase<geode::modifier::ModifyDerive<GIPMPauseLayer, PauseLayer> >&)::{lambda(bool)#1}&&, geode::Mod*)::{lambda(std::__ndk1::shared_ptr<geode::SettingV3>)#1}, std::__ndk1::allocator<geode::listenForSettingChangesV3<bool, GIPMPauseLayer::onModify(geode::modifier::ModifyBase<geode::modifier::ModifyDerive<GIPMPauseLayer, PauseLayer> >&)::{lambda(bool)#1}>(std::__ndk1::basic_string_view<char, std::__ndk1::char_traits<char> >, GIPMPauseLayer::onModify(geode::modifier::ModifyBase<geode::modifier::ModifyDerive<GIPMPauseLayer, PauseLayer> >&)::{lambda(bool)#1}&&, geode::Mod*)::{lambda(std::__ndk1::shared_ptr<geode::SettingV3>)#1}>, void (std::__ndk1::shared_ptr<geode::SettingV3>)>::~__func()
PUBLIC 1b0ec 0 std::__ndk1::__function::__func<geode::listenForSettingChangesV3<bool, GIPMPauseLayer::onModify(geode::modifier::ModifyBase<geode::modifier::ModifyDerive<GIPMPauseLayer, PauseLayer> >&)::{lambda(bool)#1}>(std::__ndk1::basic_string_view<char, std::__ndk1::char_traits<char> >, GIPMPauseLayer::onModify(geode::modifier::ModifyBase<geode::modifier::ModifyDerive<GIPMPauseLayer, PauseLayer> >&)::{lambda(bool)#1}&&, geode::Mod*)::{lambda(std::__ndk1::shared_ptr<geode::SettingV3>)#1}, std::__ndk1::allocator<geode::listenForSettingChangesV3<bool, GIPMPauseLayer::onModify(geode::modifier::ModifyBase<geode::modifier::ModifyDerive<GIPMPauseLayer, PauseLayer> >&)::{lambda(bool)#1}>(std::__ndk1::basic_string_view<char, std::__ndk1::char_traits<char> >, GIPMPauseLayer::onModify(geode::modifier::ModifyBase<geode::modifier::ModifyDerive<GIPMPauseLayer, PauseLayer> >&)::{lambda(bool)#1}&&, geode::Mod*)::{lambda(std::__ndk1::shared_ptr<geode::SettingV3>)#1}>, void (std::__ndk1::shared_ptr<geode::SettingV3>)>::__clone() const
PUBLIC 1b120 0 std::__ndk1::__function::__func<geode::listenForSettingChangesV3<bool, GIPMPauseLayer::onModify(geode::modifier::ModifyBase<geode::modifier::ModifyDerive<GIPMPauseLayer, PauseLayer> >&)::{lambda(bool)#1}>(std::__ndk1::basic_string_view<char, std::__ndk1::char_traits<char> >, GIPMPauseLayer::onModify(geode::modifier::ModifyBase<geode::modifier::ModifyDerive<GIPMPauseLayer, PauseLayer> >&)::{lambda(bool)#1}&&, geode::Mod*)::{lambda(std::__ndk1::shared_ptr<geode::SettingV3>)#1}, std::__ndk1::allocator<geode::listenForSettingChangesV3<bool, GIPMPauseLayer::onModify(geode::modifier::ModifyBase<geode::modifier::ModifyDerive<GIPMPauseLayer, PauseLayer> >&)::{lambda(bool)#1}>(std::__ndk1::basic_string_view<char, std::__ndk1::char_traits<char> >, GIPMPauseLayer::onModify(geode::modifier::ModifyBase<geode::modifier::ModifyDerive<GIPMPauseLayer, PauseLayer> >&)::{lambda(bool)#1}&&, geode::Mod*)::{lambda(std::__ndk1::shared_ptr<geode::SettingV3>)#1}>, void (std::__ndk1::shared_ptr<geode::SettingV3>)>::__clone(std::__ndk1::__function::__base<void (std::__ndk1::shared_ptr<geode::SettingV3>)>*) const
PUBLIC 1b134 0 std::__ndk1::__function::__func<geode::listenForSettingChangesV3<bool, GIPMPauseLayer::onModify(geode::modifier::ModifyBase<geode::modifier::ModifyDerive<GIPMPauseLayer, PauseLayer> >&)::{lambda(bool)#1}>(std::__ndk1::basic_string_view<char, std::__ndk1::char_traits<char> >, GIPMPauseLayer::onModify(geode::modifier::ModifyBase<geode::modifier::ModifyDerive<GIPMPauseLayer, PauseLayer> >&)::{lambda(bool)#1}&&, geode::Mod*)::{lambda(std::__ndk1::shared_ptr<geode::SettingV3>)#1}, std::__ndk1::allocator<geode::listenForSettingChangesV3<bool, GIPMPauseLayer::onModify(geode::modifier::ModifyBase<geode::modifier::ModifyDerive<GIPMPauseLayer, PauseLayer> >&)::{lambda(bool)#1}>(std::__ndk1::basic_string_view<char, std::__ndk1::char_traits<char> >, GIPMPauseLayer::onModify(geode::modifier::ModifyBase<geode::modifier::ModifyDerive<GIPMPauseLayer, PauseLayer> >&)::{lambda(bool)#1}&&, geode::Mod*)::{lambda(std::__ndk1::shared_ptr<geode::SettingV3>)#1}>, void (std::__ndk1::shared_ptr<geode::SettingV3>)>::destroy()
PUBLIC 1b138 0 std::__ndk1::__function::__func<geode::listenForSettingChangesV3<bool, GIPMPauseLayer::onModify(geode::modifier::ModifyBase<geode::modifier::ModifyDerive<GIPMPauseLayer, PauseLayer> >&)::{lambda(bool)#1}>(std::__ndk1::basic_string_view<char, std::__ndk1::char_traits<char> >, GIPMPauseLayer::onModify(geode::modifier::ModifyBase<geode::modifier::ModifyDerive<GIPMPauseLayer, PauseLayer> >&)::{lambda(bool)#1}&&, geode::Mod*)::{lambda(std::__ndk1::shared_ptr<geode::SettingV3>)#1}, std::__ndk1::allocator<geode::listenForSettingChangesV3<bool, GIPMPauseLayer::onModify(geode::modifier::ModifyBase<geode::modifier::ModifyDerive<GIPMPauseLayer, PauseLayer> >&)::{lambda(bool)#1}>(std::__ndk1::basic_string_view<char, std::__ndk1::char_traits<char> >, GIPMPauseLayer::onModify(geode::modifier::ModifyBase<geode::modifier::ModifyDerive<GIPMPauseLayer, PauseLayer> >&)::{lambda(bool)#1}&&, geode::Mod*)::{lambda(std::__ndk1::shared_ptr<geode::SettingV3>)#1}>, void (std::__ndk1::shared_ptr<geode::SettingV3>)>::destroy_deallocate()
PUBLIC 1b13c 0 std::__ndk1::__function::__func<geode::listenForSettingChangesV3<bool, GIPMPauseLayer::onModify(geode::modifier::ModifyBase<geode::modifier::ModifyDerive<GIPMPauseLayer, PauseLayer> >&)::{lambda(bool)#1}>(std::__ndk1::basic_string_view<char, std::__ndk1::char_traits<char> >, GIPMPauseLayer::onModify(geode::modifier::ModifyBase<geode::modifier::ModifyDerive<GIPMPauseLayer, PauseLayer> >&)::{lambda(bool)#1}&&, geode::Mod*)::{lambda(std::__ndk1::shared_ptr<geode::SettingV3>)#1}, std::__ndk1::allocator<geode::listenForSettingChangesV3<bool, GIPMPauseLayer::onModify(geode::modifier::ModifyBase<geode::modifier::ModifyDerive<GIPMPauseLayer, PauseLayer> >&)::{lambda(bool)#1}>(std::__ndk1::basic_string_view<char, std::__ndk1::char_traits<char> >, GIPMPauseLayer::onModify(geode::modifier::ModifyBase<geode::modifier::ModifyDerive<GIPMPauseLayer, PauseLayer> >&)::{lambda(bool)#1}&&, geode::Mod*)::{lambda(std::__ndk1::shared_ptr<geode::SettingV3>)#1}>, void (std::__ndk1::shared_ptr<geode::SettingV3>)>::operator()(std::__ndk1::shared_ptr<geode::SettingV3>&&)
PUBLIC 1b45c 0 std::__ndk1::__function::__func<geode::listenForSettingChangesV3<bool, GIPMPauseLayer::onModify(geode::modifier::ModifyBase<geode::modifier::ModifyDerive<GIPMPauseLayer, PauseLayer> >&)::{lambda(bool)#1}>(std::__ndk1::basic_string_view<char, std::__ndk1::char_traits<char> >, GIPMPauseLayer::onModify(geode::modifier::ModifyBase<geode::modifier::ModifyDerive<GIPMPauseLayer, PauseLayer> >&)::{lambda(bool)#1}&&, geode::Mod*)::{lambda(std::__ndk1::shared_ptr<geode::SettingV3>)#1}, std::__ndk1::allocator<geode::listenForSettingChangesV3<bool, GIPMPauseLayer::onModify(geode::modifier::ModifyBase<geode::modifier::ModifyDerive<GIPMPauseLayer, PauseLayer> >&)::{lambda(bool)#1}>(std::__ndk1::basic_string_view<char, std::__ndk1::char_traits<char> >, GIPMPauseLayer::onModify(geode::modifier::ModifyBase<geode::modifier::ModifyDerive<GIPMPauseLayer, PauseLayer> >&)::{lambda(bool)#1}&&, geode::Mod*)::{lambda(std::__ndk1::shared_ptr<geode::SettingV3>)#1}>, void (std::__ndk1::shared_ptr<geode::SettingV3>)>::target(std::type_info const&) const
PUBLIC 1b478 0 std::__ndk1::__function::__func<geode::listenForSettingChangesV3<bool, GIPMPauseLayer::onModify(geode::modifier::ModifyBase<geode::modifier::ModifyDerive<GIPMPauseLayer, PauseLayer> >&)::{lambda(bool)#1}>(std::__ndk1::basic_string_view<char, std::__ndk1::char_traits<char> >, GIPMPauseLayer::onModify(geode::modifier::ModifyBase<geode::modifier::ModifyDerive<GIPMPauseLayer, PauseLayer> >&)::{lambda(bool)#1}&&, geode::Mod*)::{lambda(std::__ndk1::shared_ptr<geode::SettingV3>)#1}, std::__ndk1::allocator<geode::listenForSettingChangesV3<bool, GIPMPauseLayer::onModify(geode::modifier::ModifyBase<geode::modifier::ModifyDerive<GIPMPauseLayer, PauseLayer> >&)::{lambda(bool)#1}>(std::__ndk1::basic_string_view<char, std::__ndk1::char_traits<char> >, GIPMPauseLayer::onModify(geode::modifier::ModifyBase<geode::modifier::ModifyDerive<GIPMPauseLayer, PauseLayer> >&)::{lambda(bool)#1}&&, geode::Mod*)::{lambda(std::__ndk1::shared_ptr<geode::SettingV3>)#1}>, void (std::__ndk1::shared_ptr<geode::SettingV3>)>::target_type() const
PUBLIC 1b484 0 geode::modifier::AsStaticFunction_customSetup<GIPMPauseLayer, void (GIPMPauseLayer::*)()>::Impl<void (GIPMPauseLayer::*)()>::function(GIPMPauseLayer*)
PUBLIC 1b5f4 0 geode::addresser::Addresser::addressOfVirtual<void, PauseLayer, >(void (PauseLayer::*)())
PUBLIC 1b69c 0 PauseLayer::PauseLayer(geode::ZeroConstructorType)
PUBLIC 1b728 0 GIPMPauseLayer::onGeode(cocos2d::CCObject*)
PUBLIC 1b72c 0 GeodeInPauseMenu::openGeodeMenu()
PUBLIC 1b8d8 0 std::__ndk1::__function::__base<void ()>::~__base()
PUBLIC 1b8dc 0 std::__ndk1::__function::__func<GeodeInPauseMenu::openGeodeMenu()::$_0, std::__ndk1::allocator<GeodeInPauseMenu::openGeodeMenu()::$_0>, void ()>::~__func()
PUBLIC 1b8e0 0 std::__ndk1::__function::__func<GeodeInPauseMenu::openGeodeMenu()::$_0, std::__ndk1::allocator<GeodeInPauseMenu::openGeodeMenu()::$_0>, void ()>::__clone() const
PUBLIC 1b914 0 std::__ndk1::__function::__func<GeodeInPauseMenu::openGeodeMenu()::$_0, std::__ndk1::allocator<GeodeInPauseMenu::openGeodeMenu()::$_0>, void ()>::__clone(std::__ndk1::__function::__base<void ()>*) const
PUBLIC 1b928 0 std::__ndk1::__function::__func<GeodeInPauseMenu::openGeodeMenu()::$_0, std::__ndk1::allocator<GeodeInPauseMenu::openGeodeMenu()::$_0>, void ()>::destroy()
PUBLIC 1b92c 0 std::__ndk1::__function::__func<GeodeInPauseMenu::openGeodeMenu()::$_0, std::__ndk1::allocator<GeodeInPauseMenu::openGeodeMenu()::$_0>, void ()>::destroy_deallocate()
PUBLIC 1b930 0 std::__ndk1::__function::__func<GeodeInPauseMenu::openGeodeMenu()::$_0, std::__ndk1::allocator<GeodeInPauseMenu::openGeodeMenu()::$_0>, void ()>::operator()()
PUBLIC 1b970 0 std::__ndk1::__function::__func<GeodeInPauseMenu::openGeodeMenu()::$_0, std::__ndk1::allocator<GeodeInPauseMenu::openGeodeMenu()::$_0>, void ()>::target(std::type_info const&) const
PUBLIC 1b98c 0 std::__ndk1::__function::__func<GeodeInPauseMenu::openGeodeMenu()::$_0, std::__ndk1::allocator<GeodeInPauseMenu::openGeodeMenu()::$_0>, void ()>::target_type() const
PUBLIC 1b998 0 geode::getMod()
PUBLIC m 1b9d4 0 geodeImplicitEntry
PUBLIC 1ba10 0 std::__ndk1::unordered_map<void*, bool, std::__ndk1::hash<void*>, std::__ndk1::equal_to<void*>, std::__ndk1::allocator<std::__ndk1::pair<void* const, bool> > >::~unordered_map[abi:ne190000]()
PUBLIC 1ba5c 0 wrapFunction(unsigned long, tulip::hook::WrapperMetadata const&)
PUBLIC 1bb90 0 geode::impl::ResultData<void*, std::__ndk1::basic_string<char, std::__ndk1::char_traits<char>, std::__ndk1::allocator<char> > >::unwrapErr() &
PUBLIC 1bc08 0 geode::impl::ResultData<void*, std::__ndk1::basic_string<char, std::__ndk1::char_traits<char>, std::__ndk1::allocator<char> > >::~ResultData()
PUBLIC 1bc7c 0 tulip::hook::WrapperMetadata::~WrapperMetadata()
PUBLIC 1bce0 0 cocos2d::CCObject::~CCObject()
PUBLIC 1bd04 0 cocos2d::CCNode::~CCNode()
PUBLIC 1bd28 0 {virtual override thunk({offset(-320)}, cocos2d::CCLayer::~CCLayer())}
PUBLIC 1bd30 0 cocos2d::CCLayer::~CCLayer()
PUBLIC 1bd54 0 {virtual override thunk({offset(-320)}, cocos2d::CCLayer::~CCLayer())}
PUBLIC 1bd7c 0 cocos2d::CCLayerRGBA::~CCLayerRGBA()
PUBLIC 1c054 0 {virtual override thunk({offset(-320)}, cocos2d::CCLayerRGBA::~CCLayerRGBA())}
PUBLIC 1c05c 0 cocos2d::CCLayerRGBA::~CCLayerRGBA()
PUBLIC 1c080 0 {virtual override thunk({offset(-320)}, cocos2d::CCLayerRGBA::~CCLayerRGBA())}
PUBLIC 1c0a8 0 cocos2d::CCLayerColor::CCLayerColor()
PUBLIC 1c2f8 0 {virtual override thunk({offset(-320)}, cocos2d::CCLayerColor::~CCLayerColor())}
PUBLIC 1c300 0 cocos2d::CCLayerColor::~CCLayerColor()
PUBLIC 1c324 0 {virtual override thunk({offset(-320)}, cocos2d::CCLayerColor::~CCLayerColor())}
PUBLIC 1c34c 0 FLAlertLayer::FLAlertLayer()
PUBLIC 1c3e8 0 {virtual override thunk({offset(-320)}, FLAlertLayer::~FLAlertLayer())}
PUBLIC 1c3f0 0 FLAlertLayer::~FLAlertLayer()
PUBLIC 1c414 0 {virtual override thunk({offset(-320)}, FLAlertLayer::~FLAlertLayer())}
PUBLIC 1c43c 0 CCMenuItemSpriteExtra::create(cocos2d::CCNode*, cocos2d::CCObject*, void (cocos2d::CCObject::*)(cocos2d::CCObject*))
PUBLIC 1c450 0 cocos2d::CCObject::update(float)
PUBLIC 1c454 0 cocos2d::CCLayerColor::~CCLayerColor()
PUBLIC 1c710 0 cocos2d::CCLayer::~CCLayer()
PUBLIC 1c9d8 0 cocos2d::CCNode::~CCNode()
PUBLIC 1cc50 0 FLAlertLayer::~FLAlertLayer()
PUBLIC 1cf0c 0 cocos2d::CCObject::~CCObject()
PUBLIC 1d3d8 0 _ZN5geode15UnwrapExceptionC2IRPvQsr4implE18IsStringStreamableIT_EEENS_4impl5OkTagEOS4_
PUBLIC 1d52c 0 _ZN5geode15UnwrapExceptionC2IRNSt6__ndk112basic_stringIcNS2_11char_traitsIcEENS2_9allocatorIcEEEEQsr4implE18IsStringStreamableIT_EEENS_4impl6ErrTagEOSA_
PUBLIC 1d694 0 std::__ndk1::__variant_detail::__visitation::__base::__dispatcher<(unsigned long)0>::__dispatch[abi:ne190000]<std::__ndk1::__variant_detail::__dtor<std::__ndk1::__variant_detail::__traits<void*, std::__ndk1::basic_string<char, std::__ndk1::char_traits<char>, std::__ndk1::allocator<char> > >, (std::__ndk1::__variant_detail::_Trait)1>::__destroy[abi:ne190000]()::{lambda(auto:1&)#1}, std::__ndk1::__variant_detail::__base<(std::__ndk1::__variant_detail::__traits<void*, std::__ndk1::basic_string<char, std::__ndk1::char_traits<char>, std::__ndk1::allocator<char> > >)1, std::__ndk1::__variant_detail::__traits, std::__ndk1::allocator<char> >&>(std::__ndk1::__variant_detail::__dtor<std::__ndk1::__variant_detail::__traits<void*, std::__ndk1::basic_string<char, std::__ndk1::char_traits<char>, std::__ndk1::allocator<char> > >, (std::__ndk1::__variant_detail::_Trait)1>, std::__ndk1::__variant_detail::__base<(std::__ndk1::__variant_detail::__traits<void*, std::__ndk1::basic_string<char, std::__ndk1::char_traits<char>, std::__ndk1::allocator<char> > >)1, std::__ndk1::__variant_detail::__traits, std::__ndk1::allocator<char> >&)
PUBLIC 1d698 0 std::__ndk1::__variant_detail::__visitation::__base::__dispatcher<(unsigned long)1>::__dispatch[abi:ne190000]<std::__ndk1::__variant_detail::__dtor<std::__ndk1::__variant_detail::__traits<void*, std::__ndk1::basic_string<char, std::__ndk1::char_traits<char>, std::__ndk1::allocator<char> > >, (std::__ndk1::__variant_detail::_Trait)1>::__destroy[abi:ne190000]()::{lambda(auto:1&)#1}, std::__ndk1::__variant_detail::__base<(std::__ndk1::__variant_detail::__traits<void*, std::__ndk1::basic_string<char, std::__ndk1::char_traits<char>, std::__ndk1::allocator<char> > >)1, std::__ndk1::__variant_detail::__traits, std::__ndk1::allocator<char> >&>(std::__ndk1::__variant_detail::__dtor<std::__ndk1::__variant_detail::__traits<void*, std::__ndk1::basic_string<char, std::__ndk1::char_traits<char>, std::__ndk1::allocator<char> > >, (std::__ndk1::__variant_detail::_Trait)1>, std::__ndk1::__variant_detail::__base<(std::__ndk1::__variant_detail::__traits<void*, std::__ndk1::basic_string<char, std::__ndk1::char_traits<char>, std::__ndk1::allocator<char> > >)1, std::__ndk1::__variant_detail::__traits, std::__ndk1::allocator<char> >&)
PUBLIC 1d6ac 0 std::__ndk1::__hash_table<std::__ndk1::__hash_value_type<void*, bool>, std::__ndk1::__unordered_map_hasher<void*, std::__ndk1::__hash_value_type<void*, bool>, std::__ndk1::hash<void*>, std::__ndk1::equal_to<void*>, true>, std::__ndk1::__unordered_map_equal<void*, std::__ndk1::__hash_value_type<void*, bool>, std::__ndk1::equal_to<void*>, std::__ndk1::hash<void*>, true>, std::__ndk1::allocator<std::__ndk1::__hash_value_type<void*, bool> > >::__emplace_unique_key_args<void*, std::__ndk1::piecewise_construct_t const&, std::__ndk1::tuple<void* const&>, std::__ndk1::tuple<> >(void* const&, std::__ndk1::piecewise_construct_t const&, std::__ndk1::tuple<void* const&>, std::__ndk1::tuple<>)
PUBLIC 1db90 0 <.plt ELF section in hiimjustin000.geode_in_pause_menu.android64.so>
STACK CFI INIT 12b90 10 .cfa: sp 0 +
STACK CFI INIT 12ba0 8 .cfa: sp 0 +
STACK CFI INIT 12ba8 8 .cfa: sp 0 +
STACK CFI INIT 12bb0 14 .cfa: sp 0 +
STACK CFI INIT 12bc4 1c .cfa: sp 0 +
STACK CFI INIT 12be0 10 .cfa: sp 0 +
STACK CFI INIT 12bf0 134 .cfa: sp 0 +
STACK CFI INIT 12d24 84 .cfa: sp 0 +
STACK CFI INIT 12da8 f4 .cfa: sp 0 +
STACK CFI INIT 12e9c a8 .cfa: sp 0 +
STACK CFI INIT 12f44 7c .cfa: sp 0 +
STACK CFI INIT 12fc0 14 .cfa: sp 0 +
STACK CFI INIT 12fd4 40 .cfa: sp 0 +
STACK CFI INIT 13014 28 .cfa: sp 0 +
STACK CFI INIT 1303c 190 .cfa: sp 0 +
STACK CFI INIT 131cc 2c8 .cfa: sp 0 +
STACK CFI INIT 13494 8 .cfa: sp 0 +
STACK CFI INIT 1349c 8 .cfa: sp 0 +
STACK CFI INIT 134a4 44 .cfa: sp 0 +
STACK CFI INIT 134e8 e8 .cfa: sp 0 +
STACK CFI INIT 135d0 e8 .cfa: sp 0 +
STACK CFI INIT 136b8 14 .cfa: sp 0 +
STACK CFI INIT 136cc 10 .cfa: sp 0 +
STACK CFI INIT 136dc 10 .cfa: sp 0 +
STACK CFI INIT 136ec f0 .cfa: sp 0 +
STACK CFI INIT 137dc 44 .cfa: sp 0 +
STACK CFI INIT 13820 c .cfa: sp 0 +
STACK CFI INIT 1382c c .cfa: sp 0 +
STACK CFI INIT 13838 2c .cfa: sp 0 +
STACK CFI INIT 13864 23c .cfa: sp 0 +
STACK CFI INIT 13aa0 c .cfa: sp 0 +
STACK CFI INIT 13aac 120 .cfa: sp 0 +
STACK CFI INIT 13bcc 494 .cfa: sp 0 +
STACK CFI INIT 14060 b78 .cfa: sp 0 +
STACK CFI INIT 14bd8 134 .cfa: sp 0 +
STACK CFI INIT 14d0c 210 .cfa: sp 0 +
STACK CFI INIT 14f1c 38c .cfa: sp 0 +
STACK CFI INIT 152a8 1c8 .cfa: sp 0 +
STACK CFI INIT 15470 9c4 .cfa: sp 0 +
STACK CFI INIT 15e34 2d4 .cfa: sp 0 +
STACK CFI INIT 16108 130 .cfa: sp 0 +
STACK CFI INIT 16238 120 .cfa: sp 0 +
STACK CFI INIT 16358 1c8 .cfa: sp 0 +
STACK CFI INIT 16520 168 .cfa: sp 0 +
STACK CFI INIT 16688 fc .cfa: sp 0 +
STACK CFI INIT 16784 30 .cfa: sp 0 +
STACK CFI INIT 16b78 60 .cfa: sp 0 +
STACK CFI 16b7c .cfa: sp 32 +
STACK CFI 16b84 .cfa: x29 32 + x19: .cfa -16 + ^ .ra: .cfa -24 + ^ x29: .cfa -32 + ^
STACK CFI 16bcc .cfa: sp 32 +
STACK CFI 16bd4 .cfa: sp 0 +
STACK CFI INIT 16bd8 8 .cfa: sp 0 +
STACK CFI INIT 16be0 24 .cfa: sp 0 +
STACK CFI 16be4 .cfa: sp 32 +
STACK CFI 16bec .cfa: x29 32 + x19: .cfa -16 + ^ .ra: .cfa -24 + ^ x29: .cfa -32 + ^
STACK CFI 16bf8 .cfa: sp 32 +
STACK CFI 16c00 .cfa: sp 0 +
STACK CFI INIT 16c04 38 .cfa: sp 0 +
STACK CFI 16c08 .cfa: sp 32 +
STACK CFI 16c10 .cfa: x29 32 + x19: .cfa -16 + ^ .ra: .cfa -24 + ^ x29: .cfa -32 + ^
STACK CFI 16c30 .cfa: sp 32 +
STACK CFI 16c38 .cfa: sp 0 +
STACK CFI INIT 16c3c 60 .cfa: sp 0 +
STACK CFI 16c40 .cfa: sp 32 +
STACK CFI 16c48 .cfa: x29 32 + x19: .cfa -16 + ^ .ra: .cfa -24 + ^ x29: .cfa -32 + ^
STACK CFI 16c90 .cfa: sp 32 +
STACK CFI 16c98 .cfa: sp 0 +
STACK CFI INIT 16c9c 10 .cfa: sp 0 +
STACK CFI INIT 16cac 4 .cfa: sp 0 +
STACK CFI INIT 16cb0 8 .cfa: sp 0 +
STACK CFI INIT 16cb8 8 .cfa: sp 0 +
STACK CFI INIT 16cc0 28 .cfa: sp 0 +
STACK CFI 16cc4 .cfa: sp 32 +
STACK CFI 16ccc .cfa: x29 32 + x19: .cfa -16 + ^ .ra: .cfa -24 + ^ x29: .cfa -32 + ^
STACK CFI 16cdc .cfa: sp 32 +
STACK CFI 16ce4 .cfa: sp 0 +
STACK CFI INIT 16ce8 64 .cfa: sp 0 +
STACK CFI 16cec .cfa: sp 32 +
STACK CFI 16cf4 .cfa: x29 32 + x19: .cfa -16 + ^ .ra: .cfa -24 + ^ x29: .cfa -32 + ^
STACK CFI 16d40 .cfa: sp 32 +
STACK CFI 16d48 .cfa: sp 0 +
STACK CFI INIT 16d4c 10 .cfa: sp 0 +
STACK CFI INIT 16d5c 4 .cfa: sp 0 +
STACK CFI INIT 16d60 4 .cfa: sp 0 +
STACK CFI INIT 16d64 4 .cfa: sp 0 +
STACK CFI INIT 16d68 4 .cfa: sp 0 +
STACK CFI INIT 16d6c 4 .cfa: sp 0 +
STACK CFI INIT 16d70 8 .cfa: sp 0 +
STACK CFI INIT 16d80 30 .cfa: sp 0 +
STACK CFI INIT 16db0 98 .cfa: sp 0 +
STACK CFI INIT 16e48 2ac .cfa: sp 0 +
STACK CFI INIT 170f4 8c .cfa: sp 0 +
STACK CFI INIT 17180 30 .cfa: sp 0 +
STACK CFI INIT 179f8 1c .cfa: sp 0 +
STACK CFI INIT 17d60 50 .cfa: sp 0 +
STACK CFI 17d64 .cfa: sp 32 +
STACK CFI 17d6c .cfa: x29 32 + x19: .cfa -16 + ^ .ra: .cfa -24 + ^ x29: .cfa -32 + ^
STACK CFI 17d84 .cfa: sp 32 +
STACK CFI 17d8c .cfa: sp 0 +
STACK CFI 17d90 .cfa: x29 32 +
STACK CFI 17da4 .cfa: sp 32 +
STACK CFI 17dac .cfa: sp 0 +
STACK CFI INIT 17e24 7c .cfa: sp 0 +
STACK CFI 17e28 .cfa: sp 48 +
STACK CFI 17e34 .cfa: x29 48 + x19: .cfa -8 + ^ x20: .cfa -16 + ^ x21: .cfa -32 + ^ .ra: .cfa -40 + ^ x29: .cfa -48 + ^
STACK CFI 17e80 .cfa: sp 48 +
STACK CFI 17e8c .cfa: sp 0 +
STACK CFI 17e90 .cfa: sp 48 +
STACK CFI 17e9c .cfa: sp 0 +
STACK CFI INIT 17ea0 4 .cfa: sp 0 +
STACK CFI INIT 17ea4 10 .cfa: sp 0 +
STACK CFI 17ea8 .cfa: sp 16 +
STACK CFI 17eac .cfa: x29 16 + .ra: .cfa -8 + ^ x29: .cfa -16 + ^
STACK CFI INIT 17fe0 14 .cfa: sp 0 +
STACK CFI 17fe4 .cfa: sp 16 +
STACK CFI 17fe8 .cfa: x29 16 + .ra: .cfa -8 + ^ x29: .cfa -16 + ^
STACK CFI INIT 18044 30 .cfa: sp 0 +
STACK CFI 18048 .cfa: sp 32 +
STACK CFI 18050 .cfa: x29 32 + x19: .cfa -16 + ^ .ra: .cfa -24 + ^ x29: .cfa -32 + ^
STACK CFI 18068 .cfa: sp 32 +
STACK CFI 18070 .cfa: sp 0 +
STACK CFI INIT 18074 34 .cfa: sp 0 +
STACK CFI 18078 .cfa: sp 32 +
STACK CFI 18080 .cfa: x29 32 + x19: .cfa -16 + ^ .ra: .cfa -24 + ^ x29: .cfa -32 + ^
STACK CFI INIT 180a8 128 .cfa: sp 0 +
STACK CFI 180ac .cfa: sp 64 +
STACK CFI 180bc .cfa: x29 64 + x19: .cfa -8 + ^ x20: .cfa -16 + ^ x21: .cfa -24 + ^ x22: .cfa -32 + ^ x23: .cfa -40 + ^ x24: .cfa -48 + ^ .ra: .cfa -56 + ^ x29: .cfa -64 + ^
STACK CFI 181bc .cfa: sp 64 +
STACK CFI 181cc .cfa: sp 0 +
STACK CFI INIT 183c4 7c .cfa: sp 0 +
STACK CFI 183c8 .cfa: sp 32 +
STACK CFI 183d0 .cfa: x29 32 + x19: .cfa -8 + ^ x20: .cfa -16 + ^ .ra: .cfa -24 + ^ x29: .cfa -32 + ^
STACK CFI 18428 .cfa: sp 32 +
STACK CFI 18430 .cfa: sp 0 +
STACK CFI 18434 .cfa: sp 32 +
STACK CFI 1843c .cfa: sp 0 +
STACK CFI INIT 18440 94 .cfa: sp 0 +
STACK CFI 18444 .cfa: sp 48 +
STACK CFI 18450 .cfa: x29 48 + x19: .cfa -8 + ^ x20: .cfa -16 + ^ x21: .cfa -24 + ^ x22: .cfa -32 + ^ .ra: .cfa -40 + ^ x29: .cfa -48 + ^
STACK CFI 18468 .cfa: sp 48 +
STACK CFI 18474 .cfa: sp 0 +
STACK CFI 18478 .cfa: x29 48 +
STACK CFI 184bc .cfa: sp 48 +
STACK CFI 184c8 .cfa: sp 0 +
STACK CFI 184cc .cfa: x29 48 +
STACK CFI INIT 184d4 1a8 .cfa: sp 0 +
STACK CFI INIT 1867c 34 .cfa: sp 0 +
STACK CFI 18680 .cfa: sp 16 +
STACK CFI 18684 .cfa: x29 16 + .ra: .cfa -8 + ^ x29: .cfa -16 + ^
STACK CFI INIT 18938 80 .cfa: sp 0 +
STACK CFI 1893c .cfa: sp 48 +
STACK CFI 18948 .cfa: x29 48 + x19: .cfa -8 + ^ x20: .cfa -16 + ^ x21: .cfa -32 + ^ .ra: .cfa -40 + ^ x29: .cfa -48 + ^
STACK CFI 189a8 .cfa: sp 48 +
STACK CFI 189b4 .cfa: sp 0 +
STACK CFI INIT 189b8 24 .cfa: sp 0 +
STACK CFI 189bc .cfa: sp 32 +
STACK CFI 189c4 .cfa: x29 32 + x19: .cfa -16 + ^ .ra: .cfa -24 + ^ x29: .cfa -32 + ^
STACK CFI 189d0 .cfa: sp 32 +
STACK CFI 189d8 .cfa: sp 0 +
STACK CFI INIT 18edc 148 .cfa: sp 0 +
STACK CFI 18ee0 .cfa: sp 48 +
STACK CFI 18eec .cfa: x29 48 + x19: .cfa -8 + ^ x20: .cfa -16 + ^ x21: .cfa -32 + ^ .ra: .cfa -40 + ^ x29: .cfa -48 + ^
STACK CFI 19014 .cfa: sp 48 +
STACK CFI 19020 .cfa: sp 0 +
STACK CFI INIT 19024 88 .cfa: sp 0 +
STACK CFI 1902c .cfa: sp 48 +
STACK CFI 19038 .cfa: x29 48 + x19: .cfa -8 + ^ x20: .cfa -16 + ^ x21: .cfa -24 + ^ x22: .cfa -32 + ^ .ra: .cfa -40 + ^ x29: .cfa -48 + ^
STACK CFI 1909c .cfa: sp 48 +
STACK CFI 190a8 .cfa: sp 0 +
STACK CFI INIT 190ac 50 .cfa: sp 0 +
STACK CFI 190b0 .cfa: sp 32 +
STACK CFI 190b8 .cfa: x29 32 + x19: .cfa -16 + ^ .ra: .cfa -24 + ^ x29: .cfa -32 + ^
STACK CFI 190d0 .cfa: sp 32 +
STACK CFI 190d8 .cfa: sp 0 +
STACK CFI 190dc .cfa: x29 32 +
STACK CFI 190f0 .cfa: sp 32 +
STACK CFI 190f8 .cfa: sp 0 +
STACK CFI INIT 190fc 50 .cfa: sp 0 +
STACK CFI 19100 .cfa: sp 32 +
STACK CFI 19108 .cfa: x29 32 + x19: .cfa -16 + ^ .ra: .cfa -24 + ^ x29: .cfa -32 + ^
STACK CFI 19120 .cfa: sp 32 +
STACK CFI 19128 .cfa: sp 0 +
STACK CFI 1912c .cfa: x29 32 +
STACK CFI 19140 .cfa: sp 32 +
STACK CFI 19148 .cfa: sp 0 +
STACK CFI INIT 1914c 104 .cfa: sp 0 +
STACK CFI 19150 .cfa: sp 64 +
STACK CFI 19160 .cfa: x29 64 + x19: .cfa -8 + ^ x20: .cfa -16 + ^ x21: .cfa -24 + ^ x22: .cfa -32 + ^ x23: .cfa -48 + ^ .ra: .cfa -56 + ^ x29: .cfa -64 + ^
STACK CFI 191bc .cfa: sp 64 +
STACK CFI 191cc .cfa: sp 0 +
STACK CFI 191d0 .cfa: x29 64 +
STACK CFI 191ec .cfa: sp 64 +
STACK CFI 191fc .cfa: sp 0 +
STACK CFI 19200 .cfa: x29 64 +
STACK CFI 1923c .cfa: sp 64 +
STACK CFI 1924c .cfa: sp 0 +
STACK CFI INIT 19344 50 .cfa: sp 0 +
STACK CFI 19348 .cfa: sp 32 +
STACK CFI 19350 .cfa: x29 32 + x19: .cfa -16 + ^ .ra: .cfa -24 + ^ x29: .cfa -32 + ^
STACK CFI 19368 .cfa: sp 32 +
STACK CFI 19370 .cfa: sp 0 +
STACK CFI 19374 .cfa: x29 32 +
STACK CFI 19388 .cfa: sp 32 +
STACK CFI 19390 .cfa: sp 0 +
STACK CFI INIT 19394 4 .cfa: sp 0 +
STACK CFI INIT 19398 4 .cfa: sp 0 +
STACK CFI INIT 1939c 34 .cfa: sp 0 +
STACK CFI 193a0 .cfa: sp 32 +
STACK CFI 193a8 .cfa: x29 32 + x19: .cfa -16 + ^ .ra: .cfa -24 + ^ x29: .cfa -32 + ^
STACK CFI 193c4 .cfa: sp 32 +
STACK CFI 193cc .cfa: sp 0 +
STACK CFI INIT 193d0 14 .cfa: sp 0 +
STACK CFI INIT 193e4 4 .cfa: sp 0 +
STACK CFI INIT 193e8 4 .cfa: sp 0 +
STACK CFI INIT 1970c 1c .cfa: sp 0 +
STACK CFI INIT 19728 c .cfa: sp 0 +
STACK CFI INIT 197a8 4 .cfa: sp 0 +
STACK CFI INIT 197ac 14 .cfa: sp 0 +
STACK CFI INIT 197c0 4 .cfa: sp 0 +
STACK CFI INIT 19938 9c .cfa: sp 0 +
STACK CFI 1993c .cfa: sp 32 +
STACK CFI 19944 .cfa: x29 32 + x19: .cfa -8 + ^ x20: .cfa -16 + ^ .ra: .cfa -24 + ^ x29: .cfa -32 + ^
STACK CFI 199c8 .cfa: sp 32 +
STACK CFI 199d0 .cfa: sp 0 +
STACK CFI INIT 199d4 a4 .cfa: sp 0 +
STACK CFI 199d8 .cfa: sp 32 +
STACK CFI 199e0 .cfa: x29 32 + x19: .cfa -8 + ^ x20: .cfa -16 + ^ .ra: .cfa -24 + ^ x29: .cfa -32 + ^
STACK CFI 19a6c .cfa: sp 32 +
STACK CFI 19a74 .cfa: sp 0 +
STACK CFI INIT 19c28 68 .cfa: sp 0 +
STACK CFI 19c2c .cfa: sp 32 +
STACK CFI 19c34 .cfa: x29 32 + x19: .cfa -8 + ^ x20: .cfa -16 + ^ .ra: .cfa -24 + ^ x29: .cfa -32 + ^
STACK CFI 19c4c .cfa: sp 32 +
STACK CFI 19c54 .cfa: sp 0 +
STACK CFI 19c58 .cfa: x29 32 +
STACK CFI 19c84 .cfa: sp 32 +
STACK CFI 19c8c .cfa: sp 0 +
STACK CFI INIT 19c90 14 .cfa: sp 0 +
STACK CFI 19c94 .cfa: sp 16 +
STACK CFI 19c98 .cfa: x29 16 + .ra: .cfa -8 + ^ x29: .cfa -16 + ^
STACK CFI INIT 19ca4 4 .cfa: sp 0 +
STACK CFI INIT 19ca8 14 .cfa: sp 0 +
STACK CFI INIT 19cbc d4 .cfa: sp 0 +
STACK CFI 19cc0 .cfa: sp 48 +
STACK CFI 19ccc .cfa: x29 48 + x19: .cfa -8 + ^ x20: .cfa -16 + ^ x21: .cfa -32 + ^ .ra: .cfa -40 + ^ x29: .cfa -48 + ^
STACK CFI 19d5c .cfa: sp 48 +
STACK CFI 19d68 .cfa: sp 0 +
STACK CFI 19d6c .cfa: x29 48 +
STACK CFI INIT 19d90 3c8 .cfa: sp 0 +
STACK CFI INIT 1a158 8c .cfa: sp 0 +
STACK CFI 1a160 .cfa: sp 32 +
STACK CFI 1a168 .cfa: x29 32 + x19: .cfa -8 + ^ x20: .cfa -16 + ^ .ra: .cfa -24 + ^ x29: .cfa -32 + ^
STACK CFI 1a1b0 .cfa: sp 32 +
STACK CFI 1a1b8 .cfa: sp 0 +
STACK CFI 1a1c0 .cfa: x29 32 +
STACK CFI INIT 1a328 50 .cfa: sp 0 +
STACK CFI 1a32c .cfa: sp 32 +
STACK CFI 1a334 .cfa: x29 32 + x19: .cfa -16 + ^ .ra: .cfa -24 + ^ x29: .cfa -32 + ^
STACK CFI 1a34c .cfa: sp 32 +
STACK CFI 1a354 .cfa: sp 0 +
STACK CFI 1a358 .cfa: x29 32 +
STACK CFI 1a36c .cfa: sp 32 +
STACK CFI 1a374 .cfa: sp 0 +
STACK CFI INIT 1a378 64 .cfa: sp 0 +
STACK CFI 1a37c .cfa: sp 32 +
STACK CFI 1a384 .cfa: x29 32 + x19: .cfa -16 + ^ .ra: .cfa -24 + ^ x29: .cfa -32 + ^
STACK CFI 1a3b0 .cfa: sp 32 +
STACK CFI 1a3b8 .cfa: sp 0 +
STACK CFI 1a3bc .cfa: x29 32 +
STACK CFI 1a3d0 .cfa: sp 32 +
STACK CFI 1a3d8 .cfa: sp 0 +
STACK CFI INIT 1a3dc 4 .cfa: sp 0 +
STACK CFI INIT 1a3e0 178 .cfa: sp 0 +
STACK CFI 1a3e4 .cfa: sp 80 +
STACK CFI 1a3f8 .cfa: x29 80 + x19: .cfa -8 + ^ x20: .cfa -16 + ^ x21: .cfa -24 + ^ x22: .cfa -32 + ^ x23: .cfa -40 + ^ x24: .cfa -48 + ^ x25: .cfa -56 + ^ x26: .cfa -64 + ^ .ra: .cfa -72 + ^ x29: .cfa -80 + ^
STACK CFI 1a540 .cfa: sp 80 +
STACK CFI 1a554 .cfa: sp 0 +
STACK CFI INIT 1adac 1c .cfa: sp 0 +
STACK CFI INIT 1b0e4 4 .cfa: sp 0 +
STACK CFI INIT 1b0e8 4 .cfa: sp 0 +
STACK CFI INIT 1b0ec 34 .cfa: sp 0 +
STACK CFI 1b0f0 .cfa: sp 32 +
STACK CFI 1b0f8 .cfa: x29 32 + x19: .cfa -16 + ^ .ra: .cfa -24 + ^ x29: .cfa -32 + ^
STACK CFI 1b114 .cfa: sp 32 +
STACK CFI 1b11c .cfa: sp 0 +
STACK CFI INIT 1b120 14 .cfa: sp 0 +
STACK CFI INIT 1b134 4 .cfa: sp 0 +
STACK CFI INIT 1b138 4 .cfa: sp 0 +
STACK CFI INIT 1b45c 1c .cfa: sp 0 +
STACK CFI INIT 1b478 c .cfa: sp 0 +
STACK CFI INIT 1b69c 8c .cfa: sp 0 +
STACK CFI 1b6a0 .cfa: sp 32 +
STACK CFI 1b6a8 .cfa: x29 32 + x19: .cfa -16 + ^ .ra: .cfa -24 + ^ x29: .cfa -32 + ^
STACK CFI 1b71c .cfa: sp 32 +
STACK CFI 1b724 .cfa: sp 0 +
STACK CFI INIT 1b728 4 .cfa: sp 0 +
STACK CFI INIT 1b8d8 4 .cfa: sp 0 +
STACK CFI INIT 1b8dc 4 .cfa: sp 0 +
STACK CFI INIT 1b8e0 34 .cfa: sp 0 +
STACK CFI 1b8e4 .cfa: sp 32 +
STACK CFI 1b8ec .cfa: x29 32 + x19: .cfa -16 + ^ .ra: .cfa -24 + ^ x29: .cfa -32 + ^
STACK CFI 1b908 .cfa: sp 32 +
STACK CFI 1b910 .cfa: sp 0 +
STACK CFI INIT 1b914 14 .cfa: sp 0 +
STACK CFI INIT 1b928 4 .cfa: sp 0 +
STACK CFI INIT 1b92c 4 .cfa: sp 0 +
STACK CFI INIT 1b930 40 .cfa: sp 0 +
STACK CFI 1b934 .cfa: sp 32 +
STACK CFI 1b93c .cfa: x29 32 + x19: .cfa -16 + ^ .ra: .cfa -24 + ^ x29: .cfa -32 + ^
STACK CFI 1b964 .cfa: sp 32 +
STACK CFI 1b96c .cfa: sp 0 +
STACK CFI INIT 1b970 1c .cfa: sp 0 +
STACK CFI INIT 1b98c c .cfa: sp 0 +
STACK CFI INIT 1b998 3c .cfa: sp 0 +
STACK CFI 1b99c .cfa: sp 32 +
STACK CFI 1b9a4 .cfa: x29 32 + x19: .cfa -16 + ^ .ra: .cfa -24 + ^ x29: .cfa -32 + ^
STACK CFI 1b9b0 .cfa: sp 32 +
STACK CFI 1b9b8 .cfa: sp 0 +
STACK CFI 1b9bc .cfa: x29 32 +
STACK CFI 1b9c8 .cfa: sp 32 +
STACK CFI 1b9d0 .cfa: sp 0 +
STACK CFI INIT 1b9d4 3c .cfa: sp 0 +
STACK CFI 1b9d8 .cfa: sp 32 +
STACK CFI 1b9e0 .cfa: x29 32 + x19: .cfa -16 + ^ .ra: .cfa -24 + ^ x29: .cfa -32 + ^
STACK CFI 1b9ec .cfa: sp 32 +
STACK CFI 1b9f4 .cfa: sp 0 +
STACK CFI 1b9f8 .cfa: x29 32 +
STACK CFI 1ba04 .cfa: sp 32 +
STACK CFI 1ba0c .cfa: sp 0 +
STACK CFI INIT 1ba10 4c .cfa: sp 0 +
STACK CFI 1ba14 .cfa: sp 32 +
STACK CFI 1ba1c .cfa: x29 32 + x19: .cfa -8 + ^ x20: .cfa -16 + ^ .ra: .cfa -24 + ^ x29: .cfa -32 + ^
STACK CFI 1ba44 .cfa: sp 32 +
STACK CFI 1ba4c .cfa: sp 0 +
STACK CFI 1ba50 .cfa: sp 32 +
STACK CFI 1ba58 .cfa: sp 0 +
STACK CFI INIT 1bc7c 64 .cfa: sp 0 +
STACK CFI 1bc80 .cfa: sp 32 +
STACK CFI 1bc88 .cfa: x29 32 + x19: .cfa -16 + ^ .ra: .cfa -24 + ^ x29: .cfa -32 + ^
STACK CFI 1bcb4 .cfa: sp 32 +
STACK CFI 1bcbc .cfa: sp 0 +
STACK CFI 1bcc0 .cfa: x29 32 +
STACK CFI 1bcd4 .cfa: sp 32 +
STACK CFI 1bcdc .cfa: sp 0 +
STACK CFI INIT 1bce0 24 .cfa: sp 0 +
STACK CFI 1bce4 .cfa: sp 32 +
STACK CFI 1bcec .cfa: x29 32 + x19: .cfa -16 + ^ .ra: .cfa -24 + ^ x29: .cfa -32 + ^
STACK CFI 1bcf8 .cfa: sp 32 +
STACK CFI 1bd00 .cfa: sp 0 +
STACK CFI INIT 1bd04 24 .cfa: sp 0 +
STACK CFI 1bd08 .cfa: sp 32 +
STACK CFI 1bd10 .cfa: x29 32 + x19: .cfa -16 + ^ .ra: .cfa -24 + ^ x29: .cfa -32 + ^
STACK CFI 1bd1c .cfa: sp 32 +
STACK CFI 1bd24 .cfa: sp 0 +
STACK CFI INIT 1bd28 8 .cfa: sp 0 +
STACK CFI INIT 1bd30 24 .cfa: sp 0 +
STACK CFI 1bd34 .cfa: sp 32 +
STACK CFI 1bd3c .cfa: x29 32 + x19: .cfa -16 + ^ .ra: .cfa -24 + ^ x29: .cfa -32 + ^
STACK CFI 1bd48 .cfa: sp 32 +
STACK CFI 1bd50 .cfa: sp 0 +
STACK CFI INIT 1bd54 28 .cfa: sp 0 +
STACK CFI 1bd58 .cfa: sp 32 +
STACK CFI 1bd60 .cfa: x29 32 + x19: .cfa -16 + ^ .ra: .cfa -24 + ^ x29: .cfa -32 + ^
STACK CFI 1bd70 .cfa: sp 32 +
STACK CFI 1bd78 .cfa: sp 0 +
STACK CFI INIT 1c054 8 .cfa: sp 0 +
STACK CFI INIT 1c05c 24 .cfa: sp 0 +
STACK CFI 1c060 .cfa: sp 32 +
STACK CFI 1c068 .cfa: x29 32 + x19: .cfa -16 + ^ .ra: .cfa -24 + ^ x29: .cfa -32 + ^
STACK CFI 1c074 .cfa: sp 32 +
STACK CFI 1c07c .cfa: sp 0 +
STACK CFI INIT 1c080 28 .cfa: sp 0 +
STACK CFI 1c084 .cfa: sp 32 +
STACK CFI 1c08c .cfa: x29 32 + x19: .cfa -16 + ^ .ra: .cfa -24 + ^ x29: .cfa -32 + ^
STACK CFI 1c09c .cfa: sp 32 +
STACK CFI 1c0a4 .cfa: sp 0 +
STACK CFI INIT 1c2f8 8 .cfa: sp 0 +
STACK CFI INIT 1c300 24 .cfa: sp 0 +
STACK CFI 1c304 .cfa: sp 32 +
STACK CFI 1c30c .cfa: x29 32 + x19: .cfa -16 + ^ .ra: .cfa -24 + ^ x29: .cfa -32 + ^
STACK CFI 1c318 .cfa: sp 32 +
STACK CFI 1c320 .cfa: sp 0 +
STACK CFI INIT 1c324 28 .cfa: sp 0 +
STACK CFI 1c328 .cfa: sp 32 +
STACK CFI 1c330 .cfa: x29 32 + x19: .cfa -16 + ^ .ra: .cfa -24 + ^ x29: .cfa -32 + ^
STACK CFI 1c340 .cfa: sp 32 +
STACK CFI 1c348 .cfa: sp 0 +
STACK CFI INIT 1c34c 9c .cfa: sp 0 +
STACK CFI 1c350 .cfa: sp 32 +
STACK CFI 1c358 .cfa: x29 32 + x19: .cfa -16 + ^ .ra: .cfa -24 + ^ x29: .cfa -32 + ^
STACK CFI 1c3dc .cfa: sp 32 +
STACK CFI 1c3e4 .cfa: sp 0 +
STACK CFI INIT 1c3e8 8 .cfa: sp 0 +
STACK CFI INIT 1c3f0 24 .cfa: sp 0 +
STACK CFI 1c3f4 .cfa: sp 32 +
STACK CFI 1c3fc .cfa: x29 32 + x19: .cfa -16 + ^ .ra: .cfa -24 + ^ x29: .cfa -32 + ^
STACK CFI 1c408 .cfa: sp 32 +
STACK CFI 1c410 .cfa: sp 0 +
STACK CFI INIT 1c414 28 .cfa: sp 0 +
STACK CFI 1c418 .cfa: sp 32 +
STACK CFI 1c420 .cfa: x29 32 + x19: .cfa -16 + ^ .ra: .cfa -24 + ^ x29: .cfa -32 + ^
STACK CFI 1c430 .cfa: sp 32 +
STACK CFI 1c438 .cfa: sp 0 +
STACK CFI INIT 1c43c 14 .cfa: sp 0 +
STACK CFI INIT 1c450 4 .cfa: sp 0 +
STACK CFI INIT 1d694 4 .cfa: sp 0 +
STACK CFI INIT 1d698 14 .cfa: sp 0 +
STACK CFI INIT 168e0 cc .cfa: sp 0 +
STACK CFI 168e4 .cfa: sp 32 +
STACK CFI 168ec .cfa: x29 32 + x19: .cfa -8 + ^ x20: .cfa -16 + ^ .ra: .cfa -24 + ^ x29: .cfa -32 + ^
STACK CFI 16968 .cfa: sp 32 +
STACK CFI 16970 .cfa: sp 0 +
STACK CFI 16974 .cfa: x29 32 +
STACK CFI 1698c .cfa: sp 32 +
STACK CFI 16994 .cfa: sp 0 +
STACK CFI 16998 .cfa: x29 32 +
STACK CFI INIT 169ac 1cc .cfa: sp 0 +
STACK CFI 169b0 .cfa: sp 80 +
STACK CFI 169c0 .cfa: x29 48 + x19: .cfa -8 + ^ x20: .cfa -16 + ^ x21: .cfa -24 + ^ x22: .cfa -32 + ^ .ra: .cfa -40 + ^ x29: .cfa -48 + ^
STACK CFI 16b34 .cfa: sp 80 +
STACK CFI 16b44 .cfa: sp 0 +
STACK CFI 16b48 .cfa: x29 48 +
STACK CFI INIT 171b0 848 .cfa: sp 0 +
STACK CFI 171b4 .cfa: sp 256 +
STACK CFI 171d0 .cfa: x29 96 + x19: .cfa -8 + ^ x20: .cfa -16 + ^ x21: .cfa -24 + ^ x22: .cfa -32 + ^ x23: .cfa -40 + ^ x24: .cfa -48 + ^ x25: .cfa -56 + ^ x26: .cfa -64 + ^ x27: .cfa -80 + ^ .ra: .cfa -88 + ^ x29: .cfa -96 + ^
STACK CFI 17324 .cfa: sp 256 +
STACK CFI 17340 .cfa: sp 0 +
STACK CFI 17344 .cfa: x29 96 +
STACK CFI 177e4 .cfa: sp 256 +
STACK CFI 17800 .cfa: sp 0 +
STACK CFI 17804 .cfa: x29 96 +
STACK CFI INIT 17a14 34c .cfa: sp 0 +
STACK CFI 17a18 .cfa: sp 208 +
STACK CFI 17a2c .cfa: x29 64 + x19: .cfa -8 + ^ x20: .cfa -16 + ^ x21: .cfa -24 + ^ x22: .cfa -32 + ^ x23: .cfa -40 + ^ x24: .cfa -48 + ^ .ra: .cfa -56 + ^ x29: .cfa -64 + ^
STACK CFI 17c3c .cfa: sp 208 +
STACK CFI 17c50 .cfa: sp 0 +
STACK CFI 17c54 .cfa: x29 64 +
STACK CFI INIT 17db0 74 .cfa: sp 0 +
STACK CFI 17db4 .cfa: sp 48 +
STACK CFI 17dc0 .cfa: x29 32 + x19: .cfa -8 + ^ x20: .cfa -16 + ^ .ra: .cfa -24 + ^ x29: .cfa -32 + ^
STACK CFI 17e0c .cfa: sp 48 +
STACK CFI 17e18 .cfa: sp 0 +
STACK CFI 17e1c .cfa: x29 32 +
STACK CFI INIT 17eb4 12c .cfa: sp 0 +
STACK CFI 17eb8 .cfa: sp 80 +
STACK CFI 17ec8 .cfa: x29 48 + x19: .cfa -8 + ^ x20: .cfa -16 + ^ x21: .cfa -24 + ^ x22: .cfa -32 + ^ .ra: .cfa -40 + ^ x29: .cfa -48 + ^
STACK CFI 17fc4 .cfa: sp 80 +
STACK CFI 17fd4 .cfa: sp 0 +
STACK CFI 17fd8 .cfa: x29 48 +
STACK CFI INIT 17ff4 50 .cfa: sp 0 +
STACK CFI 17ff8 .cfa: sp 32 +
STACK CFI 18000 .cfa: x29 32 + x19: .cfa -8 + ^ x20: .cfa -16 + ^ .ra: .cfa -24 + ^ x29: .cfa -32 + ^
STACK CFI INIT 181d0 1f4 .cfa: sp 0 +
STACK CFI 181d4 .cfa: sp 128 +
STACK CFI 181f0 .cfa: x29 96 + x19: .cfa -8 + ^ x20: .cfa -16 + ^ x21: .cfa -24 + ^ x22: .cfa -32 + ^ x23: .cfa -40 + ^ x24: .cfa -48 + ^ x25: .cfa -56 + ^ x26: .cfa -64 + ^ x27: .cfa -72 + ^ x28: .cfa -80 + ^ .ra: .cfa -88 + ^ x29: .cfa -96 + ^
STACK CFI 1837c .cfa: sp 128 +
STACK CFI 18398 .cfa: sp 0 +
STACK CFI 1839c .cfa: x29 96 +
STACK CFI INIT 186b0 154 .cfa: sp 0 +
STACK CFI 186b4 .cfa: sp 384 +
STACK CFI 186c8 .cfa: x29 64 + x19: .cfa -8 + ^ x20: .cfa -16 + ^ x21: .cfa -24 + ^ x22: .cfa -32 + ^ x23: .cfa -40 + ^ x28: .cfa -48 + ^ .ra: .cfa -56 + ^ x29: .cfa -64 + ^
STACK CFI 187ac .cfa: sp 384 +
STACK CFI 187c0 .cfa: sp 0 +
STACK CFI 187c4 .cfa: x29 64 +
STACK CFI INIT 18804 134 .cfa: sp 0 +
STACK CFI 18808 .cfa: sp 80 +
STACK CFI 1881c .cfa: x29 80 + x19: .cfa -8 + ^ x20: .cfa -16 + ^ x21: .cfa -24 + ^ x22: .cfa -32 + ^ x23: .cfa -40 + ^ x24: .cfa -48 + ^ x25: .cfa -56 + ^ x26: .cfa -64 + ^ .ra: .cfa -72 + ^ x29: .cfa -80 + ^
STACK CFI 188ec .cfa: sp 80 +
STACK CFI 18900 .cfa: sp 0 +
STACK CFI 18904 .cfa: x29 80 +
STACK CFI INIT 189dc 1a4 .cfa: sp 0 +
STACK CFI 189e0 .cfa: sp 112 +
STACK CFI 189f8 .cfa: x29 80 + x19: .cfa -8 + ^ x20: .cfa -16 + ^ x21: .cfa -24 + ^ x22: .cfa -32 + ^ x23: .cfa -40 + ^ x24: .cfa -48 + ^ x25: .cfa -56 + ^ x26: .cfa -64 + ^ .ra: .cfa -72 + ^ x29: .cfa -80 + ^
STACK CFI 18ae8 .cfa: sp 112 +
STACK CFI 18b00 .cfa: sp 0 +
STACK CFI 18b04 .cfa: x29 80 +
STACK CFI INIT 18b80 1ec .cfa: sp 0 +
STACK CFI 18b84 .cfa: sp 128 +
STACK CFI 18ba0 .cfa: x29 96 + x19: .cfa -8 + ^ x20: .cfa -16 + ^ x21: .cfa -24 + ^ x22: .cfa -32 + ^ x23: .cfa -40 + ^ x24: .cfa -48 + ^ x25: .cfa -56 + ^ x26: .cfa -64 + ^ x27: .cfa -80 + ^ .ra: .cfa -88 + ^ x29: .cfa -96 + ^
STACK CFI 18d1c .cfa: sp 128 +
STACK CFI 18d38 .cfa: sp 0 +
STACK CFI 18d3c .cfa: x29 96 +
STACK CFI INIT 18d6c 170 .cfa: sp 0 +
STACK CFI 18d70 .cfa: sp 48 +
STACK CFI 18d7c .cfa: x29 48 + x19: .cfa -8 + ^ x20: .cfa -16 + ^ x21: .cfa -32 + ^ .ra: .cfa -40 + ^ x29: .cfa -48 + ^
STACK CFI 18eb0 .cfa: sp 48 +
STACK CFI 18ebc .cfa: sp 0 +
STACK CFI 18ec0 .cfa: x29 48 +
STACK CFI INIT 19250 f4 .cfa: sp 0 +
STACK CFI 19254 .cfa: sp 48 +
STACK CFI 19260 .cfa: x29 48 + x19: .cfa -8 + ^ x20: .cfa -16 + ^ x21: .cfa -32 + ^ .ra: .cfa -40 + ^ x29: .cfa -48 + ^
STACK CFI 192cc .cfa: sp 48 +
STACK CFI 192d8 .cfa: sp 0 +
STACK CFI 192dc .cfa: x29 48 +
STACK CFI INIT 193ec 320 .cfa: sp 0 +
STACK CFI 193f0 .cfa: sp 192 +
STACK CFI 19400 .cfa: x29 48 + x19: .cfa -8 + ^ x20: .cfa -16 + ^ x21: .cfa -24 + ^ x22: .cfa -32 + ^ .ra: .cfa -40 + ^ x29: .cfa -48 + ^
STACK CFI 195d4 .cfa: sp 192 +
STACK CFI 195e4 .cfa: sp 0 +
STACK CFI 195e8 .cfa: x29 48 +
STACK CFI 19630 .cfa: sp 192 +
STACK CFI 19640 .cfa: sp 0 +
STACK CFI 19644 .cfa: x29 48 +
STACK CFI INIT 19734 74 .cfa: sp 0 +
STACK CFI 19738 .cfa: sp 48 +
STACK CFI 19744 .cfa: x29 32 + x19: .cfa -8 + ^ x20: .cfa -16 + ^ .ra: .cfa -24 + ^ x29: .cfa -32 + ^
STACK CFI 19790 .cfa: sp 48 +
STACK CFI 1979c .cfa: sp 0 +
STACK CFI 197a0 .cfa: x29 32 +
STACK CFI INIT 197c4 174 .cfa: sp 0 +
STACK CFI 197c8 .cfa: sp 112 +
STACK CFI 197d8 .cfa: x29 48 + x19: .cfa -8 + ^ x20: .cfa -16 + ^ x21: .cfa -32 + ^ .ra: .cfa -40 + ^ x29: .cfa -48 + ^
STACK CFI 198d4 .cfa: sp 112 +
STACK CFI 198e4 .cfa: sp 0 +
STACK CFI 198e8 .cfa: x29 48 +
STACK CFI INIT 19a78 1b0 .cfa: sp 0 +
STACK CFI 19a7c .cfa: sp 128 +
STACK CFI 19a94 .cfa: x29 80 + x19: .cfa -8 + ^ x20: .cfa -16 + ^ x21: .cfa -24 + ^ x22: .cfa -32 + ^ x23: .cfa -40 + ^ x24: .cfa -48 + ^ x25: .cfa -64 + ^ .ra: .cfa -72 + ^ x29: .cfa -80 + ^
STACK CFI 19bb8 .cfa: sp 128 +
STACK CFI 19bd0 .cfa: sp 0 +
STACK CFI 19bd4 .cfa: x29 80 +
STACK CFI INIT 1a1e4 144 .cfa: sp 0 +
STACK CFI 1a1e8 .cfa: sp 80 +
STACK CFI 1a1f8 .cfa: x29 48 + x19: .cfa -8 + ^ x20: .cfa -16 + ^ x21: .cfa -24 + ^ x22: .cfa -32 + ^ .ra: .cfa -40 + ^ x29: .cfa -48 + ^
STACK CFI 1a2e4 .cfa: sp 80 +
STACK CFI 1a2f4 .cfa: sp 0 +
STACK CFI 1a2f8 .cfa: x29 48 +
STACK CFI INIT 1a558 854 .cfa: sp 0 +
STACK CFI 1a55c .cfa: sp 272 +
STACK CFI 1a578 .cfa: x29 96 + x19: .cfa -8 + ^ x20: .cfa -16 + ^ x21: .cfa -24 + ^ x22: .cfa -32 + ^ x23: .cfa -40 + ^ x24: .cfa -48 + ^ x25: .cfa -56 + ^ x26: .cfa -64 + ^ x27: .cfa -72 + ^ x28: .cfa -80 + ^ .ra: .cfa -88 + ^ x29: .cfa -96 + ^
STACK CFI 1a6e0 .cfa: sp 272 +
STACK CFI 1a6fc .cfa: sp 0 +
STACK CFI 1a700 .cfa: x29 96 +
STACK CFI 1ab98 .cfa: sp 272 +
STACK CFI 1abb4 .cfa: sp 0 +
STACK CFI 1abb8 .cfa: x29 96 +
STACK CFI INIT 1adc8 31c .cfa: sp 0 +
STACK CFI 1adcc .cfa: sp 224 +
STACK CFI 1ade0 .cfa: x29 64 + x19: .cfa -8 + ^ x20: .cfa -16 + ^ x21: .cfa -24 + ^ x22: .cfa -32 + ^ x23: .cfa -48 + ^ .ra: .cfa -56 + ^ x29: .cfa -64 + ^
STACK CFI 1afd4 .cfa: sp 224 +
STACK CFI 1afe8 .cfa: sp 0 +
STACK CFI 1afec .cfa: x29 64 +
STACK CFI INIT 1b13c 320 .cfa: sp 0 +
STACK CFI 1b140 .cfa: sp 192 +
STACK CFI 1b150 .cfa: x29 48 + x19: .cfa -8 + ^ x20: .cfa -16 + ^ x21: .cfa -24 + ^ x22: .cfa -32 + ^ .ra: .cfa -40 + ^ x29: .cfa -48 + ^
STACK CFI 1b324 .cfa: sp 192 +
STACK CFI 1b334 .cfa: sp 0 +
STACK CFI 1b338 .cfa: x29 48 +
STACK CFI 1b380 .cfa: sp 192 +
STACK CFI 1b390 .cfa: sp 0 +
STACK CFI 1b394 .cfa: x29 48 +
STACK CFI INIT 1b484 170 .cfa: sp 0 +
STACK CFI 1b488 .cfa: sp 80 +
STACK CFI 1b498 .cfa: x29 48 + x19: .cfa -8 + ^ x20: .cfa -16 + ^ x21: .cfa -24 + ^ x22: .cfa -32 + ^ .ra: .cfa -40 + ^ x29: .cfa -48 + ^
STACK CFI 1b5b0 .cfa: sp 80 +
STACK CFI 1b5c0 .cfa: sp 0 +
STACK CFI 1b5c4 .cfa: x29 48 +
STACK CFI INIT 1b5f4 a8 .cfa: sp 0 +
STACK CFI 1b5f8 .cfa: sp 32 +
STACK CFI 1b600 .cfa: x29 32 + x19: .cfa -16 + ^ .ra: .cfa -24 + ^ x29: .cfa -32 + ^
STACK CFI 1b634 .cfa: sp 32 +
STACK CFI 1b63c .cfa: sp 0 +
STACK CFI 1b640 .cfa: x29 32 +
STACK CFI 1b644 .cfa: sp 32 +
STACK CFI 1b64c .cfa: sp 0 +
STACK CFI 1b650 .cfa: x29 32 +
STACK CFI INIT 1b72c 1ac .cfa: sp 0 +
STACK CFI 1b730 .cfa: sp 128 +
STACK CFI 1b744 .cfa: x29 64 + x19: .cfa -8 + ^ x20: .cfa -16 + ^ x21: .cfa -24 + ^ x22: .cfa -32 + ^ x23: .cfa -40 + ^ x24: .cfa -48 + ^ .ra: .cfa -56 + ^ x29: .cfa -64 + ^
STACK CFI 1b870 .cfa: sp 128 +
STACK CFI 1b884 .cfa: sp 0 +
STACK CFI 1b888 .cfa: x29 64 +
STACK CFI INIT 1ba5c 134 .cfa: sp 0 +
STACK CFI 1ba60 .cfa: sp 80 +
STACK CFI 1ba6c .cfa: x29 32 + x19: .cfa -8 + ^ x20: .cfa -16 + ^ .ra: .cfa -24 + ^ x29: .cfa -32 + ^
STACK CFI 1ba9c .cfa: sp 80 +
STACK CFI 1baa8 .cfa: sp 0 +
STACK CFI 1baac .cfa: x29 32 +
STACK CFI INIT 1bb90 78 .cfa: sp 0 +
STACK CFI 1bb94 .cfa: sp 32 +
STACK CFI 1bb9c .cfa: x29 32 + x19: .cfa -8 + ^ x20: .cfa -16 + ^ .ra: .cfa -24 + ^ x29: .cfa -32 + ^
STACK CFI 1bba8 .cfa: sp 32 +
STACK CFI 1bbb0 .cfa: sp 0 +
STACK CFI 1bbb4 .cfa: x29 32 +
STACK CFI INIT 1bc08 74 .cfa: sp 0 +
STACK CFI 1bc0c .cfa: sp 48 +
STACK CFI 1bc18 .cfa: x29 32 + x19: .cfa -8 + ^ x20: .cfa -16 + ^ .ra: .cfa -24 + ^ x29: .cfa -32 + ^
STACK CFI 1bc64 .cfa: sp 48 +
STACK CFI 1bc70 .cfa: sp 0 +
STACK CFI 1bc74 .cfa: x29 32 +
STACK CFI INIT 1bd7c 2d8 .cfa: sp 0 +
STACK CFI 1bd80 .cfa: sp 128 +
STACK CFI 1bd94 .cfa: x29 64 + x19: .cfa -8 + ^ x20: .cfa -16 + ^ x21: .cfa -24 + ^ x22: .cfa -32 + ^ x23: .cfa -48 + ^ .ra: .cfa -56 + ^ x29: .cfa -64 + ^
STACK CFI 1bf00 .cfa: sp 128 +
STACK CFI 1bf14 .cfa: sp 0 +
STACK CFI 1bf18 .cfa: x29 64 +
STACK CFI INIT 1c0a8 250 .cfa: sp 0 +
STACK CFI 1c0ac .cfa: sp 112 +
STACK CFI 1c0bc .cfa: x29 48 + x19: .cfa -8 + ^ x20: .cfa -16 + ^ x21: .cfa -32 + ^ .ra: .cfa -40 + ^ x29: .cfa -48 + ^
STACK CFI 1c1a0 .cfa: sp 112 +
STACK CFI 1c1b0 .cfa: sp 0 +
STACK CFI 1c1b4 .cfa: x29 48 +
STACK CFI INIT 1c454 2bc .cfa: sp 0 +
STACK CFI 1c458 .cfa: sp 128 +
STACK CFI 1c46c .cfa: x29 64 + x19: .cfa -8 + ^ x20: .cfa -16 + ^ x21: .cfa -24 + ^ x22: .cfa -32 + ^ x23: .cfa -48 + ^ .ra: .cfa -56 + ^ x29: .cfa -64 + ^
STACK CFI 1c5bc .cfa: sp 128 +
STACK CFI 1c5d0 .cfa: sp 0 +
STACK CFI 1c5d4 .cfa: x29 64 +
STACK CFI INIT 1c710 2c8 .cfa: sp 0 +
STACK CFI 1c714 .cfa: sp 128 +
STACK CFI 1c728 .cfa: x29 64 + x19: .cfa -8 + ^ x20: .cfa -16 + ^ x21: .cfa -24 + ^ x22: .cfa -32 + ^ x23: .cfa -48 + ^ .ra: .cfa -56 + ^ x29: .cfa -64 + ^
STACK CFI 1c884 .cfa: sp 128 +
STACK CFI 1c898 .cfa: sp 0 +
STACK CFI 1c89c .cfa: x29 64 +
STACK CFI INIT 1c9d8 278 .cfa: sp 0 +
STACK CFI 1c9dc .cfa: sp 128 +
STACK CFI 1c9f0 .cfa: x29 64 + x19: .cfa -8 + ^ x20: .cfa -16 + ^ x21: .cfa -24 + ^ x22: .cfa -32 + ^ x23: .cfa -48 + ^ .ra: .cfa -56 + ^ x29: .cfa -64 + ^
STACK CFI 1cafc .cfa: sp 128 +
STACK CFI 1cb10 .cfa: sp 0 +
STACK CFI 1cb14 .cfa: x29 64 +
STACK CFI INIT 1cc50 2bc .cfa: sp 0 +
STACK CFI 1cc54 .cfa: sp 128 +
STACK CFI 1cc68 .cfa: x29 64 + x19: .cfa -8 + ^ x20: .cfa -16 + ^ x21: .cfa -24 + ^ x22: .cfa -32 + ^ x23: .cfa -48 + ^ .ra: .cfa -56 + ^ x29: .cfa -64 + ^
STACK CFI 1cdb8 .cfa: sp 128 +
STACK CFI 1cdcc .cfa: sp 0 +
STACK CFI 1cdd0 .cfa: x29 64 +
STACK CFI INIT 1cf0c 4cc .cfa: sp 0 +
STACK CFI 1cf10 .cfa: sp 128 +
STACK CFI 1cf24 .cfa: x29 64 + x19: .cfa -8 + ^ x20: .cfa -16 + ^ x21: .cfa -24 + ^ x22: .cfa -32 + ^ x23: .cfa -48 + ^ .ra: .cfa -56 + ^ x29: .cfa -64 + ^
STACK CFI 1d230 .cfa: sp 128 +
STACK CFI 1d244 .cfa: sp 0 +
STACK CFI 1d248 .cfa: x29 64 +
STACK CFI INIT 1d3d8 154 .cfa: sp 0 +
STACK CFI 1d3dc .cfa: sp 384 +
STACK CFI 1d3f0 .cfa: x29 64 + x19: .cfa -8 + ^ x20: .cfa -16 + ^ x21: .cfa -24 + ^ x22: .cfa -32 + ^ x23: .cfa -40 + ^ x28: .cfa -48 + ^ .ra: .cfa -56 + ^ x29: .cfa -64 + ^
STACK CFI 1d4d4 .cfa: sp 384 +
STACK CFI 1d4e8 .cfa: sp 0 +
STACK CFI 1d4ec .cfa: x29 64 +
STACK CFI INIT 1d52c 168 .cfa: sp 0 +
STACK CFI 1d530 .cfa: sp 384 +
STACK CFI 1d544 .cfa: x29 64 + x19: .cfa -8 + ^ x20: .cfa -16 + ^ x21: .cfa -24 + ^ x22: .cfa -32 + ^ x23: .cfa -40 + ^ x28: .cfa -48 + ^ .ra: .cfa -56 + ^ x29: .cfa -64 + ^
STACK CFI 1d63c .cfa: sp 384 +
STACK CFI 1d650 .cfa: sp 0 +
STACK CFI 1d654 .cfa: x29 64 +
STACK CFI INIT 1d6ac 4e0 .cfa: sp 0 +
STACK CFI 1d6b0 .cfa: sp 64 +
STACK CFI 1d6c0 .cfa: x29 64 + x19: .cfa -8 + ^ x20: .cfa -16 + ^ x21: .cfa -24 + ^ x22: .cfa -32 + ^ x23: .cfa -40 + ^ x24: .cfa -48 + ^ .ra: .cfa -56 + ^ x29: .cfa -64 + ^
STACK CFI 1db60 .cfa: sp 64 +
STACK CFI 1db70 .cfa: sp 0 +
STACK CFI 1db74 .cfa: x29 64 +
