MODULE Linux arm64 9FD9A09DF6D625E52B64DE2C7E2F227B0 undefined0.editormusic.android64.so
INFO CODE_ID 9DA0D99FD6F6E5252B64DE2C7E2F227B5074B83A
INFO GENERATOR mozilla/dump_syms 2.3.4
PUBLIC 35ad0 0 __on_dlclose
PUBLIC 35ae0 0 __emutls_unregister_key
PUBLIC 35ae8 0 __on_dlclose_late
PUBLIC 35af0 0 __atexit_handler_wrapper
PUBLIC 35b04 0 atexit
PUBLIC 35b20 0 pthread_atfork
PUBLIC 35b30 0 unwind_phase2
PUBLIC 35c64 0 _Unwind_Resume
PUBLIC 35ce8 0 unwind_phase2_forced
PUBLIC m 35ddc 0 __unw_init_local
PUBLIC m 35e84 0 __unw_get_reg
PUBLIC 35f00 0 __unw_step_stage2
PUBLIC m 35f14 0 __unw_get_proc_info
PUBLIC m 35f54 0 __unw_resume
PUBLIC 35f7c 0 libunwind::CFI_Parser<libunwind::LocalAddressSpace>::decodeFDE(libunwind::LocalAddressSpace&, unsigned long, libunwind::CFI_Parser<libunwind::LocalAddressSpace>::FDE_Info*, libunwind::CFI_Parser<libunwind::LocalAddressSpace>::CIE_Info*, bool)
PUBLIC 3610c 0 libunwind::CFI_Parser<libunwind::LocalAddressSpace>::parseCIE(libunwind::LocalAddressSpace&, unsigned long, libunwind::CFI_Parser<libunwind::LocalAddressSpace>::CIE_Info*)
PUBLIC 363d4 0 libunwind::AbstractUnwindCursor::~AbstractUnwindCursor()
PUBLIC 363dc 0 libunwind::UnwindCursor<libunwind::LocalAddressSpace, libunwind::Registers_arm64>::~UnwindCursor()
PUBLIC 363e4 0 libunwind::UnwindCursor<libunwind::LocalAddressSpace, libunwind::Registers_arm64>::validReg(int)
PUBLIC 36428 0 libunwind::UnwindCursor<libunwind::LocalAddressSpace, libunwind::Registers_arm64>::getReg(int)
PUBLIC 36510 0 libunwind::UnwindCursor<libunwind::LocalAddressSpace, libunwind::Registers_arm64>::setReg(int, unsigned long)
PUBLIC 365f8 0 libunwind::UnwindCursor<libunwind::LocalAddressSpace, libunwind::Registers_arm64>::validFloatReg(int)
PUBLIC 3660c 0 libunwind::UnwindCursor<libunwind::LocalAddressSpace, libunwind::Registers_arm64>::getFloatReg(int)
PUBLIC 3661c 0 libunwind::UnwindCursor<libunwind::LocalAddressSpace, libunwind::Registers_arm64>::setFloatReg(int, double)
PUBLIC 3662c 0 libunwind::UnwindCursor<libunwind::LocalAddressSpace, libunwind::Registers_arm64>::step(bool)
PUBLIC 3671c 0 libunwind::UnwindCursor<libunwind::LocalAddressSpace, libunwind::Registers_arm64>::getInfo(unw_proc_info_t*)
PUBLIC 36760 0 libunwind::UnwindCursor<libunwind::LocalAddressSpace, libunwind::Registers_arm64>::jumpto()
PUBLIC 3676c 0 libunwind::UnwindCursor<libunwind::LocalAddressSpace, libunwind::Registers_arm64>::isSignalFrame()
PUBLIC 36778 0 libunwind::UnwindCursor<libunwind::LocalAddressSpace, libunwind::Registers_arm64>::getFunctionName(char*, unsigned long, unsigned long*)
PUBLIC 367a4 0 libunwind::UnwindCursor<libunwind::LocalAddressSpace, libunwind::Registers_arm64>::setInfoBasedOnIPRegister(bool)
PUBLIC 369e0 0 libunwind::UnwindCursor<libunwind::LocalAddressSpace, libunwind::Registers_arm64>::getRegisterName(int)
PUBLIC 369ec 0 libunwind::UnwindCursor<libunwind::LocalAddressSpace, libunwind::Registers_arm64>::stepThroughSigReturn(libunwind::Registers_arm64&)
PUBLIC 36b0c 0 libunwind::DwarfInstructions<libunwind::LocalAddressSpace, libunwind::Registers_arm64>::stepWithDwarf(libunwind::LocalAddressSpace&, unsigned long, unsigned long, libunwind::Registers_arm64&, bool&, bool)
PUBLIC 36fa0 0 libunwind::CFI_Parser<libunwind::LocalAddressSpace>::parseFDEInstructions(libunwind::LocalAddressSpace&, libunwind::CFI_Parser<libunwind::LocalAddressSpace>::FDE_Info const&, libunwind::CFI_Parser<libunwind::LocalAddressSpace>::CIE_Info const&, unsigned long, int, libunwind::CFI_Parser<libunwind::LocalAddressSpace>::PrologInfo*)
PUBLIC 37b18 0 libunwind::DwarfInstructions<libunwind::LocalAddressSpace, libunwind::Registers_arm64>::getCFA(libunwind::LocalAddressSpace&, libunwind::CFI_Parser<libunwind::LocalAddressSpace>::PrologInfo const&, libunwind::Registers_arm64 const&)
PUBLIC 37c4c 0 libunwind::DwarfInstructions<libunwind::LocalAddressSpace, libunwind::Registers_arm64>::getSavedRegister(libunwind::LocalAddressSpace&, libunwind::Registers_arm64 const&, unsigned long, libunwind::CFI_Parser<libunwind::LocalAddressSpace>::RegisterLocation const&)
PUBLIC 37e5c 0 libunwind::LocalAddressSpace::getEncodedP(unsigned long&, unsigned long, unsigned char, unsigned long)
PUBLIC 381e8 0 libunwind::LocalAddressSpace::getULEB128(unsigned long&, unsigned long)
PUBLIC 383b0 0 libunwind::DwarfInstructions<libunwind::LocalAddressSpace, libunwind::Registers_arm64>::evaluateExpression(unsigned long, libunwind::LocalAddressSpace&, libunwind::Registers_arm64 const&, unsigned long)
PUBLIC 38d74 0 libunwind::UnwindCursor<libunwind::LocalAddressSpace, libunwind::Registers_arm64>::getInfoFromDwarfSection(unsigned long, libunwind::UnwindInfoSections const&, unsigned int)
PUBLIC 39048 0 libunwind::findUnwindSectionsByPhdr(dl_phdr_info*, unsigned long, void*)
PUBLIC 39178 0 libunwind::EHHeaderParser<libunwind::LocalAddressSpace>::decodeEHHdr(libunwind::LocalAddressSpace&, unsigned long, unsigned long, libunwind::EHHeaderParser<libunwind::LocalAddressSpace>::EHHeaderInfo&)
PUBLIC 39298 0 libunwind::CFI_Parser<libunwind::LocalAddressSpace>::findFDE(libunwind::LocalAddressSpace&, unsigned long, unsigned long, unsigned long, unsigned long, libunwind::CFI_Parser<libunwind::LocalAddressSpace>::FDE_Info*, libunwind::CFI_Parser<libunwind::LocalAddressSpace>::CIE_Info*)
PUBLIC 39460 0 libunwind::EHHeaderParser<libunwind::LocalAddressSpace>::findFDE(libunwind::LocalAddressSpace&, unsigned long, unsigned long, unsigned int, libunwind::CFI_Parser<libunwind::LocalAddressSpace>::FDE_Info*, libunwind::CFI_Parser<libunwind::LocalAddressSpace>::CIE_Info*)
PUBLIC 395c8 0 libunwind::EHHeaderParser<libunwind::LocalAddressSpace>::getTableEntrySize(unsigned char)
PUBLIC 396c4 0 libunwind::Registers_arm64::getRegisterName(int)
PUBLIC 396f4 0 __libunwind_Registers_arm64_jumpto
PUBLIC m 39784 0 __unw_getcontext
PUBLIC 39820 0 __aarch64_ldadd8_acq_rel
PUBLIC 39850 0 init_have_lse_atomics
PUBLIC 398e8 0 __init_cpu_features_constructor
PUBLIC 39b94 0 __init_cpu_features
PUBLIC 39c20 0 __aarch64_ldadd8_relax
PUBLIC 39c50 0 __cxx_global_var_init
PUBLIC 39d04 0 AudioManager::get()
PUBLIC 39da4 0 AudioManager::~AudioManager()
PUBLIC 39e4c 0 AudioManager::AudioManager()
PUBLIC 39ff0 0 std::__ndk1::vector<std::__ndk1::shared_ptr<AudioSource>, std::__ndk1::allocator<std::__ndk1::shared_ptr<AudioSource> > >::~vector[abi:ne190000]()
PUBLIC 3a098 0 std::__ndk1::deque<std::__ndk1::shared_ptr<AudioSource>, std::__ndk1::allocator<std::__ndk1::shared_ptr<AudioSource> > >::~deque[abi:ne190000]()
PUBLIC 3a254 0 AudioManager::init()
PUBLIC 3a28c 0 AudioManager::populateSongs()
PUBLIC 3a694 0 AudioManager::populateSongsThread()
PUBLIC 3aaf4 0 AudioManager::setupPreloadUIFromPath(std::__ndk1::__fs::filesystem::path)
PUBLIC 3aec8 0 geode::Mod::getSettingValue<std::__ndk1::__fs::filesystem::path>(std::__ndk1::basic_string_view<char, std::__ndk1::char_traits<char> >) const
PUBLIC 3b06c 0 AudioManager::populateSongsFromPath(std::__ndk1::__fs::filesystem::path)
PUBLIC 3b79c 0 AudioManager::checkQueueLength()
PUBLIC 3be58 0 AudioManager::checkSongPreload()
PUBLIC 3c0d8 0 std::__ndk1::__fs::filesystem::directory_iterator::~directory_iterator[abi:ne190000]()
PUBLIC 3c128 0 AudioManager::isValidAudioFile(std::__ndk1::__fs::filesystem::path)
PUBLIC 3c564 0 AudioManager::populateAudioSourceInfo(std::__ndk1::shared_ptr<AudioSource>)
PUBLIC 3e52c 0 std::__ndk1::shared_ptr<AudioSource>::~shared_ptr[abi:ne190000]()
PUBLIC 3e57c 0 FMOD_ErrorString(FMOD_RESULT)
PUBLIC 3e5a8 0 _ZNSt6__ndk14pairIKNS_12basic_stringIcNS_11char_traitsIcEENS_9allocatorIcEEEES6_EC2B8ne190000IRA5_KcSC_TnNS_9enable_ifIXclsr10_CheckArgsE23__is_pair_constructibleIT_T0_EEEiE4typeELi0EEEOSE_OSF_
PUBLIC 3e704 0 std::__ndk1::pair<std::__ndk1::basic_string<char, std::__ndk1::char_traits<char>, std::__ndk1::allocator<char> > const, std::__ndk1::basic_string<char, std::__ndk1::char_traits<char>, std::__ndk1::allocator<char> > >::~pair()
PUBLIC 3e748 0 std::__ndk1::map<std::__ndk1::basic_string<char, std::__ndk1::char_traits<char>, std::__ndk1::allocator<char> >, std::__ndk1::basic_string<char, std::__ndk1::char_traits<char>, std::__ndk1::allocator<char> >, std::__ndk1::less<std::__ndk1::basic_string<char, std::__ndk1::char_traits<char>, std::__ndk1::allocator<char> > >, std::__ndk1::allocator<std::__ndk1::pair<std::__ndk1::basic_string<char, std::__ndk1::char_traits<char>, std::__ndk1::allocator<char> > const, std::__ndk1::basic_string<char, std::__ndk1::char_traits<char>, std::__ndk1::allocator<char> > > > >::map[abi:ne190000](std::initializer_list<std::__ndk1::pair<std::__ndk1::basic_string<char, std::__ndk1::char_traits<char>, std::__ndk1::allocator<char> > const, std::__ndk1::basic_string<char, std::__ndk1::char_traits<char>, std::__ndk1::allocator<char> > > >, std::__ndk1::less<std::__ndk1::basic_string<char, std::__ndk1::char_traits<char>, std::__ndk1::allocator<char> > > const&)
PUBLIC 3ea48 0 AudioManager::figureOutFallbackName(std::__ndk1::__fs::filesystem::path)
PUBLIC 3ecac 0 AudioManager::populateStringTag(FMOD_TAG, bool, std::__ndk1::shared_ptr<AudioSource>)
PUBLIC 3f4b8 0 geode::log::NestScope::~NestScope()
PUBLIC 3f4dc 0 AudioManager::nextSong()
PUBLIC 3f7cc 0 AudioManager::shouldAllowAudioFunctions()
PUBLIC 3f808 0 AudioManager::getCurrentSong()
PUBLIC 3f868 0 AudioManager::startPlayingCurrentSong()
PUBLIC 40078 0 AudioManager::prevSong()
PUBLIC 40720 0 AudioManager::rewind()
PUBLIC 407c8 0 AudioManager::getCurrentSongPosition()
PUBLIC 4081c 0 AudioManager::fastForward()
PUBLIC 40960 0 AudioManager::getCurrentSongLength()
PUBLIC 40a0c 0 AudioManager::togglePause()
PUBLIC 40a1c 0 AudioManager::setPaused(bool)
PUBLIC 40b2c 0 AudioManager::update(float)
PUBLIC 41548 0 AudioManager::exitEditor()
PUBLIC 417f4 0 geode::Mod::getSettingValue<bool>(std::__ndk1::basic_string_view<char, std::__ndk1::char_traits<char> >) const
PUBLIC 41920 0 AudioManager::updateLowPassFilter()
PUBLIC 41c28 0 AudioManager::enterEditor()
PUBLIC 41cd8 0 geode::Mod::getSavedValue<bool>(std::__ndk1::basic_string_view<char, std::__ndk1::char_traits<char> >, bool const&)
PUBLIC 41eb4 0 std::__ndk1::basic_string<char, std::__ndk1::char_traits<char>, std::__ndk1::allocator<char> >::__throw_length_error[abi:ne190000]() const
PUBLIC 41ec8 0 std::__ndk1::__throw_length_error[abi:ne190000](char const*)
PUBLIC 41f18 0 std::length_error::length_error[abi:ne190000](char const*)
PUBLIC 41f48 0 std::__throw_bad_array_new_length([abi:ne190000], void)
PUBLIC 41f7c 0 __clang_call_terminate
PUBLIC 41f8c 0 std::__ndk1::vector<std::__ndk1::shared_ptr<AudioSource>, std::__ndk1::allocator<std::__ndk1::shared_ptr<AudioSource> > >::__throw_length_error[abi:ne190000]() const
PUBLIC 41fa0 0 std::__ndk1::vector<Easer, std::__ndk1::allocator<Easer> >::__throw_length_error[abi:ne190000]() const
PUBLIC 41fb4 0 std::__ndk1::basic_string<char, std::__ndk1::char_traits<char>, std::__ndk1::allocator<char> >::__init_copy_ctor_external(char const*, unsigned long)
PUBLIC 42048 0 std::__ndk1::vector<Easer*, std::__ndk1::allocator<Easer*> >::__throw_length_error[abi:ne190000]() const
PUBLIC 4205c 0 std::__ndk1::__split_buffer<std::__ndk1::shared_ptr<AudioSource>*, std::__ndk1::allocator<std::__ndk1::shared_ptr<AudioSource>*> >::~__split_buffer()
PUBLIC 4208c 0 std::__ndk1::deque<std::__ndk1::shared_ptr<AudioSource>, std::__ndk1::allocator<std::__ndk1::shared_ptr<AudioSource> > >::__add_back_capacity(unsigned long)
PUBLIC 42a58 0 std::__ndk1::__split_buffer<std::__ndk1::shared_ptr<AudioSource>*, std::__ndk1::allocator<std::__ndk1::shared_ptr<AudioSource>*> >::push_back(std::__ndk1::shared_ptr<AudioSource>*&&)
PUBLIC 42be0 0 std::__ndk1::__split_buffer<std::__ndk1::shared_ptr<AudioSource>*, std::__ndk1::allocator<std::__ndk1::shared_ptr<AudioSource>*> >::push_front(std::__ndk1::shared_ptr<AudioSource>*&&)
PUBLIC 42d6c 0 std::__ndk1::__thread_proxy[abi:ne190000]<std::__ndk1::tuple<std::__ndk1::unique_ptr<std::__ndk1::__thread_struct, std::__ndk1::default_delete<std::__ndk1::unique_ptr> >, void (AudioManager::*)(), std::__ndk1::unique_ptr<std::__ndk1::__thread_struct, std::__ndk1::default_delete<std::__ndk1::unique_ptr> >*> >(std::__ndk1::tuple<std::__ndk1::unique_ptr<std::__ndk1::__thread_struct, std::__ndk1::default_delete<std::__ndk1::unique_ptr> >, void (AudioManager::*)(), std::__ndk1::unique_ptr<std::__ndk1::__thread_struct, std::__ndk1::default_delete<std::__ndk1::unique_ptr> >*>)
PUBLIC 42e38 0 std::__ndk1::unique_ptr<std::__ndk1::tuple<std::__ndk1::unique_ptr<std::__ndk1::__thread_struct, std::__ndk1::default_delete<std::__ndk1::__thread_struct> >, void (AudioManager::*)(), AudioManager*>, std::__ndk1::default_delete<std::__ndk1::tuple<std::__ndk1::unique_ptr<std::__ndk1::__thread_struct, std::__ndk1::default_delete<std::__ndk1::__thread_struct> >, void (AudioManager::*)(), AudioManager*> > >::~unique_ptr[abi:ne190000]()
PUBLIC 42e88 0 std::__ndk1::unique_ptr<std::__ndk1::__thread_struct, std::__ndk1::default_delete<std::__ndk1::__thread_struct> >::~unique_ptr[abi:ne190000]()
PUBLIC 42ec4 0 std::__ndk1::shared_ptr<geode::FileSettingV3>::~shared_ptr[abi:ne190000]()
PUBLIC 42f14 0 geode::cast::traverseTypeinfoFor(void*, geode::cast::ClassTypeinfoType const*, char const*)
PUBLIC 43018 0 std::__ndk1::__function::__base<void ()>::~__base()
PUBLIC 4301c 0 std::__ndk1::__function::__func<AudioManager::populateSongsThread()::$_0, std::__ndk1::allocator<AudioManager::populateSongsThread()::$_0>, void ()>::~__func()
PUBLIC 43020 0 std::__ndk1::__function::__func<AudioManager::populateSongsThread()::$_0, std::__ndk1::allocator<AudioManager::populateSongsThread()::$_0>, void ()>::__clone() const
PUBLIC 43054 0 std::__ndk1::__function::__func<AudioManager::populateSongsThread()::$_0, std::__ndk1::allocator<AudioManager::populateSongsThread()::$_0>, void ()>::__clone(std::__ndk1::__function::__base<void ()>*) const
PUBLIC 43068 0 std::__ndk1::__function::__func<AudioManager::populateSongsThread()::$_0, std::__ndk1::allocator<AudioManager::populateSongsThread()::$_0>, void ()>::destroy()
PUBLIC 4306c 0 std::__ndk1::__function::__func<AudioManager::populateSongsThread()::$_0, std::__ndk1::allocator<AudioManager::populateSongsThread()::$_0>, void ()>::destroy_deallocate()
PUBLIC 43070 0 std::__ndk1::__function::__func<AudioManager::populateSongsThread()::$_0, std::__ndk1::allocator<AudioManager::populateSongsThread()::$_0>, void ()>::operator()()
PUBLIC 43098 0 std::__ndk1::__function::__func<AudioManager::populateSongsThread()::$_0, std::__ndk1::allocator<AudioManager::populateSongsThread()::$_0>, void ()>::target(std::type_info const&) const
PUBLIC 430b4 0 std::__ndk1::__function::__func<AudioManager::populateSongsThread()::$_0, std::__ndk1::allocator<AudioManager::populateSongsThread()::$_0>, void ()>::target_type() const
PUBLIC 430c0 0 eclipse::events::SetRiftVariableEvent<long>::~SetRiftVariableEvent()
PUBLIC 430e4 0 std::__ndk1::__shared_ptr_emplace<AudioSource, std::__ndk1::allocator<AudioSource> >::~__shared_ptr_emplace()
PUBLIC 430f4 0 std::__ndk1::__shared_ptr_emplace<AudioSource, std::__ndk1::allocator<AudioSource> >::~__shared_ptr_emplace()
PUBLIC 43124 0 std::__ndk1::__shared_ptr_emplace<AudioSource, std::__ndk1::allocator<AudioSource> >::__on_zero_shared()
PUBLIC 4312c 0 std::__ndk1::__shared_ptr_emplace<AudioSource, std::__ndk1::allocator<AudioSource> >::__on_zero_shared_weak()
PUBLIC 43130 0 std::__ndk1::__function::__func<AudioManager::populateSongsFromPath(std::__ndk1::__fs::filesystem::path)::$_0, std::__ndk1::allocator<AudioManager::populateSongsFromPath(std::__ndk1::__fs::filesystem::path)::$_0>, void ()>::~__func()
PUBLIC 4318c 0 std::__ndk1::__function::__func<AudioManager::populateSongsFromPath(std::__ndk1::__fs::filesystem::path)::$_0, std::__ndk1::allocator<AudioManager::populateSongsFromPath(std::__ndk1::__fs::filesystem::path)::$_0>, void ()>::~__func()
PUBLIC 431f8 0 std::__ndk1::__function::__func<AudioManager::populateSongsFromPath(std::__ndk1::__fs::filesystem::path)::$_0, std::__ndk1::allocator<AudioManager::populateSongsFromPath(std::__ndk1::__fs::filesystem::path)::$_0>, void ()>::__clone() const
PUBLIC 43250 0 std::__ndk1::__function::__func<AudioManager::populateSongsFromPath(std::__ndk1::__fs::filesystem::path)::$_0, std::__ndk1::allocator<AudioManager::populateSongsFromPath(std::__ndk1::__fs::filesystem::path)::$_0>, void ()>::__clone(std::__ndk1::__function::__base<void ()>*) const
PUBLIC 4328c 0 std::__ndk1::__function::__func<AudioManager::populateSongsFromPath(std::__ndk1::__fs::filesystem::path)::$_0, std::__ndk1::allocator<AudioManager::populateSongsFromPath(std::__ndk1::__fs::filesystem::path)::$_0>, void ()>::destroy()
PUBLIC 432dc 0 std::__ndk1::__function::__func<AudioManager::populateSongsFromPath(std::__ndk1::__fs::filesystem::path)::$_0, std::__ndk1::allocator<AudioManager::populateSongsFromPath(std::__ndk1::__fs::filesystem::path)::$_0>, void ()>::destroy_deallocate()
PUBLIC 4333c 0 std::__ndk1::__function::__func<AudioManager::populateSongsFromPath(std::__ndk1::__fs::filesystem::path)::$_0, std::__ndk1::allocator<AudioManager::populateSongsFromPath(std::__ndk1::__fs::filesystem::path)::$_0>, void ()>::operator()()
PUBLIC 433f8 0 std::__ndk1::__function::__func<AudioManager::populateSongsFromPath(std::__ndk1::__fs::filesystem::path)::$_0, std::__ndk1::allocator<AudioManager::populateSongsFromPath(std::__ndk1::__fs::filesystem::path)::$_0>, void ()>::target(std::type_info const&) const
PUBLIC 43414 0 std::__ndk1::__function::__func<AudioManager::populateSongsFromPath(std::__ndk1::__fs::filesystem::path)::$_0, std::__ndk1::allocator<AudioManager::populateSongsFromPath(std::__ndk1::__fs::filesystem::path)::$_0>, void ()>::target_type() const
PUBLIC 43420 0 fmt::v11::detail::value<fmt::v11::context>::format_custom_arg<std::__ndk1::__fs::filesystem::path, fmt::v11::formatter<std::__ndk1::__fs::filesystem::path, char, void> >(void*, fmt::v11::basic_format_parse_context<char>&, fmt::v11::context&)
PUBLIC 442d0 0 fmt::v11::detail::parse_dynamic_spec<char>(char const*, char const*, int&, fmt::v11::detail::arg_ref<char>&, fmt::v11::basic_format_parse_context<char>&)
PUBLIC 44474 0 fmt::v11::detail::do_parse_arg_id<char, fmt::v11::detail::dynamic_spec_id_handler<char>&>(char const*, char const*, fmt::v11::detail::dynamic_spec_id_handler<char>&)
PUBLIC 4460c 0 fmt::v11::detail::handle_dynamic_spec<fmt::v11::detail::width_checker, fmt::v11::context>(int&, fmt::v11::detail::arg_ref<fmt::v11::context::char_type>, fmt::v11::context&)
PUBLIC 44720 0 fmt::v11::detail::write<char, fmt::v11::basic_appender<char> >(fmt::v11::basic_appender<char>, fmt::v11::basic_string_view<char>, fmt::v11::format_specs const&)
PUBLIC 4499c 0 fmt::v11::detail::get_dynamic_spec<fmt::v11::detail::width_checker, fmt::v11::basic_format_arg<fmt::v11::context> >(fmt::v11::basic_format_arg<fmt::v11::context>)
PUBLIC 44a30 0 fmt::v11::basic_format_args<fmt::v11::context>::get<char>(fmt::v11::basic_string_view<char>) const
PUBLIC 44b64 0 fmt::v11::detail::write_escaped_string<char, fmt::v11::detail::counting_iterator>(fmt::v11::detail::counting_iterator, fmt::v11::basic_string_view<char>)
PUBLIC 45048 0 fmt::v11::detail::write_padded<char, (fmt::v11::align::type)1, fmt::v11::basic_appender<char>, fmt::v11::detail::write<char, fmt::v11::basic_appender<char> >(fmt::v11::basic_appender<char>, fmt::v11::basic_string_view<char>, fmt::v11::format_specs const&)::{lambda(fmt::v11::basic_appender<char>)#1}>(fmt::v11::basic_appender<char>, fmt::v11::format_specs const&, unsigned long, unsigned long, fmt::v11::detail::write<char, fmt::v11::basic_appender<char> >(fmt::v11::basic_appender<char>, fmt::v11::basic_string_view<char>, fmt::v11::format_specs const&)::{lambda(fmt::v11::basic_appender<char>&&)#1})
PUBLIC 45254 0 fmt::v11::detail::for_each_codepoint<fmt::v11::detail::code_point_index(fmt::v11::basic_string_view<char>, unsigned long)::{lambda(unsigned int, fmt::v11::basic_string_view<char>)#1}>(fmt::v11::basic_string_view<char>, fmt::v11::detail::code_point_index(fmt::v11::basic_string_view<char>, unsigned long)::{lambda(unsigned int, fmt::v11::basic_string_view<char>)#1})
PUBLIC 45648 0 fmt::v11::detail::write_escaped_cp<fmt::v11::detail::counting_iterator, char>(fmt::v11::detail::counting_iterator, fmt::v11::detail::find_escape_result<char> const&)
PUBLIC 457dc 0 fmt::v11::detail::for_each_codepoint<fmt::v11::detail::compute_width(fmt::v11::basic_string_view<char>)::count_code_points>(fmt::v11::basic_string_view<char>, fmt::v11::detail::compute_width(fmt::v11::basic_string_view<char>)::count_code_points)::{lambda(char const*, char const*)#1}::operator()(char const*, char const*) const
PUBLIC 45994 0 fmt::v11::detail::fill<char, fmt::v11::basic_appender<char> >(fmt::v11::basic_appender<char>, unsigned long, fmt::v11::detail::fill_t const&)
PUBLIC 45b64 0 fmt::v11::detail::write_escaped_string<char, fmt::v11::basic_appender<char> >(fmt::v11::basic_appender<char>, fmt::v11::basic_string_view<char>)
PUBLIC 461ac 0 fmt::v11::detail::write_escaped_cp<fmt::v11::basic_appender<char>, char>(fmt::v11::basic_appender<char>, fmt::v11::detail::find_escape_result<char> const&)
PUBLIC 46390 0 fmt::v11::detail::write_codepoint<(unsigned long)2, char, fmt::v11::basic_appender<char> >(fmt::v11::basic_appender<char>, char, unsigned int)
PUBLIC 46508 0 fmt::v11::detail::write_codepoint<(unsigned long)4, char, fmt::v11::basic_appender<char> >(fmt::v11::basic_appender<char>, char, unsigned int)
PUBLIC 46680 0 fmt::v11::detail::write_codepoint<(unsigned long)8, char, fmt::v11::basic_appender<char> >(fmt::v11::basic_appender<char>, char, unsigned int)
PUBLIC 467f8 0 fmt::v11::basic_memory_buffer<char, (unsigned long)500, std::__ndk1::allocator<char> >::grow(fmt::v11::detail::buffer<char>&, unsigned long)
PUBLIC 46870 0 fmt::v11::detail::write_codepoint<(unsigned long)2, char, std::__ndk1::back_insert_iterator<fmt::v11::basic_memory_buffer<char, (unsigned long)500, std::__ndk1::allocator<char> > > >(std::__ndk1::back_insert_iterator<fmt::v11::basic_memory_buffer<char, (unsigned long)500, std::__ndk1::allocator<char> > >, char, unsigned int)
PUBLIC 469e8 0 std::__ndk1::unique_ptr<std::__ndk1::__tree_node<std::__ndk1::__value_type<std::__ndk1::basic_string<char, std::__ndk1::char_traits<char>, std::__ndk1::allocator<char> >, std::__ndk1::basic_string<char, std::__ndk1::char_traits<char>, std::__ndk1::allocator<char> > >, void*>, std::__ndk1::__tree_node_destructor<std::__ndk1::allocator<std::__ndk1::__tree_node<std::__ndk1::__value_type<std::__ndk1::basic_string<char, std::__ndk1::char_traits<char>, std::__ndk1::allocator<char> >, std::__ndk1::basic_string<char, std::__ndk1::char_traits<char>, std::__ndk1::allocator<char> > >, void*> > > >::~unique_ptr[abi:ne190000]()
PUBLIC 46a44 0 std::__ndk1::__tree_balance_after_insert[abi:ne190000]<std::__ndk1::__tree_node_base<void*>*>(std::__ndk1::__tree_node_base<void*>*, std::__ndk1::__tree_node_base<void*>*)
PUBLIC 46bec 0 std::__ndk1::__tree<std::__ndk1::__value_type<std::__ndk1::basic_string<char, std::__ndk1::char_traits<char>, std::__ndk1::allocator<char> >, std::__ndk1::basic_string<char, std::__ndk1::char_traits<char>, std::__ndk1::allocator<char> > >, std::__ndk1::__map_value_compare<std::__ndk1::basic_string<char, std::__ndk1::char_traits<char>, std::__ndk1::allocator<char> >, std::__ndk1::__value_type<std::__ndk1::basic_string<char, std::__ndk1::char_traits<char>, std::__ndk1::allocator<char> >, std::__ndk1::basic_string<char, std::__ndk1::char_traits<char>, std::__ndk1::allocator<char> > >, std::__ndk1::less<std::__ndk1::basic_string<char, std::__ndk1::char_traits<char>, std::__ndk1::allocator<char> > >, true>, std::__ndk1::allocator<std::__ndk1::__value_type<std::__ndk1::basic_string<char, std::__ndk1::char_traits<char>, std::__ndk1::allocator<char> >, std::__ndk1::basic_string<char, std::__ndk1::char_traits<char>, std::__ndk1::allocator<char> > > > >::destroy(std::__ndk1::__tree_node<std::__ndk1::__value_type<std::__ndk1::basic_string<char, std::__ndk1::char_traits<char>, std::__ndk1::allocator<char> >, std::__ndk1::basic_string<char, std::__ndk1::char_traits<char>, std::__ndk1::allocator<char> > >, void*>*)
PUBLIC 46c5c 0 std::__ndk1::__tree<std::__ndk1::__value_type<std::__ndk1::basic_string<char, std::__ndk1::char_traits<char>, std::__ndk1::allocator<char> >, std::__ndk1::basic_string<char, std::__ndk1::char_traits<char>, std::__ndk1::allocator<char> > >, std::__ndk1::__map_value_compare<std::__ndk1::basic_string<char, std::__ndk1::char_traits<char>, std::__ndk1::allocator<char> >, std::__ndk1::__value_type<std::__ndk1::basic_string<char, std::__ndk1::char_traits<char>, std::__ndk1::allocator<char> >, std::__ndk1::basic_string<char, std::__ndk1::char_traits<char>, std::__ndk1::allocator<char> > >, std::__ndk1::less<std::__ndk1::basic_string<char, std::__ndk1::char_traits<char>, std::__ndk1::allocator<char> > >, true>, std::__ndk1::allocator<std::__ndk1::__value_type<std::__ndk1::basic_string<char, std::__ndk1::char_traits<char>, std::__ndk1::allocator<char> >, std::__ndk1::basic_string<char, std::__ndk1::char_traits<char>, std::__ndk1::allocator<char> > > > >::__emplace_unique_key_args<std::__ndk1::basic_string<char, std::__ndk1::char_traits<char>, std::__ndk1::allocator<char> >, std::__ndk1::piecewise_construct_t const&, std::__ndk1::tuple<std::__ndk1::basic_string<char, std::__ndk1::char_traits<char>, std::__ndk1::allocator<char> >&&>, std::__ndk1::tuple<> >(std::__ndk1::basic_string<char, std::__ndk1::char_traits<char>, std::__ndk1::allocator<char> > const&, std::__ndk1::piecewise_construct_t const&, std::__ndk1::tuple<std::__ndk1::basic_string<char, std::__ndk1::char_traits<char>, std::__ndk1::allocator<char> >&&>, std::__ndk1::tuple<>)
PUBLIC 46dc4 0 std::__ndk1::__function::__func<AudioManager::populateAlbumCover(std::__ndk1::shared_ptr<AudioSource>, FMOD_TAG)::$_0, std::__ndk1::allocator<AudioManager::populateAlbumCover(std::__ndk1::shared_ptr<AudioSource>, FMOD_TAG)::$_0>, void ()>::~__func()
PUBLIC 46e20 0 std::__ndk1::__function::__func<AudioManager::populateAlbumCover(std::__ndk1::shared_ptr<AudioSource>, FMOD_TAG)::$_0, std::__ndk1::allocator<AudioManager::populateAlbumCover(std::__ndk1::shared_ptr<AudioSource>, FMOD_TAG)::$_0>, void ()>::~__func()
PUBLIC 46e8c 0 std::__ndk1::__function::__func<AudioManager::populateAlbumCover(std::__ndk1::shared_ptr<AudioSource>, FMOD_TAG)::$_0, std::__ndk1::allocator<AudioManager::populateAlbumCover(std::__ndk1::shared_ptr<AudioSource>, FMOD_TAG)::$_0>, void ()>::__clone() const
PUBLIC 46ee4 0 std::__ndk1::__function::__func<AudioManager::populateAlbumCover(std::__ndk1::shared_ptr<AudioSource>, FMOD_TAG)::$_0, std::__ndk1::allocator<AudioManager::populateAlbumCover(std::__ndk1::shared_ptr<AudioSource>, FMOD_TAG)::$_0>, void ()>::__clone(std::__ndk1::__function::__base<void ()>*) const
PUBLIC 46f30 0 std::__ndk1::__function::__func<AudioManager::populateAlbumCover(std::__ndk1::shared_ptr<AudioSource>, FMOD_TAG)::$_0, std::__ndk1::allocator<AudioManager::populateAlbumCover(std::__ndk1::shared_ptr<AudioSource>, FMOD_TAG)::$_0>, void ()>::destroy()
PUBLIC 46f80 0 std::__ndk1::__function::__func<AudioManager::populateAlbumCover(std::__ndk1::shared_ptr<AudioSource>, FMOD_TAG)::$_0, std::__ndk1::allocator<AudioManager::populateAlbumCover(std::__ndk1::shared_ptr<AudioSource>, FMOD_TAG)::$_0>, void ()>::destroy_deallocate()
PUBLIC 46fe0 0 std::__ndk1::__function::__func<AudioManager::populateAlbumCover(std::__ndk1::shared_ptr<AudioSource>, FMOD_TAG)::$_0, std::__ndk1::allocator<AudioManager::populateAlbumCover(std::__ndk1::shared_ptr<AudioSource>, FMOD_TAG)::$_0>, void ()>::operator()()
PUBLIC 471bc 0 std::__ndk1::__function::__func<AudioManager::populateAlbumCover(std::__ndk1::shared_ptr<AudioSource>, FMOD_TAG)::$_0, std::__ndk1::allocator<AudioManager::populateAlbumCover(std::__ndk1::shared_ptr<AudioSource>, FMOD_TAG)::$_0>, void ()>::target(std::type_info const&) const
PUBLIC 471d8 0 std::__ndk1::__function::__func<AudioManager::populateAlbumCover(std::__ndk1::shared_ptr<AudioSource>, FMOD_TAG)::$_0, std::__ndk1::allocator<AudioManager::populateAlbumCover(std::__ndk1::shared_ptr<AudioSource>, FMOD_TAG)::$_0>, void ()>::target_type() const
PUBLIC 471e4 0 std::__ndk1::deque<std::__ndk1::shared_ptr<AudioSource>, std::__ndk1::allocator<std::__ndk1::shared_ptr<AudioSource> > >::__add_back_capacity()
PUBLIC 477bc 0 std::__ndk1::__split_buffer<std::__ndk1::shared_ptr<AudioSource>*, std::__ndk1::allocator<std::__ndk1::shared_ptr<AudioSource>*> >::push_front(std::__ndk1::shared_ptr<AudioSource>* const&)
PUBLIC 47948 0 geode::Mod::getSavedValue<bool>(std::__ndk1::basic_string_view<char, std::__ndk1::char_traits<char> >)
PUBLIC 47ad0 0 geode::impl::ResultData<matjson::Value&, std::__ndk1::basic_string<char, std::__ndk1::char_traits<char>, std::__ndk1::allocator<char> > >::~ResultData()
PUBLIC 47b44 0 std::__ndk1::__throw_bad_variant_access[abi:ne190000]()
PUBLIC 47b78 0 std::__ndk1::__variant_detail::__visitation::__base::__dispatcher<(unsigned long)0>::__dispatch[abi:ne190000]<std::__ndk1::__variant_detail::__dtor<std::__ndk1::__variant_detail::__traits<std::__ndk1::reference_wrapper<matjson::Value>, std::__ndk1::basic_string<char, std::__ndk1::char_traits<char>, std::__ndk1::allocator<char> > >, (std::__ndk1::__variant_detail::_Trait)1>::__destroy[abi:ne190000]()::{lambda(auto:1&)#1}, std::__ndk1::__variant_detail::__base<(std::__ndk1::__variant_detail::__traits<std::__ndk1::reference_wrapper<matjson::Value>, std::__ndk1::basic_string<char, std::__ndk1::char_traits<char>, std::__ndk1::allocator<char> > >)1, matjson::Value, std::__ndk1::allocator<char> >&>(std::__ndk1::__variant_detail::__dtor<std::__ndk1::__variant_detail::__traits<std::__ndk1::reference_wrapper<matjson::Value>, std::__ndk1::basic_string<char, std::__ndk1::char_traits<char>, std::__ndk1::allocator<char> > >, (std::__ndk1::__variant_detail::_Trait)1>, std::__ndk1::__variant_detail::__base<(std::__ndk1::__variant_detail::__traits<std::__ndk1::reference_wrapper<matjson::Value>, std::__ndk1::basic_string<char, std::__ndk1::char_traits<char>, std::__ndk1::allocator<char> > >)1, matjson::Value, std::__ndk1::allocator<char> >&)
PUBLIC 47b7c 0 std::__ndk1::__variant_detail::__visitation::__base::__dispatcher<(unsigned long)1>::__dispatch[abi:ne190000]<std::__ndk1::__variant_detail::__dtor<std::__ndk1::__variant_detail::__traits<std::__ndk1::reference_wrapper<matjson::Value>, std::__ndk1::basic_string<char, std::__ndk1::char_traits<char>, std::__ndk1::allocator<char> > >, (std::__ndk1::__variant_detail::_Trait)1>::__destroy[abi:ne190000]()::{lambda(auto:1&)#1}, std::__ndk1::__variant_detail::__base<(std::__ndk1::__variant_detail::__traits<std::__ndk1::reference_wrapper<matjson::Value>, std::__ndk1::basic_string<char, std::__ndk1::char_traits<char>, std::__ndk1::allocator<char> > >)1, matjson::Value, std::__ndk1::allocator<char> >&>(std::__ndk1::__variant_detail::__dtor<std::__ndk1::__variant_detail::__traits<std::__ndk1::reference_wrapper<matjson::Value>, std::__ndk1::basic_string<char, std::__ndk1::char_traits<char>, std::__ndk1::allocator<char> > >, (std::__ndk1::__variant_detail::_Trait)1>, std::__ndk1::__variant_detail::__base<(std::__ndk1::__variant_detail::__traits<std::__ndk1::reference_wrapper<matjson::Value>, std::__ndk1::basic_string<char, std::__ndk1::char_traits<char>, std::__ndk1::allocator<char> > >)1, matjson::Value, std::__ndk1::allocator<char> >&)
PUBLIC 47b90 0 std::__ndk1::__variant_detail::__visitation::__base::__dispatcher<(unsigned long)0>::__dispatch[abi:ne190000]<std::__ndk1::__variant_detail::__dtor<std::__ndk1::__variant_detail::__traits<bool, std::__ndk1::basic_string<char, std::__ndk1::char_traits<char>, std::__ndk1::allocator<char> > >, (std::__ndk1::__variant_detail::_Trait)1>::__destroy[abi:ne190000]()::{lambda(auto:1&)#1}, std::__ndk1::__variant_detail::__base<(std::__ndk1::__variant_detail::__traits<bool, std::__ndk1::basic_string<char, std::__ndk1::char_traits<char>, std::__ndk1::allocator<char> > >)1, bool, std::__ndk1::allocator<char> >&>(std::__ndk1::__variant_detail::__dtor<std::__ndk1::__variant_detail::__traits<bool, std::__ndk1::basic_string<char, std::__ndk1::char_traits<char>, std::__ndk1::allocator<char> > >, (std::__ndk1::__variant_detail::_Trait)1>, std::__ndk1::__variant_detail::__base<(std::__ndk1::__variant_detail::__traits<bool, std::__ndk1::basic_string<char, std::__ndk1::char_traits<char>, std::__ndk1::allocator<char> > >)1, bool, std::__ndk1::allocator<char> >&)
PUBLIC 47b94 0 std::__ndk1::__variant_detail::__visitation::__base::__dispatcher<(unsigned long)1>::__dispatch[abi:ne190000]<std::__ndk1::__variant_detail::__dtor<std::__ndk1::__variant_detail::__traits<bool, std::__ndk1::basic_string<char, std::__ndk1::char_traits<char>, std::__ndk1::allocator<char> > >, (std::__ndk1::__variant_detail::_Trait)1>::__destroy[abi:ne190000]()::{lambda(auto:1&)#1}, std::__ndk1::__variant_detail::__base<(std::__ndk1::__variant_detail::__traits<bool, std::__ndk1::basic_string<char, std::__ndk1::char_traits<char>, std::__ndk1::allocator<char> > >)1, bool, std::__ndk1::allocator<char> >&>(std::__ndk1::__variant_detail::__dtor<std::__ndk1::__variant_detail::__traits<bool, std::__ndk1::basic_string<char, std::__ndk1::char_traits<char>, std::__ndk1::allocator<char> > >, (std::__ndk1::__variant_detail::_Trait)1>, std::__ndk1::__variant_detail::__base<(std::__ndk1::__variant_detail::__traits<bool, std::__ndk1::basic_string<char, std::__ndk1::char_traits<char>, std::__ndk1::allocator<char> > >)1, bool, std::__ndk1::allocator<char> >&)
PUBLIC 47ba8 0 _ZN7eclipse5label11setVariableITkNS0_13SupportedTypeENSt6__ndk112basic_stringIcNS2_11char_traitsIcEENS2_9allocatorIcEEEEEEvNS2_17basic_string_viewIcS5_EET_
PUBLIC 47cfc 0 eclipse::events::SetRiftVariableEvent<std::__ndk1::basic_string<char, std::__ndk1::char_traits<char>, std::__ndk1::allocator<char> > >::~SetRiftVariableEvent()
PUBLIC 47d30 0 eclipse::events::SetRiftVariableEvent<std::__ndk1::basic_string<char, std::__ndk1::char_traits<char>, std::__ndk1::allocator<char> > >::~SetRiftVariableEvent()
PUBLIC 47d68 0 AudioSource::AudioSource(std::__ndk1::__fs::filesystem::path)
PUBLIC 47df4 0 AudioSource::~AudioSource()
PUBLIC 47e68 0 AudioSource::loadAudioThreaded()
PUBLIC 47f00 0 AudioSource::loadAudio()
PUBLIC 480f4 0 _ZNSt6__ndk16threadC2IM11AudioSourceFvvEJPS2_ETnNS_9enable_ifIXntsr7is_sameIu14__remove_cvrefIT_ES0_EE5valueEiE4typeELi0EEEOS7_DpOT0_
PUBLIC 48200 0 AudioSource::getCombinedSongName()
PUBLIC 48340 0 std::__ndk1::__thread_proxy[abi:ne190000]<std::__ndk1::tuple<std::__ndk1::unique_ptr<std::__ndk1::__thread_struct, std::__ndk1::default_delete<std::__ndk1::unique_ptr> >, void (AudioSource::*)(), std::__ndk1::unique_ptr<std::__ndk1::__thread_struct, std::__ndk1::default_delete<std::__ndk1::unique_ptr> >*> >(std::__ndk1::tuple<std::__ndk1::unique_ptr<std::__ndk1::__thread_struct, std::__ndk1::default_delete<std::__ndk1::unique_ptr> >, void (AudioSource::*)(), std::__ndk1::unique_ptr<std::__ndk1::__thread_struct, std::__ndk1::default_delete<std::__ndk1::unique_ptr> >*>)
PUBLIC 4840c 0 std::__ndk1::unique_ptr<std::__ndk1::tuple<std::__ndk1::unique_ptr<std::__ndk1::__thread_struct, std::__ndk1::default_delete<std::__ndk1::__thread_struct> >, void (AudioSource::*)(), AudioSource*>, std::__ndk1::default_delete<std::__ndk1::tuple<std::__ndk1::unique_ptr<std::__ndk1::__thread_struct, std::__ndk1::default_delete<std::__ndk1::__thread_struct> >, void (AudioSource::*)(), AudioSource*> > >::~unique_ptr[abi:ne190000]()
PUBLIC 4845c 0 Easer::Easer(float*, float, float, float)
PUBLIC 48474 0 Easer::update(float)
PUBLIC 48538 0 cocos2d::CCCopying::copyWithZone(cocos2d::CCZone*)
PUBLIC 48540 0 __cxx_global_var_init
PUBLIC 489b0 0 geode::modifier::ModifyBase<geode::modifier::ModifyDerive<HookedCCScheduler, cocos2d::CCScheduler> >::~ModifyBase()
PUBLIC 489cc 0 geode::modifier::ModifyDerive<HookedCCScheduler, cocos2d::CCScheduler>::apply()
PUBLIC 48d38 0 std::__ndk1::shared_ptr<geode::Hook>::~shared_ptr[abi:ne190000]()
PUBLIC 48d88 0 geode::impl::ResultData<geode::Hook*, std::__ndk1::basic_string<char, std::__ndk1::char_traits<char>, std::__ndk1::allocator<char> > >::~ResultData()
PUBLIC 48dfc 0 std::__ndk1::vector<std::__ndk1::basic_string<char, std::__ndk1::char_traits<char>, std::__ndk1::allocator<char> >, std::__ndk1::allocator<std::__ndk1::basic_string<char, std::__ndk1::char_traits<char>, std::__ndk1::allocator<char> > > >::~vector[abi:ne190000]()
PUBLIC 48e78 0 geode::modifier::ModifyBase<geode::modifier::ModifyDerive<HookedCCScheduler, cocos2d::CCScheduler> >::apply()
PUBLIC 48e7c 0 _ZN5geode15UnwrapExceptionC2IRPNS_4HookEQsr4implE18IsStringStreamableIT_EEENS_4impl5OkTagEOS5_
PUBLIC 48fd0 0 std::__ndk1::basic_stringstream<char, std::__ndk1::char_traits<char>, std::__ndk1::allocator<char> >::basic_stringstream[abi:ne190000]()
PUBLIC m 49104 0 std::__ndk1::basic_stringstream<char, std::__ndk1::char_traits<char>, std::__ndk1::allocator<char> >::~basic_stringstream()
PUBLIC 49184 0 geode::UnwrapException::~UnwrapException()
PUBLIC 491a8 0 std::__ndk1::__put_character_sequence[abi:ne190000]<char, std::__ndk1::char_traits<char> >(std::__ndk1::basic_ostream<char, std::__ndk1::char_traits<char> >, std::__ndk1::basic_ostream const*, unsigned long)
PUBLIC 4934c 0 std::__ndk1::__pad_and_output[abi:ne190000]<char, std::__ndk1::char_traits<char> >(std::__ndk1::char_traits<char>, std::__ndk1::ostreambuf_iterator const*, std::__ndk1::ostreambuf_iterator const, std::__ndk1::ostreambuf_iterator const, std::__ndk1::ios_base&, std::__ndk1::ostreambuf_iterator)
PUBLIC 49538 0 std::__ndk1::basic_stringbuf<char, std::__ndk1::char_traits<char>, std::__ndk1::allocator<char> >::str[abi:ne190000]() &&
PUBLIC 496a8 0 std::__ndk1::basic_stringbuf<char, std::__ndk1::char_traits<char>, std::__ndk1::allocator<char> >::__init_buf_ptrs[abi:ne190000]()
PUBLIC 497f0 0 std::__ndk1::basic_string<char, std::__ndk1::char_traits<char>, std::__ndk1::allocator<char> >::__erase_external_with_move(unsigned long, unsigned long)
PUBLIC 49878 0 std::__ndk1::vector<std::__ndk1::basic_string<char, std::__ndk1::char_traits<char>, std::__ndk1::allocator<char> >, std::__ndk1::allocator<std::__ndk1::basic_string<char, std::__ndk1::char_traits<char>, std::__ndk1::allocator<char> > > >::__push_back_slow_path<std::__ndk1::basic_string<char, std::__ndk1::char_traits<char>, std::__ndk1::allocator<char> > const&>(std::__ndk1::basic_string<char, std::__ndk1::char_traits<char>, std::__ndk1::allocator<char> > const&)
PUBLIC 49a28 0 std::__ndk1::__split_buffer<std::__ndk1::basic_string<char, std::__ndk1::char_traits<char>, std::__ndk1::allocator<char> >, std::__ndk1::allocator<std::__ndk1::basic_string<char, std::__ndk1::char_traits<char>, std::__ndk1::allocator<char> > >&>::~__split_buffer()
PUBLIC 49a90 0 std::__ndk1::vector<std::__ndk1::basic_string<char, std::__ndk1::char_traits<char>, std::__ndk1::allocator<char> >, std::__ndk1::allocator<std::__ndk1::basic_string<char, std::__ndk1::char_traits<char>, std::__ndk1::allocator<char> > > >::__throw_length_error[abi:ne190000]() const
PUBLIC 49aa4 0 std::__ndk1::__variant_detail::__visitation::__base::__dispatcher<(unsigned long)0>::__dispatch[abi:ne190000]<std::__ndk1::__variant_detail::__dtor<std::__ndk1::__variant_detail::__traits<geode::Hook*, std::__ndk1::basic_string<char, std::__ndk1::char_traits<char>, std::__ndk1::allocator<char> > >, (std::__ndk1::__variant_detail::_Trait)1>::__destroy[abi:ne190000]()::{lambda(auto:1&)#1}, std::__ndk1::__variant_detail::__base<(std::__ndk1::__variant_detail::__traits<geode::Hook*, std::__ndk1::basic_string<char, std::__ndk1::char_traits<char>, std::__ndk1::allocator<char> > >)1, geode::Hook, std::__ndk1::allocator<char> >&>(std::__ndk1::__variant_detail::__dtor<std::__ndk1::__variant_detail::__traits<geode::Hook*, std::__ndk1::basic_string<char, std::__ndk1::char_traits<char>, std::__ndk1::allocator<char> > >, (std::__ndk1::__variant_detail::_Trait)1>, std::__ndk1::__variant_detail::__base<(std::__ndk1::__variant_detail::__traits<geode::Hook*, std::__ndk1::basic_string<char, std::__ndk1::char_traits<char>, std::__ndk1::allocator<char> > >)1, geode::Hook, std::__ndk1::allocator<char> >&)
PUBLIC 49aa8 0 std::__ndk1::__variant_detail::__visitation::__base::__dispatcher<(unsigned long)1>::__dispatch[abi:ne190000]<std::__ndk1::__variant_detail::__dtor<std::__ndk1::__variant_detail::__traits<geode::Hook*, std::__ndk1::basic_string<char, std::__ndk1::char_traits<char>, std::__ndk1::allocator<char> > >, (std::__ndk1::__variant_detail::_Trait)1>::__destroy[abi:ne190000]()::{lambda(auto:1&)#1}, std::__ndk1::__variant_detail::__base<(std::__ndk1::__variant_detail::__traits<geode::Hook*, std::__ndk1::basic_string<char, std::__ndk1::char_traits<char>, std::__ndk1::allocator<char> > >)1, geode::Hook, std::__ndk1::allocator<char> >&>(std::__ndk1::__variant_detail::__dtor<std::__ndk1::__variant_detail::__traits<geode::Hook*, std::__ndk1::basic_string<char, std::__ndk1::char_traits<char>, std::__ndk1::allocator<char> > >, (std::__ndk1::__variant_detail::_Trait)1>, std::__ndk1::__variant_detail::__base<(std::__ndk1::__variant_detail::__traits<geode::Hook*, std::__ndk1::basic_string<char, std::__ndk1::char_traits<char>, std::__ndk1::allocator<char> > >)1, geode::Hook, std::__ndk1::allocator<char> >&)
PUBLIC 49abc 0 std::__ndk1::__tree<std::__ndk1::__value_type<std::__ndk1::basic_string<char, std::__ndk1::char_traits<char>, std::__ndk1::allocator<char> >, std::__ndk1::shared_ptr<geode::Hook> >, std::__ndk1::__map_value_compare<std::__ndk1::basic_string<char, std::__ndk1::char_traits<char>, std::__ndk1::allocator<char> >, std::__ndk1::__value_type<std::__ndk1::basic_string<char, std::__ndk1::char_traits<char>, std::__ndk1::allocator<char> >, std::__ndk1::shared_ptr<geode::Hook> >, std::__ndk1::less<std::__ndk1::basic_string<char, std::__ndk1::char_traits<char>, std::__ndk1::allocator<char> > >, true>, std::__ndk1::allocator<std::__ndk1::__value_type<std::__ndk1::basic_string<char, std::__ndk1::char_traits<char>, std::__ndk1::allocator<char> >, std::__ndk1::shared_ptr<geode::Hook> > > >::find<std::__ndk1::basic_string<char, std::__ndk1::char_traits<char>, std::__ndk1::allocator<char> > >(std::__ndk1::basic_string<char, std::__ndk1::char_traits<char>, std::__ndk1::allocator<char> > const&)
PUBLIC 49be4 0 std::__ndk1::__tree<std::__ndk1::__value_type<std::__ndk1::basic_string<char, std::__ndk1::char_traits<char>, std::__ndk1::allocator<char> >, std::__ndk1::shared_ptr<geode::Hook> >, std::__ndk1::__map_value_compare<std::__ndk1::basic_string<char, std::__ndk1::char_traits<char>, std::__ndk1::allocator<char> >, std::__ndk1::__value_type<std::__ndk1::basic_string<char, std::__ndk1::char_traits<char>, std::__ndk1::allocator<char> >, std::__ndk1::shared_ptr<geode::Hook> >, std::__ndk1::less<std::__ndk1::basic_string<char, std::__ndk1::char_traits<char>, std::__ndk1::allocator<char> > >, true>, std::__ndk1::allocator<std::__ndk1::__value_type<std::__ndk1::basic_string<char, std::__ndk1::char_traits<char>, std::__ndk1::allocator<char> >, std::__ndk1::shared_ptr<geode::Hook> > > >::erase(std::__ndk1::__tree_const_iterator<std::__ndk1::__value_type<std::__ndk1::basic_string<char, std::__ndk1::char_traits<char>, std::__ndk1::allocator<char> >, std::__ndk1::shared_ptr<geode::Hook> >, std::__ndk1::__tree_node<std::__ndk1::__value_type<std::__ndk1::basic_string<char, std::__ndk1::char_traits<char>, std::__ndk1::allocator<char> >, std::__ndk1::shared_ptr<geode::Hook> >, void*>*, long>)
PUBLIC 49cb8 0 std::__ndk1::__tree_remove[abi:ne190000]<std::__ndk1::__tree_node_base<void*>*>(std::__ndk1::__tree_node_base<void*>*, std::__ndk1::__tree_node_base<void*>*)
PUBLIC 4a080 0 std::__ndk1::__tree<std::__ndk1::__value_type<std::__ndk1::basic_string<char, std::__ndk1::char_traits<char>, std::__ndk1::allocator<char> >, std::__ndk1::shared_ptr<geode::Hook> >, std::__ndk1::__map_value_compare<std::__ndk1::basic_string<char, std::__ndk1::char_traits<char>, std::__ndk1::allocator<char> >, std::__ndk1::__value_type<std::__ndk1::basic_string<char, std::__ndk1::char_traits<char>, std::__ndk1::allocator<char> >, std::__ndk1::shared_ptr<geode::Hook> >, std::__ndk1::less<std::__ndk1::basic_string<char, std::__ndk1::char_traits<char>, std::__ndk1::allocator<char> > >, true>, std::__ndk1::allocator<std::__ndk1::__value_type<std::__ndk1::basic_string<char, std::__ndk1::char_traits<char>, std::__ndk1::allocator<char> >, std::__ndk1::shared_ptr<geode::Hook> > > >::destroy(std::__ndk1::__tree_node<std::__ndk1::__value_type<std::__ndk1::basic_string<char, std::__ndk1::char_traits<char>, std::__ndk1::allocator<char> >, std::__ndk1::shared_ptr<geode::Hook> >, void*>*)
PUBLIC 4a10c 0 geode::modifier::AsStaticFunction_update<HookedCCScheduler, void (HookedCCScheduler::*)(float)>::Impl<void (HookedCCScheduler::*)(float)>::function(HookedCCScheduler*, float)
PUBLIC 4a134 0 geode::addresser::Addresser::addressOfVirtual<void, cocos2d::CCScheduler, float>(void (cocos2d::CCScheduler::*)(float))
PUBLIC 4a20c 0 std::__ndk1::shared_ptr<tulip::hook::CallingConvention>::~shared_ptr[abi:ne190000]()
PUBLIC 4a25c 0 tulip::hook::HandlerMetadata::~HandlerMetadata()
PUBLIC 4a2c0 0 std::__ndk1::__tree<std::__ndk1::__value_type<std::__ndk1::basic_string<char, std::__ndk1::char_traits<char>, std::__ndk1::allocator<char> >, std::__ndk1::shared_ptr<geode::Hook> >, std::__ndk1::__map_value_compare<std::__ndk1::basic_string<char, std::__ndk1::char_traits<char>, std::__ndk1::allocator<char> >, std::__ndk1::__value_type<std::__ndk1::basic_string<char, std::__ndk1::char_traits<char>, std::__ndk1::allocator<char> >, std::__ndk1::shared_ptr<geode::Hook> >, std::__ndk1::less<std::__ndk1::basic_string<char, std::__ndk1::char_traits<char>, std::__ndk1::allocator<char> > >, true>, std::__ndk1::allocator<std::__ndk1::__value_type<std::__ndk1::basic_string<char, std::__ndk1::char_traits<char>, std::__ndk1::allocator<char> >, std::__ndk1::shared_ptr<geode::Hook> > > >::__emplace_unique_key_args<std::__ndk1::basic_string<char, std::__ndk1::char_traits<char>, std::__ndk1::allocator<char> >, std::__ndk1::piecewise_construct_t const&, std::__ndk1::tuple<std::__ndk1::basic_string<char, std::__ndk1::char_traits<char>, std::__ndk1::allocator<char> >&&>, std::__ndk1::tuple<> >(std::__ndk1::basic_string<char, std::__ndk1::char_traits<char>, std::__ndk1::allocator<char> > const&, std::__ndk1::piecewise_construct_t const&, std::__ndk1::tuple<std::__ndk1::basic_string<char, std::__ndk1::char_traits<char>, std::__ndk1::allocator<char> >&&>, std::__ndk1::tuple<>)
PUBLIC 4a438 0 __cxx_global_var_init
PUBLIC 4ae30 0 geode::modifier::ModifyBase<geode::modifier::ModifyDerive<HookedEditorPauseLayer, EditorPauseLayer> >::~ModifyBase()
PUBLIC 4ae4c 0 geode::modifier::ModifyDerive<HookedEditorPauseLayer, EditorPauseLayer>::apply()
PUBLIC 4b794 0 geode::modifier::ModifyBase<geode::modifier::ModifyDerive<HookedEditorPauseLayer, EditorPauseLayer> >::apply()
PUBLIC 4b798 0 geode::modifier::ModifyBase<geode::modifier::ModifyDerive<HookedEditorPauseLayer, EditorPauseLayer> >::setHookPriorityBefore(std::__ndk1::basic_string_view<char, std::__ndk1::char_traits<char> >, geode::Mod*)::{lambda(geode::ModStateEvent*)#1}::operator()(geode::ModStateEvent*) const
PUBLIC 4b8a8 0 std::__ndk1::unique_ptr<std::__ndk1::__tree_node<std::__ndk1::__value_type<std::__ndk1::basic_string<char, std::__ndk1::char_traits<char>, std::__ndk1::allocator<char> >, std::__ndk1::shared_ptr<geode::Hook> >, void*>, std::__ndk1::__tree_node_destructor<std::__ndk1::allocator<std::__ndk1::__tree_node<std::__ndk1::__value_type<std::__ndk1::basic_string<char, std::__ndk1::char_traits<char>, std::__ndk1::allocator<char> >, std::__ndk1::shared_ptr<geode::Hook> >, void*> > > >::~unique_ptr[abi:ne190000]()
PUBLIC 4b924 0 _ZN5geode15UnwrapExceptionC2IRNSt6__ndk112basic_stringIcNS2_11char_traitsIcEENS2_9allocatorIcEEEEQsr4implE18IsStringStreamableIT_EEENS_4impl6ErrTagEOSA_
PUBLIC 4ba8c 0 std::__ndk1::__function::__base<void (geode::ModStateEvent*)>::~__base()
PUBLIC 4ba90 0 std::__ndk1::__function::__func<geode::modifier::ModifyBase<geode::modifier::ModifyDerive<HookedEditorPauseLayer, EditorPauseLayer> >::setHookPriorityBefore(std::__ndk1::basic_string_view<char, std::__ndk1::char_traits<char> >, geode::Mod*)::{lambda(geode::ModStateEvent*)#1}, std::__ndk1::allocator<geode::modifier::ModifyBase<geode::modifier::ModifyDerive<HookedEditorPauseLayer, EditorPauseLayer> >::setHookPriorityBefore(std::__ndk1::basic_string_view<char, std::__ndk1::char_traits<char> >, geode::Mod*)::{lambda(geode::ModStateEvent*)#1}>, void (geode::ModStateEvent*)>::~__func()
PUBLIC 4ba94 0 std::__ndk1::__function::__func<geode::modifier::ModifyBase<geode::modifier::ModifyDerive<HookedEditorPauseLayer, EditorPauseLayer> >::setHookPriorityBefore(std::__ndk1::basic_string_view<char, std::__ndk1::char_traits<char> >, geode::Mod*)::{lambda(geode::ModStateEvent*)#1}, std::__ndk1::allocator<geode::modifier::ModifyBase<geode::modifier::ModifyDerive<HookedEditorPauseLayer, EditorPauseLayer> >::setHookPriorityBefore(std::__ndk1::basic_string_view<char, std::__ndk1::char_traits<char> >, geode::Mod*)::{lambda(geode::ModStateEvent*)#1}>, void (geode::ModStateEvent*)>::__clone() const
PUBLIC 4bacc 0 std::__ndk1::__function::__func<geode::modifier::ModifyBase<geode::modifier::ModifyDerive<HookedEditorPauseLayer, EditorPauseLayer> >::setHookPriorityBefore(std::__ndk1::basic_string_view<char, std::__ndk1::char_traits<char> >, geode::Mod*)::{lambda(geode::ModStateEvent*)#1}, std::__ndk1::allocator<geode::modifier::ModifyBase<geode::modifier::ModifyDerive<HookedEditorPauseLayer, EditorPauseLayer> >::setHookPriorityBefore(std::__ndk1::basic_string_view<char, std::__ndk1::char_traits<char> >, geode::Mod*)::{lambda(geode::ModStateEvent*)#1}>, void (geode::ModStateEvent*)>::__clone(std::__ndk1::__function::__base<void (geode::ModStateEvent*)>*) const
PUBLIC 4bae4 0 std::__ndk1::__function::__func<geode::modifier::ModifyBase<geode::modifier::ModifyDerive<HookedEditorPauseLayer, EditorPauseLayer> >::setHookPriorityBefore(std::__ndk1::basic_string_view<char, std::__ndk1::char_traits<char> >, geode::Mod*)::{lambda(geode::ModStateEvent*)#1}, std::__ndk1::allocator<geode::modifier::ModifyBase<geode::modifier::ModifyDerive<HookedEditorPauseLayer, EditorPauseLayer> >::setHookPriorityBefore(std::__ndk1::basic_string_view<char, std::__ndk1::char_traits<char> >, geode::Mod*)::{lambda(geode::ModStateEvent*)#1}>, void (geode::ModStateEvent*)>::destroy()
PUBLIC 4bae8 0 std::__ndk1::__function::__func<geode::modifier::ModifyBase<geode::modifier::ModifyDerive<HookedEditorPauseLayer, EditorPauseLayer> >::setHookPriorityBefore(std::__ndk1::basic_string_view<char, std::__ndk1::char_traits<char> >, geode::Mod*)::{lambda(geode::ModStateEvent*)#1}, std::__ndk1::allocator<geode::modifier::ModifyBase<geode::modifier::ModifyDerive<HookedEditorPauseLayer, EditorPauseLayer> >::setHookPriorityBefore(std::__ndk1::basic_string_view<char, std::__ndk1::char_traits<char> >, geode::Mod*)::{lambda(geode::ModStateEvent*)#1}>, void (geode::ModStateEvent*)>::destroy_deallocate()
PUBLIC 4baec 0 std::__ndk1::__function::__func<geode::modifier::ModifyBase<geode::modifier::ModifyDerive<HookedEditorPauseLayer, EditorPauseLayer> >::setHookPriorityBefore(std::__ndk1::basic_string_view<char, std::__ndk1::char_traits<char> >, geode::Mod*)::{lambda(geode::ModStateEvent*)#1}, std::__ndk1::allocator<geode::modifier::ModifyBase<geode::modifier::ModifyDerive<HookedEditorPauseLayer, EditorPauseLayer> >::setHookPriorityBefore(std::__ndk1::basic_string_view<char, std::__ndk1::char_traits<char> >, geode::Mod*)::{lambda(geode::ModStateEvent*)#1}>, void (geode::ModStateEvent*)>::operator()(geode::ModStateEvent*&&)
PUBLIC 4baf4 0 std::__ndk1::__function::__func<geode::modifier::ModifyBase<geode::modifier::ModifyDerive<HookedEditorPauseLayer, EditorPauseLayer> >::setHookPriorityBefore(std::__ndk1::basic_string_view<char, std::__ndk1::char_traits<char> >, geode::Mod*)::{lambda(geode::ModStateEvent*)#1}, std::__ndk1::allocator<geode::modifier::ModifyBase<geode::modifier::ModifyDerive<HookedEditorPauseLayer, EditorPauseLayer> >::setHookPriorityBefore(std::__ndk1::basic_string_view<char, std::__ndk1::char_traits<char> >, geode::Mod*)::{lambda(geode::ModStateEvent*)#1}>, void (geode::ModStateEvent*)>::target(std::type_info const&) const
PUBLIC 4bb10 0 std::__ndk1::__function::__func<geode::modifier::ModifyBase<geode::modifier::ModifyDerive<HookedEditorPauseLayer, EditorPauseLayer> >::setHookPriorityBefore(std::__ndk1::basic_string_view<char, std::__ndk1::char_traits<char> >, geode::Mod*)::{lambda(geode::ModStateEvent*)#1}, std::__ndk1::allocator<geode::modifier::ModifyBase<geode::modifier::ModifyDerive<HookedEditorPauseLayer, EditorPauseLayer> >::setHookPriorityBefore(std::__ndk1::basic_string_view<char, std::__ndk1::char_traits<char> >, geode::Mod*)::{lambda(geode::ModStateEvent*)#1}>, void (geode::ModStateEvent*)>::target_type() const
PUBLIC 4bb1c 0 geode::EventListener<geode::ModStateFilter>::getPool() const
PUBLIC 4bb20 0 geode::EventListener<geode::ModStateFilter>::handle(geode::Event*)
PUBLIC 4bc94 0 geode::EventListener<geode::ModStateFilter>::~EventListener()
PUBLIC 4bcf0 0 geode::EventListener<geode::ModStateFilter>::~EventListener()
PUBLIC 4bd54 0 std::__ndk1::__variant_detail::__visitation::__base::__dispatcher<(unsigned long)0>::__dispatch[abi:ne190000]<std::__ndk1::__variant_detail::__dtor<std::__ndk1::__variant_detail::__traits<std::__ndk1::monostate, std::__ndk1::basic_string<char, std::__ndk1::char_traits<char>, std::__ndk1::allocator<char> > >, (std::__ndk1::__variant_detail::_Trait)1>::__destroy[abi:ne190000]()::{lambda(auto:1&)#1}, std::__ndk1::__variant_detail::__base<(std::__ndk1::__variant_detail::__traits<std::__ndk1::monostate, std::__ndk1::basic_string<char, std::__ndk1::char_traits<char>, std::__ndk1::allocator<char> > >)1, std::__ndk1::__variant_detail::__traits, std::__ndk1::allocator<char> >&>(std::__ndk1::__variant_detail::__dtor<std::__ndk1::__variant_detail::__traits<std::__ndk1::monostate, std::__ndk1::basic_string<char, std::__ndk1::char_traits<char>, std::__ndk1::allocator<char> > >, (std::__ndk1::__variant_detail::_Trait)1>, std::__ndk1::__variant_detail::__base<(std::__ndk1::__variant_detail::__traits<std::__ndk1::monostate, std::__ndk1::basic_string<char, std::__ndk1::char_traits<char>, std::__ndk1::allocator<char> > >)1, std::__ndk1::__variant_detail::__traits, std::__ndk1::allocator<char> >&)
PUBLIC 4bd58 0 std::__ndk1::__variant_detail::__visitation::__base::__dispatcher<(unsigned long)1>::__dispatch[abi:ne190000]<std::__ndk1::__variant_detail::__dtor<std::__ndk1::__variant_detail::__traits<std::__ndk1::monostate, std::__ndk1::basic_string<char, std::__ndk1::char_traits<char>, std::__ndk1::allocator<char> > >, (std::__ndk1::__variant_detail::_Trait)1>::__destroy[abi:ne190000]()::{lambda(auto:1&)#1}, std::__ndk1::__variant_detail::__base<(std::__ndk1::__variant_detail::__traits<std::__ndk1::monostate, std::__ndk1::basic_string<char, std::__ndk1::char_traits<char>, std::__ndk1::allocator<char> > >)1, std::__ndk1::__variant_detail::__traits, std::__ndk1::allocator<char> >&>(std::__ndk1::__variant_detail::__dtor<std::__ndk1::__variant_detail::__traits<std::__ndk1::monostate, std::__ndk1::basic_string<char, std::__ndk1::char_traits<char>, std::__ndk1::allocator<char> > >, (std::__ndk1::__variant_detail::_Trait)1>, std::__ndk1::__variant_detail::__base<(std::__ndk1::__variant_detail::__traits<std::__ndk1::monostate, std::__ndk1::basic_string<char, std::__ndk1::char_traits<char>, std::__ndk1::allocator<char> > >)1, std::__ndk1::__variant_detail::__traits, std::__ndk1::allocator<char> >&)
PUBLIC 4bd6c 0 geode::modifier::AsStaticFunction_init<HookedEditorPauseLayer, bool (HookedEditorPauseLayer::*)(LevelEditorLayer*)>::Impl<bool (HookedEditorPauseLayer::*)(LevelEditorLayer*)>::function(HookedEditorPauseLayer*, LevelEditorLayer*)
PUBLIC 4bf44 0 geode::Hook::create<void (*)(HookedEditorPauseLayer*, cocos2d::CCObject*)>(void*, void (*)(HookedEditorPauseLayer*, cocos2d::CCObject*), std::__ndk1::basic_string<char, std::__ndk1::char_traits<char>, std::__ndk1::allocator<char> > const&, tulip::hook::TulipConvention, tulip::hook::HookMetadata const&)
PUBLIC 4c0c8 0 geode::modifier::AsStaticFunction_onExitEditor<HookedEditorPauseLayer, void (HookedEditorPauseLayer::*)(cocos2d::CCObject*)>::Impl<void (HookedEditorPauseLayer::*)(cocos2d::CCObject*)>::function(HookedEditorPauseLayer*, cocos2d::CCObject*)
PUBLIC 4c198 0 geode::modifier::AsStaticFunction_onSaveAndExit<HookedEditorPauseLayer, void (HookedEditorPauseLayer::*)(cocos2d::CCObject*)>::Impl<void (HookedEditorPauseLayer::*)(cocos2d::CCObject*)>::function(HookedEditorPauseLayer*, cocos2d::CCObject*)
PUBLIC 4c268 0 geode::modifier::AsStaticFunction_onSaveAndPlay<HookedEditorPauseLayer, void (HookedEditorPauseLayer::*)(cocos2d::CCObject*)>::Impl<void (HookedEditorPauseLayer::*)(cocos2d::CCObject*)>::function(HookedEditorPauseLayer*, cocos2d::CCObject*)
PUBLIC 4c338 0 geode::modifier::FieldIntermediate<HookedLevelEditorLayer, LevelEditorLayer>::self()
PUBLIC 4c90c 0 cocos2d::CCNode::addEventListener<keybinds::InvokeBindFilter, char const*>(std::__ndk1::function<keybinds::InvokeBindFilter::Callback>, char const*&&)
PUBLIC 4cd90 0 cocos2d::CCSequence::create(cocos2d::CCFiniteTimeAction*, ...)
PUBLIC 4ce28 0 __cxx_global_var_init
PUBLIC 4d298 0 geode::modifier::ModifyBase<geode::modifier::ModifyDerive<HookedLevelEditorLayer, LevelEditorLayer> >::~ModifyBase()
PUBLIC 4d2b4 0 geode::modifier::FieldIntermediate<HookedLevelEditorLayer, LevelEditorLayer>::fieldDestructor(void*)
PUBLIC 4d304 0 std::__ndk1::vector<void*, std::__ndk1::allocator<void*> >::__throw_length_error[abi:ne190000]() const
PUBLIC 4d318 0 std::__ndk1::vector<std::__ndk1::function<void (void*)>, std::__ndk1::allocator<std::__ndk1::function<void (void*)> > >::__throw_length_error[abi:ne190000]() const
PUBLIC 4d32c 0 std::__ndk1::vector<void*, std::__ndk1::allocator<void*> >::__throw_out_of_range[abi:ne190000]() const
PUBLIC 4d338 0 std::__ndk1::__throw_out_of_range[abi:ne190000](char const*)
PUBLIC 4d388 0 std::out_of_range::out_of_range[abi:ne190000](char const*)
PUBLIC 4d3b8 0 std::__ndk1::vector<std::__ndk1::function<void (void*)>, std::__ndk1::allocator<std::__ndk1::function<void (void*)> > >::__throw_out_of_range[abi:ne190000]() const
PUBLIC 4d3c4 0 std::__ndk1::__function::__base<void (void*)>::~__base()
PUBLIC 4d3c8 0 std::__ndk1::__function::__func<void (*)(void*), std::__ndk1::allocator<void (*)(void*)>, void (void*)>::~__func()
PUBLIC 4d3cc 0 std::__ndk1::__function::__func<void (*)(void*), std::__ndk1::allocator<void (*)(void*)>, void (void*)>::__clone() const
PUBLIC 4d404 0 std::__ndk1::__function::__func<void (*)(void*), std::__ndk1::allocator<void (*)(void*)>, void (void*)>::__clone(std::__ndk1::__function::__base<void (void*)>*) const
PUBLIC 4d41c 0 std::__ndk1::__function::__func<void (*)(void*), std::__ndk1::allocator<void (*)(void*)>, void (void*)>::destroy()
PUBLIC 4d420 0 std::__ndk1::__function::__func<void (*)(void*), std::__ndk1::allocator<void (*)(void*)>, void (void*)>::destroy_deallocate()
PUBLIC 4d424 0 std::__ndk1::__function::__func<void (*)(void*), std::__ndk1::allocator<void (*)(void*)>, void (void*)>::operator()(void*&&)
PUBLIC 4d434 0 std::__ndk1::__function::__func<void (*)(void*), std::__ndk1::allocator<void (*)(void*)>, void (void*)>::target(std::type_info const&) const
PUBLIC 4d450 0 std::__ndk1::__function::__func<void (*)(void*), std::__ndk1::allocator<void (*)(void*)>, void (void*)>::target_type() const
PUBLIC 4d45c 0 geode::modifier::ModifyDerive<HookedLevelEditorLayer, LevelEditorLayer>::apply()
PUBLIC 4dac0 0 geode::modifier::ModifyBase<geode::modifier::ModifyDerive<HookedLevelEditorLayer, LevelEditorLayer> >::apply()
PUBLIC 4dac4 0 geode::modifier::AsStaticFunction_init<HookedLevelEditorLayer, bool (HookedLevelEditorLayer::*)(GJGameLevel*, bool)>::Impl<bool (HookedLevelEditorLayer::*)(GJGameLevel*, bool)>::function(HookedLevelEditorLayer*, GJGameLevel*, bool)
PUBLIC 4df74 0 geode::modifier::AsStaticFunction_updateEditor<HookedLevelEditorLayer, void (HookedLevelEditorLayer::*)(float)>::Impl<void (HookedLevelEditorLayer::*)(float)>::function(HookedLevelEditorLayer*, float)
PUBLIC 4e2a0 0 geode::EventListener<keybinds::InvokeBindFilter>::getPool() const
PUBLIC 4e2a4 0 geode::EventListener<keybinds::InvokeBindFilter>::handle(geode::Event*)
PUBLIC 4e418 0 geode::EventListener<keybinds::InvokeBindFilter>::~EventListener()
PUBLIC 4e484 0 geode::EventListener<keybinds::InvokeBindFilter>::~EventListener()
PUBLIC 4e4f8 0 std::__ndk1::__function::__func<HookedLevelEditorLayer::init(GJGameLevel*, bool)::$_0, std::__ndk1::allocator<HookedLevelEditorLayer::init(GJGameLevel*, bool)::$_0>, geode::ListenerResult(keybinds::InvokeBindEvent*)>::~__func()
PUBLIC 4e4fc 0 std::__ndk1::__function::__func<HookedLevelEditorLayer::init(GJGameLevel*, bool)::$_0, std::__ndk1::allocator<HookedLevelEditorLayer::init(GJGameLevel*, bool)::$_0>, geode::ListenerResult(keybinds::InvokeBindEvent*)>::__clone() const
PUBLIC 4e520 0 std::__ndk1::__function::__func<HookedLevelEditorLayer::init(GJGameLevel*, bool)::$_0, std::__ndk1::allocator<HookedLevelEditorLayer::init(GJGameLevel*, bool)::$_0>, geode::ListenerResult(keybinds::InvokeBindEvent*)>::__clone(std::__ndk1::__function::__base<geode::ListenerResult(keybinds::InvokeBindEvent*)>*) const
PUBLIC 4e530 0 std::__ndk1::__function::__func<HookedLevelEditorLayer::init(GJGameLevel*, bool)::$_0, std::__ndk1::allocator<HookedLevelEditorLayer::init(GJGameLevel*, bool)::$_0>, geode::ListenerResult(keybinds::InvokeBindEvent*)>::destroy()
PUBLIC 4e534 0 std::__ndk1::__function::__func<HookedLevelEditorLayer::init(GJGameLevel*, bool)::$_0, std::__ndk1::allocator<HookedLevelEditorLayer::init(GJGameLevel*, bool)::$_0>, geode::ListenerResult(keybinds::InvokeBindEvent*)>::destroy_deallocate()
PUBLIC 4e538 0 std::__ndk1::__function::__func<HookedLevelEditorLayer::init(GJGameLevel*, bool)::$_0, std::__ndk1::allocator<HookedLevelEditorLayer::init(GJGameLevel*, bool)::$_0>, geode::ListenerResult(keybinds::InvokeBindEvent*)>::operator()(keybinds::InvokeBindEvent*&&)
PUBLIC 4e5f8 0 std::__ndk1::__function::__func<HookedLevelEditorLayer::init(GJGameLevel*, bool)::$_0, std::__ndk1::allocator<HookedLevelEditorLayer::init(GJGameLevel*, bool)::$_0>, geode::ListenerResult(keybinds::InvokeBindEvent*)>::target(std::type_info const&) const
PUBLIC 4e614 0 std::__ndk1::__function::__func<HookedLevelEditorLayer::init(GJGameLevel*, bool)::$_0, std::__ndk1::allocator<HookedLevelEditorLayer::init(GJGameLevel*, bool)::$_0>, geode::ListenerResult(keybinds::InvokeBindEvent*)>::target_type() const
PUBLIC 4e620 0 std::__ndk1::__function::__func<HookedLevelEditorLayer::init(GJGameLevel*, bool)::$_1, std::__ndk1::allocator<HookedLevelEditorLayer::init(GJGameLevel*, bool)::$_1>, geode::ListenerResult(keybinds::InvokeBindEvent*)>::~__func()
PUBLIC 4e624 0 std::__ndk1::__function::__func<HookedLevelEditorLayer::init(GJGameLevel*, bool)::$_1, std::__ndk1::allocator<HookedLevelEditorLayer::init(GJGameLevel*, bool)::$_1>, geode::ListenerResult(keybinds::InvokeBindEvent*)>::__clone() const
PUBLIC 4e648 0 std::__ndk1::__function::__func<HookedLevelEditorLayer::init(GJGameLevel*, bool)::$_1, std::__ndk1::allocator<HookedLevelEditorLayer::init(GJGameLevel*, bool)::$_1>, geode::ListenerResult(keybinds::InvokeBindEvent*)>::__clone(std::__ndk1::__function::__base<geode::ListenerResult(keybinds::InvokeBindEvent*)>*) const
PUBLIC 4e658 0 std::__ndk1::__function::__func<HookedLevelEditorLayer::init(GJGameLevel*, bool)::$_1, std::__ndk1::allocator<HookedLevelEditorLayer::init(GJGameLevel*, bool)::$_1>, geode::ListenerResult(keybinds::InvokeBindEvent*)>::destroy()
PUBLIC 4e65c 0 std::__ndk1::__function::__func<HookedLevelEditorLayer::init(GJGameLevel*, bool)::$_1, std::__ndk1::allocator<HookedLevelEditorLayer::init(GJGameLevel*, bool)::$_1>, geode::ListenerResult(keybinds::InvokeBindEvent*)>::destroy_deallocate()
PUBLIC 4e660 0 std::__ndk1::__function::__func<HookedLevelEditorLayer::init(GJGameLevel*, bool)::$_1, std::__ndk1::allocator<HookedLevelEditorLayer::init(GJGameLevel*, bool)::$_1>, geode::ListenerResult(keybinds::InvokeBindEvent*)>::operator()(keybinds::InvokeBindEvent*&&)
PUBLIC 4e720 0 std::__ndk1::__function::__func<HookedLevelEditorLayer::init(GJGameLevel*, bool)::$_1, std::__ndk1::allocator<HookedLevelEditorLayer::init(GJGameLevel*, bool)::$_1>, geode::ListenerResult(keybinds::InvokeBindEvent*)>::target(std::type_info const&) const
PUBLIC 4e73c 0 std::__ndk1::__function::__func<HookedLevelEditorLayer::init(GJGameLevel*, bool)::$_1, std::__ndk1::allocator<HookedLevelEditorLayer::init(GJGameLevel*, bool)::$_1>, geode::ListenerResult(keybinds::InvokeBindEvent*)>::target_type() const
PUBLIC 4e748 0 std::__ndk1::__function::__base<geode::ListenerResult(keybinds::InvokeBindEvent*)>::~__base()
PUBLIC 4e74c 0 std::__ndk1::__function::__func<HookedLevelEditorLayer::init(GJGameLevel*, bool)::$_2, std::__ndk1::allocator<HookedLevelEditorLayer::init(GJGameLevel*, bool)::$_2>, geode::ListenerResult(keybinds::InvokeBindEvent*)>::~__func()
PUBLIC 4e750 0 std::__ndk1::__function::__func<HookedLevelEditorLayer::init(GJGameLevel*, bool)::$_2, std::__ndk1::allocator<HookedLevelEditorLayer::init(GJGameLevel*, bool)::$_2>, geode::ListenerResult(keybinds::InvokeBindEvent*)>::__clone() const
PUBLIC 4e774 0 std::__ndk1::__function::__func<HookedLevelEditorLayer::init(GJGameLevel*, bool)::$_2, std::__ndk1::allocator<HookedLevelEditorLayer::init(GJGameLevel*, bool)::$_2>, geode::ListenerResult(keybinds::InvokeBindEvent*)>::__clone(std::__ndk1::__function::__base<geode::ListenerResult(keybinds::InvokeBindEvent*)>*) const
PUBLIC 4e784 0 std::__ndk1::__function::__func<HookedLevelEditorLayer::init(GJGameLevel*, bool)::$_2, std::__ndk1::allocator<HookedLevelEditorLayer::init(GJGameLevel*, bool)::$_2>, geode::ListenerResult(keybinds::InvokeBindEvent*)>::destroy()
PUBLIC 4e788 0 std::__ndk1::__function::__func<HookedLevelEditorLayer::init(GJGameLevel*, bool)::$_2, std::__ndk1::allocator<HookedLevelEditorLayer::init(GJGameLevel*, bool)::$_2>, geode::ListenerResult(keybinds::InvokeBindEvent*)>::destroy_deallocate()
PUBLIC 4e78c 0 std::__ndk1::__function::__func<HookedLevelEditorLayer::init(GJGameLevel*, bool)::$_2, std::__ndk1::allocator<HookedLevelEditorLayer::init(GJGameLevel*, bool)::$_2>, geode::ListenerResult(keybinds::InvokeBindEvent*)>::operator()(keybinds::InvokeBindEvent*&&)
PUBLIC 4e84c 0 std::__ndk1::__function::__func<HookedLevelEditorLayer::init(GJGameLevel*, bool)::$_2, std::__ndk1::allocator<HookedLevelEditorLayer::init(GJGameLevel*, bool)::$_2>, geode::ListenerResult(keybinds::InvokeBindEvent*)>::target(std::type_info const&) const
PUBLIC 4e868 0 std::__ndk1::__function::__func<HookedLevelEditorLayer::init(GJGameLevel*, bool)::$_2, std::__ndk1::allocator<HookedLevelEditorLayer::init(GJGameLevel*, bool)::$_2>, geode::ListenerResult(keybinds::InvokeBindEvent*)>::target_type() const
PUBLIC 4e874 0 __cxx_global_var_init
PUBLIC 4ece4 0 geode::modifier::ModifyBase<geode::modifier::ModifyDerive<HookedLoadingLayer, LoadingLayer> >::~ModifyBase()
PUBLIC 4ed00 0 geode::modifier::ModifyDerive<HookedLoadingLayer, LoadingLayer>::apply()
PUBLIC 4f050 0 geode::modifier::ModifyBase<geode::modifier::ModifyDerive<HookedLoadingLayer, LoadingLayer> >::apply()
PUBLIC 4f054 0 geode::modifier::AsStaticFunction_init<HookedLoadingLayer, bool (HookedLoadingLayer::*)(bool)>::Impl<bool (HookedLoadingLayer::*)(bool)>::function(HookedLoadingLayer*, bool)
PUBLIC 4f154 0 std::__ndk1::__function::__func<HookedLoadingLayer::init(bool)::$_0, std::__ndk1::allocator<HookedLoadingLayer::init(bool)::$_0>, void ()>::~__func()
PUBLIC 4f158 0 std::__ndk1::__function::__func<HookedLoadingLayer::init(bool)::$_0, std::__ndk1::allocator<HookedLoadingLayer::init(bool)::$_0>, void ()>::__clone() const
PUBLIC 4f17c 0 std::__ndk1::__function::__func<HookedLoadingLayer::init(bool)::$_0, std::__ndk1::allocator<HookedLoadingLayer::init(bool)::$_0>, void ()>::__clone(std::__ndk1::__function::__base<void ()>*) const
PUBLIC 4f18c 0 std::__ndk1::__function::__func<HookedLoadingLayer::init(bool)::$_0, std::__ndk1::allocator<HookedLoadingLayer::init(bool)::$_0>, void ()>::destroy()
PUBLIC 4f190 0 std::__ndk1::__function::__func<HookedLoadingLayer::init(bool)::$_0, std::__ndk1::allocator<HookedLoadingLayer::init(bool)::$_0>, void ()>::destroy_deallocate()
PUBLIC 4f194 0 std::__ndk1::__function::__func<HookedLoadingLayer::init(bool)::$_0, std::__ndk1::allocator<HookedLoadingLayer::init(bool)::$_0>, void ()>::operator()()
PUBLIC 4f26c 0 std::__ndk1::__function::__func<HookedLoadingLayer::init(bool)::$_0, std::__ndk1::allocator<HookedLoadingLayer::init(bool)::$_0>, void ()>::target(std::type_info const&) const
PUBLIC 4f288 0 std::__ndk1::__function::__func<HookedLoadingLayer::init(bool)::$_0, std::__ndk1::allocator<HookedLoadingLayer::init(bool)::$_0>, void ()>::target_type() const
PUBLIC 4f294 0 std::__ndk1::__function::__func<HookedLoadingLayer::init(bool)::$_0::operator()() const::{lambda()#1}, std::__ndk1::allocator<HookedLoadingLayer::init(bool)::$_0::operator()() const::{lambda()#1}>, void ()>::~__func()
PUBLIC 4f298 0 std::__ndk1::__function::__func<HookedLoadingLayer::init(bool)::$_0::operator()() const::{lambda()#1}, std::__ndk1::allocator<HookedLoadingLayer::init(bool)::$_0::operator()() const::{lambda()#1}>, void ()>::__clone() const
PUBLIC 4f2bc 0 std::__ndk1::__function::__func<HookedLoadingLayer::init(bool)::$_0::operator()() const::{lambda()#1}, std::__ndk1::allocator<HookedLoadingLayer::init(bool)::$_0::operator()() const::{lambda()#1}>, void ()>::__clone(std::__ndk1::__function::__base<void ()>*) const
PUBLIC 4f2cc 0 std::__ndk1::__function::__func<HookedLoadingLayer::init(bool)::$_0::operator()() const::{lambda()#1}, std::__ndk1::allocator<HookedLoadingLayer::init(bool)::$_0::operator()() const::{lambda()#1}>, void ()>::destroy()
PUBLIC 4f2d0 0 std::__ndk1::__function::__func<HookedLoadingLayer::init(bool)::$_0::operator()() const::{lambda()#1}, std::__ndk1::allocator<HookedLoadingLayer::init(bool)::$_0::operator()() const::{lambda()#1}>, void ()>::destroy_deallocate()
PUBLIC 4f2d4 0 std::__ndk1::__function::__func<HookedLoadingLayer::init(bool)::$_0::operator()() const::{lambda()#1}, std::__ndk1::allocator<HookedLoadingLayer::init(bool)::$_0::operator()() const::{lambda()#1}>, void ()>::operator()()
PUBLIC 4f2e8 0 std::__ndk1::__function::__func<HookedLoadingLayer::init(bool)::$_0::operator()() const::{lambda()#1}, std::__ndk1::allocator<HookedLoadingLayer::init(bool)::$_0::operator()() const::{lambda()#1}>, void ()>::target(std::type_info const&) const
PUBLIC 4f304 0 std::__ndk1::__function::__func<HookedLoadingLayer::init(bool)::$_0::operator()() const::{lambda()#1}, std::__ndk1::allocator<HookedLoadingLayer::init(bool)::$_0::operator()() const::{lambda()#1}>, void ()>::target_type() const
PUBLIC 4f310 0 geodeExecFunction3<(anonymous namespace)::ExecFuncUnique3>(geode::ModStateEvent*)
PUBLIC 4fd10 0 geode::Ref<keybinds::Bind>::~Ref()
PUBLIC 4fd2c 0 keybinds::BindableAction::~BindableAction()
PUBLIC 4fdf0 0 std::__ndk1::vector<geode::Ref<keybinds::Bind>, std::__ndk1::allocator<geode::Ref<keybinds::Bind> > >::~vector[abi:ne190000]()
PUBLIC 4fe74 0 std::__ndk1::__exception_guard_exceptions<std::__ndk1::vector<geode::Ref<keybinds::Bind>, std::__ndk1::allocator<geode::Ref<keybinds::Bind> > >::__destroy_vector>::~__exception_guard_exceptions[abi:ne190000]()
PUBLIC 4ff08 0 std::__ndk1::__exception_guard_exceptions<std::__ndk1::_AllocatorDestroyRangeReverse<std::__ndk1::allocator<geode::Ref<keybinds::Bind> >, geode::Ref<keybinds::Bind>*> >::~__exception_guard_exceptions[abi:ne190000]()
PUBLIC 4ff50 0 std::__ndk1::__function::__func<void (*)(geode::ModStateEvent*), std::__ndk1::allocator<void (*)(geode::ModStateEvent*)>, void (geode::ModStateEvent*)>::~__func()
PUBLIC 4ff54 0 std::__ndk1::__function::__func<void (*)(geode::ModStateEvent*), std::__ndk1::allocator<void (*)(geode::ModStateEvent*)>, void (geode::ModStateEvent*)>::__clone() const
PUBLIC 4ff88 0 std::__ndk1::__function::__func<void (*)(geode::ModStateEvent*), std::__ndk1::allocator<void (*)(geode::ModStateEvent*)>, void (geode::ModStateEvent*)>::__clone(std::__ndk1::__function::__base<void (geode::ModStateEvent*)>*) const
PUBLIC 4ff9c 0 std::__ndk1::__function::__func<void (*)(geode::ModStateEvent*), std::__ndk1::allocator<void (*)(geode::ModStateEvent*)>, void (geode::ModStateEvent*)>::destroy()
PUBLIC 4ffa0 0 std::__ndk1::__function::__func<void (*)(geode::ModStateEvent*), std::__ndk1::allocator<void (*)(geode::ModStateEvent*)>, void (geode::ModStateEvent*)>::destroy_deallocate()
PUBLIC 4ffa4 0 std::__ndk1::__function::__func<void (*)(geode::ModStateEvent*), std::__ndk1::allocator<void (*)(geode::ModStateEvent*)>, void (geode::ModStateEvent*)>::operator()(geode::ModStateEvent*&&)
PUBLIC 4ffb4 0 std::__ndk1::__function::__func<void (*)(geode::ModStateEvent*), std::__ndk1::allocator<void (*)(geode::ModStateEvent*)>, void (geode::ModStateEvent*)>::target(std::type_info const&) const
PUBLIC 4ffd0 0 std::__ndk1::__function::__func<void (*)(geode::ModStateEvent*), std::__ndk1::allocator<void (*)(geode::ModStateEvent*)>, void (geode::ModStateEvent*)>::target_type() const
PUBLIC 4ffdc 0 _GLOBAL__sub_I_keybinds.cpp
PUBLIC 500f4 0 geodeExecFunction7<(anonymous namespace)::ExecFuncUnique7>(geode::ModStateEvent*)
PUBLIC 50780 0 geode::EventListener<geode::SettingChangedFilterV3>::EventListener(std::__ndk1::function<void (std::__ndk1::shared_ptr<geode::SettingV3>)>, geode::SettingChangedFilterV3)
PUBLIC 50878 0 geode::SettingChangedFilterV3::~SettingChangedFilterV3()
PUBLIC 508c8 0 std::__ndk1::__function::__func<geode::listenForSettingChangesV3<bool, geodeExecFunction7<(anonymous namespace)::ExecFuncUnique7>(geode::ModStateEvent*)::{lambda(bool)#1}>(std::__ndk1::basic_string_view<char, std::__ndk1::char_traits<char> >, geodeExecFunction7<(anonymous namespace)::ExecFuncUnique7>(geode::ModStateEvent*)::{lambda(bool)#1}&&, geode::Mod*)::{lambda(std::__ndk1::shared_ptr<geode::SettingV3>)#1}, std::__ndk1::allocator<geode::listenForSettingChangesV3<bool, geodeExecFunction7<(anonymous namespace)::ExecFuncUnique7>(geode::ModStateEvent*)::{lambda(bool)#1}>(std::__ndk1::basic_string_view<char, std::__ndk1::char_traits<char> >, geodeExecFunction7<(anonymous namespace)::ExecFuncUnique7>(geode::ModStateEvent*)::{lambda(bool)#1}&&, geode::Mod*)::{lambda(std::__ndk1::shared_ptr<geode::SettingV3>)#1}>, void (std::__ndk1::shared_ptr<geode::SettingV3>)>::~__func()
PUBLIC 508cc 0 std::__ndk1::__function::__func<geode::listenForSettingChangesV3<bool, geodeExecFunction7<(anonymous namespace)::ExecFuncUnique7>(geode::ModStateEvent*)::{lambda(bool)#1}>(std::__ndk1::basic_string_view<char, std::__ndk1::char_traits<char> >, geodeExecFunction7<(anonymous namespace)::ExecFuncUnique7>(geode::ModStateEvent*)::{lambda(bool)#1}&&, geode::Mod*)::{lambda(std::__ndk1::shared_ptr<geode::SettingV3>)#1}, std::__ndk1::allocator<geode::listenForSettingChangesV3<bool, geodeExecFunction7<(anonymous namespace)::ExecFuncUnique7>(geode::ModStateEvent*)::{lambda(bool)#1}>(std::__ndk1::basic_string_view<char, std::__ndk1::char_traits<char> >, geodeExecFunction7<(anonymous namespace)::ExecFuncUnique7>(geode::ModStateEvent*)::{lambda(bool)#1}&&, geode::Mod*)::{lambda(std::__ndk1::shared_ptr<geode::SettingV3>)#1}>, void (std::__ndk1::shared_ptr<geode::SettingV3>)>::__clone() const
PUBLIC 50904 0 std::__ndk1::__function::__func<geode::listenForSettingChangesV3<bool, geodeExecFunction7<(anonymous namespace)::ExecFuncUnique7>(geode::ModStateEvent*)::{lambda(bool)#1}>(std::__ndk1::basic_string_view<char, std::__ndk1::char_traits<char> >, geodeExecFunction7<(anonymous namespace)::ExecFuncUnique7>(geode::ModStateEvent*)::{lambda(bool)#1}&&, geode::Mod*)::{lambda(std::__ndk1::shared_ptr<geode::SettingV3>)#1}, std::__ndk1::allocator<geode::listenForSettingChangesV3<bool, geodeExecFunction7<(anonymous namespace)::ExecFuncUnique7>(geode::ModStateEvent*)::{lambda(bool)#1}>(std::__ndk1::basic_string_view<char, std::__ndk1::char_traits<char> >, geodeExecFunction7<(anonymous namespace)::ExecFuncUnique7>(geode::ModStateEvent*)::{lambda(bool)#1}&&, geode::Mod*)::{lambda(std::__ndk1::shared_ptr<geode::SettingV3>)#1}>, void (std::__ndk1::shared_ptr<geode::SettingV3>)>::__clone(std::__ndk1::__function::__base<void (std::__ndk1::shared_ptr<geode::SettingV3>)>*) const
PUBLIC 5091c 0 std::__ndk1::__function::__func<geode::listenForSettingChangesV3<bool, geodeExecFunction7<(anonymous namespace)::ExecFuncUnique7>(geode::ModStateEvent*)::{lambda(bool)#1}>(std::__ndk1::basic_string_view<char, std::__ndk1::char_traits<char> >, geodeExecFunction7<(anonymous namespace)::ExecFuncUnique7>(geode::ModStateEvent*)::{lambda(bool)#1}&&, geode::Mod*)::{lambda(std::__ndk1::shared_ptr<geode::SettingV3>)#1}, std::__ndk1::allocator<geode::listenForSettingChangesV3<bool, geodeExecFunction7<(anonymous namespace)::ExecFuncUnique7>(geode::ModStateEvent*)::{lambda(bool)#1}>(std::__ndk1::basic_string_view<char, std::__ndk1::char_traits<char> >, geodeExecFunction7<(anonymous namespace)::ExecFuncUnique7>(geode::ModStateEvent*)::{lambda(bool)#1}&&, geode::Mod*)::{lambda(std::__ndk1::shared_ptr<geode::SettingV3>)#1}>, void (std::__ndk1::shared_ptr<geode::SettingV3>)>::destroy()
PUBLIC 50920 0 std::__ndk1::__function::__func<geode::listenForSettingChangesV3<bool, geodeExecFunction7<(anonymous namespace)::ExecFuncUnique7>(geode::ModStateEvent*)::{lambda(bool)#1}>(std::__ndk1::basic_string_view<char, std::__ndk1::char_traits<char> >, geodeExecFunction7<(anonymous namespace)::ExecFuncUnique7>(geode::ModStateEvent*)::{lambda(bool)#1}&&, geode::Mod*)::{lambda(std::__ndk1::shared_ptr<geode::SettingV3>)#1}, std::__ndk1::allocator<geode::listenForSettingChangesV3<bool, geodeExecFunction7<(anonymous namespace)::ExecFuncUnique7>(geode::ModStateEvent*)::{lambda(bool)#1}>(std::__ndk1::basic_string_view<char, std::__ndk1::char_traits<char> >, geodeExecFunction7<(anonymous namespace)::ExecFuncUnique7>(geode::ModStateEvent*)::{lambda(bool)#1}&&, geode::Mod*)::{lambda(std::__ndk1::shared_ptr<geode::SettingV3>)#1}>, void (std::__ndk1::shared_ptr<geode::SettingV3>)>::destroy_deallocate()
PUBLIC 50924 0 std::__ndk1::__function::__func<geode::listenForSettingChangesV3<bool, geodeExecFunction7<(anonymous namespace)::ExecFuncUnique7>(geode::ModStateEvent*)::{lambda(bool)#1}>(std::__ndk1::basic_string_view<char, std::__ndk1::char_traits<char> >, geodeExecFunction7<(anonymous namespace)::ExecFuncUnique7>(geode::ModStateEvent*)::{lambda(bool)#1}&&, geode::Mod*)::{lambda(std::__ndk1::shared_ptr<geode::SettingV3>)#1}, std::__ndk1::allocator<geode::listenForSettingChangesV3<bool, geodeExecFunction7<(anonymous namespace)::ExecFuncUnique7>(geode::ModStateEvent*)::{lambda(bool)#1}>(std::__ndk1::basic_string_view<char, std::__ndk1::char_traits<char> >, geodeExecFunction7<(anonymous namespace)::ExecFuncUnique7>(geode::ModStateEvent*)::{lambda(bool)#1}&&, geode::Mod*)::{lambda(std::__ndk1::shared_ptr<geode::SettingV3>)#1}>, void (std::__ndk1::shared_ptr<geode::SettingV3>)>::operator()(std::__ndk1::shared_ptr<geode::SettingV3>&&)
PUBLIC 50b34 0 std::__ndk1::__function::__func<geode::listenForSettingChangesV3<bool, geodeExecFunction7<(anonymous namespace)::ExecFuncUnique7>(geode::ModStateEvent*)::{lambda(bool)#1}>(std::__ndk1::basic_string_view<char, std::__ndk1::char_traits<char> >, geodeExecFunction7<(anonymous namespace)::ExecFuncUnique7>(geode::ModStateEvent*)::{lambda(bool)#1}&&, geode::Mod*)::{lambda(std::__ndk1::shared_ptr<geode::SettingV3>)#1}, std::__ndk1::allocator<geode::listenForSettingChangesV3<bool, geodeExecFunction7<(anonymous namespace)::ExecFuncUnique7>(geode::ModStateEvent*)::{lambda(bool)#1}>(std::__ndk1::basic_string_view<char, std::__ndk1::char_traits<char> >, geodeExecFunction7<(anonymous namespace)::ExecFuncUnique7>(geode::ModStateEvent*)::{lambda(bool)#1}&&, geode::Mod*)::{lambda(std::__ndk1::shared_ptr<geode::SettingV3>)#1}>, void (std::__ndk1::shared_ptr<geode::SettingV3>)>::target(std::type_info const&) const
PUBLIC 50b50 0 std::__ndk1::__function::__func<geode::listenForSettingChangesV3<bool, geodeExecFunction7<(anonymous namespace)::ExecFuncUnique7>(geode::ModStateEvent*)::{lambda(bool)#1}>(std::__ndk1::basic_string_view<char, std::__ndk1::char_traits<char> >, geodeExecFunction7<(anonymous namespace)::ExecFuncUnique7>(geode::ModStateEvent*)::{lambda(bool)#1}&&, geode::Mod*)::{lambda(std::__ndk1::shared_ptr<geode::SettingV3>)#1}, std::__ndk1::allocator<geode::listenForSettingChangesV3<bool, geodeExecFunction7<(anonymous namespace)::ExecFuncUnique7>(geode::ModStateEvent*)::{lambda(bool)#1}>(std::__ndk1::basic_string_view<char, std::__ndk1::char_traits<char> >, geodeExecFunction7<(anonymous namespace)::ExecFuncUnique7>(geode::ModStateEvent*)::{lambda(bool)#1}&&, geode::Mod*)::{lambda(std::__ndk1::shared_ptr<geode::SettingV3>)#1}>, void (std::__ndk1::shared_ptr<geode::SettingV3>)>::target_type() const
PUBLIC 50b5c 0 std::__ndk1::shared_ptr<geode::SettingV3>::~shared_ptr[abi:ne190000]()
PUBLIC 50bac 0 std::__ndk1::shared_ptr<geode::BoolSettingV3>::~shared_ptr[abi:ne190000]()
PUBLIC 50bfc 0 AudioManager::AudioManager(AudioManager const&)
PUBLIC 50f1c 0 std::__ndk1::deque<std::__ndk1::shared_ptr<AudioSource>, std::__ndk1::allocator<std::__ndk1::shared_ptr<AudioSource> > >::__append_with_size[abi:ne190000]<std::__ndk1::__deque_iterator<std::__ndk1::shared_ptr<AudioSource>, std::__ndk1::shared_ptr<AudioSource> const*, std::__ndk1::__deque_iterator&, std::__ndk1::shared_ptr<AudioSource> const const*, long, (long)256> >(std::__ndk1::__deque_iterator<std::__ndk1::shared_ptr<AudioSource>, std::__ndk1::shared_ptr<AudioSource> const*, std::__ndk1::__deque_iterator&, std::__ndk1::shared_ptr<AudioSource> const const*, long, (long)256>, unsigned long)
PUBLIC 510b8 0 std::__ndk1::__exception_guard_exceptions<std::__ndk1::vector<std::__ndk1::shared_ptr<AudioSource>, std::__ndk1::allocator<std::__ndk1::shared_ptr<AudioSource> > >::__destroy_vector>::~__exception_guard_exceptions[abi:ne190000]()
PUBLIC 51180 0 geode::EventListener<geode::SettingChangedFilterV3>::getPool() const
PUBLIC 51184 0 geode::EventListener<geode::SettingChangedFilterV3>::handle(geode::Event*)
PUBLIC 512f8 0 geode::EventListener<geode::SettingChangedFilterV3>::~EventListener()
PUBLIC 51394 0 geode::EventListener<geode::SettingChangedFilterV3>::~EventListener()
PUBLIC 51438 0 std::__ndk1::__function::__func<geode::listenForSettingChangesV3<std::__ndk1::basic_string<char, std::__ndk1::char_traits<char>, std::__ndk1::allocator<char> >, geodeExecFunction7<(anonymous namespace)::ExecFuncUnique7>(geode::ModStateEvent*)::{lambda(std::__ndk1::basic_string<char, std::__ndk1::char_traits<char>, std::__ndk1::allocator<char> >)#1}>(std::__ndk1::basic_string_view<char, std::__ndk1::char_traits<char> >, geodeExecFunction7<(anonymous namespace)::ExecFuncUnique7>(geode::ModStateEvent*)::{lambda(std::__ndk1::basic_string<char, std::__ndk1::char_traits<char>, std::__ndk1::allocator<char> >&&)#1}, geode::Mod*)::{lambda(std::__ndk1::shared_ptr<geode::SettingV3>)#1}, std::__ndk1::allocator<geode::listenForSettingChangesV3<std::__ndk1::basic_string<char, std::__ndk1::char_traits<char>, std::__ndk1::allocator<char> >, geodeExecFunction7<(anonymous namespace)::ExecFuncUnique7>(geode::ModStateEvent*)::{lambda(std::__ndk1::basic_string<char, std::__ndk1::char_traits<char>, std::__ndk1::allocator<char> >)#1}>(std::__ndk1::basic_string_view<char, std::__ndk1::char_traits<char> >, geodeExecFunction7<(anonymous namespace)::ExecFuncUnique7>(geode::ModStateEvent*)::{lambda(std::__ndk1::basic_string<char, std::__ndk1::char_traits<char>, std::__ndk1::allocator<char> >&&)#1}, geode::Mod*)::{lambda(std::__ndk1::shared_ptr<geode::SettingV3>)#1}>, void (std::__ndk1::shared_ptr<geode::SettingV3>)>::~__func()
PUBLIC 5143c 0 std::__ndk1::__function::__func<geode::listenForSettingChangesV3<std::__ndk1::basic_string<char, std::__ndk1::char_traits<char>, std::__ndk1::allocator<char> >, geodeExecFunction7<(anonymous namespace)::ExecFuncUnique7>(geode::ModStateEvent*)::{lambda(std::__ndk1::basic_string<char, std::__ndk1::char_traits<char>, std::__ndk1::allocator<char> >)#1}>(std::__ndk1::basic_string_view<char, std::__ndk1::char_traits<char> >, geodeExecFunction7<(anonymous namespace)::ExecFuncUnique7>(geode::ModStateEvent*)::{lambda(std::__ndk1::basic_string<char, std::__ndk1::char_traits<char>, std::__ndk1::allocator<char> >&&)#1}, geode::Mod*)::{lambda(std::__ndk1::shared_ptr<geode::SettingV3>)#1}, std::__ndk1::allocator<geode::listenForSettingChangesV3<std::__ndk1::basic_string<char, std::__ndk1::char_traits<char>, std::__ndk1::allocator<char> >, geodeExecFunction7<(anonymous namespace)::ExecFuncUnique7>(geode::ModStateEvent*)::{lambda(std::__ndk1::basic_string<char, std::__ndk1::char_traits<char>, std::__ndk1::allocator<char> >)#1}>(std::__ndk1::basic_string_view<char, std::__ndk1::char_traits<char> >, geodeExecFunction7<(anonymous namespace)::ExecFuncUnique7>(geode::ModStateEvent*)::{lambda(std::__ndk1::basic_string<char, std::__ndk1::char_traits<char>, std::__ndk1::allocator<char> >&&)#1}, geode::Mod*)::{lambda(std::__ndk1::shared_ptr<geode::SettingV3>)#1}>, void (std::__ndk1::shared_ptr<geode::SettingV3>)>::__clone() const
PUBLIC 51474 0 std::__ndk1::__function::__func<geode::listenForSettingChangesV3<std::__ndk1::basic_string<char, std::__ndk1::char_traits<char>, std::__ndk1::allocator<char> >, geodeExecFunction7<(anonymous namespace)::ExecFuncUnique7>(geode::ModStateEvent*)::{lambda(std::__ndk1::basic_string<char, std::__ndk1::char_traits<char>, std::__ndk1::allocator<char> >)#1}>(std::__ndk1::basic_string_view<char, std::__ndk1::char_traits<char> >, geodeExecFunction7<(anonymous namespace)::ExecFuncUnique7>(geode::ModStateEvent*)::{lambda(std::__ndk1::basic_string<char, std::__ndk1::char_traits<char>, std::__ndk1::allocator<char> >&&)#1}, geode::Mod*)::{lambda(std::__ndk1::shared_ptr<geode::SettingV3>)#1}, std::__ndk1::allocator<geode::listenForSettingChangesV3<std::__ndk1::basic_string<char, std::__ndk1::char_traits<char>, std::__ndk1::allocator<char> >, geodeExecFunction7<(anonymous namespace)::ExecFuncUnique7>(geode::ModStateEvent*)::{lambda(std::__ndk1::basic_string<char, std::__ndk1::char_traits<char>, std::__ndk1::allocator<char> >)#1}>(std::__ndk1::basic_string_view<char, std::__ndk1::char_traits<char> >, geodeExecFunction7<(anonymous namespace)::ExecFuncUnique7>(geode::ModStateEvent*)::{lambda(std::__ndk1::basic_string<char, std::__ndk1::char_traits<char>, std::__ndk1::allocator<char> >&&)#1}, geode::Mod*)::{lambda(std::__ndk1::shared_ptr<geode::SettingV3>)#1}>, void (std::__ndk1::shared_ptr<geode::SettingV3>)>::__clone(std::__ndk1::__function::__base<void (std::__ndk1::shared_ptr<geode::SettingV3>)>*) const
PUBLIC 5148c 0 std::__ndk1::__function::__func<geode::listenForSettingChangesV3<std::__ndk1::basic_string<char, std::__ndk1::char_traits<char>, std::__ndk1::allocator<char> >, geodeExecFunction7<(anonymous namespace)::ExecFuncUnique7>(geode::ModStateEvent*)::{lambda(std::__ndk1::basic_string<char, std::__ndk1::char_traits<char>, std::__ndk1::allocator<char> >)#1}>(std::__ndk1::basic_string_view<char, std::__ndk1::char_traits<char> >, geodeExecFunction7<(anonymous namespace)::ExecFuncUnique7>(geode::ModStateEvent*)::{lambda(std::__ndk1::basic_string<char, std::__ndk1::char_traits<char>, std::__ndk1::allocator<char> >&&)#1}, geode::Mod*)::{lambda(std::__ndk1::shared_ptr<geode::SettingV3>)#1}, std::__ndk1::allocator<geode::listenForSettingChangesV3<std::__ndk1::basic_string<char, std::__ndk1::char_traits<char>, std::__ndk1::allocator<char> >, geodeExecFunction7<(anonymous namespace)::ExecFuncUnique7>(geode::ModStateEvent*)::{lambda(std::__ndk1::basic_string<char, std::__ndk1::char_traits<char>, std::__ndk1::allocator<char> >)#1}>(std::__ndk1::basic_string_view<char, std::__ndk1::char_traits<char> >, geodeExecFunction7<(anonymous namespace)::ExecFuncUnique7>(geode::ModStateEvent*)::{lambda(std::__ndk1::basic_string<char, std::__ndk1::char_traits<char>, std::__ndk1::allocator<char> >&&)#1}, geode::Mod*)::{lambda(std::__ndk1::shared_ptr<geode::SettingV3>)#1}>, void (std::__ndk1::shared_ptr<geode::SettingV3>)>::destroy()
PUBLIC 51490 0 std::__ndk1::__function::__func<geode::listenForSettingChangesV3<std::__ndk1::basic_string<char, std::__ndk1::char_traits<char>, std::__ndk1::allocator<char> >, geodeExecFunction7<(anonymous namespace)::ExecFuncUnique7>(geode::ModStateEvent*)::{lambda(std::__ndk1::basic_string<char, std::__ndk1::char_traits<char>, std::__ndk1::allocator<char> >)#1}>(std::__ndk1::basic_string_view<char, std::__ndk1::char_traits<char> >, geodeExecFunction7<(anonymous namespace)::ExecFuncUnique7>(geode::ModStateEvent*)::{lambda(std::__ndk1::basic_string<char, std::__ndk1::char_traits<char>, std::__ndk1::allocator<char> >&&)#1}, geode::Mod*)::{lambda(std::__ndk1::shared_ptr<geode::SettingV3>)#1}, std::__ndk1::allocator<geode::listenForSettingChangesV3<std::__ndk1::basic_string<char, std::__ndk1::char_traits<char>, std::__ndk1::allocator<char> >, geodeExecFunction7<(anonymous namespace)::ExecFuncUnique7>(geode::ModStateEvent*)::{lambda(std::__ndk1::basic_string<char, std::__ndk1::char_traits<char>, std::__ndk1::allocator<char> >)#1}>(std::__ndk1::basic_string_view<char, std::__ndk1::char_traits<char> >, geodeExecFunction7<(anonymous namespace)::ExecFuncUnique7>(geode::ModStateEvent*)::{lambda(std::__ndk1::basic_string<char, std::__ndk1::char_traits<char>, std::__ndk1::allocator<char> >&&)#1}, geode::Mod*)::{lambda(std::__ndk1::shared_ptr<geode::SettingV3>)#1}>, void (std::__ndk1::shared_ptr<geode::SettingV3>)>::destroy_deallocate()
PUBLIC 51494 0 std::__ndk1::__function::__func<geode::listenForSettingChangesV3<std::__ndk1::basic_string<char, std::__ndk1::char_traits<char>, std::__ndk1::allocator<char> >, geodeExecFunction7<(anonymous namespace)::ExecFuncUnique7>(geode::ModStateEvent*)::{lambda(std::__ndk1::basic_string<char, std::__ndk1::char_traits<char>, std::__ndk1::allocator<char> >)#1}>(std::__ndk1::basic_string_view<char, std::__ndk1::char_traits<char> >, geodeExecFunction7<(anonymous namespace)::ExecFuncUnique7>(geode::ModStateEvent*)::{lambda(std::__ndk1::basic_string<char, std::__ndk1::char_traits<char>, std::__ndk1::allocator<char> >&&)#1}, geode::Mod*)::{lambda(std::__ndk1::shared_ptr<geode::SettingV3>)#1}, std::__ndk1::allocator<geode::listenForSettingChangesV3<std::__ndk1::basic_string<char, std::__ndk1::char_traits<char>, std::__ndk1::allocator<char> >, geodeExecFunction7<(anonymous namespace)::ExecFuncUnique7>(geode::ModStateEvent*)::{lambda(std::__ndk1::basic_string<char, std::__ndk1::char_traits<char>, std::__ndk1::allocator<char> >)#1}>(std::__ndk1::basic_string_view<char, std::__ndk1::char_traits<char> >, geodeExecFunction7<(anonymous namespace)::ExecFuncUnique7>(geode::ModStateEvent*)::{lambda(std::__ndk1::basic_string<char, std::__ndk1::char_traits<char>, std::__ndk1::allocator<char> >&&)#1}, geode::Mod*)::{lambda(std::__ndk1::shared_ptr<geode::SettingV3>)#1}>, void (std::__ndk1::shared_ptr<geode::SettingV3>)>::operator()(std::__ndk1::shared_ptr<geode::SettingV3>&&)
PUBLIC 51630 0 std::__ndk1::__function::__func<geode::listenForSettingChangesV3<std::__ndk1::basic_string<char, std::__ndk1::char_traits<char>, std::__ndk1::allocator<char> >, geodeExecFunction7<(anonymous namespace)::ExecFuncUnique7>(geode::ModStateEvent*)::{lambda(std::__ndk1::basic_string<char, std::__ndk1::char_traits<char>, std::__ndk1::allocator<char> >)#1}>(std::__ndk1::basic_string_view<char, std::__ndk1::char_traits<char> >, geodeExecFunction7<(anonymous namespace)::ExecFuncUnique7>(geode::ModStateEvent*)::{lambda(std::__ndk1::basic_string<char, std::__ndk1::char_traits<char>, std::__ndk1::allocator<char> >&&)#1}, geode::Mod*)::{lambda(std::__ndk1::shared_ptr<geode::SettingV3>)#1}, std::__ndk1::allocator<geode::listenForSettingChangesV3<std::__ndk1::basic_string<char, std::__ndk1::char_traits<char>, std::__ndk1::allocator<char> >, geodeExecFunction7<(anonymous namespace)::ExecFuncUnique7>(geode::ModStateEvent*)::{lambda(std::__ndk1::basic_string<char, std::__ndk1::char_traits<char>, std::__ndk1::allocator<char> >)#1}>(std::__ndk1::basic_string_view<char, std::__ndk1::char_traits<char> >, geodeExecFunction7<(anonymous namespace)::ExecFuncUnique7>(geode::ModStateEvent*)::{lambda(std::__ndk1::basic_string<char, std::__ndk1::char_traits<char>, std::__ndk1::allocator<char> >&&)#1}, geode::Mod*)::{lambda(std::__ndk1::shared_ptr<geode::SettingV3>)#1}>, void (std::__ndk1::shared_ptr<geode::SettingV3>)>::target(std::type_info const&) const
PUBLIC 5164c 0 std::__ndk1::__function::__func<geode::listenForSettingChangesV3<std::__ndk1::basic_string<char, std::__ndk1::char_traits<char>, std::__ndk1::allocator<char> >, geodeExecFunction7<(anonymous namespace)::ExecFuncUnique7>(geode::ModStateEvent*)::{lambda(std::__ndk1::basic_string<char, std::__ndk1::char_traits<char>, std::__ndk1::allocator<char> >)#1}>(std::__ndk1::basic_string_view<char, std::__ndk1::char_traits<char> >, geodeExecFunction7<(anonymous namespace)::ExecFuncUnique7>(geode::ModStateEvent*)::{lambda(std::__ndk1::basic_string<char, std::__ndk1::char_traits<char>, std::__ndk1::allocator<char> >&&)#1}, geode::Mod*)::{lambda(std::__ndk1::shared_ptr<geode::SettingV3>)#1}, std::__ndk1::allocator<geode::listenForSettingChangesV3<std::__ndk1::basic_string<char, std::__ndk1::char_traits<char>, std::__ndk1::allocator<char> >, geodeExecFunction7<(anonymous namespace)::ExecFuncUnique7>(geode::ModStateEvent*)::{lambda(std::__ndk1::basic_string<char, std::__ndk1::char_traits<char>, std::__ndk1::allocator<char> >)#1}>(std::__ndk1::basic_string_view<char, std::__ndk1::char_traits<char> >, geodeExecFunction7<(anonymous namespace)::ExecFuncUnique7>(geode::ModStateEvent*)::{lambda(std::__ndk1::basic_string<char, std::__ndk1::char_traits<char>, std::__ndk1::allocator<char> >&&)#1}, geode::Mod*)::{lambda(std::__ndk1::shared_ptr<geode::SettingV3>)#1}>, void (std::__ndk1::shared_ptr<geode::SettingV3>)>::target_type() const
PUBLIC 51658 0 std::__ndk1::shared_ptr<geode::StringSettingV3>::~shared_ptr[abi:ne190000]()
PUBLIC 516a8 0 std::__ndk1::__function::__func<geode::listenForSettingChangesV3<std::__ndk1::basic_string<char, std::__ndk1::char_traits<char>, std::__ndk1::allocator<char> >, geodeExecFunction7<(anonymous namespace)::ExecFuncUnique7>(geode::ModStateEvent*)::{lambda(std::__ndk1::basic_string<char, std::__ndk1::char_traits<char>, std::__ndk1::allocator<char> >)#2}>(std::__ndk1::basic_string_view<char, std::__ndk1::char_traits<char> >, geodeExecFunction7<(anonymous namespace)::ExecFuncUnique7>(geode::ModStateEvent*)::{lambda(std::__ndk1::basic_string<char, std::__ndk1::char_traits<char>, std::__ndk1::allocator<char> >&&)#2}, geode::Mod*)::{lambda(std::__ndk1::shared_ptr<geode::SettingV3>)#1}, std::__ndk1::allocator<geode::listenForSettingChangesV3<std::__ndk1::basic_string<char, std::__ndk1::char_traits<char>, std::__ndk1::allocator<char> >, geodeExecFunction7<(anonymous namespace)::ExecFuncUnique7>(geode::ModStateEvent*)::{lambda(std::__ndk1::basic_string<char, std::__ndk1::char_traits<char>, std::__ndk1::allocator<char> >)#2}>(std::__ndk1::basic_string_view<char, std::__ndk1::char_traits<char> >, geodeExecFunction7<(anonymous namespace)::ExecFuncUnique7>(geode::ModStateEvent*)::{lambda(std::__ndk1::basic_string<char, std::__ndk1::char_traits<char>, std::__ndk1::allocator<char> >&&)#2}, geode::Mod*)::{lambda(std::__ndk1::shared_ptr<geode::SettingV3>)#1}>, void (std::__ndk1::shared_ptr<geode::SettingV3>)>::~__func()
PUBLIC 516ac 0 std::__ndk1::__function::__func<geode::listenForSettingChangesV3<std::__ndk1::basic_string<char, std::__ndk1::char_traits<char>, std::__ndk1::allocator<char> >, geodeExecFunction7<(anonymous namespace)::ExecFuncUnique7>(geode::ModStateEvent*)::{lambda(std::__ndk1::basic_string<char, std::__ndk1::char_traits<char>, std::__ndk1::allocator<char> >)#2}>(std::__ndk1::basic_string_view<char, std::__ndk1::char_traits<char> >, geodeExecFunction7<(anonymous namespace)::ExecFuncUnique7>(geode::ModStateEvent*)::{lambda(std::__ndk1::basic_string<char, std::__ndk1::char_traits<char>, std::__ndk1::allocator<char> >&&)#2}, geode::Mod*)::{lambda(std::__ndk1::shared_ptr<geode::SettingV3>)#1}, std::__ndk1::allocator<geode::listenForSettingChangesV3<std::__ndk1::basic_string<char, std::__ndk1::char_traits<char>, std::__ndk1::allocator<char> >, geodeExecFunction7<(anonymous namespace)::ExecFuncUnique7>(geode::ModStateEvent*)::{lambda(std::__ndk1::basic_string<char, std::__ndk1::char_traits<char>, std::__ndk1::allocator<char> >)#2}>(std::__ndk1::basic_string_view<char, std::__ndk1::char_traits<char> >, geodeExecFunction7<(anonymous namespace)::ExecFuncUnique7>(geode::ModStateEvent*)::{lambda(std::__ndk1::basic_string<char, std::__ndk1::char_traits<char>, std::__ndk1::allocator<char> >&&)#2}, geode::Mod*)::{lambda(std::__ndk1::shared_ptr<geode::SettingV3>)#1}>, void (std::__ndk1::shared_ptr<geode::SettingV3>)>::__clone() const
PUBLIC 516e4 0 std::__ndk1::__function::__func<geode::listenForSettingChangesV3<std::__ndk1::basic_string<char, std::__ndk1::char_traits<char>, std::__ndk1::allocator<char> >, geodeExecFunction7<(anonymous namespace)::ExecFuncUnique7>(geode::ModStateEvent*)::{lambda(std::__ndk1::basic_string<char, std::__ndk1::char_traits<char>, std::__ndk1::allocator<char> >)#2}>(std::__ndk1::basic_string_view<char, std::__ndk1::char_traits<char> >, geodeExecFunction7<(anonymous namespace)::ExecFuncUnique7>(geode::ModStateEvent*)::{lambda(std::__ndk1::basic_string<char, std::__ndk1::char_traits<char>, std::__ndk1::allocator<char> >&&)#2}, geode::Mod*)::{lambda(std::__ndk1::shared_ptr<geode::SettingV3>)#1}, std::__ndk1::allocator<geode::listenForSettingChangesV3<std::__ndk1::basic_string<char, std::__ndk1::char_traits<char>, std::__ndk1::allocator<char> >, geodeExecFunction7<(anonymous namespace)::ExecFuncUnique7>(geode::ModStateEvent*)::{lambda(std::__ndk1::basic_string<char, std::__ndk1::char_traits<char>, std::__ndk1::allocator<char> >)#2}>(std::__ndk1::basic_string_view<char, std::__ndk1::char_traits<char> >, geodeExecFunction7<(anonymous namespace)::ExecFuncUnique7>(geode::ModStateEvent*)::{lambda(std::__ndk1::basic_string<char, std::__ndk1::char_traits<char>, std::__ndk1::allocator<char> >&&)#2}, geode::Mod*)::{lambda(std::__ndk1::shared_ptr<geode::SettingV3>)#1}>, void (std::__ndk1::shared_ptr<geode::SettingV3>)>::__clone(std::__ndk1::__function::__base<void (std::__ndk1::shared_ptr<geode::SettingV3>)>*) const
PUBLIC 516fc 0 std::__ndk1::__function::__func<geode::listenForSettingChangesV3<std::__ndk1::basic_string<char, std::__ndk1::char_traits<char>, std::__ndk1::allocator<char> >, geodeExecFunction7<(anonymous namespace)::ExecFuncUnique7>(geode::ModStateEvent*)::{lambda(std::__ndk1::basic_string<char, std::__ndk1::char_traits<char>, std::__ndk1::allocator<char> >)#2}>(std::__ndk1::basic_string_view<char, std::__ndk1::char_traits<char> >, geodeExecFunction7<(anonymous namespace)::ExecFuncUnique7>(geode::ModStateEvent*)::{lambda(std::__ndk1::basic_string<char, std::__ndk1::char_traits<char>, std::__ndk1::allocator<char> >&&)#2}, geode::Mod*)::{lambda(std::__ndk1::shared_ptr<geode::SettingV3>)#1}, std::__ndk1::allocator<geode::listenForSettingChangesV3<std::__ndk1::basic_string<char, std::__ndk1::char_traits<char>, std::__ndk1::allocator<char> >, geodeExecFunction7<(anonymous namespace)::ExecFuncUnique7>(geode::ModStateEvent*)::{lambda(std::__ndk1::basic_string<char, std::__ndk1::char_traits<char>, std::__ndk1::allocator<char> >)#2}>(std::__ndk1::basic_string_view<char, std::__ndk1::char_traits<char> >, geodeExecFunction7<(anonymous namespace)::ExecFuncUnique7>(geode::ModStateEvent*)::{lambda(std::__ndk1::basic_string<char, std::__ndk1::char_traits<char>, std::__ndk1::allocator<char> >&&)#2}, geode::Mod*)::{lambda(std::__ndk1::shared_ptr<geode::SettingV3>)#1}>, void (std::__ndk1::shared_ptr<geode::SettingV3>)>::destroy()
PUBLIC 51700 0 std::__ndk1::__function::__func<geode::listenForSettingChangesV3<std::__ndk1::basic_string<char, std::__ndk1::char_traits<char>, std::__ndk1::allocator<char> >, geodeExecFunction7<(anonymous namespace)::ExecFuncUnique7>(geode::ModStateEvent*)::{lambda(std::__ndk1::basic_string<char, std::__ndk1::char_traits<char>, std::__ndk1::allocator<char> >)#2}>(std::__ndk1::basic_string_view<char, std::__ndk1::char_traits<char> >, geodeExecFunction7<(anonymous namespace)::ExecFuncUnique7>(geode::ModStateEvent*)::{lambda(std::__ndk1::basic_string<char, std::__ndk1::char_traits<char>, std::__ndk1::allocator<char> >&&)#2}, geode::Mod*)::{lambda(std::__ndk1::shared_ptr<geode::SettingV3>)#1}, std::__ndk1::allocator<geode::listenForSettingChangesV3<std::__ndk1::basic_string<char, std::__ndk1::char_traits<char>, std::__ndk1::allocator<char> >, geodeExecFunction7<(anonymous namespace)::ExecFuncUnique7>(geode::ModStateEvent*)::{lambda(std::__ndk1::basic_string<char, std::__ndk1::char_traits<char>, std::__ndk1::allocator<char> >)#2}>(std::__ndk1::basic_string_view<char, std::__ndk1::char_traits<char> >, geodeExecFunction7<(anonymous namespace)::ExecFuncUnique7>(geode::ModStateEvent*)::{lambda(std::__ndk1::basic_string<char, std::__ndk1::char_traits<char>, std::__ndk1::allocator<char> >&&)#2}, geode::Mod*)::{lambda(std::__ndk1::shared_ptr<geode::SettingV3>)#1}>, void (std::__ndk1::shared_ptr<geode::SettingV3>)>::destroy_deallocate()
PUBLIC 51704 0 std::__ndk1::__function::__func<geode::listenForSettingChangesV3<std::__ndk1::basic_string<char, std::__ndk1::char_traits<char>, std::__ndk1::allocator<char> >, geodeExecFunction7<(anonymous namespace)::ExecFuncUnique7>(geode::ModStateEvent*)::{lambda(std::__ndk1::basic_string<char, std::__ndk1::char_traits<char>, std::__ndk1::allocator<char> >)#2}>(std::__ndk1::basic_string_view<char, std::__ndk1::char_traits<char> >, geodeExecFunction7<(anonymous namespace)::ExecFuncUnique7>(geode::ModStateEvent*)::{lambda(std::__ndk1::basic_string<char, std::__ndk1::char_traits<char>, std::__ndk1::allocator<char> >&&)#2}, geode::Mod*)::{lambda(std::__ndk1::shared_ptr<geode::SettingV3>)#1}, std::__ndk1::allocator<geode::listenForSettingChangesV3<std::__ndk1::basic_string<char, std::__ndk1::char_traits<char>, std::__ndk1::allocator<char> >, geodeExecFunction7<(anonymous namespace)::ExecFuncUnique7>(geode::ModStateEvent*)::{lambda(std::__ndk1::basic_string<char, std::__ndk1::char_traits<char>, std::__ndk1::allocator<char> >)#2}>(std::__ndk1::basic_string_view<char, std::__ndk1::char_traits<char> >, geodeExecFunction7<(anonymous namespace)::ExecFuncUnique7>(geode::ModStateEvent*)::{lambda(std::__ndk1::basic_string<char, std::__ndk1::char_traits<char>, std::__ndk1::allocator<char> >&&)#2}, geode::Mod*)::{lambda(std::__ndk1::shared_ptr<geode::SettingV3>)#1}>, void (std::__ndk1::shared_ptr<geode::SettingV3>)>::operator()(std::__ndk1::shared_ptr<geode::SettingV3>&&)
PUBLIC 518a0 0 std::__ndk1::__function::__func<geode::listenForSettingChangesV3<std::__ndk1::basic_string<char, std::__ndk1::char_traits<char>, std::__ndk1::allocator<char> >, geodeExecFunction7<(anonymous namespace)::ExecFuncUnique7>(geode::ModStateEvent*)::{lambda(std::__ndk1::basic_string<char, std::__ndk1::char_traits<char>, std::__ndk1::allocator<char> >)#2}>(std::__ndk1::basic_string_view<char, std::__ndk1::char_traits<char> >, geodeExecFunction7<(anonymous namespace)::ExecFuncUnique7>(geode::ModStateEvent*)::{lambda(std::__ndk1::basic_string<char, std::__ndk1::char_traits<char>, std::__ndk1::allocator<char> >&&)#2}, geode::Mod*)::{lambda(std::__ndk1::shared_ptr<geode::SettingV3>)#1}, std::__ndk1::allocator<geode::listenForSettingChangesV3<std::__ndk1::basic_string<char, std::__ndk1::char_traits<char>, std::__ndk1::allocator<char> >, geodeExecFunction7<(anonymous namespace)::ExecFuncUnique7>(geode::ModStateEvent*)::{lambda(std::__ndk1::basic_string<char, std::__ndk1::char_traits<char>, std::__ndk1::allocator<char> >)#2}>(std::__ndk1::basic_string_view<char, std::__ndk1::char_traits<char> >, geodeExecFunction7<(anonymous namespace)::ExecFuncUnique7>(geode::ModStateEvent*)::{lambda(std::__ndk1::basic_string<char, std::__ndk1::char_traits<char>, std::__ndk1::allocator<char> >&&)#2}, geode::Mod*)::{lambda(std::__ndk1::shared_ptr<geode::SettingV3>)#1}>, void (std::__ndk1::shared_ptr<geode::SettingV3>)>::target(std::type_info const&) const
PUBLIC 518bc 0 std::__ndk1::__function::__func<geode::listenForSettingChangesV3<std::__ndk1::basic_string<char, std::__ndk1::char_traits<char>, std::__ndk1::allocator<char> >, geodeExecFunction7<(anonymous namespace)::ExecFuncUnique7>(geode::ModStateEvent*)::{lambda(std::__ndk1::basic_string<char, std::__ndk1::char_traits<char>, std::__ndk1::allocator<char> >)#2}>(std::__ndk1::basic_string_view<char, std::__ndk1::char_traits<char> >, geodeExecFunction7<(anonymous namespace)::ExecFuncUnique7>(geode::ModStateEvent*)::{lambda(std::__ndk1::basic_string<char, std::__ndk1::char_traits<char>, std::__ndk1::allocator<char> >&&)#2}, geode::Mod*)::{lambda(std::__ndk1::shared_ptr<geode::SettingV3>)#1}, std::__ndk1::allocator<geode::listenForSettingChangesV3<std::__ndk1::basic_string<char, std::__ndk1::char_traits<char>, std::__ndk1::allocator<char> >, geodeExecFunction7<(anonymous namespace)::ExecFuncUnique7>(geode::ModStateEvent*)::{lambda(std::__ndk1::basic_string<char, std::__ndk1::char_traits<char>, std::__ndk1::allocator<char> >)#2}>(std::__ndk1::basic_string_view<char, std::__ndk1::char_traits<char> >, geodeExecFunction7<(anonymous namespace)::ExecFuncUnique7>(geode::ModStateEvent*)::{lambda(std::__ndk1::basic_string<char, std::__ndk1::char_traits<char>, std::__ndk1::allocator<char> >&&)#2}, geode::Mod*)::{lambda(std::__ndk1::shared_ptr<geode::SettingV3>)#1}>, void (std::__ndk1::shared_ptr<geode::SettingV3>)>::target_type() const
PUBLIC 518c8 0 std::__ndk1::__function::__base<void (std::__ndk1::shared_ptr<geode::SettingV3>)>::~__base()
PUBLIC 518cc 0 std::__ndk1::__function::__func<geode::listenForSettingChangesV3<std::__ndk1::__fs::filesystem::path, geodeExecFunction7<(anonymous namespace)::ExecFuncUnique7>(geode::ModStateEvent*)::{lambda(std::__ndk1::__fs::filesystem::path)#1}>(std::__ndk1::basic_string_view<char, std::__ndk1::char_traits<char> >, geodeExecFunction7<(anonymous namespace)::ExecFuncUnique7>(geode::ModStateEvent*)::{lambda(std::__ndk1::__fs::filesystem::path&&)#1}, geode::Mod*)::{lambda(std::__ndk1::shared_ptr<geode::SettingV3>)#1}, std::__ndk1::allocator<geode::listenForSettingChangesV3<std::__ndk1::__fs::filesystem::path, geodeExecFunction7<(anonymous namespace)::ExecFuncUnique7>(geode::ModStateEvent*)::{lambda(std::__ndk1::__fs::filesystem::path)#1}>(std::__ndk1::basic_string_view<char, std::__ndk1::char_traits<char> >, geodeExecFunction7<(anonymous namespace)::ExecFuncUnique7>(geode::ModStateEvent*)::{lambda(std::__ndk1::__fs::filesystem::path&&)#1}, geode::Mod*)::{lambda(std::__ndk1::shared_ptr<geode::SettingV3>)#1}>, void (std::__ndk1::shared_ptr<geode::SettingV3>)>::~__func()
PUBLIC 518d0 0 std::__ndk1::__function::__func<geode::listenForSettingChangesV3<std::__ndk1::__fs::filesystem::path, geodeExecFunction7<(anonymous namespace)::ExecFuncUnique7>(geode::ModStateEvent*)::{lambda(std::__ndk1::__fs::filesystem::path)#1}>(std::__ndk1::basic_string_view<char, std::__ndk1::char_traits<char> >, geodeExecFunction7<(anonymous namespace)::ExecFuncUnique7>(geode::ModStateEvent*)::{lambda(std::__ndk1::__fs::filesystem::path&&)#1}, geode::Mod*)::{lambda(std::__ndk1::shared_ptr<geode::SettingV3>)#1}, std::__ndk1::allocator<geode::listenForSettingChangesV3<std::__ndk1::__fs::filesystem::path, geodeExecFunction7<(anonymous namespace)::ExecFuncUnique7>(geode::ModStateEvent*)::{lambda(std::__ndk1::__fs::filesystem::path)#1}>(std::__ndk1::basic_string_view<char, std::__ndk1::char_traits<char> >, geodeExecFunction7<(anonymous namespace)::ExecFuncUnique7>(geode::ModStateEvent*)::{lambda(std::__ndk1::__fs::filesystem::path&&)#1}, geode::Mod*)::{lambda(std::__ndk1::shared_ptr<geode::SettingV3>)#1}>, void (std::__ndk1::shared_ptr<geode::SettingV3>)>::__clone() const
PUBLIC 51908 0 std::__ndk1::__function::__func<geode::listenForSettingChangesV3<std::__ndk1::__fs::filesystem::path, geodeExecFunction7<(anonymous namespace)::ExecFuncUnique7>(geode::ModStateEvent*)::{lambda(std::__ndk1::__fs::filesystem::path)#1}>(std::__ndk1::basic_string_view<char, std::__ndk1::char_traits<char> >, geodeExecFunction7<(anonymous namespace)::ExecFuncUnique7>(geode::ModStateEvent*)::{lambda(std::__ndk1::__fs::filesystem::path&&)#1}, geode::Mod*)::{lambda(std::__ndk1::shared_ptr<geode::SettingV3>)#1}, std::__ndk1::allocator<geode::listenForSettingChangesV3<std::__ndk1::__fs::filesystem::path, geodeExecFunction7<(anonymous namespace)::ExecFuncUnique7>(geode::ModStateEvent*)::{lambda(std::__ndk1::__fs::filesystem::path)#1}>(std::__ndk1::basic_string_view<char, std::__ndk1::char_traits<char> >, geodeExecFunction7<(anonymous namespace)::ExecFuncUnique7>(geode::ModStateEvent*)::{lambda(std::__ndk1::__fs::filesystem::path&&)#1}, geode::Mod*)::{lambda(std::__ndk1::shared_ptr<geode::SettingV3>)#1}>, void (std::__ndk1::shared_ptr<geode::SettingV3>)>::__clone(std::__ndk1::__function::__base<void (std::__ndk1::shared_ptr<geode::SettingV3>)>*) const
PUBLIC 51920 0 std::__ndk1::__function::__func<geode::listenForSettingChangesV3<std::__ndk1::__fs::filesystem::path, geodeExecFunction7<(anonymous namespace)::ExecFuncUnique7>(geode::ModStateEvent*)::{lambda(std::__ndk1::__fs::filesystem::path)#1}>(std::__ndk1::basic_string_view<char, std::__ndk1::char_traits<char> >, geodeExecFunction7<(anonymous namespace)::ExecFuncUnique7>(geode::ModStateEvent*)::{lambda(std::__ndk1::__fs::filesystem::path&&)#1}, geode::Mod*)::{lambda(std::__ndk1::shared_ptr<geode::SettingV3>)#1}, std::__ndk1::allocator<geode::listenForSettingChangesV3<std::__ndk1::__fs::filesystem::path, geodeExecFunction7<(anonymous namespace)::ExecFuncUnique7>(geode::ModStateEvent*)::{lambda(std::__ndk1::__fs::filesystem::path)#1}>(std::__ndk1::basic_string_view<char, std::__ndk1::char_traits<char> >, geodeExecFunction7<(anonymous namespace)::ExecFuncUnique7>(geode::ModStateEvent*)::{lambda(std::__ndk1::__fs::filesystem::path&&)#1}, geode::Mod*)::{lambda(std::__ndk1::shared_ptr<geode::SettingV3>)#1}>, void (std::__ndk1::shared_ptr<geode::SettingV3>)>::destroy()
PUBLIC 51924 0 std::__ndk1::__function::__func<geode::listenForSettingChangesV3<std::__ndk1::__fs::filesystem::path, geodeExecFunction7<(anonymous namespace)::ExecFuncUnique7>(geode::ModStateEvent*)::{lambda(std::__ndk1::__fs::filesystem::path)#1}>(std::__ndk1::basic_string_view<char, std::__ndk1::char_traits<char> >, geodeExecFunction7<(anonymous namespace)::ExecFuncUnique7>(geode::ModStateEvent*)::{lambda(std::__ndk1::__fs::filesystem::path&&)#1}, geode::Mod*)::{lambda(std::__ndk1::shared_ptr<geode::SettingV3>)#1}, std::__ndk1::allocator<geode::listenForSettingChangesV3<std::__ndk1::__fs::filesystem::path, geodeExecFunction7<(anonymous namespace)::ExecFuncUnique7>(geode::ModStateEvent*)::{lambda(std::__ndk1::__fs::filesystem::path)#1}>(std::__ndk1::basic_string_view<char, std::__ndk1::char_traits<char> >, geodeExecFunction7<(anonymous namespace)::ExecFuncUnique7>(geode::ModStateEvent*)::{lambda(std::__ndk1::__fs::filesystem::path&&)#1}, geode::Mod*)::{lambda(std::__ndk1::shared_ptr<geode::SettingV3>)#1}>, void (std::__ndk1::shared_ptr<geode::SettingV3>)>::destroy_deallocate()
PUBLIC 51928 0 std::__ndk1::__function::__func<geode::listenForSettingChangesV3<std::__ndk1::__fs::filesystem::path, geodeExecFunction7<(anonymous namespace)::ExecFuncUnique7>(geode::ModStateEvent*)::{lambda(std::__ndk1::__fs::filesystem::path)#1}>(std::__ndk1::basic_string_view<char, std::__ndk1::char_traits<char> >, geodeExecFunction7<(anonymous namespace)::ExecFuncUnique7>(geode::ModStateEvent*)::{lambda(std::__ndk1::__fs::filesystem::path&&)#1}, geode::Mod*)::{lambda(std::__ndk1::shared_ptr<geode::SettingV3>)#1}, std::__ndk1::allocator<geode::listenForSettingChangesV3<std::__ndk1::__fs::filesystem::path, geodeExecFunction7<(anonymous namespace)::ExecFuncUnique7>(geode::ModStateEvent*)::{lambda(std::__ndk1::__fs::filesystem::path)#1}>(std::__ndk1::basic_string_view<char, std::__ndk1::char_traits<char> >, geodeExecFunction7<(anonymous namespace)::ExecFuncUnique7>(geode::ModStateEvent*)::{lambda(std::__ndk1::__fs::filesystem::path&&)#1}, geode::Mod*)::{lambda(std::__ndk1::shared_ptr<geode::SettingV3>)#1}>, void (std::__ndk1::shared_ptr<geode::SettingV3>)>::operator()(std::__ndk1::shared_ptr<geode::SettingV3>&&)
PUBLIC 51ac0 0 std::__ndk1::__function::__func<geode::listenForSettingChangesV3<std::__ndk1::__fs::filesystem::path, geodeExecFunction7<(anonymous namespace)::ExecFuncUnique7>(geode::ModStateEvent*)::{lambda(std::__ndk1::__fs::filesystem::path)#1}>(std::__ndk1::basic_string_view<char, std::__ndk1::char_traits<char> >, geodeExecFunction7<(anonymous namespace)::ExecFuncUnique7>(geode::ModStateEvent*)::{lambda(std::__ndk1::__fs::filesystem::path&&)#1}, geode::Mod*)::{lambda(std::__ndk1::shared_ptr<geode::SettingV3>)#1}, std::__ndk1::allocator<geode::listenForSettingChangesV3<std::__ndk1::__fs::filesystem::path, geodeExecFunction7<(anonymous namespace)::ExecFuncUnique7>(geode::ModStateEvent*)::{lambda(std::__ndk1::__fs::filesystem::path)#1}>(std::__ndk1::basic_string_view<char, std::__ndk1::char_traits<char> >, geodeExecFunction7<(anonymous namespace)::ExecFuncUnique7>(geode::ModStateEvent*)::{lambda(std::__ndk1::__fs::filesystem::path&&)#1}, geode::Mod*)::{lambda(std::__ndk1::shared_ptr<geode::SettingV3>)#1}>, void (std::__ndk1::shared_ptr<geode::SettingV3>)>::target(std::type_info const&) const
PUBLIC 51adc 0 std::__ndk1::__function::__func<geode::listenForSettingChangesV3<std::__ndk1::__fs::filesystem::path, geodeExecFunction7<(anonymous namespace)::ExecFuncUnique7>(geode::ModStateEvent*)::{lambda(std::__ndk1::__fs::filesystem::path)#1}>(std::__ndk1::basic_string_view<char, std::__ndk1::char_traits<char> >, geodeExecFunction7<(anonymous namespace)::ExecFuncUnique7>(geode::ModStateEvent*)::{lambda(std::__ndk1::__fs::filesystem::path&&)#1}, geode::Mod*)::{lambda(std::__ndk1::shared_ptr<geode::SettingV3>)#1}, std::__ndk1::allocator<geode::listenForSettingChangesV3<std::__ndk1::__fs::filesystem::path, geodeExecFunction7<(anonymous namespace)::ExecFuncUnique7>(geode::ModStateEvent*)::{lambda(std::__ndk1::__fs::filesystem::path)#1}>(std::__ndk1::basic_string_view<char, std::__ndk1::char_traits<char> >, geodeExecFunction7<(anonymous namespace)::ExecFuncUnique7>(geode::ModStateEvent*)::{lambda(std::__ndk1::__fs::filesystem::path&&)#1}, geode::Mod*)::{lambda(std::__ndk1::shared_ptr<geode::SettingV3>)#1}>, void (std::__ndk1::shared_ptr<geode::SettingV3>)>::target_type() const
PUBLIC 51ae8 0 std::__ndk1::__function::__base<geode::Result<std::__ndk1::shared_ptr<geode::SettingV3>, std::__ndk1::basic_string<char, std::__ndk1::char_traits<char>, std::__ndk1::allocator<char> > >(std::__ndk1::basic_string<char, std::__ndk1::char_traits<char>, std::__ndk1::allocator<char> > const&, std::__ndk1::basic_string<char, std::__ndk1::char_traits<char>, std::__ndk1::allocator<char> > const&, matjson::Value const&)>::~__base()
PUBLIC 51aec 0 std::__ndk1::__function::__func<geode::Result<std::__ndk1::shared_ptr<geode::SettingV3>, std::__ndk1::basic_string<char, std::__ndk1::char_traits<char>, std::__ndk1::allocator<char> > > (*)(std::__ndk1::basic_string<char, std::__ndk1::char_traits<char>, std::__ndk1::allocator<char> > const&, std::__ndk1::basic_string<char, std::__ndk1::char_traits<char>, std::__ndk1::allocator<char> > const&, matjson::Value const&), std::__ndk1::allocator<geode::Result<std::__ndk1::shared_ptr<geode::SettingV3>, std::__ndk1::basic_string<char, std::__ndk1::char_traits<char>, std::__ndk1::allocator<char> > > (*)(std::__ndk1::basic_string<char, std::__ndk1::char_traits<char>, std::__ndk1::allocator<char> > const&, std::__ndk1::basic_string<char, std::__ndk1::char_traits<char>, std::__ndk1::allocator<char> > const&, matjson::Value const&)>, geode::Result<std::__ndk1::shared_ptr<geode::SettingV3>, std::__ndk1::basic_string<char, std::__ndk1::char_traits<char>, std::__ndk1::allocator<char> > >(std::__ndk1::basic_string<char, std::__ndk1::char_traits<char>, std::__ndk1::allocator<char> > const&, std::__ndk1::basic_string<char, std::__ndk1::char_traits<char>, std::__ndk1::allocator<char> > const&, matjson::Value const&)>::~__func()
PUBLIC 51af0 0 std::__ndk1::__function::__func<geode::Result<std::__ndk1::shared_ptr<geode::SettingV3>, std::__ndk1::basic_string<char, std::__ndk1::char_traits<char>, std::__ndk1::allocator<char> > > (*)(std::__ndk1::basic_string<char, std::__ndk1::char_traits<char>, std::__ndk1::allocator<char> > const&, std::__ndk1::basic_string<char, std::__ndk1::char_traits<char>, std::__ndk1::allocator<char> > const&, matjson::Value const&), std::__ndk1::allocator<geode::Result<std::__ndk1::shared_ptr<geode::SettingV3>, std::__ndk1::basic_string<char, std::__ndk1::char_traits<char>, std::__ndk1::allocator<char> > > (*)(std::__ndk1::basic_string<char, std::__ndk1::char_traits<char>, std::__ndk1::allocator<char> > const&, std::__ndk1::basic_string<char, std::__ndk1::char_traits<char>, std::__ndk1::allocator<char> > const&, matjson::Value const&)>, geode::Result<std::__ndk1::shared_ptr<geode::SettingV3>, std::__ndk1::basic_string<char, std::__ndk1::char_traits<char>, std::__ndk1::allocator<char> > >(std::__ndk1::basic_string<char, std::__ndk1::char_traits<char>, std::__ndk1::allocator<char> > const&, std::__ndk1::basic_string<char, std::__ndk1::char_traits<char>, std::__ndk1::allocator<char> > const&, matjson::Value const&)>::__clone() const
PUBLIC 51b24 0 std::__ndk1::__function::__func<geode::Result<std::__ndk1::shared_ptr<geode::SettingV3>, std::__ndk1::basic_string<char, std::__ndk1::char_traits<char>, std::__ndk1::allocator<char> > > (*)(std::__ndk1::basic_string<char, std::__ndk1::char_traits<char>, std::__ndk1::allocator<char> > const&, std::__ndk1::basic_string<char, std::__ndk1::char_traits<char>, std::__ndk1::allocator<char> > const&, matjson::Value const&), std::__ndk1::allocator<geode::Result<std::__ndk1::shared_ptr<geode::SettingV3>, std::__ndk1::basic_string<char, std::__ndk1::char_traits<char>, std::__ndk1::allocator<char> > > (*)(std::__ndk1::basic_string<char, std::__ndk1::char_traits<char>, std::__ndk1::allocator<char> > const&, std::__ndk1::basic_string<char, std::__ndk1::char_traits<char>, std::__ndk1::allocator<char> > const&, matjson::Value const&)>, geode::Result<std::__ndk1::shared_ptr<geode::SettingV3>, std::__ndk1::basic_string<char, std::__ndk1::char_traits<char>, std::__ndk1::allocator<char> > >(std::__ndk1::basic_string<char, std::__ndk1::char_traits<char>, std::__ndk1::allocator<char> > const&, std::__ndk1::basic_string<char, std::__ndk1::char_traits<char>, std::__ndk1::allocator<char> > const&, matjson::Value const&)>::__clone(std::__ndk1::__function::__base<geode::Result<std::__ndk1::shared_ptr<geode::SettingV3>, std::__ndk1::basic_string<char, std::__ndk1::char_traits<char>, std::__ndk1::allocator<char> > >(std::__ndk1::basic_string<char, std::__ndk1::char_traits<char>, std::__ndk1::allocator<char> > const&, std::__ndk1::basic_string<char, std::__ndk1::char_traits<char>, std::__ndk1::allocator<char> > const&, matjson::Value const&)>*) const
PUBLIC 51b38 0 std::__ndk1::__function::__func<geode::Result<std::__ndk1::shared_ptr<geode::SettingV3>, std::__ndk1::basic_string<char, std::__ndk1::char_traits<char>, std::__ndk1::allocator<char> > > (*)(std::__ndk1::basic_string<char, std::__ndk1::char_traits<char>, std::__ndk1::allocator<char> > const&, std::__ndk1::basic_string<char, std::__ndk1::char_traits<char>, std::__ndk1::allocator<char> > const&, matjson::Value const&), std::__ndk1::allocator<geode::Result<std::__ndk1::shared_ptr<geode::SettingV3>, std::__ndk1::basic_string<char, std::__ndk1::char_traits<char>, std::__ndk1::allocator<char> > > (*)(std::__ndk1::basic_string<char, std::__ndk1::char_traits<char>, std::__ndk1::allocator<char> > const&, std::__ndk1::basic_string<char, std::__ndk1::char_traits<char>, std::__ndk1::allocator<char> > const&, matjson::Value const&)>, geode::Result<std::__ndk1::shared_ptr<geode::SettingV3>, std::__ndk1::basic_string<char, std::__ndk1::char_traits<char>, std::__ndk1::allocator<char> > >(std::__ndk1::basic_string<char, std::__ndk1::char_traits<char>, std::__ndk1::allocator<char> > const&, std::__ndk1::basic_string<char, std::__ndk1::char_traits<char>, std::__ndk1::allocator<char> > const&, matjson::Value const&)>::destroy()
PUBLIC 51b3c 0 std::__ndk1::__function::__func<geode::Result<std::__ndk1::shared_ptr<geode::SettingV3>, std::__ndk1::basic_string<char, std::__ndk1::char_traits<char>, std::__ndk1::allocator<char> > > (*)(std::__ndk1::basic_string<char, std::__ndk1::char_traits<char>, std::__ndk1::allocator<char> > const&, std::__ndk1::basic_string<char, std::__ndk1::char_traits<char>, std::__ndk1::allocator<char> > const&, matjson::Value const&), std::__ndk1::allocator<geode::Result<std::__ndk1::shared_ptr<geode::SettingV3>, std::__ndk1::basic_string<char, std::__ndk1::char_traits<char>, std::__ndk1::allocator<char> > > (*)(std::__ndk1::basic_string<char, std::__ndk1::char_traits<char>, std::__ndk1::allocator<char> > const&, std::__ndk1::basic_string<char, std::__ndk1::char_traits<char>, std::__ndk1::allocator<char> > const&, matjson::Value const&)>, geode::Result<std::__ndk1::shared_ptr<geode::SettingV3>, std::__ndk1::basic_string<char, std::__ndk1::char_traits<char>, std::__ndk1::allocator<char> > >(std::__ndk1::basic_string<char, std::__ndk1::char_traits<char>, std::__ndk1::allocator<char> > const&, std::__ndk1::basic_string<char, std::__ndk1::char_traits<char>, std::__ndk1::allocator<char> > const&, matjson::Value const&)>::destroy_deallocate()
PUBLIC 51b40 0 std::__ndk1::__function::__func<geode::Result<std::__ndk1::shared_ptr<geode::SettingV3>, std::__ndk1::basic_string<char, std::__ndk1::char_traits<char>, std::__ndk1::allocator<char> > > (*)(std::__ndk1::basic_string<char, std::__ndk1::char_traits<char>, std::__ndk1::allocator<char> > const&, std::__ndk1::basic_string<char, std::__ndk1::char_traits<char>, std::__ndk1::allocator<char> > const&, matjson::Value const&), std::__ndk1::allocator<geode::Result<std::__ndk1::shared_ptr<geode::SettingV3>, std::__ndk1::basic_string<char, std::__ndk1::char_traits<char>, std::__ndk1::allocator<char> > > (*)(std::__ndk1::basic_string<char, std::__ndk1::char_traits<char>, std::__ndk1::allocator<char> > const&, std::__ndk1::basic_string<char, std::__ndk1::char_traits<char>, std::__ndk1::allocator<char> > const&, matjson::Value const&)>, geode::Result<std::__ndk1::shared_ptr<geode::SettingV3>, std::__ndk1::basic_string<char, std::__ndk1::char_traits<char>, std::__ndk1::allocator<char> > >(std::__ndk1::basic_string<char, std::__ndk1::char_traits<char>, std::__ndk1::allocator<char> > const&, std::__ndk1::basic_string<char, std::__ndk1::char_traits<char>, std::__ndk1::allocator<char> > const&, matjson::Value const&)>::operator()(std::__ndk1::basic_string<char, std::__ndk1::char_traits<char>, std::__ndk1::allocator<char> > const&, std::__ndk1::basic_string<char, std::__ndk1::char_traits<char>, std::__ndk1::allocator<char> > const&, matjson::Value const&)
PUBLIC 51b54 0 std::__ndk1::__function::__func<geode::Result<std::__ndk1::shared_ptr<geode::SettingV3>, std::__ndk1::basic_string<char, std::__ndk1::char_traits<char>, std::__ndk1::allocator<char> > > (*)(std::__ndk1::basic_string<char, std::__ndk1::char_traits<char>, std::__ndk1::allocator<char> > const&, std::__ndk1::basic_string<char, std::__ndk1::char_traits<char>, std::__ndk1::allocator<char> > const&, matjson::Value const&), std::__ndk1::allocator<geode::Result<std::__ndk1::shared_ptr<geode::SettingV3>, std::__ndk1::basic_string<char, std::__ndk1::char_traits<char>, std::__ndk1::allocator<char> > > (*)(std::__ndk1::basic_string<char, std::__ndk1::char_traits<char>, std::__ndk1::allocator<char> > const&, std::__ndk1::basic_string<char, std::__ndk1::char_traits<char>, std::__ndk1::allocator<char> > const&, matjson::Value const&)>, geode::Result<std::__ndk1::shared_ptr<geode::SettingV3>, std::__ndk1::basic_string<char, std::__ndk1::char_traits<char>, std::__ndk1::allocator<char> > >(std::__ndk1::basic_string<char, std::__ndk1::char_traits<char>, std::__ndk1::allocator<char> > const&, std::__ndk1::basic_string<char, std::__ndk1::char_traits<char>, std::__ndk1::allocator<char> > const&, matjson::Value const&)>::target(std::type_info const&) const
PUBLIC 51b70 0 std::__ndk1::__function::__func<geode::Result<std::__ndk1::shared_ptr<geode::SettingV3>, std::__ndk1::basic_string<char, std::__ndk1::char_traits<char>, std::__ndk1::allocator<char> > > (*)(std::__ndk1::basic_string<char, std::__ndk1::char_traits<char>, std::__ndk1::allocator<char> > const&, std::__ndk1::basic_string<char, std::__ndk1::char_traits<char>, std::__ndk1::allocator<char> > const&, matjson::Value const&), std::__ndk1::allocator<geode::Result<std::__ndk1::shared_ptr<geode::SettingV3>, std::__ndk1::basic_string<char, std::__ndk1::char_traits<char>, std::__ndk1::allocator<char> > > (*)(std::__ndk1::basic_string<char, std::__ndk1::char_traits<char>, std::__ndk1::allocator<char> > const&, std::__ndk1::basic_string<char, std::__ndk1::char_traits<char>, std::__ndk1::allocator<char> > const&, matjson::Value const&)>, geode::Result<std::__ndk1::shared_ptr<geode::SettingV3>, std::__ndk1::basic_string<char, std::__ndk1::char_traits<char>, std::__ndk1::allocator<char> > >(std::__ndk1::basic_string<char, std::__ndk1::char_traits<char>, std::__ndk1::allocator<char> > const&, std::__ndk1::basic_string<char, std::__ndk1::char_traits<char>, std::__ndk1::allocator<char> > const&, matjson::Value const&)>::target_type() const
PUBLIC 51b7c 0 _GLOBAL__sub_I_main.cpp
PUBLIC 51c94 0 ReloadSongNode::create(std::__ndk1::shared_ptr<ReloadSongSetting>, float)
PUBLIC 51dc4 0 ReloadSongNode::init(std::__ndk1::shared_ptr<ReloadSongSetting>, float)
PUBLIC 51f1c 0 std::__ndk1::shared_ptr<ReloadSongSetting>::~shared_ptr[abi:ne190000]()
PUBLIC 51f6c 0 ReloadSongNode::onButton(cocos2d::CCObject*)
PUBLIC 51f80 0 ReloadSongNode::onCommit()
PUBLIC 51f84 0 ReloadSongNode::onResetToDefault()
PUBLIC 51f88 0 ReloadSongNode::hasUncommittedChanges() const
PUBLIC 51f90 0 ReloadSongNode::hasNonDefaultValue() const
PUBLIC 51f98 0 geode::SettingNodeV3::~SettingNodeV3()
PUBLIC 52008 0 ReloadSongNode::~ReloadSongNode()
PUBLIC 52088 0 ReloadSongSetting::parse(std::__ndk1::basic_string<char, std::__ndk1::char_traits<char>, std::__ndk1::allocator<char> > const&, std::__ndk1::basic_string<char, std::__ndk1::char_traits<char>, std::__ndk1::allocator<char> > const&, matjson::Value const&)
PUBLIC 52414 0 ReloadSongSetting::load(matjson::Value const&)
PUBLIC 5241c 0 ReloadSongSetting::save(matjson::Value&) const
PUBLIC 52424 0 ReloadSongSetting::isDefaultValue() const
PUBLIC 5242c 0 ReloadSongSetting::reset()
PUBLIC 52430 0 ReloadSongSetting::createNode(float)
PUBLIC 52554 0 ReloadSongSetting::~ReloadSongSetting()
PUBLIC 52578 0 std::__ndk1::__shared_ptr_emplace<ReloadSongSetting, std::__ndk1::allocator<ReloadSongSetting> >::~__shared_ptr_emplace()
PUBLIC 52588 0 std::__ndk1::__shared_ptr_emplace<ReloadSongSetting, std::__ndk1::allocator<ReloadSongSetting> >::~__shared_ptr_emplace()
PUBLIC 525b8 0 std::__ndk1::__shared_ptr_emplace<ReloadSongSetting, std::__ndk1::allocator<ReloadSongSetting> >::__on_zero_shared()
PUBLIC 525c4 0 std::__ndk1::__shared_ptr_emplace<ReloadSongSetting, std::__ndk1::allocator<ReloadSongSetting> >::__on_zero_shared_weak()
PUBLIC 525c8 0 geode::impl::ResultData<void, std::__ndk1::basic_string<char, std::__ndk1::char_traits<char>, std::__ndk1::allocator<char> > >::~ResultData()
PUBLIC 5263c 0 std::__ndk1::__throw_bad_weak_ptr[abi:ne190000]()
PUBLIC 52670 0 CurrentSongNode::create()
PUBLIC 526f8 0 CurrentSongNode::init()
PUBLIC 52c8c 0 CurrentSongNode::onButton(cocos2d::CCObject*)
PUBLIC 52d94 0 CurrentSongNode::update(float)
PUBLIC 531c0 0 CurrentSongNode::~CurrentSongNode()
PUBLIC 5322c 0 CurrentSongNode::~CurrentSongNode()
PUBLIC 532a8 0 std::__ndk1::basic_string<char, std::__ndk1::char_traits<char>, std::__ndk1::allocator<char> >::__assign_no_alias<true>(char const*, unsigned long)
PUBLIC 53354 0 std::__ndk1::basic_string<char, std::__ndk1::char_traits<char>, std::__ndk1::allocator<char> >::__assign_no_alias<false>(char const*, unsigned long)
PUBLIC 53490 0 PreloadUI::create()
PUBLIC 53520 0 PreloadUI::init()
PUBLIC 53980 0 PreloadUI::addToSceneAndAnimate()
PUBLIC 53a00 0 PreloadUI::increment(std::__ndk1::basic_string<char, std::__ndk1::char_traits<char>, std::__ndk1::allocator<char> >)
PUBLIC 53b44 0 PreloadUI::runCompleteAnimationAndRemove()
PUBLIC 53d7c 0 PreloadUI::~PreloadUI()
PUBLIC 53da0 0 cocos2d::CCNodeRGBA::setOpacityModifyRGB(bool)
PUBLIC 53da4 0 cocos2d::CCNodeRGBA::isOpacityModifyRGB()
PUBLIC 53dac 0 {virtual override thunk({offset(-320)}, cocos2d::CCNodeRGBA::setOpacityModifyRGB(bool))}
PUBLIC 53db0 0 {virtual override thunk({offset(-320)}, cocos2d::CCNodeRGBA::isOpacityModifyRGB())}
PUBLIC 53db8 0 ProgressBar::create(float)
PUBLIC 53e58 0 ProgressBar::init(float)
PUBLIC 5423c 0 ProgressBar::setValue(float)
PUBLIC 54308 0 ProgressBar::~ProgressBar()
PUBLIC 5432c 0 SongInfoPopup::create()
PUBLIC 5444c 0 SongInfoPopup::get()
PUBLIC 54518 0 SongInfoPopup::setup()
PUBLIC 55754 0 geode::Popup<>::setTitle(std::__ndk1::basic_string<char, std::__ndk1::char_traits<char>, std::__ndk1::allocator<char> > const&, char const*, float, float)
PUBLIC 558a4 0 SongInfoPopup::onNoSongsRefresh(cocos2d::CCObject*)
PUBLIC 558dc 0 SongInfoPopup::onSettings(cocos2d::CCObject*)
PUBLIC 55920 0 SongInfoPopup::onPlayPause(cocos2d::CCObject*)
PUBLIC 55934 0 SongInfoPopup::onPrev(cocos2d::CCObject*)
PUBLIC 55948 0 SongInfoPopup::onNext(cocos2d::CCObject*)
PUBLIC 5595c 0 SongInfoPopup::onRewind(cocos2d::CCObject*)
PUBLIC 55970 0 SongInfoPopup::onFastForward(cocos2d::CCObject*)
PUBLIC 55984 0 SongInfoPopup::updateCustomizableUI()
PUBLIC 55c0c 0 SongInfoPopup::update(float)
PUBLIC 56538 0 geode::Mod::getSettingValue<std::__ndk1::basic_string<char, std::__ndk1::char_traits<char>, std::__ndk1::allocator<char> > >(std::__ndk1::basic_string_view<char, std::__ndk1::char_traits<char> >) const
PUBLIC 566c8 0 std::__ndk1::array<std::__ndk1::basic_string<char, std::__ndk1::char_traits<char>, std::__ndk1::allocator<char> >, (unsigned long)7>::~array()
PUBLIC 5678c 0 SongInfoPopup::close()
PUBLIC 5679c 0 SongInfoPopup::~SongInfoPopup()
PUBLIC 56874 0 SongInfoPopup::~SongInfoPopup()
PUBLIC 56954 0 geode::Popup<>::registerWithTouchDispatcher()
PUBLIC 56980 0 geode::Popup<>::keyDown(cocos2d::enumKeyCodes)
PUBLIC 569a8 0 cocos2d::CCLayerRGBA::setOpacityModifyRGB(bool)
PUBLIC 569ac 0 cocos2d::CCLayerRGBA::isOpacityModifyRGB()
PUBLIC 569b4 0 geode::Popup<>::onClose(cocos2d::CCObject*)
PUBLIC 56ae8 0 {virtual override thunk({offset(-320)}, SongInfoPopup::~SongInfoPopup())}
PUBLIC 56bcc 0 {virtual override thunk({offset(-320)}, SongInfoPopup::~SongInfoPopup())}
PUBLIC 56cb8 0 {virtual override thunk({offset(-344)}, geode::Popup<>::keyDown(cocos2d::enumKeyCodes))}
PUBLIC 56ce4 0 cocos2d::CCKeyboardDelegate::keyUp(cocos2d::enumKeyCodes)
PUBLIC 56ce8 0 cocos2d::CCMouseDelegate::rightKeyDown()
PUBLIC 56cec 0 cocos2d::CCMouseDelegate::rightKeyUp()
PUBLIC 56cf0 0 cocos2d::CCMouseDelegate::scrollWheel(float, float)
PUBLIC 56cf4 0 {virtual override thunk({offset(-408)}, cocos2d::CCLayerRGBA::setOpacityModifyRGB(bool))}
PUBLIC 56cf8 0 {virtual override thunk({offset(-408)}, cocos2d::CCLayerRGBA::isOpacityModifyRGB())}
PUBLIC 56d00 0 geode::Popup<>::~Popup()
PUBLIC 56d6c 0 geode::Popup<>::~Popup()
PUBLIC 56d70 0 {virtual override thunk({offset(-320)}, geode::Popup<>::~Popup())}
PUBLIC 56ddc 0 {virtual override thunk({offset(-320)}, geode::Popup<>::~Popup())}
PUBLIC 56de0 0 geode::Popup<>::initBase(float, float, char const*, cocos2d::CCRect, bool)
PUBLIC 570e4 0 geode::Popup<>::CloseEvent::~CloseEvent()
PUBLIC 57144 0 geode::Popup<>::CloseEvent::~CloseEvent()
PUBLIC 571b4 0 std::__ndk1::__shared_ptr_emplace<geode::Popup<>::CloseEvent::Impl, std::__ndk1::allocator<geode::Popup<>::CloseEvent::Impl> >::~__shared_ptr_emplace()
PUBLIC 571c4 0 std::__ndk1::__shared_ptr_emplace<geode::Popup<>::CloseEvent::Impl, std::__ndk1::allocator<geode::Popup<>::CloseEvent::Impl> >::~__shared_ptr_emplace()
PUBLIC 571f4 0 std::__ndk1::__shared_ptr_emplace<geode::Popup<>::CloseEvent::Impl, std::__ndk1::allocator<geode::Popup<>::CloseEvent::Impl> >::__on_zero_shared()
PUBLIC 571f8 0 std::__ndk1::__shared_ptr_emplace<geode::Popup<>::CloseEvent::Impl, std::__ndk1::allocator<geode::Popup<>::CloseEvent::Impl> >::__on_zero_shared_weak()
PUBLIC 571fc 0 em::utils::formatTime(unsigned int)
PUBLIC 57310 0 em::utils::mimeTypeToFormat(std::__ndk1::basic_string<char, std::__ndk1::char_traits<char>, std::__ndk1::allocator<char> >)
PUBLIC 576d0 0 em::utils::isMusicPlayerCentered()
PUBLIC 57828 0 em::utils::showMusicPlayerAlbumCover()
PUBLIC 57968 0 std::__ndk1::__hash_table<std::__ndk1::__hash_value_type<std::__ndk1::basic_string<char, std::__ndk1::char_traits<char>, std::__ndk1::allocator<char> >, cocos2d::CCImage::EImageFormat>, std::__ndk1::__unordered_map_hasher<std::__ndk1::basic_string<char, std::__ndk1::char_traits<char>, std::__ndk1::allocator<char> >, std::__ndk1::__hash_value_type<std::__ndk1::basic_string<char, std::__ndk1::char_traits<char>, std::__ndk1::allocator<char> >, cocos2d::CCImage::EImageFormat>, std::__ndk1::hash<std::__ndk1::basic_string<char, std::__ndk1::char_traits<char>, std::__ndk1::allocator<char> > >, std::__ndk1::equal_to<std::__ndk1::basic_string<char, std::__ndk1::char_traits<char>, std::__ndk1::allocator<char> > >, true>, std::__ndk1::__unordered_map_equal<std::__ndk1::basic_string<char, std::__ndk1::char_traits<char>, std::__ndk1::allocator<char> >, std::__ndk1::__hash_value_type<std::__ndk1::basic_string<char, std::__ndk1::char_traits<char>, std::__ndk1::allocator<char> >, cocos2d::CCImage::EImageFormat>, std::__ndk1::equal_to<std::__ndk1::basic_string<char, std::__ndk1::char_traits<char>, std::__ndk1::allocator<char> > >, std::__ndk1::hash<std::__ndk1::basic_string<char, std::__ndk1::char_traits<char>, std::__ndk1::allocator<char> > >, true>, std::__ndk1::allocator<std::__ndk1::__hash_value_type<std::__ndk1::basic_string<char, std::__ndk1::char_traits<char>, std::__ndk1::allocator<char> >, cocos2d::CCImage::EImageFormat> > >::~__hash_table()
PUBLIC 579d8 0 std::__ndk1::__hash_table<std::__ndk1::__hash_value_type<std::__ndk1::basic_string<char, std::__ndk1::char_traits<char>, std::__ndk1::allocator<char> >, cocos2d::CCImage::EImageFormat>, std::__ndk1::__unordered_map_hasher<std::__ndk1::basic_string<char, std::__ndk1::char_traits<char>, std::__ndk1::allocator<char> >, std::__ndk1::__hash_value_type<std::__ndk1::basic_string<char, std::__ndk1::char_traits<char>, std::__ndk1::allocator<char> >, cocos2d::CCImage::EImageFormat>, std::__ndk1::hash<std::__ndk1::basic_string<char, std::__ndk1::char_traits<char>, std::__ndk1::allocator<char> > >, std::__ndk1::equal_to<std::__ndk1::basic_string<char, std::__ndk1::char_traits<char>, std::__ndk1::allocator<char> > >, true>, std::__ndk1::__unordered_map_equal<std::__ndk1::basic_string<char, std::__ndk1::char_traits<char>, std::__ndk1::allocator<char> >, std::__ndk1::__hash_value_type<std::__ndk1::basic_string<char, std::__ndk1::char_traits<char>, std::__ndk1::allocator<char> >, cocos2d::CCImage::EImageFormat>, std::__ndk1::equal_to<std::__ndk1::basic_string<char, std::__ndk1::char_traits<char>, std::__ndk1::allocator<char> > >, std::__ndk1::hash<std::__ndk1::basic_string<char, std::__ndk1::char_traits<char>, std::__ndk1::allocator<char> > >, true>, std::__ndk1::allocator<std::__ndk1::__hash_value_type<std::__ndk1::basic_string<char, std::__ndk1::char_traits<char>, std::__ndk1::allocator<char> >, cocos2d::CCImage::EImageFormat> > >::__emplace_unique_key_args<std::__ndk1::basic_string<char, std::__ndk1::char_traits<char>, std::__ndk1::allocator<char> >, std::__ndk1::pair<std::__ndk1::basic_string<char, std::__ndk1::char_traits<char>, std::__ndk1::allocator<char> > const, cocos2d::CCImage::EImageFormat> const&>(std::__ndk1::basic_string<char, std::__ndk1::char_traits<char>, std::__ndk1::allocator<char> > const&, std::__ndk1::pair<std::__ndk1::basic_string<char, std::__ndk1::char_traits<char>, std::__ndk1::allocator<char> > const, cocos2d::CCImage::EImageFormat> const&)
PUBLIC 57ff0 0 std::__ndk1::unique_ptr<std::__ndk1::__hash_node<std::__ndk1::__hash_value_type<std::__ndk1::basic_string<char, std::__ndk1::char_traits<char>, std::__ndk1::allocator<char> >, cocos2d::CCImage::EImageFormat>, void*>, std::__ndk1::__hash_node_destructor<std::__ndk1::allocator<std::__ndk1::__hash_node<std::__ndk1::__hash_value_type<std::__ndk1::basic_string<char, std::__ndk1::char_traits<char>, std::__ndk1::allocator<char> >, cocos2d::CCImage::EImageFormat>, void*> > > >::~unique_ptr[abi:ne190000]()
PUBLIC 58040 0 std::__ndk1::__murmur2_or_cityhash<unsigned long, (unsigned long)64>::operator()[abi:ne190000](void const*, unsigned long) const
PUBLIC 58498 0 geode::getMod()
PUBLIC m 584d4 0 geodeImplicitEntry
PUBLIC 58510 0 simdutf::implementation::autodetect_encoding(char const*, unsigned long) const
PUBLIC 586a0 0 simdutf::convert_utf16le_to_utf8_with_errors(char16_t const*, unsigned long, char*)
PUBLIC 58768 0 simdutf::convert_utf16be_to_utf8_with_errors(char16_t const*, unsigned long, char*)
PUBLIC 58830 0 simdutf::arm64::implementation::detect_encodings(char const*, unsigned long) const
PUBLIC 58ba4 0 simdutf::arm64::implementation::validate_utf8(char const*, unsigned long) const
PUBLIC 58f8c 0 simdutf::arm64::implementation::validate_utf16le(char16_t const*, unsigned long) const
PUBLIC 590c8 0 simdutf::arm64::implementation::validate_utf32(char32_t const*, unsigned long) const
PUBLIC 591cc 0 simdutf::arm64::implementation::validate_utf8_with_errors(char const*, unsigned long) const
PUBLIC 5963c 0 simdutf::arm64::implementation::validate_ascii(char const*, unsigned long) const
PUBLIC 59744 0 simdutf::arm64::implementation::validate_ascii_with_errors(char const*, unsigned long) const
PUBLIC 599c0 0 simdutf::arm64::implementation::validate_utf16be(char16_t const*, unsigned long) const
PUBLIC 59b0c 0 simdutf::arm64::implementation::validate_utf16le_with_errors(char16_t const*, unsigned long) const
PUBLIC 59c78 0 simdutf::arm64::implementation::validate_utf16be_with_errors(char16_t const*, unsigned long) const
PUBLIC 59df4 0 simdutf::arm64::implementation::validate_utf32_with_errors(char32_t const*, unsigned long) const
PUBLIC 59f58 0 simdutf::arm64::implementation::convert_latin1_to_utf8(char const*, unsigned long, char*) const
PUBLIC 5a220 0 simdutf::arm64::implementation::convert_latin1_to_utf16le(char const*, unsigned long, char16_t*) const
PUBLIC 5a324 0 simdutf::arm64::implementation::convert_latin1_to_utf16be(char const*, unsigned long, char16_t*) const
PUBLIC 5a434 0 simdutf::arm64::implementation::convert_latin1_to_utf32(char const*, unsigned long, char32_t*) const
PUBLIC 5a588 0 simdutf::arm64::implementation::convert_utf8_to_latin1(char const*, unsigned long, char*) const
PUBLIC 5a9cc 0 simdutf::arm64::implementation::convert_utf8_to_latin1_with_errors(char const*, unsigned long, char*) const
PUBLIC 5ad0c 0 simdutf::arm64::implementation::convert_valid_utf8_to_latin1(char const*, unsigned long, char*) const
PUBLIC 5b01c 0 simdutf::arm64::implementation::convert_utf8_to_utf16le(char const*, unsigned long, char16_t*) const
PUBLIC 5b87c 0 simdutf::arm64::implementation::convert_utf8_to_utf16be(char const*, unsigned long, char16_t*) const
PUBLIC 5c144 0 simdutf::arm64::implementation::convert_utf8_to_utf16le_with_errors(char const*, unsigned long, char16_t*) const
PUBLIC 5c788 0 simdutf::arm64::implementation::convert_utf8_to_utf16be_with_errors(char const*, unsigned long, char16_t*) const
PUBLIC 5cde4 0 simdutf::arm64::implementation::convert_valid_utf8_to_utf16le(char const*, unsigned long, char16_t*) const
PUBLIC 5d388 0 simdutf::arm64::implementation::convert_valid_utf8_to_utf16be(char const*, unsigned long, char16_t*) const
PUBLIC 5d978 0 simdutf::arm64::implementation::convert_utf8_to_utf32(char const*, unsigned long, char32_t*) const
PUBLIC 5e108 0 simdutf::arm64::implementation::convert_utf8_to_utf32_with_errors(char const*, unsigned long, char32_t*) const
PUBLIC 5e6ac 0 simdutf::arm64::implementation::convert_valid_utf8_to_utf32(char const*, unsigned long, char32_t*) const
PUBLIC 5eb6c 0 simdutf::arm64::implementation::convert_utf16le_to_latin1(char16_t const*, unsigned long, char*) const
PUBLIC 5ecd0 0 simdutf::arm64::implementation::convert_utf16be_to_latin1(char16_t const*, unsigned long, char*) const
PUBLIC 5ee50 0 simdutf::arm64::implementation::convert_utf16le_to_latin1_with_errors(char16_t const*, unsigned long, char*) const
PUBLIC 5f114 0 simdutf::arm64::implementation::convert_utf16be_to_latin1_with_errors(char16_t const*, unsigned long, char*) const
PUBLIC 5f468 0 simdutf::arm64::implementation::convert_valid_utf16be_to_latin1(char16_t const*, unsigned long, char*) const
PUBLIC 5f5e8 0 simdutf::arm64::implementation::convert_valid_utf16le_to_latin1(char16_t const*, unsigned long, char*) const
PUBLIC 5f74c 0 simdutf::arm64::implementation::convert_utf16le_to_utf8(char16_t const*, unsigned long, char*) const
PUBLIC 5fbfc 0 simdutf::arm64::implementation::convert_utf16be_to_utf8(char16_t const*, unsigned long, char*) const
PUBLIC 600e8 0 simdutf::arm64::implementation::convert_utf16le_to_utf8_with_errors(char16_t const*, unsigned long, char*) const
PUBLIC 605c0 0 simdutf::arm64::implementation::convert_utf16be_to_utf8_with_errors(char16_t const*, unsigned long, char*) const
PUBLIC 60ad4 0 simdutf::arm64::implementation::convert_valid_utf16le_to_utf8(char16_t const*, unsigned long, char*) const
PUBLIC 60ad8 0 simdutf::arm64::implementation::convert_valid_utf16be_to_utf8(char16_t const*, unsigned long, char*) const
PUBLIC 60adc 0 simdutf::arm64::implementation::convert_utf32_to_utf8(char32_t const*, unsigned long, char*) const
PUBLIC 60f64 0 simdutf::arm64::implementation::convert_utf32_to_utf8_with_errors(char32_t const*, unsigned long, char*) const
PUBLIC 61424 0 simdutf::arm64::implementation::convert_utf16le_to_utf32(char16_t const*, unsigned long, char32_t*) const
PUBLIC 615d8 0 simdutf::arm64::implementation::convert_utf16be_to_utf32(char16_t const*, unsigned long, char32_t*) const
PUBLIC 617a8 0 simdutf::arm64::implementation::convert_utf16le_to_utf32_with_errors(char16_t const*, unsigned long, char32_t*) const
PUBLIC 61970 0 simdutf::arm64::implementation::convert_utf16be_to_utf32_with_errors(char16_t const*, unsigned long, char32_t*) const
PUBLIC 61b50 0 simdutf::arm64::implementation::convert_utf32_to_latin1(char32_t const*, unsigned long, char*) const
PUBLIC 61cfc 0 simdutf::arm64::implementation::convert_utf32_to_latin1_with_errors(char32_t const*, unsigned long, char*) const
PUBLIC 61f00 0 simdutf::arm64::implementation::convert_valid_utf32_to_latin1(char32_t const*, unsigned long, char*) const
PUBLIC 61ffc 0 simdutf::arm64::implementation::convert_valid_utf32_to_utf8(char32_t const*, unsigned long, char*) const
PUBLIC 62000 0 simdutf::arm64::implementation::convert_utf32_to_utf16le(char32_t const*, unsigned long, char16_t*) const
PUBLIC 621b8 0 simdutf::arm64::implementation::convert_utf32_to_utf16be(char32_t const*, unsigned long, char16_t*) const
PUBLIC 6239c 0 simdutf::arm64::implementation::convert_utf32_to_utf16le_with_errors(char32_t const*, unsigned long, char16_t*) const
PUBLIC 62600 0 simdutf::arm64::implementation::convert_utf32_to_utf16be_with_errors(char32_t const*, unsigned long, char16_t*) const
PUBLIC 628b8 0 simdutf::arm64::implementation::convert_valid_utf32_to_utf16le(char32_t const*, unsigned long, char16_t*) const
PUBLIC 628bc 0 simdutf::arm64::implementation::convert_valid_utf32_to_utf16be(char32_t const*, unsigned long, char16_t*) const
PUBLIC 628c0 0 simdutf::arm64::implementation::convert_valid_utf16le_to_utf32(char16_t const*, unsigned long, char32_t*) const
PUBLIC 628c4 0 simdutf::arm64::implementation::convert_valid_utf16be_to_utf32(char16_t const*, unsigned long, char32_t*) const
PUBLIC 628c8 0 simdutf::arm64::implementation::change_endianness_utf16(char16_t const*, unsigned long, char16_t*) const
PUBLIC 629a8 0 simdutf::arm64::implementation::count_utf16le(char16_t const*, unsigned long) const
PUBLIC 62ba8 0 simdutf::arm64::implementation::count_utf16be(char16_t const*, unsigned long) const
PUBLIC 62db4 0 simdutf::arm64::implementation::count_utf8(char const*, unsigned long) const
PUBLIC 63110 0 simdutf::arm64::implementation::latin1_length_from_utf8(char const*, unsigned long) const
PUBLIC 63478 0 simdutf::arm64::implementation::latin1_length_from_utf16(unsigned long) const
PUBLIC 63480 0 simdutf::arm64::implementation::latin1_length_from_utf32(unsigned long) const
PUBLIC 63488 0 simdutf::arm64::implementation::utf8_length_from_latin1(char const*, unsigned long) const
PUBLIC 634e0 0 simdutf::arm64::implementation::utf8_length_from_utf16le(char16_t const*, unsigned long) const
PUBLIC 638e8 0 simdutf::arm64::implementation::utf8_length_from_utf16be(char16_t const*, unsigned long) const
PUBLIC 63d14 0 simdutf::arm64::implementation::utf16_length_from_latin1(unsigned long) const
PUBLIC 63d1c 0 simdutf::arm64::implementation::utf32_length_from_latin1(unsigned long) const
PUBLIC 63d24 0 simdutf::arm64::implementation::utf32_length_from_utf16le(char16_t const*, unsigned long) const
PUBLIC 63f24 0 simdutf::arm64::implementation::utf32_length_from_utf16be(char16_t const*, unsigned long) const
PUBLIC 64130 0 simdutf::arm64::implementation::utf16_length_from_utf8(char const*, unsigned long) const
PUBLIC 644cc 0 simdutf::arm64::implementation::utf8_length_from_utf32(char32_t const*, unsigned long) const
PUBLIC 646f8 0 simdutf::arm64::implementation::utf16_length_from_utf32(char32_t const*, unsigned long) const
PUBLIC 64848 0 simdutf::arm64::implementation::utf32_length_from_utf8(char const*, unsigned long) const
PUBLIC 64ba4 0 simdutf::arm64::implementation::maximal_binary_length_from_base64(char const*, unsigned long) const
PUBLIC 64c04 0 simdutf::arm64::implementation::base64_to_binary(char const*, unsigned long, char*, simdutf::base64_options, simdutf::last_chunk_handling_options) const
PUBLIC 64cbc 0 simdutf::arm64::(anonymous namespace)::compress_decode_base64<true, true, char>(char*, char const*, unsigned long, simdutf::base64_options, simdutf::last_chunk_handling_options)
PUBLIC 654ac 0 simdutf::arm64::(anonymous namespace)::compress_decode_base64<true, false, char>(char*, char const*, unsigned long, simdutf::base64_options, simdutf::last_chunk_handling_options)
PUBLIC 65e04 0 simdutf::arm64::(anonymous namespace)::compress_decode_base64<false, true, char>(char*, char const*, unsigned long, simdutf::base64_options, simdutf::last_chunk_handling_options)
PUBLIC 665b8 0 simdutf::arm64::(anonymous namespace)::compress_decode_base64<false, false, char>(char*, char const*, unsigned long, simdutf::base64_options, simdutf::last_chunk_handling_options)
PUBLIC 66ed4 0 simdutf::arm64::implementation::base64_to_binary_details(char const*, unsigned long, char*, simdutf::base64_options, simdutf::last_chunk_handling_options) const
PUBLIC 66f14 0 simdutf::arm64::implementation::maximal_binary_length_from_base64(char16_t const*, unsigned long) const
PUBLIC 66f74 0 simdutf::arm64::implementation::base64_to_binary(char16_t const*, unsigned long, char*, simdutf::base64_options, simdutf::last_chunk_handling_options) const
PUBLIC 6702c 0 simdutf::arm64::(anonymous namespace)::compress_decode_base64<true, true, char16_t>(char*, char16_t const*, unsigned long, simdutf::base64_options, simdutf::last_chunk_handling_options)
PUBLIC 67854 0 simdutf::arm64::(anonymous namespace)::compress_decode_base64<true, false, char16_t>(char*, char16_t const*, unsigned long, simdutf::base64_options, simdutf::last_chunk_handling_options)
PUBLIC 68250 0 simdutf::arm64::(anonymous namespace)::compress_decode_base64<false, true, char16_t>(char*, char16_t const*, unsigned long, simdutf::base64_options, simdutf::last_chunk_handling_options)
PUBLIC 68a3c 0 simdutf::arm64::(anonymous namespace)::compress_decode_base64<false, false, char16_t>(char*, char16_t const*, unsigned long, simdutf::base64_options, simdutf::last_chunk_handling_options)
PUBLIC 693f4 0 simdutf::arm64::implementation::base64_to_binary_details(char16_t const*, unsigned long, char*, simdutf::base64_options, simdutf::last_chunk_handling_options) const
PUBLIC 69434 0 simdutf::arm64::implementation::base64_length_from_binary(unsigned long, simdutf::base64_options) const
PUBLIC 69474 0 simdutf::arm64::implementation::binary_to_base64(char const*, unsigned long, char*, simdutf::base64_options) const
PUBLIC 6966c 0 simdutf::implementation::name() const
PUBLIC 6971c 0 simdutf::implementation::description() const
PUBLIC 697cc 0 simdutf::implementation::required_instruction_sets() const
PUBLIC 697d4 0 simdutf::scalar::(anonymous namespace)::utf8::rewind_and_validate_with_errors(char const*, char const*, unsigned long)
PUBLIC 69a4c 0 simdutf::scalar::(anonymous namespace)::utf8_to_latin1::rewind_and_convert_with_errors(unsigned long, char const*, unsigned long, char*)
PUBLIC 69c48 0 simdutf::scalar::(anonymous namespace)::utf8_to_utf32::rewind_and_convert_with_errors(unsigned long, char const*, unsigned long, char32_t*)
PUBLIC 69fd4 0 simdutf::scalar::(anonymous namespace)::utf8_to_utf16::rewind_and_convert_with_errors<(simdutf::endianness)0>(unsigned long, char const*, unsigned long, char16_t*)
PUBLIC 6a2e0 0 simdutf::scalar::(anonymous namespace)::utf8_to_utf16::rewind_and_convert_with_errors<(simdutf::endianness)1>(unsigned long, char const*, unsigned long, char16_t*)
PUBLIC 6a638 0 simdutf::scalar::(anonymous namespace)::base64::base64_tail_decode<char>(char*, char const*, unsigned long, unsigned long, simdutf::base64_options, simdutf::last_chunk_handling_options)
PUBLIC 6a9dc 0 simdutf::scalar::(anonymous namespace)::base64::base64_tail_decode<char16_t>(char*, char16_t const*, unsigned long, unsigned long, simdutf::base64_options, simdutf::last_chunk_handling_options)
PUBLIC 6ade4 0 std::__ndk1::unordered_map<void*, bool, std::__ndk1::hash<void*>, std::__ndk1::equal_to<void*>, std::__ndk1::allocator<std::__ndk1::pair<void* const, bool> > >::~unordered_map[abi:ne190000]()
PUBLIC 6ae30 0 wrapFunction(unsigned long, tulip::hook::WrapperMetadata const&)
PUBLIC 6af64 0 geode::impl::ResultData<void*, std::__ndk1::basic_string<char, std::__ndk1::char_traits<char>, std::__ndk1::allocator<char> > >::unwrapErr() &
PUBLIC 6afdc 0 geode::impl::ResultData<void*, std::__ndk1::basic_string<char, std::__ndk1::char_traits<char>, std::__ndk1::allocator<char> > >::~ResultData()
PUBLIC 6b050 0 tulip::hook::WrapperMetadata::~WrapperMetadata()
PUBLIC 6b0b4 0 cocos2d::CCObject::~CCObject()
PUBLIC 6b0d8 0 cocos2d::CCNode::CCNode()
PUBLIC 6b334 0 cocos2d::CCNode::~CCNode()
PUBLIC 6b358 0 cocos2d::CCNodeRGBA::CCNodeRGBA()
PUBLIC 6b5c4 0 cocos2d::CCNodeRGBA::~CCNodeRGBA()
PUBLIC 6b5e8 0 {virtual override thunk({offset(-320)}, cocos2d::CCLayer::~CCLayer())}
PUBLIC 6b5f0 0 cocos2d::CCLayer::~CCLayer()
PUBLIC 6b614 0 {virtual override thunk({offset(-320)}, cocos2d::CCLayer::~CCLayer())}
PUBLIC 6b63c 0 cocos2d::CCLayerRGBA::~CCLayerRGBA()
PUBLIC 6b93c 0 {virtual override thunk({offset(-320)}, cocos2d::CCLayerRGBA::~CCLayerRGBA())}
PUBLIC 6b944 0 cocos2d::CCLayerRGBA::~CCLayerRGBA()
PUBLIC 6b968 0 {virtual override thunk({offset(-320)}, cocos2d::CCLayerRGBA::~CCLayerRGBA())}
PUBLIC 6b990 0 cocos2d::CCLayerColor::CCLayerColor()
PUBLIC 6bbf4 0 {virtual override thunk({offset(-320)}, cocos2d::CCLayerColor::~CCLayerColor())}
PUBLIC 6bbfc 0 cocos2d::CCLayerColor::~CCLayerColor()
PUBLIC 6bc20 0 {virtual override thunk({offset(-320)}, cocos2d::CCLayerColor::~CCLayerColor())}
PUBLIC 6bc48 0 cocos2d::CCTexture2D::~CCTexture2D()
PUBLIC 6beb8 0 cocos2d::CCTexture2D::~CCTexture2D()
PUBLIC 6bedc 0 cocos2d::CCTexture2D::CCTexture2D()
PUBLIC 6c108 0 cocos2d::CCImage::CCImage()
PUBLIC 6c32c 0 cocos2d::CCImage::~CCImage()
PUBLIC 6c594 0 cocos2d::CCImage::~CCImage()
PUBLIC 6c5b8 0 FLAlertLayer::FLAlertLayer()
PUBLIC 6c654 0 {virtual override thunk({offset(-320)}, FLAlertLayer::~FLAlertLayer())}
PUBLIC 6c65c 0 FLAlertLayer::~FLAlertLayer()
PUBLIC 6c680 0 {virtual override thunk({offset(-320)}, FLAlertLayer::~FLAlertLayer())}
PUBLIC 6c6a8 0 cocos2d::CCNodeRGBA::~CCNodeRGBA()
PUBLIC 6c960 0 ButtonSprite::create(char const*)
PUBLIC 6c988 0 CCMenuItemSpriteExtra::create(cocos2d::CCNode*, cocos2d::CCObject*, void (cocos2d::CCObject::*)(cocos2d::CCObject*))
PUBLIC 6c99c 0 LevelEditorLayer::get()
PUBLIC 6c9b4 0 cocos2d::CCObject::update(float)
PUBLIC 6c9b8 0 cocos2d::CCLayerColor::~CCLayerColor()
PUBLIC 6cc9c 0 FLAlertLayer::~FLAlertLayer()
PUBLIC 6cf80 0 cocos2d::CCNode::~CCNode()
PUBLIC 6d220 0 cocos2d::CCLayer::~CCLayer()
PUBLIC 6d510 0 cocos2d::CCObject::~CCObject()
PUBLIC 6da04 0 _ZN5geode15UnwrapExceptionC2IRPvQsr4implE18IsStringStreamableIT_EEENS_4impl5OkTagEOS4_
PUBLIC 6db58 0 std::__ndk1::__variant_detail::__visitation::__base::__dispatcher<(unsigned long)0>::__dispatch[abi:ne190000]<std::__ndk1::__variant_detail::__dtor<std::__ndk1::__variant_detail::__traits<void*, std::__ndk1::basic_string<char, std::__ndk1::char_traits<char>, std::__ndk1::allocator<char> > >, (std::__ndk1::__variant_detail::_Trait)1>::__destroy[abi:ne190000]()::{lambda(auto:1&)#1}, std::__ndk1::__variant_detail::__base<(std::__ndk1::__variant_detail::__traits<void*, std::__ndk1::basic_string<char, std::__ndk1::char_traits<char>, std::__ndk1::allocator<char> > >)1, std::__ndk1::__variant_detail::__traits, std::__ndk1::allocator<char> >&>(std::__ndk1::__variant_detail::__dtor<std::__ndk1::__variant_detail::__traits<void*, std::__ndk1::basic_string<char, std::__ndk1::char_traits<char>, std::__ndk1::allocator<char> > >, (std::__ndk1::__variant_detail::_Trait)1>, std::__ndk1::__variant_detail::__base<(std::__ndk1::__variant_detail::__traits<void*, std::__ndk1::basic_string<char, std::__ndk1::char_traits<char>, std::__ndk1::allocator<char> > >)1, std::__ndk1::__variant_detail::__traits, std::__ndk1::allocator<char> >&)
PUBLIC 6db5c 0 std::__ndk1::__variant_detail::__visitation::__base::__dispatcher<(unsigned long)1>::__dispatch[abi:ne190000]<std::__ndk1::__variant_detail::__dtor<std::__ndk1::__variant_detail::__traits<void*, std::__ndk1::basic_string<char, std::__ndk1::char_traits<char>, std::__ndk1::allocator<char> > >, (std::__ndk1::__variant_detail::_Trait)1>::__destroy[abi:ne190000]()::{lambda(auto:1&)#1}, std::__ndk1::__variant_detail::__base<(std::__ndk1::__variant_detail::__traits<void*, std::__ndk1::basic_string<char, std::__ndk1::char_traits<char>, std::__ndk1::allocator<char> > >)1, std::__ndk1::__variant_detail::__traits, std::__ndk1::allocator<char> >&>(std::__ndk1::__variant_detail::__dtor<std::__ndk1::__variant_detail::__traits<void*, std::__ndk1::basic_string<char, std::__ndk1::char_traits<char>, std::__ndk1::allocator<char> > >, (std::__ndk1::__variant_detail::_Trait)1>, std::__ndk1::__variant_detail::__base<(std::__ndk1::__variant_detail::__traits<void*, std::__ndk1::basic_string<char, std::__ndk1::char_traits<char>, std::__ndk1::allocator<char> > >)1, std::__ndk1::__variant_detail::__traits, std::__ndk1::allocator<char> >&)
PUBLIC 6db70 0 std::__ndk1::__hash_table<std::__ndk1::__hash_value_type<void*, bool>, std::__ndk1::__unordered_map_hasher<void*, std::__ndk1::__hash_value_type<void*, bool>, std::__ndk1::hash<void*>, std::__ndk1::equal_to<void*>, true>, std::__ndk1::__unordered_map_equal<void*, std::__ndk1::__hash_value_type<void*, bool>, std::__ndk1::equal_to<void*>, std::__ndk1::hash<void*>, true>, std::__ndk1::allocator<std::__ndk1::__hash_value_type<void*, bool> > >::__emplace_unique_key_args<void*, std::__ndk1::piecewise_construct_t const&, std::__ndk1::tuple<void* const&>, std::__ndk1::tuple<> >(void* const&, std::__ndk1::piecewise_construct_t const&, std::__ndk1::tuple<void* const&>, std::__ndk1::tuple<>)
PUBLIC 6e07c 0 __udivti3
PUBLIC 6e088 0 __udivmodti4
PUBLIC m 6e2d4 0 __eqtf2
PUBLIC 6e374 0 __unordtf2
PUBLIC 6e3ac 0 fmt::v11::detail::write_loc(fmt::v11::basic_appender<char>, fmt::v11::loc_value, fmt::v11::format_specs const&, fmt::v11::detail::locale_ref)
PUBLIC 6e640 0 fmt::v11::format_facet<std::__ndk1::locale>::~format_facet()
PUBLIC 6e6bc 0 fmt::v11::report_error(char const*)
PUBLIC 6e70c 0 fmt::v11::format_error::runtime_error(char const*)
PUBLIC 6e738 0 fmt::v11::format_facet<std::__ndk1::locale>::do_put(fmt::v11::basic_appender<char>, fmt::v11::loc_value, fmt::v11::format_specs const&) const
PUBLIC 6eef8 0 fmt::v11::detail::loc_writer<char>::~loc_writer()
PUBLIC 6ef5c 0 fmt::v11::vformat(fmt::v11::basic_string_view<char>, fmt::v11::basic_format_args<fmt::v11::context>)
PUBLIC 6f0a8 0 fmt::v11::detail::vformat_to<char>(fmt::v11::detail::buffer<char>&, fmt::v11::basic_string_view<char>, fmt::v11::detail::vformat_args<char>::type, fmt::v11::detail::locale_ref)
PUBLIC 6f618 0 fmt::v11::detail::is_printable(unsigned int)
PUBLIC 6f840 0 fmt::v11::detail::dragonbox::to_decimal<float>(float)
PUBLIC 6fb1c 0 fmt::v11::detail::dragonbox::to_decimal<double>(double)
PUBLIC 70058 0 fmt::v11::format_facet<std::__ndk1::locale>::~format_facet()
PUBLIC 700e4 0 fmt::v11::format_error::~format_error()
PUBLIC 70108 0 fmt::v11::detail::copy_noinline<char, char const*, fmt::v11::basic_appender<char> >(char const*, char const*, fmt::v11::basic_appender<char>)
PUBLIC 70258 0 fmt::v11::detail::default_arg_formatter<char>::operator()<bool>(bool)
PUBLIC 702c0 0 fmt::v11::detail::default_arg_formatter<char>::operator()<char>(char)
PUBLIC 70350 0 fmt::v11::detail::default_arg_formatter<char>::operator()<float>(float)
PUBLIC 7043c 0 fmt::v11::detail::default_arg_formatter<char>::operator()<double>(double)
PUBLIC 70528 0 fmt::v11::detail::default_arg_formatter<char>::operator()<char const*>(char const*)
PUBLIC 70570 0 fmt::v11::detail::default_arg_formatter<char>::operator()<void const*>(void const*)
PUBLIC 70608 0 _ZN3fmt3v116detail5writeIcNS0_14basic_appenderIcEEiTnNSt6__ndk19enable_ifIXaaaasr11is_integralIT1_EE5valuentsr3std7is_sameIS7_bEE5valuentsr3std7is_sameIS7_T_EE5valueEiE4typeELi0EEET0_SB_S7_
PUBLIC 70868 0 fmt::v11::detail::copy_noinline<char, char*, fmt::v11::basic_appender<char> >(char*, char*, fmt::v11::basic_appender<char>)
PUBLIC 709b8 0 _ZN3fmt3v116detail5writeIcNS0_14basic_appenderIcEEjTnNSt6__ndk19enable_ifIXaaaasr11is_integralIT1_EE5valuentsr3std7is_sameIS7_bEE5valuentsr3std7is_sameIS7_T_EE5valueEiE4typeELi0EEET0_SB_S7_
PUBLIC 70b98 0 _ZN3fmt3v116detail5writeIcNS0_14basic_appenderIcEExTnNSt6__ndk19enable_ifIXaaaasr11is_integralIT1_EE5valuentsr3std7is_sameIS7_bEE5valuentsr3std7is_sameIS7_T_EE5valueEiE4typeELi0EEET0_SB_S7_
PUBLIC 70e1c 0 _ZN3fmt3v116detail5writeIcNS0_14basic_appenderIcEEyTnNSt6__ndk19enable_ifIXaaaasr11is_integralIT1_EE5valuentsr3std7is_sameIS7_bEE5valuentsr3std7is_sameIS7_T_EE5valueEiE4typeELi0EEET0_SB_S7_
PUBLIC 71024 0 _ZN3fmt3v116detail5writeIcNS0_14basic_appenderIcEEnTnNSt6__ndk19enable_ifIXaaaasr11is_integralIT1_EE5valuentsr3std7is_sameIS7_bEE5valuentsr3std7is_sameIS7_T_EE5valueEiE4typeELi0EEET0_SB_S7_
PUBLIC 71384 0 _ZN3fmt3v116detail5writeIcNS0_14basic_appenderIcEEoTnNSt6__ndk19enable_ifIXaaaasr11is_integralIT1_EE5valuentsr3std7is_sameIS7_bEE5valuentsr3std7is_sameIS7_T_EE5valueEiE4typeELi0EEET0_SB_S7_
PUBLIC 71698 0 _ZN3fmt3v116detail5writeIcNS0_14basic_appenderIcEEbTnNSt6__ndk19enable_ifIXsr3std7is_sameIT1_bEE5valueEiE4typeELi0EEET0_SA_S7_RKNS0_12format_specsENS1_10locale_refE
PUBLIC 7194c 0 fmt::v11::detail::write_int_noinline<char, fmt::v11::basic_appender<char>, unsigned int>(fmt::v11::basic_appender<char>, fmt::v11::detail::write_int_arg<unsigned int>, fmt::v11::format_specs const&, fmt::v11::detail::locale_ref)
PUBLIC 72718 0 fmt::v11::detail::write_padded<char, (fmt::v11::align::type)1, fmt::v11::basic_appender<char>, fmt::v11::detail::write_char<char, fmt::v11::basic_appender<char> >(fmt::v11::basic_appender<char>, char, fmt::v11::format_specs const&)::{lambda(fmt::v11::basic_appender<char>&)#1}>(fmt::v11::basic_appender<char>, fmt::v11::format_specs const&, unsigned long, unsigned long, fmt::v11::detail::write_char<char, fmt::v11::basic_appender<char> >(fmt::v11::basic_appender<char>, char, fmt::v11::format_specs const&)::{lambda(fmt::v11::basic_appender<char>&)#1})
PUBLIC 7297c 0 fmt::v11::detail::write_padded<char, (fmt::v11::align::type)1, fmt::v11::basic_appender<char>, fmt::v11::detail::write_nonfinite<char, fmt::v11::basic_appender<char> >(fmt::v11::basic_appender<char>, bool, fmt::v11::format_specs, fmt::v11::sign::type)::{lambda(fmt::v11::basic_appender<char>&)#1}>(fmt::v11::basic_appender<char>, fmt::v11::format_specs const&, unsigned long, unsigned long, fmt::v11::detail::write_nonfinite<char, fmt::v11::basic_appender<char> >(fmt::v11::basic_appender<char>, bool, fmt::v11::format_specs, fmt::v11::sign::type)::{lambda(fmt::v11::basic_appender<char>&)#1})
PUBLIC 72bd4 0 fmt::v11::detail::do_write_float<char, fmt::v11::basic_appender<char>, fmt::v11::detail::dragonbox::decimal_fp<float>, fmt::v11::detail::digit_grouping<char> >(fmt::v11::basic_appender<char>, fmt::v11::detail::dragonbox::decimal_fp<float> const&, fmt::v11::format_specs const&, fmt::v11::detail::float_specs, fmt::v11::detail::locale_ref)
PUBLIC 73858 0 fmt::v11::detail::do_write_float<char, fmt::v11::basic_appender<char>, fmt::v11::detail::dragonbox::decimal_fp<float>, fmt::v11::detail::digit_grouping<char> >(fmt::v11::basic_appender<char>, fmt::v11::detail::dragonbox::decimal_fp<float> const&, fmt::v11::format_specs const&, fmt::v11::detail::float_specs, fmt::v11::detail::locale_ref)::{lambda(fmt::v11::basic_appender<char>(fmt::v11::basic_appender<char>))#1}::operator() const
PUBLIC 739ac 0 fmt::v11::detail::digit_grouping<char>::digit_grouping(fmt::v11::detail::locale_ref, bool)
PUBLIC 73c14 0 fmt::v11::detail::digit_grouping<char>::~digit_grouping()
PUBLIC 73c58 0 fmt::v11::detail::write_exponent<char, fmt::v11::basic_appender<char> >(int, fmt::v11::basic_appender<char>)
PUBLIC 73e28 0 _ZN3fmt3v116detail17write_significandIcjTnNSt6__ndk19enable_ifIXsr3std11is_integralIT0_EE5valueEiE4typeELi0EEEPT_S9_S5_iiS8_
PUBLIC 73fa4 0 fmt::v11::detail::digit_grouping<char>::apply<fmt::v11::basic_appender<char>, char>(fmt::v11::basic_appender<char>, fmt::v11::basic_string_view<char>) const
PUBLIC 7435c 0 fmt::v11::basic_memory_buffer<int, (unsigned long)500, std::__ndk1::allocator<int> >::grow(fmt::v11::detail::buffer<int>&, unsigned long)
PUBLIC 743fc 0 fmt::v11::detail::do_write_float<char, fmt::v11::basic_appender<char>, fmt::v11::detail::dragonbox::decimal_fp<double>, fmt::v11::detail::digit_grouping<char> >(fmt::v11::basic_appender<char>, fmt::v11::detail::dragonbox::decimal_fp<double> const&, fmt::v11::format_specs const&, fmt::v11::detail::float_specs, fmt::v11::detail::locale_ref)
PUBLIC 750b8 0 fmt::v11::detail::do_write_float<char, fmt::v11::basic_appender<char>, fmt::v11::detail::dragonbox::decimal_fp<double>, fmt::v11::detail::digit_grouping<char> >(fmt::v11::basic_appender<char>, fmt::v11::detail::dragonbox::decimal_fp<double> const&, fmt::v11::format_specs const&, fmt::v11::detail::float_specs, fmt::v11::detail::locale_ref)::{lambda(fmt::v11::basic_appender<char>(fmt::v11::basic_appender<char>))#1}::operator() const
PUBLIC 75210 0 _ZN3fmt3v116detail17write_significandIcmTnNSt6__ndk19enable_ifIXsr3std11is_integralIT0_EE5valueEiE4typeELi0EEEPT_S9_S5_iiS8_
PUBLIC 753a0 0 fmt::v11::detail::write_float<char, fmt::v11::basic_appender<char>, long double>(fmt::v11::basic_appender<char>, long double, fmt::v11::format_specs, fmt::v11::detail::locale_ref)
PUBLIC 75e80 0 fmt::v11::detail::write_padded<char, (fmt::v11::align::type)2, fmt::v11::basic_appender<char>, fmt::v11::detail::write_bytes<char, (fmt::v11::align::type)2, fmt::v11::basic_appender<char> >(fmt::v11::basic_appender<char>, fmt::v11::basic_string_view<char>, fmt::v11::format_specs const&)::{lambda(fmt::v11::basic_appender<char>&)#1}>(fmt::v11::basic_appender<char>, fmt::v11::format_specs const&, unsigned long, unsigned long, fmt::v11::detail::write_bytes<char, (fmt::v11::align::type)2, fmt::v11::basic_appender<char> >(fmt::v11::basic_appender<char>, fmt::v11::basic_string_view<char>, fmt::v11::format_specs const&)::{lambda(fmt::v11::basic_appender<char>&)#1})
PUBLIC 76074 0 fmt::v11::detail::format_dragon(fmt::v11::detail::basic_fp<unsigned __int128>, unsigned int, int, fmt::v11::detail::buffer<char>&, int&)
PUBLIC 77498 0 fmt::v11::detail::bigint::operator<<=(int)
PUBLIC 775bc 0 fmt::v11::detail::bigint::assign_pow10(int)
PUBLIC 77d18 0 fmt::v11::detail::bigint::divmod_assign(fmt::v11::detail::bigint const&)
PUBLIC 7803c 0 fmt::v11::basic_memory_buffer<unsigned int, (unsigned long)32, std::__ndk1::allocator<unsigned int> >::grow(fmt::v11::detail::buffer<unsigned int>&, unsigned long)
PUBLIC 780dc 0 fmt::v11::detail::do_write_float<char, fmt::v11::basic_appender<char>, fmt::v11::detail::big_decimal_fp, fmt::v11::detail::digit_grouping<char> >(fmt::v11::basic_appender<char>, fmt::v11::detail::big_decimal_fp const&, fmt::v11::format_specs const&, fmt::v11::detail::float_specs, fmt::v11::detail::locale_ref)
PUBLIC 78fb8 0 fmt::v11::detail::do_write_float<char, fmt::v11::basic_appender<char>, fmt::v11::detail::big_decimal_fp, fmt::v11::detail::digit_grouping<char> >(fmt::v11::basic_appender<char>, fmt::v11::detail::big_decimal_fp const&, fmt::v11::format_specs const&, fmt::v11::detail::float_specs, fmt::v11::detail::locale_ref)::{lambda(fmt::v11::basic_appender<char>(fmt::v11::basic_appender<char>))#1}::operator() const
PUBLIC 79118 0 fmt::v11::detail::write_padded<char, (fmt::v11::align::type)2, fmt::v11::basic_appender<char>, fmt::v11::detail::write_ptr<char, fmt::v11::basic_appender<char>, unsigned long>(fmt::v11::basic_appender<char>, unsigned long, fmt::v11::format_specs const*)::{lambda(fmt::v11::basic_appender<char>&)#1}>(fmt::v11::basic_appender<char>, fmt::v11::format_specs const&, unsigned long, unsigned long, fmt::v11::detail::write_ptr<char, fmt::v11::basic_appender<char>, unsigned long>(fmt::v11::basic_appender<char>, unsigned long, fmt::v11::format_specs const*)::{lambda(fmt::v11::basic_appender<char>&)#1})
PUBLIC 7932c 0 fmt::v11::detail::parse_replacement_field<char, fmt::v11::detail::vformat_to<char>(fmt::v11::detail::buffer<char>&, fmt::v11::basic_string_view<char>, fmt::v11::detail::vformat_args<char>::type, fmt::v11::detail::locale_ref)::format_handler&>(char const*, char const*, fmt::v11::detail::vformat_to<char>(fmt::v11::detail::buffer<char>&, fmt::v11::basic_string_view<char>, fmt::v11::detail::vformat_args<char>::type, fmt::v11::detail::locale_ref)::format_handler&)
PUBLIC 7ae60 0 fmt::v11::detail::write_int_noinline<char, fmt::v11::basic_appender<char>, unsigned long>(fmt::v11::basic_appender<char>, fmt::v11::detail::write_int_arg<unsigned long>, fmt::v11::format_specs const&, fmt::v11::detail::locale_ref)
PUBLIC 7bcb8 0 fmt::v11::detail::write_int_noinline<char, fmt::v11::basic_appender<char>, unsigned __int128>(fmt::v11::basic_appender<char>, fmt::v11::detail::write_int_arg<unsigned __int128>, fmt::v11::format_specs const&, fmt::v11::detail::locale_ref)
PUBLIC 7cd48 0 _ZN3fmt3v116detail15format_hexfloatIdTnNSt6__ndk19enable_ifIXntsr16is_double_doubleIT_EE5valueEiE4typeELi0EEEvS5_NS0_12format_specsERNS1_6bufferIcEE
PUBLIC 7d268 0 fmt::v11::detail::format_float<double>(double, int, fmt::v11::detail::float_specs, fmt::v11::detail::buffer<char>&)
PUBLIC 7dcb4 0 fmt::v11::detail::write_int<fmt::v11::basic_appender<char>, unsigned long, char>(fmt::v11::basic_appender<char>, unsigned long, unsigned int, fmt::v11::format_specs const&, fmt::v11::detail::digit_grouping<char> const&)
PUBLIC 7e230 0 fmt::v11::detail::write_int<fmt::v11::basic_appender<char>, unsigned __int128, char>(fmt::v11::basic_appender<char>, unsigned __int128, unsigned int, fmt::v11::format_specs const&, fmt::v11::detail::digit_grouping<char> const&)
PUBLIC 7e8b0 0 <.plt ELF section in undefined0.editormusic.android64.so>
STACK CFI INIT 35ad0 10 .cfa: sp 0 +
STACK CFI INIT 35ae0 8 .cfa: sp 0 +
STACK CFI INIT 35ae8 8 .cfa: sp 0 +
STACK CFI INIT 35af0 14 .cfa: sp 0 +
STACK CFI INIT 35b04 1c .cfa: sp 0 +
STACK CFI INIT 35b20 10 .cfa: sp 0 +
STACK CFI INIT 35b30 134 .cfa: sp 0 +
STACK CFI INIT 35c64 84 .cfa: sp 0 +
STACK CFI INIT 35ce8 f4 .cfa: sp 0 +
STACK CFI INIT 35ddc a8 .cfa: sp 0 +
STACK CFI INIT 35e84 7c .cfa: sp 0 +
STACK CFI INIT 35f00 14 .cfa: sp 0 +
STACK CFI INIT 35f14 40 .cfa: sp 0 +
STACK CFI INIT 35f54 28 .cfa: sp 0 +
STACK CFI INIT 35f7c 190 .cfa: sp 0 +
STACK CFI INIT 3610c 2c8 .cfa: sp 0 +
STACK CFI INIT 363d4 8 .cfa: sp 0 +
STACK CFI INIT 363dc 8 .cfa: sp 0 +
STACK CFI INIT 363e4 44 .cfa: sp 0 +
STACK CFI INIT 36428 e8 .cfa: sp 0 +
STACK CFI INIT 36510 e8 .cfa: sp 0 +
STACK CFI INIT 365f8 14 .cfa: sp 0 +
STACK CFI INIT 3660c 10 .cfa: sp 0 +
STACK CFI INIT 3661c 10 .cfa: sp 0 +
STACK CFI INIT 3662c f0 .cfa: sp 0 +
STACK CFI INIT 3671c 44 .cfa: sp 0 +
STACK CFI INIT 36760 c .cfa: sp 0 +
STACK CFI INIT 3676c c .cfa: sp 0 +
STACK CFI INIT 36778 2c .cfa: sp 0 +
STACK CFI INIT 367a4 23c .cfa: sp 0 +
STACK CFI INIT 369e0 c .cfa: sp 0 +
STACK CFI INIT 369ec 120 .cfa: sp 0 +
STACK CFI INIT 36b0c 494 .cfa: sp 0 +
STACK CFI INIT 36fa0 b78 .cfa: sp 0 +
STACK CFI INIT 37b18 134 .cfa: sp 0 +
STACK CFI INIT 37c4c 210 .cfa: sp 0 +
STACK CFI INIT 37e5c 38c .cfa: sp 0 +
STACK CFI INIT 381e8 1c8 .cfa: sp 0 +
STACK CFI INIT 383b0 9c4 .cfa: sp 0 +
STACK CFI INIT 38d74 2d4 .cfa: sp 0 +
STACK CFI INIT 39048 130 .cfa: sp 0 +
STACK CFI INIT 39178 120 .cfa: sp 0 +
STACK CFI INIT 39298 1c8 .cfa: sp 0 +
STACK CFI INIT 39460 168 .cfa: sp 0 +
STACK CFI INIT 395c8 fc .cfa: sp 0 +
STACK CFI INIT 396c4 30 .cfa: sp 0 +
STACK CFI INIT 39820 30 .cfa: sp 0 +
STACK CFI INIT 39850 98 .cfa: sp 0 +
STACK CFI INIT 398e8 2ac .cfa: sp 0 +
STACK CFI INIT 39b94 8c .cfa: sp 0 +
STACK CFI INIT 39c20 30 .cfa: sp 0 +
STACK CFI INIT 39da4 a8 .cfa: sp 0 +
STACK CFI 39da8 .cfa: sp 48 +
STACK CFI 39db4 .cfa: x29 48 + x19: .cfa -8 + ^ x20: .cfa -16 + ^ x21: .cfa -24 + ^ x22: .cfa -32 + ^ .ra: .cfa -40 + ^ x29: .cfa -48 + ^
STACK CFI 39e3c .cfa: sp 48 +
STACK CFI 39e48 .cfa: sp 0 +
STACK CFI INIT 39ff0 a8 .cfa: sp 0 +
STACK CFI 39ff4 .cfa: sp 48 +
STACK CFI 3a000 .cfa: x29 48 + x19: .cfa -8 + ^ x20: .cfa -16 + ^ x21: .cfa -24 + ^ x22: .cfa -32 + ^ .ra: .cfa -40 + ^ x29: .cfa -48 + ^
STACK CFI 3a020 .cfa: sp 48 +
STACK CFI 3a02c .cfa: sp 0 +
STACK CFI 3a030 .cfa: x29 48 +
STACK CFI 3a078 .cfa: sp 48 +
STACK CFI 3a084 .cfa: sp 0 +
STACK CFI 3a088 .cfa: sp 48 +
STACK CFI 3a094 .cfa: sp 0 +
STACK CFI INIT 3a098 1bc .cfa: sp 0 +
STACK CFI 3a09c .cfa: sp 80 +
STACK CFI 3a0b0 .cfa: x29 80 + x19: .cfa -8 + ^ x20: .cfa -16 + ^ x21: .cfa -24 + ^ x22: .cfa -32 + ^ x23: .cfa -40 + ^ x24: .cfa -48 + ^ x25: .cfa -64 + ^ .ra: .cfa -72 + ^ x29: .cfa -80 + ^
STACK CFI 3a224 .cfa: sp 80 +
STACK CFI 3a238 .cfa: sp 0 +
STACK CFI 3a23c .cfa: sp 80 +
STACK CFI 3a250 .cfa: sp 0 +
STACK CFI INIT 3a254 38 .cfa: sp 0 +
STACK CFI 3a258 .cfa: sp 32 +
STACK CFI 3a260 .cfa: x29 32 + x19: .cfa -16 + ^ .ra: .cfa -24 + ^ x29: .cfa -32 + ^
STACK CFI 3a280 .cfa: sp 32 +
STACK CFI 3a288 .cfa: sp 0 +
STACK CFI INIT 3c0d8 50 .cfa: sp 0 +
STACK CFI 3c0dc .cfa: sp 32 +
STACK CFI 3c0e4 .cfa: x29 32 + x19: .cfa -16 + ^ .ra: .cfa -24 + ^ x29: .cfa -32 + ^
STACK CFI 3c0fc .cfa: sp 32 +
STACK CFI 3c104 .cfa: sp 0 +
STACK CFI 3c108 .cfa: x29 32 +
STACK CFI 3c11c .cfa: sp 32 +
STACK CFI 3c124 .cfa: sp 0 +
STACK CFI INIT 3e52c 50 .cfa: sp 0 +
STACK CFI 3e530 .cfa: sp 32 +
STACK CFI 3e538 .cfa: x29 32 + x19: .cfa -16 + ^ .ra: .cfa -24 + ^ x29: .cfa -32 + ^
STACK CFI 3e550 .cfa: sp 32 +
STACK CFI 3e558 .cfa: sp 0 +
STACK CFI 3e55c .cfa: x29 32 +
STACK CFI 3e570 .cfa: sp 32 +
STACK CFI 3e578 .cfa: sp 0 +
STACK CFI INIT 3e57c 2c .cfa: sp 0 +
STACK CFI INIT 3e704 44 .cfa: sp 0 +
STACK CFI 3e708 .cfa: sp 32 +
STACK CFI 3e710 .cfa: x29 32 + x19: .cfa -16 + ^ .ra: .cfa -24 + ^ x29: .cfa -32 + ^
STACK CFI 3e72c .cfa: sp 32 +
STACK CFI 3e734 .cfa: sp 0 +
STACK CFI 3e738 .cfa: x29 32 +
STACK CFI 3e73c .cfa: sp 32 +
STACK CFI 3e744 .cfa: sp 0 +
STACK CFI INIT 3f7cc 3c .cfa: sp 0 +
STACK CFI INIT 3f808 60 .cfa: sp 0 +
STACK CFI 3f83c .cfa: sp 16 +
STACK CFI 3f840 .cfa: x29 16 + .ra: .cfa -8 + ^ x29: .cfa -16 + ^
STACK CFI 3f84c .cfa: sp 16 +
STACK CFI 3f850 .cfa: sp 0 +
STACK CFI INIT 40720 a8 .cfa: sp 0 +
STACK CFI 40724 .cfa: sp 48 +
STACK CFI 40730 .cfa: x29 32 + x19: .cfa -8 + ^ x20: .cfa -16 + ^ .ra: .cfa -24 + ^ x29: .cfa -32 + ^
STACK CFI 407b4 .cfa: sp 48 +
STACK CFI 407c0 .cfa: sp 0 +
STACK CFI 407c4 .cfa: x29 32 +
STACK CFI INIT 407c8 54 .cfa: sp 0 +
STACK CFI 407cc .cfa: sp 48 +
STACK CFI 407d8 .cfa: x29 32 + x19: .cfa -16 + ^ .ra: .cfa -24 + ^ x29: .cfa -32 + ^
STACK CFI 40808 .cfa: sp 48 +
STACK CFI 40814 .cfa: sp 0 +
STACK CFI 40818 .cfa: x29 32 +
STACK CFI INIT 4081c 144 .cfa: sp 0 +
STACK CFI 40820 .cfa: sp 80 +
STACK CFI 40834 .cfa: x29 64 + x19: .cfa -8 + ^ x20: .cfa -16 + ^ x21: .cfa -24 + ^ x22: .cfa -32 + ^ x23: .cfa -48 + ^ .ra: .cfa -56 + ^ x29: .cfa -64 + ^
STACK CFI 40944 .cfa: sp 80 +
STACK CFI 40958 .cfa: sp 0 +
STACK CFI 4095c .cfa: x29 64 +
STACK CFI INIT 40960 ac .cfa: sp 0 +
STACK CFI 40964 .cfa: sp 32 +
STACK CFI 4096c .cfa: x29 32 + x19: .cfa -8 + ^ x20: .cfa -16 + ^ .ra: .cfa -24 + ^ x29: .cfa -32 + ^
STACK CFI 409b8 .cfa: sp 32 +
STACK CFI 409c0 .cfa: sp 0 +
STACK CFI 409c4 .cfa: x29 32 +
STACK CFI 409d8 .cfa: sp 32 +
STACK CFI 409e0 .cfa: sp 0 +
STACK CFI 409e4 .cfa: x29 32 +
STACK CFI 40a00 .cfa: sp 32 +
STACK CFI 40a08 .cfa: sp 0 +
STACK CFI INIT 40a0c 10 .cfa: sp 0 +
STACK CFI INIT 41548 2ac .cfa: sp 0 +
STACK CFI 4155c .cfa: sp 64 +
STACK CFI 4156c .cfa: x29 64 + x19: .cfa -8 + ^ x20: .cfa -16 + ^ x21: .cfa -24 + ^ x22: .cfa -32 + ^ x23: .cfa -40 + ^ x24: .cfa -48 + ^ .ra: .cfa -56 + ^ x29: .cfa -64 + ^
STACK CFI 417e0 .cfa: sp 64 +
STACK CFI 417f0 .cfa: sp 0 +
STACK CFI INIT 41920 308 .cfa: sp 0 +
STACK CFI 41924 .cfa: sp 144 +
STACK CFI 41940 .cfa: x29 80 + x19: .cfa -8 + ^ x20: .cfa -16 + ^ x21: .cfa -24 + ^ x22: .cfa -32 + ^ x23: .cfa -40 + ^ x24: .cfa -48 + ^ x25: .cfa -64 + ^ .ra: .cfa -72 + ^ x29: .cfa -80 + ^ v8: .cfa -88 + ^ v9: .cfa -96 + ^
STACK CFI 41bd8 .cfa: sp 144 +
STACK CFI 41bf4 .cfa: sp 0 +
STACK CFI 41bf8 .cfa: x29 80 +
STACK CFI INIT 41c28 b0 .cfa: sp 0 +
STACK CFI 41c2c .cfa: sp 64 +
STACK CFI 41c3c .cfa: x29 48 + x19: .cfa -8 + ^ x20: .cfa -16 + ^ x21: .cfa -32 + ^ .ra: .cfa -40 + ^ x29: .cfa -48 + ^
STACK CFI 41cc0 .cfa: sp 64 +
STACK CFI 41cd0 .cfa: sp 0 +
STACK CFI 41cd4 .cfa: x29 48 +
STACK CFI INIT 41eb4 14 .cfa: sp 0 +
STACK CFI 41eb8 .cfa: sp 16 +
STACK CFI 41ebc .cfa: x29 16 + .ra: .cfa -8 + ^ x29: .cfa -16 + ^
STACK CFI INIT 41f18 30 .cfa: sp 0 +
STACK CFI 41f1c .cfa: sp 32 +
STACK CFI 41f24 .cfa: x29 32 + x19: .cfa -16 + ^ .ra: .cfa -24 + ^ x29: .cfa -32 + ^
STACK CFI 41f3c .cfa: sp 32 +
STACK CFI 41f44 .cfa: sp 0 +
STACK CFI INIT 41f48 34 .cfa: sp 0 +
STACK CFI 41f4c .cfa: sp 32 +
STACK CFI 41f54 .cfa: x29 32 + x19: .cfa -16 + ^ .ra: .cfa -24 + ^ x29: .cfa -32 + ^
STACK CFI INIT 41f7c 10 .cfa: sp 0 +
STACK CFI 41f80 .cfa: sp 16 +
STACK CFI 41f84 .cfa: x29 16 + .ra: .cfa -8 + ^ x29: .cfa -16 + ^
STACK CFI INIT 41f8c 14 .cfa: sp 0 +
STACK CFI 41f90 .cfa: sp 16 +
STACK CFI 41f94 .cfa: x29 16 + .ra: .cfa -8 + ^ x29: .cfa -16 + ^
STACK CFI INIT 41fa0 14 .cfa: sp 0 +
STACK CFI 41fa4 .cfa: sp 16 +
STACK CFI 41fa8 .cfa: x29 16 + .ra: .cfa -8 + ^ x29: .cfa -16 + ^
STACK CFI INIT 41fb4 94 .cfa: sp 0 +
STACK CFI 41fb8 .cfa: sp 48 +
STACK CFI 41fc4 .cfa: x29 48 + x19: .cfa -8 + ^ x20: .cfa -16 + ^ x21: .cfa -24 + ^ x22: .cfa -32 + ^ .ra: .cfa -40 + ^ x29: .cfa -48 + ^
STACK CFI 41fdc .cfa: sp 48 +
STACK CFI 41fe8 .cfa: sp 0 +
STACK CFI 41fec .cfa: x29 48 +
STACK CFI 42030 .cfa: sp 48 +
STACK CFI 4203c .cfa: sp 0 +
STACK CFI 42040 .cfa: x29 48 +
STACK CFI INIT 42048 14 .cfa: sp 0 +
STACK CFI 4204c .cfa: sp 16 +
STACK CFI 42050 .cfa: x29 16 + .ra: .cfa -8 + ^ x29: .cfa -16 + ^
STACK CFI INIT 4205c 30 .cfa: sp 0 +
STACK CFI INIT 42a58 188 .cfa: sp 0 +
STACK CFI 42a5c .cfa: sp 80 +
STACK CFI 42a70 .cfa: x29 80 + x19: .cfa -8 + ^ x20: .cfa -16 + ^ x21: .cfa -24 + ^ x22: .cfa -32 + ^ x23: .cfa -40 + ^ x24: .cfa -48 + ^ x25: .cfa -64 + ^ .ra: .cfa -72 + ^ x29: .cfa -80 + ^
STACK CFI 42bc4 .cfa: sp 80 +
STACK CFI 42bd8 .cfa: sp 0 +
STACK CFI 42bdc .cfa: x29 80 +
STACK CFI INIT 42be0 18c .cfa: sp 0 +
STACK CFI 42be4 .cfa: sp 64 +
STACK CFI 42bf4 .cfa: x29 64 + x19: .cfa -8 + ^ x20: .cfa -16 + ^ x21: .cfa -24 + ^ x22: .cfa -32 + ^ x23: .cfa -40 + ^ x24: .cfa -48 + ^ .ra: .cfa -56 + ^ x29: .cfa -64 + ^
STACK CFI 42d54 .cfa: sp 64 +
STACK CFI 42d64 .cfa: sp 0 +
STACK CFI 42d68 .cfa: x29 64 +
STACK CFI INIT 42e38 50 .cfa: sp 0 +
STACK CFI 42e3c .cfa: sp 32 +
STACK CFI 42e44 .cfa: x29 32 + x19: .cfa -8 + ^ x20: .cfa -16 + ^ .ra: .cfa -24 + ^ x29: .cfa -32 + ^
STACK CFI 42e70 .cfa: sp 32 +
STACK CFI 42e78 .cfa: sp 0 +
STACK CFI 42e7c .cfa: sp 32 +
STACK CFI 42e84 .cfa: sp 0 +
STACK CFI INIT 42e88 3c .cfa: sp 0 +
STACK CFI 42e8c .cfa: sp 32 +
STACK CFI 42e94 .cfa: x29 32 + x19: .cfa -16 + ^ .ra: .cfa -24 + ^ x29: .cfa -32 + ^
STACK CFI 42eac .cfa: sp 32 +
STACK CFI 42eb4 .cfa: sp 0 +
STACK CFI 42eb8 .cfa: sp 32 +
STACK CFI 42ec0 .cfa: sp 0 +
STACK CFI INIT 42ec4 50 .cfa: sp 0 +
STACK CFI 42ec8 .cfa: sp 32 +
STACK CFI 42ed0 .cfa: x29 32 + x19: .cfa -16 + ^ .ra: .cfa -24 + ^ x29: .cfa -32 + ^
STACK CFI 42ee8 .cfa: sp 32 +
STACK CFI 42ef0 .cfa: sp 0 +
STACK CFI 42ef4 .cfa: x29 32 +
STACK CFI 42f08 .cfa: sp 32 +
STACK CFI 42f10 .cfa: sp 0 +
STACK CFI INIT 42f14 104 .cfa: sp 0 +
STACK CFI 42f18 .cfa: sp 64 +
STACK CFI 42f28 .cfa: x29 64 + x19: .cfa -8 + ^ x20: .cfa -16 + ^ x21: .cfa -24 + ^ x22: .cfa -32 + ^ x23: .cfa -48 + ^ .ra: .cfa -56 + ^ x29: .cfa -64 + ^
STACK CFI 42f84 .cfa: sp 64 +
STACK CFI 42f94 .cfa: sp 0 +
STACK CFI 42f98 .cfa: x29 64 +
STACK CFI 42fb4 .cfa: sp 64 +
STACK CFI 42fc4 .cfa: sp 0 +
STACK CFI 42fc8 .cfa: x29 64 +
STACK CFI 43004 .cfa: sp 64 +
STACK CFI 43014 .cfa: sp 0 +
STACK CFI INIT 43018 4 .cfa: sp 0 +
STACK CFI INIT 4301c 4 .cfa: sp 0 +
STACK CFI INIT 43020 34 .cfa: sp 0 +
STACK CFI 43024 .cfa: sp 32 +
STACK CFI 4302c .cfa: x29 32 + x19: .cfa -16 + ^ .ra: .cfa -24 + ^ x29: .cfa -32 + ^
STACK CFI 43048 .cfa: sp 32 +
STACK CFI 43050 .cfa: sp 0 +
STACK CFI INIT 43054 14 .cfa: sp 0 +
STACK CFI INIT 43068 4 .cfa: sp 0 +
STACK CFI INIT 4306c 4 .cfa: sp 0 +
STACK CFI INIT 43070 28 .cfa: sp 0 +
STACK CFI 43074 .cfa: sp 32 +
STACK CFI 4307c .cfa: x29 32 + x19: .cfa -16 + ^ .ra: .cfa -24 + ^ x29: .cfa -32 + ^
STACK CFI 4308c .cfa: sp 32 +
STACK CFI 43094 .cfa: sp 0 +
STACK CFI INIT 43098 1c .cfa: sp 0 +
STACK CFI INIT 430b4 c .cfa: sp 0 +
STACK CFI INIT 430c0 24 .cfa: sp 0 +
STACK CFI 430c4 .cfa: sp 32 +
STACK CFI 430cc .cfa: x29 32 + x19: .cfa -16 + ^ .ra: .cfa -24 + ^ x29: .cfa -32 + ^
STACK CFI 430d8 .cfa: sp 32 +
STACK CFI 430e0 .cfa: sp 0 +
STACK CFI INIT 430e4 10 .cfa: sp 0 +
STACK CFI INIT 430f4 30 .cfa: sp 0 +
STACK CFI 430f8 .cfa: sp 32 +
STACK CFI 43100 .cfa: x29 32 + x19: .cfa -16 + ^ .ra: .cfa -24 + ^ x29: .cfa -32 + ^
STACK CFI 43118 .cfa: sp 32 +
STACK CFI 43120 .cfa: sp 0 +
STACK CFI INIT 43124 8 .cfa: sp 0 +
STACK CFI INIT 4312c 4 .cfa: sp 0 +
STACK CFI INIT 43130 5c .cfa: sp 0 +
STACK CFI 43134 .cfa: sp 32 +
STACK CFI 4313c .cfa: x29 32 + x19: .cfa -16 + ^ .ra: .cfa -24 + ^ x29: .cfa -32 + ^
STACK CFI 43160 .cfa: sp 32 +
STACK CFI 43168 .cfa: sp 0 +
STACK CFI 4316c .cfa: x29 32 +
STACK CFI 43180 .cfa: sp 32 +
STACK CFI 43188 .cfa: sp 0 +
STACK CFI INIT 4318c 6c .cfa: sp 0 +
STACK CFI 43190 .cfa: sp 32 +
STACK CFI 43198 .cfa: x29 32 + x19: .cfa -8 + ^ x20: .cfa -16 + ^ .ra: .cfa -24 + ^ x29: .cfa -32 + ^
STACK CFI 431c4 .cfa: sp 32 +
STACK CFI 431cc .cfa: sp 0 +
STACK CFI 431d0 .cfa: x29 32 +
STACK CFI 431ec .cfa: sp 32 +
STACK CFI 431f4 .cfa: sp 0 +
STACK CFI INIT 431f8 58 .cfa: sp 0 +
STACK CFI 431fc .cfa: sp 32 +
STACK CFI 43204 .cfa: x29 32 + x19: .cfa -16 + ^ .ra: .cfa -24 + ^ x29: .cfa -32 + ^
STACK CFI 43244 .cfa: sp 32 +
STACK CFI 4324c .cfa: sp 0 +
STACK CFI INIT 43250 3c .cfa: sp 0 +
STACK CFI 43274 .cfa: sp 16 +
STACK CFI 43278 .cfa: x29 16 + .ra: .cfa -8 + ^ x29: .cfa -16 + ^
STACK CFI 43284 .cfa: sp 16 +
STACK CFI 43288 .cfa: sp 0 +
STACK CFI INIT 4328c 50 .cfa: sp 0 +
STACK CFI 43290 .cfa: sp 32 +
STACK CFI 43298 .cfa: x29 32 + x19: .cfa -16 + ^ .ra: .cfa -24 + ^ x29: .cfa -32 + ^
STACK CFI 432b0 .cfa: sp 32 +
STACK CFI 432b8 .cfa: sp 0 +
STACK CFI 432bc .cfa: x29 32 +
STACK CFI 432d0 .cfa: sp 32 +
STACK CFI 432d8 .cfa: sp 0 +
STACK CFI INIT 432dc 60 .cfa: sp 0 +
STACK CFI 432e0 .cfa: sp 32 +
STACK CFI 432e8 .cfa: x29 32 + x19: .cfa -8 + ^ x20: .cfa -16 + ^ .ra: .cfa -24 + ^ x29: .cfa -32 + ^
STACK CFI 43308 .cfa: sp 32 +
STACK CFI 43310 .cfa: sp 0 +
STACK CFI 43314 .cfa: x29 32 +
STACK CFI 43330 .cfa: sp 32 +
STACK CFI 43338 .cfa: sp 0 +
STACK CFI INIT 433f8 1c .cfa: sp 0 +
STACK CFI INIT 43414 c .cfa: sp 0 +
STACK CFI INIT 442d0 1a4 .cfa: sp 0 +
STACK CFI 442d4 .cfa: sp 64 +
STACK CFI 442e0 .cfa: x29 32 + x19: .cfa -8 + ^ x20: .cfa -16 + ^ .ra: .cfa -24 + ^ x29: .cfa -32 + ^
STACK CFI 4440c .cfa: sp 64 +
STACK CFI 44418 .cfa: sp 0 +
STACK CFI 4441c .cfa: x29 32 +
STACK CFI INIT 44474 198 .cfa: sp 0 +
STACK CFI 44478 .cfa: sp 16 +
STACK CFI 4447c .cfa: x29 16 + .ra: .cfa -8 + ^ x29: .cfa -16 + ^
STACK CFI 44518 .cfa: sp 16 +
STACK CFI 4451c .cfa: sp 0 +
STACK CFI 44520 .cfa: x29 16 +
STACK CFI 445ec .cfa: sp 16 +
STACK CFI 445f0 .cfa: sp 0 +
STACK CFI 445f4 .cfa: x29 16 +
STACK CFI INIT 4460c 114 .cfa: sp 0 +
STACK CFI 44610 .cfa: sp 128 +
STACK CFI 44620 .cfa: x29 48 + x19: .cfa -8 + ^ x20: .cfa -16 + ^ x21: .cfa -32 + ^ .ra: .cfa -40 + ^ x29: .cfa -48 + ^
STACK CFI 446ec .cfa: sp 128 +
STACK CFI 446fc .cfa: sp 0 +
STACK CFI 44700 .cfa: x29 48 +
STACK CFI INIT 44720 27c .cfa: sp 0 +
STACK CFI 44724 .cfa: sp 176 +
STACK CFI 44740 .cfa: x29 96 + x19: .cfa -8 + ^ x20: .cfa -16 + ^ x21: .cfa -24 + ^ x22: .cfa -32 + ^ x23: .cfa -40 + ^ x24: .cfa -48 + ^ x25: .cfa -56 + ^ x26: .cfa -64 + ^ x27: .cfa -72 + ^ x28: .cfa -80 + ^ .ra: .cfa -88 + ^ x29: .cfa -96 + ^
STACK CFI 44978 .cfa: sp 176 +
STACK CFI 44994 .cfa: sp 0 +
STACK CFI 44998 .cfa: x29 96 +
STACK CFI INIT 4499c 94 .cfa: sp 0 +
STACK CFI 449a0 .cfa: sp 16 +
STACK CFI 449a4 .cfa: x29 16 + .ra: .cfa -8 + ^ x29: .cfa -16 + ^
STACK CFI 449f8 .cfa: sp 16 +
STACK CFI 449fc .cfa: sp 0 +
STACK CFI 44a00 .cfa: x29 16 +
STACK CFI INIT 44a30 134 .cfa: sp 0 +
STACK CFI 44a34 .cfa: sp 96 +
STACK CFI 44a4c .cfa: x29 96 + x19: .cfa -8 + ^ x20: .cfa -16 + ^ x21: .cfa -24 + ^ x22: .cfa -32 + ^ x23: .cfa -40 + ^ x24: .cfa -48 + ^ x25: .cfa -56 + ^ x26: .cfa -64 + ^ x27: .cfa -72 + ^ x28: .cfa -80 + ^ .ra: .cfa -88 + ^ x29: .cfa -96 + ^
STACK CFI 44b1c .cfa: sp 96 +
STACK CFI 44b20 .cfa: x29 96 +
STACK CFI 44b24 .cfa: sp 96 +
STACK CFI 44b3c .cfa: sp 0 +
STACK CFI 44b40 .cfa: x29 96 +
STACK CFI 44b60 .cfa: sp 96 +
STACK CFI INIT 44b64 4e4 .cfa: sp 0 +
STACK CFI 44b68 .cfa: sp 160 +
STACK CFI 44b84 .cfa: x29 96 + x19: .cfa -8 + ^ x20: .cfa -16 + ^ x21: .cfa -24 + ^ x22: .cfa -32 + ^ x23: .cfa -40 + ^ x24: .cfa -48 + ^ x25: .cfa -56 + ^ x26: .cfa -64 + ^ x27: .cfa -72 + ^ x28: .cfa -80 + ^ .ra: .cfa -88 + ^ x29: .cfa -96 + ^
STACK CFI 45024 .cfa: sp 160 +
STACK CFI 45040 .cfa: sp 0 +
STACK CFI 45044 .cfa: x29 96 +
STACK CFI INIT 45048 20c .cfa: sp 0 +
STACK CFI 4504c .cfa: sp 80 +
STACK CFI 45060 .cfa: x29 80 + x19: .cfa -8 + ^ x20: .cfa -16 + ^ x21: .cfa -24 + ^ x22: .cfa -32 + ^ x23: .cfa -40 + ^ x24: .cfa -48 + ^ x25: .cfa -64 + ^ .ra: .cfa -72 + ^ x29: .cfa -80 + ^
STACK CFI 450f0 .cfa: sp 80 +
STACK CFI 45104 .cfa: sp 0 +
STACK CFI 45108 .cfa: x29 80 +
STACK CFI 45114 .cfa: sp 80 +
STACK CFI 45128 .cfa: sp 0 +
STACK CFI 4512c .cfa: x29 80 +
STACK CFI INIT 45254 3f4 .cfa: sp 0 +
STACK CFI 45258 .cfa: sp 128 +
STACK CFI 45274 .cfa: x29 96 + x19: .cfa -8 + ^ x20: .cfa -16 + ^ x21: .cfa -24 + ^ x22: .cfa -32 + ^ x23: .cfa -40 + ^ x24: .cfa -48 + ^ x25: .cfa -56 + ^ x26: .cfa -64 + ^ x27: .cfa -72 + ^ x28: .cfa -80 + ^ .ra: .cfa -88 + ^ x29: .cfa -96 + ^
STACK CFI 45624 .cfa: sp 128 +
STACK CFI 45640 .cfa: sp 0 +
STACK CFI 45644 .cfa: x29 96 +
STACK CFI INIT 45648 194 .cfa: sp 0 +
STACK CFI 4564c .cfa: sp 32 +
STACK CFI 45654 .cfa: x29 16 + .ra: .cfa -8 + ^ x29: .cfa -16 + ^
STACK CFI 45698 .cfa: sp 32 +
STACK CFI 456a0 .cfa: sp 0 +
STACK CFI 456a4 .cfa: x29 16 +
STACK CFI INIT 457dc 1b8 .cfa: sp 0 +
STACK CFI INIT 45994 1d0 .cfa: sp 0 +
STACK CFI 45998 .cfa: sp 80 +
STACK CFI 459ac .cfa: x29 80 + x19: .cfa -8 + ^ x20: .cfa -16 + ^ x21: .cfa -24 + ^ x22: .cfa -32 + ^ x23: .cfa -40 + ^ x24: .cfa -48 + ^ x25: .cfa -64 + ^ .ra: .cfa -72 + ^ x29: .cfa -80 + ^
STACK CFI 45b4c .cfa: sp 80 +
STACK CFI 45b60 .cfa: sp 0 +
STACK CFI INIT 45b64 648 .cfa: sp 0 +
STACK CFI 45b68 .cfa: sp 160 +
STACK CFI 45b84 .cfa: x29 96 + x19: .cfa -8 + ^ x20: .cfa -16 + ^ x21: .cfa -24 + ^ x22: .cfa -32 + ^ x23: .cfa -40 + ^ x24: .cfa -48 + ^ x25: .cfa -56 + ^ x26: .cfa -64 + ^ x27: .cfa -72 + ^ x28: .cfa -80 + ^ .ra: .cfa -88 + ^ x29: .cfa -96 + ^
STACK CFI 46188 .cfa: sp 160 +
STACK CFI 461a4 .cfa: sp 0 +
STACK CFI 461a8 .cfa: x29 96 +
STACK CFI INIT 461ac 1e4 .cfa: sp 0 +
STACK CFI 461b0 .cfa: sp 32 +
STACK CFI 461b8 .cfa: x29 32 + x19: .cfa -8 + ^ x20: .cfa -16 + ^ .ra: .cfa -24 + ^ x29: .cfa -32 + ^
STACK CFI 462a8 .cfa: sp 32 +
STACK CFI 462b0 .cfa: sp 0 +
STACK CFI 462b4 .cfa: x29 32 +
STACK CFI 46328 .cfa: sp 32 +
STACK CFI 46330 .cfa: sp 0 +
STACK CFI 46334 .cfa: x29 32 +
STACK CFI 46344 .cfa: sp 32 +
STACK CFI 4634c .cfa: sp 0 +
STACK CFI 46350 .cfa: x29 32 +
STACK CFI 46360 .cfa: sp 32 +
STACK CFI 46368 .cfa: sp 0 +
STACK CFI 4636c .cfa: x29 32 +
STACK CFI INIT 46390 178 .cfa: sp 0 +
STACK CFI 46394 .cfa: sp 80 +
STACK CFI 463a8 .cfa: x29 64 + x19: .cfa -8 + ^ x20: .cfa -16 + ^ x21: .cfa -24 + ^ x22: .cfa -32 + ^ x23: .cfa -40 + ^ x24: .cfa -48 + ^ .ra: .cfa -56 + ^ x29: .cfa -64 + ^
STACK CFI 464ec .cfa: sp 80 +
STACK CFI 46500 .cfa: sp 0 +
STACK CFI 46504 .cfa: x29 64 +
STACK CFI INIT 46508 178 .cfa: sp 0 +
STACK CFI 4650c .cfa: sp 80 +
STACK CFI 46520 .cfa: x29 64 + x19: .cfa -8 + ^ x20: .cfa -16 + ^ x21: .cfa -24 + ^ x22: .cfa -32 + ^ x23: .cfa -40 + ^ x24: .cfa -48 + ^ .ra: .cfa -56 + ^ x29: .cfa -64 + ^
STACK CFI 46664 .cfa: sp 80 +
STACK CFI 46678 .cfa: sp 0 +
STACK CFI 4667c .cfa: x29 64 +
STACK CFI INIT 46680 178 .cfa: sp 0 +
STACK CFI 46684 .cfa: sp 80 +
STACK CFI 46698 .cfa: x29 64 + x19: .cfa -8 + ^ x20: .cfa -16 + ^ x21: .cfa -24 + ^ x22: .cfa -32 + ^ x23: .cfa -40 + ^ x24: .cfa -48 + ^ .ra: .cfa -56 + ^ x29: .cfa -64 + ^
STACK CFI 467dc .cfa: sp 80 +
STACK CFI 467f0 .cfa: sp 0 +
STACK CFI 467f4 .cfa: x29 64 +
STACK CFI INIT 467f8 78 .cfa: sp 0 +
STACK CFI 467fc .cfa: sp 48 +
STACK CFI 46808 .cfa: x29 48 + x19: .cfa -8 + ^ x20: .cfa -16 + ^ x21: .cfa -24 + ^ x22: .cfa -32 + ^ .ra: .cfa -40 + ^ x29: .cfa -48 + ^
STACK CFI 46850 .cfa: sp 48 +
STACK CFI 4685c .cfa: sp 0 +
STACK CFI 46860 .cfa: sp 48 +
STACK CFI 4686c .cfa: sp 0 +
STACK CFI INIT 46870 178 .cfa: sp 0 +
STACK CFI 46874 .cfa: sp 80 +
STACK CFI 46888 .cfa: x29 64 + x19: .cfa -8 + ^ x20: .cfa -16 + ^ x21: .cfa -24 + ^ x22: .cfa -32 + ^ x23: .cfa -40 + ^ x24: .cfa -48 + ^ .ra: .cfa -56 + ^ x29: .cfa -64 + ^
STACK CFI 469cc .cfa: sp 80 +
STACK CFI 469e0 .cfa: sp 0 +
STACK CFI 469e4 .cfa: x29 64 +
STACK CFI INIT 469e8 5c .cfa: sp 0 +
STACK CFI 469ec .cfa: sp 32 +
STACK CFI 469f4 .cfa: x29 32 + x19: .cfa -16 + ^ .ra: .cfa -24 + ^ x29: .cfa -32 + ^
STACK CFI 46a2c .cfa: sp 32 +
STACK CFI 46a34 .cfa: sp 0 +
STACK CFI 46a38 .cfa: sp 32 +
STACK CFI 46a40 .cfa: sp 0 +
STACK CFI INIT 46a44 1a8 .cfa: sp 0 +
STACK CFI INIT 46bec 70 .cfa: sp 0 +
STACK CFI 46bf4 .cfa: sp 32 +
STACK CFI 46bfc .cfa: x29 32 + x19: .cfa -16 + ^ .ra: .cfa -24 + ^ x29: .cfa -32 + ^
STACK CFI 46c24 .cfa: sp 32 +
STACK CFI 46c2c .cfa: sp 0 +
STACK CFI 46c34 .cfa: x29 32 +
STACK CFI 46c50 .cfa: sp 32 +
STACK CFI 46c58 .cfa: sp 0 +
STACK CFI INIT 46c5c 168 .cfa: sp 0 +
STACK CFI 46c60 .cfa: sp 80 +
STACK CFI 46c74 .cfa: x29 80 + x19: .cfa -8 + ^ x20: .cfa -16 + ^ x21: .cfa -24 + ^ x22: .cfa -32 + ^ x23: .cfa -40 + ^ x24: .cfa -48 + ^ x25: .cfa -56 + ^ x26: .cfa -64 + ^ .ra: .cfa -72 + ^ x29: .cfa -80 + ^
STACK CFI 46dac .cfa: sp 80 +
STACK CFI 46dc0 .cfa: sp 0 +
STACK CFI INIT 46dc4 5c .cfa: sp 0 +
STACK CFI 46dc8 .cfa: sp 32 +
STACK CFI 46dd0 .cfa: x29 32 + x19: .cfa -16 + ^ .ra: .cfa -24 + ^ x29: .cfa -32 + ^
STACK CFI 46df4 .cfa: sp 32 +
STACK CFI 46dfc .cfa: sp 0 +
STACK CFI 46e00 .cfa: x29 32 +
STACK CFI 46e14 .cfa: sp 32 +
STACK CFI 46e1c .cfa: sp 0 +
STACK CFI INIT 46e20 6c .cfa: sp 0 +
STACK CFI 46e24 .cfa: sp 32 +
STACK CFI 46e2c .cfa: x29 32 + x19: .cfa -8 + ^ x20: .cfa -16 + ^ .ra: .cfa -24 + ^ x29: .cfa -32 + ^
STACK CFI 46e58 .cfa: sp 32 +
STACK CFI 46e60 .cfa: sp 0 +
STACK CFI 46e64 .cfa: x29 32 +
STACK CFI 46e80 .cfa: sp 32 +
STACK CFI 46e88 .cfa: sp 0 +
STACK CFI INIT 46e8c 58 .cfa: sp 0 +
STACK CFI 46e90 .cfa: sp 32 +
STACK CFI 46e98 .cfa: x29 32 + x19: .cfa -8 + ^ x20: .cfa -16 + ^ .ra: .cfa -24 + ^ x29: .cfa -32 + ^
STACK CFI 46ed8 .cfa: sp 32 +
STACK CFI 46ee0 .cfa: sp 0 +
STACK CFI INIT 46ee4 4c .cfa: sp 0 +
STACK CFI 46ee8 .cfa: sp 32 +
STACK CFI 46ef0 .cfa: x29 32 + x19: .cfa -8 + ^ x20: .cfa -16 + ^ .ra: .cfa -24 + ^ x29: .cfa -32 + ^
STACK CFI 46f24 .cfa: sp 32 +
STACK CFI 46f2c .cfa: sp 0 +
STACK CFI INIT 46f30 50 .cfa: sp 0 +
STACK CFI 46f34 .cfa: sp 32 +
STACK CFI 46f3c .cfa: x29 32 + x19: .cfa -16 + ^ .ra: .cfa -24 + ^ x29: .cfa -32 + ^
STACK CFI 46f54 .cfa: sp 32 +
STACK CFI 46f5c .cfa: sp 0 +
STACK CFI 46f60 .cfa: x29 32 +
STACK CFI 46f74 .cfa: sp 32 +
STACK CFI 46f7c .cfa: sp 0 +
STACK CFI INIT 46f80 60 .cfa: sp 0 +
STACK CFI 46f84 .cfa: sp 32 +
STACK CFI 46f8c .cfa: x29 32 + x19: .cfa -8 + ^ x20: .cfa -16 + ^ .ra: .cfa -24 + ^ x29: .cfa -32 + ^
STACK CFI 46fac .cfa: sp 32 +
STACK CFI 46fb4 .cfa: sp 0 +
STACK CFI 46fb8 .cfa: x29 32 +
STACK CFI 46fd4 .cfa: sp 32 +
STACK CFI 46fdc .cfa: sp 0 +
STACK CFI INIT 471bc 1c .cfa: sp 0 +
STACK CFI INIT 471d8 c .cfa: sp 0 +
STACK CFI INIT 477bc 18c .cfa: sp 0 +
STACK CFI 477c0 .cfa: sp 64 +
STACK CFI 477d0 .cfa: x29 64 + x19: .cfa -8 + ^ x20: .cfa -16 + ^ x21: .cfa -24 + ^ x22: .cfa -32 + ^ x23: .cfa -40 + ^ x24: .cfa -48 + ^ .ra: .cfa -56 + ^ x29: .cfa -64 + ^
STACK CFI 47930 .cfa: sp 64 +
STACK CFI 47940 .cfa: sp 0 +
STACK CFI 47944 .cfa: x29 64 +
STACK CFI INIT 47b44 34 .cfa: sp 0 +
STACK CFI 47b48 .cfa: sp 16 +
STACK CFI 47b4c .cfa: x29 16 + .ra: .cfa -8 + ^ x29: .cfa -16 + ^
STACK CFI INIT 47b78 4 .cfa: sp 0 +
STACK CFI INIT 47b7c 14 .cfa: sp 0 +
STACK CFI INIT 47b90 4 .cfa: sp 0 +
STACK CFI INIT 47b94 14 .cfa: sp 0 +
STACK CFI INIT 47cfc 34 .cfa: sp 0 +
STACK CFI 47d08 .cfa: sp 32 +
STACK CFI 47d10 .cfa: x29 32 + x19: .cfa -16 + ^ .ra: .cfa -24 + ^ x29: .cfa -32 + ^
STACK CFI 47d24 .cfa: sp 32 +
STACK CFI 47d2c .cfa: sp 0 +
STACK CFI INIT 47d30 38 .cfa: sp 0 +
STACK CFI 47d34 .cfa: sp 32 +
STACK CFI 47d3c .cfa: x29 32 + x19: .cfa -16 + ^ .ra: .cfa -24 + ^ x29: .cfa -32 + ^
STACK CFI 47d5c .cfa: sp 32 +
STACK CFI 47d64 .cfa: sp 0 +
STACK CFI INIT 47d68 8c .cfa: sp 0 +
STACK CFI 47d6c .cfa: sp 32 +
STACK CFI 47d74 .cfa: x29 32 + x19: .cfa -16 + ^ .ra: .cfa -24 + ^ x29: .cfa -32 + ^
STACK CFI 47de8 .cfa: sp 32 +
STACK CFI 47df0 .cfa: sp 0 +
STACK CFI INIT 48200 140 .cfa: sp 0 +
STACK CFI 48204 .cfa: sp 80 +
STACK CFI 48210 .cfa: x29 32 + x19: .cfa -16 + ^ .ra: .cfa -24 + ^ x29: .cfa -32 + ^
STACK CFI 48298 .cfa: sp 80 +
STACK CFI 482a4 .cfa: sp 0 +
STACK CFI 482a8 .cfa: x29 32 +
STACK CFI 48304 .cfa: sp 80 +
STACK CFI 48310 .cfa: sp 0 +
STACK CFI 48314 .cfa: x29 32 +
STACK CFI 4832c .cfa: sp 80 +
STACK CFI 48338 .cfa: sp 0 +
STACK CFI 4833c .cfa: x29 32 +
STACK CFI INIT 4840c 50 .cfa: sp 0 +
STACK CFI 48410 .cfa: sp 32 +
STACK CFI 48418 .cfa: x29 32 + x19: .cfa -8 + ^ x20: .cfa -16 + ^ .ra: .cfa -24 + ^ x29: .cfa -32 + ^
STACK CFI 48444 .cfa: sp 32 +
STACK CFI 4844c .cfa: sp 0 +
STACK CFI 48450 .cfa: sp 32 +
STACK CFI 48458 .cfa: sp 0 +
STACK CFI INIT 4845c 18 .cfa: sp 0 +
STACK CFI INIT 48474 c4 .cfa: sp 0 +
STACK CFI INIT 48538 8 .cfa: sp 0 +
STACK CFI INIT 489b0 1c .cfa: sp 0 +
STACK CFI INIT 48d38 50 .cfa: sp 0 +
STACK CFI 48d3c .cfa: sp 32 +
STACK CFI 48d44 .cfa: x29 32 + x19: .cfa -16 + ^ .ra: .cfa -24 + ^ x29: .cfa -32 + ^
STACK CFI 48d5c .cfa: sp 32 +
STACK CFI 48d64 .cfa: sp 0 +
STACK CFI 48d68 .cfa: x29 32 +
STACK CFI 48d7c .cfa: sp 32 +
STACK CFI 48d84 .cfa: sp 0 +
STACK CFI INIT 48dfc 7c .cfa: sp 0 +
STACK CFI 48e00 .cfa: sp 48 +
STACK CFI 48e0c .cfa: x29 48 + x19: .cfa -8 + ^ x20: .cfa -16 + ^ x21: .cfa -32 + ^ .ra: .cfa -40 + ^ x29: .cfa -48 + ^
STACK CFI 48e58 .cfa: sp 48 +
STACK CFI 48e64 .cfa: sp 0 +
STACK CFI 48e68 .cfa: sp 48 +
STACK CFI 48e74 .cfa: sp 0 +
STACK CFI INIT 48e78 4 .cfa: sp 0 +
STACK CFI INIT 49104 80 .cfa: sp 0 +
STACK CFI 49108 .cfa: sp 48 +
STACK CFI 49114 .cfa: x29 48 + x19: .cfa -8 + ^ x20: .cfa -16 + ^ x21: .cfa -32 + ^ .ra: .cfa -40 + ^ x29: .cfa -48 + ^
STACK CFI 49174 .cfa: sp 48 +
STACK CFI 49180 .cfa: sp 0 +
STACK CFI INIT 49184 24 .cfa: sp 0 +
STACK CFI 49188 .cfa: sp 32 +
STACK CFI 49190 .cfa: x29 32 + x19: .cfa -16 + ^ .ra: .cfa -24 + ^ x29: .cfa -32 + ^
STACK CFI 4919c .cfa: sp 32 +
STACK CFI 491a4 .cfa: sp 0 +
STACK CFI INIT 496a8 148 .cfa: sp 0 +
STACK CFI 496ac .cfa: sp 48 +
STACK CFI 496b8 .cfa: x29 48 + x19: .cfa -8 + ^ x20: .cfa -16 + ^ x21: .cfa -32 + ^ .ra: .cfa -40 + ^ x29: .cfa -48 + ^
STACK CFI 497e0 .cfa: sp 48 +
STACK CFI 497ec .cfa: sp 0 +
STACK CFI INIT 497f0 88 .cfa: sp 0 +
STACK CFI 497f8 .cfa: sp 48 +
STACK CFI 49804 .cfa: x29 48 + x19: .cfa -8 + ^ x20: .cfa -16 + ^ x21: .cfa -24 + ^ x22: .cfa -32 + ^ .ra: .cfa -40 + ^ x29: .cfa -48 + ^
STACK CFI 49868 .cfa: sp 48 +
STACK CFI 49874 .cfa: sp 0 +
STACK CFI INIT 49a28 68 .cfa: sp 0 +
STACK CFI 49a2c .cfa: sp 32 +
STACK CFI 49a34 .cfa: x29 32 + x19: .cfa -8 + ^ x20: .cfa -16 + ^ .ra: .cfa -24 + ^ x29: .cfa -32 + ^
STACK CFI 49a4c .cfa: sp 32 +
STACK CFI 49a54 .cfa: sp 0 +
STACK CFI 49a58 .cfa: x29 32 +
STACK CFI 49a84 .cfa: sp 32 +
STACK CFI 49a8c .cfa: sp 0 +
STACK CFI INIT 49a90 14 .cfa: sp 0 +
STACK CFI 49a94 .cfa: sp 16 +
STACK CFI 49a98 .cfa: x29 16 + .ra: .cfa -8 + ^ x29: .cfa -16 + ^
STACK CFI INIT 49aa4 4 .cfa: sp 0 +
STACK CFI INIT 49aa8 14 .cfa: sp 0 +
STACK CFI INIT 49abc 128 .cfa: sp 0 +
STACK CFI 49ac0 .cfa: sp 64 +
STACK CFI 49ad0 .cfa: x29 64 + x19: .cfa -8 + ^ x20: .cfa -16 + ^ x21: .cfa -24 + ^ x22: .cfa -32 + ^ x23: .cfa -40 + ^ x24: .cfa -48 + ^ .ra: .cfa -56 + ^ x29: .cfa -64 + ^
STACK CFI 49bd0 .cfa: sp 64 +
STACK CFI 49be0 .cfa: sp 0 +
STACK CFI INIT 49be4 d4 .cfa: sp 0 +
STACK CFI 49be8 .cfa: sp 48 +
STACK CFI 49bf4 .cfa: x29 48 + x19: .cfa -8 + ^ x20: .cfa -16 + ^ x21: .cfa -32 + ^ .ra: .cfa -40 + ^ x29: .cfa -48 + ^
STACK CFI 49c84 .cfa: sp 48 +
STACK CFI 49c90 .cfa: sp 0 +
STACK CFI 49c94 .cfa: x29 48 +
STACK CFI INIT 49cb8 3c8 .cfa: sp 0 +
STACK CFI INIT 4a080 8c .cfa: sp 0 +
STACK CFI 4a088 .cfa: sp 32 +
STACK CFI 4a090 .cfa: x29 32 + x19: .cfa -8 + ^ x20: .cfa -16 + ^ .ra: .cfa -24 + ^ x29: .cfa -32 + ^
STACK CFI 4a0d8 .cfa: sp 32 +
STACK CFI 4a0e0 .cfa: sp 0 +
STACK CFI 4a0e8 .cfa: x29 32 +
STACK CFI INIT 4a10c 28 .cfa: sp 0 +
STACK CFI 4a110 .cfa: sp 32 +
STACK CFI 4a118 .cfa: x29 16 + .ra: .cfa -8 + ^ x29: .cfa -16 + ^ v8: .cfa -32 + ^
STACK CFI 4a128 .cfa: sp 32 +
STACK CFI 4a130 .cfa: sp 0 +
STACK CFI INIT 4a20c 50 .cfa: sp 0 +
STACK CFI 4a210 .cfa: sp 32 +
STACK CFI 4a218 .cfa: x29 32 + x19: .cfa -16 + ^ .ra: .cfa -24 + ^ x29: .cfa -32 + ^
STACK CFI 4a230 .cfa: sp 32 +
STACK CFI 4a238 .cfa: sp 0 +
STACK CFI 4a23c .cfa: x29 32 +
STACK CFI 4a250 .cfa: sp 32 +
STACK CFI 4a258 .cfa: sp 0 +
STACK CFI INIT 4a25c 64 .cfa: sp 0 +
STACK CFI 4a260 .cfa: sp 32 +
STACK CFI 4a268 .cfa: x29 32 + x19: .cfa -16 + ^ .ra: .cfa -24 + ^ x29: .cfa -32 + ^
STACK CFI 4a294 .cfa: sp 32 +
STACK CFI 4a29c .cfa: sp 0 +
STACK CFI 4a2a0 .cfa: x29 32 +
STACK CFI 4a2b4 .cfa: sp 32 +
STACK CFI 4a2bc .cfa: sp 0 +
STACK CFI INIT 4a2c0 178 .cfa: sp 0 +
STACK CFI 4a2c4 .cfa: sp 80 +
STACK CFI 4a2d8 .cfa: x29 80 + x19: .cfa -8 + ^ x20: .cfa -16 + ^ x21: .cfa -24 + ^ x22: .cfa -32 + ^ x23: .cfa -40 + ^ x24: .cfa -48 + ^ x25: .cfa -56 + ^ x26: .cfa -64 + ^ .ra: .cfa -72 + ^ x29: .cfa -80 + ^
STACK CFI 4a420 .cfa: sp 80 +
STACK CFI 4a434 .cfa: sp 0 +
STACK CFI INIT 4ae30 1c .cfa: sp 0 +
STACK CFI INIT 4b794 4 .cfa: sp 0 +
STACK CFI INIT 4b8a8 7c .cfa: sp 0 +
STACK CFI 4b8ac .cfa: sp 32 +
STACK CFI 4b8b4 .cfa: x29 32 + x19: .cfa -8 + ^ x20: .cfa -16 + ^ .ra: .cfa -24 + ^ x29: .cfa -32 + ^
STACK CFI 4b90c .cfa: sp 32 +
STACK CFI 4b914 .cfa: sp 0 +
STACK CFI 4b918 .cfa: sp 32 +
STACK CFI 4b920 .cfa: sp 0 +
STACK CFI INIT 4ba8c 4 .cfa: sp 0 +
STACK CFI INIT 4ba90 4 .cfa: sp 0 +
STACK CFI INIT 4ba94 38 .cfa: sp 0 +
STACK CFI 4ba98 .cfa: sp 32 +
STACK CFI 4baa0 .cfa: x29 32 + x19: .cfa -16 + ^ .ra: .cfa -24 + ^ x29: .cfa -32 + ^
STACK CFI 4bac0 .cfa: sp 32 +
STACK CFI 4bac8 .cfa: sp 0 +
STACK CFI INIT 4bacc 18 .cfa: sp 0 +
STACK CFI INIT 4bae4 4 .cfa: sp 0 +
STACK CFI INIT 4bae8 4 .cfa: sp 0 +
STACK CFI INIT 4baec 8 .cfa: sp 0 +
STACK CFI INIT 4baf4 1c .cfa: sp 0 +
STACK CFI INIT 4bb10 c .cfa: sp 0 +
STACK CFI INIT 4bb1c 4 .cfa: sp 0 +
STACK CFI INIT 4bc94 5c .cfa: sp 0 +
STACK CFI 4bc98 .cfa: sp 32 +
STACK CFI 4bca0 .cfa: x29 32 + x19: .cfa -16 + ^ .ra: .cfa -24 + ^ x29: .cfa -32 + ^
STACK CFI 4bce4 .cfa: sp 32 +
STACK CFI 4bcec .cfa: sp 0 +
STACK CFI INIT 4bcf0 64 .cfa: sp 0 +
STACK CFI 4bcf4 .cfa: sp 32 +
STACK CFI 4bcfc .cfa: x29 32 + x19: .cfa -16 + ^ .ra: .cfa -24 + ^ x29: .cfa -32 + ^
STACK CFI 4bd48 .cfa: sp 32 +
STACK CFI 4bd50 .cfa: sp 0 +
STACK CFI INIT 4bd54 4 .cfa: sp 0 +
STACK CFI INIT 4bd58 14 .cfa: sp 0 +
STACK CFI INIT 4c0c8 d0 .cfa: sp 0 +
STACK CFI 4c0cc .cfa: sp 80 +
STACK CFI 4c0dc .cfa: x29 48 + x19: .cfa -8 + ^ x20: .cfa -16 + ^ x21: .cfa -24 + ^ x22: .cfa -32 + ^ .ra: .cfa -40 + ^ x29: .cfa -48 + ^
STACK CFI 4c15c .cfa: sp 80 +
STACK CFI 4c16c .cfa: sp 0 +
STACK CFI 4c170 .cfa: x29 48 +
STACK CFI INIT 4c198 d0 .cfa: sp 0 +
STACK CFI 4c19c .cfa: sp 80 +
STACK CFI 4c1ac .cfa: x29 48 + x19: .cfa -8 + ^ x20: .cfa -16 + ^ x21: .cfa -24 + ^ x22: .cfa -32 + ^ .ra: .cfa -40 + ^ x29: .cfa -48 + ^
STACK CFI 4c22c .cfa: sp 80 +
STACK CFI 4c23c .cfa: sp 0 +
STACK CFI 4c240 .cfa: x29 48 +
STACK CFI INIT 4c268 d0 .cfa: sp 0 +
STACK CFI 4c26c .cfa: sp 80 +
STACK CFI 4c27c .cfa: x29 48 + x19: .cfa -8 + ^ x20: .cfa -16 + ^ x21: .cfa -24 + ^ x22: .cfa -32 + ^ .ra: .cfa -40 + ^ x29: .cfa -48 + ^
STACK CFI 4c2fc .cfa: sp 80 +
STACK CFI 4c30c .cfa: sp 0 +
STACK CFI 4c310 .cfa: x29 48 +
STACK CFI INIT 4cd90 98 .cfa: sp 0 +
STACK CFI 4cd94 .cfa: sp 304 +
STACK CFI 4cda0 .cfa: x29 32 + x19: .cfa -8 + ^ x28: .cfa -16 + ^ .ra: .cfa -24 + ^ x29: .cfa -32 + ^
STACK CFI 4ce14 .cfa: sp 304 +
STACK CFI 4ce20 .cfa: sp 0 +
STACK CFI 4ce24 .cfa: x29 32 +
STACK CFI INIT 4d298 1c .cfa: sp 0 +
STACK CFI INIT 4d2b4 50 .cfa: sp 0 +
STACK CFI 4d2b8 .cfa: sp 32 +
STACK CFI 4d2c0 .cfa: x29 32 + x19: .cfa -16 + ^ .ra: .cfa -24 + ^ x29: .cfa -32 + ^
STACK CFI 4d2d8 .cfa: sp 32 +
STACK CFI 4d2e0 .cfa: sp 0 +
STACK CFI 4d2e4 .cfa: x29 32 +
STACK CFI 4d2f8 .cfa: sp 32 +
STACK CFI 4d300 .cfa: sp 0 +
STACK CFI INIT 4d304 14 .cfa: sp 0 +
STACK CFI 4d308 .cfa: sp 16 +
STACK CFI 4d30c .cfa: x29 16 + .ra: .cfa -8 + ^ x29: .cfa -16 + ^
STACK CFI INIT 4d318 14 .cfa: sp 0 +
STACK CFI 4d31c .cfa: sp 16 +
STACK CFI 4d320 .cfa: x29 16 + .ra: .cfa -8 + ^ x29: .cfa -16 + ^
STACK CFI INIT 4d32c c .cfa: sp 0 +
STACK CFI 4d330 .cfa: sp 16 +
STACK CFI 4d334 .cfa: x29 16 + .ra: .cfa -8 + ^ x29: .cfa -16 + ^
STACK CFI INIT 4d388 30 .cfa: sp 0 +
STACK CFI 4d38c .cfa: sp 32 +
STACK CFI 4d394 .cfa: x29 32 + x19: .cfa -16 + ^ .ra: .cfa -24 + ^ x29: .cfa -32 + ^
STACK CFI 4d3ac .cfa: sp 32 +
STACK CFI 4d3b4 .cfa: sp 0 +
STACK CFI INIT 4d3b8 c .cfa: sp 0 +
STACK CFI 4d3bc .cfa: sp 16 +
STACK CFI 4d3c0 .cfa: x29 16 + .ra: .cfa -8 + ^ x29: .cfa -16 + ^
STACK CFI INIT 4d3c4 4 .cfa: sp 0 +
STACK CFI INIT 4d3c8 4 .cfa: sp 0 +
STACK CFI INIT 4d3cc 38 .cfa: sp 0 +
STACK CFI 4d3d0 .cfa: sp 32 +
STACK CFI 4d3d8 .cfa: x29 32 + x19: .cfa -16 + ^ .ra: .cfa -24 + ^ x29: .cfa -32 + ^
STACK CFI 4d3f8 .cfa: sp 32 +
STACK CFI 4d400 .cfa: sp 0 +
STACK CFI INIT 4d404 18 .cfa: sp 0 +
STACK CFI INIT 4d41c 4 .cfa: sp 0 +
STACK CFI INIT 4d420 4 .cfa: sp 0 +
STACK CFI INIT 4d424 10 .cfa: sp 0 +
STACK CFI INIT 4d434 1c .cfa: sp 0 +
STACK CFI INIT 4d450 c .cfa: sp 0 +
STACK CFI INIT 4dac0 4 .cfa: sp 0 +
STACK CFI INIT 4e2a0 4 .cfa: sp 0 +
STACK CFI INIT 4e418 6c .cfa: sp 0 +
STACK CFI 4e41c .cfa: sp 32 +
STACK CFI 4e424 .cfa: x29 32 + x19: .cfa -16 + ^ .ra: .cfa -24 + ^ x29: .cfa -32 + ^
STACK CFI 4e478 .cfa: sp 32 +
STACK CFI 4e480 .cfa: sp 0 +
STACK CFI INIT 4e484 74 .cfa: sp 0 +
STACK CFI 4e488 .cfa: sp 32 +
STACK CFI 4e490 .cfa: x29 32 + x19: .cfa -16 + ^ .ra: .cfa -24 + ^ x29: .cfa -32 + ^
STACK CFI 4e4ec .cfa: sp 32 +
STACK CFI 4e4f4 .cfa: sp 0 +
STACK CFI INIT 4e4f8 4 .cfa: sp 0 +
STACK CFI INIT 4e4fc 24 .cfa: sp 0 +
STACK CFI 4e500 .cfa: sp 16 +
STACK CFI 4e504 .cfa: x29 16 + .ra: .cfa -8 + ^ x29: .cfa -16 + ^
STACK CFI 4e518 .cfa: sp 16 +
STACK CFI 4e51c .cfa: sp 0 +
STACK CFI INIT 4e520 10 .cfa: sp 0 +
STACK CFI INIT 4e530 4 .cfa: sp 0 +
STACK CFI INIT 4e534 4 .cfa: sp 0 +
STACK CFI INIT 4e538 c0 .cfa: sp 0 +
STACK CFI 4e53c .cfa: sp 64 +
STACK CFI 4e548 .cfa: x29 32 + x19: .cfa -8 + ^ x20: .cfa -16 + ^ .ra: .cfa -24 + ^ x29: .cfa -32 + ^
STACK CFI 4e5c0 .cfa: sp 64 +
STACK CFI 4e5cc .cfa: sp 0 +
STACK CFI 4e5d0 .cfa: x29 32 +
STACK CFI INIT 4e5f8 1c .cfa: sp 0 +
STACK CFI INIT 4e614 c .cfa: sp 0 +
STACK CFI INIT 4e620 4 .cfa: sp 0 +
STACK CFI INIT 4e624 24 .cfa: sp 0 +
STACK CFI 4e628 .cfa: sp 16 +
STACK CFI 4e62c .cfa: x29 16 + .ra: .cfa -8 + ^ x29: .cfa -16 + ^
STACK CFI 4e640 .cfa: sp 16 +
STACK CFI 4e644 .cfa: sp 0 +
STACK CFI INIT 4e648 10 .cfa: sp 0 +
STACK CFI INIT 4e658 4 .cfa: sp 0 +
STACK CFI INIT 4e65c 4 .cfa: sp 0 +
STACK CFI INIT 4e660 c0 .cfa: sp 0 +
STACK CFI 4e664 .cfa: sp 64 +
STACK CFI 4e670 .cfa: x29 32 + x19: .cfa -8 + ^ x20: .cfa -16 + ^ .ra: .cfa -24 + ^ x29: .cfa -32 + ^
STACK CFI 4e6e8 .cfa: sp 64 +
STACK CFI 4e6f4 .cfa: sp 0 +
STACK CFI 4e6f8 .cfa: x29 32 +
STACK CFI INIT 4e720 1c .cfa: sp 0 +
STACK CFI INIT 4e73c c .cfa: sp 0 +
STACK CFI INIT 4e748 4 .cfa: sp 0 +
STACK CFI INIT 4e74c 4 .cfa: sp 0 +
STACK CFI INIT 4e750 24 .cfa: sp 0 +
STACK CFI 4e754 .cfa: sp 16 +
STACK CFI 4e758 .cfa: x29 16 + .ra: .cfa -8 + ^ x29: .cfa -16 + ^
STACK CFI 4e76c .cfa: sp 16 +
STACK CFI 4e770 .cfa: sp 0 +
STACK CFI INIT 4e774 10 .cfa: sp 0 +
STACK CFI INIT 4e784 4 .cfa: sp 0 +
STACK CFI INIT 4e788 4 .cfa: sp 0 +
STACK CFI INIT 4e78c c0 .cfa: sp 0 +
STACK CFI 4e790 .cfa: sp 64 +
STACK CFI 4e79c .cfa: x29 32 + x19: .cfa -8 + ^ x20: .cfa -16 + ^ .ra: .cfa -24 + ^ x29: .cfa -32 + ^
STACK CFI 4e814 .cfa: sp 64 +
STACK CFI 4e820 .cfa: sp 0 +
STACK CFI 4e824 .cfa: x29 32 +
STACK CFI INIT 4e84c 1c .cfa: sp 0 +
STACK CFI INIT 4e868 c .cfa: sp 0 +
STACK CFI INIT 4ece4 1c .cfa: sp 0 +
STACK CFI INIT 4f050 4 .cfa: sp 0 +
STACK CFI INIT 4f154 4 .cfa: sp 0 +
STACK CFI INIT 4f158 24 .cfa: sp 0 +
STACK CFI 4f15c .cfa: sp 16 +
STACK CFI 4f160 .cfa: x29 16 + .ra: .cfa -8 + ^ x29: .cfa -16 + ^
STACK CFI 4f174 .cfa: sp 16 +
STACK CFI 4f178 .cfa: sp 0 +
STACK CFI INIT 4f17c 10 .cfa: sp 0 +
STACK CFI INIT 4f18c 4 .cfa: sp 0 +
STACK CFI INIT 4f190 4 .cfa: sp 0 +
STACK CFI INIT 4f26c 1c .cfa: sp 0 +
STACK CFI INIT 4f288 c .cfa: sp 0 +
STACK CFI INIT 4f294 4 .cfa: sp 0 +
STACK CFI INIT 4f298 24 .cfa: sp 0 +
STACK CFI 4f29c .cfa: sp 16 +
STACK CFI 4f2a0 .cfa: x29 16 + .ra: .cfa -8 + ^ x29: .cfa -16 + ^
STACK CFI 4f2b4 .cfa: sp 16 +
STACK CFI 4f2b8 .cfa: sp 0 +
STACK CFI INIT 4f2bc 10 .cfa: sp 0 +
STACK CFI INIT 4f2cc 4 .cfa: sp 0 +
STACK CFI INIT 4f2d0 4 .cfa: sp 0 +
STACK CFI INIT 4f2d4 14 .cfa: sp 0 +
STACK CFI 4f2d8 .cfa: sp 16 +
STACK CFI 4f2dc .cfa: x29 16 + .ra: .cfa -8 + ^ x29: .cfa -16 + ^
STACK CFI 4f2e0 .cfa: sp 16 +
STACK CFI 4f2e4 .cfa: sp 0 +
STACK CFI INIT 4f2e8 1c .cfa: sp 0 +
STACK CFI INIT 4f304 c .cfa: sp 0 +
STACK CFI INIT 4ff50 4 .cfa: sp 0 +
STACK CFI INIT 4ff54 34 .cfa: sp 0 +
STACK CFI 4ff58 .cfa: sp 32 +
STACK CFI 4ff60 .cfa: x29 32 + x19: .cfa -16 + ^ .ra: .cfa -24 + ^ x29: .cfa -32 + ^
STACK CFI 4ff7c .cfa: sp 32 +
STACK CFI 4ff84 .cfa: sp 0 +
STACK CFI INIT 4ff88 14 .cfa: sp 0 +
STACK CFI INIT 4ff9c 4 .cfa: sp 0 +
STACK CFI INIT 4ffa0 4 .cfa: sp 0 +
STACK CFI INIT 4ffa4 10 .cfa: sp 0 +
STACK CFI INIT 4ffb4 1c .cfa: sp 0 +
STACK CFI INIT 4ffd0 c .cfa: sp 0 +
STACK CFI INIT 50878 50 .cfa: sp 0 +
STACK CFI 5087c .cfa: sp 32 +
STACK CFI 50884 .cfa: x29 32 + x19: .cfa -16 + ^ .ra: .cfa -24 + ^ x29: .cfa -32 + ^
STACK CFI 5089c .cfa: sp 32 +
STACK CFI 508a4 .cfa: sp 0 +
STACK CFI 508a8 .cfa: x29 32 +
STACK CFI 508bc .cfa: sp 32 +
STACK CFI 508c4 .cfa: sp 0 +
STACK CFI INIT 508c8 4 .cfa: sp 0 +
STACK CFI INIT 508cc 38 .cfa: sp 0 +
STACK CFI 508d0 .cfa: sp 32 +
STACK CFI 508d8 .cfa: x29 32 + x19: .cfa -16 + ^ .ra: .cfa -24 + ^ x29: .cfa -32 + ^
STACK CFI 508f8 .cfa: sp 32 +
STACK CFI 50900 .cfa: sp 0 +
STACK CFI INIT 50904 18 .cfa: sp 0 +
STACK CFI INIT 5091c 4 .cfa: sp 0 +
STACK CFI INIT 50920 4 .cfa: sp 0 +
STACK CFI INIT 50b34 1c .cfa: sp 0 +
STACK CFI INIT 50b50 c .cfa: sp 0 +
STACK CFI INIT 50b5c 50 .cfa: sp 0 +
STACK CFI 50b60 .cfa: sp 32 +
STACK CFI 50b68 .cfa: x29 32 + x19: .cfa -16 + ^ .ra: .cfa -24 + ^ x29: .cfa -32 + ^
STACK CFI 50b80 .cfa: sp 32 +
STACK CFI 50b88 .cfa: sp 0 +
STACK CFI 50b8c .cfa: x29 32 +
STACK CFI 50ba0 .cfa: sp 32 +
STACK CFI 50ba8 .cfa: sp 0 +
STACK CFI INIT 50bac 50 .cfa: sp 0 +
STACK CFI 50bb0 .cfa: sp 32 +
STACK CFI 50bb8 .cfa: x29 32 + x19: .cfa -16 + ^ .ra: .cfa -24 + ^ x29: .cfa -32 + ^
STACK CFI 50bd0 .cfa: sp 32 +
STACK CFI 50bd8 .cfa: sp 0 +
STACK CFI 50bdc .cfa: x29 32 +
STACK CFI 50bf0 .cfa: sp 32 +
STACK CFI 50bf8 .cfa: sp 0 +
STACK CFI INIT 50f1c 19c .cfa: sp 0 +
STACK CFI 50f20 .cfa: sp 96 +
STACK CFI 50f38 .cfa: x29 96 + x19: .cfa -8 + ^ x20: .cfa -16 + ^ x21: .cfa -24 + ^ x22: .cfa -32 + ^ x23: .cfa -40 + ^ x24: .cfa -48 + ^ x25: .cfa -56 + ^ x26: .cfa -64 + ^ x27: .cfa -80 + ^ .ra: .cfa -88 + ^ x29: .cfa -96 + ^
STACK CFI 5109c .cfa: sp 96 +
STACK CFI 510b4 .cfa: sp 0 +
STACK CFI INIT 510b8 c8 .cfa: sp 0 +
STACK CFI 510bc .cfa: sp 64 +
STACK CFI 510cc .cfa: x29 64 + x19: .cfa -8 + ^ x20: .cfa -16 + ^ x21: .cfa -24 + ^ x22: .cfa -32 + ^ x23: .cfa -48 + ^ .ra: .cfa -56 + ^ x29: .cfa -64 + ^
STACK CFI 510d4 .cfa: sp 64 +
STACK CFI 510e4 .cfa: sp 0 +
STACK CFI 510e8 .cfa: x29 64 +
STACK CFI 5110c .cfa: sp 64 +
STACK CFI 5111c .cfa: sp 0 +
STACK CFI 51120 .cfa: x29 64 +
STACK CFI 5116c .cfa: sp 64 +
STACK CFI 5117c .cfa: sp 0 +
STACK CFI INIT 51180 4 .cfa: sp 0 +
STACK CFI INIT 512f8 9c .cfa: sp 0 +
STACK CFI 512fc .cfa: sp 32 +
STACK CFI 51304 .cfa: x29 32 + x19: .cfa -8 + ^ x20: .cfa -16 + ^ .ra: .cfa -24 + ^ x29: .cfa -32 + ^
STACK CFI 51388 .cfa: sp 32 +
STACK CFI 51390 .cfa: sp 0 +
STACK CFI INIT 51394 a4 .cfa: sp 0 +
STACK CFI 51398 .cfa: sp 32 +
STACK CFI 513a0 .cfa: x29 32 + x19: .cfa -8 + ^ x20: .cfa -16 + ^ .ra: .cfa -24 + ^ x29: .cfa -32 + ^
STACK CFI 5142c .cfa: sp 32 +
STACK CFI 51434 .cfa: sp 0 +
STACK CFI INIT 51438 4 .cfa: sp 0 +
STACK CFI INIT 5143c 38 .cfa: sp 0 +
STACK CFI 51440 .cfa: sp 32 +
STACK CFI 51448 .cfa: x29 32 + x19: .cfa -16 + ^ .ra: .cfa -24 + ^ x29: .cfa -32 + ^
STACK CFI 51468 .cfa: sp 32 +
STACK CFI 51470 .cfa: sp 0 +
STACK CFI INIT 51474 18 .cfa: sp 0 +
STACK CFI INIT 5148c 4 .cfa: sp 0 +
STACK CFI INIT 51490 4 .cfa: sp 0 +
STACK CFI INIT 51630 1c .cfa: sp 0 +
STACK CFI INIT 5164c c .cfa: sp 0 +
STACK CFI INIT 51658 50 .cfa: sp 0 +
STACK CFI 5165c .cfa: sp 32 +
STACK CFI 51664 .cfa: x29 32 + x19: .cfa -16 + ^ .ra: .cfa -24 + ^ x29: .cfa -32 + ^
STACK CFI 5167c .cfa: sp 32 +
STACK CFI 51684 .cfa: sp 0 +
STACK CFI 51688 .cfa: x29 32 +
STACK CFI 5169c .cfa: sp 32 +
STACK CFI 516a4 .cfa: sp 0 +
STACK CFI INIT 516a8 4 .cfa: sp 0 +
STACK CFI INIT 516ac 38 .cfa: sp 0 +
STACK CFI 516b0 .cfa: sp 32 +
STACK CFI 516b8 .cfa: x29 32 + x19: .cfa -16 + ^ .ra: .cfa -24 + ^ x29: .cfa -32 + ^
STACK CFI 516d8 .cfa: sp 32 +
STACK CFI 516e0 .cfa: sp 0 +
STACK CFI INIT 516e4 18 .cfa: sp 0 +
STACK CFI INIT 516fc 4 .cfa: sp 0 +
STACK CFI INIT 51700 4 .cfa: sp 0 +
STACK CFI INIT 518a0 1c .cfa: sp 0 +
STACK CFI INIT 518bc c .cfa: sp 0 +
STACK CFI INIT 518c8 4 .cfa: sp 0 +
STACK CFI INIT 518cc 4 .cfa: sp 0 +
STACK CFI INIT 518d0 38 .cfa: sp 0 +
STACK CFI 518d4 .cfa: sp 32 +
STACK CFI 518dc .cfa: x29 32 + x19: .cfa -16 + ^ .ra: .cfa -24 + ^ x29: .cfa -32 + ^
STACK CFI 518fc .cfa: sp 32 +
STACK CFI 51904 .cfa: sp 0 +
STACK CFI INIT 51908 18 .cfa: sp 0 +
STACK CFI INIT 51920 4 .cfa: sp 0 +
STACK CFI INIT 51924 4 .cfa: sp 0 +
STACK CFI INIT 51ac0 1c .cfa: sp 0 +
STACK CFI INIT 51adc c .cfa: sp 0 +
STACK CFI INIT 51ae8 4 .cfa: sp 0 +
STACK CFI INIT 51aec 4 .cfa: sp 0 +
STACK CFI INIT 51af0 34 .cfa: sp 0 +
STACK CFI 51af4 .cfa: sp 32 +
STACK CFI 51afc .cfa: x29 32 + x19: .cfa -16 + ^ .ra: .cfa -24 + ^ x29: .cfa -32 + ^
STACK CFI 51b18 .cfa: sp 32 +
STACK CFI 51b20 .cfa: sp 0 +
STACK CFI INIT 51b24 14 .cfa: sp 0 +
STACK CFI INIT 51b38 4 .cfa: sp 0 +
STACK CFI INIT 51b3c 4 .cfa: sp 0 +
STACK CFI INIT 51b40 14 .cfa: sp 0 +
STACK CFI INIT 51b54 1c .cfa: sp 0 +
STACK CFI INIT 51b70 c .cfa: sp 0 +
STACK CFI INIT 51f1c 50 .cfa: sp 0 +
STACK CFI 51f20 .cfa: sp 32 +
STACK CFI 51f28 .cfa: x29 32 + x19: .cfa -16 + ^ .ra: .cfa -24 + ^ x29: .cfa -32 + ^
STACK CFI 51f40 .cfa: sp 32 +
STACK CFI 51f48 .cfa: sp 0 +
STACK CFI 51f4c .cfa: x29 32 +
STACK CFI 51f60 .cfa: sp 32 +
STACK CFI 51f68 .cfa: sp 0 +
STACK CFI INIT 51f6c 14 .cfa: sp 0 +
STACK CFI 51f70 .cfa: sp 16 +
STACK CFI 51f74 .cfa: x29 16 + .ra: .cfa -8 + ^ x29: .cfa -16 + ^
STACK CFI 51f78 .cfa: sp 16 +
STACK CFI 51f7c .cfa: sp 0 +
STACK CFI INIT 51f80 4 .cfa: sp 0 +
STACK CFI INIT 51f84 4 .cfa: sp 0 +
STACK CFI INIT 51f88 8 .cfa: sp 0 +
STACK CFI INIT 51f90 8 .cfa: sp 0 +
STACK CFI INIT 51f98 70 .cfa: sp 0 +
STACK CFI 51f9c .cfa: sp 32 +
STACK CFI 51fa4 .cfa: x29 32 + x19: .cfa -8 + ^ x20: .cfa -16 + ^ .ra: .cfa -24 + ^ x29: .cfa -32 + ^
STACK CFI 51fd4 .cfa: sp 32 +
STACK CFI 51fdc .cfa: sp 0 +
STACK CFI 51fe0 .cfa: x29 32 +
STACK CFI 51ffc .cfa: sp 32 +
STACK CFI 52004 .cfa: sp 0 +
STACK CFI INIT 52008 80 .cfa: sp 0 +
STACK CFI 5200c .cfa: sp 32 +
STACK CFI 52014 .cfa: x29 32 + x19: .cfa -8 + ^ x20: .cfa -16 + ^ .ra: .cfa -24 + ^ x29: .cfa -32 + ^
STACK CFI 5204c .cfa: sp 32 +
STACK CFI 52054 .cfa: sp 0 +
STACK CFI 52058 .cfa: x29 32 +
STACK CFI 5207c .cfa: sp 32 +
STACK CFI 52084 .cfa: sp 0 +
STACK CFI INIT 52414 8 .cfa: sp 0 +
STACK CFI INIT 5241c 8 .cfa: sp 0 +
STACK CFI INIT 52424 8 .cfa: sp 0 +
STACK CFI INIT 5242c 4 .cfa: sp 0 +
STACK CFI INIT 52554 24 .cfa: sp 0 +
STACK CFI 52558 .cfa: sp 32 +
STACK CFI 52560 .cfa: x29 32 + x19: .cfa -16 + ^ .ra: .cfa -24 + ^ x29: .cfa -32 + ^
STACK CFI 5256c .cfa: sp 32 +
STACK CFI 52574 .cfa: sp 0 +
STACK CFI INIT 52578 10 .cfa: sp 0 +
STACK CFI INIT 52588 30 .cfa: sp 0 +
STACK CFI 5258c .cfa: sp 32 +
STACK CFI 52594 .cfa: x29 32 + x19: .cfa -16 + ^ .ra: .cfa -24 + ^ x29: .cfa -32 + ^
STACK CFI 525ac .cfa: sp 32 +
STACK CFI 525b4 .cfa: sp 0 +
STACK CFI INIT 525b8 c .cfa: sp 0 +
STACK CFI INIT 525c4 4 .cfa: sp 0 +
STACK CFI INIT 5263c 34 .cfa: sp 0 +
STACK CFI 52640 .cfa: sp 16 +
STACK CFI 52644 .cfa: x29 16 + .ra: .cfa -8 + ^ x29: .cfa -16 + ^
STACK CFI INIT 531c0 6c .cfa: sp 0 +
STACK CFI 531c4 .cfa: sp 32 +
STACK CFI 531cc .cfa: x29 32 + x19: .cfa -8 + ^ x20: .cfa -16 + ^ .ra: .cfa -24 + ^ x29: .cfa -32 + ^
STACK CFI 531f8 .cfa: sp 32 +
STACK CFI 53200 .cfa: sp 0 +
STACK CFI 53204 .cfa: x29 32 +
STACK CFI 53220 .cfa: sp 32 +
STACK CFI 53228 .cfa: sp 0 +
STACK CFI INIT 5322c 7c .cfa: sp 0 +
STACK CFI 53230 .cfa: sp 32 +
STACK CFI 53238 .cfa: x29 32 + x19: .cfa -8 + ^ x20: .cfa -16 + ^ .ra: .cfa -24 + ^ x29: .cfa -32 + ^
STACK CFI 5326c .cfa: sp 32 +
STACK CFI 53274 .cfa: sp 0 +
STACK CFI 53278 .cfa: x29 32 +
STACK CFI 5329c .cfa: sp 32 +
STACK CFI 532a4 .cfa: sp 0 +
STACK CFI INIT 532a8 ac .cfa: sp 0 +
STACK CFI 532ac .cfa: sp 64 +
STACK CFI 532bc .cfa: x29 64 + x19: .cfa -8 + ^ x20: .cfa -16 + ^ x21: .cfa -24 + ^ x22: .cfa -32 + ^ x23: .cfa -48 + ^ .ra: .cfa -56 + ^ x29: .cfa -64 + ^
STACK CFI 53338 .cfa: sp 64 +
STACK CFI 53348 .cfa: sp 0 +
STACK CFI 5334c .cfa: x29 64 +
STACK CFI INIT 53354 13c .cfa: sp 0 +
STACK CFI 53358 .cfa: sp 64 +
STACK CFI 53368 .cfa: x29 64 + x19: .cfa -8 + ^ x20: .cfa -16 + ^ x21: .cfa -24 + ^ x22: .cfa -32 + ^ x23: .cfa -40 + ^ x24: .cfa -48 + ^ .ra: .cfa -56 + ^ x29: .cfa -64 + ^
STACK CFI 53448 .cfa: sp 64 +
STACK CFI 53458 .cfa: sp 0 +
STACK CFI 5345c .cfa: x29 64 +
STACK CFI INIT 53980 80 .cfa: sp 0 +
STACK CFI 53984 .cfa: sp 32 +
STACK CFI 5398c .cfa: x29 32 + x19: .cfa -8 + ^ x20: .cfa -16 + ^ .ra: .cfa -24 + ^ x29: .cfa -32 + ^
STACK CFI 539f4 .cfa: sp 32 +
STACK CFI 539fc .cfa: sp 0 +
STACK CFI INIT 53d7c 24 .cfa: sp 0 +
STACK CFI 53d80 .cfa: sp 32 +
STACK CFI 53d88 .cfa: x29 32 + x19: .cfa -16 + ^ .ra: .cfa -24 + ^ x29: .cfa -32 + ^
STACK CFI 53d94 .cfa: sp 32 +
STACK CFI 53d9c .cfa: sp 0 +
STACK CFI INIT 53da0 4 .cfa: sp 0 +
STACK CFI INIT 53da4 8 .cfa: sp 0 +
STACK CFI INIT 53dac 4 .cfa: sp 0 +
STACK CFI INIT 53db0 8 .cfa: sp 0 +
STACK CFI INIT 5423c cc .cfa: sp 0 +
STACK CFI 54240 .cfa: sp 96 +
STACK CFI 54254 .cfa: x29 48 + x19: .cfa -8 + ^ x20: .cfa -16 + ^ x21: .cfa -32 + ^ .ra: .cfa -40 + ^ x29: .cfa -48 + ^ v8: .cfa -56 + ^ v9: .cfa -64 + ^
STACK CFI 542ec .cfa: sp 96 +
STACK CFI 54300 .cfa: sp 0 +
STACK CFI 54304 .cfa: x29 48 +
STACK CFI INIT 54308 24 .cfa: sp 0 +
STACK CFI 5430c .cfa: sp 32 +
STACK CFI 54314 .cfa: x29 32 + x19: .cfa -16 + ^ .ra: .cfa -24 + ^ x29: .cfa -32 + ^
STACK CFI 54320 .cfa: sp 32 +
STACK CFI 54328 .cfa: sp 0 +
STACK CFI INIT 5444c cc .cfa: sp 0 +
STACK CFI 54450 .cfa: sp 48 +
STACK CFI 5445c .cfa: x29 48 + x19: .cfa -8 + ^ x20: .cfa -16 + ^ x21: .cfa -32 + ^ .ra: .cfa -40 + ^ x29: .cfa -48 + ^
STACK CFI 544f4 .cfa: sp 48 +
STACK CFI 54500 .cfa: sp 0 +
STACK CFI 54504 .cfa: x29 48 +
STACK CFI 54508 .cfa: sp 48 +
STACK CFI 54514 .cfa: sp 0 +
STACK CFI INIT 55754 150 .cfa: sp 0 +
STACK CFI 55758 .cfa: sp 64 +
STACK CFI 55764 .cfa: x29 32 + x19: .cfa -8 + ^ x20: .cfa -16 + ^ .ra: .cfa -24 + ^ x29: .cfa -32 + ^
STACK CFI 5582c .cfa: sp 64 +
STACK CFI 55838 .cfa: sp 0 +
STACK CFI 5583c .cfa: x29 32 +
STACK CFI INIT 558a4 38 .cfa: sp 0 +
STACK CFI 558a8 .cfa: sp 32 +
STACK CFI 558b0 .cfa: x29 32 + x19: .cfa -8 + ^ x20: .cfa -16 + ^ .ra: .cfa -24 + ^ x29: .cfa -32 + ^
STACK CFI 558d0 .cfa: sp 32 +
STACK CFI 558d8 .cfa: sp 0 +
STACK CFI INIT 558dc 44 .cfa: sp 0 +
STACK CFI 558e0 .cfa: sp 32 +
STACK CFI 558e8 .cfa: x29 32 + x19: .cfa -16 + ^ .ra: .cfa -24 + ^ x29: .cfa -32 + ^
STACK CFI 558f8 .cfa: sp 32 +
STACK CFI 55900 .cfa: sp 0 +
STACK CFI 55904 .cfa: x29 32 +
STACK CFI 55914 .cfa: sp 32 +
STACK CFI 5591c .cfa: sp 0 +
STACK CFI INIT 55920 14 .cfa: sp 0 +
STACK CFI 55924 .cfa: sp 16 +
STACK CFI 55928 .cfa: x29 16 + .ra: .cfa -8 + ^ x29: .cfa -16 + ^
STACK CFI 5592c .cfa: sp 16 +
STACK CFI 55930 .cfa: sp 0 +
STACK CFI INIT 55934 14 .cfa: sp 0 +
STACK CFI 55938 .cfa: sp 16 +
STACK CFI 5593c .cfa: x29 16 + .ra: .cfa -8 + ^ x29: .cfa -16 + ^
STACK CFI 55940 .cfa: sp 16 +
STACK CFI 55944 .cfa: sp 0 +
STACK CFI INIT 55948 14 .cfa: sp 0 +
STACK CFI 5594c .cfa: sp 16 +
STACK CFI 55950 .cfa: x29 16 + .ra: .cfa -8 + ^ x29: .cfa -16 + ^
STACK CFI 55954 .cfa: sp 16 +
STACK CFI 55958 .cfa: sp 0 +
STACK CFI INIT 5595c 14 .cfa: sp 0 +
STACK CFI 55960 .cfa: sp 16 +
STACK CFI 55964 .cfa: x29 16 + .ra: .cfa -8 + ^ x29: .cfa -16 + ^
STACK CFI 55968 .cfa: sp 16 +
STACK CFI 5596c .cfa: sp 0 +
STACK CFI INIT 55970 14 .cfa: sp 0 +
STACK CFI 55974 .cfa: sp 16 +
STACK CFI 55978 .cfa: x29 16 + .ra: .cfa -8 + ^ x29: .cfa -16 + ^
STACK CFI 5597c .cfa: sp 16 +
STACK CFI 55980 .cfa: sp 0 +
STACK CFI INIT 566c8 c4 .cfa: sp 0 +
STACK CFI 566cc .cfa: sp 32 +
STACK CFI 566d4 .cfa: x29 32 + x19: .cfa -16 + ^ .ra: .cfa -24 + ^ x29: .cfa -32 + ^
STACK CFI 56710 .cfa: sp 32 +
STACK CFI 56718 .cfa: sp 0 +
STACK CFI 5671c .cfa: x29 32 +
STACK CFI 56780 .cfa: sp 32 +
STACK CFI 56788 .cfa: sp 0 +
STACK CFI INIT 5678c 10 .cfa: sp 0 +
STACK CFI INIT 56954 2c .cfa: sp 0 +
STACK CFI 56958 .cfa: sp 32 +
STACK CFI 56960 .cfa: x29 32 + x19: .cfa -16 + ^ .ra: .cfa -24 + ^ x29: .cfa -32 + ^
STACK CFI 56974 .cfa: sp 32 +
STACK CFI 5697c .cfa: sp 0 +
STACK CFI INIT 56980 28 .cfa: sp 0 +
STACK CFI INIT 569a8 4 .cfa: sp 0 +
STACK CFI INIT 569ac 8 .cfa: sp 0 +
STACK CFI INIT 56cb8 2c .cfa: sp 0 +
STACK CFI INIT 56ce4 4 .cfa: sp 0 +
STACK CFI INIT 56ce8 4 .cfa: sp 0 +
STACK CFI INIT 56cec 4 .cfa: sp 0 +
STACK CFI INIT 56cf0 4 .cfa: sp 0 +
STACK CFI INIT 56cf4 4 .cfa: sp 0 +
STACK CFI INIT 56cf8 8 .cfa: sp 0 +
STACK CFI INIT 56d6c 4 .cfa: sp 0 +
STACK CFI INIT 56ddc 4 .cfa: sp 0 +
STACK CFI INIT 56de0 304 .cfa: sp 0 +
STACK CFI 56de4 .cfa: sp 128 +
STACK CFI 56dfc .cfa: x29 64 + x19: .cfa -8 + ^ x20: .cfa -16 + ^ x21: .cfa -24 + ^ x22: .cfa -32 + ^ x23: .cfa -48 + ^ .ra: .cfa -56 + ^ x29: .cfa -64 + ^ v8: .cfa -72 + ^ v9: .cfa -80 + ^
STACK CFI 5702c .cfa: sp 128 +
STACK CFI 57044 .cfa: sp 0 +
STACK CFI 57048 .cfa: x29 64 +
STACK CFI INIT 570e4 60 .cfa: sp 0 +
STACK CFI 570e8 .cfa: sp 32 +
STACK CFI 570f0 .cfa: x29 32 + x19: .cfa -8 + ^ x20: .cfa -16 + ^ .ra: .cfa -24 + ^ x29: .cfa -32 + ^
STACK CFI 57110 .cfa: sp 32 +
STACK CFI 57118 .cfa: sp 0 +
STACK CFI 5711c .cfa: x29 32 +
STACK CFI 57138 .cfa: sp 32 +
STACK CFI 57140 .cfa: sp 0 +
STACK CFI INIT 57144 70 .cfa: sp 0 +
STACK CFI 57148 .cfa: sp 32 +
STACK CFI 57150 .cfa: x29 32 + x19: .cfa -8 + ^ x20: .cfa -16 + ^ .ra: .cfa -24 + ^ x29: .cfa -32 + ^
STACK CFI 57178 .cfa: sp 32 +
STACK CFI 57180 .cfa: sp 0 +
STACK CFI 57184 .cfa: x29 32 +
STACK CFI 571a8 .cfa: sp 32 +
STACK CFI 571b0 .cfa: sp 0 +
STACK CFI INIT 571b4 10 .cfa: sp 0 +
STACK CFI INIT 571c4 30 .cfa: sp 0 +
STACK CFI 571c8 .cfa: sp 32 +
STACK CFI 571d0 .cfa: x29 32 + x19: .cfa -16 + ^ .ra: .cfa -24 + ^ x29: .cfa -32 + ^
STACK CFI 571e8 .cfa: sp 32 +
STACK CFI 571f0 .cfa: sp 0 +
STACK CFI INIT 571f4 4 .cfa: sp 0 +
STACK CFI INIT 571f8 4 .cfa: sp 0 +
STACK CFI INIT 571fc 114 .cfa: sp 0 +
STACK CFI 57200 .cfa: sp 96 +
STACK CFI 5720c .cfa: x29 32 + x19: .cfa -16 + ^ .ra: .cfa -24 + ^ x29: .cfa -32 + ^
STACK CFI 572fc .cfa: sp 96 +
STACK CFI 57308 .cfa: sp 0 +
STACK CFI 5730c .cfa: x29 32 +
STACK CFI INIT 576d0 158 .cfa: sp 0 +
STACK CFI 576d4 .cfa: sp 64 +
STACK CFI 576e0 .cfa: x29 32 + x19: .cfa -8 + ^ x20: .cfa -16 + ^ .ra: .cfa -24 + ^ x29: .cfa -32 + ^
STACK CFI 57808 .cfa: sp 64 +
STACK CFI 57814 .cfa: sp 0 +
STACK CFI 57818 .cfa: x29 32 +
STACK CFI INIT 57828 140 .cfa: sp 0 +
STACK CFI 5782c .cfa: sp 64 +
STACK CFI 57838 .cfa: x29 32 + x19: .cfa -8 + ^ x20: .cfa -16 + ^ .ra: .cfa -24 + ^ x29: .cfa -32 + ^
STACK CFI 57948 .cfa: sp 64 +
STACK CFI 57954 .cfa: sp 0 +
STACK CFI 57958 .cfa: x29 32 +
STACK CFI INIT 57968 70 .cfa: sp 0 +
STACK CFI 5796c .cfa: sp 48 +
STACK CFI 57978 .cfa: x29 48 + x19: .cfa -8 + ^ x20: .cfa -16 + ^ x21: .cfa -32 + ^ .ra: .cfa -40 + ^ x29: .cfa -48 + ^
STACK CFI 57990 .cfa: sp 48 +
STACK CFI 5799c .cfa: sp 0 +
STACK CFI 579a0 .cfa: x29 48 +
STACK CFI 579c8 .cfa: sp 48 +
STACK CFI 579d4 .cfa: sp 0 +
STACK CFI INIT 57ff0 50 .cfa: sp 0 +
STACK CFI 58014 .cfa: sp 32 +
STACK CFI 5801c .cfa: x29 32 + x19: .cfa -16 + ^ .ra: .cfa -24 + ^ x29: .cfa -32 + ^
STACK CFI 58030 .cfa: sp 32 +
STACK CFI 58038 .cfa: sp 0 +
STACK CFI INIT 58040 458 .cfa: sp 0 +
STACK CFI INIT 58498 3c .cfa: sp 0 +
STACK CFI 5849c .cfa: sp 32 +
STACK CFI 584a4 .cfa: x29 32 + x19: .cfa -16 + ^ .ra: .cfa -24 + ^ x29: .cfa -32 + ^
STACK CFI 584b0 .cfa: sp 32 +
STACK CFI 584b8 .cfa: sp 0 +
STACK CFI 584bc .cfa: x29 32 +
STACK CFI 584c8 .cfa: sp 32 +
STACK CFI 584d0 .cfa: sp 0 +
STACK CFI INIT 584d4 3c .cfa: sp 0 +
STACK CFI 584d8 .cfa: sp 32 +
STACK CFI 584e0 .cfa: x29 32 + x19: .cfa -16 + ^ .ra: .cfa -24 + ^ x29: .cfa -32 + ^
STACK CFI 584ec .cfa: sp 32 +
STACK CFI 584f4 .cfa: sp 0 +
STACK CFI 584f8 .cfa: x29 32 +
STACK CFI 58504 .cfa: sp 32 +
STACK CFI 5850c .cfa: sp 0 +
STACK CFI INIT 58510 190 .cfa: sp 0 +
STACK CFI 58514 .cfa: sp 48 +
STACK CFI 58520 .cfa: x29 48 + x19: .cfa -8 + ^ x20: .cfa -16 + ^ x21: .cfa -32 + ^ .ra: .cfa -40 + ^ x29: .cfa -48 + ^
STACK CFI 585b4 .cfa: sp 48 +
STACK CFI 585c0 .cfa: sp 0 +
STACK CFI 585c4 .cfa: x29 48 +
STACK CFI 585c8 .cfa: sp 48 +
STACK CFI 585d4 .cfa: sp 0 +
STACK CFI 585d8 .cfa: x29 48 +
STACK CFI 58610 .cfa: sp 48 +
STACK CFI 5861c .cfa: sp 0 +
STACK CFI 58620 .cfa: x29 48 +
STACK CFI 58644 .cfa: sp 48 +
STACK CFI 58650 .cfa: sp 0 +
STACK CFI 58654 .cfa: x29 48 +
STACK CFI 5867c .cfa: sp 48 +
STACK CFI 58688 .cfa: sp 0 +
STACK CFI 5868c .cfa: x29 48 +
STACK CFI 58690 .cfa: sp 48 +
STACK CFI 5869c .cfa: sp 0 +
STACK CFI INIT 586a0 c8 .cfa: sp 0 +
STACK CFI 586a4 .cfa: sp 48 +
STACK CFI 586ac .cfa: x29 16 + .ra: .cfa -8 + ^ x29: .cfa -16 + ^
STACK CFI 586d8 .cfa: sp 48 +
STACK CFI 586e0 .cfa: sp 0 +
STACK CFI 586e4 .cfa: x29 16 +
STACK CFI 5875c .cfa: sp 48 +
STACK CFI 58764 .cfa: sp 0 +
STACK CFI INIT 58768 c8 .cfa: sp 0 +
STACK CFI 5876c .cfa: sp 48 +
STACK CFI 58774 .cfa: x29 16 + .ra: .cfa -8 + ^ x29: .cfa -16 + ^
STACK CFI 587a0 .cfa: sp 48 +
STACK CFI 587a8 .cfa: sp 0 +
STACK CFI 587ac .cfa: x29 16 +
STACK CFI 58824 .cfa: sp 48 +
STACK CFI 5882c .cfa: sp 0 +
STACK CFI INIT 58830 374 .cfa: sp 0 +
STACK CFI 58834 .cfa: sp 32 +
STACK CFI 5883c .cfa: x29 32 + x19: .cfa -8 + ^ x20: .cfa -16 + ^ .ra: .cfa -24 + ^ x29: .cfa -32 + ^
STACK CFI 58888 .cfa: sp 32 +
STACK CFI 58890 .cfa: sp 0 +
STACK CFI 58894 .cfa: x29 32 +
STACK CFI 588d8 .cfa: sp 32 +
STACK CFI 588e0 .cfa: sp 0 +
STACK CFI 588e4 .cfa: x29 32 +
STACK CFI 588e8 .cfa: sp 32 +
STACK CFI 588f0 .cfa: sp 0 +
STACK CFI 588f4 .cfa: x29 32 +
STACK CFI 58910 .cfa: sp 32 +
STACK CFI 58918 .cfa: sp 0 +
STACK CFI 5891c .cfa: x29 32 +
STACK CFI 58a10 .cfa: sp 32 +
STACK CFI 58a18 .cfa: sp 0 +
STACK CFI 58a1c .cfa: x29 32 +
STACK CFI 58aac .cfa: sp 32 +
STACK CFI 58ab4 .cfa: sp 0 +
STACK CFI 58ab8 .cfa: x29 32 +
STACK CFI 58b88 .cfa: sp 32 +
STACK CFI 58b90 .cfa: sp 0 +
STACK CFI 58b94 .cfa: x29 32 +
STACK CFI 58b98 .cfa: sp 32 +
STACK CFI 58ba0 .cfa: sp 0 +
STACK CFI INIT 58ba4 3e8 .cfa: sp 0 +
STACK CFI 58ba8 .cfa: sp 208 +
STACK CFI 58bc0 .cfa: x29 32 + x19: .cfa -16 + ^ .ra: .cfa -24 + ^ x29: .cfa -32 + ^ v8: .cfa -40 + ^ v9: .cfa -48 + ^ v10: .cfa -56 + ^ v11: .cfa -64 + ^ v12: .cfa -72 + ^ v13: .cfa -80 + ^
STACK CFI 58c7c .cfa: sp 208 +
STACK CFI 58c94 .cfa: sp 0 +
STACK CFI 58c98 .cfa: x29 32 +
STACK CFI INIT 58f8c 13c .cfa: sp 0 +
STACK CFI INIT 590c8 104 .cfa: sp 0 +
STACK CFI INIT 591cc 470 .cfa: sp 0 +
STACK CFI 591d0 .cfa: sp 224 +
STACK CFI 591ec .cfa: x29 48 + x19: .cfa -8 + ^ x20: .cfa -16 + ^ x21: .cfa -24 + ^ x22: .cfa -32 + ^ .ra: .cfa -40 + ^ x29: .cfa -48 + ^ v8: .cfa -56 + ^ v9: .cfa -64 + ^ v10: .cfa -72 + ^ v11: .cfa -80 + ^ v12: .cfa -88 + ^ v13: .cfa -96 + ^
STACK CFI 594ac .cfa: sp 224 +
STACK CFI 594c8 .cfa: sp 0 +
STACK CFI 594cc .cfa: x29 48 +
STACK CFI INIT 5963c 108 .cfa: sp 0 +
STACK CFI 59640 .cfa: sp 176 +
STACK CFI 5964c .cfa: x29 32 + x19: .cfa -16 + ^ .ra: .cfa -24 + ^ x29: .cfa -32 + ^
STACK CFI 59730 .cfa: sp 176 +
STACK CFI 5973c .cfa: sp 0 +
STACK CFI 59740 .cfa: x29 32 +
STACK CFI INIT 59744 27c .cfa: sp 0 +
STACK CFI 59748 .cfa: sp 128 +
STACK CFI 59758 .cfa: x29 48 + x19: .cfa -8 + ^ x20: .cfa -16 + ^ x21: .cfa -24 + ^ x22: .cfa -32 + ^ .ra: .cfa -40 + ^ x29: .cfa -48 + ^
STACK CFI 599a8 .cfa: sp 128 +
STACK CFI 599b8 .cfa: sp 0 +
STACK CFI 599bc .cfa: x29 48 +
STACK CFI INIT 599c0 14c .cfa: sp 0 +
STACK CFI INIT 59b0c 16c .cfa: sp 0 +
STACK CFI INIT 59c78 17c .cfa: sp 0 +
STACK CFI INIT 59df4 164 .cfa: sp 0 +
STACK CFI INIT 59f58 2c8 .cfa: sp 0 +
STACK CFI 59f5c .cfa: sp 176 +
STACK CFI 59f74 x19: .cfa -8 + ^ x20: .cfa -16 + ^ x21: .cfa -24 + ^ x22: .cfa -32 + ^ x23: .cfa -40 + ^ x24: .cfa -48 + ^ x25: .cfa -56 + ^ x26: .cfa -64 + ^ x27: .cfa -72 + ^ x28: .cfa -80 + ^ .ra: .cfa -88 + ^ x29: .cfa -96 + ^
STACK CFI 5a21c .cfa: sp 0 +
STACK CFI INIT 5a220 104 .cfa: sp 0 +
STACK CFI INIT 5a324 110 .cfa: sp 0 +
STACK CFI INIT 5a434 154 .cfa: sp 0 +
STACK CFI INIT 5a588 444 .cfa: sp 0 +
STACK CFI 5a5c0 .cfa: sp 64 +
STACK CFI 5a5cc x19: .cfa -8 + ^ x20: .cfa -16 + ^ x21: .cfa -24 + ^ x22: .cfa -32 + ^ x23: .cfa -40 + ^ x24: .cfa -48 + ^ x25: .cfa -64 + ^
STACK CFI 5a818 .cfa: sp 0 +
STACK CFI 5a81c .cfa: sp 64 +
STACK CFI 5a9b0 .cfa: sp 0 +
STACK CFI 5a9b4 .cfa: sp 64 +
STACK CFI 5a9c8 .cfa: sp 0 +
STACK CFI INIT 5a9cc 340 .cfa: sp 0 +
STACK CFI 5a9d0 .cfa: sp 64 +
STACK CFI 5a9e0 .cfa: x29 48 + x19: .cfa -8 + ^ x20: .cfa -16 + ^ x21: .cfa -32 + ^ .ra: .cfa -40 + ^ x29: .cfa -48 + ^ v8: .cfa -56 + ^ v9: .cfa -64 + ^
STACK CFI 5ac78 .cfa: sp 64 +
STACK CFI 5ac88 .cfa: sp 0 +
STACK CFI 5ac8c .cfa: x29 48 +
STACK CFI 5acb0 .cfa: sp 64 +
STACK CFI 5acc0 .cfa: sp 0 +
STACK CFI 5acc4 .cfa: x29 48 +
STACK CFI 5accc .cfa: sp 64 +
STACK CFI 5acdc .cfa: sp 0 +
STACK CFI 5ace0 .cfa: x29 48 +
STACK CFI 5ace8 .cfa: sp 64 +
STACK CFI 5acf8 .cfa: sp 0 +
STACK CFI 5acfc .cfa: x29 48 +
STACK CFI INIT 5ad0c 310 .cfa: sp 0 +
STACK CFI 5ad44 .cfa: sp 48 +
STACK CFI 5ad4c x19: .cfa -8 + ^ x20: .cfa -16 + ^ x21: .cfa -24 + ^ x22: .cfa -32 + ^ x23: .cfa -40 + ^ x24: .cfa -48 + ^
STACK CFI 5b018 .cfa: sp 0 +
STACK CFI INIT 5b01c 860 .cfa: sp 0 +
STACK CFI 5b020 .cfa: sp 160 +
STACK CFI 5b044 x19: .cfa -8 + ^ x20: .cfa -16 + ^ x21: .cfa -24 + ^ x22: .cfa -32 + ^ x23: .cfa -40 + ^ x24: .cfa -48 + ^ x25: .cfa -56 + ^ x26: .cfa -64 + ^ x27: .cfa -72 + ^ x28: .cfa -80 + ^ .ra: .cfa -88 + ^ x29: .cfa -96 + ^ v8: .cfa -104 + ^ v9: .cfa -112 + ^ v10: .cfa -120 + ^ v11: .cfa -128 + ^ v12: .cfa -136 + ^ v13: .cfa -144 + ^ v14: .cfa -152 + ^ v15: .cfa -160 + ^
STACK CFI 5b878 .cfa: sp 0 +
STACK CFI INIT 5b87c 8c8 .cfa: sp 0 +
STACK CFI 5b880 .cfa: sp 160 +
STACK CFI 5b8a4 x19: .cfa -8 + ^ x20: .cfa -16 + ^ x21: .cfa -24 + ^ x22: .cfa -32 + ^ x23: .cfa -40 + ^ x24: .cfa -48 + ^ x25: .cfa -56 + ^ x26: .cfa -64 + ^ x27: .cfa -72 + ^ x28: .cfa -80 + ^ .ra: .cfa -88 + ^ x29: .cfa -96 + ^ v8: .cfa -104 + ^ v9: .cfa -112 + ^ v10: .cfa -120 + ^ v11: .cfa -128 + ^ v12: .cfa -136 + ^ v13: .cfa -144 + ^ v14: .cfa -152 + ^ v15: .cfa -160 + ^
STACK CFI 5c140 .cfa: sp 0 +
STACK CFI INIT 5c144 644 .cfa: sp 0 +
STACK CFI 5c148 .cfa: sp 160 +
STACK CFI 5c168 .cfa: x29 48 + x19: .cfa -8 + ^ x20: .cfa -16 + ^ x21: .cfa -32 + ^ .ra: .cfa -40 + ^ x29: .cfa -48 + ^ v8: .cfa -56 + ^ v9: .cfa -64 + ^ v10: .cfa -72 + ^ v11: .cfa -80 + ^ v12: .cfa -88 + ^ v13: .cfa -96 + ^ v14: .cfa -104 + ^ v15: .cfa -112 + ^
STACK CFI 5c764 .cfa: sp 160 +
STACK CFI 5c784 .cfa: sp 0 +
STACK CFI INIT 5c788 65c .cfa: sp 0 +
STACK CFI 5c78c .cfa: sp 160 +
STACK CFI 5c7ac .cfa: x29 48 + x19: .cfa -8 + ^ x20: .cfa -16 + ^ x21: .cfa -32 + ^ .ra: .cfa -40 + ^ x29: .cfa -48 + ^ v8: .cfa -56 + ^ v9: .cfa -64 + ^ v10: .cfa -72 + ^ v11: .cfa -80 + ^ v12: .cfa -88 + ^ v13: .cfa -96 + ^ v14: .cfa -104 + ^ v15: .cfa -112 + ^
STACK CFI 5cdc0 .cfa: sp 160 +
STACK CFI 5cde0 .cfa: sp 0 +
STACK CFI INIT 5cde4 5a4 .cfa: sp 0 +
STACK CFI 5cde8 .cfa: sp 80 +
STACK CFI 5cdf8 x19: .cfa -8 + ^ x20: .cfa -16 + ^ v8: .cfa -24 + ^ v9: .cfa -32 + ^ v10: .cfa -40 + ^ v11: .cfa -48 + ^ v12: .cfa -56 + ^ v13: .cfa -64 + ^ v14: .cfa -80 + ^
STACK CFI 5ce3c .cfa: sp 0 +
STACK CFI 5ce40 .cfa: sp 80 +
STACK CFI INIT 5d388 5f0 .cfa: sp 0 +
STACK CFI 5d38c .cfa: sp 80 +
STACK CFI 5d39c x19: .cfa -8 + ^ x20: .cfa -16 + ^ v8: .cfa -24 + ^ v9: .cfa -32 + ^ v10: .cfa -40 + ^ v11: .cfa -48 + ^ v12: .cfa -56 + ^ v13: .cfa -64 + ^ v14: .cfa -80 + ^
STACK CFI 5d3e0 .cfa: sp 0 +
STACK CFI 5d3e4 .cfa: sp 80 +
STACK CFI INIT 5d978 790 .cfa: sp 0 +
STACK CFI 5d97c .cfa: sp 144 +
STACK CFI 5d99c x19: .cfa -8 + ^ x20: .cfa -16 + ^ x21: .cfa -24 + ^ x22: .cfa -32 + ^ x23: .cfa -40 + ^ x24: .cfa -48 + ^ x25: .cfa -56 + ^ x26: .cfa -64 + ^ x27: .cfa -80 + ^ v8: .cfa -88 + ^ v9: .cfa -96 + ^ v10: .cfa -104 + ^ v11: .cfa -112 + ^ v12: .cfa -120 + ^ v13: .cfa -128 + ^ v14: .cfa -136 + ^ v15: .cfa -144 + ^
STACK CFI 5e104 .cfa: sp 0 +
STACK CFI INIT 5e108 5a4 .cfa: sp 0 +
STACK CFI 5e10c .cfa: sp 160 +
STACK CFI 5e12c .cfa: x29 48 + x19: .cfa -8 + ^ x20: .cfa -16 + ^ x21: .cfa -32 + ^ .ra: .cfa -40 + ^ x29: .cfa -48 + ^ v8: .cfa -56 + ^ v9: .cfa -64 + ^ v10: .cfa -72 + ^ v11: .cfa -80 + ^ v12: .cfa -88 + ^ v13: .cfa -96 + ^ v14: .cfa -104 + ^ v15: .cfa -112 + ^
STACK CFI 5e688 .cfa: sp 160 +
STACK CFI 5e6a8 .cfa: sp 0 +
STACK CFI INIT 5e6ac 4c0 .cfa: sp 0 +
STACK CFI 5e6b0 .cfa: sp 32 +
STACK CFI 5e6b4 v8: .cfa -8 + ^ v9: .cfa -16 + ^ v10: .cfa -24 + ^ v11: .cfa -32 + ^
STACK CFI 5e6ec .cfa: sp 0 +
STACK CFI 5e6f0 .cfa: sp 32 +
STACK CFI 5eb68 .cfa: sp 0 +
STACK CFI INIT 5eb6c 164 .cfa: sp 0 +
STACK CFI INIT 5ecd0 180 .cfa: sp 0 +
STACK CFI INIT 5ee50 2c4 .cfa: sp 0 +
STACK CFI 5ee54 .cfa: sp 48 +
STACK CFI 5ee5c x19: .cfa -8 + ^ x20: .cfa -16 + ^ x21: .cfa -24 + ^ x22: .cfa -32 + ^ x23: .cfa -48 + ^
STACK CFI 5ef64 .cfa: sp 0 +
STACK CFI 5ef68 .cfa: sp 48 +
STACK CFI 5f0c0 .cfa: sp 0 +
STACK CFI 5f0c4 .cfa: sp 48 +
STACK CFI 5f110 .cfa: sp 0 +
STACK CFI INIT 5f114 354 .cfa: sp 0 +
STACK CFI 5f118 .cfa: sp 48 +
STACK CFI 5f120 x19: .cfa -8 + ^ x20: .cfa -16 + ^ x21: .cfa -24 + ^ x22: .cfa -32 + ^ x23: .cfa -48 + ^
STACK CFI 5f268 .cfa: sp 0 +
STACK CFI 5f26c .cfa: sp 48 +
STACK CFI 5f414 .cfa: sp 0 +
STACK CFI 5f418 .cfa: sp 48 +
STACK CFI 5f464 .cfa: sp 0 +
STACK CFI INIT 5f468 180 .cfa: sp 0 +
STACK CFI INIT 5f5e8 164 .cfa: sp 0 +
STACK CFI INIT 5f74c 4b0 .cfa: sp 0 +
STACK CFI 5f750 .cfa: sp 16 + x19: .cfa -8 + ^ x20: .cfa -16 + ^
STACK CFI 5fbd8 .cfa: sp 0 +
STACK CFI 5fbdc .cfa: sp 16 +
STACK CFI 5fbec .cfa: sp 0 +
STACK CFI 5fbf0 .cfa: sp 16 +
STACK CFI 5fbf8 .cfa: sp 0 +
STACK CFI INIT 5fbfc 4ec .cfa: sp 0 +
STACK CFI 5fc00 .cfa: sp 16 + x19: .cfa -8 + ^ x20: .cfa -16 + ^
STACK CFI 600c4 .cfa: sp 0 +
STACK CFI 600c8 .cfa: sp 16 +
STACK CFI 600d8 .cfa: sp 0 +
STACK CFI 600dc .cfa: sp 16 +
STACK CFI 600e4 .cfa: sp 0 +
STACK CFI INIT 600e8 4d8 .cfa: sp 0 +
STACK CFI 600ec .cfa: sp 16 + x19: .cfa -16 + ^
STACK CFI 6042c .cfa: sp 0 +
STACK CFI 60430 .cfa: sp 16 +
STACK CFI 605ac .cfa: sp 0 +
STACK CFI 605b0 .cfa: sp 16 +
STACK CFI 605bc .cfa: sp 0 +
STACK CFI INIT 605c0 514 .cfa: sp 0 +
STACK CFI 605c4 .cfa: sp 16 + x19: .cfa -16 + ^
STACK CFI 6091c .cfa: sp 0 +
STACK CFI 60920 .cfa: sp 16 +
STACK CFI 60ac0 .cfa: sp 0 +
STACK CFI 60ac4 .cfa: sp 16 +
STACK CFI 60ad0 .cfa: sp 0 +
STACK CFI INIT 60ad4 4 .cfa: sp 0 +
STACK CFI INIT 60ad8 4 .cfa: sp 0 +
STACK CFI INIT 60adc 488 .cfa: sp 0 +
STACK CFI 60ae4 .cfa: sp 16 + x19: .cfa -16 + ^
STACK CFI 60f40 .cfa: sp 0 +
STACK CFI 60f44 .cfa: sp 16 +
STACK CFI 60f4c .cfa: sp 0 +
STACK CFI 60f50 .cfa: sp 16 +
STACK CFI 60f58 .cfa: sp 0 +
STACK CFI INIT 60f64 4c0 .cfa: sp 0 +
STACK CFI INIT 61424 1b4 .cfa: sp 0 +
STACK CFI INIT 615d8 1d0 .cfa: sp 0 +
STACK CFI INIT 617a8 1c8 .cfa: sp 0 +
STACK CFI INIT 61970 1e0 .cfa: sp 0 +
STACK CFI INIT 61b50 1ac .cfa: sp 0 +
STACK CFI INIT 61cfc 204 .cfa: sp 0 +
STACK CFI INIT 61f00 fc .cfa: sp 0 +
STACK CFI INIT 61ffc 4 .cfa: sp 0 +
STACK CFI INIT 62000 1b8 .cfa: sp 0 +
STACK CFI INIT 621b8 1e4 .cfa: sp 0 +
STACK CFI INIT 6239c 264 .cfa: sp 0 +
STACK CFI INIT 62600 2b8 .cfa: sp 0 +
STACK CFI INIT 628b8 4 .cfa: sp 0 +
STACK CFI INIT 628bc 4 .cfa: sp 0 +
STACK CFI INIT 628c0 4 .cfa: sp 0 +
STACK CFI INIT 628c4 4 .cfa: sp 0 +
STACK CFI INIT 628c8 e0 .cfa: sp 0 +
STACK CFI INIT 629a8 200 .cfa: sp 0 +
STACK CFI INIT 62ba8 20c .cfa: sp 0 +
STACK CFI INIT 62db4 35c .cfa: sp 0 +
STACK CFI 62e40 .cfa: sp 32 +
STACK CFI 62e44 v8: .cfa -8 + ^ v9: .cfa -16 + ^ v10: .cfa -32 + ^
STACK CFI 62e58 .cfa: sp 0 +
STACK CFI 62e5c .cfa: sp 32 +
STACK CFI 6310c .cfa: sp 0 +
STACK CFI INIT 63110 368 .cfa: sp 0 +
STACK CFI 63124 .cfa: sp 32 +
STACK CFI 63128 v8: .cfa -8 + ^ v9: .cfa -16 + ^ v10: .cfa -32 + ^
STACK CFI 631c8 .cfa: sp 0 + v8: v8 v9: v9 v10: v10
STACK CFI INIT 63478 8 .cfa: sp 0 +
STACK CFI INIT 63480 8 .cfa: sp 0 +
STACK CFI INIT 63488 58 .cfa: sp 0 +
STACK CFI INIT 634e0 408 .cfa: sp 0 +
STACK CFI 634e4 .cfa: sp 16 + v8: .cfa -16 + ^
STACK CFI 638e4 .cfa: sp 0 +
STACK CFI INIT 638e8 42c .cfa: sp 0 +
STACK CFI 638ec .cfa: sp 16 + v8: .cfa -16 + ^
STACK CFI 63d10 .cfa: sp 0 +
STACK CFI INIT 63d14 8 .cfa: sp 0 +
STACK CFI INIT 63d1c 8 .cfa: sp 0 +
STACK CFI INIT 63d24 200 .cfa: sp 0 +
STACK CFI INIT 63f24 20c .cfa: sp 0 +
STACK CFI INIT 64130 39c .cfa: sp 0 +
STACK CFI INIT 644cc 22c .cfa: sp 0 +
STACK CFI INIT 646f8 150 .cfa: sp 0 +
STACK CFI INIT 64848 35c .cfa: sp 0 +
STACK CFI 648d4 .cfa: sp 32 +
STACK CFI 648d8 v8: .cfa -8 + ^ v9: .cfa -16 + ^ v10: .cfa -32 + ^
STACK CFI 648ec .cfa: sp 0 +
STACK CFI 648f0 .cfa: sp 32 +
STACK CFI 64ba0 .cfa: sp 0 +
STACK CFI INIT 64ba4 60 .cfa: sp 0 +
STACK CFI INIT 64c04 b8 .cfa: sp 0 +
STACK CFI 64c08 .cfa: sp 64 +
STACK CFI 64c14 .cfa: x29 32 + x19: .cfa -8 + ^ x20: .cfa -16 + ^ .ra: .cfa -24 + ^ x29: .cfa -32 + ^
STACK CFI 64ca8 .cfa: sp 64 +
STACK CFI 64cb4 .cfa: sp 0 +
STACK CFI 64cb8 .cfa: x29 32 +
STACK CFI INIT 64cbc 7f0 .cfa: sp 0 +
STACK CFI 64cc0 .cfa: sp 112 +
STACK CFI 64cdc .cfa: x29 96 + x19: .cfa -8 + ^ x20: .cfa -16 + ^ x21: .cfa -24 + ^ x22: .cfa -32 + ^ x23: .cfa -40 + ^ x24: .cfa -48 + ^ x25: .cfa -56 + ^ x26: .cfa -64 + ^ x27: .cfa -72 + ^ x28: .cfa -80 + ^ .ra: .cfa -88 + ^ x29: .cfa -96 + ^ v8: .cfa -104 + ^ v9: .cfa -112 + ^
STACK CFI 65428 .cfa: sp 112 +
STACK CFI 65444 .cfa: sp 0 +
STACK CFI 65448 .cfa: x29 96 +
STACK CFI INIT 654ac 958 .cfa: sp 0 +
STACK CFI 654b0 .cfa: sp 112 +
STACK CFI 654cc .cfa: x29 96 + x19: .cfa -8 + ^ x20: .cfa -16 + ^ x21: .cfa -24 + ^ x22: .cfa -32 + ^ x23: .cfa -40 + ^ x24: .cfa -48 + ^ x25: .cfa -56 + ^ x26: .cfa -64 + ^ x27: .cfa -72 + ^ x28: .cfa -80 + ^ .ra: .cfa -88 + ^ x29: .cfa -96 + ^ v8: .cfa -104 + ^ v9: .cfa -112 + ^
STACK CFI 65cf4 .cfa: sp 112 +
STACK CFI 65d10 .cfa: sp 0 +
STACK CFI 65d14 .cfa: x29 96 +
STACK CFI INIT 65e04 7b4 .cfa: sp 0 +
STACK CFI 65e08 .cfa: sp 96 +
STACK CFI 65e20 .cfa: x29 96 + x19: .cfa -8 + ^ x20: .cfa -16 + ^ x21: .cfa -24 + ^ x22: .cfa -32 + ^ x23: .cfa -40 + ^ x24: .cfa -48 + ^ x25: .cfa -56 + ^ x26: .cfa -64 + ^ x27: .cfa -72 + ^ x28: .cfa -80 + ^ .ra: .cfa -88 + ^ x29: .cfa -96 + ^
STACK CFI 66538 .cfa: sp 96 +
STACK CFI 66550 .cfa: sp 0 +
STACK CFI 66554 .cfa: x29 96 +
STACK CFI INIT 665b8 91c .cfa: sp 0 +
STACK CFI 665bc .cfa: sp 96 +
STACK CFI 665d4 .cfa: x29 96 + x19: .cfa -8 + ^ x20: .cfa -16 + ^ x21: .cfa -24 + ^ x22: .cfa -32 + ^ x23: .cfa -40 + ^ x24: .cfa -48 + ^ x25: .cfa -56 + ^ x26: .cfa -64 + ^ x27: .cfa -72 + ^ x28: .cfa -80 + ^ .ra: .cfa -88 + ^ x29: .cfa -96 + ^
STACK CFI 66dc8 .cfa: sp 96 +
STACK CFI 66de0 .cfa: sp 0 +
STACK CFI 66de4 .cfa: x29 96 +
STACK CFI INIT 66ed4 40 .cfa: sp 0 +
STACK CFI INIT 66f14 60 .cfa: sp 0 +
STACK CFI INIT 66f74 b8 .cfa: sp 0 +
STACK CFI 66f78 .cfa: sp 64 +
STACK CFI 66f84 .cfa: x29 32 + x19: .cfa -8 + ^ x20: .cfa -16 + ^ .ra: .cfa -24 + ^ x29: .cfa -32 + ^
STACK CFI 67018 .cfa: sp 64 +
STACK CFI 67024 .cfa: sp 0 +
STACK CFI 67028 .cfa: x29 32 +
STACK CFI INIT 6702c 828 .cfa: sp 0 +
STACK CFI 67030 .cfa: sp 112 +
STACK CFI 6704c .cfa: x29 96 + x19: .cfa -8 + ^ x20: .cfa -16 + ^ x21: .cfa -24 + ^ x22: .cfa -32 + ^ x23: .cfa -40 + ^ x24: .cfa -48 + ^ x25: .cfa -56 + ^ x26: .cfa -64 + ^ x27: .cfa -72 + ^ x28: .cfa -80 + ^ .ra: .cfa -88 + ^ x29: .cfa -96 + ^ v8: .cfa -104 + ^ v9: .cfa -112 + ^
STACK CFI 677d8 .cfa: sp 112 +
STACK CFI 677f4 .cfa: sp 0 +
STACK CFI 677f8 .cfa: x29 96 +
STACK CFI INIT 67854 9fc .cfa: sp 0 +
STACK CFI 67858 .cfa: sp 112 +
STACK CFI 67874 .cfa: x29 96 + x19: .cfa -8 + ^ x20: .cfa -16 + ^ x21: .cfa -24 + ^ x22: .cfa -32 + ^ x23: .cfa -40 + ^ x24: .cfa -48 + ^ x25: .cfa -56 + ^ x26: .cfa -64 + ^ x27: .cfa -72 + ^ x28: .cfa -80 + ^ .ra: .cfa -88 + ^ x29: .cfa -96 + ^ v8: .cfa -104 + ^ v9: .cfa -112 + ^
STACK CFI 680e0 .cfa: sp 112 +
STACK CFI 680fc .cfa: sp 0 +
STACK CFI 68100 .cfa: x29 96 +
STACK CFI INIT 68250 7ec .cfa: sp 0 +
STACK CFI 68254 .cfa: sp 96 +
STACK CFI 6826c .cfa: x29 96 + x19: .cfa -8 + ^ x20: .cfa -16 + ^ x21: .cfa -24 + ^ x22: .cfa -32 + ^ x23: .cfa -40 + ^ x24: .cfa -48 + ^ x25: .cfa -56 + ^ x26: .cfa -64 + ^ x27: .cfa -72 + ^ x28: .cfa -80 + ^ .ra: .cfa -88 + ^ x29: .cfa -96 + ^
STACK CFI 689c4 .cfa: sp 96 +
STACK CFI 689dc .cfa: sp 0 +
STACK CFI 689e0 .cfa: x29 96 +
STACK CFI INIT 68a3c 9b8 .cfa: sp 0 +
STACK CFI 68a40 .cfa: sp 96 +
STACK CFI 68a58 .cfa: x29 96 + x19: .cfa -8 + ^ x20: .cfa -16 + ^ x21: .cfa -24 + ^ x22: .cfa -32 + ^ x23: .cfa -40 + ^ x24: .cfa -48 + ^ x25: .cfa -56 + ^ x26: .cfa -64 + ^ x27: .cfa -72 + ^ x28: .cfa -80 + ^ .ra: .cfa -88 + ^ x29: .cfa -96 + ^
STACK CFI 6928c .cfa: sp 96 +
STACK CFI 692a4 .cfa: sp 0 +
STACK CFI 692a8 .cfa: x29 96 +
STACK CFI INIT 693f4 40 .cfa: sp 0 +
STACK CFI INIT 69434 40 .cfa: sp 0 +
STACK CFI INIT 69474 1f8 .cfa: sp 0 +
STACK CFI INIT 6966c b0 .cfa: sp 0 +
STACK CFI 69670 .cfa: sp 48 +
STACK CFI 6967c .cfa: x29 48 + x19: .cfa -8 + ^ x20: .cfa -16 + ^ x21: .cfa -24 + ^ x22: .cfa -32 + ^ .ra: .cfa -40 + ^ x29: .cfa -48 + ^
STACK CFI 696b0 .cfa: sp 48 +
STACK CFI 696bc .cfa: sp 0 +
STACK CFI 696c0 .cfa: x29 48 +
STACK CFI 69704 .cfa: sp 48 +
STACK CFI 69710 .cfa: sp 0 +
STACK CFI 69714 .cfa: x29 48 +
STACK CFI INIT 6971c b0 .cfa: sp 0 +
STACK CFI 69720 .cfa: sp 48 +
STACK CFI 6972c .cfa: x29 48 + x19: .cfa -8 + ^ x20: .cfa -16 + ^ x21: .cfa -24 + ^ x22: .cfa -32 + ^ .ra: .cfa -40 + ^ x29: .cfa -48 + ^
STACK CFI 69760 .cfa: sp 48 +
STACK CFI 6976c .cfa: sp 0 +
STACK CFI 69770 .cfa: x29 48 +
STACK CFI 697b4 .cfa: sp 48 +
STACK CFI 697c0 .cfa: sp 0 +
STACK CFI 697c4 .cfa: x29 48 +
STACK CFI INIT 697cc 8 .cfa: sp 0 +
STACK CFI INIT 697d4 278 .cfa: sp 0 +
STACK CFI INIT 69a4c 1fc .cfa: sp 0 +
STACK CFI INIT 69c48 38c .cfa: sp 0 +
STACK CFI 69cc4 .cfa: sp 80 +
STACK CFI 69cd4 x19: .cfa -8 + ^ x20: .cfa -16 + ^ x21: .cfa -24 + ^ x22: .cfa -32 + ^ x23: .cfa -40 + ^ x24: .cfa -48 + ^ x25: .cfa -56 + ^ x26: .cfa -64 + ^ x27: .cfa -72 + ^ x28: .cfa -80 + ^
STACK CFI 69f4c .cfa: sp 0 +
STACK CFI 69f90 .cfa: sp 80 +
STACK CFI 69fd0 .cfa: sp 0 +
STACK CFI INIT 69fd4 30c .cfa: sp 0 +
STACK CFI INIT 6a2e0 358 .cfa: sp 0 +
STACK CFI INIT 6a638 3a4 .cfa: sp 0 +
STACK CFI 6a63c .cfa: sp 64 +
STACK CFI 6a64c .cfa: x29 48 + x19: .cfa -8 + ^ x20: .cfa -16 + ^ x21: .cfa -24 + ^ x22: .cfa -32 + ^ .ra: .cfa -40 + ^ x29: .cfa -48 + ^
STACK CFI 6a8bc .cfa: sp 64 +
STACK CFI 6a8cc .cfa: sp 0 +
STACK CFI 6a8d0 .cfa: x29 48 +
STACK CFI INIT 6a9dc 408 .cfa: sp 0 +
STACK CFI 6a9e0 .cfa: sp 96 +
STACK CFI 6a9f8 .cfa: x29 80 + x19: .cfa -8 + ^ x20: .cfa -16 + ^ x21: .cfa -24 + ^ x22: .cfa -32 + ^ x23: .cfa -40 + ^ x24: .cfa -48 + ^ x25: .cfa -56 + ^ x26: .cfa -64 + ^ .ra: .cfa -72 + ^ x29: .cfa -80 + ^
STACK CFI 6adc4 .cfa: sp 96 +
STACK CFI 6addc .cfa: sp 0 +
STACK CFI 6ade0 .cfa: x29 80 +
STACK CFI INIT 6ade4 4c .cfa: sp 0 +
STACK CFI 6ade8 .cfa: sp 32 +
STACK CFI 6adf0 .cfa: x29 32 + x19: .cfa -8 + ^ x20: .cfa -16 + ^ .ra: .cfa -24 + ^ x29: .cfa -32 + ^
STACK CFI 6ae18 .cfa: sp 32 +
STACK CFI 6ae20 .cfa: sp 0 +
STACK CFI 6ae24 .cfa: sp 32 +
STACK CFI 6ae2c .cfa: sp 0 +
STACK CFI INIT 6b050 64 .cfa: sp 0 +
STACK CFI 6b054 .cfa: sp 32 +
STACK CFI 6b05c .cfa: x29 32 + x19: .cfa -16 + ^ .ra: .cfa -24 + ^ x29: .cfa -32 + ^
STACK CFI 6b088 .cfa: sp 32 +
STACK CFI 6b090 .cfa: sp 0 +
STACK CFI 6b094 .cfa: x29 32 +
STACK CFI 6b0a8 .cfa: sp 32 +
STACK CFI 6b0b0 .cfa: sp 0 +
STACK CFI INIT 6b0b4 24 .cfa: sp 0 +
STACK CFI 6b0b8 .cfa: sp 32 +
STACK CFI 6b0c0 .cfa: x29 32 + x19: .cfa -16 + ^ .ra: .cfa -24 + ^ x29: .cfa -32 + ^
STACK CFI 6b0cc .cfa: sp 32 +
STACK CFI 6b0d4 .cfa: sp 0 +
STACK CFI INIT 6b334 24 .cfa: sp 0 +
STACK CFI 6b338 .cfa: sp 32 +
STACK CFI 6b340 .cfa: x29 32 + x19: .cfa -16 + ^ .ra: .cfa -24 + ^ x29: .cfa -32 + ^
STACK CFI 6b34c .cfa: sp 32 +
STACK CFI 6b354 .cfa: sp 0 +
STACK CFI INIT 6b5c4 24 .cfa: sp 0 +
STACK CFI 6b5c8 .cfa: sp 32 +
STACK CFI 6b5d0 .cfa: x29 32 + x19: .cfa -16 + ^ .ra: .cfa -24 + ^ x29: .cfa -32 + ^
STACK CFI 6b5dc .cfa: sp 32 +
STACK CFI 6b5e4 .cfa: sp 0 +
STACK CFI INIT 6b5e8 8 .cfa: sp 0 +
STACK CFI INIT 6b5f0 24 .cfa: sp 0 +
STACK CFI 6b5f4 .cfa: sp 32 +
STACK CFI 6b5fc .cfa: x29 32 + x19: .cfa -16 + ^ .ra: .cfa -24 + ^ x29: .cfa -32 + ^
STACK CFI 6b608 .cfa: sp 32 +
STACK CFI 6b610 .cfa: sp 0 +
STACK CFI INIT 6b614 28 .cfa: sp 0 +
STACK CFI 6b618 .cfa: sp 32 +
STACK CFI 6b620 .cfa: x29 32 + x19: .cfa -16 + ^ .ra: .cfa -24 + ^ x29: .cfa -32 + ^
STACK CFI 6b630 .cfa: sp 32 +
STACK CFI 6b638 .cfa: sp 0 +
STACK CFI INIT 6b93c 8 .cfa: sp 0 +
STACK CFI INIT 6b944 24 .cfa: sp 0 +
STACK CFI 6b948 .cfa: sp 32 +
STACK CFI 6b950 .cfa: x29 32 + x19: .cfa -16 + ^ .ra: .cfa -24 + ^ x29: .cfa -32 + ^
STACK CFI 6b95c .cfa: sp 32 +
STACK CFI 6b964 .cfa: sp 0 +
STACK CFI INIT 6b968 28 .cfa: sp 0 +
STACK CFI 6b96c .cfa: sp 32 +
STACK CFI 6b974 .cfa: x29 32 + x19: .cfa -16 + ^ .ra: .cfa -24 + ^ x29: .cfa -32 + ^
STACK CFI 6b984 .cfa: sp 32 +
STACK CFI 6b98c .cfa: sp 0 +
STACK CFI INIT 6bbf4 8 .cfa: sp 0 +
STACK CFI INIT 6bbfc 24 .cfa: sp 0 +
STACK CFI 6bc00 .cfa: sp 32 +
STACK CFI 6bc08 .cfa: x29 32 + x19: .cfa -16 + ^ .ra: .cfa -24 + ^ x29: .cfa -32 + ^
STACK CFI 6bc14 .cfa: sp 32 +
STACK CFI 6bc1c .cfa: sp 0 +
STACK CFI INIT 6bc20 28 .cfa: sp 0 +
STACK CFI 6bc24 .cfa: sp 32 +
STACK CFI 6bc2c .cfa: x29 32 + x19: .cfa -16 + ^ .ra: .cfa -24 + ^ x29: .cfa -32 + ^
STACK CFI 6bc3c .cfa: sp 32 +
STACK CFI 6bc44 .cfa: sp 0 +
STACK CFI INIT 6beb8 24 .cfa: sp 0 +
STACK CFI 6bebc .cfa: sp 32 +
STACK CFI 6bec4 .cfa: x29 32 + x19: .cfa -16 + ^ .ra: .cfa -24 + ^ x29: .cfa -32 + ^
STACK CFI 6bed0 .cfa: sp 32 +
STACK CFI 6bed8 .cfa: sp 0 +
STACK CFI INIT 6c594 24 .cfa: sp 0 +
STACK CFI 6c598 .cfa: sp 32 +
STACK CFI 6c5a0 .cfa: x29 32 + x19: .cfa -16 + ^ .ra: .cfa -24 + ^ x29: .cfa -32 + ^
STACK CFI 6c5ac .cfa: sp 32 +
STACK CFI 6c5b4 .cfa: sp 0 +
STACK CFI INIT 6c5b8 9c .cfa: sp 0 +
STACK CFI 6c5bc .cfa: sp 32 +
STACK CFI 6c5c4 .cfa: x29 32 + x19: .cfa -16 + ^ .ra: .cfa -24 + ^ x29: .cfa -32 + ^
STACK CFI 6c648 .cfa: sp 32 +
STACK CFI 6c650 .cfa: sp 0 +
STACK CFI INIT 6c654 8 .cfa: sp 0 +
STACK CFI INIT 6c65c 24 .cfa: sp 0 +
STACK CFI 6c660 .cfa: sp 32 +
STACK CFI 6c668 .cfa: x29 32 + x19: .cfa -16 + ^ .ra: .cfa -24 + ^ x29: .cfa -32 + ^
STACK CFI 6c674 .cfa: sp 32 +
STACK CFI 6c67c .cfa: sp 0 +
STACK CFI INIT 6c680 28 .cfa: sp 0 +
STACK CFI 6c684 .cfa: sp 32 +
STACK CFI 6c68c .cfa: x29 32 + x19: .cfa -16 + ^ .ra: .cfa -24 + ^ x29: .cfa -32 + ^
STACK CFI 6c69c .cfa: sp 32 +
STACK CFI 6c6a4 .cfa: sp 0 +
STACK CFI INIT 6c960 28 .cfa: sp 0 +
STACK CFI INIT 6c988 14 .cfa: sp 0 +
STACK CFI INIT 6c99c 18 .cfa: sp 0 +
STACK CFI 6c9a0 .cfa: sp 16 +
STACK CFI 6c9a4 .cfa: x29 16 + .ra: .cfa -8 + ^ x29: .cfa -16 + ^
STACK CFI 6c9ac .cfa: sp 16 +
STACK CFI 6c9b0 .cfa: sp 0 +
STACK CFI INIT 6c9b4 4 .cfa: sp 0 +
STACK CFI INIT 6db58 4 .cfa: sp 0 +
STACK CFI INIT 6db5c 14 .cfa: sp 0 +
STACK CFI INIT 6e07c c .cfa: sp 0 +
STACK CFI INIT 6e088 24c .cfa: sp 0 +
STACK CFI INIT 6e2d4 a0 .cfa: sp 0 +
STACK CFI 6e2e0 .cfa: sp 32 +
STACK CFI 6e338 .cfa: sp 0 +
STACK CFI 6e33c .cfa: sp 32 +
STACK CFI 6e344 .cfa: sp 0 +
STACK CFI 6e348 .cfa: sp 32 +
STACK CFI 6e35c .cfa: sp 0 +
STACK CFI 6e360 .cfa: sp 32 +
STACK CFI 6e370 .cfa: sp 0 +
STACK CFI INIT 6e374 38 .cfa: sp 0 +
STACK CFI 6e380 .cfa: sp 32 +
STACK CFI 6e3a8 .cfa: sp 0 +
STACK CFI INIT 6e640 7c .cfa: sp 0 +
STACK CFI 6e644 .cfa: sp 32 +
STACK CFI 6e64c .cfa: x29 32 + x19: .cfa -16 + ^ .ra: .cfa -24 + ^ x29: .cfa -32 + ^
STACK CFI 6e678 .cfa: sp 32 +
STACK CFI 6e680 .cfa: sp 0 +
STACK CFI 6e684 .cfa: x29 32 +
STACK CFI 6e6b0 .cfa: sp 32 +
STACK CFI 6e6b8 .cfa: sp 0 +
STACK CFI INIT 6e70c 2c .cfa: sp 0 +
STACK CFI 6e710 .cfa: sp 32 +
STACK CFI 6e718 .cfa: x29 32 + x19: .cfa -16 + ^ .ra: .cfa -24 + ^ x29: .cfa -32 + ^
STACK CFI 6e72c .cfa: sp 32 +
STACK CFI 6e734 .cfa: sp 0 +
STACK CFI INIT 6eef8 64 .cfa: sp 0 +
STACK CFI 6eefc .cfa: sp 32 +
STACK CFI 6ef04 .cfa: x29 32 + x19: .cfa -16 + ^ .ra: .cfa -24 + ^ x29: .cfa -32 + ^
STACK CFI 6ef20 .cfa: sp 32 +
STACK CFI 6ef28 .cfa: sp 0 +
STACK CFI 6ef2c .cfa: x29 32 +
STACK CFI 6ef50 .cfa: sp 32 +
STACK CFI 6ef58 .cfa: sp 0 +
STACK CFI INIT 6f0a8 570 .cfa: sp 0 +
STACK CFI 6f0ac .cfa: sp 176 +
STACK CFI 6f0c0 .cfa: x29 64 + x19: .cfa -8 + ^ x20: .cfa -16 + ^ x21: .cfa -24 + ^ x22: .cfa -32 + ^ x23: .cfa -40 + ^ x24: .cfa -48 + ^ .ra: .cfa -56 + ^ x29: .cfa -64 + ^
STACK CFI 6f2f0 .cfa: sp 176 +
STACK CFI 6f304 .cfa: sp 0 +
STACK CFI 6f308 .cfa: x29 64 +
STACK CFI 6f354 .cfa: sp 176 +
STACK CFI 6f368 .cfa: sp 0 +
STACK CFI 6f36c .cfa: x29 64 +
STACK CFI 6f3a4 .cfa: sp 176 +
STACK CFI 6f3b8 .cfa: sp 0 +
STACK CFI 6f3bc .cfa: x29 64 +
STACK CFI 6f3d4 .cfa: sp 176 +
STACK CFI 6f3e8 .cfa: sp 0 +
STACK CFI 6f3ec .cfa: x29 64 +
STACK CFI 6f40c .cfa: sp 176 +
STACK CFI 6f420 .cfa: sp 0 +
STACK CFI 6f424 .cfa: x29 64 +
STACK CFI 6f43c .cfa: sp 176 +
STACK CFI 6f450 .cfa: sp 0 +
STACK CFI 6f454 .cfa: x29 64 +
STACK CFI 6f468 .cfa: sp 176 +
STACK CFI 6f47c .cfa: sp 0 +
STACK CFI 6f480 .cfa: x29 64 +
STACK CFI 6f494 .cfa: sp 176 +
STACK CFI 6f4a8 .cfa: sp 0 +
STACK CFI 6f4ac .cfa: x29 64 +
STACK CFI 6f4bc .cfa: sp 176 +
STACK CFI 6f4d0 .cfa: sp 0 +
STACK CFI 6f4d4 .cfa: x29 64 +
STACK CFI 6f4e4 .cfa: sp 176 +
STACK CFI 6f4f8 .cfa: sp 0 +
STACK CFI 6f4fc .cfa: x29 64 +
STACK CFI 6f514 .cfa: sp 176 +
STACK CFI 6f528 .cfa: sp 0 +
STACK CFI 6f52c .cfa: x29 64 +
STACK CFI 6f540 .cfa: sp 176 +
STACK CFI 6f554 .cfa: sp 0 +
STACK CFI 6f558 .cfa: x29 64 +
STACK CFI 6f570 .cfa: sp 176 +
STACK CFI 6f584 .cfa: sp 0 +
STACK CFI 6f588 .cfa: x29 64 +
STACK CFI 6f5b4 .cfa: sp 176 +
STACK CFI 6f5c8 .cfa: sp 0 +
STACK CFI 6f5cc .cfa: x29 64 +
STACK CFI 6f5e0 .cfa: sp 176 +
STACK CFI 6f5f4 .cfa: sp 0 +
STACK CFI 6f5f8 .cfa: x29 64 +
STACK CFI INIT 6f618 228 .cfa: sp 0 +
STACK CFI INIT 6f840 2dc .cfa: sp 0 +
STACK CFI INIT 6fb1c 53c .cfa: sp 0 +
STACK CFI INIT 70058 8c .cfa: sp 0 +
STACK CFI 7005c .cfa: sp 32 +
STACK CFI 70064 .cfa: x29 32 + x19: .cfa -16 + ^ .ra: .cfa -24 + ^ x29: .cfa -32 + ^
STACK CFI 70098 .cfa: sp 32 +
STACK CFI 700a0 .cfa: sp 0 +
STACK CFI 700a4 .cfa: x29 32 +
STACK CFI 700d8 .cfa: sp 32 +
STACK CFI 700e0 .cfa: sp 0 +
STACK CFI INIT 700e4 24 .cfa: sp 0 +
STACK CFI 700e8 .cfa: sp 32 +
STACK CFI 700f0 .cfa: x29 32 + x19: .cfa -16 + ^ .ra: .cfa -24 + ^ x29: .cfa -32 + ^
STACK CFI 700fc .cfa: sp 32 +
STACK CFI 70104 .cfa: sp 0 +
STACK CFI INIT 70108 150 .cfa: sp 0 +
STACK CFI 7010c .cfa: sp 48 +
STACK CFI 70118 .cfa: x29 48 + x19: .cfa -8 + ^ x20: .cfa -16 + ^ x21: .cfa -24 + ^ x22: .cfa -32 + ^ .ra: .cfa -40 + ^ x29: .cfa -48 + ^
STACK CFI 70248 .cfa: sp 48 +
STACK CFI 70254 .cfa: sp 0 +
STACK CFI INIT 70258 68 .cfa: sp 0 +
STACK CFI 7025c .cfa: sp 64 +
STACK CFI 70268 .cfa: x29 32 + x19: .cfa -16 + ^ .ra: .cfa -24 + ^ x29: .cfa -32 + ^
STACK CFI 702ac .cfa: sp 64 +
STACK CFI 702b8 .cfa: sp 0 +
STACK CFI 702bc .cfa: x29 32 +
STACK CFI INIT 702c0 90 .cfa: sp 0 +
STACK CFI 702c4 .cfa: sp 32 +
STACK CFI 702cc .cfa: x29 32 + x19: .cfa -8 + ^ x20: .cfa -16 + ^ .ra: .cfa -24 + ^ x29: .cfa -32 + ^
STACK CFI 702f8 .cfa: sp 32 +
STACK CFI 70300 .cfa: sp 0 +
STACK CFI 70304 .cfa: x29 32 +
STACK CFI 70344 .cfa: sp 32 +
STACK CFI 7034c .cfa: sp 0 +
STACK CFI INIT 70350 ec .cfa: sp 0 +
STACK CFI 70354 .cfa: sp 112 +
STACK CFI 70364 .cfa: x29 48 + x19: .cfa -8 + ^ x20: .cfa -16 + ^ x21: .cfa -32 + ^ .ra: .cfa -40 + ^ x29: .cfa -48 + ^
STACK CFI 70424 .cfa: sp 112 +
STACK CFI 70434 .cfa: sp 0 +
STACK CFI 70438 .cfa: x29 48 +
STACK CFI INIT 7043c ec .cfa: sp 0 +
STACK CFI 70440 .cfa: sp 112 +
STACK CFI 70450 .cfa: x29 48 + x19: .cfa -8 + ^ x20: .cfa -16 + ^ x21: .cfa -32 + ^ .ra: .cfa -40 + ^ x29: .cfa -48 + ^
STACK CFI 70510 .cfa: sp 112 +
STACK CFI 70520 .cfa: sp 0 +
STACK CFI 70524 .cfa: x29 48 +
STACK CFI INIT 70528 48 .cfa: sp 0 +
STACK CFI 7052c .cfa: sp 32 +
STACK CFI 70534 .cfa: x29 32 + x19: .cfa -8 + ^ x20: .cfa -16 + ^ .ra: .cfa -24 + ^ x29: .cfa -32 + ^
STACK CFI 70558 .cfa: sp 32 +
STACK CFI 70560 .cfa: sp 0 +
STACK CFI 70564 .cfa: x29 32 +
STACK CFI INIT 70570 98 .cfa: sp 0 +
STACK CFI 70574 .cfa: sp 80 +
STACK CFI 70580 .cfa: x29 32 + x19: .cfa -16 + ^ .ra: .cfa -24 + ^ x29: .cfa -32 + ^
STACK CFI 705f4 .cfa: sp 80 +
STACK CFI 70600 .cfa: sp 0 +
STACK CFI 70604 .cfa: x29 32 +
STACK CFI INIT 70608 260 .cfa: sp 0 +
STACK CFI 7060c .cfa: sp 112 +
STACK CFI 70624 .cfa: x29 80 + x19: .cfa -8 + ^ x20: .cfa -16 + ^ x21: .cfa -24 + ^ x22: .cfa -32 + ^ x23: .cfa -40 + ^ x24: .cfa -48 + ^ x25: .cfa -64 + ^ .ra: .cfa -72 + ^ x29: .cfa -80 + ^
STACK CFI 70808 .cfa: sp 112 +
STACK CFI 70820 .cfa: sp 0 +
STACK CFI 70824 .cfa: x29 80 +
STACK CFI INIT 70868 150 .cfa: sp 0 +
STACK CFI 7086c .cfa: sp 48 +
STACK CFI 70878 .cfa: x29 48 + x19: .cfa -8 + ^ x20: .cfa -16 + ^ x21: .cfa -24 + ^ x22: .cfa -32 + ^ .ra: .cfa -40 + ^ x29: .cfa -48 + ^
STACK CFI 709a8 .cfa: sp 48 +
STACK CFI 709b4 .cfa: sp 0 +
STACK CFI INIT 709b8 1e0 .cfa: sp 0 +
STACK CFI 709bc .cfa: sp 96 +
STACK CFI 709d0 .cfa: x29 64 + x19: .cfa -8 + ^ x20: .cfa -16 + ^ x21: .cfa -24 + ^ x22: .cfa -32 + ^ x23: .cfa -40 + ^ x24: .cfa -48 + ^ .ra: .cfa -56 + ^ x29: .cfa -64 + ^
STACK CFI 70b50 .cfa: sp 96 +
STACK CFI 70b64 .cfa: sp 0 +
STACK CFI 70b68 .cfa: x29 64 +
STACK CFI INIT 70b98 284 .cfa: sp 0 +
STACK CFI 70b9c .cfa: sp 112 +
STACK CFI 70bb4 .cfa: x29 80 + x19: .cfa -8 + ^ x20: .cfa -16 + ^ x21: .cfa -24 + ^ x22: .cfa -32 + ^ x23: .cfa -40 + ^ x24: .cfa -48 + ^ x25: .cfa -64 + ^ .ra: .cfa -72 + ^ x29: .cfa -80 + ^
STACK CFI 70dbc .cfa: sp 112 +
STACK CFI 70dd4 .cfa: sp 0 +
STACK CFI 70dd8 .cfa: x29 80 +
STACK CFI INIT 70e1c 208 .cfa: sp 0 +
STACK CFI 70e20 .cfa: sp 96 +
STACK CFI 70e34 .cfa: x29 64 + x19: .cfa -8 + ^ x20: .cfa -16 + ^ x21: .cfa -24 + ^ x22: .cfa -32 + ^ x23: .cfa -40 + ^ x24: .cfa -48 + ^ .ra: .cfa -56 + ^ x29: .cfa -64 + ^
STACK CFI 70fdc .cfa: sp 96 +
STACK CFI 70ff0 .cfa: sp 0 +
STACK CFI 70ff4 .cfa: x29 64 +
STACK CFI INIT 71024 360 .cfa: sp 0 +
STACK CFI 71028 .cfa: sp 160 +
STACK CFI 71044 .cfa: x29 96 + x19: .cfa -8 + ^ x20: .cfa -16 + ^ x21: .cfa -24 + ^ x22: .cfa -32 + ^ x23: .cfa -40 + ^ x24: .cfa -48 + ^ x25: .cfa -56 + ^ x26: .cfa -64 + ^ x27: .cfa -72 + ^ x28: .cfa -80 + ^ .ra: .cfa -88 + ^ x29: .cfa -96 + ^
STACK CFI 71310 .cfa: sp 160 +
STACK CFI 7132c .cfa: sp 0 +
STACK CFI 71330 .cfa: x29 96 +
STACK CFI INIT 71384 314 .cfa: sp 0 +
STACK CFI 71388 .cfa: sp 144 +
STACK CFI 713a4 .cfa: x29 96 + x19: .cfa -8 + ^ x20: .cfa -16 + ^ x21: .cfa -24 + ^ x22: .cfa -32 + ^ x23: .cfa -40 + ^ x24: .cfa -48 + ^ x25: .cfa -56 + ^ x26: .cfa -64 + ^ x27: .cfa -72 + ^ x28: .cfa -80 + ^ .ra: .cfa -88 + ^ x29: .cfa -96 + ^
STACK CFI 71620 .cfa: sp 144 +
STACK CFI 7163c .cfa: sp 0 +
STACK CFI 71640 .cfa: x29 96 +
STACK CFI INIT 71698 2b4 .cfa: sp 0 +
STACK CFI 7169c .cfa: sp 128 +
STACK CFI 716b4 .cfa: x29 80 + x19: .cfa -8 + ^ x20: .cfa -16 + ^ x21: .cfa -24 + ^ x22: .cfa -32 + ^ x23: .cfa -40 + ^ x24: .cfa -48 + ^ x25: .cfa -56 + ^ x26: .cfa -64 + ^ .ra: .cfa -72 + ^ x29: .cfa -80 + ^
STACK CFI 718a8 .cfa: sp 128 +
STACK CFI 718c0 .cfa: sp 0 +
STACK CFI 718c4 .cfa: x29 80 +
STACK CFI 7192c .cfa: sp 128 +
STACK CFI 71944 .cfa: sp 0 +
STACK CFI 71948 .cfa: x29 80 +
STACK CFI INIT 7194c dcc .cfa: sp 0 +
STACK CFI 71950 .cfa: sp 144 +
STACK CFI 7196c .cfa: x29 96 + x19: .cfa -8 + ^ x20: .cfa -16 + ^ x21: .cfa -24 + ^ x22: .cfa -32 + ^ x23: .cfa -40 + ^ x24: .cfa -48 + ^ x25: .cfa -56 + ^ x26: .cfa -64 + ^ x27: .cfa -72 + ^ x28: .cfa -80 + ^ .ra: .cfa -88 + ^ x29: .cfa -96 + ^
STACK CFI 725f0 .cfa: sp 144 +
STACK CFI 7260c .cfa: sp 0 +
STACK CFI 72610 .cfa: x29 96 +
STACK CFI INIT 72718 264 .cfa: sp 0 +
STACK CFI 7271c .cfa: sp 112 +
STACK CFI 72730 .cfa: x29 64 + x19: .cfa -8 + ^ x20: .cfa -16 + ^ x21: .cfa -24 + ^ x22: .cfa -32 + ^ x23: .cfa -40 + ^ x24: .cfa -48 + ^ .ra: .cfa -56 + ^ x29: .cfa -64 + ^
STACK CFI 728ac .cfa: sp 112 +
STACK CFI 728c0 .cfa: sp 0 +
STACK CFI 728c4 .cfa: x29 64 +
STACK CFI 72934 .cfa: sp 112 +
STACK CFI 72948 .cfa: sp 0 +
STACK CFI 7294c .cfa: x29 64 +
STACK CFI INIT 7297c 258 .cfa: sp 0 +
STACK CFI 72980 .cfa: sp 96 +
STACK CFI 72998 .cfa: x29 96 + x19: .cfa -8 + ^ x20: .cfa -16 + ^ x21: .cfa -24 + ^ x22: .cfa -32 + ^ x23: .cfa -40 + ^ x24: .cfa -48 + ^ x25: .cfa -56 + ^ x26: .cfa -64 + ^ x27: .cfa -72 + ^ x28: .cfa -80 + ^ .ra: .cfa -88 + ^ x29: .cfa -96 + ^
STACK CFI 72b90 .cfa: sp 96 +
STACK CFI 72ba8 .cfa: sp 0 +
STACK CFI 72bac .cfa: x29 96 +
STACK CFI 72bb8 .cfa: sp 96 +
STACK CFI 72bd0 .cfa: sp 0 +
STACK CFI INIT 73858 154 .cfa: sp 0 +
STACK CFI 7385c .cfa: sp 96 +
STACK CFI 73870 .cfa: x29 64 + x19: .cfa -8 + ^ x20: .cfa -16 + ^ x21: .cfa -24 + ^ x22: .cfa -32 + ^ x23: .cfa -48 + ^ .ra: .cfa -56 + ^ x29: .cfa -64 + ^
STACK CFI 73950 .cfa: sp 96 +
STACK CFI 73964 .cfa: sp 0 +
STACK CFI 73968 .cfa: x29 64 +
STACK CFI INIT 73c14 44 .cfa: sp 0 +
STACK CFI 73c18 .cfa: sp 32 +
STACK CFI 73c20 .cfa: x29 32 + x19: .cfa -16 + ^ .ra: .cfa -24 + ^ x29: .cfa -32 + ^
STACK CFI 73c3c .cfa: sp 32 +
STACK CFI 73c44 .cfa: sp 0 +
STACK CFI 73c48 .cfa: x29 32 +
STACK CFI 73c4c .cfa: sp 32 +
STACK CFI 73c54 .cfa: sp 0 +
STACK CFI INIT 73c58 1d0 .cfa: sp 0 +
STACK CFI 73c5c .cfa: sp 64 +
STACK CFI 73c6c .cfa: x29 64 + x19: .cfa -8 + ^ x20: .cfa -16 + ^ x21: .cfa -24 + ^ x22: .cfa -32 + ^ x23: .cfa -40 + ^ x24: .cfa -48 + ^ .ra: .cfa -56 + ^ x29: .cfa -64 + ^
STACK CFI 73d2c .cfa: sp 64 +
STACK CFI 73d3c .cfa: sp 0 +
STACK CFI 73d40 .cfa: x29 64 +
STACK CFI INIT 73e28 17c .cfa: sp 0 +
STACK CFI INIT 7435c a0 .cfa: sp 0 +
STACK CFI 74360 .cfa: sp 48 +
STACK CFI 7436c .cfa: x29 48 + x19: .cfa -8 + ^ x20: .cfa -16 + ^ x21: .cfa -24 + ^ x22: .cfa -32 + ^ .ra: .cfa -40 + ^ x29: .cfa -48 + ^
STACK CFI 743d8 .cfa: sp 48 +
STACK CFI 743e4 .cfa: sp 0 +
STACK CFI 743e8 .cfa: sp 48 +
STACK CFI 743f4 .cfa: sp 0 +
STACK CFI 743f8 .cfa: x29 48 +
STACK CFI INIT 750b8 158 .cfa: sp 0 +
STACK CFI 750bc .cfa: sp 96 +
STACK CFI 750d0 .cfa: x29 64 + x19: .cfa -8 + ^ x20: .cfa -16 + ^ x21: .cfa -24 + ^ x22: .cfa -32 + ^ x23: .cfa -48 + ^ .ra: .cfa -56 + ^ x29: .cfa -64 + ^
STACK CFI 751b4 .cfa: sp 96 +
STACK CFI 751c8 .cfa: sp 0 +
STACK CFI 751cc .cfa: x29 64 +
STACK CFI INIT 75210 190 .cfa: sp 0 +
STACK CFI INIT 75e80 1f4 .cfa: sp 0 +
STACK CFI 75e84 .cfa: sp 80 +
STACK CFI 75e98 .cfa: x29 80 + x19: .cfa -8 + ^ x20: .cfa -16 + ^ x21: .cfa -24 + ^ x22: .cfa -32 + ^ x23: .cfa -40 + ^ x24: .cfa -48 + ^ x25: .cfa -64 + ^ .ra: .cfa -72 + ^ x29: .cfa -80 + ^
STACK CFI 76038 .cfa: sp 80 +
STACK CFI 7604c .cfa: sp 0 +
STACK CFI 76050 .cfa: x29 80 +
STACK CFI 7605c .cfa: sp 80 +
STACK CFI 76070 .cfa: sp 0 +
STACK CFI INIT 77498 124 .cfa: sp 0 +
STACK CFI 774c8 .cfa: sp 32 +
STACK CFI 774d0 .cfa: x29 32 + x19: .cfa -8 + ^ x20: .cfa -16 + ^ .ra: .cfa -24 + ^ x29: .cfa -32 + ^
STACK CFI 775b0 .cfa: sp 32 +
STACK CFI 775b8 .cfa: sp 0 +
STACK CFI INIT 77d18 324 .cfa: sp 0 +
STACK CFI 77d1c .cfa: sp 64 +
STACK CFI 77d2c .cfa: x29 64 + x19: .cfa -8 + ^ x20: .cfa -16 + ^ x21: .cfa -24 + ^ x22: .cfa -32 + ^ x23: .cfa -40 + ^ x24: .cfa -48 + ^ .ra: .cfa -56 + ^ x29: .cfa -64 + ^
STACK CFI 77da8 .cfa: sp 64 +
STACK CFI 77db8 .cfa: sp 0 +
STACK CFI 77dbc .cfa: x29 64 +
STACK CFI 77f94 .cfa: sp 64 +
STACK CFI 77fa4 .cfa: sp 0 +
STACK CFI 77fa8 .cfa: x29 64 +
STACK CFI 77fb8 .cfa: sp 64 +
STACK CFI 77fc8 .cfa: sp 0 +
STACK CFI 77fcc .cfa: x29 64 +
STACK CFI INIT 7803c a0 .cfa: sp 0 +
STACK CFI 78040 .cfa: sp 48 +
STACK CFI 7804c .cfa: x29 48 + x19: .cfa -8 + ^ x20: .cfa -16 + ^ x21: .cfa -24 + ^ x22: .cfa -32 + ^ .ra: .cfa -40 + ^ x29: .cfa -48 + ^
STACK CFI 780b8 .cfa: sp 48 +
STACK CFI 780c4 .cfa: sp 0 +
STACK CFI 780c8 .cfa: sp 48 +
STACK CFI 780d4 .cfa: sp 0 +
STACK CFI 780d8 .cfa: x29 48 +
STACK CFI INIT 78fb8 160 .cfa: sp 0 +
STACK CFI 78fbc .cfa: sp 64 +
STACK CFI 78fcc .cfa: x29 64 + x19: .cfa -8 + ^ x20: .cfa -16 + ^ x21: .cfa -24 + ^ x22: .cfa -32 + ^ x23: .cfa -48 + ^ .ra: .cfa -56 + ^ x29: .cfa -64 + ^
STACK CFI 790c4 .cfa: sp 64 +
STACK CFI 790d4 .cfa: sp 0 +
STACK CFI 790d8 .cfa: x29 64 +
STACK CFI INIT 79118 214 .cfa: sp 0 +
STACK CFI 7911c .cfa: sp 128 +
STACK CFI 79138 .cfa: x29 96 + x19: .cfa -8 + ^ x20: .cfa -16 + ^ x21: .cfa -24 + ^ x22: .cfa -32 + ^ x23: .cfa -40 + ^ x24: .cfa -48 + ^ x25: .cfa -56 + ^ x26: .cfa -64 + ^ x27: .cfa -80 + ^ .ra: .cfa -88 + ^ x29: .cfa -96 + ^
STACK CFI 792b4 .cfa: sp 128 +
STACK CFI 792d0 .cfa: sp 0 +
STACK CFI 792d4 .cfa: x29 96 +
STACK CFI INIT 7ae60 e58 .cfa: sp 0 +
STACK CFI 7ae64 .cfa: sp 192 +
STACK CFI 7ae80 .cfa: x29 96 + x19: .cfa -8 + ^ x20: .cfa -16 + ^ x21: .cfa -24 + ^ x22: .cfa -32 + ^ x23: .cfa -40 + ^ x24: .cfa -48 + ^ x25: .cfa -56 + ^ x26: .cfa -64 + ^ x27: .cfa -72 + ^ x28: .cfa -80 + ^ .ra: .cfa -88 + ^ x29: .cfa -96 + ^
STACK CFI 7bba0 .cfa: sp 192 +
STACK CFI 7bbbc .cfa: sp 0 +
STACK CFI 7bbc0 .cfa: x29 96 +
STACK CFI INIT 7bcb8 1090 .cfa: sp 0 +
STACK CFI 7bcbc .cfa: sp 288 +
STACK CFI 7bcd8 .cfa: x29 96 + x19: .cfa -8 + ^ x20: .cfa -16 + ^ x21: .cfa -24 + ^ x22: .cfa -32 + ^ x23: .cfa -40 + ^ x24: .cfa -48 + ^ x25: .cfa -56 + ^ x26: .cfa -64 + ^ x27: .cfa -72 + ^ x28: .cfa -80 + ^ .ra: .cfa -88 + ^ x29: .cfa -96 + ^
STACK CFI 7ca90 .cfa: sp 288 +
STACK CFI 7caac .cfa: sp 0 +
STACK CFI 7cab0 .cfa: x29 96 +
STACK CFI INIT 7cd48 520 .cfa: sp 0 +
STACK CFI 7cd4c .cfa: sp 144 +
STACK CFI 7cd68 .cfa: x29 96 + x19: .cfa -8 + ^ x20: .cfa -16 + ^ x21: .cfa -24 + ^ x22: .cfa -32 + ^ x23: .cfa -40 + ^ x24: .cfa -48 + ^ x25: .cfa -56 + ^ x26: .cfa -64 + ^ x27: .cfa -72 + ^ x28: .cfa -80 + ^ .ra: .cfa -88 + ^ x29: .cfa -96 + ^
STACK CFI 7d244 .cfa: sp 144 +
STACK CFI 7d260 .cfa: sp 0 +
STACK CFI 7d264 .cfa: x29 96 +
STACK CFI INIT 39c50 b4 .cfa: sp 0 +
STACK CFI 39c54 .cfa: sp 32 +
STACK CFI 39c5c .cfa: x29 32 + x19: .cfa -16 + ^ .ra: .cfa -24 + ^ x29: .cfa -32 + ^
STACK CFI 39cd4 .cfa: sp 32 +
STACK CFI 39cdc .cfa: sp 0 +
STACK CFI 39ce0 .cfa: sp 32 +
STACK CFI 39ce8 .cfa: sp 0 +
STACK CFI 39cec .cfa: x29 32 +
STACK CFI INIT 39d04 a0 .cfa: sp 0 +
STACK CFI 39d08 .cfa: sp 32 +
STACK CFI 39d10 .cfa: x29 32 + x19: .cfa -16 + ^ .ra: .cfa -24 + ^ x29: .cfa -32 + ^
STACK CFI 39d28 .cfa: sp 32 +
STACK CFI 39d30 .cfa: sp 0 +
STACK CFI 39d34 .cfa: x29 32 +
STACK CFI 39d80 .cfa: sp 32 +
STACK CFI 39d88 .cfa: sp 0 +
STACK CFI 39d8c .cfa: x29 32 +
STACK CFI INIT 39e4c 1a4 .cfa: sp 0 +
STACK CFI 39e50 .cfa: sp 112 +
STACK CFI 39e64 .cfa: x29 64 + x19: .cfa -8 + ^ x20: .cfa -16 + ^ x21: .cfa -24 + ^ x22: .cfa -32 + ^ x23: .cfa -48 + ^ .ra: .cfa -56 + ^ x29: .cfa -64 + ^
STACK CFI 39f68 .cfa: sp 112 +
STACK CFI 39f7c .cfa: sp 0 +
STACK CFI 39f80 .cfa: x29 64 +
STACK CFI INIT 3a28c 408 .cfa: sp 0 +
STACK CFI 3a290 .cfa: sp 112 +
STACK CFI 3a2a8 .cfa: x29 80 + x19: .cfa -8 + ^ x20: .cfa -16 + ^ x21: .cfa -24 + ^ x22: .cfa -32 + ^ x23: .cfa -40 + ^ x24: .cfa -48 + ^ x25: .cfa -64 + ^ .ra: .cfa -72 + ^ x29: .cfa -80 + ^
STACK CFI 3a604 .cfa: sp 112 +
STACK CFI 3a61c .cfa: sp 0 +
STACK CFI 3a620 .cfa: x29 80 +
STACK CFI INIT 3a694 460 .cfa: sp 0 +
STACK CFI 3a698 .cfa: sp 240 +
STACK CFI 3a6a8 .cfa: x29 48 + x19: .cfa -8 + ^ x20: .cfa -16 + ^ x21: .cfa -24 + ^ x22: .cfa -32 + ^ .ra: .cfa -40 + ^ x29: .cfa -48 + ^
STACK CFI 3a9e8 .cfa: sp 240 +
STACK CFI 3a9f8 .cfa: sp 0 +
STACK CFI 3a9fc .cfa: x29 48 +
STACK CFI INIT 3aaf4 3d4 .cfa: sp 0 +
STACK CFI 3aaf8 .cfa: sp 208 +
STACK CFI 3ab0c .cfa: x29 64 + x19: .cfa -8 + ^ x20: .cfa -16 + ^ x21: .cfa -24 + ^ x22: .cfa -32 + ^ x23: .cfa -48 + ^ .ra: .cfa -56 + ^ x29: .cfa -64 + ^
STACK CFI 3adf4 .cfa: sp 208 +
STACK CFI 3ae08 .cfa: sp 0 +
STACK CFI 3ae0c .cfa: x29 64 +
STACK CFI INIT 3aec8 1a4 .cfa: sp 0 +
STACK CFI 3aecc .cfa: sp 96 +
STACK CFI 3aedc .cfa: x29 48 + x19: .cfa -8 + ^ x20: .cfa -16 + ^ x21: .cfa -24 + ^ x22: .cfa -32 + ^ .ra: .cfa -40 + ^ x29: .cfa -48 + ^
STACK CFI 3afe8 .cfa: sp 96 +
STACK CFI 3aff8 .cfa: sp 0 +
STACK CFI 3affc .cfa: x29 48 +
STACK CFI INIT 3b06c 730 .cfa: sp 0 +
STACK CFI 3b070 .cfa: sp 304 +
STACK CFI 3b08c .cfa: x29 96 + x19: .cfa -8 + ^ x20: .cfa -16 + ^ x21: .cfa -24 + ^ x22: .cfa -32 + ^ x23: .cfa -40 + ^ x24: .cfa -48 + ^ x25: .cfa -56 + ^ x26: .cfa -64 + ^ x27: .cfa -72 + ^ x28: .cfa -80 + ^ .ra: .cfa -88 + ^ x29: .cfa -96 + ^
STACK CFI 3b600 .cfa: sp 304 +
STACK CFI 3b61c .cfa: sp 0 +
STACK CFI 3b620 .cfa: x29 96 +
STACK CFI INIT 3b79c 6bc .cfa: sp 0 +
STACK CFI 3b7a0 .cfa: sp 160 +
STACK CFI 3b7bc .cfa: x29 96 + x19: .cfa -8 + ^ x20: .cfa -16 + ^ x21: .cfa -24 + ^ x22: .cfa -32 + ^ x23: .cfa -40 + ^ x24: .cfa -48 + ^ x25: .cfa -56 + ^ x26: .cfa -64 + ^ x27: .cfa -72 + ^ x28: .cfa -80 + ^ .ra: .cfa -88 + ^ x29: .cfa -96 + ^
STACK CFI 3be0c .cfa: sp 160 +
STACK CFI 3be28 .cfa: sp 0 +
STACK CFI 3be2c .cfa: x29 96 +
STACK CFI INIT 3be58 280 .cfa: sp 0 +
STACK CFI 3be5c .cfa: sp 96 +
STACK CFI 3be70 .cfa: x29 64 + x19: .cfa -8 + ^ x20: .cfa -16 + ^ x21: .cfa -24 + ^ x22: .cfa -32 + ^ x23: .cfa -40 + ^ x24: .cfa -48 + ^ .ra: .cfa -56 + ^ x29: .cfa -64 + ^
STACK CFI 3c074 .cfa: sp 96 +
STACK CFI 3c088 .cfa: sp 0 +
STACK CFI 3c08c .cfa: x29 64 +
STACK CFI INIT 3c128 43c .cfa: sp 0 +
STACK CFI 3c12c .cfa: sp 192 +
STACK CFI 3c148 .cfa: x29 96 + x19: .cfa -8 + ^ x20: .cfa -16 + ^ x21: .cfa -24 + ^ x22: .cfa -32 + ^ x23: .cfa -40 + ^ x24: .cfa -48 + ^ x25: .cfa -56 + ^ x26: .cfa -64 + ^ x27: .cfa -72 + ^ x28: .cfa -80 + ^ .ra: .cfa -88 + ^ x29: .cfa -96 + ^
STACK CFI 3c478 .cfa: sp 192 +
STACK CFI 3c494 .cfa: sp 0 +
STACK CFI 3c498 .cfa: x29 96 +
STACK CFI INIT 3c564 1fc8 .cfa: sp 0 +
STACK CFI 3c568 .cfa: sp 96 +
STACK CFI 3c580 .cfa: x29 96 + x19: .cfa -8 + ^ x20: .cfa -16 + ^ x21: .cfa -24 + ^ x22: .cfa -32 + ^ x23: .cfa -40 + ^ x24: .cfa -48 + ^ x25: .cfa -56 + ^ x26: .cfa -64 + ^ x27: .cfa -72 + ^ x28: .cfa -80 + ^ .ra: .cfa -88 + ^ x29: .cfa -96 + ^
STACK CFI 3e050 .cfa: sp 96 +
STACK CFI 3e068 .cfa: sp 0 +
STACK CFI 3e06c .cfa: x29 96 +
STACK CFI INIT 3e5a8 15c .cfa: sp 0 +
STACK CFI 3e5ac .cfa: sp 64 +
STACK CFI 3e5bc .cfa: x29 64 + x19: .cfa -8 + ^ x20: .cfa -16 + ^ x21: .cfa -24 + ^ x22: .cfa -32 + ^ x23: .cfa -40 + ^ x24: .cfa -48 + ^ .ra: .cfa -56 + ^ x29: .cfa -64 + ^
STACK CFI 3e66c .cfa: sp 64 +
STACK CFI 3e67c .cfa: sp 0 +
STACK CFI 3e680 .cfa: x29 64 +
STACK CFI 3e6c4 .cfa: sp 64 +
STACK CFI 3e6d4 .cfa: sp 0 +
STACK CFI 3e6d8 .cfa: x29 64 +
STACK CFI INIT 3e748 300 .cfa: sp 0 +
STACK CFI 3e74c .cfa: sp 144 +
STACK CFI 3e768 .cfa: x29 96 + x19: .cfa -8 + ^ x20: .cfa -16 + ^ x21: .cfa -24 + ^ x22: .cfa -32 + ^ x23: .cfa -40 + ^ x24: .cfa -48 + ^ x25: .cfa -56 + ^ x26: .cfa -64 + ^ x27: .cfa -72 + ^ x28: .cfa -80 + ^ .ra: .cfa -88 + ^ x29: .cfa -96 + ^
STACK CFI 3e9d0 .cfa: sp 144 +
STACK CFI 3e9ec .cfa: sp 0 +
STACK CFI 3e9f0 .cfa: x29 96 +
STACK CFI INIT 3ea48 264 .cfa: sp 0 +
STACK CFI 3ea4c .cfa: sp 128 +
STACK CFI 3ea60 .cfa: x29 64 + x19: .cfa -8 + ^ x20: .cfa -16 + ^ x21: .cfa -24 + ^ x22: .cfa -32 + ^ x23: .cfa -40 + ^ x24: .cfa -48 + ^ .ra: .cfa -56 + ^ x29: .cfa -64 + ^
STACK CFI 3ec0c .cfa: sp 128 +
STACK CFI 3ec20 .cfa: sp 0 +
STACK CFI 3ec24 .cfa: x29 64 +
STACK CFI INIT 3ecac 80c .cfa: sp 0 +
STACK CFI 3ecb0 .cfa: sp 320 +
STACK CFI 3ecc8 .cfa: x29 80 + x19: .cfa -8 + ^ x20: .cfa -16 + ^ x21: .cfa -24 + ^ x22: .cfa -32 + ^ x23: .cfa -40 + ^ x24: .cfa -48 + ^ x25: .cfa -56 + ^ x28: .cfa -64 + ^ .ra: .cfa -72 + ^ x29: .cfa -80 + ^
STACK CFI 3f38c .cfa: sp 320 +
STACK CFI 3f3a4 .cfa: sp 0 +
STACK CFI 3f3a8 .cfa: x29 80 +
STACK CFI INIT 3f4b8 24 .cfa: sp 0 +
STACK CFI 3f4bc .cfa: sp 16 +
STACK CFI 3f4c0 .cfa: x29 16 + .ra: .cfa -8 + ^ x29: .cfa -16 + ^
STACK CFI 3f4d0 .cfa: sp 16 +
STACK CFI 3f4d4 .cfa: sp 0 +
STACK CFI 3f4d8 .cfa: x29 16 +
STACK CFI INIT 3f4dc 2f0 .cfa: sp 0 +
STACK CFI 3f4e0 .cfa: sp 96 +
STACK CFI 3f4f0 .cfa: x29 48 + x19: .cfa -8 + ^ x20: .cfa -16 + ^ x21: .cfa -24 + ^ x22: .cfa -32 + ^ .ra: .cfa -40 + ^ x29: .cfa -48 + ^
STACK CFI 3f76c .cfa: sp 96 +
STACK CFI 3f77c .cfa: sp 0 +
STACK CFI 3f780 .cfa: x29 48 +
STACK CFI INIT 3f868 810 .cfa: sp 0 +
STACK CFI 3f86c .cfa: sp 272 +
STACK CFI 3f884 .cfa: x29 80 + x19: .cfa -8 + ^ x20: .cfa -16 + ^ x21: .cfa -24 + ^ x22: .cfa -32 + ^ x23: .cfa -40 + ^ x24: .cfa -48 + ^ x25: .cfa -56 + ^ x28: .cfa -64 + ^ .ra: .cfa -72 + ^ x29: .cfa -80 + ^
STACK CFI 3fe58 .cfa: sp 272 +
STACK CFI 3fe70 .cfa: sp 0 +
STACK CFI 3fe74 .cfa: x29 80 +
STACK CFI INIT 40078 6a8 .cfa: sp 0 +
STACK CFI 4007c .cfa: sp 176 +
STACK CFI 40098 .cfa: x29 96 + x19: .cfa -8 + ^ x20: .cfa -16 + ^ x21: .cfa -24 + ^ x22: .cfa -32 + ^ x23: .cfa -40 + ^ x24: .cfa -48 + ^ x25: .cfa -56 + ^ x26: .cfa -64 + ^ x27: .cfa -72 + ^ x28: .cfa -80 + ^ .ra: .cfa -88 + ^ x29: .cfa -96 + ^
STACK CFI 404f8 .cfa: sp 176 +
STACK CFI 40514 .cfa: sp 0 +
STACK CFI 40518 .cfa: x29 96 +
STACK CFI INIT 40a1c 110 .cfa: sp 0 +
STACK CFI 40a20 .cfa: sp 80 +
STACK CFI 40a34 .cfa: x29 64 + x19: .cfa -8 + ^ x20: .cfa -16 + ^ x21: .cfa -24 + ^ x22: .cfa -32 + ^ x23: .cfa -48 + ^ .ra: .cfa -56 + ^ x29: .cfa -64 + ^
STACK CFI 40aec .cfa: sp 80 +
STACK CFI 40b00 .cfa: sp 0 +
STACK CFI 40b04 .cfa: x29 64 +
STACK CFI INIT 40b2c a1c .cfa: sp 0 +
STACK CFI 40b30 .cfa: sp 256 +
STACK CFI 40b50 .cfa: x29 96 + x19: .cfa -8 + ^ x20: .cfa -16 + ^ x21: .cfa -24 + ^ x22: .cfa -32 + ^ x23: .cfa -40 + ^ x24: .cfa -48 + ^ x25: .cfa -56 + ^ x26: .cfa -64 + ^ x27: .cfa -72 + ^ x28: .cfa -80 + ^ .ra: .cfa -88 + ^ x29: .cfa -96 + ^ v8: .cfa -112 + ^
STACK CFI 413c0 .cfa: sp 256 +
STACK CFI 413e0 .cfa: sp 0 +
STACK CFI 413e4 .cfa: x29 96 +
STACK CFI INIT 417f4 12c .cfa: sp 0 +
STACK CFI 417f8 .cfa: sp 80 +
STACK CFI 41808 .cfa: x29 48 + x19: .cfa -8 + ^ x20: .cfa -16 + ^ x21: .cfa -24 + ^ x22: .cfa -32 + ^ .ra: .cfa -40 + ^ x29: .cfa -48 + ^
STACK CFI 41904 .cfa: sp 80 +
STACK CFI 41914 .cfa: sp 0 +
STACK CFI 41918 .cfa: x29 48 +
STACK CFI INIT 41cd8 1dc .cfa: sp 0 +
STACK CFI 41cdc .cfa: sp 208 +
STACK CFI 41cf4 .cfa: x29 80 + x19: .cfa -8 + ^ x20: .cfa -16 + ^ x21: .cfa -24 + ^ x22: .cfa -32 + ^ x23: .cfa -40 + ^ x24: .cfa -48 + ^ x25: .cfa -64 + ^ .ra: .cfa -72 + ^ x29: .cfa -80 + ^
STACK CFI 41e40 .cfa: sp 208 +
STACK CFI 41e58 .cfa: sp 0 +
STACK CFI 41e5c .cfa: x29 80 +
STACK CFI INIT 41ec8 50 .cfa: sp 0 +
STACK CFI 41ecc .cfa: sp 32 +
STACK CFI 41ed4 .cfa: x29 32 + x19: .cfa -8 + ^ x20: .cfa -16 + ^ .ra: .cfa -24 + ^ x29: .cfa -32 + ^
STACK CFI INIT 4208c 9cc .cfa: sp 0 +
STACK CFI 42090 .cfa: sp 144 +
STACK CFI 420ac .cfa: x29 96 + x19: .cfa -8 + ^ x20: .cfa -16 + ^ x21: .cfa -24 + ^ x22: .cfa -32 + ^ x23: .cfa -40 + ^ x24: .cfa -48 + ^ x25: .cfa -56 + ^ x26: .cfa -64 + ^ x27: .cfa -72 + ^ x28: .cfa -80 + ^ .ra: .cfa -88 + ^ x29: .cfa -96 + ^
STACK CFI 424bc .cfa: sp 144 +
STACK CFI 424d8 .cfa: sp 0 +
STACK CFI 424dc .cfa: x29 96 +
STACK CFI 42948 .cfa: sp 144 +
STACK CFI 42964 .cfa: sp 0 +
STACK CFI 42968 .cfa: x29 96 +
STACK CFI INIT 42d6c cc .cfa: sp 0 +
STACK CFI 42d70 .cfa: sp 64 +
STACK CFI 42d80 .cfa: x29 48 + x19: .cfa -8 + ^ x20: .cfa -16 + ^ x21: .cfa -32 + ^ .ra: .cfa -40 + ^ x29: .cfa -48 + ^
STACK CFI 42dfc .cfa: sp 64 +
STACK CFI 42e0c .cfa: sp 0 +
STACK CFI 42e10 .cfa: x29 48 +
STACK CFI INIT 4333c bc .cfa: sp 0 +
STACK CFI 43340 .cfa: sp 64 +
STACK CFI 4334c .cfa: x29 32 + x19: .cfa -8 + ^ x20: .cfa -16 + ^ .ra: .cfa -24 + ^ x29: .cfa -32 + ^
STACK CFI 433b8 .cfa: sp 64 +
STACK CFI 433c4 .cfa: sp 0 +
STACK CFI 433c8 .cfa: x29 32 +
STACK CFI INIT 43420 eb0 .cfa: sp 0 +
STACK CFI 43424 .cfa: sp 96 +
STACK CFI 4343c .cfa: x29 96 + x19: .cfa -8 + ^ x20: .cfa -16 + ^ x21: .cfa -24 + ^ x22: .cfa -32 + ^ x23: .cfa -40 + ^ x24: .cfa -48 + ^ x25: .cfa -56 + ^ x26: .cfa -64 + ^ x27: .cfa -72 + ^ x28: .cfa -80 + ^ .ra: .cfa -88 + ^ x29: .cfa -96 + ^
STACK CFI 4417c .cfa: sp 96 +
STACK CFI 44194 .cfa: sp 0 +
STACK CFI 44198 .cfa: x29 96 +
STACK CFI INIT 46fe0 1dc .cfa: sp 0 +
STACK CFI 46fe4 .cfa: sp 96 +
STACK CFI 46ff8 .cfa: x29 64 + x19: .cfa -8 + ^ x20: .cfa -16 + ^ x21: .cfa -24 + ^ x22: .cfa -32 + ^ x23: .cfa -48 + ^ .ra: .cfa -56 + ^ x29: .cfa -64 + ^
STACK CFI 47134 .cfa: sp 96 +
STACK CFI 47148 .cfa: sp 0 +
STACK CFI 4714c .cfa: x29 64 +
STACK CFI INIT 471e4 5d8 .cfa: sp 0 +
STACK CFI 471e8 .cfa: sp 112 +
STACK CFI 47204 .cfa: x29 96 + x19: .cfa -8 + ^ x20: .cfa -16 + ^ x21: .cfa -24 + ^ x22: .cfa -32 + ^ x23: .cfa -40 + ^ x24: .cfa -48 + ^ x25: .cfa -56 + ^ x26: .cfa -64 + ^ x27: .cfa -80 + ^ .ra: .cfa -88 + ^ x29: .cfa -96 + ^
STACK CFI 4735c .cfa: sp 112 +
STACK CFI 47378 .cfa: sp 0 +
STACK CFI 4737c .cfa: x29 96 +
STACK CFI 476a4 .cfa: sp 112 +
STACK CFI 476c0 .cfa: sp 0 +
STACK CFI 476c4 .cfa: x29 96 +
STACK CFI INIT 47948 188 .cfa: sp 0 +
STACK CFI 4794c .cfa: sp 160 +
STACK CFI 4795c .cfa: x29 48 + x19: .cfa -8 + ^ x20: .cfa -16 + ^ x21: .cfa -32 + ^ .ra: .cfa -40 + ^ x29: .cfa -48 + ^
STACK CFI 47a74 .cfa: sp 160 +
STACK CFI 47a84 .cfa: sp 0 +
STACK CFI 47a88 .cfa: x29 48 +
STACK CFI INIT 47ad0 74 .cfa: sp 0 +
STACK CFI 47ad4 .cfa: sp 48 +
STACK CFI 47ae0 .cfa: x29 32 + x19: .cfa -8 + ^ x20: .cfa -16 + ^ .ra: .cfa -24 + ^ x29: .cfa -32 + ^
STACK CFI 47b2c .cfa: sp 48 +
STACK CFI 47b38 .cfa: sp 0 +
STACK CFI 47b3c .cfa: x29 32 +
STACK CFI INIT 47ba8 154 .cfa: sp 0 +
STACK CFI 47bac .cfa: sp 144 +
STACK CFI 47bbc .cfa: x29 48 + x19: .cfa -8 + ^ x20: .cfa -16 + ^ x21: .cfa -32 + ^ .ra: .cfa -40 + ^ x29: .cfa -48 + ^
STACK CFI 47ca0 .cfa: sp 144 +
STACK CFI 47cb0 .cfa: sp 0 +
STACK CFI 47cb4 .cfa: x29 48 +
STACK CFI INIT 47df4 74 .cfa: sp 0 +
STACK CFI 47df8 .cfa: sp 32 +
STACK CFI 47e00 .cfa: x29 32 + x19: .cfa -16 + ^ .ra: .cfa -24 + ^ x29: .cfa -32 + ^
STACK CFI 47e28 .cfa: sp 32 +
STACK CFI 47e30 .cfa: sp 0 +
STACK CFI 47e34 .cfa: x29 32 +
STACK CFI 47e58 .cfa: sp 32 +
STACK CFI 47e60 .cfa: sp 0 +
STACK CFI 47e64 .cfa: x29 32 +
STACK CFI INIT 47e68 98 .cfa: sp 0 +
STACK CFI 47e6c .cfa: sp 80 +
STACK CFI 47e78 .cfa: x29 32 + x19: .cfa -8 + ^ x20: .cfa -16 + ^ .ra: .cfa -24 + ^ x29: .cfa -32 + ^
STACK CFI 47ec4 .cfa: sp 80 +
STACK CFI 47ed0 .cfa: sp 0 +
STACK CFI 47ed4 .cfa: x29 32 +
STACK CFI INIT 47f00 1f4 .cfa: sp 0 +
STACK CFI 47f04 .cfa: sp 128 +
STACK CFI 47f18 .cfa: x29 64 + x19: .cfa -8 + ^ x20: .cfa -16 + ^ x21: .cfa -24 + ^ x22: .cfa -32 + ^ x23: .cfa -48 + ^ .ra: .cfa -56 + ^ x29: .cfa -64 + ^
STACK CFI 480a8 .cfa: sp 128 +
STACK CFI 480bc .cfa: sp 0 +
STACK CFI 480c0 .cfa: x29 64 +
STACK CFI INIT 480f4 10c .cfa: sp 0 +
STACK CFI 480f8 .cfa: sp 96 +
STACK CFI 4810c .cfa: x29 64 + x19: .cfa -8 + ^ x20: .cfa -16 + ^ x21: .cfa -24 + ^ x22: .cfa -32 + ^ x23: .cfa -48 + ^ .ra: .cfa -56 + ^ x29: .cfa -64 + ^
STACK CFI 48184 .cfa: sp 96 +
STACK CFI 48198 .cfa: sp 0 +
STACK CFI 4819c .cfa: x29 64 +
STACK CFI INIT 48340 cc .cfa: sp 0 +
STACK CFI 48344 .cfa: sp 64 +
STACK CFI 48354 .cfa: x29 48 + x19: .cfa -8 + ^ x20: .cfa -16 + ^ x21: .cfa -32 + ^ .ra: .cfa -40 + ^ x29: .cfa -48 + ^
STACK CFI 483d0 .cfa: sp 64 +
STACK CFI 483e0 .cfa: sp 0 +
STACK CFI 483e4 .cfa: x29 48 +
STACK CFI INIT 48540 470 .cfa: sp 0 +
STACK CFI 48544 .cfa: sp 224 +
STACK CFI 48560 .cfa: x29 96 + x19: .cfa -8 + ^ x20: .cfa -16 + ^ x21: .cfa -24 + ^ x22: .cfa -32 + ^ x23: .cfa -40 + ^ x24: .cfa -48 + ^ x25: .cfa -56 + ^ x26: .cfa -64 + ^ x27: .cfa -80 + ^ .ra: .cfa -88 + ^ x29: .cfa -96 + ^
STACK CFI 487bc .cfa: sp 224 +
STACK CFI 487d8 .cfa: sp 0 +
STACK CFI 487dc .cfa: x29 96 +
STACK CFI 488a8 .cfa: sp 224 +
STACK CFI 488c4 .cfa: sp 0 +
STACK CFI 488c8 .cfa: x29 96 +
STACK CFI INIT 489cc 36c .cfa: sp 0 +
STACK CFI 489d0 .cfa: sp 240 +
STACK CFI 489e4 .cfa: x29 64 + x19: .cfa -8 + ^ x20: .cfa -16 + ^ x21: .cfa -24 + ^ x22: .cfa -32 + ^ x23: .cfa -48 + ^ .ra: .cfa -56 + ^ x29: .cfa -64 + ^
STACK CFI 48c14 .cfa: sp 240 +
STACK CFI 48c28 .cfa: sp 0 +
STACK CFI 48c2c .cfa: x29 64 +
STACK CFI INIT 48d88 74 .cfa: sp 0 +
STACK CFI 48d8c .cfa: sp 48 +
STACK CFI 48d98 .cfa: x29 32 + x19: .cfa -8 + ^ x20: .cfa -16 + ^ .ra: .cfa -24 + ^ x29: .cfa -32 + ^
STACK CFI 48de4 .cfa: sp 48 +
STACK CFI 48df0 .cfa: sp 0 +
STACK CFI 48df4 .cfa: x29 32 +
STACK CFI INIT 48e7c 154 .cfa: sp 0 +
STACK CFI 48e80 .cfa: sp 384 +
STACK CFI 48e94 .cfa: x29 64 + x19: .cfa -8 + ^ x20: .cfa -16 + ^ x21: .cfa -24 + ^ x22: .cfa -32 + ^ x23: .cfa -40 + ^ x28: .cfa -48 + ^ .ra: .cfa -56 + ^ x29: .cfa -64 + ^
STACK CFI 48f78 .cfa: sp 384 +
STACK CFI 48f8c .cfa: sp 0 +
STACK CFI 48f90 .cfa: x29 64 +
STACK CFI INIT 48fd0 134 .cfa: sp 0 +
STACK CFI 48fd4 .cfa: sp 80 +
STACK CFI 48fe8 .cfa: x29 80 + x19: .cfa -8 + ^ x20: .cfa -16 + ^ x21: .cfa -24 + ^ x22: .cfa -32 + ^ x23: .cfa -40 + ^ x24: .cfa -48 + ^ x25: .cfa -56 + ^ x26: .cfa -64 + ^ .ra: .cfa -72 + ^ x29: .cfa -80 + ^
STACK CFI 490b8 .cfa: sp 80 +
STACK CFI 490cc .cfa: sp 0 +
STACK CFI 490d0 .cfa: x29 80 +
STACK CFI INIT 491a8 1a4 .cfa: sp 0 +
STACK CFI 491ac .cfa: sp 112 +
STACK CFI 491c4 .cfa: x29 80 + x19: .cfa -8 + ^ x20: .cfa -16 + ^ x21: .cfa -24 + ^ x22: .cfa -32 + ^ x23: .cfa -40 + ^ x24: .cfa -48 + ^ x25: .cfa -56 + ^ x26: .cfa -64 + ^ .ra: .cfa -72 + ^ x29: .cfa -80 + ^
STACK CFI 492b4 .cfa: sp 112 +
STACK CFI 492cc .cfa: sp 0 +
STACK CFI 492d0 .cfa: x29 80 +
STACK CFI INIT 4934c 1ec .cfa: sp 0 +
STACK CFI 49350 .cfa: sp 128 +
STACK CFI 4936c .cfa: x29 96 + x19: .cfa -8 + ^ x20: .cfa -16 + ^ x21: .cfa -24 + ^ x22: .cfa -32 + ^ x23: .cfa -40 + ^ x24: .cfa -48 + ^ x25: .cfa -56 + ^ x26: .cfa -64 + ^ x27: .cfa -80 + ^ .ra: .cfa -88 + ^ x29: .cfa -96 + ^
STACK CFI 494e8 .cfa: sp 128 +
STACK CFI 49504 .cfa: sp 0 +
STACK CFI 49508 .cfa: x29 96 +
STACK CFI INIT 49538 170 .cfa: sp 0 +
STACK CFI 4953c .cfa: sp 48 +
STACK CFI 49548 .cfa: x29 48 + x19: .cfa -8 + ^ x20: .cfa -16 + ^ x21: .cfa -32 + ^ .ra: .cfa -40 + ^ x29: .cfa -48 + ^
STACK CFI 4967c .cfa: sp 48 +
STACK CFI 49688 .cfa: sp 0 +
STACK CFI 4968c .cfa: x29 48 +
STACK CFI INIT 49878 1b0 .cfa: sp 0 +
STACK CFI 4987c .cfa: sp 128 +
STACK CFI 49894 .cfa: x29 80 + x19: .cfa -8 + ^ x20: .cfa -16 + ^ x21: .cfa -24 + ^ x22: .cfa -32 + ^ x23: .cfa -40 + ^ x24: .cfa -48 + ^ x25: .cfa -64 + ^ .ra: .cfa -72 + ^ x29: .cfa -80 + ^
STACK CFI 499b8 .cfa: sp 128 +
STACK CFI 499d0 .cfa: sp 0 +
STACK CFI 499d4 .cfa: x29 80 +
STACK CFI INIT 4a134 d8 .cfa: sp 0 +
STACK CFI 4a138 .cfa: sp 32 +
STACK CFI 4a140 .cfa: x29 32 + x19: .cfa -16 + ^ .ra: .cfa -24 + ^ x29: .cfa -32 + ^
STACK CFI 4a174 .cfa: sp 32 +
STACK CFI 4a17c .cfa: sp 0 +
STACK CFI 4a180 .cfa: x29 32 +
STACK CFI 4a184 .cfa: sp 32 +
STACK CFI 4a18c .cfa: sp 0 +
STACK CFI 4a190 .cfa: x29 32 +
STACK CFI INIT 4a438 9f8 .cfa: sp 0 +
STACK CFI 4a43c .cfa: sp 272 +
STACK CFI 4a458 .cfa: x29 96 + x19: .cfa -8 + ^ x20: .cfa -16 + ^ x21: .cfa -24 + ^ x22: .cfa -32 + ^ x23: .cfa -40 + ^ x24: .cfa -48 + ^ x25: .cfa -56 + ^ x26: .cfa -64 + ^ x27: .cfa -72 + ^ x28: .cfa -80 + ^ .ra: .cfa -88 + ^ x29: .cfa -96 + ^
STACK CFI 4a600 .cfa: sp 272 +
STACK CFI 4a61c .cfa: sp 0 +
STACK CFI 4a620 .cfa: x29 96 +
STACK CFI 4abc8 .cfa: sp 272 +
STACK CFI 4abe4 .cfa: sp 0 +
STACK CFI 4abe8 .cfa: x29 96 +
STACK CFI INIT 4ae4c 948 .cfa: sp 0 +
STACK CFI 4ae50 .cfa: sp 240 +
STACK CFI 4ae68 .cfa: x29 80 + x19: .cfa -8 + ^ x20: .cfa -16 + ^ x21: .cfa -24 + ^ x22: .cfa -32 + ^ x23: .cfa -40 + ^ x24: .cfa -48 + ^ x25: .cfa -64 + ^ .ra: .cfa -72 + ^ x29: .cfa -80 + ^
STACK CFI 4b4d4 .cfa: sp 240 +
STACK CFI 4b4ec .cfa: sp 0 +
STACK CFI 4b4f0 .cfa: x29 80 +
STACK CFI INIT 4b798 110 .cfa: sp 0 +
STACK CFI 4b79c .cfa: sp 96 +
STACK CFI 4b7b0 .cfa: x29 64 + x19: .cfa -8 + ^ x20: .cfa -16 + ^ x21: .cfa -24 + ^ x22: .cfa -32 + ^ x23: .cfa -40 + ^ x24: .cfa -48 + ^ .ra: .cfa -56 + ^ x29: .cfa -64 + ^
STACK CFI 4b7f8 .cfa: sp 96 +
STACK CFI 4b80c .cfa: sp 0 +
STACK CFI 4b810 .cfa: x29 64 +
STACK CFI INIT 4b924 168 .cfa: sp 0 +
STACK CFI 4b928 .cfa: sp 384 +
STACK CFI 4b93c .cfa: x29 64 + x19: .cfa -8 + ^ x20: .cfa -16 + ^ x21: .cfa -24 + ^ x22: .cfa -32 + ^ x23: .cfa -40 + ^ x28: .cfa -48 + ^ .ra: .cfa -56 + ^ x29: .cfa -64 + ^
STACK CFI 4ba34 .cfa: sp 384 +
STACK CFI 4ba48 .cfa: sp 0 +
STACK CFI 4ba4c .cfa: x29 64 +
STACK CFI INIT 4bb20 174 .cfa: sp 0 +
STACK CFI 4bb24 .cfa: sp 112 +
STACK CFI 4bb34 .cfa: x29 48 + x19: .cfa -8 + ^ x20: .cfa -16 + ^ x21: .cfa -32 + ^ .ra: .cfa -40 + ^ x29: .cfa -48 + ^
STACK CFI 4bc30 .cfa: sp 112 +
STACK CFI 4bc40 .cfa: sp 0 +
STACK CFI 4bc44 .cfa: x29 48 +
STACK CFI INIT 4bd6c 1d8 .cfa: sp 0 +
STACK CFI 4bd70 .cfa: sp 96 +
STACK CFI 4bd84 .cfa: x29 48 + x19: .cfa -8 + ^ x20: .cfa -16 + ^ x21: .cfa -24 + ^ x22: .cfa -32 + ^ .ra: .cfa -40 + ^ x29: .cfa -48 + ^ v8: .cfa -56 + ^ v9: .cfa -64 + ^
STACK CFI 4befc .cfa: sp 96 +
STACK CFI 4bf10 .cfa: sp 0 +
STACK CFI 4bf14 .cfa: x29 48 +
STACK CFI INIT 4bf44 184 .cfa: sp 0 +
STACK CFI 4bf48 .cfa: sp 160 +
STACK CFI 4bf60 .cfa: x29 80 + x19: .cfa -8 + ^ x20: .cfa -16 + ^ x21: .cfa -24 + ^ x22: .cfa -32 + ^ x23: .cfa -40 + ^ x24: .cfa -48 + ^ x25: .cfa -56 + ^ x26: .cfa -64 + ^ .ra: .cfa -72 + ^ x29: .cfa -80 + ^
STACK CFI 4c060 .cfa: sp 160 +
STACK CFI 4c078 .cfa: sp 0 +
STACK CFI 4c07c .cfa: x29 80 +
STACK CFI INIT 4c338 5d4 .cfa: sp 0 +
STACK CFI 4c33c .cfa: sp 224 +
STACK CFI 4c358 .cfa: x29 96 + x19: .cfa -8 + ^ x20: .cfa -16 + ^ x21: .cfa -24 + ^ x22: .cfa -32 + ^ x23: .cfa -40 + ^ x24: .cfa -48 + ^ x25: .cfa -56 + ^ x26: .cfa -64 + ^ x27: .cfa -72 + ^ x28: .cfa -80 + ^ .ra: .cfa -88 + ^ x29: .cfa -96 + ^
STACK CFI 4c79c .cfa: sp 224 +
STACK CFI 4c7b8 .cfa: sp 0 +
STACK CFI 4c7bc .cfa: x29 96 +
STACK CFI INIT 4c90c 484 .cfa: sp 0 +
STACK CFI 4c910 .cfa: sp 288 +
STACK CFI 4c928 .cfa: x29 80 + x19: .cfa -8 + ^ x20: .cfa -16 + ^ x21: .cfa -24 + ^ x22: .cfa -32 + ^ x23: .cfa -40 + ^ x24: .cfa -48 + ^ x25: .cfa -56 + ^ x28: .cfa -64 + ^ .ra: .cfa -72 + ^ x29: .cfa -80 + ^
STACK CFI 4cbb4 .cfa: sp 288 +
STACK CFI 4cbcc .cfa: sp 0 +
STACK CFI 4cbd0 .cfa: x29 80 +
STACK CFI INIT 4ce28 470 .cfa: sp 0 +
STACK CFI 4ce2c .cfa: sp 224 +
STACK CFI 4ce48 .cfa: x29 96 + x19: .cfa -8 + ^ x20: .cfa -16 + ^ x21: .cfa -24 + ^ x22: .cfa -32 + ^ x23: .cfa -40 + ^ x24: .cfa -48 + ^ x25: .cfa -56 + ^ x26: .cfa -64 + ^ x27: .cfa -80 + ^ .ra: .cfa -88 + ^ x29: .cfa -96 + ^
STACK CFI 4d0a4 .cfa: sp 224 +
STACK CFI 4d0c0 .cfa: sp 0 +
STACK CFI 4d0c4 .cfa: x29 96 +
STACK CFI 4d190 .cfa: sp 224 +
STACK CFI 4d1ac .cfa: sp 0 +
STACK CFI 4d1b0 .cfa: x29 96 +
STACK CFI INIT 4d338 50 .cfa: sp 0 +
STACK CFI 4d33c .cfa: sp 32 +
STACK CFI 4d344 .cfa: x29 32 + x19: .cfa -8 + ^ x20: .cfa -16 + ^ .ra: .cfa -24 + ^ x29: .cfa -32 + ^
STACK CFI INIT 4d45c 664 .cfa: sp 0 +
STACK CFI 4d460 .cfa: sp 256 +
STACK CFI 4d478 .cfa: x29 80 + x19: .cfa -8 + ^ x20: .cfa -16 + ^ x21: .cfa -24 + ^ x22: .cfa -32 + ^ x23: .cfa -40 + ^ x24: .cfa -48 + ^ x25: .cfa -56 + ^ x26: .cfa -64 + ^ .ra: .cfa -72 + ^ x29: .cfa -80 + ^
STACK CFI 4d8d4 .cfa: sp 256 +
STACK CFI 4d8ec .cfa: sp 0 +
STACK CFI 4d8f0 .cfa: x29 80 +
STACK CFI INIT 4dac4 4b0 .cfa: sp 0 +
STACK CFI 4dac8 .cfa: sp 256 +
STACK CFI 4dae0 .cfa: x29 64 + x19: .cfa -8 + ^ x20: .cfa -16 + ^ x21: .cfa -24 + ^ x22: .cfa -32 + ^ x23: .cfa -40 + ^ x24: .cfa -48 + ^ .ra: .cfa -56 + ^ x29: .cfa -64 + ^ v8: .cfa -80 + ^
STACK CFI 4de94 .cfa: sp 256 +
STACK CFI 4deac .cfa: sp 0 +
STACK CFI 4deb0 .cfa: x29 64 +
STACK CFI INIT 4df74 32c .cfa: sp 0 +
STACK CFI 4df78 .cfa: sp 160 +
STACK CFI 4df8c .cfa: x29 64 + x19: .cfa -8 + ^ x20: .cfa -16 + ^ x21: .cfa -24 + ^ x22: .cfa -32 + ^ x23: .cfa -48 + ^ .ra: .cfa -56 + ^ x29: .cfa -64 + ^
STACK CFI 4e1e4 .cfa: sp 160 +
STACK CFI 4e1f8 .cfa: sp 0 +
STACK CFI 4e1fc .cfa: x29 64 +
STACK CFI INIT 4e2a4 174 .cfa: sp 0 +
STACK CFI 4e2a8 .cfa: sp 112 +
STACK CFI 4e2b8 .cfa: x29 48 + x19: .cfa -8 + ^ x20: .cfa -16 + ^ x21: .cfa -32 + ^ .ra: .cfa -40 + ^ x29: .cfa -48 + ^
STACK CFI 4e3b4 .cfa: sp 112 +
STACK CFI 4e3c4 .cfa: sp 0 +
STACK CFI 4e3c8 .cfa: x29 48 +
STACK CFI INIT 4e874 470 .cfa: sp 0 +
STACK CFI 4e878 .cfa: sp 224 +
STACK CFI 4e894 .cfa: x29 96 + x19: .cfa -8 + ^ x20: .cfa -16 + ^ x21: .cfa -24 + ^ x22: .cfa -32 + ^ x23: .cfa -40 + ^ x24: .cfa -48 + ^ x25: .cfa -56 + ^ x26: .cfa -64 + ^ x27: .cfa -80 + ^ .ra: .cfa -88 + ^ x29: .cfa -96 + ^
STACK CFI 4eaf0 .cfa: sp 224 +
STACK CFI 4eb0c .cfa: sp 0 +
STACK CFI 4eb10 .cfa: x29 96 +
STACK CFI 4ebdc .cfa: sp 224 +
STACK CFI 4ebf8 .cfa: sp 0 +
STACK CFI 4ebfc .cfa: x29 96 +
STACK CFI INIT 4ed00 350 .cfa: sp 0 +
STACK CFI 4ed04 .cfa: sp 208 +
STACK CFI 4ed18 .cfa: x29 64 + x19: .cfa -8 + ^ x20: .cfa -16 + ^ x21: .cfa -24 + ^ x22: .cfa -32 + ^ x23: .cfa -48 + ^ .ra: .cfa -56 + ^ x29: .cfa -64 + ^
STACK CFI 4ef2c .cfa: sp 208 +
STACK CFI 4ef40 .cfa: sp 0 +
STACK CFI 4ef44 .cfa: x29 64 +
STACK CFI INIT 4f054 100 .cfa: sp 0 +
STACK CFI 4f058 .cfa: sp 112 +
STACK CFI 4f068 .cfa: x29 48 + x19: .cfa -8 + ^ x20: .cfa -16 + ^ x21: .cfa -32 + ^ .ra: .cfa -40 + ^ x29: .cfa -48 + ^
STACK CFI 4f0f0 .cfa: sp 112 +
STACK CFI 4f100 .cfa: sp 0 +
STACK CFI 4f104 .cfa: x29 48 +
STACK CFI INIT 4f194 d8 .cfa: sp 0 +
STACK CFI 4f198 .cfa: sp 96 +
STACK CFI 4f1a4 .cfa: x29 32 + x19: .cfa -8 + ^ x20: .cfa -16 + ^ .ra: .cfa -24 + ^ x29: .cfa -32 + ^
STACK CFI 4f20c .cfa: sp 96 +
STACK CFI 4f218 .cfa: sp 0 +
STACK CFI 4f21c .cfa: x29 32 +
STACK CFI INIT 4f310 a00 .cfa: sp 0 +
STACK CFI 4f314 .cfa: sp 416 +
STACK CFI 4f32c .cfa: x29 80 + x19: .cfa -8 + ^ x20: .cfa -16 + ^ x21: .cfa -24 + ^ x22: .cfa -32 + ^ x23: .cfa -40 + ^ x24: .cfa -48 + ^ x28: .cfa -64 + ^ .ra: .cfa -72 + ^ x29: .cfa -80 + ^
STACK CFI 4fbac .cfa: sp 416 +
STACK CFI 4fbc4 .cfa: sp 0 +
STACK CFI 4fbc8 .cfa: x29 80 +
STACK CFI INIT 4fd10 1c .cfa: sp 0 +
STACK CFI 4fd14 .cfa: sp 16 +
STACK CFI 4fd18 .cfa: x29 16 + .ra: .cfa -8 + ^ x29: .cfa -16 + ^
STACK CFI 4fd20 .cfa: sp 16 +
STACK CFI 4fd24 .cfa: sp 0 +
STACK CFI 4fd28 .cfa: x29 16 +
STACK CFI INIT 4fd2c c4 .cfa: sp 0 +
STACK CFI 4fd30 .cfa: sp 48 +
STACK CFI 4fd3c .cfa: x29 48 + x19: .cfa -8 + ^ x20: .cfa -16 + ^ x21: .cfa -32 + ^ .ra: .cfa -40 + ^ x29: .cfa -48 + ^
STACK CFI 4fda8 .cfa: sp 48 +
STACK CFI 4fdb4 .cfa: sp 0 +
STACK CFI 4fdb8 .cfa: x29 48 +
STACK CFI 4fddc .cfa: sp 48 +
STACK CFI 4fde8 .cfa: sp 0 +
STACK CFI 4fdec .cfa: x29 48 +
STACK CFI INIT 4fdf0 84 .cfa: sp 0 +
STACK CFI 4fdf4 .cfa: sp 48 +
STACK CFI 4fe00 .cfa: x29 48 + x19: .cfa -8 + ^ x20: .cfa -16 + ^ x21: .cfa -32 + ^ .ra: .cfa -40 + ^ x29: .cfa -48 + ^
STACK CFI 4fe20 .cfa: sp 48 +
STACK CFI 4fe2c .cfa: sp 0 +
STACK CFI 4fe30 .cfa: x29 48 +
STACK CFI 4fe50 .cfa: sp 48 +
STACK CFI 4fe5c .cfa: sp 0 +
STACK CFI 4fe60 .cfa: sp 48 +
STACK CFI 4fe6c .cfa: sp 0 +
STACK CFI 4fe70 .cfa: x29 48 +
STACK CFI INIT 4fe74 94 .cfa: sp 0 +
STACK CFI 4fe78 .cfa: sp 48 +
STACK CFI 4fe84 .cfa: x29 48 + x19: .cfa -8 + ^ x20: .cfa -16 + ^ x21: .cfa -24 + ^ x22: .cfa -32 + ^ .ra: .cfa -40 + ^ x29: .cfa -48 + ^
STACK CFI 4fe8c .cfa: sp 48 +
STACK CFI 4fe98 .cfa: sp 0 +
STACK CFI 4fe9c .cfa: x29 48 +
STACK CFI 4fec0 .cfa: sp 48 +
STACK CFI 4fecc .cfa: sp 0 +
STACK CFI 4fed0 .cfa: x29 48 +
STACK CFI 4fef4 .cfa: sp 48 +
STACK CFI 4ff00 .cfa: sp 0 +
STACK CFI 4ff04 .cfa: x29 48 +
STACK CFI INIT 4ff08 48 .cfa: sp 0 +
STACK CFI 4ff0c .cfa: sp 32 +
STACK CFI 4ff14 .cfa: x29 32 + x19: .cfa -8 + ^ x20: .cfa -16 + ^ .ra: .cfa -24 + ^ x29: .cfa -32 + ^
STACK CFI 4ff1c .cfa: sp 32 +
STACK CFI 4ff24 .cfa: sp 0 +
STACK CFI 4ff28 .cfa: x29 32 +
STACK CFI INIT 4ffdc 118 .cfa: sp 0 +
STACK CFI 4ffe0 .cfa: sp 80 +
STACK CFI 4fff0 .cfa: x29 48 + x19: .cfa -8 + ^ x20: .cfa -16 + ^ x21: .cfa -32 + ^ .ra: .cfa -40 + ^ x29: .cfa -48 + ^
STACK CFI 50074 .cfa: sp 80 +
STACK CFI 50084 .cfa: sp 0 +
STACK CFI 50088 .cfa: x29 48 +
STACK CFI INIT 500f4 68c .cfa: sp 0 +
STACK CFI 500f8 .cfa: sp 256 +
STACK CFI 50108 .cfa: x29 48 + x19: .cfa -8 + ^ x20: .cfa -16 + ^ x21: .cfa -24 + ^ x22: .cfa -32 + ^ .ra: .cfa -40 + ^ x29: .cfa -48 + ^
STACK CFI 5062c .cfa: sp 256 +
STACK CFI 5063c .cfa: sp 0 +
STACK CFI 50640 .cfa: x29 48 +
STACK CFI INIT 50780 f8 .cfa: sp 0 +
STACK CFI 50784 .cfa: sp 48 +
STACK CFI 50790 .cfa: x29 48 + x19: .cfa -8 + ^ x20: .cfa -16 + ^ x21: .cfa -32 + ^ .ra: .cfa -40 + ^ x29: .cfa -48 + ^
STACK CFI 507fc .cfa: sp 48 +
STACK CFI 50808 .cfa: sp 0 +
STACK CFI 5080c .cfa: x29 48 +
STACK CFI INIT 50924 210 .cfa: sp 0 +
STACK CFI 50928 .cfa: sp 64 +
STACK CFI 50938 .cfa: x29 64 + x19: .cfa -8 + ^ x20: .cfa -16 + ^ x21: .cfa -24 + ^ x22: .cfa -32 + ^ x23: .cfa -40 + ^ x28: .cfa -48 + ^ .ra: .cfa -56 + ^ x29: .cfa -64 + ^
STACK CFI 50adc .cfa: sp 64 +
STACK CFI 50aec .cfa: sp 0 +
STACK CFI 50af0 .cfa: x29 64 +
STACK CFI INIT 50bfc 320 .cfa: sp 0 +
STACK CFI 50c00 .cfa: sp 128 +
STACK CFI 50c1c .cfa: x29 96 + x19: .cfa -8 + ^ x20: .cfa -16 + ^ x21: .cfa -24 + ^ x22: .cfa -32 + ^ x23: .cfa -40 + ^ x24: .cfa -48 + ^ x25: .cfa -56 + ^ x26: .cfa -64 + ^ x27: .cfa -80 + ^ .ra: .cfa -88 + ^ x29: .cfa -96 + ^
STACK CFI 50e50 .cfa: sp 128 +
STACK CFI 50e6c .cfa: sp 0 +
STACK CFI 50e70 .cfa: x29 96 +
STACK CFI INIT 51184 174 .cfa: sp 0 +
STACK CFI 51188 .cfa: sp 112 +
STACK CFI 51198 .cfa: x29 48 + x19: .cfa -8 + ^ x20: .cfa -16 + ^ x21: .cfa -32 + ^ .ra: .cfa -40 + ^ x29: .cfa -48 + ^
STACK CFI 51294 .cfa: sp 112 +
STACK CFI 512a4 .cfa: sp 0 +
STACK CFI 512a8 .cfa: x29 48 +
STACK CFI INIT 51494 19c .cfa: sp 0 +
STACK CFI 51498 .cfa: sp 112 +
STACK CFI 514a8 .cfa: x29 48 + x19: .cfa -8 + ^ x20: .cfa -16 + ^ x21: .cfa -32 + ^ .ra: .cfa -40 + ^ x29: .cfa -48 + ^
STACK CFI 515d0 .cfa: sp 112 +
STACK CFI 515e0 .cfa: sp 0 +
STACK CFI 515e4 .cfa: x29 48 +
STACK CFI INIT 51704 19c .cfa: sp 0 +
STACK CFI 51708 .cfa: sp 112 +
STACK CFI 51718 .cfa: x29 48 + x19: .cfa -8 + ^ x20: .cfa -16 + ^ x21: .cfa -32 + ^ .ra: .cfa -40 + ^ x29: .cfa -48 + ^
STACK CFI 51840 .cfa: sp 112 +
STACK CFI 51850 .cfa: sp 0 +
STACK CFI 51854 .cfa: x29 48 +
STACK CFI INIT 51928 198 .cfa: sp 0 +
STACK CFI 5192c .cfa: sp 112 +
STACK CFI 5193c .cfa: x29 48 + x19: .cfa -8 + ^ x20: .cfa -16 + ^ x21: .cfa -32 + ^ .ra: .cfa -40 + ^ x29: .cfa -48 + ^
STACK CFI 51a60 .cfa: sp 112 +
STACK CFI 51a70 .cfa: sp 0 +
STACK CFI 51a74 .cfa: x29 48 +
STACK CFI INIT 51b7c 118 .cfa: sp 0 +
STACK CFI 51b80 .cfa: sp 80 +
STACK CFI 51b90 .cfa: x29 48 + x19: .cfa -8 + ^ x20: .cfa -16 + ^ x21: .cfa -32 + ^ .ra: .cfa -40 + ^ x29: .cfa -48 + ^
STACK CFI 51c14 .cfa: sp 80 +
STACK CFI 51c24 .cfa: sp 0 +
STACK CFI 51c28 .cfa: x29 48 +
STACK CFI INIT 51c94 130 .cfa: sp 0 +
STACK CFI 51c98 .cfa: sp 96 +
STACK CFI 51cac .cfa: x29 48 + x19: .cfa -8 + ^ x20: .cfa -16 + ^ x21: .cfa -24 + ^ x22: .cfa -32 + ^ .ra: .cfa -40 + ^ x29: .cfa -48 + ^ v8: .cfa -64 + ^
STACK CFI 51d74 .cfa: sp 96 +
STACK CFI 51d88 .cfa: sp 0 +
STACK CFI 51d8c .cfa: x29 48 +
STACK CFI INIT 51dc4 158 .cfa: sp 0 +
STACK CFI 51dc8 .cfa: sp 96 +
STACK CFI 51ddc .cfa: x29 48 + x19: .cfa -8 + ^ x20: .cfa -16 + ^ x21: .cfa -24 + ^ x22: .cfa -32 + ^ .ra: .cfa -40 + ^ x29: .cfa -48 + ^ v8: .cfa -64 + ^
STACK CFI 51ebc .cfa: sp 96 +
STACK CFI 51ed0 .cfa: sp 0 +
STACK CFI 51ed4 .cfa: x29 48 +
STACK CFI INIT 52088 38c .cfa: sp 0 +
STACK CFI 5208c .cfa: sp 192 +
STACK CFI 520a8 .cfa: x29 96 + x19: .cfa -8 + ^ x20: .cfa -16 + ^ x21: .cfa -24 + ^ x22: .cfa -32 + ^ x23: .cfa -40 + ^ x24: .cfa -48 + ^ x25: .cfa -56 + ^ x26: .cfa -64 + ^ x27: .cfa -80 + ^ .ra: .cfa -88 + ^ x29: .cfa -96 + ^
STACK CFI 522e0 .cfa: sp 192 +
STACK CFI 522fc .cfa: sp 0 +
STACK CFI 52300 .cfa: x29 96 +
STACK CFI INIT 52430 124 .cfa: sp 0 +
STACK CFI 52434 .cfa: sp 96 +
STACK CFI 52448 .cfa: x29 40 + x19: .cfa -8 + ^ x20: .cfa -16 + ^ x21: .cfa -24 + ^ .ra: .cfa -32 + ^ x29: .cfa -40 + ^ v8: .cfa -48 + ^
STACK CFI 524f8 .cfa: sp 96 +
STACK CFI 5250c .cfa: sp 0 +
STACK CFI 52510 .cfa: x29 40 +
STACK CFI INIT 525c8 74 .cfa: sp 0 +
STACK CFI 525cc .cfa: sp 48 +
STACK CFI 525d8 .cfa: x29 32 + x19: .cfa -8 + ^ x20: .cfa -16 + ^ .ra: .cfa -24 + ^ x29: .cfa -32 + ^
STACK CFI 52624 .cfa: sp 48 +
STACK CFI 52630 .cfa: sp 0 +
STACK CFI 52634 .cfa: x29 32 +
STACK CFI INIT 52670 88 .cfa: sp 0 +
STACK CFI 52674 .cfa: sp 32 +
STACK CFI 5267c .cfa: x29 32 + x19: .cfa -8 + ^ x20: .cfa -16 + ^ .ra: .cfa -24 + ^ x29: .cfa -32 + ^
STACK CFI 526b4 .cfa: sp 32 +
STACK CFI 526bc .cfa: sp 0 +
STACK CFI 526c0 .cfa: x29 32 +
STACK CFI 526d8 .cfa: sp 32 +
STACK CFI 526e0 .cfa: sp 0 +
STACK CFI 526e4 .cfa: x29 32 +
STACK CFI INIT 526f8 594 .cfa: sp 0 +
STACK CFI 526fc .cfa: sp 80 +
STACK CFI 52710 .cfa: x29 64 + x19: .cfa -8 + ^ x20: .cfa -16 + ^ x21: .cfa -24 + ^ x22: .cfa -32 + ^ x23: .cfa -40 + ^ x28: .cfa -48 + ^ .ra: .cfa -56 + ^ x29: .cfa -64 + ^ v8: .cfa -80 + ^
STACK CFI 52be4 .cfa: sp 80 +
STACK CFI 52bf8 .cfa: sp 0 +
STACK CFI 52bfc .cfa: x29 64 +
STACK CFI INIT 52c8c 108 .cfa: sp 0 +
STACK CFI 52c90 .cfa: sp 80 +
STACK CFI 52ca4 .cfa: x29 64 + x19: .cfa -8 + ^ x20: .cfa -16 + ^ x21: .cfa -24 + ^ x22: .cfa -32 + ^ x23: .cfa -48 + ^ .ra: .cfa -56 + ^ x29: .cfa -64 + ^
STACK CFI 52d54 .cfa: sp 80 +
STACK CFI 52d68 .cfa: sp 0 +
STACK CFI 52d6c .cfa: x29 64 +
STACK CFI INIT 52d94 42c .cfa: sp 0 +
STACK CFI 52d98 .cfa: sp 64 +
STACK CFI 52da8 .cfa: x29 64 + x19: .cfa -8 + ^ x20: .cfa -16 + ^ x21: .cfa -24 + ^ x22: .cfa -32 + ^ x23: .cfa -40 + ^ x28: .cfa -48 + ^ .ra: .cfa -56 + ^ x29: .cfa -64 + ^
STACK CFI 530f0 .cfa: sp 64 +
STACK CFI 53100 .cfa: sp 0 +
STACK CFI 53104 .cfa: x29 64 +
STACK CFI INIT 53490 90 .cfa: sp 0 +
STACK CFI 53494 .cfa: sp 32 +
STACK CFI 5349c .cfa: x29 32 + x19: .cfa -8 + ^ x20: .cfa -16 + ^ .ra: .cfa -24 + ^ x29: .cfa -32 + ^
STACK CFI 534dc .cfa: sp 32 +
STACK CFI 534e4 .cfa: sp 0 +
STACK CFI 534e8 .cfa: x29 32 +
STACK CFI 53500 .cfa: sp 32 +
STACK CFI 53508 .cfa: sp 0 +
STACK CFI 5350c .cfa: x29 32 +
STACK CFI INIT 53520 460 .cfa: sp 0 +
STACK CFI 53524 .cfa: sp 112 +
STACK CFI 5353c .cfa: x29 48 + x19: .cfa -8 + ^ x20: .cfa -16 + ^ x21: .cfa -24 + ^ x22: .cfa -32 + ^ .ra: .cfa -40 + ^ x29: .cfa -48 + ^ v8: .cfa -56 + ^ v9: .cfa -64 + ^ v10: .cfa -72 + ^ v11: .cfa -80 + ^
STACK CFI 53920 .cfa: sp 112 +
STACK CFI 53938 .cfa: sp 0 +
STACK CFI 5393c .cfa: x29 48 +
STACK CFI INIT 53a00 144 .cfa: sp 0 +
STACK CFI 53a04 .cfa: sp 128 +
STACK CFI 53a14 .cfa: x29 48 + x19: .cfa -8 + ^ x20: .cfa -16 + ^ x21: .cfa -24 + ^ x22: .cfa -32 + ^ .ra: .cfa -40 + ^ x29: .cfa -48 + ^
STACK CFI 53b00 .cfa: sp 128 +
STACK CFI 53b10 .cfa: sp 0 +
STACK CFI 53b14 .cfa: x29 48 +
STACK CFI INIT 53b44 238 .cfa: sp 0 +
STACK CFI 53b48 .cfa: sp 144 +
STACK CFI 53b5c .cfa: x29 64 + x19: .cfa -8 + ^ x20: .cfa -16 + ^ x21: .cfa -24 + ^ x22: .cfa -32 + ^ x23: .cfa -48 + ^ .ra: .cfa -56 + ^ x29: .cfa -64 + ^
STACK CFI 53d34 .cfa: sp 144 +
STACK CFI 53d48 .cfa: sp 0 +
STACK CFI 53d4c .cfa: x29 64 +
STACK CFI INIT 53db8 a0 .cfa: sp 0 +
STACK CFI 53dbc .cfa: sp 48 +
STACK CFI 53dc8 .cfa: x29 32 + x19: .cfa -8 + ^ x20: .cfa -16 + ^ .ra: .cfa -24 + ^ x29: .cfa -32 + ^ v8: .cfa -48 + ^
STACK CFI 53e0c .cfa: sp 48 +
STACK CFI 53e18 .cfa: sp 0 +
STACK CFI 53e1c .cfa: x29 32 +
STACK CFI 53e34 .cfa: sp 48 +
STACK CFI 53e40 .cfa: sp 0 +
STACK CFI 53e44 .cfa: x29 32 +
STACK CFI INIT 53e58 3e4 .cfa: sp 0 +
STACK CFI 53e5c .cfa: sp 128 +
STACK CFI 53e74 .cfa: x29 48 + x19: .cfa -8 + ^ x20: .cfa -16 + ^ x21: .cfa -24 + ^ x22: .cfa -32 + ^ .ra: .cfa -40 + ^ x29: .cfa -48 + ^ v8: .cfa -56 + ^ v9: .cfa -64 + ^ v10: .cfa -80 + ^
STACK CFI 541e4 .cfa: sp 128 +
STACK CFI 541fc .cfa: sp 0 +
STACK CFI 54200 .cfa: x29 48 +
STACK CFI INIT 5432c 120 .cfa: sp 0 +
STACK CFI 54330 .cfa: sp 64 +
STACK CFI 5433c .cfa: x29 32 + x19: .cfa -8 + ^ x20: .cfa -16 + ^ .ra: .cfa -24 + ^ x29: .cfa -32 + ^
STACK CFI 54414 .cfa: sp 64 +
STACK CFI 54420 .cfa: sp 0 +
STACK CFI 54424 .cfa: x29 32 +
STACK CFI INIT 54518 123c .cfa: sp 0 +
STACK CFI 5451c .cfa: sp 80 +
STACK CFI 54530 .cfa: x29 64 + x19: .cfa -8 + ^ x20: .cfa -16 + ^ x21: .cfa -24 + ^ x22: .cfa -32 + ^ x23: .cfa -40 + ^ x28: .cfa -48 + ^ .ra: .cfa -56 + ^ x29: .cfa -64 + ^ v8: .cfa -80 + ^
STACK CFI 55550 .cfa: sp 80 +
STACK CFI 55564 .cfa: sp 0 +
STACK CFI 55568 .cfa: x29 64 +
STACK CFI INIT 55984 288 .cfa: sp 0 +
STACK CFI 55988 .cfa: sp 80 +
STACK CFI 5599c .cfa: x29 40 + x19: .cfa -8 + ^ x20: .cfa -16 + ^ x21: .cfa -24 + ^ .ra: .cfa -32 + ^ x29: .cfa -40 + ^ v8: .cfa -48 + ^
STACK CFI 55bc0 .cfa: sp 80 +
STACK CFI 55bd4 .cfa: sp 0 +
STACK CFI 55bd8 .cfa: x29 40 +
STACK CFI INIT 55c0c 92c .cfa: sp 0 +
STACK CFI 55c10 .cfa: sp 80 +
STACK CFI 55c24 .cfa: x29 64 + x19: .cfa -8 + ^ x20: .cfa -16 + ^ x21: .cfa -24 + ^ x22: .cfa -32 + ^ x23: .cfa -40 + ^ x28: .cfa -48 + ^ .ra: .cfa -56 + ^ x29: .cfa -64 + ^ v8: .cfa -80 + ^
STACK CFI 563c8 .cfa: sp 80 +
STACK CFI 563dc .cfa: sp 0 +
STACK CFI 563e0 .cfa: x29 64 +
STACK CFI INIT 56538 190 .cfa: sp 0 +
STACK CFI 5653c .cfa: sp 96 +
STACK CFI 5654c .cfa: x29 48 + x19: .cfa -8 + ^ x20: .cfa -16 + ^ x21: .cfa -24 + ^ x22: .cfa -32 + ^ .ra: .cfa -40 + ^ x29: .cfa -48 + ^
STACK CFI 56644 .cfa: sp 96 +
STACK CFI 56654 .cfa: sp 0 +
STACK CFI 56658 .cfa: x29 48 +
STACK CFI INIT 5679c d8 .cfa: sp 0 +
STACK CFI 567a0 .cfa: sp 32 +
STACK CFI 567a8 .cfa: x29 32 + x19: .cfa -8 + ^ x20: .cfa -16 + ^ .ra: .cfa -24 + ^ x29: .cfa -32 + ^
STACK CFI 56864 .cfa: sp 32 +
STACK CFI 5686c .cfa: sp 0 +
STACK CFI 56870 .cfa: x29 32 +
STACK CFI INIT 56874 e0 .cfa: sp 0 +
STACK CFI 56878 .cfa: sp 32 +
STACK CFI 56880 .cfa: x29 32 + x19: .cfa -8 + ^ x20: .cfa -16 + ^ .ra: .cfa -24 + ^ x29: .cfa -32 + ^
STACK CFI 56944 .cfa: sp 32 +
STACK CFI 5694c .cfa: sp 0 +
STACK CFI 56950 .cfa: x29 32 +
STACK CFI INIT 569b4 134 .cfa: sp 0 +
STACK CFI 569b8 .cfa: sp 96 +
STACK CFI 569c8 .cfa: x29 48 + x19: .cfa -8 + ^ x20: .cfa -16 + ^ x21: .cfa -32 + ^ .ra: .cfa -40 + ^ x29: .cfa -48 + ^
STACK CFI 56a9c .cfa: sp 96 +
STACK CFI 56aac .cfa: sp 0 +
STACK CFI 56ab0 .cfa: x29 48 +
STACK CFI INIT 56ae8 e4 .cfa: sp 0 +
STACK CFI 56aec .cfa: sp 48 +
STACK CFI 56af8 .cfa: x29 48 + x19: .cfa -8 + ^ x20: .cfa -16 + ^ x21: .cfa -32 + ^ .ra: .cfa -40 + ^ x29: .cfa -48 + ^
STACK CFI 56bb8 .cfa: sp 48 +
STACK CFI 56bc4 .cfa: sp 0 +
STACK CFI 56bc8 .cfa: x29 48 +
STACK CFI INIT 56bcc ec .cfa: sp 0 +
STACK CFI 56bd0 .cfa: sp 48 +
STACK CFI 56bdc .cfa: x29 48 + x19: .cfa -8 + ^ x20: .cfa -16 + ^ x21: .cfa -32 + ^ .ra: .cfa -40 + ^ x29: .cfa -48 + ^
STACK CFI 56ca4 .cfa: sp 48 +
STACK CFI 56cb0 .cfa: sp 0 +
STACK CFI 56cb4 .cfa: x29 48 +
STACK CFI INIT 56d00 6c .cfa: sp 0 +
STACK CFI 56d04 .cfa: sp 32 +
STACK CFI 56d0c .cfa: x29 32 + x19: .cfa -16 + ^ .ra: .cfa -24 + ^ x29: .cfa -32 + ^
STACK CFI 56d5c .cfa: sp 32 +
STACK CFI 56d64 .cfa: sp 0 +
STACK CFI 56d68 .cfa: x29 32 +
STACK CFI INIT 56d70 6c .cfa: sp 0 +
STACK CFI 56d74 .cfa: sp 32 +
STACK CFI 56d7c .cfa: x29 32 + x19: .cfa -16 + ^ .ra: .cfa -24 + ^ x29: .cfa -32 + ^
STACK CFI 56dcc .cfa: sp 32 +
STACK CFI 56dd4 .cfa: sp 0 +
STACK CFI 56dd8 .cfa: x29 32 +
STACK CFI INIT 57310 3c0 .cfa: sp 0 +
STACK CFI 57314 .cfa: sp 304 +
STACK CFI 57330 .cfa: x29 96 + x19: .cfa -8 + ^ x20: .cfa -16 + ^ x21: .cfa -24 + ^ x22: .cfa -32 + ^ x23: .cfa -40 + ^ x24: .cfa -48 + ^ x25: .cfa -56 + ^ x26: .cfa -64 + ^ x28: .cfa -80 + ^ .ra: .cfa -88 + ^ x29: .cfa -96 + ^
STACK CFI 57650 .cfa: sp 304 +
STACK CFI 5766c .cfa: sp 0 +
STACK CFI 57670 .cfa: x29 96 +
STACK CFI INIT 579d8 618 .cfa: sp 0 +
STACK CFI 579dc .cfa: sp 128 +
STACK CFI 579f8 .cfa: x29 96 + x19: .cfa -8 + ^ x20: .cfa -16 + ^ x21: .cfa -24 + ^ x22: .cfa -32 + ^ x23: .cfa -40 + ^ x24: .cfa -48 + ^ x25: .cfa -56 + ^ x26: .cfa -64 + ^ x27: .cfa -72 + ^ x28: .cfa -80 + ^ .ra: .cfa -88 + ^ x29: .cfa -96 + ^
STACK CFI 57f90 .cfa: sp 128 +
STACK CFI 57fac .cfa: sp 0 +
STACK CFI 57fb0 .cfa: x29 96 +
STACK CFI INIT 6ae30 134 .cfa: sp 0 +
STACK CFI 6ae34 .cfa: sp 80 +
STACK CFI 6ae40 .cfa: x29 32 + x19: .cfa -8 + ^ x20: .cfa -16 + ^ .ra: .cfa -24 + ^ x29: .cfa -32 + ^
STACK CFI 6ae70 .cfa: sp 80 +
STACK CFI 6ae7c .cfa: sp 0 +
STACK CFI 6ae80 .cfa: x29 32 +
STACK CFI INIT 6af64 78 .cfa: sp 0 +
STACK CFI 6af68 .cfa: sp 32 +
STACK CFI 6af70 .cfa: x29 32 + x19: .cfa -8 + ^ x20: .cfa -16 + ^ .ra: .cfa -24 + ^ x29: .cfa -32 + ^
STACK CFI 6af7c .cfa: sp 32 +
STACK CFI 6af84 .cfa: sp 0 +
STACK CFI 6af88 .cfa: x29 32 +
STACK CFI INIT 6afdc 74 .cfa: sp 0 +
STACK CFI 6afe0 .cfa: sp 48 +
STACK CFI 6afec .cfa: x29 32 + x19: .cfa -8 + ^ x20: .cfa -16 + ^ .ra: .cfa -24 + ^ x29: .cfa -32 + ^
STACK CFI 6b038 .cfa: sp 48 +
STACK CFI 6b044 .cfa: sp 0 +
STACK CFI 6b048 .cfa: x29 32 +
STACK CFI INIT 6b0d8 25c .cfa: sp 0 +
STACK CFI 6b0dc .cfa: sp 128 +
STACK CFI 6b0ec .cfa: x29 48 + x19: .cfa -8 + ^ x20: .cfa -16 + ^ x21: .cfa -32 + ^ .ra: .cfa -40 + ^ x29: .cfa -48 + ^
STACK CFI 6b1d4 .cfa: sp 128 +
STACK CFI 6b1e4 .cfa: sp 0 +
STACK CFI 6b1e8 .cfa: x29 48 +
STACK CFI INIT 6b358 26c .cfa: sp 0 +
STACK CFI 6b35c .cfa: sp 128 +
STACK CFI 6b36c .cfa: x29 48 + x19: .cfa -8 + ^ x20: .cfa -16 + ^ x21: .cfa -32 + ^ .ra: .cfa -40 + ^ x29: .cfa -48 + ^
STACK CFI 6b464 .cfa: sp 128 +
STACK CFI 6b474 .cfa: sp 0 +
STACK CFI 6b478 .cfa: x29 48 +
STACK CFI INIT 6b63c 300 .cfa: sp 0 +
STACK CFI 6b640 .cfa: sp 144 +
STACK CFI 6b654 .cfa: x29 64 + x19: .cfa -8 + ^ x20: .cfa -16 + ^ x21: .cfa -24 + ^ x22: .cfa -32 + ^ x23: .cfa -48 + ^ .ra: .cfa -56 + ^ x29: .cfa -64 + ^
STACK CFI 6b7e8 .cfa: sp 144 +
STACK CFI 6b7fc .cfa: sp 0 +
STACK CFI 6b800 .cfa: x29 64 +
STACK CFI INIT 6b990 264 .cfa: sp 0 +
STACK CFI 6b994 .cfa: sp 128 +
STACK CFI 6b9a4 .cfa: x29 48 + x19: .cfa -8 + ^ x20: .cfa -16 + ^ x21: .cfa -32 + ^ .ra: .cfa -40 + ^ x29: .cfa -48 + ^
STACK CFI 6ba9c .cfa: sp 128 +
STACK CFI 6baac .cfa: sp 0 +
STACK CFI 6bab0 .cfa: x29 48 +
STACK CFI INIT 6bc48 270 .cfa: sp 0 +
STACK CFI 6bc4c .cfa: sp 144 +
STACK CFI 6bc60 .cfa: x29 64 + x19: .cfa -8 + ^ x20: .cfa -16 + ^ x21: .cfa -24 + ^ x22: .cfa -32 + ^ x23: .cfa -48 + ^ .ra: .cfa -56 + ^ x29: .cfa -64 + ^
STACK CFI 6bd64 .cfa: sp 144 +
STACK CFI 6bd78 .cfa: sp 0 +
STACK CFI 6bd7c .cfa: x29 64 +
STACK CFI INIT 6bedc 22c .cfa: sp 0 +
STACK CFI 6bee0 .cfa: sp 128 +
STACK CFI 6bef0 .cfa: x29 48 + x19: .cfa -8 + ^ x20: .cfa -16 + ^ x21: .cfa -32 + ^ .ra: .cfa -40 + ^ x29: .cfa -48 + ^
STACK CFI 6bfa8 .cfa: sp 128 +
STACK CFI 6bfb8 .cfa: sp 0 +
STACK CFI 6bfbc .cfa: x29 48 +
STACK CFI INIT 6c108 224 .cfa: sp 0 +
STACK CFI 6c10c .cfa: sp 128 +
STACK CFI 6c11c .cfa: x29 48 + x19: .cfa -8 + ^ x20: .cfa -16 + ^ x21: .cfa -32 + ^ .ra: .cfa -40 + ^ x29: .cfa -48 + ^
STACK CFI 6c1cc .cfa: sp 128 +
STACK CFI 6c1dc .cfa: sp 0 +
STACK CFI 6c1e0 .cfa: x29 48 +
STACK CFI INIT 6c32c 268 .cfa: sp 0 +
STACK CFI 6c330 .cfa: sp 144 +
STACK CFI 6c344 .cfa: x29 64 + x19: .cfa -8 + ^ x20: .cfa -16 + ^ x21: .cfa -24 + ^ x22: .cfa -32 + ^ x23: .cfa -48 + ^ .ra: .cfa -56 + ^ x29: .cfa -64 + ^
STACK CFI 6c440 .cfa: sp 144 +
STACK CFI 6c454 .cfa: sp 0 +
STACK CFI 6c458 .cfa: x29 64 +
STACK CFI INIT 6c6a8 2b8 .cfa: sp 0 +
STACK CFI 6c6ac .cfa: sp 144 +
STACK CFI 6c6c0 .cfa: x29 64 + x19: .cfa -8 + ^ x20: .cfa -16 + ^ x21: .cfa -24 + ^ x22: .cfa -32 + ^ x23: .cfa -48 + ^ .ra: .cfa -56 + ^ x29: .cfa -64 + ^
STACK CFI 6c80c .cfa: sp 144 +
STACK CFI 6c820 .cfa: sp 0 +
STACK CFI 6c824 .cfa: x29 64 +
STACK CFI INIT 6c9b8 2e4 .cfa: sp 0 +
STACK CFI 6c9bc .cfa: sp 144 +
STACK CFI 6c9d0 .cfa: x29 64 + x19: .cfa -8 + ^ x20: .cfa -16 + ^ x21: .cfa -24 + ^ x22: .cfa -32 + ^ x23: .cfa -48 + ^ .ra: .cfa -56 + ^ x29: .cfa -64 + ^
STACK CFI 6cb48 .cfa: sp 144 +
STACK CFI 6cb5c .cfa: sp 0 +
STACK CFI 6cb60 .cfa: x29 64 +
STACK CFI INIT 6cc9c 2e4 .cfa: sp 0 +
STACK CFI 6cca0 .cfa: sp 144 +
STACK CFI 6ccb4 .cfa: x29 64 + x19: .cfa -8 + ^ x20: .cfa -16 + ^ x21: .cfa -24 + ^ x22: .cfa -32 + ^ x23: .cfa -48 + ^ .ra: .cfa -56 + ^ x29: .cfa -64 + ^
STACK CFI 6ce2c .cfa: sp 144 +
STACK CFI 6ce40 .cfa: sp 0 +
STACK CFI 6ce44 .cfa: x29 64 +
STACK CFI INIT 6cf80 2a0 .cfa: sp 0 +
STACK CFI 6cf84 .cfa: sp 144 +
STACK CFI 6cf98 .cfa: x29 64 + x19: .cfa -8 + ^ x20: .cfa -16 + ^ x21: .cfa -24 + ^ x22: .cfa -32 + ^ x23: .cfa -48 + ^ .ra: .cfa -56 + ^ x29: .cfa -64 + ^
STACK CFI 6d0cc .cfa: sp 144 +
STACK CFI 6d0e0 .cfa: sp 0 +
STACK CFI 6d0e4 .cfa: x29 64 +
STACK CFI INIT 6d220 2f0 .cfa: sp 0 +
STACK CFI 6d224 .cfa: sp 144 +
STACK CFI 6d238 .cfa: x29 64 + x19: .cfa -8 + ^ x20: .cfa -16 + ^ x21: .cfa -24 + ^ x22: .cfa -32 + ^ x23: .cfa -48 + ^ .ra: .cfa -56 + ^ x29: .cfa -64 + ^
STACK CFI 6d3bc .cfa: sp 144 +
STACK CFI 6d3d0 .cfa: sp 0 +
STACK CFI 6d3d4 .cfa: x29 64 +
STACK CFI INIT 6d510 4f4 .cfa: sp 0 +
STACK CFI 6d514 .cfa: sp 144 +
STACK CFI 6d528 .cfa: x29 64 + x19: .cfa -8 + ^ x20: .cfa -16 + ^ x21: .cfa -24 + ^ x22: .cfa -32 + ^ x23: .cfa -48 + ^ .ra: .cfa -56 + ^ x29: .cfa -64 + ^
STACK CFI 6d85c .cfa: sp 144 +
STACK CFI 6d870 .cfa: sp 0 +
STACK CFI 6d874 .cfa: x29 64 +
STACK CFI INIT 6da04 154 .cfa: sp 0 +
STACK CFI 6da08 .cfa: sp 384 +
STACK CFI 6da1c .cfa: x29 64 + x19: .cfa -8 + ^ x20: .cfa -16 + ^ x21: .cfa -24 + ^ x22: .cfa -32 + ^ x23: .cfa -40 + ^ x28: .cfa -48 + ^ .ra: .cfa -56 + ^ x29: .cfa -64 + ^
STACK CFI 6db00 .cfa: sp 384 +
STACK CFI 6db14 .cfa: sp 0 +
STACK CFI 6db18 .cfa: x29 64 +
STACK CFI INIT 6db70 50c .cfa: sp 0 +
STACK CFI 6db74 .cfa: sp 64 +
STACK CFI 6db84 .cfa: x29 64 + x19: .cfa -8 + ^ x20: .cfa -16 + ^ x21: .cfa -24 + ^ x22: .cfa -32 + ^ x23: .cfa -40 + ^ x24: .cfa -48 + ^ .ra: .cfa -56 + ^ x29: .cfa -64 + ^
STACK CFI 6dca4 .cfa: sp 64 +
STACK CFI 6dcb4 .cfa: sp 0 +
STACK CFI 6dcb8 .cfa: x29 64 +
STACK CFI 6e050 .cfa: sp 64 +
STACK CFI 6e060 .cfa: sp 0 +
STACK CFI 6e064 .cfa: x29 64 +
STACK CFI INIT 6e3ac 294 .cfa: sp 0 +
STACK CFI 6e3b0 .cfa: sp 240 +
STACK CFI 6e3c8 .cfa: x29 80 + x19: .cfa -8 + ^ x20: .cfa -16 + ^ x21: .cfa -24 + ^ x22: .cfa -32 + ^ x23: .cfa -40 + ^ x24: .cfa -48 + ^ x25: .cfa -64 + ^ .ra: .cfa -72 + ^ x29: .cfa -80 + ^
STACK CFI 6e568 .cfa: sp 240 +
STACK CFI 6e580 .cfa: sp 0 +
STACK CFI 6e584 .cfa: x29 80 +
STACK CFI INIT 6e6bc 50 .cfa: sp 0 +
STACK CFI 6e6c0 .cfa: sp 32 +
STACK CFI 6e6c8 .cfa: x29 32 + x19: .cfa -8 + ^ x20: .cfa -16 + ^ .ra: .cfa -24 + ^ x29: .cfa -32 + ^
STACK CFI INIT 6e738 7c0 .cfa: sp 0 +
STACK CFI 6e73c .cfa: sp 320 +
STACK CFI 6e758 .cfa: x29 96 + x19: .cfa -8 + ^ x20: .cfa -16 + ^ x21: .cfa -24 + ^ x22: .cfa -32 + ^ x23: .cfa -40 + ^ x24: .cfa -48 + ^ x25: .cfa -56 + ^ x26: .cfa -64 + ^ x27: .cfa -72 + ^ x28: .cfa -80 + ^ .ra: .cfa -88 + ^ x29: .cfa -96 + ^
STACK CFI 6eda8 .cfa: sp 320 +
STACK CFI 6edc4 .cfa: sp 0 +
STACK CFI 6edc8 .cfa: x29 96 +
STACK CFI INIT 6ef5c 14c .cfa: sp 0 +
STACK CFI 6ef60 .cfa: sp 80 +
STACK CFI 6ef74 .cfa: x29 80 + x19: .cfa -8 + ^ x20: .cfa -16 + ^ x21: .cfa -24 + ^ x22: .cfa -32 + ^ x23: .cfa -40 + ^ x24: .cfa -48 + ^ x28: .cfa -64 + ^ .ra: .cfa -72 + ^ x29: .cfa -80 + ^
STACK CFI 6f008 .cfa: sp 80 +
STACK CFI 6f01c .cfa: sp 0 +
STACK CFI 6f020 .cfa: x29 80 +
STACK CFI INIT 72bd4 c84 .cfa: sp 0 +
STACK CFI 72bd8 .cfa: sp 96 +
STACK CFI 72bf0 .cfa: x29 96 + x19: .cfa -8 + ^ x20: .cfa -16 + ^ x21: .cfa -24 + ^ x22: .cfa -32 + ^ x23: .cfa -40 + ^ x24: .cfa -48 + ^ x25: .cfa -56 + ^ x26: .cfa -64 + ^ x27: .cfa -72 + ^ x28: .cfa -80 + ^ .ra: .cfa -88 + ^ x29: .cfa -96 + ^
STACK CFI 73678 .cfa: sp 96 +
STACK CFI 73690 .cfa: sp 0 +
STACK CFI 73694 .cfa: x29 96 +
STACK CFI INIT 739ac 268 .cfa: sp 0 +
STACK CFI 739b0 .cfa: sp 128 +
STACK CFI 739c0 .cfa: x29 48 + x19: .cfa -8 + ^ x20: .cfa -16 + ^ x21: .cfa -24 + ^ x22: .cfa -32 + ^ .ra: .cfa -40 + ^ x29: .cfa -48 + ^
STACK CFI 73b60 .cfa: sp 128 +
STACK CFI 73b70 .cfa: sp 0 +
STACK CFI 73b74 .cfa: x29 48 +
STACK CFI INIT 73fa4 3b8 .cfa: sp 0 +
STACK CFI 73fa8 .cfa: sp 96 +
STACK CFI 73fc0 .cfa: x29 96 + x19: .cfa -8 + ^ x20: .cfa -16 + ^ x21: .cfa -24 + ^ x22: .cfa -32 + ^ x23: .cfa -40 + ^ x24: .cfa -48 + ^ x25: .cfa -56 + ^ x26: .cfa -64 + ^ x27: .cfa -72 + ^ x28: .cfa -80 + ^ .ra: .cfa -88 + ^ x29: .cfa -96 + ^
STACK CFI 742fc .cfa: sp 96 +
STACK CFI 74314 .cfa: sp 0 +
STACK CFI 74318 .cfa: x29 96 +
STACK CFI INIT 743fc cbc .cfa: sp 0 +
STACK CFI 74400 .cfa: sp 96 +
STACK CFI 74418 .cfa: x29 96 + x19: .cfa -8 + ^ x20: .cfa -16 + ^ x21: .cfa -24 + ^ x22: .cfa -32 + ^ x23: .cfa -40 + ^ x24: .cfa -48 + ^ x25: .cfa -56 + ^ x26: .cfa -64 + ^ x27: .cfa -72 + ^ x28: .cfa -80 + ^ .ra: .cfa -88 + ^ x29: .cfa -96 + ^
STACK CFI 74ec8 .cfa: sp 96 +
STACK CFI 74ee0 .cfa: sp 0 +
STACK CFI 74ee4 .cfa: x29 96 +
STACK CFI INIT 753a0 ae0 .cfa: sp 0 +
STACK CFI 753a4 .cfa: sp 96 +
STACK CFI 753bc .cfa: x29 96 + x19: .cfa -8 + ^ x20: .cfa -16 + ^ x21: .cfa -24 + ^ x22: .cfa -32 + ^ x23: .cfa -40 + ^ x24: .cfa -48 + ^ x25: .cfa -56 + ^ x26: .cfa -64 + ^ x27: .cfa -72 + ^ x28: .cfa -80 + ^ .ra: .cfa -88 + ^ x29: .cfa -96 + ^
STACK CFI 75df4 .cfa: sp 96 +
STACK CFI 75e0c .cfa: sp 0 +
STACK CFI 75e10 .cfa: x29 96 +
STACK CFI INIT 76074 1424 .cfa: sp 0 +
STACK CFI 76078 .cfa: sp 96 +
STACK CFI 76090 .cfa: x29 96 + x19: .cfa -8 + ^ x20: .cfa -16 + ^ x21: .cfa -24 + ^ x22: .cfa -32 + ^ x23: .cfa -40 + ^ x24: .cfa -48 + ^ x25: .cfa -56 + ^ x26: .cfa -64 + ^ x27: .cfa -72 + ^ x28: .cfa -80 + ^ .ra: .cfa -88 + ^ x29: .cfa -96 + ^
STACK CFI 77328 .cfa: sp 96 +
STACK CFI 77340 .cfa: sp 0 +
STACK CFI 77344 .cfa: x29 96 +
STACK CFI INIT 775bc 75c .cfa: sp 0 +
STACK CFI 775c0 .cfa: sp 368 +
STACK CFI 775dc .cfa: x29 96 + x19: .cfa -8 + ^ x20: .cfa -16 + ^ x21: .cfa -24 + ^ x22: .cfa -32 + ^ x23: .cfa -40 + ^ x24: .cfa -48 + ^ x25: .cfa -56 + ^ x26: .cfa -64 + ^ x27: .cfa -72 + ^ x28: .cfa -80 + ^ .ra: .cfa -88 + ^ x29: .cfa -96 + ^
STACK CFI 77690 .cfa: sp 368 +
STACK CFI 776ac .cfa: sp 0 +
STACK CFI 776b0 .cfa: x29 96 +
STACK CFI 77704 .cfa: sp 368 +
STACK CFI 77720 .cfa: sp 0 +
STACK CFI 77724 .cfa: x29 96 +
STACK CFI INIT 780dc edc .cfa: sp 0 +
STACK CFI 780e0 .cfa: sp 96 +
STACK CFI 780f8 .cfa: x29 96 + x19: .cfa -8 + ^ x20: .cfa -16 + ^ x21: .cfa -24 + ^ x22: .cfa -32 + ^ x23: .cfa -40 + ^ x24: .cfa -48 + ^ x25: .cfa -56 + ^ x26: .cfa -64 + ^ x27: .cfa -72 + ^ x28: .cfa -80 + ^ .ra: .cfa -88 + ^ x29: .cfa -96 + ^
STACK CFI 78db0 .cfa: sp 96 +
STACK CFI 78dc8 .cfa: sp 0 +
STACK CFI 78dcc .cfa: x29 96 +
STACK CFI INIT 7932c 1b34 .cfa: sp 0 +
STACK CFI 79330 .cfa: sp 112 +
STACK CFI 7934c .cfa: x29 96 + x19: .cfa -8 + ^ x20: .cfa -16 + ^ x21: .cfa -24 + ^ x22: .cfa -32 + ^ x23: .cfa -40 + ^ x24: .cfa -48 + ^ x25: .cfa -56 + ^ x26: .cfa -64 + ^ x27: .cfa -72 + ^ x28: .cfa -80 + ^ .ra: .cfa -88 + ^ x29: .cfa -96 + ^ v8: .cfa -112 + ^
STACK CFI 7972c .cfa: sp 112 +
STACK CFI 79748 .cfa: sp 0 +
STACK CFI 7974c .cfa: x29 96 +
STACK CFI INIT 7d268 a4c .cfa: sp 0 +
STACK CFI 7d26c .cfa: sp 144 +
STACK CFI 7d284 .cfa: x29 80 + x19: .cfa -8 + ^ x20: .cfa -16 + ^ x21: .cfa -24 + ^ x22: .cfa -32 + ^ x23: .cfa -40 + ^ x24: .cfa -48 + ^ x25: .cfa -64 + ^ .ra: .cfa -72 + ^ x29: .cfa -80 + ^
STACK CFI 7dc0c .cfa: sp 144 +
STACK CFI 7dc24 .cfa: sp 0 +
STACK CFI 7dc28 .cfa: x29 80 +
STACK CFI INIT 7dcb4 57c .cfa: sp 0 +
STACK CFI 7dcb8 .cfa: sp 96 +
STACK CFI 7dcd0 .cfa: x29 96 + x19: .cfa -8 + ^ x20: .cfa -16 + ^ x21: .cfa -24 + ^ x22: .cfa -32 + ^ x23: .cfa -40 + ^ x24: .cfa -48 + ^ x25: .cfa -56 + ^ x26: .cfa -64 + ^ x27: .cfa -72 + ^ x28: .cfa -80 + ^ .ra: .cfa -88 + ^ x29: .cfa -96 + ^
STACK CFI 7e194 .cfa: sp 96 +
STACK CFI 7e1ac .cfa: sp 0 +
STACK CFI 7e1b0 .cfa: x29 96 +
STACK CFI INIT 7e230 67c .cfa: sp 0 +
STACK CFI 7e234 .cfa: sp 96 +
STACK CFI 7e24c .cfa: x29 96 + x19: .cfa -8 + ^ x20: .cfa -16 + ^ x21: .cfa -24 + ^ x22: .cfa -32 + ^ x23: .cfa -40 + ^ x24: .cfa -48 + ^ x25: .cfa -56 + ^ x26: .cfa -64 + ^ x27: .cfa -72 + ^ x28: .cfa -80 + ^ .ra: .cfa -88 + ^ x29: .cfa -96 + ^
STACK CFI 7e810 .cfa: sp 96 +
STACK CFI 7e828 .cfa: sp 0 +
STACK CFI 7e82c .cfa: x29 96 +
