MODULE Linux arm64 DFE8AE64DA5CF9A179EF31EE796DA1D50 omgrod.garage_plus.android64.so
INFO CODE_ID 64AEE8DF5CDAA1F979EF31EE796DA1D5BD602F46
INFO GENERATOR mozilla/dump_syms 2.3.4
PUBLIC 18a70 0 __on_dlclose
PUBLIC 18a80 0 __emutls_unregister_key
PUBLIC 18a88 0 __on_dlclose_late
PUBLIC 18a90 0 __atexit_handler_wrapper
PUBLIC 18aa4 0 atexit
PUBLIC 18ac0 0 pthread_atfork
PUBLIC 18ad0 0 unwind_phase2
PUBLIC 18c04 0 _Unwind_Resume
PUBLIC 18c88 0 unwind_phase2_forced
PUBLIC m 18d7c 0 __unw_init_local
PUBLIC m 18e24 0 __unw_get_reg
PUBLIC 18ea0 0 __unw_step_stage2
PUBLIC m 18eb4 0 __unw_get_proc_info
PUBLIC m 18ef4 0 __unw_resume
PUBLIC 18f1c 0 libunwind::CFI_Parser<libunwind::LocalAddressSpace>::decodeFDE(libunwind::LocalAddressSpace&, unsigned long, libunwind::CFI_Parser<libunwind::LocalAddressSpace>::FDE_Info*, libunwind::CFI_Parser<libunwind::LocalAddressSpace>::CIE_Info*, bool)
PUBLIC 190ac 0 libunwind::CFI_Parser<libunwind::LocalAddressSpace>::parseCIE(libunwind::LocalAddressSpace&, unsigned long, libunwind::CFI_Parser<libunwind::LocalAddressSpace>::CIE_Info*)
PUBLIC 19374 0 libunwind::AbstractUnwindCursor::~AbstractUnwindCursor()
PUBLIC 1937c 0 libunwind::UnwindCursor<libunwind::LocalAddressSpace, libunwind::Registers_arm64>::~UnwindCursor()
PUBLIC 19384 0 libunwind::UnwindCursor<libunwind::LocalAddressSpace, libunwind::Registers_arm64>::validReg(int)
PUBLIC 193c8 0 libunwind::UnwindCursor<libunwind::LocalAddressSpace, libunwind::Registers_arm64>::getReg(int)
PUBLIC 194b0 0 libunwind::UnwindCursor<libunwind::LocalAddressSpace, libunwind::Registers_arm64>::setReg(int, unsigned long)
PUBLIC 19598 0 libunwind::UnwindCursor<libunwind::LocalAddressSpace, libunwind::Registers_arm64>::validFloatReg(int)
PUBLIC 195ac 0 libunwind::UnwindCursor<libunwind::LocalAddressSpace, libunwind::Registers_arm64>::getFloatReg(int)
PUBLIC 195bc 0 libunwind::UnwindCursor<libunwind::LocalAddressSpace, libunwind::Registers_arm64>::setFloatReg(int, double)
PUBLIC 195cc 0 libunwind::UnwindCursor<libunwind::LocalAddressSpace, libunwind::Registers_arm64>::step(bool)
PUBLIC 196bc 0 libunwind::UnwindCursor<libunwind::LocalAddressSpace, libunwind::Registers_arm64>::getInfo(unw_proc_info_t*)
PUBLIC 19700 0 libunwind::UnwindCursor<libunwind::LocalAddressSpace, libunwind::Registers_arm64>::jumpto()
PUBLIC 1970c 0 libunwind::UnwindCursor<libunwind::LocalAddressSpace, libunwind::Registers_arm64>::isSignalFrame()
PUBLIC 19718 0 libunwind::UnwindCursor<libunwind::LocalAddressSpace, libunwind::Registers_arm64>::getFunctionName(char*, unsigned long, unsigned long*)
PUBLIC 19744 0 libunwind::UnwindCursor<libunwind::LocalAddressSpace, libunwind::Registers_arm64>::setInfoBasedOnIPRegister(bool)
PUBLIC 199c4 0 libunwind::UnwindCursor<libunwind::LocalAddressSpace, libunwind::Registers_arm64>::getRegisterName(int)
PUBLIC 199d0 0 libunwind::UnwindCursor<libunwind::LocalAddressSpace, libunwind::Registers_arm64>::stepThroughSigReturn(libunwind::Registers_arm64&)
PUBLIC 19af0 0 libunwind::DwarfInstructions<libunwind::LocalAddressSpace, libunwind::Registers_arm64>::stepWithDwarf(libunwind::LocalAddressSpace&, unsigned long, unsigned long, libunwind::Registers_arm64&, bool&, bool)
PUBLIC 19f78 0 libunwind::CFI_Parser<libunwind::LocalAddressSpace>::parseFDEInstructions(libunwind::LocalAddressSpace&, libunwind::CFI_Parser<libunwind::LocalAddressSpace>::FDE_Info const&, libunwind::CFI_Parser<libunwind::LocalAddressSpace>::CIE_Info const&, unsigned long, int, libunwind::CFI_Parser<libunwind::LocalAddressSpace>::PrologInfo*)
PUBLIC 1abc0 0 libunwind::DwarfInstructions<libunwind::LocalAddressSpace, libunwind::Registers_arm64>::getCFA(libunwind::LocalAddressSpace&, libunwind::CFI_Parser<libunwind::LocalAddressSpace>::PrologInfo const&, libunwind::Registers_arm64 const&)
PUBLIC 1acf4 0 libunwind::DwarfInstructions<libunwind::LocalAddressSpace, libunwind::Registers_arm64>::getSavedRegister(libunwind::LocalAddressSpace&, libunwind::Registers_arm64 const&, unsigned long, libunwind::CFI_Parser<libunwind::LocalAddressSpace>::RegisterLocation const&)
PUBLIC 1af04 0 libunwind::LocalAddressSpace::getEncodedP(unsigned long&, unsigned long, unsigned char, unsigned long)
PUBLIC 1b290 0 libunwind::LocalAddressSpace::getULEB128(unsigned long&, unsigned long)
PUBLIC 1b458 0 libunwind::DwarfInstructions<libunwind::LocalAddressSpace, libunwind::Registers_arm64>::evaluateExpression(unsigned long, libunwind::LocalAddressSpace&, libunwind::Registers_arm64 const&, unsigned long)
PUBLIC 1be14 0 libunwind::UnwindCursor<libunwind::LocalAddressSpace, libunwind::Registers_arm64>::getInfoFromDwarfSection(unsigned long, libunwind::UnwindInfoSections const&, unsigned int)
PUBLIC 1c0e8 0 libunwind::findUnwindSectionsByPhdr(dl_phdr_info*, unsigned long, void*)
PUBLIC 1c21c 0 libunwind::EHHeaderParser<libunwind::LocalAddressSpace>::decodeEHHdr(libunwind::LocalAddressSpace&, unsigned long, unsigned long, libunwind::EHHeaderParser<libunwind::LocalAddressSpace>::EHHeaderInfo&)
PUBLIC 1c33c 0 libunwind::CFI_Parser<libunwind::LocalAddressSpace>::findFDE(libunwind::LocalAddressSpace&, unsigned long, unsigned long, unsigned long, unsigned long, libunwind::CFI_Parser<libunwind::LocalAddressSpace>::FDE_Info*, libunwind::CFI_Parser<libunwind::LocalAddressSpace>::CIE_Info*)
PUBLIC 1c504 0 libunwind::EHHeaderParser<libunwind::LocalAddressSpace>::findFDE(libunwind::LocalAddressSpace&, unsigned long, unsigned long, unsigned int, libunwind::CFI_Parser<libunwind::LocalAddressSpace>::FDE_Info*, libunwind::CFI_Parser<libunwind::LocalAddressSpace>::CIE_Info*)
PUBLIC 1c66c 0 libunwind::EHHeaderParser<libunwind::LocalAddressSpace>::getTableEntrySize(unsigned char)
PUBLIC 1c768 0 libunwind::Registers_arm64::getRegisterName(int)
PUBLIC 1c798 0 __libunwind_Registers_arm64_jumpto
PUBLIC m 1c828 0 __unw_getcontext
PUBLIC 1c8d0 0 __aarch64_ldadd8_relax
PUBLIC 1c900 0 init_have_lse_atomics
PUBLIC 1c998 0 __init_cpu_features_constructor
PUBLIC 1cf34 0 __init_cpu_features
PUBLIC 1cfc0 0 __aarch64_ldadd8_acq_rel
FUNC 1cff0 400 0 __cxx_global_var_init
FUNC 1d3f0 1c 0 geode::modifier::ModifyBase<geode::modifier::ModifyDerive<hook6<(anonymous namespace)::hook6Parent>, GameManager> >::~ModifyBase()
FUNC 1d40c 788 0 geode::modifier::ModifyDerive<hook6<(anonymous namespace)::hook6Parent>, GameManager>::apply()
FUNC 1db94 50 0 std::__ndk1::shared_ptr<geode::Hook>::~shared_ptr[abi:ne180000]()
FUNC 1dbe4 74 0 geode::impl::ResultData<geode::Hook*, std::__ndk1::basic_string<char, std::__ndk1::char_traits<char>, std::__ndk1::allocator<char> > >::~ResultData()
FUNC 1dc58 7c 0 std::__ndk1::vector<std::__ndk1::basic_string<char, std::__ndk1::char_traits<char>, std::__ndk1::allocator<char> >, std::__ndk1::allocator<std::__ndk1::basic_string<char, std::__ndk1::char_traits<char>, std::__ndk1::allocator<char> > > >::~vector[abi:ne180000]()
FUNC 1dcd4 4 0 geode::modifier::ModifyBase<geode::modifier::ModifyDerive<hook6<(anonymous namespace)::hook6Parent>, GameManager> >::apply()
PUBLIC 1dcd8 0 __clang_call_terminate
FUNC 1dce8 154 0 _ZN5geode15UnwrapExceptionC2IRPNS_4HookEQsr4implE18IsStringStreamableIT_EEENS_4impl5OkTagEOS5_
FUNC 1de3c 34 0 std::__ndk1::__throw_bad_variant_access[abi:ne180000]()
FUNC 1de70 124 0 std::__ndk1::basic_stringstream<char, std::__ndk1::char_traits<char>, std::__ndk1::allocator<char> >::basic_stringstream[abi:ne180000]()
FUNC 1df94 80 0 std::__ndk1::basic_stringstream<char, std::__ndk1::char_traits<char>, std::__ndk1::allocator<char> >::~basic_stringstream()
FUNC 1e014 24 0 geode::UnwrapException::~UnwrapException()
FUNC 1e038 198 0 std::__ndk1::__put_character_sequence[abi:ne180000]<char, std::__ndk1::char_traits<char> >(std::__ndk1::basic_ostream<char, std::__ndk1::char_traits<char> >, std::__ndk1::basic_ostream const*, unsigned long)
FUNC 1e1d0 1b4 0 std::__ndk1::__pad_and_output[abi:ne180000]<char, std::__ndk1::char_traits<char> >(std::__ndk1::char_traits<char>, std::__ndk1::ostreambuf_iterator const*, std::__ndk1::ostreambuf_iterator const, std::__ndk1::ostreambuf_iterator const, std::__ndk1::ios_base&, std::__ndk1::ostreambuf_iterator)
FUNC 1e384 14 0 std::__ndk1::basic_string<char, std::__ndk1::char_traits<char>, std::__ndk1::allocator<char> >::__throw_length_error[abi:ne180000]() const
FUNC 1e398 50 0 std::__ndk1::__throw_length_error[abi:ne180000](char const*)
FUNC 1e3e8 30 0 std::length_error::length_error[abi:ne180000](char const*)
FUNC 1e418 34 0 std::__throw_bad_array_new_length([abi:ne180000], void)
FUNC 1e44c 15c 0 std::__ndk1::basic_stringbuf<char, std::__ndk1::char_traits<char>, std::__ndk1::allocator<char> >::str[abi:ne180000]() &&
FUNC 1e5a8 148 0 std::__ndk1::basic_stringbuf<char, std::__ndk1::char_traits<char>, std::__ndk1::allocator<char> >::__init_buf_ptrs[abi:ne180000]()
FUNC 1e6f0 21c 0 std::__ndk1::vector<std::__ndk1::basic_string<char, std::__ndk1::char_traits<char>, std::__ndk1::allocator<char> >, std::__ndk1::allocator<std::__ndk1::basic_string<char, std::__ndk1::char_traits<char>, std::__ndk1::allocator<char> > > >::__push_back_slow_path<std::__ndk1::basic_string<char, std::__ndk1::char_traits<char>, std::__ndk1::allocator<char> > const&>(std::__ndk1::basic_string<char, std::__ndk1::char_traits<char>, std::__ndk1::allocator<char> > const&)
FUNC 1e90c 70 0 std::__ndk1::basic_string<char, std::__ndk1::char_traits<char>, std::__ndk1::allocator<char> >::__init_copy_ctor_external(char const*, unsigned long)
FUNC 1e97c 68 0 std::__ndk1::__split_buffer<std::__ndk1::basic_string<char, std::__ndk1::char_traits<char>, std::__ndk1::allocator<char> >, std::__ndk1::allocator<std::__ndk1::basic_string<char, std::__ndk1::char_traits<char>, std::__ndk1::allocator<char> > >&>::~__split_buffer()
FUNC 1e9e4 14 0 std::__ndk1::vector<std::__ndk1::basic_string<char, std::__ndk1::char_traits<char>, std::__ndk1::allocator<char> >, std::__ndk1::allocator<std::__ndk1::basic_string<char, std::__ndk1::char_traits<char>, std::__ndk1::allocator<char> > > >::__throw_length_error[abi:ne180000]() const
FUNC 1e9f8 4 0 std::__ndk1::__variant_detail::__visitation::__base::__dispatcher<(unsigned long)0>::__dispatch[abi:ne180000]<std::__ndk1::__variant_detail::__dtor<std::__ndk1::__variant_detail::__traits<geode::Hook*, std::__ndk1::basic_string<char, std::__ndk1::char_traits<char>, std::__ndk1::allocator<char> > >, (std::__ndk1::__variant_detail::_Trait)1>::__destroy[abi:ne180000]()::{lambda(auto:1&)#1}, std::__ndk1::__variant_detail::__base<(std::__ndk1::__variant_detail::__traits<geode::Hook*, std::__ndk1::basic_string<char, std::__ndk1::char_traits<char>, std::__ndk1::allocator<char> > >)1, geode::Hook, std::__ndk1::allocator<char> >&>(std::__ndk1::__variant_detail::__dtor<std::__ndk1::__variant_detail::__traits<geode::Hook*, std::__ndk1::basic_string<char, std::__ndk1::char_traits<char>, std::__ndk1::allocator<char> > >, (std::__ndk1::__variant_detail::_Trait)1>, std::__ndk1::__variant_detail::__base<(std::__ndk1::__variant_detail::__traits<geode::Hook*, std::__ndk1::basic_string<char, std::__ndk1::char_traits<char>, std::__ndk1::allocator<char> > >)1, geode::Hook, std::__ndk1::allocator<char> >&)
FUNC 1e9fc 14 0 std::__ndk1::__variant_detail::__visitation::__base::__dispatcher<(unsigned long)1>::__dispatch[abi:ne180000]<std::__ndk1::__variant_detail::__dtor<std::__ndk1::__variant_detail::__traits<geode::Hook*, std::__ndk1::basic_string<char, std::__ndk1::char_traits<char>, std::__ndk1::allocator<char> > >, (std::__ndk1::__variant_detail::_Trait)1>::__destroy[abi:ne180000]()::{lambda(auto:1&)#1}, std::__ndk1::__variant_detail::__base<(std::__ndk1::__variant_detail::__traits<geode::Hook*, std::__ndk1::basic_string<char, std::__ndk1::char_traits<char>, std::__ndk1::allocator<char> > >)1, geode::Hook, std::__ndk1::allocator<char> >&>(std::__ndk1::__variant_detail::__dtor<std::__ndk1::__variant_detail::__traits<geode::Hook*, std::__ndk1::basic_string<char, std::__ndk1::char_traits<char>, std::__ndk1::allocator<char> > >, (std::__ndk1::__variant_detail::_Trait)1>, std::__ndk1::__variant_detail::__base<(std::__ndk1::__variant_detail::__traits<geode::Hook*, std::__ndk1::basic_string<char, std::__ndk1::char_traits<char>, std::__ndk1::allocator<char> > >)1, geode::Hook, std::__ndk1::allocator<char> >&)
FUNC 1ea10 fc 0 std::__ndk1::__tree<std::__ndk1::__value_type<std::__ndk1::basic_string<char, std::__ndk1::char_traits<char>, std::__ndk1::allocator<char> >, std::__ndk1::shared_ptr<geode::Hook> >, std::__ndk1::__map_value_compare<std::__ndk1::basic_string<char, std::__ndk1::char_traits<char>, std::__ndk1::allocator<char> >, std::__ndk1::__value_type<std::__ndk1::basic_string<char, std::__ndk1::char_traits<char>, std::__ndk1::allocator<char> >, std::__ndk1::shared_ptr<geode::Hook> >, std::__ndk1::less<std::__ndk1::basic_string<char, std::__ndk1::char_traits<char>, std::__ndk1::allocator<char> > >, true>, std::__ndk1::allocator<std::__ndk1::__value_type<std::__ndk1::basic_string<char, std::__ndk1::char_traits<char>, std::__ndk1::allocator<char> >, std::__ndk1::shared_ptr<geode::Hook> > > >::find<std::__ndk1::basic_string<char, std::__ndk1::char_traits<char>, std::__ndk1::allocator<char> > >(std::__ndk1::basic_string<char, std::__ndk1::char_traits<char>, std::__ndk1::allocator<char> > const&)
FUNC 1eb0c d4 0 std::__ndk1::__tree<std::__ndk1::__value_type<std::__ndk1::basic_string<char, std::__ndk1::char_traits<char>, std::__ndk1::allocator<char> >, std::__ndk1::shared_ptr<geode::Hook> >, std::__ndk1::__map_value_compare<std::__ndk1::basic_string<char, std::__ndk1::char_traits<char>, std::__ndk1::allocator<char> >, std::__ndk1::__value_type<std::__ndk1::basic_string<char, std::__ndk1::char_traits<char>, std::__ndk1::allocator<char> >, std::__ndk1::shared_ptr<geode::Hook> >, std::__ndk1::less<std::__ndk1::basic_string<char, std::__ndk1::char_traits<char>, std::__ndk1::allocator<char> > >, true>, std::__ndk1::allocator<std::__ndk1::__value_type<std::__ndk1::basic_string<char, std::__ndk1::char_traits<char>, std::__ndk1::allocator<char> >, std::__ndk1::shared_ptr<geode::Hook> > > >::erase(std::__ndk1::__tree_const_iterator<std::__ndk1::__value_type<std::__ndk1::basic_string<char, std::__ndk1::char_traits<char>, std::__ndk1::allocator<char> >, std::__ndk1::shared_ptr<geode::Hook> >, std::__ndk1::__tree_node<std::__ndk1::__value_type<std::__ndk1::basic_string<char, std::__ndk1::char_traits<char>, std::__ndk1::allocator<char> >, std::__ndk1::shared_ptr<geode::Hook> >, void*>*, long>)
FUNC 1ebe0 388 0 std::__ndk1::__tree_remove[abi:ne180000]<std::__ndk1::__tree_node_base<void*>*>(std::__ndk1::__tree_node_base<void*>*, std::__ndk1::__tree_node_base<void*>*)
FUNC 1ef68 8c 0 std::__ndk1::__tree<std::__ndk1::__value_type<std::__ndk1::basic_string<char, std::__ndk1::char_traits<char>, std::__ndk1::allocator<char> >, std::__ndk1::shared_ptr<geode::Hook> >, std::__ndk1::__map_value_compare<std::__ndk1::basic_string<char, std::__ndk1::char_traits<char>, std::__ndk1::allocator<char> >, std::__ndk1::__value_type<std::__ndk1::basic_string<char, std::__ndk1::char_traits<char>, std::__ndk1::allocator<char> >, std::__ndk1::shared_ptr<geode::Hook> >, std::__ndk1::less<std::__ndk1::basic_string<char, std::__ndk1::char_traits<char>, std::__ndk1::allocator<char> > >, true>, std::__ndk1::allocator<std::__ndk1::__value_type<std::__ndk1::basic_string<char, std::__ndk1::char_traits<char>, std::__ndk1::allocator<char> >, std::__ndk1::shared_ptr<geode::Hook> > > >::destroy(std::__ndk1::__tree_node<std::__ndk1::__value_type<std::__ndk1::basic_string<char, std::__ndk1::char_traits<char>, std::__ndk1::allocator<char> >, std::__ndk1::shared_ptr<geode::Hook> >, void*>*)
FUNC 1eff4 74 0 geode::modifier::AsStaticFunction_isColorUnlocked<hook6<(anonymous namespace)::hook6Parent>, bool (hook6<(anonymous namespace)::hook6Parent>::*)(int, UnlockType)>::Impl<bool (hook6<(anonymous namespace)::hook6Parent>::*)(int, UnlockType)>::function(hook6<(anonymous namespace)::hook6Parent>*, int, UnlockType)
FUNC 1f068 84 0 geode::modifier::AsStaticFunction_isIconUnlocked<hook6<(anonymous namespace)::hook6Parent>, bool (hook6<(anonymous namespace)::hook6Parent>::*)(int, IconType)>::Impl<bool (hook6<(anonymous namespace)::hook6Parent>::*)(int, IconType)>::function(hook6<(anonymous namespace)::hook6Parent>*, int, IconType)
FUNC 1f0ec 50 0 std::__ndk1::shared_ptr<tulip::hook::CallingConvention>::~shared_ptr[abi:ne180000]()
FUNC 1f13c 64 0 tulip::hook::HandlerMetadata::~HandlerMetadata()
FUNC 1f1a0 134 0 geode::Mod::getSettingValue<bool>(std::__ndk1::basic_string_view<char, std::__ndk1::char_traits<char> >) const
FUNC 1f2d4 e4 0 geode::cast::traverseTypeinfoFor(void*, geode::cast::ClassTypeinfoType const*, char const*)
FUNC 1f3b8 104 0 std::__ndk1::__tree<std::__ndk1::__value_type<std::__ndk1::basic_string<char, std::__ndk1::char_traits<char>, std::__ndk1::allocator<char> >, std::__ndk1::shared_ptr<geode::Hook> >, std::__ndk1::__map_value_compare<std::__ndk1::basic_string<char, std::__ndk1::char_traits<char>, std::__ndk1::allocator<char> >, std::__ndk1::__value_type<std::__ndk1::basic_string<char, std::__ndk1::char_traits<char>, std::__ndk1::allocator<char> >, std::__ndk1::shared_ptr<geode::Hook> >, std::__ndk1::less<std::__ndk1::basic_string<char, std::__ndk1::char_traits<char>, std::__ndk1::allocator<char> > >, true>, std::__ndk1::allocator<std::__ndk1::__value_type<std::__ndk1::basic_string<char, std::__ndk1::char_traits<char>, std::__ndk1::allocator<char> >, std::__ndk1::shared_ptr<geode::Hook> > > >::__find_equal<std::__ndk1::basic_string<char, std::__ndk1::char_traits<char>, std::__ndk1::allocator<char> > >(std::__ndk1::__tree_end_node<std::__ndk1::__tree_node_base<void*>*>*&, std::__ndk1::basic_string<char, std::__ndk1::char_traits<char>, std::__ndk1::allocator<char> > const&)
FUNC 1f4bc 19c 0 std::__ndk1::__tree_balance_after_insert[abi:ne180000]<std::__ndk1::__tree_node_base<void*>*>(std::__ndk1::__tree_node_base<void*>*, std::__ndk1::__tree_node_base<void*>*)
FUNC 1f658 444 0 __cxx_global_var_init
FUNC 1fa9c 1c 0 geode::modifier::ModifyBase<geode::modifier::ModifyDerive<MenuLayerModified, MenuLayer> >::~ModifyBase()
FUNC 1fab8 3c0 0 geode::modifier::ModifyDerive<MenuLayerModified, MenuLayer>::apply()
FUNC 1fe78 4 0 geode::modifier::ModifyBase<geode::modifier::ModifyDerive<MenuLayerModified, MenuLayer> >::apply()
FUNC 1fe7c 1c0 0 geode::modifier::AsStaticFunction_onGarage<MenuLayerModified, void (MenuLayerModified::*)(cocos2d::CCObject*)>::Impl<void (MenuLayerModified::*)(cocos2d::CCObject*)>::function(MenuLayerModified*, cocos2d::CCObject*)
FUNC 2003c 184 0 geode::Mod::getSavedValue<bool>(std::__ndk1::basic_string_view<char, std::__ndk1::char_traits<char> >)
FUNC 201c0 74 0 geode::impl::ResultData<matjson::Value&, std::__ndk1::basic_string<char, std::__ndk1::char_traits<char>, std::__ndk1::allocator<char> > >::~ResultData()
FUNC 20234 4 0 std::__ndk1::__variant_detail::__visitation::__base::__dispatcher<(unsigned long)0>::__dispatch[abi:ne180000]<std::__ndk1::__variant_detail::__dtor<std::__ndk1::__variant_detail::__traits<std::__ndk1::reference_wrapper<matjson::Value>, std::__ndk1::basic_string<char, std::__ndk1::char_traits<char>, std::__ndk1::allocator<char> > >, (std::__ndk1::__variant_detail::_Trait)1>::__destroy[abi:ne180000]()::{lambda(auto:1&)#1}, std::__ndk1::__variant_detail::__base<(std::__ndk1::__variant_detail::__traits<std::__ndk1::reference_wrapper<matjson::Value>, std::__ndk1::basic_string<char, std::__ndk1::char_traits<char>, std::__ndk1::allocator<char> > >)1, matjson::Value, std::__ndk1::allocator<char> >&>(std::__ndk1::__variant_detail::__dtor<std::__ndk1::__variant_detail::__traits<std::__ndk1::reference_wrapper<matjson::Value>, std::__ndk1::basic_string<char, std::__ndk1::char_traits<char>, std::__ndk1::allocator<char> > >, (std::__ndk1::__variant_detail::_Trait)1>, std::__ndk1::__variant_detail::__base<(std::__ndk1::__variant_detail::__traits<std::__ndk1::reference_wrapper<matjson::Value>, std::__ndk1::basic_string<char, std::__ndk1::char_traits<char>, std::__ndk1::allocator<char> > >)1, matjson::Value, std::__ndk1::allocator<char> >&)
FUNC 20238 14 0 std::__ndk1::__variant_detail::__visitation::__base::__dispatcher<(unsigned long)1>::__dispatch[abi:ne180000]<std::__ndk1::__variant_detail::__dtor<std::__ndk1::__variant_detail::__traits<std::__ndk1::reference_wrapper<matjson::Value>, std::__ndk1::basic_string<char, std::__ndk1::char_traits<char>, std::__ndk1::allocator<char> > >, (std::__ndk1::__variant_detail::_Trait)1>::__destroy[abi:ne180000]()::{lambda(auto:1&)#1}, std::__ndk1::__variant_detail::__base<(std::__ndk1::__variant_detail::__traits<std::__ndk1::reference_wrapper<matjson::Value>, std::__ndk1::basic_string<char, std::__ndk1::char_traits<char>, std::__ndk1::allocator<char> > >)1, matjson::Value, std::__ndk1::allocator<char> >&>(std::__ndk1::__variant_detail::__dtor<std::__ndk1::__variant_detail::__traits<std::__ndk1::reference_wrapper<matjson::Value>, std::__ndk1::basic_string<char, std::__ndk1::char_traits<char>, std::__ndk1::allocator<char> > >, (std::__ndk1::__variant_detail::_Trait)1>, std::__ndk1::__variant_detail::__base<(std::__ndk1::__variant_detail::__traits<std::__ndk1::reference_wrapper<matjson::Value>, std::__ndk1::basic_string<char, std::__ndk1::char_traits<char>, std::__ndk1::allocator<char> > >)1, matjson::Value, std::__ndk1::allocator<char> >&)
FUNC 2024c 4 0 std::__ndk1::__variant_detail::__visitation::__base::__dispatcher<(unsigned long)0>::__dispatch[abi:ne180000]<std::__ndk1::__variant_detail::__dtor<std::__ndk1::__variant_detail::__traits<bool, std::__ndk1::basic_string<char, std::__ndk1::char_traits<char>, std::__ndk1::allocator<char> > >, (std::__ndk1::__variant_detail::_Trait)1>::__destroy[abi:ne180000]()::{lambda(auto:1&)#1}, std::__ndk1::__variant_detail::__base<(std::__ndk1::__variant_detail::__traits<bool, std::__ndk1::basic_string<char, std::__ndk1::char_traits<char>, std::__ndk1::allocator<char> > >)1, bool, std::__ndk1::allocator<char> >&>(std::__ndk1::__variant_detail::__dtor<std::__ndk1::__variant_detail::__traits<bool, std::__ndk1::basic_string<char, std::__ndk1::char_traits<char>, std::__ndk1::allocator<char> > >, (std::__ndk1::__variant_detail::_Trait)1>, std::__ndk1::__variant_detail::__base<(std::__ndk1::__variant_detail::__traits<bool, std::__ndk1::basic_string<char, std::__ndk1::char_traits<char>, std::__ndk1::allocator<char> > >)1, bool, std::__ndk1::allocator<char> >&)
FUNC 20250 14 0 std::__ndk1::__variant_detail::__visitation::__base::__dispatcher<(unsigned long)1>::__dispatch[abi:ne180000]<std::__ndk1::__variant_detail::__dtor<std::__ndk1::__variant_detail::__traits<bool, std::__ndk1::basic_string<char, std::__ndk1::char_traits<char>, std::__ndk1::allocator<char> > >, (std::__ndk1::__variant_detail::_Trait)1>::__destroy[abi:ne180000]()::{lambda(auto:1&)#1}, std::__ndk1::__variant_detail::__base<(std::__ndk1::__variant_detail::__traits<bool, std::__ndk1::basic_string<char, std::__ndk1::char_traits<char>, std::__ndk1::allocator<char> > >)1, bool, std::__ndk1::allocator<char> >&>(std::__ndk1::__variant_detail::__dtor<std::__ndk1::__variant_detail::__traits<bool, std::__ndk1::basic_string<char, std::__ndk1::char_traits<char>, std::__ndk1::allocator<char> > >, (std::__ndk1::__variant_detail::_Trait)1>, std::__ndk1::__variant_detail::__base<(std::__ndk1::__variant_detail::__traits<bool, std::__ndk1::basic_string<char, std::__ndk1::char_traits<char>, std::__ndk1::allocator<char> > >)1, bool, std::__ndk1::allocator<char> >&)
FUNC 20264 4 0 std::__ndk1::__function::__base<void (FLAlertLayer*, bool)>::~__base()
FUNC 20268 4 0 std::__ndk1::__function::__func<MenuLayerModified::onGarage(cocos2d::CCObject*)::{lambda(auto:1, bool)#1}, std::__ndk1::allocator<MenuLayerModified::onGarage(cocos2d::CCObject*)::{lambda(auto:1, bool)#1}>, void (FLAlertLayer*, bool)>::~__func()
FUNC 2026c 24 0 std::__ndk1::__function::__func<MenuLayerModified::onGarage(cocos2d::CCObject*)::{lambda(auto:1, bool)#1}, std::__ndk1::allocator<MenuLayerModified::onGarage(cocos2d::CCObject*)::{lambda(auto:1, bool)#1}>, void (FLAlertLayer*, bool)>::__clone() const
FUNC 20290 10 0 std::__ndk1::__function::__func<MenuLayerModified::onGarage(cocos2d::CCObject*)::{lambda(auto:1, bool)#1}, std::__ndk1::allocator<MenuLayerModified::onGarage(cocos2d::CCObject*)::{lambda(auto:1, bool)#1}>, void (FLAlertLayer*, bool)>::__clone(std::__ndk1::__function::__base<void (FLAlertLayer*, bool)>*) const
FUNC 202a0 4 0 std::__ndk1::__function::__func<MenuLayerModified::onGarage(cocos2d::CCObject*)::{lambda(auto:1, bool)#1}, std::__ndk1::allocator<MenuLayerModified::onGarage(cocos2d::CCObject*)::{lambda(auto:1, bool)#1}>, void (FLAlertLayer*, bool)>::destroy()
FUNC 202a4 4 0 std::__ndk1::__function::__func<MenuLayerModified::onGarage(cocos2d::CCObject*)::{lambda(auto:1, bool)#1}, std::__ndk1::allocator<MenuLayerModified::onGarage(cocos2d::CCObject*)::{lambda(auto:1, bool)#1}>, void (FLAlertLayer*, bool)>::destroy_deallocate()
FUNC 202a8 ec 0 std::__ndk1::__function::__func<MenuLayerModified::onGarage(cocos2d::CCObject*)::{lambda(auto:1, bool)#1}, std::__ndk1::allocator<MenuLayerModified::onGarage(cocos2d::CCObject*)::{lambda(auto:1, bool)#1}>, void (FLAlertLayer*, bool)>::operator()(FLAlertLayer*&&, bool&&)
FUNC 20394 1c 0 std::__ndk1::__function::__func<MenuLayerModified::onGarage(cocos2d::CCObject*)::{lambda(auto:1, bool)#1}, std::__ndk1::allocator<MenuLayerModified::onGarage(cocos2d::CCObject*)::{lambda(auto:1, bool)#1}>, void (FLAlertLayer*, bool)>::target(std::type_info const&) const
FUNC 203b0 c 0 std::__ndk1::__function::__func<MenuLayerModified::onGarage(cocos2d::CCObject*)::{lambda(auto:1, bool)#1}, std::__ndk1::allocator<MenuLayerModified::onGarage(cocos2d::CCObject*)::{lambda(auto:1, bool)#1}>, void (FLAlertLayer*, bool)>::target_type() const
FUNC 203bc 29c 0 plm_init_decoders(plm_t*)
FUNC 20658 784 0 plm_demux_has_headers
FUNC 20ddc c0 0 plm_read_video_packet(plm_buffer_t*, void*)
FUNC 20e9c c0 0 plm_read_audio_packet(plm_buffer_t*, void*)
FUNC 20f5c 2b4 0 plm_demux_decode
FUNC 21210 118 0 plm_buffer_write
FUNC 21328 b8 0 plm_buffer_load_file_callback(plm_buffer_t*, void*)
FUNC 213e0 e4 0 plm_buffer_read(plm_buffer_t*, int)
FUNC 214c4 90 0 plm_buffer_skip(plm_buffer_t*, unsigned long)
FUNC 21554 3b8 0 plm_demux_decode_time(plm_demux_t*)
FUNC 2190c 5dc 0 plm_demux_decode_packet(plm_demux_t*, int)
FUNC 21ee8 820 0 plm_video_decode_sequence_header(plm_video_t*)
FUNC 22708 9b8 0 plm_video_decode_slice(plm_video_t*, int)
FUNC 230c0 248 0 plm_video_predict_macroblock(plm_video_t*)
FUNC 23308 de8 0 plm_video_decode_block(plm_video_t*, int)
FUNC 240f0 22c 0 plm_video_decode_motion_vector(plm_video_t*, int, int)
FUNC 2431c ad8 0 plm_video_process_macroblock(plm_video_t*, unsigned char*, unsigned char*, int, int, int, int)
FUNC 24df4 398 0 plm_video_idct(int*)
FUNC 2518c 8c0 0 plm_audio_decode_header(plm_audio_t*)
FUNC 25a4c 13c 0 plm_audio_read_allocation(plm_audio_t*, int, int)
FUNC 25b88 478 0 plm_audio_read_samples(plm_audio_t*, int, int, int)
FUNC 26000 674 0 videoplayer::VideoPlayer::init(std::__ndk1::__fs::filesystem::path const&, bool)
FUNC 26674 f0 0 videoplayer::VideoPlayer::videoCallback(plm_t*, plm_frame_t*, void*)
FUNC 26764 748 0 videoplayer::VideoPlayer::audioCallback(plm_t*, plm_samples_t*, void*)
FUNC 26eac 5f4 0 videoplayer::VideoPlayer::initAudio()
FUNC 274a0 144 0 videoplayer::VideoPlayer::PCMRead(FMOD_SOUND*, void*, unsigned int)
FUNC 275e4 78 0 videoplayer::VideoPlayer::audioCallback(FMOD_CHANNELCONTROL*, FMOD_CHANNELCONTROL_TYPE, FMOD_CHANNELCONTROL_CALLBACK_TYPE, void*, void*)
FUNC 2765c 27ac 0 videoplayer::VideoPlayer::update(float)
FUNC 29e08 160 0 videoplayer::VideoPlayer::draw()
FUNC 29f68 34 0 videoplayer::VideoPlayer::onExit()
FUNC 29f9c 108 0 videoplayer::VideoPlayer::~VideoPlayer()
FUNC 2a0a4 24 0 videoplayer::VideoPlayer::~VideoPlayer()
FUNC 2a0c8 44 0 videoplayer::VideoPlayer::setPosition(float, float)
FUNC 2a10c 8 0 cocos2d::CCCopying::copyWithZone(cocos2d::CCZone*)
FUNC 2a114 4 0 cocos2d::CCNodeRGBA::setOpacityModifyRGB(bool)
FUNC 2a118 8 0 cocos2d::CCNodeRGBA::isOpacityModifyRGB()
FUNC 2a120 4 0 {virtual override thunk({offset(-320)}, cocos2d::CCNodeRGBA::setOpacityModifyRGB(bool))}
FUNC 2a124 8 0 {virtual override thunk({offset(-320)}, cocos2d::CCNodeRGBA::isOpacityModifyRGB())}
FUNC 2a12c ac 0 std::__ndk1::basic_string<char, std::__ndk1::char_traits<char>, std::__ndk1::allocator<char> >::__assign_no_alias<true>(char const*, unsigned long)
FUNC 2a1d8 100 0 std::__ndk1::basic_string<char, std::__ndk1::char_traits<char>, std::__ndk1::allocator<char> >::__assign_no_alias<false>(char const*, unsigned long)
FUNC 2a2d8 128 0 std::__ndk1::__split_buffer<float*, std::__ndk1::allocator<float*> >::shrink_to_fit()
FUNC 2a400 424 0 StatsDisplayAPI::getNewItem(std::__ndk1::basic_string<char, std::__ndk1::char_traits<char>, std::__ndk1::allocator<char> >, cocos2d::CCNode*, int, float)
FUNC 2a824 660 0 __cxx_global_var_init
FUNC 2ae84 1c 0 geode::modifier::ModifyBase<geode::modifier::ModifyDerive<GJGarageLayerModified, GJGarageLayer> >::~ModifyBase()
FUNC 2aea0 370 0 geode::modifier::ModifyDerive<GJGarageLayerModified, GJGarageLayer>::apply()
FUNC 2b210 4 0 geode::modifier::ModifyBase<geode::modifier::ModifyDerive<GJGarageLayerModified, GJGarageLayer> >::apply()
FUNC 2b214 7c 0 std::__ndk1::unique_ptr<std::__ndk1::__tree_node<std::__ndk1::__value_type<std::__ndk1::basic_string<char, std::__ndk1::char_traits<char>, std::__ndk1::allocator<char> >, std::__ndk1::shared_ptr<geode::Hook> >, void*>, std::__ndk1::__tree_node_destructor<std::__ndk1::allocator<std::__ndk1::__tree_node<std::__ndk1::__value_type<std::__ndk1::basic_string<char, std::__ndk1::char_traits<char>, std::__ndk1::allocator<char> >, std::__ndk1::shared_ptr<geode::Hook> >, void*> > > >::~unique_ptr[abi:ne180000]()
FUNC 2b290 168 0 _ZN5geode15UnwrapExceptionC2IRNSt6__ndk112basic_stringIcNS2_11char_traitsIcEENS2_9allocatorIcEEEEQsr4implE18IsStringStreamableIT_EEENS_4impl6ErrTagEOSA_
FUNC 2b3f8 4 0 std::__ndk1::__variant_detail::__visitation::__base::__dispatcher<(unsigned long)0>::__dispatch[abi:ne180000]<std::__ndk1::__variant_detail::__dtor<std::__ndk1::__variant_detail::__traits<std::__ndk1::monostate, std::__ndk1::basic_string<char, std::__ndk1::char_traits<char>, std::__ndk1::allocator<char> > >, (std::__ndk1::__variant_detail::_Trait)1>::__destroy[abi:ne180000]()::{lambda(auto:1&)#1}, std::__ndk1::__variant_detail::__base<(std::__ndk1::__variant_detail::__traits<std::__ndk1::monostate, std::__ndk1::basic_string<char, std::__ndk1::char_traits<char>, std::__ndk1::allocator<char> > >)1, std::__ndk1::__variant_detail::__traits, std::__ndk1::allocator<char> >&>(std::__ndk1::__variant_detail::__dtor<std::__ndk1::__variant_detail::__traits<std::__ndk1::monostate, std::__ndk1::basic_string<char, std::__ndk1::char_traits<char>, std::__ndk1::allocator<char> > >, (std::__ndk1::__variant_detail::_Trait)1>, std::__ndk1::__variant_detail::__base<(std::__ndk1::__variant_detail::__traits<std::__ndk1::monostate, std::__ndk1::basic_string<char, std::__ndk1::char_traits<char>, std::__ndk1::allocator<char> > >)1, std::__ndk1::__variant_detail::__traits, std::__ndk1::allocator<char> >&)
FUNC 2b3fc 14 0 std::__ndk1::__variant_detail::__visitation::__base::__dispatcher<(unsigned long)1>::__dispatch[abi:ne180000]<std::__ndk1::__variant_detail::__dtor<std::__ndk1::__variant_detail::__traits<std::__ndk1::monostate, std::__ndk1::basic_string<char, std::__ndk1::char_traits<char>, std::__ndk1::allocator<char> > >, (std::__ndk1::__variant_detail::_Trait)1>::__destroy[abi:ne180000]()::{lambda(auto:1&)#1}, std::__ndk1::__variant_detail::__base<(std::__ndk1::__variant_detail::__traits<std::__ndk1::monostate, std::__ndk1::basic_string<char, std::__ndk1::char_traits<char>, std::__ndk1::allocator<char> > >)1, std::__ndk1::__variant_detail::__traits, std::__ndk1::allocator<char> >&>(std::__ndk1::__variant_detail::__dtor<std::__ndk1::__variant_detail::__traits<std::__ndk1::monostate, std::__ndk1::basic_string<char, std::__ndk1::char_traits<char>, std::__ndk1::allocator<char> > >, (std::__ndk1::__variant_detail::_Trait)1>, std::__ndk1::__variant_detail::__base<(std::__ndk1::__variant_detail::__traits<std::__ndk1::monostate, std::__ndk1::basic_string<char, std::__ndk1::char_traits<char>, std::__ndk1::allocator<char> > >)1, std::__ndk1::__variant_detail::__traits, std::__ndk1::allocator<char> >&)
FUNC 2b410 a8 0 geode::addresser::getVirtual<bool (GJGarageLayer::*)()>(bool (GJGarageLayer::*)())
FUNC 2b4b8 c7c 0 geode::modifier::AsStaticFunction_init<GJGarageLayerModified, bool (GJGarageLayerModified::*)()>::Impl<bool (GJGarageLayerModified::*)()>::function(GJGarageLayerModified*)
FUNC 2c134 b4 0 GJGarageLayer::GJGarageLayer(geode::ZeroConstructorType)
FUNC 2c1e8 4 0 cocos2d::CCKeyboardDelegate::keyUp(cocos2d::enumKeyCodes)
FUNC 2c1ec 4 0 cocos2d::CCMouseDelegate::rightKeyDown()
FUNC 2c1f0 4 0 cocos2d::CCMouseDelegate::rightKeyUp()
FUNC 2c1f4 4 0 cocos2d::CCMouseDelegate::scrollWheel(float, float)
FUNC 2c1f8 470 0 GJGarageLayerModified::refreshCP(cocos2d::CCObject*, bool)
FUNC 2c668 30 0 GPSceneManager::onModSettings(cocos2d::CCObject*)
FUNC 2c698 1e4 0 GPSceneManager::onFeedbackBtn(cocos2d::CCObject*)
FUNC 2c87c 4 0 GPSceneManager::onShopsBtn(cocos2d::CCObject*)
FUNC 2c880 1e4 0 GPSceneManager::onKofiBtn(cocos2d::CCObject*)
FUNC 2ca64 50 0 geode::Task<geode::utils::web::WebResponse, geode::utils::web::WebProgress>::~Task()
FUNC 2cab4 6bc 0 geode::modifier::FieldIntermediate<GJGarageLayerModified, GJGarageLayer>::self()
FUNC 2d170 8c 0 geode::modifier::FieldIntermediate<GJGarageLayerModified, GJGarageLayer>::fieldDestructor(void*)
FUNC 2d1fc 14 0 std::__ndk1::vector<void*, std::__ndk1::allocator<void*> >::__throw_length_error[abi:ne180000]() const
FUNC 2d210 14 0 std::__ndk1::vector<std::__ndk1::function<void (void*)>, std::__ndk1::allocator<std::__ndk1::function<void (void*)> > >::__throw_length_error[abi:ne180000]() const
FUNC 2d224 c 0 std::__ndk1::vector<void*, std::__ndk1::allocator<void*> >::__throw_out_of_range[abi:ne180000]() const
FUNC 2d230 50 0 std::__ndk1::__throw_out_of_range[abi:ne180000](char const*)
FUNC 2d280 30 0 std::out_of_range::out_of_range[abi:ne180000](char const*)
FUNC 2d2b0 c 0 std::__ndk1::vector<std::__ndk1::function<void (void*)>, std::__ndk1::allocator<std::__ndk1::function<void (void*)> > >::__throw_out_of_range[abi:ne180000]() const
FUNC 2d2bc 8c 0 geode::EventListener<geode::Task<geode::utils::web::WebResponse, geode::utils::web::WebProgress> >::~EventListener()
FUNC 2d348 4 0 geode::EventListener<geode::Task<geode::utils::web::WebResponse, geode::utils::web::WebProgress> >::getPool() const
FUNC 2d34c 1ac 0 geode::EventListener<geode::Task<geode::utils::web::WebResponse, geode::utils::web::WebProgress> >::handle(geode::Event*)
FUNC 2d4f8 94 0 geode::EventListener<geode::Task<geode::utils::web::WebResponse, geode::utils::web::WebProgress> >::~EventListener()
FUNC 2d58c 34 0 std::__ndk1::__throw_bad_function_call[abi:ne180000]()
FUNC 2d5c0 24 0 std::__ndk1::bad_function_call::~bad_function_call()
FUNC 2d5e4 4 0 std::__ndk1::__function::__base<void (void*)>::~__base()
FUNC 2d5e8 4 0 std::__ndk1::__function::__func<void (*)(void*), std::__ndk1::allocator<void (*)(void*)>, void (void*)>::~__func()
FUNC 2d5ec 38 0 std::__ndk1::__function::__func<void (*)(void*), std::__ndk1::allocator<void (*)(void*)>, void (void*)>::__clone() const
FUNC 2d624 18 0 std::__ndk1::__function::__func<void (*)(void*), std::__ndk1::allocator<void (*)(void*)>, void (void*)>::__clone(std::__ndk1::__function::__base<void (void*)>*) const
FUNC 2d63c 4 0 std::__ndk1::__function::__func<void (*)(void*), std::__ndk1::allocator<void (*)(void*)>, void (void*)>::destroy()
FUNC 2d640 4 0 std::__ndk1::__function::__func<void (*)(void*), std::__ndk1::allocator<void (*)(void*)>, void (void*)>::destroy_deallocate()
FUNC 2d644 10 0 std::__ndk1::__function::__func<void (*)(void*), std::__ndk1::allocator<void (*)(void*)>, void (void*)>::operator()(void*&&)
FUNC 2d654 1c 0 std::__ndk1::__function::__func<void (*)(void*), std::__ndk1::allocator<void (*)(void*)>, void (void*)>::target(std::type_info const&) const
FUNC 2d670 c 0 std::__ndk1::__function::__func<void (*)(void*), std::__ndk1::allocator<void (*)(void*)>, void (void*)>::target_type() const
FUNC 2d67c 21c 0 geode::Task<geode::utils::web::WebResponse, geode::utils::web::WebProgress>::setListener(geode::EventListenerProtocol*)
FUNC 2d898 50 0 geode::Task<geode::utils::web::WebResponse, geode::utils::web::WebProgress>::setListener(geode::EventListenerProtocol*)::{lambda()#1}::~{lambda()#1}()
FUNC 2d8e8 50 0 geode::Task<geode::utils::web::WebResponse, geode::utils::web::WebProgress>::setListener(geode::EventListenerProtocol*)::{lambda()#2}::~{lambda()#2}()
FUNC 2d938 5c 0 std::__ndk1::__function::__func<geode::Task<geode::utils::web::WebResponse, geode::utils::web::WebProgress>::setListener(geode::EventListenerProtocol*)::{lambda()#1}, std::__ndk1::allocator<geode::Task<geode::utils::web::WebResponse, geode::utils::web::WebProgress>::setListener(geode::EventListenerProtocol*)::{lambda()#1}>, void ()>::~__func()
FUNC 2d994 5c 0 std::__ndk1::__function::__func<geode::Task<geode::utils::web::WebResponse, geode::utils::web::WebProgress>::setListener(geode::EventListenerProtocol*)::{lambda()#1}, std::__ndk1::allocator<geode::Task<geode::utils::web::WebResponse, geode::utils::web::WebProgress>::setListener(geode::EventListenerProtocol*)::{lambda()#1}>, void ()>::~__func()
FUNC 2d9f0 58 0 std::__ndk1::__function::__func<geode::Task<geode::utils::web::WebResponse, geode::utils::web::WebProgress>::setListener(geode::EventListenerProtocol*)::{lambda()#1}, std::__ndk1::allocator<geode::Task<geode::utils::web::WebResponse, geode::utils::web::WebProgress>::setListener(geode::EventListenerProtocol*)::{lambda()#1}>, void ()>::__clone() const
FUNC 2da48 4c 0 std::__ndk1::__function::__func<geode::Task<geode::utils::web::WebResponse, geode::utils::web::WebProgress>::setListener(geode::EventListenerProtocol*)::{lambda()#1}, std::__ndk1::allocator<geode::Task<geode::utils::web::WebResponse, geode::utils::web::WebProgress>::setListener(geode::EventListenerProtocol*)::{lambda()#1}>, void ()>::__clone(std::__ndk1::__function::__base<void ()>*) const
FUNC 2da94 50 0 std::__ndk1::__function::__func<geode::Task<geode::utils::web::WebResponse, geode::utils::web::WebProgress>::setListener(geode::EventListenerProtocol*)::{lambda()#1}, std::__ndk1::allocator<geode::Task<geode::utils::web::WebResponse, geode::utils::web::WebProgress>::setListener(geode::EventListenerProtocol*)::{lambda()#1}>, void ()>::destroy()
FUNC 2dae4 50 0 std::__ndk1::__function::__func<geode::Task<geode::utils::web::WebResponse, geode::utils::web::WebProgress>::setListener(geode::EventListenerProtocol*)::{lambda()#1}, std::__ndk1::allocator<geode::Task<geode::utils::web::WebResponse, geode::utils::web::WebProgress>::setListener(geode::EventListenerProtocol*)::{lambda()#1}>, void ()>::destroy_deallocate()
FUNC 2db34 198 0 std::__ndk1::__function::__func<geode::Task<geode::utils::web::WebResponse, geode::utils::web::WebProgress>::setListener(geode::EventListenerProtocol*)::{lambda()#1}, std::__ndk1::allocator<geode::Task<geode::utils::web::WebResponse, geode::utils::web::WebProgress>::setListener(geode::EventListenerProtocol*)::{lambda()#1}>, void ()>::operator()()
FUNC 2dccc 1c 0 std::__ndk1::__function::__func<geode::Task<geode::utils::web::WebResponse, geode::utils::web::WebProgress>::setListener(geode::EventListenerProtocol*)::{lambda()#1}, std::__ndk1::allocator<geode::Task<geode::utils::web::WebResponse, geode::utils::web::WebProgress>::setListener(geode::EventListenerProtocol*)::{lambda()#1}>, void ()>::target(std::type_info const&) const
FUNC 2dce8 c 0 std::__ndk1::__function::__func<geode::Task<geode::utils::web::WebResponse, geode::utils::web::WebProgress>::setListener(geode::EventListenerProtocol*)::{lambda()#1}, std::__ndk1::allocator<geode::Task<geode::utils::web::WebResponse, geode::utils::web::WebProgress>::setListener(geode::EventListenerProtocol*)::{lambda()#1}>, void ()>::target_type() const
FUNC 2dcf4 50 0 geode::Task<geode::utils::web::WebResponse, geode::utils::web::WebProgress>::Event::~Event()
FUNC 2dd44 58 0 geode::Task<geode::utils::web::WebResponse, geode::utils::web::WebProgress>::Event::~Event()
FUNC 2dd9c 5c 0 std::__ndk1::__function::__func<geode::Task<geode::utils::web::WebResponse, geode::utils::web::WebProgress>::setListener(geode::EventListenerProtocol*)::{lambda()#2}, std::__ndk1::allocator<geode::Task<geode::utils::web::WebResponse, geode::utils::web::WebProgress>::setListener(geode::EventListenerProtocol*)::{lambda()#2}>, void ()>::~__func()
FUNC 2ddf8 5c 0 std::__ndk1::__function::__func<geode::Task<geode::utils::web::WebResponse, geode::utils::web::WebProgress>::setListener(geode::EventListenerProtocol*)::{lambda()#2}, std::__ndk1::allocator<geode::Task<geode::utils::web::WebResponse, geode::utils::web::WebProgress>::setListener(geode::EventListenerProtocol*)::{lambda()#2}>, void ()>::~__func()
FUNC 2de54 58 0 std::__ndk1::__function::__func<geode::Task<geode::utils::web::WebResponse, geode::utils::web::WebProgress>::setListener(geode::EventListenerProtocol*)::{lambda()#2}, std::__ndk1::allocator<geode::Task<geode::utils::web::WebResponse, geode::utils::web::WebProgress>::setListener(geode::EventListenerProtocol*)::{lambda()#2}>, void ()>::__clone() const
FUNC 2deac 4c 0 std::__ndk1::__function::__func<geode::Task<geode::utils::web::WebResponse, geode::utils::web::WebProgress>::setListener(geode::EventListenerProtocol*)::{lambda()#2}, std::__ndk1::allocator<geode::Task<geode::utils::web::WebResponse, geode::utils::web::WebProgress>::setListener(geode::EventListenerProtocol*)::{lambda()#2}>, void ()>::__clone(std::__ndk1::__function::__base<void ()>*) const
FUNC 2def8 50 0 std::__ndk1::__function::__func<geode::Task<geode::utils::web::WebResponse, geode::utils::web::WebProgress>::setListener(geode::EventListenerProtocol*)::{lambda()#2}, std::__ndk1::allocator<geode::Task<geode::utils::web::WebResponse, geode::utils::web::WebProgress>::setListener(geode::EventListenerProtocol*)::{lambda()#2}>, void ()>::destroy()
FUNC 2df48 50 0 std::__ndk1::__function::__func<geode::Task<geode::utils::web::WebResponse, geode::utils::web::WebProgress>::setListener(geode::EventListenerProtocol*)::{lambda()#2}, std::__ndk1::allocator<geode::Task<geode::utils::web::WebResponse, geode::utils::web::WebProgress>::setListener(geode::EventListenerProtocol*)::{lambda()#2}>, void ()>::destroy_deallocate()
FUNC 2df98 188 0 std::__ndk1::__function::__func<geode::Task<geode::utils::web::WebResponse, geode::utils::web::WebProgress>::setListener(geode::EventListenerProtocol*)::{lambda()#2}, std::__ndk1::allocator<geode::Task<geode::utils::web::WebResponse, geode::utils::web::WebProgress>::setListener(geode::EventListenerProtocol*)::{lambda()#2}>, void ()>::operator()()
FUNC 2e120 1c 0 std::__ndk1::__function::__func<geode::Task<geode::utils::web::WebResponse, geode::utils::web::WebProgress>::setListener(geode::EventListenerProtocol*)::{lambda()#2}, std::__ndk1::allocator<geode::Task<geode::utils::web::WebResponse, geode::utils::web::WebProgress>::setListener(geode::EventListenerProtocol*)::{lambda()#2}>, void ()>::target(std::type_info const&) const
FUNC 2e13c c 0 std::__ndk1::__function::__func<geode::Task<geode::utils::web::WebResponse, geode::utils::web::WebProgress>::setListener(geode::EventListenerProtocol*)::{lambda()#2}, std::__ndk1::allocator<geode::Task<geode::utils::web::WebResponse, geode::utils::web::WebProgress>::setListener(geode::EventListenerProtocol*)::{lambda()#2}>, void ()>::target_type() const
FUNC 2e148 168 0 std::__ndk1::__function::__value_func<void (geode::Task<geode::utils::web::WebResponse, geode::utils::web::WebProgress>::Event*)>::swap[abi:ne180000](std::__ndk1::__function::__value_func<void (geode::Task<geode::utils::web::WebResponse, geode::utils::web::WebProgress>::Event*)>&)
FUNC 2e2b0 4 0 std::__ndk1::__function::__func<GJGarageLayerModified::refreshCP(cocos2d::CCObject*, bool)::{lambda(geode::Task<geode::utils::web::WebResponse, geode::utils::web::WebProgress>::Event*)#1}, std::__ndk1::allocator<GJGarageLayerModified::refreshCP(cocos2d::CCObject*, bool)::{lambda(geode::Task<geode::utils::web::WebResponse, geode::utils::web::WebProgress>::Event*)#1}>, void (geode::Task<geode::utils::web::WebResponse, geode::utils::web::WebProgress>::Event*)>::~__func()
FUNC 2e2b4 40 0 std::__ndk1::__function::__func<GJGarageLayerModified::refreshCP(cocos2d::CCObject*, bool)::{lambda(geode::Task<geode::utils::web::WebResponse, geode::utils::web::WebProgress>::Event*)#1}, std::__ndk1::allocator<GJGarageLayerModified::refreshCP(cocos2d::CCObject*, bool)::{lambda(geode::Task<geode::utils::web::WebResponse, geode::utils::web::WebProgress>::Event*)#1}>, void (geode::Task<geode::utils::web::WebResponse, geode::utils::web::WebProgress>::Event*)>::__clone() const
FUNC 2e2f4 20 0 std::__ndk1::__function::__func<GJGarageLayerModified::refreshCP(cocos2d::CCObject*, bool)::{lambda(geode::Task<geode::utils::web::WebResponse, geode::utils::web::WebProgress>::Event*)#1}, std::__ndk1::allocator<GJGarageLayerModified::refreshCP(cocos2d::CCObject*, bool)::{lambda(geode::Task<geode::utils::web::WebResponse, geode::utils::web::WebProgress>::Event*)#1}>, void (geode::Task<geode::utils::web::WebResponse, geode::utils::web::WebProgress>::Event*)>::__clone(std::__ndk1::__function::__base<void (geode::Task<geode::utils::web::WebResponse, geode::utils::web::WebProgress>::Event*)>*) const
FUNC 2e314 4 0 std::__ndk1::__function::__func<GJGarageLayerModified::refreshCP(cocos2d::CCObject*, bool)::{lambda(geode::Task<geode::utils::web::WebResponse, geode::utils::web::WebProgress>::Event*)#1}, std::__ndk1::allocator<GJGarageLayerModified::refreshCP(cocos2d::CCObject*, bool)::{lambda(geode::Task<geode::utils::web::WebResponse, geode::utils::web::WebProgress>::Event*)#1}>, void (geode::Task<geode::utils::web::WebResponse, geode::utils::web::WebProgress>::Event*)>::destroy()
FUNC 2e318 4 0 std::__ndk1::__function::__func<GJGarageLayerModified::refreshCP(cocos2d::CCObject*, bool)::{lambda(geode::Task<geode::utils::web::WebResponse, geode::utils::web::WebProgress>::Event*)#1}, std::__ndk1::allocator<GJGarageLayerModified::refreshCP(cocos2d::CCObject*, bool)::{lambda(geode::Task<geode::utils::web::WebResponse, geode::utils::web::WebProgress>::Event*)#1}>, void (geode::Task<geode::utils::web::WebResponse, geode::utils::web::WebProgress>::Event*)>::destroy_deallocate()
FUNC 2e31c 6f0 0 std::__ndk1::__function::__func<GJGarageLayerModified::refreshCP(cocos2d::CCObject*, bool)::{lambda(geode::Task<geode::utils::web::WebResponse, geode::utils::web::WebProgress>::Event*)#1}, std::__ndk1::allocator<GJGarageLayerModified::refreshCP(cocos2d::CCObject*, bool)::{lambda(geode::Task<geode::utils::web::WebResponse, geode::utils::web::WebProgress>::Event*)#1}>, void (geode::Task<geode::utils::web::WebResponse, geode::utils::web::WebProgress>::Event*)>::operator()(geode::Task<geode::utils::web::WebResponse, geode::utils::web::WebProgress>::Event*&&)
FUNC 2ea0c 1c 0 std::__ndk1::__function::__func<GJGarageLayerModified::refreshCP(cocos2d::CCObject*, bool)::{lambda(geode::Task<geode::utils::web::WebResponse, geode::utils::web::WebProgress>::Event*)#1}, std::__ndk1::allocator<GJGarageLayerModified::refreshCP(cocos2d::CCObject*, bool)::{lambda(geode::Task<geode::utils::web::WebResponse, geode::utils::web::WebProgress>::Event*)#1}>, void (geode::Task<geode::utils::web::WebResponse, geode::utils::web::WebProgress>::Event*)>::target(std::type_info const&) const
FUNC 2ea28 c 0 std::__ndk1::__function::__func<GJGarageLayerModified::refreshCP(cocos2d::CCObject*, bool)::{lambda(geode::Task<geode::utils::web::WebResponse, geode::utils::web::WebProgress>::Event*)#1}, std::__ndk1::allocator<GJGarageLayerModified::refreshCP(cocos2d::CCObject*, bool)::{lambda(geode::Task<geode::utils::web::WebResponse, geode::utils::web::WebProgress>::Event*)#1}>, void (geode::Task<geode::utils::web::WebResponse, geode::utils::web::WebProgress>::Event*)>::target_type() const
FUNC 2ea34 74 0 geode::impl::ResultData<std::__ndk1::basic_string<char, std::__ndk1::char_traits<char>, std::__ndk1::allocator<char> >, std::__ndk1::basic_string<char, std::__ndk1::char_traits<char>, std::__ndk1::allocator<char> > >::~ResultData()
FUNC 2eaa8 8 0 GJGarageLayerModified::refreshCPWrapper(cocos2d::CCObject*)
FUNC 2eab0 14 0 std::__ndk1::__variant_detail::__visitation::__base::__dispatcher<(unsigned long)0>::__dispatch[abi:ne180000]<std::__ndk1::__variant_detail::__dtor<std::__ndk1::__variant_detail::__traits<std::__ndk1::basic_string<char, std::__ndk1::char_traits<char>, std::__ndk1::allocator<char> >, std::__ndk1::allocator<char> >, (std::__ndk1::__variant_detail::_Trait)1>::__destroy[abi:ne180000]()::{lambda(auto:1&)#1}, std::__ndk1::__variant_detail::__base<(std::__ndk1::__variant_detail::__traits<std::__ndk1::basic_string<char, std::__ndk1::char_traits<char>, std::__ndk1::allocator<char> >, std::__ndk1::allocator<char> >)1, std::__ndk1::allocator<char>, std::__ndk1::allocator<char> >&>(std::__ndk1::__variant_detail::__dtor<std::__ndk1::__variant_detail::__traits<std::__ndk1::basic_string<char, std::__ndk1::char_traits<char>, std::__ndk1::allocator<char> >, std::__ndk1::allocator<char> >, (std::__ndk1::__variant_detail::_Trait)1>, std::__ndk1::__variant_detail::__base<(std::__ndk1::__variant_detail::__traits<std::__ndk1::basic_string<char, std::__ndk1::char_traits<char>, std::__ndk1::allocator<char> >, std::__ndk1::allocator<char> >)1, std::__ndk1::allocator<char>, std::__ndk1::allocator<char> >&)
FUNC 2eac4 14 0 std::__ndk1::__variant_detail::__visitation::__base::__dispatcher<(unsigned long)1>::__dispatch[abi:ne180000]<std::__ndk1::__variant_detail::__dtor<std::__ndk1::__variant_detail::__traits<std::__ndk1::basic_string<char, std::__ndk1::char_traits<char>, std::__ndk1::allocator<char> >, std::__ndk1::allocator<char> >, (std::__ndk1::__variant_detail::_Trait)1>::__destroy[abi:ne180000]()::{lambda(auto:1&)#1}, std::__ndk1::__variant_detail::__base<(std::__ndk1::__variant_detail::__traits<std::__ndk1::basic_string<char, std::__ndk1::char_traits<char>, std::__ndk1::allocator<char> >, std::__ndk1::allocator<char> >)1, std::__ndk1::allocator<char>, std::__ndk1::allocator<char> >&>(std::__ndk1::__variant_detail::__dtor<std::__ndk1::__variant_detail::__traits<std::__ndk1::basic_string<char, std::__ndk1::char_traits<char>, std::__ndk1::allocator<char> >, std::__ndk1::allocator<char> >, (std::__ndk1::__variant_detail::_Trait)1>, std::__ndk1::__variant_detail::__base<(std::__ndk1::__variant_detail::__traits<std::__ndk1::basic_string<char, std::__ndk1::char_traits<char>, std::__ndk1::allocator<char> >, std::__ndk1::allocator<char> >)1, std::__ndk1::allocator<char>, std::__ndk1::allocator<char> >&)
FUNC 2ead8 c0 0 GPFeedbackLayer::~GPFeedbackLayer()
FUNC 2eb98 c8 0 GPFeedbackLayer::~GPFeedbackLayer()
FUNC 2ec60 8f0 0 GPFeedbackLayer::init()
FUNC 2f550 14 0 GPFeedbackLayer::KeyBackClicked()
FUNC 2f564 d0 0 {virtual override thunk({offset(-320)}, GPFeedbackLayer::~GPFeedbackLayer())}
FUNC 2f634 d8 0 {virtual override thunk({offset(-320)}, GPFeedbackLayer::~GPFeedbackLayer())}
FUNC 2f70c 50 0 GPFeedbackLayer::onClick(cocos2d::CCObject*)
FUNC 2f75c d0 0 GPFeedbackLayer::onInfoClick(cocos2d::CCObject*)
FUNC 2f82c 80c 0 GPFeedbackLayer::onFeedbackClick(cocos2d::CCObject*)
FUNC 30038 4 0 std::__ndk1::__function::__base<void (geode::Task<geode::utils::web::WebResponse, geode::utils::web::WebProgress>::Event*)>::~__base()
FUNC 3003c 4 0 std::__ndk1::__function::__func<GPFeedbackLayer::onFeedbackClick(cocos2d::CCObject*)::{lambda(geode::Task<geode::utils::web::WebResponse, geode::utils::web::WebProgress>::Event*)#1}, std::__ndk1::allocator<GPFeedbackLayer::onFeedbackClick(cocos2d::CCObject*)::{lambda(geode::Task<geode::utils::web::WebResponse, geode::utils::web::WebProgress>::Event*)#1}>, void (geode::Task<geode::utils::web::WebResponse, geode::utils::web::WebProgress>::Event*)>::~__func()
FUNC 30040 34 0 std::__ndk1::__function::__func<GPFeedbackLayer::onFeedbackClick(cocos2d::CCObject*)::{lambda(geode::Task<geode::utils::web::WebResponse, geode::utils::web::WebProgress>::Event*)#1}, std::__ndk1::allocator<GPFeedbackLayer::onFeedbackClick(cocos2d::CCObject*)::{lambda(geode::Task<geode::utils::web::WebResponse, geode::utils::web::WebProgress>::Event*)#1}>, void (geode::Task<geode::utils::web::WebResponse, geode::utils::web::WebProgress>::Event*)>::__clone() const
FUNC 30074 14 0 std::__ndk1::__function::__func<GPFeedbackLayer::onFeedbackClick(cocos2d::CCObject*)::{lambda(geode::Task<geode::utils::web::WebResponse, geode::utils::web::WebProgress>::Event*)#1}, std::__ndk1::allocator<GPFeedbackLayer::onFeedbackClick(cocos2d::CCObject*)::{lambda(geode::Task<geode::utils::web::WebResponse, geode::utils::web::WebProgress>::Event*)#1}>, void (geode::Task<geode::utils::web::WebResponse, geode::utils::web::WebProgress>::Event*)>::__clone(std::__ndk1::__function::__base<void (geode::Task<geode::utils::web::WebResponse, geode::utils::web::WebProgress>::Event*)>*) const
FUNC 30088 4 0 std::__ndk1::__function::__func<GPFeedbackLayer::onFeedbackClick(cocos2d::CCObject*)::{lambda(geode::Task<geode::utils::web::WebResponse, geode::utils::web::WebProgress>::Event*)#1}, std::__ndk1::allocator<GPFeedbackLayer::onFeedbackClick(cocos2d::CCObject*)::{lambda(geode::Task<geode::utils::web::WebResponse, geode::utils::web::WebProgress>::Event*)#1}>, void (geode::Task<geode::utils::web::WebResponse, geode::utils::web::WebProgress>::Event*)>::destroy()
FUNC 3008c 4 0 std::__ndk1::__function::__func<GPFeedbackLayer::onFeedbackClick(cocos2d::CCObject*)::{lambda(geode::Task<geode::utils::web::WebResponse, geode::utils::web::WebProgress>::Event*)#1}, std::__ndk1::allocator<GPFeedbackLayer::onFeedbackClick(cocos2d::CCObject*)::{lambda(geode::Task<geode::utils::web::WebResponse, geode::utils::web::WebProgress>::Event*)#1}>, void (geode::Task<geode::utils::web::WebResponse, geode::utils::web::WebProgress>::Event*)>::destroy_deallocate()
FUNC 30090 33c 0 std::__ndk1::__function::__func<GPFeedbackLayer::onFeedbackClick(cocos2d::CCObject*)::{lambda(geode::Task<geode::utils::web::WebResponse, geode::utils::web::WebProgress>::Event*)#1}, std::__ndk1::allocator<GPFeedbackLayer::onFeedbackClick(cocos2d::CCObject*)::{lambda(geode::Task<geode::utils::web::WebResponse, geode::utils::web::WebProgress>::Event*)#1}>, void (geode::Task<geode::utils::web::WebResponse, geode::utils::web::WebProgress>::Event*)>::operator()(geode::Task<geode::utils::web::WebResponse, geode::utils::web::WebProgress>::Event*&&)
FUNC 303cc 1c 0 std::__ndk1::__function::__func<GPFeedbackLayer::onFeedbackClick(cocos2d::CCObject*)::{lambda(geode::Task<geode::utils::web::WebResponse, geode::utils::web::WebProgress>::Event*)#1}, std::__ndk1::allocator<GPFeedbackLayer::onFeedbackClick(cocos2d::CCObject*)::{lambda(geode::Task<geode::utils::web::WebResponse, geode::utils::web::WebProgress>::Event*)#1}>, void (geode::Task<geode::utils::web::WebResponse, geode::utils::web::WebProgress>::Event*)>::target(std::type_info const&) const
FUNC 303e8 c 0 std::__ndk1::__function::__func<GPFeedbackLayer::onFeedbackClick(cocos2d::CCObject*)::{lambda(geode::Task<geode::utils::web::WebResponse, geode::utils::web::WebProgress>::Event*)#1}, std::__ndk1::allocator<GPFeedbackLayer::onFeedbackClick(cocos2d::CCObject*)::{lambda(geode::Task<geode::utils::web::WebResponse, geode::utils::web::WebProgress>::Event*)#1}>, void (geode::Task<geode::utils::web::WebResponse, geode::utils::web::WebProgress>::Event*)>::target_type() const
FUNC 303f4 4 0 std::__ndk1::__function::__func<GPFeedbackLayer::onFeedbackClick(cocos2d::CCObject*)::{lambda(geode::Task<geode::utils::web::WebResponse, geode::utils::web::WebProgress>::Event*)#1}::operator()(geode::Task<geode::utils::web::WebResponse, geode::utils::web::WebProgress>::Event*) const::{lambda(auto:1, bool)#1}, std::__ndk1::allocator<GPFeedbackLayer::onFeedbackClick(cocos2d::CCObject*)::{lambda(geode::Task<geode::utils::web::WebResponse, geode::utils::web::WebProgress>::Event*)#1}::operator()(geode::Task<geode::utils::web::WebResponse, geode::utils::web::WebProgress>::Event*) const::{lambda(auto:1, bool)#1}>, void (FLAlertLayer*, bool)>::~__func()
FUNC 303f8 34 0 std::__ndk1::__function::__func<GPFeedbackLayer::onFeedbackClick(cocos2d::CCObject*)::{lambda(geode::Task<geode::utils::web::WebResponse, geode::utils::web::WebProgress>::Event*)#1}::operator()(geode::Task<geode::utils::web::WebResponse, geode::utils::web::WebProgress>::Event*) const::{lambda(auto:1, bool)#1}, std::__ndk1::allocator<GPFeedbackLayer::onFeedbackClick(cocos2d::CCObject*)::{lambda(geode::Task<geode::utils::web::WebResponse, geode::utils::web::WebProgress>::Event*)#1}::operator()(geode::Task<geode::utils::web::WebResponse, geode::utils::web::WebProgress>::Event*) const::{lambda(auto:1, bool)#1}>, void (FLAlertLayer*, bool)>::__clone() const
FUNC 3042c 14 0 std::__ndk1::__function::__func<GPFeedbackLayer::onFeedbackClick(cocos2d::CCObject*)::{lambda(geode::Task<geode::utils::web::WebResponse, geode::utils::web::WebProgress>::Event*)#1}::operator()(geode::Task<geode::utils::web::WebResponse, geode::utils::web::WebProgress>::Event*) const::{lambda(auto:1, bool)#1}, std::__ndk1::allocator<GPFeedbackLayer::onFeedbackClick(cocos2d::CCObject*)::{lambda(geode::Task<geode::utils::web::WebResponse, geode::utils::web::WebProgress>::Event*)#1}::operator()(geode::Task<geode::utils::web::WebResponse, geode::utils::web::WebProgress>::Event*) const::{lambda(auto:1, bool)#1}>, void (FLAlertLayer*, bool)>::__clone(std::__ndk1::__function::__base<void (FLAlertLayer*, bool)>*) const
FUNC 30440 4 0 std::__ndk1::__function::__func<GPFeedbackLayer::onFeedbackClick(cocos2d::CCObject*)::{lambda(geode::Task<geode::utils::web::WebResponse, geode::utils::web::WebProgress>::Event*)#1}::operator()(geode::Task<geode::utils::web::WebResponse, geode::utils::web::WebProgress>::Event*) const::{lambda(auto:1, bool)#1}, std::__ndk1::allocator<GPFeedbackLayer::onFeedbackClick(cocos2d::CCObject*)::{lambda(geode::Task<geode::utils::web::WebResponse, geode::utils::web::WebProgress>::Event*)#1}::operator()(geode::Task<geode::utils::web::WebResponse, geode::utils::web::WebProgress>::Event*) const::{lambda(auto:1, bool)#1}>, void (FLAlertLayer*, bool)>::destroy()
FUNC 30444 4 0 std::__ndk1::__function::__func<GPFeedbackLayer::onFeedbackClick(cocos2d::CCObject*)::{lambda(geode::Task<geode::utils::web::WebResponse, geode::utils::web::WebProgress>::Event*)#1}::operator()(geode::Task<geode::utils::web::WebResponse, geode::utils::web::WebProgress>::Event*) const::{lambda(auto:1, bool)#1}, std::__ndk1::allocator<GPFeedbackLayer::onFeedbackClick(cocos2d::CCObject*)::{lambda(geode::Task<geode::utils::web::WebResponse, geode::utils::web::WebProgress>::Event*)#1}::operator()(geode::Task<geode::utils::web::WebResponse, geode::utils::web::WebProgress>::Event*) const::{lambda(auto:1, bool)#1}>, void (FLAlertLayer*, bool)>::destroy_deallocate()
FUNC 30448 50 0 std::__ndk1::__function::__func<GPFeedbackLayer::onFeedbackClick(cocos2d::CCObject*)::{lambda(geode::Task<geode::utils::web::WebResponse, geode::utils::web::WebProgress>::Event*)#1}::operator()(geode::Task<geode::utils::web::WebResponse, geode::utils::web::WebProgress>::Event*) const::{lambda(auto:1, bool)#1}, std::__ndk1::allocator<GPFeedbackLayer::onFeedbackClick(cocos2d::CCObject*)::{lambda(geode::Task<geode::utils::web::WebResponse, geode::utils::web::WebProgress>::Event*)#1}::operator()(geode::Task<geode::utils::web::WebResponse, geode::utils::web::WebProgress>::Event*) const::{lambda(auto:1, bool)#1}>, void (FLAlertLayer*, bool)>::operator()(FLAlertLayer*&&, bool&&)
FUNC 30498 1c 0 std::__ndk1::__function::__func<GPFeedbackLayer::onFeedbackClick(cocos2d::CCObject*)::{lambda(geode::Task<geode::utils::web::WebResponse, geode::utils::web::WebProgress>::Event*)#1}::operator()(geode::Task<geode::utils::web::WebResponse, geode::utils::web::WebProgress>::Event*) const::{lambda(auto:1, bool)#1}, std::__ndk1::allocator<GPFeedbackLayer::onFeedbackClick(cocos2d::CCObject*)::{lambda(geode::Task<geode::utils::web::WebResponse, geode::utils::web::WebProgress>::Event*)#1}::operator()(geode::Task<geode::utils::web::WebResponse, geode::utils::web::WebProgress>::Event*) const::{lambda(auto:1, bool)#1}>, void (FLAlertLayer*, bool)>::target(std::type_info const&) const
FUNC 304b4 c 0 std::__ndk1::__function::__func<GPFeedbackLayer::onFeedbackClick(cocos2d::CCObject*)::{lambda(geode::Task<geode::utils::web::WebResponse, geode::utils::web::WebProgress>::Event*)#1}::operator()(geode::Task<geode::utils::web::WebResponse, geode::utils::web::WebProgress>::Event*) const::{lambda(auto:1, bool)#1}, std::__ndk1::allocator<GPFeedbackLayer::onFeedbackClick(cocos2d::CCObject*)::{lambda(geode::Task<geode::utils::web::WebResponse, geode::utils::web::WebProgress>::Event*)#1}::operator()(geode::Task<geode::utils::web::WebResponse, geode::utils::web::WebProgress>::Event*) const::{lambda(auto:1, bool)#1}>, void (FLAlertLayer*, bool)>::target_type() const
FUNC 304c0 c0 0 GPKofiLayer::~GPKofiLayer()
FUNC 30580 c8 0 GPKofiLayer::~GPKofiLayer()
FUNC 30648 7e4 0 GPKofiLayer::init()
FUNC 30e2c 14 0 GPKofiLayer::KeyBackClicked()
FUNC 30e40 d0 0 {virtual override thunk({offset(-320)}, GPKofiLayer::~GPKofiLayer())}
FUNC 30f10 d8 0 {virtual override thunk({offset(-320)}, GPKofiLayer::~GPKofiLayer())}
FUNC 30fe8 b8 0 GPKofiLayer::onKofiBtn(cocos2d::CCObject*)
FUNC 310a0 30 0 geode::getMod()
FUNC 310d0 30 0 geodeImplicitEntry
FUNC 31100 4c 0 std::__ndk1::unordered_map<void*, bool, std::__ndk1::hash<void*>, std::__ndk1::equal_to<void*>, std::__ndk1::allocator<std::__ndk1::pair<void* const, bool> > >::~unordered_map[abi:ne180000]()
FUNC 3114c 134 0 wrapFunction(unsigned long, tulip::hook::WrapperMetadata const&)
FUNC 31280 78 0 geode::impl::ResultData<void*, std::__ndk1::basic_string<char, std::__ndk1::char_traits<char>, std::__ndk1::allocator<char> > >::unwrapErr() &
FUNC 312f8 74 0 geode::impl::ResultData<void*, std::__ndk1::basic_string<char, std::__ndk1::char_traits<char>, std::__ndk1::allocator<char> > >::~ResultData()
FUNC 3136c 64 0 tulip::hook::WrapperMetadata::~WrapperMetadata()
FUNC 313d0 24 0 cocos2d::CCObject::~CCObject()
FUNC 313f4 24 0 cocos2d::CCNode::~CCNode()
FUNC 31418 26c 0 cocos2d::CCNodeRGBA::CCNodeRGBA()
FUNC 31684 24 0 cocos2d::CCNodeRGBA::~CCNodeRGBA()
FUNC 316a8 278 0 cocos2d::CCGLProgram::~CCGLProgram()
FUNC 31920 24 0 cocos2d::CCGLProgram::~CCGLProgram()
FUNC 31944 22c 0 cocos2d::CCGLProgram::CCGLProgram()
FUNC 31b70 28c 0 cocos2d::CCLayer::CCLayer()
FUNC 31dfc 8 0 {virtual override thunk({offset(-320)}, cocos2d::CCLayer::~CCLayer())}
FUNC 31e04 24 0 cocos2d::CCLayer::~CCLayer()
FUNC 31e28 28 0 {virtual override thunk({offset(-320)}, cocos2d::CCLayer::~CCLayer())}
FUNC 31e50 278 0 cocos2d::CCTexture2D::~CCTexture2D()
FUNC 320c8 24 0 cocos2d::CCTexture2D::~CCTexture2D()
FUNC 320ec 22c 0 cocos2d::CCTexture2D::CCTexture2D()
FUNC 32318 1d8 0 FLAlertLayer::create(FLAlertLayerProtocol*, char const*, gd::string, char const*, char const*, float, bool, float, float)
FUNC 324f0 31c 0 tulip::hook::AbstractFunction::from<FLAlertLayer*, FLAlertLayerProtocol*, char const*, gd::string, char const*, char const*, float, bool, float, float>(FLAlertLayer* (*)(FLAlertLayerProtocol*, char const*, gd::string, char const*, char const*, float, bool, float, float))
FUNC 3280c 2c0 0 cocos2d::CCNodeRGBA::~CCNodeRGBA()
FUNC 32acc 178 0 CCTextInputNode::setAllowedChars(gd::string)
FUNC 32c44 a4 0 tulip::hook::AbstractFunction::from<void, CCTextInputNode*, gd::string>(void (*)(CCTextInputNode*, gd::string))
FUNC 32ce8 4 0 cocos2d::CCObject::update(float)
FUNC 32cec 2a8 0 cocos2d::CCNode::~CCNode()
FUNC 32f94 2f8 0 cocos2d::CCLayer::~CCLayer()
FUNC 3328c 4c4 0 cocos2d::CCObject::~CCObject()
FUNC 33750 154 0 _ZN5geode15UnwrapExceptionC2IRPvQsr4implE18IsStringStreamableIT_EEENS_4impl5OkTagEOS4_
FUNC 338a4 4 0 std::__ndk1::__variant_detail::__visitation::__base::__dispatcher<(unsigned long)0>::__dispatch[abi:ne180000]<std::__ndk1::__variant_detail::__dtor<std::__ndk1::__variant_detail::__traits<void*, std::__ndk1::basic_string<char, std::__ndk1::char_traits<char>, std::__ndk1::allocator<char> > >, (std::__ndk1::__variant_detail::_Trait)1>::__destroy[abi:ne180000]()::{lambda(auto:1&)#1}, std::__ndk1::__variant_detail::__base<(std::__ndk1::__variant_detail::__traits<void*, std::__ndk1::basic_string<char, std::__ndk1::char_traits<char>, std::__ndk1::allocator<char> > >)1, std::__ndk1::__variant_detail::__traits, std::__ndk1::allocator<char> >&>(std::__ndk1::__variant_detail::__dtor<std::__ndk1::__variant_detail::__traits<void*, std::__ndk1::basic_string<char, std::__ndk1::char_traits<char>, std::__ndk1::allocator<char> > >, (std::__ndk1::__variant_detail::_Trait)1>, std::__ndk1::__variant_detail::__base<(std::__ndk1::__variant_detail::__traits<void*, std::__ndk1::basic_string<char, std::__ndk1::char_traits<char>, std::__ndk1::allocator<char> > >)1, std::__ndk1::__variant_detail::__traits, std::__ndk1::allocator<char> >&)
FUNC 338a8 14 0 std::__ndk1::__variant_detail::__visitation::__base::__dispatcher<(unsigned long)1>::__dispatch[abi:ne180000]<std::__ndk1::__variant_detail::__dtor<std::__ndk1::__variant_detail::__traits<void*, std::__ndk1::basic_string<char, std::__ndk1::char_traits<char>, std::__ndk1::allocator<char> > >, (std::__ndk1::__variant_detail::_Trait)1>::__destroy[abi:ne180000]()::{lambda(auto:1&)#1}, std::__ndk1::__variant_detail::__base<(std::__ndk1::__variant_detail::__traits<void*, std::__ndk1::basic_string<char, std::__ndk1::char_traits<char>, std::__ndk1::allocator<char> > >)1, std::__ndk1::__variant_detail::__traits, std::__ndk1::allocator<char> >&>(std::__ndk1::__variant_detail::__dtor<std::__ndk1::__variant_detail::__traits<void*, std::__ndk1::basic_string<char, std::__ndk1::char_traits<char>, std::__ndk1::allocator<char> > >, (std::__ndk1::__variant_detail::_Trait)1>, std::__ndk1::__variant_detail::__base<(std::__ndk1::__variant_detail::__traits<void*, std::__ndk1::basic_string<char, std::__ndk1::char_traits<char>, std::__ndk1::allocator<char> > >)1, std::__ndk1::__variant_detail::__traits, std::__ndk1::allocator<char> >&)
FUNC 338bc 43c 0 std::__ndk1::__hash_table<std::__ndk1::__hash_value_type<void*, bool>, std::__ndk1::__unordered_map_hasher<void*, std::__ndk1::__hash_value_type<void*, bool>, std::__ndk1::hash<void*>, std::__ndk1::equal_to<void*>, true>, std::__ndk1::__unordered_map_equal<void*, std::__ndk1::__hash_value_type<void*, bool>, std::__ndk1::equal_to<void*>, std::__ndk1::hash<void*>, true>, std::__ndk1::allocator<std::__ndk1::__hash_value_type<void*, bool> > >::__emplace_unique_key_args<void*, std::__ndk1::piecewise_construct_t const&, std::__ndk1::tuple<void* const&>, std::__ndk1::tuple<> >(void* const&, std::__ndk1::piecewise_construct_t const&, std::__ndk1::tuple<void* const&>, std::__ndk1::tuple<>)
FUNC 33cf8 14 0 std::__ndk1::vector<tulip::hook::AbstractType, std::__ndk1::allocator<tulip::hook::AbstractType> >::__throw_length_error[abi:ne180000]() const
PUBLIC 33d10 0 <.plt ELF section in omgrod.garage_plus.android64.so>
STACK CFI INIT 18a70 10 .cfa: sp 0 +
STACK CFI INIT 18a80 8 .cfa: sp 0 +
STACK CFI INIT 18a88 8 .cfa: sp 0 +
STACK CFI INIT 18a90 14 .cfa: sp 0 +
STACK CFI INIT 18aa4 1c .cfa: sp 0 +
STACK CFI INIT 18ac0 10 .cfa: sp 0 +
STACK CFI INIT 18ad0 134 .cfa: sp 0 +
STACK CFI INIT 18c04 84 .cfa: sp 0 +
STACK CFI INIT 18c88 f4 .cfa: sp 0 +
STACK CFI INIT 18d7c a8 .cfa: sp 0 +
STACK CFI INIT 18e24 7c .cfa: sp 0 +
STACK CFI INIT 18ea0 14 .cfa: sp 0 +
STACK CFI INIT 18eb4 40 .cfa: sp 0 +
STACK CFI INIT 18ef4 28 .cfa: sp 0 +
STACK CFI INIT 18f1c 190 .cfa: sp 0 +
STACK CFI INIT 190ac 2c8 .cfa: sp 0 +
STACK CFI INIT 19374 8 .cfa: sp 0 +
STACK CFI INIT 1937c 8 .cfa: sp 0 +
STACK CFI INIT 19384 44 .cfa: sp 0 +
STACK CFI INIT 193c8 e8 .cfa: sp 0 +
STACK CFI INIT 194b0 e8 .cfa: sp 0 +
STACK CFI INIT 19598 14 .cfa: sp 0 +
STACK CFI INIT 195ac 10 .cfa: sp 0 +
STACK CFI INIT 195bc 10 .cfa: sp 0 +
STACK CFI INIT 195cc f0 .cfa: sp 0 +
STACK CFI INIT 196bc 44 .cfa: sp 0 +
STACK CFI INIT 19700 c .cfa: sp 0 +
STACK CFI INIT 1970c c .cfa: sp 0 +
STACK CFI INIT 19718 2c .cfa: sp 0 +
STACK CFI INIT 19744 280 .cfa: sp 0 +
STACK CFI INIT 199c4 c .cfa: sp 0 +
STACK CFI INIT 199d0 120 .cfa: sp 0 +
STACK CFI INIT 19af0 488 .cfa: sp 0 +
STACK CFI INIT 19f78 c48 .cfa: sp 0 +
STACK CFI INIT 1abc0 134 .cfa: sp 0 +
STACK CFI INIT 1acf4 210 .cfa: sp 0 +
STACK CFI INIT 1af04 38c .cfa: sp 0 +
STACK CFI INIT 1b290 1c8 .cfa: sp 0 +
STACK CFI INIT 1b458 9bc .cfa: sp 0 +
STACK CFI INIT 1be14 2d4 .cfa: sp 0 +
STACK CFI INIT 1c0e8 134 .cfa: sp 0 +
STACK CFI INIT 1c21c 120 .cfa: sp 0 +
STACK CFI INIT 1c33c 1c8 .cfa: sp 0 +
STACK CFI INIT 1c504 168 .cfa: sp 0 +
STACK CFI INIT 1c66c fc .cfa: sp 0 +
STACK CFI INIT 1c768 30 .cfa: sp 0 +
STACK CFI INIT 1c8d0 30 .cfa: sp 0 +
STACK CFI INIT 1c900 98 .cfa: sp 0 +
STACK CFI INIT 1c998 59c .cfa: sp 0 +
STACK CFI INIT 1cf34 8c .cfa: sp 0 +
STACK CFI INIT 1cfc0 30 .cfa: sp 0 +
STACK CFI INIT 1d3f0 1c .cfa: sp 0 +
STACK CFI INIT 1db94 50 .cfa: sp 0 +
STACK CFI 1db98 .cfa: sp 32 +
STACK CFI 1dba0 .cfa: x29 32 + x19: .cfa -16 + ^ .ra: .cfa -24 + ^ x29: .cfa -32 + ^
STACK CFI 1dbb8 .cfa: sp 32 +
STACK CFI 1dbc0 .cfa: sp 0 +
STACK CFI 1dbc4 .cfa: x29 32 +
STACK CFI 1dbd8 .cfa: sp 32 +
STACK CFI 1dbe0 .cfa: sp 0 +
STACK CFI INIT 1dc58 7c .cfa: sp 0 +
STACK CFI 1dc5c .cfa: sp 48 +
STACK CFI 1dc68 .cfa: x29 48 + x19: .cfa -8 + ^ x20: .cfa -16 + ^ x21: .cfa -32 + ^ .ra: .cfa -40 + ^ x29: .cfa -48 + ^
STACK CFI 1dcb4 .cfa: sp 48 +
STACK CFI 1dcc0 .cfa: sp 0 +
STACK CFI 1dcc4 .cfa: sp 48 +
STACK CFI 1dcd0 .cfa: sp 0 +
STACK CFI INIT 1dcd4 4 .cfa: sp 0 +
STACK CFI INIT 1dcd8 10 .cfa: sp 0 +
STACK CFI 1dcdc .cfa: sp 16 +
STACK CFI 1dce0 .cfa: x29 16 + .ra: .cfa -8 + ^ x29: .cfa -16 + ^
STACK CFI INIT 1de3c 34 .cfa: sp 0 +
STACK CFI 1de40 .cfa: sp 16 +
STACK CFI 1de44 .cfa: x29 16 + .ra: .cfa -8 + ^ x29: .cfa -16 + ^
STACK CFI INIT 1df94 80 .cfa: sp 0 +
STACK CFI 1df98 .cfa: sp 48 +
STACK CFI 1dfa4 .cfa: x29 48 + x19: .cfa -8 + ^ x20: .cfa -16 + ^ x21: .cfa -32 + ^ .ra: .cfa -40 + ^ x29: .cfa -48 + ^
STACK CFI 1e004 .cfa: sp 48 +
STACK CFI 1e010 .cfa: sp 0 +
STACK CFI INIT 1e014 24 .cfa: sp 0 +
STACK CFI 1e018 .cfa: sp 32 +
STACK CFI 1e020 .cfa: x29 32 + x19: .cfa -16 + ^ .ra: .cfa -24 + ^ x29: .cfa -32 + ^
STACK CFI 1e02c .cfa: sp 32 +
STACK CFI 1e034 .cfa: sp 0 +
STACK CFI INIT 1e384 14 .cfa: sp 0 +
STACK CFI 1e388 .cfa: sp 16 +
STACK CFI 1e38c .cfa: x29 16 + .ra: .cfa -8 + ^ x29: .cfa -16 + ^
STACK CFI INIT 1e3e8 30 .cfa: sp 0 +
STACK CFI 1e3ec .cfa: sp 32 +
STACK CFI 1e3f4 .cfa: x29 32 + x19: .cfa -16 + ^ .ra: .cfa -24 + ^ x29: .cfa -32 + ^
STACK CFI 1e40c .cfa: sp 32 +
STACK CFI 1e414 .cfa: sp 0 +
STACK CFI INIT 1e418 34 .cfa: sp 0 +
STACK CFI 1e41c .cfa: sp 32 +
STACK CFI 1e424 .cfa: x29 32 + x19: .cfa -16 + ^ .ra: .cfa -24 + ^ x29: .cfa -32 + ^
STACK CFI INIT 1e5a8 148 .cfa: sp 0 +
STACK CFI 1e5ac .cfa: sp 48 +
STACK CFI 1e5b8 .cfa: x29 48 + x19: .cfa -8 + ^ x20: .cfa -16 + ^ x21: .cfa -32 + ^ .ra: .cfa -40 + ^ x29: .cfa -48 + ^
STACK CFI 1e6e0 .cfa: sp 48 +
STACK CFI 1e6ec .cfa: sp 0 +
STACK CFI INIT 1e90c 70 .cfa: sp 0 +
STACK CFI 1e910 .cfa: sp 48 +
STACK CFI 1e91c .cfa: x29 48 + x19: .cfa -8 + ^ x20: .cfa -16 + ^ x21: .cfa -24 + ^ x22: .cfa -32 + ^ .ra: .cfa -40 + ^ x29: .cfa -48 + ^
STACK CFI 1e964 .cfa: sp 48 +
STACK CFI 1e970 .cfa: sp 0 +
STACK CFI 1e974 .cfa: x29 48 +
STACK CFI INIT 1e97c 68 .cfa: sp 0 +
STACK CFI 1e980 .cfa: sp 32 +
STACK CFI 1e988 .cfa: x29 32 + x19: .cfa -8 + ^ x20: .cfa -16 + ^ .ra: .cfa -24 + ^ x29: .cfa -32 + ^
STACK CFI 1e9a0 .cfa: sp 32 +
STACK CFI 1e9a8 .cfa: sp 0 +
STACK CFI 1e9ac .cfa: x29 32 +
STACK CFI 1e9d8 .cfa: sp 32 +
STACK CFI 1e9e0 .cfa: sp 0 +
STACK CFI INIT 1e9e4 14 .cfa: sp 0 +
STACK CFI 1e9e8 .cfa: sp 16 +
STACK CFI 1e9ec .cfa: x29 16 + .ra: .cfa -8 + ^ x29: .cfa -16 + ^
STACK CFI INIT 1e9f8 4 .cfa: sp 0 +
STACK CFI INIT 1e9fc 14 .cfa: sp 0 +
STACK CFI INIT 1ea10 fc .cfa: sp 0 +
STACK CFI 1ea14 .cfa: sp 64 +
STACK CFI 1ea24 .cfa: x29 64 + x19: .cfa -8 + ^ x20: .cfa -16 + ^ x21: .cfa -24 + ^ x22: .cfa -32 + ^ x23: .cfa -40 + ^ x24: .cfa -48 + ^ .ra: .cfa -56 + ^ x29: .cfa -64 + ^
STACK CFI 1eaf8 .cfa: sp 64 +
STACK CFI 1eb08 .cfa: sp 0 +
STACK CFI INIT 1eb0c d4 .cfa: sp 0 +
STACK CFI 1eb10 .cfa: sp 48 +
STACK CFI 1eb1c .cfa: x29 48 + x19: .cfa -8 + ^ x20: .cfa -16 + ^ x21: .cfa -32 + ^ .ra: .cfa -40 + ^ x29: .cfa -48 + ^
STACK CFI 1ebac .cfa: sp 48 +
STACK CFI 1ebb8 .cfa: sp 0 +
STACK CFI 1ebbc .cfa: x29 48 +
STACK CFI INIT 1ebe0 388 .cfa: sp 0 +
STACK CFI INIT 1ef68 8c .cfa: sp 0 +
STACK CFI 1ef70 .cfa: sp 32 +
STACK CFI 1ef78 .cfa: x29 32 + x19: .cfa -8 + ^ x20: .cfa -16 + ^ .ra: .cfa -24 + ^ x29: .cfa -32 + ^
STACK CFI 1efc0 .cfa: sp 32 +
STACK CFI 1efc8 .cfa: sp 0 +
STACK CFI 1efd0 .cfa: x29 32 +
STACK CFI INIT 1eff4 74 .cfa: sp 0 +
STACK CFI 1eff8 .cfa: sp 48 +
STACK CFI 1f004 .cfa: x29 48 + x19: .cfa -8 + ^ x20: .cfa -16 + ^ x21: .cfa -24 + ^ x22: .cfa -32 + ^ .ra: .cfa -40 + ^ x29: .cfa -48 + ^
STACK CFI 1f058 .cfa: sp 48 +
STACK CFI 1f064 .cfa: sp 0 +
STACK CFI INIT 1f068 84 .cfa: sp 0 +
STACK CFI 1f06c .cfa: sp 48 +
STACK CFI 1f078 .cfa: x29 48 + x19: .cfa -8 + ^ x20: .cfa -16 + ^ x21: .cfa -24 + ^ x22: .cfa -32 + ^ .ra: .cfa -40 + ^ x29: .cfa -48 + ^
STACK CFI 1f0dc .cfa: sp 48 +
STACK CFI 1f0e8 .cfa: sp 0 +
STACK CFI INIT 1f0ec 50 .cfa: sp 0 +
STACK CFI 1f0f0 .cfa: sp 32 +
STACK CFI 1f0f8 .cfa: x29 32 + x19: .cfa -16 + ^ .ra: .cfa -24 + ^ x29: .cfa -32 + ^
STACK CFI 1f110 .cfa: sp 32 +
STACK CFI 1f118 .cfa: sp 0 +
STACK CFI 1f11c .cfa: x29 32 +
STACK CFI 1f130 .cfa: sp 32 +
STACK CFI 1f138 .cfa: sp 0 +
STACK CFI INIT 1f13c 64 .cfa: sp 0 +
STACK CFI 1f140 .cfa: sp 32 +
STACK CFI 1f148 .cfa: x29 32 + x19: .cfa -16 + ^ .ra: .cfa -24 + ^ x29: .cfa -32 + ^
STACK CFI 1f174 .cfa: sp 32 +
STACK CFI 1f17c .cfa: sp 0 +
STACK CFI 1f180 .cfa: x29 32 +
STACK CFI 1f194 .cfa: sp 32 +
STACK CFI 1f19c .cfa: sp 0 +
STACK CFI INIT 1f2d4 e4 .cfa: sp 0 +
STACK CFI 1f2d8 .cfa: sp 64 +
STACK CFI 1f2e8 .cfa: x29 64 + x19: .cfa -8 + ^ x20: .cfa -16 + ^ x21: .cfa -24 + ^ x22: .cfa -32 + ^ x23: .cfa -48 + ^ .ra: .cfa -56 + ^ x29: .cfa -64 + ^
STACK CFI 1f360 .cfa: sp 64 +
STACK CFI 1f370 .cfa: sp 0 +
STACK CFI 1f374 .cfa: x29 64 +
STACK CFI INIT 1f3b8 104 .cfa: sp 0 +
STACK CFI 1f3bc .cfa: sp 80 +
STACK CFI 1f3d0 .cfa: x29 80 + x19: .cfa -8 + ^ x20: .cfa -16 + ^ x21: .cfa -24 + ^ x22: .cfa -32 + ^ x23: .cfa -40 + ^ x24: .cfa -48 + ^ x25: .cfa -56 + ^ x26: .cfa -64 + ^ .ra: .cfa -72 + ^ x29: .cfa -80 + ^
STACK CFI 1f4a4 .cfa: sp 80 +
STACK CFI 1f4b8 .cfa: sp 0 +
STACK CFI INIT 1f4bc 19c .cfa: sp 0 +
STACK CFI INIT 1fa9c 1c .cfa: sp 0 +
STACK CFI INIT 1fe78 4 .cfa: sp 0 +
STACK CFI INIT 20234 4 .cfa: sp 0 +
STACK CFI INIT 20238 14 .cfa: sp 0 +
STACK CFI INIT 2024c 4 .cfa: sp 0 +
STACK CFI INIT 20250 14 .cfa: sp 0 +
STACK CFI INIT 20264 4 .cfa: sp 0 +
STACK CFI INIT 20268 4 .cfa: sp 0 +
STACK CFI INIT 2026c 24 .cfa: sp 0 +
STACK CFI 20270 .cfa: sp 16 +
STACK CFI 20274 .cfa: x29 16 + .ra: .cfa -8 + ^ x29: .cfa -16 + ^
STACK CFI 20288 .cfa: sp 16 +
STACK CFI 2028c .cfa: sp 0 +
STACK CFI INIT 20290 10 .cfa: sp 0 +
STACK CFI INIT 202a0 4 .cfa: sp 0 +
STACK CFI INIT 202a4 4 .cfa: sp 0 +
STACK CFI INIT 20394 1c .cfa: sp 0 +
STACK CFI INIT 203b0 c .cfa: sp 0 +
STACK CFI INIT 203bc 29c .cfa: sp 0 +
STACK CFI 203d0 .cfa: sp 48 +
STACK CFI 203dc .cfa: x29 48 + x19: .cfa -8 + ^ x20: .cfa -16 + ^ x21: .cfa -24 + ^ x22: .cfa -32 + ^ .ra: .cfa -40 + ^ x29: .cfa -48 + ^
STACK CFI 20648 .cfa: sp 48 +
STACK CFI 20654 .cfa: sp 0 +
STACK CFI INIT 20658 784 .cfa: sp 0 +
STACK CFI 2065c .cfa: sp 48 +
STACK CFI 20668 .cfa: x29 48 + x19: .cfa -8 + ^ x20: .cfa -16 + ^ x21: .cfa -32 + ^ .ra: .cfa -40 + ^ x29: .cfa -48 + ^
STACK CFI 20d60 .cfa: sp 48 +
STACK CFI 20d6c .cfa: sp 0 +
STACK CFI 20d70 .cfa: x29 48 +
STACK CFI INIT 20ddc c0 .cfa: sp 0 +
STACK CFI 20de0 .cfa: sp 64 +
STACK CFI 20df0 .cfa: x29 64 + x19: .cfa -8 + ^ x20: .cfa -16 + ^ x21: .cfa -24 + ^ x22: .cfa -32 + ^ x23: .cfa -48 + ^ .ra: .cfa -56 + ^ x29: .cfa -64 + ^
STACK CFI 20e88 .cfa: sp 64 +
STACK CFI 20e98 .cfa: sp 0 +
STACK CFI INIT 20e9c c0 .cfa: sp 0 +
STACK CFI 20ea0 .cfa: sp 64 +
STACK CFI 20eb0 .cfa: x29 64 + x19: .cfa -8 + ^ x20: .cfa -16 + ^ x21: .cfa -24 + ^ x22: .cfa -32 + ^ x23: .cfa -48 + ^ .ra: .cfa -56 + ^ x29: .cfa -64 + ^
STACK CFI 20f48 .cfa: sp 64 +
STACK CFI 20f58 .cfa: sp 0 +
STACK CFI INIT 20f5c 2b4 .cfa: sp 0 +
STACK CFI 20f60 .cfa: sp 48 +
STACK CFI 20f6c .cfa: x29 48 + x19: .cfa -8 + ^ x20: .cfa -16 + ^ x21: .cfa -32 + ^ .ra: .cfa -40 + ^ x29: .cfa -48 + ^
STACK CFI 210dc .cfa: sp 48 +
STACK CFI 210e8 .cfa: sp 0 +
STACK CFI 210ec .cfa: x29 48 +
STACK CFI 21200 .cfa: sp 48 +
STACK CFI 2120c .cfa: sp 0 +
STACK CFI INIT 21210 118 .cfa: sp 0 +
STACK CFI 21220 .cfa: sp 64 +
STACK CFI 21230 .cfa: x29 64 + x19: .cfa -8 + ^ x20: .cfa -16 + ^ x21: .cfa -24 + ^ x22: .cfa -32 + ^ x23: .cfa -48 + ^ .ra: .cfa -56 + ^ x29: .cfa -64 + ^
STACK CFI 21314 .cfa: sp 64 +
STACK CFI 21324 .cfa: sp 0 +
STACK CFI INIT 21328 b8 .cfa: sp 0 +
STACK CFI 2132c .cfa: sp 48 +
STACK CFI 21338 .cfa: x29 48 + x19: .cfa -8 + ^ x20: .cfa -16 + ^ x21: .cfa -32 + ^ .ra: .cfa -40 + ^ x29: .cfa -48 + ^
STACK CFI 213d0 .cfa: sp 48 +
STACK CFI 213dc .cfa: sp 0 +
STACK CFI INIT 213e0 e4 .cfa: sp 0 +
STACK CFI 213e4 .cfa: sp 32 +
STACK CFI 213ec .cfa: x29 32 + x19: .cfa -16 + ^ .ra: .cfa -24 + ^ x29: .cfa -32 + ^
STACK CFI 214b8 .cfa: sp 32 +
STACK CFI 214c0 .cfa: sp 0 +
STACK CFI INIT 214c4 90 .cfa: sp 0 +
STACK CFI 214e8 .cfa: sp 32 +
STACK CFI 214f0 .cfa: x29 32 + x19: .cfa -8 + ^ x20: .cfa -16 + ^ .ra: .cfa -24 + ^ x29: .cfa -32 + ^
STACK CFI 21520 .cfa: sp 32 +
STACK CFI 21528 .cfa: sp 0 +
STACK CFI INIT 21554 3b8 .cfa: sp 0 +
STACK CFI 21558 .cfa: sp 64 +
STACK CFI 21568 .cfa: x29 64 + x19: .cfa -8 + ^ x20: .cfa -16 + ^ x21: .cfa -24 + ^ x22: .cfa -32 + ^ x23: .cfa -48 + ^ .ra: .cfa -56 + ^ x29: .cfa -64 + ^
STACK CFI 218f8 .cfa: sp 64 +
STACK CFI 21908 .cfa: sp 0 +
STACK CFI INIT 2190c 5dc .cfa: sp 0 +
STACK CFI 21910 .cfa: sp 48 +
STACK CFI 2191c .cfa: x29 48 + x19: .cfa -8 + ^ x20: .cfa -16 + ^ x21: .cfa -32 + ^ .ra: .cfa -40 + ^ x29: .cfa -48 + ^
STACK CFI 21ed8 .cfa: sp 48 +
STACK CFI 21ee4 .cfa: sp 0 +
STACK CFI INIT 21ee8 820 .cfa: sp 0 +
STACK CFI 21eec .cfa: sp 112 +
STACK CFI 21f08 .cfa: x29 96 + x19: .cfa -8 + ^ x20: .cfa -16 + ^ x21: .cfa -24 + ^ x22: .cfa -32 + ^ x23: .cfa -40 + ^ x24: .cfa -48 + ^ x25: .cfa -56 + ^ x26: .cfa -64 + ^ x27: .cfa -72 + ^ x28: .cfa -80 + ^ .ra: .cfa -88 + ^ x29: .cfa -96 + ^
STACK CFI 226e8 .cfa: sp 112 +
STACK CFI 22704 .cfa: sp 0 +
STACK CFI INIT 22708 9b8 .cfa: sp 0 +
STACK CFI 2270c .cfa: sp 64 +
STACK CFI 2271c .cfa: x29 64 + x19: .cfa -8 + ^ x20: .cfa -16 + ^ x21: .cfa -24 + ^ x22: .cfa -32 + ^ x23: .cfa -48 + ^ .ra: .cfa -56 + ^ x29: .cfa -64 + ^
STACK CFI 230ac .cfa: sp 64 +
STACK CFI 230bc .cfa: sp 0 +
STACK CFI INIT 230c0 248 .cfa: sp 0 +
STACK CFI 230c4 .cfa: sp 64 +
STACK CFI 230d4 .cfa: x29 64 + x19: .cfa -8 + ^ x20: .cfa -16 + ^ x21: .cfa -24 + ^ x22: .cfa -32 + ^ x23: .cfa -48 + ^ .ra: .cfa -56 + ^ x29: .cfa -64 + ^
STACK CFI 2320c .cfa: sp 64 +
STACK CFI 23210 .cfa: x29 64 +
STACK CFI 232e0 .cfa: sp 64 +
STACK CFI 232f0 .cfa: sp 0 +
STACK CFI 232f4 .cfa: sp 64 +
STACK CFI 23304 .cfa: sp 0 +
STACK CFI INIT 23308 de8 .cfa: sp 0 +
STACK CFI 2330c .cfa: sp 112 +
STACK CFI 23328 .cfa: x29 96 + x19: .cfa -8 + ^ x20: .cfa -16 + ^ x21: .cfa -24 + ^ x22: .cfa -32 + ^ x23: .cfa -40 + ^ x24: .cfa -48 + ^ x25: .cfa -56 + ^ x26: .cfa -64 + ^ x27: .cfa -72 + ^ x28: .cfa -80 + ^ .ra: .cfa -88 + ^ x29: .cfa -96 + ^
STACK CFI 23fa8 .cfa: sp 112 +
STACK CFI 23fac .cfa: x29 96 +
STACK CFI 240d0 .cfa: sp 112 +
STACK CFI 240ec .cfa: sp 0 +
STACK CFI INIT 240f0 22c .cfa: sp 0 +
STACK CFI 240f4 .cfa: sp 80 +
STACK CFI 24108 .cfa: x29 80 + x19: .cfa -8 + ^ x20: .cfa -16 + ^ x21: .cfa -24 + ^ x22: .cfa -32 + ^ x23: .cfa -40 + ^ x24: .cfa -48 + ^ x25: .cfa -56 + ^ x26: .cfa -64 + ^ .ra: .cfa -72 + ^ x29: .cfa -80 + ^
STACK CFI 24304 .cfa: sp 80 +
STACK CFI 24318 .cfa: sp 0 +
STACK CFI INIT 2431c ad8 .cfa: sp 0 +
STACK CFI 24b68 .cfa: sp 32 +
STACK CFI 24b6c x19: .cfa -8 + ^ x20: .cfa -16 + ^ x21: .cfa -32 + ^
STACK CFI 24df0 .cfa: sp 0 +
STACK CFI INIT 24df4 398 .cfa: sp 0 +
STACK CFI 24df8 .cfa: sp 32 +
STACK CFI 24dfc v8: .cfa -8 + ^ v9: .cfa -16 + ^ v10: .cfa -32 + ^
STACK CFI 25188 .cfa: sp 0 +
STACK CFI INIT 2518c 8c0 .cfa: sp 0 +
STACK CFI 25190 .cfa: sp 80 +
STACK CFI 251a4 .cfa: x29 80 + x19: .cfa -8 + ^ x20: .cfa -16 + ^ x21: .cfa -24 + ^ x22: .cfa -32 + ^ x23: .cfa -40 + ^ x24: .cfa -48 + ^ x25: .cfa -64 + ^ .ra: .cfa -72 + ^ x29: .cfa -80 + ^
STACK CFI 259bc .cfa: sp 80 +
STACK CFI 259d0 .cfa: sp 0 +
STACK CFI 259d4 .cfa: x29 80 +
STACK CFI INIT 25a4c 13c .cfa: sp 0 +
STACK CFI 25a50 .cfa: sp 48 +
STACK CFI 25a5c .cfa: x29 48 + x19: .cfa -8 + ^ x20: .cfa -16 + ^ x21: .cfa -32 + ^ .ra: .cfa -40 + ^ x29: .cfa -48 + ^
STACK CFI 25b78 .cfa: sp 48 +
STACK CFI 25b84 .cfa: sp 0 +
STACK CFI INIT 25b88 478 .cfa: sp 0 +
STACK CFI 25b8c .cfa: sp 80 +
STACK CFI 25ba0 .cfa: x29 80 + x19: .cfa -8 + ^ x20: .cfa -16 + ^ x21: .cfa -24 + ^ x22: .cfa -32 + ^ x23: .cfa -40 + ^ x24: .cfa -48 + ^ x25: .cfa -64 + ^ .ra: .cfa -72 + ^ x29: .cfa -80 + ^
STACK CFI 25fe8 .cfa: sp 80 +
STACK CFI 25ffc .cfa: sp 0 +
STACK CFI INIT 26674 f0 .cfa: sp 0 +
STACK CFI 26678 .cfa: sp 64 +
STACK CFI 26688 .cfa: x29 48 + x19: .cfa -8 + ^ x20: .cfa -16 + ^ x21: .cfa -32 + ^ .ra: .cfa -40 + ^ x29: .cfa -48 + ^
STACK CFI 26750 .cfa: sp 64 +
STACK CFI 26760 .cfa: sp 0 +
STACK CFI INIT 26eac 5f4 .cfa: sp 0 +
STACK CFI 26eb0 .cfa: sp 400 +
STACK CFI 26ed4 .cfa: x29 96 + x19: .cfa -8 + ^ x20: .cfa -16 + ^ x21: .cfa -24 + ^ x22: .cfa -32 + ^ x23: .cfa -40 + ^ x24: .cfa -48 + ^ x25: .cfa -56 + ^ x26: .cfa -64 + ^ x27: .cfa -72 + ^ x28: .cfa -80 + ^ .ra: .cfa -88 + ^ x29: .cfa -96 + ^ v8: .cfa -104 + ^ v9: .cfa -112 + ^ v10: .cfa -128 + ^
STACK CFI 27474 .cfa: sp 400 +
STACK CFI 27498 .cfa: sp 0 +
STACK CFI 2749c .cfa: x29 96 +
STACK CFI INIT 274a0 144 .cfa: sp 0 +
STACK CFI 274a4 .cfa: sp 64 +
STACK CFI 274b4 .cfa: x29 48 + x19: .cfa -8 + ^ x20: .cfa -16 + ^ x21: .cfa -24 + ^ x22: .cfa -32 + ^ .ra: .cfa -40 + ^ x29: .cfa -48 + ^
STACK CFI 275cc .cfa: sp 64 +
STACK CFI 275dc .cfa: sp 0 +
STACK CFI 275e0 .cfa: x29 48 +
STACK CFI INIT 275e4 78 .cfa: sp 0 +
STACK CFI 275e8 .cfa: sp 48 +
STACK CFI 275f4 .cfa: x29 32 + x19: .cfa -16 + ^ .ra: .cfa -24 + ^ x29: .cfa -32 + ^
STACK CFI 27648 .cfa: sp 48 +
STACK CFI 27654 .cfa: sp 0 +
STACK CFI 27658 .cfa: x29 32 +
STACK CFI INIT 2765c 27ac .cfa: sp 0 +
STACK CFI 27660 .cfa: sp 160 +
STACK CFI 27688 .cfa: x29 96 + x19: .cfa -8 + ^ x20: .cfa -16 + ^ x21: .cfa -24 + ^ x22: .cfa -32 + ^ x23: .cfa -40 + ^ x24: .cfa -48 + ^ x25: .cfa -56 + ^ x26: .cfa -64 + ^ x27: .cfa -72 + ^ x28: .cfa -80 + ^ .ra: .cfa -88 + ^ x29: .cfa -96 + ^ v8: .cfa -104 + ^ v9: .cfa -112 + ^ v10: .cfa -120 + ^ v11: .cfa -128 + ^ v12: .cfa -136 + ^ v13: .cfa -144 + ^ v14: .cfa -152 + ^ v15: .cfa -160 + ^
STACK CFI 276b4 .cfa: sp 160 +
STACK CFI 276dc .cfa: sp 0 +
STACK CFI 276e0 .cfa: x29 96 +
STACK CFI INIT 29e08 160 .cfa: sp 0 +
STACK CFI 29e0c .cfa: sp 144 +
STACK CFI 29e18 .cfa: x29 32 + x19: .cfa -8 + ^ x20: .cfa -16 + ^ .ra: .cfa -24 + ^ x29: .cfa -32 + ^
STACK CFI 29f54 .cfa: sp 144 +
STACK CFI 29f60 .cfa: sp 0 +
STACK CFI 29f64 .cfa: x29 32 +
STACK CFI INIT 29f68 34 .cfa: sp 0 +
STACK CFI 29f6c .cfa: sp 32 +
STACK CFI 29f74 .cfa: x29 32 + x19: .cfa -16 + ^ .ra: .cfa -24 + ^ x29: .cfa -32 + ^
STACK CFI 29f90 .cfa: sp 32 +
STACK CFI 29f98 .cfa: sp 0 +
STACK CFI INIT 2a0a4 24 .cfa: sp 0 +
STACK CFI 2a0a8 .cfa: sp 32 +
STACK CFI 2a0b0 .cfa: x29 32 + x19: .cfa -16 + ^ .ra: .cfa -24 + ^ x29: .cfa -32 + ^
STACK CFI 2a0bc .cfa: sp 32 +
STACK CFI 2a0c4 .cfa: sp 0 +
STACK CFI INIT 2a0c8 44 .cfa: sp 0 +
STACK CFI 2a0cc .cfa: sp 32 +
STACK CFI 2a0d8 .cfa: x29 24 + x19: .cfa -8 + ^ .ra: .cfa -16 + ^ x29: .cfa -24 + ^ v8: .cfa -32 + ^
STACK CFI 2a0fc .cfa: sp 32 +
STACK CFI 2a108 .cfa: sp 0 +
STACK CFI INIT 2a10c 8 .cfa: sp 0 +
STACK CFI INIT 2a114 4 .cfa: sp 0 +
STACK CFI INIT 2a118 8 .cfa: sp 0 +
STACK CFI INIT 2a120 4 .cfa: sp 0 +
STACK CFI INIT 2a124 8 .cfa: sp 0 +
STACK CFI INIT 2a12c ac .cfa: sp 0 +
STACK CFI 2a130 .cfa: sp 64 +
STACK CFI 2a140 .cfa: x29 64 + x19: .cfa -8 + ^ x20: .cfa -16 + ^ x21: .cfa -24 + ^ x22: .cfa -32 + ^ x23: .cfa -48 + ^ .ra: .cfa -56 + ^ x29: .cfa -64 + ^
STACK CFI 2a1bc .cfa: sp 64 +
STACK CFI 2a1cc .cfa: sp 0 +
STACK CFI 2a1d0 .cfa: x29 64 +
STACK CFI INIT 2a1d8 100 .cfa: sp 0 +
STACK CFI 2a1dc .cfa: sp 64 +
STACK CFI 2a1ec .cfa: x29 64 + x19: .cfa -8 + ^ x20: .cfa -16 + ^ x21: .cfa -24 + ^ x22: .cfa -32 + ^ x23: .cfa -40 + ^ x24: .cfa -48 + ^ .ra: .cfa -56 + ^ x29: .cfa -64 + ^
STACK CFI 2a2bc .cfa: sp 64 +
STACK CFI 2a2cc .cfa: sp 0 +
STACK CFI 2a2d0 .cfa: x29 64 +
STACK CFI INIT 2ae84 1c .cfa: sp 0 +
STACK CFI INIT 2b210 4 .cfa: sp 0 +
STACK CFI INIT 2b214 7c .cfa: sp 0 +
STACK CFI 2b218 .cfa: sp 32 +
STACK CFI 2b220 .cfa: x29 32 + x19: .cfa -8 + ^ x20: .cfa -16 + ^ .ra: .cfa -24 + ^ x29: .cfa -32 + ^
STACK CFI 2b278 .cfa: sp 32 +
STACK CFI 2b280 .cfa: sp 0 +
STACK CFI 2b284 .cfa: sp 32 +
STACK CFI 2b28c .cfa: sp 0 +
STACK CFI INIT 2b3f8 4 .cfa: sp 0 +
STACK CFI INIT 2b3fc 14 .cfa: sp 0 +
STACK CFI INIT 2c134 b4 .cfa: sp 0 +
STACK CFI 2c138 .cfa: sp 32 +
STACK CFI 2c140 .cfa: x29 32 + x19: .cfa -16 + ^ .ra: .cfa -24 + ^ x29: .cfa -32 + ^
STACK CFI 2c1dc .cfa: sp 32 +
STACK CFI 2c1e4 .cfa: sp 0 +
STACK CFI INIT 2c1e8 4 .cfa: sp 0 +
STACK CFI INIT 2c1ec 4 .cfa: sp 0 +
STACK CFI INIT 2c1f0 4 .cfa: sp 0 +
STACK CFI INIT 2c1f4 4 .cfa: sp 0 +
STACK CFI INIT 2c668 30 .cfa: sp 0 +
STACK CFI 2c66c .cfa: sp 32 +
STACK CFI 2c674 .cfa: x29 32 + x19: .cfa -16 + ^ .ra: .cfa -24 + ^ x29: .cfa -32 + ^
STACK CFI 2c68c .cfa: sp 32 +
STACK CFI 2c694 .cfa: sp 0 +
STACK CFI INIT 2c87c 4 .cfa: sp 0 +
STACK CFI INIT 2ca64 50 .cfa: sp 0 +
STACK CFI 2ca68 .cfa: sp 32 +
STACK CFI 2ca70 .cfa: x29 32 + x19: .cfa -16 + ^ .ra: .cfa -24 + ^ x29: .cfa -32 + ^
STACK CFI 2ca88 .cfa: sp 32 +
STACK CFI 2ca90 .cfa: sp 0 +
STACK CFI 2ca94 .cfa: x29 32 +
STACK CFI 2caa8 .cfa: sp 32 +
STACK CFI 2cab0 .cfa: sp 0 +
STACK CFI INIT 2d170 8c .cfa: sp 0 +
STACK CFI 2d174 .cfa: sp 32 +
STACK CFI 2d17c .cfa: x29 32 + x19: .cfa -8 + ^ x20: .cfa -16 + ^ .ra: .cfa -24 + ^ x29: .cfa -32 + ^
STACK CFI 2d1f0 .cfa: sp 32 +
STACK CFI 2d1f8 .cfa: sp 0 +
STACK CFI INIT 2d1fc 14 .cfa: sp 0 +
STACK CFI 2d200 .cfa: sp 16 +
STACK CFI 2d204 .cfa: x29 16 + .ra: .cfa -8 + ^ x29: .cfa -16 + ^
STACK CFI INIT 2d210 14 .cfa: sp 0 +
STACK CFI 2d214 .cfa: sp 16 +
STACK CFI 2d218 .cfa: x29 16 + .ra: .cfa -8 + ^ x29: .cfa -16 + ^
STACK CFI INIT 2d224 c .cfa: sp 0 +
STACK CFI 2d228 .cfa: sp 16 +
STACK CFI 2d22c .cfa: x29 16 + .ra: .cfa -8 + ^ x29: .cfa -16 + ^
STACK CFI INIT 2d280 30 .cfa: sp 0 +
STACK CFI 2d284 .cfa: sp 32 +
STACK CFI 2d28c .cfa: x29 32 + x19: .cfa -16 + ^ .ra: .cfa -24 + ^ x29: .cfa -32 + ^
STACK CFI 2d2a4 .cfa: sp 32 +
STACK CFI 2d2ac .cfa: sp 0 +
STACK CFI INIT 2d2b0 c .cfa: sp 0 +
STACK CFI 2d2b4 .cfa: sp 16 +
STACK CFI 2d2b8 .cfa: x29 16 + .ra: .cfa -8 + ^ x29: .cfa -16 + ^
STACK CFI INIT 2d2bc 8c .cfa: sp 0 +
STACK CFI 2d2c0 .cfa: sp 32 +
STACK CFI 2d2c8 .cfa: x29 32 + x19: .cfa -8 + ^ x20: .cfa -16 + ^ .ra: .cfa -24 + ^ x29: .cfa -32 + ^
STACK CFI 2d33c .cfa: sp 32 +
STACK CFI 2d344 .cfa: sp 0 +
STACK CFI INIT 2d348 4 .cfa: sp 0 +
STACK CFI INIT 2d4f8 94 .cfa: sp 0 +
STACK CFI 2d4fc .cfa: sp 32 +
STACK CFI 2d504 .cfa: x29 32 + x19: .cfa -8 + ^ x20: .cfa -16 + ^ .ra: .cfa -24 + ^ x29: .cfa -32 + ^
STACK CFI 2d580 .cfa: sp 32 +
STACK CFI 2d588 .cfa: sp 0 +
STACK CFI INIT 2d58c 34 .cfa: sp 0 +
STACK CFI 2d590 .cfa: sp 16 +
STACK CFI 2d594 .cfa: x29 16 + .ra: .cfa -8 + ^ x29: .cfa -16 + ^
STACK CFI INIT 2d5c0 24 .cfa: sp 0 +
STACK CFI 2d5c4 .cfa: sp 32 +
STACK CFI 2d5cc .cfa: x29 32 + x19: .cfa -16 + ^ .ra: .cfa -24 + ^ x29: .cfa -32 + ^
STACK CFI 2d5d8 .cfa: sp 32 +
STACK CFI 2d5e0 .cfa: sp 0 +
STACK CFI INIT 2d5e4 4 .cfa: sp 0 +
STACK CFI INIT 2d5e8 4 .cfa: sp 0 +
STACK CFI INIT 2d5ec 38 .cfa: sp 0 +
STACK CFI 2d5f0 .cfa: sp 32 +
STACK CFI 2d5f8 .cfa: x29 32 + x19: .cfa -16 + ^ .ra: .cfa -24 + ^ x29: .cfa -32 + ^
STACK CFI 2d618 .cfa: sp 32 +
STACK CFI 2d620 .cfa: sp 0 +
STACK CFI INIT 2d624 18 .cfa: sp 0 +
STACK CFI INIT 2d63c 4 .cfa: sp 0 +
STACK CFI INIT 2d640 4 .cfa: sp 0 +
STACK CFI INIT 2d644 10 .cfa: sp 0 +
STACK CFI INIT 2d654 1c .cfa: sp 0 +
STACK CFI INIT 2d670 c .cfa: sp 0 +
STACK CFI INIT 2d898 50 .cfa: sp 0 +
STACK CFI 2d89c .cfa: sp 32 +
STACK CFI 2d8a4 .cfa: x29 32 + x19: .cfa -16 + ^ .ra: .cfa -24 + ^ x29: .cfa -32 + ^
STACK CFI 2d8bc .cfa: sp 32 +
STACK CFI 2d8c4 .cfa: sp 0 +
STACK CFI 2d8c8 .cfa: x29 32 +
STACK CFI 2d8dc .cfa: sp 32 +
STACK CFI 2d8e4 .cfa: sp 0 +
STACK CFI INIT 2d8e8 50 .cfa: sp 0 +
STACK CFI 2d8ec .cfa: sp 32 +
STACK CFI 2d8f4 .cfa: x29 32 + x19: .cfa -16 + ^ .ra: .cfa -24 + ^ x29: .cfa -32 + ^
STACK CFI 2d90c .cfa: sp 32 +
STACK CFI 2d914 .cfa: sp 0 +
STACK CFI 2d918 .cfa: x29 32 +
STACK CFI 2d92c .cfa: sp 32 +
STACK CFI 2d934 .cfa: sp 0 +
STACK CFI INIT 2d938 5c .cfa: sp 0 +
STACK CFI 2d93c .cfa: sp 32 +
STACK CFI 2d944 .cfa: x29 32 + x19: .cfa -16 + ^ .ra: .cfa -24 + ^ x29: .cfa -32 + ^
STACK CFI 2d968 .cfa: sp 32 +
STACK CFI 2d970 .cfa: sp 0 +
STACK CFI 2d974 .cfa: x29 32 +
STACK CFI 2d988 .cfa: sp 32 +
STACK CFI 2d990 .cfa: sp 0 +
STACK CFI INIT 2d994 5c .cfa: sp 0 +
STACK CFI 2d998 .cfa: sp 32 +
STACK CFI 2d9a0 .cfa: x29 32 + x19: .cfa -8 + ^ x20: .cfa -16 + ^ .ra: .cfa -24 + ^ x29: .cfa -32 + ^
STACK CFI 2d9e4 .cfa: sp 32 +
STACK CFI 2d9ec .cfa: sp 0 +
STACK CFI INIT 2d9f0 58 .cfa: sp 0 +
STACK CFI 2d9f4 .cfa: sp 32 +
STACK CFI 2d9fc .cfa: x29 32 + x19: .cfa -8 + ^ x20: .cfa -16 + ^ .ra: .cfa -24 + ^ x29: .cfa -32 + ^
STACK CFI 2da3c .cfa: sp 32 +
STACK CFI 2da44 .cfa: sp 0 +
STACK CFI INIT 2da48 4c .cfa: sp 0 +
STACK CFI 2da4c .cfa: sp 32 +
STACK CFI 2da54 .cfa: x29 32 + x19: .cfa -8 + ^ x20: .cfa -16 + ^ .ra: .cfa -24 + ^ x29: .cfa -32 + ^
STACK CFI 2da88 .cfa: sp 32 +
STACK CFI 2da90 .cfa: sp 0 +
STACK CFI INIT 2da94 50 .cfa: sp 0 +
STACK CFI 2da98 .cfa: sp 32 +
STACK CFI 2daa0 .cfa: x29 32 + x19: .cfa -16 + ^ .ra: .cfa -24 + ^ x29: .cfa -32 + ^
STACK CFI 2dab8 .cfa: sp 32 +
STACK CFI 2dac0 .cfa: sp 0 +
STACK CFI 2dac4 .cfa: x29 32 +
STACK CFI 2dad8 .cfa: sp 32 +
STACK CFI 2dae0 .cfa: sp 0 +
STACK CFI INIT 2dae4 50 .cfa: sp 0 +
STACK CFI 2dae8 .cfa: sp 32 +
STACK CFI 2daf0 .cfa: x29 32 + x19: .cfa -8 + ^ x20: .cfa -16 + ^ .ra: .cfa -24 + ^ x29: .cfa -32 + ^
STACK CFI 2db28 .cfa: sp 32 +
STACK CFI 2db30 .cfa: sp 0 +
STACK CFI INIT 2dccc 1c .cfa: sp 0 +
STACK CFI INIT 2dce8 c .cfa: sp 0 +
STACK CFI INIT 2dcf4 50 .cfa: sp 0 +
STACK CFI 2dcf8 .cfa: sp 32 +
STACK CFI 2dd00 .cfa: x29 32 + x19: .cfa -8 + ^ x20: .cfa -16 + ^ .ra: .cfa -24 + ^ x29: .cfa -32 + ^
STACK CFI 2dd38 .cfa: sp 32 +
STACK CFI 2dd40 .cfa: sp 0 +
STACK CFI INIT 2dd44 58 .cfa: sp 0 +
STACK CFI 2dd48 .cfa: sp 32 +
STACK CFI 2dd50 .cfa: x29 32 + x19: .cfa -8 + ^ x20: .cfa -16 + ^ .ra: .cfa -24 + ^ x29: .cfa -32 + ^
STACK CFI 2dd90 .cfa: sp 32 +
STACK CFI 2dd98 .cfa: sp 0 +
STACK CFI INIT 2dd9c 5c .cfa: sp 0 +
STACK CFI 2dda0 .cfa: sp 32 +
STACK CFI 2dda8 .cfa: x29 32 + x19: .cfa -16 + ^ .ra: .cfa -24 + ^ x29: .cfa -32 + ^
STACK CFI 2ddcc .cfa: sp 32 +
STACK CFI 2ddd4 .cfa: sp 0 +
STACK CFI 2ddd8 .cfa: x29 32 +
STACK CFI 2ddec .cfa: sp 32 +
STACK CFI 2ddf4 .cfa: sp 0 +
STACK CFI INIT 2ddf8 5c .cfa: sp 0 +
STACK CFI 2ddfc .cfa: sp 32 +
STACK CFI 2de04 .cfa: x29 32 + x19: .cfa -8 + ^ x20: .cfa -16 + ^ .ra: .cfa -24 + ^ x29: .cfa -32 + ^
STACK CFI 2de48 .cfa: sp 32 +
STACK CFI 2de50 .cfa: sp 0 +
STACK CFI INIT 2de54 58 .cfa: sp 0 +
STACK CFI 2de58 .cfa: sp 32 +
STACK CFI 2de60 .cfa: x29 32 + x19: .cfa -8 + ^ x20: .cfa -16 + ^ .ra: .cfa -24 + ^ x29: .cfa -32 + ^
STACK CFI 2dea0 .cfa: sp 32 +
STACK CFI 2dea8 .cfa: sp 0 +
STACK CFI INIT 2deac 4c .cfa: sp 0 +
STACK CFI 2deb0 .cfa: sp 32 +
STACK CFI 2deb8 .cfa: x29 32 + x19: .cfa -8 + ^ x20: .cfa -16 + ^ .ra: .cfa -24 + ^ x29: .cfa -32 + ^
STACK CFI 2deec .cfa: sp 32 +
STACK CFI 2def4 .cfa: sp 0 +
STACK CFI INIT 2def8 50 .cfa: sp 0 +
STACK CFI 2defc .cfa: sp 32 +
STACK CFI 2df04 .cfa: x29 32 + x19: .cfa -16 + ^ .ra: .cfa -24 + ^ x29: .cfa -32 + ^
STACK CFI 2df1c .cfa: sp 32 +
STACK CFI 2df24 .cfa: sp 0 +
STACK CFI 2df28 .cfa: x29 32 +
STACK CFI 2df3c .cfa: sp 32 +
STACK CFI 2df44 .cfa: sp 0 +
STACK CFI INIT 2df48 50 .cfa: sp 0 +
STACK CFI 2df4c .cfa: sp 32 +
STACK CFI 2df54 .cfa: x29 32 + x19: .cfa -8 + ^ x20: .cfa -16 + ^ .ra: .cfa -24 + ^ x29: .cfa -32 + ^
STACK CFI 2df8c .cfa: sp 32 +
STACK CFI 2df94 .cfa: sp 0 +
STACK CFI INIT 2e120 1c .cfa: sp 0 +
STACK CFI INIT 2e13c c .cfa: sp 0 +
STACK CFI INIT 2e2b0 4 .cfa: sp 0 +
STACK CFI INIT 2e2b4 40 .cfa: sp 0 +
STACK CFI 2e2b8 .cfa: sp 32 +
STACK CFI 2e2c0 .cfa: x29 32 + x19: .cfa -16 + ^ .ra: .cfa -24 + ^ x29: .cfa -32 + ^
STACK CFI 2e2e8 .cfa: sp 32 +
STACK CFI 2e2f0 .cfa: sp 0 +
STACK CFI INIT 2e2f4 20 .cfa: sp 0 +
STACK CFI INIT 2e314 4 .cfa: sp 0 +
STACK CFI INIT 2e318 4 .cfa: sp 0 +
STACK CFI INIT 2ea0c 1c .cfa: sp 0 +
STACK CFI INIT 2ea28 c .cfa: sp 0 +
STACK CFI INIT 2eaa8 8 .cfa: sp 0 +
STACK CFI INIT 2eab0 14 .cfa: sp 0 +
STACK CFI INIT 2eac4 14 .cfa: sp 0 +
STACK CFI INIT 2ead8 c0 .cfa: sp 0 +
STACK CFI 2eadc .cfa: sp 32 +
STACK CFI 2eae4 .cfa: x29 32 + x19: .cfa -8 + ^ x20: .cfa -16 + ^ .ra: .cfa -24 + ^ x29: .cfa -32 + ^
STACK CFI 2eb8c .cfa: sp 32 +
STACK CFI 2eb94 .cfa: sp 0 +
STACK CFI INIT 2eb98 c8 .cfa: sp 0 +
STACK CFI 2eb9c .cfa: sp 32 +
STACK CFI 2eba4 .cfa: x29 32 + x19: .cfa -8 + ^ x20: .cfa -16 + ^ .ra: .cfa -24 + ^ x29: .cfa -32 + ^
STACK CFI 2ec54 .cfa: sp 32 +
STACK CFI 2ec5c .cfa: sp 0 +
STACK CFI INIT 2f550 14 .cfa: sp 0 +
STACK CFI 2f554 .cfa: sp 16 +
STACK CFI 2f558 .cfa: x29 16 + .ra: .cfa -8 + ^ x29: .cfa -16 + ^
STACK CFI 2f55c .cfa: sp 16 +
STACK CFI 2f560 .cfa: sp 0 +
STACK CFI INIT 2f564 d0 .cfa: sp 0 +
STACK CFI 2f568 .cfa: sp 48 +
STACK CFI 2f574 .cfa: x29 48 + x19: .cfa -8 + ^ x20: .cfa -16 + ^ x21: .cfa -24 + ^ x22: .cfa -32 + ^ .ra: .cfa -40 + ^ x29: .cfa -48 + ^
STACK CFI 2f624 .cfa: sp 48 +
STACK CFI 2f630 .cfa: sp 0 +
STACK CFI INIT 2f634 d8 .cfa: sp 0 +
STACK CFI 2f638 .cfa: sp 48 +
STACK CFI 2f644 .cfa: x29 48 + x19: .cfa -8 + ^ x20: .cfa -16 + ^ x21: .cfa -24 + ^ x22: .cfa -32 + ^ .ra: .cfa -40 + ^ x29: .cfa -48 + ^
STACK CFI 2f6fc .cfa: sp 48 +
STACK CFI 2f708 .cfa: sp 0 +
STACK CFI INIT 2f70c 50 .cfa: sp 0 +
STACK CFI 2f710 .cfa: sp 32 +
STACK CFI 2f718 .cfa: x29 32 + x19: .cfa -16 + ^ .ra: .cfa -24 + ^ x29: .cfa -32 + ^
STACK CFI 2f750 .cfa: sp 32 +
STACK CFI 2f758 .cfa: sp 0 +
STACK CFI INIT 30038 4 .cfa: sp 0 +
STACK CFI INIT 3003c 4 .cfa: sp 0 +
STACK CFI INIT 30040 34 .cfa: sp 0 +
STACK CFI 30044 .cfa: sp 32 +
STACK CFI 3004c .cfa: x29 32 + x19: .cfa -16 + ^ .ra: .cfa -24 + ^ x29: .cfa -32 + ^
STACK CFI 30068 .cfa: sp 32 +
STACK CFI 30070 .cfa: sp 0 +
STACK CFI INIT 30074 14 .cfa: sp 0 +
STACK CFI INIT 30088 4 .cfa: sp 0 +
STACK CFI INIT 3008c 4 .cfa: sp 0 +
STACK CFI INIT 303cc 1c .cfa: sp 0 +
STACK CFI INIT 303e8 c .cfa: sp 0 +
STACK CFI INIT 303f4 4 .cfa: sp 0 +
STACK CFI INIT 303f8 34 .cfa: sp 0 +
STACK CFI 303fc .cfa: sp 32 +
STACK CFI 30404 .cfa: x29 32 + x19: .cfa -16 + ^ .ra: .cfa -24 + ^ x29: .cfa -32 + ^
STACK CFI 30420 .cfa: sp 32 +
STACK CFI 30428 .cfa: sp 0 +
STACK CFI INIT 3042c 14 .cfa: sp 0 +
STACK CFI INIT 30440 4 .cfa: sp 0 +
STACK CFI INIT 30444 4 .cfa: sp 0 +
STACK CFI INIT 30448 50 .cfa: sp 0 +
STACK CFI 3044c .cfa: sp 32 +
STACK CFI 30454 .cfa: x29 32 + x19: .cfa -16 + ^ .ra: .cfa -24 + ^ x29: .cfa -32 + ^
STACK CFI 3048c .cfa: sp 32 +
STACK CFI 30494 .cfa: sp 0 +
STACK CFI INIT 30498 1c .cfa: sp 0 +
STACK CFI INIT 304b4 c .cfa: sp 0 +
STACK CFI INIT 304c0 c0 .cfa: sp 0 +
STACK CFI 304c4 .cfa: sp 32 +
STACK CFI 304cc .cfa: x29 32 + x19: .cfa -8 + ^ x20: .cfa -16 + ^ .ra: .cfa -24 + ^ x29: .cfa -32 + ^
STACK CFI 30574 .cfa: sp 32 +
STACK CFI 3057c .cfa: sp 0 +
STACK CFI INIT 30580 c8 .cfa: sp 0 +
STACK CFI 30584 .cfa: sp 32 +
STACK CFI 3058c .cfa: x29 32 + x19: .cfa -8 + ^ x20: .cfa -16 + ^ .ra: .cfa -24 + ^ x29: .cfa -32 + ^
STACK CFI 3063c .cfa: sp 32 +
STACK CFI 30644 .cfa: sp 0 +
STACK CFI INIT 30e2c 14 .cfa: sp 0 +
STACK CFI 30e30 .cfa: sp 16 +
STACK CFI 30e34 .cfa: x29 16 + .ra: .cfa -8 + ^ x29: .cfa -16 + ^
STACK CFI 30e38 .cfa: sp 16 +
STACK CFI 30e3c .cfa: sp 0 +
STACK CFI INIT 30e40 d0 .cfa: sp 0 +
STACK CFI 30e44 .cfa: sp 48 +
STACK CFI 30e50 .cfa: x29 48 + x19: .cfa -8 + ^ x20: .cfa -16 + ^ x21: .cfa -24 + ^ x22: .cfa -32 + ^ .ra: .cfa -40 + ^ x29: .cfa -48 + ^
STACK CFI 30f00 .cfa: sp 48 +
STACK CFI 30f0c .cfa: sp 0 +
STACK CFI INIT 30f10 d8 .cfa: sp 0 +
STACK CFI 30f14 .cfa: sp 48 +
STACK CFI 30f20 .cfa: x29 48 + x19: .cfa -8 + ^ x20: .cfa -16 + ^ x21: .cfa -24 + ^ x22: .cfa -32 + ^ .ra: .cfa -40 + ^ x29: .cfa -48 + ^
STACK CFI 30fd8 .cfa: sp 48 +
STACK CFI 30fe4 .cfa: sp 0 +
STACK CFI INIT 310a0 30 .cfa: sp 0 +
STACK CFI 310a4 .cfa: sp 32 +
STACK CFI 310ac .cfa: x29 32 + x19: .cfa -16 + ^ .ra: .cfa -24 + ^ x29: .cfa -32 + ^
STACK CFI 310c4 .cfa: sp 32 +
STACK CFI 310cc .cfa: sp 0 +
STACK CFI INIT 310d0 30 .cfa: sp 0 +
STACK CFI 310d4 .cfa: sp 32 +
STACK CFI 310dc .cfa: x29 32 + x19: .cfa -16 + ^ .ra: .cfa -24 + ^ x29: .cfa -32 + ^
STACK CFI 310f4 .cfa: sp 32 +
STACK CFI 310fc .cfa: sp 0 +
STACK CFI INIT 31100 4c .cfa: sp 0 +
STACK CFI 31104 .cfa: sp 32 +
STACK CFI 3110c .cfa: x29 32 + x19: .cfa -8 + ^ x20: .cfa -16 + ^ .ra: .cfa -24 + ^ x29: .cfa -32 + ^
STACK CFI 31134 .cfa: sp 32 +
STACK CFI 3113c .cfa: sp 0 +
STACK CFI 31140 .cfa: sp 32 +
STACK CFI 31148 .cfa: sp 0 +
STACK CFI INIT 3136c 64 .cfa: sp 0 +
STACK CFI 31370 .cfa: sp 32 +
STACK CFI 31378 .cfa: x29 32 + x19: .cfa -16 + ^ .ra: .cfa -24 + ^ x29: .cfa -32 + ^
STACK CFI 313a4 .cfa: sp 32 +
STACK CFI 313ac .cfa: sp 0 +
STACK CFI 313b0 .cfa: x29 32 +
STACK CFI 313c4 .cfa: sp 32 +
STACK CFI 313cc .cfa: sp 0 +
STACK CFI INIT 313d0 24 .cfa: sp 0 +
STACK CFI 313d4 .cfa: sp 32 +
STACK CFI 313dc .cfa: x29 32 + x19: .cfa -16 + ^ .ra: .cfa -24 + ^ x29: .cfa -32 + ^
STACK CFI 313e8 .cfa: sp 32 +
STACK CFI 313f0 .cfa: sp 0 +
STACK CFI INIT 313f4 24 .cfa: sp 0 +
STACK CFI 313f8 .cfa: sp 32 +
STACK CFI 31400 .cfa: x29 32 + x19: .cfa -16 + ^ .ra: .cfa -24 + ^ x29: .cfa -32 + ^
STACK CFI 3140c .cfa: sp 32 +
STACK CFI 31414 .cfa: sp 0 +
STACK CFI INIT 31684 24 .cfa: sp 0 +
STACK CFI 31688 .cfa: sp 32 +
STACK CFI 31690 .cfa: x29 32 + x19: .cfa -16 + ^ .ra: .cfa -24 + ^ x29: .cfa -32 + ^
STACK CFI 3169c .cfa: sp 32 +
STACK CFI 316a4 .cfa: sp 0 +
STACK CFI INIT 31920 24 .cfa: sp 0 +
STACK CFI 31924 .cfa: sp 32 +
STACK CFI 3192c .cfa: x29 32 + x19: .cfa -16 + ^ .ra: .cfa -24 + ^ x29: .cfa -32 + ^
STACK CFI 31938 .cfa: sp 32 +
STACK CFI 31940 .cfa: sp 0 +
STACK CFI INIT 31dfc 8 .cfa: sp 0 +
STACK CFI INIT 31e04 24 .cfa: sp 0 +
STACK CFI 31e08 .cfa: sp 32 +
STACK CFI 31e10 .cfa: x29 32 + x19: .cfa -16 + ^ .ra: .cfa -24 + ^ x29: .cfa -32 + ^
STACK CFI 31e1c .cfa: sp 32 +
STACK CFI 31e24 .cfa: sp 0 +
STACK CFI INIT 31e28 28 .cfa: sp 0 +
STACK CFI 31e2c .cfa: sp 32 +
STACK CFI 31e34 .cfa: x29 32 + x19: .cfa -16 + ^ .ra: .cfa -24 + ^ x29: .cfa -32 + ^
STACK CFI 31e44 .cfa: sp 32 +
STACK CFI 31e4c .cfa: sp 0 +
STACK CFI INIT 320c8 24 .cfa: sp 0 +
STACK CFI 320cc .cfa: sp 32 +
STACK CFI 320d4 .cfa: x29 32 + x19: .cfa -16 + ^ .ra: .cfa -24 + ^ x29: .cfa -32 + ^
STACK CFI 320e0 .cfa: sp 32 +
STACK CFI 320e8 .cfa: sp 0 +
STACK CFI INIT 32ce8 4 .cfa: sp 0 +
STACK CFI INIT 338a4 4 .cfa: sp 0 +
STACK CFI INIT 338a8 14 .cfa: sp 0 +
STACK CFI INIT 33cf8 14 .cfa: sp 0 +
STACK CFI 33cfc .cfa: sp 16 +
STACK CFI 33d00 .cfa: x29 16 + .ra: .cfa -8 + ^ x29: .cfa -16 + ^
STACK CFI INIT 1cff0 400 .cfa: sp 0 +
STACK CFI 1cff4 .cfa: sp 224 +
STACK CFI 1d010 .cfa: x29 96 + x19: .cfa -8 + ^ x20: .cfa -16 + ^ x21: .cfa -24 + ^ x22: .cfa -32 + ^ x23: .cfa -40 + ^ x24: .cfa -48 + ^ x25: .cfa -56 + ^ x26: .cfa -64 + ^ x27: .cfa -72 + ^ x28: .cfa -80 + ^ .ra: .cfa -88 + ^ x29: .cfa -96 + ^
STACK CFI 1d2e8 .cfa: sp 224 +
STACK CFI 1d304 .cfa: sp 0 +
STACK CFI 1d308 .cfa: x29 96 +
STACK CFI INIT 1d40c 788 .cfa: sp 0 +
STACK CFI 1d410 .cfa: sp 288 +
STACK CFI 1d42c .cfa: x29 96 + x19: .cfa -8 + ^ x20: .cfa -16 + ^ x21: .cfa -24 + ^ x22: .cfa -32 + ^ x23: .cfa -40 + ^ x24: .cfa -48 + ^ x25: .cfa -56 + ^ x26: .cfa -64 + ^ x27: .cfa -72 + ^ x28: .cfa -80 + ^ .ra: .cfa -88 + ^ x29: .cfa -96 + ^
STACK CFI 1d9b0 .cfa: sp 288 +
STACK CFI 1d9cc .cfa: sp 0 +
STACK CFI 1d9d0 .cfa: x29 96 +
STACK CFI INIT 1dbe4 74 .cfa: sp 0 +
STACK CFI 1dbe8 .cfa: sp 48 +
STACK CFI 1dbf4 .cfa: x29 32 + x19: .cfa -8 + ^ x20: .cfa -16 + ^ .ra: .cfa -24 + ^ x29: .cfa -32 + ^
STACK CFI 1dc40 .cfa: sp 48 +
STACK CFI 1dc4c .cfa: sp 0 +
STACK CFI 1dc50 .cfa: x29 32 +
STACK CFI INIT 1dce8 154 .cfa: sp 0 +
STACK CFI 1dcec .cfa: sp 384 +
STACK CFI 1dd00 .cfa: x29 64 + x19: .cfa -8 + ^ x20: .cfa -16 + ^ x21: .cfa -24 + ^ x22: .cfa -32 + ^ x23: .cfa -40 + ^ x28: .cfa -48 + ^ .ra: .cfa -56 + ^ x29: .cfa -64 + ^
STACK CFI 1dde4 .cfa: sp 384 +
STACK CFI 1ddf8 .cfa: sp 0 +
STACK CFI 1ddfc .cfa: x29 64 +
STACK CFI INIT 1de70 124 .cfa: sp 0 +
STACK CFI 1de74 .cfa: sp 80 +
STACK CFI 1de88 .cfa: x29 80 + x19: .cfa -8 + ^ x20: .cfa -16 + ^ x21: .cfa -24 + ^ x22: .cfa -32 + ^ x23: .cfa -40 + ^ x24: .cfa -48 + ^ x25: .cfa -56 + ^ x26: .cfa -64 + ^ .ra: .cfa -72 + ^ x29: .cfa -80 + ^
STACK CFI 1df54 .cfa: sp 80 +
STACK CFI 1df68 .cfa: sp 0 +
STACK CFI 1df6c .cfa: x29 80 +
STACK CFI INIT 1e038 198 .cfa: sp 0 +
STACK CFI 1e03c .cfa: sp 112 +
STACK CFI 1e054 .cfa: x29 80 + x19: .cfa -8 + ^ x20: .cfa -16 + ^ x21: .cfa -24 + ^ x22: .cfa -32 + ^ x23: .cfa -40 + ^ x24: .cfa -48 + ^ x25: .cfa -56 + ^ x26: .cfa -64 + ^ .ra: .cfa -72 + ^ x29: .cfa -80 + ^
STACK CFI 1e144 .cfa: sp 112 +
STACK CFI 1e15c .cfa: sp 0 +
STACK CFI 1e160 .cfa: x29 80 +
STACK CFI INIT 1e1d0 1b4 .cfa: sp 0 +
STACK CFI 1e1d4 .cfa: sp 128 +
STACK CFI 1e1f0 .cfa: x29 96 + x19: .cfa -8 + ^ x20: .cfa -16 + ^ x21: .cfa -24 + ^ x22: .cfa -32 + ^ x23: .cfa -40 + ^ x24: .cfa -48 + ^ x25: .cfa -56 + ^ x26: .cfa -64 + ^ x27: .cfa -80 + ^ .ra: .cfa -88 + ^ x29: .cfa -96 + ^
STACK CFI 1e334 .cfa: sp 128 +
STACK CFI 1e350 .cfa: sp 0 +
STACK CFI 1e354 .cfa: x29 96 +
STACK CFI INIT 1e398 50 .cfa: sp 0 +
STACK CFI 1e39c .cfa: sp 32 +
STACK CFI 1e3a4 .cfa: x29 32 + x19: .cfa -8 + ^ x20: .cfa -16 + ^ .ra: .cfa -24 + ^ x29: .cfa -32 + ^
STACK CFI INIT 1e44c 15c .cfa: sp 0 +
STACK CFI 1e450 .cfa: sp 80 +
STACK CFI 1e464 .cfa: x29 80 + x19: .cfa -8 + ^ x20: .cfa -16 + ^ x21: .cfa -24 + ^ x22: .cfa -32 + ^ x23: .cfa -40 + ^ x24: .cfa -48 + ^ x25: .cfa -64 + ^ .ra: .cfa -72 + ^ x29: .cfa -80 + ^
STACK CFI 1e574 .cfa: sp 80 +
STACK CFI 1e588 .cfa: sp 0 +
STACK CFI 1e58c .cfa: x29 80 +
STACK CFI INIT 1e6f0 21c .cfa: sp 0 +
STACK CFI 1e6f4 .cfa: sp 128 +
STACK CFI 1e70c .cfa: x29 80 + x19: .cfa -8 + ^ x20: .cfa -16 + ^ x21: .cfa -24 + ^ x22: .cfa -32 + ^ x23: .cfa -40 + ^ x24: .cfa -48 + ^ x25: .cfa -64 + ^ .ra: .cfa -72 + ^ x29: .cfa -80 + ^
STACK CFI 1e89c .cfa: sp 128 +
STACK CFI 1e8b4 .cfa: sp 0 +
STACK CFI 1e8b8 .cfa: x29 80 +
STACK CFI INIT 1f1a0 134 .cfa: sp 0 +
STACK CFI 1f1a4 .cfa: sp 80 +
STACK CFI 1f1b4 .cfa: x29 48 + x19: .cfa -8 + ^ x20: .cfa -16 + ^ x21: .cfa -24 + ^ x22: .cfa -32 + ^ .ra: .cfa -40 + ^ x29: .cfa -48 + ^
STACK CFI 1f2b8 .cfa: sp 80 +
STACK CFI 1f2c8 .cfa: sp 0 +
STACK CFI 1f2cc .cfa: x29 48 +
STACK CFI INIT 1f658 444 .cfa: sp 0 +
STACK CFI 1f65c .cfa: sp 224 +
STACK CFI 1f678 .cfa: x29 96 + x19: .cfa -8 + ^ x20: .cfa -16 + ^ x21: .cfa -24 + ^ x22: .cfa -32 + ^ x23: .cfa -40 + ^ x24: .cfa -48 + ^ x25: .cfa -56 + ^ x26: .cfa -64 + ^ x27: .cfa -80 + ^ .ra: .cfa -88 + ^ x29: .cfa -96 + ^
STACK CFI 1f8a8 .cfa: sp 224 +
STACK CFI 1f8c4 .cfa: sp 0 +
STACK CFI 1f8c8 .cfa: x29 96 +
STACK CFI 1f994 .cfa: sp 224 +
STACK CFI 1f9b0 .cfa: sp 0 +
STACK CFI 1f9b4 .cfa: x29 96 +
STACK CFI INIT 1fab8 3c0 .cfa: sp 0 +
STACK CFI 1fabc .cfa: sp 208 +
STACK CFI 1fad0 .cfa: x29 64 + x19: .cfa -8 + ^ x20: .cfa -16 + ^ x21: .cfa -24 + ^ x22: .cfa -32 + ^ x23: .cfa -48 + ^ .ra: .cfa -56 + ^ x29: .cfa -64 + ^
STACK CFI 1fd58 .cfa: sp 208 +
STACK CFI 1fd6c .cfa: sp 0 +
STACK CFI 1fd70 .cfa: x29 64 +
STACK CFI INIT 1fe7c 1c0 .cfa: sp 0 +
STACK CFI 1fe80 .cfa: sp 128 +
STACK CFI 1fe8c .cfa: x29 32 + x19: .cfa -8 + ^ x20: .cfa -16 + ^ .ra: .cfa -24 + ^ x29: .cfa -32 + ^
STACK CFI 1ffcc .cfa: sp 128 +
STACK CFI 1ffd8 .cfa: sp 0 +
STACK CFI 1ffdc .cfa: x29 32 +
STACK CFI INIT 2003c 184 .cfa: sp 0 +
STACK CFI 20040 .cfa: sp 160 +
STACK CFI 20050 .cfa: x29 48 + x19: .cfa -8 + ^ x20: .cfa -16 + ^ x21: .cfa -32 + ^ .ra: .cfa -40 + ^ x29: .cfa -48 + ^
STACK CFI 20160 .cfa: sp 160 +
STACK CFI 20170 .cfa: sp 0 +
STACK CFI 20174 .cfa: x29 48 +
STACK CFI INIT 201c0 74 .cfa: sp 0 +
STACK CFI 201c4 .cfa: sp 48 +
STACK CFI 201d0 .cfa: x29 32 + x19: .cfa -8 + ^ x20: .cfa -16 + ^ .ra: .cfa -24 + ^ x29: .cfa -32 + ^
STACK CFI 2021c .cfa: sp 48 +
STACK CFI 20228 .cfa: sp 0 +
STACK CFI 2022c .cfa: x29 32 +
STACK CFI INIT 202a8 ec .cfa: sp 0 +
STACK CFI 202ac .cfa: sp 64 +
STACK CFI 202bc .cfa: x29 48 + x19: .cfa -8 + ^ x20: .cfa -16 + ^ x21: .cfa -32 + ^ .ra: .cfa -40 + ^ x29: .cfa -48 + ^
STACK CFI 20358 .cfa: sp 64 +
STACK CFI 20368 .cfa: sp 0 +
STACK CFI 2036c .cfa: x29 48 +
STACK CFI INIT 26000 674 .cfa: sp 0 +
STACK CFI 26004 .cfa: sp 144 +
STACK CFI 2601c .cfa: x29 80 + x19: .cfa -8 + ^ x20: .cfa -16 + ^ x21: .cfa -24 + ^ x22: .cfa -32 + ^ x23: .cfa -40 + ^ x24: .cfa -48 + ^ x25: .cfa -56 + ^ x26: .cfa -64 + ^ .ra: .cfa -72 + ^ x29: .cfa -80 + ^
STACK CFI 2660c .cfa: sp 144 +
STACK CFI 26624 .cfa: sp 0 +
STACK CFI 26628 .cfa: x29 80 +
STACK CFI INIT 26764 748 .cfa: sp 0 +
STACK CFI 26768 .cfa: sp 96 +
STACK CFI 26780 .cfa: x29 96 + x19: .cfa -8 + ^ x20: .cfa -16 + ^ x21: .cfa -24 + ^ x22: .cfa -32 + ^ x23: .cfa -40 + ^ x24: .cfa -48 + ^ x25: .cfa -56 + ^ x26: .cfa -64 + ^ x27: .cfa -72 + ^ x28: .cfa -80 + ^ .ra: .cfa -88 + ^ x29: .cfa -96 + ^
STACK CFI 26e4c .cfa: sp 96 +
STACK CFI 26e64 .cfa: sp 0 +
STACK CFI 26e68 .cfa: x29 96 +
STACK CFI INIT 29f9c 108 .cfa: sp 0 +
STACK CFI 29fa0 .cfa: sp 48 +
STACK CFI 29fac .cfa: x29 48 + x19: .cfa -8 + ^ x20: .cfa -16 + ^ x21: .cfa -32 + ^ .ra: .cfa -40 + ^ x29: .cfa -48 + ^
STACK CFI 2a090 .cfa: sp 48 +
STACK CFI 2a09c .cfa: sp 0 +
STACK CFI 2a0a0 .cfa: x29 48 +
STACK CFI INIT 2a2d8 128 .cfa: sp 0 +
STACK CFI 2a2dc .cfa: sp 64 +
STACK CFI 2a2ec .cfa: x29 64 + x19: .cfa -8 + ^ x20: .cfa -16 + ^ x21: .cfa -24 + ^ x22: .cfa -32 + ^ x23: .cfa -48 + ^ .ra: .cfa -56 + ^ x29: .cfa -64 + ^
STACK CFI 2a3c8 .cfa: sp 64 +
STACK CFI 2a3d8 .cfa: sp 0 +
STACK CFI 2a3dc .cfa: x29 64 +
STACK CFI 2a3e8 .cfa: sp 64 +
STACK CFI 2a3f8 .cfa: sp 0 +
STACK CFI 2a3fc .cfa: x29 64 +
STACK CFI INIT 2a400 424 .cfa: sp 0 +
STACK CFI 2a404 .cfa: sp 144 +
STACK CFI 2a424 .cfa: x29 96 + x19: .cfa -8 + ^ x20: .cfa -16 + ^ x21: .cfa -24 + ^ x22: .cfa -32 + ^ x23: .cfa -40 + ^ x24: .cfa -48 + ^ x25: .cfa -56 + ^ x26: .cfa -64 + ^ x27: .cfa -72 + ^ x28: .cfa -80 + ^ .ra: .cfa -88 + ^ x29: .cfa -96 + ^ v8: .cfa -112 + ^
STACK CFI 2a7ac .cfa: sp 144 +
STACK CFI 2a7cc .cfa: sp 0 +
STACK CFI 2a7d0 .cfa: x29 96 +
STACK CFI INIT 2a824 660 .cfa: sp 0 +
STACK CFI 2a828 .cfa: sp 208 +
STACK CFI 2a844 .cfa: x29 96 + x19: .cfa -8 + ^ x20: .cfa -16 + ^ x21: .cfa -24 + ^ x22: .cfa -32 + ^ x23: .cfa -40 + ^ x24: .cfa -48 + ^ x25: .cfa -56 + ^ x26: .cfa -64 + ^ x27: .cfa -80 + ^ .ra: .cfa -88 + ^ x29: .cfa -96 + ^
STACK CFI 2a938 .cfa: sp 208 +
STACK CFI 2a954 .cfa: sp 0 +
STACK CFI 2a958 .cfa: x29 96 +
STACK CFI 2ad34 .cfa: sp 208 +
STACK CFI 2ad50 .cfa: sp 0 +
STACK CFI 2ad54 .cfa: x29 96 +
STACK CFI INIT 2aea0 370 .cfa: sp 0 +
STACK CFI 2aea4 .cfa: sp 192 +
STACK CFI 2aeb8 .cfa: x29 64 + x19: .cfa -8 + ^ x20: .cfa -16 + ^ x21: .cfa -24 + ^ x22: .cfa -32 + ^ x23: .cfa -48 + ^ .ra: .cfa -56 + ^ x29: .cfa -64 + ^
STACK CFI 2b10c .cfa: sp 192 +
STACK CFI 2b120 .cfa: sp 0 +
STACK CFI 2b124 .cfa: x29 64 +
STACK CFI INIT 2b290 168 .cfa: sp 0 +
STACK CFI 2b294 .cfa: sp 384 +
STACK CFI 2b2a8 .cfa: x29 64 + x19: .cfa -8 + ^ x20: .cfa -16 + ^ x21: .cfa -24 + ^ x22: .cfa -32 + ^ x23: .cfa -40 + ^ x28: .cfa -48 + ^ .ra: .cfa -56 + ^ x29: .cfa -64 + ^
STACK CFI 2b3a0 .cfa: sp 384 +
STACK CFI 2b3b4 .cfa: sp 0 +
STACK CFI 2b3b8 .cfa: x29 64 +
STACK CFI INIT 2b410 a8 .cfa: sp 0 +
STACK CFI 2b414 .cfa: sp 32 +
STACK CFI 2b41c .cfa: x29 32 + x19: .cfa -8 + ^ x20: .cfa -16 + ^ .ra: .cfa -24 + ^ x29: .cfa -32 + ^
STACK CFI 2b450 .cfa: sp 32 +
STACK CFI 2b458 .cfa: sp 0 +
STACK CFI 2b45c .cfa: x29 32 +
STACK CFI 2b460 .cfa: sp 32 +
STACK CFI 2b468 .cfa: sp 0 +
STACK CFI 2b46c .cfa: x29 32 +
STACK CFI INIT 2b4b8 c7c .cfa: sp 0 +
STACK CFI 2b4bc .cfa: sp 272 +
STACK CFI 2b4dc .cfa: x29 96 + x19: .cfa -8 + ^ x20: .cfa -16 + ^ x21: .cfa -24 + ^ x22: .cfa -32 + ^ x23: .cfa -40 + ^ x24: .cfa -48 + ^ x25: .cfa -56 + ^ x26: .cfa -64 + ^ x27: .cfa -72 + ^ x28: .cfa -80 + ^ .ra: .cfa -88 + ^ x29: .cfa -96 + ^ v8: .cfa -112 + ^
STACK CFI 2c0b0 .cfa: sp 272 +
STACK CFI 2c0d0 .cfa: sp 0 +
STACK CFI 2c0d4 .cfa: x29 96 +
STACK CFI INIT 2c1f8 470 .cfa: sp 0 +
STACK CFI 2c1fc .cfa: sp 304 +
STACK CFI 2c214 .cfa: x29 80 + x19: .cfa -8 + ^ x20: .cfa -16 + ^ x21: .cfa -24 + ^ x22: .cfa -32 + ^ x23: .cfa -40 + ^ x24: .cfa -48 + ^ x28: .cfa -64 + ^ .ra: .cfa -72 + ^ x29: .cfa -80 + ^
STACK CFI 2c580 .cfa: sp 304 +
STACK CFI 2c598 .cfa: sp 0 +
STACK CFI 2c59c .cfa: x29 80 +
STACK CFI INIT 2c698 1e4 .cfa: sp 0 +
STACK CFI 2c69c .cfa: sp 80 +
STACK CFI 2c6ac .cfa: x29 48 + x19: .cfa -8 + ^ x20: .cfa -16 + ^ x21: .cfa -24 + ^ x22: .cfa -32 + ^ .ra: .cfa -40 + ^ x29: .cfa -48 + ^
STACK CFI 2c7e8 .cfa: sp 80 +
STACK CFI 2c7f8 .cfa: sp 0 +
STACK CFI 2c7fc .cfa: x29 48 +
STACK CFI INIT 2c880 1e4 .cfa: sp 0 +
STACK CFI 2c884 .cfa: sp 80 +
STACK CFI 2c894 .cfa: x29 48 + x19: .cfa -8 + ^ x20: .cfa -16 + ^ x21: .cfa -24 + ^ x22: .cfa -32 + ^ .ra: .cfa -40 + ^ x29: .cfa -48 + ^
STACK CFI 2c9d0 .cfa: sp 80 +
STACK CFI 2c9e0 .cfa: sp 0 +
STACK CFI 2c9e4 .cfa: x29 48 +
STACK CFI INIT 2cab4 6bc .cfa: sp 0 +
STACK CFI 2cab8 .cfa: sp 224 +
STACK CFI 2cad4 .cfa: x29 96 + x19: .cfa -8 + ^ x20: .cfa -16 + ^ x21: .cfa -24 + ^ x22: .cfa -32 + ^ x23: .cfa -40 + ^ x24: .cfa -48 + ^ x25: .cfa -56 + ^ x26: .cfa -64 + ^ x27: .cfa -72 + ^ x28: .cfa -80 + ^ .ra: .cfa -88 + ^ x29: .cfa -96 + ^
STACK CFI 2cfb0 .cfa: sp 224 +
STACK CFI 2cfcc .cfa: sp 0 +
STACK CFI 2cfd0 .cfa: x29 96 +
STACK CFI INIT 2d230 50 .cfa: sp 0 +
STACK CFI 2d234 .cfa: sp 32 +
STACK CFI 2d23c .cfa: x29 32 + x19: .cfa -8 + ^ x20: .cfa -16 + ^ .ra: .cfa -24 + ^ x29: .cfa -32 + ^
STACK CFI INIT 2d34c 1ac .cfa: sp 0 +
STACK CFI 2d350 .cfa: sp 128 +
STACK CFI 2d360 .cfa: x29 48 + x19: .cfa -8 + ^ x20: .cfa -16 + ^ x21: .cfa -32 + ^ .ra: .cfa -40 + ^ x29: .cfa -48 + ^
STACK CFI 2d47c .cfa: sp 128 +
STACK CFI 2d48c .cfa: sp 0 +
STACK CFI 2d490 .cfa: x29 48 +
STACK CFI INIT 2d67c 21c .cfa: sp 0 +
STACK CFI 2d680 .cfa: sp 192 +
STACK CFI 2d694 .cfa: x29 64 + x19: .cfa -8 + ^ x20: .cfa -16 + ^ x21: .cfa -24 + ^ x22: .cfa -32 + ^ x23: .cfa -48 + ^ .ra: .cfa -56 + ^ x29: .cfa -64 + ^
STACK CFI 2d7d4 .cfa: sp 192 +
STACK CFI 2d7e8 .cfa: sp 0 +
STACK CFI 2d7ec .cfa: x29 64 +
STACK CFI INIT 2db34 198 .cfa: sp 0 +
STACK CFI 2db38 .cfa: sp 128 +
STACK CFI 2db4c .cfa: x29 64 + x19: .cfa -8 + ^ x20: .cfa -16 + ^ x21: .cfa -24 + ^ x22: .cfa -32 + ^ x23: .cfa -48 + ^ .ra: .cfa -56 + ^ x29: .cfa -64 + ^
STACK CFI 2dc8c .cfa: sp 128 +
STACK CFI 2dca0 .cfa: sp 0 +
STACK CFI 2dca4 .cfa: x29 64 +
STACK CFI INIT 2df98 188 .cfa: sp 0 +
STACK CFI 2df9c .cfa: sp 112 +
STACK CFI 2dfac .cfa: x29 48 + x19: .cfa -8 + ^ x20: .cfa -16 + ^ x21: .cfa -24 + ^ x22: .cfa -32 + ^ .ra: .cfa -40 + ^ x29: .cfa -48 + ^
STACK CFI 2e0e4 .cfa: sp 112 +
STACK CFI 2e0f4 .cfa: sp 0 +
STACK CFI 2e0f8 .cfa: x29 48 +
STACK CFI INIT 2e148 168 .cfa: sp 0 +
STACK CFI 2e14c .cfa: sp 96 +
STACK CFI 2e15c .cfa: x29 48 + x19: .cfa -8 + ^ x20: .cfa -16 + ^ x21: .cfa -32 + ^ .ra: .cfa -40 + ^ x29: .cfa -48 + ^
STACK CFI 2e294 .cfa: sp 96 +
STACK CFI 2e2a4 .cfa: sp 0 +
STACK CFI 2e2a8 .cfa: x29 48 +
STACK CFI INIT 2e31c 6f0 .cfa: sp 0 +
STACK CFI 2e320 .cfa: sp 272 +
STACK CFI 2e33c .cfa: x29 96 + x19: .cfa -8 + ^ x20: .cfa -16 + ^ x21: .cfa -24 + ^ x22: .cfa -32 + ^ x23: .cfa -40 + ^ x24: .cfa -48 + ^ x25: .cfa -56 + ^ x26: .cfa -64 + ^ x27: .cfa -72 + ^ x28: .cfa -80 + ^ .ra: .cfa -88 + ^ x29: .cfa -96 + ^
STACK CFI 2e4cc .cfa: sp 272 +
STACK CFI 2e4e8 .cfa: sp 0 +
STACK CFI 2e4ec .cfa: x29 96 +
STACK CFI INIT 2ea34 74 .cfa: sp 0 +
STACK CFI 2ea38 .cfa: sp 48 +
STACK CFI 2ea44 .cfa: x29 32 + x19: .cfa -8 + ^ x20: .cfa -16 + ^ .ra: .cfa -24 + ^ x29: .cfa -32 + ^
STACK CFI 2ea90 .cfa: sp 48 +
STACK CFI 2ea9c .cfa: sp 0 +
STACK CFI 2eaa0 .cfa: x29 32 +
STACK CFI INIT 2ec60 8f0 .cfa: sp 0 +
STACK CFI 2ec64 .cfa: sp 112 +
STACK CFI 2ec7c .cfa: x29 56 + x19: .cfa -8 + ^ x20: .cfa -16 + ^ x21: .cfa -24 + ^ x22: .cfa -32 + ^ x23: .cfa -40 + ^ .ra: .cfa -48 + ^ x29: .cfa -56 + ^ v8: .cfa -64 + ^
STACK CFI 2f4cc .cfa: sp 112 +
STACK CFI 2f4e4 .cfa: sp 0 +
STACK CFI 2f4e8 .cfa: x29 56 +
STACK CFI INIT 2f75c d0 .cfa: sp 0 +
STACK CFI 2f760 .cfa: sp 64 +
STACK CFI 2f76c .cfa: x29 32 + x19: .cfa -8 + ^ x20: .cfa -16 + ^ .ra: .cfa -24 + ^ x29: .cfa -32 + ^
STACK CFI 2f7f0 .cfa: sp 64 +
STACK CFI 2f7fc .cfa: sp 0 +
STACK CFI 2f800 .cfa: x29 32 +
STACK CFI INIT 2f82c 80c .cfa: sp 0 +
STACK CFI 2f830 .cfa: sp 400 +
STACK CFI 2f848 .cfa: x29 80 + x19: .cfa -8 + ^ x20: .cfa -16 + ^ x21: .cfa -24 + ^ x22: .cfa -32 + ^ x23: .cfa -40 + ^ x24: .cfa -48 + ^ x28: .cfa -64 + ^ .ra: .cfa -72 + ^ x29: .cfa -80 + ^
STACK CFI 2fe84 .cfa: sp 400 +
STACK CFI 2fe9c .cfa: sp 0 +
STACK CFI 2fea0 .cfa: x29 80 +
STACK CFI INIT 30090 33c .cfa: sp 0 +
STACK CFI 30094 .cfa: sp 160 +
STACK CFI 300a4 .cfa: x29 48 + x19: .cfa -8 + ^ x20: .cfa -16 + ^ x21: .cfa -24 + ^ x22: .cfa -32 + ^ .ra: .cfa -40 + ^ x29: .cfa -48 + ^
STACK CFI 30334 .cfa: sp 160 +
STACK CFI 30344 .cfa: sp 0 +
STACK CFI 30348 .cfa: x29 48 +
STACK CFI INIT 30648 7e4 .cfa: sp 0 +
STACK CFI 3064c .cfa: sp 176 +
STACK CFI 30660 .cfa: x29 64 + x19: .cfa -8 + ^ x20: .cfa -16 + ^ x21: .cfa -24 + ^ x22: .cfa -32 + ^ x23: .cfa -40 + ^ x24: .cfa -48 + ^ .ra: .cfa -56 + ^ x29: .cfa -64 + ^
STACK CFI 30d24 .cfa: sp 176 +
STACK CFI 30d38 .cfa: sp 0 +
STACK CFI 30d3c .cfa: x29 64 +
STACK CFI INIT 30fe8 b8 .cfa: sp 0 +
STACK CFI 30fec .cfa: sp 64 +
STACK CFI 30ff8 .cfa: x29 32 + x19: .cfa -8 + ^ x20: .cfa -16 + ^ .ra: .cfa -24 + ^ x29: .cfa -32 + ^
STACK CFI 31060 .cfa: sp 64 +
STACK CFI 3106c .cfa: sp 0 +
STACK CFI 31070 .cfa: x29 32 +
STACK CFI INIT 3114c 134 .cfa: sp 0 +
STACK CFI 31150 .cfa: sp 80 +
STACK CFI 3115c .cfa: x29 32 + x19: .cfa -8 + ^ x20: .cfa -16 + ^ .ra: .cfa -24 + ^ x29: .cfa -32 + ^
STACK CFI 3118c .cfa: sp 80 +
STACK CFI 31198 .cfa: sp 0 +
STACK CFI 3119c .cfa: x29 32 +
STACK CFI INIT 31280 78 .cfa: sp 0 +
STACK CFI 31284 .cfa: sp 32 +
STACK CFI 3128c .cfa: x29 32 + x19: .cfa -8 + ^ x20: .cfa -16 + ^ .ra: .cfa -24 + ^ x29: .cfa -32 + ^
STACK CFI 31298 .cfa: sp 32 +
STACK CFI 312a0 .cfa: sp 0 +
STACK CFI 312a4 .cfa: x29 32 +
STACK CFI INIT 312f8 74 .cfa: sp 0 +
STACK CFI 312fc .cfa: sp 48 +
STACK CFI 31308 .cfa: x29 32 + x19: .cfa -8 + ^ x20: .cfa -16 + ^ .ra: .cfa -24 + ^ x29: .cfa -32 + ^
STACK CFI 31354 .cfa: sp 48 +
STACK CFI 31360 .cfa: sp 0 +
STACK CFI 31364 .cfa: x29 32 +
STACK CFI INIT 31418 26c .cfa: sp 0 +
STACK CFI 3141c .cfa: sp 128 +
STACK CFI 3142c .cfa: x29 48 + x19: .cfa -8 + ^ x20: .cfa -16 + ^ x21: .cfa -32 + ^ .ra: .cfa -40 + ^ x29: .cfa -48 + ^
STACK CFI 31524 .cfa: sp 128 +
STACK CFI 31534 .cfa: sp 0 +
STACK CFI 31538 .cfa: x29 48 +
STACK CFI INIT 316a8 278 .cfa: sp 0 +
STACK CFI 316ac .cfa: sp 144 +
STACK CFI 316c0 .cfa: x29 64 + x19: .cfa -8 + ^ x20: .cfa -16 + ^ x21: .cfa -24 + ^ x22: .cfa -32 + ^ x23: .cfa -48 + ^ .ra: .cfa -56 + ^ x29: .cfa -64 + ^
STACK CFI 317c4 .cfa: sp 144 +
STACK CFI 317d8 .cfa: sp 0 +
STACK CFI 317dc .cfa: x29 64 +
STACK CFI INIT 31944 22c .cfa: sp 0 +
STACK CFI 31948 .cfa: sp 128 +
STACK CFI 31958 .cfa: x29 48 + x19: .cfa -8 + ^ x20: .cfa -16 + ^ x21: .cfa -32 + ^ .ra: .cfa -40 + ^ x29: .cfa -48 + ^
STACK CFI 31a10 .cfa: sp 128 +
STACK CFI 31a20 .cfa: sp 0 +
STACK CFI 31a24 .cfa: x29 48 +
STACK CFI INIT 31b70 28c .cfa: sp 0 +
STACK CFI 31b74 .cfa: sp 128 +
STACK CFI 31b84 .cfa: x29 48 + x19: .cfa -8 + ^ x20: .cfa -16 + ^ x21: .cfa -32 + ^ .ra: .cfa -40 + ^ x29: .cfa -48 + ^
STACK CFI 31c9c .cfa: sp 128 +
STACK CFI 31cac .cfa: sp 0 +
STACK CFI 31cb0 .cfa: x29 48 +
STACK CFI INIT 31e50 278 .cfa: sp 0 +
STACK CFI 31e54 .cfa: sp 144 +
STACK CFI 31e68 .cfa: x29 64 + x19: .cfa -8 + ^ x20: .cfa -16 + ^ x21: .cfa -24 + ^ x22: .cfa -32 + ^ x23: .cfa -48 + ^ .ra: .cfa -56 + ^ x29: .cfa -64 + ^
STACK CFI 31f6c .cfa: sp 144 +
STACK CFI 31f80 .cfa: sp 0 +
STACK CFI 31f84 .cfa: x29 64 +
STACK CFI INIT 320ec 22c .cfa: sp 0 +
STACK CFI 320f0 .cfa: sp 128 +
STACK CFI 32100 .cfa: x29 48 + x19: .cfa -8 + ^ x20: .cfa -16 + ^ x21: .cfa -32 + ^ .ra: .cfa -40 + ^ x29: .cfa -48 + ^
STACK CFI 321b8 .cfa: sp 128 +
STACK CFI 321c8 .cfa: sp 0 +
STACK CFI 321cc .cfa: x29 48 +
STACK CFI INIT 32318 1d8 .cfa: sp 0 +
STACK CFI 3231c .cfa: sp 192 +
STACK CFI 3233c .cfa: x29 80 + x19: .cfa -8 + ^ x20: .cfa -16 + ^ x21: .cfa -24 + ^ x22: .cfa -32 + ^ x23: .cfa -40 + ^ x24: .cfa -48 + ^ x25: .cfa -56 + ^ x26: .cfa -64 + ^ .ra: .cfa -72 + ^ x29: .cfa -80 + ^ v8: .cfa -88 + ^ v9: .cfa -96 + ^ v10: .cfa -112 + ^
STACK CFI 323d8 .cfa: sp 192 +
STACK CFI 323f8 .cfa: sp 0 +
STACK CFI 323fc .cfa: x29 80 +
STACK CFI INIT 324f0 31c .cfa: sp 0 +
STACK CFI 324f4 .cfa: sp 80 +
STACK CFI 32508 .cfa: x29 64 + x19: .cfa -8 + ^ x20: .cfa -16 + ^ x21: .cfa -24 + ^ x22: .cfa -32 + ^ x23: .cfa -40 + ^ x24: .cfa -48 + ^ .ra: .cfa -56 + ^ x29: .cfa -64 + ^
STACK CFI 327a8 .cfa: sp 80 +
STACK CFI 327bc .cfa: sp 0 +
STACK CFI 327c0 .cfa: x29 64 +
STACK CFI INIT 3280c 2c0 .cfa: sp 0 +
STACK CFI 32810 .cfa: sp 144 +
STACK CFI 32824 .cfa: x29 64 + x19: .cfa -8 + ^ x20: .cfa -16 + ^ x21: .cfa -24 + ^ x22: .cfa -32 + ^ x23: .cfa -48 + ^ .ra: .cfa -56 + ^ x29: .cfa -64 + ^
STACK CFI 32970 .cfa: sp 144 +
STACK CFI 32984 .cfa: sp 0 +
STACK CFI 32988 .cfa: x29 64 +
STACK CFI INIT 32acc 178 .cfa: sp 0 +
STACK CFI 32ad0 .cfa: sp 128 +
STACK CFI 32ae0 .cfa: x29 48 + x19: .cfa -8 + ^ x20: .cfa -16 + ^ x21: .cfa -24 + ^ x22: .cfa -32 + ^ .ra: .cfa -40 + ^ x29: .cfa -48 + ^
STACK CFI 32b3c .cfa: sp 128 +
STACK CFI 32b4c .cfa: sp 0 +
STACK CFI 32b50 .cfa: x29 48 +
STACK CFI INIT 32c44 a4 .cfa: sp 0 +
STACK CFI 32c48 .cfa: sp 48 +
STACK CFI 32c54 .cfa: x29 48 + x19: .cfa -8 + ^ x20: .cfa -16 + ^ x21: .cfa -32 + ^ .ra: .cfa -40 + ^ x29: .cfa -48 + ^
STACK CFI 32cc0 .cfa: sp 48 +
STACK CFI 32ccc .cfa: sp 0 +
STACK CFI 32cd0 .cfa: x29 48 +
STACK CFI INIT 32cec 2a8 .cfa: sp 0 +
STACK CFI 32cf0 .cfa: sp 144 +
STACK CFI 32d04 .cfa: x29 64 + x19: .cfa -8 + ^ x20: .cfa -16 + ^ x21: .cfa -24 + ^ x22: .cfa -32 + ^ x23: .cfa -48 + ^ .ra: .cfa -56 + ^ x29: .cfa -64 + ^
STACK CFI 32e38 .cfa: sp 144 +
STACK CFI 32e4c .cfa: sp 0 +
STACK CFI 32e50 .cfa: x29 64 +
STACK CFI INIT 32f94 2f8 .cfa: sp 0 +
STACK CFI 32f98 .cfa: sp 144 +
STACK CFI 32fac .cfa: x29 64 + x19: .cfa -8 + ^ x20: .cfa -16 + ^ x21: .cfa -24 + ^ x22: .cfa -32 + ^ x23: .cfa -48 + ^ .ra: .cfa -56 + ^ x29: .cfa -64 + ^
STACK CFI 33130 .cfa: sp 144 +
STACK CFI 33144 .cfa: sp 0 +
STACK CFI 33148 .cfa: x29 64 +
STACK CFI INIT 3328c 4c4 .cfa: sp 0 +
STACK CFI 33290 .cfa: sp 144 +
STACK CFI 332a4 .cfa: x29 64 + x19: .cfa -8 + ^ x20: .cfa -16 + ^ x21: .cfa -24 + ^ x22: .cfa -32 + ^ x23: .cfa -48 + ^ .ra: .cfa -56 + ^ x29: .cfa -64 + ^
STACK CFI 335a0 .cfa: sp 144 +
STACK CFI 335b4 .cfa: sp 0 +
STACK CFI 335b8 .cfa: x29 64 +
STACK CFI INIT 33750 154 .cfa: sp 0 +
STACK CFI 33754 .cfa: sp 384 +
STACK CFI 33768 .cfa: x29 64 + x19: .cfa -8 + ^ x20: .cfa -16 + ^ x21: .cfa -24 + ^ x22: .cfa -32 + ^ x23: .cfa -40 + ^ x28: .cfa -48 + ^ .ra: .cfa -56 + ^ x29: .cfa -64 + ^
STACK CFI 3384c .cfa: sp 384 +
STACK CFI 33860 .cfa: sp 0 +
STACK CFI 33864 .cfa: x29 64 +
STACK CFI INIT 338bc 43c .cfa: sp 0 +
STACK CFI 338c0 .cfa: sp 64 +
STACK CFI 338d0 .cfa: x29 64 + x19: .cfa -8 + ^ x20: .cfa -16 + ^ x21: .cfa -24 + ^ x22: .cfa -32 + ^ x23: .cfa -40 + ^ x24: .cfa -48 + ^ .ra: .cfa -56 + ^ x29: .cfa -64 + ^
STACK CFI 33c88 .cfa: sp 64 +
STACK CFI 33c98 .cfa: sp 0 +
STACK CFI 33c9c .cfa: x29 64 +
