MODULE Linux arm64 94F63DB5779BFD4F5F8EE3ADE2EC8CC40 techstudent10.attempt_utils.android64.so
INFO CODE_ID B53DF6949B774FFD5F8EE3ADE2EC8CC4C5D9560F
INFO GENERATOR mozilla/dump_syms 2.3.4
PUBLIC 13630 0 __on_dlclose
PUBLIC 13640 0 __emutls_unregister_key
PUBLIC 13648 0 __on_dlclose_late
PUBLIC 13650 0 __atexit_handler_wrapper
PUBLIC 13664 0 atexit
PUBLIC 13680 0 pthread_atfork
PUBLIC 13690 0 __aarch64_ldadd8_relax
PUBLIC 136c0 0 init_have_lse_atomics
PUBLIC 13758 0 __init_cpu_features_constructor
PUBLIC 13cf4 0 __init_cpu_features
PUBLIC 13d80 0 __aarch64_ldadd8_acq_rel
PUBLIC 13db0 0 __cxx_global_var_init
PUBLIC 1420c 0 geode::modifier::ModifyBase<geode::modifier::ModifyDerive<hook17<(anonymous namespace)::hook17Parent>, PlayLayer> >::~ModifyBase()
PUBLIC 14224 0 __cxx_global_var_init.1
PUBLIC 146a8 0 geode::modifier::ModifyBase<geode::modifier::ModifyDerive<MyInfoLayer, LevelInfoLayer> >::~ModifyBase()
PUBLIC 146c0 0 geode::modifier::ModifyDerive<hook17<(anonymous namespace)::hook17Parent>, PlayLayer>::apply()
PUBLIC 14d08 0 std::__ndk1::shared_ptr<geode::Hook>::~shared_ptr[abi:ne180000]()
PUBLIC 14d58 0 geode::impl::ResultData<geode::Hook*, std::__ndk1::basic_string<char, std::__ndk1::char_traits<char>, std::__ndk1::allocator<char> > >::~ResultData()
PUBLIC 14dcc 0 std::__ndk1::vector<std::__ndk1::basic_string<char, std::__ndk1::char_traits<char>, std::__ndk1::allocator<char> >, std::__ndk1::allocator<std::__ndk1::basic_string<char, std::__ndk1::char_traits<char>, std::__ndk1::allocator<char> > > >::~vector[abi:ne180000]()
PUBLIC 14e48 0 geode::modifier::ModifyBase<geode::modifier::ModifyDerive<hook17<(anonymous namespace)::hook17Parent>, PlayLayer> >::apply()
PUBLIC 14e4c 0 __clang_call_terminate
PUBLIC 14e5c 0 _ZN5geode15UnwrapExceptionC2IRPNS_4HookEQsr4implE18IsStringStreamableIT_EEENS_4impl5OkTagEOS5_
PUBLIC 14fb0 0 std::__ndk1::__throw_bad_variant_access[abi:ne180000]()
PUBLIC 14fe4 0 std::__ndk1::basic_stringstream<char, std::__ndk1::char_traits<char>, std::__ndk1::allocator<char> >::basic_stringstream[abi:ne180000]()
PUBLIC m 15110 0 std::__ndk1::basic_stringstream<char, std::__ndk1::char_traits<char>, std::__ndk1::allocator<char> >::~basic_stringstream()
PUBLIC 15190 0 geode::UnwrapException::~UnwrapException()
PUBLIC 151b4 0 std::__ndk1::__put_character_sequence[abi:ne180000]<char, std::__ndk1::char_traits<char> >(std::__ndk1::basic_ostream<char, std::__ndk1::char_traits<char> >, std::__ndk1::basic_ostream const*, unsigned long)
PUBLIC 15358 0 std::__ndk1::__pad_and_output[abi:ne180000]<char, std::__ndk1::char_traits<char> >(std::__ndk1::char_traits<char>, std::__ndk1::ostreambuf_iterator const*, std::__ndk1::ostreambuf_iterator const, std::__ndk1::ostreambuf_iterator const, std::__ndk1::ios_base&, std::__ndk1::ostreambuf_iterator)
PUBLIC 15534 0 std::__ndk1::basic_string<char, std::__ndk1::char_traits<char>, std::__ndk1::allocator<char> >::__throw_length_error[abi:ne180000]() const
PUBLIC 15548 0 std::__ndk1::__throw_length_error[abi:ne180000](char const*)
PUBLIC 15598 0 std::length_error::length_error[abi:ne180000](char const*)
PUBLIC 155c8 0 std::__throw_bad_array_new_length([abi:ne180000], void)
PUBLIC 155fc 0 std::__ndk1::basic_stringbuf<char, std::__ndk1::char_traits<char>, std::__ndk1::allocator<char> >::str[abi:ne180000]() &&
PUBLIC 15774 0 std::__ndk1::basic_stringbuf<char, std::__ndk1::char_traits<char>, std::__ndk1::allocator<char> >::__init_buf_ptrs[abi:ne180000]()
PUBLIC 158bc 0 std::__ndk1::vector<std::__ndk1::basic_string<char, std::__ndk1::char_traits<char>, std::__ndk1::allocator<char> >, std::__ndk1::allocator<std::__ndk1::basic_string<char, std::__ndk1::char_traits<char>, std::__ndk1::allocator<char> > > >::__push_back_slow_path<std::__ndk1::basic_string<char, std::__ndk1::char_traits<char>, std::__ndk1::allocator<char> > const&>(std::__ndk1::basic_string<char, std::__ndk1::char_traits<char>, std::__ndk1::allocator<char> > const&)
PUBLIC 15ae0 0 std::__ndk1::basic_string<char, std::__ndk1::char_traits<char>, std::__ndk1::allocator<char> >::__init_copy_ctor_external(char const*, unsigned long)
PUBLIC 15b60 0 std::__ndk1::__split_buffer<std::__ndk1::basic_string<char, std::__ndk1::char_traits<char>, std::__ndk1::allocator<char> >, std::__ndk1::allocator<std::__ndk1::basic_string<char, std::__ndk1::char_traits<char>, std::__ndk1::allocator<char> > >&>::~__split_buffer()
PUBLIC 15bc8 0 std::__ndk1::vector<std::__ndk1::basic_string<char, std::__ndk1::char_traits<char>, std::__ndk1::allocator<char> >, std::__ndk1::allocator<std::__ndk1::basic_string<char, std::__ndk1::char_traits<char>, std::__ndk1::allocator<char> > > >::__throw_length_error[abi:ne180000]() const
PUBLIC 15bdc 0 std::__ndk1::__variant_detail::__visitation::__base::__dispatcher<(unsigned long)0>::__dispatch[abi:ne180000]<std::__ndk1::__variant_detail::__dtor<std::__ndk1::__variant_detail::__traits<geode::Hook*, std::__ndk1::basic_string<char, std::__ndk1::char_traits<char>, std::__ndk1::allocator<char> > >, (std::__ndk1::__variant_detail::_Trait)1>::__destroy[abi:ne180000]()::{lambda(auto:1&)#1}, std::__ndk1::__variant_detail::__base<(std::__ndk1::__variant_detail::__traits<geode::Hook*, std::__ndk1::basic_string<char, std::__ndk1::char_traits<char>, std::__ndk1::allocator<char> > >)1, geode::Hook, std::__ndk1::allocator<char> >&>(std::__ndk1::__variant_detail::__dtor<std::__ndk1::__variant_detail::__traits<geode::Hook*, std::__ndk1::basic_string<char, std::__ndk1::char_traits<char>, std::__ndk1::allocator<char> > >, (std::__ndk1::__variant_detail::_Trait)1>, std::__ndk1::__variant_detail::__base<(std::__ndk1::__variant_detail::__traits<geode::Hook*, std::__ndk1::basic_string<char, std::__ndk1::char_traits<char>, std::__ndk1::allocator<char> > >)1, geode::Hook, std::__ndk1::allocator<char> >&)
PUBLIC 15be0 0 std::__ndk1::__variant_detail::__visitation::__base::__dispatcher<(unsigned long)1>::__dispatch[abi:ne180000]<std::__ndk1::__variant_detail::__dtor<std::__ndk1::__variant_detail::__traits<geode::Hook*, std::__ndk1::basic_string<char, std::__ndk1::char_traits<char>, std::__ndk1::allocator<char> > >, (std::__ndk1::__variant_detail::_Trait)1>::__destroy[abi:ne180000]()::{lambda(auto:1&)#1}, std::__ndk1::__variant_detail::__base<(std::__ndk1::__variant_detail::__traits<geode::Hook*, std::__ndk1::basic_string<char, std::__ndk1::char_traits<char>, std::__ndk1::allocator<char> > >)1, geode::Hook, std::__ndk1::allocator<char> >&>(std::__ndk1::__variant_detail::__dtor<std::__ndk1::__variant_detail::__traits<geode::Hook*, std::__ndk1::basic_string<char, std::__ndk1::char_traits<char>, std::__ndk1::allocator<char> > >, (std::__ndk1::__variant_detail::_Trait)1>, std::__ndk1::__variant_detail::__base<(std::__ndk1::__variant_detail::__traits<geode::Hook*, std::__ndk1::basic_string<char, std::__ndk1::char_traits<char>, std::__ndk1::allocator<char> > >)1, geode::Hook, std::__ndk1::allocator<char> >&)
PUBLIC 15bf4 0 std::__ndk1::__tree<std::__ndk1::__value_type<std::__ndk1::basic_string<char, std::__ndk1::char_traits<char>, std::__ndk1::allocator<char> >, std::__ndk1::shared_ptr<geode::Hook> >, std::__ndk1::__map_value_compare<std::__ndk1::basic_string<char, std::__ndk1::char_traits<char>, std::__ndk1::allocator<char> >, std::__ndk1::__value_type<std::__ndk1::basic_string<char, std::__ndk1::char_traits<char>, std::__ndk1::allocator<char> >, std::__ndk1::shared_ptr<geode::Hook> >, std::__ndk1::less<std::__ndk1::basic_string<char, std::__ndk1::char_traits<char>, std::__ndk1::allocator<char> > >, true>, std::__ndk1::allocator<std::__ndk1::__value_type<std::__ndk1::basic_string<char, std::__ndk1::char_traits<char>, std::__ndk1::allocator<char> >, std::__ndk1::shared_ptr<geode::Hook> > > >::find<std::__ndk1::basic_string<char, std::__ndk1::char_traits<char>, std::__ndk1::allocator<char> > >(std::__ndk1::basic_string<char, std::__ndk1::char_traits<char>, std::__ndk1::allocator<char> > const&)
PUBLIC 15d14 0 std::__ndk1::__tree<std::__ndk1::__value_type<std::__ndk1::basic_string<char, std::__ndk1::char_traits<char>, std::__ndk1::allocator<char> >, std::__ndk1::shared_ptr<geode::Hook> >, std::__ndk1::__map_value_compare<std::__ndk1::basic_string<char, std::__ndk1::char_traits<char>, std::__ndk1::allocator<char> >, std::__ndk1::__value_type<std::__ndk1::basic_string<char, std::__ndk1::char_traits<char>, std::__ndk1::allocator<char> >, std::__ndk1::shared_ptr<geode::Hook> >, std::__ndk1::less<std::__ndk1::basic_string<char, std::__ndk1::char_traits<char>, std::__ndk1::allocator<char> > >, true>, std::__ndk1::allocator<std::__ndk1::__value_type<std::__ndk1::basic_string<char, std::__ndk1::char_traits<char>, std::__ndk1::allocator<char> >, std::__ndk1::shared_ptr<geode::Hook> > > >::erase(std::__ndk1::__tree_const_iterator<std::__ndk1::__value_type<std::__ndk1::basic_string<char, std::__ndk1::char_traits<char>, std::__ndk1::allocator<char> >, std::__ndk1::shared_ptr<geode::Hook> >, std::__ndk1::__tree_node<std::__ndk1::__value_type<std::__ndk1::basic_string<char, std::__ndk1::char_traits<char>, std::__ndk1::allocator<char> >, std::__ndk1::shared_ptr<geode::Hook> >, void*>*, long>)
PUBLIC 161b8 0 std::__ndk1::__tree<std::__ndk1::__value_type<std::__ndk1::basic_string<char, std::__ndk1::char_traits<char>, std::__ndk1::allocator<char> >, std::__ndk1::shared_ptr<geode::Hook> >, std::__ndk1::__map_value_compare<std::__ndk1::basic_string<char, std::__ndk1::char_traits<char>, std::__ndk1::allocator<char> >, std::__ndk1::__value_type<std::__ndk1::basic_string<char, std::__ndk1::char_traits<char>, std::__ndk1::allocator<char> >, std::__ndk1::shared_ptr<geode::Hook> >, std::__ndk1::less<std::__ndk1::basic_string<char, std::__ndk1::char_traits<char>, std::__ndk1::allocator<char> > >, true>, std::__ndk1::allocator<std::__ndk1::__value_type<std::__ndk1::basic_string<char, std::__ndk1::char_traits<char>, std::__ndk1::allocator<char> >, std::__ndk1::shared_ptr<geode::Hook> > > >::destroy(std::__ndk1::__tree_node<std::__ndk1::__value_type<std::__ndk1::basic_string<char, std::__ndk1::char_traits<char>, std::__ndk1::allocator<char> >, std::__ndk1::shared_ptr<geode::Hook> >, void*>*)
PUBLIC 1623c 0 geode::modifier::AsStaticFunction_updateTimeLabel<hook17<(anonymous namespace)::hook17Parent>, void (hook17<(anonymous namespace)::hook17Parent>::*)(int, int, bool)>::Impl<void (hook17<(anonymous namespace)::hook17Parent>::*)(int, int, bool)>::function(hook17<(anonymous namespace)::hook17Parent>*, int, int, bool)
PUBLIC 167fc 0 geode::modifier::AsStaticFunction_updateAttempts<hook17<(anonymous namespace)::hook17Parent>, void (hook17<(anonymous namespace)::hook17Parent>::*)()>::Impl<void (hook17<(anonymous namespace)::hook17Parent>::*)()>::function(hook17<(anonymous namespace)::hook17Parent>*)
PUBLIC 169f8 0 geode::addresser::Addresser::addressOfVirtual<void, PlayLayer, int, int, bool>(void (PlayLayer::*)(int, int, bool))
PUBLIC 16ac0 0 PlayLayer::PlayLayer(geode::ZeroConstructorType)
PUBLIC 172ec 0 GJGameState::GJGameState()
PUBLIC 17864 0 geode::stl::unordered_map<int, int, geode::stl::hash<int>, geode::stl::equal_to<int>, std::__ndk1::allocator<std::__ndk1::pair<int const, int> > >::~unordered_map()
PUBLIC 178dc 0 geode::stl::unordered_set<int, geode::stl::hash<int>, geode::stl::equal_to<int>, std::__ndk1::allocator<int> >::~unordered_set()
PUBLIC 17954 0 geode::stl::unordered_map<int, gd::string, geode::stl::hash<int>, geode::stl::equal_to<int>, std::__ndk1::allocator<std::__ndk1::pair<int const, gd::string> > >::~unordered_map()
PUBLIC 179d8 0 gd::map<std::__ndk1::pair<int, int>, int>::~map()
PUBLIC 179f4 0 geode::stl::unordered_map<int, gd::vector<LabelGameObject*>, geode::stl::hash<int>, geode::stl::equal_to<int>, std::__ndk1::allocator<std::__ndk1::pair<int const, gd::vector<LabelGameObject*> > > >::~unordered_map()
PUBLIC 17a80 0 geode::stl::unordered_map<int, std::__ndk1::pair<int, int>, geode::stl::hash<int>, geode::stl::equal_to<int>, std::__ndk1::allocator<std::__ndk1::pair<int const, std::__ndk1::pair<int, int> > > >::~unordered_map()
PUBLIC 17af8 0 geode::stl::unordered_map<int, gd::vector<GameObject*>, geode::stl::hash<int>, geode::stl::equal_to<int>, std::__ndk1::allocator<std::__ndk1::pair<int const, gd::vector<GameObject*> > > >::~unordered_map()
PUBLIC 17b84 0 geode::stl::unordered_map<int, cocos2d::CCPoint, geode::stl::hash<int>, geode::stl::equal_to<int>, std::__ndk1::allocator<std::__ndk1::pair<int const, cocos2d::CCPoint> > >::~unordered_map()
PUBLIC 17bfc 0 gd::vector<geode::stl::unordered_map<int, int, geode::stl::hash<int>, geode::stl::equal_to<int>, std::__ndk1::allocator<std::__ndk1::pair<int const, int> > > >::~vector()
PUBLIC 17d00 0 GJGameState::~GJGameState()
PUBLIC 180f8 0 geode::stl::unordered_map<int, SongChannelState, geode::stl::hash<int>, geode::stl::equal_to<int>, std::__ndk1::allocator<std::__ndk1::pair<int const, SongChannelState> > >::~unordered_map()
PUBLIC 18170 0 gd::map<std::__ndk1::pair<int, int>, SFXTriggerInstance>::~map()
PUBLIC 1818c 0 geode::stl::unordered_map<int, std::__ndk1::vector<int, std::__ndk1::allocator<int> >, geode::stl::hash<int>, geode::stl::equal_to<int>, std::__ndk1::allocator<std::__ndk1::pair<int const, std::__ndk1::vector<int, std::__ndk1::allocator<int> > > > >::~unordered_map()
PUBLIC 1821c 0 gd::vector<EnterEffectInstance>::~vector()
PUBLIC 182b4 0 geode::stl::unordered_map<int, std::__ndk1::vector<EnterEffectInstance, std::__ndk1::allocator<EnterEffectInstance> >, geode::stl::hash<int>, geode::stl::equal_to<int>, std::__ndk1::allocator<std::__ndk1::pair<int const, std::__ndk1::vector<EnterEffectInstance, std::__ndk1::allocator<EnterEffectInstance> > > > >::~unordered_map()
PUBLIC 182f0 0 gd::map<std::__ndk1::pair<GJGameEvent, int>, int>::~map()
PUBLIC 1830c 0 gd::map<std::__ndk1::pair<GJGameEvent, int>, gd::vector<EventTriggerInstance> >::~map()
PUBLIC 18328 0 geode::stl::unordered_map<int, EnhancedGameObject*, geode::stl::hash<int>, geode::stl::equal_to<int>, std::__ndk1::allocator<std::__ndk1::pair<int const, EnhancedGameObject*> > >::~unordered_map()
PUBLIC 183a0 0 geode::stl::unordered_map<int, GameObjectPhysics, geode::stl::hash<int>, geode::stl::equal_to<int>, std::__ndk1::allocator<std::__ndk1::pair<int const, GameObjectPhysics> > >::~unordered_map()
PUBLIC 18418 0 geode::stl::unordered_map<int, GJValueTween, geode::stl::hash<int>, geode::stl::equal_to<int>, std::__ndk1::allocator<std::__ndk1::pair<int const, GJValueTween> > >::~unordered_map()
PUBLIC 18490 0 geode::stl::unordered_map<int, bool, geode::stl::hash<int>, geode::stl::equal_to<int>, std::__ndk1::allocator<std::__ndk1::pair<int const, bool> > >::~unordered_map()
PUBLIC 18508 0 gd::map<std::__ndk1::pair<GJGameEvent, int>, gd::vector<EventTriggerInstance> >::map(std::__ndk1::map<std::__ndk1::pair<GJGameEvent, int>, gd::vector<EventTriggerInstance>, std::__ndk1::less<std::__ndk1::pair<GJGameEvent, int> >, std::__ndk1::allocator<std::__ndk1::pair<std::__ndk1::pair<GJGameEvent, int> const, gd::vector<EventTriggerInstance> > > >)
PUBLIC 186d4 0 gd::map<std::__ndk1::pair<GJGameEvent, int>, gd::vector<EventTriggerInstance> >::insert_pair(std::__ndk1::pair<std::__ndk1::pair<GJGameEvent, int>, gd::vector<EventTriggerInstance> > const&)
PUBLIC 1898c 0 std::__ndk1::pair<std::__ndk1::pair<GJGameEvent, int>, gd::vector<EventTriggerInstance> >::~pair()
PUBLIC 18a0c 0 std::__ndk1::pair<std::__ndk1::pair<GJGameEvent, int> const, gd::vector<EventTriggerInstance> >::~pair()
PUBLIC 18a8c 0 gd::vector<EventTriggerInstance>::vector(gd::vector<EventTriggerInstance> const&)
PUBLIC 18c2c 0 geode::stl::_rb_insert_rebalance(bool, geode::stl::_rb_tree_base*, geode::stl::_rb_tree_base*, geode::stl::_rb_tree_base&)
PUBLIC 18ee4 0 gd::vector<EventTriggerInstance>::operator=(gd::vector<EventTriggerInstance> const&)
PUBLIC 190a0 0 gd::vector<EventTriggerInstance>::~vector()
PUBLIC 19120 0 std::__ndk1::__tree<std::__ndk1::__value_type<std::__ndk1::pair<GJGameEvent, int>, gd::vector<EventTriggerInstance> >, std::__ndk1::__map_value_compare<std::__ndk1::pair<GJGameEvent, int>, std::__ndk1::__value_type<std::__ndk1::pair<GJGameEvent, int>, gd::vector<EventTriggerInstance> >, std::__ndk1::less<std::__ndk1::pair<GJGameEvent, int> >, true>, std::__ndk1::allocator<std::__ndk1::__value_type<std::__ndk1::pair<GJGameEvent, int>, gd::vector<EventTriggerInstance> > > >::destroy(std::__ndk1::__tree_node<std::__ndk1::__value_type<std::__ndk1::pair<GJGameEvent, int>, gd::vector<EventTriggerInstance> >, void*>*)
PUBLIC 191b8 0 gd::map<std::__ndk1::pair<int, int>, SFXTriggerInstance>::erase(geode::stl::_rb_tree_node<std::__ndk1::pair<std::__ndk1::pair<int, int>, SFXTriggerInstance> >*)
PUBLIC 1920c 0 gd::map<int, EnterEffectAnimValue>::erase(geode::stl::_rb_tree_node<std::__ndk1::pair<int, EnterEffectAnimValue> >*)
PUBLIC 19260 0 geode::stl::_Hashtable<int, std::__ndk1::pair<int const, std::__ndk1::vector<EnterEffectInstance, std::__ndk1::allocator<EnterEffectInstance> > >, std::__ndk1::allocator<std::__ndk1::pair<int const, std::__ndk1::vector<EnterEffectInstance, std::__ndk1::allocator<EnterEffectInstance> > > >, geode::stl::__detail::_Select1st, geode::stl::equal_to<int>, geode::stl::hash<int>, geode::stl::__detail::_Mod_range_hashing, geode::stl::__detail::_Default_ranged_hash, geode::stl::__detail::_Prime_rehash_policy, geode::stl::__detail::_Hashtable_traits<false, false, true> >::clear()
PUBLIC 19308 0 gd::map<std::__ndk1::pair<GJGameEvent, int>, int>::erase(geode::stl::_rb_tree_node<std::__ndk1::pair<std::__ndk1::pair<GJGameEvent, int>, int> >*)
PUBLIC 1935c 0 gd::map<std::__ndk1::pair<GJGameEvent, int>, gd::vector<EventTriggerInstance> >::erase(geode::stl::_rb_tree_node<std::__ndk1::pair<std::__ndk1::pair<GJGameEvent, int>, gd::vector<EventTriggerInstance> > >*)
PUBLIC 19404 0 gd::map<std::__ndk1::pair<int, int>, int>::erase(geode::stl::_rb_tree_node<std::__ndk1::pair<std::__ndk1::pair<int, int>, int> >*)
PUBLIC 19458 0 std::__ndk1::shared_ptr<tulip::hook::CallingConvention>::~shared_ptr[abi:ne180000]()
PUBLIC 194a8 0 tulip::hook::HandlerMetadata::~HandlerMetadata()
PUBLIC 1950c 0 geode::Mod::getSettingValue<bool>(std::__ndk1::basic_string_view<char, std::__ndk1::char_traits<char> >) const
PUBLIC 1963c 0 geode::cast::traverseTypeinfoFor(void*, geode::cast::ClassTypeinfoType const*, char const*)
PUBLIC 19734 0 fmt::v11::detail::value<fmt::v11::context>::format_custom_arg<std::__ndk1::chrono::duration<int, std::__ndk1::ratio<(long)1, (long)1> >, fmt::v11::formatter<std::__ndk1::chrono::duration<int, std::__ndk1::ratio<(long)1, (long)1> >, char, void> >(void*, fmt::v11::basic_format_parse_context<char>&, fmt::v11::context&)
PUBLIC 1abd8 0 fmt::v11::detail::parse_dynamic_spec<char>(char const*, char const*, int&, fmt::v11::detail::arg_ref<char>&, fmt::v11::basic_format_parse_context<char>&)
PUBLIC 1ad7c 0 fmt::v11::detail::do_parse_arg_id<char, fmt::v11::detail::dynamic_spec_id_handler<char>&>(char const*, char const*, fmt::v11::detail::dynamic_spec_id_handler<char>&)
PUBLIC 1af10 0 fmt::v11::format_error::runtime_error(char const*)
PUBLIC 1af3c 0 fmt::v11::format_error::~format_error()
PUBLIC 1af60 0 fmt::v11::detail::chrono_format_checker::unsupported()
PUBLIC 1afb0 0 fmt::v11::detail::handle_dynamic_spec<fmt::v11::detail::width_checker, fmt::v11::context>(int&, fmt::v11::detail::arg_ref<fmt::v11::context::char_type>, fmt::v11::context&)
PUBLIC 1b0c4 0 fmt::v11::detail::handle_dynamic_spec<fmt::v11::detail::precision_checker, fmt::v11::context>(int&, fmt::v11::detail::arg_ref<fmt::v11::context::char_type>, fmt::v11::context&)
PUBLIC 1b1d8 0 fmt::v11::detail::write<char, fmt::v11::basic_appender<char> >(fmt::v11::basic_appender<char>, fmt::v11::basic_string_view<char>, fmt::v11::format_specs const&)
PUBLIC 1b454 0 fmt::v11::basic_memory_buffer<char, (unsigned long)500, std::__ndk1::allocator<char> >::grow(fmt::v11::detail::buffer<char>&, unsigned long)
PUBLIC 1b4cc 0 fmt::v11::detail::get_dynamic_spec<fmt::v11::detail::width_checker, fmt::v11::basic_format_arg<fmt::v11::context> >(fmt::v11::basic_format_arg<fmt::v11::context>)
PUBLIC 1b560 0 fmt::v11::basic_format_args<fmt::v11::context>::get<char>(fmt::v11::basic_string_view<char>) const
PUBLIC 1b6b8 0 fmt::v11::detail::get_dynamic_spec<fmt::v11::detail::precision_checker, fmt::v11::basic_format_arg<fmt::v11::context> >(fmt::v11::basic_format_arg<fmt::v11::context>)
PUBLIC 1b74c 0 fmt::v11::detail::copy_noinline<char, char*, std::__ndk1::back_insert_iterator<fmt::v11::basic_memory_buffer<char, (unsigned long)500, std::__ndk1::allocator<char> > > >(char*, char*, std::__ndk1::back_insert_iterator<fmt::v11::basic_memory_buffer<char, (unsigned long)500, std::__ndk1::allocator<char> > >)
PUBLIC 1b89c 0 fmt::v11::detail::chrono_formatter<fmt::v11::context, std::__ndk1::back_insert_iterator<fmt::v11::basic_memory_buffer<char, (unsigned long)500, std::__ndk1::allocator<char> > >, int, std::__ndk1::ratio<(long)1, (long)1> >::on_12_hour(fmt::v11::detail::numeric_system, fmt::v11::detail::pad_type)
PUBLIC 1b93c 0 fmt::v11::detail::chrono_formatter<fmt::v11::context, std::__ndk1::back_insert_iterator<fmt::v11::basic_memory_buffer<char, (unsigned long)500, std::__ndk1::allocator<char> > >, int, std::__ndk1::ratio<(long)1, (long)1> >::write(int, int, fmt::v11::detail::pad_type)
PUBLIC 1bb0c 0 fmt::v11::detail::chrono_formatter<fmt::v11::context, std::__ndk1::back_insert_iterator<fmt::v11::basic_memory_buffer<char, (unsigned long)500, std::__ndk1::allocator<char> > >, int, std::__ndk1::ratio<(long)1, (long)1> >::format_tm<void (fmt::v11::detail::tm_writer<std::__ndk1::back_insert_iterator<fmt::v11::basic_memory_buffer<char, (unsigned long)500, std::__ndk1::allocator<char> > >, char, std::__ndk1::chrono::duration<long long, std::__ndk1::ratio<(long)1, (long)1> > >::*)(fmt::v11::detail::numeric_system, fmt::v11::detail::pad_type), fmt::v11::detail::numeric_system, fmt::v11::detail::pad_type>(tm const&, void (fmt::v11::detail::tm_writer<std::__ndk1::back_insert_iterator<fmt::v11::basic_memory_buffer<char, (unsigned long)500, std::__ndk1::allocator<char> > >, char, std::__ndk1::chrono::duration<long long, std::__ndk1::ratio<(long)1, (long)1> > >::*)(fmt::v11::detail::numeric_system, fmt::v11::detail::pad_type), fmt::v11::detail::numeric_system, fmt::v11::detail::pad_type)
PUBLIC 1bcd4 0 fmt::v11::detail::tm_writer<std::__ndk1::back_insert_iterator<fmt::v11::basic_memory_buffer<char, (unsigned long)500, std::__ndk1::allocator<char> > >, char, std::__ndk1::chrono::duration<long long, std::__ndk1::ratio<(long)1, (long)1> > >::on_24_hour(fmt::v11::detail::numeric_system, fmt::v11::detail::pad_type)
PUBLIC 1bdfc 0 fmt::v11::detail::tm_writer<std::__ndk1::back_insert_iterator<fmt::v11::basic_memory_buffer<char, (unsigned long)500, std::__ndk1::allocator<char> > >, char, std::__ndk1::chrono::duration<long long, std::__ndk1::ratio<(long)1, (long)1> > >::write2(int, fmt::v11::detail::pad_type)
PUBLIC 1bf54 0 fmt::v11::detail::do_write<char>(fmt::v11::detail::buffer<char>&, tm const&, std::__ndk1::locale const&, char, char)
PUBLIC 1c188 0 fmt::v11::detail::write_encoded_tm_str<std::__ndk1::back_insert_iterator<fmt::v11::basic_memory_buffer<char, (unsigned long)500, std::__ndk1::allocator<char> > > >(std::__ndk1::back_insert_iterator<fmt::v11::basic_memory_buffer<char, (unsigned long)500, std::__ndk1::allocator<char> > >, fmt::v11::basic_string_view<char>, std::__ndk1::locale const&)
PUBLIC 1c8a4 0 fmt::v11::detail::formatbuf<std::__ndk1::basic_streambuf<char, std::__ndk1::char_traits<char> > >::~formatbuf()
PUBLIC 1c8c8 0 fmt::v11::detail::formatbuf<std::__ndk1::basic_streambuf<char, std::__ndk1::char_traits<char> > >::xsputn(char const*, long)
PUBLIC 1ca20 0 fmt::v11::detail::formatbuf<std::__ndk1::basic_streambuf<char, std::__ndk1::char_traits<char> > >::overflow(int)
PUBLIC 1ca7c 0 fmt::v11::basic_memory_buffer<char, (unsigned long)128, std::__ndk1::allocator<char> >::grow(fmt::v11::detail::buffer<char>&, unsigned long)
PUBLIC 1caf4 0 fmt::v11::detail::tm_writer<std::__ndk1::back_insert_iterator<fmt::v11::basic_memory_buffer<char, (unsigned long)500, std::__ndk1::allocator<char> > >, char, std::__ndk1::chrono::duration<long long, std::__ndk1::ratio<(long)1, (long)1> > >::on_12_hour(fmt::v11::detail::numeric_system, fmt::v11::detail::pad_type)
PUBLIC 1cc30 0 fmt::v11::detail::tm_writer<std::__ndk1::back_insert_iterator<fmt::v11::basic_memory_buffer<char, (unsigned long)500, std::__ndk1::allocator<char> > >, char, std::__ndk1::chrono::duration<long long, std::__ndk1::ratio<(long)1, (long)1> > >::on_minute(fmt::v11::detail::numeric_system, fmt::v11::detail::pad_type)
PUBLIC 1cd58 0 fmt::v11::detail::tm_writer<std::__ndk1::back_insert_iterator<fmt::v11::basic_memory_buffer<char, (unsigned long)500, std::__ndk1::allocator<char> > >, char, std::__ndk1::chrono::duration<long long, std::__ndk1::ratio<(long)1, (long)1> > >::on_second(fmt::v11::detail::numeric_system, fmt::v11::detail::pad_type)
PUBLIC 1ce80 0 fmt::v11::detail::chrono_formatter<fmt::v11::context, std::__ndk1::back_insert_iterator<fmt::v11::basic_memory_buffer<char, (unsigned long)500, std::__ndk1::allocator<char> > >, int, std::__ndk1::ratio<(long)1, (long)1> >::format_tm<void (fmt::v11::detail::tm_writer<std::__ndk1::back_insert_iterator<fmt::v11::basic_memory_buffer<char, (unsigned long)500, std::__ndk1::allocator<char> > >, char, std::__ndk1::chrono::duration<long long, std::__ndk1::ratio<(long)1, (long)1> > >::*)(), >(tm const&, void (fmt::v11::detail::tm_writer<std::__ndk1::back_insert_iterator<fmt::v11::basic_memory_buffer<char, (unsigned long)500, std::__ndk1::allocator<char> > >, char, std::__ndk1::chrono::duration<long long, std::__ndk1::ratio<(long)1, (long)1> > >::*)(), )
PUBLIC 1d03c 0 fmt::v11::detail::tm_writer<std::__ndk1::back_insert_iterator<fmt::v11::basic_memory_buffer<char, (unsigned long)500, std::__ndk1::allocator<char> > >, char, std::__ndk1::chrono::duration<long long, std::__ndk1::ratio<(long)1, (long)1> > >::on_12_hour_time()
PUBLIC 1d27c 0 fmt::v11::detail::tm_writer<std::__ndk1::back_insert_iterator<fmt::v11::basic_memory_buffer<char, (unsigned long)500, std::__ndk1::allocator<char> > >, char, std::__ndk1::chrono::duration<long long, std::__ndk1::ratio<(long)1, (long)1> > >::on_am_pm()
PUBLIC 1d408 0 fmt::v11::detail::write_escaped_string<char, fmt::v11::detail::counting_iterator>(fmt::v11::detail::counting_iterator, fmt::v11::basic_string_view<char>)
PUBLIC 1d928 0 fmt::v11::detail::write_padded<char, (fmt::v11::align::type)1, fmt::v11::basic_appender<char>, fmt::v11::detail::write<char, fmt::v11::basic_appender<char> >(fmt::v11::basic_appender<char>, fmt::v11::basic_string_view<char>, fmt::v11::format_specs const&)::{lambda(fmt::v11::basic_appender<char>)#1}>(fmt::v11::basic_appender<char>, fmt::v11::format_specs const&, unsigned long, unsigned long, fmt::v11::detail::write<char, fmt::v11::basic_appender<char> >(fmt::v11::basic_appender<char>, fmt::v11::basic_string_view<char>, fmt::v11::format_specs const&)::{lambda(fmt::v11::basic_appender<char>&&)#1})
PUBLIC 1db34 0 fmt::v11::detail::for_each_codepoint<fmt::v11::detail::code_point_index(fmt::v11::basic_string_view<char>, unsigned long)::{lambda(unsigned int, fmt::v11::basic_string_view<char>)#1}>(fmt::v11::basic_string_view<char>, fmt::v11::detail::code_point_index(fmt::v11::basic_string_view<char>, unsigned long)::{lambda(unsigned int, fmt::v11::basic_string_view<char>)#1})
PUBLIC 1df5c 0 fmt::v11::detail::write_escaped_cp<fmt::v11::detail::counting_iterator, char>(fmt::v11::detail::counting_iterator, fmt::v11::detail::find_escape_result<char> const&)
PUBLIC 1e0f0 0 fmt::v11::detail::for_each_codepoint<fmt::v11::detail::compute_width(fmt::v11::basic_string_view<char>)::count_code_points>(fmt::v11::basic_string_view<char>, fmt::v11::detail::compute_width(fmt::v11::basic_string_view<char>)::count_code_points)::{lambda(char const*, char const*)#1}::operator()(char const*, char const*) const
PUBLIC 1e2a8 0 fmt::v11::detail::fill<char, fmt::v11::basic_appender<char> >(fmt::v11::basic_appender<char>, unsigned long, fmt::v11::detail::fill_t const&)
PUBLIC 1e478 0 fmt::v11::detail::write_escaped_string<char, fmt::v11::basic_appender<char> >(fmt::v11::basic_appender<char>, fmt::v11::basic_string_view<char>)
PUBLIC 1eaf4 0 fmt::v11::detail::write_escaped_cp<fmt::v11::basic_appender<char>, char>(fmt::v11::basic_appender<char>, fmt::v11::detail::find_escape_result<char> const&)
PUBLIC 1ecd8 0 fmt::v11::detail::write_codepoint<(unsigned long)2, char, fmt::v11::basic_appender<char> >(fmt::v11::basic_appender<char>, char, unsigned int)
PUBLIC 1ee50 0 fmt::v11::detail::write_codepoint<(unsigned long)4, char, fmt::v11::basic_appender<char> >(fmt::v11::basic_appender<char>, char, unsigned int)
PUBLIC 1efc8 0 fmt::v11::detail::write_codepoint<(unsigned long)8, char, fmt::v11::basic_appender<char> >(fmt::v11::basic_appender<char>, char, unsigned int)
PUBLIC 1f140 0 std::__ndk1::__tree<std::__ndk1::__value_type<std::__ndk1::basic_string<char, std::__ndk1::char_traits<char>, std::__ndk1::allocator<char> >, std::__ndk1::shared_ptr<geode::Hook> >, std::__ndk1::__map_value_compare<std::__ndk1::basic_string<char, std::__ndk1::char_traits<char>, std::__ndk1::allocator<char> >, std::__ndk1::__value_type<std::__ndk1::basic_string<char, std::__ndk1::char_traits<char>, std::__ndk1::allocator<char> >, std::__ndk1::shared_ptr<geode::Hook> >, std::__ndk1::less<std::__ndk1::basic_string<char, std::__ndk1::char_traits<char>, std::__ndk1::allocator<char> > >, true>, std::__ndk1::allocator<std::__ndk1::__value_type<std::__ndk1::basic_string<char, std::__ndk1::char_traits<char>, std::__ndk1::allocator<char> >, std::__ndk1::shared_ptr<geode::Hook> > > >::__emplace_unique_key_args<std::__ndk1::basic_string<char, std::__ndk1::char_traits<char>, std::__ndk1::allocator<char> >, std::__ndk1::piecewise_construct_t const&, std::__ndk1::tuple<std::__ndk1::basic_string<char, std::__ndk1::char_traits<char>, std::__ndk1::allocator<char> >&&>, std::__ndk1::tuple<> >(std::__ndk1::basic_string<char, std::__ndk1::char_traits<char>, std::__ndk1::allocator<char> > const&, std::__ndk1::piecewise_construct_t const&, std::__ndk1::tuple<std::__ndk1::basic_string<char, std::__ndk1::char_traits<char>, std::__ndk1::allocator<char> >&&>, std::__ndk1::tuple<>)
PUBLIC 1f2a8 0 std::__ndk1::__tree_balance_after_insert[abi:ne180000]<std::__ndk1::__tree_node_base<void*>*>(std::__ndk1::__tree_node_base<void*>*, std::__ndk1::__tree_node_base<void*>*)
PUBLIC 1f458 0 geode::modifier::ModifyDerive<MyInfoLayer, LevelInfoLayer>::apply()
PUBLIC 1f7cc 0 geode::modifier::ModifyBase<geode::modifier::ModifyDerive<MyInfoLayer, LevelInfoLayer> >::apply()
PUBLIC 1f7d0 0 geode::modifier::AsStaticFunction_onLevelInfo<MyInfoLayer, void (MyInfoLayer::*)(cocos2d::CCObject*)>::Impl<void (MyInfoLayer::*)(cocos2d::CCObject*)>::function(MyInfoLayer*, cocos2d::CCObject*)
PUBLIC 1f934 0 MyInfoLayer::onResetAttempts(cocos2d::CCObject*)
PUBLIC 1faa8 0 std::__ndk1::__function::__base<void (FLAlertLayer*, bool)>::~__base()
PUBLIC 1faac 0 std::__ndk1::__function::__func<MyInfoLayer::onResetAttempts(cocos2d::CCObject*)::{lambda(auto:1, bool)#1}, std::__ndk1::allocator<MyInfoLayer::onResetAttempts(cocos2d::CCObject*)::{lambda(auto:1, bool)#1}>, void (FLAlertLayer*, bool)>::~__func()
PUBLIC 1fab0 0 std::__ndk1::__function::__func<MyInfoLayer::onResetAttempts(cocos2d::CCObject*)::{lambda(auto:1, bool)#1}, std::__ndk1::allocator<MyInfoLayer::onResetAttempts(cocos2d::CCObject*)::{lambda(auto:1, bool)#1}>, void (FLAlertLayer*, bool)>::__clone() const
PUBLIC 1fae4 0 std::__ndk1::__function::__func<MyInfoLayer::onResetAttempts(cocos2d::CCObject*)::{lambda(auto:1, bool)#1}, std::__ndk1::allocator<MyInfoLayer::onResetAttempts(cocos2d::CCObject*)::{lambda(auto:1, bool)#1}>, void (FLAlertLayer*, bool)>::__clone(std::__ndk1::__function::__base<void (FLAlertLayer*, bool)>*) const
PUBLIC 1faf8 0 std::__ndk1::__function::__func<MyInfoLayer::onResetAttempts(cocos2d::CCObject*)::{lambda(auto:1, bool)#1}, std::__ndk1::allocator<MyInfoLayer::onResetAttempts(cocos2d::CCObject*)::{lambda(auto:1, bool)#1}>, void (FLAlertLayer*, bool)>::destroy()
PUBLIC 1fafc 0 std::__ndk1::__function::__func<MyInfoLayer::onResetAttempts(cocos2d::CCObject*)::{lambda(auto:1, bool)#1}, std::__ndk1::allocator<MyInfoLayer::onResetAttempts(cocos2d::CCObject*)::{lambda(auto:1, bool)#1}>, void (FLAlertLayer*, bool)>::destroy_deallocate()
PUBLIC 1fb00 0 std::__ndk1::__function::__func<MyInfoLayer::onResetAttempts(cocos2d::CCObject*)::{lambda(auto:1, bool)#1}, std::__ndk1::allocator<MyInfoLayer::onResetAttempts(cocos2d::CCObject*)::{lambda(auto:1, bool)#1}>, void (FLAlertLayer*, bool)>::operator()(FLAlertLayer*&&, bool&&)
PUBLIC 1fc04 0 std::__ndk1::__function::__func<MyInfoLayer::onResetAttempts(cocos2d::CCObject*)::{lambda(auto:1, bool)#1}, std::__ndk1::allocator<MyInfoLayer::onResetAttempts(cocos2d::CCObject*)::{lambda(auto:1, bool)#1}>, void (FLAlertLayer*, bool)>::target(std::type_info const&) const
PUBLIC 1fc20 0 std::__ndk1::__function::__func<MyInfoLayer::onResetAttempts(cocos2d::CCObject*)::{lambda(auto:1, bool)#1}, std::__ndk1::allocator<MyInfoLayer::onResetAttempts(cocos2d::CCObject*)::{lambda(auto:1, bool)#1}>, void (FLAlertLayer*, bool)>::target_type() const
PUBLIC m 1fc2c 0 geodeImplicitEntry
PUBLIC 1fc68 0 std::__ndk1::unordered_map<void*, bool, std::__ndk1::hash<void*>, std::__ndk1::equal_to<void*>, std::__ndk1::allocator<std::__ndk1::pair<void* const, bool> > >::~unordered_map[abi:ne180000]()
PUBLIC 1fcb4 0 wrapFunction(unsigned long, tulip::hook::WrapperMetadata const&)
PUBLIC 1fde8 0 geode::impl::ResultData<void*, std::__ndk1::basic_string<char, std::__ndk1::char_traits<char>, std::__ndk1::allocator<char> > >::unwrapErr() &
PUBLIC 1fe60 0 geode::impl::ResultData<void*, std::__ndk1::basic_string<char, std::__ndk1::char_traits<char>, std::__ndk1::allocator<char> > >::~ResultData()
PUBLIC 1fed4 0 tulip::hook::WrapperMetadata::~WrapperMetadata()
PUBLIC 1ff38 0 cocos2d::CCObject::~CCObject()
PUBLIC 1ff5c 0 cocos2d::CCNode::~CCNode()
PUBLIC 1ff80 0 {virtual override thunk({offset(-320)}, cocos2d::CCLayer::~CCLayer())}
PUBLIC 1ff88 0 cocos2d::CCLayer::~CCLayer()
PUBLIC 1ffac 0 {virtual override thunk({offset(-320)}, cocos2d::CCLayer::~CCLayer())}
PUBLIC 1ffd4 0 FLAlertLayer::create(FLAlertLayerProtocol*, char const*, gd::string, char const*, char const*, float)
PUBLIC 2018c 0 tulip::hook::AbstractFunction::from<FLAlertLayer*, FLAlertLayerProtocol*, char const*, gd::string, char const*, char const*, float>(FLAlertLayer* (*)(FLAlertLayerProtocol*, char const*, gd::string, char const*, char const*, float))
PUBLIC 202f8 0 GJBaseGameLayer::~GJBaseGameLayer()
PUBLIC 20b0c 0 GJBaseGameLayer::GJBaseGameLayer(geode::CutoffConstructorType, unsigned long)
PUBLIC 212bc 0 {virtual override thunk({offset(-320)}, GJBaseGameLayer::~GJBaseGameLayer())}
PUBLIC 212c4 0 GJBaseGameLayer::~GJBaseGameLayer()
PUBLIC 212e8 0 {virtual override thunk({offset(-320)}, GJBaseGameLayer::~GJBaseGameLayer())}
PUBLIC 21310 0 GJBaseGameLayer::toggleGroupTriggered(int, bool, gd::vector<int> const&, int, int)
PUBLIC 2147c 0 tulip::hook::AbstractFunction::from<void, GJBaseGameLayer*, int, bool, gd::vector<int> const&, int, int>(void (*)(GJBaseGameLayer*, int, bool, gd::vector<int> const&, int, int))
PUBLIC 215f0 0 {virtual override thunk({offset(-408)}, GJBaseGameLayer::toggleGroupTriggered(int, bool, gd::vector<int> const&, int, int))}
PUBLIC 215f8 0 GJBaseGameLayer::spawnGroup(int, bool, double, gd::vector<int> const&, int, int)
PUBLIC 21774 0 tulip::hook::AbstractFunction::from<void, GJBaseGameLayer*, int, bool, double, gd::vector<int> const&, int, int>(void (*)(GJBaseGameLayer*, int, bool, double, gd::vector<int> const&, int, int))
PUBLIC 218ec 0 {virtual override thunk({offset(-408)}, GJBaseGameLayer::spawnGroup(int, bool, double, gd::vector<int> const&, int, int))}
PUBLIC 218f4 0 GJBaseGameLayer::spawnObject(GameObject*, double, gd::vector<int> const&)
PUBLIC 21a50 0 tulip::hook::AbstractFunction::from<void, GJBaseGameLayer*, GameObject*, double, gd::vector<int> const&>(void (*)(GJBaseGameLayer*, GameObject*, double, gd::vector<int> const&))
PUBLIC 21b5c 0 {virtual override thunk({offset(-408)}, GJBaseGameLayer::spawnObject(GameObject*, double, gd::vector<int> const&))}
PUBLIC 21b64 0 GJBaseGameLayer::activatePlatformerEndTrigger(EndTriggerGameObject*, gd::vector<int> const&)
PUBLIC 21cb0 0 tulip::hook::AbstractFunction::from<void, GJBaseGameLayer*, EndTriggerGameObject*, gd::vector<int> const&>(void (*)(GJBaseGameLayer*, EndTriggerGameObject*, gd::vector<int> const&))
PUBLIC 21db0 0 GJBaseGameLayer::toggleGlitter(bool)
PUBLIC 21db4 0 GJBaseGameLayer::timeForPos(cocos2d::CCPoint, int, int, bool, int)
PUBLIC 21dbc 0 GJBaseGameLayer::posForTime(float)
PUBLIC 21dc4 0 GJBaseGameLayer::resetSPTriggered()
PUBLIC 21dc8 0 GJBaseGameLayer::createCustomParticle(gd::string const&, cocos2d::ParticleStruct const&, int, bool)
PUBLIC 21f2c 0 tulip::hook::AbstractFunction::from<TodoReturnPlaceholder, GJBaseGameLayer*, gd::string const&, cocos2d::ParticleStruct const&, int, bool>(TodoReturnPlaceholder (*)(GJBaseGameLayer*, gd::string const&, cocos2d::ParticleStruct const&, int, bool))
PUBLIC 22090 0 GJBaseGameLayer::claimCustomParticle(gd::string const&, cocos2d::ParticleStruct const&, int, int, int, bool)
PUBLIC 2220c 0 tulip::hook::AbstractFunction::from<TodoReturnPlaceholder, GJBaseGameLayer*, gd::string const&, cocos2d::ParticleStruct const&, int, int, int, bool>(TodoReturnPlaceholder (*)(GJBaseGameLayer*, gd::string const&, cocos2d::ParticleStruct const&, int, int, int, bool))
PUBLIC 22384 0 GJBaseGameLayer::unclaimCustomParticle(gd::string const&, cocos2d::CCParticleSystemQuad*)
PUBLIC 224d0 0 tulip::hook::AbstractFunction::from<TodoReturnPlaceholder, GJBaseGameLayer*, gd::string const&, cocos2d::CCParticleSystemQuad*>(TodoReturnPlaceholder (*)(GJBaseGameLayer*, gd::string const&, cocos2d::CCParticleSystemQuad*))
PUBLIC 225d0 0 PlayLayer::~PlayLayer()
PUBLIC 22924 0 {virtual override thunk({offset(-320)}, PlayLayer::~PlayLayer())}
PUBLIC 2292c 0 PlayLayer::~PlayLayer()
PUBLIC 22950 0 {virtual override thunk({offset(-320)}, PlayLayer::~PlayLayer())}
PUBLIC 22978 0 PlayLayer::activatePlatformerEndTrigger(EndTriggerGameObject*, gd::vector<int> const&)
PUBLIC 22ac4 0 tulip::hook::AbstractFunction::from<void, PlayLayer*, EndTriggerGameObject*, gd::vector<int> const&>(void (*)(PlayLayer*, EndTriggerGameObject*, gd::vector<int> const&))
PUBLIC 22bc4 0 cocos2d::CCCopying::copyWithZone(cocos2d::CCZone*)
PUBLIC 22bcc 0 cocos2d::CCObject::update(float)
PUBLIC 22bd0 0 cocos2d::CCKeyboardDelegate::keyUp(cocos2d::enumKeyCodes)
PUBLIC 22bd4 0 cocos2d::CCMouseDelegate::rightKeyDown()
PUBLIC 22bd8 0 cocos2d::CCMouseDelegate::rightKeyUp()
PUBLIC 22bdc 0 cocos2d::CCMouseDelegate::scrollWheel(float, float)
PUBLIC 22be0 0 cocos2d::CCLayer::~CCLayer()
PUBLIC 22ea8 0 cocos2d::CCNode::~CCNode()
PUBLIC 23120 0 cocos2d::CCObject::~CCObject()
PUBLIC 235ec 0 _ZN5geode15UnwrapExceptionC2IRPvQsr4implE18IsStringStreamableIT_EEENS_4impl5OkTagEOS4_
PUBLIC 23740 0 _ZN5geode15UnwrapExceptionC2IRNSt6__ndk112basic_stringIcNS2_11char_traitsIcEENS2_9allocatorIcEEEEQsr4implE18IsStringStreamableIT_EEENS_4impl6ErrTagEOSA_
PUBLIC 238a8 0 std::__ndk1::__variant_detail::__visitation::__base::__dispatcher<(unsigned long)0>::__dispatch[abi:ne180000]<std::__ndk1::__variant_detail::__dtor<std::__ndk1::__variant_detail::__traits<void*, std::__ndk1::basic_string<char, std::__ndk1::char_traits<char>, std::__ndk1::allocator<char> > >, (std::__ndk1::__variant_detail::_Trait)1>::__destroy[abi:ne180000]()::{lambda(auto:1&)#1}, std::__ndk1::__variant_detail::__base<(std::__ndk1::__variant_detail::__traits<void*, std::__ndk1::basic_string<char, std::__ndk1::char_traits<char>, std::__ndk1::allocator<char> > >)1, std::__ndk1::__variant_detail::__traits, std::__ndk1::allocator<char> >&>(std::__ndk1::__variant_detail::__dtor<std::__ndk1::__variant_detail::__traits<void*, std::__ndk1::basic_string<char, std::__ndk1::char_traits<char>, std::__ndk1::allocator<char> > >, (std::__ndk1::__variant_detail::_Trait)1>, std::__ndk1::__variant_detail::__base<(std::__ndk1::__variant_detail::__traits<void*, std::__ndk1::basic_string<char, std::__ndk1::char_traits<char>, std::__ndk1::allocator<char> > >)1, std::__ndk1::__variant_detail::__traits, std::__ndk1::allocator<char> >&)
PUBLIC 238ac 0 std::__ndk1::__variant_detail::__visitation::__base::__dispatcher<(unsigned long)1>::__dispatch[abi:ne180000]<std::__ndk1::__variant_detail::__dtor<std::__ndk1::__variant_detail::__traits<void*, std::__ndk1::basic_string<char, std::__ndk1::char_traits<char>, std::__ndk1::allocator<char> > >, (std::__ndk1::__variant_detail::_Trait)1>::__destroy[abi:ne180000]()::{lambda(auto:1&)#1}, std::__ndk1::__variant_detail::__base<(std::__ndk1::__variant_detail::__traits<void*, std::__ndk1::basic_string<char, std::__ndk1::char_traits<char>, std::__ndk1::allocator<char> > >)1, std::__ndk1::__variant_detail::__traits, std::__ndk1::allocator<char> >&>(std::__ndk1::__variant_detail::__dtor<std::__ndk1::__variant_detail::__traits<void*, std::__ndk1::basic_string<char, std::__ndk1::char_traits<char>, std::__ndk1::allocator<char> > >, (std::__ndk1::__variant_detail::_Trait)1>, std::__ndk1::__variant_detail::__base<(std::__ndk1::__variant_detail::__traits<void*, std::__ndk1::basic_string<char, std::__ndk1::char_traits<char>, std::__ndk1::allocator<char> > >)1, std::__ndk1::__variant_detail::__traits, std::__ndk1::allocator<char> >&)
PUBLIC 238c0 0 std::__ndk1::__hash_table<std::__ndk1::__hash_value_type<void*, bool>, std::__ndk1::__unordered_map_hasher<void*, std::__ndk1::__hash_value_type<void*, bool>, std::__ndk1::hash<void*>, std::__ndk1::equal_to<void*>, true>, std::__ndk1::__unordered_map_equal<void*, std::__ndk1::__hash_value_type<void*, bool>, std::__ndk1::equal_to<void*>, std::__ndk1::hash<void*>, true>, std::__ndk1::allocator<std::__ndk1::__hash_value_type<void*, bool> > >::__emplace_unique_key_args<void*, std::__ndk1::piecewise_construct_t const&, std::__ndk1::tuple<void* const&>, std::__ndk1::tuple<> >(void* const&, std::__ndk1::piecewise_construct_t const&, std::__ndk1::tuple<void* const&>, std::__ndk1::tuple<>)
PUBLIC 23da0 0 __udivti3
PUBLIC 23dac 0 __udivmodti4
PUBLIC m 23ff8 0 __eqtf2
PUBLIC 24098 0 __unordtf2
PUBLIC 240d0 0 fmt::v11::detail::write_loc(fmt::v11::basic_appender<char>, fmt::v11::loc_value, fmt::v11::format_specs const&, fmt::v11::detail::locale_ref)
PUBLIC 24364 0 fmt::v11::format_facet<std::__ndk1::locale>::~format_facet()
PUBLIC 243e0 0 fmt::v11::report_error(char const*)
PUBLIC 24430 0 fmt::v11::format_facet<std::__ndk1::locale>::do_put(fmt::v11::basic_appender<char>, fmt::v11::loc_value, fmt::v11::format_specs const&) const
PUBLIC 24bf0 0 fmt::v11::detail::loc_writer<char>::~loc_writer()
PUBLIC 24c54 0 fmt::v11::detail::vformat_to<char>(fmt::v11::detail::buffer<char>&, fmt::v11::basic_string_view<char>, fmt::v11::detail::vformat_args<char>::type, fmt::v11::detail::locale_ref)
PUBLIC 251c4 0 fmt::v11::detail::is_printable(unsigned int)
PUBLIC 253ec 0 fmt::v11::detail::dragonbox::to_decimal<float>(float)
PUBLIC 256c8 0 fmt::v11::detail::dragonbox::to_decimal<double>(double)
PUBLIC 25c04 0 fmt::v11::format_facet<std::__ndk1::locale>::~format_facet()
PUBLIC 25c90 0 fmt::v11::detail::copy_noinline<char, char const*, fmt::v11::basic_appender<char> >(char const*, char const*, fmt::v11::basic_appender<char>)
PUBLIC 25de0 0 fmt::v11::detail::default_arg_formatter<char>::operator()<bool>(bool)
PUBLIC 25e48 0 fmt::v11::detail::default_arg_formatter<char>::operator()<char>(char)
PUBLIC 25ed8 0 fmt::v11::detail::default_arg_formatter<char>::operator()<float>(float)
PUBLIC 25fc4 0 fmt::v11::detail::default_arg_formatter<char>::operator()<double>(double)
PUBLIC 260b0 0 fmt::v11::detail::default_arg_formatter<char>::operator()<char const*>(char const*)
PUBLIC 260f8 0 fmt::v11::detail::default_arg_formatter<char>::operator()<void const*>(void const*)
PUBLIC 26190 0 _ZN3fmt3v116detail5writeIcNS0_14basic_appenderIcEEiTnNSt6__ndk19enable_ifIXaaaasr11is_integralIT1_EE5valuentsr3std7is_sameIS7_bEE5valuentsr3std7is_sameIS7_T_EE5valueEiE4typeELi0EEET0_SB_S7_
PUBLIC 263f0 0 fmt::v11::detail::copy_noinline<char, char*, fmt::v11::basic_appender<char> >(char*, char*, fmt::v11::basic_appender<char>)
PUBLIC 26540 0 _ZN3fmt3v116detail5writeIcNS0_14basic_appenderIcEEjTnNSt6__ndk19enable_ifIXaaaasr11is_integralIT1_EE5valuentsr3std7is_sameIS7_bEE5valuentsr3std7is_sameIS7_T_EE5valueEiE4typeELi0EEET0_SB_S7_
PUBLIC 26720 0 _ZN3fmt3v116detail5writeIcNS0_14basic_appenderIcEExTnNSt6__ndk19enable_ifIXaaaasr11is_integralIT1_EE5valuentsr3std7is_sameIS7_bEE5valuentsr3std7is_sameIS7_T_EE5valueEiE4typeELi0EEET0_SB_S7_
PUBLIC 269a4 0 _ZN3fmt3v116detail5writeIcNS0_14basic_appenderIcEEyTnNSt6__ndk19enable_ifIXaaaasr11is_integralIT1_EE5valuentsr3std7is_sameIS7_bEE5valuentsr3std7is_sameIS7_T_EE5valueEiE4typeELi0EEET0_SB_S7_
PUBLIC 26bac 0 _ZN3fmt3v116detail5writeIcNS0_14basic_appenderIcEEnTnNSt6__ndk19enable_ifIXaaaasr11is_integralIT1_EE5valuentsr3std7is_sameIS7_bEE5valuentsr3std7is_sameIS7_T_EE5valueEiE4typeELi0EEET0_SB_S7_
PUBLIC 26f0c 0 _ZN3fmt3v116detail5writeIcNS0_14basic_appenderIcEEoTnNSt6__ndk19enable_ifIXaaaasr11is_integralIT1_EE5valuentsr3std7is_sameIS7_bEE5valuentsr3std7is_sameIS7_T_EE5valueEiE4typeELi0EEET0_SB_S7_
PUBLIC 27220 0 _ZN3fmt3v116detail5writeIcNS0_14basic_appenderIcEEbTnNSt6__ndk19enable_ifIXsr3std7is_sameIT1_bEE5valueEiE4typeELi0EEET0_SA_S7_RKNS0_12format_specsENS1_10locale_refE
PUBLIC 274d4 0 fmt::v11::detail::write_int_noinline<char, fmt::v11::basic_appender<char>, unsigned int>(fmt::v11::basic_appender<char>, fmt::v11::detail::write_int_arg<unsigned int>, fmt::v11::format_specs const&, fmt::v11::detail::locale_ref)
PUBLIC 282b4 0 fmt::v11::detail::write_padded<char, (fmt::v11::align::type)1, fmt::v11::basic_appender<char>, fmt::v11::detail::write_char<char, fmt::v11::basic_appender<char> >(fmt::v11::basic_appender<char>, char, fmt::v11::format_specs const&)::{lambda(fmt::v11::basic_appender<char>&)#1}>(fmt::v11::basic_appender<char>, fmt::v11::format_specs const&, unsigned long, unsigned long, fmt::v11::detail::write_char<char, fmt::v11::basic_appender<char> >(fmt::v11::basic_appender<char>, char, fmt::v11::format_specs const&)::{lambda(fmt::v11::basic_appender<char>&)#1})
PUBLIC 28518 0 fmt::v11::detail::write_padded<char, (fmt::v11::align::type)1, fmt::v11::basic_appender<char>, fmt::v11::detail::write_nonfinite<char, fmt::v11::basic_appender<char> >(fmt::v11::basic_appender<char>, bool, fmt::v11::format_specs, fmt::v11::sign::type)::{lambda(fmt::v11::basic_appender<char>&)#1}>(fmt::v11::basic_appender<char>, fmt::v11::format_specs const&, unsigned long, unsigned long, fmt::v11::detail::write_nonfinite<char, fmt::v11::basic_appender<char> >(fmt::v11::basic_appender<char>, bool, fmt::v11::format_specs, fmt::v11::sign::type)::{lambda(fmt::v11::basic_appender<char>&)#1})
PUBLIC 28770 0 fmt::v11::detail::do_write_float<char, fmt::v11::basic_appender<char>, fmt::v11::detail::dragonbox::decimal_fp<float>, fmt::v11::detail::digit_grouping<char> >(fmt::v11::basic_appender<char>, fmt::v11::detail::dragonbox::decimal_fp<float> const&, fmt::v11::format_specs const&, fmt::v11::detail::float_specs, fmt::v11::detail::locale_ref)
PUBLIC 293f4 0 fmt::v11::detail::do_write_float<char, fmt::v11::basic_appender<char>, fmt::v11::detail::dragonbox::decimal_fp<float>, fmt::v11::detail::digit_grouping<char> >(fmt::v11::basic_appender<char>, fmt::v11::detail::dragonbox::decimal_fp<float> const&, fmt::v11::format_specs const&, fmt::v11::detail::float_specs, fmt::v11::detail::locale_ref)::{lambda(fmt::v11::basic_appender<char>(fmt::v11::basic_appender<char>))#1}::operator() const
PUBLIC 29548 0 fmt::v11::detail::digit_grouping<char>::digit_grouping(fmt::v11::detail::locale_ref, bool)
PUBLIC 297b4 0 fmt::v11::detail::digit_grouping<char>::~digit_grouping()
PUBLIC 297f8 0 fmt::v11::detail::write_exponent<char, fmt::v11::basic_appender<char> >(int, fmt::v11::basic_appender<char>)
PUBLIC 299c8 0 _ZN3fmt3v116detail17write_significandIcjTnNSt6__ndk19enable_ifIXsr3std11is_integralIT0_EE5valueEiE4typeELi0EEEPT_S9_S5_iiS8_
PUBLIC 29b44 0 std::__ndk1::basic_string<char, std::__ndk1::char_traits<char>, std::__ndk1::allocator<char> >::__assign_no_alias<true>(char const*, unsigned long)
PUBLIC 29bf0 0 std::__ndk1::basic_string<char, std::__ndk1::char_traits<char>, std::__ndk1::allocator<char> >::__assign_no_alias<false>(char const*, unsigned long)
PUBLIC 29d00 0 fmt::v11::detail::digit_grouping<char>::apply<fmt::v11::basic_appender<char>, char>(fmt::v11::basic_appender<char>, fmt::v11::basic_string_view<char>) const
PUBLIC 2a0b8 0 fmt::v11::basic_memory_buffer<int, (unsigned long)500, std::__ndk1::allocator<int> >::grow(fmt::v11::detail::buffer<int>&, unsigned long)
PUBLIC 2a158 0 fmt::v11::detail::do_write_float<char, fmt::v11::basic_appender<char>, fmt::v11::detail::dragonbox::decimal_fp<double>, fmt::v11::detail::digit_grouping<char> >(fmt::v11::basic_appender<char>, fmt::v11::detail::dragonbox::decimal_fp<double> const&, fmt::v11::format_specs const&, fmt::v11::detail::float_specs, fmt::v11::detail::locale_ref)
PUBLIC 2ae18 0 fmt::v11::detail::do_write_float<char, fmt::v11::basic_appender<char>, fmt::v11::detail::dragonbox::decimal_fp<double>, fmt::v11::detail::digit_grouping<char> >(fmt::v11::basic_appender<char>, fmt::v11::detail::dragonbox::decimal_fp<double> const&, fmt::v11::format_specs const&, fmt::v11::detail::float_specs, fmt::v11::detail::locale_ref)::{lambda(fmt::v11::basic_appender<char>(fmt::v11::basic_appender<char>))#1}::operator() const
PUBLIC 2af70 0 _ZN3fmt3v116detail17write_significandIcmTnNSt6__ndk19enable_ifIXsr3std11is_integralIT0_EE5valueEiE4typeELi0EEEPT_S9_S5_iiS8_
PUBLIC 2b100 0 fmt::v11::detail::write_float<char, fmt::v11::basic_appender<char>, long double>(fmt::v11::basic_appender<char>, long double, fmt::v11::format_specs, fmt::v11::detail::locale_ref)
PUBLIC 2bbf8 0 fmt::v11::detail::write_padded<char, (fmt::v11::align::type)2, fmt::v11::basic_appender<char>, fmt::v11::detail::write_bytes<char, (fmt::v11::align::type)2, fmt::v11::basic_appender<char> >(fmt::v11::basic_appender<char>, fmt::v11::basic_string_view<char>, fmt::v11::format_specs const&)::{lambda(fmt::v11::basic_appender<char>&)#1}>(fmt::v11::basic_appender<char>, fmt::v11::format_specs const&, unsigned long, unsigned long, fmt::v11::detail::write_bytes<char, (fmt::v11::align::type)2, fmt::v11::basic_appender<char> >(fmt::v11::basic_appender<char>, fmt::v11::basic_string_view<char>, fmt::v11::format_specs const&)::{lambda(fmt::v11::basic_appender<char>&)#1})
PUBLIC 2bdec 0 fmt::v11::detail::format_dragon(fmt::v11::detail::basic_fp<unsigned __int128>, unsigned int, int, fmt::v11::detail::buffer<char>&, int&)
PUBLIC 2d21c 0 fmt::v11::detail::bigint::operator<<=(int)
PUBLIC 2d340 0 fmt::v11::detail::bigint::assign_pow10(int)
PUBLIC 2da9c 0 fmt::v11::detail::bigint::divmod_assign(fmt::v11::detail::bigint const&)
PUBLIC 2ddbc 0 fmt::v11::basic_memory_buffer<unsigned int, (unsigned long)32, std::__ndk1::allocator<unsigned int> >::grow(fmt::v11::detail::buffer<unsigned int>&, unsigned long)
PUBLIC 2de5c 0 fmt::v11::detail::do_write_float<char, fmt::v11::basic_appender<char>, fmt::v11::detail::big_decimal_fp, fmt::v11::detail::digit_grouping<char> >(fmt::v11::basic_appender<char>, fmt::v11::detail::big_decimal_fp const&, fmt::v11::format_specs const&, fmt::v11::detail::float_specs, fmt::v11::detail::locale_ref)
PUBLIC 2ed3c 0 fmt::v11::detail::do_write_float<char, fmt::v11::basic_appender<char>, fmt::v11::detail::big_decimal_fp, fmt::v11::detail::digit_grouping<char> >(fmt::v11::basic_appender<char>, fmt::v11::detail::big_decimal_fp const&, fmt::v11::format_specs const&, fmt::v11::detail::float_specs, fmt::v11::detail::locale_ref)::{lambda(fmt::v11::basic_appender<char>(fmt::v11::basic_appender<char>))#1}::operator() const
PUBLIC 2ee9c 0 fmt::v11::detail::write_padded<char, (fmt::v11::align::type)2, fmt::v11::basic_appender<char>, fmt::v11::detail::write_ptr<char, fmt::v11::basic_appender<char>, unsigned long>(fmt::v11::basic_appender<char>, unsigned long, fmt::v11::format_specs const*)::{lambda(fmt::v11::basic_appender<char>&)#1}>(fmt::v11::basic_appender<char>, fmt::v11::format_specs const&, unsigned long, unsigned long, fmt::v11::detail::write_ptr<char, fmt::v11::basic_appender<char>, unsigned long>(fmt::v11::basic_appender<char>, unsigned long, fmt::v11::format_specs const*)::{lambda(fmt::v11::basic_appender<char>&)#1})
PUBLIC 2f0b0 0 fmt::v11::detail::parse_replacement_field<char, fmt::v11::detail::vformat_to<char>(fmt::v11::detail::buffer<char>&, fmt::v11::basic_string_view<char>, fmt::v11::detail::vformat_args<char>::type, fmt::v11::detail::locale_ref)::format_handler&>(char const*, char const*, fmt::v11::detail::vformat_to<char>(fmt::v11::detail::buffer<char>&, fmt::v11::basic_string_view<char>, fmt::v11::detail::vformat_args<char>::type, fmt::v11::detail::locale_ref)::format_handler&)
PUBLIC 30a74 0 fmt::v11::detail::write_int_noinline<char, fmt::v11::basic_appender<char>, unsigned long>(fmt::v11::basic_appender<char>, fmt::v11::detail::write_int_arg<unsigned long>, fmt::v11::format_specs const&, fmt::v11::detail::locale_ref)
PUBLIC 318d4 0 fmt::v11::detail::write_int_noinline<char, fmt::v11::basic_appender<char>, unsigned __int128>(fmt::v11::basic_appender<char>, fmt::v11::detail::write_int_arg<unsigned __int128>, fmt::v11::format_specs const&, fmt::v11::detail::locale_ref)
PUBLIC 32964 0 _ZN3fmt3v116detail15format_hexfloatIdTnNSt6__ndk19enable_ifIXntsr16is_double_doubleIT_EE5valueEiE4typeELi0EEEvS5_NS0_12format_specsERNS1_6bufferIcEE
PUBLIC 32e84 0 fmt::v11::detail::format_float<double>(double, int, fmt::v11::detail::float_specs, fmt::v11::detail::buffer<char>&)
PUBLIC 33824 0 fmt::v11::detail::write_int<fmt::v11::basic_appender<char>, unsigned long, char>(fmt::v11::basic_appender<char>, unsigned long, unsigned int, fmt::v11::format_specs const&, fmt::v11::detail::digit_grouping<char> const&)
PUBLIC 33da0 0 fmt::v11::detail::write_int<fmt::v11::basic_appender<char>, unsigned __int128, char>(fmt::v11::basic_appender<char>, unsigned __int128, unsigned int, fmt::v11::format_specs const&, fmt::v11::detail::digit_grouping<char> const&)
PUBLIC 34420 0 <.plt ELF section in techstudent10.attempt_utils.android64.so>
STACK CFI INIT 13630 10 .cfa: sp 0 +
STACK CFI INIT 13640 8 .cfa: sp 0 +
STACK CFI INIT 13648 8 .cfa: sp 0 +
STACK CFI INIT 13650 14 .cfa: sp 0 +
STACK CFI INIT 13664 1c .cfa: sp 0 +
STACK CFI INIT 13680 10 .cfa: sp 0 +
STACK CFI INIT 13690 30 .cfa: sp 0 +
STACK CFI INIT 136c0 98 .cfa: sp 0 +
STACK CFI INIT 13758 59c .cfa: sp 0 +
STACK CFI INIT 13cf4 8c .cfa: sp 0 +
STACK CFI INIT 13d80 30 .cfa: sp 0 +
STACK CFI INIT 1420c 18 .cfa: sp 0 +
STACK CFI INIT 146a8 18 .cfa: sp 0 +
STACK CFI INIT 14d08 50 .cfa: sp 0 +
STACK CFI 14d0c .cfa: sp 32 +
STACK CFI 14d14 .cfa: x29 32 + x19: .cfa -16 + ^ .ra: .cfa -24 + ^ x29: .cfa -32 + ^
STACK CFI 14d2c .cfa: sp 32 +
STACK CFI 14d34 .cfa: sp 0 +
STACK CFI 14d38 .cfa: x29 32 +
STACK CFI 14d4c .cfa: sp 32 +
STACK CFI 14d54 .cfa: sp 0 +
STACK CFI INIT 14dcc 7c .cfa: sp 0 +
STACK CFI 14dd0 .cfa: sp 48 +
STACK CFI 14ddc .cfa: x29 48 + x19: .cfa -8 + ^ x20: .cfa -16 + ^ x21: .cfa -32 + ^ .ra: .cfa -40 + ^ x29: .cfa -48 + ^
STACK CFI 14e28 .cfa: sp 48 +
STACK CFI 14e34 .cfa: sp 0 +
STACK CFI 14e38 .cfa: sp 48 +
STACK CFI 14e44 .cfa: sp 0 +
STACK CFI INIT 14e48 4 .cfa: sp 0 +
STACK CFI INIT 14e4c 10 .cfa: sp 0 +
STACK CFI 14e50 .cfa: sp 16 +
STACK CFI 14e54 .cfa: x29 16 + .ra: .cfa -8 + ^ x29: .cfa -16 + ^
STACK CFI INIT 14fb0 34 .cfa: sp 0 +
STACK CFI 14fb4 .cfa: sp 16 +
STACK CFI 14fb8 .cfa: x29 16 + .ra: .cfa -8 + ^ x29: .cfa -16 + ^
STACK CFI INIT 15110 80 .cfa: sp 0 +
STACK CFI 15114 .cfa: sp 48 +
STACK CFI 15120 .cfa: x29 48 + x19: .cfa -8 + ^ x20: .cfa -16 + ^ x21: .cfa -32 + ^ .ra: .cfa -40 + ^ x29: .cfa -48 + ^
STACK CFI 15180 .cfa: sp 48 +
STACK CFI 1518c .cfa: sp 0 +
STACK CFI INIT 15190 24 .cfa: sp 0 +
STACK CFI 15194 .cfa: sp 32 +
STACK CFI 1519c .cfa: x29 32 + x19: .cfa -16 + ^ .ra: .cfa -24 + ^ x29: .cfa -32 + ^
STACK CFI 151a8 .cfa: sp 32 +
STACK CFI 151b0 .cfa: sp 0 +
STACK CFI INIT 15534 14 .cfa: sp 0 +
STACK CFI 15538 .cfa: sp 16 +
STACK CFI 1553c .cfa: x29 16 + .ra: .cfa -8 + ^ x29: .cfa -16 + ^
STACK CFI INIT 15598 30 .cfa: sp 0 +
STACK CFI 1559c .cfa: sp 32 +
STACK CFI 155a4 .cfa: x29 32 + x19: .cfa -16 + ^ .ra: .cfa -24 + ^ x29: .cfa -32 + ^
STACK CFI 155bc .cfa: sp 32 +
STACK CFI 155c4 .cfa: sp 0 +
STACK CFI INIT 155c8 34 .cfa: sp 0 +
STACK CFI 155cc .cfa: sp 32 +
STACK CFI 155d4 .cfa: x29 32 + x19: .cfa -16 + ^ .ra: .cfa -24 + ^ x29: .cfa -32 + ^
STACK CFI INIT 15774 148 .cfa: sp 0 +
STACK CFI 15778 .cfa: sp 48 +
STACK CFI 15784 .cfa: x29 48 + x19: .cfa -8 + ^ x20: .cfa -16 + ^ x21: .cfa -32 + ^ .ra: .cfa -40 + ^ x29: .cfa -48 + ^
STACK CFI 158ac .cfa: sp 48 +
STACK CFI 158b8 .cfa: sp 0 +
STACK CFI INIT 15ae0 80 .cfa: sp 0 +
STACK CFI 15ae4 .cfa: sp 48 +
STACK CFI 15af0 .cfa: x29 48 + x19: .cfa -8 + ^ x20: .cfa -16 + ^ x21: .cfa -24 + ^ x22: .cfa -32 + ^ .ra: .cfa -40 + ^ x29: .cfa -48 + ^
STACK CFI 15b08 .cfa: sp 48 +
STACK CFI 15b14 .cfa: sp 0 +
STACK CFI 15b18 .cfa: x29 48 +
STACK CFI 15b48 .cfa: sp 48 +
STACK CFI 15b54 .cfa: sp 0 +
STACK CFI 15b58 .cfa: x29 48 +
STACK CFI INIT 15b60 68 .cfa: sp 0 +
STACK CFI 15b64 .cfa: sp 32 +
STACK CFI 15b6c .cfa: x29 32 + x19: .cfa -8 + ^ x20: .cfa -16 + ^ .ra: .cfa -24 + ^ x29: .cfa -32 + ^
STACK CFI 15b84 .cfa: sp 32 +
STACK CFI 15b8c .cfa: sp 0 +
STACK CFI 15b90 .cfa: x29 32 +
STACK CFI 15bbc .cfa: sp 32 +
STACK CFI 15bc4 .cfa: sp 0 +
STACK CFI INIT 15bc8 14 .cfa: sp 0 +
STACK CFI 15bcc .cfa: sp 16 +
STACK CFI 15bd0 .cfa: x29 16 + .ra: .cfa -8 + ^ x29: .cfa -16 + ^
STACK CFI INIT 15bdc 4 .cfa: sp 0 +
STACK CFI INIT 15be0 14 .cfa: sp 0 +
STACK CFI INIT 15bf4 120 .cfa: sp 0 +
STACK CFI 15bf8 .cfa: sp 64 +
STACK CFI 15c08 .cfa: x29 64 + x19: .cfa -8 + ^ x20: .cfa -16 + ^ x21: .cfa -24 + ^ x22: .cfa -32 + ^ x23: .cfa -40 + ^ x24: .cfa -48 + ^ .ra: .cfa -56 + ^ x29: .cfa -64 + ^
STACK CFI 15d00 .cfa: sp 64 +
STACK CFI 15d10 .cfa: sp 0 +
STACK CFI INIT 15d14 4a4 .cfa: sp 0 +
STACK CFI 15d18 .cfa: sp 32 +
STACK CFI 15d20 .cfa: x29 32 + x19: .cfa -8 + ^ x20: .cfa -16 + ^ .ra: .cfa -24 + ^ x29: .cfa -32 + ^
STACK CFI 16100 .cfa: sp 32 +
STACK CFI 16108 .cfa: sp 0 +
STACK CFI 1610c .cfa: x29 32 +
STACK CFI INIT 161b8 84 .cfa: sp 0 +
STACK CFI 161c0 .cfa: sp 32 +
STACK CFI 161c8 .cfa: x29 32 + x19: .cfa -8 + ^ x20: .cfa -16 + ^ .ra: .cfa -24 + ^ x29: .cfa -32 + ^
STACK CFI 16208 .cfa: sp 32 +
STACK CFI 16210 .cfa: sp 0 +
STACK CFI 16218 .cfa: x29 32 +
STACK CFI INIT 17864 78 .cfa: sp 0 +
STACK CFI 17868 .cfa: sp 48 +
STACK CFI 17874 .cfa: x29 48 + x19: .cfa -8 + ^ x20: .cfa -16 + ^ x21: .cfa -32 + ^ .ra: .cfa -40 + ^ x29: .cfa -48 + ^
STACK CFI 178bc .cfa: sp 48 +
STACK CFI 178c8 .cfa: sp 0 +
STACK CFI 178cc .cfa: sp 48 +
STACK CFI 178d8 .cfa: sp 0 +
STACK CFI INIT 178dc 78 .cfa: sp 0 +
STACK CFI 178e0 .cfa: sp 48 +
STACK CFI 178ec .cfa: x29 48 + x19: .cfa -8 + ^ x20: .cfa -16 + ^ x21: .cfa -32 + ^ .ra: .cfa -40 + ^ x29: .cfa -48 + ^
STACK CFI 17934 .cfa: sp 48 +
STACK CFI 17940 .cfa: sp 0 +
STACK CFI 17944 .cfa: sp 48 +
STACK CFI 17950 .cfa: sp 0 +
STACK CFI INIT 17954 84 .cfa: sp 0 +
STACK CFI 17958 .cfa: sp 48 +
STACK CFI 17964 .cfa: x29 48 + x19: .cfa -8 + ^ x20: .cfa -16 + ^ x21: .cfa -24 + ^ x22: .cfa -32 + ^ .ra: .cfa -40 + ^ x29: .cfa -48 + ^
STACK CFI 179b8 .cfa: sp 48 +
STACK CFI 179c4 .cfa: sp 0 +
STACK CFI 179c8 .cfa: sp 48 +
STACK CFI 179d4 .cfa: sp 0 +
STACK CFI INIT 179f4 8c .cfa: sp 0 +
STACK CFI 179f8 .cfa: sp 48 +
STACK CFI 17a04 .cfa: x29 48 + x19: .cfa -8 + ^ x20: .cfa -16 + ^ x21: .cfa -24 + ^ x22: .cfa -32 + ^ .ra: .cfa -40 + ^ x29: .cfa -48 + ^
STACK CFI 17a3c .cfa: sp 48 +
STACK CFI 17a48 .cfa: sp 0 +
STACK CFI 17a4c .cfa: x29 48 +
STACK CFI 17a70 .cfa: sp 48 +
STACK CFI 17a7c .cfa: sp 0 +
STACK CFI INIT 17a80 78 .cfa: sp 0 +
STACK CFI 17a84 .cfa: sp 48 +
STACK CFI 17a90 .cfa: x29 48 + x19: .cfa -8 + ^ x20: .cfa -16 + ^ x21: .cfa -32 + ^ .ra: .cfa -40 + ^ x29: .cfa -48 + ^
STACK CFI 17ad8 .cfa: sp 48 +
STACK CFI 17ae4 .cfa: sp 0 +
STACK CFI 17ae8 .cfa: sp 48 +
STACK CFI 17af4 .cfa: sp 0 +
STACK CFI INIT 17af8 8c .cfa: sp 0 +
STACK CFI 17afc .cfa: sp 48 +
STACK CFI 17b08 .cfa: x29 48 + x19: .cfa -8 + ^ x20: .cfa -16 + ^ x21: .cfa -24 + ^ x22: .cfa -32 + ^ .ra: .cfa -40 + ^ x29: .cfa -48 + ^
STACK CFI 17b40 .cfa: sp 48 +
STACK CFI 17b4c .cfa: sp 0 +
STACK CFI 17b50 .cfa: x29 48 +
STACK CFI 17b74 .cfa: sp 48 +
STACK CFI 17b80 .cfa: sp 0 +
STACK CFI INIT 17b84 78 .cfa: sp 0 +
STACK CFI 17b88 .cfa: sp 48 +
STACK CFI 17b94 .cfa: x29 48 + x19: .cfa -8 + ^ x20: .cfa -16 + ^ x21: .cfa -32 + ^ .ra: .cfa -40 + ^ x29: .cfa -48 + ^
STACK CFI 17bdc .cfa: sp 48 +
STACK CFI 17be8 .cfa: sp 0 +
STACK CFI 17bec .cfa: sp 48 +
STACK CFI 17bf8 .cfa: sp 0 +
STACK CFI INIT 17bfc 104 .cfa: sp 0 +
STACK CFI 17c00 .cfa: sp 64 +
STACK CFI 17c10 .cfa: x29 64 + x19: .cfa -8 + ^ x20: .cfa -16 + ^ x21: .cfa -24 + ^ x22: .cfa -32 + ^ x23: .cfa -48 + ^ .ra: .cfa -56 + ^ x29: .cfa -64 + ^
STACK CFI 17cd8 .cfa: sp 64 +
STACK CFI 17ce8 .cfa: sp 0 +
STACK CFI 17cec .cfa: sp 64 +
STACK CFI 17cfc .cfa: sp 0 +
STACK CFI INIT 180f8 78 .cfa: sp 0 +
STACK CFI 180fc .cfa: sp 48 +
STACK CFI 18108 .cfa: x29 48 + x19: .cfa -8 + ^ x20: .cfa -16 + ^ x21: .cfa -32 + ^ .ra: .cfa -40 + ^ x29: .cfa -48 + ^
STACK CFI 18150 .cfa: sp 48 +
STACK CFI 1815c .cfa: sp 0 +
STACK CFI 18160 .cfa: sp 48 +
STACK CFI 1816c .cfa: sp 0 +
STACK CFI INIT 1818c 90 .cfa: sp 0 +
STACK CFI 18190 .cfa: sp 48 +
STACK CFI 1819c .cfa: x29 48 + x19: .cfa -8 + ^ x20: .cfa -16 + ^ x21: .cfa -24 + ^ x22: .cfa -32 + ^ .ra: .cfa -40 + ^ x29: .cfa -48 + ^
STACK CFI 181d4 .cfa: sp 48 +
STACK CFI 181e0 .cfa: sp 0 +
STACK CFI 181e4 .cfa: x29 48 +
STACK CFI 1820c .cfa: sp 48 +
STACK CFI 18218 .cfa: sp 0 +
STACK CFI INIT 182b4 3c .cfa: sp 0 +
STACK CFI 182b8 .cfa: sp 32 +
STACK CFI 182c0 .cfa: x29 32 + x19: .cfa -16 + ^ .ra: .cfa -24 + ^ x29: .cfa -32 + ^
STACK CFI 182d8 .cfa: sp 32 +
STACK CFI 182e0 .cfa: sp 0 +
STACK CFI 182e4 .cfa: sp 32 +
STACK CFI 182ec .cfa: sp 0 +
STACK CFI INIT 18328 78 .cfa: sp 0 +
STACK CFI 1832c .cfa: sp 48 +
STACK CFI 18338 .cfa: x29 48 + x19: .cfa -8 + ^ x20: .cfa -16 + ^ x21: .cfa -32 + ^ .ra: .cfa -40 + ^ x29: .cfa -48 + ^
STACK CFI 18380 .cfa: sp 48 +
STACK CFI 1838c .cfa: sp 0 +
STACK CFI 18390 .cfa: sp 48 +
STACK CFI 1839c .cfa: sp 0 +
STACK CFI INIT 183a0 78 .cfa: sp 0 +
STACK CFI 183a4 .cfa: sp 48 +
STACK CFI 183b0 .cfa: x29 48 + x19: .cfa -8 + ^ x20: .cfa -16 + ^ x21: .cfa -32 + ^ .ra: .cfa -40 + ^ x29: .cfa -48 + ^
STACK CFI 183f8 .cfa: sp 48 +
STACK CFI 18404 .cfa: sp 0 +
STACK CFI 18408 .cfa: sp 48 +
STACK CFI 18414 .cfa: sp 0 +
STACK CFI INIT 18418 78 .cfa: sp 0 +
STACK CFI 1841c .cfa: sp 48 +
STACK CFI 18428 .cfa: x29 48 + x19: .cfa -8 + ^ x20: .cfa -16 + ^ x21: .cfa -32 + ^ .ra: .cfa -40 + ^ x29: .cfa -48 + ^
STACK CFI 18470 .cfa: sp 48 +
STACK CFI 1847c .cfa: sp 0 +
STACK CFI 18480 .cfa: sp 48 +
STACK CFI 1848c .cfa: sp 0 +
STACK CFI INIT 18490 78 .cfa: sp 0 +
STACK CFI 18494 .cfa: sp 48 +
STACK CFI 184a0 .cfa: x29 48 + x19: .cfa -8 + ^ x20: .cfa -16 + ^ x21: .cfa -32 + ^ .ra: .cfa -40 + ^ x29: .cfa -48 + ^
STACK CFI 184e8 .cfa: sp 48 +
STACK CFI 184f4 .cfa: sp 0 +
STACK CFI 184f8 .cfa: sp 48 +
STACK CFI 18504 .cfa: sp 0 +
STACK CFI INIT 186d4 2b8 .cfa: sp 0 +
STACK CFI 186d8 .cfa: sp 80 +
STACK CFI 186ec .cfa: x29 80 + x19: .cfa -8 + ^ x20: .cfa -16 + ^ x21: .cfa -24 + ^ x22: .cfa -32 + ^ x23: .cfa -40 + ^ x24: .cfa -48 + ^ x25: .cfa -64 + ^ .ra: .cfa -72 + ^ x29: .cfa -80 + ^
STACK CFI 18898 .cfa: sp 80 +
STACK CFI 188ac .cfa: sp 0 +
STACK CFI 188b0 .cfa: x29 80 +
STACK CFI 18974 .cfa: sp 80 +
STACK CFI 18988 .cfa: sp 0 +
STACK CFI INIT 1898c 80 .cfa: sp 0 +
STACK CFI 18990 .cfa: sp 48 +
STACK CFI 1899c .cfa: x29 48 + x19: .cfa -8 + ^ x20: .cfa -16 + ^ x21: .cfa -32 + ^ .ra: .cfa -40 + ^ x29: .cfa -48 + ^
STACK CFI 189ec .cfa: sp 48 +
STACK CFI 189f8 .cfa: sp 0 +
STACK CFI 189fc .cfa: sp 48 +
STACK CFI 18a08 .cfa: sp 0 +
STACK CFI INIT 18a0c 80 .cfa: sp 0 +
STACK CFI 18a10 .cfa: sp 48 +
STACK CFI 18a1c .cfa: x29 48 + x19: .cfa -8 + ^ x20: .cfa -16 + ^ x21: .cfa -32 + ^ .ra: .cfa -40 + ^ x29: .cfa -48 + ^
STACK CFI 18a6c .cfa: sp 48 +
STACK CFI 18a78 .cfa: sp 0 +
STACK CFI 18a7c .cfa: sp 48 +
STACK CFI 18a88 .cfa: sp 0 +
STACK CFI INIT 18c2c 2b8 .cfa: sp 0 +
STACK CFI INIT 18ee4 1bc .cfa: sp 0 +
STACK CFI 18ee8 .cfa: sp 64 +
STACK CFI 18ef8 .cfa: x29 64 + x19: .cfa -8 + ^ x20: .cfa -16 + ^ x21: .cfa -24 + ^ x22: .cfa -32 + ^ x23: .cfa -48 + ^ .ra: .cfa -56 + ^ x29: .cfa -64 + ^
STACK CFI 18fe8 .cfa: sp 64 +
STACK CFI 18ff8 .cfa: sp 0 +
STACK CFI 18ffc .cfa: x29 64 +
STACK CFI INIT 190a0 80 .cfa: sp 0 +
STACK CFI 190a4 .cfa: sp 48 +
STACK CFI 190b0 .cfa: x29 48 + x19: .cfa -8 + ^ x20: .cfa -16 + ^ x21: .cfa -32 + ^ .ra: .cfa -40 + ^ x29: .cfa -48 + ^
STACK CFI 19100 .cfa: sp 48 +
STACK CFI 1910c .cfa: sp 0 +
STACK CFI 19110 .cfa: sp 48 +
STACK CFI 1911c .cfa: sp 0 +
STACK CFI INIT 19120 98 .cfa: sp 0 +
STACK CFI 19128 .cfa: sp 48 +
STACK CFI 19134 .cfa: x29 48 + x19: .cfa -8 + ^ x20: .cfa -16 + ^ x21: .cfa -32 + ^ .ra: .cfa -40 + ^ x29: .cfa -48 + ^
STACK CFI 19184 .cfa: sp 0 + x19: x19 x20: x20 x21: x21 .ra: x30 x29: x29
STACK CFI 19188 .cfa: x29 48 + x19: .cfa -8 + ^ x20: .cfa -16 + ^ x21: .cfa -32 + ^ .ra: .cfa -40 + ^ x29: .cfa -48 + ^
STACK CFI 191a8 .cfa: sp 48 +
STACK CFI 191b4 .cfa: sp 0 +
STACK CFI INIT 191b8 54 .cfa: sp 0 +
STACK CFI 191c0 .cfa: sp 32 +
STACK CFI 191c8 .cfa: x29 32 + x19: .cfa -8 + ^ x20: .cfa -16 + ^ .ra: .cfa -24 + ^ x29: .cfa -32 + ^
STACK CFI 19200 .cfa: sp 32 +
STACK CFI 19208 .cfa: sp 0 +
STACK CFI INIT 1920c 54 .cfa: sp 0 +
STACK CFI 19214 .cfa: sp 32 +
STACK CFI 1921c .cfa: x29 32 + x19: .cfa -8 + ^ x20: .cfa -16 + ^ .ra: .cfa -24 + ^ x29: .cfa -32 + ^
STACK CFI 19254 .cfa: sp 32 +
STACK CFI 1925c .cfa: sp 0 +
STACK CFI INIT 19308 54 .cfa: sp 0 +
STACK CFI 19310 .cfa: sp 32 +
STACK CFI 19318 .cfa: x29 32 + x19: .cfa -8 + ^ x20: .cfa -16 + ^ .ra: .cfa -24 + ^ x29: .cfa -32 + ^
STACK CFI 19350 .cfa: sp 32 +
STACK CFI 19358 .cfa: sp 0 +
STACK CFI INIT 1935c a8 .cfa: sp 0 +
STACK CFI 19364 .cfa: sp 48 +
STACK CFI 19370 .cfa: x29 48 + x19: .cfa -8 + ^ x20: .cfa -16 + ^ x21: .cfa -24 + ^ x22: .cfa -32 + ^ .ra: .cfa -40 + ^ x29: .cfa -48 + ^
STACK CFI 193f4 .cfa: sp 48 +
STACK CFI 19400 .cfa: sp 0 +
STACK CFI INIT 19404 54 .cfa: sp 0 +
STACK CFI 1940c .cfa: sp 32 +
STACK CFI 19414 .cfa: x29 32 + x19: .cfa -8 + ^ x20: .cfa -16 + ^ .ra: .cfa -24 + ^ x29: .cfa -32 + ^
STACK CFI 1944c .cfa: sp 32 +
STACK CFI 19454 .cfa: sp 0 +
STACK CFI INIT 19458 50 .cfa: sp 0 +
STACK CFI 1945c .cfa: sp 32 +
STACK CFI 19464 .cfa: x29 32 + x19: .cfa -16 + ^ .ra: .cfa -24 + ^ x29: .cfa -32 + ^
STACK CFI 1947c .cfa: sp 32 +
STACK CFI 19484 .cfa: sp 0 +
STACK CFI 19488 .cfa: x29 32 +
STACK CFI 1949c .cfa: sp 32 +
STACK CFI 194a4 .cfa: sp 0 +
STACK CFI INIT 194a8 64 .cfa: sp 0 +
STACK CFI 194ac .cfa: sp 32 +
STACK CFI 194b4 .cfa: x29 32 + x19: .cfa -16 + ^ .ra: .cfa -24 + ^ x29: .cfa -32 + ^
STACK CFI 194e0 .cfa: sp 32 +
STACK CFI 194e8 .cfa: sp 0 +
STACK CFI 194ec .cfa: x29 32 +
STACK CFI 19500 .cfa: sp 32 +
STACK CFI 19508 .cfa: sp 0 +
STACK CFI INIT 1950c 130 .cfa: sp 0 +
STACK CFI 19510 .cfa: sp 80 +
STACK CFI 19520 .cfa: x29 48 + x19: .cfa -8 + ^ x20: .cfa -16 + ^ x21: .cfa -24 + ^ x22: .cfa -32 + ^ .ra: .cfa -40 + ^ x29: .cfa -48 + ^
STACK CFI 19624 .cfa: sp 80 +
STACK CFI 19634 .cfa: sp 0 +
STACK CFI 19638 .cfa: x29 48 +
STACK CFI INIT 1963c f8 .cfa: sp 0 +
STACK CFI 19640 .cfa: sp 64 +
STACK CFI 19650 .cfa: x29 64 + x19: .cfa -8 + ^ x20: .cfa -16 + ^ x21: .cfa -24 + ^ x22: .cfa -32 + ^ x23: .cfa -48 + ^ .ra: .cfa -56 + ^ x29: .cfa -64 + ^
STACK CFI 196ac .cfa: sp 64 +
STACK CFI 196bc .cfa: sp 0 +
STACK CFI 196c0 .cfa: x29 64 +
STACK CFI 196dc .cfa: sp 64 +
STACK CFI 196ec .cfa: sp 0 +
STACK CFI 196f0 .cfa: x29 64 +
STACK CFI 19720 .cfa: sp 64 +
STACK CFI 19730 .cfa: sp 0 +
STACK CFI INIT 1abd8 1a4 .cfa: sp 0 +
STACK CFI 1abdc .cfa: sp 64 +
STACK CFI 1abe8 .cfa: x29 32 + x19: .cfa -8 + ^ x20: .cfa -16 + ^ .ra: .cfa -24 + ^ x29: .cfa -32 + ^
STACK CFI 1ad14 .cfa: sp 64 +
STACK CFI 1ad20 .cfa: sp 0 +
STACK CFI 1ad24 .cfa: x29 32 +
STACK CFI INIT 1ad7c 194 .cfa: sp 0 +
STACK CFI 1ad80 .cfa: sp 16 +
STACK CFI 1ad84 .cfa: x29 16 + .ra: .cfa -8 + ^ x29: .cfa -16 + ^
STACK CFI 1ae1c .cfa: sp 16 +
STACK CFI 1ae20 .cfa: sp 0 +
STACK CFI 1ae24 .cfa: x29 16 +
STACK CFI 1aef0 .cfa: sp 16 +
STACK CFI 1aef4 .cfa: sp 0 +
STACK CFI 1aef8 .cfa: x29 16 +
STACK CFI INIT 1af10 2c .cfa: sp 0 +
STACK CFI 1af14 .cfa: sp 32 +
STACK CFI 1af1c .cfa: x29 32 + x19: .cfa -16 + ^ .ra: .cfa -24 + ^ x29: .cfa -32 + ^
STACK CFI 1af30 .cfa: sp 32 +
STACK CFI 1af38 .cfa: sp 0 +
STACK CFI INIT 1af3c 24 .cfa: sp 0 +
STACK CFI 1af40 .cfa: sp 32 +
STACK CFI 1af48 .cfa: x29 32 + x19: .cfa -16 + ^ .ra: .cfa -24 + ^ x29: .cfa -32 + ^
STACK CFI 1af54 .cfa: sp 32 +
STACK CFI 1af5c .cfa: sp 0 +
STACK CFI INIT 1afb0 114 .cfa: sp 0 +
STACK CFI 1afb4 .cfa: sp 128 +
STACK CFI 1afc4 .cfa: x29 48 + x19: .cfa -8 + ^ x20: .cfa -16 + ^ x21: .cfa -32 + ^ .ra: .cfa -40 + ^ x29: .cfa -48 + ^
STACK CFI 1b090 .cfa: sp 128 +
STACK CFI 1b0a0 .cfa: sp 0 +
STACK CFI 1b0a4 .cfa: x29 48 +
STACK CFI INIT 1b0c4 114 .cfa: sp 0 +
STACK CFI 1b0c8 .cfa: sp 128 +
STACK CFI 1b0d8 .cfa: x29 48 + x19: .cfa -8 + ^ x20: .cfa -16 + ^ x21: .cfa -32 + ^ .ra: .cfa -40 + ^ x29: .cfa -48 + ^
STACK CFI 1b1a4 .cfa: sp 128 +
STACK CFI 1b1b4 .cfa: sp 0 +
STACK CFI 1b1b8 .cfa: x29 48 +
STACK CFI INIT 1b1d8 27c .cfa: sp 0 +
STACK CFI 1b1dc .cfa: sp 176 +
STACK CFI 1b1f8 .cfa: x29 96 + x19: .cfa -8 + ^ x20: .cfa -16 + ^ x21: .cfa -24 + ^ x22: .cfa -32 + ^ x23: .cfa -40 + ^ x24: .cfa -48 + ^ x25: .cfa -56 + ^ x26: .cfa -64 + ^ x27: .cfa -72 + ^ x28: .cfa -80 + ^ .ra: .cfa -88 + ^ x29: .cfa -96 + ^
STACK CFI 1b430 .cfa: sp 176 +
STACK CFI 1b44c .cfa: sp 0 +
STACK CFI 1b450 .cfa: x29 96 +
STACK CFI INIT 1b454 78 .cfa: sp 0 +
STACK CFI 1b458 .cfa: sp 48 +
STACK CFI 1b464 .cfa: x29 48 + x19: .cfa -8 + ^ x20: .cfa -16 + ^ x21: .cfa -24 + ^ x22: .cfa -32 + ^ .ra: .cfa -40 + ^ x29: .cfa -48 + ^
STACK CFI 1b4ac .cfa: sp 48 +
STACK CFI 1b4b8 .cfa: sp 0 +
STACK CFI 1b4bc .cfa: sp 48 +
STACK CFI 1b4c8 .cfa: sp 0 +
STACK CFI INIT 1b4cc 94 .cfa: sp 0 +
STACK CFI 1b4d0 .cfa: sp 16 +
STACK CFI 1b4d4 .cfa: x29 16 + .ra: .cfa -8 + ^ x29: .cfa -16 + ^
STACK CFI 1b528 .cfa: sp 16 +
STACK CFI 1b52c .cfa: sp 0 +
STACK CFI 1b530 .cfa: x29 16 +
STACK CFI INIT 1b560 158 .cfa: sp 0 +
STACK CFI 1b564 .cfa: sp 112 +
STACK CFI 1b580 .cfa: x29 96 + x19: .cfa -8 + ^ x20: .cfa -16 + ^ x21: .cfa -24 + ^ x22: .cfa -32 + ^ x23: .cfa -40 + ^ x24: .cfa -48 + ^ x25: .cfa -56 + ^ x26: .cfa -64 + ^ x27: .cfa -72 + ^ x28: .cfa -80 + ^ .ra: .cfa -88 + ^ x29: .cfa -96 + ^
STACK CFI 1b668 .cfa: sp 112 +
STACK CFI 1b66c .cfa: x29 96 +
STACK CFI 1b674 .cfa: sp 112 +
STACK CFI 1b690 .cfa: sp 0 +
STACK CFI 1b694 .cfa: x29 96 +
STACK CFI 1b6b4 .cfa: sp 112 +
STACK CFI INIT 1b6b8 94 .cfa: sp 0 +
STACK CFI 1b6bc .cfa: sp 16 +
STACK CFI 1b6c0 .cfa: x29 16 + .ra: .cfa -8 + ^ x29: .cfa -16 + ^
STACK CFI 1b714 .cfa: sp 16 +
STACK CFI 1b718 .cfa: sp 0 +
STACK CFI 1b71c .cfa: x29 16 +
STACK CFI INIT 1b74c 150 .cfa: sp 0 +
STACK CFI 1b750 .cfa: sp 48 +
STACK CFI 1b75c .cfa: x29 48 + x19: .cfa -8 + ^ x20: .cfa -16 + ^ x21: .cfa -24 + ^ x22: .cfa -32 + ^ .ra: .cfa -40 + ^ x29: .cfa -48 + ^
STACK CFI 1b88c .cfa: sp 48 +
STACK CFI 1b898 .cfa: sp 0 +
STACK CFI INIT 1b89c a0 .cfa: sp 0 +
STACK CFI 1b8a0 .cfa: sp 96 +
STACK CFI 1b8ac .cfa: x29 32 + x19: .cfa -16 + ^ .ra: .cfa -24 + ^ x29: .cfa -32 + ^
STACK CFI 1b928 .cfa: sp 96 +
STACK CFI 1b934 .cfa: sp 0 +
STACK CFI 1b938 .cfa: x29 32 +
STACK CFI INIT 1b93c 1d0 .cfa: sp 0 +
STACK CFI 1b940 .cfa: sp 112 +
STACK CFI 1b958 .cfa: x29 80 + x19: .cfa -8 + ^ x20: .cfa -16 + ^ x21: .cfa -24 + ^ x22: .cfa -32 + ^ x23: .cfa -40 + ^ x24: .cfa -48 + ^ x25: .cfa -64 + ^ .ra: .cfa -72 + ^ x29: .cfa -80 + ^
STACK CFI 1baec .cfa: sp 112 +
STACK CFI 1bb04 .cfa: sp 0 +
STACK CFI 1bb08 .cfa: x29 80 +
STACK CFI INIT 1bdfc 158 .cfa: sp 0 +
STACK CFI 1be00 .cfa: sp 48 +
STACK CFI 1be0c .cfa: x29 48 + x19: .cfa -8 + ^ x20: .cfa -16 + ^ x21: .cfa -24 + ^ x22: .cfa -32 + ^ .ra: .cfa -40 + ^ x29: .cfa -48 + ^
STACK CFI 1beb0 .cfa: sp 48 +
STACK CFI 1bebc .cfa: sp 0 +
STACK CFI 1bec0 .cfa: x29 48 +
STACK CFI 1bf44 .cfa: sp 48 +
STACK CFI 1bf50 .cfa: sp 0 +
STACK CFI INIT 1c8a4 24 .cfa: sp 0 +
STACK CFI 1c8a8 .cfa: sp 32 +
STACK CFI 1c8b0 .cfa: x29 32 + x19: .cfa -16 + ^ .ra: .cfa -24 + ^ x29: .cfa -32 + ^
STACK CFI 1c8bc .cfa: sp 32 +
STACK CFI 1c8c4 .cfa: sp 0 +
STACK CFI INIT 1c8c8 158 .cfa: sp 0 +
STACK CFI 1c8cc .cfa: sp 64 +
STACK CFI 1c8dc .cfa: x29 64 + x19: .cfa -8 + ^ x20: .cfa -16 + ^ x21: .cfa -24 + ^ x22: .cfa -32 + ^ x23: .cfa -48 + ^ .ra: .cfa -56 + ^ x29: .cfa -64 + ^
STACK CFI 1ca0c .cfa: sp 64 +
STACK CFI 1ca1c .cfa: sp 0 +
STACK CFI INIT 1ca20 5c .cfa: sp 0 +
STACK CFI 1ca24 .cfa: sp 32 +
STACK CFI 1ca2c .cfa: x29 32 + x19: .cfa -8 + ^ x20: .cfa -16 + ^ .ra: .cfa -24 + ^ x29: .cfa -32 + ^
STACK CFI 1ca70 .cfa: sp 32 +
STACK CFI 1ca78 .cfa: sp 0 +
STACK CFI INIT 1ca7c 78 .cfa: sp 0 +
STACK CFI 1ca80 .cfa: sp 48 +
STACK CFI 1ca8c .cfa: x29 48 + x19: .cfa -8 + ^ x20: .cfa -16 + ^ x21: .cfa -24 + ^ x22: .cfa -32 + ^ .ra: .cfa -40 + ^ x29: .cfa -48 + ^
STACK CFI 1cad4 .cfa: sp 48 +
STACK CFI 1cae0 .cfa: sp 0 +
STACK CFI 1cae4 .cfa: sp 48 +
STACK CFI 1caf0 .cfa: sp 0 +
STACK CFI INIT 1d408 520 .cfa: sp 0 +
STACK CFI 1d40c .cfa: sp 176 +
STACK CFI 1d428 .cfa: x29 96 + x19: .cfa -8 + ^ x20: .cfa -16 + ^ x21: .cfa -24 + ^ x22: .cfa -32 + ^ x23: .cfa -40 + ^ x24: .cfa -48 + ^ x25: .cfa -56 + ^ x26: .cfa -64 + ^ x27: .cfa -72 + ^ x28: .cfa -80 + ^ .ra: .cfa -88 + ^ x29: .cfa -96 + ^
STACK CFI 1d904 .cfa: sp 176 +
STACK CFI 1d920 .cfa: sp 0 +
STACK CFI 1d924 .cfa: x29 96 +
STACK CFI INIT 1d928 20c .cfa: sp 0 +
STACK CFI 1d92c .cfa: sp 80 +
STACK CFI 1d940 .cfa: x29 80 + x19: .cfa -8 + ^ x20: .cfa -16 + ^ x21: .cfa -24 + ^ x22: .cfa -32 + ^ x23: .cfa -40 + ^ x24: .cfa -48 + ^ x25: .cfa -64 + ^ .ra: .cfa -72 + ^ x29: .cfa -80 + ^
STACK CFI 1d9d0 .cfa: sp 80 +
STACK CFI 1d9e4 .cfa: sp 0 +
STACK CFI 1d9e8 .cfa: x29 80 +
STACK CFI 1d9f4 .cfa: sp 80 +
STACK CFI 1da08 .cfa: sp 0 +
STACK CFI 1da0c .cfa: x29 80 +
STACK CFI INIT 1db34 428 .cfa: sp 0 +
STACK CFI 1db38 .cfa: sp 128 +
STACK CFI 1db54 .cfa: x29 96 + x19: .cfa -8 + ^ x20: .cfa -16 + ^ x21: .cfa -24 + ^ x22: .cfa -32 + ^ x23: .cfa -40 + ^ x24: .cfa -48 + ^ x25: .cfa -56 + ^ x26: .cfa -64 + ^ x27: .cfa -72 + ^ x28: .cfa -80 + ^ .ra: .cfa -88 + ^ x29: .cfa -96 + ^
STACK CFI 1df38 .cfa: sp 128 +
STACK CFI 1df54 .cfa: sp 0 +
STACK CFI 1df58 .cfa: x29 96 +
STACK CFI INIT 1df5c 194 .cfa: sp 0 +
STACK CFI 1df60 .cfa: sp 32 +
STACK CFI 1df68 .cfa: x29 16 + .ra: .cfa -8 + ^ x29: .cfa -16 + ^
STACK CFI 1dfac .cfa: sp 32 +
STACK CFI 1dfb4 .cfa: sp 0 +
STACK CFI 1dfb8 .cfa: x29 16 +
STACK CFI INIT 1e0f0 1b8 .cfa: sp 0 +
STACK CFI INIT 1e2a8 1d0 .cfa: sp 0 +
STACK CFI 1e2ac .cfa: sp 80 +
STACK CFI 1e2c0 .cfa: x29 80 + x19: .cfa -8 + ^ x20: .cfa -16 + ^ x21: .cfa -24 + ^ x22: .cfa -32 + ^ x23: .cfa -40 + ^ x24: .cfa -48 + ^ x25: .cfa -64 + ^ .ra: .cfa -72 + ^ x29: .cfa -80 + ^
STACK CFI 1e460 .cfa: sp 80 +
STACK CFI 1e474 .cfa: sp 0 +
STACK CFI INIT 1e478 67c .cfa: sp 0 +
STACK CFI 1e47c .cfa: sp 176 +
STACK CFI 1e498 .cfa: x29 96 + x19: .cfa -8 + ^ x20: .cfa -16 + ^ x21: .cfa -24 + ^ x22: .cfa -32 + ^ x23: .cfa -40 + ^ x24: .cfa -48 + ^ x25: .cfa -56 + ^ x26: .cfa -64 + ^ x27: .cfa -72 + ^ x28: .cfa -80 + ^ .ra: .cfa -88 + ^ x29: .cfa -96 + ^
STACK CFI 1ead0 .cfa: sp 176 +
STACK CFI 1eaec .cfa: sp 0 +
STACK CFI 1eaf0 .cfa: x29 96 +
STACK CFI INIT 1eaf4 1e4 .cfa: sp 0 +
STACK CFI 1eaf8 .cfa: sp 32 +
STACK CFI 1eb00 .cfa: x29 32 + x19: .cfa -8 + ^ x20: .cfa -16 + ^ .ra: .cfa -24 + ^ x29: .cfa -32 + ^
STACK CFI 1ebf0 .cfa: sp 32 +
STACK CFI 1ebf8 .cfa: sp 0 +
STACK CFI 1ebfc .cfa: x29 32 +
STACK CFI 1ec70 .cfa: sp 32 +
STACK CFI 1ec78 .cfa: sp 0 +
STACK CFI 1ec7c .cfa: x29 32 +
STACK CFI 1ec8c .cfa: sp 32 +
STACK CFI 1ec94 .cfa: sp 0 +
STACK CFI 1ec98 .cfa: x29 32 +
STACK CFI 1eca8 .cfa: sp 32 +
STACK CFI 1ecb0 .cfa: sp 0 +
STACK CFI 1ecb4 .cfa: x29 32 +
STACK CFI INIT 1ecd8 178 .cfa: sp 0 +
STACK CFI 1ecdc .cfa: sp 80 +
STACK CFI 1ecf0 .cfa: x29 64 + x19: .cfa -8 + ^ x20: .cfa -16 + ^ x21: .cfa -24 + ^ x22: .cfa -32 + ^ x23: .cfa -40 + ^ x24: .cfa -48 + ^ .ra: .cfa -56 + ^ x29: .cfa -64 + ^
STACK CFI 1ee34 .cfa: sp 80 +
STACK CFI 1ee48 .cfa: sp 0 +
STACK CFI 1ee4c .cfa: x29 64 +
STACK CFI INIT 1ee50 178 .cfa: sp 0 +
STACK CFI 1ee54 .cfa: sp 80 +
STACK CFI 1ee68 .cfa: x29 64 + x19: .cfa -8 + ^ x20: .cfa -16 + ^ x21: .cfa -24 + ^ x22: .cfa -32 + ^ x23: .cfa -40 + ^ x24: .cfa -48 + ^ .ra: .cfa -56 + ^ x29: .cfa -64 + ^
STACK CFI 1efac .cfa: sp 80 +
STACK CFI 1efc0 .cfa: sp 0 +
STACK CFI 1efc4 .cfa: x29 64 +
STACK CFI INIT 1efc8 178 .cfa: sp 0 +
STACK CFI 1efcc .cfa: sp 80 +
STACK CFI 1efe0 .cfa: x29 64 + x19: .cfa -8 + ^ x20: .cfa -16 + ^ x21: .cfa -24 + ^ x22: .cfa -32 + ^ x23: .cfa -40 + ^ x24: .cfa -48 + ^ .ra: .cfa -56 + ^ x29: .cfa -64 + ^
STACK CFI 1f124 .cfa: sp 80 +
STACK CFI 1f138 .cfa: sp 0 +
STACK CFI 1f13c .cfa: x29 64 +
STACK CFI INIT 1f140 168 .cfa: sp 0 +
STACK CFI 1f144 .cfa: sp 80 +
STACK CFI 1f158 .cfa: x29 80 + x19: .cfa -8 + ^ x20: .cfa -16 + ^ x21: .cfa -24 + ^ x22: .cfa -32 + ^ x23: .cfa -40 + ^ x24: .cfa -48 + ^ x25: .cfa -56 + ^ x26: .cfa -64 + ^ .ra: .cfa -72 + ^ x29: .cfa -80 + ^
STACK CFI 1f290 .cfa: sp 80 +
STACK CFI 1f2a4 .cfa: sp 0 +
STACK CFI INIT 1f2a8 1b0 .cfa: sp 0 +
STACK CFI INIT 1f7cc 4 .cfa: sp 0 +
STACK CFI INIT 1f7d0 164 .cfa: sp 0 +
STACK CFI 1f7d4 .cfa: sp 32 +
STACK CFI 1f7dc .cfa: x29 32 + x19: .cfa -8 + ^ x20: .cfa -16 + ^ .ra: .cfa -24 + ^ x29: .cfa -32 + ^
STACK CFI 1f8fc .cfa: sp 32 +
STACK CFI 1f904 .cfa: sp 0 +
STACK CFI 1f908 .cfa: x29 32 +
STACK CFI 1f928 .cfa: sp 32 +
STACK CFI 1f930 .cfa: sp 0 +
STACK CFI INIT 1faa8 4 .cfa: sp 0 +
STACK CFI INIT 1faac 4 .cfa: sp 0 +
STACK CFI INIT 1fab0 34 .cfa: sp 0 +
STACK CFI 1fab4 .cfa: sp 32 +
STACK CFI 1fabc .cfa: x29 32 + x19: .cfa -16 + ^ .ra: .cfa -24 + ^ x29: .cfa -32 + ^
STACK CFI 1fad8 .cfa: sp 32 +
STACK CFI 1fae0 .cfa: sp 0 +
STACK CFI INIT 1fae4 14 .cfa: sp 0 +
STACK CFI INIT 1faf8 4 .cfa: sp 0 +
STACK CFI INIT 1fafc 4 .cfa: sp 0 +
STACK CFI INIT 1fc04 1c .cfa: sp 0 +
STACK CFI INIT 1fc20 c .cfa: sp 0 +
STACK CFI INIT 1fc2c 3c .cfa: sp 0 +
STACK CFI 1fc30 .cfa: sp 32 +
STACK CFI 1fc38 .cfa: x29 32 + x19: .cfa -16 + ^ .ra: .cfa -24 + ^ x29: .cfa -32 + ^
STACK CFI 1fc44 .cfa: sp 32 +
STACK CFI 1fc4c .cfa: sp 0 +
STACK CFI 1fc50 .cfa: x29 32 +
STACK CFI 1fc5c .cfa: sp 32 +
STACK CFI 1fc64 .cfa: sp 0 +
STACK CFI INIT 1fc68 4c .cfa: sp 0 +
STACK CFI 1fc6c .cfa: sp 32 +
STACK CFI 1fc74 .cfa: x29 32 + x19: .cfa -8 + ^ x20: .cfa -16 + ^ .ra: .cfa -24 + ^ x29: .cfa -32 + ^
STACK CFI 1fc9c .cfa: sp 32 +
STACK CFI 1fca4 .cfa: sp 0 +
STACK CFI 1fca8 .cfa: sp 32 +
STACK CFI 1fcb0 .cfa: sp 0 +
STACK CFI INIT 1fed4 64 .cfa: sp 0 +
STACK CFI 1fed8 .cfa: sp 32 +
STACK CFI 1fee0 .cfa: x29 32 + x19: .cfa -16 + ^ .ra: .cfa -24 + ^ x29: .cfa -32 + ^
STACK CFI 1ff0c .cfa: sp 32 +
STACK CFI 1ff14 .cfa: sp 0 +
STACK CFI 1ff18 .cfa: x29 32 +
STACK CFI 1ff2c .cfa: sp 32 +
STACK CFI 1ff34 .cfa: sp 0 +
STACK CFI INIT 1ff38 24 .cfa: sp 0 +
STACK CFI 1ff3c .cfa: sp 32 +
STACK CFI 1ff44 .cfa: x29 32 + x19: .cfa -16 + ^ .ra: .cfa -24 + ^ x29: .cfa -32 + ^
STACK CFI 1ff50 .cfa: sp 32 +
STACK CFI 1ff58 .cfa: sp 0 +
STACK CFI INIT 1ff5c 24 .cfa: sp 0 +
STACK CFI 1ff60 .cfa: sp 32 +
STACK CFI 1ff68 .cfa: x29 32 + x19: .cfa -16 + ^ .ra: .cfa -24 + ^ x29: .cfa -32 + ^
STACK CFI 1ff74 .cfa: sp 32 +
STACK CFI 1ff7c .cfa: sp 0 +
STACK CFI INIT 1ff80 8 .cfa: sp 0 +
STACK CFI INIT 1ff88 24 .cfa: sp 0 +
STACK CFI 1ff8c .cfa: sp 32 +
STACK CFI 1ff94 .cfa: x29 32 + x19: .cfa -16 + ^ .ra: .cfa -24 + ^ x29: .cfa -32 + ^
STACK CFI 1ffa0 .cfa: sp 32 +
STACK CFI 1ffa8 .cfa: sp 0 +
STACK CFI INIT 1ffac 28 .cfa: sp 0 +
STACK CFI 1ffb0 .cfa: sp 32 +
STACK CFI 1ffb8 .cfa: x29 32 + x19: .cfa -16 + ^ .ra: .cfa -24 + ^ x29: .cfa -32 + ^
STACK CFI 1ffc8 .cfa: sp 32 +
STACK CFI 1ffd0 .cfa: sp 0 +
STACK CFI INIT 212bc 8 .cfa: sp 0 +
STACK CFI INIT 212c4 24 .cfa: sp 0 +
STACK CFI 212c8 .cfa: sp 32 +
STACK CFI 212d0 .cfa: x29 32 + x19: .cfa -16 + ^ .ra: .cfa -24 + ^ x29: .cfa -32 + ^
STACK CFI 212dc .cfa: sp 32 +
STACK CFI 212e4 .cfa: sp 0 +
STACK CFI INIT 212e8 28 .cfa: sp 0 +
STACK CFI 212ec .cfa: sp 32 +
STACK CFI 212f4 .cfa: x29 32 + x19: .cfa -16 + ^ .ra: .cfa -24 + ^ x29: .cfa -32 + ^
STACK CFI 21304 .cfa: sp 32 +
STACK CFI 2130c .cfa: sp 0 +
STACK CFI INIT 215f0 8 .cfa: sp 0 +
STACK CFI INIT 218ec 8 .cfa: sp 0 +
STACK CFI INIT 21b5c 8 .cfa: sp 0 +
STACK CFI INIT 21db0 4 .cfa: sp 0 +
STACK CFI INIT 21db4 8 .cfa: sp 0 +
STACK CFI INIT 21dbc 8 .cfa: sp 0 +
STACK CFI INIT 21dc4 4 .cfa: sp 0 +
STACK CFI INIT 22924 8 .cfa: sp 0 +
STACK CFI INIT 2292c 24 .cfa: sp 0 +
STACK CFI 22930 .cfa: sp 32 +
STACK CFI 22938 .cfa: x29 32 + x19: .cfa -16 + ^ .ra: .cfa -24 + ^ x29: .cfa -32 + ^
STACK CFI 22944 .cfa: sp 32 +
STACK CFI 2294c .cfa: sp 0 +
STACK CFI INIT 22950 28 .cfa: sp 0 +
STACK CFI 22954 .cfa: sp 32 +
STACK CFI 2295c .cfa: x29 32 + x19: .cfa -16 + ^ .ra: .cfa -24 + ^ x29: .cfa -32 + ^
STACK CFI 2296c .cfa: sp 32 +
STACK CFI 22974 .cfa: sp 0 +
STACK CFI INIT 22bc4 8 .cfa: sp 0 +
STACK CFI INIT 22bcc 4 .cfa: sp 0 +
STACK CFI INIT 22bd0 4 .cfa: sp 0 +
STACK CFI INIT 22bd4 4 .cfa: sp 0 +
STACK CFI INIT 22bd8 4 .cfa: sp 0 +
STACK CFI INIT 22bdc 4 .cfa: sp 0 +
STACK CFI INIT 238a8 4 .cfa: sp 0 +
STACK CFI INIT 238ac 14 .cfa: sp 0 +
STACK CFI INIT 23da0 c .cfa: sp 0 +
STACK CFI INIT 23dac 24c .cfa: sp 0 +
STACK CFI INIT 23ff8 a0 .cfa: sp 0 +
STACK CFI 24004 .cfa: sp 32 +
STACK CFI 2405c .cfa: sp 0 +
STACK CFI 24060 .cfa: sp 32 +
STACK CFI 24068 .cfa: sp 0 +
STACK CFI 2406c .cfa: sp 32 +
STACK CFI 24080 .cfa: sp 0 +
STACK CFI 24084 .cfa: sp 32 +
STACK CFI 24094 .cfa: sp 0 +
STACK CFI INIT 24098 38 .cfa: sp 0 +
STACK CFI 240a4 .cfa: sp 32 +
STACK CFI 240cc .cfa: sp 0 +
STACK CFI INIT 24364 7c .cfa: sp 0 +
STACK CFI 24368 .cfa: sp 32 +
STACK CFI 24370 .cfa: x29 32 + x19: .cfa -16 + ^ .ra: .cfa -24 + ^ x29: .cfa -32 + ^
STACK CFI 2439c .cfa: sp 32 +
STACK CFI 243a4 .cfa: sp 0 +
STACK CFI 243a8 .cfa: x29 32 +
STACK CFI 243d4 .cfa: sp 32 +
STACK CFI 243dc .cfa: sp 0 +
STACK CFI INIT 24bf0 64 .cfa: sp 0 +
STACK CFI 24bf4 .cfa: sp 32 +
STACK CFI 24bfc .cfa: x29 32 + x19: .cfa -16 + ^ .ra: .cfa -24 + ^ x29: .cfa -32 + ^
STACK CFI 24c18 .cfa: sp 32 +
STACK CFI 24c20 .cfa: sp 0 +
STACK CFI 24c24 .cfa: x29 32 +
STACK CFI 24c48 .cfa: sp 32 +
STACK CFI 24c50 .cfa: sp 0 +
STACK CFI INIT 24c54 570 .cfa: sp 0 +
STACK CFI 24c58 .cfa: sp 176 +
STACK CFI 24c6c .cfa: x29 64 + x19: .cfa -8 + ^ x20: .cfa -16 + ^ x21: .cfa -24 + ^ x22: .cfa -32 + ^ x23: .cfa -40 + ^ x24: .cfa -48 + ^ .ra: .cfa -56 + ^ x29: .cfa -64 + ^
STACK CFI 24e9c .cfa: sp 176 +
STACK CFI 24eb0 .cfa: sp 0 +
STACK CFI 24eb4 .cfa: x29 64 +
STACK CFI 24f00 .cfa: sp 176 +
STACK CFI 24f14 .cfa: sp 0 +
STACK CFI 24f18 .cfa: x29 64 +
STACK CFI 24f50 .cfa: sp 176 +
STACK CFI 24f64 .cfa: sp 0 +
STACK CFI 24f68 .cfa: x29 64 +
STACK CFI 24f80 .cfa: sp 176 +
STACK CFI 24f94 .cfa: sp 0 +
STACK CFI 24f98 .cfa: x29 64 +
STACK CFI 24fb8 .cfa: sp 176 +
STACK CFI 24fcc .cfa: sp 0 +
STACK CFI 24fd0 .cfa: x29 64 +
STACK CFI 24fe8 .cfa: sp 176 +
STACK CFI 24ffc .cfa: sp 0 +
STACK CFI 25000 .cfa: x29 64 +
STACK CFI 25014 .cfa: sp 176 +
STACK CFI 25028 .cfa: sp 0 +
STACK CFI 2502c .cfa: x29 64 +
STACK CFI 25040 .cfa: sp 176 +
STACK CFI 25054 .cfa: sp 0 +
STACK CFI 25058 .cfa: x29 64 +
STACK CFI 25068 .cfa: sp 176 +
STACK CFI 2507c .cfa: sp 0 +
STACK CFI 25080 .cfa: x29 64 +
STACK CFI 25090 .cfa: sp 176 +
STACK CFI 250a4 .cfa: sp 0 +
STACK CFI 250a8 .cfa: x29 64 +
STACK CFI 250c0 .cfa: sp 176 +
STACK CFI 250d4 .cfa: sp 0 +
STACK CFI 250d8 .cfa: x29 64 +
STACK CFI 250ec .cfa: sp 176 +
STACK CFI 25100 .cfa: sp 0 +
STACK CFI 25104 .cfa: x29 64 +
STACK CFI 2511c .cfa: sp 176 +
STACK CFI 25130 .cfa: sp 0 +
STACK CFI 25134 .cfa: x29 64 +
STACK CFI 25160 .cfa: sp 176 +
STACK CFI 25174 .cfa: sp 0 +
STACK CFI 25178 .cfa: x29 64 +
STACK CFI 2518c .cfa: sp 176 +
STACK CFI 251a0 .cfa: sp 0 +
STACK CFI 251a4 .cfa: x29 64 +
STACK CFI INIT 251c4 228 .cfa: sp 0 +
STACK CFI INIT 253ec 2dc .cfa: sp 0 +
STACK CFI INIT 256c8 53c .cfa: sp 0 +
STACK CFI INIT 25c04 8c .cfa: sp 0 +
STACK CFI 25c08 .cfa: sp 32 +
STACK CFI 25c10 .cfa: x29 32 + x19: .cfa -16 + ^ .ra: .cfa -24 + ^ x29: .cfa -32 + ^
STACK CFI 25c44 .cfa: sp 32 +
STACK CFI 25c4c .cfa: sp 0 +
STACK CFI 25c50 .cfa: x29 32 +
STACK CFI 25c84 .cfa: sp 32 +
STACK CFI 25c8c .cfa: sp 0 +
STACK CFI INIT 25c90 150 .cfa: sp 0 +
STACK CFI 25c94 .cfa: sp 48 +
STACK CFI 25ca0 .cfa: x29 48 + x19: .cfa -8 + ^ x20: .cfa -16 + ^ x21: .cfa -24 + ^ x22: .cfa -32 + ^ .ra: .cfa -40 + ^ x29: .cfa -48 + ^
STACK CFI 25dd0 .cfa: sp 48 +
STACK CFI 25ddc .cfa: sp 0 +
STACK CFI INIT 25de0 68 .cfa: sp 0 +
STACK CFI 25de4 .cfa: sp 64 +
STACK CFI 25df0 .cfa: x29 32 + x19: .cfa -16 + ^ .ra: .cfa -24 + ^ x29: .cfa -32 + ^
STACK CFI 25e34 .cfa: sp 64 +
STACK CFI 25e40 .cfa: sp 0 +
STACK CFI 25e44 .cfa: x29 32 +
STACK CFI INIT 25e48 90 .cfa: sp 0 +
STACK CFI 25e4c .cfa: sp 32 +
STACK CFI 25e54 .cfa: x29 32 + x19: .cfa -8 + ^ x20: .cfa -16 + ^ .ra: .cfa -24 + ^ x29: .cfa -32 + ^
STACK CFI 25e80 .cfa: sp 32 +
STACK CFI 25e88 .cfa: sp 0 +
STACK CFI 25e8c .cfa: x29 32 +
STACK CFI 25ecc .cfa: sp 32 +
STACK CFI 25ed4 .cfa: sp 0 +
STACK CFI INIT 25ed8 ec .cfa: sp 0 +
STACK CFI 25edc .cfa: sp 112 +
STACK CFI 25eec .cfa: x29 48 + x19: .cfa -8 + ^ x20: .cfa -16 + ^ x21: .cfa -32 + ^ .ra: .cfa -40 + ^ x29: .cfa -48 + ^
STACK CFI 25fac .cfa: sp 112 +
STACK CFI 25fbc .cfa: sp 0 +
STACK CFI 25fc0 .cfa: x29 48 +
STACK CFI INIT 25fc4 ec .cfa: sp 0 +
STACK CFI 25fc8 .cfa: sp 112 +
STACK CFI 25fd8 .cfa: x29 48 + x19: .cfa -8 + ^ x20: .cfa -16 + ^ x21: .cfa -32 + ^ .ra: .cfa -40 + ^ x29: .cfa -48 + ^
STACK CFI 26098 .cfa: sp 112 +
STACK CFI 260a8 .cfa: sp 0 +
STACK CFI 260ac .cfa: x29 48 +
STACK CFI INIT 260b0 48 .cfa: sp 0 +
STACK CFI 260b4 .cfa: sp 32 +
STACK CFI 260bc .cfa: x29 32 + x19: .cfa -8 + ^ x20: .cfa -16 + ^ .ra: .cfa -24 + ^ x29: .cfa -32 + ^
STACK CFI 260e0 .cfa: sp 32 +
STACK CFI 260e8 .cfa: sp 0 +
STACK CFI 260ec .cfa: x29 32 +
STACK CFI INIT 260f8 98 .cfa: sp 0 +
STACK CFI 260fc .cfa: sp 80 +
STACK CFI 26108 .cfa: x29 32 + x19: .cfa -16 + ^ .ra: .cfa -24 + ^ x29: .cfa -32 + ^
STACK CFI 2617c .cfa: sp 80 +
STACK CFI 26188 .cfa: sp 0 +
STACK CFI 2618c .cfa: x29 32 +
STACK CFI INIT 26190 260 .cfa: sp 0 +
STACK CFI 26194 .cfa: sp 112 +
STACK CFI 261ac .cfa: x29 80 + x19: .cfa -8 + ^ x20: .cfa -16 + ^ x21: .cfa -24 + ^ x22: .cfa -32 + ^ x23: .cfa -40 + ^ x24: .cfa -48 + ^ x25: .cfa -64 + ^ .ra: .cfa -72 + ^ x29: .cfa -80 + ^
STACK CFI 26390 .cfa: sp 112 +
STACK CFI 263a8 .cfa: sp 0 +
STACK CFI 263ac .cfa: x29 80 +
STACK CFI INIT 263f0 150 .cfa: sp 0 +
STACK CFI 263f4 .cfa: sp 48 +
STACK CFI 26400 .cfa: x29 48 + x19: .cfa -8 + ^ x20: .cfa -16 + ^ x21: .cfa -24 + ^ x22: .cfa -32 + ^ .ra: .cfa -40 + ^ x29: .cfa -48 + ^
STACK CFI 26530 .cfa: sp 48 +
STACK CFI 2653c .cfa: sp 0 +
STACK CFI INIT 26540 1e0 .cfa: sp 0 +
STACK CFI 26544 .cfa: sp 96 +
STACK CFI 26558 .cfa: x29 64 + x19: .cfa -8 + ^ x20: .cfa -16 + ^ x21: .cfa -24 + ^ x22: .cfa -32 + ^ x23: .cfa -40 + ^ x24: .cfa -48 + ^ .ra: .cfa -56 + ^ x29: .cfa -64 + ^
STACK CFI 266d8 .cfa: sp 96 +
STACK CFI 266ec .cfa: sp 0 +
STACK CFI 266f0 .cfa: x29 64 +
STACK CFI INIT 26720 284 .cfa: sp 0 +
STACK CFI 26724 .cfa: sp 112 +
STACK CFI 2673c .cfa: x29 80 + x19: .cfa -8 + ^ x20: .cfa -16 + ^ x21: .cfa -24 + ^ x22: .cfa -32 + ^ x23: .cfa -40 + ^ x24: .cfa -48 + ^ x25: .cfa -64 + ^ .ra: .cfa -72 + ^ x29: .cfa -80 + ^
STACK CFI 26944 .cfa: sp 112 +
STACK CFI 2695c .cfa: sp 0 +
STACK CFI 26960 .cfa: x29 80 +
STACK CFI INIT 269a4 208 .cfa: sp 0 +
STACK CFI 269a8 .cfa: sp 96 +
STACK CFI 269bc .cfa: x29 64 + x19: .cfa -8 + ^ x20: .cfa -16 + ^ x21: .cfa -24 + ^ x22: .cfa -32 + ^ x23: .cfa -40 + ^ x24: .cfa -48 + ^ .ra: .cfa -56 + ^ x29: .cfa -64 + ^
STACK CFI 26b64 .cfa: sp 96 +
STACK CFI 26b78 .cfa: sp 0 +
STACK CFI 26b7c .cfa: x29 64 +
STACK CFI INIT 26bac 360 .cfa: sp 0 +
STACK CFI 26bb0 .cfa: sp 160 +
STACK CFI 26bcc .cfa: x29 96 + x19: .cfa -8 + ^ x20: .cfa -16 + ^ x21: .cfa -24 + ^ x22: .cfa -32 + ^ x23: .cfa -40 + ^ x24: .cfa -48 + ^ x25: .cfa -56 + ^ x26: .cfa -64 + ^ x27: .cfa -72 + ^ x28: .cfa -80 + ^ .ra: .cfa -88 + ^ x29: .cfa -96 + ^
STACK CFI 26e98 .cfa: sp 160 +
STACK CFI 26eb4 .cfa: sp 0 +
STACK CFI 26eb8 .cfa: x29 96 +
STACK CFI INIT 26f0c 314 .cfa: sp 0 +
STACK CFI 26f10 .cfa: sp 144 +
STACK CFI 26f2c .cfa: x29 96 + x19: .cfa -8 + ^ x20: .cfa -16 + ^ x21: .cfa -24 + ^ x22: .cfa -32 + ^ x23: .cfa -40 + ^ x24: .cfa -48 + ^ x25: .cfa -56 + ^ x26: .cfa -64 + ^ x27: .cfa -72 + ^ x28: .cfa -80 + ^ .ra: .cfa -88 + ^ x29: .cfa -96 + ^
STACK CFI 271a8 .cfa: sp 144 +
STACK CFI 271c4 .cfa: sp 0 +
STACK CFI 271c8 .cfa: x29 96 +
STACK CFI INIT 27220 2b4 .cfa: sp 0 +
STACK CFI 27224 .cfa: sp 128 +
STACK CFI 2723c .cfa: x29 80 + x19: .cfa -8 + ^ x20: .cfa -16 + ^ x21: .cfa -24 + ^ x22: .cfa -32 + ^ x23: .cfa -40 + ^ x24: .cfa -48 + ^ x25: .cfa -56 + ^ x26: .cfa -64 + ^ .ra: .cfa -72 + ^ x29: .cfa -80 + ^
STACK CFI 27430 .cfa: sp 128 +
STACK CFI 27448 .cfa: sp 0 +
STACK CFI 2744c .cfa: x29 80 +
STACK CFI 274b4 .cfa: sp 128 +
STACK CFI 274cc .cfa: sp 0 +
STACK CFI 274d0 .cfa: x29 80 +
STACK CFI INIT 274d4 de0 .cfa: sp 0 +
STACK CFI 274d8 .cfa: sp 144 +
STACK CFI 274f4 .cfa: x29 96 + x19: .cfa -8 + ^ x20: .cfa -16 + ^ x21: .cfa -24 + ^ x22: .cfa -32 + ^ x23: .cfa -40 + ^ x24: .cfa -48 + ^ x25: .cfa -56 + ^ x26: .cfa -64 + ^ x27: .cfa -72 + ^ x28: .cfa -80 + ^ .ra: .cfa -88 + ^ x29: .cfa -96 + ^
STACK CFI 2818c .cfa: sp 144 +
STACK CFI 281a8 .cfa: sp 0 +
STACK CFI 281ac .cfa: x29 96 +
STACK CFI INIT 282b4 264 .cfa: sp 0 +
STACK CFI 282b8 .cfa: sp 112 +
STACK CFI 282cc .cfa: x29 64 + x19: .cfa -8 + ^ x20: .cfa -16 + ^ x21: .cfa -24 + ^ x22: .cfa -32 + ^ x23: .cfa -40 + ^ x24: .cfa -48 + ^ .ra: .cfa -56 + ^ x29: .cfa -64 + ^
STACK CFI 28448 .cfa: sp 112 +
STACK CFI 2845c .cfa: sp 0 +
STACK CFI 28460 .cfa: x29 64 +
STACK CFI 284d0 .cfa: sp 112 +
STACK CFI 284e4 .cfa: sp 0 +
STACK CFI 284e8 .cfa: x29 64 +
STACK CFI INIT 28518 258 .cfa: sp 0 +
STACK CFI 2851c .cfa: sp 96 +
STACK CFI 28534 .cfa: x29 96 + x19: .cfa -8 + ^ x20: .cfa -16 + ^ x21: .cfa -24 + ^ x22: .cfa -32 + ^ x23: .cfa -40 + ^ x24: .cfa -48 + ^ x25: .cfa -56 + ^ x26: .cfa -64 + ^ x27: .cfa -72 + ^ x28: .cfa -80 + ^ .ra: .cfa -88 + ^ x29: .cfa -96 + ^
STACK CFI 2872c .cfa: sp 96 +
STACK CFI 28744 .cfa: sp 0 +
STACK CFI 28748 .cfa: x29 96 +
STACK CFI 28754 .cfa: sp 96 +
STACK CFI 2876c .cfa: sp 0 +
STACK CFI INIT 293f4 154 .cfa: sp 0 +
STACK CFI 293f8 .cfa: sp 96 +
STACK CFI 2940c .cfa: x29 64 + x19: .cfa -8 + ^ x20: .cfa -16 + ^ x21: .cfa -24 + ^ x22: .cfa -32 + ^ x23: .cfa -48 + ^ .ra: .cfa -56 + ^ x29: .cfa -64 + ^
STACK CFI 294ec .cfa: sp 96 +
STACK CFI 29500 .cfa: sp 0 +
STACK CFI 29504 .cfa: x29 64 +
STACK CFI INIT 297b4 44 .cfa: sp 0 +
STACK CFI 297b8 .cfa: sp 32 +
STACK CFI 297c0 .cfa: x29 32 + x19: .cfa -16 + ^ .ra: .cfa -24 + ^ x29: .cfa -32 + ^
STACK CFI 297dc .cfa: sp 32 +
STACK CFI 297e4 .cfa: sp 0 +
STACK CFI 297e8 .cfa: x29 32 +
STACK CFI 297ec .cfa: sp 32 +
STACK CFI 297f4 .cfa: sp 0 +
STACK CFI INIT 297f8 1d0 .cfa: sp 0 +
STACK CFI 297fc .cfa: sp 64 +
STACK CFI 2980c .cfa: x29 64 + x19: .cfa -8 + ^ x20: .cfa -16 + ^ x21: .cfa -24 + ^ x22: .cfa -32 + ^ x23: .cfa -40 + ^ x24: .cfa -48 + ^ .ra: .cfa -56 + ^ x29: .cfa -64 + ^
STACK CFI 298cc .cfa: sp 64 +
STACK CFI 298dc .cfa: sp 0 +
STACK CFI 298e0 .cfa: x29 64 +
STACK CFI INIT 299c8 17c .cfa: sp 0 +
STACK CFI INIT 29b44 ac .cfa: sp 0 +
STACK CFI 29b48 .cfa: sp 64 +
STACK CFI 29b58 .cfa: x29 64 + x19: .cfa -8 + ^ x20: .cfa -16 + ^ x21: .cfa -24 + ^ x22: .cfa -32 + ^ x23: .cfa -48 + ^ .ra: .cfa -56 + ^ x29: .cfa -64 + ^
STACK CFI 29bd4 .cfa: sp 64 +
STACK CFI 29be4 .cfa: sp 0 +
STACK CFI 29be8 .cfa: x29 64 +
STACK CFI INIT 29bf0 110 .cfa: sp 0 +
STACK CFI 29bf4 .cfa: sp 64 +
STACK CFI 29c04 .cfa: x29 64 + x19: .cfa -8 + ^ x20: .cfa -16 + ^ x21: .cfa -24 + ^ x22: .cfa -32 + ^ x23: .cfa -40 + ^ x24: .cfa -48 + ^ .ra: .cfa -56 + ^ x29: .cfa -64 + ^
STACK CFI 29ce4 .cfa: sp 64 +
STACK CFI 29cf4 .cfa: sp 0 +
STACK CFI 29cf8 .cfa: x29 64 +
STACK CFI INIT 2a0b8 a0 .cfa: sp 0 +
STACK CFI 2a0bc .cfa: sp 48 +
STACK CFI 2a0c8 .cfa: x29 48 + x19: .cfa -8 + ^ x20: .cfa -16 + ^ x21: .cfa -24 + ^ x22: .cfa -32 + ^ .ra: .cfa -40 + ^ x29: .cfa -48 + ^
STACK CFI 2a134 .cfa: sp 48 +
STACK CFI 2a140 .cfa: sp 0 +
STACK CFI 2a144 .cfa: sp 48 +
STACK CFI 2a150 .cfa: sp 0 +
STACK CFI 2a154 .cfa: x29 48 +
STACK CFI INIT 2ae18 158 .cfa: sp 0 +
STACK CFI 2ae1c .cfa: sp 96 +
STACK CFI 2ae30 .cfa: x29 64 + x19: .cfa -8 + ^ x20: .cfa -16 + ^ x21: .cfa -24 + ^ x22: .cfa -32 + ^ x23: .cfa -48 + ^ .ra: .cfa -56 + ^ x29: .cfa -64 + ^
STACK CFI 2af14 .cfa: sp 96 +
STACK CFI 2af28 .cfa: sp 0 +
STACK CFI 2af2c .cfa: x29 64 +
STACK CFI INIT 2af70 190 .cfa: sp 0 +
STACK CFI INIT 2bbf8 1f4 .cfa: sp 0 +
STACK CFI 2bbfc .cfa: sp 80 +
STACK CFI 2bc10 .cfa: x29 80 + x19: .cfa -8 + ^ x20: .cfa -16 + ^ x21: .cfa -24 + ^ x22: .cfa -32 + ^ x23: .cfa -40 + ^ x24: .cfa -48 + ^ x25: .cfa -64 + ^ .ra: .cfa -72 + ^ x29: .cfa -80 + ^
STACK CFI 2bdb0 .cfa: sp 80 +
STACK CFI 2bdc4 .cfa: sp 0 +
STACK CFI 2bdc8 .cfa: x29 80 +
STACK CFI 2bdd4 .cfa: sp 80 +
STACK CFI 2bde8 .cfa: sp 0 +
STACK CFI INIT 2d21c 124 .cfa: sp 0 +
STACK CFI 2d24c .cfa: sp 32 +
STACK CFI 2d254 .cfa: x29 32 + x19: .cfa -8 + ^ x20: .cfa -16 + ^ .ra: .cfa -24 + ^ x29: .cfa -32 + ^
STACK CFI 2d334 .cfa: sp 32 +
STACK CFI 2d33c .cfa: sp 0 +
STACK CFI INIT 2da9c 320 .cfa: sp 0 +
STACK CFI 2daa0 .cfa: sp 64 +
STACK CFI 2dab0 .cfa: x29 64 + x19: .cfa -8 + ^ x20: .cfa -16 + ^ x21: .cfa -24 + ^ x22: .cfa -32 + ^ x23: .cfa -40 + ^ x24: .cfa -48 + ^ .ra: .cfa -56 + ^ x29: .cfa -64 + ^
STACK CFI 2db2c .cfa: sp 64 +
STACK CFI 2db3c .cfa: sp 0 +
STACK CFI 2db40 .cfa: x29 64 +
STACK CFI 2dd14 .cfa: sp 64 +
STACK CFI 2dd24 .cfa: sp 0 +
STACK CFI 2dd28 .cfa: x29 64 +
STACK CFI 2dd38 .cfa: sp 64 +
STACK CFI 2dd48 .cfa: sp 0 +
STACK CFI 2dd4c .cfa: x29 64 +
STACK CFI INIT 2ddbc a0 .cfa: sp 0 +
STACK CFI 2ddc0 .cfa: sp 48 +
STACK CFI 2ddcc .cfa: x29 48 + x19: .cfa -8 + ^ x20: .cfa -16 + ^ x21: .cfa -24 + ^ x22: .cfa -32 + ^ .ra: .cfa -40 + ^ x29: .cfa -48 + ^
STACK CFI 2de38 .cfa: sp 48 +
STACK CFI 2de44 .cfa: sp 0 +
STACK CFI 2de48 .cfa: sp 48 +
STACK CFI 2de54 .cfa: sp 0 +
STACK CFI 2de58 .cfa: x29 48 +
STACK CFI INIT 2ed3c 160 .cfa: sp 0 +
STACK CFI 2ed40 .cfa: sp 64 +
STACK CFI 2ed50 .cfa: x29 64 + x19: .cfa -8 + ^ x20: .cfa -16 + ^ x21: .cfa -24 + ^ x22: .cfa -32 + ^ x23: .cfa -48 + ^ .ra: .cfa -56 + ^ x29: .cfa -64 + ^
STACK CFI 2ee48 .cfa: sp 64 +
STACK CFI 2ee58 .cfa: sp 0 +
STACK CFI 2ee5c .cfa: x29 64 +
STACK CFI INIT 2ee9c 214 .cfa: sp 0 +
STACK CFI 2eea0 .cfa: sp 128 +
STACK CFI 2eebc .cfa: x29 96 + x19: .cfa -8 + ^ x20: .cfa -16 + ^ x21: .cfa -24 + ^ x22: .cfa -32 + ^ x23: .cfa -40 + ^ x24: .cfa -48 + ^ x25: .cfa -56 + ^ x26: .cfa -64 + ^ x27: .cfa -80 + ^ .ra: .cfa -88 + ^ x29: .cfa -96 + ^
STACK CFI 2f038 .cfa: sp 128 +
STACK CFI 2f054 .cfa: sp 0 +
STACK CFI 2f058 .cfa: x29 96 +
STACK CFI INIT 30a74 e60 .cfa: sp 0 +
STACK CFI 30a78 .cfa: sp 192 +
STACK CFI 30a94 .cfa: x29 96 + x19: .cfa -8 + ^ x20: .cfa -16 + ^ x21: .cfa -24 + ^ x22: .cfa -32 + ^ x23: .cfa -40 + ^ x24: .cfa -48 + ^ x25: .cfa -56 + ^ x26: .cfa -64 + ^ x27: .cfa -72 + ^ x28: .cfa -80 + ^ .ra: .cfa -88 + ^ x29: .cfa -96 + ^
STACK CFI 317bc .cfa: sp 192 +
STACK CFI 317d8 .cfa: sp 0 +
STACK CFI 317dc .cfa: x29 96 +
STACK CFI INIT 318d4 1090 .cfa: sp 0 +
STACK CFI 318d8 .cfa: sp 288 +
STACK CFI 318f4 .cfa: x29 96 + x19: .cfa -8 + ^ x20: .cfa -16 + ^ x21: .cfa -24 + ^ x22: .cfa -32 + ^ x23: .cfa -40 + ^ x24: .cfa -48 + ^ x25: .cfa -56 + ^ x26: .cfa -64 + ^ x27: .cfa -72 + ^ x28: .cfa -80 + ^ .ra: .cfa -88 + ^ x29: .cfa -96 + ^
STACK CFI 326ac .cfa: sp 288 +
STACK CFI 326c8 .cfa: sp 0 +
STACK CFI 326cc .cfa: x29 96 +
STACK CFI INIT 32964 520 .cfa: sp 0 +
STACK CFI 32968 .cfa: sp 144 +
STACK CFI 32984 .cfa: x29 96 + x19: .cfa -8 + ^ x20: .cfa -16 + ^ x21: .cfa -24 + ^ x22: .cfa -32 + ^ x23: .cfa -40 + ^ x24: .cfa -48 + ^ x25: .cfa -56 + ^ x26: .cfa -64 + ^ x27: .cfa -72 + ^ x28: .cfa -80 + ^ .ra: .cfa -88 + ^ x29: .cfa -96 + ^
STACK CFI 32e60 .cfa: sp 144 +
STACK CFI 32e7c .cfa: sp 0 +
STACK CFI 32e80 .cfa: x29 96 +
STACK CFI INIT 13db0 45c .cfa: sp 0 +
STACK CFI 13db4 .cfa: sp 224 +
STACK CFI 13dd0 .cfa: x29 96 + x19: .cfa -8 + ^ x20: .cfa -16 + ^ x21: .cfa -24 + ^ x22: .cfa -32 + ^ x23: .cfa -40 + ^ x24: .cfa -48 + ^ x25: .cfa -56 + ^ x26: .cfa -64 + ^ x27: .cfa -72 + ^ x28: .cfa -80 + ^ .ra: .cfa -88 + ^ x29: .cfa -96 + ^
STACK CFI 140f4 .cfa: sp 224 +
STACK CFI 14110 .cfa: sp 0 +
STACK CFI 14114 .cfa: x29 96 +
STACK CFI INIT 14224 484 .cfa: sp 0 +
STACK CFI 14228 .cfa: sp 224 +
STACK CFI 14244 .cfa: x29 96 + x19: .cfa -8 + ^ x20: .cfa -16 + ^ x21: .cfa -24 + ^ x22: .cfa -32 + ^ x23: .cfa -40 + ^ x24: .cfa -48 + ^ x25: .cfa -56 + ^ x26: .cfa -64 + ^ x27: .cfa -72 + ^ x28: .cfa -80 + ^ .ra: .cfa -88 + ^ x29: .cfa -96 + ^
STACK CFI 144b4 .cfa: sp 224 +
STACK CFI 144d0 .cfa: sp 0 +
STACK CFI 144d4 .cfa: x29 96 +
STACK CFI 145a0 .cfa: sp 224 +
STACK CFI 145bc .cfa: sp 0 +
STACK CFI 145c0 .cfa: x29 96 +
STACK CFI INIT 146c0 648 .cfa: sp 0 +
STACK CFI 146c4 .cfa: sp 304 +
STACK CFI 146e0 .cfa: x29 96 + x19: .cfa -8 + ^ x20: .cfa -16 + ^ x21: .cfa -24 + ^ x22: .cfa -32 + ^ x23: .cfa -40 + ^ x24: .cfa -48 + ^ x25: .cfa -56 + ^ x26: .cfa -64 + ^ x28: .cfa -80 + ^ .ra: .cfa -88 + ^ x29: .cfa -96 + ^
STACK CFI 14b30 .cfa: sp 304 +
STACK CFI 14b4c .cfa: sp 0 +
STACK CFI 14b50 .cfa: x29 96 +
STACK CFI INIT 14d58 74 .cfa: sp 0 +
STACK CFI 14d5c .cfa: sp 48 +
STACK CFI 14d68 .cfa: x29 32 + x19: .cfa -8 + ^ x20: .cfa -16 + ^ .ra: .cfa -24 + ^ x29: .cfa -32 + ^
STACK CFI 14db4 .cfa: sp 48 +
STACK CFI 14dc0 .cfa: sp 0 +
STACK CFI 14dc4 .cfa: x29 32 +
STACK CFI INIT 14e5c 154 .cfa: sp 0 +
STACK CFI 14e60 .cfa: sp 384 +
STACK CFI 14e74 .cfa: x29 64 + x19: .cfa -8 + ^ x20: .cfa -16 + ^ x21: .cfa -24 + ^ x22: .cfa -32 + ^ x23: .cfa -40 + ^ x28: .cfa -48 + ^ .ra: .cfa -56 + ^ x29: .cfa -64 + ^
STACK CFI 14f58 .cfa: sp 384 +
STACK CFI 14f6c .cfa: sp 0 +
STACK CFI 14f70 .cfa: x29 64 +
STACK CFI INIT 14fe4 12c .cfa: sp 0 +
STACK CFI 14fe8 .cfa: sp 80 +
STACK CFI 14ffc .cfa: x29 80 + x19: .cfa -8 + ^ x20: .cfa -16 + ^ x21: .cfa -24 + ^ x22: .cfa -32 + ^ x23: .cfa -40 + ^ x24: .cfa -48 + ^ x25: .cfa -56 + ^ x26: .cfa -64 + ^ .ra: .cfa -72 + ^ x29: .cfa -80 + ^
STACK CFI 150c4 .cfa: sp 80 +
STACK CFI 150d8 .cfa: sp 0 +
STACK CFI 150dc .cfa: x29 80 +
STACK CFI INIT 151b4 1a4 .cfa: sp 0 +
STACK CFI 151b8 .cfa: sp 112 +
STACK CFI 151d0 .cfa: x29 80 + x19: .cfa -8 + ^ x20: .cfa -16 + ^ x21: .cfa -24 + ^ x22: .cfa -32 + ^ x23: .cfa -40 + ^ x24: .cfa -48 + ^ x25: .cfa -56 + ^ x26: .cfa -64 + ^ .ra: .cfa -72 + ^ x29: .cfa -80 + ^
STACK CFI 152c0 .cfa: sp 112 +
STACK CFI 152d8 .cfa: sp 0 +
STACK CFI 152dc .cfa: x29 80 +
STACK CFI INIT 15358 1dc .cfa: sp 0 +
STACK CFI 1535c .cfa: sp 128 +
STACK CFI 15378 .cfa: x29 96 + x19: .cfa -8 + ^ x20: .cfa -16 + ^ x21: .cfa -24 + ^ x22: .cfa -32 + ^ x23: .cfa -40 + ^ x24: .cfa -48 + ^ x25: .cfa -56 + ^ x26: .cfa -64 + ^ x27: .cfa -80 + ^ .ra: .cfa -88 + ^ x29: .cfa -96 + ^
STACK CFI 154e4 .cfa: sp 128 +
STACK CFI 15500 .cfa: sp 0 +
STACK CFI 15504 .cfa: x29 96 +
STACK CFI INIT 15548 50 .cfa: sp 0 +
STACK CFI 1554c .cfa: sp 32 +
STACK CFI 15554 .cfa: x29 32 + x19: .cfa -8 + ^ x20: .cfa -16 + ^ .ra: .cfa -24 + ^ x29: .cfa -32 + ^
STACK CFI INIT 155fc 178 .cfa: sp 0 +
STACK CFI 15600 .cfa: sp 80 +
STACK CFI 15614 .cfa: x29 80 + x19: .cfa -8 + ^ x20: .cfa -16 + ^ x21: .cfa -24 + ^ x22: .cfa -32 + ^ x23: .cfa -40 + ^ x24: .cfa -48 + ^ x25: .cfa -64 + ^ .ra: .cfa -72 + ^ x29: .cfa -80 + ^
STACK CFI 15740 .cfa: sp 80 +
STACK CFI 15754 .cfa: sp 0 +
STACK CFI 15758 .cfa: x29 80 +
STACK CFI INIT 158bc 224 .cfa: sp 0 +
STACK CFI 158c0 .cfa: sp 128 +
STACK CFI 158d8 .cfa: x29 80 + x19: .cfa -8 + ^ x20: .cfa -16 + ^ x21: .cfa -24 + ^ x22: .cfa -32 + ^ x23: .cfa -40 + ^ x24: .cfa -48 + ^ x25: .cfa -64 + ^ .ra: .cfa -72 + ^ x29: .cfa -80 + ^
STACK CFI 15a74 .cfa: sp 128 +
STACK CFI 15a8c .cfa: sp 0 +
STACK CFI 15a90 .cfa: x29 80 +
STACK CFI INIT 1623c 5c0 .cfa: sp 0 +
STACK CFI 16240 .cfa: sp 112 +
STACK CFI 1625c .cfa: x29 96 + x19: .cfa -8 + ^ x20: .cfa -16 + ^ x21: .cfa -24 + ^ x22: .cfa -32 + ^ x23: .cfa -40 + ^ x24: .cfa -48 + ^ x25: .cfa -56 + ^ x26: .cfa -64 + ^ x27: .cfa -72 + ^ x28: .cfa -80 + ^ .ra: .cfa -88 + ^ x29: .cfa -96 + ^ v8: .cfa -112 + ^
STACK CFI 1639c .cfa: sp 112 +
STACK CFI 163b8 .cfa: sp 0 +
STACK CFI 163bc .cfa: x29 96 +
STACK CFI 16758 .cfa: sp 112 +
STACK CFI 16774 .cfa: sp 0 +
STACK CFI 16778 .cfa: x29 96 +
STACK CFI INIT 167fc 1fc .cfa: sp 0 +
STACK CFI 16800 .cfa: sp 80 +
STACK CFI 16814 .cfa: x29 80 + x19: .cfa -8 + ^ x20: .cfa -16 + ^ x21: .cfa -24 + ^ x22: .cfa -32 + ^ x23: .cfa -40 + ^ x24: .cfa -48 + ^ x25: .cfa -56 + ^ x28: .cfa -64 + ^ .ra: .cfa -72 + ^ x29: .cfa -80 + ^
STACK CFI 16954 .cfa: sp 80 +
STACK CFI 16968 .cfa: sp 0 +
STACK CFI 1696c .cfa: x29 80 +
STACK CFI INIT 169f8 c8 .cfa: sp 0 +
STACK CFI 169fc .cfa: sp 32 +
STACK CFI 16a04 .cfa: x29 32 + x19: .cfa -8 + ^ x20: .cfa -16 + ^ .ra: .cfa -24 + ^ x29: .cfa -32 + ^
STACK CFI 16a38 .cfa: sp 32 +
STACK CFI 16a40 .cfa: sp 0 +
STACK CFI 16a44 .cfa: x29 32 +
STACK CFI 16a48 .cfa: sp 32 +
STACK CFI 16a50 .cfa: sp 0 +
STACK CFI 16a54 .cfa: x29 32 +
STACK CFI INIT 16ac0 82c .cfa: sp 0 +
STACK CFI 16ac4 .cfa: sp 80 +
STACK CFI 16ad8 .cfa: x29 80 + x19: .cfa -8 + ^ x20: .cfa -16 + ^ x21: .cfa -24 + ^ x22: .cfa -32 + ^ x23: .cfa -40 + ^ x24: .cfa -48 + ^ x25: .cfa -56 + ^ x26: .cfa -64 + ^ .ra: .cfa -72 + ^ x29: .cfa -80 + ^
STACK CFI 16f70 .cfa: sp 80 +
STACK CFI 16f84 .cfa: sp 0 +
STACK CFI 16f88 .cfa: x29 80 +
STACK CFI INIT 172ec 578 .cfa: sp 0 +
STACK CFI 172f0 .cfa: sp 96 +
STACK CFI 17304 .cfa: x29 64 + x19: .cfa -8 + ^ x20: .cfa -16 + ^ x21: .cfa -24 + ^ x22: .cfa -32 + ^ x23: .cfa -48 + ^ .ra: .cfa -56 + ^ x29: .cfa -64 + ^
STACK CFI 176a4 .cfa: sp 96 +
STACK CFI 176b8 .cfa: sp 0 +
STACK CFI 176bc .cfa: x29 64 +
STACK CFI INIT 179d8 1c .cfa: sp 0 +
STACK CFI 179dc .cfa: sp 16 +
STACK CFI 179e0 .cfa: x29 16 + .ra: .cfa -8 + ^ x29: .cfa -16 + ^
STACK CFI 179e8 .cfa: sp 16 +
STACK CFI 179ec .cfa: sp 0 +
STACK CFI 179f0 .cfa: x29 16 +
STACK CFI INIT 17d00 3f8 .cfa: sp 0 +
STACK CFI 17d04 .cfa: sp 48 +
STACK CFI 17d10 .cfa: x29 48 + x19: .cfa -8 + ^ x20: .cfa -16 + ^ x21: .cfa -24 + ^ x22: .cfa -32 + ^ .ra: .cfa -40 + ^ x29: .cfa -48 + ^
STACK CFI 18078 .cfa: sp 48 +
STACK CFI 18084 .cfa: sp 0 +
STACK CFI 18088 .cfa: x29 48 +
STACK CFI 180d8 .cfa: sp 48 +
STACK CFI 180e4 .cfa: sp 0 +
STACK CFI 180e8 .cfa: x29 48 +
STACK CFI INIT 18170 1c .cfa: sp 0 +
STACK CFI 18174 .cfa: sp 16 +
STACK CFI 18178 .cfa: x29 16 + .ra: .cfa -8 + ^ x29: .cfa -16 + ^
STACK CFI 18180 .cfa: sp 16 +
STACK CFI 18184 .cfa: sp 0 +
STACK CFI 18188 .cfa: x29 16 +
STACK CFI INIT 1821c 98 .cfa: sp 0 +
STACK CFI 18220 .cfa: sp 48 +
STACK CFI 1822c .cfa: x29 48 + x19: .cfa -8 + ^ x20: .cfa -16 + ^ x21: .cfa -32 + ^ .ra: .cfa -40 + ^ x29: .cfa -48 + ^
STACK CFI 1828c .cfa: sp 48 +
STACK CFI 18298 .cfa: sp 0 +
STACK CFI 1829c .cfa: sp 48 +
STACK CFI 182a8 .cfa: sp 0 +
STACK CFI 182ac .cfa: x29 48 +
STACK CFI INIT 182f0 1c .cfa: sp 0 +
STACK CFI 182f4 .cfa: sp 16 +
STACK CFI 182f8 .cfa: x29 16 + .ra: .cfa -8 + ^ x29: .cfa -16 + ^
STACK CFI 18300 .cfa: sp 16 +
STACK CFI 18304 .cfa: sp 0 +
STACK CFI 18308 .cfa: x29 16 +
STACK CFI INIT 1830c 1c .cfa: sp 0 +
STACK CFI 18310 .cfa: sp 16 +
STACK CFI 18314 .cfa: x29 16 + .ra: .cfa -8 + ^ x29: .cfa -16 + ^
STACK CFI 1831c .cfa: sp 16 +
STACK CFI 18320 .cfa: sp 0 +
STACK CFI 18324 .cfa: x29 16 +
STACK CFI INIT 18508 1cc .cfa: sp 0 +
STACK CFI 1850c .cfa: sp 160 +
STACK CFI 18524 .cfa: x29 80 + x19: .cfa -8 + ^ x20: .cfa -16 + ^ x21: .cfa -24 + ^ x22: .cfa -32 + ^ x23: .cfa -40 + ^ x24: .cfa -48 + ^ x25: .cfa -56 + ^ x26: .cfa -64 + ^ .ra: .cfa -72 + ^ x29: .cfa -80 + ^
STACK CFI 18680 .cfa: sp 160 +
STACK CFI 18698 .cfa: sp 0 +
STACK CFI 1869c .cfa: x29 80 +
STACK CFI INIT 18a8c 1a0 .cfa: sp 0 +
STACK CFI 18a90 .cfa: sp 64 +
STACK CFI 18aa0 .cfa: x29 64 + x19: .cfa -8 + ^ x20: .cfa -16 + ^ x21: .cfa -24 + ^ x22: .cfa -32 + ^ x23: .cfa -48 + ^ .ra: .cfa -56 + ^ x29: .cfa -64 + ^
STACK CFI 18b50 .cfa: sp 64 +
STACK CFI 18b60 .cfa: sp 0 +
STACK CFI 18b64 .cfa: x29 64 +
STACK CFI INIT 19260 a8 .cfa: sp 0 +
STACK CFI 19264 .cfa: sp 64 +
STACK CFI 19274 .cfa: x29 64 + x19: .cfa -8 + ^ x20: .cfa -16 + ^ x21: .cfa -24 + ^ x22: .cfa -32 + ^ x23: .cfa -40 + ^ x24: .cfa -48 + ^ .ra: .cfa -56 + ^ x29: .cfa -64 + ^
STACK CFI 19298 .cfa: sp 64 +
STACK CFI 192a8 .cfa: sp 0 +
STACK CFI 192ac .cfa: x29 64 +
STACK CFI INIT 19734 14a4 .cfa: sp 0 +
STACK CFI 19738 .cfa: sp 96 +
STACK CFI 19750 .cfa: x29 96 + x19: .cfa -8 + ^ x20: .cfa -16 + ^ x21: .cfa -24 + ^ x22: .cfa -32 + ^ x23: .cfa -40 + ^ x24: .cfa -48 + ^ x25: .cfa -56 + ^ x26: .cfa -64 + ^ x27: .cfa -72 + ^ x28: .cfa -80 + ^ .ra: .cfa -88 + ^ x29: .cfa -96 + ^
STACK CFI 19dc4 .cfa: sp 96 +
STACK CFI 19ddc .cfa: sp 0 +
STACK CFI 19de0 .cfa: x29 96 +
STACK CFI INIT 1af60 50 .cfa: sp 0 +
STACK CFI 1af64 .cfa: sp 32 +
STACK CFI 1af6c .cfa: x29 32 + x19: .cfa -8 + ^ x20: .cfa -16 + ^ .ra: .cfa -24 + ^ x29: .cfa -32 + ^
STACK CFI INIT 1bb0c 1c8 .cfa: sp 0 +
STACK CFI 1bb10 .cfa: sp 160 +
STACK CFI 1bb2c .cfa: x29 96 + x19: .cfa -8 + ^ x20: .cfa -16 + ^ x21: .cfa -24 + ^ x22: .cfa -32 + ^ x23: .cfa -40 + ^ x24: .cfa -48 + ^ x25: .cfa -56 + ^ x26: .cfa -64 + ^ x27: .cfa -72 + ^ x28: .cfa -80 + ^ .ra: .cfa -88 + ^ x29: .cfa -96 + ^
STACK CFI 1bc14 .cfa: sp 160 +
STACK CFI 1bc30 .cfa: sp 0 +
STACK CFI 1bc34 .cfa: x29 96 +
STACK CFI INIT 1bcd4 128 .cfa: sp 0 +
STACK CFI 1bcd8 .cfa: sp 64 +
STACK CFI 1bce8 .cfa: x29 64 + x19: .cfa -8 + ^ x20: .cfa -16 + ^ x21: .cfa -24 + ^ x22: .cfa -32 + ^ x23: .cfa -40 + ^ x28: .cfa -48 + ^ .ra: .cfa -56 + ^ x29: .cfa -64 + ^
STACK CFI 1bd84 .cfa: sp 64 +
STACK CFI 1bd94 .cfa: sp 0 +
STACK CFI 1bd98 .cfa: x29 64 +
STACK CFI 1bdb4 .cfa: sp 64 +
STACK CFI 1bdc4 .cfa: sp 0 +
STACK CFI 1bdc8 .cfa: x29 64 +
STACK CFI INIT 1bf54 234 .cfa: sp 0 +
STACK CFI 1bf58 .cfa: sp 352 +
STACK CFI 1bf70 .cfa: x29 80 + x19: .cfa -8 + ^ x20: .cfa -16 + ^ x21: .cfa -24 + ^ x22: .cfa -32 + ^ x23: .cfa -40 + ^ x24: .cfa -48 + ^ x28: .cfa -64 + ^ .ra: .cfa -72 + ^ x29: .cfa -80 + ^
STACK CFI 1c0b0 .cfa: sp 352 +
STACK CFI 1c0c8 .cfa: sp 0 +
STACK CFI 1c0cc .cfa: x29 80 +
STACK CFI INIT 1c188 71c .cfa: sp 0 +
STACK CFI 1c18c .cfa: sp 400 +
STACK CFI 1c1a4 .cfa: x29 80 + x19: .cfa -8 + ^ x20: .cfa -16 + ^ x21: .cfa -24 + ^ x22: .cfa -32 + ^ x23: .cfa -40 + ^ x24: .cfa -48 + ^ x25: .cfa -56 + ^ x28: .cfa -64 + ^ .ra: .cfa -72 + ^ x29: .cfa -80 + ^
STACK CFI 1c764 .cfa: sp 400 +
STACK CFI 1c77c .cfa: sp 0 +
STACK CFI 1c780 .cfa: x29 80 +
STACK CFI INIT 1caf4 13c .cfa: sp 0 +
STACK CFI 1caf8 .cfa: sp 64 +
STACK CFI 1cb08 .cfa: x29 64 + x19: .cfa -8 + ^ x20: .cfa -16 + ^ x21: .cfa -24 + ^ x22: .cfa -32 + ^ x23: .cfa -40 + ^ x28: .cfa -48 + ^ .ra: .cfa -56 + ^ x29: .cfa -64 + ^
STACK CFI 1cba4 .cfa: sp 64 +
STACK CFI 1cbb4 .cfa: sp 0 +
STACK CFI 1cbb8 .cfa: x29 64 +
STACK CFI 1cbe8 .cfa: sp 64 +
STACK CFI 1cbf8 .cfa: sp 0 +
STACK CFI 1cbfc .cfa: x29 64 +
STACK CFI INIT 1cc30 128 .cfa: sp 0 +
STACK CFI 1cc34 .cfa: sp 64 +
STACK CFI 1cc44 .cfa: x29 64 + x19: .cfa -8 + ^ x20: .cfa -16 + ^ x21: .cfa -24 + ^ x22: .cfa -32 + ^ x23: .cfa -40 + ^ x28: .cfa -48 + ^ .ra: .cfa -56 + ^ x29: .cfa -64 + ^
STACK CFI 1cce0 .cfa: sp 64 +
STACK CFI 1ccf0 .cfa: sp 0 +
STACK CFI 1ccf4 .cfa: x29 64 +
STACK CFI 1cd10 .cfa: sp 64 +
STACK CFI 1cd20 .cfa: sp 0 +
STACK CFI 1cd24 .cfa: x29 64 +
STACK CFI INIT 1cd58 128 .cfa: sp 0 +
STACK CFI 1cd5c .cfa: sp 64 +
STACK CFI 1cd6c .cfa: x29 64 + x19: .cfa -8 + ^ x20: .cfa -16 + ^ x21: .cfa -24 + ^ x22: .cfa -32 + ^ x23: .cfa -40 + ^ x28: .cfa -48 + ^ .ra: .cfa -56 + ^ x29: .cfa -64 + ^
STACK CFI 1ce08 .cfa: sp 64 +
STACK CFI 1ce18 .cfa: sp 0 +
STACK CFI 1ce1c .cfa: x29 64 +
STACK CFI 1ce38 .cfa: sp 64 +
STACK CFI 1ce48 .cfa: sp 0 +
STACK CFI 1ce4c .cfa: x29 64 +
STACK CFI INIT 1ce80 1bc .cfa: sp 0 +
STACK CFI 1ce84 .cfa: sp 160 +
STACK CFI 1cea0 .cfa: x29 96 + x19: .cfa -8 + ^ x20: .cfa -16 + ^ x21: .cfa -24 + ^ x22: .cfa -32 + ^ x23: .cfa -40 + ^ x24: .cfa -48 + ^ x25: .cfa -56 + ^ x26: .cfa -64 + ^ x27: .cfa -80 + ^ .ra: .cfa -88 + ^ x29: .cfa -96 + ^
STACK CFI 1cf7c .cfa: sp 160 +
STACK CFI 1cf98 .cfa: sp 0 +
STACK CFI 1cf9c .cfa: x29 96 +
STACK CFI INIT 1d03c 240 .cfa: sp 0 +
STACK CFI 1d040 .cfa: sp 80 +
STACK CFI 1d054 .cfa: x29 80 + x19: .cfa -8 + ^ x20: .cfa -16 + ^ x21: .cfa -24 + ^ x22: .cfa -32 + ^ x23: .cfa -40 + ^ x24: .cfa -48 + ^ x25: .cfa -56 + ^ x28: .cfa -64 + ^ .ra: .cfa -72 + ^ x29: .cfa -80 + ^
STACK CFI 1d230 .cfa: sp 80 +
STACK CFI 1d244 .cfa: sp 0 +
STACK CFI 1d248 .cfa: x29 80 +
STACK CFI INIT 1d27c 18c .cfa: sp 0 +
STACK CFI 1d280 .cfa: sp 64 +
STACK CFI 1d290 .cfa: x29 64 + x19: .cfa -8 + ^ x20: .cfa -16 + ^ x21: .cfa -24 + ^ x22: .cfa -32 + ^ x23: .cfa -40 + ^ x28: .cfa -48 + ^ .ra: .cfa -56 + ^ x29: .cfa -64 + ^
STACK CFI 1d3c0 .cfa: sp 64 +
STACK CFI 1d3d0 .cfa: sp 0 +
STACK CFI 1d3d4 .cfa: x29 64 +
STACK CFI INIT 1f458 374 .cfa: sp 0 +
STACK CFI 1f45c .cfa: sp 256 +
STACK CFI 1f470 .cfa: x29 64 + x19: .cfa -8 + ^ x20: .cfa -16 + ^ x21: .cfa -24 + ^ x22: .cfa -32 + ^ x23: .cfa -48 + ^ .ra: .cfa -56 + ^ x29: .cfa -64 + ^
STACK CFI 1f6a0 .cfa: sp 256 +
STACK CFI 1f6b4 .cfa: sp 0 +
STACK CFI 1f6b8 .cfa: x29 64 +
STACK CFI INIT 1f934 174 .cfa: sp 0 +
STACK CFI 1f938 .cfa: sp 128 +
STACK CFI 1f944 .cfa: x29 32 + x19: .cfa -8 + ^ x20: .cfa -16 + ^ .ra: .cfa -24 + ^ x29: .cfa -32 + ^
STACK CFI 1fa20 .cfa: sp 128 +
STACK CFI 1fa2c .cfa: sp 0 +
STACK CFI 1fa30 .cfa: x29 32 +
STACK CFI INIT 1fb00 104 .cfa: sp 0 +
STACK CFI 1fb04 .cfa: sp 64 +
STACK CFI 1fb10 .cfa: x29 32 + x19: .cfa -8 + ^ x20: .cfa -16 + ^ .ra: .cfa -24 + ^ x29: .cfa -32 + ^
STACK CFI 1fbbc .cfa: sp 64 +
STACK CFI 1fbc8 .cfa: sp 0 +
STACK CFI 1fbcc .cfa: x29 32 +
STACK CFI INIT 1fcb4 134 .cfa: sp 0 +
STACK CFI 1fcb8 .cfa: sp 80 +
STACK CFI 1fcc4 .cfa: x29 32 + x19: .cfa -8 + ^ x20: .cfa -16 + ^ .ra: .cfa -24 + ^ x29: .cfa -32 + ^
STACK CFI 1fcf4 .cfa: sp 80 +
STACK CFI 1fd00 .cfa: sp 0 +
STACK CFI 1fd04 .cfa: x29 32 +
STACK CFI INIT 1fde8 78 .cfa: sp 0 +
STACK CFI 1fdec .cfa: sp 32 +
STACK CFI 1fdf4 .cfa: x29 32 + x19: .cfa -8 + ^ x20: .cfa -16 + ^ .ra: .cfa -24 + ^ x29: .cfa -32 + ^
STACK CFI 1fe00 .cfa: sp 32 +
STACK CFI 1fe08 .cfa: sp 0 +
STACK CFI 1fe0c .cfa: x29 32 +
STACK CFI INIT 1fe60 74 .cfa: sp 0 +
STACK CFI 1fe64 .cfa: sp 48 +
STACK CFI 1fe70 .cfa: x29 32 + x19: .cfa -8 + ^ x20: .cfa -16 + ^ .ra: .cfa -24 + ^ x29: .cfa -32 + ^
STACK CFI 1febc .cfa: sp 48 +
STACK CFI 1fec8 .cfa: sp 0 +
STACK CFI 1fecc .cfa: x29 32 +
STACK CFI INIT 1ffd4 1b8 .cfa: sp 0 +
STACK CFI 1ffd8 .cfa: sp 160 +
STACK CFI 1fff4 .cfa: x29 72 + x19: .cfa -8 + ^ x20: .cfa -16 + ^ x21: .cfa -24 + ^ x22: .cfa -32 + ^ x23: .cfa -40 + ^ x24: .cfa -48 + ^ x25: .cfa -56 + ^ .ra: .cfa -64 + ^ x29: .cfa -72 + ^ v8: .cfa -80 + ^
STACK CFI 20078 .cfa: sp 160 +
STACK CFI 20094 .cfa: sp 0 +
STACK CFI 20098 .cfa: x29 72 +
STACK CFI INIT 2018c 16c .cfa: sp 0 +
STACK CFI 20190 .cfa: sp 64 +
STACK CFI 201a0 .cfa: x29 48 + x19: .cfa -8 + ^ x20: .cfa -16 + ^ x21: .cfa -24 + ^ x22: .cfa -32 + ^ .ra: .cfa -40 + ^ x29: .cfa -48 + ^
STACK CFI 20298 .cfa: sp 64 +
STACK CFI 202a8 .cfa: sp 0 +
STACK CFI 202ac .cfa: x29 48 +
STACK CFI INIT 202f8 814 .cfa: sp 0 +
STACK CFI 202fc .cfa: sp 128 +
STACK CFI 20310 .cfa: x29 64 + x19: .cfa -8 + ^ x20: .cfa -16 + ^ x21: .cfa -24 + ^ x22: .cfa -32 + ^ x23: .cfa -48 + ^ .ra: .cfa -56 + ^ x29: .cfa -64 + ^
STACK CFI 20944 .cfa: sp 128 +
STACK CFI 20958 .cfa: sp 0 +
STACK CFI 2095c .cfa: x29 64 +
STACK CFI INIT 20b0c 7b0 .cfa: sp 0 +
STACK CFI 20b10 .cfa: sp 80 +
STACK CFI 20b24 .cfa: x29 80 + x19: .cfa -8 + ^ x20: .cfa -16 + ^ x21: .cfa -24 + ^ x22: .cfa -32 + ^ x23: .cfa -40 + ^ x24: .cfa -48 + ^ x25: .cfa -56 + ^ x26: .cfa -64 + ^ .ra: .cfa -72 + ^ x29: .cfa -80 + ^
STACK CFI 20f40 .cfa: sp 80 +
STACK CFI 20f54 .cfa: sp 0 +
STACK CFI 20f58 .cfa: x29 80 +
STACK CFI INIT 21310 16c .cfa: sp 0 +
STACK CFI 21314 .cfa: sp 160 +
STACK CFI 2132c .cfa: x29 80 + x19: .cfa -8 + ^ x20: .cfa -16 + ^ x21: .cfa -24 + ^ x22: .cfa -32 + ^ x23: .cfa -40 + ^ x24: .cfa -48 + ^ x25: .cfa -56 + ^ x26: .cfa -64 + ^ .ra: .cfa -72 + ^ x29: .cfa -80 + ^
STACK CFI 21394 .cfa: sp 160 +
STACK CFI 213ac .cfa: sp 0 +
STACK CFI 213b0 .cfa: x29 80 +
STACK CFI INIT 2147c 174 .cfa: sp 0 +
STACK CFI 21480 .cfa: sp 96 +
STACK CFI 21490 .cfa: x29 48 + x19: .cfa -8 + ^ x20: .cfa -16 + ^ x21: .cfa -24 + ^ x22: .cfa -32 + ^ .ra: .cfa -40 + ^ x29: .cfa -48 + ^
STACK CFI 21590 .cfa: sp 96 +
STACK CFI 215a0 .cfa: sp 0 +
STACK CFI 215a4 .cfa: x29 48 +
STACK CFI INIT 215f8 17c .cfa: sp 0 +
STACK CFI 215fc .cfa: sp 176 +
STACK CFI 21618 .cfa: x29 80 + x19: .cfa -8 + ^ x20: .cfa -16 + ^ x21: .cfa -24 + ^ x22: .cfa -32 + ^ x23: .cfa -40 + ^ x24: .cfa -48 + ^ x25: .cfa -56 + ^ x26: .cfa -64 + ^ .ra: .cfa -72 + ^ x29: .cfa -80 + ^ v8: .cfa -96 + ^
STACK CFI 21688 .cfa: sp 176 +
STACK CFI 216a4 .cfa: sp 0 +
STACK CFI 216a8 .cfa: x29 80 +
STACK CFI INIT 21774 178 .cfa: sp 0 +
STACK CFI 21778 .cfa: sp 96 +
STACK CFI 21788 .cfa: x29 48 + x19: .cfa -8 + ^ x20: .cfa -16 + ^ x21: .cfa -24 + ^ x22: .cfa -32 + ^ .ra: .cfa -40 + ^ x29: .cfa -48 + ^
STACK CFI 2188c .cfa: sp 96 +
STACK CFI 2189c .cfa: sp 0 +
STACK CFI 218a0 .cfa: x29 48 +
STACK CFI INIT 218f4 15c .cfa: sp 0 +
STACK CFI 218f8 .cfa: sp 144 +
STACK CFI 21910 .cfa: x29 56 + x19: .cfa -8 + ^ x20: .cfa -16 + ^ x21: .cfa -24 + ^ x22: .cfa -32 + ^ x23: .cfa -40 + ^ .ra: .cfa -48 + ^ x29: .cfa -56 + ^ v8: .cfa -64 + ^
STACK CFI 21968 .cfa: sp 144 +
STACK CFI 21980 .cfa: sp 0 +
STACK CFI 21984 .cfa: x29 56 +
STACK CFI INIT 21a50 10c .cfa: sp 0 +
STACK CFI 21a54 .cfa: sp 64 +
STACK CFI 21a64 .cfa: x29 48 + x19: .cfa -8 + ^ x20: .cfa -16 + ^ x21: .cfa -24 + ^ x22: .cfa -32 + ^ .ra: .cfa -40 + ^ x29: .cfa -48 + ^
STACK CFI 21b14 .cfa: sp 64 +
STACK CFI 21b24 .cfa: sp 0 +
STACK CFI 21b28 .cfa: x29 48 +
STACK CFI INIT 21b64 14c .cfa: sp 0 +
STACK CFI 21b68 .cfa: sp 144 +
STACK CFI 21b7c .cfa: x29 64 + x19: .cfa -8 + ^ x20: .cfa -16 + ^ x21: .cfa -24 + ^ x22: .cfa -32 + ^ x23: .cfa -48 + ^ .ra: .cfa -56 + ^ x29: .cfa -64 + ^
STACK CFI 21bcc .cfa: sp 144 +
STACK CFI 21be0 .cfa: sp 0 +
STACK CFI 21be4 .cfa: x29 64 +
STACK CFI INIT 21cb0 100 .cfa: sp 0 +
STACK CFI 21cb4 .cfa: sp 64 +
STACK CFI 21cc4 .cfa: x29 48 + x19: .cfa -8 + ^ x20: .cfa -16 + ^ x21: .cfa -24 + ^ x22: .cfa -32 + ^ .ra: .cfa -40 + ^ x29: .cfa -48 + ^
STACK CFI 21d68 .cfa: sp 64 +
STACK CFI 21d78 .cfa: sp 0 +
STACK CFI 21d7c .cfa: x29 48 +
STACK CFI INIT 21dc8 164 .cfa: sp 0 +
STACK CFI 21dcc .cfa: sp 160 +
STACK CFI 21de4 .cfa: x29 80 + x19: .cfa -8 + ^ x20: .cfa -16 + ^ x21: .cfa -24 + ^ x22: .cfa -32 + ^ x23: .cfa -40 + ^ x24: .cfa -48 + ^ x25: .cfa -64 + ^ .ra: .cfa -72 + ^ x29: .cfa -80 + ^
STACK CFI 21e44 .cfa: sp 160 +
STACK CFI 21e5c .cfa: sp 0 +
STACK CFI 21e60 .cfa: x29 80 +
STACK CFI INIT 21f2c 164 .cfa: sp 0 +
STACK CFI 21f30 .cfa: sp 64 +
STACK CFI 21f40 .cfa: x29 48 + x19: .cfa -8 + ^ x20: .cfa -16 + ^ x21: .cfa -24 + ^ x22: .cfa -32 + ^ .ra: .cfa -40 + ^ x29: .cfa -48 + ^
STACK CFI 22030 .cfa: sp 64 +
STACK CFI 22040 .cfa: sp 0 +
STACK CFI 22044 .cfa: x29 48 +
STACK CFI INIT 22090 17c .cfa: sp 0 +
STACK CFI 22094 .cfa: sp 176 +
STACK CFI 220b0 .cfa: x29 96 + x19: .cfa -8 + ^ x20: .cfa -16 + ^ x21: .cfa -24 + ^ x22: .cfa -32 + ^ x23: .cfa -40 + ^ x24: .cfa -48 + ^ x25: .cfa -56 + ^ x26: .cfa -64 + ^ x27: .cfa -80 + ^ .ra: .cfa -88 + ^ x29: .cfa -96 + ^
STACK CFI 22120 .cfa: sp 176 +
STACK CFI 2213c .cfa: sp 0 +
STACK CFI 22140 .cfa: x29 96 +
STACK CFI INIT 2220c 178 .cfa: sp 0 +
STACK CFI 22210 .cfa: sp 64 +
STACK CFI 22220 .cfa: x29 48 + x19: .cfa -8 + ^ x20: .cfa -16 + ^ x21: .cfa -24 + ^ x22: .cfa -32 + ^ .ra: .cfa -40 + ^ x29: .cfa -48 + ^
STACK CFI 22324 .cfa: sp 64 +
STACK CFI 22334 .cfa: sp 0 +
STACK CFI 22338 .cfa: x29 48 +
STACK CFI INIT 22384 14c .cfa: sp 0 +
STACK CFI 22388 .cfa: sp 144 +
STACK CFI 2239c .cfa: x29 64 + x19: .cfa -8 + ^ x20: .cfa -16 + ^ x21: .cfa -24 + ^ x22: .cfa -32 + ^ x23: .cfa -48 + ^ .ra: .cfa -56 + ^ x29: .cfa -64 + ^
STACK CFI 223ec .cfa: sp 144 +
STACK CFI 22400 .cfa: sp 0 +
STACK CFI 22404 .cfa: x29 64 +
STACK CFI INIT 224d0 100 .cfa: sp 0 +
STACK CFI 224d4 .cfa: sp 64 +
STACK CFI 224e4 .cfa: x29 48 + x19: .cfa -8 + ^ x20: .cfa -16 + ^ x21: .cfa -24 + ^ x22: .cfa -32 + ^ .ra: .cfa -40 + ^ x29: .cfa -48 + ^
STACK CFI 22588 .cfa: sp 64 +
STACK CFI 22598 .cfa: sp 0 +
STACK CFI 2259c .cfa: x29 48 +
STACK CFI INIT 225d0 354 .cfa: sp 0 +
STACK CFI 225d4 .cfa: sp 128 +
STACK CFI 225e8 .cfa: x29 64 + x19: .cfa -8 + ^ x20: .cfa -16 + ^ x21: .cfa -24 + ^ x22: .cfa -32 + ^ x23: .cfa -48 + ^ .ra: .cfa -56 + ^ x29: .cfa -64 + ^
STACK CFI 227d0 .cfa: sp 128 +
STACK CFI 227e4 .cfa: sp 0 +
STACK CFI 227e8 .cfa: x29 64 +
STACK CFI INIT 22978 14c .cfa: sp 0 +
STACK CFI 2297c .cfa: sp 144 +
STACK CFI 22990 .cfa: x29 64 + x19: .cfa -8 + ^ x20: .cfa -16 + ^ x21: .cfa -24 + ^ x22: .cfa -32 + ^ x23: .cfa -48 + ^ .ra: .cfa -56 + ^ x29: .cfa -64 + ^
STACK CFI 229e0 .cfa: sp 144 +
STACK CFI 229f4 .cfa: sp 0 +
STACK CFI 229f8 .cfa: x29 64 +
STACK CFI INIT 22ac4 100 .cfa: sp 0 +
STACK CFI 22ac8 .cfa: sp 64 +
STACK CFI 22ad8 .cfa: x29 48 + x19: .cfa -8 + ^ x20: .cfa -16 + ^ x21: .cfa -24 + ^ x22: .cfa -32 + ^ .ra: .cfa -40 + ^ x29: .cfa -48 + ^
STACK CFI 22b7c .cfa: sp 64 +
STACK CFI 22b8c .cfa: sp 0 +
STACK CFI 22b90 .cfa: x29 48 +
STACK CFI INIT 22be0 2c8 .cfa: sp 0 +
STACK CFI 22be4 .cfa: sp 128 +
STACK CFI 22bf8 .cfa: x29 64 + x19: .cfa -8 + ^ x20: .cfa -16 + ^ x21: .cfa -24 + ^ x22: .cfa -32 + ^ x23: .cfa -48 + ^ .ra: .cfa -56 + ^ x29: .cfa -64 + ^
STACK CFI 22d54 .cfa: sp 128 +
STACK CFI 22d68 .cfa: sp 0 +
STACK CFI 22d6c .cfa: x29 64 +
STACK CFI INIT 22ea8 278 .cfa: sp 0 +
STACK CFI 22eac .cfa: sp 128 +
STACK CFI 22ec0 .cfa: x29 64 + x19: .cfa -8 + ^ x20: .cfa -16 + ^ x21: .cfa -24 + ^ x22: .cfa -32 + ^ x23: .cfa -48 + ^ .ra: .cfa -56 + ^ x29: .cfa -64 + ^
STACK CFI 22fcc .cfa: sp 128 +
STACK CFI 22fe0 .cfa: sp 0 +
STACK CFI 22fe4 .cfa: x29 64 +
STACK CFI INIT 23120 4cc .cfa: sp 0 +
STACK CFI 23124 .cfa: sp 128 +
STACK CFI 23138 .cfa: x29 64 + x19: .cfa -8 + ^ x20: .cfa -16 + ^ x21: .cfa -24 + ^ x22: .cfa -32 + ^ x23: .cfa -48 + ^ .ra: .cfa -56 + ^ x29: .cfa -64 + ^
STACK CFI 23444 .cfa: sp 128 +
STACK CFI 23458 .cfa: sp 0 +
STACK CFI 2345c .cfa: x29 64 +
STACK CFI INIT 235ec 154 .cfa: sp 0 +
STACK CFI 235f0 .cfa: sp 384 +
STACK CFI 23604 .cfa: x29 64 + x19: .cfa -8 + ^ x20: .cfa -16 + ^ x21: .cfa -24 + ^ x22: .cfa -32 + ^ x23: .cfa -40 + ^ x28: .cfa -48 + ^ .ra: .cfa -56 + ^ x29: .cfa -64 + ^
STACK CFI 236e8 .cfa: sp 384 +
STACK CFI 236fc .cfa: sp 0 +
STACK CFI 23700 .cfa: x29 64 +
STACK CFI INIT 23740 168 .cfa: sp 0 +
STACK CFI 23744 .cfa: sp 384 +
STACK CFI 23758 .cfa: x29 64 + x19: .cfa -8 + ^ x20: .cfa -16 + ^ x21: .cfa -24 + ^ x22: .cfa -32 + ^ x23: .cfa -40 + ^ x28: .cfa -48 + ^ .ra: .cfa -56 + ^ x29: .cfa -64 + ^
STACK CFI 23850 .cfa: sp 384 +
STACK CFI 23864 .cfa: sp 0 +
STACK CFI 23868 .cfa: x29 64 +
STACK CFI INIT 238c0 4e0 .cfa: sp 0 +
STACK CFI 238c4 .cfa: sp 64 +
STACK CFI 238d4 .cfa: x29 64 + x19: .cfa -8 + ^ x20: .cfa -16 + ^ x21: .cfa -24 + ^ x22: .cfa -32 + ^ x23: .cfa -40 + ^ x24: .cfa -48 + ^ .ra: .cfa -56 + ^ x29: .cfa -64 + ^
STACK CFI 23d74 .cfa: sp 64 +
STACK CFI 23d84 .cfa: sp 0 +
STACK CFI 23d88 .cfa: x29 64 +
STACK CFI INIT 240d0 294 .cfa: sp 0 +
STACK CFI 240d4 .cfa: sp 240 +
STACK CFI 240ec .cfa: x29 80 + x19: .cfa -8 + ^ x20: .cfa -16 + ^ x21: .cfa -24 + ^ x22: .cfa -32 + ^ x23: .cfa -40 + ^ x24: .cfa -48 + ^ x25: .cfa -64 + ^ .ra: .cfa -72 + ^ x29: .cfa -80 + ^
STACK CFI 2428c .cfa: sp 240 +
STACK CFI 242a4 .cfa: sp 0 +
STACK CFI 242a8 .cfa: x29 80 +
STACK CFI INIT 243e0 50 .cfa: sp 0 +
STACK CFI 243e4 .cfa: sp 32 +
STACK CFI 243ec .cfa: x29 32 + x19: .cfa -8 + ^ x20: .cfa -16 + ^ .ra: .cfa -24 + ^ x29: .cfa -32 + ^
STACK CFI INIT 24430 7c0 .cfa: sp 0 +
STACK CFI 24434 .cfa: sp 320 +
STACK CFI 24450 .cfa: x29 96 + x19: .cfa -8 + ^ x20: .cfa -16 + ^ x21: .cfa -24 + ^ x22: .cfa -32 + ^ x23: .cfa -40 + ^ x24: .cfa -48 + ^ x25: .cfa -56 + ^ x26: .cfa -64 + ^ x27: .cfa -72 + ^ x28: .cfa -80 + ^ .ra: .cfa -88 + ^ x29: .cfa -96 + ^
STACK CFI 24aa0 .cfa: sp 320 +
STACK CFI 24abc .cfa: sp 0 +
STACK CFI 24ac0 .cfa: x29 96 +
STACK CFI INIT 28770 c84 .cfa: sp 0 +
STACK CFI 28774 .cfa: sp 96 +
STACK CFI 2878c .cfa: x29 96 + x19: .cfa -8 + ^ x20: .cfa -16 + ^ x21: .cfa -24 + ^ x22: .cfa -32 + ^ x23: .cfa -40 + ^ x24: .cfa -48 + ^ x25: .cfa -56 + ^ x26: .cfa -64 + ^ x27: .cfa -72 + ^ x28: .cfa -80 + ^ .ra: .cfa -88 + ^ x29: .cfa -96 + ^
STACK CFI 29214 .cfa: sp 96 +
STACK CFI 2922c .cfa: sp 0 +
STACK CFI 29230 .cfa: x29 96 +
STACK CFI INIT 29548 26c .cfa: sp 0 +
STACK CFI 2954c .cfa: sp 128 +
STACK CFI 2955c .cfa: x29 48 + x19: .cfa -8 + ^ x20: .cfa -16 + ^ x21: .cfa -24 + ^ x22: .cfa -32 + ^ .ra: .cfa -40 + ^ x29: .cfa -48 + ^
STACK CFI 29700 .cfa: sp 128 +
STACK CFI 29710 .cfa: sp 0 +
STACK CFI 29714 .cfa: x29 48 +
STACK CFI INIT 29d00 3b8 .cfa: sp 0 +
STACK CFI 29d04 .cfa: sp 96 +
STACK CFI 29d1c .cfa: x29 96 + x19: .cfa -8 + ^ x20: .cfa -16 + ^ x21: .cfa -24 + ^ x22: .cfa -32 + ^ x23: .cfa -40 + ^ x24: .cfa -48 + ^ x25: .cfa -56 + ^ x26: .cfa -64 + ^ x27: .cfa -72 + ^ x28: .cfa -80 + ^ .ra: .cfa -88 + ^ x29: .cfa -96 + ^
STACK CFI 2a058 .cfa: sp 96 +
STACK CFI 2a070 .cfa: sp 0 +
STACK CFI 2a074 .cfa: x29 96 +
STACK CFI INIT 2a158 cc0 .cfa: sp 0 +
STACK CFI 2a15c .cfa: sp 96 +
STACK CFI 2a174 .cfa: x29 96 + x19: .cfa -8 + ^ x20: .cfa -16 + ^ x21: .cfa -24 + ^ x22: .cfa -32 + ^ x23: .cfa -40 + ^ x24: .cfa -48 + ^ x25: .cfa -56 + ^ x26: .cfa -64 + ^ x27: .cfa -72 + ^ x28: .cfa -80 + ^ .ra: .cfa -88 + ^ x29: .cfa -96 + ^
STACK CFI 2ac28 .cfa: sp 96 +
STACK CFI 2ac40 .cfa: sp 0 +
STACK CFI 2ac44 .cfa: x29 96 +
STACK CFI INIT 2b100 af8 .cfa: sp 0 +
STACK CFI 2b104 .cfa: sp 96 +
STACK CFI 2b11c .cfa: x29 96 + x19: .cfa -8 + ^ x20: .cfa -16 + ^ x21: .cfa -24 + ^ x22: .cfa -32 + ^ x23: .cfa -40 + ^ x24: .cfa -48 + ^ x25: .cfa -56 + ^ x26: .cfa -64 + ^ x27: .cfa -72 + ^ x28: .cfa -80 + ^ .ra: .cfa -88 + ^ x29: .cfa -96 + ^
STACK CFI 2bb6c .cfa: sp 96 +
STACK CFI 2bb84 .cfa: sp 0 +
STACK CFI 2bb88 .cfa: x29 96 +
STACK CFI INIT 2bdec 1430 .cfa: sp 0 +
STACK CFI 2bdf0 .cfa: sp 96 +
STACK CFI 2be08 .cfa: x29 96 + x19: .cfa -8 + ^ x20: .cfa -16 + ^ x21: .cfa -24 + ^ x22: .cfa -32 + ^ x23: .cfa -40 + ^ x24: .cfa -48 + ^ x25: .cfa -56 + ^ x26: .cfa -64 + ^ x27: .cfa -72 + ^ x28: .cfa -80 + ^ .ra: .cfa -88 + ^ x29: .cfa -96 + ^
STACK CFI 2d0a4 .cfa: sp 96 +
STACK CFI 2d0bc .cfa: sp 0 +
STACK CFI 2d0c0 .cfa: x29 96 +
STACK CFI INIT 2d340 75c .cfa: sp 0 +
STACK CFI 2d344 .cfa: sp 368 +
STACK CFI 2d360 .cfa: x29 96 + x19: .cfa -8 + ^ x20: .cfa -16 + ^ x21: .cfa -24 + ^ x22: .cfa -32 + ^ x23: .cfa -40 + ^ x24: .cfa -48 + ^ x25: .cfa -56 + ^ x26: .cfa -64 + ^ x27: .cfa -72 + ^ x28: .cfa -80 + ^ .ra: .cfa -88 + ^ x29: .cfa -96 + ^
STACK CFI 2d414 .cfa: sp 368 +
STACK CFI 2d430 .cfa: sp 0 +
STACK CFI 2d434 .cfa: x29 96 +
STACK CFI 2d488 .cfa: sp 368 +
STACK CFI 2d4a4 .cfa: sp 0 +
STACK CFI 2d4a8 .cfa: x29 96 +
STACK CFI INIT 2de5c ee0 .cfa: sp 0 +
STACK CFI 2de60 .cfa: sp 96 +
STACK CFI 2de78 .cfa: x29 96 + x19: .cfa -8 + ^ x20: .cfa -16 + ^ x21: .cfa -24 + ^ x22: .cfa -32 + ^ x23: .cfa -40 + ^ x24: .cfa -48 + ^ x25: .cfa -56 + ^ x26: .cfa -64 + ^ x27: .cfa -72 + ^ x28: .cfa -80 + ^ .ra: .cfa -88 + ^ x29: .cfa -96 + ^
STACK CFI 2eb34 .cfa: sp 96 +
STACK CFI 2eb4c .cfa: sp 0 +
STACK CFI 2eb50 .cfa: x29 96 +
STACK CFI INIT 2f0b0 19c4 .cfa: sp 0 +
STACK CFI 2f0b4 .cfa: sp 112 +
STACK CFI 2f0d0 .cfa: x29 96 + x19: .cfa -8 + ^ x20: .cfa -16 + ^ x21: .cfa -24 + ^ x22: .cfa -32 + ^ x23: .cfa -40 + ^ x24: .cfa -48 + ^ x25: .cfa -56 + ^ x26: .cfa -64 + ^ x27: .cfa -72 + ^ x28: .cfa -80 + ^ .ra: .cfa -88 + ^ x29: .cfa -96 + ^ v8: .cfa -112 + ^
STACK CFI 2f4c4 .cfa: sp 112 +
STACK CFI 2f4e0 .cfa: sp 0 +
STACK CFI 2f4e4 .cfa: x29 96 +
STACK CFI INIT 32e84 9a0 .cfa: sp 0 +
STACK CFI 32e88 .cfa: sp 144 +
STACK CFI 32ea0 .cfa: x29 80 + x19: .cfa -8 + ^ x20: .cfa -16 + ^ x21: .cfa -24 + ^ x22: .cfa -32 + ^ x23: .cfa -40 + ^ x24: .cfa -48 + ^ x25: .cfa -64 + ^ .ra: .cfa -72 + ^ x29: .cfa -80 + ^
STACK CFI 337a0 .cfa: sp 144 +
STACK CFI 337b8 .cfa: sp 0 +
STACK CFI 337bc .cfa: x29 80 +
STACK CFI INIT 33824 57c .cfa: sp 0 +
STACK CFI 33828 .cfa: sp 96 +
STACK CFI 33840 .cfa: x29 96 + x19: .cfa -8 + ^ x20: .cfa -16 + ^ x21: .cfa -24 + ^ x22: .cfa -32 + ^ x23: .cfa -40 + ^ x24: .cfa -48 + ^ x25: .cfa -56 + ^ x26: .cfa -64 + ^ x27: .cfa -72 + ^ x28: .cfa -80 + ^ .ra: .cfa -88 + ^ x29: .cfa -96 + ^
STACK CFI 33d04 .cfa: sp 96 +
STACK CFI 33d1c .cfa: sp 0 +
STACK CFI 33d20 .cfa: x29 96 +
STACK CFI INIT 33da0 67c .cfa: sp 0 +
STACK CFI 33da4 .cfa: sp 96 +
STACK CFI 33dbc .cfa: x29 96 + x19: .cfa -8 + ^ x20: .cfa -16 + ^ x21: .cfa -24 + ^ x22: .cfa -32 + ^ x23: .cfa -40 + ^ x24: .cfa -48 + ^ x25: .cfa -56 + ^ x26: .cfa -64 + ^ x27: .cfa -72 + ^ x28: .cfa -80 + ^ .ra: .cfa -88 + ^ x29: .cfa -96 + ^
STACK CFI 34380 .cfa: sp 96 +
STACK CFI 34398 .cfa: sp 0 +
STACK CFI 3439c .cfa: x29 96 +
