MODULE Linux arm64 A883E11817FBAC991B21EBE215385CB00 alphalaneous.alphas_geode_utils.android64.so
INFO CODE_ID 18E183A8FB1799AC1B21EBE215385CB0E466B8B1
INFO GENERATOR mozilla/dump_syms 2.3.4
PUBLIC 3700 0 __on_dlclose
PUBLIC 3710 0 __emutls_unregister_key
PUBLIC 3718 0 __on_dlclose_late
PUBLIC 3720 0 __atexit_handler_wrapper
PUBLIC 3734 0 atexit
PUBLIC 3750 0 pthread_atfork
PUBLIC m 3760 0 AlphaUtils::NodeModding::getNodesToModify()
PUBLIC m 3ce8 0 AlphaUtils::NodeModding::addNodeToModify(std::__ndk1::basic_string<char, std::__ndk1::char_traits<char>, std::__ndk1::allocator<char> >, int, std::__ndk1::function<void (cocos2d::CCNode*)>)
PUBLIC m 40a4 0 AlphaUtils::NodeModding::handleNode(cocos2d::CCNode*)
PUBLIC 44b4 0 std::__ndk1::vector<AlphaUtils::ModifyInfo, std::__ndk1::allocator<AlphaUtils::ModifyInfo> >::~vector[abi:ne180000]()
PUBLIC m 4558 0 AlphaUtils::NodeModding::get()
PUBLIC 45a8 0 __clang_call_terminate
PUBLIC 45b8 0 std::__ndk1::vector<AlphaUtils::ModifyInfo, std::__ndk1::allocator<AlphaUtils::ModifyInfo> >::__throw_length_error[abi:ne180000]() const
PUBLIC 45cc 0 std::__ndk1::__throw_length_error[abi:ne180000](char const*)
PUBLIC 461c 0 std::length_error::length_error[abi:ne180000](char const*)
PUBLIC 464c 0 std::__throw_bad_array_new_length([abi:ne180000], void)
PUBLIC 4680 0 std::__ndk1::basic_string<char, std::__ndk1::char_traits<char>, std::__ndk1::allocator<char> >::__throw_length_error[abi:ne180000]() const
PUBLIC 4694 0 std::__ndk1::basic_string<char, std::__ndk1::char_traits<char>, std::__ndk1::allocator<char> >::__assign_external(char const*, unsigned long)
PUBLIC 47bc 0 std::__ndk1::basic_string<char, std::__ndk1::char_traits<char>, std::__ndk1::allocator<char> >::__assign_external(char const*)
PUBLIC 47f0 0 std::__ndk1::vector<AlphaUtils::ModifyInfo, std::__ndk1::allocator<AlphaUtils::ModifyInfo> >::__init_with_size[abi:ne180000]<AlphaUtils::ModifyInfo*, std::__ndk1::vector<AlphaUtils::ModifyInfo, std::__ndk1::allocator<AlphaUtils::ModifyInfo> >::__init_with_size[abi:ne180000]>(AlphaUtils::ModifyInfo*, std::__ndk1::vector<AlphaUtils::ModifyInfo, std::__ndk1::allocator<AlphaUtils::ModifyInfo> >::__init_with_size[abi:ne180000], unsigned long)
PUBLIC 495c 0 std::__ndk1::__exception_guard_exceptions<std::__ndk1::vector<AlphaUtils::ModifyInfo, std::__ndk1::allocator<AlphaUtils::ModifyInfo> >::__destroy_vector>::~__exception_guard_exceptions[abi:ne180000]()
PUBLIC 4a10 0 std::__ndk1::__exception_guard_exceptions<std::__ndk1::_AllocatorDestroyRangeReverse<std::__ndk1::allocator<AlphaUtils::ModifyInfo>, AlphaUtils::ModifyInfo*> >::~__exception_guard_exceptions[abi:ne180000]()
PUBLIC 4a80 0 std::__ndk1::__introsort<std::__ndk1::_ClassicAlgPolicy, AlphaUtils::NodeModding::handleNode(cocos2d::CCNode*)::$_0&, AlphaUtils::ModifyInfo*, false>(AlphaUtils::ModifyInfo*, AlphaUtils::ModifyInfo*, AlphaUtils::NodeModding::handleNode(cocos2d::CCNode*)::$_0&, std::__ndk1::iterator_traits<AlphaUtils::ModifyInfo*>::difference_type, bool)
PUBLIC 5f80 0 std::__ndk1::__insertion_sort_incomplete[abi:ne180000]<std::__ndk1::_ClassicAlgPolicy, AlphaUtils::NodeModding::handleNode(cocos2d::CCNode*)::$_0&, std::__ndk1::_ClassicAlgPolicy*::ModifyInfo>(std::__ndk1::_ClassicAlgPolicy*::ModifyInfo, std::__ndk1::_ClassicAlgPolicy*::ModifyInfo, AlphaUtils::NodeModding::handleNode(cocos2d::CCNode*)::$_0&)
PUBLIC 6400 0 std::__ndk1::swap[abi:ne180000]<AlphaUtils::ModifyInfo>(std::__ndk1::enable_if&, std::__ndk1::enable_if<(is_move_constructible<AlphaUtils::ModifyInfo>::value)&&(is_move_assignable<std::__ndk1::enable_if>::value), void>::type)
PUBLIC 65f0 0 std::__ndk1::__sort4[abi:ne180000]<std::__ndk1::_ClassicAlgPolicy, AlphaUtils::NodeModding::handleNode(cocos2d::CCNode*)::$_0&, std::__ndk1::_ClassicAlgPolicy*::ModifyInfo>(std::__ndk1::_ClassicAlgPolicy*::ModifyInfo, std::__ndk1::_ClassicAlgPolicy*::ModifyInfo, std::__ndk1::_ClassicAlgPolicy*::ModifyInfo, std::__ndk1::_ClassicAlgPolicy*::ModifyInfo, AlphaUtils::NodeModding::handleNode(cocos2d::CCNode*)::$_0&)
PUBLIC 66f4 0 std::__ndk1::__hash_table<std::__ndk1::__hash_value_type<std::__ndk1::basic_string<char, std::__ndk1::char_traits<char>, std::__ndk1::allocator<char> >, std::__ndk1::vector<AlphaUtils::ModifyInfo, std::__ndk1::allocator<AlphaUtils::ModifyInfo> > >, std::__ndk1::__unordered_map_hasher<std::__ndk1::basic_string<char, std::__ndk1::char_traits<char>, std::__ndk1::allocator<char> >, std::__ndk1::__hash_value_type<std::__ndk1::basic_string<char, std::__ndk1::char_traits<char>, std::__ndk1::allocator<char> >, std::__ndk1::vector<AlphaUtils::ModifyInfo, std::__ndk1::allocator<AlphaUtils::ModifyInfo> > >, std::__ndk1::hash<std::__ndk1::basic_string<char, std::__ndk1::char_traits<char>, std::__ndk1::allocator<char> > >, std::__ndk1::equal_to<std::__ndk1::basic_string<char, std::__ndk1::char_traits<char>, std::__ndk1::allocator<char> > >, true>, std::__ndk1::__unordered_map_equal<std::__ndk1::basic_string<char, std::__ndk1::char_traits<char>, std::__ndk1::allocator<char> >, std::__ndk1::__hash_value_type<std::__ndk1::basic_string<char, std::__ndk1::char_traits<char>, std::__ndk1::allocator<char> >, std::__ndk1::vector<AlphaUtils::ModifyInfo, std::__ndk1::allocator<AlphaUtils::ModifyInfo> > >, std::__ndk1::equal_to<std::__ndk1::basic_string<char, std::__ndk1::char_traits<char>, std::__ndk1::allocator<char> > >, std::__ndk1::hash<std::__ndk1::basic_string<char, std::__ndk1::char_traits<char>, std::__ndk1::allocator<char> > >, true>, std::__ndk1::allocator<std::__ndk1::__hash_value_type<std::__ndk1::basic_string<char, std::__ndk1::char_traits<char>, std::__ndk1::allocator<char> >, std::__ndk1::vector<AlphaUtils::ModifyInfo, std::__ndk1::allocator<AlphaUtils::ModifyInfo> > > > >::~__hash_table()
PUBLIC 67d4 0 std::__ndk1::__hash_table<std::__ndk1::__hash_value_type<std::__ndk1::basic_string<char, std::__ndk1::char_traits<char>, std::__ndk1::allocator<char> >, std::__ndk1::vector<AlphaUtils::ModifyInfo, std::__ndk1::allocator<AlphaUtils::ModifyInfo> > >, std::__ndk1::__unordered_map_hasher<std::__ndk1::basic_string<char, std::__ndk1::char_traits<char>, std::__ndk1::allocator<char> >, std::__ndk1::__hash_value_type<std::__ndk1::basic_string<char, std::__ndk1::char_traits<char>, std::__ndk1::allocator<char> >, std::__ndk1::vector<AlphaUtils::ModifyInfo, std::__ndk1::allocator<AlphaUtils::ModifyInfo> > >, std::__ndk1::hash<std::__ndk1::basic_string<char, std::__ndk1::char_traits<char>, std::__ndk1::allocator<char> > >, std::__ndk1::equal_to<std::__ndk1::basic_string<char, std::__ndk1::char_traits<char>, std::__ndk1::allocator<char> > >, true>, std::__ndk1::__unordered_map_equal<std::__ndk1::basic_string<char, std::__ndk1::char_traits<char>, std::__ndk1::allocator<char> >, std::__ndk1::__hash_value_type<std::__ndk1::basic_string<char, std::__ndk1::char_traits<char>, std::__ndk1::allocator<char> >, std::__ndk1::vector<AlphaUtils::ModifyInfo, std::__ndk1::allocator<AlphaUtils::ModifyInfo> > >, std::__ndk1::equal_to<std::__ndk1::basic_string<char, std::__ndk1::char_traits<char>, std::__ndk1::allocator<char> > >, std::__ndk1::hash<std::__ndk1::basic_string<char, std::__ndk1::char_traits<char>, std::__ndk1::allocator<char> > >, true>, std::__ndk1::allocator<std::__ndk1::__hash_value_type<std::__ndk1::basic_string<char, std::__ndk1::char_traits<char>, std::__ndk1::allocator<char> >, std::__ndk1::vector<AlphaUtils::ModifyInfo, std::__ndk1::allocator<AlphaUtils::ModifyInfo> > > > >::__do_rehash<true>(unsigned long)
PUBLIC 6980 0 std::__ndk1::unique_ptr<std::__ndk1::__hash_node<std::__ndk1::__hash_value_type<std::__ndk1::basic_string<char, std::__ndk1::char_traits<char>, std::__ndk1::allocator<char> >, std::__ndk1::vector<AlphaUtils::ModifyInfo, std::__ndk1::allocator<AlphaUtils::ModifyInfo> > >, void*>, std::__ndk1::__hash_node_destructor<std::__ndk1::allocator<std::__ndk1::__hash_node<std::__ndk1::__hash_value_type<std::__ndk1::basic_string<char, std::__ndk1::char_traits<char>, std::__ndk1::allocator<char> >, std::__ndk1::vector<AlphaUtils::ModifyInfo, std::__ndk1::allocator<AlphaUtils::ModifyInfo> > >, void*> > > >::~unique_ptr[abi:ne180000]()
PUBLIC 6a3c 0 std::__ndk1::__murmur2_or_cityhash<unsigned long, (unsigned long)64>::operator()[abi:ne180000](void const*, unsigned long) const
PUBLIC 6e94 0 std::__ndk1::basic_string<char, std::__ndk1::char_traits<char>, std::__ndk1::allocator<char> >::__init_copy_ctor_external(char const*, unsigned long)
PUBLIC 6f14 0 std::__ndk1::__hash_table<std::__ndk1::__hash_value_type<std::__ndk1::basic_string<char, std::__ndk1::char_traits<char>, std::__ndk1::allocator<char> >, std::__ndk1::vector<AlphaUtils::ModifyInfo, std::__ndk1::allocator<AlphaUtils::ModifyInfo> > >, std::__ndk1::__unordered_map_hasher<std::__ndk1::basic_string<char, std::__ndk1::char_traits<char>, std::__ndk1::allocator<char> >, std::__ndk1::__hash_value_type<std::__ndk1::basic_string<char, std::__ndk1::char_traits<char>, std::__ndk1::allocator<char> >, std::__ndk1::vector<AlphaUtils::ModifyInfo, std::__ndk1::allocator<AlphaUtils::ModifyInfo> > >, std::__ndk1::hash<std::__ndk1::basic_string<char, std::__ndk1::char_traits<char>, std::__ndk1::allocator<char> > >, std::__ndk1::equal_to<std::__ndk1::basic_string<char, std::__ndk1::char_traits<char>, std::__ndk1::allocator<char> > >, true>, std::__ndk1::__unordered_map_equal<std::__ndk1::basic_string<char, std::__ndk1::char_traits<char>, std::__ndk1::allocator<char> >, std::__ndk1::__hash_value_type<std::__ndk1::basic_string<char, std::__ndk1::char_traits<char>, std::__ndk1::allocator<char> >, std::__ndk1::vector<AlphaUtils::ModifyInfo, std::__ndk1::allocator<AlphaUtils::ModifyInfo> > >, std::__ndk1::equal_to<std::__ndk1::basic_string<char, std::__ndk1::char_traits<char>, std::__ndk1::allocator<char> > >, std::__ndk1::hash<std::__ndk1::basic_string<char, std::__ndk1::char_traits<char>, std::__ndk1::allocator<char> > >, true>, std::__ndk1::allocator<std::__ndk1::__hash_value_type<std::__ndk1::basic_string<char, std::__ndk1::char_traits<char>, std::__ndk1::allocator<char> >, std::__ndk1::vector<AlphaUtils::ModifyInfo, std::__ndk1::allocator<AlphaUtils::ModifyInfo> > > > >::__emplace_unique_key_args<std::__ndk1::basic_string<char, std::__ndk1::char_traits<char>, std::__ndk1::allocator<char> >, std::__ndk1::piecewise_construct_t const&, std::__ndk1::tuple<std::__ndk1::basic_string<char, std::__ndk1::char_traits<char>, std::__ndk1::allocator<char> > const&>, std::__ndk1::tuple<> >(std::__ndk1::basic_string<char, std::__ndk1::char_traits<char>, std::__ndk1::allocator<char> > const&, std::__ndk1::piecewise_construct_t const&, std::__ndk1::tuple<std::__ndk1::basic_string<char, std::__ndk1::char_traits<char>, std::__ndk1::allocator<char> > const&>, std::__ndk1::tuple<>)
PUBLIC 735c 0 std::__ndk1::__throw_bad_function_call[abi:ne180000]()
PUBLIC 7390 0 std::__ndk1::bad_function_call::~bad_function_call()
PUBLIC 73c0 0 __aarch64_ldadd8_relax
PUBLIC 73f0 0 init_have_lse_atomics
PUBLIC 7488 0 __init_cpu_features_constructor
PUBLIC 7a24 0 __init_cpu_features
PUBLIC 7ab0 0 __aarch64_ldadd8_acq_rel
PUBLIC 7ae0 0 __cxx_global_var_init
PUBLIC 8680 0 geode::modifier::ModifyBase<geode::modifier::ModifyDerive<hook9<(anonymous namespace)::hook9Parent>, cocos2d::CCObject> >::~ModifyBase()
PUBLIC 8698 0 geode::modifier::ModifyDerive<hook9<(anonymous namespace)::hook9Parent>, cocos2d::CCObject>::apply()
PUBLIC 8c98 0 std::__ndk1::shared_ptr<geode::Hook>::~shared_ptr[abi:ne180000]()
PUBLIC 8ce8 0 geode::impl::ResultData<geode::Hook*, std::__ndk1::basic_string<char, std::__ndk1::char_traits<char>, std::__ndk1::allocator<char> > >::~ResultData()
PUBLIC 8d5c 0 std::__ndk1::vector<std::__ndk1::basic_string<char, std::__ndk1::char_traits<char>, std::__ndk1::allocator<char> >, std::__ndk1::allocator<std::__ndk1::basic_string<char, std::__ndk1::char_traits<char>, std::__ndk1::allocator<char> > > >::~vector[abi:ne180000]()
PUBLIC 8dd8 0 geode::modifier::ModifyBase<geode::modifier::ModifyDerive<hook9<(anonymous namespace)::hook9Parent>, cocos2d::CCObject> >::apply()
PUBLIC 8ddc 0 _ZN5geode15UnwrapExceptionC2IRPNS_4HookEQsr4implE18IsStringStreamableIT_EEENS_4impl5OkTagEOS5_
PUBLIC 94d8 0 std::__ndk1::__throw_bad_variant_access[abi:ne180000]()
PUBLIC m 950c 0 std::__ndk1::basic_stringstream<char, std::__ndk1::char_traits<char>, std::__ndk1::allocator<char> >::~basic_stringstream()
PUBLIC 958c 0 geode::UnwrapException::~UnwrapException()
PUBLIC 95b0 0 std::__ndk1::__split_buffer<std::__ndk1::basic_string<char, std::__ndk1::char_traits<char>, std::__ndk1::allocator<char> >, std::__ndk1::allocator<std::__ndk1::basic_string<char, std::__ndk1::char_traits<char>, std::__ndk1::allocator<char> > >&>::~__split_buffer()
PUBLIC 9618 0 std::__ndk1::vector<std::__ndk1::basic_string<char, std::__ndk1::char_traits<char>, std::__ndk1::allocator<char> >, std::__ndk1::allocator<std::__ndk1::basic_string<char, std::__ndk1::char_traits<char>, std::__ndk1::allocator<char> > > >::__throw_length_error[abi:ne180000]() const
PUBLIC 962c 0 std::__ndk1::__variant_detail::__visitation::__base::__dispatcher<(unsigned long)0>::__dispatch[abi:ne180000]<std::__ndk1::__variant_detail::__dtor<std::__ndk1::__variant_detail::__traits<geode::Hook*, std::__ndk1::basic_string<char, std::__ndk1::char_traits<char>, std::__ndk1::allocator<char> > >, (std::__ndk1::__variant_detail::_Trait)1>::__destroy[abi:ne180000]()::{lambda(auto:1&)#1}, std::__ndk1::__variant_detail::__base<(std::__ndk1::__variant_detail::__traits<geode::Hook*, std::__ndk1::basic_string<char, std::__ndk1::char_traits<char>, std::__ndk1::allocator<char> > >)1, geode::Hook, std::__ndk1::allocator<char> >&>(std::__ndk1::__variant_detail::__dtor<std::__ndk1::__variant_detail::__traits<geode::Hook*, std::__ndk1::basic_string<char, std::__ndk1::char_traits<char>, std::__ndk1::allocator<char> > >, (std::__ndk1::__variant_detail::_Trait)1>, std::__ndk1::__variant_detail::__base<(std::__ndk1::__variant_detail::__traits<geode::Hook*, std::__ndk1::basic_string<char, std::__ndk1::char_traits<char>, std::__ndk1::allocator<char> > >)1, geode::Hook, std::__ndk1::allocator<char> >&)
PUBLIC 9630 0 std::__ndk1::__variant_detail::__visitation::__base::__dispatcher<(unsigned long)1>::__dispatch[abi:ne180000]<std::__ndk1::__variant_detail::__dtor<std::__ndk1::__variant_detail::__traits<geode::Hook*, std::__ndk1::basic_string<char, std::__ndk1::char_traits<char>, std::__ndk1::allocator<char> > >, (std::__ndk1::__variant_detail::_Trait)1>::__destroy[abi:ne180000]()::{lambda(auto:1&)#1}, std::__ndk1::__variant_detail::__base<(std::__ndk1::__variant_detail::__traits<geode::Hook*, std::__ndk1::basic_string<char, std::__ndk1::char_traits<char>, std::__ndk1::allocator<char> > >)1, geode::Hook, std::__ndk1::allocator<char> >&>(std::__ndk1::__variant_detail::__dtor<std::__ndk1::__variant_detail::__traits<geode::Hook*, std::__ndk1::basic_string<char, std::__ndk1::char_traits<char>, std::__ndk1::allocator<char> > >, (std::__ndk1::__variant_detail::_Trait)1>, std::__ndk1::__variant_detail::__base<(std::__ndk1::__variant_detail::__traits<geode::Hook*, std::__ndk1::basic_string<char, std::__ndk1::char_traits<char>, std::__ndk1::allocator<char> > >)1, geode::Hook, std::__ndk1::allocator<char> >&)
PUBLIC 9644 0 std::__ndk1::__tree<std::__ndk1::__value_type<std::__ndk1::basic_string<char, std::__ndk1::char_traits<char>, std::__ndk1::allocator<char> >, std::__ndk1::shared_ptr<geode::Hook> >, std::__ndk1::__map_value_compare<std::__ndk1::basic_string<char, std::__ndk1::char_traits<char>, std::__ndk1::allocator<char> >, std::__ndk1::__value_type<std::__ndk1::basic_string<char, std::__ndk1::char_traits<char>, std::__ndk1::allocator<char> >, std::__ndk1::shared_ptr<geode::Hook> >, std::__ndk1::less<std::__ndk1::basic_string<char, std::__ndk1::char_traits<char>, std::__ndk1::allocator<char> > >, true>, std::__ndk1::allocator<std::__ndk1::__value_type<std::__ndk1::basic_string<char, std::__ndk1::char_traits<char>, std::__ndk1::allocator<char> >, std::__ndk1::shared_ptr<geode::Hook> > > >::destroy(std::__ndk1::__tree_node<std::__ndk1::__value_type<std::__ndk1::basic_string<char, std::__ndk1::char_traits<char>, std::__ndk1::allocator<char> >, std::__ndk1::shared_ptr<geode::Hook> >, void*>*)
PUBLIC 96c8 0 geode::modifier::AsStaticFunction_autorelease<hook9<(anonymous namespace)::hook9Parent>, cocos2d::CCObject* (hook9<(anonymous namespace)::hook9Parent>::*)()>::Impl<cocos2d::CCObject* (hook9<(anonymous namespace)::hook9Parent>::*)()>::function(hook9<(anonymous namespace)::hook9Parent>*)
PUBLIC 9754 0 std::__ndk1::shared_ptr<tulip::hook::CallingConvention>::~shared_ptr[abi:ne180000]()
PUBLIC 97a4 0 tulip::hook::HandlerMetadata::~HandlerMetadata()
PUBLIC 9808 0 geode::cast::traverseTypeinfoFor(void*, geode::cast::ClassTypeinfoType const*, char const*)
PUBLIC m 9900 0 geodeImplicitEntry
PUBLIC 9940 0 <.plt ELF section in alphalaneous.alphas_geode_utils.android64.so>
STACK CFI INIT 3700 10 .cfa: sp 0 +
STACK CFI INIT 3710 8 .cfa: sp 0 +
STACK CFI INIT 3718 8 .cfa: sp 0 +
STACK CFI INIT 3720 14 .cfa: sp 0 +
STACK CFI INIT 3734 1c .cfa: sp 0 +
STACK CFI INIT 3750 10 .cfa: sp 0 +
STACK CFI INIT 44b4 a4 .cfa: sp 0 +
STACK CFI 44b8 .cfa: sp 48 +
STACK CFI 44c4 .cfa: x29 48 + x19: .cfa -8 + ^ x20: .cfa -16 + ^ x21: .cfa -32 + ^ .ra: .cfa -40 + ^ x29: .cfa -48 + ^
STACK CFI 44e4 .cfa: sp 48 +
STACK CFI 44f0 .cfa: sp 0 +
STACK CFI 44f4 .cfa: x29 48 +
STACK CFI 4538 .cfa: sp 48 +
STACK CFI 4544 .cfa: sp 0 +
STACK CFI 4548 .cfa: sp 48 +
STACK CFI 4554 .cfa: sp 0 +
STACK CFI INIT 4558 50 .cfa: sp 0 +
STACK CFI 455c .cfa: sp 32 +
STACK CFI 4564 .cfa: x29 32 + x19: .cfa -16 + ^ .ra: .cfa -24 + ^ x29: .cfa -32 + ^
STACK CFI 4570 .cfa: sp 32 +
STACK CFI 4578 .cfa: sp 0 +
STACK CFI 457c .cfa: x29 32 +
STACK CFI 459c .cfa: sp 32 +
STACK CFI 45a4 .cfa: sp 0 +
STACK CFI INIT 45a8 10 .cfa: sp 0 +
STACK CFI 45ac .cfa: sp 16 +
STACK CFI 45b0 .cfa: x29 16 + .ra: .cfa -8 + ^ x29: .cfa -16 + ^
STACK CFI INIT 45b8 14 .cfa: sp 0 +
STACK CFI 45bc .cfa: sp 16 +
STACK CFI 45c0 .cfa: x29 16 + .ra: .cfa -8 + ^ x29: .cfa -16 + ^
STACK CFI INIT 461c 30 .cfa: sp 0 +
STACK CFI 4620 .cfa: sp 32 +
STACK CFI 4628 .cfa: x29 32 + x19: .cfa -16 + ^ .ra: .cfa -24 + ^ x29: .cfa -32 + ^
STACK CFI 4640 .cfa: sp 32 +
STACK CFI 4648 .cfa: sp 0 +
STACK CFI INIT 464c 34 .cfa: sp 0 +
STACK CFI 4650 .cfa: sp 32 +
STACK CFI 4658 .cfa: x29 32 + x19: .cfa -16 + ^ .ra: .cfa -24 + ^ x29: .cfa -32 + ^
STACK CFI INIT 4680 14 .cfa: sp 0 +
STACK CFI 4684 .cfa: sp 16 +
STACK CFI 4688 .cfa: x29 16 + .ra: .cfa -8 + ^ x29: .cfa -16 + ^
STACK CFI INIT 4694 128 .cfa: sp 0 +
STACK CFI 4698 .cfa: sp 80 +
STACK CFI 46ac .cfa: x29 80 + x19: .cfa -8 + ^ x20: .cfa -16 + ^ x21: .cfa -24 + ^ x22: .cfa -32 + ^ x23: .cfa -40 + ^ x24: .cfa -48 + ^ x25: .cfa -64 + ^ .ra: .cfa -72 + ^ x29: .cfa -80 + ^
STACK CFI 479c .cfa: sp 80 +
STACK CFI 47b0 .cfa: sp 0 +
STACK CFI 47b4 .cfa: x29 80 +
STACK CFI INIT 47bc 34 .cfa: sp 0 +
STACK CFI 47c0 .cfa: sp 32 +
STACK CFI 47c8 .cfa: x29 32 + x19: .cfa -8 + ^ x20: .cfa -16 + ^ .ra: .cfa -24 + ^ x29: .cfa -32 + ^
STACK CFI 47e4 .cfa: sp 32 +
STACK CFI 47ec .cfa: sp 0 +
STACK CFI INIT 495c b4 .cfa: sp 0 +
STACK CFI 4960 .cfa: sp 48 +
STACK CFI 496c .cfa: x29 48 + x19: .cfa -8 + ^ x20: .cfa -16 + ^ x21: .cfa -24 + ^ x22: .cfa -32 + ^ .ra: .cfa -40 + ^ x29: .cfa -48 + ^
STACK CFI 4974 .cfa: sp 48 +
STACK CFI 4980 .cfa: sp 0 +
STACK CFI 4984 .cfa: x29 48 +
STACK CFI 49a8 .cfa: sp 48 +
STACK CFI 49b4 .cfa: sp 0 +
STACK CFI 49b8 .cfa: x29 48 +
STACK CFI 4a00 .cfa: sp 48 +
STACK CFI 4a0c .cfa: sp 0 +
STACK CFI INIT 4a10 70 .cfa: sp 0 +
STACK CFI 4a20 .cfa: sp 32 +
STACK CFI 4a28 .cfa: x29 32 + x19: .cfa -8 + ^ x20: .cfa -16 + ^ .ra: .cfa -24 + ^ x29: .cfa -32 + ^
STACK CFI 4a74 .cfa: sp 32 +
STACK CFI 4a7c .cfa: sp 0 +
STACK CFI INIT 65f0 104 .cfa: sp 0 +
STACK CFI 65f4 .cfa: sp 48 +
STACK CFI 6600 .cfa: x29 48 + x19: .cfa -8 + ^ x20: .cfa -16 + ^ x21: .cfa -24 + ^ x22: .cfa -32 + ^ .ra: .cfa -40 + ^ x29: .cfa -48 + ^
STACK CFI 66d4 .cfa: sp 48 +
STACK CFI 66e0 .cfa: sp 0 +
STACK CFI 66e4 .cfa: sp 48 +
STACK CFI 66f0 .cfa: sp 0 +
STACK CFI INIT 66f4 e0 .cfa: sp 0 +
STACK CFI 66f8 .cfa: sp 64 +
STACK CFI 6708 .cfa: x29 64 + x19: .cfa -8 + ^ x20: .cfa -16 + ^ x21: .cfa -24 + ^ x22: .cfa -32 + ^ x23: .cfa -48 + ^ .ra: .cfa -56 + ^ x29: .cfa -64 + ^
STACK CFI 6720 .cfa: sp 64 +
STACK CFI 6730 .cfa: sp 0 +
STACK CFI 6734 .cfa: x29 64 +
STACK CFI 67c0 .cfa: sp 64 +
STACK CFI 67d0 .cfa: sp 0 +
STACK CFI INIT 67d4 1ac .cfa: sp 0 +
STACK CFI 67d8 .cfa: sp 32 +
STACK CFI 67e0 .cfa: x29 32 + x19: .cfa -8 + ^ x20: .cfa -16 + ^ .ra: .cfa -24 + ^ x29: .cfa -32 + ^
STACK CFI 68d0 .cfa: sp 32 +
STACK CFI 68d8 .cfa: sp 0 +
STACK CFI 68dc .cfa: x29 32 +
STACK CFI INIT 6980 bc .cfa: sp 0 +
STACK CFI 6984 .cfa: sp 48 +
STACK CFI 6990 .cfa: x29 48 + x19: .cfa -8 + ^ x20: .cfa -16 + ^ x21: .cfa -32 + ^ .ra: .cfa -40 + ^ x29: .cfa -48 + ^
STACK CFI 69fc .cfa: sp 48 +
STACK CFI 6a08 .cfa: sp 0 +
STACK CFI 6a0c .cfa: x29 48 +
STACK CFI 6a2c .cfa: sp 48 +
STACK CFI 6a38 .cfa: sp 0 +
STACK CFI INIT 6a3c 458 .cfa: sp 0 +
STACK CFI INIT 6e94 80 .cfa: sp 0 +
STACK CFI 6e98 .cfa: sp 48 +
STACK CFI 6ea4 .cfa: x29 48 + x19: .cfa -8 + ^ x20: .cfa -16 + ^ x21: .cfa -24 + ^ x22: .cfa -32 + ^ .ra: .cfa -40 + ^ x29: .cfa -48 + ^
STACK CFI 6ebc .cfa: sp 48 +
STACK CFI 6ec8 .cfa: sp 0 +
STACK CFI 6ecc .cfa: x29 48 +
STACK CFI 6efc .cfa: sp 48 +
STACK CFI 6f08 .cfa: sp 0 +
STACK CFI 6f0c .cfa: x29 48 +
STACK CFI INIT 735c 34 .cfa: sp 0 +
STACK CFI 7360 .cfa: sp 16 +
STACK CFI 7364 .cfa: x29 16 + .ra: .cfa -8 + ^ x29: .cfa -16 + ^
STACK CFI INIT 7390 24 .cfa: sp 0 +
STACK CFI 7394 .cfa: sp 32 +
STACK CFI 739c .cfa: x29 32 + x19: .cfa -16 + ^ .ra: .cfa -24 + ^ x29: .cfa -32 + ^
STACK CFI 73a8 .cfa: sp 32 +
STACK CFI 73b0 .cfa: sp 0 +
STACK CFI INIT 73c0 30 .cfa: sp 0 +
STACK CFI INIT 73f0 98 .cfa: sp 0 +
STACK CFI INIT 7488 59c .cfa: sp 0 +
STACK CFI INIT 7a24 8c .cfa: sp 0 +
STACK CFI INIT 7ab0 30 .cfa: sp 0 +
STACK CFI INIT 8680 18 .cfa: sp 0 +
STACK CFI INIT 8c98 50 .cfa: sp 0 +
STACK CFI 8c9c .cfa: sp 32 +
STACK CFI 8ca4 .cfa: x29 32 + x19: .cfa -16 + ^ .ra: .cfa -24 + ^ x29: .cfa -32 + ^
STACK CFI 8cbc .cfa: sp 32 +
STACK CFI 8cc4 .cfa: sp 0 +
STACK CFI 8cc8 .cfa: x29 32 +
STACK CFI 8cdc .cfa: sp 32 +
STACK CFI 8ce4 .cfa: sp 0 +
STACK CFI INIT 8d5c 7c .cfa: sp 0 +
STACK CFI 8d60 .cfa: sp 48 +
STACK CFI 8d6c .cfa: x29 48 + x19: .cfa -8 + ^ x20: .cfa -16 + ^ x21: .cfa -32 + ^ .ra: .cfa -40 + ^ x29: .cfa -48 + ^
STACK CFI 8db8 .cfa: sp 48 +
STACK CFI 8dc4 .cfa: sp 0 +
STACK CFI 8dc8 .cfa: sp 48 +
STACK CFI 8dd4 .cfa: sp 0 +
STACK CFI INIT 8dd8 4 .cfa: sp 0 +
STACK CFI INIT 94d8 34 .cfa: sp 0 +
STACK CFI 94dc .cfa: sp 16 +
STACK CFI 94e0 .cfa: x29 16 + .ra: .cfa -8 + ^ x29: .cfa -16 + ^
STACK CFI INIT 950c 80 .cfa: sp 0 +
STACK CFI 9510 .cfa: sp 48 +
STACK CFI 951c .cfa: x29 48 + x19: .cfa -8 + ^ x20: .cfa -16 + ^ x21: .cfa -32 + ^ .ra: .cfa -40 + ^ x29: .cfa -48 + ^
STACK CFI 957c .cfa: sp 48 +
STACK CFI 9588 .cfa: sp 0 +
STACK CFI INIT 958c 24 .cfa: sp 0 +
STACK CFI 9590 .cfa: sp 32 +
STACK CFI 9598 .cfa: x29 32 + x19: .cfa -16 + ^ .ra: .cfa -24 + ^ x29: .cfa -32 + ^
STACK CFI 95a4 .cfa: sp 32 +
STACK CFI 95ac .cfa: sp 0 +
STACK CFI INIT 95b0 68 .cfa: sp 0 +
STACK CFI 95b4 .cfa: sp 32 +
STACK CFI 95bc .cfa: x29 32 + x19: .cfa -8 + ^ x20: .cfa -16 + ^ .ra: .cfa -24 + ^ x29: .cfa -32 + ^
STACK CFI 95d4 .cfa: sp 32 +
STACK CFI 95dc .cfa: sp 0 +
STACK CFI 95e0 .cfa: x29 32 +
STACK CFI 960c .cfa: sp 32 +
STACK CFI 9614 .cfa: sp 0 +
STACK CFI INIT 9618 14 .cfa: sp 0 +
STACK CFI 961c .cfa: sp 16 +
STACK CFI 9620 .cfa: x29 16 + .ra: .cfa -8 + ^ x29: .cfa -16 + ^
STACK CFI INIT 962c 4 .cfa: sp 0 +
STACK CFI INIT 9630 14 .cfa: sp 0 +
STACK CFI INIT 9644 84 .cfa: sp 0 +
STACK CFI 964c .cfa: sp 32 +
STACK CFI 9654 .cfa: x29 32 + x19: .cfa -8 + ^ x20: .cfa -16 + ^ .ra: .cfa -24 + ^ x29: .cfa -32 + ^
STACK CFI 9694 .cfa: sp 32 +
STACK CFI 969c .cfa: sp 0 +
STACK CFI 96a4 .cfa: x29 32 +
STACK CFI INIT 96c8 8c .cfa: sp 0 +
STACK CFI 96cc .cfa: sp 48 +
STACK CFI 96d8 .cfa: x29 48 + x19: .cfa -8 + ^ x20: .cfa -16 + ^ x21: .cfa -32 + ^ .ra: .cfa -40 + ^ x29: .cfa -48 + ^
STACK CFI 9744 .cfa: sp 48 +
STACK CFI 9750 .cfa: sp 0 +
STACK CFI INIT 9754 50 .cfa: sp 0 +
STACK CFI 9758 .cfa: sp 32 +
STACK CFI 9760 .cfa: x29 32 + x19: .cfa -16 + ^ .ra: .cfa -24 + ^ x29: .cfa -32 + ^
STACK CFI 9778 .cfa: sp 32 +
STACK CFI 9780 .cfa: sp 0 +
STACK CFI 9784 .cfa: x29 32 +
STACK CFI 9798 .cfa: sp 32 +
STACK CFI 97a0 .cfa: sp 0 +
STACK CFI INIT 97a4 64 .cfa: sp 0 +
STACK CFI 97a8 .cfa: sp 32 +
STACK CFI 97b0 .cfa: x29 32 + x19: .cfa -16 + ^ .ra: .cfa -24 + ^ x29: .cfa -32 + ^
STACK CFI 97dc .cfa: sp 32 +
STACK CFI 97e4 .cfa: sp 0 +
STACK CFI 97e8 .cfa: x29 32 +
STACK CFI 97fc .cfa: sp 32 +
STACK CFI 9804 .cfa: sp 0 +
STACK CFI INIT 9808 f8 .cfa: sp 0 +
STACK CFI 980c .cfa: sp 64 +
STACK CFI 981c .cfa: x29 64 + x19: .cfa -8 + ^ x20: .cfa -16 + ^ x21: .cfa -24 + ^ x22: .cfa -32 + ^ x23: .cfa -48 + ^ .ra: .cfa -56 + ^ x29: .cfa -64 + ^
STACK CFI 9878 .cfa: sp 64 +
STACK CFI 9888 .cfa: sp 0 +
STACK CFI 988c .cfa: x29 64 +
STACK CFI 98a8 .cfa: sp 64 +
STACK CFI 98b8 .cfa: sp 0 +
STACK CFI 98bc .cfa: x29 64 +
STACK CFI 98ec .cfa: sp 64 +
STACK CFI 98fc .cfa: sp 0 +
STACK CFI INIT 9900 3c .cfa: sp 0 +
STACK CFI 9904 .cfa: sp 32 +
STACK CFI 990c .cfa: x29 32 + x19: .cfa -16 + ^ .ra: .cfa -24 + ^ x29: .cfa -32 + ^
STACK CFI 9918 .cfa: sp 32 +
STACK CFI 9920 .cfa: sp 0 +
STACK CFI 9924 .cfa: x29 32 +
STACK CFI 9930 .cfa: sp 32 +
STACK CFI 9938 .cfa: sp 0 +
STACK CFI INIT 3760 588 .cfa: sp 0 +
STACK CFI 3764 .cfa: sp 144 +
STACK CFI 3780 .cfa: x29 96 + x19: .cfa -8 + ^ x20: .cfa -16 + ^ x21: .cfa -24 + ^ x22: .cfa -32 + ^ x23: .cfa -40 + ^ x24: .cfa -48 + ^ x25: .cfa -56 + ^ x26: .cfa -64 + ^ x27: .cfa -72 + ^ x28: .cfa -80 + ^ .ra: .cfa -88 + ^ x29: .cfa -96 + ^
STACK CFI 3c6c .cfa: sp 144 +
STACK CFI 3c88 .cfa: sp 0 +
STACK CFI 3c8c .cfa: x29 96 +
STACK CFI INIT 3ce8 3bc .cfa: sp 0 +
STACK CFI 3cec .cfa: sp 176 +
STACK CFI 3d08 .cfa: x29 96 + x19: .cfa -8 + ^ x20: .cfa -16 + ^ x21: .cfa -24 + ^ x22: .cfa -32 + ^ x23: .cfa -40 + ^ x24: .cfa -48 + ^ x25: .cfa -56 + ^ x26: .cfa -64 + ^ x27: .cfa -72 + ^ x28: .cfa -80 + ^ .ra: .cfa -88 + ^ x29: .cfa -96 + ^
STACK CFI 4000 .cfa: sp 176 +
STACK CFI 401c .cfa: sp 0 +
STACK CFI 4020 .cfa: x29 96 +
STACK CFI INIT 40a4 410 .cfa: sp 0 +
STACK CFI 40a8 .cfa: sp 160 +
STACK CFI 40c4 .cfa: x29 96 + x19: .cfa -8 + ^ x20: .cfa -16 + ^ x21: .cfa -24 + ^ x22: .cfa -32 + ^ x23: .cfa -40 + ^ x24: .cfa -48 + ^ x25: .cfa -56 + ^ x26: .cfa -64 + ^ x27: .cfa -72 + ^ x28: .cfa -80 + ^ .ra: .cfa -88 + ^ x29: .cfa -96 + ^
STACK CFI 4428 .cfa: sp 160 +
STACK CFI 4444 .cfa: sp 0 +
STACK CFI 4448 .cfa: x29 96 +
STACK CFI INIT 45cc 50 .cfa: sp 0 +
STACK CFI 45d0 .cfa: sp 32 +
STACK CFI 45d8 .cfa: x29 32 + x19: .cfa -8 + ^ x20: .cfa -16 + ^ .ra: .cfa -24 + ^ x29: .cfa -32 + ^
STACK CFI INIT 47f0 16c .cfa: sp 0 +
STACK CFI 47f4 .cfa: sp 144 +
STACK CFI 4808 .cfa: x29 64 + x19: .cfa -8 + ^ x20: .cfa -16 + ^ x21: .cfa -24 + ^ x22: .cfa -32 + ^ x23: .cfa -40 + ^ x24: .cfa -48 + ^ .ra: .cfa -56 + ^ x29: .cfa -64 + ^
STACK CFI 48f4 .cfa: sp 144 +
STACK CFI 4908 .cfa: sp 0 +
STACK CFI 490c .cfa: x29 64 +
STACK CFI INIT 4a80 1500 .cfa: sp 0 +
STACK CFI 4a84 .cfa: sp 304 +
STACK CFI 4aa0 .cfa: x29 96 + x19: .cfa -8 + ^ x20: .cfa -16 + ^ x21: .cfa -24 + ^ x22: .cfa -32 + ^ x23: .cfa -40 + ^ x24: .cfa -48 + ^ x25: .cfa -56 + ^ x26: .cfa -64 + ^ x27: .cfa -72 + ^ x28: .cfa -80 + ^ .ra: .cfa -88 + ^ x29: .cfa -96 + ^
STACK CFI 5f00 .cfa: sp 304 +
STACK CFI 5f1c .cfa: sp 0 +
STACK CFI 5f20 .cfa: x29 96 +
STACK CFI INIT 5f80 480 .cfa: sp 0 +
STACK CFI 5f84 .cfa: sp 192 +
STACK CFI 5fa0 .cfa: x29 96 + x19: .cfa -8 + ^ x20: .cfa -16 + ^ x21: .cfa -24 + ^ x22: .cfa -32 + ^ x23: .cfa -40 + ^ x24: .cfa -48 + ^ x25: .cfa -56 + ^ x26: .cfa -64 + ^ x27: .cfa -72 + ^ x28: .cfa -80 + ^ .ra: .cfa -88 + ^ x29: .cfa -96 + ^
STACK CFI 63d0 .cfa: sp 192 +
STACK CFI 63ec .cfa: sp 0 +
STACK CFI 63f0 .cfa: x29 96 +
STACK CFI INIT 6400 1f0 .cfa: sp 0 +
STACK CFI 6404 .cfa: sp 160 +
STACK CFI 641c .cfa: x29 80 + x19: .cfa -8 + ^ x20: .cfa -16 + ^ x21: .cfa -24 + ^ x22: .cfa -32 + ^ x23: .cfa -40 + ^ x24: .cfa -48 + ^ x25: .cfa -64 + ^ .ra: .cfa -72 + ^ x29: .cfa -80 + ^
STACK CFI 65c4 .cfa: sp 160 +
STACK CFI 65dc .cfa: sp 0 +
STACK CFI 65e0 .cfa: x29 80 +
STACK CFI INIT 6f14 448 .cfa: sp 0 +
STACK CFI 6f18 .cfa: sp 128 +
STACK CFI 6f34 .cfa: x29 96 + x19: .cfa -8 + ^ x20: .cfa -16 + ^ x21: .cfa -24 + ^ x22: .cfa -32 + ^ x23: .cfa -40 + ^ x24: .cfa -48 + ^ x25: .cfa -56 + ^ x26: .cfa -64 + ^ x27: .cfa -72 + ^ x28: .cfa -80 + ^ .ra: .cfa -88 + ^ x29: .cfa -96 + ^
STACK CFI 7310 .cfa: sp 128 +
STACK CFI 732c .cfa: sp 0 +
STACK CFI 7330 .cfa: x29 96 +
STACK CFI INIT 7ae0 ba0 .cfa: sp 0 +
STACK CFI 7ae4 .cfa: sp 240 +
STACK CFI 7b00 .cfa: x29 96 + x19: .cfa -8 + ^ x20: .cfa -16 + ^ x21: .cfa -24 + ^ x22: .cfa -32 + ^ x23: .cfa -40 + ^ x24: .cfa -48 + ^ x25: .cfa -56 + ^ x26: .cfa -64 + ^ x27: .cfa -72 + ^ x28: .cfa -80 + ^ .ra: .cfa -88 + ^ x29: .cfa -96 + ^
STACK CFI 8528 .cfa: sp 240 +
STACK CFI 8544 .cfa: sp 0 +
STACK CFI 8548 .cfa: x29 96 +
STACK CFI INIT 8698 600 .cfa: sp 0 +
STACK CFI 869c .cfa: sp 320 +
STACK CFI 86b8 .cfa: x29 96 + x19: .cfa -8 + ^ x20: .cfa -16 + ^ x21: .cfa -24 + ^ x22: .cfa -32 + ^ x23: .cfa -40 + ^ x24: .cfa -48 + ^ x25: .cfa -56 + ^ x26: .cfa -64 + ^ x27: .cfa -72 + ^ x28: .cfa -80 + ^ .ra: .cfa -88 + ^ x29: .cfa -96 + ^
STACK CFI 8b6c .cfa: sp 320 +
STACK CFI 8b88 .cfa: sp 0 +
STACK CFI 8b8c .cfa: x29 96 +
STACK CFI INIT 8ce8 74 .cfa: sp 0 +
STACK CFI 8cec .cfa: sp 48 +
STACK CFI 8cf8 .cfa: x29 32 + x19: .cfa -8 + ^ x20: .cfa -16 + ^ .ra: .cfa -24 + ^ x29: .cfa -32 + ^
STACK CFI 8d44 .cfa: sp 48 +
STACK CFI 8d50 .cfa: sp 0 +
STACK CFI 8d54 .cfa: x29 32 +
STACK CFI INIT 8ddc 6fc .cfa: sp 0 +
STACK CFI 8de0 .cfa: sp 496 +
STACK CFI 8dfc .cfa: x29 96 + x19: .cfa -8 + ^ x20: .cfa -16 + ^ x21: .cfa -24 + ^ x22: .cfa -32 + ^ x23: .cfa -40 + ^ x24: .cfa -48 + ^ x25: .cfa -56 + ^ x26: .cfa -64 + ^ x27: .cfa -72 + ^ x28: .cfa -80 + ^ .ra: .cfa -88 + ^ x29: .cfa -96 + ^
STACK CFI 93ac .cfa: sp 496 +
STACK CFI 93c8 .cfa: sp 0 +
STACK CFI 93cc .cfa: x29 96 +
