MODULE Linux arm64 7327B37F3A6FB6F3D8C3A5BFB6271F0B0 limegradient.betterachievements.android64.so
INFO CODE_ID 7FB327736F3AF3B6D8C3A5BFB6271F0B71A34D1C
INFO GENERATOR mozilla/dump_syms 2.3.4
PUBLIC 12090 0 __on_dlclose
PUBLIC 120a0 0 __emutls_unregister_key
PUBLIC 120a8 0 __on_dlclose_late
PUBLIC 120b0 0 __atexit_handler_wrapper
PUBLIC 120c4 0 atexit
PUBLIC 120e0 0 pthread_atfork
PUBLIC 120f0 0 unwind_phase2
PUBLIC 12224 0 _Unwind_Resume
PUBLIC 122a8 0 unwind_phase2_forced
PUBLIC m 1239c 0 __unw_init_local
PUBLIC m 12444 0 __unw_get_reg
PUBLIC 124c0 0 __unw_step_stage2
PUBLIC m 124d4 0 __unw_get_proc_info
PUBLIC m 12514 0 __unw_resume
PUBLIC 1253c 0 libunwind::CFI_Parser<libunwind::LocalAddressSpace>::decodeFDE(libunwind::LocalAddressSpace&, unsigned long, libunwind::CFI_Parser<libunwind::LocalAddressSpace>::FDE_Info*, libunwind::CFI_Parser<libunwind::LocalAddressSpace>::CIE_Info*, bool)
PUBLIC 126cc 0 libunwind::CFI_Parser<libunwind::LocalAddressSpace>::parseCIE(libunwind::LocalAddressSpace&, unsigned long, libunwind::CFI_Parser<libunwind::LocalAddressSpace>::CIE_Info*)
PUBLIC 12994 0 libunwind::AbstractUnwindCursor::~AbstractUnwindCursor()
PUBLIC 1299c 0 libunwind::UnwindCursor<libunwind::LocalAddressSpace, libunwind::Registers_arm64>::~UnwindCursor()
PUBLIC 129a4 0 libunwind::UnwindCursor<libunwind::LocalAddressSpace, libunwind::Registers_arm64>::validReg(int)
PUBLIC 129e8 0 libunwind::UnwindCursor<libunwind::LocalAddressSpace, libunwind::Registers_arm64>::getReg(int)
PUBLIC 12ad0 0 libunwind::UnwindCursor<libunwind::LocalAddressSpace, libunwind::Registers_arm64>::setReg(int, unsigned long)
PUBLIC 12bb8 0 libunwind::UnwindCursor<libunwind::LocalAddressSpace, libunwind::Registers_arm64>::validFloatReg(int)
PUBLIC 12bcc 0 libunwind::UnwindCursor<libunwind::LocalAddressSpace, libunwind::Registers_arm64>::getFloatReg(int)
PUBLIC 12bdc 0 libunwind::UnwindCursor<libunwind::LocalAddressSpace, libunwind::Registers_arm64>::setFloatReg(int, double)
PUBLIC 12bec 0 libunwind::UnwindCursor<libunwind::LocalAddressSpace, libunwind::Registers_arm64>::step(bool)
PUBLIC 12cdc 0 libunwind::UnwindCursor<libunwind::LocalAddressSpace, libunwind::Registers_arm64>::getInfo(unw_proc_info_t*)
PUBLIC 12d20 0 libunwind::UnwindCursor<libunwind::LocalAddressSpace, libunwind::Registers_arm64>::jumpto()
PUBLIC 12d2c 0 libunwind::UnwindCursor<libunwind::LocalAddressSpace, libunwind::Registers_arm64>::isSignalFrame()
PUBLIC 12d38 0 libunwind::UnwindCursor<libunwind::LocalAddressSpace, libunwind::Registers_arm64>::getFunctionName(char*, unsigned long, unsigned long*)
PUBLIC 12d64 0 libunwind::UnwindCursor<libunwind::LocalAddressSpace, libunwind::Registers_arm64>::setInfoBasedOnIPRegister(bool)
PUBLIC 12fe4 0 libunwind::UnwindCursor<libunwind::LocalAddressSpace, libunwind::Registers_arm64>::getRegisterName(int)
PUBLIC 12ff0 0 libunwind::UnwindCursor<libunwind::LocalAddressSpace, libunwind::Registers_arm64>::stepThroughSigReturn(libunwind::Registers_arm64&)
PUBLIC 13110 0 libunwind::DwarfInstructions<libunwind::LocalAddressSpace, libunwind::Registers_arm64>::stepWithDwarf(libunwind::LocalAddressSpace&, unsigned long, unsigned long, libunwind::Registers_arm64&, bool&, bool)
PUBLIC 13598 0 libunwind::CFI_Parser<libunwind::LocalAddressSpace>::parseFDEInstructions(libunwind::LocalAddressSpace&, libunwind::CFI_Parser<libunwind::LocalAddressSpace>::FDE_Info const&, libunwind::CFI_Parser<libunwind::LocalAddressSpace>::CIE_Info const&, unsigned long, int, libunwind::CFI_Parser<libunwind::LocalAddressSpace>::PrologInfo*)
PUBLIC 141e0 0 libunwind::DwarfInstructions<libunwind::LocalAddressSpace, libunwind::Registers_arm64>::getCFA(libunwind::LocalAddressSpace&, libunwind::CFI_Parser<libunwind::LocalAddressSpace>::PrologInfo const&, libunwind::Registers_arm64 const&)
PUBLIC 14314 0 libunwind::DwarfInstructions<libunwind::LocalAddressSpace, libunwind::Registers_arm64>::getSavedRegister(libunwind::LocalAddressSpace&, libunwind::Registers_arm64 const&, unsigned long, libunwind::CFI_Parser<libunwind::LocalAddressSpace>::RegisterLocation const&)
PUBLIC 14524 0 libunwind::LocalAddressSpace::getEncodedP(unsigned long&, unsigned long, unsigned char, unsigned long)
PUBLIC 148b0 0 libunwind::LocalAddressSpace::getULEB128(unsigned long&, unsigned long)
PUBLIC 14a78 0 libunwind::DwarfInstructions<libunwind::LocalAddressSpace, libunwind::Registers_arm64>::evaluateExpression(unsigned long, libunwind::LocalAddressSpace&, libunwind::Registers_arm64 const&, unsigned long)
PUBLIC 15434 0 libunwind::UnwindCursor<libunwind::LocalAddressSpace, libunwind::Registers_arm64>::getInfoFromDwarfSection(unsigned long, libunwind::UnwindInfoSections const&, unsigned int)
PUBLIC 15708 0 libunwind::findUnwindSectionsByPhdr(dl_phdr_info*, unsigned long, void*)
PUBLIC 1583c 0 libunwind::EHHeaderParser<libunwind::LocalAddressSpace>::decodeEHHdr(libunwind::LocalAddressSpace&, unsigned long, unsigned long, libunwind::EHHeaderParser<libunwind::LocalAddressSpace>::EHHeaderInfo&)
PUBLIC 1595c 0 libunwind::CFI_Parser<libunwind::LocalAddressSpace>::findFDE(libunwind::LocalAddressSpace&, unsigned long, unsigned long, unsigned long, unsigned long, libunwind::CFI_Parser<libunwind::LocalAddressSpace>::FDE_Info*, libunwind::CFI_Parser<libunwind::LocalAddressSpace>::CIE_Info*)
PUBLIC 15b24 0 libunwind::EHHeaderParser<libunwind::LocalAddressSpace>::findFDE(libunwind::LocalAddressSpace&, unsigned long, unsigned long, unsigned int, libunwind::CFI_Parser<libunwind::LocalAddressSpace>::FDE_Info*, libunwind::CFI_Parser<libunwind::LocalAddressSpace>::CIE_Info*)
PUBLIC 15c8c 0 libunwind::EHHeaderParser<libunwind::LocalAddressSpace>::getTableEntrySize(unsigned char)
PUBLIC 15d88 0 libunwind::Registers_arm64::getRegisterName(int)
PUBLIC 15db8 0 __libunwind_Registers_arm64_jumpto
PUBLIC m 15e48 0 __unw_getcontext
PUBLIC 15ef0 0 __aarch64_ldadd8_relax
PUBLIC 15f20 0 init_have_lse_atomics
PUBLIC 15fb8 0 __init_cpu_features_constructor
PUBLIC 16554 0 __init_cpu_features
PUBLIC 165e0 0 __aarch64_ldadd8_acq_rel
PUBLIC 16610 0 __cxx_global_var_init
PUBLIC 1666c 0 std::__ndk1::vector<void*, std::__ndk1::allocator<void*> >::~vector[abi:ne180000]()
PUBLIC 16684 0 BetterAchievementCell::init(Achievement*)
PUBLIC 17480 0 split(std::__ndk1::basic_string<char, std::__ndk1::char_traits<char>, std::__ndk1::allocator<char> >, char)
PUBLIC m 17a08 0 std::__ndk1::basic_stringstream<char, std::__ndk1::char_traits<char>, std::__ndk1::allocator<char> >::~basic_stringstream()
PUBLIC 17a88 0 std::__ndk1::vector<std::__ndk1::basic_string<char, std::__ndk1::char_traits<char>, std::__ndk1::allocator<char> >, std::__ndk1::allocator<std::__ndk1::basic_string<char, std::__ndk1::char_traits<char>, std::__ndk1::allocator<char> > > >::~vector[abi:ne180000]()
PUBLIC 17b04 0 __clang_call_terminate
PUBLIC 17b14 0 std::__ndk1::basic_string<char, std::__ndk1::char_traits<char>, std::__ndk1::allocator<char> >::__throw_length_error[abi:ne180000]() const
PUBLIC 17b28 0 std::__ndk1::__throw_length_error[abi:ne180000](char const*)
PUBLIC 17b78 0 std::length_error::length_error[abi:ne180000](char const*)
PUBLIC 17ba8 0 std::__throw_bad_array_new_length([abi:ne180000], void)
PUBLIC 17bdc 0 std::__ndk1::basic_string<char, std::__ndk1::char_traits<char>, std::__ndk1::allocator<char> >::__init_copy_ctor_external(char const*, unsigned long)
PUBLIC 17c5c 0 std::__ndk1::vector<std::__ndk1::basic_string<char, std::__ndk1::char_traits<char>, std::__ndk1::allocator<char> >, std::__ndk1::allocator<std::__ndk1::basic_string<char, std::__ndk1::char_traits<char>, std::__ndk1::allocator<char> > > >::__push_back_slow_path<std::__ndk1::basic_string<char, std::__ndk1::char_traits<char>, std::__ndk1::allocator<char> > const&>(std::__ndk1::basic_string<char, std::__ndk1::char_traits<char>, std::__ndk1::allocator<char> > const&)
PUBLIC 17e84 0 std::__ndk1::__split_buffer<std::__ndk1::basic_string<char, std::__ndk1::char_traits<char>, std::__ndk1::allocator<char> >, std::__ndk1::allocator<std::__ndk1::basic_string<char, std::__ndk1::char_traits<char>, std::__ndk1::allocator<char> > >&>::~__split_buffer()
PUBLIC 17eec 0 std::__ndk1::vector<std::__ndk1::basic_string<char, std::__ndk1::char_traits<char>, std::__ndk1::allocator<char> >, std::__ndk1::allocator<std::__ndk1::basic_string<char, std::__ndk1::char_traits<char>, std::__ndk1::allocator<char> > > >::__throw_length_error[abi:ne180000]() const
PUBLIC 17f00 0 cocos2d::CCCopying::copyWithZone(cocos2d::CCZone*)
PUBLIC 17f08 0 BetterAchievementCell::~BetterAchievementCell()
PUBLIC 17f2c 0 geode::cast::traverseTypeinfoFor(void*, geode::cast::ClassTypeinfoType const*, char const*)
PUBLIC 18030 0 std::__ndk1::basic_stringbuf<char, std::__ndk1::char_traits<char>, std::__ndk1::allocator<char> >::__init_buf_ptrs[abi:ne180000]()
PUBLIC 18178 0 std::__ndk1::basic_string<char, std::__ndk1::char_traits<char>, std::__ndk1::allocator<char> >::__assign_no_alias<true>(char const*, unsigned long)
PUBLIC 18224 0 BetterAchievementLayer::init()
PUBLIC 19aac 0 BetterAchievementLayer::onClose(cocos2d::CCObject*)
PUBLIC 19aec 0 BetterAchievementLayer::init()::$_0::operator()(geode::TabButton*, std::__ndk1::basic_string<char, std::__ndk1::char_traits<char>, std::__ndk1::allocator<char> >, int) const
PUBLIC 1a078 0 BetterAchievementLayer::loadPage(std::__ndk1::vector<std::__ndk1::basic_string<char, std::__ndk1::char_traits<char>, std::__ndk1::allocator<char> >, std::__ndk1::allocator<std::__ndk1::basic_string<char, std::__ndk1::char_traits<char>, std::__ndk1::allocator<char> > > >)
PUBLIC 1a61c 0 BetterAchievementLayer::onLoadPage(cocos2d::CCObject*)
PUBLIC 1aa7c 0 BetterAchievementLayer::keyBackClicked()
PUBLIC 1aabc 0 {virtual override thunk({offset(-336)}, BetterAchievementLayer::keyBackClicked())}
PUBLIC 1aafc 0 BetterAchievementLayer::BetterAchievementLayer()
PUBLIC 1b43c 0 BetterAchievementLayer::~BetterAchievementLayer()
PUBLIC 1b64c 0 BetterAchievementLayer::~BetterAchievementLayer()
PUBLIC 1b670 0 {virtual override thunk({offset(-320)}, BetterAchievementLayer::~BetterAchievementLayer())}
PUBLIC 1b678 0 {virtual override thunk({offset(-320)}, BetterAchievementLayer::~BetterAchievementLayer())}
PUBLIC 1b6a0 0 cocos2d::CCKeyboardDelegate::keyUp(cocos2d::enumKeyCodes)
PUBLIC 1b6a4 0 cocos2d::CCMouseDelegate::rightKeyDown()
PUBLIC 1b6a8 0 cocos2d::CCMouseDelegate::rightKeyUp()
PUBLIC 1b6ac 0 cocos2d::CCMouseDelegate::scrollWheel(float, float)
PUBLIC 1b6b0 0 std::__ndk1::vector<cocos2d::CCNode*, std::__ndk1::allocator<cocos2d::CCNode*> >::__throw_length_error[abi:ne180000]() const
PUBLIC 1b6c4 0 std::__ndk1::vector<CCMenuItemSpriteExtra*, std::__ndk1::allocator<CCMenuItemSpriteExtra*> >::__throw_length_error[abi:ne180000]() const
PUBLIC 1b6d8 0 std::__ndk1::vector<std::__ndk1::basic_string<char, std::__ndk1::char_traits<char>, std::__ndk1::allocator<char> >, std::__ndk1::allocator<std::__ndk1::basic_string<char, std::__ndk1::char_traits<char>, std::__ndk1::allocator<char> > > >::__init_with_size[abi:ne180000]<std::__ndk1::basic_string<char, std::__ndk1::char_traits<char>, std::__ndk1::allocator<char> >*, std::__ndk1::vector<std::__ndk1::basic_string<char, std::__ndk1::char_traits<char>, std::__ndk1::allocator<char> >, std::__ndk1::allocator<std::__ndk1::basic_string<char, std::__ndk1::char_traits<char>, std::__ndk1::allocator<char> > > >::__init_with_size[abi:ne180000]>(std::__ndk1::basic_string<char, std::__ndk1::char_traits<char>, std::__ndk1::allocator<char> >*, std::__ndk1::vector<std::__ndk1::basic_string<char, std::__ndk1::char_traits<char>, std::__ndk1::allocator<char> >, std::__ndk1::allocator<std::__ndk1::basic_string<char, std::__ndk1::char_traits<char>, std::__ndk1::allocator<char> > > >::__init_with_size[abi:ne180000], unsigned long)
PUBLIC 1b844 0 std::__ndk1::__exception_guard_exceptions<std::__ndk1::vector<std::__ndk1::basic_string<char, std::__ndk1::char_traits<char>, std::__ndk1::allocator<char> >, std::__ndk1::allocator<std::__ndk1::basic_string<char, std::__ndk1::char_traits<char>, std::__ndk1::allocator<char> > > >::__destroy_vector>::~__exception_guard_exceptions[abi:ne180000]()
PUBLIC 1b8d0 0 std::__ndk1::__exception_guard_exceptions<std::__ndk1::_AllocatorDestroyRangeReverse<std::__ndk1::allocator<std::__ndk1::basic_string<char, std::__ndk1::char_traits<char>, std::__ndk1::allocator<char> > >, std::__ndk1::basic_string<char, std::__ndk1::char_traits<char>, std::__ndk1::allocator<char> >*> >::~__exception_guard_exceptions[abi:ne180000]()
PUBLIC 1b930 0 std::__ndk1::basic_string<char, std::__ndk1::char_traits<char>, std::__ndk1::allocator<char> >::__assign_no_alias<false>(char const*, unsigned long)
PUBLIC 1ba40 0 std::__ndk1::vector<Achievement*, std::__ndk1::allocator<Achievement*> >::__throw_length_error[abi:ne180000]() const
PUBLIC 1ba54 0 std::__ndk1::vector<std::__ndk1::basic_string<char, std::__ndk1::char_traits<char>, std::__ndk1::allocator<char> >, std::__ndk1::allocator<std::__ndk1::basic_string<char, std::__ndk1::char_traits<char>, std::__ndk1::allocator<char> > > >::vector[abi:ne180000](std::initializer_list<std::__ndk1::basic_string<char, std::__ndk1::char_traits<char>, std::__ndk1::allocator<char> > >)
PUBLIC 1bbac 0 uibuilder::BuildCallback<CCMenuItemSpriteExtra>::onCallback(cocos2d::CCObject*)
PUBLIC 1bc1c 0 uibuilder::BuildCallback<CCMenuItemSpriteExtra>::~BuildCallback()
PUBLIC 1bc78 0 uibuilder::BuildCallback<CCMenuItemSpriteExtra>::~BuildCallback()
PUBLIC 1bcdc 0 _ZNSt6__ndk110__function6__funcIZN9uibuilder5BuildIN7cocos2d8CCSpriteEE12intoMenuItemITkNS_12derived_fromINS4_6CCNodeEEES5_EENS3_I21CCMenuItemSpriteExtraEENS_8functionIFvvEEEEUlT_E_NS_9allocatorISG_EEFvPSA_EED2Ev
PUBLIC 1bd28 0 _ZNSt6__ndk110__function6__funcIZN9uibuilder5BuildIN7cocos2d8CCSpriteEE12intoMenuItemITkNS_12derived_fromINS4_6CCNodeEEES5_EENS3_I21CCMenuItemSpriteExtraEENS_8functionIFvvEEEEUlT_E_NS_9allocatorISG_EEFvPSA_EED0Ev
PUBLIC 1bd84 0 _ZNKSt6__ndk110__function6__funcIZN9uibuilder5BuildIN7cocos2d8CCSpriteEE12intoMenuItemITkNS_12derived_fromINS4_6CCNodeEEES5_EENS3_I21CCMenuItemSpriteExtraEENS_8functionIFvvEEEEUlT_E_NS_9allocatorISG_EEFvPSA_EE7__cloneEv
PUBLIC 1be18 0 _ZNKSt6__ndk110__function6__funcIZN9uibuilder5BuildIN7cocos2d8CCSpriteEE12intoMenuItemITkNS_12derived_fromINS4_6CCNodeEEES5_EENS3_I21CCMenuItemSpriteExtraEENS_8functionIFvvEEEEUlT_E_NS_9allocatorISG_EEFvPSA_EE7__cloneEPNS0_6__baseISK_EE
PUBLIC 1be94 0 _ZNSt6__ndk110__function6__funcIZN9uibuilder5BuildIN7cocos2d8CCSpriteEE12intoMenuItemITkNS_12derived_fromINS4_6CCNodeEEES5_EENS3_I21CCMenuItemSpriteExtraEENS_8functionIFvvEEEEUlT_E_NS_9allocatorISG_EEFvPSA_EE7destroyEv
PUBLIC 1bed4 0 _ZNSt6__ndk110__function6__funcIZN9uibuilder5BuildIN7cocos2d8CCSpriteEE12intoMenuItemITkNS_12derived_fromINS4_6CCNodeEEES5_EENS3_I21CCMenuItemSpriteExtraEENS_8functionIFvvEEEEUlT_E_NS_9allocatorISG_EEFvPSA_EE18destroy_deallocateEv
PUBLIC 1bf24 0 _ZNSt6__ndk110__function6__funcIZN9uibuilder5BuildIN7cocos2d8CCSpriteEE12intoMenuItemITkNS_12derived_fromINS4_6CCNodeEEES5_EENS3_I21CCMenuItemSpriteExtraEENS_8functionIFvvEEEEUlT_E_NS_9allocatorISG_EEFvPSA_EEclEOSJ_
PUBLIC 1bf44 0 _ZNKSt6__ndk110__function6__funcIZN9uibuilder5BuildIN7cocos2d8CCSpriteEE12intoMenuItemITkNS_12derived_fromINS4_6CCNodeEEES5_EENS3_I21CCMenuItemSpriteExtraEENS_8functionIFvvEEEEUlT_E_NS_9allocatorISG_EEFvPSA_EE6targetERKSt9type_info
PUBLIC 1bf60 0 _ZNKSt6__ndk110__function6__funcIZN9uibuilder5BuildIN7cocos2d8CCSpriteEE12intoMenuItemITkNS_12derived_fromINS4_6CCNodeEEES5_EENS3_I21CCMenuItemSpriteExtraEENS_8functionIFvvEEEEUlT_E_NS_9allocatorISG_EEFvPSA_EE11target_typeEv
PUBLIC 1bf6c 0 std::__ndk1::__throw_bad_function_call[abi:ne180000]()
PUBLIC 1bfa0 0 std::__ndk1::bad_function_call::~bad_function_call()
PUBLIC 1bfc4 0 std::__ndk1::__function::__base<void ()>::~__base()
PUBLIC 1bfc8 0 std::__ndk1::__function::__func<BetterAchievementLayer::init()::$_1, std::__ndk1::allocator<BetterAchievementLayer::init()::$_1>, void ()>::~__func()
PUBLIC 1bfcc 0 std::__ndk1::__function::__func<BetterAchievementLayer::init()::$_1, std::__ndk1::allocator<BetterAchievementLayer::init()::$_1>, void ()>::__clone() const
PUBLIC 1c000 0 std::__ndk1::__function::__func<BetterAchievementLayer::init()::$_1, std::__ndk1::allocator<BetterAchievementLayer::init()::$_1>, void ()>::__clone(std::__ndk1::__function::__base<void ()>*) const
PUBLIC 1c014 0 std::__ndk1::__function::__func<BetterAchievementLayer::init()::$_1, std::__ndk1::allocator<BetterAchievementLayer::init()::$_1>, void ()>::destroy()
PUBLIC 1c018 0 std::__ndk1::__function::__func<BetterAchievementLayer::init()::$_1, std::__ndk1::allocator<BetterAchievementLayer::init()::$_1>, void ()>::destroy_deallocate()
PUBLIC 1c01c 0 std::__ndk1::__function::__func<BetterAchievementLayer::init()::$_1, std::__ndk1::allocator<BetterAchievementLayer::init()::$_1>, void ()>::operator()()
PUBLIC 1c32c 0 std::__ndk1::__function::__func<BetterAchievementLayer::init()::$_1, std::__ndk1::allocator<BetterAchievementLayer::init()::$_1>, void ()>::target(std::type_info const&) const
PUBLIC 1c348 0 std::__ndk1::__function::__func<BetterAchievementLayer::init()::$_1, std::__ndk1::allocator<BetterAchievementLayer::init()::$_1>, void ()>::target_type() const
PUBLIC 1c354 0 __cxx_global_var_init.1
PUBLIC 1cd3c 0 geode::modifier::ModifyBase<geode::modifier::ModifyDerive<hook8<(anonymous namespace)::hook8Parent>, MenuLayer> >::~ModifyBase()
PUBLIC 1cd54 0 geode::modifier::ModifyDerive<hook8<(anonymous namespace)::hook8Parent>, MenuLayer>::apply()
PUBLIC 1d1dc 0 std::__ndk1::shared_ptr<geode::Hook>::~shared_ptr[abi:ne180000]()
PUBLIC 1d22c 0 geode::impl::ResultData<geode::Hook*, std::__ndk1::basic_string<char, std::__ndk1::char_traits<char>, std::__ndk1::allocator<char> > >::~ResultData()
PUBLIC 1d2a0 0 geode::modifier::ModifyBase<geode::modifier::ModifyDerive<hook8<(anonymous namespace)::hook8Parent>, MenuLayer> >::apply()
PUBLIC 1d2a4 0 _ZN5geode15UnwrapExceptionC2IRPNS_4HookEQsr4implE18IsStringStreamableIT_EEENS_4impl5OkTagEOS5_
PUBLIC 1d3f8 0 std::__ndk1::__throw_bad_variant_access[abi:ne180000]()
PUBLIC 1d42c 0 std::__ndk1::basic_stringstream<char, std::__ndk1::char_traits<char>, std::__ndk1::allocator<char> >::basic_stringstream[abi:ne180000]()
PUBLIC 1d558 0 geode::UnwrapException::~UnwrapException()
PUBLIC 1d57c 0 std::__ndk1::__put_character_sequence[abi:ne180000]<char, std::__ndk1::char_traits<char> >(std::__ndk1::basic_ostream<char, std::__ndk1::char_traits<char> >, std::__ndk1::basic_ostream const*, unsigned long)
PUBLIC 1d720 0 std::__ndk1::__pad_and_output[abi:ne180000]<char, std::__ndk1::char_traits<char> >(std::__ndk1::char_traits<char>, std::__ndk1::ostreambuf_iterator const*, std::__ndk1::ostreambuf_iterator const, std::__ndk1::ostreambuf_iterator const, std::__ndk1::ios_base&, std::__ndk1::ostreambuf_iterator)
PUBLIC 1d8fc 0 std::__ndk1::basic_stringbuf<char, std::__ndk1::char_traits<char>, std::__ndk1::allocator<char> >::str[abi:ne180000]() &&
PUBLIC 1da74 0 std::__ndk1::__variant_detail::__visitation::__base::__dispatcher<(unsigned long)0>::__dispatch[abi:ne180000]<std::__ndk1::__variant_detail::__dtor<std::__ndk1::__variant_detail::__traits<geode::Hook*, std::__ndk1::basic_string<char, std::__ndk1::char_traits<char>, std::__ndk1::allocator<char> > >, (std::__ndk1::__variant_detail::_Trait)1>::__destroy[abi:ne180000]()::{lambda(auto:1&)#1}, std::__ndk1::__variant_detail::__base<(std::__ndk1::__variant_detail::__traits<geode::Hook*, std::__ndk1::basic_string<char, std::__ndk1::char_traits<char>, std::__ndk1::allocator<char> > >)1, geode::Hook, std::__ndk1::allocator<char> >&>(std::__ndk1::__variant_detail::__dtor<std::__ndk1::__variant_detail::__traits<geode::Hook*, std::__ndk1::basic_string<char, std::__ndk1::char_traits<char>, std::__ndk1::allocator<char> > >, (std::__ndk1::__variant_detail::_Trait)1>, std::__ndk1::__variant_detail::__base<(std::__ndk1::__variant_detail::__traits<geode::Hook*, std::__ndk1::basic_string<char, std::__ndk1::char_traits<char>, std::__ndk1::allocator<char> > >)1, geode::Hook, std::__ndk1::allocator<char> >&)
PUBLIC 1da78 0 std::__ndk1::__variant_detail::__visitation::__base::__dispatcher<(unsigned long)1>::__dispatch[abi:ne180000]<std::__ndk1::__variant_detail::__dtor<std::__ndk1::__variant_detail::__traits<geode::Hook*, std::__ndk1::basic_string<char, std::__ndk1::char_traits<char>, std::__ndk1::allocator<char> > >, (std::__ndk1::__variant_detail::_Trait)1>::__destroy[abi:ne180000]()::{lambda(auto:1&)#1}, std::__ndk1::__variant_detail::__base<(std::__ndk1::__variant_detail::__traits<geode::Hook*, std::__ndk1::basic_string<char, std::__ndk1::char_traits<char>, std::__ndk1::allocator<char> > >)1, geode::Hook, std::__ndk1::allocator<char> >&>(std::__ndk1::__variant_detail::__dtor<std::__ndk1::__variant_detail::__traits<geode::Hook*, std::__ndk1::basic_string<char, std::__ndk1::char_traits<char>, std::__ndk1::allocator<char> > >, (std::__ndk1::__variant_detail::_Trait)1>, std::__ndk1::__variant_detail::__base<(std::__ndk1::__variant_detail::__traits<geode::Hook*, std::__ndk1::basic_string<char, std::__ndk1::char_traits<char>, std::__ndk1::allocator<char> > >)1, geode::Hook, std::__ndk1::allocator<char> >&)
PUBLIC 1da8c 0 std::__ndk1::__tree<std::__ndk1::__value_type<std::__ndk1::basic_string<char, std::__ndk1::char_traits<char>, std::__ndk1::allocator<char> >, std::__ndk1::shared_ptr<geode::Hook> >, std::__ndk1::__map_value_compare<std::__ndk1::basic_string<char, std::__ndk1::char_traits<char>, std::__ndk1::allocator<char> >, std::__ndk1::__value_type<std::__ndk1::basic_string<char, std::__ndk1::char_traits<char>, std::__ndk1::allocator<char> >, std::__ndk1::shared_ptr<geode::Hook> >, std::__ndk1::less<std::__ndk1::basic_string<char, std::__ndk1::char_traits<char>, std::__ndk1::allocator<char> > >, true>, std::__ndk1::allocator<std::__ndk1::__value_type<std::__ndk1::basic_string<char, std::__ndk1::char_traits<char>, std::__ndk1::allocator<char> >, std::__ndk1::shared_ptr<geode::Hook> > > >::destroy(std::__ndk1::__tree_node<std::__ndk1::__value_type<std::__ndk1::basic_string<char, std::__ndk1::char_traits<char>, std::__ndk1::allocator<char> >, std::__ndk1::shared_ptr<geode::Hook> >, void*>*)
PUBLIC 1db10 0 geode::modifier::AsStaticFunction_onAchievements<hook8<(anonymous namespace)::hook8Parent>, void (hook8<(anonymous namespace)::hook8Parent>::*)(cocos2d::CCObject*)>::Impl<void (hook8<(anonymous namespace)::hook8Parent>::*)(cocos2d::CCObject*)>::function(hook8<(anonymous namespace)::hook8Parent>*, cocos2d::CCObject*)
PUBLIC 1dbc4 0 std::__ndk1::shared_ptr<tulip::hook::CallingConvention>::~shared_ptr[abi:ne180000]()
PUBLIC 1dc14 0 tulip::hook::HandlerMetadata::~HandlerMetadata()
PUBLIC 1dc78 0 std::__ndk1::__tree_balance_after_insert[abi:ne180000]<std::__ndk1::__tree_node_base<void*>*>(std::__ndk1::__tree_node_base<void*>*, std::__ndk1::__tree_node_base<void*>*)
PUBLIC m 1de28 0 geodeImplicitEntry
PUBLIC 1de64 0 cocos2d::CCDestructor::~CCDestructor()
PUBLIC 1df60 0 wrapFunction(unsigned long, tulip::hook::WrapperMetadata const&)
PUBLIC 1e094 0 geode::impl::ResultData<void*, std::__ndk1::basic_string<char, std::__ndk1::char_traits<char>, std::__ndk1::allocator<char> > >::unwrapErr() &
PUBLIC 1e10c 0 geode::impl::ResultData<void*, std::__ndk1::basic_string<char, std::__ndk1::char_traits<char>, std::__ndk1::allocator<char> > >::~ResultData()
PUBLIC 1e180 0 tulip::hook::WrapperMetadata::~WrapperMetadata()
PUBLIC 1e1e4 0 cocos2d::CCObject::CCObject()
PUBLIC 1e358 0 cocos2d::CCNode::CCNode()
PUBLIC 1e4ec 0 cocos2d::CCNode::~CCNode()
PUBLIC 1e510 0 cocos2d::CCLayer::CCLayer()
PUBLIC 1e6a8 0 {virtual override thunk({offset(-320)}, cocos2d::CCLayer::~CCLayer())}
PUBLIC 1e6b0 0 cocos2d::CCLayer::~CCLayer()
PUBLIC 1e6d4 0 {virtual override thunk({offset(-320)}, cocos2d::CCLayer::~CCLayer())}
PUBLIC 1e6fc 0 cocos2d::CCObject::~CCObject()
PUBLIC 1e720 0 cocos2d::CCDictionary::valueForKey(gd::string const&)
PUBLIC 1e870 0 tulip::hook::AbstractFunction::from<cocos2d::CCString const*, cocos2d::CCDictionary*, gd::string const&>(cocos2d::CCString const* (*)(cocos2d::CCDictionary*, gd::string const&))
PUBLIC 1e918 0 FLAlertLayer::create(FLAlertLayerProtocol*, char const*, gd::string, char const*, char const*, float)
PUBLIC 1ead0 0 tulip::hook::AbstractFunction::from<FLAlertLayer*, FLAlertLayerProtocol*, char const*, gd::string, char const*, char const*, float>(FLAlertLayer* (*)(FLAlertLayerProtocol*, char const*, gd::string, char const*, char const*, float))
PUBLIC 1ec3c 0 cocos2d::CCObject::update(float)
PUBLIC 1ec40 0 cocos2d::CCNode::~CCNode()
PUBLIC 1ee64 0 cocos2d::CCLayer::~CCLayer()
PUBLIC 1f0a8 0 cocos2d::CCObject::~CCObject()
PUBLIC 1f2cc 0 _ZN5geode15UnwrapExceptionC2IRPvQsr4implE18IsStringStreamableIT_EEENS_4impl5OkTagEOS4_
PUBLIC 1f420 0 _ZN5geode15UnwrapExceptionC2IRNSt6__ndk112basic_stringIcNS2_11char_traitsIcEENS2_9allocatorIcEEEEQsr4implE18IsStringStreamableIT_EEENS_4impl6ErrTagEOSA_
PUBLIC 1f588 0 std::__ndk1::__variant_detail::__visitation::__base::__dispatcher<(unsigned long)0>::__dispatch[abi:ne180000]<std::__ndk1::__variant_detail::__dtor<std::__ndk1::__variant_detail::__traits<void*, std::__ndk1::basic_string<char, std::__ndk1::char_traits<char>, std::__ndk1::allocator<char> > >, (std::__ndk1::__variant_detail::_Trait)1>::__destroy[abi:ne180000]()::{lambda(auto:1&)#1}, std::__ndk1::__variant_detail::__base<(std::__ndk1::__variant_detail::__traits<void*, std::__ndk1::basic_string<char, std::__ndk1::char_traits<char>, std::__ndk1::allocator<char> > >)1, std::__ndk1::__variant_detail::__traits, std::__ndk1::allocator<char> >&>(std::__ndk1::__variant_detail::__dtor<std::__ndk1::__variant_detail::__traits<void*, std::__ndk1::basic_string<char, std::__ndk1::char_traits<char>, std::__ndk1::allocator<char> > >, (std::__ndk1::__variant_detail::_Trait)1>, std::__ndk1::__variant_detail::__base<(std::__ndk1::__variant_detail::__traits<void*, std::__ndk1::basic_string<char, std::__ndk1::char_traits<char>, std::__ndk1::allocator<char> > >)1, std::__ndk1::__variant_detail::__traits, std::__ndk1::allocator<char> >&)
PUBLIC 1f58c 0 std::__ndk1::__variant_detail::__visitation::__base::__dispatcher<(unsigned long)1>::__dispatch[abi:ne180000]<std::__ndk1::__variant_detail::__dtor<std::__ndk1::__variant_detail::__traits<void*, std::__ndk1::basic_string<char, std::__ndk1::char_traits<char>, std::__ndk1::allocator<char> > >, (std::__ndk1::__variant_detail::_Trait)1>::__destroy[abi:ne180000]()::{lambda(auto:1&)#1}, std::__ndk1::__variant_detail::__base<(std::__ndk1::__variant_detail::__traits<void*, std::__ndk1::basic_string<char, std::__ndk1::char_traits<char>, std::__ndk1::allocator<char> > >)1, std::__ndk1::__variant_detail::__traits, std::__ndk1::allocator<char> >&>(std::__ndk1::__variant_detail::__dtor<std::__ndk1::__variant_detail::__traits<void*, std::__ndk1::basic_string<char, std::__ndk1::char_traits<char>, std::__ndk1::allocator<char> > >, (std::__ndk1::__variant_detail::_Trait)1>, std::__ndk1::__variant_detail::__base<(std::__ndk1::__variant_detail::__traits<void*, std::__ndk1::basic_string<char, std::__ndk1::char_traits<char>, std::__ndk1::allocator<char> > >)1, std::__ndk1::__variant_detail::__traits, std::__ndk1::allocator<char> >&)
PUBLIC 1f5a0 0 std::__ndk1::__hash_table<std::__ndk1::__hash_value_type<void*, bool>, std::__ndk1::__unordered_map_hasher<void*, std::__ndk1::__hash_value_type<void*, bool>, std::__ndk1::hash<void*>, std::__ndk1::equal_to<void*>, true>, std::__ndk1::__unordered_map_equal<void*, std::__ndk1::__hash_value_type<void*, bool>, std::__ndk1::equal_to<void*>, std::__ndk1::hash<void*>, true>, std::__ndk1::allocator<std::__ndk1::__hash_value_type<void*, bool> > >::__emplace_unique_key_args<void*, std::__ndk1::piecewise_construct_t const&, std::__ndk1::tuple<void* const&>, std::__ndk1::tuple<> >(void* const&, std::__ndk1::piecewise_construct_t const&, std::__ndk1::tuple<void* const&>, std::__ndk1::tuple<>)
PUBLIC 1fa80 0 std::__ndk1::__hash_table<std::__ndk1::__hash_value_type<void*, bool>, std::__ndk1::__unordered_map_hasher<void*, std::__ndk1::__hash_value_type<void*, bool>, std::__ndk1::hash<void*>, std::__ndk1::equal_to<void*>, true>, std::__ndk1::__unordered_map_equal<void*, std::__ndk1::__hash_value_type<void*, bool>, std::__ndk1::equal_to<void*>, std::__ndk1::hash<void*>, true>, std::__ndk1::allocator<std::__ndk1::__hash_value_type<void*, bool> > >::find<void*>(void* const&)
PUBLIC 1fb90 0 std::__ndk1::__hash_table<std::__ndk1::__hash_value_type<void*, bool>, std::__ndk1::__unordered_map_hasher<void*, std::__ndk1::__hash_value_type<void*, bool>, std::__ndk1::hash<void*>, std::__ndk1::equal_to<void*>, true>, std::__ndk1::__unordered_map_equal<void*, std::__ndk1::__hash_value_type<void*, bool>, std::__ndk1::equal_to<void*>, std::__ndk1::hash<void*>, true>, std::__ndk1::allocator<std::__ndk1::__hash_value_type<void*, bool> > >::remove(std::__ndk1::__hash_const_iterator<std::__ndk1::__hash_node<std::__ndk1::__hash_value_type<void*, bool>, void*>*>)
PUBLIC 1fcc4 0 __udivti3
PUBLIC 1fcd0 0 __udivmodti4
PUBLIC m 1ff1c 0 __eqtf2
PUBLIC 1ffbc 0 __unordtf2
PUBLIC 1fff4 0 fmt::v11::detail::write_loc(fmt::v11::basic_appender<char>, fmt::v11::loc_value, fmt::v11::format_specs const&, fmt::v11::detail::locale_ref)
PUBLIC 20288 0 fmt::v11::format_facet<std::__ndk1::locale>::~format_facet()
PUBLIC 20304 0 fmt::v11::report_error(char const*)
PUBLIC 20354 0 fmt::v11::format_error::runtime_error(char const*)
PUBLIC 20380 0 fmt::v11::format_facet<std::__ndk1::locale>::do_put(fmt::v11::basic_appender<char>, fmt::v11::loc_value, fmt::v11::format_specs const&) const
PUBLIC 20b40 0 fmt::v11::detail::loc_writer<char>::~loc_writer()
PUBLIC 20ba4 0 fmt::v11::detail::vformat_to<char>(fmt::v11::detail::buffer<char>&, fmt::v11::basic_string_view<char>, fmt::v11::detail::vformat_args<char>::type, fmt::v11::detail::locale_ref)
PUBLIC 21114 0 fmt::v11::detail::is_printable(unsigned int)
PUBLIC 2133c 0 fmt::v11::detail::dragonbox::to_decimal<float>(float)
PUBLIC 21618 0 fmt::v11::detail::dragonbox::to_decimal<double>(double)
PUBLIC 21b54 0 fmt::v11::basic_memory_buffer<char, (unsigned long)500, std::__ndk1::allocator<char> >::grow(fmt::v11::detail::buffer<char>&, unsigned long)
PUBLIC 21bcc 0 fmt::v11::format_facet<std::__ndk1::locale>::~format_facet()
PUBLIC 21c58 0 fmt::v11::format_error::~format_error()
PUBLIC 21c7c 0 fmt::v11::detail::copy_noinline<char, char const*, fmt::v11::basic_appender<char> >(char const*, char const*, fmt::v11::basic_appender<char>)
PUBLIC 21dcc 0 fmt::v11::detail::default_arg_formatter<char>::operator()<bool>(bool)
PUBLIC 21e34 0 fmt::v11::detail::default_arg_formatter<char>::operator()<char>(char)
PUBLIC 21ec4 0 fmt::v11::detail::default_arg_formatter<char>::operator()<float>(float)
PUBLIC 21fb0 0 fmt::v11::detail::default_arg_formatter<char>::operator()<double>(double)
PUBLIC 2209c 0 fmt::v11::detail::default_arg_formatter<char>::operator()<char const*>(char const*)
PUBLIC 220e4 0 fmt::v11::detail::default_arg_formatter<char>::operator()<void const*>(void const*)
PUBLIC 2217c 0 _ZN3fmt3v116detail5writeIcNS0_14basic_appenderIcEEiTnNSt6__ndk19enable_ifIXaaaasr11is_integralIT1_EE5valuentsr3std7is_sameIS7_bEE5valuentsr3std7is_sameIS7_T_EE5valueEiE4typeELi0EEET0_SB_S7_
PUBLIC 223dc 0 fmt::v11::detail::copy_noinline<char, char*, fmt::v11::basic_appender<char> >(char*, char*, fmt::v11::basic_appender<char>)
PUBLIC 2252c 0 _ZN3fmt3v116detail5writeIcNS0_14basic_appenderIcEEjTnNSt6__ndk19enable_ifIXaaaasr11is_integralIT1_EE5valuentsr3std7is_sameIS7_bEE5valuentsr3std7is_sameIS7_T_EE5valueEiE4typeELi0EEET0_SB_S7_
PUBLIC 2270c 0 _ZN3fmt3v116detail5writeIcNS0_14basic_appenderIcEExTnNSt6__ndk19enable_ifIXaaaasr11is_integralIT1_EE5valuentsr3std7is_sameIS7_bEE5valuentsr3std7is_sameIS7_T_EE5valueEiE4typeELi0EEET0_SB_S7_
PUBLIC 22990 0 _ZN3fmt3v116detail5writeIcNS0_14basic_appenderIcEEyTnNSt6__ndk19enable_ifIXaaaasr11is_integralIT1_EE5valuentsr3std7is_sameIS7_bEE5valuentsr3std7is_sameIS7_T_EE5valueEiE4typeELi0EEET0_SB_S7_
PUBLIC 22b98 0 _ZN3fmt3v116detail5writeIcNS0_14basic_appenderIcEEnTnNSt6__ndk19enable_ifIXaaaasr11is_integralIT1_EE5valuentsr3std7is_sameIS7_bEE5valuentsr3std7is_sameIS7_T_EE5valueEiE4typeELi0EEET0_SB_S7_
PUBLIC 22ef8 0 _ZN3fmt3v116detail5writeIcNS0_14basic_appenderIcEEoTnNSt6__ndk19enable_ifIXaaaasr11is_integralIT1_EE5valuentsr3std7is_sameIS7_bEE5valuentsr3std7is_sameIS7_T_EE5valueEiE4typeELi0EEET0_SB_S7_
PUBLIC 2320c 0 _ZN3fmt3v116detail5writeIcNS0_14basic_appenderIcEEbTnNSt6__ndk19enable_ifIXsr3std7is_sameIT1_bEE5valueEiE4typeELi0EEET0_SA_S7_RKNS0_12format_specsENS1_10locale_refE
PUBLIC 2349c 0 fmt::v11::detail::write_int_noinline<char, fmt::v11::basic_appender<char>, unsigned int>(fmt::v11::basic_appender<char>, fmt::v11::detail::write_int_arg<unsigned int>, fmt::v11::format_specs const&, fmt::v11::detail::locale_ref)
PUBLIC 24278 0 fmt::v11::detail::fill<char, fmt::v11::basic_appender<char> >(fmt::v11::basic_appender<char>, unsigned long, fmt::v11::detail::fill_t const&)
PUBLIC 24448 0 fmt::v11::detail::write_padded<char, (fmt::v11::align::type)1, fmt::v11::basic_appender<char>, fmt::v11::detail::write_char<char, fmt::v11::basic_appender<char> >(fmt::v11::basic_appender<char>, char, fmt::v11::format_specs const&)::{lambda(fmt::v11::basic_appender<char>&)#1}>(fmt::v11::basic_appender<char>, fmt::v11::format_specs const&, unsigned long, unsigned long, fmt::v11::detail::write_char<char, fmt::v11::basic_appender<char> >(fmt::v11::basic_appender<char>, char, fmt::v11::format_specs const&)::{lambda(fmt::v11::basic_appender<char>&)#1})
PUBLIC 24684 0 fmt::v11::detail::write_escaped_cp<fmt::v11::basic_appender<char>, char>(fmt::v11::basic_appender<char>, fmt::v11::detail::find_escape_result<char> const&)
PUBLIC 24990 0 fmt::v11::detail::write_codepoint<(unsigned long)2, char, fmt::v11::basic_appender<char> >(fmt::v11::basic_appender<char>, char, unsigned int)
PUBLIC 24b08 0 fmt::v11::detail::write_codepoint<(unsigned long)8, char, fmt::v11::basic_appender<char> >(fmt::v11::basic_appender<char>, char, unsigned int)
PUBLIC 24c80 0 fmt::v11::detail::write_padded<char, (fmt::v11::align::type)1, fmt::v11::basic_appender<char>, fmt::v11::detail::write_nonfinite<char, fmt::v11::basic_appender<char> >(fmt::v11::basic_appender<char>, bool, fmt::v11::format_specs, fmt::v11::sign::type)::{lambda(fmt::v11::basic_appender<char>&)#1}>(fmt::v11::basic_appender<char>, fmt::v11::format_specs const&, unsigned long, unsigned long, fmt::v11::detail::write_nonfinite<char, fmt::v11::basic_appender<char> >(fmt::v11::basic_appender<char>, bool, fmt::v11::format_specs, fmt::v11::sign::type)::{lambda(fmt::v11::basic_appender<char>&)#1})
PUBLIC 24ec0 0 fmt::v11::detail::do_write_float<char, fmt::v11::basic_appender<char>, fmt::v11::detail::dragonbox::decimal_fp<float>, fmt::v11::detail::digit_grouping<char> >(fmt::v11::basic_appender<char>, fmt::v11::detail::dragonbox::decimal_fp<float> const&, fmt::v11::format_specs const&, fmt::v11::detail::float_specs, fmt::v11::detail::locale_ref)
PUBLIC 25b34 0 fmt::v11::detail::do_write_float<char, fmt::v11::basic_appender<char>, fmt::v11::detail::dragonbox::decimal_fp<float>, fmt::v11::detail::digit_grouping<char> >(fmt::v11::basic_appender<char>, fmt::v11::detail::dragonbox::decimal_fp<float> const&, fmt::v11::format_specs const&, fmt::v11::detail::float_specs, fmt::v11::detail::locale_ref)::{lambda(fmt::v11::basic_appender<char>(fmt::v11::basic_appender<char>))#1}::operator() const
PUBLIC 25c88 0 fmt::v11::detail::digit_grouping<char>::digit_grouping(fmt::v11::detail::locale_ref, bool)
PUBLIC 25ef4 0 fmt::v11::detail::digit_grouping<char>::~digit_grouping()
PUBLIC 25f38 0 fmt::v11::detail::write_exponent<char, fmt::v11::basic_appender<char> >(int, fmt::v11::basic_appender<char>)
PUBLIC 26108 0 _ZN3fmt3v116detail17write_significandIcjTnNSt6__ndk19enable_ifIXsr3std11is_integralIT0_EE5valueEiE4typeELi0EEEPT_S9_S5_iiS8_
PUBLIC 26284 0 fmt::v11::detail::digit_grouping<char>::apply<fmt::v11::basic_appender<char>, char>(fmt::v11::basic_appender<char>, fmt::v11::basic_string_view<char>) const
PUBLIC 2663c 0 fmt::v11::basic_memory_buffer<int, (unsigned long)500, std::__ndk1::allocator<int> >::grow(fmt::v11::detail::buffer<int>&, unsigned long)
PUBLIC 266dc 0 fmt::v11::detail::do_write_float<char, fmt::v11::basic_appender<char>, fmt::v11::detail::dragonbox::decimal_fp<double>, fmt::v11::detail::digit_grouping<char> >(fmt::v11::basic_appender<char>, fmt::v11::detail::dragonbox::decimal_fp<double> const&, fmt::v11::format_specs const&, fmt::v11::detail::float_specs, fmt::v11::detail::locale_ref)
PUBLIC 27390 0 fmt::v11::detail::do_write_float<char, fmt::v11::basic_appender<char>, fmt::v11::detail::dragonbox::decimal_fp<double>, fmt::v11::detail::digit_grouping<char> >(fmt::v11::basic_appender<char>, fmt::v11::detail::dragonbox::decimal_fp<double> const&, fmt::v11::format_specs const&, fmt::v11::detail::float_specs, fmt::v11::detail::locale_ref)::{lambda(fmt::v11::basic_appender<char>(fmt::v11::basic_appender<char>))#1}::operator() const
PUBLIC 274e8 0 _ZN3fmt3v116detail17write_significandIcmTnNSt6__ndk19enable_ifIXsr3std11is_integralIT0_EE5valueEiE4typeELi0EEEPT_S9_S5_iiS8_
PUBLIC 27678 0 fmt::v11::detail::write_float<char, fmt::v11::basic_appender<char>, long double>(fmt::v11::basic_appender<char>, long double, fmt::v11::format_specs, fmt::v11::detail::locale_ref)
PUBLIC 28174 0 fmt::v11::detail::write_padded<char, (fmt::v11::align::type)2, fmt::v11::basic_appender<char>, fmt::v11::detail::write_bytes<char, (fmt::v11::align::type)2, fmt::v11::basic_appender<char> >(fmt::v11::basic_appender<char>, fmt::v11::basic_string_view<char>, fmt::v11::format_specs const&)::{lambda(fmt::v11::basic_appender<char>&)#1}>(fmt::v11::basic_appender<char>, fmt::v11::format_specs const&, unsigned long, unsigned long, fmt::v11::detail::write_bytes<char, (fmt::v11::align::type)2, fmt::v11::basic_appender<char> >(fmt::v11::basic_appender<char>, fmt::v11::basic_string_view<char>, fmt::v11::format_specs const&)::{lambda(fmt::v11::basic_appender<char>&)#1})
PUBLIC 28350 0 fmt::v11::detail::format_dragon(fmt::v11::detail::basic_fp<unsigned __int128>, unsigned int, int, fmt::v11::detail::buffer<char>&, int&)
PUBLIC 29780 0 fmt::v11::detail::bigint::operator<<=(int)
PUBLIC 298a4 0 fmt::v11::detail::bigint::assign_pow10(int)
PUBLIC 2a000 0 fmt::v11::detail::bigint::divmod_assign(fmt::v11::detail::bigint const&)
PUBLIC 2a320 0 fmt::v11::basic_memory_buffer<unsigned int, (unsigned long)32, std::__ndk1::allocator<unsigned int> >::grow(fmt::v11::detail::buffer<unsigned int>&, unsigned long)
PUBLIC 2a3c0 0 fmt::v11::detail::do_write_float<char, fmt::v11::basic_appender<char>, fmt::v11::detail::big_decimal_fp, fmt::v11::detail::digit_grouping<char> >(fmt::v11::basic_appender<char>, fmt::v11::detail::big_decimal_fp const&, fmt::v11::format_specs const&, fmt::v11::detail::float_specs, fmt::v11::detail::locale_ref)
PUBLIC 2b270 0 fmt::v11::detail::do_write_float<char, fmt::v11::basic_appender<char>, fmt::v11::detail::big_decimal_fp, fmt::v11::detail::digit_grouping<char> >(fmt::v11::basic_appender<char>, fmt::v11::detail::big_decimal_fp const&, fmt::v11::format_specs const&, fmt::v11::detail::float_specs, fmt::v11::detail::locale_ref)::{lambda(fmt::v11::basic_appender<char>(fmt::v11::basic_appender<char>))#1}::operator() const
PUBLIC 2b3d0 0 fmt::v11::detail::write_padded<char, (fmt::v11::align::type)2, fmt::v11::basic_appender<char>, fmt::v11::detail::write_ptr<char, fmt::v11::basic_appender<char>, unsigned long>(fmt::v11::basic_appender<char>, unsigned long, fmt::v11::format_specs const*)::{lambda(fmt::v11::basic_appender<char>&)#1}>(fmt::v11::basic_appender<char>, fmt::v11::format_specs const&, unsigned long, unsigned long, fmt::v11::detail::write_ptr<char, fmt::v11::basic_appender<char>, unsigned long>(fmt::v11::basic_appender<char>, unsigned long, fmt::v11::format_specs const*)::{lambda(fmt::v11::basic_appender<char>&)#1})
PUBLIC 2b5e4 0 fmt::v11::detail::parse_replacement_field<char, fmt::v11::detail::vformat_to<char>(fmt::v11::detail::buffer<char>&, fmt::v11::basic_string_view<char>, fmt::v11::detail::vformat_args<char>::type, fmt::v11::detail::locale_ref)::format_handler&>(char const*, char const*, fmt::v11::detail::vformat_to<char>(fmt::v11::detail::buffer<char>&, fmt::v11::basic_string_view<char>, fmt::v11::detail::vformat_args<char>::type, fmt::v11::detail::locale_ref)::format_handler&)
PUBLIC 2d280 0 fmt::v11::detail::parse_dynamic_spec<char>(char const*, char const*, int&, fmt::v11::detail::arg_ref<char>&, fmt::v11::basic_format_parse_context<char>&)
PUBLIC 2d510 0 fmt::v11::basic_format_args<fmt::v11::context>::get<char>(fmt::v11::basic_string_view<char>) const
PUBLIC 2d668 0 fmt::v11::detail::write_int_noinline<char, fmt::v11::basic_appender<char>, unsigned long>(fmt::v11::basic_appender<char>, fmt::v11::detail::write_int_arg<unsigned long>, fmt::v11::format_specs const&, fmt::v11::detail::locale_ref)
PUBLIC 2e4bc 0 fmt::v11::detail::write_int_noinline<char, fmt::v11::basic_appender<char>, unsigned __int128>(fmt::v11::basic_appender<char>, fmt::v11::detail::write_int_arg<unsigned __int128>, fmt::v11::format_specs const&, fmt::v11::detail::locale_ref)
PUBLIC 2f524 0 _ZN3fmt3v116detail15format_hexfloatIdTnNSt6__ndk19enable_ifIXntsr16is_double_doubleIT_EE5valueEiE4typeELi0EEEvS5_NS0_12format_specsERNS1_6bufferIcEE
PUBLIC 2fa44 0 fmt::v11::detail::format_float<double>(double, int, fmt::v11::detail::float_specs, fmt::v11::detail::buffer<char>&)
PUBLIC 303e4 0 fmt::v11::detail::write<char, fmt::v11::basic_appender<char> >(fmt::v11::basic_appender<char>, fmt::v11::basic_string_view<char>, fmt::v11::format_specs const&)
PUBLIC 31750 0 fmt::v11::detail::for_each_codepoint<fmt::v11::detail::compute_width(fmt::v11::basic_string_view<char>)::count_code_points>(fmt::v11::basic_string_view<char>, fmt::v11::detail::compute_width(fmt::v11::basic_string_view<char>)::count_code_points)::{lambda(char const*, char const*)#1}::operator()(char const*, char const*) const
PUBLIC 31908 0 fmt::v11::detail::write_int<fmt::v11::basic_appender<char>, unsigned long, char>(fmt::v11::basic_appender<char>, unsigned long, unsigned int, fmt::v11::format_specs const&, fmt::v11::detail::digit_grouping<char> const&)
PUBLIC 31e84 0 fmt::v11::detail::write_int<fmt::v11::basic_appender<char>, unsigned __int128, char>(fmt::v11::basic_appender<char>, unsigned __int128, unsigned int, fmt::v11::format_specs const&, fmt::v11::detail::digit_grouping<char> const&)
PUBLIC 32500 0 <.plt ELF section in limegradient.betterachievements.android64.so>
STACK CFI INIT 12090 10 .cfa: sp 0 +
STACK CFI INIT 120a0 8 .cfa: sp 0 +
STACK CFI INIT 120a8 8 .cfa: sp 0 +
STACK CFI INIT 120b0 14 .cfa: sp 0 +
STACK CFI INIT 120c4 1c .cfa: sp 0 +
STACK CFI INIT 120e0 10 .cfa: sp 0 +
STACK CFI INIT 120f0 134 .cfa: sp 0 +
STACK CFI INIT 12224 84 .cfa: sp 0 +
STACK CFI INIT 122a8 f4 .cfa: sp 0 +
STACK CFI INIT 1239c a8 .cfa: sp 0 +
STACK CFI INIT 12444 7c .cfa: sp 0 +
STACK CFI INIT 124c0 14 .cfa: sp 0 +
STACK CFI INIT 124d4 40 .cfa: sp 0 +
STACK CFI INIT 12514 28 .cfa: sp 0 +
STACK CFI INIT 1253c 190 .cfa: sp 0 +
STACK CFI INIT 126cc 2c8 .cfa: sp 0 +
STACK CFI INIT 12994 8 .cfa: sp 0 +
STACK CFI INIT 1299c 8 .cfa: sp 0 +
STACK CFI INIT 129a4 44 .cfa: sp 0 +
STACK CFI INIT 129e8 e8 .cfa: sp 0 +
STACK CFI INIT 12ad0 e8 .cfa: sp 0 +
STACK CFI INIT 12bb8 14 .cfa: sp 0 +
STACK CFI INIT 12bcc 10 .cfa: sp 0 +
STACK CFI INIT 12bdc 10 .cfa: sp 0 +
STACK CFI INIT 12bec f0 .cfa: sp 0 +
STACK CFI INIT 12cdc 44 .cfa: sp 0 +
STACK CFI INIT 12d20 c .cfa: sp 0 +
STACK CFI INIT 12d2c c .cfa: sp 0 +
STACK CFI INIT 12d38 2c .cfa: sp 0 +
STACK CFI INIT 12d64 280 .cfa: sp 0 +
STACK CFI INIT 12fe4 c .cfa: sp 0 +
STACK CFI INIT 12ff0 120 .cfa: sp 0 +
STACK CFI INIT 13110 488 .cfa: sp 0 +
STACK CFI INIT 13598 c48 .cfa: sp 0 +
STACK CFI INIT 141e0 134 .cfa: sp 0 +
STACK CFI INIT 14314 210 .cfa: sp 0 +
STACK CFI INIT 14524 38c .cfa: sp 0 +
STACK CFI INIT 148b0 1c8 .cfa: sp 0 +
STACK CFI INIT 14a78 9bc .cfa: sp 0 +
STACK CFI INIT 15434 2d4 .cfa: sp 0 +
STACK CFI INIT 15708 134 .cfa: sp 0 +
STACK CFI INIT 1583c 120 .cfa: sp 0 +
STACK CFI INIT 1595c 1c8 .cfa: sp 0 +
STACK CFI INIT 15b24 168 .cfa: sp 0 +
STACK CFI INIT 15c8c fc .cfa: sp 0 +
STACK CFI INIT 15d88 30 .cfa: sp 0 +
STACK CFI INIT 15ef0 30 .cfa: sp 0 +
STACK CFI INIT 15f20 98 .cfa: sp 0 +
STACK CFI INIT 15fb8 59c .cfa: sp 0 +
STACK CFI INIT 16554 8c .cfa: sp 0 +
STACK CFI INIT 165e0 30 .cfa: sp 0 +
STACK CFI INIT 16610 5c .cfa: sp 0 +
STACK CFI 16614 .cfa: sp 16 +
STACK CFI 16618 .cfa: x29 16 + .ra: .cfa -8 + ^ x29: .cfa -16 + ^
STACK CFI 1665c .cfa: sp 16 +
STACK CFI 16660 .cfa: sp 0 +
STACK CFI 16664 .cfa: sp 16 +
STACK CFI 16668 .cfa: sp 0 +
STACK CFI INIT 1666c 18 .cfa: sp 0 +
STACK CFI INIT 17a08 80 .cfa: sp 0 +
STACK CFI 17a0c .cfa: sp 48 +
STACK CFI 17a18 .cfa: x29 48 + x19: .cfa -8 + ^ x20: .cfa -16 + ^ x21: .cfa -32 + ^ .ra: .cfa -40 + ^ x29: .cfa -48 + ^
STACK CFI 17a78 .cfa: sp 48 +
STACK CFI 17a84 .cfa: sp 0 +
STACK CFI INIT 17a88 7c .cfa: sp 0 +
STACK CFI 17a8c .cfa: sp 48 +
STACK CFI 17a98 .cfa: x29 48 + x19: .cfa -8 + ^ x20: .cfa -16 + ^ x21: .cfa -32 + ^ .ra: .cfa -40 + ^ x29: .cfa -48 + ^
STACK CFI 17ae4 .cfa: sp 48 +
STACK CFI 17af0 .cfa: sp 0 +
STACK CFI 17af4 .cfa: sp 48 +
STACK CFI 17b00 .cfa: sp 0 +
STACK CFI INIT 17b04 10 .cfa: sp 0 +
STACK CFI 17b08 .cfa: sp 16 +
STACK CFI 17b0c .cfa: x29 16 + .ra: .cfa -8 + ^ x29: .cfa -16 + ^
STACK CFI INIT 17b14 14 .cfa: sp 0 +
STACK CFI 17b18 .cfa: sp 16 +
STACK CFI 17b1c .cfa: x29 16 + .ra: .cfa -8 + ^ x29: .cfa -16 + ^
STACK CFI INIT 17b78 30 .cfa: sp 0 +
STACK CFI 17b7c .cfa: sp 32 +
STACK CFI 17b84 .cfa: x29 32 + x19: .cfa -16 + ^ .ra: .cfa -24 + ^ x29: .cfa -32 + ^
STACK CFI 17b9c .cfa: sp 32 +
STACK CFI 17ba4 .cfa: sp 0 +
STACK CFI INIT 17ba8 34 .cfa: sp 0 +
STACK CFI 17bac .cfa: sp 32 +
STACK CFI 17bb4 .cfa: x29 32 + x19: .cfa -16 + ^ .ra: .cfa -24 + ^ x29: .cfa -32 + ^
STACK CFI INIT 17bdc 80 .cfa: sp 0 +
STACK CFI 17be0 .cfa: sp 48 +
STACK CFI 17bec .cfa: x29 48 + x19: .cfa -8 + ^ x20: .cfa -16 + ^ x21: .cfa -24 + ^ x22: .cfa -32 + ^ .ra: .cfa -40 + ^ x29: .cfa -48 + ^
STACK CFI 17c04 .cfa: sp 48 +
STACK CFI 17c10 .cfa: sp 0 +
STACK CFI 17c14 .cfa: x29 48 +
STACK CFI 17c44 .cfa: sp 48 +
STACK CFI 17c50 .cfa: sp 0 +
STACK CFI 17c54 .cfa: x29 48 +
STACK CFI INIT 17e84 68 .cfa: sp 0 +
STACK CFI 17e88 .cfa: sp 32 +
STACK CFI 17e90 .cfa: x29 32 + x19: .cfa -8 + ^ x20: .cfa -16 + ^ .ra: .cfa -24 + ^ x29: .cfa -32 + ^
STACK CFI 17ea8 .cfa: sp 32 +
STACK CFI 17eb0 .cfa: sp 0 +
STACK CFI 17eb4 .cfa: x29 32 +
STACK CFI 17ee0 .cfa: sp 32 +
STACK CFI 17ee8 .cfa: sp 0 +
STACK CFI INIT 17eec 14 .cfa: sp 0 +
STACK CFI 17ef0 .cfa: sp 16 +
STACK CFI 17ef4 .cfa: x29 16 + .ra: .cfa -8 + ^ x29: .cfa -16 + ^
STACK CFI INIT 17f00 8 .cfa: sp 0 +
STACK CFI INIT 17f08 24 .cfa: sp 0 +
STACK CFI 17f0c .cfa: sp 32 +
STACK CFI 17f14 .cfa: x29 32 + x19: .cfa -16 + ^ .ra: .cfa -24 + ^ x29: .cfa -32 + ^
STACK CFI 17f20 .cfa: sp 32 +
STACK CFI 17f28 .cfa: sp 0 +
STACK CFI INIT 17f2c 104 .cfa: sp 0 +
STACK CFI 17f30 .cfa: sp 64 +
STACK CFI 17f40 .cfa: x29 64 + x19: .cfa -8 + ^ x20: .cfa -16 + ^ x21: .cfa -24 + ^ x22: .cfa -32 + ^ x23: .cfa -48 + ^ .ra: .cfa -56 + ^ x29: .cfa -64 + ^
STACK CFI 17f9c .cfa: sp 64 +
STACK CFI 17fac .cfa: sp 0 +
STACK CFI 17fb0 .cfa: x29 64 +
STACK CFI 17fcc .cfa: sp 64 +
STACK CFI 17fdc .cfa: sp 0 +
STACK CFI 17fe0 .cfa: x29 64 +
STACK CFI 1801c .cfa: sp 64 +
STACK CFI 1802c .cfa: sp 0 +
STACK CFI INIT 18030 148 .cfa: sp 0 +
STACK CFI 18034 .cfa: sp 48 +
STACK CFI 18040 .cfa: x29 48 + x19: .cfa -8 + ^ x20: .cfa -16 + ^ x21: .cfa -32 + ^ .ra: .cfa -40 + ^ x29: .cfa -48 + ^
STACK CFI 18168 .cfa: sp 48 +
STACK CFI 18174 .cfa: sp 0 +
STACK CFI INIT 18178 ac .cfa: sp 0 +
STACK CFI 1817c .cfa: sp 64 +
STACK CFI 1818c .cfa: x29 64 + x19: .cfa -8 + ^ x20: .cfa -16 + ^ x21: .cfa -24 + ^ x22: .cfa -32 + ^ x23: .cfa -48 + ^ .ra: .cfa -56 + ^ x29: .cfa -64 + ^
STACK CFI 18208 .cfa: sp 64 +
STACK CFI 18218 .cfa: sp 0 +
STACK CFI 1821c .cfa: x29 64 +
STACK CFI INIT 19aac 40 .cfa: sp 0 +
STACK CFI 19ab0 .cfa: sp 32 +
STACK CFI 19ab8 .cfa: x29 32 + x19: .cfa -8 + ^ x20: .cfa -16 + ^ .ra: .cfa -24 + ^ x29: .cfa -32 + ^
STACK CFI 19ae0 .cfa: sp 32 +
STACK CFI 19ae8 .cfa: sp 0 +
STACK CFI INIT 1aa7c 40 .cfa: sp 0 +
STACK CFI 1aa80 .cfa: sp 32 +
STACK CFI 1aa88 .cfa: x29 32 + x19: .cfa -8 + ^ x20: .cfa -16 + ^ .ra: .cfa -24 + ^ x29: .cfa -32 + ^
STACK CFI 1aab0 .cfa: sp 32 +
STACK CFI 1aab8 .cfa: sp 0 +
STACK CFI INIT 1aabc 40 .cfa: sp 0 +
STACK CFI 1aac0 .cfa: sp 32 +
STACK CFI 1aac8 .cfa: x29 32 + x19: .cfa -8 + ^ x20: .cfa -16 + ^ .ra: .cfa -24 + ^ x29: .cfa -32 + ^
STACK CFI 1aaf0 .cfa: sp 32 +
STACK CFI 1aaf8 .cfa: sp 0 +
STACK CFI INIT 1b43c 210 .cfa: sp 0 +
STACK CFI 1b440 .cfa: sp 48 +
STACK CFI 1b44c .cfa: x29 48 + x19: .cfa -8 + ^ x20: .cfa -16 + ^ x21: .cfa -32 + ^ .ra: .cfa -40 + ^ x29: .cfa -48 + ^
STACK CFI 1b63c .cfa: sp 48 +
STACK CFI 1b648 .cfa: sp 0 +
STACK CFI INIT 1b64c 24 .cfa: sp 0 +
STACK CFI 1b650 .cfa: sp 32 +
STACK CFI 1b658 .cfa: x29 32 + x19: .cfa -16 + ^ .ra: .cfa -24 + ^ x29: .cfa -32 + ^
STACK CFI 1b664 .cfa: sp 32 +
STACK CFI 1b66c .cfa: sp 0 +
STACK CFI INIT 1b670 8 .cfa: sp 0 +
STACK CFI INIT 1b678 28 .cfa: sp 0 +
STACK CFI 1b67c .cfa: sp 32 +
STACK CFI 1b684 .cfa: x29 32 + x19: .cfa -16 + ^ .ra: .cfa -24 + ^ x29: .cfa -32 + ^
STACK CFI 1b694 .cfa: sp 32 +
STACK CFI 1b69c .cfa: sp 0 +
STACK CFI INIT 1b6a0 4 .cfa: sp 0 +
STACK CFI INIT 1b6a4 4 .cfa: sp 0 +
STACK CFI INIT 1b6a8 4 .cfa: sp 0 +
STACK CFI INIT 1b6ac 4 .cfa: sp 0 +
STACK CFI INIT 1b6b0 14 .cfa: sp 0 +
STACK CFI 1b6b4 .cfa: sp 16 +
STACK CFI 1b6b8 .cfa: x29 16 + .ra: .cfa -8 + ^ x29: .cfa -16 + ^
STACK CFI INIT 1b6c4 14 .cfa: sp 0 +
STACK CFI 1b6c8 .cfa: sp 16 +
STACK CFI 1b6cc .cfa: x29 16 + .ra: .cfa -8 + ^ x29: .cfa -16 + ^
STACK CFI INIT 1b844 8c .cfa: sp 0 +
STACK CFI 1b848 .cfa: sp 48 +
STACK CFI 1b854 .cfa: x29 48 + x19: .cfa -8 + ^ x20: .cfa -16 + ^ x21: .cfa -24 + ^ x22: .cfa -32 + ^ .ra: .cfa -40 + ^ x29: .cfa -48 + ^
STACK CFI 1b85c .cfa: sp 48 +
STACK CFI 1b868 .cfa: sp 0 +
STACK CFI 1b86c .cfa: x29 48 +
STACK CFI 1b8c0 .cfa: sp 48 +
STACK CFI 1b8cc .cfa: sp 0 +
STACK CFI INIT 1b8d0 60 .cfa: sp 0 +
STACK CFI 1b8e0 .cfa: sp 32 +
STACK CFI 1b8e8 .cfa: x29 32 + x19: .cfa -8 + ^ x20: .cfa -16 + ^ .ra: .cfa -24 + ^ x29: .cfa -32 + ^
STACK CFI 1b924 .cfa: sp 32 +
STACK CFI 1b92c .cfa: sp 0 +
STACK CFI INIT 1b930 110 .cfa: sp 0 +
STACK CFI 1b934 .cfa: sp 64 +
STACK CFI 1b944 .cfa: x29 64 + x19: .cfa -8 + ^ x20: .cfa -16 + ^ x21: .cfa -24 + ^ x22: .cfa -32 + ^ x23: .cfa -40 + ^ x24: .cfa -48 + ^ .ra: .cfa -56 + ^ x29: .cfa -64 + ^
STACK CFI 1ba24 .cfa: sp 64 +
STACK CFI 1ba34 .cfa: sp 0 +
STACK CFI 1ba38 .cfa: x29 64 +
STACK CFI INIT 1ba40 14 .cfa: sp 0 +
STACK CFI 1ba44 .cfa: sp 16 +
STACK CFI 1ba48 .cfa: x29 16 + .ra: .cfa -8 + ^ x29: .cfa -16 + ^
STACK CFI INIT 1bbac 70 .cfa: sp 0 +
STACK CFI 1bbb0 .cfa: sp 48 +
STACK CFI 1bbbc .cfa: x29 32 + x19: .cfa -16 + ^ .ra: .cfa -24 + ^ x29: .cfa -32 + ^
STACK CFI 1bbf4 .cfa: sp 48 +
STACK CFI 1bc00 .cfa: sp 0 +
STACK CFI 1bc04 .cfa: x29 32 +
STACK CFI INIT 1bc1c 5c .cfa: sp 0 +
STACK CFI 1bc20 .cfa: sp 32 +
STACK CFI 1bc28 .cfa: x29 32 + x19: .cfa -16 + ^ .ra: .cfa -24 + ^ x29: .cfa -32 + ^
STACK CFI 1bc6c .cfa: sp 32 +
STACK CFI 1bc74 .cfa: sp 0 +
STACK CFI INIT 1bc78 64 .cfa: sp 0 +
STACK CFI 1bc7c .cfa: sp 32 +
STACK CFI 1bc84 .cfa: x29 32 + x19: .cfa -16 + ^ .ra: .cfa -24 + ^ x29: .cfa -32 + ^
STACK CFI 1bcd0 .cfa: sp 32 +
STACK CFI 1bcd8 .cfa: sp 0 +
STACK CFI INIT 1bcdc 4c .cfa: sp 0 +
STACK CFI INIT 1bd28 5c .cfa: sp 0 +
STACK CFI 1bd2c .cfa: sp 32 +
STACK CFI 1bd34 .cfa: x29 32 + x19: .cfa -16 + ^ .ra: .cfa -24 + ^ x29: .cfa -32 + ^
STACK CFI 1bd78 .cfa: sp 32 +
STACK CFI 1bd80 .cfa: sp 0 +
STACK CFI INIT 1be18 7c .cfa: sp 0 +
STACK CFI 1be1c .cfa: sp 32 +
STACK CFI 1be24 .cfa: x29 32 + x19: .cfa -16 + ^ .ra: .cfa -24 + ^ x29: .cfa -32 + ^
STACK CFI 1be5c .cfa: sp 32 +
STACK CFI 1be64 .cfa: sp 0 +
STACK CFI 1be68 .cfa: x29 32 +
STACK CFI 1be6c .cfa: sp 32 +
STACK CFI 1be74 .cfa: sp 0 +
STACK CFI 1be78 .cfa: x29 32 +
STACK CFI 1be88 .cfa: sp 32 +
STACK CFI 1be90 .cfa: sp 0 +
STACK CFI INIT 1be94 40 .cfa: sp 0 +
STACK CFI INIT 1bed4 50 .cfa: sp 0 +
STACK CFI 1bed8 .cfa: sp 32 +
STACK CFI 1bee0 .cfa: x29 32 + x19: .cfa -16 + ^ .ra: .cfa -24 + ^ x29: .cfa -32 + ^
STACK CFI 1bf18 .cfa: sp 32 +
STACK CFI 1bf20 .cfa: sp 0 +
STACK CFI INIT 1bf24 20 .cfa: sp 0 +
STACK CFI 1bf3c .cfa: sp 16 +
STACK CFI 1bf40 .cfa: x29 16 + .ra: .cfa -8 + ^ x29: .cfa -16 + ^
STACK CFI INIT 1bf44 1c .cfa: sp 0 +
STACK CFI INIT 1bf60 c .cfa: sp 0 +
STACK CFI INIT 1bf6c 34 .cfa: sp 0 +
STACK CFI 1bf70 .cfa: sp 16 +
STACK CFI 1bf74 .cfa: x29 16 + .ra: .cfa -8 + ^ x29: .cfa -16 + ^
STACK CFI INIT 1bfa0 24 .cfa: sp 0 +
STACK CFI 1bfa4 .cfa: sp 32 +
STACK CFI 1bfac .cfa: x29 32 + x19: .cfa -16 + ^ .ra: .cfa -24 + ^ x29: .cfa -32 + ^
STACK CFI 1bfb8 .cfa: sp 32 +
STACK CFI 1bfc0 .cfa: sp 0 +
STACK CFI INIT 1bfc4 4 .cfa: sp 0 +
STACK CFI INIT 1bfc8 4 .cfa: sp 0 +
STACK CFI INIT 1bfcc 34 .cfa: sp 0 +
STACK CFI 1bfd0 .cfa: sp 32 +
STACK CFI 1bfd8 .cfa: x29 32 + x19: .cfa -16 + ^ .ra: .cfa -24 + ^ x29: .cfa -32 + ^
STACK CFI 1bff4 .cfa: sp 32 +
STACK CFI 1bffc .cfa: sp 0 +
STACK CFI INIT 1c000 14 .cfa: sp 0 +
STACK CFI INIT 1c014 4 .cfa: sp 0 +
STACK CFI INIT 1c018 4 .cfa: sp 0 +
STACK CFI INIT 1c32c 1c .cfa: sp 0 +
STACK CFI INIT 1c348 c .cfa: sp 0 +
STACK CFI INIT 1cd3c 18 .cfa: sp 0 +
STACK CFI INIT 1d1dc 50 .cfa: sp 0 +
STACK CFI 1d1e0 .cfa: sp 32 +
STACK CFI 1d1e8 .cfa: x29 32 + x19: .cfa -16 + ^ .ra: .cfa -24 + ^ x29: .cfa -32 + ^
STACK CFI 1d200 .cfa: sp 32 +
STACK CFI 1d208 .cfa: sp 0 +
STACK CFI 1d20c .cfa: x29 32 +
STACK CFI 1d220 .cfa: sp 32 +
STACK CFI 1d228 .cfa: sp 0 +
STACK CFI INIT 1d2a0 4 .cfa: sp 0 +
STACK CFI INIT 1d3f8 34 .cfa: sp 0 +
STACK CFI 1d3fc .cfa: sp 16 +
STACK CFI 1d400 .cfa: x29 16 + .ra: .cfa -8 + ^ x29: .cfa -16 + ^
STACK CFI INIT 1d558 24 .cfa: sp 0 +
STACK CFI 1d55c .cfa: sp 32 +
STACK CFI 1d564 .cfa: x29 32 + x19: .cfa -16 + ^ .ra: .cfa -24 + ^ x29: .cfa -32 + ^
STACK CFI 1d570 .cfa: sp 32 +
STACK CFI 1d578 .cfa: sp 0 +
STACK CFI INIT 1da74 4 .cfa: sp 0 +
STACK CFI INIT 1da78 14 .cfa: sp 0 +
STACK CFI INIT 1da8c 84 .cfa: sp 0 +
STACK CFI 1da94 .cfa: sp 32 +
STACK CFI 1da9c .cfa: x29 32 + x19: .cfa -8 + ^ x20: .cfa -16 + ^ .ra: .cfa -24 + ^ x29: .cfa -32 + ^
STACK CFI 1dadc .cfa: sp 32 +
STACK CFI 1dae4 .cfa: sp 0 +
STACK CFI 1daec .cfa: x29 32 +
STACK CFI INIT 1dbc4 50 .cfa: sp 0 +
STACK CFI 1dbc8 .cfa: sp 32 +
STACK CFI 1dbd0 .cfa: x29 32 + x19: .cfa -16 + ^ .ra: .cfa -24 + ^ x29: .cfa -32 + ^
STACK CFI 1dbe8 .cfa: sp 32 +
STACK CFI 1dbf0 .cfa: sp 0 +
STACK CFI 1dbf4 .cfa: x29 32 +
STACK CFI 1dc08 .cfa: sp 32 +
STACK CFI 1dc10 .cfa: sp 0 +
STACK CFI INIT 1dc14 64 .cfa: sp 0 +
STACK CFI 1dc18 .cfa: sp 32 +
STACK CFI 1dc20 .cfa: x29 32 + x19: .cfa -16 + ^ .ra: .cfa -24 + ^ x29: .cfa -32 + ^
STACK CFI 1dc4c .cfa: sp 32 +
STACK CFI 1dc54 .cfa: sp 0 +
STACK CFI 1dc58 .cfa: x29 32 +
STACK CFI 1dc6c .cfa: sp 32 +
STACK CFI 1dc74 .cfa: sp 0 +
STACK CFI INIT 1dc78 1b0 .cfa: sp 0 +
STACK CFI INIT 1de28 3c .cfa: sp 0 +
STACK CFI 1de2c .cfa: sp 32 +
STACK CFI 1de34 .cfa: x29 32 + x19: .cfa -16 + ^ .ra: .cfa -24 + ^ x29: .cfa -32 + ^
STACK CFI 1de40 .cfa: sp 32 +
STACK CFI 1de48 .cfa: sp 0 +
STACK CFI 1de4c .cfa: x29 32 +
STACK CFI 1de58 .cfa: sp 32 +
STACK CFI 1de60 .cfa: sp 0 +
STACK CFI INIT 1e180 64 .cfa: sp 0 +
STACK CFI 1e184 .cfa: sp 32 +
STACK CFI 1e18c .cfa: x29 32 + x19: .cfa -16 + ^ .ra: .cfa -24 + ^ x29: .cfa -32 + ^
STACK CFI 1e1b8 .cfa: sp 32 +
STACK CFI 1e1c0 .cfa: sp 0 +
STACK CFI 1e1c4 .cfa: x29 32 +
STACK CFI 1e1d8 .cfa: sp 32 +
STACK CFI 1e1e0 .cfa: sp 0 +
STACK CFI INIT 1e4ec 24 .cfa: sp 0 +
STACK CFI 1e4f0 .cfa: sp 32 +
STACK CFI 1e4f8 .cfa: x29 32 + x19: .cfa -16 + ^ .ra: .cfa -24 + ^ x29: .cfa -32 + ^
STACK CFI 1e504 .cfa: sp 32 +
STACK CFI 1e50c .cfa: sp 0 +
STACK CFI INIT 1e6a8 8 .cfa: sp 0 +
STACK CFI INIT 1e6b0 24 .cfa: sp 0 +
STACK CFI 1e6b4 .cfa: sp 32 +
STACK CFI 1e6bc .cfa: x29 32 + x19: .cfa -16 + ^ .ra: .cfa -24 + ^ x29: .cfa -32 + ^
STACK CFI 1e6c8 .cfa: sp 32 +
STACK CFI 1e6d0 .cfa: sp 0 +
STACK CFI INIT 1e6d4 28 .cfa: sp 0 +
STACK CFI 1e6d8 .cfa: sp 32 +
STACK CFI 1e6e0 .cfa: x29 32 + x19: .cfa -16 + ^ .ra: .cfa -24 + ^ x29: .cfa -32 + ^
STACK CFI 1e6f0 .cfa: sp 32 +
STACK CFI 1e6f8 .cfa: sp 0 +
STACK CFI INIT 1e6fc 24 .cfa: sp 0 +
STACK CFI 1e700 .cfa: sp 32 +
STACK CFI 1e708 .cfa: x29 32 + x19: .cfa -16 + ^ .ra: .cfa -24 + ^ x29: .cfa -32 + ^
STACK CFI 1e714 .cfa: sp 32 +
STACK CFI 1e71c .cfa: sp 0 +
STACK CFI INIT 1ec3c 4 .cfa: sp 0 +
STACK CFI INIT 1f588 4 .cfa: sp 0 +
STACK CFI INIT 1f58c 14 .cfa: sp 0 +
STACK CFI INIT 1fa80 110 .cfa: sp 0 +
STACK CFI INIT 1fb90 134 .cfa: sp 0 +
STACK CFI INIT 1fcc4 c .cfa: sp 0 +
STACK CFI INIT 1fcd0 24c .cfa: sp 0 +
STACK CFI INIT 1ff1c a0 .cfa: sp 0 +
STACK CFI 1ff28 .cfa: sp 32 +
STACK CFI 1ff80 .cfa: sp 0 +
STACK CFI 1ff84 .cfa: sp 32 +
STACK CFI 1ff8c .cfa: sp 0 +
STACK CFI 1ff90 .cfa: sp 32 +
STACK CFI 1ffa4 .cfa: sp 0 +
STACK CFI 1ffa8 .cfa: sp 32 +
STACK CFI 1ffb8 .cfa: sp 0 +
STACK CFI INIT 1ffbc 38 .cfa: sp 0 +
STACK CFI 1ffc8 .cfa: sp 32 +
STACK CFI 1fff0 .cfa: sp 0 +
STACK CFI INIT 20288 7c .cfa: sp 0 +
STACK CFI 2028c .cfa: sp 32 +
STACK CFI 20294 .cfa: x29 32 + x19: .cfa -16 + ^ .ra: .cfa -24 + ^ x29: .cfa -32 + ^
STACK CFI 202c0 .cfa: sp 32 +
STACK CFI 202c8 .cfa: sp 0 +
STACK CFI 202cc .cfa: x29 32 +
STACK CFI 202f8 .cfa: sp 32 +
STACK CFI 20300 .cfa: sp 0 +
STACK CFI INIT 20354 2c .cfa: sp 0 +
STACK CFI 20358 .cfa: sp 32 +
STACK CFI 20360 .cfa: x29 32 + x19: .cfa -16 + ^ .ra: .cfa -24 + ^ x29: .cfa -32 + ^
STACK CFI 20374 .cfa: sp 32 +
STACK CFI 2037c .cfa: sp 0 +
STACK CFI INIT 20b40 64 .cfa: sp 0 +
STACK CFI 20b44 .cfa: sp 32 +
STACK CFI 20b4c .cfa: x29 32 + x19: .cfa -16 + ^ .ra: .cfa -24 + ^ x29: .cfa -32 + ^
STACK CFI 20b68 .cfa: sp 32 +
STACK CFI 20b70 .cfa: sp 0 +
STACK CFI 20b74 .cfa: x29 32 +
STACK CFI 20b98 .cfa: sp 32 +
STACK CFI 20ba0 .cfa: sp 0 +
STACK CFI INIT 20ba4 570 .cfa: sp 0 +
STACK CFI 20ba8 .cfa: sp 176 +
STACK CFI 20bbc .cfa: x29 64 + x19: .cfa -8 + ^ x20: .cfa -16 + ^ x21: .cfa -24 + ^ x22: .cfa -32 + ^ x23: .cfa -40 + ^ x24: .cfa -48 + ^ .ra: .cfa -56 + ^ x29: .cfa -64 + ^
STACK CFI 20dec .cfa: sp 176 +
STACK CFI 20e00 .cfa: sp 0 +
STACK CFI 20e04 .cfa: x29 64 +
STACK CFI 20e50 .cfa: sp 176 +
STACK CFI 20e64 .cfa: sp 0 +
STACK CFI 20e68 .cfa: x29 64 +
STACK CFI 20ea0 .cfa: sp 176 +
STACK CFI 20eb4 .cfa: sp 0 +
STACK CFI 20eb8 .cfa: x29 64 +
STACK CFI 20ed0 .cfa: sp 176 +
STACK CFI 20ee4 .cfa: sp 0 +
STACK CFI 20ee8 .cfa: x29 64 +
STACK CFI 20f08 .cfa: sp 176 +
STACK CFI 20f1c .cfa: sp 0 +
STACK CFI 20f20 .cfa: x29 64 +
STACK CFI 20f38 .cfa: sp 176 +
STACK CFI 20f4c .cfa: sp 0 +
STACK CFI 20f50 .cfa: x29 64 +
STACK CFI 20f64 .cfa: sp 176 +
STACK CFI 20f78 .cfa: sp 0 +
STACK CFI 20f7c .cfa: x29 64 +
STACK CFI 20f90 .cfa: sp 176 +
STACK CFI 20fa4 .cfa: sp 0 +
STACK CFI 20fa8 .cfa: x29 64 +
STACK CFI 20fb8 .cfa: sp 176 +
STACK CFI 20fcc .cfa: sp 0 +
STACK CFI 20fd0 .cfa: x29 64 +
STACK CFI 20fe0 .cfa: sp 176 +
STACK CFI 20ff4 .cfa: sp 0 +
STACK CFI 20ff8 .cfa: x29 64 +
STACK CFI 21010 .cfa: sp 176 +
STACK CFI 21024 .cfa: sp 0 +
STACK CFI 21028 .cfa: x29 64 +
STACK CFI 2103c .cfa: sp 176 +
STACK CFI 21050 .cfa: sp 0 +
STACK CFI 21054 .cfa: x29 64 +
STACK CFI 2106c .cfa: sp 176 +
STACK CFI 21080 .cfa: sp 0 +
STACK CFI 21084 .cfa: x29 64 +
STACK CFI 210b0 .cfa: sp 176 +
STACK CFI 210c4 .cfa: sp 0 +
STACK CFI 210c8 .cfa: x29 64 +
STACK CFI 210dc .cfa: sp 176 +
STACK CFI 210f0 .cfa: sp 0 +
STACK CFI 210f4 .cfa: x29 64 +
STACK CFI INIT 21114 228 .cfa: sp 0 +
STACK CFI INIT 2133c 2dc .cfa: sp 0 +
STACK CFI INIT 21618 53c .cfa: sp 0 +
STACK CFI INIT 21b54 78 .cfa: sp 0 +
STACK CFI 21b58 .cfa: sp 48 +
STACK CFI 21b64 .cfa: x29 48 + x19: .cfa -8 + ^ x20: .cfa -16 + ^ x21: .cfa -24 + ^ x22: .cfa -32 + ^ .ra: .cfa -40 + ^ x29: .cfa -48 + ^
STACK CFI 21bac .cfa: sp 48 +
STACK CFI 21bb8 .cfa: sp 0 +
STACK CFI 21bbc .cfa: sp 48 +
STACK CFI 21bc8 .cfa: sp 0 +
STACK CFI INIT 21bcc 8c .cfa: sp 0 +
STACK CFI 21bd0 .cfa: sp 32 +
STACK CFI 21bd8 .cfa: x29 32 + x19: .cfa -16 + ^ .ra: .cfa -24 + ^ x29: .cfa -32 + ^
STACK CFI 21c0c .cfa: sp 32 +
STACK CFI 21c14 .cfa: sp 0 +
STACK CFI 21c18 .cfa: x29 32 +
STACK CFI 21c4c .cfa: sp 32 +
STACK CFI 21c54 .cfa: sp 0 +
STACK CFI INIT 21c58 24 .cfa: sp 0 +
STACK CFI 21c5c .cfa: sp 32 +
STACK CFI 21c64 .cfa: x29 32 + x19: .cfa -16 + ^ .ra: .cfa -24 + ^ x29: .cfa -32 + ^
STACK CFI 21c70 .cfa: sp 32 +
STACK CFI 21c78 .cfa: sp 0 +
STACK CFI INIT 21c7c 150 .cfa: sp 0 +
STACK CFI 21c80 .cfa: sp 48 +
STACK CFI 21c8c .cfa: x29 48 + x19: .cfa -8 + ^ x20: .cfa -16 + ^ x21: .cfa -24 + ^ x22: .cfa -32 + ^ .ra: .cfa -40 + ^ x29: .cfa -48 + ^
STACK CFI 21dbc .cfa: sp 48 +
STACK CFI 21dc8 .cfa: sp 0 +
STACK CFI INIT 21dcc 68 .cfa: sp 0 +
STACK CFI 21dd0 .cfa: sp 64 +
STACK CFI 21ddc .cfa: x29 32 + x19: .cfa -16 + ^ .ra: .cfa -24 + ^ x29: .cfa -32 + ^
STACK CFI 21e20 .cfa: sp 64 +
STACK CFI 21e2c .cfa: sp 0 +
STACK CFI 21e30 .cfa: x29 32 +
STACK CFI INIT 21e34 90 .cfa: sp 0 +
STACK CFI 21e38 .cfa: sp 32 +
STACK CFI 21e40 .cfa: x29 32 + x19: .cfa -8 + ^ x20: .cfa -16 + ^ .ra: .cfa -24 + ^ x29: .cfa -32 + ^
STACK CFI 21e6c .cfa: sp 32 +
STACK CFI 21e74 .cfa: sp 0 +
STACK CFI 21e78 .cfa: x29 32 +
STACK CFI 21eb8 .cfa: sp 32 +
STACK CFI 21ec0 .cfa: sp 0 +
STACK CFI INIT 21ec4 ec .cfa: sp 0 +
STACK CFI 21ec8 .cfa: sp 112 +
STACK CFI 21ed8 .cfa: x29 48 + x19: .cfa -8 + ^ x20: .cfa -16 + ^ x21: .cfa -32 + ^ .ra: .cfa -40 + ^ x29: .cfa -48 + ^
STACK CFI 21f98 .cfa: sp 112 +
STACK CFI 21fa8 .cfa: sp 0 +
STACK CFI 21fac .cfa: x29 48 +
STACK CFI INIT 21fb0 ec .cfa: sp 0 +
STACK CFI 21fb4 .cfa: sp 112 +
STACK CFI 21fc4 .cfa: x29 48 + x19: .cfa -8 + ^ x20: .cfa -16 + ^ x21: .cfa -32 + ^ .ra: .cfa -40 + ^ x29: .cfa -48 + ^
STACK CFI 22084 .cfa: sp 112 +
STACK CFI 22094 .cfa: sp 0 +
STACK CFI 22098 .cfa: x29 48 +
STACK CFI INIT 2209c 48 .cfa: sp 0 +
STACK CFI 220a0 .cfa: sp 32 +
STACK CFI 220a8 .cfa: x29 32 + x19: .cfa -8 + ^ x20: .cfa -16 + ^ .ra: .cfa -24 + ^ x29: .cfa -32 + ^
STACK CFI 220cc .cfa: sp 32 +
STACK CFI 220d4 .cfa: sp 0 +
STACK CFI 220d8 .cfa: x29 32 +
STACK CFI INIT 220e4 98 .cfa: sp 0 +
STACK CFI 220e8 .cfa: sp 80 +
STACK CFI 220f4 .cfa: x29 32 + x19: .cfa -16 + ^ .ra: .cfa -24 + ^ x29: .cfa -32 + ^
STACK CFI 22168 .cfa: sp 80 +
STACK CFI 22174 .cfa: sp 0 +
STACK CFI 22178 .cfa: x29 32 +
STACK CFI INIT 2217c 260 .cfa: sp 0 +
STACK CFI 22180 .cfa: sp 112 +
STACK CFI 22198 .cfa: x29 80 + x19: .cfa -8 + ^ x20: .cfa -16 + ^ x21: .cfa -24 + ^ x22: .cfa -32 + ^ x23: .cfa -40 + ^ x24: .cfa -48 + ^ x25: .cfa -64 + ^ .ra: .cfa -72 + ^ x29: .cfa -80 + ^
STACK CFI 2237c .cfa: sp 112 +
STACK CFI 22394 .cfa: sp 0 +
STACK CFI 22398 .cfa: x29 80 +
STACK CFI INIT 223dc 150 .cfa: sp 0 +
STACK CFI 223e0 .cfa: sp 48 +
STACK CFI 223ec .cfa: x29 48 + x19: .cfa -8 + ^ x20: .cfa -16 + ^ x21: .cfa -24 + ^ x22: .cfa -32 + ^ .ra: .cfa -40 + ^ x29: .cfa -48 + ^
STACK CFI 2251c .cfa: sp 48 +
STACK CFI 22528 .cfa: sp 0 +
STACK CFI INIT 2252c 1e0 .cfa: sp 0 +
STACK CFI 22530 .cfa: sp 96 +
STACK CFI 22544 .cfa: x29 64 + x19: .cfa -8 + ^ x20: .cfa -16 + ^ x21: .cfa -24 + ^ x22: .cfa -32 + ^ x23: .cfa -40 + ^ x24: .cfa -48 + ^ .ra: .cfa -56 + ^ x29: .cfa -64 + ^
STACK CFI 226c4 .cfa: sp 96 +
STACK CFI 226d8 .cfa: sp 0 +
STACK CFI 226dc .cfa: x29 64 +
STACK CFI INIT 2270c 284 .cfa: sp 0 +
STACK CFI 22710 .cfa: sp 112 +
STACK CFI 22728 .cfa: x29 80 + x19: .cfa -8 + ^ x20: .cfa -16 + ^ x21: .cfa -24 + ^ x22: .cfa -32 + ^ x23: .cfa -40 + ^ x24: .cfa -48 + ^ x25: .cfa -64 + ^ .ra: .cfa -72 + ^ x29: .cfa -80 + ^
STACK CFI 22930 .cfa: sp 112 +
STACK CFI 22948 .cfa: sp 0 +
STACK CFI 2294c .cfa: x29 80 +
STACK CFI INIT 22990 208 .cfa: sp 0 +
STACK CFI 22994 .cfa: sp 96 +
STACK CFI 229a8 .cfa: x29 64 + x19: .cfa -8 + ^ x20: .cfa -16 + ^ x21: .cfa -24 + ^ x22: .cfa -32 + ^ x23: .cfa -40 + ^ x24: .cfa -48 + ^ .ra: .cfa -56 + ^ x29: .cfa -64 + ^
STACK CFI 22b50 .cfa: sp 96 +
STACK CFI 22b64 .cfa: sp 0 +
STACK CFI 22b68 .cfa: x29 64 +
STACK CFI INIT 22b98 360 .cfa: sp 0 +
STACK CFI 22b9c .cfa: sp 160 +
STACK CFI 22bb8 .cfa: x29 96 + x19: .cfa -8 + ^ x20: .cfa -16 + ^ x21: .cfa -24 + ^ x22: .cfa -32 + ^ x23: .cfa -40 + ^ x24: .cfa -48 + ^ x25: .cfa -56 + ^ x26: .cfa -64 + ^ x27: .cfa -72 + ^ x28: .cfa -80 + ^ .ra: .cfa -88 + ^ x29: .cfa -96 + ^
STACK CFI 22e84 .cfa: sp 160 +
STACK CFI 22ea0 .cfa: sp 0 +
STACK CFI 22ea4 .cfa: x29 96 +
STACK CFI INIT 22ef8 314 .cfa: sp 0 +
STACK CFI 22efc .cfa: sp 144 +
STACK CFI 22f18 .cfa: x29 96 + x19: .cfa -8 + ^ x20: .cfa -16 + ^ x21: .cfa -24 + ^ x22: .cfa -32 + ^ x23: .cfa -40 + ^ x24: .cfa -48 + ^ x25: .cfa -56 + ^ x26: .cfa -64 + ^ x27: .cfa -72 + ^ x28: .cfa -80 + ^ .ra: .cfa -88 + ^ x29: .cfa -96 + ^
STACK CFI 23194 .cfa: sp 144 +
STACK CFI 231b0 .cfa: sp 0 +
STACK CFI 231b4 .cfa: x29 96 +
STACK CFI INIT 2320c 290 .cfa: sp 0 +
STACK CFI 23210 .cfa: sp 128 +
STACK CFI 23228 .cfa: x29 80 + x19: .cfa -8 + ^ x20: .cfa -16 + ^ x21: .cfa -24 + ^ x22: .cfa -32 + ^ x23: .cfa -40 + ^ x24: .cfa -48 + ^ x25: .cfa -56 + ^ x26: .cfa -64 + ^ .ra: .cfa -72 + ^ x29: .cfa -80 + ^
STACK CFI 2347c .cfa: sp 128 +
STACK CFI 23494 .cfa: sp 0 +
STACK CFI 23498 .cfa: x29 80 +
STACK CFI INIT 2349c ddc .cfa: sp 0 +
STACK CFI 234a0 .cfa: sp 144 +
STACK CFI 234bc .cfa: x29 96 + x19: .cfa -8 + ^ x20: .cfa -16 + ^ x21: .cfa -24 + ^ x22: .cfa -32 + ^ x23: .cfa -40 + ^ x24: .cfa -48 + ^ x25: .cfa -56 + ^ x26: .cfa -64 + ^ x27: .cfa -72 + ^ x28: .cfa -80 + ^ .ra: .cfa -88 + ^ x29: .cfa -96 + ^
STACK CFI 24150 .cfa: sp 144 +
STACK CFI 2416c .cfa: sp 0 +
STACK CFI 24170 .cfa: x29 96 +
STACK CFI INIT 24278 1d0 .cfa: sp 0 +
STACK CFI 2427c .cfa: sp 80 +
STACK CFI 24290 .cfa: x29 80 + x19: .cfa -8 + ^ x20: .cfa -16 + ^ x21: .cfa -24 + ^ x22: .cfa -32 + ^ x23: .cfa -40 + ^ x24: .cfa -48 + ^ x25: .cfa -64 + ^ .ra: .cfa -72 + ^ x29: .cfa -80 + ^
STACK CFI 24430 .cfa: sp 80 +
STACK CFI 24444 .cfa: sp 0 +
STACK CFI INIT 24448 23c .cfa: sp 0 +
STACK CFI 2444c .cfa: sp 112 +
STACK CFI 24460 .cfa: x29 64 + x19: .cfa -8 + ^ x20: .cfa -16 + ^ x21: .cfa -24 + ^ x22: .cfa -32 + ^ x23: .cfa -40 + ^ x24: .cfa -48 + ^ .ra: .cfa -56 + ^ x29: .cfa -64 + ^
STACK CFI 2463c .cfa: sp 112 +
STACK CFI 24650 .cfa: sp 0 +
STACK CFI 24654 .cfa: x29 64 +
STACK CFI INIT 24684 30c .cfa: sp 0 +
STACK CFI 24688 .cfa: sp 80 +
STACK CFI 2469c .cfa: x29 64 + x19: .cfa -8 + ^ x20: .cfa -16 + ^ x21: .cfa -24 + ^ x22: .cfa -32 + ^ x23: .cfa -40 + ^ x24: .cfa -48 + ^ .ra: .cfa -56 + ^ x29: .cfa -64 + ^
STACK CFI 24818 .cfa: sp 80 +
STACK CFI 2482c .cfa: sp 0 +
STACK CFI 24830 .cfa: x29 64 +
STACK CFI INIT 24990 178 .cfa: sp 0 +
STACK CFI 24994 .cfa: sp 80 +
STACK CFI 249a8 .cfa: x29 64 + x19: .cfa -8 + ^ x20: .cfa -16 + ^ x21: .cfa -24 + ^ x22: .cfa -32 + ^ x23: .cfa -40 + ^ x24: .cfa -48 + ^ .ra: .cfa -56 + ^ x29: .cfa -64 + ^
STACK CFI 24aec .cfa: sp 80 +
STACK CFI 24b00 .cfa: sp 0 +
STACK CFI 24b04 .cfa: x29 64 +
STACK CFI INIT 24b08 178 .cfa: sp 0 +
STACK CFI 24b0c .cfa: sp 80 +
STACK CFI 24b20 .cfa: x29 64 + x19: .cfa -8 + ^ x20: .cfa -16 + ^ x21: .cfa -24 + ^ x22: .cfa -32 + ^ x23: .cfa -40 + ^ x24: .cfa -48 + ^ .ra: .cfa -56 + ^ x29: .cfa -64 + ^
STACK CFI 24c64 .cfa: sp 80 +
STACK CFI 24c78 .cfa: sp 0 +
STACK CFI 24c7c .cfa: x29 64 +
STACK CFI INIT 24c80 240 .cfa: sp 0 +
STACK CFI 24c84 .cfa: sp 96 +
STACK CFI 24c9c .cfa: x29 96 + x19: .cfa -8 + ^ x20: .cfa -16 + ^ x21: .cfa -24 + ^ x22: .cfa -32 + ^ x23: .cfa -40 + ^ x24: .cfa -48 + ^ x25: .cfa -56 + ^ x26: .cfa -64 + ^ x27: .cfa -72 + ^ x28: .cfa -80 + ^ .ra: .cfa -88 + ^ x29: .cfa -96 + ^
STACK CFI 24ea4 .cfa: sp 96 +
STACK CFI 24ebc .cfa: sp 0 +
STACK CFI INIT 25b34 154 .cfa: sp 0 +
STACK CFI 25b38 .cfa: sp 96 +
STACK CFI 25b4c .cfa: x29 64 + x19: .cfa -8 + ^ x20: .cfa -16 + ^ x21: .cfa -24 + ^ x22: .cfa -32 + ^ x23: .cfa -48 + ^ .ra: .cfa -56 + ^ x29: .cfa -64 + ^
STACK CFI 25c2c .cfa: sp 96 +
STACK CFI 25c40 .cfa: sp 0 +
STACK CFI 25c44 .cfa: x29 64 +
STACK CFI INIT 25ef4 44 .cfa: sp 0 +
STACK CFI 25ef8 .cfa: sp 32 +
STACK CFI 25f00 .cfa: x29 32 + x19: .cfa -16 + ^ .ra: .cfa -24 + ^ x29: .cfa -32 + ^
STACK CFI 25f1c .cfa: sp 32 +
STACK CFI 25f24 .cfa: sp 0 +
STACK CFI 25f28 .cfa: x29 32 +
STACK CFI 25f2c .cfa: sp 32 +
STACK CFI 25f34 .cfa: sp 0 +
STACK CFI INIT 25f38 1d0 .cfa: sp 0 +
STACK CFI 25f3c .cfa: sp 64 +
STACK CFI 25f4c .cfa: x29 64 + x19: .cfa -8 + ^ x20: .cfa -16 + ^ x21: .cfa -24 + ^ x22: .cfa -32 + ^ x23: .cfa -40 + ^ x24: .cfa -48 + ^ .ra: .cfa -56 + ^ x29: .cfa -64 + ^
STACK CFI 2600c .cfa: sp 64 +
STACK CFI 2601c .cfa: sp 0 +
STACK CFI 26020 .cfa: x29 64 +
STACK CFI INIT 26108 17c .cfa: sp 0 +
STACK CFI INIT 2663c a0 .cfa: sp 0 +
STACK CFI 26640 .cfa: sp 48 +
STACK CFI 2664c .cfa: x29 48 + x19: .cfa -8 + ^ x20: .cfa -16 + ^ x21: .cfa -24 + ^ x22: .cfa -32 + ^ .ra: .cfa -40 + ^ x29: .cfa -48 + ^
STACK CFI 266b8 .cfa: sp 48 +
STACK CFI 266c4 .cfa: sp 0 +
STACK CFI 266c8 .cfa: sp 48 +
STACK CFI 266d4 .cfa: sp 0 +
STACK CFI 266d8 .cfa: x29 48 +
STACK CFI INIT 27390 158 .cfa: sp 0 +
STACK CFI 27394 .cfa: sp 96 +
STACK CFI 273a8 .cfa: x29 64 + x19: .cfa -8 + ^ x20: .cfa -16 + ^ x21: .cfa -24 + ^ x22: .cfa -32 + ^ x23: .cfa -48 + ^ .ra: .cfa -56 + ^ x29: .cfa -64 + ^
STACK CFI 2748c .cfa: sp 96 +
STACK CFI 274a0 .cfa: sp 0 +
STACK CFI 274a4 .cfa: x29 64 +
STACK CFI INIT 274e8 190 .cfa: sp 0 +
STACK CFI INIT 28174 1dc .cfa: sp 0 +
STACK CFI 28178 .cfa: sp 80 +
STACK CFI 2818c .cfa: x29 80 + x19: .cfa -8 + ^ x20: .cfa -16 + ^ x21: .cfa -24 + ^ x22: .cfa -32 + ^ x23: .cfa -40 + ^ x24: .cfa -48 + ^ x25: .cfa -64 + ^ .ra: .cfa -72 + ^ x29: .cfa -80 + ^
STACK CFI 28338 .cfa: sp 80 +
STACK CFI 2834c .cfa: sp 0 +
STACK CFI INIT 29780 124 .cfa: sp 0 +
STACK CFI 297b0 .cfa: sp 32 +
STACK CFI 297b8 .cfa: x29 32 + x19: .cfa -8 + ^ x20: .cfa -16 + ^ .ra: .cfa -24 + ^ x29: .cfa -32 + ^
STACK CFI 29898 .cfa: sp 32 +
STACK CFI 298a0 .cfa: sp 0 +
STACK CFI INIT 2a000 320 .cfa: sp 0 +
STACK CFI 2a004 .cfa: sp 64 +
STACK CFI 2a014 .cfa: x29 64 + x19: .cfa -8 + ^ x20: .cfa -16 + ^ x21: .cfa -24 + ^ x22: .cfa -32 + ^ x23: .cfa -40 + ^ x24: .cfa -48 + ^ .ra: .cfa -56 + ^ x29: .cfa -64 + ^
STACK CFI 2a090 .cfa: sp 64 +
STACK CFI 2a0a0 .cfa: sp 0 +
STACK CFI 2a0a4 .cfa: x29 64 +
STACK CFI 2a278 .cfa: sp 64 +
STACK CFI 2a288 .cfa: sp 0 +
STACK CFI 2a28c .cfa: x29 64 +
STACK CFI 2a29c .cfa: sp 64 +
STACK CFI 2a2ac .cfa: sp 0 +
STACK CFI 2a2b0 .cfa: x29 64 +
STACK CFI INIT 2a320 a0 .cfa: sp 0 +
STACK CFI 2a324 .cfa: sp 48 +
STACK CFI 2a330 .cfa: x29 48 + x19: .cfa -8 + ^ x20: .cfa -16 + ^ x21: .cfa -24 + ^ x22: .cfa -32 + ^ .ra: .cfa -40 + ^ x29: .cfa -48 + ^
STACK CFI 2a39c .cfa: sp 48 +
STACK CFI 2a3a8 .cfa: sp 0 +
STACK CFI 2a3ac .cfa: sp 48 +
STACK CFI 2a3b8 .cfa: sp 0 +
STACK CFI 2a3bc .cfa: x29 48 +
STACK CFI INIT 2b270 160 .cfa: sp 0 +
STACK CFI 2b274 .cfa: sp 64 +
STACK CFI 2b284 .cfa: x29 64 + x19: .cfa -8 + ^ x20: .cfa -16 + ^ x21: .cfa -24 + ^ x22: .cfa -32 + ^ x23: .cfa -48 + ^ .ra: .cfa -56 + ^ x29: .cfa -64 + ^
STACK CFI 2b37c .cfa: sp 64 +
STACK CFI 2b38c .cfa: sp 0 +
STACK CFI 2b390 .cfa: x29 64 +
STACK CFI INIT 2b3d0 214 .cfa: sp 0 +
STACK CFI 2b3d4 .cfa: sp 128 +
STACK CFI 2b3f0 .cfa: x29 96 + x19: .cfa -8 + ^ x20: .cfa -16 + ^ x21: .cfa -24 + ^ x22: .cfa -32 + ^ x23: .cfa -40 + ^ x24: .cfa -48 + ^ x25: .cfa -56 + ^ x26: .cfa -64 + ^ x27: .cfa -80 + ^ .ra: .cfa -88 + ^ x29: .cfa -96 + ^
STACK CFI 2b56c .cfa: sp 128 +
STACK CFI 2b588 .cfa: sp 0 +
STACK CFI 2b58c .cfa: x29 96 +
STACK CFI INIT 2d280 290 .cfa: sp 0 +
STACK CFI 2d284 .cfa: sp 16 +
STACK CFI 2d288 .cfa: x29 16 + .ra: .cfa -8 + ^ x29: .cfa -16 + ^
STACK CFI 2d314 .cfa: sp 16 +
STACK CFI 2d318 .cfa: sp 0 +
STACK CFI 2d31c .cfa: x29 16 +
STACK CFI 2d36c .cfa: sp 16 +
STACK CFI 2d370 .cfa: sp 0 +
STACK CFI 2d374 .cfa: x29 16 +
STACK CFI 2d4d8 .cfa: sp 16 +
STACK CFI 2d4dc .cfa: sp 0 +
STACK CFI 2d4e0 .cfa: x29 16 +
STACK CFI INIT 2d510 158 .cfa: sp 0 +
STACK CFI 2d514 .cfa: sp 112 +
STACK CFI 2d530 .cfa: x29 96 + x19: .cfa -8 + ^ x20: .cfa -16 + ^ x21: .cfa -24 + ^ x22: .cfa -32 + ^ x23: .cfa -40 + ^ x24: .cfa -48 + ^ x25: .cfa -56 + ^ x26: .cfa -64 + ^ x27: .cfa -72 + ^ x28: .cfa -80 + ^ .ra: .cfa -88 + ^ x29: .cfa -96 + ^
STACK CFI 2d618 .cfa: sp 112 +
STACK CFI 2d61c .cfa: x29 96 +
STACK CFI 2d624 .cfa: sp 112 +
STACK CFI 2d640 .cfa: sp 0 +
STACK CFI 2d644 .cfa: x29 96 +
STACK CFI 2d664 .cfa: sp 112 +
STACK CFI INIT 2d668 e54 .cfa: sp 0 +
STACK CFI 2d66c .cfa: sp 192 +
STACK CFI 2d688 .cfa: x29 96 + x19: .cfa -8 + ^ x20: .cfa -16 + ^ x21: .cfa -24 + ^ x22: .cfa -32 + ^ x23: .cfa -40 + ^ x24: .cfa -48 + ^ x25: .cfa -56 + ^ x26: .cfa -64 + ^ x27: .cfa -72 + ^ x28: .cfa -80 + ^ .ra: .cfa -88 + ^ x29: .cfa -96 + ^
STACK CFI 2e3a4 .cfa: sp 192 +
STACK CFI 2e3c0 .cfa: sp 0 +
STACK CFI 2e3c4 .cfa: x29 96 +
STACK CFI INIT 2e4bc 1068 .cfa: sp 0 +
STACK CFI 2e4c0 .cfa: sp 288 +
STACK CFI 2e4dc .cfa: x29 96 + x19: .cfa -8 + ^ x20: .cfa -16 + ^ x21: .cfa -24 + ^ x22: .cfa -32 + ^ x23: .cfa -40 + ^ x24: .cfa -48 + ^ x25: .cfa -56 + ^ x26: .cfa -64 + ^ x27: .cfa -72 + ^ x28: .cfa -80 + ^ .ra: .cfa -88 + ^ x29: .cfa -96 + ^
STACK CFI 2f26c .cfa: sp 288 +
STACK CFI 2f288 .cfa: sp 0 +
STACK CFI 2f28c .cfa: x29 96 +
STACK CFI INIT 2f524 520 .cfa: sp 0 +
STACK CFI 2f528 .cfa: sp 144 +
STACK CFI 2f544 .cfa: x29 96 + x19: .cfa -8 + ^ x20: .cfa -16 + ^ x21: .cfa -24 + ^ x22: .cfa -32 + ^ x23: .cfa -40 + ^ x24: .cfa -48 + ^ x25: .cfa -56 + ^ x26: .cfa -64 + ^ x27: .cfa -72 + ^ x28: .cfa -80 + ^ .ra: .cfa -88 + ^ x29: .cfa -96 + ^
STACK CFI 2fa20 .cfa: sp 144 +
STACK CFI 2fa3c .cfa: sp 0 +
STACK CFI 2fa40 .cfa: x29 96 +
STACK CFI INIT 303e4 136c .cfa: sp 0 +
STACK CFI 303e8 .cfa: sp 224 +
STACK CFI 30404 .cfa: x29 96 + x19: .cfa -8 + ^ x20: .cfa -16 + ^ x21: .cfa -24 + ^ x22: .cfa -32 + ^ x23: .cfa -40 + ^ x24: .cfa -48 + ^ x25: .cfa -56 + ^ x26: .cfa -64 + ^ x27: .cfa -72 + ^ x28: .cfa -80 + ^ .ra: .cfa -88 + ^ x29: .cfa -96 + ^
STACK CFI 3172c .cfa: sp 224 +
STACK CFI 31748 .cfa: sp 0 +
STACK CFI 3174c .cfa: x29 96 +
STACK CFI INIT 31750 1b8 .cfa: sp 0 +
STACK CFI INIT 16684 dfc .cfa: sp 0 +
STACK CFI 16688 .cfa: sp 96 +
STACK CFI 166a4 .cfa: x29 88 + x19: .cfa -8 + ^ x20: .cfa -16 + ^ x21: .cfa -24 + ^ x22: .cfa -32 + ^ x23: .cfa -40 + ^ x24: .cfa -48 + ^ x25: .cfa -56 + ^ x26: .cfa -64 + ^ x28: .cfa -72 + ^ .ra: .cfa -80 + ^ x29: .cfa -88 + ^ v8: .cfa -96 + ^
STACK CFI 172f8 .cfa: sp 96 +
STACK CFI 17314 .cfa: sp 0 +
STACK CFI 17318 .cfa: x29 88 +
STACK CFI INIT 17480 588 .cfa: sp 0 +
STACK CFI 17484 .cfa: sp 448 +
STACK CFI 174a0 .cfa: x29 96 + x19: .cfa -8 + ^ x20: .cfa -16 + ^ x21: .cfa -24 + ^ x22: .cfa -32 + ^ x23: .cfa -40 + ^ x24: .cfa -48 + ^ x25: .cfa -56 + ^ x26: .cfa -64 + ^ x27: .cfa -72 + ^ x28: .cfa -80 + ^ .ra: .cfa -88 + ^ x29: .cfa -96 + ^
STACK CFI 17920 .cfa: sp 448 +
STACK CFI 1793c .cfa: sp 0 +
STACK CFI 17940 .cfa: x29 96 +
STACK CFI INIT 17b28 50 .cfa: sp 0 +
STACK CFI 17b2c .cfa: sp 32 +
STACK CFI 17b34 .cfa: x29 32 + x19: .cfa -8 + ^ x20: .cfa -16 + ^ .ra: .cfa -24 + ^ x29: .cfa -32 + ^
STACK CFI INIT 17c5c 228 .cfa: sp 0 +
STACK CFI 17c60 .cfa: sp 128 +
STACK CFI 17c78 .cfa: x29 80 + x19: .cfa -8 + ^ x20: .cfa -16 + ^ x21: .cfa -24 + ^ x22: .cfa -32 + ^ x23: .cfa -40 + ^ x24: .cfa -48 + ^ x25: .cfa -64 + ^ .ra: .cfa -72 + ^ x29: .cfa -80 + ^
STACK CFI 17e14 .cfa: sp 128 +
STACK CFI 17e2c .cfa: sp 0 +
STACK CFI 17e30 .cfa: x29 80 +
STACK CFI INIT 18224 1888 .cfa: sp 0 +
STACK CFI 18228 .cfa: sp 112 +
STACK CFI 18244 .cfa: x29 96 + x19: .cfa -8 + ^ x20: .cfa -16 + ^ x21: .cfa -24 + ^ x22: .cfa -32 + ^ x23: .cfa -40 + ^ x24: .cfa -48 + ^ x25: .cfa -56 + ^ x26: .cfa -64 + ^ x27: .cfa -72 + ^ x28: .cfa -80 + ^ .ra: .cfa -88 + ^ x29: .cfa -96 + ^ v8: .cfa -104 + ^ v9: .cfa -112 + ^
STACK CFI 1955c .cfa: sp 112 +
STACK CFI 19578 .cfa: sp 0 +
STACK CFI 1957c .cfa: x29 96 +
STACK CFI INIT 19aec 58c .cfa: sp 0 +
STACK CFI 19af0 .cfa: sp 176 +
STACK CFI 19b10 .cfa: x29 96 + x19: .cfa -8 + ^ x20: .cfa -16 + ^ x21: .cfa -24 + ^ x22: .cfa -32 + ^ x23: .cfa -40 + ^ x24: .cfa -48 + ^ x25: .cfa -56 + ^ x26: .cfa -64 + ^ x27: .cfa -72 + ^ x28: .cfa -80 + ^ .ra: .cfa -88 + ^ x29: .cfa -96 + ^ v8: .cfa -112 + ^
STACK CFI 19fa4 .cfa: sp 176 +
STACK CFI 19fc4 .cfa: sp 0 +
STACK CFI 19fc8 .cfa: x29 96 +
STACK CFI INIT 1a078 5a4 .cfa: sp 0 +
STACK CFI 1a07c .cfa: sp 208 +
STACK CFI 1a09c .cfa: x29 96 + x19: .cfa -8 + ^ x20: .cfa -16 + ^ x21: .cfa -24 + ^ x22: .cfa -32 + ^ x23: .cfa -40 + ^ x24: .cfa -48 + ^ x25: .cfa -56 + ^ x26: .cfa -64 + ^ x27: .cfa -72 + ^ x28: .cfa -80 + ^ .ra: .cfa -88 + ^ x29: .cfa -96 + ^ v8: .cfa -112 + ^
STACK CFI 1a56c .cfa: sp 208 +
STACK CFI 1a58c .cfa: sp 0 +
STACK CFI 1a590 .cfa: x29 96 +
STACK CFI INIT 1a61c 460 .cfa: sp 0 +
STACK CFI 1a620 .cfa: sp 192 +
STACK CFI 1a634 .cfa: x29 64 + x19: .cfa -8 + ^ x20: .cfa -16 + ^ x21: .cfa -24 + ^ x22: .cfa -32 + ^ x23: .cfa -40 + ^ x24: .cfa -48 + ^ .ra: .cfa -56 + ^ x29: .cfa -64 + ^
STACK CFI 1aa0c .cfa: sp 192 +
STACK CFI 1aa20 .cfa: sp 0 +
STACK CFI 1aa24 .cfa: x29 64 +
STACK CFI INIT 1aafc 940 .cfa: sp 0 +
STACK CFI 1ab00 .cfa: sp 352 +
STACK CFI 1ab10 .cfa: x29 48 + x19: .cfa -8 + ^ x20: .cfa -16 + ^ x21: .cfa -24 + ^ x28: .cfa -32 + ^ .ra: .cfa -40 + ^ x29: .cfa -48 + ^
STACK CFI 1afec .cfa: sp 352 +
STACK CFI 1affc .cfa: sp 0 +
STACK CFI 1b000 .cfa: x29 48 +
STACK CFI INIT 1b6d8 16c .cfa: sp 0 +
STACK CFI 1b6dc .cfa: sp 144 +
STACK CFI 1b6f0 .cfa: x29 64 + x19: .cfa -8 + ^ x20: .cfa -16 + ^ x21: .cfa -24 + ^ x22: .cfa -32 + ^ x23: .cfa -40 + ^ x24: .cfa -48 + ^ .ra: .cfa -56 + ^ x29: .cfa -64 + ^
STACK CFI 1b7d8 .cfa: sp 144 +
STACK CFI 1b7ec .cfa: sp 0 +
STACK CFI 1b7f0 .cfa: x29 64 +
STACK CFI INIT 1ba54 158 .cfa: sp 0 +
STACK CFI 1ba58 .cfa: sp 144 +
STACK CFI 1ba6c .cfa: x29 64 + x19: .cfa -8 + ^ x20: .cfa -16 + ^ x21: .cfa -24 + ^ x22: .cfa -32 + ^ x23: .cfa -40 + ^ x24: .cfa -48 + ^ .ra: .cfa -56 + ^ x29: .cfa -64 + ^
STACK CFI 1bb40 .cfa: sp 144 +
STACK CFI 1bb54 .cfa: sp 0 +
STACK CFI 1bb58 .cfa: x29 64 +
STACK CFI INIT 1bd84 94 .cfa: sp 0 +
STACK CFI 1bd88 .cfa: sp 32 +
STACK CFI 1bd90 .cfa: x29 32 + x19: .cfa -8 + ^ x20: .cfa -16 + ^ .ra: .cfa -24 + ^ x29: .cfa -32 + ^
STACK CFI 1bdd8 .cfa: sp 32 +
STACK CFI 1bde0 .cfa: sp 0 +
STACK CFI 1bde4 .cfa: x29 32 +
STACK CFI 1bdf8 .cfa: sp 32 +
STACK CFI 1be00 .cfa: sp 0 +
STACK CFI 1be04 .cfa: x29 32 +
STACK CFI INIT 1c01c 310 .cfa: sp 0 +
STACK CFI 1c020 .cfa: sp 96 +
STACK CFI 1c03c .cfa: x29 88 + x19: .cfa -8 + ^ x20: .cfa -16 + ^ x21: .cfa -24 + ^ x22: .cfa -32 + ^ x23: .cfa -40 + ^ x24: .cfa -48 + ^ x25: .cfa -56 + ^ x26: .cfa -64 + ^ x28: .cfa -72 + ^ .ra: .cfa -80 + ^ x29: .cfa -88 + ^ v8: .cfa -96 + ^
STACK CFI 1c260 .cfa: sp 96 +
STACK CFI 1c27c .cfa: sp 0 +
STACK CFI 1c280 .cfa: x29 88 +
STACK CFI INIT 1c354 9e8 .cfa: sp 0 +
STACK CFI 1c358 .cfa: sp 224 +
STACK CFI 1c374 .cfa: x29 96 + x19: .cfa -8 + ^ x20: .cfa -16 + ^ x21: .cfa -24 + ^ x22: .cfa -32 + ^ x23: .cfa -40 + ^ x24: .cfa -48 + ^ x25: .cfa -56 + ^ x26: .cfa -64 + ^ x27: .cfa -72 + ^ x28: .cfa -80 + ^ .ra: .cfa -88 + ^ x29: .cfa -96 + ^
STACK CFI 1cc28 .cfa: sp 224 +
STACK CFI 1cc44 .cfa: sp 0 +
STACK CFI 1cc48 .cfa: x29 96 +
STACK CFI INIT 1cd54 488 .cfa: sp 0 +
STACK CFI 1cd58 .cfa: sp 304 +
STACK CFI 1cd74 .cfa: x29 96 + x19: .cfa -8 + ^ x20: .cfa -16 + ^ x21: .cfa -24 + ^ x22: .cfa -32 + ^ x23: .cfa -40 + ^ x24: .cfa -48 + ^ x25: .cfa -56 + ^ x26: .cfa -64 + ^ x27: .cfa -72 + ^ x28: .cfa -80 + ^ .ra: .cfa -88 + ^ x29: .cfa -96 + ^
STACK CFI 1d09c .cfa: sp 304 +
STACK CFI 1d0b8 .cfa: sp 0 +
STACK CFI 1d0bc .cfa: x29 96 +
STACK CFI INIT 1d22c 74 .cfa: sp 0 +
STACK CFI 1d230 .cfa: sp 48 +
STACK CFI 1d23c .cfa: x29 32 + x19: .cfa -8 + ^ x20: .cfa -16 + ^ .ra: .cfa -24 + ^ x29: .cfa -32 + ^
STACK CFI 1d288 .cfa: sp 48 +
STACK CFI 1d294 .cfa: sp 0 +
STACK CFI 1d298 .cfa: x29 32 +
STACK CFI INIT 1d2a4 154 .cfa: sp 0 +
STACK CFI 1d2a8 .cfa: sp 384 +
STACK CFI 1d2bc .cfa: x29 64 + x19: .cfa -8 + ^ x20: .cfa -16 + ^ x21: .cfa -24 + ^ x22: .cfa -32 + ^ x23: .cfa -40 + ^ x28: .cfa -48 + ^ .ra: .cfa -56 + ^ x29: .cfa -64 + ^
STACK CFI 1d3a0 .cfa: sp 384 +
STACK CFI 1d3b4 .cfa: sp 0 +
STACK CFI 1d3b8 .cfa: x29 64 +
STACK CFI INIT 1d42c 12c .cfa: sp 0 +
STACK CFI 1d430 .cfa: sp 80 +
STACK CFI 1d444 .cfa: x29 80 + x19: .cfa -8 + ^ x20: .cfa -16 + ^ x21: .cfa -24 + ^ x22: .cfa -32 + ^ x23: .cfa -40 + ^ x24: .cfa -48 + ^ x25: .cfa -56 + ^ x26: .cfa -64 + ^ .ra: .cfa -72 + ^ x29: .cfa -80 + ^
STACK CFI 1d50c .cfa: sp 80 +
STACK CFI 1d520 .cfa: sp 0 +
STACK CFI 1d524 .cfa: x29 80 +
STACK CFI INIT 1d57c 1a4 .cfa: sp 0 +
STACK CFI 1d580 .cfa: sp 112 +
STACK CFI 1d598 .cfa: x29 80 + x19: .cfa -8 + ^ x20: .cfa -16 + ^ x21: .cfa -24 + ^ x22: .cfa -32 + ^ x23: .cfa -40 + ^ x24: .cfa -48 + ^ x25: .cfa -56 + ^ x26: .cfa -64 + ^ .ra: .cfa -72 + ^ x29: .cfa -80 + ^
STACK CFI 1d688 .cfa: sp 112 +
STACK CFI 1d6a0 .cfa: sp 0 +
STACK CFI 1d6a4 .cfa: x29 80 +
STACK CFI INIT 1d720 1dc .cfa: sp 0 +
STACK CFI 1d724 .cfa: sp 128 +
STACK CFI 1d740 .cfa: x29 96 + x19: .cfa -8 + ^ x20: .cfa -16 + ^ x21: .cfa -24 + ^ x22: .cfa -32 + ^ x23: .cfa -40 + ^ x24: .cfa -48 + ^ x25: .cfa -56 + ^ x26: .cfa -64 + ^ x27: .cfa -80 + ^ .ra: .cfa -88 + ^ x29: .cfa -96 + ^
STACK CFI 1d8ac .cfa: sp 128 +
STACK CFI 1d8c8 .cfa: sp 0 +
STACK CFI 1d8cc .cfa: x29 96 +
STACK CFI INIT 1d8fc 178 .cfa: sp 0 +
STACK CFI 1d900 .cfa: sp 80 +
STACK CFI 1d914 .cfa: x29 80 + x19: .cfa -8 + ^ x20: .cfa -16 + ^ x21: .cfa -24 + ^ x22: .cfa -32 + ^ x23: .cfa -40 + ^ x24: .cfa -48 + ^ x25: .cfa -64 + ^ .ra: .cfa -72 + ^ x29: .cfa -80 + ^
STACK CFI 1da40 .cfa: sp 80 +
STACK CFI 1da54 .cfa: sp 0 +
STACK CFI 1da58 .cfa: x29 80 +
STACK CFI INIT 1db10 b4 .cfa: sp 0 +
STACK CFI 1db14 .cfa: sp 32 +
STACK CFI 1db1c .cfa: x29 32 + x19: .cfa -8 + ^ x20: .cfa -16 + ^ .ra: .cfa -24 + ^ x29: .cfa -32 + ^
STACK CFI 1dba4 .cfa: sp 32 +
STACK CFI 1dbac .cfa: sp 0 +
STACK CFI 1dbb0 .cfa: x29 32 +
STACK CFI INIT 1de64 fc .cfa: sp 0 +
STACK CFI 1de68 .cfa: sp 96 +
STACK CFI 1de78 .cfa: x29 48 + x19: .cfa -8 + ^ x20: .cfa -16 + ^ x21: .cfa -32 + ^ .ra: .cfa -40 + ^ x29: .cfa -48 + ^
STACK CFI 1def0 .cfa: sp 96 +
STACK CFI 1df00 .cfa: sp 0 +
STACK CFI 1df04 .cfa: x29 48 +
STACK CFI INIT 1df60 134 .cfa: sp 0 +
STACK CFI 1df64 .cfa: sp 80 +
STACK CFI 1df70 .cfa: x29 32 + x19: .cfa -8 + ^ x20: .cfa -16 + ^ .ra: .cfa -24 + ^ x29: .cfa -32 + ^
STACK CFI 1dfa0 .cfa: sp 80 +
STACK CFI 1dfac .cfa: sp 0 +
STACK CFI 1dfb0 .cfa: x29 32 +
STACK CFI INIT 1e094 78 .cfa: sp 0 +
STACK CFI 1e098 .cfa: sp 32 +
STACK CFI 1e0a0 .cfa: x29 32 + x19: .cfa -8 + ^ x20: .cfa -16 + ^ .ra: .cfa -24 + ^ x29: .cfa -32 + ^
STACK CFI 1e0ac .cfa: sp 32 +
STACK CFI 1e0b4 .cfa: sp 0 +
STACK CFI 1e0b8 .cfa: x29 32 +
STACK CFI INIT 1e10c 74 .cfa: sp 0 +
STACK CFI 1e110 .cfa: sp 48 +
STACK CFI 1e11c .cfa: x29 32 + x19: .cfa -8 + ^ x20: .cfa -16 + ^ .ra: .cfa -24 + ^ x29: .cfa -32 + ^
STACK CFI 1e168 .cfa: sp 48 +
STACK CFI 1e174 .cfa: sp 0 +
STACK CFI 1e178 .cfa: x29 32 +
STACK CFI INIT 1e1e4 174 .cfa: sp 0 +
STACK CFI 1e1e8 .cfa: sp 112 +
STACK CFI 1e1f8 .cfa: x29 48 + x19: .cfa -8 + ^ x20: .cfa -16 + ^ x21: .cfa -32 + ^ .ra: .cfa -40 + ^ x29: .cfa -48 + ^
STACK CFI 1e244 .cfa: sp 112 +
STACK CFI 1e254 .cfa: sp 0 +
STACK CFI 1e258 .cfa: x29 48 +
STACK CFI INIT 1e358 194 .cfa: sp 0 +
STACK CFI 1e35c .cfa: sp 112 +
STACK CFI 1e36c .cfa: x29 48 + x19: .cfa -8 + ^ x20: .cfa -16 + ^ x21: .cfa -32 + ^ .ra: .cfa -40 + ^ x29: .cfa -48 + ^
STACK CFI 1e3d8 .cfa: sp 112 +
STACK CFI 1e3e8 .cfa: sp 0 +
STACK CFI 1e3ec .cfa: x29 48 +
STACK CFI INIT 1e510 198 .cfa: sp 0 +
STACK CFI 1e514 .cfa: sp 112 +
STACK CFI 1e524 .cfa: x29 48 + x19: .cfa -8 + ^ x20: .cfa -16 + ^ x21: .cfa -32 + ^ .ra: .cfa -40 + ^ x29: .cfa -48 + ^
STACK CFI 1e594 .cfa: sp 112 +
STACK CFI 1e5a4 .cfa: sp 0 +
STACK CFI 1e5a8 .cfa: x29 48 +
STACK CFI INIT 1e720 150 .cfa: sp 0 +
STACK CFI 1e724 .cfa: sp 128 +
STACK CFI 1e734 .cfa: x29 48 + x19: .cfa -8 + ^ x20: .cfa -16 + ^ x21: .cfa -24 + ^ x22: .cfa -32 + ^ .ra: .cfa -40 + ^ x29: .cfa -48 + ^
STACK CFI 1e77c .cfa: sp 128 +
STACK CFI 1e78c .cfa: sp 0 +
STACK CFI 1e790 .cfa: x29 48 +
STACK CFI INIT 1e870 a8 .cfa: sp 0 +
STACK CFI 1e874 .cfa: sp 64 +
STACK CFI 1e884 .cfa: x29 48 + x19: .cfa -8 + ^ x20: .cfa -16 + ^ x21: .cfa -32 + ^ .ra: .cfa -40 + ^ x29: .cfa -48 + ^
STACK CFI 1e8ec .cfa: sp 64 +
STACK CFI 1e8fc .cfa: sp 0 +
STACK CFI 1e900 .cfa: x29 48 +
STACK CFI INIT 1e918 1b8 .cfa: sp 0 +
STACK CFI 1e91c .cfa: sp 160 +
STACK CFI 1e938 .cfa: x29 72 + x19: .cfa -8 + ^ x20: .cfa -16 + ^ x21: .cfa -24 + ^ x22: .cfa -32 + ^ x23: .cfa -40 + ^ x24: .cfa -48 + ^ x25: .cfa -56 + ^ .ra: .cfa -64 + ^ x29: .cfa -72 + ^ v8: .cfa -80 + ^
STACK CFI 1e9bc .cfa: sp 160 +
STACK CFI 1e9d8 .cfa: sp 0 +
STACK CFI 1e9dc .cfa: x29 72 +
STACK CFI INIT 1ead0 16c .cfa: sp 0 +
STACK CFI 1ead4 .cfa: sp 64 +
STACK CFI 1eae4 .cfa: x29 48 + x19: .cfa -8 + ^ x20: .cfa -16 + ^ x21: .cfa -24 + ^ x22: .cfa -32 + ^ .ra: .cfa -40 + ^ x29: .cfa -48 + ^
STACK CFI 1ebdc .cfa: sp 64 +
STACK CFI 1ebec .cfa: sp 0 +
STACK CFI 1ebf0 .cfa: x29 48 +
STACK CFI INIT 1ec40 224 .cfa: sp 0 +
STACK CFI 1ec44 .cfa: sp 128 +
STACK CFI 1ec58 .cfa: x29 64 + x19: .cfa -8 + ^ x20: .cfa -16 + ^ x21: .cfa -24 + ^ x22: .cfa -32 + ^ x23: .cfa -48 + ^ .ra: .cfa -56 + ^ x29: .cfa -64 + ^
STACK CFI 1ed00 .cfa: sp 128 +
STACK CFI 1ed14 .cfa: sp 0 +
STACK CFI 1ed18 .cfa: x29 64 +
STACK CFI INIT 1ee64 244 .cfa: sp 0 +
STACK CFI 1ee68 .cfa: sp 128 +
STACK CFI 1ee7c .cfa: x29 64 + x19: .cfa -8 + ^ x20: .cfa -16 + ^ x21: .cfa -24 + ^ x22: .cfa -32 + ^ x23: .cfa -48 + ^ .ra: .cfa -56 + ^ x29: .cfa -64 + ^
STACK CFI 1ef44 .cfa: sp 128 +
STACK CFI 1ef58 .cfa: sp 0 +
STACK CFI 1ef5c .cfa: x29 64 +
STACK CFI INIT 1f0a8 224 .cfa: sp 0 +
STACK CFI 1f0ac .cfa: sp 128 +
STACK CFI 1f0c0 .cfa: x29 64 + x19: .cfa -8 + ^ x20: .cfa -16 + ^ x21: .cfa -24 + ^ x22: .cfa -32 + ^ x23: .cfa -48 + ^ .ra: .cfa -56 + ^ x29: .cfa -64 + ^
STACK CFI 1f168 .cfa: sp 128 +
STACK CFI 1f17c .cfa: sp 0 +
STACK CFI 1f180 .cfa: x29 64 +
STACK CFI INIT 1f2cc 154 .cfa: sp 0 +
STACK CFI 1f2d0 .cfa: sp 384 +
STACK CFI 1f2e4 .cfa: x29 64 + x19: .cfa -8 + ^ x20: .cfa -16 + ^ x21: .cfa -24 + ^ x22: .cfa -32 + ^ x23: .cfa -40 + ^ x28: .cfa -48 + ^ .ra: .cfa -56 + ^ x29: .cfa -64 + ^
STACK CFI 1f3c8 .cfa: sp 384 +
STACK CFI 1f3dc .cfa: sp 0 +
STACK CFI 1f3e0 .cfa: x29 64 +
STACK CFI INIT 1f420 168 .cfa: sp 0 +
STACK CFI 1f424 .cfa: sp 384 +
STACK CFI 1f438 .cfa: x29 64 + x19: .cfa -8 + ^ x20: .cfa -16 + ^ x21: .cfa -24 + ^ x22: .cfa -32 + ^ x23: .cfa -40 + ^ x28: .cfa -48 + ^ .ra: .cfa -56 + ^ x29: .cfa -64 + ^
STACK CFI 1f530 .cfa: sp 384 +
STACK CFI 1f544 .cfa: sp 0 +
STACK CFI 1f548 .cfa: x29 64 +
STACK CFI INIT 1f5a0 4e0 .cfa: sp 0 +
STACK CFI 1f5a4 .cfa: sp 64 +
STACK CFI 1f5b4 .cfa: x29 64 + x19: .cfa -8 + ^ x20: .cfa -16 + ^ x21: .cfa -24 + ^ x22: .cfa -32 + ^ x23: .cfa -40 + ^ x24: .cfa -48 + ^ .ra: .cfa -56 + ^ x29: .cfa -64 + ^
STACK CFI 1fa54 .cfa: sp 64 +
STACK CFI 1fa64 .cfa: sp 0 +
STACK CFI 1fa68 .cfa: x29 64 +
STACK CFI INIT 1fff4 294 .cfa: sp 0 +
STACK CFI 1fff8 .cfa: sp 240 +
STACK CFI 20010 .cfa: x29 80 + x19: .cfa -8 + ^ x20: .cfa -16 + ^ x21: .cfa -24 + ^ x22: .cfa -32 + ^ x23: .cfa -40 + ^ x24: .cfa -48 + ^ x25: .cfa -64 + ^ .ra: .cfa -72 + ^ x29: .cfa -80 + ^
STACK CFI 201b0 .cfa: sp 240 +
STACK CFI 201c8 .cfa: sp 0 +
STACK CFI 201cc .cfa: x29 80 +
STACK CFI INIT 20304 50 .cfa: sp 0 +
STACK CFI 20308 .cfa: sp 32 +
STACK CFI 20310 .cfa: x29 32 + x19: .cfa -8 + ^ x20: .cfa -16 + ^ .ra: .cfa -24 + ^ x29: .cfa -32 + ^
STACK CFI INIT 20380 7c0 .cfa: sp 0 +
STACK CFI 20384 .cfa: sp 320 +
STACK CFI 203a0 .cfa: x29 96 + x19: .cfa -8 + ^ x20: .cfa -16 + ^ x21: .cfa -24 + ^ x22: .cfa -32 + ^ x23: .cfa -40 + ^ x24: .cfa -48 + ^ x25: .cfa -56 + ^ x26: .cfa -64 + ^ x27: .cfa -72 + ^ x28: .cfa -80 + ^ .ra: .cfa -88 + ^ x29: .cfa -96 + ^
STACK CFI 209f0 .cfa: sp 320 +
STACK CFI 20a0c .cfa: sp 0 +
STACK CFI 20a10 .cfa: x29 96 +
STACK CFI INIT 24ec0 c74 .cfa: sp 0 +
STACK CFI 24ec4 .cfa: sp 96 +
STACK CFI 24edc .cfa: x29 96 + x19: .cfa -8 + ^ x20: .cfa -16 + ^ x21: .cfa -24 + ^ x22: .cfa -32 + ^ x23: .cfa -40 + ^ x24: .cfa -48 + ^ x25: .cfa -56 + ^ x26: .cfa -64 + ^ x27: .cfa -72 + ^ x28: .cfa -80 + ^ .ra: .cfa -88 + ^ x29: .cfa -96 + ^
STACK CFI 25954 .cfa: sp 96 +
STACK CFI 2596c .cfa: sp 0 +
STACK CFI 25970 .cfa: x29 96 +
STACK CFI INIT 25c88 26c .cfa: sp 0 +
STACK CFI 25c8c .cfa: sp 128 +
STACK CFI 25c9c .cfa: x29 48 + x19: .cfa -8 + ^ x20: .cfa -16 + ^ x21: .cfa -24 + ^ x22: .cfa -32 + ^ .ra: .cfa -40 + ^ x29: .cfa -48 + ^
STACK CFI 25e40 .cfa: sp 128 +
STACK CFI 25e50 .cfa: sp 0 +
STACK CFI 25e54 .cfa: x29 48 +
STACK CFI INIT 26284 3b8 .cfa: sp 0 +
STACK CFI 26288 .cfa: sp 96 +
STACK CFI 262a0 .cfa: x29 96 + x19: .cfa -8 + ^ x20: .cfa -16 + ^ x21: .cfa -24 + ^ x22: .cfa -32 + ^ x23: .cfa -40 + ^ x24: .cfa -48 + ^ x25: .cfa -56 + ^ x26: .cfa -64 + ^ x27: .cfa -72 + ^ x28: .cfa -80 + ^ .ra: .cfa -88 + ^ x29: .cfa -96 + ^
STACK CFI 265dc .cfa: sp 96 +
STACK CFI 265f4 .cfa: sp 0 +
STACK CFI 265f8 .cfa: x29 96 +
STACK CFI INIT 266dc cb4 .cfa: sp 0 +
STACK CFI 266e0 .cfa: sp 96 +
STACK CFI 266f8 .cfa: x29 96 + x19: .cfa -8 + ^ x20: .cfa -16 + ^ x21: .cfa -24 + ^ x22: .cfa -32 + ^ x23: .cfa -40 + ^ x24: .cfa -48 + ^ x25: .cfa -56 + ^ x26: .cfa -64 + ^ x27: .cfa -72 + ^ x28: .cfa -80 + ^ .ra: .cfa -88 + ^ x29: .cfa -96 + ^
STACK CFI 271a0 .cfa: sp 96 +
STACK CFI 271b8 .cfa: sp 0 +
STACK CFI 271bc .cfa: x29 96 +
STACK CFI INIT 27678 afc .cfa: sp 0 +
STACK CFI 2767c .cfa: sp 96 +
STACK CFI 27694 .cfa: x29 96 + x19: .cfa -8 + ^ x20: .cfa -16 + ^ x21: .cfa -24 + ^ x22: .cfa -32 + ^ x23: .cfa -40 + ^ x24: .cfa -48 + ^ x25: .cfa -56 + ^ x26: .cfa -64 + ^ x27: .cfa -72 + ^ x28: .cfa -80 + ^ .ra: .cfa -88 + ^ x29: .cfa -96 + ^
STACK CFI 280e8 .cfa: sp 96 +
STACK CFI 28100 .cfa: sp 0 +
STACK CFI 28104 .cfa: x29 96 +
STACK CFI INIT 28350 1430 .cfa: sp 0 +
STACK CFI 28354 .cfa: sp 96 +
STACK CFI 2836c .cfa: x29 96 + x19: .cfa -8 + ^ x20: .cfa -16 + ^ x21: .cfa -24 + ^ x22: .cfa -32 + ^ x23: .cfa -40 + ^ x24: .cfa -48 + ^ x25: .cfa -56 + ^ x26: .cfa -64 + ^ x27: .cfa -72 + ^ x28: .cfa -80 + ^ .ra: .cfa -88 + ^ x29: .cfa -96 + ^
STACK CFI 29608 .cfa: sp 96 +
STACK CFI 29620 .cfa: sp 0 +
STACK CFI 29624 .cfa: x29 96 +
STACK CFI INIT 298a4 75c .cfa: sp 0 +
STACK CFI 298a8 .cfa: sp 368 +
STACK CFI 298c4 .cfa: x29 96 + x19: .cfa -8 + ^ x20: .cfa -16 + ^ x21: .cfa -24 + ^ x22: .cfa -32 + ^ x23: .cfa -40 + ^ x24: .cfa -48 + ^ x25: .cfa -56 + ^ x26: .cfa -64 + ^ x27: .cfa -72 + ^ x28: .cfa -80 + ^ .ra: .cfa -88 + ^ x29: .cfa -96 + ^
STACK CFI 29978 .cfa: sp 368 +
STACK CFI 29994 .cfa: sp 0 +
STACK CFI 29998 .cfa: x29 96 +
STACK CFI 299ec .cfa: sp 368 +
STACK CFI 29a08 .cfa: sp 0 +
STACK CFI 29a0c .cfa: x29 96 +
STACK CFI INIT 2a3c0 eb0 .cfa: sp 0 +
STACK CFI 2a3c4 .cfa: sp 96 +
STACK CFI 2a3dc .cfa: x29 96 + x19: .cfa -8 + ^ x20: .cfa -16 + ^ x21: .cfa -24 + ^ x22: .cfa -32 + ^ x23: .cfa -40 + ^ x24: .cfa -48 + ^ x25: .cfa -56 + ^ x26: .cfa -64 + ^ x27: .cfa -72 + ^ x28: .cfa -80 + ^ .ra: .cfa -88 + ^ x29: .cfa -96 + ^
STACK CFI 2b084 .cfa: sp 96 +
STACK CFI 2b09c .cfa: sp 0 +
STACK CFI 2b0a0 .cfa: x29 96 +
STACK CFI INIT 2b5e4 1c9c .cfa: sp 0 +
STACK CFI 2b5e8 .cfa: sp 112 +
STACK CFI 2b604 .cfa: x29 96 + x19: .cfa -8 + ^ x20: .cfa -16 + ^ x21: .cfa -24 + ^ x22: .cfa -32 + ^ x23: .cfa -40 + ^ x24: .cfa -48 + ^ x25: .cfa -56 + ^ x26: .cfa -64 + ^ x27: .cfa -72 + ^ x28: .cfa -80 + ^ .ra: .cfa -88 + ^ x29: .cfa -96 + ^ v8: .cfa -112 + ^
STACK CFI 2b9ec .cfa: sp 112 +
STACK CFI 2ba08 .cfa: sp 0 +
STACK CFI 2ba0c .cfa: x29 96 +
STACK CFI INIT 2fa44 9a0 .cfa: sp 0 +
STACK CFI 2fa48 .cfa: sp 144 +
STACK CFI 2fa60 .cfa: x29 80 + x19: .cfa -8 + ^ x20: .cfa -16 + ^ x21: .cfa -24 + ^ x22: .cfa -32 + ^ x23: .cfa -40 + ^ x24: .cfa -48 + ^ x25: .cfa -64 + ^ .ra: .cfa -72 + ^ x29: .cfa -80 + ^
STACK CFI 30360 .cfa: sp 144 +
STACK CFI 30378 .cfa: sp 0 +
STACK CFI 3037c .cfa: x29 80 +
STACK CFI INIT 31908 57c .cfa: sp 0 +
STACK CFI 3190c .cfa: sp 96 +
STACK CFI 31924 .cfa: x29 96 + x19: .cfa -8 + ^ x20: .cfa -16 + ^ x21: .cfa -24 + ^ x22: .cfa -32 + ^ x23: .cfa -40 + ^ x24: .cfa -48 + ^ x25: .cfa -56 + ^ x26: .cfa -64 + ^ x27: .cfa -72 + ^ x28: .cfa -80 + ^ .ra: .cfa -88 + ^ x29: .cfa -96 + ^
STACK CFI 31de8 .cfa: sp 96 +
STACK CFI 31e00 .cfa: sp 0 +
STACK CFI 31e04 .cfa: x29 96 +
STACK CFI INIT 31e84 67c .cfa: sp 0 +
STACK CFI 31e88 .cfa: sp 96 +
STACK CFI 31ea0 .cfa: x29 96 + x19: .cfa -8 + ^ x20: .cfa -16 + ^ x21: .cfa -24 + ^ x22: .cfa -32 + ^ x23: .cfa -40 + ^ x24: .cfa -48 + ^ x25: .cfa -56 + ^ x26: .cfa -64 + ^ x27: .cfa -72 + ^ x28: .cfa -80 + ^ .ra: .cfa -88 + ^ x29: .cfa -96 + ^
STACK CFI 32464 .cfa: sp 96 +
STACK CFI 3247c .cfa: sp 0 +
STACK CFI 32480 .cfa: x29 96 +
