MODULE Linux arm64 A45F75EE1223BF0EAA0AB7E93571025E0 cattodev.gambling.android64.so
INFO CODE_ID EE755FA423120EBFAA0AB7E93571025EC69616FF
INFO GENERATOR mozilla/dump_syms 2.3.4
PUBLIC 8d740 0 __on_dlclose
PUBLIC 8d758 0 __on_dlclose_late
PUBLIC 8d760 0 __atexit_handler_wrapper
PUBLIC 8d774 0 atexit
PUBLIC 8d790 0 pthread_atfork
FUNC 8d7a0 6c 0 __cxx_global_var_init
FUNC 8d80c 44 0 geode::modifier::ModifyDerive<MyUnlockLayer, RewardUnlockLayer>::ModifyDerive()
FUNC 8d850 24 0 geode::modifier::ModifyDerive<MyUnlockLayer, RewardUnlockLayer>::~ModifyDerive()
FUNC 8d874 2f8 0 geode::modifier::ModifyBase<geode::modifier::ModifyDerive<MyUnlockLayer, RewardUnlockLayer> >::ModifyBase()
FUNC 8db6c 4f4 0 geode::modifier::ModifyDerive<MyUnlockLayer, RewardUnlockLayer>::apply()
FUNC 8e060 6c 0 std::__ndk1::map<std::__ndk1::basic_string<char, std::__ndk1::char_traits<char>, std::__ndk1::allocator<char> >, std::__ndk1::shared_ptr<geode::Hook>, std::__ndk1::less<std::__ndk1::basic_string<char, std::__ndk1::char_traits<char>, std::__ndk1::allocator<char> > >, std::__ndk1::allocator<std::__ndk1::pair<std::__ndk1::basic_string<char, std::__ndk1::char_traits<char>, std::__ndk1::allocator<char> > const, std::__ndk1::shared_ptr<geode::Hook> > > >::map[abi:v170000]()
FUNC 8e0cc 10 0 geode::Modify<MyUnlockLayer, RewardUnlockLayer>::onModify<geode::modifier::ModifyBase<geode::modifier::ModifyDerive<MyUnlockLayer, RewardUnlockLayer> > >(geode::modifier::ModifyBase<geode::modifier::ModifyDerive<MyUnlockLayer, RewardUnlockLayer> >&)
FUNC 8e0dc 84 0 std::__ndk1::vector<std::__ndk1::basic_string<char, std::__ndk1::char_traits<char>, std::__ndk1::allocator<char> >, std::__ndk1::allocator<std::__ndk1::basic_string<char, std::__ndk1::char_traits<char>, std::__ndk1::allocator<char> > > >::vector[abi:v170000]()
FUNC 8e160 6c 0 std::__ndk1::map<std::__ndk1::basic_string<char, std::__ndk1::char_traits<char>, std::__ndk1::allocator<char> >, std::__ndk1::shared_ptr<geode::Hook>, std::__ndk1::less<std::__ndk1::basic_string<char, std::__ndk1::char_traits<char>, std::__ndk1::allocator<char> > >, std::__ndk1::allocator<std::__ndk1::pair<std::__ndk1::basic_string<char, std::__ndk1::char_traits<char>, std::__ndk1::allocator<char> > const, std::__ndk1::shared_ptr<geode::Hook> > > >::begin[abi:v170000]()
FUNC 8e1cc 6c 0 std::__ndk1::map<std::__ndk1::basic_string<char, std::__ndk1::char_traits<char>, std::__ndk1::allocator<char> >, std::__ndk1::shared_ptr<geode::Hook>, std::__ndk1::less<std::__ndk1::basic_string<char, std::__ndk1::char_traits<char>, std::__ndk1::allocator<char> > >, std::__ndk1::allocator<std::__ndk1::pair<std::__ndk1::basic_string<char, std::__ndk1::char_traits<char>, std::__ndk1::allocator<char> > const, std::__ndk1::shared_ptr<geode::Hook> > > >::end[abi:v170000]()
FUNC 8e238 30 0 std::__ndk1::operator!=[abi:v170000](std::__ndk1::__map_iterator<std::__ndk1::__tree_iterator<std::__ndk1::__value_type<std::__ndk1::basic_string<char, std::__ndk1::char_traits<char>, std::__ndk1::allocator<char> >, std::__ndk1::shared_ptr<geode::Hook> >, std::__ndk1::__tree_node<std::__ndk1::shared_ptr<geode::Hook>, void*>*, long> > const&, std::__ndk1::__map_iterator<std::__ndk1::__tree_iterator<std::__ndk1::__value_type<std::__ndk1::basic_string<char, std::__ndk1::char_traits<char>, std::__ndk1::allocator<char> >, std::__ndk1::shared_ptr<geode::Hook> >, std::__ndk1::__tree_node<std::__ndk1::shared_ptr<geode::Hook>, void*>*, long> > const)
FUNC 8e268 28 0 std::__ndk1::__map_iterator<std::__ndk1::__tree_iterator<std::__ndk1::__value_type<std::__ndk1::basic_string<char, std::__ndk1::char_traits<char>, std::__ndk1::allocator<char> >, std::__ndk1::shared_ptr<geode::Hook> >, std::__ndk1::__tree_node<std::__ndk1::__value_type<std::__ndk1::basic_string<char, std::__ndk1::char_traits<char>, std::__ndk1::allocator<char> >, std::__ndk1::shared_ptr<geode::Hook> >, void*>*, long> >::operator*[abi:v170000]() const
FUNC 8e290 24 0 std::__ndk1::get[abi:v170000]<(unsigned long)0, std::__ndk1::basic_string<char, std::__ndk1::char_traits<char>, std::__ndk1::allocator<char> > const, std::__ndk1::shared_ptr<geode::Hook> >(std::__ndk1::shared_ptr<geode::Hook>&)
FUNC 8e2b4 24 0 std::__ndk1::get[abi:v170000]<(unsigned long)1, std::__ndk1::basic_string<char, std::__ndk1::char_traits<char>, std::__ndk1::allocator<char> > const, std::__ndk1::shared_ptr<geode::Hook> >(std::__ndk1::shared_ptr<geode::Hook>&)
FUNC 8e2d8 40 0 geode::Mod::get<void>()
FUNC 8e318 64 0 std::__ndk1::shared_ptr<geode::Hook>::shared_ptr[abi:v170000](std::__ndk1::shared_ptr<geode::Hook> const&)
FUNC 8e37c 48 0 std::__ndk1::shared_ptr<geode::Hook>::~shared_ptr[abi:v170000]()
FUNC 8e3c4 28 0 geode::Result<geode::Hook*, std::__ndk1::basic_string<char, std::__ndk1::char_traits<char>, std::__ndk1::allocator<char> > >::operator bool() const
FUNC 8e3ec 8c 0 geode::log::error<std::__ndk1::basic_string_view<char, std::__ndk1::char_traits<char> >, std::__ndk1::basic_string<char, std::__ndk1::char_traits<char>, std::__ndk1::allocator<char> >&>(fmt::v11::basic_format_string<char, fmt::v11::type_identity<decltype ((wrapCocosObj<std::__ndk1::basic_string_view<char, std::__ndk1::char_traits<char> >, std::__ndk1::basic_string<char, std::__ndk1::char_traits<char>, std::__ndk1::allocator<char> >&>)((std::declval<std::__ndk1::basic_string_view<char, std::__ndk1::char_traits<char> >, std::__ndk1::basic_string<char, std::__ndk1::char_traits<char>, std::__ndk1::allocator<char> >&>)()))>::type>, std::__ndk1::basic_string_view<char, std::__ndk1::char_traits<char> >&&, std::__ndk1::basic_string<char, std::__ndk1::char_traits<char>, std::__ndk1::allocator<char> >&)
FUNC 8e478 18 0 std::__ndk1::shared_ptr<geode::Hook>::operator->[abi:v170000]() const
FUNC 8e490 a8 0 geode::impl::ResultData<geode::Hook*, std::__ndk1::basic_string<char, std::__ndk1::char_traits<char>, std::__ndk1::allocator<char> > >::unwrapErr() &
FUNC 8e538 6c 0 std::__ndk1::vector<std::__ndk1::basic_string<char, std::__ndk1::char_traits<char>, std::__ndk1::allocator<char> >, std::__ndk1::allocator<std::__ndk1::basic_string<char, std::__ndk1::char_traits<char>, std::__ndk1::allocator<char> > > >::push_back[abi:v170000](std::__ndk1::basic_string<char, std::__ndk1::char_traits<char>, std::__ndk1::allocator<char> > const&)
FUNC 8e5a4 24 0 geode::Result<geode::Hook*, std::__ndk1::basic_string<char, std::__ndk1::char_traits<char>, std::__ndk1::allocator<char> > >::~Result()
FUNC 8e5c8 2c 0 std::__ndk1::__map_iterator<std::__ndk1::__tree_iterator<std::__ndk1::__value_type<std::__ndk1::basic_string<char, std::__ndk1::char_traits<char>, std::__ndk1::allocator<char> >, std::__ndk1::shared_ptr<geode::Hook> >, std::__ndk1::__tree_node<std::__ndk1::__value_type<std::__ndk1::basic_string<char, std::__ndk1::char_traits<char>, std::__ndk1::allocator<char> >, std::__ndk1::shared_ptr<geode::Hook> >, void*>*, long> >::operator++[abi:v170000]()
FUNC 8e5f4 30 0 std::__ndk1::vector<std::__ndk1::basic_string<char, std::__ndk1::char_traits<char>, std::__ndk1::allocator<char> >, std::__ndk1::allocator<std::__ndk1::basic_string<char, std::__ndk1::char_traits<char>, std::__ndk1::allocator<char> > > >::begin[abi:v170000]()
FUNC 8e624 30 0 std::__ndk1::vector<std::__ndk1::basic_string<char, std::__ndk1::char_traits<char>, std::__ndk1::allocator<char> >, std::__ndk1::allocator<std::__ndk1::basic_string<char, std::__ndk1::char_traits<char>, std::__ndk1::allocator<char> > > >::end[abi:v170000]()
FUNC 8e654 34 0 std::__ndk1::operator!=[abi:v170000]<std::__ndk1::basic_string<char, std::__ndk1::char_traits<char>, std::__ndk1::allocator<char> >*>(std::__ndk1::__wrap_iter<std::__ndk1::basic_string<char, std::__ndk1::char_traits<char>, std::__ndk1::allocator<char> >*> const&, std::__ndk1::__wrap_iter<std::__ndk1::basic_string<char, std::__ndk1::char_traits<char>, std::__ndk1::allocator<char> >*> const)
FUNC 8e688 18 0 std::__ndk1::__wrap_iter<std::__ndk1::basic_string<char, std::__ndk1::char_traits<char>, std::__ndk1::allocator<char> >*>::operator*[abi:v170000]() const
FUNC 8e6a0 2c 0 std::__ndk1::map<std::__ndk1::basic_string<char, std::__ndk1::char_traits<char>, std::__ndk1::allocator<char> >, std::__ndk1::shared_ptr<geode::Hook>, std::__ndk1::less<std::__ndk1::basic_string<char, std::__ndk1::char_traits<char>, std::__ndk1::allocator<char> > >, std::__ndk1::allocator<std::__ndk1::pair<std::__ndk1::basic_string<char, std::__ndk1::char_traits<char>, std::__ndk1::allocator<char> > const, std::__ndk1::shared_ptr<geode::Hook> > > >::erase[abi:v170000](std::__ndk1::basic_string<char, std::__ndk1::char_traits<char>, std::__ndk1::allocator<char> > const&)
FUNC 8e6cc 20 0 std::__ndk1::__wrap_iter<std::__ndk1::basic_string<char, std::__ndk1::char_traits<char>, std::__ndk1::allocator<char> >*>::operator++[abi:v170000]()
FUNC 8e6ec 64 0 std::__ndk1::vector<std::__ndk1::basic_string<char, std::__ndk1::char_traits<char>, std::__ndk1::allocator<char> >, std::__ndk1::allocator<std::__ndk1::basic_string<char, std::__ndk1::char_traits<char>, std::__ndk1::allocator<char> > > >::~vector[abi:v170000]()
FUNC 8e750 24 0 std::__ndk1::map<std::__ndk1::basic_string<char, std::__ndk1::char_traits<char>, std::__ndk1::allocator<char> >, std::__ndk1::shared_ptr<geode::Hook>, std::__ndk1::less<std::__ndk1::basic_string<char, std::__ndk1::char_traits<char>, std::__ndk1::allocator<char> > >, std::__ndk1::allocator<std::__ndk1::pair<std::__ndk1::basic_string<char, std::__ndk1::char_traits<char>, std::__ndk1::allocator<char> > const, std::__ndk1::shared_ptr<geode::Hook> > > >::~map[abi:v170000]()
FUNC 8e774 10 0 geode::modifier::ModifyBase<geode::modifier::ModifyDerive<MyUnlockLayer, RewardUnlockLayer> >::apply()
FUNC 8e784 14 0 std::__ndk1::__map_value_compare<std::__ndk1::basic_string<char, std::__ndk1::char_traits<char>, std::__ndk1::allocator<char> >, std::__ndk1::__value_type<std::__ndk1::basic_string<char, std::__ndk1::char_traits<char>, std::__ndk1::allocator<char> >, std::__ndk1::shared_ptr<geode::Hook> >, std::__ndk1::less<std::__ndk1::basic_string<char, std::__ndk1::char_traits<char>, std::__ndk1::allocator<char> > >, true>::__map_value_compare[abi:v170000](std::__ndk1::less<std::__ndk1::basic_string<char, std::__ndk1::char_traits<char>, std::__ndk1::allocator<char> > >)
FUNC 8e798 a8 0 std::__ndk1::__tree<std::__ndk1::__value_type<std::__ndk1::basic_string<char, std::__ndk1::char_traits<char>, std::__ndk1::allocator<char> >, std::__ndk1::shared_ptr<geode::Hook> >, std::__ndk1::__map_value_compare<std::__ndk1::basic_string<char, std::__ndk1::char_traits<char>, std::__ndk1::allocator<char> >, std::__ndk1::__value_type<std::__ndk1::basic_string<char, std::__ndk1::char_traits<char>, std::__ndk1::allocator<char> >, std::__ndk1::shared_ptr<geode::Hook> >, std::__ndk1::less<std::__ndk1::basic_string<char, std::__ndk1::char_traits<char>, std::__ndk1::allocator<char> > >, true>, std::__ndk1::allocator<std::__ndk1::__value_type<std::__ndk1::basic_string<char, std::__ndk1::char_traits<char>, std::__ndk1::allocator<char> >, std::__ndk1::shared_ptr<geode::Hook> > > >::__tree(std::__ndk1::__map_value_compare<std::__ndk1::basic_string<char, std::__ndk1::char_traits<char>, std::__ndk1::allocator<char> >, std::__ndk1::__value_type<std::__ndk1::basic_string<char, std::__ndk1::char_traits<char>, std::__ndk1::allocator<char> >, std::__ndk1::shared_ptr<geode::Hook> >, std::__ndk1::less<std::__ndk1::basic_string<char, std::__ndk1::char_traits<char>, std::__ndk1::allocator<char> > >, true> const&)
FUNC 8e840 38 0 std::__ndk1::__compressed_pair<std::__ndk1::__tree_end_node<std::__ndk1::__tree_node_base<void*>*>, std::__ndk1::allocator<std::__ndk1::__tree_node<std::__ndk1::__value_type<std::__ndk1::basic_string<char, std::__ndk1::char_traits<char>, std::__ndk1::allocator<char> >, std::__ndk1::shared_ptr<geode::Hook> >, void*> > >::__compressed_pair[abi:v170000]<true, void>()
PUBLIC 8e878 0 __clang_call_terminate
FUNC 8e888 40 0 std::__ndk1::__compressed_pair<unsigned long, std::__ndk1::__map_value_compare<std::__ndk1::basic_string<char, std::__ndk1::char_traits<char>, std::__ndk1::allocator<char> >, std::__ndk1::__value_type<std::__ndk1::basic_string<char, std::__ndk1::char_traits<char>, std::__ndk1::allocator<char> >, std::__ndk1::shared_ptr<geode::Hook> >, std::__ndk1::less<std::__ndk1::basic_string<char, std::__ndk1::char_traits<char>, std::__ndk1::allocator<char> > >, true> >::__compressed_pair[abi:v170000]<int, std::__ndk1::__map_value_compare<std::__ndk1::basic_string<char, std::__ndk1::char_traits<char>, std::__ndk1::allocator<char> >, std::__ndk1::__value_type<std::__ndk1::basic_string<char, std::__ndk1::char_traits<char>, std::__ndk1::allocator<char> >, std::__ndk1::shared_ptr<geode::Hook> >, std::__ndk1::less<std::__ndk1::basic_string<char, std::__ndk1::char_traits<char>, std::__ndk1::allocator<char> > >, true> const&>(std::__ndk1::__map_value_compare<std::__ndk1::basic_string<char, std::__ndk1::char_traits<char>, std::__ndk1::allocator<char> >, std::__ndk1::__value_type<std::__ndk1::basic_string<char, std::__ndk1::char_traits<char>, std::__ndk1::allocator<char> >, std::__ndk1::shared_ptr<geode::Hook> >, std::__ndk1::less<std::__ndk1::basic_string<char, std::__ndk1::char_traits<char>, std::__ndk1::allocator<char> > >, true> const&)
FUNC 8e8c8 2c 0 std::__ndk1::__tree<std::__ndk1::__value_type<std::__ndk1::basic_string<char, std::__ndk1::char_traits<char>, std::__ndk1::allocator<char> >, std::__ndk1::shared_ptr<geode::Hook> >, std::__ndk1::__map_value_compare<std::__ndk1::basic_string<char, std::__ndk1::char_traits<char>, std::__ndk1::allocator<char> >, std::__ndk1::__value_type<std::__ndk1::basic_string<char, std::__ndk1::char_traits<char>, std::__ndk1::allocator<char> >, std::__ndk1::shared_ptr<geode::Hook> >, std::__ndk1::less<std::__ndk1::basic_string<char, std::__ndk1::char_traits<char>, std::__ndk1::allocator<char> > >, true>, std::__ndk1::allocator<std::__ndk1::__value_type<std::__ndk1::basic_string<char, std::__ndk1::char_traits<char>, std::__ndk1::allocator<char> >, std::__ndk1::shared_ptr<geode::Hook> > > >::__end_node[abi:v170000]()
FUNC 8e8f4 14 0 std::__ndk1::__tree<std::__ndk1::__value_type<std::__ndk1::basic_string<char, std::__ndk1::char_traits<char>, std::__ndk1::allocator<char> >, std::__ndk1::shared_ptr<geode::Hook> >, std::__ndk1::__map_value_compare<std::__ndk1::basic_string<char, std::__ndk1::char_traits<char>, std::__ndk1::allocator<char> >, std::__ndk1::__value_type<std::__ndk1::basic_string<char, std::__ndk1::char_traits<char>, std::__ndk1::allocator<char> >, std::__ndk1::shared_ptr<geode::Hook> >, std::__ndk1::less<std::__ndk1::basic_string<char, std::__ndk1::char_traits<char>, std::__ndk1::allocator<char> > >, true>, std::__ndk1::allocator<std::__ndk1::__value_type<std::__ndk1::basic_string<char, std::__ndk1::char_traits<char>, std::__ndk1::allocator<char> >, std::__ndk1::shared_ptr<geode::Hook> > > >::__begin_node[abi:v170000]()
FUNC 8e908 28 0 std::__ndk1::__compressed_pair_elem<std::__ndk1::__tree_end_node<std::__ndk1::__tree_node_base<void*>*>, 0, false>::__compressed_pair_elem[abi:v170000](std::__ndk1::__value_init_tag)
FUNC 8e930 28 0 std::__ndk1::__compressed_pair_elem<std::__ndk1::allocator<std::__ndk1::__tree_node<std::__ndk1::__value_type<std::__ndk1::basic_string<char, std::__ndk1::char_traits<char>, std::__ndk1::allocator<char> >, std::__ndk1::shared_ptr<geode::Hook> >, void*> >, 1, true>::__compressed_pair_elem[abi:v170000](std::__ndk1::__value_init_tag)
FUNC 8e958 18 0 std::__ndk1::__tree_end_node<std::__ndk1::__tree_node_base<void*>*>::__tree_end_node[abi:v170000]()
FUNC 8e970 24 0 std::__ndk1::allocator<std::__ndk1::__tree_node<std::__ndk1::__value_type<std::__ndk1::basic_string<char, std::__ndk1::char_traits<char>, std::__ndk1::allocator<char> >, std::__ndk1::shared_ptr<geode::Hook> >, void*> >::allocator[abi:v170000]()
FUNC 8e994 10 0 std::__ndk1::__non_trivial_if<true, std::__ndk1::allocator<std::__ndk1::__tree_node<std::__ndk1::__value_type<std::__ndk1::basic_string<char, std::__ndk1::char_traits<char>, std::__ndk1::allocator<char> >, std::__ndk1::shared_ptr<geode::Hook> >, void*> > >::__non_trivial_if[abi:v170000]()
FUNC 8e9a4 24 0 std::__ndk1::__compressed_pair_elem<unsigned long, 0, false>::__compressed_pair_elem[abi:v170000]<int, void>()
FUNC 8e9c8 14 0 std::__ndk1::__compressed_pair_elem<std::__ndk1::__map_value_compare<std::__ndk1::basic_string<char, std::__ndk1::char_traits<char>, std::__ndk1::allocator<char> >, std::__ndk1::__value_type<std::__ndk1::basic_string<char, std::__ndk1::char_traits<char>, std::__ndk1::allocator<char> >, std::__ndk1::shared_ptr<geode::Hook> >, std::__ndk1::less<std::__ndk1::basic_string<char, std::__ndk1::char_traits<char>, std::__ndk1::allocator<char> > >, true>, 1, true>::__compressed_pair_elem[abi:v170000]<std::__ndk1::__map_value_compare<std::__ndk1::basic_string<char, std::__ndk1::char_traits<char>, std::__ndk1::allocator<char> >, std::__ndk1::__value_type<std::__ndk1::basic_string<char, std::__ndk1::char_traits<char>, std::__ndk1::allocator<char> >, std::__ndk1::shared_ptr<geode::Hook> >, std::__ndk1::less<std::__ndk1::basic_string<char, std::__ndk1::char_traits<char>, std::__ndk1::allocator<char> > >, true> const&, void>()
FUNC 8e9dc 14 0 std::__ndk1::pointer_traits<std::__ndk1::__tree_end_node<std::__ndk1::__tree_node_base<void*>*>*>::pointer_to[abi:v170000](std::__ndk1::__tree_end_node<std::__ndk1::__tree_node_base<void*>*>&)
FUNC 8e9f0 24 0 std::__ndk1::__compressed_pair<std::__ndk1::__tree_end_node<std::__ndk1::__tree_node_base<void*>*>, std::__ndk1::allocator<std::__ndk1::__tree_node<std::__ndk1::__value_type<std::__ndk1::basic_string<char, std::__ndk1::char_traits<char>, std::__ndk1::allocator<char> >, std::__ndk1::shared_ptr<geode::Hook> >, void*> > >::first[abi:v170000]()
FUNC 8ea14 14 0 std::__ndk1::__compressed_pair_elem<std::__ndk1::__tree_end_node<std::__ndk1::__tree_node_base<void*>*>, 0, false>::__get[abi:v170000]()
FUNC 8ea28 40 0 std::__ndk1::__compressed_pair<std::__ndk1::basic_string<char, std::__ndk1::char_traits<char>, std::__ndk1::allocator<char> >*, std::__ndk1::allocator<std::__ndk1::basic_string<char, std::__ndk1::char_traits<char>, std::__ndk1::allocator<char> > > >::__compressed_pair[abi:v170000]<std::nullptr_t, std::__ndk1::__default_init_tag>(std::__ndk1::__default_init_tag&&)
FUNC 8ea68 10 0 std::__ndk1::__debug_db_insert_c[abi:v170000]<std::__ndk1::vector<std::__ndk1::basic_string<char, std::__ndk1::char_traits<char>, std::__ndk1::allocator<char> >, std::__ndk1::char_traits<char><std::__ndk1::allocator<char> > > >(std::__ndk1::vector<std::__ndk1::basic_string<char, std::__ndk1::char_traits<char>, std::__ndk1::allocator<char> >, std::__ndk1::char_traits<char><std::__ndk1::allocator<char> > >*)
FUNC 8ea78 1c 0 std::__ndk1::__compressed_pair_elem<std::__ndk1::basic_string<char, std::__ndk1::char_traits<char>, std::__ndk1::allocator<char> >*, 0, false>::__compressed_pair_elem[abi:v170000]<std::nullptr_t, void>()
FUNC 8ea94 28 0 std::__ndk1::__compressed_pair_elem<std::__ndk1::allocator<std::__ndk1::basic_string<char, std::__ndk1::char_traits<char>, std::__ndk1::allocator<char> > >, 1, true>::__compressed_pair_elem[abi:v170000](std::__ndk1::__default_init_tag)
FUNC 8eabc 24 0 std::__ndk1::allocator<std::__ndk1::basic_string<char, std::__ndk1::char_traits<char>, std::__ndk1::allocator<char> > >::allocator[abi:v170000]()
FUNC 8eae0 10 0 std::__ndk1::__non_trivial_if<true, std::__ndk1::allocator<std::__ndk1::basic_string<char, std::__ndk1::char_traits<char>, std::__ndk1::allocator<char> > > >::__non_trivial_if[abi:v170000]()
FUNC 8eaf0 68 0 std::__ndk1::__tree<std::__ndk1::__value_type<std::__ndk1::basic_string<char, std::__ndk1::char_traits<char>, std::__ndk1::allocator<char> >, std::__ndk1::shared_ptr<geode::Hook> >, std::__ndk1::__map_value_compare<std::__ndk1::basic_string<char, std::__ndk1::char_traits<char>, std::__ndk1::allocator<char> >, std::__ndk1::__value_type<std::__ndk1::basic_string<char, std::__ndk1::char_traits<char>, std::__ndk1::allocator<char> >, std::__ndk1::shared_ptr<geode::Hook> >, std::__ndk1::less<std::__ndk1::basic_string<char, std::__ndk1::char_traits<char>, std::__ndk1::allocator<char> > >, true>, std::__ndk1::allocator<std::__ndk1::__value_type<std::__ndk1::basic_string<char, std::__ndk1::char_traits<char>, std::__ndk1::allocator<char> >, std::__ndk1::shared_ptr<geode::Hook> > > >::begin[abi:v170000]()
FUNC 8eb58 50 0 std::__ndk1::__map_iterator<std::__ndk1::__tree_iterator<std::__ndk1::__value_type<std::__ndk1::basic_string<char, std::__ndk1::char_traits<char>, std::__ndk1::allocator<char> >, std::__ndk1::shared_ptr<geode::Hook> >, std::__ndk1::__tree_node<std::__ndk1::__value_type<std::__ndk1::basic_string<char, std::__ndk1::char_traits<char>, std::__ndk1::allocator<char> >, std::__ndk1::shared_ptr<geode::Hook> >, void*>*, long> >::__map_iterator[abi:v170000](std::__ndk1::__tree_iterator<std::__ndk1::__value_type<std::__ndk1::basic_string<char, std::__ndk1::char_traits<char>, std::__ndk1::allocator<char> >, std::__ndk1::shared_ptr<geode::Hook> >, std::__ndk1::__tree_node<std::__ndk1::__value_type<std::__ndk1::basic_string<char, std::__ndk1::char_traits<char>, std::__ndk1::allocator<char> >, std::__ndk1::shared_ptr<geode::Hook> >, void*>*, long>)
FUNC 8eba8 20 0 std::__ndk1::__tree_iterator<std::__ndk1::__value_type<std::__ndk1::basic_string<char, std::__ndk1::char_traits<char>, std::__ndk1::allocator<char> >, std::__ndk1::shared_ptr<geode::Hook> >, std::__ndk1::__tree_node<std::__ndk1::__value_type<std::__ndk1::basic_string<char, std::__ndk1::char_traits<char>, std::__ndk1::allocator<char> >, std::__ndk1::shared_ptr<geode::Hook> >, void*>*, long>::__tree_iterator[abi:v170000](std::__ndk1::__tree_end_node<std::__ndk1::__tree_node_base<void*>*>*)
FUNC 8ebc8 68 0 std::__ndk1::__tree<std::__ndk1::__value_type<std::__ndk1::basic_string<char, std::__ndk1::char_traits<char>, std::__ndk1::allocator<char> >, std::__ndk1::shared_ptr<geode::Hook> >, std::__ndk1::__map_value_compare<std::__ndk1::basic_string<char, std::__ndk1::char_traits<char>, std::__ndk1::allocator<char> >, std::__ndk1::__value_type<std::__ndk1::basic_string<char, std::__ndk1::char_traits<char>, std::__ndk1::allocator<char> >, std::__ndk1::shared_ptr<geode::Hook> >, std::__ndk1::less<std::__ndk1::basic_string<char, std::__ndk1::char_traits<char>, std::__ndk1::allocator<char> > >, true>, std::__ndk1::allocator<std::__ndk1::__value_type<std::__ndk1::basic_string<char, std::__ndk1::char_traits<char>, std::__ndk1::allocator<char> >, std::__ndk1::shared_ptr<geode::Hook> > > >::end[abi:v170000]()
FUNC 8ec30 34 0 std::__ndk1::operator!=[abi:v170000](std::__ndk1::__tree_iterator<std::__ndk1::__value_type<std::__ndk1::basic_string<char, std::__ndk1::char_traits<char>, std::__ndk1::allocator<char> >, std::__ndk1::shared_ptr<geode::Hook> >, std::__ndk1::__tree_node<std::__ndk1::shared_ptr<geode::Hook>, void*>*, long> const&, std::__ndk1::__tree_iterator<std::__ndk1::__value_type<std::__ndk1::basic_string<char, std::__ndk1::char_traits<char>, std::__ndk1::allocator<char> >, std::__ndk1::shared_ptr<geode::Hook> >, std::__ndk1::__tree_node<std::__ndk1::shared_ptr<geode::Hook>, void*>*, long> const)
FUNC 8ec64 30 0 std::__ndk1::operator==[abi:v170000](std::__ndk1::__tree_iterator<std::__ndk1::__value_type<std::__ndk1::basic_string<char, std::__ndk1::char_traits<char>, std::__ndk1::allocator<char> >, std::__ndk1::shared_ptr<geode::Hook> >, std::__ndk1::__tree_node<std::__ndk1::shared_ptr<geode::Hook>, void*>*, long> const&, std::__ndk1::__tree_iterator<std::__ndk1::__value_type<std::__ndk1::basic_string<char, std::__ndk1::char_traits<char>, std::__ndk1::allocator<char> >, std::__ndk1::shared_ptr<geode::Hook> >, std::__ndk1::__tree_node<std::__ndk1::shared_ptr<geode::Hook>, void*>*, long> const)
FUNC 8ec94 2c 0 std::__ndk1::__tree_iterator<std::__ndk1::__value_type<std::__ndk1::basic_string<char, std::__ndk1::char_traits<char>, std::__ndk1::allocator<char> >, std::__ndk1::shared_ptr<geode::Hook> >, std::__ndk1::__tree_node<std::__ndk1::__value_type<std::__ndk1::basic_string<char, std::__ndk1::char_traits<char>, std::__ndk1::allocator<char> >, std::__ndk1::shared_ptr<geode::Hook> >, void*>*, long>::operator->[abi:v170000]() const
FUNC 8ecc0 24 0 std::__ndk1::__value_type<std::__ndk1::basic_string<char, std::__ndk1::char_traits<char>, std::__ndk1::allocator<char> >, std::__ndk1::shared_ptr<geode::Hook> >::__get_value[abi:v170000]()
FUNC 8ece4 14 0 std::__ndk1::pointer_traits<std::__ndk1::__value_type<std::__ndk1::basic_string<char, std::__ndk1::char_traits<char>, std::__ndk1::allocator<char> >, std::__ndk1::shared_ptr<geode::Hook> >*>::pointer_to[abi:v170000](std::__ndk1::__value_type<std::__ndk1::basic_string<char, std::__ndk1::char_traits<char>, std::__ndk1::allocator<char> >, std::__ndk1::shared_ptr<geode::Hook> >&)
FUNC 8ecf8 18 0 std::__ndk1::__tree_iterator<std::__ndk1::__value_type<std::__ndk1::basic_string<char, std::__ndk1::char_traits<char>, std::__ndk1::allocator<char> >, std::__ndk1::shared_ptr<geode::Hook> >, std::__ndk1::__tree_node<std::__ndk1::__value_type<std::__ndk1::basic_string<char, std::__ndk1::char_traits<char>, std::__ndk1::allocator<char> >, std::__ndk1::shared_ptr<geode::Hook> >, void*>*, long>::__get_np[abi:v170000]() const
FUNC 8ed10 24 0 std::__ndk1::launder[abi:v170000]<std::__ndk1::pair<std::__ndk1::basic_string<char, std::__ndk1::char_traits<char>, std::__ndk1::allocator<char> > const, std::__ndk1::shared_ptr<geode::Hook> > >(std::__ndk1::pair<std::__ndk1::basic_string<char, std::__ndk1::char_traits<char>, std::__ndk1::allocator<char> > const, std::__ndk1::shared_ptr<geode::Hook> >)
FUNC 8ed34 14 0 std::__ndk1::__launder[abi:v170000]<std::__ndk1::pair<std::__ndk1::basic_string<char, std::__ndk1::char_traits<char>, std::__ndk1::allocator<char> > const, std::__ndk1::shared_ptr<geode::Hook> > >(std::__ndk1::pair<std::__ndk1::basic_string<char, std::__ndk1::char_traits<char>, std::__ndk1::allocator<char> > const, std::__ndk1::shared_ptr<geode::Hook> >)
FUNC 8ed48 14 0 std::__ndk1::__get_pair<(unsigned long)0>::get[abi:v170000]<std::__ndk1::basic_string<char, std::__ndk1::char_traits<char>, std::__ndk1::allocator<char> > const, std::__ndk1::shared_ptr<geode::Hook> >(std::__ndk1::pair<std::__ndk1::shared_ptr<geode::Hook>, std::__ndk1::shared_ptr<geode::Hook> >&)
FUNC 8ed5c 18 0 std::__ndk1::__get_pair<(unsigned long)1>::get[abi:v170000]<std::__ndk1::basic_string<char, std::__ndk1::char_traits<char>, std::__ndk1::allocator<char> > const, std::__ndk1::shared_ptr<geode::Hook> >(std::__ndk1::pair<std::__ndk1::basic_string<char, std::__ndk1::char_traits<char>, std::__ndk1::allocator<char> > const, std::__ndk1::shared_ptr<geode::Hook> >&)
FUNC 8ed74 18 0 geode::takeNextLoaderMod()
FUNC 8ed8c 24 0 std::__ndk1::__shared_weak_count::__add_shared[abi:v170000]()
FUNC 8edb0 28 0 std::__ndk1::__shared_count::__add_shared[abi:v170000]()
FUNC 8edd8 44 0 std::__ndk1::__libcpp_atomic_refcount_increment[abi:v170000]<long>(std::__ndk1::__libcpp_atomic_refcount_increment[abi:v170000]&)
FUNC 8ee1c 3c 0 std::__ndk1::__shared_weak_count::__release_shared[abi:v170000]()
FUNC 8ee58 7c 0 std::__ndk1::__shared_count::__release_shared[abi:v170000]()
FUNC 8eed4 44 0 std::__ndk1::__libcpp_atomic_refcount_decrement[abi:v170000]<long>(std::__ndk1::__libcpp_atomic_refcount_decrement[abi:v170000]&)
FUNC 8ef18 30 0 geode::impl::ResultData<geode::Hook*, std::__ndk1::basic_string<char, std::__ndk1::char_traits<char>, std::__ndk1::allocator<char> > >::isOk() const
FUNC 8ef48 24 0 std::__ndk1::variant<geode::Hook*, std::__ndk1::basic_string<char, std::__ndk1::char_traits<char>, std::__ndk1::allocator<char> > >::index[abi:v170000]() const
FUNC 8ef6c 4c 0 std::__ndk1::__variant_detail::__base<(std::__ndk1::__variant_detail::_Trait)1, geode::Hook*, std::__ndk1::basic_string<char, std::__ndk1::char_traits<char>, std::__ndk1::allocator<char> > >::index[abi:v170000]() const
FUNC 8efb8 98 0 geode::log::logImpl<std::__ndk1::basic_string_view<char, std::__ndk1::char_traits<char> >, std::__ndk1::basic_string<char, std::__ndk1::char_traits<char>, std::__ndk1::allocator<char> >&>(geode::Severity, geode::Mod*, fmt::v11::basic_format_string<char, fmt::v11::type_identity<decltype ((wrapCocosObj<std::__ndk1::basic_string_view<char, std::__ndk1::char_traits<char> >, std::__ndk1::basic_string<char, std::__ndk1::char_traits<char>, std::__ndk1::allocator<char> >&>)((std::declval<std::__ndk1::basic_string_view<char, std::__ndk1::char_traits<char> >, std::__ndk1::basic_string<char, std::__ndk1::char_traits<char>, std::__ndk1::allocator<char> >&>)()))>::type>, std::__ndk1::basic_string_view<char, std::__ndk1::char_traits<char> >&&, std::__ndk1::basic_string<char, std::__ndk1::char_traits<char>, std::__ndk1::allocator<char> >&)
FUNC 8f050 20 0 geode::Severity::Severity(geode::Severity::{unnamed type#1})
FUNC 8f070 108 0 _ZZN5geode3log7logImplIJNSt6__ndk117basic_string_viewIcNS2_11char_traitsIcEEEERNS2_12basic_stringIcS5_NS2_9allocatorIcEEEEEEEvNS_8SeverityEPNS_3ModEN3fmt3v1119basic_format_stringIcJDpNSG_13type_identityIDTcl12wrapCocosObjIT_Eclsr3stdE7declvalISJ_EEEEE4typeEEEEDpOSJ_ENKUlTpTySQ_E_clIJRS6_SB_EEEDaSQ_
FUNC 8f178 d8 0 fmt::v11::detail::make_arg<true, fmt::v11::context, std::__ndk1::basic_string_view<char, std::__ndk1::char_traits<char> >, 0>(std::__ndk1::basic_string_view<char, std::__ndk1::char_traits<char> >&)
FUNC 8f250 d8 0 fmt::v11::detail::make_arg<true, fmt::v11::context, std::__ndk1::basic_string<char, std::__ndk1::char_traits<char>, std::__ndk1::allocator<char> >, 0>(std::__ndk1::basic_string<char, std::__ndk1::char_traits<char>, std::__ndk1::allocator<char> >&)
FUNC 8f328 6c 0 fmt::v11::detail::to_string_view<std::__ndk1::basic_string_view<char, std::__ndk1::char_traits<char> >, 0>(std::__ndk1::basic_string_view<char, std::__ndk1::char_traits<char> > const&)
FUNC 8f394 48 0 fmt::v11::basic_string_view<char>::basic_string_view<std::__ndk1::basic_string_view<char, std::__ndk1::char_traits<char> >, 0>()
FUNC 8f3dc 18 0 std::__ndk1::basic_string_view<char, std::__ndk1::char_traits<char> >::data[abi:v170000]() const
FUNC 8f3f4 18 0 std::__ndk1::basic_string_view<char, std::__ndk1::char_traits<char> >::size[abi:v170000]() const
FUNC 8f40c 18 0 fmt::v11::basic_string_view<char>::data() const
FUNC 8f424 18 0 fmt::v11::basic_string_view<char>::size() const
FUNC 8f43c 6c 0 fmt::v11::detail::to_string_view<std::__ndk1::basic_string<char, std::__ndk1::char_traits<char>, std::__ndk1::allocator<char> >, 0>(std::__ndk1::basic_string<char, std::__ndk1::char_traits<char>, std::__ndk1::allocator<char> > const&)
FUNC 8f4a8 48 0 fmt::v11::basic_string_view<char>::basic_string_view<std::__ndk1::basic_string<char, std::__ndk1::char_traits<char>, std::__ndk1::allocator<char> >, 0>()
FUNC 8f4f0 28 0 std::__ndk1::basic_string<char, std::__ndk1::char_traits<char>, std::__ndk1::allocator<char> >::data[abi:v170000]() const
FUNC 8f518 54 0 std::__ndk1::basic_string<char, std::__ndk1::char_traits<char>, std::__ndk1::allocator<char> >::size[abi:v170000]() const
FUNC 8f56c 14 0 std::__ndk1::__to_address[abi:v170000]<char const>(char const)
FUNC 8f580 54 0 std::__ndk1::basic_string<char, std::__ndk1::char_traits<char>, std::__ndk1::allocator<char> >::__get_pointer[abi:v170000]() const
FUNC 8f5d4 38 0 std::__ndk1::basic_string<char, std::__ndk1::char_traits<char>, std::__ndk1::allocator<char> >::__is_long[abi:v170000]() const
FUNC 8f60c 28 0 std::__ndk1::basic_string<char, std::__ndk1::char_traits<char>, std::__ndk1::allocator<char> >::__get_long_pointer[abi:v170000]() const
FUNC 8f634 2c 0 std::__ndk1::basic_string<char, std::__ndk1::char_traits<char>, std::__ndk1::allocator<char> >::__get_short_pointer[abi:v170000]() const
FUNC 8f660 24 0 std::__ndk1::__compressed_pair<std::__ndk1::basic_string<char, std::__ndk1::char_traits<char>, std::__ndk1::allocator<char> >::__rep, std::__ndk1::allocator<char> >::first[abi:v170000]() const
FUNC 8f684 14 0 std::__ndk1::__compressed_pair_elem<std::__ndk1::basic_string<char, std::__ndk1::char_traits<char>, std::__ndk1::allocator<char> >::__rep, 0, false>::__get[abi:v170000]() const
FUNC 8f698 14 0 std::__ndk1::pointer_traits<char const*>::pointer_to[abi:v170000](char const&)
FUNC 8f6ac 28 0 std::__ndk1::basic_string<char, std::__ndk1::char_traits<char>, std::__ndk1::allocator<char> >::__get_long_size[abi:v170000]() const
FUNC 8f6d4 34 0 std::__ndk1::basic_string<char, std::__ndk1::char_traits<char>, std::__ndk1::allocator<char> >::__get_short_size[abi:v170000]() const
FUNC 8f708 30 0 geode::impl::ResultData<geode::Hook*, std::__ndk1::basic_string<char, std::__ndk1::char_traits<char>, std::__ndk1::allocator<char> > >::isErr() const
FUNC 8f738 24 0 std::__ndk1::get[abi:v170000]<(unsigned long)1, geode::Hook*, std::__ndk1::basic_string<char, std::__ndk1::char_traits<char>, std::__ndk1::allocator<char> > >(geode::Hook*, std::__ndk1::basic_string<char, std::__ndk1::char_traits<char>, std::__ndk1::allocator<char> >&)
FUNC 8f75c 24 0 std::__ndk1::get[abi:v170000]<(unsigned long)0, geode::Hook*, std::__ndk1::basic_string<char, std::__ndk1::char_traits<char>, std::__ndk1::allocator<char> > >(geode::Hook*, std::__ndk1::basic_string<char, std::__ndk1::char_traits<char>, std::__ndk1::allocator<char> >&)
FUNC 8f780 130 0 geode::UnwrapException::UnwrapException<geode::Hook*&>(geode::Hook*&)
FUNC 8f8b0 24 0 geode::UnwrapException::~UnwrapException()
FUNC 8f8d4 38 0 std::__ndk1::__generic_get[abi:v170000]<(unsigned long)1, std::__ndk1::variant<geode::Hook*, std::__ndk1::basic_string<char, std::__ndk1::char_traits<char>, std::__ndk1::allocator<char> > >&>(std::__ndk1::variant<geode::Hook*, std::__ndk1::basic_string<char, std::__ndk1::char_traits<char>, std::__ndk1::allocator<char> > >&)
FUNC 8f90c 30 0 std::__ndk1::__holds_alternative[abi:v170000]<(unsigned long)1, geode::Hook*, std::__ndk1::basic_string<char, std::__ndk1::char_traits<char>, std::__ndk1::allocator<char> > >(std::__ndk1::variant<geode::Hook*, std::__ndk1::basic_string<char, std::__ndk1::char_traits<char>, std::__ndk1::allocator<char> > > const&)
FUNC 8f93c 38 0 std::__ndk1::__throw_bad_variant_access[abi:v170000]()
FUNC 8f974 24 0 std::__ndk1::__variant_detail::__access::__variant::__get_alt[abi:v170000]<(unsigned long)1, std::__ndk1::variant<geode::Hook*, std::__ndk1::basic_string<char, std::__ndk1::char_traits<char>, std::__ndk1::allocator<char> > >&>(std::__ndk1::variant<geode::Hook*, std::__ndk1::basic_string<char, std::__ndk1::char_traits<char>, std::__ndk1::allocator<char> > >&)
FUNC 8f998 44 0 std::bad_variant_access::bad_variant_access()
FUNC 8f9dc 24 0 std::bad_variant_access::~bad_variant_access()
FUNC 8fa00 24 0 std::exception::exception[abi:v170000]()
FUNC 8fa24 28 0 std::__ndk1::__variant_detail::__access::__base::__get_alt[abi:v170000]<(unsigned long)1, std::__ndk1::__variant_detail::__impl<geode::Hook*, std::__ndk1::basic_string<char, std::__ndk1::char_traits<char>, std::__ndk1::allocator<char> > >&>(std::__ndk1::__variant_detail::__impl<geode::Hook*, std::__ndk1::basic_string<char, std::__ndk1::char_traits<char>, std::__ndk1::allocator<char> > >&)
FUNC 8fa4c 2c 0 std::__ndk1::__variant_detail::__access::__union::__get_alt[abi:v170000]<std::__ndk1::__variant_detail::__union<(std::__ndk1::__variant_detail::_Trait)1, (unsigned long)0, geode::Hook*, std::__ndk1::basic_string<char, std::__ndk1::char_traits<char>, std::__ndk1::allocator<char> > >&, (unsigned long)1>(std::__ndk1::__variant_detail::__union<(std::__ndk1::__variant_detail::_Trait)1, (unsigned long)0, geode::Hook*, std::__ndk1::basic_string<char, std::__ndk1::char_traits<char>, std::__ndk1::allocator<char> > >&, std::__ndk1::in_place_index_t<(unsigned long)1>)
FUNC 8fa78 18 0 std::__ndk1::__variant_detail::__access::__union::__get_alt[abi:v170000]<std::__ndk1::__variant_detail::__union<(std::__ndk1::__variant_detail::_Trait)1, (unsigned long)1, std::__ndk1::basic_string<char, std::__ndk1::char_traits<char>, std::__ndk1::allocator<char> > >&>(std::__ndk1::__variant_detail::__union<(std::__ndk1::__variant_detail::_Trait)1, (unsigned long)1, std::__ndk1::basic_string<char, std::__ndk1::char_traits<char>, std::__ndk1::allocator<char> > >&, std::__ndk1::in_place_index_t<(unsigned long)0>)
FUNC 8fa90 38 0 std::__ndk1::__generic_get[abi:v170000]<(unsigned long)0, std::__ndk1::variant<geode::Hook*, std::__ndk1::basic_string<char, std::__ndk1::char_traits<char>, std::__ndk1::allocator<char> > >&>(std::__ndk1::variant<geode::Hook*, std::__ndk1::basic_string<char, std::__ndk1::char_traits<char>, std::__ndk1::allocator<char> > >&)
FUNC 8fac8 30 0 std::__ndk1::__holds_alternative[abi:v170000]<(unsigned long)0, geode::Hook*, std::__ndk1::basic_string<char, std::__ndk1::char_traits<char>, std::__ndk1::allocator<char> > >(std::__ndk1::variant<geode::Hook*, std::__ndk1::basic_string<char, std::__ndk1::char_traits<char>, std::__ndk1::allocator<char> > > const&)
FUNC 8faf8 24 0 std::__ndk1::__variant_detail::__access::__variant::__get_alt[abi:v170000]<(unsigned long)0, std::__ndk1::variant<geode::Hook*, std::__ndk1::basic_string<char, std::__ndk1::char_traits<char>, std::__ndk1::allocator<char> > >&>(std::__ndk1::variant<geode::Hook*, std::__ndk1::basic_string<char, std::__ndk1::char_traits<char>, std::__ndk1::allocator<char> > >&)
FUNC 8fb1c 28 0 std::__ndk1::__variant_detail::__access::__base::__get_alt[abi:v170000]<(unsigned long)0, std::__ndk1::__variant_detail::__impl<geode::Hook*, std::__ndk1::basic_string<char, std::__ndk1::char_traits<char>, std::__ndk1::allocator<char> > >&>(std::__ndk1::__variant_detail::__impl<geode::Hook*, std::__ndk1::basic_string<char, std::__ndk1::char_traits<char>, std::__ndk1::allocator<char> > >&)
FUNC 8fb44 18 0 std::__ndk1::__variant_detail::__access::__union::__get_alt[abi:v170000]<std::__ndk1::__variant_detail::__union<(std::__ndk1::__variant_detail::_Trait)1, (unsigned long)0, geode::Hook*, std::__ndk1::basic_string<char, std::__ndk1::char_traits<char>, std::__ndk1::allocator<char> > >&>(std::__ndk1::__variant_detail::__union<(std::__ndk1::__variant_detail::_Trait)1, (unsigned long)0, geode::Hook*, std::__ndk1::basic_string<char, std::__ndk1::char_traits<char>, std::__ndk1::allocator<char> > >&, std::__ndk1::in_place_index_t<(unsigned long)0>)
FUNC 8fb5c 38 0 std::__ndk1::operator<<[abi:v170000]<std::__ndk1::basic_stringstream<char, std::__ndk1::char_traits<char>, std::__ndk1::allocator<char> >, geode::Hook*, void>(std::__ndk1::basic_stringstream<char, std::__ndk1::char_traits<char>, std::__ndk1::allocator<char> >, geode::Hook* const&)
FUNC 8fb94 34 0 std::__ndk1::operator<<[abi:v170000]<std::__ndk1::basic_stringstream<char, std::__ndk1::char_traits<char>, std::__ndk1::allocator<char> >, char [35], void>(std::__ndk1::basic_stringstream<char, std::__ndk1::char_traits<char>, std::__ndk1::allocator<char> >, char const (&) [35])
FUNC 8fbc8 fc 0 std::__ndk1::basic_stringstream<char, std::__ndk1::char_traits<char>, std::__ndk1::allocator<char> >::basic_stringstream[abi:v170000]()
FUNC 8fcc4 30 0 std::__ndk1::basic_stringstream<char, std::__ndk1::char_traits<char>, std::__ndk1::allocator<char> >::str[abi:v170000]() const
FUNC 8fcf4 3c 0 std::__ndk1::basic_stringstream<char, std::__ndk1::char_traits<char>, std::__ndk1::allocator<char> >::~basic_stringstream()
FUNC 8fd30 30 0 geode::UnwrapException::~UnwrapException()
FUNC 8fd60 48 0 std::__ndk1::operator<<[abi:v170000]<std::__ndk1::char_traits<char> >(std::__ndk1::basic_ostream<char, std::__ndk1::char_traits<char> >, char const*)
FUNC 8fda8 228 0 std::__ndk1::__put_character_sequence[abi:v170000]<char, std::__ndk1::char_traits<char> >(std::__ndk1::basic_ostream<char, std::__ndk1::char_traits<char> >, std::__ndk1::basic_ostream const*, unsigned long)
FUNC 8ffd0 34 0 std::__ndk1::char_traits<char>::length(char const*)
FUNC 90004 1c 0 std::__ndk1::basic_ostream<char, std::__ndk1::char_traits<char> >::sentry::operator bool[abi:v170000]() const
FUNC 90020 278 0 std::__ndk1::__pad_and_output[abi:v170000]<char, std::__ndk1::char_traits<char> >(std::__ndk1::char_traits<char>, std::__ndk1::ostreambuf_iterator const*, std::__ndk1::ostreambuf_iterator const, std::__ndk1::ostreambuf_iterator const, std::__ndk1::ios_base&, std::__ndk1::ostreambuf_iterator)
FUNC 90298 54 0 std::__ndk1::ostreambuf_iterator<char, std::__ndk1::char_traits<char> >::ostreambuf_iterator[abi:v170000](std::__ndk1::basic_ostream<char, std::__ndk1::char_traits<char> >&)
FUNC 902ec 18 0 std::__ndk1::ios_base::flags[abi:v170000]() const
FUNC 90304 60 0 std::__ndk1::basic_ios<char, std::__ndk1::char_traits<char> >::fill[abi:v170000]() const
FUNC 90364 24 0 std::__ndk1::ostreambuf_iterator<char, std::__ndk1::char_traits<char> >::failed[abi:v170000]() const
FUNC 90388 2c 0 std::__ndk1::basic_ios<char, std::__ndk1::char_traits<char> >::setstate[abi:v170000](unsigned int)
FUNC 903b4 18 0 std::__ndk1::ios_base::width[abi:v170000]() const
FUNC 903cc 3c 0 std::__ndk1::basic_streambuf<char, std::__ndk1::char_traits<char> >::sputn[abi:v170000](char const*, long)
FUNC 90408 7c 0 std::__ndk1::basic_string<char, std::__ndk1::char_traits<char>, std::__ndk1::allocator<char> >::basic_string[abi:v170000](unsigned long, char)
FUNC 90484 28 0 std::__ndk1::basic_string<char, std::__ndk1::char_traits<char>, std::__ndk1::allocator<char> >::data[abi:v170000]()
FUNC 904ac 2c 0 std::__ndk1::ios_base::width[abi:v170000](long)
FUNC 904d8 40 0 std::__ndk1::__compressed_pair<std::__ndk1::basic_string<char, std::__ndk1::char_traits<char>, std::__ndk1::allocator<char> >::__rep, std::__ndk1::allocator<char> >::__compressed_pair[abi:v170000]<std::__ndk1::__default_init_tag, std::__ndk1::__compressed_pair<std::__ndk1::basic_string<char, std::__ndk1::char_traits<char>, std::__ndk1::allocator<char> >::__rep, std::__ndk1::allocator<char> >::__compressed_pair[abi:v170000]>(std::__ndk1::__compressed_pair<std::__ndk1::basic_string<char, std::__ndk1::char_traits<char>, std::__ndk1::allocator<char> >::__rep, std::__ndk1::allocator<char> >::__compressed_pair[abi:v170000]&&)
FUNC 90518 10 0 std::__ndk1::__debug_db_insert_c[abi:v170000]<std::__ndk1::basic_string<char, std::__ndk1::char_traits<char>, std::__ndk1::allocator<char> > >(std::__ndk1::basic_string<char, std::__ndk1::char_traits<char>, std::__ndk1::allocator<char> >*)
FUNC 90528 14 0 std::__ndk1::__compressed_pair_elem<std::__ndk1::basic_string<char, std::__ndk1::char_traits<char>, std::__ndk1::allocator<char> >::__rep, 0, false>::__compressed_pair_elem[abi:v170000](std::__ndk1::__default_init_tag)
FUNC 9053c 28 0 std::__ndk1::__compressed_pair_elem<std::__ndk1::allocator<char>, 1, true>::__compressed_pair_elem[abi:v170000](std::__ndk1::__default_init_tag)
FUNC 90564 24 0 std::__ndk1::allocator<char>::allocator[abi:v170000]()
FUNC 90588 10 0 std::__ndk1::__non_trivial_if<true, std::__ndk1::allocator<char> >::__non_trivial_if[abi:v170000]()
FUNC 90598 14 0 std::__ndk1::__to_address[abi:v170000]<char>(char)
FUNC 905ac 54 0 std::__ndk1::basic_string<char, std::__ndk1::char_traits<char>, std::__ndk1::allocator<char> >::__get_pointer[abi:v170000]()
FUNC 90600 28 0 std::__ndk1::basic_string<char, std::__ndk1::char_traits<char>, std::__ndk1::allocator<char> >::__get_long_pointer[abi:v170000]()
FUNC 90628 2c 0 std::__ndk1::basic_string<char, std::__ndk1::char_traits<char>, std::__ndk1::allocator<char> >::__get_short_pointer[abi:v170000]()
FUNC 90654 24 0 std::__ndk1::__compressed_pair<std::__ndk1::basic_string<char, std::__ndk1::char_traits<char>, std::__ndk1::allocator<char> >::__rep, std::__ndk1::allocator<char> >::first[abi:v170000]()
FUNC 90678 14 0 std::__ndk1::__compressed_pair_elem<std::__ndk1::basic_string<char, std::__ndk1::char_traits<char>, std::__ndk1::allocator<char> >::__rep, 0, false>::__get[abi:v170000]()
FUNC 9068c 14 0 std::__ndk1::pointer_traits<char*>::pointer_to[abi:v170000](char&)
FUNC 906a0 24 0 std::__ndk1::basic_ios<char, std::__ndk1::char_traits<char> >::rdbuf[abi:v170000]() const
FUNC 906c4 18 0 std::__ndk1::ios_base::rdbuf[abi:v170000]() const
FUNC 906dc 28 0 std::__ndk1::char_traits<char>::eq_int_type(int, int)
FUNC 90704 8 0 std::__ndk1::char_traits<char>::eof()
FUNC 9070c c8 0 std::__ndk1::basic_ios<char, std::__ndk1::char_traits<char> >::widen[abi:v170000](char) const
FUNC 907d4 2c 0 std::__ndk1::use_facet[abi:v170000]<std::__ndk1::ctype<char> >(std::__ndk1::locale const&)
FUNC 90800 34 0 std::__ndk1::ctype<char>::widen[abi:v170000](char) const
FUNC 90834 34 0 std::__ndk1::ios_base::setstate[abi:v170000](unsigned int)
FUNC 90868 24 0 std::__ndk1::__constexpr_strlen[abi:v170000](char const*)
FUNC 9088c 44 0 std::__ndk1::basic_ios<char, std::__ndk1::char_traits<char> >::basic_ios[abi:v170000]()
FUNC 908d0 ac 0 std::__ndk1::basic_iostream<char, std::__ndk1::char_traits<char> >::basic_iostream[abi:v170000](std::__ndk1::basic_streambuf<char, std::__ndk1::char_traits<char> >*)
FUNC 9097c 60 0 std::__ndk1::basic_stringbuf<char, std::__ndk1::char_traits<char>, std::__ndk1::allocator<char> >::basic_stringbuf[abi:v170000](unsigned int)
FUNC 909dc 30 0 std::__ndk1::basic_stringstream<char, std::__ndk1::char_traits<char>, std::__ndk1::allocator<char> >::~basic_stringstream()
FUNC 90a0c 18 0 {virtual override thunk({offset(-16)}, std::__ndk1::basic_stringstream<char, std::__ndk1::char_traits<char>, std::__ndk1::allocator<char> >::~basic_stringstream())}
FUNC 90a24 18 0 {virtual override thunk({offset(-16)}, std::__ndk1::basic_stringstream<char, std::__ndk1::char_traits<char>, std::__ndk1::allocator<char> >::~basic_stringstream())}
FUNC 90a3c 20 0 {virtual override thunk({virtual offset(0, -24)}, std::__ndk1::basic_stringstream<char, std::__ndk1::char_traits<char>, std::__ndk1::allocator<char> >::~basic_stringstream())}
FUNC 90a5c 20 0 {virtual override thunk({virtual offset(0, -24)}, std::__ndk1::basic_stringstream<char, std::__ndk1::char_traits<char>, std::__ndk1::allocator<char> >::~basic_stringstream())}
FUNC 90a7c 24 0 std::__ndk1::ios_base::ios_base[abi:v170000]()
FUNC 90aa0 5c 0 std::__ndk1::basic_istream<char, std::__ndk1::char_traits<char> >::basic_istream[abi:v170000](std::__ndk1::basic_streambuf<char, std::__ndk1::char_traits<char> >*)
FUNC 90afc 34 0 std::__ndk1::basic_ostream<char, std::__ndk1::char_traits<char> >::basic_ostream[abi:v170000]()
FUNC 90b30 44 0 std::__ndk1::basic_ios<char, std::__ndk1::char_traits<char> >::init[abi:v170000](std::__ndk1::basic_streambuf<char, std::__ndk1::char_traits<char> >*)
FUNC 90b74 78 0 std::__ndk1::basic_string<char, std::__ndk1::char_traits<char>, std::__ndk1::allocator<char> >::basic_string[abi:v170000]()
FUNC 90bec 44 0 std::__ndk1::basic_stringbuf<char, std::__ndk1::char_traits<char>, std::__ndk1::allocator<char> >::~basic_stringbuf()
FUNC 90c30 30 0 std::__ndk1::basic_stringbuf<char, std::__ndk1::char_traits<char>, std::__ndk1::allocator<char> >::~basic_stringbuf()
FUNC 90c60 344 0 std::__ndk1::basic_stringbuf<char, std::__ndk1::char_traits<char>, std::__ndk1::allocator<char> >::seekoff(long long, std::__ndk1::ios_base::seekdir, unsigned int)
FUNC 90fa4 a0 0 std::__ndk1::basic_stringbuf<char, std::__ndk1::char_traits<char>, std::__ndk1::allocator<char> >::seekpos(std::__ndk1::fpos<mbstate_t>, unsigned int)
FUNC 91044 11c 0 std::__ndk1::basic_stringbuf<char, std::__ndk1::char_traits<char>, std::__ndk1::allocator<char> >::underflow()
FUNC 91160 1a8 0 std::__ndk1::basic_stringbuf<char, std::__ndk1::char_traits<char>, std::__ndk1::allocator<char> >::pbackfail(int)
FUNC 91308 28c 0 std::__ndk1::basic_stringbuf<char, std::__ndk1::char_traits<char>, std::__ndk1::allocator<char> >::overflow(int)
FUNC 91594 70 0 std::__ndk1::basic_string<char, std::__ndk1::char_traits<char>, std::__ndk1::allocator<char> >::__default_init[abi:v170000]()
FUNC 91604 18 0 std::__ndk1::basic_streambuf<char, std::__ndk1::char_traits<char> >::pptr[abi:v170000]() const
FUNC 9161c 24 0 std::__ndk1::fpos<mbstate_t>::fpos[abi:v170000](long long)
FUNC 91640 18 0 std::__ndk1::basic_streambuf<char, std::__ndk1::char_traits<char> >::gptr[abi:v170000]() const
FUNC 91658 18 0 std::__ndk1::basic_streambuf<char, std::__ndk1::char_traits<char> >::eback[abi:v170000]() const
FUNC 91670 18 0 std::__ndk1::basic_streambuf<char, std::__ndk1::char_traits<char> >::pbase[abi:v170000]() const
FUNC 91688 38 0 std::__ndk1::basic_streambuf<char, std::__ndk1::char_traits<char> >::setg[abi:v170000](char*, std::__ndk1::basic_streambuf<char, std::__ndk1::char_traits<char> >::setg, std::__ndk1::basic_streambuf<char, std::__ndk1::char_traits<char> >::setg)
FUNC 916c0 30 0 std::__ndk1::basic_streambuf<char, std::__ndk1::char_traits<char> >::setp[abi:v170000](char*, std::__ndk1::basic_streambuf<char, std::__ndk1::char_traits<char> >::setp)
FUNC 916f0 18 0 std::__ndk1::basic_streambuf<char, std::__ndk1::char_traits<char> >::epptr[abi:v170000]() const
FUNC 91708 28 0 std::__ndk1::basic_streambuf<char, std::__ndk1::char_traits<char> >::pbump[abi:v170000](int)
FUNC 91730 18 0 std::__ndk1::fpos<mbstate_t>::operator long long[abi:v170000]() const
FUNC 91748 18 0 std::__ndk1::basic_streambuf<char, std::__ndk1::char_traits<char> >::egptr[abi:v170000]() const
FUNC 91760 14 0 std::__ndk1::char_traits<char>::to_int_type(char)
FUNC 91774 5c 0 std::__ndk1::char_traits<char>::not_eof(int)
FUNC 917d0 28 0 std::__ndk1::char_traits<char>::eq(char, char)
FUNC 917f8 14 0 std::__ndk1::char_traits<char>::to_char_type(int)
FUNC 9180c 30 0 std::__ndk1::basic_string<char, std::__ndk1::char_traits<char>, std::__ndk1::allocator<char> >::resize[abi:v170000](unsigned long)
FUNC 9183c 54 0 std::__ndk1::basic_string<char, std::__ndk1::char_traits<char>, std::__ndk1::allocator<char> >::capacity[abi:v170000]() const
FUNC 91890 28 0 std::__ndk1::basic_streambuf<char, std::__ndk1::char_traits<char> >::__pbump[abi:v170000](long)
FUNC 918b8 30 0 std::__ndk1::max[abi:v170000]<char*>(char* const, char* const)
FUNC 918e8 90 0 std::__ndk1::basic_streambuf<char, std::__ndk1::char_traits<char> >::sputc[abi:v170000](char)
FUNC 91978 30 0 std::__ndk1::basic_string<char, std::__ndk1::char_traits<char>, std::__ndk1::allocator<char> >::__get_long_cap[abi:v170000]() const
FUNC 919a8 88 0 std::__ndk1::max[abi:v170000]<char*, std::__ndk1::__less<std::__ndk1::max[abi:v170000], std::__ndk1::max[abi:v170000]> >(char* const, char* const, std::__ndk1::__less<std::__ndk1::max[abi:v170000], std::__ndk1::max[abi:v170000]>)
FUNC 91a30 34 0 std::__ndk1::__less<char*, char*>::operator()[abi:v170000](char* const&, char* const) const
FUNC 91a64 140 0 std::__ndk1::basic_stringbuf<char, std::__ndk1::char_traits<char>, std::__ndk1::allocator<char> >::str() const
FUNC 91ba4 24 0 std::__ndk1::basic_string<char, std::__ndk1::char_traits<char>, std::__ndk1::allocator<char> >::get_allocator[abi:v170000]() const
FUNC 91bc8 80 0 std::__ndk1::basic_string<char, std::__ndk1::char_traits<char>, std::__ndk1::allocator<char> >::basic_string[abi:v170000]<char*, void>(char*, std::__ndk1::allocator<char> const&)
FUNC 91c48 78 0 std::__ndk1::basic_string<char, std::__ndk1::char_traits<char>, std::__ndk1::allocator<char> >::basic_string[abi:v170000](std::__ndk1::allocator<char> const&)
FUNC 91cc0 24 0 std::__ndk1::basic_string<char, std::__ndk1::char_traits<char>, std::__ndk1::allocator<char> >::__alloc[abi:v170000]() const
FUNC 91ce4 24 0 std::__ndk1::__compressed_pair<std::__ndk1::basic_string<char, std::__ndk1::char_traits<char>, std::__ndk1::allocator<char> >::__rep, std::__ndk1::allocator<char> >::second[abi:v170000]() const
FUNC 91d08 14 0 std::__ndk1::__compressed_pair_elem<std::__ndk1::allocator<char>, 1, true>::__get[abi:v170000]() const
FUNC 91d1c 40 0 std::__ndk1::__compressed_pair<std::__ndk1::basic_string<char, std::__ndk1::char_traits<char>, std::__ndk1::allocator<char> >::__rep, std::__ndk1::allocator<char> >::__compressed_pair[abi:v170000]<std::__ndk1::__default_init_tag, std::__ndk1::allocator<char> const&>(std::__ndk1::allocator<char> const&)
FUNC 91d5c 198 0 std::__ndk1::basic_string<char, std::__ndk1::char_traits<char>, std::__ndk1::allocator<char> >::__init<char*>(char*, char*)
FUNC 91ef4 14 0 std::__ndk1::__compressed_pair_elem<std::__ndk1::allocator<char>, 1, true>::__compressed_pair_elem[abi:v170000]<std::__ndk1::allocator<char> const&, void>()
FUNC 91f08 30 0 std::__ndk1::distance[abi:v170000]<char*>(std::__ndk1::iterator_traits, std::__ndk1::iterator_traits)
FUNC 91f38 b0 0 std::__ndk1::basic_string<char, std::__ndk1::char_traits<char>, std::__ndk1::allocator<char> >::max_size[abi:v170000]() const
FUNC 91fe8 1c 0 std::__ndk1::basic_string<char, std::__ndk1::char_traits<char>, std::__ndk1::allocator<char> >::__throw_length_error[abi:v170000]() const
FUNC 92004 20 0 std::__ndk1::basic_string<char, std::__ndk1::char_traits<char>, std::__ndk1::allocator<char> >::__fits_in_sso[abi:v170000](unsigned long)
FUNC 92024 68 0 std::__ndk1::basic_string<char, std::__ndk1::char_traits<char>, std::__ndk1::allocator<char> >::__set_short_size[abi:v170000](unsigned long)
FUNC 9208c 40 0 std::__ndk1::__allocate_at_least[abi:v170000]<std::__ndk1::allocator<char> >(std::__ndk1::allocator_traits&, unsigned long)
FUNC 920cc 24 0 std::__ndk1::basic_string<char, std::__ndk1::char_traits<char>, std::__ndk1::allocator<char> >::__alloc[abi:v170000]()
FUNC 920f0 84 0 std::__ndk1::basic_string<char, std::__ndk1::char_traits<char>, std::__ndk1::allocator<char> >::__recommend[abi:v170000](unsigned long)
FUNC 92174 14 0 std::__ndk1::basic_string<char, std::__ndk1::char_traits<char>, std::__ndk1::allocator<char> >::__begin_lifetime[abi:v170000](char*, unsigned long)
FUNC 92188 38 0 std::__ndk1::basic_string<char, std::__ndk1::char_traits<char>, std::__ndk1::allocator<char> >::__set_long_pointer[abi:v170000](char*)
FUNC 921c0 6c 0 std::__ndk1::basic_string<char, std::__ndk1::char_traits<char>, std::__ndk1::allocator<char> >::__set_long_cap[abi:v170000](unsigned long)
FUNC 9222c 38 0 std::__ndk1::basic_string<char, std::__ndk1::char_traits<char>, std::__ndk1::allocator<char> >::__set_long_size[abi:v170000](unsigned long)
FUNC 92264 24 0 std::__ndk1::char_traits<char>::assign(char&, char const&)
FUNC 92288 24 0 std::__ndk1::__distance[abi:v170000]<char*>(std::__ndk1::iterator_traits, std::__ndk1::iterator_traits, std::__ndk1::random_access_iterator_tag)
FUNC 922ac 28 0 std::__ndk1::allocator_traits<std::__ndk1::allocator<char> >::max_size[abi:v170000]<std::__ndk1::allocator<char>, void, void>(std::__ndk1::allocator<char> const&)
FUNC 922d4 14 0 std::__ndk1::numeric_limits<unsigned long>::max[abi:v170000]()
FUNC 922e8 8 0 std::__ndk1::__libcpp_numeric_limits<unsigned long, true>::max[abi:v170000]()
FUNC 922f0 64 0 std::__ndk1::__throw_length_error[abi:v170000](char const*)
FUNC 92354 4c 0 std::length_error::length_error[abi:v170000](char const*)
FUNC 923a0 58 0 std::__ndk1::allocator<char>::allocate[abi:v170000](unsigned long)
FUNC 923f8 34 0 std::__throw_bad_array_new_length([abi:v170000], void)
FUNC 9242c 60 0 std::__ndk1::__libcpp_allocate[abi:v170000](unsigned long, unsigned long)
FUNC 9248c 20 0 std::__ndk1::__is_overaligned_for_new[abi:v170000](unsigned long)
FUNC 924ac 2c 0 std::__ndk1::__libcpp_operator_new[abi:v170000]<unsigned long, std::align_val_t>(unsigned long, std::align_val_t)
FUNC 924d8 24 0 std::__ndk1::__libcpp_operator_new[abi:v170000]<unsigned long>(unsigned long)
FUNC 924fc 24 0 std::__ndk1::__compressed_pair<std::__ndk1::basic_string<char, std::__ndk1::char_traits<char>, std::__ndk1::allocator<char> >::__rep, std::__ndk1::allocator<char> >::second[abi:v170000]()
FUNC 92520 14 0 std::__ndk1::__compressed_pair_elem<std::__ndk1::allocator<char>, 1, true>::__get[abi:v170000]()
FUNC 92534 1c 0 std::__ndk1::basic_string<char, std::__ndk1::char_traits<char>, std::__ndk1::allocator<char> >::__align_it[abi:v170000]<(unsigned long)16>(unsigned long)
FUNC 92550 68 0 std::__ndk1::basic_stringstream<char, std::__ndk1::char_traits<char>, std::__ndk1::allocator<char> >::~basic_stringstream()
FUNC 925b8 28 0 std::__ndk1::vector<std::__ndk1::basic_string<char, std::__ndk1::char_traits<char>, std::__ndk1::allocator<char> >, std::__ndk1::allocator<std::__ndk1::basic_string<char, std::__ndk1::char_traits<char>, std::__ndk1::allocator<char> > > >::__end_cap[abi:v170000]()
FUNC 925e0 dc 0 std::__ndk1::vector<std::__ndk1::basic_string<char, std::__ndk1::char_traits<char>, std::__ndk1::allocator<char> >, std::__ndk1::allocator<std::__ndk1::basic_string<char, std::__ndk1::char_traits<char>, std::__ndk1::allocator<char> > > >::__construct_one_at_end[abi:v170000]<std::__ndk1::basic_string<char, std::__ndk1::char_traits<char>, std::__ndk1::allocator<char> > const&>(std::__ndk1::basic_string<char, std::__ndk1::char_traits<char>, std::__ndk1::allocator<char> > const&)
FUNC 926bc 128 0 std::__ndk1::vector<std::__ndk1::basic_string<char, std::__ndk1::char_traits<char>, std::__ndk1::allocator<char> >, std::__ndk1::allocator<std::__ndk1::basic_string<char, std::__ndk1::char_traits<char>, std::__ndk1::allocator<char> > > >::__push_back_slow_path<std::__ndk1::basic_string<char, std::__ndk1::char_traits<char>, std::__ndk1::allocator<char> > const&>(std::__ndk1::basic_string<char, std::__ndk1::char_traits<char>, std::__ndk1::allocator<char> > const&)
FUNC 927e4 24 0 std::__ndk1::__compressed_pair<std::__ndk1::basic_string<char, std::__ndk1::char_traits<char>, std::__ndk1::allocator<char> >*, std::__ndk1::allocator<std::__ndk1::basic_string<char, std::__ndk1::char_traits<char>, std::__ndk1::allocator<char> > > >::first[abi:v170000]()
FUNC 92808 14 0 std::__ndk1::__compressed_pair_elem<std::__ndk1::basic_string<char, std::__ndk1::char_traits<char>, std::__ndk1::allocator<char> >*, 0, false>::__get[abi:v170000]()
FUNC 9281c 4c 0 std::__ndk1::vector<std::__ndk1::basic_string<char, std::__ndk1::char_traits<char>, std::__ndk1::allocator<char> >, std::__ndk1::allocator<std::__ndk1::basic_string<char, std::__ndk1::char_traits<char>, std::__ndk1::allocator<char> > > >::_ConstructTransaction::_ConstructTransaction[abi:v170000](std::__ndk1::vector<std::__ndk1::basic_string<char, std::__ndk1::char_traits<char>, std::__ndk1::allocator<char> >, std::__ndk1::allocator<std::__ndk1::basic_string<char, std::__ndk1::char_traits<char>, std::__ndk1::allocator<char> > > >&, unsigned long)
FUNC 92868 30 0 std::__ndk1::allocator_traits<std::__ndk1::allocator<std::__ndk1::basic_string<char, std::__ndk1::char_traits<char>, std::__ndk1::allocator<char> > > >::construct[abi:v170000]<std::__ndk1::basic_string<char, std::__ndk1::char_traits<char>, std::__ndk1::allocator<char> >, std::__ndk1::basic_string<char, std::__ndk1::char_traits<char>, std::__ndk1::allocator<char> > const&, void, void>(std::__ndk1::allocator<std::__ndk1::basic_string<char, std::__ndk1::char_traits<char>, std::__ndk1::allocator<char> > >&, std::__ndk1::basic_string<char, std::__ndk1::char_traits<char>, std::__ndk1::allocator<char> >*, std::__ndk1::basic_string<char, std::__ndk1::char_traits<char>, std::__ndk1::allocator<char> > const&)
FUNC 92898 28 0 std::__ndk1::vector<std::__ndk1::basic_string<char, std::__ndk1::char_traits<char>, std::__ndk1::allocator<char> >, std::__ndk1::allocator<std::__ndk1::basic_string<char, std::__ndk1::char_traits<char>, std::__ndk1::allocator<char> > > >::__alloc[abi:v170000]()
FUNC 928c0 14 0 std::__ndk1::__to_address[abi:v170000]<std::__ndk1::basic_string<char, std::__ndk1::char_traits<char>, std::__ndk1::allocator<char> > >(std::__ndk1::basic_string<char, std::__ndk1::char_traits<char>, std::__ndk1::allocator<char> >)
FUNC 928d4 20 0 std::__ndk1::vector<std::__ndk1::basic_string<char, std::__ndk1::char_traits<char>, std::__ndk1::allocator<char> >, std::__ndk1::allocator<std::__ndk1::basic_string<char, std::__ndk1::char_traits<char>, std::__ndk1::allocator<char> > > >::_ConstructTransaction::~_ConstructTransaction[abi:v170000]()
FUNC 928f4 3c 0 std::__ndk1::construct_at[abi:v170000]<std::__ndk1::basic_string<char, std::__ndk1::char_traits<char>, std::__ndk1::allocator<char> >, std::__ndk1::allocator<char> const&, std::__ndk1::allocator<char>*>(std::__ndk1::basic_string<char, std::__ndk1::char_traits<char>, std::__ndk1::allocator<char> >, std::__ndk1::allocator<char> const&)
FUNC 92930 24 0 std::__ndk1::__compressed_pair<std::__ndk1::basic_string<char, std::__ndk1::char_traits<char>, std::__ndk1::allocator<char> >*, std::__ndk1::allocator<std::__ndk1::basic_string<char, std::__ndk1::char_traits<char>, std::__ndk1::allocator<char> > > >::second[abi:v170000]()
FUNC 92954 14 0 std::__ndk1::__compressed_pair_elem<std::__ndk1::allocator<std::__ndk1::basic_string<char, std::__ndk1::char_traits<char>, std::__ndk1::allocator<char> > >, 1, true>::__get[abi:v170000]()
FUNC 92968 ec 0 std::__ndk1::vector<std::__ndk1::basic_string<char, std::__ndk1::char_traits<char>, std::__ndk1::allocator<char> >, std::__ndk1::allocator<std::__ndk1::basic_string<char, std::__ndk1::char_traits<char>, std::__ndk1::allocator<char> > > >::__recommend[abi:v170000](unsigned long) const
FUNC 92a54 28 0 std::__ndk1::vector<std::__ndk1::basic_string<char, std::__ndk1::char_traits<char>, std::__ndk1::allocator<char> >, std::__ndk1::allocator<std::__ndk1::basic_string<char, std::__ndk1::char_traits<char>, std::__ndk1::allocator<char> > > >::size[abi:v170000]() const
FUNC 92a7c 100 0 std::__ndk1::__split_buffer<std::__ndk1::basic_string<char, std::__ndk1::char_traits<char>, std::__ndk1::allocator<char> >, std::__ndk1::allocator<std::__ndk1::basic_string<char, std::__ndk1::char_traits<char>, std::__ndk1::allocator<char> > >&>::__split_buffer(unsigned long, unsigned long, std::__ndk1::allocator<std::__ndk1::basic_string<char, std::__ndk1::char_traits<char>, std::__ndk1::allocator<char> > >&)
FUNC 92b7c 13c 0 std::__ndk1::vector<std::__ndk1::basic_string<char, std::__ndk1::char_traits<char>, std::__ndk1::allocator<char> >, std::__ndk1::allocator<std::__ndk1::basic_string<char, std::__ndk1::char_traits<char>, std::__ndk1::allocator<char> > > >::__swap_out_circular_buffer(std::__ndk1::__split_buffer<std::__ndk1::basic_string<char, std::__ndk1::char_traits<char>, std::__ndk1::allocator<char> >, std::__ndk1::allocator<std::__ndk1::basic_string<char, std::__ndk1::char_traits<char>, std::__ndk1::allocator<char> > >&>&)
FUNC 92cb8 80 0 std::__ndk1::__split_buffer<std::__ndk1::basic_string<char, std::__ndk1::char_traits<char>, std::__ndk1::allocator<char> >, std::__ndk1::allocator<std::__ndk1::basic_string<char, std::__ndk1::char_traits<char>, std::__ndk1::allocator<char> > >&>::~__split_buffer()
FUNC 92d38 84 0 std::__ndk1::vector<std::__ndk1::basic_string<char, std::__ndk1::char_traits<char>, std::__ndk1::allocator<char> >, std::__ndk1::allocator<std::__ndk1::basic_string<char, std::__ndk1::char_traits<char>, std::__ndk1::allocator<char> > > >::max_size() const
FUNC 92dbc 1c 0 std::__ndk1::vector<std::__ndk1::basic_string<char, std::__ndk1::char_traits<char>, std::__ndk1::allocator<char> >, std::__ndk1::allocator<std::__ndk1::basic_string<char, std::__ndk1::char_traits<char>, std::__ndk1::allocator<char> > > >::__throw_length_error[abi:v170000]() const
FUNC 92dd8 40 0 std::__ndk1::vector<std::__ndk1::basic_string<char, std::__ndk1::char_traits<char>, std::__ndk1::allocator<char> >, std::__ndk1::allocator<std::__ndk1::basic_string<char, std::__ndk1::char_traits<char>, std::__ndk1::allocator<char> > > >::capacity[abi:v170000]() const
FUNC 92e18 30 0 std::__ndk1::max[abi:v170000]<unsigned long>(unsigned long const, unsigned long const)
FUNC 92e48 30 0 std::__ndk1::min[abi:v170000]<unsigned long>(unsigned long const, unsigned long const)
FUNC 92e78 28 0 std::__ndk1::allocator_traits<std::__ndk1::allocator<std::__ndk1::basic_string<char, std::__ndk1::char_traits<char>, std::__ndk1::allocator<char> > > >::max_size[abi:v170000]<std::__ndk1::allocator<std::__ndk1::basic_string<char, std::__ndk1::char_traits<char>, std::__ndk1::allocator<char> > >, void, void>(std::__ndk1::allocator<std::__ndk1::basic_string<char, std::__ndk1::char_traits<char>, std::__ndk1::allocator<char> > > const&)
FUNC 92ea0 28 0 std::__ndk1::vector<std::__ndk1::basic_string<char, std::__ndk1::char_traits<char>, std::__ndk1::allocator<char> >, std::__ndk1::allocator<std::__ndk1::basic_string<char, std::__ndk1::char_traits<char>, std::__ndk1::allocator<char> > > >::__alloc[abi:v170000]() const
FUNC 92ec8 14 0 std::__ndk1::numeric_limits<long>::max[abi:v170000]()
FUNC 92edc 88 0 std::__ndk1::min[abi:v170000]<unsigned long, std::__ndk1::__less<unsigned long, unsigned long> >(unsigned long const, unsigned long const, std::__ndk1::__less<unsigned long, unsigned long>)
FUNC 92f64 34 0 std::__ndk1::__less<unsigned long, unsigned long>::operator()[abi:v170000](unsigned long const&, unsigned long const) const
FUNC 92f98 24 0 std::__ndk1::__compressed_pair<std::__ndk1::basic_string<char, std::__ndk1::char_traits<char>, std::__ndk1::allocator<char> >*, std::__ndk1::allocator<std::__ndk1::basic_string<char, std::__ndk1::char_traits<char>, std::__ndk1::allocator<char> > > >::second[abi:v170000]() const
FUNC 92fbc 14 0 std::__ndk1::__compressed_pair_elem<std::__ndk1::allocator<std::__ndk1::basic_string<char, std::__ndk1::char_traits<char>, std::__ndk1::allocator<char> > >, 1, true>::__get[abi:v170000]() const
FUNC 92fd0 8 0 std::__ndk1::__libcpp_numeric_limits<long, true>::max[abi:v170000]()
FUNC 92fd8 28 0 std::__ndk1::vector<std::__ndk1::basic_string<char, std::__ndk1::char_traits<char>, std::__ndk1::allocator<char> >, std::__ndk1::allocator<std::__ndk1::basic_string<char, std::__ndk1::char_traits<char>, std::__ndk1::allocator<char> > > >::__end_cap[abi:v170000]() const
FUNC 93000 24 0 std::__ndk1::__compressed_pair<std::__ndk1::basic_string<char, std::__ndk1::char_traits<char>, std::__ndk1::allocator<char> >*, std::__ndk1::allocator<std::__ndk1::basic_string<char, std::__ndk1::char_traits<char>, std::__ndk1::allocator<char> > > >::first[abi:v170000]() const
FUNC 93024 14 0 std::__ndk1::__compressed_pair_elem<std::__ndk1::basic_string<char, std::__ndk1::char_traits<char>, std::__ndk1::allocator<char> >*, 0, false>::__get[abi:v170000]() const
FUNC 93038 88 0 std::__ndk1::max[abi:v170000]<unsigned long, std::__ndk1::__less<unsigned long, unsigned long> >(unsigned long const, unsigned long const, std::__ndk1::__less<unsigned long, unsigned long>)
FUNC 930c0 44 0 std::__ndk1::__compressed_pair<std::__ndk1::basic_string<char, std::__ndk1::char_traits<char>, std::__ndk1::allocator<char> >*, std::__ndk1::allocator<std::__ndk1::basic_string<char, std::__ndk1::char_traits<char>, std::__ndk1::allocator<char> > >&>::__compressed_pair[abi:v170000]<std::nullptr_t, std::__ndk1::allocator<std::__ndk1::basic_string<char, std::__ndk1::char_traits<char>, std::__ndk1::allocator<char> > >&>(std::__ndk1::allocator<std::__ndk1::basic_string<char, std::__ndk1::char_traits<char>, std::__ndk1::allocator<char> > >&)
FUNC 93104 40 0 std::__ndk1::__allocate_at_least[abi:v170000]<std::__ndk1::allocator<std::__ndk1::basic_string<char, std::__ndk1::char_traits<char>, std::__ndk1::__allocate_at_least[abi:v170000]<char> > > >(std::__ndk1::allocator_traits&, unsigned long)
FUNC 93144 28 0 std::__ndk1::__split_buffer<std::__ndk1::basic_string<char, std::__ndk1::char_traits<char>, std::__ndk1::allocator<char> >, std::__ndk1::allocator<std::__ndk1::basic_string<char, std::__ndk1::char_traits<char>, std::__ndk1::allocator<char> > >&>::__alloc[abi:v170000]()
FUNC 9316c 28 0 std::__ndk1::__split_buffer<std::__ndk1::basic_string<char, std::__ndk1::char_traits<char>, std::__ndk1::allocator<char> >, std::__ndk1::allocator<std::__ndk1::basic_string<char, std::__ndk1::char_traits<char>, std::__ndk1::allocator<char> > >&>::__end_cap[abi:v170000]()
FUNC 93194 20 0 std::__ndk1::__compressed_pair_elem<std::__ndk1::allocator<std::__ndk1::basic_string<char, std::__ndk1::char_traits<char>, std::__ndk1::allocator<char> > >&, 1, false>::__compressed_pair_elem[abi:v170000]<std::__ndk1::allocator<std::__ndk1::basic_string<char, std::__ndk1::char_traits<char>, std::__ndk1::allocator<char> > >&, void>()
FUNC 931b4 5c 0 std::__ndk1::allocator<std::__ndk1::basic_string<char, std::__ndk1::char_traits<char>, std::__ndk1::allocator<char> > >::allocate[abi:v170000](unsigned long)
FUNC 93210 28 0 std::__ndk1::__compressed_pair<std::__ndk1::basic_string<char, std::__ndk1::char_traits<char>, std::__ndk1::allocator<char> >*, std::__ndk1::allocator<std::__ndk1::basic_string<char, std::__ndk1::char_traits<char>, std::__ndk1::allocator<char> > >&>::second[abi:v170000]()
FUNC 93238 18 0 std::__ndk1::__compressed_pair_elem<std::__ndk1::allocator<std::__ndk1::basic_string<char, std::__ndk1::char_traits<char>, std::__ndk1::allocator<char> > >&, 1, false>::__get[abi:v170000]()
FUNC 93250 24 0 std::__ndk1::__compressed_pair<std::__ndk1::basic_string<char, std::__ndk1::char_traits<char>, std::__ndk1::allocator<char> >*, std::__ndk1::allocator<std::__ndk1::basic_string<char, std::__ndk1::char_traits<char>, std::__ndk1::allocator<char> > >&>::first[abi:v170000]()
FUNC 93274 d4 0 std::__ndk1::vector<std::__ndk1::basic_string<char, std::__ndk1::char_traits<char>, std::__ndk1::allocator<char> >, std::__ndk1::allocator<std::__ndk1::basic_string<char, std::__ndk1::char_traits<char>, std::__ndk1::allocator<char> > > >::__annotate_delete[abi:v170000]() const
FUNC 93348 17c 0 std::__ndk1::__uninitialized_allocator_move_if_noexcept[abi:v170000]<std::__ndk1::allocator<std::__ndk1::basic_string<char, std::__ndk1::char_traits<char>, std::__ndk1::__uninitialized_allocator_move_if_noexcept[abi:v170000]<char> > >, std::__ndk1::reverse_iterator<std::__ndk1::__uninitialized_allocator_move_if_noexcept[abi:v170000]<char>*>, std::__ndk1::__uninitialized_allocator_move_if_noexcept[abi:v170000]<char>*, std::__ndk1::__uninitialized_allocator_move_if_noexcept[abi:v170000]<char>*>(std::__ndk1::allocator<std::__ndk1::basic_string<char, std::__ndk1::char_traits<char>, std::__ndk1::__uninitialized_allocator_move_if_noexcept[abi:v170000]<char> > >&, std::__ndk1::reverse_iterator<std::__ndk1::__uninitialized_allocator_move_if_noexcept[abi:v170000]<char>*>, std::__ndk1::__uninitialized_allocator_move_if_noexcept[abi:v170000]<char>*, std::__ndk1::reverse_iterator<std::__ndk1::__uninitialized_allocator_move_if_noexcept[abi:v170000]<char>*>)
FUNC 934c4 28 0 std::__ndk1::reverse_iterator<std::__ndk1::basic_string<char, std::__ndk1::char_traits<char>, std::__ndk1::allocator<char> >*>::reverse_iterator[abi:v170000](std::__ndk1::basic_string<char, std::__ndk1::char_traits<char>, std::__ndk1::allocator<char> >*)
FUNC 934ec 18 0 std::__ndk1::reverse_iterator<std::__ndk1::basic_string<char, std::__ndk1::char_traits<char>, std::__ndk1::allocator<char> >*>::base[abi:v170000]() const
FUNC 93504 3c 0 std::__ndk1::swap[abi:v170000]<std::__ndk1::basic_string<char, std::__ndk1::char_traits<char>, std::__ndk1::allocator<char> >*>(std::__ndk1::enable_if&, std::__ndk1::enable_if<(is_move_constructible<std::__ndk1::basic_string<char, std::__ndk1::char_traits<char>, std::__ndk1::allocator<char> >*>::value)&&(is_move_assignable<std::__ndk1::enable_if>::value), void>::type)
FUNC 93540 c8 0 std::__ndk1::vector<std::__ndk1::basic_string<char, std::__ndk1::char_traits<char>, std::__ndk1::allocator<char> >, std::__ndk1::allocator<std::__ndk1::basic_string<char, std::__ndk1::char_traits<char>, std::__ndk1::allocator<char> > > >::__annotate_new[abi:v170000](unsigned long) const
FUNC 93608 10 0 std::__ndk1::__debug_db_invalidate_all[abi:v170000]<std::__ndk1::vector<std::__ndk1::basic_string<char, std::__ndk1::char_traits<char>, std::__ndk1::allocator<char> >, std::__ndk1::char_traits<char><std::__ndk1::allocator<char> > > >(std::__ndk1::vector<std::__ndk1::basic_string<char, std::__ndk1::char_traits<char>, std::__ndk1::allocator<char> >, std::__ndk1::char_traits<char><std::__ndk1::allocator<char> > >*)
FUNC 93618 20 0 std::__ndk1::vector<std::__ndk1::basic_string<char, std::__ndk1::char_traits<char>, std::__ndk1::allocator<char> >, std::__ndk1::allocator<std::__ndk1::basic_string<char, std::__ndk1::char_traits<char>, std::__ndk1::allocator<char> > > >::__annotate_contiguous_container[abi:v170000](void const*, void const, void const, void const) const
FUNC 93638 28 0 std::__ndk1::vector<std::__ndk1::basic_string<char, std::__ndk1::char_traits<char>, std::__ndk1::allocator<char> >, std::__ndk1::allocator<std::__ndk1::basic_string<char, std::__ndk1::char_traits<char>, std::__ndk1::allocator<char> > > >::data[abi:v170000]() const
FUNC 93660 6c 0 std::__ndk1::__make_exception_guard[abi:v170000]<std::__ndk1::_AllocatorDestroyRangeReverse<std::__ndk1::allocator<std::__ndk1::basic_string<char, std::__ndk1::char_traits<char>, std::__ndk1::_AllocatorDestroyRangeReverse<char> > >, std::__ndk1::reverse_iterator<std::__ndk1::_AllocatorDestroyRangeReverse<char>*> > >(std::__ndk1::__exception_guard)
FUNC 936cc 38 0 std::__ndk1::_AllocatorDestroyRangeReverse<std::__ndk1::allocator<std::__ndk1::basic_string<char, std::__ndk1::char_traits<char>, std::__ndk1::allocator<char> > >, std::__ndk1::reverse_iterator<std::__ndk1::basic_string<char, std::__ndk1::char_traits<char>, std::__ndk1::allocator<char> >*> >::_AllocatorDestroyRangeReverse[abi:v170000](std::__ndk1::allocator<std::__ndk1::basic_string<char, std::__ndk1::char_traits<char>, std::__ndk1::allocator<char> > >&, std::__ndk1::reverse_iterator<std::__ndk1::basic_string<char, std::__ndk1::char_traits<char>, std::__ndk1::allocator<char> >*>&, std::__ndk1::allocator<std::__ndk1::basic_string<char, std::__ndk1::char_traits<char>, std::__ndk1::allocator<char> > >&)
FUNC 93704 48 0 std::__ndk1::operator!=[abi:v170000]<std::__ndk1::basic_string<char, std::__ndk1::char_traits<char>, std::__ndk1::allocator<char> >*, std::__ndk1::basic_string<char, std::__ndk1::char_traits<char>, std::__ndk1::allocator<char> > >(std::__ndk1::reverse_iterator<std::__ndk1::basic_string<char, std::__ndk1::char_traits<char>, std::__ndk1::allocator<char> >*> const&, std::__ndk1::basic_string<char, std::__ndk1::char_traits<char>, std::__ndk1::allocator<char> >*<std::__ndk1::basic_string<char, std::__ndk1::char_traits<char>, std::__ndk1::allocator<char> > > const&)
FUNC 9374c 30 0 std::__ndk1::allocator_traits<std::__ndk1::allocator<std::__ndk1::basic_string<char, std::__ndk1::char_traits<char>, std::__ndk1::allocator<char> > > >::construct[abi:v170000]<std::__ndk1::basic_string<char, std::__ndk1::char_traits<char>, std::__ndk1::allocator<char> >, std::__ndk1::basic_string<char, std::__ndk1::char_traits<char>, std::__ndk1::allocator<char> >, void, void>(std::__ndk1::allocator<std::__ndk1::basic_string<char, std::__ndk1::char_traits<char>, std::__ndk1::allocator<char> > >&, std::__ndk1::basic_string<char, std::__ndk1::char_traits<char>, std::__ndk1::allocator<char> >*, std::__ndk1::basic_string<char, std::__ndk1::char_traits<char>, std::__ndk1::allocator<char> >&&)
FUNC 9377c 24 0 std::__ndk1::__to_address[abi:v170000]<std::__ndk1::reverse_iterator<std::__ndk1::basic_string<char, std::__ndk1::char_traits<char>, std::__ndk1::allocator<char> >*>, void>(std::__ndk1::decay const)
FUNC 937a0 28 0 std::__ndk1::reverse_iterator<std::__ndk1::basic_string<char, std::__ndk1::char_traits<char>, std::__ndk1::allocator<char> >*>::operator*[abi:v170000]() const
FUNC 937c8 20 0 std::__ndk1::reverse_iterator<std::__ndk1::basic_string<char, std::__ndk1::char_traits<char>, std::__ndk1::allocator<char> >*>::operator++[abi:v170000]()
FUNC 937e8 1c 0 std::__ndk1::__exception_guard<std::__ndk1::_AllocatorDestroyRangeReverse<std::__ndk1::allocator<std::__ndk1::basic_string<char, std::__ndk1::char_traits<char>, std::__ndk1::allocator<char> > >, std::__ndk1::reverse_iterator<std::__ndk1::basic_string<char, std::__ndk1::char_traits<char>, std::__ndk1::allocator<char> >*> > >::__complete[abi:v170000]()
FUNC 93804 44 0 std::__ndk1::__exception_guard<std::__ndk1::_AllocatorDestroyRangeReverse<std::__ndk1::allocator<std::__ndk1::basic_string<char, std::__ndk1::char_traits<char>, std::__ndk1::allocator<char> > >, std::__ndk1::reverse_iterator<std::__ndk1::basic_string<char, std::__ndk1::char_traits<char>, std::__ndk1::allocator<char> >*> > >::~__exception_guard[abi:v170000]()
FUNC 93848 28 0 std::__ndk1::__exception_guard<std::__ndk1::_AllocatorDestroyRangeReverse<std::__ndk1::allocator<std::__ndk1::basic_string<char, std::__ndk1::char_traits<char>, std::__ndk1::allocator<char> > >, std::__ndk1::reverse_iterator<std::__ndk1::basic_string<char, std::__ndk1::char_traits<char>, std::__ndk1::allocator<char> >*> > >::__exception_guard[abi:v170000](std::__ndk1::_AllocatorDestroyRangeReverse<std::__ndk1::allocator<std::__ndk1::basic_string<char, std::__ndk1::char_traits<char>, std::__ndk1::allocator<char> > >, std::__ndk1::reverse_iterator<std::__ndk1::basic_string<char, std::__ndk1::char_traits<char>, std::__ndk1::allocator<char> >*> >)
FUNC 93870 3c 0 std::__ndk1::construct_at[abi:v170000]<std::__ndk1::basic_string<char, std::__ndk1::char_traits<char>, std::__ndk1::allocator<char> >, std::__ndk1::allocator<char>, std::__ndk1::allocator<char>*>(std::__ndk1::basic_string<char, std::__ndk1::char_traits<char>, std::__ndk1::allocator<char> >, std::__ndk1::allocator<char>&&)
FUNC 938ac 74 0 std::__ndk1::basic_string<char, std::__ndk1::char_traits<char>, std::__ndk1::allocator<char> >::basic_string[abi:v170000](std::__ndk1::basic_string<char, std::__ndk1::char_traits<char>, std::__ndk1::allocator<char> >&&)
FUNC 93920 14 0 std::__ndk1::__debug_db_swap[abi:v170000]<std::__ndk1::basic_string<char, std::__ndk1::char_traits<char>, std::__ndk1::allocator<char> > >(std::__ndk1::basic_string<char, std::__ndk1::char_traits<char>, std::__ndk1::allocator<char> >*, std::__ndk1::basic_string<char, std::__ndk1::char_traits<char>, std::__ndk1::allocator<char> >)
FUNC 93934 38 0 std::__ndk1::__to_address_helper<std::__ndk1::reverse_iterator<std::__ndk1::basic_string<char, std::__ndk1::char_traits<char>, std::__ndk1::allocator<char> >*>, void>::__call[abi:v170000](std::__ndk1::reverse_iterator<std::__ndk1::basic_string<char, std::__ndk1::char_traits<char>, std::__ndk1::allocator<char> >*> const&)
FUNC 9396c 2c 0 std::__ndk1::reverse_iterator<std::__ndk1::basic_string<char, std::__ndk1::char_traits<char>, std::__ndk1::allocator<char> >*>::operator->[abi:v170000]() const
FUNC 93998 90 0 std::__ndk1::prev[abi:v170000]<std::__ndk1::basic_string<char, std::__ndk1::char_traits<char>, std::__ndk1::allocator<char> >*>(std::__ndk1::enable_if, std::__ndk1::iterator_traits<std::__ndk1::enable_if>::difference_type)
FUNC 93a28 54 0 std::__ndk1::advance[abi:v170000]<std::__ndk1::basic_string<char, std::__ndk1::char_traits<char>, std::__ndk1::allocator<char> >*, long, long, void>(std::__ndk1::basic_string<char, std::__ndk1::char_traits<char>, std::__ndk1::allocator<char> >*&, long)
FUNC 93a7c 14 0 std::__ndk1::__convert_to_integral[abi:v170000](long)
FUNC 93a90 34 0 std::__ndk1::__advance[abi:v170000]<std::__ndk1::basic_string<char, std::__ndk1::char_traits<char>, std::__ndk1::allocator<char> >*>(std::__ndk1::basic_string<char, std::__ndk1::char_traits<char>, std::__ndk1::allocator<char> >*&, std::__ndk1::iterator_traits<std::__ndk1::basic_string<char, std::__ndk1::char_traits<char>, std::__ndk1::allocator<char> >*>::difference_type, std::__ndk1::random_access_iterator_tag)
FUNC 93ac4 ac 0 std::__ndk1::_AllocatorDestroyRangeReverse<std::__ndk1::allocator<std::__ndk1::basic_string<char, std::__ndk1::char_traits<char>, std::__ndk1::allocator<char> > >, std::__ndk1::reverse_iterator<std::__ndk1::basic_string<char, std::__ndk1::char_traits<char>, std::__ndk1::allocator<char> >*> >::operator()[abi:v170000]() const
FUNC 93b70 68 0 std::__ndk1::__allocator_destroy[abi:v170000]<std::__ndk1::allocator<std::__ndk1::basic_string<char, std::__ndk1::char_traits<char>, std::__ndk1::__allocator_destroy[abi:v170000]<char> > >, std::__ndk1::reverse_iterator<std::__ndk1::allocator<std::__ndk1::basic_string<char, std::__ndk1::char_traits<char>, std::__ndk1::__allocator_destroy[abi:v170000]<char> > ><std::__ndk1::__allocator_destroy[abi:v170000]<char>*> >, std::__ndk1::allocator<std::__ndk1::basic_string<char, std::__ndk1::char_traits<char>, std::__ndk1::__allocator_destroy[abi:v170000]<char> > ><std::__ndk1::__allocator_destroy[abi:v170000]<char>*> >(std::__ndk1::allocator<std::__ndk1::basic_string<char, std::__ndk1::char_traits<char>, std::__ndk1::__allocator_destroy[abi:v170000]<char> > >&, std::__ndk1::reverse_iterator<std::__ndk1::allocator<std::__ndk1::basic_string<char, std::__ndk1::char_traits<char>, std::__ndk1::__allocator_destroy[abi:v170000]<char> > ><std::__ndk1::__allocator_destroy[abi:v170000]<char>*> >, std::__ndk1::allocator<std::__ndk1::basic_string<char, std::__ndk1::char_traits<char>, std::__ndk1::__allocator_destroy[abi:v170000]<char> > ><std::__ndk1::__allocator_destroy[abi:v170000]<char>*>)
FUNC 93bd8 5c 0 std::__ndk1::reverse_iterator<std::__ndk1::reverse_iterator<std::__ndk1::basic_string<char, std::__ndk1::char_traits<char>, std::__ndk1::allocator<char> >*> >::reverse_iterator[abi:v170000](std::__ndk1::reverse_iterator<std::__ndk1::basic_string<char, std::__ndk1::char_traits<char>, std::__ndk1::allocator<char> >*>)
FUNC 93c34 84 0 std::__ndk1::operator!=[abi:v170000]<std::__ndk1::reverse_iterator<std::__ndk1::basic_string<char, std::__ndk1::char_traits<char>, std::__ndk1::allocator<char> >*>, std::__ndk1::basic_string<char, std::__ndk1::char_traits<char>, std::__ndk1::allocator<char> >*>(std::__ndk1::operator!=[abi:v170000]<std::__ndk1::reverse_iterator<std::__ndk1::basic_string<char, std::__ndk1::char_traits<char>, std::__ndk1::allocator<char> >*> > const&, std::__ndk1::operator!=[abi:v170000]<std::__ndk1::basic_string<char, std::__ndk1::char_traits<char>, std::__ndk1::allocator<char> >*> const&)
FUNC 93cb8 28 0 std::__ndk1::allocator_traits<std::__ndk1::allocator<std::__ndk1::basic_string<char, std::__ndk1::char_traits<char>, std::__ndk1::allocator<char> > > >::destroy[abi:v170000]<std::__ndk1::basic_string<char, std::__ndk1::char_traits<char>, std::__ndk1::allocator<char> >, void, void>(std::__ndk1::allocator<std::__ndk1::basic_string<char, std::__ndk1::char_traits<char>, std::__ndk1::allocator<char> > >&, std::__ndk1::basic_string<char, std::__ndk1::char_traits<char>, std::__ndk1::allocator<char> >*)
FUNC 93ce0 24 0 std::__ndk1::__to_address[abi:v170000]<std::__ndk1::reverse_iterator<std::__ndk1::__to_address[abi:v170000]<std::__ndk1::basic_string<char, std::__ndk1::char_traits<char>, std::__ndk1::allocator<char> >*> >, void>(std::__ndk1::decay const)
FUNC 93d04 30 0 std::__ndk1::reverse_iterator<std::__ndk1::reverse_iterator<std::__ndk1::basic_string<char, std::__ndk1::char_traits<char>, std::__ndk1::allocator<char> >*> >::operator++[abi:v170000]()
FUNC 93d34 64 0 std::__ndk1::reverse_iterator<std::__ndk1::reverse_iterator<std::__ndk1::basic_string<char, std::__ndk1::char_traits<char>, std::__ndk1::allocator<char> >*> >::base[abi:v170000]() const
FUNC 93d98 24 0 std::__ndk1::destroy_at[abi:v170000]<std::__ndk1::basic_string<char, std::__ndk1::char_traits<char>, std::__ndk1::allocator<char> >, 0>(std::__ndk1::basic_string<char, std::__ndk1::char_traits<char>, std::__ndk1::allocator<char> >*)
FUNC 93dbc 24 0 std::__ndk1::__destroy_at[abi:v170000]<std::__ndk1::basic_string<char, std::__ndk1::char_traits<char>, std::__ndk1::allocator<char> >, 0>(std::__ndk1::basic_string<char, std::__ndk1::char_traits<char>, std::__ndk1::allocator<char> >*)
FUNC 93de0 38 0 std::__ndk1::__to_address_helper<std::__ndk1::reverse_iterator<std::__ndk1::reverse_iterator<std::__ndk1::basic_string<char, std::__ndk1::char_traits<char>, std::__ndk1::allocator<char> >*> >, void>::__call[abi:v170000](std::__ndk1::reverse_iterator<std::__ndk1::reverse_iterator<std::__ndk1::basic_string<char, std::__ndk1::char_traits<char>, std::__ndk1::allocator<char> >*> > const&)
FUNC 93e18 80 0 std::__ndk1::reverse_iterator<std::__ndk1::reverse_iterator<std::__ndk1::basic_string<char, std::__ndk1::char_traits<char>, std::__ndk1::allocator<char> >*> >::operator->[abi:v170000]() const
FUNC 93e98 a8 0 std::__ndk1::prev[abi:v170000]<std::__ndk1::reverse_iterator<std::__ndk1::basic_string<char, std::__ndk1::char_traits<char>, std::__ndk1::allocator<char> >*> >(std::__ndk1::enable_if, std::__ndk1::iterator_traits<std::__ndk1::enable_if>::difference_type)
FUNC 93f40 54 0 std::__ndk1::advance[abi:v170000]<std::__ndk1::reverse_iterator<std::__ndk1::basic_string<char, std::__ndk1::char_traits<char>, std::__ndk1::allocator<char> >*>, long, long, void>(std::__ndk1::reverse_iterator<std::__ndk1::basic_string<char, std::__ndk1::char_traits<char>, std::__ndk1::allocator<char> >*>&, long)
FUNC 93f94 30 0 std::__ndk1::__advance[abi:v170000]<std::__ndk1::reverse_iterator<std::__ndk1::basic_string<char, std::__ndk1::char_traits<char>, std::__ndk1::allocator<char> >*> >(std::__ndk1::reverse_iterator<std::__ndk1::basic_string<char, std::__ndk1::char_traits<char>, std::__ndk1::allocator<char> >*>&, std::__ndk1::iterator_traits<std::__ndk1::reverse_iterator<std::__ndk1::basic_string<char, std::__ndk1::char_traits<char>, std::__ndk1::allocator<char> >*> >::difference_type, std::__ndk1::random_access_iterator_tag)
FUNC 93fc4 30 0 std::__ndk1::reverse_iterator<std::__ndk1::basic_string<char, std::__ndk1::char_traits<char>, std::__ndk1::allocator<char> >*>::operator+=[abi:v170000](long)
FUNC 93ff4 20 0 std::__ndk1::reverse_iterator<std::__ndk1::basic_string<char, std::__ndk1::char_traits<char>, std::__ndk1::allocator<char> >*>::operator--[abi:v170000]()
FUNC 94014 28 0 std::__ndk1::__split_buffer<std::__ndk1::basic_string<char, std::__ndk1::char_traits<char>, std::__ndk1::allocator<char> >, std::__ndk1::allocator<std::__ndk1::basic_string<char, std::__ndk1::char_traits<char>, std::__ndk1::allocator<char> > >&>::clear[abi:v170000]()
FUNC 9403c 34 0 std::__ndk1::allocator_traits<std::__ndk1::allocator<std::__ndk1::basic_string<char, std::__ndk1::char_traits<char>, std::__ndk1::allocator<char> > > >::deallocate[abi:v170000](std::__ndk1::allocator<std::__ndk1::basic_string<char, std::__ndk1::char_traits<char>, std::__ndk1::allocator<char> > >&, std::__ndk1::basic_string<char, std::__ndk1::char_traits<char>, std::__ndk1::allocator<char> >*, unsigned long)
FUNC 94070 40 0 std::__ndk1::__split_buffer<std::__ndk1::basic_string<char, std::__ndk1::char_traits<char>, std::__ndk1::allocator<char> >, std::__ndk1::allocator<std::__ndk1::basic_string<char, std::__ndk1::char_traits<char>, std::__ndk1::allocator<char> > >&>::capacity[abi:v170000]() const
FUNC 940b0 30 0 std::__ndk1::__split_buffer<std::__ndk1::basic_string<char, std::__ndk1::char_traits<char>, std::__ndk1::allocator<char> >, std::__ndk1::allocator<std::__ndk1::basic_string<char, std::__ndk1::char_traits<char>, std::__ndk1::allocator<char> > >&>::__destruct_at_end[abi:v170000](std::__ndk1::basic_string<char, std::__ndk1::char_traits<char>, std::__ndk1::allocator<char> >*)
FUNC 940e0 84 0 std::__ndk1::__split_buffer<std::__ndk1::basic_string<char, std::__ndk1::char_traits<char>, std::__ndk1::allocator<char> >, std::__ndk1::allocator<std::__ndk1::basic_string<char, std::__ndk1::char_traits<char>, std::__ndk1::allocator<char> > >&>::__destruct_at_end[abi:v170000](std::__ndk1::basic_string<char, std::__ndk1::char_traits<char>, std::__ndk1::allocator<char> >*, std::__ndk1::integral_constant<bool, false>)
FUNC 94164 44 0 std::__ndk1::allocator<std::__ndk1::basic_string<char, std::__ndk1::char_traits<char>, std::__ndk1::allocator<char> > >::deallocate[abi:v170000](std::__ndk1::basic_string<char, std::__ndk1::char_traits<char>, std::__ndk1::allocator<char> >*, unsigned long)
FUNC 941a8 60 0 std::__ndk1::__libcpp_deallocate[abi:v170000](void*, unsigned long, unsigned long)
FUNC 94208 30 0 std::__ndk1::__do_deallocate_handle_size[abi:v170000]<std::align_val_t>(void*, unsigned long, std::align_val_t)
FUNC 94238 28 0 std::__ndk1::__do_deallocate_handle_size[abi:v170000]<>(void*, unsigned long, )
FUNC 94260 2c 0 std::__ndk1::__libcpp_operator_delete[abi:v170000]<void*, std::align_val_t>(void*, std::align_val_t)
FUNC 9428c 24 0 std::__ndk1::__libcpp_operator_delete[abi:v170000]<void*>(void*)
FUNC 942b0 28 0 std::__ndk1::__split_buffer<std::__ndk1::basic_string<char, std::__ndk1::char_traits<char>, std::__ndk1::allocator<char> >, std::__ndk1::allocator<std::__ndk1::basic_string<char, std::__ndk1::char_traits<char>, std::__ndk1::allocator<char> > >&>::__end_cap[abi:v170000]() const
FUNC 942d8 24 0 std::__ndk1::__compressed_pair<std::__ndk1::basic_string<char, std::__ndk1::char_traits<char>, std::__ndk1::allocator<char> >*, std::__ndk1::allocator<std::__ndk1::basic_string<char, std::__ndk1::char_traits<char>, std::__ndk1::allocator<char> > >&>::first[abi:v170000]() const
FUNC 942fc 24 0 geode::impl::ResultDataWrapper<geode::Hook*, std::__ndk1::basic_string<char, std::__ndk1::char_traits<char>, std::__ndk1::allocator<char> > >::~ResultDataWrapper()
FUNC 94320 24 0 geode::impl::ResultData<geode::Hook*, std::__ndk1::basic_string<char, std::__ndk1::char_traits<char>, std::__ndk1::allocator<char> > >::~ResultData()
FUNC 94344 24 0 std::__ndk1::variant<geode::Hook*, std::__ndk1::basic_string<char, std::__ndk1::char_traits<char>, std::__ndk1::allocator<char> > >::~variant()
FUNC 94368 24 0 std::__ndk1::__variant_detail::__impl<geode::Hook*, std::__ndk1::basic_string<char, std::__ndk1::char_traits<char>, std::__ndk1::allocator<char> > >::~__impl()
FUNC 9438c 24 0 std::__ndk1::__variant_detail::__copy_assignment<std::__ndk1::__variant_detail::__traits<geode::Hook*, std::__ndk1::basic_string<char, std::__ndk1::char_traits<char>, std::__ndk1::allocator<char> > >, (std::__ndk1::__variant_detail::_Trait)1>::~__copy_assignment()
FUNC 943b0 24 0 std::__ndk1::__variant_detail::__move_assignment<std::__ndk1::__variant_detail::__traits<geode::Hook*, std::__ndk1::basic_string<char, std::__ndk1::char_traits<char>, std::__ndk1::allocator<char> > >, (std::__ndk1::__variant_detail::_Trait)1>::~__move_assignment()
FUNC 943d4 24 0 std::__ndk1::__variant_detail::__assignment<std::__ndk1::__variant_detail::__traits<geode::Hook*, std::__ndk1::basic_string<char, std::__ndk1::char_traits<char>, std::__ndk1::allocator<char> > > >::~__assignment()
FUNC 943f8 24 0 std::__ndk1::__variant_detail::__copy_constructor<std::__ndk1::__variant_detail::__traits<geode::Hook*, std::__ndk1::basic_string<char, std::__ndk1::char_traits<char>, std::__ndk1::allocator<char> > >, (std::__ndk1::__variant_detail::_Trait)1>::~__copy_constructor()
FUNC 9441c 24 0 std::__ndk1::__variant_detail::__move_constructor<std::__ndk1::__variant_detail::__traits<geode::Hook*, std::__ndk1::basic_string<char, std::__ndk1::char_traits<char>, std::__ndk1::allocator<char> > >, (std::__ndk1::__variant_detail::_Trait)1>::~__move_constructor()
FUNC 94440 24 0 std::__ndk1::__variant_detail::__ctor<std::__ndk1::__variant_detail::__traits<geode::Hook*, std::__ndk1::basic_string<char, std::__ndk1::char_traits<char>, std::__ndk1::allocator<char> > > >::~__ctor()
FUNC 94464 30 0 std::__ndk1::__variant_detail::__dtor<std::__ndk1::__variant_detail::__traits<geode::Hook*, std::__ndk1::basic_string<char, std::__ndk1::char_traits<char>, std::__ndk1::allocator<char> > >, (std::__ndk1::__variant_detail::_Trait)1>::~__dtor()
FUNC 94494 80 0 std::__ndk1::__variant_detail::__dtor<std::__ndk1::__variant_detail::__traits<geode::Hook*, std::__ndk1::basic_string<char, std::__ndk1::char_traits<char>, std::__ndk1::allocator<char> > >, (std::__ndk1::__variant_detail::_Trait)1>::__destroy[abi:v170000]()
FUNC 94514 24 0 std::__ndk1::__variant_detail::__base<(std::__ndk1::__variant_detail::_Trait)1, geode::Hook*, std::__ndk1::basic_string<char, std::__ndk1::char_traits<char>, std::__ndk1::allocator<char> > >::~__base()
FUNC 94538 30 0 std::__ndk1::__variant_detail::__base<(std::__ndk1::__variant_detail::_Trait)1, geode::Hook*, std::__ndk1::basic_string<char, std::__ndk1::char_traits<char>, std::__ndk1::allocator<char> > >::valueless_by_exception[abi:v170000]() const
FUNC 94568 98 0 std::__ndk1::__variant_detail::__visitation::__base::__visit_alt[abi:v170000]<std::__ndk1::__variant_detail::__dtor<std::__ndk1::__variant_detail::__traits<geode::Hook*, std::__ndk1::basic_string<char, std::__ndk1::char_traits<char>, std::__ndk1::allocator<char> > >, (std::__ndk1::__variant_detail::_Trait)1>::__destroy[abi:v170000]()::{lambda(auto:1&)#1}, std::__ndk1::__variant_detail::_Trait&>(std::__ndk1::__variant_detail::__dtor<std::__ndk1::__variant_detail::__traits<geode::Hook*, std::__ndk1::basic_string<char, std::__ndk1::char_traits<char>, std::__ndk1::allocator<char> > >, (std::__ndk1::__variant_detail::_Trait)1>&&, std::__ndk1::__variant_detail::_Trait&)
FUNC 94600 3c 0 std::__ndk1::__variant_detail::__visitation::__base::__dispatcher<(unsigned long)0>::__dispatch[abi:v170000]<std::__ndk1::__variant_detail::__dtor<std::__ndk1::__variant_detail::__traits<geode::Hook*, std::__ndk1::basic_string<char, std::__ndk1::char_traits<char>, std::__ndk1::allocator<char> > >, (std::__ndk1::__variant_detail::_Trait)1>::__destroy[abi:v170000]()::{lambda(auto:1&)#1}, std::__ndk1::__variant_detail::__base<(std::__ndk1::__variant_detail::__traits<geode::Hook*, std::__ndk1::basic_string<char, std::__ndk1::char_traits<char>, std::__ndk1::allocator<char> > >)1, geode::Hook, std::__ndk1::allocator<char> >&>(std::__ndk1::__variant_detail::__dtor<std::__ndk1::__variant_detail::__traits<geode::Hook*, std::__ndk1::basic_string<char, std::__ndk1::char_traits<char>, std::__ndk1::allocator<char> > >, (std::__ndk1::__variant_detail::_Trait)1>, std::__ndk1::__variant_detail::__base<(std::__ndk1::__variant_detail::__traits<geode::Hook*, std::__ndk1::basic_string<char, std::__ndk1::char_traits<char>, std::__ndk1::allocator<char> > >)1, geode::Hook, std::__ndk1::allocator<char> >&)
FUNC 9463c 3c 0 std::__ndk1::__variant_detail::__visitation::__base::__dispatcher<(unsigned long)1>::__dispatch[abi:v170000]<std::__ndk1::__variant_detail::__dtor<std::__ndk1::__variant_detail::__traits<geode::Hook*, std::__ndk1::basic_string<char, std::__ndk1::char_traits<char>, std::__ndk1::allocator<char> > >, (std::__ndk1::__variant_detail::_Trait)1>::__destroy[abi:v170000]()::{lambda(auto:1&)#1}, std::__ndk1::__variant_detail::__base<(std::__ndk1::__variant_detail::__traits<geode::Hook*, std::__ndk1::basic_string<char, std::__ndk1::char_traits<char>, std::__ndk1::allocator<char> > >)1, geode::Hook, std::__ndk1::allocator<char> >&>(std::__ndk1::__variant_detail::__dtor<std::__ndk1::__variant_detail::__traits<geode::Hook*, std::__ndk1::basic_string<char, std::__ndk1::char_traits<char>, std::__ndk1::allocator<char> > >, (std::__ndk1::__variant_detail::_Trait)1>, std::__ndk1::__variant_detail::__base<(std::__ndk1::__variant_detail::__traits<geode::Hook*, std::__ndk1::basic_string<char, std::__ndk1::char_traits<char>, std::__ndk1::allocator<char> > >)1, geode::Hook, std::__ndk1::allocator<char> >&)
FUNC 94678 30 0 std::__ndk1::__variant_detail::__visitation::__base::__at[abi:v170000]<void (*)(std::__ndk1::__variant_detail::__dtor<std::__ndk1::__variant_detail::__traits<geode::Hook*, std::__ndk1::basic_string<char, std::__ndk1::char_traits<char>, std::__ndk1::allocator<char> > >, (std::__ndk1::__variant_detail::_Trait)1>::__destroy[abi:v170000]()::{lambda(auto:1&)#1}, std::__ndk1::__variant_detail::__base<(std::__ndk1::__variant_detail::__traits<geode::Hook*, std::__ndk1::basic_string<char, std::__ndk1::char_traits<char>, std::__ndk1::allocator<char> > >)1, geode::Hook, std::__ndk1::allocator<char> >&), (unsigned long)2, >(std::__ndk1::__farray<std::__ndk1::__variant_detail::__dtor<std::__ndk1::__variant_detail::__traits<geode::Hook*, std::__ndk1::basic_string<char, std::__ndk1::char_traits<char>, std::__ndk1::allocator<char> > >, (std::__ndk1::__variant_detail::_Trait)1>, (unsigned long)2> const&, unsigned long, )
FUNC 946a8 14 0 std::__ndk1::__variant_detail::__base<(std::__ndk1::__variant_detail::_Trait)1, geode::Hook*, std::__ndk1::basic_string<char, std::__ndk1::char_traits<char>, std::__ndk1::allocator<char> > >::__as_base[abi:v170000]() &
FUNC 946bc 2c 0 std::__ndk1::__invoke[abi:v170000]<std::__ndk1::__variant_detail::__dtor<std::__ndk1::__invoke[abi:v170000]::__traits<geode::Hook*, std::__ndk1::basic_string<char, std::__ndk1::char_traits<char>, std::__ndk1::allocator<char> > >, (std::__ndk1::__invoke[abi:v170000]::_Trait)1>::__destroy[abi:v170000]()::{lambda(auto:1&)#1}, std::__ndk1::__invoke[abi:v170000]::__alt<(unsigned long)0, geode::Hook>&>(std::__ndk1::__variant_detail::__dtor<std::__ndk1::__invoke[abi:v170000]::__traits<geode::Hook*, std::__ndk1::basic_string<char, std::__ndk1::char_traits<char>, std::__ndk1::allocator<char> > >, (std::__ndk1::__invoke[abi:v170000]::_Trait)1>&&, std::__ndk1::__invoke[abi:v170000]::__alt<(unsigned long)0, geode::Hook>&&)
FUNC 946e8 28 0 std::__ndk1::__variant_detail::__access::__base::__get_alt[abi:v170000]<(unsigned long)0, std::__ndk1::__variant_detail::__base<(std::__ndk1::__variant_detail::_Trait)1, geode::Hook*, std::__ndk1::basic_string<char, std::__ndk1::char_traits<char>, std::__ndk1::allocator<char> > >&>(std::__ndk1::__variant_detail::__base<(std::__ndk1::__variant_detail::_Trait)1, geode::Hook*, std::__ndk1::basic_string<char, std::__ndk1::char_traits<char>, std::__ndk1::allocator<char> > >&)
FUNC 94710 14 0 std::__ndk1::__variant_detail::__dtor<std::__ndk1::__variant_detail::__traits<geode::Hook*, std::__ndk1::basic_string<char, std::__ndk1::char_traits<char>, std::__ndk1::allocator<char> > >, (std::__ndk1::__variant_detail::_Trait)1>::__destroy[abi:v170000]()::{lambda(auto:1&)#1}::operator()<std::__ndk1::__variant_detail::__alt<(unsigned long)0, geode::Hook*> >(std::__ndk1::__variant_detail::__alt<(unsigned long)0, geode::Hook*>) const
FUNC 94724 2c 0 std::__ndk1::__invoke[abi:v170000]<std::__ndk1::__variant_detail::__dtor<std::__ndk1::__invoke[abi:v170000]::__traits<geode::Hook*, std::__ndk1::basic_string<char, std::__ndk1::char_traits<char>, std::__ndk1::allocator<char> > >, (std::__ndk1::__invoke[abi:v170000]::_Trait)1>::__destroy[abi:v170000]()::{lambda(auto:1&)#1}, std::__ndk1::__invoke[abi:v170000]::__alt<(unsigned long)1, std::__ndk1::allocator<char> >&>(std::__ndk1::__variant_detail::__dtor<std::__ndk1::__invoke[abi:v170000]::__traits<geode::Hook*, std::__ndk1::basic_string<char, std::__ndk1::char_traits<char>, std::__ndk1::allocator<char> > >, (std::__ndk1::__invoke[abi:v170000]::_Trait)1>&&, std::__ndk1::__invoke[abi:v170000]::__alt<(unsigned long)1, std::__ndk1::allocator<char> >&&)
FUNC 94750 28 0 std::__ndk1::__variant_detail::__access::__base::__get_alt[abi:v170000]<(unsigned long)1, std::__ndk1::__variant_detail::__base<(std::__ndk1::__variant_detail::_Trait)1, geode::Hook*, std::__ndk1::basic_string<char, std::__ndk1::char_traits<char>, std::__ndk1::allocator<char> > >&>(std::__ndk1::__variant_detail::__base<(std::__ndk1::__variant_detail::_Trait)1, geode::Hook*, std::__ndk1::basic_string<char, std::__ndk1::char_traits<char>, std::__ndk1::allocator<char> > >&)
FUNC 94778 28 0 std::__ndk1::__variant_detail::__dtor<std::__ndk1::__variant_detail::__traits<geode::Hook*, std::__ndk1::basic_string<char, std::__ndk1::char_traits<char>, std::__ndk1::allocator<char> > >, (std::__ndk1::__variant_detail::_Trait)1>::__destroy[abi:v170000]()::{lambda(auto:1&)#1}::operator()<std::__ndk1::__variant_detail::__alt<(unsigned long)1, std::__ndk1::basic_string<char, std::__ndk1::char_traits<char>, std::__ndk1::allocator<char> > > >(std::__ndk1::__variant_detail::__alt<(unsigned long)1, std::__ndk1::basic_string<char, std::__ndk1::char_traits<char>, std::__ndk1::allocator<char> > >) const
FUNC 947a0 24 0 std::__ndk1::__variant_detail::__alt<(unsigned long)1, std::__ndk1::basic_string<char, std::__ndk1::char_traits<char>, std::__ndk1::allocator<char> > >::~__alt()
FUNC 947c4 14 0 std::__ndk1::__variant_detail::__visitation::__base::__at[abi:v170000]<void (*)(std::__ndk1::__variant_detail::__dtor<std::__ndk1::__variant_detail::__traits<geode::Hook*, std::__ndk1::basic_string<char, std::__ndk1::char_traits<char>, std::__ndk1::allocator<char> > >, (std::__ndk1::__variant_detail::_Trait)1>::__destroy[abi:v170000]()::{lambda(auto:1&)#1}, std::__ndk1::__variant_detail::__base<(std::__ndk1::__variant_detail::__traits<geode::Hook*, std::__ndk1::basic_string<char, std::__ndk1::char_traits<char>, std::__ndk1::allocator<char> > >)1, geode::Hook, std::__ndk1::allocator<char> >&)>(void (*)(std::__ndk1::__variant_detail::__dtor<std::__ndk1::__variant_detail::__traits<geode::Hook*, std::__ndk1::basic_string<char, std::__ndk1::char_traits<char>, std::__ndk1::allocator<char> > >, (std::__ndk1::__variant_detail::_Trait)1>::__destroy[abi:v170000]()::{lambda(auto:1&)#1}, std::__ndk1::__variant_detail::__base<(std::__ndk1::__variant_detail::__traits<geode::Hook*, std::__ndk1::basic_string<char, std::__ndk1::char_traits<char>, std::__ndk1::allocator<char> > >)1, geode::Hook, std::__ndk1::allocator<char> >&))
FUNC 947d8 20 0 std::__ndk1::__farray<void (*)(std::__ndk1::__variant_detail::__dtor<std::__ndk1::__variant_detail::__traits<geode::Hook*, std::__ndk1::basic_string<char, std::__ndk1::char_traits<char>, std::__ndk1::allocator<char> > >, (std::__ndk1::__variant_detail::_Trait)1>::__destroy[abi:v170000]()::{lambda(auto:1&)#1}, std::__ndk1::__variant_detail::__base<(std::__ndk1::__variant_detail::_Trait)1, geode::Hook*, std::__ndk1::basic_string<char, std::__ndk1::char_traits<char>, std::__ndk1::allocator<char> > >&), (unsigned long)2>::operator[][abi:v170000](unsigned long) const
FUNC 947f8 10 0 std::__ndk1::__variant_detail::__union<(std::__ndk1::__variant_detail::_Trait)1, (unsigned long)0, geode::Hook*, std::__ndk1::basic_string<char, std::__ndk1::char_traits<char>, std::__ndk1::allocator<char> > >::~__union()
FUNC 94808 38 0 std::__ndk1::__tree_iterator<std::__ndk1::__value_type<std::__ndk1::basic_string<char, std::__ndk1::char_traits<char>, std::__ndk1::allocator<char> >, std::__ndk1::shared_ptr<geode::Hook> >, std::__ndk1::__tree_node<std::__ndk1::__value_type<std::__ndk1::basic_string<char, std::__ndk1::char_traits<char>, std::__ndk1::allocator<char> >, std::__ndk1::shared_ptr<geode::Hook> >, void*>*, long>::operator++[abi:v170000]()
FUNC 94840 90 0 std::__ndk1::__tree_next_iter[abi:v170000]<std::__ndk1::__tree_end_node<std::__ndk1::__tree_node_base<void*>*>*, std::__ndk1::__tree_node_base<void*> >(std::__ndk1::__tree_node_base<void*>)
FUNC 948d0 40 0 std::__ndk1::__tree_min[abi:v170000]<std::__ndk1::__tree_node_base<void*>*>(std::__ndk1::__tree_node_base<void*>*)
FUNC 94910 2c 0 std::__ndk1::__tree_is_left_child[abi:v170000]<std::__ndk1::__tree_node_base<void*>*>(std::__ndk1::__tree_node_base<void*>*)
FUNC 9493c 18 0 std::__ndk1::__tree_node_base<void*>::__parent_unsafe[abi:v170000]() const
FUNC 94954 68 0 std::__ndk1::vector<std::__ndk1::basic_string<char, std::__ndk1::char_traits<char>, std::__ndk1::allocator<char> >, std::__ndk1::allocator<std::__ndk1::basic_string<char, std::__ndk1::char_traits<char>, std::__ndk1::allocator<char> > > >::__make_iter[abi:v170000](std::__ndk1::basic_string<char, std::__ndk1::char_traits<char>, std::__ndk1::allocator<char> >*)
FUNC 949bc 24 0 std::__ndk1::__wrap_iter<std::__ndk1::basic_string<char, std::__ndk1::char_traits<char>, std::__ndk1::allocator<char> >*>::__wrap_iter[abi:v170000](void const*, std::__ndk1::basic_string<char, std::__ndk1::char_traits<char>, std::__ndk1::allocator<char> >*)
FUNC 949e0 48 0 std::__ndk1::operator==[abi:v170000]<std::__ndk1::basic_string<char, std::__ndk1::char_traits<char>, std::__ndk1::allocator<char> >*>(std::__ndk1::__wrap_iter<std::__ndk1::basic_string<char, std::__ndk1::char_traits<char>, std::__ndk1::allocator<char> >*> const&, std::__ndk1::__wrap_iter<std::__ndk1::basic_string<char, std::__ndk1::char_traits<char>, std::__ndk1::allocator<char> >*> const)
FUNC 94a28 18 0 std::__ndk1::__wrap_iter<std::__ndk1::basic_string<char, std::__ndk1::char_traits<char>, std::__ndk1::allocator<char> >*>::base[abi:v170000]() const
FUNC 94a40 d0 0 std::__ndk1::__tree<std::__ndk1::__value_type<std::__ndk1::basic_string<char, std::__ndk1::char_traits<char>, std::__ndk1::allocator<char> >, std::__ndk1::shared_ptr<geode::Hook> >, std::__ndk1::__map_value_compare<std::__ndk1::basic_string<char, std::__ndk1::char_traits<char>, std::__ndk1::allocator<char> >, std::__ndk1::__value_type<std::__ndk1::basic_string<char, std::__ndk1::char_traits<char>, std::__ndk1::allocator<char> >, std::__ndk1::shared_ptr<geode::Hook> >, std::__ndk1::less<std::__ndk1::basic_string<char, std::__ndk1::char_traits<char>, std::__ndk1::allocator<char> > >, true>, std::__ndk1::allocator<std::__ndk1::__value_type<std::__ndk1::basic_string<char, std::__ndk1::char_traits<char>, std::__ndk1::allocator<char> >, std::__ndk1::shared_ptr<geode::Hook> > > >::__erase_unique<std::__ndk1::basic_string<char, std::__ndk1::char_traits<char>, std::__ndk1::allocator<char> > >(std::__ndk1::basic_string<char, std::__ndk1::char_traits<char>, std::__ndk1::allocator<char> > const&)
FUNC 94b10 124 0 std::__ndk1::__tree<std::__ndk1::__value_type<std::__ndk1::basic_string<char, std::__ndk1::char_traits<char>, std::__ndk1::allocator<char> >, std::__ndk1::shared_ptr<geode::Hook> >, std::__ndk1::__map_value_compare<std::__ndk1::basic_string<char, std::__ndk1::char_traits<char>, std::__ndk1::allocator<char> >, std::__ndk1::__value_type<std::__ndk1::basic_string<char, std::__ndk1::char_traits<char>, std::__ndk1::allocator<char> >, std::__ndk1::shared_ptr<geode::Hook> >, std::__ndk1::less<std::__ndk1::basic_string<char, std::__ndk1::char_traits<char>, std::__ndk1::allocator<char> > >, true>, std::__ndk1::allocator<std::__ndk1::__value_type<std::__ndk1::basic_string<char, std::__ndk1::char_traits<char>, std::__ndk1::allocator<char> >, std::__ndk1::shared_ptr<geode::Hook> > > >::find<std::__ndk1::basic_string<char, std::__ndk1::char_traits<char>, std::__ndk1::allocator<char> > >(std::__ndk1::basic_string<char, std::__ndk1::char_traits<char>, std::__ndk1::allocator<char> > const&)
FUNC 94c34 cc 0 std::__ndk1::__tree<std::__ndk1::__value_type<std::__ndk1::basic_string<char, std::__ndk1::char_traits<char>, std::__ndk1::allocator<char> >, std::__ndk1::shared_ptr<geode::Hook> >, std::__ndk1::__map_value_compare<std::__ndk1::basic_string<char, std::__ndk1::char_traits<char>, std::__ndk1::allocator<char> >, std::__ndk1::__value_type<std::__ndk1::basic_string<char, std::__ndk1::char_traits<char>, std::__ndk1::allocator<char> >, std::__ndk1::shared_ptr<geode::Hook> >, std::__ndk1::less<std::__ndk1::basic_string<char, std::__ndk1::char_traits<char>, std::__ndk1::allocator<char> > >, true>, std::__ndk1::allocator<std::__ndk1::__value_type<std::__ndk1::basic_string<char, std::__ndk1::char_traits<char>, std::__ndk1::allocator<char> >, std::__ndk1::shared_ptr<geode::Hook> > > >::erase(std::__ndk1::__tree_const_iterator<std::__ndk1::__value_type<std::__ndk1::basic_string<char, std::__ndk1::char_traits<char>, std::__ndk1::allocator<char> >, std::__ndk1::shared_ptr<geode::Hook> >, std::__ndk1::__tree_node<std::__ndk1::__value_type<std::__ndk1::basic_string<char, std::__ndk1::char_traits<char>, std::__ndk1::allocator<char> >, std::__ndk1::shared_ptr<geode::Hook> >, void*>*, long>)
FUNC 94d00 20 0 std::__ndk1::__tree_const_iterator<std::__ndk1::__value_type<std::__ndk1::basic_string<char, std::__ndk1::char_traits<char>, std::__ndk1::allocator<char> >, std::__ndk1::shared_ptr<geode::Hook> >, std::__ndk1::__tree_node<std::__ndk1::__value_type<std::__ndk1::basic_string<char, std::__ndk1::char_traits<char>, std::__ndk1::allocator<char> >, std::__ndk1::shared_ptr<geode::Hook> >, void*>*, long>::__tree_const_iterator[abi:v170000](std::__ndk1::__tree_iterator<std::__ndk1::__value_type<std::__ndk1::basic_string<char, std::__ndk1::char_traits<char>, std::__ndk1::allocator<char> >, std::__ndk1::shared_ptr<geode::Hook> >, std::__ndk1::__tree_node<std::__ndk1::__value_type<std::__ndk1::basic_string<char, std::__ndk1::char_traits<char>, std::__ndk1::allocator<char> >, std::__ndk1::shared_ptr<geode::Hook> >, void*>*, long>)
FUNC 94d20 cc 0 std::__ndk1::__tree<std::__ndk1::__value_type<std::__ndk1::basic_string<char, std::__ndk1::char_traits<char>, std::__ndk1::allocator<char> >, std::__ndk1::shared_ptr<geode::Hook> >, std::__ndk1::__map_value_compare<std::__ndk1::basic_string<char, std::__ndk1::char_traits<char>, std::__ndk1::allocator<char> >, std::__ndk1::__value_type<std::__ndk1::basic_string<char, std::__ndk1::char_traits<char>, std::__ndk1::allocator<char> >, std::__ndk1::shared_ptr<geode::Hook> >, std::__ndk1::less<std::__ndk1::basic_string<char, std::__ndk1::char_traits<char>, std::__ndk1::allocator<char> > >, true>, std::__ndk1::allocator<std::__ndk1::__value_type<std::__ndk1::basic_string<char, std::__ndk1::char_traits<char>, std::__ndk1::allocator<char> >, std::__ndk1::shared_ptr<geode::Hook> > > >::__lower_bound<std::__ndk1::basic_string<char, std::__ndk1::char_traits<char>, std::__ndk1::allocator<char> > >(std::__ndk1::basic_string<char, std::__ndk1::char_traits<char>, std::__ndk1::allocator<char> > const&, std::__ndk1::__tree_node<std::__ndk1::__value_type<std::__ndk1::basic_string<char, std::__ndk1::char_traits<char>, std::__ndk1::allocator<char> >, std::__ndk1::shared_ptr<geode::Hook> >, void*>*, std::__ndk1::__tree_end_node<std::__ndk1::__tree_node_base<void*>*>*)
FUNC 94dec 28 0 std::__ndk1::__tree<std::__ndk1::__value_type<std::__ndk1::basic_string<char, std::__ndk1::char_traits<char>, std::__ndk1::allocator<char> >, std::__ndk1::shared_ptr<geode::Hook> >, std::__ndk1::__map_value_compare<std::__ndk1::basic_string<char, std::__ndk1::char_traits<char>, std::__ndk1::allocator<char> >, std::__ndk1::__value_type<std::__ndk1::basic_string<char, std::__ndk1::char_traits<char>, std::__ndk1::allocator<char> >, std::__ndk1::shared_ptr<geode::Hook> >, std::__ndk1::less<std::__ndk1::basic_string<char, std::__ndk1::char_traits<char>, std::__ndk1::allocator<char> > >, true>, std::__ndk1::allocator<std::__ndk1::__value_type<std::__ndk1::basic_string<char, std::__ndk1::char_traits<char>, std::__ndk1::allocator<char> >, std::__ndk1::shared_ptr<geode::Hook> > > >::__root[abi:v170000]() const
FUNC 94e14 28 0 std::__ndk1::__tree<std::__ndk1::__value_type<std::__ndk1::basic_string<char, std::__ndk1::char_traits<char>, std::__ndk1::allocator<char> >, std::__ndk1::shared_ptr<geode::Hook> >, std::__ndk1::__map_value_compare<std::__ndk1::basic_string<char, std::__ndk1::char_traits<char>, std::__ndk1::allocator<char> >, std::__ndk1::__value_type<std::__ndk1::basic_string<char, std::__ndk1::char_traits<char>, std::__ndk1::allocator<char> >, std::__ndk1::shared_ptr<geode::Hook> >, std::__ndk1::less<std::__ndk1::basic_string<char, std::__ndk1::char_traits<char>, std::__ndk1::allocator<char> > >, true>, std::__ndk1::allocator<std::__ndk1::__value_type<std::__ndk1::basic_string<char, std::__ndk1::char_traits<char>, std::__ndk1::allocator<char> >, std::__ndk1::shared_ptr<geode::Hook> > > >::value_comp[abi:v170000]()
FUNC 94e3c 50 0 std::__ndk1::__map_value_compare<std::__ndk1::basic_string<char, std::__ndk1::char_traits<char>, std::__ndk1::allocator<char> >, std::__ndk1::__value_type<std::__ndk1::basic_string<char, std::__ndk1::char_traits<char>, std::__ndk1::allocator<char> >, std::__ndk1::shared_ptr<geode::Hook> >, std::__ndk1::less<std::__ndk1::basic_string<char, std::__ndk1::char_traits<char>, std::__ndk1::allocator<char> > >, true>::operator()[abi:v170000](std::__ndk1::basic_string<char, std::__ndk1::char_traits<char>, std::__ndk1::allocator<char> > const&, std::__ndk1::__value_type<std::__ndk1::basic_string<char, std::__ndk1::char_traits<char>, std::__ndk1::allocator<char> >, std::__ndk1::shared_ptr<geode::Hook> > const&) const
FUNC 94e8c 28 0 std::__ndk1::__tree_iterator<std::__ndk1::__value_type<std::__ndk1::basic_string<char, std::__ndk1::char_traits<char>, std::__ndk1::allocator<char> >, std::__ndk1::shared_ptr<geode::Hook> >, std::__ndk1::__tree_node<std::__ndk1::__value_type<std::__ndk1::basic_string<char, std::__ndk1::char_traits<char>, std::__ndk1::allocator<char> >, std::__ndk1::shared_ptr<geode::Hook> >, void*>*, long>::operator*[abi:v170000]() const
FUNC 94eb4 48 0 std::__ndk1::__map_value_compare<std::__ndk1::basic_string<char, std::__ndk1::char_traits<char>, std::__ndk1::allocator<char> >, std::__ndk1::__value_type<std::__ndk1::basic_string<char, std::__ndk1::char_traits<char>, std::__ndk1::allocator<char> >, std::__ndk1::shared_ptr<geode::Hook> >, std::__ndk1::less<std::__ndk1::basic_string<char, std::__ndk1::char_traits<char>, std::__ndk1::allocator<char> > >, true>::operator()[abi:v170000](std::__ndk1::__value_type<std::__ndk1::basic_string<char, std::__ndk1::char_traits<char>, std::__ndk1::allocator<char> >, std::__ndk1::shared_ptr<geode::Hook> > const&, std::__ndk1::basic_string<char, std::__ndk1::char_traits<char>, std::__ndk1::allocator<char> > const&) const
FUNC 94efc 88 0 std::__ndk1::less<std::__ndk1::basic_string<char, std::__ndk1::char_traits<char>, std::__ndk1::allocator<char> > >::operator()[abi:v170000](std::__ndk1::basic_string<char, std::__ndk1::char_traits<char>, std::__ndk1::allocator<char> > const&, std::__ndk1::basic_string<char, std::__ndk1::char_traits<char>, std::__ndk1::allocator<char> > const) const
FUNC 94f84 24 0 std::__ndk1::__value_type<std::__ndk1::basic_string<char, std::__ndk1::char_traits<char>, std::__ndk1::allocator<char> >, std::__ndk1::shared_ptr<geode::Hook> >::__get_value[abi:v170000]() const
FUNC 94fa8 28 0 std::__ndk1::operator<[abi:v170000](std::__ndk1::strong_ordering, std::__ndk1::_CmpUnspecifiedParam)
FUNC 94fd0 5c 0 std::__ndk1::operator<=>[abi:v170000]<char, std::__ndk1::char_traits<char>, std::__ndk1::allocator<char> >(std::__ndk1::basic_string<char, std::__ndk1::char_traits<char>, std::__ndk1::allocator<char> > const&, std::__ndk1::basic_string<char, std::__ndk1::char_traits<char>, std::__ndk1::allocator<char> > const)
FUNC 9502c 14 0 std::__ndk1::_CmpUnspecifiedParam::_CmpUnspecifiedParam[abi:v170000](int std::__ndk1::_CmpUnspecifiedParam::*)
FUNC 95040 90 0 std::__ndk1::operator<=>[abi:v170000]<char, std::__ndk1::char_traits<char> >(std::__ndk1::basic_string_view<char, std::__ndk1::char_traits<char> >, std::__ndk1::char_traits<char>)
FUNC 950d0 8c 0 std::__ndk1::basic_string<char, std::__ndk1::char_traits<char>, std::__ndk1::allocator<char> >::operator std::__ndk1::basic_string_view<char, std::__ndk1::char_traits<char> >()[abi:v170000] const
FUNC 9515c 140 0 std::__ndk1::basic_string_view<char, std::__ndk1::char_traits<char> >::compare(std::__ndk1::basic_string_view<char, std::__ndk1::char_traits<char> >) const
FUNC 9529c 6c 0 std::__ndk1::char_traits<char>::compare(char const*, char const*, unsigned long)
FUNC 95308 34 0 std::__ndk1::__constexpr_memcmp[abi:v170000]<char>(char const*, char const, unsigned long)
FUNC 9533c 44 0 std::__ndk1::basic_string_view<char, std::__ndk1::char_traits<char> >::basic_string_view[abi:v170000](char const*, unsigned long)
FUNC 95380 24 0 std::__ndk1::launder[abi:v170000]<std::__ndk1::pair<std::__ndk1::basic_string<char, std::__ndk1::char_traits<char>, std::__ndk1::allocator<char> > const, std::__ndk1::shared_ptr<geode::Hook> > const>(std::__ndk1::pair<std::__ndk1::basic_string<char, std::__ndk1::char_traits<char>, std::__ndk1::allocator<char> > const, std::__ndk1::shared_ptr<geode::Hook> > const)
FUNC 953a4 14 0 std::__ndk1::__launder[abi:v170000]<std::__ndk1::pair<std::__ndk1::basic_string<char, std::__ndk1::char_traits<char>, std::__ndk1::allocator<char> > const, std::__ndk1::shared_ptr<geode::Hook> > const>(std::__ndk1::pair<std::__ndk1::basic_string<char, std::__ndk1::char_traits<char>, std::__ndk1::allocator<char> > const, std::__ndk1::shared_ptr<geode::Hook> > const)
FUNC 953b8 2c 0 std::__ndk1::__tree<std::__ndk1::__value_type<std::__ndk1::basic_string<char, std::__ndk1::char_traits<char>, std::__ndk1::allocator<char> >, std::__ndk1::shared_ptr<geode::Hook> >, std::__ndk1::__map_value_compare<std::__ndk1::basic_string<char, std::__ndk1::char_traits<char>, std::__ndk1::allocator<char> >, std::__ndk1::__value_type<std::__ndk1::basic_string<char, std::__ndk1::char_traits<char>, std::__ndk1::allocator<char> >, std::__ndk1::shared_ptr<geode::Hook> >, std::__ndk1::less<std::__ndk1::basic_string<char, std::__ndk1::char_traits<char>, std::__ndk1::allocator<char> > >, true>, std::__ndk1::allocator<std::__ndk1::__value_type<std::__ndk1::basic_string<char, std::__ndk1::char_traits<char>, std::__ndk1::allocator<char> >, std::__ndk1::shared_ptr<geode::Hook> > > >::__end_node[abi:v170000]() const
FUNC 953e4 24 0 std::__ndk1::__compressed_pair<std::__ndk1::__tree_end_node<std::__ndk1::__tree_node_base<void*>*>, std::__ndk1::allocator<std::__ndk1::__tree_node<std::__ndk1::__value_type<std::__ndk1::basic_string<char, std::__ndk1::char_traits<char>, std::__ndk1::allocator<char> >, std::__ndk1::shared_ptr<geode::Hook> >, void*> > >::first[abi:v170000]() const
FUNC 95408 14 0 std::__ndk1::__compressed_pair_elem<std::__ndk1::__tree_end_node<std::__ndk1::__tree_node_base<void*>*>, 0, false>::__get[abi:v170000]() const
FUNC 9541c 24 0 std::__ndk1::__compressed_pair<unsigned long, std::__ndk1::__map_value_compare<std::__ndk1::basic_string<char, std::__ndk1::char_traits<char>, std::__ndk1::allocator<char> >, std::__ndk1::__value_type<std::__ndk1::basic_string<char, std::__ndk1::char_traits<char>, std::__ndk1::allocator<char> >, std::__ndk1::shared_ptr<geode::Hook> >, std::__ndk1::less<std::__ndk1::basic_string<char, std::__ndk1::char_traits<char>, std::__ndk1::allocator<char> > >, true> >::second[abi:v170000]()
FUNC 95440 14 0 std::__ndk1::__compressed_pair_elem<std::__ndk1::__map_value_compare<std::__ndk1::basic_string<char, std::__ndk1::char_traits<char>, std::__ndk1::allocator<char> >, std::__ndk1::__value_type<std::__ndk1::basic_string<char, std::__ndk1::char_traits<char>, std::__ndk1::allocator<char> >, std::__ndk1::shared_ptr<geode::Hook> >, std::__ndk1::less<std::__ndk1::basic_string<char, std::__ndk1::char_traits<char>, std::__ndk1::allocator<char> > >, true>, 1, true>::__get[abi:v170000]()
FUNC 95454 18 0 std::__ndk1::__tree_const_iterator<std::__ndk1::__value_type<std::__ndk1::basic_string<char, std::__ndk1::char_traits<char>, std::__ndk1::allocator<char> >, std::__ndk1::shared_ptr<geode::Hook> >, std::__ndk1::__tree_node<std::__ndk1::__value_type<std::__ndk1::basic_string<char, std::__ndk1::char_traits<char>, std::__ndk1::allocator<char> >, std::__ndk1::shared_ptr<geode::Hook> >, void*>*, long>::__get_np[abi:v170000]() const
FUNC 9546c dc 0 std::__ndk1::__tree<std::__ndk1::__value_type<std::__ndk1::basic_string<char, std::__ndk1::char_traits<char>, std::__ndk1::allocator<char> >, std::__ndk1::shared_ptr<geode::Hook> >, std::__ndk1::__map_value_compare<std::__ndk1::basic_string<char, std::__ndk1::char_traits<char>, std::__ndk1::allocator<char> >, std::__ndk1::__value_type<std::__ndk1::basic_string<char, std::__ndk1::char_traits<char>, std::__ndk1::allocator<char> >, std::__ndk1::shared_ptr<geode::Hook> >, std::__ndk1::less<std::__ndk1::basic_string<char, std::__ndk1::char_traits<char>, std::__ndk1::allocator<char> > >, true>, std::__ndk1::allocator<std::__ndk1::__value_type<std::__ndk1::basic_string<char, std::__ndk1::char_traits<char>, std::__ndk1::allocator<char> >, std::__ndk1::shared_ptr<geode::Hook> > > >::__remove_node_pointer(std::__ndk1::__tree_node<std::__ndk1::__value_type<std::__ndk1::basic_string<char, std::__ndk1::char_traits<char>, std::__ndk1::allocator<char> >, std::__ndk1::shared_ptr<geode::Hook> >, void*>*)
FUNC 95548 28 0 std::__ndk1::__tree<std::__ndk1::__value_type<std::__ndk1::basic_string<char, std::__ndk1::char_traits<char>, std::__ndk1::allocator<char> >, std::__ndk1::shared_ptr<geode::Hook> >, std::__ndk1::__map_value_compare<std::__ndk1::basic_string<char, std::__ndk1::char_traits<char>, std::__ndk1::allocator<char> >, std::__ndk1::__value_type<std::__ndk1::basic_string<char, std::__ndk1::char_traits<char>, std::__ndk1::allocator<char> >, std::__ndk1::shared_ptr<geode::Hook> >, std::__ndk1::less<std::__ndk1::basic_string<char, std::__ndk1::char_traits<char>, std::__ndk1::allocator<char> > >, true>, std::__ndk1::allocator<std::__ndk1::__value_type<std::__ndk1::basic_string<char, std::__ndk1::char_traits<char>, std::__ndk1::allocator<char> >, std::__ndk1::shared_ptr<geode::Hook> > > >::__node_alloc[abi:v170000]()
FUNC 95570 28 0 std::__ndk1::allocator_traits<std::__ndk1::allocator<std::__ndk1::__tree_node<std::__ndk1::__value_type<std::__ndk1::basic_string<char, std::__ndk1::char_traits<char>, std::__ndk1::allocator<char> >, std::__ndk1::shared_ptr<geode::Hook> >, void*> > >::destroy[abi:v170000]<std::__ndk1::pair<std::__ndk1::basic_string<char, std::__ndk1::char_traits<char>, std::__ndk1::allocator<char> > const, std::__ndk1::shared_ptr<geode::Hook> >, void, void>(std::__ndk1::allocator<std::__ndk1::__tree_node<std::__ndk1::__value_type<std::__ndk1::basic_string<char, std::__ndk1::char_traits<char>, std::__ndk1::allocator<char> >, std::__ndk1::shared_ptr<geode::Hook> >, void*> >&, std::__ndk1::pair<std::__ndk1::basic_string<char, std::__ndk1::char_traits<char>, std::__ndk1::allocator<char> > const, std::__ndk1::shared_ptr<geode::Hook> >*)
FUNC 95598 24 0 std::__ndk1::__tree_key_value_types<std::__ndk1::__value_type<std::__ndk1::basic_string<char, std::__ndk1::char_traits<char>, std::__ndk1::allocator<char> >, std::__ndk1::shared_ptr<geode::Hook> > >::__get_ptr[abi:v170000](std::__ndk1::__value_type<std::__ndk1::basic_string<char, std::__ndk1::char_traits<char>, std::__ndk1::allocator<char> >, std::__ndk1::shared_ptr<geode::Hook> >&)
FUNC 955bc 28 0 std::__ndk1::__tree_const_iterator<std::__ndk1::__value_type<std::__ndk1::basic_string<char, std::__ndk1::char_traits<char>, std::__ndk1::allocator<char> >, std::__ndk1::shared_ptr<geode::Hook> >, std::__ndk1::__tree_node<std::__ndk1::__value_type<std::__ndk1::basic_string<char, std::__ndk1::char_traits<char>, std::__ndk1::allocator<char> >, std::__ndk1::shared_ptr<geode::Hook> >, void*>*, long>::operator*[abi:v170000]() const
FUNC 955e4 34 0 std::__ndk1::allocator_traits<std::__ndk1::allocator<std::__ndk1::__tree_node<std::__ndk1::__value_type<std::__ndk1::basic_string<char, std::__ndk1::char_traits<char>, std::__ndk1::allocator<char> >, std::__ndk1::shared_ptr<geode::Hook> >, void*> > >::deallocate[abi:v170000](std::__ndk1::allocator<std::__ndk1::__tree_node<std::__ndk1::__value_type<std::__ndk1::basic_string<char, std::__ndk1::char_traits<char>, std::__ndk1::allocator<char> >, std::__ndk1::shared_ptr<geode::Hook> >, void*> >&, std::__ndk1::__tree_node<std::__ndk1::__value_type<std::__ndk1::basic_string<char, std::__ndk1::char_traits<char>, std::__ndk1::allocator<char> >, std::__ndk1::shared_ptr<geode::Hook> >, void*>*, unsigned long)
FUNC 95618 20 0 std::__ndk1::__tree_iterator<std::__ndk1::__value_type<std::__ndk1::basic_string<char, std::__ndk1::char_traits<char>, std::__ndk1::allocator<char> >, std::__ndk1::shared_ptr<geode::Hook> >, std::__ndk1::__tree_node<std::__ndk1::__value_type<std::__ndk1::basic_string<char, std::__ndk1::char_traits<char>, std::__ndk1::allocator<char> >, std::__ndk1::shared_ptr<geode::Hook> >, void*>*, long>::__tree_iterator[abi:v170000](std::__ndk1::__tree_node<std::__ndk1::__value_type<std::__ndk1::basic_string<char, std::__ndk1::char_traits<char>, std::__ndk1::allocator<char> >, std::__ndk1::shared_ptr<geode::Hook> >, void*>*)
FUNC 95638 28 0 std::__ndk1::__tree<std::__ndk1::__value_type<std::__ndk1::basic_string<char, std::__ndk1::char_traits<char>, std::__ndk1::allocator<char> >, std::__ndk1::shared_ptr<geode::Hook> >, std::__ndk1::__map_value_compare<std::__ndk1::basic_string<char, std::__ndk1::char_traits<char>, std::__ndk1::allocator<char> >, std::__ndk1::__value_type<std::__ndk1::basic_string<char, std::__ndk1::char_traits<char>, std::__ndk1::allocator<char> >, std::__ndk1::shared_ptr<geode::Hook> >, std::__ndk1::less<std::__ndk1::basic_string<char, std::__ndk1::char_traits<char>, std::__ndk1::allocator<char> > >, true>, std::__ndk1::allocator<std::__ndk1::__value_type<std::__ndk1::basic_string<char, std::__ndk1::char_traits<char>, std::__ndk1::allocator<char> >, std::__ndk1::shared_ptr<geode::Hook> > > >::size[abi:v170000]()
FUNC 95660 6ec 0 std::__ndk1::__tree_remove[abi:v170000]<std::__ndk1::__tree_node_base<void*>*>(std::__ndk1::__tree_node_base<void*>*, std::__ndk1::__tree_node_base<void*>*)
FUNC 95d4c 24 0 std::__ndk1::__compressed_pair<unsigned long, std::__ndk1::__map_value_compare<std::__ndk1::basic_string<char, std::__ndk1::char_traits<char>, std::__ndk1::allocator<char> >, std::__ndk1::__value_type<std::__ndk1::basic_string<char, std::__ndk1::char_traits<char>, std::__ndk1::allocator<char> >, std::__ndk1::shared_ptr<geode::Hook> >, std::__ndk1::less<std::__ndk1::basic_string<char, std::__ndk1::char_traits<char>, std::__ndk1::allocator<char> > >, true> >::first[abi:v170000]()
FUNC 95d70 14 0 std::__ndk1::__compressed_pair_elem<unsigned long, 0, false>::__get[abi:v170000]()
FUNC 95d84 80 0 std::__ndk1::__tree_next[abi:v170000]<std::__ndk1::__tree_node_base<void*>*>(std::__ndk1::__tree_node_base<void*>*)
FUNC 95e04 20 0 std::__ndk1::__tree_node_base<void*>::__set_parent[abi:v170000](std::__ndk1::__tree_node_base<void*>*)
FUNC 95e24 cc 0 std::__ndk1::__tree_left_rotate[abi:v170000]<std::__ndk1::__tree_node_base<void*>*>(std::__ndk1::__tree_node_base<void*>*)
FUNC 95ef0 cc 0 std::__ndk1::__tree_right_rotate[abi:v170000]<std::__ndk1::__tree_node_base<void*>*>(std::__ndk1::__tree_node_base<void*>*)
FUNC 95fbc 24 0 std::__ndk1::__compressed_pair<std::__ndk1::__tree_end_node<std::__ndk1::__tree_node_base<void*>*>, std::__ndk1::allocator<std::__ndk1::__tree_node<std::__ndk1::__value_type<std::__ndk1::basic_string<char, std::__ndk1::char_traits<char>, std::__ndk1::allocator<char> >, std::__ndk1::shared_ptr<geode::Hook> >, void*> > >::second[abi:v170000]()
FUNC 95fe0 14 0 std::__ndk1::__compressed_pair_elem<std::__ndk1::allocator<std::__ndk1::__tree_node<std::__ndk1::__value_type<std::__ndk1::basic_string<char, std::__ndk1::char_traits<char>, std::__ndk1::allocator<char> >, std::__ndk1::shared_ptr<geode::Hook> >, void*> >, 1, true>::__get[abi:v170000]()
FUNC 95ff4 24 0 std::__ndk1::destroy_at[abi:v170000]<std::__ndk1::pair<std::__ndk1::basic_string<char, std::__ndk1::char_traits<char>, std::__ndk1::allocator<char> > const, std::__ndk1::shared_ptr<geode::Hook> >, 0>(std::__ndk1::pair<std::__ndk1::basic_string<char, std::__ndk1::char_traits<char>, std::__ndk1::allocator<char> > const, std::__ndk1::shared_ptr<geode::Hook> >*)
FUNC 96018 24 0 std::__ndk1::__destroy_at[abi:v170000]<std::__ndk1::pair<std::__ndk1::basic_string<char, std::__ndk1::char_traits<char>, std::__ndk1::allocator<char> > const, std::__ndk1::shared_ptr<geode::Hook> >, 0>(std::__ndk1::pair<std::__ndk1::basic_string<char, std::__ndk1::char_traits<char>, std::__ndk1::allocator<char> > const, std::__ndk1::shared_ptr<geode::Hook> >*)
FUNC 9603c 34 0 std::__ndk1::pair<std::__ndk1::basic_string<char, std::__ndk1::char_traits<char>, std::__ndk1::allocator<char> > const, std::__ndk1::shared_ptr<geode::Hook> >::~pair()
FUNC 96070 44 0 std::__ndk1::allocator<std::__ndk1::__tree_node<std::__ndk1::__value_type<std::__ndk1::basic_string<char, std::__ndk1::char_traits<char>, std::__ndk1::allocator<char> >, std::__ndk1::shared_ptr<geode::Hook> >, void*> >::deallocate[abi:v170000](std::__ndk1::__tree_node<std::__ndk1::__value_type<std::__ndk1::basic_string<char, std::__ndk1::char_traits<char>, std::__ndk1::allocator<char> >, std::__ndk1::shared_ptr<geode::Hook> >, void*>*, unsigned long)
FUNC 960b4 20 0 std::__ndk1::vector<std::__ndk1::basic_string<char, std::__ndk1::char_traits<char>, std::__ndk1::allocator<char> >, std::__ndk1::allocator<std::__ndk1::basic_string<char, std::__ndk1::char_traits<char>, std::__ndk1::allocator<char> > > >::__destroy_vector::__destroy_vector(std::__ndk1::vector<std::__ndk1::basic_string<char, std::__ndk1::char_traits<char>, std::__ndk1::allocator<char> >, std::__ndk1::allocator<std::__ndk1::basic_string<char, std::__ndk1::char_traits<char>, std::__ndk1::allocator<char> > > >&)
FUNC 960d4 9c 0 std::__ndk1::vector<std::__ndk1::basic_string<char, std::__ndk1::char_traits<char>, std::__ndk1::allocator<char> >, std::__ndk1::allocator<std::__ndk1::basic_string<char, std::__ndk1::char_traits<char>, std::__ndk1::allocator<char> > > >::__destroy_vector::operator()[abi:v170000]()
FUNC 96170 10 0 std::__ndk1::__debug_db_erase_c[abi:v170000]<std::__ndk1::vector<std::__ndk1::basic_string<char, std::__ndk1::char_traits<char>, std::__ndk1::allocator<char> >, std::__ndk1::char_traits<char><std::__ndk1::allocator<char> > > >(std::__ndk1::vector<std::__ndk1::basic_string<char, std::__ndk1::char_traits<char>, std::__ndk1::allocator<char> >, std::__ndk1::char_traits<char><std::__ndk1::allocator<char> > >*)
FUNC 96180 28 0 std::__ndk1::vector<std::__ndk1::basic_string<char, std::__ndk1::char_traits<char>, std::__ndk1::allocator<char> >, std::__ndk1::allocator<std::__ndk1::basic_string<char, std::__ndk1::char_traits<char>, std::__ndk1::allocator<char> > > >::__clear[abi:v170000]()
FUNC 961a8 8c 0 std::__ndk1::vector<std::__ndk1::basic_string<char, std::__ndk1::char_traits<char>, std::__ndk1::allocator<char> >, std::__ndk1::allocator<std::__ndk1::basic_string<char, std::__ndk1::char_traits<char>, std::__ndk1::allocator<char> > > >::__base_destruct_at_end[abi:v170000](std::__ndk1::basic_string<char, std::__ndk1::char_traits<char>, std::__ndk1::allocator<char> >*)
FUNC 96234 34 0 std::__ndk1::__tree<std::__ndk1::__value_type<std::__ndk1::basic_string<char, std::__ndk1::char_traits<char>, std::__ndk1::allocator<char> >, std::__ndk1::shared_ptr<geode::Hook> >, std::__ndk1::__map_value_compare<std::__ndk1::basic_string<char, std::__ndk1::char_traits<char>, std::__ndk1::allocator<char> >, std::__ndk1::__value_type<std::__ndk1::basic_string<char, std::__ndk1::char_traits<char>, std::__ndk1::allocator<char> >, std::__ndk1::shared_ptr<geode::Hook> >, std::__ndk1::less<std::__ndk1::basic_string<char, std::__ndk1::char_traits<char>, std::__ndk1::allocator<char> > >, true>, std::__ndk1::allocator<std::__ndk1::__value_type<std::__ndk1::basic_string<char, std::__ndk1::char_traits<char>, std::__ndk1::allocator<char> >, std::__ndk1::shared_ptr<geode::Hook> > > >::~__tree()
FUNC 96268 a4 0 std::__ndk1::__tree<std::__ndk1::__value_type<std::__ndk1::basic_string<char, std::__ndk1::char_traits<char>, std::__ndk1::allocator<char> >, std::__ndk1::shared_ptr<geode::Hook> >, std::__ndk1::__map_value_compare<std::__ndk1::basic_string<char, std::__ndk1::char_traits<char>, std::__ndk1::allocator<char> >, std::__ndk1::__value_type<std::__ndk1::basic_string<char, std::__ndk1::char_traits<char>, std::__ndk1::allocator<char> >, std::__ndk1::shared_ptr<geode::Hook> >, std::__ndk1::less<std::__ndk1::basic_string<char, std::__ndk1::char_traits<char>, std::__ndk1::allocator<char> > >, true>, std::__ndk1::allocator<std::__ndk1::__value_type<std::__ndk1::basic_string<char, std::__ndk1::char_traits<char>, std::__ndk1::allocator<char> >, std::__ndk1::shared_ptr<geode::Hook> > > >::destroy(std::__ndk1::__tree_node<std::__ndk1::__value_type<std::__ndk1::basic_string<char, std::__ndk1::char_traits<char>, std::__ndk1::allocator<char> >, std::__ndk1::shared_ptr<geode::Hook> >, void*>*)
FUNC 9630c 4c 0 geode::addresser::getNonVirtual<bool (RewardUnlockLayer::*)(int, RewardsPage*)>(bool (RewardUnlockLayer::*)(int, RewardsPage*))
FUNC 96358 3c 0 geode::modifier::Resolve<int, RewardsPage*>::func<bool, RewardUnlockLayer>(bool (RewardUnlockLayer::*)(int, RewardsPage*))
FUNC 96394 84 0 geode::log::error<char const (&) [24]>(fmt::v11::basic_format_string<char, fmt::v11::type_identity<decltype ((wrapCocosObj<char const (&) [24]>)((std::declval<char const (&) [24]>)()))>::type>, char const (&) [24])
FUNC 96418 10c 0 geode::Hook::create<bool (*)(MyUnlockLayer*, int, RewardsPage*)>(void*, bool (*)(MyUnlockLayer*, int, RewardsPage*), std::__ndk1::basic_string<char, std::__ndk1::char_traits<char>, std::__ndk1::allocator<char> > const&, tulip::hook::TulipConvention, tulip::hook::HookMetadata const&)
FUNC 96524 80 0 geode::modifier::AsStaticFunction_init<MyUnlockLayer, bool (MyUnlockLayer::*)(int, RewardsPage*)>::Impl<bool (MyUnlockLayer::*)(int, RewardsPage*)>::function(MyUnlockLayer*, int, RewardsPage*)
FUNC 965a4 84 0 std::__ndk1::basic_string<char, std::__ndk1::char_traits<char>, std::__ndk1::allocator<char> >::basic_string[abi:v170000]<std::nullptr_t>()
FUNC 96628 18 0 tulip::hook::HookMetadata::HookMetadata()
FUNC 96640 a4 0 std::__ndk1::map<std::__ndk1::basic_string<char, std::__ndk1::char_traits<char>, std::__ndk1::allocator<char> >, std::__ndk1::shared_ptr<geode::Hook>, std::__ndk1::less<std::__ndk1::basic_string<char, std::__ndk1::char_traits<char>, std::__ndk1::allocator<char> > >, std::__ndk1::allocator<std::__ndk1::pair<std::__ndk1::basic_string<char, std::__ndk1::char_traits<char>, std::__ndk1::allocator<char> > const, std::__ndk1::shared_ptr<geode::Hook> > > >::operator[](std::__ndk1::basic_string<char, std::__ndk1::char_traits<char>, std::__ndk1::allocator<char> >&&)
FUNC 966e4 80 0 std::__ndk1::shared_ptr<geode::Hook>::operator=[abi:v170000](std::__ndk1::shared_ptr<geode::Hook> const&)
FUNC 96764 4c 0 geode::addresser::getNonVirtual<void (RewardUnlockLayer::*)()>(void (RewardUnlockLayer::*)())
FUNC 967b0 3c 0 geode::modifier::Resolve<>::func<void, RewardUnlockLayer>(void (RewardUnlockLayer::*)())
FUNC 967ec 84 0 geode::log::error<char const (&) [25]>(fmt::v11::basic_format_string<char, fmt::v11::type_identity<decltype ((wrapCocosObj<char const (&) [25]>)((std::declval<char const (&) [25]>)()))>::type>, char const (&) [25])
FUNC 96870 10c 0 geode::Hook::create<void (*)(MyUnlockLayer*)>(void*, void (*)(MyUnlockLayer*), std::__ndk1::basic_string<char, std::__ndk1::char_traits<char>, std::__ndk1::allocator<char> > const&, tulip::hook::TulipConvention, tulip::hook::HookMetadata const&)
FUNC 9697c 6c 0 geode::modifier::AsStaticFunction_step2<MyUnlockLayer, void (MyUnlockLayer::*)()>::Impl<void (MyUnlockLayer::*)()>::function(MyUnlockLayer*)
FUNC 969e8 50 0 geode::addresser::Addresser::addressOfNonVirtual<bool (RewardUnlockLayer::*)(int, RewardsPage*)>(bool (RewardUnlockLayer::*)(int, RewardsPage*))
FUNC 96a38 28 0 geode::cast::reference_cast<long, bool (RewardUnlockLayer::*)(int, RewardsPage*)>(bool (RewardUnlockLayer::*)(int, RewardsPage*))
FUNC 96a60 88 0 geode::log::logImpl<char const (&) [24]>(geode::Severity, geode::Mod*, fmt::v11::basic_format_string<char, fmt::v11::type_identity<decltype ((wrapCocosObj<char const (&) [24]>)((std::declval<char const (&) [24]>)()))>::type>, char const (&) [24])
FUNC 96ae8 fc 0 _ZZN5geode3log7logImplIJRA24_KcEEEvNS_8SeverityEPNS_3ModEN3fmt3v1119basic_format_stringIcJDpNS9_13type_identityIDTcl12wrapCocosObjIT_Eclsr3stdE7declvalISC_EEEEE4typeEEEEDpOSC_ENKUlTpTySJ_E_clIJS4_EEEDaSJ_
FUNC 96be4 84 0 fmt::v11::detail::make_arg<true, fmt::v11::context, char const [24], 0>(char const (&) [24])
FUNC 96c68 1a4 0 tulip::hook::AbstractFunction::from<bool, MyUnlockLayer*, int, RewardsPage*>(bool (*)(MyUnlockLayer*, int, RewardsPage*))
FUNC 96e0c 48 0 std::__ndk1::shared_ptr<tulip::hook::CallingConvention>::~shared_ptr[abi:v170000]()
FUNC 96e54 34 0 tulip::hook::HandlerMetadata::~HandlerMetadata()
FUNC 96e88 28 0 tulip::hook::AbstractFunction::AbstractFunction()
FUNC 96eb0 20 0 tulip::hook::AbstractType::from<bool>()
FUNC 96ed0 6c 0 std::__ndk1::vector<tulip::hook::AbstractType, std::__ndk1::allocator<tulip::hook::AbstractType> >::push_back[abi:v170000](tulip::hook::AbstractType&&)
FUNC 96f3c 20 0 tulip::hook::AbstractType::from<MyUnlockLayer*>()
FUNC 96f5c 20 0 tulip::hook::AbstractType::from<int>()
FUNC 96f7c 20 0 tulip::hook::AbstractType::from<RewardsPage*>()
FUNC 96f9c 28 0 tulip::hook::AbstractFunction::~AbstractFunction()
FUNC 96fc4 84 0 std::__ndk1::vector<tulip::hook::AbstractType, std::__ndk1::allocator<tulip::hook::AbstractType> >::vector[abi:v170000]()
FUNC 97048 40 0 std::__ndk1::__compressed_pair<tulip::hook::AbstractType*, std::__ndk1::allocator<tulip::hook::AbstractType> >::__compressed_pair[abi:v170000]<std::nullptr_t, std::__ndk1::__default_init_tag>(std::__ndk1::__default_init_tag&&)
FUNC 97088 10 0 std::__ndk1::__debug_db_insert_c[abi:v170000]<std::__ndk1::vector<tulip::hook::AbstractType, std::__ndk1::allocator<tulip::hook> > >(std::__ndk1::vector<tulip::hook::AbstractType, std::__ndk1::allocator<tulip::hook> >*)
FUNC 97098 1c 0 std::__ndk1::__compressed_pair_elem<tulip::hook::AbstractType*, 0, false>::__compressed_pair_elem[abi:v170000]<std::nullptr_t, void>()
FUNC 970b4 28 0 std::__ndk1::__compressed_pair_elem<std::__ndk1::allocator<tulip::hook::AbstractType>, 1, true>::__compressed_pair_elem[abi:v170000](std::__ndk1::__default_init_tag)
FUNC 970dc 24 0 std::__ndk1::allocator<tulip::hook::AbstractType>::allocator[abi:v170000]()
FUNC 97100 10 0 std::__ndk1::__non_trivial_if<true, std::__ndk1::allocator<tulip::hook::AbstractType> >::__non_trivial_if[abi:v170000]()
FUNC 97110 28 0 std::__ndk1::vector<tulip::hook::AbstractType, std::__ndk1::allocator<tulip::hook::AbstractType> >::__end_cap[abi:v170000]()
FUNC 97138 dc 0 std::__ndk1::vector<tulip::hook::AbstractType, std::__ndk1::allocator<tulip::hook::AbstractType> >::__construct_one_at_end[abi:v170000]<tulip::hook::AbstractType>(tulip::hook::AbstractType&&)
FUNC 97214 128 0 std::__ndk1::vector<tulip::hook::AbstractType, std::__ndk1::allocator<tulip::hook::AbstractType> >::__push_back_slow_path<tulip::hook::AbstractType>(tulip::hook::AbstractType&&)
FUNC 9733c 24 0 std::__ndk1::__compressed_pair<tulip::hook::AbstractType*, std::__ndk1::allocator<tulip::hook::AbstractType> >::first[abi:v170000]()
FUNC 97360 14 0 std::__ndk1::__compressed_pair_elem<tulip::hook::AbstractType*, 0, false>::__get[abi:v170000]()
FUNC 97374 44 0 std::__ndk1::vector<tulip::hook::AbstractType, std::__ndk1::allocator<tulip::hook::AbstractType> >::_ConstructTransaction::_ConstructTransaction[abi:v170000](std::__ndk1::vector<tulip::hook::AbstractType, std::__ndk1::allocator<tulip::hook::AbstractType> >&, unsigned long)
FUNC 973b8 30 0 std::__ndk1::allocator_traits<std::__ndk1::allocator<tulip::hook::AbstractType> >::construct[abi:v170000]<tulip::hook::AbstractType, tulip::hook::AbstractType, void, void>(std::__ndk1::allocator<tulip::hook::AbstractType>&, tulip::hook::AbstractType*, tulip::hook::AbstractType&&)
FUNC 973e8 28 0 std::__ndk1::vector<tulip::hook::AbstractType, std::__ndk1::allocator<tulip::hook::AbstractType> >::__alloc[abi:v170000]()
FUNC 97410 14 0 std::__ndk1::__to_address[abi:v170000]<tulip::hook::AbstractType>(tulip::hook::AbstractType)
FUNC 97424 20 0 std::__ndk1::vector<tulip::hook::AbstractType, std::__ndk1::allocator<tulip::hook::AbstractType> >::_ConstructTransaction::~_ConstructTransaction[abi:v170000]()
FUNC 97444 2c 0 std::__ndk1::construct_at[abi:v170000]<tulip::hook::AbstractType, tulip::hook, tulip::hook*>(tulip::hook::AbstractType, tulip::hook&&)
FUNC 97470 24 0 std::__ndk1::__compressed_pair<tulip::hook::AbstractType*, std::__ndk1::allocator<tulip::hook::AbstractType> >::second[abi:v170000]()
FUNC 97494 14 0 std::__ndk1::__compressed_pair_elem<std::__ndk1::allocator<tulip::hook::AbstractType>, 1, true>::__get[abi:v170000]()
FUNC 974a8 ec 0 std::__ndk1::vector<tulip::hook::AbstractType, std::__ndk1::allocator<tulip::hook::AbstractType> >::__recommend[abi:v170000](unsigned long) const
FUNC 97594 28 0 std::__ndk1::vector<tulip::hook::AbstractType, std::__ndk1::allocator<tulip::hook::AbstractType> >::size[abi:v170000]() const
FUNC 975bc f4 0 std::__ndk1::__split_buffer<tulip::hook::AbstractType, std::__ndk1::allocator<tulip::hook::AbstractType>&>::__split_buffer(unsigned long, unsigned long, std::__ndk1::allocator<tulip::hook::AbstractType>&)
FUNC 976b0 13c 0 std::__ndk1::vector<tulip::hook::AbstractType, std::__ndk1::allocator<tulip::hook::AbstractType> >::__swap_out_circular_buffer(std::__ndk1::__split_buffer<tulip::hook::AbstractType, std::__ndk1::allocator<tulip::hook::AbstractType>&>&)
FUNC 977ec 80 0 std::__ndk1::__split_buffer<tulip::hook::AbstractType, std::__ndk1::allocator<tulip::hook::AbstractType>&>::~__split_buffer()
FUNC 9786c 84 0 std::__ndk1::vector<tulip::hook::AbstractType, std::__ndk1::allocator<tulip::hook::AbstractType> >::max_size() const
FUNC 978f0 1c 0 std::__ndk1::vector<tulip::hook::AbstractType, std::__ndk1::allocator<tulip::hook::AbstractType> >::__throw_length_error[abi:v170000]() const
FUNC 9790c 40 0 std::__ndk1::vector<tulip::hook::AbstractType, std::__ndk1::allocator<tulip::hook::AbstractType> >::capacity[abi:v170000]() const
FUNC 9794c 28 0 std::__ndk1::allocator_traits<std::__ndk1::allocator<tulip::hook::AbstractType> >::max_size[abi:v170000]<std::__ndk1::allocator<tulip::hook::AbstractType>, void, void>(std::__ndk1::allocator<tulip::hook::AbstractType> const&)
FUNC 97974 28 0 std::__ndk1::vector<tulip::hook::AbstractType, std::__ndk1::allocator<tulip::hook::AbstractType> >::__alloc[abi:v170000]() const
FUNC 9799c 24 0 std::__ndk1::__compressed_pair<tulip::hook::AbstractType*, std::__ndk1::allocator<tulip::hook::AbstractType> >::second[abi:v170000]() const
FUNC 979c0 14 0 std::__ndk1::__compressed_pair_elem<std::__ndk1::allocator<tulip::hook::AbstractType>, 1, true>::__get[abi:v170000]() const
FUNC 979d4 28 0 std::__ndk1::vector<tulip::hook::AbstractType, std::__ndk1::allocator<tulip::hook::AbstractType> >::__end_cap[abi:v170000]() const
FUNC 979fc 24 0 std::__ndk1::__compressed_pair<tulip::hook::AbstractType*, std::__ndk1::allocator<tulip::hook::AbstractType> >::first[abi:v170000]() const
FUNC 97a20 14 0 std::__ndk1::__compressed_pair_elem<tulip::hook::AbstractType*, 0, false>::__get[abi:v170000]() const
FUNC 97a34 44 0 std::__ndk1::__compressed_pair<tulip::hook::AbstractType*, std::__ndk1::allocator<tulip::hook::AbstractType>&>::__compressed_pair[abi:v170000]<std::nullptr_t, std::__ndk1::allocator<tulip::hook::AbstractType>&>(std::__ndk1::allocator<tulip::hook::AbstractType>&)
FUNC 97a78 40 0 std::__ndk1::__allocate_at_least[abi:v170000]<std::__ndk1::allocator<tulip::hook::AbstractType> >(std::__ndk1::allocator_traits&, unsigned long)
FUNC 97ab8 28 0 std::__ndk1::__split_buffer<tulip::hook::AbstractType, std::__ndk1::allocator<tulip::hook::AbstractType>&>::__alloc[abi:v170000]()
FUNC 97ae0 28 0 std::__ndk1::__split_buffer<tulip::hook::AbstractType, std::__ndk1::allocator<tulip::hook::AbstractType>&>::__end_cap[abi:v170000]()
FUNC 97b08 20 0 std::__ndk1::__compressed_pair_elem<std::__ndk1::allocator<tulip::hook::AbstractType>&, 1, false>::__compressed_pair_elem[abi:v170000]<std::__ndk1::allocator<tulip::hook::AbstractType>&, void>()
FUNC 97b28 58 0 std::__ndk1::allocator<tulip::hook::AbstractType>::allocate[abi:v170000](unsigned long)
FUNC 97b80 28 0 std::__ndk1::__compressed_pair<tulip::hook::AbstractType*, std::__ndk1::allocator<tulip::hook::AbstractType>&>::second[abi:v170000]()
FUNC 97ba8 18 0 std::__ndk1::__compressed_pair_elem<std::__ndk1::allocator<tulip::hook::AbstractType>&, 1, false>::__get[abi:v170000]()
FUNC 97bc0 24 0 std::__ndk1::__compressed_pair<tulip::hook::AbstractType*, std::__ndk1::allocator<tulip::hook::AbstractType>&>::first[abi:v170000]()
FUNC 97be4 b8 0 std::__ndk1::vector<tulip::hook::AbstractType, std::__ndk1::allocator<tulip::hook::AbstractType> >::__annotate_delete[abi:v170000]() const
FUNC 97c9c b4 0 std::__ndk1::__uninitialized_allocator_move_if_noexcept[abi:v170000]<std::__ndk1::allocator<tulip::hook::AbstractType>, std::__ndk1::reverse_iterator<tulip::hook*>, tulip::hook*, tulip::hook, void>(std::__ndk1::allocator<tulip::hook::AbstractType>&, std::__ndk1::reverse_iterator<tulip::hook*>, std::__ndk1::allocator<tulip::hook::AbstractType>&, std::__ndk1::reverse_iterator<tulip::hook*>)
FUNC 97d50 28 0 std::__ndk1::reverse_iterator<tulip::hook::AbstractType*>::reverse_iterator[abi:v170000](tulip::hook::AbstractType*)
FUNC 97d78 18 0 std::__ndk1::reverse_iterator<tulip::hook::AbstractType*>::base[abi:v170000]() const
FUNC 97d90 3c 0 std::__ndk1::swap[abi:v170000]<tulip::hook::AbstractType*>(std::__ndk1::enable_if&, std::__ndk1::enable_if<(is_move_constructible<tulip::hook::AbstractType*>::value)&&(is_move_assignable<std::__ndk1::enable_if>::value), void>::type)
FUNC 97dcc ac 0 std::__ndk1::vector<tulip::hook::AbstractType, std::__ndk1::allocator<tulip::hook::AbstractType> >::__annotate_new[abi:v170000](unsigned long) const
FUNC 97e78 10 0 std::__ndk1::__debug_db_invalidate_all[abi:v170000]<std::__ndk1::vector<tulip::hook::AbstractType, std::__ndk1::allocator<tulip::hook> > >(std::__ndk1::vector<tulip::hook::AbstractType, std::__ndk1::allocator<tulip::hook> >*)
FUNC 97e88 20 0 std::__ndk1::vector<tulip::hook::AbstractType, std::__ndk1::allocator<tulip::hook::AbstractType> >::__annotate_contiguous_container[abi:v170000](void const*, void const, void const, void const) const
FUNC 97ea8 28 0 std::__ndk1::vector<tulip::hook::AbstractType, std::__ndk1::allocator<tulip::hook::AbstractType> >::data[abi:v170000]() const
FUNC 97ed0 b4 0 std::__ndk1::move[abi:v170000]<std::__ndk1::reverse_iterator<tulip::hook::AbstractType*>, tulip::hook::AbstractType*>(std::__ndk1::reverse_iterator<tulip::hook::AbstractType*>, tulip::hook::AbstractType*, std::__ndk1::reverse_iterator<tulip::hook::AbstractType*>)
FUNC 97f84 90 0 std::__ndk1::__move[abi:v170000]<std::__ndk1::_ClassicAlgPolicy, std::__ndk1::reverse_iterator<tulip::hook::AbstractType*>, tulip::hook::AbstractType*, tulip::hook::AbstractType*>(std::__ndk1::pair, tulip::hook::AbstractType*, std::__ndk1::reverse_iterator<tulip::hook::AbstractType*>)
FUNC 98014 90 0 std::__ndk1::__dispatch_copy_or_move[abi:v170000]<std::__ndk1::_ClassicAlgPolicy, std::__ndk1::__move_loop<std::__ndk1::__dispatch_copy_or_move[abi:v170000]>, std::__ndk1::__move_trivial, std::__ndk1::reverse_iterator<tulip::hook::AbstractType*>, tulip::hook::AbstractType*, tulip::hook::AbstractType*>(std::__ndk1::pair, tulip::hook::AbstractType*, std::__ndk1::reverse_iterator<tulip::hook::AbstractType*>)
FUNC 980a4 164 0 std::__ndk1::__unwrap_and_dispatch[abi:v170000]<std::__ndk1::__overload<std::__ndk1::__move_loop<std::__ndk1::_ClassicAlgPolicy>, std::__ndk1::__move_trivial>, std::__ndk1::reverse_iterator<tulip::hook::AbstractType*>, tulip::hook::AbstractType*, tulip::hook::AbstractType*, 0>(std::__ndk1::pair, tulip::hook::AbstractType*, std::__ndk1::reverse_iterator<tulip::hook::AbstractType*>)
FUNC 98208 78 0 std::__ndk1::__unwrap_range[abi:v170000]<std::__ndk1::reverse_iterator<tulip::hook::AbstractType*>, tulip::hook::AbstractType*>(std::__ndk1::reverse_iterator<tulip::hook::AbstractType*>, tulip::hook::AbstractType*)
FUNC 98280 c8 0 std::__ndk1::__move_loop<std::__ndk1::_ClassicAlgPolicy>::operator()[abi:v170000]<std::__ndk1::reverse_iterator<tulip::hook::AbstractType*>, tulip::hook::AbstractType*, tulip::hook::AbstractType*>(std::__ndk1::pair, tulip::hook::AbstractType*, std::__ndk1::reverse_iterator<tulip::hook::AbstractType*>) const
FUNC 98348 80 0 std::__ndk1::__unwrap_iter[abi:v170000]<std::__ndk1::reverse_iterator<tulip::hook::AbstractType*>, std::__ndk1::__unwrap_iter_impl<tulip::hook::AbstractType*, false>, 0>(std::__ndk1::__unwrap_iter_impl<tulip::hook::AbstractType*, false>)
FUNC 983c8 38 0 std::__ndk1::make_pair[abi:v170000]<std::__ndk1::reverse_iterator<tulip::hook::AbstractType*>, tulip::hook::AbstractType*>(std::__ndk1::__unwrap_ref_decay&&, std::__ndk1::__unwrap_ref_decay<std::__ndk1::reverse_iterator<tulip::hook::AbstractType*> >::type&&)
FUNC 98400 98 0 std::__ndk1::__rewrap_range[abi:v170000]<std::__ndk1::reverse_iterator<tulip::hook::AbstractType*>, tulip::hook::AbstractType*, tulip::hook::AbstractType*>(std::__ndk1::reverse_iterator<tulip::hook::AbstractType*>, tulip::hook::AbstractType*)
FUNC 98498 ac 0 std::__ndk1::__rewrap_iter[abi:v170000]<std::__ndk1::reverse_iterator<tulip::hook::AbstractType*>, tulip::hook::AbstractType*, std::__ndk1::__unwrap_iter_impl<tulip::hook::AbstractType*, false> >(std::__ndk1::__unwrap_iter_impl<tulip::hook::AbstractType*, false>, tulip::hook::AbstractType*)
FUNC 98544 a4 0 std::__ndk1::__unwrap_range_impl<std::__ndk1::reverse_iterator<tulip::hook::AbstractType*>, std::__ndk1::reverse_iterator<tulip::hook::AbstractType*> >::__unwrap[abi:v170000](std::__ndk1::reverse_iterator<tulip::hook::AbstractType*>, std::__ndk1::reverse_iterator<tulip::hook::AbstractType*>)
FUNC 985e8 34 0 std::__ndk1::pair<std::__ndk1::reverse_iterator<tulip::hook::AbstractType*>, std::__ndk1::reverse_iterator<tulip::hook::AbstractType*> >::pair[abi:v170000]<std::__ndk1::reverse_iterator<tulip::hook::AbstractType*>, std::__ndk1::reverse_iterator<tulip::hook::AbstractType*>, (void*)0>(std::__ndk1::reverse_iterator<tulip::hook::AbstractType*>&&)
FUNC 9861c 48 0 std::__ndk1::operator!=[abi:v170000]<tulip::hook::AbstractType*, tulip::hook::AbstractType>(std::__ndk1::reverse_iterator<tulip::hook::AbstractType*> const&, tulip::hook::AbstractType*<tulip::hook::AbstractType> const&)
FUNC 98664 28 0 std::__ndk1::_IterOps<std::__ndk1::_ClassicAlgPolicy>::__iter_move[abi:v170000]<std::__ndk1::reverse_iterator<tulip::hook::AbstractType*>&>(std::__ndk1::enable_if&&)
FUNC 9868c 28 0 std::__ndk1::reverse_iterator<tulip::hook::AbstractType*>::operator*[abi:v170000]() const
FUNC 986b4 20 0 std::__ndk1::reverse_iterator<tulip::hook::AbstractType*>::operator++[abi:v170000]()
FUNC 986d4 4 0 std::__ndk1::_IterOps<std::__ndk1::_ClassicAlgPolicy>::__validate_iter_reference[abi:v170000]<std::__ndk1::reverse_iterator<tulip::hook::AbstractType*>&>()
FUNC 986d8 64 0 std::__ndk1::__unwrap_iter_impl<std::__ndk1::reverse_iterator<tulip::hook::AbstractType*>, false>::__unwrap[abi:v170000](std::__ndk1::reverse_iterator<tulip::hook::AbstractType*>)
FUNC 9873c 98 0 std::__ndk1::__unwrap_range_impl<std::__ndk1::reverse_iterator<tulip::hook::AbstractType*>, std::__ndk1::reverse_iterator<tulip::hook::AbstractType*> >::__rewrap[abi:v170000](std::__ndk1::reverse_iterator<tulip::hook::AbstractType*>, std::__ndk1::reverse_iterator<tulip::hook::AbstractType*>)
FUNC 987d4 6c 0 std::__ndk1::__unwrap_iter_impl<std::__ndk1::reverse_iterator<tulip::hook::AbstractType*>, false>::__rewrap[abi:v170000](std::__ndk1::reverse_iterator<tulip::hook::AbstractType*>, std::__ndk1::reverse_iterator<tulip::hook::AbstractType*>)
FUNC 98840 28 0 std::__ndk1::__split_buffer<tulip::hook::AbstractType, std::__ndk1::allocator<tulip::hook::AbstractType>&>::clear[abi:v170000]()
FUNC 98868 34 0 std::__ndk1::allocator_traits<std::__ndk1::allocator<tulip::hook::AbstractType> >::deallocate[abi:v170000](std::__ndk1::allocator<tulip::hook::AbstractType>&, tulip::hook::AbstractType*, unsigned long)
FUNC 9889c 40 0 std::__ndk1::__split_buffer<tulip::hook::AbstractType, std::__ndk1::allocator<tulip::hook::AbstractType>&>::capacity[abi:v170000]() const
FUNC 988dc 30 0 std::__ndk1::__split_buffer<tulip::hook::AbstractType, std::__ndk1::allocator<tulip::hook::AbstractType>&>::__destruct_at_end[abi:v170000](tulip::hook::AbstractType*)
FUNC 9890c 84 0 std::__ndk1::__split_buffer<tulip::hook::AbstractType, std::__ndk1::allocator<tulip::hook::AbstractType>&>::__destruct_at_end[abi:v170000](tulip::hook::AbstractType*, std::__ndk1::integral_constant<bool, false>)
FUNC 98990 28 0 std::__ndk1::allocator_traits<std::__ndk1::allocator<tulip::hook::AbstractType> >::destroy[abi:v170000]<tulip::hook::AbstractType, void, void>(std::__ndk1::allocator<tulip::hook::AbstractType>&, tulip::hook::AbstractType*)
FUNC 989b8 24 0 std::__ndk1::destroy_at[abi:v170000]<tulip::hook::AbstractType, 0>(tulip::hook::AbstractType*)
FUNC 989dc 10 0 std::__ndk1::__destroy_at[abi:v170000]<tulip::hook::AbstractType, 0>(tulip::hook::AbstractType*)
FUNC 989ec 40 0 std::__ndk1::allocator<tulip::hook::AbstractType>::deallocate[abi:v170000](tulip::hook::AbstractType*, unsigned long)
FUNC 98a2c 28 0 std::__ndk1::__split_buffer<tulip::hook::AbstractType, std::__ndk1::allocator<tulip::hook::AbstractType>&>::__end_cap[abi:v170000]() const
FUNC 98a54 24 0 std::__ndk1::__compressed_pair<tulip::hook::AbstractType*, std::__ndk1::allocator<tulip::hook::AbstractType>&>::first[abi:v170000]() const
FUNC 98a78 64 0 std::__ndk1::vector<tulip::hook::AbstractType, std::__ndk1::allocator<tulip::hook::AbstractType> >::~vector[abi:v170000]()
FUNC 98adc 20 0 std::__ndk1::vector<tulip::hook::AbstractType, std::__ndk1::allocator<tulip::hook::AbstractType> >::__destroy_vector::__destroy_vector(std::__ndk1::vector<tulip::hook::AbstractType, std::__ndk1::allocator<tulip::hook::AbstractType> >&)
FUNC 98afc 9c 0 std::__ndk1::vector<tulip::hook::AbstractType, std::__ndk1::allocator<tulip::hook::AbstractType> >::__destroy_vector::operator()[abi:v170000]()
FUNC 98b98 10 0 std::__ndk1::__debug_db_erase_c[abi:v170000]<std::__ndk1::vector<tulip::hook::AbstractType, std::__ndk1::allocator<tulip::hook> > >(std::__ndk1::vector<tulip::hook::AbstractType, std::__ndk1::allocator<tulip::hook> >*)
FUNC 98ba8 28 0 std::__ndk1::vector<tulip::hook::AbstractType, std::__ndk1::allocator<tulip::hook::AbstractType> >::__clear[abi:v170000]()
FUNC 98bd0 8c 0 std::__ndk1::vector<tulip::hook::AbstractType, std::__ndk1::allocator<tulip::hook::AbstractType> >::__base_destruct_at_end[abi:v170000](tulip::hook::AbstractType*)
FUNC 98c5c a4 0 geode::addresser::rthunkAdjust<bool (MyUnlockLayer::*)(int, RewardsPage*), MyUnlockLayer*>(bool (MyUnlockLayer::*)(int, RewardsPage*), MyUnlockLayer*)
FUNC 98d00 3c 0 geode::modifier::Resolve<int, RewardsPage*>::func<bool, MyUnlockLayer>(bool (MyUnlockLayer::*)(int, RewardsPage*))
FUNC 98d3c e8 0 MyUnlockLayer::init(int, RewardsPage*)
FUNC 98e24 1c 0 geode::cast::union_cast<long*, bool (MyUnlockLayer::**)(int, RewardsPage*)>(bool (MyUnlockLayer::**)(int, RewardsPage*))
FUNC 98e40 58 0 geode::addresser::Addresser::thunkOf<bool (MyUnlockLayer::*)(int, RewardsPage*)>(bool (MyUnlockLayer::*)(int, RewardsPage*))
FUNC 98e98 24 0 geode::modifier::FieldIntermediate<MyUnlockLayer, RewardUnlockLayer>::operator->()
FUNC 98ebc 1bc 0 geode::modifier::FieldIntermediate<MyUnlockLayer, RewardUnlockLayer>::self()
FUNC 99078 2c 0 geode::modifier::FieldContainer::from(cocos2d::CCNode*, char const*)
FUNC 990a4 20 0 std::type_info::name[abi:v170000]() const
FUNC 990c4 114 0 geode::modifier::FieldContainer::getField(unsigned long)
FUNC 991d8 80 0 geode::modifier::FieldContainer::setField(unsigned long, unsigned long, std::__ndk1::function<void (void*)>)
FUNC 99258 10 0 geode::modifier::FieldIntermediate<MyUnlockLayer, RewardUnlockLayer>::fieldDestructor(void*)
FUNC 99268 58 0 std::__ndk1::function<void (void*)>::function<void (*)(void*), void>()
FUNC 992c0 24 0 std::__ndk1::function<void (void*)>::~function()
FUNC 992e4 28 0 geode::modifier::FieldIntermediate<MyUnlockLayer, RewardUnlockLayer>::fieldConstructor(void*)
FUNC 9930c 28 0 std::__ndk1::vector<void*, std::__ndk1::allocator<void*> >::size[abi:v170000]() const
FUNC 99334 6c 0 std::__ndk1::vector<void*, std::__ndk1::allocator<void*> >::push_back[abi:v170000](void*&&)
FUNC 993a0 6c 0 std::__ndk1::vector<std::__ndk1::function<void (void*)>, std::__ndk1::allocator<std::__ndk1::function<void (void*)> > >::push_back[abi:v170000](std::__ndk1::function<void (void*)>&&)
FUNC 9940c 28 0 std::__ndk1::function<void (void*)>::function[abi:v170000](std::nullptr_t)
FUNC 99434 60 0 std::__ndk1::vector<void*, std::__ndk1::allocator<void*> >::at(unsigned long)
FUNC 99494 28 0 std::__ndk1::vector<void*, std::__ndk1::allocator<void*> >::__end_cap[abi:v170000]()
FUNC 994bc dc 0 std::__ndk1::vector<void*, std::__ndk1::allocator<void*> >::__construct_one_at_end[abi:v170000]<void*>(void*&&)
FUNC 99598 128 0 std::__ndk1::vector<void*, std::__ndk1::allocator<void*> >::__push_back_slow_path<void*>(void*&&)
FUNC 996c0 24 0 std::__ndk1::__compressed_pair<void**, std::__ndk1::allocator<void*> >::first[abi:v170000]()
FUNC 996e4 14 0 std::__ndk1::__compressed_pair_elem<void**, 0, false>::__get[abi:v170000]()
FUNC 996f8 44 0 std::__ndk1::vector<void*, std::__ndk1::allocator<void*> >::_ConstructTransaction::_ConstructTransaction[abi:v170000](std::__ndk1::vector<void*, std::__ndk1::allocator<void*> >&, unsigned long)
FUNC 9973c 30 0 std::__ndk1::allocator_traits<std::__ndk1::allocator<void*> >::construct[abi:v170000]<void*, void*, void, void>(std::__ndk1::allocator<void*>&, void**, void*&&)
FUNC 9976c 28 0 std::__ndk1::vector<void*, std::__ndk1::allocator<void*> >::__alloc[abi:v170000]()
FUNC 99794 14 0 std::__ndk1::__to_address[abi:v170000]<void*>(void*)
FUNC 997a8 20 0 std::__ndk1::vector<void*, std::__ndk1::allocator<void*> >::_ConstructTransaction::~_ConstructTransaction[abi:v170000]()
FUNC 997c8 2c 0 std::__ndk1::construct_at[abi:v170000]<void*, std::__ndk1::construct_at[abi:v170000], std::__ndk1::construct_at[abi:v170000]*>(void*, std::__ndk1::construct_at[abi:v170000]&&)
FUNC 997f4 24 0 std::__ndk1::__compressed_pair<void**, std::__ndk1::allocator<void*> >::second[abi:v170000]()
FUNC 99818 14 0 std::__ndk1::__compressed_pair_elem<std::__ndk1::allocator<void*>, 1, true>::__get[abi:v170000]()
FUNC 9982c ec 0 std::__ndk1::vector<void*, std::__ndk1::allocator<void*> >::__recommend[abi:v170000](unsigned long) const
FUNC 99918 f4 0 std::__ndk1::__split_buffer<void*, std::__ndk1::allocator<void*>&>::__split_buffer(unsigned long, unsigned long, std::__ndk1::allocator<void*>&)
FUNC 99a0c 13c 0 std::__ndk1::vector<void*, std::__ndk1::allocator<void*> >::__swap_out_circular_buffer(std::__ndk1::__split_buffer<void*, std::__ndk1::allocator<void*>&>&)
FUNC 99b48 80 0 std::__ndk1::__split_buffer<void*, std::__ndk1::allocator<void*>&>::~__split_buffer()
FUNC 99bc8 84 0 std::__ndk1::vector<void*, std::__ndk1::allocator<void*> >::max_size() const
FUNC 99c4c 1c 0 std::__ndk1::vector<void*, std::__ndk1::allocator<void*> >::__throw_length_error[abi:v170000]() const
FUNC 99c68 40 0 std::__ndk1::vector<void*, std::__ndk1::allocator<void*> >::capacity[abi:v170000]() const
FUNC 99ca8 28 0 std::__ndk1::allocator_traits<std::__ndk1::allocator<void*> >::max_size[abi:v170000]<std::__ndk1::allocator<void*>, void, void>(std::__ndk1::allocator<void*> const&)
FUNC 99cd0 28 0 std::__ndk1::vector<void*, std::__ndk1::allocator<void*> >::__alloc[abi:v170000]() const
FUNC 99cf8 24 0 std::__ndk1::__compressed_pair<void**, std::__ndk1::allocator<void*> >::second[abi:v170000]() const
FUNC 99d1c 14 0 std::__ndk1::__compressed_pair_elem<std::__ndk1::allocator<void*>, 1, true>::__get[abi:v170000]() const
FUNC 99d30 28 0 std::__ndk1::vector<void*, std::__ndk1::allocator<void*> >::__end_cap[abi:v170000]() const
FUNC 99d58 24 0 std::__ndk1::__compressed_pair<void**, std::__ndk1::allocator<void*> >::first[abi:v170000]() const
FUNC 99d7c 14 0 std::__ndk1::__compressed_pair_elem<void**, 0, false>::__get[abi:v170000]() const
FUNC 99d90 44 0 std::__ndk1::__compressed_pair<void**, std::__ndk1::allocator<void*>&>::__compressed_pair[abi:v170000]<std::nullptr_t, std::__ndk1::allocator<void*>&>(std::__ndk1::allocator<void*>&)
FUNC 99dd4 40 0 std::__ndk1::__allocate_at_least[abi:v170000]<std::__ndk1::allocator<void*> >(std::__ndk1::allocator_traits&, unsigned long)
FUNC 99e14 28 0 std::__ndk1::__split_buffer<void*, std::__ndk1::allocator<void*>&>::__alloc[abi:v170000]()
FUNC 99e3c 28 0 std::__ndk1::__split_buffer<void*, std::__ndk1::allocator<void*>&>::__end_cap[abi:v170000]()
FUNC 99e64 1c 0 std::__ndk1::__compressed_pair_elem<void**, 0, false>::__compressed_pair_elem[abi:v170000]<std::nullptr_t, void>()
FUNC 99e80 20 0 std::__ndk1::__compressed_pair_elem<std::__ndk1::allocator<void*>&, 1, false>::__compressed_pair_elem[abi:v170000]<std::__ndk1::allocator<void*>&, void>()
FUNC 99ea0 58 0 std::__ndk1::allocator<void*>::allocate[abi:v170000](unsigned long)
FUNC 99ef8 28 0 std::__ndk1::__compressed_pair<void**, std::__ndk1::allocator<void*>&>::second[abi:v170000]()
FUNC 99f20 18 0 std::__ndk1::__compressed_pair_elem<std::__ndk1::allocator<void*>&, 1, false>::__get[abi:v170000]()
FUNC 99f38 24 0 std::__ndk1::__compressed_pair<void**, std::__ndk1::allocator<void*>&>::first[abi:v170000]()
FUNC 99f5c b8 0 std::__ndk1::vector<void*, std::__ndk1::allocator<void*> >::__annotate_delete[abi:v170000]() const
FUNC 9a014 b4 0 std::__ndk1::__uninitialized_allocator_move_if_noexcept[abi:v170000]<std::__ndk1::allocator<void*>, std::__ndk1::reverse_iterator<std::__ndk1::allocator*>, std::__ndk1::allocator*, std::__ndk1::allocator, void>(std::__ndk1::allocator<void*>&, std::__ndk1::reverse_iterator<std::__ndk1::allocator*>, std::__ndk1::allocator<void*>&, std::__ndk1::reverse_iterator<std::__ndk1::allocator*>)
FUNC 9a0c8 28 0 std::__ndk1::reverse_iterator<void**>::reverse_iterator[abi:v170000](void**)
FUNC 9a0f0 18 0 std::__ndk1::reverse_iterator<void**>::base[abi:v170000]() const
FUNC 9a108 3c 0 std::__ndk1::swap[abi:v170000]<void**>(std::__ndk1::enable_if&, std::__ndk1::enable_if<(is_move_constructible<void**>::value)&&(is_move_assignable<std::__ndk1::enable_if>::value), void>::type)
FUNC 9a144 ac 0 std::__ndk1::vector<void*, std::__ndk1::allocator<void*> >::__annotate_new[abi:v170000](unsigned long) const
FUNC 9a1f0 10 0 std::__ndk1::__debug_db_invalidate_all[abi:v170000]<std::__ndk1::vector<void*, std::__ndk1::allocator<std::__ndk1::vector> > >(std::__ndk1::vector<void*, std::__ndk1::allocator<std::__ndk1::vector> >*)
FUNC 9a200 20 0 std::__ndk1::vector<void*, std::__ndk1::allocator<void*> >::__annotate_contiguous_container[abi:v170000](void const*, void const, void const, void const) const
FUNC 9a220 28 0 std::__ndk1::vector<void*, std::__ndk1::allocator<void*> >::data[abi:v170000]() const
FUNC 9a248 b4 0 std::__ndk1::move[abi:v170000]<std::__ndk1::reverse_iterator<void**>, void**>(std::__ndk1::reverse_iterator<void**>, void**, std::__ndk1::reverse_iterator<void**>)
FUNC 9a2fc 90 0 std::__ndk1::__move[abi:v170000]<std::__ndk1::_ClassicAlgPolicy, std::__ndk1::reverse_iterator<void**>, void**, void**>(std::__ndk1::pair, void**, std::__ndk1::reverse_iterator<void**>)
FUNC 9a38c 90 0 std::__ndk1::__dispatch_copy_or_move[abi:v170000]<std::__ndk1::_ClassicAlgPolicy, std::__ndk1::__move_loop<std::__ndk1::__dispatch_copy_or_move[abi:v170000]>, std::__ndk1::__move_trivial, std::__ndk1::reverse_iterator<void**>, void**, void**>(std::__ndk1::pair, void**, std::__ndk1::reverse_iterator<void**>)
FUNC 9a41c 164 0 std::__ndk1::__unwrap_and_dispatch[abi:v170000]<std::__ndk1::__overload<std::__ndk1::__move_loop<std::__ndk1::_ClassicAlgPolicy>, std::__ndk1::__move_trivial>, std::__ndk1::reverse_iterator<void**>, void**, void**, 0>(std::__ndk1::pair, void**, std::__ndk1::reverse_iterator<void**>)
FUNC 9a580 78 0 std::__ndk1::__unwrap_range[abi:v170000]<std::__ndk1::reverse_iterator<void**>, void**>(std::__ndk1::reverse_iterator<void**>, void**)
FUNC 9a5f8 c8 0 std::__ndk1::__move_loop<std::__ndk1::_ClassicAlgPolicy>::operator()[abi:v170000]<std::__ndk1::reverse_iterator<void**>, void**, void**>(std::__ndk1::pair, void**, std::__ndk1::reverse_iterator<void**>) const
FUNC 9a6c0 80 0 std::__ndk1::__unwrap_iter[abi:v170000]<std::__ndk1::reverse_iterator<void**>, std::__ndk1::__unwrap_iter_impl<void**, false>, 0>(std::__ndk1::__unwrap_iter_impl<void**, false>)
FUNC 9a740 38 0 std::__ndk1::make_pair[abi:v170000]<std::__ndk1::reverse_iterator<void**>, void**>(std::__ndk1::__unwrap_ref_decay&&, std::__ndk1::__unwrap_ref_decay<std::__ndk1::reverse_iterator<void**> >::type&&)
FUNC 9a778 98 0 std::__ndk1::__rewrap_range[abi:v170000]<std::__ndk1::reverse_iterator<void**>, void**, void**>(std::__ndk1::reverse_iterator<void**>, void**)
FUNC 9a810 ac 0 std::__ndk1::__rewrap_iter[abi:v170000]<std::__ndk1::reverse_iterator<void**>, void**, std::__ndk1::__unwrap_iter_impl<void**, false> >(std::__ndk1::__unwrap_iter_impl<void**, false>, void**)
FUNC 9a8bc a4 0 std::__ndk1::__unwrap_range_impl<std::__ndk1::reverse_iterator<void**>, std::__ndk1::reverse_iterator<void**> >::__unwrap[abi:v170000](std::__ndk1::reverse_iterator<void**>, std::__ndk1::reverse_iterator<void**>)
FUNC 9a960 34 0 std::__ndk1::pair<std::__ndk1::reverse_iterator<void**>, std::__ndk1::reverse_iterator<void**> >::pair[abi:v170000]<std::__ndk1::reverse_iterator<void**>, std::__ndk1::reverse_iterator<void**>, (void*)0>(std::__ndk1::reverse_iterator<void**>&&)
FUNC 9a994 48 0 std::__ndk1::operator!=[abi:v170000]<void**, void*>(std::__ndk1::reverse_iterator<void**> const&, void**<void*> const&)
FUNC 9a9dc 28 0 std::__ndk1::_IterOps<std::__ndk1::_ClassicAlgPolicy>::__iter_move[abi:v170000]<std::__ndk1::reverse_iterator<void**>&>(std::__ndk1::enable_if&&)
FUNC 9aa04 28 0 std::__ndk1::reverse_iterator<void**>::operator*[abi:v170000]() const
FUNC 9aa2c 20 0 std::__ndk1::reverse_iterator<void**>::operator++[abi:v170000]()
FUNC 9aa4c 4 0 std::__ndk1::_IterOps<std::__ndk1::_ClassicAlgPolicy>::__validate_iter_reference[abi:v170000]<std::__ndk1::reverse_iterator<void**>&>()
FUNC 9aa50 64 0 std::__ndk1::__unwrap_iter_impl<std::__ndk1::reverse_iterator<void**>, false>::__unwrap[abi:v170000](std::__ndk1::reverse_iterator<void**>)
FUNC 9aab4 98 0 std::__ndk1::__unwrap_range_impl<std::__ndk1::reverse_iterator<void**>, std::__ndk1::reverse_iterator<void**> >::__rewrap[abi:v170000](std::__ndk1::reverse_iterator<void**>, std::__ndk1::reverse_iterator<void**>)
FUNC 9ab4c 6c 0 std::__ndk1::__unwrap_iter_impl<std::__ndk1::reverse_iterator<void**>, false>::__rewrap[abi:v170000](std::__ndk1::reverse_iterator<void**>, std::__ndk1::reverse_iterator<void**>)
FUNC 9abb8 28 0 std::__ndk1::__split_buffer<void*, std::__ndk1::allocator<void*>&>::clear[abi:v170000]()
FUNC 9abe0 34 0 std::__ndk1::allocator_traits<std::__ndk1::allocator<void*> >::deallocate[abi:v170000](std::__ndk1::allocator<void*>&, void**, unsigned long)
FUNC 9ac14 40 0 std::__ndk1::__split_buffer<void*, std::__ndk1::allocator<void*>&>::capacity[abi:v170000]() const
FUNC 9ac54 30 0 std::__ndk1::__split_buffer<void*, std::__ndk1::allocator<void*>&>::__destruct_at_end[abi:v170000](void**)
FUNC 9ac84 84 0 std::__ndk1::__split_buffer<void*, std::__ndk1::allocator<void*>&>::__destruct_at_end[abi:v170000](void**, std::__ndk1::integral_constant<bool, false>)
FUNC 9ad08 28 0 std::__ndk1::allocator_traits<std::__ndk1::allocator<void*> >::destroy[abi:v170000]<void*, void, void>(std::__ndk1::allocator<void*>&, void**)
FUNC 9ad30 24 0 std::__ndk1::destroy_at[abi:v170000]<void*, 0>(void**)
FUNC 9ad54 10 0 std::__ndk1::__destroy_at[abi:v170000]<void*, 0>(void**)
FUNC 9ad64 40 0 std::__ndk1::allocator<void*>::deallocate[abi:v170000](void**, unsigned long)
FUNC 9ada4 28 0 std::__ndk1::__split_buffer<void*, std::__ndk1::allocator<void*>&>::__end_cap[abi:v170000]() const
FUNC 9adcc 24 0 std::__ndk1::__compressed_pair<void**, std::__ndk1::allocator<void*>&>::first[abi:v170000]() const
FUNC 9adf0 28 0 std::__ndk1::vector<std::__ndk1::function<void (void*)>, std::__ndk1::allocator<std::__ndk1::function<void (void*)> > >::__end_cap[abi:v170000]()
FUNC 9ae18 dc 0 std::__ndk1::vector<std::__ndk1::function<void (void*)>, std::__ndk1::allocator<std::__ndk1::function<void (void*)> > >::__construct_one_at_end[abi:v170000]<std::__ndk1::function<void (void*)> >(std::__ndk1::function<void (void*)>&&)
FUNC 9aef4 128 0 std::__ndk1::vector<std::__ndk1::function<void (void*)>, std::__ndk1::allocator<std::__ndk1::function<void (void*)> > >::__push_back_slow_path<std::__ndk1::function<void (void*)> >(std::__ndk1::function<void (void*)>&&)
FUNC 9b01c 24 0 std::__ndk1::__compressed_pair<std::__ndk1::function<void (void*)>*, std::__ndk1::allocator<std::__ndk1::function<void (void*)> > >::first[abi:v170000]()
FUNC 9b040 14 0 std::__ndk1::__compressed_pair_elem<std::__ndk1::function<void (void*)>*, 0, false>::__get[abi:v170000]()
FUNC 9b054 4c 0 std::__ndk1::vector<std::__ndk1::function<void (void*)>, std::__ndk1::allocator<std::__ndk1::function<void (void*)> > >::_ConstructTransaction::_ConstructTransaction[abi:v170000](std::__ndk1::vector<std::__ndk1::function<void (void*)>, std::__ndk1::allocator<std::__ndk1::function<void (void*)> > >&, unsigned long)
FUNC 9b0a0 30 0 std::__ndk1::allocator_traits<std::__ndk1::allocator<std::__ndk1::function<void (void*)> > >::construct[abi:v170000]<std::__ndk1::function<void (void*)>, std::__ndk1::function<void (void*)>, void, void>(std::__ndk1::allocator<std::__ndk1::function<void (void*)> >&, std::__ndk1::function<void (void*)>*, std::__ndk1::function<void (void*)>&&)
FUNC 9b0d0 28 0 std::__ndk1::vector<std::__ndk1::function<void (void*)>, std::__ndk1::allocator<std::__ndk1::function<void (void*)> > >::__alloc[abi:v170000]()
FUNC 9b0f8 14 0 std::__ndk1::__to_address[abi:v170000]<std::__ndk1::function<void (void*)> >(std::__ndk1::function<void (void*)>)
FUNC 9b10c 20 0 std::__ndk1::vector<std::__ndk1::function<void (void*)>, std::__ndk1::allocator<std::__ndk1::function<void (void*)> > >::_ConstructTransaction::~_ConstructTransaction[abi:v170000]()
FUNC 9b12c 3c 0 std::__ndk1::construct_at[abi:v170000]<std::__ndk1::function<void (void*)>, void (void*), void (*)(void*)>(std::__ndk1::function<void (void*)>, void (&&)(void*))
FUNC 9b168 2c 0 std::__ndk1::function<void (void*)>::function(std::__ndk1::function<void (void*)>&&)
FUNC 9b194 c8 0 std::__ndk1::__function::__value_func<void (void*)>::__value_func[abi:v170000](std::__ndk1::__function::__value_func<void (void*)>&&)
FUNC 9b25c 14 0 std::__ndk1::__function::__value_func<void (void*)>::__as_base(void*)
FUNC 9b270 24 0 std::__ndk1::__compressed_pair<std::__ndk1::function<void (void*)>*, std::__ndk1::allocator<std::__ndk1::function<void (void*)> > >::second[abi:v170000]()
FUNC 9b294 14 0 std::__ndk1::__compressed_pair_elem<std::__ndk1::allocator<std::__ndk1::function<void (void*)> >, 1, true>::__get[abi:v170000]()
FUNC 9b2a8 ec 0 std::__ndk1::vector<std::__ndk1::function<void (void*)>, std::__ndk1::allocator<std::__ndk1::function<void (void*)> > >::__recommend[abi:v170000](unsigned long) const
FUNC 9b394 28 0 std::__ndk1::vector<std::__ndk1::function<void (void*)>, std::__ndk1::allocator<std::__ndk1::function<void (void*)> > >::size[abi:v170000]() const
FUNC 9b3bc 100 0 std::__ndk1::__split_buffer<std::__ndk1::function<void (void*)>, std::__ndk1::allocator<std::__ndk1::function<void (void*)> >&>::__split_buffer(unsigned long, unsigned long, std::__ndk1::allocator<std::__ndk1::function<void (void*)> >&)
FUNC 9b4bc 13c 0 std::__ndk1::vector<std::__ndk1::function<void (void*)>, std::__ndk1::allocator<std::__ndk1::function<void (void*)> > >::__swap_out_circular_buffer(std::__ndk1::__split_buffer<std::__ndk1::function<void (void*)>, std::__ndk1::allocator<std::__ndk1::function<void (void*)> >&>&)
FUNC 9b5f8 80 0 std::__ndk1::__split_buffer<std::__ndk1::function<void (void*)>, std::__ndk1::allocator<std::__ndk1::function<void (void*)> >&>::~__split_buffer()
FUNC 9b678 84 0 std::__ndk1::vector<std::__ndk1::function<void (void*)>, std::__ndk1::allocator<std::__ndk1::function<void (void*)> > >::max_size() const
FUNC 9b6fc 1c 0 std::__ndk1::vector<std::__ndk1::function<void (void*)>, std::__ndk1::allocator<std::__ndk1::function<void (void*)> > >::__throw_length_error[abi:v170000]() const
FUNC 9b718 40 0 std::__ndk1::vector<std::__ndk1::function<void (void*)>, std::__ndk1::allocator<std::__ndk1::function<void (void*)> > >::capacity[abi:v170000]() const
FUNC 9b758 28 0 std::__ndk1::allocator_traits<std::__ndk1::allocator<std::__ndk1::function<void (void*)> > >::max_size[abi:v170000]<std::__ndk1::allocator<std::__ndk1::function<void (void*)> >, void, void>(std::__ndk1::allocator<std::__ndk1::function<void (void*)> > const&)
FUNC 9b780 28 0 std::__ndk1::vector<std::__ndk1::function<void (void*)>, std::__ndk1::allocator<std::__ndk1::function<void (void*)> > >::__alloc[abi:v170000]() const
FUNC 9b7a8 24 0 std::__ndk1::__compressed_pair<std::__ndk1::function<void (void*)>*, std::__ndk1::allocator<std::__ndk1::function<void (void*)> > >::second[abi:v170000]() const
FUNC 9b7cc 14 0 std::__ndk1::__compressed_pair_elem<std::__ndk1::allocator<std::__ndk1::function<void (void*)> >, 1, true>::__get[abi:v170000]() const
FUNC 9b7e0 28 0 std::__ndk1::vector<std::__ndk1::function<void (void*)>, std::__ndk1::allocator<std::__ndk1::function<void (void*)> > >::__end_cap[abi:v170000]() const
FUNC 9b808 24 0 std::__ndk1::__compressed_pair<std::__ndk1::function<void (void*)>*, std::__ndk1::allocator<std::__ndk1::function<void (void*)> > >::first[abi:v170000]() const
FUNC 9b82c 14 0 std::__ndk1::__compressed_pair_elem<std::__ndk1::function<void (void*)>*, 0, false>::__get[abi:v170000]() const
FUNC 9b840 44 0 std::__ndk1::__compressed_pair<std::__ndk1::function<void (void*)>*, std::__ndk1::allocator<std::__ndk1::function<void (void*)> >&>::__compressed_pair[abi:v170000]<std::nullptr_t, std::__ndk1::allocator<std::__ndk1::function<void (void*)> >&>(std::__ndk1::allocator<std::__ndk1::function<void (void*)> >&)
FUNC 9b884 40 0 std::__ndk1::__allocate_at_least[abi:v170000]<std::__ndk1::allocator<std::__ndk1::function<void (void*)> > >(std::__ndk1::allocator_traits&, unsigned long)
FUNC 9b8c4 28 0 std::__ndk1::__split_buffer<std::__ndk1::function<void (void*)>, std::__ndk1::allocator<std::__ndk1::function<void (void*)> >&>::__alloc[abi:v170000]()
FUNC 9b8ec 28 0 std::__ndk1::__split_buffer<std::__ndk1::function<void (void*)>, std::__ndk1::allocator<std::__ndk1::function<void (void*)> >&>::__end_cap[abi:v170000]()
FUNC 9b914 1c 0 std::__ndk1::__compressed_pair_elem<std::__ndk1::function<void (void*)>*, 0, false>::__compressed_pair_elem[abi:v170000]<std::nullptr_t, void>()
FUNC 9b930 20 0 std::__ndk1::__compressed_pair_elem<std::__ndk1::allocator<std::__ndk1::function<void (void*)> >&, 1, false>::__compressed_pair_elem[abi:v170000]<std::__ndk1::allocator<std::__ndk1::function<void (void*)> >&, void>()
FUNC 9b950 5c 0 std::__ndk1::allocator<std::__ndk1::function<void (void*)> >::allocate[abi:v170000](unsigned long)
FUNC 9b9ac 28 0 std::__ndk1::__compressed_pair<std::__ndk1::function<void (void*)>*, std::__ndk1::allocator<std::__ndk1::function<void (void*)> >&>::second[abi:v170000]()
FUNC 9b9d4 18 0 std::__ndk1::__compressed_pair_elem<std::__ndk1::allocator<std::__ndk1::function<void (void*)> >&, 1, false>::__get[abi:v170000]()
FUNC 9b9ec 24 0 std::__ndk1::__compressed_pair<std::__ndk1::function<void (void*)>*, std::__ndk1::allocator<std::__ndk1::function<void (void*)> >&>::first[abi:v170000]()
FUNC 9ba10 d4 0 std::__ndk1::vector<std::__ndk1::function<void (void*)>, std::__ndk1::allocator<std::__ndk1::function<void (void*)> > >::__annotate_delete[abi:v170000]() const
FUNC 9bae4 17c 0 std::__ndk1::__uninitialized_allocator_move_if_noexcept[abi:v170000]<std::__ndk1::allocator<std::__ndk1::function<void (void*)> >, std::__ndk1::reverse_iterator<void (*)(void*)>, void (*)(void*), void (*)(void*)>(std::__ndk1::allocator<std::__ndk1::function<void (void*)> >&, std::__ndk1::reverse_iterator<void (*)(void*)>, void (*)(void*), std::__ndk1::reverse_iterator<void (*)(void*)>)
FUNC 9bc60 28 0 std::__ndk1::reverse_iterator<std::__ndk1::function<void (void*)>*>::reverse_iterator[abi:v170000](std::__ndk1::function<void (void*)>*)
FUNC 9bc88 18 0 std::__ndk1::reverse_iterator<std::__ndk1::function<void (void*)>*>::base[abi:v170000]() const
FUNC 9bca0 3c 0 std::__ndk1::swap[abi:v170000]<std::__ndk1::function<void (void*)>*>(std::__ndk1::enable_if&, std::__ndk1::enable_if<(is_move_constructible<std::__ndk1::function<void (void*)>*>::value)&&(is_move_assignable<std::__ndk1::enable_if>::value), void>::type)
FUNC 9bcdc c8 0 std::__ndk1::vector<std::__ndk1::function<void (void*)>, std::__ndk1::allocator<std::__ndk1::function<void (void*)> > >::__annotate_new[abi:v170000](unsigned long) const
FUNC 9bda4 10 0 std::__ndk1::__debug_db_invalidate_all[abi:v170000]<std::__ndk1::vector<std::__ndk1::function<void (void*)>, std::__ndk1::allocator<void (void*)> > >(std::__ndk1::vector<std::__ndk1::function<void (void*)>, std::__ndk1::allocator<void (void*)> >*)
FUNC 9bdb4 20 0 std::__ndk1::vector<std::__ndk1::function<void (void*)>, std::__ndk1::allocator<std::__ndk1::function<void (void*)> > >::__annotate_contiguous_container[abi:v170000](void const*, void const, void const, void const) const
FUNC 9bdd4 28 0 std::__ndk1::vector<std::__ndk1::function<void (void*)>, std::__ndk1::allocator<std::__ndk1::function<void (void*)> > >::data[abi:v170000]() const
FUNC 9bdfc 6c 0 std::__ndk1::__make_exception_guard[abi:v170000]<std::__ndk1::_AllocatorDestroyRangeReverse<std::__ndk1::allocator<std::__ndk1::function<void (void*)> >, std::__ndk1::reverse_iterator<void (*)(void*)> > >(std::__ndk1::__exception_guard)
FUNC 9be68 38 0 std::__ndk1::_AllocatorDestroyRangeReverse<std::__ndk1::allocator<std::__ndk1::function<void (void*)> >, std::__ndk1::reverse_iterator<std::__ndk1::function<void (void*)>*> >::_AllocatorDestroyRangeReverse[abi:v170000](std::__ndk1::allocator<std::__ndk1::function<void (void*)> >&, std::__ndk1::reverse_iterator<std::__ndk1::function<void (void*)>*>&, std::__ndk1::allocator<std::__ndk1::function<void (void*)> >&)
FUNC 9bea0 48 0 std::__ndk1::operator!=[abi:v170000]<std::__ndk1::function<void (void*)>*, std::__ndk1::function<void (void*)> >(std::__ndk1::reverse_iterator<std::__ndk1::function<void (void*)>*> const&, std::__ndk1::function<void (void*)>*<std::__ndk1::function<void (void*)> > const&)
FUNC 9bee8 24 0 std::__ndk1::__to_address[abi:v170000]<std::__ndk1::reverse_iterator<std::__ndk1::function<void (void*)>*>, void>(std::__ndk1::decay const)
FUNC 9bf0c 28 0 std::__ndk1::reverse_iterator<std::__ndk1::function<void (void*)>*>::operator*[abi:v170000]() const
FUNC 9bf34 20 0 std::__ndk1::reverse_iterator<std::__ndk1::function<void (void*)>*>::operator++[abi:v170000]()
FUNC 9bf54 1c 0 std::__ndk1::__exception_guard<std::__ndk1::_AllocatorDestroyRangeReverse<std::__ndk1::allocator<std::__ndk1::function<void (void*)> >, std::__ndk1::reverse_iterator<std::__ndk1::function<void (void*)>*> > >::__complete[abi:v170000]()
FUNC 9bf70 44 0 std::__ndk1::__exception_guard<std::__ndk1::_AllocatorDestroyRangeReverse<std::__ndk1::allocator<std::__ndk1::function<void (void*)> >, std::__ndk1::reverse_iterator<std::__ndk1::function<void (void*)>*> > >::~__exception_guard[abi:v170000]()
FUNC 9bfb4 28 0 std::__ndk1::__exception_guard<std::__ndk1::_AllocatorDestroyRangeReverse<std::__ndk1::allocator<std::__ndk1::function<void (void*)> >, std::__ndk1::reverse_iterator<std::__ndk1::function<void (void*)>*> > >::__exception_guard[abi:v170000](std::__ndk1::_AllocatorDestroyRangeReverse<std::__ndk1::allocator<std::__ndk1::function<void (void*)> >, std::__ndk1::reverse_iterator<std::__ndk1::function<void (void*)>*> >)
FUNC 9bfdc 38 0 std::__ndk1::__to_address_helper<std::__ndk1::reverse_iterator<std::__ndk1::function<void (void*)>*>, void>::__call[abi:v170000](std::__ndk1::reverse_iterator<std::__ndk1::function<void (void*)>*> const&)
FUNC 9c014 2c 0 std::__ndk1::reverse_iterator<std::__ndk1::function<void (void*)>*>::operator->[abi:v170000]() const
FUNC 9c040 90 0 std::__ndk1::prev[abi:v170000]<std::__ndk1::function<void (void*)>*>(std::__ndk1::enable_if, std::__ndk1::iterator_traits<std::__ndk1::enable_if>::difference_type)
FUNC 9c0d0 54 0 std::__ndk1::advance[abi:v170000]<std::__ndk1::function<void (void*)>*, long, long, void>(std::__ndk1::function<void (void*)>*&, long)
FUNC 9c124 34 0 std::__ndk1::__advance[abi:v170000]<std::__ndk1::function<void (void*)>*>(std::__ndk1::function<void (void*)>*&, std::__ndk1::iterator_traits<std::__ndk1::function<void (void*)>*>::difference_type, std::__ndk1::random_access_iterator_tag)
FUNC 9c158 ac 0 std::__ndk1::_AllocatorDestroyRangeReverse<std::__ndk1::allocator<std::__ndk1::function<void (void*)> >, std::__ndk1::reverse_iterator<std::__ndk1::function<void (void*)>*> >::operator()[abi:v170000]() const
FUNC 9c204 68 0 std::__ndk1::__allocator_destroy[abi:v170000]<std::__ndk1::allocator<std::__ndk1::function<void (void*)> >, std::__ndk1::reverse_iterator<std::__ndk1::allocator<std::__ndk1::function<void (void*)> ><void (*)(void*)> >, std::__ndk1::allocator<std::__ndk1::function<void (void*)> ><void (*)(void*)> >(std::__ndk1::allocator<std::__ndk1::function<void (void*)> >&, std::__ndk1::reverse_iterator<std::__ndk1::allocator<std::__ndk1::function<void (void*)> ><void (*)(void*)> >, std::__ndk1::allocator<std::__ndk1::function<void (void*)> ><void (*)(void*)>)
FUNC 9c26c 5c 0 std::__ndk1::reverse_iterator<std::__ndk1::reverse_iterator<std::__ndk1::function<void (void*)>*> >::reverse_iterator[abi:v170000](std::__ndk1::reverse_iterator<std::__ndk1::function<void (void*)>*>)
FUNC 9c2c8 84 0 std::__ndk1::operator!=[abi:v170000]<std::__ndk1::reverse_iterator<std::__ndk1::function<void (void*)>*>, std::__ndk1::function<void (void*)>*>(std::__ndk1::operator!=[abi:v170000]<std::__ndk1::reverse_iterator<std::__ndk1::function<void (void*)>*> > const&, std::__ndk1::operator!=[abi:v170000]<std::__ndk1::function<void (void*)>*> const&)
FUNC 9c34c 28 0 std::__ndk1::allocator_traits<std::__ndk1::allocator<std::__ndk1::function<void (void*)> > >::destroy[abi:v170000]<std::__ndk1::function<void (void*)>, void, void>(std::__ndk1::allocator<std::__ndk1::function<void (void*)> >&, std::__ndk1::function<void (void*)>*)
FUNC 9c374 24 0 std::__ndk1::__to_address[abi:v170000]<std::__ndk1::reverse_iterator<std::__ndk1::__to_address[abi:v170000]<std::__ndk1::function<void (void*)>*> >, void>(std::__ndk1::decay const)
FUNC 9c398 30 0 std::__ndk1::reverse_iterator<std::__ndk1::reverse_iterator<std::__ndk1::function<void (void*)>*> >::operator++[abi:v170000]()
FUNC 9c3c8 64 0 std::__ndk1::reverse_iterator<std::__ndk1::reverse_iterator<std::__ndk1::function<void (void*)>*> >::base[abi:v170000]() const
FUNC 9c42c 24 0 std::__ndk1::destroy_at[abi:v170000]<std::__ndk1::function<void (void*)>, 0>(std::__ndk1::function<void (void*)>*)
FUNC 9c450 24 0 std::__ndk1::__destroy_at[abi:v170000]<std::__ndk1::function<void (void*)>, 0>(std::__ndk1::function<void (void*)>*)
FUNC 9c474 38 0 std::__ndk1::__to_address_helper<std::__ndk1::reverse_iterator<std::__ndk1::reverse_iterator<std::__ndk1::function<void (void*)>*> >, void>::__call[abi:v170000](std::__ndk1::reverse_iterator<std::__ndk1::reverse_iterator<std::__ndk1::function<void (void*)>*> > const&)
FUNC 9c4ac 80 0 std::__ndk1::reverse_iterator<std::__ndk1::reverse_iterator<std::__ndk1::function<void (void*)>*> >::operator->[abi:v170000]() const
FUNC 9c52c a8 0 std::__ndk1::prev[abi:v170000]<std::__ndk1::reverse_iterator<std::__ndk1::function<void (void*)>*> >(std::__ndk1::enable_if, std::__ndk1::iterator_traits<std::__ndk1::enable_if>::difference_type)
FUNC 9c5d4 54 0 std::__ndk1::advance[abi:v170000]<std::__ndk1::reverse_iterator<std::__ndk1::function<void (void*)>*>, long, long, void>(std::__ndk1::reverse_iterator<std::__ndk1::function<void (void*)>*>&, long)
FUNC 9c628 30 0 std::__ndk1::__advance[abi:v170000]<std::__ndk1::reverse_iterator<std::__ndk1::function<void (void*)>*> >(std::__ndk1::reverse_iterator<std::__ndk1::function<void (void*)>*>&, std::__ndk1::iterator_traits<std::__ndk1::reverse_iterator<std::__ndk1::function<void (void*)>*> >::difference_type, std::__ndk1::random_access_iterator_tag)
FUNC 9c658 30 0 std::__ndk1::reverse_iterator<std::__ndk1::function<void (void*)>*>::operator+=[abi:v170000](long)
FUNC 9c688 20 0 std::__ndk1::reverse_iterator<std::__ndk1::function<void (void*)>*>::operator--[abi:v170000]()
FUNC 9c6a8 28 0 std::__ndk1::__split_buffer<std::__ndk1::function<void (void*)>, std::__ndk1::allocator<std::__ndk1::function<void (void*)> >&>::clear[abi:v170000]()
FUNC 9c6d0 34 0 std::__ndk1::allocator_traits<std::__ndk1::allocator<std::__ndk1::function<void (void*)> > >::deallocate[abi:v170000](std::__ndk1::allocator<std::__ndk1::function<void (void*)> >&, std::__ndk1::function<void (void*)>*, unsigned long)
FUNC 9c704 40 0 std::__ndk1::__split_buffer<std::__ndk1::function<void (void*)>, std::__ndk1::allocator<std::__ndk1::function<void (void*)> >&>::capacity[abi:v170000]() const
FUNC 9c744 30 0 std::__ndk1::__split_buffer<std::__ndk1::function<void (void*)>, std::__ndk1::allocator<std::__ndk1::function<void (void*)> >&>::__destruct_at_end[abi:v170000](std::__ndk1::function<void (void*)>*)
FUNC 9c774 84 0 std::__ndk1::__split_buffer<std::__ndk1::function<void (void*)>, std::__ndk1::allocator<std::__ndk1::function<void (void*)> >&>::__destruct_at_end[abi:v170000](std::__ndk1::function<void (void*)>*, std::__ndk1::integral_constant<bool, false>)
FUNC 9c7f8 44 0 std::__ndk1::allocator<std::__ndk1::function<void (void*)> >::deallocate[abi:v170000](std::__ndk1::function<void (void*)>*, unsigned long)
FUNC 9c83c 28 0 std::__ndk1::__split_buffer<std::__ndk1::function<void (void*)>, std::__ndk1::allocator<std::__ndk1::function<void (void*)> >&>::__end_cap[abi:v170000]() const
FUNC 9c864 24 0 std::__ndk1::__compressed_pair<std::__ndk1::function<void (void*)>*, std::__ndk1::allocator<std::__ndk1::function<void (void*)> >&>::first[abi:v170000]() const
FUNC 9c888 18 0 std::__ndk1::__function::__value_func<void (void*)>::__value_func[abi:v170000]()
FUNC 9c8a0 1c 0 std::__ndk1::vector<void*, std::__ndk1::allocator<void*> >::__throw_out_of_range[abi:v170000]() const
FUNC 9c8bc 64 0 std::__ndk1::__throw_out_of_range[abi:v170000](char const*)
FUNC 9c920 4c 0 std::out_of_range::out_of_range[abi:v170000](char const*)
FUNC 9c96c 68 0 std::__ndk1::vector<std::__ndk1::function<void (void*)>, std::__ndk1::allocator<std::__ndk1::function<void (void*)> > >::at(unsigned long)
FUNC 9c9d4 3c 0 std::__ndk1::function<void (void*)>::operator=(std::__ndk1::function<void (void*)>&&)
FUNC 9ca10 1c 0 std::__ndk1::vector<std::__ndk1::function<void (void*)>, std::__ndk1::allocator<std::__ndk1::function<void (void*)> > >::__throw_out_of_range[abi:v170000]() const
FUNC 9ca2c c0 0 std::__ndk1::__function::__value_func<void (void*)>::operator=[abi:v170000](std::__ndk1::__function::__value_func<void (void*)>&&)
FUNC 9caec 8c 0 std::__ndk1::__function::__value_func<void (void*)>::operator=[abi:v170000](std::nullptr_t)
FUNC 9cb78 78 0 std::__ndk1::__function::__value_func<void (void*)>::__value_func[abi:v170000]<void (*)(void*), void>()
FUNC 9cbf0 24 0 std::__ndk1::allocator<void (*)(void*)>::allocator[abi:v170000]()
FUNC 9cc14 b8 0 std::__ndk1::__function::__value_func<void (void*)>::__value_func[abi:v170000]<void (*)(void*), std::__ndk1::allocator<std::__ndk1::__function::__value_func<void (void*)>::__value_func[abi:v170000]> >(std::__ndk1::allocator<std::__ndk1::__function::__value_func<void (void*)>::__value_func[abi:v170000]> const&)
FUNC 9cccc 10 0 std::__ndk1::__non_trivial_if<true, std::__ndk1::allocator<void (*)(void*)> >::__non_trivial_if[abi:v170000]()
FUNC 9ccdc 20 0 std::__ndk1::__function::__not_null[abi:v170000]<void (void*)>(void (*)(void*))
FUNC 9ccfc 28 0 std::__ndk1::allocator<std::__ndk1::__function::__func<void (*)(void*), std::__ndk1::allocator<void (*)(void*)>, void (void*)> >::allocator[abi:v170000]<void (*)(void*)>()
FUNC 9cd24 28 0 std::__ndk1::allocator<void (*)(void*)>::allocator[abi:v170000]<std::__ndk1::__function::__func<void (*)(void*), std::__ndk1::allocator<void (*)(void*)>, void (void*)> >()
FUNC 9cd4c 84 0 std::__ndk1::__function::__func<void (*)(void*), std::__ndk1::allocator<void (*)(void*)>, void (void*)>::__func[abi:v170000](void (*&&)(void*), std::__ndk1::allocator<void (*)(void*)>&&)
FUNC 9cdd0 10 0 std::__ndk1::__non_trivial_if<true, std::__ndk1::allocator<std::__ndk1::__function::__func<void (*)(void*), std::__ndk1::allocator<void (*)(void*)>, void (void*)> > >::__non_trivial_if[abi:v170000]()
FUNC 9cde0 24 0 std::__ndk1::__function::__base<void (void*)>::__base[abi:v170000]()
FUNC 9ce04 5c 0 std::__ndk1::__function::__alloc_func<void (*)(void*), std::__ndk1::allocator<void (*)(void*)>, void (void*)>::__alloc_func[abi:v170000](void (*&&)(void*), std::__ndk1::allocator<void (*)(void*)>&&)
FUNC 9ce60 24 0 std::__ndk1::__function::__func<void (*)(void*), std::__ndk1::allocator<void (*)(void*)>, void (void*)>::~__func()
FUNC 9ce84 30 0 std::__ndk1::__function::__func<void (*)(void*), std::__ndk1::allocator<void (*)(void*)>, void (void*)>::~__func()
FUNC 9ceb4 148 0 std::__ndk1::__function::__func<void (*)(void*), std::__ndk1::allocator<void (*)(void*)>, void (void*)>::__clone() const
FUNC 9cffc 58 0 std::__ndk1::__function::__func<void (*)(void*), std::__ndk1::allocator<void (*)(void*)>, void (void*)>::__clone(std::__ndk1::__function::__base<void (void*)>*) const
FUNC 9d054 28 0 std::__ndk1::__function::__func<void (*)(void*), std::__ndk1::allocator<void (*)(void*)>, void (void*)>::destroy()
FUNC 9d07c 88 0 std::__ndk1::__function::__func<void (*)(void*), std::__ndk1::allocator<void (*)(void*)>, void (void*)>::destroy_deallocate()
FUNC 9d104 30 0 std::__ndk1::__function::__func<void (*)(void*), std::__ndk1::allocator<void (*)(void*)>, void (void*)>::operator()(void*&&)
FUNC 9d134 60 0 std::__ndk1::__function::__func<void (*)(void*), std::__ndk1::allocator<void (*)(void*)>, void (void*)>::target(std::type_info const&) const
FUNC 9d194 18 0 std::__ndk1::__function::__func<void (*)(void*), std::__ndk1::allocator<void (*)(void*)>, void (void*)>::target_type() const
FUNC 9d1ac 10 0 std::__ndk1::__function::__base<void (void*)>::~__base()
FUNC 9d1bc c 0 std::__ndk1::__function::__base<void (void*)>::~__base()
FUNC 9d1c8 60 0 std::__ndk1::forward_as_tuple[abi:v170000]<void (*)(void*)>(void (*&&)(void*))
FUNC 9d228 60 0 std::__ndk1::forward_as_tuple[abi:v170000]<std::__ndk1::allocator<void (*)(void*)> >(std::__ndk1::allocator<void (*)(void*)>&&)
FUNC 9d288 90 0 std::__ndk1::__compressed_pair<void (*)(void*), std::__ndk1::allocator<void (*)(void*)> >::__compressed_pair[abi:v170000]<void (*&&)(void*), std::__ndk1::allocator<void (*)(void*)>&&>(std::__ndk1::tuple<void (*&&)(void*)>, std::__ndk1::piecewise_construct_t<std::__ndk1::allocator<void (*)(void*)>&&>)
FUNC 9d318 3c 0 std::__ndk1::tuple<void (*&&)(void*)>::tuple[abi:v170000]<void (*)(void*), 0>()
FUNC 9d354 3c 0 std::__ndk1::__tuple_impl<std::__ndk1::__tuple_indices<(unsigned long)0>, void (*&&)(void*)>::__tuple_impl[abi:v170000]<(unsigned long)0, void (*&&)(void*), , , void (*)(void*)>(std::__ndk1::__tuple_types<void (*&&)(void*)>, std::__ndk1::__tuple_indices<()...>, std::__ndk1::__tuple_indices<((unsigned long)0)...><>, void (*&&)(void*))
FUNC 9d390 20 0 std::__ndk1::__tuple_leaf<(unsigned long)0, void (*&&)(void*), false>::__tuple_leaf[abi:v170000]<void (*)(void*), void>()
FUNC 9d3b0 3c 0 std::__ndk1::tuple<std::__ndk1::allocator<void (*)(void*)>&&>::tuple[abi:v170000]<std::__ndk1::allocator<void (*)(void*)>, 0>()
FUNC 9d3ec 3c 0 std::__ndk1::__tuple_impl<std::__ndk1::__tuple_indices<(unsigned long)0>, std::__ndk1::allocator<void (*)(void*)>&&>::__tuple_impl[abi:v170000]<(unsigned long)0, std::__ndk1::allocator<void (*)(void*)>&&, , , std::__ndk1::allocator<void (*)(void*)> >(std::__ndk1::__tuple_types<std::__ndk1::allocator<void (*)(void*)>&&>, std::__ndk1::__tuple_indices<()...>, std::__ndk1::__tuple_indices<((unsigned long)0)...><>, std::__ndk1::allocator<void (*)(void*)>&&)
FUNC 9d428 20 0 std::__ndk1::__tuple_leaf<(unsigned long)0, std::__ndk1::allocator<void (*)(void*)>&&, false>::__tuple_leaf[abi:v170000]<std::__ndk1::allocator<void (*)(void*)>, void>()
FUNC 9d448 70 0 std::__ndk1::__compressed_pair_elem<void (*)(void*), 0, false>::__compressed_pair_elem[abi:v170000]<void (*&&)(void*), (unsigned long)0>(std::__ndk1::tuple<void (*&&)(void*)>, std::__ndk1::__tuple_indices<((unsigned long)0)...>)
FUNC 9d4b8 5c 0 std::__ndk1::__compressed_pair_elem<std::__ndk1::allocator<void (*)(void*)>, 1, true>::__compressed_pair_elem[abi:v170000]<std::__ndk1::allocator<void (*)(void*)>&&, (unsigned long)0>(std::__ndk1::tuple<std::__ndk1::allocator<void (*)(void*)>&&>, std::__ndk1::__tuple_indices<((unsigned long)0)...>)
FUNC 9d514 24 0 std::__ndk1::get[abi:v170000]<(unsigned long)0, void (*&&)(void*)>(void (*&)(void*))
FUNC 9d538 18 0 std::__ndk1::__tuple_leaf<(unsigned long)0, void (*&&)(void*), false>::get[abi:v170000]()
FUNC 9d550 24 0 std::__ndk1::get[abi:v170000]<(unsigned long)0, std::__ndk1::allocator<void (*)(void*)>&&>(std::__ndk1::allocator<void (*)(void*)>&)
FUNC 9d574 18 0 std::__ndk1::__tuple_leaf<(unsigned long)0, std::__ndk1::allocator<void (*)(void*)>&&, false>::get[abi:v170000]()
FUNC 9d58c 24 0 std::__ndk1::__function::__alloc_func<void (*)(void*), std::__ndk1::allocator<void (*)(void*)>, void (void*)>::__get_allocator[abi:v170000]() const
FUNC 9d5b0 58 0 std::__ndk1::allocator<std::__ndk1::__function::__func<void (*)(void*), std::__ndk1::allocator<void (*)(void*)>, void (void*)> >::allocate[abi:v170000](unsigned long)
FUNC 9d608 2c 0 std::__ndk1::__allocator_destructor<std::__ndk1::allocator<std::__ndk1::__function::__func<void (*)(void*), std::__ndk1::allocator<void (*)(void*)>, void (void*)> > >::__allocator_destructor[abi:v170000](std::__ndk1::allocator<std::__ndk1::__function::__func<void (*)(void*), std::__ndk1::allocator<void (*)(void*)>, void (void*)> >&, unsigned long)
FUNC 9d634 64 0 std::__ndk1::unique_ptr<std::__ndk1::__function::__func<void (*)(void*), std::__ndk1::allocator<void (*)(void*)>, void (void*)>, std::__ndk1::__allocator_destructor<std::__ndk1::allocator<std::__ndk1::__function::__func<void (*)(void*), std::__ndk1::allocator<void (*)(void*)>, void (void*)> > > >::unique_ptr[abi:v170000]<true, void>(std::__ndk1::__dependent_type<std::__ndk1::__unique_ptr_deleter_sfinae<std::__ndk1::__allocator_destructor<std::__ndk1::allocator<std::__ndk1::__function::__func<void (*)(void*), std::__ndk1::allocator<void (*)(void*)>, void (void*)> > > >, true>::__good_rval_ref_type)
FUNC 9d698 28 0 std::__ndk1::unique_ptr<std::__ndk1::__function::__func<void (*)(void*), std::__ndk1::allocator<void (*)(void*)>, void (void*)>, std::__ndk1::__allocator_destructor<std::__ndk1::allocator<std::__ndk1::__function::__func<void (*)(void*), std::__ndk1::allocator<void (*)(void*)>, void (void*)> > > >::get[abi:v170000]() const
FUNC 9d6c0 24 0 std::__ndk1::__function::__alloc_func<void (*)(void*), std::__ndk1::allocator<void (*)(void*)>, void (void*)>::__target[abi:v170000]() const
FUNC 9d6e4 84 0 std::__ndk1::__function::__func<void (*)(void*), std::__ndk1::allocator<void (*)(void*)>, void (void*)>::__func[abi:v170000](void (* const&)(void*), std::__ndk1::allocator<void (*)(void*)>&&)
FUNC 9d768 44 0 std::__ndk1::unique_ptr<std::__ndk1::__function::__func<void (*)(void*), std::__ndk1::allocator<void (*)(void*)>, void (void*)>, std::__ndk1::__allocator_destructor<std::__ndk1::allocator<std::__ndk1::__function::__func<void (*)(void*), std::__ndk1::allocator<void (*)(void*)>, void (void*)> > > >::release[abi:v170000]()
FUNC 9d7ac 28 0 std::__ndk1::unique_ptr<std::__ndk1::__function::__func<void (*)(void*), std::__ndk1::allocator<void (*)(void*)>, void (void*)>, std::__ndk1::__allocator_destructor<std::__ndk1::allocator<std::__ndk1::__function::__func<void (*)(void*), std::__ndk1::allocator<void (*)(void*)>, void (void*)> > > >::~unique_ptr[abi:v170000]()
FUNC 9d7d4 24 0 std::__ndk1::__compressed_pair<void (*)(void*), std::__ndk1::allocator<void (*)(void*)> >::second[abi:v170000]() const
FUNC 9d7f8 14 0 std::__ndk1::__compressed_pair_elem<std::__ndk1::allocator<void (*)(void*)>, 1, true>::__get[abi:v170000]() const
FUNC 9d80c 28 0 std::__ndk1::allocator_traits<std::__ndk1::allocator<std::__ndk1::__function::__func<void (*)(void*), std::__ndk1::allocator<void (*)(void*)>, void (void*)> > >::max_size[abi:v170000]<std::__ndk1::allocator<std::__ndk1::__function::__func<void (*)(void*), std::__ndk1::allocator<void (*)(void*)>, void (void*)> >, void, void>(std::__ndk1::allocator<std::__ndk1::__function::__func<void (*)(void*), std::__ndk1::allocator<void (*)(void*)>, void (void*)> > const&)
FUNC 9d834 44 0 std::__ndk1::__compressed_pair<std::__ndk1::__function::__func<void (*)(void*), std::__ndk1::allocator<void (*)(void*)>, void (void*)>*, std::__ndk1::__allocator_destructor<std::__ndk1::allocator<std::__ndk1::__function::__func<void (*)(void*), std::__ndk1::allocator<void (*)(void*)>, void (void*)> > > >::__compressed_pair[abi:v170000]<std::__ndk1::__function::__func<void (*)(void*), std::__ndk1::allocator<void (*)(void*)>, void (void*)>*&, std::__ndk1::__allocator_destructor<std::__ndk1::allocator<std::__ndk1::__function::__func<void (*)(void*), std::__ndk1::allocator<void (*)(void*)>, void (void*)> > > >(std::__ndk1::__allocator_destructor<std::__ndk1::allocator<std::__ndk1::__function::__func<void (*)(void*), std::__ndk1::allocator<void (*)(void*)>, void (void*)> > >&&)
FUNC 9d878 24 0 std::__ndk1::__compressed_pair_elem<std::__ndk1::__function::__func<void (*)(void*), std::__ndk1::allocator<void (*)(void*)>, void (void*)>*, 0, false>::__compressed_pair_elem[abi:v170000]<std::__ndk1::__function::__func<void (*)(void*), std::__ndk1::allocator<void (*)(void*)>, void (void*)>*&, void>()
FUNC 9d89c 24 0 std::__ndk1::__compressed_pair_elem<std::__ndk1::__allocator_destructor<std::__ndk1::allocator<std::__ndk1::__function::__func<void (*)(void*), std::__ndk1::allocator<void (*)(void*)>, void (void*)> > >, 1, false>::__compressed_pair_elem[abi:v170000]<std::__ndk1::__allocator_destructor<std::__ndk1::allocator<std::__ndk1::__function::__func<void (*)(void*), std::__ndk1::allocator<void (*)(void*)>, void (void*)> > >, void>()
FUNC 9d8c0 24 0 std::__ndk1::__compressed_pair<std::__ndk1::__function::__func<void (*)(void*), std::__ndk1::allocator<void (*)(void*)>, void (void*)>*, std::__ndk1::__allocator_destructor<std::__ndk1::allocator<std::__ndk1::__function::__func<void (*)(void*), std::__ndk1::allocator<void (*)(void*)>, void (void*)> > > >::first[abi:v170000]() const
FUNC 9d8e4 14 0 std::__ndk1::__compressed_pair_elem<std::__ndk1::__function::__func<void (*)(void*), std::__ndk1::allocator<void (*)(void*)>, void (void*)>*, 0, false>::__get[abi:v170000]() const
FUNC 9d8f8 24 0 std::__ndk1::__compressed_pair<void (*)(void*), std::__ndk1::allocator<void (*)(void*)> >::first[abi:v170000]() const
FUNC 9d91c 14 0 std::__ndk1::__compressed_pair_elem<void (*)(void*), 0, false>::__get[abi:v170000]() const
FUNC 9d930 5c 0 std::__ndk1::__function::__alloc_func<void (*)(void*), std::__ndk1::allocator<void (*)(void*)>, void (void*)>::__alloc_func[abi:v170000](void (* const&)(void*), std::__ndk1::allocator<void (*)(void*)>&&)
FUNC 9d98c 60 0 std::__ndk1::forward_as_tuple[abi:v170000]<void (* const&)(void*)>(void (* const&)(void*))
FUNC 9d9ec 90 0 std::__ndk1::__compressed_pair<void (*)(void*), std::__ndk1::allocator<void (*)(void*)> >::__compressed_pair[abi:v170000]<void (* const&)(void*), std::__ndk1::allocator<void (*)(void*)>&&>(std::__ndk1::tuple<void (* const&)(void*)>, std::__ndk1::piecewise_construct_t<std::__ndk1::allocator<void (*)(void*)>&&>)
FUNC 9da7c 3c 0 std::__ndk1::tuple<void (* const&)(void*)>::tuple[abi:v170000]<std::__ndk1::_And, 0>()
FUNC 9dab8 3c 0 std::__ndk1::__tuple_impl<std::__ndk1::__tuple_indices<(unsigned long)0>, void (* const&)(void*)>::__tuple_impl[abi:v170000]<(unsigned long)0, void (* const&)(void*), , , void (* const&)(void*)>(std::__ndk1::__tuple_types<void (* const&)(void*)>, std::__ndk1::__tuple_indices<()...>, std::__ndk1::__tuple_indices<((unsigned long)0)...><>, void (* const&)(void*))
FUNC 9daf4 20 0 std::__ndk1::__tuple_leaf<(unsigned long)0, void (* const&)(void*), false>::__tuple_leaf[abi:v170000]<void (* const&)(void*), void>()
FUNC 9db14 70 0 std::__ndk1::__compressed_pair_elem<void (*)(void*), 0, false>::__compressed_pair_elem[abi:v170000]<void (* const&)(void*), (unsigned long)0>(std::__ndk1::tuple<void (* const&)(void*)>, std::__ndk1::__tuple_indices<((unsigned long)0)...>)
FUNC 9db84 24 0 std::__ndk1::get[abi:v170000]<(unsigned long)0, void (* const&)(void*)>(void (* const&)(void*))
FUNC 9dba8 18 0 std::__ndk1::__tuple_leaf<(unsigned long)0, void (* const&)(void*), false>::get[abi:v170000]()
FUNC 9dbc0 24 0 std::__ndk1::__compressed_pair<std::__ndk1::__function::__func<void (*)(void*), std::__ndk1::allocator<void (*)(void*)>, void (void*)>*, std::__ndk1::__allocator_destructor<std::__ndk1::allocator<std::__ndk1::__function::__func<void (*)(void*), std::__ndk1::allocator<void (*)(void*)>, void (void*)> > > >::first[abi:v170000]()
FUNC 9dbe4 14 0 std::__ndk1::__compressed_pair_elem<std::__ndk1::__function::__func<void (*)(void*), std::__ndk1::allocator<void (*)(void*)>, void (void*)>*, 0, false>::__get[abi:v170000]()
FUNC 9dbf8 78 0 std::__ndk1::unique_ptr<std::__ndk1::__function::__func<void (*)(void*), std::__ndk1::allocator<void (*)(void*)>, void (void*)>, std::__ndk1::__allocator_destructor<std::__ndk1::allocator<std::__ndk1::__function::__func<void (*)(void*), std::__ndk1::allocator<void (*)(void*)>, void (void*)> > > >::reset[abi:v170000](std::__ndk1::__function::__func<void (*)(void*), std::__ndk1::allocator<void (*)(void*)>, void (void*)>*)
FUNC 9dc70 28 0 std::__ndk1::__compressed_pair<std::__ndk1::__function::__func<void (*)(void*), std::__ndk1::allocator<void (*)(void*)>, void (void*)>*, std::__ndk1::__allocator_destructor<std::__ndk1::allocator<std::__ndk1::__function::__func<void (*)(void*), std::__ndk1::allocator<void (*)(void*)>, void (void*)> > > >::second[abi:v170000]()
FUNC 9dc98 34 0 std::__ndk1::__allocator_destructor<std::__ndk1::allocator<std::__ndk1::__function::__func<void (*)(void*), std::__ndk1::allocator<void (*)(void*)>, void (void*)> > >::operator()[abi:v170000](std::__ndk1::__function::__func<void (*)(void*), std::__ndk1::allocator<void (*)(void*)>, void (void*)>*)
FUNC 9dccc 14 0 std::__ndk1::__compressed_pair_elem<std::__ndk1::__allocator_destructor<std::__ndk1::allocator<std::__ndk1::__function::__func<void (*)(void*), std::__ndk1::allocator<void (*)(void*)>, void (void*)> > >, 1, false>::__get[abi:v170000]()
FUNC 9dce0 34 0 std::__ndk1::allocator_traits<std::__ndk1::allocator<std::__ndk1::__function::__func<void (*)(void*), std::__ndk1::allocator<void (*)(void*)>, void (void*)> > >::deallocate[abi:v170000](std::__ndk1::allocator<std::__ndk1::__function::__func<void (*)(void*), std::__ndk1::allocator<void (*)(void*)>, void (void*)> >&, std::__ndk1::__function::__func<void (*)(void*), std::__ndk1::allocator<void (*)(void*)>, void (void*)>*, unsigned long)
FUNC 9dd14 40 0 std::__ndk1::allocator<std::__ndk1::__function::__func<void (*)(void*), std::__ndk1::allocator<void (*)(void*)>, void (void*)> >::deallocate[abi:v170000](std::__ndk1::__function::__func<void (*)(void*), std::__ndk1::allocator<void (*)(void*)>, void (void*)>*, unsigned long)
FUNC 9dd54 84 0 std::__ndk1::__function::__func<void (*)(void*), std::__ndk1::allocator<void (*)(void*)>, void (void*)>::__func[abi:v170000](void (* const&)(void*), std::__ndk1::allocator<void (*)(void*)> const&)
FUNC 9ddd8 5c 0 std::__ndk1::__function::__alloc_func<void (*)(void*), std::__ndk1::allocator<void (*)(void*)>, void (void*)>::__alloc_func[abi:v170000](void (* const&)(void*), std::__ndk1::allocator<void (*)(void*)> const&)
FUNC 9de34 60 0 std::__ndk1::forward_as_tuple[abi:v170000]<std::__ndk1::allocator<void (*)(void*)> const&>(std::__ndk1::allocator<void (*)(void*)> const&)
FUNC 9de94 90 0 std::__ndk1::__compressed_pair<void (*)(void*), std::__ndk1::allocator<void (*)(void*)> >::__compressed_pair[abi:v170000]<void (* const&)(void*), std::__ndk1::allocator<void (*)(void*)> const&>(std::__ndk1::tuple<void (* const&)(void*)>, std::__ndk1::piecewise_construct_t<std::__ndk1::allocator<void (*)(void*)> const&>)
FUNC 9df24 3c 0 std::__ndk1::tuple<std::__ndk1::allocator<void (*)(void*)> const&>::tuple[abi:v170000]<std::__ndk1::_And, 0>()
FUNC 9df60 3c 0 std::__ndk1::__tuple_impl<std::__ndk1::__tuple_indices<(unsigned long)0>, std::__ndk1::allocator<void (*)(void*)> const&>::__tuple_impl[abi:v170000]<(unsigned long)0, std::__ndk1::allocator<void (*)(void*)> const&, , , std::__ndk1::allocator<void (*)(void*)> const&>(std::__ndk1::__tuple_types<std::__ndk1::allocator<void (*)(void*)> const&>, std::__ndk1::__tuple_indices<()...>, std::__ndk1::__tuple_indices<((unsigned long)0)...><>, std::__ndk1::allocator<void (*)(void*)> const&)
FUNC 9df9c 20 0 std::__ndk1::__tuple_leaf<(unsigned long)0, std::__ndk1::allocator<void (*)(void*)> const&, false>::__tuple_leaf[abi:v170000]<std::__ndk1::allocator<void (*)(void*)> const&, void>()
FUNC 9dfbc 5c 0 std::__ndk1::__compressed_pair_elem<std::__ndk1::allocator<void (*)(void*)>, 1, true>::__compressed_pair_elem[abi:v170000]<std::__ndk1::allocator<void (*)(void*)> const&, (unsigned long)0>(std::__ndk1::tuple<std::__ndk1::allocator<void (*)(void*)> const&>, std::__ndk1::__tuple_indices<((unsigned long)0)...>)
FUNC 9e018 24 0 std::__ndk1::get[abi:v170000]<(unsigned long)0, std::__ndk1::allocator<void (*)(void*)> const&>(std::__ndk1::allocator<void (*)(void*)> const&)
FUNC 9e03c 18 0 std::__ndk1::__tuple_leaf<(unsigned long)0, std::__ndk1::allocator<void (*)(void*)> const&, false>::get[abi:v170000]()
FUNC 9e054 10 0 std::__ndk1::__function::__alloc_func<void (*)(void*), std::__ndk1::allocator<void (*)(void*)>, void (void*)>::destroy[abi:v170000]()
FUNC 9e064 30 0 std::__ndk1::__function::__alloc_func<void (*)(void*), std::__ndk1::allocator<void (*)(void*)>, void (void*)>::operator()[abi:v170000](void*&&)
FUNC 9e094 2c 0 std::__ndk1::__invoke_void_return_wrapper<void, true>::__call<void (*&)(void*), void*>(void (*&)(void*), void*)
FUNC 9e0c0 24 0 std::__ndk1::__compressed_pair<void (*)(void*), std::__ndk1::allocator<void (*)(void*)> >::first[abi:v170000]()
FUNC 9e0e4 34 0 std::__ndk1::__invoke[abi:v170000]<void (*&)(void*), std::__ndk1::__invoke[abi:v170000]>(void (*&)(void*), void (*&)(void*))
FUNC 9e118 14 0 std::__ndk1::__compressed_pair_elem<void (*)(void*), 0, false>::__get[abi:v170000]()
FUNC 9e12c 40 0 std::type_info::operator==[abi:v170000](std::type_info const&) const
FUNC 9e16c 84 0 std::__ndk1::__function::__value_func<void (void*)>::~__value_func[abi:v170000]()
FUNC 9e1f0 18 0 MyUnlockLayer::Fields::Fields()
FUNC 9e208 138 0 std::__ndk1::__tree<std::__ndk1::__value_type<std::__ndk1::basic_string<char, std::__ndk1::char_traits<char>, std::__ndk1::allocator<char> >, std::__ndk1::shared_ptr<geode::Hook> >, std::__ndk1::__map_value_compare<std::__ndk1::basic_string<char, std::__ndk1::char_traits<char>, std::__ndk1::allocator<char> >, std::__ndk1::__value_type<std::__ndk1::basic_string<char, std::__ndk1::char_traits<char>, std::__ndk1::allocator<char> >, std::__ndk1::shared_ptr<geode::Hook> >, std::__ndk1::less<std::__ndk1::basic_string<char, std::__ndk1::char_traits<char>, std::__ndk1::allocator<char> > >, true>, std::__ndk1::allocator<std::__ndk1::__value_type<std::__ndk1::basic_string<char, std::__ndk1::char_traits<char>, std::__ndk1::allocator<char> >, std::__ndk1::shared_ptr<geode::Hook> > > >::__emplace_unique_key_args<std::__ndk1::basic_string<char, std::__ndk1::char_traits<char>, std::__ndk1::allocator<char> >, std::__ndk1::piecewise_construct_t const&, std::__ndk1::tuple<std::__ndk1::basic_string<char, std::__ndk1::char_traits<char>, std::__ndk1::allocator<char> >&&>, std::__ndk1::tuple<> >(std::__ndk1::basic_string<char, std::__ndk1::char_traits<char>, std::__ndk1::allocator<char> > const&, std::__ndk1::piecewise_construct_t const&, std::__ndk1::tuple<std::__ndk1::basic_string<char, std::__ndk1::char_traits<char>, std::__ndk1::allocator<char> >&&>, std::__ndk1::tuple<>)
FUNC 9e340 60 0 std::__ndk1::forward_as_tuple[abi:v170000]<std::__ndk1::basic_string<char, std::__ndk1::char_traits<char>, std::__ndk1::allocator<char> > >(std::__ndk1::basic_string<char, std::__ndk1::char_traits<char>, std::__ndk1::allocator<char> >&&)
FUNC 9e3a0 4 0 std::__ndk1::forward_as_tuple[abi:v170000]<>(&&)
FUNC 9e3a4 184 0 std::__ndk1::__tree<std::__ndk1::__value_type<std::__ndk1::basic_string<char, std::__ndk1::char_traits<char>, std::__ndk1::allocator<char> >, std::__ndk1::shared_ptr<geode::Hook> >, std::__ndk1::__map_value_compare<std::__ndk1::basic_string<char, std::__ndk1::char_traits<char>, std::__ndk1::allocator<char> >, std::__ndk1::__value_type<std::__ndk1::basic_string<char, std::__ndk1::char_traits<char>, std::__ndk1::allocator<char> >, std::__ndk1::shared_ptr<geode::Hook> >, std::__ndk1::less<std::__ndk1::basic_string<char, std::__ndk1::char_traits<char>, std::__ndk1::allocator<char> > >, true>, std::__ndk1::allocator<std::__ndk1::__value_type<std::__ndk1::basic_string<char, std::__ndk1::char_traits<char>, std::__ndk1::allocator<char> >, std::__ndk1::shared_ptr<geode::Hook> > > >::__find_equal<std::__ndk1::basic_string<char, std::__ndk1::char_traits<char>, std::__ndk1::allocator<char> > >(std::__ndk1::__tree_end_node<std::__ndk1::__tree_node_base<void*>*>*&, std::__ndk1::basic_string<char, std::__ndk1::char_traits<char>, std::__ndk1::allocator<char> > const&)
FUNC 9e528 14c 0 std::__ndk1::__tree<std::__ndk1::__value_type<std::__ndk1::basic_string<char, std::__ndk1::char_traits<char>, std::__ndk1::allocator<char> >, std::__ndk1::shared_ptr<geode::Hook> >, std::__ndk1::__map_value_compare<std::__ndk1::basic_string<char, std::__ndk1::char_traits<char>, std::__ndk1::allocator<char> >, std::__ndk1::__value_type<std::__ndk1::basic_string<char, std::__ndk1::char_traits<char>, std::__ndk1::allocator<char> >, std::__ndk1::shared_ptr<geode::Hook> >, std::__ndk1::less<std::__ndk1::basic_string<char, std::__ndk1::char_traits<char>, std::__ndk1::allocator<char> > >, true>, std::__ndk1::allocator<std::__ndk1::__value_type<std::__ndk1::basic_string<char, std::__ndk1::char_traits<char>, std::__ndk1::allocator<char> >, std::__ndk1::shared_ptr<geode::Hook> > > >::__construct_node<std::__ndk1::piecewise_construct_t const&, std::__ndk1::tuple<std::__ndk1::basic_string<char, std::__ndk1::char_traits<char>, std::__ndk1::allocator<char> >&&>, std::__ndk1::tuple<> >(std::__ndk1::piecewise_construct_t const&, std::__ndk1::tuple<std::__ndk1::basic_string<char, std::__ndk1::char_traits<char>, std::__ndk1::allocator<char> >&&>, std::__ndk1::tuple<>)
FUNC 9e674 cc 0 std::__ndk1::__tree<std::__ndk1::__value_type<std::__ndk1::basic_string<char, std::__ndk1::char_traits<char>, std::__ndk1::allocator<char> >, std::__ndk1::shared_ptr<geode::Hook> >, std::__ndk1::__map_value_compare<std::__ndk1::basic_string<char, std::__ndk1::char_traits<char>, std::__ndk1::allocator<char> >, std::__ndk1::__value_type<std::__ndk1::basic_string<char, std::__ndk1::char_traits<char>, std::__ndk1::allocator<char> >, std::__ndk1::shared_ptr<geode::Hook> >, std::__ndk1::less<std::__ndk1::basic_string<char, std::__ndk1::char_traits<char>, std::__ndk1::allocator<char> > >, true>, std::__ndk1::allocator<std::__ndk1::__value_type<std::__ndk1::basic_string<char, std::__ndk1::char_traits<char>, std::__ndk1::allocator<char> >, std::__ndk1::shared_ptr<geode::Hook> > > >::__insert_node_at(std::__ndk1::__tree_end_node<std::__ndk1::__tree_node_base<void*>*>*, std::__ndk1::__tree_node_base<void*>*&, std::__ndk1::__tree_node_base<void*>*)
FUNC 9e740 28 0 std::__ndk1::unique_ptr<std::__ndk1::__tree_node<std::__ndk1::__value_type<std::__ndk1::basic_string<char, std::__ndk1::char_traits<char>, std::__ndk1::allocator<char> >, std::__ndk1::shared_ptr<geode::Hook> >, void*>, std::__ndk1::__tree_node_destructor<std::__ndk1::allocator<std::__ndk1::__tree_node<std::__ndk1::__value_type<std::__ndk1::basic_string<char, std::__ndk1::char_traits<char>, std::__ndk1::allocator<char> >, std::__ndk1::shared_ptr<geode::Hook> >, void*> > > >::get[abi:v170000]() const
FUNC 9e768 44 0 std::__ndk1::unique_ptr<std::__ndk1::__tree_node<std::__ndk1::__value_type<std::__ndk1::basic_string<char, std::__ndk1::char_traits<char>, std::__ndk1::allocator<char> >, std::__ndk1::shared_ptr<geode::Hook> >, void*>, std::__ndk1::__tree_node_destructor<std::__ndk1::allocator<std::__ndk1::__tree_node<std::__ndk1::__value_type<std::__ndk1::basic_string<char, std::__ndk1::char_traits<char>, std::__ndk1::allocator<char> >, std::__ndk1::shared_ptr<geode::Hook> >, void*> > > >::release[abi:v170000]()
FUNC 9e7ac 28 0 std::__ndk1::unique_ptr<std::__ndk1::__tree_node<std::__ndk1::__value_type<std::__ndk1::basic_string<char, std::__ndk1::char_traits<char>, std::__ndk1::allocator<char> >, std::__ndk1::shared_ptr<geode::Hook> >, void*>, std::__ndk1::__tree_node_destructor<std::__ndk1::allocator<std::__ndk1::__tree_node<std::__ndk1::__value_type<std::__ndk1::basic_string<char, std::__ndk1::char_traits<char>, std::__ndk1::allocator<char> >, std::__ndk1::shared_ptr<geode::Hook> >, void*> > > >::~unique_ptr[abi:v170000]()
FUNC 9e7d4 38 0 std::__ndk1::pair<std::__ndk1::__tree_iterator<std::__ndk1::__value_type<std::__ndk1::basic_string<char, std::__ndk1::char_traits<char>, std::__ndk1::allocator<char> >, std::__ndk1::shared_ptr<geode::Hook> >, std::__ndk1::__tree_node<std::__ndk1::__value_type<std::__ndk1::basic_string<char, std::__ndk1::char_traits<char>, std::__ndk1::allocator<char> >, std::__ndk1::shared_ptr<geode::Hook> >, void*>*, long>, bool>::pair[abi:v170000]<std::__ndk1::__tree_iterator<std::__ndk1::__value_type<std::__ndk1::basic_string<char, std::__ndk1::char_traits<char>, std::__ndk1::allocator<char> >, std::__ndk1::shared_ptr<geode::Hook> >, std::__ndk1::__tree_node<std::__ndk1::__value_type<std::__ndk1::basic_string<char, std::__ndk1::char_traits<char>, std::__ndk1::allocator<char> >, std::__ndk1::shared_ptr<geode::Hook> >, void*>*, long>, bool&, (void*)0>(bool&)
FUNC 9e80c 24 0 std::__ndk1::__tree<std::__ndk1::__value_type<std::__ndk1::basic_string<char, std::__ndk1::char_traits<char>, std::__ndk1::allocator<char> >, std::__ndk1::shared_ptr<geode::Hook> >, std::__ndk1::__map_value_compare<std::__ndk1::basic_string<char, std::__ndk1::char_traits<char>, std::__ndk1::allocator<char> >, std::__ndk1::__value_type<std::__ndk1::basic_string<char, std::__ndk1::char_traits<char>, std::__ndk1::allocator<char> >, std::__ndk1::shared_ptr<geode::Hook> >, std::__ndk1::less<std::__ndk1::basic_string<char, std::__ndk1::char_traits<char>, std::__ndk1::allocator<char> > >, true>, std::__ndk1::allocator<std::__ndk1::__value_type<std::__ndk1::basic_string<char, std::__ndk1::char_traits<char>, std::__ndk1::allocator<char> >, std::__ndk1::shared_ptr<geode::Hook> > > >::__root_ptr() const
FUNC 9e830 2c 0 std::__ndk1::allocator_traits<std::__ndk1::allocator<std::__ndk1::__tree_node<std::__ndk1::__value_type<std::__ndk1::basic_string<char, std::__ndk1::char_traits<char>, std::__ndk1::allocator<char> >, std::__ndk1::shared_ptr<geode::Hook> >, void*> > >::allocate[abi:v170000](std::__ndk1::allocator<std::__ndk1::__tree_node<std::__ndk1::__value_type<std::__ndk1::basic_string<char, std::__ndk1::char_traits<char>, std::__ndk1::allocator<char> >, std::__ndk1::shared_ptr<geode::Hook> >, void*> >&, unsigned long)
FUNC 9e85c 38 0 std::__ndk1::__tree_node_destructor<std::__ndk1::allocator<std::__ndk1::__tree_node<std::__ndk1::__value_type<std::__ndk1::basic_string<char, std::__ndk1::char_traits<char>, std::__ndk1::allocator<char> >, std::__ndk1::shared_ptr<geode::Hook> >, void*> > >::__tree_node_destructor[abi:v170000](std::__ndk1::allocator<std::__ndk1::__tree_node<std::__ndk1::__value_type<std::__ndk1::basic_string<char, std::__ndk1::char_traits<char>, std::__ndk1::allocator<char> >, std::__ndk1::shared_ptr<geode::Hook> >, void*> >&, bool)
FUNC 9e894 64 0 std::__ndk1::unique_ptr<std::__ndk1::__tree_node<std::__ndk1::__value_type<std::__ndk1::basic_string<char, std::__ndk1::char_traits<char>, std::__ndk1::allocator<char> >, std::__ndk1::shared_ptr<geode::Hook> >, void*>, std::__ndk1::__tree_node_destructor<std::__ndk1::allocator<std::__ndk1::__tree_node<std::__ndk1::__value_type<std::__ndk1::basic_string<char, std::__ndk1::char_traits<char>, std::__ndk1::allocator<char> >, std::__ndk1::shared_ptr<geode::Hook> >, void*> > > >::unique_ptr[abi:v170000]<true, void>(std::__ndk1::__dependent_type<std::__ndk1::__unique_ptr_deleter_sfinae<std::__ndk1::__tree_node_destructor<std::__ndk1::allocator<std::__ndk1::__tree_node<std::__ndk1::__value_type<std::__ndk1::basic_string<char, std::__ndk1::char_traits<char>, std::__ndk1::allocator<char> >, std::__ndk1::shared_ptr<geode::Hook> >, void*> > > >, true>::__good_rval_ref_type)
FUNC 9e8f8 40 0 std::__ndk1::allocator_traits<std::__ndk1::allocator<std::__ndk1::__tree_node<std::__ndk1::__value_type<std::__ndk1::basic_string<char, std::__ndk1::char_traits<char>, std::__ndk1::allocator<char> >, std::__ndk1::shared_ptr<geode::Hook> >, void*> > >::construct[abi:v170000]<std::__ndk1::pair<std::__ndk1::basic_string<char, std::__ndk1::char_traits<char>, std::__ndk1::allocator<char> > const, std::__ndk1::shared_ptr<geode::Hook> >, std::__ndk1::piecewise_construct_t const&, std::__ndk1::tuple<std::__ndk1::basic_string<char, std::__ndk1::char_traits<char>, std::__ndk1::allocator<char> >&&>, std::__ndk1::piecewise_construct_t const&<>, void, void>(std::__ndk1::allocator<std::__ndk1::__tree_node<std::__ndk1::__value_type<std::__ndk1::basic_string<char, std::__ndk1::char_traits<char>, std::__ndk1::allocator<char> >, std::__ndk1::shared_ptr<geode::Hook> >, void*> >&, std::__ndk1::pair<std::__ndk1::basic_string<char, std::__ndk1::char_traits<char>, std::__ndk1::allocator<char> > const, std::__ndk1::shared_ptr<geode::Hook> >*, std::__ndk1::piecewise_construct_t const&, std::__ndk1::tuple<std::__ndk1::basic_string<char, std::__ndk1::char_traits<char>, std::__ndk1::allocator<char> >&&>, std::__ndk1::piecewise_construct_t const&<>)
FUNC 9e938 28 0 std::__ndk1::unique_ptr<std::__ndk1::__tree_node<std::__ndk1::__value_type<std::__ndk1::basic_string<char, std::__ndk1::char_traits<char>, std::__ndk1::allocator<char> >, std::__ndk1::shared_ptr<geode::Hook> >, void*>, std::__ndk1::__tree_node_destructor<std::__ndk1::allocator<std::__ndk1::__tree_node<std::__ndk1::__value_type<std::__ndk1::basic_string<char, std::__ndk1::char_traits<char>, std::__ndk1::allocator<char> >, std::__ndk1::shared_ptr<geode::Hook> >, void*> > > >::operator->[abi:v170000]() const
FUNC 9e960 24 0 std::__ndk1::unique_ptr<std::__ndk1::__tree_node<std::__ndk1::__value_type<std::__ndk1::basic_string<char, std::__ndk1::char_traits<char>, std::__ndk1::allocator<char> >, std::__ndk1::shared_ptr<geode::Hook> >, void*>, std::__ndk1::__tree_node_destructor<std::__ndk1::allocator<std::__ndk1::__tree_node<std::__ndk1::__value_type<std::__ndk1::basic_string<char, std::__ndk1::char_traits<char>, std::__ndk1::allocator<char> >, std::__ndk1::shared_ptr<geode::Hook> >, void*> > > >::get_deleter[abi:v170000]()
FUNC 9e984 5c 0 std::__ndk1::allocator<std::__ndk1::__tree_node<std::__ndk1::__value_type<std::__ndk1::basic_string<char, std::__ndk1::char_traits<char>, std::__ndk1::allocator<char> >, std::__ndk1::shared_ptr<geode::Hook> >, void*> >::allocate[abi:v170000](unsigned long)
FUNC 9e9e0 28 0 std::__ndk1::allocator_traits<std::__ndk1::allocator<std::__ndk1::__tree_node<std::__ndk1::__value_type<std::__ndk1::basic_string<char, std::__ndk1::char_traits<char>, std::__ndk1::allocator<char> >, std::__ndk1::shared_ptr<geode::Hook> >, void*> > >::max_size[abi:v170000]<std::__ndk1::allocator<std::__ndk1::__tree_node<std::__ndk1::__value_type<std::__ndk1::basic_string<char, std::__ndk1::char_traits<char>, std::__ndk1::allocator<char> >, std::__ndk1::shared_ptr<geode::Hook> >, void*> >, void, void>(std::__ndk1::allocator<std::__ndk1::__tree_node<std::__ndk1::__value_type<std::__ndk1::basic_string<char, std::__ndk1::char_traits<char>, std::__ndk1::allocator<char> >, std::__ndk1::shared_ptr<geode::Hook> >, void*> > const&)
FUNC 9ea08 44 0 std::__ndk1::__compressed_pair<std::__ndk1::__tree_node<std::__ndk1::__value_type<std::__ndk1::basic_string<char, std::__ndk1::char_traits<char>, std::__ndk1::allocator<char> >, std::__ndk1::shared_ptr<geode::Hook> >, void*>*, std::__ndk1::__tree_node_destructor<std::__ndk1::allocator<std::__ndk1::__tree_node<std::__ndk1::__value_type<std::__ndk1::basic_string<char, std::__ndk1::char_traits<char>, std::__ndk1::allocator<char> >, std::__ndk1::shared_ptr<geode::Hook> >, void*> > > >::__compressed_pair[abi:v170000]<std::__ndk1::__tree_node<std::__ndk1::__value_type<std::__ndk1::basic_string<char, std::__ndk1::char_traits<char>, std::__ndk1::allocator<char> >, std::__ndk1::shared_ptr<geode::Hook> >, void*>*&, std::__ndk1::__tree_node_destructor<std::__ndk1::allocator<std::__ndk1::__tree_node<std::__ndk1::__value_type<std::__ndk1::basic_string<char, std::__ndk1::char_traits<char>, std::__ndk1::allocator<char> >, std::__ndk1::shared_ptr<geode::Hook> >, void*> > > >(std::__ndk1::__tree_node_destructor<std::__ndk1::allocator<std::__ndk1::__tree_node<std::__ndk1::__value_type<std::__ndk1::basic_string<char, std::__ndk1::char_traits<char>, std::__ndk1::allocator<char> >, std::__ndk1::shared_ptr<geode::Hook> >, void*> > >&&)
FUNC 9ea4c 24 0 std::__ndk1::__compressed_pair_elem<std::__ndk1::__tree_node<std::__ndk1::__value_type<std::__ndk1::basic_string<char, std::__ndk1::char_traits<char>, std::__ndk1::allocator<char> >, std::__ndk1::shared_ptr<geode::Hook> >, void*>*, 0, false>::__compressed_pair_elem[abi:v170000]<std::__ndk1::__tree_node<std::__ndk1::__value_type<std::__ndk1::basic_string<char, std::__ndk1::char_traits<char>, std::__ndk1::allocator<char> >, std::__ndk1::shared_ptr<geode::Hook> >, void*>*&, void>()
FUNC 9ea70 24 0 std::__ndk1::__compressed_pair_elem<std::__ndk1::__tree_node_destructor<std::__ndk1::allocator<std::__ndk1::__tree_node<std::__ndk1::__value_type<std::__ndk1::basic_string<char, std::__ndk1::char_traits<char>, std::__ndk1::allocator<char> >, std::__ndk1::shared_ptr<geode::Hook> >, void*> > >, 1, false>::__compressed_pair_elem[abi:v170000]<std::__ndk1::__tree_node_destructor<std::__ndk1::allocator<std::__ndk1::__tree_node<std::__ndk1::__value_type<std::__ndk1::basic_string<char, std::__ndk1::char_traits<char>, std::__ndk1::allocator<char> >, std::__ndk1::shared_ptr<geode::Hook> >, void*> > >, void>()
FUNC 9ea94 88 0 std::__ndk1::construct_at[abi:v170000]<std::__ndk1::pair<std::__ndk1::basic_string<char, std::__ndk1::char_traits<char>, std::__ndk1::allocator<char> > const, std::__ndk1::shared_ptr<geode::Hook> >, std::__ndk1::piecewise_construct_t const&, std::__ndk1::tuple<std::__ndk1::allocator<char>&&>, std::__ndk1::piecewise_construct_t const&<>, std::__ndk1::shared_ptr<geode::Hook>*>(std::__ndk1::pair<std::__ndk1::basic_string<char, std::__ndk1::char_traits<char>, std::__ndk1::allocator<char> > const, std::__ndk1::shared_ptr<geode::Hook> >, std::__ndk1::piecewise_construct_t const&, std::__ndk1::tuple<std::__ndk1::allocator<char>&&>, std::__ndk1::piecewise_construct_t const&<>)
FUNC 9eb1c 74 0 std::__ndk1::pair<std::__ndk1::basic_string<char, std::__ndk1::char_traits<char>, std::__ndk1::allocator<char> > const, std::__ndk1::shared_ptr<geode::Hook> >::pair[abi:v170000]<std::__ndk1::basic_string<char, std::__ndk1::char_traits<char>, std::__ndk1::allocator<char> >&&, >(std::__ndk1::tuple<std::__ndk1::basic_string<char, std::__ndk1::char_traits<char>, std::__ndk1::allocator<char> >&&>, std::__ndk1::piecewise_construct_t<>)
FUNC 9eb90 58 0 std::__ndk1::pair<std::__ndk1::basic_string<char, std::__ndk1::char_traits<char>, std::__ndk1::allocator<char> > const, std::__ndk1::shared_ptr<geode::Hook> >::pair[abi:v170000]<std::__ndk1::basic_string<char, std::__ndk1::char_traits<char>, std::__ndk1::allocator<char> >&&, , (unsigned long)0, >(std::__ndk1::tuple<std::__ndk1::basic_string<char, std::__ndk1::char_traits<char>, std::__ndk1::allocator<char> >&&>&, std::__ndk1::piecewise_construct_t&<>, std::__ndk1::__tuple_indices<((unsigned long)0)...>, std::__ndk1::piecewise_construct_t&<><()...>)
FUNC 9ebe8 24 0 std::__ndk1::get[abi:v170000]<(unsigned long)0, std::__ndk1::basic_string<char, std::__ndk1::char_traits<char>, std::__ndk1::allocator<char> >&&>(std::__ndk1::basic_string<char, std::__ndk1::char_traits<char>, std::__ndk1::allocator<char> >&)
FUNC 9ec0c 1c 0 std::__ndk1::shared_ptr<geode::Hook>::shared_ptr[abi:v170000]()
FUNC 9ec28 18 0 std::__ndk1::__tuple_leaf<(unsigned long)0, std::__ndk1::basic_string<char, std::__ndk1::char_traits<char>, std::__ndk1::allocator<char> >&&, false>::get[abi:v170000]()
FUNC 9ec40 24 0 std::__ndk1::__compressed_pair<std::__ndk1::__tree_node<std::__ndk1::__value_type<std::__ndk1::basic_string<char, std::__ndk1::char_traits<char>, std::__ndk1::allocator<char> >, std::__ndk1::shared_ptr<geode::Hook> >, void*>*, std::__ndk1::__tree_node_destructor<std::__ndk1::allocator<std::__ndk1::__tree_node<std::__ndk1::__value_type<std::__ndk1::basic_string<char, std::__ndk1::char_traits<char>, std::__ndk1::allocator<char> >, std::__ndk1::shared_ptr<geode::Hook> >, void*> > > >::first[abi:v170000]() const
FUNC 9ec64 14 0 std::__ndk1::__compressed_pair_elem<std::__ndk1::__tree_node<std::__ndk1::__value_type<std::__ndk1::basic_string<char, std::__ndk1::char_traits<char>, std::__ndk1::allocator<char> >, std::__ndk1::shared_ptr<geode::Hook> >, void*>*, 0, false>::__get[abi:v170000]() const
FUNC 9ec78 28 0 std::__ndk1::__compressed_pair<std::__ndk1::__tree_node<std::__ndk1::__value_type<std::__ndk1::basic_string<char, std::__ndk1::char_traits<char>, std::__ndk1::allocator<char> >, std::__ndk1::shared_ptr<geode::Hook> >, void*>*, std::__ndk1::__tree_node_destructor<std::__ndk1::allocator<std::__ndk1::__tree_node<std::__ndk1::__value_type<std::__ndk1::basic_string<char, std::__ndk1::char_traits<char>, std::__ndk1::allocator<char> >, std::__ndk1::shared_ptr<geode::Hook> >, void*> > > >::second[abi:v170000]()
FUNC 9eca0 14 0 std::__ndk1::__compressed_pair_elem<std::__ndk1::__tree_node_destructor<std::__ndk1::allocator<std::__ndk1::__tree_node<std::__ndk1::__value_type<std::__ndk1::basic_string<char, std::__ndk1::char_traits<char>, std::__ndk1::allocator<char> >, std::__ndk1::shared_ptr<geode::Hook> >, void*> > >, 1, false>::__get[abi:v170000]()
FUNC 9ecb4 27c 0 std::__ndk1::__tree_balance_after_insert[abi:v170000]<std::__ndk1::__tree_node_base<void*>*>(std::__ndk1::__tree_node_base<void*>*, std::__ndk1::__tree_node_base<void*>*)
FUNC 9ef30 24 0 std::__ndk1::__compressed_pair<std::__ndk1::__tree_node<std::__ndk1::__value_type<std::__ndk1::basic_string<char, std::__ndk1::char_traits<char>, std::__ndk1::allocator<char> >, std::__ndk1::shared_ptr<geode::Hook> >, void*>*, std::__ndk1::__tree_node_destructor<std::__ndk1::allocator<std::__ndk1::__tree_node<std::__ndk1::__value_type<std::__ndk1::basic_string<char, std::__ndk1::char_traits<char>, std::__ndk1::allocator<char> >, std::__ndk1::shared_ptr<geode::Hook> >, void*> > > >::first[abi:v170000]()
FUNC 9ef54 14 0 std::__ndk1::__compressed_pair_elem<std::__ndk1::__tree_node<std::__ndk1::__value_type<std::__ndk1::basic_string<char, std::__ndk1::char_traits<char>, std::__ndk1::allocator<char> >, std::__ndk1::shared_ptr<geode::Hook> >, void*>*, 0, false>::__get[abi:v170000]()
FUNC 9ef68 78 0 std::__ndk1::unique_ptr<std::__ndk1::__tree_node<std::__ndk1::__value_type<std::__ndk1::basic_string<char, std::__ndk1::char_traits<char>, std::__ndk1::allocator<char> >, std::__ndk1::shared_ptr<geode::Hook> >, void*>, std::__ndk1::__tree_node_destructor<std::__ndk1::allocator<std::__ndk1::__tree_node<std::__ndk1::__value_type<std::__ndk1::basic_string<char, std::__ndk1::char_traits<char>, std::__ndk1::allocator<char> >, std::__ndk1::shared_ptr<geode::Hook> >, void*> > > >::reset[abi:v170000](std::__ndk1::__tree_node<std::__ndk1::__value_type<std::__ndk1::basic_string<char, std::__ndk1::char_traits<char>, std::__ndk1::allocator<char> >, std::__ndk1::shared_ptr<geode::Hook> >, void*>*)
FUNC 9efe0 90 0 std::__ndk1::__tree_node_destructor<std::__ndk1::allocator<std::__ndk1::__tree_node<std::__ndk1::__value_type<std::__ndk1::basic_string<char, std::__ndk1::char_traits<char>, std::__ndk1::allocator<char> >, std::__ndk1::shared_ptr<geode::Hook> >, void*> > >::operator()[abi:v170000](std::__ndk1::__tree_node<std::__ndk1::__value_type<std::__ndk1::basic_string<char, std::__ndk1::char_traits<char>, std::__ndk1::allocator<char> >, std::__ndk1::shared_ptr<geode::Hook> >, void*>*)
FUNC 9f070 3c 0 std::__ndk1::tuple<std::__ndk1::basic_string<char, std::__ndk1::char_traits<char>, std::__ndk1::allocator<char> >&&>::tuple[abi:v170000]<std::__ndk1::basic_string<char, std::__ndk1::char_traits<char>, std::__ndk1::allocator<char> >, 0>()
FUNC 9f0ac 3c 0 std::__ndk1::__tuple_impl<std::__ndk1::__tuple_indices<(unsigned long)0>, std::__ndk1::basic_string<char, std::__ndk1::char_traits<char>, std::__ndk1::allocator<char> >&&>::__tuple_impl[abi:v170000]<(unsigned long)0, std::__ndk1::basic_string<char, std::__ndk1::char_traits<char>, std::__ndk1::allocator<char> >&&, , , std::__ndk1::basic_string<char, std::__ndk1::char_traits<char>, std::__ndk1::allocator<char> > >(std::__ndk1::__tuple_types<std::__ndk1::basic_string<char, std::__ndk1::char_traits<char>, std::__ndk1::allocator<char> >&&>, std::__ndk1::__tuple_indices<()...>, std::__ndk1::__tuple_indices<((unsigned long)0)...><>, std::__ndk1::basic_string<char, std::__ndk1::char_traits<char>, std::__ndk1::allocator<char> >&&)
FUNC 9f0e8 20 0 std::__ndk1::__tuple_leaf<(unsigned long)0, std::__ndk1::basic_string<char, std::__ndk1::char_traits<char>, std::__ndk1::allocator<char> >&&, false>::__tuple_leaf[abi:v170000]<std::__ndk1::basic_string<char, std::__ndk1::char_traits<char>, std::__ndk1::allocator<char> >, void>()
FUNC 9f108 44 0 std::__ndk1::shared_ptr<geode::Hook>::swap[abi:v170000](std::__ndk1::shared_ptr<geode::Hook>&)
FUNC 9f14c 3c 0 std::__ndk1::swap[abi:v170000]<geode::Hook*>(std::__ndk1::enable_if&, std::__ndk1::enable_if<(is_move_constructible<geode::Hook*>::value)&&(is_move_assignable<std::__ndk1::enable_if>::value), void>::type)
FUNC 9f188 3c 0 std::__ndk1::swap[abi:v170000]<std::__ndk1::__shared_weak_count*>(std::__ndk1::enable_if&, std::__ndk1::enable_if<(is_move_constructible<std::__ndk1::__shared_weak_count*>::value)&&(is_move_assignable<std::__ndk1::enable_if>::value), void>::type)
FUNC 9f1c4 50 0 geode::addresser::Addresser::addressOfNonVirtual<void (RewardUnlockLayer::*)()>(void (RewardUnlockLayer::*)())
FUNC 9f214 28 0 geode::cast::reference_cast<long, void (RewardUnlockLayer::*)()>(void (RewardUnlockLayer::*)())
FUNC 9f23c 88 0 geode::log::logImpl<char const (&) [25]>(geode::Severity, geode::Mod*, fmt::v11::basic_format_string<char, fmt::v11::type_identity<decltype ((wrapCocosObj<char const (&) [25]>)((std::declval<char const (&) [25]>)()))>::type>, char const (&) [25])
FUNC 9f2c4 fc 0 _ZZN5geode3log7logImplIJRA25_KcEEEvNS_8SeverityEPNS_3ModEN3fmt3v1119basic_format_stringIcJDpNS9_13type_identityIDTcl12wrapCocosObjIT_Eclsr3stdE7declvalISC_EEEEE4typeEEEEDpOSC_ENKUlTpTySJ_E_clIJS4_EEEDaSJ_
FUNC 9f3c0 84 0 fmt::v11::detail::make_arg<true, fmt::v11::context, char const [25], 0>(char const (&) [25])
FUNC 9f444 11c 0 tulip::hook::AbstractFunction::from<void, MyUnlockLayer*>(void (*)(MyUnlockLayer*))
FUNC 9f560 20 0 tulip::hook::AbstractType::from<void>()
FUNC 9f580 a4 0 geode::addresser::rthunkAdjust<void (MyUnlockLayer::*)(), MyUnlockLayer*>(void (MyUnlockLayer::*)(), MyUnlockLayer*)
FUNC 9f624 3c 0 geode::modifier::Resolve<>::func<void, MyUnlockLayer>(void (MyUnlockLayer::*)())
FUNC 9f660 b4 0 MyUnlockLayer::step2()
FUNC 9f714 1c 0 geode::cast::union_cast<long*, void (MyUnlockLayer::**)()>(void (MyUnlockLayer::**)())
FUNC 9f730 58 0 geode::addresser::Addresser::thunkOf<void (MyUnlockLayer::*)()>(void (MyUnlockLayer::*)())
FUNC 9f788 ec 0 cocos2d::CCSequence::create(cocos2d::CCFiniteTimeAction*, ...)
FUNC 9f874 70 0 MyUnlockLayer::startRolling()
FUNC 9f8e4 38 0 geode::modifier::ModifyBase<geode::modifier::ModifyDerive<MyUnlockLayer, RewardUnlockLayer> >::~ModifyBase()
FUNC 9f91c 234 0 RewardBox::init()
FUNC 9fb50 2c 0 cocos2d::CCSize::CCSize(float, float)
FUNC 9fb7c 4c 0 cocos2d::operator-(cocos2d::CCSize const&)
FUNC 9fbc8 54 0 cocos2d::CCSize::operator/(float) const
FUNC 9fc1c 30 0 cocos2d::CCPoint::CCPoint(cocos2d::CCSize const&)
FUNC 9fc4c 1a0 0 RewardBox::setRarityColor(cocos2d::_ccColor3B)
FUNC 9fdec c0 0 cocos2d::ccc4FFromccc3B(cocos2d::_ccColor3B)
FUNC 9feac 30 0 cocos2d::CCSize::CCSize(cocos2d::CCSize const&)
FUNC 9fedc 2c 0 cocos2d::CCPoint::CCPoint(float, float)
FUNC 9ff08 40 0 RewardBox::setItemsMenu(cocos2d::CCMenu*)
FUNC 9ff48 d8 0 RewardBox::setHeight(float)
FUNC a0020 148 0 RewardBox::create()
FUNC a0168 48 0 RewardBox::RewardBox()
FUNC a01b0 18 0 cocos2d::CCCopying::copyWithZone(cocos2d::CCZone*)
FUNC a01c8 24 0 RewardBox::~RewardBox()
FUNC a01ec 30 0 RewardBox::~RewardBox()
FUNC a021c 5a4 0 RollingLayer::init(RewardUnlockLayer*)
FUNC a07c0 118 0 RollingLayer::createRewardBoxes()
FUNC a08d8 26c 0 RollingLayer::scatterRewards()
FUNC a0b44 40 0 cocos2d::CCPoint::operator=(cocos2d::CCPoint const&)
FUNC a0b84 d4 0 RollingLayer::rewardBoxHeight()
FUNC a0c58 48 0 RollingLayer::begin()
FUNC a0ca0 278 0 RollingLayer::setupTargetBox()
FUNC a0f18 288 0 RollingLayer::startAnimation()
FUNC a11a0 3c 0 RollingLayer::getTargetBox()
FUNC a11dc 70 0 geode::cast::typeinfo_cast<RewardBox*, cocos2d::CCObject*>(cocos2d::CCObject*)
FUNC a124c 28 0 std::__ndk1::mersenne_twister_engine<unsigned long, (unsigned long)64, (unsigned long)312, (unsigned long)156, (unsigned long)31, (unsigned long)13043109905998158313, (unsigned long)29, (unsigned long)6148914691236517205, (unsigned long)17, (unsigned long)8202884508482404352, (unsigned long)37, (unsigned long)18444473444759240704, (unsigned long)43, (unsigned long)6364136223846793005>::mersenne_twister_engine[abi:v170000]()
FUNC a1274 b8 0 std::__ndk1::random_device::random_device()
FUNC a132c d0 0 std::__ndk1::mersenne_twister_engine<unsigned long, (unsigned long)64, (unsigned long)312, (unsigned long)156, (unsigned long)31, (unsigned long)13043109905998158313, (unsigned long)29, (unsigned long)6148914691236517205, (unsigned long)17, (unsigned long)8202884508482404352, (unsigned long)37, (unsigned long)18444473444759240704, (unsigned long)43, (unsigned long)6364136223846793005>::seed(unsigned long)
FUNC a13fc 34 0 std::__ndk1::uniform_int_distribution<int>::uniform_int_distribution(int, int)
FUNC a1430 30 0 std::__ndk1::uniform_int_distribution<int>::operator()<std::__ndk1::mersenne_twister_engine<unsigned long, (unsigned long)64, (unsigned long)312, (unsigned long)156, (unsigned long)31, (unsigned long)13043109905998158313, (unsigned long)29, (unsigned long)6148914691236517205, (unsigned long)17, (unsigned long)8202884508482404352, (unsigned long)37, (unsigned long)18444473444759240704, (unsigned long)43, (unsigned long)6364136223846793005> >(std::__ndk1::mersenne_twister_engine<unsigned long, (unsigned long)64, (unsigned long)312, (unsigned long)156, (unsigned long)31, (unsigned long)13043109905998158313, (unsigned long)29, (unsigned long)6148914691236517205, (unsigned long)17, (unsigned long)8202884508482404352, (unsigned long)37, (unsigned long)18444473444759240704, (unsigned long)43, (unsigned long)6364136223846793005>&)
FUNC a1460 84 0 geode::log::debug<int&>(fmt::v11::basic_format_string<char, fmt::v11::type_identity<decltype ((wrapCocosObj<int&>)((std::declval<int&>)()))>::type>, int&)
FUNC a14e4 c 0 operator_spr::operator ""<geode::geode_internal::StringConcatModIDSlash<(unsigned long)18>{char [36]{(char)99, (char)97, (char)116, (char)116, (char)111, (char)100, (char)101, (char)118, (char)46, (char)103, (char)97, (char)109, (char)98, (char)108, (char)105, (char)110, (char)103, (char)47, (char)103, (char)97, (char)109, (char)98, (char)95, (char)103, (char)111, (char)108, (char)100, (char)73, (char)116, (char)101, (char)109, (char)46, (char)112, (char)110, (char)103}}>()
FUNC a14f0 e0 0 RollingLayer::setupRewardBoxWithItem(RewardBox*, GJRewardItem*)
FUNC a15d0 30 0 RollingLayer::rewardToSpriteType(SpecialRewardItem)
FUNC a1600 320 0 RollingLayer::rarityColorForRewardItem(GJRewardItem*)
FUNC a1920 2c 0 geode::cocos::CCArrayExt<GJRewardObject*>::CCArrayExt(cocos2d::CCArray*)
FUNC a194c 5c 0 geode::cocos::CCArrayExt<GJRewardObject*>::begin() const
FUNC a19a8 78 0 geode::cocos::CCArrayExt<GJRewardObject*>::end() const
FUNC a1a20 24 0 geode::cocos::CCArrayExt<GJRewardObject*>::~CCArrayExt()
FUNC a1a44 3c 0 RollingLayer::moveToRewardX(float)
FUNC a1a80 ec 0 RollingLayer::rewardMetaForRewardType(GJRewardType)
FUNC a1b6c 94 0 geode::log::debug<int&, int&, int&>(fmt::v11::basic_format_string<char, fmt::v11::type_identity<decltype ((wrapCocosObj<int&, int&, int&>)((std::declval<int&, int&, int&>)()))>::type>, int&, int&, int&)
FUNC a1c00 70 0 geode::cast::typeinfo_cast<GJRewardItem*, cocos2d::CCObject*>(cocos2d::CCObject*)
FUNC a1c70 3e0 0 RollingLayer::createMenuFromRewardObjects(cocos2d::CCArray*)
FUNC a2050 34 0 std::__ndk1::uniform_real_distribution<float>::uniform_real_distribution(float, float)
FUNC a2084 30 0 std::__ndk1::uniform_real_distribution<float>::operator()[abi:v170000]<std::__ndk1::mersenne_twister_engine<unsigned long, (unsigned long)64, (unsigned long)312, (unsigned long)156, (unsigned long)31, (unsigned long)13043109905998158313, (unsigned long)29, (unsigned long)6148914691236517205, (unsigned long)17, (unsigned long)8202884508482404352, (unsigned long)37, (unsigned long)18444473444759240704, (unsigned long)43, (unsigned long)6364136223846793005> >(std::__ndk1::mersenne_twister_engine<unsigned long, (unsigned long)64, (unsigned long)312, (unsigned long)156, (unsigned long)31, (unsigned long)13043109905998158313, (unsigned long)29, (unsigned long)6148914691236517205, (unsigned long)17, (unsigned long)8202884508482404352, (unsigned long)37, (unsigned long)18444473444759240704, (unsigned long)43, (unsigned long)6364136223846793005>&)
FUNC a20b4 2c 0 geode::cocos::CCArrayExt<cocos2d::CCSprite*>::CCArrayExt(cocos2d::CCArray*)
FUNC a20e0 5c 0 geode::cocos::CCArrayExt<cocos2d::CCSprite*>::begin() const
FUNC a213c 78 0 geode::cocos::CCArrayExt<cocos2d::CCSprite*>::end() const
FUNC a21b4 24 0 geode::cocos::CCArrayExt<cocos2d::CCSprite*>::~CCArrayExt()
FUNC a21d8 3e0 0 RollingLayer::update(float)
FUNC a25b8 18 0 cocos2d::CCDirector::getAnimationInterval()
FUNC a25d0 238 0 RollingLayer::animationFinished()
FUNC a2808 2c 0 geode::cocos::CCArrayExt<RewardBox*>::CCArrayExt(cocos2d::CCArray*)
FUNC a2834 5c 0 geode::cocos::CCArrayExt<RewardBox*>::begin() const
FUNC a2890 78 0 geode::cocos::CCArrayExt<RewardBox*>::end() const
FUNC a2908 24 0 geode::cocos::CCArrayExt<RewardBox*>::~CCArrayExt()
FUNC a292c 68 0 RollingLayer::keyDown(cocos2d::enumKeyCodes)
FUNC a2994 7c 0 geode::log::debug<>(fmt::v11::basic_format_string<char, fmt::v11::type_identity<decltype ((wrapCocosObj<>)((std::declval<>)()))>::type>, &&)
FUNC a2a10 20 0 {virtual override thunk({offset(-344)}, RollingLayer::keyDown(cocos2d::enumKeyCodes))}
FUNC a2a30 c 0 operator_spr::operator ""<geode::geode_internal::StringConcatModIDSlash<(unsigned long)14>{char [32]{(char)99, (char)97, (char)116, (char)116, (char)111, (char)100, (char)101, (char)118, (char)46, (char)103, (char)97, (char)109, (char)98, (char)108, (char)105, (char)110, (char)103, (char)47, (char)103, (char)97, (char)109, (char)98, (char)95, (char)103, (char)111, (char)108, (char)100, (char)46, (char)111, (char)103, (char)103}}>()
FUNC a2a3c c 0 operator_spr::operator ""<geode::geode_internal::StringConcatModIDSlash<(unsigned long)12>{char [30]{(char)99, (char)97, (char)116, (char)116, (char)111, (char)100, (char)101, (char)118, (char)46, (char)103, (char)97, (char)109, (char)98, (char)108, (char)105, (char)110, (char)103, (char)47, (char)101, (char)112, (char)105, (char)99, (char)112, (char)105, (char)99, (char)46, (char)112, (char)110, (char)103}}>()
FUNC a2a48 3c 0 RollingLayer::closeAndAward()
FUNC a2a84 e0 0 fmt::v11::format<int&>(fmt::v11::basic_format_string<char, fmt::v11::type_identity<int&>::type>, int&)
FUNC a2b64 24 0 std::__ndk1::basic_string<char, std::__ndk1::char_traits<char>, std::__ndk1::allocator<char> >::c_str[abi:v170000]() const
FUNC a2b88 148 0 RollingLayer::create(RewardUnlockLayer*)
FUNC a2cd0 100 0 RollingLayer::RollingLayer()
FUNC a2dd0 24 0 RollingLayer::~RollingLayer()
FUNC a2df4 30 0 RollingLayer::~RollingLayer()
FUNC a2e24 18 0 cocos2d::CCLayerRGBA::setOpacityModifyRGB(bool)
FUNC a2e3c 18 0 cocos2d::CCLayerRGBA::isOpacityModifyRGB()
FUNC a2e54 18 0 {virtual override thunk({offset(-320)}, RollingLayer::~RollingLayer())}
FUNC a2e6c 18 0 {virtual override thunk({offset(-320)}, RollingLayer::~RollingLayer())}
FUNC a2e84 14 0 cocos2d::CCKeyboardDelegate::keyUp(cocos2d::enumKeyCodes)
FUNC a2e98 10 0 cocos2d::CCMouseDelegate::rightKeyDown()
FUNC a2ea8 10 0 cocos2d::CCMouseDelegate::rightKeyUp()
FUNC a2eb8 18 0 cocos2d::CCMouseDelegate::scrollWheel(float, float)
FUNC a2ed0 2c 0 {virtual override thunk({offset(-408)}, cocos2d::CCLayerRGBA::setOpacityModifyRGB(bool))}
FUNC a2efc 18 0 {virtual override thunk({offset(-408)}, cocos2d::CCLayerRGBA::isOpacityModifyRGB())}
FUNC a2f14 2c 0 cocos2d::CCPoint::setPoint(float, float)
FUNC a2f40 20 0 cocos2d::CCPoint::CCPoint()
FUNC a2f60 d4 0 geode::cast::typeinfoCastInternal(void*, geode::cast::ClassTypeinfoType const*, geode::cast::ClassTypeinfoType const*, unsigned long)
FUNC a3034 1c0 0 geode::cast::traverseTypeinfoFor(void*, geode::cast::ClassTypeinfoType const*, char const*)
FUNC a31f4 1c 0 geode::cast::MultipleClassSingleEntryType::offset() const
FUNC a3210 2c 0 std::__ndk1::mersenne_twister_engine<unsigned long, (unsigned long)64, (unsigned long)312, (unsigned long)156, (unsigned long)31, (unsigned long)13043109905998158313, (unsigned long)29, (unsigned long)6148914691236517205, (unsigned long)17, (unsigned long)8202884508482404352, (unsigned long)37, (unsigned long)18444473444759240704, (unsigned long)43, (unsigned long)6364136223846793005>::mersenne_twister_engine[abi:v170000](unsigned long)
FUNC a323c 18 0 std::__ndk1::mersenne_twister_engine<unsigned long, (unsigned long)64, (unsigned long)312, (unsigned long)156, (unsigned long)31, (unsigned long)13043109905998158313, (unsigned long)29, (unsigned long)6148914691236517205, (unsigned long)17, (unsigned long)8202884508482404352, (unsigned long)37, (unsigned long)18444473444759240704, (unsigned long)43, (unsigned long)6364136223846793005>::__rshift[abi:v170000]<(unsigned long)62>(unsigned long)
FUNC a3254 2c 0 std::__ndk1::uniform_int_distribution<int>::param_type::param_type(int, int)
FUNC a3280 184 0 std::__ndk1::uniform_int_distribution<int>::operator()<std::__ndk1::mersenne_twister_engine<unsigned long, (unsigned long)64, (unsigned long)312, (unsigned long)156, (unsigned long)31, (unsigned long)13043109905998158313, (unsigned long)29, (unsigned long)6148914691236517205, (unsigned long)17, (unsigned long)8202884508482404352, (unsigned long)37, (unsigned long)18444473444759240704, (unsigned long)43, (unsigned long)6364136223846793005> >(std::__ndk1::mersenne_twister_engine<unsigned long, (unsigned long)64, (unsigned long)312, (unsigned long)156, (unsigned long)31, (unsigned long)13043109905998158313, (unsigned long)29, (unsigned long)6148914691236517205, (unsigned long)17, (unsigned long)8202884508482404352, (unsigned long)37, (unsigned long)18444473444759240704, (unsigned long)43, (unsigned long)6364136223846793005>&, std::__ndk1::uniform_int_distribution<int>::param_type const&)
FUNC a3404 18 0 std::__ndk1::uniform_int_distribution<int>::param_type::b() const
FUNC a341c 18 0 std::__ndk1::uniform_int_distribution<int>::param_type::a() const
FUNC a3434 210 0 std::__ndk1::__independent_bits_engine<std::__ndk1::mersenne_twister_engine<unsigned long, (unsigned long)64, (unsigned long)312, (unsigned long)156, (unsigned long)31, (unsigned long)13043109905998158313, (unsigned long)29, (unsigned long)6148914691236517205, (unsigned long)17, (unsigned long)8202884508482404352, (unsigned long)37, (unsigned long)18444473444759240704, (unsigned long)43, (unsigned long)6364136223846793005>, unsigned int>::__independent_bits_engine(std::__ndk1::mersenne_twister_engine<unsigned long, (unsigned long)64, (unsigned long)312, (unsigned long)156, (unsigned long)31, (unsigned long)13043109905998158313, (unsigned long)29, (unsigned long)6148914691236517205, (unsigned long)17, (unsigned long)8202884508482404352, (unsigned long)37, (unsigned long)18444473444759240704, (unsigned long)43, (unsigned long)6364136223846793005>&, unsigned long)
FUNC a3644 28 0 std::__ndk1::__independent_bits_engine<std::__ndk1::mersenne_twister_engine<unsigned long, (unsigned long)64, (unsigned long)312, (unsigned long)156, (unsigned long)31, (unsigned long)13043109905998158313, (unsigned long)29, (unsigned long)6148914691236517205, (unsigned long)17, (unsigned long)8202884508482404352, (unsigned long)37, (unsigned long)18444473444759240704, (unsigned long)43, (unsigned long)6364136223846793005>, unsigned int>::operator()()
FUNC a366c 54 0 std::__ndk1::__countl_zero[abi:v170000]<unsigned int>(unsigned int)
FUNC a36c0 14 0 std::__ndk1::numeric_limits<unsigned int>::max[abi:v170000]()
FUNC a36d4 40 0 std::__ndk1::__independent_bits_engine<std::__ndk1::mersenne_twister_engine<unsigned long, (unsigned long)64, (unsigned long)312, (unsigned long)156, (unsigned long)31, (unsigned long)13043109905998158313, (unsigned long)29, (unsigned long)6148914691236517205, (unsigned long)17, (unsigned long)8202884508482404352, (unsigned long)37, (unsigned long)18444473444759240704, (unsigned long)43, (unsigned long)6364136223846793005>, unsigned int>::__eval(std::__ndk1::integral_constant<bool, false>)
FUNC a3714 158 0 std::__ndk1::mersenne_twister_engine<unsigned long, (unsigned long)64, (unsigned long)312, (unsigned long)156, (unsigned long)31, (unsigned long)13043109905998158313, (unsigned long)29, (unsigned long)6148914691236517205, (unsigned long)17, (unsigned long)8202884508482404352, (unsigned long)37, (unsigned long)18444473444759240704, (unsigned long)43, (unsigned long)6364136223846793005>::operator()()
FUNC a386c 18 0 std::__ndk1::mersenne_twister_engine<unsigned long, (unsigned long)64, (unsigned long)312, (unsigned long)156, (unsigned long)31, (unsigned long)13043109905998158313, (unsigned long)29, (unsigned long)6148914691236517205, (unsigned long)17, (unsigned long)8202884508482404352, (unsigned long)37, (unsigned long)18444473444759240704, (unsigned long)43, (unsigned long)6364136223846793005>::__rshift[abi:v170000]<(unsigned long)1>(unsigned long)
FUNC a3884 18 0 std::__ndk1::mersenne_twister_engine<unsigned long, (unsigned long)64, (unsigned long)312, (unsigned long)156, (unsigned long)31, (unsigned long)13043109905998158313, (unsigned long)29, (unsigned long)6148914691236517205, (unsigned long)17, (unsigned long)8202884508482404352, (unsigned long)37, (unsigned long)18444473444759240704, (unsigned long)43, (unsigned long)6364136223846793005>::__rshift[abi:v170000]<(unsigned long)29>(unsigned long)
FUNC a389c 1c 0 std::__ndk1::mersenne_twister_engine<unsigned long, (unsigned long)64, (unsigned long)312, (unsigned long)156, (unsigned long)31, (unsigned long)13043109905998158313, (unsigned long)29, (unsigned long)6148914691236517205, (unsigned long)17, (unsigned long)8202884508482404352, (unsigned long)37, (unsigned long)18444473444759240704, (unsigned long)43, (unsigned long)6364136223846793005>::__lshift[abi:v170000]<(unsigned long)17>(unsigned long)
FUNC a38b8 1c 0 std::__ndk1::mersenne_twister_engine<unsigned long, (unsigned long)64, (unsigned long)312, (unsigned long)156, (unsigned long)31, (unsigned long)13043109905998158313, (unsigned long)29, (unsigned long)6148914691236517205, (unsigned long)17, (unsigned long)8202884508482404352, (unsigned long)37, (unsigned long)18444473444759240704, (unsigned long)43, (unsigned long)6364136223846793005>::__lshift[abi:v170000]<(unsigned long)37>(unsigned long)
FUNC a38d4 18 0 std::__ndk1::mersenne_twister_engine<unsigned long, (unsigned long)64, (unsigned long)312, (unsigned long)156, (unsigned long)31, (unsigned long)13043109905998158313, (unsigned long)29, (unsigned long)6148914691236517205, (unsigned long)17, (unsigned long)8202884508482404352, (unsigned long)37, (unsigned long)18444473444759240704, (unsigned long)43, (unsigned long)6364136223846793005>::__rshift[abi:v170000]<(unsigned long)43>(unsigned long)
FUNC a38ec 18 0 std::__ndk1::__libcpp_clz[abi:v170000](unsigned int)
FUNC a3904 8 0 std::__ndk1::__libcpp_numeric_limits<unsigned int, true>::max[abi:v170000]()
FUNC a390c 88 0 geode::log::logImpl<int&>(geode::Severity, geode::Mod*, fmt::v11::basic_format_string<char, fmt::v11::type_identity<decltype ((wrapCocosObj<int&>)((std::declval<int&>)()))>::type>, int&)
FUNC a3994 fc 0 _ZZN5geode3log7logImplIJRiEEEvNS_8SeverityEPNS_3ModEN3fmt3v1119basic_format_stringIcJDpNS7_13type_identityIDTcl12wrapCocosObjIT_Eclsr3stdE7declvalISA_EEEEE4typeEEEEDpOSA_ENKUlTpTySH_E_clIJS2_EEEDaSH_
FUNC a3a90 88 0 fmt::v11::detail::make_arg<true, fmt::v11::context, int, 0>(int&)
FUNC a3b18 54 0 geode::Ref<cocos2d::CCArray>::Ref(cocos2d::CCArray*)
FUNC a3b6c 60 0 geode::Ref<cocos2d::CCArray>::~Ref()
FUNC a3bcc 18 0 geode::Ref<cocos2d::CCArray>::operator cocos2d::CCArray*() const
FUNC a3be4 18 0 geode::Ref<cocos2d::CCArray>::operator->() const
FUNC a3bfc a8 0 geode::log::logImpl<int&, int&, int&>(geode::Severity, geode::Mod*, fmt::v11::basic_format_string<char, fmt::v11::type_identity<decltype ((wrapCocosObj<int&, int&, int&>)((std::declval<int&, int&, int&>)()))>::type>, int&, int&, int&)
FUNC a3ca4 124 0 _ZZN5geode3log7logImplIJRiS2_S2_EEEvNS_8SeverityEPNS_3ModEN3fmt3v1119basic_format_stringIcJDpNS7_13type_identityIDTcl12wrapCocosObjIT_Eclsr3stdE7declvalISA_EEEEE4typeEEEEDpOSA_ENKUlTpTySH_E_clIJS2_S2_S2_EEEDaSH_
FUNC a3dc8 2c 0 std::__ndk1::uniform_real_distribution<float>::param_type::param_type[abi:v170000](float, float)
FUNC a3df4 6c 0 std::__ndk1::uniform_real_distribution<float>::operator()<std::__ndk1::mersenne_twister_engine<unsigned long, (unsigned long)64, (unsigned long)312, (unsigned long)156, (unsigned long)31, (unsigned long)13043109905998158313, (unsigned long)29, (unsigned long)6148914691236517205, (unsigned long)17, (unsigned long)8202884508482404352, (unsigned long)37, (unsigned long)18444473444759240704, (unsigned long)43, (unsigned long)6364136223846793005> >(std::__ndk1::mersenne_twister_engine<unsigned long, (unsigned long)64, (unsigned long)312, (unsigned long)156, (unsigned long)31, (unsigned long)13043109905998158313, (unsigned long)29, (unsigned long)6148914691236517205, (unsigned long)17, (unsigned long)8202884508482404352, (unsigned long)37, (unsigned long)18444473444759240704, (unsigned long)43, (unsigned long)6364136223846793005>&, std::__ndk1::uniform_real_distribution<float>::param_type const&)
FUNC a3e60 18 0 std::__ndk1::uniform_real_distribution<float>::param_type::b[abi:v170000]() const
FUNC a3e78 18 0 std::__ndk1::uniform_real_distribution<float>::param_type::a[abi:v170000]() const
FUNC a3e90 118 0 std::__ndk1::generate_canonical[abi:v170000]<float, (unsigned long)24, std::__ndk1::mersenne_twister_engine<unsigned long, (unsigned long)64, (unsigned long)312, (unsigned long)156, (unsigned long)31, (unsigned long)13043109905998158313, (unsigned long)29, (unsigned long)6148914691236517205, (unsigned long)17, (unsigned long)8202884508482404352, (unsigned long)37, (unsigned long)18444473444759240704, (unsigned long)43, (unsigned long)6364136223846793005> >(std::__ndk1::mersenne_twister_engine<unsigned long, (unsigned long)64, (unsigned long)312, (unsigned long)156, (unsigned long)31, (unsigned long)13043109905998158313, (unsigned long)29, (unsigned long)6148914691236517205, (unsigned long)17, (unsigned long)8202884508482404352, (unsigned long)37, (unsigned long)18444473444759240704, (unsigned long)43, (unsigned long)6364136223846793005>&)
FUNC a3fa8 8 0 std::__ndk1::mersenne_twister_engine<unsigned long, (unsigned long)64, (unsigned long)312, (unsigned long)156, (unsigned long)31, (unsigned long)13043109905998158313, (unsigned long)29, (unsigned long)6148914691236517205, (unsigned long)17, (unsigned long)8202884508482404352, (unsigned long)37, (unsigned long)18444473444759240704, (unsigned long)43, (unsigned long)6364136223846793005>::max[abi:v170000]()
FUNC a3fb0 8 0 std::__ndk1::mersenne_twister_engine<unsigned long, (unsigned long)64, (unsigned long)312, (unsigned long)156, (unsigned long)31, (unsigned long)13043109905998158313, (unsigned long)29, (unsigned long)6148914691236517205, (unsigned long)17, (unsigned long)8202884508482404352, (unsigned long)37, (unsigned long)18444473444759240704, (unsigned long)43, (unsigned long)6364136223846793005>::min[abi:v170000]()
FUNC a3fb8 78 0 geode::log::logImpl<>(geode::Severity, geode::Mod*, fmt::v11::basic_format_string<char, fmt::v11::type_identity<decltype ((wrapCocosObj<>)((std::declval<>)()))>::type>, &&)
FUNC a4030 120 0 _ZZN5geode3log7logImplIJEEEvNS_8SeverityEPNS_3ModEN3fmt3v1119basic_format_stringIcJDpNS6_13type_identityIDTcl12wrapCocosObjIT_Eclsr3stdE7declvalIS9_EEEEE4typeEEEEDpOS9_ENKUlTpTySG_E_clIJEEEDaSG_
FUNC a4150 10 0 fmt::v11::monostate::monostate()
FUNC a4160 14 0 geode::getMod()
FUNC a4174 14 0 geodeImplicitEntry
PUBLIC a4188 0 _Unwind_RaiseException
PUBLIC a4280 0 unwind_phase2
PUBLIC a43b8 0 _Unwind_Resume
PUBLIC a4440 0 unwind_phase2_forced
PUBLIC a4534 0 _Unwind_DeleteException
PUBLIC m a4550 0 __unw_init_local
PUBLIC m a45fc 0 __unw_get_reg
PUBLIC m a4678 0 __unw_step
PUBLIC a468c 0 __unw_step_stage2
PUBLIC m a46a0 0 __unw_get_proc_info
PUBLIC m a46e0 0 __unw_resume
PUBLIC a4708 0 libunwind::CFI_Parser<libunwind::LocalAddressSpace>::decodeFDE(libunwind::LocalAddressSpace&, unsigned long, libunwind::CFI_Parser<libunwind::LocalAddressSpace>::FDE_Info*, libunwind::CFI_Parser<libunwind::LocalAddressSpace>::CIE_Info*, bool)
PUBLIC a4898 0 libunwind::CFI_Parser<libunwind::LocalAddressSpace>::parseCIE(libunwind::LocalAddressSpace&, unsigned long, libunwind::CFI_Parser<libunwind::LocalAddressSpace>::CIE_Info*)
PUBLIC a4b58 0 libunwind::AbstractUnwindCursor::~AbstractUnwindCursor()
PUBLIC a4b60 0 libunwind::UnwindCursor<libunwind::LocalAddressSpace, libunwind::Registers_arm64>::~UnwindCursor()
PUBLIC a4b68 0 libunwind::UnwindCursor<libunwind::LocalAddressSpace, libunwind::Registers_arm64>::validReg(int)
PUBLIC a4ba8 0 libunwind::UnwindCursor<libunwind::LocalAddressSpace, libunwind::Registers_arm64>::getReg(int)
PUBLIC a4cc8 0 libunwind::UnwindCursor<libunwind::LocalAddressSpace, libunwind::Registers_arm64>::setReg(int, unsigned long)
PUBLIC a4de8 0 libunwind::UnwindCursor<libunwind::LocalAddressSpace, libunwind::Registers_arm64>::validFloatReg(int)
PUBLIC a4dfc 0 libunwind::UnwindCursor<libunwind::LocalAddressSpace, libunwind::Registers_arm64>::getFloatReg(int)
PUBLIC a4e0c 0 libunwind::UnwindCursor<libunwind::LocalAddressSpace, libunwind::Registers_arm64>::setFloatReg(int, double)
PUBLIC a4e1c 0 libunwind::UnwindCursor<libunwind::LocalAddressSpace, libunwind::Registers_arm64>::step(bool)
PUBLIC a4ef4 0 libunwind::UnwindCursor<libunwind::LocalAddressSpace, libunwind::Registers_arm64>::getInfo(unw_proc_info_t*)
PUBLIC a4f38 0 libunwind::UnwindCursor<libunwind::LocalAddressSpace, libunwind::Registers_arm64>::jumpto()
PUBLIC a4f44 0 libunwind::UnwindCursor<libunwind::LocalAddressSpace, libunwind::Registers_arm64>::isSignalFrame()
PUBLIC a4f50 0 libunwind::UnwindCursor<libunwind::LocalAddressSpace, libunwind::Registers_arm64>::getFunctionName(char*, unsigned long, unsigned long*)
PUBLIC a4f7c 0 libunwind::UnwindCursor<libunwind::LocalAddressSpace, libunwind::Registers_arm64>::setInfoBasedOnIPRegister(bool)
PUBLIC a51fc 0 libunwind::UnwindCursor<libunwind::LocalAddressSpace, libunwind::Registers_arm64>::getRegisterName(int)
PUBLIC a5208 0 libunwind::UnwindCursor<libunwind::LocalAddressSpace, libunwind::Registers_arm64>::stepThroughSigReturn(libunwind::Registers_arm64&)
PUBLIC a532c 0 libunwind::DwarfInstructions<libunwind::LocalAddressSpace, libunwind::Registers_arm64>::stepWithDwarf(libunwind::LocalAddressSpace&, unsigned long, unsigned long, libunwind::Registers_arm64&, bool&, bool)
PUBLIC a57e8 0 libunwind::CFI_Parser<libunwind::LocalAddressSpace>::parseFDEInstructions(libunwind::LocalAddressSpace&, libunwind::CFI_Parser<libunwind::LocalAddressSpace>::FDE_Info const&, libunwind::CFI_Parser<libunwind::LocalAddressSpace>::CIE_Info const&, unsigned long, int, libunwind::CFI_Parser<libunwind::LocalAddressSpace>::PrologInfo*)
PUBLIC a62fc 0 libunwind::DwarfInstructions<libunwind::LocalAddressSpace, libunwind::Registers_arm64>::getCFA(libunwind::LocalAddressSpace&, libunwind::CFI_Parser<libunwind::LocalAddressSpace>::PrologInfo const&, libunwind::Registers_arm64 const&)
PUBLIC a63f8 0 libunwind::DwarfInstructions<libunwind::LocalAddressSpace, libunwind::Registers_arm64>::getSavedRegister(libunwind::LocalAddressSpace&, libunwind::Registers_arm64 const&, unsigned long, libunwind::CFI_Parser<libunwind::LocalAddressSpace>::RegisterLocation const&)
PUBLIC a65f4 0 libunwind::LocalAddressSpace::getEncodedP(unsigned long&, unsigned long, unsigned char, unsigned long)
PUBLIC a6918 0 libunwind::LocalAddressSpace::getULEB128(unsigned long&, unsigned long)
PUBLIC a6ae8 0 libunwind::DwarfInstructions<libunwind::LocalAddressSpace, libunwind::Registers_arm64>::evaluateExpression(unsigned long, libunwind::LocalAddressSpace&, libunwind::Registers_arm64 const&, unsigned long)
PUBLIC a74ac 0 libunwind::UnwindCursor<libunwind::LocalAddressSpace, libunwind::Registers_arm64>::getInfoFromDwarfSection(unsigned long, libunwind::UnwindInfoSections const&, unsigned int)
PUBLIC a7794 0 libunwind::findUnwindSectionsByPhdr(dl_phdr_info*, unsigned long, void*)
PUBLIC a7934 0 libunwind::CFI_Parser<libunwind::LocalAddressSpace>::findFDE(libunwind::LocalAddressSpace&, unsigned long, unsigned long, unsigned long, unsigned long, libunwind::CFI_Parser<libunwind::LocalAddressSpace>::FDE_Info*, libunwind::CFI_Parser<libunwind::LocalAddressSpace>::CIE_Info*)
PUBLIC a7afc 0 libunwind::EHHeaderParser<libunwind::LocalAddressSpace>::findFDE(libunwind::LocalAddressSpace&, unsigned long, unsigned long, unsigned int, libunwind::CFI_Parser<libunwind::LocalAddressSpace>::FDE_Info*, libunwind::CFI_Parser<libunwind::LocalAddressSpace>::CIE_Info*)
PUBLIC a7cc8 0 libunwind::EHHeaderParser<libunwind::LocalAddressSpace>::getTableEntrySize(unsigned char)
PUBLIC a7db0 0 libunwind::Registers_arm64::getRegisterName(int)
PUBLIC a7de0 0 __libunwind_Registers_arm64_jumpto
PUBLIC m a7e70 0 __unw_getcontext
FUNC a7f0c 80 0 cocos2d::CCDestructor::destructorLock()
FUNC a7f8c 38 0 std::__ndk1::unordered_map<void*, bool, std::__ndk1::hash<void*>, std::__ndk1::equal_to<void*>, std::__ndk1::allocator<std::__ndk1::pair<void* const, bool> > >::unordered_map[abi:v170000]()
FUNC a7fc4 24 0 std::__ndk1::unordered_map<void*, bool, std::__ndk1::hash<void*>, std::__ndk1::equal_to<void*>, std::__ndk1::allocator<std::__ndk1::pair<void* const, bool> > >::~unordered_map[abi:v170000]()
FUNC a7fe8 5c 0 cocos2d::CCDestructor::lock(void*)
FUNC a8044 a4 0 std::__ndk1::unordered_map<void*, bool, std::__ndk1::hash<void*>, std::__ndk1::equal_to<void*>, std::__ndk1::allocator<std::__ndk1::pair<void* const, bool> > >::operator[](void* const&)
FUNC a80e8 74 0 cocos2d::CCDestructor::~CCDestructor()
FUNC a815c 2c 0 std::__ndk1::unordered_map<void*, bool, std::__ndk1::hash<void*>, std::__ndk1::equal_to<void*>, std::__ndk1::allocator<std::__ndk1::pair<void* const, bool> > >::erase[abi:v170000](void* const&)
FUNC a8188 158 0 wrapFunction(unsigned long, tulip::hook::WrapperMetadata const&)
FUNC a82e0 30 0 geode::impl::ResultData<void*, std::__ndk1::basic_string<char, std::__ndk1::char_traits<char>, std::__ndk1::allocator<char> > >::isErr() const
FUNC a8310 a8 0 geode::impl::ResultData<void*, std::__ndk1::basic_string<char, std::__ndk1::char_traits<char>, std::__ndk1::allocator<char> > >::unwrapErr() &
FUNC a83b8 a8 0 geode::impl::ResultData<void*, std::__ndk1::basic_string<char, std::__ndk1::char_traits<char>, std::__ndk1::allocator<char> > >::unwrap() &
FUNC a8460 24 0 geode::Result<void*, std::__ndk1::basic_string<char, std::__ndk1::char_traits<char>, std::__ndk1::allocator<char> > >::~Result()
FUNC a8484 20 0 cocos2d::CCSize::CCSize()
FUNC a84a4 34 0 tulip::hook::WrapperMetadata::~WrapperMetadata()
FUNC a84d8 118 0 tulip::hook::AbstractFunction::from<void, cocos2d::CCObject*>(void (*)(cocos2d::CCObject*))
FUNC a85f0 1a4 0 cocos2d::CCObject::~CCObject()
FUNC a8794 6c 0 cocos2d::CCObject::CCObject(geode::CutoffConstructorType, unsigned long)
FUNC a8800 38 0 cocos2d::CCObject::~CCObject()
FUNC a8838 1f8 0 cocos2d::CCNode::CCNode()
FUNC a8a30 118 0 tulip::hook::AbstractFunction::from<void, cocos2d::CCNode*>(void (*)(cocos2d::CCNode*))
FUNC a8b48 1a4 0 cocos2d::CCNode::~CCNode()
FUNC a8cec f0 0 cocos2d::CCNode::CCNode(geode::CutoffConstructorType, unsigned long)
FUNC a8ddc 38 0 cocos2d::CCNode::~CCNode()
FUNC a8e14 118 0 tulip::hook::AbstractFunction::from<void, cocos2d::CCLayer*>(void (*)(cocos2d::CCLayer*))
FUNC a8f2c 1dc 0 cocos2d::CCLayer::~CCLayer()
FUNC a9108 128 0 cocos2d::CCLayer::CCLayer(geode::CutoffConstructorType, unsigned long)
FUNC a9230 10 0 cocos2d::CCTouchDelegate::~CCTouchDelegate()
FUNC a9240 20 0 {virtual override thunk({offset(-320)}, cocos2d::CCLayer::~CCLayer())}
FUNC a9260 38 0 cocos2d::CCLayer::~CCLayer()
FUNC a9298 18 0 {virtual override thunk({offset(-320)}, cocos2d::CCLayer::~CCLayer())}
FUNC a92b0 118 0 tulip::hook::AbstractFunction::from<void, cocos2d::CCLayerRGBA*>(void (*)(cocos2d::CCLayerRGBA*))
FUNC a93c8 1d8 0 cocos2d::CCLayerRGBA::~CCLayerRGBA()
FUNC a95a0 c0 0 cocos2d::CCLayerRGBA::CCLayerRGBA(geode::CutoffConstructorType, unsigned long)
FUNC a9660 20 0 {virtual override thunk({offset(-320)}, cocos2d::CCLayerRGBA::~CCLayerRGBA())}
FUNC a9680 38 0 cocos2d::CCLayerRGBA::~CCLayerRGBA()
FUNC a96b8 18 0 {virtual override thunk({offset(-320)}, cocos2d::CCLayerRGBA::~CCLayerRGBA())}
FUNC a96d0 1f8 0 cocos2d::CCLayerColor::CCLayerColor()
FUNC a98c8 118 0 tulip::hook::AbstractFunction::from<void, cocos2d::CCLayerColor*>(void (*)(cocos2d::CCLayerColor*))
FUNC a99e0 1e4 0 cocos2d::CCLayerColor::~CCLayerColor()
FUNC a9bc4 d0 0 cocos2d::CCLayerColor::CCLayerColor(geode::CutoffConstructorType, unsigned long)
FUNC a9c94 20 0 {virtual override thunk({offset(-320)}, cocos2d::CCLayerColor::~CCLayerColor())}
FUNC a9cb4 38 0 cocos2d::CCLayerColor::~CCLayerColor()
FUNC a9cec 18 0 {virtual override thunk({offset(-320)}, cocos2d::CCLayerColor::~CCLayerColor())}
FUNC a9d04 1f8 0 FMODAudioEngine::playEffect(gd::string, float, float, float)
FUNC a9efc 1b8 0 tulip::hook::AbstractFunction::from<void, FMODAudioEngine*, gd::string, float, float, float>(void (*)(FMODAudioEngine*, gd::string, float, float, float))
FUNC aa0b4 40 0 std::__ndk1::operator+[abi:v170000]<char, std::__ndk1::char_traits<char>, std::__ndk1::allocator<char> >(std::__ndk1::allocator<char>&&, std::__ndk1::basic_string const*)
FUNC aa0f4 14 0 cocos2d::CCObject::update(float)
FUNC aa108 24 0 std::__ndk1::variant<void*, std::__ndk1::basic_string<char, std::__ndk1::char_traits<char>, std::__ndk1::allocator<char> > >::index[abi:v170000]() const
FUNC aa12c 4c 0 std::__ndk1::__variant_detail::__base<(std::__ndk1::__variant_detail::_Trait)1, void*, std::__ndk1::basic_string<char, std::__ndk1::char_traits<char>, std::__ndk1::allocator<char> > >::index[abi:v170000]() const
FUNC aa178 24 0 std::__ndk1::get[abi:v170000]<(unsigned long)1, void*, std::__ndk1::basic_string<char, std::__ndk1::char_traits<char>, std::__ndk1::allocator<char> > >(void*, std::__ndk1::basic_string<char, std::__ndk1::char_traits<char>, std::__ndk1::allocator<char> >&)
FUNC aa19c 24 0 std::__ndk1::get[abi:v170000]<(unsigned long)0, void*, std::__ndk1::basic_string<char, std::__ndk1::char_traits<char>, std::__ndk1::allocator<char> > >(void*, std::__ndk1::basic_string<char, std::__ndk1::char_traits<char>, std::__ndk1::allocator<char> >&)
FUNC aa1c0 130 0 geode::UnwrapException::UnwrapException<void*&>(void*&)
FUNC aa2f0 38 0 std::__ndk1::__generic_get[abi:v170000]<(unsigned long)1, std::__ndk1::variant<void*, std::__ndk1::basic_string<char, std::__ndk1::char_traits<char>, std::__ndk1::allocator<char> > >&>(std::__ndk1::variant<void*, std::__ndk1::basic_string<char, std::__ndk1::char_traits<char>, std::__ndk1::allocator<char> > >&)
FUNC aa328 30 0 std::__ndk1::__holds_alternative[abi:v170000]<(unsigned long)1, void*, std::__ndk1::basic_string<char, std::__ndk1::char_traits<char>, std::__ndk1::allocator<char> > >(std::__ndk1::variant<void*, std::__ndk1::basic_string<char, std::__ndk1::char_traits<char>, std::__ndk1::allocator<char> > > const&)
FUNC aa358 24 0 std::__ndk1::__variant_detail::__access::__variant::__get_alt[abi:v170000]<(unsigned long)1, std::__ndk1::variant<void*, std::__ndk1::basic_string<char, std::__ndk1::char_traits<char>, std::__ndk1::allocator<char> > >&>(std::__ndk1::variant<void*, std::__ndk1::basic_string<char, std::__ndk1::char_traits<char>, std::__ndk1::allocator<char> > >&)
FUNC aa37c 28 0 std::__ndk1::__variant_detail::__access::__base::__get_alt[abi:v170000]<(unsigned long)1, std::__ndk1::__variant_detail::__impl<void*, std::__ndk1::basic_string<char, std::__ndk1::char_traits<char>, std::__ndk1::allocator<char> > >&>(std::__ndk1::__variant_detail::__impl<void*, std::__ndk1::basic_string<char, std::__ndk1::char_traits<char>, std::__ndk1::allocator<char> > >&)
FUNC aa3a4 2c 0 std::__ndk1::__variant_detail::__access::__union::__get_alt[abi:v170000]<std::__ndk1::__variant_detail::__union<(std::__ndk1::__variant_detail::_Trait)1, (unsigned long)0, void*, std::__ndk1::basic_string<char, std::__ndk1::char_traits<char>, std::__ndk1::allocator<char> > >&, (unsigned long)1>(std::__ndk1::__variant_detail::__union<(std::__ndk1::__variant_detail::_Trait)1, (unsigned long)0, void*, std::__ndk1::basic_string<char, std::__ndk1::char_traits<char>, std::__ndk1::allocator<char> > >&, std::__ndk1::in_place_index_t<(unsigned long)1>)
FUNC aa3d0 38 0 std::__ndk1::__generic_get[abi:v170000]<(unsigned long)0, std::__ndk1::variant<void*, std::__ndk1::basic_string<char, std::__ndk1::char_traits<char>, std::__ndk1::allocator<char> > >&>(std::__ndk1::variant<void*, std::__ndk1::basic_string<char, std::__ndk1::char_traits<char>, std::__ndk1::allocator<char> > >&)
FUNC aa408 30 0 std::__ndk1::__holds_alternative[abi:v170000]<(unsigned long)0, void*, std::__ndk1::basic_string<char, std::__ndk1::char_traits<char>, std::__ndk1::allocator<char> > >(std::__ndk1::variant<void*, std::__ndk1::basic_string<char, std::__ndk1::char_traits<char>, std::__ndk1::allocator<char> > > const&)
FUNC aa438 24 0 std::__ndk1::__variant_detail::__access::__variant::__get_alt[abi:v170000]<(unsigned long)0, std::__ndk1::variant<void*, std::__ndk1::basic_string<char, std::__ndk1::char_traits<char>, std::__ndk1::allocator<char> > >&>(std::__ndk1::variant<void*, std::__ndk1::basic_string<char, std::__ndk1::char_traits<char>, std::__ndk1::allocator<char> > >&)
FUNC aa45c 28 0 std::__ndk1::__variant_detail::__access::__base::__get_alt[abi:v170000]<(unsigned long)0, std::__ndk1::__variant_detail::__impl<void*, std::__ndk1::basic_string<char, std::__ndk1::char_traits<char>, std::__ndk1::allocator<char> > >&>(std::__ndk1::__variant_detail::__impl<void*, std::__ndk1::basic_string<char, std::__ndk1::char_traits<char>, std::__ndk1::allocator<char> > >&)
FUNC aa484 18 0 std::__ndk1::__variant_detail::__access::__union::__get_alt[abi:v170000]<std::__ndk1::__variant_detail::__union<(std::__ndk1::__variant_detail::_Trait)1, (unsigned long)0, void*, std::__ndk1::basic_string<char, std::__ndk1::char_traits<char>, std::__ndk1::allocator<char> > >&>(std::__ndk1::__variant_detail::__union<(std::__ndk1::__variant_detail::_Trait)1, (unsigned long)0, void*, std::__ndk1::basic_string<char, std::__ndk1::char_traits<char>, std::__ndk1::allocator<char> > >&, std::__ndk1::in_place_index_t<(unsigned long)0>)
FUNC aa49c 38 0 std::__ndk1::operator<<[abi:v170000]<std::__ndk1::basic_stringstream<char, std::__ndk1::char_traits<char>, std::__ndk1::allocator<char> >, void*, void>(std::__ndk1::basic_stringstream<char, std::__ndk1::char_traits<char>, std::__ndk1::allocator<char> >, void* const&)
FUNC aa4d4 30 0 geode::impl::ResultData<void*, std::__ndk1::basic_string<char, std::__ndk1::char_traits<char>, std::__ndk1::allocator<char> > >::isOk() const
FUNC aa504 130 0 geode::UnwrapException::UnwrapException<std::__ndk1::basic_string<char, std::__ndk1::char_traits<char>, std::__ndk1::allocator<char> >&>(std::__ndk1::basic_string<char, std::__ndk1::char_traits<char>, std::__ndk1::allocator<char> >&)
FUNC aa634 34 0 std::__ndk1::operator<<[abi:v170000]<std::__ndk1::basic_stringstream<char, std::__ndk1::char_traits<char>, std::__ndk1::allocator<char> >, std::__ndk1::basic_string<char, std::__ndk1::char_traits, std::__ndk1::allocator>, void>(std::__ndk1::basic_stringstream<char, std::__ndk1::char_traits<char>, std::__ndk1::allocator<char> >, std::__ndk1::basic_string<char, std::__ndk1::char_traits, std::__ndk1::allocator> const&)
FUNC aa668 34 0 std::__ndk1::operator<<[abi:v170000]<std::__ndk1::basic_stringstream<char, std::__ndk1::char_traits<char>, std::__ndk1::allocator<char> >, char [33], void>(std::__ndk1::basic_stringstream<char, std::__ndk1::char_traits<char>, std::__ndk1::allocator<char> >, char const (&) [33])
FUNC aa69c 4c 0 std::__ndk1::operator<<[abi:v170000]<char, std::__ndk1::char_traits<char>, std::__ndk1::allocator<char> >(std::__ndk1::basic_ostream<char, std::__ndk1::char_traits<char> >, std::__ndk1::basic_string<std::__ndk1::basic_ostream, char, std::__ndk1::allocator<char> > const&)
FUNC aa6e8 24 0 geode::impl::ResultDataWrapper<void*, std::__ndk1::basic_string<char, std::__ndk1::char_traits<char>, std::__ndk1::allocator<char> > >::~ResultDataWrapper()
FUNC aa70c 24 0 geode::impl::ResultData<void*, std::__ndk1::basic_string<char, std::__ndk1::char_traits<char>, std::__ndk1::allocator<char> > >::~ResultData()
FUNC aa730 24 0 std::__ndk1::variant<void*, std::__ndk1::basic_string<char, std::__ndk1::char_traits<char>, std::__ndk1::allocator<char> > >::~variant()
FUNC aa754 24 0 std::__ndk1::__variant_detail::__impl<void*, std::__ndk1::basic_string<char, std::__ndk1::char_traits<char>, std::__ndk1::allocator<char> > >::~__impl()
FUNC aa778 24 0 std::__ndk1::__variant_detail::__copy_assignment<std::__ndk1::__variant_detail::__traits<void*, std::__ndk1::basic_string<char, std::__ndk1::char_traits<char>, std::__ndk1::allocator<char> > >, (std::__ndk1::__variant_detail::_Trait)1>::~__copy_assignment()
FUNC aa79c 24 0 std::__ndk1::__variant_detail::__move_assignment<std::__ndk1::__variant_detail::__traits<void*, std::__ndk1::basic_string<char, std::__ndk1::char_traits<char>, std::__ndk1::allocator<char> > >, (std::__ndk1::__variant_detail::_Trait)1>::~__move_assignment()
FUNC aa7c0 24 0 std::__ndk1::__variant_detail::__assignment<std::__ndk1::__variant_detail::__traits<void*, std::__ndk1::basic_string<char, std::__ndk1::char_traits<char>, std::__ndk1::allocator<char> > > >::~__assignment()
FUNC aa7e4 24 0 std::__ndk1::__variant_detail::__copy_constructor<std::__ndk1::__variant_detail::__traits<void*, std::__ndk1::basic_string<char, std::__ndk1::char_traits<char>, std::__ndk1::allocator<char> > >, (std::__ndk1::__variant_detail::_Trait)1>::~__copy_constructor()
FUNC aa808 24 0 std::__ndk1::__variant_detail::__move_constructor<std::__ndk1::__variant_detail::__traits<void*, std::__ndk1::basic_string<char, std::__ndk1::char_traits<char>, std::__ndk1::allocator<char> > >, (std::__ndk1::__variant_detail::_Trait)1>::~__move_constructor()
FUNC aa82c 24 0 std::__ndk1::__variant_detail::__ctor<std::__ndk1::__variant_detail::__traits<void*, std::__ndk1::basic_string<char, std::__ndk1::char_traits<char>, std::__ndk1::allocator<char> > > >::~__ctor()
FUNC aa850 30 0 std::__ndk1::__variant_detail::__dtor<std::__ndk1::__variant_detail::__traits<void*, std::__ndk1::basic_string<char, std::__ndk1::char_traits<char>, std::__ndk1::allocator<char> > >, (std::__ndk1::__variant_detail::_Trait)1>::~__dtor()
FUNC aa880 80 0 std::__ndk1::__variant_detail::__dtor<std::__ndk1::__variant_detail::__traits<void*, std::__ndk1::basic_string<char, std::__ndk1::char_traits<char>, std::__ndk1::allocator<char> > >, (std::__ndk1::__variant_detail::_Trait)1>::__destroy[abi:v170000]()
FUNC aa900 24 0 std::__ndk1::__variant_detail::__base<(std::__ndk1::__variant_detail::_Trait)1, void*, std::__ndk1::basic_string<char, std::__ndk1::char_traits<char>, std::__ndk1::allocator<char> > >::~__base()
FUNC aa924 30 0 std::__ndk1::__variant_detail::__base<(std::__ndk1::__variant_detail::_Trait)1, void*, std::__ndk1::basic_string<char, std::__ndk1::char_traits<char>, std::__ndk1::allocator<char> > >::valueless_by_exception[abi:v170000]() const
FUNC aa954 98 0 std::__ndk1::__variant_detail::__visitation::__base::__visit_alt[abi:v170000]<std::__ndk1::__variant_detail::__dtor<std::__ndk1::__variant_detail::__traits<void*, std::__ndk1::basic_string<char, std::__ndk1::char_traits<char>, std::__ndk1::allocator<char> > >, (std::__ndk1::__variant_detail::_Trait)1>::__destroy[abi:v170000]()::{lambda(auto:1&)#1}, std::__ndk1::__variant_detail::_Trait&>(std::__ndk1::__variant_detail::__dtor<std::__ndk1::__variant_detail::__traits<void*, std::__ndk1::basic_string<char, std::__ndk1::char_traits<char>, std::__ndk1::allocator<char> > >, (std::__ndk1::__variant_detail::_Trait)1>&&, std::__ndk1::__variant_detail::_Trait&)
FUNC aa9ec 3c 0 std::__ndk1::__variant_detail::__visitation::__base::__dispatcher<(unsigned long)0>::__dispatch[abi:v170000]<std::__ndk1::__variant_detail::__dtor<std::__ndk1::__variant_detail::__traits<void*, std::__ndk1::basic_string<char, std::__ndk1::char_traits<char>, std::__ndk1::allocator<char> > >, (std::__ndk1::__variant_detail::_Trait)1>::__destroy[abi:v170000]()::{lambda(auto:1&)#1}, std::__ndk1::__variant_detail::__base<(std::__ndk1::__variant_detail::__traits<void*, std::__ndk1::basic_string<char, std::__ndk1::char_traits<char>, std::__ndk1::allocator<char> > >)1, std::__ndk1::__variant_detail::__traits, std::__ndk1::allocator<char> >&>(std::__ndk1::__variant_detail::__dtor<std::__ndk1::__variant_detail::__traits<void*, std::__ndk1::basic_string<char, std::__ndk1::char_traits<char>, std::__ndk1::allocator<char> > >, (std::__ndk1::__variant_detail::_Trait)1>, std::__ndk1::__variant_detail::__base<(std::__ndk1::__variant_detail::__traits<void*, std::__ndk1::basic_string<char, std::__ndk1::char_traits<char>, std::__ndk1::allocator<char> > >)1, std::__ndk1::__variant_detail::__traits, std::__ndk1::allocator<char> >&)
FUNC aaa28 3c 0 std::__ndk1::__variant_detail::__visitation::__base::__dispatcher<(unsigned long)1>::__dispatch[abi:v170000]<std::__ndk1::__variant_detail::__dtor<std::__ndk1::__variant_detail::__traits<void*, std::__ndk1::basic_string<char, std::__ndk1::char_traits<char>, std::__ndk1::allocator<char> > >, (std::__ndk1::__variant_detail::_Trait)1>::__destroy[abi:v170000]()::{lambda(auto:1&)#1}, std::__ndk1::__variant_detail::__base<(std::__ndk1::__variant_detail::__traits<void*, std::__ndk1::basic_string<char, std::__ndk1::char_traits<char>, std::__ndk1::allocator<char> > >)1, std::__ndk1::__variant_detail::__traits, std::__ndk1::allocator<char> >&>(std::__ndk1::__variant_detail::__dtor<std::__ndk1::__variant_detail::__traits<void*, std::__ndk1::basic_string<char, std::__ndk1::char_traits<char>, std::__ndk1::allocator<char> > >, (std::__ndk1::__variant_detail::_Trait)1>, std::__ndk1::__variant_detail::__base<(std::__ndk1::__variant_detail::__traits<void*, std::__ndk1::basic_string<char, std::__ndk1::char_traits<char>, std::__ndk1::allocator<char> > >)1, std::__ndk1::__variant_detail::__traits, std::__ndk1::allocator<char> >&)
FUNC aaa64 30 0 std::__ndk1::__variant_detail::__visitation::__base::__at[abi:v170000]<void (*)(std::__ndk1::__variant_detail::__dtor<std::__ndk1::__variant_detail::__traits<void*, std::__ndk1::basic_string<char, std::__ndk1::char_traits<char>, std::__ndk1::allocator<char> > >, (std::__ndk1::__variant_detail::_Trait)1>::__destroy[abi:v170000]()::{lambda(auto:1&)#1}, std::__ndk1::__variant_detail::__base<(std::__ndk1::__variant_detail::__traits<void*, std::__ndk1::basic_string<char, std::__ndk1::char_traits<char>, std::__ndk1::allocator<char> > >)1, std::__ndk1::__variant_detail::__traits, std::__ndk1::allocator<char> >&), (unsigned long)2, >(std::__ndk1::__farray<std::__ndk1::__variant_detail::__dtor<std::__ndk1::__variant_detail::__traits<void*, std::__ndk1::basic_string<char, std::__ndk1::char_traits<char>, std::__ndk1::allocator<char> > >, (std::__ndk1::__variant_detail::_Trait)1>, (unsigned long)2> const&, unsigned long, )
FUNC aaa94 14 0 std::__ndk1::__variant_detail::__base<(std::__ndk1::__variant_detail::_Trait)1, void*, std::__ndk1::basic_string<char, std::__ndk1::char_traits<char>, std::__ndk1::allocator<char> > >::__as_base[abi:v170000]() &
FUNC aaaa8 2c 0 std::__ndk1::__invoke[abi:v170000]<std::__ndk1::__variant_detail::__dtor<std::__ndk1::__invoke[abi:v170000]::__traits<void*, std::__ndk1::basic_string<char, std::__ndk1::char_traits<char>, std::__ndk1::allocator<char> > >, (std::__ndk1::__invoke[abi:v170000]::_Trait)1>::__destroy[abi:v170000]()::{lambda(auto:1&)#1}, std::__ndk1::__invoke[abi:v170000]::__alt<(unsigned long)0, std::__ndk1::__invoke[abi:v170000]::__traits>&>(std::__ndk1::__variant_detail::__dtor<std::__ndk1::__invoke[abi:v170000]::__traits<void*, std::__ndk1::basic_string<char, std::__ndk1::char_traits<char>, std::__ndk1::allocator<char> > >, (std::__ndk1::__invoke[abi:v170000]::_Trait)1>&&, std::__ndk1::__invoke[abi:v170000]::__alt<(unsigned long)0, std::__ndk1::__invoke[abi:v170000]::__traits>&&)
FUNC aaad4 28 0 std::__ndk1::__variant_detail::__access::__base::__get_alt[abi:v170000]<(unsigned long)0, std::__ndk1::__variant_detail::__base<(std::__ndk1::__variant_detail::_Trait)1, void*, std::__ndk1::basic_string<char, std::__ndk1::char_traits<char>, std::__ndk1::allocator<char> > >&>(std::__ndk1::__variant_detail::__base<(std::__ndk1::__variant_detail::_Trait)1, void*, std::__ndk1::basic_string<char, std::__ndk1::char_traits<char>, std::__ndk1::allocator<char> > >&)
FUNC aaafc 14 0 std::__ndk1::__variant_detail::__dtor<std::__ndk1::__variant_detail::__traits<void*, std::__ndk1::basic_string<char, std::__ndk1::char_traits<char>, std::__ndk1::allocator<char> > >, (std::__ndk1::__variant_detail::_Trait)1>::__destroy[abi:v170000]()::{lambda(auto:1&)#1}::operator()<std::__ndk1::__variant_detail::__alt<(unsigned long)0, void*> >(std::__ndk1::__variant_detail::__alt<(unsigned long)0, void*>) const
FUNC aab10 2c 0 std::__ndk1::__invoke[abi:v170000]<std::__ndk1::__variant_detail::__dtor<std::__ndk1::__invoke[abi:v170000]::__traits<void*, std::__ndk1::basic_string<char, std::__ndk1::char_traits<char>, std::__ndk1::allocator<char> > >, (std::__ndk1::__invoke[abi:v170000]::_Trait)1>::__destroy[abi:v170000]()::{lambda(auto:1&)#1}, std::__ndk1::__invoke[abi:v170000]::__alt<(unsigned long)1, std::__ndk1::allocator<char> >&>(std::__ndk1::__variant_detail::__dtor<std::__ndk1::__invoke[abi:v170000]::__traits<void*, std::__ndk1::basic_string<char, std::__ndk1::char_traits<char>, std::__ndk1::allocator<char> > >, (std::__ndk1::__invoke[abi:v170000]::_Trait)1>&&, std::__ndk1::__invoke[abi:v170000]::__alt<(unsigned long)1, std::__ndk1::allocator<char> >&&)
FUNC aab3c 28 0 std::__ndk1::__variant_detail::__access::__base::__get_alt[abi:v170000]<(unsigned long)1, std::__ndk1::__variant_detail::__base<(std::__ndk1::__variant_detail::_Trait)1, void*, std::__ndk1::basic_string<char, std::__ndk1::char_traits<char>, std::__ndk1::allocator<char> > >&>(std::__ndk1::__variant_detail::__base<(std::__ndk1::__variant_detail::_Trait)1, void*, std::__ndk1::basic_string<char, std::__ndk1::char_traits<char>, std::__ndk1::allocator<char> > >&)
FUNC aab64 28 0 std::__ndk1::__variant_detail::__dtor<std::__ndk1::__variant_detail::__traits<void*, std::__ndk1::basic_string<char, std::__ndk1::char_traits<char>, std::__ndk1::allocator<char> > >, (std::__ndk1::__variant_detail::_Trait)1>::__destroy[abi:v170000]()::{lambda(auto:1&)#1}::operator()<std::__ndk1::__variant_detail::__alt<(unsigned long)1, std::__ndk1::basic_string<char, std::__ndk1::char_traits<char>, std::__ndk1::allocator<char> > > >(std::__ndk1::__variant_detail::__alt<(unsigned long)1, std::__ndk1::basic_string<char, std::__ndk1::char_traits<char>, std::__ndk1::allocator<char> > >) const
FUNC aab8c 14 0 std::__ndk1::__variant_detail::__visitation::__base::__at[abi:v170000]<void (*)(std::__ndk1::__variant_detail::__dtor<std::__ndk1::__variant_detail::__traits<void*, std::__ndk1::basic_string<char, std::__ndk1::char_traits<char>, std::__ndk1::allocator<char> > >, (std::__ndk1::__variant_detail::_Trait)1>::__destroy[abi:v170000]()::{lambda(auto:1&)#1}, std::__ndk1::__variant_detail::__base<(std::__ndk1::__variant_detail::__traits<void*, std::__ndk1::basic_string<char, std::__ndk1::char_traits<char>, std::__ndk1::allocator<char> > >)1, std::__ndk1::__variant_detail::__traits, std::__ndk1::allocator<char> >&)>(void (*)(std::__ndk1::__variant_detail::__dtor<std::__ndk1::__variant_detail::__traits<void*, std::__ndk1::basic_string<char, std::__ndk1::char_traits<char>, std::__ndk1::allocator<char> > >, (std::__ndk1::__variant_detail::_Trait)1>::__destroy[abi:v170000]()::{lambda(auto:1&)#1}, std::__ndk1::__variant_detail::__base<(std::__ndk1::__variant_detail::__traits<void*, std::__ndk1::basic_string<char, std::__ndk1::char_traits<char>, std::__ndk1::allocator<char> > >)1, std::__ndk1::__variant_detail::__traits, std::__ndk1::allocator<char> >&))
FUNC aaba0 20 0 std::__ndk1::__farray<void (*)(std::__ndk1::__variant_detail::__dtor<std::__ndk1::__variant_detail::__traits<void*, std::__ndk1::basic_string<char, std::__ndk1::char_traits<char>, std::__ndk1::allocator<char> > >, (std::__ndk1::__variant_detail::_Trait)1>::__destroy[abi:v170000]()::{lambda(auto:1&)#1}, std::__ndk1::__variant_detail::__base<(std::__ndk1::__variant_detail::_Trait)1, void*, std::__ndk1::basic_string<char, std::__ndk1::char_traits<char>, std::__ndk1::allocator<char> > >&), (unsigned long)2>::operator[][abi:v170000](unsigned long) const
FUNC aabc0 10 0 std::__ndk1::__variant_detail::__union<(std::__ndk1::__variant_detail::_Trait)1, (unsigned long)0, void*, std::__ndk1::basic_string<char, std::__ndk1::char_traits<char>, std::__ndk1::allocator<char> > >::~__union()
FUNC aabd0 4c 0 cocos2d::CCObject::CCObject(geode::CutoffConstructorType, void*)
FUNC aac1c 44 0 cocos2d::CCDestructor::CCDestructor()
FUNC aac60 24 0 cocos2d::CCCopying::CCCopying()
FUNC aac84 24 0 cocos2d::CCRGBAProtocol::CCRGBAProtocol()
FUNC aaca8 24 0 cocos2d::CCBlendProtocol::CCBlendProtocol()
FUNC aaccc 24 0 cocos2d::CCTouchDelegate::CCTouchDelegate()
FUNC aacf0 24 0 cocos2d::CCAccelerometerDelegate::CCAccelerometerDelegate()
FUNC aad14 24 0 cocos2d::CCKeypadDelegate::CCKeypadDelegate()
FUNC aad38 24 0 cocos2d::CCKeyboardDelegate::CCKeyboardDelegate()
FUNC aad5c 24 0 cocos2d::CCMouseDelegate::CCMouseDelegate()
FUNC aad80 14 0 cocos2d::CCAccelerometerDelegate::didAccelerate(cocos2d::CCAcceleration*)
FUNC aad94 10 0 cocos2d::CCKeypadDelegate::keyBackClicked()
FUNC aada4 10 0 cocos2d::CCKeypadDelegate::keyMenuClicked()
FUNC aadb4 14 0 cocos2d::CCKeyboardDelegate::keyDown(cocos2d::enumKeyCodes)
FUNC aadc8 24 0 std::__ndk1::allocator<int>::allocator[abi:v170000]()
FUNC aadec 10 0 std::__ndk1::__non_trivial_if<true, std::__ndk1::allocator<int> >::__non_trivial_if[abi:v170000]()
FUNC aadfc 40 0 std::__ndk1::allocator<int>::deallocate[abi:v170000](int*, unsigned long)
FUNC aae3c ac 0 std::__ndk1::__hash_table<std::__ndk1::__hash_value_type<void*, bool>, std::__ndk1::__unordered_map_hasher<void*, std::__ndk1::__hash_value_type<void*, bool>, std::__ndk1::hash<void*>, std::__ndk1::equal_to<void*>, true>, std::__ndk1::__unordered_map_equal<void*, std::__ndk1::__hash_value_type<void*, bool>, std::__ndk1::equal_to<void*>, std::__ndk1::hash<void*>, true>, std::__ndk1::allocator<std::__ndk1::__hash_value_type<void*, bool> > >::__hash_table()
FUNC aaee8 10 0 std::__ndk1::__debug_db_insert_c[abi:v170000]<std::__ndk1::unordered_map<void*, bool, std::__ndk1::hash<std::__ndk1::unordered_map>, std::__ndk1::equal_to<std::__ndk1::unordered_map>, std::__ndk1::allocator<std::__ndk1::pair<std::__ndk1::unordered_map const, bool> > > >(std::__ndk1::unordered_map<void*, bool, std::__ndk1::hash<std::__ndk1::unordered_map>, std::__ndk1::equal_to<std::__ndk1::unordered_map>, std::__ndk1::allocator<std::__ndk1::pair<std::__ndk1::unordered_map const, bool> > >*)
FUNC aaef8 5c 0 std::__ndk1::unique_ptr<std::__ndk1::__hash_node_base<std::__ndk1::__hash_node<std::__ndk1::__hash_value_type<void*, bool>, void*>*>* [], std::__ndk1::__bucket_list_deallocator<std::__ndk1::allocator<std::__ndk1::__hash_node_base<std::__ndk1::__hash_node<std::__ndk1::__hash_value_type<void*, bool>, void*>*>*> > >::unique_ptr[abi:v170000]<true, void>()
FUNC aaf54 38 0 std::__ndk1::__compressed_pair<std::__ndk1::__hash_node_base<std::__ndk1::__hash_node<std::__ndk1::__hash_value_type<void*, bool>, void*>*>, std::__ndk1::allocator<std::__ndk1::__hash_node<std::__ndk1::__hash_value_type<void*, bool>, void*> > >::__compressed_pair[abi:v170000]<true, void>()
FUNC aaf8c 40 0 std::__ndk1::__compressed_pair<unsigned long, std::__ndk1::__unordered_map_hasher<void*, std::__ndk1::__hash_value_type<void*, bool>, std::__ndk1::hash<void*>, std::__ndk1::equal_to<void*>, true> >::__compressed_pair[abi:v170000]<int, std::__ndk1::__default_init_tag>(std::__ndk1::__default_init_tag&&)
FUNC aafcc 40 0 std::__ndk1::__compressed_pair<float, std::__ndk1::__unordered_map_equal<void*, std::__ndk1::__hash_value_type<void*, bool>, std::__ndk1::equal_to<void*>, std::__ndk1::hash<void*>, true> >::__compressed_pair[abi:v170000]<float, std::__ndk1::__default_init_tag>(std::__ndk1::__default_init_tag&&)
FUNC ab00c 44 0 std::__ndk1::__compressed_pair<std::__ndk1::__hash_node_base<std::__ndk1::__hash_node<std::__ndk1::__hash_value_type<void*, bool>, void*>*>**, std::__ndk1::__bucket_list_deallocator<std::__ndk1::allocator<std::__ndk1::__hash_node_base<std::__ndk1::__hash_node<std::__ndk1::__hash_value_type<void*, bool>, void*>*>*> > >::__compressed_pair[abi:v170000]<std::__ndk1::__value_init_tag, std::__ndk1::__compressed_pair<std::__ndk1::__hash_node_base<std::__ndk1::__hash_node<std::__ndk1::__hash_value_type<void*, bool>, void*>*>**, std::__ndk1::__bucket_list_deallocator<std::__ndk1::allocator<std::__ndk1::__hash_node_base<std::__ndk1::__hash_node<std::__ndk1::__hash_value_type<void*, bool>, void*>*>*> > >::__compressed_pair[abi:v170000]>(std::__ndk1::__compressed_pair<std::__ndk1::__hash_node_base<std::__ndk1::__hash_node<std::__ndk1::__hash_value_type<void*, bool>, void*>*>**, std::__ndk1::__bucket_list_deallocator<std::__ndk1::allocator<std::__ndk1::__hash_node_base<std::__ndk1::__hash_node<std::__ndk1::__hash_value_type<void*, bool>, void*>*>*> > >::__compressed_pair[abi:v170000]&&)
FUNC ab050 1c 0 std::__ndk1::__compressed_pair_elem<std::__ndk1::__hash_node_base<std::__ndk1::__hash_node<std::__ndk1::__hash_value_type<void*, bool>, void*>*>**, 0, false>::__compressed_pair_elem[abi:v170000](std::__ndk1::__value_init_tag)
FUNC ab06c 28 0 std::__ndk1::__compressed_pair_elem<std::__ndk1::__bucket_list_deallocator<std::__ndk1::allocator<std::__ndk1::__hash_node_base<std::__ndk1::__hash_node<std::__ndk1::__hash_value_type<void*, bool>, void*>*>*> >, 1, false>::__compressed_pair_elem[abi:v170000](std::__ndk1::__value_init_tag)
FUNC ab094 64 0 std::__ndk1::__bucket_list_deallocator<std::__ndk1::allocator<std::__ndk1::__hash_node_base<std::__ndk1::__hash_node<std::__ndk1::__hash_value_type<void*, bool>, void*>*>*> >::__bucket_list_deallocator[abi:v170000]()
FUNC ab0f8 40 0 std::__ndk1::__compressed_pair<unsigned long, std::__ndk1::allocator<std::__ndk1::__hash_node_base<std::__ndk1::__hash_node<std::__ndk1::__hash_value_type<void*, bool>, void*>*>*> >::__compressed_pair[abi:v170000]<int, std::__ndk1::__default_init_tag>(std::__ndk1::__default_init_tag&&)
FUNC ab138 28 0 std::__ndk1::__compressed_pair_elem<std::__ndk1::allocator<std::__ndk1::__hash_node_base<std::__ndk1::__hash_node<std::__ndk1::__hash_value_type<void*, bool>, void*>*>*>, 1, true>::__compressed_pair_elem[abi:v170000](std::__ndk1::__default_init_tag)
FUNC ab160 24 0 std::__ndk1::allocator<std::__ndk1::__hash_node_base<std::__ndk1::__hash_node<std::__ndk1::__hash_value_type<void*, bool>, void*>*>*>::allocator[abi:v170000]()
FUNC ab184 10 0 std::__ndk1::__non_trivial_if<true, std::__ndk1::allocator<std::__ndk1::__hash_node_base<std::__ndk1::__hash_node<std::__ndk1::__hash_value_type<void*, bool>, void*>*>*> >::__non_trivial_if[abi:v170000]()
FUNC ab194 28 0 std::__ndk1::__compressed_pair_elem<std::__ndk1::__hash_node_base<std::__ndk1::__hash_node<std::__ndk1::__hash_value_type<void*, bool>, void*>*>, 0, false>::__compressed_pair_elem[abi:v170000](std::__ndk1::__value_init_tag)
FUNC ab1bc 28 0 std::__ndk1::__compressed_pair_elem<std::__ndk1::allocator<std::__ndk1::__hash_node<std::__ndk1::__hash_value_type<void*, bool>, void*> >, 1, true>::__compressed_pair_elem[abi:v170000](std::__ndk1::__value_init_tag)
FUNC ab1e4 18 0 std::__ndk1::__hash_node_base<std::__ndk1::__hash_node<std::__ndk1::__hash_value_type<void*, bool>, void*>*>::__hash_node_base[abi:v170000]()
FUNC ab1fc 24 0 std::__ndk1::allocator<std::__ndk1::__hash_node<std::__ndk1::__hash_value_type<void*, bool>, void*> >::allocator[abi:v170000]()
FUNC ab220 10 0 std::__ndk1::__non_trivial_if<true, std::__ndk1::allocator<std::__ndk1::__hash_node<std::__ndk1::__hash_value_type<void*, bool>, void*> > >::__non_trivial_if[abi:v170000]()
FUNC ab230 28 0 std::__ndk1::__compressed_pair_elem<std::__ndk1::__unordered_map_hasher<void*, std::__ndk1::__hash_value_type<void*, bool>, std::__ndk1::hash<void*>, std::__ndk1::equal_to<void*>, true>, 1, true>::__compressed_pair_elem[abi:v170000](std::__ndk1::__default_init_tag)
FUNC ab258 10 0 std::__ndk1::__unordered_map_hasher<void*, std::__ndk1::__hash_value_type<void*, bool>, std::__ndk1::hash<void*>, std::__ndk1::equal_to<void*>, true>::__unordered_map_hasher[abi:v170000]()
FUNC ab268 24 0 std::__ndk1::__compressed_pair_elem<float, 0, false>::__compressed_pair_elem[abi:v170000]<float, void>()
FUNC ab28c 28 0 std::__ndk1::__compressed_pair_elem<std::__ndk1::__unordered_map_equal<void*, std::__ndk1::__hash_value_type<void*, bool>, std::__ndk1::equal_to<void*>, std::__ndk1::hash<void*>, true>, 1, true>::__compressed_pair_elem[abi:v170000](std::__ndk1::__default_init_tag)
FUNC ab2b4 10 0 std::__ndk1::__unordered_map_equal<void*, std::__ndk1::__hash_value_type<void*, bool>, std::__ndk1::equal_to<void*>, std::__ndk1::hash<void*>, true>::__unordered_map_equal[abi:v170000]()
FUNC ab2c4 54 0 std::__ndk1::__hash_table<std::__ndk1::__hash_value_type<void*, bool>, std::__ndk1::__unordered_map_hasher<void*, std::__ndk1::__hash_value_type<void*, bool>, std::__ndk1::hash<void*>, std::__ndk1::equal_to<void*>, true>, std::__ndk1::__unordered_map_equal<void*, std::__ndk1::__hash_value_type<void*, bool>, std::__ndk1::equal_to<void*>, std::__ndk1::hash<void*>, true>, std::__ndk1::allocator<std::__ndk1::__hash_value_type<void*, bool> > >::~__hash_table()
FUNC ab318 a8 0 std::__ndk1::__hash_table<std::__ndk1::__hash_value_type<void*, bool>, std::__ndk1::__unordered_map_hasher<void*, std::__ndk1::__hash_value_type<void*, bool>, std::__ndk1::hash<void*>, std::__ndk1::equal_to<void*>, true>, std::__ndk1::__unordered_map_equal<void*, std::__ndk1::__hash_value_type<void*, bool>, std::__ndk1::equal_to<void*>, std::__ndk1::hash<void*>, true>, std::__ndk1::allocator<std::__ndk1::__hash_value_type<void*, bool> > >::__deallocate_node(std::__ndk1::__hash_node_base<std::__ndk1::__hash_node<std::__ndk1::__hash_value_type<void*, bool>, void*>*>*)
FUNC ab3c0 24 0 std::__ndk1::__compressed_pair<std::__ndk1::__hash_node_base<std::__ndk1::__hash_node<std::__ndk1::__hash_value_type<void*, bool>, void*>*>, std::__ndk1::allocator<std::__ndk1::__hash_node<std::__ndk1::__hash_value_type<void*, bool>, void*> > >::first[abi:v170000]()
FUNC ab3e4 10 0 std::__ndk1::__debug_db_erase_c[abi:v170000]<std::__ndk1::__hash_table<std::__ndk1::__hash_value_type<void*, bool>, std::__ndk1::__unordered_map_hasher<std::__ndk1::__hash_value_type, void*, std::__ndk1::hash<std::__ndk1::__hash_value_type>, std::__ndk1::equal_to<std::__ndk1::__hash_value_type>, true>, std::__ndk1::__unordered_map_equal<std::__ndk1::__hash_value_type, void*, std::__ndk1::equal_to, std::__ndk1::hash, true>, std::__ndk1::allocator<void*> > >(std::__ndk1::__hash_table<std::__ndk1::__hash_value_type<void*, bool>, std::__ndk1::__unordered_map_hasher<std::__ndk1::__hash_value_type, void*, std::__ndk1::hash<std::__ndk1::__hash_value_type>, std::__ndk1::equal_to<std::__ndk1::__hash_value_type>, true>, std::__ndk1::__unordered_map_equal<std::__ndk1::__hash_value_type, void*, std::__ndk1::equal_to, std::__ndk1::hash, true>, std::__ndk1::allocator<void*> >*)
FUNC ab3f4 28 0 std::__ndk1::unique_ptr<std::__ndk1::__hash_node_base<std::__ndk1::__hash_node<std::__ndk1::__hash_value_type<void*, bool>, void*>*>* [], std::__ndk1::__bucket_list_deallocator<std::__ndk1::allocator<std::__ndk1::__hash_node_base<std::__ndk1::__hash_node<std::__ndk1::__hash_value_type<void*, bool>, void*>*>*> > >::~unique_ptr[abi:v170000]()
FUNC ab41c 28 0 std::__ndk1::__hash_table<std::__ndk1::__hash_value_type<void*, bool>, std::__ndk1::__unordered_map_hasher<void*, std::__ndk1::__hash_value_type<void*, bool>, std::__ndk1::hash<void*>, std::__ndk1::equal_to<void*>, true>, std::__ndk1::__unordered_map_equal<void*, std::__ndk1::__hash_value_type<void*, bool>, std::__ndk1::equal_to<void*>, std::__ndk1::hash<void*>, true>, std::__ndk1::allocator<std::__ndk1::__hash_value_type<void*, bool> > >::__node_alloc[abi:v170000]()
FUNC ab444 24 0 std::__ndk1::__hash_node_base<std::__ndk1::__hash_node<std::__ndk1::__hash_value_type<void*, bool>, void*>*>::__upcast[abi:v170000]()
FUNC ab468 28 0 std::__ndk1::allocator_traits<std::__ndk1::allocator<std::__ndk1::__hash_node<std::__ndk1::__hash_value_type<void*, bool>, void*> > >::destroy[abi:v170000]<std::__ndk1::pair<void* const, bool>, void, void>(std::__ndk1::allocator<std::__ndk1::__hash_node<std::__ndk1::__hash_value_type<void*, bool>, void*> >&, std::__ndk1::pair<void* const, bool>*)
FUNC ab490 24 0 std::__ndk1::__hash_key_value_types<std::__ndk1::__hash_value_type<void*, bool> >::__get_ptr[abi:v170000](std::__ndk1::__hash_value_type<void*, bool>&)
FUNC ab4b4 34 0 std::__ndk1::allocator_traits<std::__ndk1::allocator<std::__ndk1::__hash_node<std::__ndk1::__hash_value_type<void*, bool>, void*> > >::deallocate[abi:v170000](std::__ndk1::allocator<std::__ndk1::__hash_node<std::__ndk1::__hash_value_type<void*, bool>, void*> >&, std::__ndk1::__hash_node<std::__ndk1::__hash_value_type<void*, bool>, void*>*, unsigned long)
FUNC ab4e8 24 0 std::__ndk1::__compressed_pair<std::__ndk1::__hash_node_base<std::__ndk1::__hash_node<std::__ndk1::__hash_value_type<void*, bool>, void*>*>, std::__ndk1::allocator<std::__ndk1::__hash_node<std::__ndk1::__hash_value_type<void*, bool>, void*> > >::second[abi:v170000]()
FUNC ab50c 14 0 std::__ndk1::__compressed_pair_elem<std::__ndk1::allocator<std::__ndk1::__hash_node<std::__ndk1::__hash_value_type<void*, bool>, void*> >, 1, true>::__get[abi:v170000]()
FUNC ab520 14 0 std::__ndk1::pointer_traits<std::__ndk1::__hash_node_base<std::__ndk1::__hash_node<std::__ndk1::__hash_value_type<void*, bool>, void*>*>*>::pointer_to[abi:v170000](std::__ndk1::__hash_node_base<std::__ndk1::__hash_node<std::__ndk1::__hash_value_type<void*, bool>, void*>*>&)
FUNC ab534 24 0 std::__ndk1::destroy_at[abi:v170000]<std::__ndk1::pair<void* const, bool>, 0>(std::__ndk1::pair<void* const, bool>*)
FUNC ab558 10 0 std::__ndk1::__destroy_at[abi:v170000]<std::__ndk1::pair<void* const, bool>, 0>(std::__ndk1::pair<void* const, bool>*)
FUNC ab568 24 0 std::__ndk1::__hash_value_type<void*, bool>::__get_value[abi:v170000]()
FUNC ab58c 24 0 std::__ndk1::launder[abi:v170000]<std::__ndk1::pair<void* const, bool> >(std::__ndk1::pair<void* const, bool>)
FUNC ab5b0 14 0 std::__ndk1::__launder[abi:v170000]<std::__ndk1::pair<void* const, bool> >(std::__ndk1::pair<void* const, bool>)
FUNC ab5c4 40 0 std::__ndk1::allocator<std::__ndk1::__hash_node<std::__ndk1::__hash_value_type<void*, bool>, void*> >::deallocate[abi:v170000](std::__ndk1::__hash_node<std::__ndk1::__hash_value_type<void*, bool>, void*>*, unsigned long)
FUNC ab604 14 0 std::__ndk1::__compressed_pair_elem<std::__ndk1::__hash_node_base<std::__ndk1::__hash_node<std::__ndk1::__hash_value_type<void*, bool>, void*>*>, 0, false>::__get[abi:v170000]()
FUNC ab618 6c 0 std::__ndk1::unique_ptr<std::__ndk1::__hash_node_base<std::__ndk1::__hash_node<std::__ndk1::__hash_value_type<void*, bool>, void*>*>* [], std::__ndk1::__bucket_list_deallocator<std::__ndk1::allocator<std::__ndk1::__hash_node_base<std::__ndk1::__hash_node<std::__ndk1::__hash_value_type<void*, bool>, void*>*>*> > >::reset[abi:v170000](std::nullptr_t)
FUNC ab684 24 0 std::__ndk1::__compressed_pair<std::__ndk1::__hash_node_base<std::__ndk1::__hash_node<std::__ndk1::__hash_value_type<void*, bool>, void*>*>**, std::__ndk1::__bucket_list_deallocator<std::__ndk1::allocator<std::__ndk1::__hash_node_base<std::__ndk1::__hash_node<std::__ndk1::__hash_value_type<void*, bool>, void*>*>*> > >::first[abi:v170000]()
FUNC ab6a8 28 0 std::__ndk1::__compressed_pair<std::__ndk1::__hash_node_base<std::__ndk1::__hash_node<std::__ndk1::__hash_value_type<void*, bool>, void*>*>**, std::__ndk1::__bucket_list_deallocator<std::__ndk1::allocator<std::__ndk1::__hash_node_base<std::__ndk1::__hash_node<std::__ndk1::__hash_value_type<void*, bool>, void*>*>*> > >::second[abi:v170000]()
FUNC ab6d0 58 0 std::__ndk1::__bucket_list_deallocator<std::__ndk1::allocator<std::__ndk1::__hash_node_base<std::__ndk1::__hash_node<std::__ndk1::__hash_value_type<void*, bool>, void*>*>*> >::operator()[abi:v170000](std::__ndk1::__hash_node_base<std::__ndk1::__hash_node<std::__ndk1::__hash_value_type<void*, bool>, void*>*>**)
FUNC ab728 14 0 std::__ndk1::__compressed_pair_elem<std::__ndk1::__hash_node_base<std::__ndk1::__hash_node<std::__ndk1::__hash_value_type<void*, bool>, void*>*>**, 0, false>::__get[abi:v170000]()
FUNC ab73c 14 0 std::__ndk1::__compressed_pair_elem<std::__ndk1::__bucket_list_deallocator<std::__ndk1::allocator<std::__ndk1::__hash_node_base<std::__ndk1::__hash_node<std::__ndk1::__hash_value_type<void*, bool>, void*>*>*> >, 1, false>::__get[abi:v170000]()
FUNC ab750 34 0 std::__ndk1::allocator_traits<std::__ndk1::allocator<std::__ndk1::__hash_node_base<std::__ndk1::__hash_node<std::__ndk1::__hash_value_type<void*, bool>, void*>*>*> >::deallocate[abi:v170000](std::__ndk1::allocator<std::__ndk1::__hash_node_base<std::__ndk1::__hash_node<std::__ndk1::__hash_value_type<void*, bool>, void*>*>*>&, std::__ndk1::__hash_node_base<std::__ndk1::__hash_node<std::__ndk1::__hash_value_type<void*, bool>, void*>*>**, unsigned long)
FUNC ab784 24 0 std::__ndk1::__bucket_list_deallocator<std::__ndk1::allocator<std::__ndk1::__hash_node_base<std::__ndk1::__hash_node<std::__ndk1::__hash_value_type<void*, bool>, void*>*>*> >::__alloc[abi:v170000]()
FUNC ab7a8 24 0 std::__ndk1::__bucket_list_deallocator<std::__ndk1::allocator<std::__ndk1::__hash_node_base<std::__ndk1::__hash_node<std::__ndk1::__hash_value_type<void*, bool>, void*>*>*> >::size[abi:v170000]()
FUNC ab7cc 40 0 std::__ndk1::allocator<std::__ndk1::__hash_node_base<std::__ndk1::__hash_node<std::__ndk1::__hash_value_type<void*, bool>, void*>*>*>::deallocate[abi:v170000](std::__ndk1::__hash_node_base<std::__ndk1::__hash_node<std::__ndk1::__hash_value_type<void*, bool>, void*>*>**, unsigned long)
FUNC ab80c 24 0 std::__ndk1::__compressed_pair<unsigned long, std::__ndk1::allocator<std::__ndk1::__hash_node_base<std::__ndk1::__hash_node<std::__ndk1::__hash_value_type<void*, bool>, void*>*>*> >::second[abi:v170000]()
FUNC ab830 14 0 std::__ndk1::__compressed_pair_elem<std::__ndk1::allocator<std::__ndk1::__hash_node_base<std::__ndk1::__hash_node<std::__ndk1::__hash_value_type<void*, bool>, void*>*>*>, 1, true>::__get[abi:v170000]()
FUNC ab844 24 0 std::__ndk1::__compressed_pair<unsigned long, std::__ndk1::allocator<std::__ndk1::__hash_node_base<std::__ndk1::__hash_node<std::__ndk1::__hash_value_type<void*, bool>, void*>*>*> >::first[abi:v170000]()
FUNC ab868 4f4 0 std::__ndk1::__hash_table<std::__ndk1::__hash_value_type<void*, bool>, std::__ndk1::__unordered_map_hasher<void*, std::__ndk1::__hash_value_type<void*, bool>, std::__ndk1::hash<void*>, std::__ndk1::equal_to<void*>, true>, std::__ndk1::__unordered_map_equal<void*, std::__ndk1::__hash_value_type<void*, bool>, std::__ndk1::equal_to<void*>, std::__ndk1::hash<void*>, true>, std::__ndk1::allocator<std::__ndk1::__hash_value_type<void*, bool> > >::__emplace_unique_key_args<void*, std::__ndk1::piecewise_construct_t const&, std::__ndk1::tuple<void* const&>, std::__ndk1::tuple<> >(void* const&, std::__ndk1::piecewise_construct_t const&, std::__ndk1::tuple<void* const&>, std::__ndk1::tuple<>)
FUNC abd5c 60 0 std::__ndk1::forward_as_tuple[abi:v170000]<void* const&>(void* const&)
FUNC abdbc 30 0 std::__ndk1::__hash_iterator<std::__ndk1::__hash_node<std::__ndk1::__hash_value_type<void*, bool>, void*>*>::operator->[abi:v170000]() const
FUNC abdec 28 0 std::__ndk1::__hash_table<std::__ndk1::__hash_value_type<void*, bool>, std::__ndk1::__unordered_map_hasher<void*, std::__ndk1::__hash_value_type<void*, bool>, std::__ndk1::hash<void*>, std::__ndk1::equal_to<void*>, true>, std::__ndk1::__unordered_map_equal<void*, std::__ndk1::__hash_value_type<void*, bool>, std::__ndk1::equal_to<void*>, std::__ndk1::hash<void*>, true>, std::__ndk1::allocator<std::__ndk1::__hash_value_type<void*, bool> > >::hash_function[abi:v170000]()
FUNC abe14 30 0 std::__ndk1::__unordered_map_hasher<void*, std::__ndk1::__hash_value_type<void*, bool>, std::__ndk1::hash<void*>, std::__ndk1::equal_to<void*>, true>::operator()[abi:v170000](void* const&) const
FUNC abe44 28 0 std::__ndk1::__hash_table<std::__ndk1::__hash_value_type<void*, bool>, std::__ndk1::__unordered_map_hasher<void*, std::__ndk1::__hash_value_type<void*, bool>, std::__ndk1::hash<void*>, std::__ndk1::equal_to<void*>, true>, std::__ndk1::__unordered_map_equal<void*, std::__ndk1::__hash_value_type<void*, bool>, std::__ndk1::equal_to<void*>, std::__ndk1::hash<void*>, true>, std::__ndk1::allocator<std::__ndk1::__hash_value_type<void*, bool> > >::bucket_count[abi:v170000]() const
FUNC abe6c 98 0 std::__ndk1::__constrain_hash[abi:v170000](unsigned long, unsigned long)
FUNC abf04 34 0 std::__ndk1::unique_ptr<std::__ndk1::__hash_node_base<std::__ndk1::__hash_node<std::__ndk1::__hash_value_type<void*, bool>, void*>*>* [], std::__ndk1::__bucket_list_deallocator<std::__ndk1::allocator<std::__ndk1::__hash_node_base<std::__ndk1::__hash_node<std::__ndk1::__hash_value_type<void*, bool>, void*>*>*> > >::operator[][abi:v170000](unsigned long) const
FUNC abf38 18 0 std::__ndk1::__hash_node_base<std::__ndk1::__hash_node<std::__ndk1::__hash_value_type<void*, bool>, void*>*>::__hash[abi:v170000]() const
FUNC abf50 28 0 std::__ndk1::__hash_table<std::__ndk1::__hash_value_type<void*, bool>, std::__ndk1::__unordered_map_hasher<void*, std::__ndk1::__hash_value_type<void*, bool>, std::__ndk1::hash<void*>, std::__ndk1::equal_to<void*>, true>, std::__ndk1::__unordered_map_equal<void*, std::__ndk1::__hash_value_type<void*, bool>, std::__ndk1::equal_to<void*>, std::__ndk1::hash<void*>, true>, std::__ndk1::allocator<std::__ndk1::__hash_value_type<void*, bool> > >::key_eq[abi:v170000]()
FUNC abf78 48 0 std::__ndk1::__unordered_map_equal<void*, std::__ndk1::__hash_value_type<void*, bool>, std::__ndk1::equal_to<void*>, std::__ndk1::hash<void*>, true>::operator()[abi:v170000](std::__ndk1::__hash_value_type<void*, bool> const&, void* const&) const
FUNC abfc0 190 0 std::__ndk1::__hash_table<std::__ndk1::__hash_value_type<void*, bool>, std::__ndk1::__unordered_map_hasher<void*, std::__ndk1::__hash_value_type<void*, bool>, std::__ndk1::hash<void*>, std::__ndk1::equal_to<void*>, true>, std::__ndk1::__unordered_map_equal<void*, std::__ndk1::__hash_value_type<void*, bool>, std::__ndk1::equal_to<void*>, std::__ndk1::hash<void*>, true>, std::__ndk1::allocator<std::__ndk1::__hash_value_type<void*, bool> > >::__construct_node_hash<std::__ndk1::piecewise_construct_t const&, std::__ndk1::tuple<void* const&>, std::__ndk1::tuple<> >(unsigned long, std::__ndk1::piecewise_construct_t const&, std::__ndk1::tuple<void* const&>&&, std::__ndk1::tuple<>)
FUNC ac150 28 0 std::__ndk1::__hash_table<std::__ndk1::__hash_value_type<void*, bool>, std::__ndk1::__unordered_map_hasher<void*, std::__ndk1::__hash_value_type<void*, bool>, std::__ndk1::hash<void*>, std::__ndk1::equal_to<void*>, true>, std::__ndk1::__unordered_map_equal<void*, std::__ndk1::__hash_value_type<void*, bool>, std::__ndk1::equal_to<void*>, std::__ndk1::hash<void*>, true>, std::__ndk1::allocator<std::__ndk1::__hash_value_type<void*, bool> > >::size[abi:v170000]()
FUNC ac178 28 0 std::__ndk1::__hash_table<std::__ndk1::__hash_value_type<void*, bool>, std::__ndk1::__unordered_map_hasher<void*, std::__ndk1::__hash_value_type<void*, bool>, std::__ndk1::hash<void*>, std::__ndk1::equal_to<void*>, true>, std::__ndk1::__unordered_map_equal<void*, std::__ndk1::__hash_value_type<void*, bool>, std::__ndk1::equal_to<void*>, std::__ndk1::hash<void*>, true>, std::__ndk1::allocator<std::__ndk1::__hash_value_type<void*, bool> > >::max_load_factor[abi:v170000]()
FUNC ac1a0 2c 0 std::__ndk1::__hash_table<std::__ndk1::__hash_value_type<void*, bool>, std::__ndk1::__unordered_map_hasher<void*, std::__ndk1::__hash_value_type<void*, bool>, std::__ndk1::hash<void*>, std::__ndk1::equal_to<void*>, true>, std::__ndk1::__unordered_map_equal<void*, std::__ndk1::__hash_value_type<void*, bool>, std::__ndk1::equal_to<void*>, std::__ndk1::hash<void*>, true>, std::__ndk1::allocator<std::__ndk1::__hash_value_type<void*, bool> > >::__rehash_unique[abi:v170000](unsigned long)
FUNC ac1cc 50 0 std::__ndk1::__is_hash_power2[abi:v170000](unsigned long)
FUNC ac21c 18 0 ceil([abi:v170000], float)
FUNC ac234 24 0 std::__ndk1::__hash_node_base<std::__ndk1::__hash_node<std::__ndk1::__hash_value_type<void*, bool>, void*>*>::__ptr[abi:v170000]()
FUNC ac258 28 0 std::__ndk1::unique_ptr<std::__ndk1::__hash_node<std::__ndk1::__hash_value_type<void*, bool>, void*>, std::__ndk1::__hash_node_destructor<std::__ndk1::allocator<std::__ndk1::__hash_node<std::__ndk1::__hash_value_type<void*, bool>, void*> > > >::operator->[abi:v170000]() const
FUNC ac280 28 0 std::__ndk1::unique_ptr<std::__ndk1::__hash_node<std::__ndk1::__hash_value_type<void*, bool>, void*>, std::__ndk1::__hash_node_destructor<std::__ndk1::allocator<std::__ndk1::__hash_node<std::__ndk1::__hash_value_type<void*, bool>, void*> > > >::get[abi:v170000]() const
FUNC ac2a8 44 0 std::__ndk1::unique_ptr<std::__ndk1::__hash_node<std::__ndk1::__hash_value_type<void*, bool>, void*>, std::__ndk1::__hash_node_destructor<std::__ndk1::allocator<std::__ndk1::__hash_node<std::__ndk1::__hash_value_type<void*, bool>, void*> > > >::release[abi:v170000]()
FUNC ac2ec 28 0 std::__ndk1::unique_ptr<std::__ndk1::__hash_node<std::__ndk1::__hash_value_type<void*, bool>, void*>, std::__ndk1::__hash_node_destructor<std::__ndk1::allocator<std::__ndk1::__hash_node<std::__ndk1::__hash_value_type<void*, bool>, void*> > > >::~unique_ptr[abi:v170000]()
FUNC ac314 24 0 std::__ndk1::__hash_iterator<std::__ndk1::__hash_node<std::__ndk1::__hash_value_type<void*, bool>, void*>*>::__hash_iterator[abi:v170000](std::__ndk1::__hash_node_base<std::__ndk1::__hash_node<std::__ndk1::__hash_value_type<void*, bool>, void*>*>*, void const*)
FUNC ac338 38 0 std::__ndk1::pair<std::__ndk1::__hash_iterator<std::__ndk1::__hash_node<std::__ndk1::__hash_value_type<void*, bool>, void*>*>, bool>::pair[abi:v170000]<std::__ndk1::__hash_iterator<std::__ndk1::__hash_node<std::__ndk1::__hash_value_type<void*, bool>, void*>*>, bool&, (void*)0>(bool&)
FUNC ac370 24 0 std::__ndk1::__compressed_pair<unsigned long, std::__ndk1::__unordered_map_hasher<void*, std::__ndk1::__hash_value_type<void*, bool>, std::__ndk1::hash<void*>, std::__ndk1::equal_to<void*>, true> >::second[abi:v170000]()
FUNC ac394 14 0 std::__ndk1::__compressed_pair_elem<std::__ndk1::__unordered_map_hasher<void*, std::__ndk1::__hash_value_type<void*, bool>, std::__ndk1::hash<void*>, std::__ndk1::equal_to<void*>, true>, 1, true>::__get[abi:v170000]()
FUNC ac3a8 74 0 std::__ndk1::hash<void*>::operator()[abi:v170000](void*) const
FUNC ac41c 408 0 std::__ndk1::__murmur2_or_cityhash<unsigned long, (unsigned long)64>::operator()(void const*, unsigned long)
FUNC ac824 1c0 0 std::__ndk1::__murmur2_or_cityhash<unsigned long, (unsigned long)64>::__hash_len_0_to_16(char const*, unsigned long)
FUNC ac9e4 130 0 std::__ndk1::__murmur2_or_cityhash<unsigned long, (unsigned long)64>::__hash_len_17_to_32(char const*, unsigned long)
FUNC acb14 2b8 0 std::__ndk1::__murmur2_or_cityhash<unsigned long, (unsigned long)64>::__hash_len_33_to_64(char const*, unsigned long)
FUNC acdcc 84 0 std::__ndk1::__loadword[abi:v170000]<unsigned long>(void const*)
FUNC ace50 80 0 std::__ndk1::__murmur2_or_cityhash<unsigned long, (unsigned long)64>::__hash_len_16(unsigned long, unsigned long)
FUNC aced0 88 0 std::__ndk1::__murmur2_or_cityhash<unsigned long, (unsigned long)64>::__weak_hash_len_32_with_seeds(char const*, unsigned long, unsigned long)
FUNC acf58 64 0 std::__ndk1::__murmur2_or_cityhash<unsigned long, (unsigned long)64>::__rotate(unsigned long, int)
FUNC acfbc 30 0 std::__ndk1::pair<unsigned long, unsigned long>::operator=[abi:v170000](std::__ndk1::pair<unsigned long, unsigned long>&&)
FUNC acfec 3c 0 std::__ndk1::swap[abi:v170000]<unsigned long>(std::__ndk1::enable_if&, std::__ndk1::enable_if<(is_move_constructible<unsigned long>::value)&&(is_move_assignable<std::__ndk1::enable_if>::value), void>::type)
FUNC ad028 1c 0 std::__ndk1::__murmur2_or_cityhash<unsigned long, (unsigned long)64>::__shift_mix(unsigned long)
FUNC ad044 38 0 std::__ndk1::__murmur2_or_cityhash<unsigned long, (unsigned long)64>::__rotate_by_at_least_1(unsigned long, int)
FUNC ad07c 84 0 std::__ndk1::__loadword[abi:v170000]<unsigned int>(void const*)
FUNC ad100 114 0 std::__ndk1::__murmur2_or_cityhash<unsigned long, (unsigned long)64>::__weak_hash_len_32_with_seeds(unsigned long, unsigned long, unsigned long, unsigned long, unsigned long, unsigned long)
FUNC ad214 34 0 std::__ndk1::pair<unsigned long, unsigned long>::pair[abi:v170000]<unsigned long, unsigned long, (void*)0>(unsigned long&&)
FUNC ad248 24 0 std::__ndk1::unique_ptr<std::__ndk1::__hash_node_base<std::__ndk1::__hash_node<std::__ndk1::__hash_value_type<void*, bool>, void*>*>* [], std::__ndk1::__bucket_list_deallocator<std::__ndk1::allocator<std::__ndk1::__hash_node_base<std::__ndk1::__hash_node<std::__ndk1::__hash_value_type<void*, bool>, void*>*>*> > >::get_deleter[abi:v170000]() const
FUNC ad26c 28 0 std::__ndk1::__bucket_list_deallocator<std::__ndk1::allocator<std::__ndk1::__hash_node_base<std::__ndk1::__hash_node<std::__ndk1::__hash_value_type<void*, bool>, void*>*>*> >::size[abi:v170000]() const
FUNC ad294 28 0 std::__ndk1::__compressed_pair<std::__ndk1::__hash_node_base<std::__ndk1::__hash_node<std::__ndk1::__hash_value_type<void*, bool>, void*>*>**, std::__ndk1::__bucket_list_deallocator<std::__ndk1::allocator<std::__ndk1::__hash_node_base<std::__ndk1::__hash_node<std::__ndk1::__hash_value_type<void*, bool>, void*>*>*> > >::second[abi:v170000]() const
FUNC ad2bc 14 0 std::__ndk1::__compressed_pair_elem<std::__ndk1::__bucket_list_deallocator<std::__ndk1::allocator<std::__ndk1::__hash_node_base<std::__ndk1::__hash_node<std::__ndk1::__hash_value_type<void*, bool>, void*>*>*> >, 1, false>::__get[abi:v170000]() const
FUNC ad2d0 24 0 std::__ndk1::__compressed_pair<unsigned long, std::__ndk1::allocator<std::__ndk1::__hash_node_base<std::__ndk1::__hash_node<std::__ndk1::__hash_value_type<void*, bool>, void*>*>*> >::first[abi:v170000]() const
FUNC ad2f4 14 0 std::__ndk1::__compressed_pair_elem<unsigned long, 0, false>::__get[abi:v170000]() const
FUNC ad308 24 0 std::__ndk1::__compressed_pair<std::__ndk1::__hash_node_base<std::__ndk1::__hash_node<std::__ndk1::__hash_value_type<void*, bool>, void*>*>**, std::__ndk1::__bucket_list_deallocator<std::__ndk1::allocator<std::__ndk1::__hash_node_base<std::__ndk1::__hash_node<std::__ndk1::__hash_value_type<void*, bool>, void*>*>*> > >::first[abi:v170000]() const
FUNC ad32c 14 0 std::__ndk1::__compressed_pair_elem<std::__ndk1::__hash_node_base<std::__ndk1::__hash_node<std::__ndk1::__hash_value_type<void*, bool>, void*>*>**, 0, false>::__get[abi:v170000]() const
FUNC ad340 24 0 std::__ndk1::__compressed_pair<float, std::__ndk1::__unordered_map_equal<void*, std::__ndk1::__hash_value_type<void*, bool>, std::__ndk1::equal_to<void*>, std::__ndk1::hash<void*>, true> >::second[abi:v170000]()
FUNC ad364 14 0 std::__ndk1::__compressed_pair_elem<std::__ndk1::__unordered_map_equal<void*, std::__ndk1::__hash_value_type<void*, bool>, std::__ndk1::equal_to<void*>, std::__ndk1::hash<void*>, true>, 1, true>::__get[abi:v170000]()
FUNC ad378 34 0 std::__ndk1::equal_to<void*>::operator()[abi:v170000](void* const&, void* const) const
FUNC ad3ac 24 0 std::__ndk1::__hash_value_type<void*, bool>::__get_value[abi:v170000]() const
FUNC ad3d0 24 0 std::__ndk1::launder[abi:v170000]<std::__ndk1::pair<void* const, bool> const>(std::__ndk1::pair<void* const, bool> const)
FUNC ad3f4 14 0 std::__ndk1::__launder[abi:v170000]<std::__ndk1::pair<void* const, bool> const>(std::__ndk1::pair<void* const, bool> const)
FUNC ad408 2c 0 std::__ndk1::allocator_traits<std::__ndk1::allocator<std::__ndk1::__hash_node<std::__ndk1::__hash_value_type<void*, bool>, void*> > >::allocate[abi:v170000](std::__ndk1::allocator<std::__ndk1::__hash_node<std::__ndk1::__hash_value_type<void*, bool>, void*> >&, unsigned long)
FUNC ad434 38 0 std::__ndk1::__hash_node_destructor<std::__ndk1::allocator<std::__ndk1::__hash_node<std::__ndk1::__hash_value_type<void*, bool>, void*> > >::__hash_node_destructor[abi:v170000](std::__ndk1::allocator<std::__ndk1::__hash_node<std::__ndk1::__hash_value_type<void*, bool>, void*> >&, bool)
FUNC ad46c 64 0 std::__ndk1::unique_ptr<std::__ndk1::__hash_node<std::__ndk1::__hash_value_type<void*, bool>, void*>, std::__ndk1::__hash_node_destructor<std::__ndk1::allocator<std::__ndk1::__hash_node<std::__ndk1::__hash_value_type<void*, bool>, void*> > > >::unique_ptr[abi:v170000]<true, void>(std::__ndk1::__dependent_type<std::__ndk1::__unique_ptr_deleter_sfinae<std::__ndk1::__hash_node_destructor<std::__ndk1::allocator<std::__ndk1::__hash_node<std::__ndk1::__hash_value_type<void*, bool>, void*> > > >, true>::__good_rval_ref_type)
FUNC ad4d0 40 0 std::__ndk1::allocator_traits<std::__ndk1::allocator<std::__ndk1::__hash_node<std::__ndk1::__hash_value_type<void*, bool>, void*> > >::construct[abi:v170000]<std::__ndk1::pair<void* const, bool>, std::__ndk1::piecewise_construct_t const&, std::__ndk1::tuple<std::__ndk1::pair&>, std::__ndk1::piecewise_construct_t const&<>, void, void>(std::__ndk1::allocator<std::__ndk1::__hash_node<std::__ndk1::__hash_value_type<void*, bool>, void*> >&, std::__ndk1::pair<void* const, bool>*, std::__ndk1::piecewise_construct_t const&, std::__ndk1::tuple<std::__ndk1::pair&>, std::__ndk1::piecewise_construct_t const&<>)
FUNC ad510 24 0 std::__ndk1::unique_ptr<std::__ndk1::__hash_node<std::__ndk1::__hash_value_type<void*, bool>, void*>, std::__ndk1::__hash_node_destructor<std::__ndk1::allocator<std::__ndk1::__hash_node<std::__ndk1::__hash_value_type<void*, bool>, void*> > > >::get_deleter[abi:v170000]()
FUNC ad534 58 0 std::__ndk1::allocator<std::__ndk1::__hash_node<std::__ndk1::__hash_value_type<void*, bool>, void*> >::allocate[abi:v170000](unsigned long)
FUNC ad58c 28 0 std::__ndk1::allocator_traits<std::__ndk1::allocator<std::__ndk1::__hash_node<std::__ndk1::__hash_value_type<void*, bool>, void*> > >::max_size[abi:v170000]<std::__ndk1::allocator<std::__ndk1::__hash_node<std::__ndk1::__hash_value_type<void*, bool>, void*> >, void, void>(std::__ndk1::allocator<std::__ndk1::__hash_node<std::__ndk1::__hash_value_type<void*, bool>, void*> > const&)
FUNC ad5b4 44 0 std::__ndk1::__compressed_pair<std::__ndk1::__hash_node<std::__ndk1::__hash_value_type<void*, bool>, void*>*, std::__ndk1::__hash_node_destructor<std::__ndk1::allocator<std::__ndk1::__hash_node<std::__ndk1::__hash_value_type<void*, bool>, void*> > > >::__compressed_pair[abi:v170000]<std::__ndk1::__hash_node<std::__ndk1::__hash_value_type<void*, bool>, void*>*&, std::__ndk1::__hash_node_destructor<std::__ndk1::allocator<std::__ndk1::__hash_node<std::__ndk1::__hash_value_type<void*, bool>, void*> > > >(std::__ndk1::__hash_node_destructor<std::__ndk1::allocator<std::__ndk1::__hash_node<std::__ndk1::__hash_value_type<void*, bool>, void*> > >&&)
FUNC ad5f8 24 0 std::__ndk1::__compressed_pair_elem<std::__ndk1::__hash_node<std::__ndk1::__hash_value_type<void*, bool>, void*>*, 0, false>::__compressed_pair_elem[abi:v170000]<std::__ndk1::__hash_node<std::__ndk1::__hash_value_type<void*, bool>, void*>*&, void>()
FUNC ad61c 24 0 std::__ndk1::__compressed_pair_elem<std::__ndk1::__hash_node_destructor<std::__ndk1::allocator<std::__ndk1::__hash_node<std::__ndk1::__hash_value_type<void*, bool>, void*> > >, 1, false>::__compressed_pair_elem[abi:v170000]<std::__ndk1::__hash_node_destructor<std::__ndk1::allocator<std::__ndk1::__hash_node<std::__ndk1::__hash_value_type<void*, bool>, void*> > >, void>()
FUNC ad640 88 0 std::__ndk1::construct_at[abi:v170000]<std::__ndk1::pair<void* const, bool>, std::__ndk1::piecewise_construct_t const&, std::__ndk1::tuple<void*&>, std::__ndk1::piecewise_construct_t const&<>, void* const*>(std::__ndk1::pair<void* const, bool>, std::__ndk1::piecewise_construct_t const&, std::__ndk1::tuple<void*&>, std::__ndk1::piecewise_construct_t const&<>)
FUNC ad6c8 74 0 std::__ndk1::pair<void* const, bool>::pair[abi:v170000]<void* const&, >(std::__ndk1::tuple<void* const&>, std::__ndk1::piecewise_construct_t<>)
FUNC ad73c 50 0 std::__ndk1::pair<void* const, bool>::pair[abi:v170000]<void* const&, , (unsigned long)0, >(std::__ndk1::tuple<void* const&>&, std::__ndk1::piecewise_construct_t&<>, std::__ndk1::__tuple_indices<((unsigned long)0)...>, std::__ndk1::piecewise_construct_t&<><()...>)
FUNC ad78c 24 0 std::__ndk1::get[abi:v170000]<(unsigned long)0, void* const&>(void* const&)
FUNC ad7b0 18 0 std::__ndk1::__tuple_leaf<(unsigned long)0, void* const&, false>::get[abi:v170000]()
FUNC ad7c8 28 0 std::__ndk1::__compressed_pair<std::__ndk1::__hash_node<std::__ndk1::__hash_value_type<void*, bool>, void*>*, std::__ndk1::__hash_node_destructor<std::__ndk1::allocator<std::__ndk1::__hash_node<std::__ndk1::__hash_value_type<void*, bool>, void*> > > >::second[abi:v170000]()
FUNC ad7f0 14 0 std::__ndk1::__compressed_pair_elem<std::__ndk1::__hash_node_destructor<std::__ndk1::allocator<std::__ndk1::__hash_node<std::__ndk1::__hash_value_type<void*, bool>, void*> > >, 1, false>::__get[abi:v170000]()
FUNC ad804 24 0 std::__ndk1::__compressed_pair<unsigned long, std::__ndk1::__unordered_map_hasher<void*, std::__ndk1::__hash_value_type<void*, bool>, std::__ndk1::hash<void*>, std::__ndk1::equal_to<void*>, true> >::first[abi:v170000]()
FUNC ad828 24 0 std::__ndk1::__compressed_pair<float, std::__ndk1::__unordered_map_equal<void*, std::__ndk1::__hash_value_type<void*, bool>, std::__ndk1::equal_to<void*>, std::__ndk1::hash<void*>, true> >::first[abi:v170000]()
FUNC ad84c 14 0 std::__ndk1::__compressed_pair_elem<float, 0, false>::__get[abi:v170000]()
FUNC ad860 1b0 0 std::__ndk1::__hash_table<std::__ndk1::__hash_value_type<void*, bool>, std::__ndk1::__unordered_map_hasher<void*, std::__ndk1::__hash_value_type<void*, bool>, std::__ndk1::hash<void*>, std::__ndk1::equal_to<void*>, true>, std::__ndk1::__unordered_map_equal<void*, std::__ndk1::__hash_value_type<void*, bool>, std::__ndk1::equal_to<void*>, std::__ndk1::hash<void*>, true>, std::__ndk1::allocator<std::__ndk1::__hash_value_type<void*, bool> > >::__rehash<true>(unsigned long)
FUNC ada10 290 0 std::__ndk1::__hash_table<std::__ndk1::__hash_value_type<void*, bool>, std::__ndk1::__unordered_map_hasher<void*, std::__ndk1::__hash_value_type<void*, bool>, std::__ndk1::hash<void*>, std::__ndk1::equal_to<void*>, true>, std::__ndk1::__unordered_map_equal<void*, std::__ndk1::__hash_value_type<void*, bool>, std::__ndk1::equal_to<void*>, std::__ndk1::hash<void*>, true>, std::__ndk1::allocator<std::__ndk1::__hash_value_type<void*, bool> > >::__do_rehash<true>(unsigned long)
FUNC adca0 6c 0 std::__ndk1::__next_hash_pow2[abi:v170000](unsigned long)
FUNC add0c 10 0 std::__ndk1::__debug_db_invalidate_all[abi:v170000]<std::__ndk1::__hash_table<std::__ndk1::__hash_value_type<void*, bool>, std::__ndk1::__unordered_map_hasher<std::__ndk1::__hash_value_type, void*, std::__ndk1::hash<std::__ndk1::__hash_value_type>, std::__ndk1::equal_to<std::__ndk1::__hash_value_type>, true>, std::__ndk1::__unordered_map_equal<std::__ndk1::__hash_value_type, void*, std::__ndk1::equal_to, std::__ndk1::hash, true>, std::__ndk1::allocator<void*> > >(std::__ndk1::__hash_table<std::__ndk1::__hash_value_type<void*, bool>, std::__ndk1::__unordered_map_hasher<std::__ndk1::__hash_value_type, void*, std::__ndk1::hash<std::__ndk1::__hash_value_type>, std::__ndk1::equal_to<std::__ndk1::__hash_value_type>, true>, std::__ndk1::__unordered_map_equal<std::__ndk1::__hash_value_type, void*, std::__ndk1::equal_to, std::__ndk1::hash, true>, std::__ndk1::allocator<void*> >*)
FUNC add1c 24 0 std::__ndk1::unique_ptr<std::__ndk1::__hash_node_base<std::__ndk1::__hash_node<std::__ndk1::__hash_value_type<void*, bool>, void*>*>* [], std::__ndk1::__bucket_list_deallocator<std::__ndk1::allocator<std::__ndk1::__hash_node_base<std::__ndk1::__hash_node<std::__ndk1::__hash_value_type<void*, bool>, void*>*>*> > >::get_deleter[abi:v170000]()
FUNC add40 78 0 std::__ndk1::unique_ptr<std::__ndk1::__hash_node_base<std::__ndk1::__hash_node<std::__ndk1::__hash_value_type<void*, bool>, void*>*>* [], std::__ndk1::__bucket_list_deallocator<std::__ndk1::allocator<std::__ndk1::__hash_node_base<std::__ndk1::__hash_node<std::__ndk1::__hash_value_type<void*, bool>, void*>*>*> > >::reset[abi:v170000]<std::__ndk1::__hash_node_base<std::__ndk1::__hash_node<std::__ndk1::__hash_value_type<void*, bool>, void*>*>**>(std::__ndk1::enable_if)
FUNC addb8 2c 0 std::__ndk1::allocator_traits<std::__ndk1::allocator<std::__ndk1::__hash_node_base<std::__ndk1::__hash_node<std::__ndk1::__hash_value_type<void*, bool>, void*>*>*> >::allocate[abi:v170000](std::__ndk1::allocator<std::__ndk1::__hash_node_base<std::__ndk1::__hash_node<std::__ndk1::__hash_value_type<void*, bool>, void*>*>*>&, unsigned long)
FUNC adde4 58 0 std::__ndk1::allocator<std::__ndk1::__hash_node_base<std::__ndk1::__hash_node<std::__ndk1::__hash_value_type<void*, bool>, void*>*>*>::allocate[abi:v170000](unsigned long)
FUNC ade3c 28 0 std::__ndk1::allocator_traits<std::__ndk1::allocator<std::__ndk1::__hash_node_base<std::__ndk1::__hash_node<std::__ndk1::__hash_value_type<void*, bool>, void*>*>*> >::max_size[abi:v170000]<std::__ndk1::allocator<std::__ndk1::__hash_node_base<std::__ndk1::__hash_node<std::__ndk1::__hash_value_type<void*, bool>, void*>*>*>, void, void>(std::__ndk1::allocator<std::__ndk1::__hash_node_base<std::__ndk1::__hash_node<std::__ndk1::__hash_value_type<void*, bool>, void*>*>*> const&)
FUNC ade64 1c 0 std::__ndk1::__libcpp_clz[abi:v170000](unsigned long)
FUNC ade80 24 0 std::__ndk1::__compressed_pair<std::__ndk1::__hash_node<std::__ndk1::__hash_value_type<void*, bool>, void*>*, std::__ndk1::__hash_node_destructor<std::__ndk1::allocator<std::__ndk1::__hash_node<std::__ndk1::__hash_value_type<void*, bool>, void*> > > >::first[abi:v170000]() const
FUNC adea4 14 0 std::__ndk1::__compressed_pair_elem<std::__ndk1::__hash_node<std::__ndk1::__hash_value_type<void*, bool>, void*>*, 0, false>::__get[abi:v170000]() const
FUNC adeb8 24 0 std::__ndk1::__compressed_pair<std::__ndk1::__hash_node<std::__ndk1::__hash_value_type<void*, bool>, void*>*, std::__ndk1::__hash_node_destructor<std::__ndk1::allocator<std::__ndk1::__hash_node<std::__ndk1::__hash_value_type<void*, bool>, void*> > > >::first[abi:v170000]()
FUNC adedc 14 0 std::__ndk1::__compressed_pair_elem<std::__ndk1::__hash_node<std::__ndk1::__hash_value_type<void*, bool>, void*>*, 0, false>::__get[abi:v170000]()
FUNC adef0 78 0 std::__ndk1::unique_ptr<std::__ndk1::__hash_node<std::__ndk1::__hash_value_type<void*, bool>, void*>, std::__ndk1::__hash_node_destructor<std::__ndk1::allocator<std::__ndk1::__hash_node<std::__ndk1::__hash_value_type<void*, bool>, void*> > > >::reset[abi:v170000](std::__ndk1::__hash_node<std::__ndk1::__hash_value_type<void*, bool>, void*>*)
FUNC adf68 98 0 std::__ndk1::__hash_node_destructor<std::__ndk1::allocator<std::__ndk1::__hash_node<std::__ndk1::__hash_value_type<void*, bool>, void*> > >::operator()[abi:v170000](std::__ndk1::__hash_node<std::__ndk1::__hash_value_type<void*, bool>, void*>*)
FUNC ae000 3c 0 std::__ndk1::tuple<void* const&>::tuple[abi:v170000]<std::__ndk1::_And, 0>()
FUNC ae03c 3c 0 std::__ndk1::__tuple_impl<std::__ndk1::__tuple_indices<(unsigned long)0>, void* const&>::__tuple_impl[abi:v170000]<(unsigned long)0, void* const&, , , void* const&>(std::__ndk1::__tuple_types<void* const&>, std::__ndk1::__tuple_indices<()...>, std::__ndk1::__tuple_indices<((unsigned long)0)...><>, void* const&)
FUNC ae078 20 0 std::__ndk1::__tuple_leaf<(unsigned long)0, void* const&, false>::__tuple_leaf[abi:v170000]<void* const&, void>()
FUNC ae098 14 0 std::__ndk1::pointer_traits<std::__ndk1::__hash_value_type<void*, bool>*>::pointer_to[abi:v170000](std::__ndk1::__hash_value_type<void*, bool>&)
FUNC ae0ac c8 0 std::__ndk1::__hash_table<std::__ndk1::__hash_value_type<void*, bool>, std::__ndk1::__unordered_map_hasher<void*, std::__ndk1::__hash_value_type<void*, bool>, std::__ndk1::hash<void*>, std::__ndk1::equal_to<void*>, true>, std::__ndk1::__unordered_map_equal<void*, std::__ndk1::__hash_value_type<void*, bool>, std::__ndk1::equal_to<void*>, std::__ndk1::hash<void*>, true>, std::__ndk1::allocator<std::__ndk1::__hash_value_type<void*, bool> > >::__erase_unique<void*>(void* const&)
FUNC ae174 1d0 0 std::__ndk1::__hash_table<std::__ndk1::__hash_value_type<void*, bool>, std::__ndk1::__unordered_map_hasher<void*, std::__ndk1::__hash_value_type<void*, bool>, std::__ndk1::hash<void*>, std::__ndk1::equal_to<void*>, true>, std::__ndk1::__unordered_map_equal<void*, std::__ndk1::__hash_value_type<void*, bool>, std::__ndk1::equal_to<void*>, std::__ndk1::hash<void*>, true>, std::__ndk1::allocator<std::__ndk1::__hash_value_type<void*, bool> > >::find<void*>(void* const&)
FUNC ae344 30 0 std::__ndk1::operator==[abi:v170000](std::__ndk1::__hash_iterator<std::__ndk1::__hash_node<std::__ndk1::__hash_value_type<void*, bool>, std::__ndk1::__hash_value_type>*> const&, std::__ndk1::__hash_iterator<std::__ndk1::__hash_node<std::__ndk1::__hash_value_type<void*, bool>, std::__ndk1::__hash_value_type>*> const)
FUNC ae374 64 0 std::__ndk1::__hash_table<std::__ndk1::__hash_value_type<void*, bool>, std::__ndk1::__unordered_map_hasher<void*, std::__ndk1::__hash_value_type<void*, bool>, std::__ndk1::hash<void*>, std::__ndk1::equal_to<void*>, true>, std::__ndk1::__unordered_map_equal<void*, std::__ndk1::__hash_value_type<void*, bool>, std::__ndk1::equal_to<void*>, std::__ndk1::hash<void*>, true>, std::__ndk1::allocator<std::__ndk1::__hash_value_type<void*, bool> > >::end()
FUNC ae3d8 a4 0 std::__ndk1::__hash_table<std::__ndk1::__hash_value_type<void*, bool>, std::__ndk1::__unordered_map_hasher<void*, std::__ndk1::__hash_value_type<void*, bool>, std::__ndk1::hash<void*>, std::__ndk1::equal_to<void*>, true>, std::__ndk1::__unordered_map_equal<void*, std::__ndk1::__hash_value_type<void*, bool>, std::__ndk1::equal_to<void*>, std::__ndk1::hash<void*>, true>, std::__ndk1::allocator<std::__ndk1::__hash_value_type<void*, bool> > >::erase(std::__ndk1::__hash_const_iterator<std::__ndk1::__hash_node<std::__ndk1::__hash_value_type<void*, bool>, void*>*>)
FUNC ae47c 24 0 std::__ndk1::__hash_const_iterator<std::__ndk1::__hash_node<std::__ndk1::__hash_value_type<void*, bool>, void*>*>::__hash_const_iterator[abi:v170000](std::__ndk1::__hash_iterator<std::__ndk1::__hash_node<std::__ndk1::__hash_value_type<void*, bool>, void*>*> const&)
FUNC ae4a0 20 0 std::__ndk1::__hash_iterator<std::__ndk1::__hash_node<std::__ndk1::__hash_value_type<void*, bool>, void*>*>::operator++[abi:v170000]()
FUNC ae4c0 230 0 std::__ndk1::__hash_table<std::__ndk1::__hash_value_type<void*, bool>, std::__ndk1::__unordered_map_hasher<void*, std::__ndk1::__hash_value_type<void*, bool>, std::__ndk1::hash<void*>, std::__ndk1::equal_to<void*>, true>, std::__ndk1::__unordered_map_equal<void*, std::__ndk1::__hash_value_type<void*, bool>, std::__ndk1::equal_to<void*>, std::__ndk1::hash<void*>, true>, std::__ndk1::allocator<std::__ndk1::__hash_value_type<void*, bool> > >::remove(std::__ndk1::__hash_const_iterator<std::__ndk1::__hash_node<std::__ndk1::__hash_value_type<void*, bool>, void*>*>)
FUNC ae6f0 20 0 tulip::hook::AbstractType::from<cocos2d::CCObject*>()
FUNC ae710 20 0 tulip::hook::AbstractType::from<cocos2d::CCNode*>()
FUNC ae730 24 0 tulip::hook::AbstractType::from<gd::string>()
FUNC ae754 20 0 tulip::hook::AbstractType::from<cocos2d::CCLayer*>()
FUNC ae774 20 0 tulip::hook::AbstractType::from<cocos2d::CCLayerRGBA*>()
FUNC ae794 20 0 tulip::hook::AbstractType::from<cocos2d::CCLayerColor*>()
FUNC ae7b4 24 0 tulip::hook::AbstractType::from<float>()
FUNC ae7d8 20 0 tulip::hook::AbstractType::from<FMODAudioEngine*>()
FUNC ae7f8 40 0 fmt::v11::detail::assert_fail(char const*, int, char const*)
FUNC ae838 74 0 fmt::v11::detail::buffer<char>::try_resize(unsigned long)
FUNC ae8ac 20 0 fmt::v11::detail::is_negative<int, 0>(int)
FUNC ae8cc 50 0 fmt::v11::detail::to_unsigned<int>(int)
FUNC ae91c 24 0 fmt::v11::detail::count_digits(unsigned int)
FUNC ae940 20 0 fmt::v11::basic_appender<char>::basic_appender(fmt::v11::detail::buffer<char>&)
FUNC ae960 18 0 fmt::v11::detail::buffer<char>::size() const
FUNC ae978 54 0 fmt::v11::basic_memory_buffer<char, (unsigned long)500, std::__ndk1::allocator<char> >::basic_memory_buffer(std::__ndk1::allocator<char> const&)
FUNC ae9cc 18 0 fmt::v11::detail::buffer<char>::data()
FUNC ae9e4 2c 0 fmt::v11::basic_memory_buffer<char, (unsigned long)500, std::__ndk1::allocator<char> >::~basic_memory_buffer()
FUNC aea10 1b4 0 fmt::v11::detail::write_loc(fmt::v11::basic_appender<char>, fmt::v11::loc_value, fmt::v11::format_specs const&, fmt::v11::detail::locale_ref)
FUNC aebc4 60 0 fmt::v11::detail::locale_ref::get<std::__ndk1::locale>() const
FUNC aec24 40 0 std::__ndk1::has_facet[abi:v170000]<fmt::v11::format_facet<std::__ndk1::locale> >(fmt::v11::format_facet const&)
FUNC aec64 2c 0 std::__ndk1::use_facet[abi:v170000]<fmt::v11::format_facet<std::__ndk1::locale> >(fmt::v11::format_facet const&)
FUNC aec90 90 0 fmt::v11::format_facet<std::__ndk1::locale>::put(fmt::v11::basic_appender<char>, fmt::v11::loc_value, fmt::v11::format_specs const&) const
FUNC aed20 1a8 0 fmt::v11::format_facet<std::__ndk1::locale>::format_facet(std::__ndk1::locale&)
FUNC aeec8 5c 0 fmt::v11::format_facet<std::__ndk1::locale>::~format_facet()
FUNC aef24 64 0 fmt::v11::report_error(char const*)
FUNC aef88 4c 0 fmt::v11::format_error::runtime_error(char const*)
FUNC aefd4 24 0 fmt::v11::format_error::~format_error()
FUNC aeff8 160 0 fmt::v11::format_facet<std::__ndk1::locale>::do_put(fmt::v11::basic_appender<char>, fmt::v11::loc_value, fmt::v11::format_specs const&) const
FUNC af158 30 0 fmt::v11::loc_value::visit<fmt::v11::detail::loc_writer<char> >(fmt::v11::detail::loc_writer<char>&&)
FUNC af188 44 0 fmt::v11::detail::loc_writer<char>::~loc_writer()
FUNC af1cc 10c 0 fmt::v11::vformat(fmt::v11::basic_string_view<char>, fmt::v11::basic_format_args<fmt::v11::context>)
FUNC af2d8 34 0 fmt::v11::detail::dragonbox::get_cached_power(int)
FUNC af30c 334 0 fmt::v11::detail::dragonbox::cache_accessor<double>::get_cached_power(int)
FUNC af640 ac 0 fmt::v11::detail::write<char, fmt::v11::basic_appender<char> >(fmt::v11::basic_appender<char>, char const*)
FUNC af6ec 54 0 fmt::v11::basic_string_view<char>::basic_string_view(char const*)
FUNC af740 170 0 fmt::v11::detail::vformat_to<char>(fmt::v11::detail::buffer<char>&, fmt::v11::basic_string_view<char>, fmt::v11::detail::vformat_args<char>::type, fmt::v11::detail::locale_ref)
FUNC af8b0 18 0 fmt::v11::detail::locale_ref::locale_ref()
FUNC af8c8 a8 0 fmt::v11::to_string<char, (unsigned long)500>(fmt::v11::basic_memory_buffer<char, (unsigned long)500, std::__ndk1::allocator<char> > const&)
FUNC af970 2c 0 fmt::v11::basic_string_view<char>::basic_string_view(char const*, unsigned long)
FUNC af99c 58 0 fmt::v11::detail::buffer<char>::push_back(char const&)
FUNC af9f4 330 0 fmt::v11::detail::is_printable(unsigned int)
FUNC afd24 238 0 fmt::v11::detail::is_printable(unsigned short, fmt::v11::detail::singleton const*, unsigned long, unsigned char const*, unsigned char const*, unsigned long)
FUNC aff5c 3f8 0 fmt::v11::detail::dragonbox::to_decimal<float>(float)
FUNC b0354 8c 0 fmt::v11::detail::bit_cast<unsigned int, float, 0>(float const&)
FUNC b03e0 1c 0 fmt::v11::detail::exponent_mask<float>()
FUNC b03fc 8 0 fmt::v11::detail::num_significand_bits<float>()
FUNC b0404 8 0 fmt::v11::detail::exponent_bias<float>()
FUNC b040c 1e4 0 fmt::v11::detail::dragonbox::shorter_interval_case<float>(int)
FUNC b05f0 7c 0 fmt::v11::detail::dragonbox::floor_log10_pow2(int)
FUNC b066c 7c 0 fmt::v11::detail::dragonbox::cache_accessor<float>::get_cached_power(int)
FUNC b06e8 7c 0 fmt::v11::detail::dragonbox::floor_log2_pow10(int)
FUNC b0764 30 0 fmt::v11::detail::dragonbox::cache_accessor<float>::compute_delta(unsigned long const&, int)
FUNC b0794 58 0 fmt::v11::detail::dragonbox::cache_accessor<float>::compute_mul(unsigned int, unsigned long const&)
FUNC b07ec 28 0 fmt::v11::detail::dragonbox::divide_by_10_to_kappa_plus_1(unsigned int)
FUNC b0814 f4 0 fmt::v11::detail::dragonbox::cache_accessor<float>::compute_mul_parity(unsigned int, unsigned long const&, int)
FUNC b0908 164 0 fmt::v11::detail::dragonbox::remove_trailing_zeros(unsigned int&, int)
FUNC b0a6c f4 0 fmt::v11::detail::dragonbox::check_divisibility_and_divide_by_pow10<1>(unsigned int&)
FUNC b0b60 410 0 fmt::v11::detail::dragonbox::to_decimal<double>(double)
FUNC b0f70 8c 0 fmt::v11::detail::bit_cast<unsigned long, double, 0>(double const&)
FUNC b0ffc 20 0 fmt::v11::detail::exponent_mask<double>()
FUNC b101c 8 0 fmt::v11::detail::num_significand_bits<double>()
FUNC b1024 8 0 fmt::v11::detail::exponent_bias<double>()
FUNC b102c 1e0 0 fmt::v11::detail::dragonbox::shorter_interval_case<double>(int)
FUNC b120c 3c 0 fmt::v11::detail::dragonbox::cache_accessor<double>::compute_delta(fmt::v11::detail::uint128_fallback const&, int)
FUNC b1248 b0 0 fmt::v11::detail::dragonbox::cache_accessor<double>::compute_mul(unsigned long, fmt::v11::detail::uint128_fallback const&)
FUNC b12f8 38 0 fmt::v11::detail::dragonbox::divide_by_10_to_kappa_plus_1(unsigned long)
FUNC b1330 188 0 fmt::v11::detail::dragonbox::cache_accessor<double>::compute_mul_parity(unsigned long, fmt::v11::detail::uint128_fallback const&, int)
FUNC b14b8 268 0 fmt::v11::detail::dragonbox::remove_trailing_zeros(unsigned long&)
FUNC b1720 f0 0 fmt::v11::detail::dragonbox::check_divisibility_and_divide_by_pow10<2>(unsigned int&)
FUNC b1810 148 0 fmt::v11::detail::thousands_sep_impl<char>(fmt::v11::detail::locale_ref)
FUNC b1958 2c 0 std::__ndk1::use_facet[abi:v170000]<std::__ndk1::numpunct<char> >(std::__ndk1::locale const&)
FUNC b1984 34 0 std::__ndk1::numpunct<char>::grouping[abi:v170000]() const
FUNC b19b8 30 0 std::__ndk1::basic_string<char, std::__ndk1::char_traits<char>, std::__ndk1::allocator<char> >::empty[abi:v170000]() const
FUNC b19e8 2c 0 std::__ndk1::numpunct<char>::thousands_sep[abi:v170000]() const
FUNC b1a14 c0 0 fmt::v11::detail::decimal_point_impl<char>(fmt::v11::detail::locale_ref)
FUNC b1ad4 2c 0 std::__ndk1::numpunct<char>::decimal_point[abi:v170000]() const
FUNC b1b00 13c 0 fmt::v11::detail::buffer<char>::append<char>(char const*, char const*)
FUNC b1c3c 50 0 fmt::v11::detail::to_unsigned<long>(long)
FUNC b1c8c 54 0 fmt::v11::detail::buffer<char>::try_reserve(unsigned long)
FUNC b1ce0 3c 0 fmt::v11::detail::equal2(char const*, char const*)
FUNC b1d1c f8 0 fmt::v11::basic_format_args<fmt::v11::context>::get(int) const
FUNC b1e14 24 0 fmt::v11::basic_format_arg<fmt::v11::context>::operator bool() const
FUNC b1e38 290 0 fmt::v11::basic_format_arg<fmt::v11::context>::visit<fmt::v11::detail::default_arg_formatter<char> >(fmt::v11::detail::default_arg_formatter<char>&&) const
FUNC b20c8 24c 0 fmt::v11::detail::parse_format_string<false, char, fmt::v11::detail::vformat_to<char>(fmt::v11::detail::buffer<char>&, fmt::v11::basic_string_view<char>, fmt::v11::detail::vformat_args<char>::type, fmt::v11::detail::locale_ref)::format_handler>(fmt::v11::basic_string_view<char>, fmt::v11::detail::vformat_to<char>(fmt::v11::detail::buffer<char>&, fmt::v11::basic_string_view<char>, fmt::v11::detail::vformat_args<char>::type, fmt::v11::detail::locale_ref)::format_handler&&)
FUNC b2314 b4 0 fmt::v11::detail::vformat_to<char>(fmt::v11::detail::buffer<char>&, fmt::v11::basic_string_view<char>, fmt::v11::detail::vformat_args<char>::type, fmt::v11::detail::locale_ref)::format_handler::format_handler(fmt::v11::basic_appender<char>, fmt::v11::basic_string_view<char>, fmt::v11::basic_format_args<fmt::v11::context>, fmt::v11::detail::locale_ref)
FUNC b23c8 44 0 fmt::v11::detail::do_count_digits(unsigned int)
FUNC b240c 1b0 0 fmt::v11::basic_memory_buffer<char, (unsigned long)500, std::__ndk1::allocator<char> >::grow(fmt::v11::detail::buffer<char>&, unsigned long)
FUNC b25bc 44 0 fmt::v11::detail::buffer<char>::buffer(void (*)(fmt::v11::detail::buffer<char>&, unsigned long), char*, unsigned long, unsigned long)
FUNC b2600 2c 0 fmt::v11::detail::buffer<char>::set(char*, unsigned long)
FUNC b262c 50 0 fmt::v11::detail::abort_fuzzing_if(bool)
FUNC b267c 18 0 fmt::v11::detail::buffer<char>::capacity() const
FUNC b2694 14 0 fmt::v11::detail::assume(bool)
FUNC b26a8 40 0 std::__ndk1::allocator<char>::deallocate[abi:v170000](char*, unsigned long)
FUNC b26e8 10 0 fmt::v11::detail::ignore_unused<bool>(bool const&)
FUNC b26f8 6c 0 fmt::v11::basic_memory_buffer<char, (unsigned long)500, std::__ndk1::allocator<char> >::deallocate()
FUNC b2764 30 0 fmt::v11::format_facet<std::__ndk1::locale>::~format_facet()
FUNC b2794 30 0 fmt::v11::format_error::~format_error()
FUNC b27c4 90 0 fmt::v11::detail::umul128(unsigned long, unsigned long)
FUNC b2854 18 0 fmt::v11::detail::uint128_fallback::high() const
FUNC b286c 18 0 fmt::v11::detail::uint128_fallback::low() const
FUNC b2884 54 0 fmt::v11::detail::uint128_fallback::operator+=(unsigned long)
FUNC b28d8 2c 0 fmt::v11::detail::uint128_fallback::uint128_fallback(unsigned long, unsigned long)
FUNC b2904 5c 0 fmt::v11::detail::copy<char, char const*, char*, 0>(char const*, char const*, char*)
FUNC b2960 274 0 fmt::v11::detail::utf8_decode(char const*, unsigned int*, int*)
FUNC b2bd4 94 0 fmt::v11::detail::write<char, fmt::v11::basic_appender<char> >(fmt::v11::basic_appender<char>, fmt::v11::basic_string_view<char>)
FUNC b2c68 78 0 fmt::v11::detail::copy_noinline<char, char const*, fmt::v11::basic_appender<char> >(char const*, char const*, fmt::v11::basic_appender<char>)
FUNC b2ce0 18 0 fmt::v11::basic_string_view<char>::begin() const
FUNC b2cf8 20 0 fmt::v11::basic_string_view<char>::end() const
FUNC b2d18 80 0 fmt::v11::detail::copy<char, char const*, fmt::v11::basic_appender<char>, 0>(char const*, char const*, fmt::v11::basic_appender<char>)
FUNC b2d98 14 0 fmt::v11::get_container(fmt::v11::basic_appender<char>)
FUNC b2dac 30 0 fmt::v11::detail::dragonbox::umul96_upper64(unsigned int, unsigned long)
FUNC b2ddc 50 0 fmt::v11::detail::dragonbox::umul128_upper64(unsigned long, unsigned long)
FUNC b2e2c 20 0 fmt::v11::detail::dragonbox::umul96_lower64(unsigned int, unsigned long)
FUNC b2e4c 44 0 fmt::v11::detail::rotr(unsigned int, unsigned int)
FUNC b2e90 14 0 fmt::v11::detail::max_value<unsigned int>()
FUNC b2ea4 bc 0 fmt::v11::detail::dragonbox::umul192_upper128(unsigned long, fmt::v11::detail::uint128_fallback)
FUNC b2f60 f0 0 fmt::v11::detail::dragonbox::umul192_lower128(unsigned long, fmt::v11::detail::uint128_fallback)
FUNC b3050 44 0 fmt::v11::detail::rotr(unsigned long, unsigned int)
FUNC b3094 14 0 fmt::v11::detail::max_value<unsigned long>()
FUNC b30a8 38 0 fmt::v11::basic_format_arg<fmt::v11::context>::basic_format_arg()
FUNC b30e0 24 0 fmt::v11::basic_format_args<fmt::v11::context>::is_packed() const
FUNC b3104 60 0 fmt::v11::basic_format_args<fmt::v11::context>::max_size() const
FUNC b3164 44 0 fmt::v11::basic_format_args<fmt::v11::context>::type(int) const
FUNC b31a8 74 0 fmt::v11::detail::default_arg_formatter<char>::operator()<int>(int)
FUNC b321c 74 0 fmt::v11::detail::default_arg_formatter<char>::operator()<unsigned int>(unsigned int)
FUNC b3290 74 0 fmt::v11::detail::default_arg_formatter<char>::operator()<long long>(long long)
FUNC b3304 74 0 fmt::v11::detail::default_arg_formatter<char>::operator()<unsigned long long>(unsigned long long)
FUNC b3378 7c 0 fmt::v11::detail::default_arg_formatter<char>::operator()<__int128>(__int128)
FUNC b33f4 2c 0 fmt::v11::detail::convert_for_visit<__int128>(__int128)
FUNC b3420 7c 0 fmt::v11::detail::default_arg_formatter<char>::operator()<unsigned __int128>(unsigned __int128)
FUNC b349c 2c 0 fmt::v11::detail::convert_for_visit<unsigned __int128>(unsigned __int128)
FUNC b34c8 9c 0 fmt::v11::detail::default_arg_formatter<char>::operator()<bool>(bool)
FUNC b3564 74 0 fmt::v11::detail::default_arg_formatter<char>::operator()<char>(char)
FUNC b35d8 74 0 fmt::v11::detail::default_arg_formatter<char>::operator()<float>(float)
FUNC b364c 74 0 fmt::v11::detail::default_arg_formatter<char>::operator()<double>(double)
FUNC b36c0 74 0 fmt::v11::detail::default_arg_formatter<char>::operator()<long double>(long double)
FUNC b3734 74 0 fmt::v11::detail::default_arg_formatter<char>::operator()<char const*>(char const*)
FUNC b37a8 84 0 fmt::v11::detail::default_arg_formatter<char>::operator()<fmt::v11::basic_string_view<char> >(fmt::v11::basic_string_view<char>)
FUNC b382c 98 0 fmt::v11::detail::default_arg_formatter<char>::operator()<void const*>(void const*)
FUNC b38c4 d8 0 fmt::v11::detail::default_arg_formatter<char>::operator()(fmt::v11::basic_format_arg<fmt::v11::context>::handle)
FUNC b399c 54 0 fmt::v11::basic_format_arg<fmt::v11::context>::handle::handle(fmt::v11::detail::custom_value<fmt::v11::context>)
FUNC b39f0 90 0 fmt::v11::detail::default_arg_formatter<char>::operator()<fmt::v11::monostate>(fmt::v11::monostate)
FUNC b3a80 174 0 fmt::v11::detail::write<char, fmt::v11::basic_appender<char>, int, 0>(fmt::v11::basic_appender<char>, int)
FUNC b3bf4 e0 0 fmt::v11::detail::to_pointer<char>(fmt::v11::basic_appender<char>, unsigned long)
FUNC b3cd4 174 0 fmt::v11::detail::format_decimal<char, unsigned int>(char*, unsigned int, int)
FUNC b3e48 5c 0 fmt::v11::basic_appender<char>::operator++(int)
FUNC b3ea4 14 0 fmt::v11::basic_appender<char>::operator*()
FUNC b3eb8 68 0 fmt::v11::basic_appender<char>::operator=(char)
FUNC b3f20 c4 0 fmt::v11::detail::format_decimal<char, unsigned int, fmt::v11::basic_appender<char>, 0>(fmt::v11::basic_appender<char>, unsigned int, int)
FUNC b3fe4 54 0 fmt::v11::detail::copy2<char>(char*, char const*)
FUNC b4038 20 0 fmt::v11::detail::digits2(unsigned long)
FUNC b4058 78 0 fmt::v11::detail::copy_noinline<char, char*, fmt::v11::basic_appender<char> >(char*, char*, fmt::v11::basic_appender<char>)
FUNC b40d0 80 0 fmt::v11::detail::copy<char, char*, fmt::v11::basic_appender<char>, 0>(char*, char*, fmt::v11::basic_appender<char>)
FUNC b4150 174 0 fmt::v11::detail::write<char, fmt::v11::basic_appender<char>, unsigned int, 0>(fmt::v11::basic_appender<char>, unsigned int)
FUNC b42c4 18 0 fmt::v11::detail::is_negative<unsigned int, 0>(unsigned int)
FUNC b42dc 174 0 fmt::v11::detail::write<char, fmt::v11::basic_appender<char>, long long, 0>(fmt::v11::basic_appender<char>, long long)
FUNC b4450 20 0 fmt::v11::detail::is_negative<long long, 0>(long long)
FUNC b4470 24 0 fmt::v11::detail::count_digits(unsigned long)
FUNC b4494 168 0 fmt::v11::detail::format_decimal<char, unsigned long>(char*, unsigned long, int)
FUNC b45fc c8 0 fmt::v11::detail::format_decimal<char, unsigned long, fmt::v11::basic_appender<char>, 0>(fmt::v11::basic_appender<char>, unsigned long, int)
FUNC b46c4 60 0 fmt::v11::detail::do_count_digits(unsigned long)
FUNC b4724 174 0 fmt::v11::detail::write<char, fmt::v11::basic_appender<char>, unsigned long long, 0>(fmt::v11::basic_appender<char>, unsigned long long)
FUNC b4898 18 0 fmt::v11::detail::is_negative<unsigned long long, 0>(unsigned long long)
FUNC b48b0 19c 0 fmt::v11::detail::write<char, fmt::v11::basic_appender<char>, __int128, 0>(fmt::v11::basic_appender<char>, __int128)
FUNC b4a4c 58 0 fmt::v11::detail::is_negative<__int128, 0>(__int128)
FUNC b4aa4 3c 0 fmt::v11::detail::count_digits(unsigned __int128)
FUNC b4ae0 19c 0 fmt::v11::detail::format_decimal<char, unsigned __int128>(char*, unsigned __int128, int)
FUNC b4c7c d0 0 fmt::v11::detail::format_decimal<char, unsigned __int128, fmt::v11::basic_appender<char>, 0>(fmt::v11::basic_appender<char>, unsigned __int128, int)
FUNC b4d4c 1c0 0 fmt::v11::detail::count_digits_fallback<unsigned __int128>(unsigned __int128)
FUNC b4f0c 19c 0 fmt::v11::detail::write<char, fmt::v11::basic_appender<char>, unsigned __int128, 0>(fmt::v11::basic_appender<char>, unsigned __int128)
FUNC b50a8 20 0 fmt::v11::detail::is_negative<unsigned __int128, 0>(unsigned __int128)
FUNC b50c8 108 0 fmt::v11::detail::write<char, fmt::v11::basic_appender<char>, bool, 0>(fmt::v11::basic_appender<char>, bool, fmt::v11::format_specs const&, fmt::v11::detail::locale_ref)
FUNC b51d0 a0 0 fmt::v11::format_specs::format_specs()
FUNC b5270 f8 0 fmt::v11::detail::write<char, int, 0>(fmt::v11::basic_appender<char>, int, fmt::v11::format_specs const&, fmt::v11::detail::locale_ref)
FUNC b5368 98 0 fmt::v11::detail::write_bytes<char, (fmt::v11::align::type)1, fmt::v11::basic_appender<char> >(fmt::v11::basic_appender<char>, fmt::v11::basic_string_view<char>, fmt::v11::format_specs const&)
FUNC b5400 58 0 fmt::v11::loc_value::loc_value<int, 0>()
FUNC b5458 90 0 fmt::v11::detail::write_int_noinline<char, fmt::v11::basic_appender<char>, unsigned int>(fmt::v11::basic_appender<char>, fmt::v11::detail::write_int_arg<unsigned int>, fmt::v11::format_specs const&, fmt::v11::detail::locale_ref)
FUNC b54e8 cc 0 fmt::v11::detail::make_write_int_arg<int>(int, fmt::v11::sign::type)
FUNC b55b4 84 0 fmt::v11::detail::make_arg<fmt::v11::context, int>(int&)
FUNC b5638 2bc 0 fmt::v11::detail::write_int<char, fmt::v11::basic_appender<char>, unsigned int>(fmt::v11::basic_appender<char>, fmt::v11::detail::write_int_arg<unsigned int>, fmt::v11::format_specs const&, fmt::v11::detail::locale_ref)
FUNC b58f4 194 0 fmt::v11::detail::write_int<char, fmt::v11::basic_appender<char>, fmt::v11::detail::write_int<char, fmt::v11::basic_appender<char>, unsigned int>(fmt::v11::basic_appender<char>, fmt::v11::detail::write_int_arg<unsigned int>, fmt::v11::format_specs const&, fmt::v11::detail::locale_ref)::{lambda(fmt::v11::basic_appender<char>)#1}>(fmt::v11::basic_appender<char>, int, unsigned int, fmt::v11::format_specs const&, fmt::v11::detail::write_int<char, fmt::v11::basic_appender<char>, unsigned int>(fmt::v11::basic_appender<char>, fmt::v11::detail::write_int_arg<unsigned int>, fmt::v11::format_specs const&, fmt::v11::detail::locale_ref)::{lambda(fmt::v11::basic_appender<char>)#1})
FUNC b5a88 8c 0 fmt::v11::detail::prefix_append(unsigned int&, unsigned int)
FUNC b5b14 2c 0 fmt::v11::detail::count_digits<4, unsigned int>(unsigned int)
FUNC b5b40 1a0 0 fmt::v11::detail::write_int<char, fmt::v11::basic_appender<char>, fmt::v11::detail::write_int<char, fmt::v11::basic_appender<char>, unsigned int>(fmt::v11::basic_appender<char>, fmt::v11::detail::write_int_arg<unsigned int>, fmt::v11::format_specs const&, fmt::v11::detail::locale_ref)::{lambda(fmt::v11::basic_appender<char>)#2}>(fmt::v11::basic_appender<char>, int, unsigned int, fmt::v11::format_specs const&, fmt::v11::detail::write_int<char, fmt::v11::basic_appender<char>, unsigned int>(fmt::v11::basic_appender<char>, fmt::v11::detail::write_int_arg<unsigned int>, fmt::v11::format_specs const&, fmt::v11::detail::locale_ref)::{lambda(fmt::v11::basic_appender<char>)#2})
FUNC b5ce0 2c 0 fmt::v11::detail::count_digits<3, unsigned int>(unsigned int)
FUNC b5d0c 194 0 fmt::v11::detail::write_int<char, fmt::v11::basic_appender<char>, fmt::v11::detail::write_int<char, fmt::v11::basic_appender<char>, unsigned int>(fmt::v11::basic_appender<char>, fmt::v11::detail::write_int_arg<unsigned int>, fmt::v11::format_specs const&, fmt::v11::detail::locale_ref)::{lambda(fmt::v11::basic_appender<char>)#3}>(fmt::v11::basic_appender<char>, int, unsigned int, fmt::v11::format_specs const&, fmt::v11::detail::write_int<char, fmt::v11::basic_appender<char>, unsigned int>(fmt::v11::basic_appender<char>, fmt::v11::detail::write_int_arg<unsigned int>, fmt::v11::format_specs const&, fmt::v11::detail::locale_ref)::{lambda(fmt::v11::basic_appender<char>)#3})
FUNC b5ea0 2c 0 fmt::v11::detail::count_digits<1, unsigned int>(unsigned int)
FUNC b5ecc 194 0 fmt::v11::detail::write_int<char, fmt::v11::basic_appender<char>, fmt::v11::detail::write_int<char, fmt::v11::basic_appender<char>, unsigned int>(fmt::v11::basic_appender<char>, fmt::v11::detail::write_int_arg<unsigned int>, fmt::v11::format_specs const&, fmt::v11::detail::locale_ref)::{lambda(fmt::v11::basic_appender<char>)#4}>(fmt::v11::basic_appender<char>, int, unsigned int, fmt::v11::format_specs const&, fmt::v11::detail::write_int<char, fmt::v11::basic_appender<char>, unsigned int>(fmt::v11::basic_appender<char>, fmt::v11::detail::write_int_arg<unsigned int>, fmt::v11::format_specs const&, fmt::v11::detail::locale_ref)::{lambda(fmt::v11::basic_appender<char>)#4})
FUNC b6060 a8 0 fmt::v11::detail::write_char<char, fmt::v11::basic_appender<char> >(fmt::v11::basic_appender<char>, char, fmt::v11::format_specs const&)
FUNC b6108 94 0 fmt::v11::detail::reserve<char>(fmt::v11::basic_appender<char>, unsigned long)
FUNC b619c 58 0 fmt::v11::detail::base_iterator<fmt::v11::basic_appender<char> >(fmt::v11::basic_appender<char>, fmt::v11::basic_appender<char>)
FUNC b61f4 84 0 fmt::v11::detail::write_int<char, fmt::v11::basic_appender<char>, unsigned int>(fmt::v11::basic_appender<char>, fmt::v11::detail::write_int_arg<unsigned int>, fmt::v11::format_specs const&, fmt::v11::detail::locale_ref)::{lambda(fmt::v11::basic_appender<char>(fmt::v11::basic_appender<char>))#1}::operator() const
FUNC b6278 138 0 fmt::v11::detail::write_int_data<char>::write_int_data(int, unsigned int, fmt::v11::format_specs const&)
FUNC b63b0 84 0 fmt::v11::detail::write_padded<char, (fmt::v11::align::type)2, fmt::v11::basic_appender<char>, fmt::v11::detail::write_int<char, fmt::v11::basic_appender<char>, fmt::v11::detail::write_int<char, fmt::v11::basic_appender<char>, unsigned int>(fmt::v11::basic_appender<char>, fmt::v11::detail::write_int_arg<unsigned int>, fmt::v11::format_specs const&, fmt::v11::detail::locale_ref)::{lambda(fmt::v11::basic_appender<char>)#1}>(fmt::v11::basic_appender<char>, int, unsigned int, fmt::v11::format_specs const&, fmt::v11::detail::write_int<char, fmt::v11::basic_appender<char>, unsigned int>(fmt::v11::basic_appender<char>, fmt::v11::detail::write_int_arg<unsigned int>, fmt::v11::format_specs const&, fmt::v11::detail::locale_ref)::{lambda(fmt::v11::basic_appender<char>)#1})::{lambda(fmt::v11::basic_appender<char>)#1}>(fmt::v11::basic_appender<char>, fmt::v11::format_specs const&, unsigned long, fmt::v11::detail::write_int<char, fmt::v11::basic_appender<char>, fmt::v11::detail::write_int<char, fmt::v11::basic_appender<char>, unsigned int>(fmt::v11::basic_appender<char>, fmt::v11::detail::write_int_arg<unsigned int>, fmt::v11::format_specs const&, fmt::v11::detail::locale_ref)::{lambda(fmt::v11::basic_appender<char>)#1}>(fmt::v11::basic_appender<char>, int, unsigned int, fmt::v11::format_specs const&, fmt::v11::detail::write_int<char, fmt::v11::basic_appender<char>, unsigned int>(fmt::v11::basic_appender<char>, fmt::v11::detail::write_int_arg<unsigned int>, fmt::v11::format_specs const&, fmt::v11::detail::locale_ref)::{lambda(fmt::v11::basic_appender<char>)#1})::{lambda(fmt::v11::basic_appender<char>&&)#1})
FUNC b6434 1d8 0 fmt::v11::detail::write_padded<char, (fmt::v11::align::type)2, fmt::v11::basic_appender<char>, fmt::v11::detail::write_int<char, fmt::v11::basic_appender<char>, fmt::v11::detail::write_int<char, fmt::v11::basic_appender<char>, unsigned int>(fmt::v11::basic_appender<char>, fmt::v11::detail::write_int_arg<unsigned int>, fmt::v11::format_specs const&, fmt::v11::detail::locale_ref)::{lambda(fmt::v11::basic_appender<char>)#1}>(fmt::v11::basic_appender<char>, int, unsigned int, fmt::v11::format_specs const&, fmt::v11::detail::write_int<char, fmt::v11::basic_appender<char>, unsigned int>(fmt::v11::basic_appender<char>, fmt::v11::detail::write_int_arg<unsigned int>, fmt::v11::format_specs const&, fmt::v11::detail::locale_ref)::{lambda(fmt::v11::basic_appender<char>)#1})::{lambda(fmt::v11::basic_appender<char>&)#1}>(fmt::v11::basic_appender<char>, fmt::v11::format_specs const&, unsigned long, unsigned long, fmt::v11::detail::write_int<char, fmt::v11::basic_appender<char>, fmt::v11::detail::write_int<char, fmt::v11::basic_appender<char>, unsigned int>(fmt::v11::basic_appender<char>, fmt::v11::detail::write_int_arg<unsigned int>, fmt::v11::format_specs const&, fmt::v11::detail::locale_ref)::{lambda(fmt::v11::basic_appender<char>)#1}>(fmt::v11::basic_appender<char>, int, unsigned int, fmt::v11::format_specs const&, fmt::v11::detail::write_int<char, fmt::v11::basic_appender<char>, unsigned int>(fmt::v11::basic_appender<char>, fmt::v11::detail::write_int_arg<unsigned int>, fmt::v11::format_specs const&, fmt::v11::detail::locale_ref)::{lambda(fmt::v11::basic_appender<char>)#1})::{lambda(fmt::v11::basic_appender<char>&)#1})
FUNC b660c 1c 0 fmt::v11::detail::fill_t::size() const
FUNC b6628 12c 0 fmt::v11::detail::fill<char, fmt::v11::basic_appender<char> >(fmt::v11::basic_appender<char>, unsigned long, fmt::v11::detail::fill_t const&)
FUNC b6754 104 0 fmt::v11::detail::write_int<char, fmt::v11::basic_appender<char>, fmt::v11::detail::write_int<char, fmt::v11::basic_appender<char>, unsigned int>(fmt::v11::basic_appender<char>, fmt::v11::detail::write_int_arg<unsigned int>, fmt::v11::format_specs const&, fmt::v11::detail::locale_ref)::{lambda(fmt::v11::basic_appender<char>)#1}>(fmt::v11::basic_appender<char>, int, unsigned int, fmt::v11::format_specs const&, fmt::v11::detail::write_int<char, fmt::v11::basic_appender<char>, unsigned int>(fmt::v11::basic_appender<char>, fmt::v11::detail::write_int_arg<unsigned int>, fmt::v11::format_specs const&, fmt::v11::detail::locale_ref)::{lambda(fmt::v11::basic_appender<char>)#1})::{lambda(fmt::v11::basic_appender<char>(fmt::v11::basic_appender<char>))#1}::operator() const
FUNC b6858 c0 0 fmt::v11::detail::fill_n<fmt::v11::basic_appender<char>, unsigned long, char>(fmt::v11::basic_appender<char>, unsigned long, char const&)
FUNC b6918 20 0 fmt::v11::detail::fill_t::get<char>() const
FUNC b6938 14 0 fmt::v11::detail::fill_t::data<char, 0>() const
FUNC b694c 80 0 fmt::v11::detail::write_int<char, fmt::v11::basic_appender<char>, unsigned int>(fmt::v11::basic_appender<char>, fmt::v11::detail::write_int_arg<unsigned int>, fmt::v11::format_specs const&, fmt::v11::detail::locale_ref)::{lambda(fmt::v11::basic_appender<char>(fmt::v11::basic_appender<char>))#2}::operator() const
FUNC b69cc 84 0 fmt::v11::detail::write_padded<char, (fmt::v11::align::type)2, fmt::v11::basic_appender<char>, fmt::v11::detail::write_int<char, fmt::v11::basic_appender<char>, fmt::v11::detail::write_int<char, fmt::v11::basic_appender<char>, unsigned int>(fmt::v11::basic_appender<char>, fmt::v11::detail::write_int_arg<unsigned int>, fmt::v11::format_specs const&, fmt::v11::detail::locale_ref)::{lambda(fmt::v11::basic_appender<char>)#2}>(fmt::v11::basic_appender<char>, int, unsigned int, fmt::v11::format_specs const&, fmt::v11::detail::write_int<char, fmt::v11::basic_appender<char>, unsigned int>(fmt::v11::basic_appender<char>, fmt::v11::detail::write_int_arg<unsigned int>, fmt::v11::format_specs const&, fmt::v11::detail::locale_ref)::{lambda(fmt::v11::basic_appender<char>)#2})::{lambda(fmt::v11::basic_appender<char>)#1}>(fmt::v11::basic_appender<char>, fmt::v11::format_specs const&, unsigned long, fmt::v11::detail::write_int<char, fmt::v11::basic_appender<char>, fmt::v11::detail::write_int<char, fmt::v11::basic_appender<char>, unsigned int>(fmt::v11::basic_appender<char>, fmt::v11::detail::write_int_arg<unsigned int>, fmt::v11::format_specs const&, fmt::v11::detail::locale_ref)::{lambda(fmt::v11::basic_appender<char>)#2}>(fmt::v11::basic_appender<char>, int, unsigned int, fmt::v11::format_specs const&, fmt::v11::detail::write_int<char, fmt::v11::basic_appender<char>, unsigned int>(fmt::v11::basic_appender<char>, fmt::v11::detail::write_int_arg<unsigned int>, fmt::v11::format_specs const&, fmt::v11::detail::locale_ref)::{lambda(fmt::v11::basic_appender<char>)#2})::{lambda(fmt::v11::basic_appender<char>&&)#1})
FUNC b6a50 100 0 fmt::v11::detail::format_uint<(unsigned int)4, char, fmt::v11::basic_appender<char>, unsigned int>(fmt::v11::basic_appender<char>, unsigned int, int, bool)
FUNC b6b50 c4 0 fmt::v11::detail::format_uint<(unsigned int)4, char, unsigned int>(char*, unsigned int, int, bool)
FUNC b6c14 1d8 0 fmt::v11::detail::write_padded<char, (fmt::v11::align::type)2, fmt::v11::basic_appender<char>, fmt::v11::detail::write_int<char, fmt::v11::basic_appender<char>, fmt::v11::detail::write_int<char, fmt::v11::basic_appender<char>, unsigned int>(fmt::v11::basic_appender<char>, fmt::v11::detail::write_int_arg<unsigned int>, fmt::v11::format_specs const&, fmt::v11::detail::locale_ref)::{lambda(fmt::v11::basic_appender<char>)#2}>(fmt::v11::basic_appender<char>, int, unsigned int, fmt::v11::format_specs const&, fmt::v11::detail::write_int<char, fmt::v11::basic_appender<char>, unsigned int>(fmt::v11::basic_appender<char>, fmt::v11::detail::write_int_arg<unsigned int>, fmt::v11::format_specs const&, fmt::v11::detail::locale_ref)::{lambda(fmt::v11::basic_appender<char>)#2})::{lambda(fmt::v11::basic_appender<char>&)#1}>(fmt::v11::basic_appender<char>, fmt::v11::format_specs const&, unsigned long, unsigned long, fmt::v11::detail::write_int<char, fmt::v11::basic_appender<char>, fmt::v11::detail::write_int<char, fmt::v11::basic_appender<char>, unsigned int>(fmt::v11::basic_appender<char>, fmt::v11::detail::write_int_arg<unsigned int>, fmt::v11::format_specs const&, fmt::v11::detail::locale_ref)::{lambda(fmt::v11::basic_appender<char>)#2}>(fmt::v11::basic_appender<char>, int, unsigned int, fmt::v11::format_specs const&, fmt::v11::detail::write_int<char, fmt::v11::basic_appender<char>, unsigned int>(fmt::v11::basic_appender<char>, fmt::v11::detail::write_int_arg<unsigned int>, fmt::v11::format_specs const&, fmt::v11::detail::locale_ref)::{lambda(fmt::v11::basic_appender<char>)#2})::{lambda(fmt::v11::basic_appender<char>&)#1})
FUNC b6dec 104 0 fmt::v11::detail::write_int<char, fmt::v11::basic_appender<char>, fmt::v11::detail::write_int<char, fmt::v11::basic_appender<char>, unsigned int>(fmt::v11::basic_appender<char>, fmt::v11::detail::write_int_arg<unsigned int>, fmt::v11::format_specs const&, fmt::v11::detail::locale_ref)::{lambda(fmt::v11::basic_appender<char>)#2}>(fmt::v11::basic_appender<char>, int, unsigned int, fmt::v11::format_specs const&, fmt::v11::detail::write_int<char, fmt::v11::basic_appender<char>, unsigned int>(fmt::v11::basic_appender<char>, fmt::v11::detail::write_int_arg<unsigned int>, fmt::v11::format_specs const&, fmt::v11::detail::locale_ref)::{lambda(fmt::v11::basic_appender<char>)#2})::{lambda(fmt::v11::basic_appender<char>(fmt::v11::basic_appender<char>))#1}::operator() const
FUNC b6ef0 7c 0 fmt::v11::detail::write_int<char, fmt::v11::basic_appender<char>, unsigned int>(fmt::v11::basic_appender<char>, fmt::v11::detail::write_int_arg<unsigned int>, fmt::v11::format_specs const&, fmt::v11::detail::locale_ref)::{lambda(fmt::v11::basic_appender<char>(fmt::v11::basic_appender<char>))#3}::operator() const
FUNC b6f6c 84 0 fmt::v11::detail::write_padded<char, (fmt::v11::align::type)2, fmt::v11::basic_appender<char>, fmt::v11::detail::write_int<char, fmt::v11::basic_appender<char>, fmt::v11::detail::write_int<char, fmt::v11::basic_appender<char>, unsigned int>(fmt::v11::basic_appender<char>, fmt::v11::detail::write_int_arg<unsigned int>, fmt::v11::format_specs const&, fmt::v11::detail::locale_ref)::{lambda(fmt::v11::basic_appender<char>)#3}>(fmt::v11::basic_appender<char>, int, unsigned int, fmt::v11::format_specs const&, fmt::v11::detail::write_int<char, fmt::v11::basic_appender<char>, unsigned int>(fmt::v11::basic_appender<char>, fmt::v11::detail::write_int_arg<unsigned int>, fmt::v11::format_specs const&, fmt::v11::detail::locale_ref)::{lambda(fmt::v11::basic_appender<char>)#3})::{lambda(fmt::v11::basic_appender<char>)#1}>(fmt::v11::basic_appender<char>, fmt::v11::format_specs const&, unsigned long, fmt::v11::detail::write_int<char, fmt::v11::basic_appender<char>, fmt::v11::detail::write_int<char, fmt::v11::basic_appender<char>, unsigned int>(fmt::v11::basic_appender<char>, fmt::v11::detail::write_int_arg<unsigned int>, fmt::v11::format_specs const&, fmt::v11::detail::locale_ref)::{lambda(fmt::v11::basic_appender<char>)#3}>(fmt::v11::basic_appender<char>, int, unsigned int, fmt::v11::format_specs const&, fmt::v11::detail::write_int<char, fmt::v11::basic_appender<char>, unsigned int>(fmt::v11::basic_appender<char>, fmt::v11::detail::write_int_arg<unsigned int>, fmt::v11::format_specs const&, fmt::v11::detail::locale_ref)::{lambda(fmt::v11::basic_appender<char>)#3})::{lambda(fmt::v11::basic_appender<char>&&)#1})
FUNC b6ff0 100 0 fmt::v11::detail::format_uint<(unsigned int)3, char, fmt::v11::basic_appender<char>, unsigned int>(fmt::v11::basic_appender<char>, unsigned int, int, bool)
FUNC b70f0 b8 0 fmt::v11::detail::format_uint<(unsigned int)3, char, unsigned int>(char*, unsigned int, int, bool)
FUNC b71a8 1d8 0 fmt::v11::detail::write_padded<char, (fmt::v11::align::type)2, fmt::v11::basic_appender<char>, fmt::v11::detail::write_int<char, fmt::v11::basic_appender<char>, fmt::v11::detail::write_int<char, fmt::v11::basic_appender<char>, unsigned int>(fmt::v11::basic_appender<char>, fmt::v11::detail::write_int_arg<unsigned int>, fmt::v11::format_specs const&, fmt::v11::detail::locale_ref)::{lambda(fmt::v11::basic_appender<char>)#3}>(fmt::v11::basic_appender<char>, int, unsigned int, fmt::v11::format_specs const&, fmt::v11::detail::write_int<char, fmt::v11::basic_appender<char>, unsigned int>(fmt::v11::basic_appender<char>, fmt::v11::detail::write_int_arg<unsigned int>, fmt::v11::format_specs const&, fmt::v11::detail::locale_ref)::{lambda(fmt::v11::basic_appender<char>)#3})::{lambda(fmt::v11::basic_appender<char>&)#1}>(fmt::v11::basic_appender<char>, fmt::v11::format_specs const&, unsigned long, unsigned long, fmt::v11::detail::write_int<char, fmt::v11::basic_appender<char>, fmt::v11::detail::write_int<char, fmt::v11::basic_appender<char>, unsigned int>(fmt::v11::basic_appender<char>, fmt::v11::detail::write_int_arg<unsigned int>, fmt::v11::format_specs const&, fmt::v11::detail::locale_ref)::{lambda(fmt::v11::basic_appender<char>)#3}>(fmt::v11::basic_appender<char>, int, unsigned int, fmt::v11::format_specs const&, fmt::v11::detail::write_int<char, fmt::v11::basic_appender<char>, unsigned int>(fmt::v11::basic_appender<char>, fmt::v11::detail::write_int_arg<unsigned int>, fmt::v11::format_specs const&, fmt::v11::detail::locale_ref)::{lambda(fmt::v11::basic_appender<char>)#3})::{lambda(fmt::v11::basic_appender<char>&)#1})
FUNC b7380 104 0 fmt::v11::detail::write_int<char, fmt::v11::basic_appender<char>, fmt::v11::detail::write_int<char, fmt::v11::basic_appender<char>, unsigned int>(fmt::v11::basic_appender<char>, fmt::v11::detail::write_int_arg<unsigned int>, fmt::v11::format_specs const&, fmt::v11::detail::locale_ref)::{lambda(fmt::v11::basic_appender<char>)#3}>(fmt::v11::basic_appender<char>, int, unsigned int, fmt::v11::format_specs const&, fmt::v11::detail::write_int<char, fmt::v11::basic_appender<char>, unsigned int>(fmt::v11::basic_appender<char>, fmt::v11::detail::write_int_arg<unsigned int>, fmt::v11::format_specs const&, fmt::v11::detail::locale_ref)::{lambda(fmt::v11::basic_appender<char>)#3})::{lambda(fmt::v11::basic_appender<char>(fmt::v11::basic_appender<char>))#1}::operator() const
FUNC b7484 7c 0 fmt::v11::detail::write_int<char, fmt::v11::basic_appender<char>, unsigned int>(fmt::v11::basic_appender<char>, fmt::v11::detail::write_int_arg<unsigned int>, fmt::v11::format_specs const&, fmt::v11::detail::locale_ref)::{lambda(fmt::v11::basic_appender<char>(fmt::v11::basic_appender<char>))#4}::operator() const
FUNC b7500 84 0 fmt::v11::detail::write_padded<char, (fmt::v11::align::type)2, fmt::v11::basic_appender<char>, fmt::v11::detail::write_int<char, fmt::v11::basic_appender<char>, fmt::v11::detail::write_int<char, fmt::v11::basic_appender<char>, unsigned int>(fmt::v11::basic_appender<char>, fmt::v11::detail::write_int_arg<unsigned int>, fmt::v11::format_specs const&, fmt::v11::detail::locale_ref)::{lambda(fmt::v11::basic_appender<char>)#4}>(fmt::v11::basic_appender<char>, int, unsigned int, fmt::v11::format_specs const&, fmt::v11::detail::write_int<char, fmt::v11::basic_appender<char>, unsigned int>(fmt::v11::basic_appender<char>, fmt::v11::detail::write_int_arg<unsigned int>, fmt::v11::format_specs const&, fmt::v11::detail::locale_ref)::{lambda(fmt::v11::basic_appender<char>)#4})::{lambda(fmt::v11::basic_appender<char>)#1}>(fmt::v11::basic_appender<char>, fmt::v11::format_specs const&, unsigned long, fmt::v11::detail::write_int<char, fmt::v11::basic_appender<char>, fmt::v11::detail::write_int<char, fmt::v11::basic_appender<char>, unsigned int>(fmt::v11::basic_appender<char>, fmt::v11::detail::write_int_arg<unsigned int>, fmt::v11::format_specs const&, fmt::v11::detail::locale_ref)::{lambda(fmt::v11::basic_appender<char>)#4}>(fmt::v11::basic_appender<char>, int, unsigned int, fmt::v11::format_specs const&, fmt::v11::detail::write_int<char, fmt::v11::basic_appender<char>, unsigned int>(fmt::v11::basic_appender<char>, fmt::v11::detail::write_int_arg<unsigned int>, fmt::v11::format_specs const&, fmt::v11::detail::locale_ref)::{lambda(fmt::v11::basic_appender<char>)#4})::{lambda(fmt::v11::basic_appender<char>&&)#1})
FUNC b7584 104 0 fmt::v11::detail::format_uint<(unsigned int)1, char, fmt::v11::basic_appender<char>, unsigned int>(fmt::v11::basic_appender<char>, unsigned int, int, bool)
FUNC b7688 bc 0 fmt::v11::detail::format_uint<(unsigned int)1, char, unsigned int>(char*, unsigned int, int, bool)
FUNC b7744 1d8 0 fmt::v11::detail::write_padded<char, (fmt::v11::align::type)2, fmt::v11::basic_appender<char>, fmt::v11::detail::write_int<char, fmt::v11::basic_appender<char>, fmt::v11::detail::write_int<char, fmt::v11::basic_appender<char>, unsigned int>(fmt::v11::basic_appender<char>, fmt::v11::detail::write_int_arg<unsigned int>, fmt::v11::format_specs const&, fmt::v11::detail::locale_ref)::{lambda(fmt::v11::basic_appender<char>)#4}>(fmt::v11::basic_appender<char>, int, unsigned int, fmt::v11::format_specs const&, fmt::v11::detail::write_int<char, fmt::v11::basic_appender<char>, unsigned int>(fmt::v11::basic_appender<char>, fmt::v11::detail::write_int_arg<unsigned int>, fmt::v11::format_specs const&, fmt::v11::detail::locale_ref)::{lambda(fmt::v11::basic_appender<char>)#4})::{lambda(fmt::v11::basic_appender<char>&)#1}>(fmt::v11::basic_appender<char>, fmt::v11::format_specs const&, unsigned long, unsigned long, fmt::v11::detail::write_int<char, fmt::v11::basic_appender<char>, fmt::v11::detail::write_int<char, fmt::v11::basic_appender<char>, unsigned int>(fmt::v11::basic_appender<char>, fmt::v11::detail::write_int_arg<unsigned int>, fmt::v11::format_specs const&, fmt::v11::detail::locale_ref)::{lambda(fmt::v11::basic_appender<char>)#4}>(fmt::v11::basic_appender<char>, int, unsigned int, fmt::v11::format_specs const&, fmt::v11::detail::write_int<char, fmt::v11::basic_appender<char>, unsigned int>(fmt::v11::basic_appender<char>, fmt::v11::detail::write_int_arg<unsigned int>, fmt::v11::format_specs const&, fmt::v11::detail::locale_ref)::{lambda(fmt::v11::basic_appender<char>)#4})::{lambda(fmt::v11::basic_appender<char>&)#1})
FUNC b791c 104 0 fmt::v11::detail::write_int<char, fmt::v11::basic_appender<char>, fmt::v11::detail::write_int<char, fmt::v11::basic_appender<char>, unsigned int>(fmt::v11::basic_appender<char>, fmt::v11::detail::write_int_arg<unsigned int>, fmt::v11::format_specs const&, fmt::v11::detail::locale_ref)::{lambda(fmt::v11::basic_appender<char>)#4}>(fmt::v11::basic_appender<char>, int, unsigned int, fmt::v11::format_specs const&, fmt::v11::detail::write_int<char, fmt::v11::basic_appender<char>, unsigned int>(fmt::v11::basic_appender<char>, fmt::v11::detail::write_int_arg<unsigned int>, fmt::v11::format_specs const&, fmt::v11::detail::locale_ref)::{lambda(fmt::v11::basic_appender<char>)#4})::{lambda(fmt::v11::basic_appender<char>(fmt::v11::basic_appender<char>))#1}::operator() const
FUNC b7a20 84 0 fmt::v11::detail::write_padded<char, (fmt::v11::align::type)1, fmt::v11::basic_appender<char>, fmt::v11::detail::write_char<char, fmt::v11::basic_appender<char> >(fmt::v11::basic_appender<char>, char, fmt::v11::format_specs const&)::{lambda(fmt::v11::basic_appender<char>)#1}>(fmt::v11::basic_appender<char>, fmt::v11::format_specs const&, unsigned long, fmt::v11::detail::write_char<char, fmt::v11::basic_appender<char> >(fmt::v11::basic_appender<char>, char, fmt::v11::format_specs const&)::{lambda(fmt::v11::basic_appender<char>&&)#1})
FUNC b7aa4 1d8 0 fmt::v11::detail::write_padded<char, (fmt::v11::align::type)1, fmt::v11::basic_appender<char>, fmt::v11::detail::write_char<char, fmt::v11::basic_appender<char> >(fmt::v11::basic_appender<char>, char, fmt::v11::format_specs const&)::{lambda(fmt::v11::basic_appender<char>&)#1}>(fmt::v11::basic_appender<char>, fmt::v11::format_specs const&, unsigned long, unsigned long, fmt::v11::detail::write_char<char, fmt::v11::basic_appender<char> >(fmt::v11::basic_appender<char>, char, fmt::v11::format_specs const&)::{lambda(fmt::v11::basic_appender<char>&)#1})
FUNC b7c7c c4 0 fmt::v11::detail::write_char<char, fmt::v11::basic_appender<char> >(fmt::v11::basic_appender<char>, char, fmt::v11::format_specs const&)::{lambda(fmt::v11::basic_appender<char>(fmt::v11::basic_appender<char>))#1}::operator() const
FUNC b7d40 13c 0 fmt::v11::detail::write_escaped_char<char, fmt::v11::basic_appender<char> >(fmt::v11::basic_appender<char>, char)
FUNC b7e7c a8 0 fmt::v11::detail::needs_escape(unsigned int)
FUNC b7f24 340 0 fmt::v11::detail::write_escaped_cp<fmt::v11::basic_appender<char>, char>(fmt::v11::basic_appender<char>, fmt::v11::detail::find_escape_result<char> const&)
FUNC b8264 f8 0 fmt::v11::detail::write_codepoint<(unsigned long)2, char, fmt::v11::basic_appender<char> >(fmt::v11::basic_appender<char>, char, unsigned int)
FUNC b835c f8 0 fmt::v11::detail::write_codepoint<(unsigned long)4, char, fmt::v11::basic_appender<char> >(fmt::v11::basic_appender<char>, char, unsigned int)
FUNC b8454 f8 0 fmt::v11::detail::write_codepoint<(unsigned long)8, char, fmt::v11::basic_appender<char> >(fmt::v11::basic_appender<char>, char, unsigned int)
FUNC b854c 78 0 fmt::v11::detail::fill_n<char, unsigned long>(char*, unsigned long, char)
FUNC b85c4 14 0 fmt::v11::detail::to_unsigned<unsigned long>(unsigned long)
FUNC b85d8 84 0 fmt::v11::detail::write_padded<char, (fmt::v11::align::type)1, fmt::v11::basic_appender<char>, fmt::v11::detail::write_bytes<char, (fmt::v11::align::type)1, fmt::v11::basic_appender<char> >(fmt::v11::basic_appender<char>, fmt::v11::basic_string_view<char>, fmt::v11::format_specs const&)::{lambda(fmt::v11::basic_appender<char>)#1}>(fmt::v11::basic_appender<char>, fmt::v11::format_specs const&, unsigned long, fmt::v11::detail::write_bytes<char, (fmt::v11::align::type)1, fmt::v11::basic_appender<char> >(fmt::v11::basic_appender<char>, fmt::v11::basic_string_view<char>, fmt::v11::format_specs const&)::{lambda(fmt::v11::basic_appender<char>&&)#1})
FUNC b865c 1d8 0 fmt::v11::detail::write_padded<char, (fmt::v11::align::type)1, fmt::v11::basic_appender<char>, fmt::v11::detail::write_bytes<char, (fmt::v11::align::type)1, fmt::v11::basic_appender<char> >(fmt::v11::basic_appender<char>, fmt::v11::basic_string_view<char>, fmt::v11::format_specs const&)::{lambda(fmt::v11::basic_appender<char>&)#1}>(fmt::v11::basic_appender<char>, fmt::v11::format_specs const&, unsigned long, unsigned long, fmt::v11::detail::write_bytes<char, (fmt::v11::align::type)1, fmt::v11::basic_appender<char> >(fmt::v11::basic_appender<char>, fmt::v11::basic_string_view<char>, fmt::v11::format_specs const&)::{lambda(fmt::v11::basic_appender<char>&)#1})
FUNC b8834 9c 0 fmt::v11::detail::write_bytes<char, (fmt::v11::align::type)1, fmt::v11::basic_appender<char> >(fmt::v11::basic_appender<char>, fmt::v11::basic_string_view<char>, fmt::v11::format_specs const&)::{lambda(fmt::v11::basic_appender<char>(fmt::v11::basic_appender<char>))#1}::operator() const
FUNC b88d0 64 0 fmt::v11::detail::fill_t::fill_t()
FUNC b8934 bc 0 fmt::v11::detail::write<char, fmt::v11::basic_appender<char> >(fmt::v11::basic_appender<char>, char)
FUNC b89f0 16c 0 fmt::v11::detail::write<char, fmt::v11::basic_appender<char>, float, 0>(fmt::v11::basic_appender<char>, float)
FUNC b8b5c 20 0 fmt::v11::detail::const_check<bool>(bool)
FUNC b8b7c 18 0 fmt::v11::detail::is_supported_floating_point<float>(float)
FUNC b8b94 2c 0 fmt::v11::detail::signbit<float, 0>(float)
FUNC b8bc0 19c 0 fmt::v11::detail::write_nonfinite<char, fmt::v11::basic_appender<char> >(fmt::v11::basic_appender<char>, bool, fmt::v11::format_specs, fmt::v11::sign::type)
FUNC b8d5c 20 0 isnan([abi:v170000], float)
FUNC b8d7c 98 0 fmt::v11::detail::write_float<char, fmt::v11::basic_appender<char>, fmt::v11::detail::dragonbox::decimal_fp<float> >(fmt::v11::basic_appender<char>, fmt::v11::detail::dragonbox::decimal_fp<float> const&, fmt::v11::format_specs const&, fmt::v11::detail::float_specs, fmt::v11::detail::locale_ref)
FUNC b8e14 20 0 _Z7signbitB7v170000IdLi0EEbT_
FUNC b8e34 28 0 fmt::v11::detail::fill_t::operator=(char)
FUNC b8e5c 84 0 fmt::v11::detail::write_padded<char, (fmt::v11::align::type)1, fmt::v11::basic_appender<char>, fmt::v11::detail::write_nonfinite<char, fmt::v11::basic_appender<char> >(fmt::v11::basic_appender<char>, bool, fmt::v11::format_specs, fmt::v11::sign::type)::{lambda(fmt::v11::basic_appender<char>)#1}>(fmt::v11::basic_appender<char>, fmt::v11::format_specs const&, unsigned long, fmt::v11::detail::write_nonfinite<char, fmt::v11::basic_appender<char> >(fmt::v11::basic_appender<char>, bool, fmt::v11::format_specs, fmt::v11::sign::type)::{lambda(fmt::v11::basic_appender<char>&&)#1})
FUNC b8ee0 1d8 0 fmt::v11::detail::write_padded<char, (fmt::v11::align::type)1, fmt::v11::basic_appender<char>, fmt::v11::detail::write_nonfinite<char, fmt::v11::basic_appender<char> >(fmt::v11::basic_appender<char>, bool, fmt::v11::format_specs, fmt::v11::sign::type)::{lambda(fmt::v11::basic_appender<char>&)#1}>(fmt::v11::basic_appender<char>, fmt::v11::format_specs const&, unsigned long, unsigned long, fmt::v11::detail::write_nonfinite<char, fmt::v11::basic_appender<char> >(fmt::v11::basic_appender<char>, bool, fmt::v11::format_specs, fmt::v11::sign::type)::{lambda(fmt::v11::basic_appender<char>&)#1})
FUNC b90b8 c0 0 fmt::v11::detail::write_nonfinite<char, fmt::v11::basic_appender<char> >(fmt::v11::basic_appender<char>, bool, fmt::v11::format_specs, fmt::v11::sign::type)::{lambda(fmt::v11::basic_appender<char>(fmt::v11::basic_appender<char>))#1}::operator() const
FUNC b9178 24 0 fmt::v11::detail::sign<char, fmt::v11::sign::type>(fmt::v11::sign::type)
FUNC b919c 7a0 0 fmt::v11::detail::do_write_float<char, fmt::v11::basic_appender<char>, fmt::v11::detail::dragonbox::decimal_fp<float>, fmt::v11::detail::digit_grouping<char> >(fmt::v11::basic_appender<char>, fmt::v11::detail::dragonbox::decimal_fp<float> const&, fmt::v11::format_specs const&, fmt::v11::detail::float_specs, fmt::v11::detail::locale_ref)
FUNC b993c 28 0 fmt::v11::detail::get_significand_size<float>(fmt::v11::detail::dragonbox::decimal_fp<float> const&)
FUNC b9964 60 0 fmt::v11::detail::decimal_point<char>(fmt::v11::detail::locale_ref)
FUNC b99c4 110 0 fmt::v11::detail::do_write_float<char, fmt::v11::basic_appender<char>, fmt::v11::detail::dragonbox::decimal_fp<float>, fmt::v11::detail::digit_grouping<char> >(fmt::v11::basic_appender<char>, fmt::v11::detail::dragonbox::decimal_fp<float> const&, fmt::v11::format_specs const&, fmt::v11::detail::float_specs, fmt::v11::detail::locale_ref)::{lambda()#1}::operator()() const
FUNC b9ad4 84 0 fmt::v11::detail::write_padded<char, (fmt::v11::align::type)2, fmt::v11::basic_appender<char>, fmt::v11::detail::do_write_float<char, fmt::v11::basic_appender<char>, fmt::v11::detail::dragonbox::decimal_fp<float>, fmt::v11::detail::digit_grouping<char> >(fmt::v11::basic_appender<char>, fmt::v11::detail::dragonbox::decimal_fp<float> const&, fmt::v11::format_specs const&, fmt::v11::detail::float_specs, fmt::v11::detail::locale_ref)::{lambda(fmt::v11::basic_appender<char>&)#1}>(fmt::v11::basic_appender<char>, fmt::v11::format_specs const&, unsigned long, fmt::v11::detail::do_write_float<char, fmt::v11::basic_appender<char>, fmt::v11::detail::dragonbox::decimal_fp<float>, fmt::v11::detail::digit_grouping<char> >(fmt::v11::basic_appender<char>, fmt::v11::detail::dragonbox::decimal_fp<float> const&, fmt::v11::format_specs const&, fmt::v11::detail::float_specs, fmt::v11::detail::locale_ref)::{lambda(fmt::v11::basic_appender<char>&)#1})
FUNC b9b58 158 0 fmt::v11::detail::do_write_float<char, fmt::v11::basic_appender<char>, fmt::v11::detail::dragonbox::decimal_fp<float>, fmt::v11::detail::digit_grouping<char> >(fmt::v11::basic_appender<char>, fmt::v11::detail::dragonbox::decimal_fp<float> const&, fmt::v11::format_specs const&, fmt::v11::detail::float_specs, fmt::v11::detail::locale_ref)::{lambda(fmt::v11::basic_appender<char>(fmt::v11::basic_appender<char>))#1}::operator() const
FUNC b9cb0 150 0 fmt::v11::detail::digit_grouping<char>::digit_grouping(fmt::v11::detail::locale_ref, bool)
FUNC b9e00 ac 0 fmt::v11::detail::digit_grouping<char>::count_separators(int) const
FUNC b9eac 84 0 fmt::v11::detail::write_padded<char, (fmt::v11::align::type)2, fmt::v11::basic_appender<char>, fmt::v11::detail::do_write_float<char, fmt::v11::basic_appender<char>, fmt::v11::detail::dragonbox::decimal_fp<float>, fmt::v11::detail::digit_grouping<char> >(fmt::v11::basic_appender<char>, fmt::v11::detail::dragonbox::decimal_fp<float> const&, fmt::v11::format_specs const&, fmt::v11::detail::float_specs, fmt::v11::detail::locale_ref)::{lambda(fmt::v11::basic_appender<char>)#2}>(fmt::v11::basic_appender<char>, fmt::v11::format_specs const&, unsigned long, fmt::v11::detail::do_write_float<char, fmt::v11::basic_appender<char>, fmt::v11::detail::dragonbox::decimal_fp<float>, fmt::v11::detail::digit_grouping<char> >(fmt::v11::basic_appender<char>, fmt::v11::detail::dragonbox::decimal_fp<float> const&, fmt::v11::format_specs const&, fmt::v11::detail::float_specs, fmt::v11::detail::locale_ref)::{lambda(fmt::v11::basic_appender<char>&&)#2})
FUNC b9f30 34 0 fmt::v11::detail::digit_grouping<char>::~digit_grouping()
FUNC b9f64 84 0 fmt::v11::detail::write_padded<char, (fmt::v11::align::type)2, fmt::v11::basic_appender<char>, fmt::v11::detail::do_write_float<char, fmt::v11::basic_appender<char>, fmt::v11::detail::dragonbox::decimal_fp<float>, fmt::v11::detail::digit_grouping<char> >(fmt::v11::basic_appender<char>, fmt::v11::detail::dragonbox::decimal_fp<float> const&, fmt::v11::format_specs const&, fmt::v11::detail::float_specs, fmt::v11::detail::locale_ref)::{lambda(fmt::v11::basic_appender<char>)#3}>(fmt::v11::basic_appender<char>, fmt::v11::format_specs const&, unsigned long, fmt::v11::detail::do_write_float<char, fmt::v11::basic_appender<char>, fmt::v11::detail::dragonbox::decimal_fp<float>, fmt::v11::detail::digit_grouping<char> >(fmt::v11::basic_appender<char>, fmt::v11::detail::dragonbox::decimal_fp<float> const&, fmt::v11::format_specs const&, fmt::v11::detail::float_specs, fmt::v11::detail::locale_ref)::{lambda(fmt::v11::basic_appender<char>&&)#3})
FUNC b9fe8 84 0 fmt::v11::detail::write_padded<char, (fmt::v11::align::type)2, fmt::v11::basic_appender<char>, fmt::v11::detail::do_write_float<char, fmt::v11::basic_appender<char>, fmt::v11::detail::dragonbox::decimal_fp<float>, fmt::v11::detail::digit_grouping<char> >(fmt::v11::basic_appender<char>, fmt::v11::detail::dragonbox::decimal_fp<float> const&, fmt::v11::format_specs const&, fmt::v11::detail::float_specs, fmt::v11::detail::locale_ref)::{lambda(fmt::v11::basic_appender<char>)#4}>(fmt::v11::basic_appender<char>, fmt::v11::format_specs const&, unsigned long, fmt::v11::detail::do_write_float<char, fmt::v11::basic_appender<char>, fmt::v11::detail::dragonbox::decimal_fp<float>, fmt::v11::detail::digit_grouping<char> >(fmt::v11::basic_appender<char>, fmt::v11::detail::dragonbox::decimal_fp<float> const&, fmt::v11::format_specs const&, fmt::v11::detail::float_specs, fmt::v11::detail::locale_ref)::{lambda(fmt::v11::basic_appender<char>&&)#4})
FUNC ba06c 1d8 0 fmt::v11::detail::write_padded<char, (fmt::v11::align::type)2, fmt::v11::basic_appender<char>, fmt::v11::detail::do_write_float<char, fmt::v11::basic_appender<char>, fmt::v11::detail::dragonbox::decimal_fp<float>, fmt::v11::detail::digit_grouping<char> >(fmt::v11::basic_appender<char>, fmt::v11::detail::dragonbox::decimal_fp<float> const&, fmt::v11::format_specs const&, fmt::v11::detail::float_specs, fmt::v11::detail::locale_ref)::{lambda(fmt::v11::basic_appender<char>&)#1}>(fmt::v11::basic_appender<char>, fmt::v11::format_specs const&, unsigned long, unsigned long, fmt::v11::detail::do_write_float<char, fmt::v11::basic_appender<char>, fmt::v11::detail::dragonbox::decimal_fp<float>, fmt::v11::detail::digit_grouping<char> >(fmt::v11::basic_appender<char>, fmt::v11::detail::dragonbox::decimal_fp<float> const&, fmt::v11::format_specs const&, fmt::v11::detail::float_specs, fmt::v11::detail::locale_ref)::{lambda(fmt::v11::basic_appender<char>&)#1})
FUNC ba244 a4 0 fmt::v11::detail::write_significand<fmt::v11::basic_appender<char>, unsigned int, char, 0>(fmt::v11::basic_appender<char>, unsigned int, int, int, char)
FUNC ba2e8 c0 0 fmt::v11::detail::fill_n<fmt::v11::basic_appender<char>, int, char>(fmt::v11::basic_appender<char>, int, char const&)
FUNC ba3a8 284 0 fmt::v11::detail::write_exponent<char, fmt::v11::basic_appender<char> >(int, fmt::v11::basic_appender<char>)
FUNC ba62c 1c4 0 fmt::v11::detail::write_significand<char, unsigned int, 0>(char*, unsigned int, int, int, char)
FUNC ba7f0 c8 0 fmt::v11::detail::thousands_sep<char>(fmt::v11::detail::locale_ref)
FUNC ba8b8 24 0 fmt::v11::detail::thousands_sep_result<char>::~thousands_sep_result()
FUNC ba8dc 74 0 fmt::v11::detail::digit_grouping<char>::initial_state() const
FUNC ba950 150 0 fmt::v11::detail::digit_grouping<char>::next(fmt::v11::detail::digit_grouping<char>::next_state&) const
FUNC baaa0 4c 0 std::__ndk1::basic_string<char, std::__ndk1::char_traits<char>, std::__ndk1::allocator<char> >::begin[abi:v170000]() const
FUNC baaec 68 0 std::__ndk1::basic_string<char, std::__ndk1::char_traits<char>, std::__ndk1::allocator<char> >::__make_const_iterator[abi:v170000](char const*) const
FUNC bab54 24 0 std::__ndk1::__wrap_iter<char const*>::__wrap_iter[abi:v170000](void const*, char const*)
FUNC bab78 14 0 fmt::v11::detail::max_value<int>()
FUNC bab8c 48 0 std::__ndk1::operator==[abi:v170000]<char const*>(std::__ndk1::__wrap_iter<char const*> const&, std::__ndk1::__wrap_iter<char const*> const)
FUNC babd4 54 0 std::__ndk1::basic_string<char, std::__ndk1::char_traits<char>, std::__ndk1::allocator<char> >::end[abi:v170000]() const
FUNC bac28 48 0 std::__ndk1::basic_string<char, std::__ndk1::char_traits<char>, std::__ndk1::allocator<char> >::back[abi:v170000]() const
FUNC bac70 18 0 std::__ndk1::__wrap_iter<char const*>::operator*[abi:v170000]() const
FUNC bac88 14 0 fmt::v11::detail::max_value<char>()
FUNC bac9c 68 0 std::__ndk1::__wrap_iter<char const*>::operator++[abi:v170000](int)
FUNC bad04 14 0 std::__ndk1::numeric_limits<int>::max[abi:v170000]()
FUNC bad18 8 0 std::__ndk1::__libcpp_numeric_limits<int, true>::max[abi:v170000]()
FUNC bad20 18 0 std::__ndk1::__wrap_iter<char const*>::base[abi:v170000]() const
FUNC bad38 14 0 std::__ndk1::numeric_limits<char>::max[abi:v170000]()
FUNC bad4c 8 0 std::__ndk1::__libcpp_numeric_limits<char, true>::max[abi:v170000]()
FUNC bad54 20 0 std::__ndk1::__wrap_iter<char const*>::operator++[abi:v170000]()
FUNC bad74 1d8 0 fmt::v11::detail::write_padded<char, (fmt::v11::align::type)2, fmt::v11::basic_appender<char>, fmt::v11::detail::do_write_float<char, fmt::v11::basic_appender<char>, fmt::v11::detail::dragonbox::decimal_fp<float>, fmt::v11::detail::digit_grouping<char> >(fmt::v11::basic_appender<char>, fmt::v11::detail::dragonbox::decimal_fp<float> const&, fmt::v11::format_specs const&, fmt::v11::detail::float_specs, fmt::v11::detail::locale_ref)::{lambda(fmt::v11::basic_appender<char>&)#2}>(fmt::v11::basic_appender<char>, fmt::v11::format_specs const&, unsigned long, unsigned long, fmt::v11::detail::do_write_float<char, fmt::v11::basic_appender<char>, fmt::v11::detail::dragonbox::decimal_fp<float>, fmt::v11::detail::digit_grouping<char> >(fmt::v11::basic_appender<char>, fmt::v11::detail::dragonbox::decimal_fp<float> const&, fmt::v11::format_specs const&, fmt::v11::detail::float_specs, fmt::v11::detail::locale_ref)::{lambda(fmt::v11::basic_appender<char>&)#2})
FUNC baf4c 184 0 fmt::v11::detail::do_write_float<char, fmt::v11::basic_appender<char>, fmt::v11::detail::dragonbox::decimal_fp<float>, fmt::v11::detail::digit_grouping<char> >(fmt::v11::basic_appender<char>, fmt::v11::detail::dragonbox::decimal_fp<float> const&, fmt::v11::format_specs const&, fmt::v11::detail::float_specs, fmt::v11::detail::locale_ref)::{lambda(fmt::v11::basic_appender<char>(fmt::v11::basic_appender<char>))#2}::operator() const
FUNC bb0d0 1f4 0 fmt::v11::detail::write_significand<char, fmt::v11::basic_appender<char>, unsigned int, fmt::v11::detail::digit_grouping<char> >(fmt::v11::basic_appender<char>, unsigned int, int, int, fmt::v11::detail::digit_grouping<char> const&)
FUNC bb2c4 30 0 fmt::v11::detail::digit_grouping<char>::has_separator() const
FUNC bb2f4 84 0 fmt::v11::detail::write_significand<char, fmt::v11::basic_appender<char>, unsigned int>(fmt::v11::basic_appender<char>, unsigned int, int)
FUNC bb378 2b4 0 fmt::v11::detail::digit_grouping<char>::apply<fmt::v11::basic_appender<char>, char>(fmt::v11::basic_appender<char>, fmt::v11::basic_string_view<char>) const
FUNC bb62c 54 0 fmt::v11::basic_memory_buffer<int, (unsigned long)500, std::__ndk1::allocator<int> >::basic_memory_buffer(std::__ndk1::allocator<int> const&)
FUNC bb680 54 0 fmt::v11::detail::buffer<int>::push_back(int const&)
FUNC bb6d4 18 0 fmt::v11::detail::buffer<int>::size() const
FUNC bb6ec 24 0 fmt::v11::detail::buffer<int>::operator[]<int>(int)
FUNC bb710 24 0 fmt::v11::basic_string_view<char>::operator[](unsigned long) const
FUNC bb734 2c 0 fmt::v11::basic_memory_buffer<int, (unsigned long)500, std::__ndk1::allocator<int> >::~basic_memory_buffer()
FUNC bb760 1b0 0 fmt::v11::basic_memory_buffer<int, (unsigned long)500, std::__ndk1::allocator<int> >::grow(fmt::v11::detail::buffer<int>&, unsigned long)
FUNC bb910 44 0 fmt::v11::detail::buffer<int>::buffer(void (*)(fmt::v11::detail::buffer<int>&, unsigned long), int*, unsigned long, unsigned long)
FUNC bb954 2c 0 fmt::v11::detail::buffer<int>::set(int*, unsigned long)
FUNC bb980 28 0 std::__ndk1::allocator_traits<std::__ndk1::allocator<int> >::max_size[abi:v170000]<std::__ndk1::allocator<int>, void, void>(std::__ndk1::allocator<int> const&)
FUNC bb9a8 18 0 fmt::v11::detail::buffer<int>::capacity() const
FUNC bb9c0 18 0 fmt::v11::detail::buffer<int>::data()
FUNC bb9d8 58 0 std::__ndk1::allocator<int>::allocate[abi:v170000](unsigned long)
FUNC bba30 54 0 fmt::v11::detail::buffer<int>::try_reserve(unsigned long)
FUNC bba84 6c 0 fmt::v11::basic_memory_buffer<int, (unsigned long)500, std::__ndk1::allocator<int> >::deallocate()
FUNC bbaf0 1d8 0 fmt::v11::detail::write_padded<char, (fmt::v11::align::type)2, fmt::v11::basic_appender<char>, fmt::v11::detail::do_write_float<char, fmt::v11::basic_appender<char>, fmt::v11::detail::dragonbox::decimal_fp<float>, fmt::v11::detail::digit_grouping<char> >(fmt::v11::basic_appender<char>, fmt::v11::detail::dragonbox::decimal_fp<float> const&, fmt::v11::format_specs const&, fmt::v11::detail::float_specs, fmt::v11::detail::locale_ref)::{lambda(fmt::v11::basic_appender<char>&)#3}>(fmt::v11::basic_appender<char>, fmt::v11::format_specs const&, unsigned long, unsigned long, fmt::v11::detail::do_write_float<char, fmt::v11::basic_appender<char>, fmt::v11::detail::dragonbox::decimal_fp<float>, fmt::v11::detail::digit_grouping<char> >(fmt::v11::basic_appender<char>, fmt::v11::detail::dragonbox::decimal_fp<float> const&, fmt::v11::format_specs const&, fmt::v11::detail::float_specs, fmt::v11::detail::locale_ref)::{lambda(fmt::v11::basic_appender<char>&)#3})
FUNC bbcc8 138 0 fmt::v11::detail::do_write_float<char, fmt::v11::basic_appender<char>, fmt::v11::detail::dragonbox::decimal_fp<float>, fmt::v11::detail::digit_grouping<char> >(fmt::v11::basic_appender<char>, fmt::v11::detail::dragonbox::decimal_fp<float> const&, fmt::v11::format_specs const&, fmt::v11::detail::float_specs, fmt::v11::detail::locale_ref)::{lambda(fmt::v11::basic_appender<char>(fmt::v11::basic_appender<char>))#3}::operator() const
FUNC bbe00 1f8 0 fmt::v11::detail::write_significand<fmt::v11::basic_appender<char>, char, unsigned int, fmt::v11::detail::digit_grouping<char> >(fmt::v11::basic_appender<char>, unsigned int, int, int, char, fmt::v11::detail::digit_grouping<char> const&)
FUNC bbff8 20 0 fmt::v11::detail::buffer<char>::end()
FUNC bc018 1d8 0 fmt::v11::detail::write_padded<char, (fmt::v11::align::type)2, fmt::v11::basic_appender<char>, fmt::v11::detail::do_write_float<char, fmt::v11::basic_appender<char>, fmt::v11::detail::dragonbox::decimal_fp<float>, fmt::v11::detail::digit_grouping<char> >(fmt::v11::basic_appender<char>, fmt::v11::detail::dragonbox::decimal_fp<float> const&, fmt::v11::format_specs const&, fmt::v11::detail::float_specs, fmt::v11::detail::locale_ref)::{lambda(fmt::v11::basic_appender<char>&)#4}>(fmt::v11::basic_appender<char>, fmt::v11::format_specs const&, unsigned long, unsigned long, fmt::v11::detail::do_write_float<char, fmt::v11::basic_appender<char>, fmt::v11::detail::dragonbox::decimal_fp<float>, fmt::v11::detail::digit_grouping<char> >(fmt::v11::basic_appender<char>, fmt::v11::detail::dragonbox::decimal_fp<float> const&, fmt::v11::format_specs const&, fmt::v11::detail::float_specs, fmt::v11::detail::locale_ref)::{lambda(fmt::v11::basic_appender<char>&)#4})
FUNC bc1f0 170 0 fmt::v11::detail::do_write_float<char, fmt::v11::basic_appender<char>, fmt::v11::detail::dragonbox::decimal_fp<float>, fmt::v11::detail::digit_grouping<char> >(fmt::v11::basic_appender<char>, fmt::v11::detail::dragonbox::decimal_fp<float> const&, fmt::v11::format_specs const&, fmt::v11::detail::float_specs, fmt::v11::detail::locale_ref)::{lambda(fmt::v11::basic_appender<char>(fmt::v11::basic_appender<char>))#4}::operator() const
FUNC bc360 170 0 fmt::v11::detail::write<char, fmt::v11::basic_appender<char>, double, 0>(fmt::v11::basic_appender<char>, double)
FUNC bc4d0 18 0 fmt::v11::detail::is_supported_floating_point<double>(double)
FUNC bc4e8 28 0 fmt::v11::detail::signbit<double, 0>(double)
FUNC bc510 20 0 _Z5isnanB7v170000Ua9enable_ifILb1EEd
FUNC bc530 98 0 fmt::v11::detail::write_float<char, fmt::v11::basic_appender<char>, fmt::v11::detail::dragonbox::decimal_fp<double> >(fmt::v11::basic_appender<char>, fmt::v11::detail::dragonbox::decimal_fp<double> const&, fmt::v11::format_specs const&, fmt::v11::detail::float_specs, fmt::v11::detail::locale_ref)
FUNC bc5c8 7a4 0 fmt::v11::detail::do_write_float<char, fmt::v11::basic_appender<char>, fmt::v11::detail::dragonbox::decimal_fp<double>, fmt::v11::detail::digit_grouping<char> >(fmt::v11::basic_appender<char>, fmt::v11::detail::dragonbox::decimal_fp<double> const&, fmt::v11::format_specs const&, fmt::v11::detail::float_specs, fmt::v11::detail::locale_ref)
FUNC bcd6c 28 0 fmt::v11::detail::get_significand_size<double>(fmt::v11::detail::dragonbox::decimal_fp<double> const&)
FUNC bcd94 110 0 fmt::v11::detail::do_write_float<char, fmt::v11::basic_appender<char>, fmt::v11::detail::dragonbox::decimal_fp<double>, fmt::v11::detail::digit_grouping<char> >(fmt::v11::basic_appender<char>, fmt::v11::detail::dragonbox::decimal_fp<double> const&, fmt::v11::format_specs const&, fmt::v11::detail::float_specs, fmt::v11::detail::locale_ref)::{lambda()#1}::operator()() const
FUNC bcea4 84 0 fmt::v11::detail::write_padded<char, (fmt::v11::align::type)2, fmt::v11::basic_appender<char>, fmt::v11::detail::do_write_float<char, fmt::v11::basic_appender<char>, fmt::v11::detail::dragonbox::decimal_fp<double>, fmt::v11::detail::digit_grouping<char> >(fmt::v11::basic_appender<char>, fmt::v11::detail::dragonbox::decimal_fp<double> const&, fmt::v11::format_specs const&, fmt::v11::detail::float_specs, fmt::v11::detail::locale_ref)::{lambda(fmt::v11::basic_appender<char>&)#1}>(fmt::v11::basic_appender<char>, fmt::v11::format_specs const&, unsigned long, fmt::v11::detail::do_write_float<char, fmt::v11::basic_appender<char>, fmt::v11::detail::dragonbox::decimal_fp<double>, fmt::v11::detail::digit_grouping<char> >(fmt::v11::basic_appender<char>, fmt::v11::detail::dragonbox::decimal_fp<double> const&, fmt::v11::format_specs const&, fmt::v11::detail::float_specs, fmt::v11::detail::locale_ref)::{lambda(fmt::v11::basic_appender<char>&)#1})
FUNC bcf28 158 0 fmt::v11::detail::do_write_float<char, fmt::v11::basic_appender<char>, fmt::v11::detail::dragonbox::decimal_fp<double>, fmt::v11::detail::digit_grouping<char> >(fmt::v11::basic_appender<char>, fmt::v11::detail::dragonbox::decimal_fp<double> const&, fmt::v11::format_specs const&, fmt::v11::detail::float_specs, fmt::v11::detail::locale_ref)::{lambda(fmt::v11::basic_appender<char>(fmt::v11::basic_appender<char>))#1}::operator() const
FUNC bd080 84 0 fmt::v11::detail::write_padded<char, (fmt::v11::align::type)2, fmt::v11::basic_appender<char>, fmt::v11::detail::do_write_float<char, fmt::v11::basic_appender<char>, fmt::v11::detail::dragonbox::decimal_fp<double>, fmt::v11::detail::digit_grouping<char> >(fmt::v11::basic_appender<char>, fmt::v11::detail::dragonbox::decimal_fp<double> const&, fmt::v11::format_specs const&, fmt::v11::detail::float_specs, fmt::v11::detail::locale_ref)::{lambda(fmt::v11::basic_appender<char>)#2}>(fmt::v11::basic_appender<char>, fmt::v11::format_specs const&, unsigned long, fmt::v11::detail::do_write_float<char, fmt::v11::basic_appender<char>, fmt::v11::detail::dragonbox::decimal_fp<double>, fmt::v11::detail::digit_grouping<char> >(fmt::v11::basic_appender<char>, fmt::v11::detail::dragonbox::decimal_fp<double> const&, fmt::v11::format_specs const&, fmt::v11::detail::float_specs, fmt::v11::detail::locale_ref)::{lambda(fmt::v11::basic_appender<char>&&)#2})
FUNC bd104 84 0 fmt::v11::detail::write_padded<char, (fmt::v11::align::type)2, fmt::v11::basic_appender<char>, fmt::v11::detail::do_write_float<char, fmt::v11::basic_appender<char>, fmt::v11::detail::dragonbox::decimal_fp<double>, fmt::v11::detail::digit_grouping<char> >(fmt::v11::basic_appender<char>, fmt::v11::detail::dragonbox::decimal_fp<double> const&, fmt::v11::format_specs const&, fmt::v11::detail::float_specs, fmt::v11::detail::locale_ref)::{lambda(fmt::v11::basic_appender<char>)#3}>(fmt::v11::basic_appender<char>, fmt::v11::format_specs const&, unsigned long, fmt::v11::detail::do_write_float<char, fmt::v11::basic_appender<char>, fmt::v11::detail::dragonbox::decimal_fp<double>, fmt::v11::detail::digit_grouping<char> >(fmt::v11::basic_appender<char>, fmt::v11::detail::dragonbox::decimal_fp<double> const&, fmt::v11::format_specs const&, fmt::v11::detail::float_specs, fmt::v11::detail::locale_ref)::{lambda(fmt::v11::basic_appender<char>&&)#3})
FUNC bd188 84 0 fmt::v11::detail::write_padded<char, (fmt::v11::align::type)2, fmt::v11::basic_appender<char>, fmt::v11::detail::do_write_float<char, fmt::v11::basic_appender<char>, fmt::v11::detail::dragonbox::decimal_fp<double>, fmt::v11::detail::digit_grouping<char> >(fmt::v11::basic_appender<char>, fmt::v11::detail::dragonbox::decimal_fp<double> const&, fmt::v11::format_specs const&, fmt::v11::detail::float_specs, fmt::v11::detail::locale_ref)::{lambda(fmt::v11::basic_appender<char>)#4}>(fmt::v11::basic_appender<char>, fmt::v11::format_specs const&, unsigned long, fmt::v11::detail::do_write_float<char, fmt::v11::basic_appender<char>, fmt::v11::detail::dragonbox::decimal_fp<double>, fmt::v11::detail::digit_grouping<char> >(fmt::v11::basic_appender<char>, fmt::v11::detail::dragonbox::decimal_fp<double> const&, fmt::v11::format_specs const&, fmt::v11::detail::float_specs, fmt::v11::detail::locale_ref)::{lambda(fmt::v11::basic_appender<char>&&)#4})
FUNC bd20c 1d8 0 fmt::v11::detail::write_padded<char, (fmt::v11::align::type)2, fmt::v11::basic_appender<char>, fmt::v11::detail::do_write_float<char, fmt::v11::basic_appender<char>, fmt::v11::detail::dragonbox::decimal_fp<double>, fmt::v11::detail::digit_grouping<char> >(fmt::v11::basic_appender<char>, fmt::v11::detail::dragonbox::decimal_fp<double> const&, fmt::v11::format_specs const&, fmt::v11::detail::float_specs, fmt::v11::detail::locale_ref)::{lambda(fmt::v11::basic_appender<char>&)#1}>(fmt::v11::basic_appender<char>, fmt::v11::format_specs const&, unsigned long, unsigned long, fmt::v11::detail::do_write_float<char, fmt::v11::basic_appender<char>, fmt::v11::detail::dragonbox::decimal_fp<double>, fmt::v11::detail::digit_grouping<char> >(fmt::v11::basic_appender<char>, fmt::v11::detail::dragonbox::decimal_fp<double> const&, fmt::v11::format_specs const&, fmt::v11::detail::float_specs, fmt::v11::detail::locale_ref)::{lambda(fmt::v11::basic_appender<char>&)#1})
FUNC bd3e4 a4 0 fmt::v11::detail::write_significand<fmt::v11::basic_appender<char>, unsigned long, char, 0>(fmt::v11::basic_appender<char>, unsigned long, int, int, char)
FUNC bd488 1bc 0 fmt::v11::detail::write_significand<char, unsigned long, 0>(char*, unsigned long, int, int, char)
FUNC bd644 1d8 0 fmt::v11::detail::write_padded<char, (fmt::v11::align::type)2, fmt::v11::basic_appender<char>, fmt::v11::detail::do_write_float<char, fmt::v11::basic_appender<char>, fmt::v11::detail::dragonbox::decimal_fp<double>, fmt::v11::detail::digit_grouping<char> >(fmt::v11::basic_appender<char>, fmt::v11::detail::dragonbox::decimal_fp<double> const&, fmt::v11::format_specs const&, fmt::v11::detail::float_specs, fmt::v11::detail::locale_ref)::{lambda(fmt::v11::basic_appender<char>&)#2}>(fmt::v11::basic_appender<char>, fmt::v11::format_specs const&, unsigned long, unsigned long, fmt::v11::detail::do_write_float<char, fmt::v11::basic_appender<char>, fmt::v11::detail::dragonbox::decimal_fp<double>, fmt::v11::detail::digit_grouping<char> >(fmt::v11::basic_appender<char>, fmt::v11::detail::dragonbox::decimal_fp<double> const&, fmt::v11::format_specs const&, fmt::v11::detail::float_specs, fmt::v11::detail::locale_ref)::{lambda(fmt::v11::basic_appender<char>&)#2})
FUNC bd81c 184 0 fmt::v11::detail::do_write_float<char, fmt::v11::basic_appender<char>, fmt::v11::detail::dragonbox::decimal_fp<double>, fmt::v11::detail::digit_grouping<char> >(fmt::v11::basic_appender<char>, fmt::v11::detail::dragonbox::decimal_fp<double> const&, fmt::v11::format_specs const&, fmt::v11::detail::float_specs, fmt::v11::detail::locale_ref)::{lambda(fmt::v11::basic_appender<char>(fmt::v11::basic_appender<char>))#2}::operator() const
FUNC bd9a0 1f4 0 fmt::v11::detail::write_significand<char, fmt::v11::basic_appender<char>, unsigned long, fmt::v11::detail::digit_grouping<char> >(fmt::v11::basic_appender<char>, unsigned long, int, int, fmt::v11::detail::digit_grouping<char> const&)
FUNC bdb94 84 0 fmt::v11::detail::write_significand<char, fmt::v11::basic_appender<char>, unsigned long>(fmt::v11::basic_appender<char>, unsigned long, int)
FUNC bdc18 1d8 0 fmt::v11::detail::write_padded<char, (fmt::v11::align::type)2, fmt::v11::basic_appender<char>, fmt::v11::detail::do_write_float<char, fmt::v11::basic_appender<char>, fmt::v11::detail::dragonbox::decimal_fp<double>, fmt::v11::detail::digit_grouping<char> >(fmt::v11::basic_appender<char>, fmt::v11::detail::dragonbox::decimal_fp<double> const&, fmt::v11::format_specs const&, fmt::v11::detail::float_specs, fmt::v11::detail::locale_ref)::{lambda(fmt::v11::basic_appender<char>&)#3}>(fmt::v11::basic_appender<char>, fmt::v11::format_specs const&, unsigned long, unsigned long, fmt::v11::detail::do_write_float<char, fmt::v11::basic_appender<char>, fmt::v11::detail::dragonbox::decimal_fp<double>, fmt::v11::detail::digit_grouping<char> >(fmt::v11::basic_appender<char>, fmt::v11::detail::dragonbox::decimal_fp<double> const&, fmt::v11::format_specs const&, fmt::v11::detail::float_specs, fmt::v11::detail::locale_ref)::{lambda(fmt::v11::basic_appender<char>&)#3})
FUNC bddf0 138 0 fmt::v11::detail::do_write_float<char, fmt::v11::basic_appender<char>, fmt::v11::detail::dragonbox::decimal_fp<double>, fmt::v11::detail::digit_grouping<char> >(fmt::v11::basic_appender<char>, fmt::v11::detail::dragonbox::decimal_fp<double> const&, fmt::v11::format_specs const&, fmt::v11::detail::float_specs, fmt::v11::detail::locale_ref)::{lambda(fmt::v11::basic_appender<char>(fmt::v11::basic_appender<char>))#3}::operator() const
FUNC bdf28 1f8 0 fmt::v11::detail::write_significand<fmt::v11::basic_appender<char>, char, unsigned long, fmt::v11::detail::digit_grouping<char> >(fmt::v11::basic_appender<char>, unsigned long, int, int, char, fmt::v11::detail::digit_grouping<char> const&)
FUNC be120 1d8 0 fmt::v11::detail::write_padded<char, (fmt::v11::align::type)2, fmt::v11::basic_appender<char>, fmt::v11::detail::do_write_float<char, fmt::v11::basic_appender<char>, fmt::v11::detail::dragonbox::decimal_fp<double>, fmt::v11::detail::digit_grouping<char> >(fmt::v11::basic_appender<char>, fmt::v11::detail::dragonbox::decimal_fp<double> const&, fmt::v11::format_specs const&, fmt::v11::detail::float_specs, fmt::v11::detail::locale_ref)::{lambda(fmt::v11::basic_appender<char>&)#4}>(fmt::v11::basic_appender<char>, fmt::v11::format_specs const&, unsigned long, unsigned long, fmt::v11::detail::do_write_float<char, fmt::v11::basic_appender<char>, fmt::v11::detail::dragonbox::decimal_fp<double>, fmt::v11::detail::digit_grouping<char> >(fmt::v11::basic_appender<char>, fmt::v11::detail::dragonbox::decimal_fp<double> const&, fmt::v11::format_specs const&, fmt::v11::detail::float_specs, fmt::v11::detail::locale_ref)::{lambda(fmt::v11::basic_appender<char>&)#4})
FUNC be2f8 170 0 fmt::v11::detail::do_write_float<char, fmt::v11::basic_appender<char>, fmt::v11::detail::dragonbox::decimal_fp<double>, fmt::v11::detail::digit_grouping<char> >(fmt::v11::basic_appender<char>, fmt::v11::detail::dragonbox::decimal_fp<double> const&, fmt::v11::format_specs const&, fmt::v11::detail::float_specs, fmt::v11::detail::locale_ref)::{lambda(fmt::v11::basic_appender<char>(fmt::v11::basic_appender<char>))#4}::operator() const
FUNC be468 94 0 fmt::v11::detail::write<char, fmt::v11::basic_appender<char>, long double, 0>(fmt::v11::basic_appender<char>, long double)
FUNC be4fc 118 0 fmt::v11::detail::write<char, fmt::v11::basic_appender<char>, long double, 0>(fmt::v11::basic_appender<char>, long double, fmt::v11::format_specs, fmt::v11::detail::locale_ref)
FUNC be614 18 0 fmt::v11::detail::is_supported_floating_point<long double>(long double)
FUNC be62c 58 0 fmt::v11::loc_value::loc_value<long double, 0>()
FUNC be684 4b0 0 fmt::v11::detail::write_float<char, fmt::v11::basic_appender<char>, long double>(fmt::v11::basic_appender<char>, long double, fmt::v11::format_specs, fmt::v11::detail::locale_ref)
FUNC beb34 84 0 fmt::v11::detail::make_arg<fmt::v11::context, long double>(long double&)
FUNC bebb8 88 0 fmt::v11::detail::make_arg<true, fmt::v11::context, long double, 0>(long double&)
FUNC bec40 2c 0 fmt::v11::detail::signbit<long double, 0>(long double)
FUNC bec6c 34 0 fmt::v11::detail::isfinite<long double, 0>(long double)
FUNC beca0 30 0 fmt::v11::detail::isnan<long double>(long double)
FUNC becd0 468 0 fmt::v11::detail::format_hexfloat<long double, 0>(long double, fmt::v11::format_specs, fmt::v11::detail::buffer<char>&)
FUNC bf138 14 0 fmt::v11::detail::convert_float<long double>(long double)
FUNC bf14c 98 0 fmt::v11::detail::write_bytes<char, (fmt::v11::align::type)2, fmt::v11::basic_appender<char> >(fmt::v11::basic_appender<char>, fmt::v11::basic_string_view<char>, fmt::v11::format_specs const&)
FUNC bf1e4 130 0 fmt::v11::detail::parse_float_type_spec(fmt::v11::format_specs const&)
FUNC bf314 3a0 0 fmt::v11::detail::format_float<long double>(long double, int, fmt::v11::detail::float_specs, fmt::v11::detail::buffer<char>&)
FUNC bf6b4 98 0 fmt::v11::detail::write_float<char, fmt::v11::basic_appender<char>, fmt::v11::detail::big_decimal_fp>(fmt::v11::basic_appender<char>, fmt::v11::detail::big_decimal_fp const&, fmt::v11::format_specs const&, fmt::v11::detail::float_specs, fmt::v11::detail::locale_ref)
FUNC bf74c 6c 0 _Z8isfiniteB7v170000IeLi0EEbT_
FUNC bf7b8 2c 0 fmt::v11::detail::basic_fp<unsigned __int128>::basic_fp<long double>()
FUNC bf7e4 18 0 fmt::v11::detail::countl_zero(unsigned int)
FUNC bf7fc 10c 0 fmt::v11::detail::format_uint<(unsigned int)4, char, unsigned __int128>(char*, unsigned __int128, int, bool)
FUNC bf908 160 0 fmt::v11::detail::basic_fp<unsigned __int128>::assign<long double, 0>(long double)
FUNC bfa68 9c 0 fmt::v11::detail::bit_cast<unsigned __int128, long double, 0>(long double const&)
FUNC bfb04 7c 0 fmt::v11::detail::exponent_mask<long double>()
FUNC bfb80 8 0 fmt::v11::detail::exponent_bias<long double>()
FUNC bfb88 8 0 fmt::v11::detail::num_significand_bits<long double>()
FUNC bfb90 84 0 fmt::v11::detail::write_padded<char, (fmt::v11::align::type)2, fmt::v11::basic_appender<char>, fmt::v11::detail::write_bytes<char, (fmt::v11::align::type)2, fmt::v11::basic_appender<char> >(fmt::v11::basic_appender<char>, fmt::v11::basic_string_view<char>, fmt::v11::format_specs const&)::{lambda(fmt::v11::basic_appender<char>)#1}>(fmt::v11::basic_appender<char>, fmt::v11::format_specs const&, unsigned long, fmt::v11::detail::write_bytes<char, (fmt::v11::align::type)2, fmt::v11::basic_appender<char> >(fmt::v11::basic_appender<char>, fmt::v11::basic_string_view<char>, fmt::v11::format_specs const&)::{lambda(fmt::v11::basic_appender<char>&&)#1})
FUNC bfc14 1d8 0 fmt::v11::detail::write_padded<char, (fmt::v11::align::type)2, fmt::v11::basic_appender<char>, fmt::v11::detail::write_bytes<char, (fmt::v11::align::type)2, fmt::v11::basic_appender<char> >(fmt::v11::basic_appender<char>, fmt::v11::basic_string_view<char>, fmt::v11::format_specs const&)::{lambda(fmt::v11::basic_appender<char>&)#1}>(fmt::v11::basic_appender<char>, fmt::v11::format_specs const&, unsigned long, unsigned long, fmt::v11::detail::write_bytes<char, (fmt::v11::align::type)2, fmt::v11::basic_appender<char> >(fmt::v11::basic_appender<char>, fmt::v11::basic_string_view<char>, fmt::v11::format_specs const&)::{lambda(fmt::v11::basic_appender<char>&)#1})
FUNC bfdec 9c 0 fmt::v11::detail::write_bytes<char, (fmt::v11::align::type)2, fmt::v11::basic_appender<char> >(fmt::v11::basic_appender<char>, fmt::v11::basic_string_view<char>, fmt::v11::format_specs const&)::{lambda(fmt::v11::basic_appender<char>(fmt::v11::basic_appender<char>))#1}::operator() const
FUNC bfe88 7c 0 fmt::v11::detail::fill_n<char, int>(char*, int, char)
FUNC bff04 64 0 fmt::v11::detail::count_digits<1, unsigned __int128>(unsigned __int128)
FUNC bff68 28 0 fmt::v11::detail::basic_fp<unsigned __int128>::basic_fp()
FUNC bff90 154 0 fmt::v11::detail::basic_fp<unsigned __int128>::assign<float, 0>(float)
FUNC c00e4 a74 0 fmt::v11::detail::format_dragon(fmt::v11::detail::basic_fp<unsigned __int128>, unsigned int, int, fmt::v11::detail::buffer<char>&, int&)
FUNC c0b58 24 0 fmt::v11::detail::buffer<char>::operator[]<unsigned long>(unsigned long)
FUNC c0b7c 88 0 fmt::v11::detail::count_digits<1, unsigned __int128>(unsigned __int128)::{lambda(unsigned __int128)#1}::operator()(unsigned __int128) const
FUNC c0c04 74 0 fmt::v11::detail::bigint::bigint()
FUNC c0c78 ac 0 fmt::v11::detail::bigint::operator=<unsigned __int128>(unsigned __int128)
FUNC c0d24 1d4 0 fmt::v11::detail::bigint::operator<<=(int)
FUNC c0ef8 64 0 fmt::v11::detail::bigint::operator=<int>(int)
FUNC c0f5c 13c 0 fmt::v11::detail::bigint::assign_pow10(int)
FUNC c1098 94 0 fmt::v11::detail::bigint::assign(fmt::v11::detail::bigint const&)
FUNC c112c b0 0 fmt::v11::detail::bigint::operator*=<unsigned __int128>(unsigned __int128)
FUNC c11dc 64 0 fmt::v11::detail::bigint::operator=<unsigned long long>(unsigned long long)
FUNC c1240 228 0 fmt::v11::detail::add_compare(fmt::v11::detail::bigint const&, fmt::v11::detail::bigint const&, fmt::v11::detail::bigint const&)
FUNC c1468 68 0 fmt::v11::detail::bigint::operator*=<int>(int)
FUNC c14d0 cc 0 fmt::v11::detail::adjust_precision(int&, int)
FUNC c159c 128 0 fmt::v11::detail::bigint::divmod_assign(fmt::v11::detail::bigint const&)
FUNC c16c4 1b4 0 fmt::v11::detail::compare(fmt::v11::detail::bigint const&, fmt::v11::detail::bigint const&)
FUNC c1878 24 0 fmt::v11::detail::buffer<char>::operator[]<int>(int)
FUNC c189c 24 0 fmt::v11::detail::bigint::~bigint()
FUNC c18c0 24 0 std::__ndk1::allocator<unsigned int>::allocator[abi:v170000]()
FUNC c18e4 54 0 fmt::v11::basic_memory_buffer<unsigned int, (unsigned long)32, std::__ndk1::allocator<unsigned int> >::basic_memory_buffer(std::__ndk1::allocator<unsigned int> const&)
FUNC c1938 10 0 std::__ndk1::__non_trivial_if<true, std::__ndk1::allocator<unsigned int> >::__non_trivial_if[abi:v170000]()
FUNC c1948 1b0 0 fmt::v11::basic_memory_buffer<unsigned int, (unsigned long)32, std::__ndk1::allocator<unsigned int> >::grow(fmt::v11::detail::buffer<unsigned int>&, unsigned long)
FUNC c1af8 44 0 fmt::v11::detail::buffer<unsigned int>::buffer(void (*)(fmt::v11::detail::buffer<unsigned int>&, unsigned long), unsigned int*, unsigned long, unsigned long)
FUNC c1b3c 2c 0 fmt::v11::detail::buffer<unsigned int>::set(unsigned int*, unsigned long)
FUNC c1b68 28 0 std::__ndk1::allocator_traits<std::__ndk1::allocator<unsigned int> >::max_size[abi:v170000]<std::__ndk1::allocator<unsigned int>, void, void>(std::__ndk1::allocator<unsigned int> const&)
FUNC c1b90 18 0 fmt::v11::detail::buffer<unsigned int>::capacity() const
FUNC c1ba8 18 0 fmt::v11::detail::buffer<unsigned int>::data()
FUNC c1bc0 58 0 std::__ndk1::allocator<unsigned int>::allocate[abi:v170000](unsigned long)
FUNC c1c18 18 0 fmt::v11::detail::buffer<unsigned int>::size() const
FUNC c1c30 40 0 std::__ndk1::allocator<unsigned int>::deallocate[abi:v170000](unsigned int*, unsigned long)
FUNC c1c70 d8 0 fmt::v11::detail::bigint::assign<unsigned __int128, 0>(unsigned __int128)
FUNC c1d48 24 0 fmt::v11::detail::buffer<unsigned int>::operator[]<unsigned long>(unsigned long)
FUNC c1d6c 2c 0 fmt::v11::basic_memory_buffer<unsigned int, (unsigned long)32, std::__ndk1::allocator<unsigned int> >::resize(unsigned long)
FUNC c1d98 74 0 fmt::v11::detail::buffer<unsigned int>::try_resize(unsigned long)
FUNC c1e0c 54 0 fmt::v11::detail::buffer<unsigned int>::try_reserve(unsigned long)
FUNC c1e60 54 0 fmt::v11::detail::buffer<unsigned int>::push_back(unsigned int const&)
FUNC c1eb4 8c 0 fmt::v11::detail::bigint::assign<unsigned long, 0>(unsigned long)
FUNC c1f40 3b8 0 fmt::v11::detail::bigint::square()
FUNC c22f8 5c 0 fmt::v11::basic_memory_buffer<unsigned int, (unsigned long)32, std::__ndk1::allocator<unsigned int> >::basic_memory_buffer(fmt::v11::basic_memory_buffer<unsigned int, (unsigned long)32, std::__ndk1::allocator<unsigned int> >&&)
FUNC c2354 24 0 fmt::v11::detail::buffer<unsigned int>::operator[]<int>(int)
FUNC c2378 3c 0 fmt::v11::detail::bigint::operator[](int)
FUNC c23b4 8 0 fmt::v11::detail::num_bits<unsigned int>()
FUNC c23bc b0 0 fmt::v11::detail::bigint::remove_leading_zeros()
FUNC c246c 2c 0 fmt::v11::basic_memory_buffer<unsigned int, (unsigned long)32, std::__ndk1::allocator<unsigned int> >::~basic_memory_buffer()
FUNC c2498 e0 0 fmt::v11::basic_memory_buffer<unsigned int, (unsigned long)32, std::__ndk1::allocator<unsigned int> >::move(fmt::v11::basic_memory_buffer<unsigned int, (unsigned long)32, std::__ndk1::allocator<unsigned int> >&)
FUNC c2578 5c 0 fmt::v11::detail::copy<unsigned int, unsigned int*, unsigned int*, 0>(unsigned int*, unsigned int*, unsigned int*)
FUNC c25d4 18 0 fmt::v11::detail::buffer<unsigned int>::clear()
FUNC c25ec 24 0 fmt::v11::detail::buffer<unsigned int>::operator[]<unsigned int>(unsigned int)
FUNC c2610 6c 0 fmt::v11::basic_memory_buffer<unsigned int, (unsigned long)32, std::__ndk1::allocator<unsigned int> >::deallocate()
FUNC c267c 18 0 fmt::v11::detail::buffer<unsigned int>::data() const
FUNC c2694 5c 0 fmt::v11::detail::copy<unsigned int, unsigned int const*, unsigned int*, 0>(unsigned int const*, unsigned int const*, unsigned int*)
FUNC c26f0 244 0 fmt::v11::detail::bigint::multiply<unsigned __int128, 0>(unsigned __int128)
FUNC c2934 8 0 fmt::v11::detail::num_bits<unsigned long>()
FUNC c293c 4c 0 fmt::v11::detail::add_compare(fmt::v11::detail::bigint const&, fmt::v11::detail::bigint const&, fmt::v11::detail::bigint const&)::{lambda(int, int)#2}::operator()(int, int) const
FUNC c2988 38 0 fmt::v11::detail::bigint::num_bigits() const
FUNC c29c0 4c 0 fmt::v11::detail::add_compare(fmt::v11::detail::bigint const&, fmt::v11::detail::bigint const&, fmt::v11::detail::bigint const&)::{lambda(int, int)#1}::operator()(int, int) const
FUNC c2a0c 94 0 fmt::v11::detail::add_compare(fmt::v11::detail::bigint const&, fmt::v11::detail::bigint const&, fmt::v11::detail::bigint const&)::{lambda(fmt::v11::detail::bigint const&, int)#1}::operator()(fmt::v11::detail::bigint const&, int) const
FUNC c2aa0 40 0 fmt::v11::detail::bigint::operator[](int) const
FUNC c2ae0 24 0 fmt::v11::detail::buffer<unsigned int>::operator[]<unsigned int>(unsigned int) const
FUNC c2b04 110 0 fmt::v11::detail::bigint::multiply(unsigned int)
FUNC c2c14 24 0 fmt::v11::detail::buffer<unsigned int>::operator[]<unsigned long>(unsigned long) const
FUNC c2c38 16c 0 fmt::v11::detail::bigint::align(fmt::v11::detail::bigint const&)
FUNC c2da4 1b0 0 fmt::v11::detail::bigint::subtract_aligned(fmt::v11::detail::bigint const&)
FUNC c2f54 84 0 fmt::v11::detail::bigint::subtract_bigits(int, unsigned int, unsigned int&)
FUNC c2fd8 7a4 0 fmt::v11::detail::do_write_float<char, fmt::v11::basic_appender<char>, fmt::v11::detail::big_decimal_fp, fmt::v11::detail::digit_grouping<char> >(fmt::v11::basic_appender<char>, fmt::v11::detail::big_decimal_fp const&, fmt::v11::format_specs const&, fmt::v11::detail::float_specs, fmt::v11::detail::locale_ref)
FUNC c377c 18 0 fmt::v11::detail::get_significand_size(fmt::v11::detail::big_decimal_fp const&)
FUNC c3794 110 0 fmt::v11::detail::do_write_float<char, fmt::v11::basic_appender<char>, fmt::v11::detail::big_decimal_fp, fmt::v11::detail::digit_grouping<char> >(fmt::v11::basic_appender<char>, fmt::v11::detail::big_decimal_fp const&, fmt::v11::format_specs const&, fmt::v11::detail::float_specs, fmt::v11::detail::locale_ref)::{lambda()#1}::operator()() const
FUNC c38a4 84 0 fmt::v11::detail::write_padded<char, (fmt::v11::align::type)2, fmt::v11::basic_appender<char>, fmt::v11::detail::do_write_float<char, fmt::v11::basic_appender<char>, fmt::v11::detail::big_decimal_fp, fmt::v11::detail::digit_grouping<char> >(fmt::v11::basic_appender<char>, fmt::v11::detail::big_decimal_fp const&, fmt::v11::format_specs const&, fmt::v11::detail::float_specs, fmt::v11::detail::locale_ref)::{lambda(fmt::v11::basic_appender<char>&)#1}>(fmt::v11::basic_appender<char>, fmt::v11::format_specs const&, unsigned long, fmt::v11::detail::do_write_float<char, fmt::v11::basic_appender<char>, fmt::v11::detail::big_decimal_fp, fmt::v11::detail::digit_grouping<char> >(fmt::v11::basic_appender<char>, fmt::v11::detail::big_decimal_fp const&, fmt::v11::format_specs const&, fmt::v11::detail::float_specs, fmt::v11::detail::locale_ref)::{lambda(fmt::v11::basic_appender<char>&)#1})
FUNC c3928 158 0 fmt::v11::detail::do_write_float<char, fmt::v11::basic_appender<char>, fmt::v11::detail::big_decimal_fp, fmt::v11::detail::digit_grouping<char> >(fmt::v11::basic_appender<char>, fmt::v11::detail::big_decimal_fp const&, fmt::v11::format_specs const&, fmt::v11::detail::float_specs, fmt::v11::detail::locale_ref)::{lambda(fmt::v11::basic_appender<char>(fmt::v11::basic_appender<char>))#1}::operator() const
FUNC c3a80 84 0 fmt::v11::detail::write_padded<char, (fmt::v11::align::type)2, fmt::v11::basic_appender<char>, fmt::v11::detail::do_write_float<char, fmt::v11::basic_appender<char>, fmt::v11::detail::big_decimal_fp, fmt::v11::detail::digit_grouping<char> >(fmt::v11::basic_appender<char>, fmt::v11::detail::big_decimal_fp const&, fmt::v11::format_specs const&, fmt::v11::detail::float_specs, fmt::v11::detail::locale_ref)::{lambda(fmt::v11::basic_appender<char>)#2}>(fmt::v11::basic_appender<char>, fmt::v11::format_specs const&, unsigned long, fmt::v11::detail::do_write_float<char, fmt::v11::basic_appender<char>, fmt::v11::detail::big_decimal_fp, fmt::v11::detail::digit_grouping<char> >(fmt::v11::basic_appender<char>, fmt::v11::detail::big_decimal_fp const&, fmt::v11::format_specs const&, fmt::v11::detail::float_specs, fmt::v11::detail::locale_ref)::{lambda(fmt::v11::basic_appender<char>&&)#2})
FUNC c3b04 84 0 fmt::v11::detail::write_padded<char, (fmt::v11::align::type)2, fmt::v11::basic_appender<char>, fmt::v11::detail::do_write_float<char, fmt::v11::basic_appender<char>, fmt::v11::detail::big_decimal_fp, fmt::v11::detail::digit_grouping<char> >(fmt::v11::basic_appender<char>, fmt::v11::detail::big_decimal_fp const&, fmt::v11::format_specs const&, fmt::v11::detail::float_specs, fmt::v11::detail::locale_ref)::{lambda(fmt::v11::basic_appender<char>)#3}>(fmt::v11::basic_appender<char>, fmt::v11::format_specs const&, unsigned long, fmt::v11::detail::do_write_float<char, fmt::v11::basic_appender<char>, fmt::v11::detail::big_decimal_fp, fmt::v11::detail::digit_grouping<char> >(fmt::v11::basic_appender<char>, fmt::v11::detail::big_decimal_fp const&, fmt::v11::format_specs const&, fmt::v11::detail::float_specs, fmt::v11::detail::locale_ref)::{lambda(fmt::v11::basic_appender<char>&&)#3})
FUNC c3b88 84 0 fmt::v11::detail::write_padded<char, (fmt::v11::align::type)2, fmt::v11::basic_appender<char>, fmt::v11::detail::do_write_float<char, fmt::v11::basic_appender<char>, fmt::v11::detail::big_decimal_fp, fmt::v11::detail::digit_grouping<char> >(fmt::v11::basic_appender<char>, fmt::v11::detail::big_decimal_fp const&, fmt::v11::format_specs const&, fmt::v11::detail::float_specs, fmt::v11::detail::locale_ref)::{lambda(fmt::v11::basic_appender<char>)#4}>(fmt::v11::basic_appender<char>, fmt::v11::format_specs const&, unsigned long, fmt::v11::detail::do_write_float<char, fmt::v11::basic_appender<char>, fmt::v11::detail::big_decimal_fp, fmt::v11::detail::digit_grouping<char> >(fmt::v11::basic_appender<char>, fmt::v11::detail::big_decimal_fp const&, fmt::v11::format_specs const&, fmt::v11::detail::float_specs, fmt::v11::detail::locale_ref)::{lambda(fmt::v11::basic_appender<char>&&)#4})
FUNC c3c0c 1d8 0 fmt::v11::detail::write_padded<char, (fmt::v11::align::type)2, fmt::v11::basic_appender<char>, fmt::v11::detail::do_write_float<char, fmt::v11::basic_appender<char>, fmt::v11::detail::big_decimal_fp, fmt::v11::detail::digit_grouping<char> >(fmt::v11::basic_appender<char>, fmt::v11::detail::big_decimal_fp const&, fmt::v11::format_specs const&, fmt::v11::detail::float_specs, fmt::v11::detail::locale_ref)::{lambda(fmt::v11::basic_appender<char>&)#1}>(fmt::v11::basic_appender<char>, fmt::v11::format_specs const&, unsigned long, unsigned long, fmt::v11::detail::do_write_float<char, fmt::v11::basic_appender<char>, fmt::v11::detail::big_decimal_fp, fmt::v11::detail::digit_grouping<char> >(fmt::v11::basic_appender<char>, fmt::v11::detail::big_decimal_fp const&, fmt::v11::format_specs const&, fmt::v11::detail::float_specs, fmt::v11::detail::locale_ref)::{lambda(fmt::v11::basic_appender<char>&)#1})
FUNC c3de4 f4 0 fmt::v11::detail::write_significand<fmt::v11::basic_appender<char>, char>(fmt::v11::basic_appender<char>, char const*, int, int, char)
FUNC c3ed8 1d8 0 fmt::v11::detail::write_padded<char, (fmt::v11::align::type)2, fmt::v11::basic_appender<char>, fmt::v11::detail::do_write_float<char, fmt::v11::basic_appender<char>, fmt::v11::detail::big_decimal_fp, fmt::v11::detail::digit_grouping<char> >(fmt::v11::basic_appender<char>, fmt::v11::detail::big_decimal_fp const&, fmt::v11::format_specs const&, fmt::v11::detail::float_specs, fmt::v11::detail::locale_ref)::{lambda(fmt::v11::basic_appender<char>&)#2}>(fmt::v11::basic_appender<char>, fmt::v11::format_specs const&, unsigned long, unsigned long, fmt::v11::detail::do_write_float<char, fmt::v11::basic_appender<char>, fmt::v11::detail::big_decimal_fp, fmt::v11::detail::digit_grouping<char> >(fmt::v11::basic_appender<char>, fmt::v11::detail::big_decimal_fp const&, fmt::v11::format_specs const&, fmt::v11::detail::float_specs, fmt::v11::detail::locale_ref)::{lambda(fmt::v11::basic_appender<char>&)#2})
FUNC c40b0 184 0 fmt::v11::detail::do_write_float<char, fmt::v11::basic_appender<char>, fmt::v11::detail::big_decimal_fp, fmt::v11::detail::digit_grouping<char> >(fmt::v11::basic_appender<char>, fmt::v11::detail::big_decimal_fp const&, fmt::v11::format_specs const&, fmt::v11::detail::float_specs, fmt::v11::detail::locale_ref)::{lambda(fmt::v11::basic_appender<char>(fmt::v11::basic_appender<char>))#2}::operator() const
FUNC c4234 1f4 0 fmt::v11::detail::write_significand<char, fmt::v11::basic_appender<char>, char const*, fmt::v11::detail::digit_grouping<char> >(fmt::v11::basic_appender<char>, char const*, int, int, fmt::v11::detail::digit_grouping<char> const&)
FUNC c4428 7c 0 fmt::v11::detail::write_significand<char, fmt::v11::basic_appender<char> >(fmt::v11::basic_appender<char>, char const*, int)
FUNC c44a4 1d8 0 fmt::v11::detail::write_padded<char, (fmt::v11::align::type)2, fmt::v11::basic_appender<char>, fmt::v11::detail::do_write_float<char, fmt::v11::basic_appender<char>, fmt::v11::detail::big_decimal_fp, fmt::v11::detail::digit_grouping<char> >(fmt::v11::basic_appender<char>, fmt::v11::detail::big_decimal_fp const&, fmt::v11::format_specs const&, fmt::v11::detail::float_specs, fmt::v11::detail::locale_ref)::{lambda(fmt::v11::basic_appender<char>&)#3}>(fmt::v11::basic_appender<char>, fmt::v11::format_specs const&, unsigned long, unsigned long, fmt::v11::detail::do_write_float<char, fmt::v11::basic_appender<char>, fmt::v11::detail::big_decimal_fp, fmt::v11::detail::digit_grouping<char> >(fmt::v11::basic_appender<char>, fmt::v11::detail::big_decimal_fp const&, fmt::v11::format_specs const&, fmt::v11::detail::float_specs, fmt::v11::detail::locale_ref)::{lambda(fmt::v11::basic_appender<char>&)#3})
FUNC c467c 138 0 fmt::v11::detail::do_write_float<char, fmt::v11::basic_appender<char>, fmt::v11::detail::big_decimal_fp, fmt::v11::detail::digit_grouping<char> >(fmt::v11::basic_appender<char>, fmt::v11::detail::big_decimal_fp const&, fmt::v11::format_specs const&, fmt::v11::detail::float_specs, fmt::v11::detail::locale_ref)::{lambda(fmt::v11::basic_appender<char>(fmt::v11::basic_appender<char>))#3}::operator() const
FUNC c47b4 1f8 0 fmt::v11::detail::write_significand<fmt::v11::basic_appender<char>, char, char const*, fmt::v11::detail::digit_grouping<char> >(fmt::v11::basic_appender<char>, char const*, int, int, char, fmt::v11::detail::digit_grouping<char> const&)
FUNC c49ac 1d8 0 fmt::v11::detail::write_padded<char, (fmt::v11::align::type)2, fmt::v11::basic_appender<char>, fmt::v11::detail::do_write_float<char, fmt::v11::basic_appender<char>, fmt::v11::detail::big_decimal_fp, fmt::v11::detail::digit_grouping<char> >(fmt::v11::basic_appender<char>, fmt::v11::detail::big_decimal_fp const&, fmt::v11::format_specs const&, fmt::v11::detail::float_specs, fmt::v11::detail::locale_ref)::{lambda(fmt::v11::basic_appender<char>&)#4}>(fmt::v11::basic_appender<char>, fmt::v11::format_specs const&, unsigned long, unsigned long, fmt::v11::detail::do_write_float<char, fmt::v11::basic_appender<char>, fmt::v11::detail::big_decimal_fp, fmt::v11::detail::digit_grouping<char> >(fmt::v11::basic_appender<char>, fmt::v11::detail::big_decimal_fp const&, fmt::v11::format_specs const&, fmt::v11::detail::float_specs, fmt::v11::detail::locale_ref)::{lambda(fmt::v11::basic_appender<char>&)#4})
FUNC c4b84 170 0 fmt::v11::detail::do_write_float<char, fmt::v11::basic_appender<char>, fmt::v11::detail::big_decimal_fp, fmt::v11::detail::digit_grouping<char> >(fmt::v11::basic_appender<char>, fmt::v11::detail::big_decimal_fp const&, fmt::v11::format_specs const&, fmt::v11::detail::float_specs, fmt::v11::detail::locale_ref)::{lambda(fmt::v11::basic_appender<char>(fmt::v11::basic_appender<char>))#4}::operator() const
FUNC c4cf4 84 0 fmt::v11::detail::write<char, fmt::v11::basic_appender<char>, void, 0>(fmt::v11::basic_appender<char>, void const*, fmt::v11::format_specs const&, fmt::v11::detail::locale_ref)
FUNC c4d78 fc 0 fmt::v11::detail::write_ptr<char, fmt::v11::basic_appender<char>, unsigned long>(fmt::v11::basic_appender<char>, unsigned long, fmt::v11::format_specs const*)
FUNC c4e74 8c 0 fmt::v11::detail::bit_cast<unsigned long, void const*, 0>(void const* const&)
FUNC c4f00 5c 0 fmt::v11::detail::count_digits<4, unsigned long>(unsigned long)
FUNC c4f5c 84 0 fmt::v11::detail::write_padded<char, (fmt::v11::align::type)2, fmt::v11::basic_appender<char>, fmt::v11::detail::write_ptr<char, fmt::v11::basic_appender<char>, unsigned long>(fmt::v11::basic_appender<char>, unsigned long, fmt::v11::format_specs const*)::{lambda(fmt::v11::basic_appender<char>&)#1}>(fmt::v11::basic_appender<char>, fmt::v11::format_specs const&, unsigned long, fmt::v11::detail::write_ptr<char, fmt::v11::basic_appender<char>, unsigned long>(fmt::v11::basic_appender<char>, unsigned long, fmt::v11::format_specs const*)::{lambda(fmt::v11::basic_appender<char>&)#1})
FUNC c4fe0 cc 0 fmt::v11::detail::write_ptr<char, fmt::v11::basic_appender<char>, unsigned long>(fmt::v11::basic_appender<char>, unsigned long, fmt::v11::format_specs const*)::{lambda(fmt::v11::basic_appender<char>(fmt::v11::basic_appender<char>))#1}::operator() const
FUNC c50ac 4c 0 fmt::v11::detail::count_digits<4, unsigned long>(unsigned long)::{lambda(unsigned long)#1}::operator()(unsigned long) const
FUNC c50f8 1d8 0 fmt::v11::detail::write_padded<char, (fmt::v11::align::type)2, fmt::v11::basic_appender<char>, fmt::v11::detail::write_ptr<char, fmt::v11::basic_appender<char>, unsigned long>(fmt::v11::basic_appender<char>, unsigned long, fmt::v11::format_specs const*)::{lambda(fmt::v11::basic_appender<char>&)#1}>(fmt::v11::basic_appender<char>, fmt::v11::format_specs const&, unsigned long, unsigned long, fmt::v11::detail::write_ptr<char, fmt::v11::basic_appender<char>, unsigned long>(fmt::v11::basic_appender<char>, unsigned long, fmt::v11::format_specs const*)::{lambda(fmt::v11::basic_appender<char>&)#1})
FUNC c52d0 104 0 fmt::v11::detail::format_uint<(unsigned int)4, char, fmt::v11::basic_appender<char>, unsigned long>(fmt::v11::basic_appender<char>, unsigned long, int, bool)
FUNC c53d4 c4 0 fmt::v11::detail::format_uint<(unsigned int)4, char, unsigned long>(char*, unsigned long, int, bool)
FUNC c5498 1c 0 fmt::v11::basic_string_view<char>::basic_string_view()
FUNC c54b4 60 0 fmt::v11::basic_format_parse_context<char>::basic_format_parse_context(fmt::v11::basic_string_view<char>, int)
FUNC c5514 6c 0 fmt::v11::context::context(fmt::v11::basic_appender<char>, fmt::v11::basic_format_args<fmt::v11::context>, fmt::v11::detail::locale_ref)
FUNC c5580 3c 0 fmt::v11::basic_format_arg<fmt::v11::context>::handle::format(fmt::v11::basic_format_parse_context<char>&, fmt::v11::context&) const
FUNC c55bc 58 0 fmt::v11::context::out()
FUNC c5614 5c 0 fmt::v11::detail::write<char, fmt::v11::basic_appender<char> >(fmt::v11::basic_appender<char>, fmt::v11::monostate, fmt::v11::format_specs, fmt::v11::detail::locale_ref)
FUNC c5670 bc 0 fmt::v11::detail::vformat_to<char>(fmt::v11::detail::buffer<char>&, fmt::v11::basic_string_view<char>, fmt::v11::detail::vformat_args<char>::type, fmt::v11::detail::locale_ref)::format_handler::on_text(char const*, char const*)
FUNC c572c 258 0 fmt::v11::detail::parse_replacement_field<char, fmt::v11::detail::vformat_to<char>(fmt::v11::detail::buffer<char>&, fmt::v11::basic_string_view<char>, fmt::v11::detail::vformat_args<char>::type, fmt::v11::detail::locale_ref)::format_handler&>(char const*, char const*, fmt::v11::detail::vformat_to<char>(fmt::v11::detail::buffer<char>&, fmt::v11::basic_string_view<char>, fmt::v11::detail::vformat_args<char>::type, fmt::v11::detail::locale_ref)::format_handler&)
FUNC c5984 1c 0 fmt::v11::detail::vformat_to<char>(fmt::v11::detail::buffer<char>&, fmt::v11::basic_string_view<char>, fmt::v11::detail::vformat_args<char>::type, fmt::v11::detail::locale_ref)::format_handler::on_error(char const*)
FUNC c59a0 118 0 fmt::v11::detail::find<false, char, char const*>(char const*, char const*, char, char const*&)
FUNC c5ab8 138 0 fmt::v11::detail::parse_format_string<false, char, fmt::v11::detail::vformat_to<char>(fmt::v11::detail::buffer<char>&, fmt::v11::basic_string_view<char>, fmt::v11::detail::vformat_args<char>::type, fmt::v11::detail::locale_ref)::format_handler>(fmt::v11::basic_string_view<char>, fmt::v11::detail::vformat_to<char>(fmt::v11::detail::buffer<char>&, fmt::v11::basic_string_view<char>, fmt::v11::detail::vformat_args<char>::type, fmt::v11::detail::locale_ref)::format_handler&&)::writer::operator()(char const*, char const*)
FUNC c5bf0 14 0 fmt::v11::context::advance_to(fmt::v11::basic_appender<char>)
FUNC c5c04 c0 0 fmt::v11::detail::vformat_to<char>(fmt::v11::detail::buffer<char>&, fmt::v11::basic_string_view<char>, fmt::v11::detail::vformat_args<char>::type, fmt::v11::detail::locale_ref)::format_handler::on_replacement_field(int, char const*)
FUNC c5cc4 24 0 fmt::v11::detail::vformat_to<char>(fmt::v11::detail::buffer<char>&, fmt::v11::basic_string_view<char>, fmt::v11::detail::vformat_args<char>::type, fmt::v11::detail::locale_ref)::format_handler::on_arg_id()
FUNC c5ce8 bc 0 fmt::v11::detail::parse_arg_id<char, fmt::v11::detail::parse_replacement_field<char, fmt::v11::detail::vformat_to<char>(fmt::v11::detail::buffer<char>&, fmt::v11::basic_string_view<char>, fmt::v11::detail::vformat_args<char>::type, fmt::v11::detail::locale_ref)::format_handler&>(char const*, char const*, fmt::v11::detail::vformat_to<char>(fmt::v11::detail::buffer<char>&, fmt::v11::basic_string_view<char>, fmt::v11::detail::vformat_args<char>::type, fmt::v11::detail::locale_ref)::format_handler&)::id_adapter&>(char const*, char const*, fmt::v11::detail::parse_replacement_field<char, fmt::v11::detail::vformat_to<char>(fmt::v11::detail::buffer<char>&, fmt::v11::basic_string_view<char>, fmt::v11::detail::vformat_args<char>::type, fmt::v11::detail::locale_ref)::format_handler&>(char const*, char const*, fmt::v11::detail::vformat_to<char>(fmt::v11::detail::buffer<char>&, fmt::v11::basic_string_view<char>, fmt::v11::detail::vformat_args<char>::type, fmt::v11::detail::locale_ref)::format_handler&)::id_adapter&)
FUNC c5da4 214 0 fmt::v11::detail::vformat_to<char>(fmt::v11::detail::buffer<char>&, fmt::v11::basic_string_view<char>, fmt::v11::detail::vformat_args<char>::type, fmt::v11::detail::locale_ref)::format_handler::on_format_specs(int, char const*, char const*)
FUNC c5fb8 4c 0 fmt::v11::detail::get_arg<fmt::v11::context, int>(fmt::v11::context&, int)
FUNC c6004 18 0 fmt::v11::context::args() const
FUNC c601c 58 0 fmt::v11::context::locale()
FUNC c6074 30 0 fmt::v11::context::arg(int) const
FUNC c60a4 64 0 fmt::v11::basic_format_parse_context<char>::next_arg_id()
FUNC c6108 14 0 fmt::v11::basic_format_parse_context<char>::do_check_arg_id(int)
FUNC c611c 268 0 fmt::v11::detail::do_parse_arg_id<char, fmt::v11::detail::parse_replacement_field<char, fmt::v11::detail::vformat_to<char>(fmt::v11::detail::buffer<char>&, fmt::v11::basic_string_view<char>, fmt::v11::detail::vformat_args<char>::type, fmt::v11::detail::locale_ref)::format_handler&>(char const*, char const*, fmt::v11::detail::vformat_to<char>(fmt::v11::detail::buffer<char>&, fmt::v11::basic_string_view<char>, fmt::v11::detail::vformat_args<char>::type, fmt::v11::detail::locale_ref)::format_handler&)::id_adapter&>(char const*, char const*, fmt::v11::detail::parse_replacement_field<char, fmt::v11::detail::vformat_to<char>(fmt::v11::detail::buffer<char>&, fmt::v11::basic_string_view<char>, fmt::v11::detail::vformat_args<char>::type, fmt::v11::detail::locale_ref)::format_handler&>(char const*, char const*, fmt::v11::detail::vformat_to<char>(fmt::v11::detail::buffer<char>&, fmt::v11::basic_string_view<char>, fmt::v11::detail::vformat_args<char>::type, fmt::v11::detail::locale_ref)::format_handler&)::id_adapter&)
FUNC c6384 34 0 fmt::v11::detail::parse_replacement_field<char, fmt::v11::detail::vformat_to<char>(fmt::v11::detail::buffer<char>&, fmt::v11::basic_string_view<char>, fmt::v11::detail::vformat_args<char>::type, fmt::v11::detail::locale_ref)::format_handler&>(char const*, char const*, fmt::v11::detail::vformat_to<char>(fmt::v11::detail::buffer<char>&, fmt::v11::basic_string_view<char>, fmt::v11::detail::vformat_args<char>::type, fmt::v11::detail::locale_ref)::format_handler&)::id_adapter::on_auto()
FUNC c63b8 224 0 fmt::v11::detail::parse_nonnegative_int<char>(char const*&, char const*, int)
FUNC c65dc 3c 0 fmt::v11::detail::parse_replacement_field<char, fmt::v11::detail::vformat_to<char>(fmt::v11::detail::buffer<char>&, fmt::v11::basic_string_view<char>, fmt::v11::detail::vformat_args<char>::type, fmt::v11::detail::locale_ref)::format_handler&>(char const*, char const*, fmt::v11::detail::vformat_to<char>(fmt::v11::detail::buffer<char>&, fmt::v11::basic_string_view<char>, fmt::v11::detail::vformat_args<char>::type, fmt::v11::detail::locale_ref)::format_handler&)::id_adapter::on_index(int)
FUNC c6618 94 0 fmt::v11::detail::is_name_start<char>(char)
FUNC c66ac 78 0 fmt::v11::detail::parse_replacement_field<char, fmt::v11::detail::vformat_to<char>(fmt::v11::detail::buffer<char>&, fmt::v11::basic_string_view<char>, fmt::v11::detail::vformat_args<char>::type, fmt::v11::detail::locale_ref)::format_handler&>(char const*, char const*, fmt::v11::detail::vformat_to<char>(fmt::v11::detail::buffer<char>&, fmt::v11::basic_string_view<char>, fmt::v11::detail::vformat_args<char>::type, fmt::v11::detail::locale_ref)::format_handler&)::id_adapter::on_name(fmt::v11::basic_string_view<char>)
FUNC c6724 30 0 fmt::v11::detail::vformat_to<char>(fmt::v11::detail::buffer<char>&, fmt::v11::basic_string_view<char>, fmt::v11::detail::vformat_args<char>::type, fmt::v11::detail::locale_ref)::format_handler::on_arg_id(int)
FUNC c6754 5c 0 fmt::v11::basic_format_parse_context<char>::check_arg_id(int)
FUNC c67b0 c4 0 fmt::v11::detail::vformat_to<char>(fmt::v11::detail::buffer<char>&, fmt::v11::basic_string_view<char>, fmt::v11::detail::vformat_args<char>::type, fmt::v11::detail::locale_ref)::format_handler::on_arg_id(fmt::v11::basic_string_view<char>)
FUNC c6874 24 0 fmt::v11::basic_format_parse_context<char>::check_arg_id(fmt::v11::basic_string_view<char>)
FUNC c6898 74 0 fmt::v11::context::arg_id(fmt::v11::basic_string_view<char>)
FUNC c690c 15c 0 fmt::v11::basic_format_args<fmt::v11::context>::get_id<char>(fmt::v11::basic_string_view<char>) const
FUNC c6a68 24 0 fmt::v11::basic_format_args<fmt::v11::context>::has_named_args() const
FUNC c6a8c 80 0 fmt::v11::operator==(fmt::v11::basic_string_view<char>, fmt::v11::basic_string_view<char>)
FUNC c6b0c f8 0 fmt::v11::basic_string_view<char>::compare(fmt::v11::basic_string_view<char>) const
FUNC c6c04 34 0 fmt::v11::detail::compare<char>(char const*, char const*, unsigned long)
FUNC c6c38 98 0 fmt::v11::basic_format_arg<fmt::v11::context>::format_custom(char const*, fmt::v11::basic_format_parse_context<char>&, fmt::v11::context&)
FUNC c6cd0 24 0 fmt::v11::basic_format_parse_context<char>::begin() const
FUNC c6cf4 40 0 fmt::v11::detail::dynamic_format_specs<char>::dynamic_format_specs()
FUNC c6d34 774 0 fmt::v11::detail::parse_format_specs<char>(char const*, char const*, fmt::v11::detail::dynamic_format_specs<char>&, fmt::v11::basic_format_parse_context<char>&, fmt::v11::detail::type)
FUNC c74a8 18 0 fmt::v11::basic_format_arg<fmt::v11::context>::type() const
FUNC c74c0 e8 0 fmt::v11::detail::handle_dynamic_spec<fmt::v11::detail::width_checker, fmt::v11::context>(int&, fmt::v11::detail::arg_ref<fmt::v11::context::char_type>, fmt::v11::context&)
FUNC c75a8 e8 0 fmt::v11::detail::handle_dynamic_spec<fmt::v11::detail::precision_checker, fmt::v11::context>(int&, fmt::v11::detail::arg_ref<fmt::v11::context::char_type>, fmt::v11::context&)
FUNC c7690 290 0 fmt::v11::basic_format_arg<fmt::v11::context>::visit<fmt::v11::detail::arg_formatter<char> >(fmt::v11::detail::arg_formatter<char>&&) const
FUNC c7920 4c 0 fmt::v11::basic_format_parse_context<char>::advance_to(char const*)
FUNC c796c 38 0 fmt::v11::basic_string_view<char>::remove_prefix(unsigned long)
FUNC c79a4 30 0 fmt::v11::detail::arg_ref<char>::arg_ref()
FUNC c79d4 20 0 fmt::v11::detail::arg_ref<char>::value::value(int)
FUNC c79f4 40 0 fmt::v11::detail::to_ascii<char, 0>(char)
FUNC c7a34 80 0 fmt::v11::detail::parse_align(char)
FUNC c7ab4 18 0 fmt::v11::detail::parse_format_specs<char>(char const*, char const*, fmt::v11::detail::dynamic_format_specs<char>&, fmt::v11::basic_format_parse_context<char>&, fmt::v11::detail::type)::{unnamed type#1}::type()
FUNC c7acc 70 0 fmt::v11::detail::parse_format_specs<char>(char const*, char const*, fmt::v11::detail::dynamic_format_specs<char>&, fmt::v11::basic_format_parse_context<char>&, fmt::v11::detail::type)::{unnamed type#1}::operator()(fmt::v11::detail::state, bool)
FUNC c7b3c 2c 0 fmt::v11::detail::in(fmt::v11::detail::type, int)
FUNC c7b68 48 0 fmt::v11::detail::is_arithmetic_type(fmt::v11::detail::type)
FUNC c7bb0 1f8 0 fmt::v11::detail::parse_dynamic_spec<char>(char const*, char const*, int&, fmt::v11::detail::arg_ref<char>&, fmt::v11::basic_format_parse_context<char>&)
FUNC c7da8 8c 0 fmt::v11::detail::parse_precision<char>(char const*, char const*, int&, fmt::v11::detail::arg_ref<char>&, fmt::v11::basic_format_parse_context<char>&)
FUNC c7e34 a0 0 fmt::v11::detail::parse_format_specs<char>(char const*, char const*, fmt::v11::detail::dynamic_format_specs<char>&, fmt::v11::basic_format_parse_context<char>&, fmt::v11::detail::type)::{unnamed type#1}::operator()(fmt::v11::presentation_type, int)
FUNC c7ed4 3c 0 fmt::v11::detail::code_point_length<char>(char const*)
FUNC c7f10 144 0 fmt::v11::detail::fill_t::operator=<char>(fmt::v11::basic_string_view<char>)
FUNC c8054 bc 0 fmt::v11::detail::parse_arg_id<char, fmt::v11::detail::dynamic_spec_id_handler<char>&>(char const*, char const*, fmt::v11::detail::dynamic_spec_id_handler<char>&)
FUNC c8110 268 0 fmt::v11::detail::do_parse_arg_id<char, fmt::v11::detail::dynamic_spec_id_handler<char>&>(char const*, char const*, fmt::v11::detail::dynamic_spec_id_handler<char>&)
FUNC c8378 8c 0 fmt::v11::detail::dynamic_spec_id_handler<char>::on_auto()
FUNC c8404 94 0 fmt::v11::detail::dynamic_spec_id_handler<char>::on_index(int)
FUNC c8498 a0 0 fmt::v11::detail::dynamic_spec_id_handler<char>::on_name(fmt::v11::basic_string_view<char>)
FUNC c8538 38 0 fmt::v11::detail::arg_ref<char>::arg_ref(int)
FUNC c8570 14 0 fmt::v11::basic_format_parse_context<char>::check_dynamic_spec(int)
FUNC c8584 70 0 fmt::v11::detail::arg_ref<char>::arg_ref(fmt::v11::basic_string_view<char>)
FUNC c85f4 54 0 fmt::v11::detail::arg_ref<char>::value::value(fmt::v11::basic_string_view<char>)
FUNC c8648 9c 0 fmt::v11::detail::get_dynamic_spec<fmt::v11::detail::width_checker, fmt::v11::basic_format_arg<fmt::v11::context> >(fmt::v11::basic_format_arg<fmt::v11::context>)
FUNC c86e4 9c 0 fmt::v11::detail::get_arg<fmt::v11::context, fmt::v11::basic_string_view<char> >(fmt::v11::context&, fmt::v11::basic_string_view<char>)
FUNC c8780 290 0 fmt::v11::basic_format_arg<fmt::v11::context>::visit<fmt::v11::detail::width_checker>(fmt::v11::detail::width_checker&&) const
FUNC c8a10 40 0 fmt::v11::detail::width_checker::operator()<int, 0>(int)
FUNC c8a50 44 0 fmt::v11::detail::width_checker::operator()<unsigned int, 0>(unsigned int)
FUNC c8a94 40 0 fmt::v11::detail::width_checker::operator()<long long, 0>(long long)
FUNC c8ad4 40 0 fmt::v11::detail::width_checker::operator()<unsigned long long, 0>(unsigned long long)
FUNC c8b14 5c 0 fmt::v11::detail::width_checker::operator()<__int128, 0>(__int128)
FUNC c8b70 5c 0 fmt::v11::detail::width_checker::operator()<unsigned __int128, 0>(unsigned __int128)
FUNC c8bcc 24 0 fmt::v11::detail::width_checker::operator()<bool, 0>(bool)
FUNC c8bf0 20 0 fmt::v11::detail::width_checker::operator()<char, 0>(char)
FUNC c8c10 20 0 fmt::v11::detail::width_checker::operator()<float, 0>(float)
FUNC c8c30 20 0 fmt::v11::detail::width_checker::operator()<double, 0>(double)
FUNC c8c50 20 0 fmt::v11::detail::width_checker::operator()<long double, 0>(long double)
FUNC c8c70 20 0 fmt::v11::detail::width_checker::operator()<char const*, 0>(char const*)
FUNC c8c90 24 0 fmt::v11::detail::width_checker::operator()<fmt::v11::basic_string_view<char>, 0>(fmt::v11::basic_string_view<char>)
FUNC c8cb4 20 0 fmt::v11::detail::width_checker::operator()<void const*, 0>(void const*)
FUNC c8cd4 24 0 fmt::v11::detail::width_checker::operator()<fmt::v11::basic_format_arg<fmt::v11::context>::handle, 0>(fmt::v11::basic_format_arg<fmt::v11::context>::handle)
FUNC c8cf8 20 0 fmt::v11::detail::width_checker::operator()<fmt::v11::monostate, 0>(fmt::v11::monostate)
FUNC c8d18 6c 0 fmt::v11::context::arg(fmt::v11::basic_string_view<char>)
FUNC c8d84 a0 0 fmt::v11::basic_format_args<fmt::v11::context>::get<char>(fmt::v11::basic_string_view<char>) const
FUNC c8e24 9c 0 fmt::v11::detail::get_dynamic_spec<fmt::v11::detail::precision_checker, fmt::v11::basic_format_arg<fmt::v11::context> >(fmt::v11::basic_format_arg<fmt::v11::context>)
FUNC c8ec0 290 0 fmt::v11::basic_format_arg<fmt::v11::context>::visit<fmt::v11::detail::precision_checker>(fmt::v11::detail::precision_checker&&) const
FUNC c9150 40 0 fmt::v11::detail::precision_checker::operator()<int, 0>(int)
FUNC c9190 44 0 fmt::v11::detail::precision_checker::operator()<unsigned int, 0>(unsigned int)
FUNC c91d4 40 0 fmt::v11::detail::precision_checker::operator()<long long, 0>(long long)
FUNC c9214 40 0 fmt::v11::detail::precision_checker::operator()<unsigned long long, 0>(unsigned long long)
FUNC c9254 5c 0 fmt::v11::detail::precision_checker::operator()<__int128, 0>(__int128)
FUNC c92b0 5c 0 fmt::v11::detail::precision_checker::operator()<unsigned __int128, 0>(unsigned __int128)
FUNC c930c 24 0 fmt::v11::detail::precision_checker::operator()<bool, 0>(bool)
FUNC c9330 20 0 fmt::v11::detail::precision_checker::operator()<char, 0>(char)
FUNC c9350 20 0 fmt::v11::detail::precision_checker::operator()<float, 0>(float)
FUNC c9370 20 0 fmt::v11::detail::precision_checker::operator()<double, 0>(double)
FUNC c9390 20 0 fmt::v11::detail::precision_checker::operator()<long double, 0>(long double)
FUNC c93b0 20 0 fmt::v11::detail::precision_checker::operator()<char const*, 0>(char const*)
FUNC c93d0 24 0 fmt::v11::detail::precision_checker::operator()<fmt::v11::basic_string_view<char>, 0>(fmt::v11::basic_string_view<char>)
FUNC c93f4 20 0 fmt::v11::detail::precision_checker::operator()<void const*, 0>(void const*)
FUNC c9414 24 0 fmt::v11::detail::precision_checker::operator()<fmt::v11::basic_format_arg<fmt::v11::context>::handle, 0>(fmt::v11::basic_format_arg<fmt::v11::context>::handle)
FUNC c9438 20 0 fmt::v11::detail::precision_checker::operator()<fmt::v11::monostate, 0>(fmt::v11::monostate)
FUNC c9458 84 0 fmt::v11::detail::arg_formatter<char>::operator()<int>(int)
FUNC c94dc 84 0 fmt::v11::detail::arg_formatter<char>::operator()<unsigned int>(unsigned int)
FUNC c9560 84 0 fmt::v11::detail::arg_formatter<char>::operator()<long long>(long long)
FUNC c95e4 84 0 fmt::v11::detail::arg_formatter<char>::operator()<unsigned long long>(unsigned long long)
FUNC c9668 8c 0 fmt::v11::detail::arg_formatter<char>::operator()<__int128>(__int128)
FUNC c96f4 8c 0 fmt::v11::detail::arg_formatter<char>::operator()<unsigned __int128>(unsigned __int128)
FUNC c9780 88 0 fmt::v11::detail::arg_formatter<char>::operator()<bool>(bool)
FUNC c9808 84 0 fmt::v11::detail::arg_formatter<char>::operator()<char>(char)
FUNC c988c 94 0 fmt::v11::detail::arg_formatter<char>::operator()<float>(float)
FUNC c9920 94 0 fmt::v11::detail::arg_formatter<char>::operator()<double>(double)
FUNC c99b4 94 0 fmt::v11::detail::arg_formatter<char>::operator()<long double>(long double)
FUNC c9a48 84 0 fmt::v11::detail::arg_formatter<char>::operator()<char const*>(char const*)
FUNC c9acc 94 0 fmt::v11::detail::arg_formatter<char>::operator()<fmt::v11::basic_string_view<char> >(fmt::v11::basic_string_view<char>)
FUNC c9b60 84 0 fmt::v11::detail::arg_formatter<char>::operator()<void const*>(void const*)
FUNC c9be4 60 0 fmt::v11::detail::arg_formatter<char>::operator()(fmt::v11::basic_format_arg<fmt::v11::context>::handle)
FUNC c9c44 94 0 fmt::v11::detail::arg_formatter<char>::operator()<fmt::v11::monostate>(fmt::v11::monostate)
FUNC c9cd8 f8 0 fmt::v11::detail::write<char, unsigned int, 0>(fmt::v11::basic_appender<char>, unsigned int, fmt::v11::format_specs const&, fmt::v11::detail::locale_ref)
FUNC c9dd0 58 0 fmt::v11::loc_value::loc_value<unsigned int, 0>()
FUNC c9e28 cc 0 fmt::v11::detail::make_write_int_arg<unsigned int>(unsigned int, fmt::v11::sign::type)
FUNC c9ef4 84 0 fmt::v11::detail::make_arg<fmt::v11::context, unsigned int>(unsigned int&)
FUNC c9f78 88 0 fmt::v11::detail::make_arg<true, fmt::v11::context, unsigned int, 0>(unsigned int&)
FUNC ca000 100 0 fmt::v11::detail::write<char, long long, 0>(fmt::v11::basic_appender<char>, long long, fmt::v11::format_specs const&, fmt::v11::detail::locale_ref)
FUNC ca100 58 0 fmt::v11::loc_value::loc_value<long long, 0>()
FUNC ca158 98 0 fmt::v11::detail::write_int_noinline<char, fmt::v11::basic_appender<char>, unsigned long>(fmt::v11::basic_appender<char>, fmt::v11::detail::write_int_arg<unsigned long>, fmt::v11::format_specs const&, fmt::v11::detail::locale_ref)
FUNC ca1f0 d8 0 fmt::v11::detail::make_write_int_arg<long long>(long long, fmt::v11::sign::type)
FUNC ca2c8 84 0 fmt::v11::detail::make_arg<fmt::v11::context, long long>(long long&)
FUNC ca34c 88 0 fmt::v11::detail::make_arg<true, fmt::v11::context, long long, 0>(long long&)
FUNC ca3d4 2cc 0 fmt::v11::detail::write_int<char, fmt::v11::basic_appender<char>, unsigned long>(fmt::v11::basic_appender<char>, fmt::v11::detail::write_int_arg<unsigned long>, fmt::v11::format_specs const&, fmt::v11::detail::locale_ref)
FUNC ca6a0 1a0 0 fmt::v11::detail::write_int<char, fmt::v11::basic_appender<char>, fmt::v11::detail::write_int<char, fmt::v11::basic_appender<char>, unsigned long>(fmt::v11::basic_appender<char>, fmt::v11::detail::write_int_arg<unsigned long>, fmt::v11::format_specs const&, fmt::v11::detail::locale_ref)::{lambda(fmt::v11::basic_appender<char>)#1}>(fmt::v11::basic_appender<char>, int, unsigned int, fmt::v11::format_specs const&, fmt::v11::detail::write_int<char, fmt::v11::basic_appender<char>, unsigned long>(fmt::v11::basic_appender<char>, fmt::v11::detail::write_int_arg<unsigned long>, fmt::v11::format_specs const&, fmt::v11::detail::locale_ref)::{lambda(fmt::v11::basic_appender<char>)#1})
FUNC ca840 1ac 0 fmt::v11::detail::write_int<char, fmt::v11::basic_appender<char>, fmt::v11::detail::write_int<char, fmt::v11::basic_appender<char>, unsigned long>(fmt::v11::basic_appender<char>, fmt::v11::detail::write_int_arg<unsigned long>, fmt::v11::format_specs const&, fmt::v11::detail::locale_ref)::{lambda(fmt::v11::basic_appender<char>)#2}>(fmt::v11::basic_appender<char>, int, unsigned int, fmt::v11::format_specs const&, fmt::v11::detail::write_int<char, fmt::v11::basic_appender<char>, unsigned long>(fmt::v11::basic_appender<char>, fmt::v11::detail::write_int_arg<unsigned long>, fmt::v11::format_specs const&, fmt::v11::detail::locale_ref)::{lambda(fmt::v11::basic_appender<char>)#2})
FUNC ca9ec 5c 0 fmt::v11::detail::count_digits<3, unsigned long>(unsigned long)
FUNC caa48 1a0 0 fmt::v11::detail::write_int<char, fmt::v11::basic_appender<char>, fmt::v11::detail::write_int<char, fmt::v11::basic_appender<char>, unsigned long>(fmt::v11::basic_appender<char>, fmt::v11::detail::write_int_arg<unsigned long>, fmt::v11::format_specs const&, fmt::v11::detail::locale_ref)::{lambda(fmt::v11::basic_appender<char>)#3}>(fmt::v11::basic_appender<char>, int, unsigned int, fmt::v11::format_specs const&, fmt::v11::detail::write_int<char, fmt::v11::basic_appender<char>, unsigned long>(fmt::v11::basic_appender<char>, fmt::v11::detail::write_int_arg<unsigned long>, fmt::v11::format_specs const&, fmt::v11::detail::locale_ref)::{lambda(fmt::v11::basic_appender<char>)#3})
FUNC cabe8 5c 0 fmt::v11::detail::count_digits<1, unsigned long>(unsigned long)
FUNC cac44 1a0 0 fmt::v11::detail::write_int<char, fmt::v11::basic_appender<char>, fmt::v11::detail::write_int<char, fmt::v11::basic_appender<char>, unsigned long>(fmt::v11::basic_appender<char>, fmt::v11::detail::write_int_arg<unsigned long>, fmt::v11::format_specs const&, fmt::v11::detail::locale_ref)::{lambda(fmt::v11::basic_appender<char>)#4}>(fmt::v11::basic_appender<char>, int, unsigned int, fmt::v11::format_specs const&, fmt::v11::detail::write_int<char, fmt::v11::basic_appender<char>, unsigned long>(fmt::v11::basic_appender<char>, fmt::v11::detail::write_int_arg<unsigned long>, fmt::v11::format_specs const&, fmt::v11::detail::locale_ref)::{lambda(fmt::v11::basic_appender<char>)#4})
FUNC cade4 84 0 fmt::v11::detail::write_int<char, fmt::v11::basic_appender<char>, unsigned long>(fmt::v11::basic_appender<char>, fmt::v11::detail::write_int_arg<unsigned long>, fmt::v11::format_specs const&, fmt::v11::detail::locale_ref)::{lambda(fmt::v11::basic_appender<char>(fmt::v11::basic_appender<char>))#1}::operator() const
FUNC cae68 84 0 fmt::v11::detail::write_padded<char, (fmt::v11::align::type)2, fmt::v11::basic_appender<char>, fmt::v11::detail::write_int<char, fmt::v11::basic_appender<char>, fmt::v11::detail::write_int<char, fmt::v11::basic_appender<char>, unsigned long>(fmt::v11::basic_appender<char>, fmt::v11::detail::write_int_arg<unsigned long>, fmt::v11::format_specs const&, fmt::v11::detail::locale_ref)::{lambda(fmt::v11::basic_appender<char>)#1}>(fmt::v11::basic_appender<char>, int, unsigned int, fmt::v11::format_specs const&, fmt::v11::detail::write_int<char, fmt::v11::basic_appender<char>, unsigned long>(fmt::v11::basic_appender<char>, fmt::v11::detail::write_int_arg<unsigned long>, fmt::v11::format_specs const&, fmt::v11::detail::locale_ref)::{lambda(fmt::v11::basic_appender<char>)#1})::{lambda(fmt::v11::basic_appender<char>)#1}>(fmt::v11::basic_appender<char>, fmt::v11::format_specs const&, unsigned long, fmt::v11::detail::write_int<char, fmt::v11::basic_appender<char>, fmt::v11::detail::write_int<char, fmt::v11::basic_appender<char>, unsigned long>(fmt::v11::basic_appender<char>, fmt::v11::detail::write_int_arg<unsigned long>, fmt::v11::format_specs const&, fmt::v11::detail::locale_ref)::{lambda(fmt::v11::basic_appender<char>)#1}>(fmt::v11::basic_appender<char>, int, unsigned int, fmt::v11::format_specs const&, fmt::v11::detail::write_int<char, fmt::v11::basic_appender<char>, unsigned long>(fmt::v11::basic_appender<char>, fmt::v11::detail::write_int_arg<unsigned long>, fmt::v11::format_specs const&, fmt::v11::detail::locale_ref)::{lambda(fmt::v11::basic_appender<char>)#1})::{lambda(fmt::v11::basic_appender<char>&&)#1})
FUNC caeec 1d8 0 fmt::v11::detail::write_padded<char, (fmt::v11::align::type)2, fmt::v11::basic_appender<char>, fmt::v11::detail::write_int<char, fmt::v11::basic_appender<char>, fmt::v11::detail::write_int<char, fmt::v11::basic_appender<char>, unsigned long>(fmt::v11::basic_appender<char>, fmt::v11::detail::write_int_arg<unsigned long>, fmt::v11::format_specs const&, fmt::v11::detail::locale_ref)::{lambda(fmt::v11::basic_appender<char>)#1}>(fmt::v11::basic_appender<char>, int, unsigned int, fmt::v11::format_specs const&, fmt::v11::detail::write_int<char, fmt::v11::basic_appender<char>, unsigned long>(fmt::v11::basic_appender<char>, fmt::v11::detail::write_int_arg<unsigned long>, fmt::v11::format_specs const&, fmt::v11::detail::locale_ref)::{lambda(fmt::v11::basic_appender<char>)#1})::{lambda(fmt::v11::basic_appender<char>&)#1}>(fmt::v11::basic_appender<char>, fmt::v11::format_specs const&, unsigned long, unsigned long, fmt::v11::detail::write_int<char, fmt::v11::basic_appender<char>, fmt::v11::detail::write_int<char, fmt::v11::basic_appender<char>, unsigned long>(fmt::v11::basic_appender<char>, fmt::v11::detail::write_int_arg<unsigned long>, fmt::v11::format_specs const&, fmt::v11::detail::locale_ref)::{lambda(fmt::v11::basic_appender<char>)#1}>(fmt::v11::basic_appender<char>, int, unsigned int, fmt::v11::format_specs const&, fmt::v11::detail::write_int<char, fmt::v11::basic_appender<char>, unsigned long>(fmt::v11::basic_appender<char>, fmt::v11::detail::write_int_arg<unsigned long>, fmt::v11::format_specs const&, fmt::v11::detail::locale_ref)::{lambda(fmt::v11::basic_appender<char>)#1})::{lambda(fmt::v11::basic_appender<char>&)#1})
FUNC cb0c4 104 0 fmt::v11::detail::write_int<char, fmt::v11::basic_appender<char>, fmt::v11::detail::write_int<char, fmt::v11::basic_appender<char>, unsigned long>(fmt::v11::basic_appender<char>, fmt::v11::detail::write_int_arg<unsigned long>, fmt::v11::format_specs const&, fmt::v11::detail::locale_ref)::{lambda(fmt::v11::basic_appender<char>)#1}>(fmt::v11::basic_appender<char>, int, unsigned int, fmt::v11::format_specs const&, fmt::v11::detail::write_int<char, fmt::v11::basic_appender<char>, unsigned long>(fmt::v11::basic_appender<char>, fmt::v11::detail::write_int_arg<unsigned long>, fmt::v11::format_specs const&, fmt::v11::detail::locale_ref)::{lambda(fmt::v11::basic_appender<char>)#1})::{lambda(fmt::v11::basic_appender<char>(fmt::v11::basic_appender<char>))#1}::operator() const
FUNC cb1c8 80 0 fmt::v11::detail::write_int<char, fmt::v11::basic_appender<char>, unsigned long>(fmt::v11::basic_appender<char>, fmt::v11::detail::write_int_arg<unsigned long>, fmt::v11::format_specs const&, fmt::v11::detail::locale_ref)::{lambda(fmt::v11::basic_appender<char>(fmt::v11::basic_appender<char>))#2}::operator() const
FUNC cb248 84 0 fmt::v11::detail::write_padded<char, (fmt::v11::align::type)2, fmt::v11::basic_appender<char>, fmt::v11::detail::write_int<char, fmt::v11::basic_appender<char>, fmt::v11::detail::write_int<char, fmt::v11::basic_appender<char>, unsigned long>(fmt::v11::basic_appender<char>, fmt::v11::detail::write_int_arg<unsigned long>, fmt::v11::format_specs const&, fmt::v11::detail::locale_ref)::{lambda(fmt::v11::basic_appender<char>)#2}>(fmt::v11::basic_appender<char>, int, unsigned int, fmt::v11::format_specs const&, fmt::v11::detail::write_int<char, fmt::v11::basic_appender<char>, unsigned long>(fmt::v11::basic_appender<char>, fmt::v11::detail::write_int_arg<unsigned long>, fmt::v11::format_specs const&, fmt::v11::detail::locale_ref)::{lambda(fmt::v11::basic_appender<char>)#2})::{lambda(fmt::v11::basic_appender<char>)#1}>(fmt::v11::basic_appender<char>, fmt::v11::format_specs const&, unsigned long, fmt::v11::detail::write_int<char, fmt::v11::basic_appender<char>, fmt::v11::detail::write_int<char, fmt::v11::basic_appender<char>, unsigned long>(fmt::v11::basic_appender<char>, fmt::v11::detail::write_int_arg<unsigned long>, fmt::v11::format_specs const&, fmt::v11::detail::locale_ref)::{lambda(fmt::v11::basic_appender<char>)#2}>(fmt::v11::basic_appender<char>, int, unsigned int, fmt::v11::format_specs const&, fmt::v11::detail::write_int<char, fmt::v11::basic_appender<char>, unsigned long>(fmt::v11::basic_appender<char>, fmt::v11::detail::write_int_arg<unsigned long>, fmt::v11::format_specs const&, fmt::v11::detail::locale_ref)::{lambda(fmt::v11::basic_appender<char>)#2})::{lambda(fmt::v11::basic_appender<char>&&)#1})
FUNC cb2cc 1d8 0 fmt::v11::detail::write_padded<char, (fmt::v11::align::type)2, fmt::v11::basic_appender<char>, fmt::v11::detail::write_int<char, fmt::v11::basic_appender<char>, fmt::v11::detail::write_int<char, fmt::v11::basic_appender<char>, unsigned long>(fmt::v11::basic_appender<char>, fmt::v11::detail::write_int_arg<unsigned long>, fmt::v11::format_specs const&, fmt::v11::detail::locale_ref)::{lambda(fmt::v11::basic_appender<char>)#2}>(fmt::v11::basic_appender<char>, int, unsigned int, fmt::v11::format_specs const&, fmt::v11::detail::write_int<char, fmt::v11::basic_appender<char>, unsigned long>(fmt::v11::basic_appender<char>, fmt::v11::detail::write_int_arg<unsigned long>, fmt::v11::format_specs const&, fmt::v11::detail::locale_ref)::{lambda(fmt::v11::basic_appender<char>)#2})::{lambda(fmt::v11::basic_appender<char>&)#1}>(fmt::v11::basic_appender<char>, fmt::v11::format_specs const&, unsigned long, unsigned long, fmt::v11::detail::write_int<char, fmt::v11::basic_appender<char>, fmt::v11::detail::write_int<char, fmt::v11::basic_appender<char>, unsigned long>(fmt::v11::basic_appender<char>, fmt::v11::detail::write_int_arg<unsigned long>, fmt::v11::format_specs const&, fmt::v11::detail::locale_ref)::{lambda(fmt::v11::basic_appender<char>)#2}>(fmt::v11::basic_appender<char>, int, unsigned int, fmt::v11::format_specs const&, fmt::v11::detail::write_int<char, fmt::v11::basic_appender<char>, unsigned long>(fmt::v11::basic_appender<char>, fmt::v11::detail::write_int_arg<unsigned long>, fmt::v11::format_specs const&, fmt::v11::detail::locale_ref)::{lambda(fmt::v11::basic_appender<char>)#2})::{lambda(fmt::v11::basic_appender<char>&)#1})
FUNC cb4a4 104 0 fmt::v11::detail::write_int<char, fmt::v11::basic_appender<char>, fmt::v11::detail::write_int<char, fmt::v11::basic_appender<char>, unsigned long>(fmt::v11::basic_appender<char>, fmt::v11::detail::write_int_arg<unsigned long>, fmt::v11::format_specs const&, fmt::v11::detail::locale_ref)::{lambda(fmt::v11::basic_appender<char>)#2}>(fmt::v11::basic_appender<char>, int, unsigned int, fmt::v11::format_specs const&, fmt::v11::detail::write_int<char, fmt::v11::basic_appender<char>, unsigned long>(fmt::v11::basic_appender<char>, fmt::v11::detail::write_int_arg<unsigned long>, fmt::v11::format_specs const&, fmt::v11::detail::locale_ref)::{lambda(fmt::v11::basic_appender<char>)#2})::{lambda(fmt::v11::basic_appender<char>(fmt::v11::basic_appender<char>))#1}::operator() const
FUNC cb5a8 4c 0 fmt::v11::detail::count_digits<3, unsigned long>(unsigned long)::{lambda(unsigned long)#1}::operator()(unsigned long) const
FUNC cb5f4 7c 0 fmt::v11::detail::write_int<char, fmt::v11::basic_appender<char>, unsigned long>(fmt::v11::basic_appender<char>, fmt::v11::detail::write_int_arg<unsigned long>, fmt::v11::format_specs const&, fmt::v11::detail::locale_ref)::{lambda(fmt::v11::basic_appender<char>(fmt::v11::basic_appender<char>))#3}::operator() const
FUNC cb670 84 0 fmt::v11::detail::write_padded<char, (fmt::v11::align::type)2, fmt::v11::basic_appender<char>, fmt::v11::detail::write_int<char, fmt::v11::basic_appender<char>, fmt::v11::detail::write_int<char, fmt::v11::basic_appender<char>, unsigned long>(fmt::v11::basic_appender<char>, fmt::v11::detail::write_int_arg<unsigned long>, fmt::v11::format_specs const&, fmt::v11::detail::locale_ref)::{lambda(fmt::v11::basic_appender<char>)#3}>(fmt::v11::basic_appender<char>, int, unsigned int, fmt::v11::format_specs const&, fmt::v11::detail::write_int<char, fmt::v11::basic_appender<char>, unsigned long>(fmt::v11::basic_appender<char>, fmt::v11::detail::write_int_arg<unsigned long>, fmt::v11::format_specs const&, fmt::v11::detail::locale_ref)::{lambda(fmt::v11::basic_appender<char>)#3})::{lambda(fmt::v11::basic_appender<char>)#1}>(fmt::v11::basic_appender<char>, fmt::v11::format_specs const&, unsigned long, fmt::v11::detail::write_int<char, fmt::v11::basic_appender<char>, fmt::v11::detail::write_int<char, fmt::v11::basic_appender<char>, unsigned long>(fmt::v11::basic_appender<char>, fmt::v11::detail::write_int_arg<unsigned long>, fmt::v11::format_specs const&, fmt::v11::detail::locale_ref)::{lambda(fmt::v11::basic_appender<char>)#3}>(fmt::v11::basic_appender<char>, int, unsigned int, fmt::v11::format_specs const&, fmt::v11::detail::write_int<char, fmt::v11::basic_appender<char>, unsigned long>(fmt::v11::basic_appender<char>, fmt::v11::detail::write_int_arg<unsigned long>, fmt::v11::format_specs const&, fmt::v11::detail::locale_ref)::{lambda(fmt::v11::basic_appender<char>)#3})::{lambda(fmt::v11::basic_appender<char>&&)#1})
FUNC cb6f4 100 0 fmt::v11::detail::format_uint<(unsigned int)3, char, fmt::v11::basic_appender<char>, unsigned long>(fmt::v11::basic_appender<char>, unsigned long, int, bool)
FUNC cb7f4 b8 0 fmt::v11::detail::format_uint<(unsigned int)3, char, unsigned long>(char*, unsigned long, int, bool)
FUNC cb8ac 1d8 0 fmt::v11::detail::write_padded<char, (fmt::v11::align::type)2, fmt::v11::basic_appender<char>, fmt::v11::detail::write_int<char, fmt::v11::basic_appender<char>, fmt::v11::detail::write_int<char, fmt::v11::basic_appender<char>, unsigned long>(fmt::v11::basic_appender<char>, fmt::v11::detail::write_int_arg<unsigned long>, fmt::v11::format_specs const&, fmt::v11::detail::locale_ref)::{lambda(fmt::v11::basic_appender<char>)#3}>(fmt::v11::basic_appender<char>, int, unsigned int, fmt::v11::format_specs const&, fmt::v11::detail::write_int<char, fmt::v11::basic_appender<char>, unsigned long>(fmt::v11::basic_appender<char>, fmt::v11::detail::write_int_arg<unsigned long>, fmt::v11::format_specs const&, fmt::v11::detail::locale_ref)::{lambda(fmt::v11::basic_appender<char>)#3})::{lambda(fmt::v11::basic_appender<char>&)#1}>(fmt::v11::basic_appender<char>, fmt::v11::format_specs const&, unsigned long, unsigned long, fmt::v11::detail::write_int<char, fmt::v11::basic_appender<char>, fmt::v11::detail::write_int<char, fmt::v11::basic_appender<char>, unsigned long>(fmt::v11::basic_appender<char>, fmt::v11::detail::write_int_arg<unsigned long>, fmt::v11::format_specs const&, fmt::v11::detail::locale_ref)::{lambda(fmt::v11::basic_appender<char>)#3}>(fmt::v11::basic_appender<char>, int, unsigned int, fmt::v11::format_specs const&, fmt::v11::detail::write_int<char, fmt::v11::basic_appender<char>, unsigned long>(fmt::v11::basic_appender<char>, fmt::v11::detail::write_int_arg<unsigned long>, fmt::v11::format_specs const&, fmt::v11::detail::locale_ref)::{lambda(fmt::v11::basic_appender<char>)#3})::{lambda(fmt::v11::basic_appender<char>&)#1})
FUNC cba84 104 0 fmt::v11::detail::write_int<char, fmt::v11::basic_appender<char>, fmt::v11::detail::write_int<char, fmt::v11::basic_appender<char>, unsigned long>(fmt::v11::basic_appender<char>, fmt::v11::detail::write_int_arg<unsigned long>, fmt::v11::format_specs const&, fmt::v11::detail::locale_ref)::{lambda(fmt::v11::basic_appender<char>)#3}>(fmt::v11::basic_appender<char>, int, unsigned int, fmt::v11::format_specs const&, fmt::v11::detail::write_int<char, fmt::v11::basic_appender<char>, unsigned long>(fmt::v11::basic_appender<char>, fmt::v11::detail::write_int_arg<unsigned long>, fmt::v11::format_specs const&, fmt::v11::detail::locale_ref)::{lambda(fmt::v11::basic_appender<char>)#3})::{lambda(fmt::v11::basic_appender<char>(fmt::v11::basic_appender<char>))#1}::operator() const
FUNC cbb88 4c 0 fmt::v11::detail::count_digits<1, unsigned long>(unsigned long)::{lambda(unsigned long)#1}::operator()(unsigned long) const
FUNC cbbd4 7c 0 fmt::v11::detail::write_int<char, fmt::v11::basic_appender<char>, unsigned long>(fmt::v11::basic_appender<char>, fmt::v11::detail::write_int_arg<unsigned long>, fmt::v11::format_specs const&, fmt::v11::detail::locale_ref)::{lambda(fmt::v11::basic_appender<char>(fmt::v11::basic_appender<char>))#4}::operator() const
FUNC cbc50 84 0 fmt::v11::detail::write_padded<char, (fmt::v11::align::type)2, fmt::v11::basic_appender<char>, fmt::v11::detail::write_int<char, fmt::v11::basic_appender<char>, fmt::v11::detail::write_int<char, fmt::v11::basic_appender<char>, unsigned long>(fmt::v11::basic_appender<char>, fmt::v11::detail::write_int_arg<unsigned long>, fmt::v11::format_specs const&, fmt::v11::detail::locale_ref)::{lambda(fmt::v11::basic_appender<char>)#4}>(fmt::v11::basic_appender<char>, int, unsigned int, fmt::v11::format_specs const&, fmt::v11::detail::write_int<char, fmt::v11::basic_appender<char>, unsigned long>(fmt::v11::basic_appender<char>, fmt::v11::detail::write_int_arg<unsigned long>, fmt::v11::format_specs const&, fmt::v11::detail::locale_ref)::{lambda(fmt::v11::basic_appender<char>)#4})::{lambda(fmt::v11::basic_appender<char>)#1}>(fmt::v11::basic_appender<char>, fmt::v11::format_specs const&, unsigned long, fmt::v11::detail::write_int<char, fmt::v11::basic_appender<char>, fmt::v11::detail::write_int<char, fmt::v11::basic_appender<char>, unsigned long>(fmt::v11::basic_appender<char>, fmt::v11::detail::write_int_arg<unsigned long>, fmt::v11::format_specs const&, fmt::v11::detail::locale_ref)::{lambda(fmt::v11::basic_appender<char>)#4}>(fmt::v11::basic_appender<char>, int, unsigned int, fmt::v11::format_specs const&, fmt::v11::detail::write_int<char, fmt::v11::basic_appender<char>, unsigned long>(fmt::v11::basic_appender<char>, fmt::v11::detail::write_int_arg<unsigned long>, fmt::v11::format_specs const&, fmt::v11::detail::locale_ref)::{lambda(fmt::v11::basic_appender<char>)#4})::{lambda(fmt::v11::basic_appender<char>&&)#1})
FUNC cbcd4 10c 0 fmt::v11::detail::format_uint<(unsigned int)1, char, fmt::v11::basic_appender<char>, unsigned long>(fmt::v11::basic_appender<char>, unsigned long, int, bool)
FUNC cbde0 b8 0 fmt::v11::detail::format_uint<(unsigned int)1, char, unsigned long>(char*, unsigned long, int, bool)
FUNC cbe98 1d8 0 fmt::v11::detail::write_padded<char, (fmt::v11::align::type)2, fmt::v11::basic_appender<char>, fmt::v11::detail::write_int<char, fmt::v11::basic_appender<char>, fmt::v11::detail::write_int<char, fmt::v11::basic_appender<char>, unsigned long>(fmt::v11::basic_appender<char>, fmt::v11::detail::write_int_arg<unsigned long>, fmt::v11::format_specs const&, fmt::v11::detail::locale_ref)::{lambda(fmt::v11::basic_appender<char>)#4}>(fmt::v11::basic_appender<char>, int, unsigned int, fmt::v11::format_specs const&, fmt::v11::detail::write_int<char, fmt::v11::basic_appender<char>, unsigned long>(fmt::v11::basic_appender<char>, fmt::v11::detail::write_int_arg<unsigned long>, fmt::v11::format_specs const&, fmt::v11::detail::locale_ref)::{lambda(fmt::v11::basic_appender<char>)#4})::{lambda(fmt::v11::basic_appender<char>&)#1}>(fmt::v11::basic_appender<char>, fmt::v11::format_specs const&, unsigned long, unsigned long, fmt::v11::detail::write_int<char, fmt::v11::basic_appender<char>, fmt::v11::detail::write_int<char, fmt::v11::basic_appender<char>, unsigned long>(fmt::v11::basic_appender<char>, fmt::v11::detail::write_int_arg<unsigned long>, fmt::v11::format_specs const&, fmt::v11::detail::locale_ref)::{lambda(fmt::v11::basic_appender<char>)#4}>(fmt::v11::basic_appender<char>, int, unsigned int, fmt::v11::format_specs const&, fmt::v11::detail::write_int<char, fmt::v11::basic_appender<char>, unsigned long>(fmt::v11::basic_appender<char>, fmt::v11::detail::write_int_arg<unsigned long>, fmt::v11::format_specs const&, fmt::v11::detail::locale_ref)::{lambda(fmt::v11::basic_appender<char>)#4})::{lambda(fmt::v11::basic_appender<char>&)#1})
FUNC cc070 104 0 fmt::v11::detail::write_int<char, fmt::v11::basic_appender<char>, fmt::v11::detail::write_int<char, fmt::v11::basic_appender<char>, unsigned long>(fmt::v11::basic_appender<char>, fmt::v11::detail::write_int_arg<unsigned long>, fmt::v11::format_specs const&, fmt::v11::detail::locale_ref)::{lambda(fmt::v11::basic_appender<char>)#4}>(fmt::v11::basic_appender<char>, int, unsigned int, fmt::v11::format_specs const&, fmt::v11::detail::write_int<char, fmt::v11::basic_appender<char>, unsigned long>(fmt::v11::basic_appender<char>, fmt::v11::detail::write_int_arg<unsigned long>, fmt::v11::format_specs const&, fmt::v11::detail::locale_ref)::{lambda(fmt::v11::basic_appender<char>)#4})::{lambda(fmt::v11::basic_appender<char>(fmt::v11::basic_appender<char>))#1}::operator() const
FUNC cc174 100 0 fmt::v11::detail::write<char, unsigned long long, 0>(fmt::v11::basic_appender<char>, unsigned long long, fmt::v11::format_specs const&, fmt::v11::detail::locale_ref)
FUNC cc274 58 0 fmt::v11::loc_value::loc_value<unsigned long long, 0>()
FUNC cc2cc d8 0 fmt::v11::detail::make_write_int_arg<unsigned long long>(unsigned long long, fmt::v11::sign::type)
FUNC cc3a4 84 0 fmt::v11::detail::make_arg<fmt::v11::context, unsigned long long>(unsigned long long&)
FUNC cc428 88 0 fmt::v11::detail::make_arg<true, fmt::v11::context, unsigned long long, 0>(unsigned long long&)
FUNC cc4b0 108 0 fmt::v11::detail::write<char, __int128, 0>(fmt::v11::basic_appender<char>, __int128, fmt::v11::format_specs const&, fmt::v11::detail::locale_ref)
FUNC cc5b8 5c 0 fmt::v11::loc_value::loc_value<__int128, 0>()
FUNC cc614 94 0 fmt::v11::detail::write_int_noinline<char, fmt::v11::basic_appender<char>, unsigned __int128>(fmt::v11::basic_appender<char>, fmt::v11::detail::write_int_arg<unsigned __int128>, fmt::v11::format_specs const&, fmt::v11::detail::locale_ref)
FUNC cc6a8 ec 0 fmt::v11::detail::make_write_int_arg<__int128>(__int128, fmt::v11::sign::type)
FUNC cc794 84 0 fmt::v11::detail::make_arg<fmt::v11::context, __int128>(__int128&)
FUNC cc818 a0 0 fmt::v11::detail::make_arg<true, fmt::v11::context, __int128, 0>(__int128&)
FUNC cc8b8 300 0 fmt::v11::detail::write_int<char, fmt::v11::basic_appender<char>, unsigned __int128>(fmt::v11::basic_appender<char>, fmt::v11::detail::write_int_arg<unsigned __int128>, fmt::v11::format_specs const&, fmt::v11::detail::locale_ref)
FUNC ccbb8 1a0 0 fmt::v11::detail::write_int<char, fmt::v11::basic_appender<char>, fmt::v11::detail::write_int<char, fmt::v11::basic_appender<char>, unsigned __int128>(fmt::v11::basic_appender<char>, fmt::v11::detail::write_int_arg<unsigned __int128>, fmt::v11::format_specs const&, fmt::v11::detail::locale_ref)::{lambda(fmt::v11::basic_appender<char>)#1}>(fmt::v11::basic_appender<char>, int, unsigned int, fmt::v11::format_specs const&, fmt::v11::detail::write_int<char, fmt::v11::basic_appender<char>, unsigned __int128>(fmt::v11::basic_appender<char>, fmt::v11::detail::write_int_arg<unsigned __int128>, fmt::v11::format_specs const&, fmt::v11::detail::locale_ref)::{lambda(fmt::v11::basic_appender<char>)#1})
FUNC ccd58 64 0 fmt::v11::detail::count_digits<4, unsigned __int128>(unsigned __int128)
FUNC ccdbc 1a8 0 fmt::v11::detail::write_int<char, fmt::v11::basic_appender<char>, fmt::v11::detail::write_int<char, fmt::v11::basic_appender<char>, unsigned __int128>(fmt::v11::basic_appender<char>, fmt::v11::detail::write_int_arg<unsigned __int128>, fmt::v11::format_specs const&, fmt::v11::detail::locale_ref)::{lambda(fmt::v11::basic_appender<char>)#2}>(fmt::v11::basic_appender<char>, int, unsigned int, fmt::v11::format_specs const&, fmt::v11::detail::write_int<char, fmt::v11::basic_appender<char>, unsigned __int128>(fmt::v11::basic_appender<char>, fmt::v11::detail::write_int_arg<unsigned __int128>, fmt::v11::format_specs const&, fmt::v11::detail::locale_ref)::{lambda(fmt::v11::basic_appender<char>)#2})
FUNC ccf64 64 0 fmt::v11::detail::count_digits<3, unsigned __int128>(unsigned __int128)
FUNC ccfc8 1a0 0 fmt::v11::detail::write_int<char, fmt::v11::basic_appender<char>, fmt::v11::detail::write_int<char, fmt::v11::basic_appender<char>, unsigned __int128>(fmt::v11::basic_appender<char>, fmt::v11::detail::write_int_arg<unsigned __int128>, fmt::v11::format_specs const&, fmt::v11::detail::locale_ref)::{lambda(fmt::v11::basic_appender<char>)#3}>(fmt::v11::basic_appender<char>, int, unsigned int, fmt::v11::format_specs const&, fmt::v11::detail::write_int<char, fmt::v11::basic_appender<char>, unsigned __int128>(fmt::v11::basic_appender<char>, fmt::v11::detail::write_int_arg<unsigned __int128>, fmt::v11::format_specs const&, fmt::v11::detail::locale_ref)::{lambda(fmt::v11::basic_appender<char>)#3})
FUNC cd168 1a0 0 fmt::v11::detail::write_int<char, fmt::v11::basic_appender<char>, fmt::v11::detail::write_int<char, fmt::v11::basic_appender<char>, unsigned __int128>(fmt::v11::basic_appender<char>, fmt::v11::detail::write_int_arg<unsigned __int128>, fmt::v11::format_specs const&, fmt::v11::detail::locale_ref)::{lambda(fmt::v11::basic_appender<char>)#4}>(fmt::v11::basic_appender<char>, int, unsigned int, fmt::v11::format_specs const&, fmt::v11::detail::write_int<char, fmt::v11::basic_appender<char>, unsigned __int128>(fmt::v11::basic_appender<char>, fmt::v11::detail::write_int_arg<unsigned __int128>, fmt::v11::format_specs const&, fmt::v11::detail::locale_ref)::{lambda(fmt::v11::basic_appender<char>)#4})
FUNC cd308 88 0 fmt::v11::detail::write_int<char, fmt::v11::basic_appender<char>, unsigned __int128>(fmt::v11::basic_appender<char>, fmt::v11::detail::write_int_arg<unsigned __int128>, fmt::v11::format_specs const&, fmt::v11::detail::locale_ref)::{lambda(fmt::v11::basic_appender<char>(fmt::v11::basic_appender<char>))#1}::operator() const
FUNC cd390 84 0 fmt::v11::detail::write_padded<char, (fmt::v11::align::type)2, fmt::v11::basic_appender<char>, fmt::v11::detail::write_int<char, fmt::v11::basic_appender<char>, fmt::v11::detail::write_int<char, fmt::v11::basic_appender<char>, unsigned __int128>(fmt::v11::basic_appender<char>, fmt::v11::detail::write_int_arg<unsigned __int128>, fmt::v11::format_specs const&, fmt::v11::detail::locale_ref)::{lambda(fmt::v11::basic_appender<char>)#1}>(fmt::v11::basic_appender<char>, int, unsigned int, fmt::v11::format_specs const&, fmt::v11::detail::write_int<char, fmt::v11::basic_appender<char>, unsigned __int128>(fmt::v11::basic_appender<char>, fmt::v11::detail::write_int_arg<unsigned __int128>, fmt::v11::format_specs const&, fmt::v11::detail::locale_ref)::{lambda(fmt::v11::basic_appender<char>)#1})::{lambda(fmt::v11::basic_appender<char>)#1}>(fmt::v11::basic_appender<char>, fmt::v11::format_specs const&, unsigned long, fmt::v11::detail::write_int<char, fmt::v11::basic_appender<char>, fmt::v11::detail::write_int<char, fmt::v11::basic_appender<char>, unsigned __int128>(fmt::v11::basic_appender<char>, fmt::v11::detail::write_int_arg<unsigned __int128>, fmt::v11::format_specs const&, fmt::v11::detail::locale_ref)::{lambda(fmt::v11::basic_appender<char>)#1}>(fmt::v11::basic_appender<char>, int, unsigned int, fmt::v11::format_specs const&, fmt::v11::detail::write_int<char, fmt::v11::basic_appender<char>, unsigned __int128>(fmt::v11::basic_appender<char>, fmt::v11::detail::write_int_arg<unsigned __int128>, fmt::v11::format_specs const&, fmt::v11::detail::locale_ref)::{lambda(fmt::v11::basic_appender<char>)#1})::{lambda(fmt::v11::basic_appender<char>&&)#1})
FUNC cd414 1d8 0 fmt::v11::detail::write_padded<char, (fmt::v11::align::type)2, fmt::v11::basic_appender<char>, fmt::v11::detail::write_int<char, fmt::v11::basic_appender<char>, fmt::v11::detail::write_int<char, fmt::v11::basic_appender<char>, unsigned __int128>(fmt::v11::basic_appender<char>, fmt::v11::detail::write_int_arg<unsigned __int128>, fmt::v11::format_specs const&, fmt::v11::detail::locale_ref)::{lambda(fmt::v11::basic_appender<char>)#1}>(fmt::v11::basic_appender<char>, int, unsigned int, fmt::v11::format_specs const&, fmt::v11::detail::write_int<char, fmt::v11::basic_appender<char>, unsigned __int128>(fmt::v11::basic_appender<char>, fmt::v11::detail::write_int_arg<unsigned __int128>, fmt::v11::format_specs const&, fmt::v11::detail::locale_ref)::{lambda(fmt::v11::basic_appender<char>)#1})::{lambda(fmt::v11::basic_appender<char>&)#1}>(fmt::v11::basic_appender<char>, fmt::v11::format_specs const&, unsigned long, unsigned long, fmt::v11::detail::write_int<char, fmt::v11::basic_appender<char>, fmt::v11::detail::write_int<char, fmt::v11::basic_appender<char>, unsigned __int128>(fmt::v11::basic_appender<char>, fmt::v11::detail::write_int_arg<unsigned __int128>, fmt::v11::format_specs const&, fmt::v11::detail::locale_ref)::{lambda(fmt::v11::basic_appender<char>)#1}>(fmt::v11::basic_appender<char>, int, unsigned int, fmt::v11::format_specs const&, fmt::v11::detail::write_int<char, fmt::v11::basic_appender<char>, unsigned __int128>(fmt::v11::basic_appender<char>, fmt::v11::detail::write_int_arg<unsigned __int128>, fmt::v11::format_specs const&, fmt::v11::detail::locale_ref)::{lambda(fmt::v11::basic_appender<char>)#1})::{lambda(fmt::v11::basic_appender<char>&)#1})
FUNC cd5ec 104 0 fmt::v11::detail::write_int<char, fmt::v11::basic_appender<char>, fmt::v11::detail::write_int<char, fmt::v11::basic_appender<char>, unsigned __int128>(fmt::v11::basic_appender<char>, fmt::v11::detail::write_int_arg<unsigned __int128>, fmt::v11::format_specs const&, fmt::v11::detail::locale_ref)::{lambda(fmt::v11::basic_appender<char>)#1}>(fmt::v11::basic_appender<char>, int, unsigned int, fmt::v11::format_specs const&, fmt::v11::detail::write_int<char, fmt::v11::basic_appender<char>, unsigned __int128>(fmt::v11::basic_appender<char>, fmt::v11::detail::write_int_arg<unsigned __int128>, fmt::v11::format_specs const&, fmt::v11::detail::locale_ref)::{lambda(fmt::v11::basic_appender<char>)#1})::{lambda(fmt::v11::basic_appender<char>(fmt::v11::basic_appender<char>))#1}::operator() const
FUNC cd6f0 88 0 fmt::v11::detail::count_digits<4, unsigned __int128>(unsigned __int128)::{lambda(unsigned __int128)#1}::operator()(unsigned __int128) const
FUNC cd778 84 0 fmt::v11::detail::write_int<char, fmt::v11::basic_appender<char>, unsigned __int128>(fmt::v11::basic_appender<char>, fmt::v11::detail::write_int_arg<unsigned __int128>, fmt::v11::format_specs const&, fmt::v11::detail::locale_ref)::{lambda(fmt::v11::basic_appender<char>(fmt::v11::basic_appender<char>))#2}::operator() const
FUNC cd7fc 84 0 fmt::v11::detail::write_padded<char, (fmt::v11::align::type)2, fmt::v11::basic_appender<char>, fmt::v11::detail::write_int<char, fmt::v11::basic_appender<char>, fmt::v11::detail::write_int<char, fmt::v11::basic_appender<char>, unsigned __int128>(fmt::v11::basic_appender<char>, fmt::v11::detail::write_int_arg<unsigned __int128>, fmt::v11::format_specs const&, fmt::v11::detail::locale_ref)::{lambda(fmt::v11::basic_appender<char>)#2}>(fmt::v11::basic_appender<char>, int, unsigned int, fmt::v11::format_specs const&, fmt::v11::detail::write_int<char, fmt::v11::basic_appender<char>, unsigned __int128>(fmt::v11::basic_appender<char>, fmt::v11::detail::write_int_arg<unsigned __int128>, fmt::v11::format_specs const&, fmt::v11::detail::locale_ref)::{lambda(fmt::v11::basic_appender<char>)#2})::{lambda(fmt::v11::basic_appender<char>)#1}>(fmt::v11::basic_appender<char>, fmt::v11::format_specs const&, unsigned long, fmt::v11::detail::write_int<char, fmt::v11::basic_appender<char>, fmt::v11::detail::write_int<char, fmt::v11::basic_appender<char>, unsigned __int128>(fmt::v11::basic_appender<char>, fmt::v11::detail::write_int_arg<unsigned __int128>, fmt::v11::format_specs const&, fmt::v11::detail::locale_ref)::{lambda(fmt::v11::basic_appender<char>)#2}>(fmt::v11::basic_appender<char>, int, unsigned int, fmt::v11::format_specs const&, fmt::v11::detail::write_int<char, fmt::v11::basic_appender<char>, unsigned __int128>(fmt::v11::basic_appender<char>, fmt::v11::detail::write_int_arg<unsigned __int128>, fmt::v11::format_specs const&, fmt::v11::detail::locale_ref)::{lambda(fmt::v11::basic_appender<char>)#2})::{lambda(fmt::v11::basic_appender<char>&&)#1})
FUNC cd880 110 0 fmt::v11::detail::format_uint<(unsigned int)4, char, fmt::v11::basic_appender<char>, unsigned __int128>(fmt::v11::basic_appender<char>, unsigned __int128, int, bool)
FUNC cd990 1d8 0 fmt::v11::detail::write_padded<char, (fmt::v11::align::type)2, fmt::v11::basic_appender<char>, fmt::v11::detail::write_int<char, fmt::v11::basic_appender<char>, fmt::v11::detail::write_int<char, fmt::v11::basic_appender<char>, unsigned __int128>(fmt::v11::basic_appender<char>, fmt::v11::detail::write_int_arg<unsigned __int128>, fmt::v11::format_specs const&, fmt::v11::detail::locale_ref)::{lambda(fmt::v11::basic_appender<char>)#2}>(fmt::v11::basic_appender<char>, int, unsigned int, fmt::v11::format_specs const&, fmt::v11::detail::write_int<char, fmt::v11::basic_appender<char>, unsigned __int128>(fmt::v11::basic_appender<char>, fmt::v11::detail::write_int_arg<unsigned __int128>, fmt::v11::format_specs const&, fmt::v11::detail::locale_ref)::{lambda(fmt::v11::basic_appender<char>)#2})::{lambda(fmt::v11::basic_appender<char>&)#1}>(fmt::v11::basic_appender<char>, fmt::v11::format_specs const&, unsigned long, unsigned long, fmt::v11::detail::write_int<char, fmt::v11::basic_appender<char>, fmt::v11::detail::write_int<char, fmt::v11::basic_appender<char>, unsigned __int128>(fmt::v11::basic_appender<char>, fmt::v11::detail::write_int_arg<unsigned __int128>, fmt::v11::format_specs const&, fmt::v11::detail::locale_ref)::{lambda(fmt::v11::basic_appender<char>)#2}>(fmt::v11::basic_appender<char>, int, unsigned int, fmt::v11::format_specs const&, fmt::v11::detail::write_int<char, fmt::v11::basic_appender<char>, unsigned __int128>(fmt::v11::basic_appender<char>, fmt::v11::detail::write_int_arg<unsigned __int128>, fmt::v11::format_specs const&, fmt::v11::detail::locale_ref)::{lambda(fmt::v11::basic_appender<char>)#2})::{lambda(fmt::v11::basic_appender<char>&)#1})
FUNC cdb68 104 0 fmt::v11::detail::write_int<char, fmt::v11::basic_appender<char>, fmt::v11::detail::write_int<char, fmt::v11::basic_appender<char>, unsigned __int128>(fmt::v11::basic_appender<char>, fmt::v11::detail::write_int_arg<unsigned __int128>, fmt::v11::format_specs const&, fmt::v11::detail::locale_ref)::{lambda(fmt::v11::basic_appender<char>)#2}>(fmt::v11::basic_appender<char>, int, unsigned int, fmt::v11::format_specs const&, fmt::v11::detail::write_int<char, fmt::v11::basic_appender<char>, unsigned __int128>(fmt::v11::basic_appender<char>, fmt::v11::detail::write_int_arg<unsigned __int128>, fmt::v11::format_specs const&, fmt::v11::detail::locale_ref)::{lambda(fmt::v11::basic_appender<char>)#2})::{lambda(fmt::v11::basic_appender<char>(fmt::v11::basic_appender<char>))#1}::operator() const
FUNC cdc6c 88 0 fmt::v11::detail::count_digits<3, unsigned __int128>(unsigned __int128)::{lambda(unsigned __int128)#1}::operator()(unsigned __int128) const
FUNC cdcf4 80 0 fmt::v11::detail::write_int<char, fmt::v11::basic_appender<char>, unsigned __int128>(fmt::v11::basic_appender<char>, fmt::v11::detail::write_int_arg<unsigned __int128>, fmt::v11::format_specs const&, fmt::v11::detail::locale_ref)::{lambda(fmt::v11::basic_appender<char>(fmt::v11::basic_appender<char>))#3}::operator() const
FUNC cdd74 84 0 fmt::v11::detail::write_padded<char, (fmt::v11::align::type)2, fmt::v11::basic_appender<char>, fmt::v11::detail::write_int<char, fmt::v11::basic_appender<char>, fmt::v11::detail::write_int<char, fmt::v11::basic_appender<char>, unsigned __int128>(fmt::v11::basic_appender<char>, fmt::v11::detail::write_int_arg<unsigned __int128>, fmt::v11::format_specs const&, fmt::v11::detail::locale_ref)::{lambda(fmt::v11::basic_appender<char>)#3}>(fmt::v11::basic_appender<char>, int, unsigned int, fmt::v11::format_specs const&, fmt::v11::detail::write_int<char, fmt::v11::basic_appender<char>, unsigned __int128>(fmt::v11::basic_appender<char>, fmt::v11::detail::write_int_arg<unsigned __int128>, fmt::v11::format_specs const&, fmt::v11::detail::locale_ref)::{lambda(fmt::v11::basic_appender<char>)#3})::{lambda(fmt::v11::basic_appender<char>)#1}>(fmt::v11::basic_appender<char>, fmt::v11::format_specs const&, unsigned long, fmt::v11::detail::write_int<char, fmt::v11::basic_appender<char>, fmt::v11::detail::write_int<char, fmt::v11::basic_appender<char>, unsigned __int128>(fmt::v11::basic_appender<char>, fmt::v11::detail::write_int_arg<unsigned __int128>, fmt::v11::format_specs const&, fmt::v11::detail::locale_ref)::{lambda(fmt::v11::basic_appender<char>)#3}>(fmt::v11::basic_appender<char>, int, unsigned int, fmt::v11::format_specs const&, fmt::v11::detail::write_int<char, fmt::v11::basic_appender<char>, unsigned __int128>(fmt::v11::basic_appender<char>, fmt::v11::detail::write_int_arg<unsigned __int128>, fmt::v11::format_specs const&, fmt::v11::detail::locale_ref)::{lambda(fmt::v11::basic_appender<char>)#3})::{lambda(fmt::v11::basic_appender<char>&&)#1})
FUNC cddf8 10c 0 fmt::v11::detail::format_uint<(unsigned int)3, char, fmt::v11::basic_appender<char>, unsigned __int128>(fmt::v11::basic_appender<char>, unsigned __int128, int, bool)
FUNC cdf04 100 0 fmt::v11::detail::format_uint<(unsigned int)3, char, unsigned __int128>(char*, unsigned __int128, int, bool)
FUNC ce004 1d8 0 fmt::v11::detail::write_padded<char, (fmt::v11::align::type)2, fmt::v11::basic_appender<char>, fmt::v11::detail::write_int<char, fmt::v11::basic_appender<char>, fmt::v11::detail::write_int<char, fmt::v11::basic_appender<char>, unsigned __int128>(fmt::v11::basic_appender<char>, fmt::v11::detail::write_int_arg<unsigned __int128>, fmt::v11::format_specs const&, fmt::v11::detail::locale_ref)::{lambda(fmt::v11::basic_appender<char>)#3}>(fmt::v11::basic_appender<char>, int, unsigned int, fmt::v11::format_specs const&, fmt::v11::detail::write_int<char, fmt::v11::basic_appender<char>, unsigned __int128>(fmt::v11::basic_appender<char>, fmt::v11::detail::write_int_arg<unsigned __int128>, fmt::v11::format_specs const&, fmt::v11::detail::locale_ref)::{lambda(fmt::v11::basic_appender<char>)#3})::{lambda(fmt::v11::basic_appender<char>&)#1}>(fmt::v11::basic_appender<char>, fmt::v11::format_specs const&, unsigned long, unsigned long, fmt::v11::detail::write_int<char, fmt::v11::basic_appender<char>, fmt::v11::detail::write_int<char, fmt::v11::basic_appender<char>, unsigned __int128>(fmt::v11::basic_appender<char>, fmt::v11::detail::write_int_arg<unsigned __int128>, fmt::v11::format_specs const&, fmt::v11::detail::locale_ref)::{lambda(fmt::v11::basic_appender<char>)#3}>(fmt::v11::basic_appender<char>, int, unsigned int, fmt::v11::format_specs const&, fmt::v11::detail::write_int<char, fmt::v11::basic_appender<char>, unsigned __int128>(fmt::v11::basic_appender<char>, fmt::v11::detail::write_int_arg<unsigned __int128>, fmt::v11::format_specs const&, fmt::v11::detail::locale_ref)::{lambda(fmt::v11::basic_appender<char>)#3})::{lambda(fmt::v11::basic_appender<char>&)#1})
FUNC ce1dc 104 0 fmt::v11::detail::write_int<char, fmt::v11::basic_appender<char>, fmt::v11::detail::write_int<char, fmt::v11::basic_appender<char>, unsigned __int128>(fmt::v11::basic_appender<char>, fmt::v11::detail::write_int_arg<unsigned __int128>, fmt::v11::format_specs const&, fmt::v11::detail::locale_ref)::{lambda(fmt::v11::basic_appender<char>)#3}>(fmt::v11::basic_appender<char>, int, unsigned int, fmt::v11::format_specs const&, fmt::v11::detail::write_int<char, fmt::v11::basic_appender<char>, unsigned __int128>(fmt::v11::basic_appender<char>, fmt::v11::detail::write_int_arg<unsigned __int128>, fmt::v11::format_specs const&, fmt::v11::detail::locale_ref)::{lambda(fmt::v11::basic_appender<char>)#3})::{lambda(fmt::v11::basic_appender<char>(fmt::v11::basic_appender<char>))#1}::operator() const
FUNC ce2e0 80 0 fmt::v11::detail::write_int<char, fmt::v11::basic_appender<char>, unsigned __int128>(fmt::v11::basic_appender<char>, fmt::v11::detail::write_int_arg<unsigned __int128>, fmt::v11::format_specs const&, fmt::v11::detail::locale_ref)::{lambda(fmt::v11::basic_appender<char>(fmt::v11::basic_appender<char>))#4}::operator() const
FUNC ce360 84 0 fmt::v11::detail::write_padded<char, (fmt::v11::align::type)2, fmt::v11::basic_appender<char>, fmt::v11::detail::write_int<char, fmt::v11::basic_appender<char>, fmt::v11::detail::write_int<char, fmt::v11::basic_appender<char>, unsigned __int128>(fmt::v11::basic_appender<char>, fmt::v11::detail::write_int_arg<unsigned __int128>, fmt::v11::format_specs const&, fmt::v11::detail::locale_ref)::{lambda(fmt::v11::basic_appender<char>)#4}>(fmt::v11::basic_appender<char>, int, unsigned int, fmt::v11::format_specs const&, fmt::v11::detail::write_int<char, fmt::v11::basic_appender<char>, unsigned __int128>(fmt::v11::basic_appender<char>, fmt::v11::detail::write_int_arg<unsigned __int128>, fmt::v11::format_specs const&, fmt::v11::detail::locale_ref)::{lambda(fmt::v11::basic_appender<char>)#4})::{lambda(fmt::v11::basic_appender<char>)#1}>(fmt::v11::basic_appender<char>, fmt::v11::format_specs const&, unsigned long, fmt::v11::detail::write_int<char, fmt::v11::basic_appender<char>, fmt::v11::detail::write_int<char, fmt::v11::basic_appender<char>, unsigned __int128>(fmt::v11::basic_appender<char>, fmt::v11::detail::write_int_arg<unsigned __int128>, fmt::v11::format_specs const&, fmt::v11::detail::locale_ref)::{lambda(fmt::v11::basic_appender<char>)#4}>(fmt::v11::basic_appender<char>, int, unsigned int, fmt::v11::format_specs const&, fmt::v11::detail::write_int<char, fmt::v11::basic_appender<char>, unsigned __int128>(fmt::v11::basic_appender<char>, fmt::v11::detail::write_int_arg<unsigned __int128>, fmt::v11::format_specs const&, fmt::v11::detail::locale_ref)::{lambda(fmt::v11::basic_appender<char>)#4})::{lambda(fmt::v11::basic_appender<char>&&)#1})
FUNC ce3e4 134 0 fmt::v11::detail::format_uint<(unsigned int)1, char, fmt::v11::basic_appender<char>, unsigned __int128>(fmt::v11::basic_appender<char>, unsigned __int128, int, bool)
FUNC ce518 100 0 fmt::v11::detail::format_uint<(unsigned int)1, char, unsigned __int128>(char*, unsigned __int128, int, bool)
FUNC ce618 1d8 0 fmt::v11::detail::write_padded<char, (fmt::v11::align::type)2, fmt::v11::basic_appender<char>, fmt::v11::detail::write_int<char, fmt::v11::basic_appender<char>, fmt::v11::detail::write_int<char, fmt::v11::basic_appender<char>, unsigned __int128>(fmt::v11::basic_appender<char>, fmt::v11::detail::write_int_arg<unsigned __int128>, fmt::v11::format_specs const&, fmt::v11::detail::locale_ref)::{lambda(fmt::v11::basic_appender<char>)#4}>(fmt::v11::basic_appender<char>, int, unsigned int, fmt::v11::format_specs const&, fmt::v11::detail::write_int<char, fmt::v11::basic_appender<char>, unsigned __int128>(fmt::v11::basic_appender<char>, fmt::v11::detail::write_int_arg<unsigned __int128>, fmt::v11::format_specs const&, fmt::v11::detail::locale_ref)::{lambda(fmt::v11::basic_appender<char>)#4})::{lambda(fmt::v11::basic_appender<char>&)#1}>(fmt::v11::basic_appender<char>, fmt::v11::format_specs const&, unsigned long, unsigned long, fmt::v11::detail::write_int<char, fmt::v11::basic_appender<char>, fmt::v11::detail::write_int<char, fmt::v11::basic_appender<char>, unsigned __int128>(fmt::v11::basic_appender<char>, fmt::v11::detail::write_int_arg<unsigned __int128>, fmt::v11::format_specs const&, fmt::v11::detail::locale_ref)::{lambda(fmt::v11::basic_appender<char>)#4}>(fmt::v11::basic_appender<char>, int, unsigned int, fmt::v11::format_specs const&, fmt::v11::detail::write_int<char, fmt::v11::basic_appender<char>, unsigned __int128>(fmt::v11::basic_appender<char>, fmt::v11::detail::write_int_arg<unsigned __int128>, fmt::v11::format_specs const&, fmt::v11::detail::locale_ref)::{lambda(fmt::v11::basic_appender<char>)#4})::{lambda(fmt::v11::basic_appender<char>&)#1})
FUNC ce7f0 104 0 fmt::v11::detail::write_int<char, fmt::v11::basic_appender<char>, fmt::v11::detail::write_int<char, fmt::v11::basic_appender<char>, unsigned __int128>(fmt::v11::basic_appender<char>, fmt::v11::detail::write_int_arg<unsigned __int128>, fmt::v11::format_specs const&, fmt::v11::detail::locale_ref)::{lambda(fmt::v11::basic_appender<char>)#4}>(fmt::v11::basic_appender<char>, int, unsigned int, fmt::v11::format_specs const&, fmt::v11::detail::write_int<char, fmt::v11::basic_appender<char>, unsigned __int128>(fmt::v11::basic_appender<char>, fmt::v11::detail::write_int_arg<unsigned __int128>, fmt::v11::format_specs const&, fmt::v11::detail::locale_ref)::{lambda(fmt::v11::basic_appender<char>)#4})::{lambda(fmt::v11::basic_appender<char>(fmt::v11::basic_appender<char>))#1}::operator() const
FUNC ce8f4 108 0 fmt::v11::detail::write<char, unsigned __int128, 0>(fmt::v11::basic_appender<char>, unsigned __int128, fmt::v11::format_specs const&, fmt::v11::detail::locale_ref)
FUNC ce9fc 5c 0 fmt::v11::loc_value::loc_value<unsigned __int128, 0>()
FUNC cea58 ec 0 fmt::v11::detail::make_write_int_arg<unsigned __int128>(unsigned __int128, fmt::v11::sign::type)
FUNC ceb44 84 0 fmt::v11::detail::make_arg<fmt::v11::context, unsigned __int128>(unsigned __int128&)
FUNC cebc8 a0 0 fmt::v11::detail::make_arg<true, fmt::v11::context, unsigned __int128, 0>(unsigned __int128&)
FUNC cec68 b8 0 fmt::v11::detail::write<char, fmt::v11::basic_appender<char> >(fmt::v11::basic_appender<char>, char, fmt::v11::format_specs const&, fmt::v11::detail::locale_ref)
FUNC ced20 fc 0 fmt::v11::detail::check_char_specs(fmt::v11::format_specs const&)
FUNC cee1c f8 0 fmt::v11::detail::write<char, unsigned char, 0>(fmt::v11::basic_appender<char>, unsigned char, fmt::v11::format_specs const&, fmt::v11::detail::locale_ref)
FUNC cef14 58 0 fmt::v11::loc_value::loc_value<unsigned char, 0>()
FUNC cef6c cc 0 fmt::v11::detail::make_write_int_arg<unsigned char>(unsigned char, fmt::v11::sign::type)
FUNC cf038 84 0 fmt::v11::detail::make_arg<fmt::v11::context, unsigned char>(unsigned char&)
FUNC cf0bc 88 0 fmt::v11::detail::make_arg<true, fmt::v11::context, unsigned char, 0>(unsigned char&)
FUNC cf144 18 0 fmt::v11::detail::is_negative<unsigned char, 0>(unsigned char)
FUNC cf15c 118 0 fmt::v11::detail::write<char, fmt::v11::basic_appender<char>, float, 0>(fmt::v11::basic_appender<char>, float, fmt::v11::format_specs, fmt::v11::detail::locale_ref)
FUNC cf274 58 0 fmt::v11::loc_value::loc_value<float, 0>()
FUNC cf2cc 4a0 0 fmt::v11::detail::write_float<char, fmt::v11::basic_appender<char>, float>(fmt::v11::basic_appender<char>, float, fmt::v11::format_specs, fmt::v11::detail::locale_ref)
FUNC cf76c 84 0 fmt::v11::detail::make_arg<fmt::v11::context, float>(float&)
FUNC cf7f0 88 0 fmt::v11::detail::make_arg<true, fmt::v11::context, float, 0>(float&)
FUNC cf878 34 0 fmt::v11::detail::isfinite<float, 0>(float)
FUNC cf8ac 24 0 fmt::v11::detail::isnan<float>(float)
FUNC cf8d0 3c4 0 fmt::v11::detail::format_hexfloat<double, 0>(double, fmt::v11::format_specs, fmt::v11::detail::buffer<char>&)
FUNC cfc94 18 0 fmt::v11::detail::convert_float<float>(float)
FUNC cfcac bd4 0 fmt::v11::detail::format_float<double>(double, int, fmt::v11::detail::float_specs, fmt::v11::detail::buffer<char>&)
FUNC d0880 34 0 _Z8isfiniteB7v170000IfLi0EEbT_
FUNC d08b4 2c 0 fmt::v11::detail::basic_fp<unsigned long>::basic_fp<double>()
FUNC d08e0 13c 0 fmt::v11::detail::basic_fp<unsigned long>::assign<double, 0>(double)
FUNC d0a1c 14 0 fmt::v11::detail::convert_float<double>(double)
FUNC d0a30 174 0 fmt::v11::detail::write<char, fmt::v11::basic_appender<char>, unsigned long, 0>(fmt::v11::basic_appender<char>, unsigned long)
FUNC d0ba4 1c 0 fmt::v11::detail::countl_zero(unsigned long)
FUNC d0bc0 1a4 0 fmt::v11::detail::format_float<double>(double, int, fmt::v11::detail::float_specs, fmt::v11::detail::buffer<char>&)::{lambda(unsigned int, char*)#1}::operator()(unsigned int, char*) const
FUNC d0d64 20 0 fmt::v11::detail::fractional_part_rounding_thresholds(int)
FUNC d0d84 158 0 fmt::v11::detail::basic_fp<unsigned __int128>::assign<double, 0>(double)
FUNC d0edc 18 0 fmt::v11::detail::is_negative<unsigned long, 0>(unsigned long)
FUNC d0ef4 118 0 fmt::v11::detail::write<char, fmt::v11::basic_appender<char>, double, 0>(fmt::v11::basic_appender<char>, double, fmt::v11::format_specs, fmt::v11::detail::locale_ref)
FUNC d100c 58 0 fmt::v11::loc_value::loc_value<double, 0>()
FUNC d1064 48c 0 fmt::v11::detail::write_float<char, fmt::v11::basic_appender<char>, double>(fmt::v11::basic_appender<char>, double, fmt::v11::format_specs, fmt::v11::detail::locale_ref)
FUNC d14f0 84 0 fmt::v11::detail::make_arg<fmt::v11::context, double>(double&)
FUNC d1574 88 0 fmt::v11::detail::make_arg<true, fmt::v11::context, double, 0>(double&)
FUNC d15fc 34 0 fmt::v11::detail::isfinite<double, 0>(double)
FUNC d1630 24 0 fmt::v11::detail::isnan<double>(double)
FUNC d1654 34 0 _Z8isfiniteB7v170000IdLi0EEbT_
FUNC d1688 10c 0 fmt::v11::detail::write<char, fmt::v11::basic_appender<char> >(fmt::v11::basic_appender<char>, char const*, fmt::v11::format_specs const&, fmt::v11::detail::locale_ref)
FUNC d1794 8c 0 fmt::v11::detail::bit_cast<unsigned long, char const*, 0>(char const* const&)
FUNC d1820 8c 0 fmt::v11::detail::write<char, fmt::v11::basic_appender<char> >(fmt::v11::basic_appender<char>, fmt::v11::basic_string_view<fmt::v11::type_identity<char>::type>, fmt::v11::format_specs const&, fmt::v11::detail::locale_ref)
FUNC d18ac 1d0 0 fmt::v11::detail::write<char, fmt::v11::basic_appender<char> >(fmt::v11::basic_appender<char>, fmt::v11::basic_string_view<char>, fmt::v11::format_specs const&)
FUNC d1a7c ac 0 fmt::v11::detail::code_point_index(fmt::v11::basic_string_view<char>, unsigned long)
FUNC d1b28 160 0 fmt::v11::detail::write_escaped_string<char, fmt::v11::detail::counting_iterator>(fmt::v11::detail::counting_iterator, fmt::v11::basic_string_view<char>)
FUNC d1c88 18 0 fmt::v11::detail::counting_iterator::counting_iterator()
FUNC d1ca0 18 0 fmt::v11::detail::counting_iterator::count() const
FUNC d1cb8 80 0 fmt::v11::detail::compute_width(fmt::v11::basic_string_view<char>)
FUNC d1d38 1d8 0 fmt::v11::detail::write_padded<char, (fmt::v11::align::type)1, fmt::v11::basic_appender<char>, fmt::v11::detail::write<char, fmt::v11::basic_appender<char> >(fmt::v11::basic_appender<char>, fmt::v11::basic_string_view<char>, fmt::v11::format_specs const&)::{lambda(fmt::v11::basic_appender<char>)#1}>(fmt::v11::basic_appender<char>, fmt::v11::format_specs const&, unsigned long, unsigned long, fmt::v11::detail::write<char, fmt::v11::basic_appender<char> >(fmt::v11::basic_appender<char>, fmt::v11::basic_string_view<char>, fmt::v11::format_specs const&)::{lambda(fmt::v11::basic_appender<char>&&)#1})
FUNC d1f10 1c4 0 fmt::v11::detail::for_each_codepoint<fmt::v11::detail::code_point_index(fmt::v11::basic_string_view<char>, unsigned long)::{lambda(unsigned int, fmt::v11::basic_string_view<char>)#1}>(fmt::v11::basic_string_view<char>, fmt::v11::detail::code_point_index(fmt::v11::basic_string_view<char>, unsigned long)::{lambda(unsigned int, fmt::v11::basic_string_view<char>)#1})
