MODULE Linux arm64 95C2EC8D6C982EAF0C80B61698E4BAC20 weebify.coins_in_pause_menu.android64.so
INFO CODE_ID 8DECC295986CAF2E0C80B61698E4BAC2B725A34A
INFO GENERATOR mozilla/dump_syms 2.3.4
FILE 0 /home/runner/work/coins-in-pause-menu-geode/coins-in-pause-menu-geode/geode-sdk-clone/loader/include/Geode/utils/addresser.hpp
FILE 1 /home/runner/work/coins-in-pause-menu-geode/coins-in-pause-menu-geode/geode-sdk-clone/loader/include/Geode/platform/ItaniumCast.hpp
FILE 2 /usr/local/lib/android/sdk/ndk/27.2.12479018/toolchains/llvm/prebuilt/linux-x86_64/sysroot/usr/include/c++/v1/ostream
FILE 3 /usr/local/lib/android/sdk/ndk/27.2.12479018/toolchains/llvm/prebuilt/linux-x86_64/sysroot/usr/include/c++/v1/variant
FILE 4 /usr/local/lib/android/sdk/ndk/27.2.12479018/toolchains/llvm/prebuilt/linux-x86_64/sysroot/usr/include/c++/v1/__tree
FILE 5 /usr/local/lib/android/sdk/ndk/27.2.12479018/toolchains/llvm/prebuilt/linux-x86_64/sysroot/usr/include/c++/v1/stdexcept
FILE 6 /usr/local/lib/android/sdk/ndk/27.2.12479018/toolchains/llvm/prebuilt/linux-x86_64/sysroot/usr/include/c++/v1/locale
FILE 7 /usr/local/lib/android/sdk/ndk/27.2.12479018/toolchains/llvm/prebuilt/linux-x86_64/sysroot/usr/include/c++/v1/new
FILE 8 /home/runner/work/coins-in-pause-menu-geode/coins-in-pause-menu-geode/geode-sdk-clone/loader/include/Geode/modify/Field.hpp
FILE 9 /home/runner/work/coins-in-pause-menu-geode/coins-in-pause-menu-geode/build/bindings/bindings/Geode/modify/EffectGameObject.hpp
FILE 10 /home/runner/work/coins-in-pause-menu-geode/coins-in-pause-menu-geode/build/bindings/bindings/Geode/modify/GameObject.hpp
FILE 11 /home/runner/work/coins-in-pause-menu-geode/coins-in-pause-menu-geode/build/bindings/bindings/Geode/modify/PlayLayer.hpp
FILE 12 /home/runner/work/coins-in-pause-menu-geode/coins-in-pause-menu-geode/build/bindings/bindings/Geode/modify/PauseLayer.hpp
FILE 13 /home/runner/work/coins-in-pause-menu-geode/coins-in-pause-menu-geode/src/main.cpp
FILE 14 /home/runner/work/coins-in-pause-menu-geode/coins-in-pause-menu-geode/geode-sdk-clone/loader/include/Geode/modify/Modify.hpp
FILE 15 /usr/local/lib/android/sdk/ndk/27.2.12479018/toolchains/llvm/prebuilt/linux-x86_64/sysroot/usr/include/c++/v1/vector
FILE 16 /usr/local/lib/android/sdk/ndk/27.2.12479018/toolchains/llvm/prebuilt/linux-x86_64/sysroot/usr/include/c++/v1/string
FILE 17 /home/runner/work/coins-in-pause-menu-geode/coins-in-pause-menu-geode/cpm-cache/result/28b1b03e0682509636d5e5825265ce2421aac4dc/include/Geode/Result.hpp
FILE 18 /usr/local/lib/android/sdk/ndk/27.2.12479018/toolchains/llvm/prebuilt/linux-x86_64/sysroot/usr/include/c++/v1/__memory/shared_ptr.h
FILE 19 /usr/local/lib/android/sdk/ndk/27.2.12479018/toolchains/llvm/prebuilt/linux-x86_64/sysroot/usr/include/c++/v1/__functional/function.h
FILE 20 /usr/local/lib/android/sdk/ndk/27.2.12479018/toolchains/llvm/prebuilt/linux-x86_64/sysroot/usr/include/c++/v1/sstream
FILE 21 /usr/local/lib/android/sdk/ndk/27.2.12479018/toolchains/llvm/prebuilt/linux-x86_64/sysroot/usr/include/c++/v1/__split_buffer
FILE 22 /home/runner/work/coins-in-pause-menu-geode/coins-in-pause-menu-geode/cpm-cache/tuliphook/727bc6fdab39f84eb52f1519195d5488a312e77e/include/tulip/HandlerData.hpp
FILE 23 /home/runner/work/coins-in-pause-menu-geode/coins-in-pause-menu-geode/geode-sdk-clone/loader/include/Geode/loader/Hook.hpp
FILE 24 /home/runner/work/coins-in-pause-menu-geode/coins-in-pause-menu-geode/build/bindings/bindings/Geode/binding/PauseLayer.hpp
FILE 25 /home/runner/work/coins-in-pause-menu-geode/coins-in-pause-menu-geode/geode-sdk-clone/loader/include/Geode/utils/cocos.hpp
FILE 26 /home/runner/work/coins-in-pause-menu-geode/coins-in-pause-menu-geode/cpm-cache/tuliphook/727bc6fdab39f84eb52f1519195d5488a312e77e/include/tulip/AbstractFunction.hpp
FILE 27 /home/runner/work/coins-in-pause-menu-geode/coins-in-pause-menu-geode/geode-sdk-clone/entry.cpp
FILE 28 /home/runner/work/coins-in-pause-menu-geode/coins-in-pause-menu-geode/geode-sdk-clone/loader/include/Geode/c++stl/gnustl-map.hpp
FILE 29 /home/runner/work/coins-in-pause-menu-geode/coins-in-pause-menu-geode/build/bindings/bindings/Geode/GeneratedSource.cpp
FILE 30 /home/runner/work/coins-in-pause-menu-geode/coins-in-pause-menu-geode/cpm-cache/tuliphook/727bc6fdab39f84eb52f1519195d5488a312e77e/include/tulip/WrapperData.hpp
FILE 31 /home/runner/work/coins-in-pause-menu-geode/coins-in-pause-menu-geode/geode-sdk-clone/loader/include/Geode/c++stl/gnustl.hpp
PUBLIC 7e10 0 __on_dlclose
PUBLIC 7e20 0 __emutls_unregister_key
PUBLIC 7e28 0 __on_dlclose_late
PUBLIC 7e30 0 __atexit_handler_wrapper
PUBLIC 7e44 0 atexit
PUBLIC 7e60 0 pthread_atfork
PUBLIC 7e70 0 unwind_phase2
PUBLIC 7fa4 0 _Unwind_Resume
PUBLIC 8028 0 unwind_phase2_forced
PUBLIC m 811c 0 __unw_init_local
PUBLIC m 81c4 0 __unw_get_reg
PUBLIC 8240 0 __unw_step_stage2
PUBLIC m 8254 0 __unw_get_proc_info
PUBLIC m 8294 0 __unw_resume
PUBLIC 82bc 0 libunwind::CFI_Parser<libunwind::LocalAddressSpace>::decodeFDE(libunwind::LocalAddressSpace&, unsigned long, libunwind::CFI_Parser<libunwind::LocalAddressSpace>::FDE_Info*, libunwind::CFI_Parser<libunwind::LocalAddressSpace>::CIE_Info*, bool)
PUBLIC 844c 0 libunwind::CFI_Parser<libunwind::LocalAddressSpace>::parseCIE(libunwind::LocalAddressSpace&, unsigned long, libunwind::CFI_Parser<libunwind::LocalAddressSpace>::CIE_Info*)
PUBLIC 8714 0 libunwind::AbstractUnwindCursor::~AbstractUnwindCursor()
PUBLIC 871c 0 libunwind::UnwindCursor<libunwind::LocalAddressSpace, libunwind::Registers_arm64>::~UnwindCursor()
PUBLIC 8724 0 libunwind::UnwindCursor<libunwind::LocalAddressSpace, libunwind::Registers_arm64>::validReg(int)
PUBLIC 8768 0 libunwind::UnwindCursor<libunwind::LocalAddressSpace, libunwind::Registers_arm64>::getReg(int)
PUBLIC 8850 0 libunwind::UnwindCursor<libunwind::LocalAddressSpace, libunwind::Registers_arm64>::setReg(int, unsigned long)
PUBLIC 8938 0 libunwind::UnwindCursor<libunwind::LocalAddressSpace, libunwind::Registers_arm64>::validFloatReg(int)
PUBLIC 894c 0 libunwind::UnwindCursor<libunwind::LocalAddressSpace, libunwind::Registers_arm64>::getFloatReg(int)
PUBLIC 895c 0 libunwind::UnwindCursor<libunwind::LocalAddressSpace, libunwind::Registers_arm64>::setFloatReg(int, double)
PUBLIC 896c 0 libunwind::UnwindCursor<libunwind::LocalAddressSpace, libunwind::Registers_arm64>::step(bool)
PUBLIC 8a5c 0 libunwind::UnwindCursor<libunwind::LocalAddressSpace, libunwind::Registers_arm64>::getInfo(unw_proc_info_t*)
PUBLIC 8aa0 0 libunwind::UnwindCursor<libunwind::LocalAddressSpace, libunwind::Registers_arm64>::jumpto()
PUBLIC 8aac 0 libunwind::UnwindCursor<libunwind::LocalAddressSpace, libunwind::Registers_arm64>::isSignalFrame()
PUBLIC 8ab8 0 libunwind::UnwindCursor<libunwind::LocalAddressSpace, libunwind::Registers_arm64>::getFunctionName(char*, unsigned long, unsigned long*)
PUBLIC 8ae4 0 libunwind::UnwindCursor<libunwind::LocalAddressSpace, libunwind::Registers_arm64>::setInfoBasedOnIPRegister(bool)
PUBLIC 8d64 0 libunwind::UnwindCursor<libunwind::LocalAddressSpace, libunwind::Registers_arm64>::getRegisterName(int)
PUBLIC 8d70 0 libunwind::UnwindCursor<libunwind::LocalAddressSpace, libunwind::Registers_arm64>::stepThroughSigReturn(libunwind::Registers_arm64&)
PUBLIC 8e90 0 libunwind::DwarfInstructions<libunwind::LocalAddressSpace, libunwind::Registers_arm64>::stepWithDwarf(libunwind::LocalAddressSpace&, unsigned long, unsigned long, libunwind::Registers_arm64&, bool&, bool)
PUBLIC 9318 0 libunwind::CFI_Parser<libunwind::LocalAddressSpace>::parseFDEInstructions(libunwind::LocalAddressSpace&, libunwind::CFI_Parser<libunwind::LocalAddressSpace>::FDE_Info const&, libunwind::CFI_Parser<libunwind::LocalAddressSpace>::CIE_Info const&, unsigned long, int, libunwind::CFI_Parser<libunwind::LocalAddressSpace>::PrologInfo*)
PUBLIC 9f60 0 libunwind::DwarfInstructions<libunwind::LocalAddressSpace, libunwind::Registers_arm64>::getCFA(libunwind::LocalAddressSpace&, libunwind::CFI_Parser<libunwind::LocalAddressSpace>::PrologInfo const&, libunwind::Registers_arm64 const&)
PUBLIC a094 0 libunwind::DwarfInstructions<libunwind::LocalAddressSpace, libunwind::Registers_arm64>::getSavedRegister(libunwind::LocalAddressSpace&, libunwind::Registers_arm64 const&, unsigned long, libunwind::CFI_Parser<libunwind::LocalAddressSpace>::RegisterLocation const&)
PUBLIC a2a4 0 libunwind::LocalAddressSpace::getEncodedP(unsigned long&, unsigned long, unsigned char, unsigned long)
PUBLIC a630 0 libunwind::LocalAddressSpace::getULEB128(unsigned long&, unsigned long)
PUBLIC a7f8 0 libunwind::DwarfInstructions<libunwind::LocalAddressSpace, libunwind::Registers_arm64>::evaluateExpression(unsigned long, libunwind::LocalAddressSpace&, libunwind::Registers_arm64 const&, unsigned long)
PUBLIC b1b4 0 libunwind::UnwindCursor<libunwind::LocalAddressSpace, libunwind::Registers_arm64>::getInfoFromDwarfSection(unsigned long, libunwind::UnwindInfoSections const&, unsigned int)
PUBLIC b488 0 libunwind::findUnwindSectionsByPhdr(dl_phdr_info*, unsigned long, void*)
PUBLIC b5bc 0 libunwind::EHHeaderParser<libunwind::LocalAddressSpace>::decodeEHHdr(libunwind::LocalAddressSpace&, unsigned long, unsigned long, libunwind::EHHeaderParser<libunwind::LocalAddressSpace>::EHHeaderInfo&)
PUBLIC b6dc 0 libunwind::CFI_Parser<libunwind::LocalAddressSpace>::findFDE(libunwind::LocalAddressSpace&, unsigned long, unsigned long, unsigned long, unsigned long, libunwind::CFI_Parser<libunwind::LocalAddressSpace>::FDE_Info*, libunwind::CFI_Parser<libunwind::LocalAddressSpace>::CIE_Info*)
PUBLIC b8a4 0 libunwind::EHHeaderParser<libunwind::LocalAddressSpace>::findFDE(libunwind::LocalAddressSpace&, unsigned long, unsigned long, unsigned int, libunwind::CFI_Parser<libunwind::LocalAddressSpace>::FDE_Info*, libunwind::CFI_Parser<libunwind::LocalAddressSpace>::CIE_Info*)
PUBLIC ba0c 0 libunwind::EHHeaderParser<libunwind::LocalAddressSpace>::getTableEntrySize(unsigned char)
PUBLIC bb08 0 libunwind::Registers_arm64::getRegisterName(int)
PUBLIC bb38 0 __libunwind_Registers_arm64_jumpto
PUBLIC m bbc8 0 __unw_getcontext
PUBLIC bc70 0 __aarch64_ldadd8_relax
PUBLIC bca0 0 init_have_lse_atomics
PUBLIC bd38 0 __init_cpu_features_constructor
PUBLIC c2d4 0 __init_cpu_features
PUBLIC c360 0 __aarch64_ldadd8_acq_rel
FUNC c390 80 0 EffectGameObject_triggerObject(MyCoinObject*, GJBaseGameLayer*, int, gd::vector<int> const*)
c390 c 311 13
c39c 14 312 13
c3b0 14 314 13
c3c4 4 315 13
c3c8 4 316 13
c3cc 10 315 13
c3dc 4 316 13
c3e0 4 315 13
c3e4 8 316 13
c3ec 4 314 13
c3f0 14 317 13
c404 c 320 13
FUNC c410 5c 0 CheckpointGameObject_triggerObject(CheckpointGameObject*, GJBaseGameLayer*, int, gd::vector<int> const*)
c410 c 322 13
c41c 10 323 13
c42c 10 325 13
c43c 24 326 13
c460 c 328 13
FUNC c46c 4c 0 __cxx_global_var_init.1
c478 40 346 14
FUNC c4b8 18 0 geode::modifier::ModifyBase<geode::modifier::ModifyDerive<MyCoinObject, EffectGameObject> >::~ModifyBase()
c4b8 18 141 14
FUNC c4d0 41c 0 __cxx_global_var_init.2
c4f4 3f8 346 14
FUNC c8ec 41c 0 __cxx_global_var_init.3
c910 3f8 346 14
FUNC cd08 5d4 0 __cxx_global_var_init.4
cd2c 5b0 346 14
FUNC d2dc 6f8 0 _GLOBAL__sub_I_main.cpp
FUNC d9d4 18 0 geode::modifier::ModifyBase<geode::modifier::ModifyDerive<hook34<(anonymous namespace)::hook34Parent>, GameObject> >::~ModifyBase()
d9d4 18 141 14
FUNC d9ec 18 0 geode::modifier::ModifyBase<geode::modifier::ModifyDerive<hook66<(anonymous namespace)::hook66Parent>, PlayLayer> >::~ModifyBase()
d9ec 18 141 14
FUNC da04 18 0 geode::modifier::ModifyBase<geode::modifier::ModifyDerive<hook118<(anonymous namespace)::hook118Parent>, PauseLayer> >::~ModifyBase()
da04 18 141 14
FUNC da1c 628 0 geode::modifier::FieldIntermediate<MyCoinObject, EffectGameObject>::self()
da1c 24 73 8
da40 4 81 8
da44 c 77 8
da50 14 81 8
da64 8 85 8
da6c 4 81 8
da70 c 85 8
da7c 1c 89 8
da98 4 90 8
da9c 28 92 8
dac4 80 91 8
db44 2dc 89 8
de20 a0 91 8
dec0 8 95 8
dec8 34 98 8
defc 5c 89 8
df58 30 85 8
df88 30 91 8
dfb8 10 85 8
dfc8 20 91 8
dfe8 5c 89 8
FUNC e044 4 0 geode::modifier::FieldIntermediate<MyCoinObject, EffectGameObject>::fieldDestructor(void*)
e044 4 71 8
FUNC e048 14 0 std::__ndk1::vector<void*, std::__ndk1::allocator<void*> >::__throw_length_error[abi:ne180000]() const
e048 14 940 15
PUBLIC e05c 0 __clang_call_terminate
FUNC e06c 50 0 std::__ndk1::__throw_length_error[abi:ne180000](char const*)
e06c 10 239 5
e07c 40 241 5
FUNC e0bc 30 0 std::length_error::length_error[abi:ne180000](char const*)
e0bc 30 152 5
FUNC e0ec 34 0 std::__throw_bad_array_new_length([abi:ne180000], void)
e0ec c 172 7
e0f8 28 174 7
FUNC e120 14 0 std::__ndk1::vector<std::__ndk1::function<void (void*)>, std::__ndk1::allocator<std::__ndk1::function<void (void*)> > >::__throw_length_error[abi:ne180000]() const
e120 14 940 15
FUNC e134 14 0 std::__ndk1::vector<void*, std::__ndk1::allocator<void*> >::__throw_out_of_range[abi:ne180000]() const
e134 14 942 15
FUNC e148 50 0 std::__ndk1::__throw_out_of_range[abi:ne180000](char const*)
e148 10 247 5
e158 40 249 5
FUNC e198 30 0 std::out_of_range::out_of_range[abi:ne180000](char const*)
e198 30 163 5
FUNC e1c8 14 0 std::__ndk1::vector<std::__ndk1::function<void (void*)>, std::__ndk1::allocator<std::__ndk1::function<void (void*)> > >::__throw_out_of_range[abi:ne180000]() const
e1c8 14 942 15
FUNC e1dc 4 0 std::__ndk1::__function::__base<void (void*)>::~__base()
e1dc 4 235 19
FUNC e1e0 4 0 std::__ndk1::__function::__func<void (*)(void*), std::__ndk1::allocator<void (*)(void*)>, void (void*)>::~__func()
e1e0 4 250 19
FUNC e1e4 38 0 std::__ndk1::__function::__func<void (*)(void*), std::__ndk1::allocator<void (*)(void*)>, void (void*)>::__clone() const
e1e4 10 277 19
e1f4 8 282 19
e1fc 14 283 19
e210 c 285 19
FUNC e21c 18 0 std::__ndk1::__function::__func<void (*)(void*), std::__ndk1::allocator<void (*)(void*)>, void (void*)>::__clone(std::__ndk1::__function::__base<void (void*)>*) const
e21c 14 289 19
e230 4 290 19
FUNC e234 4 0 std::__ndk1::__function::__func<void (*)(void*), std::__ndk1::allocator<void (*)(void*)>, void (void*)>::destroy()
e234 4 295 19
FUNC e238 4 0 std::__ndk1::__function::__func<void (*)(void*), std::__ndk1::allocator<void (*)(void*)>, void (void*)>::destroy_deallocate()
e238 4 303 19
FUNC e23c 10 0 std::__ndk1::__function::__func<void (*)(void*), std::__ndk1::allocator<void (*)(void*)>, void (void*)>::operator()(void*&&)
e23c 10 308 19
FUNC e24c 1c 0 std::__ndk1::__function::__func<void (*)(void*), std::__ndk1::allocator<void (*)(void*)>, void (void*)>::target(std::type_info const&) const
e24c 18 315 19
e264 4 318 19
FUNC e268 c 0 std::__ndk1::__function::__func<void (*)(void*), std::__ndk1::allocator<void (*)(void*)>, void (void*)>::target_type() const
e268 c 322 19
FUNC e274 4 0 geode::modifier::ModifyDerive<MyCoinObject, EffectGameObject>::apply()
e274 4 326 9
FUNC e278 50 0 std::__ndk1::shared_ptr<geode::Hook>::~shared_ptr[abi:ne180000]()
e278 c 643 18
e284 8 644 18
e28c 10 645 18
e29c c 646 18
e2a8 20 645 18
FUNC e2c8 74 0 geode::impl::ResultData<geode::Hook*, std::__ndk1::basic_string<char, std::__ndk1::char_traits<char>, std::__ndk1::allocator<char> > >::~ResultData()
e2c8 74 334 17
FUNC e33c 7c 0 std::__ndk1::vector<std::__ndk1::basic_string<char, std::__ndk1::char_traits<char>, std::__ndk1::allocator<char> >, std::__ndk1::allocator<std::__ndk1::basic_string<char, std::__ndk1::char_traits<char>, std::__ndk1::allocator<char> > > >::~vector[abi:ne180000]()
e33c 7c 501 15
FUNC e3b8 4 0 geode::modifier::ModifyBase<geode::modifier::ModifyDerive<MyCoinObject, EffectGameObject> >::apply()
e3b8 4 316 14
FUNC e3bc 154 0 _ZN5geode15UnwrapExceptionC2IRPNS_4HookEQsr4implE18IsStringStreamableIT_EEENS_4impl5OkTagEOS5_
e3bc 20 316 17
e3dc 48 315 17
e424 5c 314 17
e480 4 315 17
e484 18 314 17
e49c 34 316 17
e4d0 40 314 17
FUNC e510 34 0 std::__ndk1::__throw_bad_variant_access[abi:ne180000]()
e510 8 285 3
e518 2c 287 3
FUNC e544 124 0 std::__ndk1::basic_stringstream<char, std::__ndk1::char_traits<char>, std::__ndk1::allocator<char> >::basic_stringstream[abi:ne180000]()
e544 124 1010 20
FUNC e668 80 0 std::__ndk1::basic_stringstream<char, std::__ndk1::char_traits<char>, std::__ndk1::allocator<char> >::~basic_stringstream()
e668 80 1102 20
FUNC e6e8 24 0 geode::UnwrapException::~UnwrapException()
e6e8 24 325 17
FUNC e70c 198 0 std::__ndk1::__put_character_sequence[abi:ne180000]<char, std::__ndk1::char_traits<char> >(std::__ndk1::basic_ostream<char, std::__ndk1::char_traits<char> >, std::__ndk1::basic_ostream const*, unsigned long)
e70c 34 665 2
e740 c 669 2
e74c 8 670 2
e754 c 673 2
e760 4 678 2
e764 4 673 2
e768 4 675 2
e76c 54 678 2
e7c0 10 675 2
e7d0 10 672 2
e7e0 1c 680 2
e7fc 8 683 2
e804 38 687 2
e83c 10 678 2
e84c 18 683 2
e864 10 684 2
e874 30 685 2
FUNC e8a4 1b4 0 std::__ndk1::__pad_and_output[abi:ne180000]<char, std::__ndk1::char_traits<char> >(std::__ndk1::char_traits<char>, std::__ndk1::ostreambuf_iterator const*, std::__ndk1::ostreambuf_iterator const, std::__ndk1::ostreambuf_iterator const, std::__ndk1::ios_base&, std::__ndk1::ostreambuf_iterator)
e8a4 30 1246 6
e8d4 4 1247 6
e8d8 4 1250 6
e8dc 4 1249 6
e8e0 10 1255 6
e8f0 c 1251 6
e8fc 8 1256 6
e904 1c 1257 6
e920 8 1262 6
e928 4c 1263 6
e974 2c 1264 6
e9a0 1c 1268 6
e9bc 4 1269 6
e9c0 8 1270 6
e9c8 20 1271 6
e9e8 c 1276 6
e9f4 34 1278 6
ea28 30 1268 6
FUNC ea58 14 0 std::__ndk1::basic_string<char, std::__ndk1::char_traits<char>, std::__ndk1::allocator<char> >::__throw_length_error[abi:ne180000]() const
ea58 8 2118 16
ea60 c 2119 16
FUNC ea6c 15c 0 std::__ndk1::basic_stringbuf<char, std::__ndk1::char_traits<char>, std::__ndk1::allocator<char> >::str[abi:ne180000]() &&
ea6c 18 396 20
ea84 40 397 20
eac4 8 398 20
eacc 8 402 20
ead4 4 398 20
ead8 4 402 20
eadc 4 398 20
eae0 c 402 20
eaec 4 398 20
eaf0 8 402 20
eaf8 4 398 20
eafc 4 402 20
eb00 4 398 20
eb04 3c 402 20
eb40 4 401 20
eb44 30 402 20
eb74 1c 403 20
eb90 4 404 20
eb94 34 406 20
FUNC ebc8 148 0 std::__ndk1::basic_stringbuf<char, std::__ndk1::char_traits<char>, std::__ndk1::allocator<char> >::__init_buf_ptrs[abi:ne180000]()
ebc8 10 626 20
ebd8 8 628 20
ebe0 4 630 20
ebe4 4 628 20
ebe8 4 627 20
ebec 8 629 20
ebf4 4 628 20
ebf8 4 629 20
ebfc 4 630 20
ec00 4 631 20
ec04 4 632 20
ec08 4 631 20
ec0c 4 632 20
ec10 4 634 20
ec14 20 636 20
ec34 4 635 20
ec38 4 636 20
ec3c 4 635 20
ec40 3c 636 20
ec7c 14 637 20
ec90 4 638 20
ec94 4 637 20
ec98 4 638 20
ec9c 8 637 20
eca4 4 638 20
eca8 48 639 20
ecf0 4 640 20
ecf4 4 643 20
ecf8 8 644 20
ed00 10 647 20
FUNC ed10 218 0 std::__ndk1::vector<std::__ndk1::basic_string<char, std::__ndk1::char_traits<char>, std::__ndk1::allocator<char> >, std::__ndk1::allocator<std::__ndk1::basic_string<char, std::__ndk1::char_traits<char>, std::__ndk1::allocator<char> > > >::__push_back_slow_path<std::__ndk1::basic_string<char, std::__ndk1::char_traits<char>, std::__ndk1::allocator<char> > const&>(std::__ndk1::basic_string<char, std::__ndk1::char_traits<char>, std::__ndk1::allocator<char> > const&)
ed10 30 1449 15
ed40 94 1451 15
edd4 4 1453 15
edd8 4 1451 15
eddc 24 1453 15
ee00 4 1455 15
ee04 4 1454 15
ee08 4 1455 15
ee0c 4 1454 15
ee10 44 1455 15
ee54 4 1457 15
ee58 10 1455 15
ee68 70 1457 15
eed8 2c 1451 15
ef04 24 1457 15
FUNC ef28 70 0 std::__ndk1::basic_string<char, std::__ndk1::char_traits<char>, std::__ndk1::allocator<char> >::__init_copy_ctor_external(char const*, unsigned long)
ef28 14 2232 16
ef3c 8 2237 16
ef44 10 2239 16
ef54 8 2241 16
ef5c 10 2243 16
ef6c 8 2247 16
ef74 4 2246 16
ef78 4 2247 16
ef7c 14 2250 16
ef90 8 2242 16
FUNC ef98 68 0 std::__ndk1::__split_buffer<std::__ndk1::basic_string<char, std::__ndk1::char_traits<char>, std::__ndk1::allocator<char> >, std::__ndk1::allocator<std::__ndk1::basic_string<char, std::__ndk1::char_traits<char>, std::__ndk1::allocator<char> > >&>::~__split_buffer()
ef98 c 352 21
efa4 10 353 21
efb4 8 354 21
efbc c 355 21
efc8 2c 353 21
eff4 c 356 21
FUNC f000 14 0 std::__ndk1::vector<std::__ndk1::basic_string<char, std::__ndk1::char_traits<char>, std::__ndk1::allocator<char> >, std::__ndk1::allocator<std::__ndk1::basic_string<char, std::__ndk1::char_traits<char>, std::__ndk1::allocator<char> > > >::__throw_length_error[abi:ne180000]() const
f000 14 940 15
FUNC f014 4 0 std::__ndk1::__variant_detail::__visitation::__base::__dispatcher<(unsigned long)0>::__dispatch[abi:ne180000]<std::__ndk1::__variant_detail::__dtor<std::__ndk1::__variant_detail::__traits<geode::Hook*, std::__ndk1::basic_string<char, std::__ndk1::char_traits<char>, std::__ndk1::allocator<char> > >, (std::__ndk1::__variant_detail::_Trait)1>::__destroy[abi:ne180000]()::{lambda(auto:1&)#1}, std::__ndk1::__variant_detail::__base<(std::__ndk1::__variant_detail::__traits<geode::Hook*, std::__ndk1::basic_string<char, std::__ndk1::char_traits<char>, std::__ndk1::allocator<char> > >)1, geode::Hook, std::__ndk1::allocator<char> >&>(std::__ndk1::__variant_detail::__dtor<std::__ndk1::__variant_detail::__traits<geode::Hook*, std::__ndk1::basic_string<char, std::__ndk1::char_traits<char>, std::__ndk1::allocator<char> > >, (std::__ndk1::__variant_detail::_Trait)1>, std::__ndk1::__variant_detail::__base<(std::__ndk1::__variant_detail::__traits<geode::Hook*, std::__ndk1::basic_string<char, std::__ndk1::char_traits<char>, std::__ndk1::allocator<char> > >)1, geode::Hook, std::__ndk1::allocator<char> >&)
f014 4 526 3
FUNC f018 14 0 std::__ndk1::__variant_detail::__visitation::__base::__dispatcher<(unsigned long)1>::__dispatch[abi:ne180000]<std::__ndk1::__variant_detail::__dtor<std::__ndk1::__variant_detail::__traits<geode::Hook*, std::__ndk1::basic_string<char, std::__ndk1::char_traits<char>, std::__ndk1::allocator<char> > >, (std::__ndk1::__variant_detail::_Trait)1>::__destroy[abi:ne180000]()::{lambda(auto:1&)#1}, std::__ndk1::__variant_detail::__base<(std::__ndk1::__variant_detail::__traits<geode::Hook*, std::__ndk1::basic_string<char, std::__ndk1::char_traits<char>, std::__ndk1::allocator<char> > >)1, geode::Hook, std::__ndk1::allocator<char> >&>(std::__ndk1::__variant_detail::__dtor<std::__ndk1::__variant_detail::__traits<geode::Hook*, std::__ndk1::basic_string<char, std::__ndk1::char_traits<char>, std::__ndk1::allocator<char> > >, (std::__ndk1::__variant_detail::_Trait)1>, std::__ndk1::__variant_detail::__base<(std::__ndk1::__variant_detail::__traits<geode::Hook*, std::__ndk1::basic_string<char, std::__ndk1::char_traits<char>, std::__ndk1::allocator<char> > >)1, geode::Hook, std::__ndk1::allocator<char> >&)
f018 14 526 3
FUNC f02c fc 0 std::__ndk1::__tree<std::__ndk1::__value_type<std::__ndk1::basic_string<char, std::__ndk1::char_traits<char>, std::__ndk1::allocator<char> >, std::__ndk1::shared_ptr<geode::Hook> >, std::__ndk1::__map_value_compare<std::__ndk1::basic_string<char, std::__ndk1::char_traits<char>, std::__ndk1::allocator<char> >, std::__ndk1::__value_type<std::__ndk1::basic_string<char, std::__ndk1::char_traits<char>, std::__ndk1::allocator<char> >, std::__ndk1::shared_ptr<geode::Hook> >, std::__ndk1::less<std::__ndk1::basic_string<char, std::__ndk1::char_traits<char>, std::__ndk1::allocator<char> > >, true>, std::__ndk1::allocator<std::__ndk1::__value_type<std::__ndk1::basic_string<char, std::__ndk1::char_traits<char>, std::__ndk1::allocator<char> >, std::__ndk1::shared_ptr<geode::Hook> > > >::find<std::__ndk1::basic_string<char, std::__ndk1::char_traits<char>, std::__ndk1::allocator<char> > >(std::__ndk1::basic_string<char, std::__ndk1::char_traits<char>, std::__ndk1::allocator<char> > const&)
f02c 18 2087 4
f044 7c 2088 4
f0c0 50 2089 4
f110 18 2092 4
FUNC f128 454 0 std::__ndk1::__tree<std::__ndk1::__value_type<std::__ndk1::basic_string<char, std::__ndk1::char_traits<char>, std::__ndk1::allocator<char> >, std::__ndk1::shared_ptr<geode::Hook> >, std::__ndk1::__map_value_compare<std::__ndk1::basic_string<char, std::__ndk1::char_traits<char>, std::__ndk1::allocator<char> >, std::__ndk1::__value_type<std::__ndk1::basic_string<char, std::__ndk1::char_traits<char>, std::__ndk1::allocator<char> >, std::__ndk1::shared_ptr<geode::Hook> >, std::__ndk1::less<std::__ndk1::basic_string<char, std::__ndk1::char_traits<char>, std::__ndk1::allocator<char> > >, true>, std::__ndk1::allocator<std::__ndk1::__value_type<std::__ndk1::basic_string<char, std::__ndk1::char_traits<char>, std::__ndk1::allocator<char> >, std::__ndk1::shared_ptr<geode::Hook> > > >::erase(std::__ndk1::__tree_const_iterator<std::__ndk1::__value_type<std::__ndk1::basic_string<char, std::__ndk1::char_traits<char>, std::__ndk1::allocator<char> >, std::__ndk1::shared_ptr<geode::Hook> >, std::__ndk1::__tree_node<std::__ndk1::__value_type<std::__ndk1::basic_string<char, std::__ndk1::char_traits<char>, std::__ndk1::allocator<char> >, std::__ndk1::shared_ptr<geode::Hook> >, void*>*, long>)
f128 c 2046 4
f134 284 2048 4
f3b8 14 2050 4
f3cc 4 2048 4
f3d0 c 2050 4
f3dc a4 2048 4
f480 40 2050 4
f4c0 10 2051 4
f4d0 a0 2048 4
f570 c 2050 4
FUNC f57c 84 0 std::__ndk1::__tree<std::__ndk1::__value_type<std::__ndk1::basic_string<char, std::__ndk1::char_traits<char>, std::__ndk1::allocator<char> >, std::__ndk1::shared_ptr<geode::Hook> >, std::__ndk1::__map_value_compare<std::__ndk1::basic_string<char, std::__ndk1::char_traits<char>, std::__ndk1::allocator<char> >, std::__ndk1::__value_type<std::__ndk1::basic_string<char, std::__ndk1::char_traits<char>, std::__ndk1::allocator<char> >, std::__ndk1::shared_ptr<geode::Hook> >, std::__ndk1::less<std::__ndk1::basic_string<char, std::__ndk1::char_traits<char>, std::__ndk1::allocator<char> > >, true>, std::__ndk1::allocator<std::__ndk1::__value_type<std::__ndk1::basic_string<char, std::__ndk1::char_traits<char>, std::__ndk1::allocator<char> >, std::__ndk1::shared_ptr<geode::Hook> > > >::destroy(std::__ndk1::__tree_node<std::__ndk1::__value_type<std::__ndk1::basic_string<char, std::__ndk1::char_traits<char>, std::__ndk1::allocator<char> >, std::__ndk1::shared_ptr<geode::Hook> >, void*>*)
f57c 14 1544 4
f590 8 1545 4
f598 8 1546 4
f5a0 28 1548 4
f5c8 10 1549 4
f5d8 4 1551 4
f5dc 24 1548 4
FUNC f600 390 0 geode::modifier::ModifyDerive<hook34<(anonymous namespace)::hook34Parent>, GameObject>::apply()
f600 2c 2486 10
f62c 248 2490 10
f874 28 2743 10
f89c f4 2490 10
FUNC f990 4 0 geode::modifier::ModifyBase<geode::modifier::ModifyDerive<hook34<(anonymous namespace)::hook34Parent>, GameObject> >::apply()
f990 4 316 14
FUNC f994 1dc 0 geode::modifier::AsStaticFunction_createWithKey<hook34<(anonymous namespace)::hook34Parent>, GameObject* (*)(int)>::Impl<GameObject* (*)(int)>::function(int)
f994 1dc 15 10
FUNC fb70 50 0 std::__ndk1::shared_ptr<tulip::hook::CallingConvention>::~shared_ptr[abi:ne180000]()
fb70 c 643 18
fb7c 8 644 18
fb84 10 645 18
fb94 c 646 18
fba0 20 645 18
FUNC fbc0 64 0 tulip::hook::HandlerMetadata::~HandlerMetadata()
fbc0 64 12 22
FUNC fc24 14 0 std::__ndk1::vector<tulip::hook::AbstractType, std::__ndk1::allocator<tulip::hook::AbstractType> >::__throw_length_error[abi:ne180000]() const
fc24 14 940 15
FUNC fc38 d8 0 geode::cast::traverseTypeinfoFor(void*, geode::cast::ClassTypeinfoType const*, char const*)
fc38 14 57 1
fc4c c 59 1
fc58 1c 60 1
fc74 4 64 1
fc78 4 65 1
fc7c 8 64 1
fc84 c 65 1
fc90 4 67 1
fc94 4 60 1
fc98 4 59 1
fc9c c 60 1
fca8 18 69 1
fcc0 18 80 1
fcd8 c 71 1
fce4 4 73 1
fce8 4 74 1
fcec 4 73 1
fcf0 8 74 1
fcf8 18 71 1
FUNC fd10 104 0 std::__ndk1::__tree<std::__ndk1::__value_type<std::__ndk1::basic_string<char, std::__ndk1::char_traits<char>, std::__ndk1::allocator<char> >, std::__ndk1::shared_ptr<geode::Hook> >, std::__ndk1::__map_value_compare<std::__ndk1::basic_string<char, std::__ndk1::char_traits<char>, std::__ndk1::allocator<char> >, std::__ndk1::__value_type<std::__ndk1::basic_string<char, std::__ndk1::char_traits<char>, std::__ndk1::allocator<char> >, std::__ndk1::shared_ptr<geode::Hook> >, std::__ndk1::less<std::__ndk1::basic_string<char, std::__ndk1::char_traits<char>, std::__ndk1::allocator<char> > >, true>, std::__ndk1::allocator<std::__ndk1::__value_type<std::__ndk1::basic_string<char, std::__ndk1::char_traits<char>, std::__ndk1::allocator<char> >, std::__ndk1::shared_ptr<geode::Hook> > > >::__find_equal<std::__ndk1::basic_string<char, std::__ndk1::char_traits<char>, std::__ndk1::allocator<char> > >(std::__ndk1::__tree_end_node<std::__ndk1::__tree_node_base<void*>*>*&, std::__ndk1::basic_string<char, std::__ndk1::char_traits<char>, std::__ndk1::allocator<char> > const&)
fd10 20 1682 4
fd30 4 1683 4
fd34 20 1685 4
fd54 10 1688 4
fd64 50 1687 4
fdb4 2c 1695 4
fde0 14 1696 4
fdf4 20 1711 4
FUNC fe14 19c 0 std::__ndk1::__tree_balance_after_insert[abi:ne180000]<std::__ndk1::__tree_node_base<void*>*>(std::__ndk1::__tree_node_base<void*>*, std::__ndk1::__tree_node_base<void*>*)
fe14 c 285 4
fe20 34 286 4
fe54 10 288 4
fe64 10 310 4
fe74 4 289 4
fe78 c 290 4
fe84 c 297 4
fe90 38 299 4
fec8 4 303 4
fecc 4 299 4
fed0 8 305 4
fed8 4 330 4
fedc 14 317 4
fef0 30 319 4
ff20 4 323 4
ff24 4 319 4
ff28 8 325 4
ff30 4 322 4
ff34 4 325 4
ff38 4 324 4
ff3c 2c 325 4
ff68 8 330 4
ff70 8 305 4
ff78 4 302 4
ff7c 4 304 4
ff80 2c 305 4
ffac 4 330 4
FUNC ffb0 d20 0 geode::modifier::ModifyDerive<hook66<(anonymous namespace)::hook66Parent>, PlayLayer>::apply()
ffb0 30 1276 11
ffe0 1c0 1297 11
101a0 294 1307 11
10434 1b8 1331 11
105ec 1e0 1334 11
107cc 1e8 1364 11
109b4 2c 1408 11
109e0 24 1297 11
10a04 24 1307 11
10a28 24 1331 11
10a4c 24 1307 11
10a70 24 1334 11
10a94 24 1364 11
10ab8 30 1297 11
10ae8 30 1307 11
10b18 30 1331 11
10b48 30 1334 11
10b78 48 1364 11
10bc0 14 1334 11
10bd4 14 1331 11
10be8 14 1307 11
10bfc 28 1297 11
10c24 ac 1307 11
FUNC 10cd0 4 0 geode::modifier::ModifyBase<geode::modifier::ModifyDerive<hook66<(anonymous namespace)::hook66Parent>, PlayLayer> >::apply()
10cd0 4 316 14
FUNC 10cd4 134 0 geode::Hook::create<void (*)(hook66<(anonymous namespace)::hook66Parent>*)>(void*, void (*)(hook66<(anonymous namespace)::hook66Parent>*), std::__ndk1::basic_string<char, std::__ndk1::char_traits<char>, std::__ndk1::allocator<char> > const&, tulip::hook::TulipConvention, tulip::hook::HookMetadata const&)
10cd4 28 58 23
10cfc 20 60 23
10d1c 30 61 23
10d4c 1c 63 23
10d68 7c 70 23
10de4 24 59 23
FUNC 10e08 34 0 geode::modifier::AsStaticFunction_fullReset<hook66<(anonymous namespace)::hook66Parent>, void (hook66<(anonymous namespace)::hook66Parent>::*)()>::Impl<void (hook66<(anonymous namespace)::hook66Parent>::*)()>::function(hook66<(anonymous namespace)::hook66Parent>*)
10e08 34 85 11
FUNC 10e3c 2c 0 geode::modifier::AsStaticFunction_init<hook66<(anonymous namespace)::hook66Parent>, bool (hook66<(anonymous namespace)::hook66Parent>::*)(GJGameLevel*, bool, bool)>::Impl<bool (hook66<(anonymous namespace)::hook66Parent>::*)(GJGameLevel*, bool, bool)>::function(hook66<(anonymous namespace)::hook66Parent>*, GJGameLevel*, bool, bool)
10e3c 2c 135 11
FUNC 10e68 58 0 geode::modifier::AsStaticFunction_resetLevel<hook66<(anonymous namespace)::hook66Parent>, void (hook66<(anonymous namespace)::hook66Parent>::*)()>::Impl<void (hook66<(anonymous namespace)::hook66Parent>::*)()>::function(hook66<(anonymous namespace)::hook66Parent>*)
10e68 58 255 11
FUNC 10ec0 184 0 geode::Hook::create<void (*)(hook66<(anonymous namespace)::hook66Parent>*, bool)>(void*, void (*)(hook66<(anonymous namespace)::hook66Parent>*, bool), std::__ndk1::basic_string<char, std::__ndk1::char_traits<char>, std::__ndk1::allocator<char> > const&, tulip::hook::TulipConvention, tulip::hook::HookMetadata const&)
10ec0 2c 58 23
10eec 20 60 23
10f0c 64 61 23
10f70 1c 63 23
10f8c 80 70 23
1100c 14 61 23
11020 24 59 23
FUNC 11044 48 0 geode::modifier::AsStaticFunction_resumeAndRestart<hook66<(anonymous namespace)::hook66Parent>, void (hook66<(anonymous namespace)::hook66Parent>::*)(bool)>::Impl<void (hook66<(anonymous namespace)::hook66Parent>::*)(bool)>::function(hook66<(anonymous namespace)::hook66Parent>*, bool)
11044 48 270 11
FUNC 1108c 48 0 geode::modifier::AsStaticFunction_togglePracticeMode<hook66<(anonymous namespace)::hook66Parent>, void (hook66<(anonymous namespace)::hook66Parent>::*)(bool)>::Impl<void (hook66<(anonymous namespace)::hook66Parent>::*)(bool)>::function(hook66<(anonymous namespace)::hook66Parent>*, bool)
1108c 48 420 11
FUNC 110d4 380 0 geode::modifier::ModifyDerive<hook118<(anonymous namespace)::hook118Parent>, PauseLayer>::apply()
110d4 2c 281 12
11100 240 308 12
11340 28 311 12
11368 ec 308 12
FUNC 11454 4 0 geode::modifier::ModifyBase<geode::modifier::ModifyDerive<hook118<(anonymous namespace)::hook118Parent>, PauseLayer> >::apply()
11454 4 316 14
FUNC 11458 168 0 _ZN5geode15UnwrapExceptionC2IRNSt6__ndk112basic_stringIcNS2_11char_traitsIcEENS2_9allocatorIcEEEEQsr4implE18IsStringStreamableIT_EEENS_4impl6ErrTagEOSA_
11458 20 304 17
11478 5c 303 17
114d4 5c 302 17
11530 4 303 17
11534 18 302 17
1154c 34 304 17
11580 40 302 17
FUNC 115c0 4 0 std::__ndk1::__variant_detail::__visitation::__base::__dispatcher<(unsigned long)0>::__dispatch[abi:ne180000]<std::__ndk1::__variant_detail::__dtor<std::__ndk1::__variant_detail::__traits<std::__ndk1::monostate, std::__ndk1::basic_string<char, std::__ndk1::char_traits<char>, std::__ndk1::allocator<char> > >, (std::__ndk1::__variant_detail::_Trait)1>::__destroy[abi:ne180000]()::{lambda(auto:1&)#1}, std::__ndk1::__variant_detail::__base<(std::__ndk1::__variant_detail::__traits<std::__ndk1::monostate, std::__ndk1::basic_string<char, std::__ndk1::char_traits<char>, std::__ndk1::allocator<char> > >)1, std::__ndk1::__variant_detail::__traits, std::__ndk1::allocator<char> >&>(std::__ndk1::__variant_detail::__dtor<std::__ndk1::__variant_detail::__traits<std::__ndk1::monostate, std::__ndk1::basic_string<char, std::__ndk1::char_traits<char>, std::__ndk1::allocator<char> > >, (std::__ndk1::__variant_detail::_Trait)1>, std::__ndk1::__variant_detail::__base<(std::__ndk1::__variant_detail::__traits<std::__ndk1::monostate, std::__ndk1::basic_string<char, std::__ndk1::char_traits<char>, std::__ndk1::allocator<char> > >)1, std::__ndk1::__variant_detail::__traits, std::__ndk1::allocator<char> >&)
115c0 4 526 3
FUNC 115c4 14 0 std::__ndk1::__variant_detail::__visitation::__base::__dispatcher<(unsigned long)1>::__dispatch[abi:ne180000]<std::__ndk1::__variant_detail::__dtor<std::__ndk1::__variant_detail::__traits<std::__ndk1::monostate, std::__ndk1::basic_string<char, std::__ndk1::char_traits<char>, std::__ndk1::allocator<char> > >, (std::__ndk1::__variant_detail::_Trait)1>::__destroy[abi:ne180000]()::{lambda(auto:1&)#1}, std::__ndk1::__variant_detail::__base<(std::__ndk1::__variant_detail::__traits<std::__ndk1::monostate, std::__ndk1::basic_string<char, std::__ndk1::char_traits<char>, std::__ndk1::allocator<char> > >)1, std::__ndk1::__variant_detail::__traits, std::__ndk1::allocator<char> >&>(std::__ndk1::__variant_detail::__dtor<std::__ndk1::__variant_detail::__traits<std::__ndk1::monostate, std::__ndk1::basic_string<char, std::__ndk1::char_traits<char>, std::__ndk1::allocator<char> > >, (std::__ndk1::__variant_detail::_Trait)1>, std::__ndk1::__variant_detail::__base<(std::__ndk1::__variant_detail::__traits<std::__ndk1::monostate, std::__ndk1::basic_string<char, std::__ndk1::char_traits<char>, std::__ndk1::allocator<char> > >)1, std::__ndk1::__variant_detail::__traits, std::__ndk1::allocator<char> >&)
115c4 14 526 3
FUNC 115d8 a8 0 geode::addresser::getVirtual<void (PauseLayer::*)()>(void (PauseLayer::*)())
115d8 c 169 0
115e4 9c 170 0
FUNC 11680 1404 0 geode::modifier::AsStaticFunction_customSetup<hook118<(anonymous namespace)::hook118Parent>, void (hook118<(anonymous namespace)::hook118Parent>::*)()>::Impl<void (hook118<(anonymous namespace)::hook118Parent>::*)()>::function(hook118<(anonymous namespace)::hook118Parent>*)
11680 1404 130 12
FUNC 12a84 8c 0 PauseLayer::PauseLayer(geode::ZeroConstructorType)
12a84 8c 17 24
FUNC 12b10 20 0 geode::cocos::CCArrayExt<cocos2d::CCSprite*>::~CCArrayExt()
12b10 20 1009 25
FUNC 12b30 14 0 std::__ndk1::basic_string<char, std::__ndk1::char_traits<char>, std::__ndk1::allocator<char> >::__throw_out_of_range[abi:ne180000]() const
12b30 8 2122 16
12b38 c 2123 16
FUNC 12b44 2a4 0 tulip::hook::AbstractFunction::from<void, CheckpointGameObject*, GJBaseGameLayer*, int, gd::vector<int> const*>(void (*)(CheckpointGameObject*, GJBaseGameLayer*, int, gd::vector<int> const*))
12b44 24 39 26
12b68 4 41 26
12b6c c 40 26
12b78 4 41 26
12b7c 208 42 26
12d84 1c 45 26
12da0 28 42 26
12dc8 20 45 26
FUNC 12de8 30 0 geodeImplicitEntry
12de8 c 16 27
12df4 18 18 27
12e0c c 19 27
FUNC 12e18 134 0 wrapFunction(unsigned long, tulip::hook::WrapperMetadata const&)
12e18 1c 27 29
12e34 8 28 29
12e3c 8 29 29
12e44 4 32 29
12e48 20 33 29
12e68 4 32 29
12e6c c 29 29
12e78 30 30 29
12ea8 7c 32 29
12f24 28 33 29
FUNC 12f4c 78 0 geode::impl::ResultData<void*, std::__ndk1::basic_string<char, std::__ndk1::char_traits<char>, std::__ndk1::allocator<char> > >::unwrapErr() &
12f4c c 472 17
12f58 c 473 17
12f64 10 474 17
12f74 50 477 17
FUNC 12fc4 74 0 geode::impl::ResultData<void*, std::__ndk1::basic_string<char, std::__ndk1::char_traits<char>, std::__ndk1::allocator<char> > >::~ResultData()
12fc4 74 334 17
FUNC 13038 64 0 tulip::hook::WrapperMetadata::~WrapperMetadata()
13038 64 10 30
FUNC 1309c 150 0 cocos2d::CCDictionary::objectForKey(gd::string const&)
1309c 28 579 29
130c4 14 581 29
130d8 34 585 29
1310c 38 581 29
13144 10 582 29
13154 4 581 29
13158 8 583 29
13160 8c 581 29
FUNC 131ec a8 0 tulip::hook::AbstractFunction::from<cocos2d::CCObject*, cocos2d::CCDictionary*, gd::string const&>(cocos2d::CCObject* (*)(cocos2d::CCDictionary*, gd::string const&))
131ec 1c 39 26
13208 4 42 26
1320c 4 41 26
13210 c 40 26
1321c 4 41 26
13220 48 42 26
13268 2c 45 26
FUNC 13294 14c 0 gd::map<int, gd::string>::operator[](int const&)
13294 28 194 31
132bc 38 195 31
132f4 14 196 31
13308 3c 197 31
13344 38 198 31
1337c 30 200 31
133ac 34 197 31
FUNC 133e0 154 0 _ZN5geode15UnwrapExceptionC2IRPvQsr4implE18IsStringStreamableIT_EEENS_4impl5OkTagEOS4_
133e0 20 316 17
13400 48 315 17
13448 5c 314 17
134a4 4 315 17
134a8 18 314 17
134c0 34 316 17
134f4 40 314 17
FUNC 13534 4 0 std::__ndk1::__variant_detail::__visitation::__base::__dispatcher<(unsigned long)0>::__dispatch[abi:ne180000]<std::__ndk1::__variant_detail::__dtor<std::__ndk1::__variant_detail::__traits<void*, std::__ndk1::basic_string<char, std::__ndk1::char_traits<char>, std::__ndk1::allocator<char> > >, (std::__ndk1::__variant_detail::_Trait)1>::__destroy[abi:ne180000]()::{lambda(auto:1&)#1}, std::__ndk1::__variant_detail::__base<(std::__ndk1::__variant_detail::__traits<void*, std::__ndk1::basic_string<char, std::__ndk1::char_traits<char>, std::__ndk1::allocator<char> > >)1, std::__ndk1::__variant_detail::__traits, std::__ndk1::allocator<char> >&>(std::__ndk1::__variant_detail::__dtor<std::__ndk1::__variant_detail::__traits<void*, std::__ndk1::basic_string<char, std::__ndk1::char_traits<char>, std::__ndk1::allocator<char> > >, (std::__ndk1::__variant_detail::_Trait)1>, std::__ndk1::__variant_detail::__base<(std::__ndk1::__variant_detail::__traits<void*, std::__ndk1::basic_string<char, std::__ndk1::char_traits<char>, std::__ndk1::allocator<char> > >)1, std::__ndk1::__variant_detail::__traits, std::__ndk1::allocator<char> >&)
13534 4 526 3
FUNC 13538 14 0 std::__ndk1::__variant_detail::__visitation::__base::__dispatcher<(unsigned long)1>::__dispatch[abi:ne180000]<std::__ndk1::__variant_detail::__dtor<std::__ndk1::__variant_detail::__traits<void*, std::__ndk1::basic_string<char, std::__ndk1::char_traits<char>, std::__ndk1::allocator<char> > >, (std::__ndk1::__variant_detail::_Trait)1>::__destroy[abi:ne180000]()::{lambda(auto:1&)#1}, std::__ndk1::__variant_detail::__base<(std::__ndk1::__variant_detail::__traits<void*, std::__ndk1::basic_string<char, std::__ndk1::char_traits<char>, std::__ndk1::allocator<char> > >)1, std::__ndk1::__variant_detail::__traits, std::__ndk1::allocator<char> >&>(std::__ndk1::__variant_detail::__dtor<std::__ndk1::__variant_detail::__traits<void*, std::__ndk1::basic_string<char, std::__ndk1::char_traits<char>, std::__ndk1::allocator<char> > >, (std::__ndk1::__variant_detail::_Trait)1>, std::__ndk1::__variant_detail::__base<(std::__ndk1::__variant_detail::__traits<void*, std::__ndk1::basic_string<char, std::__ndk1::char_traits<char>, std::__ndk1::allocator<char> > >)1, std::__ndk1::__variant_detail::__traits, std::__ndk1::allocator<char> >&)
13538 14 526 3
FUNC 1354c 250 0 geode::stl::_rb_insert_rebalance(bool, geode::stl::_rb_tree_base*, geode::stl::_rb_tree_base*, geode::stl::_rb_tree_base&)
1354c 4 113 28
13550 4 111 28
13554 4 116 28
13558 4 113 28
1355c 4 115 28
13560 4 118 28
13564 4 121 28
13568 4 119 28
1356c 4 121 28
13570 10 125 28
13580 4 130 28
13584 10 132 28
13594 4 122 28
13598 8 123 28
135a0 1c 137 28
135bc 4 138 28
135c0 c 140 28
135cc c 160 28
135d8 18 167 28
135f0 4 141 28
135f4 c 142 28
13600 30 149 28
13630 4c 169 28
1367c 4 173 28
13680 4 171 28
13684 4 172 28
13688 44 173 28
136cc 48 151 28
13714 4 155 28
13718 4 151 28
1371c 4 155 28
13720 4 153 28
13724 4 154 28
13728 44 155 28
1376c 28 137 28
13794 4 177 28
13798 4 178 28
FUNC 1379c 1e0 0 gd::map<int, gd::string>::insert_pair(std::__ndk1::pair<int, gd::string> const&)
1379c 18 112 31
137b4 10 113 31
137c4 10 116 31
137d4 8 118 31
137dc c 119 31
137e8 4 116 31
137ec c 123 31
137f8 c 124 31
13804 30 128 31
13834 24 125 31
13858 18 128 31
13870 58 125 31
138c8 10 131 31
138d8 70 132 31
13948 14 134 31
1395c 20 128 31
PUBLIC 13980 0 <.plt ELF section in weebify.coins_in_pause_menu.android64.so>
STACK CFI INIT 7e10 10 .cfa: sp 0 +
STACK CFI INIT 7e20 8 .cfa: sp 0 +
STACK CFI INIT 7e28 8 .cfa: sp 0 +
STACK CFI INIT 7e30 14 .cfa: sp 0 +
STACK CFI INIT 7e44 1c .cfa: sp 0 +
STACK CFI INIT 7e60 10 .cfa: sp 0 +
STACK CFI INIT 7e70 134 .cfa: sp 0 +
STACK CFI INIT 7fa4 84 .cfa: sp 0 +
STACK CFI INIT 8028 f4 .cfa: sp 0 +
STACK CFI INIT 811c a8 .cfa: sp 0 +
STACK CFI INIT 81c4 7c .cfa: sp 0 +
STACK CFI INIT 8240 14 .cfa: sp 0 +
STACK CFI INIT 8254 40 .cfa: sp 0 +
STACK CFI INIT 8294 28 .cfa: sp 0 +
STACK CFI INIT 82bc 190 .cfa: sp 0 +
STACK CFI INIT 844c 2c8 .cfa: sp 0 +
STACK CFI INIT 8714 8 .cfa: sp 0 +
STACK CFI INIT 871c 8 .cfa: sp 0 +
STACK CFI INIT 8724 44 .cfa: sp 0 +
STACK CFI INIT 8768 e8 .cfa: sp 0 +
STACK CFI INIT 8850 e8 .cfa: sp 0 +
STACK CFI INIT 8938 14 .cfa: sp 0 +
STACK CFI INIT 894c 10 .cfa: sp 0 +
STACK CFI INIT 895c 10 .cfa: sp 0 +
STACK CFI INIT 896c f0 .cfa: sp 0 +
STACK CFI INIT 8a5c 44 .cfa: sp 0 +
STACK CFI INIT 8aa0 c .cfa: sp 0 +
STACK CFI INIT 8aac c .cfa: sp 0 +
STACK CFI INIT 8ab8 2c .cfa: sp 0 +
STACK CFI INIT 8ae4 280 .cfa: sp 0 +
STACK CFI INIT 8d64 c .cfa: sp 0 +
STACK CFI INIT 8d70 120 .cfa: sp 0 +
STACK CFI INIT 8e90 488 .cfa: sp 0 +
STACK CFI INIT 9318 c48 .cfa: sp 0 +
STACK CFI INIT 9f60 134 .cfa: sp 0 +
STACK CFI INIT a094 210 .cfa: sp 0 +
STACK CFI INIT a2a4 38c .cfa: sp 0 +
STACK CFI INIT a630 1c8 .cfa: sp 0 +
STACK CFI INIT a7f8 9bc .cfa: sp 0 +
STACK CFI INIT b1b4 2d4 .cfa: sp 0 +
STACK CFI INIT b488 134 .cfa: sp 0 +
STACK CFI INIT b5bc 120 .cfa: sp 0 +
STACK CFI INIT b6dc 1c8 .cfa: sp 0 +
STACK CFI INIT b8a4 168 .cfa: sp 0 +
STACK CFI INIT ba0c fc .cfa: sp 0 +
STACK CFI INIT bb08 30 .cfa: sp 0 +
STACK CFI INIT bc70 30 .cfa: sp 0 +
STACK CFI INIT bca0 98 .cfa: sp 0 +
STACK CFI INIT bd38 59c .cfa: sp 0 +
STACK CFI INIT c2d4 8c .cfa: sp 0 +
STACK CFI INIT c360 30 .cfa: sp 0 +
STACK CFI INIT c390 80 .cfa: sp 0 +
STACK CFI c394 .cfa: sp 32 +
STACK CFI c39c .cfa: x29 32 + x19: .cfa -8 + ^ x20: .cfa -16 + ^ .ra: .cfa -24 + ^ x29: .cfa -32 + ^
STACK CFI c404 .cfa: sp 32 +
STACK CFI c40c .cfa: sp 0 +
STACK CFI INIT c410 5c .cfa: sp 0 +
STACK CFI c414 .cfa: sp 32 +
STACK CFI c41c .cfa: x29 32 + x19: .cfa -16 + ^ .ra: .cfa -24 + ^ x29: .cfa -32 + ^
STACK CFI c45c .cfa: sp 32 +
STACK CFI c468 .cfa: sp 0 +
STACK CFI INIT c46c 4c .cfa: sp 0 +
STACK CFI INIT c4b8 18 .cfa: sp 0 +
STACK CFI INIT d9d4 18 .cfa: sp 0 +
STACK CFI INIT d9ec 18 .cfa: sp 0 +
STACK CFI INIT da04 18 .cfa: sp 0 +
STACK CFI INIT e044 4 .cfa: sp 0 +
STACK CFI INIT e048 14 .cfa: sp 0 +
STACK CFI e04c .cfa: sp 16 +
STACK CFI e050 .cfa: x29 16 + .ra: .cfa -8 + ^ x29: .cfa -16 + ^
STACK CFI INIT e05c 10 .cfa: sp 0 +
STACK CFI e060 .cfa: sp 16 +
STACK CFI e064 .cfa: x29 16 + .ra: .cfa -8 + ^ x29: .cfa -16 + ^
STACK CFI INIT e0bc 30 .cfa: sp 0 +
STACK CFI e0c0 .cfa: sp 32 +
STACK CFI e0c8 .cfa: x29 32 + x19: .cfa -16 + ^ .ra: .cfa -24 + ^ x29: .cfa -32 + ^
STACK CFI e0e0 .cfa: sp 32 +
STACK CFI e0e8 .cfa: sp 0 +
STACK CFI INIT e0ec 34 .cfa: sp 0 +
STACK CFI e0f0 .cfa: sp 32 +
STACK CFI e0f8 .cfa: x29 32 + x19: .cfa -16 + ^ .ra: .cfa -24 + ^ x29: .cfa -32 + ^
STACK CFI INIT e120 14 .cfa: sp 0 +
STACK CFI e124 .cfa: sp 16 +
STACK CFI e128 .cfa: x29 16 + .ra: .cfa -8 + ^ x29: .cfa -16 + ^
STACK CFI INIT e134 14 .cfa: sp 0 +
STACK CFI e138 .cfa: sp 16 +
STACK CFI e13c .cfa: x29 16 + .ra: .cfa -8 + ^ x29: .cfa -16 + ^
STACK CFI INIT e198 30 .cfa: sp 0 +
STACK CFI e19c .cfa: sp 32 +
STACK CFI e1a4 .cfa: x29 32 + x19: .cfa -16 + ^ .ra: .cfa -24 + ^ x29: .cfa -32 + ^
STACK CFI e1bc .cfa: sp 32 +
STACK CFI e1c4 .cfa: sp 0 +
STACK CFI INIT e1c8 14 .cfa: sp 0 +
STACK CFI e1cc .cfa: sp 16 +
STACK CFI e1d0 .cfa: x29 16 + .ra: .cfa -8 + ^ x29: .cfa -16 + ^
STACK CFI INIT e1dc 4 .cfa: sp 0 +
STACK CFI INIT e1e0 4 .cfa: sp 0 +
STACK CFI INIT e1e4 38 .cfa: sp 0 +
STACK CFI e1e8 .cfa: sp 32 +
STACK CFI e1f0 .cfa: x29 32 + x19: .cfa -16 + ^ .ra: .cfa -24 + ^ x29: .cfa -32 + ^
STACK CFI e210 .cfa: sp 32 +
STACK CFI e218 .cfa: sp 0 +
STACK CFI INIT e21c 18 .cfa: sp 0 +
STACK CFI INIT e234 4 .cfa: sp 0 +
STACK CFI INIT e238 4 .cfa: sp 0 +
STACK CFI INIT e23c 10 .cfa: sp 0 +
STACK CFI INIT e24c 1c .cfa: sp 0 +
STACK CFI INIT e268 c .cfa: sp 0 +
STACK CFI INIT e274 4 .cfa: sp 0 +
STACK CFI INIT e278 50 .cfa: sp 0 +
STACK CFI e27c .cfa: sp 32 +
STACK CFI e284 .cfa: x29 32 + x19: .cfa -16 + ^ .ra: .cfa -24 + ^ x29: .cfa -32 + ^
STACK CFI e29c .cfa: sp 32 +
STACK CFI e2a4 .cfa: sp 0 +
STACK CFI e2a8 .cfa: x29 32 +
STACK CFI e2bc .cfa: sp 32 +
STACK CFI e2c4 .cfa: sp 0 +
STACK CFI INIT e33c 7c .cfa: sp 0 +
STACK CFI e340 .cfa: sp 48 +
STACK CFI e34c .cfa: x29 48 + x19: .cfa -8 + ^ x20: .cfa -16 + ^ x21: .cfa -32 + ^ .ra: .cfa -40 + ^ x29: .cfa -48 + ^
STACK CFI e398 .cfa: sp 48 +
STACK CFI e3a4 .cfa: sp 0 +
STACK CFI e3a8 .cfa: sp 48 +
STACK CFI e3b4 .cfa: sp 0 +
STACK CFI INIT e3b8 4 .cfa: sp 0 +
STACK CFI INIT e510 34 .cfa: sp 0 +
STACK CFI e514 .cfa: sp 16 +
STACK CFI e518 .cfa: x29 16 + .ra: .cfa -8 + ^ x29: .cfa -16 + ^
STACK CFI INIT e668 80 .cfa: sp 0 +
STACK CFI e66c .cfa: sp 48 +
STACK CFI e678 .cfa: x29 48 + x19: .cfa -8 + ^ x20: .cfa -16 + ^ x21: .cfa -32 + ^ .ra: .cfa -40 + ^ x29: .cfa -48 + ^
STACK CFI e6d8 .cfa: sp 48 +
STACK CFI e6e4 .cfa: sp 0 +
STACK CFI INIT e6e8 24 .cfa: sp 0 +
STACK CFI e6ec .cfa: sp 32 +
STACK CFI e6f4 .cfa: x29 32 + x19: .cfa -16 + ^ .ra: .cfa -24 + ^ x29: .cfa -32 + ^
STACK CFI e700 .cfa: sp 32 +
STACK CFI e708 .cfa: sp 0 +
STACK CFI INIT ea58 14 .cfa: sp 0 +
STACK CFI ea5c .cfa: sp 16 +
STACK CFI ea60 .cfa: x29 16 + .ra: .cfa -8 + ^ x29: .cfa -16 + ^
STACK CFI INIT ebc8 148 .cfa: sp 0 +
STACK CFI ebcc .cfa: sp 48 +
STACK CFI ebd8 .cfa: x29 48 + x19: .cfa -8 + ^ x20: .cfa -16 + ^ x21: .cfa -32 + ^ .ra: .cfa -40 + ^ x29: .cfa -48 + ^
STACK CFI ed00 .cfa: sp 48 +
STACK CFI ed0c .cfa: sp 0 +
STACK CFI INIT ef28 70 .cfa: sp 0 +
STACK CFI ef2c .cfa: sp 48 +
STACK CFI ef38 .cfa: x29 48 + x19: .cfa -8 + ^ x20: .cfa -16 + ^ x21: .cfa -24 + ^ x22: .cfa -32 + ^ .ra: .cfa -40 + ^ x29: .cfa -48 + ^
STACK CFI ef80 .cfa: sp 48 +
STACK CFI ef8c .cfa: sp 0 +
STACK CFI ef90 .cfa: x29 48 +
STACK CFI INIT ef98 68 .cfa: sp 0 +
STACK CFI ef9c .cfa: sp 32 +
STACK CFI efa4 .cfa: x29 32 + x19: .cfa -8 + ^ x20: .cfa -16 + ^ .ra: .cfa -24 + ^ x29: .cfa -32 + ^
STACK CFI efbc .cfa: sp 32 +
STACK CFI efc4 .cfa: sp 0 +
STACK CFI efc8 .cfa: x29 32 +
STACK CFI eff4 .cfa: sp 32 +
STACK CFI effc .cfa: sp 0 +
STACK CFI INIT f000 14 .cfa: sp 0 +
STACK CFI f004 .cfa: sp 16 +
STACK CFI f008 .cfa: x29 16 + .ra: .cfa -8 + ^ x29: .cfa -16 + ^
STACK CFI INIT f014 4 .cfa: sp 0 +
STACK CFI INIT f018 14 .cfa: sp 0 +
STACK CFI INIT f02c fc .cfa: sp 0 +
STACK CFI f030 .cfa: sp 64 +
STACK CFI f040 .cfa: x29 64 + x19: .cfa -8 + ^ x20: .cfa -16 + ^ x21: .cfa -24 + ^ x22: .cfa -32 + ^ x23: .cfa -40 + ^ x24: .cfa -48 + ^ .ra: .cfa -56 + ^ x29: .cfa -64 + ^
STACK CFI f114 .cfa: sp 64 +
STACK CFI f124 .cfa: sp 0 +
STACK CFI INIT f128 454 .cfa: sp 0 +
STACK CFI f12c .cfa: sp 32 +
STACK CFI f134 .cfa: x29 32 + x19: .cfa -8 + ^ x20: .cfa -16 + ^ .ra: .cfa -24 + ^ x29: .cfa -32 + ^
STACK CFI f4c4 .cfa: sp 32 +
STACK CFI f4cc .cfa: sp 0 +
STACK CFI f4d0 .cfa: x29 32 +
STACK CFI INIT f57c 84 .cfa: sp 0 +
STACK CFI f584 .cfa: sp 32 +
STACK CFI f58c .cfa: x29 32 + x19: .cfa -8 + ^ x20: .cfa -16 + ^ .ra: .cfa -24 + ^ x29: .cfa -32 + ^
STACK CFI f5cc .cfa: sp 32 +
STACK CFI f5d4 .cfa: sp 0 +
STACK CFI f5dc .cfa: x29 32 +
STACK CFI INIT f990 4 .cfa: sp 0 +
STACK CFI INIT f994 1dc .cfa: sp 0 +
STACK CFI f998 .cfa: sp 96 +
STACK CFI f9ac .cfa: x29 64 + x19: .cfa -8 + ^ x20: .cfa -16 + ^ x21: .cfa -24 + ^ x22: .cfa -32 + ^ x23: .cfa -40 + ^ x24: .cfa -48 + ^ .ra: .cfa -56 + ^ x29: .cfa -64 + ^
STACK CFI fb3c .cfa: sp 96 +
STACK CFI fb50 .cfa: sp 0 +
STACK CFI fb54 .cfa: x29 64 +
STACK CFI INIT fb70 50 .cfa: sp 0 +
STACK CFI fb74 .cfa: sp 32 +
STACK CFI fb7c .cfa: x29 32 + x19: .cfa -16 + ^ .ra: .cfa -24 + ^ x29: .cfa -32 + ^
STACK CFI fb94 .cfa: sp 32 +
STACK CFI fb9c .cfa: sp 0 +
STACK CFI fba0 .cfa: x29 32 +
STACK CFI fbb4 .cfa: sp 32 +
STACK CFI fbbc .cfa: sp 0 +
STACK CFI INIT fbc0 64 .cfa: sp 0 +
STACK CFI fbc4 .cfa: sp 32 +
STACK CFI fbcc .cfa: x29 32 + x19: .cfa -16 + ^ .ra: .cfa -24 + ^ x29: .cfa -32 + ^
STACK CFI fbf8 .cfa: sp 32 +
STACK CFI fc00 .cfa: sp 0 +
STACK CFI fc04 .cfa: x29 32 +
STACK CFI fc18 .cfa: sp 32 +
STACK CFI fc20 .cfa: sp 0 +
STACK CFI INIT fc24 14 .cfa: sp 0 +
STACK CFI fc28 .cfa: sp 16 +
STACK CFI fc2c .cfa: x29 16 + .ra: .cfa -8 + ^ x29: .cfa -16 + ^
STACK CFI INIT fc38 d8 .cfa: sp 0 +
STACK CFI fc3c .cfa: sp 64 +
STACK CFI fc4c .cfa: x29 64 + x19: .cfa -8 + ^ x20: .cfa -16 + ^ x21: .cfa -24 + ^ x22: .cfa -32 + ^ x23: .cfa -48 + ^ .ra: .cfa -56 + ^ x29: .cfa -64 + ^
STACK CFI fcc4 .cfa: sp 64 +
STACK CFI fcd4 .cfa: sp 0 +
STACK CFI fcd8 .cfa: x29 64 +
STACK CFI INIT fd10 104 .cfa: sp 0 +
STACK CFI fd14 .cfa: sp 80 +
STACK CFI fd28 .cfa: x29 80 + x19: .cfa -8 + ^ x20: .cfa -16 + ^ x21: .cfa -24 + ^ x22: .cfa -32 + ^ x23: .cfa -40 + ^ x24: .cfa -48 + ^ x25: .cfa -56 + ^ x26: .cfa -64 + ^ .ra: .cfa -72 + ^ x29: .cfa -80 + ^
STACK CFI fdfc .cfa: sp 80 +
STACK CFI fe10 .cfa: sp 0 +
STACK CFI INIT fe14 19c .cfa: sp 0 +
STACK CFI INIT 10cd0 4 .cfa: sp 0 +
STACK CFI INIT 10e08 34 .cfa: sp 0 +
STACK CFI 10e0c .cfa: sp 16 +
STACK CFI 10e10 .cfa: x29 16 + .ra: .cfa -8 + ^ x29: .cfa -16 + ^
STACK CFI 10e34 .cfa: sp 16 +
STACK CFI 10e38 .cfa: sp 0 +
STACK CFI INIT 10e3c 2c .cfa: sp 0 +
STACK CFI INIT 10e68 58 .cfa: sp 0 +
STACK CFI 10e6c .cfa: sp 32 +
STACK CFI 10e74 .cfa: x29 32 + x19: .cfa -16 + ^ .ra: .cfa -24 + ^ x29: .cfa -32 + ^
STACK CFI 10eb4 .cfa: sp 32 +
STACK CFI 10ebc .cfa: sp 0 +
STACK CFI INIT 11044 48 .cfa: sp 0 +
STACK CFI 11048 .cfa: sp 32 +
STACK CFI 11050 .cfa: x29 32 + x19: .cfa -16 + ^ .ra: .cfa -24 + ^ x29: .cfa -32 + ^
STACK CFI 1107c .cfa: sp 32 +
STACK CFI 11088 .cfa: sp 0 +
STACK CFI INIT 1108c 48 .cfa: sp 0 +
STACK CFI 11090 .cfa: sp 32 +
STACK CFI 11098 .cfa: x29 32 + x19: .cfa -16 + ^ .ra: .cfa -24 + ^ x29: .cfa -32 + ^
STACK CFI 110a4 .cfa: sp 32 +
STACK CFI 110a8 .cfa: x29 32 +
STACK CFI 110c8 .cfa: sp 32 +
STACK CFI 110d0 .cfa: sp 0 +
STACK CFI INIT 11454 4 .cfa: sp 0 +
STACK CFI INIT 115c0 4 .cfa: sp 0 +
STACK CFI INIT 115c4 14 .cfa: sp 0 +
STACK CFI INIT 12a84 8c .cfa: sp 0 +
STACK CFI 12a88 .cfa: sp 32 +
STACK CFI 12a90 .cfa: x29 32 + x19: .cfa -16 + ^ .ra: .cfa -24 + ^ x29: .cfa -32 + ^
STACK CFI 12b04 .cfa: sp 32 +
STACK CFI 12b0c .cfa: sp 0 +
STACK CFI INIT 12b30 14 .cfa: sp 0 +
STACK CFI 12b34 .cfa: sp 16 +
STACK CFI 12b38 .cfa: x29 16 + .ra: .cfa -8 + ^ x29: .cfa -16 + ^
STACK CFI INIT 12de8 30 .cfa: sp 0 +
STACK CFI 12dec .cfa: sp 32 +
STACK CFI 12df4 .cfa: x29 32 + x19: .cfa -16 + ^ .ra: .cfa -24 + ^ x29: .cfa -32 + ^
STACK CFI 12e0c .cfa: sp 32 +
STACK CFI 12e14 .cfa: sp 0 +
STACK CFI INIT 13038 64 .cfa: sp 0 +
STACK CFI 1303c .cfa: sp 32 +
STACK CFI 13044 .cfa: x29 32 + x19: .cfa -16 + ^ .ra: .cfa -24 + ^ x29: .cfa -32 + ^
STACK CFI 13070 .cfa: sp 32 +
STACK CFI 13078 .cfa: sp 0 +
STACK CFI 1307c .cfa: x29 32 +
STACK CFI 13090 .cfa: sp 32 +
STACK CFI 13098 .cfa: sp 0 +
STACK CFI INIT 13534 4 .cfa: sp 0 +
STACK CFI INIT 13538 14 .cfa: sp 0 +
STACK CFI INIT 1354c 250 .cfa: sp 0 +
STACK CFI INIT c4d0 41c .cfa: sp 0 +
STACK CFI c4d4 .cfa: sp 224 +
STACK CFI c4f0 .cfa: x29 96 + x19: .cfa -8 + ^ x20: .cfa -16 + ^ x21: .cfa -24 + ^ x22: .cfa -32 + ^ x23: .cfa -40 + ^ x24: .cfa -48 + ^ x25: .cfa -56 + ^ x26: .cfa -64 + ^ x27: .cfa -72 + ^ x28: .cfa -80 + ^ .ra: .cfa -88 + ^ x29: .cfa -96 + ^
STACK CFI c7d8 .cfa: sp 224 +
STACK CFI c7f4 .cfa: sp 0 +
STACK CFI c7f8 .cfa: x29 96 +
STACK CFI INIT c8ec 41c .cfa: sp 0 +
STACK CFI c8f0 .cfa: sp 224 +
STACK CFI c90c .cfa: x29 96 + x19: .cfa -8 + ^ x20: .cfa -16 + ^ x21: .cfa -24 + ^ x22: .cfa -32 + ^ x23: .cfa -40 + ^ x24: .cfa -48 + ^ x25: .cfa -56 + ^ x26: .cfa -64 + ^ x27: .cfa -72 + ^ x28: .cfa -80 + ^ .ra: .cfa -88 + ^ x29: .cfa -96 + ^
STACK CFI cbf4 .cfa: sp 224 +
STACK CFI cc10 .cfa: sp 0 +
STACK CFI cc14 .cfa: x29 96 +
STACK CFI INIT cd08 5d4 .cfa: sp 0 +
STACK CFI cd0c .cfa: sp 224 +
STACK CFI cd28 .cfa: x29 96 + x19: .cfa -8 + ^ x20: .cfa -16 + ^ x21: .cfa -24 + ^ x22: .cfa -32 + ^ x23: .cfa -40 + ^ x24: .cfa -48 + ^ x25: .cfa -56 + ^ x26: .cfa -64 + ^ x27: .cfa -72 + ^ x28: .cfa -80 + ^ .ra: .cfa -88 + ^ x29: .cfa -96 + ^
STACK CFI d1a8 .cfa: sp 224 +
STACK CFI d1c4 .cfa: sp 0 +
STACK CFI d1c8 .cfa: x29 96 +
STACK CFI INIT da1c 628 .cfa: sp 0 +
STACK CFI da20 .cfa: sp 224 +
STACK CFI da3c .cfa: x29 96 + x19: .cfa -8 + ^ x20: .cfa -16 + ^ x21: .cfa -24 + ^ x22: .cfa -32 + ^ x23: .cfa -40 + ^ x24: .cfa -48 + ^ x25: .cfa -56 + ^ x26: .cfa -64 + ^ x27: .cfa -72 + ^ x28: .cfa -80 + ^ .ra: .cfa -88 + ^ x29: .cfa -96 + ^
STACK CFI ded8 .cfa: sp 224 +
STACK CFI def4 .cfa: sp 0 +
STACK CFI def8 .cfa: x29 96 +
STACK CFI INIT e06c 50 .cfa: sp 0 +
STACK CFI e070 .cfa: sp 32 +
STACK CFI e078 .cfa: x29 32 + x19: .cfa -8 + ^ x20: .cfa -16 + ^ .ra: .cfa -24 + ^ x29: .cfa -32 + ^
STACK CFI INIT e148 50 .cfa: sp 0 +
STACK CFI e14c .cfa: sp 32 +
STACK CFI e154 .cfa: x29 32 + x19: .cfa -8 + ^ x20: .cfa -16 + ^ .ra: .cfa -24 + ^ x29: .cfa -32 + ^
STACK CFI INIT e2c8 74 .cfa: sp 0 +
STACK CFI e2cc .cfa: sp 48 +
STACK CFI e2d8 .cfa: x29 32 + x19: .cfa -8 + ^ x20: .cfa -16 + ^ .ra: .cfa -24 + ^ x29: .cfa -32 + ^
STACK CFI e324 .cfa: sp 48 +
STACK CFI e330 .cfa: sp 0 +
STACK CFI e334 .cfa: x29 32 +
STACK CFI INIT e3bc 154 .cfa: sp 0 +
STACK CFI e3c0 .cfa: sp 384 +
STACK CFI e3d4 .cfa: x29 64 + x19: .cfa -8 + ^ x20: .cfa -16 + ^ x21: .cfa -24 + ^ x22: .cfa -32 + ^ x23: .cfa -40 + ^ x28: .cfa -48 + ^ .ra: .cfa -56 + ^ x29: .cfa -64 + ^
STACK CFI e4b8 .cfa: sp 384 +
STACK CFI e4cc .cfa: sp 0 +
STACK CFI e4d0 .cfa: x29 64 +
STACK CFI INIT e544 124 .cfa: sp 0 +
STACK CFI e548 .cfa: sp 80 +
STACK CFI e55c .cfa: x29 80 + x19: .cfa -8 + ^ x20: .cfa -16 + ^ x21: .cfa -24 + ^ x22: .cfa -32 + ^ x23: .cfa -40 + ^ x24: .cfa -48 + ^ x25: .cfa -56 + ^ x26: .cfa -64 + ^ .ra: .cfa -72 + ^ x29: .cfa -80 + ^
STACK CFI e628 .cfa: sp 80 +
STACK CFI e63c .cfa: sp 0 +
STACK CFI e640 .cfa: x29 80 +
STACK CFI INIT e70c 198 .cfa: sp 0 +
STACK CFI e710 .cfa: sp 112 +
STACK CFI e728 .cfa: x29 80 + x19: .cfa -8 + ^ x20: .cfa -16 + ^ x21: .cfa -24 + ^ x22: .cfa -32 + ^ x23: .cfa -40 + ^ x24: .cfa -48 + ^ x25: .cfa -56 + ^ x26: .cfa -64 + ^ .ra: .cfa -72 + ^ x29: .cfa -80 + ^
STACK CFI e818 .cfa: sp 112 +
STACK CFI e830 .cfa: sp 0 +
STACK CFI e834 .cfa: x29 80 +
STACK CFI INIT e8a4 1b4 .cfa: sp 0 +
STACK CFI e8a8 .cfa: sp 128 +
STACK CFI e8c4 .cfa: x29 96 + x19: .cfa -8 + ^ x20: .cfa -16 + ^ x21: .cfa -24 + ^ x22: .cfa -32 + ^ x23: .cfa -40 + ^ x24: .cfa -48 + ^ x25: .cfa -56 + ^ x26: .cfa -64 + ^ x27: .cfa -80 + ^ .ra: .cfa -88 + ^ x29: .cfa -96 + ^
STACK CFI ea08 .cfa: sp 128 +
STACK CFI ea24 .cfa: sp 0 +
STACK CFI ea28 .cfa: x29 96 +
STACK CFI INIT ea6c 15c .cfa: sp 0 +
STACK CFI ea70 .cfa: sp 80 +
STACK CFI ea84 .cfa: x29 80 + x19: .cfa -8 + ^ x20: .cfa -16 + ^ x21: .cfa -24 + ^ x22: .cfa -32 + ^ x23: .cfa -40 + ^ x24: .cfa -48 + ^ x25: .cfa -64 + ^ .ra: .cfa -72 + ^ x29: .cfa -80 + ^
STACK CFI eb94 .cfa: sp 80 +
STACK CFI eba8 .cfa: sp 0 +
STACK CFI ebac .cfa: x29 80 +
STACK CFI INIT ed10 218 .cfa: sp 0 +
STACK CFI ed14 .cfa: sp 128 +
STACK CFI ed2c .cfa: x29 80 + x19: .cfa -8 + ^ x20: .cfa -16 + ^ x21: .cfa -24 + ^ x22: .cfa -32 + ^ x23: .cfa -40 + ^ x24: .cfa -48 + ^ x25: .cfa -64 + ^ .ra: .cfa -72 + ^ x29: .cfa -80 + ^
STACK CFI eebc .cfa: sp 128 +
STACK CFI eed4 .cfa: sp 0 +
STACK CFI eed8 .cfa: x29 80 +
STACK CFI INIT f600 390 .cfa: sp 0 +
STACK CFI f604 .cfa: sp 240 +
STACK CFI f618 .cfa: x29 64 + x19: .cfa -8 + ^ x20: .cfa -16 + ^ x21: .cfa -24 + ^ x22: .cfa -32 + ^ x23: .cfa -48 + ^ .ra: .cfa -56 + ^ x29: .cfa -64 + ^
STACK CFI f884 .cfa: sp 240 +
STACK CFI f898 .cfa: sp 0 +
STACK CFI f89c .cfa: x29 64 +
STACK CFI INIT ffb0 d20 .cfa: sp 0 +
STACK CFI ffb4 .cfa: sp 240 +
STACK CFI ffcc .cfa: x29 80 + x19: .cfa -8 + ^ x20: .cfa -16 + ^ x21: .cfa -24 + ^ x22: .cfa -32 + ^ x23: .cfa -40 + ^ x24: .cfa -48 + ^ x25: .cfa -56 + ^ x26: .cfa -64 + ^ .ra: .cfa -72 + ^ x29: .cfa -80 + ^
STACK CFI 109c4 .cfa: sp 240 +
STACK CFI 109dc .cfa: sp 0 +
STACK CFI 109e0 .cfa: x29 80 +
STACK CFI INIT 10cd4 134 .cfa: sp 0 +
STACK CFI 10cd8 .cfa: sp 128 +
STACK CFI 10cec .cfa: x29 64 + x19: .cfa -8 + ^ x20: .cfa -16 + ^ x21: .cfa -24 + ^ x22: .cfa -32 + ^ x23: .cfa -40 + ^ x24: .cfa -48 + ^ .ra: .cfa -56 + ^ x29: .cfa -64 + ^
STACK CFI 10db8 .cfa: sp 128 +
STACK CFI 10dcc .cfa: sp 0 +
STACK CFI 10dd0 .cfa: x29 64 +
STACK CFI INIT 10ec0 184 .cfa: sp 0 +
STACK CFI 10ec4 .cfa: sp 160 +
STACK CFI 10edc .cfa: x29 80 + x19: .cfa -8 + ^ x20: .cfa -16 + ^ x21: .cfa -24 + ^ x22: .cfa -32 + ^ x23: .cfa -40 + ^ x24: .cfa -48 + ^ x25: .cfa -56 + ^ x26: .cfa -64 + ^ .ra: .cfa -72 + ^ x29: .cfa -80 + ^
STACK CFI 10fdc .cfa: sp 160 +
STACK CFI 10ff4 .cfa: sp 0 +
STACK CFI 10ff8 .cfa: x29 80 +
STACK CFI INIT 110d4 380 .cfa: sp 0 +
STACK CFI 110d8 .cfa: sp 224 +
STACK CFI 110ec .cfa: x29 64 + x19: .cfa -8 + ^ x20: .cfa -16 + ^ x21: .cfa -24 + ^ x22: .cfa -32 + ^ x23: .cfa -48 + ^ .ra: .cfa -56 + ^ x29: .cfa -64 + ^
STACK CFI 11350 .cfa: sp 224 +
STACK CFI 11364 .cfa: sp 0 +
STACK CFI 11368 .cfa: x29 64 +
STACK CFI INIT 11458 168 .cfa: sp 0 +
STACK CFI 1145c .cfa: sp 384 +
STACK CFI 11470 .cfa: x29 64 + x19: .cfa -8 + ^ x20: .cfa -16 + ^ x21: .cfa -24 + ^ x22: .cfa -32 + ^ x23: .cfa -40 + ^ x28: .cfa -48 + ^ .ra: .cfa -56 + ^ x29: .cfa -64 + ^
STACK CFI 11568 .cfa: sp 384 +
STACK CFI 1157c .cfa: sp 0 +
STACK CFI 11580 .cfa: x29 64 +
STACK CFI INIT 115d8 a8 .cfa: sp 0 +
STACK CFI 115dc .cfa: sp 32 +
STACK CFI 115e4 .cfa: x29 32 + x19: .cfa -8 + ^ x20: .cfa -16 + ^ .ra: .cfa -24 + ^ x29: .cfa -32 + ^
STACK CFI 11618 .cfa: sp 32 +
STACK CFI 11620 .cfa: sp 0 +
STACK CFI 11624 .cfa: x29 32 +
STACK CFI 11628 .cfa: sp 32 +
STACK CFI 11630 .cfa: sp 0 +
STACK CFI 11634 .cfa: x29 32 +
STACK CFI INIT 11680 1404 .cfa: sp 0 +
STACK CFI 11684 .cfa: sp 448 +
STACK CFI 116a4 .cfa: x29 96 + x19: .cfa -8 + ^ x20: .cfa -16 + ^ x21: .cfa -24 + ^ x22: .cfa -32 + ^ x23: .cfa -40 + ^ x24: .cfa -48 + ^ x25: .cfa -56 + ^ x26: .cfa -64 + ^ x27: .cfa -72 + ^ x28: .cfa -80 + ^ .ra: .cfa -88 + ^ x29: .cfa -96 + ^ v8: .cfa -104 + ^ v9: .cfa -112 + ^
STACK CFI 1275c .cfa: sp 448 +
STACK CFI 1277c .cfa: sp 0 +
STACK CFI 12780 .cfa: x29 96 +
STACK CFI INIT 12b10 20 .cfa: sp 0 +
STACK CFI 12b14 .cfa: sp 16 +
STACK CFI 12b18 .cfa: x29 16 + .ra: .cfa -8 + ^ x29: .cfa -16 + ^
STACK CFI 12b24 .cfa: sp 16 +
STACK CFI 12b28 .cfa: sp 0 +
STACK CFI 12b2c .cfa: x29 16 +
STACK CFI INIT 12b44 2a4 .cfa: sp 0 +
STACK CFI 12b48 .cfa: sp 96 +
STACK CFI 12b60 .cfa: x29 80 + x19: .cfa -8 + ^ x20: .cfa -16 + ^ x21: .cfa -24 + ^ x22: .cfa -32 + ^ x23: .cfa -40 + ^ x24: .cfa -48 + ^ x25: .cfa -64 + ^ .ra: .cfa -72 + ^ x29: .cfa -80 + ^
STACK CFI 12d84 .cfa: sp 96 +
STACK CFI 12d9c .cfa: sp 0 +
STACK CFI 12da0 .cfa: x29 80 +
STACK CFI INIT d2dc 6f8 .cfa: sp 0 +
STACK CFI d2e0 .cfa: sp 352 +
STACK CFI d2fc .cfa: x29 96 + x19: .cfa -8 + ^ x20: .cfa -16 + ^ x21: .cfa -24 + ^ x22: .cfa -32 + ^ x23: .cfa -40 + ^ x24: .cfa -48 + ^ x25: .cfa -56 + ^ x26: .cfa -64 + ^ x28: .cfa -80 + ^ .ra: .cfa -88 + ^ x29: .cfa -96 + ^
STACK CFI d7e0 .cfa: sp 352 +
STACK CFI d7fc .cfa: sp 0 +
STACK CFI d800 .cfa: x29 96 +
STACK CFI INIT 12e18 134 .cfa: sp 0 +
STACK CFI 12e1c .cfa: sp 80 +
STACK CFI 12e28 .cfa: x29 32 + x19: .cfa -8 + ^ x20: .cfa -16 + ^ .ra: .cfa -24 + ^ x29: .cfa -32 + ^
STACK CFI 12e58 .cfa: sp 80 +
STACK CFI 12e64 .cfa: sp 0 +
STACK CFI 12e68 .cfa: x29 32 +
STACK CFI INIT 12f4c 78 .cfa: sp 0 +
STACK CFI 12f50 .cfa: sp 32 +
STACK CFI 12f58 .cfa: x29 32 + x19: .cfa -8 + ^ x20: .cfa -16 + ^ .ra: .cfa -24 + ^ x29: .cfa -32 + ^
STACK CFI 12f64 .cfa: sp 32 +
STACK CFI 12f6c .cfa: sp 0 +
STACK CFI 12f70 .cfa: x29 32 +
STACK CFI INIT 12fc4 74 .cfa: sp 0 +
STACK CFI 12fc8 .cfa: sp 48 +
STACK CFI 12fd4 .cfa: x29 32 + x19: .cfa -8 + ^ x20: .cfa -16 + ^ .ra: .cfa -24 + ^ x29: .cfa -32 + ^
STACK CFI 13020 .cfa: sp 48 +
STACK CFI 1302c .cfa: sp 0 +
STACK CFI 13030 .cfa: x29 32 +
STACK CFI INIT 1309c 150 .cfa: sp 0 +
STACK CFI 130a0 .cfa: sp 128 +
STACK CFI 130b0 .cfa: x29 48 + x19: .cfa -8 + ^ x20: .cfa -16 + ^ x21: .cfa -24 + ^ x22: .cfa -32 + ^ .ra: .cfa -40 + ^ x29: .cfa -48 + ^
STACK CFI 130f8 .cfa: sp 128 +
STACK CFI 13108 .cfa: sp 0 +
STACK CFI 1310c .cfa: x29 48 +
STACK CFI INIT 131ec a8 .cfa: sp 0 +
STACK CFI 131f0 .cfa: sp 64 +
STACK CFI 13200 .cfa: x29 48 + x19: .cfa -8 + ^ x20: .cfa -16 + ^ x21: .cfa -32 + ^ .ra: .cfa -40 + ^ x29: .cfa -48 + ^
STACK CFI 13268 .cfa: sp 64 +
STACK CFI 13278 .cfa: sp 0 +
STACK CFI 1327c .cfa: x29 48 +
STACK CFI INIT 13294 14c .cfa: sp 0 +
STACK CFI 13298 .cfa: sp 96 +
STACK CFI 132ac .cfa: x29 64 + x19: .cfa -8 + ^ x20: .cfa -16 + ^ x21: .cfa -24 + ^ x22: .cfa -32 + ^ x23: .cfa -48 + ^ .ra: .cfa -56 + ^ x29: .cfa -64 + ^
STACK CFI 13390 .cfa: sp 96 +
STACK CFI 133a4 .cfa: sp 0 +
STACK CFI 133a8 .cfa: x29 64 +
STACK CFI INIT 133e0 154 .cfa: sp 0 +
STACK CFI 133e4 .cfa: sp 384 +
STACK CFI 133f8 .cfa: x29 64 + x19: .cfa -8 + ^ x20: .cfa -16 + ^ x21: .cfa -24 + ^ x22: .cfa -32 + ^ x23: .cfa -40 + ^ x28: .cfa -48 + ^ .ra: .cfa -56 + ^ x29: .cfa -64 + ^
STACK CFI 134dc .cfa: sp 384 +
STACK CFI 134f0 .cfa: sp 0 +
STACK CFI 134f4 .cfa: x29 64 +
STACK CFI INIT 1379c 1e0 .cfa: sp 0 +
STACK CFI 137a0 .cfa: sp 64 +
STACK CFI 137b0 .cfa: x29 64 + x19: .cfa -8 + ^ x20: .cfa -16 + ^ x21: .cfa -24 + ^ x22: .cfa -32 + ^ x23: .cfa -40 + ^ x24: .cfa -48 + ^ .ra: .cfa -56 + ^ x29: .cfa -64 + ^
STACK CFI 13948 .cfa: sp 64 +
STACK CFI 13958 .cfa: sp 0 +
STACK CFI 1395c .cfa: x29 64 +
