MODULE Linux arm64 88920268CF5081F96E1A6267C3139F490 hiimjustin000.fake_rate.android64.so
INFO CODE_ID 6802928850CFF9816E1A6267C3139F493639494D
INFO GENERATOR mozilla/dump_syms 2.3.4
PUBLIC 339b0 0 __on_dlclose
PUBLIC 339c0 0 __emutls_unregister_key
PUBLIC 339c8 0 __on_dlclose_late
PUBLIC 339d0 0 __atexit_handler_wrapper
PUBLIC 339e4 0 atexit
PUBLIC 33a00 0 pthread_atfork
PUBLIC 33a10 0 unwind_phase2
PUBLIC 33b44 0 _Unwind_Resume
PUBLIC 33bc8 0 unwind_phase2_forced
PUBLIC m 33cbc 0 __unw_init_local
PUBLIC m 33d64 0 __unw_get_reg
PUBLIC 33de0 0 __unw_step_stage2
PUBLIC m 33df4 0 __unw_get_proc_info
PUBLIC m 33e34 0 __unw_resume
PUBLIC 33e5c 0 libunwind::CFI_Parser<libunwind::LocalAddressSpace>::decodeFDE(libunwind::LocalAddressSpace&, unsigned long, libunwind::CFI_Parser<libunwind::LocalAddressSpace>::FDE_Info*, libunwind::CFI_Parser<libunwind::LocalAddressSpace>::CIE_Info*, bool)
PUBLIC 33fec 0 libunwind::CFI_Parser<libunwind::LocalAddressSpace>::parseCIE(libunwind::LocalAddressSpace&, unsigned long, libunwind::CFI_Parser<libunwind::LocalAddressSpace>::CIE_Info*)
PUBLIC 342b4 0 libunwind::AbstractUnwindCursor::~AbstractUnwindCursor()
PUBLIC 342bc 0 libunwind::UnwindCursor<libunwind::LocalAddressSpace, libunwind::Registers_arm64>::~UnwindCursor()
PUBLIC 342c4 0 libunwind::UnwindCursor<libunwind::LocalAddressSpace, libunwind::Registers_arm64>::validReg(int)
PUBLIC 34308 0 libunwind::UnwindCursor<libunwind::LocalAddressSpace, libunwind::Registers_arm64>::getReg(int)
PUBLIC 343f0 0 libunwind::UnwindCursor<libunwind::LocalAddressSpace, libunwind::Registers_arm64>::setReg(int, unsigned long)
PUBLIC 344d8 0 libunwind::UnwindCursor<libunwind::LocalAddressSpace, libunwind::Registers_arm64>::validFloatReg(int)
PUBLIC 344ec 0 libunwind::UnwindCursor<libunwind::LocalAddressSpace, libunwind::Registers_arm64>::getFloatReg(int)
PUBLIC 344fc 0 libunwind::UnwindCursor<libunwind::LocalAddressSpace, libunwind::Registers_arm64>::setFloatReg(int, double)
PUBLIC 3450c 0 libunwind::UnwindCursor<libunwind::LocalAddressSpace, libunwind::Registers_arm64>::step(bool)
PUBLIC 345fc 0 libunwind::UnwindCursor<libunwind::LocalAddressSpace, libunwind::Registers_arm64>::getInfo(unw_proc_info_t*)
PUBLIC 34640 0 libunwind::UnwindCursor<libunwind::LocalAddressSpace, libunwind::Registers_arm64>::jumpto()
PUBLIC 3464c 0 libunwind::UnwindCursor<libunwind::LocalAddressSpace, libunwind::Registers_arm64>::isSignalFrame()
PUBLIC 34658 0 libunwind::UnwindCursor<libunwind::LocalAddressSpace, libunwind::Registers_arm64>::getFunctionName(char*, unsigned long, unsigned long*)
PUBLIC 34684 0 libunwind::UnwindCursor<libunwind::LocalAddressSpace, libunwind::Registers_arm64>::setInfoBasedOnIPRegister(bool)
PUBLIC 34904 0 libunwind::UnwindCursor<libunwind::LocalAddressSpace, libunwind::Registers_arm64>::getRegisterName(int)
PUBLIC 34910 0 libunwind::UnwindCursor<libunwind::LocalAddressSpace, libunwind::Registers_arm64>::stepThroughSigReturn(libunwind::Registers_arm64&)
PUBLIC 34a30 0 libunwind::DwarfInstructions<libunwind::LocalAddressSpace, libunwind::Registers_arm64>::stepWithDwarf(libunwind::LocalAddressSpace&, unsigned long, unsigned long, libunwind::Registers_arm64&, bool&, bool)
PUBLIC 34eb8 0 libunwind::CFI_Parser<libunwind::LocalAddressSpace>::parseFDEInstructions(libunwind::LocalAddressSpace&, libunwind::CFI_Parser<libunwind::LocalAddressSpace>::FDE_Info const&, libunwind::CFI_Parser<libunwind::LocalAddressSpace>::CIE_Info const&, unsigned long, int, libunwind::CFI_Parser<libunwind::LocalAddressSpace>::PrologInfo*)
PUBLIC 35b00 0 libunwind::DwarfInstructions<libunwind::LocalAddressSpace, libunwind::Registers_arm64>::getCFA(libunwind::LocalAddressSpace&, libunwind::CFI_Parser<libunwind::LocalAddressSpace>::PrologInfo const&, libunwind::Registers_arm64 const&)
PUBLIC 35c34 0 libunwind::DwarfInstructions<libunwind::LocalAddressSpace, libunwind::Registers_arm64>::getSavedRegister(libunwind::LocalAddressSpace&, libunwind::Registers_arm64 const&, unsigned long, libunwind::CFI_Parser<libunwind::LocalAddressSpace>::RegisterLocation const&)
PUBLIC 35e44 0 libunwind::LocalAddressSpace::getEncodedP(unsigned long&, unsigned long, unsigned char, unsigned long)
PUBLIC 361d0 0 libunwind::LocalAddressSpace::getULEB128(unsigned long&, unsigned long)
PUBLIC 36398 0 libunwind::DwarfInstructions<libunwind::LocalAddressSpace, libunwind::Registers_arm64>::evaluateExpression(unsigned long, libunwind::LocalAddressSpace&, libunwind::Registers_arm64 const&, unsigned long)
PUBLIC 36d54 0 libunwind::UnwindCursor<libunwind::LocalAddressSpace, libunwind::Registers_arm64>::getInfoFromDwarfSection(unsigned long, libunwind::UnwindInfoSections const&, unsigned int)
PUBLIC 37028 0 libunwind::findUnwindSectionsByPhdr(dl_phdr_info*, unsigned long, void*)
PUBLIC 3715c 0 libunwind::EHHeaderParser<libunwind::LocalAddressSpace>::decodeEHHdr(libunwind::LocalAddressSpace&, unsigned long, unsigned long, libunwind::EHHeaderParser<libunwind::LocalAddressSpace>::EHHeaderInfo&)
PUBLIC 3727c 0 libunwind::CFI_Parser<libunwind::LocalAddressSpace>::findFDE(libunwind::LocalAddressSpace&, unsigned long, unsigned long, unsigned long, unsigned long, libunwind::CFI_Parser<libunwind::LocalAddressSpace>::FDE_Info*, libunwind::CFI_Parser<libunwind::LocalAddressSpace>::CIE_Info*)
PUBLIC 37444 0 libunwind::EHHeaderParser<libunwind::LocalAddressSpace>::findFDE(libunwind::LocalAddressSpace&, unsigned long, unsigned long, unsigned int, libunwind::CFI_Parser<libunwind::LocalAddressSpace>::FDE_Info*, libunwind::CFI_Parser<libunwind::LocalAddressSpace>::CIE_Info*)
PUBLIC 375ac 0 libunwind::EHHeaderParser<libunwind::LocalAddressSpace>::getTableEntrySize(unsigned char)
PUBLIC 376a8 0 libunwind::Registers_arm64::getRegisterName(int)
PUBLIC 376d8 0 __libunwind_Registers_arm64_jumpto
PUBLIC m 37768 0 __unw_getcontext
PUBLIC 37810 0 __aarch64_ldadd8_acq_rel
PUBLIC 37840 0 init_have_lse_atomics
PUBLIC 378d8 0 __init_cpu_features_constructor
PUBLIC 37e74 0 __init_cpu_features
PUBLIC 37f00 0 __cxx_global_var_init
PUBLIC 385e8 0 std::__ndk1::unordered_map<std::__ndk1::basic_string<char, std::__ndk1::char_traits<char>, std::__ndk1::allocator<char> >, int, std::__ndk1::hash<std::__ndk1::basic_string<char, std::__ndk1::char_traits<char>, std::__ndk1::allocator<char> > >, std::__ndk1::equal_to<std::__ndk1::basic_string<char, std::__ndk1::char_traits<char>, std::__ndk1::allocator<char> > >, std::__ndk1::allocator<std::__ndk1::pair<std::__ndk1::basic_string<char, std::__ndk1::char_traits<char>, std::__ndk1::allocator<char> > const, int> > >::~unordered_map[abi:ne180000]()
PUBLIC 38658 0 FRDIBPopup::create(int, std::__ndk1::function<void (int)> const&)
PUBLIC 387d4 0 FRDIBPopup::setup(int, std::__ndk1::function<void (int)> const&)
PUBLIC 39148 0 geode::Popup<int, std::__ndk1::function<void (int)> const&>::setTitle(std::__ndk1::basic_string<char, std::__ndk1::char_traits<char>, std::__ndk1::allocator<char> > const&, char const*, float, float)
PUBLIC 39294 0 geode::cocos::CCMenuItemExt::createSpriteExtraWithFrameName(std::__ndk1::basic_string_view<char, std::__ndk1::char_traits<char> >, float, std::__ndk1::function<void (CCMenuItemSpriteExtra*)>)
PUBLIC 393e0 0 geode::cocos::CCMenuItemExt::createSpriteExtra(cocos2d::CCNode*, std::__ndk1::function<void (CCMenuItemSpriteExtra*)>)
PUBLIC 3951c 0 cocos2d::CCCopying::copyWithZone(cocos2d::CCZone*)
PUBLIC 39524 0 geode::Popup<int, std::__ndk1::function<void (int)> const&>::~Popup()
PUBLIC 39590 0 FRDIBPopup::~FRDIBPopup()
PUBLIC 39604 0 geode::Popup<int, std::__ndk1::function<void (int)> const&>::registerWithTouchDispatcher()
PUBLIC 39630 0 geode::Popup<int, std::__ndk1::function<void (int)> const&>::keyDown(cocos2d::enumKeyCodes)
PUBLIC 39658 0 cocos2d::CCLayerRGBA::setOpacityModifyRGB(bool)
PUBLIC 3965c 0 cocos2d::CCLayerRGBA::isOpacityModifyRGB()
PUBLIC 39664 0 geode::Popup<int, std::__ndk1::function<void (int)> const&>::onClose(cocos2d::CCObject*)
PUBLIC 397ac 0 {virtual override thunk({offset(-320)}, FRDIBPopup::~FRDIBPopup())}
PUBLIC 39818 0 {virtual override thunk({offset(-320)}, FRDIBPopup::~FRDIBPopup())}
PUBLIC 3988c 0 {virtual override thunk({offset(-344)}, geode::Popup<int, std::__ndk1::function<void (int)> const&>::keyDown(cocos2d::enumKeyCodes))}
PUBLIC 398b8 0 cocos2d::CCKeyboardDelegate::keyUp(cocos2d::enumKeyCodes)
PUBLIC 398bc 0 cocos2d::CCMouseDelegate::rightKeyDown()
PUBLIC 398c0 0 cocos2d::CCMouseDelegate::rightKeyUp()
PUBLIC 398c4 0 cocos2d::CCMouseDelegate::scrollWheel(float, float)
PUBLIC 398c8 0 {virtual override thunk({offset(-408)}, cocos2d::CCLayerRGBA::setOpacityModifyRGB(bool))}
PUBLIC 398cc 0 {virtual override thunk({offset(-408)}, cocos2d::CCLayerRGBA::isOpacityModifyRGB())}
PUBLIC 398d4 0 geode::Popup<int, std::__ndk1::function<void (int)> const&>::~Popup()
PUBLIC 398d8 0 {virtual override thunk({offset(-320)}, geode::Popup<int, std::__ndk1::function<void (int)> const&>::~Popup())}
PUBLIC 39944 0 {virtual override thunk({offset(-320)}, geode::Popup<int, std::__ndk1::function<void (int)> const&>::~Popup())}
PUBLIC 39948 0 __clang_call_terminate
PUBLIC 39958 0 std::__ndk1::basic_string<char, std::__ndk1::char_traits<char>, std::__ndk1::allocator<char> >::__throw_length_error[abi:ne180000]() const
PUBLIC 3996c 0 std::__ndk1::__throw_length_error[abi:ne180000](char const*)
PUBLIC 399bc 0 std::length_error::length_error[abi:ne180000](char const*)
PUBLIC 399ec 0 std::__throw_bad_array_new_length([abi:ne180000], void)
PUBLIC 39a20 0 geode::cocos::CCMenuItemExt::assignCallback<CCMenuItemSpriteExtra>(cocos2d::CCMenuItem*, std::__ndk1::function<void (CCMenuItemSpriteExtra*)>)
PUBLIC 39bb4 0 geode::cocos::CCMenuItemExt::LambdaCallback<CCMenuItemSpriteExtra>::create(std::__ndk1::function<void (CCMenuItemSpriteExtra*)>)
PUBLIC 39d7c 0 geode::cocos::CCMenuItemExt::LambdaCallback<CCMenuItemSpriteExtra>::execute(cocos2d::CCNode*)
PUBLIC 39dec 0 geode::cocos::CCMenuItemExt::LambdaCallback<CCMenuItemSpriteExtra>::~LambdaCallback()
PUBLIC 39e48 0 geode::cocos::CCMenuItemExt::LambdaCallback<CCMenuItemSpriteExtra>::~LambdaCallback()
PUBLIC 39eac 0 cocos2d::CCObject::update(float)
PUBLIC 39eb0 0 std::__ndk1::__throw_bad_function_call[abi:ne180000]()
PUBLIC 39ee4 0 std::__ndk1::bad_function_call::~bad_function_call()
PUBLIC 39f08 0 std::__ndk1::__hash_table<std::__ndk1::__hash_value_type<std::__ndk1::basic_string<char, std::__ndk1::char_traits<char>, std::__ndk1::allocator<char> >, int>, std::__ndk1::__unordered_map_hasher<std::__ndk1::basic_string<char, std::__ndk1::char_traits<char>, std::__ndk1::allocator<char> >, std::__ndk1::__hash_value_type<std::__ndk1::basic_string<char, std::__ndk1::char_traits<char>, std::__ndk1::allocator<char> >, int>, std::__ndk1::hash<std::__ndk1::basic_string<char, std::__ndk1::char_traits<char>, std::__ndk1::allocator<char> > >, std::__ndk1::equal_to<std::__ndk1::basic_string<char, std::__ndk1::char_traits<char>, std::__ndk1::allocator<char> > >, true>, std::__ndk1::__unordered_map_equal<std::__ndk1::basic_string<char, std::__ndk1::char_traits<char>, std::__ndk1::allocator<char> >, std::__ndk1::__hash_value_type<std::__ndk1::basic_string<char, std::__ndk1::char_traits<char>, std::__ndk1::allocator<char> >, int>, std::__ndk1::equal_to<std::__ndk1::basic_string<char, std::__ndk1::char_traits<char>, std::__ndk1::allocator<char> > >, std::__ndk1::hash<std::__ndk1::basic_string<char, std::__ndk1::char_traits<char>, std::__ndk1::allocator<char> > >, true>, std::__ndk1::allocator<std::__ndk1::__hash_value_type<std::__ndk1::basic_string<char, std::__ndk1::char_traits<char>, std::__ndk1::allocator<char> >, int> > >::~__hash_table()
PUBLIC 39f78 0 std::__ndk1::__hash_table<std::__ndk1::__hash_value_type<std::__ndk1::basic_string<char, std::__ndk1::char_traits<char>, std::__ndk1::allocator<char> >, int>, std::__ndk1::__unordered_map_hasher<std::__ndk1::basic_string<char, std::__ndk1::char_traits<char>, std::__ndk1::allocator<char> >, std::__ndk1::__hash_value_type<std::__ndk1::basic_string<char, std::__ndk1::char_traits<char>, std::__ndk1::allocator<char> >, int>, std::__ndk1::hash<std::__ndk1::basic_string<char, std::__ndk1::char_traits<char>, std::__ndk1::allocator<char> > >, std::__ndk1::equal_to<std::__ndk1::basic_string<char, std::__ndk1::char_traits<char>, std::__ndk1::allocator<char> > >, true>, std::__ndk1::__unordered_map_equal<std::__ndk1::basic_string<char, std::__ndk1::char_traits<char>, std::__ndk1::allocator<char> >, std::__ndk1::__hash_value_type<std::__ndk1::basic_string<char, std::__ndk1::char_traits<char>, std::__ndk1::allocator<char> >, int>, std::__ndk1::equal_to<std::__ndk1::basic_string<char, std::__ndk1::char_traits<char>, std::__ndk1::allocator<char> > >, std::__ndk1::hash<std::__ndk1::basic_string<char, std::__ndk1::char_traits<char>, std::__ndk1::allocator<char> > >, true>, std::__ndk1::allocator<std::__ndk1::__hash_value_type<std::__ndk1::basic_string<char, std::__ndk1::char_traits<char>, std::__ndk1::allocator<char> >, int> > >::__emplace_unique_key_args<std::__ndk1::basic_string<char, std::__ndk1::char_traits<char>, std::__ndk1::allocator<char> >, std::__ndk1::pair<std::__ndk1::basic_string<char, std::__ndk1::char_traits<char>, std::__ndk1::allocator<char> > const, int> const&>(std::__ndk1::basic_string<char, std::__ndk1::char_traits<char>, std::__ndk1::allocator<char> > const&, std::__ndk1::pair<std::__ndk1::basic_string<char, std::__ndk1::char_traits<char>, std::__ndk1::allocator<char> > const, int> const&)
PUBLIC 3a438 0 std::__ndk1::unique_ptr<std::__ndk1::__hash_node<std::__ndk1::__hash_value_type<std::__ndk1::basic_string<char, std::__ndk1::char_traits<char>, std::__ndk1::allocator<char> >, int>, void*>, std::__ndk1::__hash_node_destructor<std::__ndk1::allocator<std::__ndk1::__hash_node<std::__ndk1::__hash_value_type<std::__ndk1::basic_string<char, std::__ndk1::char_traits<char>, std::__ndk1::allocator<char> >, int>, void*> > > >::~unique_ptr[abi:ne180000]()
PUBLIC 3a488 0 std::__ndk1::__murmur2_or_cityhash<unsigned long, (unsigned long)64>::operator()[abi:ne180000](void const*, unsigned long) const
PUBLIC 3a8d4 0 std::__ndk1::basic_string<char, std::__ndk1::char_traits<char>, std::__ndk1::allocator<char> >::__init_copy_ctor_external(char const*, unsigned long)
PUBLIC 3a954 0 std::__ndk1::__hash_table<std::__ndk1::__hash_value_type<std::__ndk1::basic_string<char, std::__ndk1::char_traits<char>, std::__ndk1::allocator<char> >, int>, std::__ndk1::__unordered_map_hasher<std::__ndk1::basic_string<char, std::__ndk1::char_traits<char>, std::__ndk1::allocator<char> >, std::__ndk1::__hash_value_type<std::__ndk1::basic_string<char, std::__ndk1::char_traits<char>, std::__ndk1::allocator<char> >, int>, std::__ndk1::hash<std::__ndk1::basic_string<char, std::__ndk1::char_traits<char>, std::__ndk1::allocator<char> > >, std::__ndk1::equal_to<std::__ndk1::basic_string<char, std::__ndk1::char_traits<char>, std::__ndk1::allocator<char> > >, true>, std::__ndk1::__unordered_map_equal<std::__ndk1::basic_string<char, std::__ndk1::char_traits<char>, std::__ndk1::allocator<char> >, std::__ndk1::__hash_value_type<std::__ndk1::basic_string<char, std::__ndk1::char_traits<char>, std::__ndk1::allocator<char> >, int>, std::__ndk1::equal_to<std::__ndk1::basic_string<char, std::__ndk1::char_traits<char>, std::__ndk1::allocator<char> > >, std::__ndk1::hash<std::__ndk1::basic_string<char, std::__ndk1::char_traits<char>, std::__ndk1::allocator<char> > >, true>, std::__ndk1::allocator<std::__ndk1::__hash_value_type<std::__ndk1::basic_string<char, std::__ndk1::char_traits<char>, std::__ndk1::allocator<char> >, int> > >::__do_rehash<true>(unsigned long)
PUBLIC 3ab00 0 geode::Popup<int, std::__ndk1::function<void (int)> const&>::initBase(float, float, int, std::__ndk1::function<void (int)> const&, char const*, cocos2d::CCRect, bool)
PUBLIC 3ae04 0 std::__ndk1::__function::__base<void (CCMenuItemSpriteExtra*)>::~__base()
PUBLIC 3ae08 0 std::__ndk1::__function::__func<FRDIBPopup::setup(int, std::__ndk1::function<void (int)> const&)::$_1, std::__ndk1::allocator<FRDIBPopup::setup(int, std::__ndk1::function<void (int)> const&)::$_1>, void (CCMenuItemSpriteExtra*)>::~__func()
PUBLIC 3ae0c 0 std::__ndk1::__function::__func<FRDIBPopup::setup(int, std::__ndk1::function<void (int)> const&)::$_1, std::__ndk1::allocator<FRDIBPopup::setup(int, std::__ndk1::function<void (int)> const&)::$_1>, void (CCMenuItemSpriteExtra*)>::__clone() const
PUBLIC 3ae44 0 std::__ndk1::__function::__func<FRDIBPopup::setup(int, std::__ndk1::function<void (int)> const&)::$_1, std::__ndk1::allocator<FRDIBPopup::setup(int, std::__ndk1::function<void (int)> const&)::$_1>, void (CCMenuItemSpriteExtra*)>::__clone(std::__ndk1::__function::__base<void (CCMenuItemSpriteExtra*)>*) const
PUBLIC 3ae5c 0 std::__ndk1::__function::__func<FRDIBPopup::setup(int, std::__ndk1::function<void (int)> const&)::$_1, std::__ndk1::allocator<FRDIBPopup::setup(int, std::__ndk1::function<void (int)> const&)::$_1>, void (CCMenuItemSpriteExtra*)>::destroy()
PUBLIC 3ae60 0 std::__ndk1::__function::__func<FRDIBPopup::setup(int, std::__ndk1::function<void (int)> const&)::$_1, std::__ndk1::allocator<FRDIBPopup::setup(int, std::__ndk1::function<void (int)> const&)::$_1>, void (CCMenuItemSpriteExtra*)>::destroy_deallocate()
PUBLIC 3ae64 0 std::__ndk1::__function::__func<FRDIBPopup::setup(int, std::__ndk1::function<void (int)> const&)::$_1, std::__ndk1::allocator<FRDIBPopup::setup(int, std::__ndk1::function<void (int)> const&)::$_1>, void (CCMenuItemSpriteExtra*)>::operator()(CCMenuItemSpriteExtra*&&)
PUBLIC 3af0c 0 std::__ndk1::__function::__func<FRDIBPopup::setup(int, std::__ndk1::function<void (int)> const&)::$_1, std::__ndk1::allocator<FRDIBPopup::setup(int, std::__ndk1::function<void (int)> const&)::$_1>, void (CCMenuItemSpriteExtra*)>::target(std::type_info const&) const
PUBLIC 3af28 0 std::__ndk1::__function::__func<FRDIBPopup::setup(int, std::__ndk1::function<void (int)> const&)::$_1, std::__ndk1::allocator<FRDIBPopup::setup(int, std::__ndk1::function<void (int)> const&)::$_1>, void (CCMenuItemSpriteExtra*)>::target_type() const
PUBLIC 3af34 0 geode::Popup<int, std::__ndk1::function<void (int)> const&>::CloseEvent::~CloseEvent()
PUBLIC 3af94 0 geode::Popup<int, std::__ndk1::function<void (int)> const&>::CloseEvent::~CloseEvent()
PUBLIC 3b004 0 std::__ndk1::__shared_ptr_emplace<geode::Popup<int, std::__ndk1::function<void (int)> const&>::CloseEvent::Impl, std::__ndk1::allocator<geode::Popup<int, std::__ndk1::function<void (int)> const&>::CloseEvent::Impl> >::~__shared_ptr_emplace()
PUBLIC 3b014 0 std::__ndk1::__shared_ptr_emplace<geode::Popup<int, std::__ndk1::function<void (int)> const&>::CloseEvent::Impl, std::__ndk1::allocator<geode::Popup<int, std::__ndk1::function<void (int)> const&>::CloseEvent::Impl> >::~__shared_ptr_emplace()
PUBLIC 3b044 0 std::__ndk1::__shared_ptr_emplace<geode::Popup<int, std::__ndk1::function<void (int)> const&>::CloseEvent::Impl, std::__ndk1::allocator<geode::Popup<int, std::__ndk1::function<void (int)> const&>::CloseEvent::Impl> >::__on_zero_shared()
PUBLIC 3b048 0 std::__ndk1::__shared_ptr_emplace<geode::Popup<int, std::__ndk1::function<void (int)> const&>::CloseEvent::Impl, std::__ndk1::allocator<geode::Popup<int, std::__ndk1::function<void (int)> const&>::CloseEvent::Impl> >::__on_zero_shared_weak()
PUBLIC 3b04c 0 std::__ndk1::__function::__func<FRDIBPopup::setup(int, std::__ndk1::function<void (int)> const&)::$_0, std::__ndk1::allocator<FRDIBPopup::setup(int, std::__ndk1::function<void (int)> const&)::$_0>, void (CCMenuItemSpriteExtra*)>::~__func()
PUBLIC 3b098 0 std::__ndk1::__function::__func<FRDIBPopup::setup(int, std::__ndk1::function<void (int)> const&)::$_0, std::__ndk1::allocator<FRDIBPopup::setup(int, std::__ndk1::function<void (int)> const&)::$_0>, void (CCMenuItemSpriteExtra*)>::~__func()
PUBLIC 3b0f4 0 std::__ndk1::__function::__func<FRDIBPopup::setup(int, std::__ndk1::function<void (int)> const&)::$_0, std::__ndk1::allocator<FRDIBPopup::setup(int, std::__ndk1::function<void (int)> const&)::$_0>, void (CCMenuItemSpriteExtra*)>::__clone() const
PUBLIC 3b190 0 std::__ndk1::__function::__func<FRDIBPopup::setup(int, std::__ndk1::function<void (int)> const&)::$_0, std::__ndk1::allocator<FRDIBPopup::setup(int, std::__ndk1::function<void (int)> const&)::$_0>, void (CCMenuItemSpriteExtra*)>::__clone(std::__ndk1::__function::__base<void (CCMenuItemSpriteExtra*)>*) const
PUBLIC 3b218 0 std::__ndk1::__function::__func<FRDIBPopup::setup(int, std::__ndk1::function<void (int)> const&)::$_0, std::__ndk1::allocator<FRDIBPopup::setup(int, std::__ndk1::function<void (int)> const&)::$_0>, void (CCMenuItemSpriteExtra*)>::destroy()
PUBLIC 3b258 0 std::__ndk1::__function::__func<FRDIBPopup::setup(int, std::__ndk1::function<void (int)> const&)::$_0, std::__ndk1::allocator<FRDIBPopup::setup(int, std::__ndk1::function<void (int)> const&)::$_0>, void (CCMenuItemSpriteExtra*)>::destroy_deallocate()
PUBLIC 3b2a8 0 std::__ndk1::__function::__func<FRDIBPopup::setup(int, std::__ndk1::function<void (int)> const&)::$_0, std::__ndk1::allocator<FRDIBPopup::setup(int, std::__ndk1::function<void (int)> const&)::$_0>, void (CCMenuItemSpriteExtra*)>::operator()(CCMenuItemSpriteExtra*&&)
PUBLIC 3b334 0 std::__ndk1::__function::__func<FRDIBPopup::setup(int, std::__ndk1::function<void (int)> const&)::$_0, std::__ndk1::allocator<FRDIBPopup::setup(int, std::__ndk1::function<void (int)> const&)::$_0>, void (CCMenuItemSpriteExtra*)>::target(std::type_info const&) const
PUBLIC 3b350 0 std::__ndk1::__function::__func<FRDIBPopup::setup(int, std::__ndk1::function<void (int)> const&)::$_0, std::__ndk1::allocator<FRDIBPopup::setup(int, std::__ndk1::function<void (int)> const&)::$_0>, void (CCMenuItemSpriteExtra*)>::target_type() const
PUBLIC 3b360 0 __aarch64_ldadd8_relax
PUBLIC 3b390 0 FREditPopup::create(GJGameLevel*, FakeRateSaveData const&, std::__ndk1::function<void (FakeRateSaveData, bool)> const&)
PUBLIC 3b51c 0 FREditPopup::setup(GJGameLevel*, FakeRateSaveData const&, std::__ndk1::function<void (FakeRateSaveData, bool)> const&)
PUBLIC 3d024 0 geode::Mod::getSettingValue<bool>(std::__ndk1::basic_string_view<char, std::__ndk1::char_traits<char> >) const
PUBLIC 3d158 0 FREditPopup::updateLabels()
PUBLIC 3df5c 0 geode::cocos::CCArrayExt<cocos2d::CCSprite*, cocos2d::CCSprite>::~CCArrayExt()
PUBLIC 3df78 0 geode::Mod::getSavedValue<bool>(std::__ndk1::basic_string_view<char, std::__ndk1::char_traits<char> >, bool const&)
PUBLIC 3e164 0 FREditPopup::~FREditPopup()
PUBLIC 3e21c 0 {virtual override thunk({offset(-320)}, FREditPopup::~FREditPopup())}
PUBLIC 3e224 0 FREditPopup::~FREditPopup()
PUBLIC 3e248 0 {virtual override thunk({offset(-320)}, FREditPopup::~FREditPopup())}
PUBLIC 3e270 0 geode::Popup<GJGameLevel*, FakeRateSaveData const&, std::__ndk1::function<void (FakeRateSaveData, bool)> const&>::registerWithTouchDispatcher()
PUBLIC 3e29c 0 geode::Popup<GJGameLevel*, FakeRateSaveData const&, std::__ndk1::function<void (FakeRateSaveData, bool)> const&>::keyDown(cocos2d::enumKeyCodes)
PUBLIC 3e2c4 0 geode::Popup<GJGameLevel*, FakeRateSaveData const&, std::__ndk1::function<void (FakeRateSaveData, bool)> const&>::onClose(cocos2d::CCObject*)
PUBLIC 3e40c 0 {virtual override thunk({offset(-344)}, geode::Popup<GJGameLevel*, FakeRateSaveData const&, std::__ndk1::function<void (FakeRateSaveData, bool)> const&>::keyDown(cocos2d::enumKeyCodes))}
PUBLIC 3e438 0 geode::Popup<GJGameLevel*, FakeRateSaveData const&, std::__ndk1::function<void (FakeRateSaveData, bool)> const&>::~Popup()
PUBLIC 3e4a4 0 geode::Popup<GJGameLevel*, FakeRateSaveData const&, std::__ndk1::function<void (FakeRateSaveData, bool)> const&>::~Popup()
PUBLIC 3e4a8 0 {virtual override thunk({offset(-320)}, geode::Popup<GJGameLevel*, FakeRateSaveData const&, std::__ndk1::function<void (FakeRateSaveData, bool)> const&>::~Popup())}
PUBLIC 3e514 0 {virtual override thunk({offset(-320)}, geode::Popup<GJGameLevel*, FakeRateSaveData const&, std::__ndk1::function<void (FakeRateSaveData, bool)> const&>::~Popup())}
PUBLIC 3e518 0 geode::cocos::CCMenuItemExt::LambdaCallback<CCMenuItemToggler>::execute(cocos2d::CCNode*)
PUBLIC 3e588 0 geode::cocos::CCMenuItemExt::LambdaCallback<CCMenuItemToggler>::~LambdaCallback()
PUBLIC 3e5e4 0 geode::cocos::CCMenuItemExt::LambdaCallback<CCMenuItemToggler>::~LambdaCallback()
PUBLIC 3e648 0 geode::Popup<GJGameLevel*, FakeRateSaveData const&, std::__ndk1::function<void (FakeRateSaveData, bool)> const&>::initBase(float, float, GJGameLevel*, FakeRateSaveData const&, std::__ndk1::function<void (FakeRateSaveData, bool)> const&, char const*, cocos2d::CCRect, bool)
PUBLIC 3e954 0 geode::cast::traverseTypeinfoFor(void*, geode::cast::ClassTypeinfoType const*, char const*)
PUBLIC 3ea58 0 std::__ndk1::__function::__func<FREditPopup::setup(GJGameLevel*, FakeRateSaveData const&, std::__ndk1::function<void (FakeRateSaveData, bool)> const&)::$_0, std::__ndk1::allocator<FREditPopup::setup(GJGameLevel*, FakeRateSaveData const&, std::__ndk1::function<void (FakeRateSaveData, bool)> const&)::$_0>, void (CCMenuItemSpriteExtra*)>::~__func()
PUBLIC 3ea5c 0 std::__ndk1::__function::__func<FREditPopup::setup(GJGameLevel*, FakeRateSaveData const&, std::__ndk1::function<void (FakeRateSaveData, bool)> const&)::$_0, std::__ndk1::allocator<FREditPopup::setup(GJGameLevel*, FakeRateSaveData const&, std::__ndk1::function<void (FakeRateSaveData, bool)> const&)::$_0>, void (CCMenuItemSpriteExtra*)>::__clone() const
PUBLIC 3ea90 0 std::__ndk1::__function::__func<FREditPopup::setup(GJGameLevel*, FakeRateSaveData const&, std::__ndk1::function<void (FakeRateSaveData, bool)> const&)::$_0, std::__ndk1::allocator<FREditPopup::setup(GJGameLevel*, FakeRateSaveData const&, std::__ndk1::function<void (FakeRateSaveData, bool)> const&)::$_0>, void (CCMenuItemSpriteExtra*)>::__clone(std::__ndk1::__function::__base<void (CCMenuItemSpriteExtra*)>*) const
PUBLIC 3eaa4 0 std::__ndk1::__function::__func<FREditPopup::setup(GJGameLevel*, FakeRateSaveData const&, std::__ndk1::function<void (FakeRateSaveData, bool)> const&)::$_0, std::__ndk1::allocator<FREditPopup::setup(GJGameLevel*, FakeRateSaveData const&, std::__ndk1::function<void (FakeRateSaveData, bool)> const&)::$_0>, void (CCMenuItemSpriteExtra*)>::destroy()
PUBLIC 3eaa8 0 std::__ndk1::__function::__func<FREditPopup::setup(GJGameLevel*, FakeRateSaveData const&, std::__ndk1::function<void (FakeRateSaveData, bool)> const&)::$_0, std::__ndk1::allocator<FREditPopup::setup(GJGameLevel*, FakeRateSaveData const&, std::__ndk1::function<void (FakeRateSaveData, bool)> const&)::$_0>, void (CCMenuItemSpriteExtra*)>::destroy_deallocate()
PUBLIC 3eaac 0 std::__ndk1::__function::__func<FREditPopup::setup(GJGameLevel*, FakeRateSaveData const&, std::__ndk1::function<void (FakeRateSaveData, bool)> const&)::$_0, std::__ndk1::allocator<FREditPopup::setup(GJGameLevel*, FakeRateSaveData const&, std::__ndk1::function<void (FakeRateSaveData, bool)> const&)::$_0>, void (CCMenuItemSpriteExtra*)>::operator()(CCMenuItemSpriteExtra*&&)
PUBLIC 3ebb8 0 std::__ndk1::__function::__func<FREditPopup::setup(GJGameLevel*, FakeRateSaveData const&, std::__ndk1::function<void (FakeRateSaveData, bool)> const&)::$_0, std::__ndk1::allocator<FREditPopup::setup(GJGameLevel*, FakeRateSaveData const&, std::__ndk1::function<void (FakeRateSaveData, bool)> const&)::$_0>, void (CCMenuItemSpriteExtra*)>::target(std::type_info const&) const
PUBLIC 3ebd4 0 std::__ndk1::__function::__func<FREditPopup::setup(GJGameLevel*, FakeRateSaveData const&, std::__ndk1::function<void (FakeRateSaveData, bool)> const&)::$_0, std::__ndk1::allocator<FREditPopup::setup(GJGameLevel*, FakeRateSaveData const&, std::__ndk1::function<void (FakeRateSaveData, bool)> const&)::$_0>, void (CCMenuItemSpriteExtra*)>::target_type() const
PUBLIC 3ebe0 0 std::__ndk1::__function::__base<void (int, int, int, int, int)>::~__base()
PUBLIC 3ebe4 0 std::__ndk1::__function::__func<FREditPopup::setup(GJGameLevel*, FakeRateSaveData const&, std::__ndk1::function<void (FakeRateSaveData, bool)> const&)::$_0::operator()<CCMenuItemSpriteExtra*>(CCMenuItemSpriteExtra*) const::{lambda(int, int, int, int, int)#1}, std::__ndk1::allocator<FREditPopup::setup(GJGameLevel*, FakeRateSaveData const&, std::__ndk1::function<void (FakeRateSaveData, bool)> const&)::$_0::operator()<CCMenuItemSpriteExtra*>(CCMenuItemSpriteExtra*) const::{lambda(int, int, int, int, int)#1}>, void (int, int, int, int, int)>::~__func()
PUBLIC 3ebe8 0 std::__ndk1::__function::__func<FREditPopup::setup(GJGameLevel*, FakeRateSaveData const&, std::__ndk1::function<void (FakeRateSaveData, bool)> const&)::$_0::operator()<CCMenuItemSpriteExtra*>(CCMenuItemSpriteExtra*) const::{lambda(int, int, int, int, int)#1}, std::__ndk1::allocator<FREditPopup::setup(GJGameLevel*, FakeRateSaveData const&, std::__ndk1::function<void (FakeRateSaveData, bool)> const&)::$_0::operator()<CCMenuItemSpriteExtra*>(CCMenuItemSpriteExtra*) const::{lambda(int, int, int, int, int)#1}>, void (int, int, int, int, int)>::__clone() const
PUBLIC 3ec1c 0 std::__ndk1::__function::__func<FREditPopup::setup(GJGameLevel*, FakeRateSaveData const&, std::__ndk1::function<void (FakeRateSaveData, bool)> const&)::$_0::operator()<CCMenuItemSpriteExtra*>(CCMenuItemSpriteExtra*) const::{lambda(int, int, int, int, int)#1}, std::__ndk1::allocator<FREditPopup::setup(GJGameLevel*, FakeRateSaveData const&, std::__ndk1::function<void (FakeRateSaveData, bool)> const&)::$_0::operator()<CCMenuItemSpriteExtra*>(CCMenuItemSpriteExtra*) const::{lambda(int, int, int, int, int)#1}>, void (int, int, int, int, int)>::__clone(std::__ndk1::__function::__base<void (int, int, int, int, int)>*) const
PUBLIC 3ec30 0 std::__ndk1::__function::__func<FREditPopup::setup(GJGameLevel*, FakeRateSaveData const&, std::__ndk1::function<void (FakeRateSaveData, bool)> const&)::$_0::operator()<CCMenuItemSpriteExtra*>(CCMenuItemSpriteExtra*) const::{lambda(int, int, int, int, int)#1}, std::__ndk1::allocator<FREditPopup::setup(GJGameLevel*, FakeRateSaveData const&, std::__ndk1::function<void (FakeRateSaveData, bool)> const&)::$_0::operator()<CCMenuItemSpriteExtra*>(CCMenuItemSpriteExtra*) const::{lambda(int, int, int, int, int)#1}>, void (int, int, int, int, int)>::destroy()
PUBLIC 3ec34 0 std::__ndk1::__function::__func<FREditPopup::setup(GJGameLevel*, FakeRateSaveData const&, std::__ndk1::function<void (FakeRateSaveData, bool)> const&)::$_0::operator()<CCMenuItemSpriteExtra*>(CCMenuItemSpriteExtra*) const::{lambda(int, int, int, int, int)#1}, std::__ndk1::allocator<FREditPopup::setup(GJGameLevel*, FakeRateSaveData const&, std::__ndk1::function<void (FakeRateSaveData, bool)> const&)::$_0::operator()<CCMenuItemSpriteExtra*>(CCMenuItemSpriteExtra*) const::{lambda(int, int, int, int, int)#1}>, void (int, int, int, int, int)>::destroy_deallocate()
PUBLIC 3ec38 0 std::__ndk1::__function::__func<FREditPopup::setup(GJGameLevel*, FakeRateSaveData const&, std::__ndk1::function<void (FakeRateSaveData, bool)> const&)::$_0::operator()<CCMenuItemSpriteExtra*>(CCMenuItemSpriteExtra*) const::{lambda(int, int, int, int, int)#1}, std::__ndk1::allocator<FREditPopup::setup(GJGameLevel*, FakeRateSaveData const&, std::__ndk1::function<void (FakeRateSaveData, bool)> const&)::$_0::operator()<CCMenuItemSpriteExtra*>(CCMenuItemSpriteExtra*) const::{lambda(int, int, int, int, int)#1}>, void (int, int, int, int, int)>::operator()(int&&, int&&, int&&, int&&, int&&)
PUBLIC 3ec68 0 std::__ndk1::__function::__func<FREditPopup::setup(GJGameLevel*, FakeRateSaveData const&, std::__ndk1::function<void (FakeRateSaveData, bool)> const&)::$_0::operator()<CCMenuItemSpriteExtra*>(CCMenuItemSpriteExtra*) const::{lambda(int, int, int, int, int)#1}, std::__ndk1::allocator<FREditPopup::setup(GJGameLevel*, FakeRateSaveData const&, std::__ndk1::function<void (FakeRateSaveData, bool)> const&)::$_0::operator()<CCMenuItemSpriteExtra*>(CCMenuItemSpriteExtra*) const::{lambda(int, int, int, int, int)#1}>, void (int, int, int, int, int)>::target(std::type_info const&) const
PUBLIC 3ec84 0 std::__ndk1::__function::__func<FREditPopup::setup(GJGameLevel*, FakeRateSaveData const&, std::__ndk1::function<void (FakeRateSaveData, bool)> const&)::$_0::operator()<CCMenuItemSpriteExtra*>(CCMenuItemSpriteExtra*) const::{lambda(int, int, int, int, int)#1}, std::__ndk1::allocator<FREditPopup::setup(GJGameLevel*, FakeRateSaveData const&, std::__ndk1::function<void (FakeRateSaveData, bool)> const&)::$_0::operator()<CCMenuItemSpriteExtra*>(CCMenuItemSpriteExtra*) const::{lambda(int, int, int, int, int)#1}>, void (int, int, int, int, int)>::target_type() const
PUBLIC 3ec90 0 std::__ndk1::__function::__func<FREditPopup::setup(GJGameLevel*, FakeRateSaveData const&, std::__ndk1::function<void (FakeRateSaveData, bool)> const&)::$_1, std::__ndk1::allocator<FREditPopup::setup(GJGameLevel*, FakeRateSaveData const&, std::__ndk1::function<void (FakeRateSaveData, bool)> const&)::$_1>, void (CCMenuItemSpriteExtra*)>::~__func()
PUBLIC 3ec94 0 std::__ndk1::__function::__func<FREditPopup::setup(GJGameLevel*, FakeRateSaveData const&, std::__ndk1::function<void (FakeRateSaveData, bool)> const&)::$_1, std::__ndk1::allocator<FREditPopup::setup(GJGameLevel*, FakeRateSaveData const&, std::__ndk1::function<void (FakeRateSaveData, bool)> const&)::$_1>, void (CCMenuItemSpriteExtra*)>::__clone() const
PUBLIC 3ecc8 0 std::__ndk1::__function::__func<FREditPopup::setup(GJGameLevel*, FakeRateSaveData const&, std::__ndk1::function<void (FakeRateSaveData, bool)> const&)::$_1, std::__ndk1::allocator<FREditPopup::setup(GJGameLevel*, FakeRateSaveData const&, std::__ndk1::function<void (FakeRateSaveData, bool)> const&)::$_1>, void (CCMenuItemSpriteExtra*)>::__clone(std::__ndk1::__function::__base<void (CCMenuItemSpriteExtra*)>*) const
PUBLIC 3ecdc 0 std::__ndk1::__function::__func<FREditPopup::setup(GJGameLevel*, FakeRateSaveData const&, std::__ndk1::function<void (FakeRateSaveData, bool)> const&)::$_1, std::__ndk1::allocator<FREditPopup::setup(GJGameLevel*, FakeRateSaveData const&, std::__ndk1::function<void (FakeRateSaveData, bool)> const&)::$_1>, void (CCMenuItemSpriteExtra*)>::destroy()
PUBLIC 3ece0 0 std::__ndk1::__function::__func<FREditPopup::setup(GJGameLevel*, FakeRateSaveData const&, std::__ndk1::function<void (FakeRateSaveData, bool)> const&)::$_1, std::__ndk1::allocator<FREditPopup::setup(GJGameLevel*, FakeRateSaveData const&, std::__ndk1::function<void (FakeRateSaveData, bool)> const&)::$_1>, void (CCMenuItemSpriteExtra*)>::destroy_deallocate()
PUBLIC 3ece4 0 std::__ndk1::__function::__func<FREditPopup::setup(GJGameLevel*, FakeRateSaveData const&, std::__ndk1::function<void (FakeRateSaveData, bool)> const&)::$_1, std::__ndk1::allocator<FREditPopup::setup(GJGameLevel*, FakeRateSaveData const&, std::__ndk1::function<void (FakeRateSaveData, bool)> const&)::$_1>, void (CCMenuItemSpriteExtra*)>::operator()(CCMenuItemSpriteExtra*&&)
PUBLIC 3ede0 0 std::__ndk1::__function::__func<FREditPopup::setup(GJGameLevel*, FakeRateSaveData const&, std::__ndk1::function<void (FakeRateSaveData, bool)> const&)::$_1, std::__ndk1::allocator<FREditPopup::setup(GJGameLevel*, FakeRateSaveData const&, std::__ndk1::function<void (FakeRateSaveData, bool)> const&)::$_1>, void (CCMenuItemSpriteExtra*)>::target(std::type_info const&) const
PUBLIC 3edfc 0 std::__ndk1::__function::__func<FREditPopup::setup(GJGameLevel*, FakeRateSaveData const&, std::__ndk1::function<void (FakeRateSaveData, bool)> const&)::$_1, std::__ndk1::allocator<FREditPopup::setup(GJGameLevel*, FakeRateSaveData const&, std::__ndk1::function<void (FakeRateSaveData, bool)> const&)::$_1>, void (CCMenuItemSpriteExtra*)>::target_type() const
PUBLIC 3ee08 0 std::__ndk1::__function::__func<FREditPopup::setup(GJGameLevel*, FakeRateSaveData const&, std::__ndk1::function<void (FakeRateSaveData, bool)> const&)::$_1::operator()<CCMenuItemSpriteExtra*>(CCMenuItemSpriteExtra*) const::{lambda(int)#1}, std::__ndk1::allocator<FREditPopup::setup(GJGameLevel*, FakeRateSaveData const&, std::__ndk1::function<void (FakeRateSaveData, bool)> const&)::$_1::operator()<CCMenuItemSpriteExtra*>(CCMenuItemSpriteExtra*) const::{lambda(int)#1}>, void (int)>::~__func()
PUBLIC 3ee0c 0 std::__ndk1::__function::__func<FREditPopup::setup(GJGameLevel*, FakeRateSaveData const&, std::__ndk1::function<void (FakeRateSaveData, bool)> const&)::$_1::operator()<CCMenuItemSpriteExtra*>(CCMenuItemSpriteExtra*) const::{lambda(int)#1}, std::__ndk1::allocator<FREditPopup::setup(GJGameLevel*, FakeRateSaveData const&, std::__ndk1::function<void (FakeRateSaveData, bool)> const&)::$_1::operator()<CCMenuItemSpriteExtra*>(CCMenuItemSpriteExtra*) const::{lambda(int)#1}>, void (int)>::__clone() const
PUBLIC 3ee40 0 std::__ndk1::__function::__func<FREditPopup::setup(GJGameLevel*, FakeRateSaveData const&, std::__ndk1::function<void (FakeRateSaveData, bool)> const&)::$_1::operator()<CCMenuItemSpriteExtra*>(CCMenuItemSpriteExtra*) const::{lambda(int)#1}, std::__ndk1::allocator<FREditPopup::setup(GJGameLevel*, FakeRateSaveData const&, std::__ndk1::function<void (FakeRateSaveData, bool)> const&)::$_1::operator()<CCMenuItemSpriteExtra*>(CCMenuItemSpriteExtra*) const::{lambda(int)#1}>, void (int)>::__clone(std::__ndk1::__function::__base<void (int)>*) const
PUBLIC 3ee54 0 std::__ndk1::__function::__func<FREditPopup::setup(GJGameLevel*, FakeRateSaveData const&, std::__ndk1::function<void (FakeRateSaveData, bool)> const&)::$_1::operator()<CCMenuItemSpriteExtra*>(CCMenuItemSpriteExtra*) const::{lambda(int)#1}, std::__ndk1::allocator<FREditPopup::setup(GJGameLevel*, FakeRateSaveData const&, std::__ndk1::function<void (FakeRateSaveData, bool)> const&)::$_1::operator()<CCMenuItemSpriteExtra*>(CCMenuItemSpriteExtra*) const::{lambda(int)#1}>, void (int)>::destroy()
PUBLIC 3ee58 0 std::__ndk1::__function::__func<FREditPopup::setup(GJGameLevel*, FakeRateSaveData const&, std::__ndk1::function<void (FakeRateSaveData, bool)> const&)::$_1::operator()<CCMenuItemSpriteExtra*>(CCMenuItemSpriteExtra*) const::{lambda(int)#1}, std::__ndk1::allocator<FREditPopup::setup(GJGameLevel*, FakeRateSaveData const&, std::__ndk1::function<void (FakeRateSaveData, bool)> const&)::$_1::operator()<CCMenuItemSpriteExtra*>(CCMenuItemSpriteExtra*) const::{lambda(int)#1}>, void (int)>::destroy_deallocate()
PUBLIC 3ee5c 0 std::__ndk1::__function::__func<FREditPopup::setup(GJGameLevel*, FakeRateSaveData const&, std::__ndk1::function<void (FakeRateSaveData, bool)> const&)::$_1::operator()<CCMenuItemSpriteExtra*>(CCMenuItemSpriteExtra*) const::{lambda(int)#1}, std::__ndk1::allocator<FREditPopup::setup(GJGameLevel*, FakeRateSaveData const&, std::__ndk1::function<void (FakeRateSaveData, bool)> const&)::$_1::operator()<CCMenuItemSpriteExtra*>(CCMenuItemSpriteExtra*) const::{lambda(int)#1}>, void (int)>::operator()(int&&)
PUBLIC 3ee6c 0 std::__ndk1::__function::__func<FREditPopup::setup(GJGameLevel*, FakeRateSaveData const&, std::__ndk1::function<void (FakeRateSaveData, bool)> const&)::$_1::operator()<CCMenuItemSpriteExtra*>(CCMenuItemSpriteExtra*) const::{lambda(int)#1}, std::__ndk1::allocator<FREditPopup::setup(GJGameLevel*, FakeRateSaveData const&, std::__ndk1::function<void (FakeRateSaveData, bool)> const&)::$_1::operator()<CCMenuItemSpriteExtra*>(CCMenuItemSpriteExtra*) const::{lambda(int)#1}>, void (int)>::target(std::type_info const&) const
PUBLIC 3ee88 0 std::__ndk1::__function::__func<FREditPopup::setup(GJGameLevel*, FakeRateSaveData const&, std::__ndk1::function<void (FakeRateSaveData, bool)> const&)::$_1::operator()<CCMenuItemSpriteExtra*>(CCMenuItemSpriteExtra*) const::{lambda(int)#1}, std::__ndk1::allocator<FREditPopup::setup(GJGameLevel*, FakeRateSaveData const&, std::__ndk1::function<void (FakeRateSaveData, bool)> const&)::$_1::operator()<CCMenuItemSpriteExtra*>(CCMenuItemSpriteExtra*) const::{lambda(int)#1}>, void (int)>::target_type() const
PUBLIC 3ee94 0 std::__ndk1::__function::__func<FREditPopup::setup(GJGameLevel*, FakeRateSaveData const&, std::__ndk1::function<void (FakeRateSaveData, bool)> const&)::$_2, std::__ndk1::allocator<FREditPopup::setup(GJGameLevel*, FakeRateSaveData const&, std::__ndk1::function<void (FakeRateSaveData, bool)> const&)::$_2>, void (CCMenuItemSpriteExtra*)>::~__func()
PUBLIC 3ee98 0 std::__ndk1::__function::__func<FREditPopup::setup(GJGameLevel*, FakeRateSaveData const&, std::__ndk1::function<void (FakeRateSaveData, bool)> const&)::$_2, std::__ndk1::allocator<FREditPopup::setup(GJGameLevel*, FakeRateSaveData const&, std::__ndk1::function<void (FakeRateSaveData, bool)> const&)::$_2>, void (CCMenuItemSpriteExtra*)>::__clone() const
PUBLIC 3eecc 0 std::__ndk1::__function::__func<FREditPopup::setup(GJGameLevel*, FakeRateSaveData const&, std::__ndk1::function<void (FakeRateSaveData, bool)> const&)::$_2, std::__ndk1::allocator<FREditPopup::setup(GJGameLevel*, FakeRateSaveData const&, std::__ndk1::function<void (FakeRateSaveData, bool)> const&)::$_2>, void (CCMenuItemSpriteExtra*)>::__clone(std::__ndk1::__function::__base<void (CCMenuItemSpriteExtra*)>*) const
PUBLIC 3eee0 0 std::__ndk1::__function::__func<FREditPopup::setup(GJGameLevel*, FakeRateSaveData const&, std::__ndk1::function<void (FakeRateSaveData, bool)> const&)::$_2, std::__ndk1::allocator<FREditPopup::setup(GJGameLevel*, FakeRateSaveData const&, std::__ndk1::function<void (FakeRateSaveData, bool)> const&)::$_2>, void (CCMenuItemSpriteExtra*)>::destroy()
PUBLIC 3eee4 0 std::__ndk1::__function::__func<FREditPopup::setup(GJGameLevel*, FakeRateSaveData const&, std::__ndk1::function<void (FakeRateSaveData, bool)> const&)::$_2, std::__ndk1::allocator<FREditPopup::setup(GJGameLevel*, FakeRateSaveData const&, std::__ndk1::function<void (FakeRateSaveData, bool)> const&)::$_2>, void (CCMenuItemSpriteExtra*)>::destroy_deallocate()
PUBLIC 3eee8 0 std::__ndk1::__function::__func<FREditPopup::setup(GJGameLevel*, FakeRateSaveData const&, std::__ndk1::function<void (FakeRateSaveData, bool)> const&)::$_2, std::__ndk1::allocator<FREditPopup::setup(GJGameLevel*, FakeRateSaveData const&, std::__ndk1::function<void (FakeRateSaveData, bool)> const&)::$_2>, void (CCMenuItemSpriteExtra*)>::operator()(CCMenuItemSpriteExtra*&&)
PUBLIC 3eff4 0 std::__ndk1::__function::__func<FREditPopup::setup(GJGameLevel*, FakeRateSaveData const&, std::__ndk1::function<void (FakeRateSaveData, bool)> const&)::$_2, std::__ndk1::allocator<FREditPopup::setup(GJGameLevel*, FakeRateSaveData const&, std::__ndk1::function<void (FakeRateSaveData, bool)> const&)::$_2>, void (CCMenuItemSpriteExtra*)>::target(std::type_info const&) const
PUBLIC 3f010 0 std::__ndk1::__function::__func<FREditPopup::setup(GJGameLevel*, FakeRateSaveData const&, std::__ndk1::function<void (FakeRateSaveData, bool)> const&)::$_2, std::__ndk1::allocator<FREditPopup::setup(GJGameLevel*, FakeRateSaveData const&, std::__ndk1::function<void (FakeRateSaveData, bool)> const&)::$_2>, void (CCMenuItemSpriteExtra*)>::target_type() const
PUBLIC 3f01c 0 std::__ndk1::__function::__base<void (int)>::~__base()
PUBLIC 3f020 0 std::__ndk1::__function::__func<FREditPopup::setup(GJGameLevel*, FakeRateSaveData const&, std::__ndk1::function<void (FakeRateSaveData, bool)> const&)::$_2::operator()<CCMenuItemSpriteExtra*>(CCMenuItemSpriteExtra*) const::{lambda(int)#1}, std::__ndk1::allocator<FREditPopup::setup(GJGameLevel*, FakeRateSaveData const&, std::__ndk1::function<void (FakeRateSaveData, bool)> const&)::$_2::operator()<CCMenuItemSpriteExtra*>(CCMenuItemSpriteExtra*) const::{lambda(int)#1}>, void (int)>::~__func()
PUBLIC 3f024 0 std::__ndk1::__function::__func<FREditPopup::setup(GJGameLevel*, FakeRateSaveData const&, std::__ndk1::function<void (FakeRateSaveData, bool)> const&)::$_2::operator()<CCMenuItemSpriteExtra*>(CCMenuItemSpriteExtra*) const::{lambda(int)#1}, std::__ndk1::allocator<FREditPopup::setup(GJGameLevel*, FakeRateSaveData const&, std::__ndk1::function<void (FakeRateSaveData, bool)> const&)::$_2::operator()<CCMenuItemSpriteExtra*>(CCMenuItemSpriteExtra*) const::{lambda(int)#1}>, void (int)>::__clone() const
PUBLIC 3f058 0 std::__ndk1::__function::__func<FREditPopup::setup(GJGameLevel*, FakeRateSaveData const&, std::__ndk1::function<void (FakeRateSaveData, bool)> const&)::$_2::operator()<CCMenuItemSpriteExtra*>(CCMenuItemSpriteExtra*) const::{lambda(int)#1}, std::__ndk1::allocator<FREditPopup::setup(GJGameLevel*, FakeRateSaveData const&, std::__ndk1::function<void (FakeRateSaveData, bool)> const&)::$_2::operator()<CCMenuItemSpriteExtra*>(CCMenuItemSpriteExtra*) const::{lambda(int)#1}>, void (int)>::__clone(std::__ndk1::__function::__base<void (int)>*) const
PUBLIC 3f06c 0 std::__ndk1::__function::__func<FREditPopup::setup(GJGameLevel*, FakeRateSaveData const&, std::__ndk1::function<void (FakeRateSaveData, bool)> const&)::$_2::operator()<CCMenuItemSpriteExtra*>(CCMenuItemSpriteExtra*) const::{lambda(int)#1}, std::__ndk1::allocator<FREditPopup::setup(GJGameLevel*, FakeRateSaveData const&, std::__ndk1::function<void (FakeRateSaveData, bool)> const&)::$_2::operator()<CCMenuItemSpriteExtra*>(CCMenuItemSpriteExtra*) const::{lambda(int)#1}>, void (int)>::destroy()
PUBLIC 3f070 0 std::__ndk1::__function::__func<FREditPopup::setup(GJGameLevel*, FakeRateSaveData const&, std::__ndk1::function<void (FakeRateSaveData, bool)> const&)::$_2::operator()<CCMenuItemSpriteExtra*>(CCMenuItemSpriteExtra*) const::{lambda(int)#1}, std::__ndk1::allocator<FREditPopup::setup(GJGameLevel*, FakeRateSaveData const&, std::__ndk1::function<void (FakeRateSaveData, bool)> const&)::$_2::operator()<CCMenuItemSpriteExtra*>(CCMenuItemSpriteExtra*) const::{lambda(int)#1}>, void (int)>::destroy_deallocate()
PUBLIC 3f074 0 std::__ndk1::__function::__func<FREditPopup::setup(GJGameLevel*, FakeRateSaveData const&, std::__ndk1::function<void (FakeRateSaveData, bool)> const&)::$_2::operator()<CCMenuItemSpriteExtra*>(CCMenuItemSpriteExtra*) const::{lambda(int)#1}, std::__ndk1::allocator<FREditPopup::setup(GJGameLevel*, FakeRateSaveData const&, std::__ndk1::function<void (FakeRateSaveData, bool)> const&)::$_2::operator()<CCMenuItemSpriteExtra*>(CCMenuItemSpriteExtra*) const::{lambda(int)#1}>, void (int)>::operator()(int&&)
PUBLIC 3f084 0 std::__ndk1::__function::__func<FREditPopup::setup(GJGameLevel*, FakeRateSaveData const&, std::__ndk1::function<void (FakeRateSaveData, bool)> const&)::$_2::operator()<CCMenuItemSpriteExtra*>(CCMenuItemSpriteExtra*) const::{lambda(int)#1}, std::__ndk1::allocator<FREditPopup::setup(GJGameLevel*, FakeRateSaveData const&, std::__ndk1::function<void (FakeRateSaveData, bool)> const&)::$_2::operator()<CCMenuItemSpriteExtra*>(CCMenuItemSpriteExtra*) const::{lambda(int)#1}>, void (int)>::target(std::type_info const&) const
PUBLIC 3f0a0 0 std::__ndk1::__function::__func<FREditPopup::setup(GJGameLevel*, FakeRateSaveData const&, std::__ndk1::function<void (FakeRateSaveData, bool)> const&)::$_2::operator()<CCMenuItemSpriteExtra*>(CCMenuItemSpriteExtra*) const::{lambda(int)#1}, std::__ndk1::allocator<FREditPopup::setup(GJGameLevel*, FakeRateSaveData const&, std::__ndk1::function<void (FakeRateSaveData, bool)> const&)::$_2::operator()<CCMenuItemSpriteExtra*>(CCMenuItemSpriteExtra*) const::{lambda(int)#1}>, void (int)>::target_type() const
PUBLIC 3f0ac 0 std::__ndk1::__function::__base<void (CCMenuItemToggler*)>::~__base()
PUBLIC 3f0b0 0 std::__ndk1::__function::__func<FREditPopup::setup(GJGameLevel*, FakeRateSaveData const&, std::__ndk1::function<void (FakeRateSaveData, bool)> const&)::$_3, std::__ndk1::allocator<FREditPopup::setup(GJGameLevel*, FakeRateSaveData const&, std::__ndk1::function<void (FakeRateSaveData, bool)> const&)::$_3>, void (CCMenuItemToggler*)>::~__func()
PUBLIC 3f0b4 0 std::__ndk1::__function::__func<FREditPopup::setup(GJGameLevel*, FakeRateSaveData const&, std::__ndk1::function<void (FakeRateSaveData, bool)> const&)::$_3, std::__ndk1::allocator<FREditPopup::setup(GJGameLevel*, FakeRateSaveData const&, std::__ndk1::function<void (FakeRateSaveData, bool)> const&)::$_3>, void (CCMenuItemToggler*)>::__clone() const
PUBLIC 3f0e8 0 std::__ndk1::__function::__func<FREditPopup::setup(GJGameLevel*, FakeRateSaveData const&, std::__ndk1::function<void (FakeRateSaveData, bool)> const&)::$_3, std::__ndk1::allocator<FREditPopup::setup(GJGameLevel*, FakeRateSaveData const&, std::__ndk1::function<void (FakeRateSaveData, bool)> const&)::$_3>, void (CCMenuItemToggler*)>::__clone(std::__ndk1::__function::__base<void (CCMenuItemToggler*)>*) const
PUBLIC 3f0fc 0 std::__ndk1::__function::__func<FREditPopup::setup(GJGameLevel*, FakeRateSaveData const&, std::__ndk1::function<void (FakeRateSaveData, bool)> const&)::$_3, std::__ndk1::allocator<FREditPopup::setup(GJGameLevel*, FakeRateSaveData const&, std::__ndk1::function<void (FakeRateSaveData, bool)> const&)::$_3>, void (CCMenuItemToggler*)>::destroy()
PUBLIC 3f100 0 std::__ndk1::__function::__func<FREditPopup::setup(GJGameLevel*, FakeRateSaveData const&, std::__ndk1::function<void (FakeRateSaveData, bool)> const&)::$_3, std::__ndk1::allocator<FREditPopup::setup(GJGameLevel*, FakeRateSaveData const&, std::__ndk1::function<void (FakeRateSaveData, bool)> const&)::$_3>, void (CCMenuItemToggler*)>::destroy_deallocate()
PUBLIC 3f104 0 std::__ndk1::__function::__func<FREditPopup::setup(GJGameLevel*, FakeRateSaveData const&, std::__ndk1::function<void (FakeRateSaveData, bool)> const&)::$_3, std::__ndk1::allocator<FREditPopup::setup(GJGameLevel*, FakeRateSaveData const&, std::__ndk1::function<void (FakeRateSaveData, bool)> const&)::$_3>, void (CCMenuItemToggler*)>::operator()(CCMenuItemToggler*&&)
PUBLIC 3f118 0 std::__ndk1::__function::__func<FREditPopup::setup(GJGameLevel*, FakeRateSaveData const&, std::__ndk1::function<void (FakeRateSaveData, bool)> const&)::$_3, std::__ndk1::allocator<FREditPopup::setup(GJGameLevel*, FakeRateSaveData const&, std::__ndk1::function<void (FakeRateSaveData, bool)> const&)::$_3>, void (CCMenuItemToggler*)>::target(std::type_info const&) const
PUBLIC 3f134 0 std::__ndk1::__function::__func<FREditPopup::setup(GJGameLevel*, FakeRateSaveData const&, std::__ndk1::function<void (FakeRateSaveData, bool)> const&)::$_3, std::__ndk1::allocator<FREditPopup::setup(GJGameLevel*, FakeRateSaveData const&, std::__ndk1::function<void (FakeRateSaveData, bool)> const&)::$_3>, void (CCMenuItemToggler*)>::target_type() const
PUBLIC 3f140 0 geode::Popup<GJGameLevel*, FakeRateSaveData const&, std::__ndk1::function<void (FakeRateSaveData, bool)> const&>::CloseEvent::~CloseEvent()
PUBLIC 3f1a0 0 geode::Popup<GJGameLevel*, FakeRateSaveData const&, std::__ndk1::function<void (FakeRateSaveData, bool)> const&>::CloseEvent::~CloseEvent()
PUBLIC 3f210 0 std::__ndk1::__shared_ptr_emplace<geode::Popup<GJGameLevel*, FakeRateSaveData const&, std::__ndk1::function<void (FakeRateSaveData, bool)> const&>::CloseEvent::Impl, std::__ndk1::allocator<geode::Popup<GJGameLevel*, FakeRateSaveData const&, std::__ndk1::function<void (FakeRateSaveData, bool)> const&>::CloseEvent::Impl> >::~__shared_ptr_emplace()
PUBLIC 3f220 0 std::__ndk1::__shared_ptr_emplace<geode::Popup<GJGameLevel*, FakeRateSaveData const&, std::__ndk1::function<void (FakeRateSaveData, bool)> const&>::CloseEvent::Impl, std::__ndk1::allocator<geode::Popup<GJGameLevel*, FakeRateSaveData const&, std::__ndk1::function<void (FakeRateSaveData, bool)> const&>::CloseEvent::Impl> >::~__shared_ptr_emplace()
PUBLIC 3f250 0 std::__ndk1::__shared_ptr_emplace<geode::Popup<GJGameLevel*, FakeRateSaveData const&, std::__ndk1::function<void (FakeRateSaveData, bool)> const&>::CloseEvent::Impl, std::__ndk1::allocator<geode::Popup<GJGameLevel*, FakeRateSaveData const&, std::__ndk1::function<void (FakeRateSaveData, bool)> const&>::CloseEvent::Impl> >::__on_zero_shared()
PUBLIC 3f254 0 std::__ndk1::__shared_ptr_emplace<geode::Popup<GJGameLevel*, FakeRateSaveData const&, std::__ndk1::function<void (FakeRateSaveData, bool)> const&>::CloseEvent::Impl, std::__ndk1::allocator<geode::Popup<GJGameLevel*, FakeRateSaveData const&, std::__ndk1::function<void (FakeRateSaveData, bool)> const&>::CloseEvent::Impl> >::__on_zero_shared_weak()
PUBLIC 3f258 0 std::__ndk1::__function::__func<FREditPopup::setup(GJGameLevel*, FakeRateSaveData const&, std::__ndk1::function<void (FakeRateSaveData, bool)> const&)::$_4, std::__ndk1::allocator<FREditPopup::setup(GJGameLevel*, FakeRateSaveData const&, std::__ndk1::function<void (FakeRateSaveData, bool)> const&)::$_4>, void (CCMenuItemSpriteExtra*)>::~__func()
PUBLIC 3f2a4 0 std::__ndk1::__function::__func<FREditPopup::setup(GJGameLevel*, FakeRateSaveData const&, std::__ndk1::function<void (FakeRateSaveData, bool)> const&)::$_4, std::__ndk1::allocator<FREditPopup::setup(GJGameLevel*, FakeRateSaveData const&, std::__ndk1::function<void (FakeRateSaveData, bool)> const&)::$_4>, void (CCMenuItemSpriteExtra*)>::~__func()
PUBLIC 3f300 0 std::__ndk1::__function::__func<FREditPopup::setup(GJGameLevel*, FakeRateSaveData const&, std::__ndk1::function<void (FakeRateSaveData, bool)> const&)::$_4, std::__ndk1::allocator<FREditPopup::setup(GJGameLevel*, FakeRateSaveData const&, std::__ndk1::function<void (FakeRateSaveData, bool)> const&)::$_4>, void (CCMenuItemSpriteExtra*)>::__clone() const
PUBLIC 3f39c 0 std::__ndk1::__function::__func<FREditPopup::setup(GJGameLevel*, FakeRateSaveData const&, std::__ndk1::function<void (FakeRateSaveData, bool)> const&)::$_4, std::__ndk1::allocator<FREditPopup::setup(GJGameLevel*, FakeRateSaveData const&, std::__ndk1::function<void (FakeRateSaveData, bool)> const&)::$_4>, void (CCMenuItemSpriteExtra*)>::__clone(std::__ndk1::__function::__base<void (CCMenuItemSpriteExtra*)>*) const
PUBLIC 3f424 0 std::__ndk1::__function::__func<FREditPopup::setup(GJGameLevel*, FakeRateSaveData const&, std::__ndk1::function<void (FakeRateSaveData, bool)> const&)::$_4, std::__ndk1::allocator<FREditPopup::setup(GJGameLevel*, FakeRateSaveData const&, std::__ndk1::function<void (FakeRateSaveData, bool)> const&)::$_4>, void (CCMenuItemSpriteExtra*)>::destroy()
PUBLIC 3f464 0 std::__ndk1::__function::__func<FREditPopup::setup(GJGameLevel*, FakeRateSaveData const&, std::__ndk1::function<void (FakeRateSaveData, bool)> const&)::$_4, std::__ndk1::allocator<FREditPopup::setup(GJGameLevel*, FakeRateSaveData const&, std::__ndk1::function<void (FakeRateSaveData, bool)> const&)::$_4>, void (CCMenuItemSpriteExtra*)>::destroy_deallocate()
PUBLIC 3f4b4 0 std::__ndk1::__function::__func<FREditPopup::setup(GJGameLevel*, FakeRateSaveData const&, std::__ndk1::function<void (FakeRateSaveData, bool)> const&)::$_4, std::__ndk1::allocator<FREditPopup::setup(GJGameLevel*, FakeRateSaveData const&, std::__ndk1::function<void (FakeRateSaveData, bool)> const&)::$_4>, void (CCMenuItemSpriteExtra*)>::operator()(CCMenuItemSpriteExtra*&&)
PUBLIC 3f8bc 0 std::__ndk1::__function::__func<FREditPopup::setup(GJGameLevel*, FakeRateSaveData const&, std::__ndk1::function<void (FakeRateSaveData, bool)> const&)::$_4, std::__ndk1::allocator<FREditPopup::setup(GJGameLevel*, FakeRateSaveData const&, std::__ndk1::function<void (FakeRateSaveData, bool)> const&)::$_4>, void (CCMenuItemSpriteExtra*)>::target(std::type_info const&) const
PUBLIC 3f8d8 0 std::__ndk1::__function::__func<FREditPopup::setup(GJGameLevel*, FakeRateSaveData const&, std::__ndk1::function<void (FakeRateSaveData, bool)> const&)::$_4, std::__ndk1::allocator<FREditPopup::setup(GJGameLevel*, FakeRateSaveData const&, std::__ndk1::function<void (FakeRateSaveData, bool)> const&)::$_4>, void (CCMenuItemSpriteExtra*)>::target_type() const
PUBLIC 3f8e4 0 geode::Mod::getSavedValue<std::__ndk1::vector<FakeRateSaveData, std::__ndk1::allocator<FakeRateSaveData> > >(std::__ndk1::basic_string_view<char, std::__ndk1::char_traits<char> >, std::__ndk1::vector<FakeRateSaveData, std::__ndk1::allocator<FakeRateSaveData> > const&)
PUBLIC 3fc10 0 geode::Mod::setSavedValue<std::__ndk1::vector<FakeRateSaveData, std::__ndk1::allocator<FakeRateSaveData> > >(std::__ndk1::basic_string_view<char, std::__ndk1::char_traits<char> >, std::__ndk1::vector<FakeRateSaveData, std::__ndk1::allocator<FakeRateSaveData> > const&)
PUBLIC 3feec 0 geode::impl::ResultData<matjson::Value&, std::__ndk1::basic_string<char, std::__ndk1::char_traits<char>, std::__ndk1::allocator<char> > >::~ResultData()
PUBLIC 3ff60 0 geode::impl::ResultData<std::__ndk1::vector<FakeRateSaveData, std::__ndk1::allocator<FakeRateSaveData> >, std::__ndk1::basic_string<char, std::__ndk1::char_traits<char>, std::__ndk1::allocator<char> > >::~ResultData()
PUBLIC 3ffd4 0 std::__ndk1::__throw_bad_variant_access[abi:ne180000]()
PUBLIC 40008 0 std::__ndk1::__variant_detail::__visitation::__base::__dispatcher<(unsigned long)0>::__dispatch[abi:ne180000]<std::__ndk1::__variant_detail::__dtor<std::__ndk1::__variant_detail::__traits<std::__ndk1::reference_wrapper<matjson::Value>, std::__ndk1::basic_string<char, std::__ndk1::char_traits<char>, std::__ndk1::allocator<char> > >, (std::__ndk1::__variant_detail::_Trait)1>::__destroy[abi:ne180000]()::{lambda(auto:1&)#1}, std::__ndk1::__variant_detail::__base<(std::__ndk1::__variant_detail::__traits<std::__ndk1::reference_wrapper<matjson::Value>, std::__ndk1::basic_string<char, std::__ndk1::char_traits<char>, std::__ndk1::allocator<char> > >)1, matjson::Value, std::__ndk1::allocator<char> >&>(std::__ndk1::__variant_detail::__dtor<std::__ndk1::__variant_detail::__traits<std::__ndk1::reference_wrapper<matjson::Value>, std::__ndk1::basic_string<char, std::__ndk1::char_traits<char>, std::__ndk1::allocator<char> > >, (std::__ndk1::__variant_detail::_Trait)1>, std::__ndk1::__variant_detail::__base<(std::__ndk1::__variant_detail::__traits<std::__ndk1::reference_wrapper<matjson::Value>, std::__ndk1::basic_string<char, std::__ndk1::char_traits<char>, std::__ndk1::allocator<char> > >)1, matjson::Value, std::__ndk1::allocator<char> >&)
PUBLIC 4000c 0 std::__ndk1::__variant_detail::__visitation::__base::__dispatcher<(unsigned long)1>::__dispatch[abi:ne180000]<std::__ndk1::__variant_detail::__dtor<std::__ndk1::__variant_detail::__traits<std::__ndk1::reference_wrapper<matjson::Value>, std::__ndk1::basic_string<char, std::__ndk1::char_traits<char>, std::__ndk1::allocator<char> > >, (std::__ndk1::__variant_detail::_Trait)1>::__destroy[abi:ne180000]()::{lambda(auto:1&)#1}, std::__ndk1::__variant_detail::__base<(std::__ndk1::__variant_detail::__traits<std::__ndk1::reference_wrapper<matjson::Value>, std::__ndk1::basic_string<char, std::__ndk1::char_traits<char>, std::__ndk1::allocator<char> > >)1, matjson::Value, std::__ndk1::allocator<char> >&>(std::__ndk1::__variant_detail::__dtor<std::__ndk1::__variant_detail::__traits<std::__ndk1::reference_wrapper<matjson::Value>, std::__ndk1::basic_string<char, std::__ndk1::char_traits<char>, std::__ndk1::allocator<char> > >, (std::__ndk1::__variant_detail::_Trait)1>, std::__ndk1::__variant_detail::__base<(std::__ndk1::__variant_detail::__traits<std::__ndk1::reference_wrapper<matjson::Value>, std::__ndk1::basic_string<char, std::__ndk1::char_traits<char>, std::__ndk1::allocator<char> > >)1, matjson::Value, std::__ndk1::allocator<char> >&)
PUBLIC 40020 0 std::__ndk1::vector<FakeRateSaveData, std::__ndk1::allocator<FakeRateSaveData> >::__throw_length_error[abi:ne180000]() const
PUBLIC 40034 0 std::__ndk1::__variant_detail::__visitation::__base::__dispatcher<(unsigned long)0>::__dispatch[abi:ne180000]<std::__ndk1::__variant_detail::__dtor<std::__ndk1::__variant_detail::__traits<std::__ndk1::vector<FakeRateSaveData, std::__ndk1::allocator<std::__ndk1::vector> >, std::__ndk1::basic_string<char, std::__ndk1::char_traits<char>, FakeRateSaveData<char> > >, (std::__ndk1::__variant_detail::_Trait)1>::__destroy[abi:ne180000]()::{lambda(auto:1&)#1}, std::__ndk1::__variant_detail::__base<(std::__ndk1::__variant_detail::__traits<std::__ndk1::vector<FakeRateSaveData, std::__ndk1::allocator<std::__ndk1::vector> >, std::__ndk1::basic_string<char, std::__ndk1::char_traits<char>, FakeRateSaveData<char> > >)1, std::__ndk1::allocator<std::__ndk1::vector>, FakeRateSaveData<char> >&>(std::__ndk1::__variant_detail::__dtor<std::__ndk1::__variant_detail::__traits<std::__ndk1::vector<FakeRateSaveData, std::__ndk1::allocator<std::__ndk1::vector> >, std::__ndk1::basic_string<char, std::__ndk1::char_traits<char>, FakeRateSaveData<char> > >, (std::__ndk1::__variant_detail::_Trait)1>, std::__ndk1::__variant_detail::__base<(std::__ndk1::__variant_detail::__traits<std::__ndk1::vector<FakeRateSaveData, std::__ndk1::allocator<std::__ndk1::vector> >, std::__ndk1::basic_string<char, std::__ndk1::char_traits<char>, FakeRateSaveData<char> > >)1, std::__ndk1::allocator<std::__ndk1::vector>, FakeRateSaveData<char> >&)
PUBLIC 40048 0 std::__ndk1::__variant_detail::__visitation::__base::__dispatcher<(unsigned long)1>::__dispatch[abi:ne180000]<std::__ndk1::__variant_detail::__dtor<std::__ndk1::__variant_detail::__traits<std::__ndk1::vector<FakeRateSaveData, std::__ndk1::allocator<std::__ndk1::vector> >, std::__ndk1::basic_string<char, std::__ndk1::char_traits<char>, FakeRateSaveData<char> > >, (std::__ndk1::__variant_detail::_Trait)1>::__destroy[abi:ne180000]()::{lambda(auto:1&)#1}, std::__ndk1::__variant_detail::__base<(std::__ndk1::__variant_detail::__traits<std::__ndk1::vector<FakeRateSaveData, std::__ndk1::allocator<std::__ndk1::vector> >, std::__ndk1::basic_string<char, std::__ndk1::char_traits<char>, FakeRateSaveData<char> > >)1, std::__ndk1::allocator<std::__ndk1::vector>, FakeRateSaveData<char> >&>(std::__ndk1::__variant_detail::__dtor<std::__ndk1::__variant_detail::__traits<std::__ndk1::vector<FakeRateSaveData, std::__ndk1::allocator<std::__ndk1::vector> >, std::__ndk1::basic_string<char, std::__ndk1::char_traits<char>, FakeRateSaveData<char> > >, (std::__ndk1::__variant_detail::_Trait)1>, std::__ndk1::__variant_detail::__base<(std::__ndk1::__variant_detail::__traits<std::__ndk1::vector<FakeRateSaveData, std::__ndk1::allocator<std::__ndk1::vector> >, std::__ndk1::basic_string<char, std::__ndk1::char_traits<char>, FakeRateSaveData<char> > >)1, std::__ndk1::allocator<std::__ndk1::vector>, FakeRateSaveData<char> >&)
PUBLIC 4005c 0 std::__ndk1::__function::__func<FREditPopup::setup(GJGameLevel*, FakeRateSaveData const&, std::__ndk1::function<void (FakeRateSaveData, bool)> const&)::$_5, std::__ndk1::allocator<FREditPopup::setup(GJGameLevel*, FakeRateSaveData const&, std::__ndk1::function<void (FakeRateSaveData, bool)> const&)::$_5>, void (CCMenuItemSpriteExtra*)>::~__func()
PUBLIC 400a8 0 std::__ndk1::__function::__func<FREditPopup::setup(GJGameLevel*, FakeRateSaveData const&, std::__ndk1::function<void (FakeRateSaveData, bool)> const&)::$_5, std::__ndk1::allocator<FREditPopup::setup(GJGameLevel*, FakeRateSaveData const&, std::__ndk1::function<void (FakeRateSaveData, bool)> const&)::$_5>, void (CCMenuItemSpriteExtra*)>::~__func()
PUBLIC 40104 0 std::__ndk1::__function::__func<FREditPopup::setup(GJGameLevel*, FakeRateSaveData const&, std::__ndk1::function<void (FakeRateSaveData, bool)> const&)::$_5, std::__ndk1::allocator<FREditPopup::setup(GJGameLevel*, FakeRateSaveData const&, std::__ndk1::function<void (FakeRateSaveData, bool)> const&)::$_5>, void (CCMenuItemSpriteExtra*)>::__clone() const
PUBLIC 401a0 0 std::__ndk1::__function::__func<FREditPopup::setup(GJGameLevel*, FakeRateSaveData const&, std::__ndk1::function<void (FakeRateSaveData, bool)> const&)::$_5, std::__ndk1::allocator<FREditPopup::setup(GJGameLevel*, FakeRateSaveData const&, std::__ndk1::function<void (FakeRateSaveData, bool)> const&)::$_5>, void (CCMenuItemSpriteExtra*)>::__clone(std::__ndk1::__function::__base<void (CCMenuItemSpriteExtra*)>*) const
PUBLIC 40228 0 std::__ndk1::__function::__func<FREditPopup::setup(GJGameLevel*, FakeRateSaveData const&, std::__ndk1::function<void (FakeRateSaveData, bool)> const&)::$_5, std::__ndk1::allocator<FREditPopup::setup(GJGameLevel*, FakeRateSaveData const&, std::__ndk1::function<void (FakeRateSaveData, bool)> const&)::$_5>, void (CCMenuItemSpriteExtra*)>::destroy()
PUBLIC 40268 0 std::__ndk1::__function::__func<FREditPopup::setup(GJGameLevel*, FakeRateSaveData const&, std::__ndk1::function<void (FakeRateSaveData, bool)> const&)::$_5, std::__ndk1::allocator<FREditPopup::setup(GJGameLevel*, FakeRateSaveData const&, std::__ndk1::function<void (FakeRateSaveData, bool)> const&)::$_5>, void (CCMenuItemSpriteExtra*)>::destroy_deallocate()
PUBLIC 402b8 0 std::__ndk1::__function::__func<FREditPopup::setup(GJGameLevel*, FakeRateSaveData const&, std::__ndk1::function<void (FakeRateSaveData, bool)> const&)::$_5, std::__ndk1::allocator<FREditPopup::setup(GJGameLevel*, FakeRateSaveData const&, std::__ndk1::function<void (FakeRateSaveData, bool)> const&)::$_5>, void (CCMenuItemSpriteExtra*)>::operator()(CCMenuItemSpriteExtra*&&)
PUBLIC 4065c 0 std::__ndk1::__function::__func<FREditPopup::setup(GJGameLevel*, FakeRateSaveData const&, std::__ndk1::function<void (FakeRateSaveData, bool)> const&)::$_5, std::__ndk1::allocator<FREditPopup::setup(GJGameLevel*, FakeRateSaveData const&, std::__ndk1::function<void (FakeRateSaveData, bool)> const&)::$_5>, void (CCMenuItemSpriteExtra*)>::target(std::type_info const&) const
PUBLIC 40678 0 std::__ndk1::__function::__func<FREditPopup::setup(GJGameLevel*, FakeRateSaveData const&, std::__ndk1::function<void (FakeRateSaveData, bool)> const&)::$_5, std::__ndk1::allocator<FREditPopup::setup(GJGameLevel*, FakeRateSaveData const&, std::__ndk1::function<void (FakeRateSaveData, bool)> const&)::$_5>, void (CCMenuItemSpriteExtra*)>::target_type() const
PUBLIC 40684 0 std::__ndk1::__variant_detail::__visitation::__base::__dispatcher<(unsigned long)0>::__dispatch[abi:ne180000]<std::__ndk1::__variant_detail::__dtor<std::__ndk1::__variant_detail::__traits<bool, std::__ndk1::basic_string<char, std::__ndk1::char_traits<char>, std::__ndk1::allocator<char> > >, (std::__ndk1::__variant_detail::_Trait)1>::__destroy[abi:ne180000]()::{lambda(auto:1&)#1}, std::__ndk1::__variant_detail::__base<(std::__ndk1::__variant_detail::__traits<bool, std::__ndk1::basic_string<char, std::__ndk1::char_traits<char>, std::__ndk1::allocator<char> > >)1, bool, std::__ndk1::allocator<char> >&>(std::__ndk1::__variant_detail::__dtor<std::__ndk1::__variant_detail::__traits<bool, std::__ndk1::basic_string<char, std::__ndk1::char_traits<char>, std::__ndk1::allocator<char> > >, (std::__ndk1::__variant_detail::_Trait)1>, std::__ndk1::__variant_detail::__base<(std::__ndk1::__variant_detail::__traits<bool, std::__ndk1::basic_string<char, std::__ndk1::char_traits<char>, std::__ndk1::allocator<char> > >)1, bool, std::__ndk1::allocator<char> >&)
PUBLIC 40688 0 std::__ndk1::__variant_detail::__visitation::__base::__dispatcher<(unsigned long)1>::__dispatch[abi:ne180000]<std::__ndk1::__variant_detail::__dtor<std::__ndk1::__variant_detail::__traits<bool, std::__ndk1::basic_string<char, std::__ndk1::char_traits<char>, std::__ndk1::allocator<char> > >, (std::__ndk1::__variant_detail::_Trait)1>::__destroy[abi:ne180000]()::{lambda(auto:1&)#1}, std::__ndk1::__variant_detail::__base<(std::__ndk1::__variant_detail::__traits<bool, std::__ndk1::basic_string<char, std::__ndk1::char_traits<char>, std::__ndk1::allocator<char> > >)1, bool, std::__ndk1::allocator<char> >&>(std::__ndk1::__variant_detail::__dtor<std::__ndk1::__variant_detail::__traits<bool, std::__ndk1::basic_string<char, std::__ndk1::char_traits<char>, std::__ndk1::allocator<char> > >, (std::__ndk1::__variant_detail::_Trait)1>, std::__ndk1::__variant_detail::__base<(std::__ndk1::__variant_detail::__traits<bool, std::__ndk1::basic_string<char, std::__ndk1::char_traits<char>, std::__ndk1::allocator<char> > >)1, bool, std::__ndk1::allocator<char> >&)
PUBLIC 4069c 0 FREffects::grdInfinity()
PUBLIC 40808 0 cocos2d::CCSequence::create(cocos2d::CCFiniteTimeAction*, ...)
PUBLIC 408a0 0 FREffects::infinityBackgrounds(bool)
PUBLIC 41148 0 FREffects::mythicalBackground()
PUBLIC 415c8 0 FREffects::legendaryBackground()
PUBLIC 41a40 0 FRGDDPPopup::create(int, std::__ndk1::function<void (int)> const&)
PUBLIC 41bbc 0 FRGDDPPopup::setup(int, std::__ndk1::function<void (int)> const&)
PUBLIC 42558 0 FRGDDPPopup::~FRGDDPPopup()
PUBLIC 425cc 0 {virtual override thunk({offset(-320)}, FRGDDPPopup::~FRGDDPPopup())}
PUBLIC 42638 0 {virtual override thunk({offset(-320)}, FRGDDPPopup::~FRGDDPPopup())}
PUBLIC 426ac 0 std::__ndk1::__function::__func<FRGDDPPopup::setup(int, std::__ndk1::function<void (int)> const&)::$_1, std::__ndk1::allocator<FRGDDPPopup::setup(int, std::__ndk1::function<void (int)> const&)::$_1>, void (CCMenuItemSpriteExtra*)>::~__func()
PUBLIC 426b0 0 std::__ndk1::__function::__func<FRGDDPPopup::setup(int, std::__ndk1::function<void (int)> const&)::$_1, std::__ndk1::allocator<FRGDDPPopup::setup(int, std::__ndk1::function<void (int)> const&)::$_1>, void (CCMenuItemSpriteExtra*)>::__clone() const
PUBLIC 426e8 0 std::__ndk1::__function::__func<FRGDDPPopup::setup(int, std::__ndk1::function<void (int)> const&)::$_1, std::__ndk1::allocator<FRGDDPPopup::setup(int, std::__ndk1::function<void (int)> const&)::$_1>, void (CCMenuItemSpriteExtra*)>::__clone(std::__ndk1::__function::__base<void (CCMenuItemSpriteExtra*)>*) const
PUBLIC 42700 0 std::__ndk1::__function::__func<FRGDDPPopup::setup(int, std::__ndk1::function<void (int)> const&)::$_1, std::__ndk1::allocator<FRGDDPPopup::setup(int, std::__ndk1::function<void (int)> const&)::$_1>, void (CCMenuItemSpriteExtra*)>::destroy()
PUBLIC 42704 0 std::__ndk1::__function::__func<FRGDDPPopup::setup(int, std::__ndk1::function<void (int)> const&)::$_1, std::__ndk1::allocator<FRGDDPPopup::setup(int, std::__ndk1::function<void (int)> const&)::$_1>, void (CCMenuItemSpriteExtra*)>::destroy_deallocate()
PUBLIC 42708 0 std::__ndk1::__function::__func<FRGDDPPopup::setup(int, std::__ndk1::function<void (int)> const&)::$_1, std::__ndk1::allocator<FRGDDPPopup::setup(int, std::__ndk1::function<void (int)> const&)::$_1>, void (CCMenuItemSpriteExtra*)>::operator()(CCMenuItemSpriteExtra*&&)
PUBLIC 427b0 0 std::__ndk1::__function::__func<FRGDDPPopup::setup(int, std::__ndk1::function<void (int)> const&)::$_1, std::__ndk1::allocator<FRGDDPPopup::setup(int, std::__ndk1::function<void (int)> const&)::$_1>, void (CCMenuItemSpriteExtra*)>::target(std::type_info const&) const
PUBLIC 427cc 0 std::__ndk1::__function::__func<FRGDDPPopup::setup(int, std::__ndk1::function<void (int)> const&)::$_1, std::__ndk1::allocator<FRGDDPPopup::setup(int, std::__ndk1::function<void (int)> const&)::$_1>, void (CCMenuItemSpriteExtra*)>::target_type() const
PUBLIC 427d8 0 std::__ndk1::__function::__func<FRGDDPPopup::setup(int, std::__ndk1::function<void (int)> const&)::$_0, std::__ndk1::allocator<FRGDDPPopup::setup(int, std::__ndk1::function<void (int)> const&)::$_0>, void (CCMenuItemSpriteExtra*)>::~__func()
PUBLIC 42824 0 std::__ndk1::__function::__func<FRGDDPPopup::setup(int, std::__ndk1::function<void (int)> const&)::$_0, std::__ndk1::allocator<FRGDDPPopup::setup(int, std::__ndk1::function<void (int)> const&)::$_0>, void (CCMenuItemSpriteExtra*)>::~__func()
PUBLIC 42880 0 std::__ndk1::__function::__func<FRGDDPPopup::setup(int, std::__ndk1::function<void (int)> const&)::$_0, std::__ndk1::allocator<FRGDDPPopup::setup(int, std::__ndk1::function<void (int)> const&)::$_0>, void (CCMenuItemSpriteExtra*)>::__clone() const
PUBLIC 4291c 0 std::__ndk1::__function::__func<FRGDDPPopup::setup(int, std::__ndk1::function<void (int)> const&)::$_0, std::__ndk1::allocator<FRGDDPPopup::setup(int, std::__ndk1::function<void (int)> const&)::$_0>, void (CCMenuItemSpriteExtra*)>::__clone(std::__ndk1::__function::__base<void (CCMenuItemSpriteExtra*)>*) const
PUBLIC 429a4 0 std::__ndk1::__function::__func<FRGDDPPopup::setup(int, std::__ndk1::function<void (int)> const&)::$_0, std::__ndk1::allocator<FRGDDPPopup::setup(int, std::__ndk1::function<void (int)> const&)::$_0>, void (CCMenuItemSpriteExtra*)>::destroy()
PUBLIC 429e4 0 std::__ndk1::__function::__func<FRGDDPPopup::setup(int, std::__ndk1::function<void (int)> const&)::$_0, std::__ndk1::allocator<FRGDDPPopup::setup(int, std::__ndk1::function<void (int)> const&)::$_0>, void (CCMenuItemSpriteExtra*)>::destroy_deallocate()
PUBLIC 42a34 0 std::__ndk1::__function::__func<FRGDDPPopup::setup(int, std::__ndk1::function<void (int)> const&)::$_0, std::__ndk1::allocator<FRGDDPPopup::setup(int, std::__ndk1::function<void (int)> const&)::$_0>, void (CCMenuItemSpriteExtra*)>::operator()(CCMenuItemSpriteExtra*&&)
PUBLIC 42ac0 0 std::__ndk1::__function::__func<FRGDDPPopup::setup(int, std::__ndk1::function<void (int)> const&)::$_0, std::__ndk1::allocator<FRGDDPPopup::setup(int, std::__ndk1::function<void (int)> const&)::$_0>, void (CCMenuItemSpriteExtra*)>::target(std::type_info const&) const
PUBLIC 42adc 0 std::__ndk1::__function::__func<FRGDDPPopup::setup(int, std::__ndk1::function<void (int)> const&)::$_0, std::__ndk1::allocator<FRGDDPPopup::setup(int, std::__ndk1::function<void (int)> const&)::$_0>, void (CCMenuItemSpriteExtra*)>::target_type() const
PUBLIC 42ae8 0 FRGRDPopup::create(int, std::__ndk1::function<void (int)> const&)
PUBLIC 42c64 0 FRGRDPopup::setup(int, std::__ndk1::function<void (int)> const&)
PUBLIC 434f0 0 FRGRDPopup::~FRGRDPopup()
PUBLIC 43564 0 {virtual override thunk({offset(-320)}, FRGRDPopup::~FRGRDPopup())}
PUBLIC 435d0 0 {virtual override thunk({offset(-320)}, FRGRDPopup::~FRGRDPopup())}
PUBLIC 43644 0 std::__ndk1::__function::__func<FRGRDPopup::setup(int, std::__ndk1::function<void (int)> const&)::$_1, std::__ndk1::allocator<FRGRDPopup::setup(int, std::__ndk1::function<void (int)> const&)::$_1>, void (CCMenuItemSpriteExtra*)>::~__func()
PUBLIC 43648 0 std::__ndk1::__function::__func<FRGRDPopup::setup(int, std::__ndk1::function<void (int)> const&)::$_1, std::__ndk1::allocator<FRGRDPopup::setup(int, std::__ndk1::function<void (int)> const&)::$_1>, void (CCMenuItemSpriteExtra*)>::__clone() const
PUBLIC 43680 0 std::__ndk1::__function::__func<FRGRDPopup::setup(int, std::__ndk1::function<void (int)> const&)::$_1, std::__ndk1::allocator<FRGRDPopup::setup(int, std::__ndk1::function<void (int)> const&)::$_1>, void (CCMenuItemSpriteExtra*)>::__clone(std::__ndk1::__function::__base<void (CCMenuItemSpriteExtra*)>*) const
PUBLIC 43698 0 std::__ndk1::__function::__func<FRGRDPopup::setup(int, std::__ndk1::function<void (int)> const&)::$_1, std::__ndk1::allocator<FRGRDPopup::setup(int, std::__ndk1::function<void (int)> const&)::$_1>, void (CCMenuItemSpriteExtra*)>::destroy()
PUBLIC 4369c 0 std::__ndk1::__function::__func<FRGRDPopup::setup(int, std::__ndk1::function<void (int)> const&)::$_1, std::__ndk1::allocator<FRGRDPopup::setup(int, std::__ndk1::function<void (int)> const&)::$_1>, void (CCMenuItemSpriteExtra*)>::destroy_deallocate()
PUBLIC 436a0 0 std::__ndk1::__function::__func<FRGRDPopup::setup(int, std::__ndk1::function<void (int)> const&)::$_1, std::__ndk1::allocator<FRGRDPopup::setup(int, std::__ndk1::function<void (int)> const&)::$_1>, void (CCMenuItemSpriteExtra*)>::operator()(CCMenuItemSpriteExtra*&&)
PUBLIC 43748 0 std::__ndk1::__function::__func<FRGRDPopup::setup(int, std::__ndk1::function<void (int)> const&)::$_1, std::__ndk1::allocator<FRGRDPopup::setup(int, std::__ndk1::function<void (int)> const&)::$_1>, void (CCMenuItemSpriteExtra*)>::target(std::type_info const&) const
PUBLIC 43764 0 std::__ndk1::__function::__func<FRGRDPopup::setup(int, std::__ndk1::function<void (int)> const&)::$_1, std::__ndk1::allocator<FRGRDPopup::setup(int, std::__ndk1::function<void (int)> const&)::$_1>, void (CCMenuItemSpriteExtra*)>::target_type() const
PUBLIC 43770 0 std::__ndk1::__function::__func<FRGRDPopup::setup(int, std::__ndk1::function<void (int)> const&)::$_0, std::__ndk1::allocator<FRGRDPopup::setup(int, std::__ndk1::function<void (int)> const&)::$_0>, void (CCMenuItemSpriteExtra*)>::~__func()
PUBLIC 437bc 0 std::__ndk1::__function::__func<FRGRDPopup::setup(int, std::__ndk1::function<void (int)> const&)::$_0, std::__ndk1::allocator<FRGRDPopup::setup(int, std::__ndk1::function<void (int)> const&)::$_0>, void (CCMenuItemSpriteExtra*)>::~__func()
PUBLIC 43818 0 std::__ndk1::__function::__func<FRGRDPopup::setup(int, std::__ndk1::function<void (int)> const&)::$_0, std::__ndk1::allocator<FRGRDPopup::setup(int, std::__ndk1::function<void (int)> const&)::$_0>, void (CCMenuItemSpriteExtra*)>::__clone() const
PUBLIC 438b4 0 std::__ndk1::__function::__func<FRGRDPopup::setup(int, std::__ndk1::function<void (int)> const&)::$_0, std::__ndk1::allocator<FRGRDPopup::setup(int, std::__ndk1::function<void (int)> const&)::$_0>, void (CCMenuItemSpriteExtra*)>::__clone(std::__ndk1::__function::__base<void (CCMenuItemSpriteExtra*)>*) const
PUBLIC 4393c 0 std::__ndk1::__function::__func<FRGRDPopup::setup(int, std::__ndk1::function<void (int)> const&)::$_0, std::__ndk1::allocator<FRGRDPopup::setup(int, std::__ndk1::function<void (int)> const&)::$_0>, void (CCMenuItemSpriteExtra*)>::destroy()
PUBLIC 4397c 0 std::__ndk1::__function::__func<FRGRDPopup::setup(int, std::__ndk1::function<void (int)> const&)::$_0, std::__ndk1::allocator<FRGRDPopup::setup(int, std::__ndk1::function<void (int)> const&)::$_0>, void (CCMenuItemSpriteExtra*)>::destroy_deallocate()
PUBLIC 439cc 0 std::__ndk1::__function::__func<FRGRDPopup::setup(int, std::__ndk1::function<void (int)> const&)::$_0, std::__ndk1::allocator<FRGRDPopup::setup(int, std::__ndk1::function<void (int)> const&)::$_0>, void (CCMenuItemSpriteExtra*)>::operator()(CCMenuItemSpriteExtra*&&)
PUBLIC 43a58 0 std::__ndk1::__function::__func<FRGRDPopup::setup(int, std::__ndk1::function<void (int)> const&)::$_0, std::__ndk1::allocator<FRGRDPopup::setup(int, std::__ndk1::function<void (int)> const&)::$_0>, void (CCMenuItemSpriteExtra*)>::target(std::type_info const&) const
PUBLIC 43a74 0 std::__ndk1::__function::__func<FRGRDPopup::setup(int, std::__ndk1::function<void (int)> const&)::$_0, std::__ndk1::allocator<FRGRDPopup::setup(int, std::__ndk1::function<void (int)> const&)::$_0>, void (CCMenuItemSpriteExtra*)>::target_type() const
PUBLIC 43a80 0 FRSetDifficultyPopup::create(FakeRateSaveData const&, bool, std::__ndk1::function<void (int, int, int, int, int)> const&)
PUBLIC 43c0c 0 FRSetDifficultyPopup::setup(FakeRateSaveData const&, bool, std::__ndk1::function<void (int, int, int, int, int)> const&)
PUBLIC 45164 0 geode::cocos::CCMenuItemExt::createSpriteExtraWithFilename(std::__ndk1::basic_string_view<char, std::__ndk1::char_traits<char> >, float, std::__ndk1::function<void (CCMenuItemSpriteExtra*)>)
PUBLIC 452b0 0 geode::Popup<FakeRateSaveData const&, bool, std::__ndk1::function<void (int, int, int, int, int)> const&>::~Popup()
PUBLIC 4531c 0 FRSetDifficultyPopup::~FRSetDifficultyPopup()
PUBLIC 45390 0 geode::Popup<FakeRateSaveData const&, bool, std::__ndk1::function<void (int, int, int, int, int)> const&>::registerWithTouchDispatcher()
PUBLIC 453bc 0 geode::Popup<FakeRateSaveData const&, bool, std::__ndk1::function<void (int, int, int, int, int)> const&>::keyDown(cocos2d::enumKeyCodes)
PUBLIC 453e4 0 geode::Popup<FakeRateSaveData const&, bool, std::__ndk1::function<void (int, int, int, int, int)> const&>::onClose(cocos2d::CCObject*)
PUBLIC 4552c 0 {virtual override thunk({offset(-320)}, FRSetDifficultyPopup::~FRSetDifficultyPopup())}
PUBLIC 45598 0 {virtual override thunk({offset(-320)}, FRSetDifficultyPopup::~FRSetDifficultyPopup())}
PUBLIC 4560c 0 {virtual override thunk({offset(-344)}, geode::Popup<FakeRateSaveData const&, bool, std::__ndk1::function<void (int, int, int, int, int)> const&>::keyDown(cocos2d::enumKeyCodes))}
PUBLIC 45638 0 geode::Popup<FakeRateSaveData const&, bool, std::__ndk1::function<void (int, int, int, int, int)> const&>::~Popup()
PUBLIC 4563c 0 {virtual override thunk({offset(-320)}, geode::Popup<FakeRateSaveData const&, bool, std::__ndk1::function<void (int, int, int, int, int)> const&>::~Popup())}
PUBLIC 456a8 0 {virtual override thunk({offset(-320)}, geode::Popup<FakeRateSaveData const&, bool, std::__ndk1::function<void (int, int, int, int, int)> const&>::~Popup())}
PUBLIC 456ac 0 geode::Popup<FakeRateSaveData const&, bool, std::__ndk1::function<void (int, int, int, int, int)> const&>::initBase(float, float, FakeRateSaveData const&, bool, std::__ndk1::function<void (int, int, int, int, int)> const&, char const*, cocos2d::CCRect, bool)
PUBLIC 459b8 0 std::__ndk1::__function::__func<FRSetDifficultyPopup::setup(FakeRateSaveData const&, bool, std::__ndk1::function<void (int, int, int, int, int)> const&)::$_4, std::__ndk1::allocator<FRSetDifficultyPopup::setup(FakeRateSaveData const&, bool, std::__ndk1::function<void (int, int, int, int, int)> const&)::$_4>, void (CCMenuItemSpriteExtra*)>::~__func()
PUBLIC 459bc 0 std::__ndk1::__function::__func<FRSetDifficultyPopup::setup(FakeRateSaveData const&, bool, std::__ndk1::function<void (int, int, int, int, int)> const&)::$_4, std::__ndk1::allocator<FRSetDifficultyPopup::setup(FakeRateSaveData const&, bool, std::__ndk1::function<void (int, int, int, int, int)> const&)::$_4>, void (CCMenuItemSpriteExtra*)>::__clone() const
PUBLIC 459f4 0 std::__ndk1::__function::__func<FRSetDifficultyPopup::setup(FakeRateSaveData const&, bool, std::__ndk1::function<void (int, int, int, int, int)> const&)::$_4, std::__ndk1::allocator<FRSetDifficultyPopup::setup(FakeRateSaveData const&, bool, std::__ndk1::function<void (int, int, int, int, int)> const&)::$_4>, void (CCMenuItemSpriteExtra*)>::__clone(std::__ndk1::__function::__base<void (CCMenuItemSpriteExtra*)>*) const
PUBLIC 45a0c 0 std::__ndk1::__function::__func<FRSetDifficultyPopup::setup(FakeRateSaveData const&, bool, std::__ndk1::function<void (int, int, int, int, int)> const&)::$_4, std::__ndk1::allocator<FRSetDifficultyPopup::setup(FakeRateSaveData const&, bool, std::__ndk1::function<void (int, int, int, int, int)> const&)::$_4>, void (CCMenuItemSpriteExtra*)>::destroy()
PUBLIC 45a10 0 std::__ndk1::__function::__func<FRSetDifficultyPopup::setup(FakeRateSaveData const&, bool, std::__ndk1::function<void (int, int, int, int, int)> const&)::$_4, std::__ndk1::allocator<FRSetDifficultyPopup::setup(FakeRateSaveData const&, bool, std::__ndk1::function<void (int, int, int, int, int)> const&)::$_4>, void (CCMenuItemSpriteExtra*)>::destroy_deallocate()
PUBLIC 45a14 0 std::__ndk1::__function::__func<FRSetDifficultyPopup::setup(FakeRateSaveData const&, bool, std::__ndk1::function<void (int, int, int, int, int)> const&)::$_4, std::__ndk1::allocator<FRSetDifficultyPopup::setup(FakeRateSaveData const&, bool, std::__ndk1::function<void (int, int, int, int, int)> const&)::$_4>, void (CCMenuItemSpriteExtra*)>::operator()(CCMenuItemSpriteExtra*&&)
PUBLIC 45a90 0 std::__ndk1::__function::__func<FRSetDifficultyPopup::setup(FakeRateSaveData const&, bool, std::__ndk1::function<void (int, int, int, int, int)> const&)::$_4, std::__ndk1::allocator<FRSetDifficultyPopup::setup(FakeRateSaveData const&, bool, std::__ndk1::function<void (int, int, int, int, int)> const&)::$_4>, void (CCMenuItemSpriteExtra*)>::target(std::type_info const&) const
PUBLIC 45aac 0 std::__ndk1::__function::__func<FRSetDifficultyPopup::setup(FakeRateSaveData const&, bool, std::__ndk1::function<void (int, int, int, int, int)> const&)::$_4, std::__ndk1::allocator<FRSetDifficultyPopup::setup(FakeRateSaveData const&, bool, std::__ndk1::function<void (int, int, int, int, int)> const&)::$_4>, void (CCMenuItemSpriteExtra*)>::target_type() const
PUBLIC 45ab8 0 geode::Popup<FakeRateSaveData const&, bool, std::__ndk1::function<void (int, int, int, int, int)> const&>::CloseEvent::~CloseEvent()
PUBLIC 45b18 0 geode::Popup<FakeRateSaveData const&, bool, std::__ndk1::function<void (int, int, int, int, int)> const&>::CloseEvent::~CloseEvent()
PUBLIC 45b88 0 std::__ndk1::__shared_ptr_emplace<geode::Popup<FakeRateSaveData const&, bool, std::__ndk1::function<void (int, int, int, int, int)> const&>::CloseEvent::Impl, std::__ndk1::allocator<geode::Popup<FakeRateSaveData const&, bool, std::__ndk1::function<void (int, int, int, int, int)> const&>::CloseEvent::Impl> >::~__shared_ptr_emplace()
PUBLIC 45b98 0 std::__ndk1::__shared_ptr_emplace<geode::Popup<FakeRateSaveData const&, bool, std::__ndk1::function<void (int, int, int, int, int)> const&>::CloseEvent::Impl, std::__ndk1::allocator<geode::Popup<FakeRateSaveData const&, bool, std::__ndk1::function<void (int, int, int, int, int)> const&>::CloseEvent::Impl> >::~__shared_ptr_emplace()
PUBLIC 45bc8 0 std::__ndk1::__shared_ptr_emplace<geode::Popup<FakeRateSaveData const&, bool, std::__ndk1::function<void (int, int, int, int, int)> const&>::CloseEvent::Impl, std::__ndk1::allocator<geode::Popup<FakeRateSaveData const&, bool, std::__ndk1::function<void (int, int, int, int, int)> const&>::CloseEvent::Impl> >::__on_zero_shared()
PUBLIC 45bcc 0 std::__ndk1::__shared_ptr_emplace<geode::Popup<FakeRateSaveData const&, bool, std::__ndk1::function<void (int, int, int, int, int)> const&>::CloseEvent::Impl, std::__ndk1::allocator<geode::Popup<FakeRateSaveData const&, bool, std::__ndk1::function<void (int, int, int, int, int)> const&>::CloseEvent::Impl> >::__on_zero_shared_weak()
PUBLIC 45bd0 0 std::__ndk1::__function::__func<FRSetDifficultyPopup::setup(FakeRateSaveData const&, bool, std::__ndk1::function<void (int, int, int, int, int)> const&)::$_0, std::__ndk1::allocator<FRSetDifficultyPopup::setup(FakeRateSaveData const&, bool, std::__ndk1::function<void (int, int, int, int, int)> const&)::$_0>, void (CCMenuItemSpriteExtra*)>::~__func()
PUBLIC 45c1c 0 std::__ndk1::__function::__func<FRSetDifficultyPopup::setup(FakeRateSaveData const&, bool, std::__ndk1::function<void (int, int, int, int, int)> const&)::$_0, std::__ndk1::allocator<FRSetDifficultyPopup::setup(FakeRateSaveData const&, bool, std::__ndk1::function<void (int, int, int, int, int)> const&)::$_0>, void (CCMenuItemSpriteExtra*)>::~__func()
PUBLIC 45c78 0 std::__ndk1::__function::__func<FRSetDifficultyPopup::setup(FakeRateSaveData const&, bool, std::__ndk1::function<void (int, int, int, int, int)> const&)::$_0, std::__ndk1::allocator<FRSetDifficultyPopup::setup(FakeRateSaveData const&, bool, std::__ndk1::function<void (int, int, int, int, int)> const&)::$_0>, void (CCMenuItemSpriteExtra*)>::__clone() const
PUBLIC 45d14 0 std::__ndk1::__function::__func<FRSetDifficultyPopup::setup(FakeRateSaveData const&, bool, std::__ndk1::function<void (int, int, int, int, int)> const&)::$_0, std::__ndk1::allocator<FRSetDifficultyPopup::setup(FakeRateSaveData const&, bool, std::__ndk1::function<void (int, int, int, int, int)> const&)::$_0>, void (CCMenuItemSpriteExtra*)>::__clone(std::__ndk1::__function::__base<void (CCMenuItemSpriteExtra*)>*) const
PUBLIC 45d9c 0 std::__ndk1::__function::__func<FRSetDifficultyPopup::setup(FakeRateSaveData const&, bool, std::__ndk1::function<void (int, int, int, int, int)> const&)::$_0, std::__ndk1::allocator<FRSetDifficultyPopup::setup(FakeRateSaveData const&, bool, std::__ndk1::function<void (int, int, int, int, int)> const&)::$_0>, void (CCMenuItemSpriteExtra*)>::destroy()
PUBLIC 45ddc 0 std::__ndk1::__function::__func<FRSetDifficultyPopup::setup(FakeRateSaveData const&, bool, std::__ndk1::function<void (int, int, int, int, int)> const&)::$_0, std::__ndk1::allocator<FRSetDifficultyPopup::setup(FakeRateSaveData const&, bool, std::__ndk1::function<void (int, int, int, int, int)> const&)::$_0>, void (CCMenuItemSpriteExtra*)>::destroy_deallocate()
PUBLIC 45e2c 0 std::__ndk1::__function::__func<FRSetDifficultyPopup::setup(FakeRateSaveData const&, bool, std::__ndk1::function<void (int, int, int, int, int)> const&)::$_0, std::__ndk1::allocator<FRSetDifficultyPopup::setup(FakeRateSaveData const&, bool, std::__ndk1::function<void (int, int, int, int, int)> const&)::$_0>, void (CCMenuItemSpriteExtra*)>::operator()(CCMenuItemSpriteExtra*&&)
PUBLIC 45ee0 0 std::__ndk1::__function::__func<FRSetDifficultyPopup::setup(FakeRateSaveData const&, bool, std::__ndk1::function<void (int, int, int, int, int)> const&)::$_0, std::__ndk1::allocator<FRSetDifficultyPopup::setup(FakeRateSaveData const&, bool, std::__ndk1::function<void (int, int, int, int, int)> const&)::$_0>, void (CCMenuItemSpriteExtra*)>::target(std::type_info const&) const
PUBLIC 45efc 0 std::__ndk1::__function::__func<FRSetDifficultyPopup::setup(FakeRateSaveData const&, bool, std::__ndk1::function<void (int, int, int, int, int)> const&)::$_0, std::__ndk1::allocator<FRSetDifficultyPopup::setup(FakeRateSaveData const&, bool, std::__ndk1::function<void (int, int, int, int, int)> const&)::$_0>, void (CCMenuItemSpriteExtra*)>::target_type() const
PUBLIC 45f08 0 std::__ndk1::__function::__func<FRSetDifficultyPopup::setup(FakeRateSaveData const&, bool, std::__ndk1::function<void (int, int, int, int, int)> const&)::$_1, std::__ndk1::allocator<FRSetDifficultyPopup::setup(FakeRateSaveData const&, bool, std::__ndk1::function<void (int, int, int, int, int)> const&)::$_1>, void (CCMenuItemSpriteExtra*)>::~__func()
PUBLIC 45f0c 0 std::__ndk1::__function::__func<FRSetDifficultyPopup::setup(FakeRateSaveData const&, bool, std::__ndk1::function<void (int, int, int, int, int)> const&)::$_1, std::__ndk1::allocator<FRSetDifficultyPopup::setup(FakeRateSaveData const&, bool, std::__ndk1::function<void (int, int, int, int, int)> const&)::$_1>, void (CCMenuItemSpriteExtra*)>::__clone() const
PUBLIC 45f40 0 std::__ndk1::__function::__func<FRSetDifficultyPopup::setup(FakeRateSaveData const&, bool, std::__ndk1::function<void (int, int, int, int, int)> const&)::$_1, std::__ndk1::allocator<FRSetDifficultyPopup::setup(FakeRateSaveData const&, bool, std::__ndk1::function<void (int, int, int, int, int)> const&)::$_1>, void (CCMenuItemSpriteExtra*)>::__clone(std::__ndk1::__function::__base<void (CCMenuItemSpriteExtra*)>*) const
PUBLIC 45f54 0 std::__ndk1::__function::__func<FRSetDifficultyPopup::setup(FakeRateSaveData const&, bool, std::__ndk1::function<void (int, int, int, int, int)> const&)::$_1, std::__ndk1::allocator<FRSetDifficultyPopup::setup(FakeRateSaveData const&, bool, std::__ndk1::function<void (int, int, int, int, int)> const&)::$_1>, void (CCMenuItemSpriteExtra*)>::destroy()
PUBLIC 45f58 0 std::__ndk1::__function::__func<FRSetDifficultyPopup::setup(FakeRateSaveData const&, bool, std::__ndk1::function<void (int, int, int, int, int)> const&)::$_1, std::__ndk1::allocator<FRSetDifficultyPopup::setup(FakeRateSaveData const&, bool, std::__ndk1::function<void (int, int, int, int, int)> const&)::$_1>, void (CCMenuItemSpriteExtra*)>::destroy_deallocate()
PUBLIC 45f5c 0 std::__ndk1::__function::__func<FRSetDifficultyPopup::setup(FakeRateSaveData const&, bool, std::__ndk1::function<void (int, int, int, int, int)> const&)::$_1, std::__ndk1::allocator<FRSetDifficultyPopup::setup(FakeRateSaveData const&, bool, std::__ndk1::function<void (int, int, int, int, int)> const&)::$_1>, void (CCMenuItemSpriteExtra*)>::operator()(CCMenuItemSpriteExtra*&&)
PUBLIC 46048 0 std::__ndk1::__function::__func<FRSetDifficultyPopup::setup(FakeRateSaveData const&, bool, std::__ndk1::function<void (int, int, int, int, int)> const&)::$_1, std::__ndk1::allocator<FRSetDifficultyPopup::setup(FakeRateSaveData const&, bool, std::__ndk1::function<void (int, int, int, int, int)> const&)::$_1>, void (CCMenuItemSpriteExtra*)>::target(std::type_info const&) const
PUBLIC 46064 0 std::__ndk1::__function::__func<FRSetDifficultyPopup::setup(FakeRateSaveData const&, bool, std::__ndk1::function<void (int, int, int, int, int)> const&)::$_1, std::__ndk1::allocator<FRSetDifficultyPopup::setup(FakeRateSaveData const&, bool, std::__ndk1::function<void (int, int, int, int, int)> const&)::$_1>, void (CCMenuItemSpriteExtra*)>::target_type() const
PUBLIC 46070 0 std::__ndk1::__function::__func<FRSetDifficultyPopup::setup(FakeRateSaveData const&, bool, std::__ndk1::function<void (int, int, int, int, int)> const&)::$_1::operator()<CCMenuItemSpriteExtra*>(CCMenuItemSpriteExtra*) const::{lambda(int)#1}, std::__ndk1::allocator<FRSetDifficultyPopup::setup(FakeRateSaveData const&, bool, std::__ndk1::function<void (int, int, int, int, int)> const&)::$_1::operator()<CCMenuItemSpriteExtra*>(CCMenuItemSpriteExtra*) const::{lambda(int)#1}>, void (int)>::~__func()
PUBLIC 46074 0 std::__ndk1::__function::__func<FRSetDifficultyPopup::setup(FakeRateSaveData const&, bool, std::__ndk1::function<void (int, int, int, int, int)> const&)::$_1::operator()<CCMenuItemSpriteExtra*>(CCMenuItemSpriteExtra*) const::{lambda(int)#1}, std::__ndk1::allocator<FRSetDifficultyPopup::setup(FakeRateSaveData const&, bool, std::__ndk1::function<void (int, int, int, int, int)> const&)::$_1::operator()<CCMenuItemSpriteExtra*>(CCMenuItemSpriteExtra*) const::{lambda(int)#1}>, void (int)>::__clone() const
PUBLIC 460a8 0 std::__ndk1::__function::__func<FRSetDifficultyPopup::setup(FakeRateSaveData const&, bool, std::__ndk1::function<void (int, int, int, int, int)> const&)::$_1::operator()<CCMenuItemSpriteExtra*>(CCMenuItemSpriteExtra*) const::{lambda(int)#1}, std::__ndk1::allocator<FRSetDifficultyPopup::setup(FakeRateSaveData const&, bool, std::__ndk1::function<void (int, int, int, int, int)> const&)::$_1::operator()<CCMenuItemSpriteExtra*>(CCMenuItemSpriteExtra*) const::{lambda(int)#1}>, void (int)>::__clone(std::__ndk1::__function::__base<void (int)>*) const
PUBLIC 460bc 0 std::__ndk1::__function::__func<FRSetDifficultyPopup::setup(FakeRateSaveData const&, bool, std::__ndk1::function<void (int, int, int, int, int)> const&)::$_1::operator()<CCMenuItemSpriteExtra*>(CCMenuItemSpriteExtra*) const::{lambda(int)#1}, std::__ndk1::allocator<FRSetDifficultyPopup::setup(FakeRateSaveData const&, bool, std::__ndk1::function<void (int, int, int, int, int)> const&)::$_1::operator()<CCMenuItemSpriteExtra*>(CCMenuItemSpriteExtra*) const::{lambda(int)#1}>, void (int)>::destroy()
PUBLIC 460c0 0 std::__ndk1::__function::__func<FRSetDifficultyPopup::setup(FakeRateSaveData const&, bool, std::__ndk1::function<void (int, int, int, int, int)> const&)::$_1::operator()<CCMenuItemSpriteExtra*>(CCMenuItemSpriteExtra*) const::{lambda(int)#1}, std::__ndk1::allocator<FRSetDifficultyPopup::setup(FakeRateSaveData const&, bool, std::__ndk1::function<void (int, int, int, int, int)> const&)::$_1::operator()<CCMenuItemSpriteExtra*>(CCMenuItemSpriteExtra*) const::{lambda(int)#1}>, void (int)>::destroy_deallocate()
PUBLIC 460c4 0 std::__ndk1::__function::__func<FRSetDifficultyPopup::setup(FakeRateSaveData const&, bool, std::__ndk1::function<void (int, int, int, int, int)> const&)::$_1::operator()<CCMenuItemSpriteExtra*>(CCMenuItemSpriteExtra*) const::{lambda(int)#1}, std::__ndk1::allocator<FRSetDifficultyPopup::setup(FakeRateSaveData const&, bool, std::__ndk1::function<void (int, int, int, int, int)> const&)::$_1::operator()<CCMenuItemSpriteExtra*>(CCMenuItemSpriteExtra*) const::{lambda(int)#1}>, void (int)>::operator()(int&&)
PUBLIC 460dc 0 std::__ndk1::__function::__func<FRSetDifficultyPopup::setup(FakeRateSaveData const&, bool, std::__ndk1::function<void (int, int, int, int, int)> const&)::$_1::operator()<CCMenuItemSpriteExtra*>(CCMenuItemSpriteExtra*) const::{lambda(int)#1}, std::__ndk1::allocator<FRSetDifficultyPopup::setup(FakeRateSaveData const&, bool, std::__ndk1::function<void (int, int, int, int, int)> const&)::$_1::operator()<CCMenuItemSpriteExtra*>(CCMenuItemSpriteExtra*) const::{lambda(int)#1}>, void (int)>::target(std::type_info const&) const
PUBLIC 460f8 0 std::__ndk1::__function::__func<FRSetDifficultyPopup::setup(FakeRateSaveData const&, bool, std::__ndk1::function<void (int, int, int, int, int)> const&)::$_1::operator()<CCMenuItemSpriteExtra*>(CCMenuItemSpriteExtra*) const::{lambda(int)#1}, std::__ndk1::allocator<FRSetDifficultyPopup::setup(FakeRateSaveData const&, bool, std::__ndk1::function<void (int, int, int, int, int)> const&)::$_1::operator()<CCMenuItemSpriteExtra*>(CCMenuItemSpriteExtra*) const::{lambda(int)#1}>, void (int)>::target_type() const
PUBLIC 46104 0 std::__ndk1::__function::__func<FRSetDifficultyPopup::setup(FakeRateSaveData const&, bool, std::__ndk1::function<void (int, int, int, int, int)> const&)::$_2, std::__ndk1::allocator<FRSetDifficultyPopup::setup(FakeRateSaveData const&, bool, std::__ndk1::function<void (int, int, int, int, int)> const&)::$_2>, void (CCMenuItemSpriteExtra*)>::~__func()
PUBLIC 46108 0 std::__ndk1::__function::__func<FRSetDifficultyPopup::setup(FakeRateSaveData const&, bool, std::__ndk1::function<void (int, int, int, int, int)> const&)::$_2, std::__ndk1::allocator<FRSetDifficultyPopup::setup(FakeRateSaveData const&, bool, std::__ndk1::function<void (int, int, int, int, int)> const&)::$_2>, void (CCMenuItemSpriteExtra*)>::__clone() const
PUBLIC 4613c 0 std::__ndk1::__function::__func<FRSetDifficultyPopup::setup(FakeRateSaveData const&, bool, std::__ndk1::function<void (int, int, int, int, int)> const&)::$_2, std::__ndk1::allocator<FRSetDifficultyPopup::setup(FakeRateSaveData const&, bool, std::__ndk1::function<void (int, int, int, int, int)> const&)::$_2>, void (CCMenuItemSpriteExtra*)>::__clone(std::__ndk1::__function::__base<void (CCMenuItemSpriteExtra*)>*) const
PUBLIC 46150 0 std::__ndk1::__function::__func<FRSetDifficultyPopup::setup(FakeRateSaveData const&, bool, std::__ndk1::function<void (int, int, int, int, int)> const&)::$_2, std::__ndk1::allocator<FRSetDifficultyPopup::setup(FakeRateSaveData const&, bool, std::__ndk1::function<void (int, int, int, int, int)> const&)::$_2>, void (CCMenuItemSpriteExtra*)>::destroy()
PUBLIC 46154 0 std::__ndk1::__function::__func<FRSetDifficultyPopup::setup(FakeRateSaveData const&, bool, std::__ndk1::function<void (int, int, int, int, int)> const&)::$_2, std::__ndk1::allocator<FRSetDifficultyPopup::setup(FakeRateSaveData const&, bool, std::__ndk1::function<void (int, int, int, int, int)> const&)::$_2>, void (CCMenuItemSpriteExtra*)>::destroy_deallocate()
PUBLIC 46158 0 std::__ndk1::__function::__func<FRSetDifficultyPopup::setup(FakeRateSaveData const&, bool, std::__ndk1::function<void (int, int, int, int, int)> const&)::$_2, std::__ndk1::allocator<FRSetDifficultyPopup::setup(FakeRateSaveData const&, bool, std::__ndk1::function<void (int, int, int, int, int)> const&)::$_2>, void (CCMenuItemSpriteExtra*)>::operator()(CCMenuItemSpriteExtra*&&)
PUBLIC 46244 0 std::__ndk1::__function::__func<FRSetDifficultyPopup::setup(FakeRateSaveData const&, bool, std::__ndk1::function<void (int, int, int, int, int)> const&)::$_2, std::__ndk1::allocator<FRSetDifficultyPopup::setup(FakeRateSaveData const&, bool, std::__ndk1::function<void (int, int, int, int, int)> const&)::$_2>, void (CCMenuItemSpriteExtra*)>::target(std::type_info const&) const
PUBLIC 46260 0 std::__ndk1::__function::__func<FRSetDifficultyPopup::setup(FakeRateSaveData const&, bool, std::__ndk1::function<void (int, int, int, int, int)> const&)::$_2, std::__ndk1::allocator<FRSetDifficultyPopup::setup(FakeRateSaveData const&, bool, std::__ndk1::function<void (int, int, int, int, int)> const&)::$_2>, void (CCMenuItemSpriteExtra*)>::target_type() const
PUBLIC 4626c 0 std::__ndk1::__function::__func<FRSetDifficultyPopup::setup(FakeRateSaveData const&, bool, std::__ndk1::function<void (int, int, int, int, int)> const&)::$_2::operator()<CCMenuItemSpriteExtra*>(CCMenuItemSpriteExtra*) const::{lambda(int)#1}, std::__ndk1::allocator<FRSetDifficultyPopup::setup(FakeRateSaveData const&, bool, std::__ndk1::function<void (int, int, int, int, int)> const&)::$_2::operator()<CCMenuItemSpriteExtra*>(CCMenuItemSpriteExtra*) const::{lambda(int)#1}>, void (int)>::~__func()
PUBLIC 46270 0 std::__ndk1::__function::__func<FRSetDifficultyPopup::setup(FakeRateSaveData const&, bool, std::__ndk1::function<void (int, int, int, int, int)> const&)::$_2::operator()<CCMenuItemSpriteExtra*>(CCMenuItemSpriteExtra*) const::{lambda(int)#1}, std::__ndk1::allocator<FRSetDifficultyPopup::setup(FakeRateSaveData const&, bool, std::__ndk1::function<void (int, int, int, int, int)> const&)::$_2::operator()<CCMenuItemSpriteExtra*>(CCMenuItemSpriteExtra*) const::{lambda(int)#1}>, void (int)>::__clone() const
PUBLIC 462a4 0 std::__ndk1::__function::__func<FRSetDifficultyPopup::setup(FakeRateSaveData const&, bool, std::__ndk1::function<void (int, int, int, int, int)> const&)::$_2::operator()<CCMenuItemSpriteExtra*>(CCMenuItemSpriteExtra*) const::{lambda(int)#1}, std::__ndk1::allocator<FRSetDifficultyPopup::setup(FakeRateSaveData const&, bool, std::__ndk1::function<void (int, int, int, int, int)> const&)::$_2::operator()<CCMenuItemSpriteExtra*>(CCMenuItemSpriteExtra*) const::{lambda(int)#1}>, void (int)>::__clone(std::__ndk1::__function::__base<void (int)>*) const
PUBLIC 462b8 0 std::__ndk1::__function::__func<FRSetDifficultyPopup::setup(FakeRateSaveData const&, bool, std::__ndk1::function<void (int, int, int, int, int)> const&)::$_2::operator()<CCMenuItemSpriteExtra*>(CCMenuItemSpriteExtra*) const::{lambda(int)#1}, std::__ndk1::allocator<FRSetDifficultyPopup::setup(FakeRateSaveData const&, bool, std::__ndk1::function<void (int, int, int, int, int)> const&)::$_2::operator()<CCMenuItemSpriteExtra*>(CCMenuItemSpriteExtra*) const::{lambda(int)#1}>, void (int)>::destroy()
PUBLIC 462bc 0 std::__ndk1::__function::__func<FRSetDifficultyPopup::setup(FakeRateSaveData const&, bool, std::__ndk1::function<void (int, int, int, int, int)> const&)::$_2::operator()<CCMenuItemSpriteExtra*>(CCMenuItemSpriteExtra*) const::{lambda(int)#1}, std::__ndk1::allocator<FRSetDifficultyPopup::setup(FakeRateSaveData const&, bool, std::__ndk1::function<void (int, int, int, int, int)> const&)::$_2::operator()<CCMenuItemSpriteExtra*>(CCMenuItemSpriteExtra*) const::{lambda(int)#1}>, void (int)>::destroy_deallocate()
PUBLIC 462c0 0 std::__ndk1::__function::__func<FRSetDifficultyPopup::setup(FakeRateSaveData const&, bool, std::__ndk1::function<void (int, int, int, int, int)> const&)::$_2::operator()<CCMenuItemSpriteExtra*>(CCMenuItemSpriteExtra*) const::{lambda(int)#1}, std::__ndk1::allocator<FRSetDifficultyPopup::setup(FakeRateSaveData const&, bool, std::__ndk1::function<void (int, int, int, int, int)> const&)::$_2::operator()<CCMenuItemSpriteExtra*>(CCMenuItemSpriteExtra*) const::{lambda(int)#1}>, void (int)>::operator()(int&&)
PUBLIC 462d8 0 std::__ndk1::__function::__func<FRSetDifficultyPopup::setup(FakeRateSaveData const&, bool, std::__ndk1::function<void (int, int, int, int, int)> const&)::$_2::operator()<CCMenuItemSpriteExtra*>(CCMenuItemSpriteExtra*) const::{lambda(int)#1}, std::__ndk1::allocator<FRSetDifficultyPopup::setup(FakeRateSaveData const&, bool, std::__ndk1::function<void (int, int, int, int, int)> const&)::$_2::operator()<CCMenuItemSpriteExtra*>(CCMenuItemSpriteExtra*) const::{lambda(int)#1}>, void (int)>::target(std::type_info const&) const
PUBLIC 462f4 0 std::__ndk1::__function::__func<FRSetDifficultyPopup::setup(FakeRateSaveData const&, bool, std::__ndk1::function<void (int, int, int, int, int)> const&)::$_2::operator()<CCMenuItemSpriteExtra*>(CCMenuItemSpriteExtra*) const::{lambda(int)#1}, std::__ndk1::allocator<FRSetDifficultyPopup::setup(FakeRateSaveData const&, bool, std::__ndk1::function<void (int, int, int, int, int)> const&)::$_2::operator()<CCMenuItemSpriteExtra*>(CCMenuItemSpriteExtra*) const::{lambda(int)#1}>, void (int)>::target_type() const
PUBLIC 46300 0 std::__ndk1::__function::__func<FRSetDifficultyPopup::setup(FakeRateSaveData const&, bool, std::__ndk1::function<void (int, int, int, int, int)> const&)::$_3, std::__ndk1::allocator<FRSetDifficultyPopup::setup(FakeRateSaveData const&, bool, std::__ndk1::function<void (int, int, int, int, int)> const&)::$_3>, void (CCMenuItemSpriteExtra*)>::~__func()
PUBLIC 46304 0 std::__ndk1::__function::__func<FRSetDifficultyPopup::setup(FakeRateSaveData const&, bool, std::__ndk1::function<void (int, int, int, int, int)> const&)::$_3, std::__ndk1::allocator<FRSetDifficultyPopup::setup(FakeRateSaveData const&, bool, std::__ndk1::function<void (int, int, int, int, int)> const&)::$_3>, void (CCMenuItemSpriteExtra*)>::__clone() const
PUBLIC 46338 0 std::__ndk1::__function::__func<FRSetDifficultyPopup::setup(FakeRateSaveData const&, bool, std::__ndk1::function<void (int, int, int, int, int)> const&)::$_3, std::__ndk1::allocator<FRSetDifficultyPopup::setup(FakeRateSaveData const&, bool, std::__ndk1::function<void (int, int, int, int, int)> const&)::$_3>, void (CCMenuItemSpriteExtra*)>::__clone(std::__ndk1::__function::__base<void (CCMenuItemSpriteExtra*)>*) const
PUBLIC 4634c 0 std::__ndk1::__function::__func<FRSetDifficultyPopup::setup(FakeRateSaveData const&, bool, std::__ndk1::function<void (int, int, int, int, int)> const&)::$_3, std::__ndk1::allocator<FRSetDifficultyPopup::setup(FakeRateSaveData const&, bool, std::__ndk1::function<void (int, int, int, int, int)> const&)::$_3>, void (CCMenuItemSpriteExtra*)>::destroy()
PUBLIC 46350 0 std::__ndk1::__function::__func<FRSetDifficultyPopup::setup(FakeRateSaveData const&, bool, std::__ndk1::function<void (int, int, int, int, int)> const&)::$_3, std::__ndk1::allocator<FRSetDifficultyPopup::setup(FakeRateSaveData const&, bool, std::__ndk1::function<void (int, int, int, int, int)> const&)::$_3>, void (CCMenuItemSpriteExtra*)>::destroy_deallocate()
PUBLIC 46354 0 std::__ndk1::__function::__func<FRSetDifficultyPopup::setup(FakeRateSaveData const&, bool, std::__ndk1::function<void (int, int, int, int, int)> const&)::$_3, std::__ndk1::allocator<FRSetDifficultyPopup::setup(FakeRateSaveData const&, bool, std::__ndk1::function<void (int, int, int, int, int)> const&)::$_3>, void (CCMenuItemSpriteExtra*)>::operator()(CCMenuItemSpriteExtra*&&)
PUBLIC 46440 0 std::__ndk1::__function::__func<FRSetDifficultyPopup::setup(FakeRateSaveData const&, bool, std::__ndk1::function<void (int, int, int, int, int)> const&)::$_3, std::__ndk1::allocator<FRSetDifficultyPopup::setup(FakeRateSaveData const&, bool, std::__ndk1::function<void (int, int, int, int, int)> const&)::$_3>, void (CCMenuItemSpriteExtra*)>::target(std::type_info const&) const
PUBLIC 4645c 0 std::__ndk1::__function::__func<FRSetDifficultyPopup::setup(FakeRateSaveData const&, bool, std::__ndk1::function<void (int, int, int, int, int)> const&)::$_3, std::__ndk1::allocator<FRSetDifficultyPopup::setup(FakeRateSaveData const&, bool, std::__ndk1::function<void (int, int, int, int, int)> const&)::$_3>, void (CCMenuItemSpriteExtra*)>::target_type() const
PUBLIC 46468 0 std::__ndk1::__function::__func<FRSetDifficultyPopup::setup(FakeRateSaveData const&, bool, std::__ndk1::function<void (int, int, int, int, int)> const&)::$_3::operator()<CCMenuItemSpriteExtra*>(CCMenuItemSpriteExtra*) const::{lambda(int)#1}, std::__ndk1::allocator<FRSetDifficultyPopup::setup(FakeRateSaveData const&, bool, std::__ndk1::function<void (int, int, int, int, int)> const&)::$_3::operator()<CCMenuItemSpriteExtra*>(CCMenuItemSpriteExtra*) const::{lambda(int)#1}>, void (int)>::~__func()
PUBLIC 4646c 0 std::__ndk1::__function::__func<FRSetDifficultyPopup::setup(FakeRateSaveData const&, bool, std::__ndk1::function<void (int, int, int, int, int)> const&)::$_3::operator()<CCMenuItemSpriteExtra*>(CCMenuItemSpriteExtra*) const::{lambda(int)#1}, std::__ndk1::allocator<FRSetDifficultyPopup::setup(FakeRateSaveData const&, bool, std::__ndk1::function<void (int, int, int, int, int)> const&)::$_3::operator()<CCMenuItemSpriteExtra*>(CCMenuItemSpriteExtra*) const::{lambda(int)#1}>, void (int)>::__clone() const
PUBLIC 464a0 0 std::__ndk1::__function::__func<FRSetDifficultyPopup::setup(FakeRateSaveData const&, bool, std::__ndk1::function<void (int, int, int, int, int)> const&)::$_3::operator()<CCMenuItemSpriteExtra*>(CCMenuItemSpriteExtra*) const::{lambda(int)#1}, std::__ndk1::allocator<FRSetDifficultyPopup::setup(FakeRateSaveData const&, bool, std::__ndk1::function<void (int, int, int, int, int)> const&)::$_3::operator()<CCMenuItemSpriteExtra*>(CCMenuItemSpriteExtra*) const::{lambda(int)#1}>, void (int)>::__clone(std::__ndk1::__function::__base<void (int)>*) const
PUBLIC 464b4 0 std::__ndk1::__function::__func<FRSetDifficultyPopup::setup(FakeRateSaveData const&, bool, std::__ndk1::function<void (int, int, int, int, int)> const&)::$_3::operator()<CCMenuItemSpriteExtra*>(CCMenuItemSpriteExtra*) const::{lambda(int)#1}, std::__ndk1::allocator<FRSetDifficultyPopup::setup(FakeRateSaveData const&, bool, std::__ndk1::function<void (int, int, int, int, int)> const&)::$_3::operator()<CCMenuItemSpriteExtra*>(CCMenuItemSpriteExtra*) const::{lambda(int)#1}>, void (int)>::destroy()
PUBLIC 464b8 0 std::__ndk1::__function::__func<FRSetDifficultyPopup::setup(FakeRateSaveData const&, bool, std::__ndk1::function<void (int, int, int, int, int)> const&)::$_3::operator()<CCMenuItemSpriteExtra*>(CCMenuItemSpriteExtra*) const::{lambda(int)#1}, std::__ndk1::allocator<FRSetDifficultyPopup::setup(FakeRateSaveData const&, bool, std::__ndk1::function<void (int, int, int, int, int)> const&)::$_3::operator()<CCMenuItemSpriteExtra*>(CCMenuItemSpriteExtra*) const::{lambda(int)#1}>, void (int)>::destroy_deallocate()
PUBLIC 464bc 0 std::__ndk1::__function::__func<FRSetDifficultyPopup::setup(FakeRateSaveData const&, bool, std::__ndk1::function<void (int, int, int, int, int)> const&)::$_3::operator()<CCMenuItemSpriteExtra*>(CCMenuItemSpriteExtra*) const::{lambda(int)#1}, std::__ndk1::allocator<FRSetDifficultyPopup::setup(FakeRateSaveData const&, bool, std::__ndk1::function<void (int, int, int, int, int)> const&)::$_3::operator()<CCMenuItemSpriteExtra*>(CCMenuItemSpriteExtra*) const::{lambda(int)#1}>, void (int)>::operator()(int&&)
PUBLIC 464d4 0 std::__ndk1::__function::__func<FRSetDifficultyPopup::setup(FakeRateSaveData const&, bool, std::__ndk1::function<void (int, int, int, int, int)> const&)::$_3::operator()<CCMenuItemSpriteExtra*>(CCMenuItemSpriteExtra*) const::{lambda(int)#1}, std::__ndk1::allocator<FRSetDifficultyPopup::setup(FakeRateSaveData const&, bool, std::__ndk1::function<void (int, int, int, int, int)> const&)::$_3::operator()<CCMenuItemSpriteExtra*>(CCMenuItemSpriteExtra*) const::{lambda(int)#1}>, void (int)>::target(std::type_info const&) const
PUBLIC 464f0 0 std::__ndk1::__function::__func<FRSetDifficultyPopup::setup(FakeRateSaveData const&, bool, std::__ndk1::function<void (int, int, int, int, int)> const&)::$_3::operator()<CCMenuItemSpriteExtra*>(CCMenuItemSpriteExtra*) const::{lambda(int)#1}, std::__ndk1::allocator<FRSetDifficultyPopup::setup(FakeRateSaveData const&, bool, std::__ndk1::function<void (int, int, int, int, int)> const&)::$_3::operator()<CCMenuItemSpriteExtra*>(CCMenuItemSpriteExtra*) const::{lambda(int)#1}>, void (int)>::target_type() const
PUBLIC 464fc 0 FRSetFeaturePopup::create(FakeRateSaveData const&, bool, std::__ndk1::function<void (int)> const&)
PUBLIC 46688 0 FRSetFeaturePopup::setup(FakeRateSaveData const&, bool, std::__ndk1::function<void (int)> const&)
PUBLIC 479a8 0 geode::Popup<FakeRateSaveData const&, bool, std::__ndk1::function<void (int)> const&>::~Popup()
PUBLIC 47a14 0 FRSetFeaturePopup::~FRSetFeaturePopup()
PUBLIC 47a88 0 geode::Popup<FakeRateSaveData const&, bool, std::__ndk1::function<void (int)> const&>::registerWithTouchDispatcher()
PUBLIC 47ab4 0 geode::Popup<FakeRateSaveData const&, bool, std::__ndk1::function<void (int)> const&>::keyDown(cocos2d::enumKeyCodes)
PUBLIC 47adc 0 geode::Popup<FakeRateSaveData const&, bool, std::__ndk1::function<void (int)> const&>::onClose(cocos2d::CCObject*)
PUBLIC 47c24 0 {virtual override thunk({offset(-320)}, FRSetFeaturePopup::~FRSetFeaturePopup())}
PUBLIC 47c90 0 {virtual override thunk({offset(-320)}, FRSetFeaturePopup::~FRSetFeaturePopup())}
PUBLIC 47d04 0 {virtual override thunk({offset(-344)}, geode::Popup<FakeRateSaveData const&, bool, std::__ndk1::function<void (int)> const&>::keyDown(cocos2d::enumKeyCodes))}
PUBLIC 47d30 0 geode::Popup<FakeRateSaveData const&, bool, std::__ndk1::function<void (int)> const&>::~Popup()
PUBLIC 47d34 0 {virtual override thunk({offset(-320)}, geode::Popup<FakeRateSaveData const&, bool, std::__ndk1::function<void (int)> const&>::~Popup())}
PUBLIC 47da0 0 {virtual override thunk({offset(-320)}, geode::Popup<FakeRateSaveData const&, bool, std::__ndk1::function<void (int)> const&>::~Popup())}
PUBLIC 47da4 0 geode::Popup<FakeRateSaveData const&, bool, std::__ndk1::function<void (int)> const&>::initBase(float, float, FakeRateSaveData const&, bool, std::__ndk1::function<void (int)> const&, char const*, cocos2d::CCRect, bool)
PUBLIC 480b0 0 std::__ndk1::__function::__func<FRSetFeaturePopup::setup(FakeRateSaveData const&, bool, std::__ndk1::function<void (int)> const&)::$_1, std::__ndk1::allocator<FRSetFeaturePopup::setup(FakeRateSaveData const&, bool, std::__ndk1::function<void (int)> const&)::$_1>, void (CCMenuItemSpriteExtra*)>::~__func()
PUBLIC 480b4 0 std::__ndk1::__function::__func<FRSetFeaturePopup::setup(FakeRateSaveData const&, bool, std::__ndk1::function<void (int)> const&)::$_1, std::__ndk1::allocator<FRSetFeaturePopup::setup(FakeRateSaveData const&, bool, std::__ndk1::function<void (int)> const&)::$_1>, void (CCMenuItemSpriteExtra*)>::__clone() const
PUBLIC 480ec 0 std::__ndk1::__function::__func<FRSetFeaturePopup::setup(FakeRateSaveData const&, bool, std::__ndk1::function<void (int)> const&)::$_1, std::__ndk1::allocator<FRSetFeaturePopup::setup(FakeRateSaveData const&, bool, std::__ndk1::function<void (int)> const&)::$_1>, void (CCMenuItemSpriteExtra*)>::__clone(std::__ndk1::__function::__base<void (CCMenuItemSpriteExtra*)>*) const
PUBLIC 48104 0 std::__ndk1::__function::__func<FRSetFeaturePopup::setup(FakeRateSaveData const&, bool, std::__ndk1::function<void (int)> const&)::$_1, std::__ndk1::allocator<FRSetFeaturePopup::setup(FakeRateSaveData const&, bool, std::__ndk1::function<void (int)> const&)::$_1>, void (CCMenuItemSpriteExtra*)>::destroy()
PUBLIC 48108 0 std::__ndk1::__function::__func<FRSetFeaturePopup::setup(FakeRateSaveData const&, bool, std::__ndk1::function<void (int)> const&)::$_1, std::__ndk1::allocator<FRSetFeaturePopup::setup(FakeRateSaveData const&, bool, std::__ndk1::function<void (int)> const&)::$_1>, void (CCMenuItemSpriteExtra*)>::destroy_deallocate()
PUBLIC 4810c 0 std::__ndk1::__function::__func<FRSetFeaturePopup::setup(FakeRateSaveData const&, bool, std::__ndk1::function<void (int)> const&)::$_1, std::__ndk1::allocator<FRSetFeaturePopup::setup(FakeRateSaveData const&, bool, std::__ndk1::function<void (int)> const&)::$_1>, void (CCMenuItemSpriteExtra*)>::operator()(CCMenuItemSpriteExtra*&&)
PUBLIC 482f0 0 std::__ndk1::__function::__func<FRSetFeaturePopup::setup(FakeRateSaveData const&, bool, std::__ndk1::function<void (int)> const&)::$_1, std::__ndk1::allocator<FRSetFeaturePopup::setup(FakeRateSaveData const&, bool, std::__ndk1::function<void (int)> const&)::$_1>, void (CCMenuItemSpriteExtra*)>::target(std::type_info const&) const
PUBLIC 4830c 0 std::__ndk1::__function::__func<FRSetFeaturePopup::setup(FakeRateSaveData const&, bool, std::__ndk1::function<void (int)> const&)::$_1, std::__ndk1::allocator<FRSetFeaturePopup::setup(FakeRateSaveData const&, bool, std::__ndk1::function<void (int)> const&)::$_1>, void (CCMenuItemSpriteExtra*)>::target_type() const
PUBLIC 48318 0 geode::Popup<FakeRateSaveData const&, bool, std::__ndk1::function<void (int)> const&>::CloseEvent::~CloseEvent()
PUBLIC 48378 0 geode::Popup<FakeRateSaveData const&, bool, std::__ndk1::function<void (int)> const&>::CloseEvent::~CloseEvent()
PUBLIC 483e8 0 std::__ndk1::__shared_ptr_emplace<geode::Popup<FakeRateSaveData const&, bool, std::__ndk1::function<void (int)> const&>::CloseEvent::Impl, std::__ndk1::allocator<geode::Popup<FakeRateSaveData const&, bool, std::__ndk1::function<void (int)> const&>::CloseEvent::Impl> >::~__shared_ptr_emplace()
PUBLIC 483f8 0 std::__ndk1::__shared_ptr_emplace<geode::Popup<FakeRateSaveData const&, bool, std::__ndk1::function<void (int)> const&>::CloseEvent::Impl, std::__ndk1::allocator<geode::Popup<FakeRateSaveData const&, bool, std::__ndk1::function<void (int)> const&>::CloseEvent::Impl> >::~__shared_ptr_emplace()
PUBLIC 48428 0 std::__ndk1::__shared_ptr_emplace<geode::Popup<FakeRateSaveData const&, bool, std::__ndk1::function<void (int)> const&>::CloseEvent::Impl, std::__ndk1::allocator<geode::Popup<FakeRateSaveData const&, bool, std::__ndk1::function<void (int)> const&>::CloseEvent::Impl> >::__on_zero_shared()
PUBLIC 4842c 0 std::__ndk1::__shared_ptr_emplace<geode::Popup<FakeRateSaveData const&, bool, std::__ndk1::function<void (int)> const&>::CloseEvent::Impl, std::__ndk1::allocator<geode::Popup<FakeRateSaveData const&, bool, std::__ndk1::function<void (int)> const&>::CloseEvent::Impl> >::__on_zero_shared_weak()
PUBLIC 48430 0 std::__ndk1::__function::__func<FRSetFeaturePopup::setup(FakeRateSaveData const&, bool, std::__ndk1::function<void (int)> const&)::$_0, std::__ndk1::allocator<FRSetFeaturePopup::setup(FakeRateSaveData const&, bool, std::__ndk1::function<void (int)> const&)::$_0>, void (CCMenuItemSpriteExtra*)>::~__func()
PUBLIC 4847c 0 std::__ndk1::__function::__func<FRSetFeaturePopup::setup(FakeRateSaveData const&, bool, std::__ndk1::function<void (int)> const&)::$_0, std::__ndk1::allocator<FRSetFeaturePopup::setup(FakeRateSaveData const&, bool, std::__ndk1::function<void (int)> const&)::$_0>, void (CCMenuItemSpriteExtra*)>::~__func()
PUBLIC 484d8 0 std::__ndk1::__function::__func<FRSetFeaturePopup::setup(FakeRateSaveData const&, bool, std::__ndk1::function<void (int)> const&)::$_0, std::__ndk1::allocator<FRSetFeaturePopup::setup(FakeRateSaveData const&, bool, std::__ndk1::function<void (int)> const&)::$_0>, void (CCMenuItemSpriteExtra*)>::__clone() const
PUBLIC 48574 0 std::__ndk1::__function::__func<FRSetFeaturePopup::setup(FakeRateSaveData const&, bool, std::__ndk1::function<void (int)> const&)::$_0, std::__ndk1::allocator<FRSetFeaturePopup::setup(FakeRateSaveData const&, bool, std::__ndk1::function<void (int)> const&)::$_0>, void (CCMenuItemSpriteExtra*)>::__clone(std::__ndk1::__function::__base<void (CCMenuItemSpriteExtra*)>*) const
PUBLIC 485fc 0 std::__ndk1::__function::__func<FRSetFeaturePopup::setup(FakeRateSaveData const&, bool, std::__ndk1::function<void (int)> const&)::$_0, std::__ndk1::allocator<FRSetFeaturePopup::setup(FakeRateSaveData const&, bool, std::__ndk1::function<void (int)> const&)::$_0>, void (CCMenuItemSpriteExtra*)>::destroy()
PUBLIC 4863c 0 std::__ndk1::__function::__func<FRSetFeaturePopup::setup(FakeRateSaveData const&, bool, std::__ndk1::function<void (int)> const&)::$_0, std::__ndk1::allocator<FRSetFeaturePopup::setup(FakeRateSaveData const&, bool, std::__ndk1::function<void (int)> const&)::$_0>, void (CCMenuItemSpriteExtra*)>::destroy_deallocate()
PUBLIC 4868c 0 std::__ndk1::__function::__func<FRSetFeaturePopup::setup(FakeRateSaveData const&, bool, std::__ndk1::function<void (int)> const&)::$_0, std::__ndk1::allocator<FRSetFeaturePopup::setup(FakeRateSaveData const&, bool, std::__ndk1::function<void (int)> const&)::$_0>, void (CCMenuItemSpriteExtra*)>::operator()(CCMenuItemSpriteExtra*&&)
PUBLIC 48718 0 std::__ndk1::__function::__func<FRSetFeaturePopup::setup(FakeRateSaveData const&, bool, std::__ndk1::function<void (int)> const&)::$_0, std::__ndk1::allocator<FRSetFeaturePopup::setup(FakeRateSaveData const&, bool, std::__ndk1::function<void (int)> const&)::$_0>, void (CCMenuItemSpriteExtra*)>::target(std::type_info const&) const
PUBLIC 48734 0 std::__ndk1::__function::__func<FRSetFeaturePopup::setup(FakeRateSaveData const&, bool, std::__ndk1::function<void (int)> const&)::$_0, std::__ndk1::allocator<FRSetFeaturePopup::setup(FakeRateSaveData const&, bool, std::__ndk1::function<void (int)> const&)::$_0>, void (CCMenuItemSpriteExtra*)>::target_type() const
PUBLIC 48740 0 FRSetStarsPopup::create(int, bool, std::__ndk1::function<void (int)> const&)
PUBLIC 488cc 0 FRSetStarsPopup::setup(int, bool, std::__ndk1::function<void (int)> const&)
PUBLIC 494dc 0 geode::Popup<int, bool, std::__ndk1::function<void (int)> const&>::~Popup()
PUBLIC 49548 0 FRSetStarsPopup::~FRSetStarsPopup()
PUBLIC 495bc 0 geode::Popup<int, bool, std::__ndk1::function<void (int)> const&>::registerWithTouchDispatcher()
PUBLIC 495e8 0 geode::Popup<int, bool, std::__ndk1::function<void (int)> const&>::keyDown(cocos2d::enumKeyCodes)
PUBLIC 49610 0 geode::Popup<int, bool, std::__ndk1::function<void (int)> const&>::onClose(cocos2d::CCObject*)
PUBLIC 49758 0 {virtual override thunk({offset(-320)}, FRSetStarsPopup::~FRSetStarsPopup())}
PUBLIC 497c4 0 {virtual override thunk({offset(-320)}, FRSetStarsPopup::~FRSetStarsPopup())}
PUBLIC 49838 0 {virtual override thunk({offset(-344)}, geode::Popup<int, bool, std::__ndk1::function<void (int)> const&>::keyDown(cocos2d::enumKeyCodes))}
PUBLIC 49864 0 geode::Popup<int, bool, std::__ndk1::function<void (int)> const&>::~Popup()
PUBLIC 49868 0 {virtual override thunk({offset(-320)}, geode::Popup<int, bool, std::__ndk1::function<void (int)> const&>::~Popup())}
PUBLIC 498d4 0 {virtual override thunk({offset(-320)}, geode::Popup<int, bool, std::__ndk1::function<void (int)> const&>::~Popup())}
PUBLIC 498d8 0 geode::Popup<int, bool, std::__ndk1::function<void (int)> const&>::initBase(float, float, int, bool, std::__ndk1::function<void (int)> const&, char const*, cocos2d::CCRect, bool)
PUBLIC 49be4 0 std::__ndk1::__function::__base<void (std::__ndk1::basic_string<char, std::__ndk1::char_traits<char>, std::__ndk1::allocator<char> > const&)>::~__base()
PUBLIC 49be8 0 std::__ndk1::__function::__func<FRSetStarsPopup::setup(int, bool, std::__ndk1::function<void (int)> const&)::$_3, std::__ndk1::allocator<FRSetStarsPopup::setup(int, bool, std::__ndk1::function<void (int)> const&)::$_3>, void (std::__ndk1::basic_string<char, std::__ndk1::char_traits<char>, std::__ndk1::allocator<char> > const&)>::~__func()
PUBLIC 49bec 0 std::__ndk1::__function::__func<FRSetStarsPopup::setup(int, bool, std::__ndk1::function<void (int)> const&)::$_3, std::__ndk1::allocator<FRSetStarsPopup::setup(int, bool, std::__ndk1::function<void (int)> const&)::$_3>, void (std::__ndk1::basic_string<char, std::__ndk1::char_traits<char>, std::__ndk1::allocator<char> > const&)>::__clone() const
PUBLIC 49c20 0 std::__ndk1::__function::__func<FRSetStarsPopup::setup(int, bool, std::__ndk1::function<void (int)> const&)::$_3, std::__ndk1::allocator<FRSetStarsPopup::setup(int, bool, std::__ndk1::function<void (int)> const&)::$_3>, void (std::__ndk1::basic_string<char, std::__ndk1::char_traits<char>, std::__ndk1::allocator<char> > const&)>::__clone(std::__ndk1::__function::__base<void (std::__ndk1::basic_string<char, std::__ndk1::char_traits<char>, std::__ndk1::allocator<char> > const&)>*) const
PUBLIC 49c34 0 std::__ndk1::__function::__func<FRSetStarsPopup::setup(int, bool, std::__ndk1::function<void (int)> const&)::$_3, std::__ndk1::allocator<FRSetStarsPopup::setup(int, bool, std::__ndk1::function<void (int)> const&)::$_3>, void (std::__ndk1::basic_string<char, std::__ndk1::char_traits<char>, std::__ndk1::allocator<char> > const&)>::destroy()
PUBLIC 49c38 0 std::__ndk1::__function::__func<FRSetStarsPopup::setup(int, bool, std::__ndk1::function<void (int)> const&)::$_3, std::__ndk1::allocator<FRSetStarsPopup::setup(int, bool, std::__ndk1::function<void (int)> const&)::$_3>, void (std::__ndk1::basic_string<char, std::__ndk1::char_traits<char>, std::__ndk1::allocator<char> > const&)>::destroy_deallocate()
PUBLIC 49c3c 0 std::__ndk1::__function::__func<FRSetStarsPopup::setup(int, bool, std::__ndk1::function<void (int)> const&)::$_3, std::__ndk1::allocator<FRSetStarsPopup::setup(int, bool, std::__ndk1::function<void (int)> const&)::$_3>, void (std::__ndk1::basic_string<char, std::__ndk1::char_traits<char>, std::__ndk1::allocator<char> > const&)>::operator()(std::__ndk1::basic_string<char, std::__ndk1::char_traits<char>, std::__ndk1::allocator<char> > const&)
PUBLIC 4a0c0 0 std::__ndk1::__function::__func<FRSetStarsPopup::setup(int, bool, std::__ndk1::function<void (int)> const&)::$_3, std::__ndk1::allocator<FRSetStarsPopup::setup(int, bool, std::__ndk1::function<void (int)> const&)::$_3>, void (std::__ndk1::basic_string<char, std::__ndk1::char_traits<char>, std::__ndk1::allocator<char> > const&)>::target(std::type_info const&) const
PUBLIC 4a0dc 0 std::__ndk1::__function::__func<FRSetStarsPopup::setup(int, bool, std::__ndk1::function<void (int)> const&)::$_3, std::__ndk1::allocator<FRSetStarsPopup::setup(int, bool, std::__ndk1::function<void (int)> const&)::$_3>, void (std::__ndk1::basic_string<char, std::__ndk1::char_traits<char>, std::__ndk1::allocator<char> > const&)>::target_type() const
PUBLIC 4a0e8 0 std::__ndk1::__variant_detail::__visitation::__base::__dispatcher<(unsigned long)0>::__dispatch[abi:ne180000]<std::__ndk1::__variant_detail::__dtor<std::__ndk1::__variant_detail::__traits<long, std::__ndk1::basic_string<char, std::__ndk1::char_traits<char>, std::__ndk1::allocator<char> > >, (std::__ndk1::__variant_detail::_Trait)1>::__destroy[abi:ne180000]()::{lambda(auto:1&)#1}, std::__ndk1::__variant_detail::__base<(std::__ndk1::__variant_detail::__traits<long, std::__ndk1::basic_string<char, std::__ndk1::char_traits<char>, std::__ndk1::allocator<char> > >)1, long, std::__ndk1::allocator<char> >&>(std::__ndk1::__variant_detail::__dtor<std::__ndk1::__variant_detail::__traits<long, std::__ndk1::basic_string<char, std::__ndk1::char_traits<char>, std::__ndk1::allocator<char> > >, (std::__ndk1::__variant_detail::_Trait)1>, std::__ndk1::__variant_detail::__base<(std::__ndk1::__variant_detail::__traits<long, std::__ndk1::basic_string<char, std::__ndk1::char_traits<char>, std::__ndk1::allocator<char> > >)1, long, std::__ndk1::allocator<char> >&)
PUBLIC 4a0ec 0 std::__ndk1::__variant_detail::__visitation::__base::__dispatcher<(unsigned long)1>::__dispatch[abi:ne180000]<std::__ndk1::__variant_detail::__dtor<std::__ndk1::__variant_detail::__traits<long, std::__ndk1::basic_string<char, std::__ndk1::char_traits<char>, std::__ndk1::allocator<char> > >, (std::__ndk1::__variant_detail::_Trait)1>::__destroy[abi:ne180000]()::{lambda(auto:1&)#1}, std::__ndk1::__variant_detail::__base<(std::__ndk1::__variant_detail::__traits<long, std::__ndk1::basic_string<char, std::__ndk1::char_traits<char>, std::__ndk1::allocator<char> > >)1, long, std::__ndk1::allocator<char> >&>(std::__ndk1::__variant_detail::__dtor<std::__ndk1::__variant_detail::__traits<long, std::__ndk1::basic_string<char, std::__ndk1::char_traits<char>, std::__ndk1::allocator<char> > >, (std::__ndk1::__variant_detail::_Trait)1>, std::__ndk1::__variant_detail::__base<(std::__ndk1::__variant_detail::__traits<long, std::__ndk1::basic_string<char, std::__ndk1::char_traits<char>, std::__ndk1::allocator<char> > >)1, long, std::__ndk1::allocator<char> >&)
PUBLIC 4a100 0 std::__ndk1::__function::__func<FRSetStarsPopup::setup(int, bool, std::__ndk1::function<void (int)> const&)::$_0, std::__ndk1::allocator<FRSetStarsPopup::setup(int, bool, std::__ndk1::function<void (int)> const&)::$_0>, void (CCMenuItemSpriteExtra*)>::~__func()
PUBLIC 4a104 0 std::__ndk1::__function::__func<FRSetStarsPopup::setup(int, bool, std::__ndk1::function<void (int)> const&)::$_0, std::__ndk1::allocator<FRSetStarsPopup::setup(int, bool, std::__ndk1::function<void (int)> const&)::$_0>, void (CCMenuItemSpriteExtra*)>::__clone() const
PUBLIC 4a138 0 std::__ndk1::__function::__func<FRSetStarsPopup::setup(int, bool, std::__ndk1::function<void (int)> const&)::$_0, std::__ndk1::allocator<FRSetStarsPopup::setup(int, bool, std::__ndk1::function<void (int)> const&)::$_0>, void (CCMenuItemSpriteExtra*)>::__clone(std::__ndk1::__function::__base<void (CCMenuItemSpriteExtra*)>*) const
PUBLIC 4a14c 0 std::__ndk1::__function::__func<FRSetStarsPopup::setup(int, bool, std::__ndk1::function<void (int)> const&)::$_0, std::__ndk1::allocator<FRSetStarsPopup::setup(int, bool, std::__ndk1::function<void (int)> const&)::$_0>, void (CCMenuItemSpriteExtra*)>::destroy()
PUBLIC 4a150 0 std::__ndk1::__function::__func<FRSetStarsPopup::setup(int, bool, std::__ndk1::function<void (int)> const&)::$_0, std::__ndk1::allocator<FRSetStarsPopup::setup(int, bool, std::__ndk1::function<void (int)> const&)::$_0>, void (CCMenuItemSpriteExtra*)>::destroy_deallocate()
PUBLIC 4a154 0 std::__ndk1::__function::__func<FRSetStarsPopup::setup(int, bool, std::__ndk1::function<void (int)> const&)::$_0, std::__ndk1::allocator<FRSetStarsPopup::setup(int, bool, std::__ndk1::function<void (int)> const&)::$_0>, void (CCMenuItemSpriteExtra*)>::operator()(CCMenuItemSpriteExtra*&&)
PUBLIC 4a240 0 std::__ndk1::__function::__func<FRSetStarsPopup::setup(int, bool, std::__ndk1::function<void (int)> const&)::$_0, std::__ndk1::allocator<FRSetStarsPopup::setup(int, bool, std::__ndk1::function<void (int)> const&)::$_0>, void (CCMenuItemSpriteExtra*)>::target(std::type_info const&) const
PUBLIC 4a25c 0 std::__ndk1::__function::__func<FRSetStarsPopup::setup(int, bool, std::__ndk1::function<void (int)> const&)::$_0, std::__ndk1::allocator<FRSetStarsPopup::setup(int, bool, std::__ndk1::function<void (int)> const&)::$_0>, void (CCMenuItemSpriteExtra*)>::target_type() const
PUBLIC 4a268 0 std::__ndk1::__function::__func<FRSetStarsPopup::setup(int, bool, std::__ndk1::function<void (int)> const&)::$_1, std::__ndk1::allocator<FRSetStarsPopup::setup(int, bool, std::__ndk1::function<void (int)> const&)::$_1>, void (CCMenuItemSpriteExtra*)>::~__func()
PUBLIC 4a26c 0 std::__ndk1::__function::__func<FRSetStarsPopup::setup(int, bool, std::__ndk1::function<void (int)> const&)::$_1, std::__ndk1::allocator<FRSetStarsPopup::setup(int, bool, std::__ndk1::function<void (int)> const&)::$_1>, void (CCMenuItemSpriteExtra*)>::__clone() const
PUBLIC 4a2a0 0 std::__ndk1::__function::__func<FRSetStarsPopup::setup(int, bool, std::__ndk1::function<void (int)> const&)::$_1, std::__ndk1::allocator<FRSetStarsPopup::setup(int, bool, std::__ndk1::function<void (int)> const&)::$_1>, void (CCMenuItemSpriteExtra*)>::__clone(std::__ndk1::__function::__base<void (CCMenuItemSpriteExtra*)>*) const
PUBLIC 4a2b4 0 std::__ndk1::__function::__func<FRSetStarsPopup::setup(int, bool, std::__ndk1::function<void (int)> const&)::$_1, std::__ndk1::allocator<FRSetStarsPopup::setup(int, bool, std::__ndk1::function<void (int)> const&)::$_1>, void (CCMenuItemSpriteExtra*)>::destroy()
PUBLIC 4a2b8 0 std::__ndk1::__function::__func<FRSetStarsPopup::setup(int, bool, std::__ndk1::function<void (int)> const&)::$_1, std::__ndk1::allocator<FRSetStarsPopup::setup(int, bool, std::__ndk1::function<void (int)> const&)::$_1>, void (CCMenuItemSpriteExtra*)>::destroy_deallocate()
PUBLIC 4a2bc 0 std::__ndk1::__function::__func<FRSetStarsPopup::setup(int, bool, std::__ndk1::function<void (int)> const&)::$_1, std::__ndk1::allocator<FRSetStarsPopup::setup(int, bool, std::__ndk1::function<void (int)> const&)::$_1>, void (CCMenuItemSpriteExtra*)>::operator()(CCMenuItemSpriteExtra*&&)
PUBLIC 4a3a8 0 std::__ndk1::__function::__func<FRSetStarsPopup::setup(int, bool, std::__ndk1::function<void (int)> const&)::$_1, std::__ndk1::allocator<FRSetStarsPopup::setup(int, bool, std::__ndk1::function<void (int)> const&)::$_1>, void (CCMenuItemSpriteExtra*)>::target(std::type_info const&) const
PUBLIC 4a3c4 0 std::__ndk1::__function::__func<FRSetStarsPopup::setup(int, bool, std::__ndk1::function<void (int)> const&)::$_1, std::__ndk1::allocator<FRSetStarsPopup::setup(int, bool, std::__ndk1::function<void (int)> const&)::$_1>, void (CCMenuItemSpriteExtra*)>::target_type() const
PUBLIC 4a3d0 0 geode::Popup<int, bool, std::__ndk1::function<void (int)> const&>::CloseEvent::~CloseEvent()
PUBLIC 4a430 0 geode::Popup<int, bool, std::__ndk1::function<void (int)> const&>::CloseEvent::~CloseEvent()
PUBLIC 4a4a0 0 std::__ndk1::__shared_ptr_emplace<geode::Popup<int, bool, std::__ndk1::function<void (int)> const&>::CloseEvent::Impl, std::__ndk1::allocator<geode::Popup<int, bool, std::__ndk1::function<void (int)> const&>::CloseEvent::Impl> >::~__shared_ptr_emplace()
PUBLIC 4a4b0 0 std::__ndk1::__shared_ptr_emplace<geode::Popup<int, bool, std::__ndk1::function<void (int)> const&>::CloseEvent::Impl, std::__ndk1::allocator<geode::Popup<int, bool, std::__ndk1::function<void (int)> const&>::CloseEvent::Impl> >::~__shared_ptr_emplace()
PUBLIC 4a4e0 0 std::__ndk1::__shared_ptr_emplace<geode::Popup<int, bool, std::__ndk1::function<void (int)> const&>::CloseEvent::Impl, std::__ndk1::allocator<geode::Popup<int, bool, std::__ndk1::function<void (int)> const&>::CloseEvent::Impl> >::__on_zero_shared()
PUBLIC 4a4e4 0 std::__ndk1::__shared_ptr_emplace<geode::Popup<int, bool, std::__ndk1::function<void (int)> const&>::CloseEvent::Impl, std::__ndk1::allocator<geode::Popup<int, bool, std::__ndk1::function<void (int)> const&>::CloseEvent::Impl> >::__on_zero_shared_weak()
PUBLIC 4a4e8 0 std::__ndk1::__function::__func<FRSetStarsPopup::setup(int, bool, std::__ndk1::function<void (int)> const&)::$_2, std::__ndk1::allocator<FRSetStarsPopup::setup(int, bool, std::__ndk1::function<void (int)> const&)::$_2>, void (CCMenuItemSpriteExtra*)>::~__func()
PUBLIC 4a534 0 std::__ndk1::__function::__func<FRSetStarsPopup::setup(int, bool, std::__ndk1::function<void (int)> const&)::$_2, std::__ndk1::allocator<FRSetStarsPopup::setup(int, bool, std::__ndk1::function<void (int)> const&)::$_2>, void (CCMenuItemSpriteExtra*)>::~__func()
PUBLIC 4a590 0 std::__ndk1::__function::__func<FRSetStarsPopup::setup(int, bool, std::__ndk1::function<void (int)> const&)::$_2, std::__ndk1::allocator<FRSetStarsPopup::setup(int, bool, std::__ndk1::function<void (int)> const&)::$_2>, void (CCMenuItemSpriteExtra*)>::__clone() const
PUBLIC 4a62c 0 std::__ndk1::__function::__func<FRSetStarsPopup::setup(int, bool, std::__ndk1::function<void (int)> const&)::$_2, std::__ndk1::allocator<FRSetStarsPopup::setup(int, bool, std::__ndk1::function<void (int)> const&)::$_2>, void (CCMenuItemSpriteExtra*)>::__clone(std::__ndk1::__function::__base<void (CCMenuItemSpriteExtra*)>*) const
PUBLIC 4a6b4 0 std::__ndk1::__function::__func<FRSetStarsPopup::setup(int, bool, std::__ndk1::function<void (int)> const&)::$_2, std::__ndk1::allocator<FRSetStarsPopup::setup(int, bool, std::__ndk1::function<void (int)> const&)::$_2>, void (CCMenuItemSpriteExtra*)>::destroy()
PUBLIC 4a6f4 0 std::__ndk1::__function::__func<FRSetStarsPopup::setup(int, bool, std::__ndk1::function<void (int)> const&)::$_2, std::__ndk1::allocator<FRSetStarsPopup::setup(int, bool, std::__ndk1::function<void (int)> const&)::$_2>, void (CCMenuItemSpriteExtra*)>::destroy_deallocate()
PUBLIC 4a744 0 std::__ndk1::__function::__func<FRSetStarsPopup::setup(int, bool, std::__ndk1::function<void (int)> const&)::$_2, std::__ndk1::allocator<FRSetStarsPopup::setup(int, bool, std::__ndk1::function<void (int)> const&)::$_2>, void (CCMenuItemSpriteExtra*)>::operator()(CCMenuItemSpriteExtra*&&)
PUBLIC 4a7d0 0 std::__ndk1::__function::__func<FRSetStarsPopup::setup(int, bool, std::__ndk1::function<void (int)> const&)::$_2, std::__ndk1::allocator<FRSetStarsPopup::setup(int, bool, std::__ndk1::function<void (int)> const&)::$_2>, void (CCMenuItemSpriteExtra*)>::target(std::type_info const&) const
PUBLIC 4a7ec 0 std::__ndk1::__function::__func<FRSetStarsPopup::setup(int, bool, std::__ndk1::function<void (int)> const&)::$_2, std::__ndk1::allocator<FRSetStarsPopup::setup(int, bool, std::__ndk1::function<void (int)> const&)::$_2>, void (CCMenuItemSpriteExtra*)>::target_type() const
PUBLIC 4a7f8 0 TableNode::create(int, int)
PUBLIC 4a924 0 TableNode::setRowLayout(geode::AxisLayout*)
PUBLIC 4aa00 0 geode::cocos::CCArrayExt<cocos2d::CCMenu*, cocos2d::CCMenu>::~CCArrayExt()
PUBLIC 4aa20 0 TableNode::setRowHeight(float)
PUBLIC 4ab10 0 TableNode::setRowPrefix(std::__ndk1::basic_string<char, std::__ndk1::char_traits<char>, std::__ndk1::allocator<char> > const&)
PUBLIC 4ad78 0 TableNode::updateAllLayouts()
PUBLIC 4ae50 0 TableNode::addButton(cocos2d::CCMenuItem*)
PUBLIC 4b0cc 0 TableNode::~TableNode()
PUBLIC 4b118 0 TableNode::~TableNode()
PUBLIC 4b16c 0 std::__ndk1::basic_string<char, std::__ndk1::char_traits<char>, std::__ndk1::allocator<char> >::__assign_no_alias<true>(char const*, unsigned long)
PUBLIC 4b218 0 std::__ndk1::basic_string<char, std::__ndk1::char_traits<char>, std::__ndk1::allocator<char> >::__assign_no_alias<false>(char const*, unsigned long)
PUBLIC 4b328 0 __cxx_global_var_init.15
PUBLIC 4b95c 0 geode::modifier::ModifyBase<geode::modifier::ModifyDerive<FRLevelCell, LevelCell> >::~ModifyBase()
PUBLIC 4b978 0 geode::modifier::ModifyDerive<FRLevelCell, LevelCell>::apply()
PUBLIC 4bcf8 0 std::__ndk1::shared_ptr<geode::Hook>::~shared_ptr[abi:ne180000]()
PUBLIC 4bd48 0 geode::impl::ResultData<geode::Hook*, std::__ndk1::basic_string<char, std::__ndk1::char_traits<char>, std::__ndk1::allocator<char> > >::~ResultData()
PUBLIC 4bdbc 0 std::__ndk1::vector<std::__ndk1::basic_string<char, std::__ndk1::char_traits<char>, std::__ndk1::allocator<char> >, std::__ndk1::allocator<std::__ndk1::basic_string<char, std::__ndk1::char_traits<char>, std::__ndk1::allocator<char> > > >::~vector[abi:ne180000]()
PUBLIC 4be38 0 geode::modifier::ModifyBase<geode::modifier::ModifyDerive<FRLevelCell, LevelCell> >::apply()
PUBLIC 4be3c 0 std::__ndk1::__tree<std::__ndk1::__value_type<std::__ndk1::basic_string<char, std::__ndk1::char_traits<char>, std::__ndk1::allocator<char> >, std::__ndk1::shared_ptr<geode::Hook> >, std::__ndk1::__map_value_compare<std::__ndk1::basic_string<char, std::__ndk1::char_traits<char>, std::__ndk1::allocator<char> >, std::__ndk1::__value_type<std::__ndk1::basic_string<char, std::__ndk1::char_traits<char>, std::__ndk1::allocator<char> >, std::__ndk1::shared_ptr<geode::Hook> >, std::__ndk1::less<std::__ndk1::basic_string<char, std::__ndk1::char_traits<char>, std::__ndk1::allocator<char> > >, true>, std::__ndk1::allocator<std::__ndk1::__value_type<std::__ndk1::basic_string<char, std::__ndk1::char_traits<char>, std::__ndk1::allocator<char> >, std::__ndk1::shared_ptr<geode::Hook> > > >::find<std::__ndk1::basic_string<char, std::__ndk1::char_traits<char>, std::__ndk1::allocator<char> > >(std::__ndk1::basic_string<char, std::__ndk1::char_traits<char>, std::__ndk1::allocator<char> > const&)
PUBLIC 4bf5c 0 std::__ndk1::__tree<std::__ndk1::__value_type<std::__ndk1::basic_string<char, std::__ndk1::char_traits<char>, std::__ndk1::allocator<char> >, std::__ndk1::shared_ptr<geode::Hook> >, std::__ndk1::__map_value_compare<std::__ndk1::basic_string<char, std::__ndk1::char_traits<char>, std::__ndk1::allocator<char> >, std::__ndk1::__value_type<std::__ndk1::basic_string<char, std::__ndk1::char_traits<char>, std::__ndk1::allocator<char> >, std::__ndk1::shared_ptr<geode::Hook> >, std::__ndk1::less<std::__ndk1::basic_string<char, std::__ndk1::char_traits<char>, std::__ndk1::allocator<char> > >, true>, std::__ndk1::allocator<std::__ndk1::__value_type<std::__ndk1::basic_string<char, std::__ndk1::char_traits<char>, std::__ndk1::allocator<char> >, std::__ndk1::shared_ptr<geode::Hook> > > >::__emplace_unique_key_args<std::__ndk1::basic_string<char, std::__ndk1::char_traits<char>, std::__ndk1::allocator<char> >, std::__ndk1::piecewise_construct_t const&, std::__ndk1::tuple<std::__ndk1::basic_string<char, std::__ndk1::char_traits<char>, std::__ndk1::allocator<char> > const&>, std::__ndk1::tuple<> >(std::__ndk1::basic_string<char, std::__ndk1::char_traits<char>, std::__ndk1::allocator<char> > const&, std::__ndk1::piecewise_construct_t const&, std::__ndk1::tuple<std::__ndk1::basic_string<char, std::__ndk1::char_traits<char>, std::__ndk1::allocator<char> > const&>, std::__ndk1::tuple<>)
PUBLIC 4c150 0 std::__ndk1::unique_ptr<std::__ndk1::__tree_node<std::__ndk1::__value_type<std::__ndk1::basic_string<char, std::__ndk1::char_traits<char>, std::__ndk1::allocator<char> >, std::__ndk1::shared_ptr<geode::Hook> >, void*>, std::__ndk1::__tree_node_destructor<std::__ndk1::allocator<std::__ndk1::__tree_node<std::__ndk1::__value_type<std::__ndk1::basic_string<char, std::__ndk1::char_traits<char>, std::__ndk1::allocator<char> >, std::__ndk1::shared_ptr<geode::Hook> >, void*> > > >::~unique_ptr[abi:ne180000]()
PUBLIC 4c1cc 0 std::__ndk1::__tree_balance_after_insert[abi:ne180000]<std::__ndk1::__tree_node_base<void*>*>(std::__ndk1::__tree_node_base<void*>*, std::__ndk1::__tree_node_base<void*>*)
PUBLIC 4c37c 0 _ZN5geode15UnwrapExceptionC2IRPNS_4HookEQsr4implE18IsStringStreamableIT_EEENS_4impl5OkTagEOS5_
PUBLIC 4c4d0 0 std::__ndk1::basic_stringstream<char, std::__ndk1::char_traits<char>, std::__ndk1::allocator<char> >::basic_stringstream[abi:ne180000]()
PUBLIC m 4c5fc 0 std::__ndk1::basic_stringstream<char, std::__ndk1::char_traits<char>, std::__ndk1::allocator<char> >::~basic_stringstream()
PUBLIC 4c67c 0 geode::UnwrapException::~UnwrapException()
PUBLIC 4c6a0 0 std::__ndk1::__put_character_sequence[abi:ne180000]<char, std::__ndk1::char_traits<char> >(std::__ndk1::basic_ostream<char, std::__ndk1::char_traits<char> >, std::__ndk1::basic_ostream const*, unsigned long)
PUBLIC 4c844 0 std::__ndk1::__pad_and_output[abi:ne180000]<char, std::__ndk1::char_traits<char> >(std::__ndk1::char_traits<char>, std::__ndk1::ostreambuf_iterator const*, std::__ndk1::ostreambuf_iterator const, std::__ndk1::ostreambuf_iterator const, std::__ndk1::ios_base&, std::__ndk1::ostreambuf_iterator)
PUBLIC 4ca20 0 std::__ndk1::basic_stringbuf<char, std::__ndk1::char_traits<char>, std::__ndk1::allocator<char> >::str[abi:ne180000]() &&
PUBLIC 4cb98 0 std::__ndk1::basic_stringbuf<char, std::__ndk1::char_traits<char>, std::__ndk1::allocator<char> >::__init_buf_ptrs[abi:ne180000]()
PUBLIC 4cce0 0 _ZN5geode15UnwrapExceptionC2IRNSt6__ndk112basic_stringIcNS2_11char_traitsIcEENS2_9allocatorIcEEEEQsr4implE18IsStringStreamableIT_EEENS_4impl6ErrTagEOSA_
PUBLIC 4ce48 0 std::__ndk1::__variant_detail::__visitation::__base::__dispatcher<(unsigned long)0>::__dispatch[abi:ne180000]<std::__ndk1::__variant_detail::__dtor<std::__ndk1::__variant_detail::__traits<std::__ndk1::monostate, std::__ndk1::basic_string<char, std::__ndk1::char_traits<char>, std::__ndk1::allocator<char> > >, (std::__ndk1::__variant_detail::_Trait)1>::__destroy[abi:ne180000]()::{lambda(auto:1&)#1}, std::__ndk1::__variant_detail::__base<(std::__ndk1::__variant_detail::__traits<std::__ndk1::monostate, std::__ndk1::basic_string<char, std::__ndk1::char_traits<char>, std::__ndk1::allocator<char> > >)1, std::__ndk1::__variant_detail::__traits, std::__ndk1::allocator<char> >&>(std::__ndk1::__variant_detail::__dtor<std::__ndk1::__variant_detail::__traits<std::__ndk1::monostate, std::__ndk1::basic_string<char, std::__ndk1::char_traits<char>, std::__ndk1::allocator<char> > >, (std::__ndk1::__variant_detail::_Trait)1>, std::__ndk1::__variant_detail::__base<(std::__ndk1::__variant_detail::__traits<std::__ndk1::monostate, std::__ndk1::basic_string<char, std::__ndk1::char_traits<char>, std::__ndk1::allocator<char> > >)1, std::__ndk1::__variant_detail::__traits, std::__ndk1::allocator<char> >&)
PUBLIC 4ce4c 0 std::__ndk1::__variant_detail::__visitation::__base::__dispatcher<(unsigned long)1>::__dispatch[abi:ne180000]<std::__ndk1::__variant_detail::__dtor<std::__ndk1::__variant_detail::__traits<std::__ndk1::monostate, std::__ndk1::basic_string<char, std::__ndk1::char_traits<char>, std::__ndk1::allocator<char> > >, (std::__ndk1::__variant_detail::_Trait)1>::__destroy[abi:ne180000]()::{lambda(auto:1&)#1}, std::__ndk1::__variant_detail::__base<(std::__ndk1::__variant_detail::__traits<std::__ndk1::monostate, std::__ndk1::basic_string<char, std::__ndk1::char_traits<char>, std::__ndk1::allocator<char> > >)1, std::__ndk1::__variant_detail::__traits, std::__ndk1::allocator<char> >&>(std::__ndk1::__variant_detail::__dtor<std::__ndk1::__variant_detail::__traits<std::__ndk1::monostate, std::__ndk1::basic_string<char, std::__ndk1::char_traits<char>, std::__ndk1::allocator<char> > >, (std::__ndk1::__variant_detail::_Trait)1>, std::__ndk1::__variant_detail::__base<(std::__ndk1::__variant_detail::__traits<std::__ndk1::monostate, std::__ndk1::basic_string<char, std::__ndk1::char_traits<char>, std::__ndk1::allocator<char> > >)1, std::__ndk1::__variant_detail::__traits, std::__ndk1::allocator<char> >&)
PUBLIC 4ce60 0 std::__ndk1::vector<std::__ndk1::basic_string<char, std::__ndk1::char_traits<char>, std::__ndk1::allocator<char> >, std::__ndk1::allocator<std::__ndk1::basic_string<char, std::__ndk1::char_traits<char>, std::__ndk1::allocator<char> > > >::__push_back_slow_path<std::__ndk1::basic_string<char, std::__ndk1::char_traits<char>, std::__ndk1::allocator<char> > const&>(std::__ndk1::basic_string<char, std::__ndk1::char_traits<char>, std::__ndk1::allocator<char> > const&)
PUBLIC 4d088 0 std::__ndk1::__split_buffer<std::__ndk1::basic_string<char, std::__ndk1::char_traits<char>, std::__ndk1::allocator<char> >, std::__ndk1::allocator<std::__ndk1::basic_string<char, std::__ndk1::char_traits<char>, std::__ndk1::allocator<char> > >&>::~__split_buffer()
PUBLIC 4d0f0 0 std::__ndk1::vector<std::__ndk1::basic_string<char, std::__ndk1::char_traits<char>, std::__ndk1::allocator<char> >, std::__ndk1::allocator<std::__ndk1::basic_string<char, std::__ndk1::char_traits<char>, std::__ndk1::allocator<char> > > >::__throw_length_error[abi:ne180000]() const
PUBLIC 4d104 0 std::__ndk1::__variant_detail::__visitation::__base::__dispatcher<(unsigned long)0>::__dispatch[abi:ne180000]<std::__ndk1::__variant_detail::__dtor<std::__ndk1::__variant_detail::__traits<geode::Hook*, std::__ndk1::basic_string<char, std::__ndk1::char_traits<char>, std::__ndk1::allocator<char> > >, (std::__ndk1::__variant_detail::_Trait)1>::__destroy[abi:ne180000]()::{lambda(auto:1&)#1}, std::__ndk1::__variant_detail::__base<(std::__ndk1::__variant_detail::__traits<geode::Hook*, std::__ndk1::basic_string<char, std::__ndk1::char_traits<char>, std::__ndk1::allocator<char> > >)1, geode::Hook, std::__ndk1::allocator<char> >&>(std::__ndk1::__variant_detail::__dtor<std::__ndk1::__variant_detail::__traits<geode::Hook*, std::__ndk1::basic_string<char, std::__ndk1::char_traits<char>, std::__ndk1::allocator<char> > >, (std::__ndk1::__variant_detail::_Trait)1>, std::__ndk1::__variant_detail::__base<(std::__ndk1::__variant_detail::__traits<geode::Hook*, std::__ndk1::basic_string<char, std::__ndk1::char_traits<char>, std::__ndk1::allocator<char> > >)1, geode::Hook, std::__ndk1::allocator<char> >&)
PUBLIC 4d108 0 std::__ndk1::__variant_detail::__visitation::__base::__dispatcher<(unsigned long)1>::__dispatch[abi:ne180000]<std::__ndk1::__variant_detail::__dtor<std::__ndk1::__variant_detail::__traits<geode::Hook*, std::__ndk1::basic_string<char, std::__ndk1::char_traits<char>, std::__ndk1::allocator<char> > >, (std::__ndk1::__variant_detail::_Trait)1>::__destroy[abi:ne180000]()::{lambda(auto:1&)#1}, std::__ndk1::__variant_detail::__base<(std::__ndk1::__variant_detail::__traits<geode::Hook*, std::__ndk1::basic_string<char, std::__ndk1::char_traits<char>, std::__ndk1::allocator<char> > >)1, geode::Hook, std::__ndk1::allocator<char> >&>(std::__ndk1::__variant_detail::__dtor<std::__ndk1::__variant_detail::__traits<geode::Hook*, std::__ndk1::basic_string<char, std::__ndk1::char_traits<char>, std::__ndk1::allocator<char> > >, (std::__ndk1::__variant_detail::_Trait)1>, std::__ndk1::__variant_detail::__base<(std::__ndk1::__variant_detail::__traits<geode::Hook*, std::__ndk1::basic_string<char, std::__ndk1::char_traits<char>, std::__ndk1::allocator<char> > >)1, geode::Hook, std::__ndk1::allocator<char> >&)
PUBLIC 4d11c 0 std::__ndk1::__tree<std::__ndk1::__value_type<std::__ndk1::basic_string<char, std::__ndk1::char_traits<char>, std::__ndk1::allocator<char> >, std::__ndk1::shared_ptr<geode::Hook> >, std::__ndk1::__map_value_compare<std::__ndk1::basic_string<char, std::__ndk1::char_traits<char>, std::__ndk1::allocator<char> >, std::__ndk1::__value_type<std::__ndk1::basic_string<char, std::__ndk1::char_traits<char>, std::__ndk1::allocator<char> >, std::__ndk1::shared_ptr<geode::Hook> >, std::__ndk1::less<std::__ndk1::basic_string<char, std::__ndk1::char_traits<char>, std::__ndk1::allocator<char> > >, true>, std::__ndk1::allocator<std::__ndk1::__value_type<std::__ndk1::basic_string<char, std::__ndk1::char_traits<char>, std::__ndk1::allocator<char> >, std::__ndk1::shared_ptr<geode::Hook> > > >::erase(std::__ndk1::__tree_const_iterator<std::__ndk1::__value_type<std::__ndk1::basic_string<char, std::__ndk1::char_traits<char>, std::__ndk1::allocator<char> >, std::__ndk1::shared_ptr<geode::Hook> >, std::__ndk1::__tree_node<std::__ndk1::__value_type<std::__ndk1::basic_string<char, std::__ndk1::char_traits<char>, std::__ndk1::allocator<char> >, std::__ndk1::shared_ptr<geode::Hook> >, void*>*, long>)
PUBLIC 4d1f0 0 std::__ndk1::__tree_remove[abi:ne180000]<std::__ndk1::__tree_node_base<void*>*>(std::__ndk1::__tree_node_base<void*>*, std::__ndk1::__tree_node_base<void*>*)
PUBLIC 4d5b8 0 std::__ndk1::__tree<std::__ndk1::__value_type<std::__ndk1::basic_string<char, std::__ndk1::char_traits<char>, std::__ndk1::allocator<char> >, std::__ndk1::shared_ptr<geode::Hook> >, std::__ndk1::__map_value_compare<std::__ndk1::basic_string<char, std::__ndk1::char_traits<char>, std::__ndk1::allocator<char> >, std::__ndk1::__value_type<std::__ndk1::basic_string<char, std::__ndk1::char_traits<char>, std::__ndk1::allocator<char> >, std::__ndk1::shared_ptr<geode::Hook> >, std::__ndk1::less<std::__ndk1::basic_string<char, std::__ndk1::char_traits<char>, std::__ndk1::allocator<char> > >, true>, std::__ndk1::allocator<std::__ndk1::__value_type<std::__ndk1::basic_string<char, std::__ndk1::char_traits<char>, std::__ndk1::allocator<char> >, std::__ndk1::shared_ptr<geode::Hook> > > >::destroy(std::__ndk1::__tree_node<std::__ndk1::__value_type<std::__ndk1::basic_string<char, std::__ndk1::char_traits<char>, std::__ndk1::allocator<char> >, std::__ndk1::shared_ptr<geode::Hook> >, void*>*)
PUBLIC 4d644 0 geode::modifier::AsStaticFunction_loadFromLevel<FRLevelCell, void (FRLevelCell::*)(GJGameLevel*)>::Impl<void (FRLevelCell::*)(GJGameLevel*)>::function(FRLevelCell*, GJGameLevel*)
PUBLIC 4d648 0 std::__ndk1::shared_ptr<tulip::hook::CallingConvention>::~shared_ptr[abi:ne180000]()
PUBLIC 4d698 0 tulip::hook::HandlerMetadata::~HandlerMetadata()
PUBLIC 4d6fc 0 FRLevelCell::loadFromLevel(GJGameLevel*)
PUBLIC 4fc2c 0 std::__ndk1::__tree<std::__ndk1::__value_type<std::__ndk1::basic_string<char, std::__ndk1::char_traits<char>, std::__ndk1::allocator<char> >, std::__ndk1::shared_ptr<geode::Hook> >, std::__ndk1::__map_value_compare<std::__ndk1::basic_string<char, std::__ndk1::char_traits<char>, std::__ndk1::allocator<char> >, std::__ndk1::__value_type<std::__ndk1::basic_string<char, std::__ndk1::char_traits<char>, std::__ndk1::allocator<char> >, std::__ndk1::shared_ptr<geode::Hook> >, std::__ndk1::less<std::__ndk1::basic_string<char, std::__ndk1::char_traits<char>, std::__ndk1::allocator<char> > >, true>, std::__ndk1::allocator<std::__ndk1::__value_type<std::__ndk1::basic_string<char, std::__ndk1::char_traits<char>, std::__ndk1::allocator<char> >, std::__ndk1::shared_ptr<geode::Hook> > > >::__emplace_unique_key_args<std::__ndk1::basic_string<char, std::__ndk1::char_traits<char>, std::__ndk1::allocator<char> >, std::__ndk1::piecewise_construct_t const&, std::__ndk1::tuple<std::__ndk1::basic_string<char, std::__ndk1::char_traits<char>, std::__ndk1::allocator<char> >&&>, std::__ndk1::tuple<> >(std::__ndk1::basic_string<char, std::__ndk1::char_traits<char>, std::__ndk1::allocator<char> > const&, std::__ndk1::piecewise_construct_t const&, std::__ndk1::tuple<std::__ndk1::basic_string<char, std::__ndk1::char_traits<char>, std::__ndk1::allocator<char> >&&>, std::__ndk1::tuple<>)
PUBLIC 4fda4 0 __cxx_global_var_init.15
PUBLIC 502d8 0 geode::modifier::ModifyBase<geode::modifier::ModifyDerive<FRLevelInfoLayer, LevelInfoLayer> >::~ModifyBase()
PUBLIC 502f4 0 geode::modifier::ModifyDerive<FRLevelInfoLayer, LevelInfoLayer>::apply()
PUBLIC 50cb4 0 geode::modifier::ModifyBase<geode::modifier::ModifyDerive<FRLevelInfoLayer, LevelInfoLayer> >::apply()
PUBLIC 50cb8 0 geode::modifier::ModifyBase<geode::modifier::ModifyDerive<FRLevelInfoLayer, LevelInfoLayer> >::setHookPriority(std::__ndk1::basic_string_view<char, std::__ndk1::char_traits<char> >, int)
PUBLIC 50f00 0 geode::modifier::AsStaticFunction_levelDownloadFinished<FRLevelInfoLayer, void (FRLevelInfoLayer::*)(GJGameLevel*)>::Impl<void (FRLevelInfoLayer::*)(GJGameLevel*)>::function(FRLevelInfoLayer*, GJGameLevel*)
PUBLIC 50f24 0 geode::modifier::AsStaticFunction_likedItem<FRLevelInfoLayer, void (FRLevelInfoLayer::*)(LikeItemType, int, bool)>::Impl<void (FRLevelInfoLayer::*)(LikeItemType, int, bool)>::function(FRLevelInfoLayer*, LikeItemType, int, bool)
PUBLIC 50f48 0 geode::modifier::AsStaticFunction_init<FRLevelInfoLayer, bool (FRLevelInfoLayer::*)(GJGameLevel*, bool)>::Impl<bool (FRLevelInfoLayer::*)(GJGameLevel*, bool)>::function(FRLevelInfoLayer*, GJGameLevel*, bool)
PUBLIC 510f0 0 geode::addresser::Addresser::addressOfVirtual<void, LevelInfoLayer, GJGameLevel*>(void (LevelInfoLayer::*)(GJGameLevel*))
PUBLIC 51198 0 LevelInfoLayer::LevelInfoLayer(geode::ZeroConstructorType)
PUBLIC 5124c 0 FRLevelInfoLayer::checkFakeRate()
PUBLIC 51884 0 FRLevelInfoLayer::updateFakeRate(FakeRateSaveData const&, bool)
PUBLIC 54738 0 geode::modifier::FieldIntermediate<FRLevelInfoLayer, LevelInfoLayer>::self()
PUBLIC 54d84 0 geode::cocos::CCArrayExt<cocos2d::CCNode*, cocos2d::CCNode>::~CCArrayExt()
PUBLIC 54da4 0 geode::modifier::FieldIntermediate<FRLevelInfoLayer, LevelInfoLayer>::fieldDestructor(void*)
PUBLIC 54da8 0 std::__ndk1::vector<void*, std::__ndk1::allocator<void*> >::__throw_length_error[abi:ne180000]() const
PUBLIC 54dbc 0 std::__ndk1::vector<std::__ndk1::function<void (void*)>, std::__ndk1::allocator<std::__ndk1::function<void (void*)> > >::__throw_length_error[abi:ne180000]() const
PUBLIC 54dd0 0 std::__ndk1::vector<void*, std::__ndk1::allocator<void*> >::__throw_out_of_range[abi:ne180000]() const
PUBLIC 54de4 0 std::__ndk1::__throw_out_of_range[abi:ne180000](char const*)
PUBLIC 54e34 0 std::out_of_range::out_of_range[abi:ne180000](char const*)
PUBLIC 54e64 0 std::__ndk1::vector<std::__ndk1::function<void (void*)>, std::__ndk1::allocator<std::__ndk1::function<void (void*)> > >::__throw_out_of_range[abi:ne180000]() const
PUBLIC 54e78 0 std::__ndk1::__function::__base<void (void*)>::~__base()
PUBLIC 54e7c 0 std::__ndk1::__function::__func<void (*)(void*), std::__ndk1::allocator<void (*)(void*)>, void (void*)>::~__func()
PUBLIC 54e80 0 std::__ndk1::__function::__func<void (*)(void*), std::__ndk1::allocator<void (*)(void*)>, void (void*)>::__clone() const
PUBLIC 54eb8 0 std::__ndk1::__function::__func<void (*)(void*), std::__ndk1::allocator<void (*)(void*)>, void (void*)>::__clone(std::__ndk1::__function::__base<void (void*)>*) const
PUBLIC 54ed0 0 std::__ndk1::__function::__func<void (*)(void*), std::__ndk1::allocator<void (*)(void*)>, void (void*)>::destroy()
PUBLIC 54ed4 0 std::__ndk1::__function::__func<void (*)(void*), std::__ndk1::allocator<void (*)(void*)>, void (void*)>::destroy_deallocate()
PUBLIC 54ed8 0 std::__ndk1::__function::__func<void (*)(void*), std::__ndk1::allocator<void (*)(void*)>, void (void*)>::operator()(void*&&)
PUBLIC 54ee8 0 std::__ndk1::__function::__func<void (*)(void*), std::__ndk1::allocator<void (*)(void*)>, void (void*)>::target(std::type_info const&) const
PUBLIC 54f04 0 std::__ndk1::__function::__func<void (*)(void*), std::__ndk1::allocator<void (*)(void*)>, void (void*)>::target_type() const
PUBLIC 54f10 0 geode::addresser::Addresser::addressOfVirtual<void, LevelInfoLayer, LikeItemType, int, bool>(void (LevelInfoLayer::*)(LikeItemType, int, bool))
PUBLIC 54fb8 0 FRLevelInfoLayer::onFakeRate(cocos2d::CCObject*)
PUBLIC 550bc 0 std::__ndk1::__function::__base<void (FakeRateSaveData, bool)>::~__base()
PUBLIC 550c0 0 std::__ndk1::__function::__func<FRLevelInfoLayer::onFakeRate(cocos2d::CCObject*)::{lambda(FakeRateSaveData, bool)#1}, std::__ndk1::allocator<FRLevelInfoLayer::onFakeRate(cocos2d::CCObject*)::{lambda(FakeRateSaveData, bool)#1}>, void (FakeRateSaveData, bool)>::~__func()
PUBLIC 550c4 0 std::__ndk1::__function::__func<FRLevelInfoLayer::onFakeRate(cocos2d::CCObject*)::{lambda(FakeRateSaveData, bool)#1}, std::__ndk1::allocator<FRLevelInfoLayer::onFakeRate(cocos2d::CCObject*)::{lambda(FakeRateSaveData, bool)#1}>, void (FakeRateSaveData, bool)>::__clone() const
PUBLIC 550f8 0 std::__ndk1::__function::__func<FRLevelInfoLayer::onFakeRate(cocos2d::CCObject*)::{lambda(FakeRateSaveData, bool)#1}, std::__ndk1::allocator<FRLevelInfoLayer::onFakeRate(cocos2d::CCObject*)::{lambda(FakeRateSaveData, bool)#1}>, void (FakeRateSaveData, bool)>::__clone(std::__ndk1::__function::__base<void (FakeRateSaveData, bool)>*) const
PUBLIC 5510c 0 std::__ndk1::__function::__func<FRLevelInfoLayer::onFakeRate(cocos2d::CCObject*)::{lambda(FakeRateSaveData, bool)#1}, std::__ndk1::allocator<FRLevelInfoLayer::onFakeRate(cocos2d::CCObject*)::{lambda(FakeRateSaveData, bool)#1}>, void (FakeRateSaveData, bool)>::destroy()
PUBLIC 55110 0 std::__ndk1::__function::__func<FRLevelInfoLayer::onFakeRate(cocos2d::CCObject*)::{lambda(FakeRateSaveData, bool)#1}, std::__ndk1::allocator<FRLevelInfoLayer::onFakeRate(cocos2d::CCObject*)::{lambda(FakeRateSaveData, bool)#1}>, void (FakeRateSaveData, bool)>::destroy_deallocate()
PUBLIC 55114 0 std::__ndk1::__function::__func<FRLevelInfoLayer::onFakeRate(cocos2d::CCObject*)::{lambda(FakeRateSaveData, bool)#1}, std::__ndk1::allocator<FRLevelInfoLayer::onFakeRate(cocos2d::CCObject*)::{lambda(FakeRateSaveData, bool)#1}>, void (FakeRateSaveData, bool)>::operator()(FakeRateSaveData&&, bool&&)
PUBLIC 55174 0 std::__ndk1::__function::__func<FRLevelInfoLayer::onFakeRate(cocos2d::CCObject*)::{lambda(FakeRateSaveData, bool)#1}, std::__ndk1::allocator<FRLevelInfoLayer::onFakeRate(cocos2d::CCObject*)::{lambda(FakeRateSaveData, bool)#1}>, void (FakeRateSaveData, bool)>::target(std::type_info const&) const
PUBLIC 55190 0 std::__ndk1::__function::__func<FRLevelInfoLayer::onFakeRate(cocos2d::CCObject*)::{lambda(FakeRateSaveData, bool)#1}, std::__ndk1::allocator<FRLevelInfoLayer::onFakeRate(cocos2d::CCObject*)::{lambda(FakeRateSaveData, bool)#1}>, void (FakeRateSaveData, bool)>::target_type() const
PUBLIC 5519c 0 FakeRate::getSpriteName(cocos2d::CCSprite*)
PUBLIC 55548 0 geode::cocos::CCDictionaryExt<std::__ndk1::basic_string<char, std::__ndk1::char_traits<char>, std::__ndk1::allocator<char> >, cocos2d::CCSpriteFrame*, cocos2d::CCSpriteFrame>::~CCDictionaryExt()
PUBLIC 55564 0 geode::cocos::CCDictionaryExt<std::__ndk1::basic_string<char, std::__ndk1::char_traits<char>, std::__ndk1::allocator<char> >, cocos2d::CCTexture2D*, cocos2d::CCTexture2D>::~CCDictionaryExt()
PUBLIC 55580 0 FakeRate::toggle(cocos2d::CCNode*, bool)
PUBLIC 556f4 0 FakeRate::getDIBOffset(int, GJDifficultyName)
PUBLIC 558bc 0 FakeRate::getGRDOverride(cocos2d::CCSprite*)
PUBLIC 55e8c 0 FakeRate::getDIBOverride(cocos2d::CCSprite*)
PUBLIC 56440 0 FakeRate::getGDDPOverride(cocos2d::CCSprite*)
PUBLIC 56b64 0 matjson::Serialize<std::__ndk1::vector<FakeRateSaveData, std::__ndk1::allocator<FakeRateSaveData> > >::fromJson(matjson::Value const&)
PUBLIC 572b8 0 geode::impl::ResultData<std::__ndk1::vector<matjson::Value, std::__ndk1::allocator<matjson::Value> > const&, std::__ndk1::basic_string<char, std::__ndk1::char_traits<char>, std::__ndk1::allocator<char> > >::~ResultData()
PUBLIC 5732c 0 matjson::Serialize<std::__ndk1::vector<FakeRateSaveData, std::__ndk1::allocator<FakeRateSaveData> > >::toJson(std::__ndk1::vector<FakeRateSaveData, std::__ndk1::allocator<FakeRateSaveData> > const&)
PUBLIC 57c54 0 std::__ndk1::vector<matjson::Value, std::__ndk1::allocator<matjson::Value> >::~vector[abi:ne180000]()
PUBLIC 57cbc 0 std::__ndk1::basic_string<char, std::__ndk1::char_traits<char>, std::__ndk1::allocator<char> >::__throw_out_of_range[abi:ne180000]() const
PUBLIC 57cd0 0 std::__ndk1::__variant_detail::__visitation::__base::__dispatcher<(unsigned long)0>::__dispatch[abi:ne180000]<std::__ndk1::__variant_detail::__dtor<std::__ndk1::__variant_detail::__traits<int, std::__ndk1::basic_string<char, std::__ndk1::char_traits<char>, std::__ndk1::allocator<char> > >, (std::__ndk1::__variant_detail::_Trait)1>::__destroy[abi:ne180000]()::{lambda(auto:1&)#1}, std::__ndk1::__variant_detail::__base<(std::__ndk1::__variant_detail::__traits<int, std::__ndk1::basic_string<char, std::__ndk1::char_traits<char>, std::__ndk1::allocator<char> > >)1, int, std::__ndk1::allocator<char> >&>(std::__ndk1::__variant_detail::__dtor<std::__ndk1::__variant_detail::__traits<int, std::__ndk1::basic_string<char, std::__ndk1::char_traits<char>, std::__ndk1::allocator<char> > >, (std::__ndk1::__variant_detail::_Trait)1>, std::__ndk1::__variant_detail::__base<(std::__ndk1::__variant_detail::__traits<int, std::__ndk1::basic_string<char, std::__ndk1::char_traits<char>, std::__ndk1::allocator<char> > >)1, int, std::__ndk1::allocator<char> >&)
PUBLIC 57cd4 0 std::__ndk1::__variant_detail::__visitation::__base::__dispatcher<(unsigned long)1>::__dispatch[abi:ne180000]<std::__ndk1::__variant_detail::__dtor<std::__ndk1::__variant_detail::__traits<int, std::__ndk1::basic_string<char, std::__ndk1::char_traits<char>, std::__ndk1::allocator<char> > >, (std::__ndk1::__variant_detail::_Trait)1>::__destroy[abi:ne180000]()::{lambda(auto:1&)#1}, std::__ndk1::__variant_detail::__base<(std::__ndk1::__variant_detail::__traits<int, std::__ndk1::basic_string<char, std::__ndk1::char_traits<char>, std::__ndk1::allocator<char> > >)1, int, std::__ndk1::allocator<char> >&>(std::__ndk1::__variant_detail::__dtor<std::__ndk1::__variant_detail::__traits<int, std::__ndk1::basic_string<char, std::__ndk1::char_traits<char>, std::__ndk1::allocator<char> > >, (std::__ndk1::__variant_detail::_Trait)1>, std::__ndk1::__variant_detail::__base<(std::__ndk1::__variant_detail::__traits<int, std::__ndk1::basic_string<char, std::__ndk1::char_traits<char>, std::__ndk1::allocator<char> > >)1, int, std::__ndk1::allocator<char> >&)
PUBLIC 57ce8 0 std::__ndk1::__variant_detail::__visitation::__base::__dispatcher<(unsigned long)0>::__dispatch[abi:ne180000]<std::__ndk1::__variant_detail::__dtor<std::__ndk1::__variant_detail::__traits<std::__ndk1::reference_wrapper<std::__ndk1::vector<matjson::Value, std::__ndk1::allocator<matjson> > const>, std::__ndk1::basic_string<char, std::__ndk1::char_traits<char>, matjson::Value<char> > >, (std::__ndk1::__variant_detail::_Trait)1>::__destroy[abi:ne180000]()::{lambda(auto:1&)#1}, std::__ndk1::__variant_detail::__base<(std::__ndk1::__variant_detail::__traits<std::__ndk1::reference_wrapper<std::__ndk1::vector<matjson::Value, std::__ndk1::allocator<matjson> > const>, std::__ndk1::basic_string<char, std::__ndk1::char_traits<char>, matjson::Value<char> > >)1, std::__ndk1::vector<matjson::Value, std::__ndk1::allocator<matjson> > const, matjson::Value<char> >&>(std::__ndk1::__variant_detail::__dtor<std::__ndk1::__variant_detail::__traits<std::__ndk1::reference_wrapper<std::__ndk1::vector<matjson::Value, std::__ndk1::allocator<matjson> > const>, std::__ndk1::basic_string<char, std::__ndk1::char_traits<char>, matjson::Value<char> > >, (std::__ndk1::__variant_detail::_Trait)1>, std::__ndk1::__variant_detail::__base<(std::__ndk1::__variant_detail::__traits<std::__ndk1::reference_wrapper<std::__ndk1::vector<matjson::Value, std::__ndk1::allocator<matjson> > const>, std::__ndk1::basic_string<char, std::__ndk1::char_traits<char>, matjson::Value<char> > >)1, std::__ndk1::vector<matjson::Value, std::__ndk1::allocator<matjson> > const, matjson::Value<char> >&)
PUBLIC 57cec 0 std::__ndk1::__variant_detail::__visitation::__base::__dispatcher<(unsigned long)1>::__dispatch[abi:ne180000]<std::__ndk1::__variant_detail::__dtor<std::__ndk1::__variant_detail::__traits<std::__ndk1::reference_wrapper<std::__ndk1::vector<matjson::Value, std::__ndk1::allocator<matjson> > const>, std::__ndk1::basic_string<char, std::__ndk1::char_traits<char>, matjson::Value<char> > >, (std::__ndk1::__variant_detail::_Trait)1>::__destroy[abi:ne180000]()::{lambda(auto:1&)#1}, std::__ndk1::__variant_detail::__base<(std::__ndk1::__variant_detail::__traits<std::__ndk1::reference_wrapper<std::__ndk1::vector<matjson::Value, std::__ndk1::allocator<matjson> > const>, std::__ndk1::basic_string<char, std::__ndk1::char_traits<char>, matjson::Value<char> > >)1, std::__ndk1::vector<matjson::Value, std::__ndk1::allocator<matjson> > const, matjson::Value<char> >&>(std::__ndk1::__variant_detail::__dtor<std::__ndk1::__variant_detail::__traits<std::__ndk1::reference_wrapper<std::__ndk1::vector<matjson::Value, std::__ndk1::allocator<matjson> > const>, std::__ndk1::basic_string<char, std::__ndk1::char_traits<char>, matjson::Value<char> > >, (std::__ndk1::__variant_detail::_Trait)1>, std::__ndk1::__variant_detail::__base<(std::__ndk1::__variant_detail::__traits<std::__ndk1::reference_wrapper<std::__ndk1::vector<matjson::Value, std::__ndk1::allocator<matjson> > const>, std::__ndk1::basic_string<char, std::__ndk1::char_traits<char>, matjson::Value<char> > >)1, std::__ndk1::vector<matjson::Value, std::__ndk1::allocator<matjson> > const, matjson::Value<char> >&)
PUBLIC 57d00 0 geode::impl::ResultData<long, std::__ndk1::basic_string<char, std::__ndk1::char_traits<char>, std::__ndk1::allocator<char> > >::~ResultData()
PUBLIC 57d74 0 _ZNSt6__ndk14pairINS_12basic_stringIcNS_11char_traitsIcEENS_9allocatorIcEEEEN7matjson5ValueEEC2B8ne180000IRA27_KcRKiTnNS_9enable_ifIXclsr10_CheckArgsE17__enable_implicitIT_T0_EEEiE4typeELi0EEEOSH_OSI_
PUBLIC 57e38 0 std::__ndk1::pair<std::__ndk1::basic_string<char, std::__ndk1::char_traits<char>, std::__ndk1::allocator<char> >, matjson::Value>::~pair()
PUBLIC 57e74 0 std::__ndk1::__split_buffer<matjson::Value, std::__ndk1::allocator<matjson::Value>&>::~__split_buffer()
PUBLIC 57ec8 0 std::__ndk1::vector<matjson::Value, std::__ndk1::allocator<matjson::Value> >::__throw_length_error[abi:ne180000]() const
PUBLIC m 57edc 0 geodeImplicitEntry
PUBLIC 57f18 0 std::__ndk1::unordered_map<void*, bool, std::__ndk1::hash<void*>, std::__ndk1::equal_to<void*>, std::__ndk1::allocator<std::__ndk1::pair<void* const, bool> > >::~unordered_map[abi:ne180000]()
PUBLIC 57f64 0 wrapFunction(unsigned long, tulip::hook::WrapperMetadata const&)
PUBLIC 58098 0 geode::impl::ResultData<void*, std::__ndk1::basic_string<char, std::__ndk1::char_traits<char>, std::__ndk1::allocator<char> > >::unwrapErr() &
PUBLIC 58110 0 geode::impl::ResultData<void*, std::__ndk1::basic_string<char, std::__ndk1::char_traits<char>, std::__ndk1::allocator<char> > >::~ResultData()
PUBLIC 58184 0 tulip::hook::WrapperMetadata::~WrapperMetadata()
PUBLIC 581e8 0 cocos2d::CCObject::CCObject()
PUBLIC 5840c 0 cocos2d::CCObject::~CCObject()
PUBLIC 58430 0 cocos2d::CCNode::CCNode()
PUBLIC 5868c 0 cocos2d::CCNode::~CCNode()
PUBLIC 586b0 0 {virtual override thunk({offset(-320)}, cocos2d::CCLayer::~CCLayer())}
PUBLIC 586b8 0 cocos2d::CCLayer::~CCLayer()
PUBLIC 586dc 0 {virtual override thunk({offset(-320)}, cocos2d::CCLayer::~CCLayer())}
PUBLIC 58704 0 cocos2d::CCLayerRGBA::~CCLayerRGBA()
PUBLIC 58a04 0 {virtual override thunk({offset(-320)}, cocos2d::CCLayerRGBA::~CCLayerRGBA())}
PUBLIC 58a0c 0 cocos2d::CCLayerRGBA::~CCLayerRGBA()
PUBLIC 58a30 0 {virtual override thunk({offset(-320)}, cocos2d::CCLayerRGBA::~CCLayerRGBA())}
PUBLIC 58a58 0 cocos2d::CCLayerColor::CCLayerColor()
PUBLIC 58cbc 0 {virtual override thunk({offset(-320)}, cocos2d::CCLayerColor::~CCLayerColor())}
PUBLIC 58cc4 0 cocos2d::CCLayerColor::~CCLayerColor()
PUBLIC 58ce8 0 {virtual override thunk({offset(-320)}, cocos2d::CCLayerColor::~CCLayerColor())}
PUBLIC 58d10 0 {virtual override thunk({offset(-320)}, FLAlertLayer::~FLAlertLayer())}
PUBLIC 58d18 0 FLAlertLayer::~FLAlertLayer()
PUBLIC 58d3c 0 {virtual override thunk({offset(-320)}, FLAlertLayer::~FLAlertLayer())}
PUBLIC 58d64 0 cocos2d::CCLayerColor::~CCLayerColor()
PUBLIC 59048 0 FLAlertLayer::~FLAlertLayer()
PUBLIC 5932c 0 cocos2d::CCNode::~CCNode()
PUBLIC 595cc 0 cocos2d::CCLayer::~CCLayer()
PUBLIC 598bc 0 cocos2d::CCObject::~CCObject()
PUBLIC 59db0 0 _ZN5geode15UnwrapExceptionC2IRPvQsr4implE18IsStringStreamableIT_EEENS_4impl5OkTagEOS4_
PUBLIC 59f04 0 std::__ndk1::__variant_detail::__visitation::__base::__dispatcher<(unsigned long)0>::__dispatch[abi:ne180000]<std::__ndk1::__variant_detail::__dtor<std::__ndk1::__variant_detail::__traits<void*, std::__ndk1::basic_string<char, std::__ndk1::char_traits<char>, std::__ndk1::allocator<char> > >, (std::__ndk1::__variant_detail::_Trait)1>::__destroy[abi:ne180000]()::{lambda(auto:1&)#1}, std::__ndk1::__variant_detail::__base<(std::__ndk1::__variant_detail::__traits<void*, std::__ndk1::basic_string<char, std::__ndk1::char_traits<char>, std::__ndk1::allocator<char> > >)1, std::__ndk1::__variant_detail::__traits, std::__ndk1::allocator<char> >&>(std::__ndk1::__variant_detail::__dtor<std::__ndk1::__variant_detail::__traits<void*, std::__ndk1::basic_string<char, std::__ndk1::char_traits<char>, std::__ndk1::allocator<char> > >, (std::__ndk1::__variant_detail::_Trait)1>, std::__ndk1::__variant_detail::__base<(std::__ndk1::__variant_detail::__traits<void*, std::__ndk1::basic_string<char, std::__ndk1::char_traits<char>, std::__ndk1::allocator<char> > >)1, std::__ndk1::__variant_detail::__traits, std::__ndk1::allocator<char> >&)
PUBLIC 59f08 0 std::__ndk1::__variant_detail::__visitation::__base::__dispatcher<(unsigned long)1>::__dispatch[abi:ne180000]<std::__ndk1::__variant_detail::__dtor<std::__ndk1::__variant_detail::__traits<void*, std::__ndk1::basic_string<char, std::__ndk1::char_traits<char>, std::__ndk1::allocator<char> > >, (std::__ndk1::__variant_detail::_Trait)1>::__destroy[abi:ne180000]()::{lambda(auto:1&)#1}, std::__ndk1::__variant_detail::__base<(std::__ndk1::__variant_detail::__traits<void*, std::__ndk1::basic_string<char, std::__ndk1::char_traits<char>, std::__ndk1::allocator<char> > >)1, std::__ndk1::__variant_detail::__traits, std::__ndk1::allocator<char> >&>(std::__ndk1::__variant_detail::__dtor<std::__ndk1::__variant_detail::__traits<void*, std::__ndk1::basic_string<char, std::__ndk1::char_traits<char>, std::__ndk1::allocator<char> > >, (std::__ndk1::__variant_detail::_Trait)1>, std::__ndk1::__variant_detail::__base<(std::__ndk1::__variant_detail::__traits<void*, std::__ndk1::basic_string<char, std::__ndk1::char_traits<char>, std::__ndk1::allocator<char> > >)1, std::__ndk1::__variant_detail::__traits, std::__ndk1::allocator<char> >&)
PUBLIC 59f1c 0 std::__ndk1::__hash_table<std::__ndk1::__hash_value_type<void*, bool>, std::__ndk1::__unordered_map_hasher<void*, std::__ndk1::__hash_value_type<void*, bool>, std::__ndk1::hash<void*>, std::__ndk1::equal_to<void*>, true>, std::__ndk1::__unordered_map_equal<void*, std::__ndk1::__hash_value_type<void*, bool>, std::__ndk1::equal_to<void*>, std::__ndk1::hash<void*>, true>, std::__ndk1::allocator<std::__ndk1::__hash_value_type<void*, bool> > >::__emplace_unique_key_args<void*, std::__ndk1::piecewise_construct_t const&, std::__ndk1::tuple<void* const&>, std::__ndk1::tuple<> >(void* const&, std::__ndk1::piecewise_construct_t const&, std::__ndk1::tuple<void* const&>, std::__ndk1::tuple<>)
PUBLIC 5a428 0 __udivti3
PUBLIC 5a434 0 __udivmodti4
PUBLIC m 5a680 0 __eqtf2
PUBLIC 5a720 0 __unordtf2
PUBLIC 5a758 0 fmt::v11::detail::write_loc(fmt::v11::basic_appender<char>, fmt::v11::loc_value, fmt::v11::format_specs const&, fmt::v11::detail::locale_ref)
PUBLIC 5a9ec 0 fmt::v11::format_facet<std::__ndk1::locale>::~format_facet()
PUBLIC 5aa68 0 fmt::v11::report_error(char const*)
PUBLIC 5aab8 0 fmt::v11::format_error::runtime_error(char const*)
PUBLIC 5aae4 0 fmt::v11::format_facet<std::__ndk1::locale>::do_put(fmt::v11::basic_appender<char>, fmt::v11::loc_value, fmt::v11::format_specs const&) const
PUBLIC 5b2a4 0 fmt::v11::detail::loc_writer<char>::~loc_writer()
PUBLIC 5b308 0 fmt::v11::detail::vformat_to<char>(fmt::v11::detail::buffer<char>&, fmt::v11::basic_string_view<char>, fmt::v11::detail::vformat_args<char>::type, fmt::v11::detail::locale_ref)
PUBLIC 5b878 0 fmt::v11::detail::is_printable(unsigned int)
PUBLIC 5baa0 0 fmt::v11::detail::dragonbox::to_decimal<float>(float)
PUBLIC 5bd7c 0 fmt::v11::detail::dragonbox::to_decimal<double>(double)
PUBLIC 5c2b8 0 fmt::v11::basic_memory_buffer<char, (unsigned long)500, std::__ndk1::allocator<char> >::grow(fmt::v11::detail::buffer<char>&, unsigned long)
PUBLIC 5c330 0 fmt::v11::format_facet<std::__ndk1::locale>::~format_facet()
PUBLIC 5c3bc 0 fmt::v11::format_error::~format_error()
PUBLIC 5c3e0 0 fmt::v11::detail::copy_noinline<char, char const*, fmt::v11::basic_appender<char> >(char const*, char const*, fmt::v11::basic_appender<char>)
PUBLIC 5c530 0 fmt::v11::detail::default_arg_formatter<char>::operator()<bool>(bool)
PUBLIC 5c598 0 fmt::v11::detail::default_arg_formatter<char>::operator()<char>(char)
PUBLIC 5c628 0 fmt::v11::detail::default_arg_formatter<char>::operator()<float>(float)
PUBLIC 5c714 0 fmt::v11::detail::default_arg_formatter<char>::operator()<double>(double)
PUBLIC 5c800 0 fmt::v11::detail::default_arg_formatter<char>::operator()<char const*>(char const*)
PUBLIC 5c848 0 fmt::v11::detail::default_arg_formatter<char>::operator()<void const*>(void const*)
PUBLIC 5c8e0 0 _ZN3fmt3v116detail5writeIcNS0_14basic_appenderIcEEiTnNSt6__ndk19enable_ifIXaaaasr11is_integralIT1_EE5valuentsr3std7is_sameIS7_bEE5valuentsr3std7is_sameIS7_T_EE5valueEiE4typeELi0EEET0_SB_S7_
PUBLIC 5cb40 0 fmt::v11::detail::copy_noinline<char, char*, fmt::v11::basic_appender<char> >(char*, char*, fmt::v11::basic_appender<char>)
PUBLIC 5cc90 0 _ZN3fmt3v116detail5writeIcNS0_14basic_appenderIcEEjTnNSt6__ndk19enable_ifIXaaaasr11is_integralIT1_EE5valuentsr3std7is_sameIS7_bEE5valuentsr3std7is_sameIS7_T_EE5valueEiE4typeELi0EEET0_SB_S7_
PUBLIC 5ce70 0 _ZN3fmt3v116detail5writeIcNS0_14basic_appenderIcEExTnNSt6__ndk19enable_ifIXaaaasr11is_integralIT1_EE5valuentsr3std7is_sameIS7_bEE5valuentsr3std7is_sameIS7_T_EE5valueEiE4typeELi0EEET0_SB_S7_
PUBLIC 5d0f4 0 _ZN3fmt3v116detail5writeIcNS0_14basic_appenderIcEEyTnNSt6__ndk19enable_ifIXaaaasr11is_integralIT1_EE5valuentsr3std7is_sameIS7_bEE5valuentsr3std7is_sameIS7_T_EE5valueEiE4typeELi0EEET0_SB_S7_
PUBLIC 5d2fc 0 _ZN3fmt3v116detail5writeIcNS0_14basic_appenderIcEEnTnNSt6__ndk19enable_ifIXaaaasr11is_integralIT1_EE5valuentsr3std7is_sameIS7_bEE5valuentsr3std7is_sameIS7_T_EE5valueEiE4typeELi0EEET0_SB_S7_
PUBLIC 5d65c 0 _ZN3fmt3v116detail5writeIcNS0_14basic_appenderIcEEoTnNSt6__ndk19enable_ifIXaaaasr11is_integralIT1_EE5valuentsr3std7is_sameIS7_bEE5valuentsr3std7is_sameIS7_T_EE5valueEiE4typeELi0EEET0_SB_S7_
PUBLIC 5d970 0 _ZN3fmt3v116detail5writeIcNS0_14basic_appenderIcEEbTnNSt6__ndk19enable_ifIXsr3std7is_sameIT1_bEE5valueEiE4typeELi0EEET0_SA_S7_RKNS0_12format_specsENS1_10locale_refE
PUBLIC 5dc00 0 fmt::v11::detail::write_int_noinline<char, fmt::v11::basic_appender<char>, unsigned int>(fmt::v11::basic_appender<char>, fmt::v11::detail::write_int_arg<unsigned int>, fmt::v11::format_specs const&, fmt::v11::detail::locale_ref)
PUBLIC 5e9dc 0 fmt::v11::detail::fill<char, fmt::v11::basic_appender<char> >(fmt::v11::basic_appender<char>, unsigned long, fmt::v11::detail::fill_t const&)
PUBLIC 5ebac 0 fmt::v11::detail::write_padded<char, (fmt::v11::align::type)1, fmt::v11::basic_appender<char>, fmt::v11::detail::write_char<char, fmt::v11::basic_appender<char> >(fmt::v11::basic_appender<char>, char, fmt::v11::format_specs const&)::{lambda(fmt::v11::basic_appender<char>&)#1}>(fmt::v11::basic_appender<char>, fmt::v11::format_specs const&, unsigned long, unsigned long, fmt::v11::detail::write_char<char, fmt::v11::basic_appender<char> >(fmt::v11::basic_appender<char>, char, fmt::v11::format_specs const&)::{lambda(fmt::v11::basic_appender<char>&)#1})
PUBLIC 5ede8 0 fmt::v11::detail::write_escaped_cp<fmt::v11::basic_appender<char>, char>(fmt::v11::basic_appender<char>, fmt::v11::detail::find_escape_result<char> const&)
PUBLIC 5f0f4 0 fmt::v11::detail::write_codepoint<(unsigned long)2, char, fmt::v11::basic_appender<char> >(fmt::v11::basic_appender<char>, char, unsigned int)
PUBLIC 5f26c 0 fmt::v11::detail::write_codepoint<(unsigned long)8, char, fmt::v11::basic_appender<char> >(fmt::v11::basic_appender<char>, char, unsigned int)
PUBLIC 5f3e4 0 fmt::v11::detail::write_padded<char, (fmt::v11::align::type)1, fmt::v11::basic_appender<char>, fmt::v11::detail::write_nonfinite<char, fmt::v11::basic_appender<char> >(fmt::v11::basic_appender<char>, bool, fmt::v11::format_specs, fmt::v11::sign::type)::{lambda(fmt::v11::basic_appender<char>&)#1}>(fmt::v11::basic_appender<char>, fmt::v11::format_specs const&, unsigned long, unsigned long, fmt::v11::detail::write_nonfinite<char, fmt::v11::basic_appender<char> >(fmt::v11::basic_appender<char>, bool, fmt::v11::format_specs, fmt::v11::sign::type)::{lambda(fmt::v11::basic_appender<char>&)#1})
PUBLIC 5f624 0 fmt::v11::detail::do_write_float<char, fmt::v11::basic_appender<char>, fmt::v11::detail::dragonbox::decimal_fp<float>, fmt::v11::detail::digit_grouping<char> >(fmt::v11::basic_appender<char>, fmt::v11::detail::dragonbox::decimal_fp<float> const&, fmt::v11::format_specs const&, fmt::v11::detail::float_specs, fmt::v11::detail::locale_ref)
PUBLIC 60298 0 fmt::v11::detail::do_write_float<char, fmt::v11::basic_appender<char>, fmt::v11::detail::dragonbox::decimal_fp<float>, fmt::v11::detail::digit_grouping<char> >(fmt::v11::basic_appender<char>, fmt::v11::detail::dragonbox::decimal_fp<float> const&, fmt::v11::format_specs const&, fmt::v11::detail::float_specs, fmt::v11::detail::locale_ref)::{lambda(fmt::v11::basic_appender<char>(fmt::v11::basic_appender<char>))#1}::operator() const
PUBLIC 603ec 0 fmt::v11::detail::digit_grouping<char>::digit_grouping(fmt::v11::detail::locale_ref, bool)
PUBLIC 60658 0 fmt::v11::detail::digit_grouping<char>::~digit_grouping()
PUBLIC 6069c 0 fmt::v11::detail::write_exponent<char, fmt::v11::basic_appender<char> >(int, fmt::v11::basic_appender<char>)
PUBLIC 6086c 0 _ZN3fmt3v116detail17write_significandIcjTnNSt6__ndk19enable_ifIXsr3std11is_integralIT0_EE5valueEiE4typeELi0EEEPT_S9_S5_iiS8_
PUBLIC 609e8 0 fmt::v11::detail::digit_grouping<char>::apply<fmt::v11::basic_appender<char>, char>(fmt::v11::basic_appender<char>, fmt::v11::basic_string_view<char>) const
PUBLIC 60da0 0 fmt::v11::basic_memory_buffer<int, (unsigned long)500, std::__ndk1::allocator<int> >::grow(fmt::v11::detail::buffer<int>&, unsigned long)
PUBLIC 60e40 0 fmt::v11::detail::do_write_float<char, fmt::v11::basic_appender<char>, fmt::v11::detail::dragonbox::decimal_fp<double>, fmt::v11::detail::digit_grouping<char> >(fmt::v11::basic_appender<char>, fmt::v11::detail::dragonbox::decimal_fp<double> const&, fmt::v11::format_specs const&, fmt::v11::detail::float_specs, fmt::v11::detail::locale_ref)
PUBLIC 61af4 0 fmt::v11::detail::do_write_float<char, fmt::v11::basic_appender<char>, fmt::v11::detail::dragonbox::decimal_fp<double>, fmt::v11::detail::digit_grouping<char> >(fmt::v11::basic_appender<char>, fmt::v11::detail::dragonbox::decimal_fp<double> const&, fmt::v11::format_specs const&, fmt::v11::detail::float_specs, fmt::v11::detail::locale_ref)::{lambda(fmt::v11::basic_appender<char>(fmt::v11::basic_appender<char>))#1}::operator() const
PUBLIC 61c4c 0 _ZN3fmt3v116detail17write_significandIcmTnNSt6__ndk19enable_ifIXsr3std11is_integralIT0_EE5valueEiE4typeELi0EEEPT_S9_S5_iiS8_
PUBLIC 61ddc 0 fmt::v11::detail::write_float<char, fmt::v11::basic_appender<char>, long double>(fmt::v11::basic_appender<char>, long double, fmt::v11::format_specs, fmt::v11::detail::locale_ref)
PUBLIC 628d8 0 fmt::v11::detail::write_padded<char, (fmt::v11::align::type)2, fmt::v11::basic_appender<char>, fmt::v11::detail::write_bytes<char, (fmt::v11::align::type)2, fmt::v11::basic_appender<char> >(fmt::v11::basic_appender<char>, fmt::v11::basic_string_view<char>, fmt::v11::format_specs const&)::{lambda(fmt::v11::basic_appender<char>&)#1}>(fmt::v11::basic_appender<char>, fmt::v11::format_specs const&, unsigned long, unsigned long, fmt::v11::detail::write_bytes<char, (fmt::v11::align::type)2, fmt::v11::basic_appender<char> >(fmt::v11::basic_appender<char>, fmt::v11::basic_string_view<char>, fmt::v11::format_specs const&)::{lambda(fmt::v11::basic_appender<char>&)#1})
PUBLIC 62ab4 0 fmt::v11::detail::format_dragon(fmt::v11::detail::basic_fp<unsigned __int128>, unsigned int, int, fmt::v11::detail::buffer<char>&, int&)
PUBLIC 63ee4 0 fmt::v11::detail::bigint::operator<<=(int)
PUBLIC 64008 0 fmt::v11::detail::bigint::assign_pow10(int)
PUBLIC 64764 0 fmt::v11::detail::bigint::divmod_assign(fmt::v11::detail::bigint const&)
PUBLIC 64a84 0 fmt::v11::basic_memory_buffer<unsigned int, (unsigned long)32, std::__ndk1::allocator<unsigned int> >::grow(fmt::v11::detail::buffer<unsigned int>&, unsigned long)
PUBLIC 64b24 0 fmt::v11::detail::do_write_float<char, fmt::v11::basic_appender<char>, fmt::v11::detail::big_decimal_fp, fmt::v11::detail::digit_grouping<char> >(fmt::v11::basic_appender<char>, fmt::v11::detail::big_decimal_fp const&, fmt::v11::format_specs const&, fmt::v11::detail::float_specs, fmt::v11::detail::locale_ref)
PUBLIC 659d4 0 fmt::v11::detail::do_write_float<char, fmt::v11::basic_appender<char>, fmt::v11::detail::big_decimal_fp, fmt::v11::detail::digit_grouping<char> >(fmt::v11::basic_appender<char>, fmt::v11::detail::big_decimal_fp const&, fmt::v11::format_specs const&, fmt::v11::detail::float_specs, fmt::v11::detail::locale_ref)::{lambda(fmt::v11::basic_appender<char>(fmt::v11::basic_appender<char>))#1}::operator() const
PUBLIC 65b34 0 fmt::v11::detail::write_padded<char, (fmt::v11::align::type)2, fmt::v11::basic_appender<char>, fmt::v11::detail::write_ptr<char, fmt::v11::basic_appender<char>, unsigned long>(fmt::v11::basic_appender<char>, unsigned long, fmt::v11::format_specs const*)::{lambda(fmt::v11::basic_appender<char>&)#1}>(fmt::v11::basic_appender<char>, fmt::v11::format_specs const&, unsigned long, unsigned long, fmt::v11::detail::write_ptr<char, fmt::v11::basic_appender<char>, unsigned long>(fmt::v11::basic_appender<char>, unsigned long, fmt::v11::format_specs const*)::{lambda(fmt::v11::basic_appender<char>&)#1})
PUBLIC 65d48 0 fmt::v11::detail::parse_replacement_field<char, fmt::v11::detail::vformat_to<char>(fmt::v11::detail::buffer<char>&, fmt::v11::basic_string_view<char>, fmt::v11::detail::vformat_args<char>::type, fmt::v11::detail::locale_ref)::format_handler&>(char const*, char const*, fmt::v11::detail::vformat_to<char>(fmt::v11::detail::buffer<char>&, fmt::v11::basic_string_view<char>, fmt::v11::detail::vformat_args<char>::type, fmt::v11::detail::locale_ref)::format_handler&)
PUBLIC 679e4 0 fmt::v11::detail::parse_dynamic_spec<char>(char const*, char const*, int&, fmt::v11::detail::arg_ref<char>&, fmt::v11::basic_format_parse_context<char>&)
PUBLIC 67c74 0 fmt::v11::basic_format_args<fmt::v11::context>::get<char>(fmt::v11::basic_string_view<char>) const
PUBLIC 67dcc 0 fmt::v11::detail::write_int_noinline<char, fmt::v11::basic_appender<char>, unsigned long>(fmt::v11::basic_appender<char>, fmt::v11::detail::write_int_arg<unsigned long>, fmt::v11::format_specs const&, fmt::v11::detail::locale_ref)
PUBLIC 68c20 0 fmt::v11::detail::write_int_noinline<char, fmt::v11::basic_appender<char>, unsigned __int128>(fmt::v11::basic_appender<char>, fmt::v11::detail::write_int_arg<unsigned __int128>, fmt::v11::format_specs const&, fmt::v11::detail::locale_ref)
PUBLIC 69c88 0 _ZN3fmt3v116detail15format_hexfloatIdTnNSt6__ndk19enable_ifIXntsr16is_double_doubleIT_EE5valueEiE4typeELi0EEEvS5_NS0_12format_specsERNS1_6bufferIcEE
PUBLIC 6a1a8 0 fmt::v11::detail::format_float<double>(double, int, fmt::v11::detail::float_specs, fmt::v11::detail::buffer<char>&)
PUBLIC 6ab48 0 fmt::v11::detail::write<char, fmt::v11::basic_appender<char> >(fmt::v11::basic_appender<char>, fmt::v11::basic_string_view<char>, fmt::v11::format_specs const&)
PUBLIC 6beb4 0 fmt::v11::detail::for_each_codepoint<fmt::v11::detail::compute_width(fmt::v11::basic_string_view<char>)::count_code_points>(fmt::v11::basic_string_view<char>, fmt::v11::detail::compute_width(fmt::v11::basic_string_view<char>)::count_code_points)::{lambda(char const*, char const*)#1}::operator()(char const*, char const*) const
PUBLIC 6c06c 0 fmt::v11::detail::write_int<fmt::v11::basic_appender<char>, unsigned long, char>(fmt::v11::basic_appender<char>, unsigned long, unsigned int, fmt::v11::format_specs const&, fmt::v11::detail::digit_grouping<char> const&)
PUBLIC 6c5e8 0 fmt::v11::detail::write_int<fmt::v11::basic_appender<char>, unsigned __int128, char>(fmt::v11::basic_appender<char>, unsigned __int128, unsigned int, fmt::v11::format_specs const&, fmt::v11::detail::digit_grouping<char> const&)
PUBLIC 6cc70 0 <.plt ELF section in hiimjustin000.fake_rate.android64.so>
STACK CFI INIT 339b0 10 .cfa: sp 0 +
STACK CFI INIT 339c0 8 .cfa: sp 0 +
STACK CFI INIT 339c8 8 .cfa: sp 0 +
STACK CFI INIT 339d0 14 .cfa: sp 0 +
STACK CFI INIT 339e4 1c .cfa: sp 0 +
STACK CFI INIT 33a00 10 .cfa: sp 0 +
STACK CFI INIT 33a10 134 .cfa: sp 0 +
STACK CFI INIT 33b44 84 .cfa: sp 0 +
STACK CFI INIT 33bc8 f4 .cfa: sp 0 +
STACK CFI INIT 33cbc a8 .cfa: sp 0 +
STACK CFI INIT 33d64 7c .cfa: sp 0 +
STACK CFI INIT 33de0 14 .cfa: sp 0 +
STACK CFI INIT 33df4 40 .cfa: sp 0 +
STACK CFI INIT 33e34 28 .cfa: sp 0 +
STACK CFI INIT 33e5c 190 .cfa: sp 0 +
STACK CFI INIT 33fec 2c8 .cfa: sp 0 +
STACK CFI INIT 342b4 8 .cfa: sp 0 +
STACK CFI INIT 342bc 8 .cfa: sp 0 +
STACK CFI INIT 342c4 44 .cfa: sp 0 +
STACK CFI INIT 34308 e8 .cfa: sp 0 +
STACK CFI INIT 343f0 e8 .cfa: sp 0 +
STACK CFI INIT 344d8 14 .cfa: sp 0 +
STACK CFI INIT 344ec 10 .cfa: sp 0 +
STACK CFI INIT 344fc 10 .cfa: sp 0 +
STACK CFI INIT 3450c f0 .cfa: sp 0 +
STACK CFI INIT 345fc 44 .cfa: sp 0 +
STACK CFI INIT 34640 c .cfa: sp 0 +
STACK CFI INIT 3464c c .cfa: sp 0 +
STACK CFI INIT 34658 2c .cfa: sp 0 +
STACK CFI INIT 34684 280 .cfa: sp 0 +
STACK CFI INIT 34904 c .cfa: sp 0 +
STACK CFI INIT 34910 120 .cfa: sp 0 +
STACK CFI INIT 34a30 488 .cfa: sp 0 +
STACK CFI INIT 34eb8 c48 .cfa: sp 0 +
STACK CFI INIT 35b00 134 .cfa: sp 0 +
STACK CFI INIT 35c34 210 .cfa: sp 0 +
STACK CFI INIT 35e44 38c .cfa: sp 0 +
STACK CFI INIT 361d0 1c8 .cfa: sp 0 +
STACK CFI INIT 36398 9bc .cfa: sp 0 +
STACK CFI INIT 36d54 2d4 .cfa: sp 0 +
STACK CFI INIT 37028 134 .cfa: sp 0 +
STACK CFI INIT 3715c 120 .cfa: sp 0 +
STACK CFI INIT 3727c 1c8 .cfa: sp 0 +
STACK CFI INIT 37444 168 .cfa: sp 0 +
STACK CFI INIT 375ac fc .cfa: sp 0 +
STACK CFI INIT 376a8 30 .cfa: sp 0 +
STACK CFI INIT 37810 30 .cfa: sp 0 +
STACK CFI INIT 37840 98 .cfa: sp 0 +
STACK CFI INIT 378d8 59c .cfa: sp 0 +
STACK CFI INIT 37e74 8c .cfa: sp 0 +
STACK CFI INIT 385e8 70 .cfa: sp 0 +
STACK CFI 385ec .cfa: sp 48 +
STACK CFI 385f8 .cfa: x29 48 + x19: .cfa -8 + ^ x20: .cfa -16 + ^ x21: .cfa -32 + ^ .ra: .cfa -40 + ^ x29: .cfa -48 + ^
STACK CFI 38610 .cfa: sp 48 +
STACK CFI 3861c .cfa: sp 0 +
STACK CFI 38620 .cfa: x29 48 +
STACK CFI 38648 .cfa: sp 48 +
STACK CFI 38654 .cfa: sp 0 +
STACK CFI INIT 39148 14c .cfa: sp 0 +
STACK CFI 3914c .cfa: sp 80 +
STACK CFI 3915c .cfa: x29 32 + x19: .cfa -8 + ^ x20: .cfa -16 + ^ .ra: .cfa -24 + ^ x29: .cfa -32 + ^ v8: .cfa -40 + ^ v9: .cfa -48 + ^
STACK CFI 3921c .cfa: sp 80 +
STACK CFI 3922c .cfa: sp 0 +
STACK CFI 39230 .cfa: x29 32 +
STACK CFI INIT 3951c 8 .cfa: sp 0 +
STACK CFI INIT 39604 2c .cfa: sp 0 +
STACK CFI 39608 .cfa: sp 32 +
STACK CFI 39610 .cfa: x29 32 + x19: .cfa -16 + ^ .ra: .cfa -24 + ^ x29: .cfa -32 + ^
STACK CFI 39624 .cfa: sp 32 +
STACK CFI 3962c .cfa: sp 0 +
STACK CFI INIT 39630 28 .cfa: sp 0 +
STACK CFI INIT 39658 4 .cfa: sp 0 +
STACK CFI INIT 3965c 8 .cfa: sp 0 +
STACK CFI INIT 3988c 2c .cfa: sp 0 +
STACK CFI INIT 398b8 4 .cfa: sp 0 +
STACK CFI INIT 398bc 4 .cfa: sp 0 +
STACK CFI INIT 398c0 4 .cfa: sp 0 +
STACK CFI INIT 398c4 4 .cfa: sp 0 +
STACK CFI INIT 398c8 4 .cfa: sp 0 +
STACK CFI INIT 398cc 8 .cfa: sp 0 +
STACK CFI INIT 398d4 4 .cfa: sp 0 +
STACK CFI INIT 39944 4 .cfa: sp 0 +
STACK CFI INIT 39948 10 .cfa: sp 0 +
STACK CFI 3994c .cfa: sp 16 +
STACK CFI 39950 .cfa: x29 16 + .ra: .cfa -8 + ^ x29: .cfa -16 + ^
STACK CFI INIT 39958 14 .cfa: sp 0 +
STACK CFI 3995c .cfa: sp 16 +
STACK CFI 39960 .cfa: x29 16 + .ra: .cfa -8 + ^ x29: .cfa -16 + ^
STACK CFI INIT 399bc 30 .cfa: sp 0 +
STACK CFI 399c0 .cfa: sp 32 +
STACK CFI 399c8 .cfa: x29 32 + x19: .cfa -16 + ^ .ra: .cfa -24 + ^ x29: .cfa -32 + ^
STACK CFI 399e0 .cfa: sp 32 +
STACK CFI 399e8 .cfa: sp 0 +
STACK CFI INIT 399ec 34 .cfa: sp 0 +
STACK CFI 399f0 .cfa: sp 32 +
STACK CFI 399f8 .cfa: x29 32 + x19: .cfa -16 + ^ .ra: .cfa -24 + ^ x29: .cfa -32 + ^
STACK CFI INIT 39d7c 70 .cfa: sp 0 +
STACK CFI 39d80 .cfa: sp 48 +
STACK CFI 39d8c .cfa: x29 32 + x19: .cfa -16 + ^ .ra: .cfa -24 + ^ x29: .cfa -32 + ^
STACK CFI 39dc4 .cfa: sp 48 +
STACK CFI 39dd0 .cfa: sp 0 +
STACK CFI 39dd4 .cfa: x29 32 +
STACK CFI INIT 39dec 5c .cfa: sp 0 +
STACK CFI 39df0 .cfa: sp 32 +
STACK CFI 39df8 .cfa: x29 32 + x19: .cfa -16 + ^ .ra: .cfa -24 + ^ x29: .cfa -32 + ^
STACK CFI 39e3c .cfa: sp 32 +
STACK CFI 39e44 .cfa: sp 0 +
STACK CFI INIT 39e48 64 .cfa: sp 0 +
STACK CFI 39e4c .cfa: sp 32 +
STACK CFI 39e54 .cfa: x29 32 + x19: .cfa -16 + ^ .ra: .cfa -24 + ^ x29: .cfa -32 + ^
STACK CFI 39ea0 .cfa: sp 32 +
STACK CFI 39ea8 .cfa: sp 0 +
STACK CFI INIT 39eac 4 .cfa: sp 0 +
STACK CFI INIT 39eb0 34 .cfa: sp 0 +
STACK CFI 39eb4 .cfa: sp 16 +
STACK CFI 39eb8 .cfa: x29 16 + .ra: .cfa -8 + ^ x29: .cfa -16 + ^
STACK CFI INIT 39ee4 24 .cfa: sp 0 +
STACK CFI 39ee8 .cfa: sp 32 +
STACK CFI 39ef0 .cfa: x29 32 + x19: .cfa -16 + ^ .ra: .cfa -24 + ^ x29: .cfa -32 + ^
STACK CFI 39efc .cfa: sp 32 +
STACK CFI 39f04 .cfa: sp 0 +
STACK CFI INIT 39f08 70 .cfa: sp 0 +
STACK CFI 39f0c .cfa: sp 48 +
STACK CFI 39f18 .cfa: x29 48 + x19: .cfa -8 + ^ x20: .cfa -16 + ^ x21: .cfa -32 + ^ .ra: .cfa -40 + ^ x29: .cfa -48 + ^
STACK CFI 39f30 .cfa: sp 48 +
STACK CFI 39f3c .cfa: sp 0 +
STACK CFI 39f40 .cfa: x29 48 +
STACK CFI 39f68 .cfa: sp 48 +
STACK CFI 39f74 .cfa: sp 0 +
STACK CFI INIT 3a438 50 .cfa: sp 0 +
STACK CFI 3a45c .cfa: sp 32 +
STACK CFI 3a464 .cfa: x29 32 + x19: .cfa -16 + ^ .ra: .cfa -24 + ^ x29: .cfa -32 + ^
STACK CFI 3a478 .cfa: sp 32 +
STACK CFI 3a480 .cfa: sp 0 +
STACK CFI INIT 3a488 44c .cfa: sp 0 +
STACK CFI INIT 3a8d4 80 .cfa: sp 0 +
STACK CFI 3a8d8 .cfa: sp 48 +
STACK CFI 3a8e4 .cfa: x29 48 + x19: .cfa -8 + ^ x20: .cfa -16 + ^ x21: .cfa -24 + ^ x22: .cfa -32 + ^ .ra: .cfa -40 + ^ x29: .cfa -48 + ^
STACK CFI 3a8fc .cfa: sp 48 +
STACK CFI 3a908 .cfa: sp 0 +
STACK CFI 3a90c .cfa: x29 48 +
STACK CFI 3a93c .cfa: sp 48 +
STACK CFI 3a948 .cfa: sp 0 +
STACK CFI 3a94c .cfa: x29 48 +
STACK CFI INIT 3a954 1ac .cfa: sp 0 +
STACK CFI 3a958 .cfa: sp 32 +
STACK CFI 3a960 .cfa: x29 32 + x19: .cfa -8 + ^ x20: .cfa -16 + ^ .ra: .cfa -24 + ^ x29: .cfa -32 + ^
STACK CFI 3aa50 .cfa: sp 32 +
STACK CFI 3aa58 .cfa: sp 0 +
STACK CFI 3aa5c .cfa: x29 32 +
STACK CFI INIT 3ab00 304 .cfa: sp 0 +
STACK CFI 3ab04 .cfa: sp 144 +
STACK CFI 3ab20 .cfa: x29 80 + x19: .cfa -8 + ^ x20: .cfa -16 + ^ x21: .cfa -24 + ^ x22: .cfa -32 + ^ x23: .cfa -40 + ^ x24: .cfa -48 + ^ x25: .cfa -64 + ^ .ra: .cfa -72 + ^ x29: .cfa -80 + ^ v8: .cfa -88 + ^ v9: .cfa -96 + ^
STACK CFI 3ade0 .cfa: sp 144 +
STACK CFI 3adfc .cfa: sp 0 +
STACK CFI 3ae00 .cfa: x29 80 +
STACK CFI INIT 3ae04 4 .cfa: sp 0 +
STACK CFI INIT 3ae08 4 .cfa: sp 0 +
STACK CFI INIT 3ae0c 38 .cfa: sp 0 +
STACK CFI 3ae10 .cfa: sp 32 +
STACK CFI 3ae18 .cfa: x29 32 + x19: .cfa -16 + ^ .ra: .cfa -24 + ^ x29: .cfa -32 + ^
STACK CFI 3ae38 .cfa: sp 32 +
STACK CFI 3ae40 .cfa: sp 0 +
STACK CFI INIT 3ae44 18 .cfa: sp 0 +
STACK CFI INIT 3ae5c 4 .cfa: sp 0 +
STACK CFI INIT 3ae60 4 .cfa: sp 0 +
STACK CFI INIT 3ae64 a8 .cfa: sp 0 +
STACK CFI 3ae68 .cfa: sp 32 +
STACK CFI 3ae70 .cfa: x29 32 + x19: .cfa -8 + ^ x20: .cfa -16 + ^ .ra: .cfa -24 + ^ x29: .cfa -32 + ^
STACK CFI 3aedc .cfa: sp 32 +
STACK CFI 3aee4 .cfa: sp 0 +
STACK CFI 3aee8 .cfa: x29 32 +
STACK CFI 3af00 .cfa: sp 32 +
STACK CFI 3af08 .cfa: sp 0 +
STACK CFI INIT 3af0c 1c .cfa: sp 0 +
STACK CFI INIT 3af28 c .cfa: sp 0 +
STACK CFI INIT 3af34 60 .cfa: sp 0 +
STACK CFI 3af38 .cfa: sp 32 +
STACK CFI 3af40 .cfa: x29 32 + x19: .cfa -8 + ^ x20: .cfa -16 + ^ .ra: .cfa -24 + ^ x29: .cfa -32 + ^
STACK CFI 3af60 .cfa: sp 32 +
STACK CFI 3af68 .cfa: sp 0 +
STACK CFI 3af6c .cfa: x29 32 +
STACK CFI 3af88 .cfa: sp 32 +
STACK CFI 3af90 .cfa: sp 0 +
STACK CFI INIT 3af94 70 .cfa: sp 0 +
STACK CFI 3af98 .cfa: sp 32 +
STACK CFI 3afa0 .cfa: x29 32 + x19: .cfa -8 + ^ x20: .cfa -16 + ^ .ra: .cfa -24 + ^ x29: .cfa -32 + ^
STACK CFI 3afc8 .cfa: sp 32 +
STACK CFI 3afd0 .cfa: sp 0 +
STACK CFI 3afd4 .cfa: x29 32 +
STACK CFI 3aff8 .cfa: sp 32 +
STACK CFI 3b000 .cfa: sp 0 +
STACK CFI INIT 3b004 10 .cfa: sp 0 +
STACK CFI INIT 3b014 30 .cfa: sp 0 +
STACK CFI 3b018 .cfa: sp 32 +
STACK CFI 3b020 .cfa: x29 32 + x19: .cfa -16 + ^ .ra: .cfa -24 + ^ x29: .cfa -32 + ^
STACK CFI 3b038 .cfa: sp 32 +
STACK CFI 3b040 .cfa: sp 0 +
STACK CFI INIT 3b044 4 .cfa: sp 0 +
STACK CFI INIT 3b048 4 .cfa: sp 0 +
STACK CFI INIT 3b04c 4c .cfa: sp 0 +
STACK CFI INIT 3b098 5c .cfa: sp 0 +
STACK CFI 3b09c .cfa: sp 32 +
STACK CFI 3b0a4 .cfa: x29 32 + x19: .cfa -16 + ^ .ra: .cfa -24 + ^ x29: .cfa -32 + ^
STACK CFI 3b0e8 .cfa: sp 32 +
STACK CFI 3b0f0 .cfa: sp 0 +
STACK CFI INIT 3b190 88 .cfa: sp 0 +
STACK CFI 3b194 .cfa: sp 32 +
STACK CFI 3b19c .cfa: x29 32 + x19: .cfa -16 + ^ .ra: .cfa -24 + ^ x29: .cfa -32 + ^
STACK CFI 3b1dc .cfa: sp 32 +
STACK CFI 3b1e4 .cfa: sp 0 +
STACK CFI 3b1e8 .cfa: x29 32 +
STACK CFI 3b1ec .cfa: sp 32 +
STACK CFI 3b1f4 .cfa: sp 0 +
STACK CFI 3b1f8 .cfa: x29 32 +
STACK CFI 3b20c .cfa: sp 32 +
STACK CFI 3b214 .cfa: sp 0 +
STACK CFI INIT 3b218 40 .cfa: sp 0 +
STACK CFI INIT 3b258 50 .cfa: sp 0 +
STACK CFI 3b25c .cfa: sp 32 +
STACK CFI 3b264 .cfa: x29 32 + x19: .cfa -16 + ^ .ra: .cfa -24 + ^ x29: .cfa -32 + ^
STACK CFI 3b29c .cfa: sp 32 +
STACK CFI 3b2a4 .cfa: sp 0 +
STACK CFI INIT 3b2a8 8c .cfa: sp 0 +
STACK CFI 3b2ac .cfa: sp 48 +
STACK CFI 3b2b8 .cfa: x29 32 + x19: .cfa -8 + ^ x20: .cfa -16 + ^ .ra: .cfa -24 + ^ x29: .cfa -32 + ^
STACK CFI 3b30c .cfa: sp 48 +
STACK CFI 3b318 .cfa: sp 0 +
STACK CFI 3b31c .cfa: x29 32 +
STACK CFI INIT 3b334 1c .cfa: sp 0 +
STACK CFI INIT 3b350 c .cfa: sp 0 +
STACK CFI INIT 3b360 30 .cfa: sp 0 +
STACK CFI INIT 3e21c 8 .cfa: sp 0 +
STACK CFI INIT 3e224 24 .cfa: sp 0 +
STACK CFI 3e228 .cfa: sp 32 +
STACK CFI 3e230 .cfa: x29 32 + x19: .cfa -16 + ^ .ra: .cfa -24 + ^ x29: .cfa -32 + ^
STACK CFI 3e23c .cfa: sp 32 +
STACK CFI 3e244 .cfa: sp 0 +
STACK CFI INIT 3e248 28 .cfa: sp 0 +
STACK CFI 3e24c .cfa: sp 32 +
STACK CFI 3e254 .cfa: x29 32 + x19: .cfa -16 + ^ .ra: .cfa -24 + ^ x29: .cfa -32 + ^
STACK CFI 3e264 .cfa: sp 32 +
STACK CFI 3e26c .cfa: sp 0 +
STACK CFI INIT 3e270 2c .cfa: sp 0 +
STACK CFI 3e274 .cfa: sp 32 +
STACK CFI 3e27c .cfa: x29 32 + x19: .cfa -16 + ^ .ra: .cfa -24 + ^ x29: .cfa -32 + ^
STACK CFI 3e290 .cfa: sp 32 +
STACK CFI 3e298 .cfa: sp 0 +
STACK CFI INIT 3e29c 28 .cfa: sp 0 +
STACK CFI INIT 3e40c 2c .cfa: sp 0 +
STACK CFI INIT 3e4a4 4 .cfa: sp 0 +
STACK CFI INIT 3e514 4 .cfa: sp 0 +
STACK CFI INIT 3e518 70 .cfa: sp 0 +
STACK CFI 3e51c .cfa: sp 48 +
STACK CFI 3e528 .cfa: x29 32 + x19: .cfa -16 + ^ .ra: .cfa -24 + ^ x29: .cfa -32 + ^
STACK CFI 3e560 .cfa: sp 48 +
STACK CFI 3e56c .cfa: sp 0 +
STACK CFI 3e570 .cfa: x29 32 +
STACK CFI INIT 3e588 5c .cfa: sp 0 +
STACK CFI 3e58c .cfa: sp 32 +
STACK CFI 3e594 .cfa: x29 32 + x19: .cfa -16 + ^ .ra: .cfa -24 + ^ x29: .cfa -32 + ^
STACK CFI 3e5d8 .cfa: sp 32 +
STACK CFI 3e5e0 .cfa: sp 0 +
STACK CFI INIT 3e5e4 64 .cfa: sp 0 +
STACK CFI 3e5e8 .cfa: sp 32 +
STACK CFI 3e5f0 .cfa: x29 32 + x19: .cfa -16 + ^ .ra: .cfa -24 + ^ x29: .cfa -32 + ^
STACK CFI 3e63c .cfa: sp 32 +
STACK CFI 3e644 .cfa: sp 0 +
STACK CFI INIT 3e648 30c .cfa: sp 0 +
STACK CFI 3e64c .cfa: sp 144 +
STACK CFI 3e668 .cfa: x29 80 + x19: .cfa -8 + ^ x20: .cfa -16 + ^ x21: .cfa -24 + ^ x22: .cfa -32 + ^ x23: .cfa -40 + ^ x24: .cfa -48 + ^ x25: .cfa -56 + ^ x26: .cfa -64 + ^ .ra: .cfa -72 + ^ x29: .cfa -80 + ^ v8: .cfa -88 + ^ v9: .cfa -96 + ^
STACK CFI 3e930 .cfa: sp 144 +
STACK CFI 3e94c .cfa: sp 0 +
STACK CFI 3e950 .cfa: x29 80 +
STACK CFI INIT 3e954 104 .cfa: sp 0 +
STACK CFI 3e958 .cfa: sp 64 +
STACK CFI 3e968 .cfa: x29 64 + x19: .cfa -8 + ^ x20: .cfa -16 + ^ x21: .cfa -24 + ^ x22: .cfa -32 + ^ x23: .cfa -48 + ^ .ra: .cfa -56 + ^ x29: .cfa -64 + ^
STACK CFI 3e9c4 .cfa: sp 64 +
STACK CFI 3e9d4 .cfa: sp 0 +
STACK CFI 3e9d8 .cfa: x29 64 +
STACK CFI 3e9f4 .cfa: sp 64 +
STACK CFI 3ea04 .cfa: sp 0 +
STACK CFI 3ea08 .cfa: x29 64 +
STACK CFI 3ea44 .cfa: sp 64 +
STACK CFI 3ea54 .cfa: sp 0 +
STACK CFI INIT 3ea58 4 .cfa: sp 0 +
STACK CFI INIT 3ea5c 34 .cfa: sp 0 +
STACK CFI 3ea60 .cfa: sp 32 +
STACK CFI 3ea68 .cfa: x29 32 + x19: .cfa -16 + ^ .ra: .cfa -24 + ^ x29: .cfa -32 + ^
STACK CFI 3ea84 .cfa: sp 32 +
STACK CFI 3ea8c .cfa: sp 0 +
STACK CFI INIT 3ea90 14 .cfa: sp 0 +
STACK CFI INIT 3eaa4 4 .cfa: sp 0 +
STACK CFI INIT 3eaa8 4 .cfa: sp 0 +
STACK CFI INIT 3ebb8 1c .cfa: sp 0 +
STACK CFI INIT 3ebd4 c .cfa: sp 0 +
STACK CFI INIT 3ebe0 4 .cfa: sp 0 +
STACK CFI INIT 3ebe4 4 .cfa: sp 0 +
STACK CFI INIT 3ebe8 34 .cfa: sp 0 +
STACK CFI 3ebec .cfa: sp 32 +
STACK CFI 3ebf4 .cfa: x29 32 + x19: .cfa -16 + ^ .ra: .cfa -24 + ^ x29: .cfa -32 + ^
STACK CFI 3ec10 .cfa: sp 32 +
STACK CFI 3ec18 .cfa: sp 0 +
STACK CFI INIT 3ec1c 14 .cfa: sp 0 +
STACK CFI INIT 3ec30 4 .cfa: sp 0 +
STACK CFI INIT 3ec34 4 .cfa: sp 0 +
STACK CFI INIT 3ec38 30 .cfa: sp 0 +
STACK CFI INIT 3ec68 1c .cfa: sp 0 +
STACK CFI INIT 3ec84 c .cfa: sp 0 +
STACK CFI INIT 3ec90 4 .cfa: sp 0 +
STACK CFI INIT 3ec94 34 .cfa: sp 0 +
STACK CFI 3ec98 .cfa: sp 32 +
STACK CFI 3eca0 .cfa: x29 32 + x19: .cfa -16 + ^ .ra: .cfa -24 + ^ x29: .cfa -32 + ^
STACK CFI 3ecbc .cfa: sp 32 +
STACK CFI 3ecc4 .cfa: sp 0 +
STACK CFI INIT 3ecc8 14 .cfa: sp 0 +
STACK CFI INIT 3ecdc 4 .cfa: sp 0 +
STACK CFI INIT 3ece0 4 .cfa: sp 0 +
STACK CFI INIT 3ede0 1c .cfa: sp 0 +
STACK CFI INIT 3edfc c .cfa: sp 0 +
STACK CFI INIT 3ee08 4 .cfa: sp 0 +
STACK CFI INIT 3ee0c 34 .cfa: sp 0 +
STACK CFI 3ee10 .cfa: sp 32 +
STACK CFI 3ee18 .cfa: x29 32 + x19: .cfa -16 + ^ .ra: .cfa -24 + ^ x29: .cfa -32 + ^
STACK CFI 3ee34 .cfa: sp 32 +
STACK CFI 3ee3c .cfa: sp 0 +
STACK CFI INIT 3ee40 14 .cfa: sp 0 +
STACK CFI INIT 3ee54 4 .cfa: sp 0 +
STACK CFI INIT 3ee58 4 .cfa: sp 0 +
STACK CFI INIT 3ee5c 10 .cfa: sp 0 +
STACK CFI INIT 3ee6c 1c .cfa: sp 0 +
STACK CFI INIT 3ee88 c .cfa: sp 0 +
STACK CFI INIT 3ee94 4 .cfa: sp 0 +
STACK CFI INIT 3ee98 34 .cfa: sp 0 +
STACK CFI 3ee9c .cfa: sp 32 +
STACK CFI 3eea4 .cfa: x29 32 + x19: .cfa -16 + ^ .ra: .cfa -24 + ^ x29: .cfa -32 + ^
STACK CFI 3eec0 .cfa: sp 32 +
STACK CFI 3eec8 .cfa: sp 0 +
STACK CFI INIT 3eecc 14 .cfa: sp 0 +
STACK CFI INIT 3eee0 4 .cfa: sp 0 +
STACK CFI INIT 3eee4 4 .cfa: sp 0 +
STACK CFI INIT 3eff4 1c .cfa: sp 0 +
STACK CFI INIT 3f010 c .cfa: sp 0 +
STACK CFI INIT 3f01c 4 .cfa: sp 0 +
STACK CFI INIT 3f020 4 .cfa: sp 0 +
STACK CFI INIT 3f024 34 .cfa: sp 0 +
STACK CFI 3f028 .cfa: sp 32 +
STACK CFI 3f030 .cfa: x29 32 + x19: .cfa -16 + ^ .ra: .cfa -24 + ^ x29: .cfa -32 + ^
STACK CFI 3f04c .cfa: sp 32 +
STACK CFI 3f054 .cfa: sp 0 +
STACK CFI INIT 3f058 14 .cfa: sp 0 +
STACK CFI INIT 3f06c 4 .cfa: sp 0 +
STACK CFI INIT 3f070 4 .cfa: sp 0 +
STACK CFI INIT 3f074 10 .cfa: sp 0 +
STACK CFI INIT 3f084 1c .cfa: sp 0 +
STACK CFI INIT 3f0a0 c .cfa: sp 0 +
STACK CFI INIT 3f0ac 4 .cfa: sp 0 +
STACK CFI INIT 3f0b0 4 .cfa: sp 0 +
STACK CFI INIT 3f0b4 34 .cfa: sp 0 +
STACK CFI 3f0b8 .cfa: sp 32 +
STACK CFI 3f0c0 .cfa: x29 32 + x19: .cfa -16 + ^ .ra: .cfa -24 + ^ x29: .cfa -32 + ^
STACK CFI 3f0dc .cfa: sp 32 +
STACK CFI 3f0e4 .cfa: sp 0 +
STACK CFI INIT 3f0e8 14 .cfa: sp 0 +
STACK CFI INIT 3f0fc 4 .cfa: sp 0 +
STACK CFI INIT 3f100 4 .cfa: sp 0 +
STACK CFI INIT 3f104 14 .cfa: sp 0 +
STACK CFI INIT 3f118 1c .cfa: sp 0 +
STACK CFI INIT 3f134 c .cfa: sp 0 +
STACK CFI INIT 3f140 60 .cfa: sp 0 +
STACK CFI 3f144 .cfa: sp 32 +
STACK CFI 3f14c .cfa: x29 32 + x19: .cfa -8 + ^ x20: .cfa -16 + ^ .ra: .cfa -24 + ^ x29: .cfa -32 + ^
STACK CFI 3f16c .cfa: sp 32 +
STACK CFI 3f174 .cfa: sp 0 +
STACK CFI 3f178 .cfa: x29 32 +
STACK CFI 3f194 .cfa: sp 32 +
STACK CFI 3f19c .cfa: sp 0 +
STACK CFI INIT 3f1a0 70 .cfa: sp 0 +
STACK CFI 3f1a4 .cfa: sp 32 +
STACK CFI 3f1ac .cfa: x29 32 + x19: .cfa -8 + ^ x20: .cfa -16 + ^ .ra: .cfa -24 + ^ x29: .cfa -32 + ^
STACK CFI 3f1d4 .cfa: sp 32 +
STACK CFI 3f1dc .cfa: sp 0 +
STACK CFI 3f1e0 .cfa: x29 32 +
STACK CFI 3f204 .cfa: sp 32 +
STACK CFI 3f20c .cfa: sp 0 +
STACK CFI INIT 3f210 10 .cfa: sp 0 +
STACK CFI INIT 3f220 30 .cfa: sp 0 +
STACK CFI 3f224 .cfa: sp 32 +
STACK CFI 3f22c .cfa: x29 32 + x19: .cfa -16 + ^ .ra: .cfa -24 + ^ x29: .cfa -32 + ^
STACK CFI 3f244 .cfa: sp 32 +
STACK CFI 3f24c .cfa: sp 0 +
STACK CFI INIT 3f250 4 .cfa: sp 0 +
STACK CFI INIT 3f254 4 .cfa: sp 0 +
STACK CFI INIT 3f258 4c .cfa: sp 0 +
STACK CFI INIT 3f2a4 5c .cfa: sp 0 +
STACK CFI 3f2a8 .cfa: sp 32 +
STACK CFI 3f2b0 .cfa: x29 32 + x19: .cfa -16 + ^ .ra: .cfa -24 + ^ x29: .cfa -32 + ^
STACK CFI 3f2f4 .cfa: sp 32 +
STACK CFI 3f2fc .cfa: sp 0 +
STACK CFI INIT 3f39c 88 .cfa: sp 0 +
STACK CFI 3f3a0 .cfa: sp 32 +
STACK CFI 3f3a8 .cfa: x29 32 + x19: .cfa -16 + ^ .ra: .cfa -24 + ^ x29: .cfa -32 + ^
STACK CFI 3f3e8 .cfa: sp 32 +
STACK CFI 3f3f0 .cfa: sp 0 +
STACK CFI 3f3f4 .cfa: x29 32 +
STACK CFI 3f3f8 .cfa: sp 32 +
STACK CFI 3f400 .cfa: sp 0 +
STACK CFI 3f404 .cfa: x29 32 +
STACK CFI 3f418 .cfa: sp 32 +
STACK CFI 3f420 .cfa: sp 0 +
STACK CFI INIT 3f424 40 .cfa: sp 0 +
STACK CFI INIT 3f464 50 .cfa: sp 0 +
STACK CFI 3f468 .cfa: sp 32 +
STACK CFI 3f470 .cfa: x29 32 + x19: .cfa -16 + ^ .ra: .cfa -24 + ^ x29: .cfa -32 + ^
STACK CFI 3f4a8 .cfa: sp 32 +
STACK CFI 3f4b0 .cfa: sp 0 +
STACK CFI INIT 3f8bc 1c .cfa: sp 0 +
STACK CFI INIT 3f8d8 c .cfa: sp 0 +
STACK CFI INIT 3ffd4 34 .cfa: sp 0 +
STACK CFI 3ffd8 .cfa: sp 16 +
STACK CFI 3ffdc .cfa: x29 16 + .ra: .cfa -8 + ^ x29: .cfa -16 + ^
STACK CFI INIT 40008 4 .cfa: sp 0 +
STACK CFI INIT 4000c 14 .cfa: sp 0 +
STACK CFI INIT 40020 14 .cfa: sp 0 +
STACK CFI 40024 .cfa: sp 16 +
STACK CFI 40028 .cfa: x29 16 + .ra: .cfa -8 + ^ x29: .cfa -16 + ^
STACK CFI INIT 40034 14 .cfa: sp 0 +
STACK CFI INIT 40048 14 .cfa: sp 0 +
STACK CFI INIT 4005c 4c .cfa: sp 0 +
STACK CFI INIT 400a8 5c .cfa: sp 0 +
STACK CFI 400ac .cfa: sp 32 +
STACK CFI 400b4 .cfa: x29 32 + x19: .cfa -16 + ^ .ra: .cfa -24 + ^ x29: .cfa -32 + ^
STACK CFI 400f8 .cfa: sp 32 +
STACK CFI 40100 .cfa: sp 0 +
STACK CFI INIT 401a0 88 .cfa: sp 0 +
STACK CFI 401a4 .cfa: sp 32 +
STACK CFI 401ac .cfa: x29 32 + x19: .cfa -16 + ^ .ra: .cfa -24 + ^ x29: .cfa -32 + ^
STACK CFI 401ec .cfa: sp 32 +
STACK CFI 401f4 .cfa: sp 0 +
STACK CFI 401f8 .cfa: x29 32 +
STACK CFI 401fc .cfa: sp 32 +
STACK CFI 40204 .cfa: sp 0 +
STACK CFI 40208 .cfa: x29 32 +
STACK CFI 4021c .cfa: sp 32 +
STACK CFI 40224 .cfa: sp 0 +
STACK CFI INIT 40228 40 .cfa: sp 0 +
STACK CFI INIT 40268 50 .cfa: sp 0 +
STACK CFI 4026c .cfa: sp 32 +
STACK CFI 40274 .cfa: x29 32 + x19: .cfa -16 + ^ .ra: .cfa -24 + ^ x29: .cfa -32 + ^
STACK CFI 402ac .cfa: sp 32 +
STACK CFI 402b4 .cfa: sp 0 +
STACK CFI INIT 4065c 1c .cfa: sp 0 +
STACK CFI INIT 40678 c .cfa: sp 0 +
STACK CFI INIT 40684 4 .cfa: sp 0 +
STACK CFI INIT 40688 14 .cfa: sp 0 +
STACK CFI INIT 4069c 16c .cfa: sp 0 +
STACK CFI 406a0 .cfa: sp 64 +
STACK CFI 406b0 .cfa: x29 48 + x19: .cfa -8 + ^ x20: .cfa -16 + ^ x21: .cfa -32 + ^ .ra: .cfa -40 + ^ x29: .cfa -48 + ^
STACK CFI 407f0 .cfa: sp 64 +
STACK CFI 40800 .cfa: sp 0 +
STACK CFI 40804 .cfa: x29 48 +
STACK CFI INIT 40808 98 .cfa: sp 0 +
STACK CFI 4080c .cfa: sp 304 +
STACK CFI 40818 .cfa: x29 32 + x19: .cfa -8 + ^ x28: .cfa -16 + ^ .ra: .cfa -24 + ^ x29: .cfa -32 + ^
STACK CFI 4088c .cfa: sp 304 +
STACK CFI 40898 .cfa: sp 0 +
STACK CFI 4089c .cfa: x29 32 +
STACK CFI INIT 408a0 8a8 .cfa: sp 0 +
STACK CFI 408a4 .cfa: sp 400 +
STACK CFI 408cc .cfa: x29 96 + x19: .cfa -8 + ^ x20: .cfa -16 + ^ x21: .cfa -24 + ^ x22: .cfa -32 + ^ x23: .cfa -40 + ^ x24: .cfa -48 + ^ x25: .cfa -56 + ^ x26: .cfa -64 + ^ x27: .cfa -72 + ^ x28: .cfa -80 + ^ .ra: .cfa -88 + ^ x29: .cfa -96 + ^ v8: .cfa -104 + ^ v9: .cfa -112 + ^ v10: .cfa -120 + ^ v11: .cfa -128 + ^ v12: .cfa -136 + ^ v13: .cfa -144 + ^
STACK CFI 41118 .cfa: sp 400 +
STACK CFI 41140 .cfa: sp 0 +
STACK CFI 41144 .cfa: x29 96 +
STACK CFI INIT 41148 480 .cfa: sp 0 +
STACK CFI 4114c .cfa: sp 352 +
STACK CFI 41170 .cfa: x29 96 + x19: .cfa -8 + ^ x20: .cfa -16 + ^ x21: .cfa -24 + ^ x22: .cfa -32 + ^ x23: .cfa -40 + ^ x24: .cfa -48 + ^ x25: .cfa -56 + ^ x26: .cfa -64 + ^ x27: .cfa -72 + ^ x28: .cfa -80 + ^ .ra: .cfa -88 + ^ x29: .cfa -96 + ^ v8: .cfa -104 + ^ v9: .cfa -112 + ^ v10: .cfa -120 + ^ v11: .cfa -128 + ^
STACK CFI 4159c .cfa: sp 352 +
STACK CFI 415c0 .cfa: sp 0 +
STACK CFI 415c4 .cfa: x29 96 +
STACK CFI INIT 415c8 478 .cfa: sp 0 +
STACK CFI 415cc .cfa: sp 352 +
STACK CFI 415f0 .cfa: x29 96 + x19: .cfa -8 + ^ x20: .cfa -16 + ^ x21: .cfa -24 + ^ x22: .cfa -32 + ^ x23: .cfa -40 + ^ x24: .cfa -48 + ^ x25: .cfa -56 + ^ x26: .cfa -64 + ^ x27: .cfa -72 + ^ x28: .cfa -80 + ^ .ra: .cfa -88 + ^ x29: .cfa -96 + ^ v8: .cfa -104 + ^ v9: .cfa -112 + ^ v10: .cfa -120 + ^ v11: .cfa -128 + ^
STACK CFI 41a14 .cfa: sp 352 +
STACK CFI 41a38 .cfa: sp 0 +
STACK CFI 41a3c .cfa: x29 96 +
STACK CFI INIT 426ac 4 .cfa: sp 0 +
STACK CFI INIT 426b0 38 .cfa: sp 0 +
STACK CFI 426b4 .cfa: sp 32 +
STACK CFI 426bc .cfa: x29 32 + x19: .cfa -16 + ^ .ra: .cfa -24 + ^ x29: .cfa -32 + ^
STACK CFI 426dc .cfa: sp 32 +
STACK CFI 426e4 .cfa: sp 0 +
STACK CFI INIT 426e8 18 .cfa: sp 0 +
STACK CFI INIT 42700 4 .cfa: sp 0 +
STACK CFI INIT 42704 4 .cfa: sp 0 +
STACK CFI INIT 42708 a8 .cfa: sp 0 +
STACK CFI 4270c .cfa: sp 32 +
STACK CFI 42714 .cfa: x29 32 + x19: .cfa -8 + ^ x20: .cfa -16 + ^ .ra: .cfa -24 + ^ x29: .cfa -32 + ^
STACK CFI 42780 .cfa: sp 32 +
STACK CFI 42788 .cfa: sp 0 +
STACK CFI 4278c .cfa: x29 32 +
STACK CFI 427a4 .cfa: sp 32 +
STACK CFI 427ac .cfa: sp 0 +
STACK CFI INIT 427b0 1c .cfa: sp 0 +
STACK CFI INIT 427cc c .cfa: sp 0 +
STACK CFI INIT 427d8 4c .cfa: sp 0 +
STACK CFI INIT 42824 5c .cfa: sp 0 +
STACK CFI 42828 .cfa: sp 32 +
STACK CFI 42830 .cfa: x29 32 + x19: .cfa -16 + ^ .ra: .cfa -24 + ^ x29: .cfa -32 + ^
STACK CFI 42874 .cfa: sp 32 +
STACK CFI 4287c .cfa: sp 0 +
STACK CFI INIT 4291c 88 .cfa: sp 0 +
STACK CFI 42920 .cfa: sp 32 +
STACK CFI 42928 .cfa: x29 32 + x19: .cfa -16 + ^ .ra: .cfa -24 + ^ x29: .cfa -32 + ^
STACK CFI 42968 .cfa: sp 32 +
STACK CFI 42970 .cfa: sp 0 +
STACK CFI 42974 .cfa: x29 32 +
STACK CFI 42978 .cfa: sp 32 +
STACK CFI 42980 .cfa: sp 0 +
STACK CFI 42984 .cfa: x29 32 +
STACK CFI 42998 .cfa: sp 32 +
STACK CFI 429a0 .cfa: sp 0 +
STACK CFI INIT 429a4 40 .cfa: sp 0 +
STACK CFI INIT 429e4 50 .cfa: sp 0 +
STACK CFI 429e8 .cfa: sp 32 +
STACK CFI 429f0 .cfa: x29 32 + x19: .cfa -16 + ^ .ra: .cfa -24 + ^ x29: .cfa -32 + ^
STACK CFI 42a28 .cfa: sp 32 +
STACK CFI 42a30 .cfa: sp 0 +
STACK CFI INIT 42a34 8c .cfa: sp 0 +
STACK CFI 42a38 .cfa: sp 48 +
STACK CFI 42a44 .cfa: x29 32 + x19: .cfa -8 + ^ x20: .cfa -16 + ^ .ra: .cfa -24 + ^ x29: .cfa -32 + ^
STACK CFI 42a98 .cfa: sp 48 +
STACK CFI 42aa4 .cfa: sp 0 +
STACK CFI 42aa8 .cfa: x29 32 +
STACK CFI INIT 42ac0 1c .cfa: sp 0 +
STACK CFI INIT 42adc c .cfa: sp 0 +
STACK CFI INIT 43644 4 .cfa: sp 0 +
STACK CFI INIT 43648 38 .cfa: sp 0 +
STACK CFI 4364c .cfa: sp 32 +
STACK CFI 43654 .cfa: x29 32 + x19: .cfa -16 + ^ .ra: .cfa -24 + ^ x29: .cfa -32 + ^
STACK CFI 43674 .cfa: sp 32 +
STACK CFI 4367c .cfa: sp 0 +
STACK CFI INIT 43680 18 .cfa: sp 0 +
STACK CFI INIT 43698 4 .cfa: sp 0 +
STACK CFI INIT 4369c 4 .cfa: sp 0 +
STACK CFI INIT 436a0 a8 .cfa: sp 0 +
STACK CFI 436a4 .cfa: sp 32 +
STACK CFI 436ac .cfa: x29 32 + x19: .cfa -8 + ^ x20: .cfa -16 + ^ .ra: .cfa -24 + ^ x29: .cfa -32 + ^
STACK CFI 43718 .cfa: sp 32 +
STACK CFI 43720 .cfa: sp 0 +
STACK CFI 43724 .cfa: x29 32 +
STACK CFI 4373c .cfa: sp 32 +
STACK CFI 43744 .cfa: sp 0 +
STACK CFI INIT 43748 1c .cfa: sp 0 +
STACK CFI INIT 43764 c .cfa: sp 0 +
STACK CFI INIT 43770 4c .cfa: sp 0 +
STACK CFI INIT 437bc 5c .cfa: sp 0 +
STACK CFI 437c0 .cfa: sp 32 +
STACK CFI 437c8 .cfa: x29 32 + x19: .cfa -16 + ^ .ra: .cfa -24 + ^ x29: .cfa -32 + ^
STACK CFI 4380c .cfa: sp 32 +
STACK CFI 43814 .cfa: sp 0 +
STACK CFI INIT 438b4 88 .cfa: sp 0 +
STACK CFI 438b8 .cfa: sp 32 +
STACK CFI 438c0 .cfa: x29 32 + x19: .cfa -16 + ^ .ra: .cfa -24 + ^ x29: .cfa -32 + ^
STACK CFI 43900 .cfa: sp 32 +
STACK CFI 43908 .cfa: sp 0 +
STACK CFI 4390c .cfa: x29 32 +
STACK CFI 43910 .cfa: sp 32 +
STACK CFI 43918 .cfa: sp 0 +
STACK CFI 4391c .cfa: x29 32 +
STACK CFI 43930 .cfa: sp 32 +
STACK CFI 43938 .cfa: sp 0 +
STACK CFI INIT 4393c 40 .cfa: sp 0 +
STACK CFI INIT 4397c 50 .cfa: sp 0 +
STACK CFI 43980 .cfa: sp 32 +
STACK CFI 43988 .cfa: x29 32 + x19: .cfa -16 + ^ .ra: .cfa -24 + ^ x29: .cfa -32 + ^
STACK CFI 439c0 .cfa: sp 32 +
STACK CFI 439c8 .cfa: sp 0 +
STACK CFI INIT 439cc 8c .cfa: sp 0 +
STACK CFI 439d0 .cfa: sp 48 +
STACK CFI 439dc .cfa: x29 32 + x19: .cfa -8 + ^ x20: .cfa -16 + ^ .ra: .cfa -24 + ^ x29: .cfa -32 + ^
STACK CFI 43a30 .cfa: sp 48 +
STACK CFI 43a3c .cfa: sp 0 +
STACK CFI 43a40 .cfa: x29 32 +
STACK CFI INIT 43a58 1c .cfa: sp 0 +
STACK CFI INIT 43a74 c .cfa: sp 0 +
STACK CFI INIT 45390 2c .cfa: sp 0 +
STACK CFI 45394 .cfa: sp 32 +
STACK CFI 4539c .cfa: x29 32 + x19: .cfa -16 + ^ .ra: .cfa -24 + ^ x29: .cfa -32 + ^
STACK CFI 453b0 .cfa: sp 32 +
STACK CFI 453b8 .cfa: sp 0 +
STACK CFI INIT 453bc 28 .cfa: sp 0 +
STACK CFI INIT 4560c 2c .cfa: sp 0 +
STACK CFI INIT 45638 4 .cfa: sp 0 +
STACK CFI INIT 456a8 4 .cfa: sp 0 +
STACK CFI INIT 456ac 30c .cfa: sp 0 +
STACK CFI 456b0 .cfa: sp 144 +
STACK CFI 456cc .cfa: x29 80 + x19: .cfa -8 + ^ x20: .cfa -16 + ^ x21: .cfa -24 + ^ x22: .cfa -32 + ^ x23: .cfa -40 + ^ x24: .cfa -48 + ^ x25: .cfa -56 + ^ x26: .cfa -64 + ^ .ra: .cfa -72 + ^ x29: .cfa -80 + ^ v8: .cfa -88 + ^ v9: .cfa -96 + ^
STACK CFI 45994 .cfa: sp 144 +
STACK CFI 459b0 .cfa: sp 0 +
STACK CFI 459b4 .cfa: x29 80 +
STACK CFI INIT 459b8 4 .cfa: sp 0 +
STACK CFI INIT 459bc 38 .cfa: sp 0 +
STACK CFI 459c0 .cfa: sp 32 +
STACK CFI 459c8 .cfa: x29 32 + x19: .cfa -16 + ^ .ra: .cfa -24 + ^ x29: .cfa -32 + ^
STACK CFI 459e8 .cfa: sp 32 +
STACK CFI 459f0 .cfa: sp 0 +
STACK CFI INIT 459f4 18 .cfa: sp 0 +
STACK CFI INIT 45a0c 4 .cfa: sp 0 +
STACK CFI INIT 45a10 4 .cfa: sp 0 +
STACK CFI INIT 45a14 7c .cfa: sp 0 +
STACK CFI 45a18 .cfa: sp 32 +
STACK CFI 45a20 .cfa: x29 32 + x19: .cfa -8 + ^ x20: .cfa -16 + ^ .ra: .cfa -24 + ^ x29: .cfa -32 + ^
STACK CFI 45a84 .cfa: sp 32 +
STACK CFI 45a8c .cfa: sp 0 +
STACK CFI INIT 45a90 1c .cfa: sp 0 +
STACK CFI INIT 45aac c .cfa: sp 0 +
STACK CFI INIT 45ab8 60 .cfa: sp 0 +
STACK CFI 45abc .cfa: sp 32 +
STACK CFI 45ac4 .cfa: x29 32 + x19: .cfa -8 + ^ x20: .cfa -16 + ^ .ra: .cfa -24 + ^ x29: .cfa -32 + ^
STACK CFI 45ae4 .cfa: sp 32 +
STACK CFI 45aec .cfa: sp 0 +
STACK CFI 45af0 .cfa: x29 32 +
STACK CFI 45b0c .cfa: sp 32 +
STACK CFI 45b14 .cfa: sp 0 +
STACK CFI INIT 45b18 70 .cfa: sp 0 +
STACK CFI 45b1c .cfa: sp 32 +
STACK CFI 45b24 .cfa: x29 32 + x19: .cfa -8 + ^ x20: .cfa -16 + ^ .ra: .cfa -24 + ^ x29: .cfa -32 + ^
STACK CFI 45b4c .cfa: sp 32 +
STACK CFI 45b54 .cfa: sp 0 +
STACK CFI 45b58 .cfa: x29 32 +
STACK CFI 45b7c .cfa: sp 32 +
STACK CFI 45b84 .cfa: sp 0 +
STACK CFI INIT 45b88 10 .cfa: sp 0 +
STACK CFI INIT 45b98 30 .cfa: sp 0 +
STACK CFI 45b9c .cfa: sp 32 +
STACK CFI 45ba4 .cfa: x29 32 + x19: .cfa -16 + ^ .ra: .cfa -24 + ^ x29: .cfa -32 + ^
STACK CFI 45bbc .cfa: sp 32 +
STACK CFI 45bc4 .cfa: sp 0 +
STACK CFI INIT 45bc8 4 .cfa: sp 0 +
STACK CFI INIT 45bcc 4 .cfa: sp 0 +
STACK CFI INIT 45bd0 4c .cfa: sp 0 +
STACK CFI INIT 45c1c 5c .cfa: sp 0 +
STACK CFI 45c20 .cfa: sp 32 +
STACK CFI 45c28 .cfa: x29 32 + x19: .cfa -16 + ^ .ra: .cfa -24 + ^ x29: .cfa -32 + ^
STACK CFI 45c6c .cfa: sp 32 +
STACK CFI 45c74 .cfa: sp 0 +
STACK CFI INIT 45d14 88 .cfa: sp 0 +
STACK CFI 45d18 .cfa: sp 32 +
STACK CFI 45d20 .cfa: x29 32 + x19: .cfa -16 + ^ .ra: .cfa -24 + ^ x29: .cfa -32 + ^
STACK CFI 45d60 .cfa: sp 32 +
STACK CFI 45d68 .cfa: sp 0 +
STACK CFI 45d6c .cfa: x29 32 +
STACK CFI 45d70 .cfa: sp 32 +
STACK CFI 45d78 .cfa: sp 0 +
STACK CFI 45d7c .cfa: x29 32 +
STACK CFI 45d90 .cfa: sp 32 +
STACK CFI 45d98 .cfa: sp 0 +
STACK CFI INIT 45d9c 40 .cfa: sp 0 +
STACK CFI INIT 45ddc 50 .cfa: sp 0 +
STACK CFI 45de0 .cfa: sp 32 +
STACK CFI 45de8 .cfa: x29 32 + x19: .cfa -16 + ^ .ra: .cfa -24 + ^ x29: .cfa -32 + ^
STACK CFI 45e20 .cfa: sp 32 +
STACK CFI 45e28 .cfa: sp 0 +
STACK CFI INIT 45e2c b4 .cfa: sp 0 +
STACK CFI 45e30 .cfa: sp 64 +
STACK CFI 45e3c .cfa: x29 32 + x19: .cfa -8 + ^ x20: .cfa -16 + ^ .ra: .cfa -24 + ^ x29: .cfa -32 + ^
STACK CFI 45eb8 .cfa: sp 64 +
STACK CFI 45ec4 .cfa: sp 0 +
STACK CFI 45ec8 .cfa: x29 32 +
STACK CFI INIT 45ee0 1c .cfa: sp 0 +
STACK CFI INIT 45efc c .cfa: sp 0 +
STACK CFI INIT 45f08 4 .cfa: sp 0 +
STACK CFI INIT 45f0c 34 .cfa: sp 0 +
STACK CFI 45f10 .cfa: sp 32 +
STACK CFI 45f18 .cfa: x29 32 + x19: .cfa -16 + ^ .ra: .cfa -24 + ^ x29: .cfa -32 + ^
STACK CFI 45f34 .cfa: sp 32 +
STACK CFI 45f3c .cfa: sp 0 +
STACK CFI INIT 45f40 14 .cfa: sp 0 +
STACK CFI INIT 45f54 4 .cfa: sp 0 +
STACK CFI INIT 45f58 4 .cfa: sp 0 +
STACK CFI INIT 46048 1c .cfa: sp 0 +
STACK CFI INIT 46064 c .cfa: sp 0 +
STACK CFI INIT 46070 4 .cfa: sp 0 +
STACK CFI INIT 46074 34 .cfa: sp 0 +
STACK CFI 46078 .cfa: sp 32 +
STACK CFI 46080 .cfa: x29 32 + x19: .cfa -16 + ^ .ra: .cfa -24 + ^ x29: .cfa -32 + ^
STACK CFI 4609c .cfa: sp 32 +
STACK CFI 460a4 .cfa: sp 0 +
STACK CFI INIT 460a8 14 .cfa: sp 0 +
STACK CFI INIT 460bc 4 .cfa: sp 0 +
STACK CFI INIT 460c0 4 .cfa: sp 0 +
STACK CFI INIT 460c4 18 .cfa: sp 0 +
STACK CFI INIT 460dc 1c .cfa: sp 0 +
STACK CFI INIT 460f8 c .cfa: sp 0 +
STACK CFI INIT 46104 4 .cfa: sp 0 +
STACK CFI INIT 46108 34 .cfa: sp 0 +
STACK CFI 4610c .cfa: sp 32 +
STACK CFI 46114 .cfa: x29 32 + x19: .cfa -16 + ^ .ra: .cfa -24 + ^ x29: .cfa -32 + ^
STACK CFI 46130 .cfa: sp 32 +
STACK CFI 46138 .cfa: sp 0 +
STACK CFI INIT 4613c 14 .cfa: sp 0 +
STACK CFI INIT 46150 4 .cfa: sp 0 +
STACK CFI INIT 46154 4 .cfa: sp 0 +
STACK CFI INIT 46244 1c .cfa: sp 0 +
STACK CFI INIT 46260 c .cfa: sp 0 +
STACK CFI INIT 4626c 4 .cfa: sp 0 +
STACK CFI INIT 46270 34 .cfa: sp 0 +
STACK CFI 46274 .cfa: sp 32 +
STACK CFI 4627c .cfa: x29 32 + x19: .cfa -16 + ^ .ra: .cfa -24 + ^ x29: .cfa -32 + ^
STACK CFI 46298 .cfa: sp 32 +
STACK CFI 462a0 .cfa: sp 0 +
STACK CFI INIT 462a4 14 .cfa: sp 0 +
STACK CFI INIT 462b8 4 .cfa: sp 0 +
STACK CFI INIT 462bc 4 .cfa: sp 0 +
STACK CFI INIT 462c0 18 .cfa: sp 0 +
STACK CFI INIT 462d8 1c .cfa: sp 0 +
STACK CFI INIT 462f4 c .cfa: sp 0 +
STACK CFI INIT 46300 4 .cfa: sp 0 +
STACK CFI INIT 46304 34 .cfa: sp 0 +
STACK CFI 46308 .cfa: sp 32 +
STACK CFI 46310 .cfa: x29 32 + x19: .cfa -16 + ^ .ra: .cfa -24 + ^ x29: .cfa -32 + ^
STACK CFI 4632c .cfa: sp 32 +
STACK CFI 46334 .cfa: sp 0 +
STACK CFI INIT 46338 14 .cfa: sp 0 +
STACK CFI INIT 4634c 4 .cfa: sp 0 +
STACK CFI INIT 46350 4 .cfa: sp 0 +
STACK CFI INIT 46440 1c .cfa: sp 0 +
STACK CFI INIT 4645c c .cfa: sp 0 +
STACK CFI INIT 46468 4 .cfa: sp 0 +
STACK CFI INIT 4646c 34 .cfa: sp 0 +
STACK CFI 46470 .cfa: sp 32 +
STACK CFI 46478 .cfa: x29 32 + x19: .cfa -16 + ^ .ra: .cfa -24 + ^ x29: .cfa -32 + ^
STACK CFI 46494 .cfa: sp 32 +
STACK CFI 4649c .cfa: sp 0 +
STACK CFI INIT 464a0 14 .cfa: sp 0 +
STACK CFI INIT 464b4 4 .cfa: sp 0 +
STACK CFI INIT 464b8 4 .cfa: sp 0 +
STACK CFI INIT 464bc 18 .cfa: sp 0 +
STACK CFI INIT 464d4 1c .cfa: sp 0 +
STACK CFI INIT 464f0 c .cfa: sp 0 +
STACK CFI INIT 47a88 2c .cfa: sp 0 +
STACK CFI 47a8c .cfa: sp 32 +
STACK CFI 47a94 .cfa: x29 32 + x19: .cfa -16 + ^ .ra: .cfa -24 + ^ x29: .cfa -32 + ^
STACK CFI 47aa8 .cfa: sp 32 +
STACK CFI 47ab0 .cfa: sp 0 +
STACK CFI INIT 47ab4 28 .cfa: sp 0 +
STACK CFI INIT 47d04 2c .cfa: sp 0 +
STACK CFI INIT 47d30 4 .cfa: sp 0 +
STACK CFI INIT 47da0 4 .cfa: sp 0 +
STACK CFI INIT 47da4 30c .cfa: sp 0 +
STACK CFI 47da8 .cfa: sp 144 +
STACK CFI 47dc4 .cfa: x29 80 + x19: .cfa -8 + ^ x20: .cfa -16 + ^ x21: .cfa -24 + ^ x22: .cfa -32 + ^ x23: .cfa -40 + ^ x24: .cfa -48 + ^ x25: .cfa -56 + ^ x26: .cfa -64 + ^ .ra: .cfa -72 + ^ x29: .cfa -80 + ^ v8: .cfa -88 + ^ v9: .cfa -96 + ^
STACK CFI 4808c .cfa: sp 144 +
STACK CFI 480a8 .cfa: sp 0 +
STACK CFI 480ac .cfa: x29 80 +
STACK CFI INIT 480b0 4 .cfa: sp 0 +
STACK CFI INIT 480b4 38 .cfa: sp 0 +
STACK CFI 480b8 .cfa: sp 32 +
STACK CFI 480c0 .cfa: x29 32 + x19: .cfa -16 + ^ .ra: .cfa -24 + ^ x29: .cfa -32 + ^
STACK CFI 480e0 .cfa: sp 32 +
STACK CFI 480e8 .cfa: sp 0 +
STACK CFI INIT 480ec 18 .cfa: sp 0 +
STACK CFI INIT 48104 4 .cfa: sp 0 +
STACK CFI INIT 48108 4 .cfa: sp 0 +
STACK CFI INIT 4810c 1e4 .cfa: sp 0 +
STACK CFI 48110 .cfa: sp 64 +
STACK CFI 48120 .cfa: x29 64 + x19: .cfa -8 + ^ x20: .cfa -16 + ^ x21: .cfa -24 + ^ x22: .cfa -32 + ^ x23: .cfa -48 + ^ .ra: .cfa -56 + ^ x29: .cfa -64 + ^
STACK CFI 482dc .cfa: sp 64 +
STACK CFI 482ec .cfa: sp 0 +
STACK CFI INIT 482f0 1c .cfa: sp 0 +
STACK CFI INIT 4830c c .cfa: sp 0 +
STACK CFI INIT 48318 60 .cfa: sp 0 +
STACK CFI 4831c .cfa: sp 32 +
STACK CFI 48324 .cfa: x29 32 + x19: .cfa -8 + ^ x20: .cfa -16 + ^ .ra: .cfa -24 + ^ x29: .cfa -32 + ^
STACK CFI 48344 .cfa: sp 32 +
STACK CFI 4834c .cfa: sp 0 +
STACK CFI 48350 .cfa: x29 32 +
STACK CFI 4836c .cfa: sp 32 +
STACK CFI 48374 .cfa: sp 0 +
STACK CFI INIT 48378 70 .cfa: sp 0 +
STACK CFI 4837c .cfa: sp 32 +
STACK CFI 48384 .cfa: x29 32 + x19: .cfa -8 + ^ x20: .cfa -16 + ^ .ra: .cfa -24 + ^ x29: .cfa -32 + ^
STACK CFI 483ac .cfa: sp 32 +
STACK CFI 483b4 .cfa: sp 0 +
STACK CFI 483b8 .cfa: x29 32 +
STACK CFI 483dc .cfa: sp 32 +
STACK CFI 483e4 .cfa: sp 0 +
STACK CFI INIT 483e8 10 .cfa: sp 0 +
STACK CFI INIT 483f8 30 .cfa: sp 0 +
STACK CFI 483fc .cfa: sp 32 +
STACK CFI 48404 .cfa: x29 32 + x19: .cfa -16 + ^ .ra: .cfa -24 + ^ x29: .cfa -32 + ^
STACK CFI 4841c .cfa: sp 32 +
STACK CFI 48424 .cfa: sp 0 +
STACK CFI INIT 48428 4 .cfa: sp 0 +
STACK CFI INIT 4842c 4 .cfa: sp 0 +
STACK CFI INIT 48430 4c .cfa: sp 0 +
STACK CFI INIT 4847c 5c .cfa: sp 0 +
STACK CFI 48480 .cfa: sp 32 +
STACK CFI 48488 .cfa: x29 32 + x19: .cfa -16 + ^ .ra: .cfa -24 + ^ x29: .cfa -32 + ^
STACK CFI 484cc .cfa: sp 32 +
STACK CFI 484d4 .cfa: sp 0 +
STACK CFI INIT 48574 88 .cfa: sp 0 +
STACK CFI 48578 .cfa: sp 32 +
STACK CFI 48580 .cfa: x29 32 + x19: .cfa -16 + ^ .ra: .cfa -24 + ^ x29: .cfa -32 + ^
STACK CFI 485c0 .cfa: sp 32 +
STACK CFI 485c8 .cfa: sp 0 +
STACK CFI 485cc .cfa: x29 32 +
STACK CFI 485d0 .cfa: sp 32 +
STACK CFI 485d8 .cfa: sp 0 +
STACK CFI 485dc .cfa: x29 32 +
STACK CFI 485f0 .cfa: sp 32 +
STACK CFI 485f8 .cfa: sp 0 +
STACK CFI INIT 485fc 40 .cfa: sp 0 +
STACK CFI INIT 4863c 50 .cfa: sp 0 +
STACK CFI 48640 .cfa: sp 32 +
STACK CFI 48648 .cfa: x29 32 + x19: .cfa -16 + ^ .ra: .cfa -24 + ^ x29: .cfa -32 + ^
STACK CFI 48680 .cfa: sp 32 +
STACK CFI 48688 .cfa: sp 0 +
STACK CFI INIT 4868c 8c .cfa: sp 0 +
STACK CFI 48690 .cfa: sp 48 +
STACK CFI 4869c .cfa: x29 32 + x19: .cfa -8 + ^ x20: .cfa -16 + ^ .ra: .cfa -24 + ^ x29: .cfa -32 + ^
STACK CFI 486f0 .cfa: sp 48 +
STACK CFI 486fc .cfa: sp 0 +
STACK CFI 48700 .cfa: x29 32 +
STACK CFI INIT 48718 1c .cfa: sp 0 +
STACK CFI INIT 48734 c .cfa: sp 0 +
STACK CFI INIT 495bc 2c .cfa: sp 0 +
STACK CFI 495c0 .cfa: sp 32 +
STACK CFI 495c8 .cfa: x29 32 + x19: .cfa -16 + ^ .ra: .cfa -24 + ^ x29: .cfa -32 + ^
STACK CFI 495dc .cfa: sp 32 +
STACK CFI 495e4 .cfa: sp 0 +
STACK CFI INIT 495e8 28 .cfa: sp 0 +
STACK CFI INIT 49838 2c .cfa: sp 0 +
STACK CFI INIT 49864 4 .cfa: sp 0 +
STACK CFI INIT 498d4 4 .cfa: sp 0 +
STACK CFI INIT 498d8 30c .cfa: sp 0 +
STACK CFI 498dc .cfa: sp 144 +
STACK CFI 498f8 .cfa: x29 80 + x19: .cfa -8 + ^ x20: .cfa -16 + ^ x21: .cfa -24 + ^ x22: .cfa -32 + ^ x23: .cfa -40 + ^ x24: .cfa -48 + ^ x25: .cfa -56 + ^ x26: .cfa -64 + ^ .ra: .cfa -72 + ^ x29: .cfa -80 + ^ v8: .cfa -88 + ^ v9: .cfa -96 + ^
STACK CFI 49bc0 .cfa: sp 144 +
STACK CFI 49bdc .cfa: sp 0 +
STACK CFI 49be0 .cfa: x29 80 +
STACK CFI INIT 49be4 4 .cfa: sp 0 +
STACK CFI INIT 49be8 4 .cfa: sp 0 +
STACK CFI INIT 49bec 34 .cfa: sp 0 +
STACK CFI 49bf0 .cfa: sp 32 +
STACK CFI 49bf8 .cfa: x29 32 + x19: .cfa -16 + ^ .ra: .cfa -24 + ^ x29: .cfa -32 + ^
STACK CFI 49c14 .cfa: sp 32 +
STACK CFI 49c1c .cfa: sp 0 +
STACK CFI INIT 49c20 14 .cfa: sp 0 +
STACK CFI INIT 49c34 4 .cfa: sp 0 +
STACK CFI INIT 49c38 4 .cfa: sp 0 +
STACK CFI INIT 4a0c0 1c .cfa: sp 0 +
STACK CFI INIT 4a0dc c .cfa: sp 0 +
STACK CFI INIT 4a0e8 4 .cfa: sp 0 +
STACK CFI INIT 4a0ec 14 .cfa: sp 0 +
STACK CFI INIT 4a100 4 .cfa: sp 0 +
STACK CFI INIT 4a104 34 .cfa: sp 0 +
STACK CFI 4a108 .cfa: sp 32 +
STACK CFI 4a110 .cfa: x29 32 + x19: .cfa -16 + ^ .ra: .cfa -24 + ^ x29: .cfa -32 + ^
STACK CFI 4a12c .cfa: sp 32 +
STACK CFI 4a134 .cfa: sp 0 +
STACK CFI INIT 4a138 14 .cfa: sp 0 +
STACK CFI INIT 4a14c 4 .cfa: sp 0 +
STACK CFI INIT 4a150 4 .cfa: sp 0 +
STACK CFI INIT 4a240 1c .cfa: sp 0 +
STACK CFI INIT 4a25c c .cfa: sp 0 +
STACK CFI INIT 4a268 4 .cfa: sp 0 +
STACK CFI INIT 4a26c 34 .cfa: sp 0 +
STACK CFI 4a270 .cfa: sp 32 +
STACK CFI 4a278 .cfa: x29 32 + x19: .cfa -16 + ^ .ra: .cfa -24 + ^ x29: .cfa -32 + ^
STACK CFI 4a294 .cfa: sp 32 +
STACK CFI 4a29c .cfa: sp 0 +
STACK CFI INIT 4a2a0 14 .cfa: sp 0 +
STACK CFI INIT 4a2b4 4 .cfa: sp 0 +
STACK CFI INIT 4a2b8 4 .cfa: sp 0 +
STACK CFI INIT 4a3a8 1c .cfa: sp 0 +
STACK CFI INIT 4a3c4 c .cfa: sp 0 +
STACK CFI INIT 4a3d0 60 .cfa: sp 0 +
STACK CFI 4a3d4 .cfa: sp 32 +
STACK CFI 4a3dc .cfa: x29 32 + x19: .cfa -8 + ^ x20: .cfa -16 + ^ .ra: .cfa -24 + ^ x29: .cfa -32 + ^
STACK CFI 4a3fc .cfa: sp 32 +
STACK CFI 4a404 .cfa: sp 0 +
STACK CFI 4a408 .cfa: x29 32 +
STACK CFI 4a424 .cfa: sp 32 +
STACK CFI 4a42c .cfa: sp 0 +
STACK CFI INIT 4a430 70 .cfa: sp 0 +
STACK CFI 4a434 .cfa: sp 32 +
STACK CFI 4a43c .cfa: x29 32 + x19: .cfa -8 + ^ x20: .cfa -16 + ^ .ra: .cfa -24 + ^ x29: .cfa -32 + ^
STACK CFI 4a464 .cfa: sp 32 +
STACK CFI 4a46c .cfa: sp 0 +
STACK CFI 4a470 .cfa: x29 32 +
STACK CFI 4a494 .cfa: sp 32 +
STACK CFI 4a49c .cfa: sp 0 +
STACK CFI INIT 4a4a0 10 .cfa: sp 0 +
STACK CFI INIT 4a4b0 30 .cfa: sp 0 +
STACK CFI 4a4b4 .cfa: sp 32 +
STACK CFI 4a4bc .cfa: x29 32 + x19: .cfa -16 + ^ .ra: .cfa -24 + ^ x29: .cfa -32 + ^
STACK CFI 4a4d4 .cfa: sp 32 +
STACK CFI 4a4dc .cfa: sp 0 +
STACK CFI INIT 4a4e0 4 .cfa: sp 0 +
STACK CFI INIT 4a4e4 4 .cfa: sp 0 +
STACK CFI INIT 4a4e8 4c .cfa: sp 0 +
STACK CFI INIT 4a534 5c .cfa: sp 0 +
STACK CFI 4a538 .cfa: sp 32 +
STACK CFI 4a540 .cfa: x29 32 + x19: .cfa -16 + ^ .ra: .cfa -24 + ^ x29: .cfa -32 + ^
STACK CFI 4a584 .cfa: sp 32 +
STACK CFI 4a58c .cfa: sp 0 +
STACK CFI INIT 4a62c 88 .cfa: sp 0 +
STACK CFI 4a630 .cfa: sp 32 +
STACK CFI 4a638 .cfa: x29 32 + x19: .cfa -16 + ^ .ra: .cfa -24 + ^ x29: .cfa -32 + ^
STACK CFI 4a678 .cfa: sp 32 +
STACK CFI 4a680 .cfa: sp 0 +
STACK CFI 4a684 .cfa: x29 32 +
STACK CFI 4a688 .cfa: sp 32 +
STACK CFI 4a690 .cfa: sp 0 +
STACK CFI 4a694 .cfa: x29 32 +
STACK CFI 4a6a8 .cfa: sp 32 +
STACK CFI 4a6b0 .cfa: sp 0 +
STACK CFI INIT 4a6b4 40 .cfa: sp 0 +
STACK CFI INIT 4a6f4 50 .cfa: sp 0 +
STACK CFI 4a6f8 .cfa: sp 32 +
STACK CFI 4a700 .cfa: x29 32 + x19: .cfa -16 + ^ .ra: .cfa -24 + ^ x29: .cfa -32 + ^
STACK CFI 4a738 .cfa: sp 32 +
STACK CFI 4a740 .cfa: sp 0 +
STACK CFI INIT 4a744 8c .cfa: sp 0 +
STACK CFI 4a748 .cfa: sp 48 +
STACK CFI 4a754 .cfa: x29 32 + x19: .cfa -8 + ^ x20: .cfa -16 + ^ .ra: .cfa -24 + ^ x29: .cfa -32 + ^
STACK CFI 4a7a8 .cfa: sp 48 +
STACK CFI 4a7b4 .cfa: sp 0 +
STACK CFI 4a7b8 .cfa: x29 32 +
STACK CFI INIT 4a7d0 1c .cfa: sp 0 +
STACK CFI INIT 4a7ec c .cfa: sp 0 +
STACK CFI INIT 4b16c ac .cfa: sp 0 +
STACK CFI 4b170 .cfa: sp 64 +
STACK CFI 4b180 .cfa: x29 64 + x19: .cfa -8 + ^ x20: .cfa -16 + ^ x21: .cfa -24 + ^ x22: .cfa -32 + ^ x23: .cfa -48 + ^ .ra: .cfa -56 + ^ x29: .cfa -64 + ^
STACK CFI 4b1fc .cfa: sp 64 +
STACK CFI 4b20c .cfa: sp 0 +
STACK CFI 4b210 .cfa: x29 64 +
STACK CFI INIT 4b218 110 .cfa: sp 0 +
STACK CFI 4b21c .cfa: sp 64 +
STACK CFI 4b22c .cfa: x29 64 + x19: .cfa -8 + ^ x20: .cfa -16 + ^ x21: .cfa -24 + ^ x22: .cfa -32 + ^ x23: .cfa -40 + ^ x24: .cfa -48 + ^ .ra: .cfa -56 + ^ x29: .cfa -64 + ^
STACK CFI 4b30c .cfa: sp 64 +
STACK CFI 4b31c .cfa: sp 0 +
STACK CFI 4b320 .cfa: x29 64 +
STACK CFI INIT 4b95c 1c .cfa: sp 0 +
STACK CFI INIT 4bcf8 50 .cfa: sp 0 +
STACK CFI 4bcfc .cfa: sp 32 +
STACK CFI 4bd04 .cfa: x29 32 + x19: .cfa -16 + ^ .ra: .cfa -24 + ^ x29: .cfa -32 + ^
STACK CFI 4bd1c .cfa: sp 32 +
STACK CFI 4bd24 .cfa: sp 0 +
STACK CFI 4bd28 .cfa: x29 32 +
STACK CFI 4bd3c .cfa: sp 32 +
STACK CFI 4bd44 .cfa: sp 0 +
STACK CFI INIT 4bdbc 7c .cfa: sp 0 +
STACK CFI 4bdc0 .cfa: sp 48 +
STACK CFI 4bdcc .cfa: x29 48 + x19: .cfa -8 + ^ x20: .cfa -16 + ^ x21: .cfa -32 + ^ .ra: .cfa -40 + ^ x29: .cfa -48 + ^
STACK CFI 4be18 .cfa: sp 48 +
STACK CFI 4be24 .cfa: sp 0 +
STACK CFI 4be28 .cfa: sp 48 +
STACK CFI 4be34 .cfa: sp 0 +
STACK CFI INIT 4be38 4 .cfa: sp 0 +
STACK CFI INIT 4be3c 120 .cfa: sp 0 +
STACK CFI 4be40 .cfa: sp 64 +
STACK CFI 4be50 .cfa: x29 64 + x19: .cfa -8 + ^ x20: .cfa -16 + ^ x21: .cfa -24 + ^ x22: .cfa -32 + ^ x23: .cfa -40 + ^ x24: .cfa -48 + ^ .ra: .cfa -56 + ^ x29: .cfa -64 + ^
STACK CFI 4bf48 .cfa: sp 64 +
STACK CFI 4bf58 .cfa: sp 0 +
STACK CFI INIT 4c150 7c .cfa: sp 0 +
STACK CFI 4c154 .cfa: sp 32 +
STACK CFI 4c15c .cfa: x29 32 + x19: .cfa -8 + ^ x20: .cfa -16 + ^ .ra: .cfa -24 + ^ x29: .cfa -32 + ^
STACK CFI 4c1b4 .cfa: sp 32 +
STACK CFI 4c1bc .cfa: sp 0 +
STACK CFI 4c1c0 .cfa: sp 32 +
STACK CFI 4c1c8 .cfa: sp 0 +
STACK CFI INIT 4c1cc 1b0 .cfa: sp 0 +
STACK CFI INIT 4c5fc 80 .cfa: sp 0 +
STACK CFI 4c600 .cfa: sp 48 +
STACK CFI 4c60c .cfa: x29 48 + x19: .cfa -8 + ^ x20: .cfa -16 + ^ x21: .cfa -32 + ^ .ra: .cfa -40 + ^ x29: .cfa -48 + ^
STACK CFI 4c66c .cfa: sp 48 +
STACK CFI 4c678 .cfa: sp 0 +
STACK CFI INIT 4c67c 24 .cfa: sp 0 +
STACK CFI 4c680 .cfa: sp 32 +
STACK CFI 4c688 .cfa: x29 32 + x19: .cfa -16 + ^ .ra: .cfa -24 + ^ x29: .cfa -32 + ^
STACK CFI 4c694 .cfa: sp 32 +
STACK CFI 4c69c .cfa: sp 0 +
STACK CFI INIT 4cb98 148 .cfa: sp 0 +
STACK CFI 4cb9c .cfa: sp 48 +
STACK CFI 4cba8 .cfa: x29 48 + x19: .cfa -8 + ^ x20: .cfa -16 + ^ x21: .cfa -32 + ^ .ra: .cfa -40 + ^ x29: .cfa -48 + ^
STACK CFI 4ccd0 .cfa: sp 48 +
STACK CFI 4ccdc .cfa: sp 0 +
STACK CFI INIT 4ce48 4 .cfa: sp 0 +
STACK CFI INIT 4ce4c 14 .cfa: sp 0 +
STACK CFI INIT 4d088 68 .cfa: sp 0 +
STACK CFI 4d08c .cfa: sp 32 +
STACK CFI 4d094 .cfa: x29 32 + x19: .cfa -8 + ^ x20: .cfa -16 + ^ .ra: .cfa -24 + ^ x29: .cfa -32 + ^
STACK CFI 4d0ac .cfa: sp 32 +
STACK CFI 4d0b4 .cfa: sp 0 +
STACK CFI 4d0b8 .cfa: x29 32 +
STACK CFI 4d0e4 .cfa: sp 32 +
STACK CFI 4d0ec .cfa: sp 0 +
STACK CFI INIT 4d0f0 14 .cfa: sp 0 +
STACK CFI 4d0f4 .cfa: sp 16 +
STACK CFI 4d0f8 .cfa: x29 16 + .ra: .cfa -8 + ^ x29: .cfa -16 + ^
STACK CFI INIT 4d104 4 .cfa: sp 0 +
STACK CFI INIT 4d108 14 .cfa: sp 0 +
STACK CFI INIT 4d11c d4 .cfa: sp 0 +
STACK CFI 4d120 .cfa: sp 48 +
STACK CFI 4d12c .cfa: x29 48 + x19: .cfa -8 + ^ x20: .cfa -16 + ^ x21: .cfa -32 + ^ .ra: .cfa -40 + ^ x29: .cfa -48 + ^
STACK CFI 4d1bc .cfa: sp 48 +
STACK CFI 4d1c8 .cfa: sp 0 +
STACK CFI 4d1cc .cfa: x29 48 +
STACK CFI INIT 4d1f0 3c8 .cfa: sp 0 +
STACK CFI INIT 4d5b8 8c .cfa: sp 0 +
STACK CFI 4d5c0 .cfa: sp 32 +
STACK CFI 4d5c8 .cfa: x29 32 + x19: .cfa -8 + ^ x20: .cfa -16 + ^ .ra: .cfa -24 + ^ x29: .cfa -32 + ^
STACK CFI 4d610 .cfa: sp 32 +
STACK CFI 4d618 .cfa: sp 0 +
STACK CFI 4d620 .cfa: x29 32 +
STACK CFI INIT 4d644 4 .cfa: sp 0 +
STACK CFI INIT 4d648 50 .cfa: sp 0 +
STACK CFI 4d64c .cfa: sp 32 +
STACK CFI 4d654 .cfa: x29 32 + x19: .cfa -16 + ^ .ra: .cfa -24 + ^ x29: .cfa -32 + ^
STACK CFI 4d66c .cfa: sp 32 +
STACK CFI 4d674 .cfa: sp 0 +
STACK CFI 4d678 .cfa: x29 32 +
STACK CFI 4d68c .cfa: sp 32 +
STACK CFI 4d694 .cfa: sp 0 +
STACK CFI INIT 4d698 64 .cfa: sp 0 +
STACK CFI 4d69c .cfa: sp 32 +
STACK CFI 4d6a4 .cfa: x29 32 + x19: .cfa -16 + ^ .ra: .cfa -24 + ^ x29: .cfa -32 + ^
STACK CFI 4d6d0 .cfa: sp 32 +
STACK CFI 4d6d8 .cfa: sp 0 +
STACK CFI 4d6dc .cfa: x29 32 +
STACK CFI 4d6f0 .cfa: sp 32 +
STACK CFI 4d6f8 .cfa: sp 0 +
STACK CFI INIT 4fc2c 178 .cfa: sp 0 +
STACK CFI 4fc30 .cfa: sp 80 +
STACK CFI 4fc44 .cfa: x29 80 + x19: .cfa -8 + ^ x20: .cfa -16 + ^ x21: .cfa -24 + ^ x22: .cfa -32 + ^ x23: .cfa -40 + ^ x24: .cfa -48 + ^ x25: .cfa -56 + ^ x26: .cfa -64 + ^ .ra: .cfa -72 + ^ x29: .cfa -80 + ^
STACK CFI 4fd8c .cfa: sp 80 +
STACK CFI 4fda0 .cfa: sp 0 +
STACK CFI INIT 502d8 1c .cfa: sp 0 +
STACK CFI INIT 50cb4 4 .cfa: sp 0 +
STACK CFI INIT 50f00 24 .cfa: sp 0 +
STACK CFI 50f04 .cfa: sp 32 +
STACK CFI 50f0c .cfa: x29 32 + x19: .cfa -16 + ^ .ra: .cfa -24 + ^ x29: .cfa -32 + ^
STACK CFI 50f18 .cfa: sp 32 +
STACK CFI 50f20 .cfa: sp 0 +
STACK CFI INIT 50f24 24 .cfa: sp 0 +
STACK CFI 50f28 .cfa: sp 32 +
STACK CFI 50f30 .cfa: x29 32 + x19: .cfa -16 + ^ .ra: .cfa -24 + ^ x29: .cfa -32 + ^
STACK CFI 50f3c .cfa: sp 32 +
STACK CFI 50f44 .cfa: sp 0 +
STACK CFI INIT 51198 b4 .cfa: sp 0 +
STACK CFI 5119c .cfa: sp 32 +
STACK CFI 511a4 .cfa: x29 32 + x19: .cfa -16 + ^ .ra: .cfa -24 + ^ x29: .cfa -32 + ^
STACK CFI 51240 .cfa: sp 32 +
STACK CFI 51248 .cfa: sp 0 +
STACK CFI INIT 54da4 4 .cfa: sp 0 +
STACK CFI INIT 54da8 14 .cfa: sp 0 +
STACK CFI 54dac .cfa: sp 16 +
STACK CFI 54db0 .cfa: x29 16 + .ra: .cfa -8 + ^ x29: .cfa -16 + ^
STACK CFI INIT 54dbc 14 .cfa: sp 0 +
STACK CFI 54dc0 .cfa: sp 16 +
STACK CFI 54dc4 .cfa: x29 16 + .ra: .cfa -8 + ^ x29: .cfa -16 + ^
STACK CFI INIT 54dd0 14 .cfa: sp 0 +
STACK CFI 54dd4 .cfa: sp 16 +
STACK CFI 54dd8 .cfa: x29 16 + .ra: .cfa -8 + ^ x29: .cfa -16 + ^
STACK CFI INIT 54e34 30 .cfa: sp 0 +
STACK CFI 54e38 .cfa: sp 32 +
STACK CFI 54e40 .cfa: x29 32 + x19: .cfa -16 + ^ .ra: .cfa -24 + ^ x29: .cfa -32 + ^
STACK CFI 54e58 .cfa: sp 32 +
STACK CFI 54e60 .cfa: sp 0 +
STACK CFI INIT 54e64 14 .cfa: sp 0 +
STACK CFI 54e68 .cfa: sp 16 +
STACK CFI 54e6c .cfa: x29 16 + .ra: .cfa -8 + ^ x29: .cfa -16 + ^
STACK CFI INIT 54e78 4 .cfa: sp 0 +
STACK CFI INIT 54e7c 4 .cfa: sp 0 +
STACK CFI INIT 54e80 38 .cfa: sp 0 +
STACK CFI 54e84 .cfa: sp 32 +
STACK CFI 54e8c .cfa: x29 32 + x19: .cfa -16 + ^ .ra: .cfa -24 + ^ x29: .cfa -32 + ^
STACK CFI 54eac .cfa: sp 32 +
STACK CFI 54eb4 .cfa: sp 0 +
STACK CFI INIT 54eb8 18 .cfa: sp 0 +
STACK CFI INIT 54ed0 4 .cfa: sp 0 +
STACK CFI INIT 54ed4 4 .cfa: sp 0 +
STACK CFI INIT 54ed8 10 .cfa: sp 0 +
STACK CFI INIT 54ee8 1c .cfa: sp 0 +
STACK CFI INIT 54f04 c .cfa: sp 0 +
STACK CFI INIT 550bc 4 .cfa: sp 0 +
STACK CFI INIT 550c0 4 .cfa: sp 0 +
STACK CFI INIT 550c4 34 .cfa: sp 0 +
STACK CFI 550c8 .cfa: sp 32 +
STACK CFI 550d0 .cfa: x29 32 + x19: .cfa -16 + ^ .ra: .cfa -24 + ^ x29: .cfa -32 + ^
STACK CFI 550ec .cfa: sp 32 +
STACK CFI 550f4 .cfa: sp 0 +
STACK CFI INIT 550f8 14 .cfa: sp 0 +
STACK CFI INIT 5510c 4 .cfa: sp 0 +
STACK CFI INIT 55110 4 .cfa: sp 0 +
STACK CFI INIT 55114 60 .cfa: sp 0 +
STACK CFI 55118 .cfa: sp 80 +
STACK CFI 55124 .cfa: x29 32 + x19: .cfa -16 + ^ .ra: .cfa -24 + ^ x29: .cfa -32 + ^
STACK CFI 55160 .cfa: sp 80 +
STACK CFI 5516c .cfa: sp 0 +
STACK CFI 55170 .cfa: x29 32 +
STACK CFI INIT 55174 1c .cfa: sp 0 +
STACK CFI INIT 55190 c .cfa: sp 0 +
STACK CFI INIT 556f4 1c8 .cfa: sp 0 +
STACK CFI INIT 57c54 68 .cfa: sp 0 +
STACK CFI 57c58 .cfa: sp 48 +
STACK CFI 57c64 .cfa: x29 48 + x19: .cfa -8 + ^ x20: .cfa -16 + ^ x21: .cfa -32 + ^ .ra: .cfa -40 + ^ x29: .cfa -48 + ^
STACK CFI 57c9c .cfa: sp 48 +
STACK CFI 57ca8 .cfa: sp 0 +
STACK CFI 57cac .cfa: sp 48 +
STACK CFI 57cb8 .cfa: sp 0 +
STACK CFI INIT 57cbc 14 .cfa: sp 0 +
STACK CFI 57cc0 .cfa: sp 16 +
STACK CFI 57cc4 .cfa: x29 16 + .ra: .cfa -8 + ^ x29: .cfa -16 + ^
STACK CFI INIT 57cd0 4 .cfa: sp 0 +
STACK CFI INIT 57cd4 14 .cfa: sp 0 +
STACK CFI INIT 57ce8 4 .cfa: sp 0 +
STACK CFI INIT 57cec 14 .cfa: sp 0 +
STACK CFI INIT 57e38 3c .cfa: sp 0 +
STACK CFI 57e3c .cfa: sp 32 +
STACK CFI 57e44 .cfa: x29 32 + x19: .cfa -16 + ^ .ra: .cfa -24 + ^ x29: .cfa -32 + ^
STACK CFI 57e58 .cfa: sp 32 +
STACK CFI 57e60 .cfa: sp 0 +
STACK CFI 57e64 .cfa: x29 32 +
STACK CFI 57e68 .cfa: sp 32 +
STACK CFI 57e70 .cfa: sp 0 +
STACK CFI INIT 57e74 54 .cfa: sp 0 +
STACK CFI 57e78 .cfa: sp 32 +
STACK CFI 57e80 .cfa: x29 32 + x19: .cfa -8 + ^ x20: .cfa -16 + ^ .ra: .cfa -24 + ^ x29: .cfa -32 + ^
STACK CFI 57eb0 .cfa: sp 32 +
STACK CFI 57eb8 .cfa: sp 0 +
STACK CFI 57ebc .cfa: sp 32 +
STACK CFI 57ec4 .cfa: sp 0 +
STACK CFI INIT 57ec8 14 .cfa: sp 0 +
STACK CFI 57ecc .cfa: sp 16 +
STACK CFI 57ed0 .cfa: x29 16 + .ra: .cfa -8 + ^ x29: .cfa -16 + ^
STACK CFI INIT 57edc 3c .cfa: sp 0 +
STACK CFI 57ee0 .cfa: sp 32 +
STACK CFI 57ee8 .cfa: x29 32 + x19: .cfa -16 + ^ .ra: .cfa -24 + ^ x29: .cfa -32 + ^
STACK CFI 57ef4 .cfa: sp 32 +
STACK CFI 57efc .cfa: sp 0 +
STACK CFI 57f00 .cfa: x29 32 +
STACK CFI 57f0c .cfa: sp 32 +
STACK CFI 57f14 .cfa: sp 0 +
STACK CFI INIT 57f18 4c .cfa: sp 0 +
STACK CFI 57f1c .cfa: sp 32 +
STACK CFI 57f24 .cfa: x29 32 + x19: .cfa -8 + ^ x20: .cfa -16 + ^ .ra: .cfa -24 + ^ x29: .cfa -32 + ^
STACK CFI 57f4c .cfa: sp 32 +
STACK CFI 57f54 .cfa: sp 0 +
STACK CFI 57f58 .cfa: sp 32 +
STACK CFI 57f60 .cfa: sp 0 +
STACK CFI INIT 58184 64 .cfa: sp 0 +
STACK CFI 58188 .cfa: sp 32 +
STACK CFI 58190 .cfa: x29 32 + x19: .cfa -16 + ^ .ra: .cfa -24 + ^ x29: .cfa -32 + ^
STACK CFI 581bc .cfa: sp 32 +
STACK CFI 581c4 .cfa: sp 0 +
STACK CFI 581c8 .cfa: x29 32 +
STACK CFI 581dc .cfa: sp 32 +
STACK CFI 581e4 .cfa: sp 0 +
STACK CFI INIT 5840c 24 .cfa: sp 0 +
STACK CFI 58410 .cfa: sp 32 +
STACK CFI 58418 .cfa: x29 32 + x19: .cfa -16 + ^ .ra: .cfa -24 + ^ x29: .cfa -32 + ^
STACK CFI 58424 .cfa: sp 32 +
STACK CFI 5842c .cfa: sp 0 +
STACK CFI INIT 5868c 24 .cfa: sp 0 +
STACK CFI 58690 .cfa: sp 32 +
STACK CFI 58698 .cfa: x29 32 + x19: .cfa -16 + ^ .ra: .cfa -24 + ^ x29: .cfa -32 + ^
STACK CFI 586a4 .cfa: sp 32 +
STACK CFI 586ac .cfa: sp 0 +
STACK CFI INIT 586b0 8 .cfa: sp 0 +
STACK CFI INIT 586b8 24 .cfa: sp 0 +
STACK CFI 586bc .cfa: sp 32 +
STACK CFI 586c4 .cfa: x29 32 + x19: .cfa -16 + ^ .ra: .cfa -24 + ^ x29: .cfa -32 + ^
STACK CFI 586d0 .cfa: sp 32 +
STACK CFI 586d8 .cfa: sp 0 +
STACK CFI INIT 586dc 28 .cfa: sp 0 +
STACK CFI 586e0 .cfa: sp 32 +
STACK CFI 586e8 .cfa: x29 32 + x19: .cfa -16 + ^ .ra: .cfa -24 + ^ x29: .cfa -32 + ^
STACK CFI 586f8 .cfa: sp 32 +
STACK CFI 58700 .cfa: sp 0 +
STACK CFI INIT 58a04 8 .cfa: sp 0 +
STACK CFI INIT 58a0c 24 .cfa: sp 0 +
STACK CFI 58a10 .cfa: sp 32 +
STACK CFI 58a18 .cfa: x29 32 + x19: .cfa -16 + ^ .ra: .cfa -24 + ^ x29: .cfa -32 + ^
STACK CFI 58a24 .cfa: sp 32 +
STACK CFI 58a2c .cfa: sp 0 +
STACK CFI INIT 58a30 28 .cfa: sp 0 +
STACK CFI 58a34 .cfa: sp 32 +
STACK CFI 58a3c .cfa: x29 32 + x19: .cfa -16 + ^ .ra: .cfa -24 + ^ x29: .cfa -32 + ^
STACK CFI 58a4c .cfa: sp 32 +
STACK CFI 58a54 .cfa: sp 0 +
STACK CFI INIT 58cbc 8 .cfa: sp 0 +
STACK CFI INIT 58cc4 24 .cfa: sp 0 +
STACK CFI 58cc8 .cfa: sp 32 +
STACK CFI 58cd0 .cfa: x29 32 + x19: .cfa -16 + ^ .ra: .cfa -24 + ^ x29: .cfa -32 + ^
STACK CFI 58cdc .cfa: sp 32 +
STACK CFI 58ce4 .cfa: sp 0 +
STACK CFI INIT 58ce8 28 .cfa: sp 0 +
STACK CFI 58cec .cfa: sp 32 +
STACK CFI 58cf4 .cfa: x29 32 + x19: .cfa -16 + ^ .ra: .cfa -24 + ^ x29: .cfa -32 + ^
STACK CFI 58d04 .cfa: sp 32 +
STACK CFI 58d0c .cfa: sp 0 +
STACK CFI INIT 58d10 8 .cfa: sp 0 +
STACK CFI INIT 58d18 24 .cfa: sp 0 +
STACK CFI 58d1c .cfa: sp 32 +
STACK CFI 58d24 .cfa: x29 32 + x19: .cfa -16 + ^ .ra: .cfa -24 + ^ x29: .cfa -32 + ^
STACK CFI 58d30 .cfa: sp 32 +
STACK CFI 58d38 .cfa: sp 0 +
STACK CFI INIT 58d3c 28 .cfa: sp 0 +
STACK CFI 58d40 .cfa: sp 32 +
STACK CFI 58d48 .cfa: x29 32 + x19: .cfa -16 + ^ .ra: .cfa -24 + ^ x29: .cfa -32 + ^
STACK CFI 58d58 .cfa: sp 32 +
STACK CFI 58d60 .cfa: sp 0 +
STACK CFI INIT 59f04 4 .cfa: sp 0 +
STACK CFI INIT 59f08 14 .cfa: sp 0 +
STACK CFI INIT 5a428 c .cfa: sp 0 +
STACK CFI INIT 5a434 24c .cfa: sp 0 +
STACK CFI INIT 5a680 a0 .cfa: sp 0 +
STACK CFI 5a68c .cfa: sp 32 +
STACK CFI 5a6e4 .cfa: sp 0 +
STACK CFI 5a6e8 .cfa: sp 32 +
STACK CFI 5a6f0 .cfa: sp 0 +
STACK CFI 5a6f4 .cfa: sp 32 +
STACK CFI 5a708 .cfa: sp 0 +
STACK CFI 5a70c .cfa: sp 32 +
STACK CFI 5a71c .cfa: sp 0 +
STACK CFI INIT 5a720 38 .cfa: sp 0 +
STACK CFI 5a72c .cfa: sp 32 +
STACK CFI 5a754 .cfa: sp 0 +
STACK CFI INIT 5a9ec 7c .cfa: sp 0 +
STACK CFI 5a9f0 .cfa: sp 32 +
STACK CFI 5a9f8 .cfa: x29 32 + x19: .cfa -16 + ^ .ra: .cfa -24 + ^ x29: .cfa -32 + ^
STACK CFI 5aa24 .cfa: sp 32 +
STACK CFI 5aa2c .cfa: sp 0 +
STACK CFI 5aa30 .cfa: x29 32 +
STACK CFI 5aa5c .cfa: sp 32 +
STACK CFI 5aa64 .cfa: sp 0 +
STACK CFI INIT 5aab8 2c .cfa: sp 0 +
STACK CFI 5aabc .cfa: sp 32 +
STACK CFI 5aac4 .cfa: x29 32 + x19: .cfa -16 + ^ .ra: .cfa -24 + ^ x29: .cfa -32 + ^
STACK CFI 5aad8 .cfa: sp 32 +
STACK CFI 5aae0 .cfa: sp 0 +
STACK CFI INIT 5b2a4 64 .cfa: sp 0 +
STACK CFI 5b2a8 .cfa: sp 32 +
STACK CFI 5b2b0 .cfa: x29 32 + x19: .cfa -16 + ^ .ra: .cfa -24 + ^ x29: .cfa -32 + ^
STACK CFI 5b2cc .cfa: sp 32 +
STACK CFI 5b2d4 .cfa: sp 0 +
STACK CFI 5b2d8 .cfa: x29 32 +
STACK CFI 5b2fc .cfa: sp 32 +
STACK CFI 5b304 .cfa: sp 0 +
STACK CFI INIT 5b308 570 .cfa: sp 0 +
STACK CFI 5b30c .cfa: sp 176 +
STACK CFI 5b320 .cfa: x29 64 + x19: .cfa -8 + ^ x20: .cfa -16 + ^ x21: .cfa -24 + ^ x22: .cfa -32 + ^ x23: .cfa -40 + ^ x24: .cfa -48 + ^ .ra: .cfa -56 + ^ x29: .cfa -64 + ^
STACK CFI 5b550 .cfa: sp 176 +
STACK CFI 5b564 .cfa: sp 0 +
STACK CFI 5b568 .cfa: x29 64 +
STACK CFI 5b5b4 .cfa: sp 176 +
STACK CFI 5b5c8 .cfa: sp 0 +
STACK CFI 5b5cc .cfa: x29 64 +
STACK CFI 5b604 .cfa: sp 176 +
STACK CFI 5b618 .cfa: sp 0 +
STACK CFI 5b61c .cfa: x29 64 +
STACK CFI 5b634 .cfa: sp 176 +
STACK CFI 5b648 .cfa: sp 0 +
STACK CFI 5b64c .cfa: x29 64 +
STACK CFI 5b66c .cfa: sp 176 +
STACK CFI 5b680 .cfa: sp 0 +
STACK CFI 5b684 .cfa: x29 64 +
STACK CFI 5b69c .cfa: sp 176 +
STACK CFI 5b6b0 .cfa: sp 0 +
STACK CFI 5b6b4 .cfa: x29 64 +
STACK CFI 5b6c8 .cfa: sp 176 +
STACK CFI 5b6dc .cfa: sp 0 +
STACK CFI 5b6e0 .cfa: x29 64 +
STACK CFI 5b6f4 .cfa: sp 176 +
STACK CFI 5b708 .cfa: sp 0 +
STACK CFI 5b70c .cfa: x29 64 +
STACK CFI 5b71c .cfa: sp 176 +
STACK CFI 5b730 .cfa: sp 0 +
STACK CFI 5b734 .cfa: x29 64 +
STACK CFI 5b744 .cfa: sp 176 +
STACK CFI 5b758 .cfa: sp 0 +
STACK CFI 5b75c .cfa: x29 64 +
STACK CFI 5b774 .cfa: sp 176 +
STACK CFI 5b788 .cfa: sp 0 +
STACK CFI 5b78c .cfa: x29 64 +
STACK CFI 5b7a0 .cfa: sp 176 +
STACK CFI 5b7b4 .cfa: sp 0 +
STACK CFI 5b7b8 .cfa: x29 64 +
STACK CFI 5b7d0 .cfa: sp 176 +
STACK CFI 5b7e4 .cfa: sp 0 +
STACK CFI 5b7e8 .cfa: x29 64 +
STACK CFI 5b814 .cfa: sp 176 +
STACK CFI 5b828 .cfa: sp 0 +
STACK CFI 5b82c .cfa: x29 64 +
STACK CFI 5b840 .cfa: sp 176 +
STACK CFI 5b854 .cfa: sp 0 +
STACK CFI 5b858 .cfa: x29 64 +
STACK CFI INIT 5b878 228 .cfa: sp 0 +
STACK CFI INIT 5baa0 2dc .cfa: sp 0 +
STACK CFI INIT 5bd7c 53c .cfa: sp 0 +
STACK CFI INIT 5c2b8 78 .cfa: sp 0 +
STACK CFI 5c2bc .cfa: sp 48 +
STACK CFI 5c2c8 .cfa: x29 48 + x19: .cfa -8 + ^ x20: .cfa -16 + ^ x21: .cfa -24 + ^ x22: .cfa -32 + ^ .ra: .cfa -40 + ^ x29: .cfa -48 + ^
STACK CFI 5c310 .cfa: sp 48 +
STACK CFI 5c31c .cfa: sp 0 +
STACK CFI 5c320 .cfa: sp 48 +
STACK CFI 5c32c .cfa: sp 0 +
STACK CFI INIT 5c330 8c .cfa: sp 0 +
STACK CFI 5c334 .cfa: sp 32 +
STACK CFI 5c33c .cfa: x29 32 + x19: .cfa -16 + ^ .ra: .cfa -24 + ^ x29: .cfa -32 + ^
STACK CFI 5c370 .cfa: sp 32 +
STACK CFI 5c378 .cfa: sp 0 +
STACK CFI 5c37c .cfa: x29 32 +
STACK CFI 5c3b0 .cfa: sp 32 +
STACK CFI 5c3b8 .cfa: sp 0 +
STACK CFI INIT 5c3bc 24 .cfa: sp 0 +
STACK CFI 5c3c0 .cfa: sp 32 +
STACK CFI 5c3c8 .cfa: x29 32 + x19: .cfa -16 + ^ .ra: .cfa -24 + ^ x29: .cfa -32 + ^
STACK CFI 5c3d4 .cfa: sp 32 +
STACK CFI 5c3dc .cfa: sp 0 +
STACK CFI INIT 5c3e0 150 .cfa: sp 0 +
STACK CFI 5c3e4 .cfa: sp 48 +
STACK CFI 5c3f0 .cfa: x29 48 + x19: .cfa -8 + ^ x20: .cfa -16 + ^ x21: .cfa -24 + ^ x22: .cfa -32 + ^ .ra: .cfa -40 + ^ x29: .cfa -48 + ^
STACK CFI 5c520 .cfa: sp 48 +
STACK CFI 5c52c .cfa: sp 0 +
STACK CFI INIT 5c530 68 .cfa: sp 0 +
STACK CFI 5c534 .cfa: sp 64 +
STACK CFI 5c540 .cfa: x29 32 + x19: .cfa -16 + ^ .ra: .cfa -24 + ^ x29: .cfa -32 + ^
STACK CFI 5c584 .cfa: sp 64 +
STACK CFI 5c590 .cfa: sp 0 +
STACK CFI 5c594 .cfa: x29 32 +
STACK CFI INIT 5c598 90 .cfa: sp 0 +
STACK CFI 5c59c .cfa: sp 32 +
STACK CFI 5c5a4 .cfa: x29 32 + x19: .cfa -8 + ^ x20: .cfa -16 + ^ .ra: .cfa -24 + ^ x29: .cfa -32 + ^
STACK CFI 5c5d0 .cfa: sp 32 +
STACK CFI 5c5d8 .cfa: sp 0 +
STACK CFI 5c5dc .cfa: x29 32 +
STACK CFI 5c61c .cfa: sp 32 +
STACK CFI 5c624 .cfa: sp 0 +
STACK CFI INIT 5c628 ec .cfa: sp 0 +
STACK CFI 5c62c .cfa: sp 112 +
STACK CFI 5c63c .cfa: x29 48 + x19: .cfa -8 + ^ x20: .cfa -16 + ^ x21: .cfa -32 + ^ .ra: .cfa -40 + ^ x29: .cfa -48 + ^
STACK CFI 5c6fc .cfa: sp 112 +
STACK CFI 5c70c .cfa: sp 0 +
STACK CFI 5c710 .cfa: x29 48 +
STACK CFI INIT 5c714 ec .cfa: sp 0 +
STACK CFI 5c718 .cfa: sp 112 +
STACK CFI 5c728 .cfa: x29 48 + x19: .cfa -8 + ^ x20: .cfa -16 + ^ x21: .cfa -32 + ^ .ra: .cfa -40 + ^ x29: .cfa -48 + ^
STACK CFI 5c7e8 .cfa: sp 112 +
STACK CFI 5c7f8 .cfa: sp 0 +
STACK CFI 5c7fc .cfa: x29 48 +
STACK CFI INIT 5c800 48 .cfa: sp 0 +
STACK CFI 5c804 .cfa: sp 32 +
STACK CFI 5c80c .cfa: x29 32 + x19: .cfa -8 + ^ x20: .cfa -16 + ^ .ra: .cfa -24 + ^ x29: .cfa -32 + ^
STACK CFI 5c830 .cfa: sp 32 +
STACK CFI 5c838 .cfa: sp 0 +
STACK CFI 5c83c .cfa: x29 32 +
STACK CFI INIT 5c848 98 .cfa: sp 0 +
STACK CFI 5c84c .cfa: sp 80 +
STACK CFI 5c858 .cfa: x29 32 + x19: .cfa -16 + ^ .ra: .cfa -24 + ^ x29: .cfa -32 + ^
STACK CFI 5c8cc .cfa: sp 80 +
STACK CFI 5c8d8 .cfa: sp 0 +
STACK CFI 5c8dc .cfa: x29 32 +
STACK CFI INIT 5c8e0 260 .cfa: sp 0 +
STACK CFI 5c8e4 .cfa: sp 112 +
STACK CFI 5c8fc .cfa: x29 80 + x19: .cfa -8 + ^ x20: .cfa -16 + ^ x21: .cfa -24 + ^ x22: .cfa -32 + ^ x23: .cfa -40 + ^ x24: .cfa -48 + ^ x25: .cfa -64 + ^ .ra: .cfa -72 + ^ x29: .cfa -80 + ^
STACK CFI 5cae0 .cfa: sp 112 +
STACK CFI 5caf8 .cfa: sp 0 +
STACK CFI 5cafc .cfa: x29 80 +
STACK CFI INIT 5cb40 150 .cfa: sp 0 +
STACK CFI 5cb44 .cfa: sp 48 +
STACK CFI 5cb50 .cfa: x29 48 + x19: .cfa -8 + ^ x20: .cfa -16 + ^ x21: .cfa -24 + ^ x22: .cfa -32 + ^ .ra: .cfa -40 + ^ x29: .cfa -48 + ^
STACK CFI 5cc80 .cfa: sp 48 +
STACK CFI 5cc8c .cfa: sp 0 +
STACK CFI INIT 5cc90 1e0 .cfa: sp 0 +
STACK CFI 5cc94 .cfa: sp 96 +
STACK CFI 5cca8 .cfa: x29 64 + x19: .cfa -8 + ^ x20: .cfa -16 + ^ x21: .cfa -24 + ^ x22: .cfa -32 + ^ x23: .cfa -40 + ^ x24: .cfa -48 + ^ .ra: .cfa -56 + ^ x29: .cfa -64 + ^
STACK CFI 5ce28 .cfa: sp 96 +
STACK CFI 5ce3c .cfa: sp 0 +
STACK CFI 5ce40 .cfa: x29 64 +
STACK CFI INIT 5ce70 284 .cfa: sp 0 +
STACK CFI 5ce74 .cfa: sp 112 +
STACK CFI 5ce8c .cfa: x29 80 + x19: .cfa -8 + ^ x20: .cfa -16 + ^ x21: .cfa -24 + ^ x22: .cfa -32 + ^ x23: .cfa -40 + ^ x24: .cfa -48 + ^ x25: .cfa -64 + ^ .ra: .cfa -72 + ^ x29: .cfa -80 + ^
STACK CFI 5d094 .cfa: sp 112 +
STACK CFI 5d0ac .cfa: sp 0 +
STACK CFI 5d0b0 .cfa: x29 80 +
STACK CFI INIT 5d0f4 208 .cfa: sp 0 +
STACK CFI 5d0f8 .cfa: sp 96 +
STACK CFI 5d10c .cfa: x29 64 + x19: .cfa -8 + ^ x20: .cfa -16 + ^ x21: .cfa -24 + ^ x22: .cfa -32 + ^ x23: .cfa -40 + ^ x24: .cfa -48 + ^ .ra: .cfa -56 + ^ x29: .cfa -64 + ^
STACK CFI 5d2b4 .cfa: sp 96 +
STACK CFI 5d2c8 .cfa: sp 0 +
STACK CFI 5d2cc .cfa: x29 64 +
STACK CFI INIT 5d2fc 360 .cfa: sp 0 +
STACK CFI 5d300 .cfa: sp 160 +
STACK CFI 5d31c .cfa: x29 96 + x19: .cfa -8 + ^ x20: .cfa -16 + ^ x21: .cfa -24 + ^ x22: .cfa -32 + ^ x23: .cfa -40 + ^ x24: .cfa -48 + ^ x25: .cfa -56 + ^ x26: .cfa -64 + ^ x27: .cfa -72 + ^ x28: .cfa -80 + ^ .ra: .cfa -88 + ^ x29: .cfa -96 + ^
STACK CFI 5d5e8 .cfa: sp 160 +
STACK CFI 5d604 .cfa: sp 0 +
STACK CFI 5d608 .cfa: x29 96 +
STACK CFI INIT 5d65c 314 .cfa: sp 0 +
STACK CFI 5d660 .cfa: sp 144 +
STACK CFI 5d67c .cfa: x29 96 + x19: .cfa -8 + ^ x20: .cfa -16 + ^ x21: .cfa -24 + ^ x22: .cfa -32 + ^ x23: .cfa -40 + ^ x24: .cfa -48 + ^ x25: .cfa -56 + ^ x26: .cfa -64 + ^ x27: .cfa -72 + ^ x28: .cfa -80 + ^ .ra: .cfa -88 + ^ x29: .cfa -96 + ^
STACK CFI 5d8f8 .cfa: sp 144 +
STACK CFI 5d914 .cfa: sp 0 +
STACK CFI 5d918 .cfa: x29 96 +
STACK CFI INIT 5d970 290 .cfa: sp 0 +
STACK CFI 5d974 .cfa: sp 128 +
STACK CFI 5d98c .cfa: x29 80 + x19: .cfa -8 + ^ x20: .cfa -16 + ^ x21: .cfa -24 + ^ x22: .cfa -32 + ^ x23: .cfa -40 + ^ x24: .cfa -48 + ^ x25: .cfa -56 + ^ x26: .cfa -64 + ^ .ra: .cfa -72 + ^ x29: .cfa -80 + ^
STACK CFI 5dbe0 .cfa: sp 128 +
STACK CFI 5dbf8 .cfa: sp 0 +
STACK CFI 5dbfc .cfa: x29 80 +
STACK CFI INIT 5dc00 ddc .cfa: sp 0 +
STACK CFI 5dc04 .cfa: sp 144 +
STACK CFI 5dc20 .cfa: x29 96 + x19: .cfa -8 + ^ x20: .cfa -16 + ^ x21: .cfa -24 + ^ x22: .cfa -32 + ^ x23: .cfa -40 + ^ x24: .cfa -48 + ^ x25: .cfa -56 + ^ x26: .cfa -64 + ^ x27: .cfa -72 + ^ x28: .cfa -80 + ^ .ra: .cfa -88 + ^ x29: .cfa -96 + ^
STACK CFI 5e8b4 .cfa: sp 144 +
STACK CFI 5e8d0 .cfa: sp 0 +
STACK CFI 5e8d4 .cfa: x29 96 +
STACK CFI INIT 5e9dc 1d0 .cfa: sp 0 +
STACK CFI 5e9e0 .cfa: sp 80 +
STACK CFI 5e9f4 .cfa: x29 80 + x19: .cfa -8 + ^ x20: .cfa -16 + ^ x21: .cfa -24 + ^ x22: .cfa -32 + ^ x23: .cfa -40 + ^ x24: .cfa -48 + ^ x25: .cfa -64 + ^ .ra: .cfa -72 + ^ x29: .cfa -80 + ^
STACK CFI 5eb94 .cfa: sp 80 +
STACK CFI 5eba8 .cfa: sp 0 +
STACK CFI INIT 5ebac 23c .cfa: sp 0 +
STACK CFI 5ebb0 .cfa: sp 112 +
STACK CFI 5ebc4 .cfa: x29 64 + x19: .cfa -8 + ^ x20: .cfa -16 + ^ x21: .cfa -24 + ^ x22: .cfa -32 + ^ x23: .cfa -40 + ^ x24: .cfa -48 + ^ .ra: .cfa -56 + ^ x29: .cfa -64 + ^
STACK CFI 5eda0 .cfa: sp 112 +
STACK CFI 5edb4 .cfa: sp 0 +
STACK CFI 5edb8 .cfa: x29 64 +
STACK CFI INIT 5ede8 30c .cfa: sp 0 +
STACK CFI 5edec .cfa: sp 80 +
STACK CFI 5ee00 .cfa: x29 64 + x19: .cfa -8 + ^ x20: .cfa -16 + ^ x21: .cfa -24 + ^ x22: .cfa -32 + ^ x23: .cfa -40 + ^ x24: .cfa -48 + ^ .ra: .cfa -56 + ^ x29: .cfa -64 + ^
STACK CFI 5ef7c .cfa: sp 80 +
STACK CFI 5ef90 .cfa: sp 0 +
STACK CFI 5ef94 .cfa: x29 64 +
STACK CFI INIT 5f0f4 178 .cfa: sp 0 +
STACK CFI 5f0f8 .cfa: sp 80 +
STACK CFI 5f10c .cfa: x29 64 + x19: .cfa -8 + ^ x20: .cfa -16 + ^ x21: .cfa -24 + ^ x22: .cfa -32 + ^ x23: .cfa -40 + ^ x24: .cfa -48 + ^ .ra: .cfa -56 + ^ x29: .cfa -64 + ^
STACK CFI 5f250 .cfa: sp 80 +
STACK CFI 5f264 .cfa: sp 0 +
STACK CFI 5f268 .cfa: x29 64 +
STACK CFI INIT 5f26c 178 .cfa: sp 0 +
STACK CFI 5f270 .cfa: sp 80 +
STACK CFI 5f284 .cfa: x29 64 + x19: .cfa -8 + ^ x20: .cfa -16 + ^ x21: .cfa -24 + ^ x22: .cfa -32 + ^ x23: .cfa -40 + ^ x24: .cfa -48 + ^ .ra: .cfa -56 + ^ x29: .cfa -64 + ^
STACK CFI 5f3c8 .cfa: sp 80 +
STACK CFI 5f3dc .cfa: sp 0 +
STACK CFI 5f3e0 .cfa: x29 64 +
STACK CFI INIT 5f3e4 240 .cfa: sp 0 +
STACK CFI 5f3e8 .cfa: sp 96 +
STACK CFI 5f400 .cfa: x29 96 + x19: .cfa -8 + ^ x20: .cfa -16 + ^ x21: .cfa -24 + ^ x22: .cfa -32 + ^ x23: .cfa -40 + ^ x24: .cfa -48 + ^ x25: .cfa -56 + ^ x26: .cfa -64 + ^ x27: .cfa -72 + ^ x28: .cfa -80 + ^ .ra: .cfa -88 + ^ x29: .cfa -96 + ^
STACK CFI 5f608 .cfa: sp 96 +
STACK CFI 5f620 .cfa: sp 0 +
STACK CFI INIT 60298 154 .cfa: sp 0 +
STACK CFI 6029c .cfa: sp 96 +
STACK CFI 602b0 .cfa: x29 64 + x19: .cfa -8 + ^ x20: .cfa -16 + ^ x21: .cfa -24 + ^ x22: .cfa -32 + ^ x23: .cfa -48 + ^ .ra: .cfa -56 + ^ x29: .cfa -64 + ^
STACK CFI 60390 .cfa: sp 96 +
STACK CFI 603a4 .cfa: sp 0 +
STACK CFI 603a8 .cfa: x29 64 +
STACK CFI INIT 60658 44 .cfa: sp 0 +
STACK CFI 6065c .cfa: sp 32 +
STACK CFI 60664 .cfa: x29 32 + x19: .cfa -16 + ^ .ra: .cfa -24 + ^ x29: .cfa -32 + ^
STACK CFI 60680 .cfa: sp 32 +
STACK CFI 60688 .cfa: sp 0 +
STACK CFI 6068c .cfa: x29 32 +
STACK CFI 60690 .cfa: sp 32 +
STACK CFI 60698 .cfa: sp 0 +
STACK CFI INIT 6069c 1d0 .cfa: sp 0 +
STACK CFI 606a0 .cfa: sp 64 +
STACK CFI 606b0 .cfa: x29 64 + x19: .cfa -8 + ^ x20: .cfa -16 + ^ x21: .cfa -24 + ^ x22: .cfa -32 + ^ x23: .cfa -40 + ^ x24: .cfa -48 + ^ .ra: .cfa -56 + ^ x29: .cfa -64 + ^
STACK CFI 60770 .cfa: sp 64 +
STACK CFI 60780 .cfa: sp 0 +
STACK CFI 60784 .cfa: x29 64 +
STACK CFI INIT 6086c 17c .cfa: sp 0 +
STACK CFI INIT 60da0 a0 .cfa: sp 0 +
STACK CFI 60da4 .cfa: sp 48 +
STACK CFI 60db0 .cfa: x29 48 + x19: .cfa -8 + ^ x20: .cfa -16 + ^ x21: .cfa -24 + ^ x22: .cfa -32 + ^ .ra: .cfa -40 + ^ x29: .cfa -48 + ^
STACK CFI 60e1c .cfa: sp 48 +
STACK CFI 60e28 .cfa: sp 0 +
STACK CFI 60e2c .cfa: sp 48 +
STACK CFI 60e38 .cfa: sp 0 +
STACK CFI 60e3c .cfa: x29 48 +
STACK CFI INIT 61af4 158 .cfa: sp 0 +
STACK CFI 61af8 .cfa: sp 96 +
STACK CFI 61b0c .cfa: x29 64 + x19: .cfa -8 + ^ x20: .cfa -16 + ^ x21: .cfa -24 + ^ x22: .cfa -32 + ^ x23: .cfa -48 + ^ .ra: .cfa -56 + ^ x29: .cfa -64 + ^
STACK CFI 61bf0 .cfa: sp 96 +
STACK CFI 61c04 .cfa: sp 0 +
STACK CFI 61c08 .cfa: x29 64 +
STACK CFI INIT 61c4c 190 .cfa: sp 0 +
STACK CFI INIT 628d8 1dc .cfa: sp 0 +
STACK CFI 628dc .cfa: sp 80 +
STACK CFI 628f0 .cfa: x29 80 + x19: .cfa -8 + ^ x20: .cfa -16 + ^ x21: .cfa -24 + ^ x22: .cfa -32 + ^ x23: .cfa -40 + ^ x24: .cfa -48 + ^ x25: .cfa -64 + ^ .ra: .cfa -72 + ^ x29: .cfa -80 + ^
STACK CFI 62a9c .cfa: sp 80 +
STACK CFI 62ab0 .cfa: sp 0 +
STACK CFI INIT 63ee4 124 .cfa: sp 0 +
STACK CFI 63f14 .cfa: sp 32 +
STACK CFI 63f1c .cfa: x29 32 + x19: .cfa -8 + ^ x20: .cfa -16 + ^ .ra: .cfa -24 + ^ x29: .cfa -32 + ^
STACK CFI 63ffc .cfa: sp 32 +
STACK CFI 64004 .cfa: sp 0 +
STACK CFI INIT 64764 320 .cfa: sp 0 +
STACK CFI 64768 .cfa: sp 64 +
STACK CFI 64778 .cfa: x29 64 + x19: .cfa -8 + ^ x20: .cfa -16 + ^ x21: .cfa -24 + ^ x22: .cfa -32 + ^ x23: .cfa -40 + ^ x24: .cfa -48 + ^ .ra: .cfa -56 + ^ x29: .cfa -64 + ^
STACK CFI 647f4 .cfa: sp 64 +
STACK CFI 64804 .cfa: sp 0 +
STACK CFI 64808 .cfa: x29 64 +
STACK CFI 649dc .cfa: sp 64 +
STACK CFI 649ec .cfa: sp 0 +
STACK CFI 649f0 .cfa: x29 64 +
STACK CFI 64a00 .cfa: sp 64 +
STACK CFI 64a10 .cfa: sp 0 +
STACK CFI 64a14 .cfa: x29 64 +
STACK CFI INIT 64a84 a0 .cfa: sp 0 +
STACK CFI 64a88 .cfa: sp 48 +
STACK CFI 64a94 .cfa: x29 48 + x19: .cfa -8 + ^ x20: .cfa -16 + ^ x21: .cfa -24 + ^ x22: .cfa -32 + ^ .ra: .cfa -40 + ^ x29: .cfa -48 + ^
STACK CFI 64b00 .cfa: sp 48 +
STACK CFI 64b0c .cfa: sp 0 +
STACK CFI 64b10 .cfa: sp 48 +
STACK CFI 64b1c .cfa: sp 0 +
STACK CFI 64b20 .cfa: x29 48 +
STACK CFI INIT 659d4 160 .cfa: sp 0 +
STACK CFI 659d8 .cfa: sp 64 +
STACK CFI 659e8 .cfa: x29 64 + x19: .cfa -8 + ^ x20: .cfa -16 + ^ x21: .cfa -24 + ^ x22: .cfa -32 + ^ x23: .cfa -48 + ^ .ra: .cfa -56 + ^ x29: .cfa -64 + ^
STACK CFI 65ae0 .cfa: sp 64 +
STACK CFI 65af0 .cfa: sp 0 +
STACK CFI 65af4 .cfa: x29 64 +
STACK CFI INIT 65b34 214 .cfa: sp 0 +
STACK CFI 65b38 .cfa: sp 128 +
STACK CFI 65b54 .cfa: x29 96 + x19: .cfa -8 + ^ x20: .cfa -16 + ^ x21: .cfa -24 + ^ x22: .cfa -32 + ^ x23: .cfa -40 + ^ x24: .cfa -48 + ^ x25: .cfa -56 + ^ x26: .cfa -64 + ^ x27: .cfa -80 + ^ .ra: .cfa -88 + ^ x29: .cfa -96 + ^
STACK CFI 65cd0 .cfa: sp 128 +
STACK CFI 65cec .cfa: sp 0 +
STACK CFI 65cf0 .cfa: x29 96 +
STACK CFI INIT 679e4 290 .cfa: sp 0 +
STACK CFI 679e8 .cfa: sp 16 +
STACK CFI 679ec .cfa: x29 16 + .ra: .cfa -8 + ^ x29: .cfa -16 + ^
STACK CFI 67a78 .cfa: sp 16 +
STACK CFI 67a7c .cfa: sp 0 +
STACK CFI 67a80 .cfa: x29 16 +
STACK CFI 67ad0 .cfa: sp 16 +
STACK CFI 67ad4 .cfa: sp 0 +
STACK CFI 67ad8 .cfa: x29 16 +
STACK CFI 67c3c .cfa: sp 16 +
STACK CFI 67c40 .cfa: sp 0 +
STACK CFI 67c44 .cfa: x29 16 +
STACK CFI INIT 67c74 158 .cfa: sp 0 +
STACK CFI 67c78 .cfa: sp 112 +
STACK CFI 67c94 .cfa: x29 96 + x19: .cfa -8 + ^ x20: .cfa -16 + ^ x21: .cfa -24 + ^ x22: .cfa -32 + ^ x23: .cfa -40 + ^ x24: .cfa -48 + ^ x25: .cfa -56 + ^ x26: .cfa -64 + ^ x27: .cfa -72 + ^ x28: .cfa -80 + ^ .ra: .cfa -88 + ^ x29: .cfa -96 + ^
STACK CFI 67d7c .cfa: sp 112 +
STACK CFI 67d80 .cfa: x29 96 +
STACK CFI 67d88 .cfa: sp 112 +
STACK CFI 67da4 .cfa: sp 0 +
STACK CFI 67da8 .cfa: x29 96 +
STACK CFI 67dc8 .cfa: sp 112 +
STACK CFI INIT 67dcc e54 .cfa: sp 0 +
STACK CFI 67dd0 .cfa: sp 192 +
STACK CFI 67dec .cfa: x29 96 + x19: .cfa -8 + ^ x20: .cfa -16 + ^ x21: .cfa -24 + ^ x22: .cfa -32 + ^ x23: .cfa -40 + ^ x24: .cfa -48 + ^ x25: .cfa -56 + ^ x26: .cfa -64 + ^ x27: .cfa -72 + ^ x28: .cfa -80 + ^ .ra: .cfa -88 + ^ x29: .cfa -96 + ^
STACK CFI 68b08 .cfa: sp 192 +
STACK CFI 68b24 .cfa: sp 0 +
STACK CFI 68b28 .cfa: x29 96 +
STACK CFI INIT 68c20 1068 .cfa: sp 0 +
STACK CFI 68c24 .cfa: sp 288 +
STACK CFI 68c40 .cfa: x29 96 + x19: .cfa -8 + ^ x20: .cfa -16 + ^ x21: .cfa -24 + ^ x22: .cfa -32 + ^ x23: .cfa -40 + ^ x24: .cfa -48 + ^ x25: .cfa -56 + ^ x26: .cfa -64 + ^ x27: .cfa -72 + ^ x28: .cfa -80 + ^ .ra: .cfa -88 + ^ x29: .cfa -96 + ^
STACK CFI 699d0 .cfa: sp 288 +
STACK CFI 699ec .cfa: sp 0 +
STACK CFI 699f0 .cfa: x29 96 +
STACK CFI INIT 69c88 520 .cfa: sp 0 +
STACK CFI 69c8c .cfa: sp 144 +
STACK CFI 69ca8 .cfa: x29 96 + x19: .cfa -8 + ^ x20: .cfa -16 + ^ x21: .cfa -24 + ^ x22: .cfa -32 + ^ x23: .cfa -40 + ^ x24: .cfa -48 + ^ x25: .cfa -56 + ^ x26: .cfa -64 + ^ x27: .cfa -72 + ^ x28: .cfa -80 + ^ .ra: .cfa -88 + ^ x29: .cfa -96 + ^
STACK CFI 6a184 .cfa: sp 144 +
STACK CFI 6a1a0 .cfa: sp 0 +
STACK CFI 6a1a4 .cfa: x29 96 +
STACK CFI INIT 6ab48 136c .cfa: sp 0 +
STACK CFI 6ab4c .cfa: sp 224 +
STACK CFI 6ab68 .cfa: x29 96 + x19: .cfa -8 + ^ x20: .cfa -16 + ^ x21: .cfa -24 + ^ x22: .cfa -32 + ^ x23: .cfa -40 + ^ x24: .cfa -48 + ^ x25: .cfa -56 + ^ x26: .cfa -64 + ^ x27: .cfa -72 + ^ x28: .cfa -80 + ^ .ra: .cfa -88 + ^ x29: .cfa -96 + ^
STACK CFI 6be90 .cfa: sp 224 +
STACK CFI 6beac .cfa: sp 0 +
STACK CFI 6beb0 .cfa: x29 96 +
STACK CFI INIT 6beb4 1b8 .cfa: sp 0 +
STACK CFI INIT 37f00 6e8 .cfa: sp 0 +
STACK CFI 37f04 .cfa: sp 48 +
STACK CFI 37f10 .cfa: x29 48 + x19: .cfa -8 + ^ x20: .cfa -16 + ^ x28: .cfa -32 + ^ .ra: .cfa -40 + ^ x29: .cfa -48 + ^
STACK CFI 38358 .cfa: sp 48 +
STACK CFI 38364 .cfa: sp 0 +
STACK CFI 38368 .cfa: x29 48 +
STACK CFI INIT 38658 17c .cfa: sp 0 +
STACK CFI 3865c .cfa: sp 80 +
STACK CFI 3866c .cfa: x29 48 + x19: .cfa -8 + ^ x20: .cfa -16 + ^ x21: .cfa -24 + ^ x22: .cfa -32 + ^ .ra: .cfa -40 + ^ x29: .cfa -48 + ^
STACK CFI 38798 .cfa: sp 80 +
STACK CFI 387a8 .cfa: sp 0 +
STACK CFI 387ac .cfa: x29 48 +
STACK CFI INIT 387d4 974 .cfa: sp 0 +
STACK CFI 387d8 .cfa: sp 96 +
STACK CFI 387f0 .cfa: x29 96 + x19: .cfa -8 + ^ x20: .cfa -16 + ^ x21: .cfa -24 + ^ x22: .cfa -32 + ^ x23: .cfa -40 + ^ x24: .cfa -48 + ^ x25: .cfa -56 + ^ x26: .cfa -64 + ^ x27: .cfa -72 + ^ x28: .cfa -80 + ^ .ra: .cfa -88 + ^ x29: .cfa -96 + ^
STACK CFI 38fb8 .cfa: sp 96 +
STACK CFI 38fd0 .cfa: sp 0 +
STACK CFI 38fd4 .cfa: x29 96 +
STACK CFI INIT 39294 14c .cfa: sp 0 +
STACK CFI 39298 .cfa: sp 112 +
STACK CFI 392ac .cfa: x29 40 + x19: .cfa -8 + ^ x20: .cfa -16 + ^ x21: .cfa -24 + ^ .ra: .cfa -32 + ^ x29: .cfa -40 + ^ v8: .cfa -48 + ^
STACK CFI 39374 .cfa: sp 112 +
STACK CFI 39388 .cfa: sp 0 +
STACK CFI 3938c .cfa: x29 40 +
STACK CFI INIT 393e0 13c .cfa: sp 0 +
STACK CFI 393e4 .cfa: sp 112 +
STACK CFI 393f4 .cfa: x29 48 + x19: .cfa -8 + ^ x20: .cfa -16 + ^ x21: .cfa -32 + ^ .ra: .cfa -40 + ^ x29: .cfa -48 + ^
STACK CFI 394b4 .cfa: sp 112 +
STACK CFI 394c4 .cfa: sp 0 +
STACK CFI 394c8 .cfa: x29 48 +
STACK CFI INIT 39524 6c .cfa: sp 0 +
STACK CFI 39528 .cfa: sp 32 +
STACK CFI 39530 .cfa: x29 32 + x19: .cfa -16 + ^ .ra: .cfa -24 + ^ x29: .cfa -32 + ^
STACK CFI 39580 .cfa: sp 32 +
STACK CFI 39588 .cfa: sp 0 +
STACK CFI 3958c .cfa: x29 32 +
STACK CFI INIT 39590 74 .cfa: sp 0 +
STACK CFI 39594 .cfa: sp 32 +
STACK CFI 3959c .cfa: x29 32 + x19: .cfa -16 + ^ .ra: .cfa -24 + ^ x29: .cfa -32 + ^
STACK CFI 395f4 .cfa: sp 32 +
STACK CFI 395fc .cfa: sp 0 +
STACK CFI 39600 .cfa: x29 32 +
STACK CFI INIT 39664 148 .cfa: sp 0 +
STACK CFI 39668 .cfa: sp 96 +
STACK CFI 39678 .cfa: x29 48 + x19: .cfa -8 + ^ x20: .cfa -16 + ^ x21: .cfa -32 + ^ .ra: .cfa -40 + ^ x29: .cfa -48 + ^
STACK CFI 39760 .cfa: sp 96 +
STACK CFI 39770 .cfa: sp 0 +
STACK CFI 39774 .cfa: x29 48 +
STACK CFI INIT 397ac 6c .cfa: sp 0 +
STACK CFI 397b0 .cfa: sp 32 +
STACK CFI 397b8 .cfa: x29 32 + x19: .cfa -16 + ^ .ra: .cfa -24 + ^ x29: .cfa -32 + ^
STACK CFI 39808 .cfa: sp 32 +
STACK CFI 39810 .cfa: sp 0 +
STACK CFI 39814 .cfa: x29 32 +
STACK CFI INIT 39818 74 .cfa: sp 0 +
STACK CFI 3981c .cfa: sp 32 +
STACK CFI 39824 .cfa: x29 32 + x19: .cfa -16 + ^ .ra: .cfa -24 + ^ x29: .cfa -32 + ^
STACK CFI 3987c .cfa: sp 32 +
STACK CFI 39884 .cfa: sp 0 +
STACK CFI 39888 .cfa: x29 32 +
STACK CFI INIT 398d8 6c .cfa: sp 0 +
STACK CFI 398dc .cfa: sp 32 +
STACK CFI 398e4 .cfa: x29 32 + x19: .cfa -16 + ^ .ra: .cfa -24 + ^ x29: .cfa -32 + ^
STACK CFI 39934 .cfa: sp 32 +
STACK CFI 3993c .cfa: sp 0 +
STACK CFI 39940 .cfa: x29 32 +
STACK CFI INIT 3996c 50 .cfa: sp 0 +
STACK CFI 39970 .cfa: sp 32 +
STACK CFI 39978 .cfa: x29 32 + x19: .cfa -8 + ^ x20: .cfa -16 + ^ .ra: .cfa -24 + ^ x29: .cfa -32 + ^
STACK CFI INIT 39a20 194 .cfa: sp 0 +
STACK CFI 39a24 .cfa: sp 144 +
STACK CFI 39a34 .cfa: x29 48 + x19: .cfa -8 + ^ x20: .cfa -16 + ^ x21: .cfa -24 + ^ x22: .cfa -32 + ^ .ra: .cfa -40 + ^ x29: .cfa -48 + ^
STACK CFI 39b34 .cfa: sp 144 +
STACK CFI 39b44 .cfa: sp 0 +
STACK CFI 39b48 .cfa: x29 48 +
STACK CFI INIT 39bb4 1c8 .cfa: sp 0 +
STACK CFI 39bb8 .cfa: sp 112 +
STACK CFI 39bc8 .cfa: x29 48 + x19: .cfa -8 + ^ x20: .cfa -16 + ^ x21: .cfa -24 + ^ x22: .cfa -32 + ^ .ra: .cfa -40 + ^ x29: .cfa -48 + ^
STACK CFI 39d1c .cfa: sp 112 +
STACK CFI 39d2c .cfa: sp 0 +
STACK CFI 39d30 .cfa: x29 48 +
STACK CFI INIT 39f78 4c0 .cfa: sp 0 +
STACK CFI 39f7c .cfa: sp 128 +
STACK CFI 39f98 .cfa: x29 96 + x19: .cfa -8 + ^ x20: .cfa -16 + ^ x21: .cfa -24 + ^ x22: .cfa -32 + ^ x23: .cfa -40 + ^ x24: .cfa -48 + ^ x25: .cfa -56 + ^ x26: .cfa -64 + ^ x27: .cfa -72 + ^ x28: .cfa -80 + ^ .ra: .cfa -88 + ^ x29: .cfa -96 + ^
STACK CFI 3a3e8 .cfa: sp 128 +
STACK CFI 3a404 .cfa: sp 0 +
STACK CFI 3a408 .cfa: x29 96 +
STACK CFI INIT 3b0f4 9c .cfa: sp 0 +
STACK CFI 3b0f8 .cfa: sp 32 +
STACK CFI 3b100 .cfa: x29 32 + x19: .cfa -8 + ^ x20: .cfa -16 + ^ .ra: .cfa -24 + ^ x29: .cfa -32 + ^
STACK CFI 3b14c .cfa: sp 32 +
STACK CFI 3b154 .cfa: sp 0 +
STACK CFI 3b158 .cfa: x29 32 +
STACK CFI 3b170 .cfa: sp 32 +
STACK CFI 3b178 .cfa: sp 0 +
STACK CFI 3b17c .cfa: x29 32 +
STACK CFI INIT 3b390 18c .cfa: sp 0 +
STACK CFI 3b394 .cfa: sp 96 +
STACK CFI 3b3a8 .cfa: x29 64 + x19: .cfa -8 + ^ x20: .cfa -16 + ^ x21: .cfa -24 + ^ x22: .cfa -32 + ^ x23: .cfa -48 + ^ .ra: .cfa -56 + ^ x29: .cfa -64 + ^
STACK CFI 3b4dc .cfa: sp 96 +
STACK CFI 3b4f0 .cfa: sp 0 +
STACK CFI 3b4f4 .cfa: x29 64 +
STACK CFI INIT 3b51c 1b08 .cfa: sp 0 +
STACK CFI 3b520 .cfa: sp 128 +
STACK CFI 3b540 .cfa: x29 96 + x19: .cfa -8 + ^ x20: .cfa -16 + ^ x21: .cfa -24 + ^ x22: .cfa -32 + ^ x23: .cfa -40 + ^ x24: .cfa -48 + ^ x25: .cfa -56 + ^ x26: .cfa -64 + ^ x27: .cfa -72 + ^ x28: .cfa -80 + ^ .ra: .cfa -88 + ^ x29: .cfa -96 + ^ v8: .cfa -104 + ^ v9: .cfa -112 + ^ v10: .cfa -128 + ^
STACK CFI 3ccb4 .cfa: sp 128 +
STACK CFI 3ccd4 .cfa: sp 0 +
STACK CFI 3ccd8 .cfa: x29 96 +
STACK CFI INIT 3d024 134 .cfa: sp 0 +
STACK CFI 3d028 .cfa: sp 80 +
STACK CFI 3d038 .cfa: x29 48 + x19: .cfa -8 + ^ x20: .cfa -16 + ^ x21: .cfa -24 + ^ x22: .cfa -32 + ^ .ra: .cfa -40 + ^ x29: .cfa -48 + ^
STACK CFI 3d13c .cfa: sp 80 +
STACK CFI 3d14c .cfa: sp 0 +
STACK CFI 3d150 .cfa: x29 48 +
STACK CFI INIT 3d158 e04 .cfa: sp 0 +
STACK CFI 3d15c .cfa: sp 128 +
STACK CFI 3d17c .cfa: x29 96 + x19: .cfa -8 + ^ x20: .cfa -16 + ^ x21: .cfa -24 + ^ x22: .cfa -32 + ^ x23: .cfa -40 + ^ x24: .cfa -48 + ^ x25: .cfa -56 + ^ x26: .cfa -64 + ^ x27: .cfa -72 + ^ x28: .cfa -80 + ^ .ra: .cfa -88 + ^ x29: .cfa -96 + ^ v8: .cfa -104 + ^ v9: .cfa -112 + ^ v10: .cfa -128 + ^
STACK CFI 3de84 .cfa: sp 128 +
STACK CFI 3dea4 .cfa: sp 0 +
STACK CFI 3dea8 .cfa: x29 96 +
STACK CFI INIT 3df5c 1c .cfa: sp 0 +
STACK CFI 3df60 .cfa: sp 16 +
STACK CFI 3df64 .cfa: x29 16 + .ra: .cfa -8 + ^ x29: .cfa -16 + ^
STACK CFI 3df6c .cfa: sp 16 +
STACK CFI 3df70 .cfa: sp 0 +
STACK CFI 3df74 .cfa: x29 16 +
STACK CFI INIT 3df78 1ec .cfa: sp 0 +
STACK CFI 3df7c .cfa: sp 208 +
STACK CFI 3df94 .cfa: x29 80 + x19: .cfa -8 + ^ x20: .cfa -16 + ^ x21: .cfa -24 + ^ x22: .cfa -32 + ^ x23: .cfa -40 + ^ x24: .cfa -48 + ^ x25: .cfa -64 + ^ .ra: .cfa -72 + ^ x29: .cfa -80 + ^
STACK CFI 3e0f0 .cfa: sp 208 +
STACK CFI 3e108 .cfa: sp 0 +
STACK CFI 3e10c .cfa: x29 80 +
STACK CFI INIT 3e164 b8 .cfa: sp 0 +
STACK CFI 3e168 .cfa: sp 32 +
STACK CFI 3e170 .cfa: x29 32 + x19: .cfa -16 + ^ .ra: .cfa -24 + ^ x29: .cfa -32 + ^
STACK CFI 3e208 .cfa: sp 32 +
STACK CFI 3e210 .cfa: sp 0 +
STACK CFI 3e214 .cfa: x29 32 +
STACK CFI INIT 3e2c4 148 .cfa: sp 0 +
STACK CFI 3e2c8 .cfa: sp 96 +
STACK CFI 3e2d8 .cfa: x29 48 + x19: .cfa -8 + ^ x20: .cfa -16 + ^ x21: .cfa -32 + ^ .ra: .cfa -40 + ^ x29: .cfa -48 + ^
STACK CFI 3e3c0 .cfa: sp 96 +
STACK CFI 3e3d0 .cfa: sp 0 +
STACK CFI 3e3d4 .cfa: x29 48 +
STACK CFI INIT 3e438 6c .cfa: sp 0 +
STACK CFI 3e43c .cfa: sp 32 +
STACK CFI 3e444 .cfa: x29 32 + x19: .cfa -16 + ^ .ra: .cfa -24 + ^ x29: .cfa -32 + ^
STACK CFI 3e494 .cfa: sp 32 +
STACK CFI 3e49c .cfa: sp 0 +
STACK CFI 3e4a0 .cfa: x29 32 +
STACK CFI INIT 3e4a8 6c .cfa: sp 0 +
STACK CFI 3e4ac .cfa: sp 32 +
STACK CFI 3e4b4 .cfa: x29 32 + x19: .cfa -16 + ^ .ra: .cfa -24 + ^ x29: .cfa -32 + ^
STACK CFI 3e504 .cfa: sp 32 +
STACK CFI 3e50c .cfa: sp 0 +
STACK CFI 3e510 .cfa: x29 32 +
STACK CFI INIT 3eaac 10c .cfa: sp 0 +
STACK CFI 3eab0 .cfa: sp 144 +
STACK CFI 3eabc .cfa: x29 32 + x19: .cfa -8 + ^ x20: .cfa -16 + ^ .ra: .cfa -24 + ^ x29: .cfa -32 + ^
STACK CFI 3eb58 .cfa: sp 144 +
STACK CFI 3eb64 .cfa: sp 0 +
STACK CFI 3eb68 .cfa: x29 32 +
STACK CFI INIT 3ece4 fc .cfa: sp 0 +
STACK CFI 3ece8 .cfa: sp 96 +
STACK CFI 3ecf4 .cfa: x29 32 + x19: .cfa -8 + ^ x20: .cfa -16 + ^ .ra: .cfa -24 + ^ x29: .cfa -32 + ^
STACK CFI 3ed80 .cfa: sp 96 +
STACK CFI 3ed8c .cfa: sp 0 +
STACK CFI 3ed90 .cfa: x29 32 +
STACK CFI INIT 3eee8 10c .cfa: sp 0 +
STACK CFI 3eeec .cfa: sp 144 +
STACK CFI 3eef8 .cfa: x29 32 + x19: .cfa -8 + ^ x20: .cfa -16 + ^ .ra: .cfa -24 + ^ x29: .cfa -32 + ^
STACK CFI 3ef94 .cfa: sp 144 +
STACK CFI 3efa0 .cfa: sp 0 +
STACK CFI 3efa4 .cfa: x29 32 +
STACK CFI INIT 3f300 9c .cfa: sp 0 +
STACK CFI 3f304 .cfa: sp 32 +
STACK CFI 3f30c .cfa: x29 32 + x19: .cfa -8 + ^ x20: .cfa -16 + ^ .ra: .cfa -24 + ^ x29: .cfa -32 + ^
STACK CFI 3f358 .cfa: sp 32 +
STACK CFI 3f360 .cfa: sp 0 +
STACK CFI 3f364 .cfa: x29 32 +
STACK CFI 3f37c .cfa: sp 32 +
STACK CFI 3f384 .cfa: sp 0 +
STACK CFI 3f388 .cfa: x29 32 +
STACK CFI INIT 3f4b4 408 .cfa: sp 0 +
STACK CFI 3f4b8 .cfa: sp 240 +
STACK CFI 3f4d4 .cfa: x29 96 + x19: .cfa -8 + ^ x20: .cfa -16 + ^ x21: .cfa -24 + ^ x22: .cfa -32 + ^ x23: .cfa -40 + ^ x24: .cfa -48 + ^ x25: .cfa -56 + ^ x26: .cfa -64 + ^ x27: .cfa -72 + ^ x28: .cfa -80 + ^ .ra: .cfa -88 + ^ x29: .cfa -96 + ^
STACK CFI 3f7f0 .cfa: sp 240 +
STACK CFI 3f80c .cfa: sp 0 +
STACK CFI 3f810 .cfa: x29 96 +
STACK CFI INIT 3f8e4 32c .cfa: sp 0 +
STACK CFI 3f8e8 .cfa: sp 192 +
STACK CFI 3f8fc .cfa: x29 64 + x19: .cfa -8 + ^ x20: .cfa -16 + ^ x21: .cfa -24 + ^ x22: .cfa -32 + ^ x23: .cfa -40 + ^ x24: .cfa -48 + ^ .ra: .cfa -56 + ^ x29: .cfa -64 + ^
STACK CFI 3fb30 .cfa: sp 192 +
STACK CFI 3fb44 .cfa: sp 0 +
STACK CFI 3fb48 .cfa: x29 64 +
STACK CFI INIT 3fc10 2dc .cfa: sp 0 +
STACK CFI 3fc14 .cfa: sp 208 +
STACK CFI 3fc2c .cfa: x29 80 + x19: .cfa -8 + ^ x20: .cfa -16 + ^ x21: .cfa -24 + ^ x22: .cfa -32 + ^ x23: .cfa -40 + ^ x24: .cfa -48 + ^ x25: .cfa -56 + ^ x26: .cfa -64 + ^ .ra: .cfa -72 + ^ x29: .cfa -80 + ^
STACK CFI 3fe24 .cfa: sp 208 +
STACK CFI 3fe3c .cfa: sp 0 +
STACK CFI 3fe40 .cfa: x29 80 +
STACK CFI INIT 3feec 74 .cfa: sp 0 +
STACK CFI 3fef0 .cfa: sp 48 +
STACK CFI 3fefc .cfa: x29 32 + x19: .cfa -8 + ^ x20: .cfa -16 + ^ .ra: .cfa -24 + ^ x29: .cfa -32 + ^
STACK CFI 3ff48 .cfa: sp 48 +
STACK CFI 3ff54 .cfa: sp 0 +
STACK CFI 3ff58 .cfa: x29 32 +
STACK CFI INIT 3ff60 74 .cfa: sp 0 +
STACK CFI 3ff64 .cfa: sp 48 +
STACK CFI 3ff70 .cfa: x29 32 + x19: .cfa -8 + ^ x20: .cfa -16 + ^ .ra: .cfa -24 + ^ x29: .cfa -32 + ^
STACK CFI 3ffbc .cfa: sp 48 +
STACK CFI 3ffc8 .cfa: sp 0 +
STACK CFI 3ffcc .cfa: x29 32 +
STACK CFI INIT 40104 9c .cfa: sp 0 +
STACK CFI 40108 .cfa: sp 32 +
STACK CFI 40110 .cfa: x29 32 + x19: .cfa -8 + ^ x20: .cfa -16 + ^ .ra: .cfa -24 + ^ x29: .cfa -32 + ^
STACK CFI 4015c .cfa: sp 32 +
STACK CFI 40164 .cfa: sp 0 +
STACK CFI 40168 .cfa: x29 32 +
STACK CFI 40180 .cfa: sp 32 +
STACK CFI 40188 .cfa: sp 0 +
STACK CFI 4018c .cfa: x29 32 +
STACK CFI INIT 402b8 3a4 .cfa: sp 0 +
STACK CFI 402bc .cfa: sp 208 +
STACK CFI 402d4 .cfa: x29 80 + x19: .cfa -8 + ^ x20: .cfa -16 + ^ x21: .cfa -24 + ^ x22: .cfa -32 + ^ x23: .cfa -40 + ^ x24: .cfa -48 + ^ x25: .cfa -64 + ^ .ra: .cfa -72 + ^ x29: .cfa -80 + ^
STACK CFI 405bc .cfa: sp 208 +
STACK CFI 405d4 .cfa: sp 0 +
STACK CFI 405d8 .cfa: x29 80 +
STACK CFI INIT 41a40 17c .cfa: sp 0 +
STACK CFI 41a44 .cfa: sp 80 +
STACK CFI 41a54 .cfa: x29 48 + x19: .cfa -8 + ^ x20: .cfa -16 + ^ x21: .cfa -24 + ^ x22: .cfa -32 + ^ .ra: .cfa -40 + ^ x29: .cfa -48 + ^
STACK CFI 41b80 .cfa: sp 80 +
STACK CFI 41b90 .cfa: sp 0 +
STACK CFI 41b94 .cfa: x29 48 +
STACK CFI INIT 41bbc 99c .cfa: sp 0 +
STACK CFI 41bc0 .cfa: sp 96 +
STACK CFI 41bd8 .cfa: x29 96 + x19: .cfa -8 + ^ x20: .cfa -16 + ^ x21: .cfa -24 + ^ x22: .cfa -32 + ^ x23: .cfa -40 + ^ x24: .cfa -48 + ^ x25: .cfa -56 + ^ x26: .cfa -64 + ^ x27: .cfa -72 + ^ x28: .cfa -80 + ^ .ra: .cfa -88 + ^ x29: .cfa -96 + ^
STACK CFI 423c4 .cfa: sp 96 +
STACK CFI 423dc .cfa: sp 0 +
STACK CFI 423e0 .cfa: x29 96 +
STACK CFI INIT 42558 74 .cfa: sp 0 +
STACK CFI 4255c .cfa: sp 32 +
STACK CFI 42564 .cfa: x29 32 + x19: .cfa -16 + ^ .ra: .cfa -24 + ^ x29: .cfa -32 + ^
STACK CFI 425bc .cfa: sp 32 +
STACK CFI 425c4 .cfa: sp 0 +
STACK CFI 425c8 .cfa: x29 32 +
STACK CFI INIT 425cc 6c .cfa: sp 0 +
STACK CFI 425d0 .cfa: sp 32 +
STACK CFI 425d8 .cfa: x29 32 + x19: .cfa -16 + ^ .ra: .cfa -24 + ^ x29: .cfa -32 + ^
STACK CFI 42628 .cfa: sp 32 +
STACK CFI 42630 .cfa: sp 0 +
STACK CFI 42634 .cfa: x29 32 +
STACK CFI INIT 42638 74 .cfa: sp 0 +
STACK CFI 4263c .cfa: sp 32 +
STACK CFI 42644 .cfa: x29 32 + x19: .cfa -16 + ^ .ra: .cfa -24 + ^ x29: .cfa -32 + ^
STACK CFI 4269c .cfa: sp 32 +
STACK CFI 426a4 .cfa: sp 0 +
STACK CFI 426a8 .cfa: x29 32 +
STACK CFI INIT 42880 9c .cfa: sp 0 +
STACK CFI 42884 .cfa: sp 32 +
STACK CFI 4288c .cfa: x29 32 + x19: .cfa -8 + ^ x20: .cfa -16 + ^ .ra: .cfa -24 + ^ x29: .cfa -32 + ^
STACK CFI 428d8 .cfa: sp 32 +
STACK CFI 428e0 .cfa: sp 0 +
STACK CFI 428e4 .cfa: x29 32 +
STACK CFI 428fc .cfa: sp 32 +
STACK CFI 42904 .cfa: sp 0 +
STACK CFI 42908 .cfa: x29 32 +
STACK CFI INIT 42ae8 17c .cfa: sp 0 +
STACK CFI 42aec .cfa: sp 80 +
STACK CFI 42afc .cfa: x29 48 + x19: .cfa -8 + ^ x20: .cfa -16 + ^ x21: .cfa -24 + ^ x22: .cfa -32 + ^ .ra: .cfa -40 + ^ x29: .cfa -48 + ^
STACK CFI 42c28 .cfa: sp 80 +
STACK CFI 42c38 .cfa: sp 0 +
STACK CFI 42c3c .cfa: x29 48 +
STACK CFI INIT 42c64 88c .cfa: sp 0 +
STACK CFI 42c68 .cfa: sp 96 +
STACK CFI 42c80 .cfa: x29 96 + x19: .cfa -8 + ^ x20: .cfa -16 + ^ x21: .cfa -24 + ^ x22: .cfa -32 + ^ x23: .cfa -40 + ^ x24: .cfa -48 + ^ x25: .cfa -56 + ^ x26: .cfa -64 + ^ x27: .cfa -72 + ^ x28: .cfa -80 + ^ .ra: .cfa -88 + ^ x29: .cfa -96 + ^
STACK CFI 4339c .cfa: sp 96 +
STACK CFI 433b4 .cfa: sp 0 +
STACK CFI 433b8 .cfa: x29 96 +
STACK CFI INIT 434f0 74 .cfa: sp 0 +
STACK CFI 434f4 .cfa: sp 32 +
STACK CFI 434fc .cfa: x29 32 + x19: .cfa -16 + ^ .ra: .cfa -24 + ^ x29: .cfa -32 + ^
STACK CFI 43554 .cfa: sp 32 +
STACK CFI 4355c .cfa: sp 0 +
STACK CFI 43560 .cfa: x29 32 +
STACK CFI INIT 43564 6c .cfa: sp 0 +
STACK CFI 43568 .cfa: sp 32 +
STACK CFI 43570 .cfa: x29 32 + x19: .cfa -16 + ^ .ra: .cfa -24 + ^ x29: .cfa -32 + ^
STACK CFI 435c0 .cfa: sp 32 +
STACK CFI 435c8 .cfa: sp 0 +
STACK CFI 435cc .cfa: x29 32 +
STACK CFI INIT 435d0 74 .cfa: sp 0 +
STACK CFI 435d4 .cfa: sp 32 +
STACK CFI 435dc .cfa: x29 32 + x19: .cfa -16 + ^ .ra: .cfa -24 + ^ x29: .cfa -32 + ^
STACK CFI 43634 .cfa: sp 32 +
STACK CFI 4363c .cfa: sp 0 +
STACK CFI 43640 .cfa: x29 32 +
STACK CFI INIT 43818 9c .cfa: sp 0 +
STACK CFI 4381c .cfa: sp 32 +
STACK CFI 43824 .cfa: x29 32 + x19: .cfa -8 + ^ x20: .cfa -16 + ^ .ra: .cfa -24 + ^ x29: .cfa -32 + ^
STACK CFI 43870 .cfa: sp 32 +
STACK CFI 43878 .cfa: sp 0 +
STACK CFI 4387c .cfa: x29 32 +
STACK CFI 43894 .cfa: sp 32 +
STACK CFI 4389c .cfa: sp 0 +
STACK CFI 438a0 .cfa: x29 32 +
STACK CFI INIT 43a80 18c .cfa: sp 0 +
STACK CFI 43a84 .cfa: sp 96 +
STACK CFI 43a98 .cfa: x29 64 + x19: .cfa -8 + ^ x20: .cfa -16 + ^ x21: .cfa -24 + ^ x22: .cfa -32 + ^ x23: .cfa -48 + ^ .ra: .cfa -56 + ^ x29: .cfa -64 + ^
STACK CFI 43bcc .cfa: sp 96 +
STACK CFI 43be0 .cfa: sp 0 +
STACK CFI 43be4 .cfa: x29 64 +
STACK CFI INIT 43c0c 1558 .cfa: sp 0 +
STACK CFI 43c10 .cfa: sp 96 +
STACK CFI 43c28 .cfa: x29 96 + x19: .cfa -8 + ^ x20: .cfa -16 + ^ x21: .cfa -24 + ^ x22: .cfa -32 + ^ x23: .cfa -40 + ^ x24: .cfa -48 + ^ x25: .cfa -56 + ^ x26: .cfa -64 + ^ x27: .cfa -72 + ^ x28: .cfa -80 + ^ .ra: .cfa -88 + ^ x29: .cfa -96 + ^
STACK CFI 44ea0 .cfa: sp 96 +
STACK CFI 44eb8 .cfa: sp 0 +
STACK CFI 44ebc .cfa: x29 96 +
STACK CFI INIT 45164 14c .cfa: sp 0 +
STACK CFI 45168 .cfa: sp 112 +
STACK CFI 4517c .cfa: x29 40 + x19: .cfa -8 + ^ x20: .cfa -16 + ^ x21: .cfa -24 + ^ .ra: .cfa -32 + ^ x29: .cfa -40 + ^ v8: .cfa -48 + ^
STACK CFI 45244 .cfa: sp 112 +
STACK CFI 45258 .cfa: sp 0 +
STACK CFI 4525c .cfa: x29 40 +
STACK CFI INIT 452b0 6c .cfa: sp 0 +
STACK CFI 452b4 .cfa: sp 32 +
STACK CFI 452bc .cfa: x29 32 + x19: .cfa -16 + ^ .ra: .cfa -24 + ^ x29: .cfa -32 + ^
STACK CFI 4530c .cfa: sp 32 +
STACK CFI 45314 .cfa: sp 0 +
STACK CFI 45318 .cfa: x29 32 +
STACK CFI INIT 4531c 74 .cfa: sp 0 +
STACK CFI 45320 .cfa: sp 32 +
STACK CFI 45328 .cfa: x29 32 + x19: .cfa -16 + ^ .ra: .cfa -24 + ^ x29: .cfa -32 + ^
STACK CFI 45380 .cfa: sp 32 +
STACK CFI 45388 .cfa: sp 0 +
STACK CFI 4538c .cfa: x29 32 +
STACK CFI INIT 453e4 148 .cfa: sp 0 +
STACK CFI 453e8 .cfa: sp 96 +
STACK CFI 453f8 .cfa: x29 48 + x19: .cfa -8 + ^ x20: .cfa -16 + ^ x21: .cfa -32 + ^ .ra: .cfa -40 + ^ x29: .cfa -48 + ^
STACK CFI 454e0 .cfa: sp 96 +
STACK CFI 454f0 .cfa: sp 0 +
STACK CFI 454f4 .cfa: x29 48 +
STACK CFI INIT 4552c 6c .cfa: sp 0 +
STACK CFI 45530 .cfa: sp 32 +
STACK CFI 45538 .cfa: x29 32 + x19: .cfa -16 + ^ .ra: .cfa -24 + ^ x29: .cfa -32 + ^
STACK CFI 45588 .cfa: sp 32 +
STACK CFI 45590 .cfa: sp 0 +
STACK CFI 45594 .cfa: x29 32 +
STACK CFI INIT 45598 74 .cfa: sp 0 +
STACK CFI 4559c .cfa: sp 32 +
STACK CFI 455a4 .cfa: x29 32 + x19: .cfa -16 + ^ .ra: .cfa -24 + ^ x29: .cfa -32 + ^
STACK CFI 455fc .cfa: sp 32 +
STACK CFI 45604 .cfa: sp 0 +
STACK CFI 45608 .cfa: x29 32 +
STACK CFI INIT 4563c 6c .cfa: sp 0 +
STACK CFI 45640 .cfa: sp 32 +
STACK CFI 45648 .cfa: x29 32 + x19: .cfa -16 + ^ .ra: .cfa -24 + ^ x29: .cfa -32 + ^
STACK CFI 45698 .cfa: sp 32 +
STACK CFI 456a0 .cfa: sp 0 +
STACK CFI 456a4 .cfa: x29 32 +
STACK CFI INIT 45c78 9c .cfa: sp 0 +
STACK CFI 45c7c .cfa: sp 32 +
STACK CFI 45c84 .cfa: x29 32 + x19: .cfa -8 + ^ x20: .cfa -16 + ^ .ra: .cfa -24 + ^ x29: .cfa -32 + ^
STACK CFI 45cd0 .cfa: sp 32 +
STACK CFI 45cd8 .cfa: sp 0 +
STACK CFI 45cdc .cfa: x29 32 +
STACK CFI 45cf4 .cfa: sp 32 +
STACK CFI 45cfc .cfa: sp 0 +
STACK CFI 45d00 .cfa: x29 32 +
STACK CFI INIT 45f5c ec .cfa: sp 0 +
STACK CFI 45f60 .cfa: sp 96 +
STACK CFI 45f6c .cfa: x29 32 + x19: .cfa -8 + ^ x20: .cfa -16 + ^ .ra: .cfa -24 + ^ x29: .cfa -32 + ^
STACK CFI 45fe8 .cfa: sp 96 +
STACK CFI 45ff4 .cfa: sp 0 +
STACK CFI 45ff8 .cfa: x29 32 +
STACK CFI INIT 46158 ec .cfa: sp 0 +
STACK CFI 4615c .cfa: sp 96 +
STACK CFI 46168 .cfa: x29 32 + x19: .cfa -8 + ^ x20: .cfa -16 + ^ .ra: .cfa -24 + ^ x29: .cfa -32 + ^
STACK CFI 461e4 .cfa: sp 96 +
STACK CFI 461f0 .cfa: sp 0 +
STACK CFI 461f4 .cfa: x29 32 +
STACK CFI INIT 46354 ec .cfa: sp 0 +
STACK CFI 46358 .cfa: sp 96 +
STACK CFI 46364 .cfa: x29 32 + x19: .cfa -8 + ^ x20: .cfa -16 + ^ .ra: .cfa -24 + ^ x29: .cfa -32 + ^
STACK CFI 463e0 .cfa: sp 96 +
STACK CFI 463ec .cfa: sp 0 +
STACK CFI 463f0 .cfa: x29 32 +
STACK CFI INIT 464fc 18c .cfa: sp 0 +
STACK CFI 46500 .cfa: sp 96 +
STACK CFI 46514 .cfa: x29 64 + x19: .cfa -8 + ^ x20: .cfa -16 + ^ x21: .cfa -24 + ^ x22: .cfa -32 + ^ x23: .cfa -48 + ^ .ra: .cfa -56 + ^ x29: .cfa -64 + ^
STACK CFI 46648 .cfa: sp 96 +
STACK CFI 4665c .cfa: sp 0 +
STACK CFI 46660 .cfa: x29 64 +
STACK CFI INIT 46688 1320 .cfa: sp 0 +
STACK CFI 4668c .cfa: sp 144 +
STACK CFI 466b0 .cfa: x29 96 + x19: .cfa -8 + ^ x20: .cfa -16 + ^ x21: .cfa -24 + ^ x22: .cfa -32 + ^ x23: .cfa -40 + ^ x24: .cfa -48 + ^ x25: .cfa -56 + ^ x26: .cfa -64 + ^ x27: .cfa -72 + ^ x28: .cfa -80 + ^ .ra: .cfa -88 + ^ x29: .cfa -96 + ^ v8: .cfa -104 + ^ v9: .cfa -112 + ^ v10: .cfa -120 + ^ v11: .cfa -128 + ^ v12: .cfa -144 + ^
STACK CFI 477fc .cfa: sp 144 +
STACK CFI 47820 .cfa: sp 0 +
STACK CFI 47824 .cfa: x29 96 +
STACK CFI INIT 479a8 6c .cfa: sp 0 +
STACK CFI 479ac .cfa: sp 32 +
STACK CFI 479b4 .cfa: x29 32 + x19: .cfa -16 + ^ .ra: .cfa -24 + ^ x29: .cfa -32 + ^
STACK CFI 47a04 .cfa: sp 32 +
STACK CFI 47a0c .cfa: sp 0 +
STACK CFI 47a10 .cfa: x29 32 +
STACK CFI INIT 47a14 74 .cfa: sp 0 +
STACK CFI 47a18 .cfa: sp 32 +
STACK CFI 47a20 .cfa: x29 32 + x19: .cfa -16 + ^ .ra: .cfa -24 + ^ x29: .cfa -32 + ^
STACK CFI 47a78 .cfa: sp 32 +
STACK CFI 47a80 .cfa: sp 0 +
STACK CFI 47a84 .cfa: x29 32 +
STACK CFI INIT 47adc 148 .cfa: sp 0 +
STACK CFI 47ae0 .cfa: sp 96 +
STACK CFI 47af0 .cfa: x29 48 + x19: .cfa -8 + ^ x20: .cfa -16 + ^ x21: .cfa -32 + ^ .ra: .cfa -40 + ^ x29: .cfa -48 + ^
STACK CFI 47bd8 .cfa: sp 96 +
STACK CFI 47be8 .cfa: sp 0 +
STACK CFI 47bec .cfa: x29 48 +
STACK CFI INIT 47c24 6c .cfa: sp 0 +
STACK CFI 47c28 .cfa: sp 32 +
STACK CFI 47c30 .cfa: x29 32 + x19: .cfa -16 + ^ .ra: .cfa -24 + ^ x29: .cfa -32 + ^
STACK CFI 47c80 .cfa: sp 32 +
STACK CFI 47c88 .cfa: sp 0 +
STACK CFI 47c8c .cfa: x29 32 +
STACK CFI INIT 47c90 74 .cfa: sp 0 +
STACK CFI 47c94 .cfa: sp 32 +
STACK CFI 47c9c .cfa: x29 32 + x19: .cfa -16 + ^ .ra: .cfa -24 + ^ x29: .cfa -32 + ^
STACK CFI 47cf4 .cfa: sp 32 +
STACK CFI 47cfc .cfa: sp 0 +
STACK CFI 47d00 .cfa: x29 32 +
STACK CFI INIT 47d34 6c .cfa: sp 0 +
STACK CFI 47d38 .cfa: sp 32 +
STACK CFI 47d40 .cfa: x29 32 + x19: .cfa -16 + ^ .ra: .cfa -24 + ^ x29: .cfa -32 + ^
STACK CFI 47d90 .cfa: sp 32 +
STACK CFI 47d98 .cfa: sp 0 +
STACK CFI 47d9c .cfa: x29 32 +
STACK CFI INIT 484d8 9c .cfa: sp 0 +
STACK CFI 484dc .cfa: sp 32 +
STACK CFI 484e4 .cfa: x29 32 + x19: .cfa -8 + ^ x20: .cfa -16 + ^ .ra: .cfa -24 + ^ x29: .cfa -32 + ^
STACK CFI 48530 .cfa: sp 32 +
STACK CFI 48538 .cfa: sp 0 +
STACK CFI 4853c .cfa: x29 32 +
STACK CFI 48554 .cfa: sp 32 +
STACK CFI 4855c .cfa: sp 0 +
STACK CFI 48560 .cfa: x29 32 +
STACK CFI INIT 48740 18c .cfa: sp 0 +
STACK CFI 48744 .cfa: sp 96 +
STACK CFI 48758 .cfa: x29 64 + x19: .cfa -8 + ^ x20: .cfa -16 + ^ x21: .cfa -24 + ^ x22: .cfa -32 + ^ x23: .cfa -48 + ^ .ra: .cfa -56 + ^ x29: .cfa -64 + ^
STACK CFI 4888c .cfa: sp 96 +
STACK CFI 488a0 .cfa: sp 0 +
STACK CFI 488a4 .cfa: x29 64 +
STACK CFI INIT 488cc c10 .cfa: sp 0 +
STACK CFI 488d0 .cfa: sp 400 +
STACK CFI 488e4 .cfa: x29 64 + x19: .cfa -8 + ^ x20: .cfa -16 + ^ x21: .cfa -24 + ^ x22: .cfa -32 + ^ x23: .cfa -40 + ^ x28: .cfa -48 + ^ .ra: .cfa -56 + ^ x29: .cfa -64 + ^
STACK CFI 49348 .cfa: sp 400 +
STACK CFI 4935c .cfa: sp 0 +
STACK CFI 49360 .cfa: x29 64 +
STACK CFI INIT 494dc 6c .cfa: sp 0 +
STACK CFI 494e0 .cfa: sp 32 +
STACK CFI 494e8 .cfa: x29 32 + x19: .cfa -16 + ^ .ra: .cfa -24 + ^ x29: .cfa -32 + ^
STACK CFI 49538 .cfa: sp 32 +
STACK CFI 49540 .cfa: sp 0 +
STACK CFI 49544 .cfa: x29 32 +
STACK CFI INIT 49548 74 .cfa: sp 0 +
STACK CFI 4954c .cfa: sp 32 +
STACK CFI 49554 .cfa: x29 32 + x19: .cfa -16 + ^ .ra: .cfa -24 + ^ x29: .cfa -32 + ^
STACK CFI 495ac .cfa: sp 32 +
STACK CFI 495b4 .cfa: sp 0 +
STACK CFI 495b8 .cfa: x29 32 +
STACK CFI INIT 49610 148 .cfa: sp 0 +
STACK CFI 49614 .cfa: sp 96 +
STACK CFI 49624 .cfa: x29 48 + x19: .cfa -8 + ^ x20: .cfa -16 + ^ x21: .cfa -32 + ^ .ra: .cfa -40 + ^ x29: .cfa -48 + ^
STACK CFI 4970c .cfa: sp 96 +
STACK CFI 4971c .cfa: sp 0 +
STACK CFI 49720 .cfa: x29 48 +
STACK CFI INIT 49758 6c .cfa: sp 0 +
STACK CFI 4975c .cfa: sp 32 +
STACK CFI 49764 .cfa: x29 32 + x19: .cfa -16 + ^ .ra: .cfa -24 + ^ x29: .cfa -32 + ^
STACK CFI 497b4 .cfa: sp 32 +
STACK CFI 497bc .cfa: sp 0 +
STACK CFI 497c0 .cfa: x29 32 +
STACK CFI INIT 497c4 74 .cfa: sp 0 +
STACK CFI 497c8 .cfa: sp 32 +
STACK CFI 497d0 .cfa: x29 32 + x19: .cfa -16 + ^ .ra: .cfa -24 + ^ x29: .cfa -32 + ^
STACK CFI 49828 .cfa: sp 32 +
STACK CFI 49830 .cfa: sp 0 +
STACK CFI 49834 .cfa: x29 32 +
STACK CFI INIT 49868 6c .cfa: sp 0 +
STACK CFI 4986c .cfa: sp 32 +
STACK CFI 49874 .cfa: x29 32 + x19: .cfa -16 + ^ .ra: .cfa -24 + ^ x29: .cfa -32 + ^
STACK CFI 498c4 .cfa: sp 32 +
STACK CFI 498cc .cfa: sp 0 +
STACK CFI 498d0 .cfa: x29 32 +
STACK CFI INIT 49c3c 484 .cfa: sp 0 +
STACK CFI 49c40 .cfa: sp 240 +
STACK CFI 49c50 .cfa: x29 48 + x19: .cfa -8 + ^ x20: .cfa -16 + ^ x21: .cfa -24 + ^ x22: .cfa -32 + ^ .ra: .cfa -40 + ^ x29: .cfa -48 + ^
STACK CFI 4a048 .cfa: sp 240 +
STACK CFI 4a058 .cfa: sp 0 +
STACK CFI 4a05c .cfa: x29 48 +
STACK CFI INIT 4a154 ec .cfa: sp 0 +
STACK CFI 4a158 .cfa: sp 80 +
STACK CFI 4a168 .cfa: x29 48 + x19: .cfa -8 + ^ x20: .cfa -16 + ^ x21: .cfa -32 + ^ .ra: .cfa -40 + ^ x29: .cfa -48 + ^
STACK CFI 4a1fc .cfa: sp 80 +
STACK CFI 4a20c .cfa: sp 0 +
STACK CFI 4a210 .cfa: x29 48 +
STACK CFI INIT 4a2bc ec .cfa: sp 0 +
STACK CFI 4a2c0 .cfa: sp 80 +
STACK CFI 4a2d0 .cfa: x29 48 + x19: .cfa -8 + ^ x20: .cfa -16 + ^ x21: .cfa -32 + ^ .ra: .cfa -40 + ^ x29: .cfa -48 + ^
STACK CFI 4a364 .cfa: sp 80 +
STACK CFI 4a374 .cfa: sp 0 +
STACK CFI 4a378 .cfa: x29 48 +
STACK CFI INIT 4a590 9c .cfa: sp 0 +
STACK CFI 4a594 .cfa: sp 32 +
STACK CFI 4a59c .cfa: x29 32 + x19: .cfa -8 + ^ x20: .cfa -16 + ^ .ra: .cfa -24 + ^ x29: .cfa -32 + ^
STACK CFI 4a5e8 .cfa: sp 32 +
STACK CFI 4a5f0 .cfa: sp 0 +
STACK CFI 4a5f4 .cfa: x29 32 +
STACK CFI 4a60c .cfa: sp 32 +
STACK CFI 4a614 .cfa: sp 0 +
STACK CFI 4a618 .cfa: x29 32 +
STACK CFI INIT 4a7f8 12c .cfa: sp 0 +
STACK CFI 4a7fc .cfa: sp 64 +
STACK CFI 4a80c .cfa: x29 48 + x19: .cfa -8 + ^ x20: .cfa -16 + ^ x21: .cfa -24 + ^ x22: .cfa -32 + ^ .ra: .cfa -40 + ^ x29: .cfa -48 + ^
STACK CFI 4a8e8 .cfa: sp 64 +
STACK CFI 4a8f8 .cfa: sp 0 +
STACK CFI 4a8fc .cfa: x29 48 +
STACK CFI INIT 4a924 dc .cfa: sp 0 +
STACK CFI 4a928 .cfa: sp 80 +
STACK CFI 4a93c .cfa: x29 64 + x19: .cfa -8 + ^ x20: .cfa -16 + ^ x21: .cfa -24 + ^ x22: .cfa -32 + ^ x23: .cfa -48 + ^ .ra: .cfa -56 + ^ x29: .cfa -64 + ^
STACK CFI 4a9b8 .cfa: sp 80 +
STACK CFI 4a9cc .cfa: sp 0 +
STACK CFI 4a9d0 .cfa: x29 64 +
STACK CFI INIT 4aa00 20 .cfa: sp 0 +
STACK CFI 4aa04 .cfa: sp 16 +
STACK CFI 4aa08 .cfa: x29 16 + .ra: .cfa -8 + ^ x29: .cfa -16 + ^
STACK CFI 4aa14 .cfa: sp 16 +
STACK CFI 4aa18 .cfa: sp 0 +
STACK CFI 4aa1c .cfa: x29 16 +
STACK CFI INIT 4aa20 f0 .cfa: sp 0 +
STACK CFI 4aa24 .cfa: sp 96 +
STACK CFI 4aa3c .cfa: x29 56 + x19: .cfa -8 + ^ x20: .cfa -16 + ^ x21: .cfa -24 + ^ x22: .cfa -32 + ^ x23: .cfa -40 + ^ .ra: .cfa -48 + ^ x29: .cfa -56 + ^ v8: .cfa -64 + ^
STACK CFI 4aac4 .cfa: sp 96 +
STACK CFI 4aadc .cfa: sp 0 +
STACK CFI 4aae0 .cfa: x29 56 +
STACK CFI INIT 4ab10 268 .cfa: sp 0 +
STACK CFI 4ab14 .cfa: sp 96 +
STACK CFI 4ab2c .cfa: x29 96 + x19: .cfa -8 + ^ x20: .cfa -16 + ^ x21: .cfa -24 + ^ x22: .cfa -32 + ^ x23: .cfa -40 + ^ x24: .cfa -48 + ^ x25: .cfa -56 + ^ x26: .cfa -64 + ^ x27: .cfa -72 + ^ x28: .cfa -80 + ^ .ra: .cfa -88 + ^ x29: .cfa -96 + ^
STACK CFI 4ad10 .cfa: sp 96 +
STACK CFI 4ad28 .cfa: sp 0 +
STACK CFI 4ad2c .cfa: x29 96 +
STACK CFI INIT 4ad78 d8 .cfa: sp 0 +
STACK CFI 4ad7c .cfa: sp 80 +
STACK CFI 4ad90 .cfa: x29 64 + x19: .cfa -8 + ^ x20: .cfa -16 + ^ x21: .cfa -24 + ^ x22: .cfa -32 + ^ x23: .cfa -48 + ^ .ra: .cfa -56 + ^ x29: .cfa -64 + ^
STACK CFI 4ae08 .cfa: sp 80 +
STACK CFI 4ae1c .cfa: sp 0 +
STACK CFI 4ae20 .cfa: x29 64 +
STACK CFI INIT 4ae50 27c .cfa: sp 0 +
STACK CFI 4ae54 .cfa: sp 96 +
STACK CFI 4ae6c .cfa: x29 96 + x19: .cfa -8 + ^ x20: .cfa -16 + ^ x21: .cfa -24 + ^ x22: .cfa -32 + ^ x23: .cfa -40 + ^ x24: .cfa -48 + ^ x25: .cfa -56 + ^ x26: .cfa -64 + ^ x27: .cfa -72 + ^ x28: .cfa -80 + ^ .ra: .cfa -88 + ^ x29: .cfa -96 + ^
STACK CFI 4b024 .cfa: sp 96 +
STACK CFI 4b03c .cfa: sp 0 +
STACK CFI 4b040 .cfa: x29 96 +
STACK CFI INIT 4b0cc 4c .cfa: sp 0 +
STACK CFI 4b0d0 .cfa: sp 32 +
STACK CFI 4b0d8 .cfa: x29 32 + x19: .cfa -16 + ^ .ra: .cfa -24 + ^ x29: .cfa -32 + ^
STACK CFI 4b108 .cfa: sp 32 +
STACK CFI 4b110 .cfa: sp 0 +
STACK CFI 4b114 .cfa: x29 32 +
STACK CFI INIT 4b118 54 .cfa: sp 0 +
STACK CFI 4b11c .cfa: sp 32 +
STACK CFI 4b124 .cfa: x29 32 + x19: .cfa -16 + ^ .ra: .cfa -24 + ^ x29: .cfa -32 + ^
STACK CFI 4b15c .cfa: sp 32 +
STACK CFI 4b164 .cfa: sp 0 +
STACK CFI 4b168 .cfa: x29 32 +
STACK CFI INIT 4b328 634 .cfa: sp 0 +
STACK CFI 4b32c .cfa: sp 224 +
STACK CFI 4b348 .cfa: x29 96 + x19: .cfa -8 + ^ x20: .cfa -16 + ^ x21: .cfa -24 + ^ x22: .cfa -32 + ^ x23: .cfa -40 + ^ x24: .cfa -48 + ^ x25: .cfa -56 + ^ x26: .cfa -64 + ^ x27: .cfa -80 + ^ .ra: .cfa -88 + ^ x29: .cfa -96 + ^
STACK CFI 4b478 .cfa: sp 224 +
STACK CFI 4b494 .cfa: sp 0 +
STACK CFI 4b498 .cfa: x29 96 +
STACK CFI 4b81c .cfa: sp 224 +
STACK CFI 4b838 .cfa: sp 0 +
STACK CFI 4b83c .cfa: x29 96 +
STACK CFI INIT 4b978 380 .cfa: sp 0 +
STACK CFI 4b97c .cfa: sp 240 +
STACK CFI 4b990 .cfa: x29 64 + x19: .cfa -8 + ^ x20: .cfa -16 + ^ x21: .cfa -24 + ^ x22: .cfa -32 + ^ x23: .cfa -40 + ^ x24: .cfa -48 + ^ .ra: .cfa -56 + ^ x29: .cfa -64 + ^
STACK CFI 4bbcc .cfa: sp 240 +
STACK CFI 4bbe0 .cfa: sp 0 +
STACK CFI 4bbe4 .cfa: x29 64 +
STACK CFI INIT 4bd48 74 .cfa: sp 0 +
STACK CFI 4bd4c .cfa: sp 48 +
STACK CFI 4bd58 .cfa: x29 32 + x19: .cfa -8 + ^ x20: .cfa -16 + ^ .ra: .cfa -24 + ^ x29: .cfa -32 + ^
STACK CFI 4bda4 .cfa: sp 48 +
STACK CFI 4bdb0 .cfa: sp 0 +
STACK CFI 4bdb4 .cfa: x29 32 +
STACK CFI INIT 4bf5c 1f4 .cfa: sp 0 +
STACK CFI 4bf60 .cfa: sp 128 +
STACK CFI 4bf7c .cfa: x29 96 + x19: .cfa -8 + ^ x20: .cfa -16 + ^ x21: .cfa -24 + ^ x22: .cfa -32 + ^ x23: .cfa -40 + ^ x24: .cfa -48 + ^ x25: .cfa -56 + ^ x26: .cfa -64 + ^ x27: .cfa -72 + ^ x28: .cfa -80 + ^ .ra: .cfa -88 + ^ x29: .cfa -96 + ^
STACK CFI 4c108 .cfa: sp 128 +
STACK CFI 4c124 .cfa: sp 0 +
STACK CFI 4c128 .cfa: x29 96 +
STACK CFI INIT 4c37c 154 .cfa: sp 0 +
STACK CFI 4c380 .cfa: sp 384 +
STACK CFI 4c394 .cfa: x29 64 + x19: .cfa -8 + ^ x20: .cfa -16 + ^ x21: .cfa -24 + ^ x22: .cfa -32 + ^ x23: .cfa -40 + ^ x28: .cfa -48 + ^ .ra: .cfa -56 + ^ x29: .cfa -64 + ^
STACK CFI 4c478 .cfa: sp 384 +
STACK CFI 4c48c .cfa: sp 0 +
STACK CFI 4c490 .cfa: x29 64 +
STACK CFI INIT 4c4d0 12c .cfa: sp 0 +
STACK CFI 4c4d4 .cfa: sp 80 +
STACK CFI 4c4e8 .cfa: x29 80 + x19: .cfa -8 + ^ x20: .cfa -16 + ^ x21: .cfa -24 + ^ x22: .cfa -32 + ^ x23: .cfa -40 + ^ x24: .cfa -48 + ^ x25: .cfa -56 + ^ x26: .cfa -64 + ^ .ra: .cfa -72 + ^ x29: .cfa -80 + ^
STACK CFI 4c5b0 .cfa: sp 80 +
STACK CFI 4c5c4 .cfa: sp 0 +
STACK CFI 4c5c8 .cfa: x29 80 +
STACK CFI INIT 4c6a0 1a4 .cfa: sp 0 +
STACK CFI 4c6a4 .cfa: sp 112 +
STACK CFI 4c6bc .cfa: x29 80 + x19: .cfa -8 + ^ x20: .cfa -16 + ^ x21: .cfa -24 + ^ x22: .cfa -32 + ^ x23: .cfa -40 + ^ x24: .cfa -48 + ^ x25: .cfa -56 + ^ x26: .cfa -64 + ^ .ra: .cfa -72 + ^ x29: .cfa -80 + ^
STACK CFI 4c7ac .cfa: sp 112 +
STACK CFI 4c7c4 .cfa: sp 0 +
STACK CFI 4c7c8 .cfa: x29 80 +
STACK CFI INIT 4c844 1dc .cfa: sp 0 +
STACK CFI 4c848 .cfa: sp 128 +
STACK CFI 4c864 .cfa: x29 96 + x19: .cfa -8 + ^ x20: .cfa -16 + ^ x21: .cfa -24 + ^ x22: .cfa -32 + ^ x23: .cfa -40 + ^ x24: .cfa -48 + ^ x25: .cfa -56 + ^ x26: .cfa -64 + ^ x27: .cfa -80 + ^ .ra: .cfa -88 + ^ x29: .cfa -96 + ^
STACK CFI 4c9d0 .cfa: sp 128 +
STACK CFI 4c9ec .cfa: sp 0 +
STACK CFI 4c9f0 .cfa: x29 96 +
STACK CFI INIT 4ca20 178 .cfa: sp 0 +
STACK CFI 4ca24 .cfa: sp 80 +
STACK CFI 4ca38 .cfa: x29 80 + x19: .cfa -8 + ^ x20: .cfa -16 + ^ x21: .cfa -24 + ^ x22: .cfa -32 + ^ x23: .cfa -40 + ^ x24: .cfa -48 + ^ x25: .cfa -64 + ^ .ra: .cfa -72 + ^ x29: .cfa -80 + ^
STACK CFI 4cb64 .cfa: sp 80 +
STACK CFI 4cb78 .cfa: sp 0 +
STACK CFI 4cb7c .cfa: x29 80 +
STACK CFI INIT 4cce0 168 .cfa: sp 0 +
STACK CFI 4cce4 .cfa: sp 384 +
STACK CFI 4ccf8 .cfa: x29 64 + x19: .cfa -8 + ^ x20: .cfa -16 + ^ x21: .cfa -24 + ^ x22: .cfa -32 + ^ x23: .cfa -40 + ^ x28: .cfa -48 + ^ .ra: .cfa -56 + ^ x29: .cfa -64 + ^
STACK CFI 4cdf0 .cfa: sp 384 +
STACK CFI 4ce04 .cfa: sp 0 +
STACK CFI 4ce08 .cfa: x29 64 +
STACK CFI INIT 4ce60 228 .cfa: sp 0 +
STACK CFI 4ce64 .cfa: sp 128 +
STACK CFI 4ce7c .cfa: x29 80 + x19: .cfa -8 + ^ x20: .cfa -16 + ^ x21: .cfa -24 + ^ x22: .cfa -32 + ^ x23: .cfa -40 + ^ x24: .cfa -48 + ^ x25: .cfa -64 + ^ .ra: .cfa -72 + ^ x29: .cfa -80 + ^
STACK CFI 4d018 .cfa: sp 128 +
STACK CFI 4d030 .cfa: sp 0 +
STACK CFI 4d034 .cfa: x29 80 +
STACK CFI INIT 4d6fc 2530 .cfa: sp 0 +
STACK CFI 4d700 .cfa: sp 128 +
STACK CFI 4d720 .cfa: x29 96 + x19: .cfa -8 + ^ x20: .cfa -16 + ^ x21: .cfa -24 + ^ x22: .cfa -32 + ^ x23: .cfa -40 + ^ x24: .cfa -48 + ^ x25: .cfa -56 + ^ x26: .cfa -64 + ^ x27: .cfa -72 + ^ x28: .cfa -80 + ^ .ra: .cfa -88 + ^ x29: .cfa -96 + ^ v8: .cfa -104 + ^ v9: .cfa -112 + ^ v10: .cfa -128 + ^
STACK CFI 4f904 .cfa: sp 128 +
STACK CFI 4f924 .cfa: sp 0 +
STACK CFI 4f928 .cfa: x29 96 +
STACK CFI INIT 4fda4 534 .cfa: sp 0 +
STACK CFI 4fda8 .cfa: sp 224 +
STACK CFI 4fdc4 .cfa: x29 96 + x19: .cfa -8 + ^ x20: .cfa -16 + ^ x21: .cfa -24 + ^ x22: .cfa -32 + ^ x23: .cfa -40 + ^ x24: .cfa -48 + ^ x25: .cfa -56 + ^ x26: .cfa -64 + ^ x27: .cfa -80 + ^ .ra: .cfa -88 + ^ x29: .cfa -96 + ^
STACK CFI 500d8 .cfa: sp 224 +
STACK CFI 500f4 .cfa: sp 0 +
STACK CFI 500f8 .cfa: x29 96 +
STACK CFI 501c4 .cfa: sp 224 +
STACK CFI 501e0 .cfa: sp 0 +
STACK CFI 501e4 .cfa: x29 96 +
STACK CFI INIT 502f4 9c0 .cfa: sp 0 +
STACK CFI 502f8 .cfa: sp 304 +
STACK CFI 50314 .cfa: x29 96 + x19: .cfa -8 + ^ x20: .cfa -16 + ^ x21: .cfa -24 + ^ x22: .cfa -32 + ^ x23: .cfa -40 + ^ x24: .cfa -48 + ^ x25: .cfa -56 + ^ x26: .cfa -64 + ^ x28: .cfa -80 + ^ .ra: .cfa -88 + ^ x29: .cfa -96 + ^
STACK CFI 50a08 .cfa: sp 304 +
STACK CFI 50a24 .cfa: sp 0 +
STACK CFI 50a28 .cfa: x29 96 +
STACK CFI INIT 50cb8 248 .cfa: sp 0 +
STACK CFI 50cbc .cfa: sp 144 +
STACK CFI 50cd0 .cfa: x29 64 + x19: .cfa -8 + ^ x20: .cfa -16 + ^ x21: .cfa -24 + ^ x22: .cfa -32 + ^ x23: .cfa -40 + ^ x24: .cfa -48 + ^ .ra: .cfa -56 + ^ x29: .cfa -64 + ^
STACK CFI 50e84 .cfa: sp 144 +
STACK CFI 50e98 .cfa: sp 0 +
STACK CFI 50e9c .cfa: x29 64 +
STACK CFI INIT 50f48 1a8 .cfa: sp 0 +
STACK CFI 50f4c .cfa: sp 96 +
STACK CFI 50f60 .cfa: x29 64 + x19: .cfa -8 + ^ x20: .cfa -16 + ^ x21: .cfa -24 + ^ x22: .cfa -32 + ^ x23: .cfa -48 + ^ .ra: .cfa -56 + ^ x29: .cfa -64 + ^
STACK CFI 510a8 .cfa: sp 96 +
STACK CFI 510bc .cfa: sp 0 +
STACK CFI 510c0 .cfa: x29 64 +
STACK CFI INIT 510f0 a8 .cfa: sp 0 +
STACK CFI 510f4 .cfa: sp 32 +
STACK CFI 510fc .cfa: x29 32 + x19: .cfa -16 + ^ .ra: .cfa -24 + ^ x29: .cfa -32 + ^
STACK CFI 51130 .cfa: sp 32 +
STACK CFI 51138 .cfa: sp 0 +
STACK CFI 5113c .cfa: x29 32 +
STACK CFI 51140 .cfa: sp 32 +
STACK CFI 51148 .cfa: sp 0 +
STACK CFI 5114c .cfa: x29 32 +
STACK CFI INIT 5124c 638 .cfa: sp 0 +
STACK CFI 51250 .cfa: sp 288 +
STACK CFI 5126c .cfa: x29 96 + x19: .cfa -8 + ^ x20: .cfa -16 + ^ x21: .cfa -24 + ^ x22: .cfa -32 + ^ x23: .cfa -40 + ^ x24: .cfa -48 + ^ x25: .cfa -56 + ^ x26: .cfa -64 + ^ x27: .cfa -72 + ^ x28: .cfa -80 + ^ .ra: .cfa -88 + ^ x29: .cfa -96 + ^
STACK CFI 51488 .cfa: sp 288 +
STACK CFI 514a4 .cfa: sp 0 +
STACK CFI 514a8 .cfa: x29 96 +
STACK CFI INIT 51884 2eb4 .cfa: sp 0 +
STACK CFI 51888 .cfa: sp 144 +
STACK CFI 518ac .cfa: x29 96 + x19: .cfa -8 + ^ x20: .cfa -16 + ^ x21: .cfa -24 + ^ x22: .cfa -32 + ^ x23: .cfa -40 + ^ x24: .cfa -48 + ^ x25: .cfa -56 + ^ x26: .cfa -64 + ^ x27: .cfa -72 + ^ x28: .cfa -80 + ^ .ra: .cfa -88 + ^ x29: .cfa -96 + ^ v8: .cfa -104 + ^ v9: .cfa -112 + ^ v10: .cfa -120 + ^ v11: .cfa -128 + ^ v12: .cfa -144 + ^
STACK CFI 5447c .cfa: sp 144 +
STACK CFI 544a0 .cfa: sp 0 +
STACK CFI 544a4 .cfa: x29 96 +
STACK CFI INIT 54738 64c .cfa: sp 0 +
STACK CFI 5473c .cfa: sp 224 +
STACK CFI 54758 .cfa: x29 96 + x19: .cfa -8 + ^ x20: .cfa -16 + ^ x21: .cfa -24 + ^ x22: .cfa -32 + ^ x23: .cfa -40 + ^ x24: .cfa -48 + ^ x25: .cfa -56 + ^ x26: .cfa -64 + ^ x27: .cfa -72 + ^ x28: .cfa -80 + ^ .ra: .cfa -88 + ^ x29: .cfa -96 + ^
STACK CFI 54c14 .cfa: sp 224 +
STACK CFI 54c30 .cfa: sp 0 +
STACK CFI 54c34 .cfa: x29 96 +
STACK CFI INIT 54d84 20 .cfa: sp 0 +
STACK CFI 54d88 .cfa: sp 16 +
STACK CFI 54d8c .cfa: x29 16 + .ra: .cfa -8 + ^ x29: .cfa -16 + ^
STACK CFI 54d98 .cfa: sp 16 +
STACK CFI 54d9c .cfa: sp 0 +
STACK CFI 54da0 .cfa: x29 16 +
STACK CFI INIT 54de4 50 .cfa: sp 0 +
STACK CFI 54de8 .cfa: sp 32 +
STACK CFI 54df0 .cfa: x29 32 + x19: .cfa -8 + ^ x20: .cfa -16 + ^ .ra: .cfa -24 + ^ x29: .cfa -32 + ^
STACK CFI INIT 54f10 a8 .cfa: sp 0 +
STACK CFI 54f14 .cfa: sp 32 +
STACK CFI 54f1c .cfa: x29 32 + x19: .cfa -16 + ^ .ra: .cfa -24 + ^ x29: .cfa -32 + ^
STACK CFI 54f50 .cfa: sp 32 +
STACK CFI 54f58 .cfa: sp 0 +
STACK CFI 54f5c .cfa: x29 32 +
STACK CFI 54f60 .cfa: sp 32 +
STACK CFI 54f68 .cfa: sp 0 +
STACK CFI 54f6c .cfa: x29 32 +
STACK CFI INIT 54fb8 104 .cfa: sp 0 +
STACK CFI 54fbc .cfa: sp 112 +
STACK CFI 54fcc .cfa: x29 48 + x19: .cfa -8 + ^ x20: .cfa -16 + ^ x21: .cfa -32 + ^ .ra: .cfa -40 + ^ x29: .cfa -48 + ^
STACK CFI 55058 .cfa: sp 112 +
STACK CFI 55068 .cfa: sp 0 +
STACK CFI 5506c .cfa: x29 48 +
STACK CFI INIT 5519c 3ac .cfa: sp 0 +
STACK CFI 551a0 .cfa: sp 144 +
STACK CFI 551bc .cfa: x29 96 + x19: .cfa -8 + ^ x20: .cfa -16 + ^ x21: .cfa -24 + ^ x22: .cfa -32 + ^ x23: .cfa -40 + ^ x24: .cfa -48 + ^ x25: .cfa -56 + ^ x26: .cfa -64 + ^ x27: .cfa -72 + ^ x28: .cfa -80 + ^ .ra: .cfa -88 + ^ x29: .cfa -96 + ^
STACK CFI 55450 .cfa: sp 144 +
STACK CFI 5546c .cfa: sp 0 +
STACK CFI 55470 .cfa: x29 96 +
STACK CFI INIT 55548 1c .cfa: sp 0 +
STACK CFI 5554c .cfa: sp 16 +
STACK CFI 55550 .cfa: x29 16 + .ra: .cfa -8 + ^ x29: .cfa -16 + ^
STACK CFI 55558 .cfa: sp 16 +
STACK CFI 5555c .cfa: sp 0 +
STACK CFI 55560 .cfa: x29 16 +
STACK CFI INIT 55564 1c .cfa: sp 0 +
STACK CFI 55568 .cfa: sp 16 +
STACK CFI 5556c .cfa: x29 16 + .ra: .cfa -8 + ^ x29: .cfa -16 + ^
STACK CFI 55574 .cfa: sp 16 +
STACK CFI 55578 .cfa: sp 0 +
STACK CFI 5557c .cfa: x29 16 +
STACK CFI INIT 55580 174 .cfa: sp 0 +
STACK CFI 55584 .cfa: sp 96 +
STACK CFI 55598 .cfa: x29 64 + x19: .cfa -8 + ^ x20: .cfa -16 + ^ x21: .cfa -24 + ^ x22: .cfa -32 + ^ x23: .cfa -48 + ^ .ra: .cfa -56 + ^ x29: .cfa -64 + ^
STACK CFI 556ac .cfa: sp 96 +
STACK CFI 556c0 .cfa: sp 0 +
STACK CFI 556c4 .cfa: x29 64 +
STACK CFI INIT 558bc 5d0 .cfa: sp 0 +
STACK CFI 558c0 .cfa: sp 208 +
STACK CFI 558d8 .cfa: x29 80 + x19: .cfa -8 + ^ x20: .cfa -16 + ^ x21: .cfa -24 + ^ x22: .cfa -32 + ^ x23: .cfa -40 + ^ x24: .cfa -48 + ^ x25: .cfa -64 + ^ .ra: .cfa -72 + ^ x29: .cfa -80 + ^
STACK CFI 5598c .cfa: sp 208 +
STACK CFI 559a4 .cfa: sp 0 +
STACK CFI 559a8 .cfa: x29 80 +
STACK CFI INIT 55e8c 5b4 .cfa: sp 0 +
STACK CFI 55e90 .cfa: sp 192 +
STACK CFI 55ea4 .cfa: x29 64 + x19: .cfa -8 + ^ x20: .cfa -16 + ^ x21: .cfa -24 + ^ x22: .cfa -32 + ^ x23: .cfa -40 + ^ x24: .cfa -48 + ^ .ra: .cfa -56 + ^ x29: .cfa -64 + ^
STACK CFI 55f44 .cfa: sp 192 +
STACK CFI 55f58 .cfa: sp 0 +
STACK CFI 55f5c .cfa: x29 64 +
STACK CFI INIT 56440 724 .cfa: sp 0 +
STACK CFI 56444 .cfa: sp 160 +
STACK CFI 5645c .cfa: x29 80 + x19: .cfa -8 + ^ x20: .cfa -16 + ^ x21: .cfa -24 + ^ x22: .cfa -32 + ^ x23: .cfa -40 + ^ x24: .cfa -48 + ^ x25: .cfa -64 + ^ .ra: .cfa -72 + ^ x29: .cfa -80 + ^
STACK CFI 56a4c .cfa: sp 160 +
STACK CFI 56a64 .cfa: sp 0 +
STACK CFI 56a68 .cfa: x29 80 +
STACK CFI INIT 56b64 754 .cfa: sp 0 +
STACK CFI 56b68 .cfa: sp 96 +
STACK CFI 56b80 .cfa: x29 96 + x19: .cfa -8 + ^ x20: .cfa -16 + ^ x21: .cfa -24 + ^ x22: .cfa -32 + ^ x23: .cfa -40 + ^ x24: .cfa -48 + ^ x25: .cfa -56 + ^ x26: .cfa -64 + ^ x27: .cfa -72 + ^ x28: .cfa -80 + ^ .ra: .cfa -88 + ^ x29: .cfa -96 + ^
STACK CFI 570e8 .cfa: sp 96 +
STACK CFI 57100 .cfa: sp 0 +
STACK CFI 57104 .cfa: x29 96 +
STACK CFI INIT 572b8 74 .cfa: sp 0 +
STACK CFI 572bc .cfa: sp 48 +
STACK CFI 572c8 .cfa: x29 32 + x19: .cfa -8 + ^ x20: .cfa -16 + ^ .ra: .cfa -24 + ^ x29: .cfa -32 + ^
STACK CFI 57314 .cfa: sp 48 +
STACK CFI 57320 .cfa: sp 0 +
STACK CFI 57324 .cfa: x29 32 +
STACK CFI INIT 5732c 928 .cfa: sp 0 +
STACK CFI 57330 .cfa: sp 96 +
STACK CFI 57348 .cfa: x29 96 + x19: .cfa -8 + ^ x20: .cfa -16 + ^ x21: .cfa -24 + ^ x22: .cfa -32 + ^ x23: .cfa -40 + ^ x24: .cfa -48 + ^ x25: .cfa -56 + ^ x26: .cfa -64 + ^ x27: .cfa -72 + ^ x28: .cfa -80 + ^ .ra: .cfa -88 + ^ x29: .cfa -96 + ^
STACK CFI 57a08 .cfa: sp 96 +
STACK CFI 57a20 .cfa: sp 0 +
STACK CFI 57a24 .cfa: x29 96 +
STACK CFI INIT 57d00 74 .cfa: sp 0 +
STACK CFI 57d04 .cfa: sp 48 +
STACK CFI 57d10 .cfa: x29 32 + x19: .cfa -8 + ^ x20: .cfa -16 + ^ .ra: .cfa -24 + ^ x29: .cfa -32 + ^
STACK CFI 57d5c .cfa: sp 48 +
STACK CFI 57d68 .cfa: sp 0 +
STACK CFI 57d6c .cfa: x29 32 +
STACK CFI INIT 57d74 c4 .cfa: sp 0 +
STACK CFI 57d78 .cfa: sp 64 +
STACK CFI 57d88 .cfa: x29 64 + x19: .cfa -8 + ^ x20: .cfa -16 + ^ x21: .cfa -24 + ^ x22: .cfa -32 + ^ x23: .cfa -40 + ^ x24: .cfa -48 + ^ .ra: .cfa -56 + ^ x29: .cfa -64 + ^
STACK CFI 57e00 .cfa: sp 64 +
STACK CFI 57e10 .cfa: sp 0 +
STACK CFI 57e14 .cfa: x29 64 +
STACK CFI INIT 57f64 134 .cfa: sp 0 +
STACK CFI 57f68 .cfa: sp 80 +
STACK CFI 57f74 .cfa: x29 32 + x19: .cfa -8 + ^ x20: .cfa -16 + ^ .ra: .cfa -24 + ^ x29: .cfa -32 + ^
STACK CFI 57fa4 .cfa: sp 80 +
STACK CFI 57fb0 .cfa: sp 0 +
STACK CFI 57fb4 .cfa: x29 32 +
STACK CFI INIT 58098 78 .cfa: sp 0 +
STACK CFI 5809c .cfa: sp 32 +
STACK CFI 580a4 .cfa: x29 32 + x19: .cfa -8 + ^ x20: .cfa -16 + ^ .ra: .cfa -24 + ^ x29: .cfa -32 + ^
STACK CFI 580b0 .cfa: sp 32 +
STACK CFI 580b8 .cfa: sp 0 +
STACK CFI 580bc .cfa: x29 32 +
STACK CFI INIT 58110 74 .cfa: sp 0 +
STACK CFI 58114 .cfa: sp 48 +
STACK CFI 58120 .cfa: x29 32 + x19: .cfa -8 + ^ x20: .cfa -16 + ^ .ra: .cfa -24 + ^ x29: .cfa -32 + ^
STACK CFI 5816c .cfa: sp 48 +
STACK CFI 58178 .cfa: sp 0 +
STACK CFI 5817c .cfa: x29 32 +
STACK CFI INIT 581e8 224 .cfa: sp 0 +
STACK CFI 581ec .cfa: sp 128 +
STACK CFI 581fc .cfa: x29 48 + x19: .cfa -8 + ^ x20: .cfa -16 + ^ x21: .cfa -32 + ^ .ra: .cfa -40 + ^ x29: .cfa -48 + ^
STACK CFI 582ac .cfa: sp 128 +
STACK CFI 582bc .cfa: sp 0 +
STACK CFI 582c0 .cfa: x29 48 +
STACK CFI INIT 58430 25c .cfa: sp 0 +
STACK CFI 58434 .cfa: sp 128 +
STACK CFI 58444 .cfa: x29 48 + x19: .cfa -8 + ^ x20: .cfa -16 + ^ x21: .cfa -32 + ^ .ra: .cfa -40 + ^ x29: .cfa -48 + ^
STACK CFI 5852c .cfa: sp 128 +
STACK CFI 5853c .cfa: sp 0 +
STACK CFI 58540 .cfa: x29 48 +
STACK CFI INIT 58704 300 .cfa: sp 0 +
STACK CFI 58708 .cfa: sp 144 +
STACK CFI 5871c .cfa: x29 64 + x19: .cfa -8 + ^ x20: .cfa -16 + ^ x21: .cfa -24 + ^ x22: .cfa -32 + ^ x23: .cfa -48 + ^ .ra: .cfa -56 + ^ x29: .cfa -64 + ^
STACK CFI 588b0 .cfa: sp 144 +
STACK CFI 588c4 .cfa: sp 0 +
STACK CFI 588c8 .cfa: x29 64 +
STACK CFI INIT 58a58 264 .cfa: sp 0 +
STACK CFI 58a5c .cfa: sp 128 +
STACK CFI 58a6c .cfa: x29 48 + x19: .cfa -8 + ^ x20: .cfa -16 + ^ x21: .cfa -32 + ^ .ra: .cfa -40 + ^ x29: .cfa -48 + ^
STACK CFI 58b64 .cfa: sp 128 +
STACK CFI 58b74 .cfa: sp 0 +
STACK CFI 58b78 .cfa: x29 48 +
STACK CFI INIT 58d64 2e4 .cfa: sp 0 +
STACK CFI 58d68 .cfa: sp 144 +
STACK CFI 58d7c .cfa: x29 64 + x19: .cfa -8 + ^ x20: .cfa -16 + ^ x21: .cfa -24 + ^ x22: .cfa -32 + ^ x23: .cfa -48 + ^ .ra: .cfa -56 + ^ x29: .cfa -64 + ^
STACK CFI 58ef4 .cfa: sp 144 +
STACK CFI 58f08 .cfa: sp 0 +
STACK CFI 58f0c .cfa: x29 64 +
STACK CFI INIT 59048 2e4 .cfa: sp 0 +
STACK CFI 5904c .cfa: sp 144 +
STACK CFI 59060 .cfa: x29 64 + x19: .cfa -8 + ^ x20: .cfa -16 + ^ x21: .cfa -24 + ^ x22: .cfa -32 + ^ x23: .cfa -48 + ^ .ra: .cfa -56 + ^ x29: .cfa -64 + ^
STACK CFI 591d8 .cfa: sp 144 +
STACK CFI 591ec .cfa: sp 0 +
STACK CFI 591f0 .cfa: x29 64 +
STACK CFI INIT 5932c 2a0 .cfa: sp 0 +
STACK CFI 59330 .cfa: sp 144 +
STACK CFI 59344 .cfa: x29 64 + x19: .cfa -8 + ^ x20: .cfa -16 + ^ x21: .cfa -24 + ^ x22: .cfa -32 + ^ x23: .cfa -48 + ^ .ra: .cfa -56 + ^ x29: .cfa -64 + ^
STACK CFI 59478 .cfa: sp 144 +
STACK CFI 5948c .cfa: sp 0 +
STACK CFI 59490 .cfa: x29 64 +
STACK CFI INIT 595cc 2f0 .cfa: sp 0 +
STACK CFI 595d0 .cfa: sp 144 +
STACK CFI 595e4 .cfa: x29 64 + x19: .cfa -8 + ^ x20: .cfa -16 + ^ x21: .cfa -24 + ^ x22: .cfa -32 + ^ x23: .cfa -48 + ^ .ra: .cfa -56 + ^ x29: .cfa -64 + ^
STACK CFI 59768 .cfa: sp 144 +
STACK CFI 5977c .cfa: sp 0 +
STACK CFI 59780 .cfa: x29 64 +
STACK CFI INIT 598bc 4f4 .cfa: sp 0 +
STACK CFI 598c0 .cfa: sp 144 +
STACK CFI 598d4 .cfa: x29 64 + x19: .cfa -8 + ^ x20: .cfa -16 + ^ x21: .cfa -24 + ^ x22: .cfa -32 + ^ x23: .cfa -48 + ^ .ra: .cfa -56 + ^ x29: .cfa -64 + ^
STACK CFI 59c08 .cfa: sp 144 +
STACK CFI 59c1c .cfa: sp 0 +
STACK CFI 59c20 .cfa: x29 64 +
STACK CFI INIT 59db0 154 .cfa: sp 0 +
STACK CFI 59db4 .cfa: sp 384 +
STACK CFI 59dc8 .cfa: x29 64 + x19: .cfa -8 + ^ x20: .cfa -16 + ^ x21: .cfa -24 + ^ x22: .cfa -32 + ^ x23: .cfa -40 + ^ x28: .cfa -48 + ^ .ra: .cfa -56 + ^ x29: .cfa -64 + ^
STACK CFI 59eac .cfa: sp 384 +
STACK CFI 59ec0 .cfa: sp 0 +
STACK CFI 59ec4 .cfa: x29 64 +
STACK CFI INIT 59f1c 50c .cfa: sp 0 +
STACK CFI 59f20 .cfa: sp 64 +
STACK CFI 59f30 .cfa: x29 64 + x19: .cfa -8 + ^ x20: .cfa -16 + ^ x21: .cfa -24 + ^ x22: .cfa -32 + ^ x23: .cfa -40 + ^ x24: .cfa -48 + ^ .ra: .cfa -56 + ^ x29: .cfa -64 + ^
STACK CFI 5a050 .cfa: sp 64 +
STACK CFI 5a060 .cfa: sp 0 +
STACK CFI 5a064 .cfa: x29 64 +
STACK CFI 5a3fc .cfa: sp 64 +
STACK CFI 5a40c .cfa: sp 0 +
STACK CFI 5a410 .cfa: x29 64 +
STACK CFI INIT 5a758 294 .cfa: sp 0 +
STACK CFI 5a75c .cfa: sp 240 +
STACK CFI 5a774 .cfa: x29 80 + x19: .cfa -8 + ^ x20: .cfa -16 + ^ x21: .cfa -24 + ^ x22: .cfa -32 + ^ x23: .cfa -40 + ^ x24: .cfa -48 + ^ x25: .cfa -64 + ^ .ra: .cfa -72 + ^ x29: .cfa -80 + ^
STACK CFI 5a914 .cfa: sp 240 +
STACK CFI 5a92c .cfa: sp 0 +
STACK CFI 5a930 .cfa: x29 80 +
STACK CFI INIT 5aa68 50 .cfa: sp 0 +
STACK CFI 5aa6c .cfa: sp 32 +
STACK CFI 5aa74 .cfa: x29 32 + x19: .cfa -8 + ^ x20: .cfa -16 + ^ .ra: .cfa -24 + ^ x29: .cfa -32 + ^
STACK CFI INIT 5aae4 7c0 .cfa: sp 0 +
STACK CFI 5aae8 .cfa: sp 320 +
STACK CFI 5ab04 .cfa: x29 96 + x19: .cfa -8 + ^ x20: .cfa -16 + ^ x21: .cfa -24 + ^ x22: .cfa -32 + ^ x23: .cfa -40 + ^ x24: .cfa -48 + ^ x25: .cfa -56 + ^ x26: .cfa -64 + ^ x27: .cfa -72 + ^ x28: .cfa -80 + ^ .ra: .cfa -88 + ^ x29: .cfa -96 + ^
STACK CFI 5b154 .cfa: sp 320 +
STACK CFI 5b170 .cfa: sp 0 +
STACK CFI 5b174 .cfa: x29 96 +
STACK CFI INIT 5f624 c74 .cfa: sp 0 +
STACK CFI 5f628 .cfa: sp 96 +
STACK CFI 5f640 .cfa: x29 96 + x19: .cfa -8 + ^ x20: .cfa -16 + ^ x21: .cfa -24 + ^ x22: .cfa -32 + ^ x23: .cfa -40 + ^ x24: .cfa -48 + ^ x25: .cfa -56 + ^ x26: .cfa -64 + ^ x27: .cfa -72 + ^ x28: .cfa -80 + ^ .ra: .cfa -88 + ^ x29: .cfa -96 + ^
STACK CFI 600b8 .cfa: sp 96 +
STACK CFI 600d0 .cfa: sp 0 +
STACK CFI 600d4 .cfa: x29 96 +
STACK CFI INIT 603ec 26c .cfa: sp 0 +
STACK CFI 603f0 .cfa: sp 128 +
STACK CFI 60400 .cfa: x29 48 + x19: .cfa -8 + ^ x20: .cfa -16 + ^ x21: .cfa -24 + ^ x22: .cfa -32 + ^ .ra: .cfa -40 + ^ x29: .cfa -48 + ^
STACK CFI 605a4 .cfa: sp 128 +
STACK CFI 605b4 .cfa: sp 0 +
STACK CFI 605b8 .cfa: x29 48 +
STACK CFI INIT 609e8 3b8 .cfa: sp 0 +
STACK CFI 609ec .cfa: sp 96 +
STACK CFI 60a04 .cfa: x29 96 + x19: .cfa -8 + ^ x20: .cfa -16 + ^ x21: .cfa -24 + ^ x22: .cfa -32 + ^ x23: .cfa -40 + ^ x24: .cfa -48 + ^ x25: .cfa -56 + ^ x26: .cfa -64 + ^ x27: .cfa -72 + ^ x28: .cfa -80 + ^ .ra: .cfa -88 + ^ x29: .cfa -96 + ^
STACK CFI 60d40 .cfa: sp 96 +
STACK CFI 60d58 .cfa: sp 0 +
STACK CFI 60d5c .cfa: x29 96 +
STACK CFI INIT 60e40 cb4 .cfa: sp 0 +
STACK CFI 60e44 .cfa: sp 96 +
STACK CFI 60e5c .cfa: x29 96 + x19: .cfa -8 + ^ x20: .cfa -16 + ^ x21: .cfa -24 + ^ x22: .cfa -32 + ^ x23: .cfa -40 + ^ x24: .cfa -48 + ^ x25: .cfa -56 + ^ x26: .cfa -64 + ^ x27: .cfa -72 + ^ x28: .cfa -80 + ^ .ra: .cfa -88 + ^ x29: .cfa -96 + ^
STACK CFI 61904 .cfa: sp 96 +
STACK CFI 6191c .cfa: sp 0 +
STACK CFI 61920 .cfa: x29 96 +
STACK CFI INIT 61ddc afc .cfa: sp 0 +
STACK CFI 61de0 .cfa: sp 96 +
STACK CFI 61df8 .cfa: x29 96 + x19: .cfa -8 + ^ x20: .cfa -16 + ^ x21: .cfa -24 + ^ x22: .cfa -32 + ^ x23: .cfa -40 + ^ x24: .cfa -48 + ^ x25: .cfa -56 + ^ x26: .cfa -64 + ^ x27: .cfa -72 + ^ x28: .cfa -80 + ^ .ra: .cfa -88 + ^ x29: .cfa -96 + ^
STACK CFI 6284c .cfa: sp 96 +
STACK CFI 62864 .cfa: sp 0 +
STACK CFI 62868 .cfa: x29 96 +
STACK CFI INIT 62ab4 1430 .cfa: sp 0 +
STACK CFI 62ab8 .cfa: sp 96 +
STACK CFI 62ad0 .cfa: x29 96 + x19: .cfa -8 + ^ x20: .cfa -16 + ^ x21: .cfa -24 + ^ x22: .cfa -32 + ^ x23: .cfa -40 + ^ x24: .cfa -48 + ^ x25: .cfa -56 + ^ x26: .cfa -64 + ^ x27: .cfa -72 + ^ x28: .cfa -80 + ^ .ra: .cfa -88 + ^ x29: .cfa -96 + ^
STACK CFI 63d6c .cfa: sp 96 +
STACK CFI 63d84 .cfa: sp 0 +
STACK CFI 63d88 .cfa: x29 96 +
STACK CFI INIT 64008 75c .cfa: sp 0 +
STACK CFI 6400c .cfa: sp 368 +
STACK CFI 64028 .cfa: x29 96 + x19: .cfa -8 + ^ x20: .cfa -16 + ^ x21: .cfa -24 + ^ x22: .cfa -32 + ^ x23: .cfa -40 + ^ x24: .cfa -48 + ^ x25: .cfa -56 + ^ x26: .cfa -64 + ^ x27: .cfa -72 + ^ x28: .cfa -80 + ^ .ra: .cfa -88 + ^ x29: .cfa -96 + ^
STACK CFI 640dc .cfa: sp 368 +
STACK CFI 640f8 .cfa: sp 0 +
STACK CFI 640fc .cfa: x29 96 +
STACK CFI 64150 .cfa: sp 368 +
STACK CFI 6416c .cfa: sp 0 +
STACK CFI 64170 .cfa: x29 96 +
STACK CFI INIT 64b24 eb0 .cfa: sp 0 +
STACK CFI 64b28 .cfa: sp 96 +
STACK CFI 64b40 .cfa: x29 96 + x19: .cfa -8 + ^ x20: .cfa -16 + ^ x21: .cfa -24 + ^ x22: .cfa -32 + ^ x23: .cfa -40 + ^ x24: .cfa -48 + ^ x25: .cfa -56 + ^ x26: .cfa -64 + ^ x27: .cfa -72 + ^ x28: .cfa -80 + ^ .ra: .cfa -88 + ^ x29: .cfa -96 + ^
STACK CFI 657e8 .cfa: sp 96 +
STACK CFI 65800 .cfa: sp 0 +
STACK CFI 65804 .cfa: x29 96 +
STACK CFI INIT 65d48 1c9c .cfa: sp 0 +
STACK CFI 65d4c .cfa: sp 112 +
STACK CFI 65d68 .cfa: x29 96 + x19: .cfa -8 + ^ x20: .cfa -16 + ^ x21: .cfa -24 + ^ x22: .cfa -32 + ^ x23: .cfa -40 + ^ x24: .cfa -48 + ^ x25: .cfa -56 + ^ x26: .cfa -64 + ^ x27: .cfa -72 + ^ x28: .cfa -80 + ^ .ra: .cfa -88 + ^ x29: .cfa -96 + ^ v8: .cfa -112 + ^
STACK CFI 66150 .cfa: sp 112 +
STACK CFI 6616c .cfa: sp 0 +
STACK CFI 66170 .cfa: x29 96 +
STACK CFI INIT 6a1a8 9a0 .cfa: sp 0 +
STACK CFI 6a1ac .cfa: sp 144 +
STACK CFI 6a1c4 .cfa: x29 80 + x19: .cfa -8 + ^ x20: .cfa -16 + ^ x21: .cfa -24 + ^ x22: .cfa -32 + ^ x23: .cfa -40 + ^ x24: .cfa -48 + ^ x25: .cfa -64 + ^ .ra: .cfa -72 + ^ x29: .cfa -80 + ^
STACK CFI 6aac4 .cfa: sp 144 +
STACK CFI 6aadc .cfa: sp 0 +
STACK CFI 6aae0 .cfa: x29 80 +
STACK CFI INIT 6c06c 57c .cfa: sp 0 +
STACK CFI 6c070 .cfa: sp 96 +
STACK CFI 6c088 .cfa: x29 96 + x19: .cfa -8 + ^ x20: .cfa -16 + ^ x21: .cfa -24 + ^ x22: .cfa -32 + ^ x23: .cfa -40 + ^ x24: .cfa -48 + ^ x25: .cfa -56 + ^ x26: .cfa -64 + ^ x27: .cfa -72 + ^ x28: .cfa -80 + ^ .ra: .cfa -88 + ^ x29: .cfa -96 + ^
STACK CFI 6c54c .cfa: sp 96 +
STACK CFI 6c564 .cfa: sp 0 +
STACK CFI 6c568 .cfa: x29 96 +
STACK CFI INIT 6c5e8 67c .cfa: sp 0 +
STACK CFI 6c5ec .cfa: sp 96 +
STACK CFI 6c604 .cfa: x29 96 + x19: .cfa -8 + ^ x20: .cfa -16 + ^ x21: .cfa -24 + ^ x22: .cfa -32 + ^ x23: .cfa -40 + ^ x24: .cfa -48 + ^ x25: .cfa -56 + ^ x26: .cfa -64 + ^ x27: .cfa -72 + ^ x28: .cfa -80 + ^ .ra: .cfa -88 + ^ x29: .cfa -96 + ^
STACK CFI 6cbc8 .cfa: sp 96 +
STACK CFI 6cbe0 .cfa: sp 0 +
STACK CFI 6cbe4 .cfa: x29 96 +
