MODULE Linux arm64 4E408A5B16AF7ABFF84B1766215F33640 oatmealine.ids_integration.android64.so
INFO CODE_ID 5B8A404EAF16BF7AF84B1766215F3364600E6080
INFO GENERATOR mozilla/dump_syms 2.3.4
PUBLIC 1a290 0 __on_dlclose
PUBLIC 1a2a0 0 __emutls_unregister_key
PUBLIC 1a2a8 0 __on_dlclose_late
PUBLIC 1a2b0 0 __atexit_handler_wrapper
PUBLIC 1a2c4 0 atexit
PUBLIC 1a2e0 0 pthread_atfork
PUBLIC 1a2f0 0 __aarch64_ldadd8_relax
PUBLIC 1a320 0 init_have_lse_atomics
PUBLIC 1a3b8 0 __init_cpu_features_constructor
PUBLIC 1a954 0 __init_cpu_features
PUBLIC 1a9e0 0 __aarch64_ldadd8_acq_rel
PUBLIC 1aa10 0 __cxx_global_var_init
PUBLIC 1ae90 0 geode::modifier::ModifyBase<geode::modifier::ModifyDerive<NLWInfoLayer, LevelInfoLayer> >::~ModifyBase()
PUBLIC 1aeac 0 geode::modifier::ModifyDerive<NLWInfoLayer, LevelInfoLayer>::apply()
PUBLIC 1b4f4 0 std::__ndk1::shared_ptr<geode::Hook>::~shared_ptr[abi:ne180000]()
PUBLIC 1b544 0 geode::impl::ResultData<geode::Hook*, std::__ndk1::basic_string<char, std::__ndk1::char_traits<char>, std::__ndk1::allocator<char> > >::~ResultData()
PUBLIC 1b5b8 0 std::__ndk1::vector<std::__ndk1::basic_string<char, std::__ndk1::char_traits<char>, std::__ndk1::allocator<char> >, std::__ndk1::allocator<std::__ndk1::basic_string<char, std::__ndk1::char_traits<char>, std::__ndk1::allocator<char> > > >::~vector[abi:ne180000]()
PUBLIC 1b634 0 geode::modifier::ModifyBase<geode::modifier::ModifyDerive<NLWInfoLayer, LevelInfoLayer> >::apply()
PUBLIC 1b638 0 __clang_call_terminate
PUBLIC 1b648 0 _ZN5geode15UnwrapExceptionC2IRPNS_4HookEQsr4implE18IsStringStreamableIT_EEENS_4impl5OkTagEOS5_
PUBLIC 1b79c 0 std::__ndk1::__throw_bad_variant_access[abi:ne180000]()
PUBLIC 1b7d0 0 std::__ndk1::basic_stringstream<char, std::__ndk1::char_traits<char>, std::__ndk1::allocator<char> >::basic_stringstream[abi:ne180000]()
PUBLIC m 1b8fc 0 std::__ndk1::basic_stringstream<char, std::__ndk1::char_traits<char>, std::__ndk1::allocator<char> >::~basic_stringstream()
PUBLIC 1b97c 0 geode::UnwrapException::~UnwrapException()
PUBLIC 1b9a0 0 std::__ndk1::__put_character_sequence[abi:ne180000]<char, std::__ndk1::char_traits<char> >(std::__ndk1::basic_ostream<char, std::__ndk1::char_traits<char> >, std::__ndk1::basic_ostream const*, unsigned long)
PUBLIC 1bb44 0 std::__ndk1::__pad_and_output[abi:ne180000]<char, std::__ndk1::char_traits<char> >(std::__ndk1::char_traits<char>, std::__ndk1::ostreambuf_iterator const*, std::__ndk1::ostreambuf_iterator const, std::__ndk1::ostreambuf_iterator const, std::__ndk1::ios_base&, std::__ndk1::ostreambuf_iterator)
PUBLIC 1bd20 0 std::__ndk1::basic_string<char, std::__ndk1::char_traits<char>, std::__ndk1::allocator<char> >::__throw_length_error[abi:ne180000]() const
PUBLIC 1bd34 0 std::__ndk1::__throw_length_error[abi:ne180000](char const*)
PUBLIC 1bd84 0 std::length_error::length_error[abi:ne180000](char const*)
PUBLIC 1bdb4 0 std::__throw_bad_array_new_length([abi:ne180000], void)
PUBLIC 1bde8 0 std::__ndk1::basic_stringbuf<char, std::__ndk1::char_traits<char>, std::__ndk1::allocator<char> >::str[abi:ne180000]() &&
PUBLIC 1bf60 0 std::__ndk1::basic_stringbuf<char, std::__ndk1::char_traits<char>, std::__ndk1::allocator<char> >::__init_buf_ptrs[abi:ne180000]()
PUBLIC 1c0a8 0 std::__ndk1::vector<std::__ndk1::basic_string<char, std::__ndk1::char_traits<char>, std::__ndk1::allocator<char> >, std::__ndk1::allocator<std::__ndk1::basic_string<char, std::__ndk1::char_traits<char>, std::__ndk1::allocator<char> > > >::__push_back_slow_path<std::__ndk1::basic_string<char, std::__ndk1::char_traits<char>, std::__ndk1::allocator<char> > const&>(std::__ndk1::basic_string<char, std::__ndk1::char_traits<char>, std::__ndk1::allocator<char> > const&)
PUBLIC 1c2d0 0 std::__ndk1::basic_string<char, std::__ndk1::char_traits<char>, std::__ndk1::allocator<char> >::__init_copy_ctor_external(char const*, unsigned long)
PUBLIC 1c350 0 std::__ndk1::__split_buffer<std::__ndk1::basic_string<char, std::__ndk1::char_traits<char>, std::__ndk1::allocator<char> >, std::__ndk1::allocator<std::__ndk1::basic_string<char, std::__ndk1::char_traits<char>, std::__ndk1::allocator<char> > >&>::~__split_buffer()
PUBLIC 1c3b8 0 std::__ndk1::vector<std::__ndk1::basic_string<char, std::__ndk1::char_traits<char>, std::__ndk1::allocator<char> >, std::__ndk1::allocator<std::__ndk1::basic_string<char, std::__ndk1::char_traits<char>, std::__ndk1::allocator<char> > > >::__throw_length_error[abi:ne180000]() const
PUBLIC 1c3cc 0 std::__ndk1::__variant_detail::__visitation::__base::__dispatcher<(unsigned long)0>::__dispatch[abi:ne180000]<std::__ndk1::__variant_detail::__dtor<std::__ndk1::__variant_detail::__traits<geode::Hook*, std::__ndk1::basic_string<char, std::__ndk1::char_traits<char>, std::__ndk1::allocator<char> > >, (std::__ndk1::__variant_detail::_Trait)1>::__destroy[abi:ne180000]()::{lambda(auto:1&)#1}, std::__ndk1::__variant_detail::__base<(std::__ndk1::__variant_detail::__traits<geode::Hook*, std::__ndk1::basic_string<char, std::__ndk1::char_traits<char>, std::__ndk1::allocator<char> > >)1, geode::Hook, std::__ndk1::allocator<char> >&>(std::__ndk1::__variant_detail::__dtor<std::__ndk1::__variant_detail::__traits<geode::Hook*, std::__ndk1::basic_string<char, std::__ndk1::char_traits<char>, std::__ndk1::allocator<char> > >, (std::__ndk1::__variant_detail::_Trait)1>, std::__ndk1::__variant_detail::__base<(std::__ndk1::__variant_detail::__traits<geode::Hook*, std::__ndk1::basic_string<char, std::__ndk1::char_traits<char>, std::__ndk1::allocator<char> > >)1, geode::Hook, std::__ndk1::allocator<char> >&)
PUBLIC 1c3d0 0 std::__ndk1::__variant_detail::__visitation::__base::__dispatcher<(unsigned long)1>::__dispatch[abi:ne180000]<std::__ndk1::__variant_detail::__dtor<std::__ndk1::__variant_detail::__traits<geode::Hook*, std::__ndk1::basic_string<char, std::__ndk1::char_traits<char>, std::__ndk1::allocator<char> > >, (std::__ndk1::__variant_detail::_Trait)1>::__destroy[abi:ne180000]()::{lambda(auto:1&)#1}, std::__ndk1::__variant_detail::__base<(std::__ndk1::__variant_detail::__traits<geode::Hook*, std::__ndk1::basic_string<char, std::__ndk1::char_traits<char>, std::__ndk1::allocator<char> > >)1, geode::Hook, std::__ndk1::allocator<char> >&>(std::__ndk1::__variant_detail::__dtor<std::__ndk1::__variant_detail::__traits<geode::Hook*, std::__ndk1::basic_string<char, std::__ndk1::char_traits<char>, std::__ndk1::allocator<char> > >, (std::__ndk1::__variant_detail::_Trait)1>, std::__ndk1::__variant_detail::__base<(std::__ndk1::__variant_detail::__traits<geode::Hook*, std::__ndk1::basic_string<char, std::__ndk1::char_traits<char>, std::__ndk1::allocator<char> > >)1, geode::Hook, std::__ndk1::allocator<char> >&)
PUBLIC 1c3e4 0 std::__ndk1::__tree<std::__ndk1::__value_type<std::__ndk1::basic_string<char, std::__ndk1::char_traits<char>, std::__ndk1::allocator<char> >, std::__ndk1::shared_ptr<geode::Hook> >, std::__ndk1::__map_value_compare<std::__ndk1::basic_string<char, std::__ndk1::char_traits<char>, std::__ndk1::allocator<char> >, std::__ndk1::__value_type<std::__ndk1::basic_string<char, std::__ndk1::char_traits<char>, std::__ndk1::allocator<char> >, std::__ndk1::shared_ptr<geode::Hook> >, std::__ndk1::less<std::__ndk1::basic_string<char, std::__ndk1::char_traits<char>, std::__ndk1::allocator<char> > >, true>, std::__ndk1::allocator<std::__ndk1::__value_type<std::__ndk1::basic_string<char, std::__ndk1::char_traits<char>, std::__ndk1::allocator<char> >, std::__ndk1::shared_ptr<geode::Hook> > > >::find<std::__ndk1::basic_string<char, std::__ndk1::char_traits<char>, std::__ndk1::allocator<char> > >(std::__ndk1::basic_string<char, std::__ndk1::char_traits<char>, std::__ndk1::allocator<char> > const&)
PUBLIC 1c504 0 std::__ndk1::__tree<std::__ndk1::__value_type<std::__ndk1::basic_string<char, std::__ndk1::char_traits<char>, std::__ndk1::allocator<char> >, std::__ndk1::shared_ptr<geode::Hook> >, std::__ndk1::__map_value_compare<std::__ndk1::basic_string<char, std::__ndk1::char_traits<char>, std::__ndk1::allocator<char> >, std::__ndk1::__value_type<std::__ndk1::basic_string<char, std::__ndk1::char_traits<char>, std::__ndk1::allocator<char> >, std::__ndk1::shared_ptr<geode::Hook> >, std::__ndk1::less<std::__ndk1::basic_string<char, std::__ndk1::char_traits<char>, std::__ndk1::allocator<char> > >, true>, std::__ndk1::allocator<std::__ndk1::__value_type<std::__ndk1::basic_string<char, std::__ndk1::char_traits<char>, std::__ndk1::allocator<char> >, std::__ndk1::shared_ptr<geode::Hook> > > >::erase(std::__ndk1::__tree_const_iterator<std::__ndk1::__value_type<std::__ndk1::basic_string<char, std::__ndk1::char_traits<char>, std::__ndk1::allocator<char> >, std::__ndk1::shared_ptr<geode::Hook> >, std::__ndk1::__tree_node<std::__ndk1::__value_type<std::__ndk1::basic_string<char, std::__ndk1::char_traits<char>, std::__ndk1::allocator<char> >, std::__ndk1::shared_ptr<geode::Hook> >, void*>*, long>)
PUBLIC 1c5d8 0 std::__ndk1::__tree_remove[abi:ne180000]<std::__ndk1::__tree_node_base<void*>*>(std::__ndk1::__tree_node_base<void*>*, std::__ndk1::__tree_node_base<void*>*)
PUBLIC 1c9a0 0 std::__ndk1::__tree<std::__ndk1::__value_type<std::__ndk1::basic_string<char, std::__ndk1::char_traits<char>, std::__ndk1::allocator<char> >, std::__ndk1::shared_ptr<geode::Hook> >, std::__ndk1::__map_value_compare<std::__ndk1::basic_string<char, std::__ndk1::char_traits<char>, std::__ndk1::allocator<char> >, std::__ndk1::__value_type<std::__ndk1::basic_string<char, std::__ndk1::char_traits<char>, std::__ndk1::allocator<char> >, std::__ndk1::shared_ptr<geode::Hook> >, std::__ndk1::less<std::__ndk1::basic_string<char, std::__ndk1::char_traits<char>, std::__ndk1::allocator<char> > >, true>, std::__ndk1::allocator<std::__ndk1::__value_type<std::__ndk1::basic_string<char, std::__ndk1::char_traits<char>, std::__ndk1::allocator<char> >, std::__ndk1::shared_ptr<geode::Hook> > > >::destroy(std::__ndk1::__tree_node<std::__ndk1::__value_type<std::__ndk1::basic_string<char, std::__ndk1::char_traits<char>, std::__ndk1::allocator<char> >, std::__ndk1::shared_ptr<geode::Hook> >, void*>*)
PUBLIC 1ca2c 0 geode::modifier::AsStaticFunction_init<NLWInfoLayer, bool (NLWInfoLayer::*)(GJGameLevel*, bool)>::Impl<bool (NLWInfoLayer::*)(GJGameLevel*, bool)>::function(NLWInfoLayer*, GJGameLevel*, bool)
PUBLIC 1cb30 0 geode::modifier::AsStaticFunction_updateLabelValues<NLWInfoLayer, void (NLWInfoLayer::*)()>::Impl<void (NLWInfoLayer::*)()>::function(NLWInfoLayer*)
PUBLIC 1cb54 0 std::__ndk1::shared_ptr<tulip::hook::CallingConvention>::~shared_ptr[abi:ne180000]()
PUBLIC 1cba4 0 tulip::hook::HandlerMetadata::~HandlerMetadata()
PUBLIC 1cc08 0 std::__ndk1::vector<tulip::hook::AbstractType, std::__ndk1::allocator<tulip::hook::AbstractType> >::__throw_length_error[abi:ne180000]() const
PUBLIC 1cc1c 0 NLWInfoLayer::updateDifficultyFace()
PUBLIC 1d34c 0 geode::modifier::FieldIntermediate<NLWInfoLayer, LevelInfoLayer>::self()
PUBLIC 1d9a4 0 geode::modifier::FieldIntermediate<NLWInfoLayer, LevelInfoLayer>::fieldDestructor(void*)
PUBLIC 1d9a8 0 std::__ndk1::vector<void*, std::__ndk1::allocator<void*> >::__throw_length_error[abi:ne180000]() const
PUBLIC 1d9bc 0 std::__ndk1::vector<std::__ndk1::function<void (void*)>, std::__ndk1::allocator<std::__ndk1::function<void (void*)> > >::__throw_length_error[abi:ne180000]() const
PUBLIC 1d9d0 0 std::__ndk1::vector<void*, std::__ndk1::allocator<void*> >::__throw_out_of_range[abi:ne180000]() const
PUBLIC 1d9e4 0 std::__ndk1::__throw_out_of_range[abi:ne180000](char const*)
PUBLIC 1da34 0 std::out_of_range::out_of_range[abi:ne180000](char const*)
PUBLIC 1da64 0 std::__ndk1::vector<std::__ndk1::function<void (void*)>, std::__ndk1::allocator<std::__ndk1::function<void (void*)> > >::__throw_out_of_range[abi:ne180000]() const
PUBLIC 1da78 0 NLWRating::~NLWRating()
PUBLIC 1db24 0 std::__ndk1::__function::__base<void (void*)>::~__base()
PUBLIC 1db28 0 std::__ndk1::__function::__func<void (*)(void*), std::__ndk1::allocator<void (*)(void*)>, void (void*)>::~__func()
PUBLIC 1db2c 0 std::__ndk1::__function::__func<void (*)(void*), std::__ndk1::allocator<void (*)(void*)>, void (void*)>::__clone() const
PUBLIC 1db64 0 std::__ndk1::__function::__func<void (*)(void*), std::__ndk1::allocator<void (*)(void*)>, void (void*)>::__clone(std::__ndk1::__function::__base<void (void*)>*) const
PUBLIC 1db7c 0 std::__ndk1::__function::__func<void (*)(void*), std::__ndk1::allocator<void (*)(void*)>, void (void*)>::destroy()
PUBLIC 1db80 0 std::__ndk1::__function::__func<void (*)(void*), std::__ndk1::allocator<void (*)(void*)>, void (void*)>::destroy_deallocate()
PUBLIC 1db84 0 std::__ndk1::__function::__func<void (*)(void*), std::__ndk1::allocator<void (*)(void*)>, void (void*)>::operator()(void*&&)
PUBLIC 1db94 0 std::__ndk1::__function::__func<void (*)(void*), std::__ndk1::allocator<void (*)(void*)>, void (void*)>::target(std::type_info const&) const
PUBLIC 1dbb0 0 std::__ndk1::__function::__func<void (*)(void*), std::__ndk1::allocator<void (*)(void*)>, void (void*)>::target_type() const
PUBLIC 1dbbc 0 geode::log::warn<>(fmt::v11::basic_format_string<char, fmt::v11::type_identity<decltype ((wrapCocosObj<>)((std::declval<>)()))>::type>, &&)
PUBLIC 1dc34 0 NLWInfoLayer::openNLWInfoPane(cocos2d::CCObject*)
PUBLIC 1dc6c 0 fmt::v11::detail::value<fmt::v11::context>::format_custom_arg<gd::string, fmt::v11::formatter<gd::string, char, void> >(void*, fmt::v11::basic_format_parse_context<char>&, fmt::v11::context&)
PUBLIC 1de40 0 fmt::v11::detail::parse_format_specs<char>(char const*, char const*, fmt::v11::detail::dynamic_format_specs<char>&, fmt::v11::basic_format_parse_context<char>&, fmt::v11::detail::type)
PUBLIC 1e2f4 0 fmt::v11::detail::parse_dynamic_spec<char>(char const*, char const*, int&, fmt::v11::detail::arg_ref<char>&, fmt::v11::basic_format_parse_context<char>&)
PUBLIC 1e498 0 fmt::v11::detail::do_parse_arg_id<char, fmt::v11::detail::dynamic_spec_id_handler<char>&>(char const*, char const*, fmt::v11::detail::dynamic_spec_id_handler<char>&)
PUBLIC 1e62c 0 fmt::v11::detail::handle_dynamic_spec<fmt::v11::detail::width_checker, fmt::v11::context>(int&, fmt::v11::detail::arg_ref<fmt::v11::context::char_type>, fmt::v11::context&)
PUBLIC 1e740 0 fmt::v11::detail::handle_dynamic_spec<fmt::v11::detail::precision_checker, fmt::v11::context>(int&, fmt::v11::detail::arg_ref<fmt::v11::context::char_type>, fmt::v11::context&)
PUBLIC 1e854 0 fmt::v11::detail::write<char, fmt::v11::basic_appender<char> >(fmt::v11::basic_appender<char>, fmt::v11::basic_string_view<char>, fmt::v11::format_specs const&)
PUBLIC 1ead0 0 fmt::v11::detail::write_escaped_string<char, fmt::v11::detail::counting_iterator>(fmt::v11::detail::counting_iterator, fmt::v11::basic_string_view<char>)
PUBLIC 1eff0 0 fmt::v11::detail::write_padded<char, (fmt::v11::align::type)1, fmt::v11::basic_appender<char>, fmt::v11::detail::write<char, fmt::v11::basic_appender<char> >(fmt::v11::basic_appender<char>, fmt::v11::basic_string_view<char>, fmt::v11::format_specs const&)::{lambda(fmt::v11::basic_appender<char>)#1}>(fmt::v11::basic_appender<char>, fmt::v11::format_specs const&, unsigned long, unsigned long, fmt::v11::detail::write<char, fmt::v11::basic_appender<char> >(fmt::v11::basic_appender<char>, fmt::v11::basic_string_view<char>, fmt::v11::format_specs const&)::{lambda(fmt::v11::basic_appender<char>&&)#1})
PUBLIC 1f1fc 0 fmt::v11::detail::for_each_codepoint<fmt::v11::detail::code_point_index(fmt::v11::basic_string_view<char>, unsigned long)::{lambda(unsigned int, fmt::v11::basic_string_view<char>)#1}>(fmt::v11::basic_string_view<char>, fmt::v11::detail::code_point_index(fmt::v11::basic_string_view<char>, unsigned long)::{lambda(unsigned int, fmt::v11::basic_string_view<char>)#1})
PUBLIC 1f624 0 fmt::v11::detail::write_escaped_cp<fmt::v11::detail::counting_iterator, char>(fmt::v11::detail::counting_iterator, fmt::v11::detail::find_escape_result<char> const&)
PUBLIC 1f7b8 0 fmt::v11::detail::for_each_codepoint<fmt::v11::detail::compute_width(fmt::v11::basic_string_view<char>)::count_code_points>(fmt::v11::basic_string_view<char>, fmt::v11::detail::compute_width(fmt::v11::basic_string_view<char>)::count_code_points)::{lambda(char const*, char const*)#1}::operator()(char const*, char const*) const
PUBLIC 1f970 0 fmt::v11::detail::fill<char, fmt::v11::basic_appender<char> >(fmt::v11::basic_appender<char>, unsigned long, fmt::v11::detail::fill_t const&)
PUBLIC 1fb40 0 fmt::v11::detail::write_escaped_string<char, fmt::v11::basic_appender<char> >(fmt::v11::basic_appender<char>, fmt::v11::basic_string_view<char>)
PUBLIC 201bc 0 fmt::v11::detail::write_escaped_cp<fmt::v11::basic_appender<char>, char>(fmt::v11::basic_appender<char>, fmt::v11::detail::find_escape_result<char> const&)
PUBLIC 203a0 0 fmt::v11::detail::write_codepoint<(unsigned long)2, char, fmt::v11::basic_appender<char> >(fmt::v11::basic_appender<char>, char, unsigned int)
PUBLIC 20518 0 fmt::v11::detail::write_codepoint<(unsigned long)4, char, fmt::v11::basic_appender<char> >(fmt::v11::basic_appender<char>, char, unsigned int)
PUBLIC 20690 0 fmt::v11::detail::write_codepoint<(unsigned long)8, char, fmt::v11::basic_appender<char> >(fmt::v11::basic_appender<char>, char, unsigned int)
PUBLIC 20808 0 fmt::v11::detail::get_dynamic_spec<fmt::v11::detail::width_checker, fmt::v11::basic_format_arg<fmt::v11::context> >(fmt::v11::basic_format_arg<fmt::v11::context>)
PUBLIC 2089c 0 fmt::v11::basic_format_args<fmt::v11::context>::get<char>(fmt::v11::basic_string_view<char>) const
PUBLIC 209f4 0 fmt::v11::detail::get_dynamic_spec<fmt::v11::detail::precision_checker, fmt::v11::basic_format_arg<fmt::v11::context> >(fmt::v11::basic_format_arg<fmt::v11::context>)
PUBLIC 20a88 0 std::__ndk1::__throw_bad_optional_access[abi:ne180000]()
PUBLIC 20abc 0 std::__ndk1::basic_string<char, std::__ndk1::char_traits<char>, std::__ndk1::allocator<char> >::__assign_no_alias<true>(char const*, unsigned long)
PUBLIC 20b68 0 std::__ndk1::basic_string<char, std::__ndk1::char_traits<char>, std::__ndk1::allocator<char> >::__assign_no_alias<false>(char const*, unsigned long)
PUBLIC 20c78 0 std::__ndk1::__tree<std::__ndk1::__value_type<std::__ndk1::basic_string<char, std::__ndk1::char_traits<char>, std::__ndk1::allocator<char> >, std::__ndk1::shared_ptr<geode::Hook> >, std::__ndk1::__map_value_compare<std::__ndk1::basic_string<char, std::__ndk1::char_traits<char>, std::__ndk1::allocator<char> >, std::__ndk1::__value_type<std::__ndk1::basic_string<char, std::__ndk1::char_traits<char>, std::__ndk1::allocator<char> >, std::__ndk1::shared_ptr<geode::Hook> >, std::__ndk1::less<std::__ndk1::basic_string<char, std::__ndk1::char_traits<char>, std::__ndk1::allocator<char> > >, true>, std::__ndk1::allocator<std::__ndk1::__value_type<std::__ndk1::basic_string<char, std::__ndk1::char_traits<char>, std::__ndk1::allocator<char> >, std::__ndk1::shared_ptr<geode::Hook> > > >::__emplace_unique_key_args<std::__ndk1::basic_string<char, std::__ndk1::char_traits<char>, std::__ndk1::allocator<char> >, std::__ndk1::piecewise_construct_t const&, std::__ndk1::tuple<std::__ndk1::basic_string<char, std::__ndk1::char_traits<char>, std::__ndk1::allocator<char> >&&>, std::__ndk1::tuple<> >(std::__ndk1::basic_string<char, std::__ndk1::char_traits<char>, std::__ndk1::allocator<char> > const&, std::__ndk1::piecewise_construct_t const&, std::__ndk1::tuple<std::__ndk1::basic_string<char, std::__ndk1::char_traits<char>, std::__ndk1::allocator<char> >&&>, std::__ndk1::tuple<>)
PUBLIC 20df0 0 std::__ndk1::__tree_balance_after_insert[abi:ne180000]<std::__ndk1::__tree_node_base<void*>*>(std::__ndk1::__tree_node_base<void*>*, std::__ndk1::__tree_node_base<void*>*)
PUBLIC 20fa0 0 std::__ndk1::vector<NLWRating, std::__ndk1::allocator<NLWRating> >::~vector[abi:ne180000]()
PUBLIC 21008 0 geode::Task<geode::utils::web::WebResponse, geode::utils::web::WebProgress>::~Task()
PUBLIC 21058 0 geode::EventListener<geode::Task<geode::utils::web::WebResponse, geode::utils::web::WebProgress> >::~EventListener()
PUBLIC 210f4 0 ListManager::throwError(std::__ndk1::basic_string<char, std::__ndk1::char_traits<char>, std::__ndk1::allocator<char> >)
PUBLIC 21384 0 geode::impl::ResultData<std::__ndk1::vector<matjson::Value, std::__ndk1::allocator<matjson::Value> >&, std::__ndk1::basic_string<char, std::__ndk1::char_traits<char>, std::__ndk1::allocator<char> > >::~ResultData()
PUBLIC 213f8 0 std::__ndk1::vector<matjson::Value, std::__ndk1::allocator<matjson::Value> >::~vector[abi:ne180000]()
PUBLIC 21460 0 ListManager::init()
PUBLIC 21a64 0 ListManager::getRating(GJGameLevel*)
PUBLIC 21c40 0 NLWRating::NLWRating(NLWRating const&)
PUBLIC 21e90 0 ListManager::getTierColor(std::__ndk1::basic_string<char, std::__ndk1::char_traits<char>, std::__ndk1::allocator<char> >)
PUBLIC 22250 0 std::__ndk1::operator==[abi:ne180000]<char, std::__ndk1::char_traits<char>, std::__ndk1::allocator<char> >(std::__ndk1::basic_string<char, std::__ndk1::char_traits<char>, std::__ndk1::allocator<char> > const&, std::__ndk1::basic_string const*)
PUBLIC 222d0 0 ListManager::getRatingLink(NLWRating)
PUBLIC 22644 0 ListManager::getSearchObject(std::__ndk1::basic_string<char, std::__ndk1::char_traits<char>, std::__ndk1::allocator<char> >)
PUBLIC 22b7c 0 geode::EventListener<geode::Task<geode::utils::web::WebResponse, geode::utils::web::WebProgress> >::getPool() const
PUBLIC 22b80 0 geode::EventListener<geode::Task<geode::utils::web::WebResponse, geode::utils::web::WebProgress> >::handle(geode::Event*)
PUBLIC 22d24 0 geode::EventListener<geode::Task<geode::utils::web::WebResponse, geode::utils::web::WebProgress> >::~EventListener()
PUBLIC 22dc8 0 geode::cast::traverseTypeinfoFor(void*, geode::cast::ClassTypeinfoType const*, char const*)
PUBLIC 22ec4 0 std::__ndk1::__throw_bad_function_call[abi:ne180000]()
PUBLIC 22ef8 0 std::__ndk1::bad_function_call::~bad_function_call()
PUBLIC 22f1c 0 _ZN5geode15UnwrapExceptionC2IRNSt6__ndk112basic_stringIcNS2_11char_traitsIcEENS2_9allocatorIcEEEEQsr4implE18IsStringStreamableIT_EEENS_4impl6ErrTagEOSA_
PUBLIC 23084 0 std::__ndk1::__exception_guard_exceptions<std::__ndk1::vector<matjson::Value, std::__ndk1::allocator<matjson::Value> >::__destroy_vector>::~__exception_guard_exceptions[abi:ne180000]()
PUBLIC 23100 0 std::__ndk1::vector<matjson::Value, std::__ndk1::allocator<matjson::Value> >::__throw_length_error[abi:ne180000]() const
PUBLIC 23114 0 std::__ndk1::__variant_detail::__visitation::__base::__dispatcher<(unsigned long)0>::__dispatch[abi:ne180000]<std::__ndk1::__variant_detail::__dtor<std::__ndk1::__variant_detail::__traits<std::__ndk1::reference_wrapper<std::__ndk1::vector<matjson::Value, std::__ndk1::allocator<matjson> > >, std::__ndk1::basic_string<char, std::__ndk1::char_traits<char>, matjson::Value<char> > >, (std::__ndk1::__variant_detail::_Trait)1>::__destroy[abi:ne180000]()::{lambda(auto:1&)#1}, std::__ndk1::__variant_detail::__base<(std::__ndk1::__variant_detail::__traits<std::__ndk1::reference_wrapper<std::__ndk1::vector<matjson::Value, std::__ndk1::allocator<matjson> > >, std::__ndk1::basic_string<char, std::__ndk1::char_traits<char>, matjson::Value<char> > >)1, std::__ndk1::vector<matjson::Value, std::__ndk1::allocator<matjson> >, matjson::Value<char> >&>(std::__ndk1::__variant_detail::__dtor<std::__ndk1::__variant_detail::__traits<std::__ndk1::reference_wrapper<std::__ndk1::vector<matjson::Value, std::__ndk1::allocator<matjson> > >, std::__ndk1::basic_string<char, std::__ndk1::char_traits<char>, matjson::Value<char> > >, (std::__ndk1::__variant_detail::_Trait)1>, std::__ndk1::__variant_detail::__base<(std::__ndk1::__variant_detail::__traits<std::__ndk1::reference_wrapper<std::__ndk1::vector<matjson::Value, std::__ndk1::allocator<matjson> > >, std::__ndk1::basic_string<char, std::__ndk1::char_traits<char>, matjson::Value<char> > >)1, std::__ndk1::vector<matjson::Value, std::__ndk1::allocator<matjson> >, matjson::Value<char> >&)
PUBLIC 23118 0 std::__ndk1::__variant_detail::__visitation::__base::__dispatcher<(unsigned long)1>::__dispatch[abi:ne180000]<std::__ndk1::__variant_detail::__dtor<std::__ndk1::__variant_detail::__traits<std::__ndk1::reference_wrapper<std::__ndk1::vector<matjson::Value, std::__ndk1::allocator<matjson> > >, std::__ndk1::basic_string<char, std::__ndk1::char_traits<char>, matjson::Value<char> > >, (std::__ndk1::__variant_detail::_Trait)1>::__destroy[abi:ne180000]()::{lambda(auto:1&)#1}, std::__ndk1::__variant_detail::__base<(std::__ndk1::__variant_detail::__traits<std::__ndk1::reference_wrapper<std::__ndk1::vector<matjson::Value, std::__ndk1::allocator<matjson> > >, std::__ndk1::basic_string<char, std::__ndk1::char_traits<char>, matjson::Value<char> > >)1, std::__ndk1::vector<matjson::Value, std::__ndk1::allocator<matjson> >, matjson::Value<char> >&>(std::__ndk1::__variant_detail::__dtor<std::__ndk1::__variant_detail::__traits<std::__ndk1::reference_wrapper<std::__ndk1::vector<matjson::Value, std::__ndk1::allocator<matjson> > >, std::__ndk1::basic_string<char, std::__ndk1::char_traits<char>, matjson::Value<char> > >, (std::__ndk1::__variant_detail::_Trait)1>, std::__ndk1::__variant_detail::__base<(std::__ndk1::__variant_detail::__traits<std::__ndk1::reference_wrapper<std::__ndk1::vector<matjson::Value, std::__ndk1::allocator<matjson> > >, std::__ndk1::basic_string<char, std::__ndk1::char_traits<char>, matjson::Value<char> > >)1, std::__ndk1::vector<matjson::Value, std::__ndk1::allocator<matjson> >, matjson::Value<char> >&)
PUBLIC 2312c 0 std::__ndk1::__split_buffer<NLWRating, std::__ndk1::allocator<NLWRating>&>::~__split_buffer()
PUBLIC 23180 0 std::__ndk1::vector<NLWRating, std::__ndk1::allocator<NLWRating> >::__throw_length_error[abi:ne180000]() const
PUBLIC 23194 0 geode::Task<geode::utils::web::WebResponse, geode::utils::web::WebProgress>::setListener(geode::EventListenerProtocol*)
PUBLIC 233b0 0 geode::Task<geode::utils::web::WebResponse, geode::utils::web::WebProgress>::setListener(geode::EventListenerProtocol*)::{lambda()#1}::~{lambda()#1}()
PUBLIC 23400 0 geode::Task<geode::utils::web::WebResponse, geode::utils::web::WebProgress>::setListener(geode::EventListenerProtocol*)::{lambda()#2}::~{lambda()#2}()
PUBLIC 23450 0 std::__ndk1::__function::__func<geode::Task<geode::utils::web::WebResponse, geode::utils::web::WebProgress>::setListener(geode::EventListenerProtocol*)::{lambda()#1}, std::__ndk1::allocator<geode::Task<geode::utils::web::WebResponse, geode::utils::web::WebProgress>::setListener(geode::EventListenerProtocol*)::{lambda()#1}>, void ()>::~__func()
PUBLIC 234ac 0 std::__ndk1::__function::__func<geode::Task<geode::utils::web::WebResponse, geode::utils::web::WebProgress>::setListener(geode::EventListenerProtocol*)::{lambda()#1}, std::__ndk1::allocator<geode::Task<geode::utils::web::WebResponse, geode::utils::web::WebProgress>::setListener(geode::EventListenerProtocol*)::{lambda()#1}>, void ()>::~__func()
PUBLIC 23518 0 std::__ndk1::__function::__func<geode::Task<geode::utils::web::WebResponse, geode::utils::web::WebProgress>::setListener(geode::EventListenerProtocol*)::{lambda()#1}, std::__ndk1::allocator<geode::Task<geode::utils::web::WebResponse, geode::utils::web::WebProgress>::setListener(geode::EventListenerProtocol*)::{lambda()#1}>, void ()>::__clone() const
PUBLIC 23570 0 std::__ndk1::__function::__func<geode::Task<geode::utils::web::WebResponse, geode::utils::web::WebProgress>::setListener(geode::EventListenerProtocol*)::{lambda()#1}, std::__ndk1::allocator<geode::Task<geode::utils::web::WebResponse, geode::utils::web::WebProgress>::setListener(geode::EventListenerProtocol*)::{lambda()#1}>, void ()>::__clone(std::__ndk1::__function::__base<void ()>*) const
PUBLIC 235bc 0 std::__ndk1::__function::__func<geode::Task<geode::utils::web::WebResponse, geode::utils::web::WebProgress>::setListener(geode::EventListenerProtocol*)::{lambda()#1}, std::__ndk1::allocator<geode::Task<geode::utils::web::WebResponse, geode::utils::web::WebProgress>::setListener(geode::EventListenerProtocol*)::{lambda()#1}>, void ()>::destroy()
PUBLIC 2360c 0 std::__ndk1::__function::__func<geode::Task<geode::utils::web::WebResponse, geode::utils::web::WebProgress>::setListener(geode::EventListenerProtocol*)::{lambda()#1}, std::__ndk1::allocator<geode::Task<geode::utils::web::WebResponse, geode::utils::web::WebProgress>::setListener(geode::EventListenerProtocol*)::{lambda()#1}>, void ()>::destroy_deallocate()
PUBLIC 2366c 0 std::__ndk1::__function::__func<geode::Task<geode::utils::web::WebResponse, geode::utils::web::WebProgress>::setListener(geode::EventListenerProtocol*)::{lambda()#1}, std::__ndk1::allocator<geode::Task<geode::utils::web::WebResponse, geode::utils::web::WebProgress>::setListener(geode::EventListenerProtocol*)::{lambda()#1}>, void ()>::operator()()
PUBLIC 2383c 0 std::__ndk1::__function::__func<geode::Task<geode::utils::web::WebResponse, geode::utils::web::WebProgress>::setListener(geode::EventListenerProtocol*)::{lambda()#1}, std::__ndk1::allocator<geode::Task<geode::utils::web::WebResponse, geode::utils::web::WebProgress>::setListener(geode::EventListenerProtocol*)::{lambda()#1}>, void ()>::target(std::type_info const&) const
PUBLIC 23858 0 std::__ndk1::__function::__func<geode::Task<geode::utils::web::WebResponse, geode::utils::web::WebProgress>::setListener(geode::EventListenerProtocol*)::{lambda()#1}, std::__ndk1::allocator<geode::Task<geode::utils::web::WebResponse, geode::utils::web::WebProgress>::setListener(geode::EventListenerProtocol*)::{lambda()#1}>, void ()>::target_type() const
PUBLIC 23864 0 geode::Task<geode::utils::web::WebResponse, geode::utils::web::WebProgress>::Event::~Event()
PUBLIC 238c4 0 geode::Task<geode::utils::web::WebResponse, geode::utils::web::WebProgress>::Event::~Event()
PUBLIC 23934 0 std::__ndk1::__function::__func<geode::Task<geode::utils::web::WebResponse, geode::utils::web::WebProgress>::setListener(geode::EventListenerProtocol*)::{lambda()#2}, std::__ndk1::allocator<geode::Task<geode::utils::web::WebResponse, geode::utils::web::WebProgress>::setListener(geode::EventListenerProtocol*)::{lambda()#2}>, void ()>::~__func()
PUBLIC 23990 0 std::__ndk1::__function::__func<geode::Task<geode::utils::web::WebResponse, geode::utils::web::WebProgress>::setListener(geode::EventListenerProtocol*)::{lambda()#2}, std::__ndk1::allocator<geode::Task<geode::utils::web::WebResponse, geode::utils::web::WebProgress>::setListener(geode::EventListenerProtocol*)::{lambda()#2}>, void ()>::~__func()
PUBLIC 239fc 0 std::__ndk1::__function::__func<geode::Task<geode::utils::web::WebResponse, geode::utils::web::WebProgress>::setListener(geode::EventListenerProtocol*)::{lambda()#2}, std::__ndk1::allocator<geode::Task<geode::utils::web::WebResponse, geode::utils::web::WebProgress>::setListener(geode::EventListenerProtocol*)::{lambda()#2}>, void ()>::__clone() const
PUBLIC 23a54 0 std::__ndk1::__function::__func<geode::Task<geode::utils::web::WebResponse, geode::utils::web::WebProgress>::setListener(geode::EventListenerProtocol*)::{lambda()#2}, std::__ndk1::allocator<geode::Task<geode::utils::web::WebResponse, geode::utils::web::WebProgress>::setListener(geode::EventListenerProtocol*)::{lambda()#2}>, void ()>::__clone(std::__ndk1::__function::__base<void ()>*) const
PUBLIC 23aa0 0 std::__ndk1::__function::__func<geode::Task<geode::utils::web::WebResponse, geode::utils::web::WebProgress>::setListener(geode::EventListenerProtocol*)::{lambda()#2}, std::__ndk1::allocator<geode::Task<geode::utils::web::WebResponse, geode::utils::web::WebProgress>::setListener(geode::EventListenerProtocol*)::{lambda()#2}>, void ()>::destroy()
PUBLIC 23af0 0 std::__ndk1::__function::__func<geode::Task<geode::utils::web::WebResponse, geode::utils::web::WebProgress>::setListener(geode::EventListenerProtocol*)::{lambda()#2}, std::__ndk1::allocator<geode::Task<geode::utils::web::WebResponse, geode::utils::web::WebProgress>::setListener(geode::EventListenerProtocol*)::{lambda()#2}>, void ()>::destroy_deallocate()
PUBLIC 23b50 0 std::__ndk1::__function::__func<geode::Task<geode::utils::web::WebResponse, geode::utils::web::WebProgress>::setListener(geode::EventListenerProtocol*)::{lambda()#2}, std::__ndk1::allocator<geode::Task<geode::utils::web::WebResponse, geode::utils::web::WebProgress>::setListener(geode::EventListenerProtocol*)::{lambda()#2}>, void ()>::operator()()
PUBLIC 23d14 0 std::__ndk1::__function::__func<geode::Task<geode::utils::web::WebResponse, geode::utils::web::WebProgress>::setListener(geode::EventListenerProtocol*)::{lambda()#2}, std::__ndk1::allocator<geode::Task<geode::utils::web::WebResponse, geode::utils::web::WebProgress>::setListener(geode::EventListenerProtocol*)::{lambda()#2}>, void ()>::target(std::type_info const&) const
PUBLIC 23d30 0 std::__ndk1::__function::__func<geode::Task<geode::utils::web::WebResponse, geode::utils::web::WebProgress>::setListener(geode::EventListenerProtocol*)::{lambda()#2}, std::__ndk1::allocator<geode::Task<geode::utils::web::WebResponse, geode::utils::web::WebProgress>::setListener(geode::EventListenerProtocol*)::{lambda()#2}>, void ()>::target_type() const
PUBLIC 23d3c 0 std::__ndk1::__function::__base<void (geode::Task<geode::utils::web::WebResponse, geode::utils::web::WebProgress>::Event*)>::~__base()
PUBLIC 23d40 0 std::__ndk1::__function::__func<ListManager::init()::$_0, std::__ndk1::allocator<ListManager::init()::$_0>, void (geode::Task<geode::utils::web::WebResponse, geode::utils::web::WebProgress>::Event*)>::~__func()
PUBLIC 23d44 0 std::__ndk1::__function::__func<ListManager::init()::$_0, std::__ndk1::allocator<ListManager::init()::$_0>, void (geode::Task<geode::utils::web::WebResponse, geode::utils::web::WebProgress>::Event*)>::__clone() const
PUBLIC 23d68 0 std::__ndk1::__function::__func<ListManager::init()::$_0, std::__ndk1::allocator<ListManager::init()::$_0>, void (geode::Task<geode::utils::web::WebResponse, geode::utils::web::WebProgress>::Event*)>::__clone(std::__ndk1::__function::__base<void (geode::Task<geode::utils::web::WebResponse, geode::utils::web::WebProgress>::Event*)>*) const
PUBLIC 23d78 0 std::__ndk1::__function::__func<ListManager::init()::$_0, std::__ndk1::allocator<ListManager::init()::$_0>, void (geode::Task<geode::utils::web::WebResponse, geode::utils::web::WebProgress>::Event*)>::destroy()
PUBLIC 23d7c 0 std::__ndk1::__function::__func<ListManager::init()::$_0, std::__ndk1::allocator<ListManager::init()::$_0>, void (geode::Task<geode::utils::web::WebResponse, geode::utils::web::WebProgress>::Event*)>::destroy_deallocate()
PUBLIC 23d80 0 std::__ndk1::__function::__func<ListManager::init()::$_0, std::__ndk1::allocator<ListManager::init()::$_0>, void (geode::Task<geode::utils::web::WebResponse, geode::utils::web::WebProgress>::Event*)>::operator()(geode::Task<geode::utils::web::WebResponse, geode::utils::web::WebProgress>::Event*&&)
PUBLIC 2486c 0 std::__ndk1::__function::__func<ListManager::init()::$_0, std::__ndk1::allocator<ListManager::init()::$_0>, void (geode::Task<geode::utils::web::WebResponse, geode::utils::web::WebProgress>::Event*)>::target(std::type_info const&) const
PUBLIC 24888 0 std::__ndk1::__function::__func<ListManager::init()::$_0, std::__ndk1::allocator<ListManager::init()::$_0>, void (geode::Task<geode::utils::web::WebResponse, geode::utils::web::WebProgress>::Event*)>::target_type() const
PUBLIC 24894 0 geode::impl::ResultData<std::__ndk1::basic_string<char, std::__ndk1::char_traits<char>, std::__ndk1::allocator<char> >, std::__ndk1::basic_string<char, std::__ndk1::char_traits<char>, std::__ndk1::allocator<char> > >::~ResultData()
PUBLIC 24908 0 geode::impl::ResultData<matjson::Value, std::__ndk1::basic_string<char, std::__ndk1::char_traits<char>, std::__ndk1::allocator<char> > >::~ResultData()
PUBLIC 2497c 0 std::__ndk1::__variant_detail::__visitation::__base::__dispatcher<(unsigned long)0>::__dispatch[abi:ne180000]<std::__ndk1::__variant_detail::__dtor<std::__ndk1::__variant_detail::__traits<std::__ndk1::basic_string<char, std::__ndk1::char_traits<char>, std::__ndk1::allocator<char> >, std::__ndk1::allocator<char> >, (std::__ndk1::__variant_detail::_Trait)1>::__destroy[abi:ne180000]()::{lambda(auto:1&)#1}, std::__ndk1::__variant_detail::__base<(std::__ndk1::__variant_detail::__traits<std::__ndk1::basic_string<char, std::__ndk1::char_traits<char>, std::__ndk1::allocator<char> >, std::__ndk1::allocator<char> >)1, std::__ndk1::allocator<char>, std::__ndk1::allocator<char> >&>(std::__ndk1::__variant_detail::__dtor<std::__ndk1::__variant_detail::__traits<std::__ndk1::basic_string<char, std::__ndk1::char_traits<char>, std::__ndk1::allocator<char> >, std::__ndk1::allocator<char> >, (std::__ndk1::__variant_detail::_Trait)1>, std::__ndk1::__variant_detail::__base<(std::__ndk1::__variant_detail::__traits<std::__ndk1::basic_string<char, std::__ndk1::char_traits<char>, std::__ndk1::allocator<char> >, std::__ndk1::allocator<char> >)1, std::__ndk1::allocator<char>, std::__ndk1::allocator<char> >&)
PUBLIC 24990 0 std::__ndk1::__variant_detail::__visitation::__base::__dispatcher<(unsigned long)1>::__dispatch[abi:ne180000]<std::__ndk1::__variant_detail::__dtor<std::__ndk1::__variant_detail::__traits<std::__ndk1::basic_string<char, std::__ndk1::char_traits<char>, std::__ndk1::allocator<char> >, std::__ndk1::allocator<char> >, (std::__ndk1::__variant_detail::_Trait)1>::__destroy[abi:ne180000]()::{lambda(auto:1&)#1}, std::__ndk1::__variant_detail::__base<(std::__ndk1::__variant_detail::__traits<std::__ndk1::basic_string<char, std::__ndk1::char_traits<char>, std::__ndk1::allocator<char> >, std::__ndk1::allocator<char> >)1, std::__ndk1::allocator<char>, std::__ndk1::allocator<char> >&>(std::__ndk1::__variant_detail::__dtor<std::__ndk1::__variant_detail::__traits<std::__ndk1::basic_string<char, std::__ndk1::char_traits<char>, std::__ndk1::allocator<char> >, std::__ndk1::allocator<char> >, (std::__ndk1::__variant_detail::_Trait)1>, std::__ndk1::__variant_detail::__base<(std::__ndk1::__variant_detail::__traits<std::__ndk1::basic_string<char, std::__ndk1::char_traits<char>, std::__ndk1::allocator<char> >, std::__ndk1::allocator<char> >)1, std::__ndk1::allocator<char>, std::__ndk1::allocator<char> >&)
PUBLIC 249a4 0 std::__ndk1::__variant_detail::__visitation::__base::__dispatcher<(unsigned long)0>::__dispatch[abi:ne180000]<std::__ndk1::__variant_detail::__dtor<std::__ndk1::__variant_detail::__traits<matjson::Value, std::__ndk1::basic_string<char, std::__ndk1::char_traits<char>, std::__ndk1::allocator<char> > >, (std::__ndk1::__variant_detail::_Trait)1>::__destroy[abi:ne180000]()::{lambda(auto:1&)#1}, std::__ndk1::__variant_detail::__base<(std::__ndk1::__variant_detail::__traits<matjson::Value, std::__ndk1::basic_string<char, std::__ndk1::char_traits<char>, std::__ndk1::allocator<char> > >)1, matjson, std::__ndk1::allocator<char> >&>(std::__ndk1::__variant_detail::__dtor<std::__ndk1::__variant_detail::__traits<matjson::Value, std::__ndk1::basic_string<char, std::__ndk1::char_traits<char>, std::__ndk1::allocator<char> > >, (std::__ndk1::__variant_detail::_Trait)1>, std::__ndk1::__variant_detail::__base<(std::__ndk1::__variant_detail::__traits<matjson::Value, std::__ndk1::basic_string<char, std::__ndk1::char_traits<char>, std::__ndk1::allocator<char> > >)1, matjson, std::__ndk1::allocator<char> >&)
PUBLIC 249ac 0 std::__ndk1::__variant_detail::__visitation::__base::__dispatcher<(unsigned long)1>::__dispatch[abi:ne180000]<std::__ndk1::__variant_detail::__dtor<std::__ndk1::__variant_detail::__traits<matjson::Value, std::__ndk1::basic_string<char, std::__ndk1::char_traits<char>, std::__ndk1::allocator<char> > >, (std::__ndk1::__variant_detail::_Trait)1>::__destroy[abi:ne180000]()::{lambda(auto:1&)#1}, std::__ndk1::__variant_detail::__base<(std::__ndk1::__variant_detail::__traits<matjson::Value, std::__ndk1::basic_string<char, std::__ndk1::char_traits<char>, std::__ndk1::allocator<char> > >)1, matjson, std::__ndk1::allocator<char> >&>(std::__ndk1::__variant_detail::__dtor<std::__ndk1::__variant_detail::__traits<matjson::Value, std::__ndk1::basic_string<char, std::__ndk1::char_traits<char>, std::__ndk1::allocator<char> > >, (std::__ndk1::__variant_detail::_Trait)1>, std::__ndk1::__variant_detail::__base<(std::__ndk1::__variant_detail::__traits<matjson::Value, std::__ndk1::basic_string<char, std::__ndk1::char_traits<char>, std::__ndk1::allocator<char> > >)1, matjson, std::__ndk1::allocator<char> >&)
PUBLIC 249c0 0 _GLOBAL__sub_I_ListManager.cpp
PUBLIC 24adc 0 NLWInfoPopupLayer::setup(GJGameLevel*, NLWRating*)
PUBLIC 25460 0 NLWInfoPopupLayer::openTierLevels(cocos2d::CCObject*)
PUBLIC 25568 0 NLWInfoPopupLayer::onOpen(cocos2d::CCObject*)
PUBLIC 256e0 0 NLWInfoPopupLayer::create(GJGameLevel*, NLWRating*)
PUBLIC 2585c 0 cocos2d::CCCopying::copyWithZone(cocos2d::CCZone*)
PUBLIC 25864 0 geode::Popup<GJGameLevel*, NLWRating*>::~Popup()
PUBLIC 258d0 0 NLWInfoPopupLayer::~NLWInfoPopupLayer()
PUBLIC 25944 0 geode::Popup<GJGameLevel*, NLWRating*>::registerWithTouchDispatcher()
PUBLIC 25970 0 geode::Popup<GJGameLevel*, NLWRating*>::keyDown(cocos2d::enumKeyCodes)
PUBLIC 25998 0 cocos2d::CCLayerRGBA::setOpacityModifyRGB(bool)
PUBLIC 2599c 0 cocos2d::CCLayerRGBA::isOpacityModifyRGB()
PUBLIC 259a4 0 geode::Popup<GJGameLevel*, NLWRating*>::onClose(cocos2d::CCObject*)
PUBLIC 25aec 0 {virtual override thunk({offset(-320)}, NLWInfoPopupLayer::~NLWInfoPopupLayer())}
PUBLIC 25b58 0 {virtual override thunk({offset(-320)}, NLWInfoPopupLayer::~NLWInfoPopupLayer())}
PUBLIC 25bcc 0 {virtual override thunk({offset(-344)}, geode::Popup<GJGameLevel*, NLWRating*>::keyDown(cocos2d::enumKeyCodes))}
PUBLIC 25bf8 0 cocos2d::CCKeyboardDelegate::keyUp(cocos2d::enumKeyCodes)
PUBLIC 25bfc 0 cocos2d::CCMouseDelegate::rightKeyDown()
PUBLIC 25c00 0 cocos2d::CCMouseDelegate::rightKeyUp()
PUBLIC 25c04 0 cocos2d::CCMouseDelegate::scrollWheel(float, float)
PUBLIC 25c08 0 {virtual override thunk({offset(-408)}, cocos2d::CCLayerRGBA::setOpacityModifyRGB(bool))}
PUBLIC 25c0c 0 {virtual override thunk({offset(-408)}, cocos2d::CCLayerRGBA::isOpacityModifyRGB())}
PUBLIC 25c14 0 geode::Popup<GJGameLevel*, NLWRating*>::~Popup()
PUBLIC 25c18 0 {virtual override thunk({offset(-320)}, geode::Popup<GJGameLevel*, NLWRating*>::~Popup())}
PUBLIC 25c84 0 {virtual override thunk({offset(-320)}, geode::Popup<GJGameLevel*, NLWRating*>::~Popup())}
PUBLIC 25c88 0 geode::Popup<GJGameLevel*, NLWRating*>::initBase(float, float, GJGameLevel*, NLWRating*, char const*, cocos2d::CCRect, bool)
PUBLIC 25f8c 0 geode::Popup<GJGameLevel*, NLWRating*>::CloseEvent::~CloseEvent()
PUBLIC 25fec 0 geode::Popup<GJGameLevel*, NLWRating*>::CloseEvent::~CloseEvent()
PUBLIC 2605c 0 std::__ndk1::__shared_ptr_emplace<geode::Popup<GJGameLevel*, NLWRating*>::CloseEvent::Impl, std::__ndk1::allocator<geode::Popup<GJGameLevel*, NLWRating*>::CloseEvent::Impl> >::~__shared_ptr_emplace()
PUBLIC 2606c 0 std::__ndk1::__shared_ptr_emplace<geode::Popup<GJGameLevel*, NLWRating*>::CloseEvent::Impl, std::__ndk1::allocator<geode::Popup<GJGameLevel*, NLWRating*>::CloseEvent::Impl> >::~__shared_ptr_emplace()
PUBLIC 2609c 0 std::__ndk1::__shared_ptr_emplace<geode::Popup<GJGameLevel*, NLWRating*>::CloseEvent::Impl, std::__ndk1::allocator<geode::Popup<GJGameLevel*, NLWRating*>::CloseEvent::Impl> >::__on_zero_shared()
PUBLIC 260a0 0 std::__ndk1::__shared_ptr_emplace<geode::Popup<GJGameLevel*, NLWRating*>::CloseEvent::Impl, std::__ndk1::allocator<geode::Popup<GJGameLevel*, NLWRating*>::CloseEvent::Impl> >::__on_zero_shared_weak()
PUBLIC 260a4 0 NLWRating::NLWRating(matjson::Value)
PUBLIC 26880 0 std::__ndk1::__variant_detail::__visitation::__base::__dispatcher<(unsigned long)0>::__dispatch[abi:ne180000]<std::__ndk1::__variant_detail::__dtor<std::__ndk1::__variant_detail::__traits<long, std::__ndk1::basic_string<char, std::__ndk1::char_traits<char>, std::__ndk1::allocator<char> > >, (std::__ndk1::__variant_detail::_Trait)1>::__destroy[abi:ne180000]()::{lambda(auto:1&)#1}, std::__ndk1::__variant_detail::__base<(std::__ndk1::__variant_detail::__traits<long, std::__ndk1::basic_string<char, std::__ndk1::char_traits<char>, std::__ndk1::allocator<char> > >)1, long, std::__ndk1::allocator<char> >&>(std::__ndk1::__variant_detail::__dtor<std::__ndk1::__variant_detail::__traits<long, std::__ndk1::basic_string<char, std::__ndk1::char_traits<char>, std::__ndk1::allocator<char> > >, (std::__ndk1::__variant_detail::_Trait)1>, std::__ndk1::__variant_detail::__base<(std::__ndk1::__variant_detail::__traits<long, std::__ndk1::basic_string<char, std::__ndk1::char_traits<char>, std::__ndk1::allocator<char> > >)1, long, std::__ndk1::allocator<char> >&)
PUBLIC 26884 0 std::__ndk1::__variant_detail::__visitation::__base::__dispatcher<(unsigned long)1>::__dispatch[abi:ne180000]<std::__ndk1::__variant_detail::__dtor<std::__ndk1::__variant_detail::__traits<long, std::__ndk1::basic_string<char, std::__ndk1::char_traits<char>, std::__ndk1::allocator<char> > >, (std::__ndk1::__variant_detail::_Trait)1>::__destroy[abi:ne180000]()::{lambda(auto:1&)#1}, std::__ndk1::__variant_detail::__base<(std::__ndk1::__variant_detail::__traits<long, std::__ndk1::basic_string<char, std::__ndk1::char_traits<char>, std::__ndk1::allocator<char> > >)1, long, std::__ndk1::allocator<char> >&>(std::__ndk1::__variant_detail::__dtor<std::__ndk1::__variant_detail::__traits<long, std::__ndk1::basic_string<char, std::__ndk1::char_traits<char>, std::__ndk1::allocator<char> > >, (std::__ndk1::__variant_detail::_Trait)1>, std::__ndk1::__variant_detail::__base<(std::__ndk1::__variant_detail::__traits<long, std::__ndk1::basic_string<char, std::__ndk1::char_traits<char>, std::__ndk1::allocator<char> > >)1, long, std::__ndk1::allocator<char> >&)
PUBLIC 26898 0 std::__ndk1::function<geode::TextRenderer::Label(int)>::~function()
PUBLIC 268d0 0 PlainTextArea::init(std::__ndk1::basic_string<char, std::__ndk1::char_traits<char>, std::__ndk1::allocator<char> > const&, cocos2d::CCSize const&)
PUBLIC 26b2c 0 PlainTextArea::updateLabel()
PUBLIC 26ca4 0 PlainTextArea::~PlainTextArea()
PUBLIC 26d1c 0 {virtual override thunk({offset(-320)}, PlainTextArea::~PlainTextArea())}
PUBLIC 26d98 0 PlainTextArea::~PlainTextArea()
PUBLIC 26e18 0 {virtual override thunk({offset(-320)}, PlainTextArea::~PlainTextArea())}
PUBLIC 26e9c 0 PlainTextArea::setString(char const*)
PUBLIC 26ec4 0 {virtual override thunk({offset(-408)}, PlainTextArea::setString(char const*))}
PUBLIC 26eec 0 PlainTextArea::getString()
PUBLIC 26f04 0 {virtual override thunk({offset(-408)}, PlainTextArea::getString())}
PUBLIC 26f1c 0 std::__ndk1::basic_string<char, std::__ndk1::char_traits<char>, std::__ndk1::allocator<char> >::__assign_external(char const*, unsigned long)
PUBLIC 27044 0 std::__ndk1::basic_string<char, std::__ndk1::char_traits<char>, std::__ndk1::allocator<char> >::__assign_external(char const*)
PUBLIC 27078 0 std::__ndk1::__function::__base<geode::TextRenderer::Label(int)>::~__base()
PUBLIC 2707c 0 std::__ndk1::__function::__func<$_0, std::__ndk1::allocator<$_0>, geode::TextRenderer::Label(int)>::~__func()
PUBLIC 27080 0 std::__ndk1::__function::__func<$_0, std::__ndk1::allocator<$_0>, geode::TextRenderer::Label(int)>::__clone() const
PUBLIC 270a4 0 std::__ndk1::__function::__func<$_0, std::__ndk1::allocator<$_0>, geode::TextRenderer::Label(int)>::__clone(std::__ndk1::__function::__base<geode::TextRenderer::Label(int)>*) const
PUBLIC 270b4 0 std::__ndk1::__function::__func<$_0, std::__ndk1::allocator<$_0>, geode::TextRenderer::Label(int)>::destroy()
PUBLIC 270b8 0 std::__ndk1::__function::__func<$_0, std::__ndk1::allocator<$_0>, geode::TextRenderer::Label(int)>::destroy_deallocate()
PUBLIC 270bc 0 std::__ndk1::__function::__func<$_0, std::__ndk1::allocator<$_0>, geode::TextRenderer::Label(int)>::operator()(int&&)
PUBLIC 2712c 0 std::__ndk1::__function::__func<$_0, std::__ndk1::allocator<$_0>, geode::TextRenderer::Label(int)>::target(std::type_info const&) const
PUBLIC 27148 0 std::__ndk1::__function::__func<$_0, std::__ndk1::allocator<$_0>, geode::TextRenderer::Label(int)>::target_type() const
PUBLIC 27154 0 _GLOBAL__sub_I_PlainTextArea.cpp
PUBLIC 27180 0 __cxx_global_var_init
PUBLIC 275bc 0 geode::modifier::ModifyBase<geode::modifier::ModifyDerive<hook7<(anonymous namespace)::hook7Parent>, MenuLayer> >::~ModifyBase()
PUBLIC 275d8 0 geode::modifier::ModifyDerive<hook7<(anonymous namespace)::hook7Parent>, MenuLayer>::apply()
PUBLIC 278e0 0 geode::modifier::ModifyBase<geode::modifier::ModifyDerive<hook7<(anonymous namespace)::hook7Parent>, MenuLayer> >::apply()
PUBLIC 278e4 0 geode::modifier::AsStaticFunction_init<hook7<(anonymous namespace)::hook7Parent>, bool (hook7<(anonymous namespace)::hook7Parent>::*)()>::Impl<bool (hook7<(anonymous namespace)::hook7Parent>::*)()>::function(hook7<(anonymous namespace)::hook7Parent>*)
PUBLIC 27910 0 geode::addresser::Addresser::addressOfVirtual<bool, MenuLayer, >(bool (MenuLayer::*)())
PUBLIC 279b8 0 MenuLayer::MenuLayer(geode::ZeroConstructorType)
PUBLIC m 27a54 0 geodeImplicitEntry
PUBLIC 27a90 0 cocos2d::CCDestructor::~CCDestructor()
PUBLIC 27d4c 0 wrapFunction(unsigned long, tulip::hook::WrapperMetadata const&)
PUBLIC 27e80 0 geode::impl::ResultData<void*, std::__ndk1::basic_string<char, std::__ndk1::char_traits<char>, std::__ndk1::allocator<char> > >::unwrapErr() &
PUBLIC 27ef8 0 geode::impl::ResultData<void*, std::__ndk1::basic_string<char, std::__ndk1::char_traits<char>, std::__ndk1::allocator<char> > >::~ResultData()
PUBLIC 27f6c 0 tulip::hook::WrapperMetadata::~WrapperMetadata()
PUBLIC 27fd0 0 cocos2d::CCObject::CCObject()
PUBLIC 2813c 0 cocos2d::CCNode::CCNode()
PUBLIC 282d0 0 cocos2d::CCNode::~CCNode()
PUBLIC 282f4 0 cocos2d::CCLayer::CCLayer()
PUBLIC 2848c 0 {virtual override thunk({offset(-320)}, cocos2d::CCLayer::~CCLayer())}
PUBLIC 28494 0 cocos2d::CCLayer::~CCLayer()
PUBLIC 284b8 0 {virtual override thunk({offset(-320)}, cocos2d::CCLayer::~CCLayer())}
PUBLIC 284e0 0 cocos2d::CCObject::~CCObject()
PUBLIC 28504 0 cocos2d::CCLayerColor::CCLayerColor()
PUBLIC 287d8 0 cocos2d::CCLayerRGBA::~CCLayerRGBA()
PUBLIC 28a2c 0 {virtual override thunk({offset(-320)}, cocos2d::CCLayerColor::~CCLayerColor())}
PUBLIC 28a34 0 cocos2d::CCLayerColor::~CCLayerColor()
PUBLIC 28a58 0 {virtual override thunk({offset(-320)}, cocos2d::CCLayerColor::~CCLayerColor())}
PUBLIC 28a80 0 {virtual override thunk({offset(-320)}, cocos2d::CCLayerRGBA::~CCLayerRGBA())}
PUBLIC 28a88 0 cocos2d::CCLayerRGBA::~CCLayerRGBA()
PUBLIC 28aac 0 {virtual override thunk({offset(-320)}, cocos2d::CCLayerRGBA::~CCLayerRGBA())}
PUBLIC 28ad4 0 FLAlertLayerProtocol::FLAlert_Clicked(FLAlertLayer*, bool)
PUBLIC 28ad8 0 {virtual override thunk({offset(-320)}, FLAlertLayer::~FLAlertLayer())}
PUBLIC 28ae0 0 FLAlertLayer::~FLAlertLayer()
PUBLIC 28b04 0 {virtual override thunk({offset(-320)}, FLAlertLayer::~FLAlertLayer())}
PUBLIC 28b2c 0 FLAlertLayer::create(FLAlertLayerProtocol*, char const*, gd::string, char const*, char const*, float)
PUBLIC 28ce4 0 tulip::hook::AbstractFunction::from<FLAlertLayer*, FLAlertLayerProtocol*, char const*, gd::string, char const*, char const*, float>(FLAlertLayer* (*)(FLAlertLayerProtocol*, char const*, gd::string, char const*, char const*, float))
PUBLIC 291c8 0 GJSearchObject::create(SearchType, gd::string)
PUBLIC 29348 0 tulip::hook::AbstractFunction::from<GJSearchObject*, SearchType, gd::string>(GJSearchObject* (*)(SearchType, gd::string))
PUBLIC 293ec 0 cocos2d::CCObject::update(float)
PUBLIC 293f0 0 cocos2d::CCLayer::~CCLayer()
PUBLIC 2963c 0 cocos2d::CCLayerColor::~CCLayerColor()
PUBLIC 29898 0 FLAlertLayer::~FLAlertLayer()
PUBLIC 29b54 0 cocos2d::CCNode::~CCNode()
PUBLIC 29d80 0 cocos2d::CCObject::~CCObject()
PUBLIC 29fac 0 _ZN5geode15UnwrapExceptionC2IRPvQsr4implE18IsStringStreamableIT_EEENS_4impl5OkTagEOS4_
PUBLIC 2a100 0 std::__ndk1::__variant_detail::__visitation::__base::__dispatcher<(unsigned long)0>::__dispatch[abi:ne180000]<std::__ndk1::__variant_detail::__dtor<std::__ndk1::__variant_detail::__traits<void*, std::__ndk1::basic_string<char, std::__ndk1::char_traits<char>, std::__ndk1::allocator<char> > >, (std::__ndk1::__variant_detail::_Trait)1>::__destroy[abi:ne180000]()::{lambda(auto:1&)#1}, std::__ndk1::__variant_detail::__base<(std::__ndk1::__variant_detail::__traits<void*, std::__ndk1::basic_string<char, std::__ndk1::char_traits<char>, std::__ndk1::allocator<char> > >)1, std::__ndk1::__variant_detail::__traits, std::__ndk1::allocator<char> >&>(std::__ndk1::__variant_detail::__dtor<std::__ndk1::__variant_detail::__traits<void*, std::__ndk1::basic_string<char, std::__ndk1::char_traits<char>, std::__ndk1::allocator<char> > >, (std::__ndk1::__variant_detail::_Trait)1>, std::__ndk1::__variant_detail::__base<(std::__ndk1::__variant_detail::__traits<void*, std::__ndk1::basic_string<char, std::__ndk1::char_traits<char>, std::__ndk1::allocator<char> > >)1, std::__ndk1::__variant_detail::__traits, std::__ndk1::allocator<char> >&)
PUBLIC 2a104 0 std::__ndk1::__variant_detail::__visitation::__base::__dispatcher<(unsigned long)1>::__dispatch[abi:ne180000]<std::__ndk1::__variant_detail::__dtor<std::__ndk1::__variant_detail::__traits<void*, std::__ndk1::basic_string<char, std::__ndk1::char_traits<char>, std::__ndk1::allocator<char> > >, (std::__ndk1::__variant_detail::_Trait)1>::__destroy[abi:ne180000]()::{lambda(auto:1&)#1}, std::__ndk1::__variant_detail::__base<(std::__ndk1::__variant_detail::__traits<void*, std::__ndk1::basic_string<char, std::__ndk1::char_traits<char>, std::__ndk1::allocator<char> > >)1, std::__ndk1::__variant_detail::__traits, std::__ndk1::allocator<char> >&>(std::__ndk1::__variant_detail::__dtor<std::__ndk1::__variant_detail::__traits<void*, std::__ndk1::basic_string<char, std::__ndk1::char_traits<char>, std::__ndk1::allocator<char> > >, (std::__ndk1::__variant_detail::_Trait)1>, std::__ndk1::__variant_detail::__base<(std::__ndk1::__variant_detail::__traits<void*, std::__ndk1::basic_string<char, std::__ndk1::char_traits<char>, std::__ndk1::allocator<char> > >)1, std::__ndk1::__variant_detail::__traits, std::__ndk1::allocator<char> >&)
PUBLIC 2a118 0 std::__ndk1::__hash_table<std::__ndk1::__hash_value_type<void*, bool>, std::__ndk1::__unordered_map_hasher<void*, std::__ndk1::__hash_value_type<void*, bool>, std::__ndk1::hash<void*>, std::__ndk1::equal_to<void*>, true>, std::__ndk1::__unordered_map_equal<void*, std::__ndk1::__hash_value_type<void*, bool>, std::__ndk1::equal_to<void*>, std::__ndk1::hash<void*>, true>, std::__ndk1::allocator<std::__ndk1::__hash_value_type<void*, bool> > >::__emplace_unique_key_args<void*, std::__ndk1::piecewise_construct_t const&, std::__ndk1::tuple<void* const&>, std::__ndk1::tuple<> >(void* const&, std::__ndk1::piecewise_construct_t const&, std::__ndk1::tuple<void* const&>, std::__ndk1::tuple<>)
PUBLIC 2a5f8 0 __udivti3
PUBLIC 2a604 0 __udivmodti4
PUBLIC m 2a850 0 __eqtf2
PUBLIC 2a8f0 0 __unordtf2
PUBLIC 2a928 0 fmt::v11::detail::write_loc(fmt::v11::basic_appender<char>, fmt::v11::loc_value, fmt::v11::format_specs const&, fmt::v11::detail::locale_ref)
PUBLIC 2abbc 0 fmt::v11::format_facet<std::__ndk1::locale>::~format_facet()
PUBLIC 2ac38 0 fmt::v11::report_error(char const*)
PUBLIC 2ac88 0 fmt::v11::format_error::runtime_error(char const*)
PUBLIC 2acb4 0 fmt::v11::format_facet<std::__ndk1::locale>::do_put(fmt::v11::basic_appender<char>, fmt::v11::loc_value, fmt::v11::format_specs const&) const
PUBLIC 2b474 0 fmt::v11::detail::loc_writer<char>::~loc_writer()
PUBLIC 2b4d8 0 fmt::v11::detail::vformat_to<char>(fmt::v11::detail::buffer<char>&, fmt::v11::basic_string_view<char>, fmt::v11::detail::vformat_args<char>::type, fmt::v11::detail::locale_ref)
PUBLIC 2ba48 0 fmt::v11::detail::is_printable(unsigned int)
PUBLIC 2bc70 0 fmt::v11::detail::dragonbox::to_decimal<float>(float)
PUBLIC 2bf4c 0 fmt::v11::detail::dragonbox::to_decimal<double>(double)
PUBLIC 2c488 0 fmt::v11::basic_memory_buffer<char, (unsigned long)500, std::__ndk1::allocator<char> >::grow(fmt::v11::detail::buffer<char>&, unsigned long)
PUBLIC 2c500 0 fmt::v11::format_facet<std::__ndk1::locale>::~format_facet()
PUBLIC 2c58c 0 fmt::v11::format_error::~format_error()
PUBLIC 2c5b0 0 fmt::v11::detail::copy_noinline<char, char const*, fmt::v11::basic_appender<char> >(char const*, char const*, fmt::v11::basic_appender<char>)
PUBLIC 2c700 0 fmt::v11::detail::default_arg_formatter<char>::operator()<bool>(bool)
PUBLIC 2c768 0 fmt::v11::detail::default_arg_formatter<char>::operator()<char>(char)
PUBLIC 2c7f8 0 fmt::v11::detail::default_arg_formatter<char>::operator()<float>(float)
PUBLIC 2c8e4 0 fmt::v11::detail::default_arg_formatter<char>::operator()<double>(double)
PUBLIC 2c9d0 0 fmt::v11::detail::default_arg_formatter<char>::operator()<char const*>(char const*)
PUBLIC 2ca18 0 fmt::v11::detail::default_arg_formatter<char>::operator()<void const*>(void const*)
PUBLIC 2cab0 0 _ZN3fmt3v116detail5writeIcNS0_14basic_appenderIcEEiTnNSt6__ndk19enable_ifIXaaaasr11is_integralIT1_EE5valuentsr3std7is_sameIS7_bEE5valuentsr3std7is_sameIS7_T_EE5valueEiE4typeELi0EEET0_SB_S7_
PUBLIC 2cd10 0 fmt::v11::detail::copy_noinline<char, char*, fmt::v11::basic_appender<char> >(char*, char*, fmt::v11::basic_appender<char>)
PUBLIC 2ce60 0 _ZN3fmt3v116detail5writeIcNS0_14basic_appenderIcEEjTnNSt6__ndk19enable_ifIXaaaasr11is_integralIT1_EE5valuentsr3std7is_sameIS7_bEE5valuentsr3std7is_sameIS7_T_EE5valueEiE4typeELi0EEET0_SB_S7_
PUBLIC 2d040 0 _ZN3fmt3v116detail5writeIcNS0_14basic_appenderIcEExTnNSt6__ndk19enable_ifIXaaaasr11is_integralIT1_EE5valuentsr3std7is_sameIS7_bEE5valuentsr3std7is_sameIS7_T_EE5valueEiE4typeELi0EEET0_SB_S7_
PUBLIC 2d2c4 0 _ZN3fmt3v116detail5writeIcNS0_14basic_appenderIcEEyTnNSt6__ndk19enable_ifIXaaaasr11is_integralIT1_EE5valuentsr3std7is_sameIS7_bEE5valuentsr3std7is_sameIS7_T_EE5valueEiE4typeELi0EEET0_SB_S7_
PUBLIC 2d4cc 0 _ZN3fmt3v116detail5writeIcNS0_14basic_appenderIcEEnTnNSt6__ndk19enable_ifIXaaaasr11is_integralIT1_EE5valuentsr3std7is_sameIS7_bEE5valuentsr3std7is_sameIS7_T_EE5valueEiE4typeELi0EEET0_SB_S7_
PUBLIC 2d82c 0 _ZN3fmt3v116detail5writeIcNS0_14basic_appenderIcEEoTnNSt6__ndk19enable_ifIXaaaasr11is_integralIT1_EE5valuentsr3std7is_sameIS7_bEE5valuentsr3std7is_sameIS7_T_EE5valueEiE4typeELi0EEET0_SB_S7_
PUBLIC 2db40 0 _ZN3fmt3v116detail5writeIcNS0_14basic_appenderIcEEbTnNSt6__ndk19enable_ifIXsr3std7is_sameIT1_bEE5valueEiE4typeELi0EEET0_SA_S7_RKNS0_12format_specsENS1_10locale_refE
PUBLIC 2ddf4 0 fmt::v11::detail::write_int_noinline<char, fmt::v11::basic_appender<char>, unsigned int>(fmt::v11::basic_appender<char>, fmt::v11::detail::write_int_arg<unsigned int>, fmt::v11::format_specs const&, fmt::v11::detail::locale_ref)
PUBLIC 2ebd4 0 fmt::v11::detail::write_padded<char, (fmt::v11::align::type)1, fmt::v11::basic_appender<char>, fmt::v11::detail::write_char<char, fmt::v11::basic_appender<char> >(fmt::v11::basic_appender<char>, char, fmt::v11::format_specs const&)::{lambda(fmt::v11::basic_appender<char>&)#1}>(fmt::v11::basic_appender<char>, fmt::v11::format_specs const&, unsigned long, unsigned long, fmt::v11::detail::write_char<char, fmt::v11::basic_appender<char> >(fmt::v11::basic_appender<char>, char, fmt::v11::format_specs const&)::{lambda(fmt::v11::basic_appender<char>&)#1})
PUBLIC 2ee38 0 fmt::v11::detail::write_padded<char, (fmt::v11::align::type)1, fmt::v11::basic_appender<char>, fmt::v11::detail::write_nonfinite<char, fmt::v11::basic_appender<char> >(fmt::v11::basic_appender<char>, bool, fmt::v11::format_specs, fmt::v11::sign::type)::{lambda(fmt::v11::basic_appender<char>&)#1}>(fmt::v11::basic_appender<char>, fmt::v11::format_specs const&, unsigned long, unsigned long, fmt::v11::detail::write_nonfinite<char, fmt::v11::basic_appender<char> >(fmt::v11::basic_appender<char>, bool, fmt::v11::format_specs, fmt::v11::sign::type)::{lambda(fmt::v11::basic_appender<char>&)#1})
PUBLIC 2f090 0 fmt::v11::detail::do_write_float<char, fmt::v11::basic_appender<char>, fmt::v11::detail::dragonbox::decimal_fp<float>, fmt::v11::detail::digit_grouping<char> >(fmt::v11::basic_appender<char>, fmt::v11::detail::dragonbox::decimal_fp<float> const&, fmt::v11::format_specs const&, fmt::v11::detail::float_specs, fmt::v11::detail::locale_ref)
PUBLIC 2fd14 0 fmt::v11::detail::do_write_float<char, fmt::v11::basic_appender<char>, fmt::v11::detail::dragonbox::decimal_fp<float>, fmt::v11::detail::digit_grouping<char> >(fmt::v11::basic_appender<char>, fmt::v11::detail::dragonbox::decimal_fp<float> const&, fmt::v11::format_specs const&, fmt::v11::detail::float_specs, fmt::v11::detail::locale_ref)::{lambda(fmt::v11::basic_appender<char>(fmt::v11::basic_appender<char>))#1}::operator() const
PUBLIC 2fe68 0 fmt::v11::detail::digit_grouping<char>::digit_grouping(fmt::v11::detail::locale_ref, bool)
PUBLIC 300d4 0 fmt::v11::detail::digit_grouping<char>::~digit_grouping()
PUBLIC 30118 0 fmt::v11::detail::write_exponent<char, fmt::v11::basic_appender<char> >(int, fmt::v11::basic_appender<char>)
PUBLIC 302e8 0 _ZN3fmt3v116detail17write_significandIcjTnNSt6__ndk19enable_ifIXsr3std11is_integralIT0_EE5valueEiE4typeELi0EEEPT_S9_S5_iiS8_
PUBLIC 30464 0 fmt::v11::detail::digit_grouping<char>::apply<fmt::v11::basic_appender<char>, char>(fmt::v11::basic_appender<char>, fmt::v11::basic_string_view<char>) const
PUBLIC 3081c 0 fmt::v11::basic_memory_buffer<int, (unsigned long)500, std::__ndk1::allocator<int> >::grow(fmt::v11::detail::buffer<int>&, unsigned long)
PUBLIC 308bc 0 fmt::v11::detail::do_write_float<char, fmt::v11::basic_appender<char>, fmt::v11::detail::dragonbox::decimal_fp<double>, fmt::v11::detail::digit_grouping<char> >(fmt::v11::basic_appender<char>, fmt::v11::detail::dragonbox::decimal_fp<double> const&, fmt::v11::format_specs const&, fmt::v11::detail::float_specs, fmt::v11::detail::locale_ref)
PUBLIC 3157c 0 fmt::v11::detail::do_write_float<char, fmt::v11::basic_appender<char>, fmt::v11::detail::dragonbox::decimal_fp<double>, fmt::v11::detail::digit_grouping<char> >(fmt::v11::basic_appender<char>, fmt::v11::detail::dragonbox::decimal_fp<double> const&, fmt::v11::format_specs const&, fmt::v11::detail::float_specs, fmt::v11::detail::locale_ref)::{lambda(fmt::v11::basic_appender<char>(fmt::v11::basic_appender<char>))#1}::operator() const
PUBLIC 316d4 0 _ZN3fmt3v116detail17write_significandIcmTnNSt6__ndk19enable_ifIXsr3std11is_integralIT0_EE5valueEiE4typeELi0EEEPT_S9_S5_iiS8_
PUBLIC 31864 0 fmt::v11::detail::write_float<char, fmt::v11::basic_appender<char>, long double>(fmt::v11::basic_appender<char>, long double, fmt::v11::format_specs, fmt::v11::detail::locale_ref)
PUBLIC 3235c 0 fmt::v11::detail::write_padded<char, (fmt::v11::align::type)2, fmt::v11::basic_appender<char>, fmt::v11::detail::write_bytes<char, (fmt::v11::align::type)2, fmt::v11::basic_appender<char> >(fmt::v11::basic_appender<char>, fmt::v11::basic_string_view<char>, fmt::v11::format_specs const&)::{lambda(fmt::v11::basic_appender<char>&)#1}>(fmt::v11::basic_appender<char>, fmt::v11::format_specs const&, unsigned long, unsigned long, fmt::v11::detail::write_bytes<char, (fmt::v11::align::type)2, fmt::v11::basic_appender<char> >(fmt::v11::basic_appender<char>, fmt::v11::basic_string_view<char>, fmt::v11::format_specs const&)::{lambda(fmt::v11::basic_appender<char>&)#1})
PUBLIC 32550 0 fmt::v11::detail::format_dragon(fmt::v11::detail::basic_fp<unsigned __int128>, unsigned int, int, fmt::v11::detail::buffer<char>&, int&)
PUBLIC 33980 0 fmt::v11::detail::bigint::operator<<=(int)
PUBLIC 33aa4 0 fmt::v11::detail::bigint::assign_pow10(int)
PUBLIC 34200 0 fmt::v11::detail::bigint::divmod_assign(fmt::v11::detail::bigint const&)
PUBLIC 34520 0 fmt::v11::basic_memory_buffer<unsigned int, (unsigned long)32, std::__ndk1::allocator<unsigned int> >::grow(fmt::v11::detail::buffer<unsigned int>&, unsigned long)
PUBLIC 345c0 0 fmt::v11::detail::do_write_float<char, fmt::v11::basic_appender<char>, fmt::v11::detail::big_decimal_fp, fmt::v11::detail::digit_grouping<char> >(fmt::v11::basic_appender<char>, fmt::v11::detail::big_decimal_fp const&, fmt::v11::format_specs const&, fmt::v11::detail::float_specs, fmt::v11::detail::locale_ref)
PUBLIC 354a0 0 fmt::v11::detail::do_write_float<char, fmt::v11::basic_appender<char>, fmt::v11::detail::big_decimal_fp, fmt::v11::detail::digit_grouping<char> >(fmt::v11::basic_appender<char>, fmt::v11::detail::big_decimal_fp const&, fmt::v11::format_specs const&, fmt::v11::detail::float_specs, fmt::v11::detail::locale_ref)::{lambda(fmt::v11::basic_appender<char>(fmt::v11::basic_appender<char>))#1}::operator() const
PUBLIC 35600 0 fmt::v11::detail::write_padded<char, (fmt::v11::align::type)2, fmt::v11::basic_appender<char>, fmt::v11::detail::write_ptr<char, fmt::v11::basic_appender<char>, unsigned long>(fmt::v11::basic_appender<char>, unsigned long, fmt::v11::format_specs const*)::{lambda(fmt::v11::basic_appender<char>&)#1}>(fmt::v11::basic_appender<char>, fmt::v11::format_specs const&, unsigned long, unsigned long, fmt::v11::detail::write_ptr<char, fmt::v11::basic_appender<char>, unsigned long>(fmt::v11::basic_appender<char>, unsigned long, fmt::v11::format_specs const*)::{lambda(fmt::v11::basic_appender<char>&)#1})
PUBLIC 35814 0 fmt::v11::detail::parse_replacement_field<char, fmt::v11::detail::vformat_to<char>(fmt::v11::detail::buffer<char>&, fmt::v11::basic_string_view<char>, fmt::v11::detail::vformat_args<char>::type, fmt::v11::detail::locale_ref)::format_handler&>(char const*, char const*, fmt::v11::detail::vformat_to<char>(fmt::v11::detail::buffer<char>&, fmt::v11::basic_string_view<char>, fmt::v11::detail::vformat_args<char>::type, fmt::v11::detail::locale_ref)::format_handler&)
PUBLIC 36cc8 0 fmt::v11::detail::write_int_noinline<char, fmt::v11::basic_appender<char>, unsigned long>(fmt::v11::basic_appender<char>, fmt::v11::detail::write_int_arg<unsigned long>, fmt::v11::format_specs const&, fmt::v11::detail::locale_ref)
PUBLIC 37b28 0 fmt::v11::detail::write_int_noinline<char, fmt::v11::basic_appender<char>, unsigned __int128>(fmt::v11::basic_appender<char>, fmt::v11::detail::write_int_arg<unsigned __int128>, fmt::v11::format_specs const&, fmt::v11::detail::locale_ref)
PUBLIC 38bb8 0 _ZN3fmt3v116detail15format_hexfloatIdTnNSt6__ndk19enable_ifIXntsr16is_double_doubleIT_EE5valueEiE4typeELi0EEEvS5_NS0_12format_specsERNS1_6bufferIcEE
PUBLIC 390d8 0 fmt::v11::detail::format_float<double>(double, int, fmt::v11::detail::float_specs, fmt::v11::detail::buffer<char>&)
PUBLIC 39a78 0 fmt::v11::detail::write_int<fmt::v11::basic_appender<char>, unsigned long, char>(fmt::v11::basic_appender<char>, unsigned long, unsigned int, fmt::v11::format_specs const&, fmt::v11::detail::digit_grouping<char> const&)
PUBLIC 39ff4 0 fmt::v11::detail::write_int<fmt::v11::basic_appender<char>, unsigned __int128, char>(fmt::v11::basic_appender<char>, unsigned __int128, unsigned int, fmt::v11::format_specs const&, fmt::v11::detail::digit_grouping<char> const&)
PUBLIC 3a670 0 <.plt ELF section in oatmealine.ids_integration.android64.so>
STACK CFI INIT 1a290 10 .cfa: sp 0 +
STACK CFI INIT 1a2a0 8 .cfa: sp 0 +
STACK CFI INIT 1a2a8 8 .cfa: sp 0 +
STACK CFI INIT 1a2b0 14 .cfa: sp 0 +
STACK CFI INIT 1a2c4 1c .cfa: sp 0 +
STACK CFI INIT 1a2e0 10 .cfa: sp 0 +
STACK CFI INIT 1a2f0 30 .cfa: sp 0 +
STACK CFI INIT 1a320 98 .cfa: sp 0 +
STACK CFI INIT 1a3b8 59c .cfa: sp 0 +
STACK CFI INIT 1a954 8c .cfa: sp 0 +
STACK CFI INIT 1a9e0 30 .cfa: sp 0 +
STACK CFI INIT 1ae90 1c .cfa: sp 0 +
STACK CFI INIT 1b4f4 50 .cfa: sp 0 +
STACK CFI 1b4f8 .cfa: sp 32 +
STACK CFI 1b500 .cfa: x29 32 + x19: .cfa -16 + ^ .ra: .cfa -24 + ^ x29: .cfa -32 + ^
STACK CFI 1b518 .cfa: sp 32 +
STACK CFI 1b520 .cfa: sp 0 +
STACK CFI 1b524 .cfa: x29 32 +
STACK CFI 1b538 .cfa: sp 32 +
STACK CFI 1b540 .cfa: sp 0 +
STACK CFI INIT 1b5b8 7c .cfa: sp 0 +
STACK CFI 1b5bc .cfa: sp 48 +
STACK CFI 1b5c8 .cfa: x29 48 + x19: .cfa -8 + ^ x20: .cfa -16 + ^ x21: .cfa -32 + ^ .ra: .cfa -40 + ^ x29: .cfa -48 + ^
STACK CFI 1b614 .cfa: sp 48 +
STACK CFI 1b620 .cfa: sp 0 +
STACK CFI 1b624 .cfa: sp 48 +
STACK CFI 1b630 .cfa: sp 0 +
STACK CFI INIT 1b634 4 .cfa: sp 0 +
STACK CFI INIT 1b638 10 .cfa: sp 0 +
STACK CFI 1b63c .cfa: sp 16 +
STACK CFI 1b640 .cfa: x29 16 + .ra: .cfa -8 + ^ x29: .cfa -16 + ^
STACK CFI INIT 1b79c 34 .cfa: sp 0 +
STACK CFI 1b7a0 .cfa: sp 16 +
STACK CFI 1b7a4 .cfa: x29 16 + .ra: .cfa -8 + ^ x29: .cfa -16 + ^
STACK CFI INIT 1b8fc 80 .cfa: sp 0 +
STACK CFI 1b900 .cfa: sp 48 +
STACK CFI 1b90c .cfa: x29 48 + x19: .cfa -8 + ^ x20: .cfa -16 + ^ x21: .cfa -32 + ^ .ra: .cfa -40 + ^ x29: .cfa -48 + ^
STACK CFI 1b96c .cfa: sp 48 +
STACK CFI 1b978 .cfa: sp 0 +
STACK CFI INIT 1b97c 24 .cfa: sp 0 +
STACK CFI 1b980 .cfa: sp 32 +
STACK CFI 1b988 .cfa: x29 32 + x19: .cfa -16 + ^ .ra: .cfa -24 + ^ x29: .cfa -32 + ^
STACK CFI 1b994 .cfa: sp 32 +
STACK CFI 1b99c .cfa: sp 0 +
STACK CFI INIT 1bd20 14 .cfa: sp 0 +
STACK CFI 1bd24 .cfa: sp 16 +
STACK CFI 1bd28 .cfa: x29 16 + .ra: .cfa -8 + ^ x29: .cfa -16 + ^
STACK CFI INIT 1bd84 30 .cfa: sp 0 +
STACK CFI 1bd88 .cfa: sp 32 +
STACK CFI 1bd90 .cfa: x29 32 + x19: .cfa -16 + ^ .ra: .cfa -24 + ^ x29: .cfa -32 + ^
STACK CFI 1bda8 .cfa: sp 32 +
STACK CFI 1bdb0 .cfa: sp 0 +
STACK CFI INIT 1bdb4 34 .cfa: sp 0 +
STACK CFI 1bdb8 .cfa: sp 32 +
STACK CFI 1bdc0 .cfa: x29 32 + x19: .cfa -16 + ^ .ra: .cfa -24 + ^ x29: .cfa -32 + ^
STACK CFI INIT 1bf60 148 .cfa: sp 0 +
STACK CFI 1bf64 .cfa: sp 48 +
STACK CFI 1bf70 .cfa: x29 48 + x19: .cfa -8 + ^ x20: .cfa -16 + ^ x21: .cfa -32 + ^ .ra: .cfa -40 + ^ x29: .cfa -48 + ^
STACK CFI 1c098 .cfa: sp 48 +
STACK CFI 1c0a4 .cfa: sp 0 +
STACK CFI INIT 1c2d0 80 .cfa: sp 0 +
STACK CFI 1c2d4 .cfa: sp 48 +
STACK CFI 1c2e0 .cfa: x29 48 + x19: .cfa -8 + ^ x20: .cfa -16 + ^ x21: .cfa -24 + ^ x22: .cfa -32 + ^ .ra: .cfa -40 + ^ x29: .cfa -48 + ^
STACK CFI 1c2f8 .cfa: sp 48 +
STACK CFI 1c304 .cfa: sp 0 +
STACK CFI 1c308 .cfa: x29 48 +
STACK CFI 1c338 .cfa: sp 48 +
STACK CFI 1c344 .cfa: sp 0 +
STACK CFI 1c348 .cfa: x29 48 +
STACK CFI INIT 1c350 68 .cfa: sp 0 +
STACK CFI 1c354 .cfa: sp 32 +
STACK CFI 1c35c .cfa: x29 32 + x19: .cfa -8 + ^ x20: .cfa -16 + ^ .ra: .cfa -24 + ^ x29: .cfa -32 + ^
STACK CFI 1c374 .cfa: sp 32 +
STACK CFI 1c37c .cfa: sp 0 +
STACK CFI 1c380 .cfa: x29 32 +
STACK CFI 1c3ac .cfa: sp 32 +
STACK CFI 1c3b4 .cfa: sp 0 +
STACK CFI INIT 1c3b8 14 .cfa: sp 0 +
STACK CFI 1c3bc .cfa: sp 16 +
STACK CFI 1c3c0 .cfa: x29 16 + .ra: .cfa -8 + ^ x29: .cfa -16 + ^
STACK CFI INIT 1c3cc 4 .cfa: sp 0 +
STACK CFI INIT 1c3d0 14 .cfa: sp 0 +
STACK CFI INIT 1c3e4 120 .cfa: sp 0 +
STACK CFI 1c3e8 .cfa: sp 64 +
STACK CFI 1c3f8 .cfa: x29 64 + x19: .cfa -8 + ^ x20: .cfa -16 + ^ x21: .cfa -24 + ^ x22: .cfa -32 + ^ x23: .cfa -40 + ^ x24: .cfa -48 + ^ .ra: .cfa -56 + ^ x29: .cfa -64 + ^
STACK CFI 1c4f0 .cfa: sp 64 +
STACK CFI 1c500 .cfa: sp 0 +
STACK CFI INIT 1c504 d4 .cfa: sp 0 +
STACK CFI 1c508 .cfa: sp 48 +
STACK CFI 1c514 .cfa: x29 48 + x19: .cfa -8 + ^ x20: .cfa -16 + ^ x21: .cfa -32 + ^ .ra: .cfa -40 + ^ x29: .cfa -48 + ^
STACK CFI 1c5a4 .cfa: sp 48 +
STACK CFI 1c5b0 .cfa: sp 0 +
STACK CFI 1c5b4 .cfa: x29 48 +
STACK CFI INIT 1c5d8 3c8 .cfa: sp 0 +
STACK CFI INIT 1c9a0 8c .cfa: sp 0 +
STACK CFI 1c9a8 .cfa: sp 32 +
STACK CFI 1c9b0 .cfa: x29 32 + x19: .cfa -8 + ^ x20: .cfa -16 + ^ .ra: .cfa -24 + ^ x29: .cfa -32 + ^
STACK CFI 1c9f8 .cfa: sp 32 +
STACK CFI 1ca00 .cfa: sp 0 +
STACK CFI 1ca08 .cfa: x29 32 +
STACK CFI INIT 1cb30 24 .cfa: sp 0 +
STACK CFI 1cb34 .cfa: sp 32 +
STACK CFI 1cb3c .cfa: x29 32 + x19: .cfa -16 + ^ .ra: .cfa -24 + ^ x29: .cfa -32 + ^
STACK CFI 1cb48 .cfa: sp 32 +
STACK CFI 1cb50 .cfa: sp 0 +
STACK CFI INIT 1cb54 50 .cfa: sp 0 +
STACK CFI 1cb58 .cfa: sp 32 +
STACK CFI 1cb60 .cfa: x29 32 + x19: .cfa -16 + ^ .ra: .cfa -24 + ^ x29: .cfa -32 + ^
STACK CFI 1cb78 .cfa: sp 32 +
STACK CFI 1cb80 .cfa: sp 0 +
STACK CFI 1cb84 .cfa: x29 32 +
STACK CFI 1cb98 .cfa: sp 32 +
STACK CFI 1cba0 .cfa: sp 0 +
STACK CFI INIT 1cba4 64 .cfa: sp 0 +
STACK CFI 1cba8 .cfa: sp 32 +
STACK CFI 1cbb0 .cfa: x29 32 + x19: .cfa -16 + ^ .ra: .cfa -24 + ^ x29: .cfa -32 + ^
STACK CFI 1cbdc .cfa: sp 32 +
STACK CFI 1cbe4 .cfa: sp 0 +
STACK CFI 1cbe8 .cfa: x29 32 +
STACK CFI 1cbfc .cfa: sp 32 +
STACK CFI 1cc04 .cfa: sp 0 +
STACK CFI INIT 1cc08 14 .cfa: sp 0 +
STACK CFI 1cc0c .cfa: sp 16 +
STACK CFI 1cc10 .cfa: x29 16 + .ra: .cfa -8 + ^ x29: .cfa -16 + ^
STACK CFI INIT 1d9a4 4 .cfa: sp 0 +
STACK CFI INIT 1d9a8 14 .cfa: sp 0 +
STACK CFI 1d9ac .cfa: sp 16 +
STACK CFI 1d9b0 .cfa: x29 16 + .ra: .cfa -8 + ^ x29: .cfa -16 + ^
STACK CFI INIT 1d9bc 14 .cfa: sp 0 +
STACK CFI 1d9c0 .cfa: sp 16 +
STACK CFI 1d9c4 .cfa: x29 16 + .ra: .cfa -8 + ^ x29: .cfa -16 + ^
STACK CFI INIT 1d9d0 14 .cfa: sp 0 +
STACK CFI 1d9d4 .cfa: sp 16 +
STACK CFI 1d9d8 .cfa: x29 16 + .ra: .cfa -8 + ^ x29: .cfa -16 + ^
STACK CFI INIT 1da34 30 .cfa: sp 0 +
STACK CFI 1da38 .cfa: sp 32 +
STACK CFI 1da40 .cfa: x29 32 + x19: .cfa -16 + ^ .ra: .cfa -24 + ^ x29: .cfa -32 + ^
STACK CFI 1da58 .cfa: sp 32 +
STACK CFI 1da60 .cfa: sp 0 +
STACK CFI INIT 1da64 14 .cfa: sp 0 +
STACK CFI 1da68 .cfa: sp 16 +
STACK CFI 1da6c .cfa: x29 16 + .ra: .cfa -8 + ^ x29: .cfa -16 + ^
STACK CFI INIT 1da78 ac .cfa: sp 0 +
STACK CFI 1da7c .cfa: sp 32 +
STACK CFI 1da84 .cfa: x29 32 + x19: .cfa -16 + ^ .ra: .cfa -24 + ^ x29: .cfa -32 + ^
STACK CFI 1dac8 .cfa: sp 32 +
STACK CFI 1dad0 .cfa: sp 0 +
STACK CFI 1dad4 .cfa: x29 32 +
STACK CFI 1db18 .cfa: sp 32 +
STACK CFI 1db20 .cfa: sp 0 +
STACK CFI INIT 1db24 4 .cfa: sp 0 +
STACK CFI INIT 1db28 4 .cfa: sp 0 +
STACK CFI INIT 1db2c 38 .cfa: sp 0 +
STACK CFI 1db30 .cfa: sp 32 +
STACK CFI 1db38 .cfa: x29 32 + x19: .cfa -16 + ^ .ra: .cfa -24 + ^ x29: .cfa -32 + ^
STACK CFI 1db58 .cfa: sp 32 +
STACK CFI 1db60 .cfa: sp 0 +
STACK CFI INIT 1db64 18 .cfa: sp 0 +
STACK CFI INIT 1db7c 4 .cfa: sp 0 +
STACK CFI INIT 1db80 4 .cfa: sp 0 +
STACK CFI INIT 1db84 10 .cfa: sp 0 +
STACK CFI INIT 1db94 1c .cfa: sp 0 +
STACK CFI INIT 1dbb0 c .cfa: sp 0 +
STACK CFI INIT 1dbbc 78 .cfa: sp 0 +
STACK CFI 1dbc0 .cfa: sp 64 +
STACK CFI 1dbcc .cfa: x29 32 + x19: .cfa -8 + ^ x20: .cfa -16 + ^ .ra: .cfa -24 + ^ x29: .cfa -32 + ^
STACK CFI 1dc20 .cfa: sp 64 +
STACK CFI 1dc2c .cfa: sp 0 +
STACK CFI 1dc30 .cfa: x29 32 +
STACK CFI INIT 1dc34 38 .cfa: sp 0 +
STACK CFI 1dc38 .cfa: sp 32 +
STACK CFI 1dc40 .cfa: x29 32 + x19: .cfa -16 + ^ .ra: .cfa -24 + ^ x29: .cfa -32 + ^
STACK CFI 1dc60 .cfa: sp 32 +
STACK CFI 1dc68 .cfa: sp 0 +
STACK CFI INIT 1de40 4b4 .cfa: sp 0 +
STACK CFI 1de44 .cfa: sp 96 +
STACK CFI 1de5c .cfa: x29 96 + x19: .cfa -8 + ^ x20: .cfa -16 + ^ x21: .cfa -24 + ^ x22: .cfa -32 + ^ x23: .cfa -40 + ^ x24: .cfa -48 + ^ x25: .cfa -56 + ^ x26: .cfa -64 + ^ x27: .cfa -72 + ^ x28: .cfa -80 + ^ .ra: .cfa -88 + ^ x29: .cfa -96 + ^
STACK CFI 1e2a4 .cfa: sp 96 +
STACK CFI 1e2bc .cfa: sp 0 +
STACK CFI 1e2c0 .cfa: x29 96 +
STACK CFI INIT 1e2f4 1a4 .cfa: sp 0 +
STACK CFI 1e2f8 .cfa: sp 64 +
STACK CFI 1e304 .cfa: x29 32 + x19: .cfa -8 + ^ x20: .cfa -16 + ^ .ra: .cfa -24 + ^ x29: .cfa -32 + ^
STACK CFI 1e430 .cfa: sp 64 +
STACK CFI 1e43c .cfa: sp 0 +
STACK CFI 1e440 .cfa: x29 32 +
STACK CFI INIT 1e498 194 .cfa: sp 0 +
STACK CFI 1e49c .cfa: sp 16 +
STACK CFI 1e4a0 .cfa: x29 16 + .ra: .cfa -8 + ^ x29: .cfa -16 + ^
STACK CFI 1e538 .cfa: sp 16 +
STACK CFI 1e53c .cfa: sp 0 +
STACK CFI 1e540 .cfa: x29 16 +
STACK CFI 1e60c .cfa: sp 16 +
STACK CFI 1e610 .cfa: sp 0 +
STACK CFI 1e614 .cfa: x29 16 +
STACK CFI INIT 1e62c 114 .cfa: sp 0 +
STACK CFI 1e630 .cfa: sp 128 +
STACK CFI 1e640 .cfa: x29 48 + x19: .cfa -8 + ^ x20: .cfa -16 + ^ x21: .cfa -32 + ^ .ra: .cfa -40 + ^ x29: .cfa -48 + ^
STACK CFI 1e70c .cfa: sp 128 +
STACK CFI 1e71c .cfa: sp 0 +
STACK CFI 1e720 .cfa: x29 48 +
STACK CFI INIT 1e740 114 .cfa: sp 0 +
STACK CFI 1e744 .cfa: sp 128 +
STACK CFI 1e754 .cfa: x29 48 + x19: .cfa -8 + ^ x20: .cfa -16 + ^ x21: .cfa -32 + ^ .ra: .cfa -40 + ^ x29: .cfa -48 + ^
STACK CFI 1e820 .cfa: sp 128 +
STACK CFI 1e830 .cfa: sp 0 +
STACK CFI 1e834 .cfa: x29 48 +
STACK CFI INIT 1e854 27c .cfa: sp 0 +
STACK CFI 1e858 .cfa: sp 176 +
STACK CFI 1e874 .cfa: x29 96 + x19: .cfa -8 + ^ x20: .cfa -16 + ^ x21: .cfa -24 + ^ x22: .cfa -32 + ^ x23: .cfa -40 + ^ x24: .cfa -48 + ^ x25: .cfa -56 + ^ x26: .cfa -64 + ^ x27: .cfa -72 + ^ x28: .cfa -80 + ^ .ra: .cfa -88 + ^ x29: .cfa -96 + ^
STACK CFI 1eaac .cfa: sp 176 +
STACK CFI 1eac8 .cfa: sp 0 +
STACK CFI 1eacc .cfa: x29 96 +
STACK CFI INIT 1ead0 520 .cfa: sp 0 +
STACK CFI 1ead4 .cfa: sp 176 +
STACK CFI 1eaf0 .cfa: x29 96 + x19: .cfa -8 + ^ x20: .cfa -16 + ^ x21: .cfa -24 + ^ x22: .cfa -32 + ^ x23: .cfa -40 + ^ x24: .cfa -48 + ^ x25: .cfa -56 + ^ x26: .cfa -64 + ^ x27: .cfa -72 + ^ x28: .cfa -80 + ^ .ra: .cfa -88 + ^ x29: .cfa -96 + ^
STACK CFI 1efcc .cfa: sp 176 +
STACK CFI 1efe8 .cfa: sp 0 +
STACK CFI 1efec .cfa: x29 96 +
STACK CFI INIT 1eff0 20c .cfa: sp 0 +
STACK CFI 1eff4 .cfa: sp 80 +
STACK CFI 1f008 .cfa: x29 80 + x19: .cfa -8 + ^ x20: .cfa -16 + ^ x21: .cfa -24 + ^ x22: .cfa -32 + ^ x23: .cfa -40 + ^ x24: .cfa -48 + ^ x25: .cfa -64 + ^ .ra: .cfa -72 + ^ x29: .cfa -80 + ^
STACK CFI 1f098 .cfa: sp 80 +
STACK CFI 1f0ac .cfa: sp 0 +
STACK CFI 1f0b0 .cfa: x29 80 +
STACK CFI 1f0bc .cfa: sp 80 +
STACK CFI 1f0d0 .cfa: sp 0 +
STACK CFI 1f0d4 .cfa: x29 80 +
STACK CFI INIT 1f1fc 428 .cfa: sp 0 +
STACK CFI 1f200 .cfa: sp 128 +
STACK CFI 1f21c .cfa: x29 96 + x19: .cfa -8 + ^ x20: .cfa -16 + ^ x21: .cfa -24 + ^ x22: .cfa -32 + ^ x23: .cfa -40 + ^ x24: .cfa -48 + ^ x25: .cfa -56 + ^ x26: .cfa -64 + ^ x27: .cfa -72 + ^ x28: .cfa -80 + ^ .ra: .cfa -88 + ^ x29: .cfa -96 + ^
STACK CFI 1f600 .cfa: sp 128 +
STACK CFI 1f61c .cfa: sp 0 +
STACK CFI 1f620 .cfa: x29 96 +
STACK CFI INIT 1f624 194 .cfa: sp 0 +
STACK CFI 1f628 .cfa: sp 32 +
STACK CFI 1f630 .cfa: x29 16 + .ra: .cfa -8 + ^ x29: .cfa -16 + ^
STACK CFI 1f674 .cfa: sp 32 +
STACK CFI 1f67c .cfa: sp 0 +
STACK CFI 1f680 .cfa: x29 16 +
STACK CFI INIT 1f7b8 1b8 .cfa: sp 0 +
STACK CFI INIT 1f970 1d0 .cfa: sp 0 +
STACK CFI 1f974 .cfa: sp 80 +
STACK CFI 1f988 .cfa: x29 80 + x19: .cfa -8 + ^ x20: .cfa -16 + ^ x21: .cfa -24 + ^ x22: .cfa -32 + ^ x23: .cfa -40 + ^ x24: .cfa -48 + ^ x25: .cfa -64 + ^ .ra: .cfa -72 + ^ x29: .cfa -80 + ^
STACK CFI 1fb28 .cfa: sp 80 +
STACK CFI 1fb3c .cfa: sp 0 +
STACK CFI INIT 1fb40 67c .cfa: sp 0 +
STACK CFI 1fb44 .cfa: sp 176 +
STACK CFI 1fb60 .cfa: x29 96 + x19: .cfa -8 + ^ x20: .cfa -16 + ^ x21: .cfa -24 + ^ x22: .cfa -32 + ^ x23: .cfa -40 + ^ x24: .cfa -48 + ^ x25: .cfa -56 + ^ x26: .cfa -64 + ^ x27: .cfa -72 + ^ x28: .cfa -80 + ^ .ra: .cfa -88 + ^ x29: .cfa -96 + ^
STACK CFI 20198 .cfa: sp 176 +
STACK CFI 201b4 .cfa: sp 0 +
STACK CFI 201b8 .cfa: x29 96 +
STACK CFI INIT 201bc 1e4 .cfa: sp 0 +
STACK CFI 201c0 .cfa: sp 32 +
STACK CFI 201c8 .cfa: x29 32 + x19: .cfa -8 + ^ x20: .cfa -16 + ^ .ra: .cfa -24 + ^ x29: .cfa -32 + ^
STACK CFI 202b8 .cfa: sp 32 +
STACK CFI 202c0 .cfa: sp 0 +
STACK CFI 202c4 .cfa: x29 32 +
STACK CFI 20338 .cfa: sp 32 +
STACK CFI 20340 .cfa: sp 0 +
STACK CFI 20344 .cfa: x29 32 +
STACK CFI 20354 .cfa: sp 32 +
STACK CFI 2035c .cfa: sp 0 +
STACK CFI 20360 .cfa: x29 32 +
STACK CFI 20370 .cfa: sp 32 +
STACK CFI 20378 .cfa: sp 0 +
STACK CFI 2037c .cfa: x29 32 +
STACK CFI INIT 203a0 178 .cfa: sp 0 +
STACK CFI 203a4 .cfa: sp 80 +
STACK CFI 203b8 .cfa: x29 64 + x19: .cfa -8 + ^ x20: .cfa -16 + ^ x21: .cfa -24 + ^ x22: .cfa -32 + ^ x23: .cfa -40 + ^ x24: .cfa -48 + ^ .ra: .cfa -56 + ^ x29: .cfa -64 + ^
STACK CFI 204fc .cfa: sp 80 +
STACK CFI 20510 .cfa: sp 0 +
STACK CFI 20514 .cfa: x29 64 +
STACK CFI INIT 20518 178 .cfa: sp 0 +
STACK CFI 2051c .cfa: sp 80 +
STACK CFI 20530 .cfa: x29 64 + x19: .cfa -8 + ^ x20: .cfa -16 + ^ x21: .cfa -24 + ^ x22: .cfa -32 + ^ x23: .cfa -40 + ^ x24: .cfa -48 + ^ .ra: .cfa -56 + ^ x29: .cfa -64 + ^
STACK CFI 20674 .cfa: sp 80 +
STACK CFI 20688 .cfa: sp 0 +
STACK CFI 2068c .cfa: x29 64 +
STACK CFI INIT 20690 178 .cfa: sp 0 +
STACK CFI 20694 .cfa: sp 80 +
STACK CFI 206a8 .cfa: x29 64 + x19: .cfa -8 + ^ x20: .cfa -16 + ^ x21: .cfa -24 + ^ x22: .cfa -32 + ^ x23: .cfa -40 + ^ x24: .cfa -48 + ^ .ra: .cfa -56 + ^ x29: .cfa -64 + ^
STACK CFI 207ec .cfa: sp 80 +
STACK CFI 20800 .cfa: sp 0 +
STACK CFI 20804 .cfa: x29 64 +
STACK CFI INIT 20808 94 .cfa: sp 0 +
STACK CFI 2080c .cfa: sp 16 +
STACK CFI 20810 .cfa: x29 16 + .ra: .cfa -8 + ^ x29: .cfa -16 + ^
STACK CFI 20864 .cfa: sp 16 +
STACK CFI 20868 .cfa: sp 0 +
STACK CFI 2086c .cfa: x29 16 +
STACK CFI INIT 2089c 158 .cfa: sp 0 +
STACK CFI 208a0 .cfa: sp 112 +
STACK CFI 208bc .cfa: x29 96 + x19: .cfa -8 + ^ x20: .cfa -16 + ^ x21: .cfa -24 + ^ x22: .cfa -32 + ^ x23: .cfa -40 + ^ x24: .cfa -48 + ^ x25: .cfa -56 + ^ x26: .cfa -64 + ^ x27: .cfa -72 + ^ x28: .cfa -80 + ^ .ra: .cfa -88 + ^ x29: .cfa -96 + ^
STACK CFI 209a4 .cfa: sp 112 +
STACK CFI 209a8 .cfa: x29 96 +
STACK CFI 209b0 .cfa: sp 112 +
STACK CFI 209cc .cfa: sp 0 +
STACK CFI 209d0 .cfa: x29 96 +
STACK CFI 209f0 .cfa: sp 112 +
STACK CFI INIT 209f4 94 .cfa: sp 0 +
STACK CFI 209f8 .cfa: sp 16 +
STACK CFI 209fc .cfa: x29 16 + .ra: .cfa -8 + ^ x29: .cfa -16 + ^
STACK CFI 20a50 .cfa: sp 16 +
STACK CFI 20a54 .cfa: sp 0 +
STACK CFI 20a58 .cfa: x29 16 +
STACK CFI INIT 20a88 34 .cfa: sp 0 +
STACK CFI 20a8c .cfa: sp 16 +
STACK CFI 20a90 .cfa: x29 16 + .ra: .cfa -8 + ^ x29: .cfa -16 + ^
STACK CFI INIT 20abc ac .cfa: sp 0 +
STACK CFI 20ac0 .cfa: sp 64 +
STACK CFI 20ad0 .cfa: x29 64 + x19: .cfa -8 + ^ x20: .cfa -16 + ^ x21: .cfa -24 + ^ x22: .cfa -32 + ^ x23: .cfa -48 + ^ .ra: .cfa -56 + ^ x29: .cfa -64 + ^
STACK CFI 20b4c .cfa: sp 64 +
STACK CFI 20b5c .cfa: sp 0 +
STACK CFI 20b60 .cfa: x29 64 +
STACK CFI INIT 20b68 110 .cfa: sp 0 +
STACK CFI 20b6c .cfa: sp 64 +
STACK CFI 20b7c .cfa: x29 64 + x19: .cfa -8 + ^ x20: .cfa -16 + ^ x21: .cfa -24 + ^ x22: .cfa -32 + ^ x23: .cfa -40 + ^ x24: .cfa -48 + ^ .ra: .cfa -56 + ^ x29: .cfa -64 + ^
STACK CFI 20c5c .cfa: sp 64 +
STACK CFI 20c6c .cfa: sp 0 +
STACK CFI 20c70 .cfa: x29 64 +
STACK CFI INIT 20c78 178 .cfa: sp 0 +
STACK CFI 20c7c .cfa: sp 80 +
STACK CFI 20c90 .cfa: x29 80 + x19: .cfa -8 + ^ x20: .cfa -16 + ^ x21: .cfa -24 + ^ x22: .cfa -32 + ^ x23: .cfa -40 + ^ x24: .cfa -48 + ^ x25: .cfa -56 + ^ x26: .cfa -64 + ^ .ra: .cfa -72 + ^ x29: .cfa -80 + ^
STACK CFI 20dd8 .cfa: sp 80 +
STACK CFI 20dec .cfa: sp 0 +
STACK CFI INIT 20df0 1b0 .cfa: sp 0 +
STACK CFI INIT 20fa0 68 .cfa: sp 0 +
STACK CFI 20fa4 .cfa: sp 48 +
STACK CFI 20fb0 .cfa: x29 48 + x19: .cfa -8 + ^ x20: .cfa -16 + ^ x21: .cfa -32 + ^ .ra: .cfa -40 + ^ x29: .cfa -48 + ^
STACK CFI 20fe8 .cfa: sp 48 +
STACK CFI 20ff4 .cfa: sp 0 +
STACK CFI 20ff8 .cfa: sp 48 +
STACK CFI 21004 .cfa: sp 0 +
STACK CFI INIT 21008 50 .cfa: sp 0 +
STACK CFI 2100c .cfa: sp 32 +
STACK CFI 21014 .cfa: x29 32 + x19: .cfa -16 + ^ .ra: .cfa -24 + ^ x29: .cfa -32 + ^
STACK CFI 2102c .cfa: sp 32 +
STACK CFI 21034 .cfa: sp 0 +
STACK CFI 21038 .cfa: x29 32 +
STACK CFI 2104c .cfa: sp 32 +
STACK CFI 21054 .cfa: sp 0 +
STACK CFI INIT 21058 9c .cfa: sp 0 +
STACK CFI 2105c .cfa: sp 32 +
STACK CFI 21064 .cfa: x29 32 + x19: .cfa -8 + ^ x20: .cfa -16 + ^ .ra: .cfa -24 + ^ x29: .cfa -32 + ^
STACK CFI 210e8 .cfa: sp 32 +
STACK CFI 210f0 .cfa: sp 0 +
STACK CFI INIT 213f8 68 .cfa: sp 0 +
STACK CFI 213fc .cfa: sp 48 +
STACK CFI 21408 .cfa: x29 48 + x19: .cfa -8 + ^ x20: .cfa -16 + ^ x21: .cfa -32 + ^ .ra: .cfa -40 + ^ x29: .cfa -48 + ^
STACK CFI 21440 .cfa: sp 48 +
STACK CFI 2144c .cfa: sp 0 +
STACK CFI 21450 .cfa: sp 48 +
STACK CFI 2145c .cfa: sp 0 +
STACK CFI INIT 21a64 1dc .cfa: sp 0 +
STACK CFI 21a68 .cfa: sp 240 +
STACK CFI 21a7c .cfa: x29 64 + x19: .cfa -8 + ^ x20: .cfa -16 + ^ x21: .cfa -24 + ^ x22: .cfa -32 + ^ x23: .cfa -40 + ^ x24: .cfa -48 + ^ .ra: .cfa -56 + ^ x29: .cfa -64 + ^
STACK CFI 21b84 .cfa: sp 240 +
STACK CFI 21b98 .cfa: sp 0 +
STACK CFI 21b9c .cfa: x29 64 +
STACK CFI INIT 21e90 3c0 .cfa: sp 0 +
STACK CFI 21e94 .cfa: sp 32 +
STACK CFI 21e9c .cfa: x29 32 + x19: .cfa -8 + ^ x20: .cfa -16 + ^ .ra: .cfa -24 + ^ x29: .cfa -32 + ^
STACK CFI 22244 .cfa: sp 32 +
STACK CFI 2224c .cfa: sp 0 +
STACK CFI INIT 22250 80 .cfa: sp 0 +
STACK CFI 22254 .cfa: sp 48 +
STACK CFI 22260 .cfa: x29 48 + x19: .cfa -8 + ^ x20: .cfa -16 + ^ x21: .cfa -24 + ^ x22: .cfa -32 + ^ .ra: .cfa -40 + ^ x29: .cfa -48 + ^
STACK CFI 222ac .cfa: sp 48 +
STACK CFI 222b8 .cfa: sp 0 +
STACK CFI 222bc .cfa: x29 48 +
STACK CFI 222c0 .cfa: sp 48 +
STACK CFI 222cc .cfa: sp 0 +
STACK CFI INIT 22b7c 4 .cfa: sp 0 +
STACK CFI INIT 22d24 a4 .cfa: sp 0 +
STACK CFI 22d28 .cfa: sp 32 +
STACK CFI 22d30 .cfa: x29 32 + x19: .cfa -8 + ^ x20: .cfa -16 + ^ .ra: .cfa -24 + ^ x29: .cfa -32 + ^
STACK CFI 22dbc .cfa: sp 32 +
STACK CFI 22dc4 .cfa: sp 0 +
STACK CFI INIT 22dc8 fc .cfa: sp 0 +
STACK CFI 22dcc .cfa: sp 64 +
STACK CFI 22ddc .cfa: x29 64 + x19: .cfa -8 + ^ x20: .cfa -16 + ^ x21: .cfa -24 + ^ x22: .cfa -32 + ^ x23: .cfa -48 + ^ .ra: .cfa -56 + ^ x29: .cfa -64 + ^
STACK CFI 22e40 .cfa: sp 64 +
STACK CFI 22e50 .cfa: sp 0 +
STACK CFI 22e54 .cfa: x29 64 +
STACK CFI 22e70 .cfa: sp 64 +
STACK CFI 22e80 .cfa: sp 0 +
STACK CFI 22e84 .cfa: x29 64 +
STACK CFI 22eb0 .cfa: sp 64 +
STACK CFI 22ec0 .cfa: sp 0 +
STACK CFI INIT 22ec4 34 .cfa: sp 0 +
STACK CFI 22ec8 .cfa: sp 16 +
STACK CFI 22ecc .cfa: x29 16 + .ra: .cfa -8 + ^ x29: .cfa -16 + ^
STACK CFI INIT 22ef8 24 .cfa: sp 0 +
STACK CFI 22efc .cfa: sp 32 +
STACK CFI 22f04 .cfa: x29 32 + x19: .cfa -16 + ^ .ra: .cfa -24 + ^ x29: .cfa -32 + ^
STACK CFI 22f10 .cfa: sp 32 +
STACK CFI 22f18 .cfa: sp 0 +
STACK CFI INIT 23084 7c .cfa: sp 0 +
STACK CFI 23088 .cfa: sp 48 +
STACK CFI 23094 .cfa: x29 48 + x19: .cfa -8 + ^ x20: .cfa -16 + ^ x21: .cfa -24 + ^ x22: .cfa -32 + ^ .ra: .cfa -40 + ^ x29: .cfa -48 + ^
STACK CFI 2309c .cfa: sp 48 +
STACK CFI 230a8 .cfa: sp 0 +
STACK CFI 230ac .cfa: x29 48 +
STACK CFI 230f0 .cfa: sp 48 +
STACK CFI 230fc .cfa: sp 0 +
STACK CFI INIT 23100 14 .cfa: sp 0 +
STACK CFI 23104 .cfa: sp 16 +
STACK CFI 23108 .cfa: x29 16 + .ra: .cfa -8 + ^ x29: .cfa -16 + ^
STACK CFI INIT 23114 4 .cfa: sp 0 +
STACK CFI INIT 23118 14 .cfa: sp 0 +
STACK CFI INIT 2312c 54 .cfa: sp 0 +
STACK CFI 23130 .cfa: sp 32 +
STACK CFI 23138 .cfa: x29 32 + x19: .cfa -8 + ^ x20: .cfa -16 + ^ .ra: .cfa -24 + ^ x29: .cfa -32 + ^
STACK CFI 23168 .cfa: sp 32 +
STACK CFI 23170 .cfa: sp 0 +
STACK CFI 23174 .cfa: sp 32 +
STACK CFI 2317c .cfa: sp 0 +
STACK CFI INIT 23180 14 .cfa: sp 0 +
STACK CFI 23184 .cfa: sp 16 +
STACK CFI 23188 .cfa: x29 16 + .ra: .cfa -8 + ^ x29: .cfa -16 + ^
STACK CFI INIT 233b0 50 .cfa: sp 0 +
STACK CFI 233b4 .cfa: sp 32 +
STACK CFI 233bc .cfa: x29 32 + x19: .cfa -16 + ^ .ra: .cfa -24 + ^ x29: .cfa -32 + ^
STACK CFI 233d4 .cfa: sp 32 +
STACK CFI 233dc .cfa: sp 0 +
STACK CFI 233e0 .cfa: x29 32 +
STACK CFI 233f4 .cfa: sp 32 +
STACK CFI 233fc .cfa: sp 0 +
STACK CFI INIT 23400 50 .cfa: sp 0 +
STACK CFI 23404 .cfa: sp 32 +
STACK CFI 2340c .cfa: x29 32 + x19: .cfa -16 + ^ .ra: .cfa -24 + ^ x29: .cfa -32 + ^
STACK CFI 23424 .cfa: sp 32 +
STACK CFI 2342c .cfa: sp 0 +
STACK CFI 23430 .cfa: x29 32 +
STACK CFI 23444 .cfa: sp 32 +
STACK CFI 2344c .cfa: sp 0 +
STACK CFI INIT 23450 5c .cfa: sp 0 +
STACK CFI 23454 .cfa: sp 32 +
STACK CFI 2345c .cfa: x29 32 + x19: .cfa -16 + ^ .ra: .cfa -24 + ^ x29: .cfa -32 + ^
STACK CFI 23480 .cfa: sp 32 +
STACK CFI 23488 .cfa: sp 0 +
STACK CFI 2348c .cfa: x29 32 +
STACK CFI 234a0 .cfa: sp 32 +
STACK CFI 234a8 .cfa: sp 0 +
STACK CFI INIT 234ac 6c .cfa: sp 0 +
STACK CFI 234b0 .cfa: sp 32 +
STACK CFI 234b8 .cfa: x29 32 + x19: .cfa -8 + ^ x20: .cfa -16 + ^ .ra: .cfa -24 + ^ x29: .cfa -32 + ^
STACK CFI 234e4 .cfa: sp 32 +
STACK CFI 234ec .cfa: sp 0 +
STACK CFI 234f0 .cfa: x29 32 +
STACK CFI 2350c .cfa: sp 32 +
STACK CFI 23514 .cfa: sp 0 +
STACK CFI INIT 23518 58 .cfa: sp 0 +
STACK CFI 2351c .cfa: sp 32 +
STACK CFI 23524 .cfa: x29 32 + x19: .cfa -8 + ^ x20: .cfa -16 + ^ .ra: .cfa -24 + ^ x29: .cfa -32 + ^
STACK CFI 23564 .cfa: sp 32 +
STACK CFI 2356c .cfa: sp 0 +
STACK CFI INIT 23570 4c .cfa: sp 0 +
STACK CFI 23574 .cfa: sp 32 +
STACK CFI 2357c .cfa: x29 32 + x19: .cfa -8 + ^ x20: .cfa -16 + ^ .ra: .cfa -24 + ^ x29: .cfa -32 + ^
STACK CFI 235b0 .cfa: sp 32 +
STACK CFI 235b8 .cfa: sp 0 +
STACK CFI INIT 235bc 50 .cfa: sp 0 +
STACK CFI 235c0 .cfa: sp 32 +
STACK CFI 235c8 .cfa: x29 32 + x19: .cfa -16 + ^ .ra: .cfa -24 + ^ x29: .cfa -32 + ^
STACK CFI 235e0 .cfa: sp 32 +
STACK CFI 235e8 .cfa: sp 0 +
STACK CFI 235ec .cfa: x29 32 +
STACK CFI 23600 .cfa: sp 32 +
STACK CFI 23608 .cfa: sp 0 +
STACK CFI INIT 2360c 60 .cfa: sp 0 +
STACK CFI 23610 .cfa: sp 32 +
STACK CFI 23618 .cfa: x29 32 + x19: .cfa -8 + ^ x20: .cfa -16 + ^ .ra: .cfa -24 + ^ x29: .cfa -32 + ^
STACK CFI 23638 .cfa: sp 32 +
STACK CFI 23640 .cfa: sp 0 +
STACK CFI 23644 .cfa: x29 32 +
STACK CFI 23660 .cfa: sp 32 +
STACK CFI 23668 .cfa: sp 0 +
STACK CFI INIT 2383c 1c .cfa: sp 0 +
STACK CFI INIT 23858 c .cfa: sp 0 +
STACK CFI INIT 23864 60 .cfa: sp 0 +
STACK CFI 23868 .cfa: sp 32 +
STACK CFI 23870 .cfa: x29 32 + x19: .cfa -8 + ^ x20: .cfa -16 + ^ .ra: .cfa -24 + ^ x29: .cfa -32 + ^
STACK CFI 23890 .cfa: sp 32 +
STACK CFI 23898 .cfa: sp 0 +
STACK CFI 2389c .cfa: x29 32 +
STACK CFI 238b8 .cfa: sp 32 +
STACK CFI 238c0 .cfa: sp 0 +
STACK CFI INIT 238c4 70 .cfa: sp 0 +
STACK CFI 238c8 .cfa: sp 32 +
STACK CFI 238d0 .cfa: x29 32 + x19: .cfa -8 + ^ x20: .cfa -16 + ^ .ra: .cfa -24 + ^ x29: .cfa -32 + ^
STACK CFI 238f8 .cfa: sp 32 +
STACK CFI 23900 .cfa: sp 0 +
STACK CFI 23904 .cfa: x29 32 +
STACK CFI 23928 .cfa: sp 32 +
STACK CFI 23930 .cfa: sp 0 +
STACK CFI INIT 23934 5c .cfa: sp 0 +
STACK CFI 23938 .cfa: sp 32 +
STACK CFI 23940 .cfa: x29 32 + x19: .cfa -16 + ^ .ra: .cfa -24 + ^ x29: .cfa -32 + ^
STACK CFI 23964 .cfa: sp 32 +
STACK CFI 2396c .cfa: sp 0 +
STACK CFI 23970 .cfa: x29 32 +
STACK CFI 23984 .cfa: sp 32 +
STACK CFI 2398c .cfa: sp 0 +
STACK CFI INIT 23990 6c .cfa: sp 0 +
STACK CFI 23994 .cfa: sp 32 +
STACK CFI 2399c .cfa: x29 32 + x19: .cfa -8 + ^ x20: .cfa -16 + ^ .ra: .cfa -24 + ^ x29: .cfa -32 + ^
STACK CFI 239c8 .cfa: sp 32 +
STACK CFI 239d0 .cfa: sp 0 +
STACK CFI 239d4 .cfa: x29 32 +
STACK CFI 239f0 .cfa: sp 32 +
STACK CFI 239f8 .cfa: sp 0 +
STACK CFI INIT 239fc 58 .cfa: sp 0 +
STACK CFI 23a00 .cfa: sp 32 +
STACK CFI 23a08 .cfa: x29 32 + x19: .cfa -8 + ^ x20: .cfa -16 + ^ .ra: .cfa -24 + ^ x29: .cfa -32 + ^
STACK CFI 23a48 .cfa: sp 32 +
STACK CFI 23a50 .cfa: sp 0 +
STACK CFI INIT 23a54 4c .cfa: sp 0 +
STACK CFI 23a58 .cfa: sp 32 +
STACK CFI 23a60 .cfa: x29 32 + x19: .cfa -8 + ^ x20: .cfa -16 + ^ .ra: .cfa -24 + ^ x29: .cfa -32 + ^
STACK CFI 23a94 .cfa: sp 32 +
STACK CFI 23a9c .cfa: sp 0 +
STACK CFI INIT 23aa0 50 .cfa: sp 0 +
STACK CFI 23aa4 .cfa: sp 32 +
STACK CFI 23aac .cfa: x29 32 + x19: .cfa -16 + ^ .ra: .cfa -24 + ^ x29: .cfa -32 + ^
STACK CFI 23ac4 .cfa: sp 32 +
STACK CFI 23acc .cfa: sp 0 +
STACK CFI 23ad0 .cfa: x29 32 +
STACK CFI 23ae4 .cfa: sp 32 +
STACK CFI 23aec .cfa: sp 0 +
STACK CFI INIT 23af0 60 .cfa: sp 0 +
STACK CFI 23af4 .cfa: sp 32 +
STACK CFI 23afc .cfa: x29 32 + x19: .cfa -8 + ^ x20: .cfa -16 + ^ .ra: .cfa -24 + ^ x29: .cfa -32 + ^
STACK CFI 23b1c .cfa: sp 32 +
STACK CFI 23b24 .cfa: sp 0 +
STACK CFI 23b28 .cfa: x29 32 +
STACK CFI 23b44 .cfa: sp 32 +
STACK CFI 23b4c .cfa: sp 0 +
STACK CFI INIT 23d14 1c .cfa: sp 0 +
STACK CFI INIT 23d30 c .cfa: sp 0 +
STACK CFI INIT 23d3c 4 .cfa: sp 0 +
STACK CFI INIT 23d40 4 .cfa: sp 0 +
STACK CFI INIT 23d44 24 .cfa: sp 0 +
STACK CFI 23d48 .cfa: sp 16 +
STACK CFI 23d4c .cfa: x29 16 + .ra: .cfa -8 + ^ x29: .cfa -16 + ^
STACK CFI 23d60 .cfa: sp 16 +
STACK CFI 23d64 .cfa: sp 0 +
STACK CFI INIT 23d68 10 .cfa: sp 0 +
STACK CFI INIT 23d78 4 .cfa: sp 0 +
STACK CFI INIT 23d7c 4 .cfa: sp 0 +
STACK CFI INIT 2486c 1c .cfa: sp 0 +
STACK CFI INIT 24888 c .cfa: sp 0 +
STACK CFI INIT 2497c 14 .cfa: sp 0 +
STACK CFI INIT 24990 14 .cfa: sp 0 +
STACK CFI INIT 249a4 8 .cfa: sp 0 +
STACK CFI INIT 249ac 14 .cfa: sp 0 +
STACK CFI INIT 2585c 8 .cfa: sp 0 +
STACK CFI INIT 25944 2c .cfa: sp 0 +
STACK CFI 25948 .cfa: sp 32 +
STACK CFI 25950 .cfa: x29 32 + x19: .cfa -16 + ^ .ra: .cfa -24 + ^ x29: .cfa -32 + ^
STACK CFI 25964 .cfa: sp 32 +
STACK CFI 2596c .cfa: sp 0 +
STACK CFI INIT 25970 28 .cfa: sp 0 +
STACK CFI INIT 25998 4 .cfa: sp 0 +
STACK CFI INIT 2599c 8 .cfa: sp 0 +
STACK CFI INIT 25bcc 2c .cfa: sp 0 +
STACK CFI INIT 25bf8 4 .cfa: sp 0 +
STACK CFI INIT 25bfc 4 .cfa: sp 0 +
STACK CFI INIT 25c00 4 .cfa: sp 0 +
STACK CFI INIT 25c04 4 .cfa: sp 0 +
STACK CFI INIT 25c08 4 .cfa: sp 0 +
STACK CFI INIT 25c0c 8 .cfa: sp 0 +
STACK CFI INIT 25c14 4 .cfa: sp 0 +
STACK CFI INIT 25c84 4 .cfa: sp 0 +
STACK CFI INIT 25c88 304 .cfa: sp 0 +
STACK CFI 25c8c .cfa: sp 144 +
STACK CFI 25ca8 .cfa: x29 80 + x19: .cfa -8 + ^ x20: .cfa -16 + ^ x21: .cfa -24 + ^ x22: .cfa -32 + ^ x23: .cfa -40 + ^ x24: .cfa -48 + ^ x25: .cfa -64 + ^ .ra: .cfa -72 + ^ x29: .cfa -80 + ^ v8: .cfa -88 + ^ v9: .cfa -96 + ^
STACK CFI 25f68 .cfa: sp 144 +
STACK CFI 25f84 .cfa: sp 0 +
STACK CFI 25f88 .cfa: x29 80 +
STACK CFI INIT 25f8c 60 .cfa: sp 0 +
STACK CFI 25f90 .cfa: sp 32 +
STACK CFI 25f98 .cfa: x29 32 + x19: .cfa -8 + ^ x20: .cfa -16 + ^ .ra: .cfa -24 + ^ x29: .cfa -32 + ^
STACK CFI 25fb8 .cfa: sp 32 +
STACK CFI 25fc0 .cfa: sp 0 +
STACK CFI 25fc4 .cfa: x29 32 +
STACK CFI 25fe0 .cfa: sp 32 +
STACK CFI 25fe8 .cfa: sp 0 +
STACK CFI INIT 25fec 70 .cfa: sp 0 +
STACK CFI 25ff0 .cfa: sp 32 +
STACK CFI 25ff8 .cfa: x29 32 + x19: .cfa -8 + ^ x20: .cfa -16 + ^ .ra: .cfa -24 + ^ x29: .cfa -32 + ^
STACK CFI 26020 .cfa: sp 32 +
STACK CFI 26028 .cfa: sp 0 +
STACK CFI 2602c .cfa: x29 32 +
STACK CFI 26050 .cfa: sp 32 +
STACK CFI 26058 .cfa: sp 0 +
STACK CFI INIT 2605c 10 .cfa: sp 0 +
STACK CFI INIT 2606c 30 .cfa: sp 0 +
STACK CFI 26070 .cfa: sp 32 +
STACK CFI 26078 .cfa: x29 32 + x19: .cfa -16 + ^ .ra: .cfa -24 + ^ x29: .cfa -32 + ^
STACK CFI 26090 .cfa: sp 32 +
STACK CFI 26098 .cfa: sp 0 +
STACK CFI INIT 2609c 4 .cfa: sp 0 +
STACK CFI INIT 260a0 4 .cfa: sp 0 +
STACK CFI INIT 26880 4 .cfa: sp 0 +
STACK CFI INIT 26884 14 .cfa: sp 0 +
STACK CFI INIT 26898 38 .cfa: sp 0 +
STACK CFI INIT 268d0 25c .cfa: sp 0 +
STACK CFI 268d4 .cfa: sp 112 +
STACK CFI 268e8 .cfa: x29 64 + x19: .cfa -8 + ^ x20: .cfa -16 + ^ x21: .cfa -24 + ^ x22: .cfa -32 + ^ x23: .cfa -48 + ^ .ra: .cfa -56 + ^ x29: .cfa -64 + ^
STACK CFI 26b10 .cfa: sp 112 +
STACK CFI 26b24 .cfa: sp 0 +
STACK CFI 26b28 .cfa: x29 64 +
STACK CFI INIT 26b2c 178 .cfa: sp 0 +
STACK CFI 26b30 .cfa: sp 96 +
STACK CFI 26b40 .cfa: x29 48 + x19: .cfa -8 + ^ x20: .cfa -16 + ^ x21: .cfa -32 + ^ .ra: .cfa -40 + ^ x29: .cfa -48 + ^
STACK CFI 26c8c .cfa: sp 96 +
STACK CFI 26c9c .cfa: sp 0 +
STACK CFI 26ca0 .cfa: x29 48 +
STACK CFI INIT 26e9c 28 .cfa: sp 0 +
STACK CFI 26ea0 .cfa: sp 32 +
STACK CFI 26ea8 .cfa: x29 32 + x19: .cfa -16 + ^ .ra: .cfa -24 + ^ x29: .cfa -32 + ^
STACK CFI 26eb8 .cfa: sp 32 +
STACK CFI 26ec0 .cfa: sp 0 +
STACK CFI INIT 26ec4 28 .cfa: sp 0 +
STACK CFI 26ec8 .cfa: sp 32 +
STACK CFI 26ed0 .cfa: x29 32 + x19: .cfa -16 + ^ .ra: .cfa -24 + ^ x29: .cfa -32 + ^
STACK CFI 26ee0 .cfa: sp 32 +
STACK CFI 26ee8 .cfa: sp 0 +
STACK CFI INIT 26eec 18 .cfa: sp 0 +
STACK CFI INIT 26f04 18 .cfa: sp 0 +
STACK CFI INIT 26f1c 128 .cfa: sp 0 +
STACK CFI 26f20 .cfa: sp 80 +
STACK CFI 26f34 .cfa: x29 80 + x19: .cfa -8 + ^ x20: .cfa -16 + ^ x21: .cfa -24 + ^ x22: .cfa -32 + ^ x23: .cfa -40 + ^ x24: .cfa -48 + ^ x25: .cfa -64 + ^ .ra: .cfa -72 + ^ x29: .cfa -80 + ^
STACK CFI 27024 .cfa: sp 80 +
STACK CFI 27038 .cfa: sp 0 +
STACK CFI 2703c .cfa: x29 80 +
STACK CFI INIT 27044 34 .cfa: sp 0 +
STACK CFI 27048 .cfa: sp 32 +
STACK CFI 27050 .cfa: x29 32 + x19: .cfa -8 + ^ x20: .cfa -16 + ^ .ra: .cfa -24 + ^ x29: .cfa -32 + ^
STACK CFI 2706c .cfa: sp 32 +
STACK CFI 27074 .cfa: sp 0 +
STACK CFI INIT 27078 4 .cfa: sp 0 +
STACK CFI INIT 2707c 4 .cfa: sp 0 +
STACK CFI INIT 27080 24 .cfa: sp 0 +
STACK CFI 27084 .cfa: sp 16 +
STACK CFI 27088 .cfa: x29 16 + .ra: .cfa -8 + ^ x29: .cfa -16 + ^
STACK CFI 2709c .cfa: sp 16 +
STACK CFI 270a0 .cfa: sp 0 +
STACK CFI INIT 270a4 10 .cfa: sp 0 +
STACK CFI INIT 270b4 4 .cfa: sp 0 +
STACK CFI INIT 270b8 4 .cfa: sp 0 +
STACK CFI INIT 270bc 70 .cfa: sp 0 +
STACK CFI 270c0 .cfa: sp 32 +
STACK CFI 270cc .cfa: x29 24 + x19: .cfa -8 + ^ .ra: .cfa -16 + ^ x29: .cfa -24 + ^ v8: .cfa -32 + ^
STACK CFI 2711c .cfa: sp 32 +
STACK CFI 27128 .cfa: sp 0 +
STACK CFI INIT 2712c 1c .cfa: sp 0 +
STACK CFI INIT 27148 c .cfa: sp 0 +
STACK CFI INIT 27154 2c .cfa: sp 0 +
STACK CFI INIT 275bc 1c .cfa: sp 0 +
STACK CFI INIT 278e0 4 .cfa: sp 0 +
STACK CFI INIT 278e4 2c .cfa: sp 0 +
STACK CFI 278e8 .cfa: sp 32 +
STACK CFI 278f0 .cfa: x29 32 + x19: .cfa -16 + ^ .ra: .cfa -24 + ^ x29: .cfa -32 + ^
STACK CFI 27904 .cfa: sp 32 +
STACK CFI 2790c .cfa: sp 0 +
STACK CFI INIT 279b8 9c .cfa: sp 0 +
STACK CFI INIT 27a54 3c .cfa: sp 0 +
STACK CFI 27a58 .cfa: sp 32 +
STACK CFI 27a60 .cfa: x29 32 + x19: .cfa -16 + ^ .ra: .cfa -24 + ^ x29: .cfa -32 + ^
STACK CFI 27a6c .cfa: sp 32 +
STACK CFI 27a74 .cfa: sp 0 +
STACK CFI 27a78 .cfa: x29 32 +
STACK CFI 27a84 .cfa: sp 32 +
STACK CFI 27a8c .cfa: sp 0 +
STACK CFI INIT 27f6c 64 .cfa: sp 0 +
STACK CFI 27f70 .cfa: sp 32 +
STACK CFI 27f78 .cfa: x29 32 + x19: .cfa -16 + ^ .ra: .cfa -24 + ^ x29: .cfa -32 + ^
STACK CFI 27fa4 .cfa: sp 32 +
STACK CFI 27fac .cfa: sp 0 +
STACK CFI 27fb0 .cfa: x29 32 +
STACK CFI 27fc4 .cfa: sp 32 +
STACK CFI 27fcc .cfa: sp 0 +
STACK CFI INIT 282d0 24 .cfa: sp 0 +
STACK CFI 282d4 .cfa: sp 32 +
STACK CFI 282dc .cfa: x29 32 + x19: .cfa -16 + ^ .ra: .cfa -24 + ^ x29: .cfa -32 + ^
STACK CFI 282e8 .cfa: sp 32 +
STACK CFI 282f0 .cfa: sp 0 +
STACK CFI INIT 2848c 8 .cfa: sp 0 +
STACK CFI INIT 28494 24 .cfa: sp 0 +
STACK CFI 28498 .cfa: sp 32 +
STACK CFI 284a0 .cfa: x29 32 + x19: .cfa -16 + ^ .ra: .cfa -24 + ^ x29: .cfa -32 + ^
STACK CFI 284ac .cfa: sp 32 +
STACK CFI 284b4 .cfa: sp 0 +
STACK CFI INIT 284b8 28 .cfa: sp 0 +
STACK CFI 284bc .cfa: sp 32 +
STACK CFI 284c4 .cfa: x29 32 + x19: .cfa -16 + ^ .ra: .cfa -24 + ^ x29: .cfa -32 + ^
STACK CFI 284d4 .cfa: sp 32 +
STACK CFI 284dc .cfa: sp 0 +
STACK CFI INIT 284e0 24 .cfa: sp 0 +
STACK CFI 284e4 .cfa: sp 32 +
STACK CFI 284ec .cfa: x29 32 + x19: .cfa -16 + ^ .ra: .cfa -24 + ^ x29: .cfa -32 + ^
STACK CFI 284f8 .cfa: sp 32 +
STACK CFI 28500 .cfa: sp 0 +
STACK CFI INIT 28a2c 8 .cfa: sp 0 +
STACK CFI INIT 28a34 24 .cfa: sp 0 +
STACK CFI 28a38 .cfa: sp 32 +
STACK CFI 28a40 .cfa: x29 32 + x19: .cfa -16 + ^ .ra: .cfa -24 + ^ x29: .cfa -32 + ^
STACK CFI 28a4c .cfa: sp 32 +
STACK CFI 28a54 .cfa: sp 0 +
STACK CFI INIT 28a58 28 .cfa: sp 0 +
STACK CFI 28a5c .cfa: sp 32 +
STACK CFI 28a64 .cfa: x29 32 + x19: .cfa -16 + ^ .ra: .cfa -24 + ^ x29: .cfa -32 + ^
STACK CFI 28a74 .cfa: sp 32 +
STACK CFI 28a7c .cfa: sp 0 +
STACK CFI INIT 28a80 8 .cfa: sp 0 +
STACK CFI INIT 28a88 24 .cfa: sp 0 +
STACK CFI 28a8c .cfa: sp 32 +
STACK CFI 28a94 .cfa: x29 32 + x19: .cfa -16 + ^ .ra: .cfa -24 + ^ x29: .cfa -32 + ^
STACK CFI 28aa0 .cfa: sp 32 +
STACK CFI 28aa8 .cfa: sp 0 +
STACK CFI INIT 28aac 28 .cfa: sp 0 +
STACK CFI 28ab0 .cfa: sp 32 +
STACK CFI 28ab8 .cfa: x29 32 + x19: .cfa -16 + ^ .ra: .cfa -24 + ^ x29: .cfa -32 + ^
STACK CFI 28ac8 .cfa: sp 32 +
STACK CFI 28ad0 .cfa: sp 0 +
STACK CFI INIT 28ad4 4 .cfa: sp 0 +
STACK CFI INIT 28ad8 8 .cfa: sp 0 +
STACK CFI INIT 28ae0 24 .cfa: sp 0 +
STACK CFI 28ae4 .cfa: sp 32 +
STACK CFI 28aec .cfa: x29 32 + x19: .cfa -16 + ^ .ra: .cfa -24 + ^ x29: .cfa -32 + ^
STACK CFI 28af8 .cfa: sp 32 +
STACK CFI 28b00 .cfa: sp 0 +
STACK CFI INIT 28b04 28 .cfa: sp 0 +
STACK CFI 28b08 .cfa: sp 32 +
STACK CFI 28b10 .cfa: x29 32 + x19: .cfa -16 + ^ .ra: .cfa -24 + ^ x29: .cfa -32 + ^
STACK CFI 28b20 .cfa: sp 32 +
STACK CFI 28b28 .cfa: sp 0 +
STACK CFI INIT 293ec 4 .cfa: sp 0 +
STACK CFI INIT 2a100 4 .cfa: sp 0 +
STACK CFI INIT 2a104 14 .cfa: sp 0 +
STACK CFI INIT 2a5f8 c .cfa: sp 0 +
STACK CFI INIT 2a604 24c .cfa: sp 0 +
STACK CFI INIT 2a850 a0 .cfa: sp 0 +
STACK CFI 2a85c .cfa: sp 32 +
STACK CFI 2a8b4 .cfa: sp 0 +
STACK CFI 2a8b8 .cfa: sp 32 +
STACK CFI 2a8c0 .cfa: sp 0 +
STACK CFI 2a8c4 .cfa: sp 32 +
STACK CFI 2a8d8 .cfa: sp 0 +
STACK CFI 2a8dc .cfa: sp 32 +
STACK CFI 2a8ec .cfa: sp 0 +
STACK CFI INIT 2a8f0 38 .cfa: sp 0 +
STACK CFI 2a8fc .cfa: sp 32 +
STACK CFI 2a924 .cfa: sp 0 +
STACK CFI INIT 2abbc 7c .cfa: sp 0 +
STACK CFI 2abc0 .cfa: sp 32 +
STACK CFI 2abc8 .cfa: x29 32 + x19: .cfa -16 + ^ .ra: .cfa -24 + ^ x29: .cfa -32 + ^
STACK CFI 2abf4 .cfa: sp 32 +
STACK CFI 2abfc .cfa: sp 0 +
STACK CFI 2ac00 .cfa: x29 32 +
STACK CFI 2ac2c .cfa: sp 32 +
STACK CFI 2ac34 .cfa: sp 0 +
STACK CFI INIT 2ac88 2c .cfa: sp 0 +
STACK CFI 2ac8c .cfa: sp 32 +
STACK CFI 2ac94 .cfa: x29 32 + x19: .cfa -16 + ^ .ra: .cfa -24 + ^ x29: .cfa -32 + ^
STACK CFI 2aca8 .cfa: sp 32 +
STACK CFI 2acb0 .cfa: sp 0 +
STACK CFI INIT 2b474 64 .cfa: sp 0 +
STACK CFI 2b478 .cfa: sp 32 +
STACK CFI 2b480 .cfa: x29 32 + x19: .cfa -16 + ^ .ra: .cfa -24 + ^ x29: .cfa -32 + ^
STACK CFI 2b49c .cfa: sp 32 +
STACK CFI 2b4a4 .cfa: sp 0 +
STACK CFI 2b4a8 .cfa: x29 32 +
STACK CFI 2b4cc .cfa: sp 32 +
STACK CFI 2b4d4 .cfa: sp 0 +
STACK CFI INIT 2b4d8 570 .cfa: sp 0 +
STACK CFI 2b4dc .cfa: sp 176 +
STACK CFI 2b4f0 .cfa: x29 64 + x19: .cfa -8 + ^ x20: .cfa -16 + ^ x21: .cfa -24 + ^ x22: .cfa -32 + ^ x23: .cfa -40 + ^ x24: .cfa -48 + ^ .ra: .cfa -56 + ^ x29: .cfa -64 + ^
STACK CFI 2b720 .cfa: sp 176 +
STACK CFI 2b734 .cfa: sp 0 +
STACK CFI 2b738 .cfa: x29 64 +
STACK CFI 2b784 .cfa: sp 176 +
STACK CFI 2b798 .cfa: sp 0 +
STACK CFI 2b79c .cfa: x29 64 +
STACK CFI 2b7d4 .cfa: sp 176 +
STACK CFI 2b7e8 .cfa: sp 0 +
STACK CFI 2b7ec .cfa: x29 64 +
STACK CFI 2b804 .cfa: sp 176 +
STACK CFI 2b818 .cfa: sp 0 +
STACK CFI 2b81c .cfa: x29 64 +
STACK CFI 2b83c .cfa: sp 176 +
STACK CFI 2b850 .cfa: sp 0 +
STACK CFI 2b854 .cfa: x29 64 +
STACK CFI 2b86c .cfa: sp 176 +
STACK CFI 2b880 .cfa: sp 0 +
STACK CFI 2b884 .cfa: x29 64 +
STACK CFI 2b898 .cfa: sp 176 +
STACK CFI 2b8ac .cfa: sp 0 +
STACK CFI 2b8b0 .cfa: x29 64 +
STACK CFI 2b8c4 .cfa: sp 176 +
STACK CFI 2b8d8 .cfa: sp 0 +
STACK CFI 2b8dc .cfa: x29 64 +
STACK CFI 2b8ec .cfa: sp 176 +
STACK CFI 2b900 .cfa: sp 0 +
STACK CFI 2b904 .cfa: x29 64 +
STACK CFI 2b914 .cfa: sp 176 +
STACK CFI 2b928 .cfa: sp 0 +
STACK CFI 2b92c .cfa: x29 64 +
STACK CFI 2b944 .cfa: sp 176 +
STACK CFI 2b958 .cfa: sp 0 +
STACK CFI 2b95c .cfa: x29 64 +
STACK CFI 2b970 .cfa: sp 176 +
STACK CFI 2b984 .cfa: sp 0 +
STACK CFI 2b988 .cfa: x29 64 +
STACK CFI 2b9a0 .cfa: sp 176 +
STACK CFI 2b9b4 .cfa: sp 0 +
STACK CFI 2b9b8 .cfa: x29 64 +
STACK CFI 2b9e4 .cfa: sp 176 +
STACK CFI 2b9f8 .cfa: sp 0 +
STACK CFI 2b9fc .cfa: x29 64 +
STACK CFI 2ba10 .cfa: sp 176 +
STACK CFI 2ba24 .cfa: sp 0 +
STACK CFI 2ba28 .cfa: x29 64 +
STACK CFI INIT 2ba48 228 .cfa: sp 0 +
STACK CFI INIT 2bc70 2dc .cfa: sp 0 +
STACK CFI INIT 2bf4c 53c .cfa: sp 0 +
STACK CFI INIT 2c488 78 .cfa: sp 0 +
STACK CFI 2c48c .cfa: sp 48 +
STACK CFI 2c498 .cfa: x29 48 + x19: .cfa -8 + ^ x20: .cfa -16 + ^ x21: .cfa -24 + ^ x22: .cfa -32 + ^ .ra: .cfa -40 + ^ x29: .cfa -48 + ^
STACK CFI 2c4e0 .cfa: sp 48 +
STACK CFI 2c4ec .cfa: sp 0 +
STACK CFI 2c4f0 .cfa: sp 48 +
STACK CFI 2c4fc .cfa: sp 0 +
STACK CFI INIT 2c500 8c .cfa: sp 0 +
STACK CFI 2c504 .cfa: sp 32 +
STACK CFI 2c50c .cfa: x29 32 + x19: .cfa -16 + ^ .ra: .cfa -24 + ^ x29: .cfa -32 + ^
STACK CFI 2c540 .cfa: sp 32 +
STACK CFI 2c548 .cfa: sp 0 +
STACK CFI 2c54c .cfa: x29 32 +
STACK CFI 2c580 .cfa: sp 32 +
STACK CFI 2c588 .cfa: sp 0 +
STACK CFI INIT 2c58c 24 .cfa: sp 0 +
STACK CFI 2c590 .cfa: sp 32 +
STACK CFI 2c598 .cfa: x29 32 + x19: .cfa -16 + ^ .ra: .cfa -24 + ^ x29: .cfa -32 + ^
STACK CFI 2c5a4 .cfa: sp 32 +
STACK CFI 2c5ac .cfa: sp 0 +
STACK CFI INIT 2c5b0 150 .cfa: sp 0 +
STACK CFI 2c5b4 .cfa: sp 48 +
STACK CFI 2c5c0 .cfa: x29 48 + x19: .cfa -8 + ^ x20: .cfa -16 + ^ x21: .cfa -24 + ^ x22: .cfa -32 + ^ .ra: .cfa -40 + ^ x29: .cfa -48 + ^
STACK CFI 2c6f0 .cfa: sp 48 +
STACK CFI 2c6fc .cfa: sp 0 +
STACK CFI INIT 2c700 68 .cfa: sp 0 +
STACK CFI 2c704 .cfa: sp 64 +
STACK CFI 2c710 .cfa: x29 32 + x19: .cfa -16 + ^ .ra: .cfa -24 + ^ x29: .cfa -32 + ^
STACK CFI 2c754 .cfa: sp 64 +
STACK CFI 2c760 .cfa: sp 0 +
STACK CFI 2c764 .cfa: x29 32 +
STACK CFI INIT 2c768 90 .cfa: sp 0 +
STACK CFI 2c76c .cfa: sp 32 +
STACK CFI 2c774 .cfa: x29 32 + x19: .cfa -8 + ^ x20: .cfa -16 + ^ .ra: .cfa -24 + ^ x29: .cfa -32 + ^
STACK CFI 2c7a0 .cfa: sp 32 +
STACK CFI 2c7a8 .cfa: sp 0 +
STACK CFI 2c7ac .cfa: x29 32 +
STACK CFI 2c7ec .cfa: sp 32 +
STACK CFI 2c7f4 .cfa: sp 0 +
STACK CFI INIT 2c7f8 ec .cfa: sp 0 +
STACK CFI 2c7fc .cfa: sp 112 +
STACK CFI 2c80c .cfa: x29 48 + x19: .cfa -8 + ^ x20: .cfa -16 + ^ x21: .cfa -32 + ^ .ra: .cfa -40 + ^ x29: .cfa -48 + ^
STACK CFI 2c8cc .cfa: sp 112 +
STACK CFI 2c8dc .cfa: sp 0 +
STACK CFI 2c8e0 .cfa: x29 48 +
STACK CFI INIT 2c8e4 ec .cfa: sp 0 +
STACK CFI 2c8e8 .cfa: sp 112 +
STACK CFI 2c8f8 .cfa: x29 48 + x19: .cfa -8 + ^ x20: .cfa -16 + ^ x21: .cfa -32 + ^ .ra: .cfa -40 + ^ x29: .cfa -48 + ^
STACK CFI 2c9b8 .cfa: sp 112 +
STACK CFI 2c9c8 .cfa: sp 0 +
STACK CFI 2c9cc .cfa: x29 48 +
STACK CFI INIT 2c9d0 48 .cfa: sp 0 +
STACK CFI 2c9d4 .cfa: sp 32 +
STACK CFI 2c9dc .cfa: x29 32 + x19: .cfa -8 + ^ x20: .cfa -16 + ^ .ra: .cfa -24 + ^ x29: .cfa -32 + ^
STACK CFI 2ca00 .cfa: sp 32 +
STACK CFI 2ca08 .cfa: sp 0 +
STACK CFI 2ca0c .cfa: x29 32 +
STACK CFI INIT 2ca18 98 .cfa: sp 0 +
STACK CFI 2ca1c .cfa: sp 80 +
STACK CFI 2ca28 .cfa: x29 32 + x19: .cfa -16 + ^ .ra: .cfa -24 + ^ x29: .cfa -32 + ^
STACK CFI 2ca9c .cfa: sp 80 +
STACK CFI 2caa8 .cfa: sp 0 +
STACK CFI 2caac .cfa: x29 32 +
STACK CFI INIT 2cab0 260 .cfa: sp 0 +
STACK CFI 2cab4 .cfa: sp 112 +
STACK CFI 2cacc .cfa: x29 80 + x19: .cfa -8 + ^ x20: .cfa -16 + ^ x21: .cfa -24 + ^ x22: .cfa -32 + ^ x23: .cfa -40 + ^ x24: .cfa -48 + ^ x25: .cfa -64 + ^ .ra: .cfa -72 + ^ x29: .cfa -80 + ^
STACK CFI 2ccb0 .cfa: sp 112 +
STACK CFI 2ccc8 .cfa: sp 0 +
STACK CFI 2cccc .cfa: x29 80 +
STACK CFI INIT 2cd10 150 .cfa: sp 0 +
STACK CFI 2cd14 .cfa: sp 48 +
STACK CFI 2cd20 .cfa: x29 48 + x19: .cfa -8 + ^ x20: .cfa -16 + ^ x21: .cfa -24 + ^ x22: .cfa -32 + ^ .ra: .cfa -40 + ^ x29: .cfa -48 + ^
STACK CFI 2ce50 .cfa: sp 48 +
STACK CFI 2ce5c .cfa: sp 0 +
STACK CFI INIT 2ce60 1e0 .cfa: sp 0 +
STACK CFI 2ce64 .cfa: sp 96 +
STACK CFI 2ce78 .cfa: x29 64 + x19: .cfa -8 + ^ x20: .cfa -16 + ^ x21: .cfa -24 + ^ x22: .cfa -32 + ^ x23: .cfa -40 + ^ x24: .cfa -48 + ^ .ra: .cfa -56 + ^ x29: .cfa -64 + ^
STACK CFI 2cff8 .cfa: sp 96 +
STACK CFI 2d00c .cfa: sp 0 +
STACK CFI 2d010 .cfa: x29 64 +
STACK CFI INIT 2d040 284 .cfa: sp 0 +
STACK CFI 2d044 .cfa: sp 112 +
STACK CFI 2d05c .cfa: x29 80 + x19: .cfa -8 + ^ x20: .cfa -16 + ^ x21: .cfa -24 + ^ x22: .cfa -32 + ^ x23: .cfa -40 + ^ x24: .cfa -48 + ^ x25: .cfa -64 + ^ .ra: .cfa -72 + ^ x29: .cfa -80 + ^
STACK CFI 2d264 .cfa: sp 112 +
STACK CFI 2d27c .cfa: sp 0 +
STACK CFI 2d280 .cfa: x29 80 +
STACK CFI INIT 2d2c4 208 .cfa: sp 0 +
STACK CFI 2d2c8 .cfa: sp 96 +
STACK CFI 2d2dc .cfa: x29 64 + x19: .cfa -8 + ^ x20: .cfa -16 + ^ x21: .cfa -24 + ^ x22: .cfa -32 + ^ x23: .cfa -40 + ^ x24: .cfa -48 + ^ .ra: .cfa -56 + ^ x29: .cfa -64 + ^
STACK CFI 2d484 .cfa: sp 96 +
STACK CFI 2d498 .cfa: sp 0 +
STACK CFI 2d49c .cfa: x29 64 +
STACK CFI INIT 2d4cc 360 .cfa: sp 0 +
STACK CFI 2d4d0 .cfa: sp 160 +
STACK CFI 2d4ec .cfa: x29 96 + x19: .cfa -8 + ^ x20: .cfa -16 + ^ x21: .cfa -24 + ^ x22: .cfa -32 + ^ x23: .cfa -40 + ^ x24: .cfa -48 + ^ x25: .cfa -56 + ^ x26: .cfa -64 + ^ x27: .cfa -72 + ^ x28: .cfa -80 + ^ .ra: .cfa -88 + ^ x29: .cfa -96 + ^
STACK CFI 2d7b8 .cfa: sp 160 +
STACK CFI 2d7d4 .cfa: sp 0 +
STACK CFI 2d7d8 .cfa: x29 96 +
STACK CFI INIT 2d82c 314 .cfa: sp 0 +
STACK CFI 2d830 .cfa: sp 144 +
STACK CFI 2d84c .cfa: x29 96 + x19: .cfa -8 + ^ x20: .cfa -16 + ^ x21: .cfa -24 + ^ x22: .cfa -32 + ^ x23: .cfa -40 + ^ x24: .cfa -48 + ^ x25: .cfa -56 + ^ x26: .cfa -64 + ^ x27: .cfa -72 + ^ x28: .cfa -80 + ^ .ra: .cfa -88 + ^ x29: .cfa -96 + ^
STACK CFI 2dac8 .cfa: sp 144 +
STACK CFI 2dae4 .cfa: sp 0 +
STACK CFI 2dae8 .cfa: x29 96 +
STACK CFI INIT 2db40 2b4 .cfa: sp 0 +
STACK CFI 2db44 .cfa: sp 128 +
STACK CFI 2db5c .cfa: x29 80 + x19: .cfa -8 + ^ x20: .cfa -16 + ^ x21: .cfa -24 + ^ x22: .cfa -32 + ^ x23: .cfa -40 + ^ x24: .cfa -48 + ^ x25: .cfa -56 + ^ x26: .cfa -64 + ^ .ra: .cfa -72 + ^ x29: .cfa -80 + ^
STACK CFI 2dd50 .cfa: sp 128 +
STACK CFI 2dd68 .cfa: sp 0 +
STACK CFI 2dd6c .cfa: x29 80 +
STACK CFI 2ddd4 .cfa: sp 128 +
STACK CFI 2ddec .cfa: sp 0 +
STACK CFI 2ddf0 .cfa: x29 80 +
STACK CFI INIT 2ddf4 de0 .cfa: sp 0 +
STACK CFI 2ddf8 .cfa: sp 144 +
STACK CFI 2de14 .cfa: x29 96 + x19: .cfa -8 + ^ x20: .cfa -16 + ^ x21: .cfa -24 + ^ x22: .cfa -32 + ^ x23: .cfa -40 + ^ x24: .cfa -48 + ^ x25: .cfa -56 + ^ x26: .cfa -64 + ^ x27: .cfa -72 + ^ x28: .cfa -80 + ^ .ra: .cfa -88 + ^ x29: .cfa -96 + ^
STACK CFI 2eaac .cfa: sp 144 +
STACK CFI 2eac8 .cfa: sp 0 +
STACK CFI 2eacc .cfa: x29 96 +
STACK CFI INIT 2ebd4 264 .cfa: sp 0 +
STACK CFI 2ebd8 .cfa: sp 112 +
STACK CFI 2ebec .cfa: x29 64 + x19: .cfa -8 + ^ x20: .cfa -16 + ^ x21: .cfa -24 + ^ x22: .cfa -32 + ^ x23: .cfa -40 + ^ x24: .cfa -48 + ^ .ra: .cfa -56 + ^ x29: .cfa -64 + ^
STACK CFI 2ed68 .cfa: sp 112 +
STACK CFI 2ed7c .cfa: sp 0 +
STACK CFI 2ed80 .cfa: x29 64 +
STACK CFI 2edf0 .cfa: sp 112 +
STACK CFI 2ee04 .cfa: sp 0 +
STACK CFI 2ee08 .cfa: x29 64 +
STACK CFI INIT 2ee38 258 .cfa: sp 0 +
STACK CFI 2ee3c .cfa: sp 96 +
STACK CFI 2ee54 .cfa: x29 96 + x19: .cfa -8 + ^ x20: .cfa -16 + ^ x21: .cfa -24 + ^ x22: .cfa -32 + ^ x23: .cfa -40 + ^ x24: .cfa -48 + ^ x25: .cfa -56 + ^ x26: .cfa -64 + ^ x27: .cfa -72 + ^ x28: .cfa -80 + ^ .ra: .cfa -88 + ^ x29: .cfa -96 + ^
STACK CFI 2f04c .cfa: sp 96 +
STACK CFI 2f064 .cfa: sp 0 +
STACK CFI 2f068 .cfa: x29 96 +
STACK CFI 2f074 .cfa: sp 96 +
STACK CFI 2f08c .cfa: sp 0 +
STACK CFI INIT 2fd14 154 .cfa: sp 0 +
STACK CFI 2fd18 .cfa: sp 96 +
STACK CFI 2fd2c .cfa: x29 64 + x19: .cfa -8 + ^ x20: .cfa -16 + ^ x21: .cfa -24 + ^ x22: .cfa -32 + ^ x23: .cfa -48 + ^ .ra: .cfa -56 + ^ x29: .cfa -64 + ^
STACK CFI 2fe0c .cfa: sp 96 +
STACK CFI 2fe20 .cfa: sp 0 +
STACK CFI 2fe24 .cfa: x29 64 +
STACK CFI INIT 300d4 44 .cfa: sp 0 +
STACK CFI 300d8 .cfa: sp 32 +
STACK CFI 300e0 .cfa: x29 32 + x19: .cfa -16 + ^ .ra: .cfa -24 + ^ x29: .cfa -32 + ^
STACK CFI 300fc .cfa: sp 32 +
STACK CFI 30104 .cfa: sp 0 +
STACK CFI 30108 .cfa: x29 32 +
STACK CFI 3010c .cfa: sp 32 +
STACK CFI 30114 .cfa: sp 0 +
STACK CFI INIT 30118 1d0 .cfa: sp 0 +
STACK CFI 3011c .cfa: sp 64 +
STACK CFI 3012c .cfa: x29 64 + x19: .cfa -8 + ^ x20: .cfa -16 + ^ x21: .cfa -24 + ^ x22: .cfa -32 + ^ x23: .cfa -40 + ^ x24: .cfa -48 + ^ .ra: .cfa -56 + ^ x29: .cfa -64 + ^
STACK CFI 301ec .cfa: sp 64 +
STACK CFI 301fc .cfa: sp 0 +
STACK CFI 30200 .cfa: x29 64 +
STACK CFI INIT 302e8 17c .cfa: sp 0 +
STACK CFI INIT 3081c a0 .cfa: sp 0 +
STACK CFI 30820 .cfa: sp 48 +
STACK CFI 3082c .cfa: x29 48 + x19: .cfa -8 + ^ x20: .cfa -16 + ^ x21: .cfa -24 + ^ x22: .cfa -32 + ^ .ra: .cfa -40 + ^ x29: .cfa -48 + ^
STACK CFI 30898 .cfa: sp 48 +
STACK CFI 308a4 .cfa: sp 0 +
STACK CFI 308a8 .cfa: sp 48 +
STACK CFI 308b4 .cfa: sp 0 +
STACK CFI 308b8 .cfa: x29 48 +
STACK CFI INIT 3157c 158 .cfa: sp 0 +
STACK CFI 31580 .cfa: sp 96 +
STACK CFI 31594 .cfa: x29 64 + x19: .cfa -8 + ^ x20: .cfa -16 + ^ x21: .cfa -24 + ^ x22: .cfa -32 + ^ x23: .cfa -48 + ^ .ra: .cfa -56 + ^ x29: .cfa -64 + ^
STACK CFI 31678 .cfa: sp 96 +
STACK CFI 3168c .cfa: sp 0 +
STACK CFI 31690 .cfa: x29 64 +
STACK CFI INIT 316d4 190 .cfa: sp 0 +
STACK CFI INIT 3235c 1f4 .cfa: sp 0 +
STACK CFI 32360 .cfa: sp 80 +
STACK CFI 32374 .cfa: x29 80 + x19: .cfa -8 + ^ x20: .cfa -16 + ^ x21: .cfa -24 + ^ x22: .cfa -32 + ^ x23: .cfa -40 + ^ x24: .cfa -48 + ^ x25: .cfa -64 + ^ .ra: .cfa -72 + ^ x29: .cfa -80 + ^
STACK CFI 32514 .cfa: sp 80 +
STACK CFI 32528 .cfa: sp 0 +
STACK CFI 3252c .cfa: x29 80 +
STACK CFI 32538 .cfa: sp 80 +
STACK CFI 3254c .cfa: sp 0 +
STACK CFI INIT 33980 124 .cfa: sp 0 +
STACK CFI 339b0 .cfa: sp 32 +
STACK CFI 339b8 .cfa: x29 32 + x19: .cfa -8 + ^ x20: .cfa -16 + ^ .ra: .cfa -24 + ^ x29: .cfa -32 + ^
STACK CFI 33a98 .cfa: sp 32 +
STACK CFI 33aa0 .cfa: sp 0 +
STACK CFI INIT 34200 320 .cfa: sp 0 +
STACK CFI 34204 .cfa: sp 64 +
STACK CFI 34214 .cfa: x29 64 + x19: .cfa -8 + ^ x20: .cfa -16 + ^ x21: .cfa -24 + ^ x22: .cfa -32 + ^ x23: .cfa -40 + ^ x24: .cfa -48 + ^ .ra: .cfa -56 + ^ x29: .cfa -64 + ^
STACK CFI 34290 .cfa: sp 64 +
STACK CFI 342a0 .cfa: sp 0 +
STACK CFI 342a4 .cfa: x29 64 +
STACK CFI 34478 .cfa: sp 64 +
STACK CFI 34488 .cfa: sp 0 +
STACK CFI 3448c .cfa: x29 64 +
STACK CFI 3449c .cfa: sp 64 +
STACK CFI 344ac .cfa: sp 0 +
STACK CFI 344b0 .cfa: x29 64 +
STACK CFI INIT 34520 a0 .cfa: sp 0 +
STACK CFI 34524 .cfa: sp 48 +
STACK CFI 34530 .cfa: x29 48 + x19: .cfa -8 + ^ x20: .cfa -16 + ^ x21: .cfa -24 + ^ x22: .cfa -32 + ^ .ra: .cfa -40 + ^ x29: .cfa -48 + ^
STACK CFI 3459c .cfa: sp 48 +
STACK CFI 345a8 .cfa: sp 0 +
STACK CFI 345ac .cfa: sp 48 +
STACK CFI 345b8 .cfa: sp 0 +
STACK CFI 345bc .cfa: x29 48 +
STACK CFI INIT 354a0 160 .cfa: sp 0 +
STACK CFI 354a4 .cfa: sp 64 +
STACK CFI 354b4 .cfa: x29 64 + x19: .cfa -8 + ^ x20: .cfa -16 + ^ x21: .cfa -24 + ^ x22: .cfa -32 + ^ x23: .cfa -48 + ^ .ra: .cfa -56 + ^ x29: .cfa -64 + ^
STACK CFI 355ac .cfa: sp 64 +
STACK CFI 355bc .cfa: sp 0 +
STACK CFI 355c0 .cfa: x29 64 +
STACK CFI INIT 35600 214 .cfa: sp 0 +
STACK CFI 35604 .cfa: sp 128 +
STACK CFI 35620 .cfa: x29 96 + x19: .cfa -8 + ^ x20: .cfa -16 + ^ x21: .cfa -24 + ^ x22: .cfa -32 + ^ x23: .cfa -40 + ^ x24: .cfa -48 + ^ x25: .cfa -56 + ^ x26: .cfa -64 + ^ x27: .cfa -80 + ^ .ra: .cfa -88 + ^ x29: .cfa -96 + ^
STACK CFI 3579c .cfa: sp 128 +
STACK CFI 357b8 .cfa: sp 0 +
STACK CFI 357bc .cfa: x29 96 +
STACK CFI INIT 36cc8 e60 .cfa: sp 0 +
STACK CFI 36ccc .cfa: sp 192 +
STACK CFI 36ce8 .cfa: x29 96 + x19: .cfa -8 + ^ x20: .cfa -16 + ^ x21: .cfa -24 + ^ x22: .cfa -32 + ^ x23: .cfa -40 + ^ x24: .cfa -48 + ^ x25: .cfa -56 + ^ x26: .cfa -64 + ^ x27: .cfa -72 + ^ x28: .cfa -80 + ^ .ra: .cfa -88 + ^ x29: .cfa -96 + ^
STACK CFI 37a10 .cfa: sp 192 +
STACK CFI 37a2c .cfa: sp 0 +
STACK CFI 37a30 .cfa: x29 96 +
STACK CFI INIT 37b28 1090 .cfa: sp 0 +
STACK CFI 37b2c .cfa: sp 288 +
STACK CFI 37b48 .cfa: x29 96 + x19: .cfa -8 + ^ x20: .cfa -16 + ^ x21: .cfa -24 + ^ x22: .cfa -32 + ^ x23: .cfa -40 + ^ x24: .cfa -48 + ^ x25: .cfa -56 + ^ x26: .cfa -64 + ^ x27: .cfa -72 + ^ x28: .cfa -80 + ^ .ra: .cfa -88 + ^ x29: .cfa -96 + ^
STACK CFI 38900 .cfa: sp 288 +
STACK CFI 3891c .cfa: sp 0 +
STACK CFI 38920 .cfa: x29 96 +
STACK CFI INIT 38bb8 520 .cfa: sp 0 +
STACK CFI 38bbc .cfa: sp 144 +
STACK CFI 38bd8 .cfa: x29 96 + x19: .cfa -8 + ^ x20: .cfa -16 + ^ x21: .cfa -24 + ^ x22: .cfa -32 + ^ x23: .cfa -40 + ^ x24: .cfa -48 + ^ x25: .cfa -56 + ^ x26: .cfa -64 + ^ x27: .cfa -72 + ^ x28: .cfa -80 + ^ .ra: .cfa -88 + ^ x29: .cfa -96 + ^
STACK CFI 390b4 .cfa: sp 144 +
STACK CFI 390d0 .cfa: sp 0 +
STACK CFI 390d4 .cfa: x29 96 +
STACK CFI INIT 1aa10 480 .cfa: sp 0 +
STACK CFI 1aa14 .cfa: sp 224 +
STACK CFI 1aa30 .cfa: x29 96 + x19: .cfa -8 + ^ x20: .cfa -16 + ^ x21: .cfa -24 + ^ x22: .cfa -32 + ^ x23: .cfa -40 + ^ x24: .cfa -48 + ^ x25: .cfa -56 + ^ x26: .cfa -64 + ^ x27: .cfa -80 + ^ .ra: .cfa -88 + ^ x29: .cfa -96 + ^
STACK CFI 1ac9c .cfa: sp 224 +
STACK CFI 1acb8 .cfa: sp 0 +
STACK CFI 1acbc .cfa: x29 96 +
STACK CFI 1ad88 .cfa: sp 224 +
STACK CFI 1ada4 .cfa: sp 0 +
STACK CFI 1ada8 .cfa: x29 96 +
STACK CFI INIT 1aeac 648 .cfa: sp 0 +
STACK CFI 1aeb0 .cfa: sp 256 +
STACK CFI 1aec8 .cfa: x29 80 + x19: .cfa -8 + ^ x20: .cfa -16 + ^ x21: .cfa -24 + ^ x22: .cfa -32 + ^ x23: .cfa -40 + ^ x24: .cfa -48 + ^ x25: .cfa -56 + ^ x26: .cfa -64 + ^ .ra: .cfa -72 + ^ x29: .cfa -80 + ^
STACK CFI 1b31c .cfa: sp 256 +
STACK CFI 1b334 .cfa: sp 0 +
STACK CFI 1b338 .cfa: x29 80 +
STACK CFI INIT 1b544 74 .cfa: sp 0 +
STACK CFI 1b548 .cfa: sp 48 +
STACK CFI 1b554 .cfa: x29 32 + x19: .cfa -8 + ^ x20: .cfa -16 + ^ .ra: .cfa -24 + ^ x29: .cfa -32 + ^
STACK CFI 1b5a0 .cfa: sp 48 +
STACK CFI 1b5ac .cfa: sp 0 +
STACK CFI 1b5b0 .cfa: x29 32 +
STACK CFI INIT 1b648 154 .cfa: sp 0 +
STACK CFI 1b64c .cfa: sp 384 +
STACK CFI 1b660 .cfa: x29 64 + x19: .cfa -8 + ^ x20: .cfa -16 + ^ x21: .cfa -24 + ^ x22: .cfa -32 + ^ x23: .cfa -40 + ^ x28: .cfa -48 + ^ .ra: .cfa -56 + ^ x29: .cfa -64 + ^
STACK CFI 1b744 .cfa: sp 384 +
STACK CFI 1b758 .cfa: sp 0 +
STACK CFI 1b75c .cfa: x29 64 +
STACK CFI INIT 1b7d0 12c .cfa: sp 0 +
STACK CFI 1b7d4 .cfa: sp 80 +
STACK CFI 1b7e8 .cfa: x29 80 + x19: .cfa -8 + ^ x20: .cfa -16 + ^ x21: .cfa -24 + ^ x22: .cfa -32 + ^ x23: .cfa -40 + ^ x24: .cfa -48 + ^ x25: .cfa -56 + ^ x26: .cfa -64 + ^ .ra: .cfa -72 + ^ x29: .cfa -80 + ^
STACK CFI 1b8b0 .cfa: sp 80 +
STACK CFI 1b8c4 .cfa: sp 0 +
STACK CFI 1b8c8 .cfa: x29 80 +
STACK CFI INIT 1b9a0 1a4 .cfa: sp 0 +
STACK CFI 1b9a4 .cfa: sp 112 +
STACK CFI 1b9bc .cfa: x29 80 + x19: .cfa -8 + ^ x20: .cfa -16 + ^ x21: .cfa -24 + ^ x22: .cfa -32 + ^ x23: .cfa -40 + ^ x24: .cfa -48 + ^ x25: .cfa -56 + ^ x26: .cfa -64 + ^ .ra: .cfa -72 + ^ x29: .cfa -80 + ^
STACK CFI 1baac .cfa: sp 112 +
STACK CFI 1bac4 .cfa: sp 0 +
STACK CFI 1bac8 .cfa: x29 80 +
STACK CFI INIT 1bb44 1dc .cfa: sp 0 +
STACK CFI 1bb48 .cfa: sp 128 +
STACK CFI 1bb64 .cfa: x29 96 + x19: .cfa -8 + ^ x20: .cfa -16 + ^ x21: .cfa -24 + ^ x22: .cfa -32 + ^ x23: .cfa -40 + ^ x24: .cfa -48 + ^ x25: .cfa -56 + ^ x26: .cfa -64 + ^ x27: .cfa -80 + ^ .ra: .cfa -88 + ^ x29: .cfa -96 + ^
STACK CFI 1bcd0 .cfa: sp 128 +
STACK CFI 1bcec .cfa: sp 0 +
STACK CFI 1bcf0 .cfa: x29 96 +
STACK CFI INIT 1bd34 50 .cfa: sp 0 +
STACK CFI 1bd38 .cfa: sp 32 +
STACK CFI 1bd40 .cfa: x29 32 + x19: .cfa -8 + ^ x20: .cfa -16 + ^ .ra: .cfa -24 + ^ x29: .cfa -32 + ^
STACK CFI INIT 1bde8 178 .cfa: sp 0 +
STACK CFI 1bdec .cfa: sp 80 +
STACK CFI 1be00 .cfa: x29 80 + x19: .cfa -8 + ^ x20: .cfa -16 + ^ x21: .cfa -24 + ^ x22: .cfa -32 + ^ x23: .cfa -40 + ^ x24: .cfa -48 + ^ x25: .cfa -64 + ^ .ra: .cfa -72 + ^ x29: .cfa -80 + ^
STACK CFI 1bf2c .cfa: sp 80 +
STACK CFI 1bf40 .cfa: sp 0 +
STACK CFI 1bf44 .cfa: x29 80 +
STACK CFI INIT 1c0a8 228 .cfa: sp 0 +
STACK CFI 1c0ac .cfa: sp 128 +
STACK CFI 1c0c4 .cfa: x29 80 + x19: .cfa -8 + ^ x20: .cfa -16 + ^ x21: .cfa -24 + ^ x22: .cfa -32 + ^ x23: .cfa -40 + ^ x24: .cfa -48 + ^ x25: .cfa -64 + ^ .ra: .cfa -72 + ^ x29: .cfa -80 + ^
STACK CFI 1c260 .cfa: sp 128 +
STACK CFI 1c278 .cfa: sp 0 +
STACK CFI 1c27c .cfa: x29 80 +
STACK CFI INIT 1ca2c 104 .cfa: sp 0 +
STACK CFI 1ca30 .cfa: sp 80 +
STACK CFI 1ca40 .cfa: x29 48 + x19: .cfa -8 + ^ x20: .cfa -16 + ^ x21: .cfa -32 + ^ .ra: .cfa -40 + ^ x29: .cfa -48 + ^
STACK CFI 1caec .cfa: sp 80 +
STACK CFI 1cafc .cfa: sp 0 +
STACK CFI 1cb00 .cfa: x29 48 +
STACK CFI INIT 1cc1c 730 .cfa: sp 0 +
STACK CFI 1cc20 .cfa: sp 352 +
STACK CFI 1cc40 .cfa: x29 88 + x19: .cfa -8 + ^ x20: .cfa -16 + ^ x21: .cfa -24 + ^ x22: .cfa -32 + ^ x23: .cfa -40 + ^ x24: .cfa -48 + ^ x25: .cfa -56 + ^ x26: .cfa -64 + ^ x28: .cfa -72 + ^ .ra: .cfa -80 + ^ x29: .cfa -88 + ^ v8: .cfa -96 + ^
STACK CFI 1d24c .cfa: sp 352 +
STACK CFI 1d26c .cfa: sp 0 +
STACK CFI 1d270 .cfa: x29 88 +
STACK CFI INIT 1d34c 658 .cfa: sp 0 +
STACK CFI 1d350 .cfa: sp 224 +
STACK CFI 1d36c .cfa: x29 96 + x19: .cfa -8 + ^ x20: .cfa -16 + ^ x21: .cfa -24 + ^ x22: .cfa -32 + ^ x23: .cfa -40 + ^ x24: .cfa -48 + ^ x25: .cfa -56 + ^ x26: .cfa -64 + ^ x27: .cfa -72 + ^ x28: .cfa -80 + ^ .ra: .cfa -88 + ^ x29: .cfa -96 + ^
STACK CFI 1d834 .cfa: sp 224 +
STACK CFI 1d850 .cfa: sp 0 +
STACK CFI 1d854 .cfa: x29 96 +
STACK CFI INIT 1d9e4 50 .cfa: sp 0 +
STACK CFI 1d9e8 .cfa: sp 32 +
STACK CFI 1d9f0 .cfa: x29 32 + x19: .cfa -8 + ^ x20: .cfa -16 + ^ .ra: .cfa -24 + ^ x29: .cfa -32 + ^
STACK CFI INIT 1dc6c 1d4 .cfa: sp 0 +
STACK CFI 1dc70 .cfa: sp 320 +
STACK CFI 1dc88 .cfa: x29 80 + x19: .cfa -8 + ^ x20: .cfa -16 + ^ x21: .cfa -24 + ^ x22: .cfa -32 + ^ x23: .cfa -40 + ^ x24: .cfa -48 + ^ x28: .cfa -64 + ^ .ra: .cfa -72 + ^ x29: .cfa -80 + ^
STACK CFI 1ddf4 .cfa: sp 320 +
STACK CFI 1de0c .cfa: sp 0 +
STACK CFI 1de10 .cfa: x29 80 +
STACK CFI INIT 210f4 290 .cfa: sp 0 +
STACK CFI 210f8 .cfa: sp 128 +
STACK CFI 21110 .cfa: x29 80 + x19: .cfa -8 + ^ x20: .cfa -16 + ^ x21: .cfa -24 + ^ x22: .cfa -32 + ^ x23: .cfa -40 + ^ x24: .cfa -48 + ^ x25: .cfa -56 + ^ x26: .cfa -64 + ^ .ra: .cfa -72 + ^ x29: .cfa -80 + ^
STACK CFI 212ec .cfa: sp 128 +
STACK CFI 21304 .cfa: sp 0 +
STACK CFI 21308 .cfa: x29 80 +
STACK CFI INIT 21384 74 .cfa: sp 0 +
STACK CFI 21388 .cfa: sp 48 +
STACK CFI 21394 .cfa: x29 32 + x19: .cfa -8 + ^ x20: .cfa -16 + ^ .ra: .cfa -24 + ^ x29: .cfa -32 + ^
STACK CFI 213e0 .cfa: sp 48 +
STACK CFI 213ec .cfa: sp 0 +
STACK CFI 213f0 .cfa: x29 32 +
STACK CFI INIT 21460 604 .cfa: sp 0 +
STACK CFI 21464 .cfa: sp 80 +
STACK CFI 21478 .cfa: x29 80 + x19: .cfa -8 + ^ x20: .cfa -16 + ^ x21: .cfa -24 + ^ x22: .cfa -32 + ^ x23: .cfa -40 + ^ x24: .cfa -48 + ^ x28: .cfa -64 + ^ .ra: .cfa -72 + ^ x29: .cfa -80 + ^
STACK CFI 218cc .cfa: sp 80 +
STACK CFI 218e0 .cfa: sp 0 +
STACK CFI 218e4 .cfa: x29 80 +
STACK CFI INIT 21c40 250 .cfa: sp 0 +
STACK CFI 21c44 .cfa: sp 48 +
STACK CFI 21c50 .cfa: x29 48 + x19: .cfa -8 + ^ x20: .cfa -16 + ^ x21: .cfa -24 + ^ x22: .cfa -32 + ^ .ra: .cfa -40 + ^ x29: .cfa -48 + ^
STACK CFI 21da4 .cfa: sp 48 +
STACK CFI 21db0 .cfa: sp 0 +
STACK CFI 21db4 .cfa: x29 48 +
STACK CFI INIT 222d0 374 .cfa: sp 0 +
STACK CFI 222d4 .cfa: sp 240 +
STACK CFI 222ec .cfa: x29 80 + x19: .cfa -8 + ^ x20: .cfa -16 + ^ x21: .cfa -24 + ^ x22: .cfa -32 + ^ x23: .cfa -40 + ^ x24: .cfa -48 + ^ x25: .cfa -56 + ^ x26: .cfa -64 + ^ .ra: .cfa -72 + ^ x29: .cfa -80 + ^
STACK CFI 22538 .cfa: sp 240 +
STACK CFI 22550 .cfa: sp 0 +
STACK CFI 22554 .cfa: x29 80 +
STACK CFI INIT 22644 538 .cfa: sp 0 +
STACK CFI 22648 .cfa: sp 96 +
STACK CFI 22660 .cfa: x29 96 + x19: .cfa -8 + ^ x20: .cfa -16 + ^ x21: .cfa -24 + ^ x22: .cfa -32 + ^ x23: .cfa -40 + ^ x24: .cfa -48 + ^ x25: .cfa -56 + ^ x26: .cfa -64 + ^ x27: .cfa -72 + ^ x28: .cfa -80 + ^ .ra: .cfa -88 + ^ x29: .cfa -96 + ^
STACK CFI 22a84 .cfa: sp 96 +
STACK CFI 22a9c .cfa: sp 0 +
STACK CFI 22aa0 .cfa: x29 96 +
STACK CFI INIT 22b80 1a4 .cfa: sp 0 +
STACK CFI 22b84 .cfa: sp 128 +
STACK CFI 22b94 .cfa: x29 48 + x19: .cfa -8 + ^ x20: .cfa -16 + ^ x21: .cfa -24 + ^ x22: .cfa -32 + ^ .ra: .cfa -40 + ^ x29: .cfa -48 + ^
STACK CFI 22ca8 .cfa: sp 128 +
STACK CFI 22cb8 .cfa: sp 0 +
STACK CFI 22cbc .cfa: x29 48 +
STACK CFI INIT 22f1c 168 .cfa: sp 0 +
STACK CFI 22f20 .cfa: sp 384 +
STACK CFI 22f34 .cfa: x29 64 + x19: .cfa -8 + ^ x20: .cfa -16 + ^ x21: .cfa -24 + ^ x22: .cfa -32 + ^ x23: .cfa -40 + ^ x28: .cfa -48 + ^ .ra: .cfa -56 + ^ x29: .cfa -64 + ^
STACK CFI 2302c .cfa: sp 384 +
STACK CFI 23040 .cfa: sp 0 +
STACK CFI 23044 .cfa: x29 64 +
STACK CFI INIT 23194 21c .cfa: sp 0 +
STACK CFI 23198 .cfa: sp 128 +
STACK CFI 231ac .cfa: x29 64 + x19: .cfa -8 + ^ x20: .cfa -16 + ^ x21: .cfa -24 + ^ x22: .cfa -32 + ^ x23: .cfa -40 + ^ x24: .cfa -48 + ^ .ra: .cfa -56 + ^ x29: .cfa -64 + ^
STACK CFI 232e8 .cfa: sp 128 +
STACK CFI 232fc .cfa: sp 0 +
STACK CFI 23300 .cfa: x29 64 +
STACK CFI INIT 2366c 1d0 .cfa: sp 0 +
STACK CFI 23670 .cfa: sp 128 +
STACK CFI 23684 .cfa: x29 64 + x19: .cfa -8 + ^ x20: .cfa -16 + ^ x21: .cfa -24 + ^ x22: .cfa -32 + ^ x23: .cfa -48 + ^ .ra: .cfa -56 + ^ x29: .cfa -64 + ^
STACK CFI 237fc .cfa: sp 128 +
STACK CFI 23810 .cfa: sp 0 +
STACK CFI 23814 .cfa: x29 64 +
STACK CFI INIT 23b50 1c4 .cfa: sp 0 +
STACK CFI 23b54 .cfa: sp 112 +
STACK CFI 23b64 .cfa: x29 48 + x19: .cfa -8 + ^ x20: .cfa -16 + ^ x21: .cfa -24 + ^ x22: .cfa -32 + ^ .ra: .cfa -40 + ^ x29: .cfa -48 + ^
STACK CFI 23cd8 .cfa: sp 112 +
STACK CFI 23ce8 .cfa: sp 0 +
STACK CFI 23cec .cfa: x29 48 +
STACK CFI INIT 23d80 aec .cfa: sp 0 +
STACK CFI 23d84 .cfa: sp 96 +
STACK CFI 23d9c .cfa: x29 96 + x19: .cfa -8 + ^ x20: .cfa -16 + ^ x21: .cfa -24 + ^ x22: .cfa -32 + ^ x23: .cfa -40 + ^ x24: .cfa -48 + ^ x25: .cfa -56 + ^ x26: .cfa -64 + ^ x27: .cfa -72 + ^ x28: .cfa -80 + ^ .ra: .cfa -88 + ^ x29: .cfa -96 + ^
STACK CFI 24634 .cfa: sp 96 +
STACK CFI 2464c .cfa: sp 0 +
STACK CFI 24650 .cfa: x29 96 +
STACK CFI INIT 24894 74 .cfa: sp 0 +
STACK CFI 24898 .cfa: sp 48 +
STACK CFI 248a4 .cfa: x29 32 + x19: .cfa -8 + ^ x20: .cfa -16 + ^ .ra: .cfa -24 + ^ x29: .cfa -32 + ^
STACK CFI 248f0 .cfa: sp 48 +
STACK CFI 248fc .cfa: sp 0 +
STACK CFI 24900 .cfa: x29 32 +
STACK CFI INIT 24908 74 .cfa: sp 0 +
STACK CFI 2490c .cfa: sp 48 +
STACK CFI 24918 .cfa: x29 32 + x19: .cfa -8 + ^ x20: .cfa -16 + ^ .ra: .cfa -24 + ^ x29: .cfa -32 + ^
STACK CFI 24964 .cfa: sp 48 +
STACK CFI 24970 .cfa: sp 0 +
STACK CFI 24974 .cfa: x29 32 +
STACK CFI INIT 249c0 11c .cfa: sp 0 +
STACK CFI 249c4 .cfa: sp 32 +
STACK CFI 249cc .cfa: x29 32 + x19: .cfa -8 + ^ x20: .cfa -16 + ^ .ra: .cfa -24 + ^ x29: .cfa -32 + ^
STACK CFI 24a74 .cfa: sp 32 +
STACK CFI 24a7c .cfa: sp 0 +
STACK CFI 24a80 .cfa: x29 32 +
STACK CFI INIT 24adc 984 .cfa: sp 0 +
STACK CFI 24ae0 .cfa: sp 128 +
STACK CFI 24b00 .cfa: x29 96 + x19: .cfa -8 + ^ x20: .cfa -16 + ^ x21: .cfa -24 + ^ x22: .cfa -32 + ^ x23: .cfa -40 + ^ x24: .cfa -48 + ^ x25: .cfa -56 + ^ x26: .cfa -64 + ^ x27: .cfa -72 + ^ x28: .cfa -80 + ^ .ra: .cfa -88 + ^ x29: .cfa -96 + ^ v8: .cfa -104 + ^ v9: .cfa -112 + ^ v10: .cfa -120 + ^ v11: .cfa -128 + ^
STACK CFI 25330 .cfa: sp 128 +
STACK CFI 25350 .cfa: sp 0 +
STACK CFI 25354 .cfa: x29 96 +
STACK CFI INIT 25460 108 .cfa: sp 0 +
STACK CFI 25464 .cfa: sp 96 +
STACK CFI 25470 .cfa: x29 32 + x19: .cfa -8 + ^ x20: .cfa -16 + ^ .ra: .cfa -24 + ^ x29: .cfa -32 + ^
STACK CFI 25528 .cfa: sp 96 +
STACK CFI 25534 .cfa: sp 0 +
STACK CFI 25538 .cfa: x29 32 +
STACK CFI INIT 25568 178 .cfa: sp 0 +
STACK CFI 2556c .cfa: sp 240 +
STACK CFI 25578 .cfa: x29 32 + x19: .cfa -8 + ^ x20: .cfa -16 + ^ .ra: .cfa -24 + ^ x29: .cfa -32 + ^
STACK CFI 2564c .cfa: sp 240 +
STACK CFI 25658 .cfa: sp 0 +
STACK CFI 2565c .cfa: x29 32 +
STACK CFI INIT 256e0 17c .cfa: sp 0 +
STACK CFI 256e4 .cfa: sp 80 +
STACK CFI 256f4 .cfa: x29 48 + x19: .cfa -8 + ^ x20: .cfa -16 + ^ x21: .cfa -24 + ^ x22: .cfa -32 + ^ .ra: .cfa -40 + ^ x29: .cfa -48 + ^
STACK CFI 25820 .cfa: sp 80 +
STACK CFI 25830 .cfa: sp 0 +
STACK CFI 25834 .cfa: x29 48 +
STACK CFI INIT 25864 6c .cfa: sp 0 +
STACK CFI 25868 .cfa: sp 32 +
STACK CFI 25870 .cfa: x29 32 + x19: .cfa -16 + ^ .ra: .cfa -24 + ^ x29: .cfa -32 + ^
STACK CFI 258c0 .cfa: sp 32 +
STACK CFI 258c8 .cfa: sp 0 +
STACK CFI 258cc .cfa: x29 32 +
STACK CFI INIT 258d0 74 .cfa: sp 0 +
STACK CFI 258d4 .cfa: sp 32 +
STACK CFI 258dc .cfa: x29 32 + x19: .cfa -16 + ^ .ra: .cfa -24 + ^ x29: .cfa -32 + ^
STACK CFI 25934 .cfa: sp 32 +
STACK CFI 2593c .cfa: sp 0 +
STACK CFI 25940 .cfa: x29 32 +
STACK CFI INIT 259a4 148 .cfa: sp 0 +
STACK CFI 259a8 .cfa: sp 96 +
STACK CFI 259b8 .cfa: x29 48 + x19: .cfa -8 + ^ x20: .cfa -16 + ^ x21: .cfa -32 + ^ .ra: .cfa -40 + ^ x29: .cfa -48 + ^
STACK CFI 25aa0 .cfa: sp 96 +
STACK CFI 25ab0 .cfa: sp 0 +
STACK CFI 25ab4 .cfa: x29 48 +
STACK CFI INIT 25aec 6c .cfa: sp 0 +
STACK CFI 25af0 .cfa: sp 32 +
STACK CFI 25af8 .cfa: x29 32 + x19: .cfa -16 + ^ .ra: .cfa -24 + ^ x29: .cfa -32 + ^
STACK CFI 25b48 .cfa: sp 32 +
STACK CFI 25b50 .cfa: sp 0 +
STACK CFI 25b54 .cfa: x29 32 +
STACK CFI INIT 25b58 74 .cfa: sp 0 +
STACK CFI 25b5c .cfa: sp 32 +
STACK CFI 25b64 .cfa: x29 32 + x19: .cfa -16 + ^ .ra: .cfa -24 + ^ x29: .cfa -32 + ^
STACK CFI 25bbc .cfa: sp 32 +
STACK CFI 25bc4 .cfa: sp 0 +
STACK CFI 25bc8 .cfa: x29 32 +
STACK CFI INIT 25c18 6c .cfa: sp 0 +
STACK CFI 25c1c .cfa: sp 32 +
STACK CFI 25c24 .cfa: x29 32 + x19: .cfa -16 + ^ .ra: .cfa -24 + ^ x29: .cfa -32 + ^
STACK CFI 25c74 .cfa: sp 32 +
STACK CFI 25c7c .cfa: sp 0 +
STACK CFI 25c80 .cfa: x29 32 +
STACK CFI INIT 260a4 7dc .cfa: sp 0 +
STACK CFI 260a8 .cfa: sp 208 +
STACK CFI 260c4 .cfa: x29 96 + x19: .cfa -8 + ^ x20: .cfa -16 + ^ x21: .cfa -24 + ^ x22: .cfa -32 + ^ x23: .cfa -40 + ^ x24: .cfa -48 + ^ x25: .cfa -56 + ^ x26: .cfa -64 + ^ x27: .cfa -72 + ^ x28: .cfa -80 + ^ .ra: .cfa -88 + ^ x29: .cfa -96 + ^
STACK CFI 266ac .cfa: sp 208 +
STACK CFI 266c8 .cfa: sp 0 +
STACK CFI 266cc .cfa: x29 96 +
STACK CFI INIT 26ca4 78 .cfa: sp 0 +
STACK CFI 26ca8 .cfa: sp 32 +
STACK CFI 26cb0 .cfa: x29 32 + x19: .cfa -16 + ^ .ra: .cfa -24 + ^ x29: .cfa -32 + ^
STACK CFI 26d0c .cfa: sp 32 +
STACK CFI 26d14 .cfa: sp 0 +
STACK CFI 26d18 .cfa: x29 32 +
STACK CFI INIT 26d1c 7c .cfa: sp 0 +
STACK CFI 26d20 .cfa: sp 32 +
STACK CFI 26d28 .cfa: x29 32 + x19: .cfa -8 + ^ x20: .cfa -16 + ^ .ra: .cfa -24 + ^ x29: .cfa -32 + ^
STACK CFI 26d88 .cfa: sp 32 +
STACK CFI 26d90 .cfa: sp 0 +
STACK CFI 26d94 .cfa: x29 32 +
STACK CFI INIT 26d98 80 .cfa: sp 0 +
STACK CFI 26d9c .cfa: sp 32 +
STACK CFI 26da4 .cfa: x29 32 + x19: .cfa -16 + ^ .ra: .cfa -24 + ^ x29: .cfa -32 + ^
STACK CFI 26e08 .cfa: sp 32 +
STACK CFI 26e10 .cfa: sp 0 +
STACK CFI 26e14 .cfa: x29 32 +
STACK CFI INIT 26e18 84 .cfa: sp 0 +
STACK CFI 26e1c .cfa: sp 32 +
STACK CFI 26e24 .cfa: x29 32 + x19: .cfa -8 + ^ x20: .cfa -16 + ^ .ra: .cfa -24 + ^ x29: .cfa -32 + ^
STACK CFI 26e8c .cfa: sp 32 +
STACK CFI 26e94 .cfa: sp 0 +
STACK CFI 26e98 .cfa: x29 32 +
STACK CFI INIT 27180 43c .cfa: sp 0 +
STACK CFI 27184 .cfa: sp 224 +
STACK CFI 271a0 .cfa: x29 96 + x19: .cfa -8 + ^ x20: .cfa -16 + ^ x21: .cfa -24 + ^ x22: .cfa -32 + ^ x23: .cfa -40 + ^ x24: .cfa -48 + ^ x25: .cfa -56 + ^ x26: .cfa -64 + ^ x27: .cfa -72 + ^ x28: .cfa -80 + ^ .ra: .cfa -88 + ^ x29: .cfa -96 + ^
STACK CFI 274b4 .cfa: sp 224 +
STACK CFI 274d0 .cfa: sp 0 +
STACK CFI 274d4 .cfa: x29 96 +
STACK CFI INIT 275d8 308 .cfa: sp 0 +
STACK CFI 275dc .cfa: sp 176 +
STACK CFI 275f0 .cfa: x29 64 + x19: .cfa -8 + ^ x20: .cfa -16 + ^ x21: .cfa -24 + ^ x22: .cfa -32 + ^ x23: .cfa -48 + ^ .ra: .cfa -56 + ^ x29: .cfa -64 + ^
STACK CFI 277d8 .cfa: sp 176 +
STACK CFI 277ec .cfa: sp 0 +
STACK CFI 277f0 .cfa: x29 64 +
STACK CFI INIT 27910 a8 .cfa: sp 0 +
STACK CFI 27914 .cfa: sp 32 +
STACK CFI 2791c .cfa: x29 32 + x19: .cfa -16 + ^ .ra: .cfa -24 + ^ x29: .cfa -32 + ^
STACK CFI 27950 .cfa: sp 32 +
STACK CFI 27958 .cfa: sp 0 +
STACK CFI 2795c .cfa: x29 32 +
STACK CFI 27960 .cfa: sp 32 +
STACK CFI 27968 .cfa: sp 0 +
STACK CFI 2796c .cfa: x29 32 +
STACK CFI INIT 27a90 2bc .cfa: sp 0 +
STACK CFI 27a94 .cfa: sp 32 +
STACK CFI 27a9c .cfa: x29 32 + x19: .cfa -16 + ^ .ra: .cfa -24 + ^ x29: .cfa -32 + ^
STACK CFI 27bd0 .cfa: sp 32 +
STACK CFI 27bd8 .cfa: sp 0 +
STACK CFI 27bdc .cfa: x29 32 +
STACK CFI 27ce8 .cfa: sp 32 +
STACK CFI 27cf0 .cfa: sp 0 +
STACK CFI 27cf4 .cfa: x29 32 +
STACK CFI INIT 27d4c 134 .cfa: sp 0 +
STACK CFI 27d50 .cfa: sp 80 +
STACK CFI 27d5c .cfa: x29 32 + x19: .cfa -8 + ^ x20: .cfa -16 + ^ .ra: .cfa -24 + ^ x29: .cfa -32 + ^
STACK CFI 27d8c .cfa: sp 80 +
STACK CFI 27d98 .cfa: sp 0 +
STACK CFI 27d9c .cfa: x29 32 +
STACK CFI INIT 27e80 78 .cfa: sp 0 +
STACK CFI 27e84 .cfa: sp 32 +
STACK CFI 27e8c .cfa: x29 32 + x19: .cfa -8 + ^ x20: .cfa -16 + ^ .ra: .cfa -24 + ^ x29: .cfa -32 + ^
STACK CFI 27e98 .cfa: sp 32 +
STACK CFI 27ea0 .cfa: sp 0 +
STACK CFI 27ea4 .cfa: x29 32 +
STACK CFI INIT 27ef8 74 .cfa: sp 0 +
STACK CFI 27efc .cfa: sp 48 +
STACK CFI 27f08 .cfa: x29 32 + x19: .cfa -8 + ^ x20: .cfa -16 + ^ .ra: .cfa -24 + ^ x29: .cfa -32 + ^
STACK CFI 27f54 .cfa: sp 48 +
STACK CFI 27f60 .cfa: sp 0 +
STACK CFI 27f64 .cfa: x29 32 +
STACK CFI INIT 27fd0 16c .cfa: sp 0 +
STACK CFI 27fd4 .cfa: sp 112 +
STACK CFI 27fe4 .cfa: x29 48 + x19: .cfa -8 + ^ x20: .cfa -16 + ^ x21: .cfa -32 + ^ .ra: .cfa -40 + ^ x29: .cfa -48 + ^
STACK CFI 28030 .cfa: sp 112 +
STACK CFI 28040 .cfa: sp 0 +
STACK CFI 28044 .cfa: x29 48 +
STACK CFI INIT 2813c 194 .cfa: sp 0 +
STACK CFI 28140 .cfa: sp 112 +
STACK CFI 28150 .cfa: x29 48 + x19: .cfa -8 + ^ x20: .cfa -16 + ^ x21: .cfa -32 + ^ .ra: .cfa -40 + ^ x29: .cfa -48 + ^
STACK CFI 281bc .cfa: sp 112 +
STACK CFI 281cc .cfa: sp 0 +
STACK CFI 281d0 .cfa: x29 48 +
STACK CFI INIT 282f4 198 .cfa: sp 0 +
STACK CFI 282f8 .cfa: sp 112 +
STACK CFI 28308 .cfa: x29 48 + x19: .cfa -8 + ^ x20: .cfa -16 + ^ x21: .cfa -32 + ^ .ra: .cfa -40 + ^ x29: .cfa -48 + ^
STACK CFI 28378 .cfa: sp 112 +
STACK CFI 28388 .cfa: sp 0 +
STACK CFI 2838c .cfa: x29 48 +
STACK CFI INIT 28504 2d4 .cfa: sp 0 +
STACK CFI 28508 .cfa: sp 112 +
STACK CFI 28518 .cfa: x29 48 + x19: .cfa -8 + ^ x20: .cfa -16 + ^ x21: .cfa -32 + ^ .ra: .cfa -40 + ^ x29: .cfa -48 + ^
STACK CFI 285ec .cfa: sp 112 +
STACK CFI 285fc .cfa: sp 0 +
STACK CFI 28600 .cfa: x29 48 +
STACK CFI INIT 287d8 254 .cfa: sp 0 +
STACK CFI 287dc .cfa: sp 128 +
STACK CFI 287f0 .cfa: x29 64 + x19: .cfa -8 + ^ x20: .cfa -16 + ^ x21: .cfa -24 + ^ x22: .cfa -32 + ^ x23: .cfa -48 + ^ .ra: .cfa -56 + ^ x29: .cfa -64 + ^
STACK CFI 288c0 .cfa: sp 128 +
STACK CFI 288d4 .cfa: sp 0 +
STACK CFI 288d8 .cfa: x29 64 +
STACK CFI INIT 28b2c 1b8 .cfa: sp 0 +
STACK CFI 28b30 .cfa: sp 160 +
STACK CFI 28b4c .cfa: x29 72 + x19: .cfa -8 + ^ x20: .cfa -16 + ^ x21: .cfa -24 + ^ x22: .cfa -32 + ^ x23: .cfa -40 + ^ x24: .cfa -48 + ^ x25: .cfa -56 + ^ .ra: .cfa -64 + ^ x29: .cfa -72 + ^ v8: .cfa -80 + ^
STACK CFI 28bd0 .cfa: sp 160 +
STACK CFI 28bec .cfa: sp 0 +
STACK CFI 28bf0 .cfa: x29 72 +
STACK CFI INIT 28ce4 4e4 .cfa: sp 0 +
STACK CFI 28ce8 .cfa: sp 96 +
STACK CFI 28d00 .cfa: x29 80 + x19: .cfa -8 + ^ x20: .cfa -16 + ^ x21: .cfa -24 + ^ x22: .cfa -32 + ^ x23: .cfa -40 + ^ x24: .cfa -48 + ^ x25: .cfa -64 + ^ .ra: .cfa -72 + ^ x29: .cfa -80 + ^
STACK CFI 29144 .cfa: sp 96 +
STACK CFI 2915c .cfa: sp 0 +
STACK CFI 29160 .cfa: x29 80 +
STACK CFI INIT 291c8 180 .cfa: sp 0 +
STACK CFI 291cc .cfa: sp 128 +
STACK CFI 291dc .cfa: x29 48 + x19: .cfa -8 + ^ x20: .cfa -16 + ^ x21: .cfa -24 + ^ x22: .cfa -32 + ^ .ra: .cfa -40 + ^ x29: .cfa -48 + ^
STACK CFI 29240 .cfa: sp 128 +
STACK CFI 29250 .cfa: sp 0 +
STACK CFI 29254 .cfa: x29 48 +
STACK CFI INIT 29348 a4 .cfa: sp 0 +
STACK CFI 2934c .cfa: sp 48 +
STACK CFI 29358 .cfa: x29 48 + x19: .cfa -8 + ^ x20: .cfa -16 + ^ x21: .cfa -32 + ^ .ra: .cfa -40 + ^ x29: .cfa -48 + ^
STACK CFI 293c4 .cfa: sp 48 +
STACK CFI 293d0 .cfa: sp 0 +
STACK CFI 293d4 .cfa: x29 48 +
STACK CFI INIT 293f0 24c .cfa: sp 0 +
STACK CFI 293f4 .cfa: sp 128 +
STACK CFI 29408 .cfa: x29 64 + x19: .cfa -8 + ^ x20: .cfa -16 + ^ x21: .cfa -24 + ^ x22: .cfa -32 + ^ x23: .cfa -48 + ^ .ra: .cfa -56 + ^ x29: .cfa -64 + ^
STACK CFI 294d0 .cfa: sp 128 +
STACK CFI 294e4 .cfa: sp 0 +
STACK CFI 294e8 .cfa: x29 64 +
STACK CFI INIT 2963c 25c .cfa: sp 0 +
STACK CFI 29640 .cfa: sp 128 +
STACK CFI 29654 .cfa: x29 64 + x19: .cfa -8 + ^ x20: .cfa -16 + ^ x21: .cfa -24 + ^ x22: .cfa -32 + ^ x23: .cfa -48 + ^ .ra: .cfa -56 + ^ x29: .cfa -64 + ^
STACK CFI 2972c .cfa: sp 128 +
STACK CFI 29740 .cfa: sp 0 +
STACK CFI 29744 .cfa: x29 64 +
STACK CFI INIT 29898 2bc .cfa: sp 0 +
STACK CFI 2989c .cfa: sp 128 +
STACK CFI 298b0 .cfa: x29 64 + x19: .cfa -8 + ^ x20: .cfa -16 + ^ x21: .cfa -24 + ^ x22: .cfa -32 + ^ x23: .cfa -40 + ^ x24: .cfa -48 + ^ .ra: .cfa -56 + ^ x29: .cfa -64 + ^
STACK CFI 299e8 .cfa: sp 128 +
STACK CFI 299fc .cfa: sp 0 +
STACK CFI 29a00 .cfa: x29 64 +
STACK CFI INIT 29b54 22c .cfa: sp 0 +
STACK CFI 29b58 .cfa: sp 128 +
STACK CFI 29b6c .cfa: x29 64 + x19: .cfa -8 + ^ x20: .cfa -16 + ^ x21: .cfa -24 + ^ x22: .cfa -32 + ^ x23: .cfa -48 + ^ .ra: .cfa -56 + ^ x29: .cfa -64 + ^
STACK CFI 29c14 .cfa: sp 128 +
STACK CFI 29c28 .cfa: sp 0 +
STACK CFI 29c2c .cfa: x29 64 +
STACK CFI INIT 29d80 22c .cfa: sp 0 +
STACK CFI 29d84 .cfa: sp 128 +
STACK CFI 29d98 .cfa: x29 64 + x19: .cfa -8 + ^ x20: .cfa -16 + ^ x21: .cfa -24 + ^ x22: .cfa -32 + ^ x23: .cfa -48 + ^ .ra: .cfa -56 + ^ x29: .cfa -64 + ^
STACK CFI 29e40 .cfa: sp 128 +
STACK CFI 29e54 .cfa: sp 0 +
STACK CFI 29e58 .cfa: x29 64 +
STACK CFI INIT 29fac 154 .cfa: sp 0 +
STACK CFI 29fb0 .cfa: sp 384 +
STACK CFI 29fc4 .cfa: x29 64 + x19: .cfa -8 + ^ x20: .cfa -16 + ^ x21: .cfa -24 + ^ x22: .cfa -32 + ^ x23: .cfa -40 + ^ x28: .cfa -48 + ^ .ra: .cfa -56 + ^ x29: .cfa -64 + ^
STACK CFI 2a0a8 .cfa: sp 384 +
STACK CFI 2a0bc .cfa: sp 0 +
STACK CFI 2a0c0 .cfa: x29 64 +
STACK CFI INIT 2a118 4e0 .cfa: sp 0 +
STACK CFI 2a11c .cfa: sp 64 +
STACK CFI 2a12c .cfa: x29 64 + x19: .cfa -8 + ^ x20: .cfa -16 + ^ x21: .cfa -24 + ^ x22: .cfa -32 + ^ x23: .cfa -40 + ^ x24: .cfa -48 + ^ .ra: .cfa -56 + ^ x29: .cfa -64 + ^
STACK CFI 2a5cc .cfa: sp 64 +
STACK CFI 2a5dc .cfa: sp 0 +
STACK CFI 2a5e0 .cfa: x29 64 +
STACK CFI INIT 2a928 294 .cfa: sp 0 +
STACK CFI 2a92c .cfa: sp 240 +
STACK CFI 2a944 .cfa: x29 80 + x19: .cfa -8 + ^ x20: .cfa -16 + ^ x21: .cfa -24 + ^ x22: .cfa -32 + ^ x23: .cfa -40 + ^ x24: .cfa -48 + ^ x25: .cfa -64 + ^ .ra: .cfa -72 + ^ x29: .cfa -80 + ^
STACK CFI 2aae4 .cfa: sp 240 +
STACK CFI 2aafc .cfa: sp 0 +
STACK CFI 2ab00 .cfa: x29 80 +
STACK CFI INIT 2ac38 50 .cfa: sp 0 +
STACK CFI 2ac3c .cfa: sp 32 +
STACK CFI 2ac44 .cfa: x29 32 + x19: .cfa -8 + ^ x20: .cfa -16 + ^ .ra: .cfa -24 + ^ x29: .cfa -32 + ^
STACK CFI INIT 2acb4 7c0 .cfa: sp 0 +
STACK CFI 2acb8 .cfa: sp 320 +
STACK CFI 2acd4 .cfa: x29 96 + x19: .cfa -8 + ^ x20: .cfa -16 + ^ x21: .cfa -24 + ^ x22: .cfa -32 + ^ x23: .cfa -40 + ^ x24: .cfa -48 + ^ x25: .cfa -56 + ^ x26: .cfa -64 + ^ x27: .cfa -72 + ^ x28: .cfa -80 + ^ .ra: .cfa -88 + ^ x29: .cfa -96 + ^
STACK CFI 2b324 .cfa: sp 320 +
STACK CFI 2b340 .cfa: sp 0 +
STACK CFI 2b344 .cfa: x29 96 +
STACK CFI INIT 2f090 c84 .cfa: sp 0 +
STACK CFI 2f094 .cfa: sp 96 +
STACK CFI 2f0ac .cfa: x29 96 + x19: .cfa -8 + ^ x20: .cfa -16 + ^ x21: .cfa -24 + ^ x22: .cfa -32 + ^ x23: .cfa -40 + ^ x24: .cfa -48 + ^ x25: .cfa -56 + ^ x26: .cfa -64 + ^ x27: .cfa -72 + ^ x28: .cfa -80 + ^ .ra: .cfa -88 + ^ x29: .cfa -96 + ^
STACK CFI 2fb34 .cfa: sp 96 +
STACK CFI 2fb4c .cfa: sp 0 +
STACK CFI 2fb50 .cfa: x29 96 +
STACK CFI INIT 2fe68 26c .cfa: sp 0 +
STACK CFI 2fe6c .cfa: sp 128 +
STACK CFI 2fe7c .cfa: x29 48 + x19: .cfa -8 + ^ x20: .cfa -16 + ^ x21: .cfa -24 + ^ x22: .cfa -32 + ^ .ra: .cfa -40 + ^ x29: .cfa -48 + ^
STACK CFI 30020 .cfa: sp 128 +
STACK CFI 30030 .cfa: sp 0 +
STACK CFI 30034 .cfa: x29 48 +
STACK CFI INIT 30464 3b8 .cfa: sp 0 +
STACK CFI 30468 .cfa: sp 96 +
STACK CFI 30480 .cfa: x29 96 + x19: .cfa -8 + ^ x20: .cfa -16 + ^ x21: .cfa -24 + ^ x22: .cfa -32 + ^ x23: .cfa -40 + ^ x24: .cfa -48 + ^ x25: .cfa -56 + ^ x26: .cfa -64 + ^ x27: .cfa -72 + ^ x28: .cfa -80 + ^ .ra: .cfa -88 + ^ x29: .cfa -96 + ^
STACK CFI 307bc .cfa: sp 96 +
STACK CFI 307d4 .cfa: sp 0 +
STACK CFI 307d8 .cfa: x29 96 +
STACK CFI INIT 308bc cc0 .cfa: sp 0 +
STACK CFI 308c0 .cfa: sp 96 +
STACK CFI 308d8 .cfa: x29 96 + x19: .cfa -8 + ^ x20: .cfa -16 + ^ x21: .cfa -24 + ^ x22: .cfa -32 + ^ x23: .cfa -40 + ^ x24: .cfa -48 + ^ x25: .cfa -56 + ^ x26: .cfa -64 + ^ x27: .cfa -72 + ^ x28: .cfa -80 + ^ .ra: .cfa -88 + ^ x29: .cfa -96 + ^
STACK CFI 3138c .cfa: sp 96 +
STACK CFI 313a4 .cfa: sp 0 +
STACK CFI 313a8 .cfa: x29 96 +
STACK CFI INIT 31864 af8 .cfa: sp 0 +
STACK CFI 31868 .cfa: sp 96 +
STACK CFI 31880 .cfa: x29 96 + x19: .cfa -8 + ^ x20: .cfa -16 + ^ x21: .cfa -24 + ^ x22: .cfa -32 + ^ x23: .cfa -40 + ^ x24: .cfa -48 + ^ x25: .cfa -56 + ^ x26: .cfa -64 + ^ x27: .cfa -72 + ^ x28: .cfa -80 + ^ .ra: .cfa -88 + ^ x29: .cfa -96 + ^
STACK CFI 322d0 .cfa: sp 96 +
STACK CFI 322e8 .cfa: sp 0 +
STACK CFI 322ec .cfa: x29 96 +
STACK CFI INIT 32550 1430 .cfa: sp 0 +
STACK CFI 32554 .cfa: sp 96 +
STACK CFI 3256c .cfa: x29 96 + x19: .cfa -8 + ^ x20: .cfa -16 + ^ x21: .cfa -24 + ^ x22: .cfa -32 + ^ x23: .cfa -40 + ^ x24: .cfa -48 + ^ x25: .cfa -56 + ^ x26: .cfa -64 + ^ x27: .cfa -72 + ^ x28: .cfa -80 + ^ .ra: .cfa -88 + ^ x29: .cfa -96 + ^
STACK CFI 33808 .cfa: sp 96 +
STACK CFI 33820 .cfa: sp 0 +
STACK CFI 33824 .cfa: x29 96 +
STACK CFI INIT 33aa4 75c .cfa: sp 0 +
STACK CFI 33aa8 .cfa: sp 368 +
STACK CFI 33ac4 .cfa: x29 96 + x19: .cfa -8 + ^ x20: .cfa -16 + ^ x21: .cfa -24 + ^ x22: .cfa -32 + ^ x23: .cfa -40 + ^ x24: .cfa -48 + ^ x25: .cfa -56 + ^ x26: .cfa -64 + ^ x27: .cfa -72 + ^ x28: .cfa -80 + ^ .ra: .cfa -88 + ^ x29: .cfa -96 + ^
STACK CFI 33b78 .cfa: sp 368 +
STACK CFI 33b94 .cfa: sp 0 +
STACK CFI 33b98 .cfa: x29 96 +
STACK CFI 33bec .cfa: sp 368 +
STACK CFI 33c08 .cfa: sp 0 +
STACK CFI 33c0c .cfa: x29 96 +
STACK CFI INIT 345c0 ee0 .cfa: sp 0 +
STACK CFI 345c4 .cfa: sp 96 +
STACK CFI 345dc .cfa: x29 96 + x19: .cfa -8 + ^ x20: .cfa -16 + ^ x21: .cfa -24 + ^ x22: .cfa -32 + ^ x23: .cfa -40 + ^ x24: .cfa -48 + ^ x25: .cfa -56 + ^ x26: .cfa -64 + ^ x27: .cfa -72 + ^ x28: .cfa -80 + ^ .ra: .cfa -88 + ^ x29: .cfa -96 + ^
STACK CFI 35298 .cfa: sp 96 +
STACK CFI 352b0 .cfa: sp 0 +
STACK CFI 352b4 .cfa: x29 96 +
STACK CFI INIT 35814 14b4 .cfa: sp 0 +
STACK CFI 35818 .cfa: sp 112 +
STACK CFI 35834 .cfa: x29 96 + x19: .cfa -8 + ^ x20: .cfa -16 + ^ x21: .cfa -24 + ^ x22: .cfa -32 + ^ x23: .cfa -40 + ^ x24: .cfa -48 + ^ x25: .cfa -56 + ^ x26: .cfa -64 + ^ x27: .cfa -72 + ^ x28: .cfa -80 + ^ .ra: .cfa -88 + ^ x29: .cfa -96 + ^ v8: .cfa -112 + ^
STACK CFI 35c14 .cfa: sp 112 +
STACK CFI 35c30 .cfa: sp 0 +
STACK CFI 35c34 .cfa: x29 96 +
STACK CFI INIT 390d8 9a0 .cfa: sp 0 +
STACK CFI 390dc .cfa: sp 144 +
STACK CFI 390f4 .cfa: x29 80 + x19: .cfa -8 + ^ x20: .cfa -16 + ^ x21: .cfa -24 + ^ x22: .cfa -32 + ^ x23: .cfa -40 + ^ x24: .cfa -48 + ^ x25: .cfa -64 + ^ .ra: .cfa -72 + ^ x29: .cfa -80 + ^
STACK CFI 399f4 .cfa: sp 144 +
STACK CFI 39a0c .cfa: sp 0 +
STACK CFI 39a10 .cfa: x29 80 +
STACK CFI INIT 39a78 57c .cfa: sp 0 +
STACK CFI 39a7c .cfa: sp 96 +
STACK CFI 39a94 .cfa: x29 96 + x19: .cfa -8 + ^ x20: .cfa -16 + ^ x21: .cfa -24 + ^ x22: .cfa -32 + ^ x23: .cfa -40 + ^ x24: .cfa -48 + ^ x25: .cfa -56 + ^ x26: .cfa -64 + ^ x27: .cfa -72 + ^ x28: .cfa -80 + ^ .ra: .cfa -88 + ^ x29: .cfa -96 + ^
STACK CFI 39f58 .cfa: sp 96 +
STACK CFI 39f70 .cfa: sp 0 +
STACK CFI 39f74 .cfa: x29 96 +
STACK CFI INIT 39ff4 67c .cfa: sp 0 +
STACK CFI 39ff8 .cfa: sp 96 +
STACK CFI 3a010 .cfa: x29 96 + x19: .cfa -8 + ^ x20: .cfa -16 + ^ x21: .cfa -24 + ^ x22: .cfa -32 + ^ x23: .cfa -40 + ^ x24: .cfa -48 + ^ x25: .cfa -56 + ^ x26: .cfa -64 + ^ x27: .cfa -72 + ^ x28: .cfa -80 + ^ .ra: .cfa -88 + ^ x29: .cfa -96 + ^
STACK CFI 3a5d4 .cfa: sp 96 +
STACK CFI 3a5ec .cfa: sp 0 +
STACK CFI 3a5f0 .cfa: x29 96 +
