MODULE Linux arm64 E58DAD9D6C308E7B74F2D77BC65F66680 capeling.garage-stats-menu.android64.so
INFO CODE_ID 9DAD8DE5306C7B8E74F2D77BC65F66688E4CA50D
INFO GENERATOR mozilla/dump_syms 2.3.4
PUBLIC 57f0 0 __on_dlclose
PUBLIC 5800 0 __emutls_unregister_key
PUBLIC 5808 0 __on_dlclose_late
PUBLIC 5810 0 __atexit_handler_wrapper
PUBLIC 5824 0 atexit
PUBLIC 5840 0 pthread_atfork
PUBLIC 5850 0 unwind_phase2
PUBLIC 5984 0 _Unwind_Resume
PUBLIC 5a08 0 unwind_phase2_forced
PUBLIC m 5afc 0 __unw_init_local
PUBLIC m 5ba4 0 __unw_get_reg
PUBLIC 5c20 0 __unw_step_stage2
PUBLIC m 5c34 0 __unw_get_proc_info
PUBLIC m 5c74 0 __unw_resume
PUBLIC 5c9c 0 libunwind::CFI_Parser<libunwind::LocalAddressSpace>::decodeFDE(libunwind::LocalAddressSpace&, unsigned long, libunwind::CFI_Parser<libunwind::LocalAddressSpace>::FDE_Info*, libunwind::CFI_Parser<libunwind::LocalAddressSpace>::CIE_Info*, bool)
PUBLIC 5e2c 0 libunwind::CFI_Parser<libunwind::LocalAddressSpace>::parseCIE(libunwind::LocalAddressSpace&, unsigned long, libunwind::CFI_Parser<libunwind::LocalAddressSpace>::CIE_Info*)
PUBLIC 60f4 0 libunwind::AbstractUnwindCursor::~AbstractUnwindCursor()
PUBLIC 60fc 0 libunwind::UnwindCursor<libunwind::LocalAddressSpace, libunwind::Registers_arm64>::~UnwindCursor()
PUBLIC 6104 0 libunwind::UnwindCursor<libunwind::LocalAddressSpace, libunwind::Registers_arm64>::validReg(int)
PUBLIC 6148 0 libunwind::UnwindCursor<libunwind::LocalAddressSpace, libunwind::Registers_arm64>::getReg(int)
PUBLIC 6230 0 libunwind::UnwindCursor<libunwind::LocalAddressSpace, libunwind::Registers_arm64>::setReg(int, unsigned long)
PUBLIC 6318 0 libunwind::UnwindCursor<libunwind::LocalAddressSpace, libunwind::Registers_arm64>::validFloatReg(int)
PUBLIC 632c 0 libunwind::UnwindCursor<libunwind::LocalAddressSpace, libunwind::Registers_arm64>::getFloatReg(int)
PUBLIC 633c 0 libunwind::UnwindCursor<libunwind::LocalAddressSpace, libunwind::Registers_arm64>::setFloatReg(int, double)
PUBLIC 634c 0 libunwind::UnwindCursor<libunwind::LocalAddressSpace, libunwind::Registers_arm64>::step(bool)
PUBLIC 643c 0 libunwind::UnwindCursor<libunwind::LocalAddressSpace, libunwind::Registers_arm64>::getInfo(unw_proc_info_t*)
PUBLIC 6480 0 libunwind::UnwindCursor<libunwind::LocalAddressSpace, libunwind::Registers_arm64>::jumpto()
PUBLIC 648c 0 libunwind::UnwindCursor<libunwind::LocalAddressSpace, libunwind::Registers_arm64>::isSignalFrame()
PUBLIC 6498 0 libunwind::UnwindCursor<libunwind::LocalAddressSpace, libunwind::Registers_arm64>::getFunctionName(char*, unsigned long, unsigned long*)
PUBLIC 64c4 0 libunwind::UnwindCursor<libunwind::LocalAddressSpace, libunwind::Registers_arm64>::setInfoBasedOnIPRegister(bool)
PUBLIC 6744 0 libunwind::UnwindCursor<libunwind::LocalAddressSpace, libunwind::Registers_arm64>::getRegisterName(int)
PUBLIC 6750 0 libunwind::UnwindCursor<libunwind::LocalAddressSpace, libunwind::Registers_arm64>::stepThroughSigReturn(libunwind::Registers_arm64&)
PUBLIC 6870 0 libunwind::DwarfInstructions<libunwind::LocalAddressSpace, libunwind::Registers_arm64>::stepWithDwarf(libunwind::LocalAddressSpace&, unsigned long, unsigned long, libunwind::Registers_arm64&, bool&, bool)
PUBLIC 6cf8 0 libunwind::CFI_Parser<libunwind::LocalAddressSpace>::parseFDEInstructions(libunwind::LocalAddressSpace&, libunwind::CFI_Parser<libunwind::LocalAddressSpace>::FDE_Info const&, libunwind::CFI_Parser<libunwind::LocalAddressSpace>::CIE_Info const&, unsigned long, int, libunwind::CFI_Parser<libunwind::LocalAddressSpace>::PrologInfo*)
PUBLIC 7940 0 libunwind::DwarfInstructions<libunwind::LocalAddressSpace, libunwind::Registers_arm64>::getCFA(libunwind::LocalAddressSpace&, libunwind::CFI_Parser<libunwind::LocalAddressSpace>::PrologInfo const&, libunwind::Registers_arm64 const&)
PUBLIC 7a74 0 libunwind::DwarfInstructions<libunwind::LocalAddressSpace, libunwind::Registers_arm64>::getSavedRegister(libunwind::LocalAddressSpace&, libunwind::Registers_arm64 const&, unsigned long, libunwind::CFI_Parser<libunwind::LocalAddressSpace>::RegisterLocation const&)
PUBLIC 7c84 0 libunwind::LocalAddressSpace::getEncodedP(unsigned long&, unsigned long, unsigned char, unsigned long)
PUBLIC 8010 0 libunwind::LocalAddressSpace::getULEB128(unsigned long&, unsigned long)
PUBLIC 81d8 0 libunwind::DwarfInstructions<libunwind::LocalAddressSpace, libunwind::Registers_arm64>::evaluateExpression(unsigned long, libunwind::LocalAddressSpace&, libunwind::Registers_arm64 const&, unsigned long)
PUBLIC 8b94 0 libunwind::UnwindCursor<libunwind::LocalAddressSpace, libunwind::Registers_arm64>::getInfoFromDwarfSection(unsigned long, libunwind::UnwindInfoSections const&, unsigned int)
PUBLIC 8e68 0 libunwind::findUnwindSectionsByPhdr(dl_phdr_info*, unsigned long, void*)
PUBLIC 8f9c 0 libunwind::EHHeaderParser<libunwind::LocalAddressSpace>::decodeEHHdr(libunwind::LocalAddressSpace&, unsigned long, unsigned long, libunwind::EHHeaderParser<libunwind::LocalAddressSpace>::EHHeaderInfo&)
PUBLIC 90bc 0 libunwind::CFI_Parser<libunwind::LocalAddressSpace>::findFDE(libunwind::LocalAddressSpace&, unsigned long, unsigned long, unsigned long, unsigned long, libunwind::CFI_Parser<libunwind::LocalAddressSpace>::FDE_Info*, libunwind::CFI_Parser<libunwind::LocalAddressSpace>::CIE_Info*)
PUBLIC 9284 0 libunwind::EHHeaderParser<libunwind::LocalAddressSpace>::findFDE(libunwind::LocalAddressSpace&, unsigned long, unsigned long, unsigned int, libunwind::CFI_Parser<libunwind::LocalAddressSpace>::FDE_Info*, libunwind::CFI_Parser<libunwind::LocalAddressSpace>::CIE_Info*)
PUBLIC 93ec 0 libunwind::EHHeaderParser<libunwind::LocalAddressSpace>::getTableEntrySize(unsigned char)
PUBLIC 94e8 0 libunwind::Registers_arm64::getRegisterName(int)
PUBLIC 9518 0 __libunwind_Registers_arm64_jumpto
PUBLIC m 95a8 0 __unw_getcontext
PUBLIC 9650 0 __aarch64_ldadd8_relax
PUBLIC 9680 0 init_have_lse_atomics
PUBLIC 9718 0 __init_cpu_features_constructor
PUBLIC 9cb4 0 __init_cpu_features
PUBLIC 9d40 0 __aarch64_ldadd8_acq_rel
PUBLIC 9d70 0 StatsGarageLayer::getExistingContainer(std::__ndk1::basic_string<char, std::__ndk1::char_traits<char>, std::__ndk1::allocator<char> >)
PUBLIC a1d0 0 __cxx_global_var_init
PUBLIC aef4 0 geode::modifier::ModifyBase<geode::modifier::ModifyDerive<StatsGarageLayer, GJGarageLayer> >::~ModifyBase()
PUBLIC af0c 0 geode::modifier::FieldIntermediate<StatsGarageLayer, GJGarageLayer>::self()
PUBLIC b550 0 geode::modifier::FieldIntermediate<StatsGarageLayer, GJGarageLayer>::fieldDestructor(void*)
PUBLIC b568 0 std::__ndk1::vector<void*, std::__ndk1::allocator<void*> >::__throw_length_error[abi:ne180000]() const
PUBLIC b57c 0 __clang_call_terminate
PUBLIC b58c 0 std::__ndk1::__throw_length_error[abi:ne180000](char const*)
PUBLIC b5dc 0 std::length_error::length_error[abi:ne180000](char const*)
PUBLIC b60c 0 std::__throw_bad_array_new_length([abi:ne180000], void)
PUBLIC b640 0 std::__ndk1::vector<std::__ndk1::function<void (void*)>, std::__ndk1::allocator<std::__ndk1::function<void (void*)> > >::__throw_length_error[abi:ne180000]() const
PUBLIC b654 0 std::__ndk1::vector<void*, std::__ndk1::allocator<void*> >::__throw_out_of_range[abi:ne180000]() const
PUBLIC b660 0 std::__ndk1::__throw_out_of_range[abi:ne180000](char const*)
PUBLIC b6b0 0 std::out_of_range::out_of_range[abi:ne180000](char const*)
PUBLIC b6e0 0 std::__ndk1::vector<std::__ndk1::function<void (void*)>, std::__ndk1::allocator<std::__ndk1::function<void (void*)> > >::__throw_out_of_range[abi:ne180000]() const
PUBLIC b6ec 0 std::__ndk1::__function::__base<void (void*)>::~__base()
PUBLIC b6f0 0 std::__ndk1::__function::__func<void (*)(void*), std::__ndk1::allocator<void (*)(void*)>, void (void*)>::~__func()
PUBLIC b6f4 0 std::__ndk1::__function::__func<void (*)(void*), std::__ndk1::allocator<void (*)(void*)>, void (void*)>::__clone() const
PUBLIC b72c 0 std::__ndk1::__function::__func<void (*)(void*), std::__ndk1::allocator<void (*)(void*)>, void (void*)>::__clone(std::__ndk1::__function::__base<void (void*)>*) const
PUBLIC b744 0 std::__ndk1::__function::__func<void (*)(void*), std::__ndk1::allocator<void (*)(void*)>, void (void*)>::destroy()
PUBLIC b748 0 std::__ndk1::__function::__func<void (*)(void*), std::__ndk1::allocator<void (*)(void*)>, void (void*)>::destroy_deallocate()
PUBLIC b74c 0 std::__ndk1::__function::__func<void (*)(void*), std::__ndk1::allocator<void (*)(void*)>, void (void*)>::operator()(void*&&)
PUBLIC b75c 0 std::__ndk1::__function::__func<void (*)(void*), std::__ndk1::allocator<void (*)(void*)>, void (void*)>::target(std::type_info const&) const
PUBLIC b778 0 std::__ndk1::__function::__func<void (*)(void*), std::__ndk1::allocator<void (*)(void*)>, void (void*)>::target_type() const
PUBLIC b784 0 std::__ndk1::vector<cocos2d::CCNode*, std::__ndk1::allocator<cocos2d::CCNode*> >::__throw_length_error[abi:ne180000]() const
PUBLIC b798 0 std::__ndk1::basic_string<char, std::__ndk1::char_traits<char>, std::__ndk1::allocator<char> >::__throw_length_error[abi:ne180000]() const
PUBLIC b7ac 0 geode::modifier::ModifyDerive<StatsGarageLayer, GJGarageLayer>::apply()
PUBLIC bbc8 0 std::__ndk1::shared_ptr<geode::Hook>::~shared_ptr[abi:ne180000]()
PUBLIC bc18 0 geode::impl::ResultData<geode::Hook*, std::__ndk1::basic_string<char, std::__ndk1::char_traits<char>, std::__ndk1::allocator<char> > >::~ResultData()
PUBLIC bc8c 0 std::__ndk1::vector<std::__ndk1::basic_string<char, std::__ndk1::char_traits<char>, std::__ndk1::allocator<char> >, std::__ndk1::allocator<std::__ndk1::basic_string<char, std::__ndk1::char_traits<char>, std::__ndk1::allocator<char> > > >::~vector[abi:ne180000]()
PUBLIC bd08 0 geode::modifier::ModifyBase<geode::modifier::ModifyDerive<StatsGarageLayer, GJGarageLayer> >::apply()
PUBLIC bd0c 0 std::__ndk1::__tree<std::__ndk1::__value_type<std::__ndk1::basic_string<char, std::__ndk1::char_traits<char>, std::__ndk1::allocator<char> >, std::__ndk1::shared_ptr<geode::Hook> >, std::__ndk1::__map_value_compare<std::__ndk1::basic_string<char, std::__ndk1::char_traits<char>, std::__ndk1::allocator<char> >, std::__ndk1::__value_type<std::__ndk1::basic_string<char, std::__ndk1::char_traits<char>, std::__ndk1::allocator<char> >, std::__ndk1::shared_ptr<geode::Hook> >, std::__ndk1::less<std::__ndk1::basic_string<char, std::__ndk1::char_traits<char>, std::__ndk1::allocator<char> > >, true>, std::__ndk1::allocator<std::__ndk1::__value_type<std::__ndk1::basic_string<char, std::__ndk1::char_traits<char>, std::__ndk1::allocator<char> >, std::__ndk1::shared_ptr<geode::Hook> > > >::find<std::__ndk1::basic_string<char, std::__ndk1::char_traits<char>, std::__ndk1::allocator<char> > >(std::__ndk1::basic_string<char, std::__ndk1::char_traits<char>, std::__ndk1::allocator<char> > const&)
PUBLIC be30 0 std::__ndk1::basic_string<char, std::__ndk1::char_traits<char>, std::__ndk1::allocator<char> >::__init_copy_ctor_external(char const*, unsigned long)
PUBLIC beb0 0 std::__ndk1::__tree_balance_after_insert[abi:ne180000]<std::__ndk1::__tree_node_base<void*>*>(std::__ndk1::__tree_node_base<void*>*, std::__ndk1::__tree_node_base<void*>*)
PUBLIC c060 0 _ZN5geode15UnwrapExceptionC2IRPNS_4HookEQsr4implE18IsStringStreamableIT_EEENS_4impl5OkTagEOS5_
PUBLIC c1b4 0 std::__ndk1::__throw_bad_variant_access[abi:ne180000]()
PUBLIC c1e8 0 std::__ndk1::basic_stringstream<char, std::__ndk1::char_traits<char>, std::__ndk1::allocator<char> >::basic_stringstream[abi:ne180000]()
PUBLIC m c314 0 std::__ndk1::basic_stringstream<char, std::__ndk1::char_traits<char>, std::__ndk1::allocator<char> >::~basic_stringstream()
PUBLIC c394 0 geode::UnwrapException::~UnwrapException()
PUBLIC c3b8 0 std::__ndk1::__put_character_sequence[abi:ne180000]<char, std::__ndk1::char_traits<char> >(std::__ndk1::basic_ostream<char, std::__ndk1::char_traits<char> >, std::__ndk1::basic_ostream const*, unsigned long)
PUBLIC c55c 0 std::__ndk1::__pad_and_output[abi:ne180000]<char, std::__ndk1::char_traits<char> >(std::__ndk1::char_traits<char>, std::__ndk1::ostreambuf_iterator const*, std::__ndk1::ostreambuf_iterator const, std::__ndk1::ostreambuf_iterator const, std::__ndk1::ios_base&, std::__ndk1::ostreambuf_iterator)
PUBLIC c738 0 std::__ndk1::basic_stringbuf<char, std::__ndk1::char_traits<char>, std::__ndk1::allocator<char> >::str[abi:ne180000]() &&
PUBLIC c8b0 0 std::__ndk1::basic_stringbuf<char, std::__ndk1::char_traits<char>, std::__ndk1::allocator<char> >::__init_buf_ptrs[abi:ne180000]()
PUBLIC c9f8 0 std::__ndk1::__variant_detail::__visitation::__base::__dispatcher<(unsigned long)0>::__dispatch[abi:ne180000]<std::__ndk1::__variant_detail::__dtor<std::__ndk1::__variant_detail::__traits<std::__ndk1::monostate, std::__ndk1::basic_string<char, std::__ndk1::char_traits<char>, std::__ndk1::allocator<char> > >, (std::__ndk1::__variant_detail::_Trait)1>::__destroy[abi:ne180000]()::{lambda(auto:1&)#1}, std::__ndk1::__variant_detail::__base<(std::__ndk1::__variant_detail::__traits<std::__ndk1::monostate, std::__ndk1::basic_string<char, std::__ndk1::char_traits<char>, std::__ndk1::allocator<char> > >)1, std::__ndk1::__variant_detail::__traits, std::__ndk1::allocator<char> >&>(std::__ndk1::__variant_detail::__dtor<std::__ndk1::__variant_detail::__traits<std::__ndk1::monostate, std::__ndk1::basic_string<char, std::__ndk1::char_traits<char>, std::__ndk1::allocator<char> > >, (std::__ndk1::__variant_detail::_Trait)1>, std::__ndk1::__variant_detail::__base<(std::__ndk1::__variant_detail::__traits<std::__ndk1::monostate, std::__ndk1::basic_string<char, std::__ndk1::char_traits<char>, std::__ndk1::allocator<char> > >)1, std::__ndk1::__variant_detail::__traits, std::__ndk1::allocator<char> >&)
PUBLIC c9fc 0 std::__ndk1::__variant_detail::__visitation::__base::__dispatcher<(unsigned long)1>::__dispatch[abi:ne180000]<std::__ndk1::__variant_detail::__dtor<std::__ndk1::__variant_detail::__traits<std::__ndk1::monostate, std::__ndk1::basic_string<char, std::__ndk1::char_traits<char>, std::__ndk1::allocator<char> > >, (std::__ndk1::__variant_detail::_Trait)1>::__destroy[abi:ne180000]()::{lambda(auto:1&)#1}, std::__ndk1::__variant_detail::__base<(std::__ndk1::__variant_detail::__traits<std::__ndk1::monostate, std::__ndk1::basic_string<char, std::__ndk1::char_traits<char>, std::__ndk1::allocator<char> > >)1, std::__ndk1::__variant_detail::__traits, std::__ndk1::allocator<char> >&>(std::__ndk1::__variant_detail::__dtor<std::__ndk1::__variant_detail::__traits<std::__ndk1::monostate, std::__ndk1::basic_string<char, std::__ndk1::char_traits<char>, std::__ndk1::allocator<char> > >, (std::__ndk1::__variant_detail::_Trait)1>, std::__ndk1::__variant_detail::__base<(std::__ndk1::__variant_detail::__traits<std::__ndk1::monostate, std::__ndk1::basic_string<char, std::__ndk1::char_traits<char>, std::__ndk1::allocator<char> > >)1, std::__ndk1::__variant_detail::__traits, std::__ndk1::allocator<char> >&)
PUBLIC ca10 0 std::__ndk1::__split_buffer<std::__ndk1::basic_string<char, std::__ndk1::char_traits<char>, std::__ndk1::allocator<char> >, std::__ndk1::allocator<std::__ndk1::basic_string<char, std::__ndk1::char_traits<char>, std::__ndk1::allocator<char> > >&>::~__split_buffer()
PUBLIC ca78 0 std::__ndk1::vector<std::__ndk1::basic_string<char, std::__ndk1::char_traits<char>, std::__ndk1::allocator<char> >, std::__ndk1::allocator<std::__ndk1::basic_string<char, std::__ndk1::char_traits<char>, std::__ndk1::allocator<char> > > >::__throw_length_error[abi:ne180000]() const
PUBLIC ca8c 0 std::__ndk1::__variant_detail::__visitation::__base::__dispatcher<(unsigned long)0>::__dispatch[abi:ne180000]<std::__ndk1::__variant_detail::__dtor<std::__ndk1::__variant_detail::__traits<geode::Hook*, std::__ndk1::basic_string<char, std::__ndk1::char_traits<char>, std::__ndk1::allocator<char> > >, (std::__ndk1::__variant_detail::_Trait)1>::__destroy[abi:ne180000]()::{lambda(auto:1&)#1}, std::__ndk1::__variant_detail::__base<(std::__ndk1::__variant_detail::__traits<geode::Hook*, std::__ndk1::basic_string<char, std::__ndk1::char_traits<char>, std::__ndk1::allocator<char> > >)1, geode::Hook, std::__ndk1::allocator<char> >&>(std::__ndk1::__variant_detail::__dtor<std::__ndk1::__variant_detail::__traits<geode::Hook*, std::__ndk1::basic_string<char, std::__ndk1::char_traits<char>, std::__ndk1::allocator<char> > >, (std::__ndk1::__variant_detail::_Trait)1>, std::__ndk1::__variant_detail::__base<(std::__ndk1::__variant_detail::__traits<geode::Hook*, std::__ndk1::basic_string<char, std::__ndk1::char_traits<char>, std::__ndk1::allocator<char> > >)1, geode::Hook, std::__ndk1::allocator<char> >&)
PUBLIC ca90 0 std::__ndk1::__variant_detail::__visitation::__base::__dispatcher<(unsigned long)1>::__dispatch[abi:ne180000]<std::__ndk1::__variant_detail::__dtor<std::__ndk1::__variant_detail::__traits<geode::Hook*, std::__ndk1::basic_string<char, std::__ndk1::char_traits<char>, std::__ndk1::allocator<char> > >, (std::__ndk1::__variant_detail::_Trait)1>::__destroy[abi:ne180000]()::{lambda(auto:1&)#1}, std::__ndk1::__variant_detail::__base<(std::__ndk1::__variant_detail::__traits<geode::Hook*, std::__ndk1::basic_string<char, std::__ndk1::char_traits<char>, std::__ndk1::allocator<char> > >)1, geode::Hook, std::__ndk1::allocator<char> >&>(std::__ndk1::__variant_detail::__dtor<std::__ndk1::__variant_detail::__traits<geode::Hook*, std::__ndk1::basic_string<char, std::__ndk1::char_traits<char>, std::__ndk1::allocator<char> > >, (std::__ndk1::__variant_detail::_Trait)1>, std::__ndk1::__variant_detail::__base<(std::__ndk1::__variant_detail::__traits<geode::Hook*, std::__ndk1::basic_string<char, std::__ndk1::char_traits<char>, std::__ndk1::allocator<char> > >)1, geode::Hook, std::__ndk1::allocator<char> >&)
PUBLIC caa4 0 std::__ndk1::__tree<std::__ndk1::__value_type<std::__ndk1::basic_string<char, std::__ndk1::char_traits<char>, std::__ndk1::allocator<char> >, std::__ndk1::shared_ptr<geode::Hook> >, std::__ndk1::__map_value_compare<std::__ndk1::basic_string<char, std::__ndk1::char_traits<char>, std::__ndk1::allocator<char> >, std::__ndk1::__value_type<std::__ndk1::basic_string<char, std::__ndk1::char_traits<char>, std::__ndk1::allocator<char> >, std::__ndk1::shared_ptr<geode::Hook> >, std::__ndk1::less<std::__ndk1::basic_string<char, std::__ndk1::char_traits<char>, std::__ndk1::allocator<char> > >, true>, std::__ndk1::allocator<std::__ndk1::__value_type<std::__ndk1::basic_string<char, std::__ndk1::char_traits<char>, std::__ndk1::allocator<char> >, std::__ndk1::shared_ptr<geode::Hook> > > >::destroy(std::__ndk1::__tree_node<std::__ndk1::__value_type<std::__ndk1::basic_string<char, std::__ndk1::char_traits<char>, std::__ndk1::allocator<char> >, std::__ndk1::shared_ptr<geode::Hook> >, void*>*)
PUBLIC cb28 0 geode::modifier::AsStaticFunction_init<StatsGarageLayer, bool (StatsGarageLayer::*)()>::Impl<bool (StatsGarageLayer::*)()>::function(StatsGarageLayer*)
PUBLIC d894 0 geode::addresser::Addresser::addressOfVirtual<bool, GJGarageLayer, >(bool (GJGarageLayer::*)())
PUBLIC d93c 0 GJGarageLayer::GJGarageLayer(geode::ZeroConstructorType)
PUBLIC d9f0 0 std::__ndk1::shared_ptr<tulip::hook::CallingConvention>::~shared_ptr[abi:ne180000]()
PUBLIC da40 0 tulip::hook::HandlerMetadata::~HandlerMetadata()
PUBLIC m daa4 0 geodeImplicitEntry
PUBLIC dae0 0 <.plt ELF section in capeling.garage-stats-menu.android64.so>
STACK CFI INIT 57f0 10 .cfa: sp 0 +
STACK CFI INIT 5800 8 .cfa: sp 0 +
STACK CFI INIT 5808 8 .cfa: sp 0 +
STACK CFI INIT 5810 14 .cfa: sp 0 +
STACK CFI INIT 5824 1c .cfa: sp 0 +
STACK CFI INIT 5840 10 .cfa: sp 0 +
STACK CFI INIT 5850 134 .cfa: sp 0 +
STACK CFI INIT 5984 84 .cfa: sp 0 +
STACK CFI INIT 5a08 f4 .cfa: sp 0 +
STACK CFI INIT 5afc a8 .cfa: sp 0 +
STACK CFI INIT 5ba4 7c .cfa: sp 0 +
STACK CFI INIT 5c20 14 .cfa: sp 0 +
STACK CFI INIT 5c34 40 .cfa: sp 0 +
STACK CFI INIT 5c74 28 .cfa: sp 0 +
STACK CFI INIT 5c9c 190 .cfa: sp 0 +
STACK CFI INIT 5e2c 2c8 .cfa: sp 0 +
STACK CFI INIT 60f4 8 .cfa: sp 0 +
STACK CFI INIT 60fc 8 .cfa: sp 0 +
STACK CFI INIT 6104 44 .cfa: sp 0 +
STACK CFI INIT 6148 e8 .cfa: sp 0 +
STACK CFI INIT 6230 e8 .cfa: sp 0 +
STACK CFI INIT 6318 14 .cfa: sp 0 +
STACK CFI INIT 632c 10 .cfa: sp 0 +
STACK CFI INIT 633c 10 .cfa: sp 0 +
STACK CFI INIT 634c f0 .cfa: sp 0 +
STACK CFI INIT 643c 44 .cfa: sp 0 +
STACK CFI INIT 6480 c .cfa: sp 0 +
STACK CFI INIT 648c c .cfa: sp 0 +
STACK CFI INIT 6498 2c .cfa: sp 0 +
STACK CFI INIT 64c4 280 .cfa: sp 0 +
STACK CFI INIT 6744 c .cfa: sp 0 +
STACK CFI INIT 6750 120 .cfa: sp 0 +
STACK CFI INIT 6870 488 .cfa: sp 0 +
STACK CFI INIT 6cf8 c48 .cfa: sp 0 +
STACK CFI INIT 7940 134 .cfa: sp 0 +
STACK CFI INIT 7a74 210 .cfa: sp 0 +
STACK CFI INIT 7c84 38c .cfa: sp 0 +
STACK CFI INIT 8010 1c8 .cfa: sp 0 +
STACK CFI INIT 81d8 9bc .cfa: sp 0 +
STACK CFI INIT 8b94 2d4 .cfa: sp 0 +
STACK CFI INIT 8e68 134 .cfa: sp 0 +
STACK CFI INIT 8f9c 120 .cfa: sp 0 +
STACK CFI INIT 90bc 1c8 .cfa: sp 0 +
STACK CFI INIT 9284 168 .cfa: sp 0 +
STACK CFI INIT 93ec fc .cfa: sp 0 +
STACK CFI INIT 94e8 30 .cfa: sp 0 +
STACK CFI INIT 9650 30 .cfa: sp 0 +
STACK CFI INIT 9680 98 .cfa: sp 0 +
STACK CFI INIT 9718 59c .cfa: sp 0 +
STACK CFI INIT 9cb4 8c .cfa: sp 0 +
STACK CFI INIT 9d40 30 .cfa: sp 0 +
STACK CFI INIT aef4 18 .cfa: sp 0 +
STACK CFI INIT b550 18 .cfa: sp 0 +
STACK CFI INIT b568 14 .cfa: sp 0 +
STACK CFI b56c .cfa: sp 16 +
STACK CFI b570 .cfa: x29 16 + .ra: .cfa -8 + ^ x29: .cfa -16 + ^
STACK CFI INIT b57c 10 .cfa: sp 0 +
STACK CFI b580 .cfa: sp 16 +
STACK CFI b584 .cfa: x29 16 + .ra: .cfa -8 + ^ x29: .cfa -16 + ^
STACK CFI INIT b5dc 30 .cfa: sp 0 +
STACK CFI b5e0 .cfa: sp 32 +
STACK CFI b5e8 .cfa: x29 32 + x19: .cfa -16 + ^ .ra: .cfa -24 + ^ x29: .cfa -32 + ^
STACK CFI b600 .cfa: sp 32 +
STACK CFI b608 .cfa: sp 0 +
STACK CFI INIT b60c 34 .cfa: sp 0 +
STACK CFI b610 .cfa: sp 32 +
STACK CFI b618 .cfa: x29 32 + x19: .cfa -16 + ^ .ra: .cfa -24 + ^ x29: .cfa -32 + ^
STACK CFI INIT b640 14 .cfa: sp 0 +
STACK CFI b644 .cfa: sp 16 +
STACK CFI b648 .cfa: x29 16 + .ra: .cfa -8 + ^ x29: .cfa -16 + ^
STACK CFI INIT b654 c .cfa: sp 0 +
STACK CFI b658 .cfa: sp 16 +
STACK CFI b65c .cfa: x29 16 + .ra: .cfa -8 + ^ x29: .cfa -16 + ^
STACK CFI INIT b6b0 30 .cfa: sp 0 +
STACK CFI b6b4 .cfa: sp 32 +
STACK CFI b6bc .cfa: x29 32 + x19: .cfa -16 + ^ .ra: .cfa -24 + ^ x29: .cfa -32 + ^
STACK CFI b6d4 .cfa: sp 32 +
STACK CFI b6dc .cfa: sp 0 +
STACK CFI INIT b6e0 c .cfa: sp 0 +
STACK CFI b6e4 .cfa: sp 16 +
STACK CFI b6e8 .cfa: x29 16 + .ra: .cfa -8 + ^ x29: .cfa -16 + ^
STACK CFI INIT b6ec 4 .cfa: sp 0 +
STACK CFI INIT b6f0 4 .cfa: sp 0 +
STACK CFI INIT b6f4 38 .cfa: sp 0 +
STACK CFI b6f8 .cfa: sp 32 +
STACK CFI b700 .cfa: x29 32 + x19: .cfa -16 + ^ .ra: .cfa -24 + ^ x29: .cfa -32 + ^
STACK CFI b720 .cfa: sp 32 +
STACK CFI b728 .cfa: sp 0 +
STACK CFI INIT b72c 18 .cfa: sp 0 +
STACK CFI INIT b744 4 .cfa: sp 0 +
STACK CFI INIT b748 4 .cfa: sp 0 +
STACK CFI INIT b74c 10 .cfa: sp 0 +
STACK CFI INIT b75c 1c .cfa: sp 0 +
STACK CFI INIT b778 c .cfa: sp 0 +
STACK CFI INIT b784 14 .cfa: sp 0 +
STACK CFI b788 .cfa: sp 16 +
STACK CFI b78c .cfa: x29 16 + .ra: .cfa -8 + ^ x29: .cfa -16 + ^
STACK CFI INIT b798 14 .cfa: sp 0 +
STACK CFI b79c .cfa: sp 16 +
STACK CFI b7a0 .cfa: x29 16 + .ra: .cfa -8 + ^ x29: .cfa -16 + ^
STACK CFI INIT bbc8 50 .cfa: sp 0 +
STACK CFI bbcc .cfa: sp 32 +
STACK CFI bbd4 .cfa: x29 32 + x19: .cfa -16 + ^ .ra: .cfa -24 + ^ x29: .cfa -32 + ^
STACK CFI bbec .cfa: sp 32 +
STACK CFI bbf4 .cfa: sp 0 +
STACK CFI bbf8 .cfa: x29 32 +
STACK CFI bc0c .cfa: sp 32 +
STACK CFI bc14 .cfa: sp 0 +
STACK CFI INIT bc8c 7c .cfa: sp 0 +
STACK CFI bc90 .cfa: sp 48 +
STACK CFI bc9c .cfa: x29 48 + x19: .cfa -8 + ^ x20: .cfa -16 + ^ x21: .cfa -32 + ^ .ra: .cfa -40 + ^ x29: .cfa -48 + ^
STACK CFI bce8 .cfa: sp 48 +
STACK CFI bcf4 .cfa: sp 0 +
STACK CFI bcf8 .cfa: sp 48 +
STACK CFI bd04 .cfa: sp 0 +
STACK CFI INIT bd08 4 .cfa: sp 0 +
STACK CFI INIT bd0c 124 .cfa: sp 0 +
STACK CFI bd10 .cfa: sp 64 +
STACK CFI bd20 .cfa: x29 64 + x19: .cfa -8 + ^ x20: .cfa -16 + ^ x21: .cfa -24 + ^ x22: .cfa -32 + ^ x23: .cfa -40 + ^ x24: .cfa -48 + ^ .ra: .cfa -56 + ^ x29: .cfa -64 + ^
STACK CFI be1c .cfa: sp 64 +
STACK CFI be2c .cfa: sp 0 +
STACK CFI INIT be30 80 .cfa: sp 0 +
STACK CFI be34 .cfa: sp 48 +
STACK CFI be40 .cfa: x29 48 + x19: .cfa -8 + ^ x20: .cfa -16 + ^ x21: .cfa -24 + ^ x22: .cfa -32 + ^ .ra: .cfa -40 + ^ x29: .cfa -48 + ^
STACK CFI be58 .cfa: sp 48 +
STACK CFI be64 .cfa: sp 0 +
STACK CFI be68 .cfa: x29 48 +
STACK CFI be98 .cfa: sp 48 +
STACK CFI bea4 .cfa: sp 0 +
STACK CFI bea8 .cfa: x29 48 +
STACK CFI INIT beb0 1b0 .cfa: sp 0 +
STACK CFI INIT c1b4 34 .cfa: sp 0 +
STACK CFI c1b8 .cfa: sp 16 +
STACK CFI c1bc .cfa: x29 16 + .ra: .cfa -8 + ^ x29: .cfa -16 + ^
STACK CFI INIT c314 80 .cfa: sp 0 +
STACK CFI c318 .cfa: sp 48 +
STACK CFI c324 .cfa: x29 48 + x19: .cfa -8 + ^ x20: .cfa -16 + ^ x21: .cfa -32 + ^ .ra: .cfa -40 + ^ x29: .cfa -48 + ^
STACK CFI c384 .cfa: sp 48 +
STACK CFI c390 .cfa: sp 0 +
STACK CFI INIT c394 24 .cfa: sp 0 +
STACK CFI c398 .cfa: sp 32 +
STACK CFI c3a0 .cfa: x29 32 + x19: .cfa -16 + ^ .ra: .cfa -24 + ^ x29: .cfa -32 + ^
STACK CFI c3ac .cfa: sp 32 +
STACK CFI c3b4 .cfa: sp 0 +
STACK CFI INIT c8b0 148 .cfa: sp 0 +
STACK CFI c8b4 .cfa: sp 48 +
STACK CFI c8c0 .cfa: x29 48 + x19: .cfa -8 + ^ x20: .cfa -16 + ^ x21: .cfa -32 + ^ .ra: .cfa -40 + ^ x29: .cfa -48 + ^
STACK CFI c9e8 .cfa: sp 48 +
STACK CFI c9f4 .cfa: sp 0 +
STACK CFI INIT c9f8 4 .cfa: sp 0 +
STACK CFI INIT c9fc 14 .cfa: sp 0 +
STACK CFI INIT ca10 68 .cfa: sp 0 +
STACK CFI ca14 .cfa: sp 32 +
STACK CFI ca1c .cfa: x29 32 + x19: .cfa -8 + ^ x20: .cfa -16 + ^ .ra: .cfa -24 + ^ x29: .cfa -32 + ^
STACK CFI ca34 .cfa: sp 32 +
STACK CFI ca3c .cfa: sp 0 +
STACK CFI ca40 .cfa: x29 32 +
STACK CFI ca6c .cfa: sp 32 +
STACK CFI ca74 .cfa: sp 0 +
STACK CFI INIT ca78 14 .cfa: sp 0 +
STACK CFI ca7c .cfa: sp 16 +
STACK CFI ca80 .cfa: x29 16 + .ra: .cfa -8 + ^ x29: .cfa -16 + ^
STACK CFI INIT ca8c 4 .cfa: sp 0 +
STACK CFI INIT ca90 14 .cfa: sp 0 +
STACK CFI INIT caa4 84 .cfa: sp 0 +
STACK CFI caac .cfa: sp 32 +
STACK CFI cab4 .cfa: x29 32 + x19: .cfa -8 + ^ x20: .cfa -16 + ^ .ra: .cfa -24 + ^ x29: .cfa -32 + ^
STACK CFI caf4 .cfa: sp 32 +
STACK CFI cafc .cfa: sp 0 +
STACK CFI cb04 .cfa: x29 32 +
STACK CFI INIT d93c b4 .cfa: sp 0 +
STACK CFI d940 .cfa: sp 32 +
STACK CFI d948 .cfa: x29 32 + x19: .cfa -16 + ^ .ra: .cfa -24 + ^ x29: .cfa -32 + ^
STACK CFI d9e4 .cfa: sp 32 +
STACK CFI d9ec .cfa: sp 0 +
STACK CFI INIT d9f0 50 .cfa: sp 0 +
STACK CFI d9f4 .cfa: sp 32 +
STACK CFI d9fc .cfa: x29 32 + x19: .cfa -16 + ^ .ra: .cfa -24 + ^ x29: .cfa -32 + ^
STACK CFI da14 .cfa: sp 32 +
STACK CFI da1c .cfa: sp 0 +
STACK CFI da20 .cfa: x29 32 +
STACK CFI da34 .cfa: sp 32 +
STACK CFI da3c .cfa: sp 0 +
STACK CFI INIT da40 64 .cfa: sp 0 +
STACK CFI da44 .cfa: sp 32 +
STACK CFI da4c .cfa: x29 32 + x19: .cfa -16 + ^ .ra: .cfa -24 + ^ x29: .cfa -32 + ^
STACK CFI da78 .cfa: sp 32 +
STACK CFI da80 .cfa: sp 0 +
STACK CFI da84 .cfa: x29 32 +
STACK CFI da98 .cfa: sp 32 +
STACK CFI daa0 .cfa: sp 0 +
STACK CFI INIT daa4 3c .cfa: sp 0 +
STACK CFI daa8 .cfa: sp 32 +
STACK CFI dab0 .cfa: x29 32 + x19: .cfa -16 + ^ .ra: .cfa -24 + ^ x29: .cfa -32 + ^
STACK CFI dabc .cfa: sp 32 +
STACK CFI dac4 .cfa: sp 0 +
STACK CFI dac8 .cfa: x29 32 +
STACK CFI dad4 .cfa: sp 32 +
STACK CFI dadc .cfa: sp 0 +
STACK CFI INIT 9d70 460 .cfa: sp 0 +
STACK CFI 9d74 .cfa: sp 160 +
STACK CFI 9d90 .cfa: x29 96 + x19: .cfa -8 + ^ x20: .cfa -16 + ^ x21: .cfa -24 + ^ x22: .cfa -32 + ^ x23: .cfa -40 + ^ x24: .cfa -48 + ^ x25: .cfa -56 + ^ x26: .cfa -64 + ^ x27: .cfa -80 + ^ .ra: .cfa -88 + ^ x29: .cfa -96 + ^
STACK CFI a120 .cfa: sp 160 +
STACK CFI a13c .cfa: sp 0 +
STACK CFI a140 .cfa: x29 96 +
STACK CFI INIT a1d0 d24 .cfa: sp 0 +
STACK CFI a1d4 .cfa: sp 240 +
STACK CFI a1f0 .cfa: x29 96 + x19: .cfa -8 + ^ x20: .cfa -16 + ^ x21: .cfa -24 + ^ x22: .cfa -32 + ^ x23: .cfa -40 + ^ x24: .cfa -48 + ^ x25: .cfa -56 + ^ x26: .cfa -64 + ^ x27: .cfa -72 + ^ x28: .cfa -80 + ^ .ra: .cfa -88 + ^ x29: .cfa -96 + ^
STACK CFI a334 .cfa: sp 240 +
STACK CFI a350 .cfa: sp 0 +
STACK CFI a354 .cfa: x29 96 +
STACK CFI ad80 .cfa: sp 240 +
STACK CFI ad9c .cfa: sp 0 +
STACK CFI ada0 .cfa: x29 96 +
STACK CFI INIT af0c 644 .cfa: sp 0 +
STACK CFI af10 .cfa: sp 224 +
STACK CFI af2c .cfa: x29 96 + x19: .cfa -8 + ^ x20: .cfa -16 + ^ x21: .cfa -24 + ^ x22: .cfa -32 + ^ x23: .cfa -40 + ^ x24: .cfa -48 + ^ x25: .cfa -56 + ^ x26: .cfa -64 + ^ x27: .cfa -72 + ^ x28: .cfa -80 + ^ .ra: .cfa -88 + ^ x29: .cfa -96 + ^
STACK CFI b3e0 .cfa: sp 224 +
STACK CFI b3fc .cfa: sp 0 +
STACK CFI b400 .cfa: x29 96 +
STACK CFI INIT b58c 50 .cfa: sp 0 +
STACK CFI b590 .cfa: sp 32 +
STACK CFI b598 .cfa: x29 32 + x19: .cfa -8 + ^ x20: .cfa -16 + ^ .ra: .cfa -24 + ^ x29: .cfa -32 + ^
STACK CFI INIT b660 50 .cfa: sp 0 +
STACK CFI b664 .cfa: sp 32 +
STACK CFI b66c .cfa: x29 32 + x19: .cfa -8 + ^ x20: .cfa -16 + ^ .ra: .cfa -24 + ^ x29: .cfa -32 + ^
STACK CFI INIT b7ac 41c .cfa: sp 0 +
STACK CFI b7b0 .cfa: sp 224 +
STACK CFI b7cc .cfa: x29 96 + x19: .cfa -8 + ^ x20: .cfa -16 + ^ x21: .cfa -24 + ^ x22: .cfa -32 + ^ x23: .cfa -40 + ^ x24: .cfa -48 + ^ x25: .cfa -56 + ^ x26: .cfa -64 + ^ x27: .cfa -80 + ^ .ra: .cfa -88 + ^ x29: .cfa -96 + ^
STACK CFI bab4 .cfa: sp 224 +
STACK CFI bad0 .cfa: sp 0 +
STACK CFI bad4 .cfa: x29 96 +
STACK CFI INIT bc18 74 .cfa: sp 0 +
STACK CFI bc1c .cfa: sp 48 +
STACK CFI bc28 .cfa: x29 32 + x19: .cfa -8 + ^ x20: .cfa -16 + ^ .ra: .cfa -24 + ^ x29: .cfa -32 + ^
STACK CFI bc74 .cfa: sp 48 +
STACK CFI bc80 .cfa: sp 0 +
STACK CFI bc84 .cfa: x29 32 +
STACK CFI INIT c060 154 .cfa: sp 0 +
STACK CFI c064 .cfa: sp 384 +
STACK CFI c078 .cfa: x29 64 + x19: .cfa -8 + ^ x20: .cfa -16 + ^ x21: .cfa -24 + ^ x22: .cfa -32 + ^ x23: .cfa -40 + ^ x28: .cfa -48 + ^ .ra: .cfa -56 + ^ x29: .cfa -64 + ^
STACK CFI c15c .cfa: sp 384 +
STACK CFI c170 .cfa: sp 0 +
STACK CFI c174 .cfa: x29 64 +
STACK CFI INIT c1e8 12c .cfa: sp 0 +
STACK CFI c1ec .cfa: sp 80 +
STACK CFI c200 .cfa: x29 80 + x19: .cfa -8 + ^ x20: .cfa -16 + ^ x21: .cfa -24 + ^ x22: .cfa -32 + ^ x23: .cfa -40 + ^ x24: .cfa -48 + ^ x25: .cfa -56 + ^ x26: .cfa -64 + ^ .ra: .cfa -72 + ^ x29: .cfa -80 + ^
STACK CFI c2c8 .cfa: sp 80 +
STACK CFI c2dc .cfa: sp 0 +
STACK CFI c2e0 .cfa: x29 80 +
STACK CFI INIT c3b8 1a4 .cfa: sp 0 +
STACK CFI c3bc .cfa: sp 112 +
STACK CFI c3d4 .cfa: x29 80 + x19: .cfa -8 + ^ x20: .cfa -16 + ^ x21: .cfa -24 + ^ x22: .cfa -32 + ^ x23: .cfa -40 + ^ x24: .cfa -48 + ^ x25: .cfa -56 + ^ x26: .cfa -64 + ^ .ra: .cfa -72 + ^ x29: .cfa -80 + ^
STACK CFI c4c4 .cfa: sp 112 +
STACK CFI c4dc .cfa: sp 0 +
STACK CFI c4e0 .cfa: x29 80 +
STACK CFI INIT c55c 1dc .cfa: sp 0 +
STACK CFI c560 .cfa: sp 128 +
STACK CFI c57c .cfa: x29 96 + x19: .cfa -8 + ^ x20: .cfa -16 + ^ x21: .cfa -24 + ^ x22: .cfa -32 + ^ x23: .cfa -40 + ^ x24: .cfa -48 + ^ x25: .cfa -56 + ^ x26: .cfa -64 + ^ x27: .cfa -80 + ^ .ra: .cfa -88 + ^ x29: .cfa -96 + ^
STACK CFI c6e8 .cfa: sp 128 +
STACK CFI c704 .cfa: sp 0 +
STACK CFI c708 .cfa: x29 96 +
STACK CFI INIT c738 178 .cfa: sp 0 +
STACK CFI c73c .cfa: sp 80 +
STACK CFI c750 .cfa: x29 80 + x19: .cfa -8 + ^ x20: .cfa -16 + ^ x21: .cfa -24 + ^ x22: .cfa -32 + ^ x23: .cfa -40 + ^ x24: .cfa -48 + ^ x25: .cfa -64 + ^ .ra: .cfa -72 + ^ x29: .cfa -80 + ^
STACK CFI c87c .cfa: sp 80 +
STACK CFI c890 .cfa: sp 0 +
STACK CFI c894 .cfa: x29 80 +
STACK CFI INIT cb28 d6c .cfa: sp 0 +
STACK CFI cb2c .cfa: sp 320 +
STACK CFI cb48 .cfa: x29 96 + x19: .cfa -8 + ^ x20: .cfa -16 + ^ x21: .cfa -24 + ^ x22: .cfa -32 + ^ x23: .cfa -40 + ^ x24: .cfa -48 + ^ x25: .cfa -56 + ^ x26: .cfa -64 + ^ x27: .cfa -72 + ^ x28: .cfa -80 + ^ .ra: .cfa -88 + ^ x29: .cfa -96 + ^
STACK CFI d7f4 .cfa: sp 320 +
STACK CFI d810 .cfa: sp 0 +
STACK CFI d814 .cfa: x29 96 +
STACK CFI INIT d894 a8 .cfa: sp 0 +
STACK CFI d898 .cfa: sp 32 +
STACK CFI d8a0 .cfa: x29 32 + x19: .cfa -16 + ^ .ra: .cfa -24 + ^ x29: .cfa -32 + ^
STACK CFI d8d4 .cfa: sp 32 +
STACK CFI d8dc .cfa: sp 0 +
STACK CFI d8e0 .cfa: x29 32 +
STACK CFI d8e4 .cfa: sp 32 +
STACK CFI d8ec .cfa: sp 0 +
STACK CFI d8f0 .cfa: x29 32 +
