MODULE Linux arm64 0060274274A6CF9AD3977E3E3CC02AFB0 oculations.steamfeed.android64.so
INFO CODE_ID 42276000A6749ACFD3977E3E3CC02AFB9E5E40AE
INFO GENERATOR mozilla/dump_syms 2.3.4
PUBLIC 13800 0 __on_dlclose
PUBLIC 13810 0 __emutls_unregister_key
PUBLIC 13818 0 __on_dlclose_late
PUBLIC 13820 0 __atexit_handler_wrapper
PUBLIC 13834 0 atexit
PUBLIC 13850 0 pthread_atfork
PUBLIC 13860 0 __aarch64_ldadd8_relax
PUBLIC 13890 0 init_have_lse_atomics
PUBLIC 13928 0 __init_cpu_features_constructor
PUBLIC 13ec4 0 __init_cpu_features
PUBLIC 13f50 0 __aarch64_ldadd8_acq_rel
PUBLIC 13f80 0 __cxx_global_var_init
PUBLIC 14b54 0 geode::modifier::ModifyBase<geode::modifier::ModifyDerive<MyMenuLayer, MenuLayer> >::~ModifyBase()
PUBLIC 14b6c 0 geode::modifier::ModifyDerive<MyMenuLayer, MenuLayer>::apply()
PUBLIC 14f74 0 std::__ndk1::shared_ptr<geode::Hook>::~shared_ptr[abi:ne180000]()
PUBLIC 14fc4 0 geode::impl::ResultData<geode::Hook*, std::__ndk1::basic_string<char, std::__ndk1::char_traits<char>, std::__ndk1::allocator<char> > >::~ResultData()
PUBLIC 15038 0 std::__ndk1::vector<std::__ndk1::basic_string<char, std::__ndk1::char_traits<char>, std::__ndk1::allocator<char> >, std::__ndk1::allocator<std::__ndk1::basic_string<char, std::__ndk1::char_traits<char>, std::__ndk1::allocator<char> > > >::~vector[abi:ne180000]()
PUBLIC 150b4 0 geode::modifier::ModifyBase<geode::modifier::ModifyDerive<MyMenuLayer, MenuLayer> >::apply()
PUBLIC 150b8 0 __clang_call_terminate
PUBLIC 150c8 0 _ZN5geode15UnwrapExceptionC2IRPNS_4HookEQsr4implE18IsStringStreamableIT_EEENS_4impl5OkTagEOS5_
PUBLIC 1521c 0 std::__ndk1::__throw_bad_variant_access[abi:ne180000]()
PUBLIC 15250 0 std::__ndk1::basic_stringstream<char, std::__ndk1::char_traits<char>, std::__ndk1::allocator<char> >::basic_stringstream[abi:ne180000]()
PUBLIC m 1537c 0 std::__ndk1::basic_stringstream<char, std::__ndk1::char_traits<char>, std::__ndk1::allocator<char> >::~basic_stringstream()
PUBLIC 153fc 0 geode::UnwrapException::~UnwrapException()
PUBLIC 15420 0 std::__ndk1::__put_character_sequence[abi:ne180000]<char, std::__ndk1::char_traits<char> >(std::__ndk1::basic_ostream<char, std::__ndk1::char_traits<char> >, std::__ndk1::basic_ostream const*, unsigned long)
PUBLIC 155c4 0 std::__ndk1::__pad_and_output[abi:ne180000]<char, std::__ndk1::char_traits<char> >(std::__ndk1::char_traits<char>, std::__ndk1::ostreambuf_iterator const*, std::__ndk1::ostreambuf_iterator const, std::__ndk1::ostreambuf_iterator const, std::__ndk1::ios_base&, std::__ndk1::ostreambuf_iterator)
PUBLIC 157a0 0 std::__ndk1::basic_string<char, std::__ndk1::char_traits<char>, std::__ndk1::allocator<char> >::__throw_length_error[abi:ne180000]() const
PUBLIC 157b4 0 std::__ndk1::__throw_length_error[abi:ne180000](char const*)
PUBLIC 15804 0 std::length_error::length_error[abi:ne180000](char const*)
PUBLIC 15834 0 std::__throw_bad_array_new_length([abi:ne180000], void)
PUBLIC 15868 0 std::__ndk1::basic_stringbuf<char, std::__ndk1::char_traits<char>, std::__ndk1::allocator<char> >::str[abi:ne180000]() &&
PUBLIC 159e0 0 std::__ndk1::basic_stringbuf<char, std::__ndk1::char_traits<char>, std::__ndk1::allocator<char> >::__init_buf_ptrs[abi:ne180000]()
PUBLIC 15b28 0 std::__ndk1::basic_string<char, std::__ndk1::char_traits<char>, std::__ndk1::allocator<char> >::__init_copy_ctor_external(char const*, unsigned long)
PUBLIC 15ba8 0 std::__ndk1::__split_buffer<std::__ndk1::basic_string<char, std::__ndk1::char_traits<char>, std::__ndk1::allocator<char> >, std::__ndk1::allocator<std::__ndk1::basic_string<char, std::__ndk1::char_traits<char>, std::__ndk1::allocator<char> > >&>::~__split_buffer()
PUBLIC 15c10 0 std::__ndk1::vector<std::__ndk1::basic_string<char, std::__ndk1::char_traits<char>, std::__ndk1::allocator<char> >, std::__ndk1::allocator<std::__ndk1::basic_string<char, std::__ndk1::char_traits<char>, std::__ndk1::allocator<char> > > >::__throw_length_error[abi:ne180000]() const
PUBLIC 15c24 0 std::__ndk1::__variant_detail::__visitation::__base::__dispatcher<(unsigned long)0>::__dispatch[abi:ne180000]<std::__ndk1::__variant_detail::__dtor<std::__ndk1::__variant_detail::__traits<geode::Hook*, std::__ndk1::basic_string<char, std::__ndk1::char_traits<char>, std::__ndk1::allocator<char> > >, (std::__ndk1::__variant_detail::_Trait)1>::__destroy[abi:ne180000]()::{lambda(auto:1&)#1}, std::__ndk1::__variant_detail::__base<(std::__ndk1::__variant_detail::__traits<geode::Hook*, std::__ndk1::basic_string<char, std::__ndk1::char_traits<char>, std::__ndk1::allocator<char> > >)1, geode::Hook, std::__ndk1::allocator<char> >&>(std::__ndk1::__variant_detail::__dtor<std::__ndk1::__variant_detail::__traits<geode::Hook*, std::__ndk1::basic_string<char, std::__ndk1::char_traits<char>, std::__ndk1::allocator<char> > >, (std::__ndk1::__variant_detail::_Trait)1>, std::__ndk1::__variant_detail::__base<(std::__ndk1::__variant_detail::__traits<geode::Hook*, std::__ndk1::basic_string<char, std::__ndk1::char_traits<char>, std::__ndk1::allocator<char> > >)1, geode::Hook, std::__ndk1::allocator<char> >&)
PUBLIC 15c28 0 std::__ndk1::__variant_detail::__visitation::__base::__dispatcher<(unsigned long)1>::__dispatch[abi:ne180000]<std::__ndk1::__variant_detail::__dtor<std::__ndk1::__variant_detail::__traits<geode::Hook*, std::__ndk1::basic_string<char, std::__ndk1::char_traits<char>, std::__ndk1::allocator<char> > >, (std::__ndk1::__variant_detail::_Trait)1>::__destroy[abi:ne180000]()::{lambda(auto:1&)#1}, std::__ndk1::__variant_detail::__base<(std::__ndk1::__variant_detail::__traits<geode::Hook*, std::__ndk1::basic_string<char, std::__ndk1::char_traits<char>, std::__ndk1::allocator<char> > >)1, geode::Hook, std::__ndk1::allocator<char> >&>(std::__ndk1::__variant_detail::__dtor<std::__ndk1::__variant_detail::__traits<geode::Hook*, std::__ndk1::basic_string<char, std::__ndk1::char_traits<char>, std::__ndk1::allocator<char> > >, (std::__ndk1::__variant_detail::_Trait)1>, std::__ndk1::__variant_detail::__base<(std::__ndk1::__variant_detail::__traits<geode::Hook*, std::__ndk1::basic_string<char, std::__ndk1::char_traits<char>, std::__ndk1::allocator<char> > >)1, geode::Hook, std::__ndk1::allocator<char> >&)
PUBLIC 15c3c 0 std::__ndk1::__tree<std::__ndk1::__value_type<std::__ndk1::basic_string<char, std::__ndk1::char_traits<char>, std::__ndk1::allocator<char> >, std::__ndk1::shared_ptr<geode::Hook> >, std::__ndk1::__map_value_compare<std::__ndk1::basic_string<char, std::__ndk1::char_traits<char>, std::__ndk1::allocator<char> >, std::__ndk1::__value_type<std::__ndk1::basic_string<char, std::__ndk1::char_traits<char>, std::__ndk1::allocator<char> >, std::__ndk1::shared_ptr<geode::Hook> >, std::__ndk1::less<std::__ndk1::basic_string<char, std::__ndk1::char_traits<char>, std::__ndk1::allocator<char> > >, true>, std::__ndk1::allocator<std::__ndk1::__value_type<std::__ndk1::basic_string<char, std::__ndk1::char_traits<char>, std::__ndk1::allocator<char> >, std::__ndk1::shared_ptr<geode::Hook> > > >::destroy(std::__ndk1::__tree_node<std::__ndk1::__value_type<std::__ndk1::basic_string<char, std::__ndk1::char_traits<char>, std::__ndk1::allocator<char> >, std::__ndk1::shared_ptr<geode::Hook> >, void*>*)
PUBLIC 15cc0 0 geode::modifier::AsStaticFunction_init<MyMenuLayer, bool (MyMenuLayer::*)()>::Impl<bool (MyMenuLayer::*)()>::function(MyMenuLayer*)
PUBLIC 161b0 0 geode::addresser::Addresser::addressOfVirtual<bool, MenuLayer, >(bool (MenuLayer::*)())
PUBLIC 16258 0 MenuLayer::MenuLayer(geode::ZeroConstructorType)
PUBLIC 162f4 0 cocos2d::CCCopying::copyWithZone(cocos2d::CCZone*)
PUBLIC 162fc 0 std::__ndk1::shared_ptr<tulip::hook::CallingConvention>::~shared_ptr[abi:ne180000]()
PUBLIC 1634c 0 tulip::hook::HandlerMetadata::~HandlerMetadata()
PUBLIC 163b0 0 geode::cocos::CCMenuItemExt::LambdaCallback<CCMenuItemSpriteExtra>::execute(cocos2d::CCNode*)
PUBLIC 16420 0 geode::cocos::CCMenuItemExt::LambdaCallback<CCMenuItemSpriteExtra>::~LambdaCallback()
PUBLIC 1647c 0 geode::cocos::CCMenuItemExt::LambdaCallback<CCMenuItemSpriteExtra>::~LambdaCallback()
PUBLIC 164e0 0 cocos2d::CCObject::update(float)
PUBLIC 164e4 0 std::__ndk1::__throw_bad_function_call[abi:ne180000]()
PUBLIC 16518 0 std::__ndk1::bad_function_call::~bad_function_call()
PUBLIC 1653c 0 std::__ndk1::__function::__base<void (CCMenuItemSpriteExtra*)>::~__base()
PUBLIC 16540 0 std::__ndk1::__function::__func<MyMenuLayer::init()::{lambda(auto:1)#1}, std::__ndk1::allocator<MyMenuLayer::init()::{lambda(auto:1)#1}>, void (CCMenuItemSpriteExtra*)>::~__func()
PUBLIC 16544 0 std::__ndk1::__function::__func<MyMenuLayer::init()::{lambda(auto:1)#1}, std::__ndk1::allocator<MyMenuLayer::init()::{lambda(auto:1)#1}>, void (CCMenuItemSpriteExtra*)>::__clone() const
PUBLIC 16568 0 std::__ndk1::__function::__func<MyMenuLayer::init()::{lambda(auto:1)#1}, std::__ndk1::allocator<MyMenuLayer::init()::{lambda(auto:1)#1}>, void (CCMenuItemSpriteExtra*)>::__clone(std::__ndk1::__function::__base<void (CCMenuItemSpriteExtra*)>*) const
PUBLIC 16578 0 std::__ndk1::__function::__func<MyMenuLayer::init()::{lambda(auto:1)#1}, std::__ndk1::allocator<MyMenuLayer::init()::{lambda(auto:1)#1}>, void (CCMenuItemSpriteExtra*)>::destroy()
PUBLIC 1657c 0 std::__ndk1::__function::__func<MyMenuLayer::init()::{lambda(auto:1)#1}, std::__ndk1::allocator<MyMenuLayer::init()::{lambda(auto:1)#1}>, void (CCMenuItemSpriteExtra*)>::destroy_deallocate()
PUBLIC 16580 0 std::__ndk1::__function::__func<MyMenuLayer::init()::{lambda(auto:1)#1}, std::__ndk1::allocator<MyMenuLayer::init()::{lambda(auto:1)#1}>, void (CCMenuItemSpriteExtra*)>::operator()(CCMenuItemSpriteExtra*&&)
PUBLIC 167cc 0 std::__ndk1::__function::__func<MyMenuLayer::init()::{lambda(auto:1)#1}, std::__ndk1::allocator<MyMenuLayer::init()::{lambda(auto:1)#1}>, void (CCMenuItemSpriteExtra*)>::target(std::type_info const&) const
PUBLIC 167e8 0 std::__ndk1::__function::__func<MyMenuLayer::init()::{lambda(auto:1)#1}, std::__ndk1::allocator<MyMenuLayer::init()::{lambda(auto:1)#1}>, void (CCMenuItemSpriteExtra*)>::target_type() const
PUBLIC 167f4 0 geode::Task<geode::utils::web::WebResponse, geode::utils::web::WebProgress>::~Task()
PUBLIC 16844 0 geode::Task<geode::utils::web::WebResponse, geode::utils::web::WebProgress>::setListener(geode::EventListenerProtocol*)
PUBLIC 16a60 0 geode::EventListener<geode::Task<geode::utils::web::WebResponse, geode::utils::web::WebProgress> >::getPool() const
PUBLIC 16a64 0 geode::EventListener<geode::Task<geode::utils::web::WebResponse, geode::utils::web::WebProgress> >::handle(geode::Event*)
PUBLIC 16c30 0 geode::EventListener<geode::Task<geode::utils::web::WebResponse, geode::utils::web::WebProgress> >::~EventListener()
PUBLIC 16ccc 0 geode::EventListener<geode::Task<geode::utils::web::WebResponse, geode::utils::web::WebProgress> >::~EventListener()
PUBLIC 16d70 0 geode::Task<geode::utils::web::WebResponse, geode::utils::web::WebProgress>::setListener(geode::EventListenerProtocol*)::{lambda()#1}::~{lambda()#1}()
PUBLIC 16dc0 0 geode::Task<geode::utils::web::WebResponse, geode::utils::web::WebProgress>::setListener(geode::EventListenerProtocol*)::{lambda()#2}::~{lambda()#2}()
PUBLIC 16e10 0 std::__ndk1::__function::__func<geode::Task<geode::utils::web::WebResponse, geode::utils::web::WebProgress>::setListener(geode::EventListenerProtocol*)::{lambda()#1}, std::__ndk1::allocator<geode::Task<geode::utils::web::WebResponse, geode::utils::web::WebProgress>::setListener(geode::EventListenerProtocol*)::{lambda()#1}>, void ()>::~__func()
PUBLIC 16e6c 0 std::__ndk1::__function::__func<geode::Task<geode::utils::web::WebResponse, geode::utils::web::WebProgress>::setListener(geode::EventListenerProtocol*)::{lambda()#1}, std::__ndk1::allocator<geode::Task<geode::utils::web::WebResponse, geode::utils::web::WebProgress>::setListener(geode::EventListenerProtocol*)::{lambda()#1}>, void ()>::~__func()
PUBLIC 16ed8 0 std::__ndk1::__function::__func<geode::Task<geode::utils::web::WebResponse, geode::utils::web::WebProgress>::setListener(geode::EventListenerProtocol*)::{lambda()#1}, std::__ndk1::allocator<geode::Task<geode::utils::web::WebResponse, geode::utils::web::WebProgress>::setListener(geode::EventListenerProtocol*)::{lambda()#1}>, void ()>::__clone() const
PUBLIC 16f30 0 std::__ndk1::__function::__func<geode::Task<geode::utils::web::WebResponse, geode::utils::web::WebProgress>::setListener(geode::EventListenerProtocol*)::{lambda()#1}, std::__ndk1::allocator<geode::Task<geode::utils::web::WebResponse, geode::utils::web::WebProgress>::setListener(geode::EventListenerProtocol*)::{lambda()#1}>, void ()>::__clone(std::__ndk1::__function::__base<void ()>*) const
PUBLIC 16f7c 0 std::__ndk1::__function::__func<geode::Task<geode::utils::web::WebResponse, geode::utils::web::WebProgress>::setListener(geode::EventListenerProtocol*)::{lambda()#1}, std::__ndk1::allocator<geode::Task<geode::utils::web::WebResponse, geode::utils::web::WebProgress>::setListener(geode::EventListenerProtocol*)::{lambda()#1}>, void ()>::destroy()
PUBLIC 16fcc 0 std::__ndk1::__function::__func<geode::Task<geode::utils::web::WebResponse, geode::utils::web::WebProgress>::setListener(geode::EventListenerProtocol*)::{lambda()#1}, std::__ndk1::allocator<geode::Task<geode::utils::web::WebResponse, geode::utils::web::WebProgress>::setListener(geode::EventListenerProtocol*)::{lambda()#1}>, void ()>::destroy_deallocate()
PUBLIC 1702c 0 std::__ndk1::__function::__func<geode::Task<geode::utils::web::WebResponse, geode::utils::web::WebProgress>::setListener(geode::EventListenerProtocol*)::{lambda()#1}, std::__ndk1::allocator<geode::Task<geode::utils::web::WebResponse, geode::utils::web::WebProgress>::setListener(geode::EventListenerProtocol*)::{lambda()#1}>, void ()>::operator()()
PUBLIC 17034 0 std::__ndk1::__function::__func<geode::Task<geode::utils::web::WebResponse, geode::utils::web::WebProgress>::setListener(geode::EventListenerProtocol*)::{lambda()#1}, std::__ndk1::allocator<geode::Task<geode::utils::web::WebResponse, geode::utils::web::WebProgress>::setListener(geode::EventListenerProtocol*)::{lambda()#1}>, void ()>::target(std::type_info const&) const
PUBLIC 17050 0 std::__ndk1::__function::__func<geode::Task<geode::utils::web::WebResponse, geode::utils::web::WebProgress>::setListener(geode::EventListenerProtocol*)::{lambda()#1}, std::__ndk1::allocator<geode::Task<geode::utils::web::WebResponse, geode::utils::web::WebProgress>::setListener(geode::EventListenerProtocol*)::{lambda()#1}>, void ()>::target_type() const
PUBLIC 1705c 0 geode::Task<geode::utils::web::WebResponse, geode::utils::web::WebProgress>::setListener(geode::EventListenerProtocol*)::{lambda()#1}::operator()() const
PUBLIC 1722c 0 geode::Task<geode::utils::web::WebResponse, geode::utils::web::WebProgress>::Event::~Event()
PUBLIC 1728c 0 geode::Task<geode::utils::web::WebResponse, geode::utils::web::WebProgress>::Event::~Event()
PUBLIC 172fc 0 std::__ndk1::__function::__func<geode::Task<geode::utils::web::WebResponse, geode::utils::web::WebProgress>::setListener(geode::EventListenerProtocol*)::{lambda()#2}, std::__ndk1::allocator<geode::Task<geode::utils::web::WebResponse, geode::utils::web::WebProgress>::setListener(geode::EventListenerProtocol*)::{lambda()#2}>, void ()>::~__func()
PUBLIC 17358 0 std::__ndk1::__function::__func<geode::Task<geode::utils::web::WebResponse, geode::utils::web::WebProgress>::setListener(geode::EventListenerProtocol*)::{lambda()#2}, std::__ndk1::allocator<geode::Task<geode::utils::web::WebResponse, geode::utils::web::WebProgress>::setListener(geode::EventListenerProtocol*)::{lambda()#2}>, void ()>::~__func()
PUBLIC 173c4 0 std::__ndk1::__function::__func<geode::Task<geode::utils::web::WebResponse, geode::utils::web::WebProgress>::setListener(geode::EventListenerProtocol*)::{lambda()#2}, std::__ndk1::allocator<geode::Task<geode::utils::web::WebResponse, geode::utils::web::WebProgress>::setListener(geode::EventListenerProtocol*)::{lambda()#2}>, void ()>::__clone() const
PUBLIC 1741c 0 std::__ndk1::__function::__func<geode::Task<geode::utils::web::WebResponse, geode::utils::web::WebProgress>::setListener(geode::EventListenerProtocol*)::{lambda()#2}, std::__ndk1::allocator<geode::Task<geode::utils::web::WebResponse, geode::utils::web::WebProgress>::setListener(geode::EventListenerProtocol*)::{lambda()#2}>, void ()>::__clone(std::__ndk1::__function::__base<void ()>*) const
PUBLIC 17468 0 std::__ndk1::__function::__func<geode::Task<geode::utils::web::WebResponse, geode::utils::web::WebProgress>::setListener(geode::EventListenerProtocol*)::{lambda()#2}, std::__ndk1::allocator<geode::Task<geode::utils::web::WebResponse, geode::utils::web::WebProgress>::setListener(geode::EventListenerProtocol*)::{lambda()#2}>, void ()>::destroy()
PUBLIC 174b8 0 std::__ndk1::__function::__func<geode::Task<geode::utils::web::WebResponse, geode::utils::web::WebProgress>::setListener(geode::EventListenerProtocol*)::{lambda()#2}, std::__ndk1::allocator<geode::Task<geode::utils::web::WebResponse, geode::utils::web::WebProgress>::setListener(geode::EventListenerProtocol*)::{lambda()#2}>, void ()>::destroy_deallocate()
PUBLIC 17518 0 std::__ndk1::__function::__func<geode::Task<geode::utils::web::WebResponse, geode::utils::web::WebProgress>::setListener(geode::EventListenerProtocol*)::{lambda()#2}, std::__ndk1::allocator<geode::Task<geode::utils::web::WebResponse, geode::utils::web::WebProgress>::setListener(geode::EventListenerProtocol*)::{lambda()#2}>, void ()>::operator()()
PUBLIC 17520 0 std::__ndk1::__function::__func<geode::Task<geode::utils::web::WebResponse, geode::utils::web::WebProgress>::setListener(geode::EventListenerProtocol*)::{lambda()#2}, std::__ndk1::allocator<geode::Task<geode::utils::web::WebResponse, geode::utils::web::WebProgress>::setListener(geode::EventListenerProtocol*)::{lambda()#2}>, void ()>::target(std::type_info const&) const
PUBLIC 1753c 0 std::__ndk1::__function::__func<geode::Task<geode::utils::web::WebResponse, geode::utils::web::WebProgress>::setListener(geode::EventListenerProtocol*)::{lambda()#2}, std::__ndk1::allocator<geode::Task<geode::utils::web::WebResponse, geode::utils::web::WebProgress>::setListener(geode::EventListenerProtocol*)::{lambda()#2}>, void ()>::target_type() const
PUBLIC 17548 0 geode::Task<geode::utils::web::WebResponse, geode::utils::web::WebProgress>::setListener(geode::EventListenerProtocol*)::{lambda()#2}::operator()() const
PUBLIC 1770c 0 geode::cast::traverseTypeinfoFor(void*, geode::cast::ClassTypeinfoType const*, char const*)
PUBLIC 17810 0 std::__ndk1::__tree_balance_after_insert[abi:ne180000]<std::__ndk1::__tree_node_base<void*>*>(std::__ndk1::__tree_node_base<void*>*, std::__ndk1::__tree_node_base<void*>*)
PUBLIC 179c0 0 SteamNewsLayer::init()
PUBLIC 17f94 0 SteamNewsLayer::closePopup(cocos2d::CCObject*)
PUBLIC 17fd0 0 std::__ndk1::basic_string<char, std::__ndk1::char_traits<char>, std::__ndk1::allocator<char> >::basic_string[abi:ne180000]<0>()
PUBLIC 1806c 0 SteamNewsLayer::scrollToTop(cocos2d::CCObject*)
PUBLIC 180f0 0 SteamNewsLayer::registerWithTouchDispatcher()
PUBLIC 18128 0 std::__ndk1::set<std::__ndk1::basic_string<char, std::__ndk1::char_traits<char>, std::__ndk1::allocator<char> >, std::__ndk1::less<std::__ndk1::basic_string<char, std::__ndk1::char_traits<char>, std::__ndk1::allocator<char> > >, std::__ndk1::allocator<std::__ndk1::basic_string<char, std::__ndk1::char_traits<char>, std::__ndk1::allocator<char> > > >::set[abi:ne180000](std::initializer_list<std::__ndk1::basic_string<char, std::__ndk1::char_traits<char>, std::__ndk1::allocator<char> > >, std::__ndk1::less<std::__ndk1::basic_string<char, std::__ndk1::char_traits<char>, std::__ndk1::allocator<char> > > const&)
PUBLIC 18408 0 std::__ndk1::set<std::__ndk1::basic_string<char, std::__ndk1::char_traits<char>, std::__ndk1::allocator<char> >, std::__ndk1::less<std::__ndk1::basic_string<char, std::__ndk1::char_traits<char>, std::__ndk1::allocator<char> > >, std::__ndk1::allocator<std::__ndk1::basic_string<char, std::__ndk1::char_traits<char>, std::__ndk1::allocator<char> > > >::~set[abi:ne180000]()
PUBLIC 18410 0 SteamNewsLayer::NewsItem::~NewsItem()
PUBLIC 1848c 0 rapidjson::GenericDocument<rapidjson::UTF8<char>, rapidjson::MemoryPoolAllocator<rapidjson::CrtAllocator>, rapidjson::CrtAllocator>::~GenericDocument()
PUBLIC 18548 0 std::__ndk1::basic_istringstream<char, std::__ndk1::char_traits<char>, std::__ndk1::allocator<char> >::basic_istringstream[abi:ne180000](std::__ndk1::basic_string<char, std::__ndk1::char_traits<char>, std::__ndk1::allocator<char> > const&, unsigned int)
PUBLIC 1869c 0 std::__ndk1::operator>>[abi:ne180000]<char, std::__ndk1::char_traits<char>, std::__ndk1::allocator<char> >(std::__ndk1::basic_istream<char, std::__ndk1::char_traits<char> >, std::__ndk1::basic_string<std::__ndk1::basic_istream, char, std::__ndk1::allocator<char> >&)
PUBLIC m 188f4 0 std::__ndk1::basic_istringstream<char, std::__ndk1::char_traits<char>, std::__ndk1::allocator<char> >::~basic_istringstream()
PUBLIC 18970 0 SteamNewsLayer::~SteamNewsLayer()
PUBLIC 18a58 0 SteamNewsLayer::~SteamNewsLayer()
PUBLIC 18b48 0 cocos2d::CCLayerRGBA::setOpacityModifyRGB(bool)
PUBLIC 18b4c 0 cocos2d::CCLayerRGBA::isOpacityModifyRGB()
PUBLIC 18b54 0 SteamNewsLayer::scrollViewDidScroll(cocos2d::extension::CCScrollView*)
PUBLIC 18b58 0 SteamNewsLayer::scrollViewDidZoom(cocos2d::extension::CCScrollView*)
PUBLIC 18b5c 0 {virtual override thunk({offset(-320)}, SteamNewsLayer::~SteamNewsLayer())}
PUBLIC 18c4c 0 {virtual override thunk({offset(-320)}, SteamNewsLayer::~SteamNewsLayer())}
PUBLIC 18d44 0 cocos2d::CCKeyboardDelegate::keyUp(cocos2d::enumKeyCodes)
PUBLIC 18d48 0 cocos2d::CCMouseDelegate::rightKeyDown()
PUBLIC 18d4c 0 cocos2d::CCMouseDelegate::rightKeyUp()
PUBLIC 18d50 0 cocos2d::CCMouseDelegate::scrollWheel(float, float)
PUBLIC 18d54 0 {virtual override thunk({offset(-408)}, cocos2d::CCLayerRGBA::setOpacityModifyRGB(bool))}
PUBLIC 18d58 0 {virtual override thunk({offset(-408)}, cocos2d::CCLayerRGBA::isOpacityModifyRGB())}
PUBLIC 18d60 0 {virtual override thunk({offset(-632)}, SteamNewsLayer::~SteamNewsLayer())}
PUBLIC 18e74 0 {virtual override thunk({offset(-632)}, SteamNewsLayer::~SteamNewsLayer())}
PUBLIC 18f90 0 {virtual override thunk({offset(-632)}, SteamNewsLayer::scrollViewDidScroll(cocos2d::extension::CCScrollView*))}
PUBLIC 18f94 0 {virtual override thunk({offset(-632)}, SteamNewsLayer::scrollViewDidZoom(cocos2d::extension::CCScrollView*))}
PUBLIC 18f98 0 std::__ndk1::basic_string<char, std::__ndk1::char_traits<char>, std::__ndk1::allocator<char> >::__assign_no_alias<true>(char const*, unsigned long)
PUBLIC 19044 0 std::__ndk1::basic_string<char, std::__ndk1::char_traits<char>, std::__ndk1::allocator<char> >::__assign_no_alias<false>(char const*, unsigned long)
PUBLIC 19154 0 std::__ndk1::basic_string<char, std::__ndk1::char_traits<char>, std::__ndk1::allocator<char> >::__assign_external(char const*, unsigned long)
PUBLIC 1927c 0 std::__ndk1::basic_string<char, std::__ndk1::char_traits<char>, std::__ndk1::allocator<char> >::__assign_external(char const*)
PUBLIC 192b0 0 SteamNewsLayer::NewsItem::NewsItem(SteamNewsLayer::NewsItem const&)
PUBLIC 19408 0 std::__ndk1::__split_buffer<SteamNewsLayer::NewsItem, std::__ndk1::allocator<SteamNewsLayer::NewsItem>&>::~__split_buffer()
PUBLIC 194c0 0 std::__ndk1::vector<SteamNewsLayer::NewsItem, std::__ndk1::allocator<SteamNewsLayer::NewsItem> >::__throw_length_error[abi:ne180000]() const
PUBLIC 194d4 0 std::__ndk1::vector<SteamNewsLayer::NewsItem, std::__ndk1::allocator<SteamNewsLayer::NewsItem> >::__destroy_vector::operator()[abi:ne180000]()
PUBLIC 195b0 0 std::__ndk1::basic_string<char, std::__ndk1::char_traits<char>, std::__ndk1::allocator<char> >::__throw_out_of_range[abi:ne180000]() const
PUBLIC 195bc 0 std::__ndk1::basic_string<char, std::__ndk1::char_traits<char>, std::__ndk1::allocator<char> >::__erase_external_with_move(unsigned long, unsigned long)
PUBLIC 19644 0 std::__ndk1::__throw_out_of_range[abi:ne180000](char const*)
PUBLIC 19694 0 std::out_of_range::out_of_range[abi:ne180000](char const*)
PUBLIC 196c4 0 std::__ndk1::__function::__base<void (geode::Task<geode::utils::web::WebResponse, geode::utils::web::WebProgress>::Event*)>::~__base()
PUBLIC 196c8 0 std::__ndk1::__function::__func<SteamNewsLayer::fetchNewsItems()::$_0, std::__ndk1::allocator<SteamNewsLayer::fetchNewsItems()::$_0>, void (geode::Task<geode::utils::web::WebResponse, geode::utils::web::WebProgress>::Event*)>::~__func()
PUBLIC 196cc 0 std::__ndk1::__function::__func<SteamNewsLayer::fetchNewsItems()::$_0, std::__ndk1::allocator<SteamNewsLayer::fetchNewsItems()::$_0>, void (geode::Task<geode::utils::web::WebResponse, geode::utils::web::WebProgress>::Event*)>::__clone() const
PUBLIC 19700 0 std::__ndk1::__function::__func<SteamNewsLayer::fetchNewsItems()::$_0, std::__ndk1::allocator<SteamNewsLayer::fetchNewsItems()::$_0>, void (geode::Task<geode::utils::web::WebResponse, geode::utils::web::WebProgress>::Event*)>::__clone(std::__ndk1::__function::__base<void (geode::Task<geode::utils::web::WebResponse, geode::utils::web::WebProgress>::Event*)>*) const
PUBLIC 19714 0 std::__ndk1::__function::__func<SteamNewsLayer::fetchNewsItems()::$_0, std::__ndk1::allocator<SteamNewsLayer::fetchNewsItems()::$_0>, void (geode::Task<geode::utils::web::WebResponse, geode::utils::web::WebProgress>::Event*)>::destroy()
PUBLIC 19718 0 std::__ndk1::__function::__func<SteamNewsLayer::fetchNewsItems()::$_0, std::__ndk1::allocator<SteamNewsLayer::fetchNewsItems()::$_0>, void (geode::Task<geode::utils::web::WebResponse, geode::utils::web::WebProgress>::Event*)>::destroy_deallocate()
PUBLIC 1971c 0 std::__ndk1::__function::__func<SteamNewsLayer::fetchNewsItems()::$_0, std::__ndk1::allocator<SteamNewsLayer::fetchNewsItems()::$_0>, void (geode::Task<geode::utils::web::WebResponse, geode::utils::web::WebProgress>::Event*)>::operator()(geode::Task<geode::utils::web::WebResponse, geode::utils::web::WebProgress>::Event*&&)
PUBLIC 1c078 0 std::__ndk1::__function::__func<SteamNewsLayer::fetchNewsItems()::$_0, std::__ndk1::allocator<SteamNewsLayer::fetchNewsItems()::$_0>, void (geode::Task<geode::utils::web::WebResponse, geode::utils::web::WebProgress>::Event*)>::target(std::type_info const&) const
PUBLIC 1c094 0 std::__ndk1::__function::__func<SteamNewsLayer::fetchNewsItems()::$_0, std::__ndk1::allocator<SteamNewsLayer::fetchNewsItems()::$_0>, void (geode::Task<geode::utils::web::WebResponse, geode::utils::web::WebProgress>::Event*)>::target_type() const
PUBLIC 1c0a0 0 std::__ndk1::__variant_detail::__visitation::__base::__dispatcher<(unsigned long)0>::__dispatch[abi:ne180000]<std::__ndk1::__variant_detail::__dtor<std::__ndk1::__variant_detail::__traits<std::__ndk1::basic_string<char, std::__ndk1::char_traits<char>, std::__ndk1::allocator<char> >, std::__ndk1::allocator<char> >, (std::__ndk1::__variant_detail::_Trait)1>::__destroy[abi:ne180000]()::{lambda(auto:1&)#1}, std::__ndk1::__variant_detail::__base<(std::__ndk1::__variant_detail::__traits<std::__ndk1::basic_string<char, std::__ndk1::char_traits<char>, std::__ndk1::allocator<char> >, std::__ndk1::allocator<char> >)1, std::__ndk1::allocator<char>, std::__ndk1::allocator<char> >&>(std::__ndk1::__variant_detail::__dtor<std::__ndk1::__variant_detail::__traits<std::__ndk1::basic_string<char, std::__ndk1::char_traits<char>, std::__ndk1::allocator<char> >, std::__ndk1::allocator<char> >, (std::__ndk1::__variant_detail::_Trait)1>, std::__ndk1::__variant_detail::__base<(std::__ndk1::__variant_detail::__traits<std::__ndk1::basic_string<char, std::__ndk1::char_traits<char>, std::__ndk1::allocator<char> >, std::__ndk1::allocator<char> >)1, std::__ndk1::allocator<char>, std::__ndk1::allocator<char> >&)
PUBLIC 1c0b4 0 std::__ndk1::__variant_detail::__visitation::__base::__dispatcher<(unsigned long)1>::__dispatch[abi:ne180000]<std::__ndk1::__variant_detail::__dtor<std::__ndk1::__variant_detail::__traits<std::__ndk1::basic_string<char, std::__ndk1::char_traits<char>, std::__ndk1::allocator<char> >, std::__ndk1::allocator<char> >, (std::__ndk1::__variant_detail::_Trait)1>::__destroy[abi:ne180000]()::{lambda(auto:1&)#1}, std::__ndk1::__variant_detail::__base<(std::__ndk1::__variant_detail::__traits<std::__ndk1::basic_string<char, std::__ndk1::char_traits<char>, std::__ndk1::allocator<char> >, std::__ndk1::allocator<char> >)1, std::__ndk1::allocator<char>, std::__ndk1::allocator<char> >&>(std::__ndk1::__variant_detail::__dtor<std::__ndk1::__variant_detail::__traits<std::__ndk1::basic_string<char, std::__ndk1::char_traits<char>, std::__ndk1::allocator<char> >, std::__ndk1::allocator<char> >, (std::__ndk1::__variant_detail::_Trait)1>, std::__ndk1::__variant_detail::__base<(std::__ndk1::__variant_detail::__traits<std::__ndk1::basic_string<char, std::__ndk1::char_traits<char>, std::__ndk1::allocator<char> >, std::__ndk1::allocator<char> >)1, std::__ndk1::allocator<char>, std::__ndk1::allocator<char> >&)
PUBLIC 1c0c8 0 std::__ndk1::vector<SteamNewsLayer::NewsItem, std::__ndk1::allocator<SteamNewsLayer::NewsItem> >::__init_with_size[abi:ne180000]<SteamNewsLayer::NewsItem*, std::__ndk1::vector<SteamNewsLayer::NewsItem, std::__ndk1::allocator<SteamNewsLayer::NewsItem> >::__init_with_size[abi:ne180000]>(SteamNewsLayer::NewsItem*, std::__ndk1::vector<SteamNewsLayer::NewsItem, std::__ndk1::allocator<SteamNewsLayer::NewsItem> >::__init_with_size[abi:ne180000], unsigned long)
PUBLIC 1c208 0 std::__ndk1::__exception_guard_exceptions<std::__ndk1::_AllocatorDestroyRangeReverse<std::__ndk1::allocator<SteamNewsLayer::NewsItem>, SteamNewsLayer::NewsItem*> >::~__exception_guard_exceptions[abi:ne180000]()
PUBLIC 1c2a8 0 std::__ndk1::__function::__func<SteamNewsLayer::fetchNewsItems()::$_0::operator()(geode::Task<geode::utils::web::WebResponse, geode::utils::web::WebProgress>::Event*) const::{lambda()#1}, std::__ndk1::allocator<SteamNewsLayer::fetchNewsItems()::$_0::operator()(geode::Task<geode::utils::web::WebResponse, geode::utils::web::WebProgress>::Event*) const::{lambda()#1}>, void ()>::~__func()
PUBLIC 1c300 0 std::__ndk1::__function::__func<SteamNewsLayer::fetchNewsItems()::$_0::operator()(geode::Task<geode::utils::web::WebResponse, geode::utils::web::WebProgress>::Event*) const::{lambda()#1}, std::__ndk1::allocator<SteamNewsLayer::fetchNewsItems()::$_0::operator()(geode::Task<geode::utils::web::WebResponse, geode::utils::web::WebProgress>::Event*) const::{lambda()#1}>, void ()>::~__func()
PUBLIC 1c364 0 std::__ndk1::__function::__func<SteamNewsLayer::fetchNewsItems()::$_0::operator()(geode::Task<geode::utils::web::WebResponse, geode::utils::web::WebProgress>::Event*) const::{lambda()#1}, std::__ndk1::allocator<SteamNewsLayer::fetchNewsItems()::$_0::operator()(geode::Task<geode::utils::web::WebResponse, geode::utils::web::WebProgress>::Event*) const::{lambda()#1}>, void ()>::__clone() const
PUBLIC 1c3d8 0 std::__ndk1::__function::__func<SteamNewsLayer::fetchNewsItems()::$_0::operator()(geode::Task<geode::utils::web::WebResponse, geode::utils::web::WebProgress>::Event*) const::{lambda()#1}, std::__ndk1::allocator<SteamNewsLayer::fetchNewsItems()::$_0::operator()(geode::Task<geode::utils::web::WebResponse, geode::utils::web::WebProgress>::Event*) const::{lambda()#1}>, void ()>::__clone(std::__ndk1::__function::__base<void ()>*) const
PUBLIC 1c414 0 std::__ndk1::__function::__func<SteamNewsLayer::fetchNewsItems()::$_0::operator()(geode::Task<geode::utils::web::WebResponse, geode::utils::web::WebProgress>::Event*) const::{lambda()#1}, std::__ndk1::allocator<SteamNewsLayer::fetchNewsItems()::$_0::operator()(geode::Task<geode::utils::web::WebResponse, geode::utils::web::WebProgress>::Event*) const::{lambda()#1}>, void ()>::destroy()
PUBLIC 1c464 0 std::__ndk1::__function::__func<SteamNewsLayer::fetchNewsItems()::$_0::operator()(geode::Task<geode::utils::web::WebResponse, geode::utils::web::WebProgress>::Event*) const::{lambda()#1}, std::__ndk1::allocator<SteamNewsLayer::fetchNewsItems()::$_0::operator()(geode::Task<geode::utils::web::WebResponse, geode::utils::web::WebProgress>::Event*) const::{lambda()#1}>, void ()>::destroy_deallocate()
PUBLIC 1c4bc 0 std::__ndk1::__function::__func<SteamNewsLayer::fetchNewsItems()::$_0::operator()(geode::Task<geode::utils::web::WebResponse, geode::utils::web::WebProgress>::Event*) const::{lambda()#1}, std::__ndk1::allocator<SteamNewsLayer::fetchNewsItems()::$_0::operator()(geode::Task<geode::utils::web::WebResponse, geode::utils::web::WebProgress>::Event*) const::{lambda()#1}>, void ()>::operator()()
PUBLIC 1db30 0 std::__ndk1::__function::__func<SteamNewsLayer::fetchNewsItems()::$_0::operator()(geode::Task<geode::utils::web::WebResponse, geode::utils::web::WebProgress>::Event*) const::{lambda()#1}, std::__ndk1::allocator<SteamNewsLayer::fetchNewsItems()::$_0::operator()(geode::Task<geode::utils::web::WebResponse, geode::utils::web::WebProgress>::Event*) const::{lambda()#1}>, void ()>::target(std::type_info const&) const
PUBLIC 1db4c 0 std::__ndk1::__function::__func<SteamNewsLayer::fetchNewsItems()::$_0::operator()(geode::Task<geode::utils::web::WebResponse, geode::utils::web::WebProgress>::Event*) const::{lambda()#1}, std::__ndk1::allocator<SteamNewsLayer::fetchNewsItems()::$_0::operator()(geode::Task<geode::utils::web::WebResponse, geode::utils::web::WebProgress>::Event*) const::{lambda()#1}>, void ()>::target_type() const
PUBLIC 1db58 0 rapidjson::internal::Stack<rapidjson::CrtAllocator>::~Stack()
PUBLIC 1db90 0 rapidjson::GenericReader<rapidjson::UTF8<char>, rapidjson::UTF8<char>, rapidjson::CrtAllocator>::~GenericReader()
PUBLIC 1dbc8 0 rapidjson::GenericReader<rapidjson::UTF8<char>, rapidjson::UTF8<char>, rapidjson::CrtAllocator>::ParseValue<(unsigned int)0, rapidjson::GenericStringStream<rapidjson::UTF8<char> >, rapidjson::GenericDocument<rapidjson::UTF8<char>, rapidjson::MemoryPoolAllocator<rapidjson::CrtAllocator>, rapidjson::CrtAllocator> >(rapidjson::GenericStringStream<rapidjson::UTF8<char> >&, rapidjson::GenericDocument<rapidjson::UTF8<char>, rapidjson::MemoryPoolAllocator<rapidjson::CrtAllocator>, rapidjson::CrtAllocator>&)
PUBLIC 1eb60 0 rapidjson::ParseResult::IsError() const
PUBLIC 1eb70 0 rapidjson::GenericReader<rapidjson::UTF8<char>, rapidjson::UTF8<char>, rapidjson::CrtAllocator>::ParseString<(unsigned int)0, rapidjson::GenericStringStream<rapidjson::UTF8<char> >, rapidjson::GenericDocument<rapidjson::UTF8<char>, rapidjson::MemoryPoolAllocator<rapidjson::CrtAllocator>, rapidjson::CrtAllocator> >(rapidjson::GenericStringStream<rapidjson::UTF8<char> >&, rapidjson::GenericDocument<rapidjson::UTF8<char>, rapidjson::MemoryPoolAllocator<rapidjson::CrtAllocator>, rapidjson::CrtAllocator>&, bool)
PUBLIC 1efb4 0 rapidjson::internal::Stack<rapidjson::CrtAllocator>::Expand<rapidjson::GenericValue<rapidjson::UTF8<char>, rapidjson::MemoryPoolAllocator<rapidjson::CrtAllocator> > >(unsigned long)
PUBLIC 1f06c 0 rapidjson::GenericReader<rapidjson::UTF8<char>, rapidjson::UTF8<char>, rapidjson::CrtAllocator>::ParseHex4<rapidjson::GenericStringStream<rapidjson::UTF8<char> > >(rapidjson::GenericStringStream<rapidjson::UTF8<char> >&, unsigned long)
PUBLIC 1f238 0 rapidjson::UTF8<char>::Encode<rapidjson::GenericReader<rapidjson::UTF8<char>, rapidjson::UTF8<char>, rapidjson::CrtAllocator>::StackStream<char> >(rapidjson::GenericReader<rapidjson::UTF8<char>, rapidjson::UTF8<char>, rapidjson::CrtAllocator>::StackStream<char>&, unsigned int)
PUBLIC 1f56c 0 rapidjson::internal::Stack<rapidjson::CrtAllocator>::Expand<char>(unsigned long)
PUBLIC 1f624 0 rapidjson::MemoryPoolAllocator<rapidjson::CrtAllocator>::AddChunk(unsigned long)
PUBLIC 1f688 0 std::__ndk1::unique_ptr<std::__ndk1::__tree_node<std::__ndk1::basic_string<char, std::__ndk1::char_traits<char>, std::__ndk1::allocator<char> >, void*>, std::__ndk1::__tree_node_destructor<std::__ndk1::allocator<std::__ndk1::__tree_node<std::__ndk1::basic_string<char, std::__ndk1::char_traits<char>, std::__ndk1::allocator<char> >, void*> > > >::~unique_ptr[abi:ne180000]()
PUBLIC 1f6d8 0 std::__ndk1::__tree<std::__ndk1::basic_string<char, std::__ndk1::char_traits<char>, std::__ndk1::allocator<char> >, std::__ndk1::less<std::__ndk1::basic_string<char, std::__ndk1::char_traits<char>, std::__ndk1::allocator<char> > >, std::__ndk1::allocator<std::__ndk1::basic_string<char, std::__ndk1::char_traits<char>, std::__ndk1::allocator<char> > > >::destroy(std::__ndk1::__tree_node<std::__ndk1::basic_string<char, std::__ndk1::char_traits<char>, std::__ndk1::allocator<char> >, void*>*)
PUBLIC m 1f720 0 geodeImplicitEntry
PUBLIC 1f75c 0 std::__ndk1::unordered_map<void*, bool, std::__ndk1::hash<void*>, std::__ndk1::equal_to<void*>, std::__ndk1::allocator<std::__ndk1::pair<void* const, bool> > >::~unordered_map[abi:ne180000]()
PUBLIC 1f7a8 0 wrapFunction(unsigned long, tulip::hook::WrapperMetadata const&)
PUBLIC 1f8dc 0 geode::impl::ResultData<void*, std::__ndk1::basic_string<char, std::__ndk1::char_traits<char>, std::__ndk1::allocator<char> > >::unwrapErr() &
PUBLIC 1f954 0 geode::impl::ResultData<void*, std::__ndk1::basic_string<char, std::__ndk1::char_traits<char>, std::__ndk1::allocator<char> > >::~ResultData()
PUBLIC 1f9c8 0 tulip::hook::WrapperMetadata::~WrapperMetadata()
PUBLIC 1fa2c 0 cocos2d::CCObject::CCObject()
PUBLIC 1fc50 0 cocos2d::CCObject::~CCObject()
PUBLIC 1fc74 0 cocos2d::CCNode::~CCNode()
PUBLIC 1fc98 0 {virtual override thunk({offset(-320)}, cocos2d::CCLayer::~CCLayer())}
PUBLIC 1fca0 0 cocos2d::CCLayer::~CCLayer()
PUBLIC 1fcc4 0 {virtual override thunk({offset(-320)}, cocos2d::CCLayer::~CCLayer())}
PUBLIC 1fcec 0 cocos2d::CCLayerRGBA::~CCLayerRGBA()
PUBLIC 1ffec 0 {virtual override thunk({offset(-320)}, cocos2d::CCLayerRGBA::~CCLayerRGBA())}
PUBLIC 1fff4 0 cocos2d::CCLayerRGBA::~CCLayerRGBA()
PUBLIC 20018 0 {virtual override thunk({offset(-320)}, cocos2d::CCLayerRGBA::~CCLayerRGBA())}
PUBLIC 20040 0 cocos2d::CCLayerColor::CCLayerColor()
PUBLIC 202a4 0 {virtual override thunk({offset(-320)}, cocos2d::CCLayerColor::~CCLayerColor())}
PUBLIC 202ac 0 cocos2d::CCLayerColor::~CCLayerColor()
PUBLIC 202d0 0 {virtual override thunk({offset(-320)}, cocos2d::CCLayerColor::~CCLayerColor())}
PUBLIC 202f8 0 {virtual override thunk({offset(-320)}, FLAlertLayer::~FLAlertLayer())}
PUBLIC 20300 0 FLAlertLayer::~FLAlertLayer()
PUBLIC 20324 0 {virtual override thunk({offset(-320)}, FLAlertLayer::~FLAlertLayer())}
PUBLIC 2034c 0 cocos2d::CCLayerColor::~CCLayerColor()
PUBLIC 20630 0 FLAlertLayer::~FLAlertLayer()
PUBLIC 20914 0 cocos2d::CCNode::~CCNode()
PUBLIC 20bb4 0 cocos2d::CCLayer::~CCLayer()
PUBLIC 20ea4 0 cocos2d::CCObject::~CCObject()
PUBLIC 21398 0 _ZN5geode15UnwrapExceptionC2IRPvQsr4implE18IsStringStreamableIT_EEENS_4impl5OkTagEOS4_
PUBLIC 214ec 0 _ZN5geode15UnwrapExceptionC2IRNSt6__ndk112basic_stringIcNS2_11char_traitsIcEENS2_9allocatorIcEEEEQsr4implE18IsStringStreamableIT_EEENS_4impl6ErrTagEOSA_
PUBLIC 21654 0 std::__ndk1::__variant_detail::__visitation::__base::__dispatcher<(unsigned long)0>::__dispatch[abi:ne180000]<std::__ndk1::__variant_detail::__dtor<std::__ndk1::__variant_detail::__traits<void*, std::__ndk1::basic_string<char, std::__ndk1::char_traits<char>, std::__ndk1::allocator<char> > >, (std::__ndk1::__variant_detail::_Trait)1>::__destroy[abi:ne180000]()::{lambda(auto:1&)#1}, std::__ndk1::__variant_detail::__base<(std::__ndk1::__variant_detail::__traits<void*, std::__ndk1::basic_string<char, std::__ndk1::char_traits<char>, std::__ndk1::allocator<char> > >)1, std::__ndk1::__variant_detail::__traits, std::__ndk1::allocator<char> >&>(std::__ndk1::__variant_detail::__dtor<std::__ndk1::__variant_detail::__traits<void*, std::__ndk1::basic_string<char, std::__ndk1::char_traits<char>, std::__ndk1::allocator<char> > >, (std::__ndk1::__variant_detail::_Trait)1>, std::__ndk1::__variant_detail::__base<(std::__ndk1::__variant_detail::__traits<void*, std::__ndk1::basic_string<char, std::__ndk1::char_traits<char>, std::__ndk1::allocator<char> > >)1, std::__ndk1::__variant_detail::__traits, std::__ndk1::allocator<char> >&)
PUBLIC 21658 0 std::__ndk1::__variant_detail::__visitation::__base::__dispatcher<(unsigned long)1>::__dispatch[abi:ne180000]<std::__ndk1::__variant_detail::__dtor<std::__ndk1::__variant_detail::__traits<void*, std::__ndk1::basic_string<char, std::__ndk1::char_traits<char>, std::__ndk1::allocator<char> > >, (std::__ndk1::__variant_detail::_Trait)1>::__destroy[abi:ne180000]()::{lambda(auto:1&)#1}, std::__ndk1::__variant_detail::__base<(std::__ndk1::__variant_detail::__traits<void*, std::__ndk1::basic_string<char, std::__ndk1::char_traits<char>, std::__ndk1::allocator<char> > >)1, std::__ndk1::__variant_detail::__traits, std::__ndk1::allocator<char> >&>(std::__ndk1::__variant_detail::__dtor<std::__ndk1::__variant_detail::__traits<void*, std::__ndk1::basic_string<char, std::__ndk1::char_traits<char>, std::__ndk1::allocator<char> > >, (std::__ndk1::__variant_detail::_Trait)1>, std::__ndk1::__variant_detail::__base<(std::__ndk1::__variant_detail::__traits<void*, std::__ndk1::basic_string<char, std::__ndk1::char_traits<char>, std::__ndk1::allocator<char> > >)1, std::__ndk1::__variant_detail::__traits, std::__ndk1::allocator<char> >&)
PUBLIC 2166c 0 std::__ndk1::__hash_table<std::__ndk1::__hash_value_type<void*, bool>, std::__ndk1::__unordered_map_hasher<void*, std::__ndk1::__hash_value_type<void*, bool>, std::__ndk1::hash<void*>, std::__ndk1::equal_to<void*>, true>, std::__ndk1::__unordered_map_equal<void*, std::__ndk1::__hash_value_type<void*, bool>, std::__ndk1::equal_to<void*>, std::__ndk1::hash<void*>, true>, std::__ndk1::allocator<std::__ndk1::__hash_value_type<void*, bool> > >::__emplace_unique_key_args<void*, std::__ndk1::piecewise_construct_t const&, std::__ndk1::tuple<void* const&>, std::__ndk1::tuple<> >(void* const&, std::__ndk1::piecewise_construct_t const&, std::__ndk1::tuple<void* const&>, std::__ndk1::tuple<>)
PUBLIC 21b80 0 <.plt ELF section in oculations.steamfeed.android64.so>
STACK CFI INIT 13800 10 .cfa: sp 0 +
STACK CFI INIT 13810 8 .cfa: sp 0 +
STACK CFI INIT 13818 8 .cfa: sp 0 +
STACK CFI INIT 13820 14 .cfa: sp 0 +
STACK CFI INIT 13834 1c .cfa: sp 0 +
STACK CFI INIT 13850 10 .cfa: sp 0 +
STACK CFI INIT 13860 30 .cfa: sp 0 +
STACK CFI INIT 13890 98 .cfa: sp 0 +
STACK CFI INIT 13928 59c .cfa: sp 0 +
STACK CFI INIT 13ec4 8c .cfa: sp 0 +
STACK CFI INIT 13f50 30 .cfa: sp 0 +
STACK CFI INIT 14b54 18 .cfa: sp 0 +
STACK CFI INIT 14f74 50 .cfa: sp 0 +
STACK CFI 14f78 .cfa: sp 32 +
STACK CFI 14f80 .cfa: x29 32 + x19: .cfa -16 + ^ .ra: .cfa -24 + ^ x29: .cfa -32 + ^
STACK CFI 14f98 .cfa: sp 32 +
STACK CFI 14fa0 .cfa: sp 0 +
STACK CFI 14fa4 .cfa: x29 32 +
STACK CFI 14fb8 .cfa: sp 32 +
STACK CFI 14fc0 .cfa: sp 0 +
STACK CFI INIT 15038 7c .cfa: sp 0 +
STACK CFI 1503c .cfa: sp 48 +
STACK CFI 15048 .cfa: x29 48 + x19: .cfa -8 + ^ x20: .cfa -16 + ^ x21: .cfa -32 + ^ .ra: .cfa -40 + ^ x29: .cfa -48 + ^
STACK CFI 15094 .cfa: sp 48 +
STACK CFI 150a0 .cfa: sp 0 +
STACK CFI 150a4 .cfa: sp 48 +
STACK CFI 150b0 .cfa: sp 0 +
STACK CFI INIT 150b4 4 .cfa: sp 0 +
STACK CFI INIT 150b8 10 .cfa: sp 0 +
STACK CFI 150bc .cfa: sp 16 +
STACK CFI 150c0 .cfa: x29 16 + .ra: .cfa -8 + ^ x29: .cfa -16 + ^
STACK CFI INIT 1521c 34 .cfa: sp 0 +
STACK CFI 15220 .cfa: sp 16 +
STACK CFI 15224 .cfa: x29 16 + .ra: .cfa -8 + ^ x29: .cfa -16 + ^
STACK CFI INIT 1537c 80 .cfa: sp 0 +
STACK CFI 15380 .cfa: sp 48 +
STACK CFI 1538c .cfa: x29 48 + x19: .cfa -8 + ^ x20: .cfa -16 + ^ x21: .cfa -32 + ^ .ra: .cfa -40 + ^ x29: .cfa -48 + ^
STACK CFI 153ec .cfa: sp 48 +
STACK CFI 153f8 .cfa: sp 0 +
STACK CFI INIT 153fc 24 .cfa: sp 0 +
STACK CFI 15400 .cfa: sp 32 +
STACK CFI 15408 .cfa: x29 32 + x19: .cfa -16 + ^ .ra: .cfa -24 + ^ x29: .cfa -32 + ^
STACK CFI 15414 .cfa: sp 32 +
STACK CFI 1541c .cfa: sp 0 +
STACK CFI INIT 157a0 14 .cfa: sp 0 +
STACK CFI 157a4 .cfa: sp 16 +
STACK CFI 157a8 .cfa: x29 16 + .ra: .cfa -8 + ^ x29: .cfa -16 + ^
STACK CFI INIT 15804 30 .cfa: sp 0 +
STACK CFI 15808 .cfa: sp 32 +
STACK CFI 15810 .cfa: x29 32 + x19: .cfa -16 + ^ .ra: .cfa -24 + ^ x29: .cfa -32 + ^
STACK CFI 15828 .cfa: sp 32 +
STACK CFI 15830 .cfa: sp 0 +
STACK CFI INIT 15834 34 .cfa: sp 0 +
STACK CFI 15838 .cfa: sp 32 +
STACK CFI 15840 .cfa: x29 32 + x19: .cfa -16 + ^ .ra: .cfa -24 + ^ x29: .cfa -32 + ^
STACK CFI INIT 159e0 148 .cfa: sp 0 +
STACK CFI 159e4 .cfa: sp 48 +
STACK CFI 159f0 .cfa: x29 48 + x19: .cfa -8 + ^ x20: .cfa -16 + ^ x21: .cfa -32 + ^ .ra: .cfa -40 + ^ x29: .cfa -48 + ^
STACK CFI 15b18 .cfa: sp 48 +
STACK CFI 15b24 .cfa: sp 0 +
STACK CFI INIT 15b28 80 .cfa: sp 0 +
STACK CFI 15b2c .cfa: sp 48 +
STACK CFI 15b38 .cfa: x29 48 + x19: .cfa -8 + ^ x20: .cfa -16 + ^ x21: .cfa -24 + ^ x22: .cfa -32 + ^ .ra: .cfa -40 + ^ x29: .cfa -48 + ^
STACK CFI 15b50 .cfa: sp 48 +
STACK CFI 15b5c .cfa: sp 0 +
STACK CFI 15b60 .cfa: x29 48 +
STACK CFI 15b90 .cfa: sp 48 +
STACK CFI 15b9c .cfa: sp 0 +
STACK CFI 15ba0 .cfa: x29 48 +
STACK CFI INIT 15ba8 68 .cfa: sp 0 +
STACK CFI 15bac .cfa: sp 32 +
STACK CFI 15bb4 .cfa: x29 32 + x19: .cfa -8 + ^ x20: .cfa -16 + ^ .ra: .cfa -24 + ^ x29: .cfa -32 + ^
STACK CFI 15bcc .cfa: sp 32 +
STACK CFI 15bd4 .cfa: sp 0 +
STACK CFI 15bd8 .cfa: x29 32 +
STACK CFI 15c04 .cfa: sp 32 +
STACK CFI 15c0c .cfa: sp 0 +
STACK CFI INIT 15c10 14 .cfa: sp 0 +
STACK CFI 15c14 .cfa: sp 16 +
STACK CFI 15c18 .cfa: x29 16 + .ra: .cfa -8 + ^ x29: .cfa -16 + ^
STACK CFI INIT 15c24 4 .cfa: sp 0 +
STACK CFI INIT 15c28 14 .cfa: sp 0 +
STACK CFI INIT 15c3c 84 .cfa: sp 0 +
STACK CFI 15c44 .cfa: sp 32 +
STACK CFI 15c4c .cfa: x29 32 + x19: .cfa -8 + ^ x20: .cfa -16 + ^ .ra: .cfa -24 + ^ x29: .cfa -32 + ^
STACK CFI 15c8c .cfa: sp 32 +
STACK CFI 15c94 .cfa: sp 0 +
STACK CFI 15c9c .cfa: x29 32 +
STACK CFI INIT 16258 9c .cfa: sp 0 +
STACK CFI INIT 162f4 8 .cfa: sp 0 +
STACK CFI INIT 162fc 50 .cfa: sp 0 +
STACK CFI 16300 .cfa: sp 32 +
STACK CFI 16308 .cfa: x29 32 + x19: .cfa -16 + ^ .ra: .cfa -24 + ^ x29: .cfa -32 + ^
STACK CFI 16320 .cfa: sp 32 +
STACK CFI 16328 .cfa: sp 0 +
STACK CFI 1632c .cfa: x29 32 +
STACK CFI 16340 .cfa: sp 32 +
STACK CFI 16348 .cfa: sp 0 +
STACK CFI INIT 1634c 64 .cfa: sp 0 +
STACK CFI 16350 .cfa: sp 32 +
STACK CFI 16358 .cfa: x29 32 + x19: .cfa -16 + ^ .ra: .cfa -24 + ^ x29: .cfa -32 + ^
STACK CFI 16384 .cfa: sp 32 +
STACK CFI 1638c .cfa: sp 0 +
STACK CFI 16390 .cfa: x29 32 +
STACK CFI 163a4 .cfa: sp 32 +
STACK CFI 163ac .cfa: sp 0 +
STACK CFI INIT 163b0 70 .cfa: sp 0 +
STACK CFI 163b4 .cfa: sp 48 +
STACK CFI 163c0 .cfa: x29 32 + x19: .cfa -16 + ^ .ra: .cfa -24 + ^ x29: .cfa -32 + ^
STACK CFI 163f8 .cfa: sp 48 +
STACK CFI 16404 .cfa: sp 0 +
STACK CFI 16408 .cfa: x29 32 +
STACK CFI INIT 16420 5c .cfa: sp 0 +
STACK CFI 16424 .cfa: sp 32 +
STACK CFI 1642c .cfa: x29 32 + x19: .cfa -16 + ^ .ra: .cfa -24 + ^ x29: .cfa -32 + ^
STACK CFI 16470 .cfa: sp 32 +
STACK CFI 16478 .cfa: sp 0 +
STACK CFI INIT 1647c 64 .cfa: sp 0 +
STACK CFI 16480 .cfa: sp 32 +
STACK CFI 16488 .cfa: x29 32 + x19: .cfa -16 + ^ .ra: .cfa -24 + ^ x29: .cfa -32 + ^
STACK CFI 164d4 .cfa: sp 32 +
STACK CFI 164dc .cfa: sp 0 +
STACK CFI INIT 164e0 4 .cfa: sp 0 +
STACK CFI INIT 164e4 34 .cfa: sp 0 +
STACK CFI 164e8 .cfa: sp 16 +
STACK CFI 164ec .cfa: x29 16 + .ra: .cfa -8 + ^ x29: .cfa -16 + ^
STACK CFI INIT 16518 24 .cfa: sp 0 +
STACK CFI 1651c .cfa: sp 32 +
STACK CFI 16524 .cfa: x29 32 + x19: .cfa -16 + ^ .ra: .cfa -24 + ^ x29: .cfa -32 + ^
STACK CFI 16530 .cfa: sp 32 +
STACK CFI 16538 .cfa: sp 0 +
STACK CFI INIT 1653c 4 .cfa: sp 0 +
STACK CFI INIT 16540 4 .cfa: sp 0 +
STACK CFI INIT 16544 24 .cfa: sp 0 +
STACK CFI 16548 .cfa: sp 16 +
STACK CFI 1654c .cfa: x29 16 + .ra: .cfa -8 + ^ x29: .cfa -16 + ^
STACK CFI 16560 .cfa: sp 16 +
STACK CFI 16564 .cfa: sp 0 +
STACK CFI INIT 16568 10 .cfa: sp 0 +
STACK CFI INIT 16578 4 .cfa: sp 0 +
STACK CFI INIT 1657c 4 .cfa: sp 0 +
STACK CFI INIT 167cc 1c .cfa: sp 0 +
STACK CFI INIT 167e8 c .cfa: sp 0 +
STACK CFI INIT 167f4 50 .cfa: sp 0 +
STACK CFI 167f8 .cfa: sp 32 +
STACK CFI 16800 .cfa: x29 32 + x19: .cfa -16 + ^ .ra: .cfa -24 + ^ x29: .cfa -32 + ^
STACK CFI 16818 .cfa: sp 32 +
STACK CFI 16820 .cfa: sp 0 +
STACK CFI 16824 .cfa: x29 32 +
STACK CFI 16838 .cfa: sp 32 +
STACK CFI 16840 .cfa: sp 0 +
STACK CFI INIT 16a60 4 .cfa: sp 0 +
STACK CFI INIT 16c30 9c .cfa: sp 0 +
STACK CFI 16c34 .cfa: sp 32 +
STACK CFI 16c3c .cfa: x29 32 + x19: .cfa -8 + ^ x20: .cfa -16 + ^ .ra: .cfa -24 + ^ x29: .cfa -32 + ^
STACK CFI 16cc0 .cfa: sp 32 +
STACK CFI 16cc8 .cfa: sp 0 +
STACK CFI INIT 16ccc a4 .cfa: sp 0 +
STACK CFI 16cd0 .cfa: sp 32 +
STACK CFI 16cd8 .cfa: x29 32 + x19: .cfa -8 + ^ x20: .cfa -16 + ^ .ra: .cfa -24 + ^ x29: .cfa -32 + ^
STACK CFI 16d64 .cfa: sp 32 +
STACK CFI 16d6c .cfa: sp 0 +
STACK CFI INIT 16d70 50 .cfa: sp 0 +
STACK CFI 16d74 .cfa: sp 32 +
STACK CFI 16d7c .cfa: x29 32 + x19: .cfa -16 + ^ .ra: .cfa -24 + ^ x29: .cfa -32 + ^
STACK CFI 16d94 .cfa: sp 32 +
STACK CFI 16d9c .cfa: sp 0 +
STACK CFI 16da0 .cfa: x29 32 +
STACK CFI 16db4 .cfa: sp 32 +
STACK CFI 16dbc .cfa: sp 0 +
STACK CFI INIT 16dc0 50 .cfa: sp 0 +
STACK CFI 16dc4 .cfa: sp 32 +
STACK CFI 16dcc .cfa: x29 32 + x19: .cfa -16 + ^ .ra: .cfa -24 + ^ x29: .cfa -32 + ^
STACK CFI 16de4 .cfa: sp 32 +
STACK CFI 16dec .cfa: sp 0 +
STACK CFI 16df0 .cfa: x29 32 +
STACK CFI 16e04 .cfa: sp 32 +
STACK CFI 16e0c .cfa: sp 0 +
STACK CFI INIT 16e10 5c .cfa: sp 0 +
STACK CFI 16e14 .cfa: sp 32 +
STACK CFI 16e1c .cfa: x29 32 + x19: .cfa -16 + ^ .ra: .cfa -24 + ^ x29: .cfa -32 + ^
STACK CFI 16e40 .cfa: sp 32 +
STACK CFI 16e48 .cfa: sp 0 +
STACK CFI 16e4c .cfa: x29 32 +
STACK CFI 16e60 .cfa: sp 32 +
STACK CFI 16e68 .cfa: sp 0 +
STACK CFI INIT 16e6c 6c .cfa: sp 0 +
STACK CFI 16e70 .cfa: sp 32 +
STACK CFI 16e78 .cfa: x29 32 + x19: .cfa -8 + ^ x20: .cfa -16 + ^ .ra: .cfa -24 + ^ x29: .cfa -32 + ^
STACK CFI 16ea4 .cfa: sp 32 +
STACK CFI 16eac .cfa: sp 0 +
STACK CFI 16eb0 .cfa: x29 32 +
STACK CFI 16ecc .cfa: sp 32 +
STACK CFI 16ed4 .cfa: sp 0 +
STACK CFI INIT 16ed8 58 .cfa: sp 0 +
STACK CFI 16edc .cfa: sp 32 +
STACK CFI 16ee4 .cfa: x29 32 + x19: .cfa -8 + ^ x20: .cfa -16 + ^ .ra: .cfa -24 + ^ x29: .cfa -32 + ^
STACK CFI 16f24 .cfa: sp 32 +
STACK CFI 16f2c .cfa: sp 0 +
STACK CFI INIT 16f30 4c .cfa: sp 0 +
STACK CFI 16f34 .cfa: sp 32 +
STACK CFI 16f3c .cfa: x29 32 + x19: .cfa -8 + ^ x20: .cfa -16 + ^ .ra: .cfa -24 + ^ x29: .cfa -32 + ^
STACK CFI 16f70 .cfa: sp 32 +
STACK CFI 16f78 .cfa: sp 0 +
STACK CFI INIT 16f7c 50 .cfa: sp 0 +
STACK CFI 16f80 .cfa: sp 32 +
STACK CFI 16f88 .cfa: x29 32 + x19: .cfa -16 + ^ .ra: .cfa -24 + ^ x29: .cfa -32 + ^
STACK CFI 16fa0 .cfa: sp 32 +
STACK CFI 16fa8 .cfa: sp 0 +
STACK CFI 16fac .cfa: x29 32 +
STACK CFI 16fc0 .cfa: sp 32 +
STACK CFI 16fc8 .cfa: sp 0 +
STACK CFI INIT 16fcc 60 .cfa: sp 0 +
STACK CFI 16fd0 .cfa: sp 32 +
STACK CFI 16fd8 .cfa: x29 32 + x19: .cfa -8 + ^ x20: .cfa -16 + ^ .ra: .cfa -24 + ^ x29: .cfa -32 + ^
STACK CFI 16ff8 .cfa: sp 32 +
STACK CFI 17000 .cfa: sp 0 +
STACK CFI 17004 .cfa: x29 32 +
STACK CFI 17020 .cfa: sp 32 +
STACK CFI 17028 .cfa: sp 0 +
STACK CFI INIT 1702c 8 .cfa: sp 0 +
STACK CFI INIT 17034 1c .cfa: sp 0 +
STACK CFI INIT 17050 c .cfa: sp 0 +
STACK CFI INIT 1722c 60 .cfa: sp 0 +
STACK CFI 17230 .cfa: sp 32 +
STACK CFI 17238 .cfa: x29 32 + x19: .cfa -8 + ^ x20: .cfa -16 + ^ .ra: .cfa -24 + ^ x29: .cfa -32 + ^
STACK CFI 17258 .cfa: sp 32 +
STACK CFI 17260 .cfa: sp 0 +
STACK CFI 17264 .cfa: x29 32 +
STACK CFI 17280 .cfa: sp 32 +
STACK CFI 17288 .cfa: sp 0 +
STACK CFI INIT 1728c 70 .cfa: sp 0 +
STACK CFI 17290 .cfa: sp 32 +
STACK CFI 17298 .cfa: x29 32 + x19: .cfa -8 + ^ x20: .cfa -16 + ^ .ra: .cfa -24 + ^ x29: .cfa -32 + ^
STACK CFI 172c0 .cfa: sp 32 +
STACK CFI 172c8 .cfa: sp 0 +
STACK CFI 172cc .cfa: x29 32 +
STACK CFI 172f0 .cfa: sp 32 +
STACK CFI 172f8 .cfa: sp 0 +
STACK CFI INIT 172fc 5c .cfa: sp 0 +
STACK CFI 17300 .cfa: sp 32 +
STACK CFI 17308 .cfa: x29 32 + x19: .cfa -16 + ^ .ra: .cfa -24 + ^ x29: .cfa -32 + ^
STACK CFI 1732c .cfa: sp 32 +
STACK CFI 17334 .cfa: sp 0 +
STACK CFI 17338 .cfa: x29 32 +
STACK CFI 1734c .cfa: sp 32 +
STACK CFI 17354 .cfa: sp 0 +
STACK CFI INIT 17358 6c .cfa: sp 0 +
STACK CFI 1735c .cfa: sp 32 +
STACK CFI 17364 .cfa: x29 32 + x19: .cfa -8 + ^ x20: .cfa -16 + ^ .ra: .cfa -24 + ^ x29: .cfa -32 + ^
STACK CFI 17390 .cfa: sp 32 +
STACK CFI 17398 .cfa: sp 0 +
STACK CFI 1739c .cfa: x29 32 +
STACK CFI 173b8 .cfa: sp 32 +
STACK CFI 173c0 .cfa: sp 0 +
STACK CFI INIT 173c4 58 .cfa: sp 0 +
STACK CFI 173c8 .cfa: sp 32 +
STACK CFI 173d0 .cfa: x29 32 + x19: .cfa -8 + ^ x20: .cfa -16 + ^ .ra: .cfa -24 + ^ x29: .cfa -32 + ^
STACK CFI 17410 .cfa: sp 32 +
STACK CFI 17418 .cfa: sp 0 +
STACK CFI INIT 1741c 4c .cfa: sp 0 +
STACK CFI 17420 .cfa: sp 32 +
STACK CFI 17428 .cfa: x29 32 + x19: .cfa -8 + ^ x20: .cfa -16 + ^ .ra: .cfa -24 + ^ x29: .cfa -32 + ^
STACK CFI 1745c .cfa: sp 32 +
STACK CFI 17464 .cfa: sp 0 +
STACK CFI INIT 17468 50 .cfa: sp 0 +
STACK CFI 1746c .cfa: sp 32 +
STACK CFI 17474 .cfa: x29 32 + x19: .cfa -16 + ^ .ra: .cfa -24 + ^ x29: .cfa -32 + ^
STACK CFI 1748c .cfa: sp 32 +
STACK CFI 17494 .cfa: sp 0 +
STACK CFI 17498 .cfa: x29 32 +
STACK CFI 174ac .cfa: sp 32 +
STACK CFI 174b4 .cfa: sp 0 +
STACK CFI INIT 174b8 60 .cfa: sp 0 +
STACK CFI 174bc .cfa: sp 32 +
STACK CFI 174c4 .cfa: x29 32 + x19: .cfa -8 + ^ x20: .cfa -16 + ^ .ra: .cfa -24 + ^ x29: .cfa -32 + ^
STACK CFI 174e4 .cfa: sp 32 +
STACK CFI 174ec .cfa: sp 0 +
STACK CFI 174f0 .cfa: x29 32 +
STACK CFI 1750c .cfa: sp 32 +
STACK CFI 17514 .cfa: sp 0 +
STACK CFI INIT 17518 8 .cfa: sp 0 +
STACK CFI INIT 17520 1c .cfa: sp 0 +
STACK CFI INIT 1753c c .cfa: sp 0 +
STACK CFI INIT 1770c 104 .cfa: sp 0 +
STACK CFI 17710 .cfa: sp 64 +
STACK CFI 17720 .cfa: x29 64 + x19: .cfa -8 + ^ x20: .cfa -16 + ^ x21: .cfa -24 + ^ x22: .cfa -32 + ^ x23: .cfa -48 + ^ .ra: .cfa -56 + ^ x29: .cfa -64 + ^
STACK CFI 1777c .cfa: sp 64 +
STACK CFI 1778c .cfa: sp 0 +
STACK CFI 17790 .cfa: x29 64 +
STACK CFI 177ac .cfa: sp 64 +
STACK CFI 177bc .cfa: sp 0 +
STACK CFI 177c0 .cfa: x29 64 +
STACK CFI 177fc .cfa: sp 64 +
STACK CFI 1780c .cfa: sp 0 +
STACK CFI INIT 17810 1b0 .cfa: sp 0 +
STACK CFI INIT 17f94 3c .cfa: sp 0 +
STACK CFI 17f98 .cfa: sp 32 +
STACK CFI 17fa0 .cfa: x29 32 + x19: .cfa -16 + ^ .ra: .cfa -24 + ^ x29: .cfa -32 + ^
STACK CFI 17fc4 .cfa: sp 32 +
STACK CFI 17fcc .cfa: sp 0 +
STACK CFI INIT 17fd0 9c .cfa: sp 0 +
STACK CFI 17fd4 .cfa: sp 48 +
STACK CFI 17fe0 .cfa: x29 48 + x19: .cfa -8 + ^ x20: .cfa -16 + ^ x21: .cfa -24 + ^ x22: .cfa -32 + ^ .ra: .cfa -40 + ^ x29: .cfa -48 + ^
STACK CFI 18014 .cfa: sp 48 +
STACK CFI 18020 .cfa: sp 0 +
STACK CFI 18024 .cfa: x29 48 +
STACK CFI 18054 .cfa: sp 48 +
STACK CFI 18060 .cfa: sp 0 +
STACK CFI 18064 .cfa: x29 48 +
STACK CFI INIT 1806c 84 .cfa: sp 0 +
STACK CFI 18070 .cfa: sp 64 +
STACK CFI 18080 .cfa: x29 32 + x19: .cfa -8 + ^ x20: .cfa -16 + ^ .ra: .cfa -24 + ^ x29: .cfa -32 + ^ v8: .cfa -48 + ^
STACK CFI 180d8 .cfa: sp 64 +
STACK CFI 180e8 .cfa: sp 0 +
STACK CFI 180ec .cfa: x29 32 +
STACK CFI INIT 180f0 38 .cfa: sp 0 +
STACK CFI 180f4 .cfa: sp 32 +
STACK CFI 180fc .cfa: x29 32 + x19: .cfa -16 + ^ .ra: .cfa -24 + ^ x29: .cfa -32 + ^
STACK CFI 1811c .cfa: sp 32 +
STACK CFI 18124 .cfa: sp 0 +
STACK CFI INIT 18408 8 .cfa: sp 0 +
STACK CFI INIT 18410 7c .cfa: sp 0 +
STACK CFI 18414 .cfa: sp 32 +
STACK CFI 1841c .cfa: x29 32 + x19: .cfa -16 + ^ .ra: .cfa -24 + ^ x29: .cfa -32 + ^
STACK CFI 18440 .cfa: sp 32 +
STACK CFI 18448 .cfa: sp 0 +
STACK CFI 1844c .cfa: x29 32 +
STACK CFI 18480 .cfa: sp 32 +
STACK CFI 18488 .cfa: sp 0 +
STACK CFI INIT 1848c bc .cfa: sp 0 +
STACK CFI 18490 .cfa: sp 48 +
STACK CFI 1849c .cfa: x29 48 + x19: .cfa -8 + ^ x20: .cfa -16 + ^ x21: .cfa -32 + ^ .ra: .cfa -40 + ^ x29: .cfa -48 + ^
STACK CFI 18528 .cfa: sp 48 +
STACK CFI 18534 .cfa: sp 0 +
STACK CFI 18538 .cfa: sp 48 +
STACK CFI 18544 .cfa: sp 0 +
STACK CFI INIT 188f4 7c .cfa: sp 0 +
STACK CFI 188f8 .cfa: sp 48 +
STACK CFI 18904 .cfa: x29 48 + x19: .cfa -8 + ^ x20: .cfa -16 + ^ x21: .cfa -32 + ^ .ra: .cfa -40 + ^ x29: .cfa -48 + ^
STACK CFI 18960 .cfa: sp 48 +
STACK CFI 1896c .cfa: sp 0 +
STACK CFI INIT 18970 e8 .cfa: sp 0 +
STACK CFI 18974 .cfa: sp 32 +
STACK CFI 1897c .cfa: x29 32 + x19: .cfa -8 + ^ x20: .cfa -16 + ^ .ra: .cfa -24 + ^ x29: .cfa -32 + ^
STACK CFI 18a4c .cfa: sp 32 +
STACK CFI 18a54 .cfa: sp 0 +
STACK CFI INIT 18a58 f0 .cfa: sp 0 +
STACK CFI 18a5c .cfa: sp 32 +
STACK CFI 18a64 .cfa: x29 32 + x19: .cfa -8 + ^ x20: .cfa -16 + ^ .ra: .cfa -24 + ^ x29: .cfa -32 + ^
STACK CFI 18b3c .cfa: sp 32 +
STACK CFI 18b44 .cfa: sp 0 +
STACK CFI INIT 18b48 4 .cfa: sp 0 +
STACK CFI INIT 18b4c 8 .cfa: sp 0 +
STACK CFI INIT 18b54 4 .cfa: sp 0 +
STACK CFI INIT 18b58 4 .cfa: sp 0 +
STACK CFI INIT 18b5c f0 .cfa: sp 0 +
STACK CFI 18b60 .cfa: sp 48 +
STACK CFI 18b6c .cfa: x29 48 + x19: .cfa -8 + ^ x20: .cfa -16 + ^ x21: .cfa -32 + ^ .ra: .cfa -40 + ^ x29: .cfa -48 + ^
STACK CFI 18c3c .cfa: sp 48 +
STACK CFI 18c48 .cfa: sp 0 +
STACK CFI INIT 18c4c f8 .cfa: sp 0 +
STACK CFI 18c50 .cfa: sp 48 +
STACK CFI 18c5c .cfa: x29 48 + x19: .cfa -8 + ^ x20: .cfa -16 + ^ x21: .cfa -32 + ^ .ra: .cfa -40 + ^ x29: .cfa -48 + ^
STACK CFI 18d34 .cfa: sp 48 +
STACK CFI 18d40 .cfa: sp 0 +
STACK CFI INIT 18d44 4 .cfa: sp 0 +
STACK CFI INIT 18d48 4 .cfa: sp 0 +
STACK CFI INIT 18d4c 4 .cfa: sp 0 +
STACK CFI INIT 18d50 4 .cfa: sp 0 +
STACK CFI INIT 18d54 4 .cfa: sp 0 +
STACK CFI INIT 18d58 8 .cfa: sp 0 +
STACK CFI INIT 18d60 114 .cfa: sp 0 +
STACK CFI 18d64 .cfa: sp 48 +
STACK CFI 18d70 .cfa: x29 48 + x19: .cfa -8 + ^ x20: .cfa -16 + ^ x21: .cfa -24 + ^ x22: .cfa -32 + ^ .ra: .cfa -40 + ^ x29: .cfa -48 + ^
STACK CFI 18e64 .cfa: sp 48 +
STACK CFI 18e70 .cfa: sp 0 +
STACK CFI INIT 18e74 11c .cfa: sp 0 +
STACK CFI 18e78 .cfa: sp 48 +
STACK CFI 18e84 .cfa: x29 48 + x19: .cfa -8 + ^ x20: .cfa -16 + ^ x21: .cfa -24 + ^ x22: .cfa -32 + ^ .ra: .cfa -40 + ^ x29: .cfa -48 + ^
STACK CFI 18f80 .cfa: sp 48 +
STACK CFI 18f8c .cfa: sp 0 +
STACK CFI INIT 18f90 4 .cfa: sp 0 +
STACK CFI INIT 18f94 4 .cfa: sp 0 +
STACK CFI INIT 18f98 ac .cfa: sp 0 +
STACK CFI 18f9c .cfa: sp 64 +
STACK CFI 18fac .cfa: x29 64 + x19: .cfa -8 + ^ x20: .cfa -16 + ^ x21: .cfa -24 + ^ x22: .cfa -32 + ^ x23: .cfa -48 + ^ .ra: .cfa -56 + ^ x29: .cfa -64 + ^
STACK CFI 19028 .cfa: sp 64 +
STACK CFI 19038 .cfa: sp 0 +
STACK CFI 1903c .cfa: x29 64 +
STACK CFI INIT 19044 110 .cfa: sp 0 +
STACK CFI 19048 .cfa: sp 64 +
STACK CFI 19058 .cfa: x29 64 + x19: .cfa -8 + ^ x20: .cfa -16 + ^ x21: .cfa -24 + ^ x22: .cfa -32 + ^ x23: .cfa -40 + ^ x24: .cfa -48 + ^ .ra: .cfa -56 + ^ x29: .cfa -64 + ^
STACK CFI 19138 .cfa: sp 64 +
STACK CFI 19148 .cfa: sp 0 +
STACK CFI 1914c .cfa: x29 64 +
STACK CFI INIT 19154 128 .cfa: sp 0 +
STACK CFI 19158 .cfa: sp 80 +
STACK CFI 1916c .cfa: x29 80 + x19: .cfa -8 + ^ x20: .cfa -16 + ^ x21: .cfa -24 + ^ x22: .cfa -32 + ^ x23: .cfa -40 + ^ x24: .cfa -48 + ^ x25: .cfa -64 + ^ .ra: .cfa -72 + ^ x29: .cfa -80 + ^
STACK CFI 1925c .cfa: sp 80 +
STACK CFI 19270 .cfa: sp 0 +
STACK CFI 19274 .cfa: x29 80 +
STACK CFI INIT 1927c 34 .cfa: sp 0 +
STACK CFI 19280 .cfa: sp 32 +
STACK CFI 19288 .cfa: x29 32 + x19: .cfa -8 + ^ x20: .cfa -16 + ^ .ra: .cfa -24 + ^ x29: .cfa -32 + ^
STACK CFI 192a4 .cfa: sp 32 +
STACK CFI 192ac .cfa: sp 0 +
STACK CFI INIT 19408 b8 .cfa: sp 0 +
STACK CFI 1940c .cfa: sp 48 +
STACK CFI 19418 .cfa: x29 48 + x19: .cfa -8 + ^ x20: .cfa -16 + ^ x21: .cfa -24 + ^ x22: .cfa -32 + ^ .ra: .cfa -40 + ^ x29: .cfa -48 + ^
STACK CFI 194a0 .cfa: sp 48 +
STACK CFI 194ac .cfa: sp 0 +
STACK CFI 194b0 .cfa: sp 48 +
STACK CFI 194bc .cfa: sp 0 +
STACK CFI INIT 194c0 14 .cfa: sp 0 +
STACK CFI 194c4 .cfa: sp 16 +
STACK CFI 194c8 .cfa: x29 16 + .ra: .cfa -8 + ^ x29: .cfa -16 + ^
STACK CFI INIT 194d4 dc .cfa: sp 0 +
STACK CFI 194d8 .cfa: sp 48 +
STACK CFI 194e4 .cfa: x29 48 + x19: .cfa -8 + ^ x20: .cfa -16 + ^ x21: .cfa -24 + ^ x22: .cfa -32 + ^ .ra: .cfa -40 + ^ x29: .cfa -48 + ^
STACK CFI 19508 .cfa: sp 48 +
STACK CFI 19514 .cfa: sp 0 +
STACK CFI 19518 .cfa: x29 48 +
STACK CFI 19590 .cfa: sp 48 +
STACK CFI 1959c .cfa: sp 0 +
STACK CFI 195a0 .cfa: sp 48 +
STACK CFI 195ac .cfa: sp 0 +
STACK CFI INIT 195b0 c .cfa: sp 0 +
STACK CFI 195b4 .cfa: sp 16 +
STACK CFI 195b8 .cfa: x29 16 + .ra: .cfa -8 + ^ x29: .cfa -16 + ^
STACK CFI INIT 195bc 88 .cfa: sp 0 +
STACK CFI 195c4 .cfa: sp 48 +
STACK CFI 195d0 .cfa: x29 48 + x19: .cfa -8 + ^ x20: .cfa -16 + ^ x21: .cfa -24 + ^ x22: .cfa -32 + ^ .ra: .cfa -40 + ^ x29: .cfa -48 + ^
STACK CFI 19634 .cfa: sp 48 +
STACK CFI 19640 .cfa: sp 0 +
STACK CFI INIT 19694 30 .cfa: sp 0 +
STACK CFI 19698 .cfa: sp 32 +
STACK CFI 196a0 .cfa: x29 32 + x19: .cfa -16 + ^ .ra: .cfa -24 + ^ x29: .cfa -32 + ^
STACK CFI 196b8 .cfa: sp 32 +
STACK CFI 196c0 .cfa: sp 0 +
STACK CFI INIT 196c4 4 .cfa: sp 0 +
STACK CFI INIT 196c8 4 .cfa: sp 0 +
STACK CFI INIT 196cc 34 .cfa: sp 0 +
STACK CFI 196d0 .cfa: sp 32 +
STACK CFI 196d8 .cfa: x29 32 + x19: .cfa -16 + ^ .ra: .cfa -24 + ^ x29: .cfa -32 + ^
STACK CFI 196f4 .cfa: sp 32 +
STACK CFI 196fc .cfa: sp 0 +
STACK CFI INIT 19700 14 .cfa: sp 0 +
STACK CFI INIT 19714 4 .cfa: sp 0 +
STACK CFI INIT 19718 4 .cfa: sp 0 +
STACK CFI INIT 1c078 1c .cfa: sp 0 +
STACK CFI INIT 1c094 c .cfa: sp 0 +
STACK CFI INIT 1c0a0 14 .cfa: sp 0 +
STACK CFI INIT 1c0b4 14 .cfa: sp 0 +
STACK CFI INIT 1c208 a0 .cfa: sp 0 +
STACK CFI 1c218 .cfa: sp 32 +
STACK CFI 1c220 .cfa: x29 32 + x19: .cfa -8 + ^ x20: .cfa -16 + ^ .ra: .cfa -24 + ^ x29: .cfa -32 + ^
STACK CFI 1c29c .cfa: sp 32 +
STACK CFI 1c2a4 .cfa: sp 0 +
STACK CFI INIT 1c2a8 58 .cfa: sp 0 +
STACK CFI 1c2ac .cfa: sp 48 +
STACK CFI 1c2b8 .cfa: x29 32 + x19: .cfa -16 + ^ .ra: .cfa -24 + ^ x29: .cfa -32 + ^
STACK CFI 1c2ec .cfa: sp 48 +
STACK CFI 1c2f8 .cfa: sp 0 +
STACK CFI 1c2fc .cfa: x29 32 +
STACK CFI INIT 1c300 64 .cfa: sp 0 +
STACK CFI 1c304 .cfa: sp 48 +
STACK CFI 1c310 .cfa: x29 32 + x19: .cfa -8 + ^ x20: .cfa -16 + ^ .ra: .cfa -24 + ^ x29: .cfa -32 + ^
STACK CFI 1c350 .cfa: sp 48 +
STACK CFI 1c35c .cfa: sp 0 +
STACK CFI 1c360 .cfa: x29 32 +
STACK CFI INIT 1c3d8 3c .cfa: sp 0 +
STACK CFI INIT 1c414 50 .cfa: sp 0 +
STACK CFI 1c418 .cfa: sp 48 +
STACK CFI 1c424 .cfa: x29 32 + x19: .cfa -16 + ^ .ra: .cfa -24 + ^ x29: .cfa -32 + ^
STACK CFI 1c450 .cfa: sp 48 +
STACK CFI 1c45c .cfa: sp 0 +
STACK CFI 1c460 .cfa: x29 32 +
STACK CFI INIT 1c464 58 .cfa: sp 0 +
STACK CFI 1c468 .cfa: sp 48 +
STACK CFI 1c474 .cfa: x29 32 + x19: .cfa -8 + ^ x20: .cfa -16 + ^ .ra: .cfa -24 + ^ x29: .cfa -32 + ^
STACK CFI 1c4a8 .cfa: sp 48 +
STACK CFI 1c4b4 .cfa: sp 0 +
STACK CFI 1c4b8 .cfa: x29 32 +
STACK CFI INIT 1db30 1c .cfa: sp 0 +
STACK CFI INIT 1db4c c .cfa: sp 0 +
STACK CFI INIT 1db58 38 .cfa: sp 0 +
STACK CFI 1db5c .cfa: sp 32 +
STACK CFI 1db64 .cfa: x29 32 + x19: .cfa -16 + ^ .ra: .cfa -24 + ^ x29: .cfa -32 + ^
STACK CFI 1db78 .cfa: sp 32 +
STACK CFI 1db80 .cfa: sp 0 +
STACK CFI 1db84 .cfa: sp 32 +
STACK CFI 1db8c .cfa: sp 0 +
STACK CFI INIT 1db90 38 .cfa: sp 0 +
STACK CFI 1db94 .cfa: sp 32 +
STACK CFI 1db9c .cfa: x29 32 + x19: .cfa -16 + ^ .ra: .cfa -24 + ^ x29: .cfa -32 + ^
STACK CFI 1dbb0 .cfa: sp 32 +
STACK CFI 1dbb8 .cfa: sp 0 +
STACK CFI 1dbbc .cfa: sp 32 +
STACK CFI 1dbc4 .cfa: sp 0 +
STACK CFI INIT 1eb60 10 .cfa: sp 0 +
STACK CFI INIT 1efb4 b8 .cfa: sp 0 +
STACK CFI 1efb8 .cfa: sp 48 +
STACK CFI 1efc4 .cfa: x29 48 + x19: .cfa -8 + ^ x20: .cfa -16 + ^ x21: .cfa -32 + ^ .ra: .cfa -40 + ^ x29: .cfa -48 + ^
STACK CFI 1f05c .cfa: sp 48 +
STACK CFI 1f068 .cfa: sp 0 +
STACK CFI INIT 1f06c 1cc .cfa: sp 0 +
STACK CFI INIT 1f238 334 .cfa: sp 0 +
STACK CFI 1f23c .cfa: sp 64 +
STACK CFI 1f248 .cfa: x29 32 + x19: .cfa -16 + ^ .ra: .cfa -24 + ^ x29: .cfa -32 + ^
STACK CFI 1f42c .cfa: sp 64 +
STACK CFI 1f438 .cfa: sp 0 +
STACK CFI 1f43c .cfa: x29 32 +
STACK CFI INIT 1f56c b8 .cfa: sp 0 +
STACK CFI 1f570 .cfa: sp 48 +
STACK CFI 1f57c .cfa: x29 48 + x19: .cfa -8 + ^ x20: .cfa -16 + ^ x21: .cfa -32 + ^ .ra: .cfa -40 + ^ x29: .cfa -48 + ^
STACK CFI 1f614 .cfa: sp 48 +
STACK CFI 1f620 .cfa: sp 0 +
STACK CFI INIT 1f624 64 .cfa: sp 0 +
STACK CFI 1f628 .cfa: sp 32 +
STACK CFI 1f630 .cfa: x29 32 + x19: .cfa -8 + ^ x20: .cfa -16 + ^ .ra: .cfa -24 + ^ x29: .cfa -32 + ^
STACK CFI 1f67c .cfa: sp 32 +
STACK CFI 1f684 .cfa: sp 0 +
STACK CFI INIT 1f688 50 .cfa: sp 0 +
STACK CFI 1f6ac .cfa: sp 32 +
STACK CFI 1f6b4 .cfa: x29 32 + x19: .cfa -16 + ^ .ra: .cfa -24 + ^ x29: .cfa -32 + ^
STACK CFI 1f6c8 .cfa: sp 32 +
STACK CFI 1f6d0 .cfa: sp 0 +
STACK CFI INIT 1f6d8 48 .cfa: sp 0 +
STACK CFI 1f6e0 .cfa: sp 32 +
STACK CFI 1f6e8 .cfa: x29 32 + x19: .cfa -16 + ^ .ra: .cfa -24 + ^ x29: .cfa -32 + ^
STACK CFI 1f710 .cfa: sp 32 +
STACK CFI 1f718 .cfa: sp 0 +
STACK CFI INIT 1f720 3c .cfa: sp 0 +
STACK CFI 1f724 .cfa: sp 32 +
STACK CFI 1f72c .cfa: x29 32 + x19: .cfa -16 + ^ .ra: .cfa -24 + ^ x29: .cfa -32 + ^
STACK CFI 1f738 .cfa: sp 32 +
STACK CFI 1f740 .cfa: sp 0 +
STACK CFI 1f744 .cfa: x29 32 +
STACK CFI 1f750 .cfa: sp 32 +
STACK CFI 1f758 .cfa: sp 0 +
STACK CFI INIT 1f75c 4c .cfa: sp 0 +
STACK CFI 1f760 .cfa: sp 32 +
STACK CFI 1f768 .cfa: x29 32 + x19: .cfa -8 + ^ x20: .cfa -16 + ^ .ra: .cfa -24 + ^ x29: .cfa -32 + ^
STACK CFI 1f790 .cfa: sp 32 +
STACK CFI 1f798 .cfa: sp 0 +
STACK CFI 1f79c .cfa: sp 32 +
STACK CFI 1f7a4 .cfa: sp 0 +
STACK CFI INIT 1f9c8 64 .cfa: sp 0 +
STACK CFI 1f9cc .cfa: sp 32 +
STACK CFI 1f9d4 .cfa: x29 32 + x19: .cfa -16 + ^ .ra: .cfa -24 + ^ x29: .cfa -32 + ^
STACK CFI 1fa00 .cfa: sp 32 +
STACK CFI 1fa08 .cfa: sp 0 +
STACK CFI 1fa0c .cfa: x29 32 +
STACK CFI 1fa20 .cfa: sp 32 +
STACK CFI 1fa28 .cfa: sp 0 +
STACK CFI INIT 1fc50 24 .cfa: sp 0 +
STACK CFI 1fc54 .cfa: sp 32 +
STACK CFI 1fc5c .cfa: x29 32 + x19: .cfa -16 + ^ .ra: .cfa -24 + ^ x29: .cfa -32 + ^
STACK CFI 1fc68 .cfa: sp 32 +
STACK CFI 1fc70 .cfa: sp 0 +
STACK CFI INIT 1fc74 24 .cfa: sp 0 +
STACK CFI 1fc78 .cfa: sp 32 +
STACK CFI 1fc80 .cfa: x29 32 + x19: .cfa -16 + ^ .ra: .cfa -24 + ^ x29: .cfa -32 + ^
STACK CFI 1fc8c .cfa: sp 32 +
STACK CFI 1fc94 .cfa: sp 0 +
STACK CFI INIT 1fc98 8 .cfa: sp 0 +
STACK CFI INIT 1fca0 24 .cfa: sp 0 +
STACK CFI 1fca4 .cfa: sp 32 +
STACK CFI 1fcac .cfa: x29 32 + x19: .cfa -16 + ^ .ra: .cfa -24 + ^ x29: .cfa -32 + ^
STACK CFI 1fcb8 .cfa: sp 32 +
STACK CFI 1fcc0 .cfa: sp 0 +
STACK CFI INIT 1fcc4 28 .cfa: sp 0 +
STACK CFI 1fcc8 .cfa: sp 32 +
STACK CFI 1fcd0 .cfa: x29 32 + x19: .cfa -16 + ^ .ra: .cfa -24 + ^ x29: .cfa -32 + ^
STACK CFI 1fce0 .cfa: sp 32 +
STACK CFI 1fce8 .cfa: sp 0 +
STACK CFI INIT 1ffec 8 .cfa: sp 0 +
STACK CFI INIT 1fff4 24 .cfa: sp 0 +
STACK CFI 1fff8 .cfa: sp 32 +
STACK CFI 20000 .cfa: x29 32 + x19: .cfa -16 + ^ .ra: .cfa -24 + ^ x29: .cfa -32 + ^
STACK CFI 2000c .cfa: sp 32 +
STACK CFI 20014 .cfa: sp 0 +
STACK CFI INIT 20018 28 .cfa: sp 0 +
STACK CFI 2001c .cfa: sp 32 +
STACK CFI 20024 .cfa: x29 32 + x19: .cfa -16 + ^ .ra: .cfa -24 + ^ x29: .cfa -32 + ^
STACK CFI 20034 .cfa: sp 32 +
STACK CFI 2003c .cfa: sp 0 +
STACK CFI INIT 202a4 8 .cfa: sp 0 +
STACK CFI INIT 202ac 24 .cfa: sp 0 +
STACK CFI 202b0 .cfa: sp 32 +
STACK CFI 202b8 .cfa: x29 32 + x19: .cfa -16 + ^ .ra: .cfa -24 + ^ x29: .cfa -32 + ^
STACK CFI 202c4 .cfa: sp 32 +
STACK CFI 202cc .cfa: sp 0 +
STACK CFI INIT 202d0 28 .cfa: sp 0 +
STACK CFI 202d4 .cfa: sp 32 +
STACK CFI 202dc .cfa: x29 32 + x19: .cfa -16 + ^ .ra: .cfa -24 + ^ x29: .cfa -32 + ^
STACK CFI 202ec .cfa: sp 32 +
STACK CFI 202f4 .cfa: sp 0 +
STACK CFI INIT 202f8 8 .cfa: sp 0 +
STACK CFI INIT 20300 24 .cfa: sp 0 +
STACK CFI 20304 .cfa: sp 32 +
STACK CFI 2030c .cfa: x29 32 + x19: .cfa -16 + ^ .ra: .cfa -24 + ^ x29: .cfa -32 + ^
STACK CFI 20318 .cfa: sp 32 +
STACK CFI 20320 .cfa: sp 0 +
STACK CFI INIT 20324 28 .cfa: sp 0 +
STACK CFI 20328 .cfa: sp 32 +
STACK CFI 20330 .cfa: x29 32 + x19: .cfa -16 + ^ .ra: .cfa -24 + ^ x29: .cfa -32 + ^
STACK CFI 20340 .cfa: sp 32 +
STACK CFI 20348 .cfa: sp 0 +
STACK CFI INIT 21654 4 .cfa: sp 0 +
STACK CFI INIT 21658 14 .cfa: sp 0 +
STACK CFI INIT 13f80 bd4 .cfa: sp 0 +
STACK CFI 13f84 .cfa: sp 240 +
STACK CFI 13fa0 .cfa: x29 96 + x19: .cfa -8 + ^ x20: .cfa -16 + ^ x21: .cfa -24 + ^ x22: .cfa -32 + ^ x23: .cfa -40 + ^ x24: .cfa -48 + ^ x25: .cfa -56 + ^ x26: .cfa -64 + ^ x27: .cfa -72 + ^ x28: .cfa -80 + ^ .ra: .cfa -88 + ^ x29: .cfa -96 + ^
STACK CFI 1437c .cfa: sp 240 +
STACK CFI 14398 .cfa: sp 0 +
STACK CFI 1439c .cfa: x29 96 +
STACK CFI 149fc .cfa: sp 240 +
STACK CFI 14a18 .cfa: sp 0 +
STACK CFI 14a1c .cfa: x29 96 +
STACK CFI INIT 14b6c 408 .cfa: sp 0 +
STACK CFI 14b70 .cfa: sp 208 +
STACK CFI 14b8c .cfa: x29 96 + x19: .cfa -8 + ^ x20: .cfa -16 + ^ x21: .cfa -24 + ^ x22: .cfa -32 + ^ x23: .cfa -40 + ^ x24: .cfa -48 + ^ x25: .cfa -56 + ^ x26: .cfa -64 + ^ x27: .cfa -80 + ^ .ra: .cfa -88 + ^ x29: .cfa -96 + ^
STACK CFI 14e60 .cfa: sp 208 +
STACK CFI 14e7c .cfa: sp 0 +
STACK CFI 14e80 .cfa: x29 96 +
STACK CFI INIT 14fc4 74 .cfa: sp 0 +
STACK CFI 14fc8 .cfa: sp 48 +
STACK CFI 14fd4 .cfa: x29 32 + x19: .cfa -8 + ^ x20: .cfa -16 + ^ .ra: .cfa -24 + ^ x29: .cfa -32 + ^
STACK CFI 15020 .cfa: sp 48 +
STACK CFI 1502c .cfa: sp 0 +
STACK CFI 15030 .cfa: x29 32 +
STACK CFI INIT 150c8 154 .cfa: sp 0 +
STACK CFI 150cc .cfa: sp 384 +
STACK CFI 150e0 .cfa: x29 64 + x19: .cfa -8 + ^ x20: .cfa -16 + ^ x21: .cfa -24 + ^ x22: .cfa -32 + ^ x23: .cfa -40 + ^ x28: .cfa -48 + ^ .ra: .cfa -56 + ^ x29: .cfa -64 + ^
STACK CFI 151c4 .cfa: sp 384 +
STACK CFI 151d8 .cfa: sp 0 +
STACK CFI 151dc .cfa: x29 64 +
STACK CFI INIT 15250 12c .cfa: sp 0 +
STACK CFI 15254 .cfa: sp 80 +
STACK CFI 15268 .cfa: x29 80 + x19: .cfa -8 + ^ x20: .cfa -16 + ^ x21: .cfa -24 + ^ x22: .cfa -32 + ^ x23: .cfa -40 + ^ x24: .cfa -48 + ^ x25: .cfa -56 + ^ x26: .cfa -64 + ^ .ra: .cfa -72 + ^ x29: .cfa -80 + ^
STACK CFI 15330 .cfa: sp 80 +
STACK CFI 15344 .cfa: sp 0 +
STACK CFI 15348 .cfa: x29 80 +
STACK CFI INIT 15420 1a4 .cfa: sp 0 +
STACK CFI 15424 .cfa: sp 112 +
STACK CFI 1543c .cfa: x29 80 + x19: .cfa -8 + ^ x20: .cfa -16 + ^ x21: .cfa -24 + ^ x22: .cfa -32 + ^ x23: .cfa -40 + ^ x24: .cfa -48 + ^ x25: .cfa -56 + ^ x26: .cfa -64 + ^ .ra: .cfa -72 + ^ x29: .cfa -80 + ^
STACK CFI 1552c .cfa: sp 112 +
STACK CFI 15544 .cfa: sp 0 +
STACK CFI 15548 .cfa: x29 80 +
STACK CFI INIT 155c4 1dc .cfa: sp 0 +
STACK CFI 155c8 .cfa: sp 128 +
STACK CFI 155e4 .cfa: x29 96 + x19: .cfa -8 + ^ x20: .cfa -16 + ^ x21: .cfa -24 + ^ x22: .cfa -32 + ^ x23: .cfa -40 + ^ x24: .cfa -48 + ^ x25: .cfa -56 + ^ x26: .cfa -64 + ^ x27: .cfa -80 + ^ .ra: .cfa -88 + ^ x29: .cfa -96 + ^
STACK CFI 15750 .cfa: sp 128 +
STACK CFI 1576c .cfa: sp 0 +
STACK CFI 15770 .cfa: x29 96 +
STACK CFI INIT 157b4 50 .cfa: sp 0 +
STACK CFI 157b8 .cfa: sp 32 +
STACK CFI 157c0 .cfa: x29 32 + x19: .cfa -8 + ^ x20: .cfa -16 + ^ .ra: .cfa -24 + ^ x29: .cfa -32 + ^
STACK CFI INIT 15868 178 .cfa: sp 0 +
STACK CFI 1586c .cfa: sp 80 +
STACK CFI 15880 .cfa: x29 80 + x19: .cfa -8 + ^ x20: .cfa -16 + ^ x21: .cfa -24 + ^ x22: .cfa -32 + ^ x23: .cfa -40 + ^ x24: .cfa -48 + ^ x25: .cfa -64 + ^ .ra: .cfa -72 + ^ x29: .cfa -80 + ^
STACK CFI 159ac .cfa: sp 80 +
STACK CFI 159c0 .cfa: sp 0 +
STACK CFI 159c4 .cfa: x29 80 +
STACK CFI INIT 15cc0 4f0 .cfa: sp 0 +
STACK CFI 15cc4 .cfa: sp 288 +
STACK CFI 15cdc .cfa: x29 80 + x19: .cfa -8 + ^ x20: .cfa -16 + ^ x21: .cfa -24 + ^ x22: .cfa -32 + ^ x23: .cfa -40 + ^ x24: .cfa -48 + ^ x25: .cfa -56 + ^ x28: .cfa -64 + ^ .ra: .cfa -72 + ^ x29: .cfa -80 + ^
STACK CFI 16080 .cfa: sp 288 +
STACK CFI 16098 .cfa: sp 0 +
STACK CFI 1609c .cfa: x29 80 +
STACK CFI INIT 161b0 a8 .cfa: sp 0 +
STACK CFI 161b4 .cfa: sp 32 +
STACK CFI 161bc .cfa: x29 32 + x19: .cfa -16 + ^ .ra: .cfa -24 + ^ x29: .cfa -32 + ^
STACK CFI 161f0 .cfa: sp 32 +
STACK CFI 161f8 .cfa: sp 0 +
STACK CFI 161fc .cfa: x29 32 +
STACK CFI 16200 .cfa: sp 32 +
STACK CFI 16208 .cfa: sp 0 +
STACK CFI 1620c .cfa: x29 32 +
STACK CFI INIT 16580 24c .cfa: sp 0 +
STACK CFI 16584 .cfa: sp 80 +
STACK CFI 16594 .cfa: x29 48 + x19: .cfa -8 + ^ x20: .cfa -16 + ^ x21: .cfa -24 + ^ x22: .cfa -32 + ^ .ra: .cfa -40 + ^ x29: .cfa -48 + ^
STACK CFI 166c8 .cfa: sp 80 +
STACK CFI 166d8 .cfa: sp 0 +
STACK CFI 166dc .cfa: x29 48 +
STACK CFI 16734 .cfa: sp 80 +
STACK CFI 16744 .cfa: sp 0 +
STACK CFI 16748 .cfa: x29 48 +
STACK CFI INIT 16844 21c .cfa: sp 0 +
STACK CFI 16848 .cfa: sp 192 +
STACK CFI 1685c .cfa: x29 64 + x19: .cfa -8 + ^ x20: .cfa -16 + ^ x21: .cfa -24 + ^ x22: .cfa -32 + ^ x23: .cfa -48 + ^ .ra: .cfa -56 + ^ x29: .cfa -64 + ^
STACK CFI 1699c .cfa: sp 192 +
STACK CFI 169b0 .cfa: sp 0 +
STACK CFI 169b4 .cfa: x29 64 +
STACK CFI INIT 16a64 1cc .cfa: sp 0 +
STACK CFI 16a68 .cfa: sp 128 +
STACK CFI 16a78 .cfa: x29 48 + x19: .cfa -8 + ^ x20: .cfa -16 + ^ x21: .cfa -32 + ^ .ra: .cfa -40 + ^ x29: .cfa -48 + ^
STACK CFI 16bb4 .cfa: sp 128 +
STACK CFI 16bc4 .cfa: sp 0 +
STACK CFI 16bc8 .cfa: x29 48 +
STACK CFI INIT 1705c 1d0 .cfa: sp 0 +
STACK CFI 17060 .cfa: sp 128 +
STACK CFI 17074 .cfa: x29 64 + x19: .cfa -8 + ^ x20: .cfa -16 + ^ x21: .cfa -24 + ^ x22: .cfa -32 + ^ x23: .cfa -48 + ^ .ra: .cfa -56 + ^ x29: .cfa -64 + ^
STACK CFI 171ec .cfa: sp 128 +
STACK CFI 17200 .cfa: sp 0 +
STACK CFI 17204 .cfa: x29 64 +
STACK CFI INIT 17548 1c4 .cfa: sp 0 +
STACK CFI 1754c .cfa: sp 112 +
STACK CFI 1755c .cfa: x29 48 + x19: .cfa -8 + ^ x20: .cfa -16 + ^ x21: .cfa -24 + ^ x22: .cfa -32 + ^ .ra: .cfa -40 + ^ x29: .cfa -48 + ^
STACK CFI 176d0 .cfa: sp 112 +
STACK CFI 176e0 .cfa: sp 0 +
STACK CFI 176e4 .cfa: x29 48 +
STACK CFI INIT 179c0 5d4 .cfa: sp 0 +
STACK CFI 179c4 .cfa: sp 240 +
STACK CFI 179dc .cfa: x29 80 + x19: .cfa -8 + ^ x20: .cfa -16 + ^ x21: .cfa -24 + ^ x22: .cfa -32 + ^ x23: .cfa -40 + ^ x24: .cfa -48 + ^ x25: .cfa -56 + ^ x26: .cfa -64 + ^ .ra: .cfa -72 + ^ x29: .cfa -80 + ^
STACK CFI 17f10 .cfa: sp 240 +
STACK CFI 17f28 .cfa: sp 0 +
STACK CFI 17f2c .cfa: x29 80 +
STACK CFI INIT 18128 2e0 .cfa: sp 0 +
STACK CFI 1812c .cfa: sp 144 +
STACK CFI 18148 .cfa: x29 96 + x19: .cfa -8 + ^ x20: .cfa -16 + ^ x21: .cfa -24 + ^ x22: .cfa -32 + ^ x23: .cfa -40 + ^ x24: .cfa -48 + ^ x25: .cfa -56 + ^ x26: .cfa -64 + ^ x27: .cfa -72 + ^ x28: .cfa -80 + ^ .ra: .cfa -88 + ^ x29: .cfa -96 + ^
STACK CFI 183a4 .cfa: sp 144 +
STACK CFI 183c0 .cfa: sp 0 +
STACK CFI 183c4 .cfa: x29 96 +
STACK CFI INIT 18548 154 .cfa: sp 0 +
STACK CFI 1854c .cfa: sp 80 +
STACK CFI 18560 .cfa: x29 80 + x19: .cfa -8 + ^ x20: .cfa -16 + ^ x21: .cfa -24 + ^ x22: .cfa -32 + ^ x23: .cfa -40 + ^ x24: .cfa -48 + ^ x25: .cfa -64 + ^ .ra: .cfa -72 + ^ x29: .cfa -80 + ^
STACK CFI 18630 .cfa: sp 80 +
STACK CFI 18644 .cfa: sp 0 +
STACK CFI 18648 .cfa: x29 80 +
STACK CFI INIT 1869c 258 .cfa: sp 0 +
STACK CFI 186a0 .cfa: sp 112 +
STACK CFI 186b8 .cfa: x29 80 + x19: .cfa -8 + ^ x20: .cfa -16 + ^ x21: .cfa -24 + ^ x22: .cfa -32 + ^ x23: .cfa -40 + ^ x24: .cfa -48 + ^ x25: .cfa -64 + ^ .ra: .cfa -72 + ^ x29: .cfa -80 + ^
STACK CFI 18840 .cfa: sp 112 +
STACK CFI 18858 .cfa: sp 0 +
STACK CFI 1885c .cfa: x29 80 +
STACK CFI INIT 192b0 158 .cfa: sp 0 +
STACK CFI 192b4 .cfa: sp 32 +
STACK CFI 192bc .cfa: x29 32 + x19: .cfa -8 + ^ x20: .cfa -16 + ^ .ra: .cfa -24 + ^ x29: .cfa -32 + ^
STACK CFI 19370 .cfa: sp 32 +
STACK CFI 19378 .cfa: sp 0 +
STACK CFI 1937c .cfa: x29 32 +
STACK CFI 19388 .cfa: sp 32 +
STACK CFI 19390 .cfa: sp 0 +
STACK CFI 19394 .cfa: x29 32 +
STACK CFI INIT 19644 50 .cfa: sp 0 +
STACK CFI 19648 .cfa: sp 32 +
STACK CFI 19650 .cfa: x29 32 + x19: .cfa -8 + ^ x20: .cfa -16 + ^ .ra: .cfa -24 + ^ x29: .cfa -32 + ^
STACK CFI INIT 1971c 295c .cfa: sp 0 +
STACK CFI 19720 .cfa: sp 96 +
STACK CFI 19738 .cfa: x29 96 + x19: .cfa -8 + ^ x20: .cfa -16 + ^ x21: .cfa -24 + ^ x22: .cfa -32 + ^ x23: .cfa -40 + ^ x24: .cfa -48 + ^ x25: .cfa -56 + ^ x26: .cfa -64 + ^ x27: .cfa -72 + ^ x28: .cfa -80 + ^ .ra: .cfa -88 + ^ x29: .cfa -96 + ^
STACK CFI 1b9f0 .cfa: sp 96 +
STACK CFI 1ba08 .cfa: sp 0 +
STACK CFI 1ba0c .cfa: x29 96 +
STACK CFI INIT 1c0c8 140 .cfa: sp 0 +
STACK CFI 1c0cc .cfa: sp 144 +
STACK CFI 1c0e0 .cfa: x29 64 + x19: .cfa -8 + ^ x20: .cfa -16 + ^ x21: .cfa -24 + ^ x22: .cfa -32 + ^ x23: .cfa -40 + ^ x24: .cfa -48 + ^ .ra: .cfa -56 + ^ x29: .cfa -64 + ^
STACK CFI 1c1a0 .cfa: sp 144 +
STACK CFI 1c1b4 .cfa: sp 0 +
STACK CFI 1c1b8 .cfa: x29 64 +
STACK CFI INIT 1c364 74 .cfa: sp 0 +
STACK CFI 1c368 .cfa: sp 32 +
STACK CFI 1c370 .cfa: x29 32 + x19: .cfa -8 + ^ x20: .cfa -16 + ^ .ra: .cfa -24 + ^ x29: .cfa -32 + ^
STACK CFI 1c3b8 .cfa: sp 32 +
STACK CFI 1c3c0 .cfa: sp 0 +
STACK CFI 1c3c4 .cfa: x29 32 +
STACK CFI INIT 1c4bc 1674 .cfa: sp 0 +
STACK CFI 1c4c0 .cfa: sp 160 +
STACK CFI 1c4e8 .cfa: x29 96 + x19: .cfa -8 + ^ x20: .cfa -16 + ^ x21: .cfa -24 + ^ x22: .cfa -32 + ^ x23: .cfa -40 + ^ x24: .cfa -48 + ^ x25: .cfa -56 + ^ x26: .cfa -64 + ^ x27: .cfa -72 + ^ x28: .cfa -80 + ^ .ra: .cfa -88 + ^ x29: .cfa -96 + ^ v8: .cfa -104 + ^ v9: .cfa -112 + ^ v10: .cfa -120 + ^ v11: .cfa -128 + ^ v12: .cfa -136 + ^ v13: .cfa -144 + ^ v14: .cfa -152 + ^ v15: .cfa -160 + ^
STACK CFI 1d984 .cfa: sp 160 +
STACK CFI 1d9ac .cfa: sp 0 +
STACK CFI 1d9b0 .cfa: x29 96 +
STACK CFI INIT 1dbc8 f98 .cfa: sp 0 +
STACK CFI 1dbcc .cfa: sp 80 +
STACK CFI 1dbe0 .cfa: x29 64 + x19: .cfa -8 + ^ x20: .cfa -16 + ^ x21: .cfa -24 + ^ x22: .cfa -32 + ^ x23: .cfa -40 + ^ x24: .cfa -48 + ^ .ra: .cfa -56 + ^ x29: .cfa -64 + ^ v8: .cfa -80 + ^
STACK CFI 1dc8c .cfa: sp 80 +
STACK CFI 1dca0 .cfa: sp 0 +
STACK CFI 1dca4 .cfa: x29 64 +
STACK CFI 1dd20 .cfa: sp 80 +
STACK CFI 1dd34 .cfa: sp 0 +
STACK CFI 1dd38 .cfa: x29 64 +
STACK CFI 1dd3c .cfa: sp 80 +
STACK CFI 1dd50 .cfa: sp 0 +
STACK CFI 1dd54 .cfa: x29 64 +
STACK CFI 1df90 .cfa: sp 80 +
STACK CFI 1dfa4 .cfa: sp 0 +
STACK CFI 1dfa8 .cfa: x29 64 +
STACK CFI 1e014 .cfa: sp 80 +
STACK CFI 1e028 .cfa: sp 0 +
STACK CFI 1e02c .cfa: x29 64 +
STACK CFI 1e380 .cfa: sp 80 +
STACK CFI 1e394 .cfa: sp 0 +
STACK CFI 1e398 .cfa: x29 64 +
STACK CFI 1e3ac .cfa: sp 80 +
STACK CFI 1e3c0 .cfa: sp 0 +
STACK CFI 1e3c4 .cfa: x29 64 +
STACK CFI 1e83c .cfa: sp 80 +
STACK CFI 1e850 .cfa: sp 0 +
STACK CFI 1e854 .cfa: x29 64 +
STACK CFI 1e8e8 .cfa: sp 80 +
STACK CFI 1e8fc .cfa: sp 0 +
STACK CFI 1e900 .cfa: x29 64 +
STACK CFI 1e914 .cfa: sp 80 +
STACK CFI 1e928 .cfa: sp 0 +
STACK CFI 1e92c .cfa: x29 64 +
STACK CFI INIT 1eb70 444 .cfa: sp 0 +
STACK CFI 1eb74 .cfa: sp 144 +
STACK CFI 1eb90 .cfa: x29 96 + x19: .cfa -8 + ^ x20: .cfa -16 + ^ x21: .cfa -24 + ^ x22: .cfa -32 + ^ x23: .cfa -40 + ^ x24: .cfa -48 + ^ x25: .cfa -56 + ^ x26: .cfa -64 + ^ x27: .cfa -72 + ^ x28: .cfa -80 + ^ .ra: .cfa -88 + ^ x29: .cfa -96 + ^
STACK CFI 1ef50 .cfa: sp 144 +
STACK CFI 1ef6c .cfa: sp 0 +
STACK CFI 1ef70 .cfa: x29 96 +
STACK CFI INIT 1f7a8 134 .cfa: sp 0 +
STACK CFI 1f7ac .cfa: sp 80 +
STACK CFI 1f7b8 .cfa: x29 32 + x19: .cfa -8 + ^ x20: .cfa -16 + ^ .ra: .cfa -24 + ^ x29: .cfa -32 + ^
STACK CFI 1f7e8 .cfa: sp 80 +
STACK CFI 1f7f4 .cfa: sp 0 +
STACK CFI 1f7f8 .cfa: x29 32 +
STACK CFI INIT 1f8dc 78 .cfa: sp 0 +
STACK CFI 1f8e0 .cfa: sp 32 +
STACK CFI 1f8e8 .cfa: x29 32 + x19: .cfa -8 + ^ x20: .cfa -16 + ^ .ra: .cfa -24 + ^ x29: .cfa -32 + ^
STACK CFI 1f8f4 .cfa: sp 32 +
STACK CFI 1f8fc .cfa: sp 0 +
STACK CFI 1f900 .cfa: x29 32 +
STACK CFI INIT 1f954 74 .cfa: sp 0 +
STACK CFI 1f958 .cfa: sp 48 +
STACK CFI 1f964 .cfa: x29 32 + x19: .cfa -8 + ^ x20: .cfa -16 + ^ .ra: .cfa -24 + ^ x29: .cfa -32 + ^
STACK CFI 1f9b0 .cfa: sp 48 +
STACK CFI 1f9bc .cfa: sp 0 +
STACK CFI 1f9c0 .cfa: x29 32 +
STACK CFI INIT 1fa2c 224 .cfa: sp 0 +
STACK CFI 1fa30 .cfa: sp 128 +
STACK CFI 1fa40 .cfa: x29 48 + x19: .cfa -8 + ^ x20: .cfa -16 + ^ x21: .cfa -32 + ^ .ra: .cfa -40 + ^ x29: .cfa -48 + ^
STACK CFI 1faf0 .cfa: sp 128 +
STACK CFI 1fb00 .cfa: sp 0 +
STACK CFI 1fb04 .cfa: x29 48 +
STACK CFI INIT 1fcec 300 .cfa: sp 0 +
STACK CFI 1fcf0 .cfa: sp 144 +
STACK CFI 1fd04 .cfa: x29 64 + x19: .cfa -8 + ^ x20: .cfa -16 + ^ x21: .cfa -24 + ^ x22: .cfa -32 + ^ x23: .cfa -48 + ^ .ra: .cfa -56 + ^ x29: .cfa -64 + ^
STACK CFI 1fe98 .cfa: sp 144 +
STACK CFI 1feac .cfa: sp 0 +
STACK CFI 1feb0 .cfa: x29 64 +
STACK CFI INIT 20040 264 .cfa: sp 0 +
STACK CFI 20044 .cfa: sp 128 +
STACK CFI 20054 .cfa: x29 48 + x19: .cfa -8 + ^ x20: .cfa -16 + ^ x21: .cfa -32 + ^ .ra: .cfa -40 + ^ x29: .cfa -48 + ^
STACK CFI 2014c .cfa: sp 128 +
STACK CFI 2015c .cfa: sp 0 +
STACK CFI 20160 .cfa: x29 48 +
STACK CFI INIT 2034c 2e4 .cfa: sp 0 +
STACK CFI 20350 .cfa: sp 144 +
STACK CFI 20364 .cfa: x29 64 + x19: .cfa -8 + ^ x20: .cfa -16 + ^ x21: .cfa -24 + ^ x22: .cfa -32 + ^ x23: .cfa -48 + ^ .ra: .cfa -56 + ^ x29: .cfa -64 + ^
STACK CFI 204dc .cfa: sp 144 +
STACK CFI 204f0 .cfa: sp 0 +
STACK CFI 204f4 .cfa: x29 64 +
STACK CFI INIT 20630 2e4 .cfa: sp 0 +
STACK CFI 20634 .cfa: sp 144 +
STACK CFI 20648 .cfa: x29 64 + x19: .cfa -8 + ^ x20: .cfa -16 + ^ x21: .cfa -24 + ^ x22: .cfa -32 + ^ x23: .cfa -48 + ^ .ra: .cfa -56 + ^ x29: .cfa -64 + ^
STACK CFI 207c0 .cfa: sp 144 +
STACK CFI 207d4 .cfa: sp 0 +
STACK CFI 207d8 .cfa: x29 64 +
STACK CFI INIT 20914 2a0 .cfa: sp 0 +
STACK CFI 20918 .cfa: sp 144 +
STACK CFI 2092c .cfa: x29 64 + x19: .cfa -8 + ^ x20: .cfa -16 + ^ x21: .cfa -24 + ^ x22: .cfa -32 + ^ x23: .cfa -48 + ^ .ra: .cfa -56 + ^ x29: .cfa -64 + ^
STACK CFI 20a60 .cfa: sp 144 +
STACK CFI 20a74 .cfa: sp 0 +
STACK CFI 20a78 .cfa: x29 64 +
STACK CFI INIT 20bb4 2f0 .cfa: sp 0 +
STACK CFI 20bb8 .cfa: sp 144 +
STACK CFI 20bcc .cfa: x29 64 + x19: .cfa -8 + ^ x20: .cfa -16 + ^ x21: .cfa -24 + ^ x22: .cfa -32 + ^ x23: .cfa -48 + ^ .ra: .cfa -56 + ^ x29: .cfa -64 + ^
STACK CFI 20d50 .cfa: sp 144 +
STACK CFI 20d64 .cfa: sp 0 +
STACK CFI 20d68 .cfa: x29 64 +
STACK CFI INIT 20ea4 4f4 .cfa: sp 0 +
STACK CFI 20ea8 .cfa: sp 144 +
STACK CFI 20ebc .cfa: x29 64 + x19: .cfa -8 + ^ x20: .cfa -16 + ^ x21: .cfa -24 + ^ x22: .cfa -32 + ^ x23: .cfa -48 + ^ .ra: .cfa -56 + ^ x29: .cfa -64 + ^
STACK CFI 211f0 .cfa: sp 144 +
STACK CFI 21204 .cfa: sp 0 +
STACK CFI 21208 .cfa: x29 64 +
STACK CFI INIT 21398 154 .cfa: sp 0 +
STACK CFI 2139c .cfa: sp 384 +
STACK CFI 213b0 .cfa: x29 64 + x19: .cfa -8 + ^ x20: .cfa -16 + ^ x21: .cfa -24 + ^ x22: .cfa -32 + ^ x23: .cfa -40 + ^ x28: .cfa -48 + ^ .ra: .cfa -56 + ^ x29: .cfa -64 + ^
STACK CFI 21494 .cfa: sp 384 +
STACK CFI 214a8 .cfa: sp 0 +
STACK CFI 214ac .cfa: x29 64 +
STACK CFI INIT 214ec 168 .cfa: sp 0 +
STACK CFI 214f0 .cfa: sp 384 +
STACK CFI 21504 .cfa: x29 64 + x19: .cfa -8 + ^ x20: .cfa -16 + ^ x21: .cfa -24 + ^ x22: .cfa -32 + ^ x23: .cfa -40 + ^ x28: .cfa -48 + ^ .ra: .cfa -56 + ^ x29: .cfa -64 + ^
STACK CFI 215fc .cfa: sp 384 +
STACK CFI 21610 .cfa: sp 0 +
STACK CFI 21614 .cfa: x29 64 +
STACK CFI INIT 2166c 50c .cfa: sp 0 +
STACK CFI 21670 .cfa: sp 64 +
STACK CFI 21680 .cfa: x29 64 + x19: .cfa -8 + ^ x20: .cfa -16 + ^ x21: .cfa -24 + ^ x22: .cfa -32 + ^ x23: .cfa -40 + ^ x24: .cfa -48 + ^ .ra: .cfa -56 + ^ x29: .cfa -64 + ^
STACK CFI 217a0 .cfa: sp 64 +
STACK CFI 217b0 .cfa: sp 0 +
STACK CFI 217b4 .cfa: x29 64 +
STACK CFI 21b4c .cfa: sp 64 +
STACK CFI 21b5c .cfa: sp 0 +
STACK CFI 21b60 .cfa: x29 64 +
