MODULE Linux arm64 26478F54992821C10124B2C33FC406B00 alphadev.custom_profile_image.android64.so
INFO CODE_ID 548F47262899C1210124B2C33FC406B074612409
INFO GENERATOR mozilla/dump_syms 2.3.4
PUBLIC 5d90 0 __on_dlclose
PUBLIC 5da0 0 __emutls_unregister_key
PUBLIC 5da8 0 __on_dlclose_late
PUBLIC 5db0 0 __atexit_handler_wrapper
PUBLIC 5dc4 0 atexit
PUBLIC 5de0 0 pthread_atfork
PUBLIC 5df0 0 unwind_phase2
PUBLIC 5f24 0 _Unwind_Resume
PUBLIC 5fa8 0 unwind_phase2_forced
PUBLIC m 609c 0 __unw_init_local
PUBLIC m 6144 0 __unw_get_reg
PUBLIC 61c0 0 __unw_step_stage2
PUBLIC m 61d4 0 __unw_get_proc_info
PUBLIC m 6214 0 __unw_resume
PUBLIC 623c 0 libunwind::CFI_Parser<libunwind::LocalAddressSpace>::decodeFDE(libunwind::LocalAddressSpace&, unsigned long, libunwind::CFI_Parser<libunwind::LocalAddressSpace>::FDE_Info*, libunwind::CFI_Parser<libunwind::LocalAddressSpace>::CIE_Info*, bool)
PUBLIC 63cc 0 libunwind::CFI_Parser<libunwind::LocalAddressSpace>::parseCIE(libunwind::LocalAddressSpace&, unsigned long, libunwind::CFI_Parser<libunwind::LocalAddressSpace>::CIE_Info*)
PUBLIC 6694 0 libunwind::AbstractUnwindCursor::~AbstractUnwindCursor()
PUBLIC 669c 0 libunwind::UnwindCursor<libunwind::LocalAddressSpace, libunwind::Registers_arm64>::~UnwindCursor()
PUBLIC 66a4 0 libunwind::UnwindCursor<libunwind::LocalAddressSpace, libunwind::Registers_arm64>::validReg(int)
PUBLIC 66e8 0 libunwind::UnwindCursor<libunwind::LocalAddressSpace, libunwind::Registers_arm64>::getReg(int)
PUBLIC 67d0 0 libunwind::UnwindCursor<libunwind::LocalAddressSpace, libunwind::Registers_arm64>::setReg(int, unsigned long)
PUBLIC 68b8 0 libunwind::UnwindCursor<libunwind::LocalAddressSpace, libunwind::Registers_arm64>::validFloatReg(int)
PUBLIC 68cc 0 libunwind::UnwindCursor<libunwind::LocalAddressSpace, libunwind::Registers_arm64>::getFloatReg(int)
PUBLIC 68dc 0 libunwind::UnwindCursor<libunwind::LocalAddressSpace, libunwind::Registers_arm64>::setFloatReg(int, double)
PUBLIC 68ec 0 libunwind::UnwindCursor<libunwind::LocalAddressSpace, libunwind::Registers_arm64>::step(bool)
PUBLIC 69dc 0 libunwind::UnwindCursor<libunwind::LocalAddressSpace, libunwind::Registers_arm64>::getInfo(unw_proc_info_t*)
PUBLIC 6a20 0 libunwind::UnwindCursor<libunwind::LocalAddressSpace, libunwind::Registers_arm64>::jumpto()
PUBLIC 6a2c 0 libunwind::UnwindCursor<libunwind::LocalAddressSpace, libunwind::Registers_arm64>::isSignalFrame()
PUBLIC 6a38 0 libunwind::UnwindCursor<libunwind::LocalAddressSpace, libunwind::Registers_arm64>::getFunctionName(char*, unsigned long, unsigned long*)
PUBLIC 6a64 0 libunwind::UnwindCursor<libunwind::LocalAddressSpace, libunwind::Registers_arm64>::setInfoBasedOnIPRegister(bool)
PUBLIC 6ce4 0 libunwind::UnwindCursor<libunwind::LocalAddressSpace, libunwind::Registers_arm64>::getRegisterName(int)
PUBLIC 6cf0 0 libunwind::UnwindCursor<libunwind::LocalAddressSpace, libunwind::Registers_arm64>::stepThroughSigReturn(libunwind::Registers_arm64&)
PUBLIC 6e10 0 libunwind::DwarfInstructions<libunwind::LocalAddressSpace, libunwind::Registers_arm64>::stepWithDwarf(libunwind::LocalAddressSpace&, unsigned long, unsigned long, libunwind::Registers_arm64&, bool&, bool)
PUBLIC 7298 0 libunwind::CFI_Parser<libunwind::LocalAddressSpace>::parseFDEInstructions(libunwind::LocalAddressSpace&, libunwind::CFI_Parser<libunwind::LocalAddressSpace>::FDE_Info const&, libunwind::CFI_Parser<libunwind::LocalAddressSpace>::CIE_Info const&, unsigned long, int, libunwind::CFI_Parser<libunwind::LocalAddressSpace>::PrologInfo*)
PUBLIC 7ee0 0 libunwind::DwarfInstructions<libunwind::LocalAddressSpace, libunwind::Registers_arm64>::getCFA(libunwind::LocalAddressSpace&, libunwind::CFI_Parser<libunwind::LocalAddressSpace>::PrologInfo const&, libunwind::Registers_arm64 const&)
PUBLIC 8014 0 libunwind::DwarfInstructions<libunwind::LocalAddressSpace, libunwind::Registers_arm64>::getSavedRegister(libunwind::LocalAddressSpace&, libunwind::Registers_arm64 const&, unsigned long, libunwind::CFI_Parser<libunwind::LocalAddressSpace>::RegisterLocation const&)
PUBLIC 8224 0 libunwind::LocalAddressSpace::getEncodedP(unsigned long&, unsigned long, unsigned char, unsigned long)
PUBLIC 85b0 0 libunwind::LocalAddressSpace::getULEB128(unsigned long&, unsigned long)
PUBLIC 8778 0 libunwind::DwarfInstructions<libunwind::LocalAddressSpace, libunwind::Registers_arm64>::evaluateExpression(unsigned long, libunwind::LocalAddressSpace&, libunwind::Registers_arm64 const&, unsigned long)
PUBLIC 9134 0 libunwind::UnwindCursor<libunwind::LocalAddressSpace, libunwind::Registers_arm64>::getInfoFromDwarfSection(unsigned long, libunwind::UnwindInfoSections const&, unsigned int)
PUBLIC 9408 0 libunwind::findUnwindSectionsByPhdr(dl_phdr_info*, unsigned long, void*)
PUBLIC 953c 0 libunwind::EHHeaderParser<libunwind::LocalAddressSpace>::decodeEHHdr(libunwind::LocalAddressSpace&, unsigned long, unsigned long, libunwind::EHHeaderParser<libunwind::LocalAddressSpace>::EHHeaderInfo&)
PUBLIC 965c 0 libunwind::CFI_Parser<libunwind::LocalAddressSpace>::findFDE(libunwind::LocalAddressSpace&, unsigned long, unsigned long, unsigned long, unsigned long, libunwind::CFI_Parser<libunwind::LocalAddressSpace>::FDE_Info*, libunwind::CFI_Parser<libunwind::LocalAddressSpace>::CIE_Info*)
PUBLIC 9824 0 libunwind::EHHeaderParser<libunwind::LocalAddressSpace>::findFDE(libunwind::LocalAddressSpace&, unsigned long, unsigned long, unsigned int, libunwind::CFI_Parser<libunwind::LocalAddressSpace>::FDE_Info*, libunwind::CFI_Parser<libunwind::LocalAddressSpace>::CIE_Info*)
PUBLIC 998c 0 libunwind::EHHeaderParser<libunwind::LocalAddressSpace>::getTableEntrySize(unsigned char)
PUBLIC 9a88 0 libunwind::Registers_arm64::getRegisterName(int)
PUBLIC 9ab8 0 __libunwind_Registers_arm64_jumpto
PUBLIC m 9b48 0 __unw_getcontext
PUBLIC 9bf0 0 __aarch64_ldadd8_relax
PUBLIC 9c20 0 init_have_lse_atomics
PUBLIC 9cb8 0 __init_cpu_features_constructor
PUBLIC a254 0 __init_cpu_features
PUBLIC a2e0 0 __aarch64_ldadd8_acq_rel
PUBLIC a310 0 __cxx_global_var_init
PUBLIC a794 0 geode::modifier::ModifyBase<geode::modifier::ModifyDerive<MyMenuLayer, MenuLayer> >::~ModifyBase()
PUBLIC a7ac 0 __cxx_global_var_init.1
PUBLIC ac30 0 geode::modifier::ModifyBase<geode::modifier::ModifyDerive<ExtendedProfilePage, ProfilePage> >::~ModifyBase()
PUBLIC ac48 0 std::__ndk1::basic_string<char, std::__ndk1::char_traits<char>, std::__ndk1::allocator<char> >::__throw_length_error[abi:ne180000]() const
PUBLIC ac5c 0 std::__ndk1::__throw_length_error[abi:ne180000](char const*)
PUBLIC acac 0 std::length_error::length_error[abi:ne180000](char const*)
PUBLIC acdc 0 std::__throw_bad_array_new_length([abi:ne180000], void)
PUBLIC ad10 0 __clang_call_terminate
PUBLIC ad20 0 geode::modifier::ModifyDerive<MyMenuLayer, MenuLayer>::apply()
PUBLIC b014 0 std::__ndk1::shared_ptr<geode::Hook>::~shared_ptr[abi:ne180000]()
PUBLIC b064 0 geode::impl::ResultData<geode::Hook*, std::__ndk1::basic_string<char, std::__ndk1::char_traits<char>, std::__ndk1::allocator<char> > >::~ResultData()
PUBLIC b0d8 0 std::__ndk1::vector<std::__ndk1::basic_string<char, std::__ndk1::char_traits<char>, std::__ndk1::allocator<char> >, std::__ndk1::allocator<std::__ndk1::basic_string<char, std::__ndk1::char_traits<char>, std::__ndk1::allocator<char> > > >::~vector[abi:ne180000]()
PUBLIC b154 0 geode::modifier::ModifyBase<geode::modifier::ModifyDerive<MyMenuLayer, MenuLayer> >::apply()
PUBLIC b158 0 _ZN5geode15UnwrapExceptionC2IRPNS_4HookEQsr4implE18IsStringStreamableIT_EEENS_4impl5OkTagEOS5_
PUBLIC b2ac 0 std::__ndk1::__throw_bad_variant_access[abi:ne180000]()
PUBLIC b2e0 0 std::__ndk1::basic_stringstream<char, std::__ndk1::char_traits<char>, std::__ndk1::allocator<char> >::basic_stringstream[abi:ne180000]()
PUBLIC m b40c 0 std::__ndk1::basic_stringstream<char, std::__ndk1::char_traits<char>, std::__ndk1::allocator<char> >::~basic_stringstream()
PUBLIC b48c 0 geode::UnwrapException::~UnwrapException()
PUBLIC b4b0 0 std::__ndk1::__put_character_sequence[abi:ne180000]<char, std::__ndk1::char_traits<char> >(std::__ndk1::basic_ostream<char, std::__ndk1::char_traits<char> >, std::__ndk1::basic_ostream const*, unsigned long)
PUBLIC b654 0 std::__ndk1::__pad_and_output[abi:ne180000]<char, std::__ndk1::char_traits<char> >(std::__ndk1::char_traits<char>, std::__ndk1::ostreambuf_iterator const*, std::__ndk1::ostreambuf_iterator const, std::__ndk1::ostreambuf_iterator const, std::__ndk1::ios_base&, std::__ndk1::ostreambuf_iterator)
PUBLIC b830 0 std::__ndk1::basic_stringbuf<char, std::__ndk1::char_traits<char>, std::__ndk1::allocator<char> >::str[abi:ne180000]() &&
PUBLIC b9a8 0 std::__ndk1::basic_stringbuf<char, std::__ndk1::char_traits<char>, std::__ndk1::allocator<char> >::__init_buf_ptrs[abi:ne180000]()
PUBLIC baf0 0 std::__ndk1::vector<std::__ndk1::basic_string<char, std::__ndk1::char_traits<char>, std::__ndk1::allocator<char> >, std::__ndk1::allocator<std::__ndk1::basic_string<char, std::__ndk1::char_traits<char>, std::__ndk1::allocator<char> > > >::__push_back_slow_path<std::__ndk1::basic_string<char, std::__ndk1::char_traits<char>, std::__ndk1::allocator<char> > const&>(std::__ndk1::basic_string<char, std::__ndk1::char_traits<char>, std::__ndk1::allocator<char> > const&)
PUBLIC bd14 0 std::__ndk1::basic_string<char, std::__ndk1::char_traits<char>, std::__ndk1::allocator<char> >::__init_copy_ctor_external(char const*, unsigned long)
PUBLIC bd94 0 std::__ndk1::__split_buffer<std::__ndk1::basic_string<char, std::__ndk1::char_traits<char>, std::__ndk1::allocator<char> >, std::__ndk1::allocator<std::__ndk1::basic_string<char, std::__ndk1::char_traits<char>, std::__ndk1::allocator<char> > >&>::~__split_buffer()
PUBLIC bdfc 0 std::__ndk1::vector<std::__ndk1::basic_string<char, std::__ndk1::char_traits<char>, std::__ndk1::allocator<char> >, std::__ndk1::allocator<std::__ndk1::basic_string<char, std::__ndk1::char_traits<char>, std::__ndk1::allocator<char> > > >::__throw_length_error[abi:ne180000]() const
PUBLIC be10 0 std::__ndk1::__variant_detail::__visitation::__base::__dispatcher<(unsigned long)0>::__dispatch[abi:ne180000]<std::__ndk1::__variant_detail::__dtor<std::__ndk1::__variant_detail::__traits<geode::Hook*, std::__ndk1::basic_string<char, std::__ndk1::char_traits<char>, std::__ndk1::allocator<char> > >, (std::__ndk1::__variant_detail::_Trait)1>::__destroy[abi:ne180000]()::{lambda(auto:1&)#1}, std::__ndk1::__variant_detail::__base<(std::__ndk1::__variant_detail::__traits<geode::Hook*, std::__ndk1::basic_string<char, std::__ndk1::char_traits<char>, std::__ndk1::allocator<char> > >)1, geode::Hook, std::__ndk1::allocator<char> >&>(std::__ndk1::__variant_detail::__dtor<std::__ndk1::__variant_detail::__traits<geode::Hook*, std::__ndk1::basic_string<char, std::__ndk1::char_traits<char>, std::__ndk1::allocator<char> > >, (std::__ndk1::__variant_detail::_Trait)1>, std::__ndk1::__variant_detail::__base<(std::__ndk1::__variant_detail::__traits<geode::Hook*, std::__ndk1::basic_string<char, std::__ndk1::char_traits<char>, std::__ndk1::allocator<char> > >)1, geode::Hook, std::__ndk1::allocator<char> >&)
PUBLIC be14 0 std::__ndk1::__variant_detail::__visitation::__base::__dispatcher<(unsigned long)1>::__dispatch[abi:ne180000]<std::__ndk1::__variant_detail::__dtor<std::__ndk1::__variant_detail::__traits<geode::Hook*, std::__ndk1::basic_string<char, std::__ndk1::char_traits<char>, std::__ndk1::allocator<char> > >, (std::__ndk1::__variant_detail::_Trait)1>::__destroy[abi:ne180000]()::{lambda(auto:1&)#1}, std::__ndk1::__variant_detail::__base<(std::__ndk1::__variant_detail::__traits<geode::Hook*, std::__ndk1::basic_string<char, std::__ndk1::char_traits<char>, std::__ndk1::allocator<char> > >)1, geode::Hook, std::__ndk1::allocator<char> >&>(std::__ndk1::__variant_detail::__dtor<std::__ndk1::__variant_detail::__traits<geode::Hook*, std::__ndk1::basic_string<char, std::__ndk1::char_traits<char>, std::__ndk1::allocator<char> > >, (std::__ndk1::__variant_detail::_Trait)1>, std::__ndk1::__variant_detail::__base<(std::__ndk1::__variant_detail::__traits<geode::Hook*, std::__ndk1::basic_string<char, std::__ndk1::char_traits<char>, std::__ndk1::allocator<char> > >)1, geode::Hook, std::__ndk1::allocator<char> >&)
PUBLIC be28 0 std::__ndk1::__tree<std::__ndk1::__value_type<std::__ndk1::basic_string<char, std::__ndk1::char_traits<char>, std::__ndk1::allocator<char> >, std::__ndk1::shared_ptr<geode::Hook> >, std::__ndk1::__map_value_compare<std::__ndk1::basic_string<char, std::__ndk1::char_traits<char>, std::__ndk1::allocator<char> >, std::__ndk1::__value_type<std::__ndk1::basic_string<char, std::__ndk1::char_traits<char>, std::__ndk1::allocator<char> >, std::__ndk1::shared_ptr<geode::Hook> >, std::__ndk1::less<std::__ndk1::basic_string<char, std::__ndk1::char_traits<char>, std::__ndk1::allocator<char> > >, true>, std::__ndk1::allocator<std::__ndk1::__value_type<std::__ndk1::basic_string<char, std::__ndk1::char_traits<char>, std::__ndk1::allocator<char> >, std::__ndk1::shared_ptr<geode::Hook> > > >::find<std::__ndk1::basic_string<char, std::__ndk1::char_traits<char>, std::__ndk1::allocator<char> > >(std::__ndk1::basic_string<char, std::__ndk1::char_traits<char>, std::__ndk1::allocator<char> > const&)
PUBLIC bf48 0 std::__ndk1::__tree<std::__ndk1::__value_type<std::__ndk1::basic_string<char, std::__ndk1::char_traits<char>, std::__ndk1::allocator<char> >, std::__ndk1::shared_ptr<geode::Hook> >, std::__ndk1::__map_value_compare<std::__ndk1::basic_string<char, std::__ndk1::char_traits<char>, std::__ndk1::allocator<char> >, std::__ndk1::__value_type<std::__ndk1::basic_string<char, std::__ndk1::char_traits<char>, std::__ndk1::allocator<char> >, std::__ndk1::shared_ptr<geode::Hook> >, std::__ndk1::less<std::__ndk1::basic_string<char, std::__ndk1::char_traits<char>, std::__ndk1::allocator<char> > >, true>, std::__ndk1::allocator<std::__ndk1::__value_type<std::__ndk1::basic_string<char, std::__ndk1::char_traits<char>, std::__ndk1::allocator<char> >, std::__ndk1::shared_ptr<geode::Hook> > > >::erase(std::__ndk1::__tree_const_iterator<std::__ndk1::__value_type<std::__ndk1::basic_string<char, std::__ndk1::char_traits<char>, std::__ndk1::allocator<char> >, std::__ndk1::shared_ptr<geode::Hook> >, std::__ndk1::__tree_node<std::__ndk1::__value_type<std::__ndk1::basic_string<char, std::__ndk1::char_traits<char>, std::__ndk1::allocator<char> >, std::__ndk1::shared_ptr<geode::Hook> >, void*>*, long>)
PUBLIC c3ec 0 std::__ndk1::__tree<std::__ndk1::__value_type<std::__ndk1::basic_string<char, std::__ndk1::char_traits<char>, std::__ndk1::allocator<char> >, std::__ndk1::shared_ptr<geode::Hook> >, std::__ndk1::__map_value_compare<std::__ndk1::basic_string<char, std::__ndk1::char_traits<char>, std::__ndk1::allocator<char> >, std::__ndk1::__value_type<std::__ndk1::basic_string<char, std::__ndk1::char_traits<char>, std::__ndk1::allocator<char> >, std::__ndk1::shared_ptr<geode::Hook> >, std::__ndk1::less<std::__ndk1::basic_string<char, std::__ndk1::char_traits<char>, std::__ndk1::allocator<char> > >, true>, std::__ndk1::allocator<std::__ndk1::__value_type<std::__ndk1::basic_string<char, std::__ndk1::char_traits<char>, std::__ndk1::allocator<char> >, std::__ndk1::shared_ptr<geode::Hook> > > >::destroy(std::__ndk1::__tree_node<std::__ndk1::__value_type<std::__ndk1::basic_string<char, std::__ndk1::char_traits<char>, std::__ndk1::allocator<char> >, std::__ndk1::shared_ptr<geode::Hook> >, void*>*)
PUBLIC c470 0 geode::modifier::AsStaticFunction_init<MyMenuLayer, bool (MyMenuLayer::*)()>::Impl<bool (MyMenuLayer::*)()>::function(MyMenuLayer*)
PUBLIC ca48 0 geode::addresser::Addresser::addressOfVirtual<bool, MenuLayer, >(bool (MenuLayer::*)())
PUBLIC caf0 0 MenuLayer::MenuLayer(geode::ZeroConstructorType)
PUBLIC cb8c 0 std::__ndk1::shared_ptr<tulip::hook::CallingConvention>::~shared_ptr[abi:ne180000]()
PUBLIC cbdc 0 tulip::hook::HandlerMetadata::~HandlerMetadata()
PUBLIC cc40 0 std::__ndk1::vector<tulip::hook::AbstractType, std::__ndk1::allocator<tulip::hook::AbstractType> >::__throw_length_error[abi:ne180000]() const
PUBLIC cc54 0 geode::Mod::getSettingValue<std::__ndk1::__fs::filesystem::path>(std::__ndk1::basic_string_view<char, std::__ndk1::char_traits<char> >) const
PUBLIC cdec 0 geode::Mod::getSettingValue<bool>(std::__ndk1::basic_string_view<char, std::__ndk1::char_traits<char> >) const
PUBLIC cf1c 0 geode::cast::traverseTypeinfoFor(void*, geode::cast::ClassTypeinfoType const*, char const*)
PUBLIC d014 0 std::__ndk1::shared_ptr<geode::FileSettingV3>::~shared_ptr[abi:ne180000]()
PUBLIC d064 0 std::__ndk1::__tree<std::__ndk1::__value_type<std::__ndk1::basic_string<char, std::__ndk1::char_traits<char>, std::__ndk1::allocator<char> >, std::__ndk1::shared_ptr<geode::Hook> >, std::__ndk1::__map_value_compare<std::__ndk1::basic_string<char, std::__ndk1::char_traits<char>, std::__ndk1::allocator<char> >, std::__ndk1::__value_type<std::__ndk1::basic_string<char, std::__ndk1::char_traits<char>, std::__ndk1::allocator<char> >, std::__ndk1::shared_ptr<geode::Hook> >, std::__ndk1::less<std::__ndk1::basic_string<char, std::__ndk1::char_traits<char>, std::__ndk1::allocator<char> > >, true>, std::__ndk1::allocator<std::__ndk1::__value_type<std::__ndk1::basic_string<char, std::__ndk1::char_traits<char>, std::__ndk1::allocator<char> >, std::__ndk1::shared_ptr<geode::Hook> > > >::__emplace_unique_key_args<std::__ndk1::basic_string<char, std::__ndk1::char_traits<char>, std::__ndk1::allocator<char> >, std::__ndk1::piecewise_construct_t const&, std::__ndk1::tuple<std::__ndk1::basic_string<char, std::__ndk1::char_traits<char>, std::__ndk1::allocator<char> >&&>, std::__ndk1::tuple<> >(std::__ndk1::basic_string<char, std::__ndk1::char_traits<char>, std::__ndk1::allocator<char> > const&, std::__ndk1::piecewise_construct_t const&, std::__ndk1::tuple<std::__ndk1::basic_string<char, std::__ndk1::char_traits<char>, std::__ndk1::allocator<char> >&&>, std::__ndk1::tuple<>)
PUBLIC d1cc 0 std::__ndk1::__tree_balance_after_insert[abi:ne180000]<std::__ndk1::__tree_node_base<void*>*>(std::__ndk1::__tree_node_base<void*>*, std::__ndk1::__tree_node_base<void*>*)
PUBLIC d37c 0 geode::modifier::ModifyDerive<ExtendedProfilePage, ProfilePage>::apply()
PUBLIC d708 0 geode::modifier::ModifyBase<geode::modifier::ModifyDerive<ExtendedProfilePage, ProfilePage> >::apply()
PUBLIC d70c 0 geode::modifier::AsStaticFunction_init<ExtendedProfilePage, bool (ExtendedProfilePage::*)(int, bool)>::Impl<bool (ExtendedProfilePage::*)(int, bool)>::function(ExtendedProfilePage*, int, bool)
PUBLIC m dc2c 0 geodeImplicitEntry
PUBLIC dc68 0 wrapFunction(unsigned long, tulip::hook::WrapperMetadata const&)
PUBLIC dd9c 0 geode::impl::ResultData<void*, std::__ndk1::basic_string<char, std::__ndk1::char_traits<char>, std::__ndk1::allocator<char> > >::unwrapErr() &
PUBLIC de14 0 geode::impl::ResultData<void*, std::__ndk1::basic_string<char, std::__ndk1::char_traits<char>, std::__ndk1::allocator<char> > >::~ResultData()
PUBLIC de88 0 tulip::hook::WrapperMetadata::~WrapperMetadata()
PUBLIC deec 0 FLAlertLayer::create(FLAlertLayerProtocol*, char const*, gd::string, char const*, char const*, float)
PUBLIC e0a4 0 tulip::hook::AbstractFunction::from<FLAlertLayer*, FLAlertLayerProtocol*, char const*, gd::string, char const*, char const*, float>(FLAlertLayer* (*)(FLAlertLayerProtocol*, char const*, gd::string, char const*, char const*, float))
PUBLIC e588 0 _ZN5geode15UnwrapExceptionC2IRPvQsr4implE18IsStringStreamableIT_EEENS_4impl5OkTagEOS4_
PUBLIC e6dc 0 _ZN5geode15UnwrapExceptionC2IRNSt6__ndk112basic_stringIcNS2_11char_traitsIcEENS2_9allocatorIcEEEEQsr4implE18IsStringStreamableIT_EEENS_4impl6ErrTagEOSA_
PUBLIC e844 0 std::__ndk1::__variant_detail::__visitation::__base::__dispatcher<(unsigned long)0>::__dispatch[abi:ne180000]<std::__ndk1::__variant_detail::__dtor<std::__ndk1::__variant_detail::__traits<void*, std::__ndk1::basic_string<char, std::__ndk1::char_traits<char>, std::__ndk1::allocator<char> > >, (std::__ndk1::__variant_detail::_Trait)1>::__destroy[abi:ne180000]()::{lambda(auto:1&)#1}, std::__ndk1::__variant_detail::__base<(std::__ndk1::__variant_detail::__traits<void*, std::__ndk1::basic_string<char, std::__ndk1::char_traits<char>, std::__ndk1::allocator<char> > >)1, std::__ndk1::__variant_detail::__traits, std::__ndk1::allocator<char> >&>(std::__ndk1::__variant_detail::__dtor<std::__ndk1::__variant_detail::__traits<void*, std::__ndk1::basic_string<char, std::__ndk1::char_traits<char>, std::__ndk1::allocator<char> > >, (std::__ndk1::__variant_detail::_Trait)1>, std::__ndk1::__variant_detail::__base<(std::__ndk1::__variant_detail::__traits<void*, std::__ndk1::basic_string<char, std::__ndk1::char_traits<char>, std::__ndk1::allocator<char> > >)1, std::__ndk1::__variant_detail::__traits, std::__ndk1::allocator<char> >&)
PUBLIC e848 0 std::__ndk1::__variant_detail::__visitation::__base::__dispatcher<(unsigned long)1>::__dispatch[abi:ne180000]<std::__ndk1::__variant_detail::__dtor<std::__ndk1::__variant_detail::__traits<void*, std::__ndk1::basic_string<char, std::__ndk1::char_traits<char>, std::__ndk1::allocator<char> > >, (std::__ndk1::__variant_detail::_Trait)1>::__destroy[abi:ne180000]()::{lambda(auto:1&)#1}, std::__ndk1::__variant_detail::__base<(std::__ndk1::__variant_detail::__traits<void*, std::__ndk1::basic_string<char, std::__ndk1::char_traits<char>, std::__ndk1::allocator<char> > >)1, std::__ndk1::__variant_detail::__traits, std::__ndk1::allocator<char> >&>(std::__ndk1::__variant_detail::__dtor<std::__ndk1::__variant_detail::__traits<void*, std::__ndk1::basic_string<char, std::__ndk1::char_traits<char>, std::__ndk1::allocator<char> > >, (std::__ndk1::__variant_detail::_Trait)1>, std::__ndk1::__variant_detail::__base<(std::__ndk1::__variant_detail::__traits<void*, std::__ndk1::basic_string<char, std::__ndk1::char_traits<char>, std::__ndk1::allocator<char> > >)1, std::__ndk1::__variant_detail::__traits, std::__ndk1::allocator<char> >&)
PUBLIC e860 0 <.plt ELF section in alphadev.custom_profile_image.android64.so>
STACK CFI INIT 5d90 10 .cfa: sp 0 +
STACK CFI INIT 5da0 8 .cfa: sp 0 +
STACK CFI INIT 5da8 8 .cfa: sp 0 +
STACK CFI INIT 5db0 14 .cfa: sp 0 +
STACK CFI INIT 5dc4 1c .cfa: sp 0 +
STACK CFI INIT 5de0 10 .cfa: sp 0 +
STACK CFI INIT 5df0 134 .cfa: sp 0 +
STACK CFI INIT 5f24 84 .cfa: sp 0 +
STACK CFI INIT 5fa8 f4 .cfa: sp 0 +
STACK CFI INIT 609c a8 .cfa: sp 0 +
STACK CFI INIT 6144 7c .cfa: sp 0 +
STACK CFI INIT 61c0 14 .cfa: sp 0 +
STACK CFI INIT 61d4 40 .cfa: sp 0 +
STACK CFI INIT 6214 28 .cfa: sp 0 +
STACK CFI INIT 623c 190 .cfa: sp 0 +
STACK CFI INIT 63cc 2c8 .cfa: sp 0 +
STACK CFI INIT 6694 8 .cfa: sp 0 +
STACK CFI INIT 669c 8 .cfa: sp 0 +
STACK CFI INIT 66a4 44 .cfa: sp 0 +
STACK CFI INIT 66e8 e8 .cfa: sp 0 +
STACK CFI INIT 67d0 e8 .cfa: sp 0 +
STACK CFI INIT 68b8 14 .cfa: sp 0 +
STACK CFI INIT 68cc 10 .cfa: sp 0 +
STACK CFI INIT 68dc 10 .cfa: sp 0 +
STACK CFI INIT 68ec f0 .cfa: sp 0 +
STACK CFI INIT 69dc 44 .cfa: sp 0 +
STACK CFI INIT 6a20 c .cfa: sp 0 +
STACK CFI INIT 6a2c c .cfa: sp 0 +
STACK CFI INIT 6a38 2c .cfa: sp 0 +
STACK CFI INIT 6a64 280 .cfa: sp 0 +
STACK CFI INIT 6ce4 c .cfa: sp 0 +
STACK CFI INIT 6cf0 120 .cfa: sp 0 +
STACK CFI INIT 6e10 488 .cfa: sp 0 +
STACK CFI INIT 7298 c48 .cfa: sp 0 +
STACK CFI INIT 7ee0 134 .cfa: sp 0 +
STACK CFI INIT 8014 210 .cfa: sp 0 +
STACK CFI INIT 8224 38c .cfa: sp 0 +
STACK CFI INIT 85b0 1c8 .cfa: sp 0 +
STACK CFI INIT 8778 9bc .cfa: sp 0 +
STACK CFI INIT 9134 2d4 .cfa: sp 0 +
STACK CFI INIT 9408 134 .cfa: sp 0 +
STACK CFI INIT 953c 120 .cfa: sp 0 +
STACK CFI INIT 965c 1c8 .cfa: sp 0 +
STACK CFI INIT 9824 168 .cfa: sp 0 +
STACK CFI INIT 998c fc .cfa: sp 0 +
STACK CFI INIT 9a88 30 .cfa: sp 0 +
STACK CFI INIT 9bf0 30 .cfa: sp 0 +
STACK CFI INIT 9c20 98 .cfa: sp 0 +
STACK CFI INIT 9cb8 59c .cfa: sp 0 +
STACK CFI INIT a254 8c .cfa: sp 0 +
STACK CFI INIT a2e0 30 .cfa: sp 0 +
STACK CFI INIT a794 18 .cfa: sp 0 +
STACK CFI INIT ac30 18 .cfa: sp 0 +
STACK CFI INIT ac48 14 .cfa: sp 0 +
STACK CFI ac4c .cfa: sp 16 +
STACK CFI ac50 .cfa: x29 16 + .ra: .cfa -8 + ^ x29: .cfa -16 + ^
STACK CFI INIT acac 30 .cfa: sp 0 +
STACK CFI acb0 .cfa: sp 32 +
STACK CFI acb8 .cfa: x29 32 + x19: .cfa -16 + ^ .ra: .cfa -24 + ^ x29: .cfa -32 + ^
STACK CFI acd0 .cfa: sp 32 +
STACK CFI acd8 .cfa: sp 0 +
STACK CFI INIT acdc 34 .cfa: sp 0 +
STACK CFI ace0 .cfa: sp 32 +
STACK CFI ace8 .cfa: x29 32 + x19: .cfa -16 + ^ .ra: .cfa -24 + ^ x29: .cfa -32 + ^
STACK CFI INIT ad10 10 .cfa: sp 0 +
STACK CFI ad14 .cfa: sp 16 +
STACK CFI ad18 .cfa: x29 16 + .ra: .cfa -8 + ^ x29: .cfa -16 + ^
STACK CFI INIT b014 50 .cfa: sp 0 +
STACK CFI b018 .cfa: sp 32 +
STACK CFI b020 .cfa: x29 32 + x19: .cfa -16 + ^ .ra: .cfa -24 + ^ x29: .cfa -32 + ^
STACK CFI b038 .cfa: sp 32 +
STACK CFI b040 .cfa: sp 0 +
STACK CFI b044 .cfa: x29 32 +
STACK CFI b058 .cfa: sp 32 +
STACK CFI b060 .cfa: sp 0 +
STACK CFI INIT b0d8 7c .cfa: sp 0 +
STACK CFI b0dc .cfa: sp 48 +
STACK CFI b0e8 .cfa: x29 48 + x19: .cfa -8 + ^ x20: .cfa -16 + ^ x21: .cfa -32 + ^ .ra: .cfa -40 + ^ x29: .cfa -48 + ^
STACK CFI b134 .cfa: sp 48 +
STACK CFI b140 .cfa: sp 0 +
STACK CFI b144 .cfa: sp 48 +
STACK CFI b150 .cfa: sp 0 +
STACK CFI INIT b154 4 .cfa: sp 0 +
STACK CFI INIT b2ac 34 .cfa: sp 0 +
STACK CFI b2b0 .cfa: sp 16 +
STACK CFI b2b4 .cfa: x29 16 + .ra: .cfa -8 + ^ x29: .cfa -16 + ^
STACK CFI INIT b40c 80 .cfa: sp 0 +
STACK CFI b410 .cfa: sp 48 +
STACK CFI b41c .cfa: x29 48 + x19: .cfa -8 + ^ x20: .cfa -16 + ^ x21: .cfa -32 + ^ .ra: .cfa -40 + ^ x29: .cfa -48 + ^
STACK CFI b47c .cfa: sp 48 +
STACK CFI b488 .cfa: sp 0 +
STACK CFI INIT b48c 24 .cfa: sp 0 +
STACK CFI b490 .cfa: sp 32 +
STACK CFI b498 .cfa: x29 32 + x19: .cfa -16 + ^ .ra: .cfa -24 + ^ x29: .cfa -32 + ^
STACK CFI b4a4 .cfa: sp 32 +
STACK CFI b4ac .cfa: sp 0 +
STACK CFI INIT b9a8 148 .cfa: sp 0 +
STACK CFI b9ac .cfa: sp 48 +
STACK CFI b9b8 .cfa: x29 48 + x19: .cfa -8 + ^ x20: .cfa -16 + ^ x21: .cfa -32 + ^ .ra: .cfa -40 + ^ x29: .cfa -48 + ^
STACK CFI bae0 .cfa: sp 48 +
STACK CFI baec .cfa: sp 0 +
STACK CFI INIT bd14 80 .cfa: sp 0 +
STACK CFI bd18 .cfa: sp 48 +
STACK CFI bd24 .cfa: x29 48 + x19: .cfa -8 + ^ x20: .cfa -16 + ^ x21: .cfa -24 + ^ x22: .cfa -32 + ^ .ra: .cfa -40 + ^ x29: .cfa -48 + ^
STACK CFI bd3c .cfa: sp 48 +
STACK CFI bd48 .cfa: sp 0 +
STACK CFI bd4c .cfa: x29 48 +
STACK CFI bd7c .cfa: sp 48 +
STACK CFI bd88 .cfa: sp 0 +
STACK CFI bd8c .cfa: x29 48 +
STACK CFI INIT bd94 68 .cfa: sp 0 +
STACK CFI bd98 .cfa: sp 32 +
STACK CFI bda0 .cfa: x29 32 + x19: .cfa -8 + ^ x20: .cfa -16 + ^ .ra: .cfa -24 + ^ x29: .cfa -32 + ^
STACK CFI bdb8 .cfa: sp 32 +
STACK CFI bdc0 .cfa: sp 0 +
STACK CFI bdc4 .cfa: x29 32 +
STACK CFI bdf0 .cfa: sp 32 +
STACK CFI bdf8 .cfa: sp 0 +
STACK CFI INIT bdfc 14 .cfa: sp 0 +
STACK CFI be00 .cfa: sp 16 +
STACK CFI be04 .cfa: x29 16 + .ra: .cfa -8 + ^ x29: .cfa -16 + ^
STACK CFI INIT be10 4 .cfa: sp 0 +
STACK CFI INIT be14 14 .cfa: sp 0 +
STACK CFI INIT be28 120 .cfa: sp 0 +
STACK CFI be2c .cfa: sp 64 +
STACK CFI be3c .cfa: x29 64 + x19: .cfa -8 + ^ x20: .cfa -16 + ^ x21: .cfa -24 + ^ x22: .cfa -32 + ^ x23: .cfa -40 + ^ x24: .cfa -48 + ^ .ra: .cfa -56 + ^ x29: .cfa -64 + ^
STACK CFI bf34 .cfa: sp 64 +
STACK CFI bf44 .cfa: sp 0 +
STACK CFI INIT bf48 4a4 .cfa: sp 0 +
STACK CFI bf4c .cfa: sp 32 +
STACK CFI bf54 .cfa: x29 32 + x19: .cfa -8 + ^ x20: .cfa -16 + ^ .ra: .cfa -24 + ^ x29: .cfa -32 + ^
STACK CFI c334 .cfa: sp 32 +
STACK CFI c33c .cfa: sp 0 +
STACK CFI c340 .cfa: x29 32 +
STACK CFI INIT c3ec 84 .cfa: sp 0 +
STACK CFI c3f4 .cfa: sp 32 +
STACK CFI c3fc .cfa: x29 32 + x19: .cfa -8 + ^ x20: .cfa -16 + ^ .ra: .cfa -24 + ^ x29: .cfa -32 + ^
STACK CFI c43c .cfa: sp 32 +
STACK CFI c444 .cfa: sp 0 +
STACK CFI c44c .cfa: x29 32 +
STACK CFI INIT caf0 9c .cfa: sp 0 +
STACK CFI INIT cb8c 50 .cfa: sp 0 +
STACK CFI cb90 .cfa: sp 32 +
STACK CFI cb98 .cfa: x29 32 + x19: .cfa -16 + ^ .ra: .cfa -24 + ^ x29: .cfa -32 + ^
STACK CFI cbb0 .cfa: sp 32 +
STACK CFI cbb8 .cfa: sp 0 +
STACK CFI cbbc .cfa: x29 32 +
STACK CFI cbd0 .cfa: sp 32 +
STACK CFI cbd8 .cfa: sp 0 +
STACK CFI INIT cbdc 64 .cfa: sp 0 +
STACK CFI cbe0 .cfa: sp 32 +
STACK CFI cbe8 .cfa: x29 32 + x19: .cfa -16 + ^ .ra: .cfa -24 + ^ x29: .cfa -32 + ^
STACK CFI cc14 .cfa: sp 32 +
STACK CFI cc1c .cfa: sp 0 +
STACK CFI cc20 .cfa: x29 32 +
STACK CFI cc34 .cfa: sp 32 +
STACK CFI cc3c .cfa: sp 0 +
STACK CFI INIT cc40 14 .cfa: sp 0 +
STACK CFI cc44 .cfa: sp 16 +
STACK CFI cc48 .cfa: x29 16 + .ra: .cfa -8 + ^ x29: .cfa -16 + ^
STACK CFI INIT cdec 130 .cfa: sp 0 +
STACK CFI cdf0 .cfa: sp 80 +
STACK CFI ce00 .cfa: x29 48 + x19: .cfa -8 + ^ x20: .cfa -16 + ^ x21: .cfa -24 + ^ x22: .cfa -32 + ^ .ra: .cfa -40 + ^ x29: .cfa -48 + ^
STACK CFI cf04 .cfa: sp 80 +
STACK CFI cf14 .cfa: sp 0 +
STACK CFI cf18 .cfa: x29 48 +
STACK CFI INIT cf1c f8 .cfa: sp 0 +
STACK CFI cf20 .cfa: sp 64 +
STACK CFI cf30 .cfa: x29 64 + x19: .cfa -8 + ^ x20: .cfa -16 + ^ x21: .cfa -24 + ^ x22: .cfa -32 + ^ x23: .cfa -48 + ^ .ra: .cfa -56 + ^ x29: .cfa -64 + ^
STACK CFI cf8c .cfa: sp 64 +
STACK CFI cf9c .cfa: sp 0 +
STACK CFI cfa0 .cfa: x29 64 +
STACK CFI cfbc .cfa: sp 64 +
STACK CFI cfcc .cfa: sp 0 +
STACK CFI cfd0 .cfa: x29 64 +
STACK CFI d000 .cfa: sp 64 +
STACK CFI d010 .cfa: sp 0 +
STACK CFI INIT d014 50 .cfa: sp 0 +
STACK CFI d018 .cfa: sp 32 +
STACK CFI d020 .cfa: x29 32 + x19: .cfa -16 + ^ .ra: .cfa -24 + ^ x29: .cfa -32 + ^
STACK CFI d038 .cfa: sp 32 +
STACK CFI d040 .cfa: sp 0 +
STACK CFI d044 .cfa: x29 32 +
STACK CFI d058 .cfa: sp 32 +
STACK CFI d060 .cfa: sp 0 +
STACK CFI INIT d064 168 .cfa: sp 0 +
STACK CFI d068 .cfa: sp 80 +
STACK CFI d07c .cfa: x29 80 + x19: .cfa -8 + ^ x20: .cfa -16 + ^ x21: .cfa -24 + ^ x22: .cfa -32 + ^ x23: .cfa -40 + ^ x24: .cfa -48 + ^ x25: .cfa -56 + ^ x26: .cfa -64 + ^ .ra: .cfa -72 + ^ x29: .cfa -80 + ^
STACK CFI d1b4 .cfa: sp 80 +
STACK CFI d1c8 .cfa: sp 0 +
STACK CFI INIT d1cc 1b0 .cfa: sp 0 +
STACK CFI INIT d708 4 .cfa: sp 0 +
STACK CFI INIT dc2c 3c .cfa: sp 0 +
STACK CFI dc30 .cfa: sp 32 +
STACK CFI dc38 .cfa: x29 32 + x19: .cfa -16 + ^ .ra: .cfa -24 + ^ x29: .cfa -32 + ^
STACK CFI dc44 .cfa: sp 32 +
STACK CFI dc4c .cfa: sp 0 +
STACK CFI dc50 .cfa: x29 32 +
STACK CFI dc5c .cfa: sp 32 +
STACK CFI dc64 .cfa: sp 0 +
STACK CFI INIT de88 64 .cfa: sp 0 +
STACK CFI de8c .cfa: sp 32 +
STACK CFI de94 .cfa: x29 32 + x19: .cfa -16 + ^ .ra: .cfa -24 + ^ x29: .cfa -32 + ^
STACK CFI dec0 .cfa: sp 32 +
STACK CFI dec8 .cfa: sp 0 +
STACK CFI decc .cfa: x29 32 +
STACK CFI dee0 .cfa: sp 32 +
STACK CFI dee8 .cfa: sp 0 +
STACK CFI INIT e844 4 .cfa: sp 0 +
STACK CFI INIT e848 14 .cfa: sp 0 +
STACK CFI INIT a310 484 .cfa: sp 0 +
STACK CFI a314 .cfa: sp 224 +
STACK CFI a330 .cfa: x29 96 + x19: .cfa -8 + ^ x20: .cfa -16 + ^ x21: .cfa -24 + ^ x22: .cfa -32 + ^ x23: .cfa -40 + ^ x24: .cfa -48 + ^ x25: .cfa -56 + ^ x26: .cfa -64 + ^ x27: .cfa -72 + ^ x28: .cfa -80 + ^ .ra: .cfa -88 + ^ x29: .cfa -96 + ^
STACK CFI a5a0 .cfa: sp 224 +
STACK CFI a5bc .cfa: sp 0 +
STACK CFI a5c0 .cfa: x29 96 +
STACK CFI a68c .cfa: sp 224 +
STACK CFI a6a8 .cfa: sp 0 +
STACK CFI a6ac .cfa: x29 96 +
STACK CFI INIT a7ac 484 .cfa: sp 0 +
STACK CFI a7b0 .cfa: sp 224 +
STACK CFI a7cc .cfa: x29 96 + x19: .cfa -8 + ^ x20: .cfa -16 + ^ x21: .cfa -24 + ^ x22: .cfa -32 + ^ x23: .cfa -40 + ^ x24: .cfa -48 + ^ x25: .cfa -56 + ^ x26: .cfa -64 + ^ x27: .cfa -72 + ^ x28: .cfa -80 + ^ .ra: .cfa -88 + ^ x29: .cfa -96 + ^
STACK CFI aa3c .cfa: sp 224 +
STACK CFI aa58 .cfa: sp 0 +
STACK CFI aa5c .cfa: x29 96 +
STACK CFI ab28 .cfa: sp 224 +
STACK CFI ab44 .cfa: sp 0 +
STACK CFI ab48 .cfa: x29 96 +
STACK CFI INIT ac5c 50 .cfa: sp 0 +
STACK CFI ac60 .cfa: sp 32 +
STACK CFI ac68 .cfa: x29 32 + x19: .cfa -8 + ^ x20: .cfa -16 + ^ .ra: .cfa -24 + ^ x29: .cfa -32 + ^
STACK CFI INIT ad20 2f4 .cfa: sp 0 +
STACK CFI ad24 .cfa: sp 176 +
STACK CFI ad38 .cfa: x29 64 + x19: .cfa -8 + ^ x20: .cfa -16 + ^ x21: .cfa -24 + ^ x22: .cfa -32 + ^ x23: .cfa -48 + ^ .ra: .cfa -56 + ^ x29: .cfa -64 + ^
STACK CFI af0c .cfa: sp 176 +
STACK CFI af20 .cfa: sp 0 +
STACK CFI af24 .cfa: x29 64 +
STACK CFI INIT b064 74 .cfa: sp 0 +
STACK CFI b068 .cfa: sp 48 +
STACK CFI b074 .cfa: x29 32 + x19: .cfa -8 + ^ x20: .cfa -16 + ^ .ra: .cfa -24 + ^ x29: .cfa -32 + ^
STACK CFI b0c0 .cfa: sp 48 +
STACK CFI b0cc .cfa: sp 0 +
STACK CFI b0d0 .cfa: x29 32 +
STACK CFI INIT b158 154 .cfa: sp 0 +
STACK CFI b15c .cfa: sp 384 +
STACK CFI b170 .cfa: x29 64 + x19: .cfa -8 + ^ x20: .cfa -16 + ^ x21: .cfa -24 + ^ x22: .cfa -32 + ^ x23: .cfa -40 + ^ x28: .cfa -48 + ^ .ra: .cfa -56 + ^ x29: .cfa -64 + ^
STACK CFI b254 .cfa: sp 384 +
STACK CFI b268 .cfa: sp 0 +
STACK CFI b26c .cfa: x29 64 +
STACK CFI INIT b2e0 12c .cfa: sp 0 +
STACK CFI b2e4 .cfa: sp 80 +
STACK CFI b2f8 .cfa: x29 80 + x19: .cfa -8 + ^ x20: .cfa -16 + ^ x21: .cfa -24 + ^ x22: .cfa -32 + ^ x23: .cfa -40 + ^ x24: .cfa -48 + ^ x25: .cfa -56 + ^ x26: .cfa -64 + ^ .ra: .cfa -72 + ^ x29: .cfa -80 + ^
STACK CFI b3c0 .cfa: sp 80 +
STACK CFI b3d4 .cfa: sp 0 +
STACK CFI b3d8 .cfa: x29 80 +
STACK CFI INIT b4b0 1a4 .cfa: sp 0 +
STACK CFI b4b4 .cfa: sp 112 +
STACK CFI b4cc .cfa: x29 80 + x19: .cfa -8 + ^ x20: .cfa -16 + ^ x21: .cfa -24 + ^ x22: .cfa -32 + ^ x23: .cfa -40 + ^ x24: .cfa -48 + ^ x25: .cfa -56 + ^ x26: .cfa -64 + ^ .ra: .cfa -72 + ^ x29: .cfa -80 + ^
STACK CFI b5bc .cfa: sp 112 +
STACK CFI b5d4 .cfa: sp 0 +
STACK CFI b5d8 .cfa: x29 80 +
STACK CFI INIT b654 1dc .cfa: sp 0 +
STACK CFI b658 .cfa: sp 128 +
STACK CFI b674 .cfa: x29 96 + x19: .cfa -8 + ^ x20: .cfa -16 + ^ x21: .cfa -24 + ^ x22: .cfa -32 + ^ x23: .cfa -40 + ^ x24: .cfa -48 + ^ x25: .cfa -56 + ^ x26: .cfa -64 + ^ x27: .cfa -80 + ^ .ra: .cfa -88 + ^ x29: .cfa -96 + ^
STACK CFI b7e0 .cfa: sp 128 +
STACK CFI b7fc .cfa: sp 0 +
STACK CFI b800 .cfa: x29 96 +
STACK CFI INIT b830 178 .cfa: sp 0 +
STACK CFI b834 .cfa: sp 80 +
STACK CFI b848 .cfa: x29 80 + x19: .cfa -8 + ^ x20: .cfa -16 + ^ x21: .cfa -24 + ^ x22: .cfa -32 + ^ x23: .cfa -40 + ^ x24: .cfa -48 + ^ x25: .cfa -64 + ^ .ra: .cfa -72 + ^ x29: .cfa -80 + ^
STACK CFI b974 .cfa: sp 80 +
STACK CFI b988 .cfa: sp 0 +
STACK CFI b98c .cfa: x29 80 +
STACK CFI INIT baf0 224 .cfa: sp 0 +
STACK CFI baf4 .cfa: sp 128 +
STACK CFI bb0c .cfa: x29 80 + x19: .cfa -8 + ^ x20: .cfa -16 + ^ x21: .cfa -24 + ^ x22: .cfa -32 + ^ x23: .cfa -40 + ^ x24: .cfa -48 + ^ x25: .cfa -64 + ^ .ra: .cfa -72 + ^ x29: .cfa -80 + ^
STACK CFI bca8 .cfa: sp 128 +
STACK CFI bcc0 .cfa: sp 0 +
STACK CFI bcc4 .cfa: x29 80 +
STACK CFI INIT c470 5d8 .cfa: sp 0 +
STACK CFI c474 .cfa: sp 176 +
STACK CFI c490 .cfa: x29 80 + x19: .cfa -8 + ^ x20: .cfa -16 + ^ x21: .cfa -24 + ^ x22: .cfa -32 + ^ x23: .cfa -40 + ^ x24: .cfa -48 + ^ x25: .cfa -56 + ^ x26: .cfa -64 + ^ .ra: .cfa -72 + ^ x29: .cfa -80 + ^ v8: .cfa -96 + ^
STACK CFI c968 .cfa: sp 176 +
STACK CFI c984 .cfa: sp 0 +
STACK CFI c988 .cfa: x29 80 +
STACK CFI INIT ca48 a8 .cfa: sp 0 +
STACK CFI ca4c .cfa: sp 32 +
STACK CFI ca54 .cfa: x29 32 + x19: .cfa -16 + ^ .ra: .cfa -24 + ^ x29: .cfa -32 + ^
STACK CFI ca88 .cfa: sp 32 +
STACK CFI ca90 .cfa: sp 0 +
STACK CFI ca94 .cfa: x29 32 +
STACK CFI ca98 .cfa: sp 32 +
STACK CFI caa0 .cfa: sp 0 +
STACK CFI caa4 .cfa: x29 32 +
STACK CFI INIT cc54 198 .cfa: sp 0 +
STACK CFI cc58 .cfa: sp 96 +
STACK CFI cc6c .cfa: x29 64 + x19: .cfa -8 + ^ x20: .cfa -16 + ^ x21: .cfa -24 + ^ x22: .cfa -32 + ^ x23: .cfa -48 + ^ .ra: .cfa -56 + ^ x29: .cfa -64 + ^
STACK CFI cd6c .cfa: sp 96 +
STACK CFI cd80 .cfa: sp 0 +
STACK CFI cd84 .cfa: x29 64 +
STACK CFI INIT d37c 38c .cfa: sp 0 +
STACK CFI d380 .cfa: sp 208 +
STACK CFI d394 .cfa: x29 64 + x19: .cfa -8 + ^ x20: .cfa -16 + ^ x21: .cfa -24 + ^ x22: .cfa -32 + ^ x23: .cfa -48 + ^ .ra: .cfa -56 + ^ x29: .cfa -64 + ^
STACK CFI d5d8 .cfa: sp 208 +
STACK CFI d5ec .cfa: sp 0 +
STACK CFI d5f0 .cfa: x29 64 +
STACK CFI INIT d70c 520 .cfa: sp 0 +
STACK CFI d710 .cfa: sp 144 +
STACK CFI d728 .cfa: x29 80 + x19: .cfa -8 + ^ x20: .cfa -16 + ^ x21: .cfa -24 + ^ x22: .cfa -32 + ^ x23: .cfa -40 + ^ x24: .cfa -48 + ^ x25: .cfa -64 + ^ .ra: .cfa -72 + ^ x29: .cfa -80 + ^
STACK CFI db80 .cfa: sp 144 +
STACK CFI db98 .cfa: sp 0 +
STACK CFI db9c .cfa: x29 80 +
STACK CFI INIT dc68 134 .cfa: sp 0 +
STACK CFI dc6c .cfa: sp 80 +
STACK CFI dc78 .cfa: x29 32 + x19: .cfa -8 + ^ x20: .cfa -16 + ^ .ra: .cfa -24 + ^ x29: .cfa -32 + ^
STACK CFI dca8 .cfa: sp 80 +
STACK CFI dcb4 .cfa: sp 0 +
STACK CFI dcb8 .cfa: x29 32 +
STACK CFI INIT dd9c 78 .cfa: sp 0 +
STACK CFI dda0 .cfa: sp 32 +
STACK CFI dda8 .cfa: x29 32 + x19: .cfa -8 + ^ x20: .cfa -16 + ^ .ra: .cfa -24 + ^ x29: .cfa -32 + ^
STACK CFI ddb4 .cfa: sp 32 +
STACK CFI ddbc .cfa: sp 0 +
STACK CFI ddc0 .cfa: x29 32 +
STACK CFI INIT de14 74 .cfa: sp 0 +
STACK CFI de18 .cfa: sp 48 +
STACK CFI de24 .cfa: x29 32 + x19: .cfa -8 + ^ x20: .cfa -16 + ^ .ra: .cfa -24 + ^ x29: .cfa -32 + ^
STACK CFI de70 .cfa: sp 48 +
STACK CFI de7c .cfa: sp 0 +
STACK CFI de80 .cfa: x29 32 +
STACK CFI INIT deec 1b8 .cfa: sp 0 +
STACK CFI def0 .cfa: sp 160 +
STACK CFI df0c .cfa: x29 72 + x19: .cfa -8 + ^ x20: .cfa -16 + ^ x21: .cfa -24 + ^ x22: .cfa -32 + ^ x23: .cfa -40 + ^ x24: .cfa -48 + ^ x25: .cfa -56 + ^ .ra: .cfa -64 + ^ x29: .cfa -72 + ^ v8: .cfa -80 + ^
STACK CFI df90 .cfa: sp 160 +
STACK CFI dfac .cfa: sp 0 +
STACK CFI dfb0 .cfa: x29 72 +
STACK CFI INIT e0a4 4e4 .cfa: sp 0 +
STACK CFI e0a8 .cfa: sp 96 +
STACK CFI e0c0 .cfa: x29 80 + x19: .cfa -8 + ^ x20: .cfa -16 + ^ x21: .cfa -24 + ^ x22: .cfa -32 + ^ x23: .cfa -40 + ^ x24: .cfa -48 + ^ x25: .cfa -64 + ^ .ra: .cfa -72 + ^ x29: .cfa -80 + ^
STACK CFI e504 .cfa: sp 96 +
STACK CFI e51c .cfa: sp 0 +
STACK CFI e520 .cfa: x29 80 +
STACK CFI INIT e588 154 .cfa: sp 0 +
STACK CFI e58c .cfa: sp 384 +
STACK CFI e5a0 .cfa: x29 64 + x19: .cfa -8 + ^ x20: .cfa -16 + ^ x21: .cfa -24 + ^ x22: .cfa -32 + ^ x23: .cfa -40 + ^ x28: .cfa -48 + ^ .ra: .cfa -56 + ^ x29: .cfa -64 + ^
STACK CFI e684 .cfa: sp 384 +
STACK CFI e698 .cfa: sp 0 +
STACK CFI e69c .cfa: x29 64 +
STACK CFI INIT e6dc 168 .cfa: sp 0 +
STACK CFI e6e0 .cfa: sp 384 +
STACK CFI e6f4 .cfa: x29 64 + x19: .cfa -8 + ^ x20: .cfa -16 + ^ x21: .cfa -24 + ^ x22: .cfa -32 + ^ x23: .cfa -40 + ^ x28: .cfa -48 + ^ .ra: .cfa -56 + ^ x29: .cfa -64 + ^
STACK CFI e7ec .cfa: sp 384 +
STACK CFI e800 .cfa: sp 0 +
STACK CFI e804 .cfa: x29 64 +
