MODULE Linux arm64 B80EE63F1B55F43CA1737A14158294250 hiimjustin000.gauntlet_projection.android64.so
INFO CODE_ID 3FE60EB8551B3CF4A1737A1415829425EB05C51B
INFO GENERATOR mozilla/dump_syms 2.3.4
PUBLIC 19a20 0 __on_dlclose
PUBLIC 19a30 0 __emutls_unregister_key
PUBLIC 19a38 0 __on_dlclose_late
PUBLIC 19a40 0 __atexit_handler_wrapper
PUBLIC 19a54 0 atexit
PUBLIC 19a70 0 pthread_atfork
PUBLIC 19a80 0 unwind_phase2
PUBLIC 19bb4 0 _Unwind_Resume
PUBLIC 19c38 0 unwind_phase2_forced
PUBLIC m 19d2c 0 __unw_init_local
PUBLIC m 19dd4 0 __unw_get_reg
PUBLIC 19e50 0 __unw_step_stage2
PUBLIC m 19e64 0 __unw_get_proc_info
PUBLIC m 19ea4 0 __unw_resume
PUBLIC 19ecc 0 libunwind::CFI_Parser<libunwind::LocalAddressSpace>::decodeFDE(libunwind::LocalAddressSpace&, unsigned long, libunwind::CFI_Parser<libunwind::LocalAddressSpace>::FDE_Info*, libunwind::CFI_Parser<libunwind::LocalAddressSpace>::CIE_Info*, bool)
PUBLIC 1a05c 0 libunwind::CFI_Parser<libunwind::LocalAddressSpace>::parseCIE(libunwind::LocalAddressSpace&, unsigned long, libunwind::CFI_Parser<libunwind::LocalAddressSpace>::CIE_Info*)
PUBLIC 1a324 0 libunwind::AbstractUnwindCursor::~AbstractUnwindCursor()
PUBLIC 1a32c 0 libunwind::UnwindCursor<libunwind::LocalAddressSpace, libunwind::Registers_arm64>::~UnwindCursor()
PUBLIC 1a334 0 libunwind::UnwindCursor<libunwind::LocalAddressSpace, libunwind::Registers_arm64>::validReg(int)
PUBLIC 1a378 0 libunwind::UnwindCursor<libunwind::LocalAddressSpace, libunwind::Registers_arm64>::getReg(int)
PUBLIC 1a460 0 libunwind::UnwindCursor<libunwind::LocalAddressSpace, libunwind::Registers_arm64>::setReg(int, unsigned long)
PUBLIC 1a548 0 libunwind::UnwindCursor<libunwind::LocalAddressSpace, libunwind::Registers_arm64>::validFloatReg(int)
PUBLIC 1a55c 0 libunwind::UnwindCursor<libunwind::LocalAddressSpace, libunwind::Registers_arm64>::getFloatReg(int)
PUBLIC 1a56c 0 libunwind::UnwindCursor<libunwind::LocalAddressSpace, libunwind::Registers_arm64>::setFloatReg(int, double)
PUBLIC 1a57c 0 libunwind::UnwindCursor<libunwind::LocalAddressSpace, libunwind::Registers_arm64>::step(bool)
PUBLIC 1a66c 0 libunwind::UnwindCursor<libunwind::LocalAddressSpace, libunwind::Registers_arm64>::getInfo(unw_proc_info_t*)
PUBLIC 1a6b0 0 libunwind::UnwindCursor<libunwind::LocalAddressSpace, libunwind::Registers_arm64>::jumpto()
PUBLIC 1a6bc 0 libunwind::UnwindCursor<libunwind::LocalAddressSpace, libunwind::Registers_arm64>::isSignalFrame()
PUBLIC 1a6c8 0 libunwind::UnwindCursor<libunwind::LocalAddressSpace, libunwind::Registers_arm64>::getFunctionName(char*, unsigned long, unsigned long*)
PUBLIC 1a6f4 0 libunwind::UnwindCursor<libunwind::LocalAddressSpace, libunwind::Registers_arm64>::setInfoBasedOnIPRegister(bool)
PUBLIC 1a974 0 libunwind::UnwindCursor<libunwind::LocalAddressSpace, libunwind::Registers_arm64>::getRegisterName(int)
PUBLIC 1a980 0 libunwind::UnwindCursor<libunwind::LocalAddressSpace, libunwind::Registers_arm64>::stepThroughSigReturn(libunwind::Registers_arm64&)
PUBLIC 1aaa0 0 libunwind::DwarfInstructions<libunwind::LocalAddressSpace, libunwind::Registers_arm64>::stepWithDwarf(libunwind::LocalAddressSpace&, unsigned long, unsigned long, libunwind::Registers_arm64&, bool&, bool)
PUBLIC 1af28 0 libunwind::CFI_Parser<libunwind::LocalAddressSpace>::parseFDEInstructions(libunwind::LocalAddressSpace&, libunwind::CFI_Parser<libunwind::LocalAddressSpace>::FDE_Info const&, libunwind::CFI_Parser<libunwind::LocalAddressSpace>::CIE_Info const&, unsigned long, int, libunwind::CFI_Parser<libunwind::LocalAddressSpace>::PrologInfo*)
PUBLIC 1bb70 0 libunwind::DwarfInstructions<libunwind::LocalAddressSpace, libunwind::Registers_arm64>::getCFA(libunwind::LocalAddressSpace&, libunwind::CFI_Parser<libunwind::LocalAddressSpace>::PrologInfo const&, libunwind::Registers_arm64 const&)
PUBLIC 1bca4 0 libunwind::DwarfInstructions<libunwind::LocalAddressSpace, libunwind::Registers_arm64>::getSavedRegister(libunwind::LocalAddressSpace&, libunwind::Registers_arm64 const&, unsigned long, libunwind::CFI_Parser<libunwind::LocalAddressSpace>::RegisterLocation const&)
PUBLIC 1beb4 0 libunwind::LocalAddressSpace::getEncodedP(unsigned long&, unsigned long, unsigned char, unsigned long)
PUBLIC 1c240 0 libunwind::LocalAddressSpace::getULEB128(unsigned long&, unsigned long)
PUBLIC 1c408 0 libunwind::DwarfInstructions<libunwind::LocalAddressSpace, libunwind::Registers_arm64>::evaluateExpression(unsigned long, libunwind::LocalAddressSpace&, libunwind::Registers_arm64 const&, unsigned long)
PUBLIC 1cdc4 0 libunwind::UnwindCursor<libunwind::LocalAddressSpace, libunwind::Registers_arm64>::getInfoFromDwarfSection(unsigned long, libunwind::UnwindInfoSections const&, unsigned int)
PUBLIC 1d098 0 libunwind::findUnwindSectionsByPhdr(dl_phdr_info*, unsigned long, void*)
PUBLIC 1d1cc 0 libunwind::EHHeaderParser<libunwind::LocalAddressSpace>::decodeEHHdr(libunwind::LocalAddressSpace&, unsigned long, unsigned long, libunwind::EHHeaderParser<libunwind::LocalAddressSpace>::EHHeaderInfo&)
PUBLIC 1d2ec 0 libunwind::CFI_Parser<libunwind::LocalAddressSpace>::findFDE(libunwind::LocalAddressSpace&, unsigned long, unsigned long, unsigned long, unsigned long, libunwind::CFI_Parser<libunwind::LocalAddressSpace>::FDE_Info*, libunwind::CFI_Parser<libunwind::LocalAddressSpace>::CIE_Info*)
PUBLIC 1d4b4 0 libunwind::EHHeaderParser<libunwind::LocalAddressSpace>::findFDE(libunwind::LocalAddressSpace&, unsigned long, unsigned long, unsigned int, libunwind::CFI_Parser<libunwind::LocalAddressSpace>::FDE_Info*, libunwind::CFI_Parser<libunwind::LocalAddressSpace>::CIE_Info*)
PUBLIC 1d61c 0 libunwind::EHHeaderParser<libunwind::LocalAddressSpace>::getTableEntrySize(unsigned char)
PUBLIC 1d718 0 libunwind::Registers_arm64::getRegisterName(int)
PUBLIC 1d748 0 __libunwind_Registers_arm64_jumpto
PUBLIC m 1d7d8 0 __unw_getcontext
PUBLIC 1d880 0 __aarch64_ldadd8_acq_rel
PUBLIC 1d8b0 0 init_have_lse_atomics
PUBLIC 1d948 0 __init_cpu_features_constructor
PUBLIC 1dee4 0 __init_cpu_features
PUBLIC 1df70 0 GPGauntletsPopup::create(std::__ndk1::function<void ()> const&)
PUBLIC 1e0ec 0 GPGauntletsPopup::setup(std::__ndk1::function<void ()> const&)
PUBLIC 1ec88 0 geode::Mod::getSavedValue<std::__ndk1::vector<bool, std::__ndk1::allocator<bool> > >(std::__ndk1::basic_string_view<char, std::__ndk1::char_traits<char> >, std::__ndk1::vector<bool, std::__ndk1::allocator<bool> > const&)
PUBLIC 1eeb4 0 std::__ndk1::vector<bool, std::__ndk1::allocator<bool> >::resize(unsigned long, bool)
PUBLIC 1f180 0 geode::cocos::CCMenuItemExt::createSpriteExtra(cocos2d::CCNode*, std::__ndk1::function<void (CCMenuItemSpriteExtra*)>)
PUBLIC 1f54c 0 cocos2d::CCCopying::copyWithZone(cocos2d::CCZone*)
PUBLIC 1f554 0 GPGauntletsPopup::~GPGauntletsPopup()
PUBLIC 1f608 0 GPGauntletsPopup::~GPGauntletsPopup()
PUBLIC 1f6c4 0 geode::Popup<std::__ndk1::function<void ()> const&>::registerWithTouchDispatcher()
PUBLIC 1f6f0 0 geode::Popup<std::__ndk1::function<void ()> const&>::keyDown(cocos2d::enumKeyCodes)
PUBLIC 1f718 0 cocos2d::CCLayerRGBA::setOpacityModifyRGB(bool)
PUBLIC 1f71c 0 cocos2d::CCLayerRGBA::isOpacityModifyRGB()
PUBLIC 1f724 0 geode::Popup<std::__ndk1::function<void ()> const&>::onClose(cocos2d::CCObject*)
PUBLIC 1f86c 0 {virtual override thunk({offset(-320)}, GPGauntletsPopup::~GPGauntletsPopup())}
PUBLIC 1f924 0 {virtual override thunk({offset(-320)}, GPGauntletsPopup::~GPGauntletsPopup())}
PUBLIC 1f9e4 0 {virtual override thunk({offset(-344)}, geode::Popup<std::__ndk1::function<void ()> const&>::keyDown(cocos2d::enumKeyCodes))}
PUBLIC 1fa10 0 cocos2d::CCKeyboardDelegate::keyUp(cocos2d::enumKeyCodes)
PUBLIC 1fa14 0 cocos2d::CCMouseDelegate::rightKeyDown()
PUBLIC 1fa18 0 cocos2d::CCMouseDelegate::rightKeyUp()
PUBLIC 1fa1c 0 cocos2d::CCMouseDelegate::scrollWheel(float, float)
PUBLIC 1fa20 0 {virtual override thunk({offset(-408)}, cocos2d::CCLayerRGBA::setOpacityModifyRGB(bool))}
PUBLIC 1fa24 0 {virtual override thunk({offset(-408)}, cocos2d::CCLayerRGBA::isOpacityModifyRGB())}
PUBLIC 1fa2c 0 geode::Popup<std::__ndk1::function<void ()> const&>::~Popup()
PUBLIC 1fa98 0 geode::Popup<std::__ndk1::function<void ()> const&>::~Popup()
PUBLIC 1fa9c 0 {virtual override thunk({offset(-320)}, geode::Popup<std::__ndk1::function<void ()> const&>::~Popup())}
PUBLIC 1fb08 0 {virtual override thunk({offset(-320)}, geode::Popup<std::__ndk1::function<void ()> const&>::~Popup())}
PUBLIC 1fb0c 0 __clang_call_terminate
PUBLIC 1fb1c 0 std::__ndk1::basic_string<char, std::__ndk1::char_traits<char>, std::__ndk1::allocator<char> >::__throw_length_error[abi:ne180000]() const
PUBLIC 1fb30 0 std::__ndk1::__throw_length_error[abi:ne180000](char const*)
PUBLIC 1fb80 0 std::length_error::length_error[abi:ne180000](char const*)
PUBLIC 1fbb0 0 std::__throw_bad_array_new_length([abi:ne180000], void)
PUBLIC 1fbe4 0 std::__ndk1::vector<bool, std::__ndk1::allocator<bool> >::reserve(unsigned long)
PUBLIC 1fce8 0 std::__ndk1::vector<bool, std::__ndk1::allocator<bool> >::__throw_length_error[abi:ne180000]() const
PUBLIC 1fcfc 0 geode::cocos::CCMenuItemExt::LambdaCallback<CCMenuItemSpriteExtra>::execute(cocos2d::CCNode*)
PUBLIC 1fd6c 0 geode::cocos::CCMenuItemExt::LambdaCallback<CCMenuItemSpriteExtra>::~LambdaCallback()
PUBLIC 1fdc8 0 geode::cocos::CCMenuItemExt::LambdaCallback<CCMenuItemSpriteExtra>::~LambdaCallback()
PUBLIC 1fe2c 0 cocos2d::CCObject::update(float)
PUBLIC 1fe30 0 std::__ndk1::__throw_bad_function_call[abi:ne180000]()
PUBLIC 1fe64 0 std::__ndk1::bad_function_call::~bad_function_call()
PUBLIC 1fe88 0 geode::Popup<std::__ndk1::function<void ()> const&>::initBase(float, float, std::__ndk1::function<void ()> const&, char const*, cocos2d::CCRect, bool)
PUBLIC 2019c 0 geode::impl::ResultData<matjson::Value&, std::__ndk1::basic_string<char, std::__ndk1::char_traits<char>, std::__ndk1::allocator<char> > >::~ResultData()
PUBLIC 20210 0 std::__ndk1::vector<bool, std::__ndk1::allocator<bool> >::vector(std::__ndk1::vector<bool, std::__ndk1::allocator<bool> > const&)
PUBLIC 20314 0 geode::impl::ResultData<std::__ndk1::vector<bool, std::__ndk1::allocator<bool> >, std::__ndk1::basic_string<char, std::__ndk1::char_traits<char>, std::__ndk1::allocator<char> > >::~ResultData()
PUBLIC 20388 0 _ZN7matjson9SerializeINSt6__ndk16vectorIbNS1_9allocatorIbEEEEE8fromJsonERKNS_5ValueEQrQS9__Xcldtfp_2asIT_EEE
PUBLIC 2069c 0 geode::impl::ResultData<bool, std::__ndk1::basic_string<char, std::__ndk1::char_traits<char>, std::__ndk1::allocator<char> > >::~ResultData()
PUBLIC 20710 0 std::__ndk1::__throw_bad_variant_access[abi:ne180000]()
PUBLIC 20744 0 std::__ndk1::basic_stringstream<char, std::__ndk1::char_traits<char>, std::__ndk1::allocator<char> >::basic_stringstream[abi:ne180000]()
PUBLIC m 20870 0 std::__ndk1::basic_stringstream<char, std::__ndk1::char_traits<char>, std::__ndk1::allocator<char> >::~basic_stringstream()
PUBLIC 208f0 0 geode::UnwrapException::~UnwrapException()
PUBLIC 20914 0 std::__ndk1::__put_character_sequence[abi:ne180000]<char, std::__ndk1::char_traits<char> >(std::__ndk1::basic_ostream<char, std::__ndk1::char_traits<char> >, std::__ndk1::basic_ostream const*, unsigned long)
PUBLIC 20ab8 0 std::__ndk1::__pad_and_output[abi:ne180000]<char, std::__ndk1::char_traits<char> >(std::__ndk1::char_traits<char>, std::__ndk1::ostreambuf_iterator const*, std::__ndk1::ostreambuf_iterator const, std::__ndk1::ostreambuf_iterator const, std::__ndk1::ios_base&, std::__ndk1::ostreambuf_iterator)
PUBLIC 20c94 0 std::__ndk1::basic_stringbuf<char, std::__ndk1::char_traits<char>, std::__ndk1::allocator<char> >::str[abi:ne180000]() &&
PUBLIC 20e0c 0 std::__ndk1::basic_stringbuf<char, std::__ndk1::char_traits<char>, std::__ndk1::allocator<char> >::__init_buf_ptrs[abi:ne180000]()
PUBLIC 20f54 0 _ZN5geode15UnwrapExceptionC2IRNSt6__ndk112basic_stringIcNS2_11char_traitsIcEENS2_9allocatorIcEEEEQsr4implE18IsStringStreamableIT_EEENS_4impl6ErrTagEOSA_
PUBLIC 210bc 0 std::__ndk1::__variant_detail::__visitation::__base::__dispatcher<(unsigned long)0>::__dispatch[abi:ne180000]<std::__ndk1::__variant_detail::__dtor<std::__ndk1::__variant_detail::__traits<bool, std::__ndk1::basic_string<char, std::__ndk1::char_traits<char>, std::__ndk1::allocator<char> > >, (std::__ndk1::__variant_detail::_Trait)1>::__destroy[abi:ne180000]()::{lambda(auto:1&)#1}, std::__ndk1::__variant_detail::__base<(std::__ndk1::__variant_detail::__traits<bool, std::__ndk1::basic_string<char, std::__ndk1::char_traits<char>, std::__ndk1::allocator<char> > >)1, bool, std::__ndk1::allocator<char> >&>(std::__ndk1::__variant_detail::__dtor<std::__ndk1::__variant_detail::__traits<bool, std::__ndk1::basic_string<char, std::__ndk1::char_traits<char>, std::__ndk1::allocator<char> > >, (std::__ndk1::__variant_detail::_Trait)1>, std::__ndk1::__variant_detail::__base<(std::__ndk1::__variant_detail::__traits<bool, std::__ndk1::basic_string<char, std::__ndk1::char_traits<char>, std::__ndk1::allocator<char> > >)1, bool, std::__ndk1::allocator<char> >&)
PUBLIC 210c0 0 std::__ndk1::__variant_detail::__visitation::__base::__dispatcher<(unsigned long)1>::__dispatch[abi:ne180000]<std::__ndk1::__variant_detail::__dtor<std::__ndk1::__variant_detail::__traits<bool, std::__ndk1::basic_string<char, std::__ndk1::char_traits<char>, std::__ndk1::allocator<char> > >, (std::__ndk1::__variant_detail::_Trait)1>::__destroy[abi:ne180000]()::{lambda(auto:1&)#1}, std::__ndk1::__variant_detail::__base<(std::__ndk1::__variant_detail::__traits<bool, std::__ndk1::basic_string<char, std::__ndk1::char_traits<char>, std::__ndk1::allocator<char> > >)1, bool, std::__ndk1::allocator<char> >&>(std::__ndk1::__variant_detail::__dtor<std::__ndk1::__variant_detail::__traits<bool, std::__ndk1::basic_string<char, std::__ndk1::char_traits<char>, std::__ndk1::allocator<char> > >, (std::__ndk1::__variant_detail::_Trait)1>, std::__ndk1::__variant_detail::__base<(std::__ndk1::__variant_detail::__traits<bool, std::__ndk1::basic_string<char, std::__ndk1::char_traits<char>, std::__ndk1::allocator<char> > >)1, bool, std::__ndk1::allocator<char> >&)
PUBLIC 210d4 0 std::__ndk1::basic_string<char, std::__ndk1::char_traits<char>, std::__ndk1::allocator<char> >::__init_copy_ctor_external(char const*, unsigned long)
PUBLIC 21154 0 std::__ndk1::__variant_detail::__visitation::__base::__dispatcher<(unsigned long)0>::__dispatch[abi:ne180000]<std::__ndk1::__variant_detail::__dtor<std::__ndk1::__variant_detail::__traits<std::__ndk1::reference_wrapper<matjson::Value>, std::__ndk1::basic_string<char, std::__ndk1::char_traits<char>, std::__ndk1::allocator<char> > >, (std::__ndk1::__variant_detail::_Trait)1>::__destroy[abi:ne180000]()::{lambda(auto:1&)#1}, std::__ndk1::__variant_detail::__base<(std::__ndk1::__variant_detail::__traits<std::__ndk1::reference_wrapper<matjson::Value>, std::__ndk1::basic_string<char, std::__ndk1::char_traits<char>, std::__ndk1::allocator<char> > >)1, matjson::Value, std::__ndk1::allocator<char> >&>(std::__ndk1::__variant_detail::__dtor<std::__ndk1::__variant_detail::__traits<std::__ndk1::reference_wrapper<matjson::Value>, std::__ndk1::basic_string<char, std::__ndk1::char_traits<char>, std::__ndk1::allocator<char> > >, (std::__ndk1::__variant_detail::_Trait)1>, std::__ndk1::__variant_detail::__base<(std::__ndk1::__variant_detail::__traits<std::__ndk1::reference_wrapper<matjson::Value>, std::__ndk1::basic_string<char, std::__ndk1::char_traits<char>, std::__ndk1::allocator<char> > >)1, matjson::Value, std::__ndk1::allocator<char> >&)
PUBLIC 21158 0 std::__ndk1::__variant_detail::__visitation::__base::__dispatcher<(unsigned long)1>::__dispatch[abi:ne180000]<std::__ndk1::__variant_detail::__dtor<std::__ndk1::__variant_detail::__traits<std::__ndk1::reference_wrapper<matjson::Value>, std::__ndk1::basic_string<char, std::__ndk1::char_traits<char>, std::__ndk1::allocator<char> > >, (std::__ndk1::__variant_detail::_Trait)1>::__destroy[abi:ne180000]()::{lambda(auto:1&)#1}, std::__ndk1::__variant_detail::__base<(std::__ndk1::__variant_detail::__traits<std::__ndk1::reference_wrapper<matjson::Value>, std::__ndk1::basic_string<char, std::__ndk1::char_traits<char>, std::__ndk1::allocator<char> > >)1, matjson::Value, std::__ndk1::allocator<char> >&>(std::__ndk1::__variant_detail::__dtor<std::__ndk1::__variant_detail::__traits<std::__ndk1::reference_wrapper<matjson::Value>, std::__ndk1::basic_string<char, std::__ndk1::char_traits<char>, std::__ndk1::allocator<char> > >, (std::__ndk1::__variant_detail::_Trait)1>, std::__ndk1::__variant_detail::__base<(std::__ndk1::__variant_detail::__traits<std::__ndk1::reference_wrapper<matjson::Value>, std::__ndk1::basic_string<char, std::__ndk1::char_traits<char>, std::__ndk1::allocator<char> > >)1, matjson::Value, std::__ndk1::allocator<char> >&)
PUBLIC 2116c 0 std::__ndk1::__variant_detail::__visitation::__base::__dispatcher<(unsigned long)0>::__dispatch[abi:ne180000]<std::__ndk1::__variant_detail::__dtor<std::__ndk1::__variant_detail::__traits<std::__ndk1::vector<bool, std::__ndk1::allocator<bool> >, std::__ndk1::basic_string<char, std::__ndk1::char_traits<char>, std::__ndk1::vector<char> > >, (std::__ndk1::__variant_detail::_Trait)1>::__destroy[abi:ne180000]()::{lambda(auto:1&)#1}, std::__ndk1::__variant_detail::__base<(std::__ndk1::__variant_detail::__traits<std::__ndk1::vector<bool, std::__ndk1::allocator<bool> >, std::__ndk1::basic_string<char, std::__ndk1::char_traits<char>, std::__ndk1::vector<char> > >)1, std::__ndk1::allocator<bool>, std::__ndk1::vector<char> >&>(std::__ndk1::__variant_detail::__dtor<std::__ndk1::__variant_detail::__traits<std::__ndk1::vector<bool, std::__ndk1::allocator<bool> >, std::__ndk1::basic_string<char, std::__ndk1::char_traits<char>, std::__ndk1::vector<char> > >, (std::__ndk1::__variant_detail::_Trait)1>, std::__ndk1::__variant_detail::__base<(std::__ndk1::__variant_detail::__traits<std::__ndk1::vector<bool, std::__ndk1::allocator<bool> >, std::__ndk1::basic_string<char, std::__ndk1::char_traits<char>, std::__ndk1::vector<char> > >)1, std::__ndk1::allocator<bool>, std::__ndk1::vector<char> >&)
PUBLIC 2117c 0 std::__ndk1::__variant_detail::__visitation::__base::__dispatcher<(unsigned long)1>::__dispatch[abi:ne180000]<std::__ndk1::__variant_detail::__dtor<std::__ndk1::__variant_detail::__traits<std::__ndk1::vector<bool, std::__ndk1::allocator<bool> >, std::__ndk1::basic_string<char, std::__ndk1::char_traits<char>, std::__ndk1::vector<char> > >, (std::__ndk1::__variant_detail::_Trait)1>::__destroy[abi:ne180000]()::{lambda(auto:1&)#1}, std::__ndk1::__variant_detail::__base<(std::__ndk1::__variant_detail::__traits<std::__ndk1::vector<bool, std::__ndk1::allocator<bool> >, std::__ndk1::basic_string<char, std::__ndk1::char_traits<char>, std::__ndk1::vector<char> > >)1, std::__ndk1::allocator<bool>, std::__ndk1::vector<char> >&>(std::__ndk1::__variant_detail::__dtor<std::__ndk1::__variant_detail::__traits<std::__ndk1::vector<bool, std::__ndk1::allocator<bool> >, std::__ndk1::basic_string<char, std::__ndk1::char_traits<char>, std::__ndk1::vector<char> > >, (std::__ndk1::__variant_detail::_Trait)1>, std::__ndk1::__variant_detail::__base<(std::__ndk1::__variant_detail::__traits<std::__ndk1::vector<bool, std::__ndk1::allocator<bool> >, std::__ndk1::basic_string<char, std::__ndk1::char_traits<char>, std::__ndk1::vector<char> > >)1, std::__ndk1::allocator<bool>, std::__ndk1::vector<char> >&)
PUBLIC 21190 0 _ZN7matjson9SerializeINSt6__ndk16vectorIbNS1_9allocatorIbEEEEE6toJsonERKS5_QrQRKT__XcvNS_5ValueEfp_E
PUBLIC 2136c 0 std::__ndk1::vector<matjson::Value, std::__ndk1::allocator<matjson::Value> >::reserve(unsigned long)
PUBLIC 2144c 0 std::__ndk1::vector<matjson::Value, std::__ndk1::allocator<matjson::Value> >::~vector[abi:ne180000]()
PUBLIC 214b4 0 std::__ndk1::vector<matjson::Value, std::__ndk1::allocator<matjson::Value> >::__throw_length_error[abi:ne180000]() const
PUBLIC 214c8 0 std::__ndk1::vector<matjson::Value, std::__ndk1::allocator<matjson::Value> >::__push_back_slow_path<matjson::Value>(matjson::Value&&)
PUBLIC 215e4 0 geode::cast::traverseTypeinfoFor(void*, geode::cast::ClassTypeinfoType const*, char const*)
PUBLIC 216e0 0 std::__ndk1::__function::__base<void (CCMenuItemSpriteExtra*)>::~__base()
PUBLIC 216e4 0 std::__ndk1::__function::__func<GPGauntletsPopup::setup(std::__ndk1::function<void ()> const&)::$_0, std::__ndk1::allocator<GPGauntletsPopup::setup(std::__ndk1::function<void ()> const&)::$_0>, void (CCMenuItemSpriteExtra*)>::~__func()
PUBLIC 216e8 0 std::__ndk1::__function::__func<GPGauntletsPopup::setup(std::__ndk1::function<void ()> const&)::$_0, std::__ndk1::allocator<GPGauntletsPopup::setup(std::__ndk1::function<void ()> const&)::$_0>, void (CCMenuItemSpriteExtra*)>::__clone() const
PUBLIC 21728 0 std::__ndk1::__function::__func<GPGauntletsPopup::setup(std::__ndk1::function<void ()> const&)::$_0, std::__ndk1::allocator<GPGauntletsPopup::setup(std::__ndk1::function<void ()> const&)::$_0>, void (CCMenuItemSpriteExtra*)>::__clone(std::__ndk1::__function::__base<void (CCMenuItemSpriteExtra*)>*) const
PUBLIC 21748 0 std::__ndk1::__function::__func<GPGauntletsPopup::setup(std::__ndk1::function<void ()> const&)::$_0, std::__ndk1::allocator<GPGauntletsPopup::setup(std::__ndk1::function<void ()> const&)::$_0>, void (CCMenuItemSpriteExtra*)>::destroy()
PUBLIC 2174c 0 std::__ndk1::__function::__func<GPGauntletsPopup::setup(std::__ndk1::function<void ()> const&)::$_0, std::__ndk1::allocator<GPGauntletsPopup::setup(std::__ndk1::function<void ()> const&)::$_0>, void (CCMenuItemSpriteExtra*)>::destroy_deallocate()
PUBLIC 21750 0 std::__ndk1::__function::__func<GPGauntletsPopup::setup(std::__ndk1::function<void ()> const&)::$_0, std::__ndk1::allocator<GPGauntletsPopup::setup(std::__ndk1::function<void ()> const&)::$_0>, void (CCMenuItemSpriteExtra*)>::operator()(CCMenuItemSpriteExtra*&&)
PUBLIC 217f0 0 std::__ndk1::__function::__func<GPGauntletsPopup::setup(std::__ndk1::function<void ()> const&)::$_0, std::__ndk1::allocator<GPGauntletsPopup::setup(std::__ndk1::function<void ()> const&)::$_0>, void (CCMenuItemSpriteExtra*)>::target(std::type_info const&) const
PUBLIC 2180c 0 std::__ndk1::__function::__func<GPGauntletsPopup::setup(std::__ndk1::function<void ()> const&)::$_0, std::__ndk1::allocator<GPGauntletsPopup::setup(std::__ndk1::function<void ()> const&)::$_0>, void (CCMenuItemSpriteExtra*)>::target_type() const
PUBLIC 21818 0 geode::Popup<std::__ndk1::function<void ()> const&>::CloseEvent::~CloseEvent()
PUBLIC 21878 0 geode::Popup<std::__ndk1::function<void ()> const&>::CloseEvent::~CloseEvent()
PUBLIC 218e8 0 std::__ndk1::__shared_ptr_emplace<geode::Popup<std::__ndk1::function<void ()> const&>::CloseEvent::Impl, std::__ndk1::allocator<geode::Popup<std::__ndk1::function<void ()> const&>::CloseEvent::Impl> >::~__shared_ptr_emplace()
PUBLIC 218f8 0 std::__ndk1::__shared_ptr_emplace<geode::Popup<std::__ndk1::function<void ()> const&>::CloseEvent::Impl, std::__ndk1::allocator<geode::Popup<std::__ndk1::function<void ()> const&>::CloseEvent::Impl> >::~__shared_ptr_emplace()
PUBLIC 21928 0 std::__ndk1::__shared_ptr_emplace<geode::Popup<std::__ndk1::function<void ()> const&>::CloseEvent::Impl, std::__ndk1::allocator<geode::Popup<std::__ndk1::function<void ()> const&>::CloseEvent::Impl> >::__on_zero_shared()
PUBLIC 2192c 0 std::__ndk1::__shared_ptr_emplace<geode::Popup<std::__ndk1::function<void ()> const&>::CloseEvent::Impl, std::__ndk1::allocator<geode::Popup<std::__ndk1::function<void ()> const&>::CloseEvent::Impl> >::__on_zero_shared_weak()
PUBLIC 21930 0 std::__ndk1::__function::__func<GPGauntletsPopup::setup(std::__ndk1::function<void ()> const&)::$_1, std::__ndk1::allocator<GPGauntletsPopup::setup(std::__ndk1::function<void ()> const&)::$_1>, void (CCMenuItemSpriteExtra*)>::~__func()
PUBLIC 2197c 0 std::__ndk1::__function::__func<GPGauntletsPopup::setup(std::__ndk1::function<void ()> const&)::$_1, std::__ndk1::allocator<GPGauntletsPopup::setup(std::__ndk1::function<void ()> const&)::$_1>, void (CCMenuItemSpriteExtra*)>::~__func()
PUBLIC 219d8 0 std::__ndk1::__function::__func<GPGauntletsPopup::setup(std::__ndk1::function<void ()> const&)::$_1, std::__ndk1::allocator<GPGauntletsPopup::setup(std::__ndk1::function<void ()> const&)::$_1>, void (CCMenuItemSpriteExtra*)>::__clone() const
PUBLIC 21a74 0 std::__ndk1::__function::__func<GPGauntletsPopup::setup(std::__ndk1::function<void ()> const&)::$_1, std::__ndk1::allocator<GPGauntletsPopup::setup(std::__ndk1::function<void ()> const&)::$_1>, void (CCMenuItemSpriteExtra*)>::__clone(std::__ndk1::__function::__base<void (CCMenuItemSpriteExtra*)>*) const
PUBLIC 21afc 0 std::__ndk1::__function::__func<GPGauntletsPopup::setup(std::__ndk1::function<void ()> const&)::$_1, std::__ndk1::allocator<GPGauntletsPopup::setup(std::__ndk1::function<void ()> const&)::$_1>, void (CCMenuItemSpriteExtra*)>::destroy()
PUBLIC 21b3c 0 std::__ndk1::__function::__func<GPGauntletsPopup::setup(std::__ndk1::function<void ()> const&)::$_1, std::__ndk1::allocator<GPGauntletsPopup::setup(std::__ndk1::function<void ()> const&)::$_1>, void (CCMenuItemSpriteExtra*)>::destroy_deallocate()
PUBLIC 21b8c 0 std::__ndk1::__function::__func<GPGauntletsPopup::setup(std::__ndk1::function<void ()> const&)::$_1, std::__ndk1::allocator<GPGauntletsPopup::setup(std::__ndk1::function<void ()> const&)::$_1>, void (CCMenuItemSpriteExtra*)>::operator()(CCMenuItemSpriteExtra*&&)
PUBLIC 21e38 0 std::__ndk1::__function::__func<GPGauntletsPopup::setup(std::__ndk1::function<void ()> const&)::$_1, std::__ndk1::allocator<GPGauntletsPopup::setup(std::__ndk1::function<void ()> const&)::$_1>, void (CCMenuItemSpriteExtra*)>::target(std::type_info const&) const
PUBLIC 21e54 0 std::__ndk1::__function::__func<GPGauntletsPopup::setup(std::__ndk1::function<void ()> const&)::$_1, std::__ndk1::allocator<GPGauntletsPopup::setup(std::__ndk1::function<void ()> const&)::$_1>, void (CCMenuItemSpriteExtra*)>::target_type() const
PUBLIC 21e60 0 TableNode::create(int, int)
PUBLIC 21f8c 0 TableNode::setRowLayout(geode::AxisLayout*)
PUBLIC 22068 0 geode::cocos::CCArrayExt<cocos2d::CCMenu*, cocos2d::CCMenu>::~CCArrayExt()
PUBLIC 22088 0 TableNode::setRowHeight(float)
PUBLIC 22178 0 TableNode::setRowPrefix(std::__ndk1::basic_string<char, std::__ndk1::char_traits<char>, std::__ndk1::allocator<char> > const&)
PUBLIC 223e0 0 TableNode::updateAllLayouts()
PUBLIC 224b8 0 TableNode::addButton(cocos2d::CCMenuItem*)
PUBLIC 22734 0 TableNode::~TableNode()
PUBLIC 22780 0 TableNode::~TableNode()
PUBLIC 227d4 0 std::__ndk1::basic_string<char, std::__ndk1::char_traits<char>, std::__ndk1::allocator<char> >::__assign_no_alias<true>(char const*, unsigned long)
PUBLIC 22880 0 std::__ndk1::basic_string<char, std::__ndk1::char_traits<char>, std::__ndk1::allocator<char> >::__assign_no_alias<false>(char const*, unsigned long)
PUBLIC 22990 0 __aarch64_ldadd8_relax
PUBLIC 229c0 0 __cxx_global_var_init
PUBLIC 23594 0 geode::modifier::ModifyBase<geode::modifier::ModifyDerive<GPGauntletSelectLayer, GauntletSelectLayer> >::~ModifyBase()
PUBLIC 235ac 0 geode::modifier::ModifyDerive<GPGauntletSelectLayer, GauntletSelectLayer>::apply()
PUBLIC 23e6c 0 std::__ndk1::shared_ptr<geode::Hook>::~shared_ptr[abi:ne180000]()
PUBLIC 23ebc 0 geode::impl::ResultData<geode::Hook*, std::__ndk1::basic_string<char, std::__ndk1::char_traits<char>, std::__ndk1::allocator<char> > >::~ResultData()
PUBLIC 23f30 0 std::__ndk1::vector<std::__ndk1::basic_string<char, std::__ndk1::char_traits<char>, std::__ndk1::allocator<char> >, std::__ndk1::allocator<std::__ndk1::basic_string<char, std::__ndk1::char_traits<char>, std::__ndk1::allocator<char> > > >::~vector[abi:ne180000]()
PUBLIC 23fac 0 geode::modifier::ModifyBase<geode::modifier::ModifyDerive<GPGauntletSelectLayer, GauntletSelectLayer> >::apply()
PUBLIC 23fb0 0 _ZN5geode15UnwrapExceptionC2IRPNS_4HookEQsr4implE18IsStringStreamableIT_EEENS_4impl5OkTagEOS5_
PUBLIC 24104 0 std::__ndk1::__split_buffer<std::__ndk1::basic_string<char, std::__ndk1::char_traits<char>, std::__ndk1::allocator<char> >, std::__ndk1::allocator<std::__ndk1::basic_string<char, std::__ndk1::char_traits<char>, std::__ndk1::allocator<char> > >&>::~__split_buffer()
PUBLIC 2416c 0 std::__ndk1::vector<std::__ndk1::basic_string<char, std::__ndk1::char_traits<char>, std::__ndk1::allocator<char> >, std::__ndk1::allocator<std::__ndk1::basic_string<char, std::__ndk1::char_traits<char>, std::__ndk1::allocator<char> > > >::__throw_length_error[abi:ne180000]() const
PUBLIC 24180 0 std::__ndk1::__variant_detail::__visitation::__base::__dispatcher<(unsigned long)0>::__dispatch[abi:ne180000]<std::__ndk1::__variant_detail::__dtor<std::__ndk1::__variant_detail::__traits<geode::Hook*, std::__ndk1::basic_string<char, std::__ndk1::char_traits<char>, std::__ndk1::allocator<char> > >, (std::__ndk1::__variant_detail::_Trait)1>::__destroy[abi:ne180000]()::{lambda(auto:1&)#1}, std::__ndk1::__variant_detail::__base<(std::__ndk1::__variant_detail::__traits<geode::Hook*, std::__ndk1::basic_string<char, std::__ndk1::char_traits<char>, std::__ndk1::allocator<char> > >)1, geode::Hook, std::__ndk1::allocator<char> >&>(std::__ndk1::__variant_detail::__dtor<std::__ndk1::__variant_detail::__traits<geode::Hook*, std::__ndk1::basic_string<char, std::__ndk1::char_traits<char>, std::__ndk1::allocator<char> > >, (std::__ndk1::__variant_detail::_Trait)1>, std::__ndk1::__variant_detail::__base<(std::__ndk1::__variant_detail::__traits<geode::Hook*, std::__ndk1::basic_string<char, std::__ndk1::char_traits<char>, std::__ndk1::allocator<char> > >)1, geode::Hook, std::__ndk1::allocator<char> >&)
PUBLIC 24184 0 std::__ndk1::__variant_detail::__visitation::__base::__dispatcher<(unsigned long)1>::__dispatch[abi:ne180000]<std::__ndk1::__variant_detail::__dtor<std::__ndk1::__variant_detail::__traits<geode::Hook*, std::__ndk1::basic_string<char, std::__ndk1::char_traits<char>, std::__ndk1::allocator<char> > >, (std::__ndk1::__variant_detail::_Trait)1>::__destroy[abi:ne180000]()::{lambda(auto:1&)#1}, std::__ndk1::__variant_detail::__base<(std::__ndk1::__variant_detail::__traits<geode::Hook*, std::__ndk1::basic_string<char, std::__ndk1::char_traits<char>, std::__ndk1::allocator<char> > >)1, geode::Hook, std::__ndk1::allocator<char> >&>(std::__ndk1::__variant_detail::__dtor<std::__ndk1::__variant_detail::__traits<geode::Hook*, std::__ndk1::basic_string<char, std::__ndk1::char_traits<char>, std::__ndk1::allocator<char> > >, (std::__ndk1::__variant_detail::_Trait)1>, std::__ndk1::__variant_detail::__base<(std::__ndk1::__variant_detail::__traits<geode::Hook*, std::__ndk1::basic_string<char, std::__ndk1::char_traits<char>, std::__ndk1::allocator<char> > >)1, geode::Hook, std::__ndk1::allocator<char> >&)
PUBLIC 24198 0 std::__ndk1::__tree<std::__ndk1::__value_type<std::__ndk1::basic_string<char, std::__ndk1::char_traits<char>, std::__ndk1::allocator<char> >, std::__ndk1::shared_ptr<geode::Hook> >, std::__ndk1::__map_value_compare<std::__ndk1::basic_string<char, std::__ndk1::char_traits<char>, std::__ndk1::allocator<char> >, std::__ndk1::__value_type<std::__ndk1::basic_string<char, std::__ndk1::char_traits<char>, std::__ndk1::allocator<char> >, std::__ndk1::shared_ptr<geode::Hook> >, std::__ndk1::less<std::__ndk1::basic_string<char, std::__ndk1::char_traits<char>, std::__ndk1::allocator<char> > >, true>, std::__ndk1::allocator<std::__ndk1::__value_type<std::__ndk1::basic_string<char, std::__ndk1::char_traits<char>, std::__ndk1::allocator<char> >, std::__ndk1::shared_ptr<geode::Hook> > > >::destroy(std::__ndk1::__tree_node<std::__ndk1::__value_type<std::__ndk1::basic_string<char, std::__ndk1::char_traits<char>, std::__ndk1::allocator<char> >, std::__ndk1::shared_ptr<geode::Hook> >, void*>*)
PUBLIC 2421c 0 geode::modifier::AsStaticFunction_init<GPGauntletSelectLayer, bool (GPGauntletSelectLayer::*)(int)>::Impl<bool (GPGauntletSelectLayer::*)(int)>::function(GPGauntletSelectLayer*, int)
PUBLIC 24368 0 geode::modifier::AsStaticFunction_onPlay<GPGauntletSelectLayer, void (GPGauntletSelectLayer::*)(cocos2d::CCObject*)>::Impl<void (GPGauntletSelectLayer::*)(cocos2d::CCObject*)>::function(GPGauntletSelectLayer*, cocos2d::CCObject*)
PUBLIC 24458 0 geode::modifier::AsStaticFunction_setupGauntlets<GPGauntletSelectLayer, void (GPGauntletSelectLayer::*)()>::Impl<void (GPGauntletSelectLayer::*)()>::function(GPGauntletSelectLayer*)
PUBLIC 2445c 0 std::__ndk1::shared_ptr<tulip::hook::CallingConvention>::~shared_ptr[abi:ne180000]()
PUBLIC 244ac 0 tulip::hook::HandlerMetadata::~HandlerMetadata()
PUBLIC 24510 0 geode::modifier::FieldIntermediate<GPGauntletSelectLayer, GauntletSelectLayer>::self()
PUBLIC 24b50 0 GPGauntletSelectLayer::onProject(cocos2d::CCObject*)
PUBLIC 24c38 0 geode::modifier::FieldIntermediate<GPGauntletSelectLayer, GauntletSelectLayer>::fieldDestructor(void*)
PUBLIC 24c3c 0 std::__ndk1::vector<void*, std::__ndk1::allocator<void*> >::__throw_length_error[abi:ne180000]() const
PUBLIC 24c50 0 std::__ndk1::vector<std::__ndk1::function<void (void*)>, std::__ndk1::allocator<std::__ndk1::function<void (void*)> > >::__throw_length_error[abi:ne180000]() const
PUBLIC 24c64 0 std::__ndk1::vector<void*, std::__ndk1::allocator<void*> >::__throw_out_of_range[abi:ne180000]() const
PUBLIC 24c70 0 std::__ndk1::__throw_out_of_range[abi:ne180000](char const*)
PUBLIC 24cc0 0 std::out_of_range::out_of_range[abi:ne180000](char const*)
PUBLIC 24cf0 0 std::__ndk1::vector<std::__ndk1::function<void (void*)>, std::__ndk1::allocator<std::__ndk1::function<void (void*)> > >::__throw_out_of_range[abi:ne180000]() const
PUBLIC 24cfc 0 std::__ndk1::__function::__base<void (void*)>::~__base()
PUBLIC 24d00 0 std::__ndk1::__function::__func<void (*)(void*), std::__ndk1::allocator<void (*)(void*)>, void (void*)>::~__func()
PUBLIC 24d04 0 std::__ndk1::__function::__func<void (*)(void*), std::__ndk1::allocator<void (*)(void*)>, void (void*)>::__clone() const
PUBLIC 24d3c 0 std::__ndk1::__function::__func<void (*)(void*), std::__ndk1::allocator<void (*)(void*)>, void (void*)>::__clone(std::__ndk1::__function::__base<void (void*)>*) const
PUBLIC 24d54 0 std::__ndk1::__function::__func<void (*)(void*), std::__ndk1::allocator<void (*)(void*)>, void (void*)>::destroy()
PUBLIC 24d58 0 std::__ndk1::__function::__func<void (*)(void*), std::__ndk1::allocator<void (*)(void*)>, void (void*)>::destroy_deallocate()
PUBLIC 24d5c 0 std::__ndk1::__function::__func<void (*)(void*), std::__ndk1::allocator<void (*)(void*)>, void (void*)>::operator()(void*&&)
PUBLIC 24d6c 0 std::__ndk1::__function::__func<void (*)(void*), std::__ndk1::allocator<void (*)(void*)>, void (void*)>::target(std::type_info const&) const
PUBLIC 24d88 0 std::__ndk1::__function::__func<void (*)(void*), std::__ndk1::allocator<void (*)(void*)>, void (void*)>::target_type() const
PUBLIC 24d94 0 std::__ndk1::__function::__base<void ()>::~__base()
PUBLIC 24d98 0 std::__ndk1::__function::__func<GPGauntletSelectLayer::onProject(cocos2d::CCObject*)::{lambda()#1}, std::__ndk1::allocator<GPGauntletSelectLayer::onProject(cocos2d::CCObject*)::{lambda()#1}>, void ()>::~__func()
PUBLIC 24d9c 0 std::__ndk1::__function::__func<GPGauntletSelectLayer::onProject(cocos2d::CCObject*)::{lambda()#1}, std::__ndk1::allocator<GPGauntletSelectLayer::onProject(cocos2d::CCObject*)::{lambda()#1}>, void ()>::__clone() const
PUBLIC 24dd4 0 std::__ndk1::__function::__func<GPGauntletSelectLayer::onProject(cocos2d::CCObject*)::{lambda()#1}, std::__ndk1::allocator<GPGauntletSelectLayer::onProject(cocos2d::CCObject*)::{lambda()#1}>, void ()>::__clone(std::__ndk1::__function::__base<void ()>*) const
PUBLIC 24dec 0 std::__ndk1::__function::__func<GPGauntletSelectLayer::onProject(cocos2d::CCObject*)::{lambda()#1}, std::__ndk1::allocator<GPGauntletSelectLayer::onProject(cocos2d::CCObject*)::{lambda()#1}>, void ()>::destroy()
PUBLIC 24df0 0 std::__ndk1::__function::__func<GPGauntletSelectLayer::onProject(cocos2d::CCObject*)::{lambda()#1}, std::__ndk1::allocator<GPGauntletSelectLayer::onProject(cocos2d::CCObject*)::{lambda()#1}>, void ()>::destroy_deallocate()
PUBLIC 24df4 0 std::__ndk1::__function::__func<GPGauntletSelectLayer::onProject(cocos2d::CCObject*)::{lambda()#1}, std::__ndk1::allocator<GPGauntletSelectLayer::onProject(cocos2d::CCObject*)::{lambda()#1}>, void ()>::operator()()
PUBLIC 24ea8 0 std::__ndk1::__function::__func<GPGauntletSelectLayer::onProject(cocos2d::CCObject*)::{lambda()#1}, std::__ndk1::allocator<GPGauntletSelectLayer::onProject(cocos2d::CCObject*)::{lambda()#1}>, void ()>::target(std::type_info const&) const
PUBLIC 24ec4 0 std::__ndk1::__function::__func<GPGauntletSelectLayer::onProject(cocos2d::CCObject*)::{lambda()#1}, std::__ndk1::allocator<GPGauntletSelectLayer::onProject(cocos2d::CCObject*)::{lambda()#1}>, void ()>::target_type() const
PUBLIC 24ed0 0 GPGauntletSelectLayer::setupGauntlets()
PUBLIC 253ac 0 std::__ndk1::__tree<std::__ndk1::__value_type<std::__ndk1::basic_string<char, std::__ndk1::char_traits<char>, std::__ndk1::allocator<char> >, std::__ndk1::shared_ptr<geode::Hook> >, std::__ndk1::__map_value_compare<std::__ndk1::basic_string<char, std::__ndk1::char_traits<char>, std::__ndk1::allocator<char> >, std::__ndk1::__value_type<std::__ndk1::basic_string<char, std::__ndk1::char_traits<char>, std::__ndk1::allocator<char> >, std::__ndk1::shared_ptr<geode::Hook> >, std::__ndk1::less<std::__ndk1::basic_string<char, std::__ndk1::char_traits<char>, std::__ndk1::allocator<char> > >, true>, std::__ndk1::allocator<std::__ndk1::__value_type<std::__ndk1::basic_string<char, std::__ndk1::char_traits<char>, std::__ndk1::allocator<char> >, std::__ndk1::shared_ptr<geode::Hook> > > >::__emplace_unique_key_args<std::__ndk1::basic_string<char, std::__ndk1::char_traits<char>, std::__ndk1::allocator<char> >, std::__ndk1::piecewise_construct_t const&, std::__ndk1::tuple<std::__ndk1::basic_string<char, std::__ndk1::char_traits<char>, std::__ndk1::allocator<char> >&&>, std::__ndk1::tuple<> >(std::__ndk1::basic_string<char, std::__ndk1::char_traits<char>, std::__ndk1::allocator<char> > const&, std::__ndk1::piecewise_construct_t const&, std::__ndk1::tuple<std::__ndk1::basic_string<char, std::__ndk1::char_traits<char>, std::__ndk1::allocator<char> >&&>, std::__ndk1::tuple<>)
PUBLIC 25514 0 std::__ndk1::__tree_balance_after_insert[abi:ne180000]<std::__ndk1::__tree_node_base<void*>*>(std::__ndk1::__tree_node_base<void*>*, std::__ndk1::__tree_node_base<void*>*)
PUBLIC m 256c4 0 geodeImplicitEntry
PUBLIC 25700 0 std::__ndk1::unordered_map<void*, bool, std::__ndk1::hash<void*>, std::__ndk1::equal_to<void*>, std::__ndk1::allocator<std::__ndk1::pair<void* const, bool> > >::~unordered_map[abi:ne180000]()
PUBLIC 2574c 0 wrapFunction(unsigned long, tulip::hook::WrapperMetadata const&)
PUBLIC 25880 0 geode::impl::ResultData<void*, std::__ndk1::basic_string<char, std::__ndk1::char_traits<char>, std::__ndk1::allocator<char> > >::unwrapErr() &
PUBLIC 258f8 0 geode::impl::ResultData<void*, std::__ndk1::basic_string<char, std::__ndk1::char_traits<char>, std::__ndk1::allocator<char> > >::~ResultData()
PUBLIC 2596c 0 tulip::hook::WrapperMetadata::~WrapperMetadata()
PUBLIC 259d0 0 cocos2d::CCObject::CCObject()
PUBLIC 25bf4 0 cocos2d::CCObject::~CCObject()
PUBLIC 25c18 0 cocos2d::CCNode::CCNode()
PUBLIC 25e74 0 cocos2d::CCNode::~CCNode()
PUBLIC 25e98 0 {virtual override thunk({offset(-320)}, cocos2d::CCLayer::~CCLayer())}
PUBLIC 25ea0 0 cocos2d::CCLayer::~CCLayer()
PUBLIC 25ec4 0 {virtual override thunk({offset(-320)}, cocos2d::CCLayer::~CCLayer())}
PUBLIC 25eec 0 cocos2d::CCLayerRGBA::~CCLayerRGBA()
PUBLIC 261ec 0 {virtual override thunk({offset(-320)}, cocos2d::CCLayerRGBA::~CCLayerRGBA())}
PUBLIC 261f4 0 cocos2d::CCLayerRGBA::~CCLayerRGBA()
PUBLIC 26218 0 {virtual override thunk({offset(-320)}, cocos2d::CCLayerRGBA::~CCLayerRGBA())}
PUBLIC 26240 0 cocos2d::CCLayerColor::CCLayerColor()
PUBLIC 264a4 0 {virtual override thunk({offset(-320)}, cocos2d::CCLayerColor::~CCLayerColor())}
PUBLIC 264ac 0 cocos2d::CCLayerColor::~CCLayerColor()
PUBLIC 264d0 0 {virtual override thunk({offset(-320)}, cocos2d::CCLayerColor::~CCLayerColor())}
PUBLIC 264f8 0 cocos2d::CCDictionary::setObject(cocos2d::CCObject*, gd::string const&)
PUBLIC 26658 0 tulip::hook::AbstractFunction::from<void, cocos2d::CCDictionary*, cocos2d::CCObject*, gd::string const&>(void (*)(cocos2d::CCDictionary*, cocos2d::CCObject*, gd::string const&))
PUBLIC 26758 0 cocos2d::CCDictionary::objectForKey(gd::string const&)
PUBLIC 268a8 0 tulip::hook::AbstractFunction::from<cocos2d::CCObject*, cocos2d::CCDictionary*, gd::string const&>(cocos2d::CCObject* (*)(cocos2d::CCDictionary*, gd::string const&))
PUBLIC 26950 0 cocos2d::CCDictionary::removeObjectForKey(gd::string const&)
PUBLIC 26aa0 0 tulip::hook::AbstractFunction::from<void, cocos2d::CCDictionary*, gd::string const&>(void (*)(cocos2d::CCDictionary*, gd::string const&))
PUBLIC 26b4c 0 {virtual override thunk({offset(-320)}, FLAlertLayer::~FLAlertLayer())}
PUBLIC 26b54 0 FLAlertLayer::~FLAlertLayer()
PUBLIC 26b78 0 {virtual override thunk({offset(-320)}, FLAlertLayer::~FLAlertLayer())}
PUBLIC 26ba0 0 cocos2d::CCLayerColor::~CCLayerColor()
PUBLIC 26e84 0 FLAlertLayer::~FLAlertLayer()
PUBLIC 27168 0 cocos2d::CCNode::~CCNode()
PUBLIC 27408 0 cocos2d::CCLayer::~CCLayer()
PUBLIC 276f8 0 cocos2d::CCObject::~CCObject()
PUBLIC 27bec 0 _ZN5geode15UnwrapExceptionC2IRPvQsr4implE18IsStringStreamableIT_EEENS_4impl5OkTagEOS4_
PUBLIC 27d40 0 std::__ndk1::__variant_detail::__visitation::__base::__dispatcher<(unsigned long)0>::__dispatch[abi:ne180000]<std::__ndk1::__variant_detail::__dtor<std::__ndk1::__variant_detail::__traits<void*, std::__ndk1::basic_string<char, std::__ndk1::char_traits<char>, std::__ndk1::allocator<char> > >, (std::__ndk1::__variant_detail::_Trait)1>::__destroy[abi:ne180000]()::{lambda(auto:1&)#1}, std::__ndk1::__variant_detail::__base<(std::__ndk1::__variant_detail::__traits<void*, std::__ndk1::basic_string<char, std::__ndk1::char_traits<char>, std::__ndk1::allocator<char> > >)1, std::__ndk1::__variant_detail::__traits, std::__ndk1::allocator<char> >&>(std::__ndk1::__variant_detail::__dtor<std::__ndk1::__variant_detail::__traits<void*, std::__ndk1::basic_string<char, std::__ndk1::char_traits<char>, std::__ndk1::allocator<char> > >, (std::__ndk1::__variant_detail::_Trait)1>, std::__ndk1::__variant_detail::__base<(std::__ndk1::__variant_detail::__traits<void*, std::__ndk1::basic_string<char, std::__ndk1::char_traits<char>, std::__ndk1::allocator<char> > >)1, std::__ndk1::__variant_detail::__traits, std::__ndk1::allocator<char> >&)
PUBLIC 27d44 0 std::__ndk1::__variant_detail::__visitation::__base::__dispatcher<(unsigned long)1>::__dispatch[abi:ne180000]<std::__ndk1::__variant_detail::__dtor<std::__ndk1::__variant_detail::__traits<void*, std::__ndk1::basic_string<char, std::__ndk1::char_traits<char>, std::__ndk1::allocator<char> > >, (std::__ndk1::__variant_detail::_Trait)1>::__destroy[abi:ne180000]()::{lambda(auto:1&)#1}, std::__ndk1::__variant_detail::__base<(std::__ndk1::__variant_detail::__traits<void*, std::__ndk1::basic_string<char, std::__ndk1::char_traits<char>, std::__ndk1::allocator<char> > >)1, std::__ndk1::__variant_detail::__traits, std::__ndk1::allocator<char> >&>(std::__ndk1::__variant_detail::__dtor<std::__ndk1::__variant_detail::__traits<void*, std::__ndk1::basic_string<char, std::__ndk1::char_traits<char>, std::__ndk1::allocator<char> > >, (std::__ndk1::__variant_detail::_Trait)1>, std::__ndk1::__variant_detail::__base<(std::__ndk1::__variant_detail::__traits<void*, std::__ndk1::basic_string<char, std::__ndk1::char_traits<char>, std::__ndk1::allocator<char> > >)1, std::__ndk1::__variant_detail::__traits, std::__ndk1::allocator<char> >&)
PUBLIC 27d58 0 std::__ndk1::__hash_table<std::__ndk1::__hash_value_type<void*, bool>, std::__ndk1::__unordered_map_hasher<void*, std::__ndk1::__hash_value_type<void*, bool>, std::__ndk1::hash<void*>, std::__ndk1::equal_to<void*>, true>, std::__ndk1::__unordered_map_equal<void*, std::__ndk1::__hash_value_type<void*, bool>, std::__ndk1::equal_to<void*>, std::__ndk1::hash<void*>, true>, std::__ndk1::allocator<std::__ndk1::__hash_value_type<void*, bool> > >::__emplace_unique_key_args<void*, std::__ndk1::piecewise_construct_t const&, std::__ndk1::tuple<void* const&>, std::__ndk1::tuple<> >(void* const&, std::__ndk1::piecewise_construct_t const&, std::__ndk1::tuple<void* const&>, std::__ndk1::tuple<>)
PUBLIC 28264 0 __udivti3
PUBLIC 28270 0 __udivmodti4
PUBLIC m 284bc 0 __eqtf2
PUBLIC 2855c 0 __unordtf2
PUBLIC 28594 0 fmt::v11::detail::write_loc(fmt::v11::basic_appender<char>, fmt::v11::loc_value, fmt::v11::format_specs const&, fmt::v11::detail::locale_ref)
PUBLIC 28828 0 fmt::v11::format_facet<std::__ndk1::locale>::~format_facet()
PUBLIC 288a4 0 fmt::v11::report_error(char const*)
PUBLIC 288f4 0 fmt::v11::format_error::runtime_error(char const*)
PUBLIC 28920 0 fmt::v11::format_facet<std::__ndk1::locale>::do_put(fmt::v11::basic_appender<char>, fmt::v11::loc_value, fmt::v11::format_specs const&) const
PUBLIC 290e0 0 fmt::v11::detail::loc_writer<char>::~loc_writer()
PUBLIC 29144 0 fmt::v11::detail::vformat_to<char>(fmt::v11::detail::buffer<char>&, fmt::v11::basic_string_view<char>, fmt::v11::detail::vformat_args<char>::type, fmt::v11::detail::locale_ref)
PUBLIC 296b4 0 fmt::v11::detail::is_printable(unsigned int)
PUBLIC 298dc 0 fmt::v11::detail::dragonbox::to_decimal<float>(float)
PUBLIC 29bb8 0 fmt::v11::detail::dragonbox::to_decimal<double>(double)
PUBLIC 2a0f4 0 fmt::v11::basic_memory_buffer<char, (unsigned long)500, std::__ndk1::allocator<char> >::grow(fmt::v11::detail::buffer<char>&, unsigned long)
PUBLIC 2a16c 0 fmt::v11::format_facet<std::__ndk1::locale>::~format_facet()
PUBLIC 2a1f8 0 fmt::v11::format_error::~format_error()
PUBLIC 2a21c 0 fmt::v11::detail::copy_noinline<char, char const*, fmt::v11::basic_appender<char> >(char const*, char const*, fmt::v11::basic_appender<char>)
PUBLIC 2a36c 0 fmt::v11::detail::default_arg_formatter<char>::operator()<bool>(bool)
PUBLIC 2a3d4 0 fmt::v11::detail::default_arg_formatter<char>::operator()<char>(char)
PUBLIC 2a464 0 fmt::v11::detail::default_arg_formatter<char>::operator()<float>(float)
PUBLIC 2a550 0 fmt::v11::detail::default_arg_formatter<char>::operator()<double>(double)
PUBLIC 2a63c 0 fmt::v11::detail::default_arg_formatter<char>::operator()<char const*>(char const*)
PUBLIC 2a684 0 fmt::v11::detail::default_arg_formatter<char>::operator()<void const*>(void const*)
PUBLIC 2a71c 0 _ZN3fmt3v116detail5writeIcNS0_14basic_appenderIcEEiTnNSt6__ndk19enable_ifIXaaaasr11is_integralIT1_EE5valuentsr3std7is_sameIS7_bEE5valuentsr3std7is_sameIS7_T_EE5valueEiE4typeELi0EEET0_SB_S7_
PUBLIC 2a97c 0 fmt::v11::detail::copy_noinline<char, char*, fmt::v11::basic_appender<char> >(char*, char*, fmt::v11::basic_appender<char>)
PUBLIC 2aacc 0 _ZN3fmt3v116detail5writeIcNS0_14basic_appenderIcEEjTnNSt6__ndk19enable_ifIXaaaasr11is_integralIT1_EE5valuentsr3std7is_sameIS7_bEE5valuentsr3std7is_sameIS7_T_EE5valueEiE4typeELi0EEET0_SB_S7_
PUBLIC 2acac 0 _ZN3fmt3v116detail5writeIcNS0_14basic_appenderIcEExTnNSt6__ndk19enable_ifIXaaaasr11is_integralIT1_EE5valuentsr3std7is_sameIS7_bEE5valuentsr3std7is_sameIS7_T_EE5valueEiE4typeELi0EEET0_SB_S7_
PUBLIC 2af30 0 _ZN3fmt3v116detail5writeIcNS0_14basic_appenderIcEEyTnNSt6__ndk19enable_ifIXaaaasr11is_integralIT1_EE5valuentsr3std7is_sameIS7_bEE5valuentsr3std7is_sameIS7_T_EE5valueEiE4typeELi0EEET0_SB_S7_
PUBLIC 2b138 0 _ZN3fmt3v116detail5writeIcNS0_14basic_appenderIcEEnTnNSt6__ndk19enable_ifIXaaaasr11is_integralIT1_EE5valuentsr3std7is_sameIS7_bEE5valuentsr3std7is_sameIS7_T_EE5valueEiE4typeELi0EEET0_SB_S7_
PUBLIC 2b498 0 _ZN3fmt3v116detail5writeIcNS0_14basic_appenderIcEEoTnNSt6__ndk19enable_ifIXaaaasr11is_integralIT1_EE5valuentsr3std7is_sameIS7_bEE5valuentsr3std7is_sameIS7_T_EE5valueEiE4typeELi0EEET0_SB_S7_
PUBLIC 2b7ac 0 _ZN3fmt3v116detail5writeIcNS0_14basic_appenderIcEEbTnNSt6__ndk19enable_ifIXsr3std7is_sameIT1_bEE5valueEiE4typeELi0EEET0_SA_S7_RKNS0_12format_specsENS1_10locale_refE
PUBLIC 2ba3c 0 fmt::v11::detail::write_int_noinline<char, fmt::v11::basic_appender<char>, unsigned int>(fmt::v11::basic_appender<char>, fmt::v11::detail::write_int_arg<unsigned int>, fmt::v11::format_specs const&, fmt::v11::detail::locale_ref)
PUBLIC 2c818 0 fmt::v11::detail::fill<char, fmt::v11::basic_appender<char> >(fmt::v11::basic_appender<char>, unsigned long, fmt::v11::detail::fill_t const&)
PUBLIC 2c9e8 0 fmt::v11::detail::write_padded<char, (fmt::v11::align::type)1, fmt::v11::basic_appender<char>, fmt::v11::detail::write_char<char, fmt::v11::basic_appender<char> >(fmt::v11::basic_appender<char>, char, fmt::v11::format_specs const&)::{lambda(fmt::v11::basic_appender<char>&)#1}>(fmt::v11::basic_appender<char>, fmt::v11::format_specs const&, unsigned long, unsigned long, fmt::v11::detail::write_char<char, fmt::v11::basic_appender<char> >(fmt::v11::basic_appender<char>, char, fmt::v11::format_specs const&)::{lambda(fmt::v11::basic_appender<char>&)#1})
PUBLIC 2cc24 0 fmt::v11::detail::write_escaped_cp<fmt::v11::basic_appender<char>, char>(fmt::v11::basic_appender<char>, fmt::v11::detail::find_escape_result<char> const&)
PUBLIC 2cf30 0 fmt::v11::detail::write_codepoint<(unsigned long)2, char, fmt::v11::basic_appender<char> >(fmt::v11::basic_appender<char>, char, unsigned int)
PUBLIC 2d0a8 0 fmt::v11::detail::write_codepoint<(unsigned long)8, char, fmt::v11::basic_appender<char> >(fmt::v11::basic_appender<char>, char, unsigned int)
PUBLIC 2d220 0 fmt::v11::detail::write_padded<char, (fmt::v11::align::type)1, fmt::v11::basic_appender<char>, fmt::v11::detail::write_nonfinite<char, fmt::v11::basic_appender<char> >(fmt::v11::basic_appender<char>, bool, fmt::v11::format_specs, fmt::v11::sign::type)::{lambda(fmt::v11::basic_appender<char>&)#1}>(fmt::v11::basic_appender<char>, fmt::v11::format_specs const&, unsigned long, unsigned long, fmt::v11::detail::write_nonfinite<char, fmt::v11::basic_appender<char> >(fmt::v11::basic_appender<char>, bool, fmt::v11::format_specs, fmt::v11::sign::type)::{lambda(fmt::v11::basic_appender<char>&)#1})
PUBLIC 2d460 0 fmt::v11::detail::do_write_float<char, fmt::v11::basic_appender<char>, fmt::v11::detail::dragonbox::decimal_fp<float>, fmt::v11::detail::digit_grouping<char> >(fmt::v11::basic_appender<char>, fmt::v11::detail::dragonbox::decimal_fp<float> const&, fmt::v11::format_specs const&, fmt::v11::detail::float_specs, fmt::v11::detail::locale_ref)
PUBLIC 2e0d4 0 fmt::v11::detail::do_write_float<char, fmt::v11::basic_appender<char>, fmt::v11::detail::dragonbox::decimal_fp<float>, fmt::v11::detail::digit_grouping<char> >(fmt::v11::basic_appender<char>, fmt::v11::detail::dragonbox::decimal_fp<float> const&, fmt::v11::format_specs const&, fmt::v11::detail::float_specs, fmt::v11::detail::locale_ref)::{lambda(fmt::v11::basic_appender<char>(fmt::v11::basic_appender<char>))#1}::operator() const
PUBLIC 2e228 0 fmt::v11::detail::digit_grouping<char>::digit_grouping(fmt::v11::detail::locale_ref, bool)
PUBLIC 2e494 0 fmt::v11::detail::digit_grouping<char>::~digit_grouping()
PUBLIC 2e4d8 0 fmt::v11::detail::write_exponent<char, fmt::v11::basic_appender<char> >(int, fmt::v11::basic_appender<char>)
PUBLIC 2e6a8 0 _ZN3fmt3v116detail17write_significandIcjTnNSt6__ndk19enable_ifIXsr3std11is_integralIT0_EE5valueEiE4typeELi0EEEPT_S9_S5_iiS8_
PUBLIC 2e824 0 fmt::v11::detail::digit_grouping<char>::apply<fmt::v11::basic_appender<char>, char>(fmt::v11::basic_appender<char>, fmt::v11::basic_string_view<char>) const
PUBLIC 2ebdc 0 fmt::v11::basic_memory_buffer<int, (unsigned long)500, std::__ndk1::allocator<int> >::grow(fmt::v11::detail::buffer<int>&, unsigned long)
PUBLIC 2ec7c 0 fmt::v11::detail::do_write_float<char, fmt::v11::basic_appender<char>, fmt::v11::detail::dragonbox::decimal_fp<double>, fmt::v11::detail::digit_grouping<char> >(fmt::v11::basic_appender<char>, fmt::v11::detail::dragonbox::decimal_fp<double> const&, fmt::v11::format_specs const&, fmt::v11::detail::float_specs, fmt::v11::detail::locale_ref)
PUBLIC 2f930 0 fmt::v11::detail::do_write_float<char, fmt::v11::basic_appender<char>, fmt::v11::detail::dragonbox::decimal_fp<double>, fmt::v11::detail::digit_grouping<char> >(fmt::v11::basic_appender<char>, fmt::v11::detail::dragonbox::decimal_fp<double> const&, fmt::v11::format_specs const&, fmt::v11::detail::float_specs, fmt::v11::detail::locale_ref)::{lambda(fmt::v11::basic_appender<char>(fmt::v11::basic_appender<char>))#1}::operator() const
PUBLIC 2fa88 0 _ZN3fmt3v116detail17write_significandIcmTnNSt6__ndk19enable_ifIXsr3std11is_integralIT0_EE5valueEiE4typeELi0EEEPT_S9_S5_iiS8_
PUBLIC 2fc18 0 fmt::v11::detail::write_float<char, fmt::v11::basic_appender<char>, long double>(fmt::v11::basic_appender<char>, long double, fmt::v11::format_specs, fmt::v11::detail::locale_ref)
PUBLIC 30714 0 fmt::v11::detail::write_padded<char, (fmt::v11::align::type)2, fmt::v11::basic_appender<char>, fmt::v11::detail::write_bytes<char, (fmt::v11::align::type)2, fmt::v11::basic_appender<char> >(fmt::v11::basic_appender<char>, fmt::v11::basic_string_view<char>, fmt::v11::format_specs const&)::{lambda(fmt::v11::basic_appender<char>&)#1}>(fmt::v11::basic_appender<char>, fmt::v11::format_specs const&, unsigned long, unsigned long, fmt::v11::detail::write_bytes<char, (fmt::v11::align::type)2, fmt::v11::basic_appender<char> >(fmt::v11::basic_appender<char>, fmt::v11::basic_string_view<char>, fmt::v11::format_specs const&)::{lambda(fmt::v11::basic_appender<char>&)#1})
PUBLIC 308f0 0 fmt::v11::detail::format_dragon(fmt::v11::detail::basic_fp<unsigned __int128>, unsigned int, int, fmt::v11::detail::buffer<char>&, int&)
PUBLIC 31d20 0 fmt::v11::detail::bigint::operator<<=(int)
PUBLIC 31e44 0 fmt::v11::detail::bigint::assign_pow10(int)
PUBLIC 325a0 0 fmt::v11::detail::bigint::divmod_assign(fmt::v11::detail::bigint const&)
PUBLIC 328c0 0 fmt::v11::basic_memory_buffer<unsigned int, (unsigned long)32, std::__ndk1::allocator<unsigned int> >::grow(fmt::v11::detail::buffer<unsigned int>&, unsigned long)
PUBLIC 32960 0 fmt::v11::detail::do_write_float<char, fmt::v11::basic_appender<char>, fmt::v11::detail::big_decimal_fp, fmt::v11::detail::digit_grouping<char> >(fmt::v11::basic_appender<char>, fmt::v11::detail::big_decimal_fp const&, fmt::v11::format_specs const&, fmt::v11::detail::float_specs, fmt::v11::detail::locale_ref)
PUBLIC 33810 0 fmt::v11::detail::do_write_float<char, fmt::v11::basic_appender<char>, fmt::v11::detail::big_decimal_fp, fmt::v11::detail::digit_grouping<char> >(fmt::v11::basic_appender<char>, fmt::v11::detail::big_decimal_fp const&, fmt::v11::format_specs const&, fmt::v11::detail::float_specs, fmt::v11::detail::locale_ref)::{lambda(fmt::v11::basic_appender<char>(fmt::v11::basic_appender<char>))#1}::operator() const
PUBLIC 33970 0 fmt::v11::detail::write_padded<char, (fmt::v11::align::type)2, fmt::v11::basic_appender<char>, fmt::v11::detail::write_ptr<char, fmt::v11::basic_appender<char>, unsigned long>(fmt::v11::basic_appender<char>, unsigned long, fmt::v11::format_specs const*)::{lambda(fmt::v11::basic_appender<char>&)#1}>(fmt::v11::basic_appender<char>, fmt::v11::format_specs const&, unsigned long, unsigned long, fmt::v11::detail::write_ptr<char, fmt::v11::basic_appender<char>, unsigned long>(fmt::v11::basic_appender<char>, unsigned long, fmt::v11::format_specs const*)::{lambda(fmt::v11::basic_appender<char>&)#1})
PUBLIC 33b84 0 fmt::v11::detail::parse_replacement_field<char, fmt::v11::detail::vformat_to<char>(fmt::v11::detail::buffer<char>&, fmt::v11::basic_string_view<char>, fmt::v11::detail::vformat_args<char>::type, fmt::v11::detail::locale_ref)::format_handler&>(char const*, char const*, fmt::v11::detail::vformat_to<char>(fmt::v11::detail::buffer<char>&, fmt::v11::basic_string_view<char>, fmt::v11::detail::vformat_args<char>::type, fmt::v11::detail::locale_ref)::format_handler&)
PUBLIC 35820 0 fmt::v11::detail::parse_dynamic_spec<char>(char const*, char const*, int&, fmt::v11::detail::arg_ref<char>&, fmt::v11::basic_format_parse_context<char>&)
PUBLIC 35ab0 0 fmt::v11::basic_format_args<fmt::v11::context>::get<char>(fmt::v11::basic_string_view<char>) const
PUBLIC 35c08 0 fmt::v11::detail::write_int_noinline<char, fmt::v11::basic_appender<char>, unsigned long>(fmt::v11::basic_appender<char>, fmt::v11::detail::write_int_arg<unsigned long>, fmt::v11::format_specs const&, fmt::v11::detail::locale_ref)
PUBLIC 36a5c 0 fmt::v11::detail::write_int_noinline<char, fmt::v11::basic_appender<char>, unsigned __int128>(fmt::v11::basic_appender<char>, fmt::v11::detail::write_int_arg<unsigned __int128>, fmt::v11::format_specs const&, fmt::v11::detail::locale_ref)
PUBLIC 37ac4 0 _ZN3fmt3v116detail15format_hexfloatIdTnNSt6__ndk19enable_ifIXntsr16is_double_doubleIT_EE5valueEiE4typeELi0EEEvS5_NS0_12format_specsERNS1_6bufferIcEE
PUBLIC 37fe4 0 fmt::v11::detail::format_float<double>(double, int, fmt::v11::detail::float_specs, fmt::v11::detail::buffer<char>&)
PUBLIC 38984 0 fmt::v11::detail::write<char, fmt::v11::basic_appender<char> >(fmt::v11::basic_appender<char>, fmt::v11::basic_string_view<char>, fmt::v11::format_specs const&)
PUBLIC 39cf0 0 fmt::v11::detail::for_each_codepoint<fmt::v11::detail::compute_width(fmt::v11::basic_string_view<char>)::count_code_points>(fmt::v11::basic_string_view<char>, fmt::v11::detail::compute_width(fmt::v11::basic_string_view<char>)::count_code_points)::{lambda(char const*, char const*)#1}::operator()(char const*, char const*) const
PUBLIC 39ea8 0 fmt::v11::detail::write_int<fmt::v11::basic_appender<char>, unsigned long, char>(fmt::v11::basic_appender<char>, unsigned long, unsigned int, fmt::v11::format_specs const&, fmt::v11::detail::digit_grouping<char> const&)
PUBLIC 3a424 0 fmt::v11::detail::write_int<fmt::v11::basic_appender<char>, unsigned __int128, char>(fmt::v11::basic_appender<char>, unsigned __int128, unsigned int, fmt::v11::format_specs const&, fmt::v11::detail::digit_grouping<char> const&)
PUBLIC 3aaa0 0 <.plt ELF section in hiimjustin000.gauntlet_projection.android64.so>
STACK CFI INIT 19a20 10 .cfa: sp 0 +
STACK CFI INIT 19a30 8 .cfa: sp 0 +
STACK CFI INIT 19a38 8 .cfa: sp 0 +
STACK CFI INIT 19a40 14 .cfa: sp 0 +
STACK CFI INIT 19a54 1c .cfa: sp 0 +
STACK CFI INIT 19a70 10 .cfa: sp 0 +
STACK CFI INIT 19a80 134 .cfa: sp 0 +
STACK CFI INIT 19bb4 84 .cfa: sp 0 +
STACK CFI INIT 19c38 f4 .cfa: sp 0 +
STACK CFI INIT 19d2c a8 .cfa: sp 0 +
STACK CFI INIT 19dd4 7c .cfa: sp 0 +
STACK CFI INIT 19e50 14 .cfa: sp 0 +
STACK CFI INIT 19e64 40 .cfa: sp 0 +
STACK CFI INIT 19ea4 28 .cfa: sp 0 +
STACK CFI INIT 19ecc 190 .cfa: sp 0 +
STACK CFI INIT 1a05c 2c8 .cfa: sp 0 +
STACK CFI INIT 1a324 8 .cfa: sp 0 +
STACK CFI INIT 1a32c 8 .cfa: sp 0 +
STACK CFI INIT 1a334 44 .cfa: sp 0 +
STACK CFI INIT 1a378 e8 .cfa: sp 0 +
STACK CFI INIT 1a460 e8 .cfa: sp 0 +
STACK CFI INIT 1a548 14 .cfa: sp 0 +
STACK CFI INIT 1a55c 10 .cfa: sp 0 +
STACK CFI INIT 1a56c 10 .cfa: sp 0 +
STACK CFI INIT 1a57c f0 .cfa: sp 0 +
STACK CFI INIT 1a66c 44 .cfa: sp 0 +
STACK CFI INIT 1a6b0 c .cfa: sp 0 +
STACK CFI INIT 1a6bc c .cfa: sp 0 +
STACK CFI INIT 1a6c8 2c .cfa: sp 0 +
STACK CFI INIT 1a6f4 280 .cfa: sp 0 +
STACK CFI INIT 1a974 c .cfa: sp 0 +
STACK CFI INIT 1a980 120 .cfa: sp 0 +
STACK CFI INIT 1aaa0 488 .cfa: sp 0 +
STACK CFI INIT 1af28 c48 .cfa: sp 0 +
STACK CFI INIT 1bb70 134 .cfa: sp 0 +
STACK CFI INIT 1bca4 210 .cfa: sp 0 +
STACK CFI INIT 1beb4 38c .cfa: sp 0 +
STACK CFI INIT 1c240 1c8 .cfa: sp 0 +
STACK CFI INIT 1c408 9bc .cfa: sp 0 +
STACK CFI INIT 1cdc4 2d4 .cfa: sp 0 +
STACK CFI INIT 1d098 134 .cfa: sp 0 +
STACK CFI INIT 1d1cc 120 .cfa: sp 0 +
STACK CFI INIT 1d2ec 1c8 .cfa: sp 0 +
STACK CFI INIT 1d4b4 168 .cfa: sp 0 +
STACK CFI INIT 1d61c fc .cfa: sp 0 +
STACK CFI INIT 1d718 30 .cfa: sp 0 +
STACK CFI INIT 1d880 30 .cfa: sp 0 +
STACK CFI INIT 1d8b0 98 .cfa: sp 0 +
STACK CFI INIT 1d948 59c .cfa: sp 0 +
STACK CFI INIT 1dee4 8c .cfa: sp 0 +
STACK CFI INIT 1f54c 8 .cfa: sp 0 +
STACK CFI INIT 1f6c4 2c .cfa: sp 0 +
STACK CFI 1f6c8 .cfa: sp 32 +
STACK CFI 1f6d0 .cfa: x29 32 + x19: .cfa -16 + ^ .ra: .cfa -24 + ^ x29: .cfa -32 + ^
STACK CFI 1f6e4 .cfa: sp 32 +
STACK CFI 1f6ec .cfa: sp 0 +
STACK CFI INIT 1f6f0 28 .cfa: sp 0 +
STACK CFI INIT 1f718 4 .cfa: sp 0 +
STACK CFI INIT 1f71c 8 .cfa: sp 0 +
STACK CFI INIT 1f9e4 2c .cfa: sp 0 +
STACK CFI INIT 1fa10 4 .cfa: sp 0 +
STACK CFI INIT 1fa14 4 .cfa: sp 0 +
STACK CFI INIT 1fa18 4 .cfa: sp 0 +
STACK CFI INIT 1fa1c 4 .cfa: sp 0 +
STACK CFI INIT 1fa20 4 .cfa: sp 0 +
STACK CFI INIT 1fa24 8 .cfa: sp 0 +
STACK CFI INIT 1fa98 4 .cfa: sp 0 +
STACK CFI INIT 1fb08 4 .cfa: sp 0 +
STACK CFI INIT 1fb0c 10 .cfa: sp 0 +
STACK CFI 1fb10 .cfa: sp 16 +
STACK CFI 1fb14 .cfa: x29 16 + .ra: .cfa -8 + ^ x29: .cfa -16 + ^
STACK CFI INIT 1fb1c 14 .cfa: sp 0 +
STACK CFI 1fb20 .cfa: sp 16 +
STACK CFI 1fb24 .cfa: x29 16 + .ra: .cfa -8 + ^ x29: .cfa -16 + ^
STACK CFI INIT 1fb80 30 .cfa: sp 0 +
STACK CFI 1fb84 .cfa: sp 32 +
STACK CFI 1fb8c .cfa: x29 32 + x19: .cfa -16 + ^ .ra: .cfa -24 + ^ x29: .cfa -32 + ^
STACK CFI 1fba4 .cfa: sp 32 +
STACK CFI 1fbac .cfa: sp 0 +
STACK CFI INIT 1fbb0 34 .cfa: sp 0 +
STACK CFI 1fbb4 .cfa: sp 32 +
STACK CFI 1fbbc .cfa: x29 32 + x19: .cfa -16 + ^ .ra: .cfa -24 + ^ x29: .cfa -32 + ^
STACK CFI INIT 1fbe4 104 .cfa: sp 0 +
STACK CFI 1fbe8 .cfa: sp 32 +
STACK CFI 1fbf0 .cfa: x29 32 + x19: .cfa -8 + ^ x20: .cfa -16 + ^ .ra: .cfa -24 + ^ x29: .cfa -32 + ^
STACK CFI 1fcc8 .cfa: sp 32 +
STACK CFI 1fcd0 .cfa: sp 0 +
STACK CFI 1fcd4 .cfa: sp 32 +
STACK CFI 1fcdc .cfa: sp 0 +
STACK CFI 1fce0 .cfa: x29 32 +
STACK CFI INIT 1fce8 14 .cfa: sp 0 +
STACK CFI 1fcec .cfa: sp 16 +
STACK CFI 1fcf0 .cfa: x29 16 + .ra: .cfa -8 + ^ x29: .cfa -16 + ^
STACK CFI INIT 1fcfc 70 .cfa: sp 0 +
STACK CFI 1fd00 .cfa: sp 48 +
STACK CFI 1fd0c .cfa: x29 32 + x19: .cfa -16 + ^ .ra: .cfa -24 + ^ x29: .cfa -32 + ^
STACK CFI 1fd44 .cfa: sp 48 +
STACK CFI 1fd50 .cfa: sp 0 +
STACK CFI 1fd54 .cfa: x29 32 +
STACK CFI INIT 1fd6c 5c .cfa: sp 0 +
STACK CFI 1fd70 .cfa: sp 32 +
STACK CFI 1fd78 .cfa: x29 32 + x19: .cfa -16 + ^ .ra: .cfa -24 + ^ x29: .cfa -32 + ^
STACK CFI 1fdbc .cfa: sp 32 +
STACK CFI 1fdc4 .cfa: sp 0 +
STACK CFI INIT 1fdc8 64 .cfa: sp 0 +
STACK CFI 1fdcc .cfa: sp 32 +
STACK CFI 1fdd4 .cfa: x29 32 + x19: .cfa -16 + ^ .ra: .cfa -24 + ^ x29: .cfa -32 + ^
STACK CFI 1fe20 .cfa: sp 32 +
STACK CFI 1fe28 .cfa: sp 0 +
STACK CFI INIT 1fe2c 4 .cfa: sp 0 +
STACK CFI INIT 1fe30 34 .cfa: sp 0 +
STACK CFI 1fe34 .cfa: sp 16 +
STACK CFI 1fe38 .cfa: x29 16 + .ra: .cfa -8 + ^ x29: .cfa -16 + ^
STACK CFI INIT 1fe64 24 .cfa: sp 0 +
STACK CFI 1fe68 .cfa: sp 32 +
STACK CFI 1fe70 .cfa: x29 32 + x19: .cfa -16 + ^ .ra: .cfa -24 + ^ x29: .cfa -32 + ^
STACK CFI 1fe7c .cfa: sp 32 +
STACK CFI 1fe84 .cfa: sp 0 +
STACK CFI INIT 1fe88 314 .cfa: sp 0 +
STACK CFI 1fe8c .cfa: sp 128 +
STACK CFI 1fea4 .cfa: x29 64 + x19: .cfa -8 + ^ x20: .cfa -16 + ^ x21: .cfa -24 + ^ x22: .cfa -32 + ^ x23: .cfa -40 + ^ x24: .cfa -48 + ^ .ra: .cfa -56 + ^ x29: .cfa -64 + ^ v8: .cfa -72 + ^ v9: .cfa -80 + ^
STACK CFI 200e0 .cfa: sp 128 +
STACK CFI 200f8 .cfa: sp 0 +
STACK CFI 200fc .cfa: x29 64 +
STACK CFI INIT 20210 104 .cfa: sp 0 +
STACK CFI 20214 .cfa: sp 48 +
STACK CFI 20220 .cfa: x29 48 + x19: .cfa -8 + ^ x20: .cfa -16 + ^ x21: .cfa -32 + ^ .ra: .cfa -40 + ^ x29: .cfa -48 + ^
STACK CFI 202fc .cfa: sp 48 +
STACK CFI 20308 .cfa: sp 0 +
STACK CFI 2030c .cfa: x29 48 +
STACK CFI INIT 20710 34 .cfa: sp 0 +
STACK CFI 20714 .cfa: sp 16 +
STACK CFI 20718 .cfa: x29 16 + .ra: .cfa -8 + ^ x29: .cfa -16 + ^
STACK CFI INIT 20870 80 .cfa: sp 0 +
STACK CFI 20874 .cfa: sp 48 +
STACK CFI 20880 .cfa: x29 48 + x19: .cfa -8 + ^ x20: .cfa -16 + ^ x21: .cfa -32 + ^ .ra: .cfa -40 + ^ x29: .cfa -48 + ^
STACK CFI 208e0 .cfa: sp 48 +
STACK CFI 208ec .cfa: sp 0 +
STACK CFI INIT 208f0 24 .cfa: sp 0 +
STACK CFI 208f4 .cfa: sp 32 +
STACK CFI 208fc .cfa: x29 32 + x19: .cfa -16 + ^ .ra: .cfa -24 + ^ x29: .cfa -32 + ^
STACK CFI 20908 .cfa: sp 32 +
STACK CFI 20910 .cfa: sp 0 +
STACK CFI INIT 20e0c 148 .cfa: sp 0 +
STACK CFI 20e10 .cfa: sp 48 +
STACK CFI 20e1c .cfa: x29 48 + x19: .cfa -8 + ^ x20: .cfa -16 + ^ x21: .cfa -32 + ^ .ra: .cfa -40 + ^ x29: .cfa -48 + ^
STACK CFI 20f44 .cfa: sp 48 +
STACK CFI 20f50 .cfa: sp 0 +
STACK CFI INIT 210bc 4 .cfa: sp 0 +
STACK CFI INIT 210c0 14 .cfa: sp 0 +
STACK CFI INIT 210d4 80 .cfa: sp 0 +
STACK CFI 210d8 .cfa: sp 48 +
STACK CFI 210e4 .cfa: x29 48 + x19: .cfa -8 + ^ x20: .cfa -16 + ^ x21: .cfa -24 + ^ x22: .cfa -32 + ^ .ra: .cfa -40 + ^ x29: .cfa -48 + ^
STACK CFI 210fc .cfa: sp 48 +
STACK CFI 21108 .cfa: sp 0 +
STACK CFI 2110c .cfa: x29 48 +
STACK CFI 2113c .cfa: sp 48 +
STACK CFI 21148 .cfa: sp 0 +
STACK CFI 2114c .cfa: x29 48 +
STACK CFI INIT 21154 4 .cfa: sp 0 +
STACK CFI INIT 21158 14 .cfa: sp 0 +
STACK CFI INIT 2116c 10 .cfa: sp 0 +
STACK CFI INIT 2117c 14 .cfa: sp 0 +
STACK CFI INIT 2136c e0 .cfa: sp 0 +
STACK CFI 21370 .cfa: sp 64 +
STACK CFI 21380 .cfa: x29 64 + x19: .cfa -8 + ^ x20: .cfa -16 + ^ x21: .cfa -24 + ^ x22: .cfa -32 + ^ x23: .cfa -40 + ^ x24: .cfa -48 + ^ .ra: .cfa -56 + ^ x29: .cfa -64 + ^
STACK CFI 21410 .cfa: sp 64 +
STACK CFI 21420 .cfa: sp 0 +
STACK CFI 21424 .cfa: x29 64 +
STACK CFI 21430 .cfa: sp 64 +
STACK CFI 21440 .cfa: sp 0 +
STACK CFI 21444 .cfa: x29 64 +
STACK CFI INIT 2144c 68 .cfa: sp 0 +
STACK CFI 21450 .cfa: sp 48 +
STACK CFI 2145c .cfa: x29 48 + x19: .cfa -8 + ^ x20: .cfa -16 + ^ x21: .cfa -32 + ^ .ra: .cfa -40 + ^ x29: .cfa -48 + ^
STACK CFI 21494 .cfa: sp 48 +
STACK CFI 214a0 .cfa: sp 0 +
STACK CFI 214a4 .cfa: sp 48 +
STACK CFI 214b0 .cfa: sp 0 +
STACK CFI INIT 214b4 14 .cfa: sp 0 +
STACK CFI 214b8 .cfa: sp 16 +
STACK CFI 214bc .cfa: x29 16 + .ra: .cfa -8 + ^ x29: .cfa -16 + ^
STACK CFI INIT 214c8 11c .cfa: sp 0 +
STACK CFI 214cc .cfa: sp 64 +
STACK CFI 214dc .cfa: x29 64 + x19: .cfa -8 + ^ x20: .cfa -16 + ^ x21: .cfa -24 + ^ x22: .cfa -32 + ^ x23: .cfa -40 + ^ x24: .cfa -48 + ^ .ra: .cfa -56 + ^ x29: .cfa -64 + ^
STACK CFI 215b4 .cfa: sp 64 +
STACK CFI 215c4 .cfa: sp 0 +
STACK CFI 215c8 .cfa: x29 64 +
STACK CFI INIT 215e4 fc .cfa: sp 0 +
STACK CFI 215e8 .cfa: sp 64 +
STACK CFI 215f8 .cfa: x29 64 + x19: .cfa -8 + ^ x20: .cfa -16 + ^ x21: .cfa -24 + ^ x22: .cfa -32 + ^ x23: .cfa -48 + ^ .ra: .cfa -56 + ^ x29: .cfa -64 + ^
STACK CFI 2165c .cfa: sp 64 +
STACK CFI 2166c .cfa: sp 0 +
STACK CFI 21670 .cfa: x29 64 +
STACK CFI 2168c .cfa: sp 64 +
STACK CFI 2169c .cfa: sp 0 +
STACK CFI 216a0 .cfa: x29 64 +
STACK CFI 216cc .cfa: sp 64 +
STACK CFI 216dc .cfa: sp 0 +
STACK CFI INIT 216e0 4 .cfa: sp 0 +
STACK CFI INIT 216e4 4 .cfa: sp 0 +
STACK CFI INIT 216e8 40 .cfa: sp 0 +
STACK CFI 216ec .cfa: sp 32 +
STACK CFI 216f4 .cfa: x29 32 + x19: .cfa -16 + ^ .ra: .cfa -24 + ^ x29: .cfa -32 + ^
STACK CFI 2171c .cfa: sp 32 +
STACK CFI 21724 .cfa: sp 0 +
STACK CFI INIT 21728 20 .cfa: sp 0 +
STACK CFI INIT 21748 4 .cfa: sp 0 +
STACK CFI INIT 2174c 4 .cfa: sp 0 +
STACK CFI INIT 21750 a0 .cfa: sp 0 +
STACK CFI 21754 .cfa: sp 48 +
STACK CFI 21760 .cfa: x29 32 + x19: .cfa -16 + ^ .ra: .cfa -24 + ^ x29: .cfa -32 + ^
STACK CFI 217dc .cfa: sp 48 +
STACK CFI 217e8 .cfa: sp 0 +
STACK CFI 217ec .cfa: x29 32 +
STACK CFI INIT 217f0 1c .cfa: sp 0 +
STACK CFI INIT 2180c c .cfa: sp 0 +
STACK CFI INIT 21818 60 .cfa: sp 0 +
STACK CFI 2181c .cfa: sp 32 +
STACK CFI 21824 .cfa: x29 32 + x19: .cfa -8 + ^ x20: .cfa -16 + ^ .ra: .cfa -24 + ^ x29: .cfa -32 + ^
STACK CFI 21844 .cfa: sp 32 +
STACK CFI 2184c .cfa: sp 0 +
STACK CFI 21850 .cfa: x29 32 +
STACK CFI 2186c .cfa: sp 32 +
STACK CFI 21874 .cfa: sp 0 +
STACK CFI INIT 21878 70 .cfa: sp 0 +
STACK CFI 2187c .cfa: sp 32 +
STACK CFI 21884 .cfa: x29 32 + x19: .cfa -8 + ^ x20: .cfa -16 + ^ .ra: .cfa -24 + ^ x29: .cfa -32 + ^
STACK CFI 218ac .cfa: sp 32 +
STACK CFI 218b4 .cfa: sp 0 +
STACK CFI 218b8 .cfa: x29 32 +
STACK CFI 218dc .cfa: sp 32 +
STACK CFI 218e4 .cfa: sp 0 +
STACK CFI INIT 218e8 10 .cfa: sp 0 +
STACK CFI INIT 218f8 30 .cfa: sp 0 +
STACK CFI 218fc .cfa: sp 32 +
STACK CFI 21904 .cfa: x29 32 + x19: .cfa -16 + ^ .ra: .cfa -24 + ^ x29: .cfa -32 + ^
STACK CFI 2191c .cfa: sp 32 +
STACK CFI 21924 .cfa: sp 0 +
STACK CFI INIT 21928 4 .cfa: sp 0 +
STACK CFI INIT 2192c 4 .cfa: sp 0 +
STACK CFI INIT 21930 4c .cfa: sp 0 +
STACK CFI INIT 2197c 5c .cfa: sp 0 +
STACK CFI 21980 .cfa: sp 32 +
STACK CFI 21988 .cfa: x29 32 + x19: .cfa -16 + ^ .ra: .cfa -24 + ^ x29: .cfa -32 + ^
STACK CFI 219cc .cfa: sp 32 +
STACK CFI 219d4 .cfa: sp 0 +
STACK CFI INIT 21a74 88 .cfa: sp 0 +
STACK CFI 21a78 .cfa: sp 32 +
STACK CFI 21a80 .cfa: x29 32 + x19: .cfa -16 + ^ .ra: .cfa -24 + ^ x29: .cfa -32 + ^
STACK CFI 21ac0 .cfa: sp 32 +
STACK CFI 21ac8 .cfa: sp 0 +
STACK CFI 21acc .cfa: x29 32 +
STACK CFI 21ad0 .cfa: sp 32 +
STACK CFI 21ad8 .cfa: sp 0 +
STACK CFI 21adc .cfa: x29 32 +
STACK CFI 21af0 .cfa: sp 32 +
STACK CFI 21af8 .cfa: sp 0 +
STACK CFI INIT 21afc 40 .cfa: sp 0 +
STACK CFI INIT 21b3c 50 .cfa: sp 0 +
STACK CFI 21b40 .cfa: sp 32 +
STACK CFI 21b48 .cfa: x29 32 + x19: .cfa -16 + ^ .ra: .cfa -24 + ^ x29: .cfa -32 + ^
STACK CFI 21b80 .cfa: sp 32 +
STACK CFI 21b88 .cfa: sp 0 +
STACK CFI INIT 21e38 1c .cfa: sp 0 +
STACK CFI INIT 21e54 c .cfa: sp 0 +
STACK CFI INIT 227d4 ac .cfa: sp 0 +
STACK CFI 227d8 .cfa: sp 64 +
STACK CFI 227e8 .cfa: x29 64 + x19: .cfa -8 + ^ x20: .cfa -16 + ^ x21: .cfa -24 + ^ x22: .cfa -32 + ^ x23: .cfa -48 + ^ .ra: .cfa -56 + ^ x29: .cfa -64 + ^
STACK CFI 22864 .cfa: sp 64 +
STACK CFI 22874 .cfa: sp 0 +
STACK CFI 22878 .cfa: x29 64 +
STACK CFI INIT 22880 110 .cfa: sp 0 +
STACK CFI 22884 .cfa: sp 64 +
STACK CFI 22894 .cfa: x29 64 + x19: .cfa -8 + ^ x20: .cfa -16 + ^ x21: .cfa -24 + ^ x22: .cfa -32 + ^ x23: .cfa -40 + ^ x24: .cfa -48 + ^ .ra: .cfa -56 + ^ x29: .cfa -64 + ^
STACK CFI 22974 .cfa: sp 64 +
STACK CFI 22984 .cfa: sp 0 +
STACK CFI 22988 .cfa: x29 64 +
STACK CFI INIT 22990 30 .cfa: sp 0 +
STACK CFI INIT 23594 18 .cfa: sp 0 +
STACK CFI INIT 23e6c 50 .cfa: sp 0 +
STACK CFI 23e70 .cfa: sp 32 +
STACK CFI 23e78 .cfa: x29 32 + x19: .cfa -16 + ^ .ra: .cfa -24 + ^ x29: .cfa -32 + ^
STACK CFI 23e90 .cfa: sp 32 +
STACK CFI 23e98 .cfa: sp 0 +
STACK CFI 23e9c .cfa: x29 32 +
STACK CFI 23eb0 .cfa: sp 32 +
STACK CFI 23eb8 .cfa: sp 0 +
STACK CFI INIT 23f30 7c .cfa: sp 0 +
STACK CFI 23f34 .cfa: sp 48 +
STACK CFI 23f40 .cfa: x29 48 + x19: .cfa -8 + ^ x20: .cfa -16 + ^ x21: .cfa -32 + ^ .ra: .cfa -40 + ^ x29: .cfa -48 + ^
STACK CFI 23f8c .cfa: sp 48 +
STACK CFI 23f98 .cfa: sp 0 +
STACK CFI 23f9c .cfa: sp 48 +
STACK CFI 23fa8 .cfa: sp 0 +
STACK CFI INIT 23fac 4 .cfa: sp 0 +
STACK CFI INIT 24104 68 .cfa: sp 0 +
STACK CFI 24108 .cfa: sp 32 +
STACK CFI 24110 .cfa: x29 32 + x19: .cfa -8 + ^ x20: .cfa -16 + ^ .ra: .cfa -24 + ^ x29: .cfa -32 + ^
STACK CFI 24128 .cfa: sp 32 +
STACK CFI 24130 .cfa: sp 0 +
STACK CFI 24134 .cfa: x29 32 +
STACK CFI 24160 .cfa: sp 32 +
STACK CFI 24168 .cfa: sp 0 +
STACK CFI INIT 2416c 14 .cfa: sp 0 +
STACK CFI 24170 .cfa: sp 16 +
STACK CFI 24174 .cfa: x29 16 + .ra: .cfa -8 + ^ x29: .cfa -16 + ^
STACK CFI INIT 24180 4 .cfa: sp 0 +
STACK CFI INIT 24184 14 .cfa: sp 0 +
STACK CFI INIT 24198 84 .cfa: sp 0 +
STACK CFI 241a0 .cfa: sp 32 +
STACK CFI 241a8 .cfa: x29 32 + x19: .cfa -8 + ^ x20: .cfa -16 + ^ .ra: .cfa -24 + ^ x29: .cfa -32 + ^
STACK CFI 241e8 .cfa: sp 32 +
STACK CFI 241f0 .cfa: sp 0 +
STACK CFI 241f8 .cfa: x29 32 +
STACK CFI INIT 24458 4 .cfa: sp 0 +
STACK CFI INIT 2445c 50 .cfa: sp 0 +
STACK CFI 24460 .cfa: sp 32 +
STACK CFI 24468 .cfa: x29 32 + x19: .cfa -16 + ^ .ra: .cfa -24 + ^ x29: .cfa -32 + ^
STACK CFI 24480 .cfa: sp 32 +
STACK CFI 24488 .cfa: sp 0 +
STACK CFI 2448c .cfa: x29 32 +
STACK CFI 244a0 .cfa: sp 32 +
STACK CFI 244a8 .cfa: sp 0 +
STACK CFI INIT 244ac 64 .cfa: sp 0 +
STACK CFI 244b0 .cfa: sp 32 +
STACK CFI 244b8 .cfa: x29 32 + x19: .cfa -16 + ^ .ra: .cfa -24 + ^ x29: .cfa -32 + ^
STACK CFI 244e4 .cfa: sp 32 +
STACK CFI 244ec .cfa: sp 0 +
STACK CFI 244f0 .cfa: x29 32 +
STACK CFI 24504 .cfa: sp 32 +
STACK CFI 2450c .cfa: sp 0 +
STACK CFI INIT 24c38 4 .cfa: sp 0 +
STACK CFI INIT 24c3c 14 .cfa: sp 0 +
STACK CFI 24c40 .cfa: sp 16 +
STACK CFI 24c44 .cfa: x29 16 + .ra: .cfa -8 + ^ x29: .cfa -16 + ^
STACK CFI INIT 24c50 14 .cfa: sp 0 +
STACK CFI 24c54 .cfa: sp 16 +
STACK CFI 24c58 .cfa: x29 16 + .ra: .cfa -8 + ^ x29: .cfa -16 + ^
STACK CFI INIT 24c64 c .cfa: sp 0 +
STACK CFI 24c68 .cfa: sp 16 +
STACK CFI 24c6c .cfa: x29 16 + .ra: .cfa -8 + ^ x29: .cfa -16 + ^
STACK CFI INIT 24cc0 30 .cfa: sp 0 +
STACK CFI 24cc4 .cfa: sp 32 +
STACK CFI 24ccc .cfa: x29 32 + x19: .cfa -16 + ^ .ra: .cfa -24 + ^ x29: .cfa -32 + ^
STACK CFI 24ce4 .cfa: sp 32 +
STACK CFI 24cec .cfa: sp 0 +
STACK CFI INIT 24cf0 c .cfa: sp 0 +
STACK CFI 24cf4 .cfa: sp 16 +
STACK CFI 24cf8 .cfa: x29 16 + .ra: .cfa -8 + ^ x29: .cfa -16 + ^
STACK CFI INIT 24cfc 4 .cfa: sp 0 +
STACK CFI INIT 24d00 4 .cfa: sp 0 +
STACK CFI INIT 24d04 38 .cfa: sp 0 +
STACK CFI 24d08 .cfa: sp 32 +
STACK CFI 24d10 .cfa: x29 32 + x19: .cfa -16 + ^ .ra: .cfa -24 + ^ x29: .cfa -32 + ^
STACK CFI 24d30 .cfa: sp 32 +
STACK CFI 24d38 .cfa: sp 0 +
STACK CFI INIT 24d3c 18 .cfa: sp 0 +
STACK CFI INIT 24d54 4 .cfa: sp 0 +
STACK CFI INIT 24d58 4 .cfa: sp 0 +
STACK CFI INIT 24d5c 10 .cfa: sp 0 +
STACK CFI INIT 24d6c 1c .cfa: sp 0 +
STACK CFI INIT 24d88 c .cfa: sp 0 +
STACK CFI INIT 24d94 4 .cfa: sp 0 +
STACK CFI INIT 24d98 4 .cfa: sp 0 +
STACK CFI INIT 24d9c 38 .cfa: sp 0 +
STACK CFI 24da0 .cfa: sp 32 +
STACK CFI 24da8 .cfa: x29 32 + x19: .cfa -16 + ^ .ra: .cfa -24 + ^ x29: .cfa -32 + ^
STACK CFI 24dc8 .cfa: sp 32 +
STACK CFI 24dd0 .cfa: sp 0 +
STACK CFI INIT 24dd4 18 .cfa: sp 0 +
STACK CFI INIT 24dec 4 .cfa: sp 0 +
STACK CFI INIT 24df0 4 .cfa: sp 0 +
STACK CFI INIT 24df4 b4 .cfa: sp 0 +
STACK CFI 24df8 .cfa: sp 32 +
STACK CFI 24e00 .cfa: x29 32 + x19: .cfa -8 + ^ x20: .cfa -16 + ^ .ra: .cfa -24 + ^ x29: .cfa -32 + ^
STACK CFI 24e9c .cfa: sp 32 +
STACK CFI 24ea4 .cfa: sp 0 +
STACK CFI INIT 24ea8 1c .cfa: sp 0 +
STACK CFI INIT 24ec4 c .cfa: sp 0 +
STACK CFI INIT 253ac 168 .cfa: sp 0 +
STACK CFI 253b0 .cfa: sp 80 +
STACK CFI 253c4 .cfa: x29 80 + x19: .cfa -8 + ^ x20: .cfa -16 + ^ x21: .cfa -24 + ^ x22: .cfa -32 + ^ x23: .cfa -40 + ^ x24: .cfa -48 + ^ x25: .cfa -56 + ^ x26: .cfa -64 + ^ .ra: .cfa -72 + ^ x29: .cfa -80 + ^
STACK CFI 254fc .cfa: sp 80 +
STACK CFI 25510 .cfa: sp 0 +
STACK CFI INIT 25514 1b0 .cfa: sp 0 +
STACK CFI INIT 256c4 3c .cfa: sp 0 +
STACK CFI 256c8 .cfa: sp 32 +
STACK CFI 256d0 .cfa: x29 32 + x19: .cfa -16 + ^ .ra: .cfa -24 + ^ x29: .cfa -32 + ^
STACK CFI 256dc .cfa: sp 32 +
STACK CFI 256e4 .cfa: sp 0 +
STACK CFI 256e8 .cfa: x29 32 +
STACK CFI 256f4 .cfa: sp 32 +
STACK CFI 256fc .cfa: sp 0 +
STACK CFI INIT 25700 4c .cfa: sp 0 +
STACK CFI 25704 .cfa: sp 32 +
STACK CFI 2570c .cfa: x29 32 + x19: .cfa -8 + ^ x20: .cfa -16 + ^ .ra: .cfa -24 + ^ x29: .cfa -32 + ^
STACK CFI 25734 .cfa: sp 32 +
STACK CFI 2573c .cfa: sp 0 +
STACK CFI 25740 .cfa: sp 32 +
STACK CFI 25748 .cfa: sp 0 +
STACK CFI INIT 2596c 64 .cfa: sp 0 +
STACK CFI 25970 .cfa: sp 32 +
STACK CFI 25978 .cfa: x29 32 + x19: .cfa -16 + ^ .ra: .cfa -24 + ^ x29: .cfa -32 + ^
STACK CFI 259a4 .cfa: sp 32 +
STACK CFI 259ac .cfa: sp 0 +
STACK CFI 259b0 .cfa: x29 32 +
STACK CFI 259c4 .cfa: sp 32 +
STACK CFI 259cc .cfa: sp 0 +
STACK CFI INIT 25bf4 24 .cfa: sp 0 +
STACK CFI 25bf8 .cfa: sp 32 +
STACK CFI 25c00 .cfa: x29 32 + x19: .cfa -16 + ^ .ra: .cfa -24 + ^ x29: .cfa -32 + ^
STACK CFI 25c0c .cfa: sp 32 +
STACK CFI 25c14 .cfa: sp 0 +
STACK CFI INIT 25e74 24 .cfa: sp 0 +
STACK CFI 25e78 .cfa: sp 32 +
STACK CFI 25e80 .cfa: x29 32 + x19: .cfa -16 + ^ .ra: .cfa -24 + ^ x29: .cfa -32 + ^
STACK CFI 25e8c .cfa: sp 32 +
STACK CFI 25e94 .cfa: sp 0 +
STACK CFI INIT 25e98 8 .cfa: sp 0 +
STACK CFI INIT 25ea0 24 .cfa: sp 0 +
STACK CFI 25ea4 .cfa: sp 32 +
STACK CFI 25eac .cfa: x29 32 + x19: .cfa -16 + ^ .ra: .cfa -24 + ^ x29: .cfa -32 + ^
STACK CFI 25eb8 .cfa: sp 32 +
STACK CFI 25ec0 .cfa: sp 0 +
STACK CFI INIT 25ec4 28 .cfa: sp 0 +
STACK CFI 25ec8 .cfa: sp 32 +
STACK CFI 25ed0 .cfa: x29 32 + x19: .cfa -16 + ^ .ra: .cfa -24 + ^ x29: .cfa -32 + ^
STACK CFI 25ee0 .cfa: sp 32 +
STACK CFI 25ee8 .cfa: sp 0 +
STACK CFI INIT 261ec 8 .cfa: sp 0 +
STACK CFI INIT 261f4 24 .cfa: sp 0 +
STACK CFI 261f8 .cfa: sp 32 +
STACK CFI 26200 .cfa: x29 32 + x19: .cfa -16 + ^ .ra: .cfa -24 + ^ x29: .cfa -32 + ^
STACK CFI 2620c .cfa: sp 32 +
STACK CFI 26214 .cfa: sp 0 +
STACK CFI INIT 26218 28 .cfa: sp 0 +
STACK CFI 2621c .cfa: sp 32 +
STACK CFI 26224 .cfa: x29 32 + x19: .cfa -16 + ^ .ra: .cfa -24 + ^ x29: .cfa -32 + ^
STACK CFI 26234 .cfa: sp 32 +
STACK CFI 2623c .cfa: sp 0 +
STACK CFI INIT 264a4 8 .cfa: sp 0 +
STACK CFI INIT 264ac 24 .cfa: sp 0 +
STACK CFI 264b0 .cfa: sp 32 +
STACK CFI 264b8 .cfa: x29 32 + x19: .cfa -16 + ^ .ra: .cfa -24 + ^ x29: .cfa -32 + ^
STACK CFI 264c4 .cfa: sp 32 +
STACK CFI 264cc .cfa: sp 0 +
STACK CFI INIT 264d0 28 .cfa: sp 0 +
STACK CFI 264d4 .cfa: sp 32 +
STACK CFI 264dc .cfa: x29 32 + x19: .cfa -16 + ^ .ra: .cfa -24 + ^ x29: .cfa -32 + ^
STACK CFI 264ec .cfa: sp 32 +
STACK CFI 264f4 .cfa: sp 0 +
STACK CFI INIT 26b4c 8 .cfa: sp 0 +
STACK CFI INIT 26b54 24 .cfa: sp 0 +
STACK CFI 26b58 .cfa: sp 32 +
STACK CFI 26b60 .cfa: x29 32 + x19: .cfa -16 + ^ .ra: .cfa -24 + ^ x29: .cfa -32 + ^
STACK CFI 26b6c .cfa: sp 32 +
STACK CFI 26b74 .cfa: sp 0 +
STACK CFI INIT 26b78 28 .cfa: sp 0 +
STACK CFI 26b7c .cfa: sp 32 +
STACK CFI 26b84 .cfa: x29 32 + x19: .cfa -16 + ^ .ra: .cfa -24 + ^ x29: .cfa -32 + ^
STACK CFI 26b94 .cfa: sp 32 +
STACK CFI 26b9c .cfa: sp 0 +
STACK CFI INIT 27d40 4 .cfa: sp 0 +
STACK CFI INIT 27d44 14 .cfa: sp 0 +
STACK CFI INIT 28264 c .cfa: sp 0 +
STACK CFI INIT 28270 24c .cfa: sp 0 +
STACK CFI INIT 284bc a0 .cfa: sp 0 +
STACK CFI 284c8 .cfa: sp 32 +
STACK CFI 28520 .cfa: sp 0 +
STACK CFI 28524 .cfa: sp 32 +
STACK CFI 2852c .cfa: sp 0 +
STACK CFI 28530 .cfa: sp 32 +
STACK CFI 28544 .cfa: sp 0 +
STACK CFI 28548 .cfa: sp 32 +
STACK CFI 28558 .cfa: sp 0 +
STACK CFI INIT 2855c 38 .cfa: sp 0 +
STACK CFI 28568 .cfa: sp 32 +
STACK CFI 28590 .cfa: sp 0 +
STACK CFI INIT 28828 7c .cfa: sp 0 +
STACK CFI 2882c .cfa: sp 32 +
STACK CFI 28834 .cfa: x29 32 + x19: .cfa -16 + ^ .ra: .cfa -24 + ^ x29: .cfa -32 + ^
STACK CFI 28860 .cfa: sp 32 +
STACK CFI 28868 .cfa: sp 0 +
STACK CFI 2886c .cfa: x29 32 +
STACK CFI 28898 .cfa: sp 32 +
STACK CFI 288a0 .cfa: sp 0 +
STACK CFI INIT 288f4 2c .cfa: sp 0 +
STACK CFI 288f8 .cfa: sp 32 +
STACK CFI 28900 .cfa: x29 32 + x19: .cfa -16 + ^ .ra: .cfa -24 + ^ x29: .cfa -32 + ^
STACK CFI 28914 .cfa: sp 32 +
STACK CFI 2891c .cfa: sp 0 +
STACK CFI INIT 290e0 64 .cfa: sp 0 +
STACK CFI 290e4 .cfa: sp 32 +
STACK CFI 290ec .cfa: x29 32 + x19: .cfa -16 + ^ .ra: .cfa -24 + ^ x29: .cfa -32 + ^
STACK CFI 29108 .cfa: sp 32 +
STACK CFI 29110 .cfa: sp 0 +
STACK CFI 29114 .cfa: x29 32 +
STACK CFI 29138 .cfa: sp 32 +
STACK CFI 29140 .cfa: sp 0 +
STACK CFI INIT 29144 570 .cfa: sp 0 +
STACK CFI 29148 .cfa: sp 176 +
STACK CFI 2915c .cfa: x29 64 + x19: .cfa -8 + ^ x20: .cfa -16 + ^ x21: .cfa -24 + ^ x22: .cfa -32 + ^ x23: .cfa -40 + ^ x24: .cfa -48 + ^ .ra: .cfa -56 + ^ x29: .cfa -64 + ^
STACK CFI 2938c .cfa: sp 176 +
STACK CFI 293a0 .cfa: sp 0 +
STACK CFI 293a4 .cfa: x29 64 +
STACK CFI 293f0 .cfa: sp 176 +
STACK CFI 29404 .cfa: sp 0 +
STACK CFI 29408 .cfa: x29 64 +
STACK CFI 29440 .cfa: sp 176 +
STACK CFI 29454 .cfa: sp 0 +
STACK CFI 29458 .cfa: x29 64 +
STACK CFI 29470 .cfa: sp 176 +
STACK CFI 29484 .cfa: sp 0 +
STACK CFI 29488 .cfa: x29 64 +
STACK CFI 294a8 .cfa: sp 176 +
STACK CFI 294bc .cfa: sp 0 +
STACK CFI 294c0 .cfa: x29 64 +
STACK CFI 294d8 .cfa: sp 176 +
STACK CFI 294ec .cfa: sp 0 +
STACK CFI 294f0 .cfa: x29 64 +
STACK CFI 29504 .cfa: sp 176 +
STACK CFI 29518 .cfa: sp 0 +
STACK CFI 2951c .cfa: x29 64 +
STACK CFI 29530 .cfa: sp 176 +
STACK CFI 29544 .cfa: sp 0 +
STACK CFI 29548 .cfa: x29 64 +
STACK CFI 29558 .cfa: sp 176 +
STACK CFI 2956c .cfa: sp 0 +
STACK CFI 29570 .cfa: x29 64 +
STACK CFI 29580 .cfa: sp 176 +
STACK CFI 29594 .cfa: sp 0 +
STACK CFI 29598 .cfa: x29 64 +
STACK CFI 295b0 .cfa: sp 176 +
STACK CFI 295c4 .cfa: sp 0 +
STACK CFI 295c8 .cfa: x29 64 +
STACK CFI 295dc .cfa: sp 176 +
STACK CFI 295f0 .cfa: sp 0 +
STACK CFI 295f4 .cfa: x29 64 +
STACK CFI 2960c .cfa: sp 176 +
STACK CFI 29620 .cfa: sp 0 +
STACK CFI 29624 .cfa: x29 64 +
STACK CFI 29650 .cfa: sp 176 +
STACK CFI 29664 .cfa: sp 0 +
STACK CFI 29668 .cfa: x29 64 +
STACK CFI 2967c .cfa: sp 176 +
STACK CFI 29690 .cfa: sp 0 +
STACK CFI 29694 .cfa: x29 64 +
STACK CFI INIT 296b4 228 .cfa: sp 0 +
STACK CFI INIT 298dc 2dc .cfa: sp 0 +
STACK CFI INIT 29bb8 53c .cfa: sp 0 +
STACK CFI INIT 2a0f4 78 .cfa: sp 0 +
STACK CFI 2a0f8 .cfa: sp 48 +
STACK CFI 2a104 .cfa: x29 48 + x19: .cfa -8 + ^ x20: .cfa -16 + ^ x21: .cfa -24 + ^ x22: .cfa -32 + ^ .ra: .cfa -40 + ^ x29: .cfa -48 + ^
STACK CFI 2a14c .cfa: sp 48 +
STACK CFI 2a158 .cfa: sp 0 +
STACK CFI 2a15c .cfa: sp 48 +
STACK CFI 2a168 .cfa: sp 0 +
STACK CFI INIT 2a16c 8c .cfa: sp 0 +
STACK CFI 2a170 .cfa: sp 32 +
STACK CFI 2a178 .cfa: x29 32 + x19: .cfa -16 + ^ .ra: .cfa -24 + ^ x29: .cfa -32 + ^
STACK CFI 2a1ac .cfa: sp 32 +
STACK CFI 2a1b4 .cfa: sp 0 +
STACK CFI 2a1b8 .cfa: x29 32 +
STACK CFI 2a1ec .cfa: sp 32 +
STACK CFI 2a1f4 .cfa: sp 0 +
STACK CFI INIT 2a1f8 24 .cfa: sp 0 +
STACK CFI 2a1fc .cfa: sp 32 +
STACK CFI 2a204 .cfa: x29 32 + x19: .cfa -16 + ^ .ra: .cfa -24 + ^ x29: .cfa -32 + ^
STACK CFI 2a210 .cfa: sp 32 +
STACK CFI 2a218 .cfa: sp 0 +
STACK CFI INIT 2a21c 150 .cfa: sp 0 +
STACK CFI 2a220 .cfa: sp 48 +
STACK CFI 2a22c .cfa: x29 48 + x19: .cfa -8 + ^ x20: .cfa -16 + ^ x21: .cfa -24 + ^ x22: .cfa -32 + ^ .ra: .cfa -40 + ^ x29: .cfa -48 + ^
STACK CFI 2a35c .cfa: sp 48 +
STACK CFI 2a368 .cfa: sp 0 +
STACK CFI INIT 2a36c 68 .cfa: sp 0 +
STACK CFI 2a370 .cfa: sp 64 +
STACK CFI 2a37c .cfa: x29 32 + x19: .cfa -16 + ^ .ra: .cfa -24 + ^ x29: .cfa -32 + ^
STACK CFI 2a3c0 .cfa: sp 64 +
STACK CFI 2a3cc .cfa: sp 0 +
STACK CFI 2a3d0 .cfa: x29 32 +
STACK CFI INIT 2a3d4 90 .cfa: sp 0 +
STACK CFI 2a3d8 .cfa: sp 32 +
STACK CFI 2a3e0 .cfa: x29 32 + x19: .cfa -8 + ^ x20: .cfa -16 + ^ .ra: .cfa -24 + ^ x29: .cfa -32 + ^
STACK CFI 2a40c .cfa: sp 32 +
STACK CFI 2a414 .cfa: sp 0 +
STACK CFI 2a418 .cfa: x29 32 +
STACK CFI 2a458 .cfa: sp 32 +
STACK CFI 2a460 .cfa: sp 0 +
STACK CFI INIT 2a464 ec .cfa: sp 0 +
STACK CFI 2a468 .cfa: sp 112 +
STACK CFI 2a478 .cfa: x29 48 + x19: .cfa -8 + ^ x20: .cfa -16 + ^ x21: .cfa -32 + ^ .ra: .cfa -40 + ^ x29: .cfa -48 + ^
STACK CFI 2a538 .cfa: sp 112 +
STACK CFI 2a548 .cfa: sp 0 +
STACK CFI 2a54c .cfa: x29 48 +
STACK CFI INIT 2a550 ec .cfa: sp 0 +
STACK CFI 2a554 .cfa: sp 112 +
STACK CFI 2a564 .cfa: x29 48 + x19: .cfa -8 + ^ x20: .cfa -16 + ^ x21: .cfa -32 + ^ .ra: .cfa -40 + ^ x29: .cfa -48 + ^
STACK CFI 2a624 .cfa: sp 112 +
STACK CFI 2a634 .cfa: sp 0 +
STACK CFI 2a638 .cfa: x29 48 +
STACK CFI INIT 2a63c 48 .cfa: sp 0 +
STACK CFI 2a640 .cfa: sp 32 +
STACK CFI 2a648 .cfa: x29 32 + x19: .cfa -8 + ^ x20: .cfa -16 + ^ .ra: .cfa -24 + ^ x29: .cfa -32 + ^
STACK CFI 2a66c .cfa: sp 32 +
STACK CFI 2a674 .cfa: sp 0 +
STACK CFI 2a678 .cfa: x29 32 +
STACK CFI INIT 2a684 98 .cfa: sp 0 +
STACK CFI 2a688 .cfa: sp 80 +
STACK CFI 2a694 .cfa: x29 32 + x19: .cfa -16 + ^ .ra: .cfa -24 + ^ x29: .cfa -32 + ^
STACK CFI 2a708 .cfa: sp 80 +
STACK CFI 2a714 .cfa: sp 0 +
STACK CFI 2a718 .cfa: x29 32 +
STACK CFI INIT 2a71c 260 .cfa: sp 0 +
STACK CFI 2a720 .cfa: sp 112 +
STACK CFI 2a738 .cfa: x29 80 + x19: .cfa -8 + ^ x20: .cfa -16 + ^ x21: .cfa -24 + ^ x22: .cfa -32 + ^ x23: .cfa -40 + ^ x24: .cfa -48 + ^ x25: .cfa -64 + ^ .ra: .cfa -72 + ^ x29: .cfa -80 + ^
STACK CFI 2a91c .cfa: sp 112 +
STACK CFI 2a934 .cfa: sp 0 +
STACK CFI 2a938 .cfa: x29 80 +
STACK CFI INIT 2a97c 150 .cfa: sp 0 +
STACK CFI 2a980 .cfa: sp 48 +
STACK CFI 2a98c .cfa: x29 48 + x19: .cfa -8 + ^ x20: .cfa -16 + ^ x21: .cfa -24 + ^ x22: .cfa -32 + ^ .ra: .cfa -40 + ^ x29: .cfa -48 + ^
STACK CFI 2aabc .cfa: sp 48 +
STACK CFI 2aac8 .cfa: sp 0 +
STACK CFI INIT 2aacc 1e0 .cfa: sp 0 +
STACK CFI 2aad0 .cfa: sp 96 +
STACK CFI 2aae4 .cfa: x29 64 + x19: .cfa -8 + ^ x20: .cfa -16 + ^ x21: .cfa -24 + ^ x22: .cfa -32 + ^ x23: .cfa -40 + ^ x24: .cfa -48 + ^ .ra: .cfa -56 + ^ x29: .cfa -64 + ^
STACK CFI 2ac64 .cfa: sp 96 +
STACK CFI 2ac78 .cfa: sp 0 +
STACK CFI 2ac7c .cfa: x29 64 +
STACK CFI INIT 2acac 284 .cfa: sp 0 +
STACK CFI 2acb0 .cfa: sp 112 +
STACK CFI 2acc8 .cfa: x29 80 + x19: .cfa -8 + ^ x20: .cfa -16 + ^ x21: .cfa -24 + ^ x22: .cfa -32 + ^ x23: .cfa -40 + ^ x24: .cfa -48 + ^ x25: .cfa -64 + ^ .ra: .cfa -72 + ^ x29: .cfa -80 + ^
STACK CFI 2aed0 .cfa: sp 112 +
STACK CFI 2aee8 .cfa: sp 0 +
STACK CFI 2aeec .cfa: x29 80 +
STACK CFI INIT 2af30 208 .cfa: sp 0 +
STACK CFI 2af34 .cfa: sp 96 +
STACK CFI 2af48 .cfa: x29 64 + x19: .cfa -8 + ^ x20: .cfa -16 + ^ x21: .cfa -24 + ^ x22: .cfa -32 + ^ x23: .cfa -40 + ^ x24: .cfa -48 + ^ .ra: .cfa -56 + ^ x29: .cfa -64 + ^
STACK CFI 2b0f0 .cfa: sp 96 +
STACK CFI 2b104 .cfa: sp 0 +
STACK CFI 2b108 .cfa: x29 64 +
STACK CFI INIT 2b138 360 .cfa: sp 0 +
STACK CFI 2b13c .cfa: sp 160 +
STACK CFI 2b158 .cfa: x29 96 + x19: .cfa -8 + ^ x20: .cfa -16 + ^ x21: .cfa -24 + ^ x22: .cfa -32 + ^ x23: .cfa -40 + ^ x24: .cfa -48 + ^ x25: .cfa -56 + ^ x26: .cfa -64 + ^ x27: .cfa -72 + ^ x28: .cfa -80 + ^ .ra: .cfa -88 + ^ x29: .cfa -96 + ^
STACK CFI 2b424 .cfa: sp 160 +
STACK CFI 2b440 .cfa: sp 0 +
STACK CFI 2b444 .cfa: x29 96 +
STACK CFI INIT 2b498 314 .cfa: sp 0 +
STACK CFI 2b49c .cfa: sp 144 +
STACK CFI 2b4b8 .cfa: x29 96 + x19: .cfa -8 + ^ x20: .cfa -16 + ^ x21: .cfa -24 + ^ x22: .cfa -32 + ^ x23: .cfa -40 + ^ x24: .cfa -48 + ^ x25: .cfa -56 + ^ x26: .cfa -64 + ^ x27: .cfa -72 + ^ x28: .cfa -80 + ^ .ra: .cfa -88 + ^ x29: .cfa -96 + ^
STACK CFI 2b734 .cfa: sp 144 +
STACK CFI 2b750 .cfa: sp 0 +
STACK CFI 2b754 .cfa: x29 96 +
STACK CFI INIT 2b7ac 290 .cfa: sp 0 +
STACK CFI 2b7b0 .cfa: sp 128 +
STACK CFI 2b7c8 .cfa: x29 80 + x19: .cfa -8 + ^ x20: .cfa -16 + ^ x21: .cfa -24 + ^ x22: .cfa -32 + ^ x23: .cfa -40 + ^ x24: .cfa -48 + ^ x25: .cfa -56 + ^ x26: .cfa -64 + ^ .ra: .cfa -72 + ^ x29: .cfa -80 + ^
STACK CFI 2ba1c .cfa: sp 128 +
STACK CFI 2ba34 .cfa: sp 0 +
STACK CFI 2ba38 .cfa: x29 80 +
STACK CFI INIT 2ba3c ddc .cfa: sp 0 +
STACK CFI 2ba40 .cfa: sp 144 +
STACK CFI 2ba5c .cfa: x29 96 + x19: .cfa -8 + ^ x20: .cfa -16 + ^ x21: .cfa -24 + ^ x22: .cfa -32 + ^ x23: .cfa -40 + ^ x24: .cfa -48 + ^ x25: .cfa -56 + ^ x26: .cfa -64 + ^ x27: .cfa -72 + ^ x28: .cfa -80 + ^ .ra: .cfa -88 + ^ x29: .cfa -96 + ^
STACK CFI 2c6f0 .cfa: sp 144 +
STACK CFI 2c70c .cfa: sp 0 +
STACK CFI 2c710 .cfa: x29 96 +
STACK CFI INIT 2c818 1d0 .cfa: sp 0 +
STACK CFI 2c81c .cfa: sp 80 +
STACK CFI 2c830 .cfa: x29 80 + x19: .cfa -8 + ^ x20: .cfa -16 + ^ x21: .cfa -24 + ^ x22: .cfa -32 + ^ x23: .cfa -40 + ^ x24: .cfa -48 + ^ x25: .cfa -64 + ^ .ra: .cfa -72 + ^ x29: .cfa -80 + ^
STACK CFI 2c9d0 .cfa: sp 80 +
STACK CFI 2c9e4 .cfa: sp 0 +
STACK CFI INIT 2c9e8 23c .cfa: sp 0 +
STACK CFI 2c9ec .cfa: sp 112 +
STACK CFI 2ca00 .cfa: x29 64 + x19: .cfa -8 + ^ x20: .cfa -16 + ^ x21: .cfa -24 + ^ x22: .cfa -32 + ^ x23: .cfa -40 + ^ x24: .cfa -48 + ^ .ra: .cfa -56 + ^ x29: .cfa -64 + ^
STACK CFI 2cbdc .cfa: sp 112 +
STACK CFI 2cbf0 .cfa: sp 0 +
STACK CFI 2cbf4 .cfa: x29 64 +
STACK CFI INIT 2cc24 30c .cfa: sp 0 +
STACK CFI 2cc28 .cfa: sp 80 +
STACK CFI 2cc3c .cfa: x29 64 + x19: .cfa -8 + ^ x20: .cfa -16 + ^ x21: .cfa -24 + ^ x22: .cfa -32 + ^ x23: .cfa -40 + ^ x24: .cfa -48 + ^ .ra: .cfa -56 + ^ x29: .cfa -64 + ^
STACK CFI 2cdb8 .cfa: sp 80 +
STACK CFI 2cdcc .cfa: sp 0 +
STACK CFI 2cdd0 .cfa: x29 64 +
STACK CFI INIT 2cf30 178 .cfa: sp 0 +
STACK CFI 2cf34 .cfa: sp 80 +
STACK CFI 2cf48 .cfa: x29 64 + x19: .cfa -8 + ^ x20: .cfa -16 + ^ x21: .cfa -24 + ^ x22: .cfa -32 + ^ x23: .cfa -40 + ^ x24: .cfa -48 + ^ .ra: .cfa -56 + ^ x29: .cfa -64 + ^
STACK CFI 2d08c .cfa: sp 80 +
STACK CFI 2d0a0 .cfa: sp 0 +
STACK CFI 2d0a4 .cfa: x29 64 +
STACK CFI INIT 2d0a8 178 .cfa: sp 0 +
STACK CFI 2d0ac .cfa: sp 80 +
STACK CFI 2d0c0 .cfa: x29 64 + x19: .cfa -8 + ^ x20: .cfa -16 + ^ x21: .cfa -24 + ^ x22: .cfa -32 + ^ x23: .cfa -40 + ^ x24: .cfa -48 + ^ .ra: .cfa -56 + ^ x29: .cfa -64 + ^
STACK CFI 2d204 .cfa: sp 80 +
STACK CFI 2d218 .cfa: sp 0 +
STACK CFI 2d21c .cfa: x29 64 +
STACK CFI INIT 2d220 240 .cfa: sp 0 +
STACK CFI 2d224 .cfa: sp 96 +
STACK CFI 2d23c .cfa: x29 96 + x19: .cfa -8 + ^ x20: .cfa -16 + ^ x21: .cfa -24 + ^ x22: .cfa -32 + ^ x23: .cfa -40 + ^ x24: .cfa -48 + ^ x25: .cfa -56 + ^ x26: .cfa -64 + ^ x27: .cfa -72 + ^ x28: .cfa -80 + ^ .ra: .cfa -88 + ^ x29: .cfa -96 + ^
STACK CFI 2d444 .cfa: sp 96 +
STACK CFI 2d45c .cfa: sp 0 +
STACK CFI INIT 2e0d4 154 .cfa: sp 0 +
STACK CFI 2e0d8 .cfa: sp 96 +
STACK CFI 2e0ec .cfa: x29 64 + x19: .cfa -8 + ^ x20: .cfa -16 + ^ x21: .cfa -24 + ^ x22: .cfa -32 + ^ x23: .cfa -48 + ^ .ra: .cfa -56 + ^ x29: .cfa -64 + ^
STACK CFI 2e1cc .cfa: sp 96 +
STACK CFI 2e1e0 .cfa: sp 0 +
STACK CFI 2e1e4 .cfa: x29 64 +
STACK CFI INIT 2e494 44 .cfa: sp 0 +
STACK CFI 2e498 .cfa: sp 32 +
STACK CFI 2e4a0 .cfa: x29 32 + x19: .cfa -16 + ^ .ra: .cfa -24 + ^ x29: .cfa -32 + ^
STACK CFI 2e4bc .cfa: sp 32 +
STACK CFI 2e4c4 .cfa: sp 0 +
STACK CFI 2e4c8 .cfa: x29 32 +
STACK CFI 2e4cc .cfa: sp 32 +
STACK CFI 2e4d4 .cfa: sp 0 +
STACK CFI INIT 2e4d8 1d0 .cfa: sp 0 +
STACK CFI 2e4dc .cfa: sp 64 +
STACK CFI 2e4ec .cfa: x29 64 + x19: .cfa -8 + ^ x20: .cfa -16 + ^ x21: .cfa -24 + ^ x22: .cfa -32 + ^ x23: .cfa -40 + ^ x24: .cfa -48 + ^ .ra: .cfa -56 + ^ x29: .cfa -64 + ^
STACK CFI 2e5ac .cfa: sp 64 +
STACK CFI 2e5bc .cfa: sp 0 +
STACK CFI 2e5c0 .cfa: x29 64 +
STACK CFI INIT 2e6a8 17c .cfa: sp 0 +
STACK CFI INIT 2ebdc a0 .cfa: sp 0 +
STACK CFI 2ebe0 .cfa: sp 48 +
STACK CFI 2ebec .cfa: x29 48 + x19: .cfa -8 + ^ x20: .cfa -16 + ^ x21: .cfa -24 + ^ x22: .cfa -32 + ^ .ra: .cfa -40 + ^ x29: .cfa -48 + ^
STACK CFI 2ec58 .cfa: sp 48 +
STACK CFI 2ec64 .cfa: sp 0 +
STACK CFI 2ec68 .cfa: sp 48 +
STACK CFI 2ec74 .cfa: sp 0 +
STACK CFI 2ec78 .cfa: x29 48 +
STACK CFI INIT 2f930 158 .cfa: sp 0 +
STACK CFI 2f934 .cfa: sp 96 +
STACK CFI 2f948 .cfa: x29 64 + x19: .cfa -8 + ^ x20: .cfa -16 + ^ x21: .cfa -24 + ^ x22: .cfa -32 + ^ x23: .cfa -48 + ^ .ra: .cfa -56 + ^ x29: .cfa -64 + ^
STACK CFI 2fa2c .cfa: sp 96 +
STACK CFI 2fa40 .cfa: sp 0 +
STACK CFI 2fa44 .cfa: x29 64 +
STACK CFI INIT 2fa88 190 .cfa: sp 0 +
STACK CFI INIT 30714 1dc .cfa: sp 0 +
STACK CFI 30718 .cfa: sp 80 +
STACK CFI 3072c .cfa: x29 80 + x19: .cfa -8 + ^ x20: .cfa -16 + ^ x21: .cfa -24 + ^ x22: .cfa -32 + ^ x23: .cfa -40 + ^ x24: .cfa -48 + ^ x25: .cfa -64 + ^ .ra: .cfa -72 + ^ x29: .cfa -80 + ^
STACK CFI 308d8 .cfa: sp 80 +
STACK CFI 308ec .cfa: sp 0 +
STACK CFI INIT 31d20 124 .cfa: sp 0 +
STACK CFI 31d50 .cfa: sp 32 +
STACK CFI 31d58 .cfa: x29 32 + x19: .cfa -8 + ^ x20: .cfa -16 + ^ .ra: .cfa -24 + ^ x29: .cfa -32 + ^
STACK CFI 31e38 .cfa: sp 32 +
STACK CFI 31e40 .cfa: sp 0 +
STACK CFI INIT 325a0 320 .cfa: sp 0 +
STACK CFI 325a4 .cfa: sp 64 +
STACK CFI 325b4 .cfa: x29 64 + x19: .cfa -8 + ^ x20: .cfa -16 + ^ x21: .cfa -24 + ^ x22: .cfa -32 + ^ x23: .cfa -40 + ^ x24: .cfa -48 + ^ .ra: .cfa -56 + ^ x29: .cfa -64 + ^
STACK CFI 32630 .cfa: sp 64 +
STACK CFI 32640 .cfa: sp 0 +
STACK CFI 32644 .cfa: x29 64 +
STACK CFI 32818 .cfa: sp 64 +
STACK CFI 32828 .cfa: sp 0 +
STACK CFI 3282c .cfa: x29 64 +
STACK CFI 3283c .cfa: sp 64 +
STACK CFI 3284c .cfa: sp 0 +
STACK CFI 32850 .cfa: x29 64 +
STACK CFI INIT 328c0 a0 .cfa: sp 0 +
STACK CFI 328c4 .cfa: sp 48 +
STACK CFI 328d0 .cfa: x29 48 + x19: .cfa -8 + ^ x20: .cfa -16 + ^ x21: .cfa -24 + ^ x22: .cfa -32 + ^ .ra: .cfa -40 + ^ x29: .cfa -48 + ^
STACK CFI 3293c .cfa: sp 48 +
STACK CFI 32948 .cfa: sp 0 +
STACK CFI 3294c .cfa: sp 48 +
STACK CFI 32958 .cfa: sp 0 +
STACK CFI 3295c .cfa: x29 48 +
STACK CFI INIT 33810 160 .cfa: sp 0 +
STACK CFI 33814 .cfa: sp 64 +
STACK CFI 33824 .cfa: x29 64 + x19: .cfa -8 + ^ x20: .cfa -16 + ^ x21: .cfa -24 + ^ x22: .cfa -32 + ^ x23: .cfa -48 + ^ .ra: .cfa -56 + ^ x29: .cfa -64 + ^
STACK CFI 3391c .cfa: sp 64 +
STACK CFI 3392c .cfa: sp 0 +
STACK CFI 33930 .cfa: x29 64 +
STACK CFI INIT 33970 214 .cfa: sp 0 +
STACK CFI 33974 .cfa: sp 128 +
STACK CFI 33990 .cfa: x29 96 + x19: .cfa -8 + ^ x20: .cfa -16 + ^ x21: .cfa -24 + ^ x22: .cfa -32 + ^ x23: .cfa -40 + ^ x24: .cfa -48 + ^ x25: .cfa -56 + ^ x26: .cfa -64 + ^ x27: .cfa -80 + ^ .ra: .cfa -88 + ^ x29: .cfa -96 + ^
STACK CFI 33b0c .cfa: sp 128 +
STACK CFI 33b28 .cfa: sp 0 +
STACK CFI 33b2c .cfa: x29 96 +
STACK CFI INIT 35820 290 .cfa: sp 0 +
STACK CFI 35824 .cfa: sp 16 +
STACK CFI 35828 .cfa: x29 16 + .ra: .cfa -8 + ^ x29: .cfa -16 + ^
STACK CFI 358b4 .cfa: sp 16 +
STACK CFI 358b8 .cfa: sp 0 +
STACK CFI 358bc .cfa: x29 16 +
STACK CFI 3590c .cfa: sp 16 +
STACK CFI 35910 .cfa: sp 0 +
STACK CFI 35914 .cfa: x29 16 +
STACK CFI 35a78 .cfa: sp 16 +
STACK CFI 35a7c .cfa: sp 0 +
STACK CFI 35a80 .cfa: x29 16 +
STACK CFI INIT 35ab0 158 .cfa: sp 0 +
STACK CFI 35ab4 .cfa: sp 112 +
STACK CFI 35ad0 .cfa: x29 96 + x19: .cfa -8 + ^ x20: .cfa -16 + ^ x21: .cfa -24 + ^ x22: .cfa -32 + ^ x23: .cfa -40 + ^ x24: .cfa -48 + ^ x25: .cfa -56 + ^ x26: .cfa -64 + ^ x27: .cfa -72 + ^ x28: .cfa -80 + ^ .ra: .cfa -88 + ^ x29: .cfa -96 + ^
STACK CFI 35bb8 .cfa: sp 112 +
STACK CFI 35bbc .cfa: x29 96 +
STACK CFI 35bc4 .cfa: sp 112 +
STACK CFI 35be0 .cfa: sp 0 +
STACK CFI 35be4 .cfa: x29 96 +
STACK CFI 35c04 .cfa: sp 112 +
STACK CFI INIT 35c08 e54 .cfa: sp 0 +
STACK CFI 35c0c .cfa: sp 192 +
STACK CFI 35c28 .cfa: x29 96 + x19: .cfa -8 + ^ x20: .cfa -16 + ^ x21: .cfa -24 + ^ x22: .cfa -32 + ^ x23: .cfa -40 + ^ x24: .cfa -48 + ^ x25: .cfa -56 + ^ x26: .cfa -64 + ^ x27: .cfa -72 + ^ x28: .cfa -80 + ^ .ra: .cfa -88 + ^ x29: .cfa -96 + ^
STACK CFI 36944 .cfa: sp 192 +
STACK CFI 36960 .cfa: sp 0 +
STACK CFI 36964 .cfa: x29 96 +
STACK CFI INIT 36a5c 1068 .cfa: sp 0 +
STACK CFI 36a60 .cfa: sp 288 +
STACK CFI 36a7c .cfa: x29 96 + x19: .cfa -8 + ^ x20: .cfa -16 + ^ x21: .cfa -24 + ^ x22: .cfa -32 + ^ x23: .cfa -40 + ^ x24: .cfa -48 + ^ x25: .cfa -56 + ^ x26: .cfa -64 + ^ x27: .cfa -72 + ^ x28: .cfa -80 + ^ .ra: .cfa -88 + ^ x29: .cfa -96 + ^
STACK CFI 3780c .cfa: sp 288 +
STACK CFI 37828 .cfa: sp 0 +
STACK CFI 3782c .cfa: x29 96 +
STACK CFI INIT 37ac4 520 .cfa: sp 0 +
STACK CFI 37ac8 .cfa: sp 144 +
STACK CFI 37ae4 .cfa: x29 96 + x19: .cfa -8 + ^ x20: .cfa -16 + ^ x21: .cfa -24 + ^ x22: .cfa -32 + ^ x23: .cfa -40 + ^ x24: .cfa -48 + ^ x25: .cfa -56 + ^ x26: .cfa -64 + ^ x27: .cfa -72 + ^ x28: .cfa -80 + ^ .ra: .cfa -88 + ^ x29: .cfa -96 + ^
STACK CFI 37fc0 .cfa: sp 144 +
STACK CFI 37fdc .cfa: sp 0 +
STACK CFI 37fe0 .cfa: x29 96 +
STACK CFI INIT 38984 136c .cfa: sp 0 +
STACK CFI 38988 .cfa: sp 224 +
STACK CFI 389a4 .cfa: x29 96 + x19: .cfa -8 + ^ x20: .cfa -16 + ^ x21: .cfa -24 + ^ x22: .cfa -32 + ^ x23: .cfa -40 + ^ x24: .cfa -48 + ^ x25: .cfa -56 + ^ x26: .cfa -64 + ^ x27: .cfa -72 + ^ x28: .cfa -80 + ^ .ra: .cfa -88 + ^ x29: .cfa -96 + ^
STACK CFI 39ccc .cfa: sp 224 +
STACK CFI 39ce8 .cfa: sp 0 +
STACK CFI 39cec .cfa: x29 96 +
STACK CFI INIT 39cf0 1b8 .cfa: sp 0 +
STACK CFI INIT 1df70 17c .cfa: sp 0 +
STACK CFI 1df74 .cfa: sp 80 +
STACK CFI 1df84 .cfa: x29 48 + x19: .cfa -8 + ^ x20: .cfa -16 + ^ x21: .cfa -32 + ^ .ra: .cfa -40 + ^ x29: .cfa -48 + ^
STACK CFI 1e0b0 .cfa: sp 80 +
STACK CFI 1e0c0 .cfa: sp 0 +
STACK CFI 1e0c4 .cfa: x29 48 +
STACK CFI INIT 1e0ec b9c .cfa: sp 0 +
STACK CFI 1e0f0 .cfa: sp 112 +
STACK CFI 1e10c .cfa: x29 96 + x19: .cfa -8 + ^ x20: .cfa -16 + ^ x21: .cfa -24 + ^ x22: .cfa -32 + ^ x23: .cfa -40 + ^ x24: .cfa -48 + ^ x25: .cfa -56 + ^ x26: .cfa -64 + ^ x27: .cfa -72 + ^ x28: .cfa -80 + ^ .ra: .cfa -88 + ^ x29: .cfa -96 + ^ v8: .cfa -112 + ^
STACK CFI 1eaf8 .cfa: sp 112 +
STACK CFI 1eb14 .cfa: sp 0 +
STACK CFI 1eb18 .cfa: x29 96 +
STACK CFI INIT 1ec88 22c .cfa: sp 0 +
STACK CFI 1ec8c .cfa: sp 192 +
STACK CFI 1eca0 .cfa: x29 64 + x19: .cfa -8 + ^ x20: .cfa -16 + ^ x21: .cfa -24 + ^ x22: .cfa -32 + ^ x23: .cfa -40 + ^ x24: .cfa -48 + ^ .ra: .cfa -56 + ^ x29: .cfa -64 + ^
STACK CFI 1ee30 .cfa: sp 192 +
STACK CFI 1ee44 .cfa: sp 0 +
STACK CFI 1ee48 .cfa: x29 64 +
STACK CFI INIT 1eeb4 2cc .cfa: sp 0 +
STACK CFI 1eeb8 .cfa: sp 128 +
STACK CFI 1eed4 .cfa: x29 96 + x19: .cfa -8 + ^ x20: .cfa -16 + ^ x21: .cfa -24 + ^ x22: .cfa -32 + ^ x23: .cfa -40 + ^ x24: .cfa -48 + ^ x25: .cfa -56 + ^ x26: .cfa -64 + ^ x27: .cfa -80 + ^ .ra: .cfa -88 + ^ x29: .cfa -96 + ^
STACK CFI 1f118 .cfa: sp 128 +
STACK CFI 1f134 .cfa: sp 0 +
STACK CFI 1f138 .cfa: x29 96 +
STACK CFI INIT 1f180 3cc .cfa: sp 0 +
STACK CFI 1f184 .cfa: sp 224 +
STACK CFI 1f198 .cfa: x29 64 + x19: .cfa -8 + ^ x20: .cfa -16 + ^ x21: .cfa -24 + ^ x22: .cfa -32 + ^ x23: .cfa -48 + ^ .ra: .cfa -56 + ^ x29: .cfa -64 + ^
STACK CFI 1f458 .cfa: sp 224 +
STACK CFI 1f46c .cfa: sp 0 +
STACK CFI 1f470 .cfa: x29 64 +
STACK CFI INIT 1f554 b4 .cfa: sp 0 +
STACK CFI 1f558 .cfa: sp 32 +
STACK CFI 1f560 .cfa: x29 32 + x19: .cfa -16 + ^ .ra: .cfa -24 + ^ x29: .cfa -32 + ^
STACK CFI 1f5f8 .cfa: sp 32 +
STACK CFI 1f600 .cfa: sp 0 +
STACK CFI 1f604 .cfa: x29 32 +
STACK CFI INIT 1f608 bc .cfa: sp 0 +
STACK CFI 1f60c .cfa: sp 32 +
STACK CFI 1f614 .cfa: x29 32 + x19: .cfa -16 + ^ .ra: .cfa -24 + ^ x29: .cfa -32 + ^
STACK CFI 1f6b4 .cfa: sp 32 +
STACK CFI 1f6bc .cfa: sp 0 +
STACK CFI 1f6c0 .cfa: x29 32 +
STACK CFI INIT 1f724 148 .cfa: sp 0 +
STACK CFI 1f728 .cfa: sp 96 +
STACK CFI 1f738 .cfa: x29 48 + x19: .cfa -8 + ^ x20: .cfa -16 + ^ x21: .cfa -32 + ^ .ra: .cfa -40 + ^ x29: .cfa -48 + ^
STACK CFI 1f820 .cfa: sp 96 +
STACK CFI 1f830 .cfa: sp 0 +
STACK CFI 1f834 .cfa: x29 48 +
STACK CFI INIT 1f86c b8 .cfa: sp 0 +
STACK CFI 1f870 .cfa: sp 32 +
STACK CFI 1f878 .cfa: x29 32 + x19: .cfa -8 + ^ x20: .cfa -16 + ^ .ra: .cfa -24 + ^ x29: .cfa -32 + ^
STACK CFI 1f914 .cfa: sp 32 +
STACK CFI 1f91c .cfa: sp 0 +
STACK CFI 1f920 .cfa: x29 32 +
STACK CFI INIT 1f924 c0 .cfa: sp 0 +
STACK CFI 1f928 .cfa: sp 32 +
STACK CFI 1f930 .cfa: x29 32 + x19: .cfa -8 + ^ x20: .cfa -16 + ^ .ra: .cfa -24 + ^ x29: .cfa -32 + ^
STACK CFI 1f9d4 .cfa: sp 32 +
STACK CFI 1f9dc .cfa: sp 0 +
STACK CFI 1f9e0 .cfa: x29 32 +
STACK CFI INIT 1fa2c 6c .cfa: sp 0 +
STACK CFI 1fa30 .cfa: sp 32 +
STACK CFI 1fa38 .cfa: x29 32 + x19: .cfa -16 + ^ .ra: .cfa -24 + ^ x29: .cfa -32 + ^
STACK CFI 1fa88 .cfa: sp 32 +
STACK CFI 1fa90 .cfa: sp 0 +
STACK CFI 1fa94 .cfa: x29 32 +
STACK CFI INIT 1fa9c 6c .cfa: sp 0 +
STACK CFI 1faa0 .cfa: sp 32 +
STACK CFI 1faa8 .cfa: x29 32 + x19: .cfa -16 + ^ .ra: .cfa -24 + ^ x29: .cfa -32 + ^
STACK CFI 1faf8 .cfa: sp 32 +
STACK CFI 1fb00 .cfa: sp 0 +
STACK CFI 1fb04 .cfa: x29 32 +
STACK CFI INIT 1fb30 50 .cfa: sp 0 +
STACK CFI 1fb34 .cfa: sp 32 +
STACK CFI 1fb3c .cfa: x29 32 + x19: .cfa -8 + ^ x20: .cfa -16 + ^ .ra: .cfa -24 + ^ x29: .cfa -32 + ^
STACK CFI INIT 2019c 74 .cfa: sp 0 +
STACK CFI 201a0 .cfa: sp 48 +
STACK CFI 201ac .cfa: x29 32 + x19: .cfa -8 + ^ x20: .cfa -16 + ^ .ra: .cfa -24 + ^ x29: .cfa -32 + ^
STACK CFI 201f8 .cfa: sp 48 +
STACK CFI 20204 .cfa: sp 0 +
STACK CFI 20208 .cfa: x29 32 +
STACK CFI INIT 20314 74 .cfa: sp 0 +
STACK CFI 20318 .cfa: sp 48 +
STACK CFI 20324 .cfa: x29 32 + x19: .cfa -8 + ^ x20: .cfa -16 + ^ .ra: .cfa -24 + ^ x29: .cfa -32 + ^
STACK CFI 20370 .cfa: sp 48 +
STACK CFI 2037c .cfa: sp 0 +
STACK CFI 20380 .cfa: x29 32 +
STACK CFI INIT 20388 314 .cfa: sp 0 +
STACK CFI 2038c .cfa: sp 176 +
STACK CFI 203a8 .cfa: x29 96 + x19: .cfa -8 + ^ x20: .cfa -16 + ^ x21: .cfa -24 + ^ x22: .cfa -32 + ^ x23: .cfa -40 + ^ x24: .cfa -48 + ^ x25: .cfa -56 + ^ x26: .cfa -64 + ^ x27: .cfa -72 + ^ x28: .cfa -80 + ^ .ra: .cfa -88 + ^ x29: .cfa -96 + ^
STACK CFI 205a0 .cfa: sp 176 +
STACK CFI 205bc .cfa: sp 0 +
STACK CFI 205c0 .cfa: x29 96 +
STACK CFI INIT 2069c 74 .cfa: sp 0 +
STACK CFI 206a0 .cfa: sp 48 +
STACK CFI 206ac .cfa: x29 32 + x19: .cfa -8 + ^ x20: .cfa -16 + ^ .ra: .cfa -24 + ^ x29: .cfa -32 + ^
STACK CFI 206f8 .cfa: sp 48 +
STACK CFI 20704 .cfa: sp 0 +
STACK CFI 20708 .cfa: x29 32 +
STACK CFI INIT 20744 12c .cfa: sp 0 +
STACK CFI 20748 .cfa: sp 80 +
STACK CFI 2075c .cfa: x29 80 + x19: .cfa -8 + ^ x20: .cfa -16 + ^ x21: .cfa -24 + ^ x22: .cfa -32 + ^ x23: .cfa -40 + ^ x24: .cfa -48 + ^ x25: .cfa -56 + ^ x26: .cfa -64 + ^ .ra: .cfa -72 + ^ x29: .cfa -80 + ^
STACK CFI 20824 .cfa: sp 80 +
STACK CFI 20838 .cfa: sp 0 +
STACK CFI 2083c .cfa: x29 80 +
STACK CFI INIT 20914 1a4 .cfa: sp 0 +
STACK CFI 20918 .cfa: sp 112 +
STACK CFI 20930 .cfa: x29 80 + x19: .cfa -8 + ^ x20: .cfa -16 + ^ x21: .cfa -24 + ^ x22: .cfa -32 + ^ x23: .cfa -40 + ^ x24: .cfa -48 + ^ x25: .cfa -56 + ^ x26: .cfa -64 + ^ .ra: .cfa -72 + ^ x29: .cfa -80 + ^
STACK CFI 20a20 .cfa: sp 112 +
STACK CFI 20a38 .cfa: sp 0 +
STACK CFI 20a3c .cfa: x29 80 +
STACK CFI INIT 20ab8 1dc .cfa: sp 0 +
STACK CFI 20abc .cfa: sp 128 +
STACK CFI 20ad8 .cfa: x29 96 + x19: .cfa -8 + ^ x20: .cfa -16 + ^ x21: .cfa -24 + ^ x22: .cfa -32 + ^ x23: .cfa -40 + ^ x24: .cfa -48 + ^ x25: .cfa -56 + ^ x26: .cfa -64 + ^ x27: .cfa -80 + ^ .ra: .cfa -88 + ^ x29: .cfa -96 + ^
STACK CFI 20c44 .cfa: sp 128 +
STACK CFI 20c60 .cfa: sp 0 +
STACK CFI 20c64 .cfa: x29 96 +
STACK CFI INIT 20c94 178 .cfa: sp 0 +
STACK CFI 20c98 .cfa: sp 80 +
STACK CFI 20cac .cfa: x29 80 + x19: .cfa -8 + ^ x20: .cfa -16 + ^ x21: .cfa -24 + ^ x22: .cfa -32 + ^ x23: .cfa -40 + ^ x24: .cfa -48 + ^ x25: .cfa -64 + ^ .ra: .cfa -72 + ^ x29: .cfa -80 + ^
STACK CFI 20dd8 .cfa: sp 80 +
STACK CFI 20dec .cfa: sp 0 +
STACK CFI 20df0 .cfa: x29 80 +
STACK CFI INIT 20f54 168 .cfa: sp 0 +
STACK CFI 20f58 .cfa: sp 384 +
STACK CFI 20f6c .cfa: x29 64 + x19: .cfa -8 + ^ x20: .cfa -16 + ^ x21: .cfa -24 + ^ x22: .cfa -32 + ^ x23: .cfa -40 + ^ x28: .cfa -48 + ^ .ra: .cfa -56 + ^ x29: .cfa -64 + ^
STACK CFI 21064 .cfa: sp 384 +
STACK CFI 21078 .cfa: sp 0 +
STACK CFI 2107c .cfa: x29 64 +
STACK CFI INIT 21190 1dc .cfa: sp 0 +
STACK CFI 21194 .cfa: sp 160 +
STACK CFI 211ac .cfa: x29 80 + x19: .cfa -8 + ^ x20: .cfa -16 + ^ x21: .cfa -24 + ^ x22: .cfa -32 + ^ x23: .cfa -40 + ^ x24: .cfa -48 + ^ x25: .cfa -64 + ^ .ra: .cfa -72 + ^ x29: .cfa -80 + ^
STACK CFI 21304 .cfa: sp 160 +
STACK CFI 2131c .cfa: sp 0 +
STACK CFI 21320 .cfa: x29 80 +
STACK CFI INIT 219d8 9c .cfa: sp 0 +
STACK CFI 219dc .cfa: sp 32 +
STACK CFI 219e4 .cfa: x29 32 + x19: .cfa -8 + ^ x20: .cfa -16 + ^ .ra: .cfa -24 + ^ x29: .cfa -32 + ^
STACK CFI 21a30 .cfa: sp 32 +
STACK CFI 21a38 .cfa: sp 0 +
STACK CFI 21a3c .cfa: x29 32 +
STACK CFI 21a54 .cfa: sp 32 +
STACK CFI 21a5c .cfa: sp 0 +
STACK CFI 21a60 .cfa: x29 32 +
STACK CFI INIT 21b8c 2ac .cfa: sp 0 +
STACK CFI 21b90 .cfa: sp 176 +
STACK CFI 21ba4 .cfa: x29 64 + x19: .cfa -8 + ^ x20: .cfa -16 + ^ x21: .cfa -24 + ^ x22: .cfa -32 + ^ x23: .cfa -48 + ^ .ra: .cfa -56 + ^ x29: .cfa -64 + ^
STACK CFI 21d8c .cfa: sp 176 +
STACK CFI 21da0 .cfa: sp 0 +
STACK CFI 21da4 .cfa: x29 64 +
STACK CFI INIT 21e60 12c .cfa: sp 0 +
STACK CFI 21e64 .cfa: sp 64 +
STACK CFI 21e74 .cfa: x29 48 + x19: .cfa -8 + ^ x20: .cfa -16 + ^ x21: .cfa -24 + ^ x22: .cfa -32 + ^ .ra: .cfa -40 + ^ x29: .cfa -48 + ^
STACK CFI 21f50 .cfa: sp 64 +
STACK CFI 21f60 .cfa: sp 0 +
STACK CFI 21f64 .cfa: x29 48 +
STACK CFI INIT 21f8c dc .cfa: sp 0 +
STACK CFI 21f90 .cfa: sp 80 +
STACK CFI 21fa4 .cfa: x29 64 + x19: .cfa -8 + ^ x20: .cfa -16 + ^ x21: .cfa -24 + ^ x22: .cfa -32 + ^ x23: .cfa -48 + ^ .ra: .cfa -56 + ^ x29: .cfa -64 + ^
STACK CFI 22020 .cfa: sp 80 +
STACK CFI 22034 .cfa: sp 0 +
STACK CFI 22038 .cfa: x29 64 +
STACK CFI INIT 22068 20 .cfa: sp 0 +
STACK CFI 2206c .cfa: sp 16 +
STACK CFI 22070 .cfa: x29 16 + .ra: .cfa -8 + ^ x29: .cfa -16 + ^
STACK CFI 2207c .cfa: sp 16 +
STACK CFI 22080 .cfa: sp 0 +
STACK CFI 22084 .cfa: x29 16 +
STACK CFI INIT 22088 f0 .cfa: sp 0 +
STACK CFI 2208c .cfa: sp 96 +
STACK CFI 220a4 .cfa: x29 56 + x19: .cfa -8 + ^ x20: .cfa -16 + ^ x21: .cfa -24 + ^ x22: .cfa -32 + ^ x23: .cfa -40 + ^ .ra: .cfa -48 + ^ x29: .cfa -56 + ^ v8: .cfa -64 + ^
STACK CFI 2212c .cfa: sp 96 +
STACK CFI 22144 .cfa: sp 0 +
STACK CFI 22148 .cfa: x29 56 +
STACK CFI INIT 22178 268 .cfa: sp 0 +
STACK CFI 2217c .cfa: sp 96 +
STACK CFI 22194 .cfa: x29 96 + x19: .cfa -8 + ^ x20: .cfa -16 + ^ x21: .cfa -24 + ^ x22: .cfa -32 + ^ x23: .cfa -40 + ^ x24: .cfa -48 + ^ x25: .cfa -56 + ^ x26: .cfa -64 + ^ x27: .cfa -72 + ^ x28: .cfa -80 + ^ .ra: .cfa -88 + ^ x29: .cfa -96 + ^
STACK CFI 22378 .cfa: sp 96 +
STACK CFI 22390 .cfa: sp 0 +
STACK CFI 22394 .cfa: x29 96 +
STACK CFI INIT 223e0 d8 .cfa: sp 0 +
STACK CFI 223e4 .cfa: sp 80 +
STACK CFI 223f8 .cfa: x29 64 + x19: .cfa -8 + ^ x20: .cfa -16 + ^ x21: .cfa -24 + ^ x22: .cfa -32 + ^ x23: .cfa -48 + ^ .ra: .cfa -56 + ^ x29: .cfa -64 + ^
STACK CFI 22470 .cfa: sp 80 +
STACK CFI 22484 .cfa: sp 0 +
STACK CFI 22488 .cfa: x29 64 +
STACK CFI INIT 224b8 27c .cfa: sp 0 +
STACK CFI 224bc .cfa: sp 96 +
STACK CFI 224d4 .cfa: x29 96 + x19: .cfa -8 + ^ x20: .cfa -16 + ^ x21: .cfa -24 + ^ x22: .cfa -32 + ^ x23: .cfa -40 + ^ x24: .cfa -48 + ^ x25: .cfa -56 + ^ x26: .cfa -64 + ^ x27: .cfa -72 + ^ x28: .cfa -80 + ^ .ra: .cfa -88 + ^ x29: .cfa -96 + ^
STACK CFI 2268c .cfa: sp 96 +
STACK CFI 226a4 .cfa: sp 0 +
STACK CFI 226a8 .cfa: x29 96 +
STACK CFI INIT 22734 4c .cfa: sp 0 +
STACK CFI 22738 .cfa: sp 32 +
STACK CFI 22740 .cfa: x29 32 + x19: .cfa -16 + ^ .ra: .cfa -24 + ^ x29: .cfa -32 + ^
STACK CFI 22770 .cfa: sp 32 +
STACK CFI 22778 .cfa: sp 0 +
STACK CFI 2277c .cfa: x29 32 +
STACK CFI INIT 22780 54 .cfa: sp 0 +
STACK CFI 22784 .cfa: sp 32 +
STACK CFI 2278c .cfa: x29 32 + x19: .cfa -16 + ^ .ra: .cfa -24 + ^ x29: .cfa -32 + ^
STACK CFI 227c4 .cfa: sp 32 +
STACK CFI 227cc .cfa: sp 0 +
STACK CFI 227d0 .cfa: x29 32 +
STACK CFI INIT 229c0 bd4 .cfa: sp 0 +
STACK CFI 229c4 .cfa: sp 240 +
STACK CFI 229e0 .cfa: x29 96 + x19: .cfa -8 + ^ x20: .cfa -16 + ^ x21: .cfa -24 + ^ x22: .cfa -32 + ^ x23: .cfa -40 + ^ x24: .cfa -48 + ^ x25: .cfa -56 + ^ x26: .cfa -64 + ^ x27: .cfa -72 + ^ x28: .cfa -80 + ^ .ra: .cfa -88 + ^ x29: .cfa -96 + ^
STACK CFI 22dbc .cfa: sp 240 +
STACK CFI 22dd8 .cfa: sp 0 +
STACK CFI 22ddc .cfa: x29 96 +
STACK CFI 2343c .cfa: sp 240 +
STACK CFI 23458 .cfa: sp 0 +
STACK CFI 2345c .cfa: x29 96 +
STACK CFI INIT 235ac 8c0 .cfa: sp 0 +
STACK CFI 235b0 .cfa: sp 288 +
STACK CFI 235cc .cfa: x29 96 + x19: .cfa -8 + ^ x20: .cfa -16 + ^ x21: .cfa -24 + ^ x22: .cfa -32 + ^ x23: .cfa -40 + ^ x24: .cfa -48 + ^ x25: .cfa -56 + ^ x26: .cfa -64 + ^ x28: .cfa -80 + ^ .ra: .cfa -88 + ^ x29: .cfa -96 + ^
STACK CFI 23bf4 .cfa: sp 288 +
STACK CFI 23c10 .cfa: sp 0 +
STACK CFI 23c14 .cfa: x29 96 +
STACK CFI INIT 23ebc 74 .cfa: sp 0 +
STACK CFI 23ec0 .cfa: sp 48 +
STACK CFI 23ecc .cfa: x29 32 + x19: .cfa -8 + ^ x20: .cfa -16 + ^ .ra: .cfa -24 + ^ x29: .cfa -32 + ^
STACK CFI 23f18 .cfa: sp 48 +
STACK CFI 23f24 .cfa: sp 0 +
STACK CFI 23f28 .cfa: x29 32 +
STACK CFI INIT 23fb0 154 .cfa: sp 0 +
STACK CFI 23fb4 .cfa: sp 384 +
STACK CFI 23fc8 .cfa: x29 64 + x19: .cfa -8 + ^ x20: .cfa -16 + ^ x21: .cfa -24 + ^ x22: .cfa -32 + ^ x23: .cfa -40 + ^ x28: .cfa -48 + ^ .ra: .cfa -56 + ^ x29: .cfa -64 + ^
STACK CFI 240ac .cfa: sp 384 +
STACK CFI 240c0 .cfa: sp 0 +
STACK CFI 240c4 .cfa: x29 64 +
STACK CFI INIT 2421c 14c .cfa: sp 0 +
STACK CFI 24220 .cfa: sp 96 +
STACK CFI 24234 .cfa: x29 64 + x19: .cfa -8 + ^ x20: .cfa -16 + ^ x21: .cfa -24 + ^ x22: .cfa -32 + ^ x23: .cfa -48 + ^ .ra: .cfa -56 + ^ x29: .cfa -64 + ^
STACK CFI 24320 .cfa: sp 96 +
STACK CFI 24334 .cfa: sp 0 +
STACK CFI 24338 .cfa: x29 64 +
STACK CFI INIT 24368 f0 .cfa: sp 0 +
STACK CFI 2436c .cfa: sp 96 +
STACK CFI 2437c .cfa: x29 48 + x19: .cfa -8 + ^ x20: .cfa -16 + ^ x21: .cfa -24 + ^ x22: .cfa -32 + ^ .ra: .cfa -40 + ^ x29: .cfa -48 + ^
STACK CFI 24404 .cfa: sp 96 +
STACK CFI 24414 .cfa: sp 0 +
STACK CFI 24418 .cfa: x29 48 +
STACK CFI INIT 24510 640 .cfa: sp 0 +
STACK CFI 24514 .cfa: sp 224 +
STACK CFI 24530 .cfa: x29 96 + x19: .cfa -8 + ^ x20: .cfa -16 + ^ x21: .cfa -24 + ^ x22: .cfa -32 + ^ x23: .cfa -40 + ^ x24: .cfa -48 + ^ x25: .cfa -56 + ^ x26: .cfa -64 + ^ x27: .cfa -72 + ^ x28: .cfa -80 + ^ .ra: .cfa -88 + ^ x29: .cfa -96 + ^
STACK CFI 249e0 .cfa: sp 224 +
STACK CFI 249fc .cfa: sp 0 +
STACK CFI 24a00 .cfa: x29 96 +
STACK CFI INIT 24b50 e8 .cfa: sp 0 +
STACK CFI 24b54 .cfa: sp 96 +
STACK CFI 24b60 .cfa: x29 32 + x19: .cfa -8 + ^ x20: .cfa -16 + ^ .ra: .cfa -24 + ^ x29: .cfa -32 + ^
STACK CFI 24bd8 .cfa: sp 96 +
STACK CFI 24be4 .cfa: sp 0 +
STACK CFI 24be8 .cfa: x29 32 +
STACK CFI INIT 24c70 50 .cfa: sp 0 +
STACK CFI 24c74 .cfa: sp 32 +
STACK CFI 24c7c .cfa: x29 32 + x19: .cfa -8 + ^ x20: .cfa -16 + ^ .ra: .cfa -24 + ^ x29: .cfa -32 + ^
STACK CFI INIT 24ed0 4dc .cfa: sp 0 +
STACK CFI 24ed4 .cfa: sp 192 +
STACK CFI 24ef0 .cfa: x29 96 + x19: .cfa -8 + ^ x20: .cfa -16 + ^ x21: .cfa -24 + ^ x22: .cfa -32 + ^ x23: .cfa -40 + ^ x24: .cfa -48 + ^ x25: .cfa -56 + ^ x26: .cfa -64 + ^ x27: .cfa -80 + ^ .ra: .cfa -88 + ^ x29: .cfa -96 + ^
STACK CFI 25258 .cfa: sp 192 +
STACK CFI 25274 .cfa: sp 0 +
STACK CFI 25278 .cfa: x29 96 +
STACK CFI INIT 2574c 134 .cfa: sp 0 +
STACK CFI 25750 .cfa: sp 80 +
STACK CFI 2575c .cfa: x29 32 + x19: .cfa -8 + ^ x20: .cfa -16 + ^ .ra: .cfa -24 + ^ x29: .cfa -32 + ^
STACK CFI 2578c .cfa: sp 80 +
STACK CFI 25798 .cfa: sp 0 +
STACK CFI 2579c .cfa: x29 32 +
STACK CFI INIT 25880 78 .cfa: sp 0 +
STACK CFI 25884 .cfa: sp 32 +
STACK CFI 2588c .cfa: x29 32 + x19: .cfa -8 + ^ x20: .cfa -16 + ^ .ra: .cfa -24 + ^ x29: .cfa -32 + ^
STACK CFI 25898 .cfa: sp 32 +
STACK CFI 258a0 .cfa: sp 0 +
STACK CFI 258a4 .cfa: x29 32 +
STACK CFI INIT 258f8 74 .cfa: sp 0 +
STACK CFI 258fc .cfa: sp 48 +
STACK CFI 25908 .cfa: x29 32 + x19: .cfa -8 + ^ x20: .cfa -16 + ^ .ra: .cfa -24 + ^ x29: .cfa -32 + ^
STACK CFI 25954 .cfa: sp 48 +
STACK CFI 25960 .cfa: sp 0 +
STACK CFI 25964 .cfa: x29 32 +
STACK CFI INIT 259d0 224 .cfa: sp 0 +
STACK CFI 259d4 .cfa: sp 128 +
STACK CFI 259e4 .cfa: x29 48 + x19: .cfa -8 + ^ x20: .cfa -16 + ^ x21: .cfa -32 + ^ .ra: .cfa -40 + ^ x29: .cfa -48 + ^
STACK CFI 25a94 .cfa: sp 128 +
STACK CFI 25aa4 .cfa: sp 0 +
STACK CFI 25aa8 .cfa: x29 48 +
STACK CFI INIT 25c18 25c .cfa: sp 0 +
STACK CFI 25c1c .cfa: sp 128 +
STACK CFI 25c2c .cfa: x29 48 + x19: .cfa -8 + ^ x20: .cfa -16 + ^ x21: .cfa -32 + ^ .ra: .cfa -40 + ^ x29: .cfa -48 + ^
STACK CFI 25d14 .cfa: sp 128 +
STACK CFI 25d24 .cfa: sp 0 +
STACK CFI 25d28 .cfa: x29 48 +
STACK CFI INIT 25eec 300 .cfa: sp 0 +
STACK CFI 25ef0 .cfa: sp 144 +
STACK CFI 25f04 .cfa: x29 64 + x19: .cfa -8 + ^ x20: .cfa -16 + ^ x21: .cfa -24 + ^ x22: .cfa -32 + ^ x23: .cfa -48 + ^ .ra: .cfa -56 + ^ x29: .cfa -64 + ^
STACK CFI 26098 .cfa: sp 144 +
STACK CFI 260ac .cfa: sp 0 +
STACK CFI 260b0 .cfa: x29 64 +
STACK CFI INIT 26240 264 .cfa: sp 0 +
STACK CFI 26244 .cfa: sp 128 +
STACK CFI 26254 .cfa: x29 48 + x19: .cfa -8 + ^ x20: .cfa -16 + ^ x21: .cfa -32 + ^ .ra: .cfa -40 + ^ x29: .cfa -48 + ^
STACK CFI 2634c .cfa: sp 128 +
STACK CFI 2635c .cfa: sp 0 +
STACK CFI 26360 .cfa: x29 48 +
STACK CFI INIT 264f8 160 .cfa: sp 0 +
STACK CFI 264fc .cfa: sp 144 +
STACK CFI 26510 .cfa: x29 64 + x19: .cfa -8 + ^ x20: .cfa -16 + ^ x21: .cfa -24 + ^ x22: .cfa -32 + ^ x23: .cfa -48 + ^ .ra: .cfa -56 + ^ x29: .cfa -64 + ^
STACK CFI 26560 .cfa: sp 144 +
STACK CFI 26574 .cfa: sp 0 +
STACK CFI 26578 .cfa: x29 64 +
STACK CFI INIT 26658 100 .cfa: sp 0 +
STACK CFI 2665c .cfa: sp 64 +
STACK CFI 2666c .cfa: x29 48 + x19: .cfa -8 + ^ x20: .cfa -16 + ^ x21: .cfa -24 + ^ x22: .cfa -32 + ^ .ra: .cfa -40 + ^ x29: .cfa -48 + ^
STACK CFI 26710 .cfa: sp 64 +
STACK CFI 26720 .cfa: sp 0 +
STACK CFI 26724 .cfa: x29 48 +
STACK CFI INIT 26758 150 .cfa: sp 0 +
STACK CFI 2675c .cfa: sp 128 +
STACK CFI 2676c .cfa: x29 48 + x19: .cfa -8 + ^ x20: .cfa -16 + ^ x21: .cfa -24 + ^ x22: .cfa -32 + ^ .ra: .cfa -40 + ^ x29: .cfa -48 + ^
STACK CFI 267b4 .cfa: sp 128 +
STACK CFI 267c4 .cfa: sp 0 +
STACK CFI 267c8 .cfa: x29 48 +
STACK CFI INIT 268a8 a8 .cfa: sp 0 +
STACK CFI 268ac .cfa: sp 64 +
STACK CFI 268bc .cfa: x29 48 + x19: .cfa -8 + ^ x20: .cfa -16 + ^ x21: .cfa -32 + ^ .ra: .cfa -40 + ^ x29: .cfa -48 + ^
STACK CFI 26924 .cfa: sp 64 +
STACK CFI 26934 .cfa: sp 0 +
STACK CFI 26938 .cfa: x29 48 +
STACK CFI INIT 26950 150 .cfa: sp 0 +
STACK CFI 26954 .cfa: sp 128 +
STACK CFI 26964 .cfa: x29 48 + x19: .cfa -8 + ^ x20: .cfa -16 + ^ x21: .cfa -24 + ^ x22: .cfa -32 + ^ .ra: .cfa -40 + ^ x29: .cfa -48 + ^
STACK CFI 269ac .cfa: sp 128 +
STACK CFI 269bc .cfa: sp 0 +
STACK CFI 269c0 .cfa: x29 48 +
STACK CFI INIT 26aa0 ac .cfa: sp 0 +
STACK CFI 26aa4 .cfa: sp 64 +
STACK CFI 26ab4 .cfa: x29 48 + x19: .cfa -8 + ^ x20: .cfa -16 + ^ x21: .cfa -32 + ^ .ra: .cfa -40 + ^ x29: .cfa -48 + ^
STACK CFI 26b20 .cfa: sp 64 +
STACK CFI 26b30 .cfa: sp 0 +
STACK CFI 26b34 .cfa: x29 48 +
STACK CFI INIT 26ba0 2e4 .cfa: sp 0 +
STACK CFI 26ba4 .cfa: sp 144 +
STACK CFI 26bb8 .cfa: x29 64 + x19: .cfa -8 + ^ x20: .cfa -16 + ^ x21: .cfa -24 + ^ x22: .cfa -32 + ^ x23: .cfa -48 + ^ .ra: .cfa -56 + ^ x29: .cfa -64 + ^
STACK CFI 26d30 .cfa: sp 144 +
STACK CFI 26d44 .cfa: sp 0 +
STACK CFI 26d48 .cfa: x29 64 +
STACK CFI INIT 26e84 2e4 .cfa: sp 0 +
STACK CFI 26e88 .cfa: sp 144 +
STACK CFI 26e9c .cfa: x29 64 + x19: .cfa -8 + ^ x20: .cfa -16 + ^ x21: .cfa -24 + ^ x22: .cfa -32 + ^ x23: .cfa -48 + ^ .ra: .cfa -56 + ^ x29: .cfa -64 + ^
STACK CFI 27014 .cfa: sp 144 +
STACK CFI 27028 .cfa: sp 0 +
STACK CFI 2702c .cfa: x29 64 +
STACK CFI INIT 27168 2a0 .cfa: sp 0 +
STACK CFI 2716c .cfa: sp 144 +
STACK CFI 27180 .cfa: x29 64 + x19: .cfa -8 + ^ x20: .cfa -16 + ^ x21: .cfa -24 + ^ x22: .cfa -32 + ^ x23: .cfa -48 + ^ .ra: .cfa -56 + ^ x29: .cfa -64 + ^
STACK CFI 272b4 .cfa: sp 144 +
STACK CFI 272c8 .cfa: sp 0 +
STACK CFI 272cc .cfa: x29 64 +
STACK CFI INIT 27408 2f0 .cfa: sp 0 +
STACK CFI 2740c .cfa: sp 144 +
STACK CFI 27420 .cfa: x29 64 + x19: .cfa -8 + ^ x20: .cfa -16 + ^ x21: .cfa -24 + ^ x22: .cfa -32 + ^ x23: .cfa -48 + ^ .ra: .cfa -56 + ^ x29: .cfa -64 + ^
STACK CFI 275a4 .cfa: sp 144 +
STACK CFI 275b8 .cfa: sp 0 +
STACK CFI 275bc .cfa: x29 64 +
STACK CFI INIT 276f8 4f4 .cfa: sp 0 +
STACK CFI 276fc .cfa: sp 144 +
STACK CFI 27710 .cfa: x29 64 + x19: .cfa -8 + ^ x20: .cfa -16 + ^ x21: .cfa -24 + ^ x22: .cfa -32 + ^ x23: .cfa -48 + ^ .ra: .cfa -56 + ^ x29: .cfa -64 + ^
STACK CFI 27a44 .cfa: sp 144 +
STACK CFI 27a58 .cfa: sp 0 +
STACK CFI 27a5c .cfa: x29 64 +
STACK CFI INIT 27bec 154 .cfa: sp 0 +
STACK CFI 27bf0 .cfa: sp 384 +
STACK CFI 27c04 .cfa: x29 64 + x19: .cfa -8 + ^ x20: .cfa -16 + ^ x21: .cfa -24 + ^ x22: .cfa -32 + ^ x23: .cfa -40 + ^ x28: .cfa -48 + ^ .ra: .cfa -56 + ^ x29: .cfa -64 + ^
STACK CFI 27ce8 .cfa: sp 384 +
STACK CFI 27cfc .cfa: sp 0 +
STACK CFI 27d00 .cfa: x29 64 +
STACK CFI INIT 27d58 50c .cfa: sp 0 +
STACK CFI 27d5c .cfa: sp 64 +
STACK CFI 27d6c .cfa: x29 64 + x19: .cfa -8 + ^ x20: .cfa -16 + ^ x21: .cfa -24 + ^ x22: .cfa -32 + ^ x23: .cfa -40 + ^ x24: .cfa -48 + ^ .ra: .cfa -56 + ^ x29: .cfa -64 + ^
STACK CFI 27e8c .cfa: sp 64 +
STACK CFI 27e9c .cfa: sp 0 +
STACK CFI 27ea0 .cfa: x29 64 +
STACK CFI 28238 .cfa: sp 64 +
STACK CFI 28248 .cfa: sp 0 +
STACK CFI 2824c .cfa: x29 64 +
STACK CFI INIT 28594 294 .cfa: sp 0 +
STACK CFI 28598 .cfa: sp 240 +
STACK CFI 285b0 .cfa: x29 80 + x19: .cfa -8 + ^ x20: .cfa -16 + ^ x21: .cfa -24 + ^ x22: .cfa -32 + ^ x23: .cfa -40 + ^ x24: .cfa -48 + ^ x25: .cfa -64 + ^ .ra: .cfa -72 + ^ x29: .cfa -80 + ^
STACK CFI 28750 .cfa: sp 240 +
STACK CFI 28768 .cfa: sp 0 +
STACK CFI 2876c .cfa: x29 80 +
STACK CFI INIT 288a4 50 .cfa: sp 0 +
STACK CFI 288a8 .cfa: sp 32 +
STACK CFI 288b0 .cfa: x29 32 + x19: .cfa -8 + ^ x20: .cfa -16 + ^ .ra: .cfa -24 + ^ x29: .cfa -32 + ^
STACK CFI INIT 28920 7c0 .cfa: sp 0 +
STACK CFI 28924 .cfa: sp 320 +
STACK CFI 28940 .cfa: x29 96 + x19: .cfa -8 + ^ x20: .cfa -16 + ^ x21: .cfa -24 + ^ x22: .cfa -32 + ^ x23: .cfa -40 + ^ x24: .cfa -48 + ^ x25: .cfa -56 + ^ x26: .cfa -64 + ^ x27: .cfa -72 + ^ x28: .cfa -80 + ^ .ra: .cfa -88 + ^ x29: .cfa -96 + ^
STACK CFI 28f90 .cfa: sp 320 +
STACK CFI 28fac .cfa: sp 0 +
STACK CFI 28fb0 .cfa: x29 96 +
STACK CFI INIT 2d460 c74 .cfa: sp 0 +
STACK CFI 2d464 .cfa: sp 96 +
STACK CFI 2d47c .cfa: x29 96 + x19: .cfa -8 + ^ x20: .cfa -16 + ^ x21: .cfa -24 + ^ x22: .cfa -32 + ^ x23: .cfa -40 + ^ x24: .cfa -48 + ^ x25: .cfa -56 + ^ x26: .cfa -64 + ^ x27: .cfa -72 + ^ x28: .cfa -80 + ^ .ra: .cfa -88 + ^ x29: .cfa -96 + ^
STACK CFI 2def4 .cfa: sp 96 +
STACK CFI 2df0c .cfa: sp 0 +
STACK CFI 2df10 .cfa: x29 96 +
STACK CFI INIT 2e228 26c .cfa: sp 0 +
STACK CFI 2e22c .cfa: sp 128 +
STACK CFI 2e23c .cfa: x29 48 + x19: .cfa -8 + ^ x20: .cfa -16 + ^ x21: .cfa -24 + ^ x22: .cfa -32 + ^ .ra: .cfa -40 + ^ x29: .cfa -48 + ^
STACK CFI 2e3e0 .cfa: sp 128 +
STACK CFI 2e3f0 .cfa: sp 0 +
STACK CFI 2e3f4 .cfa: x29 48 +
STACK CFI INIT 2e824 3b8 .cfa: sp 0 +
STACK CFI 2e828 .cfa: sp 96 +
STACK CFI 2e840 .cfa: x29 96 + x19: .cfa -8 + ^ x20: .cfa -16 + ^ x21: .cfa -24 + ^ x22: .cfa -32 + ^ x23: .cfa -40 + ^ x24: .cfa -48 + ^ x25: .cfa -56 + ^ x26: .cfa -64 + ^ x27: .cfa -72 + ^ x28: .cfa -80 + ^ .ra: .cfa -88 + ^ x29: .cfa -96 + ^
STACK CFI 2eb7c .cfa: sp 96 +
STACK CFI 2eb94 .cfa: sp 0 +
STACK CFI 2eb98 .cfa: x29 96 +
STACK CFI INIT 2ec7c cb4 .cfa: sp 0 +
STACK CFI 2ec80 .cfa: sp 96 +
STACK CFI 2ec98 .cfa: x29 96 + x19: .cfa -8 + ^ x20: .cfa -16 + ^ x21: .cfa -24 + ^ x22: .cfa -32 + ^ x23: .cfa -40 + ^ x24: .cfa -48 + ^ x25: .cfa -56 + ^ x26: .cfa -64 + ^ x27: .cfa -72 + ^ x28: .cfa -80 + ^ .ra: .cfa -88 + ^ x29: .cfa -96 + ^
STACK CFI 2f740 .cfa: sp 96 +
STACK CFI 2f758 .cfa: sp 0 +
STACK CFI 2f75c .cfa: x29 96 +
STACK CFI INIT 2fc18 afc .cfa: sp 0 +
STACK CFI 2fc1c .cfa: sp 96 +
STACK CFI 2fc34 .cfa: x29 96 + x19: .cfa -8 + ^ x20: .cfa -16 + ^ x21: .cfa -24 + ^ x22: .cfa -32 + ^ x23: .cfa -40 + ^ x24: .cfa -48 + ^ x25: .cfa -56 + ^ x26: .cfa -64 + ^ x27: .cfa -72 + ^ x28: .cfa -80 + ^ .ra: .cfa -88 + ^ x29: .cfa -96 + ^
STACK CFI 30688 .cfa: sp 96 +
STACK CFI 306a0 .cfa: sp 0 +
STACK CFI 306a4 .cfa: x29 96 +
STACK CFI INIT 308f0 1430 .cfa: sp 0 +
STACK CFI 308f4 .cfa: sp 96 +
STACK CFI 3090c .cfa: x29 96 + x19: .cfa -8 + ^ x20: .cfa -16 + ^ x21: .cfa -24 + ^ x22: .cfa -32 + ^ x23: .cfa -40 + ^ x24: .cfa -48 + ^ x25: .cfa -56 + ^ x26: .cfa -64 + ^ x27: .cfa -72 + ^ x28: .cfa -80 + ^ .ra: .cfa -88 + ^ x29: .cfa -96 + ^
STACK CFI 31ba8 .cfa: sp 96 +
STACK CFI 31bc0 .cfa: sp 0 +
STACK CFI 31bc4 .cfa: x29 96 +
STACK CFI INIT 31e44 75c .cfa: sp 0 +
STACK CFI 31e48 .cfa: sp 368 +
STACK CFI 31e64 .cfa: x29 96 + x19: .cfa -8 + ^ x20: .cfa -16 + ^ x21: .cfa -24 + ^ x22: .cfa -32 + ^ x23: .cfa -40 + ^ x24: .cfa -48 + ^ x25: .cfa -56 + ^ x26: .cfa -64 + ^ x27: .cfa -72 + ^ x28: .cfa -80 + ^ .ra: .cfa -88 + ^ x29: .cfa -96 + ^
STACK CFI 31f18 .cfa: sp 368 +
STACK CFI 31f34 .cfa: sp 0 +
STACK CFI 31f38 .cfa: x29 96 +
STACK CFI 31f8c .cfa: sp 368 +
STACK CFI 31fa8 .cfa: sp 0 +
STACK CFI 31fac .cfa: x29 96 +
STACK CFI INIT 32960 eb0 .cfa: sp 0 +
STACK CFI 32964 .cfa: sp 96 +
STACK CFI 3297c .cfa: x29 96 + x19: .cfa -8 + ^ x20: .cfa -16 + ^ x21: .cfa -24 + ^ x22: .cfa -32 + ^ x23: .cfa -40 + ^ x24: .cfa -48 + ^ x25: .cfa -56 + ^ x26: .cfa -64 + ^ x27: .cfa -72 + ^ x28: .cfa -80 + ^ .ra: .cfa -88 + ^ x29: .cfa -96 + ^
STACK CFI 33624 .cfa: sp 96 +
STACK CFI 3363c .cfa: sp 0 +
STACK CFI 33640 .cfa: x29 96 +
STACK CFI INIT 33b84 1c9c .cfa: sp 0 +
STACK CFI 33b88 .cfa: sp 112 +
STACK CFI 33ba4 .cfa: x29 96 + x19: .cfa -8 + ^ x20: .cfa -16 + ^ x21: .cfa -24 + ^ x22: .cfa -32 + ^ x23: .cfa -40 + ^ x24: .cfa -48 + ^ x25: .cfa -56 + ^ x26: .cfa -64 + ^ x27: .cfa -72 + ^ x28: .cfa -80 + ^ .ra: .cfa -88 + ^ x29: .cfa -96 + ^ v8: .cfa -112 + ^
STACK CFI 33f8c .cfa: sp 112 +
STACK CFI 33fa8 .cfa: sp 0 +
STACK CFI 33fac .cfa: x29 96 +
STACK CFI INIT 37fe4 9a0 .cfa: sp 0 +
STACK CFI 37fe8 .cfa: sp 144 +
STACK CFI 38000 .cfa: x29 80 + x19: .cfa -8 + ^ x20: .cfa -16 + ^ x21: .cfa -24 + ^ x22: .cfa -32 + ^ x23: .cfa -40 + ^ x24: .cfa -48 + ^ x25: .cfa -64 + ^ .ra: .cfa -72 + ^ x29: .cfa -80 + ^
STACK CFI 38900 .cfa: sp 144 +
STACK CFI 38918 .cfa: sp 0 +
STACK CFI 3891c .cfa: x29 80 +
STACK CFI INIT 39ea8 57c .cfa: sp 0 +
STACK CFI 39eac .cfa: sp 96 +
STACK CFI 39ec4 .cfa: x29 96 + x19: .cfa -8 + ^ x20: .cfa -16 + ^ x21: .cfa -24 + ^ x22: .cfa -32 + ^ x23: .cfa -40 + ^ x24: .cfa -48 + ^ x25: .cfa -56 + ^ x26: .cfa -64 + ^ x27: .cfa -72 + ^ x28: .cfa -80 + ^ .ra: .cfa -88 + ^ x29: .cfa -96 + ^
STACK CFI 3a388 .cfa: sp 96 +
STACK CFI 3a3a0 .cfa: sp 0 +
STACK CFI 3a3a4 .cfa: x29 96 +
STACK CFI INIT 3a424 67c .cfa: sp 0 +
STACK CFI 3a428 .cfa: sp 96 +
STACK CFI 3a440 .cfa: x29 96 + x19: .cfa -8 + ^ x20: .cfa -16 + ^ x21: .cfa -24 + ^ x22: .cfa -32 + ^ x23: .cfa -40 + ^ x24: .cfa -48 + ^ x25: .cfa -56 + ^ x26: .cfa -64 + ^ x27: .cfa -72 + ^ x28: .cfa -80 + ^ .ra: .cfa -88 + ^ x29: .cfa -96 + ^
STACK CFI 3aa04 .cfa: sp 96 +
STACK CFI 3aa1c .cfa: sp 0 +
STACK CFI 3aa20 .cfa: x29 96 +
