MODULE Linux arm64 653FF0C4B5BE9F6E04DE856CAEF76CA90 willy.midi-importer.android64.so
INFO CODE_ID C4F03F65BEB56E9F04DE856CAEF76CA9FA203321
INFO GENERATOR mozilla/dump_syms 2.3.4
PUBLIC 24ba0 0 __on_dlclose
PUBLIC 24bb0 0 __emutls_unregister_key
PUBLIC 24bb8 0 __on_dlclose_late
PUBLIC 24bc0 0 __atexit_handler_wrapper
PUBLIC 24bd4 0 atexit
PUBLIC 24bf0 0 pthread_atfork
PUBLIC 24c00 0 unwind_phase2
PUBLIC 24d34 0 _Unwind_Resume
PUBLIC 24db8 0 unwind_phase2_forced
PUBLIC m 24eac 0 __unw_init_local
PUBLIC m 24f54 0 __unw_get_reg
PUBLIC 24fd0 0 __unw_step_stage2
PUBLIC m 24fe4 0 __unw_get_proc_info
PUBLIC m 25024 0 __unw_resume
PUBLIC 2504c 0 libunwind::CFI_Parser<libunwind::LocalAddressSpace>::decodeFDE(libunwind::LocalAddressSpace&, unsigned long, libunwind::CFI_Parser<libunwind::LocalAddressSpace>::FDE_Info*, libunwind::CFI_Parser<libunwind::LocalAddressSpace>::CIE_Info*, bool)
PUBLIC 251dc 0 libunwind::CFI_Parser<libunwind::LocalAddressSpace>::parseCIE(libunwind::LocalAddressSpace&, unsigned long, libunwind::CFI_Parser<libunwind::LocalAddressSpace>::CIE_Info*)
PUBLIC 254a4 0 libunwind::AbstractUnwindCursor::~AbstractUnwindCursor()
PUBLIC 254ac 0 libunwind::UnwindCursor<libunwind::LocalAddressSpace, libunwind::Registers_arm64>::~UnwindCursor()
PUBLIC 254b4 0 libunwind::UnwindCursor<libunwind::LocalAddressSpace, libunwind::Registers_arm64>::validReg(int)
PUBLIC 254f8 0 libunwind::UnwindCursor<libunwind::LocalAddressSpace, libunwind::Registers_arm64>::getReg(int)
PUBLIC 255e0 0 libunwind::UnwindCursor<libunwind::LocalAddressSpace, libunwind::Registers_arm64>::setReg(int, unsigned long)
PUBLIC 256c8 0 libunwind::UnwindCursor<libunwind::LocalAddressSpace, libunwind::Registers_arm64>::validFloatReg(int)
PUBLIC 256dc 0 libunwind::UnwindCursor<libunwind::LocalAddressSpace, libunwind::Registers_arm64>::getFloatReg(int)
PUBLIC 256ec 0 libunwind::UnwindCursor<libunwind::LocalAddressSpace, libunwind::Registers_arm64>::setFloatReg(int, double)
PUBLIC 256fc 0 libunwind::UnwindCursor<libunwind::LocalAddressSpace, libunwind::Registers_arm64>::step(bool)
PUBLIC 257ec 0 libunwind::UnwindCursor<libunwind::LocalAddressSpace, libunwind::Registers_arm64>::getInfo(unw_proc_info_t*)
PUBLIC 25830 0 libunwind::UnwindCursor<libunwind::LocalAddressSpace, libunwind::Registers_arm64>::jumpto()
PUBLIC 2583c 0 libunwind::UnwindCursor<libunwind::LocalAddressSpace, libunwind::Registers_arm64>::isSignalFrame()
PUBLIC 25848 0 libunwind::UnwindCursor<libunwind::LocalAddressSpace, libunwind::Registers_arm64>::getFunctionName(char*, unsigned long, unsigned long*)
PUBLIC 25874 0 libunwind::UnwindCursor<libunwind::LocalAddressSpace, libunwind::Registers_arm64>::setInfoBasedOnIPRegister(bool)
PUBLIC 25af4 0 libunwind::UnwindCursor<libunwind::LocalAddressSpace, libunwind::Registers_arm64>::getRegisterName(int)
PUBLIC 25b00 0 libunwind::UnwindCursor<libunwind::LocalAddressSpace, libunwind::Registers_arm64>::stepThroughSigReturn(libunwind::Registers_arm64&)
PUBLIC 25c20 0 libunwind::DwarfInstructions<libunwind::LocalAddressSpace, libunwind::Registers_arm64>::stepWithDwarf(libunwind::LocalAddressSpace&, unsigned long, unsigned long, libunwind::Registers_arm64&, bool&, bool)
PUBLIC 260a8 0 libunwind::CFI_Parser<libunwind::LocalAddressSpace>::parseFDEInstructions(libunwind::LocalAddressSpace&, libunwind::CFI_Parser<libunwind::LocalAddressSpace>::FDE_Info const&, libunwind::CFI_Parser<libunwind::LocalAddressSpace>::CIE_Info const&, unsigned long, int, libunwind::CFI_Parser<libunwind::LocalAddressSpace>::PrologInfo*)
PUBLIC 26cf0 0 libunwind::DwarfInstructions<libunwind::LocalAddressSpace, libunwind::Registers_arm64>::getCFA(libunwind::LocalAddressSpace&, libunwind::CFI_Parser<libunwind::LocalAddressSpace>::PrologInfo const&, libunwind::Registers_arm64 const&)
PUBLIC 26e24 0 libunwind::DwarfInstructions<libunwind::LocalAddressSpace, libunwind::Registers_arm64>::getSavedRegister(libunwind::LocalAddressSpace&, libunwind::Registers_arm64 const&, unsigned long, libunwind::CFI_Parser<libunwind::LocalAddressSpace>::RegisterLocation const&)
PUBLIC 27034 0 libunwind::LocalAddressSpace::getEncodedP(unsigned long&, unsigned long, unsigned char, unsigned long)
PUBLIC 273c0 0 libunwind::LocalAddressSpace::getULEB128(unsigned long&, unsigned long)
PUBLIC 27588 0 libunwind::DwarfInstructions<libunwind::LocalAddressSpace, libunwind::Registers_arm64>::evaluateExpression(unsigned long, libunwind::LocalAddressSpace&, libunwind::Registers_arm64 const&, unsigned long)
PUBLIC 27f44 0 libunwind::UnwindCursor<libunwind::LocalAddressSpace, libunwind::Registers_arm64>::getInfoFromDwarfSection(unsigned long, libunwind::UnwindInfoSections const&, unsigned int)
PUBLIC 28218 0 libunwind::findUnwindSectionsByPhdr(dl_phdr_info*, unsigned long, void*)
PUBLIC 2834c 0 libunwind::EHHeaderParser<libunwind::LocalAddressSpace>::decodeEHHdr(libunwind::LocalAddressSpace&, unsigned long, unsigned long, libunwind::EHHeaderParser<libunwind::LocalAddressSpace>::EHHeaderInfo&)
PUBLIC 2846c 0 libunwind::CFI_Parser<libunwind::LocalAddressSpace>::findFDE(libunwind::LocalAddressSpace&, unsigned long, unsigned long, unsigned long, unsigned long, libunwind::CFI_Parser<libunwind::LocalAddressSpace>::FDE_Info*, libunwind::CFI_Parser<libunwind::LocalAddressSpace>::CIE_Info*)
PUBLIC 28634 0 libunwind::EHHeaderParser<libunwind::LocalAddressSpace>::findFDE(libunwind::LocalAddressSpace&, unsigned long, unsigned long, unsigned int, libunwind::CFI_Parser<libunwind::LocalAddressSpace>::FDE_Info*, libunwind::CFI_Parser<libunwind::LocalAddressSpace>::CIE_Info*)
PUBLIC 2879c 0 libunwind::EHHeaderParser<libunwind::LocalAddressSpace>::getTableEntrySize(unsigned char)
PUBLIC 28898 0 libunwind::Registers_arm64::getRegisterName(int)
PUBLIC 288c8 0 __libunwind_Registers_arm64_jumpto
PUBLIC m 28958 0 __unw_getcontext
PUBLIC 289f4 0 std::__ndk1::operator<<[abi:ne180000]<char, std::__ndk1::char_traits<char>, std::__ndk1::allocator<char> >(std::__ndk1::basic_ostream<char, std::__ndk1::char_traits<char> >, std::__ndk1::basic_string<std::__ndk1::basic_ostream, char, std::__ndk1::allocator<char> > const&)
PUBLIC 28a10 0 std::__ndk1::endl[abi:ne180000]<char, std::__ndk1::char_traits<char> >(std::__ndk1::basic_ostream<char, std::__ndk1::char_traits<char> >)
PUBLIC 28ad8 0 smf::Binasc::writeToBinary(std::__ndk1::basic_ostream<char, std::__ndk1::char_traits<char> >&, std::__ndk1::basic_istream<char, std::__ndk1::char_traits<char> >&)
PUBLIC m 28c00 0 std::__ndk1::basic_ofstream<char, std::__ndk1::char_traits<char> >::~basic_ofstream()
PUBLIC m 28c50 0 std::__ndk1::basic_ifstream<char, std::__ndk1::char_traits<char> >::~basic_ifstream()
PUBLIC 28ca0 0 std::__ndk1::getline[abi:ne180000]<char, std::__ndk1::char_traits<char>, std::__ndk1::allocator<char> >(std::__ndk1::basic_istream<char, std::__ndk1::char_traits<char> >, std::__ndk1::basic_string<std::__ndk1::basic_istream, char, std::__ndk1::allocator<char> >&, std::__ndk1::basic_istream)
PUBLIC 28e54 0 smf::Binasc::processLine(std::__ndk1::basic_ostream<char, std::__ndk1::char_traits<char> >&, std::__ndk1::basic_string<char, std::__ndk1::char_traits<char>, std::__ndk1::allocator<char> > const&, int)
PUBLIC 29a34 0 smf::Binasc::getWord(std::__ndk1::basic_string<char, std::__ndk1::char_traits<char>, std::__ndk1::allocator<char> >&, std::__ndk1::basic_string<char, std::__ndk1::char_traits<char>, std::__ndk1::allocator<char> > const&, std::__ndk1::basic_string<char, std::__ndk1::char_traits<char>, std::__ndk1::allocator<char> > const&, int)
PUBLIC 29c08 0 smf::Binasc::processMidiTempoWord(std::__ndk1::basic_ostream<char, std::__ndk1::char_traits<char> >&, std::__ndk1::basic_string<char, std::__ndk1::char_traits<char>, std::__ndk1::allocator<char> > const&, int)
PUBLIC 29e80 0 smf::Binasc::processDecimalWord(std::__ndk1::basic_ostream<char, std::__ndk1::char_traits<char> >&, std::__ndk1::basic_string<char, std::__ndk1::char_traits<char>, std::__ndk1::allocator<char> > const&, int)
PUBLIC 2b274 0 smf::Binasc::processBinaryWord(std::__ndk1::basic_ostream<char, std::__ndk1::char_traits<char> >&, std::__ndk1::basic_string<char, std::__ndk1::char_traits<char>, std::__ndk1::allocator<char> > const&, int)
PUBLIC 2bbcc 0 smf::Binasc::processHexWord(std::__ndk1::basic_ostream<char, std::__ndk1::char_traits<char> >&, std::__ndk1::basic_string<char, std::__ndk1::char_traits<char>, std::__ndk1::allocator<char> > const&, int)
PUBLIC 2bf0c 0 std::__ndk1::basic_stringstream<char, std::__ndk1::char_traits<char>, std::__ndk1::allocator<char> >::basic_stringstream[abi:ne180000]()
PUBLIC m 2c038 0 std::__ndk1::basic_stringstream<char, std::__ndk1::char_traits<char>, std::__ndk1::allocator<char> >::~basic_stringstream()
PUBLIC 2c0b8 0 smf::Binasc::writeBigEndianFloat(std::__ndk1::basic_ostream<char, std::__ndk1::char_traits<char> >&, float)
PUBLIC 2c164 0 smf::Binasc::writeLittleEndianFloat(std::__ndk1::basic_ostream<char, std::__ndk1::char_traits<char> >&, float)
PUBLIC 2c210 0 smf::Binasc::writeBigEndianDouble(std::__ndk1::basic_ostream<char, std::__ndk1::char_traits<char> >&, double)
PUBLIC 2c31c 0 smf::Binasc::writeLittleEndianDouble(std::__ndk1::basic_ostream<char, std::__ndk1::char_traits<char> >&, double)
PUBLIC 2c428 0 smf::Binasc::writeBigEndianShort(std::__ndk1::basic_ostream<char, std::__ndk1::char_traits<char> >&, short)
PUBLIC 2c4a4 0 smf::Binasc::writeLittleEndianShort(std::__ndk1::basic_ostream<char, std::__ndk1::char_traits<char> >&, short)
PUBLIC 2c51c 0 smf::Binasc::writeBigEndianUShort(std::__ndk1::basic_ostream<char, std::__ndk1::char_traits<char> >&, unsigned short)
PUBLIC 2c598 0 smf::Binasc::writeLittleEndianUShort(std::__ndk1::basic_ostream<char, std::__ndk1::char_traits<char> >&, unsigned short)
PUBLIC 2c610 0 smf::Binasc::writeBigEndianLong(std::__ndk1::basic_ostream<char, std::__ndk1::char_traits<char> >&, long)
PUBLIC 2c6c4 0 smf::Binasc::writeLittleEndianLong(std::__ndk1::basic_ostream<char, std::__ndk1::char_traits<char> >&, long)
PUBLIC 2c774 0 smf::Binasc::writeBigEndianULong(std::__ndk1::basic_ostream<char, std::__ndk1::char_traits<char> >&, unsigned long)
PUBLIC 2c828 0 smf::Binasc::writeLittleEndianULong(std::__ndk1::basic_ostream<char, std::__ndk1::char_traits<char> >&, unsigned long)
PUBLIC 2c8d8 0 std::__ndk1::__put_character_sequence[abi:ne180000]<char, std::__ndk1::char_traits<char> >(std::__ndk1::basic_ostream<char, std::__ndk1::char_traits<char> >, std::__ndk1::basic_ostream const*, unsigned long)
PUBLIC 2ca7c 0 std::__ndk1::__pad_and_output[abi:ne180000]<char, std::__ndk1::char_traits<char> >(std::__ndk1::char_traits<char>, std::__ndk1::ostreambuf_iterator const*, std::__ndk1::ostreambuf_iterator const, std::__ndk1::ostreambuf_iterator const, std::__ndk1::ios_base&, std::__ndk1::ostreambuf_iterator)
PUBLIC 2cc58 0 __clang_call_terminate
PUBLIC 2cc68 0 std::__ndk1::basic_string<char, std::__ndk1::char_traits<char>, std::__ndk1::allocator<char> >::__throw_length_error[abi:ne180000]() const
PUBLIC 2cc7c 0 std::__ndk1::__throw_length_error[abi:ne180000](char const*)
PUBLIC 2cccc 0 std::length_error::length_error[abi:ne180000](char const*)
PUBLIC 2ccfc 0 std::__ndk1::basic_string<char, std::__ndk1::char_traits<char>, std::__ndk1::allocator<char> >::__throw_out_of_range[abi:ne180000]() const
PUBLIC 2cd10 0 std::__ndk1::__throw_out_of_range[abi:ne180000](char const*)
PUBLIC 2cd60 0 std::out_of_range::out_of_range[abi:ne180000](char const*)
PUBLIC 2cd90 0 smf::MidiEvent::MidiEvent(smf::MidiEvent const&)
PUBLIC 2ce98 0 std::__ndk1::vector<unsigned char, std::__ndk1::allocator<unsigned char> >::__throw_length_error[abi:ne180000]() const
PUBLIC 2ceac 0 smf::MidiEventList::reserve(int)
PUBLIC 2cfcc 0 smf::MidiEventList::~MidiEventList()
PUBLIC 2d098 0 smf::MidiEventList::clear()
PUBLIC 2d140 0 smf::MidiEventList::append(smf::MidiEvent&)
PUBLIC 2d2f4 0 smf::MidiEventList::push_back_no_copy(smf::MidiEvent*)
PUBLIC 2d484 0 smf::eventcompare(void const*, void const*)
PUBLIC 2d728 0 std::__ndk1::vector<smf::MidiEvent*, std::__ndk1::allocator<smf::MidiEvent*> >::__throw_length_error[abi:ne180000]() const
PUBLIC 2d73c 0 std::__throw_bad_array_new_length([abi:ne180000], void)
PUBLIC 2d770 0 std::__ndk1::vector<int, std::__ndk1::allocator<int> >::~vector[abi:ne180000]()
PUBLIC 2d788 0 smf::MidiFile::MidiFile()
PUBLIC 2d8b4 0 std::__ndk1::vector<smf::MidiEventList*, std::__ndk1::allocator<smf::MidiEventList*> >::resize(unsigned long)
PUBLIC 2d8e0 0 smf::MidiFile::read(std::__ndk1::basic_string<char, std::__ndk1::char_traits<char>, std::__ndk1::allocator<char> > const&)
PUBLIC 2da9c 0 smf::MidiFile::read(std::__ndk1::basic_istream<char, std::__ndk1::char_traits<char> >&)
PUBLIC 2dc8c 0 smf::MidiFile::~MidiFile()
PUBLIC 2dde4 0 smf::MidiFile::clear()
PUBLIC 2df94 0 smf::MidiFile::setFilename(std::__ndk1::basic_string<char, std::__ndk1::char_traits<char>, std::__ndk1::allocator<char> > const&)
PUBLIC 2e1a4 0 std::__ndk1::basic_fstream<char, std::__ndk1::char_traits<char> >::~basic_fstream()
PUBLIC 2e1fc 0 smf::MidiFile::readSmf(std::__ndk1::basic_istream<char, std::__ndk1::char_traits<char> >&)
PUBLIC 302c0 0 smf::MidiFile::readLittleEndian4Bytes(std::__ndk1::basic_istream<char, std::__ndk1::char_traits<char> >&)
PUBLIC 303d8 0 smf::MidiFile::readLittleEndian2Bytes(std::__ndk1::basic_istream<char, std::__ndk1::char_traits<char> >&)
PUBLIC 304f0 0 smf::MidiFile::readVLValue(std::__ndk1::basic_istream<char, std::__ndk1::char_traits<char> >&)
PUBLIC 3067c 0 smf::MidiFile::markSequence()
PUBLIC 3074c 0 smf::MidiFile::makeDeltaTicks()
PUBLIC 309ac 0 std::__ndk1::vector<unsigned char, std::__ndk1::allocator<unsigned char> >::push_back[abi:ne180000](unsigned char const&)
PUBLIC 30b64 0 smf::MidiFile::buildTimeMap()
PUBLIC 31854 0 smf::MidiFile::ticksearch(void const*, void const*)
PUBLIC 3186c 0 smf::MidiFile::linearSecondInterpolationAtTick(int)
PUBLIC 319d4 0 smf::MidiFile::readByte(std::__ndk1::basic_istream<char, std::__ndk1::char_traits<char> >&)
PUBLIC 31af0 0 smf::MidiFile::unpackVLV(unsigned char, unsigned char, unsigned char, unsigned char, unsigned char)
PUBLIC 31c84 0 std::__ndk1::vector<smf::MidiEventList*, std::__ndk1::allocator<smf::MidiEventList*> >::__append(unsigned long)
PUBLIC 31e38 0 std::__ndk1::vector<smf::MidiEventList*, std::__ndk1::allocator<smf::MidiEventList*> >::__throw_length_error[abi:ne180000]() const
PUBLIC 31e4c 0 std::__ndk1::basic_string<char, std::__ndk1::char_traits<char>, std::__ndk1::allocator<char> >::__assign_no_alias<true>(char const*, unsigned long)
PUBLIC 31ef8 0 std::__ndk1::basic_string<char, std::__ndk1::char_traits<char>, std::__ndk1::allocator<char> >::__assign_no_alias<false>(char const*, unsigned long)
PUBLIC 32008 0 std::__ndk1::vector<smf::_TickTime, std::__ndk1::allocator<smf::_TickTime> >::__throw_length_error[abi:ne180000]() const
PUBLIC 3201c 0 {virtual override thunk({offset(-16)}, std::__ndk1::basic_fstream<char, std::__ndk1::char_traits<char> >::~basic_fstream())}
PUBLIC 32070 0 {virtual override thunk({virtual offset(0, -24)}, std::__ndk1::basic_fstream<char, std::__ndk1::char_traits<char> >::~basic_fstream())}
PUBLIC 320d0 0 std::__ndk1::basic_fstream<char, std::__ndk1::char_traits<char> >::~basic_fstream()
PUBLIC 32130 0 {virtual override thunk({offset(-16)}, std::__ndk1::basic_fstream<char, std::__ndk1::char_traits<char> >::~basic_fstream())}
PUBLIC 3218c 0 {virtual override thunk({virtual offset(0, -24)}, std::__ndk1::basic_fstream<char, std::__ndk1::char_traits<char> >::~basic_fstream())}
PUBLIC 321f4 0 std::__ndk1::vector<smf::MidiEventList*, std::__ndk1::allocator<smf::MidiEventList*> >::__throw_out_of_range[abi:ne180000]() const
PUBLIC 32208 0 _GLOBAL__sub_I_MidiFile.cpp
PUBLIC 322c4 0 smf::MidiMessage::setMessage(std::__ndk1::vector<unsigned char, std::__ndk1::allocator<unsigned char> > const&)
PUBLIC 324dc 0 generateColors(int)
PUBLIC 326ac 0 std::__ndk1::vector<std::__ndk1::tuple<int, int, int, int>, std::__ndk1::allocator<std::__ndk1::tuple<int, int, int, int> > >::__throw_length_error[abi:ne180000]() const
PUBLIC 326c0 0 __aarch64_ldadd8_relax
PUBLIC 326f0 0 init_have_lse_atomics
PUBLIC 32788 0 __init_cpu_features_constructor
PUBLIC 32d24 0 __init_cpu_features
PUBLIC 32db0 0 __aarch64_ldadd8_acq_rel
PUBLIC 32de0 0 __cxx_global_var_init
PUBLIC 33260 0 geode::modifier::ModifyBase<geode::modifier::ModifyDerive<mLevelSettingsLayer, LevelSettingsLayer> >::~ModifyBase()
PUBLIC 3327c 0 geode::modifier::ModifyDerive<mLevelSettingsLayer, LevelSettingsLayer>::apply()
PUBLIC 3363c 0 std::__ndk1::shared_ptr<geode::Hook>::~shared_ptr[abi:ne180000]()
PUBLIC 3368c 0 geode::impl::ResultData<geode::Hook*, std::__ndk1::basic_string<char, std::__ndk1::char_traits<char>, std::__ndk1::allocator<char> > >::~ResultData()
PUBLIC 33700 0 std::__ndk1::vector<std::__ndk1::basic_string<char, std::__ndk1::char_traits<char>, std::__ndk1::allocator<char> >, std::__ndk1::allocator<std::__ndk1::basic_string<char, std::__ndk1::char_traits<char>, std::__ndk1::allocator<char> > > >::~vector[abi:ne180000]()
PUBLIC 3377c 0 geode::modifier::ModifyBase<geode::modifier::ModifyDerive<mLevelSettingsLayer, LevelSettingsLayer> >::apply()
PUBLIC 33780 0 _ZN5geode15UnwrapExceptionC2IRPNS_4HookEQsr4implE18IsStringStreamableIT_EEENS_4impl5OkTagEOS5_
PUBLIC 338d4 0 std::__ndk1::__throw_bad_variant_access[abi:ne180000]()
PUBLIC 33908 0 geode::UnwrapException::~UnwrapException()
PUBLIC 3392c 0 std::__ndk1::basic_stringbuf<char, std::__ndk1::char_traits<char>, std::__ndk1::allocator<char> >::str[abi:ne180000]() &&
PUBLIC 33aa4 0 std::__ndk1::basic_stringbuf<char, std::__ndk1::char_traits<char>, std::__ndk1::allocator<char> >::__init_buf_ptrs[abi:ne180000]()
PUBLIC 33bec 0 std::__ndk1::vector<std::__ndk1::basic_string<char, std::__ndk1::char_traits<char>, std::__ndk1::allocator<char> >, std::__ndk1::allocator<std::__ndk1::basic_string<char, std::__ndk1::char_traits<char>, std::__ndk1::allocator<char> > > >::__push_back_slow_path<std::__ndk1::basic_string<char, std::__ndk1::char_traits<char>, std::__ndk1::allocator<char> > const&>(std::__ndk1::basic_string<char, std::__ndk1::char_traits<char>, std::__ndk1::allocator<char> > const&)
PUBLIC 33e14 0 std::__ndk1::basic_string<char, std::__ndk1::char_traits<char>, std::__ndk1::allocator<char> >::__init_copy_ctor_external(char const*, unsigned long)
PUBLIC 33e94 0 std::__ndk1::__split_buffer<std::__ndk1::basic_string<char, std::__ndk1::char_traits<char>, std::__ndk1::allocator<char> >, std::__ndk1::allocator<std::__ndk1::basic_string<char, std::__ndk1::char_traits<char>, std::__ndk1::allocator<char> > >&>::~__split_buffer()
PUBLIC 33efc 0 std::__ndk1::vector<std::__ndk1::basic_string<char, std::__ndk1::char_traits<char>, std::__ndk1::allocator<char> >, std::__ndk1::allocator<std::__ndk1::basic_string<char, std::__ndk1::char_traits<char>, std::__ndk1::allocator<char> > > >::__throw_length_error[abi:ne180000]() const
PUBLIC 33f10 0 std::__ndk1::__variant_detail::__visitation::__base::__dispatcher<(unsigned long)0>::__dispatch[abi:ne180000]<std::__ndk1::__variant_detail::__dtor<std::__ndk1::__variant_detail::__traits<geode::Hook*, std::__ndk1::basic_string<char, std::__ndk1::char_traits<char>, std::__ndk1::allocator<char> > >, (std::__ndk1::__variant_detail::_Trait)1>::__destroy[abi:ne180000]()::{lambda(auto:1&)#1}, std::__ndk1::__variant_detail::__base<(std::__ndk1::__variant_detail::__traits<geode::Hook*, std::__ndk1::basic_string<char, std::__ndk1::char_traits<char>, std::__ndk1::allocator<char> > >)1, geode::Hook, std::__ndk1::allocator<char> >&>(std::__ndk1::__variant_detail::__dtor<std::__ndk1::__variant_detail::__traits<geode::Hook*, std::__ndk1::basic_string<char, std::__ndk1::char_traits<char>, std::__ndk1::allocator<char> > >, (std::__ndk1::__variant_detail::_Trait)1>, std::__ndk1::__variant_detail::__base<(std::__ndk1::__variant_detail::__traits<geode::Hook*, std::__ndk1::basic_string<char, std::__ndk1::char_traits<char>, std::__ndk1::allocator<char> > >)1, geode::Hook, std::__ndk1::allocator<char> >&)
PUBLIC 33f14 0 std::__ndk1::__variant_detail::__visitation::__base::__dispatcher<(unsigned long)1>::__dispatch[abi:ne180000]<std::__ndk1::__variant_detail::__dtor<std::__ndk1::__variant_detail::__traits<geode::Hook*, std::__ndk1::basic_string<char, std::__ndk1::char_traits<char>, std::__ndk1::allocator<char> > >, (std::__ndk1::__variant_detail::_Trait)1>::__destroy[abi:ne180000]()::{lambda(auto:1&)#1}, std::__ndk1::__variant_detail::__base<(std::__ndk1::__variant_detail::__traits<geode::Hook*, std::__ndk1::basic_string<char, std::__ndk1::char_traits<char>, std::__ndk1::allocator<char> > >)1, geode::Hook, std::__ndk1::allocator<char> >&>(std::__ndk1::__variant_detail::__dtor<std::__ndk1::__variant_detail::__traits<geode::Hook*, std::__ndk1::basic_string<char, std::__ndk1::char_traits<char>, std::__ndk1::allocator<char> > >, (std::__ndk1::__variant_detail::_Trait)1>, std::__ndk1::__variant_detail::__base<(std::__ndk1::__variant_detail::__traits<geode::Hook*, std::__ndk1::basic_string<char, std::__ndk1::char_traits<char>, std::__ndk1::allocator<char> > >)1, geode::Hook, std::__ndk1::allocator<char> >&)
PUBLIC 33f28 0 std::__ndk1::__tree<std::__ndk1::__value_type<std::__ndk1::basic_string<char, std::__ndk1::char_traits<char>, std::__ndk1::allocator<char> >, std::__ndk1::shared_ptr<geode::Hook> >, std::__ndk1::__map_value_compare<std::__ndk1::basic_string<char, std::__ndk1::char_traits<char>, std::__ndk1::allocator<char> >, std::__ndk1::__value_type<std::__ndk1::basic_string<char, std::__ndk1::char_traits<char>, std::__ndk1::allocator<char> >, std::__ndk1::shared_ptr<geode::Hook> >, std::__ndk1::less<std::__ndk1::basic_string<char, std::__ndk1::char_traits<char>, std::__ndk1::allocator<char> > >, true>, std::__ndk1::allocator<std::__ndk1::__value_type<std::__ndk1::basic_string<char, std::__ndk1::char_traits<char>, std::__ndk1::allocator<char> >, std::__ndk1::shared_ptr<geode::Hook> > > >::find<std::__ndk1::basic_string<char, std::__ndk1::char_traits<char>, std::__ndk1::allocator<char> > >(std::__ndk1::basic_string<char, std::__ndk1::char_traits<char>, std::__ndk1::allocator<char> > const&)
PUBLIC 34048 0 std::__ndk1::__tree<std::__ndk1::__value_type<std::__ndk1::basic_string<char, std::__ndk1::char_traits<char>, std::__ndk1::allocator<char> >, std::__ndk1::shared_ptr<geode::Hook> >, std::__ndk1::__map_value_compare<std::__ndk1::basic_string<char, std::__ndk1::char_traits<char>, std::__ndk1::allocator<char> >, std::__ndk1::__value_type<std::__ndk1::basic_string<char, std::__ndk1::char_traits<char>, std::__ndk1::allocator<char> >, std::__ndk1::shared_ptr<geode::Hook> >, std::__ndk1::less<std::__ndk1::basic_string<char, std::__ndk1::char_traits<char>, std::__ndk1::allocator<char> > >, true>, std::__ndk1::allocator<std::__ndk1::__value_type<std::__ndk1::basic_string<char, std::__ndk1::char_traits<char>, std::__ndk1::allocator<char> >, std::__ndk1::shared_ptr<geode::Hook> > > >::erase(std::__ndk1::__tree_const_iterator<std::__ndk1::__value_type<std::__ndk1::basic_string<char, std::__ndk1::char_traits<char>, std::__ndk1::allocator<char> >, std::__ndk1::shared_ptr<geode::Hook> >, std::__ndk1::__tree_node<std::__ndk1::__value_type<std::__ndk1::basic_string<char, std::__ndk1::char_traits<char>, std::__ndk1::allocator<char> >, std::__ndk1::shared_ptr<geode::Hook> >, void*>*, long>)
PUBLIC 3411c 0 std::__ndk1::__tree_remove[abi:ne180000]<std::__ndk1::__tree_node_base<void*>*>(std::__ndk1::__tree_node_base<void*>*, std::__ndk1::__tree_node_base<void*>*)
PUBLIC 344e4 0 std::__ndk1::__tree<std::__ndk1::__value_type<std::__ndk1::basic_string<char, std::__ndk1::char_traits<char>, std::__ndk1::allocator<char> >, std::__ndk1::shared_ptr<geode::Hook> >, std::__ndk1::__map_value_compare<std::__ndk1::basic_string<char, std::__ndk1::char_traits<char>, std::__ndk1::allocator<char> >, std::__ndk1::__value_type<std::__ndk1::basic_string<char, std::__ndk1::char_traits<char>, std::__ndk1::allocator<char> >, std::__ndk1::shared_ptr<geode::Hook> >, std::__ndk1::less<std::__ndk1::basic_string<char, std::__ndk1::char_traits<char>, std::__ndk1::allocator<char> > >, true>, std::__ndk1::allocator<std::__ndk1::__value_type<std::__ndk1::basic_string<char, std::__ndk1::char_traits<char>, std::__ndk1::allocator<char> >, std::__ndk1::shared_ptr<geode::Hook> > > >::destroy(std::__ndk1::__tree_node<std::__ndk1::__value_type<std::__ndk1::basic_string<char, std::__ndk1::char_traits<char>, std::__ndk1::allocator<char> >, std::__ndk1::shared_ptr<geode::Hook> >, void*>*)
PUBLIC 34570 0 geode::modifier::AsStaticFunction_init<mLevelSettingsLayer, bool (mLevelSettingsLayer::*)(LevelSettingsObject*, LevelEditorLayer*)>::Impl<bool (mLevelSettingsLayer::*)(LevelSettingsObject*, LevelEditorLayer*)>::function(mLevelSettingsLayer*, LevelSettingsObject*, LevelEditorLayer*)
PUBLIC 34640 0 std::__ndk1::shared_ptr<tulip::hook::CallingConvention>::~shared_ptr[abi:ne180000]()
PUBLIC 34690 0 tulip::hook::HandlerMetadata::~HandlerMetadata()
PUBLIC 346f4 0 std::__ndk1::vector<tulip::hook::AbstractType, std::__ndk1::allocator<tulip::hook::AbstractType> >::__throw_length_error[abi:ne180000]() const
PUBLIC 34708 0 mLevelSettingsLayer::onClick(cocos2d::CCObject*)
PUBLIC 3473c 0 std::__ndk1::__tree<std::__ndk1::__value_type<std::__ndk1::basic_string<char, std::__ndk1::char_traits<char>, std::__ndk1::allocator<char> >, std::__ndk1::shared_ptr<geode::Hook> >, std::__ndk1::__map_value_compare<std::__ndk1::basic_string<char, std::__ndk1::char_traits<char>, std::__ndk1::allocator<char> >, std::__ndk1::__value_type<std::__ndk1::basic_string<char, std::__ndk1::char_traits<char>, std::__ndk1::allocator<char> >, std::__ndk1::shared_ptr<geode::Hook> >, std::__ndk1::less<std::__ndk1::basic_string<char, std::__ndk1::char_traits<char>, std::__ndk1::allocator<char> > >, true>, std::__ndk1::allocator<std::__ndk1::__value_type<std::__ndk1::basic_string<char, std::__ndk1::char_traits<char>, std::__ndk1::allocator<char> >, std::__ndk1::shared_ptr<geode::Hook> > > >::__emplace_unique_key_args<std::__ndk1::basic_string<char, std::__ndk1::char_traits<char>, std::__ndk1::allocator<char> >, std::__ndk1::piecewise_construct_t const&, std::__ndk1::tuple<std::__ndk1::basic_string<char, std::__ndk1::char_traits<char>, std::__ndk1::allocator<char> >&&>, std::__ndk1::tuple<> >(std::__ndk1::basic_string<char, std::__ndk1::char_traits<char>, std::__ndk1::allocator<char> > const&, std::__ndk1::piecewise_construct_t const&, std::__ndk1::tuple<std::__ndk1::basic_string<char, std::__ndk1::char_traits<char>, std::__ndk1::allocator<char> >&&>, std::__ndk1::tuple<>)
PUBLIC 348b4 0 std::__ndk1::__tree_balance_after_insert[abi:ne180000]<std::__ndk1::__tree_node_base<void*>*>(std::__ndk1::__tree_node_base<void*>*, std::__ndk1::__tree_node_base<void*>*)
PUBLIC 34a64 0 std::__ndk1::__fs::filesystem::path::~path[abi:ne180000]()
PUBLIC 34a78 0 LevelMidiData::Track::~Track()
PUBLIC 34abc 0 LevelMidiData::~LevelMidiData()
PUBLIC 34b54 0 MainPopup::setup(std::__ndk1::basic_string<char, std::__ndk1::char_traits<char>, std::__ndk1::allocator<char> > const&)
PUBLIC 3514c 0 geode::Popup<std::__ndk1::basic_string<char, std::__ndk1::char_traits<char>, std::__ndk1::allocator<char> > const&>::setTitle(std::__ndk1::basic_string<char, std::__ndk1::char_traits<char>, std::__ndk1::allocator<char> > const&, char const*, float, float)
PUBLIC 35298 0 MainPopup::onSettings(cocos2d::CCObject*)
PUBLIC 352b4 0 MainPopup::onSelectFile(cocos2d::CCObject*)
PUBLIC 35adc 0 geode::Task<geode::Result<std::__ndk1::__fs::filesystem::path, std::__ndk1::basic_string<char, std::__ndk1::char_traits<char>, std::__ndk1::allocator<char> > >, std::__ndk1::monostate>::~Task()
PUBLIC 35b2c 0 geode::utils::file::FilePickOptions::~FilePickOptions()
PUBLIC 35bb4 0 geode::utils::file::FilePickOptions::Filter::~Filter()
PUBLIC 35c34 0 MainPopup::onClose(cocos2d::CCObject*)
PUBLIC 35e88 0 geode::impl::ResultData<float, std::__ndk1::basic_string<char, std::__ndk1::char_traits<char>, std::__ndk1::allocator<char> > >::~ResultData()
PUBLIC 35efc 0 MainPopup::create()
PUBLIC 36098 0 cocos2d::CCCopying::copyWithZone(cocos2d::CCZone*)
PUBLIC 360a0 0 geode::Popup<std::__ndk1::basic_string<char, std::__ndk1::char_traits<char>, std::__ndk1::allocator<char> > const&>::~Popup()
PUBLIC 3610c 0 MainPopup::~MainPopup()
PUBLIC 36180 0 geode::Popup<std::__ndk1::basic_string<char, std::__ndk1::char_traits<char>, std::__ndk1::allocator<char> > const&>::registerWithTouchDispatcher()
PUBLIC 361ac 0 geode::Popup<std::__ndk1::basic_string<char, std::__ndk1::char_traits<char>, std::__ndk1::allocator<char> > const&>::keyDown(cocos2d::enumKeyCodes)
PUBLIC 361d4 0 cocos2d::CCLayerRGBA::setOpacityModifyRGB(bool)
PUBLIC 361d8 0 cocos2d::CCLayerRGBA::isOpacityModifyRGB()
PUBLIC 361e0 0 {virtual override thunk({offset(-320)}, MainPopup::~MainPopup())}
PUBLIC 3624c 0 {virtual override thunk({offset(-320)}, MainPopup::~MainPopup())}
PUBLIC 362c0 0 {virtual override thunk({offset(-344)}, geode::Popup<std::__ndk1::basic_string<char, std::__ndk1::char_traits<char>, std::__ndk1::allocator<char> > const&>::keyDown(cocos2d::enumKeyCodes))}
PUBLIC 362ec 0 cocos2d::CCKeyboardDelegate::keyUp(cocos2d::enumKeyCodes)
PUBLIC 362f0 0 cocos2d::CCMouseDelegate::rightKeyDown()
PUBLIC 362f4 0 cocos2d::CCMouseDelegate::rightKeyUp()
PUBLIC 362f8 0 cocos2d::CCMouseDelegate::scrollWheel(float, float)
PUBLIC 362fc 0 {virtual override thunk({offset(-408)}, cocos2d::CCLayerRGBA::setOpacityModifyRGB(bool))}
PUBLIC 36300 0 {virtual override thunk({offset(-408)}, cocos2d::CCLayerRGBA::isOpacityModifyRGB())}
PUBLIC 36308 0 std::__ndk1::vector<double, std::__ndk1::allocator<double> >::__throw_length_error[abi:ne180000]() const
PUBLIC 3631c 0 std::__ndk1::vector<LevelMidiData::Track, std::__ndk1::allocator<LevelMidiData::Track> >::__push_back_slow_path<LevelMidiData::Track const&>(LevelMidiData::Track const&)
PUBLIC 36558 0 std::__ndk1::construct_at[abi:ne180000]<LevelMidiData::Track, LevelMidiData const&, LevelMidiData*>(LevelMidiData::Track, LevelMidiData const&)
PUBLIC 36678 0 std::__ndk1::__split_buffer<LevelMidiData::Track, std::__ndk1::allocator<LevelMidiData::Track>&>::~__split_buffer()
PUBLIC 366f4 0 std::__ndk1::vector<LevelMidiData::Track, std::__ndk1::allocator<LevelMidiData::Track> >::__throw_length_error[abi:ne180000]() const
PUBLIC 36708 0 std::__ndk1::__exception_guard_exceptions<std::__ndk1::_AllocatorDestroyRangeReverse<std::__ndk1::allocator<geode::utils::file::FilePickOptions::Filter>, geode::utils::file::FilePickOptions::Filter*> >::~__exception_guard_exceptions[abi:ne180000]()
PUBLIC 367ac 0 std::__ndk1::__hash_table<std::__ndk1::basic_string<char, std::__ndk1::char_traits<char>, std::__ndk1::allocator<char> >, std::__ndk1::hash<std::__ndk1::basic_string<char, std::__ndk1::char_traits<char>, std::__ndk1::allocator<char> > >, std::__ndk1::equal_to<std::__ndk1::basic_string<char, std::__ndk1::char_traits<char>, std::__ndk1::allocator<char> > >, std::__ndk1::allocator<std::__ndk1::basic_string<char, std::__ndk1::char_traits<char>, std::__ndk1::allocator<char> > > >::~__hash_table()
PUBLIC 3681c 0 std::__ndk1::__hash_table<std::__ndk1::basic_string<char, std::__ndk1::char_traits<char>, std::__ndk1::allocator<char> >, std::__ndk1::hash<std::__ndk1::basic_string<char, std::__ndk1::char_traits<char>, std::__ndk1::allocator<char> > >, std::__ndk1::equal_to<std::__ndk1::basic_string<char, std::__ndk1::char_traits<char>, std::__ndk1::allocator<char> > >, std::__ndk1::allocator<std::__ndk1::basic_string<char, std::__ndk1::char_traits<char>, std::__ndk1::allocator<char> > > >::__do_rehash<true>(unsigned long)
PUBLIC 369c8 0 std::__ndk1::__hash_table<std::__ndk1::basic_string<char, std::__ndk1::char_traits<char>, std::__ndk1::allocator<char> >, std::__ndk1::hash<std::__ndk1::basic_string<char, std::__ndk1::char_traits<char>, std::__ndk1::allocator<char> > >, std::__ndk1::equal_to<std::__ndk1::basic_string<char, std::__ndk1::char_traits<char>, std::__ndk1::allocator<char> > >, std::__ndk1::allocator<std::__ndk1::basic_string<char, std::__ndk1::char_traits<char>, std::__ndk1::allocator<char> > > >::__emplace_unique_key_args<std::__ndk1::basic_string<char, std::__ndk1::char_traits<char>, std::__ndk1::allocator<char> >, std::__ndk1::basic_string<char, std::__ndk1::char_traits<char>, std::__ndk1::allocator<char> > const&>(std::__ndk1::basic_string<char, std::__ndk1::char_traits<char>, std::__ndk1::allocator<char> > const&, std::__ndk1::basic_string<char, std::__ndk1::char_traits<char>, std::__ndk1::allocator<char> > const&)
PUBLIC 37230 0 std::__ndk1::unique_ptr<std::__ndk1::__hash_node<std::__ndk1::basic_string<char, std::__ndk1::char_traits<char>, std::__ndk1::allocator<char> >, void*>, std::__ndk1::__hash_node_destructor<std::__ndk1::allocator<std::__ndk1::__hash_node<std::__ndk1::basic_string<char, std::__ndk1::char_traits<char>, std::__ndk1::allocator<char> >, void*> > > >::~unique_ptr[abi:ne180000]()
PUBLIC 37280 0 std::__ndk1::vector<geode::utils::file::FilePickOptions::Filter, std::__ndk1::allocator<geode::utils::file::FilePickOptions::Filter> >::__destroy_vector::operator()[abi:ne180000]()
PUBLIC 37364 0 std::__ndk1::__variant_detail::__visitation::__base::__dispatcher<(unsigned long)0>::__dispatch[abi:ne180000]<std::__ndk1::__variant_detail::__dtor<std::__ndk1::__variant_detail::__traits<float, std::__ndk1::basic_string<char, std::__ndk1::char_traits<char>, std::__ndk1::allocator<char> > >, (std::__ndk1::__variant_detail::_Trait)1>::__destroy[abi:ne180000]()::{lambda(auto:1&)#1}, std::__ndk1::__variant_detail::__base<(std::__ndk1::__variant_detail::__traits<float, std::__ndk1::basic_string<char, std::__ndk1::char_traits<char>, std::__ndk1::allocator<char> > >)1, float, std::__ndk1::allocator<char> >&>(std::__ndk1::__variant_detail::__dtor<std::__ndk1::__variant_detail::__traits<float, std::__ndk1::basic_string<char, std::__ndk1::char_traits<char>, std::__ndk1::allocator<char> > >, (std::__ndk1::__variant_detail::_Trait)1>, std::__ndk1::__variant_detail::__base<(std::__ndk1::__variant_detail::__traits<float, std::__ndk1::basic_string<char, std::__ndk1::char_traits<char>, std::__ndk1::allocator<char> > >)1, float, std::__ndk1::allocator<char> >&)
PUBLIC 37368 0 std::__ndk1::__variant_detail::__visitation::__base::__dispatcher<(unsigned long)1>::__dispatch[abi:ne180000]<std::__ndk1::__variant_detail::__dtor<std::__ndk1::__variant_detail::__traits<float, std::__ndk1::basic_string<char, std::__ndk1::char_traits<char>, std::__ndk1::allocator<char> > >, (std::__ndk1::__variant_detail::_Trait)1>::__destroy[abi:ne180000]()::{lambda(auto:1&)#1}, std::__ndk1::__variant_detail::__base<(std::__ndk1::__variant_detail::__traits<float, std::__ndk1::basic_string<char, std::__ndk1::char_traits<char>, std::__ndk1::allocator<char> > >)1, float, std::__ndk1::allocator<char> >&>(std::__ndk1::__variant_detail::__dtor<std::__ndk1::__variant_detail::__traits<float, std::__ndk1::basic_string<char, std::__ndk1::char_traits<char>, std::__ndk1::allocator<char> > >, (std::__ndk1::__variant_detail::_Trait)1>, std::__ndk1::__variant_detail::__base<(std::__ndk1::__variant_detail::__traits<float, std::__ndk1::basic_string<char, std::__ndk1::char_traits<char>, std::__ndk1::allocator<char> > >)1, float, std::__ndk1::allocator<char> >&)
PUBLIC 3737c 0 geode::Popup<std::__ndk1::basic_string<char, std::__ndk1::char_traits<char>, std::__ndk1::allocator<char> > const&>::~Popup()
PUBLIC 37380 0 geode::Popup<std::__ndk1::basic_string<char, std::__ndk1::char_traits<char>, std::__ndk1::allocator<char> > const&>::onClose(cocos2d::CCObject*)
PUBLIC 374c8 0 {virtual override thunk({offset(-320)}, geode::Popup<std::__ndk1::basic_string<char, std::__ndk1::char_traits<char>, std::__ndk1::allocator<char> > const&>::~Popup())}
PUBLIC 37534 0 {virtual override thunk({offset(-320)}, geode::Popup<std::__ndk1::basic_string<char, std::__ndk1::char_traits<char>, std::__ndk1::allocator<char> > const&>::~Popup())}
PUBLIC 37538 0 geode::Popup<std::__ndk1::basic_string<char, std::__ndk1::char_traits<char>, std::__ndk1::allocator<char> > const&>::CloseEvent::~CloseEvent()
PUBLIC 37598 0 geode::Popup<std::__ndk1::basic_string<char, std::__ndk1::char_traits<char>, std::__ndk1::allocator<char> > const&>::CloseEvent::~CloseEvent()
PUBLIC 37608 0 std::__ndk1::__shared_ptr_emplace<geode::Popup<std::__ndk1::basic_string<char, std::__ndk1::char_traits<char>, std::__ndk1::allocator<char> > const&>::CloseEvent::Impl, std::__ndk1::allocator<geode::Popup<std::__ndk1::basic_string<char, std::__ndk1::char_traits<char>, std::__ndk1::allocator<char> > const&>::CloseEvent::Impl> >::~__shared_ptr_emplace()
PUBLIC 37618 0 std::__ndk1::__shared_ptr_emplace<geode::Popup<std::__ndk1::basic_string<char, std::__ndk1::char_traits<char>, std::__ndk1::allocator<char> > const&>::CloseEvent::Impl, std::__ndk1::allocator<geode::Popup<std::__ndk1::basic_string<char, std::__ndk1::char_traits<char>, std::__ndk1::allocator<char> > const&>::CloseEvent::Impl> >::~__shared_ptr_emplace()
PUBLIC 37648 0 std::__ndk1::__shared_ptr_emplace<geode::Popup<std::__ndk1::basic_string<char, std::__ndk1::char_traits<char>, std::__ndk1::allocator<char> > const&>::CloseEvent::Impl, std::__ndk1::allocator<geode::Popup<std::__ndk1::basic_string<char, std::__ndk1::char_traits<char>, std::__ndk1::allocator<char> > const&>::CloseEvent::Impl> >::__on_zero_shared()
PUBLIC 3764c 0 std::__ndk1::__shared_ptr_emplace<geode::Popup<std::__ndk1::basic_string<char, std::__ndk1::char_traits<char>, std::__ndk1::allocator<char> > const&>::CloseEvent::Impl, std::__ndk1::allocator<geode::Popup<std::__ndk1::basic_string<char, std::__ndk1::char_traits<char>, std::__ndk1::allocator<char> > const&>::CloseEvent::Impl> >::__on_zero_shared_weak()
PUBLIC 37650 0 geode::EventListener<geode::Task<geode::Result<std::__ndk1::__fs::filesystem::path, std::__ndk1::basic_string<char, std::__ndk1::char_traits<char>, std::__ndk1::allocator<char> > >, std::__ndk1::monostate> >::getPool() const
PUBLIC 37654 0 geode::EventListener<geode::Task<geode::Result<std::__ndk1::__fs::filesystem::path, std::__ndk1::basic_string<char, std::__ndk1::char_traits<char>, std::__ndk1::allocator<char> > >, std::__ndk1::monostate> >::handle(geode::Event*)
PUBLIC 377f8 0 geode::EventListener<geode::Task<geode::Result<std::__ndk1::__fs::filesystem::path, std::__ndk1::basic_string<char, std::__ndk1::char_traits<char>, std::__ndk1::allocator<char> > >, std::__ndk1::monostate> >::~EventListener()
PUBLIC 37894 0 geode::EventListener<geode::Task<geode::Result<std::__ndk1::__fs::filesystem::path, std::__ndk1::basic_string<char, std::__ndk1::char_traits<char>, std::__ndk1::allocator<char> > >, std::__ndk1::monostate> >::~EventListener()
PUBLIC 37938 0 geode::Task<geode::Result<std::__ndk1::__fs::filesystem::path, std::__ndk1::basic_string<char, std::__ndk1::char_traits<char>, std::__ndk1::allocator<char> > >, std::__ndk1::monostate>::setListener(geode::EventListenerProtocol*)::{lambda()#1}::~{lambda()#1}()
PUBLIC 37988 0 std::__ndk1::__function::__func<geode::Task<geode::Result<std::__ndk1::__fs::filesystem::path, std::__ndk1::basic_string<char, std::__ndk1::char_traits<char>, std::__ndk1::allocator<char> > >, std::__ndk1::monostate>::setListener(geode::EventListenerProtocol*)::{lambda()#1}, std::__ndk1::allocator<geode::Task<geode::Result<std::__ndk1::__fs::filesystem::path, std::__ndk1::basic_string<char, std::__ndk1::char_traits<char>, std::__ndk1::allocator<char> > >, std::__ndk1::monostate>::setListener(geode::EventListenerProtocol*)::{lambda()#1}>, void ()>::~__func()
PUBLIC 379e4 0 std::__ndk1::__function::__func<geode::Task<geode::Result<std::__ndk1::__fs::filesystem::path, std::__ndk1::basic_string<char, std::__ndk1::char_traits<char>, std::__ndk1::allocator<char> > >, std::__ndk1::monostate>::setListener(geode::EventListenerProtocol*)::{lambda()#1}, std::__ndk1::allocator<geode::Task<geode::Result<std::__ndk1::__fs::filesystem::path, std::__ndk1::basic_string<char, std::__ndk1::char_traits<char>, std::__ndk1::allocator<char> > >, std::__ndk1::monostate>::setListener(geode::EventListenerProtocol*)::{lambda()#1}>, void ()>::~__func()
PUBLIC 37a50 0 std::__ndk1::__function::__func<geode::Task<geode::Result<std::__ndk1::__fs::filesystem::path, std::__ndk1::basic_string<char, std::__ndk1::char_traits<char>, std::__ndk1::allocator<char> > >, std::__ndk1::monostate>::setListener(geode::EventListenerProtocol*)::{lambda()#1}, std::__ndk1::allocator<geode::Task<geode::Result<std::__ndk1::__fs::filesystem::path, std::__ndk1::basic_string<char, std::__ndk1::char_traits<char>, std::__ndk1::allocator<char> > >, std::__ndk1::monostate>::setListener(geode::EventListenerProtocol*)::{lambda()#1}>, void ()>::__clone() const
PUBLIC 37aa8 0 std::__ndk1::__function::__func<geode::Task<geode::Result<std::__ndk1::__fs::filesystem::path, std::__ndk1::basic_string<char, std::__ndk1::char_traits<char>, std::__ndk1::allocator<char> > >, std::__ndk1::monostate>::setListener(geode::EventListenerProtocol*)::{lambda()#1}, std::__ndk1::allocator<geode::Task<geode::Result<std::__ndk1::__fs::filesystem::path, std::__ndk1::basic_string<char, std::__ndk1::char_traits<char>, std::__ndk1::allocator<char> > >, std::__ndk1::monostate>::setListener(geode::EventListenerProtocol*)::{lambda()#1}>, void ()>::__clone(std::__ndk1::__function::__base<void ()>*) const
PUBLIC 37af4 0 std::__ndk1::__function::__func<geode::Task<geode::Result<std::__ndk1::__fs::filesystem::path, std::__ndk1::basic_string<char, std::__ndk1::char_traits<char>, std::__ndk1::allocator<char> > >, std::__ndk1::monostate>::setListener(geode::EventListenerProtocol*)::{lambda()#1}, std::__ndk1::allocator<geode::Task<geode::Result<std::__ndk1::__fs::filesystem::path, std::__ndk1::basic_string<char, std::__ndk1::char_traits<char>, std::__ndk1::allocator<char> > >, std::__ndk1::monostate>::setListener(geode::EventListenerProtocol*)::{lambda()#1}>, void ()>::destroy()
PUBLIC 37b44 0 std::__ndk1::__function::__func<geode::Task<geode::Result<std::__ndk1::__fs::filesystem::path, std::__ndk1::basic_string<char, std::__ndk1::char_traits<char>, std::__ndk1::allocator<char> > >, std::__ndk1::monostate>::setListener(geode::EventListenerProtocol*)::{lambda()#1}, std::__ndk1::allocator<geode::Task<geode::Result<std::__ndk1::__fs::filesystem::path, std::__ndk1::basic_string<char, std::__ndk1::char_traits<char>, std::__ndk1::allocator<char> > >, std::__ndk1::monostate>::setListener(geode::EventListenerProtocol*)::{lambda()#1}>, void ()>::destroy_deallocate()
PUBLIC 37ba4 0 std::__ndk1::__function::__func<geode::Task<geode::Result<std::__ndk1::__fs::filesystem::path, std::__ndk1::basic_string<char, std::__ndk1::char_traits<char>, std::__ndk1::allocator<char> > >, std::__ndk1::monostate>::setListener(geode::EventListenerProtocol*)::{lambda()#1}, std::__ndk1::allocator<geode::Task<geode::Result<std::__ndk1::__fs::filesystem::path, std::__ndk1::basic_string<char, std::__ndk1::char_traits<char>, std::__ndk1::allocator<char> > >, std::__ndk1::monostate>::setListener(geode::EventListenerProtocol*)::{lambda()#1}>, void ()>::operator()()
PUBLIC 37d74 0 std::__ndk1::__function::__func<geode::Task<geode::Result<std::__ndk1::__fs::filesystem::path, std::__ndk1::basic_string<char, std::__ndk1::char_traits<char>, std::__ndk1::allocator<char> > >, std::__ndk1::monostate>::setListener(geode::EventListenerProtocol*)::{lambda()#1}, std::__ndk1::allocator<geode::Task<geode::Result<std::__ndk1::__fs::filesystem::path, std::__ndk1::basic_string<char, std::__ndk1::char_traits<char>, std::__ndk1::allocator<char> > >, std::__ndk1::monostate>::setListener(geode::EventListenerProtocol*)::{lambda()#1}>, void ()>::target(std::type_info const&) const
PUBLIC 37d90 0 std::__ndk1::__function::__func<geode::Task<geode::Result<std::__ndk1::__fs::filesystem::path, std::__ndk1::basic_string<char, std::__ndk1::char_traits<char>, std::__ndk1::allocator<char> > >, std::__ndk1::monostate>::setListener(geode::EventListenerProtocol*)::{lambda()#1}, std::__ndk1::allocator<geode::Task<geode::Result<std::__ndk1::__fs::filesystem::path, std::__ndk1::basic_string<char, std::__ndk1::char_traits<char>, std::__ndk1::allocator<char> > >, std::__ndk1::monostate>::setListener(geode::EventListenerProtocol*)::{lambda()#1}>, void ()>::target_type() const
PUBLIC 37d9c 0 geode::Task<geode::Result<std::__ndk1::__fs::filesystem::path, std::__ndk1::basic_string<char, std::__ndk1::char_traits<char>, std::__ndk1::allocator<char> > >, std::__ndk1::monostate>::Event::~Event()
PUBLIC 37dfc 0 geode::Task<geode::Result<std::__ndk1::__fs::filesystem::path, std::__ndk1::basic_string<char, std::__ndk1::char_traits<char>, std::__ndk1::allocator<char> > >, std::__ndk1::monostate>::Event::~Event()
PUBLIC 37e6c 0 std::__ndk1::__function::__func<geode::Task<geode::Result<std::__ndk1::__fs::filesystem::path, std::__ndk1::basic_string<char, std::__ndk1::char_traits<char>, std::__ndk1::allocator<char> > >, std::__ndk1::monostate>::setListener(geode::EventListenerProtocol*)::{lambda()#2}, std::__ndk1::allocator<geode::Task<geode::Result<std::__ndk1::__fs::filesystem::path, std::__ndk1::basic_string<char, std::__ndk1::char_traits<char>, std::__ndk1::allocator<char> > >, std::__ndk1::monostate>::setListener(geode::EventListenerProtocol*)::{lambda()#2}>, void ()>::~__func()
PUBLIC 37ec8 0 std::__ndk1::__function::__func<geode::Task<geode::Result<std::__ndk1::__fs::filesystem::path, std::__ndk1::basic_string<char, std::__ndk1::char_traits<char>, std::__ndk1::allocator<char> > >, std::__ndk1::monostate>::setListener(geode::EventListenerProtocol*)::{lambda()#2}, std::__ndk1::allocator<geode::Task<geode::Result<std::__ndk1::__fs::filesystem::path, std::__ndk1::basic_string<char, std::__ndk1::char_traits<char>, std::__ndk1::allocator<char> > >, std::__ndk1::monostate>::setListener(geode::EventListenerProtocol*)::{lambda()#2}>, void ()>::~__func()
PUBLIC 37f34 0 std::__ndk1::__function::__func<geode::Task<geode::Result<std::__ndk1::__fs::filesystem::path, std::__ndk1::basic_string<char, std::__ndk1::char_traits<char>, std::__ndk1::allocator<char> > >, std::__ndk1::monostate>::setListener(geode::EventListenerProtocol*)::{lambda()#2}, std::__ndk1::allocator<geode::Task<geode::Result<std::__ndk1::__fs::filesystem::path, std::__ndk1::basic_string<char, std::__ndk1::char_traits<char>, std::__ndk1::allocator<char> > >, std::__ndk1::monostate>::setListener(geode::EventListenerProtocol*)::{lambda()#2}>, void ()>::__clone() const
PUBLIC 37f8c 0 std::__ndk1::__function::__func<geode::Task<geode::Result<std::__ndk1::__fs::filesystem::path, std::__ndk1::basic_string<char, std::__ndk1::char_traits<char>, std::__ndk1::allocator<char> > >, std::__ndk1::monostate>::setListener(geode::EventListenerProtocol*)::{lambda()#2}, std::__ndk1::allocator<geode::Task<geode::Result<std::__ndk1::__fs::filesystem::path, std::__ndk1::basic_string<char, std::__ndk1::char_traits<char>, std::__ndk1::allocator<char> > >, std::__ndk1::monostate>::setListener(geode::EventListenerProtocol*)::{lambda()#2}>, void ()>::__clone(std::__ndk1::__function::__base<void ()>*) const
PUBLIC 37fd8 0 std::__ndk1::__function::__func<geode::Task<geode::Result<std::__ndk1::__fs::filesystem::path, std::__ndk1::basic_string<char, std::__ndk1::char_traits<char>, std::__ndk1::allocator<char> > >, std::__ndk1::monostate>::setListener(geode::EventListenerProtocol*)::{lambda()#2}, std::__ndk1::allocator<geode::Task<geode::Result<std::__ndk1::__fs::filesystem::path, std::__ndk1::basic_string<char, std::__ndk1::char_traits<char>, std::__ndk1::allocator<char> > >, std::__ndk1::monostate>::setListener(geode::EventListenerProtocol*)::{lambda()#2}>, void ()>::destroy()
PUBLIC 38028 0 std::__ndk1::__function::__func<geode::Task<geode::Result<std::__ndk1::__fs::filesystem::path, std::__ndk1::basic_string<char, std::__ndk1::char_traits<char>, std::__ndk1::allocator<char> > >, std::__ndk1::monostate>::setListener(geode::EventListenerProtocol*)::{lambda()#2}, std::__ndk1::allocator<geode::Task<geode::Result<std::__ndk1::__fs::filesystem::path, std::__ndk1::basic_string<char, std::__ndk1::char_traits<char>, std::__ndk1::allocator<char> > >, std::__ndk1::monostate>::setListener(geode::EventListenerProtocol*)::{lambda()#2}>, void ()>::destroy_deallocate()
PUBLIC 38088 0 std::__ndk1::__function::__func<geode::Task<geode::Result<std::__ndk1::__fs::filesystem::path, std::__ndk1::basic_string<char, std::__ndk1::char_traits<char>, std::__ndk1::allocator<char> > >, std::__ndk1::monostate>::setListener(geode::EventListenerProtocol*)::{lambda()#2}, std::__ndk1::allocator<geode::Task<geode::Result<std::__ndk1::__fs::filesystem::path, std::__ndk1::basic_string<char, std::__ndk1::char_traits<char>, std::__ndk1::allocator<char> > >, std::__ndk1::monostate>::setListener(geode::EventListenerProtocol*)::{lambda()#2}>, void ()>::operator()()
PUBLIC 3824c 0 std::__ndk1::__function::__func<geode::Task<geode::Result<std::__ndk1::__fs::filesystem::path, std::__ndk1::basic_string<char, std::__ndk1::char_traits<char>, std::__ndk1::allocator<char> > >, std::__ndk1::monostate>::setListener(geode::EventListenerProtocol*)::{lambda()#2}, std::__ndk1::allocator<geode::Task<geode::Result<std::__ndk1::__fs::filesystem::path, std::__ndk1::basic_string<char, std::__ndk1::char_traits<char>, std::__ndk1::allocator<char> > >, std::__ndk1::monostate>::setListener(geode::EventListenerProtocol*)::{lambda()#2}>, void ()>::target(std::type_info const&) const
PUBLIC 38268 0 std::__ndk1::__function::__func<geode::Task<geode::Result<std::__ndk1::__fs::filesystem::path, std::__ndk1::basic_string<char, std::__ndk1::char_traits<char>, std::__ndk1::allocator<char> > >, std::__ndk1::monostate>::setListener(geode::EventListenerProtocol*)::{lambda()#2}, std::__ndk1::allocator<geode::Task<geode::Result<std::__ndk1::__fs::filesystem::path, std::__ndk1::basic_string<char, std::__ndk1::char_traits<char>, std::__ndk1::allocator<char> > >, std::__ndk1::monostate>::setListener(geode::EventListenerProtocol*)::{lambda()#2}>, void ()>::target_type() const
PUBLIC 38274 0 geode::cast::traverseTypeinfoFor(void*, geode::cast::ClassTypeinfoType const*, char const*)
PUBLIC 38370 0 std::__ndk1::__throw_bad_function_call[abi:ne180000]()
PUBLIC 383a4 0 std::__ndk1::bad_function_call::~bad_function_call()
PUBLIC 383c8 0 std::__ndk1::__function::__base<void (geode::Task<geode::Result<std::__ndk1::__fs::filesystem::path, std::__ndk1::basic_string<char, std::__ndk1::char_traits<char>, std::__ndk1::allocator<char> > >, std::__ndk1::monostate>::Event*)>::~__base()
PUBLIC 383cc 0 std::__ndk1::__function::__func<geode::Task<geode::Result<std::__ndk1::__fs::filesystem::path, std::__ndk1::basic_string<char, std::__ndk1::char_traits<char>, std::__ndk1::allocator<char> > >, std::__ndk1::monostate>::listen<MainPopup::onSelectFile(cocos2d::CCObject*)::$_0, geode::Task<geode::Result<std::__ndk1::__fs::filesystem::path, std::__ndk1::basic_string<char, std::__ndk1::char_traits<char>, std::__ndk1::allocator<char> > >, std::__ndk1::monostate>::listen<MainPopup::onSelectFile(cocos2d::CCObject*)::$_0>(MainPopup::onSelectFile(cocos2d::CCObject*)::$_0&&) const::{lambda(auto:1 const&)#1}, geode::Task<geode::Result<std::__ndk1::__fs::filesystem::path, std::__ndk1::basic_string<char, std::__ndk1::char_traits<char>, std::__ndk1::allocator<char> > >, std::__ndk1::monostate>::listen<MainPopup::onSelectFile(cocos2d::CCObject*)::$_0>(MainPopup::onSelectFile(cocos2d::CCObject*)::$_0&&) const::{lambda()#1}>(MainPopup::onSelectFile(cocos2d::CCObject*)::$_0&&, geode::Task<geode::Result<std::__ndk1::__fs::filesystem::path, std::__ndk1::basic_string<char, std::__ndk1::char_traits<char>, std::__ndk1::allocator<char> > >, std::__ndk1::monostate>::listen<MainPopup::onSelectFile(cocos2d::CCObject*)::$_0>(MainPopup::onSelectFile(cocos2d::CCObject*)::$_0&&) const::{lambda(auto:1 const&)#1}, geode::Task<geode::Result<std::__ndk1::__fs::filesystem::path, std::__ndk1::basic_string<char, std::__ndk1::char_traits<char>, std::__ndk1::allocator<char> > >, std::__ndk1::monostate>::listen<MainPopup::onSelectFile(cocos2d::CCObject*)::$_0>(MainPopup::onSelectFile(cocos2d::CCObject*)::$_0&&) const::{lambda()#1}&&) const::{lambda(geode::Task<geode::Result<std::__ndk1::__fs::filesystem::path, std::__ndk1::basic_string<char, std::__ndk1::char_traits<char>, std::__ndk1::allocator<char> > >, std::__ndk1::monostate>::Event*)#1}, std::__ndk1::allocator<geode::Task<geode::Result<std::__ndk1::__fs::filesystem::path, std::__ndk1::basic_string<char, std::__ndk1::char_traits<char>, std::__ndk1::allocator<char> > >, std::__ndk1::monostate>::listen<MainPopup::onSelectFile(cocos2d::CCObject*)::$_0, geode::Task<geode::Result<std::__ndk1::__fs::filesystem::path, std::__ndk1::basic_string<char, std::__ndk1::char_traits<char>, std::__ndk1::allocator<char> > >, std::__ndk1::monostate>::listen<MainPopup::onSelectFile(cocos2d::CCObject*)::$_0>(MainPopup::onSelectFile(cocos2d::CCObject*)::$_0&&) const::{lambda(auto:1 const&)#1}, geode::Task<geode::Result<std::__ndk1::__fs::filesystem::path, std::__ndk1::basic_string<char, std::__ndk1::char_traits<char>, std::__ndk1::allocator<char> > >, std::__ndk1::monostate>::listen<MainPopup::onSelectFile(cocos2d::CCObject*)::$_0>(MainPopup::onSelectFile(cocos2d::CCObject*)::$_0&&) const::{lambda()#1}>(MainPopup::onSelectFile(cocos2d::CCObject*)::$_0&&, geode::Task<geode::Result<std::__ndk1::__fs::filesystem::path, std::__ndk1::basic_string<char, std::__ndk1::char_traits<char>, std::__ndk1::allocator<char> > >, std::__ndk1::monostate>::listen<MainPopup::onSelectFile(cocos2d::CCObject*)::$_0>(MainPopup::onSelectFile(cocos2d::CCObject*)::$_0&&) const::{lambda(auto:1 const&)#1}, geode::Task<geode::Result<std::__ndk1::__fs::filesystem::path, std::__ndk1::basic_string<char, std::__ndk1::char_traits<char>, std::__ndk1::allocator<char> > >, std::__ndk1::monostate>::listen<MainPopup::onSelectFile(cocos2d::CCObject*)::$_0>(MainPopup::onSelectFile(cocos2d::CCObject*)::$_0&&) const::{lambda()#1}&&) const::{lambda(geode::Task<geode::Result<std::__ndk1::__fs::filesystem::path, std::__ndk1::basic_string<char, std::__ndk1::char_traits<char>, std::__ndk1::allocator<char> > >, std::__ndk1::monostate>::Event*)#1}>, void (geode::Task<geode::Result<std::__ndk1::__fs::filesystem::path, std::__ndk1::basic_string<char, std::__ndk1::char_traits<char>, std::__ndk1::allocator<char> > >, std::__ndk1::monostate>::Event*)>::~__func()
PUBLIC 383d0 0 std::__ndk1::__function::__func<geode::Task<geode::Result<std::__ndk1::__fs::filesystem::path, std::__ndk1::basic_string<char, std::__ndk1::char_traits<char>, std::__ndk1::allocator<char> > >, std::__ndk1::monostate>::listen<MainPopup::onSelectFile(cocos2d::CCObject*)::$_0, geode::Task<geode::Result<std::__ndk1::__fs::filesystem::path, std::__ndk1::basic_string<char, std::__ndk1::char_traits<char>, std::__ndk1::allocator<char> > >, std::__ndk1::monostate>::listen<MainPopup::onSelectFile(cocos2d::CCObject*)::$_0>(MainPopup::onSelectFile(cocos2d::CCObject*)::$_0&&) const::{lambda(auto:1 const&)#1}, geode::Task<geode::Result<std::__ndk1::__fs::filesystem::path, std::__ndk1::basic_string<char, std::__ndk1::char_traits<char>, std::__ndk1::allocator<char> > >, std::__ndk1::monostate>::listen<MainPopup::onSelectFile(cocos2d::CCObject*)::$_0>(MainPopup::onSelectFile(cocos2d::CCObject*)::$_0&&) const::{lambda()#1}>(MainPopup::onSelectFile(cocos2d::CCObject*)::$_0&&, geode::Task<geode::Result<std::__ndk1::__fs::filesystem::path, std::__ndk1::basic_string<char, std::__ndk1::char_traits<char>, std::__ndk1::allocator<char> > >, std::__ndk1::monostate>::listen<MainPopup::onSelectFile(cocos2d::CCObject*)::$_0>(MainPopup::onSelectFile(cocos2d::CCObject*)::$_0&&) const::{lambda(auto:1 const&)#1}, geode::Task<geode::Result<std::__ndk1::__fs::filesystem::path, std::__ndk1::basic_string<char, std::__ndk1::char_traits<char>, std::__ndk1::allocator<char> > >, std::__ndk1::monostate>::listen<MainPopup::onSelectFile(cocos2d::CCObject*)::$_0>(MainPopup::onSelectFile(cocos2d::CCObject*)::$_0&&) const::{lambda()#1}&&) const::{lambda(geode::Task<geode::Result<std::__ndk1::__fs::filesystem::path, std::__ndk1::basic_string<char, std::__ndk1::char_traits<char>, std::__ndk1::allocator<char> > >, std::__ndk1::monostate>::Event*)#1}, std::__ndk1::allocator<geode::Task<geode::Result<std::__ndk1::__fs::filesystem::path, std::__ndk1::basic_string<char, std::__ndk1::char_traits<char>, std::__ndk1::allocator<char> > >, std::__ndk1::monostate>::listen<MainPopup::onSelectFile(cocos2d::CCObject*)::$_0, geode::Task<geode::Result<std::__ndk1::__fs::filesystem::path, std::__ndk1::basic_string<char, std::__ndk1::char_traits<char>, std::__ndk1::allocator<char> > >, std::__ndk1::monostate>::listen<MainPopup::onSelectFile(cocos2d::CCObject*)::$_0>(MainPopup::onSelectFile(cocos2d::CCObject*)::$_0&&) const::{lambda(auto:1 const&)#1}, geode::Task<geode::Result<std::__ndk1::__fs::filesystem::path, std::__ndk1::basic_string<char, std::__ndk1::char_traits<char>, std::__ndk1::allocator<char> > >, std::__ndk1::monostate>::listen<MainPopup::onSelectFile(cocos2d::CCObject*)::$_0>(MainPopup::onSelectFile(cocos2d::CCObject*)::$_0&&) const::{lambda()#1}>(MainPopup::onSelectFile(cocos2d::CCObject*)::$_0&&, geode::Task<geode::Result<std::__ndk1::__fs::filesystem::path, std::__ndk1::basic_string<char, std::__ndk1::char_traits<char>, std::__ndk1::allocator<char> > >, std::__ndk1::monostate>::listen<MainPopup::onSelectFile(cocos2d::CCObject*)::$_0>(MainPopup::onSelectFile(cocos2d::CCObject*)::$_0&&) const::{lambda(auto:1 const&)#1}, geode::Task<geode::Result<std::__ndk1::__fs::filesystem::path, std::__ndk1::basic_string<char, std::__ndk1::char_traits<char>, std::__ndk1::allocator<char> > >, std::__ndk1::monostate>::listen<MainPopup::onSelectFile(cocos2d::CCObject*)::$_0>(MainPopup::onSelectFile(cocos2d::CCObject*)::$_0&&) const::{lambda()#1}&&) const::{lambda(geode::Task<geode::Result<std::__ndk1::__fs::filesystem::path, std::__ndk1::basic_string<char, std::__ndk1::char_traits<char>, std::__ndk1::allocator<char> > >, std::__ndk1::monostate>::Event*)#1}>, void (geode::Task<geode::Result<std::__ndk1::__fs::filesystem::path, std::__ndk1::basic_string<char, std::__ndk1::char_traits<char>, std::__ndk1::allocator<char> > >, std::__ndk1::monostate>::Event*)>::__clone() const
PUBLIC 38410 0 _ZNKSt6__ndk110__function6__funcIZNK5geode4TaskINS2_6ResultINS_4__fs10filesystem4pathENS_12basic_stringIcNS_11char_traitsIcEENS_9allocatorIcEEEEEENS_9monostateEE6listenIZN9MainPopup12onSelectFileEPN7cocos2d8CCObjectEE3$_0ZNKSG_6listenISM_EEvOT_EUlRKSO_E_ZNKSN_ISM_EEvSP_EUlvE_EEvSP_OT0_OT1_EUlPNSG_5EventEE_NSB_IS10_EEFvSZ_EE7__cloneEPNS0_6__baseIS12_EE
PUBLIC 38430 0 std::__ndk1::__function::__func<geode::Task<geode::Result<std::__ndk1::__fs::filesystem::path, std::__ndk1::basic_string<char, std::__ndk1::char_traits<char>, std::__ndk1::allocator<char> > >, std::__ndk1::monostate>::listen<MainPopup::onSelectFile(cocos2d::CCObject*)::$_0, geode::Task<geode::Result<std::__ndk1::__fs::filesystem::path, std::__ndk1::basic_string<char, std::__ndk1::char_traits<char>, std::__ndk1::allocator<char> > >, std::__ndk1::monostate>::listen<MainPopup::onSelectFile(cocos2d::CCObject*)::$_0>(MainPopup::onSelectFile(cocos2d::CCObject*)::$_0&&) const::{lambda(auto:1 const&)#1}, geode::Task<geode::Result<std::__ndk1::__fs::filesystem::path, std::__ndk1::basic_string<char, std::__ndk1::char_traits<char>, std::__ndk1::allocator<char> > >, std::__ndk1::monostate>::listen<MainPopup::onSelectFile(cocos2d::CCObject*)::$_0>(MainPopup::onSelectFile(cocos2d::CCObject*)::$_0&&) const::{lambda()#1}>(MainPopup::onSelectFile(cocos2d::CCObject*)::$_0&&, geode::Task<geode::Result<std::__ndk1::__fs::filesystem::path, std::__ndk1::basic_string<char, std::__ndk1::char_traits<char>, std::__ndk1::allocator<char> > >, std::__ndk1::monostate>::listen<MainPopup::onSelectFile(cocos2d::CCObject*)::$_0>(MainPopup::onSelectFile(cocos2d::CCObject*)::$_0&&) const::{lambda(auto:1 const&)#1}, geode::Task<geode::Result<std::__ndk1::__fs::filesystem::path, std::__ndk1::basic_string<char, std::__ndk1::char_traits<char>, std::__ndk1::allocator<char> > >, std::__ndk1::monostate>::listen<MainPopup::onSelectFile(cocos2d::CCObject*)::$_0>(MainPopup::onSelectFile(cocos2d::CCObject*)::$_0&&) const::{lambda()#1}&&) const::{lambda(geode::Task<geode::Result<std::__ndk1::__fs::filesystem::path, std::__ndk1::basic_string<char, std::__ndk1::char_traits<char>, std::__ndk1::allocator<char> > >, std::__ndk1::monostate>::Event*)#1}, std::__ndk1::allocator<geode::Task<geode::Result<std::__ndk1::__fs::filesystem::path, std::__ndk1::basic_string<char, std::__ndk1::char_traits<char>, std::__ndk1::allocator<char> > >, std::__ndk1::monostate>::listen<MainPopup::onSelectFile(cocos2d::CCObject*)::$_0, geode::Task<geode::Result<std::__ndk1::__fs::filesystem::path, std::__ndk1::basic_string<char, std::__ndk1::char_traits<char>, std::__ndk1::allocator<char> > >, std::__ndk1::monostate>::listen<MainPopup::onSelectFile(cocos2d::CCObject*)::$_0>(MainPopup::onSelectFile(cocos2d::CCObject*)::$_0&&) const::{lambda(auto:1 const&)#1}, geode::Task<geode::Result<std::__ndk1::__fs::filesystem::path, std::__ndk1::basic_string<char, std::__ndk1::char_traits<char>, std::__ndk1::allocator<char> > >, std::__ndk1::monostate>::listen<MainPopup::onSelectFile(cocos2d::CCObject*)::$_0>(MainPopup::onSelectFile(cocos2d::CCObject*)::$_0&&) const::{lambda()#1}>(MainPopup::onSelectFile(cocos2d::CCObject*)::$_0&&, geode::Task<geode::Result<std::__ndk1::__fs::filesystem::path, std::__ndk1::basic_string<char, std::__ndk1::char_traits<char>, std::__ndk1::allocator<char> > >, std::__ndk1::monostate>::listen<MainPopup::onSelectFile(cocos2d::CCObject*)::$_0>(MainPopup::onSelectFile(cocos2d::CCObject*)::$_0&&) const::{lambda(auto:1 const&)#1}, geode::Task<geode::Result<std::__ndk1::__fs::filesystem::path, std::__ndk1::basic_string<char, std::__ndk1::char_traits<char>, std::__ndk1::allocator<char> > >, std::__ndk1::monostate>::listen<MainPopup::onSelectFile(cocos2d::CCObject*)::$_0>(MainPopup::onSelectFile(cocos2d::CCObject*)::$_0&&) const::{lambda()#1}&&) const::{lambda(geode::Task<geode::Result<std::__ndk1::__fs::filesystem::path, std::__ndk1::basic_string<char, std::__ndk1::char_traits<char>, std::__ndk1::allocator<char> > >, std::__ndk1::monostate>::Event*)#1}>, void (geode::Task<geode::Result<std::__ndk1::__fs::filesystem::path, std::__ndk1::basic_string<char, std::__ndk1::char_traits<char>, std::__ndk1::allocator<char> > >, std::__ndk1::monostate>::Event*)>::destroy()
PUBLIC 38434 0 std::__ndk1::__function::__func<geode::Task<geode::Result<std::__ndk1::__fs::filesystem::path, std::__ndk1::basic_string<char, std::__ndk1::char_traits<char>, std::__ndk1::allocator<char> > >, std::__ndk1::monostate>::listen<MainPopup::onSelectFile(cocos2d::CCObject*)::$_0, geode::Task<geode::Result<std::__ndk1::__fs::filesystem::path, std::__ndk1::basic_string<char, std::__ndk1::char_traits<char>, std::__ndk1::allocator<char> > >, std::__ndk1::monostate>::listen<MainPopup::onSelectFile(cocos2d::CCObject*)::$_0>(MainPopup::onSelectFile(cocos2d::CCObject*)::$_0&&) const::{lambda(auto:1 const&)#1}, geode::Task<geode::Result<std::__ndk1::__fs::filesystem::path, std::__ndk1::basic_string<char, std::__ndk1::char_traits<char>, std::__ndk1::allocator<char> > >, std::__ndk1::monostate>::listen<MainPopup::onSelectFile(cocos2d::CCObject*)::$_0>(MainPopup::onSelectFile(cocos2d::CCObject*)::$_0&&) const::{lambda()#1}>(MainPopup::onSelectFile(cocos2d::CCObject*)::$_0&&, geode::Task<geode::Result<std::__ndk1::__fs::filesystem::path, std::__ndk1::basic_string<char, std::__ndk1::char_traits<char>, std::__ndk1::allocator<char> > >, std::__ndk1::monostate>::listen<MainPopup::onSelectFile(cocos2d::CCObject*)::$_0>(MainPopup::onSelectFile(cocos2d::CCObject*)::$_0&&) const::{lambda(auto:1 const&)#1}, geode::Task<geode::Result<std::__ndk1::__fs::filesystem::path, std::__ndk1::basic_string<char, std::__ndk1::char_traits<char>, std::__ndk1::allocator<char> > >, std::__ndk1::monostate>::listen<MainPopup::onSelectFile(cocos2d::CCObject*)::$_0>(MainPopup::onSelectFile(cocos2d::CCObject*)::$_0&&) const::{lambda()#1}&&) const::{lambda(geode::Task<geode::Result<std::__ndk1::__fs::filesystem::path, std::__ndk1::basic_string<char, std::__ndk1::char_traits<char>, std::__ndk1::allocator<char> > >, std::__ndk1::monostate>::Event*)#1}, std::__ndk1::allocator<geode::Task<geode::Result<std::__ndk1::__fs::filesystem::path, std::__ndk1::basic_string<char, std::__ndk1::char_traits<char>, std::__ndk1::allocator<char> > >, std::__ndk1::monostate>::listen<MainPopup::onSelectFile(cocos2d::CCObject*)::$_0, geode::Task<geode::Result<std::__ndk1::__fs::filesystem::path, std::__ndk1::basic_string<char, std::__ndk1::char_traits<char>, std::__ndk1::allocator<char> > >, std::__ndk1::monostate>::listen<MainPopup::onSelectFile(cocos2d::CCObject*)::$_0>(MainPopup::onSelectFile(cocos2d::CCObject*)::$_0&&) const::{lambda(auto:1 const&)#1}, geode::Task<geode::Result<std::__ndk1::__fs::filesystem::path, std::__ndk1::basic_string<char, std::__ndk1::char_traits<char>, std::__ndk1::allocator<char> > >, std::__ndk1::monostate>::listen<MainPopup::onSelectFile(cocos2d::CCObject*)::$_0>(MainPopup::onSelectFile(cocos2d::CCObject*)::$_0&&) const::{lambda()#1}>(MainPopup::onSelectFile(cocos2d::CCObject*)::$_0&&, geode::Task<geode::Result<std::__ndk1::__fs::filesystem::path, std::__ndk1::basic_string<char, std::__ndk1::char_traits<char>, std::__ndk1::allocator<char> > >, std::__ndk1::monostate>::listen<MainPopup::onSelectFile(cocos2d::CCObject*)::$_0>(MainPopup::onSelectFile(cocos2d::CCObject*)::$_0&&) const::{lambda(auto:1 const&)#1}, geode::Task<geode::Result<std::__ndk1::__fs::filesystem::path, std::__ndk1::basic_string<char, std::__ndk1::char_traits<char>, std::__ndk1::allocator<char> > >, std::__ndk1::monostate>::listen<MainPopup::onSelectFile(cocos2d::CCObject*)::$_0>(MainPopup::onSelectFile(cocos2d::CCObject*)::$_0&&) const::{lambda()#1}&&) const::{lambda(geode::Task<geode::Result<std::__ndk1::__fs::filesystem::path, std::__ndk1::basic_string<char, std::__ndk1::char_traits<char>, std::__ndk1::allocator<char> > >, std::__ndk1::monostate>::Event*)#1}>, void (geode::Task<geode::Result<std::__ndk1::__fs::filesystem::path, std::__ndk1::basic_string<char, std::__ndk1::char_traits<char>, std::__ndk1::allocator<char> > >, std::__ndk1::monostate>::Event*)>::destroy_deallocate()
PUBLIC 38438 0 std::__ndk1::__function::__func<geode::Task<geode::Result<std::__ndk1::__fs::filesystem::path, std::__ndk1::basic_string<char, std::__ndk1::char_traits<char>, std::__ndk1::allocator<char> > >, std::__ndk1::monostate>::listen<MainPopup::onSelectFile(cocos2d::CCObject*)::$_0, geode::Task<geode::Result<std::__ndk1::__fs::filesystem::path, std::__ndk1::basic_string<char, std::__ndk1::char_traits<char>, std::__ndk1::allocator<char> > >, std::__ndk1::monostate>::listen<MainPopup::onSelectFile(cocos2d::CCObject*)::$_0>(MainPopup::onSelectFile(cocos2d::CCObject*)::$_0&&) const::{lambda(auto:1 const&)#1}, geode::Task<geode::Result<std::__ndk1::__fs::filesystem::path, std::__ndk1::basic_string<char, std::__ndk1::char_traits<char>, std::__ndk1::allocator<char> > >, std::__ndk1::monostate>::listen<MainPopup::onSelectFile(cocos2d::CCObject*)::$_0>(MainPopup::onSelectFile(cocos2d::CCObject*)::$_0&&) const::{lambda()#1}>(MainPopup::onSelectFile(cocos2d::CCObject*)::$_0&&, geode::Task<geode::Result<std::__ndk1::__fs::filesystem::path, std::__ndk1::basic_string<char, std::__ndk1::char_traits<char>, std::__ndk1::allocator<char> > >, std::__ndk1::monostate>::listen<MainPopup::onSelectFile(cocos2d::CCObject*)::$_0>(MainPopup::onSelectFile(cocos2d::CCObject*)::$_0&&) const::{lambda(auto:1 const&)#1}, geode::Task<geode::Result<std::__ndk1::__fs::filesystem::path, std::__ndk1::basic_string<char, std::__ndk1::char_traits<char>, std::__ndk1::allocator<char> > >, std::__ndk1::monostate>::listen<MainPopup::onSelectFile(cocos2d::CCObject*)::$_0>(MainPopup::onSelectFile(cocos2d::CCObject*)::$_0&&) const::{lambda()#1}&&) const::{lambda(geode::Task<geode::Result<std::__ndk1::__fs::filesystem::path, std::__ndk1::basic_string<char, std::__ndk1::char_traits<char>, std::__ndk1::allocator<char> > >, std::__ndk1::monostate>::Event*)#1}, std::__ndk1::allocator<geode::Task<geode::Result<std::__ndk1::__fs::filesystem::path, std::__ndk1::basic_string<char, std::__ndk1::char_traits<char>, std::__ndk1::allocator<char> > >, std::__ndk1::monostate>::listen<MainPopup::onSelectFile(cocos2d::CCObject*)::$_0, geode::Task<geode::Result<std::__ndk1::__fs::filesystem::path, std::__ndk1::basic_string<char, std::__ndk1::char_traits<char>, std::__ndk1::allocator<char> > >, std::__ndk1::monostate>::listen<MainPopup::onSelectFile(cocos2d::CCObject*)::$_0>(MainPopup::onSelectFile(cocos2d::CCObject*)::$_0&&) const::{lambda(auto:1 const&)#1}, geode::Task<geode::Result<std::__ndk1::__fs::filesystem::path, std::__ndk1::basic_string<char, std::__ndk1::char_traits<char>, std::__ndk1::allocator<char> > >, std::__ndk1::monostate>::listen<MainPopup::onSelectFile(cocos2d::CCObject*)::$_0>(MainPopup::onSelectFile(cocos2d::CCObject*)::$_0&&) const::{lambda()#1}>(MainPopup::onSelectFile(cocos2d::CCObject*)::$_0&&, geode::Task<geode::Result<std::__ndk1::__fs::filesystem::path, std::__ndk1::basic_string<char, std::__ndk1::char_traits<char>, std::__ndk1::allocator<char> > >, std::__ndk1::monostate>::listen<MainPopup::onSelectFile(cocos2d::CCObject*)::$_0>(MainPopup::onSelectFile(cocos2d::CCObject*)::$_0&&) const::{lambda(auto:1 const&)#1}, geode::Task<geode::Result<std::__ndk1::__fs::filesystem::path, std::__ndk1::basic_string<char, std::__ndk1::char_traits<char>, std::__ndk1::allocator<char> > >, std::__ndk1::monostate>::listen<MainPopup::onSelectFile(cocos2d::CCObject*)::$_0>(MainPopup::onSelectFile(cocos2d::CCObject*)::$_0&&) const::{lambda()#1}&&) const::{lambda(geode::Task<geode::Result<std::__ndk1::__fs::filesystem::path, std::__ndk1::basic_string<char, std::__ndk1::char_traits<char>, std::__ndk1::allocator<char> > >, std::__ndk1::monostate>::Event*)#1}>, void (geode::Task<geode::Result<std::__ndk1::__fs::filesystem::path, std::__ndk1::basic_string<char, std::__ndk1::char_traits<char>, std::__ndk1::allocator<char> > >, std::__ndk1::monostate>::Event*)>::operator()(geode::Task<geode::Result<std::__ndk1::__fs::filesystem::path, std::__ndk1::basic_string<char, std::__ndk1::char_traits<char>, std::__ndk1::allocator<char> > >, std::__ndk1::monostate>::Event*&&)
PUBLIC 3923c 0 std::__ndk1::__function::__func<geode::Task<geode::Result<std::__ndk1::__fs::filesystem::path, std::__ndk1::basic_string<char, std::__ndk1::char_traits<char>, std::__ndk1::allocator<char> > >, std::__ndk1::monostate>::listen<MainPopup::onSelectFile(cocos2d::CCObject*)::$_0, geode::Task<geode::Result<std::__ndk1::__fs::filesystem::path, std::__ndk1::basic_string<char, std::__ndk1::char_traits<char>, std::__ndk1::allocator<char> > >, std::__ndk1::monostate>::listen<MainPopup::onSelectFile(cocos2d::CCObject*)::$_0>(MainPopup::onSelectFile(cocos2d::CCObject*)::$_0&&) const::{lambda(auto:1 const&)#1}, geode::Task<geode::Result<std::__ndk1::__fs::filesystem::path, std::__ndk1::basic_string<char, std::__ndk1::char_traits<char>, std::__ndk1::allocator<char> > >, std::__ndk1::monostate>::listen<MainPopup::onSelectFile(cocos2d::CCObject*)::$_0>(MainPopup::onSelectFile(cocos2d::CCObject*)::$_0&&) const::{lambda()#1}>(MainPopup::onSelectFile(cocos2d::CCObject*)::$_0&&, geode::Task<geode::Result<std::__ndk1::__fs::filesystem::path, std::__ndk1::basic_string<char, std::__ndk1::char_traits<char>, std::__ndk1::allocator<char> > >, std::__ndk1::monostate>::listen<MainPopup::onSelectFile(cocos2d::CCObject*)::$_0>(MainPopup::onSelectFile(cocos2d::CCObject*)::$_0&&) const::{lambda(auto:1 const&)#1}, geode::Task<geode::Result<std::__ndk1::__fs::filesystem::path, std::__ndk1::basic_string<char, std::__ndk1::char_traits<char>, std::__ndk1::allocator<char> > >, std::__ndk1::monostate>::listen<MainPopup::onSelectFile(cocos2d::CCObject*)::$_0>(MainPopup::onSelectFile(cocos2d::CCObject*)::$_0&&) const::{lambda()#1}&&) const::{lambda(geode::Task<geode::Result<std::__ndk1::__fs::filesystem::path, std::__ndk1::basic_string<char, std::__ndk1::char_traits<char>, std::__ndk1::allocator<char> > >, std::__ndk1::monostate>::Event*)#1}, std::__ndk1::allocator<geode::Task<geode::Result<std::__ndk1::__fs::filesystem::path, std::__ndk1::basic_string<char, std::__ndk1::char_traits<char>, std::__ndk1::allocator<char> > >, std::__ndk1::monostate>::listen<MainPopup::onSelectFile(cocos2d::CCObject*)::$_0, geode::Task<geode::Result<std::__ndk1::__fs::filesystem::path, std::__ndk1::basic_string<char, std::__ndk1::char_traits<char>, std::__ndk1::allocator<char> > >, std::__ndk1::monostate>::listen<MainPopup::onSelectFile(cocos2d::CCObject*)::$_0>(MainPopup::onSelectFile(cocos2d::CCObject*)::$_0&&) const::{lambda(auto:1 const&)#1}, geode::Task<geode::Result<std::__ndk1::__fs::filesystem::path, std::__ndk1::basic_string<char, std::__ndk1::char_traits<char>, std::__ndk1::allocator<char> > >, std::__ndk1::monostate>::listen<MainPopup::onSelectFile(cocos2d::CCObject*)::$_0>(MainPopup::onSelectFile(cocos2d::CCObject*)::$_0&&) const::{lambda()#1}>(MainPopup::onSelectFile(cocos2d::CCObject*)::$_0&&, geode::Task<geode::Result<std::__ndk1::__fs::filesystem::path, std::__ndk1::basic_string<char, std::__ndk1::char_traits<char>, std::__ndk1::allocator<char> > >, std::__ndk1::monostate>::listen<MainPopup::onSelectFile(cocos2d::CCObject*)::$_0>(MainPopup::onSelectFile(cocos2d::CCObject*)::$_0&&) const::{lambda(auto:1 const&)#1}, geode::Task<geode::Result<std::__ndk1::__fs::filesystem::path, std::__ndk1::basic_string<char, std::__ndk1::char_traits<char>, std::__ndk1::allocator<char> > >, std::__ndk1::monostate>::listen<MainPopup::onSelectFile(cocos2d::CCObject*)::$_0>(MainPopup::onSelectFile(cocos2d::CCObject*)::$_0&&) const::{lambda()#1}&&) const::{lambda(geode::Task<geode::Result<std::__ndk1::__fs::filesystem::path, std::__ndk1::basic_string<char, std::__ndk1::char_traits<char>, std::__ndk1::allocator<char> > >, std::__ndk1::monostate>::Event*)#1}>, void (geode::Task<geode::Result<std::__ndk1::__fs::filesystem::path, std::__ndk1::basic_string<char, std::__ndk1::char_traits<char>, std::__ndk1::allocator<char> > >, std::__ndk1::monostate>::Event*)>::target(std::type_info const&) const
PUBLIC 39258 0 std::__ndk1::__function::__func<geode::Task<geode::Result<std::__ndk1::__fs::filesystem::path, std::__ndk1::basic_string<char, std::__ndk1::char_traits<char>, std::__ndk1::allocator<char> > >, std::__ndk1::monostate>::listen<MainPopup::onSelectFile(cocos2d::CCObject*)::$_0, geode::Task<geode::Result<std::__ndk1::__fs::filesystem::path, std::__ndk1::basic_string<char, std::__ndk1::char_traits<char>, std::__ndk1::allocator<char> > >, std::__ndk1::monostate>::listen<MainPopup::onSelectFile(cocos2d::CCObject*)::$_0>(MainPopup::onSelectFile(cocos2d::CCObject*)::$_0&&) const::{lambda(auto:1 const&)#1}, geode::Task<geode::Result<std::__ndk1::__fs::filesystem::path, std::__ndk1::basic_string<char, std::__ndk1::char_traits<char>, std::__ndk1::allocator<char> > >, std::__ndk1::monostate>::listen<MainPopup::onSelectFile(cocos2d::CCObject*)::$_0>(MainPopup::onSelectFile(cocos2d::CCObject*)::$_0&&) const::{lambda()#1}>(MainPopup::onSelectFile(cocos2d::CCObject*)::$_0&&, geode::Task<geode::Result<std::__ndk1::__fs::filesystem::path, std::__ndk1::basic_string<char, std::__ndk1::char_traits<char>, std::__ndk1::allocator<char> > >, std::__ndk1::monostate>::listen<MainPopup::onSelectFile(cocos2d::CCObject*)::$_0>(MainPopup::onSelectFile(cocos2d::CCObject*)::$_0&&) const::{lambda(auto:1 const&)#1}, geode::Task<geode::Result<std::__ndk1::__fs::filesystem::path, std::__ndk1::basic_string<char, std::__ndk1::char_traits<char>, std::__ndk1::allocator<char> > >, std::__ndk1::monostate>::listen<MainPopup::onSelectFile(cocos2d::CCObject*)::$_0>(MainPopup::onSelectFile(cocos2d::CCObject*)::$_0&&) const::{lambda()#1}&&) const::{lambda(geode::Task<geode::Result<std::__ndk1::__fs::filesystem::path, std::__ndk1::basic_string<char, std::__ndk1::char_traits<char>, std::__ndk1::allocator<char> > >, std::__ndk1::monostate>::Event*)#1}, std::__ndk1::allocator<geode::Task<geode::Result<std::__ndk1::__fs::filesystem::path, std::__ndk1::basic_string<char, std::__ndk1::char_traits<char>, std::__ndk1::allocator<char> > >, std::__ndk1::monostate>::listen<MainPopup::onSelectFile(cocos2d::CCObject*)::$_0, geode::Task<geode::Result<std::__ndk1::__fs::filesystem::path, std::__ndk1::basic_string<char, std::__ndk1::char_traits<char>, std::__ndk1::allocator<char> > >, std::__ndk1::monostate>::listen<MainPopup::onSelectFile(cocos2d::CCObject*)::$_0>(MainPopup::onSelectFile(cocos2d::CCObject*)::$_0&&) const::{lambda(auto:1 const&)#1}, geode::Task<geode::Result<std::__ndk1::__fs::filesystem::path, std::__ndk1::basic_string<char, std::__ndk1::char_traits<char>, std::__ndk1::allocator<char> > >, std::__ndk1::monostate>::listen<MainPopup::onSelectFile(cocos2d::CCObject*)::$_0>(MainPopup::onSelectFile(cocos2d::CCObject*)::$_0&&) const::{lambda()#1}>(MainPopup::onSelectFile(cocos2d::CCObject*)::$_0&&, geode::Task<geode::Result<std::__ndk1::__fs::filesystem::path, std::__ndk1::basic_string<char, std::__ndk1::char_traits<char>, std::__ndk1::allocator<char> > >, std::__ndk1::monostate>::listen<MainPopup::onSelectFile(cocos2d::CCObject*)::$_0>(MainPopup::onSelectFile(cocos2d::CCObject*)::$_0&&) const::{lambda(auto:1 const&)#1}, geode::Task<geode::Result<std::__ndk1::__fs::filesystem::path, std::__ndk1::basic_string<char, std::__ndk1::char_traits<char>, std::__ndk1::allocator<char> > >, std::__ndk1::monostate>::listen<MainPopup::onSelectFile(cocos2d::CCObject*)::$_0>(MainPopup::onSelectFile(cocos2d::CCObject*)::$_0&&) const::{lambda()#1}&&) const::{lambda(geode::Task<geode::Result<std::__ndk1::__fs::filesystem::path, std::__ndk1::basic_string<char, std::__ndk1::char_traits<char>, std::__ndk1::allocator<char> > >, std::__ndk1::monostate>::Event*)#1}>, void (geode::Task<geode::Result<std::__ndk1::__fs::filesystem::path, std::__ndk1::basic_string<char, std::__ndk1::char_traits<char>, std::__ndk1::allocator<char> > >, std::__ndk1::monostate>::Event*)>::target_type() const
PUBLIC 39264 0 std::__ndk1::__function::__base<void ()>::~__base()
PUBLIC 39268 0 _ZNSt6__ndk110__function6__funcIZZNK5geode4TaskINS2_6ResultINS_4__fs10filesystem4pathENS_12basic_stringIcNS_11char_traitsIcEENS_9allocatorIcEEEEEENS_9monostateEE6listenIZN9MainPopup12onSelectFileEPN7cocos2d8CCObjectEE3$_0ZNKSG_6listenISM_EEvOT_EUlRKSO_E_ZNKSN_ISM_EEvSP_EUlvE_EEvSP_OT0_OT1_ENUlPNSG_5EventEE_clESZ_EUlvE_NSB_IS11_EEFvvEED0Ev
PUBLIC 3926c 0 _ZNKSt6__ndk110__function6__funcIZZNK5geode4TaskINS2_6ResultINS_4__fs10filesystem4pathENS_12basic_stringIcNS_11char_traitsIcEENS_9allocatorIcEEEEEENS_9monostateEE6listenIZN9MainPopup12onSelectFileEPN7cocos2d8CCObjectEE3$_0ZNKSG_6listenISM_EEvOT_EUlRKSO_E_ZNKSN_ISM_EEvSP_EUlvE_EEvSP_OT0_OT1_ENUlPNSG_5EventEE_clESZ_EUlvE_NSB_IS11_EEFvvEE7__cloneEv
PUBLIC 392a0 0 _ZNKSt6__ndk110__function6__funcIZZNK5geode4TaskINS2_6ResultINS_4__fs10filesystem4pathENS_12basic_stringIcNS_11char_traitsIcEENS_9allocatorIcEEEEEENS_9monostateEE6listenIZN9MainPopup12onSelectFileEPN7cocos2d8CCObjectEE3$_0ZNKSG_6listenISM_EEvOT_EUlRKSO_E_ZNKSN_ISM_EEvSP_EUlvE_EEvSP_OT0_OT1_ENUlPNSG_5EventEE_clESZ_EUlvE_NSB_IS11_EEFvvEE7__cloneEPNS0_6__baseIS13_EE
PUBLIC 392b4 0 _ZNSt6__ndk110__function6__funcIZZNK5geode4TaskINS2_6ResultINS_4__fs10filesystem4pathENS_12basic_stringIcNS_11char_traitsIcEENS_9allocatorIcEEEEEENS_9monostateEE6listenIZN9MainPopup12onSelectFileEPN7cocos2d8CCObjectEE3$_0ZNKSG_6listenISM_EEvOT_EUlRKSO_E_ZNKSN_ISM_EEvSP_EUlvE_EEvSP_OT0_OT1_ENUlPNSG_5EventEE_clESZ_EUlvE_NSB_IS11_EEFvvEE7destroyEv
PUBLIC 392b8 0 _ZNSt6__ndk110__function6__funcIZZNK5geode4TaskINS2_6ResultINS_4__fs10filesystem4pathENS_12basic_stringIcNS_11char_traitsIcEENS_9allocatorIcEEEEEENS_9monostateEE6listenIZN9MainPopup12onSelectFileEPN7cocos2d8CCObjectEE3$_0ZNKSG_6listenISM_EEvOT_EUlRKSO_E_ZNKSN_ISM_EEvSP_EUlvE_EEvSP_OT0_OT1_ENUlPNSG_5EventEE_clESZ_EUlvE_NSB_IS11_EEFvvEE18destroy_deallocateEv
PUBLIC 392bc 0 _ZNSt6__ndk110__function6__funcIZZNK5geode4TaskINS2_6ResultINS_4__fs10filesystem4pathENS_12basic_stringIcNS_11char_traitsIcEENS_9allocatorIcEEEEEENS_9monostateEE6listenIZN9MainPopup12onSelectFileEPN7cocos2d8CCObjectEE3$_0ZNKSG_6listenISM_EEvOT_EUlRKSO_E_ZNKSN_ISM_EEvSP_EUlvE_EEvSP_OT0_OT1_ENUlPNSG_5EventEE_clESZ_EUlvE_NSB_IS11_EEFvvEEclEv
PUBLIC 392d4 0 _ZNKSt6__ndk110__function6__funcIZZNK5geode4TaskINS2_6ResultINS_4__fs10filesystem4pathENS_12basic_stringIcNS_11char_traitsIcEENS_9allocatorIcEEEEEENS_9monostateEE6listenIZN9MainPopup12onSelectFileEPN7cocos2d8CCObjectEE3$_0ZNKSG_6listenISM_EEvOT_EUlRKSO_E_ZNKSN_ISM_EEvSP_EUlvE_EEvSP_OT0_OT1_ENUlPNSG_5EventEE_clESZ_EUlvE_NSB_IS11_EEFvvEE6targetERKSt9type_info
PUBLIC 392f0 0 _ZNKSt6__ndk110__function6__funcIZZNK5geode4TaskINS2_6ResultINS_4__fs10filesystem4pathENS_12basic_stringIcNS_11char_traitsIcEENS_9allocatorIcEEEEEENS_9monostateEE6listenIZN9MainPopup12onSelectFileEPN7cocos2d8CCObjectEE3$_0ZNKSG_6listenISM_EEvOT_EUlRKSO_E_ZNKSN_ISM_EEvSP_EUlvE_EEvSP_OT0_OT1_ENUlPNSG_5EventEE_clESZ_EUlvE_NSB_IS11_EEFvvEE11target_typeEv
PUBLIC 392fc 0 geode::Popup<std::__ndk1::basic_string<char, std::__ndk1::char_traits<char>, std::__ndk1::allocator<char> > const&>::initBase(float, float, std::__ndk1::basic_string<char, std::__ndk1::char_traits<char>, std::__ndk1::allocator<char> > const&, char const*, cocos2d::CCRect, bool)
PUBLIC 39610 0 _GLOBAL__sub_I_MainPopup.cpp
PUBLIC 39634 0 std::__ndk1::vector<CCMenuItemToggler*, std::__ndk1::allocator<CCMenuItemToggler*> >::~vector[abi:ne180000]()
PUBLIC 3964c 0 std::__ndk1::vector<CCMenuItemSpriteExtra*, std::__ndk1::allocator<CCMenuItemSpriteExtra*> >::~vector[abi:ne180000]()
PUBLIC 39664 0 SettingsPopup::setup(std::__ndk1::basic_string<char, std::__ndk1::char_traits<char>, std::__ndk1::allocator<char> > const&)
PUBLIC 3a420 0 SettingsPopup::onToggle(cocos2d::CCObject*)
PUBLIC 3a47c 0 SettingsPopup::onPlace(cocos2d::CCObject*)
PUBLIC 3a928 0 SettingsPopup::onInfo(cocos2d::CCObject*)
PUBLIC 3aa04 0 SettingsPopup::onHideAll(cocos2d::CCObject*)
PUBLIC 3aac4 0 SettingsPopup::onShowAll(cocos2d::CCObject*)
PUBLIC 3ab8c 0 SettingsPopup::onClose(cocos2d::CCObject*)
PUBLIC 3ac0c 0 SettingsPopup::create()
PUBLIC 3ada8 0 SettingsPopup::~SettingsPopup()
PUBLIC 3ae1c 0 {virtual override thunk({offset(-320)}, SettingsPopup::~SettingsPopup())}
PUBLIC 3ae88 0 {virtual override thunk({offset(-320)}, SettingsPopup::~SettingsPopup())}
PUBLIC 3aefc 0 std::__ndk1::vector<CCMenuItemToggler*, std::__ndk1::allocator<CCMenuItemToggler*> >::__throw_length_error[abi:ne180000]() const
PUBLIC 3af10 0 std::__ndk1::vector<CCMenuItemSpriteExtra*, std::__ndk1::allocator<CCMenuItemSpriteExtra*> >::__throw_length_error[abi:ne180000]() const
PUBLIC 3af24 0 std::__ndk1::__function::__base<void (FLAlertLayer*, bool)>::~__base()
PUBLIC 3af28 0 std::__ndk1::__function::__func<SettingsPopup::onPlace(cocos2d::CCObject*)::$_0, std::__ndk1::allocator<SettingsPopup::onPlace(cocos2d::CCObject*)::$_0>, void (FLAlertLayer*, bool)>::~__func()
PUBLIC 3af2c 0 std::__ndk1::__function::__func<SettingsPopup::onPlace(cocos2d::CCObject*)::$_0, std::__ndk1::allocator<SettingsPopup::onPlace(cocos2d::CCObject*)::$_0>, void (FLAlertLayer*, bool)>::__clone() const
PUBLIC 3af64 0 std::__ndk1::__function::__func<SettingsPopup::onPlace(cocos2d::CCObject*)::$_0, std::__ndk1::allocator<SettingsPopup::onPlace(cocos2d::CCObject*)::$_0>, void (FLAlertLayer*, bool)>::__clone(std::__ndk1::__function::__base<void (FLAlertLayer*, bool)>*) const
PUBLIC 3af7c 0 std::__ndk1::__function::__func<SettingsPopup::onPlace(cocos2d::CCObject*)::$_0, std::__ndk1::allocator<SettingsPopup::onPlace(cocos2d::CCObject*)::$_0>, void (FLAlertLayer*, bool)>::destroy()
PUBLIC 3af80 0 std::__ndk1::__function::__func<SettingsPopup::onPlace(cocos2d::CCObject*)::$_0, std::__ndk1::allocator<SettingsPopup::onPlace(cocos2d::CCObject*)::$_0>, void (FLAlertLayer*, bool)>::destroy_deallocate()
PUBLIC 3af84 0 std::__ndk1::__function::__func<SettingsPopup::onPlace(cocos2d::CCObject*)::$_0, std::__ndk1::allocator<SettingsPopup::onPlace(cocos2d::CCObject*)::$_0>, void (FLAlertLayer*, bool)>::operator()(FLAlertLayer*&&, bool&&)
PUBLIC 3b1c8 0 std::__ndk1::__function::__func<SettingsPopup::onPlace(cocos2d::CCObject*)::$_0, std::__ndk1::allocator<SettingsPopup::onPlace(cocos2d::CCObject*)::$_0>, void (FLAlertLayer*, bool)>::target(std::type_info const&) const
PUBLIC 3b1e4 0 std::__ndk1::__function::__func<SettingsPopup::onPlace(cocos2d::CCObject*)::$_0, std::__ndk1::allocator<SettingsPopup::onPlace(cocos2d::CCObject*)::$_0>, void (FLAlertLayer*, bool)>::target_type() const
PUBLIC 3b1f0 0 _GLOBAL__sub_I_SettingsPopup.cpp
PUBLIC 3b23c 0 std::__ndk1::vector<std::__ndk1::vector<float, std::__ndk1::allocator<float> >, std::__ndk1::allocator<std::__ndk1::vector<float, std::__ndk1::allocator<float> > > >::~vector[abi:ne180000]()
PUBLIC 3b2b8 0 std::__ndk1::unordered_map<double, float, std::__ndk1::hash<double>, std::__ndk1::equal_to<double>, std::__ndk1::allocator<std::__ndk1::pair<double const, float> > >::~unordered_map[abi:ne180000]()
PUBLIC 3b304 0 __cxx_global_var_init.3
PUBLIC 3b784 0 geode::modifier::ModifyBase<geode::modifier::ModifyDerive<mDrawGridLayer, DrawGridLayer> >::~ModifyBase()
PUBLIC 3b7a0 0 __cxx_global_var_init.4
PUBLIC 3bbdc 0 __cxx_global_var_init.5
PUBLIC 3c018 0 _GLOBAL__sub_I_main.cpp
PUBLIC 3c09c 0 geode::modifier::ModifyBase<geode::modifier::ModifyDerive<hook216<(anonymous namespace)::hook216Parent>, LevelEditorLayer> >::~ModifyBase()
PUBLIC 3c0b8 0 geode::modifier::ModifyBase<geode::modifier::ModifyDerive<hook244<(anonymous namespace)::hook244Parent>, EditorUI> >::~ModifyBase()
PUBLIC 3c0d4 0 std::__ndk1::__introsort<std::__ndk1::_ClassicAlgPolicy, sortSpeedPortalsByXPos(std::__ndk1::vector<geode::Ref<GameObject>, std::__ndk1::allocator<geode::Ref<GameObject> > >&)::$_0&, geode::Ref<GameObject>*, false>(geode::Ref<GameObject>*, geode::Ref<GameObject>*, sortSpeedPortalsByXPos(std::__ndk1::vector<geode::Ref<GameObject>, std::__ndk1::allocator<geode::Ref<GameObject> > >&)::$_0&, std::__ndk1::iterator_traits<geode::Ref<GameObject>*>::difference_type, bool)
PUBLIC 3cbf8 0 _ZNSt6__ndk124__sort5_maybe_branchlessB8ne180000INS_17_ClassicAlgPolicyERZ22sortSpeedPortalsByXPosRNS_6vectorIN5geode3RefI10GameObjectEENS_9allocatorIS6_EEEEE3$_0PS6_TnNS_9enable_ifIXntsr21__use_branchless_sortIT0_T1_EE5valueEiE4typeELi0EEEvSG_SG_SG_SG_SG_SF_
PUBLIC 3cd40 0 std::__ndk1::__sort3[abi:ne180000]<std::__ndk1::_ClassicAlgPolicy, sortSpeedPortalsByXPos(std::__ndk1::vector<geode::Ref<GameObject>, std::__ndk1::allocator<GameObject> >&)::$_0&, GameObject*>(GameObject*, GameObject*, GameObject*, sortSpeedPortalsByXPos(std::__ndk1::vector<geode::Ref<GameObject>, std::__ndk1::allocator<GameObject> >&)::$_0&)
PUBLIC 3ceb0 0 std::__ndk1::__insertion_sort_incomplete[abi:ne180000]<std::__ndk1::_ClassicAlgPolicy, sortSpeedPortalsByXPos(std::__ndk1::vector<geode::Ref<GameObject>, std::__ndk1::allocator<GameObject> >&)::$_0&, GameObject*>(GameObject*, GameObject*, sortSpeedPortalsByXPos(std::__ndk1::vector<geode::Ref<GameObject>, std::__ndk1::allocator<GameObject> >&)::$_0&)
PUBLIC 3d0c4 0 geode::Ref<GameObject>::~Ref()
PUBLIC 3d0e0 0 std::__ndk1::__sort4[abi:ne180000]<std::__ndk1::_ClassicAlgPolicy, sortSpeedPortalsByXPos(std::__ndk1::vector<geode::Ref<GameObject>, std::__ndk1::allocator<GameObject> >&)::$_0&, GameObject*>(GameObject*, GameObject*, GameObject*, GameObject*, sortSpeedPortalsByXPos(std::__ndk1::vector<geode::Ref<GameObject>, std::__ndk1::allocator<GameObject> >&)::$_0&)
PUBLIC 3d1dc 0 geode::modifier::ModifyDerive<mDrawGridLayer, DrawGridLayer>::apply()
PUBLIC 3d4f8 0 geode::modifier::ModifyBase<geode::modifier::ModifyDerive<mDrawGridLayer, DrawGridLayer> >::apply()
PUBLIC 3d4fc 0 geode::modifier::AsStaticFunction_draw<mDrawGridLayer, void (mDrawGridLayer::*)()>::Impl<void (mDrawGridLayer::*)()>::function(mDrawGridLayer*)
PUBLIC 3eaf0 0 std::__ndk1::basic_string<char, std::__ndk1::char_traits<char>, std::__ndk1::allocator<char> >::basic_string[abi:ne180000]<0>()
PUBLIC 3eb8c 0 geode::addresser::Addresser::addressOfVirtual<void, DrawGridLayer, >(void (DrawGridLayer::*)())
PUBLIC 3ec54 0 DrawGridLayer::DrawGridLayer(geode::ZeroConstructorType)
PUBLIC 3ed38 0 geode::stl::unordered_map<int, AudioLineGuideGameObject*, geode::stl::hash<int>, geode::stl::equal_to<int>, std::__ndk1::allocator<std::__ndk1::pair<int const, AudioLineGuideGameObject*> > >::~unordered_map()
PUBLIC 3edb0 0 mDrawGridLayer::getXPosition(float)
PUBLIC 3f19c 0 geode::modifier::FieldIntermediate<mDrawGridLayer, DrawGridLayer>::self()
PUBLIC 3f804 0 geode::modifier::FieldIntermediate<mDrawGridLayer, DrawGridLayer>::fieldDestructor(void*)
PUBLIC 3f888 0 std::__ndk1::vector<void*, std::__ndk1::allocator<void*> >::__throw_length_error[abi:ne180000]() const
PUBLIC 3f89c 0 std::__ndk1::vector<std::__ndk1::function<void (void*)>, std::__ndk1::allocator<std::__ndk1::function<void (void*)> > >::__throw_length_error[abi:ne180000]() const
PUBLIC 3f8b0 0 std::__ndk1::vector<void*, std::__ndk1::allocator<void*> >::__throw_out_of_range[abi:ne180000]() const
PUBLIC 3f8c4 0 std::__ndk1::vector<std::__ndk1::function<void (void*)>, std::__ndk1::allocator<std::__ndk1::function<void (void*)> > >::__throw_out_of_range[abi:ne180000]() const
PUBLIC 3f8d8 0 std::__ndk1::__function::__base<void (void*)>::~__base()
PUBLIC 3f8dc 0 std::__ndk1::__function::__func<void (*)(void*), std::__ndk1::allocator<void (*)(void*)>, void (void*)>::~__func()
PUBLIC 3f8e0 0 std::__ndk1::__function::__func<void (*)(void*), std::__ndk1::allocator<void (*)(void*)>, void (void*)>::__clone() const
PUBLIC 3f918 0 std::__ndk1::__function::__func<void (*)(void*), std::__ndk1::allocator<void (*)(void*)>, void (void*)>::__clone(std::__ndk1::__function::__base<void (void*)>*) const
PUBLIC 3f930 0 std::__ndk1::__function::__func<void (*)(void*), std::__ndk1::allocator<void (*)(void*)>, void (void*)>::destroy()
PUBLIC 3f934 0 std::__ndk1::__function::__func<void (*)(void*), std::__ndk1::allocator<void (*)(void*)>, void (void*)>::destroy_deallocate()
PUBLIC 3f938 0 std::__ndk1::__function::__func<void (*)(void*), std::__ndk1::allocator<void (*)(void*)>, void (void*)>::operator()(void*&&)
PUBLIC 3f948 0 std::__ndk1::__function::__func<void (*)(void*), std::__ndk1::allocator<void (*)(void*)>, void (void*)>::target(std::type_info const&) const
PUBLIC 3f964 0 std::__ndk1::__function::__func<void (*)(void*), std::__ndk1::allocator<void (*)(void*)>, void (void*)>::target_type() const
PUBLIC 3f970 0 nlohmann::json_abi_v3_11_3::operator>>(std::__ndk1::basic_istream<char, std::__ndk1::char_traits<char> >&, nlohmann::json_abi_v3_11_3::basic_json<std::__ndk1::map, std::__ndk1::vector, std::__ndk1::basic_string<char, std::__ndk1::char_traits<char>, std::__ndk1::allocator<char> >, bool, long, unsigned long, double, std::__ndk1::allocator, nlohmann::json_abi_v3_11_3::adl_serializer, std::__ndk1::vector<unsigned char, std::__ndk1::allocator<unsigned char> >, void>&)
PUBLIC 3fb9c 0 nlohmann::json_abi_v3_11_3::basic_json<std::__ndk1::map, std::__ndk1::vector, std::__ndk1::basic_string<char, std::__ndk1::char_traits<char>, std::__ndk1::allocator<char> >, bool, long, unsigned long, double, std::__ndk1::allocator, nlohmann::json_abi_v3_11_3::adl_serializer, std::__ndk1::vector<unsigned char, std::__ndk1::allocator<unsigned char> >, void>::operator[]<char const>(char const*)
PUBLIC 3fcc4 0 nlohmann::json_abi_v3_11_3::basic_json<std::__ndk1::map, std::__ndk1::vector, std::__ndk1::basic_string<char, std::__ndk1::char_traits<char>, std::__ndk1::allocator<char> >, bool, long, unsigned long, double, std::__ndk1::allocator, nlohmann::json_abi_v3_11_3::adl_serializer, std::__ndk1::vector<unsigned char, std::__ndk1::allocator<unsigned char> >, void>::operator[]<char const>(char const*) const
PUBLIC 3ff7c 0 nlohmann::json_abi_v3_11_3::basic_json<std::__ndk1::map, std::__ndk1::vector, std::__ndk1::basic_string<char, std::__ndk1::char_traits<char>, std::__ndk1::allocator<char> >, bool, long, unsigned long, double, std::__ndk1::allocator, nlohmann::json_abi_v3_11_3::adl_serializer, std::__ndk1::vector<unsigned char, std::__ndk1::allocator<unsigned char> >, void>::~basic_json()
PUBLIC 3ff98 0 std::__ndk1::__fs::filesystem::path::operator/=[abi:ne180000](std::__ndk1::__fs::filesystem::path const&)
PUBLIC 40080 0 std::__ndk1::basic_ifstream<char, std::__ndk1::char_traits<char> >::basic_ifstream(char const*, unsigned int)
PUBLIC 40194 0 nlohmann::json_abi_v3_11_3::basic_json<std::__ndk1::map, std::__ndk1::vector, std::__ndk1::basic_string<char, std::__ndk1::char_traits<char>, std::__ndk1::allocator<char> >, bool, long, unsigned long, double, std::__ndk1::allocator, nlohmann::json_abi_v3_11_3::adl_serializer, std::__ndk1::vector<unsigned char, std::__ndk1::allocator<unsigned char> >, void>::json_value::json_value(nlohmann::json_abi_v3_11_3::detail::value_t)
PUBLIC 402a8 0 nlohmann::json_abi_v3_11_3::detail::concat<std::__ndk1::basic_string<char, std::__ndk1::char_traits<char>, std::__ndk1::allocator<char> >, std::__ndk1::basic_string<char, std::__ndk1::char_traits<char>, std::__ndk1::allocator<char> >, std::__ndk1::basic_string<char, std::__ndk1::char_traits<char>, std::__ndk1::allocator<char> >, std::__ndk1::basic_string<char, std::__ndk1::char_traits<char>, std::__ndk1::allocator<char> > const&>(std::__ndk1::basic_string<char, std::__ndk1::char_traits<char>, std::__ndk1::allocator<char> >&&, std::__ndk1::basic_string<char, std::__ndk1::char_traits<char>, std::__ndk1::allocator<char> >, std::__ndk1::basic_string<char, std::__ndk1::char_traits<char>, std::__ndk1::allocator<char> > const&)
PUBLIC 403a8 0 nlohmann::json_abi_v3_11_3::detail::concat<std::__ndk1::basic_string<char, std::__ndk1::char_traits<char>, std::__ndk1::allocator<char> >, char const (&) [17], std::__ndk1::basic_string<char, std::__ndk1::char_traits<char>, std::__ndk1::allocator<char> > const&, char, std::__ndk1::basic_string<char, std::__ndk1::char_traits<char>, std::__ndk1::allocator<char> >, char const (&) [3]>(char const (&) [17], std::__ndk1::basic_string<char, std::__ndk1::char_traits<char>, std::__ndk1::allocator<char> > const&, char, std::__ndk1::basic_string<char, std::__ndk1::char_traits<char>, std::__ndk1::allocator<char> >, char const (&) [3])
PUBLIC 404fc 0 nlohmann::json_abi_v3_11_3::detail::exception::what() const
PUBLIC 40504 0 nlohmann::json_abi_v3_11_3::detail::exception::~exception()
PUBLIC 4053c 0 nlohmann::json_abi_v3_11_3::detail::parser<nlohmann::json_abi_v3_11_3::basic_json<std::__ndk1::map, std::__ndk1::vector, std::__ndk1::basic_string<char, std::__ndk1::char_traits<char>, std::__ndk1::allocator<char> >, bool, long, unsigned long, double, std::__ndk1::allocator, nlohmann::json_abi_v3_11_3::adl_serializer, std::__ndk1::vector<unsigned char, std::__ndk1::allocator<unsigned char> >, void>, nlohmann::json_abi_v3_11_3::detail::input_stream_adapter>::parse(bool, nlohmann::json_abi_v3_11_3::basic_json<std::__ndk1::map, std::__ndk1::vector, std::__ndk1::basic_string<char, std::__ndk1::char_traits<char>, std::__ndk1::allocator<char> >, bool, long, unsigned long, double, std::__ndk1::allocator, nlohmann::json_abi_v3_11_3::adl_serializer, std::__ndk1::vector<unsigned char, std::__ndk1::allocator<unsigned char> >, void>&)
PUBLIC 40b24 0 nlohmann::json_abi_v3_11_3::detail::parser<nlohmann::json_abi_v3_11_3::basic_json<std::__ndk1::map, std::__ndk1::vector, std::__ndk1::basic_string<char, std::__ndk1::char_traits<char>, std::__ndk1::allocator<char> >, bool, long, unsigned long, double, std::__ndk1::allocator, nlohmann::json_abi_v3_11_3::adl_serializer, std::__ndk1::vector<unsigned char, std::__ndk1::allocator<unsigned char> >, void>, nlohmann::json_abi_v3_11_3::detail::input_stream_adapter>::~parser()
PUBLIC 40bd0 0 nlohmann::json_abi_v3_11_3::detail::input_stream_adapter::~input_stream_adapter()
PUBLIC 40c04 0 nlohmann::json_abi_v3_11_3::detail::parser<nlohmann::json_abi_v3_11_3::basic_json<std::__ndk1::map, std::__ndk1::vector, std::__ndk1::basic_string<char, std::__ndk1::char_traits<char>, std::__ndk1::allocator<char> >, bool, long, unsigned long, double, std::__ndk1::allocator, nlohmann::json_abi_v3_11_3::adl_serializer, std::__ndk1::vector<unsigned char, std::__ndk1::allocator<unsigned char> >, void>, nlohmann::json_abi_v3_11_3::detail::input_stream_adapter>::parser(nlohmann::json_abi_v3_11_3::detail::input_stream_adapter&&, std::__ndk1::function<bool (int, nlohmann::json_abi_v3_11_3::detail::parse_event_t, nlohmann::json_abi_v3_11_3::basic_json<std::__ndk1::map, std::__ndk1::vector, std::__ndk1::basic_string<char, std::__ndk1::char_traits<char>, std::__ndk1::allocator<char> >, bool, long, unsigned long, double, std::__ndk1::allocator, nlohmann::json_abi_v3_11_3::adl_serializer, std::__ndk1::vector<unsigned char, std::__ndk1::allocator<unsigned char> >, void>&)>, bool, bool)
PUBLIC 40d44 0 nlohmann::json_abi_v3_11_3::detail::lexer<nlohmann::json_abi_v3_11_3::basic_json<std::__ndk1::map, std::__ndk1::vector, std::__ndk1::basic_string<char, std::__ndk1::char_traits<char>, std::__ndk1::allocator<char> >, bool, long, unsigned long, double, std::__ndk1::allocator, nlohmann::json_abi_v3_11_3::adl_serializer, std::__ndk1::vector<unsigned char, std::__ndk1::allocator<unsigned char> >, void>, nlohmann::json_abi_v3_11_3::detail::input_stream_adapter>::~lexer()
PUBLIC 40da4 0 nlohmann::json_abi_v3_11_3::detail::lexer<nlohmann::json_abi_v3_11_3::basic_json<std::__ndk1::map, std::__ndk1::vector, std::__ndk1::basic_string<char, std::__ndk1::char_traits<char>, std::__ndk1::allocator<char> >, bool, long, unsigned long, double, std::__ndk1::allocator, nlohmann::json_abi_v3_11_3::adl_serializer, std::__ndk1::vector<unsigned char, std::__ndk1::allocator<unsigned char> >, void>, nlohmann::json_abi_v3_11_3::detail::input_stream_adapter>::scan()
PUBLIC 4102c 0 nlohmann::json_abi_v3_11_3::detail::lexer<nlohmann::json_abi_v3_11_3::basic_json<std::__ndk1::map, std::__ndk1::vector, std::__ndk1::basic_string<char, std::__ndk1::char_traits<char>, std::__ndk1::allocator<char> >, bool, long, unsigned long, double, std::__ndk1::allocator, nlohmann::json_abi_v3_11_3::adl_serializer, std::__ndk1::vector<unsigned char, std::__ndk1::allocator<unsigned char> >, void>, nlohmann::json_abi_v3_11_3::detail::input_stream_adapter>::skip_whitespace()
PUBLIC 412cc 0 nlohmann::json_abi_v3_11_3::detail::lexer<nlohmann::json_abi_v3_11_3::basic_json<std::__ndk1::map, std::__ndk1::vector, std::__ndk1::basic_string<char, std::__ndk1::char_traits<char>, std::__ndk1::allocator<char> >, bool, long, unsigned long, double, std::__ndk1::allocator, nlohmann::json_abi_v3_11_3::adl_serializer, std::__ndk1::vector<unsigned char, std::__ndk1::allocator<unsigned char> >, void>, nlohmann::json_abi_v3_11_3::detail::input_stream_adapter>::scan_comment()
PUBLIC 413ec 0 nlohmann::json_abi_v3_11_3::detail::lexer<nlohmann::json_abi_v3_11_3::basic_json<std::__ndk1::map, std::__ndk1::vector, std::__ndk1::basic_string<char, std::__ndk1::char_traits<char>, std::__ndk1::allocator<char> >, bool, long, unsigned long, double, std::__ndk1::allocator, nlohmann::json_abi_v3_11_3::adl_serializer, std::__ndk1::vector<unsigned char, std::__ndk1::allocator<unsigned char> >, void>, nlohmann::json_abi_v3_11_3::detail::input_stream_adapter>::scan_string()
PUBLIC 42590 0 nlohmann::json_abi_v3_11_3::detail::lexer<nlohmann::json_abi_v3_11_3::basic_json<std::__ndk1::map, std::__ndk1::vector, std::__ndk1::basic_string<char, std::__ndk1::char_traits<char>, std::__ndk1::allocator<char> >, bool, long, unsigned long, double, std::__ndk1::allocator, nlohmann::json_abi_v3_11_3::adl_serializer, std::__ndk1::vector<unsigned char, std::__ndk1::allocator<unsigned char> >, void>, nlohmann::json_abi_v3_11_3::detail::input_stream_adapter>::scan_number()
PUBLIC 42cd0 0 nlohmann::json_abi_v3_11_3::detail::lexer<nlohmann::json_abi_v3_11_3::basic_json<std::__ndk1::map, std::__ndk1::vector, std::__ndk1::basic_string<char, std::__ndk1::char_traits<char>, std::__ndk1::allocator<char> >, bool, long, unsigned long, double, std::__ndk1::allocator, nlohmann::json_abi_v3_11_3::adl_serializer, std::__ndk1::vector<unsigned char, std::__ndk1::allocator<unsigned char> >, void>, nlohmann::json_abi_v3_11_3::detail::input_stream_adapter>::get()
PUBLIC 42f58 0 std::__ndk1::vector<char, std::__ndk1::allocator<char> >::__throw_length_error[abi:ne180000]() const
PUBLIC 42f6c 0 nlohmann::json_abi_v3_11_3::detail::lexer<nlohmann::json_abi_v3_11_3::basic_json<std::__ndk1::map, std::__ndk1::vector, std::__ndk1::basic_string<char, std::__ndk1::char_traits<char>, std::__ndk1::allocator<char> >, bool, long, unsigned long, double, std::__ndk1::allocator, nlohmann::json_abi_v3_11_3::adl_serializer, std::__ndk1::vector<unsigned char, std::__ndk1::allocator<unsigned char> >, void>, nlohmann::json_abi_v3_11_3::detail::input_stream_adapter>::get_codepoint()
PUBLIC 43118 0 nlohmann::json_abi_v3_11_3::detail::json_sax_dom_callback_parser<nlohmann::json_abi_v3_11_3::basic_json<std::__ndk1::map, std::__ndk1::vector, std::__ndk1::basic_string<char, std::__ndk1::char_traits<char>, std::__ndk1::allocator<char> >, bool, long, unsigned long, double, std::__ndk1::allocator, nlohmann::json_abi_v3_11_3::adl_serializer, std::__ndk1::vector<unsigned char, std::__ndk1::allocator<unsigned char> >, void> >::json_sax_dom_callback_parser(nlohmann::json_abi_v3_11_3::basic_json<std::__ndk1::map, std::__ndk1::vector, std::__ndk1::basic_string<char, std::__ndk1::char_traits<char>, std::__ndk1::allocator<char> >, bool, long, unsigned long, double, std::__ndk1::allocator, nlohmann::json_abi_v3_11_3::adl_serializer, std::__ndk1::vector<unsigned char, std::__ndk1::allocator<unsigned char> >, void>&, std::__ndk1::function<bool (int, nlohmann::json_abi_v3_11_3::detail::parse_event_t, nlohmann::json_abi_v3_11_3::basic_json<std::__ndk1::map, std::__ndk1::vector, std::__ndk1::basic_string<char, std::__ndk1::char_traits<char>, std::__ndk1::allocator<char> >, bool, long, unsigned long, double, std::__ndk1::allocator, nlohmann::json_abi_v3_11_3::adl_serializer, std::__ndk1::vector<unsigned char, std::__ndk1::allocator<unsigned char> >, void>&)>, bool)
PUBLIC 432d8 0 nlohmann::json_abi_v3_11_3::detail::parser<nlohmann::json_abi_v3_11_3::basic_json<std::__ndk1::map, std::__ndk1::vector, std::__ndk1::basic_string<char, std::__ndk1::char_traits<char>, std::__ndk1::allocator<char> >, bool, long, unsigned long, double, std::__ndk1::allocator, nlohmann::json_abi_v3_11_3::adl_serializer, std::__ndk1::vector<unsigned char, std::__ndk1::allocator<unsigned char> >, void>, nlohmann::json_abi_v3_11_3::detail::input_stream_adapter>::sax_parse_internal<nlohmann::json_abi_v3_11_3::detail::json_sax_dom_callback_parser<nlohmann::json_abi_v3_11_3::basic_json<std::__ndk1::map, std::__ndk1::vector, std::__ndk1::basic_string<char, std::__ndk1::char_traits<char>, std::__ndk1::allocator<char> >, bool, long, unsigned long, double, std::__ndk1::allocator, nlohmann::json_abi_v3_11_3::adl_serializer, std::__ndk1::vector<unsigned char, std::__ndk1::allocator<unsigned char> >, void> > >(nlohmann::json_abi_v3_11_3::detail::json_sax_dom_callback_parser<nlohmann::json_abi_v3_11_3::basic_json<std::__ndk1::map, std::__ndk1::vector, std::__ndk1::basic_string<char, std::__ndk1::char_traits<char>, std::__ndk1::allocator<char> >, bool, long, unsigned long, double, std::__ndk1::allocator, nlohmann::json_abi_v3_11_3::adl_serializer, std::__ndk1::vector<unsigned char, std::__ndk1::allocator<unsigned char> >, void> >*)
PUBLIC 440a8 0 nlohmann::json_abi_v3_11_3::detail::json_sax_dom_callback_parser<nlohmann::json_abi_v3_11_3::basic_json<std::__ndk1::map, std::__ndk1::vector, std::__ndk1::basic_string<char, std::__ndk1::char_traits<char>, std::__ndk1::allocator<char> >, bool, long, unsigned long, double, std::__ndk1::allocator, nlohmann::json_abi_v3_11_3::adl_serializer, std::__ndk1::vector<unsigned char, std::__ndk1::allocator<unsigned char> >, void> >::parse_error<nlohmann::json_abi_v3_11_3::detail::parse_error>(unsigned long, std::__ndk1::basic_string<char, std::__ndk1::char_traits<char>, std::__ndk1::allocator<char> > const&, nlohmann::json_abi_v3_11_3::detail::parse_error const&)
PUBLIC 440fc 0 nlohmann::json_abi_v3_11_3::detail::lexer<nlohmann::json_abi_v3_11_3::basic_json<std::__ndk1::map, std::__ndk1::vector, std::__ndk1::basic_string<char, std::__ndk1::char_traits<char>, std::__ndk1::allocator<char> >, bool, long, unsigned long, double, std::__ndk1::allocator, nlohmann::json_abi_v3_11_3::adl_serializer, std::__ndk1::vector<unsigned char, std::__ndk1::allocator<unsigned char> >, void>, nlohmann::json_abi_v3_11_3::detail::input_stream_adapter>::get_token_string() const
PUBLIC 441dc 0 _ZN8nlohmann16json_abi_v3_11_36detail11parse_error6createIDnTnNSt6__ndk19enable_ifIXsr21is_basic_json_contextIT_EE5valueEiE4typeELi0EEES2_iRKNS1_10position_tERKNS4_12basic_stringIcNS4_11char_traitsIcEENS4_9allocatorIcEEEES6_
PUBLIC 44448 0 nlohmann::json_abi_v3_11_3::detail::parser<nlohmann::json_abi_v3_11_3::basic_json<std::__ndk1::map, std::__ndk1::vector, std::__ndk1::basic_string<char, std::__ndk1::char_traits<char>, std::__ndk1::allocator<char> >, bool, long, unsigned long, double, std::__ndk1::allocator, nlohmann::json_abi_v3_11_3::adl_serializer, std::__ndk1::vector<unsigned char, std::__ndk1::allocator<unsigned char> >, void>, nlohmann::json_abi_v3_11_3::detail::input_stream_adapter>::exception_message(nlohmann::json_abi_v3_11_3::detail::lexer_base<nlohmann::json_abi_v3_11_3::basic_json<std::__ndk1::map, std::__ndk1::vector, std::__ndk1::basic_string<char, std::__ndk1::char_traits<char>, std::__ndk1::allocator<char> >, bool, long, unsigned long, double, std::__ndk1::allocator, nlohmann::json_abi_v3_11_3::adl_serializer, std::__ndk1::vector<unsigned char, std::__ndk1::allocator<unsigned char> >, void> >::token_type, std::__ndk1::basic_string<char, std::__ndk1::char_traits<char>, std::__ndk1::allocator<char> > const&)
PUBLIC 447ec 0 nlohmann::json_abi_v3_11_3::detail::exception::~exception()
PUBLIC 4481c 0 nlohmann::json_abi_v3_11_3::detail::json_sax_dom_callback_parser<nlohmann::json_abi_v3_11_3::basic_json<std::__ndk1::map, std::__ndk1::vector, std::__ndk1::basic_string<char, std::__ndk1::char_traits<char>, std::__ndk1::allocator<char> >, bool, long, unsigned long, double, std::__ndk1::allocator, nlohmann::json_abi_v3_11_3::adl_serializer, std::__ndk1::vector<unsigned char, std::__ndk1::allocator<unsigned char> >, void> >::~json_sax_dom_callback_parser()
PUBLIC 448a8 0 nlohmann::json_abi_v3_11_3::detail::parser<nlohmann::json_abi_v3_11_3::basic_json<std::__ndk1::map, std::__ndk1::vector, std::__ndk1::basic_string<char, std::__ndk1::char_traits<char>, std::__ndk1::allocator<char> >, bool, long, unsigned long, double, std::__ndk1::allocator, nlohmann::json_abi_v3_11_3::adl_serializer, std::__ndk1::vector<unsigned char, std::__ndk1::allocator<unsigned char> >, void>, nlohmann::json_abi_v3_11_3::detail::input_stream_adapter>::sax_parse_internal<nlohmann::json_abi_v3_11_3::detail::json_sax_dom_parser<nlohmann::json_abi_v3_11_3::basic_json<std::__ndk1::map, std::__ndk1::vector, std::__ndk1::basic_string<char, std::__ndk1::char_traits<char>, std::__ndk1::allocator<char> >, bool, long, unsigned long, double, std::__ndk1::allocator, nlohmann::json_abi_v3_11_3::adl_serializer, std::__ndk1::vector<unsigned char, std::__ndk1::allocator<unsigned char> >, void> > >(nlohmann::json_abi_v3_11_3::detail::json_sax_dom_parser<nlohmann::json_abi_v3_11_3::basic_json<std::__ndk1::map, std::__ndk1::vector, std::__ndk1::basic_string<char, std::__ndk1::char_traits<char>, std::__ndk1::allocator<char> >, bool, long, unsigned long, double, std::__ndk1::allocator, nlohmann::json_abi_v3_11_3::adl_serializer, std::__ndk1::vector<unsigned char, std::__ndk1::allocator<unsigned char> >, void> >*)
PUBLIC 45694 0 nlohmann::json_abi_v3_11_3::detail::json_sax_dom_parser<nlohmann::json_abi_v3_11_3::basic_json<std::__ndk1::map, std::__ndk1::vector, std::__ndk1::basic_string<char, std::__ndk1::char_traits<char>, std::__ndk1::allocator<char> >, bool, long, unsigned long, double, std::__ndk1::allocator, nlohmann::json_abi_v3_11_3::adl_serializer, std::__ndk1::vector<unsigned char, std::__ndk1::allocator<unsigned char> >, void> >::parse_error<nlohmann::json_abi_v3_11_3::detail::parse_error>(unsigned long, std::__ndk1::basic_string<char, std::__ndk1::char_traits<char>, std::__ndk1::allocator<char> > const&, nlohmann::json_abi_v3_11_3::detail::parse_error const&)
PUBLIC 456e8 0 std::__ndk1::vector<bool, std::__ndk1::allocator<bool> >::reserve(unsigned long)
PUBLIC 457ec 0 std::__ndk1::vector<bool, std::__ndk1::allocator<bool> >::__throw_length_error[abi:ne180000]() const
PUBLIC 45800 0 nlohmann::json_abi_v3_11_3::detail::json_sax_dom_callback_parser<nlohmann::json_abi_v3_11_3::basic_json<std::__ndk1::map, std::__ndk1::vector, std::__ndk1::basic_string<char, std::__ndk1::char_traits<char>, std::__ndk1::allocator<char> >, bool, long, unsigned long, double, std::__ndk1::allocator, nlohmann::json_abi_v3_11_3::adl_serializer, std::__ndk1::vector<unsigned char, std::__ndk1::allocator<unsigned char> >, void> >::start_object(unsigned long)
PUBLIC 45bf0 0 nlohmann::json_abi_v3_11_3::detail::json_sax_dom_callback_parser<nlohmann::json_abi_v3_11_3::basic_json<std::__ndk1::map, std::__ndk1::vector, std::__ndk1::basic_string<char, std::__ndk1::char_traits<char>, std::__ndk1::allocator<char> >, bool, long, unsigned long, double, std::__ndk1::allocator, nlohmann::json_abi_v3_11_3::adl_serializer, std::__ndk1::vector<unsigned char, std::__ndk1::allocator<unsigned char> >, void> >::end_object()
PUBLIC 45ea4 0 nlohmann::json_abi_v3_11_3::detail::json_sax_dom_callback_parser<nlohmann::json_abi_v3_11_3::basic_json<std::__ndk1::map, std::__ndk1::vector, std::__ndk1::basic_string<char, std::__ndk1::char_traits<char>, std::__ndk1::allocator<char> >, bool, long, unsigned long, double, std::__ndk1::allocator, nlohmann::json_abi_v3_11_3::adl_serializer, std::__ndk1::vector<unsigned char, std::__ndk1::allocator<unsigned char> >, void> >::key(std::__ndk1::basic_string<char, std::__ndk1::char_traits<char>, std::__ndk1::allocator<char> >&)
PUBLIC 46104 0 nlohmann::json_abi_v3_11_3::detail::json_sax_dom_callback_parser<nlohmann::json_abi_v3_11_3::basic_json<std::__ndk1::map, std::__ndk1::vector, std::__ndk1::basic_string<char, std::__ndk1::char_traits<char>, std::__ndk1::allocator<char> >, bool, long, unsigned long, double, std::__ndk1::allocator, nlohmann::json_abi_v3_11_3::adl_serializer, std::__ndk1::vector<unsigned char, std::__ndk1::allocator<unsigned char> >, void> >::start_array(unsigned long)
PUBLIC 464f8 0 nlohmann::json_abi_v3_11_3::detail::json_sax_dom_callback_parser<nlohmann::json_abi_v3_11_3::basic_json<std::__ndk1::map, std::__ndk1::vector, std::__ndk1::basic_string<char, std::__ndk1::char_traits<char>, std::__ndk1::allocator<char> >, bool, long, unsigned long, double, std::__ndk1::allocator, nlohmann::json_abi_v3_11_3::adl_serializer, std::__ndk1::vector<unsigned char, std::__ndk1::allocator<unsigned char> >, void> >::end_array()
PUBLIC 46688 0 nlohmann::json_abi_v3_11_3::detail::json_sax_dom_callback_parser<nlohmann::json_abi_v3_11_3::basic_json<std::__ndk1::map, std::__ndk1::vector, std::__ndk1::basic_string<char, std::__ndk1::char_traits<char>, std::__ndk1::allocator<char> >, bool, long, unsigned long, double, std::__ndk1::allocator, nlohmann::json_abi_v3_11_3::adl_serializer, std::__ndk1::vector<unsigned char, std::__ndk1::allocator<unsigned char> >, void> >::parse_error<nlohmann::json_abi_v3_11_3::detail::out_of_range>(unsigned long, std::__ndk1::basic_string<char, std::__ndk1::char_traits<char>, std::__ndk1::allocator<char> > const&, nlohmann::json_abi_v3_11_3::detail::out_of_range const&)
PUBLIC 466dc 0 _ZN8nlohmann16json_abi_v3_11_36detail12out_of_range6createIDnTnNSt6__ndk19enable_ifIXsr21is_basic_json_contextIT_EE5valueEiE4typeELi0EEES2_iRKNS4_12basic_stringIcNS4_11char_traitsIcEENS4_9allocatorIcEEEES6_
PUBLIC 468c8 0 nlohmann::json_abi_v3_11_3::detail::concat<std::__ndk1::basic_string<char, std::__ndk1::char_traits<char>, std::__ndk1::allocator<char> >, char const (&) [26], std::__ndk1::basic_string<char, std::__ndk1::char_traits<char>, std::__ndk1::allocator<char> >, char>(char const (&) [26], std::__ndk1::basic_string<char, std::__ndk1::char_traits<char>, std::__ndk1::allocator<char> >, char)
PUBLIC 4698c 0 nlohmann::json_abi_v3_11_3::detail::json_sax_dom_callback_parser<nlohmann::json_abi_v3_11_3::basic_json<std::__ndk1::map, std::__ndk1::vector, std::__ndk1::basic_string<char, std::__ndk1::char_traits<char>, std::__ndk1::allocator<char> >, bool, long, unsigned long, double, std::__ndk1::allocator, nlohmann::json_abi_v3_11_3::adl_serializer, std::__ndk1::vector<unsigned char, std::__ndk1::allocator<unsigned char> >, void> >::handle_value<nlohmann::json_abi_v3_11_3::detail::value_t>(nlohmann::json_abi_v3_11_3::detail::value_t&&, bool)
PUBLIC 46bdc 0 _ZN8nlohmann16json_abi_v3_11_36detail12out_of_range6createIPNS0_10basic_jsonINSt6__ndk13mapENS5_6vectorENS5_12basic_stringIcNS5_11char_traitsIcEENS5_9allocatorIcEEEEblmdSB_NS0_14adl_serializerENS7_IhNSB_IhEEEEvEETnNS5_9enable_ifIXsr21is_basic_json_contextIT_EE5valueEiE4typeELi0EEES2_iRKSD_SK_
PUBLIC 46dc8 0 nlohmann::json_abi_v3_11_3::detail::concat<std::__ndk1::basic_string<char, std::__ndk1::char_traits<char>, std::__ndk1::allocator<char> >, char const (&) [24], std::__ndk1::basic_string<char, std::__ndk1::char_traits<char>, std::__ndk1::allocator<char> > >(char const (&) [24], std::__ndk1::basic_string<char, std::__ndk1::char_traits<char>, std::__ndk1::allocator<char> >)
PUBLIC 46e78 0 std::__ndk1::vector<nlohmann::json_abi_v3_11_3::basic_json<std::__ndk1::map, std::__ndk1::vector, std::__ndk1::basic_string<char, std::__ndk1::char_traits<char>, std::__ndk1::allocator<char> >, bool, long, unsigned long, double, std::__ndk1::allocator, nlohmann::json_abi_v3_11_3::adl_serializer, std::__ndk1::vector<unsigned char, std::__ndk1::allocator<unsigned char> >, void>, std::__ndk1::allocator<nlohmann::json_abi_v3_11_3::basic_json<std::__ndk1::map, std::__ndk1::vector, std::__ndk1::basic_string<char, std::__ndk1::char_traits<char>, std::__ndk1::allocator<char> >, bool, long, unsigned long, double, std::__ndk1::allocator, nlohmann::json_abi_v3_11_3::adl_serializer, std::__ndk1::vector<unsigned char, std::__ndk1::allocator<unsigned char> >, void> > >::__emplace_back_slow_path<nlohmann::json_abi_v3_11_3::basic_json<std::__ndk1::map, std::__ndk1::vector, std::__ndk1::basic_string<char, std::__ndk1::char_traits<char>, std::__ndk1::allocator<char> >, bool, long, unsigned long, double, std::__ndk1::allocator, nlohmann::json_abi_v3_11_3::adl_serializer, std::__ndk1::vector<unsigned char, std::__ndk1::allocator<unsigned char> >, void> >(nlohmann::json_abi_v3_11_3::basic_json<std::__ndk1::map, std::__ndk1::vector, std::__ndk1::basic_string<char, std::__ndk1::char_traits<char>, std::__ndk1::allocator<char> >, bool, long, unsigned long, double, std::__ndk1::allocator, nlohmann::json_abi_v3_11_3::adl_serializer, std::__ndk1::vector<unsigned char, std::__ndk1::allocator<unsigned char> >, void>&&)
PUBLIC 46f98 0 std::__ndk1::__split_buffer<nlohmann::json_abi_v3_11_3::basic_json<std::__ndk1::map, std::__ndk1::vector, std::__ndk1::basic_string<char, std::__ndk1::char_traits<char>, std::__ndk1::allocator<char> >, bool, long, unsigned long, double, std::__ndk1::allocator, nlohmann::json_abi_v3_11_3::adl_serializer, std::__ndk1::vector<unsigned char, std::__ndk1::allocator<unsigned char> >, void>, std::__ndk1::allocator<nlohmann::json_abi_v3_11_3::basic_json<std::__ndk1::map, std::__ndk1::vector, std::__ndk1::basic_string<char, std::__ndk1::char_traits<char>, std::__ndk1::allocator<char> >, bool, long, unsigned long, double, std::__ndk1::allocator, nlohmann::json_abi_v3_11_3::adl_serializer, std::__ndk1::vector<unsigned char, std::__ndk1::allocator<unsigned char> >, void> >&>::~__split_buffer()
PUBLIC 46ff0 0 std::__ndk1::vector<nlohmann::json_abi_v3_11_3::basic_json<std::__ndk1::map, std::__ndk1::vector, std::__ndk1::basic_string<char, std::__ndk1::char_traits<char>, std::__ndk1::allocator<char> >, bool, long, unsigned long, double, std::__ndk1::allocator, nlohmann::json_abi_v3_11_3::adl_serializer, std::__ndk1::vector<unsigned char, std::__ndk1::allocator<unsigned char> >, void>, std::__ndk1::allocator<nlohmann::json_abi_v3_11_3::basic_json<std::__ndk1::map, std::__ndk1::vector, std::__ndk1::basic_string<char, std::__ndk1::char_traits<char>, std::__ndk1::allocator<char> >, bool, long, unsigned long, double, std::__ndk1::allocator, nlohmann::json_abi_v3_11_3::adl_serializer, std::__ndk1::vector<unsigned char, std::__ndk1::allocator<unsigned char> >, void> > >::__throw_length_error[abi:ne180000]() const
PUBLIC 47004 0 std::__ndk1::vector<nlohmann::json_abi_v3_11_3::basic_json<std::__ndk1::map, std::__ndk1::vector, std::__ndk1::basic_string<char, std::__ndk1::char_traits<char>, std::__ndk1::allocator<char> >, bool, long, unsigned long, double, std::__ndk1::allocator, nlohmann::json_abi_v3_11_3::adl_serializer, std::__ndk1::vector<unsigned char, std::__ndk1::allocator<unsigned char> >, void>*, std::__ndk1::allocator<nlohmann::json_abi_v3_11_3::basic_json<std::__ndk1::map, std::__ndk1::vector, std::__ndk1::basic_string<char, std::__ndk1::char_traits<char>, std::__ndk1::allocator<char> >, bool, long, unsigned long, double, std::__ndk1::allocator, nlohmann::json_abi_v3_11_3::adl_serializer, std::__ndk1::vector<unsigned char, std::__ndk1::allocator<unsigned char> >, void>*> >::__throw_length_error[abi:ne180000]() const
PUBLIC 47018 0 nlohmann::json_abi_v3_11_3::detail::out_of_range::~out_of_range()
PUBLIC 47050 0 nlohmann::json_abi_v3_11_3::basic_json<std::__ndk1::map, std::__ndk1::vector, std::__ndk1::basic_string<char, std::__ndk1::char_traits<char>, std::__ndk1::allocator<char> >, bool, long, unsigned long, double, std::__ndk1::allocator, nlohmann::json_abi_v3_11_3::adl_serializer, std::__ndk1::vector<unsigned char, std::__ndk1::allocator<unsigned char> >, void>::basic_json(nlohmann::json_abi_v3_11_3::basic_json<std::__ndk1::map, std::__ndk1::vector, std::__ndk1::basic_string<char, std::__ndk1::char_traits<char>, std::__ndk1::allocator<char> >, bool, long, unsigned long, double, std::__ndk1::allocator, nlohmann::json_abi_v3_11_3::adl_serializer, std::__ndk1::vector<unsigned char, std::__ndk1::allocator<unsigned char> >, void> const&)
PUBLIC 47370 0 nlohmann::json_abi_v3_11_3::detail::iter_impl<nlohmann::json_abi_v3_11_3::basic_json<std::__ndk1::map, std::__ndk1::vector, std::__ndk1::basic_string<char, std::__ndk1::char_traits<char>, std::__ndk1::allocator<char> >, bool, long, unsigned long, double, std::__ndk1::allocator, nlohmann::json_abi_v3_11_3::adl_serializer, std::__ndk1::vector<unsigned char, std::__ndk1::allocator<unsigned char> >, void> >::operator->() const
PUBLIC 4749c 0 _ZN8nlohmann16json_abi_v3_11_310basic_jsonINSt6__ndk13mapENS2_6vectorENS2_12basic_stringIcNS2_11char_traitsIcEENS2_9allocatorIcEEEEblmdS8_NS0_14adl_serializerENS4_IhNS8_IhEEEEvE5eraseINS0_6detail9iter_implISE_EETnNS2_9enable_ifIXoosr3std7is_sameIT_SI_EE5valuesr3std7is_sameISK_NSH_IKSE_EEEE5valueEiE4typeELi0EEESK_SK_
PUBLIC 47838 0 nlohmann::json_abi_v3_11_3::basic_json<std::__ndk1::map, std::__ndk1::vector, std::__ndk1::basic_string<char, std::__ndk1::char_traits<char>, std::__ndk1::allocator<char> >, bool, long, unsigned long, double, std::__ndk1::allocator, nlohmann::json_abi_v3_11_3::adl_serializer, std::__ndk1::vector<unsigned char, std::__ndk1::allocator<unsigned char> >, void>::data::~data()
PUBLIC 47854 0 std::__ndk1::__tree<std::__ndk1::__value_type<std::__ndk1::basic_string<char, std::__ndk1::char_traits<char>, std::__ndk1::allocator<char> >, nlohmann::json_abi_v3_11_3::basic_json<std::__ndk1::map, std::__ndk1::vector, std::__ndk1::basic_string<char, std::__ndk1::char_traits<char>, std::__ndk1::allocator<char> >, bool, long, unsigned long, double, std::__ndk1::allocator, nlohmann::json_abi_v3_11_3::adl_serializer, std::__ndk1::vector<unsigned char, std::__ndk1::allocator<unsigned char> >, void> >, std::__ndk1::__map_value_compare<std::__ndk1::basic_string<char, std::__ndk1::char_traits<char>, std::__ndk1::allocator<char> >, std::__ndk1::__value_type<std::__ndk1::basic_string<char, std::__ndk1::char_traits<char>, std::__ndk1::allocator<char> >, nlohmann::json_abi_v3_11_3::basic_json<std::__ndk1::map, std::__ndk1::vector, std::__ndk1::basic_string<char, std::__ndk1::char_traits<char>, std::__ndk1::allocator<char> >, bool, long, unsigned long, double, std::__ndk1::allocator, nlohmann::json_abi_v3_11_3::adl_serializer, std::__ndk1::vector<unsigned char, std::__ndk1::allocator<unsigned char> >, void> >, std::__ndk1::less<void>, true>, std::__ndk1::allocator<std::__ndk1::__value_type<std::__ndk1::basic_string<char, std::__ndk1::char_traits<char>, std::__ndk1::allocator<char> >, nlohmann::json_abi_v3_11_3::basic_json<std::__ndk1::map, std::__ndk1::vector, std::__ndk1::basic_string<char, std::__ndk1::char_traits<char>, std::__ndk1::allocator<char> >, bool, long, unsigned long, double, std::__ndk1::allocator, nlohmann::json_abi_v3_11_3::adl_serializer, std::__ndk1::vector<unsigned char, std::__ndk1::allocator<unsigned char> >, void> > > >::__emplace_hint_unique_key_args<std::__ndk1::basic_string<char, std::__ndk1::char_traits<char>, std::__ndk1::allocator<char> >, std::__ndk1::pair<std::__ndk1::basic_string<char, std::__ndk1::char_traits<char>, std::__ndk1::allocator<char> > const, nlohmann::json_abi_v3_11_3::basic_json<std::__ndk1::map, std::__ndk1::vector, std::__ndk1::basic_string<char, std::__ndk1::char_traits<char>, std::__ndk1::allocator<char> >, bool, long, unsigned long, double, std::__ndk1::allocator, nlohmann::json_abi_v3_11_3::adl_serializer, std::__ndk1::vector<unsigned char, std::__ndk1::allocator<unsigned char> >, void> > const&>(std::__ndk1::__tree_const_iterator<std::__ndk1::__value_type<std::__ndk1::basic_string<char, std::__ndk1::char_traits<char>, std::__ndk1::allocator<char> >, nlohmann::json_abi_v3_11_3::basic_json<std::__ndk1::map, std::__ndk1::vector, std::__ndk1::basic_string<char, std::__ndk1::char_traits<char>, std::__ndk1::allocator<char> >, bool, long, unsigned long, double, std::__ndk1::allocator, nlohmann::json_abi_v3_11_3::adl_serializer, std::__ndk1::vector<unsigned char, std::__ndk1::allocator<unsigned char> >, void> >, std::__ndk1::__tree_node<std::__ndk1::__value_type<std::__ndk1::basic_string<char, std::__ndk1::char_traits<char>, std::__ndk1::allocator<char> >, nlohmann::json_abi_v3_11_3::basic_json<std::__ndk1::map, std::__ndk1::vector, std::__ndk1::basic_string<char, std::__ndk1::char_traits<char>, std::__ndk1::allocator<char> >, bool, long, unsigned long, double, std::__ndk1::allocator, nlohmann::json_abi_v3_11_3::adl_serializer, std::__ndk1::vector<unsigned char, std::__ndk1::allocator<unsigned char> >, void> >, void*>*, long>, std::__ndk1::basic_string<char, std::__ndk1::char_traits<char>, std::__ndk1::allocator<char> > const&, std::__ndk1::pair<std::__ndk1::basic_string<char, std::__ndk1::char_traits<char>, std::__ndk1::allocator<char> > const, nlohmann::json_abi_v3_11_3::basic_json<std::__ndk1::map, std::__ndk1::vector, std::__ndk1::basic_string<char, std::__ndk1::char_traits<char>, std::__ndk1::allocator<char> >, bool, long, unsigned long, double, std::__ndk1::allocator, nlohmann::json_abi_v3_11_3::adl_serializer, std::__ndk1::vector<unsigned char, std::__ndk1::allocator<unsigned char> >, void> > const&)
PUBLIC 479ac 0 std::__ndk1::__tree<std::__ndk1::__value_type<std::__ndk1::basic_string<char, std::__ndk1::char_traits<char>, std::__ndk1::allocator<char> >, nlohmann::json_abi_v3_11_3::basic_json<std::__ndk1::map, std::__ndk1::vector, std::__ndk1::basic_string<char, std::__ndk1::char_traits<char>, std::__ndk1::allocator<char> >, bool, long, unsigned long, double, std::__ndk1::allocator, nlohmann::json_abi_v3_11_3::adl_serializer, std::__ndk1::vector<unsigned char, std::__ndk1::allocator<unsigned char> >, void> >, std::__ndk1::__map_value_compare<std::__ndk1::basic_string<char, std::__ndk1::char_traits<char>, std::__ndk1::allocator<char> >, std::__ndk1::__value_type<std::__ndk1::basic_string<char, std::__ndk1::char_traits<char>, std::__ndk1::allocator<char> >, nlohmann::json_abi_v3_11_3::basic_json<std::__ndk1::map, std::__ndk1::vector, std::__ndk1::basic_string<char, std::__ndk1::char_traits<char>, std::__ndk1::allocator<char> >, bool, long, unsigned long, double, std::__ndk1::allocator, nlohmann::json_abi_v3_11_3::adl_serializer, std::__ndk1::vector<unsigned char, std::__ndk1::allocator<unsigned char> >, void> >, std::__ndk1::less<void>, true>, std::__ndk1::allocator<std::__ndk1::__value_type<std::__ndk1::basic_string<char, std::__ndk1::char_traits<char>, std::__ndk1::allocator<char> >, nlohmann::json_abi_v3_11_3::basic_json<std::__ndk1::map, std::__ndk1::vector, std::__ndk1::basic_string<char, std::__ndk1::char_traits<char>, std::__ndk1::allocator<char> >, bool, long, unsigned long, double, std::__ndk1::allocator, nlohmann::json_abi_v3_11_3::adl_serializer, std::__ndk1::vector<unsigned char, std::__ndk1::allocator<unsigned char> >, void> > > >::__find_equal<std::__ndk1::basic_string<char, std::__ndk1::char_traits<char>, std::__ndk1::allocator<char> > >(std::__ndk1::__tree_const_iterator<std::__ndk1::__value_type<std::__ndk1::basic_string<char, std::__ndk1::char_traits<char>, std::__ndk1::allocator<char> >, nlohmann::json_abi_v3_11_3::basic_json<std::__ndk1::map, std::__ndk1::vector, std::__ndk1::basic_string<char, std::__ndk1::char_traits<char>, std::__ndk1::allocator<char> >, bool, long, unsigned long, double, std::__ndk1::allocator, nlohmann::json_abi_v3_11_3::adl_serializer, std::__ndk1::vector<unsigned char, std::__ndk1::allocator<unsigned char> >, void> >, std::__ndk1::__tree_node<std::__ndk1::__value_type<std::__ndk1::basic_string<char, std::__ndk1::char_traits<char>, std::__ndk1::allocator<char> >, nlohmann::json_abi_v3_11_3::basic_json<std::__ndk1::map, std::__ndk1::vector, std::__ndk1::basic_string<char, std::__ndk1::char_traits<char>, std::__ndk1::allocator<char> >, bool, long, unsigned long, double, std::__ndk1::allocator, nlohmann::json_abi_v3_11_3::adl_serializer, std::__ndk1::vector<unsigned char, std::__ndk1::allocator<unsigned char> >, void> >, void*>*, long>, std::__ndk1::__tree_end_node<std::__ndk1::__tree_node_base<void*>*>*&, std::__ndk1::__tree_node_base<void*>*&, std::__ndk1::basic_string<char, std::__ndk1::char_traits<char>, std::__ndk1::allocator<char> > const&)
PUBLIC 47d9c 0 std::__ndk1::unique_ptr<std::__ndk1::__tree_node<std::__ndk1::__value_type<std::__ndk1::basic_string<char, std::__ndk1::char_traits<char>, std::__ndk1::allocator<char> >, nlohmann::json_abi_v3_11_3::basic_json<std::__ndk1::map, std::__ndk1::vector, std::__ndk1::basic_string<char, std::__ndk1::char_traits<char>, std::__ndk1::allocator<char> >, bool, long, unsigned long, double, std::__ndk1::allocator, nlohmann::json_abi_v3_11_3::adl_serializer, std::__ndk1::vector<unsigned char, std::__ndk1::allocator<unsigned char> >, void> >, void*>, std::__ndk1::__tree_node_destructor<std::__ndk1::allocator<std::__ndk1::__tree_node<std::__ndk1::__value_type<std::__ndk1::basic_string<char, std::__ndk1::char_traits<char>, std::__ndk1::allocator<char> >, nlohmann::json_abi_v3_11_3::basic_json<std::__ndk1::map, std::__ndk1::vector, std::__ndk1::basic_string<char, std::__ndk1::char_traits<char>, std::__ndk1::allocator<char> >, bool, long, unsigned long, double, std::__ndk1::allocator, nlohmann::json_abi_v3_11_3::adl_serializer, std::__ndk1::vector<unsigned char, std::__ndk1::allocator<unsigned char> >, void> >, void*> > > >::~unique_ptr[abi:ne180000]()
PUBLIC 47df8 0 std::__ndk1::__tree<std::__ndk1::__value_type<std::__ndk1::basic_string<char, std::__ndk1::char_traits<char>, std::__ndk1::allocator<char> >, nlohmann::json_abi_v3_11_3::basic_json<std::__ndk1::map, std::__ndk1::vector, std::__ndk1::basic_string<char, std::__ndk1::char_traits<char>, std::__ndk1::allocator<char> >, bool, long, unsigned long, double, std::__ndk1::allocator, nlohmann::json_abi_v3_11_3::adl_serializer, std::__ndk1::vector<unsigned char, std::__ndk1::allocator<unsigned char> >, void> >, std::__ndk1::__map_value_compare<std::__ndk1::basic_string<char, std::__ndk1::char_traits<char>, std::__ndk1::allocator<char> >, std::__ndk1::__value_type<std::__ndk1::basic_string<char, std::__ndk1::char_traits<char>, std::__ndk1::allocator<char> >, nlohmann::json_abi_v3_11_3::basic_json<std::__ndk1::map, std::__ndk1::vector, std::__ndk1::basic_string<char, std::__ndk1::char_traits<char>, std::__ndk1::allocator<char> >, bool, long, unsigned long, double, std::__ndk1::allocator, nlohmann::json_abi_v3_11_3::adl_serializer, std::__ndk1::vector<unsigned char, std::__ndk1::allocator<unsigned char> >, void> >, std::__ndk1::less<void>, true>, std::__ndk1::allocator<std::__ndk1::__value_type<std::__ndk1::basic_string<char, std::__ndk1::char_traits<char>, std::__ndk1::allocator<char> >, nlohmann::json_abi_v3_11_3::basic_json<std::__ndk1::map, std::__ndk1::vector, std::__ndk1::basic_string<char, std::__ndk1::char_traits<char>, std::__ndk1::allocator<char> >, bool, long, unsigned long, double, std::__ndk1::allocator, nlohmann::json_abi_v3_11_3::adl_serializer, std::__ndk1::vector<unsigned char, std::__ndk1::allocator<unsigned char> >, void> > > >::destroy(std::__ndk1::__tree_node<std::__ndk1::__value_type<std::__ndk1::basic_string<char, std::__ndk1::char_traits<char>, std::__ndk1::allocator<char> >, nlohmann::json_abi_v3_11_3::basic_json<std::__ndk1::map, std::__ndk1::vector, std::__ndk1::basic_string<char, std::__ndk1::char_traits<char>, std::__ndk1::allocator<char> >, bool, long, unsigned long, double, std::__ndk1::allocator, nlohmann::json_abi_v3_11_3::adl_serializer, std::__ndk1::vector<unsigned char, std::__ndk1::allocator<unsigned char> >, void> >, void*>*)
PUBLIC 47e60 0 std::__ndk1::vector<nlohmann::json_abi_v3_11_3::basic_json<std::__ndk1::map, std::__ndk1::vector, std::__ndk1::basic_string<char, std::__ndk1::char_traits<char>, std::__ndk1::allocator<char> >, bool, long, unsigned long, double, std::__ndk1::allocator, nlohmann::json_abi_v3_11_3::adl_serializer, std::__ndk1::vector<unsigned char, std::__ndk1::allocator<unsigned char> >, void>, std::__ndk1::allocator<nlohmann::json_abi_v3_11_3::basic_json<std::__ndk1::map, std::__ndk1::vector, std::__ndk1::basic_string<char, std::__ndk1::char_traits<char>, std::__ndk1::allocator<char> >, bool, long, unsigned long, double, std::__ndk1::allocator, nlohmann::json_abi_v3_11_3::adl_serializer, std::__ndk1::vector<unsigned char, std::__ndk1::allocator<unsigned char> >, void> > >::__init_with_size[abi:ne180000]<nlohmann::json_abi_v3_11_3::basic_json<std::__ndk1::map, std::__ndk1::vector, std::__ndk1::basic_string<char, std::__ndk1::char_traits<char>, std::__ndk1::allocator<char> >, bool, long, unsigned long, double, std::__ndk1::allocator, nlohmann::json_abi_v3_11_3::adl_serializer, std::__ndk1::vector<unsigned char, std::__ndk1::allocator<unsigned char> >, void>*, std::__ndk1::vector<nlohmann::json_abi_v3_11_3::basic_json<std::__ndk1::map, std::__ndk1::vector, std::__ndk1::basic_string<char, std::__ndk1::char_traits<char>, std::__ndk1::allocator<char> >, bool, long, unsigned long, double, std::__ndk1::allocator, nlohmann::json_abi_v3_11_3::adl_serializer, std::__ndk1::vector<unsigned char, std::__ndk1::allocator<unsigned char> >, void>, std::__ndk1::allocator<nlohmann::json_abi_v3_11_3::basic_json<std::__ndk1::map, std::__ndk1::vector, std::__ndk1::basic_string<char, std::__ndk1::char_traits<char>, std::__ndk1::allocator<char> >, bool, long, unsigned long, double, std::__ndk1::allocator, nlohmann::json_abi_v3_11_3::adl_serializer, std::__ndk1::vector<unsigned char, std::__ndk1::allocator<unsigned char> >, void> > >::__init_with_size[abi:ne180000]>(nlohmann::json_abi_v3_11_3::basic_json<std::__ndk1::map, std::__ndk1::vector, std::__ndk1::basic_string<char, std::__ndk1::char_traits<char>, std::__ndk1::allocator<char> >, bool, long, unsigned long, double, std::__ndk1::allocator, nlohmann::json_abi_v3_11_3::adl_serializer, std::__ndk1::vector<unsigned char, std::__ndk1::allocator<unsigned char> >, void>*, std::__ndk1::vector<nlohmann::json_abi_v3_11_3::basic_json<std::__ndk1::map, std::__ndk1::vector, std::__ndk1::basic_string<char, std::__ndk1::char_traits<char>, std::__ndk1::allocator<char> >, bool, long, unsigned long, double, std::__ndk1::allocator, nlohmann::json_abi_v3_11_3::adl_serializer, std::__ndk1::vector<unsigned char, std::__ndk1::allocator<unsigned char> >, void>, std::__ndk1::allocator<nlohmann::json_abi_v3_11_3::basic_json<std::__ndk1::map, std::__ndk1::vector, std::__ndk1::basic_string<char, std::__ndk1::char_traits<char>, std::__ndk1::allocator<char> >, bool, long, unsigned long, double, std::__ndk1::allocator, nlohmann::json_abi_v3_11_3::adl_serializer, std::__ndk1::vector<unsigned char, std::__ndk1::allocator<unsigned char> >, void> > >::__init_with_size[abi:ne180000], unsigned long)
PUBLIC 47f90 0 std::__ndk1::__exception_guard_exceptions<std::__ndk1::vector<nlohmann::json_abi_v3_11_3::basic_json<std::__ndk1::map, std::__ndk1::vector, std::__ndk1::basic_string<char, std::__ndk1::char_traits<char>, std::__ndk1::allocator<char> >, bool, long, unsigned long, double, std::__ndk1::allocator, nlohmann::json_abi_v3_11_3::adl_serializer, std::__ndk1::vector<unsigned char, std::__ndk1::allocator<unsigned char> >, void>, std::__ndk1::allocator<nlohmann::json_abi_v3_11_3::basic_json<std::__ndk1::map, std::__ndk1::vector, std::__ndk1::basic_string<char, std::__ndk1::char_traits<char>, std::__ndk1::allocator<char> >, bool, long, unsigned long, double, std::__ndk1::allocator, nlohmann::json_abi_v3_11_3::adl_serializer, std::__ndk1::vector<unsigned char, std::__ndk1::allocator<unsigned char> >, void> > >::__destroy_vector>::~__exception_guard_exceptions[abi:ne180000]()
PUBLIC 48004 0 std::__ndk1::__exception_guard_exceptions<std::__ndk1::_AllocatorDestroyRangeReverse<std::__ndk1::allocator<nlohmann::json_abi_v3_11_3::basic_json<std::__ndk1::map, std::__ndk1::vector, std::__ndk1::basic_string<char, std::__ndk1::char_traits<char>, std::__ndk1::allocator<char> >, bool, long, unsigned long, double, std::__ndk1::allocator, nlohmann::json_abi_v3_11_3::adl_serializer, std::__ndk1::vector<unsigned char, std::__ndk1::allocator<unsigned char> >, void> >, nlohmann::json_abi_v3_11_3::basic_json<std::__ndk1::map, std::__ndk1::vector, std::__ndk1::basic_string<char, std::__ndk1::char_traits<char>, std::__ndk1::allocator<char> >, bool, long, unsigned long, double, std::__ndk1::allocator, nlohmann::json_abi_v3_11_3::adl_serializer, std::__ndk1::vector<unsigned char, std::__ndk1::allocator<unsigned char> >, void>*> >::~__exception_guard_exceptions[abi:ne180000]()
PUBLIC 4804c 0 nlohmann::json_abi_v3_11_3::basic_json<std::__ndk1::map, std::__ndk1::vector, std::__ndk1::basic_string<char, std::__ndk1::char_traits<char>, std::__ndk1::allocator<char> >, bool, long, unsigned long, double, std::__ndk1::allocator, nlohmann::json_abi_v3_11_3::adl_serializer, std::__ndk1::vector<unsigned char, std::__ndk1::allocator<unsigned char> >, void>::json_value::destroy(nlohmann::json_abi_v3_11_3::detail::value_t)
PUBLIC 4849c 0 std::__ndk1::vector<nlohmann::json_abi_v3_11_3::basic_json<std::__ndk1::map, std::__ndk1::vector, std::__ndk1::basic_string<char, std::__ndk1::char_traits<char>, std::__ndk1::allocator<char> >, bool, long, unsigned long, double, std::__ndk1::allocator, nlohmann::json_abi_v3_11_3::adl_serializer, std::__ndk1::vector<unsigned char, std::__ndk1::allocator<unsigned char> >, void>, std::__ndk1::allocator<nlohmann::json_abi_v3_11_3::basic_json<std::__ndk1::map, std::__ndk1::vector, std::__ndk1::basic_string<char, std::__ndk1::char_traits<char>, std::__ndk1::allocator<char> >, bool, long, unsigned long, double, std::__ndk1::allocator, nlohmann::json_abi_v3_11_3::adl_serializer, std::__ndk1::vector<unsigned char, std::__ndk1::allocator<unsigned char> >, void> > >::reserve(unsigned long)
PUBLIC 48578 0 std::__ndk1::vector<nlohmann::json_abi_v3_11_3::basic_json<std::__ndk1::map, std::__ndk1::vector, std::__ndk1::basic_string<char, std::__ndk1::char_traits<char>, std::__ndk1::allocator<char> >, bool, long, unsigned long, double, std::__ndk1::allocator, nlohmann::json_abi_v3_11_3::adl_serializer, std::__ndk1::vector<unsigned char, std::__ndk1::allocator<unsigned char> >, void>, std::__ndk1::allocator<nlohmann::json_abi_v3_11_3::basic_json<std::__ndk1::map, std::__ndk1::vector, std::__ndk1::basic_string<char, std::__ndk1::char_traits<char>, std::__ndk1::allocator<char> >, bool, long, unsigned long, double, std::__ndk1::allocator, nlohmann::json_abi_v3_11_3::adl_serializer, std::__ndk1::vector<unsigned char, std::__ndk1::allocator<unsigned char> >, void> > >::~vector[abi:ne180000]()
PUBLIC 485dc 0 std::__ndk1::vector<nlohmann::json_abi_v3_11_3::basic_json<std::__ndk1::map, std::__ndk1::vector, std::__ndk1::basic_string<char, std::__ndk1::char_traits<char>, std::__ndk1::allocator<char> >, bool, long, unsigned long, double, std::__ndk1::allocator, nlohmann::json_abi_v3_11_3::adl_serializer, std::__ndk1::vector<unsigned char, std::__ndk1::allocator<unsigned char> >, void>, std::__ndk1::allocator<nlohmann::json_abi_v3_11_3::basic_json<std::__ndk1::map, std::__ndk1::vector, std::__ndk1::basic_string<char, std::__ndk1::char_traits<char>, std::__ndk1::allocator<char> >, bool, long, unsigned long, double, std::__ndk1::allocator, nlohmann::json_abi_v3_11_3::adl_serializer, std::__ndk1::vector<unsigned char, std::__ndk1::allocator<unsigned char> >, void> > >::__push_back_slow_path<nlohmann::json_abi_v3_11_3::basic_json<std::__ndk1::map, std::__ndk1::vector, std::__ndk1::basic_string<char, std::__ndk1::char_traits<char>, std::__ndk1::allocator<char> >, bool, long, unsigned long, double, std::__ndk1::allocator, nlohmann::json_abi_v3_11_3::adl_serializer, std::__ndk1::vector<unsigned char, std::__ndk1::allocator<unsigned char> >, void> >(nlohmann::json_abi_v3_11_3::basic_json<std::__ndk1::map, std::__ndk1::vector, std::__ndk1::basic_string<char, std::__ndk1::char_traits<char>, std::__ndk1::allocator<char> >, bool, long, unsigned long, double, std::__ndk1::allocator, nlohmann::json_abi_v3_11_3::adl_serializer, std::__ndk1::vector<unsigned char, std::__ndk1::allocator<unsigned char> >, void>&&)
PUBLIC 486fc 0 _ZN8nlohmann16json_abi_v3_11_36detail16invalid_iterator6createIPNS0_10basic_jsonINSt6__ndk13mapENS5_6vectorENS5_12basic_stringIcNS5_11char_traitsIcEENS5_9allocatorIcEEEEblmdSB_NS0_14adl_serializerENS7_IhNSB_IhEEEEvEETnNS5_9enable_ifIXsr21is_basic_json_contextIT_EE5valueEiE4typeELi0EEES2_iRKSD_SK_
PUBLIC 488dc 0 nlohmann::json_abi_v3_11_3::detail::invalid_iterator::~invalid_iterator()
PUBLIC 48914 0 _ZN8nlohmann16json_abi_v3_11_36detail10type_error6createIPNS0_10basic_jsonINSt6__ndk13mapENS5_6vectorENS5_12basic_stringIcNS5_11char_traitsIcEENS5_9allocatorIcEEEEblmdSB_NS0_14adl_serializerENS7_IhNSB_IhEEEEvEETnNS5_9enable_ifIXsr21is_basic_json_contextIT_EE5valueEiE4typeELi0EEES2_iRKSD_SK_
PUBLIC 48afc 0 nlohmann::json_abi_v3_11_3::detail::concat<std::__ndk1::basic_string<char, std::__ndk1::char_traits<char>, std::__ndk1::allocator<char> >, char const (&) [25], char const*>(char const (&) [25], char const*)
PUBLIC 48ba4 0 nlohmann::json_abi_v3_11_3::basic_json<std::__ndk1::map, std::__ndk1::vector, std::__ndk1::basic_string<char, std::__ndk1::char_traits<char>, std::__ndk1::allocator<char> >, bool, long, unsigned long, double, std::__ndk1::allocator, nlohmann::json_abi_v3_11_3::adl_serializer, std::__ndk1::vector<unsigned char, std::__ndk1::allocator<unsigned char> >, void>::type_name() const
PUBLIC 48bd0 0 std::__ndk1::__tree<std::__ndk1::__value_type<std::__ndk1::basic_string<char, std::__ndk1::char_traits<char>, std::__ndk1::allocator<char> >, nlohmann::json_abi_v3_11_3::basic_json<std::__ndk1::map, std::__ndk1::vector, std::__ndk1::basic_string<char, std::__ndk1::char_traits<char>, std::__ndk1::allocator<char> >, bool, long, unsigned long, double, std::__ndk1::allocator, nlohmann::json_abi_v3_11_3::adl_serializer, std::__ndk1::vector<unsigned char, std::__ndk1::allocator<unsigned char> >, void> >, std::__ndk1::__map_value_compare<std::__ndk1::basic_string<char, std::__ndk1::char_traits<char>, std::__ndk1::allocator<char> >, std::__ndk1::__value_type<std::__ndk1::basic_string<char, std::__ndk1::char_traits<char>, std::__ndk1::allocator<char> >, nlohmann::json_abi_v3_11_3::basic_json<std::__ndk1::map, std::__ndk1::vector, std::__ndk1::basic_string<char, std::__ndk1::char_traits<char>, std::__ndk1::allocator<char> >, bool, long, unsigned long, double, std::__ndk1::allocator, nlohmann::json_abi_v3_11_3::adl_serializer, std::__ndk1::vector<unsigned char, std::__ndk1::allocator<unsigned char> >, void> >, std::__ndk1::less<void>, true>, std::__ndk1::allocator<std::__ndk1::__value_type<std::__ndk1::basic_string<char, std::__ndk1::char_traits<char>, std::__ndk1::allocator<char> >, nlohmann::json_abi_v3_11_3::basic_json<std::__ndk1::map, std::__ndk1::vector, std::__ndk1::basic_string<char, std::__ndk1::char_traits<char>, std::__ndk1::allocator<char> >, bool, long, unsigned long, double, std::__ndk1::allocator, nlohmann::json_abi_v3_11_3::adl_serializer, std::__ndk1::vector<unsigned char, std::__ndk1::allocator<unsigned char> >, void> > > >::erase(std::__ndk1::__tree_const_iterator<std::__ndk1::__value_type<std::__ndk1::basic_string<char, std::__ndk1::char_traits<char>, std::__ndk1::allocator<char> >, nlohmann::json_abi_v3_11_3::basic_json<std::__ndk1::map, std::__ndk1::vector, std::__ndk1::basic_string<char, std::__ndk1::char_traits<char>, std::__ndk1::allocator<char> >, bool, long, unsigned long, double, std::__ndk1::allocator, nlohmann::json_abi_v3_11_3::adl_serializer, std::__ndk1::vector<unsigned char, std::__ndk1::allocator<unsigned char> >, void> >, std::__ndk1::__tree_node<std::__ndk1::__value_type<std::__ndk1::basic_string<char, std::__ndk1::char_traits<char>, std::__ndk1::allocator<char> >, nlohmann::json_abi_v3_11_3::basic_json<std::__ndk1::map, std::__ndk1::vector, std::__ndk1::basic_string<char, std::__ndk1::char_traits<char>, std::__ndk1::allocator<char> >, bool, long, unsigned long, double, std::__ndk1::allocator, nlohmann::json_abi_v3_11_3::adl_serializer, std::__ndk1::vector<unsigned char, std::__ndk1::allocator<unsigned char> >, void> >, void*>*, long>)
PUBLIC 48c70 0 nlohmann::json_abi_v3_11_3::detail::type_error::~type_error()
PUBLIC 48ca8 0 std::__ndk1::__tree<std::__ndk1::__value_type<std::__ndk1::basic_string<char, std::__ndk1::char_traits<char>, std::__ndk1::allocator<char> >, nlohmann::json_abi_v3_11_3::basic_json<std::__ndk1::map, std::__ndk1::vector, std::__ndk1::basic_string<char, std::__ndk1::char_traits<char>, std::__ndk1::allocator<char> >, bool, long, unsigned long, double, std::__ndk1::allocator, nlohmann::json_abi_v3_11_3::adl_serializer, std::__ndk1::vector<unsigned char, std::__ndk1::allocator<unsigned char> >, void> >, std::__ndk1::__map_value_compare<std::__ndk1::basic_string<char, std::__ndk1::char_traits<char>, std::__ndk1::allocator<char> >, std::__ndk1::__value_type<std::__ndk1::basic_string<char, std::__ndk1::char_traits<char>, std::__ndk1::allocator<char> >, nlohmann::json_abi_v3_11_3::basic_json<std::__ndk1::map, std::__ndk1::vector, std::__ndk1::basic_string<char, std::__ndk1::char_traits<char>, std::__ndk1::allocator<char> >, bool, long, unsigned long, double, std::__ndk1::allocator, nlohmann::json_abi_v3_11_3::adl_serializer, std::__ndk1::vector<unsigned char, std::__ndk1::allocator<unsigned char> >, void> >, std::__ndk1::less<void>, true>, std::__ndk1::allocator<std::__ndk1::__value_type<std::__ndk1::basic_string<char, std::__ndk1::char_traits<char>, std::__ndk1::allocator<char> >, nlohmann::json_abi_v3_11_3::basic_json<std::__ndk1::map, std::__ndk1::vector, std::__ndk1::basic_string<char, std::__ndk1::char_traits<char>, std::__ndk1::allocator<char> >, bool, long, unsigned long, double, std::__ndk1::allocator, nlohmann::json_abi_v3_11_3::adl_serializer, std::__ndk1::vector<unsigned char, std::__ndk1::allocator<unsigned char> >, void> > > >::__emplace_unique_key_args<std::__ndk1::basic_string<char, std::__ndk1::char_traits<char>, std::__ndk1::allocator<char> >, std::__ndk1::piecewise_construct_t const&, std::__ndk1::tuple<std::__ndk1::basic_string<char, std::__ndk1::char_traits<char>, std::__ndk1::allocator<char> > const&>, std::__ndk1::tuple<> >(std::__ndk1::basic_string<char, std::__ndk1::char_traits<char>, std::__ndk1::allocator<char> > const&, std::__ndk1::piecewise_construct_t const&, std::__ndk1::tuple<std::__ndk1::basic_string<char, std::__ndk1::char_traits<char>, std::__ndk1::allocator<char> > const&>, std::__ndk1::tuple<>)
PUBLIC 48ea0 0 nlohmann::json_abi_v3_11_3::detail::concat<std::__ndk1::basic_string<char, std::__ndk1::char_traits<char>, std::__ndk1::allocator<char> >, char const (&) [23], std::__ndk1::basic_string<char, std::__ndk1::char_traits<char>, std::__ndk1::allocator<char> > >(char const (&) [23], std::__ndk1::basic_string<char, std::__ndk1::char_traits<char>, std::__ndk1::allocator<char> >)
PUBLIC 48f50 0 nlohmann::json_abi_v3_11_3::detail::out_of_range::out_of_range(nlohmann::json_abi_v3_11_3::detail::out_of_range const&)
PUBLIC 48f98 0 nlohmann::json_abi_v3_11_3::detail::json_sax_dom_callback_parser<nlohmann::json_abi_v3_11_3::basic_json<std::__ndk1::map, std::__ndk1::vector, std::__ndk1::basic_string<char, std::__ndk1::char_traits<char>, std::__ndk1::allocator<char> >, bool, long, unsigned long, double, std::__ndk1::allocator, nlohmann::json_abi_v3_11_3::adl_serializer, std::__ndk1::vector<unsigned char, std::__ndk1::allocator<unsigned char> >, void> >::handle_value<double&>(double&, bool)
PUBLIC 491e4 0 nlohmann::json_abi_v3_11_3::detail::json_sax_dom_callback_parser<nlohmann::json_abi_v3_11_3::basic_json<std::__ndk1::map, std::__ndk1::vector, std::__ndk1::basic_string<char, std::__ndk1::char_traits<char>, std::__ndk1::allocator<char> >, bool, long, unsigned long, double, std::__ndk1::allocator, nlohmann::json_abi_v3_11_3::adl_serializer, std::__ndk1::vector<unsigned char, std::__ndk1::allocator<unsigned char> >, void> >::handle_value<bool&>(bool&, bool)
PUBLIC 4942c 0 nlohmann::json_abi_v3_11_3::detail::json_sax_dom_callback_parser<nlohmann::json_abi_v3_11_3::basic_json<std::__ndk1::map, std::__ndk1::vector, std::__ndk1::basic_string<char, std::__ndk1::char_traits<char>, std::__ndk1::allocator<char> >, bool, long, unsigned long, double, std::__ndk1::allocator, nlohmann::json_abi_v3_11_3::adl_serializer, std::__ndk1::vector<unsigned char, std::__ndk1::allocator<unsigned char> >, void> >::handle_value<std::nullptr_t>(std::nullptr_t&&, bool)
PUBLIC 49670 0 nlohmann::json_abi_v3_11_3::detail::json_sax_dom_callback_parser<nlohmann::json_abi_v3_11_3::basic_json<std::__ndk1::map, std::__ndk1::vector, std::__ndk1::basic_string<char, std::__ndk1::char_traits<char>, std::__ndk1::allocator<char> >, bool, long, unsigned long, double, std::__ndk1::allocator, nlohmann::json_abi_v3_11_3::adl_serializer, std::__ndk1::vector<unsigned char, std::__ndk1::allocator<unsigned char> >, void> >::handle_value<long&>(long&, bool)
PUBLIC 498b4 0 nlohmann::json_abi_v3_11_3::detail::json_sax_dom_callback_parser<nlohmann::json_abi_v3_11_3::basic_json<std::__ndk1::map, std::__ndk1::vector, std::__ndk1::basic_string<char, std::__ndk1::char_traits<char>, std::__ndk1::allocator<char> >, bool, long, unsigned long, double, std::__ndk1::allocator, nlohmann::json_abi_v3_11_3::adl_serializer, std::__ndk1::vector<unsigned char, std::__ndk1::allocator<unsigned char> >, void> >::handle_value<std::__ndk1::basic_string<char, std::__ndk1::char_traits<char>, std::__ndk1::allocator<char> >&>(std::__ndk1::basic_string<char, std::__ndk1::char_traits<char>, std::__ndk1::allocator<char> >&, bool)
PUBLIC 49b64 0 nlohmann::json_abi_v3_11_3::detail::json_sax_dom_callback_parser<nlohmann::json_abi_v3_11_3::basic_json<std::__ndk1::map, std::__ndk1::vector, std::__ndk1::basic_string<char, std::__ndk1::char_traits<char>, std::__ndk1::allocator<char> >, bool, long, unsigned long, double, std::__ndk1::allocator, nlohmann::json_abi_v3_11_3::adl_serializer, std::__ndk1::vector<unsigned char, std::__ndk1::allocator<unsigned char> >, void> >::handle_value<unsigned long&>(unsigned long&, bool)
PUBLIC 49dac 0 nlohmann::json_abi_v3_11_3::detail::parse_error::parse_error(nlohmann::json_abi_v3_11_3::detail::parse_error const&)
PUBLIC 49e00 0 nlohmann::json_abi_v3_11_3::detail::parse_error::~parse_error()
PUBLIC 49e38 0 snprintf(char*, unsigned long pass_object_size1, char const*, ...)
PUBLIC 49ed4 0 nlohmann::json_abi_v3_11_3::detail::concat<std::__ndk1::basic_string<char, std::__ndk1::char_traits<char>, std::__ndk1::allocator<char> >, std::__ndk1::basic_string<char, std::__ndk1::char_traits<char>, std::__ndk1::allocator<char> >, char const (&) [12], std::__ndk1::basic_string<char, std::__ndk1::char_traits<char>, std::__ndk1::allocator<char> >, char const (&) [3], std::__ndk1::basic_string<char, std::__ndk1::char_traits<char>, std::__ndk1::allocator<char> >, std::__ndk1::basic_string<char, std::__ndk1::char_traits<char>, std::__ndk1::allocator<char> > const&>(std::__ndk1::basic_string<char, std::__ndk1::char_traits<char>, std::__ndk1::allocator<char> >&&, char const (&) [12], std::__ndk1::basic_string<char, std::__ndk1::char_traits<char>, std::__ndk1::allocator<char> >, char const (&) [3], std::__ndk1::basic_string<char, std::__ndk1::char_traits<char>, std::__ndk1::allocator<char> >, std::__ndk1::basic_string<char, std::__ndk1::char_traits<char>, std::__ndk1::allocator<char> > const&)
PUBLIC 4a090 0 nlohmann::json_abi_v3_11_3::detail::parse_error::position_string(nlohmann::json_abi_v3_11_3::detail::position_t const&)
PUBLIC 4a1bc 0 nlohmann::json_abi_v3_11_3::detail::concat<std::__ndk1::basic_string<char, std::__ndk1::char_traits<char>, std::__ndk1::allocator<char> >, char const (&) [10], std::__ndk1::basic_string<char, std::__ndk1::char_traits<char>, std::__ndk1::allocator<char> >, char const (&) [10], std::__ndk1::basic_string<char, std::__ndk1::char_traits<char>, std::__ndk1::allocator<char> > >(char const (&) [10], std::__ndk1::basic_string<char, std::__ndk1::char_traits<char>, std::__ndk1::allocator<char> >, char const (&) [10], std::__ndk1::basic_string<char, std::__ndk1::char_traits<char>, std::__ndk1::allocator<char> >)
PUBLIC 4a2e8 0 nlohmann::json_abi_v3_11_3::detail::concat<std::__ndk1::basic_string<char, std::__ndk1::char_traits<char>, std::__ndk1::allocator<char> >, char const (&) [15], std::__ndk1::basic_string<char, std::__ndk1::char_traits<char>, std::__ndk1::allocator<char> > const&, char>(char const (&) [15], std::__ndk1::basic_string<char, std::__ndk1::char_traits<char>, std::__ndk1::allocator<char> > const&, char)
PUBLIC 4a3ac 0 nlohmann::json_abi_v3_11_3::detail::concat<std::__ndk1::basic_string<char, std::__ndk1::char_traits<char>, std::__ndk1::allocator<char> >, char const*, char const (&) [15], std::__ndk1::basic_string<char, std::__ndk1::char_traits<char>, std::__ndk1::allocator<char> >, char>(char const*, char const (&) [15], std::__ndk1::basic_string<char, std::__ndk1::char_traits<char>, std::__ndk1::allocator<char> >, char)
PUBLIC 4a4b0 0 nlohmann::json_abi_v3_11_3::detail::json_sax_dom_parser<nlohmann::json_abi_v3_11_3::basic_json<std::__ndk1::map, std::__ndk1::vector, std::__ndk1::basic_string<char, std::__ndk1::char_traits<char>, std::__ndk1::allocator<char> >, bool, long, unsigned long, double, std::__ndk1::allocator, nlohmann::json_abi_v3_11_3::adl_serializer, std::__ndk1::vector<unsigned char, std::__ndk1::allocator<unsigned char> >, void> >::start_object(unsigned long)
PUBLIC 4a7b4 0 nlohmann::json_abi_v3_11_3::detail::json_sax_dom_parser<nlohmann::json_abi_v3_11_3::basic_json<std::__ndk1::map, std::__ndk1::vector, std::__ndk1::basic_string<char, std::__ndk1::char_traits<char>, std::__ndk1::allocator<char> >, bool, long, unsigned long, double, std::__ndk1::allocator, nlohmann::json_abi_v3_11_3::adl_serializer, std::__ndk1::vector<unsigned char, std::__ndk1::allocator<unsigned char> >, void> >::start_array(unsigned long)
PUBLIC 4aab8 0 nlohmann::json_abi_v3_11_3::detail::json_sax_dom_parser<nlohmann::json_abi_v3_11_3::basic_json<std::__ndk1::map, std::__ndk1::vector, std::__ndk1::basic_string<char, std::__ndk1::char_traits<char>, std::__ndk1::allocator<char> >, bool, long, unsigned long, double, std::__ndk1::allocator, nlohmann::json_abi_v3_11_3::adl_serializer, std::__ndk1::vector<unsigned char, std::__ndk1::allocator<unsigned char> >, void> >::parse_error<nlohmann::json_abi_v3_11_3::detail::out_of_range>(unsigned long, std::__ndk1::basic_string<char, std::__ndk1::char_traits<char>, std::__ndk1::allocator<char> > const&, nlohmann::json_abi_v3_11_3::detail::out_of_range const&)
PUBLIC 4ab0c 0 nlohmann::json_abi_v3_11_3::detail::json_sax_dom_parser<nlohmann::json_abi_v3_11_3::basic_json<std::__ndk1::map, std::__ndk1::vector, std::__ndk1::basic_string<char, std::__ndk1::char_traits<char>, std::__ndk1::allocator<char> >, bool, long, unsigned long, double, std::__ndk1::allocator, nlohmann::json_abi_v3_11_3::adl_serializer, std::__ndk1::vector<unsigned char, std::__ndk1::allocator<unsigned char> >, void> >::handle_value<nlohmann::json_abi_v3_11_3::detail::value_t>(nlohmann::json_abi_v3_11_3::detail::value_t&&)
PUBLIC 4ac70 0 std::__ndk1::vector<nlohmann::json_abi_v3_11_3::basic_json<std::__ndk1::map, std::__ndk1::vector, std::__ndk1::basic_string<char, std::__ndk1::char_traits<char>, std::__ndk1::allocator<char> >, bool, long, unsigned long, double, std::__ndk1::allocator, nlohmann::json_abi_v3_11_3::adl_serializer, std::__ndk1::vector<unsigned char, std::__ndk1::allocator<unsigned char> >, void>, std::__ndk1::allocator<nlohmann::json_abi_v3_11_3::basic_json<std::__ndk1::map, std::__ndk1::vector, std::__ndk1::basic_string<char, std::__ndk1::char_traits<char>, std::__ndk1::allocator<char> >, bool, long, unsigned long, double, std::__ndk1::allocator, nlohmann::json_abi_v3_11_3::adl_serializer, std::__ndk1::vector<unsigned char, std::__ndk1::allocator<unsigned char> >, void> > >::__emplace_back_slow_path<nlohmann::json_abi_v3_11_3::detail::value_t>(nlohmann::json_abi_v3_11_3::detail::value_t&&)
PUBLIC 4ae24 0 nlohmann::json_abi_v3_11_3::detail::json_sax_dom_parser<nlohmann::json_abi_v3_11_3::basic_json<std::__ndk1::map, std::__ndk1::vector, std::__ndk1::basic_string<char, std::__ndk1::char_traits<char>, std::__ndk1::allocator<char> >, bool, long, unsigned long, double, std::__ndk1::allocator, nlohmann::json_abi_v3_11_3::adl_serializer, std::__ndk1::vector<unsigned char, std::__ndk1::allocator<unsigned char> >, void> >::handle_value<double&>(double&)
PUBLIC 4af58 0 std::__ndk1::vector<nlohmann::json_abi_v3_11_3::basic_json<std::__ndk1::map, std::__ndk1::vector, std::__ndk1::basic_string<char, std::__ndk1::char_traits<char>, std::__ndk1::allocator<char> >, bool, long, unsigned long, double, std::__ndk1::allocator, nlohmann::json_abi_v3_11_3::adl_serializer, std::__ndk1::vector<unsigned char, std::__ndk1::allocator<unsigned char> >, void>, std::__ndk1::allocator<nlohmann::json_abi_v3_11_3::basic_json<std::__ndk1::map, std::__ndk1::vector, std::__ndk1::basic_string<char, std::__ndk1::char_traits<char>, std::__ndk1::allocator<char> >, bool, long, unsigned long, double, std::__ndk1::allocator, nlohmann::json_abi_v3_11_3::adl_serializer, std::__ndk1::vector<unsigned char, std::__ndk1::allocator<unsigned char> >, void> > >::__emplace_back_slow_path<double&>(double&)
PUBLIC 4b074 0 nlohmann::json_abi_v3_11_3::detail::json_sax_dom_parser<nlohmann::json_abi_v3_11_3::basic_json<std::__ndk1::map, std::__ndk1::vector, std::__ndk1::basic_string<char, std::__ndk1::char_traits<char>, std::__ndk1::allocator<char> >, bool, long, unsigned long, double, std::__ndk1::allocator, nlohmann::json_abi_v3_11_3::adl_serializer, std::__ndk1::vector<unsigned char, std::__ndk1::allocator<unsigned char> >, void> >::handle_value<bool&>(bool&)
PUBLIC 4b1a8 0 std::__ndk1::vector<nlohmann::json_abi_v3_11_3::basic_json<std::__ndk1::map, std::__ndk1::vector, std::__ndk1::basic_string<char, std::__ndk1::char_traits<char>, std::__ndk1::allocator<char> >, bool, long, unsigned long, double, std::__ndk1::allocator, nlohmann::json_abi_v3_11_3::adl_serializer, std::__ndk1::vector<unsigned char, std::__ndk1::allocator<unsigned char> >, void>, std::__ndk1::allocator<nlohmann::json_abi_v3_11_3::basic_json<std::__ndk1::map, std::__ndk1::vector, std::__ndk1::basic_string<char, std::__ndk1::char_traits<char>, std::__ndk1::allocator<char> >, bool, long, unsigned long, double, std::__ndk1::allocator, nlohmann::json_abi_v3_11_3::adl_serializer, std::__ndk1::vector<unsigned char, std::__ndk1::allocator<unsigned char> >, void> > >::__emplace_back_slow_path<bool&>(bool&)
PUBLIC 4b2c0 0 nlohmann::json_abi_v3_11_3::detail::json_sax_dom_parser<nlohmann::json_abi_v3_11_3::basic_json<std::__ndk1::map, std::__ndk1::vector, std::__ndk1::basic_string<char, std::__ndk1::char_traits<char>, std::__ndk1::allocator<char> >, bool, long, unsigned long, double, std::__ndk1::allocator, nlohmann::json_abi_v3_11_3::adl_serializer, std::__ndk1::vector<unsigned char, std::__ndk1::allocator<unsigned char> >, void> >::handle_value<std::nullptr_t>(std::nullptr_t&&)
PUBLIC 4b3d0 0 std::__ndk1::vector<nlohmann::json_abi_v3_11_3::basic_json<std::__ndk1::map, std::__ndk1::vector, std::__ndk1::basic_string<char, std::__ndk1::char_traits<char>, std::__ndk1::allocator<char> >, bool, long, unsigned long, double, std::__ndk1::allocator, nlohmann::json_abi_v3_11_3::adl_serializer, std::__ndk1::vector<unsigned char, std::__ndk1::allocator<unsigned char> >, void>, std::__ndk1::allocator<nlohmann::json_abi_v3_11_3::basic_json<std::__ndk1::map, std::__ndk1::vector, std::__ndk1::basic_string<char, std::__ndk1::char_traits<char>, std::__ndk1::allocator<char> >, bool, long, unsigned long, double, std::__ndk1::allocator, nlohmann::json_abi_v3_11_3::adl_serializer, std::__ndk1::vector<unsigned char, std::__ndk1::allocator<unsigned char> >, void> > >::__emplace_back_slow_path<std::nullptr_t>(std::nullptr_t&&)
PUBLIC 4b4e0 0 nlohmann::json_abi_v3_11_3::detail::json_sax_dom_parser<nlohmann::json_abi_v3_11_3::basic_json<std::__ndk1::map, std::__ndk1::vector, std::__ndk1::basic_string<char, std::__ndk1::char_traits<char>, std::__ndk1::allocator<char> >, bool, long, unsigned long, double, std::__ndk1::allocator, nlohmann::json_abi_v3_11_3::adl_serializer, std::__ndk1::vector<unsigned char, std::__ndk1::allocator<unsigned char> >, void> >::handle_value<long&>(long&)
PUBLIC 4b614 0 std::__ndk1::vector<nlohmann::json_abi_v3_11_3::basic_json<std::__ndk1::map, std::__ndk1::vector, std::__ndk1::basic_string<char, std::__ndk1::char_traits<char>, std::__ndk1::allocator<char> >, bool, long, unsigned long, double, std::__ndk1::allocator, nlohmann::json_abi_v3_11_3::adl_serializer, std::__ndk1::vector<unsigned char, std::__ndk1::allocator<unsigned char> >, void>, std::__ndk1::allocator<nlohmann::json_abi_v3_11_3::basic_json<std::__ndk1::map, std::__ndk1::vector, std::__ndk1::basic_string<char, std::__ndk1::char_traits<char>, std::__ndk1::allocator<char> >, bool, long, unsigned long, double, std::__ndk1::allocator, nlohmann::json_abi_v3_11_3::adl_serializer, std::__ndk1::vector<unsigned char, std::__ndk1::allocator<unsigned char> >, void> > >::__emplace_back_slow_path<long&>(long&)
PUBLIC 4b72c 0 nlohmann::json_abi_v3_11_3::detail::json_sax_dom_parser<nlohmann::json_abi_v3_11_3::basic_json<std::__ndk1::map, std::__ndk1::vector, std::__ndk1::basic_string<char, std::__ndk1::char_traits<char>, std::__ndk1::allocator<char> >, bool, long, unsigned long, double, std::__ndk1::allocator, nlohmann::json_abi_v3_11_3::adl_serializer, std::__ndk1::vector<unsigned char, std::__ndk1::allocator<unsigned char> >, void> >::handle_value<std::__ndk1::basic_string<char, std::__ndk1::char_traits<char>, std::__ndk1::allocator<char> >&>(std::__ndk1::basic_string<char, std::__ndk1::char_traits<char>, std::__ndk1::allocator<char> >&)
PUBLIC 4b9a0 0 std::__ndk1::vector<nlohmann::json_abi_v3_11_3::basic_json<std::__ndk1::map, std::__ndk1::vector, std::__ndk1::basic_string<char, std::__ndk1::char_traits<char>, std::__ndk1::allocator<char> >, bool, long, unsigned long, double, std::__ndk1::allocator, nlohmann::json_abi_v3_11_3::adl_serializer, std::__ndk1::vector<unsigned char, std::__ndk1::allocator<unsigned char> >, void>, std::__ndk1::allocator<nlohmann::json_abi_v3_11_3::basic_json<std::__ndk1::map, std::__ndk1::vector, std::__ndk1::basic_string<char, std::__ndk1::char_traits<char>, std::__ndk1::allocator<char> >, bool, long, unsigned long, double, std::__ndk1::allocator, nlohmann::json_abi_v3_11_3::adl_serializer, std::__ndk1::vector<unsigned char, std::__ndk1::allocator<unsigned char> >, void> > >::__emplace_back_slow_path<std::__ndk1::basic_string<char, std::__ndk1::char_traits<char>, std::__ndk1::allocator<char> >&>(std::__ndk1::basic_string<char, std::__ndk1::char_traits<char>, std::__ndk1::allocator<char> >&)
PUBLIC 4bbb0 0 nlohmann::json_abi_v3_11_3::detail::json_sax_dom_parser<nlohmann::json_abi_v3_11_3::basic_json<std::__ndk1::map, std::__ndk1::vector, std::__ndk1::basic_string<char, std::__ndk1::char_traits<char>, std::__ndk1::allocator<char> >, bool, long, unsigned long, double, std::__ndk1::allocator, nlohmann::json_abi_v3_11_3::adl_serializer, std::__ndk1::vector<unsigned char, std::__ndk1::allocator<unsigned char> >, void> >::handle_value<unsigned long&>(unsigned long&)
PUBLIC 4bce4 0 std::__ndk1::vector<nlohmann::json_abi_v3_11_3::basic_json<std::__ndk1::map, std::__ndk1::vector, std::__ndk1::basic_string<char, std::__ndk1::char_traits<char>, std::__ndk1::allocator<char> >, bool, long, unsigned long, double, std::__ndk1::allocator, nlohmann::json_abi_v3_11_3::adl_serializer, std::__ndk1::vector<unsigned char, std::__ndk1::allocator<unsigned char> >, void>, std::__ndk1::allocator<nlohmann::json_abi_v3_11_3::basic_json<std::__ndk1::map, std::__ndk1::vector, std::__ndk1::basic_string<char, std::__ndk1::char_traits<char>, std::__ndk1::allocator<char> >, bool, long, unsigned long, double, std::__ndk1::allocator, nlohmann::json_abi_v3_11_3::adl_serializer, std::__ndk1::vector<unsigned char, std::__ndk1::allocator<unsigned char> >, void> > >::__emplace_back_slow_path<unsigned long&>(unsigned long&)
PUBLIC 4bdfc 0 nlohmann::json_abi_v3_11_3::basic_json<std::__ndk1::map, std::__ndk1::vector, std::__ndk1::basic_string<char, std::__ndk1::char_traits<char>, std::__ndk1::allocator<char> >, bool, long, unsigned long, double, std::__ndk1::allocator, nlohmann::json_abi_v3_11_3::adl_serializer, std::__ndk1::vector<unsigned char, std::__ndk1::allocator<unsigned char> >, void>::operator[](std::__ndk1::basic_string<char, std::__ndk1::char_traits<char>, std::__ndk1::allocator<char> >)
PUBLIC 4bf60 0 nlohmann::json_abi_v3_11_3::detail::concat<std::__ndk1::basic_string<char, std::__ndk1::char_traits<char>, std::__ndk1::allocator<char> >, char const (&) [51], char const*>(char const (&) [51], char const*)
PUBLIC 4c008 0 std::__ndk1::__tree<std::__ndk1::__value_type<std::__ndk1::basic_string<char, std::__ndk1::char_traits<char>, std::__ndk1::allocator<char> >, nlohmann::json_abi_v3_11_3::basic_json<std::__ndk1::map, std::__ndk1::vector, std::__ndk1::basic_string<char, std::__ndk1::char_traits<char>, std::__ndk1::allocator<char> >, bool, long, unsigned long, double, std::__ndk1::allocator, nlohmann::json_abi_v3_11_3::adl_serializer, std::__ndk1::vector<unsigned char, std::__ndk1::allocator<unsigned char> >, void> >, std::__ndk1::__map_value_compare<std::__ndk1::basic_string<char, std::__ndk1::char_traits<char>, std::__ndk1::allocator<char> >, std::__ndk1::__value_type<std::__ndk1::basic_string<char, std::__ndk1::char_traits<char>, std::__ndk1::allocator<char> >, nlohmann::json_abi_v3_11_3::basic_json<std::__ndk1::map, std::__ndk1::vector, std::__ndk1::basic_string<char, std::__ndk1::char_traits<char>, std::__ndk1::allocator<char> >, bool, long, unsigned long, double, std::__ndk1::allocator, nlohmann::json_abi_v3_11_3::adl_serializer, std::__ndk1::vector<unsigned char, std::__ndk1::allocator<unsigned char> >, void> >, std::__ndk1::less<void>, true>, std::__ndk1::allocator<std::__ndk1::__value_type<std::__ndk1::basic_string<char, std::__ndk1::char_traits<char>, std::__ndk1::allocator<char> >, nlohmann::json_abi_v3_11_3::basic_json<std::__ndk1::map, std::__ndk1::vector, std::__ndk1::basic_string<char, std::__ndk1::char_traits<char>, std::__ndk1::allocator<char> >, bool, long, unsigned long, double, std::__ndk1::allocator, nlohmann::json_abi_v3_11_3::adl_serializer, std::__ndk1::vector<unsigned char, std::__ndk1::allocator<unsigned char> >, void> > > >::__emplace_unique_key_args<std::__ndk1::basic_string<char, std::__ndk1::char_traits<char>, std::__ndk1::allocator<char> >, std::__ndk1::basic_string<char, std::__ndk1::char_traits<char>, std::__ndk1::allocator<char> >, std::nullptr_t>(std::__ndk1::basic_string<char, std::__ndk1::char_traits<char>, std::__ndk1::allocator<char> > const&, std::__ndk1::basic_string<char, std::__ndk1::char_traits<char>, std::__ndk1::allocator<char> >&&, std::nullptr_t)
PUBLIC 4c180 0 _ZN8nlohmann16json_abi_v3_11_36detail10type_error6createIPKNS0_10basic_jsonINSt6__ndk13mapENS5_6vectorENS5_12basic_stringIcNS5_11char_traitsIcEENS5_9allocatorIcEEEEblmdSB_NS0_14adl_serializerENS7_IhNSB_IhEEEEvEETnNS5_9enable_ifIXsr21is_basic_json_contextIT_EE5valueEiE4typeELi0EEES2_iRKSD_SL_
PUBLIC 4c36c 0 nlohmann::json_abi_v3_11_3::detail::concat<std::__ndk1::basic_string<char, std::__ndk1::char_traits<char>, std::__ndk1::allocator<char> >, char const (&) [29], char const*>(char const (&) [29], char const*)
PUBLIC 4c414 0 nlohmann::json_abi_v3_11_3::detail::from_json<nlohmann::json_abi_v3_11_3::basic_json<std::__ndk1::map, std::__ndk1::vector, std::__ndk1::basic_string<char, std::__ndk1::char_traits<char>, std::__ndk1::allocator<char> >, bool, long, unsigned long, double, std::__ndk1::allocator, nlohmann::json_abi_v3_11_3::adl_serializer, std::__ndk1::vector<unsigned char, std::__ndk1::allocator<unsigned char> >, void> >(nlohmann::json_abi_v3_11_3::basic_json<std::__ndk1::map, std::__ndk1::vector, std::__ndk1::basic_string<char, std::__ndk1::char_traits<char>, std::__ndk1::allocator<char> >, bool, long, unsigned long, double, std::__ndk1::allocator, nlohmann::json_abi_v3_11_3::adl_serializer, std::__ndk1::vector<unsigned char, std::__ndk1::allocator<unsigned char> >, void> const&, nlohmann::json_abi_v3_11_3::basic_json<std::__ndk1::map, std::__ndk1::vector, std::__ndk1::basic_string<char, std::__ndk1::char_traits<char>, std::__ndk1::allocator<char> >, bool, long, unsigned long, double, std::__ndk1::allocator, nlohmann::json_abi_v3_11_3::adl_serializer, std::__ndk1::vector<unsigned char, std::__ndk1::allocator<unsigned char> >, void>&::string_t)
PUBLIC 4c5e0 0 _ZNK8nlohmann16json_abi_v3_11_36detail9iter_implINS0_10basic_jsonINSt6__ndk13mapENS4_6vectorENS4_12basic_stringIcNS4_11char_traitsIcEENS4_9allocatorIcEEEEblmdSA_NS0_14adl_serializerENS6_IhNSA_IhEEEEvEEEeqISH_TnNS4_9enable_ifIXoosr3std7is_sameIT_SH_EE5valuesr3std7is_sameISK_NS2_IKSG_EEEE5valueEDnE4typeELDn0EEEbRKSK_
PUBLIC 4c720 0 nlohmann::json_abi_v3_11_3::detail::concat<std::__ndk1::basic_string<char, std::__ndk1::char_traits<char>, std::__ndk1::allocator<char> >, char const (&) [30], char const*>(char const (&) [30], char const*)
PUBLIC 4c7c8 0 _ZN8nlohmann16json_abi_v3_11_36detail16invalid_iterator6createIPKNS0_10basic_jsonINSt6__ndk13mapENS5_6vectorENS5_12basic_stringIcNS5_11char_traitsIcEENS5_9allocatorIcEEEEblmdSB_NS0_14adl_serializerENS7_IhNSB_IhEEEEvEETnNS5_9enable_ifIXsr21is_basic_json_contextIT_EE5valueEiE4typeELi0EEES2_iRKSD_SL_
PUBLIC 4c9ac 0 std::__ndk1::vector<std::__ndk1::vector<float, std::__ndk1::allocator<float> >, std::__ndk1::allocator<std::__ndk1::vector<float, std::__ndk1::allocator<float> > > >::__throw_length_error[abi:ne180000]() const
PUBLIC 4c9c0 0 std::__ndk1::vector<float, std::__ndk1::allocator<float> >::__throw_length_error[abi:ne180000]() const
PUBLIC 4c9d4 0 std::__ndk1::__hash_table<std::__ndk1::__hash_value_type<double, float>, std::__ndk1::__unordered_map_hasher<double, std::__ndk1::__hash_value_type<double, float>, std::__ndk1::hash<double>, std::__ndk1::equal_to<double>, true>, std::__ndk1::__unordered_map_equal<double, std::__ndk1::__hash_value_type<double, float>, std::__ndk1::equal_to<double>, std::__ndk1::hash<double>, true>, std::__ndk1::allocator<std::__ndk1::__hash_value_type<double, float> > >::__emplace_unique_key_args<double, std::__ndk1::piecewise_construct_t const&, std::__ndk1::tuple<double&&>, std::__ndk1::tuple<> >(double const&, std::__ndk1::piecewise_construct_t const&, std::__ndk1::tuple<double&&>, std::__ndk1::tuple<>)
PUBLIC 4ceb0 0 geode::modifier::ModifyDerive<hook216<(anonymous namespace)::hook216Parent>, LevelEditorLayer>::apply()
PUBLIC 4d34c 0 geode::modifier::ModifyBase<geode::modifier::ModifyDerive<hook216<(anonymous namespace)::hook216Parent>, LevelEditorLayer> >::apply()
PUBLIC 4d350 0 geode::Hook::create<void (*)(hook216<(anonymous namespace)::hook216Parent>*, GameObject*)>(void*, void (*)(hook216<(anonymous namespace)::hook216Parent>*, GameObject*), std::__ndk1::basic_string<char, std::__ndk1::char_traits<char>, std::__ndk1::allocator<char> > const&, tulip::hook::TulipConvention, tulip::hook::HookMetadata const&)
PUBLIC 4d4d4 0 geode::modifier::AsStaticFunction_addSpecial<hook216<(anonymous namespace)::hook216Parent>, void (hook216<(anonymous namespace)::hook216Parent>::*)(GameObject*)>::Impl<void (hook216<(anonymous namespace)::hook216Parent>::*)(GameObject*)>::function(hook216<(anonymous namespace)::hook216Parent>*, GameObject*)
PUBLIC 4d778 0 geode::modifier::AsStaticFunction_removeSpecial<hook216<(anonymous namespace)::hook216Parent>, void (hook216<(anonymous namespace)::hook216Parent>::*)(GameObject*)>::Impl<void (hook216<(anonymous namespace)::hook216Parent>::*)(GameObject*)>::function(hook216<(anonymous namespace)::hook216Parent>*, GameObject*)
PUBLIC 4d8f0 0 std::__ndk1::vector<geode::Ref<GameObject>, std::__ndk1::allocator<geode::Ref<GameObject> > >::__throw_length_error[abi:ne180000]() const
PUBLIC 4d904 0 geode::modifier::ModifyDerive<hook244<(anonymous namespace)::hook244Parent>, EditorUI>::apply()
PUBLIC 4df2c 0 geode::modifier::ModifyBase<geode::modifier::ModifyDerive<hook244<(anonymous namespace)::hook244Parent>, EditorUI> >::apply()
PUBLIC 4df30 0 geode::modifier::AsStaticFunction_deselectAll<hook244<(anonymous namespace)::hook244Parent>, void (hook244<(anonymous namespace)::hook244Parent>::*)()>::Impl<void (hook244<(anonymous namespace)::hook244Parent>::*)()>::function(hook244<(anonymous namespace)::hook244Parent>*)
PUBLIC 4dfe8 0 geode::modifier::AsStaticFunction_moveObject<hook244<(anonymous namespace)::hook244Parent>, void (hook244<(anonymous namespace)::hook244Parent>::*)(GameObject*, cocos2d::CCPoint)>::Impl<void (hook244<(anonymous namespace)::hook244Parent>::*)(GameObject*, cocos2d::CCPoint)>::function(hook244<(anonymous namespace)::hook244Parent>*, GameObject*, cocos2d::CCPoint)
PUBLIC 4e0f8 0 getLevelJsonPath(GJGameLevel*)
PUBLIC 4e2fc 0 __cxx_global_var_init
PUBLIC 4e738 0 __cxx_global_var_init.1
PUBLIC 4eb74 0 geode::modifier::ModifyBase<geode::modifier::ModifyDerive<hook20<(anonymous namespace)::hook20Parent>, EditorPauseLayer> >::~ModifyBase()
PUBLIC 4eb90 0 geode::modifier::ModifyBase<geode::modifier::ModifyDerive<hook79<(anonymous namespace)::hook79Parent>, EditLevelLayer> >::~ModifyBase()
PUBLIC 4ebac 0 geode::modifier::ModifyDerive<hook20<(anonymous namespace)::hook20Parent>, EditorPauseLayer>::apply()
PUBLIC 4eeec 0 geode::modifier::ModifyBase<geode::modifier::ModifyDerive<hook20<(anonymous namespace)::hook20Parent>, EditorPauseLayer> >::apply()
PUBLIC 4eef0 0 geode::modifier::AsStaticFunction_saveLevel<hook20<(anonymous namespace)::hook20Parent>, void (hook20<(anonymous namespace)::hook20Parent>::*)()>::Impl<void (hook20<(anonymous namespace)::hook20Parent>::*)()>::function(hook20<(anonymous namespace)::hook20Parent>*)
PUBLIC 4fa4c 0 nlohmann::json_abi_v3_11_3::basic_json<std::__ndk1::map, std::__ndk1::vector, std::__ndk1::basic_string<char, std::__ndk1::char_traits<char>, std::__ndk1::allocator<char> >, bool, long, unsigned long, double, std::__ndk1::allocator, nlohmann::json_abi_v3_11_3::adl_serializer, std::__ndk1::vector<unsigned char, std::__ndk1::allocator<unsigned char> >, void>::dump(int, char, bool, nlohmann::json_abi_v3_11_3::detail::error_handler_t) const
PUBLIC 4fd00 0 std::__ndk1::basic_ofstream<char, std::__ndk1::char_traits<char> >::basic_ofstream(char const*, unsigned int)
PUBLIC 4fe0c 0 std::__ndk1::shared_ptr<nlohmann::json_abi_v3_11_3::detail::output_adapter_protocol<char> >::~shared_ptr[abi:ne180000]()
PUBLIC 4fe5c 0 nlohmann::json_abi_v3_11_3::detail::output_adapter<char, std::__ndk1::basic_string<char, std::__ndk1::char_traits<char>, std::__ndk1::allocator<char> > >::~output_adapter()
PUBLIC 4feac 0 nlohmann::json_abi_v3_11_3::detail::serializer<nlohmann::json_abi_v3_11_3::basic_json<std::__ndk1::map, std::__ndk1::vector, std::__ndk1::basic_string<char, std::__ndk1::char_traits<char>, std::__ndk1::allocator<char> >, bool, long, unsigned long, double, std::__ndk1::allocator, nlohmann::json_abi_v3_11_3::adl_serializer, std::__ndk1::vector<unsigned char, std::__ndk1::allocator<unsigned char> >, void> >::dump(nlohmann::json_abi_v3_11_3::basic_json<std::__ndk1::map, std::__ndk1::vector, std::__ndk1::basic_string<char, std::__ndk1::char_traits<char>, std::__ndk1::allocator<char> >, bool, long, unsigned long, double, std::__ndk1::allocator, nlohmann::json_abi_v3_11_3::adl_serializer, std::__ndk1::vector<unsigned char, std::__ndk1::allocator<unsigned char> >, void> const&, bool, bool, unsigned int, unsigned int)
PUBLIC 511c8 0 nlohmann::json_abi_v3_11_3::detail::serializer<nlohmann::json_abi_v3_11_3::basic_json<std::__ndk1::map, std::__ndk1::vector, std::__ndk1::basic_string<char, std::__ndk1::char_traits<char>, std::__ndk1::allocator<char> >, bool, long, unsigned long, double, std::__ndk1::allocator, nlohmann::json_abi_v3_11_3::adl_serializer, std::__ndk1::vector<unsigned char, std::__ndk1::allocator<unsigned char> >, void> >::~serializer()
PUBLIC 5122c 0 std::__ndk1::__shared_ptr_emplace<nlohmann::json_abi_v3_11_3::detail::output_string_adapter<char, std::__ndk1::basic_string<char, std::__ndk1::char_traits<char>, std::__ndk1::allocator<char> > >, std::__ndk1::allocator<nlohmann::json_abi_v3_11_3::detail::output_string_adapter<char, std::__ndk1::basic_string<char, std::__ndk1::char_traits<char>, std::__ndk1::allocator<char> > > > >::~__shared_ptr_emplace()
PUBLIC 5123c 0 std::__ndk1::__shared_ptr_emplace<nlohmann::json_abi_v3_11_3::detail::output_string_adapter<char, std::__ndk1::basic_string<char, std::__ndk1::char_traits<char>, std::__ndk1::allocator<char> > >, std::__ndk1::allocator<nlohmann::json_abi_v3_11_3::detail::output_string_adapter<char, std::__ndk1::basic_string<char, std::__ndk1::char_traits<char>, std::__ndk1::allocator<char> > > > >::~__shared_ptr_emplace()
PUBLIC 5126c 0 std::__ndk1::__shared_ptr_emplace<nlohmann::json_abi_v3_11_3::detail::output_string_adapter<char, std::__ndk1::basic_string<char, std::__ndk1::char_traits<char>, std::__ndk1::allocator<char> > >, std::__ndk1::allocator<nlohmann::json_abi_v3_11_3::detail::output_string_adapter<char, std::__ndk1::basic_string<char, std::__ndk1::char_traits<char>, std::__ndk1::allocator<char> > > > >::__on_zero_shared()
PUBLIC 51278 0 std::__ndk1::__shared_ptr_emplace<nlohmann::json_abi_v3_11_3::detail::output_string_adapter<char, std::__ndk1::basic_string<char, std::__ndk1::char_traits<char>, std::__ndk1::allocator<char> > >, std::__ndk1::allocator<nlohmann::json_abi_v3_11_3::detail::output_string_adapter<char, std::__ndk1::basic_string<char, std::__ndk1::char_traits<char>, std::__ndk1::allocator<char> > > > >::__on_zero_shared_weak()
PUBLIC 5127c 0 nlohmann::json_abi_v3_11_3::detail::output_string_adapter<char, std::__ndk1::basic_string<char, std::__ndk1::char_traits<char>, std::__ndk1::allocator<char> > >::write_character(char)
PUBLIC 51284 0 nlohmann::json_abi_v3_11_3::detail::output_string_adapter<char, std::__ndk1::basic_string<char, std::__ndk1::char_traits<char>, std::__ndk1::allocator<char> > >::write_characters(char const*, unsigned long)
PUBLIC 5128c 0 nlohmann::json_abi_v3_11_3::detail::output_adapter_protocol<char>::~output_adapter_protocol()
PUBLIC 51290 0 nlohmann::json_abi_v3_11_3::detail::output_string_adapter<char, std::__ndk1::basic_string<char, std::__ndk1::char_traits<char>, std::__ndk1::allocator<char> > >::~output_string_adapter()
PUBLIC 51294 0 nlohmann::json_abi_v3_11_3::detail::serializer<nlohmann::json_abi_v3_11_3::basic_json<std::__ndk1::map, std::__ndk1::vector, std::__ndk1::basic_string<char, std::__ndk1::char_traits<char>, std::__ndk1::allocator<char> >, bool, long, unsigned long, double, std::__ndk1::allocator, nlohmann::json_abi_v3_11_3::adl_serializer, std::__ndk1::vector<unsigned char, std::__ndk1::allocator<unsigned char> >, void> >::dump_escaped(std::__ndk1::basic_string<char, std::__ndk1::char_traits<char>, std::__ndk1::allocator<char> > const&, bool)
PUBLIC 518a4 0 snprintf(char*, unsigned long pass_object_size1, char const*, ...)
PUBLIC 51948 0 _ZN8nlohmann16json_abi_v3_11_36detail10type_error6createIDnTnNSt6__ndk19enable_ifIXsr21is_basic_json_contextIT_EE5valueEiE4typeELi0EEES2_iRKNS4_12basic_stringIcNS4_11char_traitsIcEENS4_9allocatorIcEEEES6_
PUBLIC 51b34 0 nlohmann::json_abi_v3_11_3::detail::concat<std::__ndk1::basic_string<char, std::__ndk1::char_traits<char>, std::__ndk1::allocator<char> >, char const (&) [29], std::__ndk1::basic_string<char, std::__ndk1::char_traits<char>, std::__ndk1::allocator<char> >, char const (&) [5], std::__ndk1::basic_string<char, std::__ndk1::char_traits<char>, std::__ndk1::allocator<char> > >(char const (&) [29], std::__ndk1::basic_string<char, std::__ndk1::char_traits<char>, std::__ndk1::allocator<char> >, char const (&) [5], std::__ndk1::basic_string<char, std::__ndk1::char_traits<char>, std::__ndk1::allocator<char> >)
PUBLIC 51c54 0 nlohmann::json_abi_v3_11_3::detail::concat<std::__ndk1::basic_string<char, std::__ndk1::char_traits<char>, std::__ndk1::allocator<char> >, char const (&) [39], std::__ndk1::basic_string<char, std::__ndk1::char_traits<char>, std::__ndk1::allocator<char> > >(char const (&) [39], std::__ndk1::basic_string<char, std::__ndk1::char_traits<char>, std::__ndk1::allocator<char> >)
PUBLIC 51cfc 0 nlohmann::json_abi_v3_11_3::operator==(nlohmann::json_abi_v3_11_3::basic_json<std::__ndk1::map, std::__ndk1::vector, std::__ndk1::basic_string<char, std::__ndk1::char_traits<char>, std::__ndk1::allocator<char> >, bool, long, unsigned long, double, std::__ndk1::allocator, nlohmann::json_abi_v3_11_3::adl_serializer, std::__ndk1::vector<unsigned char, std::__ndk1::allocator<unsigned char> >, void> const&, nlohmann::json_abi_v3_11_3::basic_json<std::__ndk1::map, std::__ndk1::vector, std::__ndk1::basic_string<char, std::__ndk1::char_traits<char>, std::__ndk1::allocator<char> >, bool, long, unsigned long, double, std::__ndk1::allocator, nlohmann::json_abi_v3_11_3::adl_serializer, std::__ndk1::vector<unsigned char, std::__ndk1::allocator<unsigned char> >, void> const&)
PUBLIC 52144 0 geode::modifier::ModifyDerive<hook79<(anonymous namespace)::hook79Parent>, EditLevelLayer>::apply()
PUBLIC 524cc 0 geode::modifier::ModifyBase<geode::modifier::ModifyDerive<hook79<(anonymous namespace)::hook79Parent>, EditLevelLayer> >::apply()
PUBLIC 524d0 0 geode::modifier::AsStaticFunction_confirmDelete<hook79<(anonymous namespace)::hook79Parent>, void (hook79<(anonymous namespace)::hook79Parent>::*)(cocos2d::CCObject*)>::Impl<void (hook79<(anonymous namespace)::hook79Parent>::*)(cocos2d::CCObject*)>::function(hook79<(anonymous namespace)::hook79Parent>*, cocos2d::CCObject*)
PUBLIC m 5258c 0 geodeImplicitEntry
PUBLIC 525c8 0 std::__ndk1::unordered_map<void*, bool, std::__ndk1::hash<void*>, std::__ndk1::equal_to<void*>, std::__ndk1::allocator<std::__ndk1::pair<void* const, bool> > >::~unordered_map[abi:ne180000]()
PUBLIC 52614 0 wrapFunction(unsigned long, tulip::hook::WrapperMetadata const&)
PUBLIC 52748 0 geode::impl::ResultData<void*, std::__ndk1::basic_string<char, std::__ndk1::char_traits<char>, std::__ndk1::allocator<char> > >::unwrapErr() &
PUBLIC 527c0 0 geode::impl::ResultData<void*, std::__ndk1::basic_string<char, std::__ndk1::char_traits<char>, std::__ndk1::allocator<char> > >::~ResultData()
PUBLIC 52834 0 tulip::hook::WrapperMetadata::~WrapperMetadata()
PUBLIC 52898 0 cocos2d::CCObject::CCObject()
PUBLIC 52aa0 0 cocos2d::CCObject::~CCObject()
PUBLIC 52ac4 0 cocos2d::CCNode::~CCNode()
PUBLIC 52ae8 0 {virtual override thunk({offset(-320)}, cocos2d::CCLayer::~CCLayer())}
PUBLIC 52af0 0 cocos2d::CCLayer::~CCLayer()
PUBLIC 52b14 0 {virtual override thunk({offset(-320)}, cocos2d::CCLayer::~CCLayer())}
PUBLIC 52b3c 0 cocos2d::CCLayerRGBA::~CCLayerRGBA()
PUBLIC 52e14 0 {virtual override thunk({offset(-320)}, cocos2d::CCLayerRGBA::~CCLayerRGBA())}
PUBLIC 52e1c 0 cocos2d::CCLayerRGBA::~CCLayerRGBA()
PUBLIC 52e40 0 {virtual override thunk({offset(-320)}, cocos2d::CCLayerRGBA::~CCLayerRGBA())}
PUBLIC 52e68 0 cocos2d::CCLayerColor::CCLayerColor()
PUBLIC 530b8 0 {virtual override thunk({offset(-320)}, cocos2d::CCLayerColor::~CCLayerColor())}
PUBLIC 530c0 0 cocos2d::CCLayerColor::~CCLayerColor()
PUBLIC 530e4 0 {virtual override thunk({offset(-320)}, cocos2d::CCLayerColor::~CCLayerColor())}
PUBLIC 5310c 0 {virtual override thunk({offset(-320)}, FLAlertLayer::~FLAlertLayer())}
PUBLIC 53114 0 FLAlertLayer::~FLAlertLayer()
PUBLIC 53138 0 {virtual override thunk({offset(-320)}, FLAlertLayer::~FLAlertLayer())}
PUBLIC 53160 0 FLAlertLayer::create(FLAlertLayerProtocol*, char const*, gd::string, char const*, char const*, float)
PUBLIC 53318 0 tulip::hook::AbstractFunction::from<FLAlertLayer*, FLAlertLayerProtocol*, char const*, gd::string, char const*, char const*, float>(FLAlertLayer* (*)(FLAlertLayerProtocol*, char const*, gd::string, char const*, char const*, float))
PUBLIC 537fc 0 UndoObject::~UndoObject()
PUBLIC 53844 0 UndoObject::~UndoObject()
PUBLIC 53894 0 UndoObject::createWithArray(cocos2d::CCArray*, UndoCommand)
PUBLIC 5392c 0 cocos2d::CCObject::update(float)
PUBLIC 53930 0 cocos2d::CCLayerColor::~CCLayerColor()
PUBLIC 53bec 0 FLAlertLayer::~FLAlertLayer()
PUBLIC 53ea8 0 cocos2d::CCNode::~CCNode()
PUBLIC 54120 0 cocos2d::CCLayer::~CCLayer()
PUBLIC 543e8 0 cocos2d::CCObject::~CCObject()
PUBLIC 548b4 0 _ZN5geode15UnwrapExceptionC2IRPvQsr4implE18IsStringStreamableIT_EEENS_4impl5OkTagEOS4_
PUBLIC 54a08 0 _ZN5geode15UnwrapExceptionC2IRNSt6__ndk112basic_stringIcNS2_11char_traitsIcEENS2_9allocatorIcEEEEQsr4implE18IsStringStreamableIT_EEENS_4impl6ErrTagEOSA_
PUBLIC 54b70 0 std::__ndk1::__variant_detail::__visitation::__base::__dispatcher<(unsigned long)0>::__dispatch[abi:ne180000]<std::__ndk1::__variant_detail::__dtor<std::__ndk1::__variant_detail::__traits<void*, std::__ndk1::basic_string<char, std::__ndk1::char_traits<char>, std::__ndk1::allocator<char> > >, (std::__ndk1::__variant_detail::_Trait)1>::__destroy[abi:ne180000]()::{lambda(auto:1&)#1}, std::__ndk1::__variant_detail::__base<(std::__ndk1::__variant_detail::__traits<void*, std::__ndk1::basic_string<char, std::__ndk1::char_traits<char>, std::__ndk1::allocator<char> > >)1, std::__ndk1::__variant_detail::__traits, std::__ndk1::allocator<char> >&>(std::__ndk1::__variant_detail::__dtor<std::__ndk1::__variant_detail::__traits<void*, std::__ndk1::basic_string<char, std::__ndk1::char_traits<char>, std::__ndk1::allocator<char> > >, (std::__ndk1::__variant_detail::_Trait)1>, std::__ndk1::__variant_detail::__base<(std::__ndk1::__variant_detail::__traits<void*, std::__ndk1::basic_string<char, std::__ndk1::char_traits<char>, std::__ndk1::allocator<char> > >)1, std::__ndk1::__variant_detail::__traits, std::__ndk1::allocator<char> >&)
PUBLIC 54b74 0 std::__ndk1::__variant_detail::__visitation::__base::__dispatcher<(unsigned long)1>::__dispatch[abi:ne180000]<std::__ndk1::__variant_detail::__dtor<std::__ndk1::__variant_detail::__traits<void*, std::__ndk1::basic_string<char, std::__ndk1::char_traits<char>, std::__ndk1::allocator<char> > >, (std::__ndk1::__variant_detail::_Trait)1>::__destroy[abi:ne180000]()::{lambda(auto:1&)#1}, std::__ndk1::__variant_detail::__base<(std::__ndk1::__variant_detail::__traits<void*, std::__ndk1::basic_string<char, std::__ndk1::char_traits<char>, std::__ndk1::allocator<char> > >)1, std::__ndk1::__variant_detail::__traits, std::__ndk1::allocator<char> >&>(std::__ndk1::__variant_detail::__dtor<std::__ndk1::__variant_detail::__traits<void*, std::__ndk1::basic_string<char, std::__ndk1::char_traits<char>, std::__ndk1::allocator<char> > >, (std::__ndk1::__variant_detail::_Trait)1>, std::__ndk1::__variant_detail::__base<(std::__ndk1::__variant_detail::__traits<void*, std::__ndk1::basic_string<char, std::__ndk1::char_traits<char>, std::__ndk1::allocator<char> > >)1, std::__ndk1::__variant_detail::__traits, std::__ndk1::allocator<char> >&)
PUBLIC 54b88 0 std::__ndk1::__hash_table<std::__ndk1::__hash_value_type<void*, bool>, std::__ndk1::__unordered_map_hasher<void*, std::__ndk1::__hash_value_type<void*, bool>, std::__ndk1::hash<void*>, std::__ndk1::equal_to<void*>, true>, std::__ndk1::__unordered_map_equal<void*, std::__ndk1::__hash_value_type<void*, bool>, std::__ndk1::equal_to<void*>, std::__ndk1::hash<void*>, true>, std::__ndk1::allocator<std::__ndk1::__hash_value_type<void*, bool> > >::__emplace_unique_key_args<void*, std::__ndk1::piecewise_construct_t const&, std::__ndk1::tuple<void* const&>, std::__ndk1::tuple<> >(void* const&, std::__ndk1::piecewise_construct_t const&, std::__ndk1::tuple<void* const&>, std::__ndk1::tuple<>)
PUBLIC 55068 0 __CortexA53843419_53004
PUBLIC 55070 0 <.plt ELF section in willy.midi-importer.android64.so>
STACK CFI INIT 24ba0 10 .cfa: sp 0 +
STACK CFI INIT 24bb0 8 .cfa: sp 0 +
STACK CFI INIT 24bb8 8 .cfa: sp 0 +
STACK CFI INIT 24bc0 14 .cfa: sp 0 +
STACK CFI INIT 24bd4 1c .cfa: sp 0 +
STACK CFI INIT 24bf0 10 .cfa: sp 0 +
STACK CFI INIT 24c00 134 .cfa: sp 0 +
STACK CFI INIT 24d34 84 .cfa: sp 0 +
STACK CFI INIT 24db8 f4 .cfa: sp 0 +
STACK CFI INIT 24eac a8 .cfa: sp 0 +
STACK CFI INIT 24f54 7c .cfa: sp 0 +
STACK CFI INIT 24fd0 14 .cfa: sp 0 +
STACK CFI INIT 24fe4 40 .cfa: sp 0 +
STACK CFI INIT 25024 28 .cfa: sp 0 +
STACK CFI INIT 2504c 190 .cfa: sp 0 +
STACK CFI INIT 251dc 2c8 .cfa: sp 0 +
STACK CFI INIT 254a4 8 .cfa: sp 0 +
STACK CFI INIT 254ac 8 .cfa: sp 0 +
STACK CFI INIT 254b4 44 .cfa: sp 0 +
STACK CFI INIT 254f8 e8 .cfa: sp 0 +
STACK CFI INIT 255e0 e8 .cfa: sp 0 +
STACK CFI INIT 256c8 14 .cfa: sp 0 +
STACK CFI INIT 256dc 10 .cfa: sp 0 +
STACK CFI INIT 256ec 10 .cfa: sp 0 +
STACK CFI INIT 256fc f0 .cfa: sp 0 +
STACK CFI INIT 257ec 44 .cfa: sp 0 +
STACK CFI INIT 25830 c .cfa: sp 0 +
STACK CFI INIT 2583c c .cfa: sp 0 +
STACK CFI INIT 25848 2c .cfa: sp 0 +
STACK CFI INIT 25874 280 .cfa: sp 0 +
STACK CFI INIT 25af4 c .cfa: sp 0 +
STACK CFI INIT 25b00 120 .cfa: sp 0 +
STACK CFI INIT 25c20 488 .cfa: sp 0 +
STACK CFI INIT 260a8 c48 .cfa: sp 0 +
STACK CFI INIT 26cf0 134 .cfa: sp 0 +
STACK CFI INIT 26e24 210 .cfa: sp 0 +
STACK CFI INIT 27034 38c .cfa: sp 0 +
STACK CFI INIT 273c0 1c8 .cfa: sp 0 +
STACK CFI INIT 27588 9bc .cfa: sp 0 +
STACK CFI INIT 27f44 2d4 .cfa: sp 0 +
STACK CFI INIT 28218 134 .cfa: sp 0 +
STACK CFI INIT 2834c 120 .cfa: sp 0 +
STACK CFI INIT 2846c 1c8 .cfa: sp 0 +
STACK CFI INIT 28634 168 .cfa: sp 0 +
STACK CFI INIT 2879c fc .cfa: sp 0 +
STACK CFI INIT 28898 30 .cfa: sp 0 +
STACK CFI INIT 289f4 1c .cfa: sp 0 +
STACK CFI INIT 28c00 50 .cfa: sp 0 +
STACK CFI 28c04 .cfa: sp 32 +
STACK CFI 28c0c .cfa: x29 32 + x19: .cfa -8 + ^ x20: .cfa -16 + ^ .ra: .cfa -24 + ^ x29: .cfa -32 + ^
STACK CFI 28c44 .cfa: sp 32 +
STACK CFI 28c4c .cfa: sp 0 +
STACK CFI INIT 28c50 50 .cfa: sp 0 +
STACK CFI 28c54 .cfa: sp 32 +
STACK CFI 28c5c .cfa: x29 32 + x19: .cfa -8 + ^ x20: .cfa -16 + ^ .ra: .cfa -24 + ^ x29: .cfa -32 + ^
STACK CFI 28c94 .cfa: sp 32 +
STACK CFI 28c9c .cfa: sp 0 +
STACK CFI INIT 29a34 1d4 .cfa: sp 0 +
STACK CFI 29a38 .cfa: sp 96 +
STACK CFI 29a50 .cfa: x29 96 + x19: .cfa -8 + ^ x20: .cfa -16 + ^ x21: .cfa -24 + ^ x22: .cfa -32 + ^ x23: .cfa -40 + ^ x24: .cfa -48 + ^ x25: .cfa -56 + ^ x26: .cfa -64 + ^ x27: .cfa -72 + ^ x28: .cfa -80 + ^ .ra: .cfa -88 + ^ x29: .cfa -96 + ^
STACK CFI 29bec .cfa: sp 96 +
STACK CFI 29c04 .cfa: sp 0 +
STACK CFI INIT 2c038 80 .cfa: sp 0 +
STACK CFI 2c03c .cfa: sp 48 +
STACK CFI 2c048 .cfa: x29 48 + x19: .cfa -8 + ^ x20: .cfa -16 + ^ x21: .cfa -32 + ^ .ra: .cfa -40 + ^ x29: .cfa -48 + ^
STACK CFI 2c0a8 .cfa: sp 48 +
STACK CFI 2c0b4 .cfa: sp 0 +
STACK CFI INIT 2c0b8 ac .cfa: sp 0 +
STACK CFI 2c0bc .cfa: sp 80 +
STACK CFI 2c0cc .cfa: x29 48 + x19: .cfa -8 + ^ x20: .cfa -16 + ^ x21: .cfa -32 + ^ .ra: .cfa -40 + ^ x29: .cfa -48 + ^
STACK CFI 2c14c .cfa: sp 80 +
STACK CFI 2c15c .cfa: sp 0 +
STACK CFI 2c160 .cfa: x29 48 +
STACK CFI INIT 2c164 ac .cfa: sp 0 +
STACK CFI 2c168 .cfa: sp 80 +
STACK CFI 2c178 .cfa: x29 48 + x19: .cfa -8 + ^ x20: .cfa -16 + ^ x21: .cfa -32 + ^ .ra: .cfa -40 + ^ x29: .cfa -48 + ^
STACK CFI 2c1f8 .cfa: sp 80 +
STACK CFI 2c208 .cfa: sp 0 +
STACK CFI 2c20c .cfa: x29 48 +
STACK CFI INIT 2c210 10c .cfa: sp 0 +
STACK CFI 2c214 .cfa: sp 64 +
STACK CFI 2c224 .cfa: x29 48 + x19: .cfa -8 + ^ x20: .cfa -16 + ^ x21: .cfa -32 + ^ .ra: .cfa -40 + ^ x29: .cfa -48 + ^
STACK CFI 2c304 .cfa: sp 64 +
STACK CFI 2c314 .cfa: sp 0 +
STACK CFI 2c318 .cfa: x29 48 +
STACK CFI INIT 2c31c 10c .cfa: sp 0 +
STACK CFI 2c320 .cfa: sp 64 +
STACK CFI 2c330 .cfa: x29 48 + x19: .cfa -8 + ^ x20: .cfa -16 + ^ x21: .cfa -32 + ^ .ra: .cfa -40 + ^ x29: .cfa -48 + ^
STACK CFI 2c410 .cfa: sp 64 +
STACK CFI 2c420 .cfa: sp 0 +
STACK CFI 2c424 .cfa: x29 48 +
STACK CFI INIT 2c428 7c .cfa: sp 0 +
STACK CFI 2c42c .cfa: sp 64 +
STACK CFI 2c43c .cfa: x29 48 + x19: .cfa -8 + ^ x20: .cfa -16 + ^ x21: .cfa -32 + ^ .ra: .cfa -40 + ^ x29: .cfa -48 + ^
STACK CFI 2c48c .cfa: sp 64 +
STACK CFI 2c49c .cfa: sp 0 +
STACK CFI 2c4a0 .cfa: x29 48 +
STACK CFI INIT 2c4a4 78 .cfa: sp 0 +
STACK CFI 2c4a8 .cfa: sp 64 +
STACK CFI 2c4b8 .cfa: x29 48 + x19: .cfa -8 + ^ x20: .cfa -16 + ^ x21: .cfa -32 + ^ .ra: .cfa -40 + ^ x29: .cfa -48 + ^
STACK CFI 2c504 .cfa: sp 64 +
STACK CFI 2c514 .cfa: sp 0 +
STACK CFI 2c518 .cfa: x29 48 +
STACK CFI INIT 2c51c 7c .cfa: sp 0 +
STACK CFI 2c520 .cfa: sp 64 +
STACK CFI 2c530 .cfa: x29 48 + x19: .cfa -8 + ^ x20: .cfa -16 + ^ x21: .cfa -32 + ^ .ra: .cfa -40 + ^ x29: .cfa -48 + ^
STACK CFI 2c580 .cfa: sp 64 +
STACK CFI 2c590 .cfa: sp 0 +
STACK CFI 2c594 .cfa: x29 48 +
STACK CFI INIT 2c598 78 .cfa: sp 0 +
STACK CFI 2c59c .cfa: sp 64 +
STACK CFI 2c5ac .cfa: x29 48 + x19: .cfa -8 + ^ x20: .cfa -16 + ^ x21: .cfa -32 + ^ .ra: .cfa -40 + ^ x29: .cfa -48 + ^
STACK CFI 2c5f8 .cfa: sp 64 +
STACK CFI 2c608 .cfa: sp 0 +
STACK CFI 2c60c .cfa: x29 48 +
STACK CFI INIT 2c610 b4 .cfa: sp 0 +
STACK CFI 2c614 .cfa: sp 96 +
STACK CFI 2c628 .cfa: x29 64 + x19: .cfa -8 + ^ x20: .cfa -16 + ^ x21: .cfa -24 + ^ x22: .cfa -32 + ^ x23: .cfa -48 + ^ .ra: .cfa -56 + ^ x29: .cfa -64 + ^
STACK CFI 2c6a8 .cfa: sp 96 +
STACK CFI 2c6bc .cfa: sp 0 +
STACK CFI 2c6c0 .cfa: x29 64 +
STACK CFI INIT 2c6c4 b0 .cfa: sp 0 +
STACK CFI 2c6c8 .cfa: sp 96 +
STACK CFI 2c6dc .cfa: x29 64 + x19: .cfa -8 + ^ x20: .cfa -16 + ^ x21: .cfa -24 + ^ x22: .cfa -32 + ^ x23: .cfa -48 + ^ .ra: .cfa -56 + ^ x29: .cfa -64 + ^
STACK CFI 2c758 .cfa: sp 96 +
STACK CFI 2c76c .cfa: sp 0 +
STACK CFI 2c770 .cfa: x29 64 +
STACK CFI INIT 2c774 b4 .cfa: sp 0 +
STACK CFI 2c778 .cfa: sp 96 +
STACK CFI 2c78c .cfa: x29 64 + x19: .cfa -8 + ^ x20: .cfa -16 + ^ x21: .cfa -24 + ^ x22: .cfa -32 + ^ x23: .cfa -48 + ^ .ra: .cfa -56 + ^ x29: .cfa -64 + ^
STACK CFI 2c80c .cfa: sp 96 +
STACK CFI 2c820 .cfa: sp 0 +
STACK CFI 2c824 .cfa: x29 64 +
STACK CFI INIT 2c828 b0 .cfa: sp 0 +
STACK CFI 2c82c .cfa: sp 96 +
STACK CFI 2c840 .cfa: x29 64 + x19: .cfa -8 + ^ x20: .cfa -16 + ^ x21: .cfa -24 + ^ x22: .cfa -32 + ^ x23: .cfa -48 + ^ .ra: .cfa -56 + ^ x29: .cfa -64 + ^
STACK CFI 2c8bc .cfa: sp 96 +
STACK CFI 2c8d0 .cfa: sp 0 +
STACK CFI 2c8d4 .cfa: x29 64 +
STACK CFI INIT 2cc58 10 .cfa: sp 0 +
STACK CFI 2cc5c .cfa: sp 16 +
STACK CFI 2cc60 .cfa: x29 16 + .ra: .cfa -8 + ^ x29: .cfa -16 + ^
STACK CFI INIT 2cc68 14 .cfa: sp 0 +
STACK CFI 2cc6c .cfa: sp 16 +
STACK CFI 2cc70 .cfa: x29 16 + .ra: .cfa -8 + ^ x29: .cfa -16 + ^
STACK CFI INIT 2cccc 30 .cfa: sp 0 +
STACK CFI 2ccd0 .cfa: sp 32 +
STACK CFI 2ccd8 .cfa: x29 32 + x19: .cfa -16 + ^ .ra: .cfa -24 + ^ x29: .cfa -32 + ^
STACK CFI 2ccf0 .cfa: sp 32 +
STACK CFI 2ccf8 .cfa: sp 0 +
STACK CFI INIT 2ccfc 14 .cfa: sp 0 +
STACK CFI 2cd00 .cfa: sp 16 +
STACK CFI 2cd04 .cfa: x29 16 + .ra: .cfa -8 + ^ x29: .cfa -16 + ^
STACK CFI INIT 2cd60 30 .cfa: sp 0 +
STACK CFI 2cd64 .cfa: sp 32 +
STACK CFI 2cd6c .cfa: x29 32 + x19: .cfa -16 + ^ .ra: .cfa -24 + ^ x29: .cfa -32 + ^
STACK CFI 2cd84 .cfa: sp 32 +
STACK CFI 2cd8c .cfa: sp 0 +
STACK CFI INIT 2ce98 14 .cfa: sp 0 +
STACK CFI 2ce9c .cfa: sp 16 +
STACK CFI 2cea0 .cfa: x29 16 + .ra: .cfa -8 + ^ x29: .cfa -16 + ^
STACK CFI INIT 2ceac 120 .cfa: sp 0 +
STACK CFI 2ceb0 .cfa: sp 64 +
STACK CFI 2cec0 .cfa: x29 64 + x19: .cfa -8 + ^ x20: .cfa -16 + ^ x21: .cfa -24 + ^ x22: .cfa -32 + ^ x23: .cfa -48 + ^ .ra: .cfa -56 + ^ x29: .cfa -64 + ^
STACK CFI 2cf9c .cfa: sp 64 +
STACK CFI 2cfac .cfa: sp 0 +
STACK CFI 2cfb0 .cfa: sp 64 +
STACK CFI 2cfc0 .cfa: sp 0 +
STACK CFI 2cfc4 .cfa: x29 64 +
STACK CFI INIT 2cfcc cc .cfa: sp 0 +
STACK CFI 2cfd0 .cfa: sp 64 +
STACK CFI 2cfe0 .cfa: x29 64 + x19: .cfa -8 + ^ x20: .cfa -16 + ^ x21: .cfa -24 + ^ x22: .cfa -32 + ^ x23: .cfa -40 + ^ x24: .cfa -48 + ^ .ra: .cfa -56 + ^ x29: .cfa -64 + ^
STACK CFI 2d070 .cfa: sp 64 +
STACK CFI 2d080 .cfa: sp 0 +
STACK CFI 2d084 .cfa: sp 64 +
STACK CFI 2d094 .cfa: sp 0 +
STACK CFI INIT 2d098 a8 .cfa: sp 0 +
STACK CFI 2d09c .cfa: sp 64 +
STACK CFI 2d0ac .cfa: x29 64 + x19: .cfa -8 + ^ x20: .cfa -16 + ^ x21: .cfa -24 + ^ x22: .cfa -32 + ^ x23: .cfa -40 + ^ x24: .cfa -48 + ^ .ra: .cfa -56 + ^ x29: .cfa -64 + ^
STACK CFI 2d12c .cfa: sp 64 +
STACK CFI 2d13c .cfa: sp 0 +
STACK CFI INIT 2d2f4 190 .cfa: sp 0 +
STACK CFI 2d2f8 .cfa: sp 80 +
STACK CFI 2d30c .cfa: x29 80 + x19: .cfa -8 + ^ x20: .cfa -16 + ^ x21: .cfa -24 + ^ x22: .cfa -32 + ^ x23: .cfa -40 + ^ x24: .cfa -48 + ^ x25: .cfa -56 + ^ x26: .cfa -64 + ^ .ra: .cfa -72 + ^ x29: .cfa -80 + ^
STACK CFI 2d460 .cfa: sp 80 +
STACK CFI 2d474 .cfa: sp 0 +
STACK CFI 2d478 .cfa: x29 80 +
STACK CFI INIT 2d484 2a4 .cfa: sp 0 +
STACK CFI INIT 2d728 14 .cfa: sp 0 +
STACK CFI 2d72c .cfa: sp 16 +
STACK CFI 2d730 .cfa: x29 16 + .ra: .cfa -8 + ^ x29: .cfa -16 + ^
STACK CFI INIT 2d73c 34 .cfa: sp 0 +
STACK CFI 2d740 .cfa: sp 32 +
STACK CFI 2d748 .cfa: x29 32 + x19: .cfa -16 + ^ .ra: .cfa -24 + ^ x29: .cfa -32 + ^
STACK CFI INIT 2d770 18 .cfa: sp 0 +
STACK CFI INIT 2d8b4 2c .cfa: sp 0 +
STACK CFI INIT 2df94 210 .cfa: sp 0 +
STACK CFI 2df98 .cfa: sp 112 +
STACK CFI 2dfb0 .cfa: x29 80 + x19: .cfa -8 + ^ x20: .cfa -16 + ^ x21: .cfa -24 + ^ x22: .cfa -32 + ^ x23: .cfa -40 + ^ x24: .cfa -48 + ^ x25: .cfa -56 + ^ x26: .cfa -64 + ^ .ra: .cfa -72 + ^ x29: .cfa -80 + ^
STACK CFI 2e048 .cfa: sp 112 +
STACK CFI 2e04c .cfa: x29 80 +
STACK CFI 2e064 .cfa: sp 112 +
STACK CFI 2e07c .cfa: sp 0 +
STACK CFI 2e080 .cfa: x29 80 +
STACK CFI 2e0d0 .cfa: sp 112 +
STACK CFI 2e0e8 .cfa: sp 0 +
STACK CFI 2e0ec .cfa: x29 80 +
STACK CFI 2e154 .cfa: sp 112 +
STACK CFI 2e16c .cfa: sp 0 +
STACK CFI 2e170 .cfa: x29 80 +
STACK CFI INIT 2e1a4 58 .cfa: sp 0 +
STACK CFI 2e1a8 .cfa: sp 32 +
STACK CFI 2e1b0 .cfa: x29 32 + x19: .cfa -8 + ^ x20: .cfa -16 + ^ .ra: .cfa -24 + ^ x29: .cfa -32 + ^
STACK CFI 2e1f0 .cfa: sp 32 +
STACK CFI 2e1f8 .cfa: sp 0 +
STACK CFI INIT 304f0 18c .cfa: sp 0 +
STACK CFI 304f4 .cfa: sp 64 +
STACK CFI 30504 .cfa: x29 64 + x19: .cfa -8 + ^ x20: .cfa -16 + ^ x21: .cfa -24 + ^ x22: .cfa -32 + ^ x23: .cfa -40 + ^ x24: .cfa -48 + ^ .ra: .cfa -56 + ^ x29: .cfa -64 + ^
STACK CFI 30534 .cfa: sp 64 +
STACK CFI 30544 .cfa: sp 0 +
STACK CFI 30548 .cfa: x29 64 +
STACK CFI 3057c .cfa: sp 64 +
STACK CFI 3058c .cfa: sp 0 +
STACK CFI 30590 .cfa: x29 64 +
STACK CFI 305c4 .cfa: sp 64 +
STACK CFI 305d4 .cfa: sp 0 +
STACK CFI 305d8 .cfa: x29 64 +
STACK CFI 3060c .cfa: sp 64 +
STACK CFI 3061c .cfa: sp 0 +
STACK CFI 30620 .cfa: x29 64 +
STACK CFI 30650 .cfa: sp 64 +
STACK CFI 30660 .cfa: sp 0 +
STACK CFI 30664 .cfa: x29 64 +
STACK CFI 30668 .cfa: sp 64 +
STACK CFI 30678 .cfa: sp 0 +
STACK CFI INIT 3067c d0 .cfa: sp 0 +
STACK CFI INIT 309ac 1b8 .cfa: sp 0 +
STACK CFI 309b0 .cfa: sp 80 +
STACK CFI 309c4 .cfa: x29 80 + x19: .cfa -8 + ^ x20: .cfa -16 + ^ x21: .cfa -24 + ^ x22: .cfa -32 + ^ x23: .cfa -40 + ^ x24: .cfa -48 + ^ x25: .cfa -64 + ^ .ra: .cfa -72 + ^ x29: .cfa -80 + ^
STACK CFI 30b44 .cfa: sp 80 +
STACK CFI 30b58 .cfa: sp 0 +
STACK CFI 30b5c .cfa: x29 80 +
STACK CFI INIT 31854 18 .cfa: sp 0 +
STACK CFI INIT 3186c 168 .cfa: sp 0 +
STACK CFI 31870 .cfa: sp 32 +
STACK CFI 31878 .cfa: x29 32 + x19: .cfa -8 + ^ x20: .cfa -16 + ^ .ra: .cfa -24 + ^ x29: .cfa -32 + ^
STACK CFI 31910 .cfa: sp 32 +
STACK CFI 31918 .cfa: sp 0 +
STACK CFI 3191c .cfa: x29 32 +
STACK CFI 3196c .cfa: sp 32 +
STACK CFI 31974 .cfa: sp 0 +
STACK CFI 31978 .cfa: x29 32 +
STACK CFI 3198c .cfa: sp 32 +
STACK CFI 31994 .cfa: sp 0 +
STACK CFI 31998 .cfa: x29 32 +
STACK CFI 319c8 .cfa: sp 32 +
STACK CFI 319d0 .cfa: sp 0 +
STACK CFI INIT 31c84 1b4 .cfa: sp 0 +
STACK CFI 31c88 .cfa: sp 96 +
STACK CFI 31ca0 .cfa: x29 96 + x19: .cfa -8 + ^ x20: .cfa -16 + ^ x21: .cfa -24 + ^ x22: .cfa -32 + ^ x23: .cfa -40 + ^ x24: .cfa -48 + ^ x25: .cfa -56 + ^ x26: .cfa -64 + ^ x27: .cfa -80 + ^ .ra: .cfa -88 + ^ x29: .cfa -96 + ^
STACK CFI 31df4 .cfa: sp 96 +
STACK CFI 31e0c .cfa: sp 0 +
STACK CFI 31e10 .cfa: sp 96 +
STACK CFI 31e28 .cfa: sp 0 +
STACK CFI 31e2c .cfa: x29 96 +
STACK CFI INIT 31e38 14 .cfa: sp 0 +
STACK CFI 31e3c .cfa: sp 16 +
STACK CFI 31e40 .cfa: x29 16 + .ra: .cfa -8 + ^ x29: .cfa -16 + ^
STACK CFI INIT 31e4c ac .cfa: sp 0 +
STACK CFI 31e50 .cfa: sp 64 +
STACK CFI 31e60 .cfa: x29 64 + x19: .cfa -8 + ^ x20: .cfa -16 + ^ x21: .cfa -24 + ^ x22: .cfa -32 + ^ x23: .cfa -48 + ^ .ra: .cfa -56 + ^ x29: .cfa -64 + ^
STACK CFI 31edc .cfa: sp 64 +
STACK CFI 31eec .cfa: sp 0 +
STACK CFI 31ef0 .cfa: x29 64 +
STACK CFI INIT 31ef8 110 .cfa: sp 0 +
STACK CFI 31efc .cfa: sp 64 +
STACK CFI 31f0c .cfa: x29 64 + x19: .cfa -8 + ^ x20: .cfa -16 + ^ x21: .cfa -24 + ^ x22: .cfa -32 + ^ x23: .cfa -40 + ^ x24: .cfa -48 + ^ .ra: .cfa -56 + ^ x29: .cfa -64 + ^
STACK CFI 31fec .cfa: sp 64 +
STACK CFI 31ffc .cfa: sp 0 +
STACK CFI 32000 .cfa: x29 64 +
STACK CFI INIT 32008 14 .cfa: sp 0 +
STACK CFI 3200c .cfa: sp 16 +
STACK CFI 32010 .cfa: x29 16 + .ra: .cfa -8 + ^ x29: .cfa -16 + ^
STACK CFI INIT 3201c 54 .cfa: sp 0 +
STACK CFI 32020 .cfa: sp 32 +
STACK CFI 32028 .cfa: x29 32 + x19: .cfa -8 + ^ x20: .cfa -16 + ^ .ra: .cfa -24 + ^ x29: .cfa -32 + ^
STACK CFI 32064 .cfa: sp 32 +
STACK CFI 3206c .cfa: sp 0 +
STACK CFI INIT 32070 60 .cfa: sp 0 +
STACK CFI 32074 .cfa: sp 32 +
STACK CFI 3207c .cfa: x29 32 + x19: .cfa -8 + ^ x20: .cfa -16 + ^ .ra: .cfa -24 + ^ x29: .cfa -32 + ^
STACK CFI 320c4 .cfa: sp 32 +
STACK CFI 320cc .cfa: sp 0 +
STACK CFI INIT 320d0 60 .cfa: sp 0 +
STACK CFI 320d4 .cfa: sp 32 +
STACK CFI 320dc .cfa: x29 32 + x19: .cfa -8 + ^ x20: .cfa -16 + ^ .ra: .cfa -24 + ^ x29: .cfa -32 + ^
STACK CFI 32124 .cfa: sp 32 +
STACK CFI 3212c .cfa: sp 0 +
STACK CFI INIT 32130 5c .cfa: sp 0 +
STACK CFI 32134 .cfa: sp 32 +
STACK CFI 3213c .cfa: x29 32 + x19: .cfa -8 + ^ x20: .cfa -16 + ^ .ra: .cfa -24 + ^ x29: .cfa -32 + ^
STACK CFI 32180 .cfa: sp 32 +
STACK CFI 32188 .cfa: sp 0 +
STACK CFI INIT 3218c 68 .cfa: sp 0 +
STACK CFI 32190 .cfa: sp 32 +
STACK CFI 32198 .cfa: x29 32 + x19: .cfa -8 + ^ x20: .cfa -16 + ^ .ra: .cfa -24 + ^ x29: .cfa -32 + ^
STACK CFI 321e8 .cfa: sp 32 +
STACK CFI 321f0 .cfa: sp 0 +
STACK CFI INIT 321f4 14 .cfa: sp 0 +
STACK CFI 321f8 .cfa: sp 16 +
STACK CFI 321fc .cfa: x29 16 + .ra: .cfa -8 + ^ x29: .cfa -16 + ^
STACK CFI INIT 32208 bc .cfa: sp 0 +
STACK CFI 3220c .cfa: sp 48 +
STACK CFI 32218 .cfa: x29 48 + x19: .cfa -8 + ^ x20: .cfa -16 + ^ x21: .cfa -32 + ^ .ra: .cfa -40 + ^ x29: .cfa -48 + ^
STACK CFI 322b4 .cfa: sp 48 +
STACK CFI 322c0 .cfa: sp 0 +
STACK CFI INIT 322c4 218 .cfa: sp 0 +
STACK CFI 322c8 .cfa: sp 112 +
STACK CFI 322e4 .cfa: x29 96 + x19: .cfa -8 + ^ x20: .cfa -16 + ^ x21: .cfa -24 + ^ x22: .cfa -32 + ^ x23: .cfa -40 + ^ x24: .cfa -48 + ^ x25: .cfa -56 + ^ x26: .cfa -64 + ^ x27: .cfa -72 + ^ x28: .cfa -80 + ^ .ra: .cfa -88 + ^ x29: .cfa -96 + ^
STACK CFI 324b4 .cfa: sp 112 +
STACK CFI 324d0 .cfa: sp 0 +
STACK CFI 324d4 .cfa: x29 96 +
STACK CFI INIT 326ac 14 .cfa: sp 0 +
STACK CFI 326b0 .cfa: sp 16 +
STACK CFI 326b4 .cfa: x29 16 + .ra: .cfa -8 + ^ x29: .cfa -16 + ^
STACK CFI INIT 326c0 30 .cfa: sp 0 +
STACK CFI INIT 326f0 98 .cfa: sp 0 +
STACK CFI INIT 32788 59c .cfa: sp 0 +
STACK CFI INIT 32d24 8c .cfa: sp 0 +
STACK CFI INIT 32db0 30 .cfa: sp 0 +
STACK CFI INIT 33260 1c .cfa: sp 0 +
STACK CFI INIT 3363c 50 .cfa: sp 0 +
STACK CFI 33640 .cfa: sp 32 +
STACK CFI 33648 .cfa: x29 32 + x19: .cfa -16 + ^ .ra: .cfa -24 + ^ x29: .cfa -32 + ^
STACK CFI 33660 .cfa: sp 32 +
STACK CFI 33668 .cfa: sp 0 +
STACK CFI 3366c .cfa: x29 32 +
STACK CFI 33680 .cfa: sp 32 +
STACK CFI 33688 .cfa: sp 0 +
STACK CFI INIT 33700 7c .cfa: sp 0 +
STACK CFI 33704 .cfa: sp 48 +
STACK CFI 33710 .cfa: x29 48 + x19: .cfa -8 + ^ x20: .cfa -16 + ^ x21: .cfa -32 + ^ .ra: .cfa -40 + ^ x29: .cfa -48 + ^
STACK CFI 3375c .cfa: sp 48 +
STACK CFI 33768 .cfa: sp 0 +
STACK CFI 3376c .cfa: sp 48 +
STACK CFI 33778 .cfa: sp 0 +
STACK CFI INIT 3377c 4 .cfa: sp 0 +
STACK CFI INIT 338d4 34 .cfa: sp 0 +
STACK CFI 338d8 .cfa: sp 16 +
STACK CFI 338dc .cfa: x29 16 + .ra: .cfa -8 + ^ x29: .cfa -16 + ^
STACK CFI INIT 33908 24 .cfa: sp 0 +
STACK CFI 3390c .cfa: sp 32 +
STACK CFI 33914 .cfa: x29 32 + x19: .cfa -16 + ^ .ra: .cfa -24 + ^ x29: .cfa -32 + ^
STACK CFI 33920 .cfa: sp 32 +
STACK CFI 33928 .cfa: sp 0 +
STACK CFI INIT 33aa4 148 .cfa: sp 0 +
STACK CFI 33aa8 .cfa: sp 48 +
STACK CFI 33ab4 .cfa: x29 48 + x19: .cfa -8 + ^ x20: .cfa -16 + ^ x21: .cfa -32 + ^ .ra: .cfa -40 + ^ x29: .cfa -48 + ^
STACK CFI 33bdc .cfa: sp 48 +
STACK CFI 33be8 .cfa: sp 0 +
STACK CFI INIT 33e14 80 .cfa: sp 0 +
STACK CFI 33e18 .cfa: sp 48 +
STACK CFI 33e24 .cfa: x29 48 + x19: .cfa -8 + ^ x20: .cfa -16 + ^ x21: .cfa -24 + ^ x22: .cfa -32 + ^ .ra: .cfa -40 + ^ x29: .cfa -48 + ^
STACK CFI 33e3c .cfa: sp 48 +
STACK CFI 33e48 .cfa: sp 0 +
STACK CFI 33e4c .cfa: x29 48 +
STACK CFI 33e7c .cfa: sp 48 +
STACK CFI 33e88 .cfa: sp 0 +
STACK CFI 33e8c .cfa: x29 48 +
STACK CFI INIT 33e94 68 .cfa: sp 0 +
STACK CFI 33e98 .cfa: sp 32 +
STACK CFI 33ea0 .cfa: x29 32 + x19: .cfa -8 + ^ x20: .cfa -16 + ^ .ra: .cfa -24 + ^ x29: .cfa -32 + ^
STACK CFI 33eb8 .cfa: sp 32 +
STACK CFI 33ec0 .cfa: sp 0 +
STACK CFI 33ec4 .cfa: x29 32 +
STACK CFI 33ef0 .cfa: sp 32 +
STACK CFI 33ef8 .cfa: sp 0 +
STACK CFI INIT 33efc 14 .cfa: sp 0 +
STACK CFI 33f00 .cfa: sp 16 +
STACK CFI 33f04 .cfa: x29 16 + .ra: .cfa -8 + ^ x29: .cfa -16 + ^
STACK CFI INIT 33f10 4 .cfa: sp 0 +
STACK CFI INIT 33f14 14 .cfa: sp 0 +
STACK CFI INIT 33f28 120 .cfa: sp 0 +
STACK CFI 33f2c .cfa: sp 64 +
STACK CFI 33f3c .cfa: x29 64 + x19: .cfa -8 + ^ x20: .cfa -16 + ^ x21: .cfa -24 + ^ x22: .cfa -32 + ^ x23: .cfa -40 + ^ x24: .cfa -48 + ^ .ra: .cfa -56 + ^ x29: .cfa -64 + ^
STACK CFI 34034 .cfa: sp 64 +
STACK CFI 34044 .cfa: sp 0 +
STACK CFI INIT 34048 d4 .cfa: sp 0 +
STACK CFI 3404c .cfa: sp 48 +
STACK CFI 34058 .cfa: x29 48 + x19: .cfa -8 + ^ x20: .cfa -16 + ^ x21: .cfa -32 + ^ .ra: .cfa -40 + ^ x29: .cfa -48 + ^
STACK CFI 340e8 .cfa: sp 48 +
STACK CFI 340f4 .cfa: sp 0 +
STACK CFI 340f8 .cfa: x29 48 +
STACK CFI INIT 3411c 3c8 .cfa: sp 0 +
STACK CFI INIT 344e4 8c .cfa: sp 0 +
STACK CFI 344ec .cfa: sp 32 +
STACK CFI 344f4 .cfa: x29 32 + x19: .cfa -8 + ^ x20: .cfa -16 + ^ .ra: .cfa -24 + ^ x29: .cfa -32 + ^
STACK CFI 3453c .cfa: sp 32 +
STACK CFI 34544 .cfa: sp 0 +
STACK CFI 3454c .cfa: x29 32 +
STACK CFI INIT 34570 d0 .cfa: sp 0 +
STACK CFI 34574 .cfa: sp 48 +
STACK CFI 34580 .cfa: x29 48 + x19: .cfa -8 + ^ x20: .cfa -16 + ^ x21: .cfa -32 + ^ .ra: .cfa -40 + ^ x29: .cfa -48 + ^
STACK CFI 34630 .cfa: sp 48 +
STACK CFI 3463c .cfa: sp 0 +
STACK CFI INIT 34640 50 .cfa: sp 0 +
STACK CFI 34644 .cfa: sp 32 +
STACK CFI 3464c .cfa: x29 32 + x19: .cfa -16 + ^ .ra: .cfa -24 + ^ x29: .cfa -32 + ^
STACK CFI 34664 .cfa: sp 32 +
STACK CFI 3466c .cfa: sp 0 +
STACK CFI 34670 .cfa: x29 32 +
STACK CFI 34684 .cfa: sp 32 +
STACK CFI 3468c .cfa: sp 0 +
STACK CFI INIT 34690 64 .cfa: sp 0 +
STACK CFI 34694 .cfa: sp 32 +
STACK CFI 3469c .cfa: x29 32 + x19: .cfa -16 + ^ .ra: .cfa -24 + ^ x29: .cfa -32 + ^
STACK CFI 346c8 .cfa: sp 32 +
STACK CFI 346d0 .cfa: sp 0 +
STACK CFI 346d4 .cfa: x29 32 +
STACK CFI 346e8 .cfa: sp 32 +
STACK CFI 346f0 .cfa: sp 0 +
STACK CFI INIT 346f4 14 .cfa: sp 0 +
STACK CFI 346f8 .cfa: sp 16 +
STACK CFI 346fc .cfa: x29 16 + .ra: .cfa -8 + ^ x29: .cfa -16 + ^
STACK CFI INIT 34708 34 .cfa: sp 0 +
STACK CFI 3470c .cfa: sp 32 +
STACK CFI 34714 .cfa: x29 32 + x19: .cfa -16 + ^ .ra: .cfa -24 + ^ x29: .cfa -32 + ^
STACK CFI 34730 .cfa: sp 32 +
STACK CFI 34738 .cfa: sp 0 +
STACK CFI INIT 3473c 178 .cfa: sp 0 +
STACK CFI 34740 .cfa: sp 80 +
STACK CFI 34754 .cfa: x29 80 + x19: .cfa -8 + ^ x20: .cfa -16 + ^ x21: .cfa -24 + ^ x22: .cfa -32 + ^ x23: .cfa -40 + ^ x24: .cfa -48 + ^ x25: .cfa -56 + ^ x26: .cfa -64 + ^ .ra: .cfa -72 + ^ x29: .cfa -80 + ^
STACK CFI 3489c .cfa: sp 80 +
STACK CFI 348b0 .cfa: sp 0 +
STACK CFI INIT 348b4 1b0 .cfa: sp 0 +
STACK CFI INIT 34a64 14 .cfa: sp 0 +
STACK CFI INIT 34a78 44 .cfa: sp 0 +
STACK CFI 34a7c .cfa: sp 32 +
STACK CFI 34a84 .cfa: x29 32 + x19: .cfa -16 + ^ .ra: .cfa -24 + ^ x29: .cfa -32 + ^
STACK CFI 34aa0 .cfa: sp 32 +
STACK CFI 34aa8 .cfa: sp 0 +
STACK CFI 34aac .cfa: x29 32 +
STACK CFI 34ab0 .cfa: sp 32 +
STACK CFI 34ab8 .cfa: sp 0 +
STACK CFI INIT 34abc 98 .cfa: sp 0 +
STACK CFI 34ac0 .cfa: sp 48 +
STACK CFI 34acc .cfa: x29 48 + x19: .cfa -8 + ^ x20: .cfa -16 + ^ x21: .cfa -32 + ^ .ra: .cfa -40 + ^ x29: .cfa -48 + ^
STACK CFI 34b30 .cfa: sp 48 +
STACK CFI 34b3c .cfa: sp 0 +
STACK CFI 34b40 .cfa: x29 48 +
STACK CFI 34b44 .cfa: sp 48 +
STACK CFI 34b50 .cfa: sp 0 +
STACK CFI INIT 3514c 14c .cfa: sp 0 +
STACK CFI 35150 .cfa: sp 80 +
STACK CFI 35160 .cfa: x29 32 + x19: .cfa -8 + ^ x20: .cfa -16 + ^ .ra: .cfa -24 + ^ x29: .cfa -32 + ^ v8: .cfa -40 + ^ v9: .cfa -48 + ^
STACK CFI 35220 .cfa: sp 80 +
STACK CFI 35230 .cfa: sp 0 +
STACK CFI 35234 .cfa: x29 32 +
STACK CFI INIT 35298 1c .cfa: sp 0 +
STACK CFI 3529c .cfa: sp 16 +
STACK CFI 352a0 .cfa: x29 16 + .ra: .cfa -8 + ^ x29: .cfa -16 + ^
STACK CFI 352ac .cfa: sp 16 +
STACK CFI 352b0 .cfa: sp 0 +
STACK CFI INIT 35adc 50 .cfa: sp 0 +
STACK CFI 35ae0 .cfa: sp 32 +
STACK CFI 35ae8 .cfa: x29 32 + x19: .cfa -16 + ^ .ra: .cfa -24 + ^ x29: .cfa -32 + ^
STACK CFI 35b00 .cfa: sp 32 +
STACK CFI 35b08 .cfa: sp 0 +
STACK CFI 35b0c .cfa: x29 32 +
STACK CFI 35b20 .cfa: sp 32 +
STACK CFI 35b28 .cfa: sp 0 +
STACK CFI INIT 35b2c 88 .cfa: sp 0 +
STACK CFI 35b30 .cfa: sp 48 +
STACK CFI 35b3c .cfa: x29 32 + x19: .cfa -8 + ^ x20: .cfa -16 + ^ .ra: .cfa -24 + ^ x29: .cfa -32 + ^
STACK CFI 35b7c .cfa: sp 48 +
STACK CFI 35b88 .cfa: sp 0 +
STACK CFI 35b8c .cfa: x29 32 +
STACK CFI 35ba0 .cfa: sp 48 +
STACK CFI 35bac .cfa: sp 0 +
STACK CFI 35bb0 .cfa: x29 32 +
STACK CFI INIT 35bb4 80 .cfa: sp 0 +
STACK CFI 35bb8 .cfa: sp 48 +
STACK CFI 35bc4 .cfa: x29 48 + x19: .cfa -8 + ^ x20: .cfa -16 + ^ x21: .cfa -32 + ^ .ra: .cfa -40 + ^ x29: .cfa -48 + ^
STACK CFI 35be8 .cfa: sp 48 +
STACK CFI 35bf4 .cfa: sp 0 +
STACK CFI 35bf8 .cfa: x29 48 +
STACK CFI 35c24 .cfa: sp 48 +
STACK CFI 35c30 .cfa: sp 0 +
STACK CFI INIT 36098 8 .cfa: sp 0 +
STACK CFI INIT 36180 2c .cfa: sp 0 +
STACK CFI 36184 .cfa: sp 32 +
STACK CFI 3618c .cfa: x29 32 + x19: .cfa -16 + ^ .ra: .cfa -24 + ^ x29: .cfa -32 + ^
STACK CFI 361a0 .cfa: sp 32 +
STACK CFI 361a8 .cfa: sp 0 +
STACK CFI INIT 361ac 28 .cfa: sp 0 +
STACK CFI INIT 361d4 4 .cfa: sp 0 +
STACK CFI INIT 361d8 8 .cfa: sp 0 +
STACK CFI INIT 362c0 2c .cfa: sp 0 +
STACK CFI INIT 362ec 4 .cfa: sp 0 +
STACK CFI INIT 362f0 4 .cfa: sp 0 +
STACK CFI INIT 362f4 4 .cfa: sp 0 +
STACK CFI INIT 362f8 4 .cfa: sp 0 +
STACK CFI INIT 362fc 4 .cfa: sp 0 +
STACK CFI INIT 36300 8 .cfa: sp 0 +
STACK CFI INIT 36308 14 .cfa: sp 0 +
STACK CFI 3630c .cfa: sp 16 +
STACK CFI 36310 .cfa: x29 16 + .ra: .cfa -8 + ^ x29: .cfa -16 + ^
STACK CFI INIT 36678 7c .cfa: sp 0 +
STACK CFI 3667c .cfa: sp 48 +
STACK CFI 36688 .cfa: x29 48 + x19: .cfa -8 + ^ x20: .cfa -16 + ^ x21: .cfa -32 + ^ .ra: .cfa -40 + ^ x29: .cfa -48 + ^
STACK CFI 366d4 .cfa: sp 48 +
STACK CFI 366e0 .cfa: sp 0 +
STACK CFI 366e4 .cfa: sp 48 +
STACK CFI 366f0 .cfa: sp 0 +
STACK CFI INIT 366f4 14 .cfa: sp 0 +
STACK CFI 366f8 .cfa: sp 16 +
STACK CFI 366fc .cfa: x29 16 + .ra: .cfa -8 + ^ x29: .cfa -16 + ^
STACK CFI INIT 36708 a4 .cfa: sp 0 +
STACK CFI 36718 .cfa: sp 48 +
STACK CFI 36724 .cfa: x29 48 + x19: .cfa -8 + ^ x20: .cfa -16 + ^ x21: .cfa -24 + ^ x22: .cfa -32 + ^ .ra: .cfa -40 + ^ x29: .cfa -48 + ^
STACK CFI 36738 .cfa: sp 48 +
STACK CFI 36744 .cfa: sp 0 +
STACK CFI 36748 .cfa: x29 48 +
STACK CFI INIT 367ac 70 .cfa: sp 0 +
STACK CFI 367b0 .cfa: sp 48 +
STACK CFI 367bc .cfa: x29 48 + x19: .cfa -8 + ^ x20: .cfa -16 + ^ x21: .cfa -32 + ^ .ra: .cfa -40 + ^ x29: .cfa -48 + ^
STACK CFI 367d4 .cfa: sp 48 +
STACK CFI 367e0 .cfa: sp 0 +
STACK CFI 367e4 .cfa: x29 48 +
STACK CFI 3680c .cfa: sp 48 +
STACK CFI 36818 .cfa: sp 0 +
STACK CFI INIT 3681c 1ac .cfa: sp 0 +
STACK CFI 36820 .cfa: sp 32 +
STACK CFI 36828 .cfa: x29 32 + x19: .cfa -8 + ^ x20: .cfa -16 + ^ .ra: .cfa -24 + ^ x29: .cfa -32 + ^
STACK CFI 36918 .cfa: sp 32 +
STACK CFI 36920 .cfa: sp 0 +
STACK CFI 36924 .cfa: x29 32 +
STACK CFI INIT 37230 50 .cfa: sp 0 +
STACK CFI 37254 .cfa: sp 32 +
STACK CFI 3725c .cfa: x29 32 + x19: .cfa -16 + ^ .ra: .cfa -24 + ^ x29: .cfa -32 + ^
STACK CFI 37270 .cfa: sp 32 +
STACK CFI 37278 .cfa: sp 0 +
STACK CFI INIT 37280 e4 .cfa: sp 0 +
STACK CFI 37284 .cfa: sp 64 +
STACK CFI 37294 .cfa: x29 64 + x19: .cfa -8 + ^ x20: .cfa -16 + ^ x21: .cfa -24 + ^ x22: .cfa -32 + ^ x23: .cfa -40 + ^ x24: .cfa -48 + ^ .ra: .cfa -56 + ^ x29: .cfa -64 + ^
STACK CFI 372b8 .cfa: sp 64 +
STACK CFI 372c8 .cfa: sp 0 +
STACK CFI 372cc .cfa: x29 64 +
STACK CFI 3733c .cfa: sp 64 +
STACK CFI 3734c .cfa: sp 0 +
STACK CFI 37350 .cfa: sp 64 +
STACK CFI 37360 .cfa: sp 0 +
STACK CFI INIT 37364 4 .cfa: sp 0 +
STACK CFI INIT 37368 14 .cfa: sp 0 +
STACK CFI INIT 3737c 4 .cfa: sp 0 +
STACK CFI INIT 37534 4 .cfa: sp 0 +
STACK CFI INIT 37538 60 .cfa: sp 0 +
STACK CFI 3753c .cfa: sp 32 +
STACK CFI 37544 .cfa: x29 32 + x19: .cfa -8 + ^ x20: .cfa -16 + ^ .ra: .cfa -24 + ^ x29: .cfa -32 + ^
STACK CFI 37564 .cfa: sp 32 +
STACK CFI 3756c .cfa: sp 0 +
STACK CFI 37570 .cfa: x29 32 +
STACK CFI 3758c .cfa: sp 32 +
STACK CFI 37594 .cfa: sp 0 +
STACK CFI INIT 37598 70 .cfa: sp 0 +
STACK CFI 3759c .cfa: sp 32 +
STACK CFI 375a4 .cfa: x29 32 + x19: .cfa -8 + ^ x20: .cfa -16 + ^ .ra: .cfa -24 + ^ x29: .cfa -32 + ^
STACK CFI 375cc .cfa: sp 32 +
STACK CFI 375d4 .cfa: sp 0 +
STACK CFI 375d8 .cfa: x29 32 +
STACK CFI 375fc .cfa: sp 32 +
STACK CFI 37604 .cfa: sp 0 +
STACK CFI INIT 37608 10 .cfa: sp 0 +
STACK CFI INIT 37618 30 .cfa: sp 0 +
STACK CFI 3761c .cfa: sp 32 +
STACK CFI 37624 .cfa: x29 32 + x19: .cfa -16 + ^ .ra: .cfa -24 + ^ x29: .cfa -32 + ^
STACK CFI 3763c .cfa: sp 32 +
STACK CFI 37644 .cfa: sp 0 +
STACK CFI INIT 37648 4 .cfa: sp 0 +
STACK CFI INIT 3764c 4 .cfa: sp 0 +
STACK CFI INIT 37650 4 .cfa: sp 0 +
STACK CFI INIT 377f8 9c .cfa: sp 0 +
STACK CFI 377fc .cfa: sp 32 +
STACK CFI 37804 .cfa: x29 32 + x19: .cfa -8 + ^ x20: .cfa -16 + ^ .ra: .cfa -24 + ^ x29: .cfa -32 + ^
STACK CFI 37888 .cfa: sp 32 +
STACK CFI 37890 .cfa: sp 0 +
STACK CFI INIT 37894 a4 .cfa: sp 0 +
STACK CFI 37898 .cfa: sp 32 +
STACK CFI 378a0 .cfa: x29 32 + x19: .cfa -8 + ^ x20: .cfa -16 + ^ .ra: .cfa -24 + ^ x29: .cfa -32 + ^
STACK CFI 3792c .cfa: sp 32 +
STACK CFI 37934 .cfa: sp 0 +
STACK CFI INIT 37938 50 .cfa: sp 0 +
STACK CFI 3793c .cfa: sp 32 +
STACK CFI 37944 .cfa: x29 32 + x19: .cfa -16 + ^ .ra: .cfa -24 + ^ x29: .cfa -32 + ^
STACK CFI 3795c .cfa: sp 32 +
STACK CFI 37964 .cfa: sp 0 +
STACK CFI 37968 .cfa: x29 32 +
STACK CFI 3797c .cfa: sp 32 +
STACK CFI 37984 .cfa: sp 0 +
STACK CFI INIT 37988 5c .cfa: sp 0 +
STACK CFI 3798c .cfa: sp 32 +
STACK CFI 37994 .cfa: x29 32 + x19: .cfa -16 + ^ .ra: .cfa -24 + ^ x29: .cfa -32 + ^
STACK CFI 379b8 .cfa: sp 32 +
STACK CFI 379c0 .cfa: sp 0 +
STACK CFI 379c4 .cfa: x29 32 +
STACK CFI 379d8 .cfa: sp 32 +
STACK CFI 379e0 .cfa: sp 0 +
STACK CFI INIT 379e4 6c .cfa: sp 0 +
STACK CFI 379e8 .cfa: sp 32 +
STACK CFI 379f0 .cfa: x29 32 + x19: .cfa -8 + ^ x20: .cfa -16 + ^ .ra: .cfa -24 + ^ x29: .cfa -32 + ^
STACK CFI 37a1c .cfa: sp 32 +
STACK CFI 37a24 .cfa: sp 0 +
STACK CFI 37a28 .cfa: x29 32 +
STACK CFI 37a44 .cfa: sp 32 +
STACK CFI 37a4c .cfa: sp 0 +
STACK CFI INIT 37a50 58 .cfa: sp 0 +
STACK CFI 37a54 .cfa: sp 32 +
STACK CFI 37a5c .cfa: x29 32 + x19: .cfa -8 + ^ x20: .cfa -16 + ^ .ra: .cfa -24 + ^ x29: .cfa -32 + ^
STACK CFI 37a9c .cfa: sp 32 +
STACK CFI 37aa4 .cfa: sp 0 +
STACK CFI INIT 37aa8 4c .cfa: sp 0 +
STACK CFI 37aac .cfa: sp 32 +
STACK CFI 37ab4 .cfa: x29 32 + x19: .cfa -8 + ^ x20: .cfa -16 + ^ .ra: .cfa -24 + ^ x29: .cfa -32 + ^
STACK CFI 37ae8 .cfa: sp 32 +
STACK CFI 37af0 .cfa: sp 0 +
STACK CFI INIT 37af4 50 .cfa: sp 0 +
STACK CFI 37af8 .cfa: sp 32 +
STACK CFI 37b00 .cfa: x29 32 + x19: .cfa -16 + ^ .ra: .cfa -24 + ^ x29: .cfa -32 + ^
STACK CFI 37b18 .cfa: sp 32 +
STACK CFI 37b20 .cfa: sp 0 +
STACK CFI 37b24 .cfa: x29 32 +
STACK CFI 37b38 .cfa: sp 32 +
STACK CFI 37b40 .cfa: sp 0 +
STACK CFI INIT 37b44 60 .cfa: sp 0 +
STACK CFI 37b48 .cfa: sp 32 +
STACK CFI 37b50 .cfa: x29 32 + x19: .cfa -8 + ^ x20: .cfa -16 + ^ .ra: .cfa -24 + ^ x29: .cfa -32 + ^
STACK CFI 37b70 .cfa: sp 32 +
STACK CFI 37b78 .cfa: sp 0 +
STACK CFI 37b7c .cfa: x29 32 +
STACK CFI 37b98 .cfa: sp 32 +
STACK CFI 37ba0 .cfa: sp 0 +
STACK CFI INIT 37d74 1c .cfa: sp 0 +
STACK CFI INIT 37d90 c .cfa: sp 0 +
STACK CFI INIT 37d9c 60 .cfa: sp 0 +
STACK CFI 37da0 .cfa: sp 32 +
STACK CFI 37da8 .cfa: x29 32 + x19: .cfa -8 + ^ x20: .cfa -16 + ^ .ra: .cfa -24 + ^ x29: .cfa -32 + ^
STACK CFI 37dc8 .cfa: sp 32 +
STACK CFI 37dd0 .cfa: sp 0 +
STACK CFI 37dd4 .cfa: x29 32 +
STACK CFI 37df0 .cfa: sp 32 +
STACK CFI 37df8 .cfa: sp 0 +
STACK CFI INIT 37dfc 70 .cfa: sp 0 +
STACK CFI 37e00 .cfa: sp 32 +
STACK CFI 37e08 .cfa: x29 32 + x19: .cfa -8 + ^ x20: .cfa -16 + ^ .ra: .cfa -24 + ^ x29: .cfa -32 + ^
STACK CFI 37e30 .cfa: sp 32 +
STACK CFI 37e38 .cfa: sp 0 +
STACK CFI 37e3c .cfa: x29 32 +
STACK CFI 37e60 .cfa: sp 32 +
STACK CFI 37e68 .cfa: sp 0 +
STACK CFI INIT 37e6c 5c .cfa: sp 0 +
STACK CFI 37e70 .cfa: sp 32 +
STACK CFI 37e78 .cfa: x29 32 + x19: .cfa -16 + ^ .ra: .cfa -24 + ^ x29: .cfa -32 + ^
STACK CFI 37e9c .cfa: sp 32 +
STACK CFI 37ea4 .cfa: sp 0 +
STACK CFI 37ea8 .cfa: x29 32 +
STACK CFI 37ebc .cfa: sp 32 +
STACK CFI 37ec4 .cfa: sp 0 +
STACK CFI INIT 37ec8 6c .cfa: sp 0 +
STACK CFI 37ecc .cfa: sp 32 +
STACK CFI 37ed4 .cfa: x29 32 + x19: .cfa -8 + ^ x20: .cfa -16 + ^ .ra: .cfa -24 + ^ x29: .cfa -32 + ^
STACK CFI 37f00 .cfa: sp 32 +
STACK CFI 37f08 .cfa: sp 0 +
STACK CFI 37f0c .cfa: x29 32 +
STACK CFI 37f28 .cfa: sp 32 +
STACK CFI 37f30 .cfa: sp 0 +
STACK CFI INIT 37f34 58 .cfa: sp 0 +
STACK CFI 37f38 .cfa: sp 32 +
STACK CFI 37f40 .cfa: x29 32 + x19: .cfa -8 + ^ x20: .cfa -16 + ^ .ra: .cfa -24 + ^ x29: .cfa -32 + ^
STACK CFI 37f80 .cfa: sp 32 +
STACK CFI 37f88 .cfa: sp 0 +
STACK CFI INIT 37f8c 4c .cfa: sp 0 +
STACK CFI 37f90 .cfa: sp 32 +
STACK CFI 37f98 .cfa: x29 32 + x19: .cfa -8 + ^ x20: .cfa -16 + ^ .ra: .cfa -24 + ^ x29: .cfa -32 + ^
STACK CFI 37fcc .cfa: sp 32 +
STACK CFI 37fd4 .cfa: sp 0 +
STACK CFI INIT 37fd8 50 .cfa: sp 0 +
STACK CFI 37fdc .cfa: sp 32 +
STACK CFI 37fe4 .cfa: x29 32 + x19: .cfa -16 + ^ .ra: .cfa -24 + ^ x29: .cfa -32 + ^
STACK CFI 37ffc .cfa: sp 32 +
STACK CFI 38004 .cfa: sp 0 +
STACK CFI 38008 .cfa: x29 32 +
STACK CFI 3801c .cfa: sp 32 +
STACK CFI 38024 .cfa: sp 0 +
STACK CFI INIT 38028 60 .cfa: sp 0 +
STACK CFI 3802c .cfa: sp 32 +
STACK CFI 38034 .cfa: x29 32 + x19: .cfa -8 + ^ x20: .cfa -16 + ^ .ra: .cfa -24 + ^ x29: .cfa -32 + ^
STACK CFI 38054 .cfa: sp 32 +
STACK CFI 3805c .cfa: sp 0 +
STACK CFI 38060 .cfa: x29 32 +
STACK CFI 3807c .cfa: sp 32 +
STACK CFI 38084 .cfa: sp 0 +
STACK CFI INIT 3824c 1c .cfa: sp 0 +
STACK CFI INIT 38268 c .cfa: sp 0 +
STACK CFI INIT 38274 fc .cfa: sp 0 +
STACK CFI 38278 .cfa: sp 64 +
STACK CFI 38288 .cfa: x29 64 + x19: .cfa -8 + ^ x20: .cfa -16 + ^ x21: .cfa -24 + ^ x22: .cfa -32 + ^ x23: .cfa -48 + ^ .ra: .cfa -56 + ^ x29: .cfa -64 + ^
STACK CFI 382ec .cfa: sp 64 +
STACK CFI 382fc .cfa: sp 0 +
STACK CFI 38300 .cfa: x29 64 +
STACK CFI 3831c .cfa: sp 64 +
STACK CFI 3832c .cfa: sp 0 +
STACK CFI 38330 .cfa: x29 64 +
STACK CFI 3835c .cfa: sp 64 +
STACK CFI 3836c .cfa: sp 0 +
STACK CFI INIT 38370 34 .cfa: sp 0 +
STACK CFI 38374 .cfa: sp 16 +
STACK CFI 38378 .cfa: x29 16 + .ra: .cfa -8 + ^ x29: .cfa -16 + ^
STACK CFI INIT 383a4 24 .cfa: sp 0 +
STACK CFI 383a8 .cfa: sp 32 +
STACK CFI 383b0 .cfa: x29 32 + x19: .cfa -16 + ^ .ra: .cfa -24 + ^ x29: .cfa -32 + ^
STACK CFI 383bc .cfa: sp 32 +
STACK CFI 383c4 .cfa: sp 0 +
STACK CFI INIT 383c8 4 .cfa: sp 0 +
STACK CFI INIT 383cc 4 .cfa: sp 0 +
STACK CFI INIT 383d0 40 .cfa: sp 0 +
STACK CFI 383d4 .cfa: sp 32 +
STACK CFI 383dc .cfa: x29 32 + x19: .cfa -16 + ^ .ra: .cfa -24 + ^ x29: .cfa -32 + ^
STACK CFI 38404 .cfa: sp 32 +
STACK CFI 3840c .cfa: sp 0 +
STACK CFI INIT 38410 20 .cfa: sp 0 +
STACK CFI INIT 38430 4 .cfa: sp 0 +
STACK CFI INIT 38434 4 .cfa: sp 0 +
STACK CFI INIT 3923c 1c .cfa: sp 0 +
STACK CFI INIT 39258 c .cfa: sp 0 +
STACK CFI INIT 39264 4 .cfa: sp 0 +
STACK CFI INIT 39268 4 .cfa: sp 0 +
STACK CFI INIT 3926c 34 .cfa: sp 0 +
STACK CFI 39270 .cfa: sp 32 +
STACK CFI 39278 .cfa: x29 32 + x19: .cfa -16 + ^ .ra: .cfa -24 + ^ x29: .cfa -32 + ^
STACK CFI 39294 .cfa: sp 32 +
STACK CFI 3929c .cfa: sp 0 +
STACK CFI INIT 392a0 14 .cfa: sp 0 +
STACK CFI INIT 392b4 4 .cfa: sp 0 +
STACK CFI INIT 392b8 4 .cfa: sp 0 +
STACK CFI INIT 392bc 18 .cfa: sp 0 +
STACK CFI INIT 392d4 1c .cfa: sp 0 +
STACK CFI INIT 392f0 c .cfa: sp 0 +
STACK CFI INIT 392fc 314 .cfa: sp 0 +
STACK CFI 39300 .cfa: sp 128 +
STACK CFI 39318 .cfa: x29 64 + x19: .cfa -8 + ^ x20: .cfa -16 + ^ x21: .cfa -24 + ^ x22: .cfa -32 + ^ x23: .cfa -40 + ^ x24: .cfa -48 + ^ .ra: .cfa -56 + ^ x29: .cfa -64 + ^ v8: .cfa -72 + ^ v9: .cfa -80 + ^
STACK CFI 39554 .cfa: sp 128 +
STACK CFI 3956c .cfa: sp 0 +
STACK CFI 39570 .cfa: x29 64 +
STACK CFI INIT 39610 24 .cfa: sp 0 +
STACK CFI INIT 39634 18 .cfa: sp 0 +
STACK CFI INIT 3964c 18 .cfa: sp 0 +
STACK CFI INIT 3a420 5c .cfa: sp 0 +
STACK CFI INIT 3aa04 c0 .cfa: sp 0 +
STACK CFI 3aa08 .cfa: sp 32 +
STACK CFI 3aa10 .cfa: x29 32 + x19: .cfa -8 + ^ x20: .cfa -16 + ^ .ra: .cfa -24 + ^ x29: .cfa -32 + ^
STACK CFI 3aab8 .cfa: sp 32 +
STACK CFI 3aac0 .cfa: sp 0 +
STACK CFI INIT 3aac4 c8 .cfa: sp 0 +
STACK CFI 3aac8 .cfa: sp 32 +
STACK CFI 3aad0 .cfa: x29 32 + x19: .cfa -8 + ^ x20: .cfa -16 + ^ .ra: .cfa -24 + ^ x29: .cfa -32 + ^
STACK CFI 3ab80 .cfa: sp 32 +
STACK CFI 3ab88 .cfa: sp 0 +
STACK CFI INIT 3ab8c 80 .cfa: sp 0 +
STACK CFI 3ab90 .cfa: sp 32 +
STACK CFI 3ab98 .cfa: x29 32 + x19: .cfa -16 + ^ .ra: .cfa -24 + ^ x29: .cfa -32 + ^
STACK CFI 3ac00 .cfa: sp 32 +
STACK CFI 3ac08 .cfa: sp 0 +
STACK CFI INIT 3aefc 14 .cfa: sp 0 +
STACK CFI 3af00 .cfa: sp 16 +
STACK CFI 3af04 .cfa: x29 16 + .ra: .cfa -8 + ^ x29: .cfa -16 + ^
STACK CFI INIT 3af10 14 .cfa: sp 0 +
STACK CFI 3af14 .cfa: sp 16 +
STACK CFI 3af18 .cfa: x29 16 + .ra: .cfa -8 + ^ x29: .cfa -16 + ^
STACK CFI INIT 3af24 4 .cfa: sp 0 +
STACK CFI INIT 3af28 4 .cfa: sp 0 +
STACK CFI INIT 3af2c 38 .cfa: sp 0 +
STACK CFI 3af30 .cfa: sp 32 +
STACK CFI 3af38 .cfa: x29 32 + x19: .cfa -16 + ^ .ra: .cfa -24 + ^ x29: .cfa -32 + ^
STACK CFI 3af58 .cfa: sp 32 +
STACK CFI 3af60 .cfa: sp 0 +
STACK CFI INIT 3af64 18 .cfa: sp 0 +
STACK CFI INIT 3af7c 4 .cfa: sp 0 +
STACK CFI INIT 3af80 4 .cfa: sp 0 +
STACK CFI INIT 3af84 244 .cfa: sp 0 +
STACK CFI 3af88 .cfa: sp 128 +
STACK CFI 3afa8 .cfa: x29 96 + x19: .cfa -8 + ^ x20: .cfa -16 + ^ x21: .cfa -24 + ^ x22: .cfa -32 + ^ x23: .cfa -40 + ^ x24: .cfa -48 + ^ x25: .cfa -56 + ^ x26: .cfa -64 + ^ x27: .cfa -72 + ^ x28: .cfa -80 + ^ .ra: .cfa -88 + ^ x29: .cfa -96 + ^ v8: .cfa -112 + ^
STACK CFI 3b108 .cfa: sp 128 +
STACK CFI 3b128 .cfa: sp 0 +
STACK CFI 3b12c .cfa: x29 96 +
STACK CFI INIT 3b1c8 1c .cfa: sp 0 +
STACK CFI INIT 3b1e4 c .cfa: sp 0 +
STACK CFI INIT 3b1f0 4c .cfa: sp 0 +
STACK CFI 3b1f4 .cfa: sp 32 +
STACK CFI 3b1fc .cfa: x29 32 + x19: .cfa -8 + ^ x20: .cfa -16 + ^ .ra: .cfa -24 + ^ x29: .cfa -32 + ^
STACK CFI 3b230 .cfa: sp 32 +
STACK CFI 3b238 .cfa: sp 0 +
STACK CFI INIT 3b23c 7c .cfa: sp 0 +
STACK CFI 3b240 .cfa: sp 48 +
STACK CFI 3b24c .cfa: x29 48 + x19: .cfa -8 + ^ x20: .cfa -16 + ^ x21: .cfa -32 + ^ .ra: .cfa -40 + ^ x29: .cfa -48 + ^
STACK CFI 3b298 .cfa: sp 48 +
STACK CFI 3b2a4 .cfa: sp 0 +
STACK CFI 3b2a8 .cfa: sp 48 +
STACK CFI 3b2b4 .cfa: sp 0 +
STACK CFI INIT 3b2b8 4c .cfa: sp 0 +
STACK CFI 3b2bc .cfa: sp 32 +
STACK CFI 3b2c4 .cfa: x29 32 + x19: .cfa -8 + ^ x20: .cfa -16 + ^ .ra: .cfa -24 + ^ x29: .cfa -32 + ^
STACK CFI 3b2ec .cfa: sp 32 +
STACK CFI 3b2f4 .cfa: sp 0 +
STACK CFI 3b2f8 .cfa: sp 32 +
STACK CFI 3b300 .cfa: sp 0 +
STACK CFI INIT 3b784 1c .cfa: sp 0 +
STACK CFI INIT 3c09c 1c .cfa: sp 0 +
STACK CFI INIT 3c0b8 1c .cfa: sp 0 +
STACK CFI INIT 3cbf8 148 .cfa: sp 0 +
STACK CFI 3cbfc .cfa: sp 64 +
STACK CFI 3cc10 .cfa: x29 56 + x19: .cfa -8 + ^ x20: .cfa -16 + ^ x21: .cfa -24 + ^ x22: .cfa -32 + ^ x23: .cfa -40 + ^ .ra: .cfa -48 + ^ x29: .cfa -56 + ^ v8: .cfa -64 + ^
STACK CFI 3cd28 .cfa: sp 64 +
STACK CFI 3cd3c .cfa: sp 0 +
STACK CFI INIT 3cd40 170 .cfa: sp 0 +
STACK CFI 3cd44 .cfa: sp 64 +
STACK CFI 3cd58 .cfa: x29 40 + x19: .cfa -8 + ^ x20: .cfa -16 + ^ x21: .cfa -24 + ^ .ra: .cfa -32 + ^ x29: .cfa -40 + ^ v8: .cfa -48 + ^ v9: .cfa -56 + ^ v10: .cfa -64 + ^
STACK CFI 3ce34 .cfa: sp 64 +
STACK CFI 3ce48 .cfa: sp 0 +
STACK CFI 3ce4c .cfa: x29 40 +
STACK CFI 3ce98 .cfa: sp 64 +
STACK CFI 3ceac .cfa: sp 0 +
STACK CFI INIT 3d0e0 fc .cfa: sp 0 +
STACK CFI 3d0e4 .cfa: sp 64 +
STACK CFI 3d0f4 .cfa: x29 48 + x19: .cfa -8 + ^ x20: .cfa -16 + ^ x21: .cfa -24 + ^ x22: .cfa -32 + ^ .ra: .cfa -40 + ^ x29: .cfa -48 + ^ v8: .cfa -64 + ^
STACK CFI 3d1c8 .cfa: sp 64 +
STACK CFI 3d1d8 .cfa: sp 0 +
STACK CFI INIT 3d4f8 4 .cfa: sp 0 +
STACK CFI INIT 3eaf0 9c .cfa: sp 0 +
STACK CFI 3eaf4 .cfa: sp 48 +
STACK CFI 3eb00 .cfa: x29 48 + x19: .cfa -8 + ^ x20: .cfa -16 + ^ x21: .cfa -24 + ^ x22: .cfa -32 + ^ .ra: .cfa -40 + ^ x29: .cfa -48 + ^
STACK CFI 3eb34 .cfa: sp 48 +
STACK CFI 3eb40 .cfa: sp 0 +
STACK CFI 3eb44 .cfa: x29 48 +
STACK CFI 3eb74 .cfa: sp 48 +
STACK CFI 3eb80 .cfa: sp 0 +
STACK CFI 3eb84 .cfa: x29 48 +
STACK CFI INIT 3ed38 78 .cfa: sp 0 +
STACK CFI 3ed3c .cfa: sp 48 +
STACK CFI 3ed48 .cfa: x29 48 + x19: .cfa -8 + ^ x20: .cfa -16 + ^ x21: .cfa -32 + ^ .ra: .cfa -40 + ^ x29: .cfa -48 + ^
STACK CFI 3ed90 .cfa: sp 48 +
STACK CFI 3ed9c .cfa: sp 0 +
STACK CFI 3eda0 .cfa: sp 48 +
STACK CFI 3edac .cfa: sp 0 +
STACK CFI INIT 3edb0 3ec .cfa: sp 0 +
STACK CFI 3edb4 .cfa: sp 192 +
STACK CFI 3eddc .cfa: x29 80 + x19: .cfa -8 + ^ x20: .cfa -16 + ^ x21: .cfa -24 + ^ x22: .cfa -32 + ^ x23: .cfa -40 + ^ x24: .cfa -48 + ^ x25: .cfa -56 + ^ x26: .cfa -64 + ^ .ra: .cfa -72 + ^ x29: .cfa -80 + ^ v8: .cfa -88 + ^ v9: .cfa -96 + ^ v10: .cfa -104 + ^ v11: .cfa -112 + ^ v12: .cfa -120 + ^ v13: .cfa -128 + ^ v14: .cfa -136 + ^ v15: .cfa -144 + ^
STACK CFI 3f16c .cfa: sp 192 +
STACK CFI 3f194 .cfa: sp 0 +
STACK CFI 3f198 .cfa: x29 80 +
STACK CFI INIT 3f888 14 .cfa: sp 0 +
STACK CFI 3f88c .cfa: sp 16 +
STACK CFI 3f890 .cfa: x29 16 + .ra: .cfa -8 + ^ x29: .cfa -16 + ^
STACK CFI INIT 3f89c 14 .cfa: sp 0 +
STACK CFI 3f8a0 .cfa: sp 16 +
STACK CFI 3f8a4 .cfa: x29 16 + .ra: .cfa -8 + ^ x29: .cfa -16 + ^
STACK CFI INIT 3f8b0 14 .cfa: sp 0 +
STACK CFI 3f8b4 .cfa: sp 16 +
STACK CFI 3f8b8 .cfa: x29 16 + .ra: .cfa -8 + ^ x29: .cfa -16 + ^
STACK CFI INIT 3f8c4 14 .cfa: sp 0 +
STACK CFI 3f8c8 .cfa: sp 16 +
STACK CFI 3f8cc .cfa: x29 16 + .ra: .cfa -8 + ^ x29: .cfa -16 + ^
STACK CFI INIT 3f8d8 4 .cfa: sp 0 +
STACK CFI INIT 3f8dc 4 .cfa: sp 0 +
STACK CFI INIT 3f8e0 38 .cfa: sp 0 +
STACK CFI 3f8e4 .cfa: sp 32 +
STACK CFI 3f8ec .cfa: x29 32 + x19: .cfa -16 + ^ .ra: .cfa -24 + ^ x29: .cfa -32 + ^
STACK CFI 3f90c .cfa: sp 32 +
STACK CFI 3f914 .cfa: sp 0 +
STACK CFI INIT 3f918 18 .cfa: sp 0 +
STACK CFI INIT 3f930 4 .cfa: sp 0 +
STACK CFI INIT 3f934 4 .cfa: sp 0 +
STACK CFI INIT 3f938 10 .cfa: sp 0 +
STACK CFI INIT 3f948 1c .cfa: sp 0 +
STACK CFI INIT 3f964 c .cfa: sp 0 +
STACK CFI INIT 3ff98 e8 .cfa: sp 0 +
STACK CFI 3ff9c .cfa: sp 32 +
STACK CFI 3ffa4 .cfa: x29 32 + x19: .cfa -8 + ^ x20: .cfa -16 + ^ .ra: .cfa -24 + ^ x29: .cfa -32 + ^
STACK CFI 3ffe4 .cfa: sp 32 +
STACK CFI 3ffec .cfa: sp 0 +
STACK CFI 3fff0 .cfa: x29 32 +
STACK CFI 4002c .cfa: sp 32 +
STACK CFI 40034 .cfa: sp 0 +
STACK CFI 40038 .cfa: x29 32 +
STACK CFI 40058 .cfa: sp 32 +
STACK CFI 40060 .cfa: sp 0 +
STACK CFI 40064 .cfa: x29 32 +
STACK CFI 40074 .cfa: sp 32 +
STACK CFI 4007c .cfa: sp 0 +
STACK CFI INIT 40194 114 .cfa: sp 0 +
STACK CFI 40198 .cfa: sp 32 +
STACK CFI 401a0 .cfa: x29 32 + x19: .cfa -16 + ^ .ra: .cfa -24 + ^ x29: .cfa -32 + ^
STACK CFI 401e8 .cfa: sp 32 +
STACK CFI 401f0 .cfa: sp 0 +
STACK CFI 401f4 .cfa: x29 32 +
STACK CFI 40224 .cfa: sp 32 +
STACK CFI 4022c .cfa: sp 0 +
STACK CFI 40230 .cfa: x29 32 +
STACK CFI 40250 .cfa: sp 32 +
STACK CFI 40258 .cfa: sp 0 +
STACK CFI 4025c .cfa: x29 32 +
STACK CFI 4026c .cfa: sp 32 +
STACK CFI 40274 .cfa: sp 0 +
STACK CFI 40278 .cfa: x29 32 +
STACK CFI 4028c .cfa: sp 32 +
STACK CFI 40294 .cfa: sp 0 +
STACK CFI 40298 .cfa: x29 32 +
STACK CFI 4029c .cfa: sp 32 +
STACK CFI 402a4 .cfa: sp 0 +
STACK CFI INIT 404fc 8 .cfa: sp 0 +
STACK CFI INIT 40504 38 .cfa: sp 0 +
STACK CFI 40508 .cfa: sp 32 +
STACK CFI 40510 .cfa: x29 32 + x19: .cfa -16 + ^ .ra: .cfa -24 + ^ x29: .cfa -32 + ^
STACK CFI 40530 .cfa: sp 32 +
STACK CFI 40538 .cfa: sp 0 +
STACK CFI INIT 40da4 288 .cfa: sp 0 +
STACK CFI 40da8 .cfa: sp 32 +
STACK CFI 40db0 .cfa: x29 32 + x19: .cfa -16 + ^ .ra: .cfa -24 + ^ x29: .cfa -32 + ^
STACK CFI 40e74 .cfa: sp 32 +
STACK CFI 40e7c .cfa: sp 0 +
STACK CFI 40e80 .cfa: x29 32 +
STACK CFI 40eac .cfa: sp 32 +
STACK CFI 40eb4 .cfa: sp 0 +
STACK CFI 40eb8 .cfa: x29 32 +
STACK CFI 40ebc .cfa: sp 32 +
STACK CFI 40ec4 .cfa: sp 0 +
STACK CFI 40ec8 .cfa: x29 32 +
STACK CFI 40f1c .cfa: sp 32 +
STACK CFI 40f24 .cfa: sp 0 +
STACK CFI 40f28 .cfa: x29 32 +
STACK CFI 40f2c .cfa: sp 32 +
STACK CFI 40f34 .cfa: sp 0 +
STACK CFI 40f38 .cfa: x29 32 +
STACK CFI 40f3c .cfa: sp 32 +
STACK CFI 40f44 .cfa: sp 0 +
STACK CFI 40f48 .cfa: x29 32 +
STACK CFI 40f88 .cfa: sp 32 +
STACK CFI 40f90 .cfa: sp 0 +
STACK CFI 40f94 .cfa: x29 32 +
STACK CFI 40f98 .cfa: sp 32 +
STACK CFI 40fa0 .cfa: sp 0 +
STACK CFI 40fa4 .cfa: x29 32 +
STACK CFI 40fa8 .cfa: sp 32 +
STACK CFI 40fb0 .cfa: sp 0 +
STACK CFI 40fb4 .cfa: x29 32 +
STACK CFI 40fb8 .cfa: sp 32 +
STACK CFI 40fc0 .cfa: sp 0 +
STACK CFI 40fc4 .cfa: x29 32 +
STACK CFI 40fc8 .cfa: sp 32 +
STACK CFI 40fd0 .cfa: sp 0 +
STACK CFI 40fd4 .cfa: x29 32 +
STACK CFI 41014 .cfa: sp 32 +
STACK CFI 4101c .cfa: sp 0 +
STACK CFI 41020 .cfa: x29 32 +
STACK CFI INIT 4102c 2a0 .cfa: sp 0 +
STACK CFI 41030 .cfa: sp 112 +
STACK CFI 4104c .cfa: x29 96 + x19: .cfa -8 + ^ x20: .cfa -16 + ^ x21: .cfa -24 + ^ x22: .cfa -32 + ^ x23: .cfa -40 + ^ x24: .cfa -48 + ^ x25: .cfa -56 + ^ x26: .cfa -64 + ^ x27: .cfa -80 + ^ .ra: .cfa -88 + ^ x29: .cfa -96 + ^
STACK CFI 412a4 .cfa: sp 112 +
STACK CFI 412c0 .cfa: sp 0 +
STACK CFI 412c4 .cfa: x29 96 +
STACK CFI INIT 412cc 120 .cfa: sp 0 +
STACK CFI 412d0 .cfa: sp 48 +
STACK CFI 412dc .cfa: x29 48 + x19: .cfa -8 + ^ x20: .cfa -16 + ^ x21: .cfa -24 + ^ x22: .cfa -32 + ^ .ra: .cfa -40 + ^ x29: .cfa -48 + ^
STACK CFI 41318 .cfa: sp 48 +
STACK CFI 41324 .cfa: sp 0 +
STACK CFI 41328 .cfa: x29 48 +
STACK CFI 413bc .cfa: sp 48 +
STACK CFI 413c8 .cfa: sp 0 +
STACK CFI 413cc .cfa: x29 48 +
STACK CFI 413dc .cfa: sp 48 +
STACK CFI 413e8 .cfa: sp 0 +
STACK CFI INIT 42cd0 288 .cfa: sp 0 +
STACK CFI 42cd4 .cfa: sp 80 +
STACK CFI 42ce8 .cfa: x29 80 + x19: .cfa -8 + ^ x20: .cfa -16 + ^ x21: .cfa -24 + ^ x22: .cfa -32 + ^ x23: .cfa -40 + ^ x24: .cfa -48 + ^ x25: .cfa -64 + ^ .ra: .cfa -72 + ^ x29: .cfa -80 + ^
STACK CFI 42e2c .cfa: sp 80 +
STACK CFI 42e40 .cfa: sp 0 +
STACK CFI 42e44 .cfa: x29 80 +
STACK CFI 42f0c .cfa: sp 80 +
STACK CFI 42f20 .cfa: sp 0 +
STACK CFI 42f24 .cfa: x29 80 +
STACK CFI INIT 42f58 14 .cfa: sp 0 +
STACK CFI 42f5c .cfa: sp 16 +
STACK CFI 42f60 .cfa: x29 16 + .ra: .cfa -8 + ^ x29: .cfa -16 + ^
STACK CFI INIT 42f6c 1ac .cfa: sp 0 +
STACK CFI 42f70 .cfa: sp 48 +
STACK CFI 42f7c .cfa: x29 48 + x19: .cfa -8 + ^ x20: .cfa -16 + ^ x21: .cfa -24 + ^ x22: .cfa -32 + ^ .ra: .cfa -40 + ^ x29: .cfa -48 + ^
STACK CFI 430f4 .cfa: sp 48 +
STACK CFI 43100 .cfa: sp 0 +
STACK CFI 43104 .cfa: x29 48 +
STACK CFI 43108 .cfa: sp 48 +
STACK CFI 43114 .cfa: sp 0 +
STACK CFI INIT 440a8 54 .cfa: sp 0 +
STACK CFI 440c4 .cfa: sp 32 +
STACK CFI 440cc .cfa: x29 32 + x19: .cfa -8 + ^ x20: .cfa -16 + ^ .ra: .cfa -24 + ^ x29: .cfa -32 + ^
STACK CFI INIT 447ec 30 .cfa: sp 0 +
STACK CFI 447f0 .cfa: sp 32 +
STACK CFI 447f8 .cfa: x29 32 + x19: .cfa -16 + ^ .ra: .cfa -24 + ^ x29: .cfa -32 + ^
STACK CFI 44810 .cfa: sp 32 +
STACK CFI 44818 .cfa: sp 0 +
STACK CFI INIT 45694 54 .cfa: sp 0 +
STACK CFI 456b0 .cfa: sp 32 +
STACK CFI 456b8 .cfa: x29 32 + x19: .cfa -8 + ^ x20: .cfa -16 + ^ .ra: .cfa -24 + ^ x29: .cfa -32 + ^
STACK CFI INIT 456e8 104 .cfa: sp 0 +
STACK CFI 456ec .cfa: sp 32 +
STACK CFI 456f4 .cfa: x29 32 + x19: .cfa -8 + ^ x20: .cfa -16 + ^ .ra: .cfa -24 + ^ x29: .cfa -32 + ^
STACK CFI 457cc .cfa: sp 32 +
STACK CFI 457d4 .cfa: sp 0 +
STACK CFI 457d8 .cfa: sp 32 +
STACK CFI 457e0 .cfa: sp 0 +
STACK CFI 457e4 .cfa: x29 32 +
STACK CFI INIT 457ec 14 .cfa: sp 0 +
STACK CFI 457f0 .cfa: sp 16 +
STACK CFI 457f4 .cfa: x29 16 + .ra: .cfa -8 + ^ x29: .cfa -16 + ^
STACK CFI INIT 46688 54 .cfa: sp 0 +
STACK CFI 466a4 .cfa: sp 32 +
STACK CFI 466ac .cfa: x29 32 + x19: .cfa -8 + ^ x20: .cfa -16 + ^ .ra: .cfa -24 + ^ x29: .cfa -32 + ^
STACK CFI INIT 46ff0 14 .cfa: sp 0 +
STACK CFI 46ff4 .cfa: sp 16 +
STACK CFI 46ff8 .cfa: x29 16 + .ra: .cfa -8 + ^ x29: .cfa -16 + ^
STACK CFI INIT 47004 14 .cfa: sp 0 +
STACK CFI 47008 .cfa: sp 16 +
STACK CFI 4700c .cfa: x29 16 + .ra: .cfa -8 + ^ x29: .cfa -16 + ^
STACK CFI INIT 47018 38 .cfa: sp 0 +
STACK CFI 4701c .cfa: sp 32 +
STACK CFI 47024 .cfa: x29 32 + x19: .cfa -16 + ^ .ra: .cfa -24 + ^ x29: .cfa -32 + ^
STACK CFI 47044 .cfa: sp 32 +
STACK CFI 4704c .cfa: sp 0 +
STACK CFI INIT 479ac 3f0 .cfa: sp 0 +
STACK CFI 479b0 .cfa: sp 112 +
STACK CFI 479cc .cfa: x29 96 + x19: .cfa -8 + ^ x20: .cfa -16 + ^ x21: .cfa -24 + ^ x22: .cfa -32 + ^ x23: .cfa -40 + ^ x24: .cfa -48 + ^ x25: .cfa -56 + ^ x26: .cfa -64 + ^ x27: .cfa -72 + ^ x28: .cfa -80 + ^ .ra: .cfa -88 + ^ x29: .cfa -96 + ^
STACK CFI 47d7c .cfa: sp 112 +
STACK CFI 47d98 .cfa: sp 0 +
STACK CFI INIT 488dc 38 .cfa: sp 0 +
STACK CFI 488e0 .cfa: sp 32 +
STACK CFI 488e8 .cfa: x29 32 + x19: .cfa -16 + ^ .ra: .cfa -24 + ^ x29: .cfa -32 + ^
STACK CFI 48908 .cfa: sp 32 +
STACK CFI 48910 .cfa: sp 0 +
STACK CFI INIT 48ba4 2c .cfa: sp 0 +
STACK CFI INIT 48c70 38 .cfa: sp 0 +
STACK CFI 48c74 .cfa: sp 32 +
STACK CFI 48c7c .cfa: x29 32 + x19: .cfa -16 + ^ .ra: .cfa -24 + ^ x29: .cfa -32 + ^
STACK CFI 48c9c .cfa: sp 32 +
STACK CFI 48ca4 .cfa: sp 0 +
STACK CFI INIT 48f50 48 .cfa: sp 0 +
STACK CFI 48f54 .cfa: sp 32 +
STACK CFI 48f5c .cfa: x29 32 + x19: .cfa -16 + ^ .ra: .cfa -24 + ^ x29: .cfa -32 + ^
STACK CFI 48f8c .cfa: sp 32 +
STACK CFI 48f94 .cfa: sp 0 +
STACK CFI INIT 49dac 54 .cfa: sp 0 +
STACK CFI 49db0 .cfa: sp 32 +
STACK CFI 49db8 .cfa: x29 32 + x19: .cfa -8 + ^ x20: .cfa -16 + ^ .ra: .cfa -24 + ^ x29: .cfa -32 + ^
STACK CFI 49df4 .cfa: sp 32 +
STACK CFI 49dfc .cfa: sp 0 +
STACK CFI INIT 49e00 38 .cfa: sp 0 +
STACK CFI 49e04 .cfa: sp 32 +
STACK CFI 49e0c .cfa: x29 32 + x19: .cfa -16 + ^ .ra: .cfa -24 + ^ x29: .cfa -32 + ^
STACK CFI 49e2c .cfa: sp 32 +
STACK CFI 49e34 .cfa: sp 0 +
STACK CFI INIT 49e38 9c .cfa: sp 0 +
STACK CFI 49e3c .cfa: sp 272 +
STACK CFI 49e48 .cfa: x29 32 + x19: .cfa -8 + ^ x28: .cfa -16 + ^ .ra: .cfa -24 + ^ x29: .cfa -32 + ^
STACK CFI 49ec0 .cfa: sp 272 +
STACK CFI 49ecc .cfa: sp 0 +
STACK CFI 49ed0 .cfa: x29 32 +
STACK CFI INIT 4aab8 54 .cfa: sp 0 +
STACK CFI 4aad4 .cfa: sp 32 +
STACK CFI 4aadc .cfa: x29 32 + x19: .cfa -8 + ^ x20: .cfa -16 + ^ .ra: .cfa -24 + ^ x29: .cfa -32 + ^
STACK CFI INIT 4c008 178 .cfa: sp 0 +
STACK CFI 4c00c .cfa: sp 80 +
STACK CFI 4c020 .cfa: x29 80 + x19: .cfa -8 + ^ x20: .cfa -16 + ^ x21: .cfa -24 + ^ x22: .cfa -32 + ^ x23: .cfa -40 + ^ x24: .cfa -48 + ^ x25: .cfa -56 + ^ x26: .cfa -64 + ^ .ra: .cfa -72 + ^ x29: .cfa -80 + ^
STACK CFI 4c168 .cfa: sp 80 +
STACK CFI 4c17c .cfa: sp 0 +
STACK CFI INIT 4c9ac 14 .cfa: sp 0 +
STACK CFI 4c9b0 .cfa: sp 16 +
STACK CFI 4c9b4 .cfa: x29 16 + .ra: .cfa -8 + ^ x29: .cfa -16 + ^
STACK CFI INIT 4c9c0 14 .cfa: sp 0 +
STACK CFI 4c9c4 .cfa: sp 16 +
STACK CFI 4c9c8 .cfa: x29 16 + .ra: .cfa -8 + ^ x29: .cfa -16 + ^
STACK CFI INIT 4d34c 4 .cfa: sp 0 +
STACK CFI INIT 4d8f0 14 .cfa: sp 0 +
STACK CFI 4d8f4 .cfa: sp 16 +
STACK CFI 4d8f8 .cfa: x29 16 + .ra: .cfa -8 + ^ x29: .cfa -16 + ^
STACK CFI INIT 4df2c 4 .cfa: sp 0 +
STACK CFI INIT 4df30 b8 .cfa: sp 0 +
STACK CFI 4df34 .cfa: sp 32 +
STACK CFI 4df3c .cfa: x29 32 + x19: .cfa -8 + ^ x20: .cfa -16 + ^ .ra: .cfa -24 + ^ x29: .cfa -32 + ^
STACK CFI 4dfdc .cfa: sp 32 +
STACK CFI 4dfe4 .cfa: sp 0 +
STACK CFI INIT 4dfe8 110 .cfa: sp 0 +
STACK CFI 4dfec .cfa: sp 64 +
STACK CFI 4dffc .cfa: x29 48 + x19: .cfa -8 + ^ x20: .cfa -16 + ^ x21: .cfa -32 + ^ .ra: .cfa -40 + ^ x29: .cfa -48 + ^
STACK CFI 4e0e0 .cfa: sp 64 +
STACK CFI 4e0f0 .cfa: sp 0 +
STACK CFI 4e0f4 .cfa: x29 48 +
STACK CFI INIT 3c018 84 .cfa: sp 0 +
STACK CFI 3c01c .cfa: sp 32 +
STACK CFI 3c024 .cfa: x29 32 + x19: .cfa -16 + ^ .ra: .cfa -24 + ^ x29: .cfa -32 + ^
STACK CFI 3c090 .cfa: sp 32 +
STACK CFI 3c098 .cfa: sp 0 +
STACK CFI INIT 4eb74 1c .cfa: sp 0 +
STACK CFI INIT 4eb90 1c .cfa: sp 0 +
STACK CFI INIT 4eeec 4 .cfa: sp 0 +
STACK CFI INIT 4fe0c 50 .cfa: sp 0 +
STACK CFI 4fe10 .cfa: sp 32 +
STACK CFI 4fe18 .cfa: x29 32 + x19: .cfa -16 + ^ .ra: .cfa -24 + ^ x29: .cfa -32 + ^
STACK CFI 4fe30 .cfa: sp 32 +
STACK CFI 4fe38 .cfa: sp 0 +
STACK CFI 4fe3c .cfa: x29 32 +
STACK CFI 4fe50 .cfa: sp 32 +
STACK CFI 4fe58 .cfa: sp 0 +
STACK CFI INIT 4fe5c 50 .cfa: sp 0 +
STACK CFI 4fe60 .cfa: sp 32 +
STACK CFI 4fe68 .cfa: x29 32 + x19: .cfa -16 + ^ .ra: .cfa -24 + ^ x29: .cfa -32 + ^
STACK CFI 4fe80 .cfa: sp 32 +
STACK CFI 4fe88 .cfa: sp 0 +
STACK CFI 4fe8c .cfa: x29 32 +
STACK CFI 4fea0 .cfa: sp 32 +
STACK CFI 4fea8 .cfa: sp 0 +
STACK CFI INIT 4feac 131c .cfa: sp 0 +
STACK CFI 4feb0 .cfa: sp 144 +
STACK CFI 4fecc .cfa: x29 96 + x19: .cfa -8 + ^ x20: .cfa -16 + ^ x21: .cfa -24 + ^ x22: .cfa -32 + ^ x23: .cfa -40 + ^ x24: .cfa -48 + ^ x25: .cfa -56 + ^ x26: .cfa -64 + ^ x27: .cfa -72 + ^ x28: .cfa -80 + ^ .ra: .cfa -88 + ^ x29: .cfa -96 + ^
STACK CFI 4ff24 .cfa: sp 144 +
STACK CFI 4ff28 .cfa: x29 96 +
STACK CFI 4ff60 .cfa: sp 144 +
STACK CFI 4ff64 .cfa: x29 96 +
STACK CFI 50270 .cfa: sp 144 +
STACK CFI 50274 .cfa: x29 96 +
STACK CFI 502a8 .cfa: sp 144 +
STACK CFI 502ac .cfa: x29 96 +
STACK CFI 502dc .cfa: sp 144 +
STACK CFI 502e0 .cfa: x29 96 +
STACK CFI 50454 .cfa: sp 144 +
STACK CFI 50470 .cfa: sp 0 +
STACK CFI 50474 .cfa: x29 96 +
STACK CFI 50484 .cfa: sp 144 +
STACK CFI 50488 .cfa: x29 96 +
STACK CFI 504ec .cfa: sp 144 +
STACK CFI 504f0 .cfa: x29 96 +
STACK CFI 504fc .cfa: sp 144 +
STACK CFI 50500 .cfa: x29 96 +
STACK CFI 50b4c .cfa: sp 144 +
STACK CFI 50b68 .cfa: sp 0 +
STACK CFI 50b6c .cfa: x29 96 +
STACK CFI 50bfc .cfa: sp 144 +
STACK CFI 50c00 .cfa: x29 96 +
STACK CFI 51054 .cfa: sp 144 +
STACK CFI 51070 .cfa: sp 0 +
STACK CFI 51074 .cfa: x29 96 +
STACK CFI INIT 511c8 64 .cfa: sp 0 +
STACK CFI 511cc .cfa: sp 32 +
STACK CFI 511d4 .cfa: x29 32 + x19: .cfa -16 + ^ .ra: .cfa -24 + ^ x29: .cfa -32 + ^
STACK CFI 51200 .cfa: sp 32 +
STACK CFI 51208 .cfa: sp 0 +
STACK CFI 5120c .cfa: x29 32 +
STACK CFI 51220 .cfa: sp 32 +
STACK CFI 51228 .cfa: sp 0 +
STACK CFI INIT 5122c 10 .cfa: sp 0 +
STACK CFI INIT 5123c 30 .cfa: sp 0 +
STACK CFI 51240 .cfa: sp 32 +
STACK CFI 51248 .cfa: x29 32 + x19: .cfa -16 + ^ .ra: .cfa -24 + ^ x29: .cfa -32 + ^
STACK CFI 51260 .cfa: sp 32 +
STACK CFI 51268 .cfa: sp 0 +
STACK CFI INIT 5126c c .cfa: sp 0 +
STACK CFI INIT 51278 4 .cfa: sp 0 +
STACK CFI INIT 5127c 8 .cfa: sp 0 +
STACK CFI INIT 51284 8 .cfa: sp 0 +
STACK CFI INIT 5128c 4 .cfa: sp 0 +
STACK CFI INIT 51290 4 .cfa: sp 0 +
STACK CFI INIT 518a4 a4 .cfa: sp 0 +
STACK CFI 518a8 .cfa: sp 272 +
STACK CFI 518b4 .cfa: x29 32 + x19: .cfa -8 + ^ x28: .cfa -16 + ^ .ra: .cfa -24 + ^ x29: .cfa -32 + ^
STACK CFI 51934 .cfa: sp 272 +
STACK CFI 51940 .cfa: sp 0 +
STACK CFI 51944 .cfa: x29 32 +
STACK CFI INIT 51cfc 448 .cfa: sp 0 +
STACK CFI 51d00 .cfa: sp 48 +
STACK CFI 51d0c .cfa: x29 48 + x19: .cfa -8 + ^ x20: .cfa -16 + ^ x21: .cfa -32 + ^ .ra: .cfa -40 + ^ x29: .cfa -48 + ^
STACK CFI 51dd0 .cfa: sp 48 +
STACK CFI 51ddc .cfa: sp 0 +
STACK CFI 51de0 .cfa: x29 48 +
STACK CFI 51ee0 .cfa: sp 48 +
STACK CFI 51eec .cfa: sp 0 +
STACK CFI 51ef0 .cfa: x29 48 +
STACK CFI 5205c .cfa: sp 48 +
STACK CFI 52068 .cfa: sp 0 +
STACK CFI 5206c .cfa: x29 48 +
STACK CFI 52074 .cfa: sp 48 +
STACK CFI 52080 .cfa: sp 0 +
STACK CFI 52084 .cfa: x29 48 +
STACK CFI 52098 .cfa: sp 48 +
STACK CFI 520a4 .cfa: sp 0 +
STACK CFI 520a8 .cfa: x29 48 +
STACK CFI 520bc .cfa: sp 48 +
STACK CFI 520c8 .cfa: sp 0 +
STACK CFI 520cc .cfa: x29 48 +
STACK CFI 520f0 .cfa: sp 48 +
STACK CFI 520fc .cfa: sp 0 +
STACK CFI 52100 .cfa: x29 48 +
STACK CFI 52134 .cfa: sp 48 +
STACK CFI 52140 .cfa: sp 0 +
STACK CFI INIT 524cc 4 .cfa: sp 0 +
STACK CFI INIT 5258c 3c .cfa: sp 0 +
STACK CFI 52590 .cfa: sp 32 +
STACK CFI 52598 .cfa: x29 32 + x19: .cfa -16 + ^ .ra: .cfa -24 + ^ x29: .cfa -32 + ^
STACK CFI 525a4 .cfa: sp 32 +
STACK CFI 525ac .cfa: sp 0 +
STACK CFI 525b0 .cfa: x29 32 +
STACK CFI 525bc .cfa: sp 32 +
STACK CFI 525c4 .cfa: sp 0 +
STACK CFI INIT 525c8 4c .cfa: sp 0 +
STACK CFI 525cc .cfa: sp 32 +
STACK CFI 525d4 .cfa: x29 32 + x19: .cfa -8 + ^ x20: .cfa -16 + ^ .ra: .cfa -24 + ^ x29: .cfa -32 + ^
STACK CFI 525fc .cfa: sp 32 +
STACK CFI 52604 .cfa: sp 0 +
STACK CFI 52608 .cfa: sp 32 +
STACK CFI 52610 .cfa: sp 0 +
STACK CFI INIT 52834 64 .cfa: sp 0 +
STACK CFI 52838 .cfa: sp 32 +
STACK CFI 52840 .cfa: x29 32 + x19: .cfa -16 + ^ .ra: .cfa -24 + ^ x29: .cfa -32 + ^
STACK CFI 5286c .cfa: sp 32 +
STACK CFI 52874 .cfa: sp 0 +
STACK CFI 52878 .cfa: x29 32 +
STACK CFI 5288c .cfa: sp 32 +
STACK CFI 52894 .cfa: sp 0 +
STACK CFI INIT 52aa0 24 .cfa: sp 0 +
STACK CFI 52aa4 .cfa: sp 32 +
STACK CFI 52aac .cfa: x29 32 + x19: .cfa -16 + ^ .ra: .cfa -24 + ^ x29: .cfa -32 + ^
STACK CFI 52ab8 .cfa: sp 32 +
STACK CFI 52ac0 .cfa: sp 0 +
STACK CFI INIT 52ac4 24 .cfa: sp 0 +
STACK CFI 52ac8 .cfa: sp 32 +
STACK CFI 52ad0 .cfa: x29 32 + x19: .cfa -16 + ^ .ra: .cfa -24 + ^ x29: .cfa -32 + ^
STACK CFI 52adc .cfa: sp 32 +
STACK CFI 52ae4 .cfa: sp 0 +
STACK CFI INIT 52ae8 8 .cfa: sp 0 +
STACK CFI INIT 52af0 24 .cfa: sp 0 +
STACK CFI 52af4 .cfa: sp 32 +
STACK CFI 52afc .cfa: x29 32 + x19: .cfa -16 + ^ .ra: .cfa -24 + ^ x29: .cfa -32 + ^
STACK CFI 52b08 .cfa: sp 32 +
STACK CFI 52b10 .cfa: sp 0 +
STACK CFI INIT 52b14 28 .cfa: sp 0 +
STACK CFI 52b18 .cfa: sp 32 +
STACK CFI 52b20 .cfa: x29 32 + x19: .cfa -16 + ^ .ra: .cfa -24 + ^ x29: .cfa -32 + ^
STACK CFI 52b30 .cfa: sp 32 +
STACK CFI 52b38 .cfa: sp 0 +
STACK CFI INIT 52e14 8 .cfa: sp 0 +
STACK CFI INIT 52e1c 24 .cfa: sp 0 +
STACK CFI 52e20 .cfa: sp 32 +
STACK CFI 52e28 .cfa: x29 32 + x19: .cfa -16 + ^ .ra: .cfa -24 + ^ x29: .cfa -32 + ^
STACK CFI 52e34 .cfa: sp 32 +
STACK CFI 52e3c .cfa: sp 0 +
STACK CFI INIT 52e40 28 .cfa: sp 0 +
STACK CFI 52e44 .cfa: sp 32 +
STACK CFI 52e4c .cfa: x29 32 + x19: .cfa -16 + ^ .ra: .cfa -24 + ^ x29: .cfa -32 + ^
STACK CFI 52e5c .cfa: sp 32 +
STACK CFI 52e64 .cfa: sp 0 +
STACK CFI INIT 530b8 8 .cfa: sp 0 +
STACK CFI INIT 530c0 24 .cfa: sp 0 +
STACK CFI 530c4 .cfa: sp 32 +
STACK CFI 530cc .cfa: x29 32 + x19: .cfa -16 + ^ .ra: .cfa -24 + ^ x29: .cfa -32 + ^
STACK CFI 530d8 .cfa: sp 32 +
STACK CFI 530e0 .cfa: sp 0 +
STACK CFI INIT 530e4 28 .cfa: sp 0 +
STACK CFI 530e8 .cfa: sp 32 +
STACK CFI 530f0 .cfa: x29 32 + x19: .cfa -16 + ^ .ra: .cfa -24 + ^ x29: .cfa -32 + ^
STACK CFI 53100 .cfa: sp 32 +
STACK CFI 53108 .cfa: sp 0 +
STACK CFI INIT 5310c 8 .cfa: sp 0 +
STACK CFI INIT 53114 24 .cfa: sp 0 +
STACK CFI 53118 .cfa: sp 32 +
STACK CFI 53120 .cfa: x29 32 + x19: .cfa -16 + ^ .ra: .cfa -24 + ^ x29: .cfa -32 + ^
STACK CFI 5312c .cfa: sp 32 +
STACK CFI 53134 .cfa: sp 0 +
STACK CFI INIT 53138 28 .cfa: sp 0 +
STACK CFI 5313c .cfa: sp 32 +
STACK CFI 53144 .cfa: x29 32 + x19: .cfa -16 + ^ .ra: .cfa -24 + ^ x29: .cfa -32 + ^
STACK CFI 53154 .cfa: sp 32 +
STACK CFI 5315c .cfa: sp 0 +
STACK CFI INIT 5392c 4 .cfa: sp 0 +
STACK CFI INIT 54b70 4 .cfa: sp 0 +
STACK CFI INIT 54b74 14 .cfa: sp 0 +
STACK CFI INIT 28a10 c8 .cfa: sp 0 +
STACK CFI 28a14 .cfa: sp 64 +
STACK CFI 28a24 .cfa: x29 48 + x19: .cfa -8 + ^ x20: .cfa -16 + ^ x21: .cfa -32 + ^ .ra: .cfa -40 + ^ x29: .cfa -48 + ^
STACK CFI 28a9c .cfa: sp 64 +
STACK CFI 28aac .cfa: sp 0 +
STACK CFI 28ab0 .cfa: x29 48 +
STACK CFI INIT 28ad8 128 .cfa: sp 0 +
STACK CFI 28adc .cfa: sp 96 +
STACK CFI 28af0 .cfa: x29 64 + x19: .cfa -8 + ^ x20: .cfa -16 + ^ x21: .cfa -24 + ^ x22: .cfa -32 + ^ x23: .cfa -48 + ^ .ra: .cfa -56 + ^ x29: .cfa -64 + ^
STACK CFI 28ba0 .cfa: sp 96 +
STACK CFI 28bb4 .cfa: sp 0 +
STACK CFI 28bb8 .cfa: x29 64 +
STACK CFI INIT 28ca0 1b4 .cfa: sp 0 +
STACK CFI 28ca4 .cfa: sp 80 +
STACK CFI 28cb8 .cfa: x29 64 + x19: .cfa -8 + ^ x20: .cfa -16 + ^ x21: .cfa -24 + ^ x22: .cfa -32 + ^ x23: .cfa -40 + ^ x24: .cfa -48 + ^ .ra: .cfa -56 + ^ x29: .cfa -64 + ^
STACK CFI 28dc4 .cfa: sp 80 +
STACK CFI 28dd8 .cfa: sp 0 +
STACK CFI 28ddc .cfa: x29 64 +
STACK CFI INIT 28e54 be0 .cfa: sp 0 +
STACK CFI 28e58 .cfa: sp 192 +
STACK CFI 28e78 .cfa: x29 96 + x19: .cfa -8 + ^ x20: .cfa -16 + ^ x21: .cfa -24 + ^ x22: .cfa -32 + ^ x23: .cfa -40 + ^ x24: .cfa -48 + ^ x25: .cfa -56 + ^ x26: .cfa -64 + ^ x27: .cfa -72 + ^ x28: .cfa -80 + ^ .ra: .cfa -88 + ^ x29: .cfa -96 + ^ v8: .cfa -104 + ^ v9: .cfa -112 + ^
STACK CFI 294f0 .cfa: sp 192 +
STACK CFI 29510 .cfa: sp 0 +
STACK CFI 29514 .cfa: x29 96 +
STACK CFI INIT 29c08 278 .cfa: sp 0 +
STACK CFI 29c0c .cfa: sp 64 +
STACK CFI 29c1c .cfa: x29 48 + x19: .cfa -8 + ^ x20: .cfa -16 + ^ x21: .cfa -24 + ^ x22: .cfa -32 + ^ .ra: .cfa -40 + ^ x29: .cfa -48 + ^
STACK CFI 29dc4 .cfa: sp 64 +
STACK CFI 29dd4 .cfa: sp 0 +
STACK CFI 29dd8 .cfa: x29 48 +
STACK CFI INIT 29e80 13f4 .cfa: sp 0 +
STACK CFI 29e84 .cfa: sp 80 +
STACK CFI 29e98 .cfa: x29 64 + x19: .cfa -8 + ^ x20: .cfa -16 + ^ x21: .cfa -24 + ^ x22: .cfa -32 + ^ x23: .cfa -40 + ^ x24: .cfa -48 + ^ .ra: .cfa -56 + ^ x29: .cfa -64 + ^
STACK CFI 2a268 .cfa: sp 80 +
STACK CFI 2a27c .cfa: sp 0 +
STACK CFI 2a280 .cfa: x29 64 +
STACK CFI INIT 2b274 958 .cfa: sp 0 +
STACK CFI 2b278 .cfa: sp 80 +
STACK CFI 2b28c .cfa: x29 64 + x19: .cfa -8 + ^ x20: .cfa -16 + ^ x21: .cfa -24 + ^ x22: .cfa -32 + ^ x23: .cfa -40 + ^ x24: .cfa -48 + ^ .ra: .cfa -56 + ^ x29: .cfa -64 + ^
STACK CFI 2baa0 .cfa: sp 80 +
STACK CFI 2bab4 .cfa: sp 0 +
STACK CFI 2bab8 .cfa: x29 64 +
STACK CFI INIT 2bbcc 340 .cfa: sp 0 +
STACK CFI 2bbd0 .cfa: sp 64 +
STACK CFI 2bbe0 .cfa: x29 48 + x19: .cfa -8 + ^ x20: .cfa -16 + ^ x21: .cfa -24 + ^ x22: .cfa -32 + ^ .ra: .cfa -40 + ^ x29: .cfa -48 + ^
STACK CFI 2be88 .cfa: sp 64 +
STACK CFI 2be98 .cfa: sp 0 +
STACK CFI 2be9c .cfa: x29 48 +
STACK CFI INIT 2bf0c 12c .cfa: sp 0 +
STACK CFI 2bf10 .cfa: sp 80 +
STACK CFI 2bf24 .cfa: x29 80 + x19: .cfa -8 + ^ x20: .cfa -16 + ^ x21: .cfa -24 + ^ x22: .cfa -32 + ^ x23: .cfa -40 + ^ x24: .cfa -48 + ^ x25: .cfa -56 + ^ x26: .cfa -64 + ^ .ra: .cfa -72 + ^ x29: .cfa -80 + ^
STACK CFI 2bfec .cfa: sp 80 +
STACK CFI 2c000 .cfa: sp 0 +
STACK CFI 2c004 .cfa: x29 80 +
STACK CFI INIT 2c8d8 1a4 .cfa: sp 0 +
STACK CFI 2c8dc .cfa: sp 112 +
STACK CFI 2c8f4 .cfa: x29 80 + x19: .cfa -8 + ^ x20: .cfa -16 + ^ x21: .cfa -24 + ^ x22: .cfa -32 + ^ x23: .cfa -40 + ^ x24: .cfa -48 + ^ x25: .cfa -56 + ^ x26: .cfa -64 + ^ .ra: .cfa -72 + ^ x29: .cfa -80 + ^
STACK CFI 2c9e4 .cfa: sp 112 +
STACK CFI 2c9fc .cfa: sp 0 +
STACK CFI 2ca00 .cfa: x29 80 +
STACK CFI INIT 2ca7c 1dc .cfa: sp 0 +
STACK CFI 2ca80 .cfa: sp 128 +
STACK CFI 2ca9c .cfa: x29 96 + x19: .cfa -8 + ^ x20: .cfa -16 + ^ x21: .cfa -24 + ^ x22: .cfa -32 + ^ x23: .cfa -40 + ^ x24: .cfa -48 + ^ x25: .cfa -56 + ^ x26: .cfa -64 + ^ x27: .cfa -80 + ^ .ra: .cfa -88 + ^ x29: .cfa -96 + ^
STACK CFI 2cc08 .cfa: sp 128 +
STACK CFI 2cc24 .cfa: sp 0 +
STACK CFI 2cc28 .cfa: x29 96 +
STACK CFI INIT 2cc7c 50 .cfa: sp 0 +
STACK CFI 2cc80 .cfa: sp 32 +
STACK CFI 2cc88 .cfa: x29 32 + x19: .cfa -8 + ^ x20: .cfa -16 + ^ .ra: .cfa -24 + ^ x29: .cfa -32 + ^
STACK CFI INIT 2cd10 50 .cfa: sp 0 +
STACK CFI 2cd14 .cfa: sp 32 +
STACK CFI 2cd1c .cfa: x29 32 + x19: .cfa -8 + ^ x20: .cfa -16 + ^ .ra: .cfa -24 + ^ x29: .cfa -32 + ^
STACK CFI INIT 2cd90 108 .cfa: sp 0 +
STACK CFI 2cd94 .cfa: sp 48 +
STACK CFI 2cda0 .cfa: x29 48 + x19: .cfa -8 + ^ x20: .cfa -16 + ^ x21: .cfa -24 + ^ x22: .cfa -32 + ^ .ra: .cfa -40 + ^ x29: .cfa -48 + ^
STACK CFI 2ce48 .cfa: sp 48 +
STACK CFI 2ce54 .cfa: sp 0 +
STACK CFI 2ce58 .cfa: x29 48 +
STACK CFI INIT 2d140 1b4 .cfa: sp 0 +
STACK CFI 2d144 .cfa: sp 80 +
STACK CFI 2d158 .cfa: x29 80 + x19: .cfa -8 + ^ x20: .cfa -16 + ^ x21: .cfa -24 + ^ x22: .cfa -32 + ^ x23: .cfa -40 + ^ x24: .cfa -48 + ^ x25: .cfa -64 + ^ .ra: .cfa -72 + ^ x29: .cfa -80 + ^
STACK CFI 2d2bc .cfa: sp 80 +
STACK CFI 2d2d0 .cfa: sp 0 +
STACK CFI 2d2d4 .cfa: x29 80 +
STACK CFI INIT 2d788 12c .cfa: sp 0 +
STACK CFI 2d78c .cfa: sp 80 +
STACK CFI 2d7a0 .cfa: x29 80 + x19: .cfa -8 + ^ x20: .cfa -16 + ^ x21: .cfa -24 + ^ x22: .cfa -32 + ^ x23: .cfa -40 + ^ x24: .cfa -48 + ^ x25: .cfa -64 + ^ .ra: .cfa -72 + ^ x29: .cfa -80 + ^
STACK CFI 2d82c .cfa: sp 80 +
STACK CFI 2d840 .cfa: sp 0 +
STACK CFI 2d844 .cfa: x29 80 +
STACK CFI INIT 2d8e0 1bc .cfa: sp 0 +
STACK CFI 2d8e4 .cfa: sp 416 +
STACK CFI 2d8f8 .cfa: x29 64 + x19: .cfa -8 + ^ x20: .cfa -16 + ^ x21: .cfa -24 + ^ x22: .cfa -32 + ^ x23: .cfa -40 + ^ x28: .cfa -48 + ^ .ra: .cfa -56 + ^ x29: .cfa -64 + ^
STACK CFI 2da34 .cfa: sp 416 +
STACK CFI 2da48 .cfa: sp 0 +
STACK CFI 2da4c .cfa: x29 64 +
STACK CFI INIT 2da9c 1f0 .cfa: sp 0 +
STACK CFI 2daa0 .cfa: sp 384 +
STACK CFI 2dab4 .cfa: x29 64 + x19: .cfa -8 + ^ x20: .cfa -16 + ^ x21: .cfa -24 + ^ x22: .cfa -32 + ^ x23: .cfa -40 + ^ x28: .cfa -48 + ^ .ra: .cfa -56 + ^ x29: .cfa -64 + ^
STACK CFI 2dc3c .cfa: sp 384 +
STACK CFI 2dc50 .cfa: sp 0 +
STACK CFI 2dc54 .cfa: x29 64 +
STACK CFI INIT 2dc8c 158 .cfa: sp 0 +
STACK CFI 2dc90 .cfa: sp 80 +
STACK CFI 2dca4 .cfa: x29 80 + x19: .cfa -8 + ^ x20: .cfa -16 + ^ x21: .cfa -24 + ^ x22: .cfa -32 + ^ x23: .cfa -40 + ^ x24: .cfa -48 + ^ x25: .cfa -64 + ^ .ra: .cfa -72 + ^ x29: .cfa -80 + ^
STACK CFI 2ddb0 .cfa: sp 80 +
STACK CFI 2ddc4 .cfa: sp 0 +
STACK CFI 2ddc8 .cfa: sp 80 +
STACK CFI 2dddc .cfa: sp 0 +
STACK CFI 2dde0 .cfa: x29 80 +
STACK CFI INIT 2dde4 1b0 .cfa: sp 0 +
STACK CFI 2dde8 .cfa: sp 96 +
STACK CFI 2de00 .cfa: x29 96 + x19: .cfa -8 + ^ x20: .cfa -16 + ^ x21: .cfa -24 + ^ x22: .cfa -32 + ^ x23: .cfa -40 + ^ x24: .cfa -48 + ^ x25: .cfa -56 + ^ x26: .cfa -64 + ^ x27: .cfa -80 + ^ .ra: .cfa -88 + ^ x29: .cfa -96 + ^
STACK CFI 2df64 .cfa: sp 96 +
STACK CFI 2df7c .cfa: sp 0 +
STACK CFI 2df80 .cfa: x29 96 +
STACK CFI INIT 2e1fc 20c4 .cfa: sp 0 +
STACK CFI 2e200 .cfa: sp 288 +
STACK CFI 2e21c .cfa: x29 96 + x19: .cfa -8 + ^ x20: .cfa -16 + ^ x21: .cfa -24 + ^ x22: .cfa -32 + ^ x23: .cfa -40 + ^ x24: .cfa -48 + ^ x25: .cfa -56 + ^ x26: .cfa -64 + ^ x27: .cfa -72 + ^ x28: .cfa -80 + ^ .ra: .cfa -88 + ^ x29: .cfa -96 + ^
STACK CFI 2ec48 .cfa: sp 288 +
STACK CFI 2ec64 .cfa: sp 0 +
STACK CFI 2ec68 .cfa: x29 96 +
STACK CFI INIT 302c0 118 .cfa: sp 0 +
STACK CFI 302c4 .cfa: sp 80 +
STACK CFI 302d4 .cfa: x29 48 + x19: .cfa -8 + ^ x20: .cfa -16 + ^ x21: .cfa -32 + ^ .ra: .cfa -40 + ^ x29: .cfa -48 + ^
STACK CFI 3039c .cfa: sp 80 +
STACK CFI 303ac .cfa: sp 0 +
STACK CFI 303b0 .cfa: x29 48 +
STACK CFI INIT 303d8 118 .cfa: sp 0 +
STACK CFI 303dc .cfa: sp 80 +
STACK CFI 303ec .cfa: x29 48 + x19: .cfa -8 + ^ x20: .cfa -16 + ^ x21: .cfa -32 + ^ .ra: .cfa -40 + ^ x29: .cfa -48 + ^
STACK CFI 304b4 .cfa: sp 80 +
STACK CFI 304c4 .cfa: sp 0 +
STACK CFI 304c8 .cfa: x29 48 +
STACK CFI INIT 3074c 260 .cfa: sp 0 +
STACK CFI 30750 .cfa: sp 128 +
STACK CFI 3076c .cfa: x29 96 + x19: .cfa -8 + ^ x20: .cfa -16 + ^ x21: .cfa -24 + ^ x22: .cfa -32 + ^ x23: .cfa -40 + ^ x24: .cfa -48 + ^ x25: .cfa -56 + ^ x26: .cfa -64 + ^ x27: .cfa -72 + ^ x28: .cfa -80 + ^ .ra: .cfa -88 + ^ x29: .cfa -96 + ^
STACK CFI 3095c .cfa: sp 128 +
STACK CFI 30978 .cfa: sp 0 +
STACK CFI 3097c .cfa: x29 96 +
STACK CFI INIT 30b64 cf0 .cfa: sp 0 +
STACK CFI 30b68 .cfa: sp 144 +
STACK CFI 30b88 .cfa: x29 96 + x19: .cfa -8 + ^ x20: .cfa -16 + ^ x21: .cfa -24 + ^ x22: .cfa -32 + ^ x23: .cfa -40 + ^ x24: .cfa -48 + ^ x25: .cfa -56 + ^ x26: .cfa -64 + ^ x27: .cfa -72 + ^ x28: .cfa -80 + ^ .ra: .cfa -88 + ^ x29: .cfa -96 + ^ v8: .cfa -104 + ^ v9: .cfa -112 + ^
STACK CFI 317dc .cfa: sp 144 +
STACK CFI 317fc .cfa: sp 0 +
STACK CFI 31800 .cfa: x29 96 +
STACK CFI INIT 319d4 11c .cfa: sp 0 +
STACK CFI 319d8 .cfa: sp 80 +
STACK CFI 319e8 .cfa: x29 48 + x19: .cfa -8 + ^ x20: .cfa -16 + ^ x21: .cfa -24 + ^ x22: .cfa -32 + ^ .ra: .cfa -40 + ^ x29: .cfa -48 + ^
STACK CFI 31ab4 .cfa: sp 80 +
STACK CFI 31ac4 .cfa: sp 0 +
STACK CFI 31ac8 .cfa: x29 48 +
STACK CFI INIT 31af0 194 .cfa: sp 0 +
STACK CFI 31af4 .cfa: sp 64 +
STACK CFI 31b04 .cfa: x29 48 + x19: .cfa -8 + ^ x20: .cfa -16 + ^ x21: .cfa -24 + ^ x22: .cfa -32 + ^ .ra: .cfa -40 + ^ x29: .cfa -48 + ^
STACK CFI 31bb8 .cfa: sp 64 +
STACK CFI 31bc8 .cfa: sp 0 +
STACK CFI 31bcc .cfa: x29 48 +
STACK CFI INIT 324dc 1d0 .cfa: sp 0 +
STACK CFI 324e0 .cfa: sp 96 +
STACK CFI 324f8 .cfa: x29 64 + x19: .cfa -8 + ^ x20: .cfa -16 + ^ x21: .cfa -24 + ^ x22: .cfa -32 + ^ x23: .cfa -48 + ^ .ra: .cfa -56 + ^ x29: .cfa -64 + ^ v8: .cfa -72 + ^ v9: .cfa -80 + ^ v10: .cfa -88 + ^ v11: .cfa -96 + ^
STACK CFI 32668 .cfa: sp 96 +
STACK CFI 32680 .cfa: sp 0 +
STACK CFI 32684 .cfa: x29 64 +
STACK CFI INIT 32de0 480 .cfa: sp 0 +
STACK CFI 32de4 .cfa: sp 224 +
STACK CFI 32e00 .cfa: x29 96 + x19: .cfa -8 + ^ x20: .cfa -16 + ^ x21: .cfa -24 + ^ x22: .cfa -32 + ^ x23: .cfa -40 + ^ x24: .cfa -48 + ^ x25: .cfa -56 + ^ x26: .cfa -64 + ^ x27: .cfa -80 + ^ .ra: .cfa -88 + ^ x29: .cfa -96 + ^
STACK CFI 3306c .cfa: sp 224 +
STACK CFI 33088 .cfa: sp 0 +
STACK CFI 3308c .cfa: x29 96 +
STACK CFI 33158 .cfa: sp 224 +
STACK CFI 33174 .cfa: sp 0 +
STACK CFI 33178 .cfa: x29 96 +
STACK CFI INIT 3327c 3c0 .cfa: sp 0 +
STACK CFI 33280 .cfa: sp 240 +
STACK CFI 33294 .cfa: x29 64 + x19: .cfa -8 + ^ x20: .cfa -16 + ^ x21: .cfa -24 + ^ x22: .cfa -32 + ^ x23: .cfa -40 + ^ x24: .cfa -48 + ^ .ra: .cfa -56 + ^ x29: .cfa -64 + ^
STACK CFI 33504 .cfa: sp 240 +
STACK CFI 33518 .cfa: sp 0 +
STACK CFI 3351c .cfa: x29 64 +
STACK CFI INIT 3368c 74 .cfa: sp 0 +
STACK CFI 33690 .cfa: sp 48 +
STACK CFI 3369c .cfa: x29 32 + x19: .cfa -8 + ^ x20: .cfa -16 + ^ .ra: .cfa -24 + ^ x29: .cfa -32 + ^
STACK CFI 336e8 .cfa: sp 48 +
STACK CFI 336f4 .cfa: sp 0 +
STACK CFI 336f8 .cfa: x29 32 +
STACK CFI INIT 33780 154 .cfa: sp 0 +
STACK CFI 33784 .cfa: sp 384 +
STACK CFI 33798 .cfa: x29 64 + x19: .cfa -8 + ^ x20: .cfa -16 + ^ x21: .cfa -24 + ^ x22: .cfa -32 + ^ x23: .cfa -40 + ^ x28: .cfa -48 + ^ .ra: .cfa -56 + ^ x29: .cfa -64 + ^
STACK CFI 3387c .cfa: sp 384 +
STACK CFI 33890 .cfa: sp 0 +
STACK CFI 33894 .cfa: x29 64 +
STACK CFI INIT 3392c 178 .cfa: sp 0 +
STACK CFI 33930 .cfa: sp 80 +
STACK CFI 33944 .cfa: x29 80 + x19: .cfa -8 + ^ x20: .cfa -16 + ^ x21: .cfa -24 + ^ x22: .cfa -32 + ^ x23: .cfa -40 + ^ x24: .cfa -48 + ^ x25: .cfa -64 + ^ .ra: .cfa -72 + ^ x29: .cfa -80 + ^
STACK CFI 33a70 .cfa: sp 80 +
STACK CFI 33a84 .cfa: sp 0 +
STACK CFI 33a88 .cfa: x29 80 +
STACK CFI INIT 33bec 228 .cfa: sp 0 +
STACK CFI 33bf0 .cfa: sp 128 +
STACK CFI 33c08 .cfa: x29 80 + x19: .cfa -8 + ^ x20: .cfa -16 + ^ x21: .cfa -24 + ^ x22: .cfa -32 + ^ x23: .cfa -40 + ^ x24: .cfa -48 + ^ x25: .cfa -64 + ^ .ra: .cfa -72 + ^ x29: .cfa -80 + ^
STACK CFI 33da4 .cfa: sp 128 +
STACK CFI 33dbc .cfa: sp 0 +
STACK CFI 33dc0 .cfa: x29 80 +
STACK CFI INIT 34b54 5f8 .cfa: sp 0 +
STACK CFI 34b58 .cfa: sp 144 +
STACK CFI 34b70 .cfa: x29 80 + x19: .cfa -8 + ^ x20: .cfa -16 + ^ x21: .cfa -24 + ^ x22: .cfa -32 + ^ x23: .cfa -40 + ^ x24: .cfa -48 + ^ x25: .cfa -64 + ^ .ra: .cfa -72 + ^ x29: .cfa -80 + ^
STACK CFI 350a0 .cfa: sp 144 +
STACK CFI 350b8 .cfa: sp 0 +
STACK CFI 350bc .cfa: x29 80 +
STACK CFI INIT 352b4 828 .cfa: sp 0 +
STACK CFI 352b8 .cfa: sp 464 +
STACK CFI 352d4 .cfa: x29 96 + x19: .cfa -8 + ^ x20: .cfa -16 + ^ x21: .cfa -24 + ^ x22: .cfa -32 + ^ x23: .cfa -40 + ^ x24: .cfa -48 + ^ x25: .cfa -56 + ^ x26: .cfa -64 + ^ x27: .cfa -72 + ^ x28: .cfa -80 + ^ .ra: .cfa -88 + ^ x29: .cfa -96 + ^
STACK CFI 358cc .cfa: sp 464 +
STACK CFI 358e8 .cfa: sp 0 +
STACK CFI 358ec .cfa: x29 96 +
STACK CFI INIT 35c34 254 .cfa: sp 0 +
STACK CFI 35c38 .cfa: sp 128 +
STACK CFI 35c48 .cfa: x29 48 + x19: .cfa -8 + ^ x20: .cfa -16 + ^ x21: .cfa -24 + ^ x22: .cfa -32 + ^ .ra: .cfa -40 + ^ x29: .cfa -48 + ^
STACK CFI 35df4 .cfa: sp 128 +
STACK CFI 35e04 .cfa: sp 0 +
STACK CFI 35e08 .cfa: x29 48 +
STACK CFI INIT 35e88 74 .cfa: sp 0 +
STACK CFI 35e8c .cfa: sp 48 +
STACK CFI 35e98 .cfa: x29 32 + x19: .cfa -8 + ^ x20: .cfa -16 + ^ .ra: .cfa -24 + ^ x29: .cfa -32 + ^
STACK CFI 35ee4 .cfa: sp 48 +
STACK CFI 35ef0 .cfa: sp 0 +
STACK CFI 35ef4 .cfa: x29 32 +
STACK CFI INIT 35efc 19c .cfa: sp 0 +
STACK CFI 35f00 .cfa: sp 112 +
STACK CFI 35f10 .cfa: x29 48 + x19: .cfa -8 + ^ x20: .cfa -16 + ^ x21: .cfa -32 + ^ .ra: .cfa -40 + ^ x29: .cfa -48 + ^
STACK CFI 36048 .cfa: sp 112 +
STACK CFI 36058 .cfa: sp 0 +
STACK CFI 3605c .cfa: x29 48 +
STACK CFI INIT 360a0 6c .cfa: sp 0 +
STACK CFI 360a4 .cfa: sp 32 +
STACK CFI 360ac .cfa: x29 32 + x19: .cfa -16 + ^ .ra: .cfa -24 + ^ x29: .cfa -32 + ^
STACK CFI 360fc .cfa: sp 32 +
STACK CFI 36104 .cfa: sp 0 +
STACK CFI 36108 .cfa: x29 32 +
STACK CFI INIT 3610c 74 .cfa: sp 0 +
STACK CFI 36110 .cfa: sp 32 +
STACK CFI 36118 .cfa: x29 32 + x19: .cfa -16 + ^ .ra: .cfa -24 + ^ x29: .cfa -32 + ^
STACK CFI 36170 .cfa: sp 32 +
STACK CFI 36178 .cfa: sp 0 +
STACK CFI 3617c .cfa: x29 32 +
STACK CFI INIT 361e0 6c .cfa: sp 0 +
STACK CFI 361e4 .cfa: sp 32 +
STACK CFI 361ec .cfa: x29 32 + x19: .cfa -16 + ^ .ra: .cfa -24 + ^ x29: .cfa -32 + ^
STACK CFI 3623c .cfa: sp 32 +
STACK CFI 36244 .cfa: sp 0 +
STACK CFI 36248 .cfa: x29 32 +
STACK CFI INIT 3624c 74 .cfa: sp 0 +
STACK CFI 36250 .cfa: sp 32 +
STACK CFI 36258 .cfa: x29 32 + x19: .cfa -16 + ^ .ra: .cfa -24 + ^ x29: .cfa -32 + ^
STACK CFI 362b0 .cfa: sp 32 +
STACK CFI 362b8 .cfa: sp 0 +
STACK CFI 362bc .cfa: x29 32 +
STACK CFI INIT 3631c 23c .cfa: sp 0 +
STACK CFI 36320 .cfa: sp 112 +
STACK CFI 36334 .cfa: x29 64 + x19: .cfa -8 + ^ x20: .cfa -16 + ^ x21: .cfa -24 + ^ x22: .cfa -32 + ^ x23: .cfa -48 + ^ .ra: .cfa -56 + ^ x29: .cfa -64 + ^
STACK CFI 364ec .cfa: sp 112 +
STACK CFI 36500 .cfa: sp 0 +
STACK CFI 36504 .cfa: x29 64 +
STACK CFI INIT 36558 120 .cfa: sp 0 +
STACK CFI 3655c .cfa: sp 64 +
STACK CFI 3656c .cfa: x29 64 + x19: .cfa -8 + ^ x20: .cfa -16 + ^ x21: .cfa -24 + ^ x22: .cfa -32 + ^ x23: .cfa -48 + ^ .ra: .cfa -56 + ^ x29: .cfa -64 + ^
STACK CFI 365b8 .cfa: sp 64 +
STACK CFI 365c8 .cfa: sp 0 +
STACK CFI 365cc .cfa: x29 64 +
STACK CFI 3661c .cfa: sp 64 +
STACK CFI 3662c .cfa: sp 0 +
STACK CFI 36630 .cfa: x29 64 +
STACK CFI INIT 369c8 868 .cfa: sp 0 +
STACK CFI 369cc .cfa: sp 128 +
STACK CFI 369e8 .cfa: x29 96 + x19: .cfa -8 + ^ x20: .cfa -16 + ^ x21: .cfa -24 + ^ x22: .cfa -32 + ^ x23: .cfa -40 + ^ x24: .cfa -48 + ^ x25: .cfa -56 + ^ x26: .cfa -64 + ^ x27: .cfa -72 + ^ x28: .cfa -80 + ^ .ra: .cfa -88 + ^ x29: .cfa -96 + ^
STACK CFI 371e4 .cfa: sp 128 +
STACK CFI 37200 .cfa: sp 0 +
STACK CFI 37204 .cfa: x29 96 +
STACK CFI INIT 37380 148 .cfa: sp 0 +
STACK CFI 37384 .cfa: sp 96 +
STACK CFI 37394 .cfa: x29 48 + x19: .cfa -8 + ^ x20: .cfa -16 + ^ x21: .cfa -32 + ^ .ra: .cfa -40 + ^ x29: .cfa -48 + ^
STACK CFI 3747c .cfa: sp 96 +
STACK CFI 3748c .cfa: sp 0 +
STACK CFI 37490 .cfa: x29 48 +
STACK CFI INIT 374c8 6c .cfa: sp 0 +
STACK CFI 374cc .cfa: sp 32 +
STACK CFI 374d4 .cfa: x29 32 + x19: .cfa -16 + ^ .ra: .cfa -24 + ^ x29: .cfa -32 + ^
STACK CFI 37524 .cfa: sp 32 +
STACK CFI 3752c .cfa: sp 0 +
STACK CFI 37530 .cfa: x29 32 +
STACK CFI INIT 37654 1a4 .cfa: sp 0 +
STACK CFI 37658 .cfa: sp 128 +
STACK CFI 37668 .cfa: x29 48 + x19: .cfa -8 + ^ x20: .cfa -16 + ^ x21: .cfa -24 + ^ x22: .cfa -32 + ^ .ra: .cfa -40 + ^ x29: .cfa -48 + ^
STACK CFI 3777c .cfa: sp 128 +
STACK CFI 3778c .cfa: sp 0 +
STACK CFI 37790 .cfa: x29 48 +
STACK CFI INIT 37ba4 1d0 .cfa: sp 0 +
STACK CFI 37ba8 .cfa: sp 128 +
STACK CFI 37bbc .cfa: x29 64 + x19: .cfa -8 + ^ x20: .cfa -16 + ^ x21: .cfa -24 + ^ x22: .cfa -32 + ^ x23: .cfa -48 + ^ .ra: .cfa -56 + ^ x29: .cfa -64 + ^
STACK CFI 37d34 .cfa: sp 128 +
STACK CFI 37d48 .cfa: sp 0 +
STACK CFI 37d4c .cfa: x29 64 +
STACK CFI INIT 38088 1c4 .cfa: sp 0 +
STACK CFI 3808c .cfa: sp 112 +
STACK CFI 3809c .cfa: x29 48 + x19: .cfa -8 + ^ x20: .cfa -16 + ^ x21: .cfa -24 + ^ x22: .cfa -32 + ^ .ra: .cfa -40 + ^ x29: .cfa -48 + ^
STACK CFI 38210 .cfa: sp 112 +
STACK CFI 38220 .cfa: sp 0 +
STACK CFI 38224 .cfa: x29 48 +
STACK CFI INIT 38438 e04 .cfa: sp 0 +
STACK CFI 3843c .cfa: sp 464 +
STACK CFI 3845c .cfa: x29 96 + x19: .cfa -8 + ^ x20: .cfa -16 + ^ x21: .cfa -24 + ^ x22: .cfa -32 + ^ x23: .cfa -40 + ^ x24: .cfa -48 + ^ x25: .cfa -56 + ^ x26: .cfa -64 + ^ x27: .cfa -72 + ^ x28: .cfa -80 + ^ .ra: .cfa -88 + ^ x29: .cfa -96 + ^ v8: .cfa -112 + ^
STACK CFI 38fc0 .cfa: sp 464 +
STACK CFI 38fe0 .cfa: sp 0 +
STACK CFI 38fe4 .cfa: x29 96 +
STACK CFI INIT 39664 dbc .cfa: sp 0 +
STACK CFI 39668 .cfa: sp 352 +
STACK CFI 3968c .cfa: x29 96 + x19: .cfa -8 + ^ x20: .cfa -16 + ^ x21: .cfa -24 + ^ x22: .cfa -32 + ^ x23: .cfa -40 + ^ x24: .cfa -48 + ^ x25: .cfa -56 + ^ x26: .cfa -64 + ^ x27: .cfa -72 + ^ x28: .cfa -80 + ^ .ra: .cfa -88 + ^ x29: .cfa -96 + ^ v8: .cfa -104 + ^ v9: .cfa -112 + ^ v10: .cfa -120 + ^ v11: .cfa -128 + ^
STACK CFI 3a244 .cfa: sp 352 +
STACK CFI 3a268 .cfa: sp 0 +
STACK CFI 3a26c .cfa: x29 96 +
STACK CFI INIT 3a47c 4ac .cfa: sp 0 +
STACK CFI 3a480 .cfa: sp 224 +
STACK CFI 3a498 .cfa: x29 56 + x19: .cfa -8 + ^ x20: .cfa -16 + ^ x21: .cfa -24 + ^ x22: .cfa -32 + ^ x23: .cfa -40 + ^ .ra: .cfa -48 + ^ x29: .cfa -56 + ^ v8: .cfa -64 + ^
STACK CFI 3a7b0 .cfa: sp 224 +
STACK CFI 3a7c8 .cfa: sp 0 +
STACK CFI 3a7cc .cfa: x29 56 +
STACK CFI INIT 3a928 dc .cfa: sp 0 +
STACK CFI 3a92c .cfa: sp 64 +
STACK CFI 3a938 .cfa: x29 32 + x19: .cfa -8 + ^ x20: .cfa -16 + ^ .ra: .cfa -24 + ^ x29: .cfa -32 + ^
STACK CFI 3a9bc .cfa: sp 64 +
STACK CFI 3a9c8 .cfa: sp 0 +
STACK CFI 3a9cc .cfa: x29 32 +
STACK CFI INIT 3ac0c 19c .cfa: sp 0 +
STACK CFI 3ac10 .cfa: sp 112 +
STACK CFI 3ac20 .cfa: x29 48 + x19: .cfa -8 + ^ x20: .cfa -16 + ^ x21: .cfa -32 + ^ .ra: .cfa -40 + ^ x29: .cfa -48 + ^
STACK CFI 3ad58 .cfa: sp 112 +
STACK CFI 3ad68 .cfa: sp 0 +
STACK CFI 3ad6c .cfa: x29 48 +
STACK CFI INIT 3ada8 74 .cfa: sp 0 +
STACK CFI 3adac .cfa: sp 32 +
STACK CFI 3adb4 .cfa: x29 32 + x19: .cfa -16 + ^ .ra: .cfa -24 + ^ x29: .cfa -32 + ^
STACK CFI 3ae0c .cfa: sp 32 +
STACK CFI 3ae14 .cfa: sp 0 +
STACK CFI 3ae18 .cfa: x29 32 +
STACK CFI INIT 3ae1c 6c .cfa: sp 0 +
STACK CFI 3ae20 .cfa: sp 32 +
STACK CFI 3ae28 .cfa: x29 32 + x19: .cfa -16 + ^ .ra: .cfa -24 + ^ x29: .cfa -32 + ^
STACK CFI 3ae78 .cfa: sp 32 +
STACK CFI 3ae80 .cfa: sp 0 +
STACK CFI 3ae84 .cfa: x29 32 +
STACK CFI INIT 3ae88 74 .cfa: sp 0 +
STACK CFI 3ae8c .cfa: sp 32 +
STACK CFI 3ae94 .cfa: x29 32 + x19: .cfa -16 + ^ .ra: .cfa -24 + ^ x29: .cfa -32 + ^
STACK CFI 3aeec .cfa: sp 32 +
STACK CFI 3aef4 .cfa: sp 0 +
STACK CFI 3aef8 .cfa: x29 32 +
STACK CFI INIT 3b304 480 .cfa: sp 0 +
STACK CFI 3b308 .cfa: sp 224 +
STACK CFI 3b324 .cfa: x29 96 + x19: .cfa -8 + ^ x20: .cfa -16 + ^ x21: .cfa -24 + ^ x22: .cfa -32 + ^ x23: .cfa -40 + ^ x24: .cfa -48 + ^ x25: .cfa -56 + ^ x26: .cfa -64 + ^ x27: .cfa -80 + ^ .ra: .cfa -88 + ^ x29: .cfa -96 + ^
STACK CFI 3b590 .cfa: sp 224 +
STACK CFI 3b5ac .cfa: sp 0 +
STACK CFI 3b5b0 .cfa: x29 96 +
STACK CFI 3b67c .cfa: sp 224 +
STACK CFI 3b698 .cfa: sp 0 +
STACK CFI 3b69c .cfa: x29 96 +
STACK CFI INIT 3b7a0 43c .cfa: sp 0 +
STACK CFI 3b7a4 .cfa: sp 224 +
STACK CFI 3b7c0 .cfa: x29 96 + x19: .cfa -8 + ^ x20: .cfa -16 + ^ x21: .cfa -24 + ^ x22: .cfa -32 + ^ x23: .cfa -40 + ^ x24: .cfa -48 + ^ x25: .cfa -56 + ^ x26: .cfa -64 + ^ x27: .cfa -72 + ^ x28: .cfa -80 + ^ .ra: .cfa -88 + ^ x29: .cfa -96 + ^
STACK CFI 3bad4 .cfa: sp 224 +
STACK CFI 3baf0 .cfa: sp 0 +
STACK CFI 3baf4 .cfa: x29 96 +
STACK CFI INIT 3bbdc 43c .cfa: sp 0 +
STACK CFI 3bbe0 .cfa: sp 224 +
STACK CFI 3bbfc .cfa: x29 96 + x19: .cfa -8 + ^ x20: .cfa -16 + ^ x21: .cfa -24 + ^ x22: .cfa -32 + ^ x23: .cfa -40 + ^ x24: .cfa -48 + ^ x25: .cfa -56 + ^ x26: .cfa -64 + ^ x27: .cfa -72 + ^ x28: .cfa -80 + ^ .ra: .cfa -88 + ^ x29: .cfa -96 + ^
STACK CFI 3bf10 .cfa: sp 224 +
STACK CFI 3bf2c .cfa: sp 0 +
STACK CFI 3bf30 .cfa: x29 96 +
STACK CFI INIT 3c0d4 b24 .cfa: sp 0 +
STACK CFI 3c0d8 .cfa: sp 128 +
STACK CFI 3c0f8 .cfa: x29 96 + x19: .cfa -8 + ^ x20: .cfa -16 + ^ x21: .cfa -24 + ^ x22: .cfa -32 + ^ x23: .cfa -40 + ^ x24: .cfa -48 + ^ x25: .cfa -56 + ^ x26: .cfa -64 + ^ x27: .cfa -72 + ^ x28: .cfa -80 + ^ .ra: .cfa -88 + ^ x29: .cfa -96 + ^ v8: .cfa -112 + ^
STACK CFI 3c5d4 .cfa: sp 128 +
STACK CFI 3c5f4 .cfa: sp 0 +
STACK CFI 3c5f8 .cfa: x29 96 +
STACK CFI 3c60c .cfa: sp 128 +
STACK CFI 3c62c .cfa: sp 0 +
STACK CFI 3c630 .cfa: x29 96 +
STACK CFI 3c640 .cfa: sp 128 +
STACK CFI 3c660 .cfa: sp 0 +
STACK CFI 3c664 .cfa: x29 96 +
STACK CFI 3c9f8 .cfa: sp 128 +
STACK CFI 3ca18 .cfa: sp 0 +
STACK CFI 3ca1c .cfa: x29 96 +
STACK CFI INIT 3ceb0 214 .cfa: sp 0 +
STACK CFI 3ceb4 .cfa: sp 96 +
STACK CFI 3cecc .cfa: x29 80 + x19: .cfa -8 + ^ x20: .cfa -16 + ^ x21: .cfa -24 + ^ x22: .cfa -32 + ^ x23: .cfa -40 + ^ x24: .cfa -48 + ^ x25: .cfa -56 + ^ x26: .cfa -64 + ^ .ra: .cfa -72 + ^ x29: .cfa -80 + ^ v8: .cfa -96 + ^
STACK CFI 3d084 .cfa: sp 96 +
STACK CFI 3d09c .cfa: sp 0 +
STACK CFI 3d0a0 .cfa: x29 80 +
STACK CFI INIT 3d0c4 1c .cfa: sp 0 +
STACK CFI 3d0c8 .cfa: sp 16 +
STACK CFI 3d0cc .cfa: x29 16 + .ra: .cfa -8 + ^ x29: .cfa -16 + ^
STACK CFI 3d0d4 .cfa: sp 16 +
STACK CFI 3d0d8 .cfa: sp 0 +
STACK CFI 3d0dc .cfa: x29 16 +
STACK CFI INIT 3d1dc 31c .cfa: sp 0 +
STACK CFI 3d1e0 .cfa: sp 192 +
STACK CFI 3d1f4 .cfa: x29 64 + x19: .cfa -8 + ^ x20: .cfa -16 + ^ x21: .cfa -24 + ^ x22: .cfa -32 + ^ x23: .cfa -48 + ^ .ra: .cfa -56 + ^ x29: .cfa -64 + ^
STACK CFI 3d3f0 .cfa: sp 192 +
STACK CFI 3d404 .cfa: sp 0 +
STACK CFI 3d408 .cfa: x29 64 +
STACK CFI INIT 3d4fc 15f4 .cfa: sp 0 +
STACK CFI 3d500 .cfa: sp 112 +
STACK CFI 3d51c .cfa: x29 96 + x19: .cfa -8 + ^ x20: .cfa -16 + ^ x21: .cfa -24 + ^ x22: .cfa -32 + ^ x23: .cfa -40 + ^ x24: .cfa -48 + ^ x25: .cfa -56 + ^ x26: .cfa -64 + ^ x27: .cfa -72 + ^ x28: .cfa -80 + ^ .ra: .cfa -88 + ^ x29: .cfa -96 + ^ v8: .cfa -112 + ^
STACK CFI 3e3a4 .cfa: sp 112 +
STACK CFI 3e3c0 .cfa: sp 0 +
STACK CFI 3e3c4 .cfa: x29 96 +
STACK CFI INIT 3eb8c c8 .cfa: sp 0 +
STACK CFI 3eb90 .cfa: sp 32 +
STACK CFI 3eb98 .cfa: x29 32 + x19: .cfa -8 + ^ x20: .cfa -16 + ^ .ra: .cfa -24 + ^ x29: .cfa -32 + ^
STACK CFI 3ebcc .cfa: sp 32 +
STACK CFI 3ebd4 .cfa: sp 0 +
STACK CFI 3ebd8 .cfa: x29 32 +
STACK CFI 3ebdc .cfa: sp 32 +
STACK CFI 3ebe4 .cfa: sp 0 +
STACK CFI 3ebe8 .cfa: x29 32 +
STACK CFI INIT 3ec54 e4 .cfa: sp 0 +
STACK CFI 3ec58 .cfa: sp 32 +
STACK CFI 3ec60 .cfa: x29 32 + x19: .cfa -8 + ^ x20: .cfa -16 + ^ .ra: .cfa -24 + ^ x29: .cfa -32 + ^
STACK CFI 3ecfc .cfa: sp 32 +
STACK CFI 3ed04 .cfa: sp 0 +
STACK CFI 3ed08 .cfa: x29 32 +
STACK CFI INIT 3f19c 668 .cfa: sp 0 +
STACK CFI 3f1a0 .cfa: sp 224 +
STACK CFI 3f1bc .cfa: x29 96 + x19: .cfa -8 + ^ x20: .cfa -16 + ^ x21: .cfa -24 + ^ x22: .cfa -32 + ^ x23: .cfa -40 + ^ x24: .cfa -48 + ^ x25: .cfa -56 + ^ x26: .cfa -64 + ^ x27: .cfa -72 + ^ x28: .cfa -80 + ^ .ra: .cfa -88 + ^ x29: .cfa -96 + ^
STACK CFI 3f694 .cfa: sp 224 +
STACK CFI 3f6b0 .cfa: sp 0 +
STACK CFI 3f6b4 .cfa: x29 96 +
STACK CFI INIT 3f804 84 .cfa: sp 0 +
STACK CFI 3f808 .cfa: sp 48 +
STACK CFI 3f814 .cfa: x29 48 + x19: .cfa -8 + ^ x20: .cfa -16 + ^ x21: .cfa -32 + ^ .ra: .cfa -40 + ^ x29: .cfa -48 + ^
STACK CFI 3f834 .cfa: sp 48 +
STACK CFI 3f840 .cfa: sp 0 +
STACK CFI 3f844 .cfa: x29 48 +
STACK CFI 3f864 .cfa: sp 48 +
STACK CFI 3f870 .cfa: sp 0 +
STACK CFI 3f874 .cfa: sp 48 +
STACK CFI 3f880 .cfa: sp 0 +
STACK CFI 3f884 .cfa: x29 48 +
STACK CFI INIT 3f970 22c .cfa: sp 0 +
STACK CFI 3f974 .cfa: sp 400 +
STACK CFI 3f988 .cfa: x29 64 + x19: .cfa -8 + ^ x20: .cfa -16 + ^ x21: .cfa -24 + ^ x22: .cfa -32 + ^ x28: .cfa -48 + ^ .ra: .cfa -56 + ^ x29: .cfa -64 + ^
STACK CFI 3fae4 .cfa: sp 400 +
STACK CFI 3faf8 .cfa: sp 0 +
STACK CFI 3fafc .cfa: x29 64 +
STACK CFI INIT 3fb9c 128 .cfa: sp 0 +
STACK CFI 3fba0 .cfa: sp 96 +
STACK CFI 3fbb4 .cfa: x29 64 + x19: .cfa -8 + ^ x20: .cfa -16 + ^ x21: .cfa -24 + ^ x22: .cfa -32 + ^ x23: .cfa -40 + ^ x24: .cfa -48 + ^ .ra: .cfa -56 + ^ x29: .cfa -64 + ^
STACK CFI 3fc64 .cfa: sp 96 +
STACK CFI 3fc78 .cfa: sp 0 +
STACK CFI 3fc7c .cfa: x29 64 +
STACK CFI INIT 3fcc4 2b8 .cfa: sp 0 +
STACK CFI 3fcc8 .cfa: sp 144 +
STACK CFI 3fce0 .cfa: x29 80 + x19: .cfa -8 + ^ x20: .cfa -16 + ^ x21: .cfa -24 + ^ x22: .cfa -32 + ^ x23: .cfa -40 + ^ x24: .cfa -48 + ^ x25: .cfa -56 + ^ x26: .cfa -64 + ^ .ra: .cfa -72 + ^ x29: .cfa -80 + ^
STACK CFI 3fe80 .cfa: sp 144 +
STACK CFI 3fe98 .cfa: sp 0 +
STACK CFI 3fe9c .cfa: x29 80 +
STACK CFI INIT 3ff7c 1c .cfa: sp 0 +
STACK CFI 3ff80 .cfa: sp 16 +
STACK CFI 3ff84 .cfa: x29 16 + .ra: .cfa -8 + ^ x29: .cfa -16 + ^
STACK CFI 3ff8c .cfa: sp 16 +
STACK CFI 3ff90 .cfa: sp 0 +
STACK CFI 3ff94 .cfa: x29 16 +
STACK CFI INIT 40080 114 .cfa: sp 0 +
STACK CFI 40084 .cfa: sp 80 +
STACK CFI 40098 .cfa: x29 80 + x19: .cfa -8 + ^ x20: .cfa -16 + ^ x21: .cfa -24 + ^ x22: .cfa -32 + ^ x23: .cfa -40 + ^ x24: .cfa -48 + ^ x25: .cfa -56 + ^ x26: .cfa -64 + ^ .ra: .cfa -72 + ^ x29: .cfa -80 + ^
STACK CFI 40138 .cfa: sp 80 +
STACK CFI 4014c .cfa: sp 0 +
STACK CFI 40150 .cfa: x29 80 +
STACK CFI INIT 402a8 100 .cfa: sp 0 +
STACK CFI 402ac .cfa: sp 48 +
STACK CFI 402b8 .cfa: x29 48 + x19: .cfa -8 + ^ x20: .cfa -16 + ^ x21: .cfa -24 + ^ x22: .cfa -32 + ^ .ra: .cfa -40 + ^ x29: .cfa -48 + ^
STACK CFI 4037c .cfa: sp 48 +
STACK CFI 40388 .cfa: sp 0 +
STACK CFI 4038c .cfa: x29 48 +
STACK CFI INIT 403a8 154 .cfa: sp 0 +
STACK CFI 403ac .cfa: sp 112 +
STACK CFI 403c8 .cfa: x29 96 + x19: .cfa -8 + ^ x20: .cfa -16 + ^ x21: .cfa -24 + ^ x22: .cfa -32 + ^ x23: .cfa -40 + ^ x24: .cfa -48 + ^ x25: .cfa -56 + ^ x26: .cfa -64 + ^ x27: .cfa -72 + ^ x28: .cfa -80 + ^ .ra: .cfa -88 + ^ x29: .cfa -96 + ^
STACK CFI 404c0 .cfa: sp 112 +
STACK CFI 404dc .cfa: sp 0 +
STACK CFI 404e0 .cfa: x29 96 +
STACK CFI INIT 4053c 5e8 .cfa: sp 0 +
STACK CFI 40540 .cfa: sp 480 +
STACK CFI 40554 .cfa: x29 64 + x19: .cfa -8 + ^ x20: .cfa -16 + ^ x21: .cfa -24 + ^ x22: .cfa -32 + ^ x23: .cfa -40 + ^ x28: .cfa -48 + ^ .ra: .cfa -56 + ^ x29: .cfa -64 + ^
STACK CFI 40864 .cfa: sp 480 +
STACK CFI 40878 .cfa: sp 0 +
STACK CFI 4087c .cfa: x29 64 +
STACK CFI INIT 40b24 ac .cfa: sp 0 +
STACK CFI 40b28 .cfa: sp 32 +
STACK CFI 40b30 .cfa: x29 32 + x19: .cfa -16 + ^ .ra: .cfa -24 + ^ x29: .cfa -32 + ^
STACK CFI 40b98 .cfa: sp 32 +
STACK CFI 40ba0 .cfa: sp 0 +
STACK CFI 40ba4 .cfa: x29 32 +
STACK CFI 40bb4 .cfa: sp 32 +
STACK CFI 40bbc .cfa: sp 0 +
STACK CFI 40bc0 .cfa: sp 32 +
STACK CFI 40bc8 .cfa: sp 0 +
STACK CFI 40bcc .cfa: x29 32 +
STACK CFI INIT 40bd0 34 .cfa: sp 0 +
STACK CFI 40bd4 .cfa: sp 16 +
STACK CFI 40bd8 .cfa: x29 16 + .ra: .cfa -8 + ^ x29: .cfa -16 + ^
STACK CFI 40bf8 .cfa: sp 16 +
STACK CFI 40bfc .cfa: sp 0 +
STACK CFI 40c00 .cfa: x29 16 +
STACK CFI INIT 40c04 140 .cfa: sp 0 +
STACK CFI 40c08 .cfa: sp 64 +
STACK CFI 40c18 .cfa: x29 64 + x19: .cfa -8 + ^ x20: .cfa -16 + ^ x21: .cfa -24 + ^ x22: .cfa -32 + ^ x23: .cfa -48 + ^ .ra: .cfa -56 + ^ x29: .cfa -64 + ^
STACK CFI 40ce8 .cfa: sp 64 +
STACK CFI 40cf8 .cfa: sp 0 +
STACK CFI 40cfc .cfa: x29 64 +
STACK CFI INIT 40d44 60 .cfa: sp 0 +
STACK CFI 40d48 .cfa: sp 32 +
STACK CFI 40d50 .cfa: x29 32 + x19: .cfa -16 + ^ .ra: .cfa -24 + ^ x29: .cfa -32 + ^
STACK CFI 40d94 .cfa: sp 32 +
STACK CFI 40d9c .cfa: sp 0 +
STACK CFI 40da0 .cfa: x29 32 +
STACK CFI INIT 413ec 11a4 .cfa: sp 0 +
STACK CFI 413f0 .cfa: sp 112 +
STACK CFI 4140c .cfa: x29 96 + x19: .cfa -8 + ^ x20: .cfa -16 + ^ x21: .cfa -24 + ^ x22: .cfa -32 + ^ x23: .cfa -40 + ^ x24: .cfa -48 + ^ x25: .cfa -56 + ^ x26: .cfa -64 + ^ x27: .cfa -72 + ^ x28: .cfa -80 + ^ .ra: .cfa -88 + ^ x29: .cfa -96 + ^
STACK CFI 423bc .cfa: sp 112 +
STACK CFI 423d8 .cfa: sp 0 +
STACK CFI 423dc .cfa: x29 96 +
STACK CFI INIT 42590 740 .cfa: sp 0 +
STACK CFI 42594 .cfa: sp 144 +
STACK CFI 425b0 .cfa: x29 96 + x19: .cfa -8 + ^ x20: .cfa -16 + ^ x21: .cfa -24 + ^ x22: .cfa -32 + ^ x23: .cfa -40 + ^ x24: .cfa -48 + ^ x25: .cfa -56 + ^ x26: .cfa -64 + ^ x27: .cfa -72 + ^ x28: .cfa -80 + ^ .ra: .cfa -88 + ^ x29: .cfa -96 + ^
STACK CFI 42c70 .cfa: sp 144 +
STACK CFI 42c8c .cfa: sp 0 +
STACK CFI 42c90 .cfa: x29 96 +
STACK CFI INIT 43118 1c0 .cfa: sp 0 +
STACK CFI 4311c .cfa: sp 64 +
STACK CFI 4312c .cfa: x29 64 + x19: .cfa -8 + ^ x20: .cfa -16 + ^ x21: .cfa -24 + ^ x22: .cfa -32 + ^ x23: .cfa -48 + ^ .ra: .cfa -56 + ^ x29: .cfa -64 + ^
STACK CFI 43220 .cfa: sp 64 +
STACK CFI 43230 .cfa: sp 0 +
STACK CFI 43234 .cfa: x29 64 +
STACK CFI INIT 432d8 dd0 .cfa: sp 0 +
STACK CFI 432dc .cfa: sp 240 +
STACK CFI 432f0 .cfa: x29 64 + x19: .cfa -8 + ^ x20: .cfa -16 + ^ x21: .cfa -24 + ^ x22: .cfa -32 + ^ x23: .cfa -40 + ^ x24: .cfa -48 + ^ .ra: .cfa -56 + ^ x29: .cfa -64 + ^
STACK CFI 436b4 .cfa: sp 240 +
STACK CFI 436c8 .cfa: sp 0 +
STACK CFI 436cc .cfa: x29 64 +
STACK CFI INIT 440fc e0 .cfa: sp 0 +
STACK CFI 44100 .cfa: sp 80 +
STACK CFI 44110 .cfa: x29 48 + x19: .cfa -8 + ^ x20: .cfa -16 + ^ x21: .cfa -24 + ^ x22: .cfa -32 + ^ .ra: .cfa -40 + ^ x29: .cfa -48 + ^
STACK CFI 44144 .cfa: sp 80 +
STACK CFI 44154 .cfa: sp 0 +
STACK CFI 44158 .cfa: x29 48 +
STACK CFI INIT 441dc 26c .cfa: sp 0 +
STACK CFI 441e0 .cfa: sp 192 +
STACK CFI 441f4 .cfa: x29 64 + x19: .cfa -8 + ^ x20: .cfa -16 + ^ x21: .cfa -24 + ^ x22: .cfa -32 + ^ x23: .cfa -48 + ^ .ra: .cfa -56 + ^ x29: .cfa -64 + ^
STACK CFI 44340 .cfa: sp 192 +
STACK CFI 44354 .cfa: sp 0 +
STACK CFI 44358 .cfa: x29 64 +
STACK CFI INIT 44448 3a4 .cfa: sp 0 +
STACK CFI 4444c .cfa: sp 144 +
STACK CFI 44460 .cfa: x29 64 + x19: .cfa -8 + ^ x20: .cfa -16 + ^ x21: .cfa -24 + ^ x22: .cfa -32 + ^ x23: .cfa -48 + ^ .ra: .cfa -56 + ^ x29: .cfa -64 + ^
STACK CFI 44748 .cfa: sp 144 +
STACK CFI 4475c .cfa: sp 0 +
STACK CFI 44760 .cfa: x29 64 +
STACK CFI INIT 4481c 8c .cfa: sp 0 +
STACK CFI 44820 .cfa: sp 32 +
STACK CFI 44828 .cfa: x29 32 + x19: .cfa -16 + ^ .ra: .cfa -24 + ^ x29: .cfa -32 + ^
STACK CFI 4488c .cfa: sp 32 +
STACK CFI 44894 .cfa: sp 0 +
STACK CFI 44898 .cfa: sp 32 +
STACK CFI 448a0 .cfa: sp 0 +
STACK CFI 448a4 .cfa: x29 32 +
STACK CFI INIT 448a8 dec .cfa: sp 0 +
STACK CFI 448ac .cfa: sp 256 +
STACK CFI 448c4 .cfa: x29 80 + x19: .cfa -8 + ^ x20: .cfa -16 + ^ x21: .cfa -24 + ^ x22: .cfa -32 + ^ x23: .cfa -40 + ^ x24: .cfa -48 + ^ x25: .cfa -56 + ^ x26: .cfa -64 + ^ .ra: .cfa -72 + ^ x29: .cfa -80 + ^
STACK CFI 44c9c .cfa: sp 256 +
STACK CFI 44cb4 .cfa: sp 0 +
STACK CFI 44cb8 .cfa: x29 80 +
STACK CFI INIT 45800 3f0 .cfa: sp 0 +
STACK CFI 45804 .cfa: sp 160 +
STACK CFI 45820 .cfa: x29 96 + x19: .cfa -8 + ^ x20: .cfa -16 + ^ x21: .cfa -24 + ^ x22: .cfa -32 + ^ x23: .cfa -40 + ^ x24: .cfa -48 + ^ x25: .cfa -56 + ^ x26: .cfa -64 + ^ x27: .cfa -72 + ^ x28: .cfa -80 + ^ .ra: .cfa -88 + ^ x29: .cfa -96 + ^
STACK CFI 45a90 .cfa: sp 160 +
STACK CFI 45aac .cfa: sp 0 +
STACK CFI 45ab0 .cfa: x29 96 +
STACK CFI INIT 45bf0 2b4 .cfa: sp 0 +
STACK CFI 45bf4 .cfa: sp 192 +
STACK CFI 45c08 .cfa: x29 64 + x19: .cfa -8 + ^ x20: .cfa -16 + ^ x21: .cfa -24 + ^ x22: .cfa -32 + ^ x23: .cfa -40 + ^ x24: .cfa -48 + ^ .ra: .cfa -56 + ^ x29: .cfa -64 + ^
STACK CFI 45e70 .cfa: sp 192 +
STACK CFI 45e84 .cfa: sp 0 +
STACK CFI 45e88 .cfa: x29 64 +
STACK CFI INIT 45ea4 260 .cfa: sp 0 +
STACK CFI 45ea8 .cfa: sp 112 +
STACK CFI 45eb8 .cfa: x29 48 + x19: .cfa -8 + ^ x20: .cfa -16 + ^ x21: .cfa -24 + ^ x22: .cfa -32 + ^ .ra: .cfa -40 + ^ x29: .cfa -48 + ^
STACK CFI 46064 .cfa: sp 112 +
STACK CFI 46074 .cfa: sp 0 +
STACK CFI 46078 .cfa: x29 48 +
STACK CFI INIT 46104 3f4 .cfa: sp 0 +
STACK CFI 46108 .cfa: sp 160 +
STACK CFI 46124 .cfa: x29 96 + x19: .cfa -8 + ^ x20: .cfa -16 + ^ x21: .cfa -24 + ^ x22: .cfa -32 + ^ x23: .cfa -40 + ^ x24: .cfa -48 + ^ x25: .cfa -56 + ^ x26: .cfa -64 + ^ x27: .cfa -72 + ^ x28: .cfa -80 + ^ .ra: .cfa -88 + ^ x29: .cfa -96 + ^
STACK CFI 46398 .cfa: sp 160 +
STACK CFI 463b4 .cfa: sp 0 +
STACK CFI 463b8 .cfa: x29 96 +
STACK CFI INIT 464f8 190 .cfa: sp 0 +
STACK CFI 464fc .cfa: sp 80 +
STACK CFI 4650c .cfa: x29 48 + x19: .cfa -8 + ^ x20: .cfa -16 + ^ x21: .cfa -24 + ^ x22: .cfa -32 + ^ .ra: .cfa -40 + ^ x29: .cfa -48 + ^
STACK CFI 46654 .cfa: sp 80 +
STACK CFI 46664 .cfa: sp 0 +
STACK CFI 46668 .cfa: x29 48 +
STACK CFI INIT 466dc 1ec .cfa: sp 0 +
STACK CFI 466e0 .cfa: sp 160 +
STACK CFI 466f0 .cfa: x29 48 + x19: .cfa -8 + ^ x20: .cfa -16 + ^ x21: .cfa -24 + ^ x22: .cfa -32 + ^ .ra: .cfa -40 + ^ x29: .cfa -48 + ^
STACK CFI 46808 .cfa: sp 160 +
STACK CFI 46818 .cfa: sp 0 +
STACK CFI 4681c .cfa: x29 48 +
STACK CFI INIT 468c8 c4 .cfa: sp 0 +
STACK CFI 468cc .cfa: sp 48 +
STACK CFI 468d8 .cfa: x29 48 + x19: .cfa -8 + ^ x20: .cfa -16 + ^ x21: .cfa -24 + ^ x22: .cfa -32 + ^ .ra: .cfa -40 + ^ x29: .cfa -48 + ^
STACK CFI 46960 .cfa: sp 48 +
STACK CFI 4696c .cfa: sp 0 +
STACK CFI 46970 .cfa: x29 48 +
STACK CFI INIT 4698c 250 .cfa: sp 0 +
STACK CFI 46990 .cfa: sp 112 +
STACK CFI 469a0 .cfa: x29 48 + x19: .cfa -8 + ^ x20: .cfa -16 + ^ x21: .cfa -24 + ^ x22: .cfa -32 + ^ .ra: .cfa -40 + ^ x29: .cfa -48 + ^
STACK CFI 46b80 .cfa: sp 112 +
STACK CFI 46b90 .cfa: sp 0 +
STACK CFI 46b94 .cfa: x29 48 +
STACK CFI INIT 46bdc 1ec .cfa: sp 0 +
STACK CFI 46be0 .cfa: sp 160 +
STACK CFI 46bf0 .cfa: x29 48 + x19: .cfa -8 + ^ x20: .cfa -16 + ^ x21: .cfa -24 + ^ x22: .cfa -32 + ^ .ra: .cfa -40 + ^ x29: .cfa -48 + ^
STACK CFI 46d08 .cfa: sp 160 +
STACK CFI 46d18 .cfa: sp 0 +
STACK CFI 46d1c .cfa: x29 48 +
STACK CFI INIT 46dc8 b0 .cfa: sp 0 +
STACK CFI 46dcc .cfa: sp 48 +
STACK CFI 46dd8 .cfa: x29 48 + x19: .cfa -8 + ^ x20: .cfa -16 + ^ x21: .cfa -32 + ^ .ra: .cfa -40 + ^ x29: .cfa -48 + ^
STACK CFI 46e4c .cfa: sp 48 +
STACK CFI 46e58 .cfa: sp 0 +
STACK CFI 46e5c .cfa: x29 48 +
STACK CFI INIT 46e78 120 .cfa: sp 0 +
STACK CFI 46e7c .cfa: sp 64 +
STACK CFI 46e8c .cfa: x29 64 + x19: .cfa -8 + ^ x20: .cfa -16 + ^ x21: .cfa -24 + ^ x22: .cfa -32 + ^ x23: .cfa -48 + ^ .ra: .cfa -56 + ^ x29: .cfa -64 + ^
STACK CFI 46f74 .cfa: sp 64 +
STACK CFI 46f84 .cfa: sp 0 +
STACK CFI 46f88 .cfa: x29 64 +
STACK CFI INIT 46f98 58 .cfa: sp 0 +
STACK CFI 46f9c .cfa: sp 32 +
STACK CFI 46fa4 .cfa: x29 32 + x19: .cfa -8 + ^ x20: .cfa -16 + ^ .ra: .cfa -24 + ^ x29: .cfa -32 + ^
STACK CFI 46fd4 .cfa: sp 32 +
STACK CFI 46fdc .cfa: sp 0 +
STACK CFI 46fe0 .cfa: sp 32 +
STACK CFI 46fe8 .cfa: sp 0 +
STACK CFI 46fec .cfa: x29 32 +
STACK CFI INIT 47050 320 .cfa: sp 0 +
STACK CFI 47054 .cfa: sp 64 +
STACK CFI 47064 .cfa: x29 64 + x19: .cfa -8 + ^ x20: .cfa -16 + ^ x21: .cfa -24 + ^ x22: .cfa -32 + ^ x23: .cfa -40 + ^ x24: .cfa -48 + ^ .ra: .cfa -56 + ^ x29: .cfa -64 + ^
STACK CFI 470c0 .cfa: sp 64 +
STACK CFI 470d0 .cfa: sp 0 +
STACK CFI 470d4 .cfa: x29 64 +
STACK CFI 47108 .cfa: sp 64 +
STACK CFI 47118 .cfa: sp 0 +
STACK CFI 4711c .cfa: x29 64 +
STACK CFI 4718c .cfa: sp 64 +
STACK CFI 4719c .cfa: sp 0 +
STACK CFI 471a0 .cfa: sp 64 +
STACK CFI 471b0 .cfa: sp 0 +
STACK CFI 471b4 .cfa: x29 64 +
STACK CFI 471bc .cfa: sp 64 +
STACK CFI 471cc .cfa: sp 0 +
STACK CFI 471d0 .cfa: x29 64 +
STACK CFI 4727c .cfa: sp 64 +
STACK CFI 4728c .cfa: sp 0 +
STACK CFI 47290 .cfa: x29 64 +
STACK CFI INIT 47370 12c .cfa: sp 0 +
STACK CFI 47374 .cfa: sp 80 +
STACK CFI 47384 .cfa: x29 48 + x19: .cfa -8 + ^ x20: .cfa -16 + ^ x21: .cfa -24 + ^ x22: .cfa -32 + ^ .ra: .cfa -40 + ^ x29: .cfa -48 + ^
STACK CFI 473d8 .cfa: sp 80 +
STACK CFI 473e8 .cfa: sp 0 +
STACK CFI 473ec .cfa: x29 48 +
STACK CFI INIT 4749c 39c .cfa: sp 0 +
STACK CFI 474a0 .cfa: sp 128 +
STACK CFI 474b8 .cfa: x29 80 + x19: .cfa -8 + ^ x20: .cfa -16 + ^ x21: .cfa -24 + ^ x22: .cfa -32 + ^ x23: .cfa -40 + ^ x24: .cfa -48 + ^ x25: .cfa -56 + ^ x26: .cfa -64 + ^ .ra: .cfa -72 + ^ x29: .cfa -80 + ^
STACK CFI 47644 .cfa: sp 128 +
STACK CFI 4765c .cfa: sp 0 +
STACK CFI 47660 .cfa: x29 80 +
STACK CFI INIT 47838 1c .cfa: sp 0 +
STACK CFI 4783c .cfa: sp 16 +
STACK CFI 47840 .cfa: x29 16 + .ra: .cfa -8 + ^ x29: .cfa -16 + ^
STACK CFI 47848 .cfa: sp 16 +
STACK CFI 4784c .cfa: sp 0 +
STACK CFI 47850 .cfa: x29 16 +
STACK CFI INIT 47854 158 .cfa: sp 0 +
STACK CFI 47858 .cfa: sp 112 +
STACK CFI 4786c .cfa: x29 64 + x19: .cfa -8 + ^ x20: .cfa -16 + ^ x21: .cfa -24 + ^ x22: .cfa -32 + ^ x23: .cfa -40 + ^ x24: .cfa -48 + ^ .ra: .cfa -56 + ^ x29: .cfa -64 + ^
STACK CFI 47954 .cfa: sp 112 +
STACK CFI 47968 .cfa: sp 0 +
STACK CFI 4796c .cfa: x29 64 +
STACK CFI INIT 47d9c 5c .cfa: sp 0 +
STACK CFI 47da0 .cfa: sp 32 +
STACK CFI 47da8 .cfa: x29 32 + x19: .cfa -16 + ^ .ra: .cfa -24 + ^ x29: .cfa -32 + ^
STACK CFI 47ddc .cfa: sp 32 +
STACK CFI 47de4 .cfa: sp 0 +
STACK CFI 47de8 .cfa: sp 32 +
STACK CFI 47df0 .cfa: sp 0 +
STACK CFI 47df4 .cfa: x29 32 +
STACK CFI INIT 47df8 68 .cfa: sp 0 +
STACK CFI 47dfc .cfa: sp 32 +
STACK CFI 47e04 .cfa: x29 32 + x19: .cfa -8 + ^ x20: .cfa -16 + ^ .ra: .cfa -24 + ^ x29: .cfa -32 + ^
STACK CFI 47e44 .cfa: sp 32 +
STACK CFI 47e4c .cfa: sp 0 +
STACK CFI 47e50 .cfa: sp 32 +
STACK CFI 47e58 .cfa: sp 0 +
STACK CFI 47e5c .cfa: x29 32 +
STACK CFI INIT 47e60 130 .cfa: sp 0 +
STACK CFI 47e64 .cfa: sp 144 +
STACK CFI 47e78 .cfa: x29 64 + x19: .cfa -8 + ^ x20: .cfa -16 + ^ x21: .cfa -24 + ^ x22: .cfa -32 + ^ x23: .cfa -40 + ^ x24: .cfa -48 + ^ .ra: .cfa -56 + ^ x29: .cfa -64 + ^
STACK CFI 47f24 .cfa: sp 144 +
STACK CFI 47f38 .cfa: sp 0 +
STACK CFI 47f3c .cfa: x29 64 +
STACK CFI INIT 47f90 74 .cfa: sp 0 +
STACK CFI 47f94 .cfa: sp 48 +
STACK CFI 47fa0 .cfa: x29 48 + x19: .cfa -8 + ^ x20: .cfa -16 + ^ x21: .cfa -24 + ^ x22: .cfa -32 + ^ .ra: .cfa -40 + ^ x29: .cfa -48 + ^
STACK CFI 47fa8 .cfa: sp 48 +
STACK CFI 47fb4 .cfa: sp 0 +
STACK CFI 47fb8 .cfa: x29 48 +
STACK CFI 47ff0 .cfa: sp 48 +
STACK CFI 47ffc .cfa: sp 0 +
STACK CFI 48000 .cfa: x29 48 +
STACK CFI INIT 48004 48 .cfa: sp 0 +
STACK CFI 48008 .cfa: sp 32 +
STACK CFI 48010 .cfa: x29 32 + x19: .cfa -8 + ^ x20: .cfa -16 + ^ .ra: .cfa -24 + ^ x29: .cfa -32 + ^
STACK CFI 48018 .cfa: sp 32 +
STACK CFI 48020 .cfa: sp 0 +
STACK CFI 48024 .cfa: x29 32 +
STACK CFI INIT 4804c 450 .cfa: sp 0 +
STACK CFI 48050 .cfa: sp 128 +
STACK CFI 48068 .cfa: x29 80 + x19: .cfa -8 + ^ x20: .cfa -16 + ^ x21: .cfa -24 + ^ x22: .cfa -32 + ^ x23: .cfa -40 + ^ x24: .cfa -48 + ^ x25: .cfa -56 + ^ x26: .cfa -64 + ^ .ra: .cfa -72 + ^ x29: .cfa -80 + ^
STACK CFI 4842c .cfa: sp 128 +
STACK CFI 48444 .cfa: sp 0 +
STACK CFI 48448 .cfa: x29 80 +
STACK CFI INIT 4849c dc .cfa: sp 0 +
STACK CFI 484a0 .cfa: sp 48 +
STACK CFI 484ac .cfa: x29 48 + x19: .cfa -8 + ^ x20: .cfa -16 + ^ x21: .cfa -24 + ^ x22: .cfa -32 + ^ .ra: .cfa -40 + ^ x29: .cfa -48 + ^
STACK CFI 4854c .cfa: sp 48 +
STACK CFI 48558 .cfa: sp 0 +
STACK CFI 4855c .cfa: sp 48 +
STACK CFI 48568 .cfa: sp 0 +
STACK CFI 4856c .cfa: x29 48 +
STACK CFI INIT 48578 64 .cfa: sp 0 +
STACK CFI 4857c .cfa: sp 48 +
STACK CFI 48588 .cfa: x29 48 + x19: .cfa -8 + ^ x20: .cfa -16 + ^ x21: .cfa -32 + ^ .ra: .cfa -40 + ^ x29: .cfa -48 + ^
STACK CFI 485b8 .cfa: sp 48 +
STACK CFI 485c4 .cfa: sp 0 +
STACK CFI 485c8 .cfa: sp 48 +
STACK CFI 485d4 .cfa: sp 0 +
STACK CFI 485d8 .cfa: x29 48 +
STACK CFI INIT 485dc 120 .cfa: sp 0 +
STACK CFI 485e0 .cfa: sp 64 +
STACK CFI 485f0 .cfa: x29 64 + x19: .cfa -8 + ^ x20: .cfa -16 + ^ x21: .cfa -24 + ^ x22: .cfa -32 + ^ x23: .cfa -48 + ^ .ra: .cfa -56 + ^ x29: .cfa -64 + ^
STACK CFI 486d8 .cfa: sp 64 +
STACK CFI 486e8 .cfa: sp 0 +
STACK CFI 486ec .cfa: x29 64 +
STACK CFI INIT 486fc 1e0 .cfa: sp 0 +
STACK CFI 48700 .cfa: sp 160 +
STACK CFI 48710 .cfa: x29 48 + x19: .cfa -8 + ^ x20: .cfa -16 + ^ x21: .cfa -24 + ^ x22: .cfa -32 + ^ .ra: .cfa -40 + ^ x29: .cfa -48 + ^
STACK CFI 4881c .cfa: sp 160 +
STACK CFI 4882c .cfa: sp 0 +
STACK CFI 48830 .cfa: x29 48 +
STACK CFI INIT 48914 1e8 .cfa: sp 0 +
STACK CFI 48918 .cfa: sp 160 +
STACK CFI 48928 .cfa: x29 48 + x19: .cfa -8 + ^ x20: .cfa -16 + ^ x21: .cfa -24 + ^ x22: .cfa -32 + ^ .ra: .cfa -40 + ^ x29: .cfa -48 + ^
STACK CFI 48a3c .cfa: sp 160 +
STACK CFI 48a4c .cfa: sp 0 +
STACK CFI 48a50 .cfa: x29 48 +
STACK CFI INIT 48afc a8 .cfa: sp 0 +
STACK CFI 48b00 .cfa: sp 48 +
STACK CFI 48b0c .cfa: x29 48 + x19: .cfa -8 + ^ x20: .cfa -16 + ^ x21: .cfa -24 + ^ x22: .cfa -32 + ^ .ra: .cfa -40 + ^ x29: .cfa -48 + ^
STACK CFI 48b78 .cfa: sp 48 +
STACK CFI 48b84 .cfa: sp 0 +
STACK CFI 48b88 .cfa: x29 48 +
STACK CFI INIT 48bd0 a0 .cfa: sp 0 +
STACK CFI 48bd4 .cfa: sp 32 +
STACK CFI 48bdc .cfa: x29 32 + x19: .cfa -8 + ^ x20: .cfa -16 + ^ .ra: .cfa -24 + ^ x29: .cfa -32 + ^
STACK CFI 48c60 .cfa: sp 32 +
STACK CFI 48c68 .cfa: sp 0 +
STACK CFI 48c6c .cfa: x29 32 +
STACK CFI INIT 48ca8 1f8 .cfa: sp 0 +
STACK CFI 48cac .cfa: sp 128 +
STACK CFI 48cc8 .cfa: x29 96 + x19: .cfa -8 + ^ x20: .cfa -16 + ^ x21: .cfa -24 + ^ x22: .cfa -32 + ^ x23: .cfa -40 + ^ x24: .cfa -48 + ^ x25: .cfa -56 + ^ x26: .cfa -64 + ^ x27: .cfa -72 + ^ x28: .cfa -80 + ^ .ra: .cfa -88 + ^ x29: .cfa -96 + ^
STACK CFI 48e58 .cfa: sp 128 +
STACK CFI 48e74 .cfa: sp 0 +
STACK CFI 48e78 .cfa: x29 96 +
STACK CFI INIT 48ea0 b0 .cfa: sp 0 +
STACK CFI 48ea4 .cfa: sp 48 +
STACK CFI 48eb0 .cfa: x29 48 + x19: .cfa -8 + ^ x20: .cfa -16 + ^ x21: .cfa -32 + ^ .ra: .cfa -40 + ^ x29: .cfa -48 + ^
STACK CFI 48f24 .cfa: sp 48 +
STACK CFI 48f30 .cfa: sp 0 +
STACK CFI 48f34 .cfa: x29 48 +
STACK CFI INIT 48f98 24c .cfa: sp 0 +
STACK CFI 48f9c .cfa: sp 112 +
STACK CFI 48fac .cfa: x29 48 + x19: .cfa -8 + ^ x20: .cfa -16 + ^ x21: .cfa -32 + ^ .ra: .cfa -40 + ^ x29: .cfa -48 + ^
STACK CFI 49188 .cfa: sp 112 +
STACK CFI 49198 .cfa: sp 0 +
STACK CFI 4919c .cfa: x29 48 +
STACK CFI INIT 491e4 248 .cfa: sp 0 +
STACK CFI 491e8 .cfa: sp 112 +
STACK CFI 491f8 .cfa: x29 48 + x19: .cfa -8 + ^ x20: .cfa -16 + ^ x21: .cfa -32 + ^ .ra: .cfa -40 + ^ x29: .cfa -48 + ^
STACK CFI 493d0 .cfa: sp 112 +
STACK CFI 493e0 .cfa: sp 0 +
STACK CFI 493e4 .cfa: x29 48 +
STACK CFI INIT 4942c 244 .cfa: sp 0 +
STACK CFI 49430 .cfa: sp 112 +
STACK CFI 49440 .cfa: x29 48 + x19: .cfa -8 + ^ x20: .cfa -16 + ^ x21: .cfa -32 + ^ .ra: .cfa -40 + ^ x29: .cfa -48 + ^
STACK CFI 49614 .cfa: sp 112 +
STACK CFI 49624 .cfa: sp 0 +
STACK CFI 49628 .cfa: x29 48 +
STACK CFI INIT 49670 244 .cfa: sp 0 +
STACK CFI 49674 .cfa: sp 112 +
STACK CFI 49684 .cfa: x29 48 + x19: .cfa -8 + ^ x20: .cfa -16 + ^ x21: .cfa -32 + ^ .ra: .cfa -40 + ^ x29: .cfa -48 + ^
STACK CFI 49858 .cfa: sp 112 +
STACK CFI 49868 .cfa: sp 0 +
STACK CFI 4986c .cfa: x29 48 +
STACK CFI INIT 498b4 2b0 .cfa: sp 0 +
STACK CFI 498b8 .cfa: sp 128 +
STACK CFI 498cc .cfa: x29 64 + x19: .cfa -8 + ^ x20: .cfa -16 + ^ x21: .cfa -24 + ^ x22: .cfa -32 + ^ x23: .cfa -48 + ^ .ra: .cfa -56 + ^ x29: .cfa -64 + ^
STACK CFI 49ae4 .cfa: sp 128 +
STACK CFI 49af8 .cfa: sp 0 +
STACK CFI 49afc .cfa: x29 64 +
STACK CFI INIT 49b64 248 .cfa: sp 0 +
STACK CFI 49b68 .cfa: sp 112 +
STACK CFI 49b78 .cfa: x29 48 + x19: .cfa -8 + ^ x20: .cfa -16 + ^ x21: .cfa -32 + ^ .ra: .cfa -40 + ^ x29: .cfa -48 + ^
STACK CFI 49d50 .cfa: sp 112 +
STACK CFI 49d60 .cfa: sp 0 +
STACK CFI 49d64 .cfa: x29 48 +
STACK CFI INIT 49ed4 1bc .cfa: sp 0 +
STACK CFI 49ed8 .cfa: sp 112 +
STACK CFI 49ef4 .cfa: x29 96 + x19: .cfa -8 + ^ x20: .cfa -16 + ^ x21: .cfa -24 + ^ x22: .cfa -32 + ^ x23: .cfa -40 + ^ x24: .cfa -48 + ^ x25: .cfa -56 + ^ x26: .cfa -64 + ^ x27: .cfa -72 + ^ x28: .cfa -80 + ^ .ra: .cfa -88 + ^ x29: .cfa -96 + ^
STACK CFI 4a054 .cfa: sp 112 +
STACK CFI 4a070 .cfa: sp 0 +
STACK CFI 4a074 .cfa: x29 96 +
STACK CFI INIT 4a090 12c .cfa: sp 0 +
STACK CFI 4a094 .cfa: sp 112 +
STACK CFI 4a0a4 .cfa: x29 48 + x19: .cfa -8 + ^ x20: .cfa -16 + ^ x21: .cfa -32 + ^ .ra: .cfa -40 + ^ x29: .cfa -48 + ^
STACK CFI 4a140 .cfa: sp 112 +
STACK CFI 4a150 .cfa: sp 0 +
STACK CFI 4a154 .cfa: x29 48 +
STACK CFI INIT 4a1bc 12c .cfa: sp 0 +
STACK CFI 4a1c0 .cfa: sp 80 +
STACK CFI 4a1d4 .cfa: x29 80 + x19: .cfa -8 + ^ x20: .cfa -16 + ^ x21: .cfa -24 + ^ x22: .cfa -32 + ^ x23: .cfa -40 + ^ x24: .cfa -48 + ^ x25: .cfa -56 + ^ x26: .cfa -64 + ^ .ra: .cfa -72 + ^ x29: .cfa -80 + ^
STACK CFI 4a2b4 .cfa: sp 80 +
STACK CFI 4a2c8 .cfa: sp 0 +
STACK CFI 4a2cc .cfa: x29 80 +
STACK CFI INIT 4a2e8 c4 .cfa: sp 0 +
STACK CFI 4a2ec .cfa: sp 48 +
STACK CFI 4a2f8 .cfa: x29 48 + x19: .cfa -8 + ^ x20: .cfa -16 + ^ x21: .cfa -24 + ^ x22: .cfa -32 + ^ .ra: .cfa -40 + ^ x29: .cfa -48 + ^
STACK CFI 4a380 .cfa: sp 48 +
STACK CFI 4a38c .cfa: sp 0 +
STACK CFI 4a390 .cfa: x29 48 +
STACK CFI INIT 4a3ac 104 .cfa: sp 0 +
STACK CFI 4a3b0 .cfa: sp 64 +
STACK CFI 4a3c0 .cfa: x29 64 + x19: .cfa -8 + ^ x20: .cfa -16 + ^ x21: .cfa -24 + ^ x22: .cfa -32 + ^ x23: .cfa -40 + ^ x24: .cfa -48 + ^ .ra: .cfa -56 + ^ x29: .cfa -64 + ^
STACK CFI 4a480 .cfa: sp 64 +
STACK CFI 4a490 .cfa: sp 0 +
STACK CFI 4a494 .cfa: x29 64 +
STACK CFI INIT 4a4b0 304 .cfa: sp 0 +
STACK CFI 4a4b4 .cfa: sp 160 +
STACK CFI 4a4d0 .cfa: x29 96 + x19: .cfa -8 + ^ x20: .cfa -16 + ^ x21: .cfa -24 + ^ x22: .cfa -32 + ^ x23: .cfa -40 + ^ x24: .cfa -48 + ^ x25: .cfa -56 + ^ x26: .cfa -64 + ^ x27: .cfa -72 + ^ x28: .cfa -80 + ^ .ra: .cfa -88 + ^ x29: .cfa -96 + ^
STACK CFI 4a680 .cfa: sp 160 +
STACK CFI 4a69c .cfa: sp 0 +
STACK CFI 4a6a0 .cfa: x29 96 +
STACK CFI INIT 4a7b4 304 .cfa: sp 0 +
STACK CFI 4a7b8 .cfa: sp 160 +
STACK CFI 4a7d4 .cfa: x29 96 + x19: .cfa -8 + ^ x20: .cfa -16 + ^ x21: .cfa -24 + ^ x22: .cfa -32 + ^ x23: .cfa -40 + ^ x24: .cfa -48 + ^ x25: .cfa -56 + ^ x26: .cfa -64 + ^ x27: .cfa -72 + ^ x28: .cfa -80 + ^ .ra: .cfa -88 + ^ x29: .cfa -96 + ^
STACK CFI 4a984 .cfa: sp 160 +
STACK CFI 4a9a0 .cfa: sp 0 +
STACK CFI 4a9a4 .cfa: x29 96 +
STACK CFI INIT 4ab0c 164 .cfa: sp 0 +
STACK CFI 4ab10 .cfa: sp 96 +
STACK CFI 4ab20 .cfa: x29 48 + x19: .cfa -8 + ^ x20: .cfa -16 + ^ x21: .cfa -24 + ^ x22: .cfa -32 + ^ .ra: .cfa -40 + ^ x29: .cfa -48 + ^
STACK CFI 4ac38 .cfa: sp 96 +
STACK CFI 4ac48 .cfa: sp 0 +
STACK CFI 4ac4c .cfa: x29 48 +
STACK CFI INIT 4ac70 1b4 .cfa: sp 0 +
STACK CFI 4ac74 .cfa: sp 112 +
STACK CFI 4ac88 .cfa: x29 64 + x19: .cfa -8 + ^ x20: .cfa -16 + ^ x21: .cfa -24 + ^ x22: .cfa -32 + ^ x23: .cfa -48 + ^ .ra: .cfa -56 + ^ x29: .cfa -64 + ^
STACK CFI 4adb4 .cfa: sp 112 +
STACK CFI 4adc8 .cfa: sp 0 +
STACK CFI 4adcc .cfa: x29 64 +
STACK CFI INIT 4ae24 134 .cfa: sp 0 +
STACK CFI 4ae28 .cfa: sp 96 +
STACK CFI 4ae38 .cfa: x29 48 + x19: .cfa -8 + ^ x20: .cfa -16 + ^ x21: .cfa -32 + ^ .ra: .cfa -40 + ^ x29: .cfa -48 + ^
STACK CFI 4af38 .cfa: sp 96 +
STACK CFI 4af48 .cfa: sp 0 +
STACK CFI 4af4c .cfa: x29 48 +
STACK CFI INIT 4af58 11c .cfa: sp 0 +
STACK CFI 4af5c .cfa: sp 64 +
STACK CFI 4af6c .cfa: x29 64 + x19: .cfa -8 + ^ x20: .cfa -16 + ^ x21: .cfa -24 + ^ x22: .cfa -32 + ^ x23: .cfa -40 + ^ x24: .cfa -48 + ^ .ra: .cfa -56 + ^ x29: .cfa -64 + ^
STACK CFI 4b050 .cfa: sp 64 +
STACK CFI 4b060 .cfa: sp 0 +
STACK CFI 4b064 .cfa: x29 64 +
STACK CFI INIT 4b074 134 .cfa: sp 0 +
STACK CFI 4b078 .cfa: sp 96 +
STACK CFI 4b088 .cfa: x29 48 + x19: .cfa -8 + ^ x20: .cfa -16 + ^ x21: .cfa -32 + ^ .ra: .cfa -40 + ^ x29: .cfa -48 + ^
STACK CFI 4b188 .cfa: sp 96 +
STACK CFI 4b198 .cfa: sp 0 +
STACK CFI 4b19c .cfa: x29 48 +
STACK CFI INIT 4b1a8 118 .cfa: sp 0 +
STACK CFI 4b1ac .cfa: sp 64 +
STACK CFI 4b1bc .cfa: x29 64 + x19: .cfa -8 + ^ x20: .cfa -16 + ^ x21: .cfa -24 + ^ x22: .cfa -32 + ^ x23: .cfa -40 + ^ x24: .cfa -48 + ^ .ra: .cfa -56 + ^ x29: .cfa -64 + ^
STACK CFI 4b29c .cfa: sp 64 +
STACK CFI 4b2ac .cfa: sp 0 +
STACK CFI 4b2b0 .cfa: x29 64 +
STACK CFI INIT 4b2c0 110 .cfa: sp 0 +
STACK CFI 4b2c4 .cfa: sp 96 +
STACK CFI 4b2d4 .cfa: x29 48 + x19: .cfa -8 + ^ x20: .cfa -16 + ^ x21: .cfa -32 + ^ .ra: .cfa -40 + ^ x29: .cfa -48 + ^
STACK CFI 4b3b0 .cfa: sp 96 +
STACK CFI 4b3c0 .cfa: sp 0 +
STACK CFI 4b3c4 .cfa: x29 48 +
STACK CFI INIT 4b3d0 110 .cfa: sp 0 +
STACK CFI 4b3d4 .cfa: sp 64 +
STACK CFI 4b3e4 .cfa: x29 64 + x19: .cfa -8 + ^ x20: .cfa -16 + ^ x21: .cfa -24 + ^ x22: .cfa -32 + ^ x23: .cfa -48 + ^ .ra: .cfa -56 + ^ x29: .cfa -64 + ^
STACK CFI 4b4bc .cfa: sp 64 +
STACK CFI 4b4cc .cfa: sp 0 +
STACK CFI 4b4d0 .cfa: x29 64 +
STACK CFI INIT 4b4e0 134 .cfa: sp 0 +
STACK CFI 4b4e4 .cfa: sp 96 +
STACK CFI 4b4f4 .cfa: x29 48 + x19: .cfa -8 + ^ x20: .cfa -16 + ^ x21: .cfa -32 + ^ .ra: .cfa -40 + ^ x29: .cfa -48 + ^
STACK CFI 4b5f4 .cfa: sp 96 +
STACK CFI 4b604 .cfa: sp 0 +
STACK CFI 4b608 .cfa: x29 48 +
STACK CFI INIT 4b614 118 .cfa: sp 0 +
STACK CFI 4b618 .cfa: sp 64 +
STACK CFI 4b628 .cfa: x29 64 + x19: .cfa -8 + ^ x20: .cfa -16 + ^ x21: .cfa -24 + ^ x22: .cfa -32 + ^ x23: .cfa -40 + ^ x24: .cfa -48 + ^ .ra: .cfa -56 + ^ x29: .cfa -64 + ^
STACK CFI 4b708 .cfa: sp 64 +
STACK CFI 4b718 .cfa: sp 0 +
STACK CFI 4b71c .cfa: x29 64 +
STACK CFI INIT 4b72c 274 .cfa: sp 0 +
STACK CFI 4b730 .cfa: sp 112 +
STACK CFI 4b744 .cfa: x29 64 + x19: .cfa -8 + ^ x20: .cfa -16 + ^ x21: .cfa -24 + ^ x22: .cfa -32 + ^ x23: .cfa -40 + ^ x24: .cfa -48 + ^ .ra: .cfa -56 + ^ x29: .cfa -64 + ^
STACK CFI 4b908 .cfa: sp 112 +
STACK CFI 4b91c .cfa: sp 0 +
STACK CFI 4b920 .cfa: x29 64 +
STACK CFI INIT 4b9a0 210 .cfa: sp 0 +
STACK CFI 4b9a4 .cfa: sp 128 +
STACK CFI 4b9bc .cfa: x29 80 + x19: .cfa -8 + ^ x20: .cfa -16 + ^ x21: .cfa -24 + ^ x22: .cfa -32 + ^ x23: .cfa -40 + ^ x24: .cfa -48 + ^ x25: .cfa -56 + ^ x26: .cfa -64 + ^ .ra: .cfa -72 + ^ x29: .cfa -80 + ^
STACK CFI 4bb24 .cfa: sp 128 +
STACK CFI 4bb3c .cfa: sp 0 +
STACK CFI 4bb40 .cfa: x29 80 +
STACK CFI INIT 4bbb0 134 .cfa: sp 0 +
STACK CFI 4bbb4 .cfa: sp 96 +
STACK CFI 4bbc4 .cfa: x29 48 + x19: .cfa -8 + ^ x20: .cfa -16 + ^ x21: .cfa -32 + ^ .ra: .cfa -40 + ^ x29: .cfa -48 + ^
STACK CFI 4bcc4 .cfa: sp 96 +
STACK CFI 4bcd4 .cfa: sp 0 +
STACK CFI 4bcd8 .cfa: x29 48 +
STACK CFI INIT 4bce4 118 .cfa: sp 0 +
STACK CFI 4bce8 .cfa: sp 64 +
STACK CFI 4bcf8 .cfa: x29 64 + x19: .cfa -8 + ^ x20: .cfa -16 + ^ x21: .cfa -24 + ^ x22: .cfa -32 + ^ x23: .cfa -40 + ^ x24: .cfa -48 + ^ .ra: .cfa -56 + ^ x29: .cfa -64 + ^
STACK CFI 4bdd8 .cfa: sp 64 +
STACK CFI 4bde8 .cfa: sp 0 +
STACK CFI 4bdec .cfa: x29 64 +
STACK CFI INIT 4bdfc 164 .cfa: sp 0 +
STACK CFI 4be00 .cfa: sp 96 +
STACK CFI 4be10 .cfa: x29 48 + x19: .cfa -8 + ^ x20: .cfa -16 + ^ x21: .cfa -24 + ^ x22: .cfa -32 + ^ .ra: .cfa -40 + ^ x29: .cfa -48 + ^
STACK CFI 4be88 .cfa: sp 96 +
STACK CFI 4be98 .cfa: sp 0 +
STACK CFI 4be9c .cfa: x29 48 +
STACK CFI INIT 4bf60 a8 .cfa: sp 0 +
STACK CFI 4bf64 .cfa: sp 48 +
STACK CFI 4bf70 .cfa: x29 48 + x19: .cfa -8 + ^ x20: .cfa -16 + ^ x21: .cfa -24 + ^ x22: .cfa -32 + ^ .ra: .cfa -40 + ^ x29: .cfa -48 + ^
STACK CFI 4bfdc .cfa: sp 48 +
STACK CFI 4bfe8 .cfa: sp 0 +
STACK CFI 4bfec .cfa: x29 48 +
STACK CFI INIT 4c180 1ec .cfa: sp 0 +
STACK CFI 4c184 .cfa: sp 160 +
STACK CFI 4c194 .cfa: x29 48 + x19: .cfa -8 + ^ x20: .cfa -16 + ^ x21: .cfa -24 + ^ x22: .cfa -32 + ^ .ra: .cfa -40 + ^ x29: .cfa -48 + ^
STACK CFI 4c2ac .cfa: sp 160 +
STACK CFI 4c2bc .cfa: sp 0 +
STACK CFI 4c2c0 .cfa: x29 48 +
STACK CFI INIT 4c36c a8 .cfa: sp 0 +
STACK CFI 4c370 .cfa: sp 48 +
STACK CFI 4c37c .cfa: x29 48 + x19: .cfa -8 + ^ x20: .cfa -16 + ^ x21: .cfa -24 + ^ x22: .cfa -32 + ^ .ra: .cfa -40 + ^ x29: .cfa -48 + ^
STACK CFI 4c3e8 .cfa: sp 48 +
STACK CFI 4c3f4 .cfa: sp 0 +
STACK CFI 4c3f8 .cfa: x29 48 +
STACK CFI INIT 4c414 1cc .cfa: sp 0 +
STACK CFI 4c418 .cfa: sp 96 +
STACK CFI 4c428 .cfa: x29 48 + x19: .cfa -8 + ^ x20: .cfa -16 + ^ x21: .cfa -24 + ^ x22: .cfa -32 + ^ .ra: .cfa -40 + ^ x29: .cfa -48 + ^
STACK CFI 4c47c .cfa: sp 96 +
STACK CFI 4c48c .cfa: sp 0 +
STACK CFI 4c490 .cfa: x29 48 +
STACK CFI 4c4a0 .cfa: sp 96 +
STACK CFI 4c4b0 .cfa: sp 0 +
STACK CFI 4c4b4 .cfa: x29 48 +
STACK CFI 4c4e0 .cfa: sp 96 +
STACK CFI 4c4f0 .cfa: sp 0 +
STACK CFI 4c4f4 .cfa: x29 48 +
STACK CFI 4c510 .cfa: sp 96 +
STACK CFI 4c520 .cfa: sp 0 +
STACK CFI 4c524 .cfa: x29 48 +
STACK CFI INIT 4c5e0 140 .cfa: sp 0 +
STACK CFI 4c5e4 .cfa: sp 80 +
STACK CFI 4c5f4 .cfa: x29 48 + x19: .cfa -8 + ^ x20: .cfa -16 + ^ x21: .cfa -24 + ^ x22: .cfa -32 + ^ .ra: .cfa -40 + ^ x29: .cfa -48 + ^
STACK CFI 4c65c .cfa: sp 80 +
STACK CFI 4c66c .cfa: sp 0 +
STACK CFI 4c670 .cfa: x29 48 +
STACK CFI INIT 4c720 a8 .cfa: sp 0 +
STACK CFI 4c724 .cfa: sp 48 +
STACK CFI 4c730 .cfa: x29 48 + x19: .cfa -8 + ^ x20: .cfa -16 + ^ x21: .cfa -32 + ^ .ra: .cfa -40 + ^ x29: .cfa -48 + ^
STACK CFI 4c79c .cfa: sp 48 +
STACK CFI 4c7a8 .cfa: sp 0 +
STACK CFI 4c7ac .cfa: x29 48 +
STACK CFI INIT 4c7c8 1e4 .cfa: sp 0 +
STACK CFI 4c7cc .cfa: sp 160 +
STACK CFI 4c7dc .cfa: x29 48 + x19: .cfa -8 + ^ x20: .cfa -16 + ^ x21: .cfa -24 + ^ x22: .cfa -32 + ^ .ra: .cfa -40 + ^ x29: .cfa -48 + ^
STACK CFI 4c8ec .cfa: sp 160 +
STACK CFI 4c8fc .cfa: sp 0 +
STACK CFI 4c900 .cfa: x29 48 +
STACK CFI INIT 4c9d4 4dc .cfa: sp 0 +
STACK CFI 4c9d8 .cfa: sp 80 +
STACK CFI 4c9ec .cfa: x29 80 + x19: .cfa -8 + ^ x20: .cfa -16 + ^ x21: .cfa -24 + ^ x22: .cfa -32 + ^ x23: .cfa -40 + ^ x24: .cfa -48 + ^ x25: .cfa -56 + ^ x26: .cfa -64 + ^ .ra: .cfa -72 + ^ x29: .cfa -80 + ^
STACK CFI 4ce80 .cfa: sp 80 +
STACK CFI 4ce94 .cfa: sp 0 +
STACK CFI 4ce98 .cfa: x29 80 +
STACK CFI INIT 4ceb0 49c .cfa: sp 0 +
STACK CFI 4ceb4 .cfa: sp 176 +
STACK CFI 4cec8 .cfa: x29 64 + x19: .cfa -8 + ^ x20: .cfa -16 + ^ x21: .cfa -24 + ^ x22: .cfa -32 + ^ x23: .cfa -40 + ^ x24: .cfa -48 + ^ .ra: .cfa -56 + ^ x29: .cfa -64 + ^
STACK CFI 4d1f8 .cfa: sp 176 +
STACK CFI 4d20c .cfa: sp 0 +
STACK CFI 4d210 .cfa: x29 64 +
STACK CFI INIT 4d350 184 .cfa: sp 0 +
STACK CFI 4d354 .cfa: sp 160 +
STACK CFI 4d36c .cfa: x29 80 + x19: .cfa -8 + ^ x20: .cfa -16 + ^ x21: .cfa -24 + ^ x22: .cfa -32 + ^ x23: .cfa -40 + ^ x24: .cfa -48 + ^ x25: .cfa -56 + ^ x26: .cfa -64 + ^ .ra: .cfa -72 + ^ x29: .cfa -80 + ^
STACK CFI 4d46c .cfa: sp 160 +
STACK CFI 4d484 .cfa: sp 0 +
STACK CFI 4d488 .cfa: x29 80 +
STACK CFI INIT 4d4d4 2a4 .cfa: sp 0 +
STACK CFI 4d4d8 .cfa: sp 80 +
STACK CFI 4d4ec .cfa: x29 80 + x19: .cfa -8 + ^ x20: .cfa -16 + ^ x21: .cfa -24 + ^ x22: .cfa -32 + ^ x23: .cfa -40 + ^ x24: .cfa -48 + ^ x25: .cfa -64 + ^ .ra: .cfa -72 + ^ x29: .cfa -80 + ^
STACK CFI 4d728 .cfa: sp 80 +
STACK CFI 4d73c .cfa: sp 0 +
STACK CFI 4d740 .cfa: x29 80 +
STACK CFI INIT 4d778 178 .cfa: sp 0 +
STACK CFI 4d77c .cfa: sp 48 +
STACK CFI 4d788 .cfa: x29 48 + x19: .cfa -8 + ^ x20: .cfa -16 + ^ x21: .cfa -24 + ^ x22: .cfa -32 + ^ .ra: .cfa -40 + ^ x29: .cfa -48 + ^
STACK CFI 4d8dc .cfa: sp 48 +
STACK CFI 4d8e8 .cfa: sp 0 +
STACK CFI 4d8ec .cfa: x29 48 +
STACK CFI INIT 4d904 628 .cfa: sp 0 +
STACK CFI 4d908 .cfa: sp 224 +
STACK CFI 4d920 .cfa: x29 80 + x19: .cfa -8 + ^ x20: .cfa -16 + ^ x21: .cfa -24 + ^ x22: .cfa -32 + ^ x23: .cfa -40 + ^ x24: .cfa -48 + ^ x25: .cfa -56 + ^ x26: .cfa -64 + ^ .ra: .cfa -72 + ^ x29: .cfa -80 + ^
STACK CFI 4dd50 .cfa: sp 224 +
STACK CFI 4dd68 .cfa: sp 0 +
STACK CFI 4dd6c .cfa: x29 80 +
STACK CFI INIT 4e0f8 204 .cfa: sp 0 +
STACK CFI 4e0fc .cfa: sp 144 +
STACK CFI 4e10c .cfa: x29 48 + x19: .cfa -8 + ^ x20: .cfa -16 + ^ x21: .cfa -24 + ^ x22: .cfa -32 + ^ .ra: .cfa -40 + ^ x29: .cfa -48 + ^
STACK CFI 4e230 .cfa: sp 144 +
STACK CFI 4e240 .cfa: sp 0 +
STACK CFI 4e244 .cfa: x29 48 +
STACK CFI INIT 4e2fc 43c .cfa: sp 0 +
STACK CFI 4e300 .cfa: sp 224 +
STACK CFI 4e31c .cfa: x29 96 + x19: .cfa -8 + ^ x20: .cfa -16 + ^ x21: .cfa -24 + ^ x22: .cfa -32 + ^ x23: .cfa -40 + ^ x24: .cfa -48 + ^ x25: .cfa -56 + ^ x26: .cfa -64 + ^ x27: .cfa -72 + ^ x28: .cfa -80 + ^ .ra: .cfa -88 + ^ x29: .cfa -96 + ^
STACK CFI 4e630 .cfa: sp 224 +
STACK CFI 4e64c .cfa: sp 0 +
STACK CFI 4e650 .cfa: x29 96 +
STACK CFI INIT 4e738 43c .cfa: sp 0 +
STACK CFI 4e73c .cfa: sp 224 +
STACK CFI 4e758 .cfa: x29 96 + x19: .cfa -8 + ^ x20: .cfa -16 + ^ x21: .cfa -24 + ^ x22: .cfa -32 + ^ x23: .cfa -40 + ^ x24: .cfa -48 + ^ x25: .cfa -56 + ^ x26: .cfa -64 + ^ x27: .cfa -72 + ^ x28: .cfa -80 + ^ .ra: .cfa -88 + ^ x29: .cfa -96 + ^
STACK CFI 4ea6c .cfa: sp 224 +
STACK CFI 4ea88 .cfa: sp 0 +
STACK CFI 4ea8c .cfa: x29 96 +
STACK CFI INIT 4ebac 340 .cfa: sp 0 +
STACK CFI 4ebb0 .cfa: sp 240 +
STACK CFI 4ebc4 .cfa: x29 64 + x19: .cfa -8 + ^ x20: .cfa -16 + ^ x21: .cfa -24 + ^ x22: .cfa -32 + ^ x23: .cfa -48 + ^ .ra: .cfa -56 + ^ x29: .cfa -64 + ^
STACK CFI 4edd4 .cfa: sp 240 +
STACK CFI 4ede8 .cfa: sp 0 +
STACK CFI 4edec .cfa: x29 64 +
STACK CFI INIT 4eef0 b5c .cfa: sp 0 +
STACK CFI 4eef4 .cfa: sp 96 +
STACK CFI 4ef0c .cfa: x29 96 + x19: .cfa -8 + ^ x20: .cfa -16 + ^ x21: .cfa -24 + ^ x22: .cfa -32 + ^ x23: .cfa -40 + ^ x24: .cfa -48 + ^ x25: .cfa -56 + ^ x26: .cfa -64 + ^ x27: .cfa -72 + ^ x28: .cfa -80 + ^ .ra: .cfa -88 + ^ x29: .cfa -96 + ^
STACK CFI 4f650 .cfa: sp 96 +
STACK CFI 4f668 .cfa: sp 0 +
STACK CFI 4f66c .cfa: x29 96 +
STACK CFI INIT 4fa4c 2b4 .cfa: sp 0 +
STACK CFI 4fa50 .cfa: sp 80 +
STACK CFI 4fa64 .cfa: x29 80 + x19: .cfa -8 + ^ x20: .cfa -16 + ^ x21: .cfa -24 + ^ x22: .cfa -32 + ^ x23: .cfa -40 + ^ x24: .cfa -48 + ^ x28: .cfa -64 + ^ .ra: .cfa -72 + ^ x29: .cfa -80 + ^
STACK CFI 4fc88 .cfa: sp 80 +
STACK CFI 4fc9c .cfa: sp 0 +
STACK CFI 4fca0 .cfa: x29 80 +
STACK CFI INIT 4fd00 10c .cfa: sp 0 +
STACK CFI 4fd04 .cfa: sp 80 +
STACK CFI 4fd18 .cfa: x29 80 + x19: .cfa -8 + ^ x20: .cfa -16 + ^ x21: .cfa -24 + ^ x22: .cfa -32 + ^ x23: .cfa -40 + ^ x24: .cfa -48 + ^ x25: .cfa -64 + ^ .ra: .cfa -72 + ^ x29: .cfa -80 + ^
STACK CFI 4fdb0 .cfa: sp 80 +
STACK CFI 4fdc4 .cfa: sp 0 +
STACK CFI 4fdc8 .cfa: x29 80 +
STACK CFI INIT 51294 610 .cfa: sp 0 +
STACK CFI 51298 .cfa: sp 192 +
STACK CFI 512b4 .cfa: x29 96 + x19: .cfa -8 + ^ x20: .cfa -16 + ^ x21: .cfa -24 + ^ x22: .cfa -32 + ^ x23: .cfa -40 + ^ x24: .cfa -48 + ^ x25: .cfa -56 + ^ x26: .cfa -64 + ^ x27: .cfa -72 + ^ x28: .cfa -80 + ^ .ra: .cfa -88 + ^ x29: .cfa -96 + ^
STACK CFI 515c8 .cfa: sp 192 +
STACK CFI 515e4 .cfa: sp 0 +
STACK CFI 515e8 .cfa: x29 96 +
STACK CFI 51614 .cfa: sp 192 +
STACK CFI 51630 .cfa: sp 0 +
STACK CFI 51634 .cfa: x29 96 +
STACK CFI 51658 .cfa: sp 192 +
STACK CFI 5165c .cfa: x29 96 +
STACK CFI 5169c .cfa: sp 192 +
STACK CFI 516a0 .cfa: x29 96 +
STACK CFI INIT 51948 1ec .cfa: sp 0 +
STACK CFI 5194c .cfa: sp 160 +
STACK CFI 5195c .cfa: x29 48 + x19: .cfa -8 + ^ x20: .cfa -16 + ^ x21: .cfa -32 + ^ .ra: .cfa -40 + ^ x29: .cfa -48 + ^
STACK CFI 51a74 .cfa: sp 160 +
STACK CFI 51a84 .cfa: sp 0 +
STACK CFI 51a88 .cfa: x29 48 +
STACK CFI INIT 51b34 120 .cfa: sp 0 +
STACK CFI 51b38 .cfa: sp 64 +
STACK CFI 51b48 .cfa: x29 64 + x19: .cfa -8 + ^ x20: .cfa -16 + ^ x21: .cfa -24 + ^ x22: .cfa -32 + ^ x23: .cfa -40 + ^ x24: .cfa -48 + ^ .ra: .cfa -56 + ^ x29: .cfa -64 + ^
STACK CFI 51c24 .cfa: sp 64 +
STACK CFI 51c34 .cfa: sp 0 +
STACK CFI 51c38 .cfa: x29 64 +
STACK CFI INIT 51c54 a8 .cfa: sp 0 +
STACK CFI 51c58 .cfa: sp 32 +
STACK CFI 51c60 .cfa: x29 32 + x19: .cfa -8 + ^ x20: .cfa -16 + ^ .ra: .cfa -24 + ^ x29: .cfa -32 + ^
STACK CFI 51cd4 .cfa: sp 32 +
STACK CFI 51cdc .cfa: sp 0 +
STACK CFI 51ce0 .cfa: x29 32 +
STACK CFI INIT 52144 388 .cfa: sp 0 +
STACK CFI 52148 .cfa: sp 256 +
STACK CFI 5215c .cfa: x29 64 + x19: .cfa -8 + ^ x20: .cfa -16 + ^ x21: .cfa -24 + ^ x22: .cfa -32 + ^ x23: .cfa -48 + ^ .ra: .cfa -56 + ^ x29: .cfa -64 + ^
STACK CFI 523a0 .cfa: sp 256 +
STACK CFI 523b4 .cfa: sp 0 +
STACK CFI 523b8 .cfa: x29 64 +
STACK CFI INIT 524d0 bc .cfa: sp 0 +
STACK CFI 524d4 .cfa: sp 80 +
STACK CFI 524e0 .cfa: x29 32 + x19: .cfa -8 + ^ x20: .cfa -16 + ^ .ra: .cfa -24 + ^ x29: .cfa -32 + ^
STACK CFI 5254c .cfa: sp 80 +
STACK CFI 52558 .cfa: sp 0 +
STACK CFI 5255c .cfa: x29 32 +
STACK CFI INIT 52614 134 .cfa: sp 0 +
STACK CFI 52618 .cfa: sp 80 +
STACK CFI 52624 .cfa: x29 32 + x19: .cfa -8 + ^ x20: .cfa -16 + ^ .ra: .cfa -24 + ^ x29: .cfa -32 + ^
STACK CFI 52654 .cfa: sp 80 +
STACK CFI 52660 .cfa: sp 0 +
STACK CFI 52664 .cfa: x29 32 +
STACK CFI INIT 52748 78 .cfa: sp 0 +
STACK CFI 5274c .cfa: sp 32 +
STACK CFI 52754 .cfa: x29 32 + x19: .cfa -8 + ^ x20: .cfa -16 + ^ .ra: .cfa -24 + ^ x29: .cfa -32 + ^
STACK CFI 52760 .cfa: sp 32 +
STACK CFI 52768 .cfa: sp 0 +
STACK CFI 5276c .cfa: x29 32 +
STACK CFI INIT 527c0 74 .cfa: sp 0 +
STACK CFI 527c4 .cfa: sp 48 +
STACK CFI 527d0 .cfa: x29 32 + x19: .cfa -8 + ^ x20: .cfa -16 + ^ .ra: .cfa -24 + ^ x29: .cfa -32 + ^
STACK CFI 5281c .cfa: sp 48 +
STACK CFI 52828 .cfa: sp 0 +
STACK CFI 5282c .cfa: x29 32 +
STACK CFI INIT 52898 208 .cfa: sp 0 +
STACK CFI 5289c .cfa: sp 112 +
STACK CFI 528ac .cfa: x29 48 + x19: .cfa -8 + ^ x20: .cfa -16 + ^ x21: .cfa -32 + ^ .ra: .cfa -40 + ^ x29: .cfa -48 + ^
STACK CFI 52948 .cfa: sp 112 +
STACK CFI 52958 .cfa: sp 0 +
STACK CFI 5295c .cfa: x29 48 +
STACK CFI INIT 52b3c 2d8 .cfa: sp 0 +
STACK CFI 52b40 .cfa: sp 128 +
STACK CFI 52b54 .cfa: x29 64 + x19: .cfa -8 + ^ x20: .cfa -16 + ^ x21: .cfa -24 + ^ x22: .cfa -32 + ^ x23: .cfa -48 + ^ .ra: .cfa -56 + ^ x29: .cfa -64 + ^
STACK CFI 52cc0 .cfa: sp 128 +
STACK CFI 52cd4 .cfa: sp 0 +
STACK CFI 52cd8 .cfa: x29 64 +
STACK CFI INIT 52e68 250 .cfa: sp 0 +
STACK CFI 52e6c .cfa: sp 112 +
STACK CFI 52e7c .cfa: x29 48 + x19: .cfa -8 + ^ x20: .cfa -16 + ^ x21: .cfa -32 + ^ .ra: .cfa -40 + ^ x29: .cfa -48 + ^
STACK CFI 52f60 .cfa: sp 112 +
STACK CFI 52f70 .cfa: sp 0 +
STACK CFI 52f74 .cfa: x29 48 +
STACK CFI INIT 53160 1b8 .cfa: sp 0 +
STACK CFI 53164 .cfa: sp 160 +
STACK CFI 53180 .cfa: x29 72 + x19: .cfa -8 + ^ x20: .cfa -16 + ^ x21: .cfa -24 + ^ x22: .cfa -32 + ^ x23: .cfa -40 + ^ x24: .cfa -48 + ^ x25: .cfa -56 + ^ .ra: .cfa -64 + ^ x29: .cfa -72 + ^ v8: .cfa -80 + ^
STACK CFI 53204 .cfa: sp 160 +
STACK CFI 53220 .cfa: sp 0 +
STACK CFI 53224 .cfa: x29 72 +
STACK CFI INIT 53318 4e4 .cfa: sp 0 +
STACK CFI 5331c .cfa: sp 96 +
STACK CFI 53334 .cfa: x29 80 + x19: .cfa -8 + ^ x20: .cfa -16 + ^ x21: .cfa -24 + ^ x22: .cfa -32 + ^ x23: .cfa -40 + ^ x24: .cfa -48 + ^ x25: .cfa -64 + ^ .ra: .cfa -72 + ^ x29: .cfa -80 + ^
STACK CFI 53778 .cfa: sp 96 +
STACK CFI 53790 .cfa: sp 0 +
STACK CFI 53794 .cfa: x29 80 +
STACK CFI INIT 537fc 48 .cfa: sp 0 +
STACK CFI 53800 .cfa: sp 32 +
STACK CFI 53808 .cfa: x29 32 + x19: .cfa -16 + ^ .ra: .cfa -24 + ^ x29: .cfa -32 + ^
STACK CFI 53834 .cfa: sp 32 +
STACK CFI 5383c .cfa: sp 0 +
STACK CFI 53840 .cfa: x29 32 +
STACK CFI INIT 53844 50 .cfa: sp 0 +
STACK CFI 53848 .cfa: sp 32 +
STACK CFI 53850 .cfa: x29 32 + x19: .cfa -16 + ^ .ra: .cfa -24 + ^ x29: .cfa -32 + ^
STACK CFI 53884 .cfa: sp 32 +
STACK CFI 5388c .cfa: sp 0 +
STACK CFI 53890 .cfa: x29 32 +
STACK CFI INIT 53894 98 .cfa: sp 0 +
STACK CFI 53898 .cfa: sp 48 +
STACK CFI 538a4 .cfa: x29 48 + x19: .cfa -8 + ^ x20: .cfa -16 + ^ x21: .cfa -32 + ^ .ra: .cfa -40 + ^ x29: .cfa -48 + ^
STACK CFI 53908 .cfa: sp 48 +
STACK CFI 53914 .cfa: sp 0 +
STACK CFI 53918 .cfa: x29 48 +
STACK CFI INIT 53930 2bc .cfa: sp 0 +
STACK CFI 53934 .cfa: sp 128 +
STACK CFI 53948 .cfa: x29 64 + x19: .cfa -8 + ^ x20: .cfa -16 + ^ x21: .cfa -24 + ^ x22: .cfa -32 + ^ x23: .cfa -48 + ^ .ra: .cfa -56 + ^ x29: .cfa -64 + ^
STACK CFI 53a98 .cfa: sp 128 +
STACK CFI 53aac .cfa: sp 0 +
STACK CFI 53ab0 .cfa: x29 64 +
STACK CFI INIT 53bec 2bc .cfa: sp 0 +
STACK CFI 53bf0 .cfa: sp 128 +
STACK CFI 53c04 .cfa: x29 64 + x19: .cfa -8 + ^ x20: .cfa -16 + ^ x21: .cfa -24 + ^ x22: .cfa -32 + ^ x23: .cfa -48 + ^ .ra: .cfa -56 + ^ x29: .cfa -64 + ^
STACK CFI 53d54 .cfa: sp 128 +
STACK CFI 53d68 .cfa: sp 0 +
STACK CFI 53d6c .cfa: x29 64 +
STACK CFI INIT 53ea8 278 .cfa: sp 0 +
STACK CFI 53eac .cfa: sp 128 +
STACK CFI 53ec0 .cfa: x29 64 + x19: .cfa -8 + ^ x20: .cfa -16 + ^ x21: .cfa -24 + ^ x22: .cfa -32 + ^ x23: .cfa -48 + ^ .ra: .cfa -56 + ^ x29: .cfa -64 + ^
STACK CFI 53fcc .cfa: sp 128 +
STACK CFI 53fe0 .cfa: sp 0 +
STACK CFI 53fe4 .cfa: x29 64 +
STACK CFI INIT 54120 2c8 .cfa: sp 0 +
STACK CFI 54124 .cfa: sp 128 +
STACK CFI 54138 .cfa: x29 64 + x19: .cfa -8 + ^ x20: .cfa -16 + ^ x21: .cfa -24 + ^ x22: .cfa -32 + ^ x23: .cfa -48 + ^ .ra: .cfa -56 + ^ x29: .cfa -64 + ^
STACK CFI 54294 .cfa: sp 128 +
STACK CFI 542a8 .cfa: sp 0 +
STACK CFI 542ac .cfa: x29 64 +
STACK CFI INIT 543e8 4cc .cfa: sp 0 +
STACK CFI 543ec .cfa: sp 128 +
STACK CFI 54400 .cfa: x29 64 + x19: .cfa -8 + ^ x20: .cfa -16 + ^ x21: .cfa -24 + ^ x22: .cfa -32 + ^ x23: .cfa -48 + ^ .ra: .cfa -56 + ^ x29: .cfa -64 + ^
STACK CFI 5470c .cfa: sp 128 +
STACK CFI 54720 .cfa: sp 0 +
STACK CFI 54724 .cfa: x29 64 +
STACK CFI INIT 548b4 154 .cfa: sp 0 +
STACK CFI 548b8 .cfa: sp 384 +
STACK CFI 548cc .cfa: x29 64 + x19: .cfa -8 + ^ x20: .cfa -16 + ^ x21: .cfa -24 + ^ x22: .cfa -32 + ^ x23: .cfa -40 + ^ x28: .cfa -48 + ^ .ra: .cfa -56 + ^ x29: .cfa -64 + ^
STACK CFI 549b0 .cfa: sp 384 +
STACK CFI 549c4 .cfa: sp 0 +
STACK CFI 549c8 .cfa: x29 64 +
STACK CFI INIT 54a08 168 .cfa: sp 0 +
STACK CFI 54a0c .cfa: sp 384 +
STACK CFI 54a20 .cfa: x29 64 + x19: .cfa -8 + ^ x20: .cfa -16 + ^ x21: .cfa -24 + ^ x22: .cfa -32 + ^ x23: .cfa -40 + ^ x28: .cfa -48 + ^ .ra: .cfa -56 + ^ x29: .cfa -64 + ^
STACK CFI 54b18 .cfa: sp 384 +
STACK CFI 54b2c .cfa: sp 0 +
STACK CFI 54b30 .cfa: x29 64 +
STACK CFI INIT 54b88 4e0 .cfa: sp 0 +
STACK CFI 54b8c .cfa: sp 64 +
STACK CFI 54b9c .cfa: x29 64 + x19: .cfa -8 + ^ x20: .cfa -16 + ^ x21: .cfa -24 + ^ x22: .cfa -32 + ^ x23: .cfa -40 + ^ x24: .cfa -48 + ^ .ra: .cfa -56 + ^ x29: .cfa -64 + ^
STACK CFI 5503c .cfa: sp 64 +
STACK CFI 5504c .cfa: sp 0 +
STACK CFI 55050 .cfa: x29 64 +
