MODULE Linux arm64 8E24F252843F744C5220A38D8BEC91CD0 anatom3000.bettercolorpicker.android64.so
INFO CODE_ID 52F2248E3F844C745220A38D8BEC91CD1DBE021D
INFO GENERATOR mozilla/dump_syms 2.3.4
PUBLIC 126e0 0 __on_dlclose
PUBLIC 126f0 0 __emutls_unregister_key
PUBLIC 126f8 0 __on_dlclose_late
PUBLIC 12700 0 __atexit_handler_wrapper
PUBLIC 12714 0 atexit
PUBLIC 12730 0 pthread_atfork
PUBLIC 12740 0 unwind_phase2
PUBLIC 12874 0 _Unwind_Resume
PUBLIC 128f8 0 unwind_phase2_forced
PUBLIC m 129ec 0 __unw_init_local
PUBLIC m 12a94 0 __unw_get_reg
PUBLIC 12b10 0 __unw_step_stage2
PUBLIC m 12b24 0 __unw_get_proc_info
PUBLIC m 12b64 0 __unw_resume
PUBLIC 12b8c 0 libunwind::CFI_Parser<libunwind::LocalAddressSpace>::decodeFDE(libunwind::LocalAddressSpace&, unsigned long, libunwind::CFI_Parser<libunwind::LocalAddressSpace>::FDE_Info*, libunwind::CFI_Parser<libunwind::LocalAddressSpace>::CIE_Info*, bool)
PUBLIC 12d1c 0 libunwind::CFI_Parser<libunwind::LocalAddressSpace>::parseCIE(libunwind::LocalAddressSpace&, unsigned long, libunwind::CFI_Parser<libunwind::LocalAddressSpace>::CIE_Info*)
PUBLIC 12fe4 0 libunwind::AbstractUnwindCursor::~AbstractUnwindCursor()
PUBLIC 12fec 0 libunwind::UnwindCursor<libunwind::LocalAddressSpace, libunwind::Registers_arm64>::~UnwindCursor()
PUBLIC 12ff4 0 libunwind::UnwindCursor<libunwind::LocalAddressSpace, libunwind::Registers_arm64>::validReg(int)
PUBLIC 13038 0 libunwind::UnwindCursor<libunwind::LocalAddressSpace, libunwind::Registers_arm64>::getReg(int)
PUBLIC 13120 0 libunwind::UnwindCursor<libunwind::LocalAddressSpace, libunwind::Registers_arm64>::setReg(int, unsigned long)
PUBLIC 13208 0 libunwind::UnwindCursor<libunwind::LocalAddressSpace, libunwind::Registers_arm64>::validFloatReg(int)
PUBLIC 1321c 0 libunwind::UnwindCursor<libunwind::LocalAddressSpace, libunwind::Registers_arm64>::getFloatReg(int)
PUBLIC 1322c 0 libunwind::UnwindCursor<libunwind::LocalAddressSpace, libunwind::Registers_arm64>::setFloatReg(int, double)
PUBLIC 1323c 0 libunwind::UnwindCursor<libunwind::LocalAddressSpace, libunwind::Registers_arm64>::step(bool)
PUBLIC 1332c 0 libunwind::UnwindCursor<libunwind::LocalAddressSpace, libunwind::Registers_arm64>::getInfo(unw_proc_info_t*)
PUBLIC 13370 0 libunwind::UnwindCursor<libunwind::LocalAddressSpace, libunwind::Registers_arm64>::jumpto()
PUBLIC 1337c 0 libunwind::UnwindCursor<libunwind::LocalAddressSpace, libunwind::Registers_arm64>::isSignalFrame()
PUBLIC 13388 0 libunwind::UnwindCursor<libunwind::LocalAddressSpace, libunwind::Registers_arm64>::getFunctionName(char*, unsigned long, unsigned long*)
PUBLIC 133b4 0 libunwind::UnwindCursor<libunwind::LocalAddressSpace, libunwind::Registers_arm64>::setInfoBasedOnIPRegister(bool)
PUBLIC 13634 0 libunwind::UnwindCursor<libunwind::LocalAddressSpace, libunwind::Registers_arm64>::getRegisterName(int)
PUBLIC 13640 0 libunwind::UnwindCursor<libunwind::LocalAddressSpace, libunwind::Registers_arm64>::stepThroughSigReturn(libunwind::Registers_arm64&)
PUBLIC 13760 0 libunwind::DwarfInstructions<libunwind::LocalAddressSpace, libunwind::Registers_arm64>::stepWithDwarf(libunwind::LocalAddressSpace&, unsigned long, unsigned long, libunwind::Registers_arm64&, bool&, bool)
PUBLIC 13be8 0 libunwind::CFI_Parser<libunwind::LocalAddressSpace>::parseFDEInstructions(libunwind::LocalAddressSpace&, libunwind::CFI_Parser<libunwind::LocalAddressSpace>::FDE_Info const&, libunwind::CFI_Parser<libunwind::LocalAddressSpace>::CIE_Info const&, unsigned long, int, libunwind::CFI_Parser<libunwind::LocalAddressSpace>::PrologInfo*)
PUBLIC 14830 0 libunwind::DwarfInstructions<libunwind::LocalAddressSpace, libunwind::Registers_arm64>::getCFA(libunwind::LocalAddressSpace&, libunwind::CFI_Parser<libunwind::LocalAddressSpace>::PrologInfo const&, libunwind::Registers_arm64 const&)
PUBLIC 14964 0 libunwind::DwarfInstructions<libunwind::LocalAddressSpace, libunwind::Registers_arm64>::getSavedRegister(libunwind::LocalAddressSpace&, libunwind::Registers_arm64 const&, unsigned long, libunwind::CFI_Parser<libunwind::LocalAddressSpace>::RegisterLocation const&)
PUBLIC 14b74 0 libunwind::LocalAddressSpace::getEncodedP(unsigned long&, unsigned long, unsigned char, unsigned long)
PUBLIC 14f00 0 libunwind::LocalAddressSpace::getULEB128(unsigned long&, unsigned long)
PUBLIC 150c8 0 libunwind::DwarfInstructions<libunwind::LocalAddressSpace, libunwind::Registers_arm64>::evaluateExpression(unsigned long, libunwind::LocalAddressSpace&, libunwind::Registers_arm64 const&, unsigned long)
PUBLIC 15a84 0 libunwind::UnwindCursor<libunwind::LocalAddressSpace, libunwind::Registers_arm64>::getInfoFromDwarfSection(unsigned long, libunwind::UnwindInfoSections const&, unsigned int)
PUBLIC 15d58 0 libunwind::findUnwindSectionsByPhdr(dl_phdr_info*, unsigned long, void*)
PUBLIC 15e8c 0 libunwind::EHHeaderParser<libunwind::LocalAddressSpace>::decodeEHHdr(libunwind::LocalAddressSpace&, unsigned long, unsigned long, libunwind::EHHeaderParser<libunwind::LocalAddressSpace>::EHHeaderInfo&)
PUBLIC 15fac 0 libunwind::CFI_Parser<libunwind::LocalAddressSpace>::findFDE(libunwind::LocalAddressSpace&, unsigned long, unsigned long, unsigned long, unsigned long, libunwind::CFI_Parser<libunwind::LocalAddressSpace>::FDE_Info*, libunwind::CFI_Parser<libunwind::LocalAddressSpace>::CIE_Info*)
PUBLIC 16174 0 libunwind::EHHeaderParser<libunwind::LocalAddressSpace>::findFDE(libunwind::LocalAddressSpace&, unsigned long, unsigned long, unsigned int, libunwind::CFI_Parser<libunwind::LocalAddressSpace>::FDE_Info*, libunwind::CFI_Parser<libunwind::LocalAddressSpace>::CIE_Info*)
PUBLIC 162dc 0 libunwind::EHHeaderParser<libunwind::LocalAddressSpace>::getTableEntrySize(unsigned char)
PUBLIC 163d8 0 libunwind::Registers_arm64::getRegisterName(int)
PUBLIC 16408 0 __libunwind_Registers_arm64_jumpto
PUBLIC m 16498 0 __unw_getcontext
PUBLIC 16540 0 __aarch64_ldadd8_relax
PUBLIC 16570 0 init_have_lse_atomics
PUBLIC 16608 0 __init_cpu_features_constructor
PUBLIC 16ba4 0 __init_cpu_features
PUBLIC 16c30 0 __aarch64_ldadd8_acq_rel
PUBLIC 16c60 0 __cxx_global_var_init
PUBLIC 16cb4 0 __cxx_global_var_init.1
PUBLIC 16d08 0 BetterColorPicker::create(std::__ndk1::function<void (cocos2d::_ccColor3B)>)
PUBLIC 16ec8 0 BetterColorPicker::init(std::__ndk1::function<void (cocos2d::_ccColor3B)>)
PUBLIC 1742c 0 BetterColorPicker::updateValues(bool)
PUBLIC 17524 0 BetterColorPicker::setRgbValue(cocos2d::_ccColor3B, bool)
PUBLIC 1770c 0 BetterColorPicker::updateSV(cocos2d::CCPoint)
PUBLIC 17aac 0 BetterColorPicker::ccTouchBegan(cocos2d::CCTouch*, cocos2d::CCEvent*)
PUBLIC 17d00 0 {virtual override thunk({offset(-320)}, BetterColorPicker::ccTouchBegan(cocos2d::CCTouch*, cocos2d::CCEvent*))}
PUBLIC 17d08 0 BetterColorPicker::ccTouchMoved(cocos2d::CCTouch*, cocos2d::CCEvent*)
PUBLIC 17e30 0 {virtual override thunk({offset(-320)}, BetterColorPicker::ccTouchMoved(cocos2d::CCTouch*, cocos2d::CCEvent*))}
PUBLIC 17e38 0 BetterColorPicker::ccTouchEnded(cocos2d::CCTouch*, cocos2d::CCEvent*)
PUBLIC 17e40 0 {virtual override thunk({offset(-320)}, BetterColorPicker::ccTouchEnded(cocos2d::CCTouch*, cocos2d::CCEvent*))}
PUBLIC 17e48 0 BetterColorPicker::registerWithTouchDispatcher()
PUBLIC 17e74 0 loadPickerShader()
PUBLIC 18548 0 std::__ndk1::basic_stringstream<char, std::__ndk1::char_traits<char>, std::__ndk1::allocator<char> >::basic_stringstream[abi:ne180000]()
PUBLIC m 18674 0 std::__ndk1::basic_stringstream<char, std::__ndk1::char_traits<char>, std::__ndk1::allocator<char> >::~basic_stringstream()
PUBLIC m 186f4 0 std::__ndk1::basic_ifstream<char, std::__ndk1::char_traits<char> >::~basic_ifstream()
PUBLIC 18744 0 geodeExecFunction293<(anonymous namespace)::ExecFuncUnique293>(geode::ModStateEvent*)
PUBLIC 18748 0 cocos2d::CCCopying::copyWithZone(cocos2d::CCZone*)
PUBLIC 18750 0 BetterColorPicker::~BetterColorPicker()
PUBLIC 18814 0 BetterColorPicker::~BetterColorPicker()
PUBLIC 18838 0 {virtual override thunk({offset(-320)}, BetterColorPicker::~BetterColorPicker())}
PUBLIC 18840 0 {virtual override thunk({offset(-320)}, BetterColorPicker::~BetterColorPicker())}
PUBLIC 18868 0 cocos2d::CCKeyboardDelegate::keyUp(cocos2d::enumKeyCodes)
PUBLIC 1886c 0 cocos2d::CCMouseDelegate::rightKeyDown()
PUBLIC 18870 0 cocos2d::CCMouseDelegate::rightKeyUp()
PUBLIC 18874 0 cocos2d::CCMouseDelegate::scrollWheel(float, float)
PUBLIC 18878 0 __cxx_global_var_init.5
PUBLIC 18cf8 0 geode::modifier::ModifyBase<geode::modifier::ModifyDerive<MyGameManager, GameManager> >::~ModifyBase()
PUBLIC 18d14 0 geode::Ref<cocos2d::CCDictionary>::~Ref()
PUBLIC 18d34 0 __clang_call_terminate
PUBLIC 18d44 0 std::__ndk1::basic_string<char, std::__ndk1::char_traits<char>, std::__ndk1::allocator<char> >::__throw_length_error[abi:ne180000]() const
PUBLIC 18d58 0 std::__ndk1::__throw_length_error[abi:ne180000](char const*)
PUBLIC 18da8 0 std::length_error::length_error[abi:ne180000](char const*)
PUBLIC 18dd8 0 std::__throw_bad_array_new_length([abi:ne180000], void)
PUBLIC 18e0c 0 std::__ndk1::basic_string<char, std::__ndk1::char_traits<char>, std::__ndk1::allocator<char> >::__assign_no_alias<true>(char const*, unsigned long)
PUBLIC 18eb8 0 std::__ndk1::basic_string<char, std::__ndk1::char_traits<char>, std::__ndk1::allocator<char> >::__assign_no_alias<false>(char const*, unsigned long)
PUBLIC 18fc8 0 std::__ndk1::basic_string<char, std::__ndk1::char_traits<char>, std::__ndk1::allocator<char> >::__init_copy_ctor_external(char const*, unsigned long)
PUBLIC 19048 0 std::__ndk1::__throw_bad_function_call[abi:ne180000]()
PUBLIC 1907c 0 std::__ndk1::bad_function_call::~bad_function_call()
PUBLIC 190a0 0 geode::modifier::ModifyDerive<MyGameManager, GameManager>::apply()
PUBLIC 193e0 0 std::__ndk1::shared_ptr<geode::Hook>::~shared_ptr[abi:ne180000]()
PUBLIC 19430 0 geode::impl::ResultData<geode::Hook*, std::__ndk1::basic_string<char, std::__ndk1::char_traits<char>, std::__ndk1::allocator<char> > >::~ResultData()
PUBLIC 194a4 0 std::__ndk1::vector<std::__ndk1::basic_string<char, std::__ndk1::char_traits<char>, std::__ndk1::allocator<char> >, std::__ndk1::allocator<std::__ndk1::basic_string<char, std::__ndk1::char_traits<char>, std::__ndk1::allocator<char> > > >::~vector[abi:ne180000]()
PUBLIC 19520 0 geode::modifier::ModifyBase<geode::modifier::ModifyDerive<MyGameManager, GameManager> >::apply()
PUBLIC 19524 0 _ZN5geode15UnwrapExceptionC2IRPNS_4HookEQsr4implE18IsStringStreamableIT_EEENS_4impl5OkTagEOS5_
PUBLIC 19678 0 std::__ndk1::__throw_bad_variant_access[abi:ne180000]()
PUBLIC 196ac 0 geode::UnwrapException::~UnwrapException()
PUBLIC 196d0 0 std::__ndk1::__put_character_sequence[abi:ne180000]<char, std::__ndk1::char_traits<char> >(std::__ndk1::basic_ostream<char, std::__ndk1::char_traits<char> >, std::__ndk1::basic_ostream const*, unsigned long)
PUBLIC 19874 0 std::__ndk1::__pad_and_output[abi:ne180000]<char, std::__ndk1::char_traits<char> >(std::__ndk1::char_traits<char>, std::__ndk1::ostreambuf_iterator const*, std::__ndk1::ostreambuf_iterator const, std::__ndk1::ostreambuf_iterator const, std::__ndk1::ios_base&, std::__ndk1::ostreambuf_iterator)
PUBLIC 19a50 0 std::__ndk1::basic_stringbuf<char, std::__ndk1::char_traits<char>, std::__ndk1::allocator<char> >::str[abi:ne180000]() &&
PUBLIC 19bc8 0 std::__ndk1::basic_stringbuf<char, std::__ndk1::char_traits<char>, std::__ndk1::allocator<char> >::__init_buf_ptrs[abi:ne180000]()
PUBLIC 19d10 0 std::__ndk1::vector<std::__ndk1::basic_string<char, std::__ndk1::char_traits<char>, std::__ndk1::allocator<char> >, std::__ndk1::allocator<std::__ndk1::basic_string<char, std::__ndk1::char_traits<char>, std::__ndk1::allocator<char> > > >::__push_back_slow_path<std::__ndk1::basic_string<char, std::__ndk1::char_traits<char>, std::__ndk1::allocator<char> > const&>(std::__ndk1::basic_string<char, std::__ndk1::char_traits<char>, std::__ndk1::allocator<char> > const&)
PUBLIC 19f38 0 std::__ndk1::__split_buffer<std::__ndk1::basic_string<char, std::__ndk1::char_traits<char>, std::__ndk1::allocator<char> >, std::__ndk1::allocator<std::__ndk1::basic_string<char, std::__ndk1::char_traits<char>, std::__ndk1::allocator<char> > >&>::~__split_buffer()
PUBLIC 19fa0 0 std::__ndk1::vector<std::__ndk1::basic_string<char, std::__ndk1::char_traits<char>, std::__ndk1::allocator<char> >, std::__ndk1::allocator<std::__ndk1::basic_string<char, std::__ndk1::char_traits<char>, std::__ndk1::allocator<char> > > >::__throw_length_error[abi:ne180000]() const
PUBLIC 19fb4 0 std::__ndk1::__variant_detail::__visitation::__base::__dispatcher<(unsigned long)0>::__dispatch[abi:ne180000]<std::__ndk1::__variant_detail::__dtor<std::__ndk1::__variant_detail::__traits<geode::Hook*, std::__ndk1::basic_string<char, std::__ndk1::char_traits<char>, std::__ndk1::allocator<char> > >, (std::__ndk1::__variant_detail::_Trait)1>::__destroy[abi:ne180000]()::{lambda(auto:1&)#1}, std::__ndk1::__variant_detail::__base<(std::__ndk1::__variant_detail::__traits<geode::Hook*, std::__ndk1::basic_string<char, std::__ndk1::char_traits<char>, std::__ndk1::allocator<char> > >)1, geode::Hook, std::__ndk1::allocator<char> >&>(std::__ndk1::__variant_detail::__dtor<std::__ndk1::__variant_detail::__traits<geode::Hook*, std::__ndk1::basic_string<char, std::__ndk1::char_traits<char>, std::__ndk1::allocator<char> > >, (std::__ndk1::__variant_detail::_Trait)1>, std::__ndk1::__variant_detail::__base<(std::__ndk1::__variant_detail::__traits<geode::Hook*, std::__ndk1::basic_string<char, std::__ndk1::char_traits<char>, std::__ndk1::allocator<char> > >)1, geode::Hook, std::__ndk1::allocator<char> >&)
PUBLIC 19fb8 0 std::__ndk1::__variant_detail::__visitation::__base::__dispatcher<(unsigned long)1>::__dispatch[abi:ne180000]<std::__ndk1::__variant_detail::__dtor<std::__ndk1::__variant_detail::__traits<geode::Hook*, std::__ndk1::basic_string<char, std::__ndk1::char_traits<char>, std::__ndk1::allocator<char> > >, (std::__ndk1::__variant_detail::_Trait)1>::__destroy[abi:ne180000]()::{lambda(auto:1&)#1}, std::__ndk1::__variant_detail::__base<(std::__ndk1::__variant_detail::__traits<geode::Hook*, std::__ndk1::basic_string<char, std::__ndk1::char_traits<char>, std::__ndk1::allocator<char> > >)1, geode::Hook, std::__ndk1::allocator<char> >&>(std::__ndk1::__variant_detail::__dtor<std::__ndk1::__variant_detail::__traits<geode::Hook*, std::__ndk1::basic_string<char, std::__ndk1::char_traits<char>, std::__ndk1::allocator<char> > >, (std::__ndk1::__variant_detail::_Trait)1>, std::__ndk1::__variant_detail::__base<(std::__ndk1::__variant_detail::__traits<geode::Hook*, std::__ndk1::basic_string<char, std::__ndk1::char_traits<char>, std::__ndk1::allocator<char> > >)1, geode::Hook, std::__ndk1::allocator<char> >&)
PUBLIC 19fcc 0 std::__ndk1::__tree<std::__ndk1::__value_type<std::__ndk1::basic_string<char, std::__ndk1::char_traits<char>, std::__ndk1::allocator<char> >, std::__ndk1::shared_ptr<geode::Hook> >, std::__ndk1::__map_value_compare<std::__ndk1::basic_string<char, std::__ndk1::char_traits<char>, std::__ndk1::allocator<char> >, std::__ndk1::__value_type<std::__ndk1::basic_string<char, std::__ndk1::char_traits<char>, std::__ndk1::allocator<char> >, std::__ndk1::shared_ptr<geode::Hook> >, std::__ndk1::less<std::__ndk1::basic_string<char, std::__ndk1::char_traits<char>, std::__ndk1::allocator<char> > >, true>, std::__ndk1::allocator<std::__ndk1::__value_type<std::__ndk1::basic_string<char, std::__ndk1::char_traits<char>, std::__ndk1::allocator<char> >, std::__ndk1::shared_ptr<geode::Hook> > > >::find<std::__ndk1::basic_string<char, std::__ndk1::char_traits<char>, std::__ndk1::allocator<char> > >(std::__ndk1::basic_string<char, std::__ndk1::char_traits<char>, std::__ndk1::allocator<char> > const&)
PUBLIC 1a0ec 0 std::__ndk1::__tree<std::__ndk1::__value_type<std::__ndk1::basic_string<char, std::__ndk1::char_traits<char>, std::__ndk1::allocator<char> >, std::__ndk1::shared_ptr<geode::Hook> >, std::__ndk1::__map_value_compare<std::__ndk1::basic_string<char, std::__ndk1::char_traits<char>, std::__ndk1::allocator<char> >, std::__ndk1::__value_type<std::__ndk1::basic_string<char, std::__ndk1::char_traits<char>, std::__ndk1::allocator<char> >, std::__ndk1::shared_ptr<geode::Hook> >, std::__ndk1::less<std::__ndk1::basic_string<char, std::__ndk1::char_traits<char>, std::__ndk1::allocator<char> > >, true>, std::__ndk1::allocator<std::__ndk1::__value_type<std::__ndk1::basic_string<char, std::__ndk1::char_traits<char>, std::__ndk1::allocator<char> >, std::__ndk1::shared_ptr<geode::Hook> > > >::erase(std::__ndk1::__tree_const_iterator<std::__ndk1::__value_type<std::__ndk1::basic_string<char, std::__ndk1::char_traits<char>, std::__ndk1::allocator<char> >, std::__ndk1::shared_ptr<geode::Hook> >, std::__ndk1::__tree_node<std::__ndk1::__value_type<std::__ndk1::basic_string<char, std::__ndk1::char_traits<char>, std::__ndk1::allocator<char> >, std::__ndk1::shared_ptr<geode::Hook> >, void*>*, long>)
PUBLIC 1a1c0 0 std::__ndk1::__tree_remove[abi:ne180000]<std::__ndk1::__tree_node_base<void*>*>(std::__ndk1::__tree_node_base<void*>*, std::__ndk1::__tree_node_base<void*>*)
PUBLIC 1a588 0 std::__ndk1::__tree<std::__ndk1::__value_type<std::__ndk1::basic_string<char, std::__ndk1::char_traits<char>, std::__ndk1::allocator<char> >, std::__ndk1::shared_ptr<geode::Hook> >, std::__ndk1::__map_value_compare<std::__ndk1::basic_string<char, std::__ndk1::char_traits<char>, std::__ndk1::allocator<char> >, std::__ndk1::__value_type<std::__ndk1::basic_string<char, std::__ndk1::char_traits<char>, std::__ndk1::allocator<char> >, std::__ndk1::shared_ptr<geode::Hook> >, std::__ndk1::less<std::__ndk1::basic_string<char, std::__ndk1::char_traits<char>, std::__ndk1::allocator<char> > >, true>, std::__ndk1::allocator<std::__ndk1::__value_type<std::__ndk1::basic_string<char, std::__ndk1::char_traits<char>, std::__ndk1::allocator<char> >, std::__ndk1::shared_ptr<geode::Hook> > > >::destroy(std::__ndk1::__tree_node<std::__ndk1::__value_type<std::__ndk1::basic_string<char, std::__ndk1::char_traits<char>, std::__ndk1::allocator<char> >, std::__ndk1::shared_ptr<geode::Hook> >, void*>*)
PUBLIC 1a614 0 geode::modifier::AsStaticFunction_reloadAllStep5<MyGameManager, void (MyGameManager::*)()>::Impl<void (MyGameManager::*)()>::function(MyGameManager*)
PUBLIC 1a6f4 0 std::__ndk1::shared_ptr<tulip::hook::CallingConvention>::~shared_ptr[abi:ne180000]()
PUBLIC 1a744 0 tulip::hook::HandlerMetadata::~HandlerMetadata()
PUBLIC 1a7a8 0 std::__ndk1::__tree<std::__ndk1::__value_type<std::__ndk1::basic_string<char, std::__ndk1::char_traits<char>, std::__ndk1::allocator<char> >, std::__ndk1::shared_ptr<geode::Hook> >, std::__ndk1::__map_value_compare<std::__ndk1::basic_string<char, std::__ndk1::char_traits<char>, std::__ndk1::allocator<char> >, std::__ndk1::__value_type<std::__ndk1::basic_string<char, std::__ndk1::char_traits<char>, std::__ndk1::allocator<char> >, std::__ndk1::shared_ptr<geode::Hook> >, std::__ndk1::less<std::__ndk1::basic_string<char, std::__ndk1::char_traits<char>, std::__ndk1::allocator<char> > >, true>, std::__ndk1::allocator<std::__ndk1::__value_type<std::__ndk1::basic_string<char, std::__ndk1::char_traits<char>, std::__ndk1::allocator<char> >, std::__ndk1::shared_ptr<geode::Hook> > > >::__emplace_unique_key_args<std::__ndk1::basic_string<char, std::__ndk1::char_traits<char>, std::__ndk1::allocator<char> >, std::__ndk1::piecewise_construct_t const&, std::__ndk1::tuple<std::__ndk1::basic_string<char, std::__ndk1::char_traits<char>, std::__ndk1::allocator<char> >&&>, std::__ndk1::tuple<> >(std::__ndk1::basic_string<char, std::__ndk1::char_traits<char>, std::__ndk1::allocator<char> > const&, std::__ndk1::piecewise_construct_t const&, std::__ndk1::tuple<std::__ndk1::basic_string<char, std::__ndk1::char_traits<char>, std::__ndk1::allocator<char> >&&>, std::__ndk1::tuple<>)
PUBLIC 1a920 0 std::__ndk1::__tree_balance_after_insert[abi:ne180000]<std::__ndk1::__tree_node_base<void*>*>(std::__ndk1::__tree_node_base<void*>*, std::__ndk1::__tree_node_base<void*>*)
PUBLIC 1aad0 0 geode::EventListener<geode::ModStateFilter>::getPool() const
PUBLIC 1aad4 0 geode::EventListener<geode::ModStateFilter>::handle(geode::Event*)
PUBLIC 1ac48 0 geode::EventListener<geode::ModStateFilter>::~EventListener()
PUBLIC 1aca4 0 geode::EventListener<geode::ModStateFilter>::~EventListener()
PUBLIC 1ad08 0 std::__ndk1::__function::__base<void (geode::ModStateEvent*)>::~__base()
PUBLIC 1ad0c 0 std::__ndk1::__function::__func<void (*)(geode::ModStateEvent*), std::__ndk1::allocator<void (*)(geode::ModStateEvent*)>, void (geode::ModStateEvent*)>::~__func()
PUBLIC 1ad10 0 std::__ndk1::__function::__func<void (*)(geode::ModStateEvent*), std::__ndk1::allocator<void (*)(geode::ModStateEvent*)>, void (geode::ModStateEvent*)>::__clone() const
PUBLIC 1ad44 0 std::__ndk1::__function::__func<void (*)(geode::ModStateEvent*), std::__ndk1::allocator<void (*)(geode::ModStateEvent*)>, void (geode::ModStateEvent*)>::__clone(std::__ndk1::__function::__base<void (geode::ModStateEvent*)>*) const
PUBLIC 1ad58 0 std::__ndk1::__function::__func<void (*)(geode::ModStateEvent*), std::__ndk1::allocator<void (*)(geode::ModStateEvent*)>, void (geode::ModStateEvent*)>::destroy()
PUBLIC 1ad5c 0 std::__ndk1::__function::__func<void (*)(geode::ModStateEvent*), std::__ndk1::allocator<void (*)(geode::ModStateEvent*)>, void (geode::ModStateEvent*)>::destroy_deallocate()
PUBLIC 1ad60 0 std::__ndk1::__function::__func<void (*)(geode::ModStateEvent*), std::__ndk1::allocator<void (*)(geode::ModStateEvent*)>, void (geode::ModStateEvent*)>::operator()(geode::ModStateEvent*&&)
PUBLIC 1ad70 0 std::__ndk1::__function::__func<void (*)(geode::ModStateEvent*), std::__ndk1::allocator<void (*)(geode::ModStateEvent*)>, void (geode::ModStateEvent*)>::target(std::type_info const&) const
PUBLIC 1ad8c 0 std::__ndk1::__function::__func<void (*)(geode::ModStateEvent*), std::__ndk1::allocator<void (*)(geode::ModStateEvent*)>, void (geode::ModStateEvent*)>::target_type() const
PUBLIC 1ad98 0 geode::cast::traverseTypeinfoFor(void*, geode::cast::ClassTypeinfoType const*, char const*)
PUBLIC 1ae9c 0 _GLOBAL__sub_I_main.cpp
PUBLIC 1afc8 0 __cxx_global_var_init.2
PUBLIC 1b448 0 geode::modifier::ModifyBase<geode::modifier::ModifyDerive<MyColorSelectPopup, ColorSelectPopup> >::~ModifyBase()
PUBLIC 1b464 0 geode::modifier::ModifyDerive<MyColorSelectPopup, ColorSelectPopup>::apply()
PUBLIC 1bdb4 0 geode::modifier::ModifyBase<geode::modifier::ModifyDerive<MyColorSelectPopup, ColorSelectPopup> >::apply()
PUBLIC 1bdb8 0 geode::modifier::AsStaticFunction_textChanged<MyColorSelectPopup, void (MyColorSelectPopup::*)(CCTextInputNode*)>::Impl<void (MyColorSelectPopup::*)(CCTextInputNode*)>::function(MyColorSelectPopup*, CCTextInputNode*)
PUBLIC 1be44 0 geode::modifier::AsStaticFunction_init<MyColorSelectPopup, bool (MyColorSelectPopup::*)(EffectGameObject*, cocos2d::CCArray*, ColorAction*)>::Impl<bool (MyColorSelectPopup::*)(EffectGameObject*, cocos2d::CCArray*, ColorAction*)>::function(MyColorSelectPopup*, EffectGameObject*, cocos2d::CCArray*, ColorAction*)
PUBLIC 1c254 0 geode::modifier::AsStaticFunction_onToggleHSVMode<MyColorSelectPopup, void (MyColorSelectPopup::*)(cocos2d::CCObject*)>::Impl<void (MyColorSelectPopup::*)(cocos2d::CCObject*)>::function(MyColorSelectPopup*, cocos2d::CCObject*)
PUBLIC 1c2e8 0 geode::addresser::Addresser::addressOfVirtual<void, ColorSelectPopup, CCTextInputNode*>(void (ColorSelectPopup::*)(CCTextInputNode*))
PUBLIC 1c390 0 ColorSelectPopup::ColorSelectPopup(geode::ZeroConstructorType)
PUBLIC 1c450 0 geode::modifier::FieldIntermediate<MyColorSelectPopup, ColorSelectPopup>::self()
PUBLIC 1c5e0 0 geode::modifier::FieldContainer::getField(unsigned long)
PUBLIC 1c898 0 geode::modifier::FieldContainer::setField(unsigned long, unsigned long, std::__ndk1::function<void (void*)>)
PUBLIC 1c9ac 0 geode::modifier::FieldIntermediate<MyColorSelectPopup, ColorSelectPopup>::fieldDestructor(void*)
PUBLIC 1c9b0 0 std::__ndk1::vector<void*, std::__ndk1::allocator<void*> >::__throw_length_error[abi:ne180000]() const
PUBLIC 1c9c4 0 std::__ndk1::vector<std::__ndk1::function<void (void*)>, std::__ndk1::allocator<std::__ndk1::function<void (void*)> > >::__push_back_slow_path<std::__ndk1::function<void (void*)> >(std::__ndk1::function<void (void*)>&&)
PUBLIC 1cbf0 0 std::__ndk1::vector<std::__ndk1::function<void (void*)>, std::__ndk1::allocator<std::__ndk1::function<void (void*)> > >::__throw_length_error[abi:ne180000]() const
PUBLIC 1cc04 0 std::__ndk1::vector<void*, std::__ndk1::allocator<void*> >::__throw_out_of_range[abi:ne180000]() const
PUBLIC 1cc18 0 std::__ndk1::__throw_out_of_range[abi:ne180000](char const*)
PUBLIC 1cc68 0 std::out_of_range::out_of_range[abi:ne180000](char const*)
PUBLIC 1cc98 0 std::__ndk1::vector<std::__ndk1::function<void (void*)>, std::__ndk1::allocator<std::__ndk1::function<void (void*)> > >::__throw_out_of_range[abi:ne180000]() const
PUBLIC 1ccac 0 std::__ndk1::__function::__base<void (void*)>::~__base()
PUBLIC 1ccb0 0 std::__ndk1::__function::__func<void (*)(void*), std::__ndk1::allocator<void (*)(void*)>, void (void*)>::~__func()
PUBLIC 1ccb4 0 std::__ndk1::__function::__func<void (*)(void*), std::__ndk1::allocator<void (*)(void*)>, void (void*)>::__clone() const
PUBLIC 1ccec 0 std::__ndk1::__function::__func<void (*)(void*), std::__ndk1::allocator<void (*)(void*)>, void (void*)>::__clone(std::__ndk1::__function::__base<void (void*)>*) const
PUBLIC 1cd04 0 std::__ndk1::__function::__func<void (*)(void*), std::__ndk1::allocator<void (*)(void*)>, void (void*)>::destroy()
PUBLIC 1cd08 0 std::__ndk1::__function::__func<void (*)(void*), std::__ndk1::allocator<void (*)(void*)>, void (void*)>::destroy_deallocate()
PUBLIC 1cd0c 0 std::__ndk1::__function::__func<void (*)(void*), std::__ndk1::allocator<void (*)(void*)>, void (void*)>::operator()(void*&&)
PUBLIC 1cd1c 0 std::__ndk1::__function::__func<void (*)(void*), std::__ndk1::allocator<void (*)(void*)>, void (void*)>::target(std::type_info const&) const
PUBLIC 1cd38 0 std::__ndk1::__function::__func<void (*)(void*), std::__ndk1::allocator<void (*)(void*)>, void (void*)>::target_type() const
PUBLIC 1cd44 0 MyColorSelectPopup::updatePickerPositions()
PUBLIC 1ce60 0 MyColorSelectPopup::onPickerToggle(cocos2d::CCObject*)
PUBLIC 1cef4 0 geode::Mod::getSettingValue<bool>(std::__ndk1::basic_string_view<char, std::__ndk1::char_traits<char> >) const
PUBLIC 1d028 0 MyColorSelectPopup::onBetterPaste(cocos2d::CCObject*)
PUBLIC 1d068 0 MyColorSelectPopup::onBetterDefault(cocos2d::CCObject*)
PUBLIC 1d0a8 0 std::__ndk1::__function::__base<void (cocos2d::_ccColor3B)>::~__base()
PUBLIC 1d0ac 0 std::__ndk1::__function::__func<MyColorSelectPopup::init(EffectGameObject*, cocos2d::CCArray*, ColorAction*)::{lambda(cocos2d::_ccColor3B)#1}, std::__ndk1::allocator<MyColorSelectPopup::init(EffectGameObject*, cocos2d::CCArray*, ColorAction*)::{lambda(cocos2d::_ccColor3B)#1}>, void (cocos2d::_ccColor3B)>::~__func()
PUBLIC 1d0b0 0 std::__ndk1::__function::__func<MyColorSelectPopup::init(EffectGameObject*, cocos2d::CCArray*, ColorAction*)::{lambda(cocos2d::_ccColor3B)#1}, std::__ndk1::allocator<MyColorSelectPopup::init(EffectGameObject*, cocos2d::CCArray*, ColorAction*)::{lambda(cocos2d::_ccColor3B)#1}>, void (cocos2d::_ccColor3B)>::__clone() const
PUBLIC 1d0e4 0 std::__ndk1::__function::__func<MyColorSelectPopup::init(EffectGameObject*, cocos2d::CCArray*, ColorAction*)::{lambda(cocos2d::_ccColor3B)#1}, std::__ndk1::allocator<MyColorSelectPopup::init(EffectGameObject*, cocos2d::CCArray*, ColorAction*)::{lambda(cocos2d::_ccColor3B)#1}>, void (cocos2d::_ccColor3B)>::__clone(std::__ndk1::__function::__base<void (cocos2d::_ccColor3B)>*) const
PUBLIC 1d0f8 0 std::__ndk1::__function::__func<MyColorSelectPopup::init(EffectGameObject*, cocos2d::CCArray*, ColorAction*)::{lambda(cocos2d::_ccColor3B)#1}, std::__ndk1::allocator<MyColorSelectPopup::init(EffectGameObject*, cocos2d::CCArray*, ColorAction*)::{lambda(cocos2d::_ccColor3B)#1}>, void (cocos2d::_ccColor3B)>::destroy()
PUBLIC 1d0fc 0 std::__ndk1::__function::__func<MyColorSelectPopup::init(EffectGameObject*, cocos2d::CCArray*, ColorAction*)::{lambda(cocos2d::_ccColor3B)#1}, std::__ndk1::allocator<MyColorSelectPopup::init(EffectGameObject*, cocos2d::CCArray*, ColorAction*)::{lambda(cocos2d::_ccColor3B)#1}>, void (cocos2d::_ccColor3B)>::destroy_deallocate()
PUBLIC 1d100 0 std::__ndk1::__function::__func<MyColorSelectPopup::init(EffectGameObject*, cocos2d::CCArray*, ColorAction*)::{lambda(cocos2d::_ccColor3B)#1}, std::__ndk1::allocator<MyColorSelectPopup::init(EffectGameObject*, cocos2d::CCArray*, ColorAction*)::{lambda(cocos2d::_ccColor3B)#1}>, void (cocos2d::_ccColor3B)>::operator()(cocos2d::_ccColor3B&&)
PUBLIC 1d168 0 std::__ndk1::__function::__func<MyColorSelectPopup::init(EffectGameObject*, cocos2d::CCArray*, ColorAction*)::{lambda(cocos2d::_ccColor3B)#1}, std::__ndk1::allocator<MyColorSelectPopup::init(EffectGameObject*, cocos2d::CCArray*, ColorAction*)::{lambda(cocos2d::_ccColor3B)#1}>, void (cocos2d::_ccColor3B)>::target(std::type_info const&) const
PUBLIC 1d184 0 std::__ndk1::__function::__func<MyColorSelectPopup::init(EffectGameObject*, cocos2d::CCArray*, ColorAction*)::{lambda(cocos2d::_ccColor3B)#1}, std::__ndk1::allocator<MyColorSelectPopup::init(EffectGameObject*, cocos2d::CCArray*, ColorAction*)::{lambda(cocos2d::_ccColor3B)#1}>, void (cocos2d::_ccColor3B)>::target_type() const
PUBLIC 1d190 0 geode::Mod::setSettingValue<bool>(std::__ndk1::basic_string_view<char, std::__ndk1::char_traits<char> >, bool const&)
PUBLIC 1d364 0 std::__ndk1::shared_ptr<geode::BoolSettingV3>::~shared_ptr[abi:ne180000]()
PUBLIC 1d3b4 0 std::__ndk1::__variant_detail::__visitation::__base::__dispatcher<(unsigned long)0>::__dispatch[abi:ne180000]<std::__ndk1::__variant_detail::__dtor<std::__ndk1::__variant_detail::__traits<std::__ndk1::monostate, std::__ndk1::basic_string<char, std::__ndk1::char_traits<char>, std::__ndk1::allocator<char> > >, (std::__ndk1::__variant_detail::_Trait)1>::__destroy[abi:ne180000]()::{lambda(auto:1&)#1}, std::__ndk1::__variant_detail::__base<(std::__ndk1::__variant_detail::__traits<std::__ndk1::monostate, std::__ndk1::basic_string<char, std::__ndk1::char_traits<char>, std::__ndk1::allocator<char> > >)1, std::__ndk1::__variant_detail::__traits, std::__ndk1::allocator<char> >&>(std::__ndk1::__variant_detail::__dtor<std::__ndk1::__variant_detail::__traits<std::__ndk1::monostate, std::__ndk1::basic_string<char, std::__ndk1::char_traits<char>, std::__ndk1::allocator<char> > >, (std::__ndk1::__variant_detail::_Trait)1>, std::__ndk1::__variant_detail::__base<(std::__ndk1::__variant_detail::__traits<std::__ndk1::monostate, std::__ndk1::basic_string<char, std::__ndk1::char_traits<char>, std::__ndk1::allocator<char> > >)1, std::__ndk1::__variant_detail::__traits, std::__ndk1::allocator<char> >&)
PUBLIC 1d3b8 0 std::__ndk1::__variant_detail::__visitation::__base::__dispatcher<(unsigned long)1>::__dispatch[abi:ne180000]<std::__ndk1::__variant_detail::__dtor<std::__ndk1::__variant_detail::__traits<std::__ndk1::monostate, std::__ndk1::basic_string<char, std::__ndk1::char_traits<char>, std::__ndk1::allocator<char> > >, (std::__ndk1::__variant_detail::_Trait)1>::__destroy[abi:ne180000]()::{lambda(auto:1&)#1}, std::__ndk1::__variant_detail::__base<(std::__ndk1::__variant_detail::__traits<std::__ndk1::monostate, std::__ndk1::basic_string<char, std::__ndk1::char_traits<char>, std::__ndk1::allocator<char> > >)1, std::__ndk1::__variant_detail::__traits, std::__ndk1::allocator<char> >&>(std::__ndk1::__variant_detail::__dtor<std::__ndk1::__variant_detail::__traits<std::__ndk1::monostate, std::__ndk1::basic_string<char, std::__ndk1::char_traits<char>, std::__ndk1::allocator<char> > >, (std::__ndk1::__variant_detail::_Trait)1>, std::__ndk1::__variant_detail::__base<(std::__ndk1::__variant_detail::__traits<std::__ndk1::monostate, std::__ndk1::basic_string<char, std::__ndk1::char_traits<char>, std::__ndk1::allocator<char> > >)1, std::__ndk1::__variant_detail::__traits, std::__ndk1::allocator<char> >&)
PUBLIC 1d3cc 0 ShaderCache::createShader(std::__ndk1::basic_string<char, std::__ndk1::char_traits<char>, std::__ndk1::allocator<char> >, std::__ndk1::basic_string<char, std::__ndk1::char_traits<char>, std::__ndk1::allocator<char> >)
PUBLIC 1d5bc 0 ShaderCache::get()
PUBLIC 1d68c 0 __cxx_global_var_init.2
PUBLIC 1db0c 0 geode::modifier::ModifyBase<geode::modifier::ModifyDerive<MySetupPulsePopup, SetupPulsePopup> >::~ModifyBase()
PUBLIC 1db28 0 geode::modifier::ModifyDerive<MySetupPulsePopup, SetupPulsePopup>::apply()
PUBLIC 1e478 0 geode::modifier::ModifyBase<geode::modifier::ModifyDerive<MySetupPulsePopup, SetupPulsePopup> >::apply()
PUBLIC 1e47c 0 geode::modifier::AsStaticFunction_textChanged<MySetupPulsePopup, void (MySetupPulsePopup::*)(CCTextInputNode*)>::Impl<void (MySetupPulsePopup::*)(CCTextInputNode*)>::function(MySetupPulsePopup*, CCTextInputNode*)
PUBLIC 1e508 0 geode::modifier::AsStaticFunction_init<MySetupPulsePopup, bool (MySetupPulsePopup::*)(EffectGameObject*, cocos2d::CCArray*)>::Impl<bool (MySetupPulsePopup::*)(EffectGameObject*, cocos2d::CCArray*)>::function(MySetupPulsePopup*, EffectGameObject*, cocos2d::CCArray*)
PUBLIC 1e8e8 0 geode::modifier::AsStaticFunction_onSelectPulseMode<MySetupPulsePopup, void (MySetupPulsePopup::*)(cocos2d::CCObject*)>::Impl<void (MySetupPulsePopup::*)(cocos2d::CCObject*)>::function(MySetupPulsePopup*, cocos2d::CCObject*)
PUBLIC 1ea0c 0 geode::addresser::Addresser::addressOfVirtual<void, SetupPulsePopup, CCTextInputNode*>(void (SetupPulsePopup::*)(CCTextInputNode*))
PUBLIC 1eab4 0 SetupPulsePopup::SetupPulsePopup(geode::ZeroConstructorType)
PUBLIC 1eb74 0 geode::modifier::FieldIntermediate<MySetupPulsePopup, SetupPulsePopup>::self()
PUBLIC 1ed04 0 geode::modifier::FieldIntermediate<MySetupPulsePopup, SetupPulsePopup>::fieldDestructor(void*)
PUBLIC 1ed08 0 MySetupPulsePopup::updatePickerPositions()
PUBLIC 1ee2c 0 MySetupPulsePopup::onPickerToggle(cocos2d::CCObject*)
PUBLIC 1eec0 0 MySetupPulsePopup::onBetterPaste(cocos2d::CCObject*)
PUBLIC 1ef00 0 std::__ndk1::__function::__func<MySetupPulsePopup::init(EffectGameObject*, cocos2d::CCArray*)::{lambda(cocos2d::_ccColor3B)#1}, std::__ndk1::allocator<MySetupPulsePopup::init(EffectGameObject*, cocos2d::CCArray*)::{lambda(cocos2d::_ccColor3B)#1}>, void (cocos2d::_ccColor3B)>::~__func()
PUBLIC 1ef04 0 std::__ndk1::__function::__func<MySetupPulsePopup::init(EffectGameObject*, cocos2d::CCArray*)::{lambda(cocos2d::_ccColor3B)#1}, std::__ndk1::allocator<MySetupPulsePopup::init(EffectGameObject*, cocos2d::CCArray*)::{lambda(cocos2d::_ccColor3B)#1}>, void (cocos2d::_ccColor3B)>::__clone() const
PUBLIC 1ef38 0 std::__ndk1::__function::__func<MySetupPulsePopup::init(EffectGameObject*, cocos2d::CCArray*)::{lambda(cocos2d::_ccColor3B)#1}, std::__ndk1::allocator<MySetupPulsePopup::init(EffectGameObject*, cocos2d::CCArray*)::{lambda(cocos2d::_ccColor3B)#1}>, void (cocos2d::_ccColor3B)>::__clone(std::__ndk1::__function::__base<void (cocos2d::_ccColor3B)>*) const
PUBLIC 1ef4c 0 std::__ndk1::__function::__func<MySetupPulsePopup::init(EffectGameObject*, cocos2d::CCArray*)::{lambda(cocos2d::_ccColor3B)#1}, std::__ndk1::allocator<MySetupPulsePopup::init(EffectGameObject*, cocos2d::CCArray*)::{lambda(cocos2d::_ccColor3B)#1}>, void (cocos2d::_ccColor3B)>::destroy()
PUBLIC 1ef50 0 std::__ndk1::__function::__func<MySetupPulsePopup::init(EffectGameObject*, cocos2d::CCArray*)::{lambda(cocos2d::_ccColor3B)#1}, std::__ndk1::allocator<MySetupPulsePopup::init(EffectGameObject*, cocos2d::CCArray*)::{lambda(cocos2d::_ccColor3B)#1}>, void (cocos2d::_ccColor3B)>::destroy_deallocate()
PUBLIC 1ef54 0 std::__ndk1::__function::__func<MySetupPulsePopup::init(EffectGameObject*, cocos2d::CCArray*)::{lambda(cocos2d::_ccColor3B)#1}, std::__ndk1::allocator<MySetupPulsePopup::init(EffectGameObject*, cocos2d::CCArray*)::{lambda(cocos2d::_ccColor3B)#1}>, void (cocos2d::_ccColor3B)>::operator()(cocos2d::_ccColor3B&&)
PUBLIC 1efbc 0 std::__ndk1::__function::__func<MySetupPulsePopup::init(EffectGameObject*, cocos2d::CCArray*)::{lambda(cocos2d::_ccColor3B)#1}, std::__ndk1::allocator<MySetupPulsePopup::init(EffectGameObject*, cocos2d::CCArray*)::{lambda(cocos2d::_ccColor3B)#1}>, void (cocos2d::_ccColor3B)>::target(std::type_info const&) const
PUBLIC 1efd8 0 std::__ndk1::__function::__func<MySetupPulsePopup::init(EffectGameObject*, cocos2d::CCArray*)::{lambda(cocos2d::_ccColor3B)#1}, std::__ndk1::allocator<MySetupPulsePopup::init(EffectGameObject*, cocos2d::CCArray*)::{lambda(cocos2d::_ccColor3B)#1}>, void (cocos2d::_ccColor3B)>::target_type() const
PUBLIC m 1efe4 0 geodeImplicitEntry
PUBLIC 1f020 0 std::__ndk1::unordered_map<void*, bool, std::__ndk1::hash<void*>, std::__ndk1::equal_to<void*>, std::__ndk1::allocator<std::__ndk1::pair<void* const, bool> > >::~unordered_map[abi:ne180000]()
PUBLIC 1f06c 0 wrapFunction(unsigned long, tulip::hook::WrapperMetadata const&)
PUBLIC 1f1a0 0 geode::impl::ResultData<void*, std::__ndk1::basic_string<char, std::__ndk1::char_traits<char>, std::__ndk1::allocator<char> > >::unwrapErr() &
PUBLIC 1f218 0 geode::impl::ResultData<void*, std::__ndk1::basic_string<char, std::__ndk1::char_traits<char>, std::__ndk1::allocator<char> > >::~ResultData()
PUBLIC 1f28c 0 tulip::hook::WrapperMetadata::~WrapperMetadata()
PUBLIC 1f2f0 0 cocos2d::CCObject::~CCObject()
PUBLIC 1f314 0 cocos2d::CCNode::~CCNode()
PUBLIC 1f338 0 cocos2d::CCGLProgram::~CCGLProgram()
PUBLIC 1f5a8 0 cocos2d::CCGLProgram::~CCGLProgram()
PUBLIC 1f5cc 0 cocos2d::CCGLProgram::CCGLProgram()
PUBLIC 1f7f8 0 {virtual override thunk({offset(-320)}, cocos2d::CCLayer::~CCLayer())}
PUBLIC 1f800 0 cocos2d::CCLayer::~CCLayer()
PUBLIC 1f824 0 {virtual override thunk({offset(-320)}, cocos2d::CCLayer::~CCLayer())}
PUBLIC 1f84c 0 cocos2d::CCLayerRGBA::~CCLayerRGBA()
PUBLIC 1fb4c 0 {virtual override thunk({offset(-320)}, cocos2d::CCLayerRGBA::~CCLayerRGBA())}
PUBLIC 1fb54 0 cocos2d::CCLayerRGBA::~CCLayerRGBA()
PUBLIC 1fb78 0 {virtual override thunk({offset(-320)}, cocos2d::CCLayerRGBA::~CCLayerRGBA())}
PUBLIC 1fba0 0 cocos2d::CCDictionary::setObject(cocos2d::CCObject*, gd::string const&)
PUBLIC 1fd00 0 tulip::hook::AbstractFunction::from<void, cocos2d::CCDictionary*, cocos2d::CCObject*, gd::string const&>(void (*)(cocos2d::CCDictionary*, cocos2d::CCObject*, gd::string const&))
PUBLIC 1fe08 0 cocos2d::CCDictionary::objectForKey(gd::string const&)
PUBLIC 1ff58 0 tulip::hook::AbstractFunction::from<cocos2d::CCObject*, cocos2d::CCDictionary*, gd::string const&>(cocos2d::CCObject* (*)(cocos2d::CCDictionary*, gd::string const&))
PUBLIC 20000 0 cocos2d::extension::CCControl::CCControl()
PUBLIC 202a8 0 cocos2d::extension::CCControl::~CCControl()
PUBLIC 205d0 0 CCMenuItemToggler::createWithStandardSprites(cocos2d::CCObject*, void (cocos2d::CCObject::*)(cocos2d::CCObject*), float)
PUBLIC 207c8 0 cocos2d::CCObject::update(float)
PUBLIC 207cc 0 cocos2d::CCLayerRGBA::setOpacityModifyRGB(bool)
PUBLIC 207d0 0 cocos2d::CCLayerRGBA::isOpacityModifyRGB()
PUBLIC 207d8 0 {virtual override thunk({offset(-408)}, cocos2d::CCLayerRGBA::setOpacityModifyRGB(bool))}
PUBLIC 207dc 0 {virtual override thunk({offset(-408)}, cocos2d::CCLayerRGBA::isOpacityModifyRGB())}
PUBLIC 207e4 0 cocos2d::CCNode::~CCNode()
PUBLIC 20a84 0 cocos2d::CCLayer::~CCLayer()
PUBLIC 20d74 0 cocos2d::CCObject::~CCObject()
PUBLIC 21268 0 _ZN5geode15UnwrapExceptionC2IRPvQsr4implE18IsStringStreamableIT_EEENS_4impl5OkTagEOS4_
PUBLIC 213bc 0 _ZN5geode15UnwrapExceptionC2IRNSt6__ndk112basic_stringIcNS2_11char_traitsIcEENS2_9allocatorIcEEEEQsr4implE18IsStringStreamableIT_EEENS_4impl6ErrTagEOSA_
PUBLIC 21524 0 std::__ndk1::__variant_detail::__visitation::__base::__dispatcher<(unsigned long)0>::__dispatch[abi:ne180000]<std::__ndk1::__variant_detail::__dtor<std::__ndk1::__variant_detail::__traits<void*, std::__ndk1::basic_string<char, std::__ndk1::char_traits<char>, std::__ndk1::allocator<char> > >, (std::__ndk1::__variant_detail::_Trait)1>::__destroy[abi:ne180000]()::{lambda(auto:1&)#1}, std::__ndk1::__variant_detail::__base<(std::__ndk1::__variant_detail::__traits<void*, std::__ndk1::basic_string<char, std::__ndk1::char_traits<char>, std::__ndk1::allocator<char> > >)1, std::__ndk1::__variant_detail::__traits, std::__ndk1::allocator<char> >&>(std::__ndk1::__variant_detail::__dtor<std::__ndk1::__variant_detail::__traits<void*, std::__ndk1::basic_string<char, std::__ndk1::char_traits<char>, std::__ndk1::allocator<char> > >, (std::__ndk1::__variant_detail::_Trait)1>, std::__ndk1::__variant_detail::__base<(std::__ndk1::__variant_detail::__traits<void*, std::__ndk1::basic_string<char, std::__ndk1::char_traits<char>, std::__ndk1::allocator<char> > >)1, std::__ndk1::__variant_detail::__traits, std::__ndk1::allocator<char> >&)
PUBLIC 21528 0 std::__ndk1::__variant_detail::__visitation::__base::__dispatcher<(unsigned long)1>::__dispatch[abi:ne180000]<std::__ndk1::__variant_detail::__dtor<std::__ndk1::__variant_detail::__traits<void*, std::__ndk1::basic_string<char, std::__ndk1::char_traits<char>, std::__ndk1::allocator<char> > >, (std::__ndk1::__variant_detail::_Trait)1>::__destroy[abi:ne180000]()::{lambda(auto:1&)#1}, std::__ndk1::__variant_detail::__base<(std::__ndk1::__variant_detail::__traits<void*, std::__ndk1::basic_string<char, std::__ndk1::char_traits<char>, std::__ndk1::allocator<char> > >)1, std::__ndk1::__variant_detail::__traits, std::__ndk1::allocator<char> >&>(std::__ndk1::__variant_detail::__dtor<std::__ndk1::__variant_detail::__traits<void*, std::__ndk1::basic_string<char, std::__ndk1::char_traits<char>, std::__ndk1::allocator<char> > >, (std::__ndk1::__variant_detail::_Trait)1>, std::__ndk1::__variant_detail::__base<(std::__ndk1::__variant_detail::__traits<void*, std::__ndk1::basic_string<char, std::__ndk1::char_traits<char>, std::__ndk1::allocator<char> > >)1, std::__ndk1::__variant_detail::__traits, std::__ndk1::allocator<char> >&)
PUBLIC 2153c 0 gd::map<int, int>::erase(geode::stl::_rb_tree_node<std::__ndk1::pair<int, int> >*)
PUBLIC 21588 0 std::__ndk1::__hash_table<std::__ndk1::__hash_value_type<void*, bool>, std::__ndk1::__unordered_map_hasher<void*, std::__ndk1::__hash_value_type<void*, bool>, std::__ndk1::hash<void*>, std::__ndk1::equal_to<void*>, true>, std::__ndk1::__unordered_map_equal<void*, std::__ndk1::__hash_value_type<void*, bool>, std::__ndk1::equal_to<void*>, std::__ndk1::hash<void*>, true>, std::__ndk1::allocator<std::__ndk1::__hash_value_type<void*, bool> > >::__emplace_unique_key_args<void*, std::__ndk1::piecewise_construct_t const&, std::__ndk1::tuple<void* const&>, std::__ndk1::tuple<> >(void* const&, std::__ndk1::piecewise_construct_t const&, std::__ndk1::tuple<void* const&>, std::__ndk1::tuple<>)
PUBLIC 21aa0 0 <.plt ELF section in anatom3000.bettercolorpicker.android64.so>
STACK CFI INIT 126e0 10 .cfa: sp 0 +
STACK CFI INIT 126f0 8 .cfa: sp 0 +
STACK CFI INIT 126f8 8 .cfa: sp 0 +
STACK CFI INIT 12700 14 .cfa: sp 0 +
STACK CFI INIT 12714 1c .cfa: sp 0 +
STACK CFI INIT 12730 10 .cfa: sp 0 +
STACK CFI INIT 12740 134 .cfa: sp 0 +
STACK CFI INIT 12874 84 .cfa: sp 0 +
STACK CFI INIT 128f8 f4 .cfa: sp 0 +
STACK CFI INIT 129ec a8 .cfa: sp 0 +
STACK CFI INIT 12a94 7c .cfa: sp 0 +
STACK CFI INIT 12b10 14 .cfa: sp 0 +
STACK CFI INIT 12b24 40 .cfa: sp 0 +
STACK CFI INIT 12b64 28 .cfa: sp 0 +
STACK CFI INIT 12b8c 190 .cfa: sp 0 +
STACK CFI INIT 12d1c 2c8 .cfa: sp 0 +
STACK CFI INIT 12fe4 8 .cfa: sp 0 +
STACK CFI INIT 12fec 8 .cfa: sp 0 +
STACK CFI INIT 12ff4 44 .cfa: sp 0 +
STACK CFI INIT 13038 e8 .cfa: sp 0 +
STACK CFI INIT 13120 e8 .cfa: sp 0 +
STACK CFI INIT 13208 14 .cfa: sp 0 +
STACK CFI INIT 1321c 10 .cfa: sp 0 +
STACK CFI INIT 1322c 10 .cfa: sp 0 +
STACK CFI INIT 1323c f0 .cfa: sp 0 +
STACK CFI INIT 1332c 44 .cfa: sp 0 +
STACK CFI INIT 13370 c .cfa: sp 0 +
STACK CFI INIT 1337c c .cfa: sp 0 +
STACK CFI INIT 13388 2c .cfa: sp 0 +
STACK CFI INIT 133b4 280 .cfa: sp 0 +
STACK CFI INIT 13634 c .cfa: sp 0 +
STACK CFI INIT 13640 120 .cfa: sp 0 +
STACK CFI INIT 13760 488 .cfa: sp 0 +
STACK CFI INIT 13be8 c48 .cfa: sp 0 +
STACK CFI INIT 14830 134 .cfa: sp 0 +
STACK CFI INIT 14964 210 .cfa: sp 0 +
STACK CFI INIT 14b74 38c .cfa: sp 0 +
STACK CFI INIT 14f00 1c8 .cfa: sp 0 +
STACK CFI INIT 150c8 9bc .cfa: sp 0 +
STACK CFI INIT 15a84 2d4 .cfa: sp 0 +
STACK CFI INIT 15d58 134 .cfa: sp 0 +
STACK CFI INIT 15e8c 120 .cfa: sp 0 +
STACK CFI INIT 15fac 1c8 .cfa: sp 0 +
STACK CFI INIT 16174 168 .cfa: sp 0 +
STACK CFI INIT 162dc fc .cfa: sp 0 +
STACK CFI INIT 163d8 30 .cfa: sp 0 +
STACK CFI INIT 16540 30 .cfa: sp 0 +
STACK CFI INIT 16570 98 .cfa: sp 0 +
STACK CFI INIT 16608 59c .cfa: sp 0 +
STACK CFI INIT 16ba4 8c .cfa: sp 0 +
STACK CFI INIT 16c30 30 .cfa: sp 0 +
STACK CFI INIT 16c60 54 .cfa: sp 0 +
STACK CFI 16c64 .cfa: sp 16 +
STACK CFI 16c68 .cfa: x29 16 + .ra: .cfa -8 + ^ x29: .cfa -16 + ^
STACK CFI 16ca4 .cfa: sp 16 +
STACK CFI 16ca8 .cfa: sp 0 +
STACK CFI 16cac .cfa: sp 16 +
STACK CFI 16cb0 .cfa: sp 0 +
STACK CFI INIT 16cb4 54 .cfa: sp 0 +
STACK CFI 16cb8 .cfa: sp 16 +
STACK CFI 16cbc .cfa: x29 16 + .ra: .cfa -8 + ^ x29: .cfa -16 + ^
STACK CFI 16cf8 .cfa: sp 16 +
STACK CFI 16cfc .cfa: sp 0 +
STACK CFI 16d00 .cfa: sp 16 +
STACK CFI 16d04 .cfa: sp 0 +
STACK CFI INIT 1742c f8 .cfa: sp 0 +
STACK CFI 17430 .cfa: sp 64 +
STACK CFI 17440 .cfa: x29 48 + x19: .cfa -8 + ^ x20: .cfa -16 + ^ x21: .cfa -32 + ^ .ra: .cfa -40 + ^ x29: .cfa -48 + ^
STACK CFI 174f8 .cfa: sp 64 +
STACK CFI 17508 .cfa: sp 0 +
STACK CFI 1750c .cfa: x29 48 +
STACK CFI INIT 17524 1e8 .cfa: sp 0 +
STACK CFI 17528 .cfa: sp 144 +
STACK CFI 17540 .cfa: x29 56 + x19: .cfa -8 + ^ x20: .cfa -16 + ^ x21: .cfa -24 + ^ x22: .cfa -32 + ^ x23: .cfa -40 + ^ .ra: .cfa -48 + ^ x29: .cfa -56 + ^ v8: .cfa -64 + ^
STACK CFI 176ec .cfa: sp 144 +
STACK CFI 17704 .cfa: sp 0 +
STACK CFI 17708 .cfa: x29 56 +
STACK CFI INIT 1770c 3a0 .cfa: sp 0 +
STACK CFI 17710 .cfa: sp 48 +
STACK CFI 1771c .cfa: x29 32 + x19: .cfa -8 + ^ x20: .cfa -16 + ^ .ra: .cfa -24 + ^ x29: .cfa -32 + ^
STACK CFI 17a98 .cfa: sp 48 +
STACK CFI 17aa4 .cfa: sp 0 +
STACK CFI 17aa8 .cfa: x29 32 +
STACK CFI INIT 17aac 254 .cfa: sp 0 +
STACK CFI 17ab0 .cfa: sp 144 +
STACK CFI 17ac8 .cfa: x29 48 + x19: .cfa -8 + ^ x20: .cfa -16 + ^ x21: .cfa -24 + ^ x22: .cfa -32 + ^ .ra: .cfa -40 + ^ x29: .cfa -48 + ^ v8: .cfa -56 + ^ v9: .cfa -64 + ^ v10: .cfa -80 + ^
STACK CFI 17c68 .cfa: sp 144 +
STACK CFI 17c80 .cfa: sp 0 +
STACK CFI 17c84 .cfa: x29 48 +
STACK CFI INIT 17d00 8 .cfa: sp 0 +
STACK CFI INIT 17d08 128 .cfa: sp 0 +
STACK CFI 17d0c .cfa: sp 128 +
STACK CFI 17d20 .cfa: x29 48 + x19: .cfa -8 + ^ x20: .cfa -16 + ^ x21: .cfa -24 + ^ x22: .cfa -32 + ^ .ra: .cfa -40 + ^ x29: .cfa -48 + ^ v8: .cfa -56 + ^ v9: .cfa -64 + ^
STACK CFI 17df4 .cfa: sp 128 +
STACK CFI 17e08 .cfa: sp 0 +
STACK CFI 17e0c .cfa: x29 48 +
STACK CFI INIT 17e30 8 .cfa: sp 0 +
STACK CFI INIT 17e38 8 .cfa: sp 0 +
STACK CFI INIT 17e40 8 .cfa: sp 0 +
STACK CFI INIT 17e48 2c .cfa: sp 0 +
STACK CFI 17e4c .cfa: sp 32 +
STACK CFI 17e54 .cfa: x29 32 + x19: .cfa -16 + ^ .ra: .cfa -24 + ^ x29: .cfa -32 + ^
STACK CFI 17e68 .cfa: sp 32 +
STACK CFI 17e70 .cfa: sp 0 +
STACK CFI INIT 18674 80 .cfa: sp 0 +
STACK CFI 18678 .cfa: sp 48 +
STACK CFI 18684 .cfa: x29 48 + x19: .cfa -8 + ^ x20: .cfa -16 + ^ x21: .cfa -32 + ^ .ra: .cfa -40 + ^ x29: .cfa -48 + ^
STACK CFI 186e4 .cfa: sp 48 +
STACK CFI 186f0 .cfa: sp 0 +
STACK CFI INIT 186f4 50 .cfa: sp 0 +
STACK CFI 186f8 .cfa: sp 32 +
STACK CFI 18700 .cfa: x29 32 + x19: .cfa -8 + ^ x20: .cfa -16 + ^ .ra: .cfa -24 + ^ x29: .cfa -32 + ^
STACK CFI 18738 .cfa: sp 32 +
STACK CFI 18740 .cfa: sp 0 +
STACK CFI INIT 18744 4 .cfa: sp 0 +
STACK CFI INIT 18748 8 .cfa: sp 0 +
STACK CFI INIT 18814 24 .cfa: sp 0 +
STACK CFI 18818 .cfa: sp 32 +
STACK CFI 18820 .cfa: x29 32 + x19: .cfa -16 + ^ .ra: .cfa -24 + ^ x29: .cfa -32 + ^
STACK CFI 1882c .cfa: sp 32 +
STACK CFI 18834 .cfa: sp 0 +
STACK CFI INIT 18838 8 .cfa: sp 0 +
STACK CFI INIT 18840 28 .cfa: sp 0 +
STACK CFI 18844 .cfa: sp 32 +
STACK CFI 1884c .cfa: x29 32 + x19: .cfa -16 + ^ .ra: .cfa -24 + ^ x29: .cfa -32 + ^
STACK CFI 1885c .cfa: sp 32 +
STACK CFI 18864 .cfa: sp 0 +
STACK CFI INIT 18868 4 .cfa: sp 0 +
STACK CFI INIT 1886c 4 .cfa: sp 0 +
STACK CFI INIT 18870 4 .cfa: sp 0 +
STACK CFI INIT 18874 4 .cfa: sp 0 +
STACK CFI INIT 18cf8 1c .cfa: sp 0 +
STACK CFI INIT 18d34 10 .cfa: sp 0 +
STACK CFI 18d38 .cfa: sp 16 +
STACK CFI 18d3c .cfa: x29 16 + .ra: .cfa -8 + ^ x29: .cfa -16 + ^
STACK CFI INIT 18d44 14 .cfa: sp 0 +
STACK CFI 18d48 .cfa: sp 16 +
STACK CFI 18d4c .cfa: x29 16 + .ra: .cfa -8 + ^ x29: .cfa -16 + ^
STACK CFI INIT 18da8 30 .cfa: sp 0 +
STACK CFI 18dac .cfa: sp 32 +
STACK CFI 18db4 .cfa: x29 32 + x19: .cfa -16 + ^ .ra: .cfa -24 + ^ x29: .cfa -32 + ^
STACK CFI 18dcc .cfa: sp 32 +
STACK CFI 18dd4 .cfa: sp 0 +
STACK CFI INIT 18dd8 34 .cfa: sp 0 +
STACK CFI 18ddc .cfa: sp 32 +
STACK CFI 18de4 .cfa: x29 32 + x19: .cfa -16 + ^ .ra: .cfa -24 + ^ x29: .cfa -32 + ^
STACK CFI INIT 18e0c ac .cfa: sp 0 +
STACK CFI 18e10 .cfa: sp 64 +
STACK CFI 18e20 .cfa: x29 64 + x19: .cfa -8 + ^ x20: .cfa -16 + ^ x21: .cfa -24 + ^ x22: .cfa -32 + ^ x23: .cfa -48 + ^ .ra: .cfa -56 + ^ x29: .cfa -64 + ^
STACK CFI 18e9c .cfa: sp 64 +
STACK CFI 18eac .cfa: sp 0 +
STACK CFI 18eb0 .cfa: x29 64 +
STACK CFI INIT 18eb8 110 .cfa: sp 0 +
STACK CFI 18ebc .cfa: sp 64 +
STACK CFI 18ecc .cfa: x29 64 + x19: .cfa -8 + ^ x20: .cfa -16 + ^ x21: .cfa -24 + ^ x22: .cfa -32 + ^ x23: .cfa -40 + ^ x24: .cfa -48 + ^ .ra: .cfa -56 + ^ x29: .cfa -64 + ^
STACK CFI 18fac .cfa: sp 64 +
STACK CFI 18fbc .cfa: sp 0 +
STACK CFI 18fc0 .cfa: x29 64 +
STACK CFI INIT 18fc8 80 .cfa: sp 0 +
STACK CFI 18fcc .cfa: sp 48 +
STACK CFI 18fd8 .cfa: x29 48 + x19: .cfa -8 + ^ x20: .cfa -16 + ^ x21: .cfa -24 + ^ x22: .cfa -32 + ^ .ra: .cfa -40 + ^ x29: .cfa -48 + ^
STACK CFI 18ff0 .cfa: sp 48 +
STACK CFI 18ffc .cfa: sp 0 +
STACK CFI 19000 .cfa: x29 48 +
STACK CFI 19030 .cfa: sp 48 +
STACK CFI 1903c .cfa: sp 0 +
STACK CFI 19040 .cfa: x29 48 +
STACK CFI INIT 19048 34 .cfa: sp 0 +
STACK CFI 1904c .cfa: sp 16 +
STACK CFI 19050 .cfa: x29 16 + .ra: .cfa -8 + ^ x29: .cfa -16 + ^
STACK CFI INIT 1907c 24 .cfa: sp 0 +
STACK CFI 19080 .cfa: sp 32 +
STACK CFI 19088 .cfa: x29 32 + x19: .cfa -16 + ^ .ra: .cfa -24 + ^ x29: .cfa -32 + ^
STACK CFI 19094 .cfa: sp 32 +
STACK CFI 1909c .cfa: sp 0 +
STACK CFI INIT 193e0 50 .cfa: sp 0 +
STACK CFI 193e4 .cfa: sp 32 +
STACK CFI 193ec .cfa: x29 32 + x19: .cfa -16 + ^ .ra: .cfa -24 + ^ x29: .cfa -32 + ^
STACK CFI 19404 .cfa: sp 32 +
STACK CFI 1940c .cfa: sp 0 +
STACK CFI 19410 .cfa: x29 32 +
STACK CFI 19424 .cfa: sp 32 +
STACK CFI 1942c .cfa: sp 0 +
STACK CFI INIT 194a4 7c .cfa: sp 0 +
STACK CFI 194a8 .cfa: sp 48 +
STACK CFI 194b4 .cfa: x29 48 + x19: .cfa -8 + ^ x20: .cfa -16 + ^ x21: .cfa -32 + ^ .ra: .cfa -40 + ^ x29: .cfa -48 + ^
STACK CFI 19500 .cfa: sp 48 +
STACK CFI 1950c .cfa: sp 0 +
STACK CFI 19510 .cfa: sp 48 +
STACK CFI 1951c .cfa: sp 0 +
STACK CFI INIT 19520 4 .cfa: sp 0 +
STACK CFI INIT 19678 34 .cfa: sp 0 +
STACK CFI 1967c .cfa: sp 16 +
STACK CFI 19680 .cfa: x29 16 + .ra: .cfa -8 + ^ x29: .cfa -16 + ^
STACK CFI INIT 196ac 24 .cfa: sp 0 +
STACK CFI 196b0 .cfa: sp 32 +
STACK CFI 196b8 .cfa: x29 32 + x19: .cfa -16 + ^ .ra: .cfa -24 + ^ x29: .cfa -32 + ^
STACK CFI 196c4 .cfa: sp 32 +
STACK CFI 196cc .cfa: sp 0 +
STACK CFI INIT 19bc8 148 .cfa: sp 0 +
STACK CFI 19bcc .cfa: sp 48 +
STACK CFI 19bd8 .cfa: x29 48 + x19: .cfa -8 + ^ x20: .cfa -16 + ^ x21: .cfa -32 + ^ .ra: .cfa -40 + ^ x29: .cfa -48 + ^
STACK CFI 19d00 .cfa: sp 48 +
STACK CFI 19d0c .cfa: sp 0 +
STACK CFI INIT 19f38 68 .cfa: sp 0 +
STACK CFI 19f3c .cfa: sp 32 +
STACK CFI 19f44 .cfa: x29 32 + x19: .cfa -8 + ^ x20: .cfa -16 + ^ .ra: .cfa -24 + ^ x29: .cfa -32 + ^
STACK CFI 19f5c .cfa: sp 32 +
STACK CFI 19f64 .cfa: sp 0 +
STACK CFI 19f68 .cfa: x29 32 +
STACK CFI 19f94 .cfa: sp 32 +
STACK CFI 19f9c .cfa: sp 0 +
STACK CFI INIT 19fa0 14 .cfa: sp 0 +
STACK CFI 19fa4 .cfa: sp 16 +
STACK CFI 19fa8 .cfa: x29 16 + .ra: .cfa -8 + ^ x29: .cfa -16 + ^
STACK CFI INIT 19fb4 4 .cfa: sp 0 +
STACK CFI INIT 19fb8 14 .cfa: sp 0 +
STACK CFI INIT 19fcc 120 .cfa: sp 0 +
STACK CFI 19fd0 .cfa: sp 64 +
STACK CFI 19fe0 .cfa: x29 64 + x19: .cfa -8 + ^ x20: .cfa -16 + ^ x21: .cfa -24 + ^ x22: .cfa -32 + ^ x23: .cfa -40 + ^ x24: .cfa -48 + ^ .ra: .cfa -56 + ^ x29: .cfa -64 + ^
STACK CFI 1a0d8 .cfa: sp 64 +
STACK CFI 1a0e8 .cfa: sp 0 +
STACK CFI INIT 1a0ec d4 .cfa: sp 0 +
STACK CFI 1a0f0 .cfa: sp 48 +
STACK CFI 1a0fc .cfa: x29 48 + x19: .cfa -8 + ^ x20: .cfa -16 + ^ x21: .cfa -32 + ^ .ra: .cfa -40 + ^ x29: .cfa -48 + ^
STACK CFI 1a18c .cfa: sp 48 +
STACK CFI 1a198 .cfa: sp 0 +
STACK CFI 1a19c .cfa: x29 48 +
STACK CFI INIT 1a1c0 3c8 .cfa: sp 0 +
STACK CFI INIT 1a588 8c .cfa: sp 0 +
STACK CFI 1a590 .cfa: sp 32 +
STACK CFI 1a598 .cfa: x29 32 + x19: .cfa -8 + ^ x20: .cfa -16 + ^ .ra: .cfa -24 + ^ x29: .cfa -32 + ^
STACK CFI 1a5e0 .cfa: sp 32 +
STACK CFI 1a5e8 .cfa: sp 0 +
STACK CFI 1a5f0 .cfa: x29 32 +
STACK CFI INIT 1a6f4 50 .cfa: sp 0 +
STACK CFI 1a6f8 .cfa: sp 32 +
STACK CFI 1a700 .cfa: x29 32 + x19: .cfa -16 + ^ .ra: .cfa -24 + ^ x29: .cfa -32 + ^
STACK CFI 1a718 .cfa: sp 32 +
STACK CFI 1a720 .cfa: sp 0 +
STACK CFI 1a724 .cfa: x29 32 +
STACK CFI 1a738 .cfa: sp 32 +
STACK CFI 1a740 .cfa: sp 0 +
STACK CFI INIT 1a744 64 .cfa: sp 0 +
STACK CFI 1a748 .cfa: sp 32 +
STACK CFI 1a750 .cfa: x29 32 + x19: .cfa -16 + ^ .ra: .cfa -24 + ^ x29: .cfa -32 + ^
STACK CFI 1a77c .cfa: sp 32 +
STACK CFI 1a784 .cfa: sp 0 +
STACK CFI 1a788 .cfa: x29 32 +
STACK CFI 1a79c .cfa: sp 32 +
STACK CFI 1a7a4 .cfa: sp 0 +
STACK CFI INIT 1a7a8 178 .cfa: sp 0 +
STACK CFI 1a7ac .cfa: sp 80 +
STACK CFI 1a7c0 .cfa: x29 80 + x19: .cfa -8 + ^ x20: .cfa -16 + ^ x21: .cfa -24 + ^ x22: .cfa -32 + ^ x23: .cfa -40 + ^ x24: .cfa -48 + ^ x25: .cfa -56 + ^ x26: .cfa -64 + ^ .ra: .cfa -72 + ^ x29: .cfa -80 + ^
STACK CFI 1a908 .cfa: sp 80 +
STACK CFI 1a91c .cfa: sp 0 +
STACK CFI INIT 1a920 1b0 .cfa: sp 0 +
STACK CFI INIT 1aad0 4 .cfa: sp 0 +
STACK CFI INIT 1ac48 5c .cfa: sp 0 +
STACK CFI 1ac4c .cfa: sp 32 +
STACK CFI 1ac54 .cfa: x29 32 + x19: .cfa -16 + ^ .ra: .cfa -24 + ^ x29: .cfa -32 + ^
STACK CFI 1ac98 .cfa: sp 32 +
STACK CFI 1aca0 .cfa: sp 0 +
STACK CFI INIT 1aca4 64 .cfa: sp 0 +
STACK CFI 1aca8 .cfa: sp 32 +
STACK CFI 1acb0 .cfa: x29 32 + x19: .cfa -16 + ^ .ra: .cfa -24 + ^ x29: .cfa -32 + ^
STACK CFI 1acfc .cfa: sp 32 +
STACK CFI 1ad04 .cfa: sp 0 +
STACK CFI INIT 1ad08 4 .cfa: sp 0 +
STACK CFI INIT 1ad0c 4 .cfa: sp 0 +
STACK CFI INIT 1ad10 34 .cfa: sp 0 +
STACK CFI 1ad14 .cfa: sp 32 +
STACK CFI 1ad1c .cfa: x29 32 + x19: .cfa -16 + ^ .ra: .cfa -24 + ^ x29: .cfa -32 + ^
STACK CFI 1ad38 .cfa: sp 32 +
STACK CFI 1ad40 .cfa: sp 0 +
STACK CFI INIT 1ad44 14 .cfa: sp 0 +
STACK CFI INIT 1ad58 4 .cfa: sp 0 +
STACK CFI INIT 1ad5c 4 .cfa: sp 0 +
STACK CFI INIT 1ad60 10 .cfa: sp 0 +
STACK CFI INIT 1ad70 1c .cfa: sp 0 +
STACK CFI INIT 1ad8c c .cfa: sp 0 +
STACK CFI INIT 1ad98 104 .cfa: sp 0 +
STACK CFI 1ad9c .cfa: sp 64 +
STACK CFI 1adac .cfa: x29 64 + x19: .cfa -8 + ^ x20: .cfa -16 + ^ x21: .cfa -24 + ^ x22: .cfa -32 + ^ x23: .cfa -48 + ^ .ra: .cfa -56 + ^ x29: .cfa -64 + ^
STACK CFI 1ae08 .cfa: sp 64 +
STACK CFI 1ae18 .cfa: sp 0 +
STACK CFI 1ae1c .cfa: x29 64 +
STACK CFI 1ae38 .cfa: sp 64 +
STACK CFI 1ae48 .cfa: sp 0 +
STACK CFI 1ae4c .cfa: x29 64 +
STACK CFI 1ae88 .cfa: sp 64 +
STACK CFI 1ae98 .cfa: sp 0 +
STACK CFI INIT 1b448 1c .cfa: sp 0 +
STACK CFI INIT 1bdb4 4 .cfa: sp 0 +
STACK CFI INIT 1bdb8 8c .cfa: sp 0 +
STACK CFI 1bdbc .cfa: sp 32 +
STACK CFI 1bdc4 .cfa: x29 32 + x19: .cfa -8 + ^ x20: .cfa -16 + ^ .ra: .cfa -24 + ^ x29: .cfa -32 + ^
STACK CFI 1be2c .cfa: sp 32 +
STACK CFI 1be34 .cfa: sp 0 +
STACK CFI 1be38 .cfa: sp 32 +
STACK CFI 1be40 .cfa: sp 0 +
STACK CFI INIT 1c254 94 .cfa: sp 0 +
STACK CFI 1c258 .cfa: sp 32 +
STACK CFI 1c260 .cfa: x29 32 + x19: .cfa -8 + ^ x20: .cfa -16 + ^ .ra: .cfa -24 + ^ x29: .cfa -32 + ^
STACK CFI 1c2dc .cfa: sp 32 +
STACK CFI 1c2e4 .cfa: sp 0 +
STACK CFI INIT 1c390 c0 .cfa: sp 0 +
STACK CFI 1c394 .cfa: sp 32 +
STACK CFI 1c39c .cfa: x29 32 + x19: .cfa -16 + ^ .ra: .cfa -24 + ^ x29: .cfa -32 + ^
STACK CFI 1c444 .cfa: sp 32 +
STACK CFI 1c44c .cfa: sp 0 +
STACK CFI INIT 1c9ac 4 .cfa: sp 0 +
STACK CFI INIT 1c9b0 14 .cfa: sp 0 +
STACK CFI 1c9b4 .cfa: sp 16 +
STACK CFI 1c9b8 .cfa: x29 16 + .ra: .cfa -8 + ^ x29: .cfa -16 + ^
STACK CFI INIT 1cbf0 14 .cfa: sp 0 +
STACK CFI 1cbf4 .cfa: sp 16 +
STACK CFI 1cbf8 .cfa: x29 16 + .ra: .cfa -8 + ^ x29: .cfa -16 + ^
STACK CFI INIT 1cc04 14 .cfa: sp 0 +
STACK CFI 1cc08 .cfa: sp 16 +
STACK CFI 1cc0c .cfa: x29 16 + .ra: .cfa -8 + ^ x29: .cfa -16 + ^
STACK CFI INIT 1cc68 30 .cfa: sp 0 +
STACK CFI 1cc6c .cfa: sp 32 +
STACK CFI 1cc74 .cfa: x29 32 + x19: .cfa -16 + ^ .ra: .cfa -24 + ^ x29: .cfa -32 + ^
STACK CFI 1cc8c .cfa: sp 32 +
STACK CFI 1cc94 .cfa: sp 0 +
STACK CFI INIT 1cc98 14 .cfa: sp 0 +
STACK CFI 1cc9c .cfa: sp 16 +
STACK CFI 1cca0 .cfa: x29 16 + .ra: .cfa -8 + ^ x29: .cfa -16 + ^
STACK CFI INIT 1ccac 4 .cfa: sp 0 +
STACK CFI INIT 1ccb0 4 .cfa: sp 0 +
STACK CFI INIT 1ccb4 38 .cfa: sp 0 +
STACK CFI 1ccb8 .cfa: sp 32 +
STACK CFI 1ccc0 .cfa: x29 32 + x19: .cfa -16 + ^ .ra: .cfa -24 + ^ x29: .cfa -32 + ^
STACK CFI 1cce0 .cfa: sp 32 +
STACK CFI 1cce8 .cfa: sp 0 +
STACK CFI INIT 1ccec 18 .cfa: sp 0 +
STACK CFI INIT 1cd04 4 .cfa: sp 0 +
STACK CFI INIT 1cd08 4 .cfa: sp 0 +
STACK CFI INIT 1cd0c 10 .cfa: sp 0 +
STACK CFI INIT 1cd1c 1c .cfa: sp 0 +
STACK CFI INIT 1cd38 c .cfa: sp 0 +
STACK CFI INIT 1cd44 11c .cfa: sp 0 +
STACK CFI 1cd48 .cfa: sp 80 +
STACK CFI 1cd5c .cfa: x29 40 + x19: .cfa -8 + ^ x20: .cfa -16 + ^ x21: .cfa -24 + ^ .ra: .cfa -32 + ^ x29: .cfa -40 + ^ v8: .cfa -48 + ^
STACK CFI 1ce44 .cfa: sp 80 +
STACK CFI 1ce58 .cfa: sp 0 +
STACK CFI 1ce5c .cfa: x29 40 +
STACK CFI INIT 1ce60 94 .cfa: sp 0 +
STACK CFI 1ce64 .cfa: sp 64 +
STACK CFI 1ce74 .cfa: x29 48 + x19: .cfa -8 + ^ x20: .cfa -16 + ^ x21: .cfa -24 + ^ x22: .cfa -32 + ^ .ra: .cfa -40 + ^ x29: .cfa -48 + ^
STACK CFI 1cedc .cfa: sp 64 +
STACK CFI 1ceec .cfa: sp 0 +
STACK CFI 1cef0 .cfa: x29 48 +
STACK CFI INIT 1d028 40 .cfa: sp 0 +
STACK CFI 1d02c .cfa: sp 32 +
STACK CFI 1d034 .cfa: x29 32 + x19: .cfa -16 + ^ .ra: .cfa -24 + ^ x29: .cfa -32 + ^
STACK CFI 1d05c .cfa: sp 32 +
STACK CFI 1d064 .cfa: sp 0 +
STACK CFI INIT 1d068 40 .cfa: sp 0 +
STACK CFI 1d06c .cfa: sp 32 +
STACK CFI 1d074 .cfa: x29 32 + x19: .cfa -16 + ^ .ra: .cfa -24 + ^ x29: .cfa -32 + ^
STACK CFI 1d09c .cfa: sp 32 +
STACK CFI 1d0a4 .cfa: sp 0 +
STACK CFI INIT 1d0a8 4 .cfa: sp 0 +
STACK CFI INIT 1d0ac 4 .cfa: sp 0 +
STACK CFI INIT 1d0b0 34 .cfa: sp 0 +
STACK CFI 1d0b4 .cfa: sp 32 +
STACK CFI 1d0bc .cfa: x29 32 + x19: .cfa -16 + ^ .ra: .cfa -24 + ^ x29: .cfa -32 + ^
STACK CFI 1d0d8 .cfa: sp 32 +
STACK CFI 1d0e0 .cfa: sp 0 +
STACK CFI INIT 1d0e4 14 .cfa: sp 0 +
STACK CFI INIT 1d0f8 4 .cfa: sp 0 +
STACK CFI INIT 1d0fc 4 .cfa: sp 0 +
STACK CFI INIT 1d100 68 .cfa: sp 0 +
STACK CFI 1d104 .cfa: sp 48 +
STACK CFI 1d110 .cfa: x29 32 + x19: .cfa -16 + ^ .ra: .cfa -24 + ^ x29: .cfa -32 + ^
STACK CFI 1d154 .cfa: sp 48 +
STACK CFI 1d160 .cfa: sp 0 +
STACK CFI 1d164 .cfa: x29 32 +
STACK CFI INIT 1d168 1c .cfa: sp 0 +
STACK CFI INIT 1d184 c .cfa: sp 0 +
STACK CFI INIT 1d364 50 .cfa: sp 0 +
STACK CFI 1d368 .cfa: sp 32 +
STACK CFI 1d370 .cfa: x29 32 + x19: .cfa -16 + ^ .ra: .cfa -24 + ^ x29: .cfa -32 + ^
STACK CFI 1d388 .cfa: sp 32 +
STACK CFI 1d390 .cfa: sp 0 +
STACK CFI 1d394 .cfa: x29 32 +
STACK CFI 1d3a8 .cfa: sp 32 +
STACK CFI 1d3b0 .cfa: sp 0 +
STACK CFI INIT 1d3b4 4 .cfa: sp 0 +
STACK CFI INIT 1d3b8 14 .cfa: sp 0 +
STACK CFI INIT 1db0c 1c .cfa: sp 0 +
STACK CFI INIT 1e478 4 .cfa: sp 0 +
STACK CFI INIT 1e47c 8c .cfa: sp 0 +
STACK CFI 1e480 .cfa: sp 32 +
STACK CFI 1e488 .cfa: x29 32 + x19: .cfa -8 + ^ x20: .cfa -16 + ^ .ra: .cfa -24 + ^ x29: .cfa -32 + ^
STACK CFI 1e4f0 .cfa: sp 32 +
STACK CFI 1e4f8 .cfa: sp 0 +
STACK CFI 1e4fc .cfa: sp 32 +
STACK CFI 1e504 .cfa: sp 0 +
STACK CFI INIT 1e8e8 124 .cfa: sp 0 +
STACK CFI 1e8ec .cfa: sp 32 +
STACK CFI 1e8f4 .cfa: x29 32 + x19: .cfa -8 + ^ x20: .cfa -16 + ^ .ra: .cfa -24 + ^ x29: .cfa -32 + ^
STACK CFI 1e9f4 .cfa: sp 32 +
STACK CFI 1e9fc .cfa: sp 0 +
STACK CFI 1ea00 .cfa: sp 32 +
STACK CFI 1ea08 .cfa: sp 0 +
STACK CFI INIT 1eab4 c0 .cfa: sp 0 +
STACK CFI 1eab8 .cfa: sp 32 +
STACK CFI 1eac0 .cfa: x29 32 + x19: .cfa -16 + ^ .ra: .cfa -24 + ^ x29: .cfa -32 + ^
STACK CFI 1eb68 .cfa: sp 32 +
STACK CFI 1eb70 .cfa: sp 0 +
STACK CFI INIT 1ed04 4 .cfa: sp 0 +
STACK CFI INIT 1ed08 124 .cfa: sp 0 +
STACK CFI 1ed0c .cfa: sp 80 +
STACK CFI 1ed20 .cfa: x29 40 + x19: .cfa -8 + ^ x20: .cfa -16 + ^ x21: .cfa -24 + ^ .ra: .cfa -32 + ^ x29: .cfa -40 + ^ v8: .cfa -48 + ^
STACK CFI 1ee10 .cfa: sp 80 +
STACK CFI 1ee24 .cfa: sp 0 +
STACK CFI 1ee28 .cfa: x29 40 +
STACK CFI INIT 1ee2c 94 .cfa: sp 0 +
STACK CFI 1ee30 .cfa: sp 64 +
STACK CFI 1ee40 .cfa: x29 48 + x19: .cfa -8 + ^ x20: .cfa -16 + ^ x21: .cfa -24 + ^ x22: .cfa -32 + ^ .ra: .cfa -40 + ^ x29: .cfa -48 + ^
STACK CFI 1eea8 .cfa: sp 64 +
STACK CFI 1eeb8 .cfa: sp 0 +
STACK CFI 1eebc .cfa: x29 48 +
STACK CFI INIT 1eec0 40 .cfa: sp 0 +
STACK CFI 1eec4 .cfa: sp 32 +
STACK CFI 1eecc .cfa: x29 32 + x19: .cfa -16 + ^ .ra: .cfa -24 + ^ x29: .cfa -32 + ^
STACK CFI 1eef4 .cfa: sp 32 +
STACK CFI 1eefc .cfa: sp 0 +
STACK CFI INIT 1ef00 4 .cfa: sp 0 +
STACK CFI INIT 1ef04 34 .cfa: sp 0 +
STACK CFI 1ef08 .cfa: sp 32 +
STACK CFI 1ef10 .cfa: x29 32 + x19: .cfa -16 + ^ .ra: .cfa -24 + ^ x29: .cfa -32 + ^
STACK CFI 1ef2c .cfa: sp 32 +
STACK CFI 1ef34 .cfa: sp 0 +
STACK CFI INIT 1ef38 14 .cfa: sp 0 +
STACK CFI INIT 1ef4c 4 .cfa: sp 0 +
STACK CFI INIT 1ef50 4 .cfa: sp 0 +
STACK CFI INIT 1ef54 68 .cfa: sp 0 +
STACK CFI 1ef58 .cfa: sp 48 +
STACK CFI 1ef64 .cfa: x29 32 + x19: .cfa -16 + ^ .ra: .cfa -24 + ^ x29: .cfa -32 + ^
STACK CFI 1efa8 .cfa: sp 48 +
STACK CFI 1efb4 .cfa: sp 0 +
STACK CFI 1efb8 .cfa: x29 32 +
STACK CFI INIT 1efbc 1c .cfa: sp 0 +
STACK CFI INIT 1efd8 c .cfa: sp 0 +
STACK CFI INIT 1efe4 3c .cfa: sp 0 +
STACK CFI 1efe8 .cfa: sp 32 +
STACK CFI 1eff0 .cfa: x29 32 + x19: .cfa -16 + ^ .ra: .cfa -24 + ^ x29: .cfa -32 + ^
STACK CFI 1effc .cfa: sp 32 +
STACK CFI 1f004 .cfa: sp 0 +
STACK CFI 1f008 .cfa: x29 32 +
STACK CFI 1f014 .cfa: sp 32 +
STACK CFI 1f01c .cfa: sp 0 +
STACK CFI INIT 1f020 4c .cfa: sp 0 +
STACK CFI 1f024 .cfa: sp 32 +
STACK CFI 1f02c .cfa: x29 32 + x19: .cfa -8 + ^ x20: .cfa -16 + ^ .ra: .cfa -24 + ^ x29: .cfa -32 + ^
STACK CFI 1f054 .cfa: sp 32 +
STACK CFI 1f05c .cfa: sp 0 +
STACK CFI 1f060 .cfa: sp 32 +
STACK CFI 1f068 .cfa: sp 0 +
STACK CFI INIT 1f28c 64 .cfa: sp 0 +
STACK CFI 1f290 .cfa: sp 32 +
STACK CFI 1f298 .cfa: x29 32 + x19: .cfa -16 + ^ .ra: .cfa -24 + ^ x29: .cfa -32 + ^
STACK CFI 1f2c4 .cfa: sp 32 +
STACK CFI 1f2cc .cfa: sp 0 +
STACK CFI 1f2d0 .cfa: x29 32 +
STACK CFI 1f2e4 .cfa: sp 32 +
STACK CFI 1f2ec .cfa: sp 0 +
STACK CFI INIT 1f2f0 24 .cfa: sp 0 +
STACK CFI 1f2f4 .cfa: sp 32 +
STACK CFI 1f2fc .cfa: x29 32 + x19: .cfa -16 + ^ .ra: .cfa -24 + ^ x29: .cfa -32 + ^
STACK CFI 1f308 .cfa: sp 32 +
STACK CFI 1f310 .cfa: sp 0 +
STACK CFI INIT 1f314 24 .cfa: sp 0 +
STACK CFI 1f318 .cfa: sp 32 +
STACK CFI 1f320 .cfa: x29 32 + x19: .cfa -16 + ^ .ra: .cfa -24 + ^ x29: .cfa -32 + ^
STACK CFI 1f32c .cfa: sp 32 +
STACK CFI 1f334 .cfa: sp 0 +
STACK CFI INIT 1f5a8 24 .cfa: sp 0 +
STACK CFI 1f5ac .cfa: sp 32 +
STACK CFI 1f5b4 .cfa: x29 32 + x19: .cfa -16 + ^ .ra: .cfa -24 + ^ x29: .cfa -32 + ^
STACK CFI 1f5c0 .cfa: sp 32 +
STACK CFI 1f5c8 .cfa: sp 0 +
STACK CFI INIT 1f7f8 8 .cfa: sp 0 +
STACK CFI INIT 1f800 24 .cfa: sp 0 +
STACK CFI 1f804 .cfa: sp 32 +
STACK CFI 1f80c .cfa: x29 32 + x19: .cfa -16 + ^ .ra: .cfa -24 + ^ x29: .cfa -32 + ^
STACK CFI 1f818 .cfa: sp 32 +
STACK CFI 1f820 .cfa: sp 0 +
STACK CFI INIT 1f824 28 .cfa: sp 0 +
STACK CFI 1f828 .cfa: sp 32 +
STACK CFI 1f830 .cfa: x29 32 + x19: .cfa -16 + ^ .ra: .cfa -24 + ^ x29: .cfa -32 + ^
STACK CFI 1f840 .cfa: sp 32 +
STACK CFI 1f848 .cfa: sp 0 +
STACK CFI INIT 1fb4c 8 .cfa: sp 0 +
STACK CFI INIT 1fb54 24 .cfa: sp 0 +
STACK CFI 1fb58 .cfa: sp 32 +
STACK CFI 1fb60 .cfa: x29 32 + x19: .cfa -16 + ^ .ra: .cfa -24 + ^ x29: .cfa -32 + ^
STACK CFI 1fb6c .cfa: sp 32 +
STACK CFI 1fb74 .cfa: sp 0 +
STACK CFI INIT 1fb78 28 .cfa: sp 0 +
STACK CFI 1fb7c .cfa: sp 32 +
STACK CFI 1fb84 .cfa: x29 32 + x19: .cfa -16 + ^ .ra: .cfa -24 + ^ x29: .cfa -32 + ^
STACK CFI 1fb94 .cfa: sp 32 +
STACK CFI 1fb9c .cfa: sp 0 +
STACK CFI INIT 205d0 1f8 .cfa: sp 0 +
STACK CFI 205d4 .cfa: sp 112 +
STACK CFI 205f4 .cfa: x29 72 + x19: .cfa -8 + ^ x20: .cfa -16 + ^ x21: .cfa -24 + ^ x22: .cfa -32 + ^ x23: .cfa -40 + ^ x24: .cfa -48 + ^ x25: .cfa -56 + ^ .ra: .cfa -64 + ^ x29: .cfa -72 + ^ v8: .cfa -80 + ^ v9: .cfa -88 + ^ v10: .cfa -96 + ^
STACK CFI 207a0 .cfa: sp 112 +
STACK CFI 207c0 .cfa: sp 0 +
STACK CFI 207c4 .cfa: x29 72 +
STACK CFI INIT 207c8 4 .cfa: sp 0 +
STACK CFI INIT 207cc 4 .cfa: sp 0 +
STACK CFI INIT 207d0 8 .cfa: sp 0 +
STACK CFI INIT 207d8 4 .cfa: sp 0 +
STACK CFI INIT 207dc 8 .cfa: sp 0 +
STACK CFI INIT 21524 4 .cfa: sp 0 +
STACK CFI INIT 21528 14 .cfa: sp 0 +
STACK CFI INIT 2153c 4c .cfa: sp 0 +
STACK CFI 21544 .cfa: sp 32 +
STACK CFI 2154c .cfa: x29 32 + x19: .cfa -16 + ^ .ra: .cfa -24 + ^ x29: .cfa -32 + ^
STACK CFI 2157c .cfa: sp 32 +
STACK CFI 21584 .cfa: sp 0 +
STACK CFI INIT 16d08 1c0 .cfa: sp 0 +
STACK CFI 16d0c .cfa: sp 112 +
STACK CFI 16d1c .cfa: x29 48 + x19: .cfa -8 + ^ x20: .cfa -16 + ^ x21: .cfa -24 + ^ x22: .cfa -32 + ^ .ra: .cfa -40 + ^ x29: .cfa -48 + ^
STACK CFI 16e54 .cfa: sp 112 +
STACK CFI 16e64 .cfa: sp 0 +
STACK CFI 16e68 .cfa: x29 48 +
STACK CFI INIT 16ec8 564 .cfa: sp 0 +
STACK CFI 16ecc .cfa: sp 208 +
STACK CFI 16ee4 .cfa: x29 64 + x19: .cfa -8 + ^ x20: .cfa -16 + ^ x21: .cfa -24 + ^ x22: .cfa -32 + ^ x23: .cfa -40 + ^ x24: .cfa -48 + ^ .ra: .cfa -56 + ^ x29: .cfa -64 + ^ v8: .cfa -80 + ^
STACK CFI 173b8 .cfa: sp 208 +
STACK CFI 173d0 .cfa: sp 0 +
STACK CFI 173d4 .cfa: x29 64 +
STACK CFI INIT 17e74 6d4 .cfa: sp 0 +
STACK CFI 17e78 .cfa: sp 80 +
STACK CFI 17e8c .cfa: x29 80 + x19: .cfa -8 + ^ x20: .cfa -16 + ^ x21: .cfa -24 + ^ x22: .cfa -32 + ^ x23: .cfa -40 + ^ x24: .cfa -48 + ^ x25: .cfa -56 + ^ x28: .cfa -64 + ^ .ra: .cfa -72 + ^ x29: .cfa -80 + ^
STACK CFI 1838c .cfa: sp 80 +
STACK CFI 183a0 .cfa: sp 0 +
STACK CFI 183a4 .cfa: x29 80 +
STACK CFI INIT 18548 12c .cfa: sp 0 +
STACK CFI 1854c .cfa: sp 80 +
STACK CFI 18560 .cfa: x29 80 + x19: .cfa -8 + ^ x20: .cfa -16 + ^ x21: .cfa -24 + ^ x22: .cfa -32 + ^ x23: .cfa -40 + ^ x24: .cfa -48 + ^ x25: .cfa -56 + ^ x26: .cfa -64 + ^ .ra: .cfa -72 + ^ x29: .cfa -80 + ^
STACK CFI 18628 .cfa: sp 80 +
STACK CFI 1863c .cfa: sp 0 +
STACK CFI 18640 .cfa: x29 80 +
STACK CFI INIT 18750 c4 .cfa: sp 0 +
STACK CFI 18754 .cfa: sp 32 +
STACK CFI 1875c .cfa: x29 32 + x19: .cfa -16 + ^ .ra: .cfa -24 + ^ x29: .cfa -32 + ^
STACK CFI 187f8 .cfa: sp 32 +
STACK CFI 18800 .cfa: sp 0 +
STACK CFI 18804 .cfa: x29 32 +
STACK CFI INIT 18878 480 .cfa: sp 0 +
STACK CFI 1887c .cfa: sp 224 +
STACK CFI 18898 .cfa: x29 96 + x19: .cfa -8 + ^ x20: .cfa -16 + ^ x21: .cfa -24 + ^ x22: .cfa -32 + ^ x23: .cfa -40 + ^ x24: .cfa -48 + ^ x25: .cfa -56 + ^ x26: .cfa -64 + ^ x27: .cfa -80 + ^ .ra: .cfa -88 + ^ x29: .cfa -96 + ^
STACK CFI 18b04 .cfa: sp 224 +
STACK CFI 18b20 .cfa: sp 0 +
STACK CFI 18b24 .cfa: x29 96 +
STACK CFI 18bf0 .cfa: sp 224 +
STACK CFI 18c0c .cfa: sp 0 +
STACK CFI 18c10 .cfa: x29 96 +
STACK CFI INIT 18d14 20 .cfa: sp 0 +
STACK CFI 18d18 .cfa: sp 16 +
STACK CFI 18d1c .cfa: x29 16 + .ra: .cfa -8 + ^ x29: .cfa -16 + ^
STACK CFI 18d28 .cfa: sp 16 +
STACK CFI 18d2c .cfa: sp 0 +
STACK CFI 18d30 .cfa: x29 16 +
STACK CFI INIT 18d58 50 .cfa: sp 0 +
STACK CFI 18d5c .cfa: sp 32 +
STACK CFI 18d64 .cfa: x29 32 + x19: .cfa -8 + ^ x20: .cfa -16 + ^ .ra: .cfa -24 + ^ x29: .cfa -32 + ^
STACK CFI INIT 190a0 340 .cfa: sp 0 +
STACK CFI 190a4 .cfa: sp 240 +
STACK CFI 190b8 .cfa: x29 64 + x19: .cfa -8 + ^ x20: .cfa -16 + ^ x21: .cfa -24 + ^ x22: .cfa -32 + ^ x23: .cfa -48 + ^ .ra: .cfa -56 + ^ x29: .cfa -64 + ^
STACK CFI 192c8 .cfa: sp 240 +
STACK CFI 192dc .cfa: sp 0 +
STACK CFI 192e0 .cfa: x29 64 +
STACK CFI INIT 19430 74 .cfa: sp 0 +
STACK CFI 19434 .cfa: sp 48 +
STACK CFI 19440 .cfa: x29 32 + x19: .cfa -8 + ^ x20: .cfa -16 + ^ .ra: .cfa -24 + ^ x29: .cfa -32 + ^
STACK CFI 1948c .cfa: sp 48 +
STACK CFI 19498 .cfa: sp 0 +
STACK CFI 1949c .cfa: x29 32 +
STACK CFI INIT 19524 154 .cfa: sp 0 +
STACK CFI 19528 .cfa: sp 384 +
STACK CFI 1953c .cfa: x29 64 + x19: .cfa -8 + ^ x20: .cfa -16 + ^ x21: .cfa -24 + ^ x22: .cfa -32 + ^ x23: .cfa -40 + ^ x28: .cfa -48 + ^ .ra: .cfa -56 + ^ x29: .cfa -64 + ^
STACK CFI 19620 .cfa: sp 384 +
STACK CFI 19634 .cfa: sp 0 +
STACK CFI 19638 .cfa: x29 64 +
STACK CFI INIT 196d0 1a4 .cfa: sp 0 +
STACK CFI 196d4 .cfa: sp 112 +
STACK CFI 196ec .cfa: x29 80 + x19: .cfa -8 + ^ x20: .cfa -16 + ^ x21: .cfa -24 + ^ x22: .cfa -32 + ^ x23: .cfa -40 + ^ x24: .cfa -48 + ^ x25: .cfa -56 + ^ x26: .cfa -64 + ^ .ra: .cfa -72 + ^ x29: .cfa -80 + ^
STACK CFI 197dc .cfa: sp 112 +
STACK CFI 197f4 .cfa: sp 0 +
STACK CFI 197f8 .cfa: x29 80 +
STACK CFI INIT 19874 1dc .cfa: sp 0 +
STACK CFI 19878 .cfa: sp 128 +
STACK CFI 19894 .cfa: x29 96 + x19: .cfa -8 + ^ x20: .cfa -16 + ^ x21: .cfa -24 + ^ x22: .cfa -32 + ^ x23: .cfa -40 + ^ x24: .cfa -48 + ^ x25: .cfa -56 + ^ x26: .cfa -64 + ^ x27: .cfa -80 + ^ .ra: .cfa -88 + ^ x29: .cfa -96 + ^
STACK CFI 19a00 .cfa: sp 128 +
STACK CFI 19a1c .cfa: sp 0 +
STACK CFI 19a20 .cfa: x29 96 +
STACK CFI INIT 19a50 178 .cfa: sp 0 +
STACK CFI 19a54 .cfa: sp 80 +
STACK CFI 19a68 .cfa: x29 80 + x19: .cfa -8 + ^ x20: .cfa -16 + ^ x21: .cfa -24 + ^ x22: .cfa -32 + ^ x23: .cfa -40 + ^ x24: .cfa -48 + ^ x25: .cfa -64 + ^ .ra: .cfa -72 + ^ x29: .cfa -80 + ^
STACK CFI 19b94 .cfa: sp 80 +
STACK CFI 19ba8 .cfa: sp 0 +
STACK CFI 19bac .cfa: x29 80 +
STACK CFI INIT 19d10 228 .cfa: sp 0 +
STACK CFI 19d14 .cfa: sp 128 +
STACK CFI 19d2c .cfa: x29 80 + x19: .cfa -8 + ^ x20: .cfa -16 + ^ x21: .cfa -24 + ^ x22: .cfa -32 + ^ x23: .cfa -40 + ^ x24: .cfa -48 + ^ x25: .cfa -64 + ^ .ra: .cfa -72 + ^ x29: .cfa -80 + ^
STACK CFI 19ec8 .cfa: sp 128 +
STACK CFI 19ee0 .cfa: sp 0 +
STACK CFI 19ee4 .cfa: x29 80 +
STACK CFI INIT 1a614 e0 .cfa: sp 0 +
STACK CFI 1a618 .cfa: sp 48 +
STACK CFI 1a624 .cfa: x29 48 + x19: .cfa -8 + ^ x20: .cfa -16 + ^ x21: .cfa -32 + ^ .ra: .cfa -40 + ^ x29: .cfa -48 + ^
STACK CFI 1a63c .cfa: sp 48 +
STACK CFI 1a648 .cfa: sp 0 +
STACK CFI 1a64c .cfa: x29 48 +
STACK CFI 1a6c8 .cfa: sp 48 +
STACK CFI 1a6d4 .cfa: sp 0 +
STACK CFI 1a6d8 .cfa: x29 48 +
STACK CFI INIT 1aad4 174 .cfa: sp 0 +
STACK CFI 1aad8 .cfa: sp 112 +
STACK CFI 1aae8 .cfa: x29 48 + x19: .cfa -8 + ^ x20: .cfa -16 + ^ x21: .cfa -32 + ^ .ra: .cfa -40 + ^ x29: .cfa -48 + ^
STACK CFI 1abe4 .cfa: sp 112 +
STACK CFI 1abf4 .cfa: sp 0 +
STACK CFI 1abf8 .cfa: x29 48 +
STACK CFI INIT 1ae9c 12c .cfa: sp 0 +
STACK CFI 1aea0 .cfa: sp 80 +
STACK CFI 1aeb0 .cfa: x29 48 + x19: .cfa -8 + ^ x20: .cfa -16 + ^ x21: .cfa -32 + ^ .ra: .cfa -40 + ^ x29: .cfa -48 + ^
STACK CFI 1af48 .cfa: sp 80 +
STACK CFI 1af58 .cfa: sp 0 +
STACK CFI 1af5c .cfa: x29 48 +
STACK CFI INIT 1afc8 480 .cfa: sp 0 +
STACK CFI 1afcc .cfa: sp 224 +
STACK CFI 1afe8 .cfa: x29 96 + x19: .cfa -8 + ^ x20: .cfa -16 + ^ x21: .cfa -24 + ^ x22: .cfa -32 + ^ x23: .cfa -40 + ^ x24: .cfa -48 + ^ x25: .cfa -56 + ^ x26: .cfa -64 + ^ x27: .cfa -80 + ^ .ra: .cfa -88 + ^ x29: .cfa -96 + ^
STACK CFI 1b254 .cfa: sp 224 +
STACK CFI 1b270 .cfa: sp 0 +
STACK CFI 1b274 .cfa: x29 96 +
STACK CFI 1b340 .cfa: sp 224 +
STACK CFI 1b35c .cfa: sp 0 +
STACK CFI 1b360 .cfa: x29 96 +
STACK CFI INIT 1b464 950 .cfa: sp 0 +
STACK CFI 1b468 .cfa: sp 288 +
STACK CFI 1b484 .cfa: x29 96 + x19: .cfa -8 + ^ x20: .cfa -16 + ^ x21: .cfa -24 + ^ x22: .cfa -32 + ^ x23: .cfa -40 + ^ x24: .cfa -48 + ^ x25: .cfa -56 + ^ x26: .cfa -64 + ^ x27: .cfa -72 + ^ x28: .cfa -80 + ^ .ra: .cfa -88 + ^ x29: .cfa -96 + ^
STACK CFI 1bb28 .cfa: sp 288 +
STACK CFI 1bb44 .cfa: sp 0 +
STACK CFI 1bb48 .cfa: x29 96 +
STACK CFI INIT 1be44 410 .cfa: sp 0 +
STACK CFI 1be48 .cfa: sp 144 +
STACK CFI 1be60 .cfa: x29 56 + x19: .cfa -8 + ^ x20: .cfa -16 + ^ x21: .cfa -24 + ^ x22: .cfa -32 + ^ x23: .cfa -40 + ^ .ra: .cfa -48 + ^ x29: .cfa -56 + ^ v8: .cfa -64 + ^
STACK CFI 1c1e8 .cfa: sp 144 +
STACK CFI 1c200 .cfa: sp 0 +
STACK CFI 1c204 .cfa: x29 56 +
STACK CFI INIT 1c2e8 a8 .cfa: sp 0 +
STACK CFI 1c2ec .cfa: sp 32 +
STACK CFI 1c2f4 .cfa: x29 32 + x19: .cfa -16 + ^ .ra: .cfa -24 + ^ x29: .cfa -32 + ^
STACK CFI 1c328 .cfa: sp 32 +
STACK CFI 1c330 .cfa: sp 0 +
STACK CFI 1c334 .cfa: x29 32 +
STACK CFI 1c338 .cfa: sp 32 +
STACK CFI 1c340 .cfa: sp 0 +
STACK CFI 1c344 .cfa: x29 32 +
STACK CFI INIT 1c450 190 .cfa: sp 0 +
STACK CFI 1c454 .cfa: sp 112 +
STACK CFI 1c464 .cfa: x29 48 + x19: .cfa -8 + ^ x20: .cfa -16 + ^ x21: .cfa -32 + ^ .ra: .cfa -40 + ^ x29: .cfa -48 + ^
STACK CFI 1c538 .cfa: sp 112 +
STACK CFI 1c548 .cfa: sp 0 +
STACK CFI 1c54c .cfa: x29 48 +
STACK CFI INIT 1c5e0 2b8 .cfa: sp 0 +
STACK CFI 1c5e4 .cfa: sp 160 +
STACK CFI 1c600 .cfa: x29 96 + x19: .cfa -8 + ^ x20: .cfa -16 + ^ x21: .cfa -24 + ^ x22: .cfa -32 + ^ x23: .cfa -40 + ^ x24: .cfa -48 + ^ x25: .cfa -56 + ^ x26: .cfa -64 + ^ x27: .cfa -72 + ^ x28: .cfa -80 + ^ .ra: .cfa -88 + ^ x29: .cfa -96 + ^
STACK CFI 1c638 .cfa: sp 160 +
STACK CFI 1c654 .cfa: sp 0 +
STACK CFI 1c658 .cfa: x29 96 +
STACK CFI INIT 1c898 114 .cfa: sp 0 +
STACK CFI 1c89c .cfa: sp 64 +
STACK CFI 1c8ac .cfa: x29 64 + x19: .cfa -8 + ^ x20: .cfa -16 + ^ x21: .cfa -24 + ^ x22: .cfa -32 + ^ x23: .cfa -48 + ^ .ra: .cfa -56 + ^ x29: .cfa -64 + ^
STACK CFI 1c988 .cfa: sp 64 +
STACK CFI 1c998 .cfa: sp 0 +
STACK CFI 1c99c .cfa: x29 64 +
STACK CFI INIT 1c9c4 22c .cfa: sp 0 +
STACK CFI 1c9c8 .cfa: sp 96 +
STACK CFI 1c9e0 .cfa: x29 96 + x19: .cfa -8 + ^ x20: .cfa -16 + ^ x21: .cfa -24 + ^ x22: .cfa -32 + ^ x23: .cfa -40 + ^ x24: .cfa -48 + ^ x25: .cfa -56 + ^ x26: .cfa -64 + ^ x27: .cfa -80 + ^ .ra: .cfa -88 + ^ x29: .cfa -96 + ^
STACK CFI 1cb84 .cfa: sp 96 +
STACK CFI 1cb9c .cfa: sp 0 +
STACK CFI 1cba0 .cfa: x29 96 +
STACK CFI INIT 1cc18 50 .cfa: sp 0 +
STACK CFI 1cc1c .cfa: sp 32 +
STACK CFI 1cc24 .cfa: x29 32 + x19: .cfa -8 + ^ x20: .cfa -16 + ^ .ra: .cfa -24 + ^ x29: .cfa -32 + ^
STACK CFI INIT 1cef4 134 .cfa: sp 0 +
STACK CFI 1cef8 .cfa: sp 80 +
STACK CFI 1cf08 .cfa: x29 48 + x19: .cfa -8 + ^ x20: .cfa -16 + ^ x21: .cfa -24 + ^ x22: .cfa -32 + ^ .ra: .cfa -40 + ^ x29: .cfa -48 + ^
STACK CFI 1d00c .cfa: sp 80 +
STACK CFI 1d01c .cfa: sp 0 +
STACK CFI 1d020 .cfa: x29 48 +
STACK CFI INIT 1d190 1d4 .cfa: sp 0 +
STACK CFI 1d194 .cfa: sp 112 +
STACK CFI 1d1a4 .cfa: x29 48 + x19: .cfa -8 + ^ x20: .cfa -16 + ^ x21: .cfa -24 + ^ x22: .cfa -32 + ^ .ra: .cfa -40 + ^ x29: .cfa -48 + ^
STACK CFI 1d320 .cfa: sp 112 +
STACK CFI 1d330 .cfa: sp 0 +
STACK CFI 1d334 .cfa: x29 48 +
STACK CFI INIT 1d3cc 1f0 .cfa: sp 0 +
STACK CFI 1d3d0 .cfa: sp 112 +
STACK CFI 1d3e0 .cfa: x29 48 + x19: .cfa -8 + ^ x20: .cfa -16 + ^ x21: .cfa -24 + ^ x22: .cfa -32 + ^ .ra: .cfa -40 + ^ x29: .cfa -48 + ^
STACK CFI 1d548 .cfa: sp 112 +
STACK CFI 1d558 .cfa: sp 0 +
STACK CFI 1d55c .cfa: x29 48 +
STACK CFI INIT 1d5bc d0 .cfa: sp 0 +
STACK CFI 1d5c0 .cfa: sp 48 +
STACK CFI 1d5cc .cfa: x29 48 + x19: .cfa -8 + ^ x20: .cfa -16 + ^ x21: .cfa -32 + ^ .ra: .cfa -40 + ^ x29: .cfa -48 + ^
STACK CFI 1d5dc .cfa: sp 48 +
STACK CFI 1d5e8 .cfa: sp 0 +
STACK CFI 1d5ec .cfa: x29 48 +
STACK CFI 1d660 .cfa: sp 48 +
STACK CFI 1d66c .cfa: sp 0 +
STACK CFI 1d670 .cfa: x29 48 +
STACK CFI INIT 1d68c 480 .cfa: sp 0 +
STACK CFI 1d690 .cfa: sp 224 +
STACK CFI 1d6ac .cfa: x29 96 + x19: .cfa -8 + ^ x20: .cfa -16 + ^ x21: .cfa -24 + ^ x22: .cfa -32 + ^ x23: .cfa -40 + ^ x24: .cfa -48 + ^ x25: .cfa -56 + ^ x26: .cfa -64 + ^ x27: .cfa -80 + ^ .ra: .cfa -88 + ^ x29: .cfa -96 + ^
STACK CFI 1d918 .cfa: sp 224 +
STACK CFI 1d934 .cfa: sp 0 +
STACK CFI 1d938 .cfa: x29 96 +
STACK CFI 1da04 .cfa: sp 224 +
STACK CFI 1da20 .cfa: sp 0 +
STACK CFI 1da24 .cfa: x29 96 +
STACK CFI INIT 1db28 950 .cfa: sp 0 +
STACK CFI 1db2c .cfa: sp 288 +
STACK CFI 1db48 .cfa: x29 96 + x19: .cfa -8 + ^ x20: .cfa -16 + ^ x21: .cfa -24 + ^ x22: .cfa -32 + ^ x23: .cfa -40 + ^ x24: .cfa -48 + ^ x25: .cfa -56 + ^ x26: .cfa -64 + ^ x28: .cfa -80 + ^ .ra: .cfa -88 + ^ x29: .cfa -96 + ^
STACK CFI 1e1ec .cfa: sp 288 +
STACK CFI 1e208 .cfa: sp 0 +
STACK CFI 1e20c .cfa: x29 96 +
STACK CFI INIT 1e508 3e0 .cfa: sp 0 +
STACK CFI 1e50c .cfa: sp 160 +
STACK CFI 1e524 .cfa: x29 64 + x19: .cfa -8 + ^ x20: .cfa -16 + ^ x21: .cfa -24 + ^ x22: .cfa -32 + ^ x23: .cfa -40 + ^ x24: .cfa -48 + ^ .ra: .cfa -56 + ^ x29: .cfa -64 + ^ v8: .cfa -80 + ^
STACK CFI 1e87c .cfa: sp 160 +
STACK CFI 1e894 .cfa: sp 0 +
STACK CFI 1e898 .cfa: x29 64 +
STACK CFI INIT 1ea0c a8 .cfa: sp 0 +
STACK CFI 1ea10 .cfa: sp 32 +
STACK CFI 1ea18 .cfa: x29 32 + x19: .cfa -16 + ^ .ra: .cfa -24 + ^ x29: .cfa -32 + ^
STACK CFI 1ea4c .cfa: sp 32 +
STACK CFI 1ea54 .cfa: sp 0 +
STACK CFI 1ea58 .cfa: x29 32 +
STACK CFI 1ea5c .cfa: sp 32 +
STACK CFI 1ea64 .cfa: sp 0 +
STACK CFI 1ea68 .cfa: x29 32 +
STACK CFI INIT 1eb74 190 .cfa: sp 0 +
STACK CFI 1eb78 .cfa: sp 112 +
STACK CFI 1eb88 .cfa: x29 48 + x19: .cfa -8 + ^ x20: .cfa -16 + ^ x21: .cfa -32 + ^ .ra: .cfa -40 + ^ x29: .cfa -48 + ^
STACK CFI 1ec5c .cfa: sp 112 +
STACK CFI 1ec6c .cfa: sp 0 +
STACK CFI 1ec70 .cfa: x29 48 +
STACK CFI INIT 1f06c 134 .cfa: sp 0 +
STACK CFI 1f070 .cfa: sp 80 +
STACK CFI 1f07c .cfa: x29 32 + x19: .cfa -8 + ^ x20: .cfa -16 + ^ .ra: .cfa -24 + ^ x29: .cfa -32 + ^
STACK CFI 1f0ac .cfa: sp 80 +
STACK CFI 1f0b8 .cfa: sp 0 +
STACK CFI 1f0bc .cfa: x29 32 +
STACK CFI INIT 1f1a0 78 .cfa: sp 0 +
STACK CFI 1f1a4 .cfa: sp 32 +
STACK CFI 1f1ac .cfa: x29 32 + x19: .cfa -8 + ^ x20: .cfa -16 + ^ .ra: .cfa -24 + ^ x29: .cfa -32 + ^
STACK CFI 1f1b8 .cfa: sp 32 +
STACK CFI 1f1c0 .cfa: sp 0 +
STACK CFI 1f1c4 .cfa: x29 32 +
STACK CFI INIT 1f218 74 .cfa: sp 0 +
STACK CFI 1f21c .cfa: sp 48 +
STACK CFI 1f228 .cfa: x29 32 + x19: .cfa -8 + ^ x20: .cfa -16 + ^ .ra: .cfa -24 + ^ x29: .cfa -32 + ^
STACK CFI 1f274 .cfa: sp 48 +
STACK CFI 1f280 .cfa: sp 0 +
STACK CFI 1f284 .cfa: x29 32 +
STACK CFI INIT 1f338 270 .cfa: sp 0 +
STACK CFI 1f33c .cfa: sp 144 +
STACK CFI 1f350 .cfa: x29 64 + x19: .cfa -8 + ^ x20: .cfa -16 + ^ x21: .cfa -24 + ^ x22: .cfa -32 + ^ x23: .cfa -48 + ^ .ra: .cfa -56 + ^ x29: .cfa -64 + ^
STACK CFI 1f454 .cfa: sp 144 +
STACK CFI 1f468 .cfa: sp 0 +
STACK CFI 1f46c .cfa: x29 64 +
STACK CFI INIT 1f5cc 22c .cfa: sp 0 +
STACK CFI 1f5d0 .cfa: sp 128 +
STACK CFI 1f5e0 .cfa: x29 48 + x19: .cfa -8 + ^ x20: .cfa -16 + ^ x21: .cfa -32 + ^ .ra: .cfa -40 + ^ x29: .cfa -48 + ^
STACK CFI 1f698 .cfa: sp 128 +
STACK CFI 1f6a8 .cfa: sp 0 +
STACK CFI 1f6ac .cfa: x29 48 +
STACK CFI INIT 1f84c 300 .cfa: sp 0 +
STACK CFI 1f850 .cfa: sp 144 +
STACK CFI 1f864 .cfa: x29 64 + x19: .cfa -8 + ^ x20: .cfa -16 + ^ x21: .cfa -24 + ^ x22: .cfa -32 + ^ x23: .cfa -48 + ^ .ra: .cfa -56 + ^ x29: .cfa -64 + ^
STACK CFI 1f9f8 .cfa: sp 144 +
STACK CFI 1fa0c .cfa: sp 0 +
STACK CFI 1fa10 .cfa: x29 64 +
STACK CFI INIT 1fba0 160 .cfa: sp 0 +
STACK CFI 1fba4 .cfa: sp 144 +
STACK CFI 1fbb8 .cfa: x29 64 + x19: .cfa -8 + ^ x20: .cfa -16 + ^ x21: .cfa -24 + ^ x22: .cfa -32 + ^ x23: .cfa -48 + ^ .ra: .cfa -56 + ^ x29: .cfa -64 + ^
STACK CFI 1fc08 .cfa: sp 144 +
STACK CFI 1fc1c .cfa: sp 0 +
STACK CFI 1fc20 .cfa: x29 64 +
STACK CFI INIT 1fd00 108 .cfa: sp 0 +
STACK CFI 1fd04 .cfa: sp 64 +
STACK CFI 1fd14 .cfa: x29 48 + x19: .cfa -8 + ^ x20: .cfa -16 + ^ x21: .cfa -24 + ^ x22: .cfa -32 + ^ .ra: .cfa -40 + ^ x29: .cfa -48 + ^
STACK CFI 1fdc0 .cfa: sp 64 +
STACK CFI 1fdd0 .cfa: sp 0 +
STACK CFI 1fdd4 .cfa: x29 48 +
STACK CFI INIT 1fe08 150 .cfa: sp 0 +
STACK CFI 1fe0c .cfa: sp 128 +
STACK CFI 1fe1c .cfa: x29 48 + x19: .cfa -8 + ^ x20: .cfa -16 + ^ x21: .cfa -24 + ^ x22: .cfa -32 + ^ .ra: .cfa -40 + ^ x29: .cfa -48 + ^
STACK CFI 1fe64 .cfa: sp 128 +
STACK CFI 1fe74 .cfa: sp 0 +
STACK CFI 1fe78 .cfa: x29 48 +
STACK CFI INIT 1ff58 a8 .cfa: sp 0 +
STACK CFI 1ff5c .cfa: sp 64 +
STACK CFI 1ff6c .cfa: x29 48 + x19: .cfa -8 + ^ x20: .cfa -16 + ^ x21: .cfa -32 + ^ .ra: .cfa -40 + ^ x29: .cfa -48 + ^
STACK CFI 1ffd4 .cfa: sp 64 +
STACK CFI 1ffe4 .cfa: sp 0 +
STACK CFI 1ffe8 .cfa: x29 48 +
STACK CFI INIT 20000 2a8 .cfa: sp 0 +
STACK CFI 20004 .cfa: sp 128 +
STACK CFI 20014 .cfa: x29 48 + x19: .cfa -8 + ^ x20: .cfa -16 + ^ x21: .cfa -32 + ^ .ra: .cfa -40 + ^ x29: .cfa -48 + ^
STACK CFI 20150 .cfa: sp 128 +
STACK CFI 20160 .cfa: sp 0 +
STACK CFI 20164 .cfa: x29 48 +
STACK CFI INIT 202a8 328 .cfa: sp 0 +
STACK CFI 202ac .cfa: sp 144 +
STACK CFI 202c0 .cfa: x29 64 + x19: .cfa -8 + ^ x20: .cfa -16 + ^ x21: .cfa -24 + ^ x22: .cfa -32 + ^ x23: .cfa -48 + ^ .ra: .cfa -56 + ^ x29: .cfa -64 + ^
STACK CFI 2047c .cfa: sp 144 +
STACK CFI 20490 .cfa: sp 0 +
STACK CFI 20494 .cfa: x29 64 +
STACK CFI INIT 207e4 2a0 .cfa: sp 0 +
STACK CFI 207e8 .cfa: sp 144 +
STACK CFI 207fc .cfa: x29 64 + x19: .cfa -8 + ^ x20: .cfa -16 + ^ x21: .cfa -24 + ^ x22: .cfa -32 + ^ x23: .cfa -48 + ^ .ra: .cfa -56 + ^ x29: .cfa -64 + ^
STACK CFI 20930 .cfa: sp 144 +
STACK CFI 20944 .cfa: sp 0 +
STACK CFI 20948 .cfa: x29 64 +
STACK CFI INIT 20a84 2f0 .cfa: sp 0 +
STACK CFI 20a88 .cfa: sp 144 +
STACK CFI 20a9c .cfa: x29 64 + x19: .cfa -8 + ^ x20: .cfa -16 + ^ x21: .cfa -24 + ^ x22: .cfa -32 + ^ x23: .cfa -48 + ^ .ra: .cfa -56 + ^ x29: .cfa -64 + ^
STACK CFI 20c20 .cfa: sp 144 +
STACK CFI 20c34 .cfa: sp 0 +
STACK CFI 20c38 .cfa: x29 64 +
STACK CFI INIT 20d74 4f4 .cfa: sp 0 +
STACK CFI 20d78 .cfa: sp 144 +
STACK CFI 20d8c .cfa: x29 64 + x19: .cfa -8 + ^ x20: .cfa -16 + ^ x21: .cfa -24 + ^ x22: .cfa -32 + ^ x23: .cfa -48 + ^ .ra: .cfa -56 + ^ x29: .cfa -64 + ^
STACK CFI 210c0 .cfa: sp 144 +
STACK CFI 210d4 .cfa: sp 0 +
STACK CFI 210d8 .cfa: x29 64 +
STACK CFI INIT 21268 154 .cfa: sp 0 +
STACK CFI 2126c .cfa: sp 384 +
STACK CFI 21280 .cfa: x29 64 + x19: .cfa -8 + ^ x20: .cfa -16 + ^ x21: .cfa -24 + ^ x22: .cfa -32 + ^ x23: .cfa -40 + ^ x28: .cfa -48 + ^ .ra: .cfa -56 + ^ x29: .cfa -64 + ^
STACK CFI 21364 .cfa: sp 384 +
STACK CFI 21378 .cfa: sp 0 +
STACK CFI 2137c .cfa: x29 64 +
STACK CFI INIT 213bc 168 .cfa: sp 0 +
STACK CFI 213c0 .cfa: sp 384 +
STACK CFI 213d4 .cfa: x29 64 + x19: .cfa -8 + ^ x20: .cfa -16 + ^ x21: .cfa -24 + ^ x22: .cfa -32 + ^ x23: .cfa -40 + ^ x28: .cfa -48 + ^ .ra: .cfa -56 + ^ x29: .cfa -64 + ^
STACK CFI 214cc .cfa: sp 384 +
STACK CFI 214e0 .cfa: sp 0 +
STACK CFI 214e4 .cfa: x29 64 +
STACK CFI INIT 21588 50c .cfa: sp 0 +
STACK CFI 2158c .cfa: sp 64 +
STACK CFI 2159c .cfa: x29 64 + x19: .cfa -8 + ^ x20: .cfa -16 + ^ x21: .cfa -24 + ^ x22: .cfa -32 + ^ x23: .cfa -40 + ^ x24: .cfa -48 + ^ .ra: .cfa -56 + ^ x29: .cfa -64 + ^
STACK CFI 216bc .cfa: sp 64 +
STACK CFI 216cc .cfa: sp 0 +
STACK CFI 216d0 .cfa: x29 64 +
STACK CFI 21a68 .cfa: sp 64 +
STACK CFI 21a78 .cfa: sp 0 +
STACK CFI 21a7c .cfa: x29 64 +
